   1              		.file	"debug_print.c"
   2              		.option nopic
   3              		.attribute arch, "rv32i2p0_m2p0_a2p0_f2p0_c2p0_b_p0p94"
   4              		.attribute unaligned_access, 0
   5              		.attribute stack_align, 16
   6              		.text
   7              	.Ltext0:
   8              		.cfi_sections	.debug_frame
   9              		.section	.text.printchar,"ax",@progbits
  10              		.align	1
  12              	printchar:
  13              	.LFB367:
  14              		.file 1 "C:/Users/stapi/OneDrive/Desktop/GD32VW553/V1_MQTT_OK/GD32VW55X_Wifi_BLE_SDK/GD32VW55x_REL
   1:C:/Users/stapi/OneDrive/Desktop/GD32VW553/V1_MQTT_OK/GD32VW55X_Wifi_BLE_SDK/GD32VW55x_RELEASE_V1.0.2/MSDK/util/src\debug_print.c **** /*!
   2:C:/Users/stapi/OneDrive/Desktop/GD32VW553/V1_MQTT_OK/GD32VW55X_Wifi_BLE_SDK/GD32VW55x_RELEASE_V1.0.2/MSDK/util/src\debug_print.c ****     \file    debug_print.c
   3:C:/Users/stapi/OneDrive/Desktop/GD32VW553/V1_MQTT_OK/GD32VW55X_Wifi_BLE_SDK/GD32VW55x_RELEASE_V1.0.2/MSDK/util/src\debug_print.c ****     \brief   debug print for GD32VW55x SDK.
   4:C:/Users/stapi/OneDrive/Desktop/GD32VW553/V1_MQTT_OK/GD32VW55X_Wifi_BLE_SDK/GD32VW55x_RELEASE_V1.0.2/MSDK/util/src\debug_print.c **** 
   5:C:/Users/stapi/OneDrive/Desktop/GD32VW553/V1_MQTT_OK/GD32VW55X_Wifi_BLE_SDK/GD32VW55x_RELEASE_V1.0.2/MSDK/util/src\debug_print.c ****     \version 2023-07-20, V1.0.0, firmware for GD32VW55x
   6:C:/Users/stapi/OneDrive/Desktop/GD32VW553/V1_MQTT_OK/GD32VW55X_Wifi_BLE_SDK/GD32VW55x_RELEASE_V1.0.2/MSDK/util/src\debug_print.c **** */
   7:C:/Users/stapi/OneDrive/Desktop/GD32VW553/V1_MQTT_OK/GD32VW55X_Wifi_BLE_SDK/GD32VW55x_RELEASE_V1.0.2/MSDK/util/src\debug_print.c **** 
   8:C:/Users/stapi/OneDrive/Desktop/GD32VW553/V1_MQTT_OK/GD32VW55X_Wifi_BLE_SDK/GD32VW55x_RELEASE_V1.0.2/MSDK/util/src\debug_print.c **** /*
   9:C:/Users/stapi/OneDrive/Desktop/GD32VW553/V1_MQTT_OK/GD32VW55X_Wifi_BLE_SDK/GD32VW55x_RELEASE_V1.0.2/MSDK/util/src\debug_print.c ****     Copyright (c) 2023, GigaDevice Semiconductor Inc.
  10:C:/Users/stapi/OneDrive/Desktop/GD32VW553/V1_MQTT_OK/GD32VW55X_Wifi_BLE_SDK/GD32VW55x_RELEASE_V1.0.2/MSDK/util/src\debug_print.c **** 
  11:C:/Users/stapi/OneDrive/Desktop/GD32VW553/V1_MQTT_OK/GD32VW55X_Wifi_BLE_SDK/GD32VW55x_RELEASE_V1.0.2/MSDK/util/src\debug_print.c ****     Redistribution and use in source and binary forms, with or without modification,
  12:C:/Users/stapi/OneDrive/Desktop/GD32VW553/V1_MQTT_OK/GD32VW55X_Wifi_BLE_SDK/GD32VW55x_RELEASE_V1.0.2/MSDK/util/src\debug_print.c **** are permitted provided that the following conditions are met:
  13:C:/Users/stapi/OneDrive/Desktop/GD32VW553/V1_MQTT_OK/GD32VW55X_Wifi_BLE_SDK/GD32VW55x_RELEASE_V1.0.2/MSDK/util/src\debug_print.c **** 
  14:C:/Users/stapi/OneDrive/Desktop/GD32VW553/V1_MQTT_OK/GD32VW55X_Wifi_BLE_SDK/GD32VW55x_RELEASE_V1.0.2/MSDK/util/src\debug_print.c ****     1. Redistributions of source code must retain the above copyright notice, this
  15:C:/Users/stapi/OneDrive/Desktop/GD32VW553/V1_MQTT_OK/GD32VW55X_Wifi_BLE_SDK/GD32VW55x_RELEASE_V1.0.2/MSDK/util/src\debug_print.c ****        list of conditions and the following disclaimer.
  16:C:/Users/stapi/OneDrive/Desktop/GD32VW553/V1_MQTT_OK/GD32VW55X_Wifi_BLE_SDK/GD32VW55x_RELEASE_V1.0.2/MSDK/util/src\debug_print.c ****     2. Redistributions in binary form must reproduce the above copyright notice,
  17:C:/Users/stapi/OneDrive/Desktop/GD32VW553/V1_MQTT_OK/GD32VW55X_Wifi_BLE_SDK/GD32VW55x_RELEASE_V1.0.2/MSDK/util/src\debug_print.c ****        this list of conditions and the following disclaimer in the documentation
  18:C:/Users/stapi/OneDrive/Desktop/GD32VW553/V1_MQTT_OK/GD32VW55X_Wifi_BLE_SDK/GD32VW55x_RELEASE_V1.0.2/MSDK/util/src\debug_print.c ****        and/or other materials provided with the distribution.
  19:C:/Users/stapi/OneDrive/Desktop/GD32VW553/V1_MQTT_OK/GD32VW55X_Wifi_BLE_SDK/GD32VW55x_RELEASE_V1.0.2/MSDK/util/src\debug_print.c ****     3. Neither the name of the copyright holder nor the names of its contributors
  20:C:/Users/stapi/OneDrive/Desktop/GD32VW553/V1_MQTT_OK/GD32VW55X_Wifi_BLE_SDK/GD32VW55x_RELEASE_V1.0.2/MSDK/util/src\debug_print.c ****        may be used to endorse or promote products derived from this software without
  21:C:/Users/stapi/OneDrive/Desktop/GD32VW553/V1_MQTT_OK/GD32VW55X_Wifi_BLE_SDK/GD32VW55x_RELEASE_V1.0.2/MSDK/util/src\debug_print.c ****        specific prior written permission.
  22:C:/Users/stapi/OneDrive/Desktop/GD32VW553/V1_MQTT_OK/GD32VW55X_Wifi_BLE_SDK/GD32VW55x_RELEASE_V1.0.2/MSDK/util/src\debug_print.c **** 
  23:C:/Users/stapi/OneDrive/Desktop/GD32VW553/V1_MQTT_OK/GD32VW55X_Wifi_BLE_SDK/GD32VW55x_RELEASE_V1.0.2/MSDK/util/src\debug_print.c ****     THIS SOFTWARE IS PROVIDED BY THE COPYRIGHT HOLDERS AND CONTRIBUTORS "AS IS"
  24:C:/Users/stapi/OneDrive/Desktop/GD32VW553/V1_MQTT_OK/GD32VW55X_Wifi_BLE_SDK/GD32VW55x_RELEASE_V1.0.2/MSDK/util/src\debug_print.c **** AND ANY EXPRESS OR IMPLIED WARRANTIES, INCLUDING, BUT NOT LIMITED TO, THE IMPLIED
  25:C:/Users/stapi/OneDrive/Desktop/GD32VW553/V1_MQTT_OK/GD32VW55X_Wifi_BLE_SDK/GD32VW55x_RELEASE_V1.0.2/MSDK/util/src\debug_print.c **** WARRANTIES OF MERCHANTABILITY AND FITNESS FOR A PARTICULAR PURPOSE ARE DISCLAIMED.
  26:C:/Users/stapi/OneDrive/Desktop/GD32VW553/V1_MQTT_OK/GD32VW55X_Wifi_BLE_SDK/GD32VW55x_RELEASE_V1.0.2/MSDK/util/src\debug_print.c **** IN NO EVENT SHALL THE COPYRIGHT HOLDER OR CONTRIBUTORS BE LIABLE FOR ANY DIRECT,
  27:C:/Users/stapi/OneDrive/Desktop/GD32VW553/V1_MQTT_OK/GD32VW55X_Wifi_BLE_SDK/GD32VW55x_RELEASE_V1.0.2/MSDK/util/src\debug_print.c **** INDIRECT, INCIDENTAL, SPECIAL, EXEMPLARY, OR CONSEQUENTIAL DAMAGES (INCLUDING, BUT
  28:C:/Users/stapi/OneDrive/Desktop/GD32VW553/V1_MQTT_OK/GD32VW55X_Wifi_BLE_SDK/GD32VW55x_RELEASE_V1.0.2/MSDK/util/src\debug_print.c **** NOT LIMITED TO, PROCUREMENT OF SUBSTITUTE GOODS OR SERVICES; LOSS OF USE, DATA, OR
  29:C:/Users/stapi/OneDrive/Desktop/GD32VW553/V1_MQTT_OK/GD32VW55X_Wifi_BLE_SDK/GD32VW55x_RELEASE_V1.0.2/MSDK/util/src\debug_print.c **** PROFITS; OR BUSINESS INTERRUPTION) HOWEVER CAUSED AND ON ANY THEORY OF LIABILITY,
  30:C:/Users/stapi/OneDrive/Desktop/GD32VW553/V1_MQTT_OK/GD32VW55X_Wifi_BLE_SDK/GD32VW55x_RELEASE_V1.0.2/MSDK/util/src\debug_print.c **** WHETHER IN CONTRACT, STRICT LIABILITY, OR TORT (INCLUDING NEGLIGENCE OR OTHERWISE)
  31:C:/Users/stapi/OneDrive/Desktop/GD32VW553/V1_MQTT_OK/GD32VW55X_Wifi_BLE_SDK/GD32VW55x_RELEASE_V1.0.2/MSDK/util/src\debug_print.c **** ARISING IN ANY WAY OUT OF THE USE OF THIS SOFTWARE, EVEN IF ADVISED OF THE POSSIBILITY
  32:C:/Users/stapi/OneDrive/Desktop/GD32VW553/V1_MQTT_OK/GD32VW55X_Wifi_BLE_SDK/GD32VW55x_RELEASE_V1.0.2/MSDK/util/src\debug_print.c **** OF SUCH DAMAGE.
  33:C:/Users/stapi/OneDrive/Desktop/GD32VW553/V1_MQTT_OK/GD32VW55X_Wifi_BLE_SDK/GD32VW55x_RELEASE_V1.0.2/MSDK/util/src\debug_print.c **** */
  34:C:/Users/stapi/OneDrive/Desktop/GD32VW553/V1_MQTT_OK/GD32VW55X_Wifi_BLE_SDK/GD32VW55x_RELEASE_V1.0.2/MSDK/util/src\debug_print.c **** 
  35:C:/Users/stapi/OneDrive/Desktop/GD32VW553/V1_MQTT_OK/GD32VW55X_Wifi_BLE_SDK/GD32VW55x_RELEASE_V1.0.2/MSDK/util/src\debug_print.c **** #include <stdarg.h>
  36:C:/Users/stapi/OneDrive/Desktop/GD32VW553/V1_MQTT_OK/GD32VW55X_Wifi_BLE_SDK/GD32VW55x_RELEASE_V1.0.2/MSDK/util/src\debug_print.c **** #include <string.h>
  37:C:/Users/stapi/OneDrive/Desktop/GD32VW553/V1_MQTT_OK/GD32VW55X_Wifi_BLE_SDK/GD32VW55x_RELEASE_V1.0.2/MSDK/util/src\debug_print.c **** #include <stdint.h>
  38:C:/Users/stapi/OneDrive/Desktop/GD32VW553/V1_MQTT_OK/GD32VW55X_Wifi_BLE_SDK/GD32VW55x_RELEASE_V1.0.2/MSDK/util/src\debug_print.c **** #include "debug_print.h"
  39:C:/Users/stapi/OneDrive/Desktop/GD32VW553/V1_MQTT_OK/GD32VW55X_Wifi_BLE_SDK/GD32VW55x_RELEASE_V1.0.2/MSDK/util/src\debug_print.c **** #include "wrapper_os.h"
  40:C:/Users/stapi/OneDrive/Desktop/GD32VW553/V1_MQTT_OK/GD32VW55X_Wifi_BLE_SDK/GD32VW55x_RELEASE_V1.0.2/MSDK/util/src\debug_print.c **** #include "trace_ext.h"
  41:C:/Users/stapi/OneDrive/Desktop/GD32VW553/V1_MQTT_OK/GD32VW55X_Wifi_BLE_SDK/GD32VW55x_RELEASE_V1.0.2/MSDK/util/src\debug_print.c **** #include "util.h"
  42:C:/Users/stapi/OneDrive/Desktop/GD32VW553/V1_MQTT_OK/GD32VW55X_Wifi_BLE_SDK/GD32VW55x_RELEASE_V1.0.2/MSDK/util/src\debug_print.c **** #include "log_uart.h"
  43:C:/Users/stapi/OneDrive/Desktop/GD32VW553/V1_MQTT_OK/GD32VW55X_Wifi_BLE_SDK/GD32VW55x_RELEASE_V1.0.2/MSDK/util/src\debug_print.c **** #include "plf_assert.h"
  44:C:/Users/stapi/OneDrive/Desktop/GD32VW553/V1_MQTT_OK/GD32VW55X_Wifi_BLE_SDK/GD32VW55x_RELEASE_V1.0.2/MSDK/util/src\debug_print.c **** 
  45:C:/Users/stapi/OneDrive/Desktop/GD32VW553/V1_MQTT_OK/GD32VW55X_Wifi_BLE_SDK/GD32VW55x_RELEASE_V1.0.2/MSDK/util/src\debug_print.c **** // whether short type is supported
  46:C:/Users/stapi/OneDrive/Desktop/GD32VW553/V1_MQTT_OK/GD32VW55X_Wifi_BLE_SDK/GD32VW55x_RELEASE_V1.0.2/MSDK/util/src\debug_print.c **** #define FLAG_SHORT_SUPPORTED
  47:C:/Users/stapi/OneDrive/Desktop/GD32VW553/V1_MQTT_OK/GD32VW55X_Wifi_BLE_SDK/GD32VW55x_RELEASE_V1.0.2/MSDK/util/src\debug_print.c **** 
  48:C:/Users/stapi/OneDrive/Desktop/GD32VW553/V1_MQTT_OK/GD32VW55X_Wifi_BLE_SDK/GD32VW55x_RELEASE_V1.0.2/MSDK/util/src\debug_print.c **** // States values
  49:C:/Users/stapi/OneDrive/Desktop/GD32VW553/V1_MQTT_OK/GD32VW55X_Wifi_BLE_SDK/GD32VW55x_RELEASE_V1.0.2/MSDK/util/src\debug_print.c **** enum
  50:C:/Users/stapi/OneDrive/Desktop/GD32VW553/V1_MQTT_OK/GD32VW55X_Wifi_BLE_SDK/GD32VW55x_RELEASE_V1.0.2/MSDK/util/src\debug_print.c **** {
  51:C:/Users/stapi/OneDrive/Desktop/GD32VW553/V1_MQTT_OK/GD32VW55X_Wifi_BLE_SDK/GD32VW55x_RELEASE_V1.0.2/MSDK/util/src\debug_print.c ****     S_COPY,         // Initial state; copy chars of the format str
  52:C:/Users/stapi/OneDrive/Desktop/GD32VW553/V1_MQTT_OK/GD32VW55X_Wifi_BLE_SDK/GD32VW55x_RELEASE_V1.0.2/MSDK/util/src\debug_print.c ****     S_PERCENT,      // just read '%'
  53:C:/Users/stapi/OneDrive/Desktop/GD32VW553/V1_MQTT_OK/GD32VW55X_Wifi_BLE_SDK/GD32VW55x_RELEASE_V1.0.2/MSDK/util/src\debug_print.c ****     S_FLAGS,        // just read flag character
  54:C:/Users/stapi/OneDrive/Desktop/GD32VW553/V1_MQTT_OK/GD32VW55X_Wifi_BLE_SDK/GD32VW55x_RELEASE_V1.0.2/MSDK/util/src\debug_print.c ****     S_WIDTH,        // just read width specifier
  55:C:/Users/stapi/OneDrive/Desktop/GD32VW553/V1_MQTT_OK/GD32VW55X_Wifi_BLE_SDK/GD32VW55x_RELEASE_V1.0.2/MSDK/util/src\debug_print.c ****     S_DOT,          // just read '.'
  56:C:/Users/stapi/OneDrive/Desktop/GD32VW553/V1_MQTT_OK/GD32VW55X_Wifi_BLE_SDK/GD32VW55x_RELEASE_V1.0.2/MSDK/util/src\debug_print.c ****     S_PRECIS,       // just read field_precision specifier
  57:C:/Users/stapi/OneDrive/Desktop/GD32VW553/V1_MQTT_OK/GD32VW55X_Wifi_BLE_SDK/GD32VW55x_RELEASE_V1.0.2/MSDK/util/src\debug_print.c ****     S_SIZE,         // just read size specifier
  58:C:/Users/stapi/OneDrive/Desktop/GD32VW553/V1_MQTT_OK/GD32VW55X_Wifi_BLE_SDK/GD32VW55x_RELEASE_V1.0.2/MSDK/util/src\debug_print.c ****     S_TYPE,         // just read type specifier
  59:C:/Users/stapi/OneDrive/Desktop/GD32VW553/V1_MQTT_OK/GD32VW55X_Wifi_BLE_SDK/GD32VW55x_RELEASE_V1.0.2/MSDK/util/src\debug_print.c ****     S_MAX,
  60:C:/Users/stapi/OneDrive/Desktop/GD32VW553/V1_MQTT_OK/GD32VW55X_Wifi_BLE_SDK/GD32VW55x_RELEASE_V1.0.2/MSDK/util/src\debug_print.c **** };
  61:C:/Users/stapi/OneDrive/Desktop/GD32VW553/V1_MQTT_OK/GD32VW55X_Wifi_BLE_SDK/GD32VW55x_RELEASE_V1.0.2/MSDK/util/src\debug_print.c **** 
  62:C:/Users/stapi/OneDrive/Desktop/GD32VW553/V1_MQTT_OK/GD32VW55X_Wifi_BLE_SDK/GD32VW55x_RELEASE_V1.0.2/MSDK/util/src\debug_print.c **** // character type values
  63:C:/Users/stapi/OneDrive/Desktop/GD32VW553/V1_MQTT_OK/GD32VW55X_Wifi_BLE_SDK/GD32VW55x_RELEASE_V1.0.2/MSDK/util/src\debug_print.c **** enum
  64:C:/Users/stapi/OneDrive/Desktop/GD32VW553/V1_MQTT_OK/GD32VW55X_Wifi_BLE_SDK/GD32VW55x_RELEASE_V1.0.2/MSDK/util/src\debug_print.c **** {
  65:C:/Users/stapi/OneDrive/Desktop/GD32VW553/V1_MQTT_OK/GD32VW55X_Wifi_BLE_SDK/GD32VW55x_RELEASE_V1.0.2/MSDK/util/src\debug_print.c ****     C_OTHER,        // character with no special meaning
  66:C:/Users/stapi/OneDrive/Desktop/GD32VW553/V1_MQTT_OK/GD32VW55X_Wifi_BLE_SDK/GD32VW55x_RELEASE_V1.0.2/MSDK/util/src\debug_print.c ****     C_PERCENT,      // '%'
  67:C:/Users/stapi/OneDrive/Desktop/GD32VW553/V1_MQTT_OK/GD32VW55X_Wifi_BLE_SDK/GD32VW55x_RELEASE_V1.0.2/MSDK/util/src\debug_print.c ****     C_DOT,          // '.'
  68:C:/Users/stapi/OneDrive/Desktop/GD32VW553/V1_MQTT_OK/GD32VW55X_Wifi_BLE_SDK/GD32VW55x_RELEASE_V1.0.2/MSDK/util/src\debug_print.c ****     C_ZERO,         // '0'
  69:C:/Users/stapi/OneDrive/Desktop/GD32VW553/V1_MQTT_OK/GD32VW55X_Wifi_BLE_SDK/GD32VW55x_RELEASE_V1.0.2/MSDK/util/src\debug_print.c ****     C_DIGIT,        // '1'..'9'
  70:C:/Users/stapi/OneDrive/Desktop/GD32VW553/V1_MQTT_OK/GD32VW55X_Wifi_BLE_SDK/GD32VW55x_RELEASE_V1.0.2/MSDK/util/src\debug_print.c ****     C_FLAG,         // ' ', '+', '-',
  71:C:/Users/stapi/OneDrive/Desktop/GD32VW553/V1_MQTT_OK/GD32VW55X_Wifi_BLE_SDK/GD32VW55x_RELEASE_V1.0.2/MSDK/util/src\debug_print.c ****     C_SIZE,         // 'h', 'l', 'L'
  72:C:/Users/stapi/OneDrive/Desktop/GD32VW553/V1_MQTT_OK/GD32VW55X_Wifi_BLE_SDK/GD32VW55x_RELEASE_V1.0.2/MSDK/util/src\debug_print.c ****     C_TYPE,         // type specifying character
  73:C:/Users/stapi/OneDrive/Desktop/GD32VW553/V1_MQTT_OK/GD32VW55X_Wifi_BLE_SDK/GD32VW55x_RELEASE_V1.0.2/MSDK/util/src\debug_print.c ****     C_MAX,
  74:C:/Users/stapi/OneDrive/Desktop/GD32VW553/V1_MQTT_OK/GD32VW55X_Wifi_BLE_SDK/GD32VW55x_RELEASE_V1.0.2/MSDK/util/src\debug_print.c **** };
  75:C:/Users/stapi/OneDrive/Desktop/GD32VW553/V1_MQTT_OK/GD32VW55X_Wifi_BLE_SDK/GD32VW55x_RELEASE_V1.0.2/MSDK/util/src\debug_print.c **** 
  76:C:/Users/stapi/OneDrive/Desktop/GD32VW553/V1_MQTT_OK/GD32VW55X_Wifi_BLE_SDK/GD32VW55x_RELEASE_V1.0.2/MSDK/util/src\debug_print.c **** // field_flags used to store the format information
  77:C:/Users/stapi/OneDrive/Desktop/GD32VW553/V1_MQTT_OK/GD32VW55X_Wifi_BLE_SDK/GD32VW55x_RELEASE_V1.0.2/MSDK/util/src\debug_print.c **** enum
  78:C:/Users/stapi/OneDrive/Desktop/GD32VW553/V1_MQTT_OK/GD32VW55X_Wifi_BLE_SDK/GD32VW55x_RELEASE_V1.0.2/MSDK/util/src\debug_print.c **** {
  79:C:/Users/stapi/OneDrive/Desktop/GD32VW553/V1_MQTT_OK/GD32VW55X_Wifi_BLE_SDK/GD32VW55x_RELEASE_V1.0.2/MSDK/util/src\debug_print.c ****     FLAG_SHORT      = (1 << 0),   // short value
  80:C:/Users/stapi/OneDrive/Desktop/GD32VW553/V1_MQTT_OK/GD32VW55X_Wifi_BLE_SDK/GD32VW55x_RELEASE_V1.0.2/MSDK/util/src\debug_print.c ****     FLAG_LONG       = (1 << 1),   // long value
  81:C:/Users/stapi/OneDrive/Desktop/GD32VW553/V1_MQTT_OK/GD32VW55X_Wifi_BLE_SDK/GD32VW55x_RELEASE_V1.0.2/MSDK/util/src\debug_print.c ****     FLAG_SIGNED     = (1 << 2),   // signed value
  82:C:/Users/stapi/OneDrive/Desktop/GD32VW553/V1_MQTT_OK/GD32VW55X_Wifi_BLE_SDK/GD32VW55x_RELEASE_V1.0.2/MSDK/util/src\debug_print.c ****     FLAG_SIGN       = (1 << 3),   // Add a - or + in the front of the field
  83:C:/Users/stapi/OneDrive/Desktop/GD32VW553/V1_MQTT_OK/GD32VW55X_Wifi_BLE_SDK/GD32VW55x_RELEASE_V1.0.2/MSDK/util/src\debug_print.c ****     FLAG_SIGN_SPACE = (1 << 4),   // Add a space or - in the front of the field
  84:C:/Users/stapi/OneDrive/Desktop/GD32VW553/V1_MQTT_OK/GD32VW55X_Wifi_BLE_SDK/GD32VW55x_RELEASE_V1.0.2/MSDK/util/src\debug_print.c ****     FLAG_LEFT       = (1 << 5),   // left justify
  85:C:/Users/stapi/OneDrive/Desktop/GD32VW553/V1_MQTT_OK/GD32VW55X_Wifi_BLE_SDK/GD32VW55x_RELEASE_V1.0.2/MSDK/util/src\debug_print.c ****     FLAG_LEAD_ZERO  = (1 << 6),   // padding with 0
  86:C:/Users/stapi/OneDrive/Desktop/GD32VW553/V1_MQTT_OK/GD32VW55X_Wifi_BLE_SDK/GD32VW55x_RELEASE_V1.0.2/MSDK/util/src\debug_print.c ****     FLAG_NEGATIVE   = (1 << 7),   // the value is negative
  87:C:/Users/stapi/OneDrive/Desktop/GD32VW553/V1_MQTT_OK/GD32VW55X_Wifi_BLE_SDK/GD32VW55x_RELEASE_V1.0.2/MSDK/util/src\debug_print.c **** };
  88:C:/Users/stapi/OneDrive/Desktop/GD32VW553/V1_MQTT_OK/GD32VW55X_Wifi_BLE_SDK/GD32VW55x_RELEASE_V1.0.2/MSDK/util/src\debug_print.c **** 
  89:C:/Users/stapi/OneDrive/Desktop/GD32VW553/V1_MQTT_OK/GD32VW55X_Wifi_BLE_SDK/GD32VW55x_RELEASE_V1.0.2/MSDK/util/src\debug_print.c **** // Transition table
  90:C:/Users/stapi/OneDrive/Desktop/GD32VW553/V1_MQTT_OK/GD32VW55X_Wifi_BLE_SDK/GD32VW55x_RELEASE_V1.0.2/MSDK/util/src\debug_print.c **** static const uint8_t transition_table[S_MAX][C_MAX] =
  91:C:/Users/stapi/OneDrive/Desktop/GD32VW553/V1_MQTT_OK/GD32VW55X_Wifi_BLE_SDK/GD32VW55x_RELEASE_V1.0.2/MSDK/util/src\debug_print.c **** {   //OTHER  PERCENT    DOT     ZERO      DIGIT     FLAG     SIZE    TYPE
  92:C:/Users/stapi/OneDrive/Desktop/GD32VW553/V1_MQTT_OK/GD32VW55X_Wifi_BLE_SDK/GD32VW55x_RELEASE_V1.0.2/MSDK/util/src\debug_print.c ****     {S_COPY, S_PERCENT, S_COPY, S_COPY,   S_COPY,   S_COPY,  S_COPY, S_COPY}, // COPY
  93:C:/Users/stapi/OneDrive/Desktop/GD32VW553/V1_MQTT_OK/GD32VW55X_Wifi_BLE_SDK/GD32VW55x_RELEASE_V1.0.2/MSDK/util/src\debug_print.c ****     {S_COPY, S_COPY,    S_DOT,  S_FLAGS,  S_WIDTH,  S_FLAGS, S_SIZE, S_TYPE}, // PERCENT
  94:C:/Users/stapi/OneDrive/Desktop/GD32VW553/V1_MQTT_OK/GD32VW55X_Wifi_BLE_SDK/GD32VW55x_RELEASE_V1.0.2/MSDK/util/src\debug_print.c ****     {S_COPY, S_COPY,    S_DOT,  S_FLAGS,  S_WIDTH,  S_FLAGS, S_SIZE, S_TYPE}, // FLAGS
  95:C:/Users/stapi/OneDrive/Desktop/GD32VW553/V1_MQTT_OK/GD32VW55X_Wifi_BLE_SDK/GD32VW55x_RELEASE_V1.0.2/MSDK/util/src\debug_print.c ****     {S_COPY, S_COPY,    S_DOT,  S_WIDTH,  S_WIDTH,  S_COPY,  S_SIZE, S_TYPE}, // WIDTH
  96:C:/Users/stapi/OneDrive/Desktop/GD32VW553/V1_MQTT_OK/GD32VW55X_Wifi_BLE_SDK/GD32VW55x_RELEASE_V1.0.2/MSDK/util/src\debug_print.c ****     {S_COPY, S_COPY,    S_COPY, S_PRECIS, S_PRECIS, S_COPY,  S_SIZE, S_TYPE}, // DOT
  97:C:/Users/stapi/OneDrive/Desktop/GD32VW553/V1_MQTT_OK/GD32VW55X_Wifi_BLE_SDK/GD32VW55x_RELEASE_V1.0.2/MSDK/util/src\debug_print.c ****     {S_COPY, S_COPY,    S_COPY, S_PRECIS, S_PRECIS, S_COPY,  S_SIZE, S_TYPE}, // PRECIS
  98:C:/Users/stapi/OneDrive/Desktop/GD32VW553/V1_MQTT_OK/GD32VW55X_Wifi_BLE_SDK/GD32VW55x_RELEASE_V1.0.2/MSDK/util/src\debug_print.c ****     {S_COPY, S_COPY,    S_COPY, S_COPY,   S_COPY,   S_COPY,  S_COPY, S_TYPE}, // SIZE
  99:C:/Users/stapi/OneDrive/Desktop/GD32VW553/V1_MQTT_OK/GD32VW55X_Wifi_BLE_SDK/GD32VW55x_RELEASE_V1.0.2/MSDK/util/src\debug_print.c ****     {S_COPY, S_PERCENT, S_COPY, S_COPY,   S_COPY,   S_COPY,  S_COPY, S_COPY}, // TYPE
 100:C:/Users/stapi/OneDrive/Desktop/GD32VW553/V1_MQTT_OK/GD32VW55X_Wifi_BLE_SDK/GD32VW55x_RELEASE_V1.0.2/MSDK/util/src\debug_print.c **** };
 101:C:/Users/stapi/OneDrive/Desktop/GD32VW553/V1_MQTT_OK/GD32VW55X_Wifi_BLE_SDK/GD32VW55x_RELEASE_V1.0.2/MSDK/util/src\debug_print.c **** 
 102:C:/Users/stapi/OneDrive/Desktop/GD32VW553/V1_MQTT_OK/GD32VW55X_Wifi_BLE_SDK/GD32VW55x_RELEASE_V1.0.2/MSDK/util/src\debug_print.c **** // Upper case hexadecimal table
 103:C:/Users/stapi/OneDrive/Desktop/GD32VW553/V1_MQTT_OK/GD32VW55X_Wifi_BLE_SDK/GD32VW55x_RELEASE_V1.0.2/MSDK/util/src\debug_print.c **** static const char hex_upper_table[] = "0123456789ABCDEF";
 104:C:/Users/stapi/OneDrive/Desktop/GD32VW553/V1_MQTT_OK/GD32VW55X_Wifi_BLE_SDK/GD32VW55x_RELEASE_V1.0.2/MSDK/util/src\debug_print.c **** #ifdef SUPPORT_LOWER_CASE_HEX
 105:C:/Users/stapi/OneDrive/Desktop/GD32VW553/V1_MQTT_OK/GD32VW55X_Wifi_BLE_SDK/GD32VW55x_RELEASE_V1.0.2/MSDK/util/src\debug_print.c **** // Lower case hexadecimal table
 106:C:/Users/stapi/OneDrive/Desktop/GD32VW553/V1_MQTT_OK/GD32VW55X_Wifi_BLE_SDK/GD32VW55x_RELEASE_V1.0.2/MSDK/util/src\debug_print.c **** static const char hex_lower_table[] = "0123456789abcdef";
 107:C:/Users/stapi/OneDrive/Desktop/GD32VW553/V1_MQTT_OK/GD32VW55X_Wifi_BLE_SDK/GD32VW55x_RELEASE_V1.0.2/MSDK/util/src\debug_print.c **** #endif
 108:C:/Users/stapi/OneDrive/Desktop/GD32VW553/V1_MQTT_OK/GD32VW55X_Wifi_BLE_SDK/GD32VW55x_RELEASE_V1.0.2/MSDK/util/src\debug_print.c **** 
 109:C:/Users/stapi/OneDrive/Desktop/GD32VW553/V1_MQTT_OK/GD32VW55X_Wifi_BLE_SDK/GD32VW55x_RELEASE_V1.0.2/MSDK/util/src\debug_print.c **** 
 110:C:/Users/stapi/OneDrive/Desktop/GD32VW553/V1_MQTT_OK/GD32VW55X_Wifi_BLE_SDK/GD32VW55x_RELEASE_V1.0.2/MSDK/util/src\debug_print.c **** #ifdef CONFIG_PRINT_IN_SEQUENCE
 111:C:/Users/stapi/OneDrive/Desktop/GD32VW553/V1_MQTT_OK/GD32VW55X_Wifi_BLE_SDK/GD32VW55x_RELEASE_V1.0.2/MSDK/util/src\debug_print.c **** #define MAX_BUF_LEN            1024
 112:C:/Users/stapi/OneDrive/Desktop/GD32VW553/V1_MQTT_OK/GD32VW55X_Wifi_BLE_SDK/GD32VW55x_RELEASE_V1.0.2/MSDK/util/src\debug_print.c **** static char print_buf[MAX_BUF_LEN];
 113:C:/Users/stapi/OneDrive/Desktop/GD32VW553/V1_MQTT_OK/GD32VW55X_Wifi_BLE_SDK/GD32VW55x_RELEASE_V1.0.2/MSDK/util/src\debug_print.c **** static os_sema_t print_sema;
 114:C:/Users/stapi/OneDrive/Desktop/GD32VW553/V1_MQTT_OK/GD32VW55X_Wifi_BLE_SDK/GD32VW55x_RELEASE_V1.0.2/MSDK/util/src\debug_print.c **** static int print_task_init = 0;
 115:C:/Users/stapi/OneDrive/Desktop/GD32VW553/V1_MQTT_OK/GD32VW55X_Wifi_BLE_SDK/GD32VW55x_RELEASE_V1.0.2/MSDK/util/src\debug_print.c **** static int w_point = 0, r_point = 0, used_len = 0;
 116:C:/Users/stapi/OneDrive/Desktop/GD32VW553/V1_MQTT_OK/GD32VW55X_Wifi_BLE_SDK/GD32VW55x_RELEASE_V1.0.2/MSDK/util/src\debug_print.c **** #endif
 117:C:/Users/stapi/OneDrive/Desktop/GD32VW553/V1_MQTT_OK/GD32VW55X_Wifi_BLE_SDK/GD32VW55x_RELEASE_V1.0.2/MSDK/util/src\debug_print.c **** 
 118:C:/Users/stapi/OneDrive/Desktop/GD32VW553/V1_MQTT_OK/GD32VW55X_Wifi_BLE_SDK/GD32VW55x_RELEASE_V1.0.2/MSDK/util/src\debug_print.c **** static void printchar(char **str, int c, int *space)
 119:C:/Users/stapi/OneDrive/Desktop/GD32VW553/V1_MQTT_OK/GD32VW55X_Wifi_BLE_SDK/GD32VW55x_RELEASE_V1.0.2/MSDK/util/src\debug_print.c **** {
  15              		.loc 1 119 1
  16              		.cfi_startproc
  17              	.LVL0:
  18 0000 17030000 		call	t0,__riscv_save_0
  18      E7020300 
  19              		.cfi_offset 1, -4
  20              		.cfi_def_cfa_offset 16
 120:C:/Users/stapi/OneDrive/Desktop/GD32VW553/V1_MQTT_OK/GD32VW55X_Wifi_BLE_SDK/GD32VW55x_RELEASE_V1.0.2/MSDK/util/src\debug_print.c ****     if (!str) {
  21              		.loc 1 120 5
  22              		.loc 1 120 8 is_stmt 0
  23 0008 19E9     		bne	a0,zero,.L2
 121:C:/Users/stapi/OneDrive/Desktop/GD32VW553/V1_MQTT_OK/GD32VW55X_Wifi_BLE_SDK/GD32VW55x_RELEASE_V1.0.2/MSDK/util/src\debug_print.c ****         log_uart_putc_noint((char)c);
  24              		.loc 1 121 9 is_stmt 1
  25 000a 13F5F50F 		andi	a0,a1,0xff
  26              	.LVL1:
  27 000e 97000000 		call	log_uart_putc_noint
  27      E7800000 
  28              	.LVL2:
  29              	.L1:
 122:C:/Users/stapi/OneDrive/Desktop/GD32VW553/V1_MQTT_OK/GD32VW55X_Wifi_BLE_SDK/GD32VW55x_RELEASE_V1.0.2/MSDK/util/src\debug_print.c ****     } else if ((uint32_t)str < USART_BASE) {
 123:C:/Users/stapi/OneDrive/Desktop/GD32VW553/V1_MQTT_OK/GD32VW55X_Wifi_BLE_SDK/GD32VW55x_RELEASE_V1.0.2/MSDK/util/src\debug_print.c ****         if (*space > 0) {
 124:C:/Users/stapi/OneDrive/Desktop/GD32VW553/V1_MQTT_OK/GD32VW55X_Wifi_BLE_SDK/GD32VW55x_RELEASE_V1.0.2/MSDK/util/src\debug_print.c ****             **str = c;
 125:C:/Users/stapi/OneDrive/Desktop/GD32VW553/V1_MQTT_OK/GD32VW55X_Wifi_BLE_SDK/GD32VW55x_RELEASE_V1.0.2/MSDK/util/src\debug_print.c ****             ++(*str);
 126:C:/Users/stapi/OneDrive/Desktop/GD32VW553/V1_MQTT_OK/GD32VW55X_Wifi_BLE_SDK/GD32VW55x_RELEASE_V1.0.2/MSDK/util/src\debug_print.c ****             *space -= 1;
 127:C:/Users/stapi/OneDrive/Desktop/GD32VW553/V1_MQTT_OK/GD32VW55X_Wifi_BLE_SDK/GD32VW55x_RELEASE_V1.0.2/MSDK/util/src\debug_print.c ****         }
 128:C:/Users/stapi/OneDrive/Desktop/GD32VW553/V1_MQTT_OK/GD32VW55X_Wifi_BLE_SDK/GD32VW55x_RELEASE_V1.0.2/MSDK/util/src\debug_print.c ****     } else {
 129:C:/Users/stapi/OneDrive/Desktop/GD32VW553/V1_MQTT_OK/GD32VW55X_Wifi_BLE_SDK/GD32VW55x_RELEASE_V1.0.2/MSDK/util/src\debug_print.c ****         uint32_t uartx = (uint32_t)str;
 130:C:/Users/stapi/OneDrive/Desktop/GD32VW553/V1_MQTT_OK/GD32VW55X_Wifi_BLE_SDK/GD32VW55x_RELEASE_V1.0.2/MSDK/util/src\debug_print.c ****         if ((uartx == USART0) || (uartx == UART1) || (uartx == UART2))
 131:C:/Users/stapi/OneDrive/Desktop/GD32VW553/V1_MQTT_OK/GD32VW55X_Wifi_BLE_SDK/GD32VW55x_RELEASE_V1.0.2/MSDK/util/src\debug_print.c ****             uart_putc_noint(uartx, (char)c);
 132:C:/Users/stapi/OneDrive/Desktop/GD32VW553/V1_MQTT_OK/GD32VW55X_Wifi_BLE_SDK/GD32VW55x_RELEASE_V1.0.2/MSDK/util/src\debug_print.c ****     }
 133:C:/Users/stapi/OneDrive/Desktop/GD32VW553/V1_MQTT_OK/GD32VW55X_Wifi_BLE_SDK/GD32VW55x_RELEASE_V1.0.2/MSDK/util/src\debug_print.c **** }
  30              		.loc 1 133 1 is_stmt 0
  31 0016 17030000 		tail	__riscv_restore_0
  31      67000300 
  32              		.cfi_remember_state
  33              		.cfi_restore 1
  34              		.cfi_def_cfa_offset 0
  35              	.LVL3:
  36              	.L2:
  37              		.cfi_restore_state
 122:C:/Users/stapi/OneDrive/Desktop/GD32VW553/V1_MQTT_OK/GD32VW55X_Wifi_BLE_SDK/GD32VW55x_RELEASE_V1.0.2/MSDK/util/src\debug_print.c ****     } else if ((uint32_t)str < USART_BASE) {
  38              		.loc 1 122 12 is_stmt 1
 122:C:/Users/stapi/OneDrive/Desktop/GD32VW553/V1_MQTT_OK/GD32VW55X_Wifi_BLE_SDK/GD32VW55x_RELEASE_V1.0.2/MSDK/util/src\debug_print.c ****     } else if ((uint32_t)str < USART_BASE) {
  39              		.loc 1 122 15 is_stmt 0
  40 001e B7470040 		li	a5,1073758208
  41 0022 1387F73F 		addi	a4,a5,1023
  42 0026 636FA700 		bgtu	a0,a4,.L4
 123:C:/Users/stapi/OneDrive/Desktop/GD32VW553/V1_MQTT_OK/GD32VW55X_Wifi_BLE_SDK/GD32VW55x_RELEASE_V1.0.2/MSDK/util/src\debug_print.c ****             **str = c;
  43              		.loc 1 123 9 is_stmt 1
 123:C:/Users/stapi/OneDrive/Desktop/GD32VW553/V1_MQTT_OK/GD32VW55X_Wifi_BLE_SDK/GD32VW55x_RELEASE_V1.0.2/MSDK/util/src\debug_print.c ****             **str = c;
  44              		.loc 1 123 12 is_stmt 0
  45 002a 1C42     		lw	a5,0(a2)
  46 002c E355F0FE 		ble	a5,zero,.L1
  47              	.LVL4:
  48              	.LBB13:
  49              	.LBB14:
 124:C:/Users/stapi/OneDrive/Desktop/GD32VW553/V1_MQTT_OK/GD32VW55X_Wifi_BLE_SDK/GD32VW55x_RELEASE_V1.0.2/MSDK/util/src\debug_print.c ****             ++(*str);
  50              		.loc 1 124 13 is_stmt 1
 124:C:/Users/stapi/OneDrive/Desktop/GD32VW553/V1_MQTT_OK/GD32VW55X_Wifi_BLE_SDK/GD32VW55x_RELEASE_V1.0.2/MSDK/util/src\debug_print.c ****             ++(*str);
  51              		.loc 1 124 14 is_stmt 0
  52 0030 1C41     		lw	a5,0(a0)
 124:C:/Users/stapi/OneDrive/Desktop/GD32VW553/V1_MQTT_OK/GD32VW55X_Wifi_BLE_SDK/GD32VW55x_RELEASE_V1.0.2/MSDK/util/src\debug_print.c ****             ++(*str);
  53              		.loc 1 124 19
  54 0032 2380B700 		sb	a1,0(a5)
 125:C:/Users/stapi/OneDrive/Desktop/GD32VW553/V1_MQTT_OK/GD32VW55X_Wifi_BLE_SDK/GD32VW55x_RELEASE_V1.0.2/MSDK/util/src\debug_print.c ****             *space -= 1;
  55              		.loc 1 125 13 is_stmt 1
  56 0036 1C41     		lw	a5,0(a0)
  57 0038 8507     		addi	a5,a5,1
  58 003a 1CC1     		sw	a5,0(a0)
 126:C:/Users/stapi/OneDrive/Desktop/GD32VW553/V1_MQTT_OK/GD32VW55X_Wifi_BLE_SDK/GD32VW55x_RELEASE_V1.0.2/MSDK/util/src\debug_print.c ****         }
  59              		.loc 1 126 13
 126:C:/Users/stapi/OneDrive/Desktop/GD32VW553/V1_MQTT_OK/GD32VW55X_Wifi_BLE_SDK/GD32VW55x_RELEASE_V1.0.2/MSDK/util/src\debug_print.c ****         }
  60              		.loc 1 126 20 is_stmt 0
  61 003c 1C42     		lw	a5,0(a2)
  62 003e FD17     		addi	a5,a5,-1
  63 0040 1CC2     		sw	a5,0(a2)
  64              		.loc 1 133 1
  65 0042 D1BF     		j	.L1
  66              	.LVL5:
  67              	.L4:
  68              	.LBE14:
  69              	.LBE13:
  70              	.LBB15:
 129:C:/Users/stapi/OneDrive/Desktop/GD32VW553/V1_MQTT_OK/GD32VW55X_Wifi_BLE_SDK/GD32VW55x_RELEASE_V1.0.2/MSDK/util/src\debug_print.c ****         if ((uartx == USART0) || (uartx == UART1) || (uartx == UART2))
  71              		.loc 1 129 9 is_stmt 1
 130:C:/Users/stapi/OneDrive/Desktop/GD32VW553/V1_MQTT_OK/GD32VW55X_Wifi_BLE_SDK/GD32VW55x_RELEASE_V1.0.2/MSDK/util/src\debug_print.c ****             uart_putc_noint(uartx, (char)c);
  72              		.loc 1 130 9
 130:C:/Users/stapi/OneDrive/Desktop/GD32VW553/V1_MQTT_OK/GD32VW55X_Wifi_BLE_SDK/GD32VW55x_RELEASE_V1.0.2/MSDK/util/src\debug_print.c ****             uart_putc_noint(uartx, (char)c);
  73              		.loc 1 130 12 is_stmt 0
  74 0044 37570040 		li	a4,1073762304
  75 0048 13070780 		addi	a4,a4,-2048
  76 004c 630AE500 		beq	a0,a4,.L5
 130:C:/Users/stapi/OneDrive/Desktop/GD32VW553/V1_MQTT_OK/GD32VW55X_Wifi_BLE_SDK/GD32VW55x_RELEASE_V1.0.2/MSDK/util/src\debug_print.c ****             uart_putc_noint(uartx, (char)c);
  77              		.loc 1 130 31 discriminator 1
  78 0050 93870740 		addi	a5,a5,1024
  79 0054 6306F500 		beq	a0,a5,.L5
 130:C:/Users/stapi/OneDrive/Desktop/GD32VW553/V1_MQTT_OK/GD32VW55X_Wifi_BLE_SDK/GD32VW55x_RELEASE_V1.0.2/MSDK/util/src\debug_print.c ****             uart_putc_noint(uartx, (char)c);
  80              		.loc 1 130 51 discriminator 2
  81 0058 B7170140 		li	a5,1073811456
  82 005c E31DF5FA 		bne	a0,a5,.L1
  83              	.L5:
 131:C:/Users/stapi/OneDrive/Desktop/GD32VW553/V1_MQTT_OK/GD32VW55X_Wifi_BLE_SDK/GD32VW55x_RELEASE_V1.0.2/MSDK/util/src\debug_print.c ****     }
  84              		.loc 1 131 13 is_stmt 1
  85 0060 93F5F50F 		andi	a1,a1,0xff
  86              	.LVL6:
  87 0064 97000000 		call	uart_putc_noint
  87      E7800000 
  88              	.LVL7:
  89              	.LBE15:
  90              		.loc 1 133 1 is_stmt 0
  91 006c 6DB7     		j	.L1
  92              		.cfi_endproc
  93              	.LFE367:
  95              		.section	.text.prints,"ax",@progbits
  96              		.align	1
  98              	prints:
  99              	.LFB368:
 134:C:/Users/stapi/OneDrive/Desktop/GD32VW553/V1_MQTT_OK/GD32VW55X_Wifi_BLE_SDK/GD32VW55x_RELEASE_V1.0.2/MSDK/util/src\debug_print.c **** 
 135:C:/Users/stapi/OneDrive/Desktop/GD32VW553/V1_MQTT_OK/GD32VW55X_Wifi_BLE_SDK/GD32VW55x_RELEASE_V1.0.2/MSDK/util/src\debug_print.c **** #define PAD_RIGHT 1
 136:C:/Users/stapi/OneDrive/Desktop/GD32VW553/V1_MQTT_OK/GD32VW55X_Wifi_BLE_SDK/GD32VW55x_RELEASE_V1.0.2/MSDK/util/src\debug_print.c **** #define PAD_ZERO 2
 137:C:/Users/stapi/OneDrive/Desktop/GD32VW553/V1_MQTT_OK/GD32VW55X_Wifi_BLE_SDK/GD32VW55x_RELEASE_V1.0.2/MSDK/util/src\debug_print.c **** 
 138:C:/Users/stapi/OneDrive/Desktop/GD32VW553/V1_MQTT_OK/GD32VW55X_Wifi_BLE_SDK/GD32VW55x_RELEASE_V1.0.2/MSDK/util/src\debug_print.c **** static int prints(char **out, const char *string, int width, int pad, int *space)
 139:C:/Users/stapi/OneDrive/Desktop/GD32VW553/V1_MQTT_OK/GD32VW55X_Wifi_BLE_SDK/GD32VW55x_RELEASE_V1.0.2/MSDK/util/src\debug_print.c **** {
 100              		.loc 1 139 1 is_stmt 1
 101              		.cfi_startproc
 102              	.LVL8:
 103 0000 17030000 		call	t0,__riscv_save_7
 103      E7020300 
 104              		.cfi_offset 22, -32
 105              		.cfi_offset 21, -28
 106              		.cfi_offset 20, -24
 107              		.cfi_offset 19, -20
 108              		.cfi_offset 18, -16
 109              		.cfi_offset 9, -12
 110              		.cfi_offset 8, -8
 111              		.cfi_offset 1, -4
 112              		.cfi_def_cfa_offset 32
 140:C:/Users/stapi/OneDrive/Desktop/GD32VW553/V1_MQTT_OK/GD32VW55X_Wifi_BLE_SDK/GD32VW55x_RELEASE_V1.0.2/MSDK/util/src\debug_print.c ****     register int pc = 0, padchar = ' ';
 113              		.loc 1 140 5
 114              	.LVL9:
 141:C:/Users/stapi/OneDrive/Desktop/GD32VW553/V1_MQTT_OK/GD32VW55X_Wifi_BLE_SDK/GD32VW55x_RELEASE_V1.0.2/MSDK/util/src\debug_print.c **** 
 142:C:/Users/stapi/OneDrive/Desktop/GD32VW553/V1_MQTT_OK/GD32VW55X_Wifi_BLE_SDK/GD32VW55x_RELEASE_V1.0.2/MSDK/util/src\debug_print.c ****     if (width > 0) {
 115              		.loc 1 142 5
 139:C:/Users/stapi/OneDrive/Desktop/GD32VW553/V1_MQTT_OK/GD32VW55X_Wifi_BLE_SDK/GD32VW55x_RELEASE_V1.0.2/MSDK/util/src\debug_print.c ****     register int pc = 0, padchar = ' ';
 116              		.loc 1 139 1 is_stmt 0
 117 0008 2A89     		mv	s2,a0
 118 000a 2E8B     		mv	s6,a1
 119 000c 3284     		mv	s0,a2
 120 000e BA89     		mv	s3,a4
 140:C:/Users/stapi/OneDrive/Desktop/GD32VW553/V1_MQTT_OK/GD32VW55X_Wifi_BLE_SDK/GD32VW55x_RELEASE_V1.0.2/MSDK/util/src\debug_print.c ****     register int pc = 0, padchar = ' ';
 121              		.loc 1 140 26
 122 0010 930A0002 		li	s5,32
 123              		.loc 1 142 8
 124 0014 6354C002 		ble	a2,zero,.L9
 125 0018 8147     		li	a5,0
 126 001a 11A0     		j	.L8
 127              	.LVL10:
 128              	.L10:
 129              	.LBB16:
 143:C:/Users/stapi/OneDrive/Desktop/GD32VW553/V1_MQTT_OK/GD32VW55X_Wifi_BLE_SDK/GD32VW55x_RELEASE_V1.0.2/MSDK/util/src\debug_print.c ****         register int len = 0;
 144:C:/Users/stapi/OneDrive/Desktop/GD32VW553/V1_MQTT_OK/GD32VW55X_Wifi_BLE_SDK/GD32VW55x_RELEASE_V1.0.2/MSDK/util/src\debug_print.c ****         register const char *ptr;
 145:C:/Users/stapi/OneDrive/Desktop/GD32VW553/V1_MQTT_OK/GD32VW55X_Wifi_BLE_SDK/GD32VW55x_RELEASE_V1.0.2/MSDK/util/src\debug_print.c **** 
 146:C:/Users/stapi/OneDrive/Desktop/GD32VW553/V1_MQTT_OK/GD32VW55X_Wifi_BLE_SDK/GD32VW55x_RELEASE_V1.0.2/MSDK/util/src\debug_print.c ****         for (ptr = string; *ptr; ++ptr) {
 147:C:/Users/stapi/OneDrive/Desktop/GD32VW553/V1_MQTT_OK/GD32VW55X_Wifi_BLE_SDK/GD32VW55x_RELEASE_V1.0.2/MSDK/util/src\debug_print.c ****             ++len;
 130              		.loc 1 147 13 is_stmt 1 discriminator 3
 131 001c 8507     		addi	a5,a5,1
 132              	.LVL11:
 146:C:/Users/stapi/OneDrive/Desktop/GD32VW553/V1_MQTT_OK/GD32VW55X_Wifi_BLE_SDK/GD32VW55x_RELEASE_V1.0.2/MSDK/util/src\debug_print.c ****             ++len;
 133              		.loc 1 146 34 discriminator 3
 134              	.L8:
 146:C:/Users/stapi/OneDrive/Desktop/GD32VW553/V1_MQTT_OK/GD32VW55X_Wifi_BLE_SDK/GD32VW55x_RELEASE_V1.0.2/MSDK/util/src\debug_print.c ****             ++len;
 135              		.loc 1 146 28 discriminator 1
 136 001e 3307FB00 		add	a4,s6,a5
 137              	.LVL12:
 146:C:/Users/stapi/OneDrive/Desktop/GD32VW553/V1_MQTT_OK/GD32VW55X_Wifi_BLE_SDK/GD32VW55x_RELEASE_V1.0.2/MSDK/util/src\debug_print.c ****             ++len;
 138              		.loc 1 146 9 is_stmt 0 discriminator 1
 139 0022 03070700 		lb	a4,0(a4)
 140              	.LVL13:
 141 0026 7DFB     		bne	a4,zero,.L10
 148:C:/Users/stapi/OneDrive/Desktop/GD32VW553/V1_MQTT_OK/GD32VW55X_Wifi_BLE_SDK/GD32VW55x_RELEASE_V1.0.2/MSDK/util/src\debug_print.c ****         }
 149:C:/Users/stapi/OneDrive/Desktop/GD32VW553/V1_MQTT_OK/GD32VW55X_Wifi_BLE_SDK/GD32VW55x_RELEASE_V1.0.2/MSDK/util/src\debug_print.c **** 
 150:C:/Users/stapi/OneDrive/Desktop/GD32VW553/V1_MQTT_OK/GD32VW55X_Wifi_BLE_SDK/GD32VW55x_RELEASE_V1.0.2/MSDK/util/src\debug_print.c ****         if (len >= width) {
 142              		.loc 1 150 9 is_stmt 1
 143              		.loc 1 150 12 is_stmt 0
 144 0028 63DF8700 		bge	a5,s0,.L20
 151:C:/Users/stapi/OneDrive/Desktop/GD32VW553/V1_MQTT_OK/GD32VW55X_Wifi_BLE_SDK/GD32VW55x_RELEASE_V1.0.2/MSDK/util/src\debug_print.c ****             width = 0;
 152:C:/Users/stapi/OneDrive/Desktop/GD32VW553/V1_MQTT_OK/GD32VW55X_Wifi_BLE_SDK/GD32VW55x_RELEASE_V1.0.2/MSDK/util/src\debug_print.c ****         }
 153:C:/Users/stapi/OneDrive/Desktop/GD32VW553/V1_MQTT_OK/GD32VW55X_Wifi_BLE_SDK/GD32VW55x_RELEASE_V1.0.2/MSDK/util/src\debug_print.c ****         else {
 154:C:/Users/stapi/OneDrive/Desktop/GD32VW553/V1_MQTT_OK/GD32VW55X_Wifi_BLE_SDK/GD32VW55x_RELEASE_V1.0.2/MSDK/util/src\debug_print.c ****             width -= len;
 145              		.loc 1 154 13 is_stmt 1
 146              		.loc 1 154 19 is_stmt 0
 147 002c 1D8C     		sub	s0,s0,a5
 148              	.LVL14:
 149              	.L11:
 155:C:/Users/stapi/OneDrive/Desktop/GD32VW553/V1_MQTT_OK/GD32VW55X_Wifi_BLE_SDK/GD32VW55x_RELEASE_V1.0.2/MSDK/util/src\debug_print.c ****         }
 156:C:/Users/stapi/OneDrive/Desktop/GD32VW553/V1_MQTT_OK/GD32VW55X_Wifi_BLE_SDK/GD32VW55x_RELEASE_V1.0.2/MSDK/util/src\debug_print.c **** 
 157:C:/Users/stapi/OneDrive/Desktop/GD32VW553/V1_MQTT_OK/GD32VW55X_Wifi_BLE_SDK/GD32VW55x_RELEASE_V1.0.2/MSDK/util/src\debug_print.c ****         if (pad & PAD_ZERO) {
 150              		.loc 1 157 9 is_stmt 1
 151              		.loc 1 157 17 is_stmt 0
 152 002e 93F72600 		andi	a5,a3,2
 153              	.LVL15:
 154              	.LBE16:
 140:C:/Users/stapi/OneDrive/Desktop/GD32VW553/V1_MQTT_OK/GD32VW55X_Wifi_BLE_SDK/GD32VW55x_RELEASE_V1.0.2/MSDK/util/src\debug_print.c **** 
 155              		.loc 1 140 26
 156 0032 930A0002 		li	s5,32
 157              	.LBB17:
 158              		.loc 1 157 12
 159 0036 99C3     		beq	a5,zero,.L9
 158:C:/Users/stapi/OneDrive/Desktop/GD32VW553/V1_MQTT_OK/GD32VW55X_Wifi_BLE_SDK/GD32VW55x_RELEASE_V1.0.2/MSDK/util/src\debug_print.c ****             padchar = '0';
 160              		.loc 1 158 21
 161 0038 930A0003 		li	s5,48
 162              	.L9:
 163              	.LVL16:
 164              	.LBE17:
 159:C:/Users/stapi/OneDrive/Desktop/GD32VW553/V1_MQTT_OK/GD32VW55X_Wifi_BLE_SDK/GD32VW55x_RELEASE_V1.0.2/MSDK/util/src\debug_print.c ****         }
 160:C:/Users/stapi/OneDrive/Desktop/GD32VW553/V1_MQTT_OK/GD32VW55X_Wifi_BLE_SDK/GD32VW55x_RELEASE_V1.0.2/MSDK/util/src\debug_print.c ****     }
 161:C:/Users/stapi/OneDrive/Desktop/GD32VW553/V1_MQTT_OK/GD32VW55X_Wifi_BLE_SDK/GD32VW55x_RELEASE_V1.0.2/MSDK/util/src\debug_print.c **** 
 162:C:/Users/stapi/OneDrive/Desktop/GD32VW553/V1_MQTT_OK/GD32VW55X_Wifi_BLE_SDK/GD32VW55x_RELEASE_V1.0.2/MSDK/util/src\debug_print.c ****     if (!(pad & PAD_RIGHT)) {
 165              		.loc 1 162 5 is_stmt 1
 166              		.loc 1 162 15 is_stmt 0
 167 003c 858A     		andi	a3,a3,1
 168              	.LVL17:
 140:C:/Users/stapi/OneDrive/Desktop/GD32VW553/V1_MQTT_OK/GD32VW55X_Wifi_BLE_SDK/GD32VW55x_RELEASE_V1.0.2/MSDK/util/src\debug_print.c **** 
 169              		.loc 1 140 18
 170 003e 8144     		li	s1,0
 171              		.loc 1 162 8
 172 0040 9DE2     		bne	a3,zero,.L13
 173 0042 A284     		mv	s1,s0
 174 0044 19A8     		j	.L12
 175              	.LVL18:
 176              	.L20:
 177              	.LBB18:
 151:C:/Users/stapi/OneDrive/Desktop/GD32VW553/V1_MQTT_OK/GD32VW55X_Wifi_BLE_SDK/GD32VW55x_RELEASE_V1.0.2/MSDK/util/src\debug_print.c ****         }
 178              		.loc 1 151 19
 179 0046 0144     		li	s0,0
 180              	.LVL19:
 181 0048 DDB7     		j	.L11
 182              	.LVL20:
 183              	.L14:
 184              	.LBE18:
 163:C:/Users/stapi/OneDrive/Desktop/GD32VW553/V1_MQTT_OK/GD32VW55X_Wifi_BLE_SDK/GD32VW55x_RELEASE_V1.0.2/MSDK/util/src\debug_print.c ****         for ( ; width > 0; --width) {
 164:C:/Users/stapi/OneDrive/Desktop/GD32VW553/V1_MQTT_OK/GD32VW55X_Wifi_BLE_SDK/GD32VW55x_RELEASE_V1.0.2/MSDK/util/src\debug_print.c ****             printchar (out, padchar, space);
 185              		.loc 1 164 13 is_stmt 1 discriminator 2
 186 004a 4E86     		mv	a2,s3
 187 004c D685     		mv	a1,s5
 188 004e 4A85     		mv	a0,s2
 189 0050 97000000 		call	printchar
 189      E7800000 
 190              	.LVL21:
 165:C:/Users/stapi/OneDrive/Desktop/GD32VW553/V1_MQTT_OK/GD32VW55X_Wifi_BLE_SDK/GD32VW55x_RELEASE_V1.0.2/MSDK/util/src\debug_print.c ****             ++pc;
 191              		.loc 1 165 13 discriminator 2
 163:C:/Users/stapi/OneDrive/Desktop/GD32VW553/V1_MQTT_OK/GD32VW55X_Wifi_BLE_SDK/GD32VW55x_RELEASE_V1.0.2/MSDK/util/src\debug_print.c ****         for ( ; width > 0; --width) {
 192              		.loc 1 163 28 discriminator 2
 193 0058 FD14     		addi	s1,s1,-1
 194              	.LVL22:
 195              	.L12:
 163:C:/Users/stapi/OneDrive/Desktop/GD32VW553/V1_MQTT_OK/GD32VW55X_Wifi_BLE_SDK/GD32VW55x_RELEASE_V1.0.2/MSDK/util/src\debug_print.c ****         for ( ; width > 0; --width) {
 196              		.loc 1 163 17 discriminator 1
 163:C:/Users/stapi/OneDrive/Desktop/GD32VW553/V1_MQTT_OK/GD32VW55X_Wifi_BLE_SDK/GD32VW55x_RELEASE_V1.0.2/MSDK/util/src\debug_print.c ****         for ( ; width > 0; --width) {
 197              		.loc 1 163 9 is_stmt 0 discriminator 1
 198 005a E34890FE 		bgt	s1,zero,.L14
 199 005e 8144     		li	s1,0
 200              	.LVL23:
 201 0060 B364940A 		max	s1,s0,s1
 202 0064 058C     		sub	s0,s0,s1
 203              	.L13:
 140:C:/Users/stapi/OneDrive/Desktop/GD32VW553/V1_MQTT_OK/GD32VW55X_Wifi_BLE_SDK/GD32VW55x_RELEASE_V1.0.2/MSDK/util/src\debug_print.c **** 
 204              		.loc 1 140 18 discriminator 1
 205 0066 268A     		mv	s4,s1
 206 0068 01A8     		j	.L15
 207              	.LVL24:
 208              	.L16:
 166:C:/Users/stapi/OneDrive/Desktop/GD32VW553/V1_MQTT_OK/GD32VW55X_Wifi_BLE_SDK/GD32VW55x_RELEASE_V1.0.2/MSDK/util/src\debug_print.c ****         }
 167:C:/Users/stapi/OneDrive/Desktop/GD32VW553/V1_MQTT_OK/GD32VW55X_Wifi_BLE_SDK/GD32VW55x_RELEASE_V1.0.2/MSDK/util/src\debug_print.c ****     }
 168:C:/Users/stapi/OneDrive/Desktop/GD32VW553/V1_MQTT_OK/GD32VW55X_Wifi_BLE_SDK/GD32VW55x_RELEASE_V1.0.2/MSDK/util/src\debug_print.c **** 
 169:C:/Users/stapi/OneDrive/Desktop/GD32VW553/V1_MQTT_OK/GD32VW55X_Wifi_BLE_SDK/GD32VW55x_RELEASE_V1.0.2/MSDK/util/src\debug_print.c ****     for ( ; *string ; ++string) {
 170:C:/Users/stapi/OneDrive/Desktop/GD32VW553/V1_MQTT_OK/GD32VW55X_Wifi_BLE_SDK/GD32VW55x_RELEASE_V1.0.2/MSDK/util/src\debug_print.c ****         printchar (out, *string, space);
 209              		.loc 1 170 9 is_stmt 1 discriminator 2
 210 006a 4E86     		mv	a2,s3
 211 006c 4A85     		mv	a0,s2
 212 006e 97000000 		call	printchar
 212      E7800000 
 213              	.LVL25:
 171:C:/Users/stapi/OneDrive/Desktop/GD32VW553/V1_MQTT_OK/GD32VW55X_Wifi_BLE_SDK/GD32VW55x_RELEASE_V1.0.2/MSDK/util/src\debug_print.c ****         ++pc;
 214              		.loc 1 171 9 discriminator 2
 215 0076 050A     		addi	s4,s4,1
 216              	.LVL26:
 169:C:/Users/stapi/OneDrive/Desktop/GD32VW553/V1_MQTT_OK/GD32VW55X_Wifi_BLE_SDK/GD32VW55x_RELEASE_V1.0.2/MSDK/util/src\debug_print.c ****         printchar (out, *string, space);
 217              		.loc 1 169 23 discriminator 2
 218              	.L15:
 169:C:/Users/stapi/OneDrive/Desktop/GD32VW553/V1_MQTT_OK/GD32VW55X_Wifi_BLE_SDK/GD32VW55x_RELEASE_V1.0.2/MSDK/util/src\debug_print.c ****         printchar (out, *string, space);
 219              		.loc 1 169 13 discriminator 1
 220 0078 B3079A40 		sub	a5,s4,s1
 221 007c DA97     		add	a5,s6,a5
 222 007e 83850700 		lb	a1,0(a5)
 169:C:/Users/stapi/OneDrive/Desktop/GD32VW553/V1_MQTT_OK/GD32VW55X_Wifi_BLE_SDK/GD32VW55x_RELEASE_V1.0.2/MSDK/util/src\debug_print.c ****         printchar (out, *string, space);
 223              		.loc 1 169 5 is_stmt 0 discriminator 1
 224 0082 E5F5     		bne	a1,zero,.L16
 225 0084 A284     		mv	s1,s0
 226              	.LVL27:
 227              	.L17:
 172:C:/Users/stapi/OneDrive/Desktop/GD32VW553/V1_MQTT_OK/GD32VW55X_Wifi_BLE_SDK/GD32VW55x_RELEASE_V1.0.2/MSDK/util/src\debug_print.c ****     }
 173:C:/Users/stapi/OneDrive/Desktop/GD32VW553/V1_MQTT_OK/GD32VW55X_Wifi_BLE_SDK/GD32VW55x_RELEASE_V1.0.2/MSDK/util/src\debug_print.c **** 
 174:C:/Users/stapi/OneDrive/Desktop/GD32VW553/V1_MQTT_OK/GD32VW55X_Wifi_BLE_SDK/GD32VW55x_RELEASE_V1.0.2/MSDK/util/src\debug_print.c ****     for ( ; width > 0; --width) {
 228              		.loc 1 174 13 is_stmt 1 discriminator 1
 229              		.loc 1 174 5 is_stmt 0 discriminator 1
 230 0086 634A9000 		bgt	s1,zero,.L18
 175:C:/Users/stapi/OneDrive/Desktop/GD32VW553/V1_MQTT_OK/GD32VW55X_Wifi_BLE_SDK/GD32VW55x_RELEASE_V1.0.2/MSDK/util/src\debug_print.c ****         printchar (out, padchar, space);
 176:C:/Users/stapi/OneDrive/Desktop/GD32VW553/V1_MQTT_OK/GD32VW55X_Wifi_BLE_SDK/GD32VW55x_RELEASE_V1.0.2/MSDK/util/src\debug_print.c ****         ++pc;
 177:C:/Users/stapi/OneDrive/Desktop/GD32VW553/V1_MQTT_OK/GD32VW55X_Wifi_BLE_SDK/GD32VW55x_RELEASE_V1.0.2/MSDK/util/src\debug_print.c ****     }
 178:C:/Users/stapi/OneDrive/Desktop/GD32VW553/V1_MQTT_OK/GD32VW55X_Wifi_BLE_SDK/GD32VW55x_RELEASE_V1.0.2/MSDK/util/src\debug_print.c **** 
 179:C:/Users/stapi/OneDrive/Desktop/GD32VW553/V1_MQTT_OK/GD32VW55X_Wifi_BLE_SDK/GD32VW55x_RELEASE_V1.0.2/MSDK/util/src\debug_print.c ****     return pc;
 231              		.loc 1 179 5 is_stmt 1
 232              		.loc 1 179 12 is_stmt 0
 233 008a 0145     		li	a0,0
 234 008c 3365A40A 		max	a0,s0,a0
 180:C:/Users/stapi/OneDrive/Desktop/GD32VW553/V1_MQTT_OK/GD32VW55X_Wifi_BLE_SDK/GD32VW55x_RELEASE_V1.0.2/MSDK/util/src\debug_print.c **** }
 235              		.loc 1 180 1
 236 0090 5295     		add	a0,a0,s4
 237 0092 17030000 		tail	__riscv_restore_7
 237      67000300 
 238              		.cfi_remember_state
 239              		.cfi_restore 22
 240              		.cfi_restore 21
 241              		.cfi_restore 20
 242              		.cfi_restore 19
 243              		.cfi_restore 18
 244              		.cfi_restore 9
 245              		.cfi_restore 8
 246              		.cfi_restore 1
 247              		.cfi_def_cfa_offset 0
 248              	.L18:
 249              		.cfi_restore_state
 175:C:/Users/stapi/OneDrive/Desktop/GD32VW553/V1_MQTT_OK/GD32VW55X_Wifi_BLE_SDK/GD32VW55x_RELEASE_V1.0.2/MSDK/util/src\debug_print.c ****         printchar (out, padchar, space);
 250              		.loc 1 175 9 is_stmt 1 discriminator 2
 251 009a 4E86     		mv	a2,s3
 252 009c D685     		mv	a1,s5
 253 009e 4A85     		mv	a0,s2
 254 00a0 97000000 		call	printchar
 254      E7800000 
 255              	.LVL28:
 176:C:/Users/stapi/OneDrive/Desktop/GD32VW553/V1_MQTT_OK/GD32VW55X_Wifi_BLE_SDK/GD32VW55x_RELEASE_V1.0.2/MSDK/util/src\debug_print.c ****     }
 256              		.loc 1 176 9 discriminator 2
 174:C:/Users/stapi/OneDrive/Desktop/GD32VW553/V1_MQTT_OK/GD32VW55X_Wifi_BLE_SDK/GD32VW55x_RELEASE_V1.0.2/MSDK/util/src\debug_print.c ****         printchar (out, padchar, space);
 257              		.loc 1 174 24 discriminator 2
 258 00a8 FD14     		addi	s1,s1,-1
 259              	.LVL29:
 260 00aa F1BF     		j	.L17
 261              		.cfi_endproc
 262              	.LFE368:
 264              		.section	.text.printi,"ax",@progbits
 265              		.align	1
 267              	printi:
 268              	.LFB369:
 181:C:/Users/stapi/OneDrive/Desktop/GD32VW553/V1_MQTT_OK/GD32VW55X_Wifi_BLE_SDK/GD32VW55x_RELEASE_V1.0.2/MSDK/util/src\debug_print.c **** 
 182:C:/Users/stapi/OneDrive/Desktop/GD32VW553/V1_MQTT_OK/GD32VW55X_Wifi_BLE_SDK/GD32VW55x_RELEASE_V1.0.2/MSDK/util/src\debug_print.c **** /* the following should be enough for 32 bit int */
 183:C:/Users/stapi/OneDrive/Desktop/GD32VW553/V1_MQTT_OK/GD32VW55X_Wifi_BLE_SDK/GD32VW55x_RELEASE_V1.0.2/MSDK/util/src\debug_print.c **** #define PRINT_BUF_LEN 12
 184:C:/Users/stapi/OneDrive/Desktop/GD32VW553/V1_MQTT_OK/GD32VW55X_Wifi_BLE_SDK/GD32VW55x_RELEASE_V1.0.2/MSDK/util/src\debug_print.c **** 
 185:C:/Users/stapi/OneDrive/Desktop/GD32VW553/V1_MQTT_OK/GD32VW55X_Wifi_BLE_SDK/GD32VW55x_RELEASE_V1.0.2/MSDK/util/src\debug_print.c **** static int printi(char **out, int i, int b, int sg, int width, int pad, int letbase, int *space)
 186:C:/Users/stapi/OneDrive/Desktop/GD32VW553/V1_MQTT_OK/GD32VW55X_Wifi_BLE_SDK/GD32VW55x_RELEASE_V1.0.2/MSDK/util/src\debug_print.c **** {
 269              		.loc 1 186 1
 270              		.cfi_startproc
 271              	.LVL30:
 272 0000 17030000 		call	t0,__riscv_save_4
 272      E7020300 
 273              		.cfi_offset 19, -20
 274              		.cfi_offset 18, -16
 275              		.cfi_offset 9, -12
 276              		.cfi_offset 8, -8
 277              		.cfi_offset 1, -4
 278              		.cfi_def_cfa_offset 32
 187:C:/Users/stapi/OneDrive/Desktop/GD32VW553/V1_MQTT_OK/GD32VW55X_Wifi_BLE_SDK/GD32VW55x_RELEASE_V1.0.2/MSDK/util/src\debug_print.c ****     char print_buf[PRINT_BUF_LEN];
 279              		.loc 1 187 5
 188:C:/Users/stapi/OneDrive/Desktop/GD32VW553/V1_MQTT_OK/GD32VW55X_Wifi_BLE_SDK/GD32VW55x_RELEASE_V1.0.2/MSDK/util/src\debug_print.c ****     register char *s;
 280              		.loc 1 188 5
 189:C:/Users/stapi/OneDrive/Desktop/GD32VW553/V1_MQTT_OK/GD32VW55X_Wifi_BLE_SDK/GD32VW55x_RELEASE_V1.0.2/MSDK/util/src\debug_print.c ****     register int t, neg = 0, pc = 0;
 281              		.loc 1 189 5
 282              	.LVL31:
 190:C:/Users/stapi/OneDrive/Desktop/GD32VW553/V1_MQTT_OK/GD32VW55X_Wifi_BLE_SDK/GD32VW55x_RELEASE_V1.0.2/MSDK/util/src\debug_print.c ****     register unsigned int u = i;
 283              		.loc 1 190 5
 191:C:/Users/stapi/OneDrive/Desktop/GD32VW553/V1_MQTT_OK/GD32VW55X_Wifi_BLE_SDK/GD32VW55x_RELEASE_V1.0.2/MSDK/util/src\debug_print.c **** 
 192:C:/Users/stapi/OneDrive/Desktop/GD32VW553/V1_MQTT_OK/GD32VW55X_Wifi_BLE_SDK/GD32VW55x_RELEASE_V1.0.2/MSDK/util/src\debug_print.c ****     if (i == 0) {
 284              		.loc 1 192 5
 186:C:/Users/stapi/OneDrive/Desktop/GD32VW553/V1_MQTT_OK/GD32VW55X_Wifi_BLE_SDK/GD32VW55x_RELEASE_V1.0.2/MSDK/util/src\debug_print.c ****     char print_buf[PRINT_BUF_LEN];
 285              		.loc 1 186 1 is_stmt 0
 286 0008 3684     		mv	s0,a3
 287 000a BA84     		mv	s1,a4
 288 000c 0111     		addi	sp,sp,-32
 289              		.cfi_def_cfa_offset 64
 186:C:/Users/stapi/OneDrive/Desktop/GD32VW553/V1_MQTT_OK/GD32VW55X_Wifi_BLE_SDK/GD32VW55x_RELEASE_V1.0.2/MSDK/util/src\debug_print.c ****     char print_buf[PRINT_BUF_LEN];
 290              		.loc 1 186 1
 291 000e BE86     		mv	a3,a5
 292              	.LVL32:
 293 0010 4687     		mv	a4,a7
 294              	.LVL33:
 295              		.loc 1 192 8
 296 0012 85E1     		bne	a1,zero,.L28
 193:C:/Users/stapi/OneDrive/Desktop/GD32VW553/V1_MQTT_OK/GD32VW55X_Wifi_BLE_SDK/GD32VW55x_RELEASE_V1.0.2/MSDK/util/src\debug_print.c ****         print_buf[0] = '0';
 297              		.loc 1 193 9 is_stmt 1
 194:C:/Users/stapi/OneDrive/Desktop/GD32VW553/V1_MQTT_OK/GD32VW55X_Wifi_BLE_SDK/GD32VW55x_RELEASE_V1.0.2/MSDK/util/src\debug_print.c ****         print_buf[1] = '\0';
 298              		.loc 1 194 9
 193:C:/Users/stapi/OneDrive/Desktop/GD32VW553/V1_MQTT_OK/GD32VW55X_Wifi_BLE_SDK/GD32VW55x_RELEASE_V1.0.2/MSDK/util/src\debug_print.c ****         print_buf[0] = '0';
 299              		.loc 1 193 22 is_stmt 0
 300 0014 93070003 		li	a5,48
 301              	.LVL34:
 195:C:/Users/stapi/OneDrive/Desktop/GD32VW553/V1_MQTT_OK/GD32VW55X_Wifi_BLE_SDK/GD32VW55x_RELEASE_V1.0.2/MSDK/util/src\debug_print.c ****         return prints (out, print_buf, width, pad, space);
 302              		.loc 1 195 16
 303 0018 2686     		mv	a2,s1
 304              	.LVL35:
 305 001a 4C08     		addi	a1,sp,20
 306              	.LVL36:
 193:C:/Users/stapi/OneDrive/Desktop/GD32VW553/V1_MQTT_OK/GD32VW55X_Wifi_BLE_SDK/GD32VW55x_RELEASE_V1.0.2/MSDK/util/src\debug_print.c ****         print_buf[0] = '0';
 307              		.loc 1 193 22
 308 001c 231AF100 		sh	a5,20(sp)
 309              		.loc 1 195 9 is_stmt 1
 310              		.loc 1 195 16 is_stmt 0
 311 0020 97000000 		call	prints
 311      E7800000 
 312              	.LVL37:
 313              	.L27:
 196:C:/Users/stapi/OneDrive/Desktop/GD32VW553/V1_MQTT_OK/GD32VW55X_Wifi_BLE_SDK/GD32VW55x_RELEASE_V1.0.2/MSDK/util/src\debug_print.c ****     }
 197:C:/Users/stapi/OneDrive/Desktop/GD32VW553/V1_MQTT_OK/GD32VW55X_Wifi_BLE_SDK/GD32VW55x_RELEASE_V1.0.2/MSDK/util/src\debug_print.c **** 
 198:C:/Users/stapi/OneDrive/Desktop/GD32VW553/V1_MQTT_OK/GD32VW55X_Wifi_BLE_SDK/GD32VW55x_RELEASE_V1.0.2/MSDK/util/src\debug_print.c ****     if (sg && b == 10 && i < 0) {
 199:C:/Users/stapi/OneDrive/Desktop/GD32VW553/V1_MQTT_OK/GD32VW55X_Wifi_BLE_SDK/GD32VW55x_RELEASE_V1.0.2/MSDK/util/src\debug_print.c ****         neg = 1;
 200:C:/Users/stapi/OneDrive/Desktop/GD32VW553/V1_MQTT_OK/GD32VW55X_Wifi_BLE_SDK/GD32VW55x_RELEASE_V1.0.2/MSDK/util/src\debug_print.c ****         u = -i;
 201:C:/Users/stapi/OneDrive/Desktop/GD32VW553/V1_MQTT_OK/GD32VW55X_Wifi_BLE_SDK/GD32VW55x_RELEASE_V1.0.2/MSDK/util/src\debug_print.c ****     }
 202:C:/Users/stapi/OneDrive/Desktop/GD32VW553/V1_MQTT_OK/GD32VW55X_Wifi_BLE_SDK/GD32VW55x_RELEASE_V1.0.2/MSDK/util/src\debug_print.c **** 
 203:C:/Users/stapi/OneDrive/Desktop/GD32VW553/V1_MQTT_OK/GD32VW55X_Wifi_BLE_SDK/GD32VW55x_RELEASE_V1.0.2/MSDK/util/src\debug_print.c ****     s = print_buf + PRINT_BUF_LEN-1;
 204:C:/Users/stapi/OneDrive/Desktop/GD32VW553/V1_MQTT_OK/GD32VW55X_Wifi_BLE_SDK/GD32VW55x_RELEASE_V1.0.2/MSDK/util/src\debug_print.c ****     *s = '\0';
 205:C:/Users/stapi/OneDrive/Desktop/GD32VW553/V1_MQTT_OK/GD32VW55X_Wifi_BLE_SDK/GD32VW55x_RELEASE_V1.0.2/MSDK/util/src\debug_print.c **** 
 206:C:/Users/stapi/OneDrive/Desktop/GD32VW553/V1_MQTT_OK/GD32VW55X_Wifi_BLE_SDK/GD32VW55x_RELEASE_V1.0.2/MSDK/util/src\debug_print.c ****     while (u) {
 207:C:/Users/stapi/OneDrive/Desktop/GD32VW553/V1_MQTT_OK/GD32VW55X_Wifi_BLE_SDK/GD32VW55x_RELEASE_V1.0.2/MSDK/util/src\debug_print.c ****         t = u % b;
 208:C:/Users/stapi/OneDrive/Desktop/GD32VW553/V1_MQTT_OK/GD32VW55X_Wifi_BLE_SDK/GD32VW55x_RELEASE_V1.0.2/MSDK/util/src\debug_print.c **** 
 209:C:/Users/stapi/OneDrive/Desktop/GD32VW553/V1_MQTT_OK/GD32VW55X_Wifi_BLE_SDK/GD32VW55x_RELEASE_V1.0.2/MSDK/util/src\debug_print.c ****         if( t >= 10 ) {
 210:C:/Users/stapi/OneDrive/Desktop/GD32VW553/V1_MQTT_OK/GD32VW55X_Wifi_BLE_SDK/GD32VW55x_RELEASE_V1.0.2/MSDK/util/src\debug_print.c ****             t += letbase - '0' - 10;
 211:C:/Users/stapi/OneDrive/Desktop/GD32VW553/V1_MQTT_OK/GD32VW55X_Wifi_BLE_SDK/GD32VW55x_RELEASE_V1.0.2/MSDK/util/src\debug_print.c ****         }
 212:C:/Users/stapi/OneDrive/Desktop/GD32VW553/V1_MQTT_OK/GD32VW55X_Wifi_BLE_SDK/GD32VW55x_RELEASE_V1.0.2/MSDK/util/src\debug_print.c **** 
 213:C:/Users/stapi/OneDrive/Desktop/GD32VW553/V1_MQTT_OK/GD32VW55X_Wifi_BLE_SDK/GD32VW55x_RELEASE_V1.0.2/MSDK/util/src\debug_print.c ****         *--s = t + '0';
 214:C:/Users/stapi/OneDrive/Desktop/GD32VW553/V1_MQTT_OK/GD32VW55X_Wifi_BLE_SDK/GD32VW55x_RELEASE_V1.0.2/MSDK/util/src\debug_print.c ****         u /= b;
 215:C:/Users/stapi/OneDrive/Desktop/GD32VW553/V1_MQTT_OK/GD32VW55X_Wifi_BLE_SDK/GD32VW55x_RELEASE_V1.0.2/MSDK/util/src\debug_print.c ****     }
 216:C:/Users/stapi/OneDrive/Desktop/GD32VW553/V1_MQTT_OK/GD32VW55X_Wifi_BLE_SDK/GD32VW55x_RELEASE_V1.0.2/MSDK/util/src\debug_print.c **** 
 217:C:/Users/stapi/OneDrive/Desktop/GD32VW553/V1_MQTT_OK/GD32VW55X_Wifi_BLE_SDK/GD32VW55x_RELEASE_V1.0.2/MSDK/util/src\debug_print.c ****     if (neg) {
 218:C:/Users/stapi/OneDrive/Desktop/GD32VW553/V1_MQTT_OK/GD32VW55X_Wifi_BLE_SDK/GD32VW55x_RELEASE_V1.0.2/MSDK/util/src\debug_print.c ****         if( width && (pad & PAD_ZERO) ) {
 219:C:/Users/stapi/OneDrive/Desktop/GD32VW553/V1_MQTT_OK/GD32VW55X_Wifi_BLE_SDK/GD32VW55x_RELEASE_V1.0.2/MSDK/util/src\debug_print.c ****             printchar (out, '-', space);
 220:C:/Users/stapi/OneDrive/Desktop/GD32VW553/V1_MQTT_OK/GD32VW55X_Wifi_BLE_SDK/GD32VW55x_RELEASE_V1.0.2/MSDK/util/src\debug_print.c ****             ++pc;
 221:C:/Users/stapi/OneDrive/Desktop/GD32VW553/V1_MQTT_OK/GD32VW55X_Wifi_BLE_SDK/GD32VW55x_RELEASE_V1.0.2/MSDK/util/src\debug_print.c ****             --width;
 222:C:/Users/stapi/OneDrive/Desktop/GD32VW553/V1_MQTT_OK/GD32VW55X_Wifi_BLE_SDK/GD32VW55x_RELEASE_V1.0.2/MSDK/util/src\debug_print.c ****         }
 223:C:/Users/stapi/OneDrive/Desktop/GD32VW553/V1_MQTT_OK/GD32VW55X_Wifi_BLE_SDK/GD32VW55x_RELEASE_V1.0.2/MSDK/util/src\debug_print.c ****         else {
 224:C:/Users/stapi/OneDrive/Desktop/GD32VW553/V1_MQTT_OK/GD32VW55X_Wifi_BLE_SDK/GD32VW55x_RELEASE_V1.0.2/MSDK/util/src\debug_print.c ****             *--s = '-';
 225:C:/Users/stapi/OneDrive/Desktop/GD32VW553/V1_MQTT_OK/GD32VW55X_Wifi_BLE_SDK/GD32VW55x_RELEASE_V1.0.2/MSDK/util/src\debug_print.c ****         }
 226:C:/Users/stapi/OneDrive/Desktop/GD32VW553/V1_MQTT_OK/GD32VW55X_Wifi_BLE_SDK/GD32VW55x_RELEASE_V1.0.2/MSDK/util/src\debug_print.c ****     }
 227:C:/Users/stapi/OneDrive/Desktop/GD32VW553/V1_MQTT_OK/GD32VW55X_Wifi_BLE_SDK/GD32VW55x_RELEASE_V1.0.2/MSDK/util/src\debug_print.c **** 
 228:C:/Users/stapi/OneDrive/Desktop/GD32VW553/V1_MQTT_OK/GD32VW55X_Wifi_BLE_SDK/GD32VW55x_RELEASE_V1.0.2/MSDK/util/src\debug_print.c ****     return pc + prints (out, s, width, pad, space);
 229:C:/Users/stapi/OneDrive/Desktop/GD32VW553/V1_MQTT_OK/GD32VW55X_Wifi_BLE_SDK/GD32VW55x_RELEASE_V1.0.2/MSDK/util/src\debug_print.c **** }
 314              		.loc 1 229 1
 315 0028 0561     		addi	sp,sp,32
 316              		.cfi_remember_state
 317              		.cfi_def_cfa_offset 0
 318 002a 17030000 		tail	__riscv_restore_4
 318      67000300 
 319              		.cfi_restore 19
 320              		.cfi_restore 18
 321              		.cfi_restore 9
 322              		.cfi_restore 8
 323              		.cfi_restore 1
 324              		.cfi_def_cfa_offset -32
 325              	.LVL38:
 326              	.L28:
 327              		.cfi_restore_state
 328 0032 2A89     		mv	s2,a0
 329 0034 3283     		mv	t1,a2
 198:C:/Users/stapi/OneDrive/Desktop/GD32VW553/V1_MQTT_OK/GD32VW55X_Wifi_BLE_SDK/GD32VW55x_RELEASE_V1.0.2/MSDK/util/src\debug_print.c ****         neg = 1;
 330              		.loc 1 198 5 is_stmt 1
 198:C:/Users/stapi/OneDrive/Desktop/GD32VW553/V1_MQTT_OK/GD32VW55X_Wifi_BLE_SDK/GD32VW55x_RELEASE_V1.0.2/MSDK/util/src\debug_print.c ****         neg = 1;
 331              		.loc 1 198 8 is_stmt 0
 332 0036 01C8     		beq	s0,zero,.L30
 333              	.LVL39:
 198:C:/Users/stapi/OneDrive/Desktop/GD32VW553/V1_MQTT_OK/GD32VW55X_Wifi_BLE_SDK/GD32VW55x_RELEASE_V1.0.2/MSDK/util/src\debug_print.c ****         neg = 1;
 334              		.loc 1 198 12 discriminator 1
 335 0038 A947     		li	a5,10
 336 003a 6317F606 		bne	a2,a5,.L36
 198:C:/Users/stapi/OneDrive/Desktop/GD32VW553/V1_MQTT_OK/GD32VW55X_Wifi_BLE_SDK/GD32VW55x_RELEASE_V1.0.2/MSDK/util/src\debug_print.c ****         neg = 1;
 337              		.loc 1 198 23 discriminator 2
 338 003e 63D50506 		bge	a1,zero,.L36
 199:C:/Users/stapi/OneDrive/Desktop/GD32VW553/V1_MQTT_OK/GD32VW55X_Wifi_BLE_SDK/GD32VW55x_RELEASE_V1.0.2/MSDK/util/src\debug_print.c ****         u = -i;
 339              		.loc 1 199 9 is_stmt 1
 340              	.LVL40:
 200:C:/Users/stapi/OneDrive/Desktop/GD32VW553/V1_MQTT_OK/GD32VW55X_Wifi_BLE_SDK/GD32VW55x_RELEASE_V1.0.2/MSDK/util/src\debug_print.c ****     }
 341              		.loc 1 200 9
 200:C:/Users/stapi/OneDrive/Desktop/GD32VW553/V1_MQTT_OK/GD32VW55X_Wifi_BLE_SDK/GD32VW55x_RELEASE_V1.0.2/MSDK/util/src\debug_print.c ****     }
 342              		.loc 1 200 13 is_stmt 0
 343 0042 B305B040 		neg	a1,a1
 344              	.LVL41:
 345              	.L30:
 203:C:/Users/stapi/OneDrive/Desktop/GD32VW553/V1_MQTT_OK/GD32VW55X_Wifi_BLE_SDK/GD32VW55x_RELEASE_V1.0.2/MSDK/util/src\debug_print.c ****     *s = '\0';
 346              		.loc 1 203 5 is_stmt 1
 204:C:/Users/stapi/OneDrive/Desktop/GD32VW553/V1_MQTT_OK/GD32VW55X_Wifi_BLE_SDK/GD32VW55x_RELEASE_V1.0.2/MSDK/util/src\debug_print.c **** 
 347              		.loc 1 204 5
 204:C:/Users/stapi/OneDrive/Desktop/GD32VW553/V1_MQTT_OK/GD32VW55X_Wifi_BLE_SDK/GD32VW55x_RELEASE_V1.0.2/MSDK/util/src\debug_print.c **** 
 348              		.loc 1 204 8 is_stmt 0
 349 0046 A30F0100 		sb	zero,31(sp)
 206:C:/Users/stapi/OneDrive/Desktop/GD32VW553/V1_MQTT_OK/GD32VW55X_Wifi_BLE_SDK/GD32VW55x_RELEASE_V1.0.2/MSDK/util/src\debug_print.c ****         t = u % b;
 350              		.loc 1 206 5 is_stmt 1
 206:C:/Users/stapi/OneDrive/Desktop/GD32VW553/V1_MQTT_OK/GD32VW55X_Wifi_BLE_SDK/GD32VW55x_RELEASE_V1.0.2/MSDK/util/src\debug_print.c ****         t = u % b;
 351              		.loc 1 206 11
 203:C:/Users/stapi/OneDrive/Desktop/GD32VW553/V1_MQTT_OK/GD32VW55X_Wifi_BLE_SDK/GD32VW55x_RELEASE_V1.0.2/MSDK/util/src\debug_print.c ****     *s = '\0';
 352              		.loc 1 203 7 is_stmt 0
 353 004a 1306F101 		addi	a2,sp,31
 354              	.LVL42:
 209:C:/Users/stapi/OneDrive/Desktop/GD32VW553/V1_MQTT_OK/GD32VW55X_Wifi_BLE_SDK/GD32VW55x_RELEASE_V1.0.2/MSDK/util/src\debug_print.c ****             t += letbase - '0' - 10;
 355              		.loc 1 209 11
 356 004e A548     		li	a7,9
 210:C:/Users/stapi/OneDrive/Desktop/GD32VW553/V1_MQTT_OK/GD32VW55X_Wifi_BLE_SDK/GD32VW55x_RELEASE_V1.0.2/MSDK/util/src\debug_print.c ****         }
 357              		.loc 1 210 32
 358 0050 930768FC 		addi	a5,a6,-58
 359              	.LVL43:
 360              	.L32:
 207:C:/Users/stapi/OneDrive/Desktop/GD32VW553/V1_MQTT_OK/GD32VW55X_Wifi_BLE_SDK/GD32VW55x_RELEASE_V1.0.2/MSDK/util/src\debug_print.c **** 
 361              		.loc 1 207 9 is_stmt 1
 207:C:/Users/stapi/OneDrive/Desktop/GD32VW553/V1_MQTT_OK/GD32VW55X_Wifi_BLE_SDK/GD32VW55x_RELEASE_V1.0.2/MSDK/util/src\debug_print.c **** 
 362              		.loc 1 207 15 is_stmt 0
 363 0054 33F86502 		remu	a6,a1,t1
 364              	.LVL44:
 209:C:/Users/stapi/OneDrive/Desktop/GD32VW553/V1_MQTT_OK/GD32VW55X_Wifi_BLE_SDK/GD32VW55x_RELEASE_V1.0.2/MSDK/util/src\debug_print.c ****             t += letbase - '0' - 10;
 365              		.loc 1 209 9 is_stmt 1
 209:C:/Users/stapi/OneDrive/Desktop/GD32VW553/V1_MQTT_OK/GD32VW55X_Wifi_BLE_SDK/GD32VW55x_RELEASE_V1.0.2/MSDK/util/src\debug_print.c ****             t += letbase - '0' - 10;
 366              		.loc 1 209 11 is_stmt 0
 367 0058 63F30801 		bleu	a6,a7,.L31
 210:C:/Users/stapi/OneDrive/Desktop/GD32VW553/V1_MQTT_OK/GD32VW55X_Wifi_BLE_SDK/GD32VW55x_RELEASE_V1.0.2/MSDK/util/src\debug_print.c ****         }
 368              		.loc 1 210 13 is_stmt 1
 210:C:/Users/stapi/OneDrive/Desktop/GD32VW553/V1_MQTT_OK/GD32VW55X_Wifi_BLE_SDK/GD32VW55x_RELEASE_V1.0.2/MSDK/util/src\debug_print.c ****         }
 369              		.loc 1 210 15 is_stmt 0
 370 005c 3E98     		add	a6,a6,a5
 371              	.LVL45:
 372              	.L31:
 213:C:/Users/stapi/OneDrive/Desktop/GD32VW553/V1_MQTT_OK/GD32VW55X_Wifi_BLE_SDK/GD32VW55x_RELEASE_V1.0.2/MSDK/util/src\debug_print.c ****         u /= b;
 373              		.loc 1 213 9 is_stmt 1
 213:C:/Users/stapi/OneDrive/Desktop/GD32VW553/V1_MQTT_OK/GD32VW55X_Wifi_BLE_SDK/GD32VW55x_RELEASE_V1.0.2/MSDK/util/src\debug_print.c ****         u /= b;
 374              		.loc 1 213 18 is_stmt 0
 375 005e 13080803 		addi	a6,a6,48
 376              	.LVL46:
 213:C:/Users/stapi/OneDrive/Desktop/GD32VW553/V1_MQTT_OK/GD32VW55X_Wifi_BLE_SDK/GD32VW55x_RELEASE_V1.0.2/MSDK/util/src\debug_print.c ****         u /= b;
 377              		.loc 1 213 14
 378 0062 A30F06FF 		sb	a6,-1(a2)
 214:C:/Users/stapi/OneDrive/Desktop/GD32VW553/V1_MQTT_OK/GD32VW55X_Wifi_BLE_SDK/GD32VW55x_RELEASE_V1.0.2/MSDK/util/src\debug_print.c ****     }
 379              		.loc 1 214 11
 380 0066 33D56502 		divu	a0,a1,t1
 213:C:/Users/stapi/OneDrive/Desktop/GD32VW553/V1_MQTT_OK/GD32VW55X_Wifi_BLE_SDK/GD32VW55x_RELEASE_V1.0.2/MSDK/util/src\debug_print.c ****         u /= b;
 381              		.loc 1 213 14
 382 006a 9309F6FF 		addi	s3,a2,-1
 383              	.LVL47:
 214:C:/Users/stapi/OneDrive/Desktop/GD32VW553/V1_MQTT_OK/GD32VW55X_Wifi_BLE_SDK/GD32VW55x_RELEASE_V1.0.2/MSDK/util/src\debug_print.c ****     }
 384              		.loc 1 214 9 is_stmt 1
 206:C:/Users/stapi/OneDrive/Desktop/GD32VW553/V1_MQTT_OK/GD32VW55X_Wifi_BLE_SDK/GD32VW55x_RELEASE_V1.0.2/MSDK/util/src\debug_print.c ****         t = u % b;
 385              		.loc 1 206 11
 386 006e 63FF6502 		bleu	t1,a1,.L37
 217:C:/Users/stapi/OneDrive/Desktop/GD32VW553/V1_MQTT_OK/GD32VW55X_Wifi_BLE_SDK/GD32VW55x_RELEASE_V1.0.2/MSDK/util/src\debug_print.c ****         if( width && (pad & PAD_ZERO) ) {
 387              		.loc 1 217 5
 217:C:/Users/stapi/OneDrive/Desktop/GD32VW553/V1_MQTT_OK/GD32VW55X_Wifi_BLE_SDK/GD32VW55x_RELEASE_V1.0.2/MSDK/util/src\debug_print.c ****         if( width && (pad & PAD_ZERO) ) {
 388              		.loc 1 217 8 is_stmt 0
 389 0072 15C0     		beq	s0,zero,.L33
 218:C:/Users/stapi/OneDrive/Desktop/GD32VW553/V1_MQTT_OK/GD32VW55X_Wifi_BLE_SDK/GD32VW55x_RELEASE_V1.0.2/MSDK/util/src\debug_print.c ****             printchar (out, '-', space);
 390              		.loc 1 218 9 is_stmt 1
 218:C:/Users/stapi/OneDrive/Desktop/GD32VW553/V1_MQTT_OK/GD32VW55X_Wifi_BLE_SDK/GD32VW55x_RELEASE_V1.0.2/MSDK/util/src\debug_print.c ****             printchar (out, '-', space);
 391              		.loc 1 218 11 is_stmt 0
 392 0074 9DCC     		beq	s1,zero,.L34
 218:C:/Users/stapi/OneDrive/Desktop/GD32VW553/V1_MQTT_OK/GD32VW55X_Wifi_BLE_SDK/GD32VW55x_RELEASE_V1.0.2/MSDK/util/src\debug_print.c ****             printchar (out, '-', space);
 393              		.loc 1 218 27 discriminator 1
 394 0076 93F72600 		andi	a5,a3,2
 395              	.LVL48:
 218:C:/Users/stapi/OneDrive/Desktop/GD32VW553/V1_MQTT_OK/GD32VW55X_Wifi_BLE_SDK/GD32VW55x_RELEASE_V1.0.2/MSDK/util/src\debug_print.c ****             printchar (out, '-', space);
 396              		.loc 1 218 19 discriminator 1
 397 007a 85CF     		beq	a5,zero,.L34
 219:C:/Users/stapi/OneDrive/Desktop/GD32VW553/V1_MQTT_OK/GD32VW55X_Wifi_BLE_SDK/GD32VW55x_RELEASE_V1.0.2/MSDK/util/src\debug_print.c ****             ++pc;
 398              		.loc 1 219 13
 399 007c 3A86     		mv	a2,a4
 400 007e 9305D002 		li	a1,45
 401 0082 4A85     		mv	a0,s2
 402              	.LVL49:
 403 0084 36C6     		sw	a3,12(sp)
 219:C:/Users/stapi/OneDrive/Desktop/GD32VW553/V1_MQTT_OK/GD32VW55X_Wifi_BLE_SDK/GD32VW55x_RELEASE_V1.0.2/MSDK/util/src\debug_print.c ****             ++pc;
 404              		.loc 1 219 13 is_stmt 1
 405 0086 3AC4     		sw	a4,8(sp)
 406 0088 97000000 		call	printchar
 406      E7800000 
 407              	.LVL50:
 220:C:/Users/stapi/OneDrive/Desktop/GD32VW553/V1_MQTT_OK/GD32VW55X_Wifi_BLE_SDK/GD32VW55x_RELEASE_V1.0.2/MSDK/util/src\debug_print.c ****             --width;
 408              		.loc 1 220 13
 221:C:/Users/stapi/OneDrive/Desktop/GD32VW553/V1_MQTT_OK/GD32VW55X_Wifi_BLE_SDK/GD32VW55x_RELEASE_V1.0.2/MSDK/util/src\debug_print.c ****         }
 409              		.loc 1 221 13
 410 0090 2247     		lw	a4,8(sp)
 411 0092 B246     		lw	a3,12(sp)
 412 0094 FD14     		addi	s1,s1,-1
 413              	.LVL51:
 414              	.L33:
 228:C:/Users/stapi/OneDrive/Desktop/GD32VW553/V1_MQTT_OK/GD32VW55X_Wifi_BLE_SDK/GD32VW55x_RELEASE_V1.0.2/MSDK/util/src\debug_print.c **** }
 415              		.loc 1 228 5
 228:C:/Users/stapi/OneDrive/Desktop/GD32VW553/V1_MQTT_OK/GD32VW55X_Wifi_BLE_SDK/GD32VW55x_RELEASE_V1.0.2/MSDK/util/src\debug_print.c **** }
 416              		.loc 1 228 17 is_stmt 0
 417 0096 2686     		mv	a2,s1
 418 0098 CE85     		mv	a1,s3
 419 009a 4A85     		mv	a0,s2
 420 009c 97000000 		call	prints
 420      E7800000 
 421              	.LVL52:
 228:C:/Users/stapi/OneDrive/Desktop/GD32VW553/V1_MQTT_OK/GD32VW55X_Wifi_BLE_SDK/GD32VW55x_RELEASE_V1.0.2/MSDK/util/src\debug_print.c **** }
 422              		.loc 1 228 15
 423 00a4 2295     		add	a0,a0,s0
 424 00a6 49B7     		j	.L27
 425              	.LVL53:
 426              	.L36:
 189:C:/Users/stapi/OneDrive/Desktop/GD32VW553/V1_MQTT_OK/GD32VW55X_Wifi_BLE_SDK/GD32VW55x_RELEASE_V1.0.2/MSDK/util/src\debug_print.c ****     register unsigned int u = i;
 427              		.loc 1 189 21
 428 00a8 0144     		li	s0,0
 429              	.LVL54:
 430 00aa 71BF     		j	.L30
 431              	.LVL55:
 432              	.L37:
 214:C:/Users/stapi/OneDrive/Desktop/GD32VW553/V1_MQTT_OK/GD32VW55X_Wifi_BLE_SDK/GD32VW55x_RELEASE_V1.0.2/MSDK/util/src\debug_print.c ****     }
 433              		.loc 1 214 11
 434 00ac AA85     		mv	a1,a0
 435 00ae 4E86     		mv	a2,s3
 436 00b0 55B7     		j	.L32
 437              	.LVL56:
 438              	.L34:
 224:C:/Users/stapi/OneDrive/Desktop/GD32VW553/V1_MQTT_OK/GD32VW55X_Wifi_BLE_SDK/GD32VW55x_RELEASE_V1.0.2/MSDK/util/src\debug_print.c ****         }
 439              		.loc 1 224 13 is_stmt 1
 224:C:/Users/stapi/OneDrive/Desktop/GD32VW553/V1_MQTT_OK/GD32VW55X_Wifi_BLE_SDK/GD32VW55x_RELEASE_V1.0.2/MSDK/util/src\debug_print.c ****         }
 440              		.loc 1 224 18 is_stmt 0
 441 00b2 9307D002 		li	a5,45
 442 00b6 A38FF9FE 		sb	a5,-1(s3)
 189:C:/Users/stapi/OneDrive/Desktop/GD32VW553/V1_MQTT_OK/GD32VW55X_Wifi_BLE_SDK/GD32VW55x_RELEASE_V1.0.2/MSDK/util/src\debug_print.c ****     register unsigned int u = i;
 443              		.loc 1 189 30
 444 00ba 0144     		li	s0,0
 445              	.LVL57:
 224:C:/Users/stapi/OneDrive/Desktop/GD32VW553/V1_MQTT_OK/GD32VW55X_Wifi_BLE_SDK/GD32VW55x_RELEASE_V1.0.2/MSDK/util/src\debug_print.c ****         }
 446              		.loc 1 224 18
 447 00bc 9309E6FF 		addi	s3,a2,-2
 448              	.LVL58:
 449 00c0 D9BF     		j	.L33
 450              		.cfi_endproc
 451              	.LFE369:
 453              		.section	.rodata.print.str1.4,"aMS",@progbits,1
 454              		.align	2
 455              	.LC0:
 456 0000 286E756C 		.string	"(null)"
 456      6C2900
 457              		.section	.text.print,"ax",@progbits
 458              		.align	1
 459              		.globl	print
 461              	print:
 462              	.LFB370:
 230:C:/Users/stapi/OneDrive/Desktop/GD32VW553/V1_MQTT_OK/GD32VW55X_Wifi_BLE_SDK/GD32VW55x_RELEASE_V1.0.2/MSDK/util/src\debug_print.c **** 
 231:C:/Users/stapi/OneDrive/Desktop/GD32VW553/V1_MQTT_OK/GD32VW55X_Wifi_BLE_SDK/GD32VW55x_RELEASE_V1.0.2/MSDK/util/src\debug_print.c **** int print(char **out, const char *format, va_list args, int space)
 232:C:/Users/stapi/OneDrive/Desktop/GD32VW553/V1_MQTT_OK/GD32VW55X_Wifi_BLE_SDK/GD32VW55x_RELEASE_V1.0.2/MSDK/util/src\debug_print.c **** {
 463              		.loc 1 232 1 is_stmt 1
 464              		.cfi_startproc
 465              	.LVL59:
 466 0000 17030000 		call	t0,__riscv_save_12
 466      E7020300 
 467              		.cfi_offset 27, -52
 468              		.cfi_offset 26, -48
 469              		.cfi_offset 25, -44
 470              		.cfi_offset 24, -40
 471              		.cfi_offset 23, -36
 472              		.cfi_offset 22, -32
 473              		.cfi_offset 21, -28
 474              		.cfi_offset 20, -24
 475              		.cfi_offset 19, -20
 476              		.cfi_offset 18, -16
 477              		.cfi_offset 9, -12
 478              		.cfi_offset 8, -8
 479              		.cfi_offset 1, -4
 480              		.cfi_def_cfa_offset 64
 481 0008 0111     		addi	sp,sp,-32
 482              		.cfi_def_cfa_offset 96
 483              		.loc 1 232 1 is_stmt 0
 484 000a 2A89     		mv	s2,a0
 233:C:/Users/stapi/OneDrive/Desktop/GD32VW553/V1_MQTT_OK/GD32VW55X_Wifi_BLE_SDK/GD32VW55x_RELEASE_V1.0.2/MSDK/util/src\debug_print.c ****     register int width, pad;
 485              		.loc 1 233 5 is_stmt 1
 234:C:/Users/stapi/OneDrive/Desktop/GD32VW553/V1_MQTT_OK/GD32VW55X_Wifi_BLE_SDK/GD32VW55x_RELEASE_V1.0.2/MSDK/util/src\debug_print.c ****     register int pc = 0;
 486              		.loc 1 234 5
 487              	.LVL60:
 235:C:/Users/stapi/OneDrive/Desktop/GD32VW553/V1_MQTT_OK/GD32VW55X_Wifi_BLE_SDK/GD32VW55x_RELEASE_V1.0.2/MSDK/util/src\debug_print.c ****     char scr[2];
 488              		.loc 1 235 5
 236:C:/Users/stapi/OneDrive/Desktop/GD32VW553/V1_MQTT_OK/GD32VW55X_Wifi_BLE_SDK/GD32VW55x_RELEASE_V1.0.2/MSDK/util/src\debug_print.c **** 
 237:C:/Users/stapi/OneDrive/Desktop/GD32VW553/V1_MQTT_OK/GD32VW55X_Wifi_BLE_SDK/GD32VW55x_RELEASE_V1.0.2/MSDK/util/src\debug_print.c ****     // not enough space
 238:C:/Users/stapi/OneDrive/Desktop/GD32VW553/V1_MQTT_OK/GD32VW55X_Wifi_BLE_SDK/GD32VW55x_RELEASE_V1.0.2/MSDK/util/src\debug_print.c ****     if (out  && ((uint32_t)out < USART_BASE) && space < 1)
 489              		.loc 1 238 5
 232:C:/Users/stapi/OneDrive/Desktop/GD32VW553/V1_MQTT_OK/GD32VW55X_Wifi_BLE_SDK/GD32VW55x_RELEASE_V1.0.2/MSDK/util/src\debug_print.c ****     register int width, pad;
 490              		.loc 1 232 1 is_stmt 0
 491 000c AE89     		mv	s3,a1
 492 000e B284     		mv	s1,a2
 493              		.loc 1 238 8
 494 0010 11C9     		beq	a0,zero,.L52
 495              		.loc 1 238 14 discriminator 1
 496 0012 B7470040 		li	a5,1073758208
 497 0016 9387F73F 		addi	a5,a5,1023
 498 001a 63E5A700 		bgtu	a0,a5,.L52
 239:C:/Users/stapi/OneDrive/Desktop/GD32VW553/V1_MQTT_OK/GD32VW55X_Wifi_BLE_SDK/GD32VW55x_RELEASE_V1.0.2/MSDK/util/src\debug_print.c ****         return 0;
 499              		.loc 1 239 16 discriminator 2
 500 001e 0144     		li	s0,0
 238:C:/Users/stapi/OneDrive/Desktop/GD32VW553/V1_MQTT_OK/GD32VW55X_Wifi_BLE_SDK/GD32VW55x_RELEASE_V1.0.2/MSDK/util/src\debug_print.c ****         return 0;
 501              		.loc 1 238 46 discriminator 2
 502 0020 6357D002 		ble	a3,zero,.L51
 503              	.L52:
 240:C:/Users/stapi/OneDrive/Desktop/GD32VW553/V1_MQTT_OK/GD32VW55X_Wifi_BLE_SDK/GD32VW55x_RELEASE_V1.0.2/MSDK/util/src\debug_print.c **** 
 241:C:/Users/stapi/OneDrive/Desktop/GD32VW553/V1_MQTT_OK/GD32VW55X_Wifi_BLE_SDK/GD32VW55x_RELEASE_V1.0.2/MSDK/util/src\debug_print.c ****     space -= 1;     // last byte for '\0'
 504              		.loc 1 241 5 is_stmt 1
 505              		.loc 1 241 11 is_stmt 0
 506 0024 FD16     		addi	a3,a3,-1
 507              	.LVL61:
 508              	.LBB19:
 242:C:/Users/stapi/OneDrive/Desktop/GD32VW553/V1_MQTT_OK/GD32VW55X_Wifi_BLE_SDK/GD32VW55x_RELEASE_V1.0.2/MSDK/util/src\debug_print.c **** 
 243:C:/Users/stapi/OneDrive/Desktop/GD32VW553/V1_MQTT_OK/GD32VW55X_Wifi_BLE_SDK/GD32VW55x_RELEASE_V1.0.2/MSDK/util/src\debug_print.c ****     for (; *format != 0; ++format) {
 244:C:/Users/stapi/OneDrive/Desktop/GD32VW553/V1_MQTT_OK/GD32VW55X_Wifi_BLE_SDK/GD32VW55x_RELEASE_V1.0.2/MSDK/util/src\debug_print.c ****         if (*format == '%') {
 245:C:/Users/stapi/OneDrive/Desktop/GD32VW553/V1_MQTT_OK/GD32VW55X_Wifi_BLE_SDK/GD32VW55x_RELEASE_V1.0.2/MSDK/util/src\debug_print.c ****             ++format;
 246:C:/Users/stapi/OneDrive/Desktop/GD32VW553/V1_MQTT_OK/GD32VW55X_Wifi_BLE_SDK/GD32VW55x_RELEASE_V1.0.2/MSDK/util/src\debug_print.c ****             width = pad = 0;
 247:C:/Users/stapi/OneDrive/Desktop/GD32VW553/V1_MQTT_OK/GD32VW55X_Wifi_BLE_SDK/GD32VW55x_RELEASE_V1.0.2/MSDK/util/src\debug_print.c **** 
 248:C:/Users/stapi/OneDrive/Desktop/GD32VW553/V1_MQTT_OK/GD32VW55X_Wifi_BLE_SDK/GD32VW55x_RELEASE_V1.0.2/MSDK/util/src\debug_print.c ****             if (*format == '\0') {
 249:C:/Users/stapi/OneDrive/Desktop/GD32VW553/V1_MQTT_OK/GD32VW55X_Wifi_BLE_SDK/GD32VW55x_RELEASE_V1.0.2/MSDK/util/src\debug_print.c ****                 break;
 250:C:/Users/stapi/OneDrive/Desktop/GD32VW553/V1_MQTT_OK/GD32VW55X_Wifi_BLE_SDK/GD32VW55x_RELEASE_V1.0.2/MSDK/util/src\debug_print.c ****             }
 251:C:/Users/stapi/OneDrive/Desktop/GD32VW553/V1_MQTT_OK/GD32VW55X_Wifi_BLE_SDK/GD32VW55x_RELEASE_V1.0.2/MSDK/util/src\debug_print.c **** 
 252:C:/Users/stapi/OneDrive/Desktop/GD32VW553/V1_MQTT_OK/GD32VW55X_Wifi_BLE_SDK/GD32VW55x_RELEASE_V1.0.2/MSDK/util/src\debug_print.c ****             if (*format == '%') {
 253:C:/Users/stapi/OneDrive/Desktop/GD32VW553/V1_MQTT_OK/GD32VW55X_Wifi_BLE_SDK/GD32VW55x_RELEASE_V1.0.2/MSDK/util/src\debug_print.c ****                 goto out;
 254:C:/Users/stapi/OneDrive/Desktop/GD32VW553/V1_MQTT_OK/GD32VW55X_Wifi_BLE_SDK/GD32VW55x_RELEASE_V1.0.2/MSDK/util/src\debug_print.c ****             }
 255:C:/Users/stapi/OneDrive/Desktop/GD32VW553/V1_MQTT_OK/GD32VW55X_Wifi_BLE_SDK/GD32VW55x_RELEASE_V1.0.2/MSDK/util/src\debug_print.c **** 
 256:C:/Users/stapi/OneDrive/Desktop/GD32VW553/V1_MQTT_OK/GD32VW55X_Wifi_BLE_SDK/GD32VW55x_RELEASE_V1.0.2/MSDK/util/src\debug_print.c ****             if (*format == '-') {
 257:C:/Users/stapi/OneDrive/Desktop/GD32VW553/V1_MQTT_OK/GD32VW55X_Wifi_BLE_SDK/GD32VW55x_RELEASE_V1.0.2/MSDK/util/src\debug_print.c ****                 ++format;
 258:C:/Users/stapi/OneDrive/Desktop/GD32VW553/V1_MQTT_OK/GD32VW55X_Wifi_BLE_SDK/GD32VW55x_RELEASE_V1.0.2/MSDK/util/src\debug_print.c ****                 pad = PAD_RIGHT;
 259:C:/Users/stapi/OneDrive/Desktop/GD32VW553/V1_MQTT_OK/GD32VW55X_Wifi_BLE_SDK/GD32VW55x_RELEASE_V1.0.2/MSDK/util/src\debug_print.c ****             }
 260:C:/Users/stapi/OneDrive/Desktop/GD32VW553/V1_MQTT_OK/GD32VW55X_Wifi_BLE_SDK/GD32VW55x_RELEASE_V1.0.2/MSDK/util/src\debug_print.c **** 
 261:C:/Users/stapi/OneDrive/Desktop/GD32VW553/V1_MQTT_OK/GD32VW55X_Wifi_BLE_SDK/GD32VW55x_RELEASE_V1.0.2/MSDK/util/src\debug_print.c ****             while (*format == '0') {
 262:C:/Users/stapi/OneDrive/Desktop/GD32VW553/V1_MQTT_OK/GD32VW55X_Wifi_BLE_SDK/GD32VW55x_RELEASE_V1.0.2/MSDK/util/src\debug_print.c ****                 ++format;
 263:C:/Users/stapi/OneDrive/Desktop/GD32VW553/V1_MQTT_OK/GD32VW55X_Wifi_BLE_SDK/GD32VW55x_RELEASE_V1.0.2/MSDK/util/src\debug_print.c ****                 pad |= PAD_ZERO;
 264:C:/Users/stapi/OneDrive/Desktop/GD32VW553/V1_MQTT_OK/GD32VW55X_Wifi_BLE_SDK/GD32VW55x_RELEASE_V1.0.2/MSDK/util/src\debug_print.c ****             }
 265:C:/Users/stapi/OneDrive/Desktop/GD32VW553/V1_MQTT_OK/GD32VW55X_Wifi_BLE_SDK/GD32VW55x_RELEASE_V1.0.2/MSDK/util/src\debug_print.c **** 
 266:C:/Users/stapi/OneDrive/Desktop/GD32VW553/V1_MQTT_OK/GD32VW55X_Wifi_BLE_SDK/GD32VW55x_RELEASE_V1.0.2/MSDK/util/src\debug_print.c ****             for ( ; *format >= '0' && *format <= '9'; ++format) {
 267:C:/Users/stapi/OneDrive/Desktop/GD32VW553/V1_MQTT_OK/GD32VW55X_Wifi_BLE_SDK/GD32VW55x_RELEASE_V1.0.2/MSDK/util/src\debug_print.c ****                 width *= 10;
 268:C:/Users/stapi/OneDrive/Desktop/GD32VW553/V1_MQTT_OK/GD32VW55X_Wifi_BLE_SDK/GD32VW55x_RELEASE_V1.0.2/MSDK/util/src\debug_print.c ****                 width += *format - '0';
 269:C:/Users/stapi/OneDrive/Desktop/GD32VW553/V1_MQTT_OK/GD32VW55X_Wifi_BLE_SDK/GD32VW55x_RELEASE_V1.0.2/MSDK/util/src\debug_print.c ****             }
 270:C:/Users/stapi/OneDrive/Desktop/GD32VW553/V1_MQTT_OK/GD32VW55X_Wifi_BLE_SDK/GD32VW55x_RELEASE_V1.0.2/MSDK/util/src\debug_print.c **** 
 271:C:/Users/stapi/OneDrive/Desktop/GD32VW553/V1_MQTT_OK/GD32VW55X_Wifi_BLE_SDK/GD32VW55x_RELEASE_V1.0.2/MSDK/util/src\debug_print.c ****             if (*format == 's') {
 272:C:/Users/stapi/OneDrive/Desktop/GD32VW553/V1_MQTT_OK/GD32VW55X_Wifi_BLE_SDK/GD32VW55x_RELEASE_V1.0.2/MSDK/util/src\debug_print.c ****                 register char *s = (char *)va_arg(args, int);
 273:C:/Users/stapi/OneDrive/Desktop/GD32VW553/V1_MQTT_OK/GD32VW55X_Wifi_BLE_SDK/GD32VW55x_RELEASE_V1.0.2/MSDK/util/src\debug_print.c ****                 pc += prints(out, s ? s : "(null)", width, pad, &space);
 509              		.loc 1 273 23
 510 0026 B70A0000 		lui	s5,%hi(.LC0)
 511              	.LBE19:
 241:C:/Users/stapi/OneDrive/Desktop/GD32VW553/V1_MQTT_OK/GD32VW55X_Wifi_BLE_SDK/GD32VW55x_RELEASE_V1.0.2/MSDK/util/src\debug_print.c **** 
 512              		.loc 1 241 11
 513 002a 36C6     		sw	a3,12(sp)
 243:C:/Users/stapi/OneDrive/Desktop/GD32VW553/V1_MQTT_OK/GD32VW55X_Wifi_BLE_SDK/GD32VW55x_RELEASE_V1.0.2/MSDK/util/src\debug_print.c ****         if (*format == '%') {
 514              		.loc 1 243 5 is_stmt 1
 234:C:/Users/stapi/OneDrive/Desktop/GD32VW553/V1_MQTT_OK/GD32VW55X_Wifi_BLE_SDK/GD32VW55x_RELEASE_V1.0.2/MSDK/util/src\debug_print.c ****     char scr[2];
 515              		.loc 1 234 18 is_stmt 0
 516 002c 0144     		li	s0,0
 244:C:/Users/stapi/OneDrive/Desktop/GD32VW553/V1_MQTT_OK/GD32VW55X_Wifi_BLE_SDK/GD32VW55x_RELEASE_V1.0.2/MSDK/util/src\debug_print.c ****             ++format;
 517              		.loc 1 244 12
 518 002e 930B5002 		li	s7,37
 256:C:/Users/stapi/OneDrive/Desktop/GD32VW553/V1_MQTT_OK/GD32VW55X_Wifi_BLE_SDK/GD32VW55x_RELEASE_V1.0.2/MSDK/util/src\debug_print.c ****                 ++format;
 519              		.loc 1 256 16
 520 0032 130CD002 		li	s8,45
 267:C:/Users/stapi/OneDrive/Desktop/GD32VW553/V1_MQTT_OK/GD32VW55X_Wifi_BLE_SDK/GD32VW55x_RELEASE_V1.0.2/MSDK/util/src\debug_print.c ****                 width += *format - '0';
 521              		.loc 1 267 23
 522 0036 A94C     		li	s9,10
 523              	.LBB20:
 524              		.loc 1 273 23
 525 0038 938A0A00 		addi	s5,s5,%lo(.LC0)
 526              	.LVL62:
 527              	.L54:
 528              	.LBE20:
 243:C:/Users/stapi/OneDrive/Desktop/GD32VW553/V1_MQTT_OK/GD32VW55X_Wifi_BLE_SDK/GD32VW55x_RELEASE_V1.0.2/MSDK/util/src\debug_print.c ****         if (*format == '%') {
 529              		.loc 1 243 12 is_stmt 1 discriminator 1
 530 003c 83870900 		lb	a5,0(s3)
 243:C:/Users/stapi/OneDrive/Desktop/GD32VW553/V1_MQTT_OK/GD32VW55X_Wifi_BLE_SDK/GD32VW55x_RELEASE_V1.0.2/MSDK/util/src\debug_print.c ****         if (*format == '%') {
 531              		.loc 1 243 5 is_stmt 0 discriminator 1
 532 0040 89EF     		bne	a5,zero,.L74
 533              	.LVL63:
 534              	.L56:
 274:C:/Users/stapi/OneDrive/Desktop/GD32VW553/V1_MQTT_OK/GD32VW55X_Wifi_BLE_SDK/GD32VW55x_RELEASE_V1.0.2/MSDK/util/src\debug_print.c ****                 continue;
 275:C:/Users/stapi/OneDrive/Desktop/GD32VW553/V1_MQTT_OK/GD32VW55X_Wifi_BLE_SDK/GD32VW55x_RELEASE_V1.0.2/MSDK/util/src\debug_print.c ****             }
 276:C:/Users/stapi/OneDrive/Desktop/GD32VW553/V1_MQTT_OK/GD32VW55X_Wifi_BLE_SDK/GD32VW55x_RELEASE_V1.0.2/MSDK/util/src\debug_print.c **** 
 277:C:/Users/stapi/OneDrive/Desktop/GD32VW553/V1_MQTT_OK/GD32VW55X_Wifi_BLE_SDK/GD32VW55x_RELEASE_V1.0.2/MSDK/util/src\debug_print.c ****             if (*format == 'd') {
 278:C:/Users/stapi/OneDrive/Desktop/GD32VW553/V1_MQTT_OK/GD32VW55X_Wifi_BLE_SDK/GD32VW55x_RELEASE_V1.0.2/MSDK/util/src\debug_print.c ****                 pc += printi(out, va_arg(args, int), 10, 1, width, pad, 'a', &space);
 279:C:/Users/stapi/OneDrive/Desktop/GD32VW553/V1_MQTT_OK/GD32VW55X_Wifi_BLE_SDK/GD32VW55x_RELEASE_V1.0.2/MSDK/util/src\debug_print.c ****                 continue;
 280:C:/Users/stapi/OneDrive/Desktop/GD32VW553/V1_MQTT_OK/GD32VW55X_Wifi_BLE_SDK/GD32VW55x_RELEASE_V1.0.2/MSDK/util/src\debug_print.c ****             }
 281:C:/Users/stapi/OneDrive/Desktop/GD32VW553/V1_MQTT_OK/GD32VW55X_Wifi_BLE_SDK/GD32VW55x_RELEASE_V1.0.2/MSDK/util/src\debug_print.c **** 
 282:C:/Users/stapi/OneDrive/Desktop/GD32VW553/V1_MQTT_OK/GD32VW55X_Wifi_BLE_SDK/GD32VW55x_RELEASE_V1.0.2/MSDK/util/src\debug_print.c ****             if (*format == 'p') {
 283:C:/Users/stapi/OneDrive/Desktop/GD32VW553/V1_MQTT_OK/GD32VW55X_Wifi_BLE_SDK/GD32VW55x_RELEASE_V1.0.2/MSDK/util/src\debug_print.c ****                 register unsigned char *addr;
 284:C:/Users/stapi/OneDrive/Desktop/GD32VW553/V1_MQTT_OK/GD32VW55X_Wifi_BLE_SDK/GD32VW55x_RELEASE_V1.0.2/MSDK/util/src\debug_print.c ****                 register unsigned char i;
 285:C:/Users/stapi/OneDrive/Desktop/GD32VW553/V1_MQTT_OK/GD32VW55X_Wifi_BLE_SDK/GD32VW55x_RELEASE_V1.0.2/MSDK/util/src\debug_print.c ****                 switch (*(++format)) {
 286:C:/Users/stapi/OneDrive/Desktop/GD32VW553/V1_MQTT_OK/GD32VW55X_Wifi_BLE_SDK/GD32VW55x_RELEASE_V1.0.2/MSDK/util/src\debug_print.c ****                 case 'M':
 287:C:/Users/stapi/OneDrive/Desktop/GD32VW553/V1_MQTT_OK/GD32VW55X_Wifi_BLE_SDK/GD32VW55x_RELEASE_V1.0.2/MSDK/util/src\debug_print.c ****                     width = 2;
 288:C:/Users/stapi/OneDrive/Desktop/GD32VW553/V1_MQTT_OK/GD32VW55X_Wifi_BLE_SDK/GD32VW55x_RELEASE_V1.0.2/MSDK/util/src\debug_print.c ****                     pad |= PAD_ZERO;
 289:C:/Users/stapi/OneDrive/Desktop/GD32VW553/V1_MQTT_OK/GD32VW55X_Wifi_BLE_SDK/GD32VW55x_RELEASE_V1.0.2/MSDK/util/src\debug_print.c ****                     addr = (unsigned char *)va_arg(args, int);
 290:C:/Users/stapi/OneDrive/Desktop/GD32VW553/V1_MQTT_OK/GD32VW55X_Wifi_BLE_SDK/GD32VW55x_RELEASE_V1.0.2/MSDK/util/src\debug_print.c ****                     for (i = 0; i < 5; i++) {
 291:C:/Users/stapi/OneDrive/Desktop/GD32VW553/V1_MQTT_OK/GD32VW55X_Wifi_BLE_SDK/GD32VW55x_RELEASE_V1.0.2/MSDK/util/src\debug_print.c ****                         pc += printi(out, addr[i], 16, 1, width, pad, 'a', &space);
 292:C:/Users/stapi/OneDrive/Desktop/GD32VW553/V1_MQTT_OK/GD32VW55X_Wifi_BLE_SDK/GD32VW55x_RELEASE_V1.0.2/MSDK/util/src\debug_print.c ****                         printchar(out, ':', &space);
 293:C:/Users/stapi/OneDrive/Desktop/GD32VW553/V1_MQTT_OK/GD32VW55X_Wifi_BLE_SDK/GD32VW55x_RELEASE_V1.0.2/MSDK/util/src\debug_print.c ****                         pc++;
 294:C:/Users/stapi/OneDrive/Desktop/GD32VW553/V1_MQTT_OK/GD32VW55X_Wifi_BLE_SDK/GD32VW55x_RELEASE_V1.0.2/MSDK/util/src\debug_print.c ****                     }
 295:C:/Users/stapi/OneDrive/Desktop/GD32VW553/V1_MQTT_OK/GD32VW55X_Wifi_BLE_SDK/GD32VW55x_RELEASE_V1.0.2/MSDK/util/src\debug_print.c ****                     pc += printi(out, addr[i], 16, 1, width, pad, 'a', &space);
 296:C:/Users/stapi/OneDrive/Desktop/GD32VW553/V1_MQTT_OK/GD32VW55X_Wifi_BLE_SDK/GD32VW55x_RELEASE_V1.0.2/MSDK/util/src\debug_print.c ****                     continue;
 297:C:/Users/stapi/OneDrive/Desktop/GD32VW553/V1_MQTT_OK/GD32VW55X_Wifi_BLE_SDK/GD32VW55x_RELEASE_V1.0.2/MSDK/util/src\debug_print.c ****                 case 'I':
 298:C:/Users/stapi/OneDrive/Desktop/GD32VW553/V1_MQTT_OK/GD32VW55X_Wifi_BLE_SDK/GD32VW55x_RELEASE_V1.0.2/MSDK/util/src\debug_print.c ****                     addr = (unsigned char *)va_arg(args, int);
 299:C:/Users/stapi/OneDrive/Desktop/GD32VW553/V1_MQTT_OK/GD32VW55X_Wifi_BLE_SDK/GD32VW55x_RELEASE_V1.0.2/MSDK/util/src\debug_print.c ****                     for (i = 0; i < 3; i++) {
 300:C:/Users/stapi/OneDrive/Desktop/GD32VW553/V1_MQTT_OK/GD32VW55X_Wifi_BLE_SDK/GD32VW55x_RELEASE_V1.0.2/MSDK/util/src\debug_print.c ****                         pc += printi(out, addr[i], 10, 1, width, pad, 'a', &space);
 301:C:/Users/stapi/OneDrive/Desktop/GD32VW553/V1_MQTT_OK/GD32VW55X_Wifi_BLE_SDK/GD32VW55x_RELEASE_V1.0.2/MSDK/util/src\debug_print.c ****                         printchar(out, '.', &space);
 302:C:/Users/stapi/OneDrive/Desktop/GD32VW553/V1_MQTT_OK/GD32VW55X_Wifi_BLE_SDK/GD32VW55x_RELEASE_V1.0.2/MSDK/util/src\debug_print.c ****                         pc++;
 303:C:/Users/stapi/OneDrive/Desktop/GD32VW553/V1_MQTT_OK/GD32VW55X_Wifi_BLE_SDK/GD32VW55x_RELEASE_V1.0.2/MSDK/util/src\debug_print.c ****                     }
 304:C:/Users/stapi/OneDrive/Desktop/GD32VW553/V1_MQTT_OK/GD32VW55X_Wifi_BLE_SDK/GD32VW55x_RELEASE_V1.0.2/MSDK/util/src\debug_print.c ****                     pc += printi(out, addr[i], 10, 1, width, pad, 'a', &space);
 305:C:/Users/stapi/OneDrive/Desktop/GD32VW553/V1_MQTT_OK/GD32VW55X_Wifi_BLE_SDK/GD32VW55x_RELEASE_V1.0.2/MSDK/util/src\debug_print.c ****                     continue;
 306:C:/Users/stapi/OneDrive/Desktop/GD32VW553/V1_MQTT_OK/GD32VW55X_Wifi_BLE_SDK/GD32VW55x_RELEASE_V1.0.2/MSDK/util/src\debug_print.c ****                 default:
 307:C:/Users/stapi/OneDrive/Desktop/GD32VW553/V1_MQTT_OK/GD32VW55X_Wifi_BLE_SDK/GD32VW55x_RELEASE_V1.0.2/MSDK/util/src\debug_print.c ****                     format--;
 308:C:/Users/stapi/OneDrive/Desktop/GD32VW553/V1_MQTT_OK/GD32VW55X_Wifi_BLE_SDK/GD32VW55x_RELEASE_V1.0.2/MSDK/util/src\debug_print.c ****                     pc += printi(out, va_arg(args, int), 16, 0, width, pad, 'a', &space);
 309:C:/Users/stapi/OneDrive/Desktop/GD32VW553/V1_MQTT_OK/GD32VW55X_Wifi_BLE_SDK/GD32VW55x_RELEASE_V1.0.2/MSDK/util/src\debug_print.c ****                     continue;
 310:C:/Users/stapi/OneDrive/Desktop/GD32VW553/V1_MQTT_OK/GD32VW55X_Wifi_BLE_SDK/GD32VW55x_RELEASE_V1.0.2/MSDK/util/src\debug_print.c ****                 }
 311:C:/Users/stapi/OneDrive/Desktop/GD32VW553/V1_MQTT_OK/GD32VW55X_Wifi_BLE_SDK/GD32VW55x_RELEASE_V1.0.2/MSDK/util/src\debug_print.c ****             }
 312:C:/Users/stapi/OneDrive/Desktop/GD32VW553/V1_MQTT_OK/GD32VW55X_Wifi_BLE_SDK/GD32VW55x_RELEASE_V1.0.2/MSDK/util/src\debug_print.c **** 
 313:C:/Users/stapi/OneDrive/Desktop/GD32VW553/V1_MQTT_OK/GD32VW55X_Wifi_BLE_SDK/GD32VW55x_RELEASE_V1.0.2/MSDK/util/src\debug_print.c ****             if ((*format == 'x')) {
 314:C:/Users/stapi/OneDrive/Desktop/GD32VW553/V1_MQTT_OK/GD32VW55X_Wifi_BLE_SDK/GD32VW55x_RELEASE_V1.0.2/MSDK/util/src\debug_print.c ****                 pc += printi(out, va_arg(args, int), 16, 0, width, pad, 'a', &space);
 315:C:/Users/stapi/OneDrive/Desktop/GD32VW553/V1_MQTT_OK/GD32VW55X_Wifi_BLE_SDK/GD32VW55x_RELEASE_V1.0.2/MSDK/util/src\debug_print.c ****                 continue;
 316:C:/Users/stapi/OneDrive/Desktop/GD32VW553/V1_MQTT_OK/GD32VW55X_Wifi_BLE_SDK/GD32VW55x_RELEASE_V1.0.2/MSDK/util/src\debug_print.c ****             }
 317:C:/Users/stapi/OneDrive/Desktop/GD32VW553/V1_MQTT_OK/GD32VW55X_Wifi_BLE_SDK/GD32VW55x_RELEASE_V1.0.2/MSDK/util/src\debug_print.c **** 
 318:C:/Users/stapi/OneDrive/Desktop/GD32VW553/V1_MQTT_OK/GD32VW55X_Wifi_BLE_SDK/GD32VW55x_RELEASE_V1.0.2/MSDK/util/src\debug_print.c ****             if (*format == 'X') {
 319:C:/Users/stapi/OneDrive/Desktop/GD32VW553/V1_MQTT_OK/GD32VW55X_Wifi_BLE_SDK/GD32VW55x_RELEASE_V1.0.2/MSDK/util/src\debug_print.c ****                 pc += printi(out, va_arg(args, int), 16, 0, width, pad, 'A', &space);
 320:C:/Users/stapi/OneDrive/Desktop/GD32VW553/V1_MQTT_OK/GD32VW55X_Wifi_BLE_SDK/GD32VW55x_RELEASE_V1.0.2/MSDK/util/src\debug_print.c ****                 continue;
 321:C:/Users/stapi/OneDrive/Desktop/GD32VW553/V1_MQTT_OK/GD32VW55X_Wifi_BLE_SDK/GD32VW55x_RELEASE_V1.0.2/MSDK/util/src\debug_print.c ****             }
 322:C:/Users/stapi/OneDrive/Desktop/GD32VW553/V1_MQTT_OK/GD32VW55X_Wifi_BLE_SDK/GD32VW55x_RELEASE_V1.0.2/MSDK/util/src\debug_print.c **** 
 323:C:/Users/stapi/OneDrive/Desktop/GD32VW553/V1_MQTT_OK/GD32VW55X_Wifi_BLE_SDK/GD32VW55x_RELEASE_V1.0.2/MSDK/util/src\debug_print.c ****             if (*format == 'u') {
 324:C:/Users/stapi/OneDrive/Desktop/GD32VW553/V1_MQTT_OK/GD32VW55X_Wifi_BLE_SDK/GD32VW55x_RELEASE_V1.0.2/MSDK/util/src\debug_print.c ****                 pc += printi(out, va_arg(args, int), 10, 0, width, pad, 'a', &space);
 325:C:/Users/stapi/OneDrive/Desktop/GD32VW553/V1_MQTT_OK/GD32VW55X_Wifi_BLE_SDK/GD32VW55x_RELEASE_V1.0.2/MSDK/util/src\debug_print.c ****                 continue;
 326:C:/Users/stapi/OneDrive/Desktop/GD32VW553/V1_MQTT_OK/GD32VW55X_Wifi_BLE_SDK/GD32VW55x_RELEASE_V1.0.2/MSDK/util/src\debug_print.c ****             }
 327:C:/Users/stapi/OneDrive/Desktop/GD32VW553/V1_MQTT_OK/GD32VW55X_Wifi_BLE_SDK/GD32VW55x_RELEASE_V1.0.2/MSDK/util/src\debug_print.c **** 
 328:C:/Users/stapi/OneDrive/Desktop/GD32VW553/V1_MQTT_OK/GD32VW55X_Wifi_BLE_SDK/GD32VW55x_RELEASE_V1.0.2/MSDK/util/src\debug_print.c ****             if (*format == 'c') {
 329:C:/Users/stapi/OneDrive/Desktop/GD32VW553/V1_MQTT_OK/GD32VW55X_Wifi_BLE_SDK/GD32VW55x_RELEASE_V1.0.2/MSDK/util/src\debug_print.c ****                 /* char are converted to int then pushed on the stack */
 330:C:/Users/stapi/OneDrive/Desktop/GD32VW553/V1_MQTT_OK/GD32VW55X_Wifi_BLE_SDK/GD32VW55x_RELEASE_V1.0.2/MSDK/util/src\debug_print.c ****                 scr[0] = (char)va_arg(args, int);
 331:C:/Users/stapi/OneDrive/Desktop/GD32VW553/V1_MQTT_OK/GD32VW55X_Wifi_BLE_SDK/GD32VW55x_RELEASE_V1.0.2/MSDK/util/src\debug_print.c ****                 scr[1] = '\0';
 332:C:/Users/stapi/OneDrive/Desktop/GD32VW553/V1_MQTT_OK/GD32VW55X_Wifi_BLE_SDK/GD32VW55x_RELEASE_V1.0.2/MSDK/util/src\debug_print.c ****                 pc += prints (out, scr, width, pad, &space);
 333:C:/Users/stapi/OneDrive/Desktop/GD32VW553/V1_MQTT_OK/GD32VW55X_Wifi_BLE_SDK/GD32VW55x_RELEASE_V1.0.2/MSDK/util/src\debug_print.c ****                 continue;
 334:C:/Users/stapi/OneDrive/Desktop/GD32VW553/V1_MQTT_OK/GD32VW55X_Wifi_BLE_SDK/GD32VW55x_RELEASE_V1.0.2/MSDK/util/src\debug_print.c ****             }
 335:C:/Users/stapi/OneDrive/Desktop/GD32VW553/V1_MQTT_OK/GD32VW55X_Wifi_BLE_SDK/GD32VW55x_RELEASE_V1.0.2/MSDK/util/src\debug_print.c ****         } else {
 336:C:/Users/stapi/OneDrive/Desktop/GD32VW553/V1_MQTT_OK/GD32VW55X_Wifi_BLE_SDK/GD32VW55x_RELEASE_V1.0.2/MSDK/util/src\debug_print.c **** out:
 337:C:/Users/stapi/OneDrive/Desktop/GD32VW553/V1_MQTT_OK/GD32VW55X_Wifi_BLE_SDK/GD32VW55x_RELEASE_V1.0.2/MSDK/util/src\debug_print.c ****             printchar(out, *format, &space);
 338:C:/Users/stapi/OneDrive/Desktop/GD32VW553/V1_MQTT_OK/GD32VW55X_Wifi_BLE_SDK/GD32VW55x_RELEASE_V1.0.2/MSDK/util/src\debug_print.c ****             ++pc;
 339:C:/Users/stapi/OneDrive/Desktop/GD32VW553/V1_MQTT_OK/GD32VW55X_Wifi_BLE_SDK/GD32VW55x_RELEASE_V1.0.2/MSDK/util/src\debug_print.c ****         }
 340:C:/Users/stapi/OneDrive/Desktop/GD32VW553/V1_MQTT_OK/GD32VW55X_Wifi_BLE_SDK/GD32VW55x_RELEASE_V1.0.2/MSDK/util/src\debug_print.c ****     }
 341:C:/Users/stapi/OneDrive/Desktop/GD32VW553/V1_MQTT_OK/GD32VW55X_Wifi_BLE_SDK/GD32VW55x_RELEASE_V1.0.2/MSDK/util/src\debug_print.c **** 
 342:C:/Users/stapi/OneDrive/Desktop/GD32VW553/V1_MQTT_OK/GD32VW55X_Wifi_BLE_SDK/GD32VW55x_RELEASE_V1.0.2/MSDK/util/src\debug_print.c ****     if (out) {
 535              		.loc 1 342 5 is_stmt 1
 536              		.loc 1 342 8 is_stmt 0
 537 0042 63060900 		beq	s2,zero,.L51
 343:C:/Users/stapi/OneDrive/Desktop/GD32VW553/V1_MQTT_OK/GD32VW55X_Wifi_BLE_SDK/GD32VW55x_RELEASE_V1.0.2/MSDK/util/src\debug_print.c ****         **out = '\0';
 538              		.loc 1 343 9 is_stmt 1
 539              		.loc 1 343 10 is_stmt 0
 540 0046 83270900 		lw	a5,0(s2)
 541              		.loc 1 343 15
 542 004a 23800700 		sb	zero,0(a5)
 543              	.LVL64:
 544              	.L51:
 344:C:/Users/stapi/OneDrive/Desktop/GD32VW553/V1_MQTT_OK/GD32VW55X_Wifi_BLE_SDK/GD32VW55x_RELEASE_V1.0.2/MSDK/util/src\debug_print.c ****     }
 345:C:/Users/stapi/OneDrive/Desktop/GD32VW553/V1_MQTT_OK/GD32VW55X_Wifi_BLE_SDK/GD32VW55x_RELEASE_V1.0.2/MSDK/util/src\debug_print.c **** 
 346:C:/Users/stapi/OneDrive/Desktop/GD32VW553/V1_MQTT_OK/GD32VW55X_Wifi_BLE_SDK/GD32VW55x_RELEASE_V1.0.2/MSDK/util/src\debug_print.c ****     return pc;
 347:C:/Users/stapi/OneDrive/Desktop/GD32VW553/V1_MQTT_OK/GD32VW55X_Wifi_BLE_SDK/GD32VW55x_RELEASE_V1.0.2/MSDK/util/src\debug_print.c **** }
 545              		.loc 1 347 1
 546 004e 2285     		mv	a0,s0
 547 0050 0561     		addi	sp,sp,32
 548              		.cfi_remember_state
 549              		.cfi_def_cfa_offset 0
 550 0052 17030000 		tail	__riscv_restore_12
 550      67000300 
 551              		.cfi_restore 27
 552              		.cfi_restore 26
 553              		.cfi_restore 25
 554              		.cfi_restore 24
 555              		.cfi_restore 23
 556              		.cfi_restore 22
 557              		.cfi_restore 21
 558              		.cfi_restore 20
 559              		.cfi_restore 19
 560              		.cfi_restore 18
 561              		.cfi_restore 9
 562              		.cfi_restore 8
 563              		.cfi_restore 1
 564              		.cfi_def_cfa_offset -64
 565              	.LVL65:
 566              	.L74:
 567              		.cfi_restore_state
 244:C:/Users/stapi/OneDrive/Desktop/GD32VW553/V1_MQTT_OK/GD32VW55X_Wifi_BLE_SDK/GD32VW55x_RELEASE_V1.0.2/MSDK/util/src\debug_print.c ****             ++format;
 568              		.loc 1 244 9 is_stmt 1
 244:C:/Users/stapi/OneDrive/Desktop/GD32VW553/V1_MQTT_OK/GD32VW55X_Wifi_BLE_SDK/GD32VW55x_RELEASE_V1.0.2/MSDK/util/src\debug_print.c ****             ++format;
 569              		.loc 1 244 12 is_stmt 0
 570 005a 639F7721 		bne	a5,s7,.L55
 245:C:/Users/stapi/OneDrive/Desktop/GD32VW553/V1_MQTT_OK/GD32VW55X_Wifi_BLE_SDK/GD32VW55x_RELEASE_V1.0.2/MSDK/util/src\debug_print.c ****             width = pad = 0;
 571              		.loc 1 245 13 is_stmt 1
 572              	.LVL66:
 246:C:/Users/stapi/OneDrive/Desktop/GD32VW553/V1_MQTT_OK/GD32VW55X_Wifi_BLE_SDK/GD32VW55x_RELEASE_V1.0.2/MSDK/util/src\debug_print.c **** 
 573              		.loc 1 246 13
 248:C:/Users/stapi/OneDrive/Desktop/GD32VW553/V1_MQTT_OK/GD32VW55X_Wifi_BLE_SDK/GD32VW55x_RELEASE_V1.0.2/MSDK/util/src\debug_print.c ****                 break;
 574              		.loc 1 248 13
 248:C:/Users/stapi/OneDrive/Desktop/GD32VW553/V1_MQTT_OK/GD32VW55X_Wifi_BLE_SDK/GD32VW55x_RELEASE_V1.0.2/MSDK/util/src\debug_print.c ****                 break;
 575              		.loc 1 248 17 is_stmt 0
 576 005e 83861900 		lb	a3,1(s3)
 248:C:/Users/stapi/OneDrive/Desktop/GD32VW553/V1_MQTT_OK/GD32VW55X_Wifi_BLE_SDK/GD32VW55x_RELEASE_V1.0.2/MSDK/util/src\debug_print.c ****                 break;
 577              		.loc 1 248 16
 578 0062 E5D2     		beq	a3,zero,.L56
 245:C:/Users/stapi/OneDrive/Desktop/GD32VW553/V1_MQTT_OK/GD32VW55X_Wifi_BLE_SDK/GD32VW55x_RELEASE_V1.0.2/MSDK/util/src\debug_print.c ****             width = pad = 0;
 579              		.loc 1 245 13
 580 0064 13871900 		addi	a4,s3,1
 252:C:/Users/stapi/OneDrive/Desktop/GD32VW553/V1_MQTT_OK/GD32VW55X_Wifi_BLE_SDK/GD32VW55x_RELEASE_V1.0.2/MSDK/util/src\debug_print.c ****                 goto out;
 581              		.loc 1 252 13 is_stmt 1
 252:C:/Users/stapi/OneDrive/Desktop/GD32VW553/V1_MQTT_OK/GD32VW55X_Wifi_BLE_SDK/GD32VW55x_RELEASE_V1.0.2/MSDK/util/src\debug_print.c ****                 goto out;
 582              		.loc 1 252 16 is_stmt 0
 583 0068 63877621 		beq	a3,s7,.L76
 256:C:/Users/stapi/OneDrive/Desktop/GD32VW553/V1_MQTT_OK/GD32VW55X_Wifi_BLE_SDK/GD32VW55x_RELEASE_V1.0.2/MSDK/util/src\debug_print.c ****                 ++format;
 584              		.loc 1 256 13 is_stmt 1
 246:C:/Users/stapi/OneDrive/Desktop/GD32VW553/V1_MQTT_OK/GD32VW55X_Wifi_BLE_SDK/GD32VW55x_RELEASE_V1.0.2/MSDK/util/src\debug_print.c **** 
 585              		.loc 1 246 25 is_stmt 0
 586 006c 8147     		li	a5,0
 256:C:/Users/stapi/OneDrive/Desktop/GD32VW553/V1_MQTT_OK/GD32VW55X_Wifi_BLE_SDK/GD32VW55x_RELEASE_V1.0.2/MSDK/util/src\debug_print.c ****                 ++format;
 587              		.loc 1 256 16
 588 006e 63958601 		bne	a3,s8,.L57
 257:C:/Users/stapi/OneDrive/Desktop/GD32VW553/V1_MQTT_OK/GD32VW55X_Wifi_BLE_SDK/GD32VW55x_RELEASE_V1.0.2/MSDK/util/src\debug_print.c ****                 pad = PAD_RIGHT;
 589              		.loc 1 257 17 is_stmt 1
 590 0072 13872900 		addi	a4,s3,2
 591              	.LVL67:
 258:C:/Users/stapi/OneDrive/Desktop/GD32VW553/V1_MQTT_OK/GD32VW55X_Wifi_BLE_SDK/GD32VW55x_RELEASE_V1.0.2/MSDK/util/src\debug_print.c ****             }
 592              		.loc 1 258 17
 258:C:/Users/stapi/OneDrive/Desktop/GD32VW553/V1_MQTT_OK/GD32VW55X_Wifi_BLE_SDK/GD32VW55x_RELEASE_V1.0.2/MSDK/util/src\debug_print.c ****             }
 593              		.loc 1 258 21 is_stmt 0
 594 0076 8547     		li	a5,1
 595              	.LVL68:
 596              	.L57:
 246:C:/Users/stapi/OneDrive/Desktop/GD32VW553/V1_MQTT_OK/GD32VW55X_Wifi_BLE_SDK/GD32VW55x_RELEASE_V1.0.2/MSDK/util/src\debug_print.c **** 
 597              		.loc 1 246 25
 598 0078 BA89     		mv	s3,a4
 261:C:/Users/stapi/OneDrive/Desktop/GD32VW553/V1_MQTT_OK/GD32VW55X_Wifi_BLE_SDK/GD32VW55x_RELEASE_V1.0.2/MSDK/util/src\debug_print.c ****                 ++format;
 599              		.loc 1 261 19
 600 007a 13070003 		li	a4,48
 601              	.L58:
 602              	.LVL69:
 261:C:/Users/stapi/OneDrive/Desktop/GD32VW553/V1_MQTT_OK/GD32VW55X_Wifi_BLE_SDK/GD32VW55x_RELEASE_V1.0.2/MSDK/util/src\debug_print.c ****                 ++format;
 603              		.loc 1 261 19 is_stmt 1
 262:C:/Users/stapi/OneDrive/Desktop/GD32VW553/V1_MQTT_OK/GD32VW55X_Wifi_BLE_SDK/GD32VW55x_RELEASE_V1.0.2/MSDK/util/src\debug_print.c ****                 pad |= PAD_ZERO;
 604              		.loc 1 262 17 is_stmt 0
 605 007e 13861900 		addi	a2,s3,1
 261:C:/Users/stapi/OneDrive/Desktop/GD32VW553/V1_MQTT_OK/GD32VW55X_Wifi_BLE_SDK/GD32VW55x_RELEASE_V1.0.2/MSDK/util/src\debug_print.c ****                 ++format;
 606              		.loc 1 261 19
 607 0082 83860900 		lb	a3,0(s3)
 608 0086 6381E604 		beq	a3,a4,.L59
 246:C:/Users/stapi/OneDrive/Desktop/GD32VW553/V1_MQTT_OK/GD32VW55X_Wifi_BLE_SDK/GD32VW55x_RELEASE_V1.0.2/MSDK/util/src\debug_print.c **** 
 609              		.loc 1 246 19
 610 008a 014A     		li	s4,0
 266:C:/Users/stapi/OneDrive/Desktop/GD32VW553/V1_MQTT_OK/GD32VW55X_Wifi_BLE_SDK/GD32VW55x_RELEASE_V1.0.2/MSDK/util/src\debug_print.c ****                 width *= 10;
 611              		.loc 1 266 13
 612 008c 2546     		li	a2,9
 613              	.LVL70:
 614              	.L60:
 266:C:/Users/stapi/OneDrive/Desktop/GD32VW553/V1_MQTT_OK/GD32VW55X_Wifi_BLE_SDK/GD32VW55x_RELEASE_V1.0.2/MSDK/util/src\debug_print.c ****                 width *= 10;
 615              		.loc 1 266 21 is_stmt 1 discriminator 1
 616 008e 03870900 		lb	a4,0(s3)
 266:C:/Users/stapi/OneDrive/Desktop/GD32VW553/V1_MQTT_OK/GD32VW55X_Wifi_BLE_SDK/GD32VW55x_RELEASE_V1.0.2/MSDK/util/src\debug_print.c ****                 width *= 10;
 617              		.loc 1 266 36 is_stmt 0 discriminator 1
 618 0092 930607FD 		addi	a3,a4,-48
 266:C:/Users/stapi/OneDrive/Desktop/GD32VW553/V1_MQTT_OK/GD32VW55X_Wifi_BLE_SDK/GD32VW55x_RELEASE_V1.0.2/MSDK/util/src\debug_print.c ****                 width *= 10;
 619              		.loc 1 266 13 discriminator 1
 620 0096 93F5F60F 		andi	a1,a3,0xff
 266:C:/Users/stapi/OneDrive/Desktop/GD32VW553/V1_MQTT_OK/GD32VW55X_Wifi_BLE_SDK/GD32VW55x_RELEASE_V1.0.2/MSDK/util/src\debug_print.c ****                 width *= 10;
 621              		.loc 1 266 55 discriminator 1
 622 009a 138B1900 		addi	s6,s3,1
 266:C:/Users/stapi/OneDrive/Desktop/GD32VW553/V1_MQTT_OK/GD32VW55X_Wifi_BLE_SDK/GD32VW55x_RELEASE_V1.0.2/MSDK/util/src\debug_print.c ****                 width *= 10;
 623              		.loc 1 266 13 discriminator 1
 624 009e 6379B602 		bleu	a1,a2,.L61
 271:C:/Users/stapi/OneDrive/Desktop/GD32VW553/V1_MQTT_OK/GD32VW55X_Wifi_BLE_SDK/GD32VW55x_RELEASE_V1.0.2/MSDK/util/src\debug_print.c ****                 register char *s = (char *)va_arg(args, int);
 625              		.loc 1 271 13 is_stmt 1
 271:C:/Users/stapi/OneDrive/Desktop/GD32VW553/V1_MQTT_OK/GD32VW55X_Wifi_BLE_SDK/GD32VW55x_RELEASE_V1.0.2/MSDK/util/src\debug_print.c ****                 register char *s = (char *)va_arg(args, int);
 626              		.loc 1 271 16 is_stmt 0
 627 00a2 93063007 		li	a3,115
 628 00a6 631CD702 		bne	a4,a3,.L62
 629              	.LBB21:
 272:C:/Users/stapi/OneDrive/Desktop/GD32VW553/V1_MQTT_OK/GD32VW55X_Wifi_BLE_SDK/GD32VW55x_RELEASE_V1.0.2/MSDK/util/src\debug_print.c ****                 pc += prints(out, s ? s : "(null)", width, pad, &space);
 630              		.loc 1 272 17 is_stmt 1
 272:C:/Users/stapi/OneDrive/Desktop/GD32VW553/V1_MQTT_OK/GD32VW55X_Wifi_BLE_SDK/GD32VW55x_RELEASE_V1.0.2/MSDK/util/src\debug_print.c ****                 pc += prints(out, s ? s : "(null)", width, pad, &space);
 631              		.loc 1 272 44 is_stmt 0
 632 00aa 9840     		lw	a4,0(s1)
 633 00ac 138B4400 		addi	s6,s1,4
 634              	.LVL71:
 273:C:/Users/stapi/OneDrive/Desktop/GD32VW553/V1_MQTT_OK/GD32VW55X_Wifi_BLE_SDK/GD32VW55x_RELEASE_V1.0.2/MSDK/util/src\debug_print.c ****                 continue;
 635              		.loc 1 273 17 is_stmt 1
 273:C:/Users/stapi/OneDrive/Desktop/GD32VW553/V1_MQTT_OK/GD32VW55X_Wifi_BLE_SDK/GD32VW55x_RELEASE_V1.0.2/MSDK/util/src\debug_print.c ****                 continue;
 636              		.loc 1 273 23 is_stmt 0
 637 00b0 D685     		mv	a1,s5
 638 00b2 11C3     		beq	a4,zero,.L63
 272:C:/Users/stapi/OneDrive/Desktop/GD32VW553/V1_MQTT_OK/GD32VW55X_Wifi_BLE_SDK/GD32VW55x_RELEASE_V1.0.2/MSDK/util/src\debug_print.c ****                 pc += prints(out, s ? s : "(null)", width, pad, &space);
 639              		.loc 1 272 32
 640 00b4 BA85     		mv	a1,a4
 641              	.L63:
 273:C:/Users/stapi/OneDrive/Desktop/GD32VW553/V1_MQTT_OK/GD32VW55X_Wifi_BLE_SDK/GD32VW55x_RELEASE_V1.0.2/MSDK/util/src\debug_print.c ****                 continue;
 642              		.loc 1 273 23 discriminator 4
 643 00b6 7800     		addi	a4,sp,12
 644              	.LVL72:
 645 00b8 BE86     		mv	a3,a5
 646 00ba 5286     		mv	a2,s4
 647              	.LVL73:
 648              	.L96:
 649              	.LBE21:
 332:C:/Users/stapi/OneDrive/Desktop/GD32VW553/V1_MQTT_OK/GD32VW55X_Wifi_BLE_SDK/GD32VW55x_RELEASE_V1.0.2/MSDK/util/src\debug_print.c ****                 continue;
 650              		.loc 1 332 23
 651 00bc 4A85     		mv	a0,s2
 652 00be 97000000 		call	prints
 652      E7800000 
 653              	.LVL74:
 654 00c6 3DA8     		j	.L91
 655              	.LVL75:
 656              	.L59:
 262:C:/Users/stapi/OneDrive/Desktop/GD32VW553/V1_MQTT_OK/GD32VW55X_Wifi_BLE_SDK/GD32VW55x_RELEASE_V1.0.2/MSDK/util/src\debug_print.c ****                 pad |= PAD_ZERO;
 657              		.loc 1 262 17 is_stmt 1
 263:C:/Users/stapi/OneDrive/Desktop/GD32VW553/V1_MQTT_OK/GD32VW55X_Wifi_BLE_SDK/GD32VW55x_RELEASE_V1.0.2/MSDK/util/src\debug_print.c ****             }
 658              		.loc 1 263 17
 263:C:/Users/stapi/OneDrive/Desktop/GD32VW553/V1_MQTT_OK/GD32VW55X_Wifi_BLE_SDK/GD32VW55x_RELEASE_V1.0.2/MSDK/util/src\debug_print.c ****             }
 659              		.loc 1 263 21 is_stmt 0
 660 00c8 93E72700 		ori	a5,a5,2
 661              	.LVL76:
 262:C:/Users/stapi/OneDrive/Desktop/GD32VW553/V1_MQTT_OK/GD32VW55X_Wifi_BLE_SDK/GD32VW55x_RELEASE_V1.0.2/MSDK/util/src\debug_print.c ****                 pad |= PAD_ZERO;
 662              		.loc 1 262 17
 663 00cc B289     		mv	s3,a2
 664 00ce 45BF     		j	.L58
 665              	.LVL77:
 666              	.L61:
 267:C:/Users/stapi/OneDrive/Desktop/GD32VW553/V1_MQTT_OK/GD32VW55X_Wifi_BLE_SDK/GD32VW55x_RELEASE_V1.0.2/MSDK/util/src\debug_print.c ****                 width += *format - '0';
 667              		.loc 1 267 17 is_stmt 1 discriminator 2
 268:C:/Users/stapi/OneDrive/Desktop/GD32VW553/V1_MQTT_OK/GD32VW55X_Wifi_BLE_SDK/GD32VW55x_RELEASE_V1.0.2/MSDK/util/src\debug_print.c ****             }
 668              		.loc 1 268 17 discriminator 2
 268:C:/Users/stapi/OneDrive/Desktop/GD32VW553/V1_MQTT_OK/GD32VW55X_Wifi_BLE_SDK/GD32VW55x_RELEASE_V1.0.2/MSDK/util/src\debug_print.c ****             }
 669              		.loc 1 268 34 is_stmt 0 discriminator 2
 670 00d0 93964660 		sext.b	a3,a3
 266:C:/Users/stapi/OneDrive/Desktop/GD32VW553/V1_MQTT_OK/GD32VW55X_Wifi_BLE_SDK/GD32VW55x_RELEASE_V1.0.2/MSDK/util/src\debug_print.c ****                 width *= 10;
 671              		.loc 1 266 55 discriminator 2
 672 00d4 DA89     		mv	s3,s6
 673              	.LVL78:
 268:C:/Users/stapi/OneDrive/Desktop/GD32VW553/V1_MQTT_OK/GD32VW55X_Wifi_BLE_SDK/GD32VW55x_RELEASE_V1.0.2/MSDK/util/src\debug_print.c ****             }
 674              		.loc 1 268 23 discriminator 2
 675 00d6 FF169AC5 		maddr32	a3, s4, s9
 676 00da 368A     		mv	s4,a3
 677              	.LVL79:
 266:C:/Users/stapi/OneDrive/Desktop/GD32VW553/V1_MQTT_OK/GD32VW55X_Wifi_BLE_SDK/GD32VW55x_RELEASE_V1.0.2/MSDK/util/src\debug_print.c ****                 width *= 10;
 678              		.loc 1 266 55 is_stmt 1 discriminator 2
 679 00dc 4DBF     		j	.L60
 680              	.LVL80:
 681              	.L62:
 277:C:/Users/stapi/OneDrive/Desktop/GD32VW553/V1_MQTT_OK/GD32VW55X_Wifi_BLE_SDK/GD32VW55x_RELEASE_V1.0.2/MSDK/util/src\debug_print.c ****                 pc += printi(out, va_arg(args, int), 10, 1, width, pad, 'a', &space);
 682              		.loc 1 277 13
 277:C:/Users/stapi/OneDrive/Desktop/GD32VW553/V1_MQTT_OK/GD32VW55X_Wifi_BLE_SDK/GD32VW55x_RELEASE_V1.0.2/MSDK/util/src\debug_print.c ****                 pc += printi(out, va_arg(args, int), 10, 1, width, pad, 'a', &space);
 683              		.loc 1 277 16 is_stmt 0
 684 00de 93064006 		li	a3,100
 685 00e2 6315D702 		bne	a4,a3,.L65
 278:C:/Users/stapi/OneDrive/Desktop/GD32VW553/V1_MQTT_OK/GD32VW55X_Wifi_BLE_SDK/GD32VW55x_RELEASE_V1.0.2/MSDK/util/src\debug_print.c ****                 continue;
 686              		.loc 1 278 17 is_stmt 1
 278:C:/Users/stapi/OneDrive/Desktop/GD32VW553/V1_MQTT_OK/GD32VW55X_Wifi_BLE_SDK/GD32VW55x_RELEASE_V1.0.2/MSDK/util/src\debug_print.c ****                 continue;
 687              		.loc 1 278 23 is_stmt 0
 688 00e6 138B4400 		addi	s6,s1,4
 689              	.LVL81:
 690 00ea 9308C100 		addi	a7,sp,12
 691 00ee 13081006 		li	a6,97
 692 00f2 5287     		mv	a4,s4
 693 00f4 8546     		li	a3,1
 694              	.LVL82:
 695              	.L93:
 696 00f6 2946     		li	a2,10
 697              	.L94:
 698 00f8 8C40     		lw	a1,0(s1)
 699 00fa 4A85     		mv	a0,s2
 700 00fc 97000000 		call	printi
 700      E7800000 
 701              	.LVL83:
 702              	.L91:
 278:C:/Users/stapi/OneDrive/Desktop/GD32VW553/V1_MQTT_OK/GD32VW55X_Wifi_BLE_SDK/GD32VW55x_RELEASE_V1.0.2/MSDK/util/src\debug_print.c ****                 continue;
 703              		.loc 1 278 20
 704 0104 2A94     		add	s0,s0,a0
 705              	.LVL84:
 279:C:/Users/stapi/OneDrive/Desktop/GD32VW553/V1_MQTT_OK/GD32VW55X_Wifi_BLE_SDK/GD32VW55x_RELEASE_V1.0.2/MSDK/util/src\debug_print.c ****             }
 706              		.loc 1 279 17 is_stmt 1
 278:C:/Users/stapi/OneDrive/Desktop/GD32VW553/V1_MQTT_OK/GD32VW55X_Wifi_BLE_SDK/GD32VW55x_RELEASE_V1.0.2/MSDK/util/src\debug_print.c ****                 continue;
 707              		.loc 1 278 23 is_stmt 0
 708 0106 DA84     		mv	s1,s6
 709              	.LVL85:
 710              	.L64:
 243:C:/Users/stapi/OneDrive/Desktop/GD32VW553/V1_MQTT_OK/GD32VW55X_Wifi_BLE_SDK/GD32VW55x_RELEASE_V1.0.2/MSDK/util/src\debug_print.c ****         if (*format == '%') {
 711              		.loc 1 243 26 is_stmt 1
 712 0108 8509     		addi	s3,s3,1
 713              	.LVL86:
 714 010a 0DBF     		j	.L54
 715              	.LVL87:
 716              	.L65:
 282:C:/Users/stapi/OneDrive/Desktop/GD32VW553/V1_MQTT_OK/GD32VW55X_Wifi_BLE_SDK/GD32VW55x_RELEASE_V1.0.2/MSDK/util/src\debug_print.c ****                 register unsigned char *addr;
 717              		.loc 1 282 13
 282:C:/Users/stapi/OneDrive/Desktop/GD32VW553/V1_MQTT_OK/GD32VW55X_Wifi_BLE_SDK/GD32VW55x_RELEASE_V1.0.2/MSDK/util/src\debug_print.c ****                 register unsigned char *addr;
 718              		.loc 1 282 16 is_stmt 0
 719 010c 93060007 		li	a3,112
 720 0110 631DD70E 		bne	a4,a3,.L66
 721              	.LBB22:
 283:C:/Users/stapi/OneDrive/Desktop/GD32VW553/V1_MQTT_OK/GD32VW55X_Wifi_BLE_SDK/GD32VW55x_RELEASE_V1.0.2/MSDK/util/src\debug_print.c ****                 register unsigned char i;
 722              		.loc 1 283 17 is_stmt 1
 284:C:/Users/stapi/OneDrive/Desktop/GD32VW553/V1_MQTT_OK/GD32VW55X_Wifi_BLE_SDK/GD32VW55x_RELEASE_V1.0.2/MSDK/util/src\debug_print.c ****                 switch (*(++format)) {
 723              		.loc 1 284 17
 285:C:/Users/stapi/OneDrive/Desktop/GD32VW553/V1_MQTT_OK/GD32VW55X_Wifi_BLE_SDK/GD32VW55x_RELEASE_V1.0.2/MSDK/util/src\debug_print.c ****                 case 'M':
 724              		.loc 1 285 17
 725              	.LVL88:
 726 0114 93069004 		li	a3,73
 727              	.LBE22:
 728              	.LBB23:
 272:C:/Users/stapi/OneDrive/Desktop/GD32VW553/V1_MQTT_OK/GD32VW55X_Wifi_BLE_SDK/GD32VW55x_RELEASE_V1.0.2/MSDK/util/src\debug_print.c ****                 pc += prints(out, s ? s : "(null)", width, pad, &space);
 729              		.loc 1 272 44 is_stmt 0
 730 0118 03AD0400 		lw	s10,0(s1)
 731              	.LBE23:
 732              	.LBB24:
 285:C:/Users/stapi/OneDrive/Desktop/GD32VW553/V1_MQTT_OK/GD32VW55X_Wifi_BLE_SDK/GD32VW55x_RELEASE_V1.0.2/MSDK/util/src\debug_print.c ****                 case 'M':
 733              		.loc 1 285 25
 734 011c 03871900 		lb	a4,1(s3)
 735              	.LBE24:
 736              	.LBB25:
 272:C:/Users/stapi/OneDrive/Desktop/GD32VW553/V1_MQTT_OK/GD32VW55X_Wifi_BLE_SDK/GD32VW55x_RELEASE_V1.0.2/MSDK/util/src\debug_print.c ****                 pc += prints(out, s ? s : "(null)", width, pad, &space);
 737              		.loc 1 272 44
 738 0120 9104     		addi	s1,s1,4
 739              	.LVL89:
 740              	.LBE25:
 741              	.LBB26:
 285:C:/Users/stapi/OneDrive/Desktop/GD32VW553/V1_MQTT_OK/GD32VW55X_Wifi_BLE_SDK/GD32VW55x_RELEASE_V1.0.2/MSDK/util/src\debug_print.c ****                 case 'M':
 742              		.loc 1 285 17
 743 0122 630AD706 		beq	a4,a3,.L67
 744 0126 9306D004 		li	a3,77
 745 012a 6311D70C 		bne	a4,a3,.L68
 287:C:/Users/stapi/OneDrive/Desktop/GD32VW553/V1_MQTT_OK/GD32VW55X_Wifi_BLE_SDK/GD32VW55x_RELEASE_V1.0.2/MSDK/util/src\debug_print.c ****                     pad |= PAD_ZERO;
 746              		.loc 1 287 21 is_stmt 1
 747              	.LVL90:
 288:C:/Users/stapi/OneDrive/Desktop/GD32VW553/V1_MQTT_OK/GD32VW55X_Wifi_BLE_SDK/GD32VW55x_RELEASE_V1.0.2/MSDK/util/src\debug_print.c ****                     addr = (unsigned char *)va_arg(args, int);
 748              		.loc 1 288 21
 288:C:/Users/stapi/OneDrive/Desktop/GD32VW553/V1_MQTT_OK/GD32VW55X_Wifi_BLE_SDK/GD32VW55x_RELEASE_V1.0.2/MSDK/util/src\debug_print.c ****                     addr = (unsigned char *)va_arg(args, int);
 749              		.loc 1 288 25 is_stmt 0
 750 012e 93E72700 		ori	a5,a5,2
 751              	.LVL91:
 289:C:/Users/stapi/OneDrive/Desktop/GD32VW553/V1_MQTT_OK/GD32VW55X_Wifi_BLE_SDK/GD32VW55x_RELEASE_V1.0.2/MSDK/util/src\debug_print.c ****                     for (i = 0; i < 5; i++) {
 752              		.loc 1 289 21 is_stmt 1
 290:C:/Users/stapi/OneDrive/Desktop/GD32VW553/V1_MQTT_OK/GD32VW55X_Wifi_BLE_SDK/GD32VW55x_RELEASE_V1.0.2/MSDK/util/src\debug_print.c ****                         pc += printi(out, addr[i], 16, 1, width, pad, 'a', &space);
 753              		.loc 1 290 21
 290:C:/Users/stapi/OneDrive/Desktop/GD32VW553/V1_MQTT_OK/GD32VW55X_Wifi_BLE_SDK/GD32VW55x_RELEASE_V1.0.2/MSDK/util/src\debug_print.c ****                         pc += printi(out, addr[i], 16, 1, width, pad, 'a', &space);
 754              		.loc 1 290 33
 289:C:/Users/stapi/OneDrive/Desktop/GD32VW553/V1_MQTT_OK/GD32VW55X_Wifi_BLE_SDK/GD32VW55x_RELEASE_V1.0.2/MSDK/util/src\debug_print.c ****                     for (i = 0; i < 5; i++) {
 755              		.loc 1 289 26 is_stmt 0
 756 0132 8149     		li	s3,0
 757              	.LVL92:
 290:C:/Users/stapi/OneDrive/Desktop/GD32VW553/V1_MQTT_OK/GD32VW55X_Wifi_BLE_SDK/GD32VW55x_RELEASE_V1.0.2/MSDK/util/src\debug_print.c ****                         pc += printi(out, addr[i], 16, 1, width, pad, 'a', &space);
 758              		.loc 1 290 21
 759 0134 154A     		li	s4,5
 760              	.LVL93:
 761              	.L69:
 291:C:/Users/stapi/OneDrive/Desktop/GD32VW553/V1_MQTT_OK/GD32VW55X_Wifi_BLE_SDK/GD32VW55x_RELEASE_V1.0.2/MSDK/util/src\debug_print.c ****                         printchar(out, ':', &space);
 762              		.loc 1 291 25 is_stmt 1 discriminator 3
 291:C:/Users/stapi/OneDrive/Desktop/GD32VW553/V1_MQTT_OK/GD32VW55X_Wifi_BLE_SDK/GD32VW55x_RELEASE_V1.0.2/MSDK/util/src\debug_print.c ****                         printchar(out, ':', &space);
 763              		.loc 1 291 47 is_stmt 0 discriminator 3
 764 0136 B3053D01 		add	a1,s10,s3
 291:C:/Users/stapi/OneDrive/Desktop/GD32VW553/V1_MQTT_OK/GD32VW55X_Wifi_BLE_SDK/GD32VW55x_RELEASE_V1.0.2/MSDK/util/src\debug_print.c ****                         printchar(out, ':', &space);
 765              		.loc 1 291 31 discriminator 3
 766 013a 83C50500 		lbu	a1,0(a1)
 767 013e 9308C100 		addi	a7,sp,12
 768 0142 13081006 		li	a6,97
 769 0146 0947     		li	a4,2
 770 0148 8546     		li	a3,1
 771 014a 4146     		li	a2,16
 772 014c 4A85     		mv	a0,s2
 773 014e 3EC4     		sw	a5,8(sp)
 774 0150 97000000 		call	printi
 774      E7800000 
 775              	.LVL94:
 291:C:/Users/stapi/OneDrive/Desktop/GD32VW553/V1_MQTT_OK/GD32VW55X_Wifi_BLE_SDK/GD32VW55x_RELEASE_V1.0.2/MSDK/util/src\debug_print.c ****                         printchar(out, ':', &space);
 776              		.loc 1 291 28 discriminator 3
 777 0158 2A94     		add	s0,a0,s0
 778              	.LVL95:
 292:C:/Users/stapi/OneDrive/Desktop/GD32VW553/V1_MQTT_OK/GD32VW55X_Wifi_BLE_SDK/GD32VW55x_RELEASE_V1.0.2/MSDK/util/src\debug_print.c ****                         pc++;
 779              		.loc 1 292 25 is_stmt 1 discriminator 3
 780 015a 7000     		addi	a2,sp,12
 781 015c 9305A003 		li	a1,58
 782 0160 4A85     		mv	a0,s2
 783 0162 97000000 		call	printchar
 783      E7800000 
 784              	.LVL96:
 293:C:/Users/stapi/OneDrive/Desktop/GD32VW553/V1_MQTT_OK/GD32VW55X_Wifi_BLE_SDK/GD32VW55x_RELEASE_V1.0.2/MSDK/util/src\debug_print.c ****                     }
 785              		.loc 1 293 25 discriminator 3
 290:C:/Users/stapi/OneDrive/Desktop/GD32VW553/V1_MQTT_OK/GD32VW55X_Wifi_BLE_SDK/GD32VW55x_RELEASE_V1.0.2/MSDK/util/src\debug_print.c ****                         pc += printi(out, addr[i], 16, 1, width, pad, 'a', &space);
 786              		.loc 1 290 21 is_stmt 0 discriminator 3
 787 016a 8509     		addi	s3,s3,1
 788              	.LVL97:
 789 016c A247     		lw	a5,8(sp)
 293:C:/Users/stapi/OneDrive/Desktop/GD32VW553/V1_MQTT_OK/GD32VW55X_Wifi_BLE_SDK/GD32VW55x_RELEASE_V1.0.2/MSDK/util/src\debug_print.c ****                     }
 790              		.loc 1 293 27 discriminator 3
 791 016e 0504     		addi	s0,s0,1
 792              	.LVL98:
 290:C:/Users/stapi/OneDrive/Desktop/GD32VW553/V1_MQTT_OK/GD32VW55X_Wifi_BLE_SDK/GD32VW55x_RELEASE_V1.0.2/MSDK/util/src\debug_print.c ****                         pc += printi(out, addr[i], 16, 1, width, pad, 'a', &space);
 793              		.loc 1 290 40 is_stmt 1 discriminator 3
 290:C:/Users/stapi/OneDrive/Desktop/GD32VW553/V1_MQTT_OK/GD32VW55X_Wifi_BLE_SDK/GD32VW55x_RELEASE_V1.0.2/MSDK/util/src\debug_print.c ****                         pc += printi(out, addr[i], 16, 1, width, pad, 'a', &space);
 794              		.loc 1 290 33 discriminator 3
 290:C:/Users/stapi/OneDrive/Desktop/GD32VW553/V1_MQTT_OK/GD32VW55X_Wifi_BLE_SDK/GD32VW55x_RELEASE_V1.0.2/MSDK/util/src\debug_print.c ****                         pc += printi(out, addr[i], 16, 1, width, pad, 'a', &space);
 795              		.loc 1 290 21 is_stmt 0 discriminator 3
 796 0170 E39349FD 		bne	s3,s4,.L69
 295:C:/Users/stapi/OneDrive/Desktop/GD32VW553/V1_MQTT_OK/GD32VW55X_Wifi_BLE_SDK/GD32VW55x_RELEASE_V1.0.2/MSDK/util/src\debug_print.c ****                     continue;
 797              		.loc 1 295 21 is_stmt 1
 295:C:/Users/stapi/OneDrive/Desktop/GD32VW553/V1_MQTT_OK/GD32VW55X_Wifi_BLE_SDK/GD32VW55x_RELEASE_V1.0.2/MSDK/util/src\debug_print.c ****                     continue;
 798              		.loc 1 295 27 is_stmt 0
 799 0174 83455D00 		lbu	a1,5(s10)
 800 0178 9308C100 		addi	a7,sp,12
 801 017c 13081006 		li	a6,97
 802 0180 0947     		li	a4,2
 803 0182 8546     		li	a3,1
 804 0184 4146     		li	a2,16
 805              	.LVL99:
 806              	.L92:
 304:C:/Users/stapi/OneDrive/Desktop/GD32VW553/V1_MQTT_OK/GD32VW55X_Wifi_BLE_SDK/GD32VW55x_RELEASE_V1.0.2/MSDK/util/src\debug_print.c ****                     continue;
 807              		.loc 1 304 27
 808 0186 4A85     		mv	a0,s2
 809 0188 97000000 		call	printi
 809      E7800000 
 810              	.LVL100:
 304:C:/Users/stapi/OneDrive/Desktop/GD32VW553/V1_MQTT_OK/GD32VW55X_Wifi_BLE_SDK/GD32VW55x_RELEASE_V1.0.2/MSDK/util/src\debug_print.c ****                     continue;
 811              		.loc 1 304 24
 812 0190 2A94     		add	s0,s0,a0
 813              	.LVL101:
 305:C:/Users/stapi/OneDrive/Desktop/GD32VW553/V1_MQTT_OK/GD32VW55X_Wifi_BLE_SDK/GD32VW55x_RELEASE_V1.0.2/MSDK/util/src\debug_print.c ****                 default:
 814              		.loc 1 305 21 is_stmt 1
 815              	.LBE26:
 266:C:/Users/stapi/OneDrive/Desktop/GD32VW553/V1_MQTT_OK/GD32VW55X_Wifi_BLE_SDK/GD32VW55x_RELEASE_V1.0.2/MSDK/util/src\debug_print.c ****                 width *= 10;
 816              		.loc 1 266 55 is_stmt 0
 817 0192 DA89     		mv	s3,s6
 818              	.LBB27:
 305:C:/Users/stapi/OneDrive/Desktop/GD32VW553/V1_MQTT_OK/GD32VW55X_Wifi_BLE_SDK/GD32VW55x_RELEASE_V1.0.2/MSDK/util/src\debug_print.c ****                 default:
 819              		.loc 1 305 21
 820 0194 95BF     		j	.L64
 821              	.LVL102:
 822              	.L67:
 298:C:/Users/stapi/OneDrive/Desktop/GD32VW553/V1_MQTT_OK/GD32VW55X_Wifi_BLE_SDK/GD32VW55x_RELEASE_V1.0.2/MSDK/util/src\debug_print.c ****                     for (i = 0; i < 3; i++) {
 823              		.loc 1 298 21 is_stmt 1
 299:C:/Users/stapi/OneDrive/Desktop/GD32VW553/V1_MQTT_OK/GD32VW55X_Wifi_BLE_SDK/GD32VW55x_RELEASE_V1.0.2/MSDK/util/src\debug_print.c ****                         pc += printi(out, addr[i], 10, 1, width, pad, 'a', &space);
 824              		.loc 1 299 21
 299:C:/Users/stapi/OneDrive/Desktop/GD32VW553/V1_MQTT_OK/GD32VW55X_Wifi_BLE_SDK/GD32VW55x_RELEASE_V1.0.2/MSDK/util/src\debug_print.c ****                         pc += printi(out, addr[i], 10, 1, width, pad, 'a', &space);
 825              		.loc 1 299 33
 298:C:/Users/stapi/OneDrive/Desktop/GD32VW553/V1_MQTT_OK/GD32VW55X_Wifi_BLE_SDK/GD32VW55x_RELEASE_V1.0.2/MSDK/util/src\debug_print.c ****                     for (i = 0; i < 3; i++) {
 826              		.loc 1 298 26 is_stmt 0
 827 0196 8149     		li	s3,0
 828              	.LVL103:
 299:C:/Users/stapi/OneDrive/Desktop/GD32VW553/V1_MQTT_OK/GD32VW55X_Wifi_BLE_SDK/GD32VW55x_RELEASE_V1.0.2/MSDK/util/src\debug_print.c ****                         pc += printi(out, addr[i], 10, 1, width, pad, 'a', &space);
 829              		.loc 1 299 21
 830 0198 8D4D     		li	s11,3
 831              	.LVL104:
 832              	.L70:
 300:C:/Users/stapi/OneDrive/Desktop/GD32VW553/V1_MQTT_OK/GD32VW55X_Wifi_BLE_SDK/GD32VW55x_RELEASE_V1.0.2/MSDK/util/src\debug_print.c ****                         printchar(out, '.', &space);
 833              		.loc 1 300 25 is_stmt 1 discriminator 3
 300:C:/Users/stapi/OneDrive/Desktop/GD32VW553/V1_MQTT_OK/GD32VW55X_Wifi_BLE_SDK/GD32VW55x_RELEASE_V1.0.2/MSDK/util/src\debug_print.c ****                         printchar(out, '.', &space);
 834              		.loc 1 300 47 is_stmt 0 discriminator 3
 835 019a B3053D01 		add	a1,s10,s3
 300:C:/Users/stapi/OneDrive/Desktop/GD32VW553/V1_MQTT_OK/GD32VW55X_Wifi_BLE_SDK/GD32VW55x_RELEASE_V1.0.2/MSDK/util/src\debug_print.c ****                         printchar(out, '.', &space);
 836              		.loc 1 300 31 discriminator 3
 837 019e 83C50500 		lbu	a1,0(a1)
 838 01a2 9308C100 		addi	a7,sp,12
 839 01a6 13081006 		li	a6,97
 840 01aa 5287     		mv	a4,s4
 841 01ac 8546     		li	a3,1
 842 01ae 2946     		li	a2,10
 843 01b0 4A85     		mv	a0,s2
 844 01b2 3EC4     		sw	a5,8(sp)
 845 01b4 97000000 		call	printi
 845      E7800000 
 846              	.LVL105:
 300:C:/Users/stapi/OneDrive/Desktop/GD32VW553/V1_MQTT_OK/GD32VW55X_Wifi_BLE_SDK/GD32VW55x_RELEASE_V1.0.2/MSDK/util/src\debug_print.c ****                         printchar(out, '.', &space);
 847              		.loc 1 300 28 discriminator 3
 848 01bc 2A94     		add	s0,a0,s0
 849              	.LVL106:
 301:C:/Users/stapi/OneDrive/Desktop/GD32VW553/V1_MQTT_OK/GD32VW55X_Wifi_BLE_SDK/GD32VW55x_RELEASE_V1.0.2/MSDK/util/src\debug_print.c ****                         pc++;
 850              		.loc 1 301 25 is_stmt 1 discriminator 3
 851 01be 7000     		addi	a2,sp,12
 852 01c0 9305E002 		li	a1,46
 853 01c4 4A85     		mv	a0,s2
 854 01c6 97000000 		call	printchar
 854      E7800000 
 855              	.LVL107:
 302:C:/Users/stapi/OneDrive/Desktop/GD32VW553/V1_MQTT_OK/GD32VW55X_Wifi_BLE_SDK/GD32VW55x_RELEASE_V1.0.2/MSDK/util/src\debug_print.c ****                     }
 856              		.loc 1 302 25 discriminator 3
 299:C:/Users/stapi/OneDrive/Desktop/GD32VW553/V1_MQTT_OK/GD32VW55X_Wifi_BLE_SDK/GD32VW55x_RELEASE_V1.0.2/MSDK/util/src\debug_print.c ****                         pc += printi(out, addr[i], 10, 1, width, pad, 'a', &space);
 857              		.loc 1 299 21 is_stmt 0 discriminator 3
 858 01ce 8509     		addi	s3,s3,1
 859              	.LVL108:
 860 01d0 A247     		lw	a5,8(sp)
 302:C:/Users/stapi/OneDrive/Desktop/GD32VW553/V1_MQTT_OK/GD32VW55X_Wifi_BLE_SDK/GD32VW55x_RELEASE_V1.0.2/MSDK/util/src\debug_print.c ****                     }
 861              		.loc 1 302 27 discriminator 3
 862 01d2 0504     		addi	s0,s0,1
 863              	.LVL109:
 299:C:/Users/stapi/OneDrive/Desktop/GD32VW553/V1_MQTT_OK/GD32VW55X_Wifi_BLE_SDK/GD32VW55x_RELEASE_V1.0.2/MSDK/util/src\debug_print.c ****                         pc += printi(out, addr[i], 10, 1, width, pad, 'a', &space);
 864              		.loc 1 299 40 is_stmt 1 discriminator 3
 299:C:/Users/stapi/OneDrive/Desktop/GD32VW553/V1_MQTT_OK/GD32VW55X_Wifi_BLE_SDK/GD32VW55x_RELEASE_V1.0.2/MSDK/util/src\debug_print.c ****                         pc += printi(out, addr[i], 10, 1, width, pad, 'a', &space);
 865              		.loc 1 299 33 discriminator 3
 299:C:/Users/stapi/OneDrive/Desktop/GD32VW553/V1_MQTT_OK/GD32VW55X_Wifi_BLE_SDK/GD32VW55x_RELEASE_V1.0.2/MSDK/util/src\debug_print.c ****                         pc += printi(out, addr[i], 10, 1, width, pad, 'a', &space);
 866              		.loc 1 299 21 is_stmt 0 discriminator 3
 867 01d4 E393B9FD 		bne	s3,s11,.L70
 304:C:/Users/stapi/OneDrive/Desktop/GD32VW553/V1_MQTT_OK/GD32VW55X_Wifi_BLE_SDK/GD32VW55x_RELEASE_V1.0.2/MSDK/util/src\debug_print.c ****                     continue;
 868              		.loc 1 304 21 is_stmt 1
 304:C:/Users/stapi/OneDrive/Desktop/GD32VW553/V1_MQTT_OK/GD32VW55X_Wifi_BLE_SDK/GD32VW55x_RELEASE_V1.0.2/MSDK/util/src\debug_print.c ****                     continue;
 869              		.loc 1 304 27 is_stmt 0
 870 01d8 83453D00 		lbu	a1,3(s10)
 871 01dc 9308C100 		addi	a7,sp,12
 872 01e0 13081006 		li	a6,97
 873 01e4 5287     		mv	a4,s4
 874 01e6 8546     		li	a3,1
 875 01e8 2946     		li	a2,10
 876 01ea 71BF     		j	.L92
 877              	.LVL110:
 878              	.L68:
 307:C:/Users/stapi/OneDrive/Desktop/GD32VW553/V1_MQTT_OK/GD32VW55X_Wifi_BLE_SDK/GD32VW55x_RELEASE_V1.0.2/MSDK/util/src\debug_print.c ****                     pc += printi(out, va_arg(args, int), 16, 0, width, pad, 'a', &space);
 879              		.loc 1 307 21 is_stmt 1
 308:C:/Users/stapi/OneDrive/Desktop/GD32VW553/V1_MQTT_OK/GD32VW55X_Wifi_BLE_SDK/GD32VW55x_RELEASE_V1.0.2/MSDK/util/src\debug_print.c ****                     continue;
 880              		.loc 1 308 21
 308:C:/Users/stapi/OneDrive/Desktop/GD32VW553/V1_MQTT_OK/GD32VW55X_Wifi_BLE_SDK/GD32VW55x_RELEASE_V1.0.2/MSDK/util/src\debug_print.c ****                     continue;
 881              		.loc 1 308 27 is_stmt 0
 882 01ec 9308C100 		addi	a7,sp,12
 883 01f0 13081006 		li	a6,97
 884 01f4 5287     		mv	a4,s4
 885 01f6 8146     		li	a3,0
 886 01f8 4146     		li	a2,16
 887 01fa EA85     		mv	a1,s10
 888 01fc 4A85     		mv	a0,s2
 889 01fe 97000000 		call	printi
 889      E7800000 
 890              	.LVL111:
 308:C:/Users/stapi/OneDrive/Desktop/GD32VW553/V1_MQTT_OK/GD32VW55X_Wifi_BLE_SDK/GD32VW55x_RELEASE_V1.0.2/MSDK/util/src\debug_print.c ****                     continue;
 891              		.loc 1 308 24
 892 0206 2A94     		add	s0,s0,a0
 893              	.LVL112:
 309:C:/Users/stapi/OneDrive/Desktop/GD32VW553/V1_MQTT_OK/GD32VW55X_Wifi_BLE_SDK/GD32VW55x_RELEASE_V1.0.2/MSDK/util/src\debug_print.c ****                 }
 894              		.loc 1 309 21 is_stmt 1
 895 0208 01B7     		j	.L64
 896              	.LVL113:
 897              	.L66:
 898              	.LBE27:
 313:C:/Users/stapi/OneDrive/Desktop/GD32VW553/V1_MQTT_OK/GD32VW55X_Wifi_BLE_SDK/GD32VW55x_RELEASE_V1.0.2/MSDK/util/src\debug_print.c ****                 pc += printi(out, va_arg(args, int), 16, 0, width, pad, 'a', &space);
 899              		.loc 1 313 13
 313:C:/Users/stapi/OneDrive/Desktop/GD32VW553/V1_MQTT_OK/GD32VW55X_Wifi_BLE_SDK/GD32VW55x_RELEASE_V1.0.2/MSDK/util/src\debug_print.c ****                 pc += printi(out, va_arg(args, int), 16, 0, width, pad, 'a', &space);
 900              		.loc 1 313 16 is_stmt 0
 901 020a 93068007 		li	a3,120
 902 020e 631CD700 		bne	a4,a3,.L71
 314:C:/Users/stapi/OneDrive/Desktop/GD32VW553/V1_MQTT_OK/GD32VW55X_Wifi_BLE_SDK/GD32VW55x_RELEASE_V1.0.2/MSDK/util/src\debug_print.c ****                 continue;
 903              		.loc 1 314 17 is_stmt 1
 314:C:/Users/stapi/OneDrive/Desktop/GD32VW553/V1_MQTT_OK/GD32VW55X_Wifi_BLE_SDK/GD32VW55x_RELEASE_V1.0.2/MSDK/util/src\debug_print.c ****                 continue;
 904              		.loc 1 314 23 is_stmt 0
 905 0212 138B4400 		addi	s6,s1,4
 906              	.LVL114:
 907 0216 9308C100 		addi	a7,sp,12
 908 021a 13081006 		li	a6,97
 909              	.L95:
 319:C:/Users/stapi/OneDrive/Desktop/GD32VW553/V1_MQTT_OK/GD32VW55X_Wifi_BLE_SDK/GD32VW55x_RELEASE_V1.0.2/MSDK/util/src\debug_print.c ****                 continue;
 910              		.loc 1 319 23
 911 021e 5287     		mv	a4,s4
 912 0220 8146     		li	a3,0
 913 0222 4146     		li	a2,16
 914 0224 D1BD     		j	.L94
 915              	.LVL115:
 916              	.L71:
 318:C:/Users/stapi/OneDrive/Desktop/GD32VW553/V1_MQTT_OK/GD32VW55X_Wifi_BLE_SDK/GD32VW55x_RELEASE_V1.0.2/MSDK/util/src\debug_print.c ****                 pc += printi(out, va_arg(args, int), 16, 0, width, pad, 'A', &space);
 917              		.loc 1 318 13 is_stmt 1
 318:C:/Users/stapi/OneDrive/Desktop/GD32VW553/V1_MQTT_OK/GD32VW55X_Wifi_BLE_SDK/GD32VW55x_RELEASE_V1.0.2/MSDK/util/src\debug_print.c ****                 pc += printi(out, va_arg(args, int), 16, 0, width, pad, 'A', &space);
 918              		.loc 1 318 16 is_stmt 0
 919 0226 93068005 		li	a3,88
 920 022a 6319D700 		bne	a4,a3,.L72
 319:C:/Users/stapi/OneDrive/Desktop/GD32VW553/V1_MQTT_OK/GD32VW55X_Wifi_BLE_SDK/GD32VW55x_RELEASE_V1.0.2/MSDK/util/src\debug_print.c ****                 continue;
 921              		.loc 1 319 17 is_stmt 1
 319:C:/Users/stapi/OneDrive/Desktop/GD32VW553/V1_MQTT_OK/GD32VW55X_Wifi_BLE_SDK/GD32VW55x_RELEASE_V1.0.2/MSDK/util/src\debug_print.c ****                 continue;
 922              		.loc 1 319 23 is_stmt 0
 923 022e 138B4400 		addi	s6,s1,4
 924              	.LVL116:
 925 0232 9308C100 		addi	a7,sp,12
 926 0236 13081004 		li	a6,65
 927 023a D5B7     		j	.L95
 928              	.LVL117:
 929              	.L72:
 323:C:/Users/stapi/OneDrive/Desktop/GD32VW553/V1_MQTT_OK/GD32VW55X_Wifi_BLE_SDK/GD32VW55x_RELEASE_V1.0.2/MSDK/util/src\debug_print.c ****                 pc += printi(out, va_arg(args, int), 10, 0, width, pad, 'a', &space);
 930              		.loc 1 323 13 is_stmt 1
 323:C:/Users/stapi/OneDrive/Desktop/GD32VW553/V1_MQTT_OK/GD32VW55X_Wifi_BLE_SDK/GD32VW55x_RELEASE_V1.0.2/MSDK/util/src\debug_print.c ****                 pc += printi(out, va_arg(args, int), 10, 0, width, pad, 'a', &space);
 931              		.loc 1 323 16 is_stmt 0
 932 023c 93065007 		li	a3,117
 933 0240 631BD700 		bne	a4,a3,.L73
 324:C:/Users/stapi/OneDrive/Desktop/GD32VW553/V1_MQTT_OK/GD32VW55X_Wifi_BLE_SDK/GD32VW55x_RELEASE_V1.0.2/MSDK/util/src\debug_print.c ****                 continue;
 934              		.loc 1 324 17 is_stmt 1
 324:C:/Users/stapi/OneDrive/Desktop/GD32VW553/V1_MQTT_OK/GD32VW55X_Wifi_BLE_SDK/GD32VW55x_RELEASE_V1.0.2/MSDK/util/src\debug_print.c ****                 continue;
 935              		.loc 1 324 23 is_stmt 0
 936 0244 138B4400 		addi	s6,s1,4
 937              	.LVL118:
 938 0248 9308C100 		addi	a7,sp,12
 939 024c 13081006 		li	a6,97
 940 0250 5287     		mv	a4,s4
 941 0252 8146     		li	a3,0
 942 0254 4DB5     		j	.L93
 943              	.LVL119:
 944              	.L73:
 328:C:/Users/stapi/OneDrive/Desktop/GD32VW553/V1_MQTT_OK/GD32VW55X_Wifi_BLE_SDK/GD32VW55x_RELEASE_V1.0.2/MSDK/util/src\debug_print.c ****                 /* char are converted to int then pushed on the stack */
 945              		.loc 1 328 13 is_stmt 1
 328:C:/Users/stapi/OneDrive/Desktop/GD32VW553/V1_MQTT_OK/GD32VW55X_Wifi_BLE_SDK/GD32VW55x_RELEASE_V1.0.2/MSDK/util/src\debug_print.c ****                 /* char are converted to int then pushed on the stack */
 946              		.loc 1 328 16 is_stmt 0
 947 0256 93063006 		li	a3,99
 948 025a E317D7EA 		bne	a4,a3,.L64
 330:C:/Users/stapi/OneDrive/Desktop/GD32VW553/V1_MQTT_OK/GD32VW55X_Wifi_BLE_SDK/GD32VW55x_RELEASE_V1.0.2/MSDK/util/src\debug_print.c ****                 scr[1] = '\0';
 949              		.loc 1 330 17 is_stmt 1
 330:C:/Users/stapi/OneDrive/Desktop/GD32VW553/V1_MQTT_OK/GD32VW55X_Wifi_BLE_SDK/GD32VW55x_RELEASE_V1.0.2/MSDK/util/src\debug_print.c ****                 scr[1] = '\0';
 950              		.loc 1 330 26 is_stmt 0
 951 025e 9840     		lw	a4,0(s1)
 330:C:/Users/stapi/OneDrive/Desktop/GD32VW553/V1_MQTT_OK/GD32VW55X_Wifi_BLE_SDK/GD32VW55x_RELEASE_V1.0.2/MSDK/util/src\debug_print.c ****                 scr[1] = '\0';
 952              		.loc 1 330 32
 953 0260 138B4400 		addi	s6,s1,4
 954              	.LVL120:
 331:C:/Users/stapi/OneDrive/Desktop/GD32VW553/V1_MQTT_OK/GD32VW55X_Wifi_BLE_SDK/GD32VW55x_RELEASE_V1.0.2/MSDK/util/src\debug_print.c ****                 pc += prints (out, scr, width, pad, &space);
 955              		.loc 1 331 24
 956 0264 A30E0100 		sb	zero,29(sp)
 330:C:/Users/stapi/OneDrive/Desktop/GD32VW553/V1_MQTT_OK/GD32VW55X_Wifi_BLE_SDK/GD32VW55x_RELEASE_V1.0.2/MSDK/util/src\debug_print.c ****                 scr[1] = '\0';
 957              		.loc 1 330 26
 958 0268 230EE100 		sb	a4,28(sp)
 331:C:/Users/stapi/OneDrive/Desktop/GD32VW553/V1_MQTT_OK/GD32VW55X_Wifi_BLE_SDK/GD32VW55x_RELEASE_V1.0.2/MSDK/util/src\debug_print.c ****                 pc += prints (out, scr, width, pad, &space);
 959              		.loc 1 331 17 is_stmt 1
 332:C:/Users/stapi/OneDrive/Desktop/GD32VW553/V1_MQTT_OK/GD32VW55X_Wifi_BLE_SDK/GD32VW55x_RELEASE_V1.0.2/MSDK/util/src\debug_print.c ****                 continue;
 960              		.loc 1 332 17
 332:C:/Users/stapi/OneDrive/Desktop/GD32VW553/V1_MQTT_OK/GD32VW55X_Wifi_BLE_SDK/GD32VW55x_RELEASE_V1.0.2/MSDK/util/src\debug_print.c ****                 continue;
 961              		.loc 1 332 23 is_stmt 0
 962 026c BE86     		mv	a3,a5
 963 026e 7800     		addi	a4,sp,12
 964 0270 5286     		mv	a2,s4
 965 0272 6C08     		addi	a1,sp,28
 966 0274 A1B5     		j	.L96
 967              	.LVL121:
 968              	.L76:
 245:C:/Users/stapi/OneDrive/Desktop/GD32VW553/V1_MQTT_OK/GD32VW55X_Wifi_BLE_SDK/GD32VW55x_RELEASE_V1.0.2/MSDK/util/src\debug_print.c ****             width = pad = 0;
 969              		.loc 1 245 13
 970 0276 BA89     		mv	s3,a4
 971              	.LVL122:
 972              	.L55:
 337:C:/Users/stapi/OneDrive/Desktop/GD32VW553/V1_MQTT_OK/GD32VW55X_Wifi_BLE_SDK/GD32VW55x_RELEASE_V1.0.2/MSDK/util/src\debug_print.c ****             ++pc;
 973              		.loc 1 337 13 is_stmt 1
 974 0278 7000     		addi	a2,sp,12
 975 027a 4A85     		mv	a0,s2
 976 027c 83850900 		lb	a1,0(s3)
 338:C:/Users/stapi/OneDrive/Desktop/GD32VW553/V1_MQTT_OK/GD32VW55X_Wifi_BLE_SDK/GD32VW55x_RELEASE_V1.0.2/MSDK/util/src\debug_print.c ****         }
 977              		.loc 1 338 13 is_stmt 0
 978 0280 0504     		addi	s0,s0,1
 979              	.LVL123:
 337:C:/Users/stapi/OneDrive/Desktop/GD32VW553/V1_MQTT_OK/GD32VW55X_Wifi_BLE_SDK/GD32VW55x_RELEASE_V1.0.2/MSDK/util/src\debug_print.c ****             ++pc;
 980              		.loc 1 337 13
 981 0282 97000000 		call	printchar
 981      E7800000 
 982              	.LVL124:
 338:C:/Users/stapi/OneDrive/Desktop/GD32VW553/V1_MQTT_OK/GD32VW55X_Wifi_BLE_SDK/GD32VW55x_RELEASE_V1.0.2/MSDK/util/src\debug_print.c ****         }
 983              		.loc 1 338 13 is_stmt 1
 984 028a BDBD     		j	.L64
 985              		.cfi_endproc
 986              	.LFE370:
 988              		.section	.text.co_printf,"ax",@progbits
 989              		.align	1
 990              		.globl	co_printf
 992              	co_printf:
 993              	.LFB371:
 348:C:/Users/stapi/OneDrive/Desktop/GD32VW553/V1_MQTT_OK/GD32VW55X_Wifi_BLE_SDK/GD32VW55x_RELEASE_V1.0.2/MSDK/util/src\debug_print.c **** 
 349:C:/Users/stapi/OneDrive/Desktop/GD32VW553/V1_MQTT_OK/GD32VW55X_Wifi_BLE_SDK/GD32VW55x_RELEASE_V1.0.2/MSDK/util/src\debug_print.c **** #ifdef CONFIG_PRINT_IN_SEQUENCE
 350:C:/Users/stapi/OneDrive/Desktop/GD32VW553/V1_MQTT_OK/GD32VW55X_Wifi_BLE_SDK/GD32VW55x_RELEASE_V1.0.2/MSDK/util/src\debug_print.c **** static void print_task_handle(void *argv)
 351:C:/Users/stapi/OneDrive/Desktop/GD32VW553/V1_MQTT_OK/GD32VW55X_Wifi_BLE_SDK/GD32VW55x_RELEASE_V1.0.2/MSDK/util/src\debug_print.c **** {
 352:C:/Users/stapi/OneDrive/Desktop/GD32VW553/V1_MQTT_OK/GD32VW55X_Wifi_BLE_SDK/GD32VW55x_RELEASE_V1.0.2/MSDK/util/src\debug_print.c ****     do {
 353:C:/Users/stapi/OneDrive/Desktop/GD32VW553/V1_MQTT_OK/GD32VW55X_Wifi_BLE_SDK/GD32VW55x_RELEASE_V1.0.2/MSDK/util/src\debug_print.c ****         sys_sema_down(&print_sema, 0);
 354:C:/Users/stapi/OneDrive/Desktop/GD32VW553/V1_MQTT_OK/GD32VW55X_Wifi_BLE_SDK/GD32VW55x_RELEASE_V1.0.2/MSDK/util/src\debug_print.c ****         while ( used_len > 0) {
 355:C:/Users/stapi/OneDrive/Desktop/GD32VW553/V1_MQTT_OK/GD32VW55X_Wifi_BLE_SDK/GD32VW55x_RELEASE_V1.0.2/MSDK/util/src\debug_print.c ****             log_uart_putc_noint(print_buf[r_point]);
 356:C:/Users/stapi/OneDrive/Desktop/GD32VW553/V1_MQTT_OK/GD32VW55X_Wifi_BLE_SDK/GD32VW55x_RELEASE_V1.0.2/MSDK/util/src\debug_print.c ****             r_point ++;
 357:C:/Users/stapi/OneDrive/Desktop/GD32VW553/V1_MQTT_OK/GD32VW55X_Wifi_BLE_SDK/GD32VW55x_RELEASE_V1.0.2/MSDK/util/src\debug_print.c ****             if (r_point >= MAX_BUF_LEN)
 358:C:/Users/stapi/OneDrive/Desktop/GD32VW553/V1_MQTT_OK/GD32VW55X_Wifi_BLE_SDK/GD32VW55x_RELEASE_V1.0.2/MSDK/util/src\debug_print.c ****                 r_point -= MAX_BUF_LEN;
 359:C:/Users/stapi/OneDrive/Desktop/GD32VW553/V1_MQTT_OK/GD32VW55X_Wifi_BLE_SDK/GD32VW55x_RELEASE_V1.0.2/MSDK/util/src\debug_print.c ****             sys_enter_critical();
 360:C:/Users/stapi/OneDrive/Desktop/GD32VW553/V1_MQTT_OK/GD32VW55X_Wifi_BLE_SDK/GD32VW55x_RELEASE_V1.0.2/MSDK/util/src\debug_print.c ****             used_len--;
 361:C:/Users/stapi/OneDrive/Desktop/GD32VW553/V1_MQTT_OK/GD32VW55X_Wifi_BLE_SDK/GD32VW55x_RELEASE_V1.0.2/MSDK/util/src\debug_print.c ****             sys_exit_critical();
 362:C:/Users/stapi/OneDrive/Desktop/GD32VW553/V1_MQTT_OK/GD32VW55X_Wifi_BLE_SDK/GD32VW55x_RELEASE_V1.0.2/MSDK/util/src\debug_print.c ****         }
 363:C:/Users/stapi/OneDrive/Desktop/GD32VW553/V1_MQTT_OK/GD32VW55X_Wifi_BLE_SDK/GD32VW55x_RELEASE_V1.0.2/MSDK/util/src\debug_print.c ****     } while(1);
 364:C:/Users/stapi/OneDrive/Desktop/GD32VW553/V1_MQTT_OK/GD32VW55X_Wifi_BLE_SDK/GD32VW55x_RELEASE_V1.0.2/MSDK/util/src\debug_print.c **** }
 365:C:/Users/stapi/OneDrive/Desktop/GD32VW553/V1_MQTT_OK/GD32VW55X_Wifi_BLE_SDK/GD32VW55x_RELEASE_V1.0.2/MSDK/util/src\debug_print.c **** #endif
 366:C:/Users/stapi/OneDrive/Desktop/GD32VW553/V1_MQTT_OK/GD32VW55X_Wifi_BLE_SDK/GD32VW55x_RELEASE_V1.0.2/MSDK/util/src\debug_print.c **** 
 367:C:/Users/stapi/OneDrive/Desktop/GD32VW553/V1_MQTT_OK/GD32VW55X_Wifi_BLE_SDK/GD32VW55x_RELEASE_V1.0.2/MSDK/util/src\debug_print.c **** 
 368:C:/Users/stapi/OneDrive/Desktop/GD32VW553/V1_MQTT_OK/GD32VW55X_Wifi_BLE_SDK/GD32VW55x_RELEASE_V1.0.2/MSDK/util/src\debug_print.c **** int co_printf(const char *format, ...)
 369:C:/Users/stapi/OneDrive/Desktop/GD32VW553/V1_MQTT_OK/GD32VW55X_Wifi_BLE_SDK/GD32VW55x_RELEASE_V1.0.2/MSDK/util/src\debug_print.c **** {
 994              		.loc 1 369 1
 995              		.cfi_startproc
 996              	.LVL125:
 370:C:/Users/stapi/OneDrive/Desktop/GD32VW553/V1_MQTT_OK/GD32VW55X_Wifi_BLE_SDK/GD32VW55x_RELEASE_V1.0.2/MSDK/util/src\debug_print.c **** #if (!defined(CONFIG_PRINT_IN_SEQUENCE) | !defined(LOG_UART))
 371:C:/Users/stapi/OneDrive/Desktop/GD32VW553/V1_MQTT_OK/GD32VW55X_Wifi_BLE_SDK/GD32VW55x_RELEASE_V1.0.2/MSDK/util/src\debug_print.c ****     int ret;
 997              		.loc 1 371 5
 372:C:/Users/stapi/OneDrive/Desktop/GD32VW553/V1_MQTT_OK/GD32VW55X_Wifi_BLE_SDK/GD32VW55x_RELEASE_V1.0.2/MSDK/util/src\debug_print.c **** #ifndef LOG_UART
 373:C:/Users/stapi/OneDrive/Desktop/GD32VW553/V1_MQTT_OK/GD32VW55X_Wifi_BLE_SDK/GD32VW55x_RELEASE_V1.0.2/MSDK/util/src\debug_print.c ****     char out[1024], *pout = &out[0];
 374:C:/Users/stapi/OneDrive/Desktop/GD32VW553/V1_MQTT_OK/GD32VW55X_Wifi_BLE_SDK/GD32VW55x_RELEASE_V1.0.2/MSDK/util/src\debug_print.c **** #endif
 375:C:/Users/stapi/OneDrive/Desktop/GD32VW553/V1_MQTT_OK/GD32VW55X_Wifi_BLE_SDK/GD32VW55x_RELEASE_V1.0.2/MSDK/util/src\debug_print.c ****     va_list args;
 998              		.loc 1 375 5
 376:C:/Users/stapi/OneDrive/Desktop/GD32VW553/V1_MQTT_OK/GD32VW55X_Wifi_BLE_SDK/GD32VW55x_RELEASE_V1.0.2/MSDK/util/src\debug_print.c **** 
 377:C:/Users/stapi/OneDrive/Desktop/GD32VW553/V1_MQTT_OK/GD32VW55X_Wifi_BLE_SDK/GD32VW55x_RELEASE_V1.0.2/MSDK/util/src\debug_print.c ****     va_start(args, format);
 999              		.loc 1 377 5
 369:C:/Users/stapi/OneDrive/Desktop/GD32VW553/V1_MQTT_OK/GD32VW55X_Wifi_BLE_SDK/GD32VW55x_RELEASE_V1.0.2/MSDK/util/src\debug_print.c **** #if (!defined(CONFIG_PRINT_IN_SEQUENCE) | !defined(LOG_UART))
 1000              		.loc 1 369 1 is_stmt 0
 1001 0000 3971     		addi	sp,sp,-64
 1002              		.cfi_def_cfa_offset 64
 1003 0002 2ED2     		sw	a1,36(sp)
 1004 0004 32D4     		sw	a2,40(sp)
 1005 0006 36D6     		sw	a3,44(sp)
 1006              		.loc 1 377 5
 1007 0008 5010     		addi	a2,sp,36
 378:C:/Users/stapi/OneDrive/Desktop/GD32VW553/V1_MQTT_OK/GD32VW55X_Wifi_BLE_SDK/GD32VW55x_RELEASE_V1.0.2/MSDK/util/src\debug_print.c **** #ifndef LOG_UART
 379:C:/Users/stapi/OneDrive/Desktop/GD32VW553/V1_MQTT_OK/GD32VW55X_Wifi_BLE_SDK/GD32VW55x_RELEASE_V1.0.2/MSDK/util/src\debug_print.c ****     ret = print(&pout, format, args, 1024);
 380:C:/Users/stapi/OneDrive/Desktop/GD32VW553/V1_MQTT_OK/GD32VW55X_Wifi_BLE_SDK/GD32VW55x_RELEASE_V1.0.2/MSDK/util/src\debug_print.c ****     trace_console(ret, (uint8_t *)out);
 381:C:/Users/stapi/OneDrive/Desktop/GD32VW553/V1_MQTT_OK/GD32VW55X_Wifi_BLE_SDK/GD32VW55x_RELEASE_V1.0.2/MSDK/util/src\debug_print.c **** #else
 382:C:/Users/stapi/OneDrive/Desktop/GD32VW553/V1_MQTT_OK/GD32VW55X_Wifi_BLE_SDK/GD32VW55x_RELEASE_V1.0.2/MSDK/util/src\debug_print.c ****     ret = print(0, format, args, 0);
 1008              		.loc 1 382 11
 1009 000a AA85     		mv	a1,a0
 1010 000c 8146     		li	a3,0
 1011 000e 0145     		li	a0,0
 1012              	.LVL126:
 369:C:/Users/stapi/OneDrive/Desktop/GD32VW553/V1_MQTT_OK/GD32VW55X_Wifi_BLE_SDK/GD32VW55x_RELEASE_V1.0.2/MSDK/util/src\debug_print.c **** #if (!defined(CONFIG_PRINT_IN_SEQUENCE) | !defined(LOG_UART))
 1013              		.loc 1 369 1
 1014 0010 06CE     		sw	ra,28(sp)
 1015              		.cfi_offset 1, -36
 369:C:/Users/stapi/OneDrive/Desktop/GD32VW553/V1_MQTT_OK/GD32VW55X_Wifi_BLE_SDK/GD32VW55x_RELEASE_V1.0.2/MSDK/util/src\debug_print.c **** #if (!defined(CONFIG_PRINT_IN_SEQUENCE) | !defined(LOG_UART))
 1016              		.loc 1 369 1
 1017 0012 3AD8     		sw	a4,48(sp)
 1018 0014 3EDA     		sw	a5,52(sp)
 1019 0016 42DC     		sw	a6,56(sp)
 1020 0018 46DE     		sw	a7,60(sp)
 377:C:/Users/stapi/OneDrive/Desktop/GD32VW553/V1_MQTT_OK/GD32VW55X_Wifi_BLE_SDK/GD32VW55x_RELEASE_V1.0.2/MSDK/util/src\debug_print.c **** #ifndef LOG_UART
 1021              		.loc 1 377 5
 1022 001a 32C6     		sw	a2,12(sp)
 1023              		.loc 1 382 5 is_stmt 1
 1024              		.loc 1 382 11 is_stmt 0
 1025 001c 97000000 		call	print
 1025      E7800000 
 1026              	.LVL127:
 383:C:/Users/stapi/OneDrive/Desktop/GD32VW553/V1_MQTT_OK/GD32VW55X_Wifi_BLE_SDK/GD32VW55x_RELEASE_V1.0.2/MSDK/util/src\debug_print.c **** #endif
 384:C:/Users/stapi/OneDrive/Desktop/GD32VW553/V1_MQTT_OK/GD32VW55X_Wifi_BLE_SDK/GD32VW55x_RELEASE_V1.0.2/MSDK/util/src\debug_print.c ****     va_end(args);
 1027              		.loc 1 384 5 is_stmt 1
 385:C:/Users/stapi/OneDrive/Desktop/GD32VW553/V1_MQTT_OK/GD32VW55X_Wifi_BLE_SDK/GD32VW55x_RELEASE_V1.0.2/MSDK/util/src\debug_print.c **** 
 386:C:/Users/stapi/OneDrive/Desktop/GD32VW553/V1_MQTT_OK/GD32VW55X_Wifi_BLE_SDK/GD32VW55x_RELEASE_V1.0.2/MSDK/util/src\debug_print.c ****     return ret;
 1028              		.loc 1 386 5
 387:C:/Users/stapi/OneDrive/Desktop/GD32VW553/V1_MQTT_OK/GD32VW55X_Wifi_BLE_SDK/GD32VW55x_RELEASE_V1.0.2/MSDK/util/src\debug_print.c **** #else
 388:C:/Users/stapi/OneDrive/Desktop/GD32VW553/V1_MQTT_OK/GD32VW55X_Wifi_BLE_SDK/GD32VW55x_RELEASE_V1.0.2/MSDK/util/src\debug_print.c ****     char out[1024], *pout = &out[0];
 389:C:/Users/stapi/OneDrive/Desktop/GD32VW553/V1_MQTT_OK/GD32VW55X_Wifi_BLE_SDK/GD32VW55x_RELEASE_V1.0.2/MSDK/util/src\debug_print.c ****     char len = 0;
 390:C:/Users/stapi/OneDrive/Desktop/GD32VW553/V1_MQTT_OK/GD32VW55X_Wifi_BLE_SDK/GD32VW55x_RELEASE_V1.0.2/MSDK/util/src\debug_print.c ****     va_list args;
 391:C:/Users/stapi/OneDrive/Desktop/GD32VW553/V1_MQTT_OK/GD32VW55X_Wifi_BLE_SDK/GD32VW55x_RELEASE_V1.0.2/MSDK/util/src\debug_print.c ****     int cur_wp = 0;
 392:C:/Users/stapi/OneDrive/Desktop/GD32VW553/V1_MQTT_OK/GD32VW55X_Wifi_BLE_SDK/GD32VW55x_RELEASE_V1.0.2/MSDK/util/src\debug_print.c ****     int pc = 0;
 393:C:/Users/stapi/OneDrive/Desktop/GD32VW553/V1_MQTT_OK/GD32VW55X_Wifi_BLE_SDK/GD32VW55x_RELEASE_V1.0.2/MSDK/util/src\debug_print.c **** 
 394:C:/Users/stapi/OneDrive/Desktop/GD32VW553/V1_MQTT_OK/GD32VW55X_Wifi_BLE_SDK/GD32VW55x_RELEASE_V1.0.2/MSDK/util/src\debug_print.c ****     if (print_task_init == 0) {
 395:C:/Users/stapi/OneDrive/Desktop/GD32VW553/V1_MQTT_OK/GD32VW55X_Wifi_BLE_SDK/GD32VW55x_RELEASE_V1.0.2/MSDK/util/src\debug_print.c ****         sys_enter_critical();
 396:C:/Users/stapi/OneDrive/Desktop/GD32VW553/V1_MQTT_OK/GD32VW55X_Wifi_BLE_SDK/GD32VW55x_RELEASE_V1.0.2/MSDK/util/src\debug_print.c ****         if (print_task_init == 0 ) {
 397:C:/Users/stapi/OneDrive/Desktop/GD32VW553/V1_MQTT_OK/GD32VW55X_Wifi_BLE_SDK/GD32VW55x_RELEASE_V1.0.2/MSDK/util/src\debug_print.c ****             sys_sema_init(&print_sema, 0);
 398:C:/Users/stapi/OneDrive/Desktop/GD32VW553/V1_MQTT_OK/GD32VW55X_Wifi_BLE_SDK/GD32VW55x_RELEASE_V1.0.2/MSDK/util/src\debug_print.c ****             sys_task_create(NULL, (const uint8_t *)"Print", NULL, 512, 0, (OS_TASK_PRIO_IDLE + TASK
 399:C:/Users/stapi/OneDrive/Desktop/GD32VW553/V1_MQTT_OK/GD32VW55X_Wifi_BLE_SDK/GD32VW55x_RELEASE_V1.0.2/MSDK/util/src\debug_print.c ****             print_task_init = 1;
 400:C:/Users/stapi/OneDrive/Desktop/GD32VW553/V1_MQTT_OK/GD32VW55X_Wifi_BLE_SDK/GD32VW55x_RELEASE_V1.0.2/MSDK/util/src\debug_print.c ****         }
 401:C:/Users/stapi/OneDrive/Desktop/GD32VW553/V1_MQTT_OK/GD32VW55X_Wifi_BLE_SDK/GD32VW55x_RELEASE_V1.0.2/MSDK/util/src\debug_print.c ****         sys_exit_critical();
 402:C:/Users/stapi/OneDrive/Desktop/GD32VW553/V1_MQTT_OK/GD32VW55X_Wifi_BLE_SDK/GD32VW55x_RELEASE_V1.0.2/MSDK/util/src\debug_print.c ****     }
 403:C:/Users/stapi/OneDrive/Desktop/GD32VW553/V1_MQTT_OK/GD32VW55X_Wifi_BLE_SDK/GD32VW55x_RELEASE_V1.0.2/MSDK/util/src\debug_print.c **** 
 404:C:/Users/stapi/OneDrive/Desktop/GD32VW553/V1_MQTT_OK/GD32VW55X_Wifi_BLE_SDK/GD32VW55x_RELEASE_V1.0.2/MSDK/util/src\debug_print.c ****     va_start(args, format);
 405:C:/Users/stapi/OneDrive/Desktop/GD32VW553/V1_MQTT_OK/GD32VW55X_Wifi_BLE_SDK/GD32VW55x_RELEASE_V1.0.2/MSDK/util/src\debug_print.c ****     pc = print(&pout, format, args, 1024);
 406:C:/Users/stapi/OneDrive/Desktop/GD32VW553/V1_MQTT_OK/GD32VW55X_Wifi_BLE_SDK/GD32VW55x_RELEASE_V1.0.2/MSDK/util/src\debug_print.c ****     va_end(args);
 407:C:/Users/stapi/OneDrive/Desktop/GD32VW553/V1_MQTT_OK/GD32VW55X_Wifi_BLE_SDK/GD32VW55x_RELEASE_V1.0.2/MSDK/util/src\debug_print.c **** 
 408:C:/Users/stapi/OneDrive/Desktop/GD32VW553/V1_MQTT_OK/GD32VW55X_Wifi_BLE_SDK/GD32VW55x_RELEASE_V1.0.2/MSDK/util/src\debug_print.c ****     len = strlen(out);
 409:C:/Users/stapi/OneDrive/Desktop/GD32VW553/V1_MQTT_OK/GD32VW55X_Wifi_BLE_SDK/GD32VW55x_RELEASE_V1.0.2/MSDK/util/src\debug_print.c ****     if (len < (MAX_BUF_LEN - used_len)) {
 410:C:/Users/stapi/OneDrive/Desktop/GD32VW553/V1_MQTT_OK/GD32VW55X_Wifi_BLE_SDK/GD32VW55x_RELEASE_V1.0.2/MSDK/util/src\debug_print.c ****         /* Remaining print buffer is enough for this print. */
 411:C:/Users/stapi/OneDrive/Desktop/GD32VW553/V1_MQTT_OK/GD32VW55X_Wifi_BLE_SDK/GD32VW55x_RELEASE_V1.0.2/MSDK/util/src\debug_print.c ****         sys_enter_critical();
 412:C:/Users/stapi/OneDrive/Desktop/GD32VW553/V1_MQTT_OK/GD32VW55X_Wifi_BLE_SDK/GD32VW55x_RELEASE_V1.0.2/MSDK/util/src\debug_print.c ****         cur_wp = w_point;
 413:C:/Users/stapi/OneDrive/Desktop/GD32VW553/V1_MQTT_OK/GD32VW55X_Wifi_BLE_SDK/GD32VW55x_RELEASE_V1.0.2/MSDK/util/src\debug_print.c ****         used_len += len;
 414:C:/Users/stapi/OneDrive/Desktop/GD32VW553/V1_MQTT_OK/GD32VW55X_Wifi_BLE_SDK/GD32VW55x_RELEASE_V1.0.2/MSDK/util/src\debug_print.c ****         w_point += len;
 415:C:/Users/stapi/OneDrive/Desktop/GD32VW553/V1_MQTT_OK/GD32VW55X_Wifi_BLE_SDK/GD32VW55x_RELEASE_V1.0.2/MSDK/util/src\debug_print.c ****         w_point = (w_point >= MAX_BUF_LEN) ? (w_point - MAX_BUF_LEN) : w_point;
 416:C:/Users/stapi/OneDrive/Desktop/GD32VW553/V1_MQTT_OK/GD32VW55X_Wifi_BLE_SDK/GD32VW55x_RELEASE_V1.0.2/MSDK/util/src\debug_print.c ****         sys_exit_critical();
 417:C:/Users/stapi/OneDrive/Desktop/GD32VW553/V1_MQTT_OK/GD32VW55X_Wifi_BLE_SDK/GD32VW55x_RELEASE_V1.0.2/MSDK/util/src\debug_print.c **** 
 418:C:/Users/stapi/OneDrive/Desktop/GD32VW553/V1_MQTT_OK/GD32VW55X_Wifi_BLE_SDK/GD32VW55x_RELEASE_V1.0.2/MSDK/util/src\debug_print.c ****         if (cur_wp >= r_point) {
 419:C:/Users/stapi/OneDrive/Desktop/GD32VW553/V1_MQTT_OK/GD32VW55X_Wifi_BLE_SDK/GD32VW55x_RELEASE_V1.0.2/MSDK/util/src\debug_print.c ****             if ((MAX_BUF_LEN - cur_wp) >= len) {
 420:C:/Users/stapi/OneDrive/Desktop/GD32VW553/V1_MQTT_OK/GD32VW55X_Wifi_BLE_SDK/GD32VW55x_RELEASE_V1.0.2/MSDK/util/src\debug_print.c ****                 sys_memcmp(&print_buf[cur_wp], out, len);
 421:C:/Users/stapi/OneDrive/Desktop/GD32VW553/V1_MQTT_OK/GD32VW55X_Wifi_BLE_SDK/GD32VW55x_RELEASE_V1.0.2/MSDK/util/src\debug_print.c ****             } else {
 422:C:/Users/stapi/OneDrive/Desktop/GD32VW553/V1_MQTT_OK/GD32VW55X_Wifi_BLE_SDK/GD32VW55x_RELEASE_V1.0.2/MSDK/util/src\debug_print.c ****                 sys_memcmp(&print_buf[cur_wp], out, (MAX_BUF_LEN - cur_wp));
 423:C:/Users/stapi/OneDrive/Desktop/GD32VW553/V1_MQTT_OK/GD32VW55X_Wifi_BLE_SDK/GD32VW55x_RELEASE_V1.0.2/MSDK/util/src\debug_print.c ****                 sys_memcmp(&print_buf[0], &out[MAX_BUF_LEN - cur_wp], (len - (MAX_BUF_LEN - cur_wp)
 424:C:/Users/stapi/OneDrive/Desktop/GD32VW553/V1_MQTT_OK/GD32VW55X_Wifi_BLE_SDK/GD32VW55x_RELEASE_V1.0.2/MSDK/util/src\debug_print.c ****             }
 425:C:/Users/stapi/OneDrive/Desktop/GD32VW553/V1_MQTT_OK/GD32VW55X_Wifi_BLE_SDK/GD32VW55x_RELEASE_V1.0.2/MSDK/util/src\debug_print.c ****         } else {
 426:C:/Users/stapi/OneDrive/Desktop/GD32VW553/V1_MQTT_OK/GD32VW55X_Wifi_BLE_SDK/GD32VW55x_RELEASE_V1.0.2/MSDK/util/src\debug_print.c ****             sys_memcmp(&print_buf[cur_wp], out, len);
 427:C:/Users/stapi/OneDrive/Desktop/GD32VW553/V1_MQTT_OK/GD32VW55X_Wifi_BLE_SDK/GD32VW55x_RELEASE_V1.0.2/MSDK/util/src\debug_print.c ****         }
 428:C:/Users/stapi/OneDrive/Desktop/GD32VW553/V1_MQTT_OK/GD32VW55X_Wifi_BLE_SDK/GD32VW55x_RELEASE_V1.0.2/MSDK/util/src\debug_print.c ****         /* Inform print task to read. */
 429:C:/Users/stapi/OneDrive/Desktop/GD32VW553/V1_MQTT_OK/GD32VW55X_Wifi_BLE_SDK/GD32VW55x_RELEASE_V1.0.2/MSDK/util/src\debug_print.c ****         sys_sema_up(&print_sema);
 430:C:/Users/stapi/OneDrive/Desktop/GD32VW553/V1_MQTT_OK/GD32VW55X_Wifi_BLE_SDK/GD32VW55x_RELEASE_V1.0.2/MSDK/util/src\debug_print.c ****     }else{
 431:C:/Users/stapi/OneDrive/Desktop/GD32VW553/V1_MQTT_OK/GD32VW55X_Wifi_BLE_SDK/GD32VW55x_RELEASE_V1.0.2/MSDK/util/src\debug_print.c ****         /* The print buffer is full. Ignore the new message. */
 432:C:/Users/stapi/OneDrive/Desktop/GD32VW553/V1_MQTT_OK/GD32VW55X_Wifi_BLE_SDK/GD32VW55x_RELEASE_V1.0.2/MSDK/util/src\debug_print.c ****     }
 433:C:/Users/stapi/OneDrive/Desktop/GD32VW553/V1_MQTT_OK/GD32VW55X_Wifi_BLE_SDK/GD32VW55x_RELEASE_V1.0.2/MSDK/util/src\debug_print.c ****     return pc;
 434:C:/Users/stapi/OneDrive/Desktop/GD32VW553/V1_MQTT_OK/GD32VW55X_Wifi_BLE_SDK/GD32VW55x_RELEASE_V1.0.2/MSDK/util/src\debug_print.c **** #endif    // CONFIG_PRINT_IN_SEQUENCE end
 435:C:/Users/stapi/OneDrive/Desktop/GD32VW553/V1_MQTT_OK/GD32VW55X_Wifi_BLE_SDK/GD32VW55x_RELEASE_V1.0.2/MSDK/util/src\debug_print.c **** }
 1029              		.loc 1 435 1 is_stmt 0
 1030 0024 F240     		lw	ra,28(sp)
 1031              		.cfi_restore 1
 1032 0026 2161     		addi	sp,sp,64
 1033              		.cfi_def_cfa_offset 0
 1034 0028 8280     		jr	ra
 1035              		.cfi_endproc
 1036              	.LFE371:
 1038              		.section	.text.co_snprintf,"ax",@progbits
 1039              		.align	1
 1040              		.globl	co_snprintf
 1042              	co_snprintf:
 1043              	.LFB372:
 436:C:/Users/stapi/OneDrive/Desktop/GD32VW553/V1_MQTT_OK/GD32VW55X_Wifi_BLE_SDK/GD32VW55x_RELEASE_V1.0.2/MSDK/util/src\debug_print.c **** 
 437:C:/Users/stapi/OneDrive/Desktop/GD32VW553/V1_MQTT_OK/GD32VW55X_Wifi_BLE_SDK/GD32VW55x_RELEASE_V1.0.2/MSDK/util/src\debug_print.c **** int co_snprintf(char *out, int space, const char *format, ...)
 438:C:/Users/stapi/OneDrive/Desktop/GD32VW553/V1_MQTT_OK/GD32VW55X_Wifi_BLE_SDK/GD32VW55x_RELEASE_V1.0.2/MSDK/util/src\debug_print.c **** {
 1044              		.loc 1 438 1 is_stmt 1
 1045              		.cfi_startproc
 1046              	.LVL128:
 439:C:/Users/stapi/OneDrive/Desktop/GD32VW553/V1_MQTT_OK/GD32VW55X_Wifi_BLE_SDK/GD32VW55x_RELEASE_V1.0.2/MSDK/util/src\debug_print.c ****     int ret = 0;
 1047              		.loc 1 439 5
 440:C:/Users/stapi/OneDrive/Desktop/GD32VW553/V1_MQTT_OK/GD32VW55X_Wifi_BLE_SDK/GD32VW55x_RELEASE_V1.0.2/MSDK/util/src\debug_print.c ****     if (out) {
 1048              		.loc 1 440 5
 438:C:/Users/stapi/OneDrive/Desktop/GD32VW553/V1_MQTT_OK/GD32VW55X_Wifi_BLE_SDK/GD32VW55x_RELEASE_V1.0.2/MSDK/util/src\debug_print.c ****     int ret = 0;
 1049              		.loc 1 438 1 is_stmt 0
 1050 0000 5D71     		addi	sp,sp,-80
 1051              		.cfi_def_cfa_offset 80
 1052 0002 06D6     		sw	ra,44(sp)
 1053              		.cfi_offset 1, -36
 438:C:/Users/stapi/OneDrive/Desktop/GD32VW553/V1_MQTT_OK/GD32VW55X_Wifi_BLE_SDK/GD32VW55x_RELEASE_V1.0.2/MSDK/util/src\debug_print.c ****     int ret = 0;
 1054              		.loc 1 438 1
 1055 0004 2AC6     		sw	a0,12(sp)
 1056 0006 36DE     		sw	a3,60(sp)
 1057 0008 BAC0     		sw	a4,64(sp)
 1058 000a BEC2     		sw	a5,68(sp)
 1059 000c C2C4     		sw	a6,72(sp)
 1060 000e C6C6     		sw	a7,76(sp)
 1061              		.loc 1 440 8
 1062 0010 11CD     		beq	a0,zero,.L101
 1063 0012 2E83     		mv	t1,a1
 1064              	.LBB28:
 441:C:/Users/stapi/OneDrive/Desktop/GD32VW553/V1_MQTT_OK/GD32VW55X_Wifi_BLE_SDK/GD32VW55x_RELEASE_V1.0.2/MSDK/util/src\debug_print.c ****         va_list args;
 442:C:/Users/stapi/OneDrive/Desktop/GD32VW553/V1_MQTT_OK/GD32VW55X_Wifi_BLE_SDK/GD32VW55x_RELEASE_V1.0.2/MSDK/util/src\debug_print.c **** 
 443:C:/Users/stapi/OneDrive/Desktop/GD32VW553/V1_MQTT_OK/GD32VW55X_Wifi_BLE_SDK/GD32VW55x_RELEASE_V1.0.2/MSDK/util/src\debug_print.c ****         va_start(args, format);
 444:C:/Users/stapi/OneDrive/Desktop/GD32VW553/V1_MQTT_OK/GD32VW55X_Wifi_BLE_SDK/GD32VW55x_RELEASE_V1.0.2/MSDK/util/src\debug_print.c ****         ret = print(&out, format, args, space);
 1065              		.loc 1 444 15
 1066 0014 9A86     		mv	a3,t1
 1067 0016 B285     		mv	a1,a2
 1068              	.LVL129:
 441:C:/Users/stapi/OneDrive/Desktop/GD32VW553/V1_MQTT_OK/GD32VW55X_Wifi_BLE_SDK/GD32VW55x_RELEASE_V1.0.2/MSDK/util/src\debug_print.c ****         va_list args;
 1069              		.loc 1 441 9 is_stmt 1
 443:C:/Users/stapi/OneDrive/Desktop/GD32VW553/V1_MQTT_OK/GD32VW55X_Wifi_BLE_SDK/GD32VW55x_RELEASE_V1.0.2/MSDK/util/src\debug_print.c ****         ret = print(&out, format, args, space);
 1070              		.loc 1 443 9
 1071              		.loc 1 444 15 is_stmt 0
 1072 0018 6800     		addi	a0,sp,12
 1073              	.LVL130:
 443:C:/Users/stapi/OneDrive/Desktop/GD32VW553/V1_MQTT_OK/GD32VW55X_Wifi_BLE_SDK/GD32VW55x_RELEASE_V1.0.2/MSDK/util/src\debug_print.c ****         ret = print(&out, format, args, space);
 1074              		.loc 1 443 9
 1075 001a 7018     		addi	a2,sp,60
 1076              	.LVL131:
 1077 001c 32CE     		sw	a2,28(sp)
 1078              		.loc 1 444 9 is_stmt 1
 1079              		.loc 1 444 15 is_stmt 0
 1080 001e 97000000 		call	print
 1080      E7800000 
 1081              	.LVL132:
 445:C:/Users/stapi/OneDrive/Desktop/GD32VW553/V1_MQTT_OK/GD32VW55X_Wifi_BLE_SDK/GD32VW55x_RELEASE_V1.0.2/MSDK/util/src\debug_print.c ****         va_end(args);
 1082              		.loc 1 445 9 is_stmt 1
 1083              	.L99:
 1084              	.LBE28:
 446:C:/Users/stapi/OneDrive/Desktop/GD32VW553/V1_MQTT_OK/GD32VW55X_Wifi_BLE_SDK/GD32VW55x_RELEASE_V1.0.2/MSDK/util/src\debug_print.c ****     }
 447:C:/Users/stapi/OneDrive/Desktop/GD32VW553/V1_MQTT_OK/GD32VW55X_Wifi_BLE_SDK/GD32VW55x_RELEASE_V1.0.2/MSDK/util/src\debug_print.c **** 
 448:C:/Users/stapi/OneDrive/Desktop/GD32VW553/V1_MQTT_OK/GD32VW55X_Wifi_BLE_SDK/GD32VW55x_RELEASE_V1.0.2/MSDK/util/src\debug_print.c ****     return ret;
 449:C:/Users/stapi/OneDrive/Desktop/GD32VW553/V1_MQTT_OK/GD32VW55X_Wifi_BLE_SDK/GD32VW55x_RELEASE_V1.0.2/MSDK/util/src\debug_print.c **** }
 1085              		.loc 1 449 1 is_stmt 0
 1086 0026 B250     		lw	ra,44(sp)
 1087              		.cfi_remember_state
 1088              		.cfi_restore 1
 1089 0028 6161     		addi	sp,sp,80
 1090              		.cfi_def_cfa_offset 0
 1091 002a 8280     		jr	ra
 1092              	.LVL133:
 1093              	.L101:
 1094              		.cfi_restore_state
 439:C:/Users/stapi/OneDrive/Desktop/GD32VW553/V1_MQTT_OK/GD32VW55X_Wifi_BLE_SDK/GD32VW55x_RELEASE_V1.0.2/MSDK/util/src\debug_print.c ****     if (out) {
 1095              		.loc 1 439 9
 1096 002c 0145     		li	a0,0
 1097              	.LVL134:
 448:C:/Users/stapi/OneDrive/Desktop/GD32VW553/V1_MQTT_OK/GD32VW55X_Wifi_BLE_SDK/GD32VW55x_RELEASE_V1.0.2/MSDK/util/src\debug_print.c **** }
 1098              		.loc 1 448 5 is_stmt 1
 448:C:/Users/stapi/OneDrive/Desktop/GD32VW553/V1_MQTT_OK/GD32VW55X_Wifi_BLE_SDK/GD32VW55x_RELEASE_V1.0.2/MSDK/util/src\debug_print.c **** }
 1099              		.loc 1 448 12 is_stmt 0
 1100 002e E5BF     		j	.L99
 1101              		.cfi_endproc
 1102              	.LFE372:
 1104              		.section	.rodata.print_buffer.str1.4,"aMS",@progbits,1
 1105              		.align	2
 1106              	.LC1:
 1107 0000 25303878 		.string	"%08x:"
 1107      3A00
 1108 0006 0000     		.align	2
 1109              	.LC2:
 1110 0008 20253038 		.string	" %08x"
 1110      7800
 1111 000e 0000     		.align	2
 1112              	.LC3:
 1113 0010 20253034 		.string	" %04x"
 1113      7800
 1114 0016 0000     		.align	2
 1115              	.LC4:
 1116 0018 20253032 		.string	" %02x"
 1116      7800
 1117              		.section	.text.print_buffer,"ax",@progbits
 1118              		.align	1
 1119              		.globl	print_buffer
 1121              	print_buffer:
 1122              	.LFB373:
 450:C:/Users/stapi/OneDrive/Desktop/GD32VW553/V1_MQTT_OK/GD32VW55X_Wifi_BLE_SDK/GD32VW55x_RELEASE_V1.0.2/MSDK/util/src\debug_print.c **** 
 451:C:/Users/stapi/OneDrive/Desktop/GD32VW553/V1_MQTT_OK/GD32VW55X_Wifi_BLE_SDK/GD32VW55x_RELEASE_V1.0.2/MSDK/util/src\debug_print.c **** #define MAX_LINE_LENGTH_BYTES (64)
 452:C:/Users/stapi/OneDrive/Desktop/GD32VW553/V1_MQTT_OK/GD32VW55X_Wifi_BLE_SDK/GD32VW55x_RELEASE_V1.0.2/MSDK/util/src\debug_print.c **** #define DEFAULT_LINE_LENGTH_BYTES (16)
 453:C:/Users/stapi/OneDrive/Desktop/GD32VW553/V1_MQTT_OK/GD32VW55X_Wifi_BLE_SDK/GD32VW55x_RELEASE_V1.0.2/MSDK/util/src\debug_print.c **** int print_buffer(unsigned long addr, void *data, unsigned long width, unsigned long count, unsigned
 454:C:/Users/stapi/OneDrive/Desktop/GD32VW553/V1_MQTT_OK/GD32VW55X_Wifi_BLE_SDK/GD32VW55x_RELEASE_V1.0.2/MSDK/util/src\debug_print.c **** {
 1123              		.loc 1 454 1 is_stmt 1
 1124              		.cfi_startproc
 1125              	.LVL135:
 1126 0000 17030000 		call	t0,__riscv_save_12
 1126      E7020300 
 1127              		.cfi_offset 27, -52
 1128              		.cfi_offset 26, -48
 1129              		.cfi_offset 25, -44
 1130              		.cfi_offset 24, -40
 1131              		.cfi_offset 23, -36
 1132              		.cfi_offset 22, -32
 1133              		.cfi_offset 21, -28
 1134              		.cfi_offset 20, -24
 1135              		.cfi_offset 19, -20
 1136              		.cfi_offset 18, -16
 1137              		.cfi_offset 9, -12
 1138              		.cfi_offset 8, -8
 1139              		.cfi_offset 1, -4
 1140              		.cfi_def_cfa_offset 64
 455:C:/Users/stapi/OneDrive/Desktop/GD32VW553/V1_MQTT_OK/GD32VW55X_Wifi_BLE_SDK/GD32VW55x_RELEASE_V1.0.2/MSDK/util/src\debug_print.c **** #ifdef LOG_UART
 456:C:/Users/stapi/OneDrive/Desktop/GD32VW553/V1_MQTT_OK/GD32VW55X_Wifi_BLE_SDK/GD32VW55x_RELEASE_V1.0.2/MSDK/util/src\debug_print.c ****     unsigned char linebuf[MAX_LINE_LENGTH_BYTES];
 1141              		.loc 1 456 5
 457:C:/Users/stapi/OneDrive/Desktop/GD32VW553/V1_MQTT_OK/GD32VW55X_Wifi_BLE_SDK/GD32VW55x_RELEASE_V1.0.2/MSDK/util/src\debug_print.c ****     unsigned long *uip = (void *)linebuf;
 1142              		.loc 1 457 5
 454:C:/Users/stapi/OneDrive/Desktop/GD32VW553/V1_MQTT_OK/GD32VW55X_Wifi_BLE_SDK/GD32VW55x_RELEASE_V1.0.2/MSDK/util/src\debug_print.c **** #ifdef LOG_UART
 1143              		.loc 1 454 1 is_stmt 0
 1144 0008 B684     		mv	s1,a3
 458:C:/Users/stapi/OneDrive/Desktop/GD32VW553/V1_MQTT_OK/GD32VW55X_Wifi_BLE_SDK/GD32VW55x_RELEASE_V1.0.2/MSDK/util/src\debug_print.c ****     unsigned short *usp = (void *)linebuf;
 459:C:/Users/stapi/OneDrive/Desktop/GD32VW553/V1_MQTT_OK/GD32VW55X_Wifi_BLE_SDK/GD32VW55x_RELEASE_V1.0.2/MSDK/util/src\debug_print.c ****     unsigned char *ucp = (void *)linebuf;
 460:C:/Users/stapi/OneDrive/Desktop/GD32VW553/V1_MQTT_OK/GD32VW55X_Wifi_BLE_SDK/GD32VW55x_RELEASE_V1.0.2/MSDK/util/src\debug_print.c ****     unsigned char *pdata = (unsigned char *)data;
 461:C:/Users/stapi/OneDrive/Desktop/GD32VW553/V1_MQTT_OK/GD32VW55X_Wifi_BLE_SDK/GD32VW55x_RELEASE_V1.0.2/MSDK/util/src\debug_print.c ****     int i;
 462:C:/Users/stapi/OneDrive/Desktop/GD32VW553/V1_MQTT_OK/GD32VW55X_Wifi_BLE_SDK/GD32VW55x_RELEASE_V1.0.2/MSDK/util/src\debug_print.c **** 
 463:C:/Users/stapi/OneDrive/Desktop/GD32VW553/V1_MQTT_OK/GD32VW55X_Wifi_BLE_SDK/GD32VW55x_RELEASE_V1.0.2/MSDK/util/src\debug_print.c ****     if (linelen*width > MAX_LINE_LENGTH_BYTES)
 1145              		.loc 1 463 16
 1146 000a B306C702 		mul	a3,a4,a2
 1147              	.LVL136:
 1148              		.loc 1 463 8
 1149 000e 93070004 		li	a5,64
 454:C:/Users/stapi/OneDrive/Desktop/GD32VW553/V1_MQTT_OK/GD32VW55X_Wifi_BLE_SDK/GD32VW55x_RELEASE_V1.0.2/MSDK/util/src\debug_print.c **** #ifdef LOG_UART
 1150              		.loc 1 454 1
 1151 0012 3971     		addi	sp,sp,-64
 1152              		.cfi_def_cfa_offset 128
 1153              	.LVL137:
 458:C:/Users/stapi/OneDrive/Desktop/GD32VW553/V1_MQTT_OK/GD32VW55X_Wifi_BLE_SDK/GD32VW55x_RELEASE_V1.0.2/MSDK/util/src\debug_print.c ****     unsigned short *usp = (void *)linebuf;
 1154              		.loc 1 458 5 is_stmt 1
 459:C:/Users/stapi/OneDrive/Desktop/GD32VW553/V1_MQTT_OK/GD32VW55X_Wifi_BLE_SDK/GD32VW55x_RELEASE_V1.0.2/MSDK/util/src\debug_print.c ****     unsigned char *pdata = (unsigned char *)data;
 1155              		.loc 1 459 5
 460:C:/Users/stapi/OneDrive/Desktop/GD32VW553/V1_MQTT_OK/GD32VW55X_Wifi_BLE_SDK/GD32VW55x_RELEASE_V1.0.2/MSDK/util/src\debug_print.c ****     int i;
 1156              		.loc 1 460 5
 454:C:/Users/stapi/OneDrive/Desktop/GD32VW553/V1_MQTT_OK/GD32VW55X_Wifi_BLE_SDK/GD32VW55x_RELEASE_V1.0.2/MSDK/util/src\debug_print.c **** #ifdef LOG_UART
 1157              		.loc 1 454 1 is_stmt 0
 1158 0014 2A89     		mv	s2,a0
 1159 0016 AE89     		mv	s3,a1
 1160              	.LVL138:
 461:C:/Users/stapi/OneDrive/Desktop/GD32VW553/V1_MQTT_OK/GD32VW55X_Wifi_BLE_SDK/GD32VW55x_RELEASE_V1.0.2/MSDK/util/src\debug_print.c **** 
 1161              		.loc 1 461 5 is_stmt 1
 1162              		.loc 1 463 5
 454:C:/Users/stapi/OneDrive/Desktop/GD32VW553/V1_MQTT_OK/GD32VW55X_Wifi_BLE_SDK/GD32VW55x_RELEASE_V1.0.2/MSDK/util/src\debug_print.c **** #ifdef LOG_UART
 1163              		.loc 1 454 1 is_stmt 0
 1164 0018 3284     		mv	s0,a2
 1165 001a 3A8B     		mv	s6,a4
 1166              		.loc 1 463 8
 1167 001c 63F4D700 		bleu	a3,a5,.L104
 464:C:/Users/stapi/OneDrive/Desktop/GD32VW553/V1_MQTT_OK/GD32VW55X_Wifi_BLE_SDK/GD32VW55x_RELEASE_V1.0.2/MSDK/util/src\debug_print.c ****         linelen = MAX_LINE_LENGTH_BYTES / width;
 1168              		.loc 1 464 9 is_stmt 1
 1169              		.loc 1 464 17 is_stmt 0
 1170 0020 33DBC702 		divu	s6,a5,a2
 1171              	.LVL139:
 1172              	.L104:
 465:C:/Users/stapi/OneDrive/Desktop/GD32VW553/V1_MQTT_OK/GD32VW55X_Wifi_BLE_SDK/GD32VW55x_RELEASE_V1.0.2/MSDK/util/src\debug_print.c ****     if (linelen < 1)
 1173              		.loc 1 465 5 is_stmt 1
 1174              		.loc 1 465 8 is_stmt 0
 1175 0024 63150B00 		bne	s6,zero,.L105
 466:C:/Users/stapi/OneDrive/Desktop/GD32VW553/V1_MQTT_OK/GD32VW55X_Wifi_BLE_SDK/GD32VW55x_RELEASE_V1.0.2/MSDK/util/src\debug_print.c ****         linelen = DEFAULT_LINE_LENGTH_BYTES / width;
 1176              		.loc 1 466 9 is_stmt 1
 1177              		.loc 1 466 17 is_stmt 0
 1178 0028 4147     		li	a4,16
 1179 002a 335B8702 		divu	s6,a4,s0
 1180              	.LVL140:
 1181              	.L105:
 467:C:/Users/stapi/OneDrive/Desktop/GD32VW553/V1_MQTT_OK/GD32VW55X_Wifi_BLE_SDK/GD32VW55x_RELEASE_V1.0.2/MSDK/util/src\debug_print.c **** 
 468:C:/Users/stapi/OneDrive/Desktop/GD32VW553/V1_MQTT_OK/GD32VW55X_Wifi_BLE_SDK/GD32VW55x_RELEASE_V1.0.2/MSDK/util/src\debug_print.c ****       while (count) {
 469:C:/Users/stapi/OneDrive/Desktop/GD32VW553/V1_MQTT_OK/GD32VW55X_Wifi_BLE_SDK/GD32VW55x_RELEASE_V1.0.2/MSDK/util/src\debug_print.c ****         co_printf("%08x:", addr);
 470:C:/Users/stapi/OneDrive/Desktop/GD32VW553/V1_MQTT_OK/GD32VW55X_Wifi_BLE_SDK/GD32VW55x_RELEASE_V1.0.2/MSDK/util/src\debug_print.c **** 
 471:C:/Users/stapi/OneDrive/Desktop/GD32VW553/V1_MQTT_OK/GD32VW55X_Wifi_BLE_SDK/GD32VW55x_RELEASE_V1.0.2/MSDK/util/src\debug_print.c ****         /* check for overflow condition */
 472:C:/Users/stapi/OneDrive/Desktop/GD32VW553/V1_MQTT_OK/GD32VW55X_Wifi_BLE_SDK/GD32VW55x_RELEASE_V1.0.2/MSDK/util/src\debug_print.c ****         if (count < linelen)
 473:C:/Users/stapi/OneDrive/Desktop/GD32VW553/V1_MQTT_OK/GD32VW55X_Wifi_BLE_SDK/GD32VW55x_RELEASE_V1.0.2/MSDK/util/src\debug_print.c ****             linelen = count;
 474:C:/Users/stapi/OneDrive/Desktop/GD32VW553/V1_MQTT_OK/GD32VW55X_Wifi_BLE_SDK/GD32VW55x_RELEASE_V1.0.2/MSDK/util/src\debug_print.c **** 
 475:C:/Users/stapi/OneDrive/Desktop/GD32VW553/V1_MQTT_OK/GD32VW55X_Wifi_BLE_SDK/GD32VW55x_RELEASE_V1.0.2/MSDK/util/src\debug_print.c ****         /* Copy from memory into linebuf and print hex values */
 476:C:/Users/stapi/OneDrive/Desktop/GD32VW553/V1_MQTT_OK/GD32VW55X_Wifi_BLE_SDK/GD32VW55x_RELEASE_V1.0.2/MSDK/util/src\debug_print.c ****         for (i = 0; i < linelen; i++) {
 477:C:/Users/stapi/OneDrive/Desktop/GD32VW553/V1_MQTT_OK/GD32VW55X_Wifi_BLE_SDK/GD32VW55x_RELEASE_V1.0.2/MSDK/util/src\debug_print.c ****             if (width == 4) {
 478:C:/Users/stapi/OneDrive/Desktop/GD32VW553/V1_MQTT_OK/GD32VW55X_Wifi_BLE_SDK/GD32VW55x_RELEASE_V1.0.2/MSDK/util/src\debug_print.c ****                 uip[i] = *(volatile unsigned long *)pdata;
 479:C:/Users/stapi/OneDrive/Desktop/GD32VW553/V1_MQTT_OK/GD32VW55X_Wifi_BLE_SDK/GD32VW55x_RELEASE_V1.0.2/MSDK/util/src\debug_print.c ****                 co_printf(" %08x", uip[i]);
 1182              		.loc 1 479 17
 1183 002e B70C0000 		lui	s9,%hi(.LC2)
 1184              	.LVL141:
 1185              	.L106:
 468:C:/Users/stapi/OneDrive/Desktop/GD32VW553/V1_MQTT_OK/GD32VW55X_Wifi_BLE_SDK/GD32VW55x_RELEASE_V1.0.2/MSDK/util/src\debug_print.c ****         co_printf("%08x:", addr);
 1186              		.loc 1 468 13 is_stmt 1
 1187 0032 99E4     		bne	s1,zero,.L112
 480:C:/Users/stapi/OneDrive/Desktop/GD32VW553/V1_MQTT_OK/GD32VW55X_Wifi_BLE_SDK/GD32VW55x_RELEASE_V1.0.2/MSDK/util/src\debug_print.c ****             } else if (width == 2) {
 481:C:/Users/stapi/OneDrive/Desktop/GD32VW553/V1_MQTT_OK/GD32VW55X_Wifi_BLE_SDK/GD32VW55x_RELEASE_V1.0.2/MSDK/util/src\debug_print.c ****                 usp[i] = *(volatile unsigned short *)pdata;
 482:C:/Users/stapi/OneDrive/Desktop/GD32VW553/V1_MQTT_OK/GD32VW55X_Wifi_BLE_SDK/GD32VW55x_RELEASE_V1.0.2/MSDK/util/src\debug_print.c ****                 co_printf(" %04x", usp[i]);
 483:C:/Users/stapi/OneDrive/Desktop/GD32VW553/V1_MQTT_OK/GD32VW55X_Wifi_BLE_SDK/GD32VW55x_RELEASE_V1.0.2/MSDK/util/src\debug_print.c ****             } else {
 484:C:/Users/stapi/OneDrive/Desktop/GD32VW553/V1_MQTT_OK/GD32VW55X_Wifi_BLE_SDK/GD32VW55x_RELEASE_V1.0.2/MSDK/util/src\debug_print.c ****                 ucp[i] = *(volatile unsigned char *)pdata;
 485:C:/Users/stapi/OneDrive/Desktop/GD32VW553/V1_MQTT_OK/GD32VW55X_Wifi_BLE_SDK/GD32VW55x_RELEASE_V1.0.2/MSDK/util/src\debug_print.c ****                 co_printf(" %02x", ucp[i]);
 486:C:/Users/stapi/OneDrive/Desktop/GD32VW553/V1_MQTT_OK/GD32VW55X_Wifi_BLE_SDK/GD32VW55x_RELEASE_V1.0.2/MSDK/util/src\debug_print.c ****             }
 487:C:/Users/stapi/OneDrive/Desktop/GD32VW553/V1_MQTT_OK/GD32VW55X_Wifi_BLE_SDK/GD32VW55x_RELEASE_V1.0.2/MSDK/util/src\debug_print.c ****             pdata += width;
 488:C:/Users/stapi/OneDrive/Desktop/GD32VW553/V1_MQTT_OK/GD32VW55X_Wifi_BLE_SDK/GD32VW55x_RELEASE_V1.0.2/MSDK/util/src\debug_print.c ****         }
 489:C:/Users/stapi/OneDrive/Desktop/GD32VW553/V1_MQTT_OK/GD32VW55X_Wifi_BLE_SDK/GD32VW55x_RELEASE_V1.0.2/MSDK/util/src\debug_print.c **** 
 490:C:/Users/stapi/OneDrive/Desktop/GD32VW553/V1_MQTT_OK/GD32VW55X_Wifi_BLE_SDK/GD32VW55x_RELEASE_V1.0.2/MSDK/util/src\debug_print.c **** #if 0
 491:C:/Users/stapi/OneDrive/Desktop/GD32VW553/V1_MQTT_OK/GD32VW55X_Wifi_BLE_SDK/GD32VW55x_RELEASE_V1.0.2/MSDK/util/src\debug_print.c ****         /* Print data in ASCII characters */
 492:C:/Users/stapi/OneDrive/Desktop/GD32VW553/V1_MQTT_OK/GD32VW55X_Wifi_BLE_SDK/GD32VW55x_RELEASE_V1.0.2/MSDK/util/src\debug_print.c ****         prints(NULL, "    ", 0, 0);
 493:C:/Users/stapi/OneDrive/Desktop/GD32VW553/V1_MQTT_OK/GD32VW55X_Wifi_BLE_SDK/GD32VW55x_RELEASE_V1.0.2/MSDK/util/src\debug_print.c ****         for (i = 0; i < linelen * width; i++)
 494:C:/Users/stapi/OneDrive/Desktop/GD32VW553/V1_MQTT_OK/GD32VW55X_Wifi_BLE_SDK/GD32VW55x_RELEASE_V1.0.2/MSDK/util/src\debug_print.c ****             printchar(NULL, isprint(ucp[i]) && (ucp[i] < 0x80) ? ucp[i] : '.');
 495:C:/Users/stapi/OneDrive/Desktop/GD32VW553/V1_MQTT_OK/GD32VW55X_Wifi_BLE_SDK/GD32VW55x_RELEASE_V1.0.2/MSDK/util/src\debug_print.c **** #endif
 496:C:/Users/stapi/OneDrive/Desktop/GD32VW553/V1_MQTT_OK/GD32VW55X_Wifi_BLE_SDK/GD32VW55x_RELEASE_V1.0.2/MSDK/util/src\debug_print.c **** 
 497:C:/Users/stapi/OneDrive/Desktop/GD32VW553/V1_MQTT_OK/GD32VW55X_Wifi_BLE_SDK/GD32VW55x_RELEASE_V1.0.2/MSDK/util/src\debug_print.c ****         printchar(NULL, '\n', 0);
 498:C:/Users/stapi/OneDrive/Desktop/GD32VW553/V1_MQTT_OK/GD32VW55X_Wifi_BLE_SDK/GD32VW55x_RELEASE_V1.0.2/MSDK/util/src\debug_print.c **** 
 499:C:/Users/stapi/OneDrive/Desktop/GD32VW553/V1_MQTT_OK/GD32VW55X_Wifi_BLE_SDK/GD32VW55x_RELEASE_V1.0.2/MSDK/util/src\debug_print.c ****         /* update references */
 500:C:/Users/stapi/OneDrive/Desktop/GD32VW553/V1_MQTT_OK/GD32VW55X_Wifi_BLE_SDK/GD32VW55x_RELEASE_V1.0.2/MSDK/util/src\debug_print.c ****         addr += linelen * width;
 501:C:/Users/stapi/OneDrive/Desktop/GD32VW553/V1_MQTT_OK/GD32VW55X_Wifi_BLE_SDK/GD32VW55x_RELEASE_V1.0.2/MSDK/util/src\debug_print.c ****         count -= linelen;
 502:C:/Users/stapi/OneDrive/Desktop/GD32VW553/V1_MQTT_OK/GD32VW55X_Wifi_BLE_SDK/GD32VW55x_RELEASE_V1.0.2/MSDK/util/src\debug_print.c ****     }
 503:C:/Users/stapi/OneDrive/Desktop/GD32VW553/V1_MQTT_OK/GD32VW55X_Wifi_BLE_SDK/GD32VW55x_RELEASE_V1.0.2/MSDK/util/src\debug_print.c **** #else
 504:C:/Users/stapi/OneDrive/Desktop/GD32VW553/V1_MQTT_OK/GD32VW55X_Wifi_BLE_SDK/GD32VW55x_RELEASE_V1.0.2/MSDK/util/src\debug_print.c ****     char out[512], *pout = &out[0];
 505:C:/Users/stapi/OneDrive/Desktop/GD32VW553/V1_MQTT_OK/GD32VW55X_Wifi_BLE_SDK/GD32VW55x_RELEASE_V1.0.2/MSDK/util/src\debug_print.c ****     unsigned char *pdata = (unsigned char *)data;
 506:C:/Users/stapi/OneDrive/Desktop/GD32VW553/V1_MQTT_OK/GD32VW55X_Wifi_BLE_SDK/GD32VW55x_RELEASE_V1.0.2/MSDK/util/src\debug_print.c ****     int i, space;
 507:C:/Users/stapi/OneDrive/Desktop/GD32VW553/V1_MQTT_OK/GD32VW55X_Wifi_BLE_SDK/GD32VW55x_RELEASE_V1.0.2/MSDK/util/src\debug_print.c ****     int ret = 0;
 508:C:/Users/stapi/OneDrive/Desktop/GD32VW553/V1_MQTT_OK/GD32VW55X_Wifi_BLE_SDK/GD32VW55x_RELEASE_V1.0.2/MSDK/util/src\debug_print.c **** 
 509:C:/Users/stapi/OneDrive/Desktop/GD32VW553/V1_MQTT_OK/GD32VW55X_Wifi_BLE_SDK/GD32VW55x_RELEASE_V1.0.2/MSDK/util/src\debug_print.c ****     if ((linelen * width) > MAX_LINE_LENGTH_BYTES)
 510:C:/Users/stapi/OneDrive/Desktop/GD32VW553/V1_MQTT_OK/GD32VW55X_Wifi_BLE_SDK/GD32VW55x_RELEASE_V1.0.2/MSDK/util/src\debug_print.c ****         linelen = MAX_LINE_LENGTH_BYTES / width;
 511:C:/Users/stapi/OneDrive/Desktop/GD32VW553/V1_MQTT_OK/GD32VW55X_Wifi_BLE_SDK/GD32VW55x_RELEASE_V1.0.2/MSDK/util/src\debug_print.c ****     if (linelen < 1)
 512:C:/Users/stapi/OneDrive/Desktop/GD32VW553/V1_MQTT_OK/GD32VW55X_Wifi_BLE_SDK/GD32VW55x_RELEASE_V1.0.2/MSDK/util/src\debug_print.c ****         linelen = DEFAULT_LINE_LENGTH_BYTES / width;
 513:C:/Users/stapi/OneDrive/Desktop/GD32VW553/V1_MQTT_OK/GD32VW55X_Wifi_BLE_SDK/GD32VW55x_RELEASE_V1.0.2/MSDK/util/src\debug_print.c **** 
 514:C:/Users/stapi/OneDrive/Desktop/GD32VW553/V1_MQTT_OK/GD32VW55X_Wifi_BLE_SDK/GD32VW55x_RELEASE_V1.0.2/MSDK/util/src\debug_print.c **** 
 515:C:/Users/stapi/OneDrive/Desktop/GD32VW553/V1_MQTT_OK/GD32VW55X_Wifi_BLE_SDK/GD32VW55x_RELEASE_V1.0.2/MSDK/util/src\debug_print.c ****       while (count) {
 516:C:/Users/stapi/OneDrive/Desktop/GD32VW553/V1_MQTT_OK/GD32VW55X_Wifi_BLE_SDK/GD32VW55x_RELEASE_V1.0.2/MSDK/util/src\debug_print.c ****         pout = &out[0];
 517:C:/Users/stapi/OneDrive/Desktop/GD32VW553/V1_MQTT_OK/GD32VW55X_Wifi_BLE_SDK/GD32VW55x_RELEASE_V1.0.2/MSDK/util/src\debug_print.c ****         space = 512 - 1;
 518:C:/Users/stapi/OneDrive/Desktop/GD32VW553/V1_MQTT_OK/GD32VW55X_Wifi_BLE_SDK/GD32VW55x_RELEASE_V1.0.2/MSDK/util/src\debug_print.c **** 
 519:C:/Users/stapi/OneDrive/Desktop/GD32VW553/V1_MQTT_OK/GD32VW55X_Wifi_BLE_SDK/GD32VW55x_RELEASE_V1.0.2/MSDK/util/src\debug_print.c ****         ret = co_snprintf(pout, space, "%08x:", addr);
 520:C:/Users/stapi/OneDrive/Desktop/GD32VW553/V1_MQTT_OK/GD32VW55X_Wifi_BLE_SDK/GD32VW55x_RELEASE_V1.0.2/MSDK/util/src\debug_print.c ****         space -= ret;
 521:C:/Users/stapi/OneDrive/Desktop/GD32VW553/V1_MQTT_OK/GD32VW55X_Wifi_BLE_SDK/GD32VW55x_RELEASE_V1.0.2/MSDK/util/src\debug_print.c ****         pout += ret;
 522:C:/Users/stapi/OneDrive/Desktop/GD32VW553/V1_MQTT_OK/GD32VW55X_Wifi_BLE_SDK/GD32VW55x_RELEASE_V1.0.2/MSDK/util/src\debug_print.c **** 
 523:C:/Users/stapi/OneDrive/Desktop/GD32VW553/V1_MQTT_OK/GD32VW55X_Wifi_BLE_SDK/GD32VW55x_RELEASE_V1.0.2/MSDK/util/src\debug_print.c ****         /* check for overflow condition */
 524:C:/Users/stapi/OneDrive/Desktop/GD32VW553/V1_MQTT_OK/GD32VW55X_Wifi_BLE_SDK/GD32VW55x_RELEASE_V1.0.2/MSDK/util/src\debug_print.c ****         if (count < linelen)
 525:C:/Users/stapi/OneDrive/Desktop/GD32VW553/V1_MQTT_OK/GD32VW55X_Wifi_BLE_SDK/GD32VW55x_RELEASE_V1.0.2/MSDK/util/src\debug_print.c ****             linelen = count;
 526:C:/Users/stapi/OneDrive/Desktop/GD32VW553/V1_MQTT_OK/GD32VW55X_Wifi_BLE_SDK/GD32VW55x_RELEASE_V1.0.2/MSDK/util/src\debug_print.c **** 
 527:C:/Users/stapi/OneDrive/Desktop/GD32VW553/V1_MQTT_OK/GD32VW55X_Wifi_BLE_SDK/GD32VW55x_RELEASE_V1.0.2/MSDK/util/src\debug_print.c ****         /* Copy from memory into linebuf and print hex values */
 528:C:/Users/stapi/OneDrive/Desktop/GD32VW553/V1_MQTT_OK/GD32VW55X_Wifi_BLE_SDK/GD32VW55x_RELEASE_V1.0.2/MSDK/util/src\debug_print.c ****         for (i = 0; i < linelen; i++) {
 529:C:/Users/stapi/OneDrive/Desktop/GD32VW553/V1_MQTT_OK/GD32VW55X_Wifi_BLE_SDK/GD32VW55x_RELEASE_V1.0.2/MSDK/util/src\debug_print.c ****             if (width == 4) {
 530:C:/Users/stapi/OneDrive/Desktop/GD32VW553/V1_MQTT_OK/GD32VW55X_Wifi_BLE_SDK/GD32VW55x_RELEASE_V1.0.2/MSDK/util/src\debug_print.c ****                 ret = co_snprintf(pout, space, " %08x", *(((volatile unsigned long *)pdata) + i));
 531:C:/Users/stapi/OneDrive/Desktop/GD32VW553/V1_MQTT_OK/GD32VW55X_Wifi_BLE_SDK/GD32VW55x_RELEASE_V1.0.2/MSDK/util/src\debug_print.c ****                 space -= ret;
 532:C:/Users/stapi/OneDrive/Desktop/GD32VW553/V1_MQTT_OK/GD32VW55X_Wifi_BLE_SDK/GD32VW55x_RELEASE_V1.0.2/MSDK/util/src\debug_print.c ****                 pout += ret;
 533:C:/Users/stapi/OneDrive/Desktop/GD32VW553/V1_MQTT_OK/GD32VW55X_Wifi_BLE_SDK/GD32VW55x_RELEASE_V1.0.2/MSDK/util/src\debug_print.c ****             } else if (width == 2) {
 534:C:/Users/stapi/OneDrive/Desktop/GD32VW553/V1_MQTT_OK/GD32VW55X_Wifi_BLE_SDK/GD32VW55x_RELEASE_V1.0.2/MSDK/util/src\debug_print.c ****                 ret = co_snprintf(pout, space, " %08x", *(((volatile unsigned short *)pdata) + i));
 535:C:/Users/stapi/OneDrive/Desktop/GD32VW553/V1_MQTT_OK/GD32VW55X_Wifi_BLE_SDK/GD32VW55x_RELEASE_V1.0.2/MSDK/util/src\debug_print.c ****                 space -= ret;
 536:C:/Users/stapi/OneDrive/Desktop/GD32VW553/V1_MQTT_OK/GD32VW55X_Wifi_BLE_SDK/GD32VW55x_RELEASE_V1.0.2/MSDK/util/src\debug_print.c ****                 pout += ret;
 537:C:/Users/stapi/OneDrive/Desktop/GD32VW553/V1_MQTT_OK/GD32VW55X_Wifi_BLE_SDK/GD32VW55x_RELEASE_V1.0.2/MSDK/util/src\debug_print.c ****             } else {
 538:C:/Users/stapi/OneDrive/Desktop/GD32VW553/V1_MQTT_OK/GD32VW55X_Wifi_BLE_SDK/GD32VW55x_RELEASE_V1.0.2/MSDK/util/src\debug_print.c ****                 ret = co_snprintf(pout, space, " %08x", *(((volatile unsigned char *)pdata) + i));
 539:C:/Users/stapi/OneDrive/Desktop/GD32VW553/V1_MQTT_OK/GD32VW55X_Wifi_BLE_SDK/GD32VW55x_RELEASE_V1.0.2/MSDK/util/src\debug_print.c ****                 space -= ret;
 540:C:/Users/stapi/OneDrive/Desktop/GD32VW553/V1_MQTT_OK/GD32VW55X_Wifi_BLE_SDK/GD32VW55x_RELEASE_V1.0.2/MSDK/util/src\debug_print.c ****                 pout += ret;
 541:C:/Users/stapi/OneDrive/Desktop/GD32VW553/V1_MQTT_OK/GD32VW55X_Wifi_BLE_SDK/GD32VW55x_RELEASE_V1.0.2/MSDK/util/src\debug_print.c ****             }
 542:C:/Users/stapi/OneDrive/Desktop/GD32VW553/V1_MQTT_OK/GD32VW55X_Wifi_BLE_SDK/GD32VW55x_RELEASE_V1.0.2/MSDK/util/src\debug_print.c ****             pdata += width;
 543:C:/Users/stapi/OneDrive/Desktop/GD32VW553/V1_MQTT_OK/GD32VW55X_Wifi_BLE_SDK/GD32VW55x_RELEASE_V1.0.2/MSDK/util/src\debug_print.c ****         }
 544:C:/Users/stapi/OneDrive/Desktop/GD32VW553/V1_MQTT_OK/GD32VW55X_Wifi_BLE_SDK/GD32VW55x_RELEASE_V1.0.2/MSDK/util/src\debug_print.c **** 
 545:C:/Users/stapi/OneDrive/Desktop/GD32VW553/V1_MQTT_OK/GD32VW55X_Wifi_BLE_SDK/GD32VW55x_RELEASE_V1.0.2/MSDK/util/src\debug_print.c **** #if 0
 546:C:/Users/stapi/OneDrive/Desktop/GD32VW553/V1_MQTT_OK/GD32VW55X_Wifi_BLE_SDK/GD32VW55x_RELEASE_V1.0.2/MSDK/util/src\debug_print.c ****         /* Print data in ASCII characters */
 547:C:/Users/stapi/OneDrive/Desktop/GD32VW553/V1_MQTT_OK/GD32VW55X_Wifi_BLE_SDK/GD32VW55x_RELEASE_V1.0.2/MSDK/util/src\debug_print.c ****         prints(NULL, "    ", 0, 0);
 548:C:/Users/stapi/OneDrive/Desktop/GD32VW553/V1_MQTT_OK/GD32VW55X_Wifi_BLE_SDK/GD32VW55x_RELEASE_V1.0.2/MSDK/util/src\debug_print.c ****         for (i = 0; i < linelen * width; i++)
 549:C:/Users/stapi/OneDrive/Desktop/GD32VW553/V1_MQTT_OK/GD32VW55X_Wifi_BLE_SDK/GD32VW55x_RELEASE_V1.0.2/MSDK/util/src\debug_print.c ****             printchar(NULL, isprint(ucp[i]) && (ucp[i] < 0x80) ? ucp[i] : '.');
 550:C:/Users/stapi/OneDrive/Desktop/GD32VW553/V1_MQTT_OK/GD32VW55X_Wifi_BLE_SDK/GD32VW55x_RELEASE_V1.0.2/MSDK/util/src\debug_print.c **** #endif
 551:C:/Users/stapi/OneDrive/Desktop/GD32VW553/V1_MQTT_OK/GD32VW55X_Wifi_BLE_SDK/GD32VW55x_RELEASE_V1.0.2/MSDK/util/src\debug_print.c ****         *pout = '\n';
 552:C:/Users/stapi/OneDrive/Desktop/GD32VW553/V1_MQTT_OK/GD32VW55X_Wifi_BLE_SDK/GD32VW55x_RELEASE_V1.0.2/MSDK/util/src\debug_print.c ****         space = 512 - space;
 553:C:/Users/stapi/OneDrive/Desktop/GD32VW553/V1_MQTT_OK/GD32VW55X_Wifi_BLE_SDK/GD32VW55x_RELEASE_V1.0.2/MSDK/util/src\debug_print.c ****         trace_console(space, (uint8_t *)out);
 554:C:/Users/stapi/OneDrive/Desktop/GD32VW553/V1_MQTT_OK/GD32VW55X_Wifi_BLE_SDK/GD32VW55x_RELEASE_V1.0.2/MSDK/util/src\debug_print.c **** 
 555:C:/Users/stapi/OneDrive/Desktop/GD32VW553/V1_MQTT_OK/GD32VW55X_Wifi_BLE_SDK/GD32VW55x_RELEASE_V1.0.2/MSDK/util/src\debug_print.c ****         /* update references */
 556:C:/Users/stapi/OneDrive/Desktop/GD32VW553/V1_MQTT_OK/GD32VW55X_Wifi_BLE_SDK/GD32VW55x_RELEASE_V1.0.2/MSDK/util/src\debug_print.c ****         addr += linelen * width;
 557:C:/Users/stapi/OneDrive/Desktop/GD32VW553/V1_MQTT_OK/GD32VW55X_Wifi_BLE_SDK/GD32VW55x_RELEASE_V1.0.2/MSDK/util/src\debug_print.c ****         count -= linelen;
 558:C:/Users/stapi/OneDrive/Desktop/GD32VW553/V1_MQTT_OK/GD32VW55X_Wifi_BLE_SDK/GD32VW55x_RELEASE_V1.0.2/MSDK/util/src\debug_print.c ****     }
 559:C:/Users/stapi/OneDrive/Desktop/GD32VW553/V1_MQTT_OK/GD32VW55X_Wifi_BLE_SDK/GD32VW55x_RELEASE_V1.0.2/MSDK/util/src\debug_print.c **** #endif
 560:C:/Users/stapi/OneDrive/Desktop/GD32VW553/V1_MQTT_OK/GD32VW55X_Wifi_BLE_SDK/GD32VW55x_RELEASE_V1.0.2/MSDK/util/src\debug_print.c **** 
 561:C:/Users/stapi/OneDrive/Desktop/GD32VW553/V1_MQTT_OK/GD32VW55X_Wifi_BLE_SDK/GD32VW55x_RELEASE_V1.0.2/MSDK/util/src\debug_print.c ****     return 0;
 1188              		.loc 1 561 5
 562:C:/Users/stapi/OneDrive/Desktop/GD32VW553/V1_MQTT_OK/GD32VW55X_Wifi_BLE_SDK/GD32VW55x_RELEASE_V1.0.2/MSDK/util/src\debug_print.c **** }
 1189              		.loc 1 562 1 is_stmt 0
 1190 0034 0145     		li	a0,0
 1191 0036 2161     		addi	sp,sp,64
 1192              		.cfi_remember_state
 1193              		.cfi_def_cfa_offset 0
 1194              	.LVL142:
 1195 0038 17030000 		tail	__riscv_restore_12
 1195      67000300 
 1196              		.cfi_restore 27
 1197              		.cfi_restore 26
 1198              		.cfi_restore 25
 1199              		.cfi_restore 24
 1200              		.cfi_restore 23
 1201              		.cfi_restore 22
 1202              		.cfi_restore 21
 1203              		.cfi_restore 20
 1204              		.cfi_restore 19
 1205              		.cfi_restore 18
 1206              		.cfi_restore 9
 1207              		.cfi_restore 8
 1208              		.cfi_restore 1
 1209              		.cfi_def_cfa_offset -64
 1210              	.LVL143:
 1211              	.L112:
 1212              		.cfi_restore_state
 469:C:/Users/stapi/OneDrive/Desktop/GD32VW553/V1_MQTT_OK/GD32VW55X_Wifi_BLE_SDK/GD32VW55x_RELEASE_V1.0.2/MSDK/util/src\debug_print.c **** 
 1213              		.loc 1 469 9 is_stmt 1
 1214 0040 B7070000 		lui	a5,%hi(.LC1)
 1215 0044 8A8B     		mv	s7,sp
 1216 0046 CA85     		mv	a1,s2
 1217 0048 13850700 		addi	a0,a5,%lo(.LC1)
 1218 004c 97000000 		call	co_printf
 1218      E7800000 
 1219              	.LVL144:
 472:C:/Users/stapi/OneDrive/Desktop/GD32VW553/V1_MQTT_OK/GD32VW55X_Wifi_BLE_SDK/GD32VW55x_RELEASE_V1.0.2/MSDK/util/src\debug_print.c ****             linelen = count;
 1220              		.loc 1 472 9
 476:C:/Users/stapi/OneDrive/Desktop/GD32VW553/V1_MQTT_OK/GD32VW55X_Wifi_BLE_SDK/GD32VW55x_RELEASE_V1.0.2/MSDK/util/src\debug_print.c ****             if (width == 4) {
 1221              		.loc 1 476 9 is_stmt 0
 1222 0054 DE8A     		mv	s5,s7
 1223 0056 4E8C     		mv	s8,s3
 476:C:/Users/stapi/OneDrive/Desktop/GD32VW553/V1_MQTT_OK/GD32VW55X_Wifi_BLE_SDK/GD32VW55x_RELEASE_V1.0.2/MSDK/util/src\debug_print.c ****             if (width == 4) {
 1224              		.loc 1 476 16
 1225 0058 014A     		li	s4,0
 1226 005a 5E8D     		mv	s10,s7
 480:C:/Users/stapi/OneDrive/Desktop/GD32VW553/V1_MQTT_OK/GD32VW55X_Wifi_BLE_SDK/GD32VW55x_RELEASE_V1.0.2/MSDK/util/src\debug_print.c ****                 usp[i] = *(volatile unsigned short *)pdata;
 1227              		.loc 1 480 23
 1228 005c 894D     		li	s11,2
 1229 005e 335B9B0A 		minu	s6,s6,s1
 1230              	.LVL145:
 476:C:/Users/stapi/OneDrive/Desktop/GD32VW553/V1_MQTT_OK/GD32VW55X_Wifi_BLE_SDK/GD32VW55x_RELEASE_V1.0.2/MSDK/util/src\debug_print.c ****             if (width == 4) {
 1231              		.loc 1 476 9 is_stmt 1
 1232              	.L107:
 476:C:/Users/stapi/OneDrive/Desktop/GD32VW553/V1_MQTT_OK/GD32VW55X_Wifi_BLE_SDK/GD32VW55x_RELEASE_V1.0.2/MSDK/util/src\debug_print.c ****             if (width == 4) {
 1233              		.loc 1 476 21 discriminator 1
 476:C:/Users/stapi/OneDrive/Desktop/GD32VW553/V1_MQTT_OK/GD32VW55X_Wifi_BLE_SDK/GD32VW55x_RELEASE_V1.0.2/MSDK/util/src\debug_print.c ****             if (width == 4) {
 1234              		.loc 1 476 9 is_stmt 0 discriminator 1
 1235 0062 631E6A01 		bne	s4,s6,.L111
 1236 0066 330A8B02 		mul	s4,s6,s0
 1237              	.LVL146:
 1238              	.LBB29:
 1239              	.LBB30:
 121:C:/Users/stapi/OneDrive/Desktop/GD32VW553/V1_MQTT_OK/GD32VW55X_Wifi_BLE_SDK/GD32VW55x_RELEASE_V1.0.2/MSDK/util/src\debug_print.c ****     } else if ((uint32_t)str < USART_BASE) {
 1240              		.loc 1 121 9
 1241 006a 2945     		li	a0,10
 1242 006c 97000000 		call	log_uart_putc_noint
 1242      E7800000 
 1243              	.LVL147:
 1244              	.LBE30:
 1245              	.LBE29:
 501:C:/Users/stapi/OneDrive/Desktop/GD32VW553/V1_MQTT_OK/GD32VW55X_Wifi_BLE_SDK/GD32VW55x_RELEASE_V1.0.2/MSDK/util/src\debug_print.c ****     }
 1246              		.loc 1 501 15
 1247 0074 B3846441 		sub	s1,s1,s6
 1248              	.LVL148:
 1249 0078 D299     		add	s3,s3,s4
 497:C:/Users/stapi/OneDrive/Desktop/GD32VW553/V1_MQTT_OK/GD32VW55X_Wifi_BLE_SDK/GD32VW55x_RELEASE_V1.0.2/MSDK/util/src\debug_print.c **** 
 1250              		.loc 1 497 9 is_stmt 1
 1251              	.LVL149:
 1252              	.LBB32:
 1253              	.LBB31:
 120:C:/Users/stapi/OneDrive/Desktop/GD32VW553/V1_MQTT_OK/GD32VW55X_Wifi_BLE_SDK/GD32VW55x_RELEASE_V1.0.2/MSDK/util/src\debug_print.c ****         log_uart_putc_noint((char)c);
 1254              		.loc 1 120 5
 121:C:/Users/stapi/OneDrive/Desktop/GD32VW553/V1_MQTT_OK/GD32VW55X_Wifi_BLE_SDK/GD32VW55x_RELEASE_V1.0.2/MSDK/util/src\debug_print.c ****     } else if ((uint32_t)str < USART_BASE) {
 1255              		.loc 1 121 9
 1256              	.LBE31:
 1257              	.LBE32:
 500:C:/Users/stapi/OneDrive/Desktop/GD32VW553/V1_MQTT_OK/GD32VW55X_Wifi_BLE_SDK/GD32VW55x_RELEASE_V1.0.2/MSDK/util/src\debug_print.c ****         count -= linelen;
 1258              		.loc 1 500 9
 500:C:/Users/stapi/OneDrive/Desktop/GD32VW553/V1_MQTT_OK/GD32VW55X_Wifi_BLE_SDK/GD32VW55x_RELEASE_V1.0.2/MSDK/util/src\debug_print.c ****         count -= linelen;
 1259              		.loc 1 500 14 is_stmt 0
 1260 007a 5299     		add	s2,s2,s4
 1261              	.LVL150:
 501:C:/Users/stapi/OneDrive/Desktop/GD32VW553/V1_MQTT_OK/GD32VW55X_Wifi_BLE_SDK/GD32VW55x_RELEASE_V1.0.2/MSDK/util/src\debug_print.c ****     }
 1262              		.loc 1 501 9 is_stmt 1
 1263 007c 5DBF     		j	.L106
 1264              	.LVL151:
 1265              	.L111:
 477:C:/Users/stapi/OneDrive/Desktop/GD32VW553/V1_MQTT_OK/GD32VW55X_Wifi_BLE_SDK/GD32VW55x_RELEASE_V1.0.2/MSDK/util/src\debug_print.c ****                 uip[i] = *(volatile unsigned long *)pdata;
 1266              		.loc 1 477 13
 477:C:/Users/stapi/OneDrive/Desktop/GD32VW553/V1_MQTT_OK/GD32VW55X_Wifi_BLE_SDK/GD32VW55x_RELEASE_V1.0.2/MSDK/util/src\debug_print.c ****                 uip[i] = *(volatile unsigned long *)pdata;
 1267              		.loc 1 477 16 is_stmt 0
 1268 007e 9147     		li	a5,4
 1269 0080 6311F402 		bne	s0,a5,.L108
 478:C:/Users/stapi/OneDrive/Desktop/GD32VW553/V1_MQTT_OK/GD32VW55X_Wifi_BLE_SDK/GD32VW55x_RELEASE_V1.0.2/MSDK/util/src\debug_print.c ****                 co_printf(" %08x", uip[i]);
 1270              		.loc 1 478 17 is_stmt 1
 478:C:/Users/stapi/OneDrive/Desktop/GD32VW553/V1_MQTT_OK/GD32VW55X_Wifi_BLE_SDK/GD32VW55x_RELEASE_V1.0.2/MSDK/util/src\debug_print.c ****                 co_printf(" %08x", uip[i]);
 1271              		.loc 1 478 26 is_stmt 0
 1272 0084 83250C00 		lw	a1,0(s8)
 479:C:/Users/stapi/OneDrive/Desktop/GD32VW553/V1_MQTT_OK/GD32VW55X_Wifi_BLE_SDK/GD32VW55x_RELEASE_V1.0.2/MSDK/util/src\debug_print.c ****             } else if (width == 2) {
 1273              		.loc 1 479 17
 1274 0088 13850C00 		addi	a0,s9,%lo(.LC2)
 478:C:/Users/stapi/OneDrive/Desktop/GD32VW553/V1_MQTT_OK/GD32VW55X_Wifi_BLE_SDK/GD32VW55x_RELEASE_V1.0.2/MSDK/util/src\debug_print.c ****                 co_printf(" %08x", uip[i]);
 1275              		.loc 1 478 24
 1276 008c 23A0BB00 		sw	a1,0(s7)
 479:C:/Users/stapi/OneDrive/Desktop/GD32VW553/V1_MQTT_OK/GD32VW55X_Wifi_BLE_SDK/GD32VW55x_RELEASE_V1.0.2/MSDK/util/src\debug_print.c ****             } else if (width == 2) {
 1277              		.loc 1 479 17 is_stmt 1
 1278              	.L115:
 485:C:/Users/stapi/OneDrive/Desktop/GD32VW553/V1_MQTT_OK/GD32VW55X_Wifi_BLE_SDK/GD32VW55x_RELEASE_V1.0.2/MSDK/util/src\debug_print.c ****             }
 1279              		.loc 1 485 17 is_stmt 0
 1280 0090 97000000 		call	co_printf
 1280      E7800000 
 1281              	.LVL152:
 487:C:/Users/stapi/OneDrive/Desktop/GD32VW553/V1_MQTT_OK/GD32VW55X_Wifi_BLE_SDK/GD32VW55x_RELEASE_V1.0.2/MSDK/util/src\debug_print.c ****         }
 1282              		.loc 1 487 13 is_stmt 1
 487:C:/Users/stapi/OneDrive/Desktop/GD32VW553/V1_MQTT_OK/GD32VW55X_Wifi_BLE_SDK/GD32VW55x_RELEASE_V1.0.2/MSDK/util/src\debug_print.c ****         }
 1283              		.loc 1 487 19 is_stmt 0
 1284 0098 229C     		add	s8,s8,s0
 1285              	.LVL153:
 476:C:/Users/stapi/OneDrive/Desktop/GD32VW553/V1_MQTT_OK/GD32VW55X_Wifi_BLE_SDK/GD32VW55x_RELEASE_V1.0.2/MSDK/util/src\debug_print.c ****             if (width == 4) {
 1286              		.loc 1 476 34 is_stmt 1
 476:C:/Users/stapi/OneDrive/Desktop/GD32VW553/V1_MQTT_OK/GD32VW55X_Wifi_BLE_SDK/GD32VW55x_RELEASE_V1.0.2/MSDK/util/src\debug_print.c ****             if (width == 4) {
 1287              		.loc 1 476 35 is_stmt 0
 1288 009a 050A     		addi	s4,s4,1
 1289              	.LVL154:
 1290 009c 910B     		addi	s7,s7,4
 1291 009e 890A     		addi	s5,s5,2
 1292 00a0 C9B7     		j	.L107
 1293              	.L108:
 480:C:/Users/stapi/OneDrive/Desktop/GD32VW553/V1_MQTT_OK/GD32VW55X_Wifi_BLE_SDK/GD32VW55x_RELEASE_V1.0.2/MSDK/util/src\debug_print.c ****                 usp[i] = *(volatile unsigned short *)pdata;
 1294              		.loc 1 480 20 is_stmt 1
 480:C:/Users/stapi/OneDrive/Desktop/GD32VW553/V1_MQTT_OK/GD32VW55X_Wifi_BLE_SDK/GD32VW55x_RELEASE_V1.0.2/MSDK/util/src\debug_print.c ****                 usp[i] = *(volatile unsigned short *)pdata;
 1295              		.loc 1 480 23 is_stmt 0
 1296 00a2 631DB401 		bne	s0,s11,.L110
 481:C:/Users/stapi/OneDrive/Desktop/GD32VW553/V1_MQTT_OK/GD32VW55X_Wifi_BLE_SDK/GD32VW55x_RELEASE_V1.0.2/MSDK/util/src\debug_print.c ****                 co_printf(" %04x", usp[i]);
 1297              		.loc 1 481 17 is_stmt 1
 481:C:/Users/stapi/OneDrive/Desktop/GD32VW553/V1_MQTT_OK/GD32VW55X_Wifi_BLE_SDK/GD32VW55x_RELEASE_V1.0.2/MSDK/util/src\debug_print.c ****                 co_printf(" %04x", usp[i]);
 1298              		.loc 1 481 26 is_stmt 0
 1299 00a6 83550C00 		lhu	a1,0(s8)
 482:C:/Users/stapi/OneDrive/Desktop/GD32VW553/V1_MQTT_OK/GD32VW55X_Wifi_BLE_SDK/GD32VW55x_RELEASE_V1.0.2/MSDK/util/src\debug_print.c ****             } else {
 1300              		.loc 1 482 17
 1301 00aa B7070000 		lui	a5,%hi(.LC3)
 1302 00ae 13850700 		addi	a0,a5,%lo(.LC3)
 481:C:/Users/stapi/OneDrive/Desktop/GD32VW553/V1_MQTT_OK/GD32VW55X_Wifi_BLE_SDK/GD32VW55x_RELEASE_V1.0.2/MSDK/util/src\debug_print.c ****                 co_printf(" %04x", usp[i]);
 1303              		.loc 1 481 26
 1304 00b2 B3C50508 		zext.h	a1,a1
 481:C:/Users/stapi/OneDrive/Desktop/GD32VW553/V1_MQTT_OK/GD32VW55X_Wifi_BLE_SDK/GD32VW55x_RELEASE_V1.0.2/MSDK/util/src\debug_print.c ****                 co_printf(" %04x", usp[i]);
 1305              		.loc 1 481 24
 1306 00b6 2390BA00 		sh	a1,0(s5)
 482:C:/Users/stapi/OneDrive/Desktop/GD32VW553/V1_MQTT_OK/GD32VW55X_Wifi_BLE_SDK/GD32VW55x_RELEASE_V1.0.2/MSDK/util/src\debug_print.c ****             } else {
 1307              		.loc 1 482 17 is_stmt 1
 1308 00ba D9BF     		j	.L115
 1309              	.L110:
 484:C:/Users/stapi/OneDrive/Desktop/GD32VW553/V1_MQTT_OK/GD32VW55X_Wifi_BLE_SDK/GD32VW55x_RELEASE_V1.0.2/MSDK/util/src\debug_print.c ****                 co_printf(" %02x", ucp[i]);
 1310              		.loc 1 484 17
 484:C:/Users/stapi/OneDrive/Desktop/GD32VW553/V1_MQTT_OK/GD32VW55X_Wifi_BLE_SDK/GD32VW55x_RELEASE_V1.0.2/MSDK/util/src\debug_print.c ****                 co_printf(" %02x", ucp[i]);
 1311              		.loc 1 484 26 is_stmt 0
 1312 00bc 83450C00 		lbu	a1,0(s8)
 484:C:/Users/stapi/OneDrive/Desktop/GD32VW553/V1_MQTT_OK/GD32VW55X_Wifi_BLE_SDK/GD32VW55x_RELEASE_V1.0.2/MSDK/util/src\debug_print.c ****                 co_printf(" %02x", ucp[i]);
 1313              		.loc 1 484 24
 1314 00c0 33064D01 		add	a2,s10,s4
 485:C:/Users/stapi/OneDrive/Desktop/GD32VW553/V1_MQTT_OK/GD32VW55X_Wifi_BLE_SDK/GD32VW55x_RELEASE_V1.0.2/MSDK/util/src\debug_print.c ****             }
 1315              		.loc 1 485 17
 1316 00c4 B7070000 		lui	a5,%hi(.LC4)
 484:C:/Users/stapi/OneDrive/Desktop/GD32VW553/V1_MQTT_OK/GD32VW55X_Wifi_BLE_SDK/GD32VW55x_RELEASE_V1.0.2/MSDK/util/src\debug_print.c ****                 co_printf(" %02x", ucp[i]);
 1317              		.loc 1 484 26
 1318 00c8 93F5F50F 		andi	a1,a1,0xff
 484:C:/Users/stapi/OneDrive/Desktop/GD32VW553/V1_MQTT_OK/GD32VW55X_Wifi_BLE_SDK/GD32VW55x_RELEASE_V1.0.2/MSDK/util/src\debug_print.c ****                 co_printf(" %02x", ucp[i]);
 1319              		.loc 1 484 24
 1320 00cc 2300B600 		sb	a1,0(a2)
 485:C:/Users/stapi/OneDrive/Desktop/GD32VW553/V1_MQTT_OK/GD32VW55X_Wifi_BLE_SDK/GD32VW55x_RELEASE_V1.0.2/MSDK/util/src\debug_print.c ****             }
 1321              		.loc 1 485 17 is_stmt 1
 1322 00d0 13850700 		addi	a0,a5,%lo(.LC4)
 1323 00d4 75BF     		j	.L115
 1324              		.cfi_endproc
 1325              	.LFE373:
 1327              		.section	.rodata.debug_print_dump_data.str1.4,"aMS",@progbits,1
 1328              		.align	2
 1329              	.LC5:
 1330 0000 3D3D3D20 		.string	"=== %s ===\r\n"
 1330      2573203D 
 1330      3D3D0D0A 
 1330      00
 1331              		.section	.text.debug_print_dump_data,"ax",@progbits
 1332              		.align	1
 1333              		.globl	debug_print_dump_data
 1335              	debug_print_dump_data:
 1336              	.LFB374:
 563:C:/Users/stapi/OneDrive/Desktop/GD32VW553/V1_MQTT_OK/GD32VW55X_Wifi_BLE_SDK/GD32VW55x_RELEASE_V1.0.2/MSDK/util/src\debug_print.c **** 
 564:C:/Users/stapi/OneDrive/Desktop/GD32VW553/V1_MQTT_OK/GD32VW55X_Wifi_BLE_SDK/GD32VW55x_RELEASE_V1.0.2/MSDK/util/src\debug_print.c **** void debug_print_dump_data(char *title, char *mem, int mem_size)
 565:C:/Users/stapi/OneDrive/Desktop/GD32VW553/V1_MQTT_OK/GD32VW55X_Wifi_BLE_SDK/GD32VW55x_RELEASE_V1.0.2/MSDK/util/src\debug_print.c **** {
 1337              		.loc 1 565 1
 1338              		.cfi_startproc
 1339              	.LVL155:
 1340 0000 17030000 		call	t0,__riscv_save_1
 1340      E7020300 
 1341              		.cfi_offset 8, -8
 1342              		.cfi_offset 1, -4
 1343              		.cfi_def_cfa_offset 16
 566:C:/Users/stapi/OneDrive/Desktop/GD32VW553/V1_MQTT_OK/GD32VW55X_Wifi_BLE_SDK/GD32VW55x_RELEASE_V1.0.2/MSDK/util/src\debug_print.c ****     if (title)
 1344              		.loc 1 566 5
 565:C:/Users/stapi/OneDrive/Desktop/GD32VW553/V1_MQTT_OK/GD32VW55X_Wifi_BLE_SDK/GD32VW55x_RELEASE_V1.0.2/MSDK/util/src\debug_print.c ****     if (title)
 1345              		.loc 1 565 1 is_stmt 0
 1346 0008 4111     		addi	sp,sp,-16
 1347              		.cfi_def_cfa_offset 32
 565:C:/Users/stapi/OneDrive/Desktop/GD32VW553/V1_MQTT_OK/GD32VW55X_Wifi_BLE_SDK/GD32VW55x_RELEASE_V1.0.2/MSDK/util/src\debug_print.c ****     if (title)
 1348              		.loc 1 565 1
 1349 000a 2E84     		mv	s0,a1
 1350 000c B286     		mv	a3,a2
 1351              		.loc 1 566 8
 1352 000e 01CD     		beq	a0,zero,.L117
 567:C:/Users/stapi/OneDrive/Desktop/GD32VW553/V1_MQTT_OK/GD32VW55X_Wifi_BLE_SDK/GD32VW55x_RELEASE_V1.0.2/MSDK/util/src\debug_print.c ****         co_printf("=== %s ===\r\n", title);
 1353              		.loc 1 567 9
 1354 0010 AA85     		mv	a1,a0
 1355              	.LVL156:
 1356 0012 37050000 		lui	a0,%hi(.LC5)
 1357              	.LVL157:
 1358 0016 13050500 		addi	a0,a0,%lo(.LC5)
 1359 001a 32C6     		sw	a2,12(sp)
 1360              		.loc 1 567 9 is_stmt 1
 1361 001c 97000000 		call	co_printf
 1361      E7800000 
 1362              	.LVL158:
 1363 0024 B246     		lw	a3,12(sp)
 1364              	.LVL159:
 1365              	.L117:
 568:C:/Users/stapi/OneDrive/Desktop/GD32VW553/V1_MQTT_OK/GD32VW55X_Wifi_BLE_SDK/GD32VW55x_RELEASE_V1.0.2/MSDK/util/src\debug_print.c ****     if (mem_size == 0) return;
 1366              		.loc 1 568 5
 1367              		.loc 1 568 8 is_stmt 0
 1368 0026 89CA     		beq	a3,zero,.L116
 569:C:/Users/stapi/OneDrive/Desktop/GD32VW553/V1_MQTT_OK/GD32VW55X_Wifi_BLE_SDK/GD32VW55x_RELEASE_V1.0.2/MSDK/util/src\debug_print.c ****     print_buffer((unsigned long)mem, mem, 1, mem_size, 0);
 1369              		.loc 1 569 5 is_stmt 1
 1370 0028 0147     		li	a4,0
 1371 002a 0546     		li	a2,1
 1372 002c A285     		mv	a1,s0
 1373 002e 2285     		mv	a0,s0
 1374 0030 97000000 		call	print_buffer
 1374      E7800000 
 1375              	.LVL160:
 1376              	.L116:
 570:C:/Users/stapi/OneDrive/Desktop/GD32VW553/V1_MQTT_OK/GD32VW55X_Wifi_BLE_SDK/GD32VW55x_RELEASE_V1.0.2/MSDK/util/src\debug_print.c **** }
 1377              		.loc 1 570 1 is_stmt 0
 1378 0038 4101     		addi	sp,sp,16
 1379              		.cfi_def_cfa_offset 0
 1380 003a 17030000 		tail	__riscv_restore_1
 1380      67000300 
 1381              		.cfi_restore 8
 1382              		.cfi_restore 1
 1383              		.cfi_def_cfa_offset -16
 1384              		.cfi_endproc
 1385              	.LFE374:
 1387              		.section	.rodata.str2hex.str1.4,"aMS",@progbits,1
 1388              		.align	2
 1389              	.LC6:
 1390 0000 633A2563 		.string	"c:%c\r\n"
 1390      0D0A00
 1391              		.section	.text.str2hex,"ax",@progbits
 1392              		.align	1
 1393              		.globl	str2hex
 1395              	str2hex:
 1396              	.LFB375:
 571:C:/Users/stapi/OneDrive/Desktop/GD32VW553/V1_MQTT_OK/GD32VW55X_Wifi_BLE_SDK/GD32VW55x_RELEASE_V1.0.2/MSDK/util/src\debug_print.c **** 
 572:C:/Users/stapi/OneDrive/Desktop/GD32VW553/V1_MQTT_OK/GD32VW55X_Wifi_BLE_SDK/GD32VW55x_RELEASE_V1.0.2/MSDK/util/src\debug_print.c **** int str2hex(char *input, int input_len, unsigned char *output, int output_len)
 573:C:/Users/stapi/OneDrive/Desktop/GD32VW553/V1_MQTT_OK/GD32VW55X_Wifi_BLE_SDK/GD32VW55x_RELEASE_V1.0.2/MSDK/util/src\debug_print.c **** {
 1397              		.loc 1 573 1 is_stmt 1
 1398              		.cfi_startproc
 1399              	.LVL161:
 574:C:/Users/stapi/OneDrive/Desktop/GD32VW553/V1_MQTT_OK/GD32VW55X_Wifi_BLE_SDK/GD32VW55x_RELEASE_V1.0.2/MSDK/util/src\debug_print.c ****     int index = 0;
 1400              		.loc 1 574 5
 575:C:/Users/stapi/OneDrive/Desktop/GD32VW553/V1_MQTT_OK/GD32VW55X_Wifi_BLE_SDK/GD32VW55x_RELEASE_V1.0.2/MSDK/util/src\debug_print.c ****     char iter_char = 0;
 1401              		.loc 1 575 5
 576:C:/Users/stapi/OneDrive/Desktop/GD32VW553/V1_MQTT_OK/GD32VW55X_Wifi_BLE_SDK/GD32VW55x_RELEASE_V1.0.2/MSDK/util/src\debug_print.c **** 
 577:C:/Users/stapi/OneDrive/Desktop/GD32VW553/V1_MQTT_OK/GD32VW55X_Wifi_BLE_SDK/GD32VW55x_RELEASE_V1.0.2/MSDK/util/src\debug_print.c ****     if (input == NULL || input_len <= 0 || input_len % 2 != 0 ||
 1402              		.loc 1 577 5
 1403              		.loc 1 577 8 is_stmt 0
 1404 0000 65CD     		beq	a0,zero,.L136
 573:C:/Users/stapi/OneDrive/Desktop/GD32VW553/V1_MQTT_OK/GD32VW55X_Wifi_BLE_SDK/GD32VW55x_RELEASE_V1.0.2/MSDK/util/src\debug_print.c ****     int index = 0;
 1405              		.loc 1 573 1 discriminator 1
 1406 0002 17030000 		call	t0,__riscv_save_3
 1406      E7020300 
 1407              		.cfi_offset 18, -16
 1408              		.cfi_offset 9, -12
 1409              		.cfi_offset 8, -8
 1410              		.cfi_offset 1, -4
 1411              		.cfi_def_cfa_offset 16
 1412 000a 2A89     		mv	s2,a0
 1413 000c 2E84     		mv	s0,a1
 578:C:/Users/stapi/OneDrive/Desktop/GD32VW553/V1_MQTT_OK/GD32VW55X_Wifi_BLE_SDK/GD32VW55x_RELEASE_V1.0.2/MSDK/util/src\debug_print.c ****         output == NULL || output_len < input_len / 2) {
 579:C:/Users/stapi/OneDrive/Desktop/GD32VW553/V1_MQTT_OK/GD32VW55X_Wifi_BLE_SDK/GD32VW55x_RELEASE_V1.0.2/MSDK/util/src\debug_print.c ****         return -1;
 1414              		.loc 1 579 16 discriminator 1
 1415 000e 7D55     		li	a0,-1
 1416              	.LVL162:
 577:C:/Users/stapi/OneDrive/Desktop/GD32VW553/V1_MQTT_OK/GD32VW55X_Wifi_BLE_SDK/GD32VW55x_RELEASE_V1.0.2/MSDK/util/src\debug_print.c ****         output == NULL || output_len < input_len / 2) {
 1417              		.loc 1 577 23 discriminator 1
 1418 0010 6350B00E 		ble	a1,zero,.L126
 577:C:/Users/stapi/OneDrive/Desktop/GD32VW553/V1_MQTT_OK/GD32VW55X_Wifi_BLE_SDK/GD32VW55x_RELEASE_V1.0.2/MSDK/util/src\debug_print.c ****         output == NULL || output_len < input_len / 2) {
 1419              		.loc 1 577 58 discriminator 2
 1420 0014 93F71500 		andi	a5,a1,1
 577:C:/Users/stapi/OneDrive/Desktop/GD32VW553/V1_MQTT_OK/GD32VW55X_Wifi_BLE_SDK/GD32VW55x_RELEASE_V1.0.2/MSDK/util/src\debug_print.c ****         output == NULL || output_len < input_len / 2) {
 1421              		.loc 1 577 41 discriminator 2
 1422 0018 E1EF     		bne	a5,zero,.L126
 1423 001a B284     		mv	s1,a2
 577:C:/Users/stapi/OneDrive/Desktop/GD32VW553/V1_MQTT_OK/GD32VW55X_Wifi_BLE_SDK/GD32VW55x_RELEASE_V1.0.2/MSDK/util/src\debug_print.c ****         output == NULL || output_len < input_len / 2) {
 1424              		.loc 1 577 63 discriminator 3
 1425 001c 71CA     		beq	a2,zero,.L126
 578:C:/Users/stapi/OneDrive/Desktop/GD32VW553/V1_MQTT_OK/GD32VW55X_Wifi_BLE_SDK/GD32VW55x_RELEASE_V1.0.2/MSDK/util/src\debug_print.c ****         output == NULL || output_len < input_len / 2) {
 1426              		.loc 1 578 50
 1427 001e 93D71540 		srai	a5,a1,1
 1428 0022 3686     		mv	a2,a3
 1429              	.LVL163:
 578:C:/Users/stapi/OneDrive/Desktop/GD32VW553/V1_MQTT_OK/GD32VW55X_Wifi_BLE_SDK/GD32VW55x_RELEASE_V1.0.2/MSDK/util/src\debug_print.c ****         output == NULL || output_len < input_len / 2) {
 1430              		.loc 1 578 24
 1431 0024 63C6F60C 		bgt	a5,a3,.L126
 580:C:/Users/stapi/OneDrive/Desktop/GD32VW553/V1_MQTT_OK/GD32VW55X_Wifi_BLE_SDK/GD32VW55x_RELEASE_V1.0.2/MSDK/util/src\debug_print.c ****     }
 581:C:/Users/stapi/OneDrive/Desktop/GD32VW553/V1_MQTT_OK/GD32VW55X_Wifi_BLE_SDK/GD32VW55x_RELEASE_V1.0.2/MSDK/util/src\debug_print.c **** 
 582:C:/Users/stapi/OneDrive/Desktop/GD32VW553/V1_MQTT_OK/GD32VW55X_Wifi_BLE_SDK/GD32VW55x_RELEASE_V1.0.2/MSDK/util/src\debug_print.c ****     sys_memset(output, 0, output_len);
 1432              		.loc 1 582 5 is_stmt 1
 1433 0028 8145     		li	a1,0
 1434              	.LVL164:
 1435 002a 2685     		mv	a0,s1
 1436 002c 97000000 		call	sys_memset
 1436      E7800000 
 1437              	.LVL165:
 583:C:/Users/stapi/OneDrive/Desktop/GD32VW553/V1_MQTT_OK/GD32VW55X_Wifi_BLE_SDK/GD32VW55x_RELEASE_V1.0.2/MSDK/util/src\debug_print.c **** 
 584:C:/Users/stapi/OneDrive/Desktop/GD32VW553/V1_MQTT_OK/GD32VW55X_Wifi_BLE_SDK/GD32VW55x_RELEASE_V1.0.2/MSDK/util/src\debug_print.c ****     for (index = 0; index < input_len; index += 2) {
 1438              		.loc 1 584 5
 1439              		.loc 1 584 21
 1440 0034 CA86     		mv	a3,s2
 1441              		.loc 1 584 16 is_stmt 0
 1442 0036 0146     		li	a2,0
 585:C:/Users/stapi/OneDrive/Desktop/GD32VW553/V1_MQTT_OK/GD32VW55X_Wifi_BLE_SDK/GD32VW55x_RELEASE_V1.0.2/MSDK/util/src\debug_print.c ****         if (input[index] >= '0' && input[index] <= '9') {
 1443              		.loc 1 585 12
 1444 0038 2543     		li	t1,9
 586:C:/Users/stapi/OneDrive/Desktop/GD32VW553/V1_MQTT_OK/GD32VW55X_Wifi_BLE_SDK/GD32VW55x_RELEASE_V1.0.2/MSDK/util/src\debug_print.c ****             iter_char = input[index] - '0';
 587:C:/Users/stapi/OneDrive/Desktop/GD32VW553/V1_MQTT_OK/GD32VW55X_Wifi_BLE_SDK/GD32VW55x_RELEASE_V1.0.2/MSDK/util/src\debug_print.c ****         } else if (input[index] >= 'A' && input[index] <= 'F') {
 1445              		.loc 1 587 19
 1446 003a 9548     		li	a7,5
 1447              	.LVL166:
 1448              	.L135:
 585:C:/Users/stapi/OneDrive/Desktop/GD32VW553/V1_MQTT_OK/GD32VW55X_Wifi_BLE_SDK/GD32VW55x_RELEASE_V1.0.2/MSDK/util/src\debug_print.c ****         if (input[index] >= '0' && input[index] <= '9') {
 1449              		.loc 1 585 9 is_stmt 1
 585:C:/Users/stapi/OneDrive/Desktop/GD32VW553/V1_MQTT_OK/GD32VW55X_Wifi_BLE_SDK/GD32VW55x_RELEASE_V1.0.2/MSDK/util/src\debug_print.c ****         if (input[index] >= '0' && input[index] <= '9') {
 1450              		.loc 1 585 33 is_stmt 0
 1451 003c 83C70600 		lbu	a5,0(a3)
 1452 0040 938507FD 		addi	a1,a5,-48
 1453 0044 93F5F50F 		andi	a1,a1,0xff
 585:C:/Users/stapi/OneDrive/Desktop/GD32VW553/V1_MQTT_OK/GD32VW55X_Wifi_BLE_SDK/GD32VW55x_RELEASE_V1.0.2/MSDK/util/src\debug_print.c ****         if (input[index] >= '0' && input[index] <= '9') {
 1454              		.loc 1 585 12
 1455 0048 6363B304 		bgtu	a1,t1,.L128
 586:C:/Users/stapi/OneDrive/Desktop/GD32VW553/V1_MQTT_OK/GD32VW55X_Wifi_BLE_SDK/GD32VW55x_RELEASE_V1.0.2/MSDK/util/src\debug_print.c ****             iter_char = input[index] - '0';
 1456              		.loc 1 586 13 is_stmt 1
 586:C:/Users/stapi/OneDrive/Desktop/GD32VW553/V1_MQTT_OK/GD32VW55X_Wifi_BLE_SDK/GD32VW55x_RELEASE_V1.0.2/MSDK/util/src\debug_print.c ****             iter_char = input[index] - '0';
 1457              		.loc 1 586 23 is_stmt 0
 1458 004c 93954560 		sext.b	a1,a1
 1459              	.LVL167:
 1460              	.L129:
 588:C:/Users/stapi/OneDrive/Desktop/GD32VW553/V1_MQTT_OK/GD32VW55X_Wifi_BLE_SDK/GD32VW55x_RELEASE_V1.0.2/MSDK/util/src\debug_print.c ****             iter_char = input[index] - 'A' + 0x0A;
 589:C:/Users/stapi/OneDrive/Desktop/GD32VW553/V1_MQTT_OK/GD32VW55X_Wifi_BLE_SDK/GD32VW55x_RELEASE_V1.0.2/MSDK/util/src\debug_print.c ****         } else if (input[index] >= 'a' && input[index] <= 'f') {
 590:C:/Users/stapi/OneDrive/Desktop/GD32VW553/V1_MQTT_OK/GD32VW55X_Wifi_BLE_SDK/GD32VW55x_RELEASE_V1.0.2/MSDK/util/src\debug_print.c ****             iter_char = input[index] - 'a' + 0x0A;
 591:C:/Users/stapi/OneDrive/Desktop/GD32VW553/V1_MQTT_OK/GD32VW55X_Wifi_BLE_SDK/GD32VW55x_RELEASE_V1.0.2/MSDK/util/src\debug_print.c ****         } else {
 592:C:/Users/stapi/OneDrive/Desktop/GD32VW553/V1_MQTT_OK/GD32VW55X_Wifi_BLE_SDK/GD32VW55x_RELEASE_V1.0.2/MSDK/util/src\debug_print.c ****             return -2;
 593:C:/Users/stapi/OneDrive/Desktop/GD32VW553/V1_MQTT_OK/GD32VW55X_Wifi_BLE_SDK/GD32VW55x_RELEASE_V1.0.2/MSDK/util/src\debug_print.c ****         }
 594:C:/Users/stapi/OneDrive/Desktop/GD32VW553/V1_MQTT_OK/GD32VW55X_Wifi_BLE_SDK/GD32VW55x_RELEASE_V1.0.2/MSDK/util/src\debug_print.c ****         output[index / 2] |= (iter_char << 4) & 0xF0;
 1461              		.loc 1 594 9 is_stmt 1
 1462              		.loc 1 594 22 is_stmt 0
 1463 0050 13581640 		srai	a6,a2,1
 1464              		.loc 1 594 27
 1465 0054 2698     		add	a6,s1,a6
 1466 0056 83470800 		lbu	a5,0(a6)
 1467              		.loc 1 594 41
 1468 005a 13974500 		slli	a4,a1,4
 1469              		.loc 1 594 27
 1470 005e 5D8F     		or	a4,a4,a5
 1471 0060 13174760 		sext.b	a4,a4
 1472 0064 2300E800 		sb	a4,0(a6)
 595:C:/Users/stapi/OneDrive/Desktop/GD32VW553/V1_MQTT_OK/GD32VW55X_Wifi_BLE_SDK/GD32VW55x_RELEASE_V1.0.2/MSDK/util/src\debug_print.c **** 
 596:C:/Users/stapi/OneDrive/Desktop/GD32VW553/V1_MQTT_OK/GD32VW55X_Wifi_BLE_SDK/GD32VW55x_RELEASE_V1.0.2/MSDK/util/src\debug_print.c ****         if (input[index + 1] >= '0' && input[index + 1] <= '9') {
 1473              		.loc 1 596 9 is_stmt 1
 1474              		.loc 1 596 37 is_stmt 0
 1475 0068 83C71600 		lbu	a5,1(a3)
 1476 006c 138507FD 		addi	a0,a5,-48
 1477 0070 1375F50F 		andi	a0,a0,0xff
 1478              		.loc 1 596 12
 1479 0074 6361A304 		bgtu	a0,t1,.L131
 597:C:/Users/stapi/OneDrive/Desktop/GD32VW553/V1_MQTT_OK/GD32VW55X_Wifi_BLE_SDK/GD32VW55x_RELEASE_V1.0.2/MSDK/util/src\debug_print.c ****             iter_char = input[index + 1] - '0';
 1480              		.loc 1 597 13 is_stmt 1
 1481              		.loc 1 597 23 is_stmt 0
 1482 0078 93174560 		sext.b	a5,a0
 1483              	.LVL168:
 1484              	.L132:
 598:C:/Users/stapi/OneDrive/Desktop/GD32VW553/V1_MQTT_OK/GD32VW55X_Wifi_BLE_SDK/GD32VW55x_RELEASE_V1.0.2/MSDK/util/src\debug_print.c ****         } else if (input[index + 1] >= 'A' && input[index + 1] <= 'F') {
 599:C:/Users/stapi/OneDrive/Desktop/GD32VW553/V1_MQTT_OK/GD32VW55X_Wifi_BLE_SDK/GD32VW55x_RELEASE_V1.0.2/MSDK/util/src\debug_print.c ****             iter_char = input[index + 1] - 'A' + 0x0A;
 600:C:/Users/stapi/OneDrive/Desktop/GD32VW553/V1_MQTT_OK/GD32VW55X_Wifi_BLE_SDK/GD32VW55x_RELEASE_V1.0.2/MSDK/util/src\debug_print.c ****         } else if (input[index + 1] >= 'a' && input[index + 1] <= 'f') {
 601:C:/Users/stapi/OneDrive/Desktop/GD32VW553/V1_MQTT_OK/GD32VW55X_Wifi_BLE_SDK/GD32VW55x_RELEASE_V1.0.2/MSDK/util/src\debug_print.c ****             iter_char = input[index + 1] - 'a' + 0x0A;
 602:C:/Users/stapi/OneDrive/Desktop/GD32VW553/V1_MQTT_OK/GD32VW55X_Wifi_BLE_SDK/GD32VW55x_RELEASE_V1.0.2/MSDK/util/src\debug_print.c ****         } else {
 603:C:/Users/stapi/OneDrive/Desktop/GD32VW553/V1_MQTT_OK/GD32VW55X_Wifi_BLE_SDK/GD32VW55x_RELEASE_V1.0.2/MSDK/util/src\debug_print.c ****             printf("c:%c\r\n",iter_char);
 604:C:/Users/stapi/OneDrive/Desktop/GD32VW553/V1_MQTT_OK/GD32VW55X_Wifi_BLE_SDK/GD32VW55x_RELEASE_V1.0.2/MSDK/util/src\debug_print.c ****             return -3;
 605:C:/Users/stapi/OneDrive/Desktop/GD32VW553/V1_MQTT_OK/GD32VW55X_Wifi_BLE_SDK/GD32VW55x_RELEASE_V1.0.2/MSDK/util/src\debug_print.c ****         }
 606:C:/Users/stapi/OneDrive/Desktop/GD32VW553/V1_MQTT_OK/GD32VW55X_Wifi_BLE_SDK/GD32VW55x_RELEASE_V1.0.2/MSDK/util/src\debug_print.c ****         output[index / 2] |= (iter_char) & 0x0F;
 1485              		.loc 1 606 9 is_stmt 1 discriminator 2
 1486              		.loc 1 606 27 is_stmt 0 discriminator 2
 1487 007c D98F     		or	a5,a4,a5
 1488              	.LVL169:
 1489 007e 2300F800 		sb	a5,0(a6)
 584:C:/Users/stapi/OneDrive/Desktop/GD32VW553/V1_MQTT_OK/GD32VW55X_Wifi_BLE_SDK/GD32VW55x_RELEASE_V1.0.2/MSDK/util/src\debug_print.c ****         if (input[index] >= '0' && input[index] <= '9') {
 1490              		.loc 1 584 40 is_stmt 1 discriminator 2
 584:C:/Users/stapi/OneDrive/Desktop/GD32VW553/V1_MQTT_OK/GD32VW55X_Wifi_BLE_SDK/GD32VW55x_RELEASE_V1.0.2/MSDK/util/src\debug_print.c ****         if (input[index] >= '0' && input[index] <= '9') {
 1491              		.loc 1 584 46 is_stmt 0 discriminator 2
 1492 0082 0906     		addi	a2,a2,2
 1493              	.LVL170:
 584:C:/Users/stapi/OneDrive/Desktop/GD32VW553/V1_MQTT_OK/GD32VW55X_Wifi_BLE_SDK/GD32VW55x_RELEASE_V1.0.2/MSDK/util/src\debug_print.c ****         if (input[index] >= '0' && input[index] <= '9') {
 1494              		.loc 1 584 21 is_stmt 1 discriminator 2
 584:C:/Users/stapi/OneDrive/Desktop/GD32VW553/V1_MQTT_OK/GD32VW55X_Wifi_BLE_SDK/GD32VW55x_RELEASE_V1.0.2/MSDK/util/src\debug_print.c ****         if (input[index] >= '0' && input[index] <= '9') {
 1495              		.loc 1 584 5 is_stmt 0 discriminator 2
 1496 0084 8906     		addi	a3,a3,2
 1497 0086 E34B86FA 		bgt	s0,a2,.L135
 607:C:/Users/stapi/OneDrive/Desktop/GD32VW553/V1_MQTT_OK/GD32VW55X_Wifi_BLE_SDK/GD32VW55x_RELEASE_V1.0.2/MSDK/util/src\debug_print.c ****     }
 608:C:/Users/stapi/OneDrive/Desktop/GD32VW553/V1_MQTT_OK/GD32VW55X_Wifi_BLE_SDK/GD32VW55x_RELEASE_V1.0.2/MSDK/util/src\debug_print.c **** 
 609:C:/Users/stapi/OneDrive/Desktop/GD32VW553/V1_MQTT_OK/GD32VW55X_Wifi_BLE_SDK/GD32VW55x_RELEASE_V1.0.2/MSDK/util/src\debug_print.c ****     return 0;
 1498              		.loc 1 609 12
 1499 008a 0145     		li	a0,0
 1500 008c 95A0     		j	.L126
 1501              	.L128:
 587:C:/Users/stapi/OneDrive/Desktop/GD32VW553/V1_MQTT_OK/GD32VW55X_Wifi_BLE_SDK/GD32VW55x_RELEASE_V1.0.2/MSDK/util/src\debug_print.c ****             iter_char = input[index] - 'A' + 0x0A;
 1502              		.loc 1 587 16 is_stmt 1
 587:C:/Users/stapi/OneDrive/Desktop/GD32VW553/V1_MQTT_OK/GD32VW55X_Wifi_BLE_SDK/GD32VW55x_RELEASE_V1.0.2/MSDK/util/src\debug_print.c ****             iter_char = input[index] - 'A' + 0x0A;
 1503              		.loc 1 587 40 is_stmt 0
 1504 008e 1387F7FB 		addi	a4,a5,-65
 587:C:/Users/stapi/OneDrive/Desktop/GD32VW553/V1_MQTT_OK/GD32VW55X_Wifi_BLE_SDK/GD32VW55x_RELEASE_V1.0.2/MSDK/util/src\debug_print.c ****             iter_char = input[index] - 'A' + 0x0A;
 1505              		.loc 1 587 19
 1506 0092 1377F70F 		andi	a4,a4,0xff
 1507 0096 63E7E800 		bgtu	a4,a7,.L130
 588:C:/Users/stapi/OneDrive/Desktop/GD32VW553/V1_MQTT_OK/GD32VW55X_Wifi_BLE_SDK/GD32VW55x_RELEASE_V1.0.2/MSDK/util/src\debug_print.c ****         } else if (input[index] >= 'a' && input[index] <= 'f') {
 1508              		.loc 1 588 13 is_stmt 1
 588:C:/Users/stapi/OneDrive/Desktop/GD32VW553/V1_MQTT_OK/GD32VW55X_Wifi_BLE_SDK/GD32VW55x_RELEASE_V1.0.2/MSDK/util/src\debug_print.c ****         } else if (input[index] >= 'a' && input[index] <= 'f') {
 1509              		.loc 1 588 44 is_stmt 0
 1510 009a 938797FC 		addi	a5,a5,-55
 1511              	.L147:
 590:C:/Users/stapi/OneDrive/Desktop/GD32VW553/V1_MQTT_OK/GD32VW55X_Wifi_BLE_SDK/GD32VW55x_RELEASE_V1.0.2/MSDK/util/src\debug_print.c ****         } else {
 1512              		.loc 1 590 23
 1513 009e 93954760 		sext.b	a1,a5
 1514              	.LVL171:
 1515 00a2 7DB7     		j	.L129
 1516              	.LVL172:
 1517              	.L130:
 589:C:/Users/stapi/OneDrive/Desktop/GD32VW553/V1_MQTT_OK/GD32VW55X_Wifi_BLE_SDK/GD32VW55x_RELEASE_V1.0.2/MSDK/util/src\debug_print.c ****             iter_char = input[index] - 'a' + 0x0A;
 1518              		.loc 1 589 16 is_stmt 1
 589:C:/Users/stapi/OneDrive/Desktop/GD32VW553/V1_MQTT_OK/GD32VW55X_Wifi_BLE_SDK/GD32VW55x_RELEASE_V1.0.2/MSDK/util/src\debug_print.c ****             iter_char = input[index] - 'a' + 0x0A;
 1519              		.loc 1 589 40 is_stmt 0
 1520 00a4 1387F7F9 		addi	a4,a5,-97
 589:C:/Users/stapi/OneDrive/Desktop/GD32VW553/V1_MQTT_OK/GD32VW55X_Wifi_BLE_SDK/GD32VW55x_RELEASE_V1.0.2/MSDK/util/src\debug_print.c ****             iter_char = input[index] - 'a' + 0x0A;
 1521              		.loc 1 589 19
 1522 00a8 1377F70F 		andi	a4,a4,0xff
 1523 00ac 63E8E804 		bgtu	a4,a7,.L141
 590:C:/Users/stapi/OneDrive/Desktop/GD32VW553/V1_MQTT_OK/GD32VW55X_Wifi_BLE_SDK/GD32VW55x_RELEASE_V1.0.2/MSDK/util/src\debug_print.c ****         } else {
 1524              		.loc 1 590 13 is_stmt 1
 590:C:/Users/stapi/OneDrive/Desktop/GD32VW553/V1_MQTT_OK/GD32VW55X_Wifi_BLE_SDK/GD32VW55x_RELEASE_V1.0.2/MSDK/util/src\debug_print.c ****         } else {
 1525              		.loc 1 590 44 is_stmt 0
 1526 00b0 938797FA 		addi	a5,a5,-87
 1527 00b4 EDB7     		j	.L147
 1528              	.LVL173:
 1529              	.L131:
 598:C:/Users/stapi/OneDrive/Desktop/GD32VW553/V1_MQTT_OK/GD32VW55X_Wifi_BLE_SDK/GD32VW55x_RELEASE_V1.0.2/MSDK/util/src\debug_print.c ****             iter_char = input[index + 1] - 'A' + 0x0A;
 1530              		.loc 1 598 16 is_stmt 1
 598:C:/Users/stapi/OneDrive/Desktop/GD32VW553/V1_MQTT_OK/GD32VW55X_Wifi_BLE_SDK/GD32VW55x_RELEASE_V1.0.2/MSDK/util/src\debug_print.c ****             iter_char = input[index + 1] - 'A' + 0x0A;
 1531              		.loc 1 598 44 is_stmt 0
 1532 00b6 1385F7FB 		addi	a0,a5,-65
 598:C:/Users/stapi/OneDrive/Desktop/GD32VW553/V1_MQTT_OK/GD32VW55X_Wifi_BLE_SDK/GD32VW55x_RELEASE_V1.0.2/MSDK/util/src\debug_print.c ****             iter_char = input[index + 1] - 'A' + 0x0A;
 1533              		.loc 1 598 19
 1534 00ba 1375F50F 		andi	a0,a0,0xff
 1535 00be 63E7A800 		bgtu	a0,a7,.L133
 599:C:/Users/stapi/OneDrive/Desktop/GD32VW553/V1_MQTT_OK/GD32VW55X_Wifi_BLE_SDK/GD32VW55x_RELEASE_V1.0.2/MSDK/util/src\debug_print.c ****         } else if (input[index + 1] >= 'a' && input[index + 1] <= 'f') {
 1536              		.loc 1 599 13 is_stmt 1
 599:C:/Users/stapi/OneDrive/Desktop/GD32VW553/V1_MQTT_OK/GD32VW55X_Wifi_BLE_SDK/GD32VW55x_RELEASE_V1.0.2/MSDK/util/src\debug_print.c ****         } else if (input[index + 1] >= 'a' && input[index + 1] <= 'f') {
 1537              		.loc 1 599 48 is_stmt 0
 1538 00c2 938797FC 		addi	a5,a5,-55
 1539              	.L148:
 601:C:/Users/stapi/OneDrive/Desktop/GD32VW553/V1_MQTT_OK/GD32VW55X_Wifi_BLE_SDK/GD32VW55x_RELEASE_V1.0.2/MSDK/util/src\debug_print.c ****         } else {
 1540              		.loc 1 601 23
 1541 00c6 93974760 		sext.b	a5,a5
 1542              	.LVL174:
 1543 00ca 4DBF     		j	.L132
 1544              	.LVL175:
 1545              	.L133:
 600:C:/Users/stapi/OneDrive/Desktop/GD32VW553/V1_MQTT_OK/GD32VW55X_Wifi_BLE_SDK/GD32VW55x_RELEASE_V1.0.2/MSDK/util/src\debug_print.c ****             iter_char = input[index + 1] - 'a' + 0x0A;
 1546              		.loc 1 600 16 is_stmt 1
 600:C:/Users/stapi/OneDrive/Desktop/GD32VW553/V1_MQTT_OK/GD32VW55X_Wifi_BLE_SDK/GD32VW55x_RELEASE_V1.0.2/MSDK/util/src\debug_print.c ****             iter_char = input[index + 1] - 'a' + 0x0A;
 1547              		.loc 1 600 44 is_stmt 0
 1548 00cc 1385F7F9 		addi	a0,a5,-97
 600:C:/Users/stapi/OneDrive/Desktop/GD32VW553/V1_MQTT_OK/GD32VW55X_Wifi_BLE_SDK/GD32VW55x_RELEASE_V1.0.2/MSDK/util/src\debug_print.c ****             iter_char = input[index + 1] - 'a' + 0x0A;
 1549              		.loc 1 600 19
 1550 00d0 1375F50F 		andi	a0,a0,0xff
 1551 00d4 63E5A800 		bgtu	a0,a7,.L134
 601:C:/Users/stapi/OneDrive/Desktop/GD32VW553/V1_MQTT_OK/GD32VW55X_Wifi_BLE_SDK/GD32VW55x_RELEASE_V1.0.2/MSDK/util/src\debug_print.c ****         } else {
 1552              		.loc 1 601 13 is_stmt 1
 601:C:/Users/stapi/OneDrive/Desktop/GD32VW553/V1_MQTT_OK/GD32VW55X_Wifi_BLE_SDK/GD32VW55x_RELEASE_V1.0.2/MSDK/util/src\debug_print.c ****         } else {
 1553              		.loc 1 601 48 is_stmt 0
 1554 00d8 938797FA 		addi	a5,a5,-87
 1555 00dc EDB7     		j	.L148
 1556              	.L134:
 603:C:/Users/stapi/OneDrive/Desktop/GD32VW553/V1_MQTT_OK/GD32VW55X_Wifi_BLE_SDK/GD32VW55x_RELEASE_V1.0.2/MSDK/util/src\debug_print.c ****             return -3;
 1557              		.loc 1 603 13 is_stmt 1
 1558 00de 37050000 		lui	a0,%hi(.LC6)
 1559 00e2 13050500 		addi	a0,a0,%lo(.LC6)
 1560 00e6 97000000 		call	printf
 1560      E7800000 
 1561              	.LVL176:
 604:C:/Users/stapi/OneDrive/Desktop/GD32VW553/V1_MQTT_OK/GD32VW55X_Wifi_BLE_SDK/GD32VW55x_RELEASE_V1.0.2/MSDK/util/src\debug_print.c ****         }
 1562              		.loc 1 604 13
 604:C:/Users/stapi/OneDrive/Desktop/GD32VW553/V1_MQTT_OK/GD32VW55X_Wifi_BLE_SDK/GD32VW55x_RELEASE_V1.0.2/MSDK/util/src\debug_print.c ****         }
 1563              		.loc 1 604 20 is_stmt 0
 1564 00ee 7555     		li	a0,-3
 1565              	.LVL177:
 1566              	.L126:
 610:C:/Users/stapi/OneDrive/Desktop/GD32VW553/V1_MQTT_OK/GD32VW55X_Wifi_BLE_SDK/GD32VW55x_RELEASE_V1.0.2/MSDK/util/src\debug_print.c **** }
 1567              		.loc 1 610 1
 1568 00f0 17030000 		tail	__riscv_restore_3
 1568      67000300 
 1569              		.cfi_restore 18
 1570              		.cfi_restore 9
 1571              		.cfi_restore 8
 1572              		.cfi_restore 1
 1573              		.cfi_def_cfa_offset 0
 1574              	.LVL178:
 1575              	.L136:
 579:C:/Users/stapi/OneDrive/Desktop/GD32VW553/V1_MQTT_OK/GD32VW55X_Wifi_BLE_SDK/GD32VW55x_RELEASE_V1.0.2/MSDK/util/src\debug_print.c ****     }
 1576              		.loc 1 579 16
 1577 00f8 7D55     		li	a0,-1
 1578              	.LVL179:
 1579              		.loc 1 610 1
 1580 00fa 8280     		ret
 1581              	.LVL180:
 1582              	.L141:
 1583              		.cfi_def_cfa_offset 16
 1584              		.cfi_offset 1, -4
 1585              		.cfi_offset 8, -8
 1586              		.cfi_offset 9, -12
 1587              		.cfi_offset 18, -16
 592:C:/Users/stapi/OneDrive/Desktop/GD32VW553/V1_MQTT_OK/GD32VW55X_Wifi_BLE_SDK/GD32VW55x_RELEASE_V1.0.2/MSDK/util/src\debug_print.c ****         }
 1588              		.loc 1 592 20
 1589 00fc 7955     		li	a0,-2
 1590 00fe CDBF     		j	.L126
 1591              		.cfi_endproc
 1592              	.LFE375:
 1594              		.section	.text.dbg_vsnprintf_offset,"ax",@progbits
 1595              		.align	1
 1596              		.globl	dbg_vsnprintf_offset
 1598              	dbg_vsnprintf_offset:
 1599              	.LFB377:
 611:C:/Users/stapi/OneDrive/Desktop/GD32VW553/V1_MQTT_OK/GD32VW55X_Wifi_BLE_SDK/GD32VW55x_RELEASE_V1.0.2/MSDK/util/src\debug_print.c **** 
 612:C:/Users/stapi/OneDrive/Desktop/GD32VW553/V1_MQTT_OK/GD32VW55X_Wifi_BLE_SDK/GD32VW55x_RELEASE_V1.0.2/MSDK/util/src\debug_print.c **** 
 613:C:/Users/stapi/OneDrive/Desktop/GD32VW553/V1_MQTT_OK/GD32VW55X_Wifi_BLE_SDK/GD32VW55x_RELEASE_V1.0.2/MSDK/util/src\debug_print.c **** /**
 614:C:/Users/stapi/OneDrive/Desktop/GD32VW553/V1_MQTT_OK/GD32VW55X_Wifi_BLE_SDK/GD32VW55x_RELEASE_V1.0.2/MSDK/util/src\debug_print.c ****  ****************************************************************************************
 615:C:/Users/stapi/OneDrive/Desktop/GD32VW553/V1_MQTT_OK/GD32VW55X_Wifi_BLE_SDK/GD32VW55x_RELEASE_V1.0.2/MSDK/util/src\debug_print.c ****  * @brief Function to read a particular character and map its type
 616:C:/Users/stapi/OneDrive/Desktop/GD32VW553/V1_MQTT_OK/GD32VW55X_Wifi_BLE_SDK/GD32VW55x_RELEASE_V1.0.2/MSDK/util/src\debug_print.c ****  *
 617:C:/Users/stapi/OneDrive/Desktop/GD32VW553/V1_MQTT_OK/GD32VW55X_Wifi_BLE_SDK/GD32VW55x_RELEASE_V1.0.2/MSDK/util/src\debug_print.c ****  * This function is called to read a particular character and fetch its type
 618:C:/Users/stapi/OneDrive/Desktop/GD32VW553/V1_MQTT_OK/GD32VW55X_Wifi_BLE_SDK/GD32VW55x_RELEASE_V1.0.2/MSDK/util/src\debug_print.c ****  *
 619:C:/Users/stapi/OneDrive/Desktop/GD32VW553/V1_MQTT_OK/GD32VW55X_Wifi_BLE_SDK/GD32VW55x_RELEASE_V1.0.2/MSDK/util/src\debug_print.c ****  * @param[in] c Input character
 620:C:/Users/stapi/OneDrive/Desktop/GD32VW553/V1_MQTT_OK/GD32VW55X_Wifi_BLE_SDK/GD32VW55x_RELEASE_V1.0.2/MSDK/util/src\debug_print.c ****  *
 621:C:/Users/stapi/OneDrive/Desktop/GD32VW553/V1_MQTT_OK/GD32VW55X_Wifi_BLE_SDK/GD32VW55x_RELEASE_V1.0.2/MSDK/util/src\debug_print.c ****  * @return Type of the character
 622:C:/Users/stapi/OneDrive/Desktop/GD32VW553/V1_MQTT_OK/GD32VW55X_Wifi_BLE_SDK/GD32VW55x_RELEASE_V1.0.2/MSDK/util/src\debug_print.c ****  ****************************************************************************************
 623:C:/Users/stapi/OneDrive/Desktop/GD32VW553/V1_MQTT_OK/GD32VW55X_Wifi_BLE_SDK/GD32VW55x_RELEASE_V1.0.2/MSDK/util/src\debug_print.c ****  */
 624:C:/Users/stapi/OneDrive/Desktop/GD32VW553/V1_MQTT_OK/GD32VW55X_Wifi_BLE_SDK/GD32VW55x_RELEASE_V1.0.2/MSDK/util/src\debug_print.c **** static uint32_t type_get(char c)
 625:C:/Users/stapi/OneDrive/Desktop/GD32VW553/V1_MQTT_OK/GD32VW55X_Wifi_BLE_SDK/GD32VW55x_RELEASE_V1.0.2/MSDK/util/src\debug_print.c **** {
 626:C:/Users/stapi/OneDrive/Desktop/GD32VW553/V1_MQTT_OK/GD32VW55X_Wifi_BLE_SDK/GD32VW55x_RELEASE_V1.0.2/MSDK/util/src\debug_print.c ****     uint32_t res;
 627:C:/Users/stapi/OneDrive/Desktop/GD32VW553/V1_MQTT_OK/GD32VW55X_Wifi_BLE_SDK/GD32VW55x_RELEASE_V1.0.2/MSDK/util/src\debug_print.c **** 
 628:C:/Users/stapi/OneDrive/Desktop/GD32VW553/V1_MQTT_OK/GD32VW55X_Wifi_BLE_SDK/GD32VW55x_RELEASE_V1.0.2/MSDK/util/src\debug_print.c ****     switch (c)
 629:C:/Users/stapi/OneDrive/Desktop/GD32VW553/V1_MQTT_OK/GD32VW55X_Wifi_BLE_SDK/GD32VW55x_RELEASE_V1.0.2/MSDK/util/src\debug_print.c ****     {
 630:C:/Users/stapi/OneDrive/Desktop/GD32VW553/V1_MQTT_OK/GD32VW55X_Wifi_BLE_SDK/GD32VW55x_RELEASE_V1.0.2/MSDK/util/src\debug_print.c ****     case '%':
 631:C:/Users/stapi/OneDrive/Desktop/GD32VW553/V1_MQTT_OK/GD32VW55X_Wifi_BLE_SDK/GD32VW55x_RELEASE_V1.0.2/MSDK/util/src\debug_print.c ****         res =  C_PERCENT;
 632:C:/Users/stapi/OneDrive/Desktop/GD32VW553/V1_MQTT_OK/GD32VW55X_Wifi_BLE_SDK/GD32VW55x_RELEASE_V1.0.2/MSDK/util/src\debug_print.c ****         break;
 633:C:/Users/stapi/OneDrive/Desktop/GD32VW553/V1_MQTT_OK/GD32VW55X_Wifi_BLE_SDK/GD32VW55x_RELEASE_V1.0.2/MSDK/util/src\debug_print.c **** 
 634:C:/Users/stapi/OneDrive/Desktop/GD32VW553/V1_MQTT_OK/GD32VW55X_Wifi_BLE_SDK/GD32VW55x_RELEASE_V1.0.2/MSDK/util/src\debug_print.c ****     case '.':
 635:C:/Users/stapi/OneDrive/Desktop/GD32VW553/V1_MQTT_OK/GD32VW55X_Wifi_BLE_SDK/GD32VW55x_RELEASE_V1.0.2/MSDK/util/src\debug_print.c ****         res =  C_DOT;
 636:C:/Users/stapi/OneDrive/Desktop/GD32VW553/V1_MQTT_OK/GD32VW55X_Wifi_BLE_SDK/GD32VW55x_RELEASE_V1.0.2/MSDK/util/src\debug_print.c ****         break;
 637:C:/Users/stapi/OneDrive/Desktop/GD32VW553/V1_MQTT_OK/GD32VW55X_Wifi_BLE_SDK/GD32VW55x_RELEASE_V1.0.2/MSDK/util/src\debug_print.c **** 
 638:C:/Users/stapi/OneDrive/Desktop/GD32VW553/V1_MQTT_OK/GD32VW55X_Wifi_BLE_SDK/GD32VW55x_RELEASE_V1.0.2/MSDK/util/src\debug_print.c ****     case '0':
 639:C:/Users/stapi/OneDrive/Desktop/GD32VW553/V1_MQTT_OK/GD32VW55X_Wifi_BLE_SDK/GD32VW55x_RELEASE_V1.0.2/MSDK/util/src\debug_print.c ****         res =  C_ZERO;
 640:C:/Users/stapi/OneDrive/Desktop/GD32VW553/V1_MQTT_OK/GD32VW55X_Wifi_BLE_SDK/GD32VW55x_RELEASE_V1.0.2/MSDK/util/src\debug_print.c ****         break;
 641:C:/Users/stapi/OneDrive/Desktop/GD32VW553/V1_MQTT_OK/GD32VW55X_Wifi_BLE_SDK/GD32VW55x_RELEASE_V1.0.2/MSDK/util/src\debug_print.c **** 
 642:C:/Users/stapi/OneDrive/Desktop/GD32VW553/V1_MQTT_OK/GD32VW55X_Wifi_BLE_SDK/GD32VW55x_RELEASE_V1.0.2/MSDK/util/src\debug_print.c ****     case ' ':
 643:C:/Users/stapi/OneDrive/Desktop/GD32VW553/V1_MQTT_OK/GD32VW55X_Wifi_BLE_SDK/GD32VW55x_RELEASE_V1.0.2/MSDK/util/src\debug_print.c ****     case '+':
 644:C:/Users/stapi/OneDrive/Desktop/GD32VW553/V1_MQTT_OK/GD32VW55X_Wifi_BLE_SDK/GD32VW55x_RELEASE_V1.0.2/MSDK/util/src\debug_print.c ****     case '-':
 645:C:/Users/stapi/OneDrive/Desktop/GD32VW553/V1_MQTT_OK/GD32VW55X_Wifi_BLE_SDK/GD32VW55x_RELEASE_V1.0.2/MSDK/util/src\debug_print.c ****         res =  C_FLAG;
 646:C:/Users/stapi/OneDrive/Desktop/GD32VW553/V1_MQTT_OK/GD32VW55X_Wifi_BLE_SDK/GD32VW55x_RELEASE_V1.0.2/MSDK/util/src\debug_print.c ****         break;
 647:C:/Users/stapi/OneDrive/Desktop/GD32VW553/V1_MQTT_OK/GD32VW55X_Wifi_BLE_SDK/GD32VW55x_RELEASE_V1.0.2/MSDK/util/src\debug_print.c **** 
 648:C:/Users/stapi/OneDrive/Desktop/GD32VW553/V1_MQTT_OK/GD32VW55X_Wifi_BLE_SDK/GD32VW55x_RELEASE_V1.0.2/MSDK/util/src\debug_print.c ****     case 'h':
 649:C:/Users/stapi/OneDrive/Desktop/GD32VW553/V1_MQTT_OK/GD32VW55X_Wifi_BLE_SDK/GD32VW55x_RELEASE_V1.0.2/MSDK/util/src\debug_print.c ****     case 'l':
 650:C:/Users/stapi/OneDrive/Desktop/GD32VW553/V1_MQTT_OK/GD32VW55X_Wifi_BLE_SDK/GD32VW55x_RELEASE_V1.0.2/MSDK/util/src\debug_print.c ****         res =  C_SIZE;
 651:C:/Users/stapi/OneDrive/Desktop/GD32VW553/V1_MQTT_OK/GD32VW55X_Wifi_BLE_SDK/GD32VW55x_RELEASE_V1.0.2/MSDK/util/src\debug_print.c ****         break;
 652:C:/Users/stapi/OneDrive/Desktop/GD32VW553/V1_MQTT_OK/GD32VW55X_Wifi_BLE_SDK/GD32VW55x_RELEASE_V1.0.2/MSDK/util/src\debug_print.c **** 
 653:C:/Users/stapi/OneDrive/Desktop/GD32VW553/V1_MQTT_OK/GD32VW55X_Wifi_BLE_SDK/GD32VW55x_RELEASE_V1.0.2/MSDK/util/src\debug_print.c ****     case 'x':
 654:C:/Users/stapi/OneDrive/Desktop/GD32VW553/V1_MQTT_OK/GD32VW55X_Wifi_BLE_SDK/GD32VW55x_RELEASE_V1.0.2/MSDK/util/src\debug_print.c ****     case 'X':
 655:C:/Users/stapi/OneDrive/Desktop/GD32VW553/V1_MQTT_OK/GD32VW55X_Wifi_BLE_SDK/GD32VW55x_RELEASE_V1.0.2/MSDK/util/src\debug_print.c ****     case 'd':
 656:C:/Users/stapi/OneDrive/Desktop/GD32VW553/V1_MQTT_OK/GD32VW55X_Wifi_BLE_SDK/GD32VW55x_RELEASE_V1.0.2/MSDK/util/src\debug_print.c ****     case 'b':
 657:C:/Users/stapi/OneDrive/Desktop/GD32VW553/V1_MQTT_OK/GD32VW55X_Wifi_BLE_SDK/GD32VW55x_RELEASE_V1.0.2/MSDK/util/src\debug_print.c ****     case 'i':
 658:C:/Users/stapi/OneDrive/Desktop/GD32VW553/V1_MQTT_OK/GD32VW55X_Wifi_BLE_SDK/GD32VW55x_RELEASE_V1.0.2/MSDK/util/src\debug_print.c ****     case 'c':
 659:C:/Users/stapi/OneDrive/Desktop/GD32VW553/V1_MQTT_OK/GD32VW55X_Wifi_BLE_SDK/GD32VW55x_RELEASE_V1.0.2/MSDK/util/src\debug_print.c ****     case 'u':
 660:C:/Users/stapi/OneDrive/Desktop/GD32VW553/V1_MQTT_OK/GD32VW55X_Wifi_BLE_SDK/GD32VW55x_RELEASE_V1.0.2/MSDK/util/src\debug_print.c ****     case 's':
 661:C:/Users/stapi/OneDrive/Desktop/GD32VW553/V1_MQTT_OK/GD32VW55X_Wifi_BLE_SDK/GD32VW55x_RELEASE_V1.0.2/MSDK/util/src\debug_print.c ****     case 'm':
 662:C:/Users/stapi/OneDrive/Desktop/GD32VW553/V1_MQTT_OK/GD32VW55X_Wifi_BLE_SDK/GD32VW55x_RELEASE_V1.0.2/MSDK/util/src\debug_print.c ****     case 'M':
 663:C:/Users/stapi/OneDrive/Desktop/GD32VW553/V1_MQTT_OK/GD32VW55X_Wifi_BLE_SDK/GD32VW55x_RELEASE_V1.0.2/MSDK/util/src\debug_print.c ****     case 'a':
 664:C:/Users/stapi/OneDrive/Desktop/GD32VW553/V1_MQTT_OK/GD32VW55X_Wifi_BLE_SDK/GD32VW55x_RELEASE_V1.0.2/MSDK/util/src\debug_print.c ****     case 'A':
 665:C:/Users/stapi/OneDrive/Desktop/GD32VW553/V1_MQTT_OK/GD32VW55X_Wifi_BLE_SDK/GD32VW55x_RELEASE_V1.0.2/MSDK/util/src\debug_print.c ****         res =  C_TYPE;
 666:C:/Users/stapi/OneDrive/Desktop/GD32VW553/V1_MQTT_OK/GD32VW55X_Wifi_BLE_SDK/GD32VW55x_RELEASE_V1.0.2/MSDK/util/src\debug_print.c ****         break;
 667:C:/Users/stapi/OneDrive/Desktop/GD32VW553/V1_MQTT_OK/GD32VW55X_Wifi_BLE_SDK/GD32VW55x_RELEASE_V1.0.2/MSDK/util/src\debug_print.c **** 
 668:C:/Users/stapi/OneDrive/Desktop/GD32VW553/V1_MQTT_OK/GD32VW55X_Wifi_BLE_SDK/GD32VW55x_RELEASE_V1.0.2/MSDK/util/src\debug_print.c ****     case '*':
 669:C:/Users/stapi/OneDrive/Desktop/GD32VW553/V1_MQTT_OK/GD32VW55X_Wifi_BLE_SDK/GD32VW55x_RELEASE_V1.0.2/MSDK/util/src\debug_print.c ****         res =  C_DIGIT;
 670:C:/Users/stapi/OneDrive/Desktop/GD32VW553/V1_MQTT_OK/GD32VW55X_Wifi_BLE_SDK/GD32VW55x_RELEASE_V1.0.2/MSDK/util/src\debug_print.c ****         break;
 671:C:/Users/stapi/OneDrive/Desktop/GD32VW553/V1_MQTT_OK/GD32VW55X_Wifi_BLE_SDK/GD32VW55x_RELEASE_V1.0.2/MSDK/util/src\debug_print.c **** 
 672:C:/Users/stapi/OneDrive/Desktop/GD32VW553/V1_MQTT_OK/GD32VW55X_Wifi_BLE_SDK/GD32VW55x_RELEASE_V1.0.2/MSDK/util/src\debug_print.c ****     default:
 673:C:/Users/stapi/OneDrive/Desktop/GD32VW553/V1_MQTT_OK/GD32VW55X_Wifi_BLE_SDK/GD32VW55x_RELEASE_V1.0.2/MSDK/util/src\debug_print.c ****         if (('1' <= c) && (c <= '9'))
 674:C:/Users/stapi/OneDrive/Desktop/GD32VW553/V1_MQTT_OK/GD32VW55X_Wifi_BLE_SDK/GD32VW55x_RELEASE_V1.0.2/MSDK/util/src\debug_print.c ****         {
 675:C:/Users/stapi/OneDrive/Desktop/GD32VW553/V1_MQTT_OK/GD32VW55X_Wifi_BLE_SDK/GD32VW55x_RELEASE_V1.0.2/MSDK/util/src\debug_print.c ****             res =  C_DIGIT;
 676:C:/Users/stapi/OneDrive/Desktop/GD32VW553/V1_MQTT_OK/GD32VW55X_Wifi_BLE_SDK/GD32VW55x_RELEASE_V1.0.2/MSDK/util/src\debug_print.c ****         }
 677:C:/Users/stapi/OneDrive/Desktop/GD32VW553/V1_MQTT_OK/GD32VW55X_Wifi_BLE_SDK/GD32VW55x_RELEASE_V1.0.2/MSDK/util/src\debug_print.c ****         else
 678:C:/Users/stapi/OneDrive/Desktop/GD32VW553/V1_MQTT_OK/GD32VW55X_Wifi_BLE_SDK/GD32VW55x_RELEASE_V1.0.2/MSDK/util/src\debug_print.c ****         {
 679:C:/Users/stapi/OneDrive/Desktop/GD32VW553/V1_MQTT_OK/GD32VW55X_Wifi_BLE_SDK/GD32VW55x_RELEASE_V1.0.2/MSDK/util/src\debug_print.c ****             res =  C_OTHER;
 680:C:/Users/stapi/OneDrive/Desktop/GD32VW553/V1_MQTT_OK/GD32VW55X_Wifi_BLE_SDK/GD32VW55x_RELEASE_V1.0.2/MSDK/util/src\debug_print.c ****         }
 681:C:/Users/stapi/OneDrive/Desktop/GD32VW553/V1_MQTT_OK/GD32VW55X_Wifi_BLE_SDK/GD32VW55x_RELEASE_V1.0.2/MSDK/util/src\debug_print.c ****         break;
 682:C:/Users/stapi/OneDrive/Desktop/GD32VW553/V1_MQTT_OK/GD32VW55X_Wifi_BLE_SDK/GD32VW55x_RELEASE_V1.0.2/MSDK/util/src\debug_print.c ****     }
 683:C:/Users/stapi/OneDrive/Desktop/GD32VW553/V1_MQTT_OK/GD32VW55X_Wifi_BLE_SDK/GD32VW55x_RELEASE_V1.0.2/MSDK/util/src\debug_print.c **** 
 684:C:/Users/stapi/OneDrive/Desktop/GD32VW553/V1_MQTT_OK/GD32VW55X_Wifi_BLE_SDK/GD32VW55x_RELEASE_V1.0.2/MSDK/util/src\debug_print.c ****     return res;
 685:C:/Users/stapi/OneDrive/Desktop/GD32VW553/V1_MQTT_OK/GD32VW55X_Wifi_BLE_SDK/GD32VW55x_RELEASE_V1.0.2/MSDK/util/src\debug_print.c **** }
 686:C:/Users/stapi/OneDrive/Desktop/GD32VW553/V1_MQTT_OK/GD32VW55X_Wifi_BLE_SDK/GD32VW55x_RELEASE_V1.0.2/MSDK/util/src\debug_print.c **** 
 687:C:/Users/stapi/OneDrive/Desktop/GD32VW553/V1_MQTT_OK/GD32VW55X_Wifi_BLE_SDK/GD32VW55x_RELEASE_V1.0.2/MSDK/util/src\debug_print.c **** uint32_t dbg_vsnprintf_offset(char *buffer, uint32_t size, uint32_t offset,
 688:C:/Users/stapi/OneDrive/Desktop/GD32VW553/V1_MQTT_OK/GD32VW55X_Wifi_BLE_SDK/GD32VW55x_RELEASE_V1.0.2/MSDK/util/src\debug_print.c ****                               const char *fmt, va_list args)
 689:C:/Users/stapi/OneDrive/Desktop/GD32VW553/V1_MQTT_OK/GD32VW55X_Wifi_BLE_SDK/GD32VW55x_RELEASE_V1.0.2/MSDK/util/src\debug_print.c **** {
 1600              		.loc 1 689 1 is_stmt 1
 1601              		.cfi_startproc
 1602              	.LVL181:
 1603 0000 5971     		addi	sp,sp,-112
 1604              		.cfi_def_cfa_offset 112
 1605 0002 A2D6     		sw	s0,108(sp)
 1606 0004 A6D4     		sw	s1,104(sp)
 1607 0006 CAD2     		sw	s2,100(sp)
 1608 0008 CED0     		sw	s3,96(sp)
 1609 000a D2CE     		sw	s4,92(sp)
 1610 000c D6CC     		sw	s5,88(sp)
 1611 000e DACA     		sw	s6,84(sp)
 1612 0010 DEC8     		sw	s7,80(sp)
 1613 0012 E2C6     		sw	s8,76(sp)
 1614 0014 E6C4     		sw	s9,72(sp)
 1615 0016 EAC2     		sw	s10,68(sp)
 1616 0018 EEC0     		sw	s11,64(sp)
 1617              		.cfi_offset 8, -4
 1618              		.cfi_offset 9, -8
 1619              		.cfi_offset 18, -12
 1620              		.cfi_offset 19, -16
 1621              		.cfi_offset 20, -20
 1622              		.cfi_offset 21, -24
 1623              		.cfi_offset 22, -28
 1624              		.cfi_offset 23, -32
 1625              		.cfi_offset 24, -36
 1626              		.cfi_offset 25, -40
 1627              		.cfi_offset 26, -44
 1628              		.cfi_offset 27, -48
 1629              		.loc 1 689 1 is_stmt 0
 1630 001a AA88     		mv	a7,a0
 690:C:/Users/stapi/OneDrive/Desktop/GD32VW553/V1_MQTT_OK/GD32VW55X_Wifi_BLE_SDK/GD32VW55x_RELEASE_V1.0.2/MSDK/util/src\debug_print.c ****     uint32_t state_current = S_COPY;      // Initial state
 1631              		.loc 1 690 5 is_stmt 1
 1632              	.LVL182:
 691:C:/Users/stapi/OneDrive/Desktop/GD32VW553/V1_MQTT_OK/GD32VW55X_Wifi_BLE_SDK/GD32VW55x_RELEASE_V1.0.2/MSDK/util/src\debug_print.c ****     char c;
 1633              		.loc 1 691 5
 692:C:/Users/stapi/OneDrive/Desktop/GD32VW553/V1_MQTT_OK/GD32VW55X_Wifi_BLE_SDK/GD32VW55x_RELEASE_V1.0.2/MSDK/util/src\debug_print.c **** 
 693:C:/Users/stapi/OneDrive/Desktop/GD32VW553/V1_MQTT_OK/GD32VW55X_Wifi_BLE_SDK/GD32VW55x_RELEASE_V1.0.2/MSDK/util/src\debug_print.c ****     char *fmt_field_ptr = NULL;
 1634              		.loc 1 693 5
 694:C:/Users/stapi/OneDrive/Desktop/GD32VW553/V1_MQTT_OK/GD32VW55X_Wifi_BLE_SDK/GD32VW55x_RELEASE_V1.0.2/MSDK/util/src\debug_print.c ****     int fmt_field_size = 0;
 1635              		.loc 1 694 5
 695:C:/Users/stapi/OneDrive/Desktop/GD32VW553/V1_MQTT_OK/GD32VW55X_Wifi_BLE_SDK/GD32VW55x_RELEASE_V1.0.2/MSDK/util/src\debug_print.c **** 
 696:C:/Users/stapi/OneDrive/Desktop/GD32VW553/V1_MQTT_OK/GD32VW55X_Wifi_BLE_SDK/GD32VW55x_RELEASE_V1.0.2/MSDK/util/src\debug_print.c ****     char buffer_tmp[64];
 1636              		.loc 1 696 5
 697:C:/Users/stapi/OneDrive/Desktop/GD32VW553/V1_MQTT_OK/GD32VW55X_Wifi_BLE_SDK/GD32VW55x_RELEASE_V1.0.2/MSDK/util/src\debug_print.c **** 
 698:C:/Users/stapi/OneDrive/Desktop/GD32VW553/V1_MQTT_OK/GD32VW55X_Wifi_BLE_SDK/GD32VW55x_RELEASE_V1.0.2/MSDK/util/src\debug_print.c ****     int field_width = 0;
 1637              		.loc 1 698 5
 699:C:/Users/stapi/OneDrive/Desktop/GD32VW553/V1_MQTT_OK/GD32VW55X_Wifi_BLE_SDK/GD32VW55x_RELEASE_V1.0.2/MSDK/util/src\debug_print.c ****     char field_flags = 0;
 1638              		.loc 1 699 5
 700:C:/Users/stapi/OneDrive/Desktop/GD32VW553/V1_MQTT_OK/GD32VW55X_Wifi_BLE_SDK/GD32VW55x_RELEASE_V1.0.2/MSDK/util/src\debug_print.c ****     int field_precision = 0;
 1639              		.loc 1 700 5
 701:C:/Users/stapi/OneDrive/Desktop/GD32VW553/V1_MQTT_OK/GD32VW55X_Wifi_BLE_SDK/GD32VW55x_RELEASE_V1.0.2/MSDK/util/src\debug_print.c ****     int field_padding = 0;
 1640              		.loc 1 701 5
 702:C:/Users/stapi/OneDrive/Desktop/GD32VW553/V1_MQTT_OK/GD32VW55X_Wifi_BLE_SDK/GD32VW55x_RELEASE_V1.0.2/MSDK/util/src\debug_print.c **** 
 703:C:/Users/stapi/OneDrive/Desktop/GD32VW553/V1_MQTT_OK/GD32VW55X_Wifi_BLE_SDK/GD32VW55x_RELEASE_V1.0.2/MSDK/util/src\debug_print.c ****     int32_t value;
 1641              		.loc 1 703 5
 704:C:/Users/stapi/OneDrive/Desktop/GD32VW553/V1_MQTT_OK/GD32VW55X_Wifi_BLE_SDK/GD32VW55x_RELEASE_V1.0.2/MSDK/util/src\debug_print.c ****     char *tmp_ptr = NULL;
 1642              		.loc 1 704 5
 705:C:/Users/stapi/OneDrive/Desktop/GD32VW553/V1_MQTT_OK/GD32VW55X_Wifi_BLE_SDK/GD32VW55x_RELEASE_V1.0.2/MSDK/util/src\debug_print.c **** 
 706:C:/Users/stapi/OneDrive/Desktop/GD32VW553/V1_MQTT_OK/GD32VW55X_Wifi_BLE_SDK/GD32VW55x_RELEASE_V1.0.2/MSDK/util/src\debug_print.c ****     uint32_t res = 0, remain;
 1643              		.loc 1 706 5
 707:C:/Users/stapi/OneDrive/Desktop/GD32VW553/V1_MQTT_OK/GD32VW55X_Wifi_BLE_SDK/GD32VW55x_RELEASE_V1.0.2/MSDK/util/src\debug_print.c **** 
 708:C:/Users/stapi/OneDrive/Desktop/GD32VW553/V1_MQTT_OK/GD32VW55X_Wifi_BLE_SDK/GD32VW55x_RELEASE_V1.0.2/MSDK/util/src\debug_print.c ****     #define WRITE_CHAR(_c) if (remain && res >= offset) \
 709:C:/Users/stapi/OneDrive/Desktop/GD32VW553/V1_MQTT_OK/GD32VW55X_Wifi_BLE_SDK/GD32VW55x_RELEASE_V1.0.2/MSDK/util/src\debug_print.c ****         {                                               \
 710:C:/Users/stapi/OneDrive/Desktop/GD32VW553/V1_MQTT_OK/GD32VW55X_Wifi_BLE_SDK/GD32VW55x_RELEASE_V1.0.2/MSDK/util/src\debug_print.c ****             *buffer++ = (_c);remain--;                  \
 711:C:/Users/stapi/OneDrive/Desktop/GD32VW553/V1_MQTT_OK/GD32VW55X_Wifi_BLE_SDK/GD32VW55x_RELEASE_V1.0.2/MSDK/util/src\debug_print.c ****         }                                               \
 712:C:/Users/stapi/OneDrive/Desktop/GD32VW553/V1_MQTT_OK/GD32VW55X_Wifi_BLE_SDK/GD32VW55x_RELEASE_V1.0.2/MSDK/util/src\debug_print.c ****         res++
 713:C:/Users/stapi/OneDrive/Desktop/GD32VW553/V1_MQTT_OK/GD32VW55X_Wifi_BLE_SDK/GD32VW55x_RELEASE_V1.0.2/MSDK/util/src\debug_print.c **** 
 714:C:/Users/stapi/OneDrive/Desktop/GD32VW553/V1_MQTT_OK/GD32VW55X_Wifi_BLE_SDK/GD32VW55x_RELEASE_V1.0.2/MSDK/util/src\debug_print.c ****     // Check parameters: If buffer is NULL then size MUST be 0.
 715:C:/Users/stapi/OneDrive/Desktop/GD32VW553/V1_MQTT_OK/GD32VW55X_Wifi_BLE_SDK/GD32VW55x_RELEASE_V1.0.2/MSDK/util/src\debug_print.c ****     if (buffer == NULL)
 1644              		.loc 1 715 5
 1645              		.loc 1 715 8 is_stmt 0
 1646 001c 11E1     		bne	a0,zero,.L150
 716:C:/Users/stapi/OneDrive/Desktop/GD32VW553/V1_MQTT_OK/GD32VW55X_Wifi_BLE_SDK/GD32VW55x_RELEASE_V1.0.2/MSDK/util/src\debug_print.c ****         size = 0;
 1647              		.loc 1 716 14
 1648 001e 8145     		li	a1,0
 1649              	.LVL183:
 1650              	.L150:
 717:C:/Users/stapi/OneDrive/Desktop/GD32VW553/V1_MQTT_OK/GD32VW55X_Wifi_BLE_SDK/GD32VW55x_RELEASE_V1.0.2/MSDK/util/src\debug_print.c **** 
 718:C:/Users/stapi/OneDrive/Desktop/GD32VW553/V1_MQTT_OK/GD32VW55X_Wifi_BLE_SDK/GD32VW55x_RELEASE_V1.0.2/MSDK/util/src\debug_print.c ****     remain = size;
 1651              		.loc 1 718 5 is_stmt 1
 719:C:/Users/stapi/OneDrive/Desktop/GD32VW553/V1_MQTT_OK/GD32VW55X_Wifi_BLE_SDK/GD32VW55x_RELEASE_V1.0.2/MSDK/util/src\debug_print.c **** 
 720:C:/Users/stapi/OneDrive/Desktop/GD32VW553/V1_MQTT_OK/GD32VW55X_Wifi_BLE_SDK/GD32VW55x_RELEASE_V1.0.2/MSDK/util/src\debug_print.c ****     // For each char in format string
 721:C:/Users/stapi/OneDrive/Desktop/GD32VW553/V1_MQTT_OK/GD32VW55X_Wifi_BLE_SDK/GD32VW55x_RELEASE_V1.0.2/MSDK/util/src\debug_print.c ****     while ((c = *fmt++) != 0) {
 1652              		.loc 1 721 5
 1653 0020 37090000 		lui	s2,%hi(.L156)
 1654 0024 B7198000 		li	s3,8392704
 1655 0028 370A0000 		lui	s4,%hi(.L159)
 722:C:/Users/stapi/OneDrive/Desktop/GD32VW553/V1_MQTT_OK/GD32VW55X_Wifi_BLE_SDK/GD32VW55x_RELEASE_V1.0.2/MSDK/util/src\debug_print.c ****         state_current =  transition_table[state_current][type_get(c)];
 1656              		.loc 1 722 57 is_stmt 0
 1657 002c B70A0000 		lui	s5,%hi(.LANCHOR0)
 1658 0030 370B0000 		lui	s6,%hi(.L168)
 723:C:/Users/stapi/OneDrive/Desktop/GD32VW553/V1_MQTT_OK/GD32VW55X_Wifi_BLE_SDK/GD32VW55x_RELEASE_V1.0.2/MSDK/util/src\debug_print.c **** 
 724:C:/Users/stapi/OneDrive/Desktop/GD32VW553/V1_MQTT_OK/GD32VW55X_Wifi_BLE_SDK/GD32VW55x_RELEASE_V1.0.2/MSDK/util/src\debug_print.c ****         switch (state_current)
 725:C:/Users/stapi/OneDrive/Desktop/GD32VW553/V1_MQTT_OK/GD32VW55X_Wifi_BLE_SDK/GD32VW55x_RELEASE_V1.0.2/MSDK/util/src\debug_print.c ****         {
 726:C:/Users/stapi/OneDrive/Desktop/GD32VW553/V1_MQTT_OK/GD32VW55X_Wifi_BLE_SDK/GD32VW55x_RELEASE_V1.0.2/MSDK/util/src\debug_print.c ****         case S_COPY:
 727:C:/Users/stapi/OneDrive/Desktop/GD32VW553/V1_MQTT_OK/GD32VW55X_Wifi_BLE_SDK/GD32VW55x_RELEASE_V1.0.2/MSDK/util/src\debug_print.c ****             WRITE_CHAR(c);
 728:C:/Users/stapi/OneDrive/Desktop/GD32VW553/V1_MQTT_OK/GD32VW55X_Wifi_BLE_SDK/GD32VW55x_RELEASE_V1.0.2/MSDK/util/src\debug_print.c ****             break;
 729:C:/Users/stapi/OneDrive/Desktop/GD32VW553/V1_MQTT_OK/GD32VW55X_Wifi_BLE_SDK/GD32VW55x_RELEASE_V1.0.2/MSDK/util/src\debug_print.c **** 
 730:C:/Users/stapi/OneDrive/Desktop/GD32VW553/V1_MQTT_OK/GD32VW55X_Wifi_BLE_SDK/GD32VW55x_RELEASE_V1.0.2/MSDK/util/src\debug_print.c ****         case S_PERCENT:
 731:C:/Users/stapi/OneDrive/Desktop/GD32VW553/V1_MQTT_OK/GD32VW55X_Wifi_BLE_SDK/GD32VW55x_RELEASE_V1.0.2/MSDK/util/src\debug_print.c ****             // Assign default value for the conversion parameters
 732:C:/Users/stapi/OneDrive/Desktop/GD32VW553/V1_MQTT_OK/GD32VW55X_Wifi_BLE_SDK/GD32VW55x_RELEASE_V1.0.2/MSDK/util/src\debug_print.c ****             field_width = 0;
 733:C:/Users/stapi/OneDrive/Desktop/GD32VW553/V1_MQTT_OK/GD32VW55X_Wifi_BLE_SDK/GD32VW55x_RELEASE_V1.0.2/MSDK/util/src\debug_print.c ****             field_flags = 0;
 734:C:/Users/stapi/OneDrive/Desktop/GD32VW553/V1_MQTT_OK/GD32VW55X_Wifi_BLE_SDK/GD32VW55x_RELEASE_V1.0.2/MSDK/util/src\debug_print.c ****             field_precision = -1;
 735:C:/Users/stapi/OneDrive/Desktop/GD32VW553/V1_MQTT_OK/GD32VW55X_Wifi_BLE_SDK/GD32VW55x_RELEASE_V1.0.2/MSDK/util/src\debug_print.c ****             break;
 736:C:/Users/stapi/OneDrive/Desktop/GD32VW553/V1_MQTT_OK/GD32VW55X_Wifi_BLE_SDK/GD32VW55x_RELEASE_V1.0.2/MSDK/util/src\debug_print.c **** 
 737:C:/Users/stapi/OneDrive/Desktop/GD32VW553/V1_MQTT_OK/GD32VW55X_Wifi_BLE_SDK/GD32VW55x_RELEASE_V1.0.2/MSDK/util/src\debug_print.c ****         case S_FLAGS:
 738:C:/Users/stapi/OneDrive/Desktop/GD32VW553/V1_MQTT_OK/GD32VW55X_Wifi_BLE_SDK/GD32VW55x_RELEASE_V1.0.2/MSDK/util/src\debug_print.c ****             // set flag based on which flag character
 739:C:/Users/stapi/OneDrive/Desktop/GD32VW553/V1_MQTT_OK/GD32VW55X_Wifi_BLE_SDK/GD32VW55x_RELEASE_V1.0.2/MSDK/util/src\debug_print.c ****             switch (c)
 740:C:/Users/stapi/OneDrive/Desktop/GD32VW553/V1_MQTT_OK/GD32VW55X_Wifi_BLE_SDK/GD32VW55x_RELEASE_V1.0.2/MSDK/util/src\debug_print.c ****             {
 741:C:/Users/stapi/OneDrive/Desktop/GD32VW553/V1_MQTT_OK/GD32VW55X_Wifi_BLE_SDK/GD32VW55x_RELEASE_V1.0.2/MSDK/util/src\debug_print.c ****             case '-':
 742:C:/Users/stapi/OneDrive/Desktop/GD32VW553/V1_MQTT_OK/GD32VW55X_Wifi_BLE_SDK/GD32VW55x_RELEASE_V1.0.2/MSDK/util/src\debug_print.c ****                 // left justify
 743:C:/Users/stapi/OneDrive/Desktop/GD32VW553/V1_MQTT_OK/GD32VW55X_Wifi_BLE_SDK/GD32VW55x_RELEASE_V1.0.2/MSDK/util/src\debug_print.c ****                 field_flags |= FLAG_LEFT;
 744:C:/Users/stapi/OneDrive/Desktop/GD32VW553/V1_MQTT_OK/GD32VW55X_Wifi_BLE_SDK/GD32VW55x_RELEASE_V1.0.2/MSDK/util/src\debug_print.c ****                 break;
 745:C:/Users/stapi/OneDrive/Desktop/GD32VW553/V1_MQTT_OK/GD32VW55X_Wifi_BLE_SDK/GD32VW55x_RELEASE_V1.0.2/MSDK/util/src\debug_print.c ****             case '+':
 746:C:/Users/stapi/OneDrive/Desktop/GD32VW553/V1_MQTT_OK/GD32VW55X_Wifi_BLE_SDK/GD32VW55x_RELEASE_V1.0.2/MSDK/util/src\debug_print.c ****                 // force sign indicator
 747:C:/Users/stapi/OneDrive/Desktop/GD32VW553/V1_MQTT_OK/GD32VW55X_Wifi_BLE_SDK/GD32VW55x_RELEASE_V1.0.2/MSDK/util/src\debug_print.c ****                 field_flags |= FLAG_SIGN;
 748:C:/Users/stapi/OneDrive/Desktop/GD32VW553/V1_MQTT_OK/GD32VW55X_Wifi_BLE_SDK/GD32VW55x_RELEASE_V1.0.2/MSDK/util/src\debug_print.c ****                 break;
 749:C:/Users/stapi/OneDrive/Desktop/GD32VW553/V1_MQTT_OK/GD32VW55X_Wifi_BLE_SDK/GD32VW55x_RELEASE_V1.0.2/MSDK/util/src\debug_print.c ****             case ' ':
 750:C:/Users/stapi/OneDrive/Desktop/GD32VW553/V1_MQTT_OK/GD32VW55X_Wifi_BLE_SDK/GD32VW55x_RELEASE_V1.0.2/MSDK/util/src\debug_print.c ****                 // force sign or space
 751:C:/Users/stapi/OneDrive/Desktop/GD32VW553/V1_MQTT_OK/GD32VW55X_Wifi_BLE_SDK/GD32VW55x_RELEASE_V1.0.2/MSDK/util/src\debug_print.c ****                 field_flags |= FLAG_SIGN_SPACE;
 752:C:/Users/stapi/OneDrive/Desktop/GD32VW553/V1_MQTT_OK/GD32VW55X_Wifi_BLE_SDK/GD32VW55x_RELEASE_V1.0.2/MSDK/util/src\debug_print.c ****                 break;
 753:C:/Users/stapi/OneDrive/Desktop/GD32VW553/V1_MQTT_OK/GD32VW55X_Wifi_BLE_SDK/GD32VW55x_RELEASE_V1.0.2/MSDK/util/src\debug_print.c ****             case '0':
 754:C:/Users/stapi/OneDrive/Desktop/GD32VW553/V1_MQTT_OK/GD32VW55X_Wifi_BLE_SDK/GD32VW55x_RELEASE_V1.0.2/MSDK/util/src\debug_print.c ****                 // pad with leading 0
 755:C:/Users/stapi/OneDrive/Desktop/GD32VW553/V1_MQTT_OK/GD32VW55X_Wifi_BLE_SDK/GD32VW55x_RELEASE_V1.0.2/MSDK/util/src\debug_print.c ****                 field_flags |= FLAG_LEAD_ZERO;
 756:C:/Users/stapi/OneDrive/Desktop/GD32VW553/V1_MQTT_OK/GD32VW55X_Wifi_BLE_SDK/GD32VW55x_RELEASE_V1.0.2/MSDK/util/src\debug_print.c ****                 break;
 757:C:/Users/stapi/OneDrive/Desktop/GD32VW553/V1_MQTT_OK/GD32VW55X_Wifi_BLE_SDK/GD32VW55x_RELEASE_V1.0.2/MSDK/util/src\debug_print.c ****             default:
 758:C:/Users/stapi/OneDrive/Desktop/GD32VW553/V1_MQTT_OK/GD32VW55X_Wifi_BLE_SDK/GD32VW55x_RELEASE_V1.0.2/MSDK/util/src\debug_print.c ****                 PLF_ASSERT_ERR(0);
 759:C:/Users/stapi/OneDrive/Desktop/GD32VW553/V1_MQTT_OK/GD32VW55X_Wifi_BLE_SDK/GD32VW55x_RELEASE_V1.0.2/MSDK/util/src\debug_print.c ****                 break;
 760:C:/Users/stapi/OneDrive/Desktop/GD32VW553/V1_MQTT_OK/GD32VW55X_Wifi_BLE_SDK/GD32VW55x_RELEASE_V1.0.2/MSDK/util/src\debug_print.c ****             }
 761:C:/Users/stapi/OneDrive/Desktop/GD32VW553/V1_MQTT_OK/GD32VW55X_Wifi_BLE_SDK/GD32VW55x_RELEASE_V1.0.2/MSDK/util/src\debug_print.c ****             break;
 762:C:/Users/stapi/OneDrive/Desktop/GD32VW553/V1_MQTT_OK/GD32VW55X_Wifi_BLE_SDK/GD32VW55x_RELEASE_V1.0.2/MSDK/util/src\debug_print.c **** 
 763:C:/Users/stapi/OneDrive/Desktop/GD32VW553/V1_MQTT_OK/GD32VW55X_Wifi_BLE_SDK/GD32VW55x_RELEASE_V1.0.2/MSDK/util/src\debug_print.c ****         case S_WIDTH:
 764:C:/Users/stapi/OneDrive/Desktop/GD32VW553/V1_MQTT_OK/GD32VW55X_Wifi_BLE_SDK/GD32VW55x_RELEASE_V1.0.2/MSDK/util/src\debug_print.c ****             if (c != '*') {
 765:C:/Users/stapi/OneDrive/Desktop/GD32VW553/V1_MQTT_OK/GD32VW55X_Wifi_BLE_SDK/GD32VW55x_RELEASE_V1.0.2/MSDK/util/src\debug_print.c ****                 // add digit to current field width
 766:C:/Users/stapi/OneDrive/Desktop/GD32VW553/V1_MQTT_OK/GD32VW55X_Wifi_BLE_SDK/GD32VW55x_RELEASE_V1.0.2/MSDK/util/src\debug_print.c ****                 field_width = field_width * 10 + (c - '0');
 767:C:/Users/stapi/OneDrive/Desktop/GD32VW553/V1_MQTT_OK/GD32VW55X_Wifi_BLE_SDK/GD32VW55x_RELEASE_V1.0.2/MSDK/util/src\debug_print.c ****             } else {
 768:C:/Users/stapi/OneDrive/Desktop/GD32VW553/V1_MQTT_OK/GD32VW55X_Wifi_BLE_SDK/GD32VW55x_RELEASE_V1.0.2/MSDK/util/src\debug_print.c ****                 field_width = (int)va_arg(args, int);
 769:C:/Users/stapi/OneDrive/Desktop/GD32VW553/V1_MQTT_OK/GD32VW55X_Wifi_BLE_SDK/GD32VW55x_RELEASE_V1.0.2/MSDK/util/src\debug_print.c ****             }
 770:C:/Users/stapi/OneDrive/Desktop/GD32VW553/V1_MQTT_OK/GD32VW55X_Wifi_BLE_SDK/GD32VW55x_RELEASE_V1.0.2/MSDK/util/src\debug_print.c ****             break;
 771:C:/Users/stapi/OneDrive/Desktop/GD32VW553/V1_MQTT_OK/GD32VW55X_Wifi_BLE_SDK/GD32VW55x_RELEASE_V1.0.2/MSDK/util/src\debug_print.c **** 
 772:C:/Users/stapi/OneDrive/Desktop/GD32VW553/V1_MQTT_OK/GD32VW55X_Wifi_BLE_SDK/GD32VW55x_RELEASE_V1.0.2/MSDK/util/src\debug_print.c ****         case S_DOT:
 773:C:/Users/stapi/OneDrive/Desktop/GD32VW553/V1_MQTT_OK/GD32VW55X_Wifi_BLE_SDK/GD32VW55x_RELEASE_V1.0.2/MSDK/util/src\debug_print.c ****             // Clear the field_precision variable
 774:C:/Users/stapi/OneDrive/Desktop/GD32VW553/V1_MQTT_OK/GD32VW55X_Wifi_BLE_SDK/GD32VW55x_RELEASE_V1.0.2/MSDK/util/src\debug_print.c ****             field_precision = 0;
 775:C:/Users/stapi/OneDrive/Desktop/GD32VW553/V1_MQTT_OK/GD32VW55X_Wifi_BLE_SDK/GD32VW55x_RELEASE_V1.0.2/MSDK/util/src\debug_print.c ****             break;
 776:C:/Users/stapi/OneDrive/Desktop/GD32VW553/V1_MQTT_OK/GD32VW55X_Wifi_BLE_SDK/GD32VW55x_RELEASE_V1.0.2/MSDK/util/src\debug_print.c **** 
 777:C:/Users/stapi/OneDrive/Desktop/GD32VW553/V1_MQTT_OK/GD32VW55X_Wifi_BLE_SDK/GD32VW55x_RELEASE_V1.0.2/MSDK/util/src\debug_print.c ****         case S_PRECIS:
 778:C:/Users/stapi/OneDrive/Desktop/GD32VW553/V1_MQTT_OK/GD32VW55X_Wifi_BLE_SDK/GD32VW55x_RELEASE_V1.0.2/MSDK/util/src\debug_print.c ****             if (c != '*') {
 779:C:/Users/stapi/OneDrive/Desktop/GD32VW553/V1_MQTT_OK/GD32VW55X_Wifi_BLE_SDK/GD32VW55x_RELEASE_V1.0.2/MSDK/util/src\debug_print.c ****                 // Add digit to field_precision variable
 780:C:/Users/stapi/OneDrive/Desktop/GD32VW553/V1_MQTT_OK/GD32VW55X_Wifi_BLE_SDK/GD32VW55x_RELEASE_V1.0.2/MSDK/util/src\debug_print.c ****                 field_precision = field_precision * 10 + (c - '0');
 781:C:/Users/stapi/OneDrive/Desktop/GD32VW553/V1_MQTT_OK/GD32VW55X_Wifi_BLE_SDK/GD32VW55x_RELEASE_V1.0.2/MSDK/util/src\debug_print.c ****             } else {
 782:C:/Users/stapi/OneDrive/Desktop/GD32VW553/V1_MQTT_OK/GD32VW55X_Wifi_BLE_SDK/GD32VW55x_RELEASE_V1.0.2/MSDK/util/src\debug_print.c ****                 field_precision = (int)va_arg(args, int);
 783:C:/Users/stapi/OneDrive/Desktop/GD32VW553/V1_MQTT_OK/GD32VW55X_Wifi_BLE_SDK/GD32VW55x_RELEASE_V1.0.2/MSDK/util/src\debug_print.c ****             }
 784:C:/Users/stapi/OneDrive/Desktop/GD32VW553/V1_MQTT_OK/GD32VW55X_Wifi_BLE_SDK/GD32VW55x_RELEASE_V1.0.2/MSDK/util/src\debug_print.c ****             break;
 785:C:/Users/stapi/OneDrive/Desktop/GD32VW553/V1_MQTT_OK/GD32VW55X_Wifi_BLE_SDK/GD32VW55x_RELEASE_V1.0.2/MSDK/util/src\debug_print.c **** 
 786:C:/Users/stapi/OneDrive/Desktop/GD32VW553/V1_MQTT_OK/GD32VW55X_Wifi_BLE_SDK/GD32VW55x_RELEASE_V1.0.2/MSDK/util/src\debug_print.c ****         case S_SIZE:
 787:C:/Users/stapi/OneDrive/Desktop/GD32VW553/V1_MQTT_OK/GD32VW55X_Wifi_BLE_SDK/GD32VW55x_RELEASE_V1.0.2/MSDK/util/src\debug_print.c ****             // currently ignored
 788:C:/Users/stapi/OneDrive/Desktop/GD32VW553/V1_MQTT_OK/GD32VW55X_Wifi_BLE_SDK/GD32VW55x_RELEASE_V1.0.2/MSDK/util/src\debug_print.c ****             switch (c)
 789:C:/Users/stapi/OneDrive/Desktop/GD32VW553/V1_MQTT_OK/GD32VW55X_Wifi_BLE_SDK/GD32VW55x_RELEASE_V1.0.2/MSDK/util/src\debug_print.c ****             {
 790:C:/Users/stapi/OneDrive/Desktop/GD32VW553/V1_MQTT_OK/GD32VW55X_Wifi_BLE_SDK/GD32VW55x_RELEASE_V1.0.2/MSDK/util/src\debug_print.c ****             case 'l':
 791:C:/Users/stapi/OneDrive/Desktop/GD32VW553/V1_MQTT_OK/GD32VW55X_Wifi_BLE_SDK/GD32VW55x_RELEASE_V1.0.2/MSDK/util/src\debug_print.c ****                 // 'l' => long int
 792:C:/Users/stapi/OneDrive/Desktop/GD32VW553/V1_MQTT_OK/GD32VW55X_Wifi_BLE_SDK/GD32VW55x_RELEASE_V1.0.2/MSDK/util/src\debug_print.c ****                 field_flags |= FLAG_LONG;
 793:C:/Users/stapi/OneDrive/Desktop/GD32VW553/V1_MQTT_OK/GD32VW55X_Wifi_BLE_SDK/GD32VW55x_RELEASE_V1.0.2/MSDK/util/src\debug_print.c ****                 break;
 794:C:/Users/stapi/OneDrive/Desktop/GD32VW553/V1_MQTT_OK/GD32VW55X_Wifi_BLE_SDK/GD32VW55x_RELEASE_V1.0.2/MSDK/util/src\debug_print.c **** 
 795:C:/Users/stapi/OneDrive/Desktop/GD32VW553/V1_MQTT_OK/GD32VW55X_Wifi_BLE_SDK/GD32VW55x_RELEASE_V1.0.2/MSDK/util/src\debug_print.c ****                 #ifdef FLAG_SHORT_SUPPORTED
 796:C:/Users/stapi/OneDrive/Desktop/GD32VW553/V1_MQTT_OK/GD32VW55X_Wifi_BLE_SDK/GD32VW55x_RELEASE_V1.0.2/MSDK/util/src\debug_print.c ****             case 'h':
 797:C:/Users/stapi/OneDrive/Desktop/GD32VW553/V1_MQTT_OK/GD32VW55X_Wifi_BLE_SDK/GD32VW55x_RELEASE_V1.0.2/MSDK/util/src\debug_print.c ****                 // 'h' => short int
 798:C:/Users/stapi/OneDrive/Desktop/GD32VW553/V1_MQTT_OK/GD32VW55X_Wifi_BLE_SDK/GD32VW55x_RELEASE_V1.0.2/MSDK/util/src\debug_print.c ****                 field_flags |= FLAG_SHORT;
 799:C:/Users/stapi/OneDrive/Desktop/GD32VW553/V1_MQTT_OK/GD32VW55X_Wifi_BLE_SDK/GD32VW55x_RELEASE_V1.0.2/MSDK/util/src\debug_print.c ****                 break;
 800:C:/Users/stapi/OneDrive/Desktop/GD32VW553/V1_MQTT_OK/GD32VW55X_Wifi_BLE_SDK/GD32VW55x_RELEASE_V1.0.2/MSDK/util/src\debug_print.c ****                 #endif // FLAG_SHORT_SUPPORTED
 801:C:/Users/stapi/OneDrive/Desktop/GD32VW553/V1_MQTT_OK/GD32VW55X_Wifi_BLE_SDK/GD32VW55x_RELEASE_V1.0.2/MSDK/util/src\debug_print.c **** 
 802:C:/Users/stapi/OneDrive/Desktop/GD32VW553/V1_MQTT_OK/GD32VW55X_Wifi_BLE_SDK/GD32VW55x_RELEASE_V1.0.2/MSDK/util/src\debug_print.c ****             default:
 803:C:/Users/stapi/OneDrive/Desktop/GD32VW553/V1_MQTT_OK/GD32VW55X_Wifi_BLE_SDK/GD32VW55x_RELEASE_V1.0.2/MSDK/util/src\debug_print.c ****                 PLF_ASSERT_ERR(0);
 804:C:/Users/stapi/OneDrive/Desktop/GD32VW553/V1_MQTT_OK/GD32VW55X_Wifi_BLE_SDK/GD32VW55x_RELEASE_V1.0.2/MSDK/util/src\debug_print.c ****                 break;
 805:C:/Users/stapi/OneDrive/Desktop/GD32VW553/V1_MQTT_OK/GD32VW55X_Wifi_BLE_SDK/GD32VW55x_RELEASE_V1.0.2/MSDK/util/src\debug_print.c ****             }
 806:C:/Users/stapi/OneDrive/Desktop/GD32VW553/V1_MQTT_OK/GD32VW55X_Wifi_BLE_SDK/GD32VW55x_RELEASE_V1.0.2/MSDK/util/src\debug_print.c ****             break;
 807:C:/Users/stapi/OneDrive/Desktop/GD32VW553/V1_MQTT_OK/GD32VW55X_Wifi_BLE_SDK/GD32VW55x_RELEASE_V1.0.2/MSDK/util/src\debug_print.c **** 
 808:C:/Users/stapi/OneDrive/Desktop/GD32VW553/V1_MQTT_OK/GD32VW55X_Wifi_BLE_SDK/GD32VW55x_RELEASE_V1.0.2/MSDK/util/src\debug_print.c ****         case S_TYPE:
 809:C:/Users/stapi/OneDrive/Desktop/GD32VW553/V1_MQTT_OK/GD32VW55X_Wifi_BLE_SDK/GD32VW55x_RELEASE_V1.0.2/MSDK/util/src\debug_print.c **** 
 810:C:/Users/stapi/OneDrive/Desktop/GD32VW553/V1_MQTT_OK/GD32VW55X_Wifi_BLE_SDK/GD32VW55x_RELEASE_V1.0.2/MSDK/util/src\debug_print.c ****             // Now the options have been decoded
 811:C:/Users/stapi/OneDrive/Desktop/GD32VW553/V1_MQTT_OK/GD32VW55X_Wifi_BLE_SDK/GD32VW55x_RELEASE_V1.0.2/MSDK/util/src\debug_print.c ****             switch (c)
 812:C:/Users/stapi/OneDrive/Desktop/GD32VW553/V1_MQTT_OK/GD32VW55X_Wifi_BLE_SDK/GD32VW55x_RELEASE_V1.0.2/MSDK/util/src\debug_print.c ****             {
 813:C:/Users/stapi/OneDrive/Desktop/GD32VW553/V1_MQTT_OK/GD32VW55X_Wifi_BLE_SDK/GD32VW55x_RELEASE_V1.0.2/MSDK/util/src\debug_print.c ****             // c
 814:C:/Users/stapi/OneDrive/Desktop/GD32VW553/V1_MQTT_OK/GD32VW55X_Wifi_BLE_SDK/GD32VW55x_RELEASE_V1.0.2/MSDK/util/src\debug_print.c ****             case 'c':
 815:C:/Users/stapi/OneDrive/Desktop/GD32VW553/V1_MQTT_OK/GD32VW55X_Wifi_BLE_SDK/GD32VW55x_RELEASE_V1.0.2/MSDK/util/src\debug_print.c ****                 // Store byte in Tx buffer
 816:C:/Users/stapi/OneDrive/Desktop/GD32VW553/V1_MQTT_OK/GD32VW55X_Wifi_BLE_SDK/GD32VW55x_RELEASE_V1.0.2/MSDK/util/src\debug_print.c ****                 buffer_tmp[0] = (char)va_arg(args, int);
 817:C:/Users/stapi/OneDrive/Desktop/GD32VW553/V1_MQTT_OK/GD32VW55X_Wifi_BLE_SDK/GD32VW55x_RELEASE_V1.0.2/MSDK/util/src\debug_print.c ****                 fmt_field_ptr = buffer_tmp;
 818:C:/Users/stapi/OneDrive/Desktop/GD32VW553/V1_MQTT_OK/GD32VW55X_Wifi_BLE_SDK/GD32VW55x_RELEASE_V1.0.2/MSDK/util/src\debug_print.c ****                 fmt_field_size = 1;
 819:C:/Users/stapi/OneDrive/Desktop/GD32VW553/V1_MQTT_OK/GD32VW55X_Wifi_BLE_SDK/GD32VW55x_RELEASE_V1.0.2/MSDK/util/src\debug_print.c ****                 break;
 820:C:/Users/stapi/OneDrive/Desktop/GD32VW553/V1_MQTT_OK/GD32VW55X_Wifi_BLE_SDK/GD32VW55x_RELEASE_V1.0.2/MSDK/util/src\debug_print.c **** 
 821:C:/Users/stapi/OneDrive/Desktop/GD32VW553/V1_MQTT_OK/GD32VW55X_Wifi_BLE_SDK/GD32VW55x_RELEASE_V1.0.2/MSDK/util/src\debug_print.c **** 
 822:C:/Users/stapi/OneDrive/Desktop/GD32VW553/V1_MQTT_OK/GD32VW55X_Wifi_BLE_SDK/GD32VW55x_RELEASE_V1.0.2/MSDK/util/src\debug_print.c ****             // String
 823:C:/Users/stapi/OneDrive/Desktop/GD32VW553/V1_MQTT_OK/GD32VW55X_Wifi_BLE_SDK/GD32VW55x_RELEASE_V1.0.2/MSDK/util/src\debug_print.c ****             case 's':
 824:C:/Users/stapi/OneDrive/Desktop/GD32VW553/V1_MQTT_OK/GD32VW55X_Wifi_BLE_SDK/GD32VW55x_RELEASE_V1.0.2/MSDK/util/src\debug_print.c ****                 // Read parameter (pointer on string)
 825:C:/Users/stapi/OneDrive/Desktop/GD32VW553/V1_MQTT_OK/GD32VW55X_Wifi_BLE_SDK/GD32VW55x_RELEASE_V1.0.2/MSDK/util/src\debug_print.c ****                 fmt_field_ptr =  va_arg(args, char *);
 826:C:/Users/stapi/OneDrive/Desktop/GD32VW553/V1_MQTT_OK/GD32VW55X_Wifi_BLE_SDK/GD32VW55x_RELEASE_V1.0.2/MSDK/util/src\debug_print.c ****                 fmt_field_size = 0;
 827:C:/Users/stapi/OneDrive/Desktop/GD32VW553/V1_MQTT_OK/GD32VW55X_Wifi_BLE_SDK/GD32VW55x_RELEASE_V1.0.2/MSDK/util/src\debug_print.c ****                 if (fmt_field_ptr != NULL) {
 828:C:/Users/stapi/OneDrive/Desktop/GD32VW553/V1_MQTT_OK/GD32VW55X_Wifi_BLE_SDK/GD32VW55x_RELEASE_V1.0.2/MSDK/util/src\debug_print.c ****                     // Compute the length of the string
 829:C:/Users/stapi/OneDrive/Desktop/GD32VW553/V1_MQTT_OK/GD32VW55X_Wifi_BLE_SDK/GD32VW55x_RELEASE_V1.0.2/MSDK/util/src\debug_print.c ****                     // field_precision is the maximum number of character to be
 830:C:/Users/stapi/OneDrive/Desktop/GD32VW553/V1_MQTT_OK/GD32VW55X_Wifi_BLE_SDK/GD32VW55x_RELEASE_V1.0.2/MSDK/util/src\debug_print.c ****                     // display
 831:C:/Users/stapi/OneDrive/Desktop/GD32VW553/V1_MQTT_OK/GD32VW55X_Wifi_BLE_SDK/GD32VW55x_RELEASE_V1.0.2/MSDK/util/src\debug_print.c ****                     tmp_ptr =  fmt_field_ptr;
 832:C:/Users/stapi/OneDrive/Desktop/GD32VW553/V1_MQTT_OK/GD32VW55X_Wifi_BLE_SDK/GD32VW55x_RELEASE_V1.0.2/MSDK/util/src\debug_print.c ****                     while (*tmp_ptr != '\0') {
 833:C:/Users/stapi/OneDrive/Desktop/GD32VW553/V1_MQTT_OK/GD32VW55X_Wifi_BLE_SDK/GD32VW55x_RELEASE_V1.0.2/MSDK/util/src\debug_print.c ****                         if (field_precision == 0)
 834:C:/Users/stapi/OneDrive/Desktop/GD32VW553/V1_MQTT_OK/GD32VW55X_Wifi_BLE_SDK/GD32VW55x_RELEASE_V1.0.2/MSDK/util/src\debug_print.c ****                             break;
 835:C:/Users/stapi/OneDrive/Desktop/GD32VW553/V1_MQTT_OK/GD32VW55X_Wifi_BLE_SDK/GD32VW55x_RELEASE_V1.0.2/MSDK/util/src\debug_print.c ****                         if (field_precision > 0)
 836:C:/Users/stapi/OneDrive/Desktop/GD32VW553/V1_MQTT_OK/GD32VW55X_Wifi_BLE_SDK/GD32VW55x_RELEASE_V1.0.2/MSDK/util/src\debug_print.c ****                             field_precision--;
 837:C:/Users/stapi/OneDrive/Desktop/GD32VW553/V1_MQTT_OK/GD32VW55X_Wifi_BLE_SDK/GD32VW55x_RELEASE_V1.0.2/MSDK/util/src\debug_print.c ****                         tmp_ptr++;
 838:C:/Users/stapi/OneDrive/Desktop/GD32VW553/V1_MQTT_OK/GD32VW55X_Wifi_BLE_SDK/GD32VW55x_RELEASE_V1.0.2/MSDK/util/src\debug_print.c ****                         fmt_field_size++;
 839:C:/Users/stapi/OneDrive/Desktop/GD32VW553/V1_MQTT_OK/GD32VW55X_Wifi_BLE_SDK/GD32VW55x_RELEASE_V1.0.2/MSDK/util/src\debug_print.c ****                     }
 840:C:/Users/stapi/OneDrive/Desktop/GD32VW553/V1_MQTT_OK/GD32VW55X_Wifi_BLE_SDK/GD32VW55x_RELEASE_V1.0.2/MSDK/util/src\debug_print.c ****                 }
 841:C:/Users/stapi/OneDrive/Desktop/GD32VW553/V1_MQTT_OK/GD32VW55X_Wifi_BLE_SDK/GD32VW55x_RELEASE_V1.0.2/MSDK/util/src\debug_print.c ****                 break;
 842:C:/Users/stapi/OneDrive/Desktop/GD32VW553/V1_MQTT_OK/GD32VW55X_Wifi_BLE_SDK/GD32VW55x_RELEASE_V1.0.2/MSDK/util/src\debug_print.c **** 
 843:C:/Users/stapi/OneDrive/Desktop/GD32VW553/V1_MQTT_OK/GD32VW55X_Wifi_BLE_SDK/GD32VW55x_RELEASE_V1.0.2/MSDK/util/src\debug_print.c ****             // MAC address
 844:C:/Users/stapi/OneDrive/Desktop/GD32VW553/V1_MQTT_OK/GD32VW55X_Wifi_BLE_SDK/GD32VW55x_RELEASE_V1.0.2/MSDK/util/src\debug_print.c ****             case 'm':
 845:C:/Users/stapi/OneDrive/Desktop/GD32VW553/V1_MQTT_OK/GD32VW55X_Wifi_BLE_SDK/GD32VW55x_RELEASE_V1.0.2/MSDK/util/src\debug_print.c ****             case 'M':
 846:C:/Users/stapi/OneDrive/Desktop/GD32VW553/V1_MQTT_OK/GD32VW55X_Wifi_BLE_SDK/GD32VW55x_RELEASE_V1.0.2/MSDK/util/src\debug_print.c ****             {
 847:C:/Users/stapi/OneDrive/Desktop/GD32VW553/V1_MQTT_OK/GD32VW55X_Wifi_BLE_SDK/GD32VW55x_RELEASE_V1.0.2/MSDK/util/src\debug_print.c ****                 int i;
 848:C:/Users/stapi/OneDrive/Desktop/GD32VW553/V1_MQTT_OK/GD32VW55X_Wifi_BLE_SDK/GD32VW55x_RELEASE_V1.0.2/MSDK/util/src\debug_print.c ****                 fmt_field_ptr   = buffer_tmp;
 849:C:/Users/stapi/OneDrive/Desktop/GD32VW553/V1_MQTT_OK/GD32VW55X_Wifi_BLE_SDK/GD32VW55x_RELEASE_V1.0.2/MSDK/util/src\debug_print.c ****                 tmp_ptr         = va_arg(args, char *);
 850:C:/Users/stapi/OneDrive/Desktop/GD32VW553/V1_MQTT_OK/GD32VW55X_Wifi_BLE_SDK/GD32VW55x_RELEASE_V1.0.2/MSDK/util/src\debug_print.c ****                 fmt_field_size  = 17;
 851:C:/Users/stapi/OneDrive/Desktop/GD32VW553/V1_MQTT_OK/GD32VW55X_Wifi_BLE_SDK/GD32VW55x_RELEASE_V1.0.2/MSDK/util/src\debug_print.c ****                 for (i = 5;;) {
 852:C:/Users/stapi/OneDrive/Desktop/GD32VW553/V1_MQTT_OK/GD32VW55X_Wifi_BLE_SDK/GD32VW55x_RELEASE_V1.0.2/MSDK/util/src\debug_print.c ****                     value = (unsigned char)*tmp_ptr++;
 853:C:/Users/stapi/OneDrive/Desktop/GD32VW553/V1_MQTT_OK/GD32VW55X_Wifi_BLE_SDK/GD32VW55x_RELEASE_V1.0.2/MSDK/util/src\debug_print.c ****                     *fmt_field_ptr++ = hex_upper_table[value >> 4];
 854:C:/Users/stapi/OneDrive/Desktop/GD32VW553/V1_MQTT_OK/GD32VW55X_Wifi_BLE_SDK/GD32VW55x_RELEASE_V1.0.2/MSDK/util/src\debug_print.c ****                     *fmt_field_ptr++ = hex_upper_table[value & 0xF];
 855:C:/Users/stapi/OneDrive/Desktop/GD32VW553/V1_MQTT_OK/GD32VW55X_Wifi_BLE_SDK/GD32VW55x_RELEASE_V1.0.2/MSDK/util/src\debug_print.c ****                     if (i-- == 0)
 856:C:/Users/stapi/OneDrive/Desktop/GD32VW553/V1_MQTT_OK/GD32VW55X_Wifi_BLE_SDK/GD32VW55x_RELEASE_V1.0.2/MSDK/util/src\debug_print.c ****                         break;
 857:C:/Users/stapi/OneDrive/Desktop/GD32VW553/V1_MQTT_OK/GD32VW55X_Wifi_BLE_SDK/GD32VW55x_RELEASE_V1.0.2/MSDK/util/src\debug_print.c ****                     *fmt_field_ptr++ = ':';
 858:C:/Users/stapi/OneDrive/Desktop/GD32VW553/V1_MQTT_OK/GD32VW55X_Wifi_BLE_SDK/GD32VW55x_RELEASE_V1.0.2/MSDK/util/src\debug_print.c ****                 }
 859:C:/Users/stapi/OneDrive/Desktop/GD32VW553/V1_MQTT_OK/GD32VW55X_Wifi_BLE_SDK/GD32VW55x_RELEASE_V1.0.2/MSDK/util/src\debug_print.c ****                 fmt_field_ptr = buffer_tmp;
 860:C:/Users/stapi/OneDrive/Desktop/GD32VW553/V1_MQTT_OK/GD32VW55X_Wifi_BLE_SDK/GD32VW55x_RELEASE_V1.0.2/MSDK/util/src\debug_print.c ****                 break;
 861:C:/Users/stapi/OneDrive/Desktop/GD32VW553/V1_MQTT_OK/GD32VW55X_Wifi_BLE_SDK/GD32VW55x_RELEASE_V1.0.2/MSDK/util/src\debug_print.c ****             }
 862:C:/Users/stapi/OneDrive/Desktop/GD32VW553/V1_MQTT_OK/GD32VW55X_Wifi_BLE_SDK/GD32VW55x_RELEASE_V1.0.2/MSDK/util/src\debug_print.c **** 
 863:C:/Users/stapi/OneDrive/Desktop/GD32VW553/V1_MQTT_OK/GD32VW55X_Wifi_BLE_SDK/GD32VW55x_RELEASE_V1.0.2/MSDK/util/src\debug_print.c ****             case 'a':
 864:C:/Users/stapi/OneDrive/Desktop/GD32VW553/V1_MQTT_OK/GD32VW55X_Wifi_BLE_SDK/GD32VW55x_RELEASE_V1.0.2/MSDK/util/src\debug_print.c ****             case 'A':
 865:C:/Users/stapi/OneDrive/Desktop/GD32VW553/V1_MQTT_OK/GD32VW55X_Wifi_BLE_SDK/GD32VW55x_RELEASE_V1.0.2/MSDK/util/src\debug_print.c ****                 fmt_field_ptr = buffer_tmp;
 866:C:/Users/stapi/OneDrive/Desktop/GD32VW553/V1_MQTT_OK/GD32VW55X_Wifi_BLE_SDK/GD32VW55x_RELEASE_V1.0.2/MSDK/util/src\debug_print.c ****                 tmp_ptr = va_arg(args, char *);
 867:C:/Users/stapi/OneDrive/Desktop/GD32VW553/V1_MQTT_OK/GD32VW55X_Wifi_BLE_SDK/GD32VW55x_RELEASE_V1.0.2/MSDK/util/src\debug_print.c ****                 // prevent overflow
 868:C:/Users/stapi/OneDrive/Desktop/GD32VW553/V1_MQTT_OK/GD32VW55X_Wifi_BLE_SDK/GD32VW55x_RELEASE_V1.0.2/MSDK/util/src\debug_print.c ****                 field_width = min(field_width, sizeof(buffer_tmp) / 3);
 869:C:/Users/stapi/OneDrive/Desktop/GD32VW553/V1_MQTT_OK/GD32VW55X_Wifi_BLE_SDK/GD32VW55x_RELEASE_V1.0.2/MSDK/util/src\debug_print.c ****                 // if no width given
 870:C:/Users/stapi/OneDrive/Desktop/GD32VW553/V1_MQTT_OK/GD32VW55X_Wifi_BLE_SDK/GD32VW55x_RELEASE_V1.0.2/MSDK/util/src\debug_print.c ****                 if (!field_width)
 871:C:/Users/stapi/OneDrive/Desktop/GD32VW553/V1_MQTT_OK/GD32VW55X_Wifi_BLE_SDK/GD32VW55x_RELEASE_V1.0.2/MSDK/util/src\debug_print.c ****                     field_width = 16;
 872:C:/Users/stapi/OneDrive/Desktop/GD32VW553/V1_MQTT_OK/GD32VW55X_Wifi_BLE_SDK/GD32VW55x_RELEASE_V1.0.2/MSDK/util/src\debug_print.c ****                 fmt_field_size = field_width * 3 - 1;
 873:C:/Users/stapi/OneDrive/Desktop/GD32VW553/V1_MQTT_OK/GD32VW55X_Wifi_BLE_SDK/GD32VW55x_RELEASE_V1.0.2/MSDK/util/src\debug_print.c ****                 for (;;) {
 874:C:/Users/stapi/OneDrive/Desktop/GD32VW553/V1_MQTT_OK/GD32VW55X_Wifi_BLE_SDK/GD32VW55x_RELEASE_V1.0.2/MSDK/util/src\debug_print.c ****                     value = (unsigned char)*tmp_ptr++;
 875:C:/Users/stapi/OneDrive/Desktop/GD32VW553/V1_MQTT_OK/GD32VW55X_Wifi_BLE_SDK/GD32VW55x_RELEASE_V1.0.2/MSDK/util/src\debug_print.c ****                     *fmt_field_ptr++ = hex_upper_table[value >> 4];
 876:C:/Users/stapi/OneDrive/Desktop/GD32VW553/V1_MQTT_OK/GD32VW55X_Wifi_BLE_SDK/GD32VW55x_RELEASE_V1.0.2/MSDK/util/src\debug_print.c ****                     *fmt_field_ptr++ = hex_upper_table[value & 0xF];
 877:C:/Users/stapi/OneDrive/Desktop/GD32VW553/V1_MQTT_OK/GD32VW55X_Wifi_BLE_SDK/GD32VW55x_RELEASE_V1.0.2/MSDK/util/src\debug_print.c ****                     if (--field_width == 0)
 878:C:/Users/stapi/OneDrive/Desktop/GD32VW553/V1_MQTT_OK/GD32VW55X_Wifi_BLE_SDK/GD32VW55x_RELEASE_V1.0.2/MSDK/util/src\debug_print.c ****                         break;
 879:C:/Users/stapi/OneDrive/Desktop/GD32VW553/V1_MQTT_OK/GD32VW55X_Wifi_BLE_SDK/GD32VW55x_RELEASE_V1.0.2/MSDK/util/src\debug_print.c ****                     // sep . (or : on align)
 880:C:/Users/stapi/OneDrive/Desktop/GD32VW553/V1_MQTT_OK/GD32VW55X_Wifi_BLE_SDK/GD32VW55x_RELEASE_V1.0.2/MSDK/util/src\debug_print.c ****                     if (3 & (uint32_t)tmp_ptr)
 881:C:/Users/stapi/OneDrive/Desktop/GD32VW553/V1_MQTT_OK/GD32VW55X_Wifi_BLE_SDK/GD32VW55x_RELEASE_V1.0.2/MSDK/util/src\debug_print.c ****                         *fmt_field_ptr++ = '.';
 882:C:/Users/stapi/OneDrive/Desktop/GD32VW553/V1_MQTT_OK/GD32VW55X_Wifi_BLE_SDK/GD32VW55x_RELEASE_V1.0.2/MSDK/util/src\debug_print.c ****                     else
 883:C:/Users/stapi/OneDrive/Desktop/GD32VW553/V1_MQTT_OK/GD32VW55X_Wifi_BLE_SDK/GD32VW55x_RELEASE_V1.0.2/MSDK/util/src\debug_print.c ****                         *fmt_field_ptr++ = ':';
 884:C:/Users/stapi/OneDrive/Desktop/GD32VW553/V1_MQTT_OK/GD32VW55X_Wifi_BLE_SDK/GD32VW55x_RELEASE_V1.0.2/MSDK/util/src\debug_print.c ****                 }
 885:C:/Users/stapi/OneDrive/Desktop/GD32VW553/V1_MQTT_OK/GD32VW55X_Wifi_BLE_SDK/GD32VW55x_RELEASE_V1.0.2/MSDK/util/src\debug_print.c ****                 fmt_field_ptr = buffer_tmp;
 886:C:/Users/stapi/OneDrive/Desktop/GD32VW553/V1_MQTT_OK/GD32VW55X_Wifi_BLE_SDK/GD32VW55x_RELEASE_V1.0.2/MSDK/util/src\debug_print.c ****                 break;
 887:C:/Users/stapi/OneDrive/Desktop/GD32VW553/V1_MQTT_OK/GD32VW55X_Wifi_BLE_SDK/GD32VW55x_RELEASE_V1.0.2/MSDK/util/src\debug_print.c **** 
 888:C:/Users/stapi/OneDrive/Desktop/GD32VW553/V1_MQTT_OK/GD32VW55X_Wifi_BLE_SDK/GD32VW55x_RELEASE_V1.0.2/MSDK/util/src\debug_print.c ****             case 'i': // signed decimal
 889:C:/Users/stapi/OneDrive/Desktop/GD32VW553/V1_MQTT_OK/GD32VW55X_Wifi_BLE_SDK/GD32VW55x_RELEASE_V1.0.2/MSDK/util/src\debug_print.c ****                 c = 'd';
 890:C:/Users/stapi/OneDrive/Desktop/GD32VW553/V1_MQTT_OK/GD32VW55X_Wifi_BLE_SDK/GD32VW55x_RELEASE_V1.0.2/MSDK/util/src\debug_print.c ****             case 'd': // signed decimal
 891:C:/Users/stapi/OneDrive/Desktop/GD32VW553/V1_MQTT_OK/GD32VW55X_Wifi_BLE_SDK/GD32VW55x_RELEASE_V1.0.2/MSDK/util/src\debug_print.c ****             case 'u': // unsigned
 892:C:/Users/stapi/OneDrive/Desktop/GD32VW553/V1_MQTT_OK/GD32VW55X_Wifi_BLE_SDK/GD32VW55x_RELEASE_V1.0.2/MSDK/util/src\debug_print.c ****             case 'X': // hexa
 893:C:/Users/stapi/OneDrive/Desktop/GD32VW553/V1_MQTT_OK/GD32VW55X_Wifi_BLE_SDK/GD32VW55x_RELEASE_V1.0.2/MSDK/util/src\debug_print.c ****             case 'x': // hexa
 894:C:/Users/stapi/OneDrive/Desktop/GD32VW553/V1_MQTT_OK/GD32VW55X_Wifi_BLE_SDK/GD32VW55x_RELEASE_V1.0.2/MSDK/util/src\debug_print.c ****             case 'b': // binary
 895:C:/Users/stapi/OneDrive/Desktop/GD32VW553/V1_MQTT_OK/GD32VW55X_Wifi_BLE_SDK/GD32VW55x_RELEASE_V1.0.2/MSDK/util/src\debug_print.c **** 
 896:C:/Users/stapi/OneDrive/Desktop/GD32VW553/V1_MQTT_OK/GD32VW55X_Wifi_BLE_SDK/GD32VW55x_RELEASE_V1.0.2/MSDK/util/src\debug_print.c ****                 // Point to the last byte of the buffer (go backward during
 897:C:/Users/stapi/OneDrive/Desktop/GD32VW553/V1_MQTT_OK/GD32VW55X_Wifi_BLE_SDK/GD32VW55x_RELEASE_V1.0.2/MSDK/util/src\debug_print.c ****                 // conversion)
 898:C:/Users/stapi/OneDrive/Desktop/GD32VW553/V1_MQTT_OK/GD32VW55X_Wifi_BLE_SDK/GD32VW55x_RELEASE_V1.0.2/MSDK/util/src\debug_print.c ****                 fmt_field_ptr = buffer_tmp + sizeof(buffer_tmp);
 899:C:/Users/stapi/OneDrive/Desktop/GD32VW553/V1_MQTT_OK/GD32VW55X_Wifi_BLE_SDK/GD32VW55x_RELEASE_V1.0.2/MSDK/util/src\debug_print.c ****                 fmt_field_size = 0;
 900:C:/Users/stapi/OneDrive/Desktop/GD32VW553/V1_MQTT_OK/GD32VW55X_Wifi_BLE_SDK/GD32VW55x_RELEASE_V1.0.2/MSDK/util/src\debug_print.c **** 
 901:C:/Users/stapi/OneDrive/Desktop/GD32VW553/V1_MQTT_OK/GD32VW55X_Wifi_BLE_SDK/GD32VW55x_RELEASE_V1.0.2/MSDK/util/src\debug_print.c ****                 // Get the value
 902:C:/Users/stapi/OneDrive/Desktop/GD32VW553/V1_MQTT_OK/GD32VW55X_Wifi_BLE_SDK/GD32VW55x_RELEASE_V1.0.2/MSDK/util/src\debug_print.c ****                 if (field_flags & FLAG_LONG) {
 903:C:/Users/stapi/OneDrive/Desktop/GD32VW553/V1_MQTT_OK/GD32VW55X_Wifi_BLE_SDK/GD32VW55x_RELEASE_V1.0.2/MSDK/util/src\debug_print.c ****                     // long
 904:C:/Users/stapi/OneDrive/Desktop/GD32VW553/V1_MQTT_OK/GD32VW55X_Wifi_BLE_SDK/GD32VW55x_RELEASE_V1.0.2/MSDK/util/src\debug_print.c ****                     value = va_arg(args, uint32_t);
 905:C:/Users/stapi/OneDrive/Desktop/GD32VW553/V1_MQTT_OK/GD32VW55X_Wifi_BLE_SDK/GD32VW55x_RELEASE_V1.0.2/MSDK/util/src\debug_print.c ****                 }
 906:C:/Users/stapi/OneDrive/Desktop/GD32VW553/V1_MQTT_OK/GD32VW55X_Wifi_BLE_SDK/GD32VW55x_RELEASE_V1.0.2/MSDK/util/src\debug_print.c ****                 #ifdef FLAG_SHORT_SUPPORTED
 907:C:/Users/stapi/OneDrive/Desktop/GD32VW553/V1_MQTT_OK/GD32VW55X_Wifi_BLE_SDK/GD32VW55x_RELEASE_V1.0.2/MSDK/util/src\debug_print.c ****                 else if (field_flags & FLAG_SHORT) {
 908:C:/Users/stapi/OneDrive/Desktop/GD32VW553/V1_MQTT_OK/GD32VW55X_Wifi_BLE_SDK/GD32VW55x_RELEASE_V1.0.2/MSDK/util/src\debug_print.c ****                     if (c == 'd') {
 909:C:/Users/stapi/OneDrive/Desktop/GD32VW553/V1_MQTT_OK/GD32VW55X_Wifi_BLE_SDK/GD32VW55x_RELEASE_V1.0.2/MSDK/util/src\debug_print.c ****                         // extend the sign
 910:C:/Users/stapi/OneDrive/Desktop/GD32VW553/V1_MQTT_OK/GD32VW55X_Wifi_BLE_SDK/GD32VW55x_RELEASE_V1.0.2/MSDK/util/src\debug_print.c ****                         value = (int16_t)va_arg(args, int);
 911:C:/Users/stapi/OneDrive/Desktop/GD32VW553/V1_MQTT_OK/GD32VW55X_Wifi_BLE_SDK/GD32VW55x_RELEASE_V1.0.2/MSDK/util/src\debug_print.c ****                     } else {
 912:C:/Users/stapi/OneDrive/Desktop/GD32VW553/V1_MQTT_OK/GD32VW55X_Wifi_BLE_SDK/GD32VW55x_RELEASE_V1.0.2/MSDK/util/src\debug_print.c ****                         value = (uint16_t)va_arg(args, int);
 913:C:/Users/stapi/OneDrive/Desktop/GD32VW553/V1_MQTT_OK/GD32VW55X_Wifi_BLE_SDK/GD32VW55x_RELEASE_V1.0.2/MSDK/util/src\debug_print.c ****                     }
 914:C:/Users/stapi/OneDrive/Desktop/GD32VW553/V1_MQTT_OK/GD32VW55X_Wifi_BLE_SDK/GD32VW55x_RELEASE_V1.0.2/MSDK/util/src\debug_print.c ****                 }
 915:C:/Users/stapi/OneDrive/Desktop/GD32VW553/V1_MQTT_OK/GD32VW55X_Wifi_BLE_SDK/GD32VW55x_RELEASE_V1.0.2/MSDK/util/src\debug_print.c ****                 #endif // FLAG_SHORT_SUPPORTED
 916:C:/Users/stapi/OneDrive/Desktop/GD32VW553/V1_MQTT_OK/GD32VW55X_Wifi_BLE_SDK/GD32VW55x_RELEASE_V1.0.2/MSDK/util/src\debug_print.c ****                 else {
 917:C:/Users/stapi/OneDrive/Desktop/GD32VW553/V1_MQTT_OK/GD32VW55X_Wifi_BLE_SDK/GD32VW55x_RELEASE_V1.0.2/MSDK/util/src\debug_print.c ****                     // int
 918:C:/Users/stapi/OneDrive/Desktop/GD32VW553/V1_MQTT_OK/GD32VW55X_Wifi_BLE_SDK/GD32VW55x_RELEASE_V1.0.2/MSDK/util/src\debug_print.c ****                     // extend the sign
 919:C:/Users/stapi/OneDrive/Desktop/GD32VW553/V1_MQTT_OK/GD32VW55X_Wifi_BLE_SDK/GD32VW55x_RELEASE_V1.0.2/MSDK/util/src\debug_print.c ****                     value = va_arg(args, int);
 920:C:/Users/stapi/OneDrive/Desktop/GD32VW553/V1_MQTT_OK/GD32VW55X_Wifi_BLE_SDK/GD32VW55x_RELEASE_V1.0.2/MSDK/util/src\debug_print.c ****                 }
 921:C:/Users/stapi/OneDrive/Desktop/GD32VW553/V1_MQTT_OK/GD32VW55X_Wifi_BLE_SDK/GD32VW55x_RELEASE_V1.0.2/MSDK/util/src\debug_print.c **** 
 922:C:/Users/stapi/OneDrive/Desktop/GD32VW553/V1_MQTT_OK/GD32VW55X_Wifi_BLE_SDK/GD32VW55x_RELEASE_V1.0.2/MSDK/util/src\debug_print.c ****                 switch (c)
 923:C:/Users/stapi/OneDrive/Desktop/GD32VW553/V1_MQTT_OK/GD32VW55X_Wifi_BLE_SDK/GD32VW55x_RELEASE_V1.0.2/MSDK/util/src\debug_print.c ****                 {
 924:C:/Users/stapi/OneDrive/Desktop/GD32VW553/V1_MQTT_OK/GD32VW55X_Wifi_BLE_SDK/GD32VW55x_RELEASE_V1.0.2/MSDK/util/src\debug_print.c ****                 case 'd':
 925:C:/Users/stapi/OneDrive/Desktop/GD32VW553/V1_MQTT_OK/GD32VW55X_Wifi_BLE_SDK/GD32VW55x_RELEASE_V1.0.2/MSDK/util/src\debug_print.c ****                     // Separate the sign to display it before the number
 926:C:/Users/stapi/OneDrive/Desktop/GD32VW553/V1_MQTT_OK/GD32VW55X_Wifi_BLE_SDK/GD32VW55x_RELEASE_V1.0.2/MSDK/util/src\debug_print.c ****                     if (value < 0) {
 927:C:/Users/stapi/OneDrive/Desktop/GD32VW553/V1_MQTT_OK/GD32VW55X_Wifi_BLE_SDK/GD32VW55x_RELEASE_V1.0.2/MSDK/util/src\debug_print.c ****                         value =  (uint32_t)(-value);
 928:C:/Users/stapi/OneDrive/Desktop/GD32VW553/V1_MQTT_OK/GD32VW55X_Wifi_BLE_SDK/GD32VW55x_RELEASE_V1.0.2/MSDK/util/src\debug_print.c ****                         // remember negative sign
 929:C:/Users/stapi/OneDrive/Desktop/GD32VW553/V1_MQTT_OK/GD32VW55X_Wifi_BLE_SDK/GD32VW55x_RELEASE_V1.0.2/MSDK/util/src\debug_print.c ****                         field_flags |= FLAG_NEGATIVE;
 930:C:/Users/stapi/OneDrive/Desktop/GD32VW553/V1_MQTT_OK/GD32VW55X_Wifi_BLE_SDK/GD32VW55x_RELEASE_V1.0.2/MSDK/util/src\debug_print.c ****                     }
 931:C:/Users/stapi/OneDrive/Desktop/GD32VW553/V1_MQTT_OK/GD32VW55X_Wifi_BLE_SDK/GD32VW55x_RELEASE_V1.0.2/MSDK/util/src\debug_print.c **** 
 932:C:/Users/stapi/OneDrive/Desktop/GD32VW553/V1_MQTT_OK/GD32VW55X_Wifi_BLE_SDK/GD32VW55x_RELEASE_V1.0.2/MSDK/util/src\debug_print.c ****                 case 'u':
 933:C:/Users/stapi/OneDrive/Desktop/GD32VW553/V1_MQTT_OK/GD32VW55X_Wifi_BLE_SDK/GD32VW55x_RELEASE_V1.0.2/MSDK/util/src\debug_print.c ****                     do {
 934:C:/Users/stapi/OneDrive/Desktop/GD32VW553/V1_MQTT_OK/GD32VW55X_Wifi_BLE_SDK/GD32VW55x_RELEASE_V1.0.2/MSDK/util/src\debug_print.c ****                         // go backward
 935:C:/Users/stapi/OneDrive/Desktop/GD32VW553/V1_MQTT_OK/GD32VW55X_Wifi_BLE_SDK/GD32VW55x_RELEASE_V1.0.2/MSDK/util/src\debug_print.c ****                         fmt_field_ptr--;
 936:C:/Users/stapi/OneDrive/Desktop/GD32VW553/V1_MQTT_OK/GD32VW55X_Wifi_BLE_SDK/GD32VW55x_RELEASE_V1.0.2/MSDK/util/src\debug_print.c ****                         *fmt_field_ptr = ('0' + ((char)(value % 10)));
 937:C:/Users/stapi/OneDrive/Desktop/GD32VW553/V1_MQTT_OK/GD32VW55X_Wifi_BLE_SDK/GD32VW55x_RELEASE_V1.0.2/MSDK/util/src\debug_print.c ****                         value = value / 10;
 938:C:/Users/stapi/OneDrive/Desktop/GD32VW553/V1_MQTT_OK/GD32VW55X_Wifi_BLE_SDK/GD32VW55x_RELEASE_V1.0.2/MSDK/util/src\debug_print.c ****                         fmt_field_size++;
 939:C:/Users/stapi/OneDrive/Desktop/GD32VW553/V1_MQTT_OK/GD32VW55X_Wifi_BLE_SDK/GD32VW55x_RELEASE_V1.0.2/MSDK/util/src\debug_print.c ****                     } while (value != 0);
 940:C:/Users/stapi/OneDrive/Desktop/GD32VW553/V1_MQTT_OK/GD32VW55X_Wifi_BLE_SDK/GD32VW55x_RELEASE_V1.0.2/MSDK/util/src\debug_print.c **** 
 941:C:/Users/stapi/OneDrive/Desktop/GD32VW553/V1_MQTT_OK/GD32VW55X_Wifi_BLE_SDK/GD32VW55x_RELEASE_V1.0.2/MSDK/util/src\debug_print.c ****                     // Add the sign
 942:C:/Users/stapi/OneDrive/Desktop/GD32VW553/V1_MQTT_OK/GD32VW55X_Wifi_BLE_SDK/GD32VW55x_RELEASE_V1.0.2/MSDK/util/src\debug_print.c ****                     if (field_flags & FLAG_NEGATIVE) { // prefix with a '-'
 943:C:/Users/stapi/OneDrive/Desktop/GD32VW553/V1_MQTT_OK/GD32VW55X_Wifi_BLE_SDK/GD32VW55x_RELEASE_V1.0.2/MSDK/util/src\debug_print.c ****                         // go backward
 944:C:/Users/stapi/OneDrive/Desktop/GD32VW553/V1_MQTT_OK/GD32VW55X_Wifi_BLE_SDK/GD32VW55x_RELEASE_V1.0.2/MSDK/util/src\debug_print.c ****                         fmt_field_ptr--;
 945:C:/Users/stapi/OneDrive/Desktop/GD32VW553/V1_MQTT_OK/GD32VW55X_Wifi_BLE_SDK/GD32VW55x_RELEASE_V1.0.2/MSDK/util/src\debug_print.c **** 
 946:C:/Users/stapi/OneDrive/Desktop/GD32VW553/V1_MQTT_OK/GD32VW55X_Wifi_BLE_SDK/GD32VW55x_RELEASE_V1.0.2/MSDK/util/src\debug_print.c ****                         *fmt_field_ptr = '-';
 947:C:/Users/stapi/OneDrive/Desktop/GD32VW553/V1_MQTT_OK/GD32VW55X_Wifi_BLE_SDK/GD32VW55x_RELEASE_V1.0.2/MSDK/util/src\debug_print.c ****                         fmt_field_size++;
 948:C:/Users/stapi/OneDrive/Desktop/GD32VW553/V1_MQTT_OK/GD32VW55X_Wifi_BLE_SDK/GD32VW55x_RELEASE_V1.0.2/MSDK/util/src\debug_print.c ****                     }
 949:C:/Users/stapi/OneDrive/Desktop/GD32VW553/V1_MQTT_OK/GD32VW55X_Wifi_BLE_SDK/GD32VW55x_RELEASE_V1.0.2/MSDK/util/src\debug_print.c ****                     else if (field_flags & FLAG_SIGN) { // prefix with a '+' (sign is forced)
 950:C:/Users/stapi/OneDrive/Desktop/GD32VW553/V1_MQTT_OK/GD32VW55X_Wifi_BLE_SDK/GD32VW55x_RELEASE_V1.0.2/MSDK/util/src\debug_print.c ****                         // go backward
 951:C:/Users/stapi/OneDrive/Desktop/GD32VW553/V1_MQTT_OK/GD32VW55X_Wifi_BLE_SDK/GD32VW55x_RELEASE_V1.0.2/MSDK/util/src\debug_print.c ****                         fmt_field_ptr--;
 952:C:/Users/stapi/OneDrive/Desktop/GD32VW553/V1_MQTT_OK/GD32VW55X_Wifi_BLE_SDK/GD32VW55x_RELEASE_V1.0.2/MSDK/util/src\debug_print.c ****                         *fmt_field_ptr = '+';
 953:C:/Users/stapi/OneDrive/Desktop/GD32VW553/V1_MQTT_OK/GD32VW55X_Wifi_BLE_SDK/GD32VW55x_RELEASE_V1.0.2/MSDK/util/src\debug_print.c ****                         fmt_field_size++;
 954:C:/Users/stapi/OneDrive/Desktop/GD32VW553/V1_MQTT_OK/GD32VW55X_Wifi_BLE_SDK/GD32VW55x_RELEASE_V1.0.2/MSDK/util/src\debug_print.c ****                     } else if (field_flags & FLAG_SIGN_SPACE) { // prefix with a ' ' (used instead 
 955:C:/Users/stapi/OneDrive/Desktop/GD32VW553/V1_MQTT_OK/GD32VW55X_Wifi_BLE_SDK/GD32VW55x_RELEASE_V1.0.2/MSDK/util/src\debug_print.c ****                         // go backward
 956:C:/Users/stapi/OneDrive/Desktop/GD32VW553/V1_MQTT_OK/GD32VW55X_Wifi_BLE_SDK/GD32VW55x_RELEASE_V1.0.2/MSDK/util/src\debug_print.c ****                         fmt_field_ptr--;
 957:C:/Users/stapi/OneDrive/Desktop/GD32VW553/V1_MQTT_OK/GD32VW55X_Wifi_BLE_SDK/GD32VW55x_RELEASE_V1.0.2/MSDK/util/src\debug_print.c ****                         *fmt_field_ptr = ' ';
 958:C:/Users/stapi/OneDrive/Desktop/GD32VW553/V1_MQTT_OK/GD32VW55X_Wifi_BLE_SDK/GD32VW55x_RELEASE_V1.0.2/MSDK/util/src\debug_print.c ****                         fmt_field_size++;
 959:C:/Users/stapi/OneDrive/Desktop/GD32VW553/V1_MQTT_OK/GD32VW55X_Wifi_BLE_SDK/GD32VW55x_RELEASE_V1.0.2/MSDK/util/src\debug_print.c ****                     }
 960:C:/Users/stapi/OneDrive/Desktop/GD32VW553/V1_MQTT_OK/GD32VW55X_Wifi_BLE_SDK/GD32VW55x_RELEASE_V1.0.2/MSDK/util/src\debug_print.c ****                     break;
 961:C:/Users/stapi/OneDrive/Desktop/GD32VW553/V1_MQTT_OK/GD32VW55X_Wifi_BLE_SDK/GD32VW55x_RELEASE_V1.0.2/MSDK/util/src\debug_print.c **** 
 962:C:/Users/stapi/OneDrive/Desktop/GD32VW553/V1_MQTT_OK/GD32VW55X_Wifi_BLE_SDK/GD32VW55x_RELEASE_V1.0.2/MSDK/util/src\debug_print.c ****                 case 'x':
 963:C:/Users/stapi/OneDrive/Desktop/GD32VW553/V1_MQTT_OK/GD32VW55X_Wifi_BLE_SDK/GD32VW55x_RELEASE_V1.0.2/MSDK/util/src\debug_print.c ****                     #ifdef SUPPORT_LOWER_CASE_HEX
 964:C:/Users/stapi/OneDrive/Desktop/GD32VW553/V1_MQTT_OK/GD32VW55X_Wifi_BLE_SDK/GD32VW55x_RELEASE_V1.0.2/MSDK/util/src\debug_print.c ****                     do {
 965:C:/Users/stapi/OneDrive/Desktop/GD32VW553/V1_MQTT_OK/GD32VW55X_Wifi_BLE_SDK/GD32VW55x_RELEASE_V1.0.2/MSDK/util/src\debug_print.c ****                         // go backward
 966:C:/Users/stapi/OneDrive/Desktop/GD32VW553/V1_MQTT_OK/GD32VW55X_Wifi_BLE_SDK/GD32VW55x_RELEASE_V1.0.2/MSDK/util/src\debug_print.c ****                         fmt_field_ptr--;
 967:C:/Users/stapi/OneDrive/Desktop/GD32VW553/V1_MQTT_OK/GD32VW55X_Wifi_BLE_SDK/GD32VW55x_RELEASE_V1.0.2/MSDK/util/src\debug_print.c ****                         *fmt_field_ptr = hex_lower_table[value & 0XFUL];
 968:C:/Users/stapi/OneDrive/Desktop/GD32VW553/V1_MQTT_OK/GD32VW55X_Wifi_BLE_SDK/GD32VW55x_RELEASE_V1.0.2/MSDK/util/src\debug_print.c ****                         value = ((uint32_t)value) >> 4;
 969:C:/Users/stapi/OneDrive/Desktop/GD32VW553/V1_MQTT_OK/GD32VW55X_Wifi_BLE_SDK/GD32VW55x_RELEASE_V1.0.2/MSDK/util/src\debug_print.c ****                         fmt_field_size++;
 970:C:/Users/stapi/OneDrive/Desktop/GD32VW553/V1_MQTT_OK/GD32VW55X_Wifi_BLE_SDK/GD32VW55x_RELEASE_V1.0.2/MSDK/util/src\debug_print.c ****                     } while (value != 0);
 971:C:/Users/stapi/OneDrive/Desktop/GD32VW553/V1_MQTT_OK/GD32VW55X_Wifi_BLE_SDK/GD32VW55x_RELEASE_V1.0.2/MSDK/util/src\debug_print.c ****                     break;
 972:C:/Users/stapi/OneDrive/Desktop/GD32VW553/V1_MQTT_OK/GD32VW55X_Wifi_BLE_SDK/GD32VW55x_RELEASE_V1.0.2/MSDK/util/src\debug_print.c ****                     #endif
 973:C:/Users/stapi/OneDrive/Desktop/GD32VW553/V1_MQTT_OK/GD32VW55X_Wifi_BLE_SDK/GD32VW55x_RELEASE_V1.0.2/MSDK/util/src\debug_print.c **** 
 974:C:/Users/stapi/OneDrive/Desktop/GD32VW553/V1_MQTT_OK/GD32VW55X_Wifi_BLE_SDK/GD32VW55x_RELEASE_V1.0.2/MSDK/util/src\debug_print.c ****                 case 'X':
 975:C:/Users/stapi/OneDrive/Desktop/GD32VW553/V1_MQTT_OK/GD32VW55X_Wifi_BLE_SDK/GD32VW55x_RELEASE_V1.0.2/MSDK/util/src\debug_print.c ****                     do {
 976:C:/Users/stapi/OneDrive/Desktop/GD32VW553/V1_MQTT_OK/GD32VW55X_Wifi_BLE_SDK/GD32VW55x_RELEASE_V1.0.2/MSDK/util/src\debug_print.c ****                         // go backward
 977:C:/Users/stapi/OneDrive/Desktop/GD32VW553/V1_MQTT_OK/GD32VW55X_Wifi_BLE_SDK/GD32VW55x_RELEASE_V1.0.2/MSDK/util/src\debug_print.c ****                         fmt_field_ptr--;
 978:C:/Users/stapi/OneDrive/Desktop/GD32VW553/V1_MQTT_OK/GD32VW55X_Wifi_BLE_SDK/GD32VW55x_RELEASE_V1.0.2/MSDK/util/src\debug_print.c ****                         *fmt_field_ptr = hex_upper_table[value & 0XFUL];
 1659              		.loc 1 978 57
 1660 0034 B70F0000 		lui	t6,%hi(.LANCHOR1)
 1661 0038 C16B     		li	s7,65536
 1662 003a 370C0000 		lui	s8,%hi(.L190)
 718:C:/Users/stapi/OneDrive/Desktop/GD32VW553/V1_MQTT_OK/GD32VW55X_Wifi_BLE_SDK/GD32VW55x_RELEASE_V1.0.2/MSDK/util/src\debug_print.c **** 
 1663              		.loc 1 718 12
 1664 003e 2E83     		mv	t1,a1
 706:C:/Users/stapi/OneDrive/Desktop/GD32VW553/V1_MQTT_OK/GD32VW55X_Wifi_BLE_SDK/GD32VW55x_RELEASE_V1.0.2/MSDK/util/src\debug_print.c **** 
 1665              		.loc 1 706 14
 1666 0040 0145     		li	a0,0
 1667              	.LVL184:
 700:C:/Users/stapi/OneDrive/Desktop/GD32VW553/V1_MQTT_OK/GD32VW55X_Wifi_BLE_SDK/GD32VW55x_RELEASE_V1.0.2/MSDK/util/src\debug_print.c ****     int field_padding = 0;
 1668              		.loc 1 700 9
 1669 0042 014E     		li	t3,0
 699:C:/Users/stapi/OneDrive/Desktop/GD32VW553/V1_MQTT_OK/GD32VW55X_Wifi_BLE_SDK/GD32VW55x_RELEASE_V1.0.2/MSDK/util/src\debug_print.c ****     int field_precision = 0;
 1670              		.loc 1 699 10
 1671 0044 0148     		li	a6,0
 698:C:/Users/stapi/OneDrive/Desktop/GD32VW553/V1_MQTT_OK/GD32VW55X_Wifi_BLE_SDK/GD32VW55x_RELEASE_V1.0.2/MSDK/util/src\debug_print.c ****     char field_flags = 0;
 1672              		.loc 1 698 9
 1673 0046 814E     		li	t4,0
 693:C:/Users/stapi/OneDrive/Desktop/GD32VW553/V1_MQTT_OK/GD32VW55X_Wifi_BLE_SDK/GD32VW55x_RELEASE_V1.0.2/MSDK/util/src\debug_print.c ****     int fmt_field_size = 0;
 1674              		.loc 1 693 11
 1675 0048 8147     		li	a5,0
 690:C:/Users/stapi/OneDrive/Desktop/GD32VW553/V1_MQTT_OK/GD32VW55X_Wifi_BLE_SDK/GD32VW55x_RELEASE_V1.0.2/MSDK/util/src\debug_print.c ****     char c;
 1676              		.loc 1 690 14
 1677 004a 014F     		li	t5,0
 1678              	.LBB38:
 1679              	.LBB39:
 628:C:/Users/stapi/OneDrive/Desktop/GD32VW553/V1_MQTT_OK/GD32VW55X_Wifi_BLE_SDK/GD32VW55x_RELEASE_V1.0.2/MSDK/util/src\debug_print.c ****     {
 1680              		.loc 1 628 5
 1681 004c 93040003 		li	s1,48
 1682 0050 13090900 		addi	s2,s2,%lo(.L156)
 1683 0054 8509     		addi	s3,s3,1
 1684 0056 130A0A00 		addi	s4,s4,%lo(.L159)
 1685              	.LBE39:
 1686              	.LBE38:
 722:C:/Users/stapi/OneDrive/Desktop/GD32VW553/V1_MQTT_OK/GD32VW55X_Wifi_BLE_SDK/GD32VW55x_RELEASE_V1.0.2/MSDK/util/src\debug_print.c **** 
 1687              		.loc 1 722 57
 1688 005a 938A0A00 		addi	s5,s5,%lo(.LANCHOR0)
 1689 005e 130B0B00 		addi	s6,s6,%lo(.L168)
 979:C:/Users/stapi/OneDrive/Desktop/GD32VW553/V1_MQTT_OK/GD32VW55X_Wifi_BLE_SDK/GD32VW55x_RELEASE_V1.0.2/MSDK/util/src\debug_print.c ****                         value = ((uint32_t)value) >> 4;
 980:C:/Users/stapi/OneDrive/Desktop/GD32VW553/V1_MQTT_OK/GD32VW55X_Wifi_BLE_SDK/GD32VW55x_RELEASE_V1.0.2/MSDK/util/src\debug_print.c ****                         fmt_field_size++;
 981:C:/Users/stapi/OneDrive/Desktop/GD32VW553/V1_MQTT_OK/GD32VW55X_Wifi_BLE_SDK/GD32VW55x_RELEASE_V1.0.2/MSDK/util/src\debug_print.c ****                     } while (value != 0);
 982:C:/Users/stapi/OneDrive/Desktop/GD32VW553/V1_MQTT_OK/GD32VW55X_Wifi_BLE_SDK/GD32VW55x_RELEASE_V1.0.2/MSDK/util/src\debug_print.c ****                     break;
 983:C:/Users/stapi/OneDrive/Desktop/GD32VW553/V1_MQTT_OK/GD32VW55X_Wifi_BLE_SDK/GD32VW55x_RELEASE_V1.0.2/MSDK/util/src\debug_print.c **** 
 984:C:/Users/stapi/OneDrive/Desktop/GD32VW553/V1_MQTT_OK/GD32VW55X_Wifi_BLE_SDK/GD32VW55x_RELEASE_V1.0.2/MSDK/util/src\debug_print.c ****                 case 'b':
 985:C:/Users/stapi/OneDrive/Desktop/GD32VW553/V1_MQTT_OK/GD32VW55X_Wifi_BLE_SDK/GD32VW55x_RELEASE_V1.0.2/MSDK/util/src\debug_print.c ****                     do {
 986:C:/Users/stapi/OneDrive/Desktop/GD32VW553/V1_MQTT_OK/GD32VW55X_Wifi_BLE_SDK/GD32VW55x_RELEASE_V1.0.2/MSDK/util/src\debug_print.c ****                         // go backward
 987:C:/Users/stapi/OneDrive/Desktop/GD32VW553/V1_MQTT_OK/GD32VW55X_Wifi_BLE_SDK/GD32VW55x_RELEASE_V1.0.2/MSDK/util/src\debug_print.c ****                         fmt_field_ptr--;
 988:C:/Users/stapi/OneDrive/Desktop/GD32VW553/V1_MQTT_OK/GD32VW55X_Wifi_BLE_SDK/GD32VW55x_RELEASE_V1.0.2/MSDK/util/src\debug_print.c ****                         *fmt_field_ptr = '0' + ((char)(value & 0x01UL));
 989:C:/Users/stapi/OneDrive/Desktop/GD32VW553/V1_MQTT_OK/GD32VW55X_Wifi_BLE_SDK/GD32VW55x_RELEASE_V1.0.2/MSDK/util/src\debug_print.c ****                         value = ((uint32_t)value) >> 1;
 990:C:/Users/stapi/OneDrive/Desktop/GD32VW553/V1_MQTT_OK/GD32VW55X_Wifi_BLE_SDK/GD32VW55x_RELEASE_V1.0.2/MSDK/util/src\debug_print.c ****                         fmt_field_size++;
 991:C:/Users/stapi/OneDrive/Desktop/GD32VW553/V1_MQTT_OK/GD32VW55X_Wifi_BLE_SDK/GD32VW55x_RELEASE_V1.0.2/MSDK/util/src\debug_print.c ****                     } while (value != 0);
 992:C:/Users/stapi/OneDrive/Desktop/GD32VW553/V1_MQTT_OK/GD32VW55X_Wifi_BLE_SDK/GD32VW55x_RELEASE_V1.0.2/MSDK/util/src\debug_print.c ****                     break;
 993:C:/Users/stapi/OneDrive/Desktop/GD32VW553/V1_MQTT_OK/GD32VW55X_Wifi_BLE_SDK/GD32VW55x_RELEASE_V1.0.2/MSDK/util/src\debug_print.c ****                 default:
 994:C:/Users/stapi/OneDrive/Desktop/GD32VW553/V1_MQTT_OK/GD32VW55X_Wifi_BLE_SDK/GD32VW55x_RELEASE_V1.0.2/MSDK/util/src\debug_print.c ****                     //ASSERT_ERR(0);
 995:C:/Users/stapi/OneDrive/Desktop/GD32VW553/V1_MQTT_OK/GD32VW55X_Wifi_BLE_SDK/GD32VW55x_RELEASE_V1.0.2/MSDK/util/src\debug_print.c ****                     break;
 996:C:/Users/stapi/OneDrive/Desktop/GD32VW553/V1_MQTT_OK/GD32VW55X_Wifi_BLE_SDK/GD32VW55x_RELEASE_V1.0.2/MSDK/util/src\debug_print.c ****                 } // embedded switch type
 997:C:/Users/stapi/OneDrive/Desktop/GD32VW553/V1_MQTT_OK/GD32VW55X_Wifi_BLE_SDK/GD32VW55x_RELEASE_V1.0.2/MSDK/util/src\debug_print.c **** 
 998:C:/Users/stapi/OneDrive/Desktop/GD32VW553/V1_MQTT_OK/GD32VW55X_Wifi_BLE_SDK/GD32VW55x_RELEASE_V1.0.2/MSDK/util/src\debug_print.c ****             default:
 999:C:/Users/stapi/OneDrive/Desktop/GD32VW553/V1_MQTT_OK/GD32VW55X_Wifi_BLE_SDK/GD32VW55x_RELEASE_V1.0.2/MSDK/util/src\debug_print.c ****                 //ASSERT_ERR(0);
1000:C:/Users/stapi/OneDrive/Desktop/GD32VW553/V1_MQTT_OK/GD32VW55X_Wifi_BLE_SDK/GD32VW55x_RELEASE_V1.0.2/MSDK/util/src\debug_print.c ****                 break;
1001:C:/Users/stapi/OneDrive/Desktop/GD32VW553/V1_MQTT_OK/GD32VW55X_Wifi_BLE_SDK/GD32VW55x_RELEASE_V1.0.2/MSDK/util/src\debug_print.c ****             } // switch type
1002:C:/Users/stapi/OneDrive/Desktop/GD32VW553/V1_MQTT_OK/GD32VW55X_Wifi_BLE_SDK/GD32VW55x_RELEASE_V1.0.2/MSDK/util/src\debug_print.c **** 
1003:C:/Users/stapi/OneDrive/Desktop/GD32VW553/V1_MQTT_OK/GD32VW55X_Wifi_BLE_SDK/GD32VW55x_RELEASE_V1.0.2/MSDK/util/src\debug_print.c ****             // Add padding
1004:C:/Users/stapi/OneDrive/Desktop/GD32VW553/V1_MQTT_OK/GD32VW55X_Wifi_BLE_SDK/GD32VW55x_RELEASE_V1.0.2/MSDK/util/src\debug_print.c ****             field_padding = field_width - fmt_field_size;
1005:C:/Users/stapi/OneDrive/Desktop/GD32VW553/V1_MQTT_OK/GD32VW55X_Wifi_BLE_SDK/GD32VW55x_RELEASE_V1.0.2/MSDK/util/src\debug_print.c **** 
1006:C:/Users/stapi/OneDrive/Desktop/GD32VW553/V1_MQTT_OK/GD32VW55X_Wifi_BLE_SDK/GD32VW55x_RELEASE_V1.0.2/MSDK/util/src\debug_print.c ****             // put out the padding, prefix, and text, in the correct order
1007:C:/Users/stapi/OneDrive/Desktop/GD32VW553/V1_MQTT_OK/GD32VW55X_Wifi_BLE_SDK/GD32VW55x_RELEASE_V1.0.2/MSDK/util/src\debug_print.c ****             if (field_flags & FLAG_LEAD_ZERO) {
1008:C:/Users/stapi/OneDrive/Desktop/GD32VW553/V1_MQTT_OK/GD32VW55X_Wifi_BLE_SDK/GD32VW55x_RELEASE_V1.0.2/MSDK/util/src\debug_print.c ****                 // Add leading zeros
1009:C:/Users/stapi/OneDrive/Desktop/GD32VW553/V1_MQTT_OK/GD32VW55X_Wifi_BLE_SDK/GD32VW55x_RELEASE_V1.0.2/MSDK/util/src\debug_print.c ****                 while (field_padding > 0) {
1010:C:/Users/stapi/OneDrive/Desktop/GD32VW553/V1_MQTT_OK/GD32VW55X_Wifi_BLE_SDK/GD32VW55x_RELEASE_V1.0.2/MSDK/util/src\debug_print.c ****                     WRITE_CHAR('0');
1011:C:/Users/stapi/OneDrive/Desktop/GD32VW553/V1_MQTT_OK/GD32VW55X_Wifi_BLE_SDK/GD32VW55x_RELEASE_V1.0.2/MSDK/util/src\debug_print.c ****                     field_padding--;
1012:C:/Users/stapi/OneDrive/Desktop/GD32VW553/V1_MQTT_OK/GD32VW55X_Wifi_BLE_SDK/GD32VW55x_RELEASE_V1.0.2/MSDK/util/src\debug_print.c ****                 }
1013:C:/Users/stapi/OneDrive/Desktop/GD32VW553/V1_MQTT_OK/GD32VW55X_Wifi_BLE_SDK/GD32VW55x_RELEASE_V1.0.2/MSDK/util/src\debug_print.c ****             } else if (!(field_flags & FLAG_LEFT)) {
1014:C:/Users/stapi/OneDrive/Desktop/GD32VW553/V1_MQTT_OK/GD32VW55X_Wifi_BLE_SDK/GD32VW55x_RELEASE_V1.0.2/MSDK/util/src\debug_print.c ****                 while (field_padding > 0) {
1015:C:/Users/stapi/OneDrive/Desktop/GD32VW553/V1_MQTT_OK/GD32VW55X_Wifi_BLE_SDK/GD32VW55x_RELEASE_V1.0.2/MSDK/util/src\debug_print.c ****                     WRITE_CHAR(' ');
1016:C:/Users/stapi/OneDrive/Desktop/GD32VW553/V1_MQTT_OK/GD32VW55X_Wifi_BLE_SDK/GD32VW55x_RELEASE_V1.0.2/MSDK/util/src\debug_print.c ****                     field_padding--;
1017:C:/Users/stapi/OneDrive/Desktop/GD32VW553/V1_MQTT_OK/GD32VW55X_Wifi_BLE_SDK/GD32VW55x_RELEASE_V1.0.2/MSDK/util/src\debug_print.c ****                 }
1018:C:/Users/stapi/OneDrive/Desktop/GD32VW553/V1_MQTT_OK/GD32VW55X_Wifi_BLE_SDK/GD32VW55x_RELEASE_V1.0.2/MSDK/util/src\debug_print.c ****             }
1019:C:/Users/stapi/OneDrive/Desktop/GD32VW553/V1_MQTT_OK/GD32VW55X_Wifi_BLE_SDK/GD32VW55x_RELEASE_V1.0.2/MSDK/util/src\debug_print.c **** 
1020:C:/Users/stapi/OneDrive/Desktop/GD32VW553/V1_MQTT_OK/GD32VW55X_Wifi_BLE_SDK/GD32VW55x_RELEASE_V1.0.2/MSDK/util/src\debug_print.c ****             // Copy the formated field
1021:C:/Users/stapi/OneDrive/Desktop/GD32VW553/V1_MQTT_OK/GD32VW55X_Wifi_BLE_SDK/GD32VW55x_RELEASE_V1.0.2/MSDK/util/src\debug_print.c ****             while (fmt_field_size > 0) {
1022:C:/Users/stapi/OneDrive/Desktop/GD32VW553/V1_MQTT_OK/GD32VW55X_Wifi_BLE_SDK/GD32VW55x_RELEASE_V1.0.2/MSDK/util/src\debug_print.c ****                 WRITE_CHAR(*fmt_field_ptr);
1023:C:/Users/stapi/OneDrive/Desktop/GD32VW553/V1_MQTT_OK/GD32VW55X_Wifi_BLE_SDK/GD32VW55x_RELEASE_V1.0.2/MSDK/util/src\debug_print.c ****                 fmt_field_ptr++;
1024:C:/Users/stapi/OneDrive/Desktop/GD32VW553/V1_MQTT_OK/GD32VW55X_Wifi_BLE_SDK/GD32VW55x_RELEASE_V1.0.2/MSDK/util/src\debug_print.c ****                 fmt_field_size--;
1025:C:/Users/stapi/OneDrive/Desktop/GD32VW553/V1_MQTT_OK/GD32VW55X_Wifi_BLE_SDK/GD32VW55x_RELEASE_V1.0.2/MSDK/util/src\debug_print.c ****             }
1026:C:/Users/stapi/OneDrive/Desktop/GD32VW553/V1_MQTT_OK/GD32VW55X_Wifi_BLE_SDK/GD32VW55x_RELEASE_V1.0.2/MSDK/util/src\debug_print.c **** 
1027:C:/Users/stapi/OneDrive/Desktop/GD32VW553/V1_MQTT_OK/GD32VW55X_Wifi_BLE_SDK/GD32VW55x_RELEASE_V1.0.2/MSDK/util/src\debug_print.c ****             // Add blanks at the rigth (means (field_flags & FLAG_LEFT))
1028:C:/Users/stapi/OneDrive/Desktop/GD32VW553/V1_MQTT_OK/GD32VW55X_Wifi_BLE_SDK/GD32VW55x_RELEASE_V1.0.2/MSDK/util/src\debug_print.c ****             while ((field_padding > 0)) {
1029:C:/Users/stapi/OneDrive/Desktop/GD32VW553/V1_MQTT_OK/GD32VW55X_Wifi_BLE_SDK/GD32VW55x_RELEASE_V1.0.2/MSDK/util/src\debug_print.c ****                 WRITE_CHAR(' ');
 1690              		.loc 1 1029 17
 1691 0062 13040002 		li	s0,32
 978:C:/Users/stapi/OneDrive/Desktop/GD32VW553/V1_MQTT_OK/GD32VW55X_Wifi_BLE_SDK/GD32VW55x_RELEASE_V1.0.2/MSDK/util/src\debug_print.c ****                         value = ((uint32_t)value) >> 4;
 1692              		.loc 1 978 57
 1693 0066 938F0F00 		addi	t6,t6,%lo(.LANCHOR1)
 1694 006a FD1B     		addi	s7,s7,-1
 1695 006c 130C0C00 		addi	s8,s8,%lo(.L190)
 1696              	.LVL185:
 1697              	.L151:
 721:C:/Users/stapi/OneDrive/Desktop/GD32VW553/V1_MQTT_OK/GD32VW55X_Wifi_BLE_SDK/GD32VW55x_RELEASE_V1.0.2/MSDK/util/src\debug_print.c ****         state_current =  transition_table[state_current][type_get(c)];
 1698              		.loc 1 721 11 is_stmt 1
 721:C:/Users/stapi/OneDrive/Desktop/GD32VW553/V1_MQTT_OK/GD32VW55X_Wifi_BLE_SDK/GD32VW55x_RELEASE_V1.0.2/MSDK/util/src\debug_print.c ****         state_current =  transition_table[state_current][type_get(c)];
 1699              		.loc 1 721 21 is_stmt 0
 1700 0070 8506     		addi	a3,a3,1
 1701              	.LVL186:
 721:C:/Users/stapi/OneDrive/Desktop/GD32VW553/V1_MQTT_OK/GD32VW55X_Wifi_BLE_SDK/GD32VW55x_RELEASE_V1.0.2/MSDK/util/src\debug_print.c ****         state_current =  transition_table[state_current][type_get(c)];
 1702              		.loc 1 721 15
 1703 0072 8382F6FF 		lb	t0,-1(a3)
 1704              	.LVL187:
 721:C:/Users/stapi/OneDrive/Desktop/GD32VW553/V1_MQTT_OK/GD32VW55X_Wifi_BLE_SDK/GD32VW55x_RELEASE_V1.0.2/MSDK/util/src\debug_print.c ****         state_current =  transition_table[state_current][type_get(c)];
 1705              		.loc 1 721 11
 1706 0076 63940202 		bne	t0,zero,.L232
1030:C:/Users/stapi/OneDrive/Desktop/GD32VW553/V1_MQTT_OK/GD32VW55X_Wifi_BLE_SDK/GD32VW55x_RELEASE_V1.0.2/MSDK/util/src\debug_print.c ****                 field_padding--;
1031:C:/Users/stapi/OneDrive/Desktop/GD32VW553/V1_MQTT_OK/GD32VW55X_Wifi_BLE_SDK/GD32VW55x_RELEASE_V1.0.2/MSDK/util/src\debug_print.c ****             }
1032:C:/Users/stapi/OneDrive/Desktop/GD32VW553/V1_MQTT_OK/GD32VW55X_Wifi_BLE_SDK/GD32VW55x_RELEASE_V1.0.2/MSDK/util/src\debug_print.c ****             break;
1033:C:/Users/stapi/OneDrive/Desktop/GD32VW553/V1_MQTT_OK/GD32VW55X_Wifi_BLE_SDK/GD32VW55x_RELEASE_V1.0.2/MSDK/util/src\debug_print.c **** 
1034:C:/Users/stapi/OneDrive/Desktop/GD32VW553/V1_MQTT_OK/GD32VW55X_Wifi_BLE_SDK/GD32VW55x_RELEASE_V1.0.2/MSDK/util/src\debug_print.c ****         default:
1035:C:/Users/stapi/OneDrive/Desktop/GD32VW553/V1_MQTT_OK/GD32VW55X_Wifi_BLE_SDK/GD32VW55x_RELEASE_V1.0.2/MSDK/util/src\debug_print.c ****             PLF_ASSERT_ERR(0);
1036:C:/Users/stapi/OneDrive/Desktop/GD32VW553/V1_MQTT_OK/GD32VW55X_Wifi_BLE_SDK/GD32VW55x_RELEASE_V1.0.2/MSDK/util/src\debug_print.c ****             break;
1037:C:/Users/stapi/OneDrive/Desktop/GD32VW553/V1_MQTT_OK/GD32VW55X_Wifi_BLE_SDK/GD32VW55x_RELEASE_V1.0.2/MSDK/util/src\debug_print.c ****         }  // switch state
1038:C:/Users/stapi/OneDrive/Desktop/GD32VW553/V1_MQTT_OK/GD32VW55X_Wifi_BLE_SDK/GD32VW55x_RELEASE_V1.0.2/MSDK/util/src\debug_print.c ****     }  // while
1039:C:/Users/stapi/OneDrive/Desktop/GD32VW553/V1_MQTT_OK/GD32VW55X_Wifi_BLE_SDK/GD32VW55x_RELEASE_V1.0.2/MSDK/util/src\debug_print.c **** 
1040:C:/Users/stapi/OneDrive/Desktop/GD32VW553/V1_MQTT_OK/GD32VW55X_Wifi_BLE_SDK/GD32VW55x_RELEASE_V1.0.2/MSDK/util/src\debug_print.c ****     #undef WRITE_CHAR
1041:C:/Users/stapi/OneDrive/Desktop/GD32VW553/V1_MQTT_OK/GD32VW55X_Wifi_BLE_SDK/GD32VW55x_RELEASE_V1.0.2/MSDK/util/src\debug_print.c **** 
1042:C:/Users/stapi/OneDrive/Desktop/GD32VW553/V1_MQTT_OK/GD32VW55X_Wifi_BLE_SDK/GD32VW55x_RELEASE_V1.0.2/MSDK/util/src\debug_print.c ****     if (remain) {
 1707              		.loc 1 1042 5 is_stmt 1
 1708              		.loc 1 1042 8 is_stmt 0
 1709 007a 63020348 		beq	t1,zero,.L233
1043:C:/Users/stapi/OneDrive/Desktop/GD32VW553/V1_MQTT_OK/GD32VW55X_Wifi_BLE_SDK/GD32VW55x_RELEASE_V1.0.2/MSDK/util/src\debug_print.c ****         *buffer = '\0';
 1710              		.loc 1 1043 9 is_stmt 1
 1711              		.loc 1 1043 17 is_stmt 0
 1712 007e 23800800 		sb	zero,0(a7)
 1713              	.L149:
1044:C:/Users/stapi/OneDrive/Desktop/GD32VW553/V1_MQTT_OK/GD32VW55X_Wifi_BLE_SDK/GD32VW55x_RELEASE_V1.0.2/MSDK/util/src\debug_print.c ****     } else if (size) {
1045:C:/Users/stapi/OneDrive/Desktop/GD32VW553/V1_MQTT_OK/GD32VW55X_Wifi_BLE_SDK/GD32VW55x_RELEASE_V1.0.2/MSDK/util/src\debug_print.c ****         buffer[-1] = '\0';
1046:C:/Users/stapi/OneDrive/Desktop/GD32VW553/V1_MQTT_OK/GD32VW55X_Wifi_BLE_SDK/GD32VW55x_RELEASE_V1.0.2/MSDK/util/src\debug_print.c ****     }
1047:C:/Users/stapi/OneDrive/Desktop/GD32VW553/V1_MQTT_OK/GD32VW55X_Wifi_BLE_SDK/GD32VW55x_RELEASE_V1.0.2/MSDK/util/src\debug_print.c **** 
1048:C:/Users/stapi/OneDrive/Desktop/GD32VW553/V1_MQTT_OK/GD32VW55X_Wifi_BLE_SDK/GD32VW55x_RELEASE_V1.0.2/MSDK/util/src\debug_print.c ****     return res;
1049:C:/Users/stapi/OneDrive/Desktop/GD32VW553/V1_MQTT_OK/GD32VW55X_Wifi_BLE_SDK/GD32VW55x_RELEASE_V1.0.2/MSDK/util/src\debug_print.c **** }
 1714              		.loc 1 1049 1
 1715 0082 3654     		lw	s0,108(sp)
 1716              		.cfi_remember_state
 1717              		.cfi_restore 8
 1718 0084 A654     		lw	s1,104(sp)
 1719              		.cfi_restore 9
 1720 0086 1659     		lw	s2,100(sp)
 1721              		.cfi_restore 18
 1722 0088 8659     		lw	s3,96(sp)
 1723              		.cfi_restore 19
 1724 008a 764A     		lw	s4,92(sp)
 1725              		.cfi_restore 20
 1726 008c E64A     		lw	s5,88(sp)
 1727              		.cfi_restore 21
 1728 008e 564B     		lw	s6,84(sp)
 1729              		.cfi_restore 22
 1730 0090 C64B     		lw	s7,80(sp)
 1731              		.cfi_restore 23
 1732 0092 364C     		lw	s8,76(sp)
 1733              		.cfi_restore 24
 1734 0094 A64C     		lw	s9,72(sp)
 1735              		.cfi_restore 25
 1736 0096 164D     		lw	s10,68(sp)
 1737              		.cfi_restore 26
 1738 0098 864D     		lw	s11,64(sp)
 1739              		.cfi_restore 27
 1740 009a 6561     		addi	sp,sp,112
 1741              		.cfi_def_cfa_offset 0
 1742 009c 8280     		jr	ra
 1743              	.L232:
 1744              		.cfi_restore_state
 722:C:/Users/stapi/OneDrive/Desktop/GD32VW553/V1_MQTT_OK/GD32VW55X_Wifi_BLE_SDK/GD32VW55x_RELEASE_V1.0.2/MSDK/util/src\debug_print.c **** 
 1745              		.loc 1 722 9 is_stmt 1
 1746              	.LVL188:
 1747              	.LBB42:
 1748              	.LBB40:
 626:C:/Users/stapi/OneDrive/Desktop/GD32VW553/V1_MQTT_OK/GD32VW55X_Wifi_BLE_SDK/GD32VW55x_RELEASE_V1.0.2/MSDK/util/src\debug_print.c **** 
 1749              		.loc 1 626 5
 628:C:/Users/stapi/OneDrive/Desktop/GD32VW553/V1_MQTT_OK/GD32VW55X_Wifi_BLE_SDK/GD32VW55x_RELEASE_V1.0.2/MSDK/util/src\debug_print.c ****     {
 1750              		.loc 1 628 5
 1751 009e 63CC5404 		bgt	t0,s1,.L152
 1752 00a2 FD43     		li	t2,31
 1753 00a4 63CB5302 		bgt	t0,t2,.L153
 1754              	.L154:
 673:C:/Users/stapi/OneDrive/Desktop/GD32VW553/V1_MQTT_OK/GD32VW55X_Wifi_BLE_SDK/GD32VW55x_RELEASE_V1.0.2/MSDK/util/src\debug_print.c ****         {
 1755              		.loc 1 673 9
 673:C:/Users/stapi/OneDrive/Desktop/GD32VW553/V1_MQTT_OK/GD32VW55X_Wifi_BLE_SDK/GD32VW55x_RELEASE_V1.0.2/MSDK/util/src\debug_print.c ****         {
 1756              		.loc 1 673 24 is_stmt 0
 1757 00a8 938CF2FC 		addi	s9,t0,-49
 673:C:/Users/stapi/OneDrive/Desktop/GD32VW553/V1_MQTT_OK/GD32VW55X_Wifi_BLE_SDK/GD32VW55x_RELEASE_V1.0.2/MSDK/util/src\debug_print.c ****         {
 1758              		.loc 1 673 12
 1759 00ac 93FCFC0F 		andi	s9,s9,0xff
 1760 00b0 214D     		li	s10,8
 675:C:/Users/stapi/OneDrive/Desktop/GD32VW553/V1_MQTT_OK/GD32VW55X_Wifi_BLE_SDK/GD32VW55x_RELEASE_V1.0.2/MSDK/util/src\debug_print.c ****         }
 1761              		.loc 1 675 17
 1762 00b2 9143     		li	t2,4
 673:C:/Users/stapi/OneDrive/Desktop/GD32VW553/V1_MQTT_OK/GD32VW55X_Wifi_BLE_SDK/GD32VW55x_RELEASE_V1.0.2/MSDK/util/src\debug_print.c ****         {
 1763              		.loc 1 673 12
 1764 00b4 63759D01 		bleu	s9,s10,.L157
 679:C:/Users/stapi/OneDrive/Desktop/GD32VW553/V1_MQTT_OK/GD32VW55X_Wifi_BLE_SDK/GD32VW55x_RELEASE_V1.0.2/MSDK/util/src\debug_print.c ****         }
 1765              		.loc 1 679 17
 1766 00b8 8143     		li	t2,0
 1767 00ba 11A0     		j	.L157
 1768              	.L155:
 665:C:/Users/stapi/OneDrive/Desktop/GD32VW553/V1_MQTT_OK/GD32VW55X_Wifi_BLE_SDK/GD32VW55x_RELEASE_V1.0.2/MSDK/util/src\debug_print.c ****         break;
 1769              		.loc 1 665 13
 1770 00bc 9D43     		li	t2,7
 1771              	.L157:
 1772              	.LVL189:
 684:C:/Users/stapi/OneDrive/Desktop/GD32VW553/V1_MQTT_OK/GD32VW55X_Wifi_BLE_SDK/GD32VW55x_RELEASE_V1.0.2/MSDK/util/src\debug_print.c **** }
 1773              		.loc 1 684 5 is_stmt 1
 1774              	.LBE40:
 1775              	.LBE42:
 722:C:/Users/stapi/OneDrive/Desktop/GD32VW553/V1_MQTT_OK/GD32VW55X_Wifi_BLE_SDK/GD32VW55x_RELEASE_V1.0.2/MSDK/util/src\debug_print.c **** 
 1776              		.loc 1 722 57 is_stmt 0
 1777 00be 336F5F21 		sh3add	t5,t5,s5
 1778              	.LVL190:
 1779 00c2 FA93     		add	t2,t5,t2
 1780 00c4 83C30300 		lbu	t2,0(t2)
 1781              	.LVL191:
 724:C:/Users/stapi/OneDrive/Desktop/GD32VW553/V1_MQTT_OK/GD32VW55X_Wifi_BLE_SDK/GD32VW55x_RELEASE_V1.0.2/MSDK/util/src\debug_print.c ****         {
 1782              		.loc 1 724 9 is_stmt 1
 1783 00c8 9D4C     		li	s9,7
 722:C:/Users/stapi/OneDrive/Desktop/GD32VW553/V1_MQTT_OK/GD32VW55X_Wifi_BLE_SDK/GD32VW55x_RELEASE_V1.0.2/MSDK/util/src\debug_print.c **** 
 1784              		.loc 1 722 23 is_stmt 0
 1785 00ca 1E8F     		mv	t5,t2
 1786 00cc E3E27CFA 		bgtu	t2,s9,.L151
 1787 00d0 B3C36321 		sh2add	t2,t2,s6
 1788              	.LVL192:
 1789 00d4 03AF0300 		lw	t5,0(t2)
 1790              	.LVL193:
 1791 00d8 028F     		jr	t5
 1792              		.section	.rodata.dbg_vsnprintf_offset,"a",@progbits
 1793              		.align	2
 1794              		.align	2
 1795              	.L168:
 1796 0000 00000000 		.word	.L175
 1797 0004 00000000 		.word	.L174
 1798 0008 00000000 		.word	.L173
 1799 000c 00000000 		.word	.L172
 1800 0010 00000000 		.word	.L239
 1801 0014 00000000 		.word	.L170
 1802 0018 00000000 		.word	.L169
 1803 001c 00000000 		.word	.L167
 1804              		.section	.text.dbg_vsnprintf_offset
 1805              	.LVL194:
 1806              	.L153:
 1807 00da 938302FE 		addi	t2,t0,-32
 1808 00de 93F3F30F 		andi	t2,t2,0xff
 1809 00e2 C14C     		li	s9,16
 1810 00e4 E3E27CFC 		bgtu	t2,s9,.L154
 1811 00e8 B3C34321 		sh2add	t2,t2,s4
 1812 00ec 83A30300 		lw	t2,0(t2)
 1813 00f0 8283     		jr	t2
 1814              		.section	.rodata.dbg_vsnprintf_offset
 1815              		.align	2
 1816              		.align	2
 1817              	.L159:
 1818 0020 00000000 		.word	.L161
 1819 0024 00000000 		.word	.L154
 1820 0028 00000000 		.word	.L154
 1821 002c 00000000 		.word	.L154
 1822 0030 00000000 		.word	.L154
 1823 0034 00000000 		.word	.L237
 1824 0038 00000000 		.word	.L154
 1825 003c 00000000 		.word	.L154
 1826 0040 00000000 		.word	.L154
 1827 0044 00000000 		.word	.L154
 1828 0048 00000000 		.word	.L162
 1829 004c 00000000 		.word	.L161
 1830 0050 00000000 		.word	.L154
 1831 0054 00000000 		.word	.L161
 1832 0058 00000000 		.word	.L160
 1833 005c 00000000 		.word	.L154
 1834 0060 00000000 		.word	.L158
 1835              		.section	.text.dbg_vsnprintf_offset
 1836              	.L160:
 1837              	.LBB43:
 1838              	.LBB41:
 635:C:/Users/stapi/OneDrive/Desktop/GD32VW553/V1_MQTT_OK/GD32VW55X_Wifi_BLE_SDK/GD32VW55x_RELEASE_V1.0.2/MSDK/util/src\debug_print.c ****         break;
 1839              		.loc 1 635 13
 1840 00f2 8943     		li	t2,2
 1841 00f4 E9B7     		j	.L157
 1842              	.L152:
 628:C:/Users/stapi/OneDrive/Desktop/GD32VW553/V1_MQTT_OK/GD32VW55X_Wifi_BLE_SDK/GD32VW55x_RELEASE_V1.0.2/MSDK/util/src\debug_print.c ****     {
 1843              		.loc 1 628 5
 1844 00f6 93038005 		li	t2,88
 1845 00fa 63C05302 		bgt	t0,t2,.L163
 1846 00fe 93030004 		li	t2,64
 1847 0102 E3D353FA 		ble	t0,t2,.L154
 1848 0106 938CF2FB 		addi	s9,t0,-65
 1849 010a B31C9029 		bset	s9,x0,s9
 1850 010e B3FC3C01 		and	s9,s9,s3
 665:C:/Users/stapi/OneDrive/Desktop/GD32VW553/V1_MQTT_OK/GD32VW55X_Wifi_BLE_SDK/GD32VW55x_RELEASE_V1.0.2/MSDK/util/src\debug_print.c ****         break;
 1851              		.loc 1 665 13
 1852 0112 9D43     		li	t2,7
 1853 0114 E38A0CF8 		beq	s9,zero,.L154
 1854 0118 5DB7     		j	.L157
 1855              	.L163:
 628:C:/Users/stapi/OneDrive/Desktop/GD32VW553/V1_MQTT_OK/GD32VW55X_Wifi_BLE_SDK/GD32VW55x_RELEASE_V1.0.2/MSDK/util/src\debug_print.c ****     {
 1856              		.loc 1 628 5
 1857 011a 9383F2F9 		addi	t2,t0,-97
 1858 011e 93F3F30F 		andi	t2,t2,0xff
 1859 0122 DD4C     		li	s9,23
 1860 0124 E3E27CF8 		bgtu	t2,s9,.L154
 1861 0128 B3C32321 		sh2add	t2,t2,s2
 1862 012c 83A30300 		lw	t2,0(t2)
 1863 0130 8283     		jr	t2
 1864              		.section	.rodata.dbg_vsnprintf_offset
 1865              		.align	2
 1866              		.align	2
 1867              	.L156:
 1868 0064 00000000 		.word	.L155
 1869 0068 00000000 		.word	.L155
 1870 006c 00000000 		.word	.L155
 1871 0070 00000000 		.word	.L155
 1872 0074 00000000 		.word	.L154
 1873 0078 00000000 		.word	.L154
 1874 007c 00000000 		.word	.L154
 1875 0080 00000000 		.word	.L235
 1876 0084 00000000 		.word	.L155
 1877 0088 00000000 		.word	.L154
 1878 008c 00000000 		.word	.L154
 1879 0090 00000000 		.word	.L235
 1880 0094 00000000 		.word	.L155
 1881 0098 00000000 		.word	.L154
 1882 009c 00000000 		.word	.L154
 1883 00a0 00000000 		.word	.L154
 1884 00a4 00000000 		.word	.L154
 1885 00a8 00000000 		.word	.L154
 1886 00ac 00000000 		.word	.L155
 1887 00b0 00000000 		.word	.L154
 1888 00b4 00000000 		.word	.L155
 1889 00b8 00000000 		.word	.L154
 1890 00bc 00000000 		.word	.L154
 1891 00c0 00000000 		.word	.L155
 1892              		.section	.text.dbg_vsnprintf_offset
 1893              	.L158:
 639:C:/Users/stapi/OneDrive/Desktop/GD32VW553/V1_MQTT_OK/GD32VW55X_Wifi_BLE_SDK/GD32VW55x_RELEASE_V1.0.2/MSDK/util/src\debug_print.c ****         break;
 1894              		.loc 1 639 9 is_stmt 1
 1895              	.LVL195:
 640:C:/Users/stapi/OneDrive/Desktop/GD32VW553/V1_MQTT_OK/GD32VW55X_Wifi_BLE_SDK/GD32VW55x_RELEASE_V1.0.2/MSDK/util/src\debug_print.c **** 
 1896              		.loc 1 640 9
 639:C:/Users/stapi/OneDrive/Desktop/GD32VW553/V1_MQTT_OK/GD32VW55X_Wifi_BLE_SDK/GD32VW55x_RELEASE_V1.0.2/MSDK/util/src\debug_print.c ****         break;
 1897              		.loc 1 639 13 is_stmt 0
 1898 0132 8D43     		li	t2,3
 640:C:/Users/stapi/OneDrive/Desktop/GD32VW553/V1_MQTT_OK/GD32VW55X_Wifi_BLE_SDK/GD32VW55x_RELEASE_V1.0.2/MSDK/util/src\debug_print.c **** 
 1899              		.loc 1 640 9
 1900 0134 69B7     		j	.L157
 1901              	.LVL196:
 1902              	.L161:
 645:C:/Users/stapi/OneDrive/Desktop/GD32VW553/V1_MQTT_OK/GD32VW55X_Wifi_BLE_SDK/GD32VW55x_RELEASE_V1.0.2/MSDK/util/src\debug_print.c ****         break;
 1903              		.loc 1 645 9 is_stmt 1
 646:C:/Users/stapi/OneDrive/Desktop/GD32VW553/V1_MQTT_OK/GD32VW55X_Wifi_BLE_SDK/GD32VW55x_RELEASE_V1.0.2/MSDK/util/src\debug_print.c **** 
 1904              		.loc 1 646 9
 645:C:/Users/stapi/OneDrive/Desktop/GD32VW553/V1_MQTT_OK/GD32VW55X_Wifi_BLE_SDK/GD32VW55x_RELEASE_V1.0.2/MSDK/util/src\debug_print.c ****         break;
 1905              		.loc 1 645 13 is_stmt 0
 1906 0136 9543     		li	t2,5
 646:C:/Users/stapi/OneDrive/Desktop/GD32VW553/V1_MQTT_OK/GD32VW55X_Wifi_BLE_SDK/GD32VW55x_RELEASE_V1.0.2/MSDK/util/src\debug_print.c **** 
 1907              		.loc 1 646 9
 1908 0138 59B7     		j	.L157
 1909              	.LVL197:
 1910              	.L162:
 669:C:/Users/stapi/OneDrive/Desktop/GD32VW553/V1_MQTT_OK/GD32VW55X_Wifi_BLE_SDK/GD32VW55x_RELEASE_V1.0.2/MSDK/util/src\debug_print.c ****         break;
 1911              		.loc 1 669 9 is_stmt 1
 670:C:/Users/stapi/OneDrive/Desktop/GD32VW553/V1_MQTT_OK/GD32VW55X_Wifi_BLE_SDK/GD32VW55x_RELEASE_V1.0.2/MSDK/util/src\debug_print.c **** 
 1912              		.loc 1 670 9
 669:C:/Users/stapi/OneDrive/Desktop/GD32VW553/V1_MQTT_OK/GD32VW55X_Wifi_BLE_SDK/GD32VW55x_RELEASE_V1.0.2/MSDK/util/src\debug_print.c ****         break;
 1913              		.loc 1 669 13 is_stmt 0
 1914 013a 9143     		li	t2,4
 670:C:/Users/stapi/OneDrive/Desktop/GD32VW553/V1_MQTT_OK/GD32VW55X_Wifi_BLE_SDK/GD32VW55x_RELEASE_V1.0.2/MSDK/util/src\debug_print.c **** 
 1915              		.loc 1 670 9
 1916 013c 49B7     		j	.L157
 1917              	.LVL198:
 1918              	.L235:
 650:C:/Users/stapi/OneDrive/Desktop/GD32VW553/V1_MQTT_OK/GD32VW55X_Wifi_BLE_SDK/GD32VW55x_RELEASE_V1.0.2/MSDK/util/src\debug_print.c ****         break;
 1919              		.loc 1 650 13
 1920 013e 9943     		li	t2,6
 1921 0140 BDBF     		j	.L157
 1922              	.L237:
 628:C:/Users/stapi/OneDrive/Desktop/GD32VW553/V1_MQTT_OK/GD32VW55X_Wifi_BLE_SDK/GD32VW55x_RELEASE_V1.0.2/MSDK/util/src\debug_print.c ****     {
 1923              		.loc 1 628 5
 1924 0142 8543     		li	t2,1
 1925 0144 ADBF     		j	.L157
 1926              	.LVL199:
 1927              	.L174:
 1928              	.LBE41:
 1929              	.LBE43:
 722:C:/Users/stapi/OneDrive/Desktop/GD32VW553/V1_MQTT_OK/GD32VW55X_Wifi_BLE_SDK/GD32VW55x_RELEASE_V1.0.2/MSDK/util/src\debug_print.c **** 
 1930              		.loc 1 722 57
 1931 0146 7D5E     		li	t3,-1
 1932              	.LVL200:
 1933 0148 0148     		li	a6,0
 1934              	.LVL201:
 1935 014a 814E     		li	t4,0
 1936              	.LVL202:
 1937 014c 054F     		li	t5,1
 1938 014e 0DB7     		j	.L151
 1939              	.LVL203:
 1940              	.L175:
 727:C:/Users/stapi/OneDrive/Desktop/GD32VW553/V1_MQTT_OK/GD32VW55X_Wifi_BLE_SDK/GD32VW55x_RELEASE_V1.0.2/MSDK/util/src\debug_print.c ****             break;
 1941              		.loc 1 727 13 is_stmt 1
 1942 0150 63080300 		beq	t1,zero,.L176
 727:C:/Users/stapi/OneDrive/Desktop/GD32VW553/V1_MQTT_OK/GD32VW55X_Wifi_BLE_SDK/GD32VW55x_RELEASE_V1.0.2/MSDK/util/src\debug_print.c ****             break;
 1943              		.loc 1 727 13 is_stmt 0 discriminator 1
 1944 0154 6366C500 		bltu	a0,a2,.L176
 727:C:/Users/stapi/OneDrive/Desktop/GD32VW553/V1_MQTT_OK/GD32VW55X_Wifi_BLE_SDK/GD32VW55x_RELEASE_V1.0.2/MSDK/util/src\debug_print.c ****             break;
 1945              		.loc 1 727 13 is_stmt 1 discriminator 3
 1946              	.LVL204:
 1947 0158 23805800 		sb	t0,0(a7)
 727:C:/Users/stapi/OneDrive/Desktop/GD32VW553/V1_MQTT_OK/GD32VW55X_Wifi_BLE_SDK/GD32VW55x_RELEASE_V1.0.2/MSDK/util/src\debug_print.c ****             break;
 1948              		.loc 1 727 13 discriminator 3
 1949 015c 7D13     		addi	t1,t1,-1
 1950              	.LVL205:
 1951 015e 8508     		addi	a7,a7,1
 1952              	.LVL206:
 1953              	.L176:
 727:C:/Users/stapi/OneDrive/Desktop/GD32VW553/V1_MQTT_OK/GD32VW55X_Wifi_BLE_SDK/GD32VW55x_RELEASE_V1.0.2/MSDK/util/src\debug_print.c ****             break;
 1954              		.loc 1 727 13 discriminator 5
 1955 0160 0505     		addi	a0,a0,1
 1956              	.LVL207:
 728:C:/Users/stapi/OneDrive/Desktop/GD32VW553/V1_MQTT_OK/GD32VW55X_Wifi_BLE_SDK/GD32VW55x_RELEASE_V1.0.2/MSDK/util/src\debug_print.c **** 
 1957              		.loc 1 728 13 discriminator 5
 1958 0162 014F     		li	t5,0
 1959 0164 31B7     		j	.L151
 1960              	.L173:
 739:C:/Users/stapi/OneDrive/Desktop/GD32VW553/V1_MQTT_OK/GD32VW55X_Wifi_BLE_SDK/GD32VW55x_RELEASE_V1.0.2/MSDK/util/src\debug_print.c ****             {
 1961              		.loc 1 739 13
 1962 0166 130FD002 		li	t5,45
 1963 016a 6381E203 		beq	t0,t5,.L177
 1964 016e 634A5F00 		bgt	t0,t5,.L178
 1965 0172 63858202 		beq	t0,s0,.L179
 1966 0176 130FB002 		li	t5,43
 1967 017a 638EE201 		beq	t0,t5,.L180
 1968              	.LVL208:
 1969              	.L285:
 744:C:/Users/stapi/OneDrive/Desktop/GD32VW553/V1_MQTT_OK/GD32VW55X_Wifi_BLE_SDK/GD32VW55x_RELEASE_V1.0.2/MSDK/util/src\debug_print.c ****             case '+':
 1970              		.loc 1 744 17
 1971 017e 094F     		li	t5,2
 1972 0180 C5BD     		j	.L151
 1973              	.L178:
 1974 0182 E39E92FE 		bne	t0,s1,.L285
 755:C:/Users/stapi/OneDrive/Desktop/GD32VW553/V1_MQTT_OK/GD32VW55X_Wifi_BLE_SDK/GD32VW55x_RELEASE_V1.0.2/MSDK/util/src\debug_print.c ****                 break;
 1975              		.loc 1 755 17
 755:C:/Users/stapi/OneDrive/Desktop/GD32VW553/V1_MQTT_OK/GD32VW55X_Wifi_BLE_SDK/GD32VW55x_RELEASE_V1.0.2/MSDK/util/src\debug_print.c ****                 break;
 1976              		.loc 1 755 29 is_stmt 0
 1977 0186 13680804 		ori	a6,a6,64
 1978              	.LVL209:
 1979 018a 19A0     		j	.L286
 1980              	.LVL210:
 1981              	.L177:
 743:C:/Users/stapi/OneDrive/Desktop/GD32VW553/V1_MQTT_OK/GD32VW55X_Wifi_BLE_SDK/GD32VW55x_RELEASE_V1.0.2/MSDK/util/src\debug_print.c ****                 break;
 1982              		.loc 1 743 17 is_stmt 1
 743:C:/Users/stapi/OneDrive/Desktop/GD32VW553/V1_MQTT_OK/GD32VW55X_Wifi_BLE_SDK/GD32VW55x_RELEASE_V1.0.2/MSDK/util/src\debug_print.c ****                 break;
 1983              		.loc 1 743 29 is_stmt 0
 1984 018c 13680802 		ori	a6,a6,32
 1985              	.LVL211:
 1986              	.L286:
 1987 0190 13184860 		sext.b	a6,a6
 1988 0194 EDB7     		j	.L285
 1989              	.LVL212:
 1990              	.L180:
 747:C:/Users/stapi/OneDrive/Desktop/GD32VW553/V1_MQTT_OK/GD32VW55X_Wifi_BLE_SDK/GD32VW55x_RELEASE_V1.0.2/MSDK/util/src\debug_print.c ****                 break;
 1991              		.loc 1 747 17 is_stmt 1
 747:C:/Users/stapi/OneDrive/Desktop/GD32VW553/V1_MQTT_OK/GD32VW55X_Wifi_BLE_SDK/GD32VW55x_RELEASE_V1.0.2/MSDK/util/src\debug_print.c ****                 break;
 1992              		.loc 1 747 29 is_stmt 0
 1993 0196 13688800 		ori	a6,a6,8
 1994              	.LVL213:
 1995 019a DDBF     		j	.L286
 1996              	.LVL214:
 1997              	.L179:
 751:C:/Users/stapi/OneDrive/Desktop/GD32VW553/V1_MQTT_OK/GD32VW55X_Wifi_BLE_SDK/GD32VW55x_RELEASE_V1.0.2/MSDK/util/src\debug_print.c ****                 break;
 1998              		.loc 1 751 17 is_stmt 1
 751:C:/Users/stapi/OneDrive/Desktop/GD32VW553/V1_MQTT_OK/GD32VW55X_Wifi_BLE_SDK/GD32VW55x_RELEASE_V1.0.2/MSDK/util/src\debug_print.c ****                 break;
 1999              		.loc 1 751 29 is_stmt 0
 2000 019c 13680801 		ori	a6,a6,16
 2001              	.LVL215:
 2002 01a0 C5BF     		j	.L286
 2003              	.LVL216:
 2004              	.L172:
 764:C:/Users/stapi/OneDrive/Desktop/GD32VW553/V1_MQTT_OK/GD32VW55X_Wifi_BLE_SDK/GD32VW55x_RELEASE_V1.0.2/MSDK/util/src\debug_print.c ****                 // add digit to current field width
 2005              		.loc 1 764 13 is_stmt 1
 764:C:/Users/stapi/OneDrive/Desktop/GD32VW553/V1_MQTT_OK/GD32VW55X_Wifi_BLE_SDK/GD32VW55x_RELEASE_V1.0.2/MSDK/util/src\debug_print.c ****                 // add digit to current field width
 2006              		.loc 1 764 16 is_stmt 0
 2007 01a2 130FA002 		li	t5,42
 2008 01a6 638AE201 		beq	t0,t5,.L182
 766:C:/Users/stapi/OneDrive/Desktop/GD32VW553/V1_MQTT_OK/GD32VW55X_Wifi_BLE_SDK/GD32VW55x_RELEASE_V1.0.2/MSDK/util/src\debug_print.c ****             } else {
 2009              		.loc 1 766 17 is_stmt 1
 766:C:/Users/stapi/OneDrive/Desktop/GD32VW553/V1_MQTT_OK/GD32VW55X_Wifi_BLE_SDK/GD32VW55x_RELEASE_V1.0.2/MSDK/util/src\debug_print.c ****             } else {
 2010              		.loc 1 766 53 is_stmt 0
 2011 01aa 938202FD 		addi	t0,t0,-48
 2012              	.LVL217:
 766:C:/Users/stapi/OneDrive/Desktop/GD32VW553/V1_MQTT_OK/GD32VW55X_Wifi_BLE_SDK/GD32VW55x_RELEASE_V1.0.2/MSDK/util/src\debug_print.c ****             } else {
 2013              		.loc 1 766 29
 2014 01ae 294F     		li	t5,10
 2015 01b0 FF92EEC5 		maddr32	t0, t4, t5
 2016              	.LVL218:
 2017 01b4 968E     		mv	t4,t0
 2018              	.LVL219:
 2019              	.L288:
 768:C:/Users/stapi/OneDrive/Desktop/GD32VW553/V1_MQTT_OK/GD32VW55X_Wifi_BLE_SDK/GD32VW55x_RELEASE_V1.0.2/MSDK/util/src\debug_print.c ****             }
 2020              		.loc 1 768 29
 2021 01b6 0D4F     		li	t5,3
 2022 01b8 65BD     		j	.L151
 2023              	.LVL220:
 2024              	.L182:
 768:C:/Users/stapi/OneDrive/Desktop/GD32VW553/V1_MQTT_OK/GD32VW55X_Wifi_BLE_SDK/GD32VW55x_RELEASE_V1.0.2/MSDK/util/src\debug_print.c ****             }
 2025              		.loc 1 768 17 is_stmt 1
 768:C:/Users/stapi/OneDrive/Desktop/GD32VW553/V1_MQTT_OK/GD32VW55X_Wifi_BLE_SDK/GD32VW55x_RELEASE_V1.0.2/MSDK/util/src\debug_print.c ****             }
 2026              		.loc 1 768 29 is_stmt 0
 2027 01ba 832E0700 		lw	t4,0(a4)
 2028              	.LVL221:
 2029 01be 1107     		addi	a4,a4,4
 2030              	.LVL222:
 2031 01c0 DDBF     		j	.L288
 2032              	.LVL223:
 2033              	.L170:
 778:C:/Users/stapi/OneDrive/Desktop/GD32VW553/V1_MQTT_OK/GD32VW55X_Wifi_BLE_SDK/GD32VW55x_RELEASE_V1.0.2/MSDK/util/src\debug_print.c ****                 // Add digit to field_precision variable
 2034              		.loc 1 778 13 is_stmt 1
 778:C:/Users/stapi/OneDrive/Desktop/GD32VW553/V1_MQTT_OK/GD32VW55X_Wifi_BLE_SDK/GD32VW55x_RELEASE_V1.0.2/MSDK/util/src\debug_print.c ****                 // Add digit to field_precision variable
 2035              		.loc 1 778 16 is_stmt 0
 2036 01c2 130FA002 		li	t5,42
 2037 01c6 638AE201 		beq	t0,t5,.L183
 780:C:/Users/stapi/OneDrive/Desktop/GD32VW553/V1_MQTT_OK/GD32VW55X_Wifi_BLE_SDK/GD32VW55x_RELEASE_V1.0.2/MSDK/util/src\debug_print.c ****             } else {
 2038              		.loc 1 780 17 is_stmt 1
 780:C:/Users/stapi/OneDrive/Desktop/GD32VW553/V1_MQTT_OK/GD32VW55X_Wifi_BLE_SDK/GD32VW55x_RELEASE_V1.0.2/MSDK/util/src\debug_print.c ****             } else {
 2039              		.loc 1 780 61 is_stmt 0
 2040 01ca 938202FD 		addi	t0,t0,-48
 2041              	.LVL224:
 780:C:/Users/stapi/OneDrive/Desktop/GD32VW553/V1_MQTT_OK/GD32VW55X_Wifi_BLE_SDK/GD32VW55x_RELEASE_V1.0.2/MSDK/util/src\debug_print.c ****             } else {
 2042              		.loc 1 780 33
 2043 01ce 294F     		li	t5,10
 2044 01d0 FF12EEC5 		maddr32	t0, t3, t5
 2045              	.LVL225:
 2046 01d4 168E     		mv	t3,t0
 2047              	.LVL226:
 2048              	.L287:
 782:C:/Users/stapi/OneDrive/Desktop/GD32VW553/V1_MQTT_OK/GD32VW55X_Wifi_BLE_SDK/GD32VW55x_RELEASE_V1.0.2/MSDK/util/src\debug_print.c ****             }
 2049              		.loc 1 782 33
 2050 01d6 154F     		li	t5,5
 2051 01d8 61BD     		j	.L151
 2052              	.LVL227:
 2053              	.L183:
 782:C:/Users/stapi/OneDrive/Desktop/GD32VW553/V1_MQTT_OK/GD32VW55X_Wifi_BLE_SDK/GD32VW55x_RELEASE_V1.0.2/MSDK/util/src\debug_print.c ****             }
 2054              		.loc 1 782 17 is_stmt 1
 782:C:/Users/stapi/OneDrive/Desktop/GD32VW553/V1_MQTT_OK/GD32VW55X_Wifi_BLE_SDK/GD32VW55x_RELEASE_V1.0.2/MSDK/util/src\debug_print.c ****             }
 2055              		.loc 1 782 33 is_stmt 0
 2056 01da 032E0700 		lw	t3,0(a4)
 2057              	.LVL228:
 2058 01de 1107     		addi	a4,a4,4
 2059              	.LVL229:
 2060 01e0 DDBF     		j	.L287
 2061              	.LVL230:
 2062              	.L169:
 788:C:/Users/stapi/OneDrive/Desktop/GD32VW553/V1_MQTT_OK/GD32VW55X_Wifi_BLE_SDK/GD32VW55x_RELEASE_V1.0.2/MSDK/util/src\debug_print.c ****             {
 2063              		.loc 1 788 13 is_stmt 1
 2064 01e2 130F8006 		li	t5,104
 2065 01e6 638CE201 		beq	t0,t5,.L184
 2066 01ea 9303C006 		li	t2,108
 2067 01ee 194F     		li	t5,6
 2068 01f0 E39072E8 		bne	t0,t2,.L151
 792:C:/Users/stapi/OneDrive/Desktop/GD32VW553/V1_MQTT_OK/GD32VW55X_Wifi_BLE_SDK/GD32VW55x_RELEASE_V1.0.2/MSDK/util/src\debug_print.c ****                 break;
 2069              		.loc 1 792 17
 792:C:/Users/stapi/OneDrive/Desktop/GD32VW553/V1_MQTT_OK/GD32VW55X_Wifi_BLE_SDK/GD32VW55x_RELEASE_V1.0.2/MSDK/util/src\debug_print.c ****                 break;
 2070              		.loc 1 792 29 is_stmt 0
 2071 01f4 13682800 		ori	a6,a6,2
 2072              	.LVL231:
 2073 01f8 13184860 		sext.b	a6,a6
 2074              	.LVL232:
 793:C:/Users/stapi/OneDrive/Desktop/GD32VW553/V1_MQTT_OK/GD32VW55X_Wifi_BLE_SDK/GD32VW55x_RELEASE_V1.0.2/MSDK/util/src\debug_print.c **** 
 2075              		.loc 1 793 17 is_stmt 1
 2076 01fc 95BD     		j	.L151
 2077              	.L184:
 798:C:/Users/stapi/OneDrive/Desktop/GD32VW553/V1_MQTT_OK/GD32VW55X_Wifi_BLE_SDK/GD32VW55x_RELEASE_V1.0.2/MSDK/util/src\debug_print.c ****                 break;
 2078              		.loc 1 798 17
 798:C:/Users/stapi/OneDrive/Desktop/GD32VW553/V1_MQTT_OK/GD32VW55X_Wifi_BLE_SDK/GD32VW55x_RELEASE_V1.0.2/MSDK/util/src\debug_print.c ****                 break;
 2079              		.loc 1 798 29 is_stmt 0
 2080 01fe 13681800 		ori	a6,a6,1
 2081              	.LVL233:
 799:C:/Users/stapi/OneDrive/Desktop/GD32VW553/V1_MQTT_OK/GD32VW55X_Wifi_BLE_SDK/GD32VW55x_RELEASE_V1.0.2/MSDK/util/src\debug_print.c ****                 #endif // FLAG_SHORT_SUPPORTED
 2082              		.loc 1 799 17
 2083 0202 194F     		li	t5,6
 798:C:/Users/stapi/OneDrive/Desktop/GD32VW553/V1_MQTT_OK/GD32VW55X_Wifi_BLE_SDK/GD32VW55x_RELEASE_V1.0.2/MSDK/util/src\debug_print.c ****                 break;
 2084              		.loc 1 798 29
 2085 0204 13184860 		sext.b	a6,a6
 2086              	.LVL234:
 799:C:/Users/stapi/OneDrive/Desktop/GD32VW553/V1_MQTT_OK/GD32VW55X_Wifi_BLE_SDK/GD32VW55x_RELEASE_V1.0.2/MSDK/util/src\debug_print.c ****                 #endif // FLAG_SHORT_SUPPORTED
 2087              		.loc 1 799 17 is_stmt 1
 2088 0208 A5B5     		j	.L151
 2089              	.L167:
 811:C:/Users/stapi/OneDrive/Desktop/GD32VW553/V1_MQTT_OK/GD32VW55X_Wifi_BLE_SDK/GD32VW55x_RELEASE_V1.0.2/MSDK/util/src\debug_print.c ****             {
 2090              		.loc 1 811 13
 2091 020a 130F8007 		li	t5,120
 2092 020e 63425F02 		bgt	t0,t5,.L242
 2093 0212 130F0006 		li	t5,96
 2094 0216 63415F02 		bgt	t0,t5,.L186
 2095 021a 130FD004 		li	t5,77
 2096 021e 638FE209 		beq	t0,t5,.L187
 2097 0222 130F8005 		li	t5,88
 2098 0226 6387E203 		beq	t0,t5,.L188
 2099 022a 130F1004 		li	t5,65
 2100 022e 6388E20D 		beq	t0,t5,.L189
 2101              	.L242:
 2102 0232 3A8F     		mv	t5,a4
 2103 0234 0147     		li	a4,0
 2104              	.LVL235:
 2105 0236 A9A0     		j	.L185
 2106              	.LVL236:
 2107              	.L186:
 2108 0238 138FF2F9 		addi	t5,t0,-97
 2109 023c 137FFF0F 		andi	t5,t5,0xff
 2110 0240 DD43     		li	t2,23
 2111 0242 E3E8E3FF 		bgtu	t5,t2,.L242
 2112 0246 334F8F21 		sh2add	t5,t5,s8
 2113 024a 032F0F00 		lw	t5,0(t5)
 2114 024e 028F     		jr	t5
 2115              		.section	.rodata.dbg_vsnprintf_offset
 2116              		.align	2
 2117              		.align	2
 2118              	.L190:
 2119 00c4 00000000 		.word	.L189
 2120 00c8 00000000 		.word	.L188
 2121 00cc 00000000 		.word	.L193
 2122 00d0 00000000 		.word	.L188
 2123 00d4 00000000 		.word	.L242
 2124 00d8 00000000 		.word	.L242
 2125 00dc 00000000 		.word	.L242
 2126 00e0 00000000 		.word	.L242
 2127 00e4 00000000 		.word	.L192
 2128 00e8 00000000 		.word	.L242
 2129 00ec 00000000 		.word	.L242
 2130 00f0 00000000 		.word	.L242
 2131 00f4 00000000 		.word	.L187
 2132 00f8 00000000 		.word	.L242
 2133 00fc 00000000 		.word	.L242
 2134 0100 00000000 		.word	.L242
 2135 0104 00000000 		.word	.L242
 2136 0108 00000000 		.word	.L242
 2137 010c 00000000 		.word	.L191
 2138 0110 00000000 		.word	.L242
 2139 0114 00000000 		.word	.L188
 2140 0118 00000000 		.word	.L242
 2141 011c 00000000 		.word	.L242
 2142 0120 00000000 		.word	.L188
 2143              		.section	.text.dbg_vsnprintf_offset
 2144              	.L192:
 889:C:/Users/stapi/OneDrive/Desktop/GD32VW553/V1_MQTT_OK/GD32VW55X_Wifi_BLE_SDK/GD32VW55x_RELEASE_V1.0.2/MSDK/util/src\debug_print.c ****             case 'd': // signed decimal
 2145              		.loc 1 889 19 is_stmt 0
 2146 0250 93024006 		li	t0,100
 2147              	.LVL237:
 2148              	.L188:
 898:C:/Users/stapi/OneDrive/Desktop/GD32VW553/V1_MQTT_OK/GD32VW55X_Wifi_BLE_SDK/GD32VW55x_RELEASE_V1.0.2/MSDK/util/src\debug_print.c ****                 fmt_field_size = 0;
 2149              		.loc 1 898 17 is_stmt 1
 899:C:/Users/stapi/OneDrive/Desktop/GD32VW553/V1_MQTT_OK/GD32VW55X_Wifi_BLE_SDK/GD32VW55x_RELEASE_V1.0.2/MSDK/util/src\debug_print.c **** 
 2150              		.loc 1 899 17
 902:C:/Users/stapi/OneDrive/Desktop/GD32VW553/V1_MQTT_OK/GD32VW55X_Wifi_BLE_SDK/GD32VW55x_RELEASE_V1.0.2/MSDK/util/src\debug_print.c ****                     // long
 2151              		.loc 1 902 17
 902:C:/Users/stapi/OneDrive/Desktop/GD32VW553/V1_MQTT_OK/GD32VW55X_Wifi_BLE_SDK/GD32VW55x_RELEASE_V1.0.2/MSDK/util/src\debug_print.c ****                     // long
 2152              		.loc 1 902 20 is_stmt 0
 2153 0254 93732800 		andi	t2,a6,2
 902:C:/Users/stapi/OneDrive/Desktop/GD32VW553/V1_MQTT_OK/GD32VW55X_Wifi_BLE_SDK/GD32VW55x_RELEASE_V1.0.2/MSDK/util/src\debug_print.c ****                     // long
 2154              		.loc 1 902 33
 2155 0258 9377F80F 		andi	a5,a6,0xff
 768:C:/Users/stapi/OneDrive/Desktop/GD32VW553/V1_MQTT_OK/GD32VW55X_Wifi_BLE_SDK/GD32VW55x_RELEASE_V1.0.2/MSDK/util/src\debug_print.c ****             }
 2156              		.loc 1 768 29
 2157 025c 130F4700 		addi	t5,a4,4
 902:C:/Users/stapi/OneDrive/Desktop/GD32VW553/V1_MQTT_OK/GD32VW55X_Wifi_BLE_SDK/GD32VW55x_RELEASE_V1.0.2/MSDK/util/src\debug_print.c ****                     // long
 2158              		.loc 1 902 20
 2159 0260 63800310 		beq	t2,zero,.L202
 904:C:/Users/stapi/OneDrive/Desktop/GD32VW553/V1_MQTT_OK/GD32VW55X_Wifi_BLE_SDK/GD32VW55x_RELEASE_V1.0.2/MSDK/util/src\debug_print.c ****                 }
 2160              		.loc 1 904 21 is_stmt 1
 2161              	.LVL238:
 904:C:/Users/stapi/OneDrive/Desktop/GD32VW553/V1_MQTT_OK/GD32VW55X_Wifi_BLE_SDK/GD32VW55x_RELEASE_V1.0.2/MSDK/util/src\debug_print.c ****                 }
 2162              		.loc 1 904 27 is_stmt 0
 2163 0264 83230700 		lw	t2,0(a4)
 2164              	.LVL239:
 2165              	.L203:
 922:C:/Users/stapi/OneDrive/Desktop/GD32VW553/V1_MQTT_OK/GD32VW55X_Wifi_BLE_SDK/GD32VW55x_RELEASE_V1.0.2/MSDK/util/src\debug_print.c ****                 {
 2166              		.loc 1 922 17 is_stmt 1 discriminator 1
 2167 0268 93074006 		li	a5,100
 2168 026c 6398F214 		bne	t0,a5,.L297
 2169 0270 11A2     		j	.L206
 2170              	.LVL240:
 2171              	.L193:
 816:C:/Users/stapi/OneDrive/Desktop/GD32VW553/V1_MQTT_OK/GD32VW55X_Wifi_BLE_SDK/GD32VW55x_RELEASE_V1.0.2/MSDK/util/src\debug_print.c ****                 fmt_field_ptr = buffer_tmp;
 2172              		.loc 1 816 17
 816:C:/Users/stapi/OneDrive/Desktop/GD32VW553/V1_MQTT_OK/GD32VW55X_Wifi_BLE_SDK/GD32VW55x_RELEASE_V1.0.2/MSDK/util/src\debug_print.c ****                 fmt_field_ptr = buffer_tmp;
 2173              		.loc 1 816 33 is_stmt 0
 2174 0272 1C43     		lw	a5,0(a4)
 2175              	.LVL241:
 816:C:/Users/stapi/OneDrive/Desktop/GD32VW553/V1_MQTT_OK/GD32VW55X_Wifi_BLE_SDK/GD32VW55x_RELEASE_V1.0.2/MSDK/util/src\debug_print.c ****                 fmt_field_ptr = buffer_tmp;
 2176              		.loc 1 816 39
 2177 0274 130F4700 		addi	t5,a4,4
 2178              	.LVL242:
 818:C:/Users/stapi/OneDrive/Desktop/GD32VW553/V1_MQTT_OK/GD32VW55X_Wifi_BLE_SDK/GD32VW55x_RELEASE_V1.0.2/MSDK/util/src\debug_print.c ****                 break;
 2179              		.loc 1 818 32
 2180 0278 0547     		li	a4,1
 816:C:/Users/stapi/OneDrive/Desktop/GD32VW553/V1_MQTT_OK/GD32VW55X_Wifi_BLE_SDK/GD32VW55x_RELEASE_V1.0.2/MSDK/util/src\debug_print.c ****                 fmt_field_ptr = buffer_tmp;
 2181              		.loc 1 816 33
 2182 027a 2300F100 		sb	a5,0(sp)
 817:C:/Users/stapi/OneDrive/Desktop/GD32VW553/V1_MQTT_OK/GD32VW55X_Wifi_BLE_SDK/GD32VW55x_RELEASE_V1.0.2/MSDK/util/src\debug_print.c ****                 fmt_field_size = 1;
 2183              		.loc 1 817 17 is_stmt 1
 2184              	.LVL243:
 818:C:/Users/stapi/OneDrive/Desktop/GD32VW553/V1_MQTT_OK/GD32VW55X_Wifi_BLE_SDK/GD32VW55x_RELEASE_V1.0.2/MSDK/util/src\debug_print.c ****                 break;
 2185              		.loc 1 818 17
 819:C:/Users/stapi/OneDrive/Desktop/GD32VW553/V1_MQTT_OK/GD32VW55X_Wifi_BLE_SDK/GD32VW55x_RELEASE_V1.0.2/MSDK/util/src\debug_print.c **** 
 2186              		.loc 1 819 17
 817:C:/Users/stapi/OneDrive/Desktop/GD32VW553/V1_MQTT_OK/GD32VW55X_Wifi_BLE_SDK/GD32VW55x_RELEASE_V1.0.2/MSDK/util/src\debug_print.c ****                 fmt_field_size = 1;
 2187              		.loc 1 817 31 is_stmt 0
 2188 027e 8A87     		mv	a5,sp
 2189              	.LVL244:
 2190              	.L185:
1004:C:/Users/stapi/OneDrive/Desktop/GD32VW553/V1_MQTT_OK/GD32VW55X_Wifi_BLE_SDK/GD32VW55x_RELEASE_V1.0.2/MSDK/util/src\debug_print.c **** 
 2191              		.loc 1 1004 13 is_stmt 1
1007:C:/Users/stapi/OneDrive/Desktop/GD32VW553/V1_MQTT_OK/GD32VW55X_Wifi_BLE_SDK/GD32VW55x_RELEASE_V1.0.2/MSDK/util/src\debug_print.c ****                 // Add leading zeros
 2192              		.loc 1 1007 16 is_stmt 0
 2193 0280 937C0804 		andi	s9,a6,64
1004:C:/Users/stapi/OneDrive/Desktop/GD32VW553/V1_MQTT_OK/GD32VW55X_Wifi_BLE_SDK/GD32VW55x_RELEASE_V1.0.2/MSDK/util/src\debug_print.c **** 
 2194              		.loc 1 1004 27
 2195 0284 B382EE40 		sub	t0,t4,a4
 2196              	.LVL245:
1007:C:/Users/stapi/OneDrive/Desktop/GD32VW553/V1_MQTT_OK/GD32VW55X_Wifi_BLE_SDK/GD32VW55x_RELEASE_V1.0.2/MSDK/util/src\debug_print.c ****                 // Add leading zeros
 2197              		.loc 1 1007 13 is_stmt 1
1007:C:/Users/stapi/OneDrive/Desktop/GD32VW553/V1_MQTT_OK/GD32VW55X_Wifi_BLE_SDK/GD32VW55x_RELEASE_V1.0.2/MSDK/util/src\debug_print.c ****                 // Add leading zeros
 2198              		.loc 1 1007 29 is_stmt 0
 2199 0288 9373F80F 		andi	t2,a6,0xff
1007:C:/Users/stapi/OneDrive/Desktop/GD32VW553/V1_MQTT_OK/GD32VW55X_Wifi_BLE_SDK/GD32VW55x_RELEASE_V1.0.2/MSDK/util/src\debug_print.c ****                 // Add leading zeros
 2200              		.loc 1 1007 16
 2201 028c 63850C1E 		beq	s9,zero,.L278
1004:C:/Users/stapi/OneDrive/Desktop/GD32VW553/V1_MQTT_OK/GD32VW55X_Wifi_BLE_SDK/GD32VW55x_RELEASE_V1.0.2/MSDK/util/src\debug_print.c **** 
 2202              		.loc 1 1004 27
 2203 0290 9683     		mv	t2,t0
 2204 0292 B38CA200 		add	s9,t0,a0
 2205 0296 F1A2     		j	.L217
 2206              	.LVL246:
 2207              	.L191:
 825:C:/Users/stapi/OneDrive/Desktop/GD32VW553/V1_MQTT_OK/GD32VW55X_Wifi_BLE_SDK/GD32VW55x_RELEASE_V1.0.2/MSDK/util/src\debug_print.c ****                 fmt_field_size = 0;
 2208              		.loc 1 825 17 is_stmt 1
 825:C:/Users/stapi/OneDrive/Desktop/GD32VW553/V1_MQTT_OK/GD32VW55X_Wifi_BLE_SDK/GD32VW55x_RELEASE_V1.0.2/MSDK/util/src\debug_print.c ****                 fmt_field_size = 0;
 2209              		.loc 1 825 31 is_stmt 0
 2210 0298 1C43     		lw	a5,0(a4)
 2211              	.LVL247:
 2212 029a 130F4700 		addi	t5,a4,4
 2213              	.LVL248:
 826:C:/Users/stapi/OneDrive/Desktop/GD32VW553/V1_MQTT_OK/GD32VW55X_Wifi_BLE_SDK/GD32VW55x_RELEASE_V1.0.2/MSDK/util/src\debug_print.c ****                 if (fmt_field_ptr != NULL) {
 2214              		.loc 1 826 17 is_stmt 1
 827:C:/Users/stapi/OneDrive/Desktop/GD32VW553/V1_MQTT_OK/GD32VW55X_Wifi_BLE_SDK/GD32VW55x_RELEASE_V1.0.2/MSDK/util/src\debug_print.c ****                     // Compute the length of the string
 2215              		.loc 1 827 17
 826:C:/Users/stapi/OneDrive/Desktop/GD32VW553/V1_MQTT_OK/GD32VW55X_Wifi_BLE_SDK/GD32VW55x_RELEASE_V1.0.2/MSDK/util/src\debug_print.c ****                 if (fmt_field_ptr != NULL) {
 2216              		.loc 1 826 32 is_stmt 0
 2217 029e 0147     		li	a4,0
 827:C:/Users/stapi/OneDrive/Desktop/GD32VW553/V1_MQTT_OK/GD32VW55X_Wifi_BLE_SDK/GD32VW55x_RELEASE_V1.0.2/MSDK/util/src\debug_print.c ****                     // Compute the length of the string
 2218              		.loc 1 827 20
 2219 02a0 E5D3     		beq	a5,zero,.L185
 2220              	.LVL249:
 2221              	.L194:
 832:C:/Users/stapi/OneDrive/Desktop/GD32VW553/V1_MQTT_OK/GD32VW55X_Wifi_BLE_SDK/GD32VW55x_RELEASE_V1.0.2/MSDK/util/src\debug_print.c ****                         if (field_precision == 0)
 2222              		.loc 1 832 27 is_stmt 1
 832:C:/Users/stapi/OneDrive/Desktop/GD32VW553/V1_MQTT_OK/GD32VW55X_Wifi_BLE_SDK/GD32VW55x_RELEASE_V1.0.2/MSDK/util/src\debug_print.c ****                         if (field_precision == 0)
 2223              		.loc 1 832 28 is_stmt 0
 2224 02a2 B382E700 		add	t0,a5,a4
 832:C:/Users/stapi/OneDrive/Desktop/GD32VW553/V1_MQTT_OK/GD32VW55X_Wifi_BLE_SDK/GD32VW55x_RELEASE_V1.0.2/MSDK/util/src\debug_print.c ****                         if (field_precision == 0)
 2225              		.loc 1 832 27
 2226 02a6 83820200 		lb	t0,0(t0)
 2227 02aa E38B02FC 		beq	t0,zero,.L185
 833:C:/Users/stapi/OneDrive/Desktop/GD32VW553/V1_MQTT_OK/GD32VW55X_Wifi_BLE_SDK/GD32VW55x_RELEASE_V1.0.2/MSDK/util/src\debug_print.c ****                             break;
 2228              		.loc 1 833 25 is_stmt 1
 833:C:/Users/stapi/OneDrive/Desktop/GD32VW553/V1_MQTT_OK/GD32VW55X_Wifi_BLE_SDK/GD32VW55x_RELEASE_V1.0.2/MSDK/util/src\debug_print.c ****                             break;
 2229              		.loc 1 833 28 is_stmt 0
 2230 02ae E3090EFC 		beq	t3,zero,.L185
 835:C:/Users/stapi/OneDrive/Desktop/GD32VW553/V1_MQTT_OK/GD32VW55X_Wifi_BLE_SDK/GD32VW55x_RELEASE_V1.0.2/MSDK/util/src\debug_print.c ****                             field_precision--;
 2231              		.loc 1 835 25 is_stmt 1
 835:C:/Users/stapi/OneDrive/Desktop/GD32VW553/V1_MQTT_OK/GD32VW55X_Wifi_BLE_SDK/GD32VW55x_RELEASE_V1.0.2/MSDK/util/src\debug_print.c ****                             field_precision--;
 2232              		.loc 1 835 28 is_stmt 0
 2233 02b2 6353C001 		ble	t3,zero,.L195
 836:C:/Users/stapi/OneDrive/Desktop/GD32VW553/V1_MQTT_OK/GD32VW55X_Wifi_BLE_SDK/GD32VW55x_RELEASE_V1.0.2/MSDK/util/src\debug_print.c ****                         tmp_ptr++;
 2234              		.loc 1 836 29 is_stmt 1
 836:C:/Users/stapi/OneDrive/Desktop/GD32VW553/V1_MQTT_OK/GD32VW55X_Wifi_BLE_SDK/GD32VW55x_RELEASE_V1.0.2/MSDK/util/src\debug_print.c ****                         tmp_ptr++;
 2235              		.loc 1 836 44 is_stmt 0
 2236 02b6 7D1E     		addi	t3,t3,-1
 2237              	.LVL250:
 2238              	.L195:
 837:C:/Users/stapi/OneDrive/Desktop/GD32VW553/V1_MQTT_OK/GD32VW55X_Wifi_BLE_SDK/GD32VW55x_RELEASE_V1.0.2/MSDK/util/src\debug_print.c ****                         fmt_field_size++;
 2239              		.loc 1 837 25 is_stmt 1
 838:C:/Users/stapi/OneDrive/Desktop/GD32VW553/V1_MQTT_OK/GD32VW55X_Wifi_BLE_SDK/GD32VW55x_RELEASE_V1.0.2/MSDK/util/src\debug_print.c ****                     }
 2240              		.loc 1 838 25
 838:C:/Users/stapi/OneDrive/Desktop/GD32VW553/V1_MQTT_OK/GD32VW55X_Wifi_BLE_SDK/GD32VW55x_RELEASE_V1.0.2/MSDK/util/src\debug_print.c ****                     }
 2241              		.loc 1 838 39 is_stmt 0
 2242 02b8 0507     		addi	a4,a4,1
 2243              	.LVL251:
 2244 02ba E5B7     		j	.L194
 2245              	.LVL252:
 2246              	.L187:
 2247              	.LBB44:
 847:C:/Users/stapi/OneDrive/Desktop/GD32VW553/V1_MQTT_OK/GD32VW55X_Wifi_BLE_SDK/GD32VW55x_RELEASE_V1.0.2/MSDK/util/src\debug_print.c ****                 fmt_field_ptr   = buffer_tmp;
 2248              		.loc 1 847 17 is_stmt 1
 848:C:/Users/stapi/OneDrive/Desktop/GD32VW553/V1_MQTT_OK/GD32VW55X_Wifi_BLE_SDK/GD32VW55x_RELEASE_V1.0.2/MSDK/util/src\debug_print.c ****                 tmp_ptr         = va_arg(args, char *);
 2249              		.loc 1 848 17
 849:C:/Users/stapi/OneDrive/Desktop/GD32VW553/V1_MQTT_OK/GD32VW55X_Wifi_BLE_SDK/GD32VW55x_RELEASE_V1.0.2/MSDK/util/src\debug_print.c ****                 fmt_field_size  = 17;
 2250              		.loc 1 849 17
 849:C:/Users/stapi/OneDrive/Desktop/GD32VW553/V1_MQTT_OK/GD32VW55X_Wifi_BLE_SDK/GD32VW55x_RELEASE_V1.0.2/MSDK/util/src\debug_print.c ****                 fmt_field_size  = 17;
 2251              		.loc 1 849 33 is_stmt 0
 2252 02bc 83230700 		lw	t2,0(a4)
 2253 02c0 130F4700 		addi	t5,a4,4
 2254              	.LVL253:
 850:C:/Users/stapi/OneDrive/Desktop/GD32VW553/V1_MQTT_OK/GD32VW55X_Wifi_BLE_SDK/GD32VW55x_RELEASE_V1.0.2/MSDK/util/src\debug_print.c ****                 for (i = 5;;) {
 2255              		.loc 1 850 17 is_stmt 1
 851:C:/Users/stapi/OneDrive/Desktop/GD32VW553/V1_MQTT_OK/GD32VW55X_Wifi_BLE_SDK/GD32VW55x_RELEASE_V1.0.2/MSDK/util/src\debug_print.c ****                     value = (unsigned char)*tmp_ptr++;
 2256              		.loc 1 851 17
 848:C:/Users/stapi/OneDrive/Desktop/GD32VW553/V1_MQTT_OK/GD32VW55X_Wifi_BLE_SDK/GD32VW55x_RELEASE_V1.0.2/MSDK/util/src\debug_print.c ****                 tmp_ptr         = va_arg(args, char *);
 2257              		.loc 1 848 33 is_stmt 0
 2258 02c4 0A87     		mv	a4,sp
 2259 02c6 938D6300 		addi	s11,t2,6
 2260 02ca BA87     		mv	a5,a4
 857:C:/Users/stapi/OneDrive/Desktop/GD32VW553/V1_MQTT_OK/GD32VW55X_Wifi_BLE_SDK/GD32VW55x_RELEASE_V1.0.2/MSDK/util/src\debug_print.c ****                 }
 2261              		.loc 1 857 38
 2262 02cc 130DA003 		li	s10,58
 2263              	.LVL254:
 2264              	.L197:
 852:C:/Users/stapi/OneDrive/Desktop/GD32VW553/V1_MQTT_OK/GD32VW55X_Wifi_BLE_SDK/GD32VW55x_RELEASE_V1.0.2/MSDK/util/src\debug_print.c ****                     *fmt_field_ptr++ = hex_upper_table[value >> 4];
 2265              		.loc 1 852 21 is_stmt 1
 852:C:/Users/stapi/OneDrive/Desktop/GD32VW553/V1_MQTT_OK/GD32VW55X_Wifi_BLE_SDK/GD32VW55x_RELEASE_V1.0.2/MSDK/util/src\debug_print.c ****                     *fmt_field_ptr++ = hex_upper_table[value >> 4];
 2266              		.loc 1 852 29 is_stmt 0
 2267 02d0 83C20300 		lbu	t0,0(t2)
 852:C:/Users/stapi/OneDrive/Desktop/GD32VW553/V1_MQTT_OK/GD32VW55X_Wifi_BLE_SDK/GD32VW55x_RELEASE_V1.0.2/MSDK/util/src\debug_print.c ****                     *fmt_field_ptr++ = hex_upper_table[value >> 4];
 2268              		.loc 1 852 52
 2269 02d4 8503     		addi	t2,t2,1
 2270              	.LVL255:
 853:C:/Users/stapi/OneDrive/Desktop/GD32VW553/V1_MQTT_OK/GD32VW55X_Wifi_BLE_SDK/GD32VW55x_RELEASE_V1.0.2/MSDK/util/src\debug_print.c ****                     *fmt_field_ptr++ = hex_upper_table[value & 0xF];
 2271              		.loc 1 853 21 is_stmt 1
 853:C:/Users/stapi/OneDrive/Desktop/GD32VW553/V1_MQTT_OK/GD32VW55X_Wifi_BLE_SDK/GD32VW55x_RELEASE_V1.0.2/MSDK/util/src\debug_print.c ****                     *fmt_field_ptr++ = hex_upper_table[value & 0xF];
 2272              		.loc 1 853 62 is_stmt 0
 2273 02d6 93DC4240 		srai	s9,t0,4
 854:C:/Users/stapi/OneDrive/Desktop/GD32VW553/V1_MQTT_OK/GD32VW55X_Wifi_BLE_SDK/GD32VW55x_RELEASE_V1.0.2/MSDK/util/src\debug_print.c ****                     if (i-- == 0)
 2274              		.loc 1 854 62
 2275 02da 93F2F200 		andi	t0,t0,15
 2276              	.LVL256:
 853:C:/Users/stapi/OneDrive/Desktop/GD32VW553/V1_MQTT_OK/GD32VW55X_Wifi_BLE_SDK/GD32VW55x_RELEASE_V1.0.2/MSDK/util/src\debug_print.c ****                     *fmt_field_ptr++ = hex_upper_table[value & 0xF];
 2277              		.loc 1 853 55
 2278 02de FE9C     		add	s9,t6,s9
 854:C:/Users/stapi/OneDrive/Desktop/GD32VW553/V1_MQTT_OK/GD32VW55X_Wifi_BLE_SDK/GD32VW55x_RELEASE_V1.0.2/MSDK/util/src\debug_print.c ****                     if (i-- == 0)
 2279              		.loc 1 854 55
 2280 02e0 FE92     		add	t0,t6,t0
 853:C:/Users/stapi/OneDrive/Desktop/GD32VW553/V1_MQTT_OK/GD32VW55X_Wifi_BLE_SDK/GD32VW55x_RELEASE_V1.0.2/MSDK/util/src\debug_print.c ****                     *fmt_field_ptr++ = hex_upper_table[value & 0xF];
 2281              		.loc 1 853 38
 2282 02e2 83CC0C00 		lbu	s9,0(s9)
 854:C:/Users/stapi/OneDrive/Desktop/GD32VW553/V1_MQTT_OK/GD32VW55X_Wifi_BLE_SDK/GD32VW55x_RELEASE_V1.0.2/MSDK/util/src\debug_print.c ****                     if (i-- == 0)
 2283              		.loc 1 854 38
 2284 02e6 83C20200 		lbu	t0,0(t0)
 853:C:/Users/stapi/OneDrive/Desktop/GD32VW553/V1_MQTT_OK/GD32VW55X_Wifi_BLE_SDK/GD32VW55x_RELEASE_V1.0.2/MSDK/util/src\debug_print.c ****                     *fmt_field_ptr++ = hex_upper_table[value & 0xF];
 2285              		.loc 1 853 38
 2286 02ea 23009701 		sb	s9,0(a4)
 854:C:/Users/stapi/OneDrive/Desktop/GD32VW553/V1_MQTT_OK/GD32VW55X_Wifi_BLE_SDK/GD32VW55x_RELEASE_V1.0.2/MSDK/util/src\debug_print.c ****                     if (i-- == 0)
 2287              		.loc 1 854 21 is_stmt 1
 2288              	.LVL257:
 854:C:/Users/stapi/OneDrive/Desktop/GD32VW553/V1_MQTT_OK/GD32VW55X_Wifi_BLE_SDK/GD32VW55x_RELEASE_V1.0.2/MSDK/util/src\debug_print.c ****                     if (i-- == 0)
 2289              		.loc 1 854 38 is_stmt 0
 2290 02ee A3005700 		sb	t0,1(a4)
 855:C:/Users/stapi/OneDrive/Desktop/GD32VW553/V1_MQTT_OK/GD32VW55X_Wifi_BLE_SDK/GD32VW55x_RELEASE_V1.0.2/MSDK/util/src\debug_print.c ****                         break;
 2291              		.loc 1 855 21 is_stmt 1
 855:C:/Users/stapi/OneDrive/Desktop/GD32VW553/V1_MQTT_OK/GD32VW55X_Wifi_BLE_SDK/GD32VW55x_RELEASE_V1.0.2/MSDK/util/src\debug_print.c ****                         break;
 2292              		.loc 1 855 24 is_stmt 0
 2293 02f2 6389B315 		beq	t2,s11,.L244
 857:C:/Users/stapi/OneDrive/Desktop/GD32VW553/V1_MQTT_OK/GD32VW55X_Wifi_BLE_SDK/GD32VW55x_RELEASE_V1.0.2/MSDK/util/src\debug_print.c ****                 }
 2294              		.loc 1 857 21 is_stmt 1
 2295 02f6 0D07     		addi	a4,a4,3
 2296              	.LVL258:
 857:C:/Users/stapi/OneDrive/Desktop/GD32VW553/V1_MQTT_OK/GD32VW55X_Wifi_BLE_SDK/GD32VW55x_RELEASE_V1.0.2/MSDK/util/src\debug_print.c ****                 }
 2297              		.loc 1 857 38 is_stmt 0
 2298 02f8 A30FA7FF 		sb	s10,-1(a4)
 851:C:/Users/stapi/OneDrive/Desktop/GD32VW553/V1_MQTT_OK/GD32VW55X_Wifi_BLE_SDK/GD32VW55x_RELEASE_V1.0.2/MSDK/util/src\debug_print.c ****                     value = (unsigned char)*tmp_ptr++;
 2299              		.loc 1 851 28 is_stmt 1
 852:C:/Users/stapi/OneDrive/Desktop/GD32VW553/V1_MQTT_OK/GD32VW55X_Wifi_BLE_SDK/GD32VW55x_RELEASE_V1.0.2/MSDK/util/src\debug_print.c ****                     *fmt_field_ptr++ = hex_upper_table[value >> 4];
 2300              		.loc 1 852 27 is_stmt 0
 2301 02fc D1BF     		j	.L197
 2302              	.LVL259:
 2303              	.L189:
 2304              	.LBE44:
 865:C:/Users/stapi/OneDrive/Desktop/GD32VW553/V1_MQTT_OK/GD32VW55X_Wifi_BLE_SDK/GD32VW55x_RELEASE_V1.0.2/MSDK/util/src\debug_print.c ****                 tmp_ptr = va_arg(args, char *);
 2305              		.loc 1 865 17 is_stmt 1
 866:C:/Users/stapi/OneDrive/Desktop/GD32VW553/V1_MQTT_OK/GD32VW55X_Wifi_BLE_SDK/GD32VW55x_RELEASE_V1.0.2/MSDK/util/src\debug_print.c ****                 // prevent overflow
 2306              		.loc 1 866 17
 866:C:/Users/stapi/OneDrive/Desktop/GD32VW553/V1_MQTT_OK/GD32VW55X_Wifi_BLE_SDK/GD32VW55x_RELEASE_V1.0.2/MSDK/util/src\debug_print.c ****                 // prevent overflow
 2307              		.loc 1 866 25 is_stmt 0
 2308 02fe 83230700 		lw	t2,0(a4)
 2309 0302 130F4700 		addi	t5,a4,4
 2310              	.LVL260:
 868:C:/Users/stapi/OneDrive/Desktop/GD32VW553/V1_MQTT_OK/GD32VW55X_Wifi_BLE_SDK/GD32VW55x_RELEASE_V1.0.2/MSDK/util/src\debug_print.c ****                 // if no width given
 2311              		.loc 1 868 17 is_stmt 1
 2312              	.LBB45:
 2313              	.LBB46:
 2314              		.file 2 "..\\..\\..\\..\\util\\include/util.h"
   1:..\..\..\..\util\include/util.h **** /*!
   2:..\..\..\..\util\include/util.h ****     \file    util.h
   3:..\..\..\..\util\include/util.h ****     \brief   Declaration for util.
   4:..\..\..\..\util\include/util.h **** 
   5:..\..\..\..\util\include/util.h ****     \version 2023-07-20, V1.0.0, firmware for GD32VW55x
   6:..\..\..\..\util\include/util.h **** */
   7:..\..\..\..\util\include/util.h **** 
   8:..\..\..\..\util\include/util.h **** /*
   9:..\..\..\..\util\include/util.h ****     Copyright (c) 2023, GigaDevice Semiconductor Inc.
  10:..\..\..\..\util\include/util.h **** 
  11:..\..\..\..\util\include/util.h ****     Redistribution and use in source and binary forms, with or without modification,
  12:..\..\..\..\util\include/util.h **** are permitted provided that the following conditions are met:
  13:..\..\..\..\util\include/util.h **** 
  14:..\..\..\..\util\include/util.h ****     1. Redistributions of source code must retain the above copyright notice, this
  15:..\..\..\..\util\include/util.h ****        list of conditions and the following disclaimer.
  16:..\..\..\..\util\include/util.h ****     2. Redistributions in binary form must reproduce the above copyright notice,
  17:..\..\..\..\util\include/util.h ****        this list of conditions and the following disclaimer in the documentation
  18:..\..\..\..\util\include/util.h ****        and/or other materials provided with the distribution.
  19:..\..\..\..\util\include/util.h ****     3. Neither the name of the copyright holder nor the names of its contributors
  20:..\..\..\..\util\include/util.h ****        may be used to endorse or promote products derived from this software without
  21:..\..\..\..\util\include/util.h ****        specific prior written permission.
  22:..\..\..\..\util\include/util.h **** 
  23:..\..\..\..\util\include/util.h ****     THIS SOFTWARE IS PROVIDED BY THE COPYRIGHT HOLDERS AND CONTRIBUTORS "AS IS"
  24:..\..\..\..\util\include/util.h **** AND ANY EXPRESS OR IMPLIED WARRANTIES, INCLUDING, BUT NOT LIMITED TO, THE IMPLIED
  25:..\..\..\..\util\include/util.h **** WARRANTIES OF MERCHANTABILITY AND FITNESS FOR A PARTICULAR PURPOSE ARE DISCLAIMED.
  26:..\..\..\..\util\include/util.h **** IN NO EVENT SHALL THE COPYRIGHT HOLDER OR CONTRIBUTORS BE LIABLE FOR ANY DIRECT,
  27:..\..\..\..\util\include/util.h **** INDIRECT, INCIDENTAL, SPECIAL, EXEMPLARY, OR CONSEQUENTIAL DAMAGES (INCLUDING, BUT
  28:..\..\..\..\util\include/util.h **** NOT LIMITED TO, PROCUREMENT OF SUBSTITUTE GOODS OR SERVICES; LOSS OF USE, DATA, OR
  29:..\..\..\..\util\include/util.h **** PROFITS; OR BUSINESS INTERRUPTION) HOWEVER CAUSED AND ON ANY THEORY OF LIABILITY,
  30:..\..\..\..\util\include/util.h **** WHETHER IN CONTRACT, STRICT LIABILITY, OR TORT (INCLUDING NEGLIGENCE OR OTHERWISE)
  31:..\..\..\..\util\include/util.h **** ARISING IN ANY WAY OUT OF THE USE OF THIS SOFTWARE, EVEN IF ADVISED OF THE POSSIBILITY
  32:..\..\..\..\util\include/util.h **** OF SUCH DAMAGE.
  33:..\..\..\..\util\include/util.h **** */
  34:..\..\..\..\util\include/util.h **** 
  35:..\..\..\..\util\include/util.h **** #ifndef _UTIL_H_
  36:..\..\..\..\util\include/util.h **** #define _UTIL_H_
  37:..\..\..\..\util\include/util.h **** 
  38:..\..\..\..\util\include/util.h **** #include <stdint.h>
  39:..\..\..\..\util\include/util.h **** #include "compiler.h"
  40:..\..\..\..\util\include/util.h **** #include <limits.h>
  41:..\..\..\..\util\include/util.h **** 
  42:..\..\..\..\util\include/util.h **** #ifndef ARRAY_SIZE
  43:..\..\..\..\util\include/util.h **** #define ARRAY_SIZE(arr)     (sizeof(arr)/sizeof(arr[0]))
  44:..\..\..\..\util\include/util.h **** #endif
  45:..\..\..\..\util\include/util.h **** 
  46:..\..\..\..\util\include/util.h **** #ifndef BIT
  47:..\..\..\..\util\include/util.h **** #define BIT(pos)            (1UL << (pos))
  48:..\..\..\..\util\include/util.h **** #endif
  49:..\..\..\..\util\include/util.h **** 
  50:..\..\..\..\util\include/util.h **** #ifndef BITS
  51:..\..\..\..\util\include/util.h **** #define BITS(start, end)    ((0xFFFFFFFFUL << (start)) & (0xFFFFFFFFUL >> (31U - (uint32_t)(end))))
  52:..\..\..\..\util\include/util.h **** #endif
  53:..\..\..\..\util\include/util.h **** 
  54:..\..\..\..\util\include/util.h **** #ifndef BIT0
  55:..\..\..\..\util\include/util.h **** #define BIT0        0x00000001
  56:..\..\..\..\util\include/util.h **** #define BIT1        0x00000002
  57:..\..\..\..\util\include/util.h **** #define BIT2        0x00000004
  58:..\..\..\..\util\include/util.h **** #define BIT3        0x00000008
  59:..\..\..\..\util\include/util.h **** #define BIT4        0x00000010
  60:..\..\..\..\util\include/util.h **** #define BIT5        0x00000020
  61:..\..\..\..\util\include/util.h **** #define BIT6        0x00000040
  62:..\..\..\..\util\include/util.h **** #define BIT7        0x00000080
  63:..\..\..\..\util\include/util.h **** #define BIT8        0x00000100
  64:..\..\..\..\util\include/util.h **** #define BIT9        0x00000200
  65:..\..\..\..\util\include/util.h **** #define BIT10       0x00000400
  66:..\..\..\..\util\include/util.h **** #define BIT11       0x00000800
  67:..\..\..\..\util\include/util.h **** #define BIT12       0x00001000
  68:..\..\..\..\util\include/util.h **** #define BIT13       0x00002000
  69:..\..\..\..\util\include/util.h **** #define BIT14       0x00004000
  70:..\..\..\..\util\include/util.h **** #define BIT15       0x00008000
  71:..\..\..\..\util\include/util.h **** #define BIT16       0x00010000
  72:..\..\..\..\util\include/util.h **** #define BIT17       0x00020000
  73:..\..\..\..\util\include/util.h **** #define BIT18       0x00040000
  74:..\..\..\..\util\include/util.h **** #define BIT19       0x00080000
  75:..\..\..\..\util\include/util.h **** #define BIT20       0x00100000
  76:..\..\..\..\util\include/util.h **** #define BIT21       0x00200000
  77:..\..\..\..\util\include/util.h **** #define BIT22       0x00400000
  78:..\..\..\..\util\include/util.h **** #define BIT23       0x00800000
  79:..\..\..\..\util\include/util.h **** #define BIT24       0x01000000
  80:..\..\..\..\util\include/util.h **** #define BIT25       0x02000000
  81:..\..\..\..\util\include/util.h **** #define BIT26       0x04000000
  82:..\..\..\..\util\include/util.h **** #define BIT27       0x08000000
  83:..\..\..\..\util\include/util.h **** #define BIT28       0x10000000
  84:..\..\..\..\util\include/util.h **** #define BIT29       0x20000000
  85:..\..\..\..\util\include/util.h **** #define BIT30       0x40000000
  86:..\..\..\..\util\include/util.h **** #define BIT31       0x80000000
  87:..\..\..\..\util\include/util.h **** #endif
  88:..\..\..\..\util\include/util.h **** 
  89:..\..\..\..\util\include/util.h **** // Length of a char in bytes
  90:..\..\..\..\util\include/util.h **** #ifndef CHAR_LEN
  91:..\..\..\..\util\include/util.h **** #define CHAR_LEN            (CHAR_BIT / 8)
  92:..\..\..\..\util\include/util.h **** #endif
  93:..\..\..\..\util\include/util.h **** 
  94:..\..\..\..\util\include/util.h **** /**
  95:..\..\..\..\util\include/util.h ****  ****************************************************************************************
  96:..\..\..\..\util\include/util.h ****  * @brief Converts a CPU pointer into a HW address
  97:..\..\..\..\util\include/util.h ****  * This macro is used to convert a SW pointer into the corresponding HW address. With CPUs
  98:..\..\..\..\util\include/util.h ****  * having native byte support, the value returned will be the same as the pointer passed.
  99:..\..\..\..\util\include/util.h ****  * With TL4, the value returned is the pointer multiplied by 2.
 100:..\..\..\..\util\include/util.h ****  * @param[in] ptr Pointer to be converted
 101:..\..\..\..\util\include/util.h ****  * @return The corresponding HW address
 102:..\..\..\..\util\include/util.h ****  ****************************************************************************************
 103:..\..\..\..\util\include/util.h ****  */
 104:..\..\..\..\util\include/util.h **** #ifndef CPU2HW
 105:..\..\..\..\util\include/util.h **** #define CPU2HW(ptr)         (((uint32_t)(ptr)) * CHAR_LEN)
 106:..\..\..\..\util\include/util.h **** #endif
 107:..\..\..\..\util\include/util.h **** 
 108:..\..\..\..\util\include/util.h **** /**
 109:..\..\..\..\util\include/util.h ****  ****************************************************************************************
 110:..\..\..\..\util\include/util.h ****  * @brief Converts a HW address into a CPU pointer
 111:..\..\..\..\util\include/util.h ****  * This macro is doing the reverse operation as @ref CPU2HW.
 112:..\..\..\..\util\include/util.h ****  * @param[in] ptr Address to be converted
 113:..\..\..\..\util\include/util.h ****  * @return The corresponding CPU pointer
 114:..\..\..\..\util\include/util.h ****  ****************************************************************************************
 115:..\..\..\..\util\include/util.h ****  */
 116:..\..\..\..\util\include/util.h **** #ifndef HW2CPU
 117:..\..\..\..\util\include/util.h **** #define HW2CPU(ptr)         ((void *)(((uint32_t)(ptr)) / CHAR_LEN))
 118:..\..\..\..\util\include/util.h **** #endif
 119:..\..\..\..\util\include/util.h **** 
 120:..\..\..\..\util\include/util.h **** /**
 121:..\..\..\..\util\include/util.h ****  ****************************************************************************************
 122:..\..\..\..\util\include/util.h ****  * @brief Function to return the smallest of 2 unsigned 32 bits words.
 123:..\..\..\..\util\include/util.h ****  * @param[in] a First value
 124:..\..\..\..\util\include/util.h ****  * @param[in] b Second value
 125:..\..\..\..\util\include/util.h ****  * @return The smallest value between a and b
 126:..\..\..\..\util\include/util.h ****  ****************************************************************************************
 127:..\..\..\..\util\include/util.h ****  */
 128:..\..\..\..\util\include/util.h **** __INLINE uint32_t min(uint32_t a, uint32_t b)
 129:..\..\..\..\util\include/util.h **** {
 130:..\..\..\..\util\include/util.h ****     return a < b ? a : b;
 2315              		.loc 2 130 5
 2316              	.LBE46:
 2317              	.LBE45:
 870:C:/Users/stapi/OneDrive/Desktop/GD32VW553/V1_MQTT_OK/GD32VW55X_Wifi_BLE_SDK/GD32VW55x_RELEASE_V1.0.2/MSDK/util/src\debug_print.c ****                     field_width = 16;
 2318              		.loc 1 870 17
 2319 0306 C147     		li	a5,16
 870:C:/Users/stapi/OneDrive/Desktop/GD32VW553/V1_MQTT_OK/GD32VW55X_Wifi_BLE_SDK/GD32VW55x_RELEASE_V1.0.2/MSDK/util/src\debug_print.c ****                     field_width = 16;
 2320              		.loc 1 870 20 is_stmt 0
 2321 0308 63850E00 		beq	t4,zero,.L198
 2322              	.LBB48:
 2323              	.LBB47:
 2324              		.loc 2 130 22
 2325 030c D547     		li	a5,21
 2326 030e B3D7FE0A 		minu	a5,t4,a5
 2327              	.L198:
 2328              	.LVL261:
 2329              	.LBE47:
 2330              	.LBE48:
 872:C:/Users/stapi/OneDrive/Desktop/GD32VW553/V1_MQTT_OK/GD32VW55X_Wifi_BLE_SDK/GD32VW55x_RELEASE_V1.0.2/MSDK/util/src\debug_print.c ****                 for (;;) {
 2331              		.loc 1 872 17 is_stmt 1
 872:C:/Users/stapi/OneDrive/Desktop/GD32VW553/V1_MQTT_OK/GD32VW55X_Wifi_BLE_SDK/GD32VW55x_RELEASE_V1.0.2/MSDK/util/src\debug_print.c ****                 for (;;) {
 2332              		.loc 1 872 46 is_stmt 0
 2333 0312 0D47     		li	a4,3
 2334 0314 3387E702 		mul	a4,a5,a4
 865:C:/Users/stapi/OneDrive/Desktop/GD32VW553/V1_MQTT_OK/GD32VW55X_Wifi_BLE_SDK/GD32VW55x_RELEASE_V1.0.2/MSDK/util/src\debug_print.c ****                 tmp_ptr = va_arg(args, char *);
 2335              		.loc 1 865 31
 2336 0318 8A82     		mv	t0,sp
 2337              	.LVL262:
 2338 031a B38EF300 		add	t4,t2,a5
 2339 031e 9687     		mv	a5,t0
 872:C:/Users/stapi/OneDrive/Desktop/GD32VW553/V1_MQTT_OK/GD32VW55X_Wifi_BLE_SDK/GD32VW55x_RELEASE_V1.0.2/MSDK/util/src\debug_print.c ****                 for (;;) {
 2340              		.loc 1 872 32
 2341 0320 7D17     		addi	a4,a4,-1
 2342              	.LVL263:
 2343              	.L199:
 873:C:/Users/stapi/OneDrive/Desktop/GD32VW553/V1_MQTT_OK/GD32VW55X_Wifi_BLE_SDK/GD32VW55x_RELEASE_V1.0.2/MSDK/util/src\debug_print.c ****                     value = (unsigned char)*tmp_ptr++;
 2344              		.loc 1 873 17 is_stmt 1
 874:C:/Users/stapi/OneDrive/Desktop/GD32VW553/V1_MQTT_OK/GD32VW55X_Wifi_BLE_SDK/GD32VW55x_RELEASE_V1.0.2/MSDK/util/src\debug_print.c ****                     *fmt_field_ptr++ = hex_upper_table[value >> 4];
 2345              		.loc 1 874 21
 874:C:/Users/stapi/OneDrive/Desktop/GD32VW553/V1_MQTT_OK/GD32VW55X_Wifi_BLE_SDK/GD32VW55x_RELEASE_V1.0.2/MSDK/util/src\debug_print.c ****                     *fmt_field_ptr++ = hex_upper_table[value >> 4];
 2346              		.loc 1 874 29 is_stmt 0
 2347 0322 83CC0300 		lbu	s9,0(t2)
 874:C:/Users/stapi/OneDrive/Desktop/GD32VW553/V1_MQTT_OK/GD32VW55X_Wifi_BLE_SDK/GD32VW55x_RELEASE_V1.0.2/MSDK/util/src\debug_print.c ****                     *fmt_field_ptr++ = hex_upper_table[value >> 4];
 2348              		.loc 1 874 52
 2349 0326 8503     		addi	t2,t2,1
 2350              	.LVL264:
 875:C:/Users/stapi/OneDrive/Desktop/GD32VW553/V1_MQTT_OK/GD32VW55X_Wifi_BLE_SDK/GD32VW55x_RELEASE_V1.0.2/MSDK/util/src\debug_print.c ****                     *fmt_field_ptr++ = hex_upper_table[value & 0xF];
 2351              		.loc 1 875 21 is_stmt 1
 875:C:/Users/stapi/OneDrive/Desktop/GD32VW553/V1_MQTT_OK/GD32VW55X_Wifi_BLE_SDK/GD32VW55x_RELEASE_V1.0.2/MSDK/util/src\debug_print.c ****                     *fmt_field_ptr++ = hex_upper_table[value & 0xF];
 2352              		.loc 1 875 62 is_stmt 0
 2353 0328 13DD4C40 		srai	s10,s9,4
 876:C:/Users/stapi/OneDrive/Desktop/GD32VW553/V1_MQTT_OK/GD32VW55X_Wifi_BLE_SDK/GD32VW55x_RELEASE_V1.0.2/MSDK/util/src\debug_print.c ****                     if (--field_width == 0)
 2354              		.loc 1 876 62
 2355 032c 93FCFC00 		andi	s9,s9,15
 2356              	.LVL265:
 875:C:/Users/stapi/OneDrive/Desktop/GD32VW553/V1_MQTT_OK/GD32VW55X_Wifi_BLE_SDK/GD32VW55x_RELEASE_V1.0.2/MSDK/util/src\debug_print.c ****                     *fmt_field_ptr++ = hex_upper_table[value & 0xF];
 2357              		.loc 1 875 55
 2358 0330 7E9D     		add	s10,t6,s10
 876:C:/Users/stapi/OneDrive/Desktop/GD32VW553/V1_MQTT_OK/GD32VW55X_Wifi_BLE_SDK/GD32VW55x_RELEASE_V1.0.2/MSDK/util/src\debug_print.c ****                     if (--field_width == 0)
 2359              		.loc 1 876 55
 2360 0332 FE9C     		add	s9,t6,s9
 875:C:/Users/stapi/OneDrive/Desktop/GD32VW553/V1_MQTT_OK/GD32VW55X_Wifi_BLE_SDK/GD32VW55x_RELEASE_V1.0.2/MSDK/util/src\debug_print.c ****                     *fmt_field_ptr++ = hex_upper_table[value & 0xF];
 2361              		.loc 1 875 38
 2362 0334 034D0D00 		lbu	s10,0(s10)
 876:C:/Users/stapi/OneDrive/Desktop/GD32VW553/V1_MQTT_OK/GD32VW55X_Wifi_BLE_SDK/GD32VW55x_RELEASE_V1.0.2/MSDK/util/src\debug_print.c ****                     if (--field_width == 0)
 2363              		.loc 1 876 38
 2364 0338 83CC0C00 		lbu	s9,0(s9)
 875:C:/Users/stapi/OneDrive/Desktop/GD32VW553/V1_MQTT_OK/GD32VW55X_Wifi_BLE_SDK/GD32VW55x_RELEASE_V1.0.2/MSDK/util/src\debug_print.c ****                     *fmt_field_ptr++ = hex_upper_table[value & 0xF];
 2365              		.loc 1 875 38
 2366 033c 2380A201 		sb	s10,0(t0)
 876:C:/Users/stapi/OneDrive/Desktop/GD32VW553/V1_MQTT_OK/GD32VW55X_Wifi_BLE_SDK/GD32VW55x_RELEASE_V1.0.2/MSDK/util/src\debug_print.c ****                     if (--field_width == 0)
 2367              		.loc 1 876 21 is_stmt 1
 2368              	.LVL266:
 876:C:/Users/stapi/OneDrive/Desktop/GD32VW553/V1_MQTT_OK/GD32VW55X_Wifi_BLE_SDK/GD32VW55x_RELEASE_V1.0.2/MSDK/util/src\debug_print.c ****                     if (--field_width == 0)
 2369              		.loc 1 876 38 is_stmt 0
 2370 0340 A3809201 		sb	s9,1(t0)
 877:C:/Users/stapi/OneDrive/Desktop/GD32VW553/V1_MQTT_OK/GD32VW55X_Wifi_BLE_SDK/GD32VW55x_RELEASE_V1.0.2/MSDK/util/src\debug_print.c ****                         break;
 2371              		.loc 1 877 21 is_stmt 1
 877:C:/Users/stapi/OneDrive/Desktop/GD32VW553/V1_MQTT_OK/GD32VW55X_Wifi_BLE_SDK/GD32VW55x_RELEASE_V1.0.2/MSDK/util/src\debug_print.c ****                         break;
 2372              		.loc 1 877 24 is_stmt 0
 2373 0344 6382D311 		beq	t2,t4,.L246
 880:C:/Users/stapi/OneDrive/Desktop/GD32VW553/V1_MQTT_OK/GD32VW55X_Wifi_BLE_SDK/GD32VW55x_RELEASE_V1.0.2/MSDK/util/src\debug_print.c ****                         *fmt_field_ptr++ = '.';
 2374              		.loc 1 880 21 is_stmt 1
 880:C:/Users/stapi/OneDrive/Desktop/GD32VW553/V1_MQTT_OK/GD32VW55X_Wifi_BLE_SDK/GD32VW55x_RELEASE_V1.0.2/MSDK/util/src\debug_print.c ****                         *fmt_field_ptr++ = '.';
 2375              		.loc 1 880 27 is_stmt 0
 2376 0348 93FC3300 		andi	s9,t2,3
 2377 034c 8D02     		addi	t0,t0,3
 2378              	.LVL267:
 881:C:/Users/stapi/OneDrive/Desktop/GD32VW553/V1_MQTT_OK/GD32VW55X_Wifi_BLE_SDK/GD32VW55x_RELEASE_V1.0.2/MSDK/util/src\debug_print.c ****                     else
 2379              		.loc 1 881 42
 2380 034e 130DE002 		li	s10,46
 880:C:/Users/stapi/OneDrive/Desktop/GD32VW553/V1_MQTT_OK/GD32VW55X_Wifi_BLE_SDK/GD32VW55x_RELEASE_V1.0.2/MSDK/util/src\debug_print.c ****                         *fmt_field_ptr++ = '.';
 2381              		.loc 1 880 24
 2382 0352 63940C00 		bne	s9,zero,.L201
 883:C:/Users/stapi/OneDrive/Desktop/GD32VW553/V1_MQTT_OK/GD32VW55X_Wifi_BLE_SDK/GD32VW55x_RELEASE_V1.0.2/MSDK/util/src\debug_print.c ****                 }
 2383              		.loc 1 883 42
 2384 0356 130DA003 		li	s10,58
 2385              	.L201:
 2386              	.LVL268:
 2387 035a A38FA2FF 		sb	s10,-1(t0)
 2388 035e D1B7     		j	.L199
 2389              	.LVL269:
 2390              	.L202:
 907:C:/Users/stapi/OneDrive/Desktop/GD32VW553/V1_MQTT_OK/GD32VW55X_Wifi_BLE_SDK/GD32VW55x_RELEASE_V1.0.2/MSDK/util/src\debug_print.c ****                     if (c == 'd') {
 2391              		.loc 1 907 22 is_stmt 1
 907:C:/Users/stapi/OneDrive/Desktop/GD32VW553/V1_MQTT_OK/GD32VW55X_Wifi_BLE_SDK/GD32VW55x_RELEASE_V1.0.2/MSDK/util/src\debug_print.c ****                     if (c == 'd') {
 2392              		.loc 1 907 25 is_stmt 0
 2393 0360 858B     		andi	a5,a5,1
 2394 0362 83230700 		lw	t2,0(a4)
 2395 0366 89D3     		beq	a5,zero,.L203
 908:C:/Users/stapi/OneDrive/Desktop/GD32VW553/V1_MQTT_OK/GD32VW55X_Wifi_BLE_SDK/GD32VW55x_RELEASE_V1.0.2/MSDK/util/src\debug_print.c ****                         // extend the sign
 2396              		.loc 1 908 21 is_stmt 1
 908:C:/Users/stapi/OneDrive/Desktop/GD32VW553/V1_MQTT_OK/GD32VW55X_Wifi_BLE_SDK/GD32VW55x_RELEASE_V1.0.2/MSDK/util/src\debug_print.c ****                         // extend the sign
 2397              		.loc 1 908 24 is_stmt 0
 2398 0368 93074006 		li	a5,100
 2399 036c 6396F204 		bne	t0,a5,.L205
 910:C:/Users/stapi/OneDrive/Desktop/GD32VW553/V1_MQTT_OK/GD32VW55X_Wifi_BLE_SDK/GD32VW55x_RELEASE_V1.0.2/MSDK/util/src\debug_print.c ****                     } else {
 2400              		.loc 1 910 25 is_stmt 1
 2401              	.LVL270:
 910:C:/Users/stapi/OneDrive/Desktop/GD32VW553/V1_MQTT_OK/GD32VW55X_Wifi_BLE_SDK/GD32VW55x_RELEASE_V1.0.2/MSDK/util/src\debug_print.c ****                     } else {
 2402              		.loc 1 910 31 is_stmt 0
 2403 0370 93935360 		sext.h	t2,t2
 2404              	.LVL271:
 922:C:/Users/stapi/OneDrive/Desktop/GD32VW553/V1_MQTT_OK/GD32VW55X_Wifi_BLE_SDK/GD32VW55x_RELEASE_V1.0.2/MSDK/util/src\debug_print.c ****                 {
 2405              		.loc 1 922 17 is_stmt 1
 2406              	.L206:
 926:C:/Users/stapi/OneDrive/Desktop/GD32VW553/V1_MQTT_OK/GD32VW55X_Wifi_BLE_SDK/GD32VW55x_RELEASE_V1.0.2/MSDK/util/src\debug_print.c ****                         value =  (uint32_t)(-value);
 2407              		.loc 1 926 21
 926:C:/Users/stapi/OneDrive/Desktop/GD32VW553/V1_MQTT_OK/GD32VW55X_Wifi_BLE_SDK/GD32VW55x_RELEASE_V1.0.2/MSDK/util/src\debug_print.c ****                         value =  (uint32_t)(-value);
 2408              		.loc 1 926 24 is_stmt 0
 2409 0374 63D60300 		bge	t2,zero,.L210
 927:C:/Users/stapi/OneDrive/Desktop/GD32VW553/V1_MQTT_OK/GD32VW55X_Wifi_BLE_SDK/GD32VW55x_RELEASE_V1.0.2/MSDK/util/src\debug_print.c ****                         // remember negative sign
 2410              		.loc 1 927 25 is_stmt 1
 927:C:/Users/stapi/OneDrive/Desktop/GD32VW553/V1_MQTT_OK/GD32VW55X_Wifi_BLE_SDK/GD32VW55x_RELEASE_V1.0.2/MSDK/util/src\debug_print.c ****                         // remember negative sign
 2411              		.loc 1 927 31 is_stmt 0
 2412 0378 B3037040 		neg	t2,t2
 2413              	.LVL272:
 929:C:/Users/stapi/OneDrive/Desktop/GD32VW553/V1_MQTT_OK/GD32VW55X_Wifi_BLE_SDK/GD32VW55x_RELEASE_V1.0.2/MSDK/util/src\debug_print.c ****                     }
 2414              		.loc 1 929 25 is_stmt 1
 929:C:/Users/stapi/OneDrive/Desktop/GD32VW553/V1_MQTT_OK/GD32VW55X_Wifi_BLE_SDK/GD32VW55x_RELEASE_V1.0.2/MSDK/util/src\debug_print.c ****                     }
 2415              		.loc 1 929 37 is_stmt 0
 2416 037c 136808F8 		ori	a6,a6,-128
 2417              	.LVL273:
 2418              	.L210:
 889:C:/Users/stapi/OneDrive/Desktop/GD32VW553/V1_MQTT_OK/GD32VW55X_Wifi_BLE_SDK/GD32VW55x_RELEASE_V1.0.2/MSDK/util/src\debug_print.c ****             case 'd': // signed decimal
 2419              		.loc 1 889 19 discriminator 1
 2420 0380 0147     		li	a4,0
 2421 0382 9C00     		addi	a5,sp,64
 2422              	.LVL274:
 936:C:/Users/stapi/OneDrive/Desktop/GD32VW553/V1_MQTT_OK/GD32VW55X_Wifi_BLE_SDK/GD32VW55x_RELEASE_V1.0.2/MSDK/util/src\debug_print.c ****                         value = value / 10;
 2423              		.loc 1 936 63 discriminator 1
 2424 0384 294D     		li	s10,10
 2425              	.LVL275:
 2426              	.L212:
 933:C:/Users/stapi/OneDrive/Desktop/GD32VW553/V1_MQTT_OK/GD32VW55X_Wifi_BLE_SDK/GD32VW55x_RELEASE_V1.0.2/MSDK/util/src\debug_print.c ****                         // go backward
 2427              		.loc 1 933 21 is_stmt 1 discriminator 1
 935:C:/Users/stapi/OneDrive/Desktop/GD32VW553/V1_MQTT_OK/GD32VW55X_Wifi_BLE_SDK/GD32VW55x_RELEASE_V1.0.2/MSDK/util/src\debug_print.c ****                         *fmt_field_ptr = ('0' + ((char)(value % 10)));
 2428              		.loc 1 935 25 discriminator 1
 936:C:/Users/stapi/OneDrive/Desktop/GD32VW553/V1_MQTT_OK/GD32VW55X_Wifi_BLE_SDK/GD32VW55x_RELEASE_V1.0.2/MSDK/util/src\debug_print.c ****                         value = value / 10;
 2429              		.loc 1 936 63 is_stmt 0 discriminator 1
 2430 0386 B3ECA303 		rem	s9,t2,s10
 2431 038a BE82     		mv	t0,a5
 935:C:/Users/stapi/OneDrive/Desktop/GD32VW553/V1_MQTT_OK/GD32VW55X_Wifi_BLE_SDK/GD32VW55x_RELEASE_V1.0.2/MSDK/util/src\debug_print.c ****                         *fmt_field_ptr = ('0' + ((char)(value % 10)));
 2432              		.loc 1 935 38 discriminator 1
 2433 038c FD17     		addi	a5,a5,-1
 2434              	.LVL276:
 936:C:/Users/stapi/OneDrive/Desktop/GD32VW553/V1_MQTT_OK/GD32VW55X_Wifi_BLE_SDK/GD32VW55x_RELEASE_V1.0.2/MSDK/util/src\debug_print.c ****                         value = value / 10;
 2435              		.loc 1 936 25 is_stmt 1 discriminator 1
 937:C:/Users/stapi/OneDrive/Desktop/GD32VW553/V1_MQTT_OK/GD32VW55X_Wifi_BLE_SDK/GD32VW55x_RELEASE_V1.0.2/MSDK/util/src\debug_print.c ****                         fmt_field_size++;
 2436              		.loc 1 937 31 is_stmt 0 discriminator 1
 2437 038e B3C3A303 		div	t2,t2,s10
 2438              	.LVL277:
 936:C:/Users/stapi/OneDrive/Desktop/GD32VW553/V1_MQTT_OK/GD32VW55X_Wifi_BLE_SDK/GD32VW55x_RELEASE_V1.0.2/MSDK/util/src\debug_print.c ****                         value = value / 10;
 2439              		.loc 1 936 47 discriminator 1
 2440 0392 938C0C03 		addi	s9,s9,48
 936:C:/Users/stapi/OneDrive/Desktop/GD32VW553/V1_MQTT_OK/GD32VW55X_Wifi_BLE_SDK/GD32VW55x_RELEASE_V1.0.2/MSDK/util/src\debug_print.c ****                         value = value / 10;
 2441              		.loc 1 936 40 discriminator 1
 2442 0396 23809701 		sb	s9,0(a5)
 937:C:/Users/stapi/OneDrive/Desktop/GD32VW553/V1_MQTT_OK/GD32VW55X_Wifi_BLE_SDK/GD32VW55x_RELEASE_V1.0.2/MSDK/util/src\debug_print.c ****                         fmt_field_size++;
 2443              		.loc 1 937 25 is_stmt 1 discriminator 1
 2444              	.LVL278:
 938:C:/Users/stapi/OneDrive/Desktop/GD32VW553/V1_MQTT_OK/GD32VW55X_Wifi_BLE_SDK/GD32VW55x_RELEASE_V1.0.2/MSDK/util/src\debug_print.c ****                     } while (value != 0);
 2445              		.loc 1 938 25 discriminator 1
 2446 039a BA8C     		mv	s9,a4
 2447              	.LVL279:
 938:C:/Users/stapi/OneDrive/Desktop/GD32VW553/V1_MQTT_OK/GD32VW55X_Wifi_BLE_SDK/GD32VW55x_RELEASE_V1.0.2/MSDK/util/src\debug_print.c ****                     } while (value != 0);
 2448              		.loc 1 938 39 is_stmt 0 discriminator 1
 2449 039c 0507     		addi	a4,a4,1
 2450              	.LVL280:
 939:C:/Users/stapi/OneDrive/Desktop/GD32VW553/V1_MQTT_OK/GD32VW55X_Wifi_BLE_SDK/GD32VW55x_RELEASE_V1.0.2/MSDK/util/src\debug_print.c **** 
 2451              		.loc 1 939 29 is_stmt 1 discriminator 1
 939:C:/Users/stapi/OneDrive/Desktop/GD32VW553/V1_MQTT_OK/GD32VW55X_Wifi_BLE_SDK/GD32VW55x_RELEASE_V1.0.2/MSDK/util/src\debug_print.c **** 
 2452              		.loc 1 939 21 is_stmt 0 discriminator 1
 2453 039e E39403FE 		bne	t2,zero,.L212
 942:C:/Users/stapi/OneDrive/Desktop/GD32VW553/V1_MQTT_OK/GD32VW55X_Wifi_BLE_SDK/GD32VW55x_RELEASE_V1.0.2/MSDK/util/src\debug_print.c ****                         // go backward
 2454              		.loc 1 942 21 is_stmt 1
 942:C:/Users/stapi/OneDrive/Desktop/GD32VW553/V1_MQTT_OK/GD32VW55X_Wifi_BLE_SDK/GD32VW55x_RELEASE_V1.0.2/MSDK/util/src\debug_print.c ****                         // go backward
 2455              		.loc 1 942 24 is_stmt 0
 2456 03a2 63520806 		bge	a6,zero,.L213
 944:C:/Users/stapi/OneDrive/Desktop/GD32VW553/V1_MQTT_OK/GD32VW55X_Wifi_BLE_SDK/GD32VW55x_RELEASE_V1.0.2/MSDK/util/src\debug_print.c **** 
 2457              		.loc 1 944 25 is_stmt 1
 2458              	.LVL281:
 946:C:/Users/stapi/OneDrive/Desktop/GD32VW553/V1_MQTT_OK/GD32VW55X_Wifi_BLE_SDK/GD32VW55x_RELEASE_V1.0.2/MSDK/util/src\debug_print.c ****                         fmt_field_size++;
 2459              		.loc 1 946 25
 946:C:/Users/stapi/OneDrive/Desktop/GD32VW553/V1_MQTT_OK/GD32VW55X_Wifi_BLE_SDK/GD32VW55x_RELEASE_V1.0.2/MSDK/util/src\debug_print.c ****                         fmt_field_size++;
 2460              		.loc 1 946 40 is_stmt 0
 2461 03a6 1307D002 		li	a4,45
 2462              	.LVL282:
 2463              	.L281:
 952:C:/Users/stapi/OneDrive/Desktop/GD32VW553/V1_MQTT_OK/GD32VW55X_Wifi_BLE_SDK/GD32VW55x_RELEASE_V1.0.2/MSDK/util/src\debug_print.c ****                         fmt_field_size++;
 2464              		.loc 1 952 40
 2465 03aa A38FE7FE 		sb	a4,-1(a5)
 2466              	.LVL283:
 2467              	.L283:
 953:C:/Users/stapi/OneDrive/Desktop/GD32VW553/V1_MQTT_OK/GD32VW55X_Wifi_BLE_SDK/GD32VW55x_RELEASE_V1.0.2/MSDK/util/src\debug_print.c ****                     } else if (field_flags & FLAG_SIGN_SPACE) { // prefix with a ' ' (used instead 
 2468              		.loc 1 953 25 is_stmt 1
 953:C:/Users/stapi/OneDrive/Desktop/GD32VW553/V1_MQTT_OK/GD32VW55X_Wifi_BLE_SDK/GD32VW55x_RELEASE_V1.0.2/MSDK/util/src\debug_print.c ****                     } else if (field_flags & FLAG_SIGN_SPACE) { // prefix with a ' ' (used instead 
 2469              		.loc 1 953 39 is_stmt 0
 2470 03ae 13872C00 		addi	a4,s9,2
 2471              	.LVL284:
 951:C:/Users/stapi/OneDrive/Desktop/GD32VW553/V1_MQTT_OK/GD32VW55X_Wifi_BLE_SDK/GD32VW55x_RELEASE_V1.0.2/MSDK/util/src\debug_print.c ****                         *fmt_field_ptr = '+';
 2472              		.loc 1 951 38
 2473 03b2 9387E2FF 		addi	a5,t0,-2
 2474 03b6 E9B5     		j	.L185
 2475              	.LVL285:
 2476              	.L205:
 912:C:/Users/stapi/OneDrive/Desktop/GD32VW553/V1_MQTT_OK/GD32VW55X_Wifi_BLE_SDK/GD32VW55x_RELEASE_V1.0.2/MSDK/util/src\debug_print.c ****                     }
 2477              		.loc 1 912 25 is_stmt 1
 2478 03b8 B3F37301 		and	t2,t2,s7
 2479              	.LVL286:
 922:C:/Users/stapi/OneDrive/Desktop/GD32VW553/V1_MQTT_OK/GD32VW55X_Wifi_BLE_SDK/GD32VW55x_RELEASE_V1.0.2/MSDK/util/src\debug_print.c ****                 {
 2480              		.loc 1 922 17
 2481              	.L297:
 2482 03bc 63CD5700 		bgt	t0,a5,.L211
 2483 03c0 93078005 		li	a5,88
 2484 03c4 6381F202 		beq	t0,a5,.L208
 2485 03c8 93072006 		li	a5,98
 2486 03cc 638DF204 		beq	t0,a5,.L209
 2487              	.L282:
 2488 03d0 0147     		li	a4,0
 2489 03d2 9C00     		addi	a5,sp,64
 2490              	.LVL287:
 2491 03d4 75B5     		j	.L185
 2492              	.LVL288:
 2493              	.L211:
 2494 03d6 93075007 		li	a5,117
 2495 03da E383F2FA 		beq	t0,a5,.L210
 2496 03de 93078007 		li	a5,120
 2497 03e2 E397F2FE 		bne	t0,a5,.L282
 2498              	.L208:
 2499              	.LVL289:
 889:C:/Users/stapi/OneDrive/Desktop/GD32VW553/V1_MQTT_OK/GD32VW55X_Wifi_BLE_SDK/GD32VW55x_RELEASE_V1.0.2/MSDK/util/src\debug_print.c ****             case 'd': // signed decimal
 2500              		.loc 1 889 19 is_stmt 0 discriminator 1
 2501 03e6 0147     		li	a4,0
 2502 03e8 9C00     		addi	a5,sp,64
 2503              	.LVL290:
 2504              	.L215:
 975:C:/Users/stapi/OneDrive/Desktop/GD32VW553/V1_MQTT_OK/GD32VW55X_Wifi_BLE_SDK/GD32VW55x_RELEASE_V1.0.2/MSDK/util/src\debug_print.c ****                         // go backward
 2505              		.loc 1 975 21 is_stmt 1 discriminator 1
 977:C:/Users/stapi/OneDrive/Desktop/GD32VW553/V1_MQTT_OK/GD32VW55X_Wifi_BLE_SDK/GD32VW55x_RELEASE_V1.0.2/MSDK/util/src\debug_print.c ****                         *fmt_field_ptr = hex_upper_table[value & 0XFUL];
 2506              		.loc 1 977 25 discriminator 1
 978:C:/Users/stapi/OneDrive/Desktop/GD32VW553/V1_MQTT_OK/GD32VW55X_Wifi_BLE_SDK/GD32VW55x_RELEASE_V1.0.2/MSDK/util/src\debug_print.c ****                         value = ((uint32_t)value) >> 4;
 2507              		.loc 1 978 64 is_stmt 0 discriminator 1
 2508 03ea 93F2F300 		andi	t0,t2,15
 978:C:/Users/stapi/OneDrive/Desktop/GD32VW553/V1_MQTT_OK/GD32VW55X_Wifi_BLE_SDK/GD32VW55x_RELEASE_V1.0.2/MSDK/util/src\debug_print.c ****                         value = ((uint32_t)value) >> 4;
 2509              		.loc 1 978 57 discriminator 1
 2510 03ee FE92     		add	t0,t6,t0
 978:C:/Users/stapi/OneDrive/Desktop/GD32VW553/V1_MQTT_OK/GD32VW55X_Wifi_BLE_SDK/GD32VW55x_RELEASE_V1.0.2/MSDK/util/src\debug_print.c ****                         value = ((uint32_t)value) >> 4;
 2511              		.loc 1 978 40 discriminator 1
 2512 03f0 83C20200 		lbu	t0,0(t0)
 979:C:/Users/stapi/OneDrive/Desktop/GD32VW553/V1_MQTT_OK/GD32VW55X_Wifi_BLE_SDK/GD32VW55x_RELEASE_V1.0.2/MSDK/util/src\debug_print.c ****                         fmt_field_size++;
 2513              		.loc 1 979 51 discriminator 1
 2514 03f4 93D34300 		srli	t2,t2,4
 2515              	.LVL291:
 977:C:/Users/stapi/OneDrive/Desktop/GD32VW553/V1_MQTT_OK/GD32VW55X_Wifi_BLE_SDK/GD32VW55x_RELEASE_V1.0.2/MSDK/util/src\debug_print.c ****                         *fmt_field_ptr = hex_upper_table[value & 0XFUL];
 2516              		.loc 1 977 38 discriminator 1
 2517 03f8 FD17     		addi	a5,a5,-1
 2518              	.LVL292:
 978:C:/Users/stapi/OneDrive/Desktop/GD32VW553/V1_MQTT_OK/GD32VW55X_Wifi_BLE_SDK/GD32VW55x_RELEASE_V1.0.2/MSDK/util/src\debug_print.c ****                         value = ((uint32_t)value) >> 4;
 2519              		.loc 1 978 25 is_stmt 1 discriminator 1
 978:C:/Users/stapi/OneDrive/Desktop/GD32VW553/V1_MQTT_OK/GD32VW55X_Wifi_BLE_SDK/GD32VW55x_RELEASE_V1.0.2/MSDK/util/src\debug_print.c ****                         value = ((uint32_t)value) >> 4;
 2520              		.loc 1 978 40 is_stmt 0 discriminator 1
 2521 03fa 23805700 		sb	t0,0(a5)
 979:C:/Users/stapi/OneDrive/Desktop/GD32VW553/V1_MQTT_OK/GD32VW55X_Wifi_BLE_SDK/GD32VW55x_RELEASE_V1.0.2/MSDK/util/src\debug_print.c ****                         fmt_field_size++;
 2522              		.loc 1 979 25 is_stmt 1 discriminator 1
 2523              	.LVL293:
 980:C:/Users/stapi/OneDrive/Desktop/GD32VW553/V1_MQTT_OK/GD32VW55X_Wifi_BLE_SDK/GD32VW55x_RELEASE_V1.0.2/MSDK/util/src\debug_print.c ****                     } while (value != 0);
 2524              		.loc 1 980 25 discriminator 1
 980:C:/Users/stapi/OneDrive/Desktop/GD32VW553/V1_MQTT_OK/GD32VW55X_Wifi_BLE_SDK/GD32VW55x_RELEASE_V1.0.2/MSDK/util/src\debug_print.c ****                     } while (value != 0);
 2525              		.loc 1 980 39 is_stmt 0 discriminator 1
 2526 03fe 0507     		addi	a4,a4,1
 2527              	.LVL294:
 981:C:/Users/stapi/OneDrive/Desktop/GD32VW553/V1_MQTT_OK/GD32VW55X_Wifi_BLE_SDK/GD32VW55x_RELEASE_V1.0.2/MSDK/util/src\debug_print.c ****                     break;
 2528              		.loc 1 981 29 is_stmt 1 discriminator 1
 981:C:/Users/stapi/OneDrive/Desktop/GD32VW553/V1_MQTT_OK/GD32VW55X_Wifi_BLE_SDK/GD32VW55x_RELEASE_V1.0.2/MSDK/util/src\debug_print.c ****                     break;
 2529              		.loc 1 981 21 is_stmt 0 discriminator 1
 2530 0400 E39503FE 		bne	t2,zero,.L215
 2531 0404 B5BD     		j	.L185
 2532              	.L213:
 949:C:/Users/stapi/OneDrive/Desktop/GD32VW553/V1_MQTT_OK/GD32VW55X_Wifi_BLE_SDK/GD32VW55x_RELEASE_V1.0.2/MSDK/util/src\debug_print.c ****                         // go backward
 2533              		.loc 1 949 29
 2534 0406 137D8800 		andi	s10,a6,8
 949:C:/Users/stapi/OneDrive/Desktop/GD32VW553/V1_MQTT_OK/GD32VW55X_Wifi_BLE_SDK/GD32VW55x_RELEASE_V1.0.2/MSDK/util/src\debug_print.c ****                         // go backward
 2535              		.loc 1 949 42
 2536 040a 9373F80F 		andi	t2,a6,0xff
 2537              	.LVL295:
 949:C:/Users/stapi/OneDrive/Desktop/GD32VW553/V1_MQTT_OK/GD32VW55X_Wifi_BLE_SDK/GD32VW55x_RELEASE_V1.0.2/MSDK/util/src\debug_print.c ****                         // go backward
 2538              		.loc 1 949 26 is_stmt 1
 949:C:/Users/stapi/OneDrive/Desktop/GD32VW553/V1_MQTT_OK/GD32VW55X_Wifi_BLE_SDK/GD32VW55x_RELEASE_V1.0.2/MSDK/util/src\debug_print.c ****                         // go backward
 2539              		.loc 1 949 29 is_stmt 0
 2540 040e 63050D00 		beq	s10,zero,.L214
 951:C:/Users/stapi/OneDrive/Desktop/GD32VW553/V1_MQTT_OK/GD32VW55X_Wifi_BLE_SDK/GD32VW55x_RELEASE_V1.0.2/MSDK/util/src\debug_print.c ****                         *fmt_field_ptr = '+';
 2541              		.loc 1 951 25 is_stmt 1
 2542              	.LVL296:
 952:C:/Users/stapi/OneDrive/Desktop/GD32VW553/V1_MQTT_OK/GD32VW55X_Wifi_BLE_SDK/GD32VW55x_RELEASE_V1.0.2/MSDK/util/src\debug_print.c ****                         fmt_field_size++;
 2543              		.loc 1 952 25
 952:C:/Users/stapi/OneDrive/Desktop/GD32VW553/V1_MQTT_OK/GD32VW55X_Wifi_BLE_SDK/GD32VW55x_RELEASE_V1.0.2/MSDK/util/src\debug_print.c ****                         fmt_field_size++;
 2544              		.loc 1 952 40 is_stmt 0
 2545 0412 1307B002 		li	a4,43
 2546              	.LVL297:
 2547 0416 51BF     		j	.L281
 2548              	.LVL298:
 2549              	.L214:
 954:C:/Users/stapi/OneDrive/Desktop/GD32VW553/V1_MQTT_OK/GD32VW55X_Wifi_BLE_SDK/GD32VW55x_RELEASE_V1.0.2/MSDK/util/src\debug_print.c ****                         // go backward
 2550              		.loc 1 954 28 is_stmt 1
 954:C:/Users/stapi/OneDrive/Desktop/GD32VW553/V1_MQTT_OK/GD32VW55X_Wifi_BLE_SDK/GD32VW55x_RELEASE_V1.0.2/MSDK/util/src\debug_print.c ****                         // go backward
 2551              		.loc 1 954 31 is_stmt 0
 2552 0418 93F30301 		andi	t2,t2,16
 2553 041c E38203E6 		beq	t2,zero,.L185
 956:C:/Users/stapi/OneDrive/Desktop/GD32VW553/V1_MQTT_OK/GD32VW55X_Wifi_BLE_SDK/GD32VW55x_RELEASE_V1.0.2/MSDK/util/src\debug_print.c ****                         *fmt_field_ptr = ' ';
 2554              		.loc 1 956 25 is_stmt 1
 2555              	.LVL299:
 957:C:/Users/stapi/OneDrive/Desktop/GD32VW553/V1_MQTT_OK/GD32VW55X_Wifi_BLE_SDK/GD32VW55x_RELEASE_V1.0.2/MSDK/util/src\debug_print.c ****                         fmt_field_size++;
 2556              		.loc 1 957 25
 957:C:/Users/stapi/OneDrive/Desktop/GD32VW553/V1_MQTT_OK/GD32VW55X_Wifi_BLE_SDK/GD32VW55x_RELEASE_V1.0.2/MSDK/util/src\debug_print.c ****                         fmt_field_size++;
 2557              		.loc 1 957 40 is_stmt 0
 2558 0420 A38F87FE 		sb	s0,-1(a5)
 958:C:/Users/stapi/OneDrive/Desktop/GD32VW553/V1_MQTT_OK/GD32VW55X_Wifi_BLE_SDK/GD32VW55x_RELEASE_V1.0.2/MSDK/util/src\debug_print.c ****                     }
 2559              		.loc 1 958 25 is_stmt 1
 2560              	.LVL300:
 2561 0424 69B7     		j	.L283
 2562              	.LVL301:
 2563              	.L209:
 889:C:/Users/stapi/OneDrive/Desktop/GD32VW553/V1_MQTT_OK/GD32VW55X_Wifi_BLE_SDK/GD32VW55x_RELEASE_V1.0.2/MSDK/util/src\debug_print.c ****             case 'd': // signed decimal
 2564              		.loc 1 889 19 is_stmt 0 discriminator 1
 2565 0426 0147     		li	a4,0
 2566 0428 9C00     		addi	a5,sp,64
 2567              	.LVL302:
 2568              	.L216:
 985:C:/Users/stapi/OneDrive/Desktop/GD32VW553/V1_MQTT_OK/GD32VW55X_Wifi_BLE_SDK/GD32VW55x_RELEASE_V1.0.2/MSDK/util/src\debug_print.c ****                         // go backward
 2569              		.loc 1 985 21 is_stmt 1 discriminator 1
 987:C:/Users/stapi/OneDrive/Desktop/GD32VW553/V1_MQTT_OK/GD32VW55X_Wifi_BLE_SDK/GD32VW55x_RELEASE_V1.0.2/MSDK/util/src\debug_print.c ****                         *fmt_field_ptr = '0' + ((char)(value & 0x01UL));
 2570              		.loc 1 987 25 discriminator 1
 988:C:/Users/stapi/OneDrive/Desktop/GD32VW553/V1_MQTT_OK/GD32VW55X_Wifi_BLE_SDK/GD32VW55x_RELEASE_V1.0.2/MSDK/util/src\debug_print.c ****                         value = ((uint32_t)value) >> 1;
 2571              		.loc 1 988 49 is_stmt 0 discriminator 1
 2572 042a 93F21300 		andi	t0,t2,1
 987:C:/Users/stapi/OneDrive/Desktop/GD32VW553/V1_MQTT_OK/GD32VW55X_Wifi_BLE_SDK/GD32VW55x_RELEASE_V1.0.2/MSDK/util/src\debug_print.c ****                         *fmt_field_ptr = '0' + ((char)(value & 0x01UL));
 2573              		.loc 1 987 38 discriminator 1
 2574 042e FD17     		addi	a5,a5,-1
 2575              	.LVL303:
 988:C:/Users/stapi/OneDrive/Desktop/GD32VW553/V1_MQTT_OK/GD32VW55X_Wifi_BLE_SDK/GD32VW55x_RELEASE_V1.0.2/MSDK/util/src\debug_print.c ****                         value = ((uint32_t)value) >> 1;
 2576              		.loc 1 988 25 is_stmt 1 discriminator 1
 988:C:/Users/stapi/OneDrive/Desktop/GD32VW553/V1_MQTT_OK/GD32VW55X_Wifi_BLE_SDK/GD32VW55x_RELEASE_V1.0.2/MSDK/util/src\debug_print.c ****                         value = ((uint32_t)value) >> 1;
 2577              		.loc 1 988 46 is_stmt 0 discriminator 1
 2578 0430 93820203 		addi	t0,t0,48
 988:C:/Users/stapi/OneDrive/Desktop/GD32VW553/V1_MQTT_OK/GD32VW55X_Wifi_BLE_SDK/GD32VW55x_RELEASE_V1.0.2/MSDK/util/src\debug_print.c ****                         value = ((uint32_t)value) >> 1;
 2579              		.loc 1 988 40 discriminator 1
 2580 0434 23805700 		sb	t0,0(a5)
 989:C:/Users/stapi/OneDrive/Desktop/GD32VW553/V1_MQTT_OK/GD32VW55X_Wifi_BLE_SDK/GD32VW55x_RELEASE_V1.0.2/MSDK/util/src\debug_print.c ****                         fmt_field_size++;
 2581              		.loc 1 989 25 is_stmt 1 discriminator 1
 989:C:/Users/stapi/OneDrive/Desktop/GD32VW553/V1_MQTT_OK/GD32VW55X_Wifi_BLE_SDK/GD32VW55x_RELEASE_V1.0.2/MSDK/util/src\debug_print.c ****                         fmt_field_size++;
 2582              		.loc 1 989 51 is_stmt 0 discriminator 1
 2583 0438 93D31300 		srli	t2,t2,1
 2584              	.LVL304:
 990:C:/Users/stapi/OneDrive/Desktop/GD32VW553/V1_MQTT_OK/GD32VW55X_Wifi_BLE_SDK/GD32VW55x_RELEASE_V1.0.2/MSDK/util/src\debug_print.c ****                     } while (value != 0);
 2585              		.loc 1 990 25 is_stmt 1 discriminator 1
 990:C:/Users/stapi/OneDrive/Desktop/GD32VW553/V1_MQTT_OK/GD32VW55X_Wifi_BLE_SDK/GD32VW55x_RELEASE_V1.0.2/MSDK/util/src\debug_print.c ****                     } while (value != 0);
 2586              		.loc 1 990 39 is_stmt 0 discriminator 1
 2587 043c 0507     		addi	a4,a4,1
 2588              	.LVL305:
 991:C:/Users/stapi/OneDrive/Desktop/GD32VW553/V1_MQTT_OK/GD32VW55X_Wifi_BLE_SDK/GD32VW55x_RELEASE_V1.0.2/MSDK/util/src\debug_print.c ****                     break;
 2589              		.loc 1 991 29 is_stmt 1 discriminator 1
 991:C:/Users/stapi/OneDrive/Desktop/GD32VW553/V1_MQTT_OK/GD32VW55X_Wifi_BLE_SDK/GD32VW55x_RELEASE_V1.0.2/MSDK/util/src\debug_print.c ****                     break;
 2590              		.loc 1 991 21 is_stmt 0 discriminator 1
 2591 043e E39603FE 		bne	t2,zero,.L216
 2592 0442 3DBD     		j	.L185
 2593              	.LVL306:
 2594              	.L244:
 2595              	.LBB49:
 850:C:/Users/stapi/OneDrive/Desktop/GD32VW553/V1_MQTT_OK/GD32VW55X_Wifi_BLE_SDK/GD32VW55x_RELEASE_V1.0.2/MSDK/util/src\debug_print.c ****                 for (i = 5;;) {
 2596              		.loc 1 850 33
 2597 0444 4547     		li	a4,17
 2598              	.LVL307:
 2599 0446 2DBD     		j	.L185
 2600              	.LVL308:
 2601              	.L246:
 2602              	.LBE49:
 2603 0448 814E     		li	t4,0
 2604 044a 1DBD     		j	.L185
 2605              	.LVL309:
 2606              	.L220:
1010:C:/Users/stapi/OneDrive/Desktop/GD32VW553/V1_MQTT_OK/GD32VW55X_Wifi_BLE_SDK/GD32VW55x_RELEASE_V1.0.2/MSDK/util/src\debug_print.c ****                     field_padding--;
 2607              		.loc 1 1010 21 is_stmt 1
 2608 044c 630A0300 		beq	t1,zero,.L219
1010:C:/Users/stapi/OneDrive/Desktop/GD32VW553/V1_MQTT_OK/GD32VW55X_Wifi_BLE_SDK/GD32VW55x_RELEASE_V1.0.2/MSDK/util/src\debug_print.c ****                     field_padding--;
 2609              		.loc 1 1010 21 is_stmt 0 discriminator 1
 2610 0450 338D7C40 		sub	s10,s9,t2
 2611 0454 6366CD00 		bgtu	a2,s10,.L219
1010:C:/Users/stapi/OneDrive/Desktop/GD32VW553/V1_MQTT_OK/GD32VW55X_Wifi_BLE_SDK/GD32VW55x_RELEASE_V1.0.2/MSDK/util/src\debug_print.c ****                     field_padding--;
 2612              		.loc 1 1010 21 is_stmt 1 discriminator 3
 2613              	.LVL310:
 2614 0458 23809800 		sb	s1,0(a7)
1010:C:/Users/stapi/OneDrive/Desktop/GD32VW553/V1_MQTT_OK/GD32VW55X_Wifi_BLE_SDK/GD32VW55x_RELEASE_V1.0.2/MSDK/util/src\debug_print.c ****                     field_padding--;
 2615              		.loc 1 1010 21 discriminator 3
 2616 045c 7D13     		addi	t1,t1,-1
 2617              	.LVL311:
 2618 045e 8508     		addi	a7,a7,1
 2619              	.LVL312:
 2620              	.L219:
1010:C:/Users/stapi/OneDrive/Desktop/GD32VW553/V1_MQTT_OK/GD32VW55X_Wifi_BLE_SDK/GD32VW55x_RELEASE_V1.0.2/MSDK/util/src\debug_print.c ****                     field_padding--;
 2621              		.loc 1 1010 21 discriminator 5
1011:C:/Users/stapi/OneDrive/Desktop/GD32VW553/V1_MQTT_OK/GD32VW55X_Wifi_BLE_SDK/GD32VW55x_RELEASE_V1.0.2/MSDK/util/src\debug_print.c ****                 }
 2622              		.loc 1 1011 21 discriminator 5
1011:C:/Users/stapi/OneDrive/Desktop/GD32VW553/V1_MQTT_OK/GD32VW55X_Wifi_BLE_SDK/GD32VW55x_RELEASE_V1.0.2/MSDK/util/src\debug_print.c ****                 }
 2623              		.loc 1 1011 34 is_stmt 0 discriminator 5
 2624 0460 FD13     		addi	t2,t2,-1
 2625              	.LVL313:
 2626              	.L217:
1009:C:/Users/stapi/OneDrive/Desktop/GD32VW553/V1_MQTT_OK/GD32VW55X_Wifi_BLE_SDK/GD32VW55x_RELEASE_V1.0.2/MSDK/util/src\debug_print.c ****                     WRITE_CHAR('0');
 2627              		.loc 1 1009 23 is_stmt 1
 2628 0462 E34570FE 		bgt	t2,zero,.L220
 2629              	.LVL314:
 2630              	.L279:
 2631 0466 8143     		li	t2,0
 2632 0468 B3E3720A 		max	t2,t0,t2
 2633 046c B3827240 		sub	t0,t0,t2
 2634 0470 1E95     		add	a0,a0,t2
 2635              	.L223:
1022:C:/Users/stapi/OneDrive/Desktop/GD32VW553/V1_MQTT_OK/GD32VW55X_Wifi_BLE_SDK/GD32VW55x_RELEASE_V1.0.2/MSDK/util/src\debug_print.c ****                 fmt_field_ptr++;
 2636              		.loc 1 1022 17 is_stmt 0
 2637 0472 8143     		li	t2,0
 2638 0474 B1A0     		j	.L227
 2639              	.LVL315:
 2640              	.L278:
1013:C:/Users/stapi/OneDrive/Desktop/GD32VW553/V1_MQTT_OK/GD32VW55X_Wifi_BLE_SDK/GD32VW55x_RELEASE_V1.0.2/MSDK/util/src\debug_print.c ****                 while (field_padding > 0) {
 2641              		.loc 1 1013 20 is_stmt 1
1013:C:/Users/stapi/OneDrive/Desktop/GD32VW553/V1_MQTT_OK/GD32VW55X_Wifi_BLE_SDK/GD32VW55x_RELEASE_V1.0.2/MSDK/util/src\debug_print.c ****                 while (field_padding > 0) {
 2642              		.loc 1 1013 23 is_stmt 0
 2643 0476 93F30302 		andi	t2,t2,32
 2644 047a E39C03FE 		bne	t2,zero,.L223
1004:C:/Users/stapi/OneDrive/Desktop/GD32VW553/V1_MQTT_OK/GD32VW55X_Wifi_BLE_SDK/GD32VW55x_RELEASE_V1.0.2/MSDK/util/src\debug_print.c **** 
 2645              		.loc 1 1004 27
 2646 047e 9683     		mv	t2,t0
 2647 0480 B38CA200 		add	s9,t0,a0
 2648 0484 21A8     		j	.L222
 2649              	.LVL316:
 2650              	.L225:
1015:C:/Users/stapi/OneDrive/Desktop/GD32VW553/V1_MQTT_OK/GD32VW55X_Wifi_BLE_SDK/GD32VW55x_RELEASE_V1.0.2/MSDK/util/src\debug_print.c ****                     field_padding--;
 2651              		.loc 1 1015 21 is_stmt 1
 2652 0486 630A0300 		beq	t1,zero,.L224
1015:C:/Users/stapi/OneDrive/Desktop/GD32VW553/V1_MQTT_OK/GD32VW55X_Wifi_BLE_SDK/GD32VW55x_RELEASE_V1.0.2/MSDK/util/src\debug_print.c ****                     field_padding--;
 2653              		.loc 1 1015 21 is_stmt 0 discriminator 1
 2654 048a 338D7C40 		sub	s10,s9,t2
 2655 048e 6366CD00 		bgtu	a2,s10,.L224
1015:C:/Users/stapi/OneDrive/Desktop/GD32VW553/V1_MQTT_OK/GD32VW55X_Wifi_BLE_SDK/GD32VW55x_RELEASE_V1.0.2/MSDK/util/src\debug_print.c ****                     field_padding--;
 2656              		.loc 1 1015 21 is_stmt 1 discriminator 3
 2657              	.LVL317:
 2658 0492 23808800 		sb	s0,0(a7)
1015:C:/Users/stapi/OneDrive/Desktop/GD32VW553/V1_MQTT_OK/GD32VW55X_Wifi_BLE_SDK/GD32VW55x_RELEASE_V1.0.2/MSDK/util/src\debug_print.c ****                     field_padding--;
 2659              		.loc 1 1015 21 discriminator 3
 2660 0496 7D13     		addi	t1,t1,-1
 2661              	.LVL318:
 2662 0498 8508     		addi	a7,a7,1
 2663              	.LVL319:
 2664              	.L224:
1015:C:/Users/stapi/OneDrive/Desktop/GD32VW553/V1_MQTT_OK/GD32VW55X_Wifi_BLE_SDK/GD32VW55x_RELEASE_V1.0.2/MSDK/util/src\debug_print.c ****                     field_padding--;
 2665              		.loc 1 1015 21 discriminator 5
1016:C:/Users/stapi/OneDrive/Desktop/GD32VW553/V1_MQTT_OK/GD32VW55X_Wifi_BLE_SDK/GD32VW55x_RELEASE_V1.0.2/MSDK/util/src\debug_print.c ****                 }
 2666              		.loc 1 1016 21 discriminator 5
1016:C:/Users/stapi/OneDrive/Desktop/GD32VW553/V1_MQTT_OK/GD32VW55X_Wifi_BLE_SDK/GD32VW55x_RELEASE_V1.0.2/MSDK/util/src\debug_print.c ****                 }
 2667              		.loc 1 1016 34 is_stmt 0 discriminator 5
 2668 049a FD13     		addi	t2,t2,-1
 2669              	.LVL320:
 2670              	.L222:
1014:C:/Users/stapi/OneDrive/Desktop/GD32VW553/V1_MQTT_OK/GD32VW55X_Wifi_BLE_SDK/GD32VW55x_RELEASE_V1.0.2/MSDK/util/src\debug_print.c ****                     WRITE_CHAR(' ');
 2671              		.loc 1 1014 23 is_stmt 1
 2672 049c E34570FE 		bgt	t2,zero,.L225
 2673 04a0 D9B7     		j	.L279
 2674              	.LVL321:
 2675              	.L228:
1022:C:/Users/stapi/OneDrive/Desktop/GD32VW553/V1_MQTT_OK/GD32VW55X_Wifi_BLE_SDK/GD32VW55x_RELEASE_V1.0.2/MSDK/util/src\debug_print.c ****                 fmt_field_ptr++;
 2676              		.loc 1 1022 17
 2677 04a2 630E0300 		beq	t1,zero,.L226
1022:C:/Users/stapi/OneDrive/Desktop/GD32VW553/V1_MQTT_OK/GD32VW55X_Wifi_BLE_SDK/GD32VW55x_RELEASE_V1.0.2/MSDK/util/src\debug_print.c ****                 fmt_field_ptr++;
 2678              		.loc 1 1022 17 is_stmt 0 discriminator 1
 2679 04a6 B30C7500 		add	s9,a0,t2
 2680 04aa 63EACC00 		bgtu	a2,s9,.L226
1022:C:/Users/stapi/OneDrive/Desktop/GD32VW553/V1_MQTT_OK/GD32VW55X_Wifi_BLE_SDK/GD32VW55x_RELEASE_V1.0.2/MSDK/util/src\debug_print.c ****                 fmt_field_ptr++;
 2681              		.loc 1 1022 17 is_stmt 1 discriminator 3
 2682              	.LVL322:
 2683 04ae B38C7700 		add	s9,a5,t2
 2684 04b2 838C0C00 		lb	s9,0(s9)
 2685 04b6 7D13     		addi	t1,t1,-1
 2686              	.LVL323:
 2687 04b8 23809801 		sb	s9,0(a7)
1022:C:/Users/stapi/OneDrive/Desktop/GD32VW553/V1_MQTT_OK/GD32VW55X_Wifi_BLE_SDK/GD32VW55x_RELEASE_V1.0.2/MSDK/util/src\debug_print.c ****                 fmt_field_ptr++;
 2688              		.loc 1 1022 17 discriminator 3
 2689              	.LVL324:
 2690 04bc 8508     		addi	a7,a7,1
 2691              	.LVL325:
 2692              	.L226:
1022:C:/Users/stapi/OneDrive/Desktop/GD32VW553/V1_MQTT_OK/GD32VW55X_Wifi_BLE_SDK/GD32VW55x_RELEASE_V1.0.2/MSDK/util/src\debug_print.c ****                 fmt_field_ptr++;
 2693              		.loc 1 1022 17 discriminator 5
1023:C:/Users/stapi/OneDrive/Desktop/GD32VW553/V1_MQTT_OK/GD32VW55X_Wifi_BLE_SDK/GD32VW55x_RELEASE_V1.0.2/MSDK/util/src\debug_print.c ****                 fmt_field_size--;
 2694              		.loc 1 1023 17 discriminator 5
1024:C:/Users/stapi/OneDrive/Desktop/GD32VW553/V1_MQTT_OK/GD32VW55X_Wifi_BLE_SDK/GD32VW55x_RELEASE_V1.0.2/MSDK/util/src\debug_print.c ****             }
 2695              		.loc 1 1024 17 discriminator 5
 2696 04be 8503     		addi	t2,t2,1
 2697              	.LVL326:
 2698              	.L227:
1021:C:/Users/stapi/OneDrive/Desktop/GD32VW553/V1_MQTT_OK/GD32VW55X_Wifi_BLE_SDK/GD32VW55x_RELEASE_V1.0.2/MSDK/util/src\debug_print.c ****                 WRITE_CHAR(*fmt_field_ptr);
 2699              		.loc 1 1021 19
 2700 04c0 E31177FE 		bne	a4,t2,.L228
 2701 04c4 3A95     		add	a0,a0,a4
 2702              	.LVL327:
 2703 04c6 BA97     		add	a5,a5,a4
 2704              	.LVL328:
 2705 04c8 9683     		mv	t2,t0
 2706 04ca 3387A200 		add	a4,t0,a0
 2707              	.LVL329:
 2708              	.L229:
1028:C:/Users/stapi/OneDrive/Desktop/GD32VW553/V1_MQTT_OK/GD32VW55X_Wifi_BLE_SDK/GD32VW55x_RELEASE_V1.0.2/MSDK/util/src\debug_print.c ****                 WRITE_CHAR(' ');
 2709              		.loc 1 1028 19
 2710 04ce 63497000 		bgt	t2,zero,.L231
 2711 04d2 0147     		li	a4,0
 2712 04d4 B3E2E20A 		max	t0,t0,a4
 2713              	.LVL330:
 2714 04d8 7A87     		mv	a4,t5
 2715 04da 1695     		add	a0,t0,a0
 2716 04dc 1D4F     		li	t5,7
 2717              	.LVL331:
 2718 04de 49BE     		j	.L151
 2719              	.LVL332:
 2720              	.L231:
1029:C:/Users/stapi/OneDrive/Desktop/GD32VW553/V1_MQTT_OK/GD32VW55X_Wifi_BLE_SDK/GD32VW55x_RELEASE_V1.0.2/MSDK/util/src\debug_print.c ****                 field_padding--;
 2721              		.loc 1 1029 17
 2722 04e0 630A0300 		beq	t1,zero,.L230
1029:C:/Users/stapi/OneDrive/Desktop/GD32VW553/V1_MQTT_OK/GD32VW55X_Wifi_BLE_SDK/GD32VW55x_RELEASE_V1.0.2/MSDK/util/src\debug_print.c ****                 field_padding--;
 2723              		.loc 1 1029 17 is_stmt 0 discriminator 1
 2724 04e4 B30C7740 		sub	s9,a4,t2
 2725 04e8 63E6CC00 		bgtu	a2,s9,.L230
1029:C:/Users/stapi/OneDrive/Desktop/GD32VW553/V1_MQTT_OK/GD32VW55X_Wifi_BLE_SDK/GD32VW55x_RELEASE_V1.0.2/MSDK/util/src\debug_print.c ****                 field_padding--;
 2726              		.loc 1 1029 17 is_stmt 1 discriminator 3
 2727              	.LVL333:
 2728 04ec 23808800 		sb	s0,0(a7)
1029:C:/Users/stapi/OneDrive/Desktop/GD32VW553/V1_MQTT_OK/GD32VW55X_Wifi_BLE_SDK/GD32VW55x_RELEASE_V1.0.2/MSDK/util/src\debug_print.c ****                 field_padding--;
 2729              		.loc 1 1029 17 discriminator 3
 2730 04f0 7D13     		addi	t1,t1,-1
 2731              	.LVL334:
 2732 04f2 8508     		addi	a7,a7,1
 2733              	.LVL335:
 2734              	.L230:
1029:C:/Users/stapi/OneDrive/Desktop/GD32VW553/V1_MQTT_OK/GD32VW55X_Wifi_BLE_SDK/GD32VW55x_RELEASE_V1.0.2/MSDK/util/src\debug_print.c ****                 field_padding--;
 2735              		.loc 1 1029 17 discriminator 5
1030:C:/Users/stapi/OneDrive/Desktop/GD32VW553/V1_MQTT_OK/GD32VW55X_Wifi_BLE_SDK/GD32VW55x_RELEASE_V1.0.2/MSDK/util/src\debug_print.c ****             }
 2736              		.loc 1 1030 17 discriminator 5
1030:C:/Users/stapi/OneDrive/Desktop/GD32VW553/V1_MQTT_OK/GD32VW55X_Wifi_BLE_SDK/GD32VW55x_RELEASE_V1.0.2/MSDK/util/src\debug_print.c ****             }
 2737              		.loc 1 1030 30 is_stmt 0 discriminator 5
 2738 04f4 FD13     		addi	t2,t2,-1
 2739              	.LVL336:
 2740 04f6 E1BF     		j	.L229
 2741              	.LVL337:
 2742              	.L239:
 774:C:/Users/stapi/OneDrive/Desktop/GD32VW553/V1_MQTT_OK/GD32VW55X_Wifi_BLE_SDK/GD32VW55x_RELEASE_V1.0.2/MSDK/util/src\debug_print.c ****             break;
 2743              		.loc 1 774 29
 2744 04f8 014E     		li	t3,0
 2745              	.LVL338:
 722:C:/Users/stapi/OneDrive/Desktop/GD32VW553/V1_MQTT_OK/GD32VW55X_Wifi_BLE_SDK/GD32VW55x_RELEASE_V1.0.2/MSDK/util/src\debug_print.c **** 
 2746              		.loc 1 722 57
 2747 04fa 114F     		li	t5,4
 2748              	.LVL339:
 2749 04fc 95BE     		j	.L151
 2750              	.LVL340:
 2751              	.L233:
1044:C:/Users/stapi/OneDrive/Desktop/GD32VW553/V1_MQTT_OK/GD32VW55X_Wifi_BLE_SDK/GD32VW55x_RELEASE_V1.0.2/MSDK/util/src\debug_print.c ****         buffer[-1] = '\0';
 2752              		.loc 1 1044 12 is_stmt 1
1044:C:/Users/stapi/OneDrive/Desktop/GD32VW553/V1_MQTT_OK/GD32VW55X_Wifi_BLE_SDK/GD32VW55x_RELEASE_V1.0.2/MSDK/util/src\debug_print.c ****         buffer[-1] = '\0';
 2753              		.loc 1 1044 15 is_stmt 0
 2754 04fe E38205B8 		beq	a1,zero,.L149
1045:C:/Users/stapi/OneDrive/Desktop/GD32VW553/V1_MQTT_OK/GD32VW55X_Wifi_BLE_SDK/GD32VW55x_RELEASE_V1.0.2/MSDK/util/src\debug_print.c ****     }
 2755              		.loc 1 1045 9 is_stmt 1
1045:C:/Users/stapi/OneDrive/Desktop/GD32VW553/V1_MQTT_OK/GD32VW55X_Wifi_BLE_SDK/GD32VW55x_RELEASE_V1.0.2/MSDK/util/src\debug_print.c ****     }
 2756              		.loc 1 1045 20 is_stmt 0
 2757 0502 A38F08FE 		sb	zero,-1(a7)
1048:C:/Users/stapi/OneDrive/Desktop/GD32VW553/V1_MQTT_OK/GD32VW55X_Wifi_BLE_SDK/GD32VW55x_RELEASE_V1.0.2/MSDK/util/src\debug_print.c **** }
 2758              		.loc 1 1048 5 is_stmt 1
1048:C:/Users/stapi/OneDrive/Desktop/GD32VW553/V1_MQTT_OK/GD32VW55X_Wifi_BLE_SDK/GD32VW55x_RELEASE_V1.0.2/MSDK/util/src\debug_print.c **** }
 2759              		.loc 1 1048 12 is_stmt 0
 2760 0506 B5BE     		j	.L149
 2761              		.cfi_endproc
 2762              	.LFE377:
 2764              		.section	.text.dbg_snprintf,"ax",@progbits
 2765              		.align	1
 2766              		.globl	dbg_snprintf
 2768              	dbg_snprintf:
 2769              	.LFB378:
1050:C:/Users/stapi/OneDrive/Desktop/GD32VW553/V1_MQTT_OK/GD32VW55X_Wifi_BLE_SDK/GD32VW55x_RELEASE_V1.0.2/MSDK/util/src\debug_print.c **** 
1051:C:/Users/stapi/OneDrive/Desktop/GD32VW553/V1_MQTT_OK/GD32VW55X_Wifi_BLE_SDK/GD32VW55x_RELEASE_V1.0.2/MSDK/util/src\debug_print.c **** uint32_t dbg_snprintf(char *buffer, uint32_t size, const char *fmt, ...)
1052:C:/Users/stapi/OneDrive/Desktop/GD32VW553/V1_MQTT_OK/GD32VW55X_Wifi_BLE_SDK/GD32VW55x_RELEASE_V1.0.2/MSDK/util/src\debug_print.c **** {
 2770              		.loc 1 1052 1 is_stmt 1
 2771              		.cfi_startproc
 2772              	.LVL341:
1053:C:/Users/stapi/OneDrive/Desktop/GD32VW553/V1_MQTT_OK/GD32VW55X_Wifi_BLE_SDK/GD32VW55x_RELEASE_V1.0.2/MSDK/util/src\debug_print.c ****     uint32_t ret;
 2773              		.loc 1 1053 5
1054:C:/Users/stapi/OneDrive/Desktop/GD32VW553/V1_MQTT_OK/GD32VW55X_Wifi_BLE_SDK/GD32VW55x_RELEASE_V1.0.2/MSDK/util/src\debug_print.c ****     const char *fmt_usr = (const char *)fmt;
 2774              		.loc 1 1054 5
1055:C:/Users/stapi/OneDrive/Desktop/GD32VW553/V1_MQTT_OK/GD32VW55X_Wifi_BLE_SDK/GD32VW55x_RELEASE_V1.0.2/MSDK/util/src\debug_print.c **** 
1056:C:/Users/stapi/OneDrive/Desktop/GD32VW553/V1_MQTT_OK/GD32VW55X_Wifi_BLE_SDK/GD32VW55x_RELEASE_V1.0.2/MSDK/util/src\debug_print.c ****     // print
1057:C:/Users/stapi/OneDrive/Desktop/GD32VW553/V1_MQTT_OK/GD32VW55X_Wifi_BLE_SDK/GD32VW55x_RELEASE_V1.0.2/MSDK/util/src\debug_print.c ****     va_list args;
 2775              		.loc 1 1057 5
1058:C:/Users/stapi/OneDrive/Desktop/GD32VW553/V1_MQTT_OK/GD32VW55X_Wifi_BLE_SDK/GD32VW55x_RELEASE_V1.0.2/MSDK/util/src\debug_print.c ****     va_start(args, fmt);
 2776              		.loc 1 1058 5
1052:C:/Users/stapi/OneDrive/Desktop/GD32VW553/V1_MQTT_OK/GD32VW55X_Wifi_BLE_SDK/GD32VW55x_RELEASE_V1.0.2/MSDK/util/src\debug_print.c ****     uint32_t ret;
 2777              		.loc 1 1052 1 is_stmt 0
 2778 0000 3971     		addi	sp,sp,-64
 2779              		.cfi_def_cfa_offset 64
 2780 0002 36D6     		sw	a3,44(sp)
 2781 0004 3AD8     		sw	a4,48(sp)
1059:C:/Users/stapi/OneDrive/Desktop/GD32VW553/V1_MQTT_OK/GD32VW55X_Wifi_BLE_SDK/GD32VW55x_RELEASE_V1.0.2/MSDK/util/src\debug_print.c ****     ret = dbg_vsnprintf(buffer, size, fmt_usr, args);
 2782              		.loc 1 1059 11
 2783 0006 B286     		mv	a3,a2
1058:C:/Users/stapi/OneDrive/Desktop/GD32VW553/V1_MQTT_OK/GD32VW55X_Wifi_BLE_SDK/GD32VW55x_RELEASE_V1.0.2/MSDK/util/src\debug_print.c ****     va_start(args, fmt);
 2784              		.loc 1 1058 5
 2785 0008 7810     		addi	a4,sp,44
 2786              		.loc 1 1059 11
 2787 000a 0146     		li	a2,0
 2788              	.LVL342:
1052:C:/Users/stapi/OneDrive/Desktop/GD32VW553/V1_MQTT_OK/GD32VW55X_Wifi_BLE_SDK/GD32VW55x_RELEASE_V1.0.2/MSDK/util/src\debug_print.c ****     uint32_t ret;
 2789              		.loc 1 1052 1
 2790 000c 06CE     		sw	ra,28(sp)
 2791              		.cfi_offset 1, -36
1052:C:/Users/stapi/OneDrive/Desktop/GD32VW553/V1_MQTT_OK/GD32VW55X_Wifi_BLE_SDK/GD32VW55x_RELEASE_V1.0.2/MSDK/util/src\debug_print.c ****     uint32_t ret;
 2792              		.loc 1 1052 1
 2793 000e 3EDA     		sw	a5,52(sp)
 2794 0010 42DC     		sw	a6,56(sp)
 2795 0012 46DE     		sw	a7,60(sp)
1058:C:/Users/stapi/OneDrive/Desktop/GD32VW553/V1_MQTT_OK/GD32VW55X_Wifi_BLE_SDK/GD32VW55x_RELEASE_V1.0.2/MSDK/util/src\debug_print.c ****     va_start(args, fmt);
 2796              		.loc 1 1058 5
 2797 0014 3AC6     		sw	a4,12(sp)
 2798              		.loc 1 1059 5 is_stmt 1
 2799              		.loc 1 1059 11 is_stmt 0
 2800 0016 97000000 		call	dbg_vsnprintf_offset
 2800      E7800000 
 2801              	.LVL343:
1060:C:/Users/stapi/OneDrive/Desktop/GD32VW553/V1_MQTT_OK/GD32VW55X_Wifi_BLE_SDK/GD32VW55x_RELEASE_V1.0.2/MSDK/util/src\debug_print.c ****     va_end(args);
 2802              		.loc 1 1060 5 is_stmt 1
1061:C:/Users/stapi/OneDrive/Desktop/GD32VW553/V1_MQTT_OK/GD32VW55X_Wifi_BLE_SDK/GD32VW55x_RELEASE_V1.0.2/MSDK/util/src\debug_print.c **** 
1062:C:/Users/stapi/OneDrive/Desktop/GD32VW553/V1_MQTT_OK/GD32VW55X_Wifi_BLE_SDK/GD32VW55x_RELEASE_V1.0.2/MSDK/util/src\debug_print.c ****     return ret;
 2803              		.loc 1 1062 5
1063:C:/Users/stapi/OneDrive/Desktop/GD32VW553/V1_MQTT_OK/GD32VW55X_Wifi_BLE_SDK/GD32VW55x_RELEASE_V1.0.2/MSDK/util/src\debug_print.c **** }
 2804              		.loc 1 1063 1 is_stmt 0
 2805 001e F240     		lw	ra,28(sp)
 2806              		.cfi_restore 1
 2807 0020 2161     		addi	sp,sp,64
 2808              		.cfi_def_cfa_offset 0
 2809 0022 8280     		jr	ra
 2810              		.cfi_endproc
 2811              	.LFE378:
 2813              		.section	.rodata.hex_upper_table,"a"
 2814              		.align	2
 2815              		.set	.LANCHOR1,. + 0
 2818              	hex_upper_table:
 2819 0000 30313233 		.string	"0123456789ABCDEF"
 2819      34353637 
 2819      38394142 
 2819      43444546 
 2819      00
 2820              		.section	.rodata.transition_table,"a"
 2821              		.align	2
 2822              		.set	.LANCHOR0,. + 0
 2825              	transition_table:
 2826 0000 00       		.string	""
 2827 0001 0100     		.string	"\001"
 2828 0003 00       		.string	""
 2829 0004 00       		.string	""
 2830 0005 00       		.string	""
 2831 0006 00       		.string	""
 2832 0007 00       		.string	""
 2833 0008 00       		.string	""
 2834 0009 00       		.string	""
 2835 000a 04020302 		.ascii	"\004\002\003\002\006\007"
 2835      0607
 2836 0010 00       		.string	""
 2837 0011 00       		.string	""
 2838 0012 04020302 		.ascii	"\004\002\003\002\006\007"
 2838      0607
 2839 0018 00       		.string	""
 2840 0019 00       		.string	""
 2841 001a 04030300 		.string	"\004\003\003"
 2842 001e 0607     		.ascii	"\006\007"
 2843 0020 00       		.string	""
 2844 0021 00       		.string	""
 2845 0022 00       		.string	""
 2846 0023 050500   		.string	"\005\005"
 2847 0026 0607     		.ascii	"\006\007"
 2848 0028 00       		.string	""
 2849 0029 00       		.string	""
 2850 002a 00       		.string	""
 2851 002b 050500   		.string	"\005\005"
 2852 002e 0607     		.ascii	"\006\007"
 2853 0030 00       		.string	""
 2854 0031 00       		.string	""
 2855 0032 00       		.string	""
 2856 0033 00       		.string	""
 2857 0034 00       		.string	""
 2858 0035 00       		.string	""
 2859 0036 00       		.string	""
 2860 0037 07       		.ascii	"\007"
 2861 0038 00       		.string	""
 2862 0039 0100     		.string	"\001"
 2863 003b 00       		.string	""
 2864 003c 00       		.string	""
 2865 003d 00       		.string	""
 2866 003e 00       		.string	""
 2867 003f 00       		.string	""
 2868              		.text
 2869              	.Letext0:
 2870              		.file 3 "c:\\users\\stapi\\onedrive\\desktop\\gd32vw553\\embeddedbuilder_v1.4.7.26843\\tools\\nucl
 2871              		.file 4 "c:\\users\\stapi\\onedrive\\desktop\\gd32vw553\\embeddedbuilder_v1.4.7.26843\\tools\\nucl
 2872              		.file 5 "c:\\users\\stapi\\onedrive\\desktop\\gd32vw553\\embeddedbuilder_v1.4.7.26843\\tools\\nucl
 2873              		.file 6 "..\\..\\..\\..\\rtos\\rtos_wrapper/wrapper_os.h"
 2874              		.file 7 "c:\\users\\stapi\\onedrive\\desktop\\gd32vw553\\embeddedbuilder_v1.4.7.26843\\tools\\nucl
 2875              		.file 8 "..\\..\\..\\..\\plf\\src\\uart/log_uart.h"
 2876              		.file 9 "..\\..\\..\\..\\plf\\src\\uart/uart.h"
DEFINED SYMBOLS
                            *ABS*:0000000000000000 debug_print.c
C:\Users\stapi\AppData\Local\Temp\ccde7Qmv.s:12     .text.printchar:0000000000000000 printchar
C:\Users\stapi\AppData\Local\Temp\ccde7Qmv.s:16     .text.printchar:0000000000000000 .L0 
C:\Users\stapi\AppData\Local\Temp\ccde7Qmv.s:18     .text.printchar:0000000000000000 .L0 
C:\Users\stapi\AppData\Local\Temp\ccde7Qmv.s:19     .text.printchar:0000000000000008 .L0 
C:\Users\stapi\AppData\Local\Temp\ccde7Qmv.s:20     .text.printchar:0000000000000008 .L0 
C:\Users\stapi\AppData\Local\Temp\ccde7Qmv.s:22     .text.printchar:0000000000000008 .L0 
C:\Users\stapi\AppData\Local\Temp\ccde7Qmv.s:23     .text.printchar:0000000000000008 .L0 
C:\Users\stapi\AppData\Local\Temp\ccde7Qmv.s:25     .text.printchar:000000000000000a .L0 
C:\Users\stapi\AppData\Local\Temp\ccde7Qmv.s:31     .text.printchar:0000000000000016 .L0 
C:\Users\stapi\AppData\Local\Temp\ccde7Qmv.s:32     .text.printchar:000000000000001e .L0 
C:\Users\stapi\AppData\Local\Temp\ccde7Qmv.s:33     .text.printchar:000000000000001e .L0 
C:\Users\stapi\AppData\Local\Temp\ccde7Qmv.s:34     .text.printchar:000000000000001e .L0 
C:\Users\stapi\AppData\Local\Temp\ccde7Qmv.s:37     .text.printchar:000000000000001e .L0 
C:\Users\stapi\AppData\Local\Temp\ccde7Qmv.s:39     .text.printchar:000000000000001e .L0 
C:\Users\stapi\AppData\Local\Temp\ccde7Qmv.s:40     .text.printchar:000000000000001e .L0 
C:\Users\stapi\AppData\Local\Temp\ccde7Qmv.s:44     .text.printchar:000000000000002a .L0 
C:\Users\stapi\AppData\Local\Temp\ccde7Qmv.s:45     .text.printchar:000000000000002a .L0 
C:\Users\stapi\AppData\Local\Temp\ccde7Qmv.s:51     .text.printchar:0000000000000030 .L0 
C:\Users\stapi\AppData\Local\Temp\ccde7Qmv.s:52     .text.printchar:0000000000000030 .L0 
C:\Users\stapi\AppData\Local\Temp\ccde7Qmv.s:54     .text.printchar:0000000000000032 .L0 
C:\Users\stapi\AppData\Local\Temp\ccde7Qmv.s:56     .text.printchar:0000000000000036 .L0 
C:\Users\stapi\AppData\Local\Temp\ccde7Qmv.s:60     .text.printchar:000000000000003c .L0 
C:\Users\stapi\AppData\Local\Temp\ccde7Qmv.s:61     .text.printchar:000000000000003c .L0 
C:\Users\stapi\AppData\Local\Temp\ccde7Qmv.s:65     .text.printchar:0000000000000042 .L0 
C:\Users\stapi\AppData\Local\Temp\ccde7Qmv.s:72     .text.printchar:0000000000000044 .L0 
C:\Users\stapi\AppData\Local\Temp\ccde7Qmv.s:73     .text.printchar:0000000000000044 .L0 
C:\Users\stapi\AppData\Local\Temp\ccde7Qmv.s:74     .text.printchar:0000000000000044 .L0 
C:\Users\stapi\AppData\Local\Temp\ccde7Qmv.s:78     .text.printchar:0000000000000050 .L0 
C:\Users\stapi\AppData\Local\Temp\ccde7Qmv.s:81     .text.printchar:0000000000000058 .L0 
C:\Users\stapi\AppData\Local\Temp\ccde7Qmv.s:85     .text.printchar:0000000000000060 .L0 
C:\Users\stapi\AppData\Local\Temp\ccde7Qmv.s:91     .text.printchar:000000000000006c .L0 
C:\Users\stapi\AppData\Local\Temp\ccde7Qmv.s:92     .text.printchar:000000000000006e .L0 
C:\Users\stapi\AppData\Local\Temp\ccde7Qmv.s:98     .text.prints:0000000000000000 prints
C:\Users\stapi\AppData\Local\Temp\ccde7Qmv.s:101    .text.prints:0000000000000000 .L0 
C:\Users\stapi\AppData\Local\Temp\ccde7Qmv.s:103    .text.prints:0000000000000000 .L0 
C:\Users\stapi\AppData\Local\Temp\ccde7Qmv.s:104    .text.prints:0000000000000008 .L0 
C:\Users\stapi\AppData\Local\Temp\ccde7Qmv.s:105    .text.prints:0000000000000008 .L0 
C:\Users\stapi\AppData\Local\Temp\ccde7Qmv.s:106    .text.prints:0000000000000008 .L0 
C:\Users\stapi\AppData\Local\Temp\ccde7Qmv.s:107    .text.prints:0000000000000008 .L0 
C:\Users\stapi\AppData\Local\Temp\ccde7Qmv.s:108    .text.prints:0000000000000008 .L0 
C:\Users\stapi\AppData\Local\Temp\ccde7Qmv.s:109    .text.prints:0000000000000008 .L0 
C:\Users\stapi\AppData\Local\Temp\ccde7Qmv.s:110    .text.prints:0000000000000008 .L0 
C:\Users\stapi\AppData\Local\Temp\ccde7Qmv.s:111    .text.prints:0000000000000008 .L0 
C:\Users\stapi\AppData\Local\Temp\ccde7Qmv.s:112    .text.prints:0000000000000008 .L0 
C:\Users\stapi\AppData\Local\Temp\ccde7Qmv.s:115    .text.prints:0000000000000008 .L0 
C:\Users\stapi\AppData\Local\Temp\ccde7Qmv.s:116    .text.prints:0000000000000008 .L0 
C:\Users\stapi\AppData\Local\Temp\ccde7Qmv.s:117    .text.prints:0000000000000008 .L0 
C:\Users\stapi\AppData\Local\Temp\ccde7Qmv.s:122    .text.prints:0000000000000010 .L0 
C:\Users\stapi\AppData\Local\Temp\ccde7Qmv.s:124    .text.prints:0000000000000014 .L0 
C:\Users\stapi\AppData\Local\Temp\ccde7Qmv.s:131    .text.prints:000000000000001c .L0 
C:\Users\stapi\AppData\Local\Temp\ccde7Qmv.s:135    .text.prints:000000000000001e .L0 
C:\Users\stapi\AppData\Local\Temp\ccde7Qmv.s:136    .text.prints:000000000000001e .L0 
C:\Users\stapi\AppData\Local\Temp\ccde7Qmv.s:139    .text.prints:0000000000000022 .L0 
C:\Users\stapi\AppData\Local\Temp\ccde7Qmv.s:143    .text.prints:0000000000000028 .L0 
C:\Users\stapi\AppData\Local\Temp\ccde7Qmv.s:144    .text.prints:0000000000000028 .L0 
C:\Users\stapi\AppData\Local\Temp\ccde7Qmv.s:146    .text.prints:000000000000002c .L0 
C:\Users\stapi\AppData\Local\Temp\ccde7Qmv.s:147    .text.prints:000000000000002c .L0 
C:\Users\stapi\AppData\Local\Temp\ccde7Qmv.s:151    .text.prints:000000000000002e .L0 
C:\Users\stapi\AppData\Local\Temp\ccde7Qmv.s:152    .text.prints:000000000000002e .L0 
C:\Users\stapi\AppData\Local\Temp\ccde7Qmv.s:156    .text.prints:0000000000000032 .L0 
C:\Users\stapi\AppData\Local\Temp\ccde7Qmv.s:159    .text.prints:0000000000000036 .L0 
C:\Users\stapi\AppData\Local\Temp\ccde7Qmv.s:161    .text.prints:0000000000000038 .L0 
C:\Users\stapi\AppData\Local\Temp\ccde7Qmv.s:166    .text.prints:000000000000003c .L0 
C:\Users\stapi\AppData\Local\Temp\ccde7Qmv.s:167    .text.prints:000000000000003c .L0 
C:\Users\stapi\AppData\Local\Temp\ccde7Qmv.s:170    .text.prints:000000000000003e .L0 
C:\Users\stapi\AppData\Local\Temp\ccde7Qmv.s:172    .text.prints:0000000000000040 .L0 
C:\Users\stapi\AppData\Local\Temp\ccde7Qmv.s:179    .text.prints:0000000000000046 .L0 
C:\Users\stapi\AppData\Local\Temp\ccde7Qmv.s:186    .text.prints:000000000000004a .L0 
C:\Users\stapi\AppData\Local\Temp\ccde7Qmv.s:192    .text.prints:0000000000000058 .L0 
C:\Users\stapi\AppData\Local\Temp\ccde7Qmv.s:193    .text.prints:0000000000000058 .L0 
C:\Users\stapi\AppData\Local\Temp\ccde7Qmv.s:197    .text.prints:000000000000005a .L0 
C:\Users\stapi\AppData\Local\Temp\ccde7Qmv.s:198    .text.prints:000000000000005a .L0 
C:\Users\stapi\AppData\Local\Temp\ccde7Qmv.s:205    .text.prints:0000000000000066 .L0 
C:\Users\stapi\AppData\Local\Temp\ccde7Qmv.s:210    .text.prints:000000000000006a .L0 
C:\Users\stapi\AppData\Local\Temp\ccde7Qmv.s:215    .text.prints:0000000000000076 .L0 
C:\Users\stapi\AppData\Local\Temp\ccde7Qmv.s:219    .text.prints:0000000000000078 .L0 
C:\Users\stapi\AppData\Local\Temp\ccde7Qmv.s:220    .text.prints:0000000000000078 .L0 
C:\Users\stapi\AppData\Local\Temp\ccde7Qmv.s:224    .text.prints:0000000000000082 .L0 
C:\Users\stapi\AppData\Local\Temp\ccde7Qmv.s:229    .text.prints:0000000000000086 .L0 
C:\Users\stapi\AppData\Local\Temp\ccde7Qmv.s:230    .text.prints:0000000000000086 .L0 
C:\Users\stapi\AppData\Local\Temp\ccde7Qmv.s:232    .text.prints:000000000000008a .L0 
C:\Users\stapi\AppData\Local\Temp\ccde7Qmv.s:233    .text.prints:000000000000008a .L0 
C:\Users\stapi\AppData\Local\Temp\ccde7Qmv.s:236    .text.prints:0000000000000090 .L0 
C:\Users\stapi\AppData\Local\Temp\ccde7Qmv.s:238    .text.prints:000000000000009a .L0 
C:\Users\stapi\AppData\Local\Temp\ccde7Qmv.s:239    .text.prints:000000000000009a .L0 
C:\Users\stapi\AppData\Local\Temp\ccde7Qmv.s:240    .text.prints:000000000000009a .L0 
C:\Users\stapi\AppData\Local\Temp\ccde7Qmv.s:241    .text.prints:000000000000009a .L0 
C:\Users\stapi\AppData\Local\Temp\ccde7Qmv.s:242    .text.prints:000000000000009a .L0 
C:\Users\stapi\AppData\Local\Temp\ccde7Qmv.s:243    .text.prints:000000000000009a .L0 
C:\Users\stapi\AppData\Local\Temp\ccde7Qmv.s:244    .text.prints:000000000000009a .L0 
C:\Users\stapi\AppData\Local\Temp\ccde7Qmv.s:245    .text.prints:000000000000009a .L0 
C:\Users\stapi\AppData\Local\Temp\ccde7Qmv.s:246    .text.prints:000000000000009a .L0 
C:\Users\stapi\AppData\Local\Temp\ccde7Qmv.s:247    .text.prints:000000000000009a .L0 
C:\Users\stapi\AppData\Local\Temp\ccde7Qmv.s:249    .text.prints:000000000000009a .L0 
C:\Users\stapi\AppData\Local\Temp\ccde7Qmv.s:251    .text.prints:000000000000009a .L0 
C:\Users\stapi\AppData\Local\Temp\ccde7Qmv.s:257    .text.prints:00000000000000a8 .L0 
C:\Users\stapi\AppData\Local\Temp\ccde7Qmv.s:258    .text.prints:00000000000000a8 .L0 
C:\Users\stapi\AppData\Local\Temp\ccde7Qmv.s:261    .text.prints:00000000000000ac .L0 
C:\Users\stapi\AppData\Local\Temp\ccde7Qmv.s:267    .text.printi:0000000000000000 printi
C:\Users\stapi\AppData\Local\Temp\ccde7Qmv.s:270    .text.printi:0000000000000000 .L0 
C:\Users\stapi\AppData\Local\Temp\ccde7Qmv.s:272    .text.printi:0000000000000000 .L0 
C:\Users\stapi\AppData\Local\Temp\ccde7Qmv.s:273    .text.printi:0000000000000008 .L0 
C:\Users\stapi\AppData\Local\Temp\ccde7Qmv.s:274    .text.printi:0000000000000008 .L0 
C:\Users\stapi\AppData\Local\Temp\ccde7Qmv.s:275    .text.printi:0000000000000008 .L0 
C:\Users\stapi\AppData\Local\Temp\ccde7Qmv.s:276    .text.printi:0000000000000008 .L0 
C:\Users\stapi\AppData\Local\Temp\ccde7Qmv.s:277    .text.printi:0000000000000008 .L0 
C:\Users\stapi\AppData\Local\Temp\ccde7Qmv.s:278    .text.printi:0000000000000008 .L0 
C:\Users\stapi\AppData\Local\Temp\ccde7Qmv.s:280    .text.printi:0000000000000008 .L0 
C:\Users\stapi\AppData\Local\Temp\ccde7Qmv.s:281    .text.printi:0000000000000008 .L0 
C:\Users\stapi\AppData\Local\Temp\ccde7Qmv.s:283    .text.printi:0000000000000008 .L0 
C:\Users\stapi\AppData\Local\Temp\ccde7Qmv.s:284    .text.printi:0000000000000008 .L0 
C:\Users\stapi\AppData\Local\Temp\ccde7Qmv.s:285    .text.printi:0000000000000008 .L0 
C:\Users\stapi\AppData\Local\Temp\ccde7Qmv.s:286    .text.printi:0000000000000008 .L0 
C:\Users\stapi\AppData\Local\Temp\ccde7Qmv.s:289    .text.printi:000000000000000e .L0 
C:\Users\stapi\AppData\Local\Temp\ccde7Qmv.s:291    .text.printi:000000000000000e .L0 
C:\Users\stapi\AppData\Local\Temp\ccde7Qmv.s:296    .text.printi:0000000000000012 .L0 
C:\Users\stapi\AppData\Local\Temp\ccde7Qmv.s:298    .text.printi:0000000000000014 .L0 
C:\Users\stapi\AppData\Local\Temp\ccde7Qmv.s:299    .text.printi:0000000000000014 .L0 
C:\Users\stapi\AppData\Local\Temp\ccde7Qmv.s:300    .text.printi:0000000000000014 .L0 
C:\Users\stapi\AppData\Local\Temp\ccde7Qmv.s:303    .text.printi:0000000000000018 .L0 
C:\Users\stapi\AppData\Local\Temp\ccde7Qmv.s:308    .text.printi:000000000000001c .L0 
C:\Users\stapi\AppData\Local\Temp\ccde7Qmv.s:310    .text.printi:0000000000000020 .L0 
C:\Users\stapi\AppData\Local\Temp\ccde7Qmv.s:311    .text.printi:0000000000000020 .L0 
C:\Users\stapi\AppData\Local\Temp\ccde7Qmv.s:315    .text.printi:0000000000000028 .L0 
C:\Users\stapi\AppData\Local\Temp\ccde7Qmv.s:316    .text.printi:000000000000002a .L0 
C:\Users\stapi\AppData\Local\Temp\ccde7Qmv.s:317    .text.printi:000000000000002a .L0 
C:\Users\stapi\AppData\Local\Temp\ccde7Qmv.s:319    .text.printi:0000000000000032 .L0 
C:\Users\stapi\AppData\Local\Temp\ccde7Qmv.s:320    .text.printi:0000000000000032 .L0 
C:\Users\stapi\AppData\Local\Temp\ccde7Qmv.s:321    .text.printi:0000000000000032 .L0 
C:\Users\stapi\AppData\Local\Temp\ccde7Qmv.s:322    .text.printi:0000000000000032 .L0 
C:\Users\stapi\AppData\Local\Temp\ccde7Qmv.s:323    .text.printi:0000000000000032 .L0 
C:\Users\stapi\AppData\Local\Temp\ccde7Qmv.s:324    .text.printi:0000000000000032 .L0 
C:\Users\stapi\AppData\Local\Temp\ccde7Qmv.s:327    .text.printi:0000000000000032 .L0 
C:\Users\stapi\AppData\Local\Temp\ccde7Qmv.s:331    .text.printi:0000000000000036 .L0 
C:\Users\stapi\AppData\Local\Temp\ccde7Qmv.s:332    .text.printi:0000000000000036 .L0 
C:\Users\stapi\AppData\Local\Temp\ccde7Qmv.s:335    .text.printi:0000000000000038 .L0 
C:\Users\stapi\AppData\Local\Temp\ccde7Qmv.s:338    .text.printi:000000000000003e .L0 
C:\Users\stapi\AppData\Local\Temp\ccde7Qmv.s:341    .text.printi:0000000000000042 .L0 
C:\Users\stapi\AppData\Local\Temp\ccde7Qmv.s:342    .text.printi:0000000000000042 .L0 
C:\Users\stapi\AppData\Local\Temp\ccde7Qmv.s:343    .text.printi:0000000000000042 .L0 
C:\Users\stapi\AppData\Local\Temp\ccde7Qmv.s:347    .text.printi:0000000000000046 .L0 
C:\Users\stapi\AppData\Local\Temp\ccde7Qmv.s:348    .text.printi:0000000000000046 .L0 
C:\Users\stapi\AppData\Local\Temp\ccde7Qmv.s:349    .text.printi:0000000000000046 .L0 
C:\Users\stapi\AppData\Local\Temp\ccde7Qmv.s:351    .text.printi:000000000000004a .L0 
C:\Users\stapi\AppData\Local\Temp\ccde7Qmv.s:352    .text.printi:000000000000004a .L0 
C:\Users\stapi\AppData\Local\Temp\ccde7Qmv.s:353    .text.printi:000000000000004a .L0 
C:\Users\stapi\AppData\Local\Temp\ccde7Qmv.s:356    .text.printi:000000000000004e .L0 
C:\Users\stapi\AppData\Local\Temp\ccde7Qmv.s:358    .text.printi:0000000000000050 .L0 
C:\Users\stapi\AppData\Local\Temp\ccde7Qmv.s:362    .text.printi:0000000000000054 .L0 
C:\Users\stapi\AppData\Local\Temp\ccde7Qmv.s:363    .text.printi:0000000000000054 .L0 
C:\Users\stapi\AppData\Local\Temp\ccde7Qmv.s:366    .text.printi:0000000000000058 .L0 
C:\Users\stapi\AppData\Local\Temp\ccde7Qmv.s:367    .text.printi:0000000000000058 .L0 
C:\Users\stapi\AppData\Local\Temp\ccde7Qmv.s:369    .text.printi:000000000000005c .L0 
C:\Users\stapi\AppData\Local\Temp\ccde7Qmv.s:370    .text.printi:000000000000005c .L0 
C:\Users\stapi\AppData\Local\Temp\ccde7Qmv.s:374    .text.printi:000000000000005e .L0 
C:\Users\stapi\AppData\Local\Temp\ccde7Qmv.s:375    .text.printi:000000000000005e .L0 
C:\Users\stapi\AppData\Local\Temp\ccde7Qmv.s:378    .text.printi:0000000000000062 .L0 
C:\Users\stapi\AppData\Local\Temp\ccde7Qmv.s:380    .text.printi:0000000000000066 .L0 
C:\Users\stapi\AppData\Local\Temp\ccde7Qmv.s:382    .text.printi:000000000000006a .L0 
C:\Users\stapi\AppData\Local\Temp\ccde7Qmv.s:385    .text.printi:000000000000006e .L0 
C:\Users\stapi\AppData\Local\Temp\ccde7Qmv.s:386    .text.printi:000000000000006e .L0 
C:\Users\stapi\AppData\Local\Temp\ccde7Qmv.s:388    .text.printi:0000000000000072 .L0 
C:\Users\stapi\AppData\Local\Temp\ccde7Qmv.s:389    .text.printi:0000000000000072 .L0 
C:\Users\stapi\AppData\Local\Temp\ccde7Qmv.s:391    .text.printi:0000000000000074 .L0 
C:\Users\stapi\AppData\Local\Temp\ccde7Qmv.s:392    .text.printi:0000000000000074 .L0 
C:\Users\stapi\AppData\Local\Temp\ccde7Qmv.s:394    .text.printi:0000000000000076 .L0 
C:\Users\stapi\AppData\Local\Temp\ccde7Qmv.s:397    .text.printi:000000000000007a .L0 
C:\Users\stapi\AppData\Local\Temp\ccde7Qmv.s:399    .text.printi:000000000000007c .L0 
C:\Users\stapi\AppData\Local\Temp\ccde7Qmv.s:405    .text.printi:0000000000000086 .L0 
C:\Users\stapi\AppData\Local\Temp\ccde7Qmv.s:409    .text.printi:0000000000000090 .L0 
C:\Users\stapi\AppData\Local\Temp\ccde7Qmv.s:410    .text.printi:0000000000000090 .L0 
C:\Users\stapi\AppData\Local\Temp\ccde7Qmv.s:416    .text.printi:0000000000000096 .L0 
C:\Users\stapi\AppData\Local\Temp\ccde7Qmv.s:417    .text.printi:0000000000000096 .L0 
C:\Users\stapi\AppData\Local\Temp\ccde7Qmv.s:423    .text.printi:00000000000000a4 .L0 
C:\Users\stapi\AppData\Local\Temp\ccde7Qmv.s:428    .text.printi:00000000000000a8 .L0 
C:\Users\stapi\AppData\Local\Temp\ccde7Qmv.s:434    .text.printi:00000000000000ac .L0 
C:\Users\stapi\AppData\Local\Temp\ccde7Qmv.s:440    .text.printi:00000000000000b2 .L0 
C:\Users\stapi\AppData\Local\Temp\ccde7Qmv.s:441    .text.printi:00000000000000b2 .L0 
C:\Users\stapi\AppData\Local\Temp\ccde7Qmv.s:444    .text.printi:00000000000000ba .L0 
C:\Users\stapi\AppData\Local\Temp\ccde7Qmv.s:447    .text.printi:00000000000000bc .L0 
C:\Users\stapi\AppData\Local\Temp\ccde7Qmv.s:450    .text.printi:00000000000000c2 .L0 
C:\Users\stapi\AppData\Local\Temp\ccde7Qmv.s:461    .text.print:0000000000000000 print
C:\Users\stapi\AppData\Local\Temp\ccde7Qmv.s:464    .text.print:0000000000000000 .L0 
C:\Users\stapi\AppData\Local\Temp\ccde7Qmv.s:466    .text.print:0000000000000000 .L0 
C:\Users\stapi\AppData\Local\Temp\ccde7Qmv.s:467    .text.print:0000000000000008 .L0 
C:\Users\stapi\AppData\Local\Temp\ccde7Qmv.s:468    .text.print:0000000000000008 .L0 
C:\Users\stapi\AppData\Local\Temp\ccde7Qmv.s:469    .text.print:0000000000000008 .L0 
C:\Users\stapi\AppData\Local\Temp\ccde7Qmv.s:470    .text.print:0000000000000008 .L0 
C:\Users\stapi\AppData\Local\Temp\ccde7Qmv.s:471    .text.print:0000000000000008 .L0 
C:\Users\stapi\AppData\Local\Temp\ccde7Qmv.s:472    .text.print:0000000000000008 .L0 
C:\Users\stapi\AppData\Local\Temp\ccde7Qmv.s:473    .text.print:0000000000000008 .L0 
C:\Users\stapi\AppData\Local\Temp\ccde7Qmv.s:474    .text.print:0000000000000008 .L0 
C:\Users\stapi\AppData\Local\Temp\ccde7Qmv.s:475    .text.print:0000000000000008 .L0 
C:\Users\stapi\AppData\Local\Temp\ccde7Qmv.s:476    .text.print:0000000000000008 .L0 
C:\Users\stapi\AppData\Local\Temp\ccde7Qmv.s:477    .text.print:0000000000000008 .L0 
C:\Users\stapi\AppData\Local\Temp\ccde7Qmv.s:478    .text.print:0000000000000008 .L0 
C:\Users\stapi\AppData\Local\Temp\ccde7Qmv.s:479    .text.print:0000000000000008 .L0 
C:\Users\stapi\AppData\Local\Temp\ccde7Qmv.s:480    .text.print:0000000000000008 .L0 
C:\Users\stapi\AppData\Local\Temp\ccde7Qmv.s:482    .text.print:000000000000000a .L0 
C:\Users\stapi\AppData\Local\Temp\ccde7Qmv.s:484    .text.print:000000000000000a .L0 
C:\Users\stapi\AppData\Local\Temp\ccde7Qmv.s:486    .text.print:000000000000000c .L0 
C:\Users\stapi\AppData\Local\Temp\ccde7Qmv.s:488    .text.print:000000000000000c .L0 
C:\Users\stapi\AppData\Local\Temp\ccde7Qmv.s:489    .text.print:000000000000000c .L0 
C:\Users\stapi\AppData\Local\Temp\ccde7Qmv.s:490    .text.print:000000000000000c .L0 
C:\Users\stapi\AppData\Local\Temp\ccde7Qmv.s:491    .text.print:000000000000000c .L0 
C:\Users\stapi\AppData\Local\Temp\ccde7Qmv.s:494    .text.print:0000000000000010 .L0 
C:\Users\stapi\AppData\Local\Temp\ccde7Qmv.s:496    .text.print:0000000000000012 .L0 
C:\Users\stapi\AppData\Local\Temp\ccde7Qmv.s:500    .text.print:000000000000001e .L0 
C:\Users\stapi\AppData\Local\Temp\ccde7Qmv.s:502    .text.print:0000000000000020 .L0 
C:\Users\stapi\AppData\Local\Temp\ccde7Qmv.s:505    .text.print:0000000000000024 .L0 
C:\Users\stapi\AppData\Local\Temp\ccde7Qmv.s:506    .text.print:0000000000000024 .L0 
C:\Users\stapi\AppData\Local\Temp\ccde7Qmv.s:510    .text.print:0000000000000026 .L0 
C:\Users\stapi\AppData\Local\Temp\ccde7Qmv.s:513    .text.print:000000000000002a .L0 
C:\Users\stapi\AppData\Local\Temp\ccde7Qmv.s:515    .text.print:000000000000002c .L0 
C:\Users\stapi\AppData\Local\Temp\ccde7Qmv.s:516    .text.print:000000000000002c .L0 
C:\Users\stapi\AppData\Local\Temp\ccde7Qmv.s:518    .text.print:000000000000002e .L0 
C:\Users\stapi\AppData\Local\Temp\ccde7Qmv.s:520    .text.print:0000000000000032 .L0 
C:\Users\stapi\AppData\Local\Temp\ccde7Qmv.s:522    .text.print:0000000000000036 .L0 
C:\Users\stapi\AppData\Local\Temp\ccde7Qmv.s:525    .text.print:0000000000000038 .L0 
C:\Users\stapi\AppData\Local\Temp\ccde7Qmv.s:530    .text.print:000000000000003c .L0 
C:\Users\stapi\AppData\Local\Temp\ccde7Qmv.s:532    .text.print:0000000000000040 .L0 
C:\Users\stapi\AppData\Local\Temp\ccde7Qmv.s:536    .text.print:0000000000000042 .L0 
C:\Users\stapi\AppData\Local\Temp\ccde7Qmv.s:537    .text.print:0000000000000042 .L0 
C:\Users\stapi\AppData\Local\Temp\ccde7Qmv.s:539    .text.print:0000000000000046 .L0 
C:\Users\stapi\AppData\Local\Temp\ccde7Qmv.s:540    .text.print:0000000000000046 .L0 
C:\Users\stapi\AppData\Local\Temp\ccde7Qmv.s:542    .text.print:000000000000004a .L0 
C:\Users\stapi\AppData\Local\Temp\ccde7Qmv.s:546    .text.print:000000000000004e .L0 
C:\Users\stapi\AppData\Local\Temp\ccde7Qmv.s:548    .text.print:0000000000000052 .L0 
C:\Users\stapi\AppData\Local\Temp\ccde7Qmv.s:549    .text.print:0000000000000052 .L0 
C:\Users\stapi\AppData\Local\Temp\ccde7Qmv.s:551    .text.print:000000000000005a .L0 
C:\Users\stapi\AppData\Local\Temp\ccde7Qmv.s:552    .text.print:000000000000005a .L0 
C:\Users\stapi\AppData\Local\Temp\ccde7Qmv.s:553    .text.print:000000000000005a .L0 
C:\Users\stapi\AppData\Local\Temp\ccde7Qmv.s:554    .text.print:000000000000005a .L0 
C:\Users\stapi\AppData\Local\Temp\ccde7Qmv.s:555    .text.print:000000000000005a .L0 
C:\Users\stapi\AppData\Local\Temp\ccde7Qmv.s:556    .text.print:000000000000005a .L0 
C:\Users\stapi\AppData\Local\Temp\ccde7Qmv.s:557    .text.print:000000000000005a .L0 
C:\Users\stapi\AppData\Local\Temp\ccde7Qmv.s:558    .text.print:000000000000005a .L0 
C:\Users\stapi\AppData\Local\Temp\ccde7Qmv.s:559    .text.print:000000000000005a .L0 
C:\Users\stapi\AppData\Local\Temp\ccde7Qmv.s:560    .text.print:000000000000005a .L0 
C:\Users\stapi\AppData\Local\Temp\ccde7Qmv.s:561    .text.print:000000000000005a .L0 
C:\Users\stapi\AppData\Local\Temp\ccde7Qmv.s:562    .text.print:000000000000005a .L0 
C:\Users\stapi\AppData\Local\Temp\ccde7Qmv.s:563    .text.print:000000000000005a .L0 
C:\Users\stapi\AppData\Local\Temp\ccde7Qmv.s:564    .text.print:000000000000005a .L0 
C:\Users\stapi\AppData\Local\Temp\ccde7Qmv.s:567    .text.print:000000000000005a .L0 
C:\Users\stapi\AppData\Local\Temp\ccde7Qmv.s:569    .text.print:000000000000005a .L0 
C:\Users\stapi\AppData\Local\Temp\ccde7Qmv.s:570    .text.print:000000000000005a .L0 
C:\Users\stapi\AppData\Local\Temp\ccde7Qmv.s:573    .text.print:000000000000005e .L0 
C:\Users\stapi\AppData\Local\Temp\ccde7Qmv.s:574    .text.print:000000000000005e .L0 
C:\Users\stapi\AppData\Local\Temp\ccde7Qmv.s:575    .text.print:000000000000005e .L0 
C:\Users\stapi\AppData\Local\Temp\ccde7Qmv.s:576    .text.print:000000000000005e .L0 
C:\Users\stapi\AppData\Local\Temp\ccde7Qmv.s:578    .text.print:0000000000000062 .L0 
C:\Users\stapi\AppData\Local\Temp\ccde7Qmv.s:580    .text.print:0000000000000064 .L0 
C:\Users\stapi\AppData\Local\Temp\ccde7Qmv.s:582    .text.print:0000000000000068 .L0 
C:\Users\stapi\AppData\Local\Temp\ccde7Qmv.s:583    .text.print:0000000000000068 .L0 
C:\Users\stapi\AppData\Local\Temp\ccde7Qmv.s:585    .text.print:000000000000006c .L0 
C:\Users\stapi\AppData\Local\Temp\ccde7Qmv.s:586    .text.print:000000000000006c .L0 
C:\Users\stapi\AppData\Local\Temp\ccde7Qmv.s:588    .text.print:000000000000006e .L0 
C:\Users\stapi\AppData\Local\Temp\ccde7Qmv.s:590    .text.print:0000000000000072 .L0 
C:\Users\stapi\AppData\Local\Temp\ccde7Qmv.s:593    .text.print:0000000000000076 .L0 
C:\Users\stapi\AppData\Local\Temp\ccde7Qmv.s:594    .text.print:0000000000000076 .L0 
C:\Users\stapi\AppData\Local\Temp\ccde7Qmv.s:598    .text.print:0000000000000078 .L0 
C:\Users\stapi\AppData\Local\Temp\ccde7Qmv.s:600    .text.print:000000000000007a .L0 
C:\Users\stapi\AppData\Local\Temp\ccde7Qmv.s:604    .text.print:000000000000007e .L0 
C:\Users\stapi\AppData\Local\Temp\ccde7Qmv.s:605    .text.print:000000000000007e .L0 
C:\Users\stapi\AppData\Local\Temp\ccde7Qmv.s:607    .text.print:0000000000000082 .L0 
C:\Users\stapi\AppData\Local\Temp\ccde7Qmv.s:610    .text.print:000000000000008a .L0 
C:\Users\stapi\AppData\Local\Temp\ccde7Qmv.s:612    .text.print:000000000000008c .L0 
C:\Users\stapi\AppData\Local\Temp\ccde7Qmv.s:616    .text.print:000000000000008e .L0 
C:\Users\stapi\AppData\Local\Temp\ccde7Qmv.s:618    .text.print:0000000000000092 .L0 
C:\Users\stapi\AppData\Local\Temp\ccde7Qmv.s:620    .text.print:0000000000000096 .L0 
C:\Users\stapi\AppData\Local\Temp\ccde7Qmv.s:622    .text.print:000000000000009a .L0 
C:\Users\stapi\AppData\Local\Temp\ccde7Qmv.s:624    .text.print:000000000000009e .L0 
C:\Users\stapi\AppData\Local\Temp\ccde7Qmv.s:626    .text.print:00000000000000a2 .L0 
C:\Users\stapi\AppData\Local\Temp\ccde7Qmv.s:627    .text.print:00000000000000a2 .L0 
C:\Users\stapi\AppData\Local\Temp\ccde7Qmv.s:631    .text.print:00000000000000aa .L0 
C:\Users\stapi\AppData\Local\Temp\ccde7Qmv.s:632    .text.print:00000000000000aa .L0 
C:\Users\stapi\AppData\Local\Temp\ccde7Qmv.s:636    .text.print:00000000000000b0 .L0 
C:\Users\stapi\AppData\Local\Temp\ccde7Qmv.s:637    .text.print:00000000000000b0 .L0 
C:\Users\stapi\AppData\Local\Temp\ccde7Qmv.s:640    .text.print:00000000000000b4 .L0 
C:\Users\stapi\AppData\Local\Temp\ccde7Qmv.s:643    .text.print:00000000000000b6 .L0 
C:\Users\stapi\AppData\Local\Temp\ccde7Qmv.s:651    .text.print:00000000000000bc .L0 
C:\Users\stapi\AppData\Local\Temp\ccde7Qmv.s:658    .text.print:00000000000000c8 .L0 
C:\Users\stapi\AppData\Local\Temp\ccde7Qmv.s:659    .text.print:00000000000000c8 .L0 
C:\Users\stapi\AppData\Local\Temp\ccde7Qmv.s:660    .text.print:00000000000000c8 .L0 
C:\Users\stapi\AppData\Local\Temp\ccde7Qmv.s:663    .text.print:00000000000000cc .L0 
C:\Users\stapi\AppData\Local\Temp\ccde7Qmv.s:668    .text.print:00000000000000d0 .L0 
C:\Users\stapi\AppData\Local\Temp\ccde7Qmv.s:669    .text.print:00000000000000d0 .L0 
C:\Users\stapi\AppData\Local\Temp\ccde7Qmv.s:670    .text.print:00000000000000d0 .L0 
C:\Users\stapi\AppData\Local\Temp\ccde7Qmv.s:672    .text.print:00000000000000d4 .L0 
C:\Users\stapi\AppData\Local\Temp\ccde7Qmv.s:675    .text.print:00000000000000d6 .L0 
C:\Users\stapi\AppData\Local\Temp\ccde7Qmv.s:679    .text.print:00000000000000dc .L0 
C:\Users\stapi\AppData\Local\Temp\ccde7Qmv.s:683    .text.print:00000000000000de .L0 
C:\Users\stapi\AppData\Local\Temp\ccde7Qmv.s:684    .text.print:00000000000000de .L0 
C:\Users\stapi\AppData\Local\Temp\ccde7Qmv.s:687    .text.print:00000000000000e6 .L0 
C:\Users\stapi\AppData\Local\Temp\ccde7Qmv.s:688    .text.print:00000000000000e6 .L0 
C:\Users\stapi\AppData\Local\Temp\ccde7Qmv.s:704    .text.print:0000000000000104 .L0 
C:\Users\stapi\AppData\Local\Temp\ccde7Qmv.s:707    .text.print:0000000000000106 .L0 
C:\Users\stapi\AppData\Local\Temp\ccde7Qmv.s:708    .text.print:0000000000000106 .L0 
C:\Users\stapi\AppData\Local\Temp\ccde7Qmv.s:712    .text.print:0000000000000108 .L0 
C:\Users\stapi\AppData\Local\Temp\ccde7Qmv.s:718    .text.print:000000000000010c .L0 
C:\Users\stapi\AppData\Local\Temp\ccde7Qmv.s:719    .text.print:000000000000010c .L0 
C:\Users\stapi\AppData\Local\Temp\ccde7Qmv.s:723    .text.print:0000000000000114 .L0 
C:\Users\stapi\AppData\Local\Temp\ccde7Qmv.s:724    .text.print:0000000000000114 .L0 
C:\Users\stapi\AppData\Local\Temp\ccde7Qmv.s:726    .text.print:0000000000000114 .L0 
C:\Users\stapi\AppData\Local\Temp\ccde7Qmv.s:730    .text.print:0000000000000118 .L0 
C:\Users\stapi\AppData\Local\Temp\ccde7Qmv.s:734    .text.print:000000000000011c .L0 
C:\Users\stapi\AppData\Local\Temp\ccde7Qmv.s:738    .text.print:0000000000000120 .L0 
C:\Users\stapi\AppData\Local\Temp\ccde7Qmv.s:743    .text.print:0000000000000122 .L0 
C:\Users\stapi\AppData\Local\Temp\ccde7Qmv.s:748    .text.print:000000000000012e .L0 
C:\Users\stapi\AppData\Local\Temp\ccde7Qmv.s:749    .text.print:000000000000012e .L0 
C:\Users\stapi\AppData\Local\Temp\ccde7Qmv.s:750    .text.print:000000000000012e .L0 
C:\Users\stapi\AppData\Local\Temp\ccde7Qmv.s:753    .text.print:0000000000000132 .L0 
C:\Users\stapi\AppData\Local\Temp\ccde7Qmv.s:754    .text.print:0000000000000132 .L0 
C:\Users\stapi\AppData\Local\Temp\ccde7Qmv.s:755    .text.print:0000000000000132 .L0 
C:\Users\stapi\AppData\Local\Temp\ccde7Qmv.s:756    .text.print:0000000000000132 .L0 
C:\Users\stapi\AppData\Local\Temp\ccde7Qmv.s:759    .text.print:0000000000000134 .L0 
C:\Users\stapi\AppData\Local\Temp\ccde7Qmv.s:763    .text.print:0000000000000136 .L0 
C:\Users\stapi\AppData\Local\Temp\ccde7Qmv.s:764    .text.print:0000000000000136 .L0 
C:\Users\stapi\AppData\Local\Temp\ccde7Qmv.s:766    .text.print:000000000000013a .L0 
C:\Users\stapi\AppData\Local\Temp\ccde7Qmv.s:777    .text.print:0000000000000158 .L0 
C:\Users\stapi\AppData\Local\Temp\ccde7Qmv.s:780    .text.print:000000000000015a .L0 
C:\Users\stapi\AppData\Local\Temp\ccde7Qmv.s:786    .text.print:000000000000016a .L0 
C:\Users\stapi\AppData\Local\Temp\ccde7Qmv.s:787    .text.print:000000000000016a .L0 
C:\Users\stapi\AppData\Local\Temp\ccde7Qmv.s:791    .text.print:000000000000016e .L0 
C:\Users\stapi\AppData\Local\Temp\ccde7Qmv.s:794    .text.print:0000000000000170 .L0 
C:\Users\stapi\AppData\Local\Temp\ccde7Qmv.s:795    .text.print:0000000000000170 .L0 
C:\Users\stapi\AppData\Local\Temp\ccde7Qmv.s:796    .text.print:0000000000000170 .L0 
C:\Users\stapi\AppData\Local\Temp\ccde7Qmv.s:798    .text.print:0000000000000174 .L0 
C:\Users\stapi\AppData\Local\Temp\ccde7Qmv.s:799    .text.print:0000000000000174 .L0 
C:\Users\stapi\AppData\Local\Temp\ccde7Qmv.s:808    .text.print:0000000000000186 .L0 
C:\Users\stapi\AppData\Local\Temp\ccde7Qmv.s:812    .text.print:0000000000000190 .L0 
C:\Users\stapi\AppData\Local\Temp\ccde7Qmv.s:816    .text.print:0000000000000192 .L0 
C:\Users\stapi\AppData\Local\Temp\ccde7Qmv.s:817    .text.print:0000000000000192 .L0 
C:\Users\stapi\AppData\Local\Temp\ccde7Qmv.s:820    .text.print:0000000000000194 .L0 
C:\Users\stapi\AppData\Local\Temp\ccde7Qmv.s:824    .text.print:0000000000000196 .L0 
C:\Users\stapi\AppData\Local\Temp\ccde7Qmv.s:825    .text.print:0000000000000196 .L0 
C:\Users\stapi\AppData\Local\Temp\ccde7Qmv.s:826    .text.print:0000000000000196 .L0 
C:\Users\stapi\AppData\Local\Temp\ccde7Qmv.s:827    .text.print:0000000000000196 .L0 
C:\Users\stapi\AppData\Local\Temp\ccde7Qmv.s:830    .text.print:0000000000000198 .L0 
C:\Users\stapi\AppData\Local\Temp\ccde7Qmv.s:834    .text.print:000000000000019a .L0 
C:\Users\stapi\AppData\Local\Temp\ccde7Qmv.s:835    .text.print:000000000000019a .L0 
C:\Users\stapi\AppData\Local\Temp\ccde7Qmv.s:837    .text.print:000000000000019e .L0 
C:\Users\stapi\AppData\Local\Temp\ccde7Qmv.s:848    .text.print:00000000000001bc .L0 
C:\Users\stapi\AppData\Local\Temp\ccde7Qmv.s:851    .text.print:00000000000001be .L0 
C:\Users\stapi\AppData\Local\Temp\ccde7Qmv.s:857    .text.print:00000000000001ce .L0 
C:\Users\stapi\AppData\Local\Temp\ccde7Qmv.s:858    .text.print:00000000000001ce .L0 
C:\Users\stapi\AppData\Local\Temp\ccde7Qmv.s:862    .text.print:00000000000001d2 .L0 
C:\Users\stapi\AppData\Local\Temp\ccde7Qmv.s:865    .text.print:00000000000001d4 .L0 
C:\Users\stapi\AppData\Local\Temp\ccde7Qmv.s:866    .text.print:00000000000001d4 .L0 
C:\Users\stapi\AppData\Local\Temp\ccde7Qmv.s:867    .text.print:00000000000001d4 .L0 
C:\Users\stapi\AppData\Local\Temp\ccde7Qmv.s:869    .text.print:00000000000001d8 .L0 
C:\Users\stapi\AppData\Local\Temp\ccde7Qmv.s:870    .text.print:00000000000001d8 .L0 
C:\Users\stapi\AppData\Local\Temp\ccde7Qmv.s:880    .text.print:00000000000001ec .L0 
C:\Users\stapi\AppData\Local\Temp\ccde7Qmv.s:881    .text.print:00000000000001ec .L0 
C:\Users\stapi\AppData\Local\Temp\ccde7Qmv.s:882    .text.print:00000000000001ec .L0 
C:\Users\stapi\AppData\Local\Temp\ccde7Qmv.s:892    .text.print:0000000000000206 .L0 
C:\Users\stapi\AppData\Local\Temp\ccde7Qmv.s:895    .text.print:0000000000000208 .L0 
C:\Users\stapi\AppData\Local\Temp\ccde7Qmv.s:900    .text.print:000000000000020a .L0 
C:\Users\stapi\AppData\Local\Temp\ccde7Qmv.s:901    .text.print:000000000000020a .L0 
C:\Users\stapi\AppData\Local\Temp\ccde7Qmv.s:904    .text.print:0000000000000212 .L0 
C:\Users\stapi\AppData\Local\Temp\ccde7Qmv.s:905    .text.print:0000000000000212 .L0 
C:\Users\stapi\AppData\Local\Temp\ccde7Qmv.s:911    .text.print:000000000000021e .L0 
C:\Users\stapi\AppData\Local\Temp\ccde7Qmv.s:918    .text.print:0000000000000226 .L0 
C:\Users\stapi\AppData\Local\Temp\ccde7Qmv.s:919    .text.print:0000000000000226 .L0 
C:\Users\stapi\AppData\Local\Temp\ccde7Qmv.s:922    .text.print:000000000000022e .L0 
C:\Users\stapi\AppData\Local\Temp\ccde7Qmv.s:923    .text.print:000000000000022e .L0 
C:\Users\stapi\AppData\Local\Temp\ccde7Qmv.s:931    .text.print:000000000000023c .L0 
C:\Users\stapi\AppData\Local\Temp\ccde7Qmv.s:932    .text.print:000000000000023c .L0 
C:\Users\stapi\AppData\Local\Temp\ccde7Qmv.s:935    .text.print:0000000000000244 .L0 
C:\Users\stapi\AppData\Local\Temp\ccde7Qmv.s:936    .text.print:0000000000000244 .L0 
C:\Users\stapi\AppData\Local\Temp\ccde7Qmv.s:946    .text.print:0000000000000256 .L0 
C:\Users\stapi\AppData\Local\Temp\ccde7Qmv.s:947    .text.print:0000000000000256 .L0 
C:\Users\stapi\AppData\Local\Temp\ccde7Qmv.s:950    .text.print:000000000000025e .L0 
C:\Users\stapi\AppData\Local\Temp\ccde7Qmv.s:951    .text.print:000000000000025e .L0 
C:\Users\stapi\AppData\Local\Temp\ccde7Qmv.s:953    .text.print:0000000000000260 .L0 
C:\Users\stapi\AppData\Local\Temp\ccde7Qmv.s:956    .text.print:0000000000000264 .L0 
C:\Users\stapi\AppData\Local\Temp\ccde7Qmv.s:958    .text.print:0000000000000268 .L0 
C:\Users\stapi\AppData\Local\Temp\ccde7Qmv.s:960    .text.print:000000000000026c .L0 
C:\Users\stapi\AppData\Local\Temp\ccde7Qmv.s:961    .text.print:000000000000026c .L0 
C:\Users\stapi\AppData\Local\Temp\ccde7Qmv.s:962    .text.print:000000000000026c .L0 
C:\Users\stapi\AppData\Local\Temp\ccde7Qmv.s:970    .text.print:0000000000000276 .L0 
C:\Users\stapi\AppData\Local\Temp\ccde7Qmv.s:974    .text.print:0000000000000278 .L0 
C:\Users\stapi\AppData\Local\Temp\ccde7Qmv.s:978    .text.print:0000000000000280 .L0 
C:\Users\stapi\AppData\Local\Temp\ccde7Qmv.s:981    .text.print:0000000000000282 .L0 
C:\Users\stapi\AppData\Local\Temp\ccde7Qmv.s:984    .text.print:000000000000028a .L0 
C:\Users\stapi\AppData\Local\Temp\ccde7Qmv.s:985    .text.print:000000000000028c .L0 
C:\Users\stapi\AppData\Local\Temp\ccde7Qmv.s:992    .text.co_printf:0000000000000000 co_printf
C:\Users\stapi\AppData\Local\Temp\ccde7Qmv.s:995    .text.co_printf:0000000000000000 .L0 
C:\Users\stapi\AppData\Local\Temp\ccde7Qmv.s:997    .text.co_printf:0000000000000000 .L0 
C:\Users\stapi\AppData\Local\Temp\ccde7Qmv.s:998    .text.co_printf:0000000000000000 .L0 
C:\Users\stapi\AppData\Local\Temp\ccde7Qmv.s:999    .text.co_printf:0000000000000000 .L0 
C:\Users\stapi\AppData\Local\Temp\ccde7Qmv.s:1000   .text.co_printf:0000000000000000 .L0 
C:\Users\stapi\AppData\Local\Temp\ccde7Qmv.s:1001   .text.co_printf:0000000000000000 .L0 
C:\Users\stapi\AppData\Local\Temp\ccde7Qmv.s:1002   .text.co_printf:0000000000000002 .L0 
C:\Users\stapi\AppData\Local\Temp\ccde7Qmv.s:1007   .text.co_printf:0000000000000008 .L0 
C:\Users\stapi\AppData\Local\Temp\ccde7Qmv.s:1009   .text.co_printf:000000000000000a .L0 
C:\Users\stapi\AppData\Local\Temp\ccde7Qmv.s:1014   .text.co_printf:0000000000000010 .L0 
C:\Users\stapi\AppData\Local\Temp\ccde7Qmv.s:1015   .text.co_printf:0000000000000012 .L0 
C:\Users\stapi\AppData\Local\Temp\ccde7Qmv.s:1017   .text.co_printf:0000000000000012 .L0 
C:\Users\stapi\AppData\Local\Temp\ccde7Qmv.s:1022   .text.co_printf:000000000000001a .L0 
C:\Users\stapi\AppData\Local\Temp\ccde7Qmv.s:1024   .text.co_printf:000000000000001c .L0 
C:\Users\stapi\AppData\Local\Temp\ccde7Qmv.s:1025   .text.co_printf:000000000000001c .L0 
C:\Users\stapi\AppData\Local\Temp\ccde7Qmv.s:1028   .text.co_printf:0000000000000024 .L0 
C:\Users\stapi\AppData\Local\Temp\ccde7Qmv.s:1029   .text.co_printf:0000000000000024 .L0 
C:\Users\stapi\AppData\Local\Temp\ccde7Qmv.s:1030   .text.co_printf:0000000000000024 .L0 
C:\Users\stapi\AppData\Local\Temp\ccde7Qmv.s:1031   .text.co_printf:0000000000000026 .L0 
C:\Users\stapi\AppData\Local\Temp\ccde7Qmv.s:1033   .text.co_printf:0000000000000028 .L0 
C:\Users\stapi\AppData\Local\Temp\ccde7Qmv.s:1035   .text.co_printf:000000000000002a .L0 
C:\Users\stapi\AppData\Local\Temp\ccde7Qmv.s:1042   .text.co_snprintf:0000000000000000 co_snprintf
C:\Users\stapi\AppData\Local\Temp\ccde7Qmv.s:1045   .text.co_snprintf:0000000000000000 .L0 
C:\Users\stapi\AppData\Local\Temp\ccde7Qmv.s:1047   .text.co_snprintf:0000000000000000 .L0 
C:\Users\stapi\AppData\Local\Temp\ccde7Qmv.s:1048   .text.co_snprintf:0000000000000000 .L0 
C:\Users\stapi\AppData\Local\Temp\ccde7Qmv.s:1049   .text.co_snprintf:0000000000000000 .L0 
C:\Users\stapi\AppData\Local\Temp\ccde7Qmv.s:1050   .text.co_snprintf:0000000000000000 .L0 
C:\Users\stapi\AppData\Local\Temp\ccde7Qmv.s:1051   .text.co_snprintf:0000000000000002 .L0 
C:\Users\stapi\AppData\Local\Temp\ccde7Qmv.s:1053   .text.co_snprintf:0000000000000004 .L0 
C:\Users\stapi\AppData\Local\Temp\ccde7Qmv.s:1055   .text.co_snprintf:0000000000000004 .L0 
C:\Users\stapi\AppData\Local\Temp\ccde7Qmv.s:1062   .text.co_snprintf:0000000000000010 .L0 
C:\Users\stapi\AppData\Local\Temp\ccde7Qmv.s:1066   .text.co_snprintf:0000000000000014 .L0 
C:\Users\stapi\AppData\Local\Temp\ccde7Qmv.s:1070   .text.co_snprintf:0000000000000018 .L0 
C:\Users\stapi\AppData\Local\Temp\ccde7Qmv.s:1071   .text.co_snprintf:0000000000000018 .L0 
C:\Users\stapi\AppData\Local\Temp\ccde7Qmv.s:1072   .text.co_snprintf:0000000000000018 .L0 
C:\Users\stapi\AppData\Local\Temp\ccde7Qmv.s:1075   .text.co_snprintf:000000000000001a .L0 
C:\Users\stapi\AppData\Local\Temp\ccde7Qmv.s:1079   .text.co_snprintf:000000000000001e .L0 
C:\Users\stapi\AppData\Local\Temp\ccde7Qmv.s:1080   .text.co_snprintf:000000000000001e .L0 
C:\Users\stapi\AppData\Local\Temp\ccde7Qmv.s:1085   .text.co_snprintf:0000000000000026 .L0 
C:\Users\stapi\AppData\Local\Temp\ccde7Qmv.s:1086   .text.co_snprintf:0000000000000026 .L0 
C:\Users\stapi\AppData\Local\Temp\ccde7Qmv.s:1087   .text.co_snprintf:0000000000000028 .L0 
C:\Users\stapi\AppData\Local\Temp\ccde7Qmv.s:1088   .text.co_snprintf:0000000000000028 .L0 
C:\Users\stapi\AppData\Local\Temp\ccde7Qmv.s:1090   .text.co_snprintf:000000000000002a .L0 
C:\Users\stapi\AppData\Local\Temp\ccde7Qmv.s:1094   .text.co_snprintf:000000000000002c .L0 
C:\Users\stapi\AppData\Local\Temp\ccde7Qmv.s:1096   .text.co_snprintf:000000000000002c .L0 
C:\Users\stapi\AppData\Local\Temp\ccde7Qmv.s:1099   .text.co_snprintf:000000000000002e .L0 
C:\Users\stapi\AppData\Local\Temp\ccde7Qmv.s:1100   .text.co_snprintf:000000000000002e .L0 
C:\Users\stapi\AppData\Local\Temp\ccde7Qmv.s:1101   .text.co_snprintf:0000000000000030 .L0 
C:\Users\stapi\AppData\Local\Temp\ccde7Qmv.s:1121   .text.print_buffer:0000000000000000 print_buffer
C:\Users\stapi\AppData\Local\Temp\ccde7Qmv.s:1124   .text.print_buffer:0000000000000000 .L0 
C:\Users\stapi\AppData\Local\Temp\ccde7Qmv.s:1126   .text.print_buffer:0000000000000000 .L0 
C:\Users\stapi\AppData\Local\Temp\ccde7Qmv.s:1127   .text.print_buffer:0000000000000008 .L0 
C:\Users\stapi\AppData\Local\Temp\ccde7Qmv.s:1128   .text.print_buffer:0000000000000008 .L0 
C:\Users\stapi\AppData\Local\Temp\ccde7Qmv.s:1129   .text.print_buffer:0000000000000008 .L0 
C:\Users\stapi\AppData\Local\Temp\ccde7Qmv.s:1130   .text.print_buffer:0000000000000008 .L0 
C:\Users\stapi\AppData\Local\Temp\ccde7Qmv.s:1131   .text.print_buffer:0000000000000008 .L0 
C:\Users\stapi\AppData\Local\Temp\ccde7Qmv.s:1132   .text.print_buffer:0000000000000008 .L0 
C:\Users\stapi\AppData\Local\Temp\ccde7Qmv.s:1133   .text.print_buffer:0000000000000008 .L0 
C:\Users\stapi\AppData\Local\Temp\ccde7Qmv.s:1134   .text.print_buffer:0000000000000008 .L0 
C:\Users\stapi\AppData\Local\Temp\ccde7Qmv.s:1135   .text.print_buffer:0000000000000008 .L0 
C:\Users\stapi\AppData\Local\Temp\ccde7Qmv.s:1136   .text.print_buffer:0000000000000008 .L0 
C:\Users\stapi\AppData\Local\Temp\ccde7Qmv.s:1137   .text.print_buffer:0000000000000008 .L0 
C:\Users\stapi\AppData\Local\Temp\ccde7Qmv.s:1138   .text.print_buffer:0000000000000008 .L0 
C:\Users\stapi\AppData\Local\Temp\ccde7Qmv.s:1139   .text.print_buffer:0000000000000008 .L0 
C:\Users\stapi\AppData\Local\Temp\ccde7Qmv.s:1140   .text.print_buffer:0000000000000008 .L0 
C:\Users\stapi\AppData\Local\Temp\ccde7Qmv.s:1142   .text.print_buffer:0000000000000008 .L0 
C:\Users\stapi\AppData\Local\Temp\ccde7Qmv.s:1143   .text.print_buffer:0000000000000008 .L0 
C:\Users\stapi\AppData\Local\Temp\ccde7Qmv.s:1144   .text.print_buffer:0000000000000008 .L0 
C:\Users\stapi\AppData\Local\Temp\ccde7Qmv.s:1146   .text.print_buffer:000000000000000a .L0 
C:\Users\stapi\AppData\Local\Temp\ccde7Qmv.s:1149   .text.print_buffer:000000000000000e .L0 
C:\Users\stapi\AppData\Local\Temp\ccde7Qmv.s:1151   .text.print_buffer:0000000000000012 .L0 
C:\Users\stapi\AppData\Local\Temp\ccde7Qmv.s:1152   .text.print_buffer:0000000000000014 .L0 
C:\Users\stapi\AppData\Local\Temp\ccde7Qmv.s:1155   .text.print_buffer:0000000000000014 .L0 
C:\Users\stapi\AppData\Local\Temp\ccde7Qmv.s:1156   .text.print_buffer:0000000000000014 .L0 
C:\Users\stapi\AppData\Local\Temp\ccde7Qmv.s:1157   .text.print_buffer:0000000000000014 .L0 
C:\Users\stapi\AppData\Local\Temp\ccde7Qmv.s:1158   .text.print_buffer:0000000000000014 .L0 
C:\Users\stapi\AppData\Local\Temp\ccde7Qmv.s:1162   .text.print_buffer:0000000000000018 .L0 
C:\Users\stapi\AppData\Local\Temp\ccde7Qmv.s:1163   .text.print_buffer:0000000000000018 .L0 
C:\Users\stapi\AppData\Local\Temp\ccde7Qmv.s:1164   .text.print_buffer:0000000000000018 .L0 
C:\Users\stapi\AppData\Local\Temp\ccde7Qmv.s:1167   .text.print_buffer:000000000000001c .L0 
C:\Users\stapi\AppData\Local\Temp\ccde7Qmv.s:1169   .text.print_buffer:0000000000000020 .L0 
C:\Users\stapi\AppData\Local\Temp\ccde7Qmv.s:1170   .text.print_buffer:0000000000000020 .L0 
C:\Users\stapi\AppData\Local\Temp\ccde7Qmv.s:1174   .text.print_buffer:0000000000000024 .L0 
C:\Users\stapi\AppData\Local\Temp\ccde7Qmv.s:1175   .text.print_buffer:0000000000000024 .L0 
C:\Users\stapi\AppData\Local\Temp\ccde7Qmv.s:1177   .text.print_buffer:0000000000000028 .L0 
C:\Users\stapi\AppData\Local\Temp\ccde7Qmv.s:1178   .text.print_buffer:0000000000000028 .L0 
C:\Users\stapi\AppData\Local\Temp\ccde7Qmv.s:1183   .text.print_buffer:000000000000002e .L0 
C:\Users\stapi\AppData\Local\Temp\ccde7Qmv.s:1187   .text.print_buffer:0000000000000032 .L0 
C:\Users\stapi\AppData\Local\Temp\ccde7Qmv.s:1189   .text.print_buffer:0000000000000034 .L0 
C:\Users\stapi\AppData\Local\Temp\ccde7Qmv.s:1190   .text.print_buffer:0000000000000034 .L0 
C:\Users\stapi\AppData\Local\Temp\ccde7Qmv.s:1192   .text.print_buffer:0000000000000038 .L0 
C:\Users\stapi\AppData\Local\Temp\ccde7Qmv.s:1193   .text.print_buffer:0000000000000038 .L0 
C:\Users\stapi\AppData\Local\Temp\ccde7Qmv.s:1196   .text.print_buffer:0000000000000040 .L0 
C:\Users\stapi\AppData\Local\Temp\ccde7Qmv.s:1197   .text.print_buffer:0000000000000040 .L0 
C:\Users\stapi\AppData\Local\Temp\ccde7Qmv.s:1198   .text.print_buffer:0000000000000040 .L0 
C:\Users\stapi\AppData\Local\Temp\ccde7Qmv.s:1199   .text.print_buffer:0000000000000040 .L0 
C:\Users\stapi\AppData\Local\Temp\ccde7Qmv.s:1200   .text.print_buffer:0000000000000040 .L0 
C:\Users\stapi\AppData\Local\Temp\ccde7Qmv.s:1201   .text.print_buffer:0000000000000040 .L0 
C:\Users\stapi\AppData\Local\Temp\ccde7Qmv.s:1202   .text.print_buffer:0000000000000040 .L0 
C:\Users\stapi\AppData\Local\Temp\ccde7Qmv.s:1203   .text.print_buffer:0000000000000040 .L0 
C:\Users\stapi\AppData\Local\Temp\ccde7Qmv.s:1204   .text.print_buffer:0000000000000040 .L0 
C:\Users\stapi\AppData\Local\Temp\ccde7Qmv.s:1205   .text.print_buffer:0000000000000040 .L0 
C:\Users\stapi\AppData\Local\Temp\ccde7Qmv.s:1206   .text.print_buffer:0000000000000040 .L0 
C:\Users\stapi\AppData\Local\Temp\ccde7Qmv.s:1207   .text.print_buffer:0000000000000040 .L0 
C:\Users\stapi\AppData\Local\Temp\ccde7Qmv.s:1208   .text.print_buffer:0000000000000040 .L0 
C:\Users\stapi\AppData\Local\Temp\ccde7Qmv.s:1209   .text.print_buffer:0000000000000040 .L0 
C:\Users\stapi\AppData\Local\Temp\ccde7Qmv.s:1212   .text.print_buffer:0000000000000040 .L0 
C:\Users\stapi\AppData\Local\Temp\ccde7Qmv.s:1214   .text.print_buffer:0000000000000040 .L0 
C:\Users\stapi\AppData\Local\Temp\ccde7Qmv.s:1221   .text.print_buffer:0000000000000054 .L0 
C:\Users\stapi\AppData\Local\Temp\ccde7Qmv.s:1222   .text.print_buffer:0000000000000054 .L0 
C:\Users\stapi\AppData\Local\Temp\ccde7Qmv.s:1225   .text.print_buffer:0000000000000058 .L0 
C:\Users\stapi\AppData\Local\Temp\ccde7Qmv.s:1228   .text.print_buffer:000000000000005c .L0 
C:\Users\stapi\AppData\Local\Temp\ccde7Qmv.s:1233   .text.print_buffer:0000000000000062 .L0 
C:\Users\stapi\AppData\Local\Temp\ccde7Qmv.s:1234   .text.print_buffer:0000000000000062 .L0 
C:\Users\stapi\AppData\Local\Temp\ccde7Qmv.s:1235   .text.print_buffer:0000000000000062 .L0 
C:\Users\stapi\AppData\Local\Temp\ccde7Qmv.s:1241   .text.print_buffer:000000000000006a .L0 
C:\Users\stapi\AppData\Local\Temp\ccde7Qmv.s:1247   .text.print_buffer:0000000000000074 .L0 
C:\Users\stapi\AppData\Local\Temp\ccde7Qmv.s:1254   .text.print_buffer:000000000000007a .L0 
C:\Users\stapi\AppData\Local\Temp\ccde7Qmv.s:1255   .text.print_buffer:000000000000007a .L0 
C:\Users\stapi\AppData\Local\Temp\ccde7Qmv.s:1258   .text.print_buffer:000000000000007a .L0 
C:\Users\stapi\AppData\Local\Temp\ccde7Qmv.s:1259   .text.print_buffer:000000000000007a .L0 
C:\Users\stapi\AppData\Local\Temp\ccde7Qmv.s:1260   .text.print_buffer:000000000000007a .L0 
C:\Users\stapi\AppData\Local\Temp\ccde7Qmv.s:1263   .text.print_buffer:000000000000007c .L0 
C:\Users\stapi\AppData\Local\Temp\ccde7Qmv.s:1267   .text.print_buffer:000000000000007e .L0 
C:\Users\stapi\AppData\Local\Temp\ccde7Qmv.s:1268   .text.print_buffer:000000000000007e .L0 
C:\Users\stapi\AppData\Local\Temp\ccde7Qmv.s:1271   .text.print_buffer:0000000000000084 .L0 
C:\Users\stapi\AppData\Local\Temp\ccde7Qmv.s:1272   .text.print_buffer:0000000000000084 .L0 
C:\Users\stapi\AppData\Local\Temp\ccde7Qmv.s:1274   .text.print_buffer:0000000000000088 .L0 
C:\Users\stapi\AppData\Local\Temp\ccde7Qmv.s:1276   .text.print_buffer:000000000000008c .L0 
C:\Users\stapi\AppData\Local\Temp\ccde7Qmv.s:1279   .text.print_buffer:0000000000000090 .L0 
C:\Users\stapi\AppData\Local\Temp\ccde7Qmv.s:1280   .text.print_buffer:0000000000000090 .L0 
C:\Users\stapi\AppData\Local\Temp\ccde7Qmv.s:1283   .text.print_buffer:0000000000000098 .L0 
C:\Users\stapi\AppData\Local\Temp\ccde7Qmv.s:1284   .text.print_buffer:0000000000000098 .L0 
C:\Users\stapi\AppData\Local\Temp\ccde7Qmv.s:1287   .text.print_buffer:000000000000009a .L0 
C:\Users\stapi\AppData\Local\Temp\ccde7Qmv.s:1288   .text.print_buffer:000000000000009a .L0 
C:\Users\stapi\AppData\Local\Temp\ccde7Qmv.s:1295   .text.print_buffer:00000000000000a2 .L0 
C:\Users\stapi\AppData\Local\Temp\ccde7Qmv.s:1296   .text.print_buffer:00000000000000a2 .L0 
C:\Users\stapi\AppData\Local\Temp\ccde7Qmv.s:1298   .text.print_buffer:00000000000000a6 .L0 
C:\Users\stapi\AppData\Local\Temp\ccde7Qmv.s:1299   .text.print_buffer:00000000000000a6 .L0 
C:\Users\stapi\AppData\Local\Temp\ccde7Qmv.s:1301   .text.print_buffer:00000000000000aa .L0 
C:\Users\stapi\AppData\Local\Temp\ccde7Qmv.s:1304   .text.print_buffer:00000000000000b2 .L0 
C:\Users\stapi\AppData\Local\Temp\ccde7Qmv.s:1306   .text.print_buffer:00000000000000b6 .L0 
C:\Users\stapi\AppData\Local\Temp\ccde7Qmv.s:1308   .text.print_buffer:00000000000000ba .L0 
C:\Users\stapi\AppData\Local\Temp\ccde7Qmv.s:1311   .text.print_buffer:00000000000000bc .L0 
C:\Users\stapi\AppData\Local\Temp\ccde7Qmv.s:1312   .text.print_buffer:00000000000000bc .L0 
C:\Users\stapi\AppData\Local\Temp\ccde7Qmv.s:1314   .text.print_buffer:00000000000000c0 .L0 
C:\Users\stapi\AppData\Local\Temp\ccde7Qmv.s:1316   .text.print_buffer:00000000000000c4 .L0 
C:\Users\stapi\AppData\Local\Temp\ccde7Qmv.s:1318   .text.print_buffer:00000000000000c8 .L0 
C:\Users\stapi\AppData\Local\Temp\ccde7Qmv.s:1320   .text.print_buffer:00000000000000cc .L0 
C:\Users\stapi\AppData\Local\Temp\ccde7Qmv.s:1322   .text.print_buffer:00000000000000d0 .L0 
C:\Users\stapi\AppData\Local\Temp\ccde7Qmv.s:1324   .text.print_buffer:00000000000000d6 .L0 
C:\Users\stapi\AppData\Local\Temp\ccde7Qmv.s:1335   .text.debug_print_dump_data:0000000000000000 debug_print_dump_data
C:\Users\stapi\AppData\Local\Temp\ccde7Qmv.s:1338   .text.debug_print_dump_data:0000000000000000 .L0 
C:\Users\stapi\AppData\Local\Temp\ccde7Qmv.s:1340   .text.debug_print_dump_data:0000000000000000 .L0 
C:\Users\stapi\AppData\Local\Temp\ccde7Qmv.s:1341   .text.debug_print_dump_data:0000000000000008 .L0 
C:\Users\stapi\AppData\Local\Temp\ccde7Qmv.s:1342   .text.debug_print_dump_data:0000000000000008 .L0 
C:\Users\stapi\AppData\Local\Temp\ccde7Qmv.s:1343   .text.debug_print_dump_data:0000000000000008 .L0 
C:\Users\stapi\AppData\Local\Temp\ccde7Qmv.s:1345   .text.debug_print_dump_data:0000000000000008 .L0 
C:\Users\stapi\AppData\Local\Temp\ccde7Qmv.s:1346   .text.debug_print_dump_data:0000000000000008 .L0 
C:\Users\stapi\AppData\Local\Temp\ccde7Qmv.s:1347   .text.debug_print_dump_data:000000000000000a .L0 
C:\Users\stapi\AppData\Local\Temp\ccde7Qmv.s:1349   .text.debug_print_dump_data:000000000000000a .L0 
C:\Users\stapi\AppData\Local\Temp\ccde7Qmv.s:1352   .text.debug_print_dump_data:000000000000000e .L0 
C:\Users\stapi\AppData\Local\Temp\ccde7Qmv.s:1354   .text.debug_print_dump_data:0000000000000010 .L0 
C:\Users\stapi\AppData\Local\Temp\ccde7Qmv.s:1361   .text.debug_print_dump_data:000000000000001c .L0 
C:\Users\stapi\AppData\Local\Temp\ccde7Qmv.s:1367   .text.debug_print_dump_data:0000000000000026 .L0 
C:\Users\stapi\AppData\Local\Temp\ccde7Qmv.s:1368   .text.debug_print_dump_data:0000000000000026 .L0 
C:\Users\stapi\AppData\Local\Temp\ccde7Qmv.s:1370   .text.debug_print_dump_data:0000000000000028 .L0 
C:\Users\stapi\AppData\Local\Temp\ccde7Qmv.s:1378   .text.debug_print_dump_data:0000000000000038 .L0 
C:\Users\stapi\AppData\Local\Temp\ccde7Qmv.s:1379   .text.debug_print_dump_data:000000000000003a .L0 
C:\Users\stapi\AppData\Local\Temp\ccde7Qmv.s:1381   .text.debug_print_dump_data:0000000000000042 .L0 
C:\Users\stapi\AppData\Local\Temp\ccde7Qmv.s:1382   .text.debug_print_dump_data:0000000000000042 .L0 
C:\Users\stapi\AppData\Local\Temp\ccde7Qmv.s:1383   .text.debug_print_dump_data:0000000000000042 .L0 
C:\Users\stapi\AppData\Local\Temp\ccde7Qmv.s:1384   .text.debug_print_dump_data:0000000000000042 .L0 
C:\Users\stapi\AppData\Local\Temp\ccde7Qmv.s:1395   .text.str2hex:0000000000000000 str2hex
C:\Users\stapi\AppData\Local\Temp\ccde7Qmv.s:1398   .text.str2hex:0000000000000000 .L0 
C:\Users\stapi\AppData\Local\Temp\ccde7Qmv.s:1400   .text.str2hex:0000000000000000 .L0 
C:\Users\stapi\AppData\Local\Temp\ccde7Qmv.s:1401   .text.str2hex:0000000000000000 .L0 
C:\Users\stapi\AppData\Local\Temp\ccde7Qmv.s:1402   .text.str2hex:0000000000000000 .L0 
C:\Users\stapi\AppData\Local\Temp\ccde7Qmv.s:1403   .text.str2hex:0000000000000000 .L0 
C:\Users\stapi\AppData\Local\Temp\ccde7Qmv.s:1404   .text.str2hex:0000000000000000 .L0 
C:\Users\stapi\AppData\Local\Temp\ccde7Qmv.s:1406   .text.str2hex:0000000000000002 .L0 
C:\Users\stapi\AppData\Local\Temp\ccde7Qmv.s:1407   .text.str2hex:000000000000000a .L0 
C:\Users\stapi\AppData\Local\Temp\ccde7Qmv.s:1408   .text.str2hex:000000000000000a .L0 
C:\Users\stapi\AppData\Local\Temp\ccde7Qmv.s:1409   .text.str2hex:000000000000000a .L0 
C:\Users\stapi\AppData\Local\Temp\ccde7Qmv.s:1410   .text.str2hex:000000000000000a .L0 
C:\Users\stapi\AppData\Local\Temp\ccde7Qmv.s:1411   .text.str2hex:000000000000000a .L0 
C:\Users\stapi\AppData\Local\Temp\ccde7Qmv.s:1415   .text.str2hex:000000000000000e .L0 
C:\Users\stapi\AppData\Local\Temp\ccde7Qmv.s:1418   .text.str2hex:0000000000000010 .L0 
C:\Users\stapi\AppData\Local\Temp\ccde7Qmv.s:1420   .text.str2hex:0000000000000014 .L0 
C:\Users\stapi\AppData\Local\Temp\ccde7Qmv.s:1422   .text.str2hex:0000000000000018 .L0 
C:\Users\stapi\AppData\Local\Temp\ccde7Qmv.s:1425   .text.str2hex:000000000000001c .L0 
C:\Users\stapi\AppData\Local\Temp\ccde7Qmv.s:1427   .text.str2hex:000000000000001e .L0 
C:\Users\stapi\AppData\Local\Temp\ccde7Qmv.s:1431   .text.str2hex:0000000000000024 .L0 
C:\Users\stapi\AppData\Local\Temp\ccde7Qmv.s:1433   .text.str2hex:0000000000000028 .L0 
C:\Users\stapi\AppData\Local\Temp\ccde7Qmv.s:1439   .text.str2hex:0000000000000034 .L0 
C:\Users\stapi\AppData\Local\Temp\ccde7Qmv.s:1440   .text.str2hex:0000000000000034 .L0 
C:\Users\stapi\AppData\Local\Temp\ccde7Qmv.s:1442   .text.str2hex:0000000000000036 .L0 
C:\Users\stapi\AppData\Local\Temp\ccde7Qmv.s:1444   .text.str2hex:0000000000000038 .L0 
C:\Users\stapi\AppData\Local\Temp\ccde7Qmv.s:1446   .text.str2hex:000000000000003a .L0 
C:\Users\stapi\AppData\Local\Temp\ccde7Qmv.s:1450   .text.str2hex:000000000000003c .L0 
C:\Users\stapi\AppData\Local\Temp\ccde7Qmv.s:1451   .text.str2hex:000000000000003c .L0 
C:\Users\stapi\AppData\Local\Temp\ccde7Qmv.s:1455   .text.str2hex:0000000000000048 .L0 
C:\Users\stapi\AppData\Local\Temp\ccde7Qmv.s:1457   .text.str2hex:000000000000004c .L0 
C:\Users\stapi\AppData\Local\Temp\ccde7Qmv.s:1458   .text.str2hex:000000000000004c .L0 
C:\Users\stapi\AppData\Local\Temp\ccde7Qmv.s:1462   .text.str2hex:0000000000000050 .L0 
C:\Users\stapi\AppData\Local\Temp\ccde7Qmv.s:1463   .text.str2hex:0000000000000050 .L0 
C:\Users\stapi\AppData\Local\Temp\ccde7Qmv.s:1465   .text.str2hex:0000000000000054 .L0 
C:\Users\stapi\AppData\Local\Temp\ccde7Qmv.s:1468   .text.str2hex:000000000000005a .L0 
C:\Users\stapi\AppData\Local\Temp\ccde7Qmv.s:1470   .text.str2hex:000000000000005e .L0 
C:\Users\stapi\AppData\Local\Temp\ccde7Qmv.s:1474   .text.str2hex:0000000000000068 .L0 
C:\Users\stapi\AppData\Local\Temp\ccde7Qmv.s:1475   .text.str2hex:0000000000000068 .L0 
C:\Users\stapi\AppData\Local\Temp\ccde7Qmv.s:1479   .text.str2hex:0000000000000074 .L0 
C:\Users\stapi\AppData\Local\Temp\ccde7Qmv.s:1481   .text.str2hex:0000000000000078 .L0 
C:\Users\stapi\AppData\Local\Temp\ccde7Qmv.s:1482   .text.str2hex:0000000000000078 .L0 
C:\Users\stapi\AppData\Local\Temp\ccde7Qmv.s:1486   .text.str2hex:000000000000007c .L0 
C:\Users\stapi\AppData\Local\Temp\ccde7Qmv.s:1487   .text.str2hex:000000000000007c .L0 
C:\Users\stapi\AppData\Local\Temp\ccde7Qmv.s:1491   .text.str2hex:0000000000000082 .L0 
C:\Users\stapi\AppData\Local\Temp\ccde7Qmv.s:1492   .text.str2hex:0000000000000082 .L0 
C:\Users\stapi\AppData\Local\Temp\ccde7Qmv.s:1495   .text.str2hex:0000000000000084 .L0 
C:\Users\stapi\AppData\Local\Temp\ccde7Qmv.s:1496   .text.str2hex:0000000000000084 .L0 
C:\Users\stapi\AppData\Local\Temp\ccde7Qmv.s:1499   .text.str2hex:000000000000008a .L0 
C:\Users\stapi\AppData\Local\Temp\ccde7Qmv.s:1503   .text.str2hex:000000000000008e .L0 
C:\Users\stapi\AppData\Local\Temp\ccde7Qmv.s:1504   .text.str2hex:000000000000008e .L0 
C:\Users\stapi\AppData\Local\Temp\ccde7Qmv.s:1506   .text.str2hex:0000000000000092 .L0 
C:\Users\stapi\AppData\Local\Temp\ccde7Qmv.s:1509   .text.str2hex:000000000000009a .L0 
C:\Users\stapi\AppData\Local\Temp\ccde7Qmv.s:1510   .text.str2hex:000000000000009a .L0 
C:\Users\stapi\AppData\Local\Temp\ccde7Qmv.s:1513   .text.str2hex:000000000000009e .L0 
C:\Users\stapi\AppData\Local\Temp\ccde7Qmv.s:1519   .text.str2hex:00000000000000a4 .L0 
C:\Users\stapi\AppData\Local\Temp\ccde7Qmv.s:1520   .text.str2hex:00000000000000a4 .L0 
C:\Users\stapi\AppData\Local\Temp\ccde7Qmv.s:1522   .text.str2hex:00000000000000a8 .L0 
C:\Users\stapi\AppData\Local\Temp\ccde7Qmv.s:1525   .text.str2hex:00000000000000b0 .L0 
C:\Users\stapi\AppData\Local\Temp\ccde7Qmv.s:1526   .text.str2hex:00000000000000b0 .L0 
C:\Users\stapi\AppData\Local\Temp\ccde7Qmv.s:1531   .text.str2hex:00000000000000b6 .L0 
C:\Users\stapi\AppData\Local\Temp\ccde7Qmv.s:1532   .text.str2hex:00000000000000b6 .L0 
C:\Users\stapi\AppData\Local\Temp\ccde7Qmv.s:1534   .text.str2hex:00000000000000ba .L0 
C:\Users\stapi\AppData\Local\Temp\ccde7Qmv.s:1537   .text.str2hex:00000000000000c2 .L0 
C:\Users\stapi\AppData\Local\Temp\ccde7Qmv.s:1538   .text.str2hex:00000000000000c2 .L0 
C:\Users\stapi\AppData\Local\Temp\ccde7Qmv.s:1541   .text.str2hex:00000000000000c6 .L0 
C:\Users\stapi\AppData\Local\Temp\ccde7Qmv.s:1547   .text.str2hex:00000000000000cc .L0 
C:\Users\stapi\AppData\Local\Temp\ccde7Qmv.s:1548   .text.str2hex:00000000000000cc .L0 
C:\Users\stapi\AppData\Local\Temp\ccde7Qmv.s:1550   .text.str2hex:00000000000000d0 .L0 
C:\Users\stapi\AppData\Local\Temp\ccde7Qmv.s:1553   .text.str2hex:00000000000000d8 .L0 
C:\Users\stapi\AppData\Local\Temp\ccde7Qmv.s:1554   .text.str2hex:00000000000000d8 .L0 
C:\Users\stapi\AppData\Local\Temp\ccde7Qmv.s:1558   .text.str2hex:00000000000000de .L0 
C:\Users\stapi\AppData\Local\Temp\ccde7Qmv.s:1563   .text.str2hex:00000000000000ee .L0 
C:\Users\stapi\AppData\Local\Temp\ccde7Qmv.s:1564   .text.str2hex:00000000000000ee .L0 
C:\Users\stapi\AppData\Local\Temp\ccde7Qmv.s:1568   .text.str2hex:00000000000000f0 .L0 
C:\Users\stapi\AppData\Local\Temp\ccde7Qmv.s:1569   .text.str2hex:00000000000000f8 .L0 
C:\Users\stapi\AppData\Local\Temp\ccde7Qmv.s:1570   .text.str2hex:00000000000000f8 .L0 
C:\Users\stapi\AppData\Local\Temp\ccde7Qmv.s:1571   .text.str2hex:00000000000000f8 .L0 
C:\Users\stapi\AppData\Local\Temp\ccde7Qmv.s:1572   .text.str2hex:00000000000000f8 .L0 
C:\Users\stapi\AppData\Local\Temp\ccde7Qmv.s:1573   .text.str2hex:00000000000000f8 .L0 
C:\Users\stapi\AppData\Local\Temp\ccde7Qmv.s:1577   .text.str2hex:00000000000000f8 .L0 
C:\Users\stapi\AppData\Local\Temp\ccde7Qmv.s:1580   .text.str2hex:00000000000000fa .L0 
C:\Users\stapi\AppData\Local\Temp\ccde7Qmv.s:1583   .text.str2hex:00000000000000fc .L0 
C:\Users\stapi\AppData\Local\Temp\ccde7Qmv.s:1584   .text.str2hex:00000000000000fc .L0 
C:\Users\stapi\AppData\Local\Temp\ccde7Qmv.s:1585   .text.str2hex:00000000000000fc .L0 
C:\Users\stapi\AppData\Local\Temp\ccde7Qmv.s:1586   .text.str2hex:00000000000000fc .L0 
C:\Users\stapi\AppData\Local\Temp\ccde7Qmv.s:1587   .text.str2hex:00000000000000fc .L0 
C:\Users\stapi\AppData\Local\Temp\ccde7Qmv.s:1589   .text.str2hex:00000000000000fc .L0 
C:\Users\stapi\AppData\Local\Temp\ccde7Qmv.s:1591   .text.str2hex:0000000000000100 .L0 
C:\Users\stapi\AppData\Local\Temp\ccde7Qmv.s:1598   .text.dbg_vsnprintf_offset:0000000000000000 dbg_vsnprintf_offset
C:\Users\stapi\AppData\Local\Temp\ccde7Qmv.s:1601   .text.dbg_vsnprintf_offset:0000000000000000 .L0 
C:\Users\stapi\AppData\Local\Temp\ccde7Qmv.s:1603   .text.dbg_vsnprintf_offset:0000000000000000 .L0 
C:\Users\stapi\AppData\Local\Temp\ccde7Qmv.s:1604   .text.dbg_vsnprintf_offset:0000000000000002 .L0 
C:\Users\stapi\AppData\Local\Temp\ccde7Qmv.s:1617   .text.dbg_vsnprintf_offset:000000000000001a .L0 
C:\Users\stapi\AppData\Local\Temp\ccde7Qmv.s:1618   .text.dbg_vsnprintf_offset:000000000000001a .L0 
C:\Users\stapi\AppData\Local\Temp\ccde7Qmv.s:1619   .text.dbg_vsnprintf_offset:000000000000001a .L0 
C:\Users\stapi\AppData\Local\Temp\ccde7Qmv.s:1620   .text.dbg_vsnprintf_offset:000000000000001a .L0 
C:\Users\stapi\AppData\Local\Temp\ccde7Qmv.s:1621   .text.dbg_vsnprintf_offset:000000000000001a .L0 
C:\Users\stapi\AppData\Local\Temp\ccde7Qmv.s:1622   .text.dbg_vsnprintf_offset:000000000000001a .L0 
C:\Users\stapi\AppData\Local\Temp\ccde7Qmv.s:1623   .text.dbg_vsnprintf_offset:000000000000001a .L0 
C:\Users\stapi\AppData\Local\Temp\ccde7Qmv.s:1624   .text.dbg_vsnprintf_offset:000000000000001a .L0 
C:\Users\stapi\AppData\Local\Temp\ccde7Qmv.s:1625   .text.dbg_vsnprintf_offset:000000000000001a .L0 
C:\Users\stapi\AppData\Local\Temp\ccde7Qmv.s:1626   .text.dbg_vsnprintf_offset:000000000000001a .L0 
C:\Users\stapi\AppData\Local\Temp\ccde7Qmv.s:1627   .text.dbg_vsnprintf_offset:000000000000001a .L0 
C:\Users\stapi\AppData\Local\Temp\ccde7Qmv.s:1628   .text.dbg_vsnprintf_offset:000000000000001a .L0 
C:\Users\stapi\AppData\Local\Temp\ccde7Qmv.s:1630   .text.dbg_vsnprintf_offset:000000000000001a .L0 
C:\Users\stapi\AppData\Local\Temp\ccde7Qmv.s:1633   .text.dbg_vsnprintf_offset:000000000000001c .L0 
C:\Users\stapi\AppData\Local\Temp\ccde7Qmv.s:1634   .text.dbg_vsnprintf_offset:000000000000001c .L0 
C:\Users\stapi\AppData\Local\Temp\ccde7Qmv.s:1635   .text.dbg_vsnprintf_offset:000000000000001c .L0 
C:\Users\stapi\AppData\Local\Temp\ccde7Qmv.s:1636   .text.dbg_vsnprintf_offset:000000000000001c .L0 
C:\Users\stapi\AppData\Local\Temp\ccde7Qmv.s:1637   .text.dbg_vsnprintf_offset:000000000000001c .L0 
C:\Users\stapi\AppData\Local\Temp\ccde7Qmv.s:1638   .text.dbg_vsnprintf_offset:000000000000001c .L0 
C:\Users\stapi\AppData\Local\Temp\ccde7Qmv.s:1639   .text.dbg_vsnprintf_offset:000000000000001c .L0 
C:\Users\stapi\AppData\Local\Temp\ccde7Qmv.s:1640   .text.dbg_vsnprintf_offset:000000000000001c .L0 
C:\Users\stapi\AppData\Local\Temp\ccde7Qmv.s:1641   .text.dbg_vsnprintf_offset:000000000000001c .L0 
C:\Users\stapi\AppData\Local\Temp\ccde7Qmv.s:1642   .text.dbg_vsnprintf_offset:000000000000001c .L0 
C:\Users\stapi\AppData\Local\Temp\ccde7Qmv.s:1643   .text.dbg_vsnprintf_offset:000000000000001c .L0 
C:\Users\stapi\AppData\Local\Temp\ccde7Qmv.s:1644   .text.dbg_vsnprintf_offset:000000000000001c .L0 
C:\Users\stapi\AppData\Local\Temp\ccde7Qmv.s:1645   .text.dbg_vsnprintf_offset:000000000000001c .L0 
C:\Users\stapi\AppData\Local\Temp\ccde7Qmv.s:1646   .text.dbg_vsnprintf_offset:000000000000001c .L0 
C:\Users\stapi\AppData\Local\Temp\ccde7Qmv.s:1648   .text.dbg_vsnprintf_offset:000000000000001e .L0 
C:\Users\stapi\AppData\Local\Temp\ccde7Qmv.s:1652   .text.dbg_vsnprintf_offset:0000000000000020 .L0 
C:\Users\stapi\AppData\Local\Temp\ccde7Qmv.s:1653   .text.dbg_vsnprintf_offset:0000000000000020 .L0 
C:\Users\stapi\AppData\Local\Temp\ccde7Qmv.s:1657   .text.dbg_vsnprintf_offset:000000000000002c .L0 
C:\Users\stapi\AppData\Local\Temp\ccde7Qmv.s:1660   .text.dbg_vsnprintf_offset:0000000000000034 .L0 
C:\Users\stapi\AppData\Local\Temp\ccde7Qmv.s:1664   .text.dbg_vsnprintf_offset:000000000000003e .L0 
C:\Users\stapi\AppData\Local\Temp\ccde7Qmv.s:1666   .text.dbg_vsnprintf_offset:0000000000000040 .L0 
C:\Users\stapi\AppData\Local\Temp\ccde7Qmv.s:1669   .text.dbg_vsnprintf_offset:0000000000000042 .L0 
C:\Users\stapi\AppData\Local\Temp\ccde7Qmv.s:1671   .text.dbg_vsnprintf_offset:0000000000000044 .L0 
C:\Users\stapi\AppData\Local\Temp\ccde7Qmv.s:1673   .text.dbg_vsnprintf_offset:0000000000000046 .L0 
C:\Users\stapi\AppData\Local\Temp\ccde7Qmv.s:1675   .text.dbg_vsnprintf_offset:0000000000000048 .L0 
C:\Users\stapi\AppData\Local\Temp\ccde7Qmv.s:1677   .text.dbg_vsnprintf_offset:000000000000004a .L0 
C:\Users\stapi\AppData\Local\Temp\ccde7Qmv.s:1681   .text.dbg_vsnprintf_offset:000000000000004c .L0 
C:\Users\stapi\AppData\Local\Temp\ccde7Qmv.s:1688   .text.dbg_vsnprintf_offset:000000000000005a .L0 
C:\Users\stapi\AppData\Local\Temp\ccde7Qmv.s:1691   .text.dbg_vsnprintf_offset:0000000000000062 .L0 
C:\Users\stapi\AppData\Local\Temp\ccde7Qmv.s:1693   .text.dbg_vsnprintf_offset:0000000000000066 .L0 
C:\Users\stapi\AppData\Local\Temp\ccde7Qmv.s:1699   .text.dbg_vsnprintf_offset:0000000000000070 .L0 
C:\Users\stapi\AppData\Local\Temp\ccde7Qmv.s:1700   .text.dbg_vsnprintf_offset:0000000000000070 .L0 
C:\Users\stapi\AppData\Local\Temp\ccde7Qmv.s:1703   .text.dbg_vsnprintf_offset:0000000000000072 .L0 
C:\Users\stapi\AppData\Local\Temp\ccde7Qmv.s:1706   .text.dbg_vsnprintf_offset:0000000000000076 .L0 
C:\Users\stapi\AppData\Local\Temp\ccde7Qmv.s:1708   .text.dbg_vsnprintf_offset:000000000000007a .L0 
C:\Users\stapi\AppData\Local\Temp\ccde7Qmv.s:1709   .text.dbg_vsnprintf_offset:000000000000007a .L0 
C:\Users\stapi\AppData\Local\Temp\ccde7Qmv.s:1711   .text.dbg_vsnprintf_offset:000000000000007e .L0 
C:\Users\stapi\AppData\Local\Temp\ccde7Qmv.s:1712   .text.dbg_vsnprintf_offset:000000000000007e .L0 
C:\Users\stapi\AppData\Local\Temp\ccde7Qmv.s:1715   .text.dbg_vsnprintf_offset:0000000000000082 .L0 
C:\Users\stapi\AppData\Local\Temp\ccde7Qmv.s:1716   .text.dbg_vsnprintf_offset:0000000000000084 .L0 
C:\Users\stapi\AppData\Local\Temp\ccde7Qmv.s:1717   .text.dbg_vsnprintf_offset:0000000000000084 .L0 
C:\Users\stapi\AppData\Local\Temp\ccde7Qmv.s:1719   .text.dbg_vsnprintf_offset:0000000000000086 .L0 
C:\Users\stapi\AppData\Local\Temp\ccde7Qmv.s:1721   .text.dbg_vsnprintf_offset:0000000000000088 .L0 
C:\Users\stapi\AppData\Local\Temp\ccde7Qmv.s:1723   .text.dbg_vsnprintf_offset:000000000000008a .L0 
C:\Users\stapi\AppData\Local\Temp\ccde7Qmv.s:1725   .text.dbg_vsnprintf_offset:000000000000008c .L0 
C:\Users\stapi\AppData\Local\Temp\ccde7Qmv.s:1727   .text.dbg_vsnprintf_offset:000000000000008e .L0 
C:\Users\stapi\AppData\Local\Temp\ccde7Qmv.s:1729   .text.dbg_vsnprintf_offset:0000000000000090 .L0 
C:\Users\stapi\AppData\Local\Temp\ccde7Qmv.s:1731   .text.dbg_vsnprintf_offset:0000000000000092 .L0 
C:\Users\stapi\AppData\Local\Temp\ccde7Qmv.s:1733   .text.dbg_vsnprintf_offset:0000000000000094 .L0 
C:\Users\stapi\AppData\Local\Temp\ccde7Qmv.s:1735   .text.dbg_vsnprintf_offset:0000000000000096 .L0 
C:\Users\stapi\AppData\Local\Temp\ccde7Qmv.s:1737   .text.dbg_vsnprintf_offset:0000000000000098 .L0 
C:\Users\stapi\AppData\Local\Temp\ccde7Qmv.s:1739   .text.dbg_vsnprintf_offset:000000000000009a .L0 
C:\Users\stapi\AppData\Local\Temp\ccde7Qmv.s:1741   .text.dbg_vsnprintf_offset:000000000000009c .L0 
C:\Users\stapi\AppData\Local\Temp\ccde7Qmv.s:1744   .text.dbg_vsnprintf_offset:000000000000009e .L0 
C:\Users\stapi\AppData\Local\Temp\ccde7Qmv.s:1749   .text.dbg_vsnprintf_offset:000000000000009e .L0 
C:\Users\stapi\AppData\Local\Temp\ccde7Qmv.s:1750   .text.dbg_vsnprintf_offset:000000000000009e .L0 
C:\Users\stapi\AppData\Local\Temp\ccde7Qmv.s:1751   .text.dbg_vsnprintf_offset:000000000000009e .L0 
C:\Users\stapi\AppData\Local\Temp\ccde7Qmv.s:1756   .text.dbg_vsnprintf_offset:00000000000000a8 .L0 
C:\Users\stapi\AppData\Local\Temp\ccde7Qmv.s:1757   .text.dbg_vsnprintf_offset:00000000000000a8 .L0 
C:\Users\stapi\AppData\Local\Temp\ccde7Qmv.s:1759   .text.dbg_vsnprintf_offset:00000000000000ac .L0 
C:\Users\stapi\AppData\Local\Temp\ccde7Qmv.s:1762   .text.dbg_vsnprintf_offset:00000000000000b2 .L0 
C:\Users\stapi\AppData\Local\Temp\ccde7Qmv.s:1764   .text.dbg_vsnprintf_offset:00000000000000b4 .L0 
C:\Users\stapi\AppData\Local\Temp\ccde7Qmv.s:1766   .text.dbg_vsnprintf_offset:00000000000000b8 .L0 
C:\Users\stapi\AppData\Local\Temp\ccde7Qmv.s:1770   .text.dbg_vsnprintf_offset:00000000000000bc .L0 
C:\Users\stapi\AppData\Local\Temp\ccde7Qmv.s:1776   .text.dbg_vsnprintf_offset:00000000000000be .L0 
C:\Users\stapi\AppData\Local\Temp\ccde7Qmv.s:1777   .text.dbg_vsnprintf_offset:00000000000000be .L0 
C:\Users\stapi\AppData\Local\Temp\ccde7Qmv.s:1783   .text.dbg_vsnprintf_offset:00000000000000c8 .L0 
C:\Users\stapi\AppData\Local\Temp\ccde7Qmv.s:1785   .text.dbg_vsnprintf_offset:00000000000000ca .L0 
C:\Users\stapi\AppData\Local\Temp\ccde7Qmv.s:1840   .text.dbg_vsnprintf_offset:00000000000000f2 .L0 
C:\Users\stapi\AppData\Local\Temp\ccde7Qmv.s:1844   .text.dbg_vsnprintf_offset:00000000000000f6 .L0 
C:\Users\stapi\AppData\Local\Temp\ccde7Qmv.s:1852   .text.dbg_vsnprintf_offset:0000000000000112 .L0 
C:\Users\stapi\AppData\Local\Temp\ccde7Qmv.s:1857   .text.dbg_vsnprintf_offset:000000000000011a .L0 
C:\Users\stapi\AppData\Local\Temp\ccde7Qmv.s:1896   .text.dbg_vsnprintf_offset:0000000000000132 .L0 
C:\Users\stapi\AppData\Local\Temp\ccde7Qmv.s:1897   .text.dbg_vsnprintf_offset:0000000000000132 .L0 
C:\Users\stapi\AppData\Local\Temp\ccde7Qmv.s:1898   .text.dbg_vsnprintf_offset:0000000000000132 .L0 
C:\Users\stapi\AppData\Local\Temp\ccde7Qmv.s:1900   .text.dbg_vsnprintf_offset:0000000000000134 .L0 
C:\Users\stapi\AppData\Local\Temp\ccde7Qmv.s:1904   .text.dbg_vsnprintf_offset:0000000000000136 .L0 
C:\Users\stapi\AppData\Local\Temp\ccde7Qmv.s:1905   .text.dbg_vsnprintf_offset:0000000000000136 .L0 
C:\Users\stapi\AppData\Local\Temp\ccde7Qmv.s:1906   .text.dbg_vsnprintf_offset:0000000000000136 .L0 
C:\Users\stapi\AppData\Local\Temp\ccde7Qmv.s:1908   .text.dbg_vsnprintf_offset:0000000000000138 .L0 
C:\Users\stapi\AppData\Local\Temp\ccde7Qmv.s:1912   .text.dbg_vsnprintf_offset:000000000000013a .L0 
C:\Users\stapi\AppData\Local\Temp\ccde7Qmv.s:1913   .text.dbg_vsnprintf_offset:000000000000013a .L0 
C:\Users\stapi\AppData\Local\Temp\ccde7Qmv.s:1914   .text.dbg_vsnprintf_offset:000000000000013a .L0 
C:\Users\stapi\AppData\Local\Temp\ccde7Qmv.s:1916   .text.dbg_vsnprintf_offset:000000000000013c .L0 
C:\Users\stapi\AppData\Local\Temp\ccde7Qmv.s:1920   .text.dbg_vsnprintf_offset:000000000000013e .L0 
C:\Users\stapi\AppData\Local\Temp\ccde7Qmv.s:1924   .text.dbg_vsnprintf_offset:0000000000000142 .L0 
C:\Users\stapi\AppData\Local\Temp\ccde7Qmv.s:1931   .text.dbg_vsnprintf_offset:0000000000000146 .L0 
C:\Users\stapi\AppData\Local\Temp\ccde7Qmv.s:1942   .text.dbg_vsnprintf_offset:0000000000000150 .L0 
C:\Users\stapi\AppData\Local\Temp\ccde7Qmv.s:1944   .text.dbg_vsnprintf_offset:0000000000000154 .L0 
C:\Users\stapi\AppData\Local\Temp\ccde7Qmv.s:1947   .text.dbg_vsnprintf_offset:0000000000000158 .L0 
C:\Users\stapi\AppData\Local\Temp\ccde7Qmv.s:1949   .text.dbg_vsnprintf_offset:000000000000015c .L0 
C:\Users\stapi\AppData\Local\Temp\ccde7Qmv.s:1955   .text.dbg_vsnprintf_offset:0000000000000160 .L0 
C:\Users\stapi\AppData\Local\Temp\ccde7Qmv.s:1958   .text.dbg_vsnprintf_offset:0000000000000162 .L0 
C:\Users\stapi\AppData\Local\Temp\ccde7Qmv.s:1962   .text.dbg_vsnprintf_offset:0000000000000166 .L0 
C:\Users\stapi\AppData\Local\Temp\ccde7Qmv.s:1971   .text.dbg_vsnprintf_offset:000000000000017e .L0 
C:\Users\stapi\AppData\Local\Temp\ccde7Qmv.s:1976   .text.dbg_vsnprintf_offset:0000000000000186 .L0 
C:\Users\stapi\AppData\Local\Temp\ccde7Qmv.s:1977   .text.dbg_vsnprintf_offset:0000000000000186 .L0 
C:\Users\stapi\AppData\Local\Temp\ccde7Qmv.s:1983   .text.dbg_vsnprintf_offset:000000000000018c .L0 
C:\Users\stapi\AppData\Local\Temp\ccde7Qmv.s:1984   .text.dbg_vsnprintf_offset:000000000000018c .L0 
C:\Users\stapi\AppData\Local\Temp\ccde7Qmv.s:1992   .text.dbg_vsnprintf_offset:0000000000000196 .L0 
C:\Users\stapi\AppData\Local\Temp\ccde7Qmv.s:1993   .text.dbg_vsnprintf_offset:0000000000000196 .L0 
C:\Users\stapi\AppData\Local\Temp\ccde7Qmv.s:1999   .text.dbg_vsnprintf_offset:000000000000019c .L0 
C:\Users\stapi\AppData\Local\Temp\ccde7Qmv.s:2000   .text.dbg_vsnprintf_offset:000000000000019c .L0 
C:\Users\stapi\AppData\Local\Temp\ccde7Qmv.s:2006   .text.dbg_vsnprintf_offset:00000000000001a2 .L0 
C:\Users\stapi\AppData\Local\Temp\ccde7Qmv.s:2007   .text.dbg_vsnprintf_offset:00000000000001a2 .L0 
C:\Users\stapi\AppData\Local\Temp\ccde7Qmv.s:2010   .text.dbg_vsnprintf_offset:00000000000001aa .L0 
C:\Users\stapi\AppData\Local\Temp\ccde7Qmv.s:2011   .text.dbg_vsnprintf_offset:00000000000001aa .L0 
C:\Users\stapi\AppData\Local\Temp\ccde7Qmv.s:2014   .text.dbg_vsnprintf_offset:00000000000001ae .L0 
C:\Users\stapi\AppData\Local\Temp\ccde7Qmv.s:2021   .text.dbg_vsnprintf_offset:00000000000001b6 .L0 
C:\Users\stapi\AppData\Local\Temp\ccde7Qmv.s:2026   .text.dbg_vsnprintf_offset:00000000000001ba .L0 
C:\Users\stapi\AppData\Local\Temp\ccde7Qmv.s:2027   .text.dbg_vsnprintf_offset:00000000000001ba .L0 
C:\Users\stapi\AppData\Local\Temp\ccde7Qmv.s:2035   .text.dbg_vsnprintf_offset:00000000000001c2 .L0 
C:\Users\stapi\AppData\Local\Temp\ccde7Qmv.s:2036   .text.dbg_vsnprintf_offset:00000000000001c2 .L0 
C:\Users\stapi\AppData\Local\Temp\ccde7Qmv.s:2039   .text.dbg_vsnprintf_offset:00000000000001ca .L0 
C:\Users\stapi\AppData\Local\Temp\ccde7Qmv.s:2040   .text.dbg_vsnprintf_offset:00000000000001ca .L0 
C:\Users\stapi\AppData\Local\Temp\ccde7Qmv.s:2043   .text.dbg_vsnprintf_offset:00000000000001ce .L0 
C:\Users\stapi\AppData\Local\Temp\ccde7Qmv.s:2050   .text.dbg_vsnprintf_offset:00000000000001d6 .L0 
C:\Users\stapi\AppData\Local\Temp\ccde7Qmv.s:2055   .text.dbg_vsnprintf_offset:00000000000001da .L0 
C:\Users\stapi\AppData\Local\Temp\ccde7Qmv.s:2056   .text.dbg_vsnprintf_offset:00000000000001da .L0 
C:\Users\stapi\AppData\Local\Temp\ccde7Qmv.s:2064   .text.dbg_vsnprintf_offset:00000000000001e2 .L0 
C:\Users\stapi\AppData\Local\Temp\ccde7Qmv.s:2070   .text.dbg_vsnprintf_offset:00000000000001f4 .L0 
C:\Users\stapi\AppData\Local\Temp\ccde7Qmv.s:2071   .text.dbg_vsnprintf_offset:00000000000001f4 .L0 
C:\Users\stapi\AppData\Local\Temp\ccde7Qmv.s:2076   .text.dbg_vsnprintf_offset:00000000000001fc .L0 
C:\Users\stapi\AppData\Local\Temp\ccde7Qmv.s:2079   .text.dbg_vsnprintf_offset:00000000000001fe .L0 
C:\Users\stapi\AppData\Local\Temp\ccde7Qmv.s:2080   .text.dbg_vsnprintf_offset:00000000000001fe .L0 
C:\Users\stapi\AppData\Local\Temp\ccde7Qmv.s:2083   .text.dbg_vsnprintf_offset:0000000000000202 .L0 
C:\Users\stapi\AppData\Local\Temp\ccde7Qmv.s:2085   .text.dbg_vsnprintf_offset:0000000000000204 .L0 
C:\Users\stapi\AppData\Local\Temp\ccde7Qmv.s:2088   .text.dbg_vsnprintf_offset:0000000000000208 .L0 
C:\Users\stapi\AppData\Local\Temp\ccde7Qmv.s:2091   .text.dbg_vsnprintf_offset:000000000000020a .L0 
C:\Users\stapi\AppData\Local\Temp\ccde7Qmv.s:2146   .text.dbg_vsnprintf_offset:0000000000000250 .L0 
C:\Users\stapi\AppData\Local\Temp\ccde7Qmv.s:2150   .text.dbg_vsnprintf_offset:0000000000000254 .L0 
C:\Users\stapi\AppData\Local\Temp\ccde7Qmv.s:2151   .text.dbg_vsnprintf_offset:0000000000000254 .L0 
C:\Users\stapi\AppData\Local\Temp\ccde7Qmv.s:2152   .text.dbg_vsnprintf_offset:0000000000000254 .L0 
C:\Users\stapi\AppData\Local\Temp\ccde7Qmv.s:2153   .text.dbg_vsnprintf_offset:0000000000000254 .L0 
C:\Users\stapi\AppData\Local\Temp\ccde7Qmv.s:2155   .text.dbg_vsnprintf_offset:0000000000000258 .L0 
C:\Users\stapi\AppData\Local\Temp\ccde7Qmv.s:2157   .text.dbg_vsnprintf_offset:000000000000025c .L0 
C:\Users\stapi\AppData\Local\Temp\ccde7Qmv.s:2159   .text.dbg_vsnprintf_offset:0000000000000260 .L0 
C:\Users\stapi\AppData\Local\Temp\ccde7Qmv.s:2162   .text.dbg_vsnprintf_offset:0000000000000264 .L0 
C:\Users\stapi\AppData\Local\Temp\ccde7Qmv.s:2163   .text.dbg_vsnprintf_offset:0000000000000264 .L0 
C:\Users\stapi\AppData\Local\Temp\ccde7Qmv.s:2167   .text.dbg_vsnprintf_offset:0000000000000268 .L0 
C:\Users\stapi\AppData\Local\Temp\ccde7Qmv.s:2173   .text.dbg_vsnprintf_offset:0000000000000272 .L0 
C:\Users\stapi\AppData\Local\Temp\ccde7Qmv.s:2174   .text.dbg_vsnprintf_offset:0000000000000272 .L0 
C:\Users\stapi\AppData\Local\Temp\ccde7Qmv.s:2177   .text.dbg_vsnprintf_offset:0000000000000274 .L0 
C:\Users\stapi\AppData\Local\Temp\ccde7Qmv.s:2180   .text.dbg_vsnprintf_offset:0000000000000278 .L0 
C:\Users\stapi\AppData\Local\Temp\ccde7Qmv.s:2182   .text.dbg_vsnprintf_offset:000000000000027a .L0 
C:\Users\stapi\AppData\Local\Temp\ccde7Qmv.s:2185   .text.dbg_vsnprintf_offset:000000000000027e .L0 
C:\Users\stapi\AppData\Local\Temp\ccde7Qmv.s:2186   .text.dbg_vsnprintf_offset:000000000000027e .L0 
C:\Users\stapi\AppData\Local\Temp\ccde7Qmv.s:2187   .text.dbg_vsnprintf_offset:000000000000027e .L0 
C:\Users\stapi\AppData\Local\Temp\ccde7Qmv.s:2188   .text.dbg_vsnprintf_offset:000000000000027e .L0 
C:\Users\stapi\AppData\Local\Temp\ccde7Qmv.s:2192   .text.dbg_vsnprintf_offset:0000000000000280 .L0 
C:\Users\stapi\AppData\Local\Temp\ccde7Qmv.s:2193   .text.dbg_vsnprintf_offset:0000000000000280 .L0 
C:\Users\stapi\AppData\Local\Temp\ccde7Qmv.s:2195   .text.dbg_vsnprintf_offset:0000000000000284 .L0 
C:\Users\stapi\AppData\Local\Temp\ccde7Qmv.s:2198   .text.dbg_vsnprintf_offset:0000000000000288 .L0 
C:\Users\stapi\AppData\Local\Temp\ccde7Qmv.s:2199   .text.dbg_vsnprintf_offset:0000000000000288 .L0 
C:\Users\stapi\AppData\Local\Temp\ccde7Qmv.s:2201   .text.dbg_vsnprintf_offset:000000000000028c .L0 
C:\Users\stapi\AppData\Local\Temp\ccde7Qmv.s:2203   .text.dbg_vsnprintf_offset:0000000000000290 .L0 
C:\Users\stapi\AppData\Local\Temp\ccde7Qmv.s:2209   .text.dbg_vsnprintf_offset:0000000000000298 .L0 
C:\Users\stapi\AppData\Local\Temp\ccde7Qmv.s:2210   .text.dbg_vsnprintf_offset:0000000000000298 .L0 
C:\Users\stapi\AppData\Local\Temp\ccde7Qmv.s:2215   .text.dbg_vsnprintf_offset:000000000000029e .L0 
C:\Users\stapi\AppData\Local\Temp\ccde7Qmv.s:2216   .text.dbg_vsnprintf_offset:000000000000029e .L0 
C:\Users\stapi\AppData\Local\Temp\ccde7Qmv.s:2217   .text.dbg_vsnprintf_offset:000000000000029e .L0 
C:\Users\stapi\AppData\Local\Temp\ccde7Qmv.s:2219   .text.dbg_vsnprintf_offset:00000000000002a0 .L0 
C:\Users\stapi\AppData\Local\Temp\ccde7Qmv.s:2223   .text.dbg_vsnprintf_offset:00000000000002a2 .L0 
C:\Users\stapi\AppData\Local\Temp\ccde7Qmv.s:2224   .text.dbg_vsnprintf_offset:00000000000002a2 .L0 
C:\Users\stapi\AppData\Local\Temp\ccde7Qmv.s:2226   .text.dbg_vsnprintf_offset:00000000000002a6 .L0 
C:\Users\stapi\AppData\Local\Temp\ccde7Qmv.s:2229   .text.dbg_vsnprintf_offset:00000000000002ae .L0 
C:\Users\stapi\AppData\Local\Temp\ccde7Qmv.s:2230   .text.dbg_vsnprintf_offset:00000000000002ae .L0 
C:\Users\stapi\AppData\Local\Temp\ccde7Qmv.s:2232   .text.dbg_vsnprintf_offset:00000000000002b2 .L0 
C:\Users\stapi\AppData\Local\Temp\ccde7Qmv.s:2233   .text.dbg_vsnprintf_offset:00000000000002b2 .L0 
C:\Users\stapi\AppData\Local\Temp\ccde7Qmv.s:2235   .text.dbg_vsnprintf_offset:00000000000002b6 .L0 
C:\Users\stapi\AppData\Local\Temp\ccde7Qmv.s:2236   .text.dbg_vsnprintf_offset:00000000000002b6 .L0 
C:\Users\stapi\AppData\Local\Temp\ccde7Qmv.s:2240   .text.dbg_vsnprintf_offset:00000000000002b8 .L0 
C:\Users\stapi\AppData\Local\Temp\ccde7Qmv.s:2241   .text.dbg_vsnprintf_offset:00000000000002b8 .L0 
C:\Users\stapi\AppData\Local\Temp\ccde7Qmv.s:2242   .text.dbg_vsnprintf_offset:00000000000002b8 .L0 
C:\Users\stapi\AppData\Local\Temp\ccde7Qmv.s:2249   .text.dbg_vsnprintf_offset:00000000000002bc .L0 
C:\Users\stapi\AppData\Local\Temp\ccde7Qmv.s:2250   .text.dbg_vsnprintf_offset:00000000000002bc .L0 
C:\Users\stapi\AppData\Local\Temp\ccde7Qmv.s:2251   .text.dbg_vsnprintf_offset:00000000000002bc .L0 
C:\Users\stapi\AppData\Local\Temp\ccde7Qmv.s:2252   .text.dbg_vsnprintf_offset:00000000000002bc .L0 
C:\Users\stapi\AppData\Local\Temp\ccde7Qmv.s:2256   .text.dbg_vsnprintf_offset:00000000000002c4 .L0 
C:\Users\stapi\AppData\Local\Temp\ccde7Qmv.s:2257   .text.dbg_vsnprintf_offset:00000000000002c4 .L0 
C:\Users\stapi\AppData\Local\Temp\ccde7Qmv.s:2258   .text.dbg_vsnprintf_offset:00000000000002c4 .L0 
C:\Users\stapi\AppData\Local\Temp\ccde7Qmv.s:2262   .text.dbg_vsnprintf_offset:00000000000002cc .L0 
C:\Users\stapi\AppData\Local\Temp\ccde7Qmv.s:2266   .text.dbg_vsnprintf_offset:00000000000002d0 .L0 
C:\Users\stapi\AppData\Local\Temp\ccde7Qmv.s:2267   .text.dbg_vsnprintf_offset:00000000000002d0 .L0 
C:\Users\stapi\AppData\Local\Temp\ccde7Qmv.s:2269   .text.dbg_vsnprintf_offset:00000000000002d4 .L0 
C:\Users\stapi\AppData\Local\Temp\ccde7Qmv.s:2272   .text.dbg_vsnprintf_offset:00000000000002d6 .L0 
C:\Users\stapi\AppData\Local\Temp\ccde7Qmv.s:2273   .text.dbg_vsnprintf_offset:00000000000002d6 .L0 
C:\Users\stapi\AppData\Local\Temp\ccde7Qmv.s:2275   .text.dbg_vsnprintf_offset:00000000000002da .L0 
C:\Users\stapi\AppData\Local\Temp\ccde7Qmv.s:2278   .text.dbg_vsnprintf_offset:00000000000002de .L0 
C:\Users\stapi\AppData\Local\Temp\ccde7Qmv.s:2280   .text.dbg_vsnprintf_offset:00000000000002e0 .L0 
C:\Users\stapi\AppData\Local\Temp\ccde7Qmv.s:2282   .text.dbg_vsnprintf_offset:00000000000002e2 .L0 
C:\Users\stapi\AppData\Local\Temp\ccde7Qmv.s:2284   .text.dbg_vsnprintf_offset:00000000000002e6 .L0 
C:\Users\stapi\AppData\Local\Temp\ccde7Qmv.s:2286   .text.dbg_vsnprintf_offset:00000000000002ea .L0 
C:\Users\stapi\AppData\Local\Temp\ccde7Qmv.s:2289   .text.dbg_vsnprintf_offset:00000000000002ee .L0 
C:\Users\stapi\AppData\Local\Temp\ccde7Qmv.s:2290   .text.dbg_vsnprintf_offset:00000000000002ee .L0 
C:\Users\stapi\AppData\Local\Temp\ccde7Qmv.s:2292   .text.dbg_vsnprintf_offset:00000000000002f2 .L0 
C:\Users\stapi\AppData\Local\Temp\ccde7Qmv.s:2293   .text.dbg_vsnprintf_offset:00000000000002f2 .L0 
C:\Users\stapi\AppData\Local\Temp\ccde7Qmv.s:2295   .text.dbg_vsnprintf_offset:00000000000002f6 .L0 
C:\Users\stapi\AppData\Local\Temp\ccde7Qmv.s:2298   .text.dbg_vsnprintf_offset:00000000000002f8 .L0 
C:\Users\stapi\AppData\Local\Temp\ccde7Qmv.s:2300   .text.dbg_vsnprintf_offset:00000000000002fc .L0 
C:\Users\stapi\AppData\Local\Temp\ccde7Qmv.s:2301   .text.dbg_vsnprintf_offset:00000000000002fc .L0 
C:\Users\stapi\AppData\Local\Temp\ccde7Qmv.s:2306   .text.dbg_vsnprintf_offset:00000000000002fe .L0 
C:\Users\stapi\AppData\Local\Temp\ccde7Qmv.s:2307   .text.dbg_vsnprintf_offset:00000000000002fe .L0 
C:\Users\stapi\AppData\Local\Temp\ccde7Qmv.s:2308   .text.dbg_vsnprintf_offset:00000000000002fe .L0 
C:\Users\stapi\AppData\Local\Temp\ccde7Qmv.s:2315   .text.dbg_vsnprintf_offset:0000000000000306 .L0 
C:\Users\stapi\AppData\Local\Temp\ccde7Qmv.s:2318   .text.dbg_vsnprintf_offset:0000000000000306 .L0 
C:\Users\stapi\AppData\Local\Temp\ccde7Qmv.s:2319   .text.dbg_vsnprintf_offset:0000000000000306 .L0 
C:\Users\stapi\AppData\Local\Temp\ccde7Qmv.s:2321   .text.dbg_vsnprintf_offset:0000000000000308 .L0 
C:\Users\stapi\AppData\Local\Temp\ccde7Qmv.s:2325   .text.dbg_vsnprintf_offset:000000000000030c .L0 
C:\Users\stapi\AppData\Local\Temp\ccde7Qmv.s:2332   .text.dbg_vsnprintf_offset:0000000000000312 .L0 
C:\Users\stapi\AppData\Local\Temp\ccde7Qmv.s:2333   .text.dbg_vsnprintf_offset:0000000000000312 .L0 
C:\Users\stapi\AppData\Local\Temp\ccde7Qmv.s:2336   .text.dbg_vsnprintf_offset:0000000000000318 .L0 
C:\Users\stapi\AppData\Local\Temp\ccde7Qmv.s:2341   .text.dbg_vsnprintf_offset:0000000000000320 .L0 
C:\Users\stapi\AppData\Local\Temp\ccde7Qmv.s:2345   .text.dbg_vsnprintf_offset:0000000000000322 .L0 
C:\Users\stapi\AppData\Local\Temp\ccde7Qmv.s:2346   .text.dbg_vsnprintf_offset:0000000000000322 .L0 
C:\Users\stapi\AppData\Local\Temp\ccde7Qmv.s:2347   .text.dbg_vsnprintf_offset:0000000000000322 .L0 
C:\Users\stapi\AppData\Local\Temp\ccde7Qmv.s:2349   .text.dbg_vsnprintf_offset:0000000000000326 .L0 
C:\Users\stapi\AppData\Local\Temp\ccde7Qmv.s:2352   .text.dbg_vsnprintf_offset:0000000000000328 .L0 
C:\Users\stapi\AppData\Local\Temp\ccde7Qmv.s:2353   .text.dbg_vsnprintf_offset:0000000000000328 .L0 
C:\Users\stapi\AppData\Local\Temp\ccde7Qmv.s:2355   .text.dbg_vsnprintf_offset:000000000000032c .L0 
C:\Users\stapi\AppData\Local\Temp\ccde7Qmv.s:2358   .text.dbg_vsnprintf_offset:0000000000000330 .L0 
C:\Users\stapi\AppData\Local\Temp\ccde7Qmv.s:2360   .text.dbg_vsnprintf_offset:0000000000000332 .L0 
C:\Users\stapi\AppData\Local\Temp\ccde7Qmv.s:2362   .text.dbg_vsnprintf_offset:0000000000000334 .L0 
C:\Users\stapi\AppData\Local\Temp\ccde7Qmv.s:2364   .text.dbg_vsnprintf_offset:0000000000000338 .L0 
C:\Users\stapi\AppData\Local\Temp\ccde7Qmv.s:2366   .text.dbg_vsnprintf_offset:000000000000033c .L0 
C:\Users\stapi\AppData\Local\Temp\ccde7Qmv.s:2369   .text.dbg_vsnprintf_offset:0000000000000340 .L0 
C:\Users\stapi\AppData\Local\Temp\ccde7Qmv.s:2370   .text.dbg_vsnprintf_offset:0000000000000340 .L0 
C:\Users\stapi\AppData\Local\Temp\ccde7Qmv.s:2372   .text.dbg_vsnprintf_offset:0000000000000344 .L0 
C:\Users\stapi\AppData\Local\Temp\ccde7Qmv.s:2373   .text.dbg_vsnprintf_offset:0000000000000344 .L0 
C:\Users\stapi\AppData\Local\Temp\ccde7Qmv.s:2375   .text.dbg_vsnprintf_offset:0000000000000348 .L0 
C:\Users\stapi\AppData\Local\Temp\ccde7Qmv.s:2376   .text.dbg_vsnprintf_offset:0000000000000348 .L0 
C:\Users\stapi\AppData\Local\Temp\ccde7Qmv.s:2380   .text.dbg_vsnprintf_offset:000000000000034e .L0 
C:\Users\stapi\AppData\Local\Temp\ccde7Qmv.s:2382   .text.dbg_vsnprintf_offset:0000000000000352 .L0 
C:\Users\stapi\AppData\Local\Temp\ccde7Qmv.s:2384   .text.dbg_vsnprintf_offset:0000000000000356 .L0 
C:\Users\stapi\AppData\Local\Temp\ccde7Qmv.s:2392   .text.dbg_vsnprintf_offset:0000000000000360 .L0 
C:\Users\stapi\AppData\Local\Temp\ccde7Qmv.s:2393   .text.dbg_vsnprintf_offset:0000000000000360 .L0 
C:\Users\stapi\AppData\Local\Temp\ccde7Qmv.s:2397   .text.dbg_vsnprintf_offset:0000000000000368 .L0 
C:\Users\stapi\AppData\Local\Temp\ccde7Qmv.s:2398   .text.dbg_vsnprintf_offset:0000000000000368 .L0 
C:\Users\stapi\AppData\Local\Temp\ccde7Qmv.s:2402   .text.dbg_vsnprintf_offset:0000000000000370 .L0 
C:\Users\stapi\AppData\Local\Temp\ccde7Qmv.s:2403   .text.dbg_vsnprintf_offset:0000000000000370 .L0 
C:\Users\stapi\AppData\Local\Temp\ccde7Qmv.s:2407   .text.dbg_vsnprintf_offset:0000000000000374 .L0 
C:\Users\stapi\AppData\Local\Temp\ccde7Qmv.s:2408   .text.dbg_vsnprintf_offset:0000000000000374 .L0 
C:\Users\stapi\AppData\Local\Temp\ccde7Qmv.s:2409   .text.dbg_vsnprintf_offset:0000000000000374 .L0 
C:\Users\stapi\AppData\Local\Temp\ccde7Qmv.s:2411   .text.dbg_vsnprintf_offset:0000000000000378 .L0 
C:\Users\stapi\AppData\Local\Temp\ccde7Qmv.s:2412   .text.dbg_vsnprintf_offset:0000000000000378 .L0 
C:\Users\stapi\AppData\Local\Temp\ccde7Qmv.s:2415   .text.dbg_vsnprintf_offset:000000000000037c .L0 
C:\Users\stapi\AppData\Local\Temp\ccde7Qmv.s:2416   .text.dbg_vsnprintf_offset:000000000000037c .L0 
C:\Users\stapi\AppData\Local\Temp\ccde7Qmv.s:2420   .text.dbg_vsnprintf_offset:0000000000000380 .L0 
C:\Users\stapi\AppData\Local\Temp\ccde7Qmv.s:2424   .text.dbg_vsnprintf_offset:0000000000000384 .L0 
C:\Users\stapi\AppData\Local\Temp\ccde7Qmv.s:2428   .text.dbg_vsnprintf_offset:0000000000000386 .L0 
C:\Users\stapi\AppData\Local\Temp\ccde7Qmv.s:2429   .text.dbg_vsnprintf_offset:0000000000000386 .L0 
C:\Users\stapi\AppData\Local\Temp\ccde7Qmv.s:2430   .text.dbg_vsnprintf_offset:0000000000000386 .L0 
C:\Users\stapi\AppData\Local\Temp\ccde7Qmv.s:2433   .text.dbg_vsnprintf_offset:000000000000038c .L0 
C:\Users\stapi\AppData\Local\Temp\ccde7Qmv.s:2436   .text.dbg_vsnprintf_offset:000000000000038e .L0 
C:\Users\stapi\AppData\Local\Temp\ccde7Qmv.s:2437   .text.dbg_vsnprintf_offset:000000000000038e .L0 
C:\Users\stapi\AppData\Local\Temp\ccde7Qmv.s:2440   .text.dbg_vsnprintf_offset:0000000000000392 .L0 
C:\Users\stapi\AppData\Local\Temp\ccde7Qmv.s:2442   .text.dbg_vsnprintf_offset:0000000000000396 .L0 
C:\Users\stapi\AppData\Local\Temp\ccde7Qmv.s:2445   .text.dbg_vsnprintf_offset:000000000000039a .L0 
C:\Users\stapi\AppData\Local\Temp\ccde7Qmv.s:2446   .text.dbg_vsnprintf_offset:000000000000039a .L0 
C:\Users\stapi\AppData\Local\Temp\ccde7Qmv.s:2449   .text.dbg_vsnprintf_offset:000000000000039c .L0 
C:\Users\stapi\AppData\Local\Temp\ccde7Qmv.s:2452   .text.dbg_vsnprintf_offset:000000000000039e .L0 
C:\Users\stapi\AppData\Local\Temp\ccde7Qmv.s:2453   .text.dbg_vsnprintf_offset:000000000000039e .L0 
C:\Users\stapi\AppData\Local\Temp\ccde7Qmv.s:2455   .text.dbg_vsnprintf_offset:00000000000003a2 .L0 
C:\Users\stapi\AppData\Local\Temp\ccde7Qmv.s:2456   .text.dbg_vsnprintf_offset:00000000000003a2 .L0 
C:\Users\stapi\AppData\Local\Temp\ccde7Qmv.s:2459   .text.dbg_vsnprintf_offset:00000000000003a6 .L0 
C:\Users\stapi\AppData\Local\Temp\ccde7Qmv.s:2460   .text.dbg_vsnprintf_offset:00000000000003a6 .L0 
C:\Users\stapi\AppData\Local\Temp\ccde7Qmv.s:2461   .text.dbg_vsnprintf_offset:00000000000003a6 .L0 
C:\Users\stapi\AppData\Local\Temp\ccde7Qmv.s:2465   .text.dbg_vsnprintf_offset:00000000000003aa .L0 
C:\Users\stapi\AppData\Local\Temp\ccde7Qmv.s:2469   .text.dbg_vsnprintf_offset:00000000000003ae .L0 
C:\Users\stapi\AppData\Local\Temp\ccde7Qmv.s:2470   .text.dbg_vsnprintf_offset:00000000000003ae .L0 
C:\Users\stapi\AppData\Local\Temp\ccde7Qmv.s:2473   .text.dbg_vsnprintf_offset:00000000000003b2 .L0 
C:\Users\stapi\AppData\Local\Temp\ccde7Qmv.s:2478   .text.dbg_vsnprintf_offset:00000000000003b8 .L0 
C:\Users\stapi\AppData\Local\Temp\ccde7Qmv.s:2482   .text.dbg_vsnprintf_offset:00000000000003bc .L0 
C:\Users\stapi\AppData\Local\Temp\ccde7Qmv.s:2501   .text.dbg_vsnprintf_offset:00000000000003e6 .L0 
C:\Users\stapi\AppData\Local\Temp\ccde7Qmv.s:2506   .text.dbg_vsnprintf_offset:00000000000003ea .L0 
C:\Users\stapi\AppData\Local\Temp\ccde7Qmv.s:2507   .text.dbg_vsnprintf_offset:00000000000003ea .L0 
C:\Users\stapi\AppData\Local\Temp\ccde7Qmv.s:2508   .text.dbg_vsnprintf_offset:00000000000003ea .L0 
C:\Users\stapi\AppData\Local\Temp\ccde7Qmv.s:2510   .text.dbg_vsnprintf_offset:00000000000003ee .L0 
C:\Users\stapi\AppData\Local\Temp\ccde7Qmv.s:2512   .text.dbg_vsnprintf_offset:00000000000003f0 .L0 
C:\Users\stapi\AppData\Local\Temp\ccde7Qmv.s:2514   .text.dbg_vsnprintf_offset:00000000000003f4 .L0 
C:\Users\stapi\AppData\Local\Temp\ccde7Qmv.s:2517   .text.dbg_vsnprintf_offset:00000000000003f8 .L0 
C:\Users\stapi\AppData\Local\Temp\ccde7Qmv.s:2520   .text.dbg_vsnprintf_offset:00000000000003fa .L0 
C:\Users\stapi\AppData\Local\Temp\ccde7Qmv.s:2521   .text.dbg_vsnprintf_offset:00000000000003fa .L0 
C:\Users\stapi\AppData\Local\Temp\ccde7Qmv.s:2524   .text.dbg_vsnprintf_offset:00000000000003fe .L0 
C:\Users\stapi\AppData\Local\Temp\ccde7Qmv.s:2525   .text.dbg_vsnprintf_offset:00000000000003fe .L0 
C:\Users\stapi\AppData\Local\Temp\ccde7Qmv.s:2526   .text.dbg_vsnprintf_offset:00000000000003fe .L0 
C:\Users\stapi\AppData\Local\Temp\ccde7Qmv.s:2529   .text.dbg_vsnprintf_offset:0000000000000400 .L0 
C:\Users\stapi\AppData\Local\Temp\ccde7Qmv.s:2530   .text.dbg_vsnprintf_offset:0000000000000400 .L0 
C:\Users\stapi\AppData\Local\Temp\ccde7Qmv.s:2534   .text.dbg_vsnprintf_offset:0000000000000406 .L0 
C:\Users\stapi\AppData\Local\Temp\ccde7Qmv.s:2536   .text.dbg_vsnprintf_offset:000000000000040a .L0 
C:\Users\stapi\AppData\Local\Temp\ccde7Qmv.s:2539   .text.dbg_vsnprintf_offset:000000000000040e .L0 
C:\Users\stapi\AppData\Local\Temp\ccde7Qmv.s:2540   .text.dbg_vsnprintf_offset:000000000000040e .L0 
C:\Users\stapi\AppData\Local\Temp\ccde7Qmv.s:2543   .text.dbg_vsnprintf_offset:0000000000000412 .L0 
C:\Users\stapi\AppData\Local\Temp\ccde7Qmv.s:2544   .text.dbg_vsnprintf_offset:0000000000000412 .L0 
C:\Users\stapi\AppData\Local\Temp\ccde7Qmv.s:2545   .text.dbg_vsnprintf_offset:0000000000000412 .L0 
C:\Users\stapi\AppData\Local\Temp\ccde7Qmv.s:2551   .text.dbg_vsnprintf_offset:0000000000000418 .L0 
C:\Users\stapi\AppData\Local\Temp\ccde7Qmv.s:2552   .text.dbg_vsnprintf_offset:0000000000000418 .L0 
C:\Users\stapi\AppData\Local\Temp\ccde7Qmv.s:2556   .text.dbg_vsnprintf_offset:0000000000000420 .L0 
C:\Users\stapi\AppData\Local\Temp\ccde7Qmv.s:2557   .text.dbg_vsnprintf_offset:0000000000000420 .L0 
C:\Users\stapi\AppData\Local\Temp\ccde7Qmv.s:2558   .text.dbg_vsnprintf_offset:0000000000000420 .L0 
C:\Users\stapi\AppData\Local\Temp\ccde7Qmv.s:2561   .text.dbg_vsnprintf_offset:0000000000000424 .L0 
C:\Users\stapi\AppData\Local\Temp\ccde7Qmv.s:2565   .text.dbg_vsnprintf_offset:0000000000000426 .L0 
C:\Users\stapi\AppData\Local\Temp\ccde7Qmv.s:2570   .text.dbg_vsnprintf_offset:000000000000042a .L0 
C:\Users\stapi\AppData\Local\Temp\ccde7Qmv.s:2571   .text.dbg_vsnprintf_offset:000000000000042a .L0 
C:\Users\stapi\AppData\Local\Temp\ccde7Qmv.s:2572   .text.dbg_vsnprintf_offset:000000000000042a .L0 
C:\Users\stapi\AppData\Local\Temp\ccde7Qmv.s:2574   .text.dbg_vsnprintf_offset:000000000000042e .L0 
C:\Users\stapi\AppData\Local\Temp\ccde7Qmv.s:2577   .text.dbg_vsnprintf_offset:0000000000000430 .L0 
C:\Users\stapi\AppData\Local\Temp\ccde7Qmv.s:2578   .text.dbg_vsnprintf_offset:0000000000000430 .L0 
C:\Users\stapi\AppData\Local\Temp\ccde7Qmv.s:2580   .text.dbg_vsnprintf_offset:0000000000000434 .L0 
C:\Users\stapi\AppData\Local\Temp\ccde7Qmv.s:2582   .text.dbg_vsnprintf_offset:0000000000000438 .L0 
C:\Users\stapi\AppData\Local\Temp\ccde7Qmv.s:2583   .text.dbg_vsnprintf_offset:0000000000000438 .L0 
C:\Users\stapi\AppData\Local\Temp\ccde7Qmv.s:2586   .text.dbg_vsnprintf_offset:000000000000043c .L0 
C:\Users\stapi\AppData\Local\Temp\ccde7Qmv.s:2587   .text.dbg_vsnprintf_offset:000000000000043c .L0 
C:\Users\stapi\AppData\Local\Temp\ccde7Qmv.s:2590   .text.dbg_vsnprintf_offset:000000000000043e .L0 
C:\Users\stapi\AppData\Local\Temp\ccde7Qmv.s:2591   .text.dbg_vsnprintf_offset:000000000000043e .L0 
C:\Users\stapi\AppData\Local\Temp\ccde7Qmv.s:2597   .text.dbg_vsnprintf_offset:0000000000000444 .L0 
C:\Users\stapi\AppData\Local\Temp\ccde7Qmv.s:2608   .text.dbg_vsnprintf_offset:000000000000044c .L0 
C:\Users\stapi\AppData\Local\Temp\ccde7Qmv.s:2610   .text.dbg_vsnprintf_offset:0000000000000450 .L0 
C:\Users\stapi\AppData\Local\Temp\ccde7Qmv.s:2614   .text.dbg_vsnprintf_offset:0000000000000458 .L0 
C:\Users\stapi\AppData\Local\Temp\ccde7Qmv.s:2616   .text.dbg_vsnprintf_offset:000000000000045c .L0 
C:\Users\stapi\AppData\Local\Temp\ccde7Qmv.s:2622   .text.dbg_vsnprintf_offset:0000000000000460 .L0 
C:\Users\stapi\AppData\Local\Temp\ccde7Qmv.s:2623   .text.dbg_vsnprintf_offset:0000000000000460 .L0 
C:\Users\stapi\AppData\Local\Temp\ccde7Qmv.s:2624   .text.dbg_vsnprintf_offset:0000000000000460 .L0 
C:\Users\stapi\AppData\Local\Temp\ccde7Qmv.s:2628   .text.dbg_vsnprintf_offset:0000000000000462 .L0 
C:\Users\stapi\AppData\Local\Temp\ccde7Qmv.s:2637   .text.dbg_vsnprintf_offset:0000000000000472 .L0 
C:\Users\stapi\AppData\Local\Temp\ccde7Qmv.s:2642   .text.dbg_vsnprintf_offset:0000000000000476 .L0 
C:\Users\stapi\AppData\Local\Temp\ccde7Qmv.s:2643   .text.dbg_vsnprintf_offset:0000000000000476 .L0 
C:\Users\stapi\AppData\Local\Temp\ccde7Qmv.s:2646   .text.dbg_vsnprintf_offset:000000000000047e .L0 
C:\Users\stapi\AppData\Local\Temp\ccde7Qmv.s:2652   .text.dbg_vsnprintf_offset:0000000000000486 .L0 
C:\Users\stapi\AppData\Local\Temp\ccde7Qmv.s:2654   .text.dbg_vsnprintf_offset:000000000000048a .L0 
C:\Users\stapi\AppData\Local\Temp\ccde7Qmv.s:2658   .text.dbg_vsnprintf_offset:0000000000000492 .L0 
C:\Users\stapi\AppData\Local\Temp\ccde7Qmv.s:2660   .text.dbg_vsnprintf_offset:0000000000000496 .L0 
C:\Users\stapi\AppData\Local\Temp\ccde7Qmv.s:2666   .text.dbg_vsnprintf_offset:000000000000049a .L0 
C:\Users\stapi\AppData\Local\Temp\ccde7Qmv.s:2667   .text.dbg_vsnprintf_offset:000000000000049a .L0 
C:\Users\stapi\AppData\Local\Temp\ccde7Qmv.s:2668   .text.dbg_vsnprintf_offset:000000000000049a .L0 
C:\Users\stapi\AppData\Local\Temp\ccde7Qmv.s:2672   .text.dbg_vsnprintf_offset:000000000000049c .L0 
C:\Users\stapi\AppData\Local\Temp\ccde7Qmv.s:2677   .text.dbg_vsnprintf_offset:00000000000004a2 .L0 
C:\Users\stapi\AppData\Local\Temp\ccde7Qmv.s:2679   .text.dbg_vsnprintf_offset:00000000000004a6 .L0 
C:\Users\stapi\AppData\Local\Temp\ccde7Qmv.s:2683   .text.dbg_vsnprintf_offset:00000000000004ae .L0 
C:\Users\stapi\AppData\Local\Temp\ccde7Qmv.s:2690   .text.dbg_vsnprintf_offset:00000000000004bc .L0 
C:\Users\stapi\AppData\Local\Temp\ccde7Qmv.s:2694   .text.dbg_vsnprintf_offset:00000000000004be .L0 
C:\Users\stapi\AppData\Local\Temp\ccde7Qmv.s:2695   .text.dbg_vsnprintf_offset:00000000000004be .L0 
C:\Users\stapi\AppData\Local\Temp\ccde7Qmv.s:2696   .text.dbg_vsnprintf_offset:00000000000004be .L0 
C:\Users\stapi\AppData\Local\Temp\ccde7Qmv.s:2700   .text.dbg_vsnprintf_offset:00000000000004c0 .L0 
C:\Users\stapi\AppData\Local\Temp\ccde7Qmv.s:2710   .text.dbg_vsnprintf_offset:00000000000004ce .L0 
C:\Users\stapi\AppData\Local\Temp\ccde7Qmv.s:2722   .text.dbg_vsnprintf_offset:00000000000004e0 .L0 
C:\Users\stapi\AppData\Local\Temp\ccde7Qmv.s:2724   .text.dbg_vsnprintf_offset:00000000000004e4 .L0 
C:\Users\stapi\AppData\Local\Temp\ccde7Qmv.s:2728   .text.dbg_vsnprintf_offset:00000000000004ec .L0 
C:\Users\stapi\AppData\Local\Temp\ccde7Qmv.s:2730   .text.dbg_vsnprintf_offset:00000000000004f0 .L0 
C:\Users\stapi\AppData\Local\Temp\ccde7Qmv.s:2736   .text.dbg_vsnprintf_offset:00000000000004f4 .L0 
C:\Users\stapi\AppData\Local\Temp\ccde7Qmv.s:2737   .text.dbg_vsnprintf_offset:00000000000004f4 .L0 
C:\Users\stapi\AppData\Local\Temp\ccde7Qmv.s:2738   .text.dbg_vsnprintf_offset:00000000000004f4 .L0 
C:\Users\stapi\AppData\Local\Temp\ccde7Qmv.s:2744   .text.dbg_vsnprintf_offset:00000000000004f8 .L0 
C:\Users\stapi\AppData\Local\Temp\ccde7Qmv.s:2747   .text.dbg_vsnprintf_offset:00000000000004fa .L0 
C:\Users\stapi\AppData\Local\Temp\ccde7Qmv.s:2753   .text.dbg_vsnprintf_offset:00000000000004fe .L0 
C:\Users\stapi\AppData\Local\Temp\ccde7Qmv.s:2754   .text.dbg_vsnprintf_offset:00000000000004fe .L0 
C:\Users\stapi\AppData\Local\Temp\ccde7Qmv.s:2756   .text.dbg_vsnprintf_offset:0000000000000502 .L0 
C:\Users\stapi\AppData\Local\Temp\ccde7Qmv.s:2757   .text.dbg_vsnprintf_offset:0000000000000502 .L0 
C:\Users\stapi\AppData\Local\Temp\ccde7Qmv.s:2759   .text.dbg_vsnprintf_offset:0000000000000506 .L0 
C:\Users\stapi\AppData\Local\Temp\ccde7Qmv.s:2760   .text.dbg_vsnprintf_offset:0000000000000506 .L0 
C:\Users\stapi\AppData\Local\Temp\ccde7Qmv.s:2761   .text.dbg_vsnprintf_offset:0000000000000508 .L0 
C:\Users\stapi\AppData\Local\Temp\ccde7Qmv.s:2768   .text.dbg_snprintf:0000000000000000 dbg_snprintf
C:\Users\stapi\AppData\Local\Temp\ccde7Qmv.s:2771   .text.dbg_snprintf:0000000000000000 .L0 
C:\Users\stapi\AppData\Local\Temp\ccde7Qmv.s:2773   .text.dbg_snprintf:0000000000000000 .L0 
C:\Users\stapi\AppData\Local\Temp\ccde7Qmv.s:2774   .text.dbg_snprintf:0000000000000000 .L0 
C:\Users\stapi\AppData\Local\Temp\ccde7Qmv.s:2775   .text.dbg_snprintf:0000000000000000 .L0 
C:\Users\stapi\AppData\Local\Temp\ccde7Qmv.s:2776   .text.dbg_snprintf:0000000000000000 .L0 
C:\Users\stapi\AppData\Local\Temp\ccde7Qmv.s:2777   .text.dbg_snprintf:0000000000000000 .L0 
C:\Users\stapi\AppData\Local\Temp\ccde7Qmv.s:2778   .text.dbg_snprintf:0000000000000000 .L0 
C:\Users\stapi\AppData\Local\Temp\ccde7Qmv.s:2779   .text.dbg_snprintf:0000000000000002 .L0 
C:\Users\stapi\AppData\Local\Temp\ccde7Qmv.s:2783   .text.dbg_snprintf:0000000000000006 .L0 
C:\Users\stapi\AppData\Local\Temp\ccde7Qmv.s:2785   .text.dbg_snprintf:0000000000000008 .L0 
C:\Users\stapi\AppData\Local\Temp\ccde7Qmv.s:2787   .text.dbg_snprintf:000000000000000a .L0 
C:\Users\stapi\AppData\Local\Temp\ccde7Qmv.s:2790   .text.dbg_snprintf:000000000000000c .L0 
C:\Users\stapi\AppData\Local\Temp\ccde7Qmv.s:2791   .text.dbg_snprintf:000000000000000e .L0 
C:\Users\stapi\AppData\Local\Temp\ccde7Qmv.s:2793   .text.dbg_snprintf:000000000000000e .L0 
C:\Users\stapi\AppData\Local\Temp\ccde7Qmv.s:2797   .text.dbg_snprintf:0000000000000014 .L0 
C:\Users\stapi\AppData\Local\Temp\ccde7Qmv.s:2799   .text.dbg_snprintf:0000000000000016 .L0 
C:\Users\stapi\AppData\Local\Temp\ccde7Qmv.s:2800   .text.dbg_snprintf:0000000000000016 .L0 
C:\Users\stapi\AppData\Local\Temp\ccde7Qmv.s:2803   .text.dbg_snprintf:000000000000001e .L0 
C:\Users\stapi\AppData\Local\Temp\ccde7Qmv.s:2804   .text.dbg_snprintf:000000000000001e .L0 
C:\Users\stapi\AppData\Local\Temp\ccde7Qmv.s:2805   .text.dbg_snprintf:000000000000001e .L0 
C:\Users\stapi\AppData\Local\Temp\ccde7Qmv.s:2806   .text.dbg_snprintf:0000000000000020 .L0 
C:\Users\stapi\AppData\Local\Temp\ccde7Qmv.s:2808   .text.dbg_snprintf:0000000000000022 .L0 
C:\Users\stapi\AppData\Local\Temp\ccde7Qmv.s:2810   .text.dbg_snprintf:0000000000000024 .L0 
C:\Users\stapi\AppData\Local\Temp\ccde7Qmv.s:2815   .rodata.hex_upper_table:0000000000000000 .LANCHOR1
C:\Users\stapi\AppData\Local\Temp\ccde7Qmv.s:2818   .rodata.hex_upper_table:0000000000000000 hex_upper_table
C:\Users\stapi\AppData\Local\Temp\ccde7Qmv.s:2822   .rodata.transition_table:0000000000000000 .LANCHOR0
C:\Users\stapi\AppData\Local\Temp\ccde7Qmv.s:2825   .rodata.transition_table:0000000000000000 transition_table
C:\Users\stapi\AppData\Local\Temp\ccde7Qmv.s:95     .text.printchar:000000000000006e .L0 
C:\Users\stapi\AppData\Local\Temp\ccde7Qmv.s:264    .text.prints:00000000000000ac .L0 
C:\Users\stapi\AppData\Local\Temp\ccde7Qmv.s:453    .text.printi:00000000000000c2 .L0 
C:\Users\stapi\AppData\Local\Temp\ccde7Qmv.s:988    .text.print:000000000000028c .L0 
C:\Users\stapi\AppData\Local\Temp\ccde7Qmv.s:1038   .text.co_printf:000000000000002a .L0 
C:\Users\stapi\AppData\Local\Temp\ccde7Qmv.s:1104   .text.co_snprintf:0000000000000030 .L0 
C:\Users\stapi\AppData\Local\Temp\ccde7Qmv.s:1327   .text.print_buffer:00000000000000d6 .L0 
C:\Users\stapi\AppData\Local\Temp\ccde7Qmv.s:1387   .text.debug_print_dump_data:0000000000000042 .L0 
C:\Users\stapi\AppData\Local\Temp\ccde7Qmv.s:1594   .text.str2hex:0000000000000100 .L0 
C:\Users\stapi\AppData\Local\Temp\ccde7Qmv.s:2764   .text.dbg_vsnprintf_offset:0000000000000508 .L0 
C:\Users\stapi\AppData\Local\Temp\ccde7Qmv.s:2813   .text.dbg_snprintf:0000000000000024 .L0 
                     .debug_frame:0000000000000000 .L0 
C:\Users\stapi\AppData\Local\Temp\ccde7Qmv.s:36     .text.printchar:000000000000001e .L2
C:\Users\stapi\AppData\Local\Temp\ccde7Qmv.s:67     .text.printchar:0000000000000044 .L4
C:\Users\stapi\AppData\Local\Temp\ccde7Qmv.s:29     .text.printchar:0000000000000016 .L1
C:\Users\stapi\AppData\Local\Temp\ccde7Qmv.s:83     .text.printchar:0000000000000060 .L5
C:\Users\stapi\AppData\Local\Temp\ccde7Qmv.s:162    .text.prints:000000000000003c .L9
C:\Users\stapi\AppData\Local\Temp\ccde7Qmv.s:134    .text.prints:000000000000001e .L8
C:\Users\stapi\AppData\Local\Temp\ccde7Qmv.s:128    .text.prints:000000000000001c .L10
C:\Users\stapi\AppData\Local\Temp\ccde7Qmv.s:176    .text.prints:0000000000000046 .L20
C:\Users\stapi\AppData\Local\Temp\ccde7Qmv.s:203    .text.prints:0000000000000066 .L13
C:\Users\stapi\AppData\Local\Temp\ccde7Qmv.s:195    .text.prints:000000000000005a .L12
C:\Users\stapi\AppData\Local\Temp\ccde7Qmv.s:149    .text.prints:000000000000002e .L11
C:\Users\stapi\AppData\Local\Temp\ccde7Qmv.s:183    .text.prints:000000000000004a .L14
C:\Users\stapi\AppData\Local\Temp\ccde7Qmv.s:218    .text.prints:0000000000000078 .L15
C:\Users\stapi\AppData\Local\Temp\ccde7Qmv.s:208    .text.prints:000000000000006a .L16
C:\Users\stapi\AppData\Local\Temp\ccde7Qmv.s:248    .text.prints:000000000000009a .L18
C:\Users\stapi\AppData\Local\Temp\ccde7Qmv.s:227    .text.prints:0000000000000086 .L17
C:\Users\stapi\AppData\Local\Temp\ccde7Qmv.s:326    .text.printi:0000000000000032 .L28
C:\Users\stapi\AppData\Local\Temp\ccde7Qmv.s:345    .text.printi:0000000000000046 .L30
C:\Users\stapi\AppData\Local\Temp\ccde7Qmv.s:426    .text.printi:00000000000000a8 .L36
C:\Users\stapi\AppData\Local\Temp\ccde7Qmv.s:372    .text.printi:000000000000005e .L31
C:\Users\stapi\AppData\Local\Temp\ccde7Qmv.s:432    .text.printi:00000000000000ac .L37
C:\Users\stapi\AppData\Local\Temp\ccde7Qmv.s:414    .text.printi:0000000000000096 .L33
C:\Users\stapi\AppData\Local\Temp\ccde7Qmv.s:438    .text.printi:00000000000000b2 .L34
C:\Users\stapi\AppData\Local\Temp\ccde7Qmv.s:313    .text.printi:0000000000000028 .L27
C:\Users\stapi\AppData\Local\Temp\ccde7Qmv.s:360    .text.printi:0000000000000054 .L32
C:\Users\stapi\AppData\Local\Temp\ccde7Qmv.s:455    .rodata.print.str1.4:0000000000000000 .LC0
C:\Users\stapi\AppData\Local\Temp\ccde7Qmv.s:503    .text.print:0000000000000024 .L52
C:\Users\stapi\AppData\Local\Temp\ccde7Qmv.s:544    .text.print:000000000000004e .L51
C:\Users\stapi\AppData\Local\Temp\ccde7Qmv.s:566    .text.print:000000000000005a .L74
C:\Users\stapi\AppData\Local\Temp\ccde7Qmv.s:972    .text.print:0000000000000278 .L55
C:\Users\stapi\AppData\Local\Temp\ccde7Qmv.s:534    .text.print:0000000000000042 .L56
C:\Users\stapi\AppData\Local\Temp\ccde7Qmv.s:968    .text.print:0000000000000276 .L76
C:\Users\stapi\AppData\Local\Temp\ccde7Qmv.s:596    .text.print:0000000000000078 .L57
C:\Users\stapi\AppData\Local\Temp\ccde7Qmv.s:656    .text.print:00000000000000c8 .L59
C:\Users\stapi\AppData\Local\Temp\ccde7Qmv.s:666    .text.print:00000000000000d0 .L61
C:\Users\stapi\AppData\Local\Temp\ccde7Qmv.s:681    .text.print:00000000000000de .L62
C:\Users\stapi\AppData\Local\Temp\ccde7Qmv.s:641    .text.print:00000000000000b6 .L63
C:\Users\stapi\AppData\Local\Temp\ccde7Qmv.s:702    .text.print:0000000000000104 .L91
C:\Users\stapi\AppData\Local\Temp\ccde7Qmv.s:601    .text.print:000000000000007e .L58
C:\Users\stapi\AppData\Local\Temp\ccde7Qmv.s:614    .text.print:000000000000008e .L60
C:\Users\stapi\AppData\Local\Temp\ccde7Qmv.s:716    .text.print:000000000000010c .L65
C:\Users\stapi\AppData\Local\Temp\ccde7Qmv.s:527    .text.print:000000000000003c .L54
C:\Users\stapi\AppData\Local\Temp\ccde7Qmv.s:897    .text.print:000000000000020a .L66
C:\Users\stapi\AppData\Local\Temp\ccde7Qmv.s:822    .text.print:0000000000000196 .L67
C:\Users\stapi\AppData\Local\Temp\ccde7Qmv.s:878    .text.print:00000000000001ec .L68
C:\Users\stapi\AppData\Local\Temp\ccde7Qmv.s:761    .text.print:0000000000000136 .L69
C:\Users\stapi\AppData\Local\Temp\ccde7Qmv.s:710    .text.print:0000000000000108 .L64
C:\Users\stapi\AppData\Local\Temp\ccde7Qmv.s:832    .text.print:000000000000019a .L70
C:\Users\stapi\AppData\Local\Temp\ccde7Qmv.s:806    .text.print:0000000000000186 .L92
C:\Users\stapi\AppData\Local\Temp\ccde7Qmv.s:916    .text.print:0000000000000226 .L71
C:\Users\stapi\AppData\Local\Temp\ccde7Qmv.s:697    .text.print:00000000000000f8 .L94
C:\Users\stapi\AppData\Local\Temp\ccde7Qmv.s:929    .text.print:000000000000023c .L72
C:\Users\stapi\AppData\Local\Temp\ccde7Qmv.s:909    .text.print:000000000000021e .L95
C:\Users\stapi\AppData\Local\Temp\ccde7Qmv.s:944    .text.print:0000000000000256 .L73
C:\Users\stapi\AppData\Local\Temp\ccde7Qmv.s:695    .text.print:00000000000000f6 .L93
C:\Users\stapi\AppData\Local\Temp\ccde7Qmv.s:648    .text.print:00000000000000bc .L96
C:\Users\stapi\AppData\Local\Temp\ccde7Qmv.s:1093   .text.co_snprintf:000000000000002c .L101
C:\Users\stapi\AppData\Local\Temp\ccde7Qmv.s:1083   .text.co_snprintf:0000000000000026 .L99
C:\Users\stapi\AppData\Local\Temp\ccde7Qmv.s:1109   .rodata.print_buffer.str1.4:0000000000000008 .LC2
C:\Users\stapi\AppData\Local\Temp\ccde7Qmv.s:1106   .rodata.print_buffer.str1.4:0000000000000000 .LC1
C:\Users\stapi\AppData\Local\Temp\ccde7Qmv.s:1112   .rodata.print_buffer.str1.4:0000000000000010 .LC3
C:\Users\stapi\AppData\Local\Temp\ccde7Qmv.s:1115   .rodata.print_buffer.str1.4:0000000000000018 .LC4
C:\Users\stapi\AppData\Local\Temp\ccde7Qmv.s:1172   .text.print_buffer:0000000000000024 .L104
C:\Users\stapi\AppData\Local\Temp\ccde7Qmv.s:1181   .text.print_buffer:000000000000002e .L105
C:\Users\stapi\AppData\Local\Temp\ccde7Qmv.s:1211   .text.print_buffer:0000000000000040 .L112
C:\Users\stapi\AppData\Local\Temp\ccde7Qmv.s:1265   .text.print_buffer:000000000000007e .L111
C:\Users\stapi\AppData\Local\Temp\ccde7Qmv.s:1185   .text.print_buffer:0000000000000032 .L106
C:\Users\stapi\AppData\Local\Temp\ccde7Qmv.s:1293   .text.print_buffer:00000000000000a2 .L108
C:\Users\stapi\AppData\Local\Temp\ccde7Qmv.s:1232   .text.print_buffer:0000000000000062 .L107
C:\Users\stapi\AppData\Local\Temp\ccde7Qmv.s:1309   .text.print_buffer:00000000000000bc .L110
C:\Users\stapi\AppData\Local\Temp\ccde7Qmv.s:1278   .text.print_buffer:0000000000000090 .L115
C:\Users\stapi\AppData\Local\Temp\ccde7Qmv.s:1329   .rodata.debug_print_dump_data.str1.4:0000000000000000 .LC5
C:\Users\stapi\AppData\Local\Temp\ccde7Qmv.s:1365   .text.debug_print_dump_data:0000000000000026 .L117
C:\Users\stapi\AppData\Local\Temp\ccde7Qmv.s:1376   .text.debug_print_dump_data:0000000000000038 .L116
C:\Users\stapi\AppData\Local\Temp\ccde7Qmv.s:1389   .rodata.str2hex.str1.4:0000000000000000 .LC6
C:\Users\stapi\AppData\Local\Temp\ccde7Qmv.s:1575   .text.str2hex:00000000000000f8 .L136
C:\Users\stapi\AppData\Local\Temp\ccde7Qmv.s:1566   .text.str2hex:00000000000000f0 .L126
C:\Users\stapi\AppData\Local\Temp\ccde7Qmv.s:1501   .text.str2hex:000000000000008e .L128
C:\Users\stapi\AppData\Local\Temp\ccde7Qmv.s:1529   .text.str2hex:00000000000000b6 .L131
C:\Users\stapi\AppData\Local\Temp\ccde7Qmv.s:1448   .text.str2hex:000000000000003c .L135
C:\Users\stapi\AppData\Local\Temp\ccde7Qmv.s:1517   .text.str2hex:00000000000000a4 .L130
C:\Users\stapi\AppData\Local\Temp\ccde7Qmv.s:1460   .text.str2hex:0000000000000050 .L129
C:\Users\stapi\AppData\Local\Temp\ccde7Qmv.s:1582   .text.str2hex:00000000000000fc .L141
C:\Users\stapi\AppData\Local\Temp\ccde7Qmv.s:1511   .text.str2hex:000000000000009e .L147
C:\Users\stapi\AppData\Local\Temp\ccde7Qmv.s:1545   .text.str2hex:00000000000000cc .L133
C:\Users\stapi\AppData\Local\Temp\ccde7Qmv.s:1484   .text.str2hex:000000000000007c .L132
C:\Users\stapi\AppData\Local\Temp\ccde7Qmv.s:1556   .text.str2hex:00000000000000de .L134
C:\Users\stapi\AppData\Local\Temp\ccde7Qmv.s:1539   .text.str2hex:00000000000000c6 .L148
C:\Users\stapi\AppData\Local\Temp\ccde7Qmv.s:1867   .rodata.dbg_vsnprintf_offset:0000000000000064 .L156
C:\Users\stapi\AppData\Local\Temp\ccde7Qmv.s:1817   .rodata.dbg_vsnprintf_offset:0000000000000020 .L159
C:\Users\stapi\AppData\Local\Temp\ccde7Qmv.s:1795   .rodata.dbg_vsnprintf_offset:0000000000000000 .L168
C:\Users\stapi\AppData\Local\Temp\ccde7Qmv.s:2118   .rodata.dbg_vsnprintf_offset:00000000000000c4 .L190
C:\Users\stapi\AppData\Local\Temp\ccde7Qmv.s:1650   .text.dbg_vsnprintf_offset:0000000000000020 .L150
C:\Users\stapi\AppData\Local\Temp\ccde7Qmv.s:1743   .text.dbg_vsnprintf_offset:000000000000009e .L232
C:\Users\stapi\AppData\Local\Temp\ccde7Qmv.s:2751   .text.dbg_vsnprintf_offset:00000000000004fe .L233
C:\Users\stapi\AppData\Local\Temp\ccde7Qmv.s:1842   .text.dbg_vsnprintf_offset:00000000000000f6 .L152
C:\Users\stapi\AppData\Local\Temp\ccde7Qmv.s:1806   .text.dbg_vsnprintf_offset:00000000000000da .L153
C:\Users\stapi\AppData\Local\Temp\ccde7Qmv.s:1771   .text.dbg_vsnprintf_offset:00000000000000be .L157
C:\Users\stapi\AppData\Local\Temp\ccde7Qmv.s:1697   .text.dbg_vsnprintf_offset:0000000000000070 .L151
C:\Users\stapi\AppData\Local\Temp\ccde7Qmv.s:1754   .text.dbg_vsnprintf_offset:00000000000000a8 .L154
C:\Users\stapi\AppData\Local\Temp\ccde7Qmv.s:1855   .text.dbg_vsnprintf_offset:000000000000011a .L163
C:\Users\stapi\AppData\Local\Temp\ccde7Qmv.s:1953   .text.dbg_vsnprintf_offset:0000000000000160 .L176
C:\Users\stapi\AppData\Local\Temp\ccde7Qmv.s:1981   .text.dbg_vsnprintf_offset:000000000000018c .L177
C:\Users\stapi\AppData\Local\Temp\ccde7Qmv.s:1973   .text.dbg_vsnprintf_offset:0000000000000182 .L178
C:\Users\stapi\AppData\Local\Temp\ccde7Qmv.s:1997   .text.dbg_vsnprintf_offset:000000000000019c .L179
C:\Users\stapi\AppData\Local\Temp\ccde7Qmv.s:1990   .text.dbg_vsnprintf_offset:0000000000000196 .L180
C:\Users\stapi\AppData\Local\Temp\ccde7Qmv.s:1969   .text.dbg_vsnprintf_offset:000000000000017e .L285
C:\Users\stapi\AppData\Local\Temp\ccde7Qmv.s:1986   .text.dbg_vsnprintf_offset:0000000000000190 .L286
C:\Users\stapi\AppData\Local\Temp\ccde7Qmv.s:2024   .text.dbg_vsnprintf_offset:00000000000001ba .L182
C:\Users\stapi\AppData\Local\Temp\ccde7Qmv.s:2019   .text.dbg_vsnprintf_offset:00000000000001b6 .L288
C:\Users\stapi\AppData\Local\Temp\ccde7Qmv.s:2053   .text.dbg_vsnprintf_offset:00000000000001da .L183
C:\Users\stapi\AppData\Local\Temp\ccde7Qmv.s:2048   .text.dbg_vsnprintf_offset:00000000000001d6 .L287
C:\Users\stapi\AppData\Local\Temp\ccde7Qmv.s:2077   .text.dbg_vsnprintf_offset:00000000000001fe .L184
C:\Users\stapi\AppData\Local\Temp\ccde7Qmv.s:2101   .text.dbg_vsnprintf_offset:0000000000000232 .L242
C:\Users\stapi\AppData\Local\Temp\ccde7Qmv.s:2107   .text.dbg_vsnprintf_offset:0000000000000238 .L186
C:\Users\stapi\AppData\Local\Temp\ccde7Qmv.s:2246   .text.dbg_vsnprintf_offset:00000000000002bc .L187
C:\Users\stapi\AppData\Local\Temp\ccde7Qmv.s:2148   .text.dbg_vsnprintf_offset:0000000000000254 .L188
C:\Users\stapi\AppData\Local\Temp\ccde7Qmv.s:2303   .text.dbg_vsnprintf_offset:00000000000002fe .L189
C:\Users\stapi\AppData\Local\Temp\ccde7Qmv.s:2190   .text.dbg_vsnprintf_offset:0000000000000280 .L185
C:\Users\stapi\AppData\Local\Temp\ccde7Qmv.s:2390   .text.dbg_vsnprintf_offset:0000000000000360 .L202
C:\Users\stapi\AppData\Local\Temp\ccde7Qmv.s:2481   .text.dbg_vsnprintf_offset:00000000000003bc .L297
C:\Users\stapi\AppData\Local\Temp\ccde7Qmv.s:2406   .text.dbg_vsnprintf_offset:0000000000000374 .L206
C:\Users\stapi\AppData\Local\Temp\ccde7Qmv.s:2640   .text.dbg_vsnprintf_offset:0000000000000476 .L278
C:\Users\stapi\AppData\Local\Temp\ccde7Qmv.s:2626   .text.dbg_vsnprintf_offset:0000000000000462 .L217
C:\Users\stapi\AppData\Local\Temp\ccde7Qmv.s:2238   .text.dbg_vsnprintf_offset:00000000000002b8 .L195
C:\Users\stapi\AppData\Local\Temp\ccde7Qmv.s:2221   .text.dbg_vsnprintf_offset:00000000000002a2 .L194
C:\Users\stapi\AppData\Local\Temp\ccde7Qmv.s:2594   .text.dbg_vsnprintf_offset:0000000000000444 .L244
C:\Users\stapi\AppData\Local\Temp\ccde7Qmv.s:2264   .text.dbg_vsnprintf_offset:00000000000002d0 .L197
C:\Users\stapi\AppData\Local\Temp\ccde7Qmv.s:2327   .text.dbg_vsnprintf_offset:0000000000000312 .L198
C:\Users\stapi\AppData\Local\Temp\ccde7Qmv.s:2601   .text.dbg_vsnprintf_offset:0000000000000448 .L246
C:\Users\stapi\AppData\Local\Temp\ccde7Qmv.s:2385   .text.dbg_vsnprintf_offset:000000000000035a .L201
C:\Users\stapi\AppData\Local\Temp\ccde7Qmv.s:2343   .text.dbg_vsnprintf_offset:0000000000000322 .L199
C:\Users\stapi\AppData\Local\Temp\ccde7Qmv.s:2165   .text.dbg_vsnprintf_offset:0000000000000268 .L203
C:\Users\stapi\AppData\Local\Temp\ccde7Qmv.s:2476   .text.dbg_vsnprintf_offset:00000000000003b8 .L205
C:\Users\stapi\AppData\Local\Temp\ccde7Qmv.s:2418   .text.dbg_vsnprintf_offset:0000000000000380 .L210
C:\Users\stapi\AppData\Local\Temp\ccde7Qmv.s:2426   .text.dbg_vsnprintf_offset:0000000000000386 .L212
C:\Users\stapi\AppData\Local\Temp\ccde7Qmv.s:2532   .text.dbg_vsnprintf_offset:0000000000000406 .L213
C:\Users\stapi\AppData\Local\Temp\ccde7Qmv.s:2493   .text.dbg_vsnprintf_offset:00000000000003d6 .L211
C:\Users\stapi\AppData\Local\Temp\ccde7Qmv.s:2498   .text.dbg_vsnprintf_offset:00000000000003e6 .L208
C:\Users\stapi\AppData\Local\Temp\ccde7Qmv.s:2563   .text.dbg_vsnprintf_offset:0000000000000426 .L209
C:\Users\stapi\AppData\Local\Temp\ccde7Qmv.s:2487   .text.dbg_vsnprintf_offset:00000000000003d0 .L282
C:\Users\stapi\AppData\Local\Temp\ccde7Qmv.s:2504   .text.dbg_vsnprintf_offset:00000000000003ea .L215
C:\Users\stapi\AppData\Local\Temp\ccde7Qmv.s:2549   .text.dbg_vsnprintf_offset:0000000000000418 .L214
C:\Users\stapi\AppData\Local\Temp\ccde7Qmv.s:2463   .text.dbg_vsnprintf_offset:00000000000003aa .L281
C:\Users\stapi\AppData\Local\Temp\ccde7Qmv.s:2467   .text.dbg_vsnprintf_offset:00000000000003ae .L283
C:\Users\stapi\AppData\Local\Temp\ccde7Qmv.s:2568   .text.dbg_vsnprintf_offset:000000000000042a .L216
C:\Users\stapi\AppData\Local\Temp\ccde7Qmv.s:2620   .text.dbg_vsnprintf_offset:0000000000000460 .L219
C:\Users\stapi\AppData\Local\Temp\ccde7Qmv.s:2606   .text.dbg_vsnprintf_offset:000000000000044c .L220
C:\Users\stapi\AppData\Local\Temp\ccde7Qmv.s:2698   .text.dbg_vsnprintf_offset:00000000000004c0 .L227
C:\Users\stapi\AppData\Local\Temp\ccde7Qmv.s:2635   .text.dbg_vsnprintf_offset:0000000000000472 .L223
C:\Users\stapi\AppData\Local\Temp\ccde7Qmv.s:2670   .text.dbg_vsnprintf_offset:000000000000049c .L222
C:\Users\stapi\AppData\Local\Temp\ccde7Qmv.s:2664   .text.dbg_vsnprintf_offset:000000000000049a .L224
C:\Users\stapi\AppData\Local\Temp\ccde7Qmv.s:2650   .text.dbg_vsnprintf_offset:0000000000000486 .L225
C:\Users\stapi\AppData\Local\Temp\ccde7Qmv.s:2630   .text.dbg_vsnprintf_offset:0000000000000466 .L279
C:\Users\stapi\AppData\Local\Temp\ccde7Qmv.s:2692   .text.dbg_vsnprintf_offset:00000000000004be .L226
C:\Users\stapi\AppData\Local\Temp\ccde7Qmv.s:2675   .text.dbg_vsnprintf_offset:00000000000004a2 .L228
C:\Users\stapi\AppData\Local\Temp\ccde7Qmv.s:2720   .text.dbg_vsnprintf_offset:00000000000004e0 .L231
C:\Users\stapi\AppData\Local\Temp\ccde7Qmv.s:2734   .text.dbg_vsnprintf_offset:00000000000004f4 .L230
C:\Users\stapi\AppData\Local\Temp\ccde7Qmv.s:2708   .text.dbg_vsnprintf_offset:00000000000004ce .L229
C:\Users\stapi\AppData\Local\Temp\ccde7Qmv.s:1713   .text.dbg_vsnprintf_offset:0000000000000082 .L149
C:\Users\stapi\AppData\Local\Temp\ccde7Qmv.s:1940   .text.dbg_vsnprintf_offset:0000000000000150 .L175
C:\Users\stapi\AppData\Local\Temp\ccde7Qmv.s:1927   .text.dbg_vsnprintf_offset:0000000000000146 .L174
C:\Users\stapi\AppData\Local\Temp\ccde7Qmv.s:1960   .text.dbg_vsnprintf_offset:0000000000000166 .L173
C:\Users\stapi\AppData\Local\Temp\ccde7Qmv.s:2004   .text.dbg_vsnprintf_offset:00000000000001a2 .L172
C:\Users\stapi\AppData\Local\Temp\ccde7Qmv.s:2742   .text.dbg_vsnprintf_offset:00000000000004f8 .L239
C:\Users\stapi\AppData\Local\Temp\ccde7Qmv.s:2033   .text.dbg_vsnprintf_offset:00000000000001c2 .L170
C:\Users\stapi\AppData\Local\Temp\ccde7Qmv.s:2062   .text.dbg_vsnprintf_offset:00000000000001e2 .L169
C:\Users\stapi\AppData\Local\Temp\ccde7Qmv.s:2089   .text.dbg_vsnprintf_offset:000000000000020a .L167
C:\Users\stapi\AppData\Local\Temp\ccde7Qmv.s:1902   .text.dbg_vsnprintf_offset:0000000000000136 .L161
C:\Users\stapi\AppData\Local\Temp\ccde7Qmv.s:1922   .text.dbg_vsnprintf_offset:0000000000000142 .L237
C:\Users\stapi\AppData\Local\Temp\ccde7Qmv.s:1910   .text.dbg_vsnprintf_offset:000000000000013a .L162
C:\Users\stapi\AppData\Local\Temp\ccde7Qmv.s:1836   .text.dbg_vsnprintf_offset:00000000000000f2 .L160
C:\Users\stapi\AppData\Local\Temp\ccde7Qmv.s:1893   .text.dbg_vsnprintf_offset:0000000000000132 .L158
C:\Users\stapi\AppData\Local\Temp\ccde7Qmv.s:1768   .text.dbg_vsnprintf_offset:00000000000000bc .L155
C:\Users\stapi\AppData\Local\Temp\ccde7Qmv.s:1918   .text.dbg_vsnprintf_offset:000000000000013e .L235
C:\Users\stapi\AppData\Local\Temp\ccde7Qmv.s:2171   .text.dbg_vsnprintf_offset:0000000000000272 .L193
C:\Users\stapi\AppData\Local\Temp\ccde7Qmv.s:2144   .text.dbg_vsnprintf_offset:0000000000000250 .L192
C:\Users\stapi\AppData\Local\Temp\ccde7Qmv.s:2207   .text.dbg_vsnprintf_offset:0000000000000298 .L191
C:\Users\stapi\AppData\Local\Temp\ccde7Qmv.s:4764   .debug_abbrev:0000000000000000 .Ldebug_abbrev0
C:\Users\stapi\AppData\Local\Temp\ccde7Qmv.s:8549   .debug_str:000000000000022f .LASF102
C:\Users\stapi\AppData\Local\Temp\ccde7Qmv.s:8603   .debug_str:0000000000000432 .LASF103
C:\Users\stapi\AppData\Local\Temp\ccde7Qmv.s:8501   .debug_str:00000000000000ab .LASF104
C:\Users\stapi\AppData\Local\Temp\ccde7Qmv.s:8383   .debug_ranges:0000000000000000 .Ldebug_ranges0
C:\Users\stapi\AppData\Local\Temp\ccde7Qmv.s:8465   .debug_line:0000000000000000 .Ldebug_line0
C:\Users\stapi\AppData\Local\Temp\ccde7Qmv.s:8591   .debug_str:00000000000003f0 .LASF0
C:\Users\stapi\AppData\Local\Temp\ccde7Qmv.s:8515   .debug_str:000000000000017c .LASF105
C:\Users\stapi\AppData\Local\Temp\ccde7Qmv.s:8481   .debug_str:0000000000000047 .LASF1
C:\Users\stapi\AppData\Local\Temp\ccde7Qmv.s:8545   .debug_str:0000000000000219 .LASF2
C:\Users\stapi\AppData\Local\Temp\ccde7Qmv.s:8509   .debug_str:0000000000000155 .LASF3
C:\Users\stapi\AppData\Local\Temp\ccde7Qmv.s:8477   .debug_str:0000000000000037 .LASF4
C:\Users\stapi\AppData\Local\Temp\ccde7Qmv.s:8611   .debug_str:00000000000004ca .LASF5
C:\Users\stapi\AppData\Local\Temp\ccde7Qmv.s:8669   .debug_str:00000000000005e0 .LASF6
C:\Users\stapi\AppData\Local\Temp\ccde7Qmv.s:8581   .debug_str:00000000000003b0 .LASF7
C:\Users\stapi\AppData\Local\Temp\ccde7Qmv.s:8641   .debug_str:0000000000000563 .LASF8
C:\Users\stapi\AppData\Local\Temp\ccde7Qmv.s:8569   .debug_str:0000000000000370 .LASF9
C:\Users\stapi\AppData\Local\Temp\ccde7Qmv.s:8583   .debug_str:00000000000003ba .LASF10
C:\Users\stapi\AppData\Local\Temp\ccde7Qmv.s:8513   .debug_str:0000000000000173 .LASF11
C:\Users\stapi\AppData\Local\Temp\ccde7Qmv.s:8529   .debug_str:00000000000001cd .LASF12
C:\Users\stapi\AppData\Local\Temp\ccde7Qmv.s:8511   .debug_str:0000000000000161 .LASF13
C:\Users\stapi\AppData\Local\Temp\ccde7Qmv.s:8507   .debug_str:0000000000000147 .LASF14
C:\Users\stapi\AppData\Local\Temp\ccde7Qmv.s:8487   .debug_str:0000000000000063 .LASF15
C:\Users\stapi\AppData\Local\Temp\ccde7Qmv.s:8637   .debug_str:0000000000000553 .LASF16
C:\Users\stapi\AppData\Local\Temp\ccde7Qmv.s:8667   .debug_str:00000000000005d8 .LASF17
C:\Users\stapi\AppData\Local\Temp\ccde7Qmv.s:8503   .debug_str:0000000000000134 .LASF18
C:\Users\stapi\AppData\Local\Temp\ccde7Qmv.s:8547   .debug_str:0000000000000226 .LASF19
C:\Users\stapi\AppData\Local\Temp\ccde7Qmv.s:8609   .debug_str:00000000000004c2 .LASF20
C:\Users\stapi\AppData\Local\Temp\ccde7Qmv.s:8631   .debug_str:000000000000053b .LASF21
C:\Users\stapi\AppData\Local\Temp\ccde7Qmv.s:8655   .debug_str:00000000000005a0 .LASF22
C:\Users\stapi\AppData\Local\Temp\ccde7Qmv.s:8629   .debug_str:0000000000000531 .LASF23
C:\Users\stapi\AppData\Local\Temp\ccde7Qmv.s:8485   .debug_str:000000000000005b .LASF24
C:\Users\stapi\AppData\Local\Temp\ccde7Qmv.s:8523   .debug_str:00000000000001b1 .LASF25
C:\Users\stapi\AppData\Local\Temp\ccde7Qmv.s:8575   .debug_str:0000000000000393 .LASF26
C:\Users\stapi\AppData\Local\Temp\ccde7Qmv.s:8535   .debug_str:00000000000001e9 .LASF27
C:\Users\stapi\AppData\Local\Temp\ccde7Qmv.s:8577   .debug_str:0000000000000399 .LASF28
C:\Users\stapi\AppData\Local\Temp\ccde7Qmv.s:8493   .debug_str:0000000000000086 .LASF29
C:\Users\stapi\AppData\Local\Temp\ccde7Qmv.s:8673   .debug_str:00000000000005f4 .LASF30
C:\Users\stapi\AppData\Local\Temp\ccde7Qmv.s:8643   .debug_str:000000000000056e .LASF31
C:\Users\stapi\AppData\Local\Temp\ccde7Qmv.s:8551   .debug_str:0000000000000328 .LASF32
C:\Users\stapi\AppData\Local\Temp\ccde7Qmv.s:8559   .debug_str:0000000000000352 .LASF33
C:\Users\stapi\AppData\Local\Temp\ccde7Qmv.s:8663   .debug_str:00000000000005c6 .LASF34
C:\Users\stapi\AppData\Local\Temp\ccde7Qmv.s:8647   .debug_str:000000000000057c .LASF35
C:\Users\stapi\AppData\Local\Temp\ccde7Qmv.s:8597   .debug_str:0000000000000417 .LASF36
C:\Users\stapi\AppData\Local\Temp\ccde7Qmv.s:8675   .debug_str:00000000000005fa .LASF37
C:\Users\stapi\AppData\Local\Temp\ccde7Qmv.s:8607   .debug_str:00000000000004bb .LASF38
C:\Users\stapi\AppData\Local\Temp\ccde7Qmv.s:8657   .debug_str:00000000000005a7 .LASF39
C:\Users\stapi\AppData\Local\Temp\ccde7Qmv.s:8553   .debug_str:0000000000000332 .LASF40
C:\Users\stapi\AppData\Local\Temp\ccde7Qmv.s:8599   .debug_str:000000000000041e .LASF41
C:\Users\stapi\AppData\Local\Temp\ccde7Qmv.s:8613   .debug_str:00000000000004d8 .LASF42
C:\Users\stapi\AppData\Local\Temp\ccde7Qmv.s:8517   .debug_str:000000000000018e .LASF43
C:\Users\stapi\AppData\Local\Temp\ccde7Qmv.s:8499   .debug_str:000000000000009b .LASF44
C:\Users\stapi\AppData\Local\Temp\ccde7Qmv.s:8601   .debug_str:0000000000000428 .LASF45
C:\Users\stapi\AppData\Local\Temp\ccde7Qmv.s:8659   .debug_str:00000000000005ad .LASF46
C:\Users\stapi\AppData\Local\Temp\ccde7Qmv.s:8651   .debug_str:000000000000058b .LASF47
C:\Users\stapi\AppData\Local\Temp\ccde7Qmv.s:8541   .debug_str:0000000000000200 .LASF48
C:\Users\stapi\AppData\Local\Temp\ccde7Qmv.s:8585   .debug_str:00000000000003c4 .LASF49
C:\Users\stapi\AppData\Local\Temp\ccde7Qmv.s:8469   .debug_str:0000000000000007 .LASF54
C:\Users\stapi\AppData\Local\Temp\ccde7Qmv.s:2769   .text.dbg_snprintf:0000000000000000 .LFB378
C:\Users\stapi\AppData\Local\Temp\ccde7Qmv.s:2811   .text.dbg_snprintf:0000000000000024 .LFE378
C:\Users\stapi\AppData\Local\Temp\ccde7Qmv.s:8649   .debug_str:0000000000000584 .LASF50
C:\Users\stapi\AppData\Local\Temp\ccde7Qmv.s:5588   .debug_loc:0000000000000000 .LLST82
C:\Users\stapi\AppData\Local\Temp\ccde7Qmv.s:8567   .debug_str:000000000000036b .LASF51
C:\Users\stapi\AppData\Local\Temp\ccde7Qmv.s:5602   .debug_loc:0000000000000021 .LLST83
C:\Users\stapi\AppData\Local\Temp\ccde7Qmv.s:5616   .debug_loc:0000000000000042 .LLST84
C:\Users\stapi\AppData\Local\Temp\ccde7Qmv.s:8615   .debug_str:00000000000004e4 .LASF52
C:\Users\stapi\AppData\Local\Temp\ccde7Qmv.s:5634   .debug_loc:000000000000006e .LLST85
C:\Users\stapi\AppData\Local\Temp\ccde7Qmv.s:8677   .debug_str:0000000000000601 .LASF53
C:\Users\stapi\AppData\Local\Temp\ccde7Qmv.s:2801   .text.dbg_snprintf:000000000000001e .LVL343
C:\Users\stapi\AppData\Local\Temp\ccde7Qmv.s:8473   .debug_str:000000000000001b .LASF55
C:\Users\stapi\AppData\Local\Temp\ccde7Qmv.s:1599   .text.dbg_vsnprintf_offset:0000000000000000 .LFB377
C:\Users\stapi\AppData\Local\Temp\ccde7Qmv.s:2762   .text.dbg_vsnprintf_offset:0000000000000508 .LFE377
C:\Users\stapi\AppData\Local\Temp\ccde7Qmv.s:5652   .debug_loc:000000000000009a .LLST63
C:\Users\stapi\AppData\Local\Temp\ccde7Qmv.s:5713   .debug_loc:0000000000000130 .LLST64
C:\Users\stapi\AppData\Local\Temp\ccde7Qmv.s:8653   .debug_str:0000000000000599 .LASF56
C:\Users\stapi\AppData\Local\Temp\ccde7Qmv.s:5724   .debug_loc:000000000000014e .LLST65
C:\Users\stapi\AppData\Local\Temp\ccde7Qmv.s:5735   .debug_loc:000000000000016c .LLST66
C:\Users\stapi\AppData\Local\Temp\ccde7Qmv.s:8595   .debug_str:0000000000000409 .LASF57
C:\Users\stapi\AppData\Local\Temp\ccde7Qmv.s:5852   .debug_loc:000000000000029c .LLST67
C:\Users\stapi\AppData\Local\Temp\ccde7Qmv.s:5890   .debug_loc:00000000000002f1 .LLST68
C:\Users\stapi\AppData\Local\Temp\ccde7Qmv.s:8525   .debug_str:00000000000001b9 .LASF58
C:\Users\stapi\AppData\Local\Temp\ccde7Qmv.s:5975   .debug_loc:00000000000003c9 .LLST69
C:\Users\stapi\AppData\Local\Temp\ccde7Qmv.s:8623   .debug_str:0000000000000513 .LASF59
C:\Users\stapi\AppData\Local\Temp\ccde7Qmv.s:6166   .debug_loc:0000000000000582 .LLST70
C:\Users\stapi\AppData\Local\Temp\ccde7Qmv.s:8639   .debug_str:0000000000000558 .LASF60
C:\Users\stapi\AppData\Local\Temp\ccde7Qmv.s:8521   .debug_str:00000000000001a5 .LASF61
C:\Users\stapi\AppData\Local\Temp\ccde7Qmv.s:6304   .debug_loc:00000000000006ce .LLST71
C:\Users\stapi\AppData\Local\Temp\ccde7Qmv.s:8483   .debug_str:000000000000004f .LASF62
C:\Users\stapi\AppData\Local\Temp\ccde7Qmv.s:6363   .debug_loc:000000000000074e .LLST72
C:\Users\stapi\AppData\Local\Temp\ccde7Qmv.s:8579   .debug_str:00000000000003a0 .LASF63
C:\Users\stapi\AppData\Local\Temp\ccde7Qmv.s:6407   .debug_loc:00000000000007c5 .LLST73
C:\Users\stapi\AppData\Local\Temp\ccde7Qmv.s:8557   .debug_str:0000000000000344 .LASF64
C:\Users\stapi\AppData\Local\Temp\ccde7Qmv.s:6435   .debug_loc:0000000000000810 .LLST74
C:\Users\stapi\AppData\Local\Temp\ccde7Qmv.s:8539   .debug_str:00000000000001fa .LASF65
C:\Users\stapi\AppData\Local\Temp\ccde7Qmv.s:6477   .debug_loc:000000000000087e .LLST75
C:\Users\stapi\AppData\Local\Temp\ccde7Qmv.s:8563   .debug_str:000000000000035e .LASF66
C:\Users\stapi\AppData\Local\Temp\ccde7Qmv.s:6559   .debug_loc:0000000000000929 .LLST76
C:\Users\stapi\AppData\Local\Temp\ccde7Qmv.s:6601   .debug_loc:0000000000000982 .LLST77
C:\Users\stapi\AppData\Local\Temp\ccde7Qmv.s:8531   .debug_str:00000000000001d8 .LASF67
C:\Users\stapi\AppData\Local\Temp\ccde7Qmv.s:6776   .debug_loc:0000000000000aad .LLST78
C:\Users\stapi\AppData\Local\Temp\ccde7Qmv.s:6797   .debug_loc:0000000000000ae3 .LLST81
C:\Users\stapi\AppData\Local\Temp\ccde7Qmv.s:1678   .text.dbg_vsnprintf_offset:000000000000004c .LBB38
C:\Users\stapi\AppData\Local\Temp\ccde7Qmv.s:6810   .debug_loc:0000000000000b03 .LLST79
C:\Users\stapi\AppData\Local\Temp\ccde7Qmv.s:6821   .debug_loc:0000000000000b21 .LLST80
C:\Users\stapi\AppData\Local\Temp\ccde7Qmv.s:2312   .text.dbg_vsnprintf_offset:0000000000000306 .LBB45
C:\Users\stapi\AppData\Local\Temp\ccde7Qmv.s:8635   .debug_str:000000000000054a .LASF97
C:\Users\stapi\AppData\Local\Temp\ccde7Qmv.s:8543   .debug_str:0000000000000211 .LASF68
C:\Users\stapi\AppData\Local\Temp\ccde7Qmv.s:1396   .text.str2hex:0000000000000000 .LFB375
C:\Users\stapi\AppData\Local\Temp\ccde7Qmv.s:1592   .text.str2hex:0000000000000100 .LFE375
C:\Users\stapi\AppData\Local\Temp\ccde7Qmv.s:8627   .debug_str:000000000000052b .LASF69
C:\Users\stapi\AppData\Local\Temp\ccde7Qmv.s:6839   .debug_loc:0000000000000b4d .LLST57
C:\Users\stapi\AppData\Local\Temp\ccde7Qmv.s:8661   .debug_str:00000000000005bc .LASF70
C:\Users\stapi\AppData\Local\Temp\ccde7Qmv.s:6865   .debug_loc:0000000000000b8f .LLST58
C:\Users\stapi\AppData\Local\Temp\ccde7Qmv.s:8555   .debug_str:000000000000033d .LASF71
C:\Users\stapi\AppData\Local\Temp\ccde7Qmv.s:6884   .debug_loc:0000000000000bc3 .LLST59
C:\Users\stapi\AppData\Local\Temp\ccde7Qmv.s:8505   .debug_str:000000000000013c .LASF72
C:\Users\stapi\AppData\Local\Temp\ccde7Qmv.s:6910   .debug_loc:0000000000000c05 .LLST60
C:\Users\stapi\AppData\Local\Temp\ccde7Qmv.s:8645   .debug_str:0000000000000576 .LASF73
C:\Users\stapi\AppData\Local\Temp\ccde7Qmv.s:6935   .debug_loc:0000000000000c3f .LLST61
C:\Users\stapi\AppData\Local\Temp\ccde7Qmv.s:8533   .debug_str:00000000000001df .LASF74
C:\Users\stapi\AppData\Local\Temp\ccde7Qmv.s:6956   .debug_loc:0000000000000c75 .LLST62
C:\Users\stapi\AppData\Local\Temp\ccde7Qmv.s:1437   .text.str2hex:0000000000000034 .LVL165
C:\Users\stapi\AppData\Local\Temp\ccde7Qmv.s:1561   .text.str2hex:00000000000000ee .LVL176
C:\Users\stapi\AppData\Local\Temp\ccde7Qmv.s:8589   .debug_str:00000000000003da .LASF106
C:\Users\stapi\AppData\Local\Temp\ccde7Qmv.s:1336   .text.debug_print_dump_data:0000000000000000 .LFB374
C:\Users\stapi\AppData\Local\Temp\ccde7Qmv.s:1385   .text.debug_print_dump_data:0000000000000042 .LFE374
C:\Users\stapi\AppData\Local\Temp\ccde7Qmv.s:8479   .debug_str:0000000000000041 .LASF75
C:\Users\stapi\AppData\Local\Temp\ccde7Qmv.s:6993   .debug_loc:0000000000000cd7 .LLST54
C:\Users\stapi\AppData\Local\Temp\ccde7Qmv.s:7011   .debug_loc:0000000000000d03 .LLST55
C:\Users\stapi\AppData\Local\Temp\ccde7Qmv.s:8625   .debug_str:0000000000000522 .LASF76
C:\Users\stapi\AppData\Local\Temp\ccde7Qmv.s:7022   .debug_loc:0000000000000d21 .LLST56
C:\Users\stapi\AppData\Local\Temp\ccde7Qmv.s:1362   .text.debug_print_dump_data:0000000000000024 .LVL158
C:\Users\stapi\AppData\Local\Temp\ccde7Qmv.s:1375   .text.debug_print_dump_data:0000000000000038 .LVL160
C:\Users\stapi\AppData\Local\Temp\ccde7Qmv.s:8519   .debug_str:0000000000000198 .LASF77
C:\Users\stapi\AppData\Local\Temp\ccde7Qmv.s:1122   .text.print_buffer:0000000000000000 .LFB373
C:\Users\stapi\AppData\Local\Temp\ccde7Qmv.s:1325   .text.print_buffer:00000000000000d6 .LFE373
C:\Users\stapi\AppData\Local\Temp\ccde7Qmv.s:8491   .debug_str:0000000000000081 .LASF78
C:\Users\stapi\AppData\Local\Temp\ccde7Qmv.s:7041   .debug_loc:0000000000000d4e .LLST44
C:\Users\stapi\AppData\Local\Temp\ccde7Qmv.s:8565   .debug_str:0000000000000366 .LASF79
C:\Users\stapi\AppData\Local\Temp\ccde7Qmv.s:7052   .debug_loc:0000000000000d6c .LLST45
C:\Users\stapi\AppData\Local\Temp\ccde7Qmv.s:8561   .debug_str:0000000000000358 .LASF80
C:\Users\stapi\AppData\Local\Temp\ccde7Qmv.s:7066   .debug_loc:0000000000000d8d .LLST46
C:\Users\stapi\AppData\Local\Temp\ccde7Qmv.s:8527   .debug_str:00000000000001c7 .LASF81
C:\Users\stapi\AppData\Local\Temp\ccde7Qmv.s:7077   .debug_loc:0000000000000dab .LLST47
C:\Users\stapi\AppData\Local\Temp\ccde7Qmv.s:8537   .debug_str:00000000000001f2 .LASF82
C:\Users\stapi\AppData\Local\Temp\ccde7Qmv.s:7092   .debug_loc:0000000000000dd4 .LLST48
C:\Users\stapi\AppData\Local\Temp\ccde7Qmv.s:8679   .debug_str:0000000000000606 .LASF83
C:\Users\stapi\AppData\Local\Temp\ccde7Qmv.s:7103   .debug_loc:0000000000000df2 .LLST49
C:\Users\stapi\AppData\Local\Temp\ccde7Qmv.s:8633   .debug_str:0000000000000544 .LASF84
C:\Users\stapi\AppData\Local\Temp\ccde7Qmv.s:7120   .debug_loc:0000000000000e1d .LLST52
C:\Users\stapi\AppData\Local\Temp\ccde7Qmv.s:7135   .debug_loc:0000000000000e46 .LLST53
C:\Users\stapi\AppData\Local\Temp\ccde7Qmv.s:1238   .text.print_buffer:000000000000006a .LBB29
C:\Users\stapi\AppData\Local\Temp\ccde7Qmv.s:1243   .text.print_buffer:0000000000000074 .LVL147
C:\Users\stapi\AppData\Local\Temp\ccde7Qmv.s:1219   .text.print_buffer:0000000000000054 .LVL144
C:\Users\stapi\AppData\Local\Temp\ccde7Qmv.s:1281   .text.print_buffer:0000000000000098 .LVL152
C:\Users\stapi\AppData\Local\Temp\ccde7Qmv.s:8617   .debug_str:00000000000004ec .LASF85
C:\Users\stapi\AppData\Local\Temp\ccde7Qmv.s:1043   .text.co_snprintf:0000000000000000 .LFB372
C:\Users\stapi\AppData\Local\Temp\ccde7Qmv.s:1102   .text.co_snprintf:0000000000000030 .LFE372
C:\Users\stapi\AppData\Local\Temp\ccde7Qmv.s:7146   .debug_loc:0000000000000e64 .LLST40
C:\Users\stapi\AppData\Local\Temp\ccde7Qmv.s:8571   .debug_str:0000000000000383 .LASF86
C:\Users\stapi\AppData\Local\Temp\ccde7Qmv.s:7167   .debug_loc:0000000000000e9b .LLST41
C:\Users\stapi\AppData\Local\Temp\ccde7Qmv.s:8621   .debug_str:000000000000050c .LASF87
C:\Users\stapi\AppData\Local\Temp\ccde7Qmv.s:7189   .debug_loc:0000000000000ed2 .LLST42
C:\Users\stapi\AppData\Local\Temp\ccde7Qmv.s:7211   .debug_loc:0000000000000f09 .LLST43
C:\Users\stapi\AppData\Local\Temp\ccde7Qmv.s:1064   .text.co_snprintf:0000000000000014 .LBB28
C:\Users\stapi\AppData\Local\Temp\ccde7Qmv.s:1084   .text.co_snprintf:0000000000000026 .LBE28
C:\Users\stapi\AppData\Local\Temp\ccde7Qmv.s:1081   .text.co_snprintf:0000000000000026 .LVL132
C:\Users\stapi\AppData\Local\Temp\ccde7Qmv.s:8671   .debug_str:00000000000005ea .LASF88
C:\Users\stapi\AppData\Local\Temp\ccde7Qmv.s:993    .text.co_printf:0000000000000000 .LFB371
C:\Users\stapi\AppData\Local\Temp\ccde7Qmv.s:1036   .text.co_printf:000000000000002a .LFE371
C:\Users\stapi\AppData\Local\Temp\ccde7Qmv.s:7224   .debug_loc:0000000000000f29 .LLST39
C:\Users\stapi\AppData\Local\Temp\ccde7Qmv.s:1026   .text.co_printf:0000000000000024 .LVL127
C:\Users\stapi\AppData\Local\Temp\ccde7Qmv.s:8495   .debug_str:000000000000008d .LASF89
C:\Users\stapi\AppData\Local\Temp\ccde7Qmv.s:462    .text.print:0000000000000000 .LFB370
C:\Users\stapi\AppData\Local\Temp\ccde7Qmv.s:986    .text.print:000000000000028c .LFE370
C:\Users\stapi\AppData\Local\Temp\ccde7Qmv.s:7242   .debug_loc:0000000000000f55 .LLST29
C:\Users\stapi\AppData\Local\Temp\ccde7Qmv.s:7253   .debug_loc:0000000000000f73 .LLST30
C:\Users\stapi\AppData\Local\Temp\ccde7Qmv.s:7364   .debug_loc:0000000000001081 .LLST31
C:\Users\stapi\AppData\Local\Temp\ccde7Qmv.s:7445   .debug_loc:0000000000001155 .LLST32
C:\Users\stapi\AppData\Local\Temp\ccde7Qmv.s:7465   .debug_loc:0000000000001183 .LLST33
C:\Users\stapi\AppData\Local\Temp\ccde7Qmv.s:7533   .debug_loc:000000000000122e .LLST34
C:\Users\stapi\AppData\Local\Temp\ccde7Qmv.s:7579   .debug_loc:00000000000012a7 .LLST35
C:\Users\stapi\AppData\Local\Temp\ccde7Qmv.s:7605   .debug_loc:00000000000012e9 .LLST36
C:\Users\stapi\AppData\Local\Temp\ccde7Qmv.s:7617   .debug_loc:0000000000001308 .LLST37
C:\Users\stapi\AppData\Local\Temp\ccde7Qmv.s:7624   .debug_loc:000000000000131b .LLST38
C:\Users\stapi\AppData\Local\Temp\ccde7Qmv.s:775    .text.print:0000000000000158 .LVL94
C:\Users\stapi\AppData\Local\Temp\ccde7Qmv.s:784    .text.print:000000000000016a .LVL96
C:\Users\stapi\AppData\Local\Temp\ccde7Qmv.s:810    .text.print:0000000000000190 .LVL100
C:\Users\stapi\AppData\Local\Temp\ccde7Qmv.s:846    .text.print:00000000000001bc .LVL105
C:\Users\stapi\AppData\Local\Temp\ccde7Qmv.s:855    .text.print:00000000000001ce .LVL107
C:\Users\stapi\AppData\Local\Temp\ccde7Qmv.s:890    .text.print:0000000000000206 .LVL111
C:\Users\stapi\AppData\Local\Temp\ccde7Qmv.s:653    .text.print:00000000000000c6 .LVL74
C:\Users\stapi\AppData\Local\Temp\ccde7Qmv.s:701    .text.print:0000000000000104 .LVL83
C:\Users\stapi\AppData\Local\Temp\ccde7Qmv.s:982    .text.print:000000000000028a .LVL124
C:\Users\stapi\AppData\Local\Temp\ccde7Qmv.s:8489   .debug_str:000000000000007a .LASF92
C:\Users\stapi\AppData\Local\Temp\ccde7Qmv.s:268    .text.printi:0000000000000000 .LFB369
C:\Users\stapi\AppData\Local\Temp\ccde7Qmv.s:451    .text.printi:00000000000000c2 .LFE369
C:\Users\stapi\AppData\Local\Temp\ccde7Qmv.s:7645   .debug_loc:0000000000001351 .LLST16
C:\Users\stapi\AppData\Local\Temp\ccde7Qmv.s:7675   .debug_loc:000000000000139e .LLST17
C:\Users\stapi\AppData\Local\Temp\ccde7Qmv.s:7711   .debug_loc:00000000000013f1 .LLST18
C:\Users\stapi\AppData\Local\Temp\ccde7Qmv.s:7744   .debug_loc:0000000000001441 .LLST19
C:\Users\stapi\AppData\Local\Temp\ccde7Qmv.s:7784   .debug_loc:000000000000149f .LLST20
C:\Users\stapi\AppData\Local\Temp\ccde7Qmv.s:7795   .debug_loc:00000000000014bd .LLST21
C:\Users\stapi\AppData\Local\Temp\ccde7Qmv.s:8497   .debug_str:0000000000000093 .LASF90
C:\Users\stapi\AppData\Local\Temp\ccde7Qmv.s:7833   .debug_loc:0000000000001519 .LLST22
C:\Users\stapi\AppData\Local\Temp\ccde7Qmv.s:7881   .debug_loc:0000000000001586 .LLST23
C:\Users\stapi\AppData\Local\Temp\ccde7Qmv.s:8593   .debug_str:00000000000003ff .LASF91
C:\Users\stapi\AppData\Local\Temp\ccde7Qmv.s:7915   .debug_loc:00000000000015d7 .LLST24
C:\Users\stapi\AppData\Local\Temp\ccde7Qmv.s:7946   .debug_loc:0000000000001625 .LLST25
C:\Users\stapi\AppData\Local\Temp\ccde7Qmv.s:7965   .debug_loc:0000000000001652 .LLST26
C:\Users\stapi\AppData\Local\Temp\ccde7Qmv.s:7996   .debug_loc:00000000000016a0 .LLST27
C:\Users\stapi\AppData\Local\Temp\ccde7Qmv.s:8023   .debug_loc:00000000000016e3 .LLST28
C:\Users\stapi\AppData\Local\Temp\ccde7Qmv.s:312    .text.printi:0000000000000028 .LVL37
C:\Users\stapi\AppData\Local\Temp\ccde7Qmv.s:407    .text.printi:0000000000000090 .LVL50
C:\Users\stapi\AppData\Local\Temp\ccde7Qmv.s:421    .text.printi:00000000000000a4 .LVL52
C:\Users\stapi\AppData\Local\Temp\ccde7Qmv.s:8471   .debug_str:0000000000000014 .LASF93
C:\Users\stapi\AppData\Local\Temp\ccde7Qmv.s:99     .text.prints:0000000000000000 .LFB368
C:\Users\stapi\AppData\Local\Temp\ccde7Qmv.s:262    .text.prints:00000000000000ac .LFE368
C:\Users\stapi\AppData\Local\Temp\ccde7Qmv.s:8053   .debug_loc:0000000000001730 .LLST7
C:\Users\stapi\AppData\Local\Temp\ccde7Qmv.s:8475   .debug_str:0000000000000030 .LASF94
C:\Users\stapi\AppData\Local\Temp\ccde7Qmv.s:8064   .debug_loc:000000000000174e .LLST8
C:\Users\stapi\AppData\Local\Temp\ccde7Qmv.s:8087   .debug_loc:000000000000177f .LLST9
C:\Users\stapi\AppData\Local\Temp\ccde7Qmv.s:8124   .debug_loc:00000000000017e1 .LLST10
C:\Users\stapi\AppData\Local\Temp\ccde7Qmv.s:8149   .debug_loc:000000000000181b .LLST11
C:\Users\stapi\AppData\Local\Temp\ccde7Qmv.s:8160   .debug_loc:0000000000001839 .LLST12
C:\Users\stapi\AppData\Local\Temp\ccde7Qmv.s:8605   .debug_str:00000000000004b3 .LASF95
C:\Users\stapi\AppData\Local\Temp\ccde7Qmv.s:8172   .debug_loc:0000000000001858 .LLST13
C:\Users\stapi\AppData\Local\Temp\ccde7Qmv.s:8195   .debug_loc:0000000000001890 .LLST14
C:\Users\stapi\AppData\Local\Temp\ccde7Qmv.s:8206   .debug_loc:00000000000018ae .LLST15
C:\Users\stapi\AppData\Local\Temp\ccde7Qmv.s:190    .text.prints:0000000000000058 .LVL21
C:\Users\stapi\AppData\Local\Temp\ccde7Qmv.s:213    .text.prints:0000000000000076 .LVL25
C:\Users\stapi\AppData\Local\Temp\ccde7Qmv.s:255    .text.prints:00000000000000a8 .LVL28
C:\Users\stapi\AppData\Local\Temp\ccde7Qmv.s:8573   .debug_str:0000000000000389 .LASF107
C:\Users\stapi\AppData\Local\Temp\ccde7Qmv.s:8587   .debug_str:00000000000003d4 .LASF96
C:\Users\stapi\AppData\Local\Temp\ccde7Qmv.s:88     .text.printchar:000000000000006c .LVL7
C:\Users\stapi\AppData\Local\Temp\ccde7Qmv.s:13     .text.printchar:0000000000000000 .LFB367
C:\Users\stapi\AppData\Local\Temp\ccde7Qmv.s:93     .text.printchar:000000000000006e .LFE367
C:\Users\stapi\AppData\Local\Temp\ccde7Qmv.s:8240   .debug_loc:00000000000018f1 .LLST0
C:\Users\stapi\AppData\Local\Temp\ccde7Qmv.s:8265   .debug_loc:000000000000192b .LLST1
C:\Users\stapi\AppData\Local\Temp\ccde7Qmv.s:8290   .debug_loc:0000000000001965 .LLST2
C:\Users\stapi\AppData\Local\Temp\ccde7Qmv.s:48     .text.printchar:0000000000000030 .LBB13
C:\Users\stapi\AppData\Local\Temp\ccde7Qmv.s:69     .text.printchar:0000000000000044 .LBE13
C:\Users\stapi\AppData\Local\Temp\ccde7Qmv.s:8315   .debug_loc:000000000000199f .LLST3
C:\Users\stapi\AppData\Local\Temp\ccde7Qmv.s:8322   .debug_loc:00000000000019b2 .LLST4
C:\Users\stapi\AppData\Local\Temp\ccde7Qmv.s:8329   .debug_loc:00000000000019c5 .LLST5
C:\Users\stapi\AppData\Local\Temp\ccde7Qmv.s:70     .text.printchar:0000000000000044 .LBB15
C:\Users\stapi\AppData\Local\Temp\ccde7Qmv.s:89     .text.printchar:000000000000006c .LBE15
C:\Users\stapi\AppData\Local\Temp\ccde7Qmv.s:8336   .debug_loc:00000000000019d8 .LLST6
C:\Users\stapi\AppData\Local\Temp\ccde7Qmv.s:28     .text.printchar:0000000000000016 .LVL2
C:\Users\stapi\AppData\Local\Temp\ccde7Qmv.s:8665   .debug_str:00000000000005cd .LASF98
C:\Users\stapi\AppData\Local\Temp\ccde7Qmv.s:8467   .debug_str:0000000000000000 .LASF99
C:\Users\stapi\AppData\Local\Temp\ccde7Qmv.s:8619   .debug_str:00000000000004f8 .LASF100
C:\Users\stapi\AppData\Local\Temp\ccde7Qmv.s:8681   .debug_str:000000000000060e .LASF101
C:\Users\stapi\AppData\Local\Temp\ccde7Qmv.s:2772   .text.dbg_snprintf:0000000000000000 .LVL341
C:\Users\stapi\AppData\Local\Temp\ccde7Qmv.s:2788   .text.dbg_snprintf:000000000000000c .LVL342
C:\Users\stapi\AppData\Local\Temp\ccde7Qmv.s:1602   .text.dbg_vsnprintf_offset:0000000000000000 .LVL181
C:\Users\stapi\AppData\Local\Temp\ccde7Qmv.s:1667   .text.dbg_vsnprintf_offset:0000000000000042 .LVL184
C:\Users\stapi\AppData\Local\Temp\ccde7Qmv.s:1946   .text.dbg_vsnprintf_offset:0000000000000158 .LVL204
C:\Users\stapi\AppData\Local\Temp\ccde7Qmv.s:1952   .text.dbg_vsnprintf_offset:0000000000000160 .LVL206
C:\Users\stapi\AppData\Local\Temp\ccde7Qmv.s:2613   .text.dbg_vsnprintf_offset:0000000000000458 .LVL310
C:\Users\stapi\AppData\Local\Temp\ccde7Qmv.s:2619   .text.dbg_vsnprintf_offset:0000000000000460 .LVL312
C:\Users\stapi\AppData\Local\Temp\ccde7Qmv.s:2657   .text.dbg_vsnprintf_offset:0000000000000492 .LVL317
C:\Users\stapi\AppData\Local\Temp\ccde7Qmv.s:2663   .text.dbg_vsnprintf_offset:000000000000049a .LVL319
C:\Users\stapi\AppData\Local\Temp\ccde7Qmv.s:2682   .text.dbg_vsnprintf_offset:00000000000004ae .LVL322
C:\Users\stapi\AppData\Local\Temp\ccde7Qmv.s:2691   .text.dbg_vsnprintf_offset:00000000000004be .LVL325
C:\Users\stapi\AppData\Local\Temp\ccde7Qmv.s:2727   .text.dbg_vsnprintf_offset:00000000000004ec .LVL333
C:\Users\stapi\AppData\Local\Temp\ccde7Qmv.s:2733   .text.dbg_vsnprintf_offset:00000000000004f4 .LVL335
C:\Users\stapi\AppData\Local\Temp\ccde7Qmv.s:1649   .text.dbg_vsnprintf_offset:0000000000000020 .LVL183
C:\Users\stapi\AppData\Local\Temp\ccde7Qmv.s:1701   .text.dbg_vsnprintf_offset:0000000000000072 .LVL186
C:\Users\stapi\AppData\Local\Temp\ccde7Qmv.s:1696   .text.dbg_vsnprintf_offset:0000000000000070 .LVL185
C:\Users\stapi\AppData\Local\Temp\ccde7Qmv.s:2018   .text.dbg_vsnprintf_offset:00000000000001b6 .LVL219
C:\Users\stapi\AppData\Local\Temp\ccde7Qmv.s:2023   .text.dbg_vsnprintf_offset:00000000000001ba .LVL220
C:\Users\stapi\AppData\Local\Temp\ccde7Qmv.s:2030   .text.dbg_vsnprintf_offset:00000000000001c0 .LVL222
C:\Users\stapi\AppData\Local\Temp\ccde7Qmv.s:2047   .text.dbg_vsnprintf_offset:00000000000001d6 .LVL226
C:\Users\stapi\AppData\Local\Temp\ccde7Qmv.s:2052   .text.dbg_vsnprintf_offset:00000000000001da .LVL227
C:\Users\stapi\AppData\Local\Temp\ccde7Qmv.s:2059   .text.dbg_vsnprintf_offset:00000000000001e0 .LVL229
C:\Users\stapi\AppData\Local\Temp\ccde7Qmv.s:2104   .text.dbg_vsnprintf_offset:0000000000000236 .LVL235
C:\Users\stapi\AppData\Local\Temp\ccde7Qmv.s:2106   .text.dbg_vsnprintf_offset:0000000000000238 .LVL236
C:\Users\stapi\AppData\Local\Temp\ccde7Qmv.s:2161   .text.dbg_vsnprintf_offset:0000000000000264 .LVL238
C:\Users\stapi\AppData\Local\Temp\ccde7Qmv.s:2164   .text.dbg_vsnprintf_offset:0000000000000268 .LVL239
C:\Users\stapi\AppData\Local\Temp\ccde7Qmv.s:2170   .text.dbg_vsnprintf_offset:0000000000000272 .LVL240
C:\Users\stapi\AppData\Local\Temp\ccde7Qmv.s:2178   .text.dbg_vsnprintf_offset:0000000000000278 .LVL242
C:\Users\stapi\AppData\Local\Temp\ccde7Qmv.s:2206   .text.dbg_vsnprintf_offset:0000000000000298 .LVL246
C:\Users\stapi\AppData\Local\Temp\ccde7Qmv.s:2213   .text.dbg_vsnprintf_offset:000000000000029e .LVL248
C:\Users\stapi\AppData\Local\Temp\ccde7Qmv.s:2245   .text.dbg_vsnprintf_offset:00000000000002bc .LVL252
C:\Users\stapi\AppData\Local\Temp\ccde7Qmv.s:2254   .text.dbg_vsnprintf_offset:00000000000002c4 .LVL253
C:\Users\stapi\AppData\Local\Temp\ccde7Qmv.s:2302   .text.dbg_vsnprintf_offset:00000000000002fe .LVL259
C:\Users\stapi\AppData\Local\Temp\ccde7Qmv.s:2310   .text.dbg_vsnprintf_offset:0000000000000306 .LVL260
C:\Users\stapi\AppData\Local\Temp\ccde7Qmv.s:2389   .text.dbg_vsnprintf_offset:0000000000000360 .LVL269
C:\Users\stapi\AppData\Local\Temp\ccde7Qmv.s:2401   .text.dbg_vsnprintf_offset:0000000000000370 .LVL270
C:\Users\stapi\AppData\Local\Temp\ccde7Qmv.s:2404   .text.dbg_vsnprintf_offset:0000000000000374 .LVL271
C:\Users\stapi\AppData\Local\Temp\ccde7Qmv.s:2475   .text.dbg_vsnprintf_offset:00000000000003b8 .LVL285
C:\Users\stapi\AppData\Local\Temp\ccde7Qmv.s:2479   .text.dbg_vsnprintf_offset:00000000000003bc .LVL286
C:\Users\stapi\AppData\Local\Temp\ccde7Qmv.s:2499   .text.dbg_vsnprintf_offset:00000000000003e6 .LVL289
C:\Users\stapi\AppData\Local\Temp\ccde7Qmv.s:2717   .text.dbg_vsnprintf_offset:00000000000004de .LVL331
C:\Users\stapi\AppData\Local\Temp\ccde7Qmv.s:2719   .text.dbg_vsnprintf_offset:00000000000004e0 .LVL332
C:\Users\stapi\AppData\Local\Temp\ccde7Qmv.s:2741   .text.dbg_vsnprintf_offset:00000000000004f8 .LVL337
C:\Users\stapi\AppData\Local\Temp\ccde7Qmv.s:1632   .text.dbg_vsnprintf_offset:000000000000001c .LVL182
C:\Users\stapi\AppData\Local\Temp\ccde7Qmv.s:1778   .text.dbg_vsnprintf_offset:00000000000000c2 .LVL190
C:\Users\stapi\AppData\Local\Temp\ccde7Qmv.s:1781   .text.dbg_vsnprintf_offset:00000000000000c8 .LVL191
C:\Users\stapi\AppData\Local\Temp\ccde7Qmv.s:1788   .text.dbg_vsnprintf_offset:00000000000000d4 .LVL192
C:\Users\stapi\AppData\Local\Temp\ccde7Qmv.s:1790   .text.dbg_vsnprintf_offset:00000000000000d8 .LVL193
C:\Users\stapi\AppData\Local\Temp\ccde7Qmv.s:1805   .text.dbg_vsnprintf_offset:00000000000000da .LVL194
C:\Users\stapi\AppData\Local\Temp\ccde7Qmv.s:1926   .text.dbg_vsnprintf_offset:0000000000000146 .LVL199
C:\Users\stapi\AppData\Local\Temp\ccde7Qmv.s:2750   .text.dbg_vsnprintf_offset:00000000000004fe .LVL340
C:\Users\stapi\AppData\Local\Temp\ccde7Qmv.s:1704   .text.dbg_vsnprintf_offset:0000000000000076 .LVL187
C:\Users\stapi\AppData\Local\Temp\ccde7Qmv.s:2012   .text.dbg_vsnprintf_offset:00000000000001ae .LVL217
C:\Users\stapi\AppData\Local\Temp\ccde7Qmv.s:2016   .text.dbg_vsnprintf_offset:00000000000001b4 .LVL218
C:\Users\stapi\AppData\Local\Temp\ccde7Qmv.s:2041   .text.dbg_vsnprintf_offset:00000000000001ce .LVL224
C:\Users\stapi\AppData\Local\Temp\ccde7Qmv.s:2045   .text.dbg_vsnprintf_offset:00000000000001d4 .LVL225
C:\Users\stapi\AppData\Local\Temp\ccde7Qmv.s:2189   .text.dbg_vsnprintf_offset:0000000000000280 .LVL244
C:\Users\stapi\AppData\Local\Temp\ccde7Qmv.s:2220   .text.dbg_vsnprintf_offset:00000000000002a2 .LVL249
C:\Users\stapi\AppData\Local\Temp\ccde7Qmv.s:2263   .text.dbg_vsnprintf_offset:00000000000002d0 .LVL254
C:\Users\stapi\AppData\Local\Temp\ccde7Qmv.s:2337   .text.dbg_vsnprintf_offset:000000000000031a .LVL262
C:\Users\stapi\AppData\Local\Temp\ccde7Qmv.s:2425   .text.dbg_vsnprintf_offset:0000000000000386 .LVL275
C:\Users\stapi\AppData\Local\Temp\ccde7Qmv.s:2503   .text.dbg_vsnprintf_offset:00000000000003ea .LVL290
C:\Users\stapi\AppData\Local\Temp\ccde7Qmv.s:2562   .text.dbg_vsnprintf_offset:0000000000000426 .LVL301
C:\Users\stapi\AppData\Local\Temp\ccde7Qmv.s:2567   .text.dbg_vsnprintf_offset:000000000000042a .LVL302
C:\Users\stapi\AppData\Local\Temp\ccde7Qmv.s:2593   .text.dbg_vsnprintf_offset:0000000000000444 .LVL306
C:\Users\stapi\AppData\Local\Temp\ccde7Qmv.s:2605   .text.dbg_vsnprintf_offset:000000000000044c .LVL309
C:\Users\stapi\AppData\Local\Temp\ccde7Qmv.s:2147   .text.dbg_vsnprintf_offset:0000000000000254 .LVL237
C:\Users\stapi\AppData\Local\Temp\ccde7Qmv.s:2175   .text.dbg_vsnprintf_offset:0000000000000274 .LVL241
C:\Users\stapi\AppData\Local\Temp\ccde7Qmv.s:2184   .text.dbg_vsnprintf_offset:000000000000027e .LVL243
C:\Users\stapi\AppData\Local\Temp\ccde7Qmv.s:2211   .text.dbg_vsnprintf_offset:000000000000029a .LVL247
C:\Users\stapi\AppData\Local\Temp\ccde7Qmv.s:2270   .text.dbg_vsnprintf_offset:00000000000002d6 .LVL255
C:\Users\stapi\AppData\Local\Temp\ccde7Qmv.s:2288   .text.dbg_vsnprintf_offset:00000000000002ee .LVL257
C:\Users\stapi\AppData\Local\Temp\ccde7Qmv.s:2296   .text.dbg_vsnprintf_offset:00000000000002f8 .LVL258
C:\Users\stapi\AppData\Local\Temp\ccde7Qmv.s:2342   .text.dbg_vsnprintf_offset:0000000000000322 .LVL263
C:\Users\stapi\AppData\Local\Temp\ccde7Qmv.s:2350   .text.dbg_vsnprintf_offset:0000000000000328 .LVL264
C:\Users\stapi\AppData\Local\Temp\ccde7Qmv.s:2368   .text.dbg_vsnprintf_offset:0000000000000340 .LVL266
C:\Users\stapi\AppData\Local\Temp\ccde7Qmv.s:2378   .text.dbg_vsnprintf_offset:000000000000034e .LVL267
C:\Users\stapi\AppData\Local\Temp\ccde7Qmv.s:2386   .text.dbg_vsnprintf_offset:000000000000035a .LVL268
C:\Users\stapi\AppData\Local\Temp\ccde7Qmv.s:2422   .text.dbg_vsnprintf_offset:0000000000000384 .LVL274
C:\Users\stapi\AppData\Local\Temp\ccde7Qmv.s:2458   .text.dbg_vsnprintf_offset:00000000000003a6 .LVL281
C:\Users\stapi\AppData\Local\Temp\ccde7Qmv.s:2462   .text.dbg_vsnprintf_offset:00000000000003aa .LVL282
C:\Users\stapi\AppData\Local\Temp\ccde7Qmv.s:2490   .text.dbg_vsnprintf_offset:00000000000003d4 .LVL287
C:\Users\stapi\AppData\Local\Temp\ccde7Qmv.s:2492   .text.dbg_vsnprintf_offset:00000000000003d6 .LVL288
C:\Users\stapi\AppData\Local\Temp\ccde7Qmv.s:2542   .text.dbg_vsnprintf_offset:0000000000000412 .LVL296
C:\Users\stapi\AppData\Local\Temp\ccde7Qmv.s:2548   .text.dbg_vsnprintf_offset:0000000000000418 .LVL298
C:\Users\stapi\AppData\Local\Temp\ccde7Qmv.s:2555   .text.dbg_vsnprintf_offset:0000000000000420 .LVL299
C:\Users\stapi\AppData\Local\Temp\ccde7Qmv.s:2598   .text.dbg_vsnprintf_offset:0000000000000446 .LVL307
C:\Users\stapi\AppData\Local\Temp\ccde7Qmv.s:2600   .text.dbg_vsnprintf_offset:0000000000000448 .LVL308
C:\Users\stapi\AppData\Local\Temp\ccde7Qmv.s:2674   .text.dbg_vsnprintf_offset:00000000000004a2 .LVL321
C:\Users\stapi\AppData\Local\Temp\ccde7Qmv.s:2697   .text.dbg_vsnprintf_offset:00000000000004c0 .LVL326
C:\Users\stapi\AppData\Local\Temp\ccde7Qmv.s:2704   .text.dbg_vsnprintf_offset:00000000000004c8 .LVL328
C:\Users\stapi\AppData\Local\Temp\ccde7Qmv.s:2237   .text.dbg_vsnprintf_offset:00000000000002b8 .LVL250
C:\Users\stapi\AppData\Local\Temp\ccde7Qmv.s:2243   .text.dbg_vsnprintf_offset:00000000000002ba .LVL251
C:\Users\stapi\AppData\Local\Temp\ccde7Qmv.s:2447   .text.dbg_vsnprintf_offset:000000000000039c .LVL279
C:\Users\stapi\AppData\Local\Temp\ccde7Qmv.s:2450   .text.dbg_vsnprintf_offset:000000000000039e .LVL280
C:\Users\stapi\AppData\Local\Temp\ccde7Qmv.s:2466   .text.dbg_vsnprintf_offset:00000000000003ae .LVL283
C:\Users\stapi\AppData\Local\Temp\ccde7Qmv.s:2471   .text.dbg_vsnprintf_offset:00000000000003b2 .LVL284
C:\Users\stapi\AppData\Local\Temp\ccde7Qmv.s:2523   .text.dbg_vsnprintf_offset:00000000000003fe .LVL293
C:\Users\stapi\AppData\Local\Temp\ccde7Qmv.s:2527   .text.dbg_vsnprintf_offset:0000000000000400 .LVL294
C:\Users\stapi\AppData\Local\Temp\ccde7Qmv.s:2546   .text.dbg_vsnprintf_offset:0000000000000416 .LVL297
C:\Users\stapi\AppData\Local\Temp\ccde7Qmv.s:2560   .text.dbg_vsnprintf_offset:0000000000000424 .LVL300
C:\Users\stapi\AppData\Local\Temp\ccde7Qmv.s:2584   .text.dbg_vsnprintf_offset:000000000000043c .LVL304
C:\Users\stapi\AppData\Local\Temp\ccde7Qmv.s:2588   .text.dbg_vsnprintf_offset:000000000000043e .LVL305
C:\Users\stapi\AppData\Local\Temp\ccde7Qmv.s:1936   .text.dbg_vsnprintf_offset:000000000000014c .LVL202
C:\Users\stapi\AppData\Local\Temp\ccde7Qmv.s:1939   .text.dbg_vsnprintf_offset:0000000000000150 .LVL203
C:\Users\stapi\AppData\Local\Temp\ccde7Qmv.s:2028   .text.dbg_vsnprintf_offset:00000000000001be .LVL221
C:\Users\stapi\AppData\Local\Temp\ccde7Qmv.s:2032   .text.dbg_vsnprintf_offset:00000000000001c2 .LVL223
C:\Users\stapi\AppData\Local\Temp\ccde7Qmv.s:2328   .text.dbg_vsnprintf_offset:0000000000000312 .LVL261
C:\Users\stapi\AppData\Local\Temp\ccde7Qmv.s:2748   .text.dbg_vsnprintf_offset:00000000000004fc .LVL339
C:\Users\stapi\AppData\Local\Temp\ccde7Qmv.s:1934   .text.dbg_vsnprintf_offset:000000000000014a .LVL201
C:\Users\stapi\AppData\Local\Temp\ccde7Qmv.s:1978   .text.dbg_vsnprintf_offset:000000000000018a .LVL209
C:\Users\stapi\AppData\Local\Temp\ccde7Qmv.s:1980   .text.dbg_vsnprintf_offset:000000000000018c .LVL210
C:\Users\stapi\AppData\Local\Temp\ccde7Qmv.s:1985   .text.dbg_vsnprintf_offset:0000000000000190 .LVL211
C:\Users\stapi\AppData\Local\Temp\ccde7Qmv.s:1989   .text.dbg_vsnprintf_offset:0000000000000196 .LVL212
C:\Users\stapi\AppData\Local\Temp\ccde7Qmv.s:1994   .text.dbg_vsnprintf_offset:000000000000019a .LVL213
C:\Users\stapi\AppData\Local\Temp\ccde7Qmv.s:1996   .text.dbg_vsnprintf_offset:000000000000019c .LVL214
C:\Users\stapi\AppData\Local\Temp\ccde7Qmv.s:2001   .text.dbg_vsnprintf_offset:00000000000001a0 .LVL215
C:\Users\stapi\AppData\Local\Temp\ccde7Qmv.s:2003   .text.dbg_vsnprintf_offset:00000000000001a2 .LVL216
C:\Users\stapi\AppData\Local\Temp\ccde7Qmv.s:2072   .text.dbg_vsnprintf_offset:00000000000001f8 .LVL231
C:\Users\stapi\AppData\Local\Temp\ccde7Qmv.s:2074   .text.dbg_vsnprintf_offset:00000000000001fc .LVL232
C:\Users\stapi\AppData\Local\Temp\ccde7Qmv.s:2081   .text.dbg_vsnprintf_offset:0000000000000202 .LVL233
C:\Users\stapi\AppData\Local\Temp\ccde7Qmv.s:2086   .text.dbg_vsnprintf_offset:0000000000000208 .LVL234
C:\Users\stapi\AppData\Local\Temp\ccde7Qmv.s:1932   .text.dbg_vsnprintf_offset:0000000000000148 .LVL200
C:\Users\stapi\AppData\Local\Temp\ccde7Qmv.s:2057   .text.dbg_vsnprintf_offset:00000000000001de .LVL228
C:\Users\stapi\AppData\Local\Temp\ccde7Qmv.s:2061   .text.dbg_vsnprintf_offset:00000000000001e2 .LVL230
C:\Users\stapi\AppData\Local\Temp\ccde7Qmv.s:2745   .text.dbg_vsnprintf_offset:00000000000004fa .LVL338
C:\Users\stapi\AppData\Local\Temp\ccde7Qmv.s:2196   .text.dbg_vsnprintf_offset:0000000000000288 .LVL245
C:\Users\stapi\AppData\Local\Temp\ccde7Qmv.s:2625   .text.dbg_vsnprintf_offset:0000000000000462 .LVL313
C:\Users\stapi\AppData\Local\Temp\ccde7Qmv.s:2629   .text.dbg_vsnprintf_offset:0000000000000466 .LVL314
C:\Users\stapi\AppData\Local\Temp\ccde7Qmv.s:2639   .text.dbg_vsnprintf_offset:0000000000000476 .LVL315
C:\Users\stapi\AppData\Local\Temp\ccde7Qmv.s:2649   .text.dbg_vsnprintf_offset:0000000000000486 .LVL316
C:\Users\stapi\AppData\Local\Temp\ccde7Qmv.s:2707   .text.dbg_vsnprintf_offset:00000000000004ce .LVL329
C:\Users\stapi\AppData\Local\Temp\ccde7Qmv.s:2276   .text.dbg_vsnprintf_offset:00000000000002de .LVL256
C:\Users\stapi\AppData\Local\Temp\ccde7Qmv.s:2356   .text.dbg_vsnprintf_offset:0000000000000330 .LVL265
C:\Users\stapi\AppData\Local\Temp\ccde7Qmv.s:2417   .text.dbg_vsnprintf_offset:0000000000000380 .LVL273
C:\Users\stapi\AppData\Local\Temp\ccde7Qmv.s:2438   .text.dbg_vsnprintf_offset:0000000000000392 .LVL277
C:\Users\stapi\AppData\Local\Temp\ccde7Qmv.s:2444   .text.dbg_vsnprintf_offset:000000000000039a .LVL278
C:\Users\stapi\AppData\Local\Temp\ccde7Qmv.s:2515   .text.dbg_vsnprintf_offset:00000000000003f8 .LVL291
C:\Users\stapi\AppData\Local\Temp\ccde7Qmv.s:2537   .text.dbg_vsnprintf_offset:000000000000040e .LVL295
C:\Users\stapi\AppData\Local\Temp\ccde7Qmv.s:2669   .text.dbg_vsnprintf_offset:000000000000049c .LVL320
C:\Users\stapi\AppData\Local\Temp\ccde7Qmv.s:2702   .text.dbg_vsnprintf_offset:00000000000004c6 .LVL327
C:\Users\stapi\AppData\Local\Temp\ccde7Qmv.s:2713   .text.dbg_vsnprintf_offset:00000000000004d8 .LVL330
C:\Users\stapi\AppData\Local\Temp\ccde7Qmv.s:2739   .text.dbg_vsnprintf_offset:00000000000004f6 .LVL336
C:\Users\stapi\AppData\Local\Temp\ccde7Qmv.s:2686   .text.dbg_vsnprintf_offset:00000000000004b8 .LVL323
C:\Users\stapi\AppData\Local\Temp\ccde7Qmv.s:2689   .text.dbg_vsnprintf_offset:00000000000004bc .LVL324
C:\Users\stapi\AppData\Local\Temp\ccde7Qmv.s:1746   .text.dbg_vsnprintf_offset:000000000000009e .LVL188
C:\Users\stapi\AppData\Local\Temp\ccde7Qmv.s:1772   .text.dbg_vsnprintf_offset:00000000000000be .LVL189
C:\Users\stapi\AppData\Local\Temp\ccde7Qmv.s:1895   .text.dbg_vsnprintf_offset:0000000000000132 .LVL195
C:\Users\stapi\AppData\Local\Temp\ccde7Qmv.s:1901   .text.dbg_vsnprintf_offset:0000000000000136 .LVL196
C:\Users\stapi\AppData\Local\Temp\ccde7Qmv.s:1909   .text.dbg_vsnprintf_offset:000000000000013a .LVL197
C:\Users\stapi\AppData\Local\Temp\ccde7Qmv.s:1917   .text.dbg_vsnprintf_offset:000000000000013e .LVL198
C:\Users\stapi\AppData\Local\Temp\ccde7Qmv.s:1399   .text.str2hex:0000000000000000 .LVL161
C:\Users\stapi\AppData\Local\Temp\ccde7Qmv.s:1416   .text.str2hex:0000000000000010 .LVL162
C:\Users\stapi\AppData\Local\Temp\ccde7Qmv.s:1574   .text.str2hex:00000000000000f8 .LVL178
C:\Users\stapi\AppData\Local\Temp\ccde7Qmv.s:1578   .text.str2hex:00000000000000fa .LVL179
C:\Users\stapi\AppData\Local\Temp\ccde7Qmv.s:1581   .text.str2hex:00000000000000fc .LVL180
C:\Users\stapi\AppData\Local\Temp\ccde7Qmv.s:1434   .text.str2hex:000000000000002a .LVL164
C:\Users\stapi\AppData\Local\Temp\ccde7Qmv.s:1429   .text.str2hex:0000000000000024 .LVL163
C:\Users\stapi\AppData\Local\Temp\ccde7Qmv.s:1565   .text.str2hex:00000000000000f0 .LVL177
C:\Users\stapi\AppData\Local\Temp\ccde7Qmv.s:1447   .text.str2hex:000000000000003c .LVL166
C:\Users\stapi\AppData\Local\Temp\ccde7Qmv.s:1459   .text.str2hex:0000000000000050 .LVL167
C:\Users\stapi\AppData\Local\Temp\ccde7Qmv.s:1483   .text.str2hex:000000000000007c .LVL168
C:\Users\stapi\AppData\Local\Temp\ccde7Qmv.s:1488   .text.str2hex:000000000000007e .LVL169
C:\Users\stapi\AppData\Local\Temp\ccde7Qmv.s:1514   .text.str2hex:00000000000000a2 .LVL171
C:\Users\stapi\AppData\Local\Temp\ccde7Qmv.s:1516   .text.str2hex:00000000000000a4 .LVL172
C:\Users\stapi\AppData\Local\Temp\ccde7Qmv.s:1528   .text.str2hex:00000000000000b6 .LVL173
C:\Users\stapi\AppData\Local\Temp\ccde7Qmv.s:1542   .text.str2hex:00000000000000ca .LVL174
C:\Users\stapi\AppData\Local\Temp\ccde7Qmv.s:1544   .text.str2hex:00000000000000cc .LVL175
C:\Users\stapi\AppData\Local\Temp\ccde7Qmv.s:1339   .text.debug_print_dump_data:0000000000000000 .LVL155
C:\Users\stapi\AppData\Local\Temp\ccde7Qmv.s:1357   .text.debug_print_dump_data:0000000000000016 .LVL157
C:\Users\stapi\AppData\Local\Temp\ccde7Qmv.s:1355   .text.debug_print_dump_data:0000000000000012 .LVL156
C:\Users\stapi\AppData\Local\Temp\ccde7Qmv.s:1364   .text.debug_print_dump_data:0000000000000026 .LVL159
C:\Users\stapi\AppData\Local\Temp\ccde7Qmv.s:1125   .text.print_buffer:0000000000000000 .LVL135
C:\Users\stapi\AppData\Local\Temp\ccde7Qmv.s:1184   .text.print_buffer:0000000000000032 .LVL141
C:\Users\stapi\AppData\Local\Temp\ccde7Qmv.s:1180   .text.print_buffer:000000000000002e .LVL140
C:\Users\stapi\AppData\Local\Temp\ccde7Qmv.s:1147   .text.print_buffer:000000000000000e .LVL136
C:\Users\stapi\AppData\Local\Temp\ccde7Qmv.s:1248   .text.print_buffer:0000000000000078 .LVL148
C:\Users\stapi\AppData\Local\Temp\ccde7Qmv.s:1261   .text.print_buffer:000000000000007c .LVL150
C:\Users\stapi\AppData\Local\Temp\ccde7Qmv.s:1171   .text.print_buffer:0000000000000024 .LVL139
C:\Users\stapi\AppData\Local\Temp\ccde7Qmv.s:1153   .text.print_buffer:0000000000000014 .LVL137
C:\Users\stapi\AppData\Local\Temp\ccde7Qmv.s:1194   .text.print_buffer:0000000000000038 .LVL142
C:\Users\stapi\AppData\Local\Temp\ccde7Qmv.s:1210   .text.print_buffer:0000000000000040 .LVL143
C:\Users\stapi\AppData\Local\Temp\ccde7Qmv.s:1160   .text.print_buffer:0000000000000018 .LVL138
C:\Users\stapi\AppData\Local\Temp\ccde7Qmv.s:1230   .text.print_buffer:0000000000000062 .LVL145
C:\Users\stapi\AppData\Local\Temp\ccde7Qmv.s:1237   .text.print_buffer:000000000000006a .LVL146
C:\Users\stapi\AppData\Local\Temp\ccde7Qmv.s:1264   .text.print_buffer:000000000000007e .LVL151
C:\Users\stapi\AppData\Local\Temp\ccde7Qmv.s:1046   .text.co_snprintf:0000000000000000 .LVL128
C:\Users\stapi\AppData\Local\Temp\ccde7Qmv.s:1073   .text.co_snprintf:000000000000001a .LVL130
C:\Users\stapi\AppData\Local\Temp\ccde7Qmv.s:1092   .text.co_snprintf:000000000000002c .LVL133
C:\Users\stapi\AppData\Local\Temp\ccde7Qmv.s:1097   .text.co_snprintf:000000000000002e .LVL134
C:\Users\stapi\AppData\Local\Temp\ccde7Qmv.s:1068   .text.co_snprintf:0000000000000018 .LVL129
C:\Users\stapi\AppData\Local\Temp\ccde7Qmv.s:1076   .text.co_snprintf:000000000000001c .LVL131
C:\Users\stapi\AppData\Local\Temp\ccde7Qmv.s:996    .text.co_printf:0000000000000000 .LVL125
C:\Users\stapi\AppData\Local\Temp\ccde7Qmv.s:1012   .text.co_printf:0000000000000010 .LVL126
C:\Users\stapi\AppData\Local\Temp\ccde7Qmv.s:465    .text.print:0000000000000000 .LVL59
C:\Users\stapi\AppData\Local\Temp\ccde7Qmv.s:526    .text.print:000000000000003c .LVL62
C:\Users\stapi\AppData\Local\Temp\ccde7Qmv.s:533    .text.print:0000000000000042 .LVL63
C:\Users\stapi\AppData\Local\Temp\ccde7Qmv.s:565    .text.print:000000000000005a .LVL65
C:\Users\stapi\AppData\Local\Temp\ccde7Qmv.s:572    .text.print:000000000000005e .LVL66
C:\Users\stapi\AppData\Local\Temp\ccde7Qmv.s:591    .text.print:0000000000000076 .LVL67
C:\Users\stapi\AppData\Local\Temp\ccde7Qmv.s:595    .text.print:0000000000000078 .LVL68
C:\Users\stapi\AppData\Local\Temp\ccde7Qmv.s:602    .text.print:000000000000007e .LVL69
C:\Users\stapi\AppData\Local\Temp\ccde7Qmv.s:655    .text.print:00000000000000c8 .LVL75
C:\Users\stapi\AppData\Local\Temp\ccde7Qmv.s:661    .text.print:00000000000000cc .LVL76
C:\Users\stapi\AppData\Local\Temp\ccde7Qmv.s:665    .text.print:00000000000000d0 .LVL77
C:\Users\stapi\AppData\Local\Temp\ccde7Qmv.s:673    .text.print:00000000000000d6 .LVL78
C:\Users\stapi\AppData\Local\Temp\ccde7Qmv.s:677    .text.print:00000000000000dc .LVL79
C:\Users\stapi\AppData\Local\Temp\ccde7Qmv.s:680    .text.print:00000000000000de .LVL80
C:\Users\stapi\AppData\Local\Temp\ccde7Qmv.s:709    .text.print:0000000000000108 .LVL85
C:\Users\stapi\AppData\Local\Temp\ccde7Qmv.s:713    .text.print:000000000000010a .LVL86
C:\Users\stapi\AppData\Local\Temp\ccde7Qmv.s:725    .text.print:0000000000000114 .LVL88
C:\Users\stapi\AppData\Local\Temp\ccde7Qmv.s:757    .text.print:0000000000000134 .LVL92
C:\Users\stapi\AppData\Local\Temp\ccde7Qmv.s:813    .text.print:0000000000000192 .LVL101
C:\Users\stapi\AppData\Local\Temp\ccde7Qmv.s:821    .text.print:0000000000000196 .LVL102
C:\Users\stapi\AppData\Local\Temp\ccde7Qmv.s:828    .text.print:0000000000000198 .LVL103
C:\Users\stapi\AppData\Local\Temp\ccde7Qmv.s:877    .text.print:00000000000001ec .LVL110
C:\Users\stapi\AppData\Local\Temp\ccde7Qmv.s:967    .text.print:0000000000000276 .LVL121
C:\Users\stapi\AppData\Local\Temp\ccde7Qmv.s:971    .text.print:0000000000000278 .LVL122
C:\Users\stapi\AppData\Local\Temp\ccde7Qmv.s:634    .text.print:00000000000000b0 .LVL71
C:\Users\stapi\AppData\Local\Temp\ccde7Qmv.s:689    .text.print:00000000000000ea .LVL81
C:\Users\stapi\AppData\Local\Temp\ccde7Qmv.s:739    .text.print:0000000000000122 .LVL89
C:\Users\stapi\AppData\Local\Temp\ccde7Qmv.s:751    .text.print:0000000000000132 .LVL91
C:\Users\stapi\AppData\Local\Temp\ccde7Qmv.s:805    .text.print:0000000000000186 .LVL99
C:\Users\stapi\AppData\Local\Temp\ccde7Qmv.s:896    .text.print:000000000000020a .LVL113
C:\Users\stapi\AppData\Local\Temp\ccde7Qmv.s:906    .text.print:0000000000000216 .LVL114
C:\Users\stapi\AppData\Local\Temp\ccde7Qmv.s:915    .text.print:0000000000000226 .LVL115
C:\Users\stapi\AppData\Local\Temp\ccde7Qmv.s:924    .text.print:0000000000000232 .LVL116
C:\Users\stapi\AppData\Local\Temp\ccde7Qmv.s:928    .text.print:000000000000023c .LVL117
C:\Users\stapi\AppData\Local\Temp\ccde7Qmv.s:937    .text.print:0000000000000248 .LVL118
C:\Users\stapi\AppData\Local\Temp\ccde7Qmv.s:943    .text.print:0000000000000256 .LVL119
C:\Users\stapi\AppData\Local\Temp\ccde7Qmv.s:954    .text.print:0000000000000264 .LVL120
C:\Users\stapi\AppData\Local\Temp\ccde7Qmv.s:507    .text.print:0000000000000026 .LVL61
C:\Users\stapi\AppData\Local\Temp\ccde7Qmv.s:613    .text.print:000000000000008e .LVL70
C:\Users\stapi\AppData\Local\Temp\ccde7Qmv.s:647    .text.print:00000000000000bc .LVL73
C:\Users\stapi\AppData\Local\Temp\ccde7Qmv.s:694    .text.print:00000000000000f6 .LVL82
C:\Users\stapi\AppData\Local\Temp\ccde7Qmv.s:715    .text.print:000000000000010c .LVL87
C:\Users\stapi\AppData\Local\Temp\ccde7Qmv.s:747    .text.print:000000000000012e .LVL90
C:\Users\stapi\AppData\Local\Temp\ccde7Qmv.s:760    .text.print:0000000000000136 .LVL93
C:\Users\stapi\AppData\Local\Temp\ccde7Qmv.s:831    .text.print:000000000000019a .LVL104
C:\Users\stapi\AppData\Local\Temp\ccde7Qmv.s:487    .text.print:000000000000000c .LVL60
C:\Users\stapi\AppData\Local\Temp\ccde7Qmv.s:543    .text.print:000000000000004e .LVL64
C:\Users\stapi\AppData\Local\Temp\ccde7Qmv.s:979    .text.print:0000000000000282 .LVL123
C:\Users\stapi\AppData\Local\Temp\ccde7Qmv.s:644    .text.print:00000000000000b8 .LVL72
C:\Users\stapi\AppData\Local\Temp\ccde7Qmv.s:788    .text.print:000000000000016c .LVL97
C:\Users\stapi\AppData\Local\Temp\ccde7Qmv.s:859    .text.print:00000000000001d0 .LVL108
C:\Users\stapi\AppData\Local\Temp\ccde7Qmv.s:271    .text.printi:0000000000000000 .LVL30
C:\Users\stapi\AppData\Local\Temp\ccde7Qmv.s:325    .text.printi:0000000000000032 .LVL38
C:\Users\stapi\AppData\Local\Temp\ccde7Qmv.s:359    .text.printi:0000000000000054 .LVL43
C:\Users\stapi\AppData\Local\Temp\ccde7Qmv.s:425    .text.printi:00000000000000a8 .LVL53
C:\Users\stapi\AppData\Local\Temp\ccde7Qmv.s:431    .text.printi:00000000000000ac .LVL55
C:\Users\stapi\AppData\Local\Temp\ccde7Qmv.s:306    .text.printi:000000000000001c .LVL36
C:\Users\stapi\AppData\Local\Temp\ccde7Qmv.s:344    .text.printi:0000000000000046 .LVL41
C:\Users\stapi\AppData\Local\Temp\ccde7Qmv.s:304    .text.printi:000000000000001a .LVL35
C:\Users\stapi\AppData\Local\Temp\ccde7Qmv.s:333    .text.printi:0000000000000038 .LVL39
C:\Users\stapi\AppData\Local\Temp\ccde7Qmv.s:292    .text.printi:0000000000000010 .LVL32
C:\Users\stapi\AppData\Local\Temp\ccde7Qmv.s:429    .text.printi:00000000000000aa .LVL54
C:\Users\stapi\AppData\Local\Temp\ccde7Qmv.s:294    .text.printi:0000000000000012 .LVL33
C:\Users\stapi\AppData\Local\Temp\ccde7Qmv.s:301    .text.printi:0000000000000018 .LVL34
C:\Users\stapi\AppData\Local\Temp\ccde7Qmv.s:413    .text.printi:0000000000000096 .LVL51
C:\Users\stapi\AppData\Local\Temp\ccde7Qmv.s:395    .text.printi:000000000000007a .LVL48
C:\Users\stapi\AppData\Local\Temp\ccde7Qmv.s:437    .text.printi:00000000000000b2 .LVL56
C:\Users\stapi\AppData\Local\Temp\ccde7Qmv.s:354    .text.printi:000000000000004e .LVL42
C:\Users\stapi\AppData\Local\Temp\ccde7Qmv.s:383    .text.printi:000000000000006e .LVL47
C:\Users\stapi\AppData\Local\Temp\ccde7Qmv.s:448    .text.printi:00000000000000c0 .LVL58
C:\Users\stapi\AppData\Local\Temp\ccde7Qmv.s:364    .text.printi:0000000000000058 .LVL44
C:\Users\stapi\AppData\Local\Temp\ccde7Qmv.s:376    .text.printi:0000000000000062 .LVL46
C:\Users\stapi\AppData\Local\Temp\ccde7Qmv.s:282    .text.printi:0000000000000008 .LVL31
C:\Users\stapi\AppData\Local\Temp\ccde7Qmv.s:340    .text.printi:0000000000000042 .LVL40
C:\Users\stapi\AppData\Local\Temp\ccde7Qmv.s:445    .text.printi:00000000000000bc .LVL57
C:\Users\stapi\AppData\Local\Temp\ccde7Qmv.s:402    .text.printi:0000000000000084 .LVL49
C:\Users\stapi\AppData\Local\Temp\ccde7Qmv.s:102    .text.prints:0000000000000000 .LVL8
C:\Users\stapi\AppData\Local\Temp\ccde7Qmv.s:182    .text.prints:000000000000004a .LVL20
C:\Users\stapi\AppData\Local\Temp\ccde7Qmv.s:207    .text.prints:000000000000006a .LVL24
C:\Users\stapi\AppData\Local\Temp\ccde7Qmv.s:226    .text.prints:0000000000000086 .LVL27
C:\Users\stapi\AppData\Local\Temp\ccde7Qmv.s:148    .text.prints:000000000000002e .LVL14
C:\Users\stapi\AppData\Local\Temp\ccde7Qmv.s:180    .text.prints:0000000000000048 .LVL19
C:\Users\stapi\AppData\Local\Temp\ccde7Qmv.s:194    .text.prints:000000000000005a .LVL22
C:\Users\stapi\AppData\Local\Temp\ccde7Qmv.s:200    .text.prints:0000000000000060 .LVL23
C:\Users\stapi\AppData\Local\Temp\ccde7Qmv.s:168    .text.prints:000000000000003e .LVL17
C:\Users\stapi\AppData\Local\Temp\ccde7Qmv.s:175    .text.prints:0000000000000046 .LVL18
C:\Users\stapi\AppData\Local\Temp\ccde7Qmv.s:127    .text.prints:000000000000001c .LVL10
C:\Users\stapi\AppData\Local\Temp\ccde7Qmv.s:114    .text.prints:0000000000000008 .LVL9
C:\Users\stapi\AppData\Local\Temp\ccde7Qmv.s:163    .text.prints:000000000000003c .LVL16
C:\Users\stapi\AppData\Local\Temp\ccde7Qmv.s:153    .text.prints:0000000000000032 .LVL15
C:\Users\stapi\AppData\Local\Temp\ccde7Qmv.s:137    .text.prints:0000000000000022 .LVL12
C:\Users\stapi\AppData\Local\Temp\ccde7Qmv.s:140    .text.prints:0000000000000026 .LVL13
C:\Users\stapi\AppData\Local\Temp\ccde7Qmv.s:17     .text.printchar:0000000000000000 .LVL0
C:\Users\stapi\AppData\Local\Temp\ccde7Qmv.s:26     .text.printchar:000000000000000e .LVL1
C:\Users\stapi\AppData\Local\Temp\ccde7Qmv.s:35     .text.printchar:000000000000001e .LVL3
C:\Users\stapi\AppData\Local\Temp\ccde7Qmv.s:86     .text.printchar:0000000000000064 .LVL6
C:\Users\stapi\AppData\Local\Temp\ccde7Qmv.s:47     .text.printchar:0000000000000030 .LVL4
C:\Users\stapi\AppData\Local\Temp\ccde7Qmv.s:66     .text.printchar:0000000000000044 .LVL5
C:\Users\stapi\AppData\Local\Temp\ccde7Qmv.s:2878   .debug_info:0000000000000000 .Ldebug_info0
C:\Users\stapi\AppData\Local\Temp\ccde7Qmv.s:129    .text.prints:000000000000001c .LBB16
C:\Users\stapi\AppData\Local\Temp\ccde7Qmv.s:154    .text.prints:0000000000000032 .LBE16
C:\Users\stapi\AppData\Local\Temp\ccde7Qmv.s:157    .text.prints:0000000000000036 .LBB17
C:\Users\stapi\AppData\Local\Temp\ccde7Qmv.s:164    .text.prints:000000000000003c .LBE17
C:\Users\stapi\AppData\Local\Temp\ccde7Qmv.s:177    .text.prints:0000000000000046 .LBB18
C:\Users\stapi\AppData\Local\Temp\ccde7Qmv.s:184    .text.prints:000000000000004a .LBE18
C:\Users\stapi\AppData\Local\Temp\ccde7Qmv.s:508    .text.print:0000000000000026 .LBB19
C:\Users\stapi\AppData\Local\Temp\ccde7Qmv.s:511    .text.print:000000000000002a .LBE19
C:\Users\stapi\AppData\Local\Temp\ccde7Qmv.s:523    .text.print:0000000000000038 .LBB20
C:\Users\stapi\AppData\Local\Temp\ccde7Qmv.s:528    .text.print:000000000000003c .LBE20
C:\Users\stapi\AppData\Local\Temp\ccde7Qmv.s:629    .text.print:00000000000000aa .LBB21
C:\Users\stapi\AppData\Local\Temp\ccde7Qmv.s:649    .text.print:00000000000000bc .LBE21
C:\Users\stapi\AppData\Local\Temp\ccde7Qmv.s:728    .text.print:0000000000000118 .LBB23
C:\Users\stapi\AppData\Local\Temp\ccde7Qmv.s:731    .text.print:000000000000011c .LBE23
C:\Users\stapi\AppData\Local\Temp\ccde7Qmv.s:736    .text.print:0000000000000120 .LBB25
C:\Users\stapi\AppData\Local\Temp\ccde7Qmv.s:740    .text.print:0000000000000122 .LBE25
C:\Users\stapi\AppData\Local\Temp\ccde7Qmv.s:721    .text.print:0000000000000114 .LBB22
C:\Users\stapi\AppData\Local\Temp\ccde7Qmv.s:727    .text.print:0000000000000118 .LBE22
C:\Users\stapi\AppData\Local\Temp\ccde7Qmv.s:732    .text.print:000000000000011c .LBB24
C:\Users\stapi\AppData\Local\Temp\ccde7Qmv.s:735    .text.print:0000000000000120 .LBE24
C:\Users\stapi\AppData\Local\Temp\ccde7Qmv.s:741    .text.print:0000000000000122 .LBB26
C:\Users\stapi\AppData\Local\Temp\ccde7Qmv.s:815    .text.print:0000000000000192 .LBE26
C:\Users\stapi\AppData\Local\Temp\ccde7Qmv.s:818    .text.print:0000000000000194 .LBB27
C:\Users\stapi\AppData\Local\Temp\ccde7Qmv.s:898    .text.print:000000000000020a .LBE27
C:\Users\stapi\AppData\Local\Temp\ccde7Qmv.s:1245   .text.print_buffer:0000000000000074 .LBE29
C:\Users\stapi\AppData\Local\Temp\ccde7Qmv.s:1252   .text.print_buffer:000000000000007a .LBB32
C:\Users\stapi\AppData\Local\Temp\ccde7Qmv.s:1257   .text.print_buffer:000000000000007a .LBE32
C:\Users\stapi\AppData\Local\Temp\ccde7Qmv.s:1686   .text.dbg_vsnprintf_offset:000000000000005a .LBE38
C:\Users\stapi\AppData\Local\Temp\ccde7Qmv.s:1747   .text.dbg_vsnprintf_offset:000000000000009e .LBB42
C:\Users\stapi\AppData\Local\Temp\ccde7Qmv.s:1775   .text.dbg_vsnprintf_offset:00000000000000be .LBE42
C:\Users\stapi\AppData\Local\Temp\ccde7Qmv.s:1837   .text.dbg_vsnprintf_offset:00000000000000f2 .LBB43
C:\Users\stapi\AppData\Local\Temp\ccde7Qmv.s:1929   .text.dbg_vsnprintf_offset:0000000000000146 .LBE43
C:\Users\stapi\AppData\Local\Temp\ccde7Qmv.s:2247   .text.dbg_vsnprintf_offset:00000000000002bc .LBB44
C:\Users\stapi\AppData\Local\Temp\ccde7Qmv.s:2304   .text.dbg_vsnprintf_offset:00000000000002fe .LBE44
C:\Users\stapi\AppData\Local\Temp\ccde7Qmv.s:2595   .text.dbg_vsnprintf_offset:0000000000000444 .LBB49
C:\Users\stapi\AppData\Local\Temp\ccde7Qmv.s:2602   .text.dbg_vsnprintf_offset:0000000000000448 .LBE49
C:\Users\stapi\AppData\Local\Temp\ccde7Qmv.s:2317   .text.dbg_vsnprintf_offset:0000000000000306 .LBE45
C:\Users\stapi\AppData\Local\Temp\ccde7Qmv.s:2322   .text.dbg_vsnprintf_offset:000000000000030c .LBB48
C:\Users\stapi\AppData\Local\Temp\ccde7Qmv.s:2330   .text.dbg_vsnprintf_offset:0000000000000312 .LBE48

UNDEFINED SYMBOLS
__riscv_save_0
log_uart_putc_noint
__riscv_restore_0
uart_putc_noint
__riscv_save_7
__riscv_restore_7
__riscv_save_4
__riscv_restore_4
__riscv_save_12
__riscv_restore_12
__riscv_save_1
__riscv_restore_1
__riscv_save_3
sys_memset
printf
__riscv_restore_3
