   1              		.file	"debug_print.c"
   2              		.option nopic
   3              		.attribute arch, "rv32i2p0_m2p0_a2p0_f2p0_c2p0_b_p0p94"
   4              		.attribute unaligned_access, 0
   5              		.attribute stack_align, 16
   6              		.text
   7              	.Ltext0:
   8              		.cfi_sections	.debug_frame
   9              		.section	.text.printchar,"ax",@progbits
  10              		.align	1
  12              	printchar:
  13              	.LFB367:
  14              		.file 1 "C:/Users/stapi/OneDrive/Desktop/GD32VW553/V1_MQTT_OK/GD32VW55X_Wifi_BLE_SDK/GD32VW55x_REL
   1:C:/Users/stapi/OneDrive/Desktop/GD32VW553/V1_MQTT_OK/GD32VW55X_Wifi_BLE_SDK/GD32VW55x_RELEASE_V1.0.2/MSDK/util/src\debug_print.c **** /*!
   2:C:/Users/stapi/OneDrive/Desktop/GD32VW553/V1_MQTT_OK/GD32VW55X_Wifi_BLE_SDK/GD32VW55x_RELEASE_V1.0.2/MSDK/util/src\debug_print.c ****     \file    debug_print.c
   3:C:/Users/stapi/OneDrive/Desktop/GD32VW553/V1_MQTT_OK/GD32VW55X_Wifi_BLE_SDK/GD32VW55x_RELEASE_V1.0.2/MSDK/util/src\debug_print.c ****     \brief   debug print for GD32VW55x SDK.
   4:C:/Users/stapi/OneDrive/Desktop/GD32VW553/V1_MQTT_OK/GD32VW55X_Wifi_BLE_SDK/GD32VW55x_RELEASE_V1.0.2/MSDK/util/src\debug_print.c **** 
   5:C:/Users/stapi/OneDrive/Desktop/GD32VW553/V1_MQTT_OK/GD32VW55X_Wifi_BLE_SDK/GD32VW55x_RELEASE_V1.0.2/MSDK/util/src\debug_print.c ****     \version 2023-07-20, V1.0.0, firmware for GD32VW55x
   6:C:/Users/stapi/OneDrive/Desktop/GD32VW553/V1_MQTT_OK/GD32VW55X_Wifi_BLE_SDK/GD32VW55x_RELEASE_V1.0.2/MSDK/util/src\debug_print.c **** */
   7:C:/Users/stapi/OneDrive/Desktop/GD32VW553/V1_MQTT_OK/GD32VW55X_Wifi_BLE_SDK/GD32VW55x_RELEASE_V1.0.2/MSDK/util/src\debug_print.c **** 
   8:C:/Users/stapi/OneDrive/Desktop/GD32VW553/V1_MQTT_OK/GD32VW55X_Wifi_BLE_SDK/GD32VW55x_RELEASE_V1.0.2/MSDK/util/src\debug_print.c **** /*
   9:C:/Users/stapi/OneDrive/Desktop/GD32VW553/V1_MQTT_OK/GD32VW55X_Wifi_BLE_SDK/GD32VW55x_RELEASE_V1.0.2/MSDK/util/src\debug_print.c ****     Copyright (c) 2023, GigaDevice Semiconductor Inc.
  10:C:/Users/stapi/OneDrive/Desktop/GD32VW553/V1_MQTT_OK/GD32VW55X_Wifi_BLE_SDK/GD32VW55x_RELEASE_V1.0.2/MSDK/util/src\debug_print.c **** 
  11:C:/Users/stapi/OneDrive/Desktop/GD32VW553/V1_MQTT_OK/GD32VW55X_Wifi_BLE_SDK/GD32VW55x_RELEASE_V1.0.2/MSDK/util/src\debug_print.c ****     Redistribution and use in source and binary forms, with or without modification,
  12:C:/Users/stapi/OneDrive/Desktop/GD32VW553/V1_MQTT_OK/GD32VW55X_Wifi_BLE_SDK/GD32VW55x_RELEASE_V1.0.2/MSDK/util/src\debug_print.c **** are permitted provided that the following conditions are met:
  13:C:/Users/stapi/OneDrive/Desktop/GD32VW553/V1_MQTT_OK/GD32VW55X_Wifi_BLE_SDK/GD32VW55x_RELEASE_V1.0.2/MSDK/util/src\debug_print.c **** 
  14:C:/Users/stapi/OneDrive/Desktop/GD32VW553/V1_MQTT_OK/GD32VW55X_Wifi_BLE_SDK/GD32VW55x_RELEASE_V1.0.2/MSDK/util/src\debug_print.c ****     1. Redistributions of source code must retain the above copyright notice, this
  15:C:/Users/stapi/OneDrive/Desktop/GD32VW553/V1_MQTT_OK/GD32VW55X_Wifi_BLE_SDK/GD32VW55x_RELEASE_V1.0.2/MSDK/util/src\debug_print.c ****        list of conditions and the following disclaimer.
  16:C:/Users/stapi/OneDrive/Desktop/GD32VW553/V1_MQTT_OK/GD32VW55X_Wifi_BLE_SDK/GD32VW55x_RELEASE_V1.0.2/MSDK/util/src\debug_print.c ****     2. Redistributions in binary form must reproduce the above copyright notice,
  17:C:/Users/stapi/OneDrive/Desktop/GD32VW553/V1_MQTT_OK/GD32VW55X_Wifi_BLE_SDK/GD32VW55x_RELEASE_V1.0.2/MSDK/util/src\debug_print.c ****        this list of conditions and the following disclaimer in the documentation
  18:C:/Users/stapi/OneDrive/Desktop/GD32VW553/V1_MQTT_OK/GD32VW55X_Wifi_BLE_SDK/GD32VW55x_RELEASE_V1.0.2/MSDK/util/src\debug_print.c ****        and/or other materials provided with the distribution.
  19:C:/Users/stapi/OneDrive/Desktop/GD32VW553/V1_MQTT_OK/GD32VW55X_Wifi_BLE_SDK/GD32VW55x_RELEASE_V1.0.2/MSDK/util/src\debug_print.c ****     3. Neither the name of the copyright holder nor the names of its contributors
  20:C:/Users/stapi/OneDrive/Desktop/GD32VW553/V1_MQTT_OK/GD32VW55X_Wifi_BLE_SDK/GD32VW55x_RELEASE_V1.0.2/MSDK/util/src\debug_print.c ****        may be used to endorse or promote products derived from this software without
  21:C:/Users/stapi/OneDrive/Desktop/GD32VW553/V1_MQTT_OK/GD32VW55X_Wifi_BLE_SDK/GD32VW55x_RELEASE_V1.0.2/MSDK/util/src\debug_print.c ****        specific prior written permission.
  22:C:/Users/stapi/OneDrive/Desktop/GD32VW553/V1_MQTT_OK/GD32VW55X_Wifi_BLE_SDK/GD32VW55x_RELEASE_V1.0.2/MSDK/util/src\debug_print.c **** 
  23:C:/Users/stapi/OneDrive/Desktop/GD32VW553/V1_MQTT_OK/GD32VW55X_Wifi_BLE_SDK/GD32VW55x_RELEASE_V1.0.2/MSDK/util/src\debug_print.c ****     THIS SOFTWARE IS PROVIDED BY THE COPYRIGHT HOLDERS AND CONTRIBUTORS "AS IS"
  24:C:/Users/stapi/OneDrive/Desktop/GD32VW553/V1_MQTT_OK/GD32VW55X_Wifi_BLE_SDK/GD32VW55x_RELEASE_V1.0.2/MSDK/util/src\debug_print.c **** AND ANY EXPRESS OR IMPLIED WARRANTIES, INCLUDING, BUT NOT LIMITED TO, THE IMPLIED
  25:C:/Users/stapi/OneDrive/Desktop/GD32VW553/V1_MQTT_OK/GD32VW55X_Wifi_BLE_SDK/GD32VW55x_RELEASE_V1.0.2/MSDK/util/src\debug_print.c **** WARRANTIES OF MERCHANTABILITY AND FITNESS FOR A PARTICULAR PURPOSE ARE DISCLAIMED.
  26:C:/Users/stapi/OneDrive/Desktop/GD32VW553/V1_MQTT_OK/GD32VW55X_Wifi_BLE_SDK/GD32VW55x_RELEASE_V1.0.2/MSDK/util/src\debug_print.c **** IN NO EVENT SHALL THE COPYRIGHT HOLDER OR CONTRIBUTORS BE LIABLE FOR ANY DIRECT,
  27:C:/Users/stapi/OneDrive/Desktop/GD32VW553/V1_MQTT_OK/GD32VW55X_Wifi_BLE_SDK/GD32VW55x_RELEASE_V1.0.2/MSDK/util/src\debug_print.c **** INDIRECT, INCIDENTAL, SPECIAL, EXEMPLARY, OR CONSEQUENTIAL DAMAGES (INCLUDING, BUT
  28:C:/Users/stapi/OneDrive/Desktop/GD32VW553/V1_MQTT_OK/GD32VW55X_Wifi_BLE_SDK/GD32VW55x_RELEASE_V1.0.2/MSDK/util/src\debug_print.c **** NOT LIMITED TO, PROCUREMENT OF SUBSTITUTE GOODS OR SERVICES; LOSS OF USE, DATA, OR
  29:C:/Users/stapi/OneDrive/Desktop/GD32VW553/V1_MQTT_OK/GD32VW55X_Wifi_BLE_SDK/GD32VW55x_RELEASE_V1.0.2/MSDK/util/src\debug_print.c **** PROFITS; OR BUSINESS INTERRUPTION) HOWEVER CAUSED AND ON ANY THEORY OF LIABILITY,
  30:C:/Users/stapi/OneDrive/Desktop/GD32VW553/V1_MQTT_OK/GD32VW55X_Wifi_BLE_SDK/GD32VW55x_RELEASE_V1.0.2/MSDK/util/src\debug_print.c **** WHETHER IN CONTRACT, STRICT LIABILITY, OR TORT (INCLUDING NEGLIGENCE OR OTHERWISE)
  31:C:/Users/stapi/OneDrive/Desktop/GD32VW553/V1_MQTT_OK/GD32VW55X_Wifi_BLE_SDK/GD32VW55x_RELEASE_V1.0.2/MSDK/util/src\debug_print.c **** ARISING IN ANY WAY OUT OF THE USE OF THIS SOFTWARE, EVEN IF ADVISED OF THE POSSIBILITY
  32:C:/Users/stapi/OneDrive/Desktop/GD32VW553/V1_MQTT_OK/GD32VW55X_Wifi_BLE_SDK/GD32VW55x_RELEASE_V1.0.2/MSDK/util/src\debug_print.c **** OF SUCH DAMAGE.
  33:C:/Users/stapi/OneDrive/Desktop/GD32VW553/V1_MQTT_OK/GD32VW55X_Wifi_BLE_SDK/GD32VW55x_RELEASE_V1.0.2/MSDK/util/src\debug_print.c **** */
  34:C:/Users/stapi/OneDrive/Desktop/GD32VW553/V1_MQTT_OK/GD32VW55X_Wifi_BLE_SDK/GD32VW55x_RELEASE_V1.0.2/MSDK/util/src\debug_print.c **** 
  35:C:/Users/stapi/OneDrive/Desktop/GD32VW553/V1_MQTT_OK/GD32VW55X_Wifi_BLE_SDK/GD32VW55x_RELEASE_V1.0.2/MSDK/util/src\debug_print.c **** #include <stdarg.h>
  36:C:/Users/stapi/OneDrive/Desktop/GD32VW553/V1_MQTT_OK/GD32VW55X_Wifi_BLE_SDK/GD32VW55x_RELEASE_V1.0.2/MSDK/util/src\debug_print.c **** #include <string.h>
  37:C:/Users/stapi/OneDrive/Desktop/GD32VW553/V1_MQTT_OK/GD32VW55X_Wifi_BLE_SDK/GD32VW55x_RELEASE_V1.0.2/MSDK/util/src\debug_print.c **** #include <stdint.h>
  38:C:/Users/stapi/OneDrive/Desktop/GD32VW553/V1_MQTT_OK/GD32VW55X_Wifi_BLE_SDK/GD32VW55x_RELEASE_V1.0.2/MSDK/util/src\debug_print.c **** #include "debug_print.h"
  39:C:/Users/stapi/OneDrive/Desktop/GD32VW553/V1_MQTT_OK/GD32VW55X_Wifi_BLE_SDK/GD32VW55x_RELEASE_V1.0.2/MSDK/util/src\debug_print.c **** #include "wrapper_os.h"
  40:C:/Users/stapi/OneDrive/Desktop/GD32VW553/V1_MQTT_OK/GD32VW55X_Wifi_BLE_SDK/GD32VW55x_RELEASE_V1.0.2/MSDK/util/src\debug_print.c **** #include "trace_ext.h"
  41:C:/Users/stapi/OneDrive/Desktop/GD32VW553/V1_MQTT_OK/GD32VW55X_Wifi_BLE_SDK/GD32VW55x_RELEASE_V1.0.2/MSDK/util/src\debug_print.c **** #include "util.h"
  42:C:/Users/stapi/OneDrive/Desktop/GD32VW553/V1_MQTT_OK/GD32VW55X_Wifi_BLE_SDK/GD32VW55x_RELEASE_V1.0.2/MSDK/util/src\debug_print.c **** #include "log_uart.h"
  43:C:/Users/stapi/OneDrive/Desktop/GD32VW553/V1_MQTT_OK/GD32VW55X_Wifi_BLE_SDK/GD32VW55x_RELEASE_V1.0.2/MSDK/util/src\debug_print.c **** #include "plf_assert.h"
  44:C:/Users/stapi/OneDrive/Desktop/GD32VW553/V1_MQTT_OK/GD32VW55X_Wifi_BLE_SDK/GD32VW55x_RELEASE_V1.0.2/MSDK/util/src\debug_print.c **** 
  45:C:/Users/stapi/OneDrive/Desktop/GD32VW553/V1_MQTT_OK/GD32VW55X_Wifi_BLE_SDK/GD32VW55x_RELEASE_V1.0.2/MSDK/util/src\debug_print.c **** // whether short type is supported
  46:C:/Users/stapi/OneDrive/Desktop/GD32VW553/V1_MQTT_OK/GD32VW55X_Wifi_BLE_SDK/GD32VW55x_RELEASE_V1.0.2/MSDK/util/src\debug_print.c **** #define FLAG_SHORT_SUPPORTED
  47:C:/Users/stapi/OneDrive/Desktop/GD32VW553/V1_MQTT_OK/GD32VW55X_Wifi_BLE_SDK/GD32VW55x_RELEASE_V1.0.2/MSDK/util/src\debug_print.c **** 
  48:C:/Users/stapi/OneDrive/Desktop/GD32VW553/V1_MQTT_OK/GD32VW55X_Wifi_BLE_SDK/GD32VW55x_RELEASE_V1.0.2/MSDK/util/src\debug_print.c **** // States values
  49:C:/Users/stapi/OneDrive/Desktop/GD32VW553/V1_MQTT_OK/GD32VW55X_Wifi_BLE_SDK/GD32VW55x_RELEASE_V1.0.2/MSDK/util/src\debug_print.c **** enum
  50:C:/Users/stapi/OneDrive/Desktop/GD32VW553/V1_MQTT_OK/GD32VW55X_Wifi_BLE_SDK/GD32VW55x_RELEASE_V1.0.2/MSDK/util/src\debug_print.c **** {
  51:C:/Users/stapi/OneDrive/Desktop/GD32VW553/V1_MQTT_OK/GD32VW55X_Wifi_BLE_SDK/GD32VW55x_RELEASE_V1.0.2/MSDK/util/src\debug_print.c ****     S_COPY,         // Initial state; copy chars of the format str
  52:C:/Users/stapi/OneDrive/Desktop/GD32VW553/V1_MQTT_OK/GD32VW55X_Wifi_BLE_SDK/GD32VW55x_RELEASE_V1.0.2/MSDK/util/src\debug_print.c ****     S_PERCENT,      // just read '%'
  53:C:/Users/stapi/OneDrive/Desktop/GD32VW553/V1_MQTT_OK/GD32VW55X_Wifi_BLE_SDK/GD32VW55x_RELEASE_V1.0.2/MSDK/util/src\debug_print.c ****     S_FLAGS,        // just read flag character
  54:C:/Users/stapi/OneDrive/Desktop/GD32VW553/V1_MQTT_OK/GD32VW55X_Wifi_BLE_SDK/GD32VW55x_RELEASE_V1.0.2/MSDK/util/src\debug_print.c ****     S_WIDTH,        // just read width specifier
  55:C:/Users/stapi/OneDrive/Desktop/GD32VW553/V1_MQTT_OK/GD32VW55X_Wifi_BLE_SDK/GD32VW55x_RELEASE_V1.0.2/MSDK/util/src\debug_print.c ****     S_DOT,          // just read '.'
  56:C:/Users/stapi/OneDrive/Desktop/GD32VW553/V1_MQTT_OK/GD32VW55X_Wifi_BLE_SDK/GD32VW55x_RELEASE_V1.0.2/MSDK/util/src\debug_print.c ****     S_PRECIS,       // just read field_precision specifier
  57:C:/Users/stapi/OneDrive/Desktop/GD32VW553/V1_MQTT_OK/GD32VW55X_Wifi_BLE_SDK/GD32VW55x_RELEASE_V1.0.2/MSDK/util/src\debug_print.c ****     S_SIZE,         // just read size specifier
  58:C:/Users/stapi/OneDrive/Desktop/GD32VW553/V1_MQTT_OK/GD32VW55X_Wifi_BLE_SDK/GD32VW55x_RELEASE_V1.0.2/MSDK/util/src\debug_print.c ****     S_TYPE,         // just read type specifier
  59:C:/Users/stapi/OneDrive/Desktop/GD32VW553/V1_MQTT_OK/GD32VW55X_Wifi_BLE_SDK/GD32VW55x_RELEASE_V1.0.2/MSDK/util/src\debug_print.c ****     S_MAX,
  60:C:/Users/stapi/OneDrive/Desktop/GD32VW553/V1_MQTT_OK/GD32VW55X_Wifi_BLE_SDK/GD32VW55x_RELEASE_V1.0.2/MSDK/util/src\debug_print.c **** };
  61:C:/Users/stapi/OneDrive/Desktop/GD32VW553/V1_MQTT_OK/GD32VW55X_Wifi_BLE_SDK/GD32VW55x_RELEASE_V1.0.2/MSDK/util/src\debug_print.c **** 
  62:C:/Users/stapi/OneDrive/Desktop/GD32VW553/V1_MQTT_OK/GD32VW55X_Wifi_BLE_SDK/GD32VW55x_RELEASE_V1.0.2/MSDK/util/src\debug_print.c **** // character type values
  63:C:/Users/stapi/OneDrive/Desktop/GD32VW553/V1_MQTT_OK/GD32VW55X_Wifi_BLE_SDK/GD32VW55x_RELEASE_V1.0.2/MSDK/util/src\debug_print.c **** enum
  64:C:/Users/stapi/OneDrive/Desktop/GD32VW553/V1_MQTT_OK/GD32VW55X_Wifi_BLE_SDK/GD32VW55x_RELEASE_V1.0.2/MSDK/util/src\debug_print.c **** {
  65:C:/Users/stapi/OneDrive/Desktop/GD32VW553/V1_MQTT_OK/GD32VW55X_Wifi_BLE_SDK/GD32VW55x_RELEASE_V1.0.2/MSDK/util/src\debug_print.c ****     C_OTHER,        // character with no special meaning
  66:C:/Users/stapi/OneDrive/Desktop/GD32VW553/V1_MQTT_OK/GD32VW55X_Wifi_BLE_SDK/GD32VW55x_RELEASE_V1.0.2/MSDK/util/src\debug_print.c ****     C_PERCENT,      // '%'
  67:C:/Users/stapi/OneDrive/Desktop/GD32VW553/V1_MQTT_OK/GD32VW55X_Wifi_BLE_SDK/GD32VW55x_RELEASE_V1.0.2/MSDK/util/src\debug_print.c ****     C_DOT,          // '.'
  68:C:/Users/stapi/OneDrive/Desktop/GD32VW553/V1_MQTT_OK/GD32VW55X_Wifi_BLE_SDK/GD32VW55x_RELEASE_V1.0.2/MSDK/util/src\debug_print.c ****     C_ZERO,         // '0'
  69:C:/Users/stapi/OneDrive/Desktop/GD32VW553/V1_MQTT_OK/GD32VW55X_Wifi_BLE_SDK/GD32VW55x_RELEASE_V1.0.2/MSDK/util/src\debug_print.c ****     C_DIGIT,        // '1'..'9'
  70:C:/Users/stapi/OneDrive/Desktop/GD32VW553/V1_MQTT_OK/GD32VW55X_Wifi_BLE_SDK/GD32VW55x_RELEASE_V1.0.2/MSDK/util/src\debug_print.c ****     C_FLAG,         // ' ', '+', '-',
  71:C:/Users/stapi/OneDrive/Desktop/GD32VW553/V1_MQTT_OK/GD32VW55X_Wifi_BLE_SDK/GD32VW55x_RELEASE_V1.0.2/MSDK/util/src\debug_print.c ****     C_SIZE,         // 'h', 'l', 'L'
  72:C:/Users/stapi/OneDrive/Desktop/GD32VW553/V1_MQTT_OK/GD32VW55X_Wifi_BLE_SDK/GD32VW55x_RELEASE_V1.0.2/MSDK/util/src\debug_print.c ****     C_TYPE,         // type specifying character
  73:C:/Users/stapi/OneDrive/Desktop/GD32VW553/V1_MQTT_OK/GD32VW55X_Wifi_BLE_SDK/GD32VW55x_RELEASE_V1.0.2/MSDK/util/src\debug_print.c ****     C_MAX,
  74:C:/Users/stapi/OneDrive/Desktop/GD32VW553/V1_MQTT_OK/GD32VW55X_Wifi_BLE_SDK/GD32VW55x_RELEASE_V1.0.2/MSDK/util/src\debug_print.c **** };
  75:C:/Users/stapi/OneDrive/Desktop/GD32VW553/V1_MQTT_OK/GD32VW55X_Wifi_BLE_SDK/GD32VW55x_RELEASE_V1.0.2/MSDK/util/src\debug_print.c **** 
  76:C:/Users/stapi/OneDrive/Desktop/GD32VW553/V1_MQTT_OK/GD32VW55X_Wifi_BLE_SDK/GD32VW55x_RELEASE_V1.0.2/MSDK/util/src\debug_print.c **** // field_flags used to store the format information
  77:C:/Users/stapi/OneDrive/Desktop/GD32VW553/V1_MQTT_OK/GD32VW55X_Wifi_BLE_SDK/GD32VW55x_RELEASE_V1.0.2/MSDK/util/src\debug_print.c **** enum
  78:C:/Users/stapi/OneDrive/Desktop/GD32VW553/V1_MQTT_OK/GD32VW55X_Wifi_BLE_SDK/GD32VW55x_RELEASE_V1.0.2/MSDK/util/src\debug_print.c **** {
  79:C:/Users/stapi/OneDrive/Desktop/GD32VW553/V1_MQTT_OK/GD32VW55X_Wifi_BLE_SDK/GD32VW55x_RELEASE_V1.0.2/MSDK/util/src\debug_print.c ****     FLAG_SHORT      = (1 << 0),   // short value
  80:C:/Users/stapi/OneDrive/Desktop/GD32VW553/V1_MQTT_OK/GD32VW55X_Wifi_BLE_SDK/GD32VW55x_RELEASE_V1.0.2/MSDK/util/src\debug_print.c ****     FLAG_LONG       = (1 << 1),   // long value
  81:C:/Users/stapi/OneDrive/Desktop/GD32VW553/V1_MQTT_OK/GD32VW55X_Wifi_BLE_SDK/GD32VW55x_RELEASE_V1.0.2/MSDK/util/src\debug_print.c ****     FLAG_SIGNED     = (1 << 2),   // signed value
  82:C:/Users/stapi/OneDrive/Desktop/GD32VW553/V1_MQTT_OK/GD32VW55X_Wifi_BLE_SDK/GD32VW55x_RELEASE_V1.0.2/MSDK/util/src\debug_print.c ****     FLAG_SIGN       = (1 << 3),   // Add a - or + in the front of the field
  83:C:/Users/stapi/OneDrive/Desktop/GD32VW553/V1_MQTT_OK/GD32VW55X_Wifi_BLE_SDK/GD32VW55x_RELEASE_V1.0.2/MSDK/util/src\debug_print.c ****     FLAG_SIGN_SPACE = (1 << 4),   // Add a space or - in the front of the field
  84:C:/Users/stapi/OneDrive/Desktop/GD32VW553/V1_MQTT_OK/GD32VW55X_Wifi_BLE_SDK/GD32VW55x_RELEASE_V1.0.2/MSDK/util/src\debug_print.c ****     FLAG_LEFT       = (1 << 5),   // left justify
  85:C:/Users/stapi/OneDrive/Desktop/GD32VW553/V1_MQTT_OK/GD32VW55X_Wifi_BLE_SDK/GD32VW55x_RELEASE_V1.0.2/MSDK/util/src\debug_print.c ****     FLAG_LEAD_ZERO  = (1 << 6),   // padding with 0
  86:C:/Users/stapi/OneDrive/Desktop/GD32VW553/V1_MQTT_OK/GD32VW55X_Wifi_BLE_SDK/GD32VW55x_RELEASE_V1.0.2/MSDK/util/src\debug_print.c ****     FLAG_NEGATIVE   = (1 << 7),   // the value is negative
  87:C:/Users/stapi/OneDrive/Desktop/GD32VW553/V1_MQTT_OK/GD32VW55X_Wifi_BLE_SDK/GD32VW55x_RELEASE_V1.0.2/MSDK/util/src\debug_print.c **** };
  88:C:/Users/stapi/OneDrive/Desktop/GD32VW553/V1_MQTT_OK/GD32VW55X_Wifi_BLE_SDK/GD32VW55x_RELEASE_V1.0.2/MSDK/util/src\debug_print.c **** 
  89:C:/Users/stapi/OneDrive/Desktop/GD32VW553/V1_MQTT_OK/GD32VW55X_Wifi_BLE_SDK/GD32VW55x_RELEASE_V1.0.2/MSDK/util/src\debug_print.c **** // Transition table
  90:C:/Users/stapi/OneDrive/Desktop/GD32VW553/V1_MQTT_OK/GD32VW55X_Wifi_BLE_SDK/GD32VW55x_RELEASE_V1.0.2/MSDK/util/src\debug_print.c **** static const uint8_t transition_table[S_MAX][C_MAX] =
  91:C:/Users/stapi/OneDrive/Desktop/GD32VW553/V1_MQTT_OK/GD32VW55X_Wifi_BLE_SDK/GD32VW55x_RELEASE_V1.0.2/MSDK/util/src\debug_print.c **** {   //OTHER  PERCENT    DOT     ZERO      DIGIT     FLAG     SIZE    TYPE
  92:C:/Users/stapi/OneDrive/Desktop/GD32VW553/V1_MQTT_OK/GD32VW55X_Wifi_BLE_SDK/GD32VW55x_RELEASE_V1.0.2/MSDK/util/src\debug_print.c ****     {S_COPY, S_PERCENT, S_COPY, S_COPY,   S_COPY,   S_COPY,  S_COPY, S_COPY}, // COPY
  93:C:/Users/stapi/OneDrive/Desktop/GD32VW553/V1_MQTT_OK/GD32VW55X_Wifi_BLE_SDK/GD32VW55x_RELEASE_V1.0.2/MSDK/util/src\debug_print.c ****     {S_COPY, S_COPY,    S_DOT,  S_FLAGS,  S_WIDTH,  S_FLAGS, S_SIZE, S_TYPE}, // PERCENT
  94:C:/Users/stapi/OneDrive/Desktop/GD32VW553/V1_MQTT_OK/GD32VW55X_Wifi_BLE_SDK/GD32VW55x_RELEASE_V1.0.2/MSDK/util/src\debug_print.c ****     {S_COPY, S_COPY,    S_DOT,  S_FLAGS,  S_WIDTH,  S_FLAGS, S_SIZE, S_TYPE}, // FLAGS
  95:C:/Users/stapi/OneDrive/Desktop/GD32VW553/V1_MQTT_OK/GD32VW55X_Wifi_BLE_SDK/GD32VW55x_RELEASE_V1.0.2/MSDK/util/src\debug_print.c ****     {S_COPY, S_COPY,    S_DOT,  S_WIDTH,  S_WIDTH,  S_COPY,  S_SIZE, S_TYPE}, // WIDTH
  96:C:/Users/stapi/OneDrive/Desktop/GD32VW553/V1_MQTT_OK/GD32VW55X_Wifi_BLE_SDK/GD32VW55x_RELEASE_V1.0.2/MSDK/util/src\debug_print.c ****     {S_COPY, S_COPY,    S_COPY, S_PRECIS, S_PRECIS, S_COPY,  S_SIZE, S_TYPE}, // DOT
  97:C:/Users/stapi/OneDrive/Desktop/GD32VW553/V1_MQTT_OK/GD32VW55X_Wifi_BLE_SDK/GD32VW55x_RELEASE_V1.0.2/MSDK/util/src\debug_print.c ****     {S_COPY, S_COPY,    S_COPY, S_PRECIS, S_PRECIS, S_COPY,  S_SIZE, S_TYPE}, // PRECIS
  98:C:/Users/stapi/OneDrive/Desktop/GD32VW553/V1_MQTT_OK/GD32VW55X_Wifi_BLE_SDK/GD32VW55x_RELEASE_V1.0.2/MSDK/util/src\debug_print.c ****     {S_COPY, S_COPY,    S_COPY, S_COPY,   S_COPY,   S_COPY,  S_COPY, S_TYPE}, // SIZE
  99:C:/Users/stapi/OneDrive/Desktop/GD32VW553/V1_MQTT_OK/GD32VW55X_Wifi_BLE_SDK/GD32VW55x_RELEASE_V1.0.2/MSDK/util/src\debug_print.c ****     {S_COPY, S_PERCENT, S_COPY, S_COPY,   S_COPY,   S_COPY,  S_COPY, S_COPY}, // TYPE
 100:C:/Users/stapi/OneDrive/Desktop/GD32VW553/V1_MQTT_OK/GD32VW55X_Wifi_BLE_SDK/GD32VW55x_RELEASE_V1.0.2/MSDK/util/src\debug_print.c **** };
 101:C:/Users/stapi/OneDrive/Desktop/GD32VW553/V1_MQTT_OK/GD32VW55X_Wifi_BLE_SDK/GD32VW55x_RELEASE_V1.0.2/MSDK/util/src\debug_print.c **** 
 102:C:/Users/stapi/OneDrive/Desktop/GD32VW553/V1_MQTT_OK/GD32VW55X_Wifi_BLE_SDK/GD32VW55x_RELEASE_V1.0.2/MSDK/util/src\debug_print.c **** // Upper case hexadecimal table
 103:C:/Users/stapi/OneDrive/Desktop/GD32VW553/V1_MQTT_OK/GD32VW55X_Wifi_BLE_SDK/GD32VW55x_RELEASE_V1.0.2/MSDK/util/src\debug_print.c **** static const char hex_upper_table[] = "0123456789ABCDEF";
 104:C:/Users/stapi/OneDrive/Desktop/GD32VW553/V1_MQTT_OK/GD32VW55X_Wifi_BLE_SDK/GD32VW55x_RELEASE_V1.0.2/MSDK/util/src\debug_print.c **** #ifdef SUPPORT_LOWER_CASE_HEX
 105:C:/Users/stapi/OneDrive/Desktop/GD32VW553/V1_MQTT_OK/GD32VW55X_Wifi_BLE_SDK/GD32VW55x_RELEASE_V1.0.2/MSDK/util/src\debug_print.c **** // Lower case hexadecimal table
 106:C:/Users/stapi/OneDrive/Desktop/GD32VW553/V1_MQTT_OK/GD32VW55X_Wifi_BLE_SDK/GD32VW55x_RELEASE_V1.0.2/MSDK/util/src\debug_print.c **** static const char hex_lower_table[] = "0123456789abcdef";
 107:C:/Users/stapi/OneDrive/Desktop/GD32VW553/V1_MQTT_OK/GD32VW55X_Wifi_BLE_SDK/GD32VW55x_RELEASE_V1.0.2/MSDK/util/src\debug_print.c **** #endif
 108:C:/Users/stapi/OneDrive/Desktop/GD32VW553/V1_MQTT_OK/GD32VW55X_Wifi_BLE_SDK/GD32VW55x_RELEASE_V1.0.2/MSDK/util/src\debug_print.c **** 
 109:C:/Users/stapi/OneDrive/Desktop/GD32VW553/V1_MQTT_OK/GD32VW55X_Wifi_BLE_SDK/GD32VW55x_RELEASE_V1.0.2/MSDK/util/src\debug_print.c **** 
 110:C:/Users/stapi/OneDrive/Desktop/GD32VW553/V1_MQTT_OK/GD32VW55X_Wifi_BLE_SDK/GD32VW55x_RELEASE_V1.0.2/MSDK/util/src\debug_print.c **** #ifdef CONFIG_PRINT_IN_SEQUENCE
 111:C:/Users/stapi/OneDrive/Desktop/GD32VW553/V1_MQTT_OK/GD32VW55X_Wifi_BLE_SDK/GD32VW55x_RELEASE_V1.0.2/MSDK/util/src\debug_print.c **** #define MAX_BUF_LEN            1024
 112:C:/Users/stapi/OneDrive/Desktop/GD32VW553/V1_MQTT_OK/GD32VW55X_Wifi_BLE_SDK/GD32VW55x_RELEASE_V1.0.2/MSDK/util/src\debug_print.c **** static char print_buf[MAX_BUF_LEN];
 113:C:/Users/stapi/OneDrive/Desktop/GD32VW553/V1_MQTT_OK/GD32VW55X_Wifi_BLE_SDK/GD32VW55x_RELEASE_V1.0.2/MSDK/util/src\debug_print.c **** static os_sema_t print_sema;
 114:C:/Users/stapi/OneDrive/Desktop/GD32VW553/V1_MQTT_OK/GD32VW55X_Wifi_BLE_SDK/GD32VW55x_RELEASE_V1.0.2/MSDK/util/src\debug_print.c **** static int print_task_init = 0;
 115:C:/Users/stapi/OneDrive/Desktop/GD32VW553/V1_MQTT_OK/GD32VW55X_Wifi_BLE_SDK/GD32VW55x_RELEASE_V1.0.2/MSDK/util/src\debug_print.c **** static int w_point = 0, r_point = 0, used_len = 0;
 116:C:/Users/stapi/OneDrive/Desktop/GD32VW553/V1_MQTT_OK/GD32VW55X_Wifi_BLE_SDK/GD32VW55x_RELEASE_V1.0.2/MSDK/util/src\debug_print.c **** #endif
 117:C:/Users/stapi/OneDrive/Desktop/GD32VW553/V1_MQTT_OK/GD32VW55X_Wifi_BLE_SDK/GD32VW55x_RELEASE_V1.0.2/MSDK/util/src\debug_print.c **** 
 118:C:/Users/stapi/OneDrive/Desktop/GD32VW553/V1_MQTT_OK/GD32VW55X_Wifi_BLE_SDK/GD32VW55x_RELEASE_V1.0.2/MSDK/util/src\debug_print.c **** static void printchar(char **str, int c, int *space)
 119:C:/Users/stapi/OneDrive/Desktop/GD32VW553/V1_MQTT_OK/GD32VW55X_Wifi_BLE_SDK/GD32VW55x_RELEASE_V1.0.2/MSDK/util/src\debug_print.c **** {
  15              		.loc 1 119 1
  16              		.cfi_startproc
  17              	.LVL0:
  18 0000 17030000 		call	t0,__riscv_save_0
  18      E7020300 
  19              		.cfi_offset 1, -4
  20              		.cfi_def_cfa_offset 16
 120:C:/Users/stapi/OneDrive/Desktop/GD32VW553/V1_MQTT_OK/GD32VW55X_Wifi_BLE_SDK/GD32VW55x_RELEASE_V1.0.2/MSDK/util/src\debug_print.c ****     if (!str) {
  21              		.loc 1 120 5
  22              		.loc 1 120 8 is_stmt 0
  23 0008 19E9     		bne	a0,zero,.L2
 121:C:/Users/stapi/OneDrive/Desktop/GD32VW553/V1_MQTT_OK/GD32VW55X_Wifi_BLE_SDK/GD32VW55x_RELEASE_V1.0.2/MSDK/util/src\debug_print.c ****         log_uart_putc_noint((char)c);
  24              		.loc 1 121 9 is_stmt 1
  25 000a 13F5F50F 		andi	a0,a1,0xff
  26              	.LVL1:
  27 000e 97000000 		call	log_uart_putc_noint
  27      E7800000 
  28              	.LVL2:
  29              	.L1:
 122:C:/Users/stapi/OneDrive/Desktop/GD32VW553/V1_MQTT_OK/GD32VW55X_Wifi_BLE_SDK/GD32VW55x_RELEASE_V1.0.2/MSDK/util/src\debug_print.c ****     } else if ((uint32_t)str < USART_BASE) {
 123:C:/Users/stapi/OneDrive/Desktop/GD32VW553/V1_MQTT_OK/GD32VW55X_Wifi_BLE_SDK/GD32VW55x_RELEASE_V1.0.2/MSDK/util/src\debug_print.c ****         if (*space > 0) {
 124:C:/Users/stapi/OneDrive/Desktop/GD32VW553/V1_MQTT_OK/GD32VW55X_Wifi_BLE_SDK/GD32VW55x_RELEASE_V1.0.2/MSDK/util/src\debug_print.c ****             **str = c;
 125:C:/Users/stapi/OneDrive/Desktop/GD32VW553/V1_MQTT_OK/GD32VW55X_Wifi_BLE_SDK/GD32VW55x_RELEASE_V1.0.2/MSDK/util/src\debug_print.c ****             ++(*str);
 126:C:/Users/stapi/OneDrive/Desktop/GD32VW553/V1_MQTT_OK/GD32VW55X_Wifi_BLE_SDK/GD32VW55x_RELEASE_V1.0.2/MSDK/util/src\debug_print.c ****             *space -= 1;
 127:C:/Users/stapi/OneDrive/Desktop/GD32VW553/V1_MQTT_OK/GD32VW55X_Wifi_BLE_SDK/GD32VW55x_RELEASE_V1.0.2/MSDK/util/src\debug_print.c ****         }
 128:C:/Users/stapi/OneDrive/Desktop/GD32VW553/V1_MQTT_OK/GD32VW55X_Wifi_BLE_SDK/GD32VW55x_RELEASE_V1.0.2/MSDK/util/src\debug_print.c ****     } else {
 129:C:/Users/stapi/OneDrive/Desktop/GD32VW553/V1_MQTT_OK/GD32VW55X_Wifi_BLE_SDK/GD32VW55x_RELEASE_V1.0.2/MSDK/util/src\debug_print.c ****         uint32_t uartx = (uint32_t)str;
 130:C:/Users/stapi/OneDrive/Desktop/GD32VW553/V1_MQTT_OK/GD32VW55X_Wifi_BLE_SDK/GD32VW55x_RELEASE_V1.0.2/MSDK/util/src\debug_print.c ****         if ((uartx == USART0) || (uartx == UART1) || (uartx == UART2))
 131:C:/Users/stapi/OneDrive/Desktop/GD32VW553/V1_MQTT_OK/GD32VW55X_Wifi_BLE_SDK/GD32VW55x_RELEASE_V1.0.2/MSDK/util/src\debug_print.c ****             uart_putc_noint(uartx, (char)c);
 132:C:/Users/stapi/OneDrive/Desktop/GD32VW553/V1_MQTT_OK/GD32VW55X_Wifi_BLE_SDK/GD32VW55x_RELEASE_V1.0.2/MSDK/util/src\debug_print.c ****     }
 133:C:/Users/stapi/OneDrive/Desktop/GD32VW553/V1_MQTT_OK/GD32VW55X_Wifi_BLE_SDK/GD32VW55x_RELEASE_V1.0.2/MSDK/util/src\debug_print.c **** }
  30              		.loc 1 133 1 is_stmt 0
  31 0016 17030000 		tail	__riscv_restore_0
  31      67000300 
  32              		.cfi_remember_state
  33              		.cfi_restore 1
  34              		.cfi_def_cfa_offset 0
  35              	.LVL3:
  36              	.L2:
  37              		.cfi_restore_state
 122:C:/Users/stapi/OneDrive/Desktop/GD32VW553/V1_MQTT_OK/GD32VW55X_Wifi_BLE_SDK/GD32VW55x_RELEASE_V1.0.2/MSDK/util/src\debug_print.c ****     } else if ((uint32_t)str < USART_BASE) {
  38              		.loc 1 122 12 is_stmt 1
 122:C:/Users/stapi/OneDrive/Desktop/GD32VW553/V1_MQTT_OK/GD32VW55X_Wifi_BLE_SDK/GD32VW55x_RELEASE_V1.0.2/MSDK/util/src\debug_print.c ****     } else if ((uint32_t)str < USART_BASE) {
  39              		.loc 1 122 15 is_stmt 0
  40 001e B7470040 		li	a5,1073758208
  41 0022 1387F73F 		addi	a4,a5,1023
  42 0026 636FA700 		bgtu	a0,a4,.L4
 123:C:/Users/stapi/OneDrive/Desktop/GD32VW553/V1_MQTT_OK/GD32VW55X_Wifi_BLE_SDK/GD32VW55x_RELEASE_V1.0.2/MSDK/util/src\debug_print.c ****             **str = c;
  43              		.loc 1 123 9 is_stmt 1
 123:C:/Users/stapi/OneDrive/Desktop/GD32VW553/V1_MQTT_OK/GD32VW55X_Wifi_BLE_SDK/GD32VW55x_RELEASE_V1.0.2/MSDK/util/src\debug_print.c ****             **str = c;
  44              		.loc 1 123 12 is_stmt 0
  45 002a 1C42     		lw	a5,0(a2)
  46 002c E355F0FE 		ble	a5,zero,.L1
  47              	.LVL4:
  48              	.LBB13:
  49              	.LBB14:
 124:C:/Users/stapi/OneDrive/Desktop/GD32VW553/V1_MQTT_OK/GD32VW55X_Wifi_BLE_SDK/GD32VW55x_RELEASE_V1.0.2/MSDK/util/src\debug_print.c ****             ++(*str);
  50              		.loc 1 124 13 is_stmt 1
 124:C:/Users/stapi/OneDrive/Desktop/GD32VW553/V1_MQTT_OK/GD32VW55X_Wifi_BLE_SDK/GD32VW55x_RELEASE_V1.0.2/MSDK/util/src\debug_print.c ****             ++(*str);
  51              		.loc 1 124 14 is_stmt 0
  52 0030 1C41     		lw	a5,0(a0)
 124:C:/Users/stapi/OneDrive/Desktop/GD32VW553/V1_MQTT_OK/GD32VW55X_Wifi_BLE_SDK/GD32VW55x_RELEASE_V1.0.2/MSDK/util/src\debug_print.c ****             ++(*str);
  53              		.loc 1 124 19
  54 0032 2380B700 		sb	a1,0(a5)
 125:C:/Users/stapi/OneDrive/Desktop/GD32VW553/V1_MQTT_OK/GD32VW55X_Wifi_BLE_SDK/GD32VW55x_RELEASE_V1.0.2/MSDK/util/src\debug_print.c ****             *space -= 1;
  55              		.loc 1 125 13 is_stmt 1
  56 0036 1C41     		lw	a5,0(a0)
  57 0038 8507     		addi	a5,a5,1
  58 003a 1CC1     		sw	a5,0(a0)
 126:C:/Users/stapi/OneDrive/Desktop/GD32VW553/V1_MQTT_OK/GD32VW55X_Wifi_BLE_SDK/GD32VW55x_RELEASE_V1.0.2/MSDK/util/src\debug_print.c ****         }
  59              		.loc 1 126 13
 126:C:/Users/stapi/OneDrive/Desktop/GD32VW553/V1_MQTT_OK/GD32VW55X_Wifi_BLE_SDK/GD32VW55x_RELEASE_V1.0.2/MSDK/util/src\debug_print.c ****         }
  60              		.loc 1 126 20 is_stmt 0
  61 003c 1C42     		lw	a5,0(a2)
  62 003e FD17     		addi	a5,a5,-1
  63 0040 1CC2     		sw	a5,0(a2)
  64              		.loc 1 133 1
  65 0042 D1BF     		j	.L1
  66              	.LVL5:
  67              	.L4:
  68              	.LBE14:
  69              	.LBE13:
  70              	.LBB15:
 129:C:/Users/stapi/OneDrive/Desktop/GD32VW553/V1_MQTT_OK/GD32VW55X_Wifi_BLE_SDK/GD32VW55x_RELEASE_V1.0.2/MSDK/util/src\debug_print.c ****         if ((uartx == USART0) || (uartx == UART1) || (uartx == UART2))
  71              		.loc 1 129 9 is_stmt 1
 130:C:/Users/stapi/OneDrive/Desktop/GD32VW553/V1_MQTT_OK/GD32VW55X_Wifi_BLE_SDK/GD32VW55x_RELEASE_V1.0.2/MSDK/util/src\debug_print.c ****             uart_putc_noint(uartx, (char)c);
  72              		.loc 1 130 9
 130:C:/Users/stapi/OneDrive/Desktop/GD32VW553/V1_MQTT_OK/GD32VW55X_Wifi_BLE_SDK/GD32VW55x_RELEASE_V1.0.2/MSDK/util/src\debug_print.c ****             uart_putc_noint(uartx, (char)c);
  73              		.loc 1 130 12 is_stmt 0
  74 0044 37570040 		li	a4,1073762304
  75 0048 13070780 		addi	a4,a4,-2048
  76 004c 630AE500 		beq	a0,a4,.L5
 130:C:/Users/stapi/OneDrive/Desktop/GD32VW553/V1_MQTT_OK/GD32VW55X_Wifi_BLE_SDK/GD32VW55x_RELEASE_V1.0.2/MSDK/util/src\debug_print.c ****             uart_putc_noint(uartx, (char)c);
  77              		.loc 1 130 31 discriminator 1
  78 0050 93870740 		addi	a5,a5,1024
  79 0054 6306F500 		beq	a0,a5,.L5
 130:C:/Users/stapi/OneDrive/Desktop/GD32VW553/V1_MQTT_OK/GD32VW55X_Wifi_BLE_SDK/GD32VW55x_RELEASE_V1.0.2/MSDK/util/src\debug_print.c ****             uart_putc_noint(uartx, (char)c);
  80              		.loc 1 130 51 discriminator 2
  81 0058 B7170140 		li	a5,1073811456
  82 005c E31DF5FA 		bne	a0,a5,.L1
  83              	.L5:
 131:C:/Users/stapi/OneDrive/Desktop/GD32VW553/V1_MQTT_OK/GD32VW55X_Wifi_BLE_SDK/GD32VW55x_RELEASE_V1.0.2/MSDK/util/src\debug_print.c ****     }
  84              		.loc 1 131 13 is_stmt 1
  85 0060 93F5F50F 		andi	a1,a1,0xff
  86              	.LVL6:
  87 0064 97000000 		call	uart_putc_noint
  87      E7800000 
  88              	.LVL7:
  89              	.LBE15:
  90              		.loc 1 133 1 is_stmt 0
  91 006c 6DB7     		j	.L1
  92              		.cfi_endproc
  93              	.LFE367:
  95              		.section	.text.prints,"ax",@progbits
  96              		.align	1
  98              	prints:
  99              	.LFB368:
 134:C:/Users/stapi/OneDrive/Desktop/GD32VW553/V1_MQTT_OK/GD32VW55X_Wifi_BLE_SDK/GD32VW55x_RELEASE_V1.0.2/MSDK/util/src\debug_print.c **** 
 135:C:/Users/stapi/OneDrive/Desktop/GD32VW553/V1_MQTT_OK/GD32VW55X_Wifi_BLE_SDK/GD32VW55x_RELEASE_V1.0.2/MSDK/util/src\debug_print.c **** #define PAD_RIGHT 1
 136:C:/Users/stapi/OneDrive/Desktop/GD32VW553/V1_MQTT_OK/GD32VW55X_Wifi_BLE_SDK/GD32VW55x_RELEASE_V1.0.2/MSDK/util/src\debug_print.c **** #define PAD_ZERO 2
 137:C:/Users/stapi/OneDrive/Desktop/GD32VW553/V1_MQTT_OK/GD32VW55X_Wifi_BLE_SDK/GD32VW55x_RELEASE_V1.0.2/MSDK/util/src\debug_print.c **** 
 138:C:/Users/stapi/OneDrive/Desktop/GD32VW553/V1_MQTT_OK/GD32VW55X_Wifi_BLE_SDK/GD32VW55x_RELEASE_V1.0.2/MSDK/util/src\debug_print.c **** static int prints(char **out, const char *string, int width, int pad, int *space)
 139:C:/Users/stapi/OneDrive/Desktop/GD32VW553/V1_MQTT_OK/GD32VW55X_Wifi_BLE_SDK/GD32VW55x_RELEASE_V1.0.2/MSDK/util/src\debug_print.c **** {
 100              		.loc 1 139 1 is_stmt 1
 101              		.cfi_startproc
 102              	.LVL8:
 103 0000 17030000 		call	t0,__riscv_save_7
 103      E7020300 
 104              		.cfi_offset 22, -32
 105              		.cfi_offset 21, -28
 106              		.cfi_offset 20, -24
 107              		.cfi_offset 19, -20
 108              		.cfi_offset 18, -16
 109              		.cfi_offset 9, -12
 110              		.cfi_offset 8, -8
 111              		.cfi_offset 1, -4
 112              		.cfi_def_cfa_offset 32
 140:C:/Users/stapi/OneDrive/Desktop/GD32VW553/V1_MQTT_OK/GD32VW55X_Wifi_BLE_SDK/GD32VW55x_RELEASE_V1.0.2/MSDK/util/src\debug_print.c ****     register int pc = 0, padchar = ' ';
 113              		.loc 1 140 5
 114              	.LVL9:
 141:C:/Users/stapi/OneDrive/Desktop/GD32VW553/V1_MQTT_OK/GD32VW55X_Wifi_BLE_SDK/GD32VW55x_RELEASE_V1.0.2/MSDK/util/src\debug_print.c **** 
 142:C:/Users/stapi/OneDrive/Desktop/GD32VW553/V1_MQTT_OK/GD32VW55X_Wifi_BLE_SDK/GD32VW55x_RELEASE_V1.0.2/MSDK/util/src\debug_print.c ****     if (width > 0) {
 115              		.loc 1 142 5
 139:C:/Users/stapi/OneDrive/Desktop/GD32VW553/V1_MQTT_OK/GD32VW55X_Wifi_BLE_SDK/GD32VW55x_RELEASE_V1.0.2/MSDK/util/src\debug_print.c ****     register int pc = 0, padchar = ' ';
 116              		.loc 1 139 1 is_stmt 0
 117 0008 2A89     		mv	s2,a0
 118 000a 2E8B     		mv	s6,a1
 119 000c 3284     		mv	s0,a2
 120 000e BA89     		mv	s3,a4
 140:C:/Users/stapi/OneDrive/Desktop/GD32VW553/V1_MQTT_OK/GD32VW55X_Wifi_BLE_SDK/GD32VW55x_RELEASE_V1.0.2/MSDK/util/src\debug_print.c ****     register int pc = 0, padchar = ' ';
 121              		.loc 1 140 26
 122 0010 930A0002 		li	s5,32
 123              		.loc 1 142 8
 124 0014 6354C002 		ble	a2,zero,.L9
 125 0018 8147     		li	a5,0
 126 001a 11A0     		j	.L8
 127              	.LVL10:
 128              	.L10:
 129              	.LBB16:
 143:C:/Users/stapi/OneDrive/Desktop/GD32VW553/V1_MQTT_OK/GD32VW55X_Wifi_BLE_SDK/GD32VW55x_RELEASE_V1.0.2/MSDK/util/src\debug_print.c ****         register int len = 0;
 144:C:/Users/stapi/OneDrive/Desktop/GD32VW553/V1_MQTT_OK/GD32VW55X_Wifi_BLE_SDK/GD32VW55x_RELEASE_V1.0.2/MSDK/util/src\debug_print.c ****         register const char *ptr;
 145:C:/Users/stapi/OneDrive/Desktop/GD32VW553/V1_MQTT_OK/GD32VW55X_Wifi_BLE_SDK/GD32VW55x_RELEASE_V1.0.2/MSDK/util/src\debug_print.c **** 
 146:C:/Users/stapi/OneDrive/Desktop/GD32VW553/V1_MQTT_OK/GD32VW55X_Wifi_BLE_SDK/GD32VW55x_RELEASE_V1.0.2/MSDK/util/src\debug_print.c ****         for (ptr = string; *ptr; ++ptr) {
 147:C:/Users/stapi/OneDrive/Desktop/GD32VW553/V1_MQTT_OK/GD32VW55X_Wifi_BLE_SDK/GD32VW55x_RELEASE_V1.0.2/MSDK/util/src\debug_print.c ****             ++len;
 130              		.loc 1 147 13 is_stmt 1 discriminator 3
 131 001c 8507     		addi	a5,a5,1
 132              	.LVL11:
 146:C:/Users/stapi/OneDrive/Desktop/GD32VW553/V1_MQTT_OK/GD32VW55X_Wifi_BLE_SDK/GD32VW55x_RELEASE_V1.0.2/MSDK/util/src\debug_print.c ****             ++len;
 133              		.loc 1 146 34 discriminator 3
 134              	.L8:
 146:C:/Users/stapi/OneDrive/Desktop/GD32VW553/V1_MQTT_OK/GD32VW55X_Wifi_BLE_SDK/GD32VW55x_RELEASE_V1.0.2/MSDK/util/src\debug_print.c ****             ++len;
 135              		.loc 1 146 28 discriminator 1
 136 001e 3307FB00 		add	a4,s6,a5
 137              	.LVL12:
 146:C:/Users/stapi/OneDrive/Desktop/GD32VW553/V1_MQTT_OK/GD32VW55X_Wifi_BLE_SDK/GD32VW55x_RELEASE_V1.0.2/MSDK/util/src\debug_print.c ****             ++len;
 138              		.loc 1 146 9 is_stmt 0 discriminator 1
 139 0022 03070700 		lb	a4,0(a4)
 140              	.LVL13:
 141 0026 7DFB     		bne	a4,zero,.L10
 148:C:/Users/stapi/OneDrive/Desktop/GD32VW553/V1_MQTT_OK/GD32VW55X_Wifi_BLE_SDK/GD32VW55x_RELEASE_V1.0.2/MSDK/util/src\debug_print.c ****         }
 149:C:/Users/stapi/OneDrive/Desktop/GD32VW553/V1_MQTT_OK/GD32VW55X_Wifi_BLE_SDK/GD32VW55x_RELEASE_V1.0.2/MSDK/util/src\debug_print.c **** 
 150:C:/Users/stapi/OneDrive/Desktop/GD32VW553/V1_MQTT_OK/GD32VW55X_Wifi_BLE_SDK/GD32VW55x_RELEASE_V1.0.2/MSDK/util/src\debug_print.c ****         if (len >= width) {
 142              		.loc 1 150 9 is_stmt 1
 143              		.loc 1 150 12 is_stmt 0
 144 0028 63DF8700 		bge	a5,s0,.L20
 151:C:/Users/stapi/OneDrive/Desktop/GD32VW553/V1_MQTT_OK/GD32VW55X_Wifi_BLE_SDK/GD32VW55x_RELEASE_V1.0.2/MSDK/util/src\debug_print.c ****             width = 0;
 152:C:/Users/stapi/OneDrive/Desktop/GD32VW553/V1_MQTT_OK/GD32VW55X_Wifi_BLE_SDK/GD32VW55x_RELEASE_V1.0.2/MSDK/util/src\debug_print.c ****         }
 153:C:/Users/stapi/OneDrive/Desktop/GD32VW553/V1_MQTT_OK/GD32VW55X_Wifi_BLE_SDK/GD32VW55x_RELEASE_V1.0.2/MSDK/util/src\debug_print.c ****         else {
 154:C:/Users/stapi/OneDrive/Desktop/GD32VW553/V1_MQTT_OK/GD32VW55X_Wifi_BLE_SDK/GD32VW55x_RELEASE_V1.0.2/MSDK/util/src\debug_print.c ****             width -= len;
 145              		.loc 1 154 13 is_stmt 1
 146              		.loc 1 154 19 is_stmt 0
 147 002c 1D8C     		sub	s0,s0,a5
 148              	.LVL14:
 149              	.L11:
 155:C:/Users/stapi/OneDrive/Desktop/GD32VW553/V1_MQTT_OK/GD32VW55X_Wifi_BLE_SDK/GD32VW55x_RELEASE_V1.0.2/MSDK/util/src\debug_print.c ****         }
 156:C:/Users/stapi/OneDrive/Desktop/GD32VW553/V1_MQTT_OK/GD32VW55X_Wifi_BLE_SDK/GD32VW55x_RELEASE_V1.0.2/MSDK/util/src\debug_print.c **** 
 157:C:/Users/stapi/OneDrive/Desktop/GD32VW553/V1_MQTT_OK/GD32VW55X_Wifi_BLE_SDK/GD32VW55x_RELEASE_V1.0.2/MSDK/util/src\debug_print.c ****         if (pad & PAD_ZERO) {
 150              		.loc 1 157 9 is_stmt 1
 151              		.loc 1 157 17 is_stmt 0
 152 002e 93F72600 		andi	a5,a3,2
 153              	.LVL15:
 154              	.LBE16:
 140:C:/Users/stapi/OneDrive/Desktop/GD32VW553/V1_MQTT_OK/GD32VW55X_Wifi_BLE_SDK/GD32VW55x_RELEASE_V1.0.2/MSDK/util/src\debug_print.c **** 
 155              		.loc 1 140 26
 156 0032 930A0002 		li	s5,32
 157              	.LBB17:
 158              		.loc 1 157 12
 159 0036 99C3     		beq	a5,zero,.L9
 158:C:/Users/stapi/OneDrive/Desktop/GD32VW553/V1_MQTT_OK/GD32VW55X_Wifi_BLE_SDK/GD32VW55x_RELEASE_V1.0.2/MSDK/util/src\debug_print.c ****             padchar = '0';
 160              		.loc 1 158 21
 161 0038 930A0003 		li	s5,48
 162              	.L9:
 163              	.LVL16:
 164              	.LBE17:
 159:C:/Users/stapi/OneDrive/Desktop/GD32VW553/V1_MQTT_OK/GD32VW55X_Wifi_BLE_SDK/GD32VW55x_RELEASE_V1.0.2/MSDK/util/src\debug_print.c ****         }
 160:C:/Users/stapi/OneDrive/Desktop/GD32VW553/V1_MQTT_OK/GD32VW55X_Wifi_BLE_SDK/GD32VW55x_RELEASE_V1.0.2/MSDK/util/src\debug_print.c ****     }
 161:C:/Users/stapi/OneDrive/Desktop/GD32VW553/V1_MQTT_OK/GD32VW55X_Wifi_BLE_SDK/GD32VW55x_RELEASE_V1.0.2/MSDK/util/src\debug_print.c **** 
 162:C:/Users/stapi/OneDrive/Desktop/GD32VW553/V1_MQTT_OK/GD32VW55X_Wifi_BLE_SDK/GD32VW55x_RELEASE_V1.0.2/MSDK/util/src\debug_print.c ****     if (!(pad & PAD_RIGHT)) {
 165              		.loc 1 162 5 is_stmt 1
 166              		.loc 1 162 15 is_stmt 0
 167 003c 858A     		andi	a3,a3,1
 168              	.LVL17:
 140:C:/Users/stapi/OneDrive/Desktop/GD32VW553/V1_MQTT_OK/GD32VW55X_Wifi_BLE_SDK/GD32VW55x_RELEASE_V1.0.2/MSDK/util/src\debug_print.c **** 
 169              		.loc 1 140 18
 170 003e 8144     		li	s1,0
 171              		.loc 1 162 8
 172 0040 9DE2     		bne	a3,zero,.L13
 173 0042 A284     		mv	s1,s0
 174 0044 19A8     		j	.L12
 175              	.LVL18:
 176              	.L20:
 177              	.LBB18:
 151:C:/Users/stapi/OneDrive/Desktop/GD32VW553/V1_MQTT_OK/GD32VW55X_Wifi_BLE_SDK/GD32VW55x_RELEASE_V1.0.2/MSDK/util/src\debug_print.c ****         }
 178              		.loc 1 151 19
 179 0046 0144     		li	s0,0
 180              	.LVL19:
 181 0048 DDB7     		j	.L11
 182              	.LVL20:
 183              	.L14:
 184              	.LBE18:
 163:C:/Users/stapi/OneDrive/Desktop/GD32VW553/V1_MQTT_OK/GD32VW55X_Wifi_BLE_SDK/GD32VW55x_RELEASE_V1.0.2/MSDK/util/src\debug_print.c ****         for ( ; width > 0; --width) {
 164:C:/Users/stapi/OneDrive/Desktop/GD32VW553/V1_MQTT_OK/GD32VW55X_Wifi_BLE_SDK/GD32VW55x_RELEASE_V1.0.2/MSDK/util/src\debug_print.c ****             printchar (out, padchar, space);
 185              		.loc 1 164 13 is_stmt 1 discriminator 2
 186 004a 4E86     		mv	a2,s3
 187 004c D685     		mv	a1,s5
 188 004e 4A85     		mv	a0,s2
 189 0050 97000000 		call	printchar
 189      E7800000 
 190              	.LVL21:
 165:C:/Users/stapi/OneDrive/Desktop/GD32VW553/V1_MQTT_OK/GD32VW55X_Wifi_BLE_SDK/GD32VW55x_RELEASE_V1.0.2/MSDK/util/src\debug_print.c ****             ++pc;
 191              		.loc 1 165 13 discriminator 2
 163:C:/Users/stapi/OneDrive/Desktop/GD32VW553/V1_MQTT_OK/GD32VW55X_Wifi_BLE_SDK/GD32VW55x_RELEASE_V1.0.2/MSDK/util/src\debug_print.c ****         for ( ; width > 0; --width) {
 192              		.loc 1 163 28 discriminator 2
 193 0058 FD14     		addi	s1,s1,-1
 194              	.LVL22:
 195              	.L12:
 163:C:/Users/stapi/OneDrive/Desktop/GD32VW553/V1_MQTT_OK/GD32VW55X_Wifi_BLE_SDK/GD32VW55x_RELEASE_V1.0.2/MSDK/util/src\debug_print.c ****         for ( ; width > 0; --width) {
 196              		.loc 1 163 17 discriminator 1
 163:C:/Users/stapi/OneDrive/Desktop/GD32VW553/V1_MQTT_OK/GD32VW55X_Wifi_BLE_SDK/GD32VW55x_RELEASE_V1.0.2/MSDK/util/src\debug_print.c ****         for ( ; width > 0; --width) {
 197              		.loc 1 163 9 is_stmt 0 discriminator 1
 198 005a E34890FE 		bgt	s1,zero,.L14
 199 005e 8144     		li	s1,0
 200              	.LVL23:
 201 0060 B364940A 		max	s1,s0,s1
 202 0064 058C     		sub	s0,s0,s1
 203              	.L13:
 140:C:/Users/stapi/OneDrive/Desktop/GD32VW553/V1_MQTT_OK/GD32VW55X_Wifi_BLE_SDK/GD32VW55x_RELEASE_V1.0.2/MSDK/util/src\debug_print.c **** 
 204              		.loc 1 140 18 discriminator 1
 205 0066 268A     		mv	s4,s1
 206 0068 01A8     		j	.L15
 207              	.LVL24:
 208              	.L16:
 166:C:/Users/stapi/OneDrive/Desktop/GD32VW553/V1_MQTT_OK/GD32VW55X_Wifi_BLE_SDK/GD32VW55x_RELEASE_V1.0.2/MSDK/util/src\debug_print.c ****         }
 167:C:/Users/stapi/OneDrive/Desktop/GD32VW553/V1_MQTT_OK/GD32VW55X_Wifi_BLE_SDK/GD32VW55x_RELEASE_V1.0.2/MSDK/util/src\debug_print.c ****     }
 168:C:/Users/stapi/OneDrive/Desktop/GD32VW553/V1_MQTT_OK/GD32VW55X_Wifi_BLE_SDK/GD32VW55x_RELEASE_V1.0.2/MSDK/util/src\debug_print.c **** 
 169:C:/Users/stapi/OneDrive/Desktop/GD32VW553/V1_MQTT_OK/GD32VW55X_Wifi_BLE_SDK/GD32VW55x_RELEASE_V1.0.2/MSDK/util/src\debug_print.c ****     for ( ; *string ; ++string) {
 170:C:/Users/stapi/OneDrive/Desktop/GD32VW553/V1_MQTT_OK/GD32VW55X_Wifi_BLE_SDK/GD32VW55x_RELEASE_V1.0.2/MSDK/util/src\debug_print.c ****         printchar (out, *string, space);
 209              		.loc 1 170 9 is_stmt 1 discriminator 2
 210 006a 4E86     		mv	a2,s3
 211 006c 4A85     		mv	a0,s2
 212 006e 97000000 		call	printchar
 212      E7800000 
 213              	.LVL25:
 171:C:/Users/stapi/OneDrive/Desktop/GD32VW553/V1_MQTT_OK/GD32VW55X_Wifi_BLE_SDK/GD32VW55x_RELEASE_V1.0.2/MSDK/util/src\debug_print.c ****         ++pc;
 214              		.loc 1 171 9 discriminator 2
 215 0076 050A     		addi	s4,s4,1
 216              	.LVL26:
 169:C:/Users/stapi/OneDrive/Desktop/GD32VW553/V1_MQTT_OK/GD32VW55X_Wifi_BLE_SDK/GD32VW55x_RELEASE_V1.0.2/MSDK/util/src\debug_print.c ****         printchar (out, *string, space);
 217              		.loc 1 169 23 discriminator 2
 218              	.L15:
 169:C:/Users/stapi/OneDrive/Desktop/GD32VW553/V1_MQTT_OK/GD32VW55X_Wifi_BLE_SDK/GD32VW55x_RELEASE_V1.0.2/MSDK/util/src\debug_print.c ****         printchar (out, *string, space);
 219              		.loc 1 169 13 discriminator 1
 220 0078 B3079A40 		sub	a5,s4,s1
 221 007c DA97     		add	a5,s6,a5
 222 007e 83850700 		lb	a1,0(a5)
 169:C:/Users/stapi/OneDrive/Desktop/GD32VW553/V1_MQTT_OK/GD32VW55X_Wifi_BLE_SDK/GD32VW55x_RELEASE_V1.0.2/MSDK/util/src\debug_print.c ****         printchar (out, *string, space);
 223              		.loc 1 169 5 is_stmt 0 discriminator 1
 224 0082 E5F5     		bne	a1,zero,.L16
 225 0084 A284     		mv	s1,s0
 226              	.LVL27:
 227              	.L17:
 172:C:/Users/stapi/OneDrive/Desktop/GD32VW553/V1_MQTT_OK/GD32VW55X_Wifi_BLE_SDK/GD32VW55x_RELEASE_V1.0.2/MSDK/util/src\debug_print.c ****     }
 173:C:/Users/stapi/OneDrive/Desktop/GD32VW553/V1_MQTT_OK/GD32VW55X_Wifi_BLE_SDK/GD32VW55x_RELEASE_V1.0.2/MSDK/util/src\debug_print.c **** 
 174:C:/Users/stapi/OneDrive/Desktop/GD32VW553/V1_MQTT_OK/GD32VW55X_Wifi_BLE_SDK/GD32VW55x_RELEASE_V1.0.2/MSDK/util/src\debug_print.c ****     for ( ; width > 0; --width) {
 228              		.loc 1 174 13 is_stmt 1 discriminator 1
 229              		.loc 1 174 5 is_stmt 0 discriminator 1
 230 0086 634A9000 		bgt	s1,zero,.L18
 175:C:/Users/stapi/OneDrive/Desktop/GD32VW553/V1_MQTT_OK/GD32VW55X_Wifi_BLE_SDK/GD32VW55x_RELEASE_V1.0.2/MSDK/util/src\debug_print.c ****         printchar (out, padchar, space);
 176:C:/Users/stapi/OneDrive/Desktop/GD32VW553/V1_MQTT_OK/GD32VW55X_Wifi_BLE_SDK/GD32VW55x_RELEASE_V1.0.2/MSDK/util/src\debug_print.c ****         ++pc;
 177:C:/Users/stapi/OneDrive/Desktop/GD32VW553/V1_MQTT_OK/GD32VW55X_Wifi_BLE_SDK/GD32VW55x_RELEASE_V1.0.2/MSDK/util/src\debug_print.c ****     }
 178:C:/Users/stapi/OneDrive/Desktop/GD32VW553/V1_MQTT_OK/GD32VW55X_Wifi_BLE_SDK/GD32VW55x_RELEASE_V1.0.2/MSDK/util/src\debug_print.c **** 
 179:C:/Users/stapi/OneDrive/Desktop/GD32VW553/V1_MQTT_OK/GD32VW55X_Wifi_BLE_SDK/GD32VW55x_RELEASE_V1.0.2/MSDK/util/src\debug_print.c ****     return pc;
 231              		.loc 1 179 5 is_stmt 1
 232              		.loc 1 179 12 is_stmt 0
 233 008a 0145     		li	a0,0
 234 008c 3365A40A 		max	a0,s0,a0
 180:C:/Users/stapi/OneDrive/Desktop/GD32VW553/V1_MQTT_OK/GD32VW55X_Wifi_BLE_SDK/GD32VW55x_RELEASE_V1.0.2/MSDK/util/src\debug_print.c **** }
 235              		.loc 1 180 1
 236 0090 5295     		add	a0,a0,s4
 237 0092 17030000 		tail	__riscv_restore_7
 237      67000300 
 238              		.cfi_remember_state
 239              		.cfi_restore 22
 240              		.cfi_restore 21
 241              		.cfi_restore 20
 242              		.cfi_restore 19
 243              		.cfi_restore 18
 244              		.cfi_restore 9
 245              		.cfi_restore 8
 246              		.cfi_restore 1
 247              		.cfi_def_cfa_offset 0
 248              	.L18:
 249              		.cfi_restore_state
 175:C:/Users/stapi/OneDrive/Desktop/GD32VW553/V1_MQTT_OK/GD32VW55X_Wifi_BLE_SDK/GD32VW55x_RELEASE_V1.0.2/MSDK/util/src\debug_print.c ****         printchar (out, padchar, space);
 250              		.loc 1 175 9 is_stmt 1 discriminator 2
 251 009a 4E86     		mv	a2,s3
 252 009c D685     		mv	a1,s5
 253 009e 4A85     		mv	a0,s2
 254 00a0 97000000 		call	printchar
 254      E7800000 
 255              	.LVL28:
 176:C:/Users/stapi/OneDrive/Desktop/GD32VW553/V1_MQTT_OK/GD32VW55X_Wifi_BLE_SDK/GD32VW55x_RELEASE_V1.0.2/MSDK/util/src\debug_print.c ****     }
 256              		.loc 1 176 9 discriminator 2
 174:C:/Users/stapi/OneDrive/Desktop/GD32VW553/V1_MQTT_OK/GD32VW55X_Wifi_BLE_SDK/GD32VW55x_RELEASE_V1.0.2/MSDK/util/src\debug_print.c ****         printchar (out, padchar, space);
 257              		.loc 1 174 24 discriminator 2
 258 00a8 FD14     		addi	s1,s1,-1
 259              	.LVL29:
 260 00aa F1BF     		j	.L17
 261              		.cfi_endproc
 262              	.LFE368:
 264              		.section	.text.printi,"ax",@progbits
 265              		.align	1
 267              	printi:
 268              	.LFB369:
 181:C:/Users/stapi/OneDrive/Desktop/GD32VW553/V1_MQTT_OK/GD32VW55X_Wifi_BLE_SDK/GD32VW55x_RELEASE_V1.0.2/MSDK/util/src\debug_print.c **** 
 182:C:/Users/stapi/OneDrive/Desktop/GD32VW553/V1_MQTT_OK/GD32VW55X_Wifi_BLE_SDK/GD32VW55x_RELEASE_V1.0.2/MSDK/util/src\debug_print.c **** /* the following should be enough for 32 bit int */
 183:C:/Users/stapi/OneDrive/Desktop/GD32VW553/V1_MQTT_OK/GD32VW55X_Wifi_BLE_SDK/GD32VW55x_RELEASE_V1.0.2/MSDK/util/src\debug_print.c **** #define PRINT_BUF_LEN 12
 184:C:/Users/stapi/OneDrive/Desktop/GD32VW553/V1_MQTT_OK/GD32VW55X_Wifi_BLE_SDK/GD32VW55x_RELEASE_V1.0.2/MSDK/util/src\debug_print.c **** 
 185:C:/Users/stapi/OneDrive/Desktop/GD32VW553/V1_MQTT_OK/GD32VW55X_Wifi_BLE_SDK/GD32VW55x_RELEASE_V1.0.2/MSDK/util/src\debug_print.c **** static int printi(char **out, int i, int b, int sg, int width, int pad, int letbase, int *space)
 186:C:/Users/stapi/OneDrive/Desktop/GD32VW553/V1_MQTT_OK/GD32VW55X_Wifi_BLE_SDK/GD32VW55x_RELEASE_V1.0.2/MSDK/util/src\debug_print.c **** {
 269              		.loc 1 186 1
 270              		.cfi_startproc
 271              	.LVL30:
 272 0000 17030000 		call	t0,__riscv_save_4
 272      E7020300 
 273              		.cfi_offset 19, -20
 274              		.cfi_offset 18, -16
 275              		.cfi_offset 9, -12
 276              		.cfi_offset 8, -8
 277              		.cfi_offset 1, -4
 278              		.cfi_def_cfa_offset 32
 187:C:/Users/stapi/OneDrive/Desktop/GD32VW553/V1_MQTT_OK/GD32VW55X_Wifi_BLE_SDK/GD32VW55x_RELEASE_V1.0.2/MSDK/util/src\debug_print.c ****     char print_buf[PRINT_BUF_LEN];
 279              		.loc 1 187 5
 188:C:/Users/stapi/OneDrive/Desktop/GD32VW553/V1_MQTT_OK/GD32VW55X_Wifi_BLE_SDK/GD32VW55x_RELEASE_V1.0.2/MSDK/util/src\debug_print.c ****     register char *s;
 280              		.loc 1 188 5
 189:C:/Users/stapi/OneDrive/Desktop/GD32VW553/V1_MQTT_OK/GD32VW55X_Wifi_BLE_SDK/GD32VW55x_RELEASE_V1.0.2/MSDK/util/src\debug_print.c ****     register int t, neg = 0, pc = 0;
 281              		.loc 1 189 5
 282              	.LVL31:
 190:C:/Users/stapi/OneDrive/Desktop/GD32VW553/V1_MQTT_OK/GD32VW55X_Wifi_BLE_SDK/GD32VW55x_RELEASE_V1.0.2/MSDK/util/src\debug_print.c ****     register unsigned int u = i;
 283              		.loc 1 190 5
 191:C:/Users/stapi/OneDrive/Desktop/GD32VW553/V1_MQTT_OK/GD32VW55X_Wifi_BLE_SDK/GD32VW55x_RELEASE_V1.0.2/MSDK/util/src\debug_print.c **** 
 192:C:/Users/stapi/OneDrive/Desktop/GD32VW553/V1_MQTT_OK/GD32VW55X_Wifi_BLE_SDK/GD32VW55x_RELEASE_V1.0.2/MSDK/util/src\debug_print.c ****     if (i == 0) {
 284              		.loc 1 192 5
 186:C:/Users/stapi/OneDrive/Desktop/GD32VW553/V1_MQTT_OK/GD32VW55X_Wifi_BLE_SDK/GD32VW55x_RELEASE_V1.0.2/MSDK/util/src\debug_print.c ****     char print_buf[PRINT_BUF_LEN];
 285              		.loc 1 186 1 is_stmt 0
 286 0008 3684     		mv	s0,a3
 287 000a BA84     		mv	s1,a4
 288 000c 0111     		addi	sp,sp,-32
 289              		.cfi_def_cfa_offset 64
 186:C:/Users/stapi/OneDrive/Desktop/GD32VW553/V1_MQTT_OK/GD32VW55X_Wifi_BLE_SDK/GD32VW55x_RELEASE_V1.0.2/MSDK/util/src\debug_print.c ****     char print_buf[PRINT_BUF_LEN];
 290              		.loc 1 186 1
 291 000e BE86     		mv	a3,a5
 292              	.LVL32:
 293 0010 4687     		mv	a4,a7
 294              	.LVL33:
 295              		.loc 1 192 8
 296 0012 85E1     		bne	a1,zero,.L28
 193:C:/Users/stapi/OneDrive/Desktop/GD32VW553/V1_MQTT_OK/GD32VW55X_Wifi_BLE_SDK/GD32VW55x_RELEASE_V1.0.2/MSDK/util/src\debug_print.c ****         print_buf[0] = '0';
 297              		.loc 1 193 9 is_stmt 1
 194:C:/Users/stapi/OneDrive/Desktop/GD32VW553/V1_MQTT_OK/GD32VW55X_Wifi_BLE_SDK/GD32VW55x_RELEASE_V1.0.2/MSDK/util/src\debug_print.c ****         print_buf[1] = '\0';
 298              		.loc 1 194 9
 193:C:/Users/stapi/OneDrive/Desktop/GD32VW553/V1_MQTT_OK/GD32VW55X_Wifi_BLE_SDK/GD32VW55x_RELEASE_V1.0.2/MSDK/util/src\debug_print.c ****         print_buf[0] = '0';
 299              		.loc 1 193 22 is_stmt 0
 300 0014 93070003 		li	a5,48
 301              	.LVL34:
 195:C:/Users/stapi/OneDrive/Desktop/GD32VW553/V1_MQTT_OK/GD32VW55X_Wifi_BLE_SDK/GD32VW55x_RELEASE_V1.0.2/MSDK/util/src\debug_print.c ****         return prints (out, print_buf, width, pad, space);
 302              		.loc 1 195 16
 303 0018 2686     		mv	a2,s1
 304              	.LVL35:
 305 001a 4C08     		addi	a1,sp,20
 306              	.LVL36:
 193:C:/Users/stapi/OneDrive/Desktop/GD32VW553/V1_MQTT_OK/GD32VW55X_Wifi_BLE_SDK/GD32VW55x_RELEASE_V1.0.2/MSDK/util/src\debug_print.c ****         print_buf[0] = '0';
 307              		.loc 1 193 22
 308 001c 231AF100 		sh	a5,20(sp)
 309              		.loc 1 195 9 is_stmt 1
 310              		.loc 1 195 16 is_stmt 0
 311 0020 97000000 		call	prints
 311      E7800000 
 312              	.LVL37:
 313              	.L27:
 196:C:/Users/stapi/OneDrive/Desktop/GD32VW553/V1_MQTT_OK/GD32VW55X_Wifi_BLE_SDK/GD32VW55x_RELEASE_V1.0.2/MSDK/util/src\debug_print.c ****     }
 197:C:/Users/stapi/OneDrive/Desktop/GD32VW553/V1_MQTT_OK/GD32VW55X_Wifi_BLE_SDK/GD32VW55x_RELEASE_V1.0.2/MSDK/util/src\debug_print.c **** 
 198:C:/Users/stapi/OneDrive/Desktop/GD32VW553/V1_MQTT_OK/GD32VW55X_Wifi_BLE_SDK/GD32VW55x_RELEASE_V1.0.2/MSDK/util/src\debug_print.c ****     if (sg && b == 10 && i < 0) {
 199:C:/Users/stapi/OneDrive/Desktop/GD32VW553/V1_MQTT_OK/GD32VW55X_Wifi_BLE_SDK/GD32VW55x_RELEASE_V1.0.2/MSDK/util/src\debug_print.c ****         neg = 1;
 200:C:/Users/stapi/OneDrive/Desktop/GD32VW553/V1_MQTT_OK/GD32VW55X_Wifi_BLE_SDK/GD32VW55x_RELEASE_V1.0.2/MSDK/util/src\debug_print.c ****         u = -i;
 201:C:/Users/stapi/OneDrive/Desktop/GD32VW553/V1_MQTT_OK/GD32VW55X_Wifi_BLE_SDK/GD32VW55x_RELEASE_V1.0.2/MSDK/util/src\debug_print.c ****     }
 202:C:/Users/stapi/OneDrive/Desktop/GD32VW553/V1_MQTT_OK/GD32VW55X_Wifi_BLE_SDK/GD32VW55x_RELEASE_V1.0.2/MSDK/util/src\debug_print.c **** 
 203:C:/Users/stapi/OneDrive/Desktop/GD32VW553/V1_MQTT_OK/GD32VW55X_Wifi_BLE_SDK/GD32VW55x_RELEASE_V1.0.2/MSDK/util/src\debug_print.c ****     s = print_buf + PRINT_BUF_LEN-1;
 204:C:/Users/stapi/OneDrive/Desktop/GD32VW553/V1_MQTT_OK/GD32VW55X_Wifi_BLE_SDK/GD32VW55x_RELEASE_V1.0.2/MSDK/util/src\debug_print.c ****     *s = '\0';
 205:C:/Users/stapi/OneDrive/Desktop/GD32VW553/V1_MQTT_OK/GD32VW55X_Wifi_BLE_SDK/GD32VW55x_RELEASE_V1.0.2/MSDK/util/src\debug_print.c **** 
 206:C:/Users/stapi/OneDrive/Desktop/GD32VW553/V1_MQTT_OK/GD32VW55X_Wifi_BLE_SDK/GD32VW55x_RELEASE_V1.0.2/MSDK/util/src\debug_print.c ****     while (u) {
 207:C:/Users/stapi/OneDrive/Desktop/GD32VW553/V1_MQTT_OK/GD32VW55X_Wifi_BLE_SDK/GD32VW55x_RELEASE_V1.0.2/MSDK/util/src\debug_print.c ****         t = u % b;
 208:C:/Users/stapi/OneDrive/Desktop/GD32VW553/V1_MQTT_OK/GD32VW55X_Wifi_BLE_SDK/GD32VW55x_RELEASE_V1.0.2/MSDK/util/src\debug_print.c **** 
 209:C:/Users/stapi/OneDrive/Desktop/GD32VW553/V1_MQTT_OK/GD32VW55X_Wifi_BLE_SDK/GD32VW55x_RELEASE_V1.0.2/MSDK/util/src\debug_print.c ****         if( t >= 10 ) {
 210:C:/Users/stapi/OneDrive/Desktop/GD32VW553/V1_MQTT_OK/GD32VW55X_Wifi_BLE_SDK/GD32VW55x_RELEASE_V1.0.2/MSDK/util/src\debug_print.c ****             t += letbase - '0' - 10;
 211:C:/Users/stapi/OneDrive/Desktop/GD32VW553/V1_MQTT_OK/GD32VW55X_Wifi_BLE_SDK/GD32VW55x_RELEASE_V1.0.2/MSDK/util/src\debug_print.c ****         }
 212:C:/Users/stapi/OneDrive/Desktop/GD32VW553/V1_MQTT_OK/GD32VW55X_Wifi_BLE_SDK/GD32VW55x_RELEASE_V1.0.2/MSDK/util/src\debug_print.c **** 
 213:C:/Users/stapi/OneDrive/Desktop/GD32VW553/V1_MQTT_OK/GD32VW55X_Wifi_BLE_SDK/GD32VW55x_RELEASE_V1.0.2/MSDK/util/src\debug_print.c ****         *--s = t + '0';
 214:C:/Users/stapi/OneDrive/Desktop/GD32VW553/V1_MQTT_OK/GD32VW55X_Wifi_BLE_SDK/GD32VW55x_RELEASE_V1.0.2/MSDK/util/src\debug_print.c ****         u /= b;
 215:C:/Users/stapi/OneDrive/Desktop/GD32VW553/V1_MQTT_OK/GD32VW55X_Wifi_BLE_SDK/GD32VW55x_RELEASE_V1.0.2/MSDK/util/src\debug_print.c ****     }
 216:C:/Users/stapi/OneDrive/Desktop/GD32VW553/V1_MQTT_OK/GD32VW55X_Wifi_BLE_SDK/GD32VW55x_RELEASE_V1.0.2/MSDK/util/src\debug_print.c **** 
 217:C:/Users/stapi/OneDrive/Desktop/GD32VW553/V1_MQTT_OK/GD32VW55X_Wifi_BLE_SDK/GD32VW55x_RELEASE_V1.0.2/MSDK/util/src\debug_print.c ****     if (neg) {
 218:C:/Users/stapi/OneDrive/Desktop/GD32VW553/V1_MQTT_OK/GD32VW55X_Wifi_BLE_SDK/GD32VW55x_RELEASE_V1.0.2/MSDK/util/src\debug_print.c ****         if( width && (pad & PAD_ZERO) ) {
 219:C:/Users/stapi/OneDrive/Desktop/GD32VW553/V1_MQTT_OK/GD32VW55X_Wifi_BLE_SDK/GD32VW55x_RELEASE_V1.0.2/MSDK/util/src\debug_print.c ****             printchar (out, '-', space);
 220:C:/Users/stapi/OneDrive/Desktop/GD32VW553/V1_MQTT_OK/GD32VW55X_Wifi_BLE_SDK/GD32VW55x_RELEASE_V1.0.2/MSDK/util/src\debug_print.c ****             ++pc;
 221:C:/Users/stapi/OneDrive/Desktop/GD32VW553/V1_MQTT_OK/GD32VW55X_Wifi_BLE_SDK/GD32VW55x_RELEASE_V1.0.2/MSDK/util/src\debug_print.c ****             --width;
 222:C:/Users/stapi/OneDrive/Desktop/GD32VW553/V1_MQTT_OK/GD32VW55X_Wifi_BLE_SDK/GD32VW55x_RELEASE_V1.0.2/MSDK/util/src\debug_print.c ****         }
 223:C:/Users/stapi/OneDrive/Desktop/GD32VW553/V1_MQTT_OK/GD32VW55X_Wifi_BLE_SDK/GD32VW55x_RELEASE_V1.0.2/MSDK/util/src\debug_print.c ****         else {
 224:C:/Users/stapi/OneDrive/Desktop/GD32VW553/V1_MQTT_OK/GD32VW55X_Wifi_BLE_SDK/GD32VW55x_RELEASE_V1.0.2/MSDK/util/src\debug_print.c ****             *--s = '-';
 225:C:/Users/stapi/OneDrive/Desktop/GD32VW553/V1_MQTT_OK/GD32VW55X_Wifi_BLE_SDK/GD32VW55x_RELEASE_V1.0.2/MSDK/util/src\debug_print.c ****         }
 226:C:/Users/stapi/OneDrive/Desktop/GD32VW553/V1_MQTT_OK/GD32VW55X_Wifi_BLE_SDK/GD32VW55x_RELEASE_V1.0.2/MSDK/util/src\debug_print.c ****     }
 227:C:/Users/stapi/OneDrive/Desktop/GD32VW553/V1_MQTT_OK/GD32VW55X_Wifi_BLE_SDK/GD32VW55x_RELEASE_V1.0.2/MSDK/util/src\debug_print.c **** 
 228:C:/Users/stapi/OneDrive/Desktop/GD32VW553/V1_MQTT_OK/GD32VW55X_Wifi_BLE_SDK/GD32VW55x_RELEASE_V1.0.2/MSDK/util/src\debug_print.c ****     return pc + prints (out, s, width, pad, space);
 229:C:/Users/stapi/OneDrive/Desktop/GD32VW553/V1_MQTT_OK/GD32VW55X_Wifi_BLE_SDK/GD32VW55x_RELEASE_V1.0.2/MSDK/util/src\debug_print.c **** }
 314              		.loc 1 229 1
 315 0028 0561     		addi	sp,sp,32
 316              		.cfi_remember_state
 317              		.cfi_def_cfa_offset 0
 318 002a 17030000 		tail	__riscv_restore_4
 318      67000300 
 319              		.cfi_restore 19
 320              		.cfi_restore 18
 321              		.cfi_restore 9
 322              		.cfi_restore 8
 323              		.cfi_restore 1
 324              		.cfi_def_cfa_offset -32
 325              	.LVL38:
 326              	.L28:
 327              		.cfi_restore_state
 328 0032 2A89     		mv	s2,a0
 329 0034 3283     		mv	t1,a2
 198:C:/Users/stapi/OneDrive/Desktop/GD32VW553/V1_MQTT_OK/GD32VW55X_Wifi_BLE_SDK/GD32VW55x_RELEASE_V1.0.2/MSDK/util/src\debug_print.c ****         neg = 1;
 330              		.loc 1 198 5 is_stmt 1
 198:C:/Users/stapi/OneDrive/Desktop/GD32VW553/V1_MQTT_OK/GD32VW55X_Wifi_BLE_SDK/GD32VW55x_RELEASE_V1.0.2/MSDK/util/src\debug_print.c ****         neg = 1;
 331              		.loc 1 198 8 is_stmt 0
 332 0036 01C8     		beq	s0,zero,.L30
 333              	.LVL39:
 198:C:/Users/stapi/OneDrive/Desktop/GD32VW553/V1_MQTT_OK/GD32VW55X_Wifi_BLE_SDK/GD32VW55x_RELEASE_V1.0.2/MSDK/util/src\debug_print.c ****         neg = 1;
 334              		.loc 1 198 12 discriminator 1
 335 0038 A947     		li	a5,10
 336 003a 6317F606 		bne	a2,a5,.L36
 198:C:/Users/stapi/OneDrive/Desktop/GD32VW553/V1_MQTT_OK/GD32VW55X_Wifi_BLE_SDK/GD32VW55x_RELEASE_V1.0.2/MSDK/util/src\debug_print.c ****         neg = 1;
 337              		.loc 1 198 23 discriminator 2
 338 003e 63D50506 		bge	a1,zero,.L36
 199:C:/Users/stapi/OneDrive/Desktop/GD32VW553/V1_MQTT_OK/GD32VW55X_Wifi_BLE_SDK/GD32VW55x_RELEASE_V1.0.2/MSDK/util/src\debug_print.c ****         u = -i;
 339              		.loc 1 199 9 is_stmt 1
 340              	.LVL40:
 200:C:/Users/stapi/OneDrive/Desktop/GD32VW553/V1_MQTT_OK/GD32VW55X_Wifi_BLE_SDK/GD32VW55x_RELEASE_V1.0.2/MSDK/util/src\debug_print.c ****     }
 341              		.loc 1 200 9
 200:C:/Users/stapi/OneDrive/Desktop/GD32VW553/V1_MQTT_OK/GD32VW55X_Wifi_BLE_SDK/GD32VW55x_RELEASE_V1.0.2/MSDK/util/src\debug_print.c ****     }
 342              		.loc 1 200 13 is_stmt 0
 343 0042 B305B040 		neg	a1,a1
 344              	.LVL41:
 345              	.L30:
 203:C:/Users/stapi/OneDrive/Desktop/GD32VW553/V1_MQTT_OK/GD32VW55X_Wifi_BLE_SDK/GD32VW55x_RELEASE_V1.0.2/MSDK/util/src\debug_print.c ****     *s = '\0';
 346              		.loc 1 203 5 is_stmt 1
 204:C:/Users/stapi/OneDrive/Desktop/GD32VW553/V1_MQTT_OK/GD32VW55X_Wifi_BLE_SDK/GD32VW55x_RELEASE_V1.0.2/MSDK/util/src\debug_print.c **** 
 347              		.loc 1 204 5
 204:C:/Users/stapi/OneDrive/Desktop/GD32VW553/V1_MQTT_OK/GD32VW55X_Wifi_BLE_SDK/GD32VW55x_RELEASE_V1.0.2/MSDK/util/src\debug_print.c **** 
 348              		.loc 1 204 8 is_stmt 0
 349 0046 A30F0100 		sb	zero,31(sp)
 206:C:/Users/stapi/OneDrive/Desktop/GD32VW553/V1_MQTT_OK/GD32VW55X_Wifi_BLE_SDK/GD32VW55x_RELEASE_V1.0.2/MSDK/util/src\debug_print.c ****         t = u % b;
 350              		.loc 1 206 5 is_stmt 1
 206:C:/Users/stapi/OneDrive/Desktop/GD32VW553/V1_MQTT_OK/GD32VW55X_Wifi_BLE_SDK/GD32VW55x_RELEASE_V1.0.2/MSDK/util/src\debug_print.c ****         t = u % b;
 351              		.loc 1 206 11
 203:C:/Users/stapi/OneDrive/Desktop/GD32VW553/V1_MQTT_OK/GD32VW55X_Wifi_BLE_SDK/GD32VW55x_RELEASE_V1.0.2/MSDK/util/src\debug_print.c ****     *s = '\0';
 352              		.loc 1 203 7 is_stmt 0
 353 004a 1306F101 		addi	a2,sp,31
 354              	.LVL42:
 209:C:/Users/stapi/OneDrive/Desktop/GD32VW553/V1_MQTT_OK/GD32VW55X_Wifi_BLE_SDK/GD32VW55x_RELEASE_V1.0.2/MSDK/util/src\debug_print.c ****             t += letbase - '0' - 10;
 355              		.loc 1 209 11
 356 004e A548     		li	a7,9
 210:C:/Users/stapi/OneDrive/Desktop/GD32VW553/V1_MQTT_OK/GD32VW55X_Wifi_BLE_SDK/GD32VW55x_RELEASE_V1.0.2/MSDK/util/src\debug_print.c ****         }
 357              		.loc 1 210 32
 358 0050 930768FC 		addi	a5,a6,-58
 359              	.LVL43:
 360              	.L32:
 207:C:/Users/stapi/OneDrive/Desktop/GD32VW553/V1_MQTT_OK/GD32VW55X_Wifi_BLE_SDK/GD32VW55x_RELEASE_V1.0.2/MSDK/util/src\debug_print.c **** 
 361              		.loc 1 207 9 is_stmt 1
 207:C:/Users/stapi/OneDrive/Desktop/GD32VW553/V1_MQTT_OK/GD32VW55X_Wifi_BLE_SDK/GD32VW55x_RELEASE_V1.0.2/MSDK/util/src\debug_print.c **** 
 362              		.loc 1 207 15 is_stmt 0
 363 0054 33F86502 		remu	a6,a1,t1
 364              	.LVL44:
 209:C:/Users/stapi/OneDrive/Desktop/GD32VW553/V1_MQTT_OK/GD32VW55X_Wifi_BLE_SDK/GD32VW55x_RELEASE_V1.0.2/MSDK/util/src\debug_print.c ****             t += letbase - '0' - 10;
 365              		.loc 1 209 9 is_stmt 1
 209:C:/Users/stapi/OneDrive/Desktop/GD32VW553/V1_MQTT_OK/GD32VW55X_Wifi_BLE_SDK/GD32VW55x_RELEASE_V1.0.2/MSDK/util/src\debug_print.c ****             t += letbase - '0' - 10;
 366              		.loc 1 209 11 is_stmt 0
 367 0058 63F30801 		bleu	a6,a7,.L31
 210:C:/Users/stapi/OneDrive/Desktop/GD32VW553/V1_MQTT_OK/GD32VW55X_Wifi_BLE_SDK/GD32VW55x_RELEASE_V1.0.2/MSDK/util/src\debug_print.c ****         }
 368              		.loc 1 210 13 is_stmt 1
 210:C:/Users/stapi/OneDrive/Desktop/GD32VW553/V1_MQTT_OK/GD32VW55X_Wifi_BLE_SDK/GD32VW55x_RELEASE_V1.0.2/MSDK/util/src\debug_print.c ****         }
 369              		.loc 1 210 15 is_stmt 0
 370 005c 3E98     		add	a6,a6,a5
 371              	.LVL45:
 372              	.L31:
 213:C:/Users/stapi/OneDrive/Desktop/GD32VW553/V1_MQTT_OK/GD32VW55X_Wifi_BLE_SDK/GD32VW55x_RELEASE_V1.0.2/MSDK/util/src\debug_print.c ****         u /= b;
 373              		.loc 1 213 9 is_stmt 1
 213:C:/Users/stapi/OneDrive/Desktop/GD32VW553/V1_MQTT_OK/GD32VW55X_Wifi_BLE_SDK/GD32VW55x_RELEASE_V1.0.2/MSDK/util/src\debug_print.c ****         u /= b;
 374              		.loc 1 213 18 is_stmt 0
 375 005e 13080803 		addi	a6,a6,48
 376              	.LVL46:
 213:C:/Users/stapi/OneDrive/Desktop/GD32VW553/V1_MQTT_OK/GD32VW55X_Wifi_BLE_SDK/GD32VW55x_RELEASE_V1.0.2/MSDK/util/src\debug_print.c ****         u /= b;
 377              		.loc 1 213 14
 378 0062 A30F06FF 		sb	a6,-1(a2)
 214:C:/Users/stapi/OneDrive/Desktop/GD32VW553/V1_MQTT_OK/GD32VW55X_Wifi_BLE_SDK/GD32VW55x_RELEASE_V1.0.2/MSDK/util/src\debug_print.c ****     }
 379              		.loc 1 214 11
 380 0066 33D56502 		divu	a0,a1,t1
 213:C:/Users/stapi/OneDrive/Desktop/GD32VW553/V1_MQTT_OK/GD32VW55X_Wifi_BLE_SDK/GD32VW55x_RELEASE_V1.0.2/MSDK/util/src\debug_print.c ****         u /= b;
 381              		.loc 1 213 14
 382 006a 9309F6FF 		addi	s3,a2,-1
 383              	.LVL47:
 214:C:/Users/stapi/OneDrive/Desktop/GD32VW553/V1_MQTT_OK/GD32VW55X_Wifi_BLE_SDK/GD32VW55x_RELEASE_V1.0.2/MSDK/util/src\debug_print.c ****     }
 384              		.loc 1 214 9 is_stmt 1
 206:C:/Users/stapi/OneDrive/Desktop/GD32VW553/V1_MQTT_OK/GD32VW55X_Wifi_BLE_SDK/GD32VW55x_RELEASE_V1.0.2/MSDK/util/src\debug_print.c ****         t = u % b;
 385              		.loc 1 206 11
 386 006e 63FF6502 		bleu	t1,a1,.L37
 217:C:/Users/stapi/OneDrive/Desktop/GD32VW553/V1_MQTT_OK/GD32VW55X_Wifi_BLE_SDK/GD32VW55x_RELEASE_V1.0.2/MSDK/util/src\debug_print.c ****         if( width && (pad & PAD_ZERO) ) {
 387              		.loc 1 217 5
 217:C:/Users/stapi/OneDrive/Desktop/GD32VW553/V1_MQTT_OK/GD32VW55X_Wifi_BLE_SDK/GD32VW55x_RELEASE_V1.0.2/MSDK/util/src\debug_print.c ****         if( width && (pad & PAD_ZERO) ) {
 388              		.loc 1 217 8 is_stmt 0
 389 0072 15C0     		beq	s0,zero,.L33
 218:C:/Users/stapi/OneDrive/Desktop/GD32VW553/V1_MQTT_OK/GD32VW55X_Wifi_BLE_SDK/GD32VW55x_RELEASE_V1.0.2/MSDK/util/src\debug_print.c ****             printchar (out, '-', space);
 390              		.loc 1 218 9 is_stmt 1
 218:C:/Users/stapi/OneDrive/Desktop/GD32VW553/V1_MQTT_OK/GD32VW55X_Wifi_BLE_SDK/GD32VW55x_RELEASE_V1.0.2/MSDK/util/src\debug_print.c ****             printchar (out, '-', space);
 391              		.loc 1 218 11 is_stmt 0
 392 0074 9DCC     		beq	s1,zero,.L34
 218:C:/Users/stapi/OneDrive/Desktop/GD32VW553/V1_MQTT_OK/GD32VW55X_Wifi_BLE_SDK/GD32VW55x_RELEASE_V1.0.2/MSDK/util/src\debug_print.c ****             printchar (out, '-', space);
 393              		.loc 1 218 27 discriminator 1
 394 0076 93F72600 		andi	a5,a3,2
 395              	.LVL48:
 218:C:/Users/stapi/OneDrive/Desktop/GD32VW553/V1_MQTT_OK/GD32VW55X_Wifi_BLE_SDK/GD32VW55x_RELEASE_V1.0.2/MSDK/util/src\debug_print.c ****             printchar (out, '-', space);
 396              		.loc 1 218 19 discriminator 1
 397 007a 85CF     		beq	a5,zero,.L34
 219:C:/Users/stapi/OneDrive/Desktop/GD32VW553/V1_MQTT_OK/GD32VW55X_Wifi_BLE_SDK/GD32VW55x_RELEASE_V1.0.2/MSDK/util/src\debug_print.c ****             ++pc;
 398              		.loc 1 219 13
 399 007c 3A86     		mv	a2,a4
 400 007e 9305D002 		li	a1,45
 401 0082 4A85     		mv	a0,s2
 402              	.LVL49:
 403 0084 36C6     		sw	a3,12(sp)
 219:C:/Users/stapi/OneDrive/Desktop/GD32VW553/V1_MQTT_OK/GD32VW55X_Wifi_BLE_SDK/GD32VW55x_RELEASE_V1.0.2/MSDK/util/src\debug_print.c ****             ++pc;
 404              		.loc 1 219 13 is_stmt 1
 405 0086 3AC4     		sw	a4,8(sp)
 406 0088 97000000 		call	printchar
 406      E7800000 
 407              	.LVL50:
 220:C:/Users/stapi/OneDrive/Desktop/GD32VW553/V1_MQTT_OK/GD32VW55X_Wifi_BLE_SDK/GD32VW55x_RELEASE_V1.0.2/MSDK/util/src\debug_print.c ****             --width;
 408              		.loc 1 220 13
 221:C:/Users/stapi/OneDrive/Desktop/GD32VW553/V1_MQTT_OK/GD32VW55X_Wifi_BLE_SDK/GD32VW55x_RELEASE_V1.0.2/MSDK/util/src\debug_print.c ****         }
 409              		.loc 1 221 13
 410 0090 2247     		lw	a4,8(sp)
 411 0092 B246     		lw	a3,12(sp)
 412 0094 FD14     		addi	s1,s1,-1
 413              	.LVL51:
 414              	.L33:
 228:C:/Users/stapi/OneDrive/Desktop/GD32VW553/V1_MQTT_OK/GD32VW55X_Wifi_BLE_SDK/GD32VW55x_RELEASE_V1.0.2/MSDK/util/src\debug_print.c **** }
 415              		.loc 1 228 5
 228:C:/Users/stapi/OneDrive/Desktop/GD32VW553/V1_MQTT_OK/GD32VW55X_Wifi_BLE_SDK/GD32VW55x_RELEASE_V1.0.2/MSDK/util/src\debug_print.c **** }
 416              		.loc 1 228 17 is_stmt 0
 417 0096 2686     		mv	a2,s1
 418 0098 CE85     		mv	a1,s3
 419 009a 4A85     		mv	a0,s2
 420 009c 97000000 		call	prints
 420      E7800000 
 421              	.LVL52:
 228:C:/Users/stapi/OneDrive/Desktop/GD32VW553/V1_MQTT_OK/GD32VW55X_Wifi_BLE_SDK/GD32VW55x_RELEASE_V1.0.2/MSDK/util/src\debug_print.c **** }
 422              		.loc 1 228 15
 423 00a4 2295     		add	a0,a0,s0
 424 00a6 49B7     		j	.L27
 425              	.LVL53:
 426              	.L36:
 189:C:/Users/stapi/OneDrive/Desktop/GD32VW553/V1_MQTT_OK/GD32VW55X_Wifi_BLE_SDK/GD32VW55x_RELEASE_V1.0.2/MSDK/util/src\debug_print.c ****     register unsigned int u = i;
 427              		.loc 1 189 21
 428 00a8 0144     		li	s0,0
 429              	.LVL54:
 430 00aa 71BF     		j	.L30
 431              	.LVL55:
 432              	.L37:
 214:C:/Users/stapi/OneDrive/Desktop/GD32VW553/V1_MQTT_OK/GD32VW55X_Wifi_BLE_SDK/GD32VW55x_RELEASE_V1.0.2/MSDK/util/src\debug_print.c ****     }
 433              		.loc 1 214 11
 434 00ac AA85     		mv	a1,a0
 435 00ae 4E86     		mv	a2,s3
 436 00b0 55B7     		j	.L32
 437              	.LVL56:
 438              	.L34:
 224:C:/Users/stapi/OneDrive/Desktop/GD32VW553/V1_MQTT_OK/GD32VW55X_Wifi_BLE_SDK/GD32VW55x_RELEASE_V1.0.2/MSDK/util/src\debug_print.c ****         }
 439              		.loc 1 224 13 is_stmt 1
 224:C:/Users/stapi/OneDrive/Desktop/GD32VW553/V1_MQTT_OK/GD32VW55X_Wifi_BLE_SDK/GD32VW55x_RELEASE_V1.0.2/MSDK/util/src\debug_print.c ****         }
 440              		.loc 1 224 18 is_stmt 0
 441 00b2 9307D002 		li	a5,45
 442 00b6 A38FF9FE 		sb	a5,-1(s3)
 189:C:/Users/stapi/OneDrive/Desktop/GD32VW553/V1_MQTT_OK/GD32VW55X_Wifi_BLE_SDK/GD32VW55x_RELEASE_V1.0.2/MSDK/util/src\debug_print.c ****     register unsigned int u = i;
 443              		.loc 1 189 30
 444 00ba 0144     		li	s0,0
 445              	.LVL57:
 224:C:/Users/stapi/OneDrive/Desktop/GD32VW553/V1_MQTT_OK/GD32VW55X_Wifi_BLE_SDK/GD32VW55x_RELEASE_V1.0.2/MSDK/util/src\debug_print.c ****         }
 446              		.loc 1 224 18
 447 00bc 9309E6FF 		addi	s3,a2,-2
 448              	.LVL58:
 449 00c0 D9BF     		j	.L33
 450              		.cfi_endproc
 451              	.LFE369:
 453              		.section	.rodata.print.str1.4,"aMS",@progbits,1
 454              		.align	2
 455              	.LC0:
 456 0000 286E756C 		.string	"(null)"
 456      6C2900
 457              		.section	.text.print,"ax",@progbits
 458              		.align	1
 459              		.globl	print
 461              	print:
 462              	.LFB370:
 230:C:/Users/stapi/OneDrive/Desktop/GD32VW553/V1_MQTT_OK/GD32VW55X_Wifi_BLE_SDK/GD32VW55x_RELEASE_V1.0.2/MSDK/util/src\debug_print.c **** 
 231:C:/Users/stapi/OneDrive/Desktop/GD32VW553/V1_MQTT_OK/GD32VW55X_Wifi_BLE_SDK/GD32VW55x_RELEASE_V1.0.2/MSDK/util/src\debug_print.c **** int print(char **out, const char *format, va_list args, int space)
 232:C:/Users/stapi/OneDrive/Desktop/GD32VW553/V1_MQTT_OK/GD32VW55X_Wifi_BLE_SDK/GD32VW55x_RELEASE_V1.0.2/MSDK/util/src\debug_print.c **** {
 463              		.loc 1 232 1 is_stmt 1
 464              		.cfi_startproc
 465              	.LVL59:
 466 0000 17030000 		call	t0,__riscv_save_12
 466      E7020300 
 467              		.cfi_offset 27, -52
 468              		.cfi_offset 26, -48
 469              		.cfi_offset 25, -44
 470              		.cfi_offset 24, -40
 471              		.cfi_offset 23, -36
 472              		.cfi_offset 22, -32
 473              		.cfi_offset 21, -28
 474              		.cfi_offset 20, -24
 475              		.cfi_offset 19, -20
 476              		.cfi_offset 18, -16
 477              		.cfi_offset 9, -12
 478              		.cfi_offset 8, -8
 479              		.cfi_offset 1, -4
 480              		.cfi_def_cfa_offset 64
 481 0008 0111     		addi	sp,sp,-32
 482              		.cfi_def_cfa_offset 96
 483              		.loc 1 232 1 is_stmt 0
 484 000a 2A89     		mv	s2,a0
 233:C:/Users/stapi/OneDrive/Desktop/GD32VW553/V1_MQTT_OK/GD32VW55X_Wifi_BLE_SDK/GD32VW55x_RELEASE_V1.0.2/MSDK/util/src\debug_print.c ****     register int width, pad;
 485              		.loc 1 233 5 is_stmt 1
 234:C:/Users/stapi/OneDrive/Desktop/GD32VW553/V1_MQTT_OK/GD32VW55X_Wifi_BLE_SDK/GD32VW55x_RELEASE_V1.0.2/MSDK/util/src\debug_print.c ****     register int pc = 0;
 486              		.loc 1 234 5
 487              	.LVL60:
 235:C:/Users/stapi/OneDrive/Desktop/GD32VW553/V1_MQTT_OK/GD32VW55X_Wifi_BLE_SDK/GD32VW55x_RELEASE_V1.0.2/MSDK/util/src\debug_print.c ****     char scr[2];
 488              		.loc 1 235 5
 236:C:/Users/stapi/OneDrive/Desktop/GD32VW553/V1_MQTT_OK/GD32VW55X_Wifi_BLE_SDK/GD32VW55x_RELEASE_V1.0.2/MSDK/util/src\debug_print.c **** 
 237:C:/Users/stapi/OneDrive/Desktop/GD32VW553/V1_MQTT_OK/GD32VW55X_Wifi_BLE_SDK/GD32VW55x_RELEASE_V1.0.2/MSDK/util/src\debug_print.c ****     // not enough space
 238:C:/Users/stapi/OneDrive/Desktop/GD32VW553/V1_MQTT_OK/GD32VW55X_Wifi_BLE_SDK/GD32VW55x_RELEASE_V1.0.2/MSDK/util/src\debug_print.c ****     if (out  && ((uint32_t)out < USART_BASE) && space < 1)
 489              		.loc 1 238 5
 232:C:/Users/stapi/OneDrive/Desktop/GD32VW553/V1_MQTT_OK/GD32VW55X_Wifi_BLE_SDK/GD32VW55x_RELEASE_V1.0.2/MSDK/util/src\debug_print.c ****     register int width, pad;
 490              		.loc 1 232 1 is_stmt 0
 491 000c AE89     		mv	s3,a1
 492 000e B284     		mv	s1,a2
 493              		.loc 1 238 8
 494 0010 11C9     		beq	a0,zero,.L52
 495              		.loc 1 238 14 discriminator 1
 496 0012 B7470040 		li	a5,1073758208
 497 0016 9387F73F 		addi	a5,a5,1023
 498 001a 63E5A700 		bgtu	a0,a5,.L52
 239:C:/Users/stapi/OneDrive/Desktop/GD32VW553/V1_MQTT_OK/GD32VW55X_Wifi_BLE_SDK/GD32VW55x_RELEASE_V1.0.2/MSDK/util/src\debug_print.c ****         return 0;
 499              		.loc 1 239 16 discriminator 2
 500 001e 0144     		li	s0,0
 238:C:/Users/stapi/OneDrive/Desktop/GD32VW553/V1_MQTT_OK/GD32VW55X_Wifi_BLE_SDK/GD32VW55x_RELEASE_V1.0.2/MSDK/util/src\debug_print.c ****         return 0;
 501              		.loc 1 238 46 discriminator 2
 502 0020 6357D002 		ble	a3,zero,.L51
 503              	.L52:
 240:C:/Users/stapi/OneDrive/Desktop/GD32VW553/V1_MQTT_OK/GD32VW55X_Wifi_BLE_SDK/GD32VW55x_RELEASE_V1.0.2/MSDK/util/src\debug_print.c **** 
 241:C:/Users/stapi/OneDrive/Desktop/GD32VW553/V1_MQTT_OK/GD32VW55X_Wifi_BLE_SDK/GD32VW55x_RELEASE_V1.0.2/MSDK/util/src\debug_print.c ****     space -= 1;     // last byte for '\0'
 504              		.loc 1 241 5 is_stmt 1
 505              		.loc 1 241 11 is_stmt 0
 506 0024 FD16     		addi	a3,a3,-1
 507              	.LVL61:
 508              	.LBB19:
 242:C:/Users/stapi/OneDrive/Desktop/GD32VW553/V1_MQTT_OK/GD32VW55X_Wifi_BLE_SDK/GD32VW55x_RELEASE_V1.0.2/MSDK/util/src\debug_print.c **** 
 243:C:/Users/stapi/OneDrive/Desktop/GD32VW553/V1_MQTT_OK/GD32VW55X_Wifi_BLE_SDK/GD32VW55x_RELEASE_V1.0.2/MSDK/util/src\debug_print.c ****     for (; *format != 0; ++format) {
 244:C:/Users/stapi/OneDrive/Desktop/GD32VW553/V1_MQTT_OK/GD32VW55X_Wifi_BLE_SDK/GD32VW55x_RELEASE_V1.0.2/MSDK/util/src\debug_print.c ****         if (*format == '%') {
 245:C:/Users/stapi/OneDrive/Desktop/GD32VW553/V1_MQTT_OK/GD32VW55X_Wifi_BLE_SDK/GD32VW55x_RELEASE_V1.0.2/MSDK/util/src\debug_print.c ****             ++format;
 246:C:/Users/stapi/OneDrive/Desktop/GD32VW553/V1_MQTT_OK/GD32VW55X_Wifi_BLE_SDK/GD32VW55x_RELEASE_V1.0.2/MSDK/util/src\debug_print.c ****             width = pad = 0;
 247:C:/Users/stapi/OneDrive/Desktop/GD32VW553/V1_MQTT_OK/GD32VW55X_Wifi_BLE_SDK/GD32VW55x_RELEASE_V1.0.2/MSDK/util/src\debug_print.c **** 
 248:C:/Users/stapi/OneDrive/Desktop/GD32VW553/V1_MQTT_OK/GD32VW55X_Wifi_BLE_SDK/GD32VW55x_RELEASE_V1.0.2/MSDK/util/src\debug_print.c ****             if (*format == '\0') {
 249:C:/Users/stapi/OneDrive/Desktop/GD32VW553/V1_MQTT_OK/GD32VW55X_Wifi_BLE_SDK/GD32VW55x_RELEASE_V1.0.2/MSDK/util/src\debug_print.c ****                 break;
 250:C:/Users/stapi/OneDrive/Desktop/GD32VW553/V1_MQTT_OK/GD32VW55X_Wifi_BLE_SDK/GD32VW55x_RELEASE_V1.0.2/MSDK/util/src\debug_print.c ****             }
 251:C:/Users/stapi/OneDrive/Desktop/GD32VW553/V1_MQTT_OK/GD32VW55X_Wifi_BLE_SDK/GD32VW55x_RELEASE_V1.0.2/MSDK/util/src\debug_print.c **** 
 252:C:/Users/stapi/OneDrive/Desktop/GD32VW553/V1_MQTT_OK/GD32VW55X_Wifi_BLE_SDK/GD32VW55x_RELEASE_V1.0.2/MSDK/util/src\debug_print.c ****             if (*format == '%') {
 253:C:/Users/stapi/OneDrive/Desktop/GD32VW553/V1_MQTT_OK/GD32VW55X_Wifi_BLE_SDK/GD32VW55x_RELEASE_V1.0.2/MSDK/util/src\debug_print.c ****                 goto out;
 254:C:/Users/stapi/OneDrive/Desktop/GD32VW553/V1_MQTT_OK/GD32VW55X_Wifi_BLE_SDK/GD32VW55x_RELEASE_V1.0.2/MSDK/util/src\debug_print.c ****             }
 255:C:/Users/stapi/OneDrive/Desktop/GD32VW553/V1_MQTT_OK/GD32VW55X_Wifi_BLE_SDK/GD32VW55x_RELEASE_V1.0.2/MSDK/util/src\debug_print.c **** 
 256:C:/Users/stapi/OneDrive/Desktop/GD32VW553/V1_MQTT_OK/GD32VW55X_Wifi_BLE_SDK/GD32VW55x_RELEASE_V1.0.2/MSDK/util/src\debug_print.c ****             if (*format == '-') {
 257:C:/Users/stapi/OneDrive/Desktop/GD32VW553/V1_MQTT_OK/GD32VW55X_Wifi_BLE_SDK/GD32VW55x_RELEASE_V1.0.2/MSDK/util/src\debug_print.c ****                 ++format;
 258:C:/Users/stapi/OneDrive/Desktop/GD32VW553/V1_MQTT_OK/GD32VW55X_Wifi_BLE_SDK/GD32VW55x_RELEASE_V1.0.2/MSDK/util/src\debug_print.c ****                 pad = PAD_RIGHT;
 259:C:/Users/stapi/OneDrive/Desktop/GD32VW553/V1_MQTT_OK/GD32VW55X_Wifi_BLE_SDK/GD32VW55x_RELEASE_V1.0.2/MSDK/util/src\debug_print.c ****             }
 260:C:/Users/stapi/OneDrive/Desktop/GD32VW553/V1_MQTT_OK/GD32VW55X_Wifi_BLE_SDK/GD32VW55x_RELEASE_V1.0.2/MSDK/util/src\debug_print.c **** 
 261:C:/Users/stapi/OneDrive/Desktop/GD32VW553/V1_MQTT_OK/GD32VW55X_Wifi_BLE_SDK/GD32VW55x_RELEASE_V1.0.2/MSDK/util/src\debug_print.c ****             while (*format == '0') {
 262:C:/Users/stapi/OneDrive/Desktop/GD32VW553/V1_MQTT_OK/GD32VW55X_Wifi_BLE_SDK/GD32VW55x_RELEASE_V1.0.2/MSDK/util/src\debug_print.c ****                 ++format;
 263:C:/Users/stapi/OneDrive/Desktop/GD32VW553/V1_MQTT_OK/GD32VW55X_Wifi_BLE_SDK/GD32VW55x_RELEASE_V1.0.2/MSDK/util/src\debug_print.c ****                 pad |= PAD_ZERO;
 264:C:/Users/stapi/OneDrive/Desktop/GD32VW553/V1_MQTT_OK/GD32VW55X_Wifi_BLE_SDK/GD32VW55x_RELEASE_V1.0.2/MSDK/util/src\debug_print.c ****             }
 265:C:/Users/stapi/OneDrive/Desktop/GD32VW553/V1_MQTT_OK/GD32VW55X_Wifi_BLE_SDK/GD32VW55x_RELEASE_V1.0.2/MSDK/util/src\debug_print.c **** 
 266:C:/Users/stapi/OneDrive/Desktop/GD32VW553/V1_MQTT_OK/GD32VW55X_Wifi_BLE_SDK/GD32VW55x_RELEASE_V1.0.2/MSDK/util/src\debug_print.c ****             for ( ; *format >= '0' && *format <= '9'; ++format) {
 267:C:/Users/stapi/OneDrive/Desktop/GD32VW553/V1_MQTT_OK/GD32VW55X_Wifi_BLE_SDK/GD32VW55x_RELEASE_V1.0.2/MSDK/util/src\debug_print.c ****                 width *= 10;
 268:C:/Users/stapi/OneDrive/Desktop/GD32VW553/V1_MQTT_OK/GD32VW55X_Wifi_BLE_SDK/GD32VW55x_RELEASE_V1.0.2/MSDK/util/src\debug_print.c ****                 width += *format - '0';
 269:C:/Users/stapi/OneDrive/Desktop/GD32VW553/V1_MQTT_OK/GD32VW55X_Wifi_BLE_SDK/GD32VW55x_RELEASE_V1.0.2/MSDK/util/src\debug_print.c ****             }
 270:C:/Users/stapi/OneDrive/Desktop/GD32VW553/V1_MQTT_OK/GD32VW55X_Wifi_BLE_SDK/GD32VW55x_RELEASE_V1.0.2/MSDK/util/src\debug_print.c **** 
 271:C:/Users/stapi/OneDrive/Desktop/GD32VW553/V1_MQTT_OK/GD32VW55X_Wifi_BLE_SDK/GD32VW55x_RELEASE_V1.0.2/MSDK/util/src\debug_print.c ****             if (*format == 's') {
 272:C:/Users/stapi/OneDrive/Desktop/GD32VW553/V1_MQTT_OK/GD32VW55X_Wifi_BLE_SDK/GD32VW55x_RELEASE_V1.0.2/MSDK/util/src\debug_print.c ****                 register char *s = (char *)va_arg(args, int);
 273:C:/Users/stapi/OneDrive/Desktop/GD32VW553/V1_MQTT_OK/GD32VW55X_Wifi_BLE_SDK/GD32VW55x_RELEASE_V1.0.2/MSDK/util/src\debug_print.c ****                 pc += prints(out, s ? s : "(null)", width, pad, &space);
 509              		.loc 1 273 23
 510 0026 B70A0000 		lui	s5,%hi(.LC0)
 511              	.LBE19:
 241:C:/Users/stapi/OneDrive/Desktop/GD32VW553/V1_MQTT_OK/GD32VW55X_Wifi_BLE_SDK/GD32VW55x_RELEASE_V1.0.2/MSDK/util/src\debug_print.c **** 
 512              		.loc 1 241 11
 513 002a 36C6     		sw	a3,12(sp)
 243:C:/Users/stapi/OneDrive/Desktop/GD32VW553/V1_MQTT_OK/GD32VW55X_Wifi_BLE_SDK/GD32VW55x_RELEASE_V1.0.2/MSDK/util/src\debug_print.c ****         if (*format == '%') {
 514              		.loc 1 243 5 is_stmt 1
 234:C:/Users/stapi/OneDrive/Desktop/GD32VW553/V1_MQTT_OK/GD32VW55X_Wifi_BLE_SDK/GD32VW55x_RELEASE_V1.0.2/MSDK/util/src\debug_print.c ****     char scr[2];
 515              		.loc 1 234 18 is_stmt 0
 516 002c 0144     		li	s0,0
 244:C:/Users/stapi/OneDrive/Desktop/GD32VW553/V1_MQTT_OK/GD32VW55X_Wifi_BLE_SDK/GD32VW55x_RELEASE_V1.0.2/MSDK/util/src\debug_print.c ****             ++format;
 517              		.loc 1 244 12
 518 002e 930B5002 		li	s7,37
 256:C:/Users/stapi/OneDrive/Desktop/GD32VW553/V1_MQTT_OK/GD32VW55X_Wifi_BLE_SDK/GD32VW55x_RELEASE_V1.0.2/MSDK/util/src\debug_print.c ****                 ++format;
 519              		.loc 1 256 16
 520 0032 130CD002 		li	s8,45
 267:C:/Users/stapi/OneDrive/Desktop/GD32VW553/V1_MQTT_OK/GD32VW55X_Wifi_BLE_SDK/GD32VW55x_RELEASE_V1.0.2/MSDK/util/src\debug_print.c ****                 width += *format - '0';
 521              		.loc 1 267 23
 522 0036 A94C     		li	s9,10
 523              	.LBB20:
 524              		.loc 1 273 23
 525 0038 938A0A00 		addi	s5,s5,%lo(.LC0)
 526              	.LVL62:
 527              	.L54:
 528              	.LBE20:
 243:C:/Users/stapi/OneDrive/Desktop/GD32VW553/V1_MQTT_OK/GD32VW55X_Wifi_BLE_SDK/GD32VW55x_RELEASE_V1.0.2/MSDK/util/src\debug_print.c ****         if (*format == '%') {
 529              		.loc 1 243 12 is_stmt 1 discriminator 1
 530 003c 83870900 		lb	a5,0(s3)
 243:C:/Users/stapi/OneDrive/Desktop/GD32VW553/V1_MQTT_OK/GD32VW55X_Wifi_BLE_SDK/GD32VW55x_RELEASE_V1.0.2/MSDK/util/src\debug_print.c ****         if (*format == '%') {
 531              		.loc 1 243 5 is_stmt 0 discriminator 1
 532 0040 89EF     		bne	a5,zero,.L74
 533              	.LVL63:
 534              	.L56:
 274:C:/Users/stapi/OneDrive/Desktop/GD32VW553/V1_MQTT_OK/GD32VW55X_Wifi_BLE_SDK/GD32VW55x_RELEASE_V1.0.2/MSDK/util/src\debug_print.c ****                 continue;
 275:C:/Users/stapi/OneDrive/Desktop/GD32VW553/V1_MQTT_OK/GD32VW55X_Wifi_BLE_SDK/GD32VW55x_RELEASE_V1.0.2/MSDK/util/src\debug_print.c ****             }
 276:C:/Users/stapi/OneDrive/Desktop/GD32VW553/V1_MQTT_OK/GD32VW55X_Wifi_BLE_SDK/GD32VW55x_RELEASE_V1.0.2/MSDK/util/src\debug_print.c **** 
 277:C:/Users/stapi/OneDrive/Desktop/GD32VW553/V1_MQTT_OK/GD32VW55X_Wifi_BLE_SDK/GD32VW55x_RELEASE_V1.0.2/MSDK/util/src\debug_print.c ****             if (*format == 'd') {
 278:C:/Users/stapi/OneDrive/Desktop/GD32VW553/V1_MQTT_OK/GD32VW55X_Wifi_BLE_SDK/GD32VW55x_RELEASE_V1.0.2/MSDK/util/src\debug_print.c ****                 pc += printi(out, va_arg(args, int), 10, 1, width, pad, 'a', &space);
 279:C:/Users/stapi/OneDrive/Desktop/GD32VW553/V1_MQTT_OK/GD32VW55X_Wifi_BLE_SDK/GD32VW55x_RELEASE_V1.0.2/MSDK/util/src\debug_print.c ****                 continue;
 280:C:/Users/stapi/OneDrive/Desktop/GD32VW553/V1_MQTT_OK/GD32VW55X_Wifi_BLE_SDK/GD32VW55x_RELEASE_V1.0.2/MSDK/util/src\debug_print.c ****             }
 281:C:/Users/stapi/OneDrive/Desktop/GD32VW553/V1_MQTT_OK/GD32VW55X_Wifi_BLE_SDK/GD32VW55x_RELEASE_V1.0.2/MSDK/util/src\debug_print.c **** 
 282:C:/Users/stapi/OneDrive/Desktop/GD32VW553/V1_MQTT_OK/GD32VW55X_Wifi_BLE_SDK/GD32VW55x_RELEASE_V1.0.2/MSDK/util/src\debug_print.c ****             if (*format == 'p') {
 283:C:/Users/stapi/OneDrive/Desktop/GD32VW553/V1_MQTT_OK/GD32VW55X_Wifi_BLE_SDK/GD32VW55x_RELEASE_V1.0.2/MSDK/util/src\debug_print.c ****                 register unsigned char *addr;
 284:C:/Users/stapi/OneDrive/Desktop/GD32VW553/V1_MQTT_OK/GD32VW55X_Wifi_BLE_SDK/GD32VW55x_RELEASE_V1.0.2/MSDK/util/src\debug_print.c ****                 register unsigned char i;
 285:C:/Users/stapi/OneDrive/Desktop/GD32VW553/V1_MQTT_OK/GD32VW55X_Wifi_BLE_SDK/GD32VW55x_RELEASE_V1.0.2/MSDK/util/src\debug_print.c ****                 switch (*(++format)) {
 286:C:/Users/stapi/OneDrive/Desktop/GD32VW553/V1_MQTT_OK/GD32VW55X_Wifi_BLE_SDK/GD32VW55x_RELEASE_V1.0.2/MSDK/util/src\debug_print.c ****                 case 'M':
 287:C:/Users/stapi/OneDrive/Desktop/GD32VW553/V1_MQTT_OK/GD32VW55X_Wifi_BLE_SDK/GD32VW55x_RELEASE_V1.0.2/MSDK/util/src\debug_print.c ****                     width = 2;
 288:C:/Users/stapi/OneDrive/Desktop/GD32VW553/V1_MQTT_OK/GD32VW55X_Wifi_BLE_SDK/GD32VW55x_RELEASE_V1.0.2/MSDK/util/src\debug_print.c ****                     pad |= PAD_ZERO;
 289:C:/Users/stapi/OneDrive/Desktop/GD32VW553/V1_MQTT_OK/GD32VW55X_Wifi_BLE_SDK/GD32VW55x_RELEASE_V1.0.2/MSDK/util/src\debug_print.c ****                     addr = (unsigned char *)va_arg(args, int);
 290:C:/Users/stapi/OneDrive/Desktop/GD32VW553/V1_MQTT_OK/GD32VW55X_Wifi_BLE_SDK/GD32VW55x_RELEASE_V1.0.2/MSDK/util/src\debug_print.c ****                     for (i = 0; i < 5; i++) {
 291:C:/Users/stapi/OneDrive/Desktop/GD32VW553/V1_MQTT_OK/GD32VW55X_Wifi_BLE_SDK/GD32VW55x_RELEASE_V1.0.2/MSDK/util/src\debug_print.c ****                         pc += printi(out, addr[i], 16, 1, width, pad, 'a', &space);
 292:C:/Users/stapi/OneDrive/Desktop/GD32VW553/V1_MQTT_OK/GD32VW55X_Wifi_BLE_SDK/GD32VW55x_RELEASE_V1.0.2/MSDK/util/src\debug_print.c ****                         printchar(out, ':', &space);
 293:C:/Users/stapi/OneDrive/Desktop/GD32VW553/V1_MQTT_OK/GD32VW55X_Wifi_BLE_SDK/GD32VW55x_RELEASE_V1.0.2/MSDK/util/src\debug_print.c ****                         pc++;
 294:C:/Users/stapi/OneDrive/Desktop/GD32VW553/V1_MQTT_OK/GD32VW55X_Wifi_BLE_SDK/GD32VW55x_RELEASE_V1.0.2/MSDK/util/src\debug_print.c ****                     }
 295:C:/Users/stapi/OneDrive/Desktop/GD32VW553/V1_MQTT_OK/GD32VW55X_Wifi_BLE_SDK/GD32VW55x_RELEASE_V1.0.2/MSDK/util/src\debug_print.c ****                     pc += printi(out, addr[i], 16, 1, width, pad, 'a', &space);
 296:C:/Users/stapi/OneDrive/Desktop/GD32VW553/V1_MQTT_OK/GD32VW55X_Wifi_BLE_SDK/GD32VW55x_RELEASE_V1.0.2/MSDK/util/src\debug_print.c ****                     continue;
 297:C:/Users/stapi/OneDrive/Desktop/GD32VW553/V1_MQTT_OK/GD32VW55X_Wifi_BLE_SDK/GD32VW55x_RELEASE_V1.0.2/MSDK/util/src\debug_print.c ****                 case 'I':
 298:C:/Users/stapi/OneDrive/Desktop/GD32VW553/V1_MQTT_OK/GD32VW55X_Wifi_BLE_SDK/GD32VW55x_RELEASE_V1.0.2/MSDK/util/src\debug_print.c ****                     addr = (unsigned char *)va_arg(args, int);
 299:C:/Users/stapi/OneDrive/Desktop/GD32VW553/V1_MQTT_OK/GD32VW55X_Wifi_BLE_SDK/GD32VW55x_RELEASE_V1.0.2/MSDK/util/src\debug_print.c ****                     for (i = 0; i < 3; i++) {
 300:C:/Users/stapi/OneDrive/Desktop/GD32VW553/V1_MQTT_OK/GD32VW55X_Wifi_BLE_SDK/GD32VW55x_RELEASE_V1.0.2/MSDK/util/src\debug_print.c ****                         pc += printi(out, addr[i], 10, 1, width, pad, 'a', &space);
 301:C:/Users/stapi/OneDrive/Desktop/GD32VW553/V1_MQTT_OK/GD32VW55X_Wifi_BLE_SDK/GD32VW55x_RELEASE_V1.0.2/MSDK/util/src\debug_print.c ****                         printchar(out, '.', &space);
 302:C:/Users/stapi/OneDrive/Desktop/GD32VW553/V1_MQTT_OK/GD32VW55X_Wifi_BLE_SDK/GD32VW55x_RELEASE_V1.0.2/MSDK/util/src\debug_print.c ****                         pc++;
 303:C:/Users/stapi/OneDrive/Desktop/GD32VW553/V1_MQTT_OK/GD32VW55X_Wifi_BLE_SDK/GD32VW55x_RELEASE_V1.0.2/MSDK/util/src\debug_print.c ****                     }
 304:C:/Users/stapi/OneDrive/Desktop/GD32VW553/V1_MQTT_OK/GD32VW55X_Wifi_BLE_SDK/GD32VW55x_RELEASE_V1.0.2/MSDK/util/src\debug_print.c ****                     pc += printi(out, addr[i], 10, 1, width, pad, 'a', &space);
 305:C:/Users/stapi/OneDrive/Desktop/GD32VW553/V1_MQTT_OK/GD32VW55X_Wifi_BLE_SDK/GD32VW55x_RELEASE_V1.0.2/MSDK/util/src\debug_print.c ****                     continue;
 306:C:/Users/stapi/OneDrive/Desktop/GD32VW553/V1_MQTT_OK/GD32VW55X_Wifi_BLE_SDK/GD32VW55x_RELEASE_V1.0.2/MSDK/util/src\debug_print.c ****                 default:
 307:C:/Users/stapi/OneDrive/Desktop/GD32VW553/V1_MQTT_OK/GD32VW55X_Wifi_BLE_SDK/GD32VW55x_RELEASE_V1.0.2/MSDK/util/src\debug_print.c ****                     format--;
 308:C:/Users/stapi/OneDrive/Desktop/GD32VW553/V1_MQTT_OK/GD32VW55X_Wifi_BLE_SDK/GD32VW55x_RELEASE_V1.0.2/MSDK/util/src\debug_print.c ****                     pc += printi(out, va_arg(args, int), 16, 0, width, pad, 'a', &space);
 309:C:/Users/stapi/OneDrive/Desktop/GD32VW553/V1_MQTT_OK/GD32VW55X_Wifi_BLE_SDK/GD32VW55x_RELEASE_V1.0.2/MSDK/util/src\debug_print.c ****                     continue;
 310:C:/Users/stapi/OneDrive/Desktop/GD32VW553/V1_MQTT_OK/GD32VW55X_Wifi_BLE_SDK/GD32VW55x_RELEASE_V1.0.2/MSDK/util/src\debug_print.c ****                 }
 311:C:/Users/stapi/OneDrive/Desktop/GD32VW553/V1_MQTT_OK/GD32VW55X_Wifi_BLE_SDK/GD32VW55x_RELEASE_V1.0.2/MSDK/util/src\debug_print.c ****             }
 312:C:/Users/stapi/OneDrive/Desktop/GD32VW553/V1_MQTT_OK/GD32VW55X_Wifi_BLE_SDK/GD32VW55x_RELEASE_V1.0.2/MSDK/util/src\debug_print.c **** 
 313:C:/Users/stapi/OneDrive/Desktop/GD32VW553/V1_MQTT_OK/GD32VW55X_Wifi_BLE_SDK/GD32VW55x_RELEASE_V1.0.2/MSDK/util/src\debug_print.c ****             if ((*format == 'x')) {
 314:C:/Users/stapi/OneDrive/Desktop/GD32VW553/V1_MQTT_OK/GD32VW55X_Wifi_BLE_SDK/GD32VW55x_RELEASE_V1.0.2/MSDK/util/src\debug_print.c ****                 pc += printi(out, va_arg(args, int), 16, 0, width, pad, 'a', &space);
 315:C:/Users/stapi/OneDrive/Desktop/GD32VW553/V1_MQTT_OK/GD32VW55X_Wifi_BLE_SDK/GD32VW55x_RELEASE_V1.0.2/MSDK/util/src\debug_print.c ****                 continue;
 316:C:/Users/stapi/OneDrive/Desktop/GD32VW553/V1_MQTT_OK/GD32VW55X_Wifi_BLE_SDK/GD32VW55x_RELEASE_V1.0.2/MSDK/util/src\debug_print.c ****             }
 317:C:/Users/stapi/OneDrive/Desktop/GD32VW553/V1_MQTT_OK/GD32VW55X_Wifi_BLE_SDK/GD32VW55x_RELEASE_V1.0.2/MSDK/util/src\debug_print.c **** 
 318:C:/Users/stapi/OneDrive/Desktop/GD32VW553/V1_MQTT_OK/GD32VW55X_Wifi_BLE_SDK/GD32VW55x_RELEASE_V1.0.2/MSDK/util/src\debug_print.c ****             if (*format == 'X') {
 319:C:/Users/stapi/OneDrive/Desktop/GD32VW553/V1_MQTT_OK/GD32VW55X_Wifi_BLE_SDK/GD32VW55x_RELEASE_V1.0.2/MSDK/util/src\debug_print.c ****                 pc += printi(out, va_arg(args, int), 16, 0, width, pad, 'A', &space);
 320:C:/Users/stapi/OneDrive/Desktop/GD32VW553/V1_MQTT_OK/GD32VW55X_Wifi_BLE_SDK/GD32VW55x_RELEASE_V1.0.2/MSDK/util/src\debug_print.c ****                 continue;
 321:C:/Users/stapi/OneDrive/Desktop/GD32VW553/V1_MQTT_OK/GD32VW55X_Wifi_BLE_SDK/GD32VW55x_RELEASE_V1.0.2/MSDK/util/src\debug_print.c ****             }
 322:C:/Users/stapi/OneDrive/Desktop/GD32VW553/V1_MQTT_OK/GD32VW55X_Wifi_BLE_SDK/GD32VW55x_RELEASE_V1.0.2/MSDK/util/src\debug_print.c **** 
 323:C:/Users/stapi/OneDrive/Desktop/GD32VW553/V1_MQTT_OK/GD32VW55X_Wifi_BLE_SDK/GD32VW55x_RELEASE_V1.0.2/MSDK/util/src\debug_print.c ****             if (*format == 'u') {
 324:C:/Users/stapi/OneDrive/Desktop/GD32VW553/V1_MQTT_OK/GD32VW55X_Wifi_BLE_SDK/GD32VW55x_RELEASE_V1.0.2/MSDK/util/src\debug_print.c ****                 pc += printi(out, va_arg(args, int), 10, 0, width, pad, 'a', &space);
 325:C:/Users/stapi/OneDrive/Desktop/GD32VW553/V1_MQTT_OK/GD32VW55X_Wifi_BLE_SDK/GD32VW55x_RELEASE_V1.0.2/MSDK/util/src\debug_print.c ****                 continue;
 326:C:/Users/stapi/OneDrive/Desktop/GD32VW553/V1_MQTT_OK/GD32VW55X_Wifi_BLE_SDK/GD32VW55x_RELEASE_V1.0.2/MSDK/util/src\debug_print.c ****             }
 327:C:/Users/stapi/OneDrive/Desktop/GD32VW553/V1_MQTT_OK/GD32VW55X_Wifi_BLE_SDK/GD32VW55x_RELEASE_V1.0.2/MSDK/util/src\debug_print.c **** 
 328:C:/Users/stapi/OneDrive/Desktop/GD32VW553/V1_MQTT_OK/GD32VW55X_Wifi_BLE_SDK/GD32VW55x_RELEASE_V1.0.2/MSDK/util/src\debug_print.c ****             if (*format == 'c') {
 329:C:/Users/stapi/OneDrive/Desktop/GD32VW553/V1_MQTT_OK/GD32VW55X_Wifi_BLE_SDK/GD32VW55x_RELEASE_V1.0.2/MSDK/util/src\debug_print.c ****                 /* char are converted to int then pushed on the stack */
 330:C:/Users/stapi/OneDrive/Desktop/GD32VW553/V1_MQTT_OK/GD32VW55X_Wifi_BLE_SDK/GD32VW55x_RELEASE_V1.0.2/MSDK/util/src\debug_print.c ****                 scr[0] = (char)va_arg(args, int);
 331:C:/Users/stapi/OneDrive/Desktop/GD32VW553/V1_MQTT_OK/GD32VW55X_Wifi_BLE_SDK/GD32VW55x_RELEASE_V1.0.2/MSDK/util/src\debug_print.c ****                 scr[1] = '\0';
 332:C:/Users/stapi/OneDrive/Desktop/GD32VW553/V1_MQTT_OK/GD32VW55X_Wifi_BLE_SDK/GD32VW55x_RELEASE_V1.0.2/MSDK/util/src\debug_print.c ****                 pc += prints (out, scr, width, pad, &space);
 333:C:/Users/stapi/OneDrive/Desktop/GD32VW553/V1_MQTT_OK/GD32VW55X_Wifi_BLE_SDK/GD32VW55x_RELEASE_V1.0.2/MSDK/util/src\debug_print.c ****                 continue;
 334:C:/Users/stapi/OneDrive/Desktop/GD32VW553/V1_MQTT_OK/GD32VW55X_Wifi_BLE_SDK/GD32VW55x_RELEASE_V1.0.2/MSDK/util/src\debug_print.c ****             }
 335:C:/Users/stapi/OneDrive/Desktop/GD32VW553/V1_MQTT_OK/GD32VW55X_Wifi_BLE_SDK/GD32VW55x_RELEASE_V1.0.2/MSDK/util/src\debug_print.c ****         } else {
 336:C:/Users/stapi/OneDrive/Desktop/GD32VW553/V1_MQTT_OK/GD32VW55X_Wifi_BLE_SDK/GD32VW55x_RELEASE_V1.0.2/MSDK/util/src\debug_print.c **** out:
 337:C:/Users/stapi/OneDrive/Desktop/GD32VW553/V1_MQTT_OK/GD32VW55X_Wifi_BLE_SDK/GD32VW55x_RELEASE_V1.0.2/MSDK/util/src\debug_print.c ****             printchar(out, *format, &space);
 338:C:/Users/stapi/OneDrive/Desktop/GD32VW553/V1_MQTT_OK/GD32VW55X_Wifi_BLE_SDK/GD32VW55x_RELEASE_V1.0.2/MSDK/util/src\debug_print.c ****             ++pc;
 339:C:/Users/stapi/OneDrive/Desktop/GD32VW553/V1_MQTT_OK/GD32VW55X_Wifi_BLE_SDK/GD32VW55x_RELEASE_V1.0.2/MSDK/util/src\debug_print.c ****         }
 340:C:/Users/stapi/OneDrive/Desktop/GD32VW553/V1_MQTT_OK/GD32VW55X_Wifi_BLE_SDK/GD32VW55x_RELEASE_V1.0.2/MSDK/util/src\debug_print.c ****     }
 341:C:/Users/stapi/OneDrive/Desktop/GD32VW553/V1_MQTT_OK/GD32VW55X_Wifi_BLE_SDK/GD32VW55x_RELEASE_V1.0.2/MSDK/util/src\debug_print.c **** 
 342:C:/Users/stapi/OneDrive/Desktop/GD32VW553/V1_MQTT_OK/GD32VW55X_Wifi_BLE_SDK/GD32VW55x_RELEASE_V1.0.2/MSDK/util/src\debug_print.c ****     if (out) {
 535              		.loc 1 342 5 is_stmt 1
 536              		.loc 1 342 8 is_stmt 0
 537 0042 63060900 		beq	s2,zero,.L51
 343:C:/Users/stapi/OneDrive/Desktop/GD32VW553/V1_MQTT_OK/GD32VW55X_Wifi_BLE_SDK/GD32VW55x_RELEASE_V1.0.2/MSDK/util/src\debug_print.c ****         **out = '\0';
 538              		.loc 1 343 9 is_stmt 1
 539              		.loc 1 343 10 is_stmt 0
 540 0046 83270900 		lw	a5,0(s2)
 541              		.loc 1 343 15
 542 004a 23800700 		sb	zero,0(a5)
 543              	.LVL64:
 544              	.L51:
 344:C:/Users/stapi/OneDrive/Desktop/GD32VW553/V1_MQTT_OK/GD32VW55X_Wifi_BLE_SDK/GD32VW55x_RELEASE_V1.0.2/MSDK/util/src\debug_print.c ****     }
 345:C:/Users/stapi/OneDrive/Desktop/GD32VW553/V1_MQTT_OK/GD32VW55X_Wifi_BLE_SDK/GD32VW55x_RELEASE_V1.0.2/MSDK/util/src\debug_print.c **** 
 346:C:/Users/stapi/OneDrive/Desktop/GD32VW553/V1_MQTT_OK/GD32VW55X_Wifi_BLE_SDK/GD32VW55x_RELEASE_V1.0.2/MSDK/util/src\debug_print.c ****     return pc;
 347:C:/Users/stapi/OneDrive/Desktop/GD32VW553/V1_MQTT_OK/GD32VW55X_Wifi_BLE_SDK/GD32VW55x_RELEASE_V1.0.2/MSDK/util/src\debug_print.c **** }
 545              		.loc 1 347 1
 546 004e 2285     		mv	a0,s0
 547 0050 0561     		addi	sp,sp,32
 548              		.cfi_remember_state
 549              		.cfi_def_cfa_offset 0
 550 0052 17030000 		tail	__riscv_restore_12
 550      67000300 
 551              		.cfi_restore 27
 552              		.cfi_restore 26
 553              		.cfi_restore 25
 554              		.cfi_restore 24
 555              		.cfi_restore 23
 556              		.cfi_restore 22
 557              		.cfi_restore 21
 558              		.cfi_restore 20
 559              		.cfi_restore 19
 560              		.cfi_restore 18
 561              		.cfi_restore 9
 562              		.cfi_restore 8
 563              		.cfi_restore 1
 564              		.cfi_def_cfa_offset -64
 565              	.LVL65:
 566              	.L74:
 567              		.cfi_restore_state
 244:C:/Users/stapi/OneDrive/Desktop/GD32VW553/V1_MQTT_OK/GD32VW55X_Wifi_BLE_SDK/GD32VW55x_RELEASE_V1.0.2/MSDK/util/src\debug_print.c ****             ++format;
 568              		.loc 1 244 9 is_stmt 1
 244:C:/Users/stapi/OneDrive/Desktop/GD32VW553/V1_MQTT_OK/GD32VW55X_Wifi_BLE_SDK/GD32VW55x_RELEASE_V1.0.2/MSDK/util/src\debug_print.c ****             ++format;
 569              		.loc 1 244 12 is_stmt 0
 570 005a 639F7721 		bne	a5,s7,.L55
 245:C:/Users/stapi/OneDrive/Desktop/GD32VW553/V1_MQTT_OK/GD32VW55X_Wifi_BLE_SDK/GD32VW55x_RELEASE_V1.0.2/MSDK/util/src\debug_print.c ****             width = pad = 0;
 571              		.loc 1 245 13 is_stmt 1
 572              	.LVL66:
 246:C:/Users/stapi/OneDrive/Desktop/GD32VW553/V1_MQTT_OK/GD32VW55X_Wifi_BLE_SDK/GD32VW55x_RELEASE_V1.0.2/MSDK/util/src\debug_print.c **** 
 573              		.loc 1 246 13
 248:C:/Users/stapi/OneDrive/Desktop/GD32VW553/V1_MQTT_OK/GD32VW55X_Wifi_BLE_SDK/GD32VW55x_RELEASE_V1.0.2/MSDK/util/src\debug_print.c ****                 break;
 574              		.loc 1 248 13
 248:C:/Users/stapi/OneDrive/Desktop/GD32VW553/V1_MQTT_OK/GD32VW55X_Wifi_BLE_SDK/GD32VW55x_RELEASE_V1.0.2/MSDK/util/src\debug_print.c ****                 break;
 575              		.loc 1 248 17 is_stmt 0
 576 005e 83861900 		lb	a3,1(s3)
 248:C:/Users/stapi/OneDrive/Desktop/GD32VW553/V1_MQTT_OK/GD32VW55X_Wifi_BLE_SDK/GD32VW55x_RELEASE_V1.0.2/MSDK/util/src\debug_print.c ****                 break;
 577              		.loc 1 248 16
 578 0062 E5D2     		beq	a3,zero,.L56
 245:C:/Users/stapi/OneDrive/Desktop/GD32VW553/V1_MQTT_OK/GD32VW55X_Wifi_BLE_SDK/GD32VW55x_RELEASE_V1.0.2/MSDK/util/src\debug_print.c ****             width = pad = 0;
 579              		.loc 1 245 13
 580 0064 13871900 		addi	a4,s3,1
 252:C:/Users/stapi/OneDrive/Desktop/GD32VW553/V1_MQTT_OK/GD32VW55X_Wifi_BLE_SDK/GD32VW55x_RELEASE_V1.0.2/MSDK/util/src\debug_print.c ****                 goto out;
 581              		.loc 1 252 13 is_stmt 1
 252:C:/Users/stapi/OneDrive/Desktop/GD32VW553/V1_MQTT_OK/GD32VW55X_Wifi_BLE_SDK/GD32VW55x_RELEASE_V1.0.2/MSDK/util/src\debug_print.c ****                 goto out;
 582              		.loc 1 252 16 is_stmt 0
 583 0068 63877621 		beq	a3,s7,.L76
 256:C:/Users/stapi/OneDrive/Desktop/GD32VW553/V1_MQTT_OK/GD32VW55X_Wifi_BLE_SDK/GD32VW55x_RELEASE_V1.0.2/MSDK/util/src\debug_print.c ****                 ++format;
 584              		.loc 1 256 13 is_stmt 1
 246:C:/Users/stapi/OneDrive/Desktop/GD32VW553/V1_MQTT_OK/GD32VW55X_Wifi_BLE_SDK/GD32VW55x_RELEASE_V1.0.2/MSDK/util/src\debug_print.c **** 
 585              		.loc 1 246 25 is_stmt 0
 586 006c 8147     		li	a5,0
 256:C:/Users/stapi/OneDrive/Desktop/GD32VW553/V1_MQTT_OK/GD32VW55X_Wifi_BLE_SDK/GD32VW55x_RELEASE_V1.0.2/MSDK/util/src\debug_print.c ****                 ++format;
 587              		.loc 1 256 16
 588 006e 63958601 		bne	a3,s8,.L57
 257:C:/Users/stapi/OneDrive/Desktop/GD32VW553/V1_MQTT_OK/GD32VW55X_Wifi_BLE_SDK/GD32VW55x_RELEASE_V1.0.2/MSDK/util/src\debug_print.c ****                 pad = PAD_RIGHT;
 589              		.loc 1 257 17 is_stmt 1
 590 0072 13872900 		addi	a4,s3,2
 591              	.LVL67:
 258:C:/Users/stapi/OneDrive/Desktop/GD32VW553/V1_MQTT_OK/GD32VW55X_Wifi_BLE_SDK/GD32VW55x_RELEASE_V1.0.2/MSDK/util/src\debug_print.c ****             }
 592              		.loc 1 258 17
 258:C:/Users/stapi/OneDrive/Desktop/GD32VW553/V1_MQTT_OK/GD32VW55X_Wifi_BLE_SDK/GD32VW55x_RELEASE_V1.0.2/MSDK/util/src\debug_print.c ****             }
 593              		.loc 1 258 21 is_stmt 0
 594 0076 8547     		li	a5,1
 595              	.LVL68:
 596              	.L57:
 246:C:/Users/stapi/OneDrive/Desktop/GD32VW553/V1_MQTT_OK/GD32VW55X_Wifi_BLE_SDK/GD32VW55x_RELEASE_V1.0.2/MSDK/util/src\debug_print.c **** 
 597              		.loc 1 246 25
 598 0078 BA89     		mv	s3,a4
 261:C:/Users/stapi/OneDrive/Desktop/GD32VW553/V1_MQTT_OK/GD32VW55X_Wifi_BLE_SDK/GD32VW55x_RELEASE_V1.0.2/MSDK/util/src\debug_print.c ****                 ++format;
 599              		.loc 1 261 19
 600 007a 13070003 		li	a4,48
 601              	.L58:
 602              	.LVL69:
 261:C:/Users/stapi/OneDrive/Desktop/GD32VW553/V1_MQTT_OK/GD32VW55X_Wifi_BLE_SDK/GD32VW55x_RELEASE_V1.0.2/MSDK/util/src\debug_print.c ****                 ++format;
 603              		.loc 1 261 19 is_stmt 1
 262:C:/Users/stapi/OneDrive/Desktop/GD32VW553/V1_MQTT_OK/GD32VW55X_Wifi_BLE_SDK/GD32VW55x_RELEASE_V1.0.2/MSDK/util/src\debug_print.c ****                 pad |= PAD_ZERO;
 604              		.loc 1 262 17 is_stmt 0
 605 007e 13861900 		addi	a2,s3,1
 261:C:/Users/stapi/OneDrive/Desktop/GD32VW553/V1_MQTT_OK/GD32VW55X_Wifi_BLE_SDK/GD32VW55x_RELEASE_V1.0.2/MSDK/util/src\debug_print.c ****                 ++format;
 606              		.loc 1 261 19
 607 0082 83860900 		lb	a3,0(s3)
 608 0086 6381E604 		beq	a3,a4,.L59
 246:C:/Users/stapi/OneDrive/Desktop/GD32VW553/V1_MQTT_OK/GD32VW55X_Wifi_BLE_SDK/GD32VW55x_RELEASE_V1.0.2/MSDK/util/src\debug_print.c **** 
 609              		.loc 1 246 19
 610 008a 014A     		li	s4,0
 266:C:/Users/stapi/OneDrive/Desktop/GD32VW553/V1_MQTT_OK/GD32VW55X_Wifi_BLE_SDK/GD32VW55x_RELEASE_V1.0.2/MSDK/util/src\debug_print.c ****                 width *= 10;
 611              		.loc 1 266 13
 612 008c 2546     		li	a2,9
 613              	.LVL70:
 614              	.L60:
 266:C:/Users/stapi/OneDrive/Desktop/GD32VW553/V1_MQTT_OK/GD32VW55X_Wifi_BLE_SDK/GD32VW55x_RELEASE_V1.0.2/MSDK/util/src\debug_print.c ****                 width *= 10;
 615              		.loc 1 266 21 is_stmt 1 discriminator 1
 616 008e 03870900 		lb	a4,0(s3)
 266:C:/Users/stapi/OneDrive/Desktop/GD32VW553/V1_MQTT_OK/GD32VW55X_Wifi_BLE_SDK/GD32VW55x_RELEASE_V1.0.2/MSDK/util/src\debug_print.c ****                 width *= 10;
 617              		.loc 1 266 36 is_stmt 0 discriminator 1
 618 0092 930607FD 		addi	a3,a4,-48
 266:C:/Users/stapi/OneDrive/Desktop/GD32VW553/V1_MQTT_OK/GD32VW55X_Wifi_BLE_SDK/GD32VW55x_RELEASE_V1.0.2/MSDK/util/src\debug_print.c ****                 width *= 10;
 619              		.loc 1 266 13 discriminator 1
 620 0096 93F5F60F 		andi	a1,a3,0xff
 266:C:/Users/stapi/OneDrive/Desktop/GD32VW553/V1_MQTT_OK/GD32VW55X_Wifi_BLE_SDK/GD32VW55x_RELEASE_V1.0.2/MSDK/util/src\debug_print.c ****                 width *= 10;
 621              		.loc 1 266 55 discriminator 1
 622 009a 138B1900 		addi	s6,s3,1
 266:C:/Users/stapi/OneDrive/Desktop/GD32VW553/V1_MQTT_OK/GD32VW55X_Wifi_BLE_SDK/GD32VW55x_RELEASE_V1.0.2/MSDK/util/src\debug_print.c ****                 width *= 10;
 623              		.loc 1 266 13 discriminator 1
 624 009e 6379B602 		bleu	a1,a2,.L61
 271:C:/Users/stapi/OneDrive/Desktop/GD32VW553/V1_MQTT_OK/GD32VW55X_Wifi_BLE_SDK/GD32VW55x_RELEASE_V1.0.2/MSDK/util/src\debug_print.c ****                 register char *s = (char *)va_arg(args, int);
 625              		.loc 1 271 13 is_stmt 1
 271:C:/Users/stapi/OneDrive/Desktop/GD32VW553/V1_MQTT_OK/GD32VW55X_Wifi_BLE_SDK/GD32VW55x_RELEASE_V1.0.2/MSDK/util/src\debug_print.c ****                 register char *s = (char *)va_arg(args, int);
 626              		.loc 1 271 16 is_stmt 0
 627 00a2 93063007 		li	a3,115
 628 00a6 631CD702 		bne	a4,a3,.L62
 629              	.LBB21:
 272:C:/Users/stapi/OneDrive/Desktop/GD32VW553/V1_MQTT_OK/GD32VW55X_Wifi_BLE_SDK/GD32VW55x_RELEASE_V1.0.2/MSDK/util/src\debug_print.c ****                 pc += prints(out, s ? s : "(null)", width, pad, &space);
 630              		.loc 1 272 17 is_stmt 1
 272:C:/Users/stapi/OneDrive/Desktop/GD32VW553/V1_MQTT_OK/GD32VW55X_Wifi_BLE_SDK/GD32VW55x_RELEASE_V1.0.2/MSDK/util/src\debug_print.c ****                 pc += prints(out, s ? s : "(null)", width, pad, &space);
 631              		.loc 1 272 44 is_stmt 0
 632 00aa 9840     		lw	a4,0(s1)
 633 00ac 138B4400 		addi	s6,s1,4
 634              	.LVL71:
 273:C:/Users/stapi/OneDrive/Desktop/GD32VW553/V1_MQTT_OK/GD32VW55X_Wifi_BLE_SDK/GD32VW55x_RELEASE_V1.0.2/MSDK/util/src\debug_print.c ****                 continue;
 635              		.loc 1 273 17 is_stmt 1
 273:C:/Users/stapi/OneDrive/Desktop/GD32VW553/V1_MQTT_OK/GD32VW55X_Wifi_BLE_SDK/GD32VW55x_RELEASE_V1.0.2/MSDK/util/src\debug_print.c ****                 continue;
 636              		.loc 1 273 23 is_stmt 0
 637 00b0 D685     		mv	a1,s5
 638 00b2 11C3     		beq	a4,zero,.L63
 272:C:/Users/stapi/OneDrive/Desktop/GD32VW553/V1_MQTT_OK/GD32VW55X_Wifi_BLE_SDK/GD32VW55x_RELEASE_V1.0.2/MSDK/util/src\debug_print.c ****                 pc += prints(out, s ? s : "(null)", width, pad, &space);
 639              		.loc 1 272 32
 640 00b4 BA85     		mv	a1,a4
 641              	.L63:
 273:C:/Users/stapi/OneDrive/Desktop/GD32VW553/V1_MQTT_OK/GD32VW55X_Wifi_BLE_SDK/GD32VW55x_RELEASE_V1.0.2/MSDK/util/src\debug_print.c ****                 continue;
 642              		.loc 1 273 23 discriminator 4
 643 00b6 7800     		addi	a4,sp,12
 644              	.LVL72:
 645 00b8 BE86     		mv	a3,a5
 646 00ba 5286     		mv	a2,s4
 647              	.LVL73:
 648              	.L96:
 649              	.LBE21:
 332:C:/Users/stapi/OneDrive/Desktop/GD32VW553/V1_MQTT_OK/GD32VW55X_Wifi_BLE_SDK/GD32VW55x_RELEASE_V1.0.2/MSDK/util/src\debug_print.c ****                 continue;
 650              		.loc 1 332 23
 651 00bc 4A85     		mv	a0,s2
 652 00be 97000000 		call	prints
 652      E7800000 
 653              	.LVL74:
 654 00c6 3DA8     		j	.L91
 655              	.LVL75:
 656              	.L59:
 262:C:/Users/stapi/OneDrive/Desktop/GD32VW553/V1_MQTT_OK/GD32VW55X_Wifi_BLE_SDK/GD32VW55x_RELEASE_V1.0.2/MSDK/util/src\debug_print.c ****                 pad |= PAD_ZERO;
 657              		.loc 1 262 17 is_stmt 1
 263:C:/Users/stapi/OneDrive/Desktop/GD32VW553/V1_MQTT_OK/GD32VW55X_Wifi_BLE_SDK/GD32VW55x_RELEASE_V1.0.2/MSDK/util/src\debug_print.c ****             }
 658              		.loc 1 263 17
 263:C:/Users/stapi/OneDrive/Desktop/GD32VW553/V1_MQTT_OK/GD32VW55X_Wifi_BLE_SDK/GD32VW55x_RELEASE_V1.0.2/MSDK/util/src\debug_print.c ****             }
 659              		.loc 1 263 21 is_stmt 0
 660 00c8 93E72700 		ori	a5,a5,2
 661              	.LVL76:
 262:C:/Users/stapi/OneDrive/Desktop/GD32VW553/V1_MQTT_OK/GD32VW55X_Wifi_BLE_SDK/GD32VW55x_RELEASE_V1.0.2/MSDK/util/src\debug_print.c ****                 pad |= PAD_ZERO;
 662              		.loc 1 262 17
 663 00cc B289     		mv	s3,a2
 664 00ce 45BF     		j	.L58
 665              	.LVL77:
 666              	.L61:
 267:C:/Users/stapi/OneDrive/Desktop/GD32VW553/V1_MQTT_OK/GD32VW55X_Wifi_BLE_SDK/GD32VW55x_RELEASE_V1.0.2/MSDK/util/src\debug_print.c ****                 width += *format - '0';
 667              		.loc 1 267 17 is_stmt 1 discriminator 2
 268:C:/Users/stapi/OneDrive/Desktop/GD32VW553/V1_MQTT_OK/GD32VW55X_Wifi_BLE_SDK/GD32VW55x_RELEASE_V1.0.2/MSDK/util/src\debug_print.c ****             }
 668              		.loc 1 268 17 discriminator 2
 268:C:/Users/stapi/OneDrive/Desktop/GD32VW553/V1_MQTT_OK/GD32VW55X_Wifi_BLE_SDK/GD32VW55x_RELEASE_V1.0.2/MSDK/util/src\debug_print.c ****             }
 669              		.loc 1 268 34 is_stmt 0 discriminator 2
 670 00d0 93964660 		sext.b	a3,a3
 266:C:/Users/stapi/OneDrive/Desktop/GD32VW553/V1_MQTT_OK/GD32VW55X_Wifi_BLE_SDK/GD32VW55x_RELEASE_V1.0.2/MSDK/util/src\debug_print.c ****                 width *= 10;
 671              		.loc 1 266 55 discriminator 2
 672 00d4 DA89     		mv	s3,s6
 673              	.LVL78:
 268:C:/Users/stapi/OneDrive/Desktop/GD32VW553/V1_MQTT_OK/GD32VW55X_Wifi_BLE_SDK/GD32VW55x_RELEASE_V1.0.2/MSDK/util/src\debug_print.c ****             }
 674              		.loc 1 268 23 discriminator 2
 675 00d6 FF169AC5 		maddr32	a3, s4, s9
 676 00da 368A     		mv	s4,a3
 677              	.LVL79:
 266:C:/Users/stapi/OneDrive/Desktop/GD32VW553/V1_MQTT_OK/GD32VW55X_Wifi_BLE_SDK/GD32VW55x_RELEASE_V1.0.2/MSDK/util/src\debug_print.c ****                 width *= 10;
 678              		.loc 1 266 55 is_stmt 1 discriminator 2
 679 00dc 4DBF     		j	.L60
 680              	.LVL80:
 681              	.L62:
 277:C:/Users/stapi/OneDrive/Desktop/GD32VW553/V1_MQTT_OK/GD32VW55X_Wifi_BLE_SDK/GD32VW55x_RELEASE_V1.0.2/MSDK/util/src\debug_print.c ****                 pc += printi(out, va_arg(args, int), 10, 1, width, pad, 'a', &space);
 682              		.loc 1 277 13
 277:C:/Users/stapi/OneDrive/Desktop/GD32VW553/V1_MQTT_OK/GD32VW55X_Wifi_BLE_SDK/GD32VW55x_RELEASE_V1.0.2/MSDK/util/src\debug_print.c ****                 pc += printi(out, va_arg(args, int), 10, 1, width, pad, 'a', &space);
 683              		.loc 1 277 16 is_stmt 0
 684 00de 93064006 		li	a3,100
 685 00e2 6315D702 		bne	a4,a3,.L65
 278:C:/Users/stapi/OneDrive/Desktop/GD32VW553/V1_MQTT_OK/GD32VW55X_Wifi_BLE_SDK/GD32VW55x_RELEASE_V1.0.2/MSDK/util/src\debug_print.c ****                 continue;
 686              		.loc 1 278 17 is_stmt 1
 278:C:/Users/stapi/OneDrive/Desktop/GD32VW553/V1_MQTT_OK/GD32VW55X_Wifi_BLE_SDK/GD32VW55x_RELEASE_V1.0.2/MSDK/util/src\debug_print.c ****                 continue;
 687              		.loc 1 278 23 is_stmt 0
 688 00e6 138B4400 		addi	s6,s1,4
 689              	.LVL81:
 690 00ea 9308C100 		addi	a7,sp,12
 691 00ee 13081006 		li	a6,97
 692 00f2 5287     		mv	a4,s4
 693 00f4 8546     		li	a3,1
 694              	.LVL82:
 695              	.L93:
 696 00f6 2946     		li	a2,10
 697              	.L94:
 698 00f8 8C40     		lw	a1,0(s1)
 699 00fa 4A85     		mv	a0,s2
 700 00fc 97000000 		call	printi
 700      E7800000 
 701              	.LVL83:
 702              	.L91:
 278:C:/Users/stapi/OneDrive/Desktop/GD32VW553/V1_MQTT_OK/GD32VW55X_Wifi_BLE_SDK/GD32VW55x_RELEASE_V1.0.2/MSDK/util/src\debug_print.c ****                 continue;
 703              		.loc 1 278 20
 704 0104 2A94     		add	s0,s0,a0
 705              	.LVL84:
 279:C:/Users/stapi/OneDrive/Desktop/GD32VW553/V1_MQTT_OK/GD32VW55X_Wifi_BLE_SDK/GD32VW55x_RELEASE_V1.0.2/MSDK/util/src\debug_print.c ****             }
 706              		.loc 1 279 17 is_stmt 1
 278:C:/Users/stapi/OneDrive/Desktop/GD32VW553/V1_MQTT_OK/GD32VW55X_Wifi_BLE_SDK/GD32VW55x_RELEASE_V1.0.2/MSDK/util/src\debug_print.c ****                 continue;
 707              		.loc 1 278 23 is_stmt 0
 708 0106 DA84     		mv	s1,s6
 709              	.LVL85:
 710              	.L64:
 243:C:/Users/stapi/OneDrive/Desktop/GD32VW553/V1_MQTT_OK/GD32VW55X_Wifi_BLE_SDK/GD32VW55x_RELEASE_V1.0.2/MSDK/util/src\debug_print.c ****         if (*format == '%') {
 711              		.loc 1 243 26 is_stmt 1
 712 0108 8509     		addi	s3,s3,1
 713              	.LVL86:
 714 010a 0DBF     		j	.L54
 715              	.LVL87:
 716              	.L65:
 282:C:/Users/stapi/OneDrive/Desktop/GD32VW553/V1_MQTT_OK/GD32VW55X_Wifi_BLE_SDK/GD32VW55x_RELEASE_V1.0.2/MSDK/util/src\debug_print.c ****                 register unsigned char *addr;
 717              		.loc 1 282 13
 282:C:/Users/stapi/OneDrive/Desktop/GD32VW553/V1_MQTT_OK/GD32VW55X_Wifi_BLE_SDK/GD32VW55x_RELEASE_V1.0.2/MSDK/util/src\debug_print.c ****                 register unsigned char *addr;
 718              		.loc 1 282 16 is_stmt 0
 719 010c 93060007 		li	a3,112
 720 0110 631DD70E 		bne	a4,a3,.L66
 721              	.LBB22:
 283:C:/Users/stapi/OneDrive/Desktop/GD32VW553/V1_MQTT_OK/GD32VW55X_Wifi_BLE_SDK/GD32VW55x_RELEASE_V1.0.2/MSDK/util/src\debug_print.c ****                 register unsigned char i;
 722              		.loc 1 283 17 is_stmt 1
 284:C:/Users/stapi/OneDrive/Desktop/GD32VW553/V1_MQTT_OK/GD32VW55X_Wifi_BLE_SDK/GD32VW55x_RELEASE_V1.0.2/MSDK/util/src\debug_print.c ****                 switch (*(++format)) {
 723              		.loc 1 284 17
 285:C:/Users/stapi/OneDrive/Desktop/GD32VW553/V1_MQTT_OK/GD32VW55X_Wifi_BLE_SDK/GD32VW55x_RELEASE_V1.0.2/MSDK/util/src\debug_print.c ****                 case 'M':
 724              		.loc 1 285 17
 725              	.LVL88:
 726 0114 93069004 		li	a3,73
 727              	.LBE22:
 728              	.LBB23:
 272:C:/Users/stapi/OneDrive/Desktop/GD32VW553/V1_MQTT_OK/GD32VW55X_Wifi_BLE_SDK/GD32VW55x_RELEASE_V1.0.2/MSDK/util/src\debug_print.c ****                 pc += prints(out, s ? s : "(null)", width, pad, &space);
 729              		.loc 1 272 44 is_stmt 0
 730 0118 03AD0400 		lw	s10,0(s1)
 731              	.LBE23:
 732              	.LBB24:
 285:C:/Users/stapi/OneDrive/Desktop/GD32VW553/V1_MQTT_OK/GD32VW55X_Wifi_BLE_SDK/GD32VW55x_RELEASE_V1.0.2/MSDK/util/src\debug_print.c ****                 case 'M':
 733              		.loc 1 285 25
 734 011c 03871900 		lb	a4,1(s3)
 735              	.LBE24:
 736              	.LBB25:
 272:C:/Users/stapi/OneDrive/Desktop/GD32VW553/V1_MQTT_OK/GD32VW55X_Wifi_BLE_SDK/GD32VW55x_RELEASE_V1.0.2/MSDK/util/src\debug_print.c ****                 pc += prints(out, s ? s : "(null)", width, pad, &space);
 737              		.loc 1 272 44
 738 0120 9104     		addi	s1,s1,4
 739              	.LVL89:
 740              	.LBE25:
 741              	.LBB26:
 285:C:/Users/stapi/OneDrive/Desktop/GD32VW553/V1_MQTT_OK/GD32VW55X_Wifi_BLE_SDK/GD32VW55x_RELEASE_V1.0.2/MSDK/util/src\debug_print.c ****                 case 'M':
 742              		.loc 1 285 17
 743 0122 630AD706 		beq	a4,a3,.L67
 744 0126 9306D004 		li	a3,77
 745 012a 6311D70C 		bne	a4,a3,.L68
 287:C:/Users/stapi/OneDrive/Desktop/GD32VW553/V1_MQTT_OK/GD32VW55X_Wifi_BLE_SDK/GD32VW55x_RELEASE_V1.0.2/MSDK/util/src\debug_print.c ****                     pad |= PAD_ZERO;
 746              		.loc 1 287 21 is_stmt 1
 747              	.LVL90:
 288:C:/Users/stapi/OneDrive/Desktop/GD32VW553/V1_MQTT_OK/GD32VW55X_Wifi_BLE_SDK/GD32VW55x_RELEASE_V1.0.2/MSDK/util/src\debug_print.c ****                     addr = (unsigned char *)va_arg(args, int);
 748              		.loc 1 288 21
 288:C:/Users/stapi/OneDrive/Desktop/GD32VW553/V1_MQTT_OK/GD32VW55X_Wifi_BLE_SDK/GD32VW55x_RELEASE_V1.0.2/MSDK/util/src\debug_print.c ****                     addr = (unsigned char *)va_arg(args, int);
 749              		.loc 1 288 25 is_stmt 0
 750 012e 93E72700 		ori	a5,a5,2
 751              	.LVL91:
 289:C:/Users/stapi/OneDrive/Desktop/GD32VW553/V1_MQTT_OK/GD32VW55X_Wifi_BLE_SDK/GD32VW55x_RELEASE_V1.0.2/MSDK/util/src\debug_print.c ****                     for (i = 0; i < 5; i++) {
 752              		.loc 1 289 21 is_stmt 1
 290:C:/Users/stapi/OneDrive/Desktop/GD32VW553/V1_MQTT_OK/GD32VW55X_Wifi_BLE_SDK/GD32VW55x_RELEASE_V1.0.2/MSDK/util/src\debug_print.c ****                         pc += printi(out, addr[i], 16, 1, width, pad, 'a', &space);
 753              		.loc 1 290 21
 290:C:/Users/stapi/OneDrive/Desktop/GD32VW553/V1_MQTT_OK/GD32VW55X_Wifi_BLE_SDK/GD32VW55x_RELEASE_V1.0.2/MSDK/util/src\debug_print.c ****                         pc += printi(out, addr[i], 16, 1, width, pad, 'a', &space);
 754              		.loc 1 290 33
 289:C:/Users/stapi/OneDrive/Desktop/GD32VW553/V1_MQTT_OK/GD32VW55X_Wifi_BLE_SDK/GD32VW55x_RELEASE_V1.0.2/MSDK/util/src\debug_print.c ****                     for (i = 0; i < 5; i++) {
 755              		.loc 1 289 26 is_stmt 0
 756 0132 8149     		li	s3,0
 757              	.LVL92:
 290:C:/Users/stapi/OneDrive/Desktop/GD32VW553/V1_MQTT_OK/GD32VW55X_Wifi_BLE_SDK/GD32VW55x_RELEASE_V1.0.2/MSDK/util/src\debug_print.c ****                         pc += printi(out, addr[i], 16, 1, width, pad, 'a', &space);
 758              		.loc 1 290 21
 759 0134 154A     		li	s4,5
 760              	.LVL93:
 761              	.L69:
 291:C:/Users/stapi/OneDrive/Desktop/GD32VW553/V1_MQTT_OK/GD32VW55X_Wifi_BLE_SDK/GD32VW55x_RELEASE_V1.0.2/MSDK/util/src\debug_print.c ****                         printchar(out, ':', &space);
 762              		.loc 1 291 25 is_stmt 1 discriminator 3
 291:C:/Users/stapi/OneDrive/Desktop/GD32VW553/V1_MQTT_OK/GD32VW55X_Wifi_BLE_SDK/GD32VW55x_RELEASE_V1.0.2/MSDK/util/src\debug_print.c ****                         printchar(out, ':', &space);
 763              		.loc 1 291 47 is_stmt 0 discriminator 3
 764 0136 B3053D01 		add	a1,s10,s3
 291:C:/Users/stapi/OneDrive/Desktop/GD32VW553/V1_MQTT_OK/GD32VW55X_Wifi_BLE_SDK/GD32VW55x_RELEASE_V1.0.2/MSDK/util/src\debug_print.c ****                         printchar(out, ':', &space);
 765              		.loc 1 291 31 discriminator 3
 766 013a 83C50500 		lbu	a1,0(a1)
 767 013e 9308C100 		addi	a7,sp,12
 768 0142 13081006 		li	a6,97
 769 0146 0947     		li	a4,2
 770 0148 8546     		li	a3,1
 771 014a 4146     		li	a2,16
 772 014c 4A85     		mv	a0,s2
 773 014e 3EC4     		sw	a5,8(sp)
 774 0150 97000000 		call	printi
 774      E7800000 
 775              	.LVL94:
 291:C:/Users/stapi/OneDrive/Desktop/GD32VW553/V1_MQTT_OK/GD32VW55X_Wifi_BLE_SDK/GD32VW55x_RELEASE_V1.0.2/MSDK/util/src\debug_print.c ****                         printchar(out, ':', &space);
 776              		.loc 1 291 28 discriminator 3
 777 0158 2A94     		add	s0,a0,s0
 778              	.LVL95:
 292:C:/Users/stapi/OneDrive/Desktop/GD32VW553/V1_MQTT_OK/GD32VW55X_Wifi_BLE_SDK/GD32VW55x_RELEASE_V1.0.2/MSDK/util/src\debug_print.c ****                         pc++;
 779              		.loc 1 292 25 is_stmt 1 discriminator 3
 780 015a 7000     		addi	a2,sp,12
 781 015c 9305A003 		li	a1,58
 782 0160 4A85     		mv	a0,s2
 783 0162 97000000 		call	printchar
 783      E7800000 
 784              	.LVL96:
 293:C:/Users/stapi/OneDrive/Desktop/GD32VW553/V1_MQTT_OK/GD32VW55X_Wifi_BLE_SDK/GD32VW55x_RELEASE_V1.0.2/MSDK/util/src\debug_print.c ****                     }
 785              		.loc 1 293 25 discriminator 3
 290:C:/Users/stapi/OneDrive/Desktop/GD32VW553/V1_MQTT_OK/GD32VW55X_Wifi_BLE_SDK/GD32VW55x_RELEASE_V1.0.2/MSDK/util/src\debug_print.c ****                         pc += printi(out, addr[i], 16, 1, width, pad, 'a', &space);
 786              		.loc 1 290 21 is_stmt 0 discriminator 3
 787 016a 8509     		addi	s3,s3,1
 788              	.LVL97:
 789 016c A247     		lw	a5,8(sp)
 293:C:/Users/stapi/OneDrive/Desktop/GD32VW553/V1_MQTT_OK/GD32VW55X_Wifi_BLE_SDK/GD32VW55x_RELEASE_V1.0.2/MSDK/util/src\debug_print.c ****                     }
 790              		.loc 1 293 27 discriminator 3
 791 016e 0504     		addi	s0,s0,1
 792              	.LVL98:
 290:C:/Users/stapi/OneDrive/Desktop/GD32VW553/V1_MQTT_OK/GD32VW55X_Wifi_BLE_SDK/GD32VW55x_RELEASE_V1.0.2/MSDK/util/src\debug_print.c ****                         pc += printi(out, addr[i], 16, 1, width, pad, 'a', &space);
 793              		.loc 1 290 40 is_stmt 1 discriminator 3
 290:C:/Users/stapi/OneDrive/Desktop/GD32VW553/V1_MQTT_OK/GD32VW55X_Wifi_BLE_SDK/GD32VW55x_RELEASE_V1.0.2/MSDK/util/src\debug_print.c ****                         pc += printi(out, addr[i], 16, 1, width, pad, 'a', &space);
 794              		.loc 1 290 33 discriminator 3
 290:C:/Users/stapi/OneDrive/Desktop/GD32VW553/V1_MQTT_OK/GD32VW55X_Wifi_BLE_SDK/GD32VW55x_RELEASE_V1.0.2/MSDK/util/src\debug_print.c ****                         pc += printi(out, addr[i], 16, 1, width, pad, 'a', &space);
 795              		.loc 1 290 21 is_stmt 0 discriminator 3
 796 0170 E39349FD 		bne	s3,s4,.L69
 295:C:/Users/stapi/OneDrive/Desktop/GD32VW553/V1_MQTT_OK/GD32VW55X_Wifi_BLE_SDK/GD32VW55x_RELEASE_V1.0.2/MSDK/util/src\debug_print.c ****                     continue;
 797              		.loc 1 295 21 is_stmt 1
 295:C:/Users/stapi/OneDrive/Desktop/GD32VW553/V1_MQTT_OK/GD32VW55X_Wifi_BLE_SDK/GD32VW55x_RELEASE_V1.0.2/MSDK/util/src\debug_print.c ****                     continue;
 798              		.loc 1 295 27 is_stmt 0
 799 0174 83455D00 		lbu	a1,5(s10)
 800 0178 9308C100 		addi	a7,sp,12
 801 017c 13081006 		li	a6,97
 802 0180 0947     		li	a4,2
 803 0182 8546     		li	a3,1
 804 0184 4146     		li	a2,16
 805              	.LVL99:
 806              	.L92:
 304:C:/Users/stapi/OneDrive/Desktop/GD32VW553/V1_MQTT_OK/GD32VW55X_Wifi_BLE_SDK/GD32VW55x_RELEASE_V1.0.2/MSDK/util/src\debug_print.c ****                     continue;
 807              		.loc 1 304 27
 808 0186 4A85     		mv	a0,s2
 809 0188 97000000 		call	printi
 809      E7800000 
 810              	.LVL100:
 304:C:/Users/stapi/OneDrive/Desktop/GD32VW553/V1_MQTT_OK/GD32VW55X_Wifi_BLE_SDK/GD32VW55x_RELEASE_V1.0.2/MSDK/util/src\debug_print.c ****                     continue;
 811              		.loc 1 304 24
 812 0190 2A94     		add	s0,s0,a0
 813              	.LVL101:
 305:C:/Users/stapi/OneDrive/Desktop/GD32VW553/V1_MQTT_OK/GD32VW55X_Wifi_BLE_SDK/GD32VW55x_RELEASE_V1.0.2/MSDK/util/src\debug_print.c ****                 default:
 814              		.loc 1 305 21 is_stmt 1
 815              	.LBE26:
 266:C:/Users/stapi/OneDrive/Desktop/GD32VW553/V1_MQTT_OK/GD32VW55X_Wifi_BLE_SDK/GD32VW55x_RELEASE_V1.0.2/MSDK/util/src\debug_print.c ****                 width *= 10;
 816              		.loc 1 266 55 is_stmt 0
 817 0192 DA89     		mv	s3,s6
 818              	.LBB27:
 305:C:/Users/stapi/OneDrive/Desktop/GD32VW553/V1_MQTT_OK/GD32VW55X_Wifi_BLE_SDK/GD32VW55x_RELEASE_V1.0.2/MSDK/util/src\debug_print.c ****                 default:
 819              		.loc 1 305 21
 820 0194 95BF     		j	.L64
 821              	.LVL102:
 822              	.L67:
 298:C:/Users/stapi/OneDrive/Desktop/GD32VW553/V1_MQTT_OK/GD32VW55X_Wifi_BLE_SDK/GD32VW55x_RELEASE_V1.0.2/MSDK/util/src\debug_print.c ****                     for (i = 0; i < 3; i++) {
 823              		.loc 1 298 21 is_stmt 1
 299:C:/Users/stapi/OneDrive/Desktop/GD32VW553/V1_MQTT_OK/GD32VW55X_Wifi_BLE_SDK/GD32VW55x_RELEASE_V1.0.2/MSDK/util/src\debug_print.c ****                         pc += printi(out, addr[i], 10, 1, width, pad, 'a', &space);
 824              		.loc 1 299 21
 299:C:/Users/stapi/OneDrive/Desktop/GD32VW553/V1_MQTT_OK/GD32VW55X_Wifi_BLE_SDK/GD32VW55x_RELEASE_V1.0.2/MSDK/util/src\debug_print.c ****                         pc += printi(out, addr[i], 10, 1, width, pad, 'a', &space);
 825              		.loc 1 299 33
 298:C:/Users/stapi/OneDrive/Desktop/GD32VW553/V1_MQTT_OK/GD32VW55X_Wifi_BLE_SDK/GD32VW55x_RELEASE_V1.0.2/MSDK/util/src\debug_print.c ****                     for (i = 0; i < 3; i++) {
 826              		.loc 1 298 26 is_stmt 0
 827 0196 8149     		li	s3,0
 828              	.LVL103:
 299:C:/Users/stapi/OneDrive/Desktop/GD32VW553/V1_MQTT_OK/GD32VW55X_Wifi_BLE_SDK/GD32VW55x_RELEASE_V1.0.2/MSDK/util/src\debug_print.c ****                         pc += printi(out, addr[i], 10, 1, width, pad, 'a', &space);
 829              		.loc 1 299 21
 830 0198 8D4D     		li	s11,3
 831              	.LVL104:
 832              	.L70:
 300:C:/Users/stapi/OneDrive/Desktop/GD32VW553/V1_MQTT_OK/GD32VW55X_Wifi_BLE_SDK/GD32VW55x_RELEASE_V1.0.2/MSDK/util/src\debug_print.c ****                         printchar(out, '.', &space);
 833              		.loc 1 300 25 is_stmt 1 discriminator 3
 300:C:/Users/stapi/OneDrive/Desktop/GD32VW553/V1_MQTT_OK/GD32VW55X_Wifi_BLE_SDK/GD32VW55x_RELEASE_V1.0.2/MSDK/util/src\debug_print.c ****                         printchar(out, '.', &space);
 834              		.loc 1 300 47 is_stmt 0 discriminator 3
 835 019a B3053D01 		add	a1,s10,s3
 300:C:/Users/stapi/OneDrive/Desktop/GD32VW553/V1_MQTT_OK/GD32VW55X_Wifi_BLE_SDK/GD32VW55x_RELEASE_V1.0.2/MSDK/util/src\debug_print.c ****                         printchar(out, '.', &space);
 836              		.loc 1 300 31 discriminator 3
 837 019e 83C50500 		lbu	a1,0(a1)
 838 01a2 9308C100 		addi	a7,sp,12
 839 01a6 13081006 		li	a6,97
 840 01aa 5287     		mv	a4,s4
 841 01ac 8546     		li	a3,1
 842 01ae 2946     		li	a2,10
 843 01b0 4A85     		mv	a0,s2
 844 01b2 3EC4     		sw	a5,8(sp)
 845 01b4 97000000 		call	printi
 845      E7800000 
 846              	.LVL105:
 300:C:/Users/stapi/OneDrive/Desktop/GD32VW553/V1_MQTT_OK/GD32VW55X_Wifi_BLE_SDK/GD32VW55x_RELEASE_V1.0.2/MSDK/util/src\debug_print.c ****                         printchar(out, '.', &space);
 847              		.loc 1 300 28 discriminator 3
 848 01bc 2A94     		add	s0,a0,s0
 849              	.LVL106:
 301:C:/Users/stapi/OneDrive/Desktop/GD32VW553/V1_MQTT_OK/GD32VW55X_Wifi_BLE_SDK/GD32VW55x_RELEASE_V1.0.2/MSDK/util/src\debug_print.c ****                         pc++;
 850              		.loc 1 301 25 is_stmt 1 discriminator 3
 851 01be 7000     		addi	a2,sp,12
 852 01c0 9305E002 		li	a1,46
 853 01c4 4A85     		mv	a0,s2
 854 01c6 97000000 		call	printchar
 854      E7800000 
 855              	.LVL107:
 302:C:/Users/stapi/OneDrive/Desktop/GD32VW553/V1_MQTT_OK/GD32VW55X_Wifi_BLE_SDK/GD32VW55x_RELEASE_V1.0.2/MSDK/util/src\debug_print.c ****                     }
 856              		.loc 1 302 25 discriminator 3
 299:C:/Users/stapi/OneDrive/Desktop/GD32VW553/V1_MQTT_OK/GD32VW55X_Wifi_BLE_SDK/GD32VW55x_RELEASE_V1.0.2/MSDK/util/src\debug_print.c ****                         pc += printi(out, addr[i], 10, 1, width, pad, 'a', &space);
 857              		.loc 1 299 21 is_stmt 0 discriminator 3
 858 01ce 8509     		addi	s3,s3,1
 859              	.LVL108:
 860 01d0 A247     		lw	a5,8(sp)
 302:C:/Users/stapi/OneDrive/Desktop/GD32VW553/V1_MQTT_OK/GD32VW55X_Wifi_BLE_SDK/GD32VW55x_RELEASE_V1.0.2/MSDK/util/src\debug_print.c ****                     }
 861              		.loc 1 302 27 discriminator 3
 862 01d2 0504     		addi	s0,s0,1
 863              	.LVL109:
 299:C:/Users/stapi/OneDrive/Desktop/GD32VW553/V1_MQTT_OK/GD32VW55X_Wifi_BLE_SDK/GD32VW55x_RELEASE_V1.0.2/MSDK/util/src\debug_print.c ****                         pc += printi(out, addr[i], 10, 1, width, pad, 'a', &space);
 864              		.loc 1 299 40 is_stmt 1 discriminator 3
 299:C:/Users/stapi/OneDrive/Desktop/GD32VW553/V1_MQTT_OK/GD32VW55X_Wifi_BLE_SDK/GD32VW55x_RELEASE_V1.0.2/MSDK/util/src\debug_print.c ****                         pc += printi(out, addr[i], 10, 1, width, pad, 'a', &space);
 865              		.loc 1 299 33 discriminator 3
 299:C:/Users/stapi/OneDrive/Desktop/GD32VW553/V1_MQTT_OK/GD32VW55X_Wifi_BLE_SDK/GD32VW55x_RELEASE_V1.0.2/MSDK/util/src\debug_print.c ****                         pc += printi(out, addr[i], 10, 1, width, pad, 'a', &space);
 866              		.loc 1 299 21 is_stmt 0 discriminator 3
 867 01d4 E393B9FD 		bne	s3,s11,.L70
 304:C:/Users/stapi/OneDrive/Desktop/GD32VW553/V1_MQTT_OK/GD32VW55X_Wifi_BLE_SDK/GD32VW55x_RELEASE_V1.0.2/MSDK/util/src\debug_print.c ****                     continue;
 868              		.loc 1 304 21 is_stmt 1
 304:C:/Users/stapi/OneDrive/Desktop/GD32VW553/V1_MQTT_OK/GD32VW55X_Wifi_BLE_SDK/GD32VW55x_RELEASE_V1.0.2/MSDK/util/src\debug_print.c ****                     continue;
 869              		.loc 1 304 27 is_stmt 0
 870 01d8 83453D00 		lbu	a1,3(s10)
 871 01dc 9308C100 		addi	a7,sp,12
 872 01e0 13081006 		li	a6,97
 873 01e4 5287     		mv	a4,s4
 874 01e6 8546     		li	a3,1
 875 01e8 2946     		li	a2,10
 876 01ea 71BF     		j	.L92
 877              	.LVL110:
 878              	.L68:
 307:C:/Users/stapi/OneDrive/Desktop/GD32VW553/V1_MQTT_OK/GD32VW55X_Wifi_BLE_SDK/GD32VW55x_RELEASE_V1.0.2/MSDK/util/src\debug_print.c ****                     pc += printi(out, va_arg(args, int), 16, 0, width, pad, 'a', &space);
 879              		.loc 1 307 21 is_stmt 1
 308:C:/Users/stapi/OneDrive/Desktop/GD32VW553/V1_MQTT_OK/GD32VW55X_Wifi_BLE_SDK/GD32VW55x_RELEASE_V1.0.2/MSDK/util/src\debug_print.c ****                     continue;
 880              		.loc 1 308 21
 308:C:/Users/stapi/OneDrive/Desktop/GD32VW553/V1_MQTT_OK/GD32VW55X_Wifi_BLE_SDK/GD32VW55x_RELEASE_V1.0.2/MSDK/util/src\debug_print.c ****                     continue;
 881              		.loc 1 308 27 is_stmt 0
 882 01ec 9308C100 		addi	a7,sp,12
 883 01f0 13081006 		li	a6,97
 884 01f4 5287     		mv	a4,s4
 885 01f6 8146     		li	a3,0
 886 01f8 4146     		li	a2,16
 887 01fa EA85     		mv	a1,s10
 888 01fc 4A85     		mv	a0,s2
 889 01fe 97000000 		call	printi
 889      E7800000 
 890              	.LVL111:
 308:C:/Users/stapi/OneDrive/Desktop/GD32VW553/V1_MQTT_OK/GD32VW55X_Wifi_BLE_SDK/GD32VW55x_RELEASE_V1.0.2/MSDK/util/src\debug_print.c ****                     continue;
 891              		.loc 1 308 24
 892 0206 2A94     		add	s0,s0,a0
 893              	.LVL112:
 309:C:/Users/stapi/OneDrive/Desktop/GD32VW553/V1_MQTT_OK/GD32VW55X_Wifi_BLE_SDK/GD32VW55x_RELEASE_V1.0.2/MSDK/util/src\debug_print.c ****                 }
 894              		.loc 1 309 21 is_stmt 1
 895 0208 01B7     		j	.L64
 896              	.LVL113:
 897              	.L66:
 898              	.LBE27:
 313:C:/Users/stapi/OneDrive/Desktop/GD32VW553/V1_MQTT_OK/GD32VW55X_Wifi_BLE_SDK/GD32VW55x_RELEASE_V1.0.2/MSDK/util/src\debug_print.c ****                 pc += printi(out, va_arg(args, int), 16, 0, width, pad, 'a', &space);
 899              		.loc 1 313 13
 313:C:/Users/stapi/OneDrive/Desktop/GD32VW553/V1_MQTT_OK/GD32VW55X_Wifi_BLE_SDK/GD32VW55x_RELEASE_V1.0.2/MSDK/util/src\debug_print.c ****                 pc += printi(out, va_arg(args, int), 16, 0, width, pad, 'a', &space);
 900              		.loc 1 313 16 is_stmt 0
 901 020a 93068007 		li	a3,120
 902 020e 631CD700 		bne	a4,a3,.L71
 314:C:/Users/stapi/OneDrive/Desktop/GD32VW553/V1_MQTT_OK/GD32VW55X_Wifi_BLE_SDK/GD32VW55x_RELEASE_V1.0.2/MSDK/util/src\debug_print.c ****                 continue;
 903              		.loc 1 314 17 is_stmt 1
 314:C:/Users/stapi/OneDrive/Desktop/GD32VW553/V1_MQTT_OK/GD32VW55X_Wifi_BLE_SDK/GD32VW55x_RELEASE_V1.0.2/MSDK/util/src\debug_print.c ****                 continue;
 904              		.loc 1 314 23 is_stmt 0
 905 0212 138B4400 		addi	s6,s1,4
 906              	.LVL114:
 907 0216 9308C100 		addi	a7,sp,12
 908 021a 13081006 		li	a6,97
 909              	.L95:
 319:C:/Users/stapi/OneDrive/Desktop/GD32VW553/V1_MQTT_OK/GD32VW55X_Wifi_BLE_SDK/GD32VW55x_RELEASE_V1.0.2/MSDK/util/src\debug_print.c ****                 continue;
 910              		.loc 1 319 23
 911 021e 5287     		mv	a4,s4
 912 0220 8146     		li	a3,0
 913 0222 4146     		li	a2,16
 914 0224 D1BD     		j	.L94
 915              	.LVL115:
 916              	.L71:
 318:C:/Users/stapi/OneDrive/Desktop/GD32VW553/V1_MQTT_OK/GD32VW55X_Wifi_BLE_SDK/GD32VW55x_RELEASE_V1.0.2/MSDK/util/src\debug_print.c ****                 pc += printi(out, va_arg(args, int), 16, 0, width, pad, 'A', &space);
 917              		.loc 1 318 13 is_stmt 1
 318:C:/Users/stapi/OneDrive/Desktop/GD32VW553/V1_MQTT_OK/GD32VW55X_Wifi_BLE_SDK/GD32VW55x_RELEASE_V1.0.2/MSDK/util/src\debug_print.c ****                 pc += printi(out, va_arg(args, int), 16, 0, width, pad, 'A', &space);
 918              		.loc 1 318 16 is_stmt 0
 919 0226 93068005 		li	a3,88
 920 022a 6319D700 		bne	a4,a3,.L72
 319:C:/Users/stapi/OneDrive/Desktop/GD32VW553/V1_MQTT_OK/GD32VW55X_Wifi_BLE_SDK/GD32VW55x_RELEASE_V1.0.2/MSDK/util/src\debug_print.c ****                 continue;
 921              		.loc 1 319 17 is_stmt 1
 319:C:/Users/stapi/OneDrive/Desktop/GD32VW553/V1_MQTT_OK/GD32VW55X_Wifi_BLE_SDK/GD32VW55x_RELEASE_V1.0.2/MSDK/util/src\debug_print.c ****                 continue;
 922              		.loc 1 319 23 is_stmt 0
 923 022e 138B4400 		addi	s6,s1,4
 924              	.LVL116:
 925 0232 9308C100 		addi	a7,sp,12
 926 0236 13081004 		li	a6,65
 927 023a D5B7     		j	.L95
 928              	.LVL117:
 929              	.L72:
 323:C:/Users/stapi/OneDrive/Desktop/GD32VW553/V1_MQTT_OK/GD32VW55X_Wifi_BLE_SDK/GD32VW55x_RELEASE_V1.0.2/MSDK/util/src\debug_print.c ****                 pc += printi(out, va_arg(args, int), 10, 0, width, pad, 'a', &space);
 930              		.loc 1 323 13 is_stmt 1
 323:C:/Users/stapi/OneDrive/Desktop/GD32VW553/V1_MQTT_OK/GD32VW55X_Wifi_BLE_SDK/GD32VW55x_RELEASE_V1.0.2/MSDK/util/src\debug_print.c ****                 pc += printi(out, va_arg(args, int), 10, 0, width, pad, 'a', &space);
 931              		.loc 1 323 16 is_stmt 0
 932 023c 93065007 		li	a3,117
 933 0240 631BD700 		bne	a4,a3,.L73
 324:C:/Users/stapi/OneDrive/Desktop/GD32VW553/V1_MQTT_OK/GD32VW55X_Wifi_BLE_SDK/GD32VW55x_RELEASE_V1.0.2/MSDK/util/src\debug_print.c ****                 continue;
 934              		.loc 1 324 17 is_stmt 1
 324:C:/Users/stapi/OneDrive/Desktop/GD32VW553/V1_MQTT_OK/GD32VW55X_Wifi_BLE_SDK/GD32VW55x_RELEASE_V1.0.2/MSDK/util/src\debug_print.c ****                 continue;
 935              		.loc 1 324 23 is_stmt 0
 936 0244 138B4400 		addi	s6,s1,4
 937              	.LVL118:
 938 0248 9308C100 		addi	a7,sp,12
 939 024c 13081006 		li	a6,97
 940 0250 5287     		mv	a4,s4
 941 0252 8146     		li	a3,0
 942 0254 4DB5     		j	.L93
 943              	.LVL119:
 944              	.L73:
 328:C:/Users/stapi/OneDrive/Desktop/GD32VW553/V1_MQTT_OK/GD32VW55X_Wifi_BLE_SDK/GD32VW55x_RELEASE_V1.0.2/MSDK/util/src\debug_print.c ****                 /* char are converted to int then pushed on the stack */
 945              		.loc 1 328 13 is_stmt 1
 328:C:/Users/stapi/OneDrive/Desktop/GD32VW553/V1_MQTT_OK/GD32VW55X_Wifi_BLE_SDK/GD32VW55x_RELEASE_V1.0.2/MSDK/util/src\debug_print.c ****                 /* char are converted to int then pushed on the stack */
 946              		.loc 1 328 16 is_stmt 0
 947 0256 93063006 		li	a3,99
 948 025a E317D7EA 		bne	a4,a3,.L64
 330:C:/Users/stapi/OneDrive/Desktop/GD32VW553/V1_MQTT_OK/GD32VW55X_Wifi_BLE_SDK/GD32VW55x_RELEASE_V1.0.2/MSDK/util/src\debug_print.c ****                 scr[1] = '\0';
 949              		.loc 1 330 17 is_stmt 1
 330:C:/Users/stapi/OneDrive/Desktop/GD32VW553/V1_MQTT_OK/GD32VW55X_Wifi_BLE_SDK/GD32VW55x_RELEASE_V1.0.2/MSDK/util/src\debug_print.c ****                 scr[1] = '\0';
 950              		.loc 1 330 26 is_stmt 0
 951 025e 9840     		lw	a4,0(s1)
 330:C:/Users/stapi/OneDrive/Desktop/GD32VW553/V1_MQTT_OK/GD32VW55X_Wifi_BLE_SDK/GD32VW55x_RELEASE_V1.0.2/MSDK/util/src\debug_print.c ****                 scr[1] = '\0';
 952              		.loc 1 330 32
 953 0260 138B4400 		addi	s6,s1,4
 954              	.LVL120:
 331:C:/Users/stapi/OneDrive/Desktop/GD32VW553/V1_MQTT_OK/GD32VW55X_Wifi_BLE_SDK/GD32VW55x_RELEASE_V1.0.2/MSDK/util/src\debug_print.c ****                 pc += prints (out, scr, width, pad, &space);
 955              		.loc 1 331 24
 956 0264 A30E0100 		sb	zero,29(sp)
 330:C:/Users/stapi/OneDrive/Desktop/GD32VW553/V1_MQTT_OK/GD32VW55X_Wifi_BLE_SDK/GD32VW55x_RELEASE_V1.0.2/MSDK/util/src\debug_print.c ****                 scr[1] = '\0';
 957              		.loc 1 330 26
 958 0268 230EE100 		sb	a4,28(sp)
 331:C:/Users/stapi/OneDrive/Desktop/GD32VW553/V1_MQTT_OK/GD32VW55X_Wifi_BLE_SDK/GD32VW55x_RELEASE_V1.0.2/MSDK/util/src\debug_print.c ****                 pc += prints (out, scr, width, pad, &space);
 959              		.loc 1 331 17 is_stmt 1
 332:C:/Users/stapi/OneDrive/Desktop/GD32VW553/V1_MQTT_OK/GD32VW55X_Wifi_BLE_SDK/GD32VW55x_RELEASE_V1.0.2/MSDK/util/src\debug_print.c ****                 continue;
 960              		.loc 1 332 17
 332:C:/Users/stapi/OneDrive/Desktop/GD32VW553/V1_MQTT_OK/GD32VW55X_Wifi_BLE_SDK/GD32VW55x_RELEASE_V1.0.2/MSDK/util/src\debug_print.c ****                 continue;
 961              		.loc 1 332 23 is_stmt 0
 962 026c BE86     		mv	a3,a5
 963 026e 7800     		addi	a4,sp,12
 964 0270 5286     		mv	a2,s4
 965 0272 6C08     		addi	a1,sp,28
 966 0274 A1B5     		j	.L96
 967              	.LVL121:
 968              	.L76:
 245:C:/Users/stapi/OneDrive/Desktop/GD32VW553/V1_MQTT_OK/GD32VW55X_Wifi_BLE_SDK/GD32VW55x_RELEASE_V1.0.2/MSDK/util/src\debug_print.c ****             width = pad = 0;
 969              		.loc 1 245 13
 970 0276 BA89     		mv	s3,a4
 971              	.LVL122:
 972              	.L55:
 337:C:/Users/stapi/OneDrive/Desktop/GD32VW553/V1_MQTT_OK/GD32VW55X_Wifi_BLE_SDK/GD32VW55x_RELEASE_V1.0.2/MSDK/util/src\debug_print.c ****             ++pc;
 973              		.loc 1 337 13 is_stmt 1
 974 0278 7000     		addi	a2,sp,12
 975 027a 4A85     		mv	a0,s2
 976 027c 83850900 		lb	a1,0(s3)
 338:C:/Users/stapi/OneDrive/Desktop/GD32VW553/V1_MQTT_OK/GD32VW55X_Wifi_BLE_SDK/GD32VW55x_RELEASE_V1.0.2/MSDK/util/src\debug_print.c ****         }
 977              		.loc 1 338 13 is_stmt 0
 978 0280 0504     		addi	s0,s0,1
 979              	.LVL123:
 337:C:/Users/stapi/OneDrive/Desktop/GD32VW553/V1_MQTT_OK/GD32VW55X_Wifi_BLE_SDK/GD32VW55x_RELEASE_V1.0.2/MSDK/util/src\debug_print.c ****             ++pc;
 980              		.loc 1 337 13
 981 0282 97000000 		call	printchar
 981      E7800000 
 982              	.LVL124:
 338:C:/Users/stapi/OneDrive/Desktop/GD32VW553/V1_MQTT_OK/GD32VW55X_Wifi_BLE_SDK/GD32VW55x_RELEASE_V1.0.2/MSDK/util/src\debug_print.c ****         }
 983              		.loc 1 338 13 is_stmt 1
 984 028a BDBD     		j	.L64
 985              		.cfi_endproc
 986              	.LFE370:
 988              		.section	.text.co_printf,"ax",@progbits
 989              		.align	1
 990              		.globl	co_printf
 992              	co_printf:
 993              	.LFB371:
 348:C:/Users/stapi/OneDrive/Desktop/GD32VW553/V1_MQTT_OK/GD32VW55X_Wifi_BLE_SDK/GD32VW55x_RELEASE_V1.0.2/MSDK/util/src\debug_print.c **** 
 349:C:/Users/stapi/OneDrive/Desktop/GD32VW553/V1_MQTT_OK/GD32VW55X_Wifi_BLE_SDK/GD32VW55x_RELEASE_V1.0.2/MSDK/util/src\debug_print.c **** #ifdef CONFIG_PRINT_IN_SEQUENCE
 350:C:/Users/stapi/OneDrive/Desktop/GD32VW553/V1_MQTT_OK/GD32VW55X_Wifi_BLE_SDK/GD32VW55x_RELEASE_V1.0.2/MSDK/util/src\debug_print.c **** static void print_task_handle(void *argv)
 351:C:/Users/stapi/OneDrive/Desktop/GD32VW553/V1_MQTT_OK/GD32VW55X_Wifi_BLE_SDK/GD32VW55x_RELEASE_V1.0.2/MSDK/util/src\debug_print.c **** {
 352:C:/Users/stapi/OneDrive/Desktop/GD32VW553/V1_MQTT_OK/GD32VW55X_Wifi_BLE_SDK/GD32VW55x_RELEASE_V1.0.2/MSDK/util/src\debug_print.c ****     do {
 353:C:/Users/stapi/OneDrive/Desktop/GD32VW553/V1_MQTT_OK/GD32VW55X_Wifi_BLE_SDK/GD32VW55x_RELEASE_V1.0.2/MSDK/util/src\debug_print.c ****         sys_sema_down(&print_sema, 0);
 354:C:/Users/stapi/OneDrive/Desktop/GD32VW553/V1_MQTT_OK/GD32VW55X_Wifi_BLE_SDK/GD32VW55x_RELEASE_V1.0.2/MSDK/util/src\debug_print.c ****         while ( used_len > 0) {
 355:C:/Users/stapi/OneDrive/Desktop/GD32VW553/V1_MQTT_OK/GD32VW55X_Wifi_BLE_SDK/GD32VW55x_RELEASE_V1.0.2/MSDK/util/src\debug_print.c ****             log_uart_putc_noint(print_buf[r_point]);
 356:C:/Users/stapi/OneDrive/Desktop/GD32VW553/V1_MQTT_OK/GD32VW55X_Wifi_BLE_SDK/GD32VW55x_RELEASE_V1.0.2/MSDK/util/src\debug_print.c ****             r_point ++;
 357:C:/Users/stapi/OneDrive/Desktop/GD32VW553/V1_MQTT_OK/GD32VW55X_Wifi_BLE_SDK/GD32VW55x_RELEASE_V1.0.2/MSDK/util/src\debug_print.c ****             if (r_point >= MAX_BUF_LEN)
 358:C:/Users/stapi/OneDrive/Desktop/GD32VW553/V1_MQTT_OK/GD32VW55X_Wifi_BLE_SDK/GD32VW55x_RELEASE_V1.0.2/MSDK/util/src\debug_print.c ****                 r_point -= MAX_BUF_LEN;
 359:C:/Users/stapi/OneDrive/Desktop/GD32VW553/V1_MQTT_OK/GD32VW55X_Wifi_BLE_SDK/GD32VW55x_RELEASE_V1.0.2/MSDK/util/src\debug_print.c ****             sys_enter_critical();
 360:C:/Users/stapi/OneDrive/Desktop/GD32VW553/V1_MQTT_OK/GD32VW55X_Wifi_BLE_SDK/GD32VW55x_RELEASE_V1.0.2/MSDK/util/src\debug_print.c ****             used_len--;
 361:C:/Users/stapi/OneDrive/Desktop/GD32VW553/V1_MQTT_OK/GD32VW55X_Wifi_BLE_SDK/GD32VW55x_RELEASE_V1.0.2/MSDK/util/src\debug_print.c ****             sys_exit_critical();
 362:C:/Users/stapi/OneDrive/Desktop/GD32VW553/V1_MQTT_OK/GD32VW55X_Wifi_BLE_SDK/GD32VW55x_RELEASE_V1.0.2/MSDK/util/src\debug_print.c ****         }
 363:C:/Users/stapi/OneDrive/Desktop/GD32VW553/V1_MQTT_OK/GD32VW55X_Wifi_BLE_SDK/GD32VW55x_RELEASE_V1.0.2/MSDK/util/src\debug_print.c ****     } while(1);
 364:C:/Users/stapi/OneDrive/Desktop/GD32VW553/V1_MQTT_OK/GD32VW55X_Wifi_BLE_SDK/GD32VW55x_RELEASE_V1.0.2/MSDK/util/src\debug_print.c **** }
 365:C:/Users/stapi/OneDrive/Desktop/GD32VW553/V1_MQTT_OK/GD32VW55X_Wifi_BLE_SDK/GD32VW55x_RELEASE_V1.0.2/MSDK/util/src\debug_print.c **** #endif
 366:C:/Users/stapi/OneDrive/Desktop/GD32VW553/V1_MQTT_OK/GD32VW55X_Wifi_BLE_SDK/GD32VW55x_RELEASE_V1.0.2/MSDK/util/src\debug_print.c **** 
 367:C:/Users/stapi/OneDrive/Desktop/GD32VW553/V1_MQTT_OK/GD32VW55X_Wifi_BLE_SDK/GD32VW55x_RELEASE_V1.0.2/MSDK/util/src\debug_print.c **** 
 368:C:/Users/stapi/OneDrive/Desktop/GD32VW553/V1_MQTT_OK/GD32VW55X_Wifi_BLE_SDK/GD32VW55x_RELEASE_V1.0.2/MSDK/util/src\debug_print.c **** int co_printf(const char *format, ...)
 369:C:/Users/stapi/OneDrive/Desktop/GD32VW553/V1_MQTT_OK/GD32VW55X_Wifi_BLE_SDK/GD32VW55x_RELEASE_V1.0.2/MSDK/util/src\debug_print.c **** {
 994              		.loc 1 369 1
 995              		.cfi_startproc
 996              	.LVL125:
 370:C:/Users/stapi/OneDrive/Desktop/GD32VW553/V1_MQTT_OK/GD32VW55X_Wifi_BLE_SDK/GD32VW55x_RELEASE_V1.0.2/MSDK/util/src\debug_print.c **** #if (!defined(CONFIG_PRINT_IN_SEQUENCE) | !defined(LOG_UART))
 371:C:/Users/stapi/OneDrive/Desktop/GD32VW553/V1_MQTT_OK/GD32VW55X_Wifi_BLE_SDK/GD32VW55x_RELEASE_V1.0.2/MSDK/util/src\debug_print.c ****     int ret;
 997              		.loc 1 371 5
 372:C:/Users/stapi/OneDrive/Desktop/GD32VW553/V1_MQTT_OK/GD32VW55X_Wifi_BLE_SDK/GD32VW55x_RELEASE_V1.0.2/MSDK/util/src\debug_print.c **** #ifndef LOG_UART
 373:C:/Users/stapi/OneDrive/Desktop/GD32VW553/V1_MQTT_OK/GD32VW55X_Wifi_BLE_SDK/GD32VW55x_RELEASE_V1.0.2/MSDK/util/src\debug_print.c ****     char out[1024], *pout = &out[0];
 374:C:/Users/stapi/OneDrive/Desktop/GD32VW553/V1_MQTT_OK/GD32VW55X_Wifi_BLE_SDK/GD32VW55x_RELEASE_V1.0.2/MSDK/util/src\debug_print.c **** #endif
 375:C:/Users/stapi/OneDrive/Desktop/GD32VW553/V1_MQTT_OK/GD32VW55X_Wifi_BLE_SDK/GD32VW55x_RELEASE_V1.0.2/MSDK/util/src\debug_print.c ****     va_list args;
 998              		.loc 1 375 5
 376:C:/Users/stapi/OneDrive/Desktop/GD32VW553/V1_MQTT_OK/GD32VW55X_Wifi_BLE_SDK/GD32VW55x_RELEASE_V1.0.2/MSDK/util/src\debug_print.c **** 
 377:C:/Users/stapi/OneDrive/Desktop/GD32VW553/V1_MQTT_OK/GD32VW55X_Wifi_BLE_SDK/GD32VW55x_RELEASE_V1.0.2/MSDK/util/src\debug_print.c ****     va_start(args, format);
 999              		.loc 1 377 5
 369:C:/Users/stapi/OneDrive/Desktop/GD32VW553/V1_MQTT_OK/GD32VW55X_Wifi_BLE_SDK/GD32VW55x_RELEASE_V1.0.2/MSDK/util/src\debug_print.c **** #if (!defined(CONFIG_PRINT_IN_SEQUENCE) | !defined(LOG_UART))
 1000              		.loc 1 369 1 is_stmt 0
 1001 0000 3971     		addi	sp,sp,-64
 1002              		.cfi_def_cfa_offset 64
 1003 0002 2ED2     		sw	a1,36(sp)
 1004 0004 32D4     		sw	a2,40(sp)
 1005 0006 36D6     		sw	a3,44(sp)
 1006              		.loc 1 377 5
 1007 0008 5010     		addi	a2,sp,36
 378:C:/Users/stapi/OneDrive/Desktop/GD32VW553/V1_MQTT_OK/GD32VW55X_Wifi_BLE_SDK/GD32VW55x_RELEASE_V1.0.2/MSDK/util/src\debug_print.c **** #ifndef LOG_UART
 379:C:/Users/stapi/OneDrive/Desktop/GD32VW553/V1_MQTT_OK/GD32VW55X_Wifi_BLE_SDK/GD32VW55x_RELEASE_V1.0.2/MSDK/util/src\debug_print.c ****     ret = print(&pout, format, args, 1024);
 380:C:/Users/stapi/OneDrive/Desktop/GD32VW553/V1_MQTT_OK/GD32VW55X_Wifi_BLE_SDK/GD32VW55x_RELEASE_V1.0.2/MSDK/util/src\debug_print.c ****     trace_console(ret, (uint8_t *)out);
 381:C:/Users/stapi/OneDrive/Desktop/GD32VW553/V1_MQTT_OK/GD32VW55X_Wifi_BLE_SDK/GD32VW55x_RELEASE_V1.0.2/MSDK/util/src\debug_print.c **** #else
 382:C:/Users/stapi/OneDrive/Desktop/GD32VW553/V1_MQTT_OK/GD32VW55X_Wifi_BLE_SDK/GD32VW55x_RELEASE_V1.0.2/MSDK/util/src\debug_print.c ****     ret = print(0, format, args, 0);
 1008              		.loc 1 382 11
 1009 000a AA85     		mv	a1,a0
 1010 000c 8146     		li	a3,0
 1011 000e 0145     		li	a0,0
 1012              	.LVL126:
 369:C:/Users/stapi/OneDrive/Desktop/GD32VW553/V1_MQTT_OK/GD32VW55X_Wifi_BLE_SDK/GD32VW55x_RELEASE_V1.0.2/MSDK/util/src\debug_print.c **** #if (!defined(CONFIG_PRINT_IN_SEQUENCE) | !defined(LOG_UART))
 1013              		.loc 1 369 1
 1014 0010 06CE     		sw	ra,28(sp)
 1015              		.cfi_offset 1, -36
 369:C:/Users/stapi/OneDrive/Desktop/GD32VW553/V1_MQTT_OK/GD32VW55X_Wifi_BLE_SDK/GD32VW55x_RELEASE_V1.0.2/MSDK/util/src\debug_print.c **** #if (!defined(CONFIG_PRINT_IN_SEQUENCE) | !defined(LOG_UART))
 1016              		.loc 1 369 1
 1017 0012 3AD8     		sw	a4,48(sp)
 1018 0014 3EDA     		sw	a5,52(sp)
 1019 0016 42DC     		sw	a6,56(sp)
 1020 0018 46DE     		sw	a7,60(sp)
 377:C:/Users/stapi/OneDrive/Desktop/GD32VW553/V1_MQTT_OK/GD32VW55X_Wifi_BLE_SDK/GD32VW55x_RELEASE_V1.0.2/MSDK/util/src\debug_print.c **** #ifndef LOG_UART
 1021              		.loc 1 377 5
 1022 001a 32C6     		sw	a2,12(sp)
 1023              		.loc 1 382 5 is_stmt 1
 1024              		.loc 1 382 11 is_stmt 0
 1025 001c 97000000 		call	print
 1025      E7800000 
 1026              	.LVL127:
 383:C:/Users/stapi/OneDrive/Desktop/GD32VW553/V1_MQTT_OK/GD32VW55X_Wifi_BLE_SDK/GD32VW55x_RELEASE_V1.0.2/MSDK/util/src\debug_print.c **** #endif
 384:C:/Users/stapi/OneDrive/Desktop/GD32VW553/V1_MQTT_OK/GD32VW55X_Wifi_BLE_SDK/GD32VW55x_RELEASE_V1.0.2/MSDK/util/src\debug_print.c ****     va_end(args);
 1027              		.loc 1 384 5 is_stmt 1
 385:C:/Users/stapi/OneDrive/Desktop/GD32VW553/V1_MQTT_OK/GD32VW55X_Wifi_BLE_SDK/GD32VW55x_RELEASE_V1.0.2/MSDK/util/src\debug_print.c **** 
 386:C:/Users/stapi/OneDrive/Desktop/GD32VW553/V1_MQTT_OK/GD32VW55X_Wifi_BLE_SDK/GD32VW55x_RELEASE_V1.0.2/MSDK/util/src\debug_print.c ****     return ret;
 1028              		.loc 1 386 5
 387:C:/Users/stapi/OneDrive/Desktop/GD32VW553/V1_MQTT_OK/GD32VW55X_Wifi_BLE_SDK/GD32VW55x_RELEASE_V1.0.2/MSDK/util/src\debug_print.c **** #else
 388:C:/Users/stapi/OneDrive/Desktop/GD32VW553/V1_MQTT_OK/GD32VW55X_Wifi_BLE_SDK/GD32VW55x_RELEASE_V1.0.2/MSDK/util/src\debug_print.c ****     char out[1024], *pout = &out[0];
 389:C:/Users/stapi/OneDrive/Desktop/GD32VW553/V1_MQTT_OK/GD32VW55X_Wifi_BLE_SDK/GD32VW55x_RELEASE_V1.0.2/MSDK/util/src\debug_print.c ****     char len = 0;
 390:C:/Users/stapi/OneDrive/Desktop/GD32VW553/V1_MQTT_OK/GD32VW55X_Wifi_BLE_SDK/GD32VW55x_RELEASE_V1.0.2/MSDK/util/src\debug_print.c ****     va_list args;
 391:C:/Users/stapi/OneDrive/Desktop/GD32VW553/V1_MQTT_OK/GD32VW55X_Wifi_BLE_SDK/GD32VW55x_RELEASE_V1.0.2/MSDK/util/src\debug_print.c ****     int cur_wp = 0;
 392:C:/Users/stapi/OneDrive/Desktop/GD32VW553/V1_MQTT_OK/GD32VW55X_Wifi_BLE_SDK/GD32VW55x_RELEASE_V1.0.2/MSDK/util/src\debug_print.c ****     int pc = 0;
 393:C:/Users/stapi/OneDrive/Desktop/GD32VW553/V1_MQTT_OK/GD32VW55X_Wifi_BLE_SDK/GD32VW55x_RELEASE_V1.0.2/MSDK/util/src\debug_print.c **** 
 394:C:/Users/stapi/OneDrive/Desktop/GD32VW553/V1_MQTT_OK/GD32VW55X_Wifi_BLE_SDK/GD32VW55x_RELEASE_V1.0.2/MSDK/util/src\debug_print.c ****     if (print_task_init == 0) {
 395:C:/Users/stapi/OneDrive/Desktop/GD32VW553/V1_MQTT_OK/GD32VW55X_Wifi_BLE_SDK/GD32VW55x_RELEASE_V1.0.2/MSDK/util/src\debug_print.c ****         sys_enter_critical();
 396:C:/Users/stapi/OneDrive/Desktop/GD32VW553/V1_MQTT_OK/GD32VW55X_Wifi_BLE_SDK/GD32VW55x_RELEASE_V1.0.2/MSDK/util/src\debug_print.c ****         if (print_task_init == 0 ) {
 397:C:/Users/stapi/OneDrive/Desktop/GD32VW553/V1_MQTT_OK/GD32VW55X_Wifi_BLE_SDK/GD32VW55x_RELEASE_V1.0.2/MSDK/util/src\debug_print.c ****             sys_sema_init(&print_sema, 0);
 398:C:/Users/stapi/OneDrive/Desktop/GD32VW553/V1_MQTT_OK/GD32VW55X_Wifi_BLE_SDK/GD32VW55x_RELEASE_V1.0.2/MSDK/util/src\debug_print.c ****             sys_task_create(NULL, (const uint8_t *)"Print", NULL, 512, 0, (OS_TASK_PRIO_IDLE + TASK
 399:C:/Users/stapi/OneDrive/Desktop/GD32VW553/V1_MQTT_OK/GD32VW55X_Wifi_BLE_SDK/GD32VW55x_RELEASE_V1.0.2/MSDK/util/src\debug_print.c ****             print_task_init = 1;
 400:C:/Users/stapi/OneDrive/Desktop/GD32VW553/V1_MQTT_OK/GD32VW55X_Wifi_BLE_SDK/GD32VW55x_RELEASE_V1.0.2/MSDK/util/src\debug_print.c ****         }
 401:C:/Users/stapi/OneDrive/Desktop/GD32VW553/V1_MQTT_OK/GD32VW55X_Wifi_BLE_SDK/GD32VW55x_RELEASE_V1.0.2/MSDK/util/src\debug_print.c ****         sys_exit_critical();
 402:C:/Users/stapi/OneDrive/Desktop/GD32VW553/V1_MQTT_OK/GD32VW55X_Wifi_BLE_SDK/GD32VW55x_RELEASE_V1.0.2/MSDK/util/src\debug_print.c ****     }
 403:C:/Users/stapi/OneDrive/Desktop/GD32VW553/V1_MQTT_OK/GD32VW55X_Wifi_BLE_SDK/GD32VW55x_RELEASE_V1.0.2/MSDK/util/src\debug_print.c **** 
 404:C:/Users/stapi/OneDrive/Desktop/GD32VW553/V1_MQTT_OK/GD32VW55X_Wifi_BLE_SDK/GD32VW55x_RELEASE_V1.0.2/MSDK/util/src\debug_print.c ****     va_start(args, format);
 405:C:/Users/stapi/OneDrive/Desktop/GD32VW553/V1_MQTT_OK/GD32VW55X_Wifi_BLE_SDK/GD32VW55x_RELEASE_V1.0.2/MSDK/util/src\debug_print.c ****     pc = print(&pout, format, args, 1024);
 406:C:/Users/stapi/OneDrive/Desktop/GD32VW553/V1_MQTT_OK/GD32VW55X_Wifi_BLE_SDK/GD32VW55x_RELEASE_V1.0.2/MSDK/util/src\debug_print.c ****     va_end(args);
 407:C:/Users/stapi/OneDrive/Desktop/GD32VW553/V1_MQTT_OK/GD32VW55X_Wifi_BLE_SDK/GD32VW55x_RELEASE_V1.0.2/MSDK/util/src\debug_print.c **** 
 408:C:/Users/stapi/OneDrive/Desktop/GD32VW553/V1_MQTT_OK/GD32VW55X_Wifi_BLE_SDK/GD32VW55x_RELEASE_V1.0.2/MSDK/util/src\debug_print.c ****     len = strlen(out);
 409:C:/Users/stapi/OneDrive/Desktop/GD32VW553/V1_MQTT_OK/GD32VW55X_Wifi_BLE_SDK/GD32VW55x_RELEASE_V1.0.2/MSDK/util/src\debug_print.c ****     if (len < (MAX_BUF_LEN - used_len)) {
 410:C:/Users/stapi/OneDrive/Desktop/GD32VW553/V1_MQTT_OK/GD32VW55X_Wifi_BLE_SDK/GD32VW55x_RELEASE_V1.0.2/MSDK/util/src\debug_print.c ****         /* Remaining print buffer is enough for this print. */
 411:C:/Users/stapi/OneDrive/Desktop/GD32VW553/V1_MQTT_OK/GD32VW55X_Wifi_BLE_SDK/GD32VW55x_RELEASE_V1.0.2/MSDK/util/src\debug_print.c ****         sys_enter_critical();
 412:C:/Users/stapi/OneDrive/Desktop/GD32VW553/V1_MQTT_OK/GD32VW55X_Wifi_BLE_SDK/GD32VW55x_RELEASE_V1.0.2/MSDK/util/src\debug_print.c ****         cur_wp = w_point;
 413:C:/Users/stapi/OneDrive/Desktop/GD32VW553/V1_MQTT_OK/GD32VW55X_Wifi_BLE_SDK/GD32VW55x_RELEASE_V1.0.2/MSDK/util/src\debug_print.c ****         used_len += len;
 414:C:/Users/stapi/OneDrive/Desktop/GD32VW553/V1_MQTT_OK/GD32VW55X_Wifi_BLE_SDK/GD32VW55x_RELEASE_V1.0.2/MSDK/util/src\debug_print.c ****         w_point += len;
 415:C:/Users/stapi/OneDrive/Desktop/GD32VW553/V1_MQTT_OK/GD32VW55X_Wifi_BLE_SDK/GD32VW55x_RELEASE_V1.0.2/MSDK/util/src\debug_print.c ****         w_point = (w_point >= MAX_BUF_LEN) ? (w_point - MAX_BUF_LEN) : w_point;
 416:C:/Users/stapi/OneDrive/Desktop/GD32VW553/V1_MQTT_OK/GD32VW55X_Wifi_BLE_SDK/GD32VW55x_RELEASE_V1.0.2/MSDK/util/src\debug_print.c ****         sys_exit_critical();
 417:C:/Users/stapi/OneDrive/Desktop/GD32VW553/V1_MQTT_OK/GD32VW55X_Wifi_BLE_SDK/GD32VW55x_RELEASE_V1.0.2/MSDK/util/src\debug_print.c **** 
 418:C:/Users/stapi/OneDrive/Desktop/GD32VW553/V1_MQTT_OK/GD32VW55X_Wifi_BLE_SDK/GD32VW55x_RELEASE_V1.0.2/MSDK/util/src\debug_print.c ****         if (cur_wp >= r_point) {
 419:C:/Users/stapi/OneDrive/Desktop/GD32VW553/V1_MQTT_OK/GD32VW55X_Wifi_BLE_SDK/GD32VW55x_RELEASE_V1.0.2/MSDK/util/src\debug_print.c ****             if ((MAX_BUF_LEN - cur_wp) >= len) {
 420:C:/Users/stapi/OneDrive/Desktop/GD32VW553/V1_MQTT_OK/GD32VW55X_Wifi_BLE_SDK/GD32VW55x_RELEASE_V1.0.2/MSDK/util/src\debug_print.c ****                 sys_memcmp(&print_buf[cur_wp], out, len);
 421:C:/Users/stapi/OneDrive/Desktop/GD32VW553/V1_MQTT_OK/GD32VW55X_Wifi_BLE_SDK/GD32VW55x_RELEASE_V1.0.2/MSDK/util/src\debug_print.c ****             } else {
 422:C:/Users/stapi/OneDrive/Desktop/GD32VW553/V1_MQTT_OK/GD32VW55X_Wifi_BLE_SDK/GD32VW55x_RELEASE_V1.0.2/MSDK/util/src\debug_print.c ****                 sys_memcmp(&print_buf[cur_wp], out, (MAX_BUF_LEN - cur_wp));
 423:C:/Users/stapi/OneDrive/Desktop/GD32VW553/V1_MQTT_OK/GD32VW55X_Wifi_BLE_SDK/GD32VW55x_RELEASE_V1.0.2/MSDK/util/src\debug_print.c ****                 sys_memcmp(&print_buf[0], &out[MAX_BUF_LEN - cur_wp], (len - (MAX_BUF_LEN - cur_wp)
 424:C:/Users/stapi/OneDrive/Desktop/GD32VW553/V1_MQTT_OK/GD32VW55X_Wifi_BLE_SDK/GD32VW55x_RELEASE_V1.0.2/MSDK/util/src\debug_print.c ****             }
 425:C:/Users/stapi/OneDrive/Desktop/GD32VW553/V1_MQTT_OK/GD32VW55X_Wifi_BLE_SDK/GD32VW55x_RELEASE_V1.0.2/MSDK/util/src\debug_print.c ****         } else {
 426:C:/Users/stapi/OneDrive/Desktop/GD32VW553/V1_MQTT_OK/GD32VW55X_Wifi_BLE_SDK/GD32VW55x_RELEASE_V1.0.2/MSDK/util/src\debug_print.c ****             sys_memcmp(&print_buf[cur_wp], out, len);
 427:C:/Users/stapi/OneDrive/Desktop/GD32VW553/V1_MQTT_OK/GD32VW55X_Wifi_BLE_SDK/GD32VW55x_RELEASE_V1.0.2/MSDK/util/src\debug_print.c ****         }
 428:C:/Users/stapi/OneDrive/Desktop/GD32VW553/V1_MQTT_OK/GD32VW55X_Wifi_BLE_SDK/GD32VW55x_RELEASE_V1.0.2/MSDK/util/src\debug_print.c ****         /* Inform print task to read. */
 429:C:/Users/stapi/OneDrive/Desktop/GD32VW553/V1_MQTT_OK/GD32VW55X_Wifi_BLE_SDK/GD32VW55x_RELEASE_V1.0.2/MSDK/util/src\debug_print.c ****         sys_sema_up(&print_sema);
 430:C:/Users/stapi/OneDrive/Desktop/GD32VW553/V1_MQTT_OK/GD32VW55X_Wifi_BLE_SDK/GD32VW55x_RELEASE_V1.0.2/MSDK/util/src\debug_print.c ****     }else{
 431:C:/Users/stapi/OneDrive/Desktop/GD32VW553/V1_MQTT_OK/GD32VW55X_Wifi_BLE_SDK/GD32VW55x_RELEASE_V1.0.2/MSDK/util/src\debug_print.c ****         /* The print buffer is full. Ignore the new message. */
 432:C:/Users/stapi/OneDrive/Desktop/GD32VW553/V1_MQTT_OK/GD32VW55X_Wifi_BLE_SDK/GD32VW55x_RELEASE_V1.0.2/MSDK/util/src\debug_print.c ****     }
 433:C:/Users/stapi/OneDrive/Desktop/GD32VW553/V1_MQTT_OK/GD32VW55X_Wifi_BLE_SDK/GD32VW55x_RELEASE_V1.0.2/MSDK/util/src\debug_print.c ****     return pc;
 434:C:/Users/stapi/OneDrive/Desktop/GD32VW553/V1_MQTT_OK/GD32VW55X_Wifi_BLE_SDK/GD32VW55x_RELEASE_V1.0.2/MSDK/util/src\debug_print.c **** #endif    // CONFIG_PRINT_IN_SEQUENCE end
 435:C:/Users/stapi/OneDrive/Desktop/GD32VW553/V1_MQTT_OK/GD32VW55X_Wifi_BLE_SDK/GD32VW55x_RELEASE_V1.0.2/MSDK/util/src\debug_print.c **** }
 1029              		.loc 1 435 1 is_stmt 0
 1030 0024 F240     		lw	ra,28(sp)
 1031              		.cfi_restore 1
 1032 0026 2161     		addi	sp,sp,64
 1033              		.cfi_def_cfa_offset 0
 1034 0028 8280     		jr	ra
 1035              		.cfi_endproc
 1036              	.LFE371:
 1038              		.section	.text.co_snprintf,"ax",@progbits
 1039              		.align	1
 1040              		.globl	co_snprintf
 1042              	co_snprintf:
 1043              	.LFB372:
 436:C:/Users/stapi/OneDrive/Desktop/GD32VW553/V1_MQTT_OK/GD32VW55X_Wifi_BLE_SDK/GD32VW55x_RELEASE_V1.0.2/MSDK/util/src\debug_print.c **** 
 437:C:/Users/stapi/OneDrive/Desktop/GD32VW553/V1_MQTT_OK/GD32VW55X_Wifi_BLE_SDK/GD32VW55x_RELEASE_V1.0.2/MSDK/util/src\debug_print.c **** int co_snprintf(char *out, int space, const char *format, ...)
 438:C:/Users/stapi/OneDrive/Desktop/GD32VW553/V1_MQTT_OK/GD32VW55X_Wifi_BLE_SDK/GD32VW55x_RELEASE_V1.0.2/MSDK/util/src\debug_print.c **** {
 1044              		.loc 1 438 1 is_stmt 1
 1045              		.cfi_startproc
 1046              	.LVL128:
 439:C:/Users/stapi/OneDrive/Desktop/GD32VW553/V1_MQTT_OK/GD32VW55X_Wifi_BLE_SDK/GD32VW55x_RELEASE_V1.0.2/MSDK/util/src\debug_print.c ****     int ret = 0;
 1047              		.loc 1 439 5
 440:C:/Users/stapi/OneDrive/Desktop/GD32VW553/V1_MQTT_OK/GD32VW55X_Wifi_BLE_SDK/GD32VW55x_RELEASE_V1.0.2/MSDK/util/src\debug_print.c ****     if (out) {
 1048              		.loc 1 440 5
 438:C:/Users/stapi/OneDrive/Desktop/GD32VW553/V1_MQTT_OK/GD32VW55X_Wifi_BLE_SDK/GD32VW55x_RELEASE_V1.0.2/MSDK/util/src\debug_print.c ****     int ret = 0;
 1049              		.loc 1 438 1 is_stmt 0
 1050 0000 5D71     		addi	sp,sp,-80
 1051              		.cfi_def_cfa_offset 80
 1052 0002 06D6     		sw	ra,44(sp)
 1053              		.cfi_offset 1, -36
 438:C:/Users/stapi/OneDrive/Desktop/GD32VW553/V1_MQTT_OK/GD32VW55X_Wifi_BLE_SDK/GD32VW55x_RELEASE_V1.0.2/MSDK/util/src\debug_print.c ****     int ret = 0;
 1054              		.loc 1 438 1
 1055 0004 2AC6     		sw	a0,12(sp)
 1056 0006 36DE     		sw	a3,60(sp)
 1057 0008 BAC0     		sw	a4,64(sp)
 1058 000a BEC2     		sw	a5,68(sp)
 1059 000c C2C4     		sw	a6,72(sp)
 1060 000e C6C6     		sw	a7,76(sp)
 1061              		.loc 1 440 8
 1062 0010 11CD     		beq	a0,zero,.L101
 1063 0012 2E83     		mv	t1,a1
 1064              	.LBB28:
 441:C:/Users/stapi/OneDrive/Desktop/GD32VW553/V1_MQTT_OK/GD32VW55X_Wifi_BLE_SDK/GD32VW55x_RELEASE_V1.0.2/MSDK/util/src\debug_print.c ****         va_list args;
 442:C:/Users/stapi/OneDrive/Desktop/GD32VW553/V1_MQTT_OK/GD32VW55X_Wifi_BLE_SDK/GD32VW55x_RELEASE_V1.0.2/MSDK/util/src\debug_print.c **** 
 443:C:/Users/stapi/OneDrive/Desktop/GD32VW553/V1_MQTT_OK/GD32VW55X_Wifi_BLE_SDK/GD32VW55x_RELEASE_V1.0.2/MSDK/util/src\debug_print.c ****         va_start(args, format);
 444:C:/Users/stapi/OneDrive/Desktop/GD32VW553/V1_MQTT_OK/GD32VW55X_Wifi_BLE_SDK/GD32VW55x_RELEASE_V1.0.2/MSDK/util/src\debug_print.c ****         ret = print(&out, format, args, space);
 1065              		.loc 1 444 15
 1066 0014 9A86     		mv	a3,t1
 1067 0016 B285     		mv	a1,a2
 1068              	.LVL129:
 441:C:/Users/stapi/OneDrive/Desktop/GD32VW553/V1_MQTT_OK/GD32VW55X_Wifi_BLE_SDK/GD32VW55x_RELEASE_V1.0.2/MSDK/util/src\debug_print.c ****         va_list args;
 1069              		.loc 1 441 9 is_stmt 1
 443:C:/Users/stapi/OneDrive/Desktop/GD32VW553/V1_MQTT_OK/GD32VW55X_Wifi_BLE_SDK/GD32VW55x_RELEASE_V1.0.2/MSDK/util/src\debug_print.c ****         ret = print(&out, format, args, space);
 1070              		.loc 1 443 9
 1071              		.loc 1 444 15 is_stmt 0
 1072 0018 6800     		addi	a0,sp,12
 1073              	.LVL130:
 443:C:/Users/stapi/OneDrive/Desktop/GD32VW553/V1_MQTT_OK/GD32VW55X_Wifi_BLE_SDK/GD32VW55x_RELEASE_V1.0.2/MSDK/util/src\debug_print.c ****         ret = print(&out, format, args, space);
 1074              		.loc 1 443 9
 1075 001a 7018     		addi	a2,sp,60
 1076              	.LVL131:
 1077 001c 32CE     		sw	a2,28(sp)
 1078              		.loc 1 444 9 is_stmt 1
 1079              		.loc 1 444 15 is_stmt 0
 1080 001e 97000000 		call	print
 1080      E7800000 
 1081              	.LVL132:
 445:C:/Users/stapi/OneDrive/Desktop/GD32VW553/V1_MQTT_OK/GD32VW55X_Wifi_BLE_SDK/GD32VW55x_RELEASE_V1.0.2/MSDK/util/src\debug_print.c ****         va_end(args);
 1082              		.loc 1 445 9 is_stmt 1
 1083              	.L99:
 1084              	.LBE28:
 446:C:/Users/stapi/OneDrive/Desktop/GD32VW553/V1_MQTT_OK/GD32VW55X_Wifi_BLE_SDK/GD32VW55x_RELEASE_V1.0.2/MSDK/util/src\debug_print.c ****     }
 447:C:/Users/stapi/OneDrive/Desktop/GD32VW553/V1_MQTT_OK/GD32VW55X_Wifi_BLE_SDK/GD32VW55x_RELEASE_V1.0.2/MSDK/util/src\debug_print.c **** 
 448:C:/Users/stapi/OneDrive/Desktop/GD32VW553/V1_MQTT_OK/GD32VW55X_Wifi_BLE_SDK/GD32VW55x_RELEASE_V1.0.2/MSDK/util/src\debug_print.c ****     return ret;
 449:C:/Users/stapi/OneDrive/Desktop/GD32VW553/V1_MQTT_OK/GD32VW55X_Wifi_BLE_SDK/GD32VW55x_RELEASE_V1.0.2/MSDK/util/src\debug_print.c **** }
 1085              		.loc 1 449 1 is_stmt 0
 1086 0026 B250     		lw	ra,44(sp)
 1087              		.cfi_remember_state
 1088              		.cfi_restore 1
 1089 0028 6161     		addi	sp,sp,80
 1090              		.cfi_def_cfa_offset 0
 1091 002a 8280     		jr	ra
 1092              	.LVL133:
 1093              	.L101:
 1094              		.cfi_restore_state
 439:C:/Users/stapi/OneDrive/Desktop/GD32VW553/V1_MQTT_OK/GD32VW55X_Wifi_BLE_SDK/GD32VW55x_RELEASE_V1.0.2/MSDK/util/src\debug_print.c ****     if (out) {
 1095              		.loc 1 439 9
 1096 002c 0145     		li	a0,0
 1097              	.LVL134:
 448:C:/Users/stapi/OneDrive/Desktop/GD32VW553/V1_MQTT_OK/GD32VW55X_Wifi_BLE_SDK/GD32VW55x_RELEASE_V1.0.2/MSDK/util/src\debug_print.c **** }
 1098              		.loc 1 448 5 is_stmt 1
 448:C:/Users/stapi/OneDrive/Desktop/GD32VW553/V1_MQTT_OK/GD32VW55X_Wifi_BLE_SDK/GD32VW55x_RELEASE_V1.0.2/MSDK/util/src\debug_print.c **** }
 1099              		.loc 1 448 12 is_stmt 0
 1100 002e E5BF     		j	.L99
 1101              		.cfi_endproc
 1102              	.LFE372:
 1104              		.section	.rodata.print_buffer.str1.4,"aMS",@progbits,1
 1105              		.align	2
 1106              	.LC1:
 1107 0000 25303878 		.string	"%08x:"
 1107      3A00
 1108 0006 0000     		.align	2
 1109              	.LC2:
 1110 0008 20253038 		.string	" %08x"
 1110      7800
 1111 000e 0000     		.align	2
 1112              	.LC3:
 1113 0010 20253034 		.string	" %04x"
 1113      7800
 1114 0016 0000     		.align	2
 1115              	.LC4:
 1116 0018 20253032 		.string	" %02x"
 1116      7800
 1117              		.section	.text.print_buffer,"ax",@progbits
 1118              		.align	1
 1119              		.globl	print_buffer
 1121              	print_buffer:
 1122              	.LFB373:
 450:C:/Users/stapi/OneDrive/Desktop/GD32VW553/V1_MQTT_OK/GD32VW55X_Wifi_BLE_SDK/GD32VW55x_RELEASE_V1.0.2/MSDK/util/src\debug_print.c **** 
 451:C:/Users/stapi/OneDrive/Desktop/GD32VW553/V1_MQTT_OK/GD32VW55X_Wifi_BLE_SDK/GD32VW55x_RELEASE_V1.0.2/MSDK/util/src\debug_print.c **** #define MAX_LINE_LENGTH_BYTES (64)
 452:C:/Users/stapi/OneDrive/Desktop/GD32VW553/V1_MQTT_OK/GD32VW55X_Wifi_BLE_SDK/GD32VW55x_RELEASE_V1.0.2/MSDK/util/src\debug_print.c **** #define DEFAULT_LINE_LENGTH_BYTES (16)
 453:C:/Users/stapi/OneDrive/Desktop/GD32VW553/V1_MQTT_OK/GD32VW55X_Wifi_BLE_SDK/GD32VW55x_RELEASE_V1.0.2/MSDK/util/src\debug_print.c **** int print_buffer(unsigned long addr, void *data, unsigned long width, unsigned long count, unsigned
 454:C:/Users/stapi/OneDrive/Desktop/GD32VW553/V1_MQTT_OK/GD32VW55X_Wifi_BLE_SDK/GD32VW55x_RELEASE_V1.0.2/MSDK/util/src\debug_print.c **** {
 1123              		.loc 1 454 1 is_stmt 1
 1124              		.cfi_startproc
 1125              	.LVL135:
 1126 0000 17030000 		call	t0,__riscv_save_12
 1126      E7020300 
 1127              		.cfi_offset 27, -52
 1128              		.cfi_offset 26, -48
 1129              		.cfi_offset 25, -44
 1130              		.cfi_offset 24, -40
 1131              		.cfi_offset 23, -36
 1132              		.cfi_offset 22, -32
 1133              		.cfi_offset 21, -28
 1134              		.cfi_offset 20, -24
 1135              		.cfi_offset 19, -20
 1136              		.cfi_offset 18, -16
 1137              		.cfi_offset 9, -12
 1138              		.cfi_offset 8, -8
 1139              		.cfi_offset 1, -4
 1140              		.cfi_def_cfa_offset 64
 455:C:/Users/stapi/OneDrive/Desktop/GD32VW553/V1_MQTT_OK/GD32VW55X_Wifi_BLE_SDK/GD32VW55x_RELEASE_V1.0.2/MSDK/util/src\debug_print.c **** #ifdef LOG_UART
 456:C:/Users/stapi/OneDrive/Desktop/GD32VW553/V1_MQTT_OK/GD32VW55X_Wifi_BLE_SDK/GD32VW55x_RELEASE_V1.0.2/MSDK/util/src\debug_print.c ****     unsigned char linebuf[MAX_LINE_LENGTH_BYTES];
 1141              		.loc 1 456 5
 457:C:/Users/stapi/OneDrive/Desktop/GD32VW553/V1_MQTT_OK/GD32VW55X_Wifi_BLE_SDK/GD32VW55x_RELEASE_V1.0.2/MSDK/util/src\debug_print.c ****     unsigned long *uip = (void *)linebuf;
 1142              		.loc 1 457 5
 454:C:/Users/stapi/OneDrive/Desktop/GD32VW553/V1_MQTT_OK/GD32VW55X_Wifi_BLE_SDK/GD32VW55x_RELEASE_V1.0.2/MSDK/util/src\debug_print.c **** #ifdef LOG_UART
 1143              		.loc 1 454 1 is_stmt 0
 1144 0008 B684     		mv	s1,a3
 458:C:/Users/stapi/OneDrive/Desktop/GD32VW553/V1_MQTT_OK/GD32VW55X_Wifi_BLE_SDK/GD32VW55x_RELEASE_V1.0.2/MSDK/util/src\debug_print.c ****     unsigned short *usp = (void *)linebuf;
 459:C:/Users/stapi/OneDrive/Desktop/GD32VW553/V1_MQTT_OK/GD32VW55X_Wifi_BLE_SDK/GD32VW55x_RELEASE_V1.0.2/MSDK/util/src\debug_print.c ****     unsigned char *ucp = (void *)linebuf;
 460:C:/Users/stapi/OneDrive/Desktop/GD32VW553/V1_MQTT_OK/GD32VW55X_Wifi_BLE_SDK/GD32VW55x_RELEASE_V1.0.2/MSDK/util/src\debug_print.c ****     unsigned char *pdata = (unsigned char *)data;
 461:C:/Users/stapi/OneDrive/Desktop/GD32VW553/V1_MQTT_OK/GD32VW55X_Wifi_BLE_SDK/GD32VW55x_RELEASE_V1.0.2/MSDK/util/src\debug_print.c ****     int i;
 462:C:/Users/stapi/OneDrive/Desktop/GD32VW553/V1_MQTT_OK/GD32VW55X_Wifi_BLE_SDK/GD32VW55x_RELEASE_V1.0.2/MSDK/util/src\debug_print.c **** 
 463:C:/Users/stapi/OneDrive/Desktop/GD32VW553/V1_MQTT_OK/GD32VW55X_Wifi_BLE_SDK/GD32VW55x_RELEASE_V1.0.2/MSDK/util/src\debug_print.c ****     if (linelen*width > MAX_LINE_LENGTH_BYTES)
 1145              		.loc 1 463 16
 1146 000a B306C702 		mul	a3,a4,a2
 1147              	.LVL136:
 1148              		.loc 1 463 8
 1149 000e 93070004 		li	a5,64
 454:C:/Users/stapi/OneDrive/Desktop/GD32VW553/V1_MQTT_OK/GD32VW55X_Wifi_BLE_SDK/GD32VW55x_RELEASE_V1.0.2/MSDK/util/src\debug_print.c **** #ifdef LOG_UART
 1150              		.loc 1 454 1
 1151 0012 3971     		addi	sp,sp,-64
 1152              		.cfi_def_cfa_offset 128
 1153              	.LVL137:
 458:C:/Users/stapi/OneDrive/Desktop/GD32VW553/V1_MQTT_OK/GD32VW55X_Wifi_BLE_SDK/GD32VW55x_RELEASE_V1.0.2/MSDK/util/src\debug_print.c ****     unsigned short *usp = (void *)linebuf;
 1154              		.loc 1 458 5 is_stmt 1
 459:C:/Users/stapi/OneDrive/Desktop/GD32VW553/V1_MQTT_OK/GD32VW55X_Wifi_BLE_SDK/GD32VW55x_RELEASE_V1.0.2/MSDK/util/src\debug_print.c ****     unsigned char *pdata = (unsigned char *)data;
 1155              		.loc 1 459 5
 460:C:/Users/stapi/OneDrive/Desktop/GD32VW553/V1_MQTT_OK/GD32VW55X_Wifi_BLE_SDK/GD32VW55x_RELEASE_V1.0.2/MSDK/util/src\debug_print.c ****     int i;
 1156              		.loc 1 460 5
 454:C:/Users/stapi/OneDrive/Desktop/GD32VW553/V1_MQTT_OK/GD32VW55X_Wifi_BLE_SDK/GD32VW55x_RELEASE_V1.0.2/MSDK/util/src\debug_print.c **** #ifdef LOG_UART
 1157              		.loc 1 454 1 is_stmt 0
 1158 0014 2A89     		mv	s2,a0
 1159 0016 AE89     		mv	s3,a1
 1160              	.LVL138:
 461:C:/Users/stapi/OneDrive/Desktop/GD32VW553/V1_MQTT_OK/GD32VW55X_Wifi_BLE_SDK/GD32VW55x_RELEASE_V1.0.2/MSDK/util/src\debug_print.c **** 
 1161              		.loc 1 461 5 is_stmt 1
 1162              		.loc 1 463 5
 454:C:/Users/stapi/OneDrive/Desktop/GD32VW553/V1_MQTT_OK/GD32VW55X_Wifi_BLE_SDK/GD32VW55x_RELEASE_V1.0.2/MSDK/util/src\debug_print.c **** #ifdef LOG_UART
 1163              		.loc 1 454 1 is_stmt 0
 1164 0018 3284     		mv	s0,a2
 1165 001a 3A8B     		mv	s6,a4
 1166              		.loc 1 463 8
 1167 001c 63F4D700 		bleu	a3,a5,.L104
 464:C:/Users/stapi/OneDrive/Desktop/GD32VW553/V1_MQTT_OK/GD32VW55X_Wifi_BLE_SDK/GD32VW55x_RELEASE_V1.0.2/MSDK/util/src\debug_print.c ****         linelen = MAX_LINE_LENGTH_BYTES / width;
 1168              		.loc 1 464 9 is_stmt 1
 1169              		.loc 1 464 17 is_stmt 0
 1170 0020 33DBC702 		divu	s6,a5,a2
 1171              	.LVL139:
 1172              	.L104:
 465:C:/Users/stapi/OneDrive/Desktop/GD32VW553/V1_MQTT_OK/GD32VW55X_Wifi_BLE_SDK/GD32VW55x_RELEASE_V1.0.2/MSDK/util/src\debug_print.c ****     if (linelen < 1)
 1173              		.loc 1 465 5 is_stmt 1
 1174              		.loc 1 465 8 is_stmt 0
 1175 0024 63150B00 		bne	s6,zero,.L105
 466:C:/Users/stapi/OneDrive/Desktop/GD32VW553/V1_MQTT_OK/GD32VW55X_Wifi_BLE_SDK/GD32VW55x_RELEASE_V1.0.2/MSDK/util/src\debug_print.c ****         linelen = DEFAULT_LINE_LENGTH_BYTES / width;
 1176              		.loc 1 466 9 is_stmt 1
 1177              		.loc 1 466 17 is_stmt 0
 1178 0028 4147     		li	a4,16
 1179 002a 335B8702 		divu	s6,a4,s0
 1180              	.LVL140:
 1181              	.L105:
 467:C:/Users/stapi/OneDrive/Desktop/GD32VW553/V1_MQTT_OK/GD32VW55X_Wifi_BLE_SDK/GD32VW55x_RELEASE_V1.0.2/MSDK/util/src\debug_print.c **** 
 468:C:/Users/stapi/OneDrive/Desktop/GD32VW553/V1_MQTT_OK/GD32VW55X_Wifi_BLE_SDK/GD32VW55x_RELEASE_V1.0.2/MSDK/util/src\debug_print.c ****       while (count) {
 469:C:/Users/stapi/OneDrive/Desktop/GD32VW553/V1_MQTT_OK/GD32VW55X_Wifi_BLE_SDK/GD32VW55x_RELEASE_V1.0.2/MSDK/util/src\debug_print.c ****         co_printf("%08x:", addr);
 470:C:/Users/stapi/OneDrive/Desktop/GD32VW553/V1_MQTT_OK/GD32VW55X_Wifi_BLE_SDK/GD32VW55x_RELEASE_V1.0.2/MSDK/util/src\debug_print.c **** 
 471:C:/Users/stapi/OneDrive/Desktop/GD32VW553/V1_MQTT_OK/GD32VW55X_Wifi_BLE_SDK/GD32VW55x_RELEASE_V1.0.2/MSDK/util/src\debug_print.c ****         /* check for overflow condition */
 472:C:/Users/stapi/OneDrive/Desktop/GD32VW553/V1_MQTT_OK/GD32VW55X_Wifi_BLE_SDK/GD32VW55x_RELEASE_V1.0.2/MSDK/util/src\debug_print.c ****         if (count < linelen)
 473:C:/Users/stapi/OneDrive/Desktop/GD32VW553/V1_MQTT_OK/GD32VW55X_Wifi_BLE_SDK/GD32VW55x_RELEASE_V1.0.2/MSDK/util/src\debug_print.c ****             linelen = count;
 474:C:/Users/stapi/OneDrive/Desktop/GD32VW553/V1_MQTT_OK/GD32VW55X_Wifi_BLE_SDK/GD32VW55x_RELEASE_V1.0.2/MSDK/util/src\debug_print.c **** 
 475:C:/Users/stapi/OneDrive/Desktop/GD32VW553/V1_MQTT_OK/GD32VW55X_Wifi_BLE_SDK/GD32VW55x_RELEASE_V1.0.2/MSDK/util/src\debug_print.c ****         /* Copy from memory into linebuf and print hex values */
 476:C:/Users/stapi/OneDrive/Desktop/GD32VW553/V1_MQTT_OK/GD32VW55X_Wifi_BLE_SDK/GD32VW55x_RELEASE_V1.0.2/MSDK/util/src\debug_print.c ****         for (i = 0; i < linelen; i++) {
 477:C:/Users/stapi/OneDrive/Desktop/GD32VW553/V1_MQTT_OK/GD32VW55X_Wifi_BLE_SDK/GD32VW55x_RELEASE_V1.0.2/MSDK/util/src\debug_print.c ****             if (width == 4) {
 478:C:/Users/stapi/OneDrive/Desktop/GD32VW553/V1_MQTT_OK/GD32VW55X_Wifi_BLE_SDK/GD32VW55x_RELEASE_V1.0.2/MSDK/util/src\debug_print.c ****                 uip[i] = *(volatile unsigned long *)pdata;
 479:C:/Users/stapi/OneDrive/Desktop/GD32VW553/V1_MQTT_OK/GD32VW55X_Wifi_BLE_SDK/GD32VW55x_RELEASE_V1.0.2/MSDK/util/src\debug_print.c ****                 co_printf(" %08x", uip[i]);
 1182              		.loc 1 479 17
 1183 002e B70C0000 		lui	s9,%hi(.LC2)
 1184              	.LVL141:
 1185              	.L106:
 468:C:/Users/stapi/OneDrive/Desktop/GD32VW553/V1_MQTT_OK/GD32VW55X_Wifi_BLE_SDK/GD32VW55x_RELEASE_V1.0.2/MSDK/util/src\debug_print.c ****         co_printf("%08x:", addr);
 1186              		.loc 1 468 13 is_stmt 1
 1187 0032 99E4     		bne	s1,zero,.L112
 480:C:/Users/stapi/OneDrive/Desktop/GD32VW553/V1_MQTT_OK/GD32VW55X_Wifi_BLE_SDK/GD32VW55x_RELEASE_V1.0.2/MSDK/util/src\debug_print.c ****             } else if (width == 2) {
 481:C:/Users/stapi/OneDrive/Desktop/GD32VW553/V1_MQTT_OK/GD32VW55X_Wifi_BLE_SDK/GD32VW55x_RELEASE_V1.0.2/MSDK/util/src\debug_print.c ****                 usp[i] = *(volatile unsigned short *)pdata;
 482:C:/Users/stapi/OneDrive/Desktop/GD32VW553/V1_MQTT_OK/GD32VW55X_Wifi_BLE_SDK/GD32VW55x_RELEASE_V1.0.2/MSDK/util/src\debug_print.c ****                 co_printf(" %04x", usp[i]);
 483:C:/Users/stapi/OneDrive/Desktop/GD32VW553/V1_MQTT_OK/GD32VW55X_Wifi_BLE_SDK/GD32VW55x_RELEASE_V1.0.2/MSDK/util/src\debug_print.c ****             } else {
 484:C:/Users/stapi/OneDrive/Desktop/GD32VW553/V1_MQTT_OK/GD32VW55X_Wifi_BLE_SDK/GD32VW55x_RELEASE_V1.0.2/MSDK/util/src\debug_print.c ****                 ucp[i] = *(volatile unsigned char *)pdata;
 485:C:/Users/stapi/OneDrive/Desktop/GD32VW553/V1_MQTT_OK/GD32VW55X_Wifi_BLE_SDK/GD32VW55x_RELEASE_V1.0.2/MSDK/util/src\debug_print.c ****                 co_printf(" %02x", ucp[i]);
 486:C:/Users/stapi/OneDrive/Desktop/GD32VW553/V1_MQTT_OK/GD32VW55X_Wifi_BLE_SDK/GD32VW55x_RELEASE_V1.0.2/MSDK/util/src\debug_print.c ****             }
 487:C:/Users/stapi/OneDrive/Desktop/GD32VW553/V1_MQTT_OK/GD32VW55X_Wifi_BLE_SDK/GD32VW55x_RELEASE_V1.0.2/MSDK/util/src\debug_print.c ****             pdata += width;
 488:C:/Users/stapi/OneDrive/Desktop/GD32VW553/V1_MQTT_OK/GD32VW55X_Wifi_BLE_SDK/GD32VW55x_RELEASE_V1.0.2/MSDK/util/src\debug_print.c ****         }
 489:C:/Users/stapi/OneDrive/Desktop/GD32VW553/V1_MQTT_OK/GD32VW55X_Wifi_BLE_SDK/GD32VW55x_RELEASE_V1.0.2/MSDK/util/src\debug_print.c **** 
 490:C:/Users/stapi/OneDrive/Desktop/GD32VW553/V1_MQTT_OK/GD32VW55X_Wifi_BLE_SDK/GD32VW55x_RELEASE_V1.0.2/MSDK/util/src\debug_print.c **** #if 0
 491:C:/Users/stapi/OneDrive/Desktop/GD32VW553/V1_MQTT_OK/GD32VW55X_Wifi_BLE_SDK/GD32VW55x_RELEASE_V1.0.2/MSDK/util/src\debug_print.c ****         /* Print data in ASCII characters */
 492:C:/Users/stapi/OneDrive/Desktop/GD32VW553/V1_MQTT_OK/GD32VW55X_Wifi_BLE_SDK/GD32VW55x_RELEASE_V1.0.2/MSDK/util/src\debug_print.c ****         prints(NULL, "    ", 0, 0);
 493:C:/Users/stapi/OneDrive/Desktop/GD32VW553/V1_MQTT_OK/GD32VW55X_Wifi_BLE_SDK/GD32VW55x_RELEASE_V1.0.2/MSDK/util/src\debug_print.c ****         for (i = 0; i < linelen * width; i++)
 494:C:/Users/stapi/OneDrive/Desktop/GD32VW553/V1_MQTT_OK/GD32VW55X_Wifi_BLE_SDK/GD32VW55x_RELEASE_V1.0.2/MSDK/util/src\debug_print.c ****             printchar(NULL, isprint(ucp[i]) && (ucp[i] < 0x80) ? ucp[i] : '.');
 495:C:/Users/stapi/OneDrive/Desktop/GD32VW553/V1_MQTT_OK/GD32VW55X_Wifi_BLE_SDK/GD32VW55x_RELEASE_V1.0.2/MSDK/util/src\debug_print.c **** #endif
 496:C:/Users/stapi/OneDrive/Desktop/GD32VW553/V1_MQTT_OK/GD32VW55X_Wifi_BLE_SDK/GD32VW55x_RELEASE_V1.0.2/MSDK/util/src\debug_print.c **** 
 497:C:/Users/stapi/OneDrive/Desktop/GD32VW553/V1_MQTT_OK/GD32VW55X_Wifi_BLE_SDK/GD32VW55x_RELEASE_V1.0.2/MSDK/util/src\debug_print.c ****         printchar(NULL, '\n', 0);
 498:C:/Users/stapi/OneDrive/Desktop/GD32VW553/V1_MQTT_OK/GD32VW55X_Wifi_BLE_SDK/GD32VW55x_RELEASE_V1.0.2/MSDK/util/src\debug_print.c **** 
 499:C:/Users/stapi/OneDrive/Desktop/GD32VW553/V1_MQTT_OK/GD32VW55X_Wifi_BLE_SDK/GD32VW55x_RELEASE_V1.0.2/MSDK/util/src\debug_print.c ****         /* update references */
 500:C:/Users/stapi/OneDrive/Desktop/GD32VW553/V1_MQTT_OK/GD32VW55X_Wifi_BLE_SDK/GD32VW55x_RELEASE_V1.0.2/MSDK/util/src\debug_print.c ****         addr += linelen * width;
 501:C:/Users/stapi/OneDrive/Desktop/GD32VW553/V1_MQTT_OK/GD32VW55X_Wifi_BLE_SDK/GD32VW55x_RELEASE_V1.0.2/MSDK/util/src\debug_print.c ****         count -= linelen;
 502:C:/Users/stapi/OneDrive/Desktop/GD32VW553/V1_MQTT_OK/GD32VW55X_Wifi_BLE_SDK/GD32VW55x_RELEASE_V1.0.2/MSDK/util/src\debug_print.c ****     }
 503:C:/Users/stapi/OneDrive/Desktop/GD32VW553/V1_MQTT_OK/GD32VW55X_Wifi_BLE_SDK/GD32VW55x_RELEASE_V1.0.2/MSDK/util/src\debug_print.c **** #else
 504:C:/Users/stapi/OneDrive/Desktop/GD32VW553/V1_MQTT_OK/GD32VW55X_Wifi_BLE_SDK/GD32VW55x_RELEASE_V1.0.2/MSDK/util/src\debug_print.c ****     char out[512], *pout = &out[0];
 505:C:/Users/stapi/OneDrive/Desktop/GD32VW553/V1_MQTT_OK/GD32VW55X_Wifi_BLE_SDK/GD32VW55x_RELEASE_V1.0.2/MSDK/util/src\debug_print.c ****     unsigned char *pdata = (unsigned char *)data;
 506:C:/Users/stapi/OneDrive/Desktop/GD32VW553/V1_MQTT_OK/GD32VW55X_Wifi_BLE_SDK/GD32VW55x_RELEASE_V1.0.2/MSDK/util/src\debug_print.c ****     int i, space;
 507:C:/Users/stapi/OneDrive/Desktop/GD32VW553/V1_MQTT_OK/GD32VW55X_Wifi_BLE_SDK/GD32VW55x_RELEASE_V1.0.2/MSDK/util/src\debug_print.c ****     int ret = 0;
 508:C:/Users/stapi/OneDrive/Desktop/GD32VW553/V1_MQTT_OK/GD32VW55X_Wifi_BLE_SDK/GD32VW55x_RELEASE_V1.0.2/MSDK/util/src\debug_print.c **** 
 509:C:/Users/stapi/OneDrive/Desktop/GD32VW553/V1_MQTT_OK/GD32VW55X_Wifi_BLE_SDK/GD32VW55x_RELEASE_V1.0.2/MSDK/util/src\debug_print.c ****     if ((linelen * width) > MAX_LINE_LENGTH_BYTES)
 510:C:/Users/stapi/OneDrive/Desktop/GD32VW553/V1_MQTT_OK/GD32VW55X_Wifi_BLE_SDK/GD32VW55x_RELEASE_V1.0.2/MSDK/util/src\debug_print.c ****         linelen = MAX_LINE_LENGTH_BYTES / width;
 511:C:/Users/stapi/OneDrive/Desktop/GD32VW553/V1_MQTT_OK/GD32VW55X_Wifi_BLE_SDK/GD32VW55x_RELEASE_V1.0.2/MSDK/util/src\debug_print.c ****     if (linelen < 1)
 512:C:/Users/stapi/OneDrive/Desktop/GD32VW553/V1_MQTT_OK/GD32VW55X_Wifi_BLE_SDK/GD32VW55x_RELEASE_V1.0.2/MSDK/util/src\debug_print.c ****         linelen = DEFAULT_LINE_LENGTH_BYTES / width;
 513:C:/Users/stapi/OneDrive/Desktop/GD32VW553/V1_MQTT_OK/GD32VW55X_Wifi_BLE_SDK/GD32VW55x_RELEASE_V1.0.2/MSDK/util/src\debug_print.c **** 
 514:C:/Users/stapi/OneDrive/Desktop/GD32VW553/V1_MQTT_OK/GD32VW55X_Wifi_BLE_SDK/GD32VW55x_RELEASE_V1.0.2/MSDK/util/src\debug_print.c **** 
 515:C:/Users/stapi/OneDrive/Desktop/GD32VW553/V1_MQTT_OK/GD32VW55X_Wifi_BLE_SDK/GD32VW55x_RELEASE_V1.0.2/MSDK/util/src\debug_print.c ****       while (count) {
 516:C:/Users/stapi/OneDrive/Desktop/GD32VW553/V1_MQTT_OK/GD32VW55X_Wifi_BLE_SDK/GD32VW55x_RELEASE_V1.0.2/MSDK/util/src\debug_print.c ****         pout = &out[0];
 517:C:/Users/stapi/OneDrive/Desktop/GD32VW553/V1_MQTT_OK/GD32VW55X_Wifi_BLE_SDK/GD32VW55x_RELEASE_V1.0.2/MSDK/util/src\debug_print.c ****         space = 512 - 1;
 518:C:/Users/stapi/OneDrive/Desktop/GD32VW553/V1_MQTT_OK/GD32VW55X_Wifi_BLE_SDK/GD32VW55x_RELEASE_V1.0.2/MSDK/util/src\debug_print.c **** 
 519:C:/Users/stapi/OneDrive/Desktop/GD32VW553/V1_MQTT_OK/GD32VW55X_Wifi_BLE_SDK/GD32VW55x_RELEASE_V1.0.2/MSDK/util/src\debug_print.c ****         ret = co_snprintf(pout, space, "%08x:", addr);
 520:C:/Users/stapi/OneDrive/Desktop/GD32VW553/V1_MQTT_OK/GD32VW55X_Wifi_BLE_SDK/GD32VW55x_RELEASE_V1.0.2/MSDK/util/src\debug_print.c ****         space -= ret;
 521:C:/Users/stapi/OneDrive/Desktop/GD32VW553/V1_MQTT_OK/GD32VW55X_Wifi_BLE_SDK/GD32VW55x_RELEASE_V1.0.2/MSDK/util/src\debug_print.c ****         pout += ret;
 522:C:/Users/stapi/OneDrive/Desktop/GD32VW553/V1_MQTT_OK/GD32VW55X_Wifi_BLE_SDK/GD32VW55x_RELEASE_V1.0.2/MSDK/util/src\debug_print.c **** 
 523:C:/Users/stapi/OneDrive/Desktop/GD32VW553/V1_MQTT_OK/GD32VW55X_Wifi_BLE_SDK/GD32VW55x_RELEASE_V1.0.2/MSDK/util/src\debug_print.c ****         /* check for overflow condition */
 524:C:/Users/stapi/OneDrive/Desktop/GD32VW553/V1_MQTT_OK/GD32VW55X_Wifi_BLE_SDK/GD32VW55x_RELEASE_V1.0.2/MSDK/util/src\debug_print.c ****         if (count < linelen)
 525:C:/Users/stapi/OneDrive/Desktop/GD32VW553/V1_MQTT_OK/GD32VW55X_Wifi_BLE_SDK/GD32VW55x_RELEASE_V1.0.2/MSDK/util/src\debug_print.c ****             linelen = count;
 526:C:/Users/stapi/OneDrive/Desktop/GD32VW553/V1_MQTT_OK/GD32VW55X_Wifi_BLE_SDK/GD32VW55x_RELEASE_V1.0.2/MSDK/util/src\debug_print.c **** 
 527:C:/Users/stapi/OneDrive/Desktop/GD32VW553/V1_MQTT_OK/GD32VW55X_Wifi_BLE_SDK/GD32VW55x_RELEASE_V1.0.2/MSDK/util/src\debug_print.c ****         /* Copy from memory into linebuf and print hex values */
 528:C:/Users/stapi/OneDrive/Desktop/GD32VW553/V1_MQTT_OK/GD32VW55X_Wifi_BLE_SDK/GD32VW55x_RELEASE_V1.0.2/MSDK/util/src\debug_print.c ****         for (i = 0; i < linelen; i++) {
 529:C:/Users/stapi/OneDrive/Desktop/GD32VW553/V1_MQTT_OK/GD32VW55X_Wifi_BLE_SDK/GD32VW55x_RELEASE_V1.0.2/MSDK/util/src\debug_print.c ****             if (width == 4) {
 530:C:/Users/stapi/OneDrive/Desktop/GD32VW553/V1_MQTT_OK/GD32VW55X_Wifi_BLE_SDK/GD32VW55x_RELEASE_V1.0.2/MSDK/util/src\debug_print.c ****                 ret = co_snprintf(pout, space, " %08x", *(((volatile unsigned long *)pdata) + i));
 531:C:/Users/stapi/OneDrive/Desktop/GD32VW553/V1_MQTT_OK/GD32VW55X_Wifi_BLE_SDK/GD32VW55x_RELEASE_V1.0.2/MSDK/util/src\debug_print.c ****                 space -= ret;
 532:C:/Users/stapi/OneDrive/Desktop/GD32VW553/V1_MQTT_OK/GD32VW55X_Wifi_BLE_SDK/GD32VW55x_RELEASE_V1.0.2/MSDK/util/src\debug_print.c ****                 pout += ret;
 533:C:/Users/stapi/OneDrive/Desktop/GD32VW553/V1_MQTT_OK/GD32VW55X_Wifi_BLE_SDK/GD32VW55x_RELEASE_V1.0.2/MSDK/util/src\debug_print.c ****             } else if (width == 2) {
 534:C:/Users/stapi/OneDrive/Desktop/GD32VW553/V1_MQTT_OK/GD32VW55X_Wifi_BLE_SDK/GD32VW55x_RELEASE_V1.0.2/MSDK/util/src\debug_print.c ****                 ret = co_snprintf(pout, space, " %08x", *(((volatile unsigned short *)pdata) + i));
 535:C:/Users/stapi/OneDrive/Desktop/GD32VW553/V1_MQTT_OK/GD32VW55X_Wifi_BLE_SDK/GD32VW55x_RELEASE_V1.0.2/MSDK/util/src\debug_print.c ****                 space -= ret;
 536:C:/Users/stapi/OneDrive/Desktop/GD32VW553/V1_MQTT_OK/GD32VW55X_Wifi_BLE_SDK/GD32VW55x_RELEASE_V1.0.2/MSDK/util/src\debug_print.c ****                 pout += ret;
 537:C:/Users/stapi/OneDrive/Desktop/GD32VW553/V1_MQTT_OK/GD32VW55X_Wifi_BLE_SDK/GD32VW55x_RELEASE_V1.0.2/MSDK/util/src\debug_print.c ****             } else {
 538:C:/Users/stapi/OneDrive/Desktop/GD32VW553/V1_MQTT_OK/GD32VW55X_Wifi_BLE_SDK/GD32VW55x_RELEASE_V1.0.2/MSDK/util/src\debug_print.c ****                 ret = co_snprintf(pout, space, " %08x", *(((volatile unsigned char *)pdata) + i));
 539:C:/Users/stapi/OneDrive/Desktop/GD32VW553/V1_MQTT_OK/GD32VW55X_Wifi_BLE_SDK/GD32VW55x_RELEASE_V1.0.2/MSDK/util/src\debug_print.c ****                 space -= ret;
 540:C:/Users/stapi/OneDrive/Desktop/GD32VW553/V1_MQTT_OK/GD32VW55X_Wifi_BLE_SDK/GD32VW55x_RELEASE_V1.0.2/MSDK/util/src\debug_print.c ****                 pout += ret;
 541:C:/Users/stapi/OneDrive/Desktop/GD32VW553/V1_MQTT_OK/GD32VW55X_Wifi_BLE_SDK/GD32VW55x_RELEASE_V1.0.2/MSDK/util/src\debug_print.c ****             }
 542:C:/Users/stapi/OneDrive/Desktop/GD32VW553/V1_MQTT_OK/GD32VW55X_Wifi_BLE_SDK/GD32VW55x_RELEASE_V1.0.2/MSDK/util/src\debug_print.c ****             pdata += width;
 543:C:/Users/stapi/OneDrive/Desktop/GD32VW553/V1_MQTT_OK/GD32VW55X_Wifi_BLE_SDK/GD32VW55x_RELEASE_V1.0.2/MSDK/util/src\debug_print.c ****         }
 544:C:/Users/stapi/OneDrive/Desktop/GD32VW553/V1_MQTT_OK/GD32VW55X_Wifi_BLE_SDK/GD32VW55x_RELEASE_V1.0.2/MSDK/util/src\debug_print.c **** 
 545:C:/Users/stapi/OneDrive/Desktop/GD32VW553/V1_MQTT_OK/GD32VW55X_Wifi_BLE_SDK/GD32VW55x_RELEASE_V1.0.2/MSDK/util/src\debug_print.c **** #if 0
 546:C:/Users/stapi/OneDrive/Desktop/GD32VW553/V1_MQTT_OK/GD32VW55X_Wifi_BLE_SDK/GD32VW55x_RELEASE_V1.0.2/MSDK/util/src\debug_print.c ****         /* Print data in ASCII characters */
 547:C:/Users/stapi/OneDrive/Desktop/GD32VW553/V1_MQTT_OK/GD32VW55X_Wifi_BLE_SDK/GD32VW55x_RELEASE_V1.0.2/MSDK/util/src\debug_print.c ****         prints(NULL, "    ", 0, 0);
 548:C:/Users/stapi/OneDrive/Desktop/GD32VW553/V1_MQTT_OK/GD32VW55X_Wifi_BLE_SDK/GD32VW55x_RELEASE_V1.0.2/MSDK/util/src\debug_print.c ****         for (i = 0; i < linelen * width; i++)
 549:C:/Users/stapi/OneDrive/Desktop/GD32VW553/V1_MQTT_OK/GD32VW55X_Wifi_BLE_SDK/GD32VW55x_RELEASE_V1.0.2/MSDK/util/src\debug_print.c ****             printchar(NULL, isprint(ucp[i]) && (ucp[i] < 0x80) ? ucp[i] : '.');
 550:C:/Users/stapi/OneDrive/Desktop/GD32VW553/V1_MQTT_OK/GD32VW55X_Wifi_BLE_SDK/GD32VW55x_RELEASE_V1.0.2/MSDK/util/src\debug_print.c **** #endif
 551:C:/Users/stapi/OneDrive/Desktop/GD32VW553/V1_MQTT_OK/GD32VW55X_Wifi_BLE_SDK/GD32VW55x_RELEASE_V1.0.2/MSDK/util/src\debug_print.c ****         *pout = '\n';
 552:C:/Users/stapi/OneDrive/Desktop/GD32VW553/V1_MQTT_OK/GD32VW55X_Wifi_BLE_SDK/GD32VW55x_RELEASE_V1.0.2/MSDK/util/src\debug_print.c ****         space = 512 - space;
 553:C:/Users/stapi/OneDrive/Desktop/GD32VW553/V1_MQTT_OK/GD32VW55X_Wifi_BLE_SDK/GD32VW55x_RELEASE_V1.0.2/MSDK/util/src\debug_print.c ****         trace_console(space, (uint8_t *)out);
 554:C:/Users/stapi/OneDrive/Desktop/GD32VW553/V1_MQTT_OK/GD32VW55X_Wifi_BLE_SDK/GD32VW55x_RELEASE_V1.0.2/MSDK/util/src\debug_print.c **** 
 555:C:/Users/stapi/OneDrive/Desktop/GD32VW553/V1_MQTT_OK/GD32VW55X_Wifi_BLE_SDK/GD32VW55x_RELEASE_V1.0.2/MSDK/util/src\debug_print.c ****         /* update references */
 556:C:/Users/stapi/OneDrive/Desktop/GD32VW553/V1_MQTT_OK/GD32VW55X_Wifi_BLE_SDK/GD32VW55x_RELEASE_V1.0.2/MSDK/util/src\debug_print.c ****         addr += linelen * width;
 557:C:/Users/stapi/OneDrive/Desktop/GD32VW553/V1_MQTT_OK/GD32VW55X_Wifi_BLE_SDK/GD32VW55x_RELEASE_V1.0.2/MSDK/util/src\debug_print.c ****         count -= linelen;
 558:C:/Users/stapi/OneDrive/Desktop/GD32VW553/V1_MQTT_OK/GD32VW55X_Wifi_BLE_SDK/GD32VW55x_RELEASE_V1.0.2/MSDK/util/src\debug_print.c ****     }
 559:C:/Users/stapi/OneDrive/Desktop/GD32VW553/V1_MQTT_OK/GD32VW55X_Wifi_BLE_SDK/GD32VW55x_RELEASE_V1.0.2/MSDK/util/src\debug_print.c **** #endif
 560:C:/Users/stapi/OneDrive/Desktop/GD32VW553/V1_MQTT_OK/GD32VW55X_Wifi_BLE_SDK/GD32VW55x_RELEASE_V1.0.2/MSDK/util/src\debug_print.c **** 
 561:C:/Users/stapi/OneDrive/Desktop/GD32VW553/V1_MQTT_OK/GD32VW55X_Wifi_BLE_SDK/GD32VW55x_RELEASE_V1.0.2/MSDK/util/src\debug_print.c ****     return 0;
 1188              		.loc 1 561 5
 562:C:/Users/stapi/OneDrive/Desktop/GD32VW553/V1_MQTT_OK/GD32VW55X_Wifi_BLE_SDK/GD32VW55x_RELEASE_V1.0.2/MSDK/util/src\debug_print.c **** }
 1189              		.loc 1 562 1 is_stmt 0
 1190 0034 0145     		li	a0,0
 1191 0036 2161     		addi	sp,sp,64
 1192              		.cfi_remember_state
 1193              		.cfi_def_cfa_offset 0
 1194              	.LVL142:
 1195 0038 17030000 		tail	__riscv_restore_12
 1195      67000300 
 1196              		.cfi_restore 27
 1197              		.cfi_restore 26
 1198              		.cfi_restore 25
 1199              		.cfi_restore 24
 1200              		.cfi_restore 23
 1201              		.cfi_restore 22
 1202              		.cfi_restore 21
 1203              		.cfi_restore 20
 1204              		.cfi_restore 19
 1205              		.cfi_restore 18
 1206              		.cfi_restore 9
 1207              		.cfi_restore 8
 1208              		.cfi_restore 1
 1209              		.cfi_def_cfa_offset -64
 1210              	.LVL143:
 1211              	.L112:
 1212              		.cfi_restore_state
 469:C:/Users/stapi/OneDrive/Desktop/GD32VW553/V1_MQTT_OK/GD32VW55X_Wifi_BLE_SDK/GD32VW55x_RELEASE_V1.0.2/MSDK/util/src\debug_print.c **** 
 1213              		.loc 1 469 9 is_stmt 1
 1214 0040 B7070000 		lui	a5,%hi(.LC1)
 1215 0044 8A8B     		mv	s7,sp
 1216 0046 CA85     		mv	a1,s2
 1217 0048 13850700 		addi	a0,a5,%lo(.LC1)
 1218 004c 97000000 		call	co_printf
 1218      E7800000 
 1219              	.LVL144:
 472:C:/Users/stapi/OneDrive/Desktop/GD32VW553/V1_MQTT_OK/GD32VW55X_Wifi_BLE_SDK/GD32VW55x_RELEASE_V1.0.2/MSDK/util/src\debug_print.c ****             linelen = count;
 1220              		.loc 1 472 9
 476:C:/Users/stapi/OneDrive/Desktop/GD32VW553/V1_MQTT_OK/GD32VW55X_Wifi_BLE_SDK/GD32VW55x_RELEASE_V1.0.2/MSDK/util/src\debug_print.c ****             if (width == 4) {
 1221              		.loc 1 476 9 is_stmt 0
 1222 0054 DE8A     		mv	s5,s7
 1223 0056 4E8C     		mv	s8,s3
 476:C:/Users/stapi/OneDrive/Desktop/GD32VW553/V1_MQTT_OK/GD32VW55X_Wifi_BLE_SDK/GD32VW55x_RELEASE_V1.0.2/MSDK/util/src\debug_print.c ****             if (width == 4) {
 1224              		.loc 1 476 16
 1225 0058 014A     		li	s4,0
 1226 005a 5E8D     		mv	s10,s7
 480:C:/Users/stapi/OneDrive/Desktop/GD32VW553/V1_MQTT_OK/GD32VW55X_Wifi_BLE_SDK/GD32VW55x_RELEASE_V1.0.2/MSDK/util/src\debug_print.c ****                 usp[i] = *(volatile unsigned short *)pdata;
 1227              		.loc 1 480 23
 1228 005c 894D     		li	s11,2
 1229 005e 335B9B0A 		minu	s6,s6,s1
 1230              	.LVL145:
 476:C:/Users/stapi/OneDrive/Desktop/GD32VW553/V1_MQTT_OK/GD32VW55X_Wifi_BLE_SDK/GD32VW55x_RELEASE_V1.0.2/MSDK/util/src\debug_print.c ****             if (width == 4) {
 1231              		.loc 1 476 9 is_stmt 1
 1232              	.L107:
 476:C:/Users/stapi/OneDrive/Desktop/GD32VW553/V1_MQTT_OK/GD32VW55X_Wifi_BLE_SDK/GD32VW55x_RELEASE_V1.0.2/MSDK/util/src\debug_print.c ****             if (width == 4) {
 1233              		.loc 1 476 21 discriminator 1
 476:C:/Users/stapi/OneDrive/Desktop/GD32VW553/V1_MQTT_OK/GD32VW55X_Wifi_BLE_SDK/GD32VW55x_RELEASE_V1.0.2/MSDK/util/src\debug_print.c ****             if (width == 4) {
 1234              		.loc 1 476 9 is_stmt 0 discriminator 1
 1235 0062 631E6A01 		bne	s4,s6,.L111
 1236 0066 330A8B02 		mul	s4,s6,s0
 1237              	.LVL146:
 1238              	.LBB29:
 1239              	.LBB30:
 121:C:/Users/stapi/OneDrive/Desktop/GD32VW553/V1_MQTT_OK/GD32VW55X_Wifi_BLE_SDK/GD32VW55x_RELEASE_V1.0.2/MSDK/util/src\debug_print.c ****     } else if ((uint32_t)str < USART_BASE) {
 1240              		.loc 1 121 9
 1241 006a 2945     		li	a0,10
 1242 006c 97000000 		call	log_uart_putc_noint
 1242      E7800000 
 1243              	.LVL147:
 1244              	.LBE30:
 1245              	.LBE29:
 501:C:/Users/stapi/OneDrive/Desktop/GD32VW553/V1_MQTT_OK/GD32VW55X_Wifi_BLE_SDK/GD32VW55x_RELEASE_V1.0.2/MSDK/util/src\debug_print.c ****     }
 1246              		.loc 1 501 15
 1247 0074 B3846441 		sub	s1,s1,s6
 1248              	.LVL148:
 1249 0078 D299     		add	s3,s3,s4
 497:C:/Users/stapi/OneDrive/Desktop/GD32VW553/V1_MQTT_OK/GD32VW55X_Wifi_BLE_SDK/GD32VW55x_RELEASE_V1.0.2/MSDK/util/src\debug_print.c **** 
 1250              		.loc 1 497 9 is_stmt 1
 1251              	.LVL149:
 1252              	.LBB32:
 1253              	.LBB31:
 120:C:/Users/stapi/OneDrive/Desktop/GD32VW553/V1_MQTT_OK/GD32VW55X_Wifi_BLE_SDK/GD32VW55x_RELEASE_V1.0.2/MSDK/util/src\debug_print.c ****         log_uart_putc_noint((char)c);
 1254              		.loc 1 120 5
 121:C:/Users/stapi/OneDrive/Desktop/GD32VW553/V1_MQTT_OK/GD32VW55X_Wifi_BLE_SDK/GD32VW55x_RELEASE_V1.0.2/MSDK/util/src\debug_print.c ****     } else if ((uint32_t)str < USART_BASE) {
 1255              		.loc 1 121 9
 1256              	.LBE31:
 1257              	.LBE32:
 500:C:/Users/stapi/OneDrive/Desktop/GD32VW553/V1_MQTT_OK/GD32VW55X_Wifi_BLE_SDK/GD32VW55x_RELEASE_V1.0.2/MSDK/util/src\debug_print.c ****         count -= linelen;
 1258              		.loc 1 500 9
 500:C:/Users/stapi/OneDrive/Desktop/GD32VW553/V1_MQTT_OK/GD32VW55X_Wifi_BLE_SDK/GD32VW55x_RELEASE_V1.0.2/MSDK/util/src\debug_print.c ****         count -= linelen;
 1259              		.loc 1 500 14 is_stmt 0
 1260 007a 5299     		add	s2,s2,s4
 1261              	.LVL150:
 501:C:/Users/stapi/OneDrive/Desktop/GD32VW553/V1_MQTT_OK/GD32VW55X_Wifi_BLE_SDK/GD32VW55x_RELEASE_V1.0.2/MSDK/util/src\debug_print.c ****     }
 1262              		.loc 1 501 9 is_stmt 1
 1263 007c 5DBF     		j	.L106
 1264              	.LVL151:
 1265              	.L111:
 477:C:/Users/stapi/OneDrive/Desktop/GD32VW553/V1_MQTT_OK/GD32VW55X_Wifi_BLE_SDK/GD32VW55x_RELEASE_V1.0.2/MSDK/util/src\debug_print.c ****                 uip[i] = *(volatile unsigned long *)pdata;
 1266              		.loc 1 477 13
 477:C:/Users/stapi/OneDrive/Desktop/GD32VW553/V1_MQTT_OK/GD32VW55X_Wifi_BLE_SDK/GD32VW55x_RELEASE_V1.0.2/MSDK/util/src\debug_print.c ****                 uip[i] = *(volatile unsigned long *)pdata;
 1267              		.loc 1 477 16 is_stmt 0
 1268 007e 9147     		li	a5,4
 1269 0080 6311F402 		bne	s0,a5,.L108
 478:C:/Users/stapi/OneDrive/Desktop/GD32VW553/V1_MQTT_OK/GD32VW55X_Wifi_BLE_SDK/GD32VW55x_RELEASE_V1.0.2/MSDK/util/src\debug_print.c ****                 co_printf(" %08x", uip[i]);
 1270              		.loc 1 478 17 is_stmt 1
 478:C:/Users/stapi/OneDrive/Desktop/GD32VW553/V1_MQTT_OK/GD32VW55X_Wifi_BLE_SDK/GD32VW55x_RELEASE_V1.0.2/MSDK/util/src\debug_print.c ****                 co_printf(" %08x", uip[i]);
 1271              		.loc 1 478 26 is_stmt 0
 1272 0084 83250C00 		lw	a1,0(s8)
 479:C:/Users/stapi/OneDrive/Desktop/GD32VW553/V1_MQTT_OK/GD32VW55X_Wifi_BLE_SDK/GD32VW55x_RELEASE_V1.0.2/MSDK/util/src\debug_print.c ****             } else if (width == 2) {
 1273              		.loc 1 479 17
 1274 0088 13850C00 		addi	a0,s9,%lo(.LC2)
 478:C:/Users/stapi/OneDrive/Desktop/GD32VW553/V1_MQTT_OK/GD32VW55X_Wifi_BLE_SDK/GD32VW55x_RELEASE_V1.0.2/MSDK/util/src\debug_print.c ****                 co_printf(" %08x", uip[i]);
 1275              		.loc 1 478 24
 1276 008c 23A0BB00 		sw	a1,0(s7)
 479:C:/Users/stapi/OneDrive/Desktop/GD32VW553/V1_MQTT_OK/GD32VW55X_Wifi_BLE_SDK/GD32VW55x_RELEASE_V1.0.2/MSDK/util/src\debug_print.c ****             } else if (width == 2) {
 1277              		.loc 1 479 17 is_stmt 1
 1278              	.L115:
 485:C:/Users/stapi/OneDrive/Desktop/GD32VW553/V1_MQTT_OK/GD32VW55X_Wifi_BLE_SDK/GD32VW55x_RELEASE_V1.0.2/MSDK/util/src\debug_print.c ****             }
 1279              		.loc 1 485 17 is_stmt 0
 1280 0090 97000000 		call	co_printf
 1280      E7800000 
 1281              	.LVL152:
 487:C:/Users/stapi/OneDrive/Desktop/GD32VW553/V1_MQTT_OK/GD32VW55X_Wifi_BLE_SDK/GD32VW55x_RELEASE_V1.0.2/MSDK/util/src\debug_print.c ****         }
 1282              		.loc 1 487 13 is_stmt 1
 487:C:/Users/stapi/OneDrive/Desktop/GD32VW553/V1_MQTT_OK/GD32VW55X_Wifi_BLE_SDK/GD32VW55x_RELEASE_V1.0.2/MSDK/util/src\debug_print.c ****         }
 1283              		.loc 1 487 19 is_stmt 0
 1284 0098 229C     		add	s8,s8,s0
 1285              	.LVL153:
 476:C:/Users/stapi/OneDrive/Desktop/GD32VW553/V1_MQTT_OK/GD32VW55X_Wifi_BLE_SDK/GD32VW55x_RELEASE_V1.0.2/MSDK/util/src\debug_print.c ****             if (width == 4) {
 1286              		.loc 1 476 34 is_stmt 1
 476:C:/Users/stapi/OneDrive/Desktop/GD32VW553/V1_MQTT_OK/GD32VW55X_Wifi_BLE_SDK/GD32VW55x_RELEASE_V1.0.2/MSDK/util/src\debug_print.c ****             if (width == 4) {
 1287              		.loc 1 476 35 is_stmt 0
 1288 009a 050A     		addi	s4,s4,1
 1289              	.LVL154:
 1290 009c 910B     		addi	s7,s7,4
 1291 009e 890A     		addi	s5,s5,2
 1292 00a0 C9B7     		j	.L107
 1293              	.L108:
 480:C:/Users/stapi/OneDrive/Desktop/GD32VW553/V1_MQTT_OK/GD32VW55X_Wifi_BLE_SDK/GD32VW55x_RELEASE_V1.0.2/MSDK/util/src\debug_print.c ****                 usp[i] = *(volatile unsigned short *)pdata;
 1294              		.loc 1 480 20 is_stmt 1
 480:C:/Users/stapi/OneDrive/Desktop/GD32VW553/V1_MQTT_OK/GD32VW55X_Wifi_BLE_SDK/GD32VW55x_RELEASE_V1.0.2/MSDK/util/src\debug_print.c ****                 usp[i] = *(volatile unsigned short *)pdata;
 1295              		.loc 1 480 23 is_stmt 0
 1296 00a2 631DB401 		bne	s0,s11,.L110
 481:C:/Users/stapi/OneDrive/Desktop/GD32VW553/V1_MQTT_OK/GD32VW55X_Wifi_BLE_SDK/GD32VW55x_RELEASE_V1.0.2/MSDK/util/src\debug_print.c ****                 co_printf(" %04x", usp[i]);
 1297              		.loc 1 481 17 is_stmt 1
 481:C:/Users/stapi/OneDrive/Desktop/GD32VW553/V1_MQTT_OK/GD32VW55X_Wifi_BLE_SDK/GD32VW55x_RELEASE_V1.0.2/MSDK/util/src\debug_print.c ****                 co_printf(" %04x", usp[i]);
 1298              		.loc 1 481 26 is_stmt 0
 1299 00a6 83550C00 		lhu	a1,0(s8)
 482:C:/Users/stapi/OneDrive/Desktop/GD32VW553/V1_MQTT_OK/GD32VW55X_Wifi_BLE_SDK/GD32VW55x_RELEASE_V1.0.2/MSDK/util/src\debug_print.c ****             } else {
 1300              		.loc 1 482 17
 1301 00aa B7070000 		lui	a5,%hi(.LC3)
 1302 00ae 13850700 		addi	a0,a5,%lo(.LC3)
 481:C:/Users/stapi/OneDrive/Desktop/GD32VW553/V1_MQTT_OK/GD32VW55X_Wifi_BLE_SDK/GD32VW55x_RELEASE_V1.0.2/MSDK/util/src\debug_print.c ****                 co_printf(" %04x", usp[i]);
 1303              		.loc 1 481 26
 1304 00b2 B3C50508 		zext.h	a1,a1
 481:C:/Users/stapi/OneDrive/Desktop/GD32VW553/V1_MQTT_OK/GD32VW55X_Wifi_BLE_SDK/GD32VW55x_RELEASE_V1.0.2/MSDK/util/src\debug_print.c ****                 co_printf(" %04x", usp[i]);
 1305              		.loc 1 481 24
 1306 00b6 2390BA00 		sh	a1,0(s5)
 482:C:/Users/stapi/OneDrive/Desktop/GD32VW553/V1_MQTT_OK/GD32VW55X_Wifi_BLE_SDK/GD32VW55x_RELEASE_V1.0.2/MSDK/util/src\debug_print.c ****             } else {
 1307              		.loc 1 482 17 is_stmt 1
 1308 00ba D9BF     		j	.L115
 1309              	.L110:
 484:C:/Users/stapi/OneDrive/Desktop/GD32VW553/V1_MQTT_OK/GD32VW55X_Wifi_BLE_SDK/GD32VW55x_RELEASE_V1.0.2/MSDK/util/src\debug_print.c ****                 co_printf(" %02x", ucp[i]);
 1310              		.loc 1 484 17
 484:C:/Users/stapi/OneDrive/Desktop/GD32VW553/V1_MQTT_OK/GD32VW55X_Wifi_BLE_SDK/GD32VW55x_RELEASE_V1.0.2/MSDK/util/src\debug_print.c ****                 co_printf(" %02x", ucp[i]);
 1311              		.loc 1 484 26 is_stmt 0
 1312 00bc 83450C00 		lbu	a1,0(s8)
 484:C:/Users/stapi/OneDrive/Desktop/GD32VW553/V1_MQTT_OK/GD32VW55X_Wifi_BLE_SDK/GD32VW55x_RELEASE_V1.0.2/MSDK/util/src\debug_print.c ****                 co_printf(" %02x", ucp[i]);
 1313              		.loc 1 484 24
 1314 00c0 33064D01 		add	a2,s10,s4
 485:C:/Users/stapi/OneDrive/Desktop/GD32VW553/V1_MQTT_OK/GD32VW55X_Wifi_BLE_SDK/GD32VW55x_RELEASE_V1.0.2/MSDK/util/src\debug_print.c ****             }
 1315              		.loc 1 485 17
 1316 00c4 B7070000 		lui	a5,%hi(.LC4)
 484:C:/Users/stapi/OneDrive/Desktop/GD32VW553/V1_MQTT_OK/GD32VW55X_Wifi_BLE_SDK/GD32VW55x_RELEASE_V1.0.2/MSDK/util/src\debug_print.c ****                 co_printf(" %02x", ucp[i]);
 1317              		.loc 1 484 26
 1318 00c8 93F5F50F 		andi	a1,a1,0xff
 484:C:/Users/stapi/OneDrive/Desktop/GD32VW553/V1_MQTT_OK/GD32VW55X_Wifi_BLE_SDK/GD32VW55x_RELEASE_V1.0.2/MSDK/util/src\debug_print.c ****                 co_printf(" %02x", ucp[i]);
 1319              		.loc 1 484 24
 1320 00cc 2300B600 		sb	a1,0(a2)
 485:C:/Users/stapi/OneDrive/Desktop/GD32VW553/V1_MQTT_OK/GD32VW55X_Wifi_BLE_SDK/GD32VW55x_RELEASE_V1.0.2/MSDK/util/src\debug_print.c ****             }
 1321              		.loc 1 485 17 is_stmt 1
 1322 00d0 13850700 		addi	a0,a5,%lo(.LC4)
 1323 00d4 75BF     		j	.L115
 1324              		.cfi_endproc
 1325              	.LFE373:
 1327              		.section	.rodata.debug_print_dump_data.str1.4,"aMS",@progbits,1
 1328              		.align	2
 1329              	.LC5:
 1330 0000 3D3D3D20 		.string	"=== %s ===\r\n"
 1330      2573203D 
 1330      3D3D0D0A 
 1330      00
 1331              		.section	.text.debug_print_dump_data,"ax",@progbits
 1332              		.align	1
 1333              		.globl	debug_print_dump_data
 1335              	debug_print_dump_data:
 1336              	.LFB374:
 563:C:/Users/stapi/OneDrive/Desktop/GD32VW553/V1_MQTT_OK/GD32VW55X_Wifi_BLE_SDK/GD32VW55x_RELEASE_V1.0.2/MSDK/util/src\debug_print.c **** 
 564:C:/Users/stapi/OneDrive/Desktop/GD32VW553/V1_MQTT_OK/GD32VW55X_Wifi_BLE_SDK/GD32VW55x_RELEASE_V1.0.2/MSDK/util/src\debug_print.c **** void debug_print_dump_data(char *title, char *mem, int mem_size)
 565:C:/Users/stapi/OneDrive/Desktop/GD32VW553/V1_MQTT_OK/GD32VW55X_Wifi_BLE_SDK/GD32VW55x_RELEASE_V1.0.2/MSDK/util/src\debug_print.c **** {
 1337              		.loc 1 565 1
 1338              		.cfi_startproc
 1339              	.LVL155:
 1340 0000 17030000 		call	t0,__riscv_save_1
 1340      E7020300 
 1341              		.cfi_offset 8, -8
 1342              		.cfi_offset 1, -4
 1343              		.cfi_def_cfa_offset 16
 566:C:/Users/stapi/OneDrive/Desktop/GD32VW553/V1_MQTT_OK/GD32VW55X_Wifi_BLE_SDK/GD32VW55x_RELEASE_V1.0.2/MSDK/util/src\debug_print.c ****     if (title)
 1344              		.loc 1 566 5
 565:C:/Users/stapi/OneDrive/Desktop/GD32VW553/V1_MQTT_OK/GD32VW55X_Wifi_BLE_SDK/GD32VW55x_RELEASE_V1.0.2/MSDK/util/src\debug_print.c ****     if (title)
 1345              		.loc 1 565 1 is_stmt 0
 1346 0008 4111     		addi	sp,sp,-16
 1347              		.cfi_def_cfa_offset 32
 565:C:/Users/stapi/OneDrive/Desktop/GD32VW553/V1_MQTT_OK/GD32VW55X_Wifi_BLE_SDK/GD32VW55x_RELEASE_V1.0.2/MSDK/util/src\debug_print.c ****     if (title)
 1348              		.loc 1 565 1
 1349 000a 2E84     		mv	s0,a1
 1350 000c B286     		mv	a3,a2
 1351              		.loc 1 566 8
 1352 000e 01CD     		beq	a0,zero,.L117
 567:C:/Users/stapi/OneDrive/Desktop/GD32VW553/V1_MQTT_OK/GD32VW55X_Wifi_BLE_SDK/GD32VW55x_RELEASE_V1.0.2/MSDK/util/src\debug_print.c ****         co_printf("=== %s ===\r\n", title);
 1353              		.loc 1 567 9
 1354 0010 AA85     		mv	a1,a0
 1355              	.LVL156:
 1356 0012 37050000 		lui	a0,%hi(.LC5)
 1357              	.LVL157:
 1358 0016 13050500 		addi	a0,a0,%lo(.LC5)
 1359 001a 32C6     		sw	a2,12(sp)
 1360              		.loc 1 567 9 is_stmt 1
 1361 001c 97000000 		call	co_printf
 1361      E7800000 
 1362              	.LVL158:
 1363 0024 B246     		lw	a3,12(sp)
 1364              	.LVL159:
 1365              	.L117:
 568:C:/Users/stapi/OneDrive/Desktop/GD32VW553/V1_MQTT_OK/GD32VW55X_Wifi_BLE_SDK/GD32VW55x_RELEASE_V1.0.2/MSDK/util/src\debug_print.c ****     if (mem_size == 0) return;
 1366              		.loc 1 568 5
 1367              		.loc 1 568 8 is_stmt 0
 1368 0026 89CA     		beq	a3,zero,.L116
 569:C:/Users/stapi/OneDrive/Desktop/GD32VW553/V1_MQTT_OK/GD32VW55X_Wifi_BLE_SDK/GD32VW55x_RELEASE_V1.0.2/MSDK/util/src\debug_print.c ****     print_buffer((unsigned long)mem, mem, 1, mem_size, 0);
 1369              		.loc 1 569 5 is_stmt 1
 1370 0028 0147     		li	a4,0
 1371 002a 0546     		li	a2,1
 1372 002c A285     		mv	a1,s0
 1373 002e 2285     		mv	a0,s0
 1374 0030 97000000 		call	print_buffer
 1374      E7800000 
 1375              	.LVL160:
 1376              	.L116:
 570:C:/Users/stapi/OneDrive/Desktop/GD32VW553/V1_MQTT_OK/GD32VW55X_Wifi_BLE_SDK/GD32VW55x_RELEASE_V1.0.2/MSDK/util/src\debug_print.c **** }
 1377              		.loc 1 570 1 is_stmt 0
 1378 0038 4101     		addi	sp,sp,16
 1379              		.cfi_def_cfa_offset 0
 1380 003a 17030000 		tail	__riscv_restore_1
 1380      67000300 
 1381              		.cfi_restore 8
 1382              		.cfi_restore 1
 1383              		.cfi_def_cfa_offset -16
 1384              		.cfi_endproc
 1385              	.LFE374:
 1387              		.section	.rodata.str2hex.str1.4,"aMS",@progbits,1
 1388              		.align	2
 1389              	.LC6:
 1390 0000 633A2563 		.string	"c:%c\r\n"
 1390      0D0A00
 1391              		.section	.text.str2hex,"ax",@progbits
 1392              		.align	1
 1393              		.globl	str2hex
 1395              	str2hex:
 1396              	.LFB375:
 571:C:/Users/stapi/OneDrive/Desktop/GD32VW553/V1_MQTT_OK/GD32VW55X_Wifi_BLE_SDK/GD32VW55x_RELEASE_V1.0.2/MSDK/util/src\debug_print.c **** 
 572:C:/Users/stapi/OneDrive/Desktop/GD32VW553/V1_MQTT_OK/GD32VW55X_Wifi_BLE_SDK/GD32VW55x_RELEASE_V1.0.2/MSDK/util/src\debug_print.c **** int str2hex(char *input, int input_len, unsigned char *output, int output_len)
 573:C:/Users/stapi/OneDrive/Desktop/GD32VW553/V1_MQTT_OK/GD32VW55X_Wifi_BLE_SDK/GD32VW55x_RELEASE_V1.0.2/MSDK/util/src\debug_print.c **** {
 1397              		.loc 1 573 1 is_stmt 1
 1398              		.cfi_startproc
 1399              	.LVL161:
 574:C:/Users/stapi/OneDrive/Desktop/GD32VW553/V1_MQTT_OK/GD32VW55X_Wifi_BLE_SDK/GD32VW55x_RELEASE_V1.0.2/MSDK/util/src\debug_print.c ****     int index = 0;
 1400              		.loc 1 574 5
 575:C:/Users/stapi/OneDrive/Desktop/GD32VW553/V1_MQTT_OK/GD32VW55X_Wifi_BLE_SDK/GD32VW55x_RELEASE_V1.0.2/MSDK/util/src\debug_print.c ****     char iter_char = 0;
 1401              		.loc 1 575 5
 576:C:/Users/stapi/OneDrive/Desktop/GD32VW553/V1_MQTT_OK/GD32VW55X_Wifi_BLE_SDK/GD32VW55x_RELEASE_V1.0.2/MSDK/util/src\debug_print.c **** 
 577:C:/Users/stapi/OneDrive/Desktop/GD32VW553/V1_MQTT_OK/GD32VW55X_Wifi_BLE_SDK/GD32VW55x_RELEASE_V1.0.2/MSDK/util/src\debug_print.c ****     if (input == NULL || input_len <= 0 || input_len % 2 != 0 ||
 1402              		.loc 1 577 5
 1403              		.loc 1 577 8 is_stmt 0
 1404 0000 65CD     		beq	a0,zero,.L136
 573:C:/Users/stapi/OneDrive/Desktop/GD32VW553/V1_MQTT_OK/GD32VW55X_Wifi_BLE_SDK/GD32VW55x_RELEASE_V1.0.2/MSDK/util/src\debug_print.c ****     int index = 0;
 1405              		.loc 1 573 1 discriminator 1
 1406 0002 17030000 		call	t0,__riscv_save_3
 1406      E7020300 
 1407              		.cfi_offset 18, -16
 1408              		.cfi_offset 9, -12
 1409              		.cfi_offset 8, -8
 1410              		.cfi_offset 1, -4
 1411              		.cfi_def_cfa_offset 16
 1412 000a 2A89     		mv	s2,a0
 1413 000c 2E84     		mv	s0,a1
 578:C:/Users/stapi/OneDrive/Desktop/GD32VW553/V1_MQTT_OK/GD32VW55X_Wifi_BLE_SDK/GD32VW55x_RELEASE_V1.0.2/MSDK/util/src\debug_print.c ****         output == NULL || output_len < input_len / 2) {
 579:C:/Users/stapi/OneDrive/Desktop/GD32VW553/V1_MQTT_OK/GD32VW55X_Wifi_BLE_SDK/GD32VW55x_RELEASE_V1.0.2/MSDK/util/src\debug_print.c ****         return -1;
 1414              		.loc 1 579 16 discriminator 1
 1415 000e 7D55     		li	a0,-1
 1416              	.LVL162:
 577:C:/Users/stapi/OneDrive/Desktop/GD32VW553/V1_MQTT_OK/GD32VW55X_Wifi_BLE_SDK/GD32VW55x_RELEASE_V1.0.2/MSDK/util/src\debug_print.c ****         output == NULL || output_len < input_len / 2) {
 1417              		.loc 1 577 23 discriminator 1
 1418 0010 6350B00E 		ble	a1,zero,.L126
 577:C:/Users/stapi/OneDrive/Desktop/GD32VW553/V1_MQTT_OK/GD32VW55X_Wifi_BLE_SDK/GD32VW55x_RELEASE_V1.0.2/MSDK/util/src\debug_print.c ****         output == NULL || output_len < input_len / 2) {
 1419              		.loc 1 577 58 discriminator 2
 1420 0014 93F71500 		andi	a5,a1,1
 577:C:/Users/stapi/OneDrive/Desktop/GD32VW553/V1_MQTT_OK/GD32VW55X_Wifi_BLE_SDK/GD32VW55x_RELEASE_V1.0.2/MSDK/util/src\debug_print.c ****         output == NULL || output_len < input_len / 2) {
 1421              		.loc 1 577 41 discriminator 2
 1422 0018 E1EF     		bne	a5,zero,.L126
 1423 001a B284     		mv	s1,a2
 577:C:/Users/stapi/OneDrive/Desktop/GD32VW553/V1_MQTT_OK/GD32VW55X_Wifi_BLE_SDK/GD32VW55x_RELEASE_V1.0.2/MSDK/util/src\debug_print.c ****         output == NULL || output_len < input_len / 2) {
 1424              		.loc 1 577 63 discriminator 3
 1425 001c 71CA     		beq	a2,zero,.L126
 578:C:/Users/stapi/OneDrive/Desktop/GD32VW553/V1_MQTT_OK/GD32VW55X_Wifi_BLE_SDK/GD32VW55x_RELEASE_V1.0.2/MSDK/util/src\debug_print.c ****         output == NULL || output_len < input_len / 2) {
 1426              		.loc 1 578 50
 1427 001e 93D71540 		srai	a5,a1,1
 1428 0022 3686     		mv	a2,a3
 1429              	.LVL163:
 578:C:/Users/stapi/OneDrive/Desktop/GD32VW553/V1_MQTT_OK/GD32VW55X_Wifi_BLE_SDK/GD32VW55x_RELEASE_V1.0.2/MSDK/util/src\debug_print.c ****         output == NULL || output_len < input_len / 2) {
 1430              		.loc 1 578 24
 1431 0024 63C6F60C 		bgt	a5,a3,.L126
 580:C:/Users/stapi/OneDrive/Desktop/GD32VW553/V1_MQTT_OK/GD32VW55X_Wifi_BLE_SDK/GD32VW55x_RELEASE_V1.0.2/MSDK/util/src\debug_print.c ****     }
 581:C:/Users/stapi/OneDrive/Desktop/GD32VW553/V1_MQTT_OK/GD32VW55X_Wifi_BLE_SDK/GD32VW55x_RELEASE_V1.0.2/MSDK/util/src\debug_print.c **** 
 582:C:/Users/stapi/OneDrive/Desktop/GD32VW553/V1_MQTT_OK/GD32VW55X_Wifi_BLE_SDK/GD32VW55x_RELEASE_V1.0.2/MSDK/util/src\debug_print.c ****     sys_memset(output, 0, output_len);
 1432              		.loc 1 582 5 is_stmt 1
 1433 0028 8145     		li	a1,0
 1434              	.LVL164:
 1435 002a 2685     		mv	a0,s1
 1436 002c 97000000 		call	sys_memset
 1436      E7800000 
 1437              	.LVL165:
 583:C:/Users/stapi/OneDrive/Desktop/GD32VW553/V1_MQTT_OK/GD32VW55X_Wifi_BLE_SDK/GD32VW55x_RELEASE_V1.0.2/MSDK/util/src\debug_print.c **** 
 584:C:/Users/stapi/OneDrive/Desktop/GD32VW553/V1_MQTT_OK/GD32VW55X_Wifi_BLE_SDK/GD32VW55x_RELEASE_V1.0.2/MSDK/util/src\debug_print.c ****     for (index = 0; index < input_len; index += 2) {
 1438              		.loc 1 584 5
 1439              		.loc 1 584 21
 1440 0034 CA86     		mv	a3,s2
 1441              		.loc 1 584 16 is_stmt 0
 1442 0036 0146     		li	a2,0
 585:C:/Users/stapi/OneDrive/Desktop/GD32VW553/V1_MQTT_OK/GD32VW55X_Wifi_BLE_SDK/GD32VW55x_RELEASE_V1.0.2/MSDK/util/src\debug_print.c ****         if (input[index] >= '0' && input[index] <= '9') {
 1443              		.loc 1 585 12
 1444 0038 2543     		li	t1,9
 586:C:/Users/stapi/OneDrive/Desktop/GD32VW553/V1_MQTT_OK/GD32VW55X_Wifi_BLE_SDK/GD32VW55x_RELEASE_V1.0.2/MSDK/util/src\debug_print.c ****             iter_char = input[index] - '0';
 587:C:/Users/stapi/OneDrive/Desktop/GD32VW553/V1_MQTT_OK/GD32VW55X_Wifi_BLE_SDK/GD32VW55x_RELEASE_V1.0.2/MSDK/util/src\debug_print.c ****         } else if (input[index] >= 'A' && input[index] <= 'F') {
 1445              		.loc 1 587 19
 1446 003a 9548     		li	a7,5
 1447              	.LVL166:
 1448              	.L135:
 585:C:/Users/stapi/OneDrive/Desktop/GD32VW553/V1_MQTT_OK/GD32VW55X_Wifi_BLE_SDK/GD32VW55x_RELEASE_V1.0.2/MSDK/util/src\debug_print.c ****         if (input[index] >= '0' && input[index] <= '9') {
 1449              		.loc 1 585 9 is_stmt 1
 585:C:/Users/stapi/OneDrive/Desktop/GD32VW553/V1_MQTT_OK/GD32VW55X_Wifi_BLE_SDK/GD32VW55x_RELEASE_V1.0.2/MSDK/util/src\debug_print.c ****         if (input[index] >= '0' && input[index] <= '9') {
 1450              		.loc 1 585 33 is_stmt 0
 1451 003c 83C70600 		lbu	a5,0(a3)
 1452 0040 938507FD 		addi	a1,a5,-48
 1453 0044 93F5F50F 		andi	a1,a1,0xff
 585:C:/Users/stapi/OneDrive/Desktop/GD32VW553/V1_MQTT_OK/GD32VW55X_Wifi_BLE_SDK/GD32VW55x_RELEASE_V1.0.2/MSDK/util/src\debug_print.c ****         if (input[index] >= '0' && input[index] <= '9') {
 1454              		.loc 1 585 12
 1455 0048 6363B304 		bgtu	a1,t1,.L128
 586:C:/Users/stapi/OneDrive/Desktop/GD32VW553/V1_MQTT_OK/GD32VW55X_Wifi_BLE_SDK/GD32VW55x_RELEASE_V1.0.2/MSDK/util/src\debug_print.c ****             iter_char = input[index] - '0';
 1456              		.loc 1 586 13 is_stmt 1
 586:C:/Users/stapi/OneDrive/Desktop/GD32VW553/V1_MQTT_OK/GD32VW55X_Wifi_BLE_SDK/GD32VW55x_RELEASE_V1.0.2/MSDK/util/src\debug_print.c ****             iter_char = input[index] - '0';
 1457              		.loc 1 586 23 is_stmt 0
 1458 004c 93954560 		sext.b	a1,a1
 1459              	.LVL167:
 1460              	.L129:
 588:C:/Users/stapi/OneDrive/Desktop/GD32VW553/V1_MQTT_OK/GD32VW55X_Wifi_BLE_SDK/GD32VW55x_RELEASE_V1.0.2/MSDK/util/src\debug_print.c ****             iter_char = input[index] - 'A' + 0x0A;
 589:C:/Users/stapi/OneDrive/Desktop/GD32VW553/V1_MQTT_OK/GD32VW55X_Wifi_BLE_SDK/GD32VW55x_RELEASE_V1.0.2/MSDK/util/src\debug_print.c ****         } else if (input[index] >= 'a' && input[index] <= 'f') {
 590:C:/Users/stapi/OneDrive/Desktop/GD32VW553/V1_MQTT_OK/GD32VW55X_Wifi_BLE_SDK/GD32VW55x_RELEASE_V1.0.2/MSDK/util/src\debug_print.c ****             iter_char = input[index] - 'a' + 0x0A;
 591:C:/Users/stapi/OneDrive/Desktop/GD32VW553/V1_MQTT_OK/GD32VW55X_Wifi_BLE_SDK/GD32VW55x_RELEASE_V1.0.2/MSDK/util/src\debug_print.c ****         } else {
 592:C:/Users/stapi/OneDrive/Desktop/GD32VW553/V1_MQTT_OK/GD32VW55X_Wifi_BLE_SDK/GD32VW55x_RELEASE_V1.0.2/MSDK/util/src\debug_print.c ****             return -2;
 593:C:/Users/stapi/OneDrive/Desktop/GD32VW553/V1_MQTT_OK/GD32VW55X_Wifi_BLE_SDK/GD32VW55x_RELEASE_V1.0.2/MSDK/util/src\debug_print.c ****         }
 594:C:/Users/stapi/OneDrive/Desktop/GD32VW553/V1_MQTT_OK/GD32VW55X_Wifi_BLE_SDK/GD32VW55x_RELEASE_V1.0.2/MSDK/util/src\debug_print.c ****         output[index / 2] |= (iter_char << 4) & 0xF0;
 1461              		.loc 1 594 9 is_stmt 1
 1462              		.loc 1 594 22 is_stmt 0
 1463 0050 13581640 		srai	a6,a2,1
 1464              		.loc 1 594 27
 1465 0054 2698     		add	a6,s1,a6
 1466 0056 83470800 		lbu	a5,0(a6)
 1467              		.loc 1 594 41
 1468 005a 13974500 		slli	a4,a1,4
 1469              		.loc 1 594 27
 1470 005e 5D8F     		or	a4,a4,a5
 1471 0060 13174760 		sext.b	a4,a4
 1472 0064 2300E800 		sb	a4,0(a6)
 595:C:/Users/stapi/OneDrive/Desktop/GD32VW553/V1_MQTT_OK/GD32VW55X_Wifi_BLE_SDK/GD32VW55x_RELEASE_V1.0.2/MSDK/util/src\debug_print.c **** 
 596:C:/Users/stapi/OneDrive/Desktop/GD32VW553/V1_MQTT_OK/GD32VW55X_Wifi_BLE_SDK/GD32VW55x_RELEASE_V1.0.2/MSDK/util/src\debug_print.c ****         if (input[index + 1] >= '0' && input[index + 1] <= '9') {
 1473              		.loc 1 596 9 is_stmt 1
 1474              		.loc 1 596 37 is_stmt 0
 1475 0068 83C71600 		lbu	a5,1(a3)
 1476 006c 138507FD 		addi	a0,a5,-48
 1477 0070 1375F50F 		andi	a0,a0,0xff
 1478              		.loc 1 596 12
 1479 0074 6361A304 		bgtu	a0,t1,.L131
 597:C:/Users/stapi/OneDrive/Desktop/GD32VW553/V1_MQTT_OK/GD32VW55X_Wifi_BLE_SDK/GD32VW55x_RELEASE_V1.0.2/MSDK/util/src\debug_print.c ****             iter_char = input[index + 1] - '0';
 1480              		.loc 1 597 13 is_stmt 1
 1481              		.loc 1 597 23 is_stmt 0
 1482 0078 93174560 		sext.b	a5,a0
 1483              	.LVL168:
 1484              	.L132:
 598:C:/Users/stapi/OneDrive/Desktop/GD32VW553/V1_MQTT_OK/GD32VW55X_Wifi_BLE_SDK/GD32VW55x_RELEASE_V1.0.2/MSDK/util/src\debug_print.c ****         } else if (input[index + 1] >= 'A' && input[index + 1] <= 'F') {
 599:C:/Users/stapi/OneDrive/Desktop/GD32VW553/V1_MQTT_OK/GD32VW55X_Wifi_BLE_SDK/GD32VW55x_RELEASE_V1.0.2/MSDK/util/src\debug_print.c ****             iter_char = input[index + 1] - 'A' + 0x0A;
 600:C:/Users/stapi/OneDrive/Desktop/GD32VW553/V1_MQTT_OK/GD32VW55X_Wifi_BLE_SDK/GD32VW55x_RELEASE_V1.0.2/MSDK/util/src\debug_print.c ****         } else if (input[index + 1] >= 'a' && input[index + 1] <= 'f') {
 601:C:/Users/stapi/OneDrive/Desktop/GD32VW553/V1_MQTT_OK/GD32VW55X_Wifi_BLE_SDK/GD32VW55x_RELEASE_V1.0.2/MSDK/util/src\debug_print.c ****             iter_char = input[index + 1] - 'a' + 0x0A;
 602:C:/Users/stapi/OneDrive/Desktop/GD32VW553/V1_MQTT_OK/GD32VW55X_Wifi_BLE_SDK/GD32VW55x_RELEASE_V1.0.2/MSDK/util/src\debug_print.c ****         } else {
 603:C:/Users/stapi/OneDrive/Desktop/GD32VW553/V1_MQTT_OK/GD32VW55X_Wifi_BLE_SDK/GD32VW55x_RELEASE_V1.0.2/MSDK/util/src\debug_print.c ****             printf("c:%c\r\n",iter_char);
 604:C:/Users/stapi/OneDrive/Desktop/GD32VW553/V1_MQTT_OK/GD32VW55X_Wifi_BLE_SDK/GD32VW55x_RELEASE_V1.0.2/MSDK/util/src\debug_print.c ****             return -3;
 605:C:/Users/stapi/OneDrive/Desktop/GD32VW553/V1_MQTT_OK/GD32VW55X_Wifi_BLE_SDK/GD32VW55x_RELEASE_V1.0.2/MSDK/util/src\debug_print.c ****         }
 606:C:/Users/stapi/OneDrive/Desktop/GD32VW553/V1_MQTT_OK/GD32VW55X_Wifi_BLE_SDK/GD32VW55x_RELEASE_V1.0.2/MSDK/util/src\debug_print.c ****         output[index / 2] |= (iter_char) & 0x0F;
 1485              		.loc 1 606 9 is_stmt 1 discriminator 2
 1486              		.loc 1 606 27 is_stmt 0 discriminator 2
 1487 007c D98F     		or	a5,a4,a5
 1488              	.LVL169:
 1489 007e 2300F800 		sb	a5,0(a6)
 584:C:/Users/stapi/OneDrive/Desktop/GD32VW553/V1_MQTT_OK/GD32VW55X_Wifi_BLE_SDK/GD32VW55x_RELEASE_V1.0.2/MSDK/util/src\debug_print.c ****         if (input[index] >= '0' && input[index] <= '9') {
 1490              		.loc 1 584 40 is_stmt 1 discriminator 2
 584:C:/Users/stapi/OneDrive/Desktop/GD32VW553/V1_MQTT_OK/GD32VW55X_Wifi_BLE_SDK/GD32VW55x_RELEASE_V1.0.2/MSDK/util/src\debug_print.c ****         if (input[index] >= '0' && input[index] <= '9') {
 1491              		.loc 1 584 46 is_stmt 0 discriminator 2
 1492 0082 0906     		addi	a2,a2,2
 1493              	.LVL170:
 584:C:/Users/stapi/OneDrive/Desktop/GD32VW553/V1_MQTT_OK/GD32VW55X_Wifi_BLE_SDK/GD32VW55x_RELEASE_V1.0.2/MSDK/util/src\debug_print.c ****         if (input[index] >= '0' && input[index] <= '9') {
 1494              		.loc 1 584 21 is_stmt 1 discriminator 2
 584:C:/Users/stapi/OneDrive/Desktop/GD32VW553/V1_MQTT_OK/GD32VW55X_Wifi_BLE_SDK/GD32VW55x_RELEASE_V1.0.2/MSDK/util/src\debug_print.c ****         if (input[index] >= '0' && input[index] <= '9') {
 1495              		.loc 1 584 5 is_stmt 0 discriminator 2
 1496 0084 8906     		addi	a3,a3,2
 1497 0086 E34B86FA 		bgt	s0,a2,.L135
 607:C:/Users/stapi/OneDrive/Desktop/GD32VW553/V1_MQTT_OK/GD32VW55X_Wifi_BLE_SDK/GD32VW55x_RELEASE_V1.0.2/MSDK/util/src\debug_print.c ****     }
 608:C:/Users/stapi/OneDrive/Desktop/GD32VW553/V1_MQTT_OK/GD32VW55X_Wifi_BLE_SDK/GD32VW55x_RELEASE_V1.0.2/MSDK/util/src\debug_print.c **** 
 609:C:/Users/stapi/OneDrive/Desktop/GD32VW553/V1_MQTT_OK/GD32VW55X_Wifi_BLE_SDK/GD32VW55x_RELEASE_V1.0.2/MSDK/util/src\debug_print.c ****     return 0;
 1498              		.loc 1 609 12
 1499 008a 0145     		li	a0,0
 1500 008c 95A0     		j	.L126
 1501              	.L128:
 587:C:/Users/stapi/OneDrive/Desktop/GD32VW553/V1_MQTT_OK/GD32VW55X_Wifi_BLE_SDK/GD32VW55x_RELEASE_V1.0.2/MSDK/util/src\debug_print.c ****             iter_char = input[index] - 'A' + 0x0A;
 1502              		.loc 1 587 16 is_stmt 1
 587:C:/Users/stapi/OneDrive/Desktop/GD32VW553/V1_MQTT_OK/GD32VW55X_Wifi_BLE_SDK/GD32VW55x_RELEASE_V1.0.2/MSDK/util/src\debug_print.c ****             iter_char = input[index] - 'A' + 0x0A;
 1503              		.loc 1 587 40 is_stmt 0
 1504 008e 1387F7FB 		addi	a4,a5,-65
 587:C:/Users/stapi/OneDrive/Desktop/GD32VW553/V1_MQTT_OK/GD32VW55X_Wifi_BLE_SDK/GD32VW55x_RELEASE_V1.0.2/MSDK/util/src\debug_print.c ****             iter_char = input[index] - 'A' + 0x0A;
 1505              		.loc 1 587 19
 1506 0092 1377F70F 		andi	a4,a4,0xff
 1507 0096 63E7E800 		bgtu	a4,a7,.L130
 588:C:/Users/stapi/OneDrive/Desktop/GD32VW553/V1_MQTT_OK/GD32VW55X_Wifi_BLE_SDK/GD32VW55x_RELEASE_V1.0.2/MSDK/util/src\debug_print.c ****         } else if (input[index] >= 'a' && input[index] <= 'f') {
 1508              		.loc 1 588 13 is_stmt 1
 588:C:/Users/stapi/OneDrive/Desktop/GD32VW553/V1_MQTT_OK/GD32VW55X_Wifi_BLE_SDK/GD32VW55x_RELEASE_V1.0.2/MSDK/util/src\debug_print.c ****         } else if (input[index] >= 'a' && input[index] <= 'f') {
 1509              		.loc 1 588 44 is_stmt 0
 1510 009a 938797FC 		addi	a5,a5,-55
 1511              	.L147:
 590:C:/Users/stapi/OneDrive/Desktop/GD32VW553/V1_MQTT_OK/GD32VW55X_Wifi_BLE_SDK/GD32VW55x_RELEASE_V1.0.2/MSDK/util/src\debug_print.c ****         } else {
 1512              		.loc 1 590 23
 1513 009e 93954760 		sext.b	a1,a5
 1514              	.LVL171:
 1515 00a2 7DB7     		j	.L129
 1516              	.LVL172:
 1517              	.L130:
 589:C:/Users/stapi/OneDrive/Desktop/GD32VW553/V1_MQTT_OK/GD32VW55X_Wifi_BLE_SDK/GD32VW55x_RELEASE_V1.0.2/MSDK/util/src\debug_print.c ****             iter_char = input[index] - 'a' + 0x0A;
 1518              		.loc 1 589 16 is_stmt 1
 589:C:/Users/stapi/OneDrive/Desktop/GD32VW553/V1_MQTT_OK/GD32VW55X_Wifi_BLE_SDK/GD32VW55x_RELEASE_V1.0.2/MSDK/util/src\debug_print.c ****             iter_char = input[index] - 'a' + 0x0A;
 1519              		.loc 1 589 40 is_stmt 0
 1520 00a4 1387F7F9 		addi	a4,a5,-97
 589:C:/Users/stapi/OneDrive/Desktop/GD32VW553/V1_MQTT_OK/GD32VW55X_Wifi_BLE_SDK/GD32VW55x_RELEASE_V1.0.2/MSDK/util/src\debug_print.c ****             iter_char = input[index] - 'a' + 0x0A;
 1521              		.loc 1 589 19
 1522 00a8 1377F70F 		andi	a4,a4,0xff
 1523 00ac 63E8E804 		bgtu	a4,a7,.L141
 590:C:/Users/stapi/OneDrive/Desktop/GD32VW553/V1_MQTT_OK/GD32VW55X_Wifi_BLE_SDK/GD32VW55x_RELEASE_V1.0.2/MSDK/util/src\debug_print.c ****         } else {
 1524              		.loc 1 590 13 is_stmt 1
 590:C:/Users/stapi/OneDrive/Desktop/GD32VW553/V1_MQTT_OK/GD32VW55X_Wifi_BLE_SDK/GD32VW55x_RELEASE_V1.0.2/MSDK/util/src\debug_print.c ****         } else {
 1525              		.loc 1 590 44 is_stmt 0
 1526 00b0 938797FA 		addi	a5,a5,-87
 1527 00b4 EDB7     		j	.L147
 1528              	.LVL173:
 1529              	.L131:
 598:C:/Users/stapi/OneDrive/Desktop/GD32VW553/V1_MQTT_OK/GD32VW55X_Wifi_BLE_SDK/GD32VW55x_RELEASE_V1.0.2/MSDK/util/src\debug_print.c ****             iter_char = input[index + 1] - 'A' + 0x0A;
 1530              		.loc 1 598 16 is_stmt 1
 598:C:/Users/stapi/OneDrive/Desktop/GD32VW553/V1_MQTT_OK/GD32VW55X_Wifi_BLE_SDK/GD32VW55x_RELEASE_V1.0.2/MSDK/util/src\debug_print.c ****             iter_char = input[index + 1] - 'A' + 0x0A;
 1531              		.loc 1 598 44 is_stmt 0
 1532 00b6 1385F7FB 		addi	a0,a5,-65
 598:C:/Users/stapi/OneDrive/Desktop/GD32VW553/V1_MQTT_OK/GD32VW55X_Wifi_BLE_SDK/GD32VW55x_RELEASE_V1.0.2/MSDK/util/src\debug_print.c ****             iter_char = input[index + 1] - 'A' + 0x0A;
 1533              		.loc 1 598 19
 1534 00ba 1375F50F 		andi	a0,a0,0xff
 1535 00be 63E7A800 		bgtu	a0,a7,.L133
 599:C:/Users/stapi/OneDrive/Desktop/GD32VW553/V1_MQTT_OK/GD32VW55X_Wifi_BLE_SDK/GD32VW55x_RELEASE_V1.0.2/MSDK/util/src\debug_print.c ****         } else if (input[index + 1] >= 'a' && input[index + 1] <= 'f') {
 1536              		.loc 1 599 13 is_stmt 1
 599:C:/Users/stapi/OneDrive/Desktop/GD32VW553/V1_MQTT_OK/GD32VW55X_Wifi_BLE_SDK/GD32VW55x_RELEASE_V1.0.2/MSDK/util/src\debug_print.c ****         } else if (input[index + 1] >= 'a' && input[index + 1] <= 'f') {
 1537              		.loc 1 599 48 is_stmt 0
 1538 00c2 938797FC 		addi	a5,a5,-55
 1539              	.L148:
 601:C:/Users/stapi/OneDrive/Desktop/GD32VW553/V1_MQTT_OK/GD32VW55X_Wifi_BLE_SDK/GD32VW55x_RELEASE_V1.0.2/MSDK/util/src\debug_print.c ****         } else {
 1540              		.loc 1 601 23
 1541 00c6 93974760 		sext.b	a5,a5
 1542              	.LVL174:
 1543 00ca 4DBF     		j	.L132
 1544              	.LVL175:
 1545              	.L133:
 600:C:/Users/stapi/OneDrive/Desktop/GD32VW553/V1_MQTT_OK/GD32VW55X_Wifi_BLE_SDK/GD32VW55x_RELEASE_V1.0.2/MSDK/util/src\debug_print.c ****             iter_char = input[index + 1] - 'a' + 0x0A;
 1546              		.loc 1 600 16 is_stmt 1
 600:C:/Users/stapi/OneDrive/Desktop/GD32VW553/V1_MQTT_OK/GD32VW55X_Wifi_BLE_SDK/GD32VW55x_RELEASE_V1.0.2/MSDK/util/src\debug_print.c ****             iter_char = input[index + 1] - 'a' + 0x0A;
 1547              		.loc 1 600 44 is_stmt 0
 1548 00cc 1385F7F9 		addi	a0,a5,-97
 600:C:/Users/stapi/OneDrive/Desktop/GD32VW553/V1_MQTT_OK/GD32VW55X_Wifi_BLE_SDK/GD32VW55x_RELEASE_V1.0.2/MSDK/util/src\debug_print.c ****             iter_char = input[index + 1] - 'a' + 0x0A;
 1549              		.loc 1 600 19
 1550 00d0 1375F50F 		andi	a0,a0,0xff
 1551 00d4 63E5A800 		bgtu	a0,a7,.L134
 601:C:/Users/stapi/OneDrive/Desktop/GD32VW553/V1_MQTT_OK/GD32VW55X_Wifi_BLE_SDK/GD32VW55x_RELEASE_V1.0.2/MSDK/util/src\debug_print.c ****         } else {
 1552              		.loc 1 601 13 is_stmt 1
 601:C:/Users/stapi/OneDrive/Desktop/GD32VW553/V1_MQTT_OK/GD32VW55X_Wifi_BLE_SDK/GD32VW55x_RELEASE_V1.0.2/MSDK/util/src\debug_print.c ****         } else {
 1553              		.loc 1 601 48 is_stmt 0
 1554 00d8 938797FA 		addi	a5,a5,-87
 1555 00dc EDB7     		j	.L148
 1556              	.L134:
 603:C:/Users/stapi/OneDrive/Desktop/GD32VW553/V1_MQTT_OK/GD32VW55X_Wifi_BLE_SDK/GD32VW55x_RELEASE_V1.0.2/MSDK/util/src\debug_print.c ****             return -3;
 1557              		.loc 1 603 13 is_stmt 1
 1558 00de 37050000 		lui	a0,%hi(.LC6)
 1559 00e2 13050500 		addi	a0,a0,%lo(.LC6)
 1560 00e6 97000000 		call	printf
 1560      E7800000 
 1561              	.LVL176:
 604:C:/Users/stapi/OneDrive/Desktop/GD32VW553/V1_MQTT_OK/GD32VW55X_Wifi_BLE_SDK/GD32VW55x_RELEASE_V1.0.2/MSDK/util/src\debug_print.c ****         }
 1562              		.loc 1 604 13
 604:C:/Users/stapi/OneDrive/Desktop/GD32VW553/V1_MQTT_OK/GD32VW55X_Wifi_BLE_SDK/GD32VW55x_RELEASE_V1.0.2/MSDK/util/src\debug_print.c ****         }
 1563              		.loc 1 604 20 is_stmt 0
 1564 00ee 7555     		li	a0,-3
 1565              	.LVL177:
 1566              	.L126:
 610:C:/Users/stapi/OneDrive/Desktop/GD32VW553/V1_MQTT_OK/GD32VW55X_Wifi_BLE_SDK/GD32VW55x_RELEASE_V1.0.2/MSDK/util/src\debug_print.c **** }
 1567              		.loc 1 610 1
 1568 00f0 17030000 		tail	__riscv_restore_3
 1568      67000300 
 1569              		.cfi_restore 18
 1570              		.cfi_restore 9
 1571              		.cfi_restore 8
 1572              		.cfi_restore 1
 1573              		.cfi_def_cfa_offset 0
 1574              	.LVL178:
 1575              	.L136:
 579:C:/Users/stapi/OneDrive/Desktop/GD32VW553/V1_MQTT_OK/GD32VW55X_Wifi_BLE_SDK/GD32VW55x_RELEASE_V1.0.2/MSDK/util/src\debug_print.c ****     }
 1576              		.loc 1 579 16
 1577 00f8 7D55     		li	a0,-1
 1578              	.LVL179:
 1579              		.loc 1 610 1
 1580 00fa 8280     		ret
 1581              	.LVL180:
 1582              	.L141:
 1583              		.cfi_def_cfa_offset 16
 1584              		.cfi_offset 1, -4
 1585              		.cfi_offset 8, -8
 1586              		.cfi_offset 9, -12
 1587              		.cfi_offset 18, -16
 592:C:/Users/stapi/OneDrive/Desktop/GD32VW553/V1_MQTT_OK/GD32VW55X_Wifi_BLE_SDK/GD32VW55x_RELEASE_V1.0.2/MSDK/util/src\debug_print.c ****         }
 1588              		.loc 1 592 20
 1589 00fc 7955     		li	a0,-2
 1590 00fe CDBF     		j	.L126
 1591              		.cfi_endproc
 1592              	.LFE375:
 1594              		.section	.text.dbg_vsnprintf_offset,"ax",@progbits
 1595              		.align	1
 1596              		.globl	dbg_vsnprintf_offset
 1598              	dbg_vsnprintf_offset:
 1599              	.LFB377:
 611:C:/Users/stapi/OneDrive/Desktop/GD32VW553/V1_MQTT_OK/GD32VW55X_Wifi_BLE_SDK/GD32VW55x_RELEASE_V1.0.2/MSDK/util/src\debug_print.c **** 
 612:C:/Users/stapi/OneDrive/Desktop/GD32VW553/V1_MQTT_OK/GD32VW55X_Wifi_BLE_SDK/GD32VW55x_RELEASE_V1.0.2/MSDK/util/src\debug_print.c **** 
 613:C:/Users/stapi/OneDrive/Desktop/GD32VW553/V1_MQTT_OK/GD32VW55X_Wifi_BLE_SDK/GD32VW55x_RELEASE_V1.0.2/MSDK/util/src\debug_print.c **** /**
 614:C:/Users/stapi/OneDrive/Desktop/GD32VW553/V1_MQTT_OK/GD32VW55X_Wifi_BLE_SDK/GD32VW55x_RELEASE_V1.0.2/MSDK/util/src\debug_print.c ****  ****************************************************************************************
 615:C:/Users/stapi/OneDrive/Desktop/GD32VW553/V1_MQTT_OK/GD32VW55X_Wifi_BLE_SDK/GD32VW55x_RELEASE_V1.0.2/MSDK/util/src\debug_print.c ****  * @brief Function to read a particular character and map its type
 616:C:/Users/stapi/OneDrive/Desktop/GD32VW553/V1_MQTT_OK/GD32VW55X_Wifi_BLE_SDK/GD32VW55x_RELEASE_V1.0.2/MSDK/util/src\debug_print.c ****  *
 617:C:/Users/stapi/OneDrive/Desktop/GD32VW553/V1_MQTT_OK/GD32VW55X_Wifi_BLE_SDK/GD32VW55x_RELEASE_V1.0.2/MSDK/util/src\debug_print.c ****  * This function is called to read a particular character and fetch its type
 618:C:/Users/stapi/OneDrive/Desktop/GD32VW553/V1_MQTT_OK/GD32VW55X_Wifi_BLE_SDK/GD32VW55x_RELEASE_V1.0.2/MSDK/util/src\debug_print.c ****  *
 619:C:/Users/stapi/OneDrive/Desktop/GD32VW553/V1_MQTT_OK/GD32VW55X_Wifi_BLE_SDK/GD32VW55x_RELEASE_V1.0.2/MSDK/util/src\debug_print.c ****  * @param[in] c Input character
 620:C:/Users/stapi/OneDrive/Desktop/GD32VW553/V1_MQTT_OK/GD32VW55X_Wifi_BLE_SDK/GD32VW55x_RELEASE_V1.0.2/MSDK/util/src\debug_print.c ****  *
 621:C:/Users/stapi/OneDrive/Desktop/GD32VW553/V1_MQTT_OK/GD32VW55X_Wifi_BLE_SDK/GD32VW55x_RELEASE_V1.0.2/MSDK/util/src\debug_print.c ****  * @return Type of the character
 622:C:/Users/stapi/OneDrive/Desktop/GD32VW553/V1_MQTT_OK/GD32VW55X_Wifi_BLE_SDK/GD32VW55x_RELEASE_V1.0.2/MSDK/util/src\debug_print.c ****  ****************************************************************************************
 623:C:/Users/stapi/OneDrive/Desktop/GD32VW553/V1_MQTT_OK/GD32VW55X_Wifi_BLE_SDK/GD32VW55x_RELEASE_V1.0.2/MSDK/util/src\debug_print.c ****  */
 624:C:/Users/stapi/OneDrive/Desktop/GD32VW553/V1_MQTT_OK/GD32VW55X_Wifi_BLE_SDK/GD32VW55x_RELEASE_V1.0.2/MSDK/util/src\debug_print.c **** static uint32_t type_get(char c)
 625:C:/Users/stapi/OneDrive/Desktop/GD32VW553/V1_MQTT_OK/GD32VW55X_Wifi_BLE_SDK/GD32VW55x_RELEASE_V1.0.2/MSDK/util/src\debug_print.c **** {
 626:C:/Users/stapi/OneDrive/Desktop/GD32VW553/V1_MQTT_OK/GD32VW55X_Wifi_BLE_SDK/GD32VW55x_RELEASE_V1.0.2/MSDK/util/src\debug_print.c ****     uint32_t res;
 627:C:/Users/stapi/OneDrive/Desktop/GD32VW553/V1_MQTT_OK/GD32VW55X_Wifi_BLE_SDK/GD32VW55x_RELEASE_V1.0.2/MSDK/util/src\debug_print.c **** 
 628:C:/Users/stapi/OneDrive/Desktop/GD32VW553/V1_MQTT_OK/GD32VW55X_Wifi_BLE_SDK/GD32VW55x_RELEASE_V1.0.2/MSDK/util/src\debug_print.c ****     switch (c)
 629:C:/Users/stapi/OneDrive/Desktop/GD32VW553/V1_MQTT_OK/GD32VW55X_Wifi_BLE_SDK/GD32VW55x_RELEASE_V1.0.2/MSDK/util/src\debug_print.c ****     {
 630:C:/Users/stapi/OneDrive/Desktop/GD32VW553/V1_MQTT_OK/GD32VW55X_Wifi_BLE_SDK/GD32VW55x_RELEASE_V1.0.2/MSDK/util/src\debug_print.c ****     case '%':
 631:C:/Users/stapi/OneDrive/Desktop/GD32VW553/V1_MQTT_OK/GD32VW55X_Wifi_BLE_SDK/GD32VW55x_RELEASE_V1.0.2/MSDK/util/src\debug_print.c ****         res =  C_PERCENT;
 632:C:/Users/stapi/OneDrive/Desktop/GD32VW553/V1_MQTT_OK/GD32VW55X_Wifi_BLE_SDK/GD32VW55x_RELEASE_V1.0.2/MSDK/util/src\debug_print.c ****         break;
 633:C:/Users/stapi/OneDrive/Desktop/GD32VW553/V1_MQTT_OK/GD32VW55X_Wifi_BLE_SDK/GD32VW55x_RELEASE_V1.0.2/MSDK/util/src\debug_print.c **** 
 634:C:/Users/stapi/OneDrive/Desktop/GD32VW553/V1_MQTT_OK/GD32VW55X_Wifi_BLE_SDK/GD32VW55x_RELEASE_V1.0.2/MSDK/util/src\debug_print.c ****     case '.':
 635:C:/Users/stapi/OneDrive/Desktop/GD32VW553/V1_MQTT_OK/GD32VW55X_Wifi_BLE_SDK/GD32VW55x_RELEASE_V1.0.2/MSDK/util/src\debug_print.c ****         res =  C_DOT;
 636:C:/Users/stapi/OneDrive/Desktop/GD32VW553/V1_MQTT_OK/GD32VW55X_Wifi_BLE_SDK/GD32VW55x_RELEASE_V1.0.2/MSDK/util/src\debug_print.c ****         break;
 637:C:/Users/stapi/OneDrive/Desktop/GD32VW553/V1_MQTT_OK/GD32VW55X_Wifi_BLE_SDK/GD32VW55x_RELEASE_V1.0.2/MSDK/util/src\debug_print.c **** 
 638:C:/Users/stapi/OneDrive/Desktop/GD32VW553/V1_MQTT_OK/GD32VW55X_Wifi_BLE_SDK/GD32VW55x_RELEASE_V1.0.2/MSDK/util/src\debug_print.c ****     case '0':
 639:C:/Users/stapi/OneDrive/Desktop/GD32VW553/V1_MQTT_OK/GD32VW55X_Wifi_BLE_SDK/GD32VW55x_RELEASE_V1.0.2/MSDK/util/src\debug_print.c ****         res =  C_ZERO;
 640:C:/Users/stapi/OneDrive/Desktop/GD32VW553/V1_MQTT_OK/GD32VW55X_Wifi_BLE_SDK/GD32VW55x_RELEASE_V1.0.2/MSDK/util/src\debug_print.c ****         break;
 641:C:/Users/stapi/OneDrive/Desktop/GD32VW553/V1_MQTT_OK/GD32VW55X_Wifi_BLE_SDK/GD32VW55x_RELEASE_V1.0.2/MSDK/util/src\debug_print.c **** 
 642:C:/Users/stapi/OneDrive/Desktop/GD32VW553/V1_MQTT_OK/GD32VW55X_Wifi_BLE_SDK/GD32VW55x_RELEASE_V1.0.2/MSDK/util/src\debug_print.c ****     case ' ':
 643:C:/Users/stapi/OneDrive/Desktop/GD32VW553/V1_MQTT_OK/GD32VW55X_Wifi_BLE_SDK/GD32VW55x_RELEASE_V1.0.2/MSDK/util/src\debug_print.c ****     case '+':
 644:C:/Users/stapi/OneDrive/Desktop/GD32VW553/V1_MQTT_OK/GD32VW55X_Wifi_BLE_SDK/GD32VW55x_RELEASE_V1.0.2/MSDK/util/src\debug_print.c ****     case '-':
 645:C:/Users/stapi/OneDrive/Desktop/GD32VW553/V1_MQTT_OK/GD32VW55X_Wifi_BLE_SDK/GD32VW55x_RELEASE_V1.0.2/MSDK/util/src\debug_print.c ****         res =  C_FLAG;
 646:C:/Users/stapi/OneDrive/Desktop/GD32VW553/V1_MQTT_OK/GD32VW55X_Wifi_BLE_SDK/GD32VW55x_RELEASE_V1.0.2/MSDK/util/src\debug_print.c ****         break;
 647:C:/Users/stapi/OneDrive/Desktop/GD32VW553/V1_MQTT_OK/GD32VW55X_Wifi_BLE_SDK/GD32VW55x_RELEASE_V1.0.2/MSDK/util/src\debug_print.c **** 
 648:C:/Users/stapi/OneDrive/Desktop/GD32VW553/V1_MQTT_OK/GD32VW55X_Wifi_BLE_SDK/GD32VW55x_RELEASE_V1.0.2/MSDK/util/src\debug_print.c ****     case 'h':
 649:C:/Users/stapi/OneDrive/Desktop/GD32VW553/V1_MQTT_OK/GD32VW55X_Wifi_BLE_SDK/GD32VW55x_RELEASE_V1.0.2/MSDK/util/src\debug_print.c ****     case 'l':
 650:C:/Users/stapi/OneDrive/Desktop/GD32VW553/V1_MQTT_OK/GD32VW55X_Wifi_BLE_SDK/GD32VW55x_RELEASE_V1.0.2/MSDK/util/src\debug_print.c ****         res =  C_SIZE;
 651:C:/Users/stapi/OneDrive/Desktop/GD32VW553/V1_MQTT_OK/GD32VW55X_Wifi_BLE_SDK/GD32VW55x_RELEASE_V1.0.2/MSDK/util/src\debug_print.c ****         break;
 652:C:/Users/stapi/OneDrive/Desktop/GD32VW553/V1_MQTT_OK/GD32VW55X_Wifi_BLE_SDK/GD32VW55x_RELEASE_V1.0.2/MSDK/util/src\debug_print.c **** 
 653:C:/Users/stapi/OneDrive/Desktop/GD32VW553/V1_MQTT_OK/GD32VW55X_Wifi_BLE_SDK/GD32VW55x_RELEASE_V1.0.2/MSDK/util/src\debug_print.c ****     case 'x':
 654:C:/Users/stapi/OneDrive/Desktop/GD32VW553/V1_MQTT_OK/GD32VW55X_Wifi_BLE_SDK/GD32VW55x_RELEASE_V1.0.2/MSDK/util/src\debug_print.c ****     case 'X':
 655:C:/Users/stapi/OneDrive/Desktop/GD32VW553/V1_MQTT_OK/GD32VW55X_Wifi_BLE_SDK/GD32VW55x_RELEASE_V1.0.2/MSDK/util/src\debug_print.c ****     case 'd':
 656:C:/Users/stapi/OneDrive/Desktop/GD32VW553/V1_MQTT_OK/GD32VW55X_Wifi_BLE_SDK/GD32VW55x_RELEASE_V1.0.2/MSDK/util/src\debug_print.c ****     case 'b':
 657:C:/Users/stapi/OneDrive/Desktop/GD32VW553/V1_MQTT_OK/GD32VW55X_Wifi_BLE_SDK/GD32VW55x_RELEASE_V1.0.2/MSDK/util/src\debug_print.c ****     case 'i':
 658:C:/Users/stapi/OneDrive/Desktop/GD32VW553/V1_MQTT_OK/GD32VW55X_Wifi_BLE_SDK/GD32VW55x_RELEASE_V1.0.2/MSDK/util/src\debug_print.c ****     case 'c':
 659:C:/Users/stapi/OneDrive/Desktop/GD32VW553/V1_MQTT_OK/GD32VW55X_Wifi_BLE_SDK/GD32VW55x_RELEASE_V1.0.2/MSDK/util/src\debug_print.c ****     case 'u':
 660:C:/Users/stapi/OneDrive/Desktop/GD32VW553/V1_MQTT_OK/GD32VW55X_Wifi_BLE_SDK/GD32VW55x_RELEASE_V1.0.2/MSDK/util/src\debug_print.c ****     case 's':
 661:C:/Users/stapi/OneDrive/Desktop/GD32VW553/V1_MQTT_OK/GD32VW55X_Wifi_BLE_SDK/GD32VW55x_RELEASE_V1.0.2/MSDK/util/src\debug_print.c ****     case 'm':
 662:C:/Users/stapi/OneDrive/Desktop/GD32VW553/V1_MQTT_OK/GD32VW55X_Wifi_BLE_SDK/GD32VW55x_RELEASE_V1.0.2/MSDK/util/src\debug_print.c ****     case 'M':
 663:C:/Users/stapi/OneDrive/Desktop/GD32VW553/V1_MQTT_OK/GD32VW55X_Wifi_BLE_SDK/GD32VW55x_RELEASE_V1.0.2/MSDK/util/src\debug_print.c ****     case 'a':
 664:C:/Users/stapi/OneDrive/Desktop/GD32VW553/V1_MQTT_OK/GD32VW55X_Wifi_BLE_SDK/GD32VW55x_RELEASE_V1.0.2/MSDK/util/src\debug_print.c ****     case 'A':
 665:C:/Users/stapi/OneDrive/Desktop/GD32VW553/V1_MQTT_OK/GD32VW55X_Wifi_BLE_SDK/GD32VW55x_RELEASE_V1.0.2/MSDK/util/src\debug_print.c ****         res =  C_TYPE;
 666:C:/Users/stapi/OneDrive/Desktop/GD32VW553/V1_MQTT_OK/GD32VW55X_Wifi_BLE_SDK/GD32VW55x_RELEASE_V1.0.2/MSDK/util/src\debug_print.c ****         break;
 667:C:/Users/stapi/OneDrive/Desktop/GD32VW553/V1_MQTT_OK/GD32VW55X_Wifi_BLE_SDK/GD32VW55x_RELEASE_V1.0.2/MSDK/util/src\debug_print.c **** 
 668:C:/Users/stapi/OneDrive/Desktop/GD32VW553/V1_MQTT_OK/GD32VW55X_Wifi_BLE_SDK/GD32VW55x_RELEASE_V1.0.2/MSDK/util/src\debug_print.c ****     case '*':
 669:C:/Users/stapi/OneDrive/Desktop/GD32VW553/V1_MQTT_OK/GD32VW55X_Wifi_BLE_SDK/GD32VW55x_RELEASE_V1.0.2/MSDK/util/src\debug_print.c ****         res =  C_DIGIT;
 670:C:/Users/stapi/OneDrive/Desktop/GD32VW553/V1_MQTT_OK/GD32VW55X_Wifi_BLE_SDK/GD32VW55x_RELEASE_V1.0.2/MSDK/util/src\debug_print.c ****         break;
 671:C:/Users/stapi/OneDrive/Desktop/GD32VW553/V1_MQTT_OK/GD32VW55X_Wifi_BLE_SDK/GD32VW55x_RELEASE_V1.0.2/MSDK/util/src\debug_print.c **** 
 672:C:/Users/stapi/OneDrive/Desktop/GD32VW553/V1_MQTT_OK/GD32VW55X_Wifi_BLE_SDK/GD32VW55x_RELEASE_V1.0.2/MSDK/util/src\debug_print.c ****     default:
 673:C:/Users/stapi/OneDrive/Desktop/GD32VW553/V1_MQTT_OK/GD32VW55X_Wifi_BLE_SDK/GD32VW55x_RELEASE_V1.0.2/MSDK/util/src\debug_print.c ****         if (('1' <= c) && (c <= '9'))
 674:C:/Users/stapi/OneDrive/Desktop/GD32VW553/V1_MQTT_OK/GD32VW55X_Wifi_BLE_SDK/GD32VW55x_RELEASE_V1.0.2/MSDK/util/src\debug_print.c ****         {
 675:C:/Users/stapi/OneDrive/Desktop/GD32VW553/V1_MQTT_OK/GD32VW55X_Wifi_BLE_SDK/GD32VW55x_RELEASE_V1.0.2/MSDK/util/src\debug_print.c ****             res =  C_DIGIT;
 676:C:/Users/stapi/OneDrive/Desktop/GD32VW553/V1_MQTT_OK/GD32VW55X_Wifi_BLE_SDK/GD32VW55x_RELEASE_V1.0.2/MSDK/util/src\debug_print.c ****         }
 677:C:/Users/stapi/OneDrive/Desktop/GD32VW553/V1_MQTT_OK/GD32VW55X_Wifi_BLE_SDK/GD32VW55x_RELEASE_V1.0.2/MSDK/util/src\debug_print.c ****         else
 678:C:/Users/stapi/OneDrive/Desktop/GD32VW553/V1_MQTT_OK/GD32VW55X_Wifi_BLE_SDK/GD32VW55x_RELEASE_V1.0.2/MSDK/util/src\debug_print.c ****         {
 679:C:/Users/stapi/OneDrive/Desktop/GD32VW553/V1_MQTT_OK/GD32VW55X_Wifi_BLE_SDK/GD32VW55x_RELEASE_V1.0.2/MSDK/util/src\debug_print.c ****             res =  C_OTHER;
 680:C:/Users/stapi/OneDrive/Desktop/GD32VW553/V1_MQTT_OK/GD32VW55X_Wifi_BLE_SDK/GD32VW55x_RELEASE_V1.0.2/MSDK/util/src\debug_print.c ****         }
 681:C:/Users/stapi/OneDrive/Desktop/GD32VW553/V1_MQTT_OK/GD32VW55X_Wifi_BLE_SDK/GD32VW55x_RELEASE_V1.0.2/MSDK/util/src\debug_print.c ****         break;
 682:C:/Users/stapi/OneDrive/Desktop/GD32VW553/V1_MQTT_OK/GD32VW55X_Wifi_BLE_SDK/GD32VW55x_RELEASE_V1.0.2/MSDK/util/src\debug_print.c ****     }
 683:C:/Users/stapi/OneDrive/Desktop/GD32VW553/V1_MQTT_OK/GD32VW55X_Wifi_BLE_SDK/GD32VW55x_RELEASE_V1.0.2/MSDK/util/src\debug_print.c **** 
 684:C:/Users/stapi/OneDrive/Desktop/GD32VW553/V1_MQTT_OK/GD32VW55X_Wifi_BLE_SDK/GD32VW55x_RELEASE_V1.0.2/MSDK/util/src\debug_print.c ****     return res;
 685:C:/Users/stapi/OneDrive/Desktop/GD32VW553/V1_MQTT_OK/GD32VW55X_Wifi_BLE_SDK/GD32VW55x_RELEASE_V1.0.2/MSDK/util/src\debug_print.c **** }
 686:C:/Users/stapi/OneDrive/Desktop/GD32VW553/V1_MQTT_OK/GD32VW55X_Wifi_BLE_SDK/GD32VW55x_RELEASE_V1.0.2/MSDK/util/src\debug_print.c **** 
 687:C:/Users/stapi/OneDrive/Desktop/GD32VW553/V1_MQTT_OK/GD32VW55X_Wifi_BLE_SDK/GD32VW55x_RELEASE_V1.0.2/MSDK/util/src\debug_print.c **** uint32_t dbg_vsnprintf_offset(char *buffer, uint32_t size, uint32_t offset,
 688:C:/Users/stapi/OneDrive/Desktop/GD32VW553/V1_MQTT_OK/GD32VW55X_Wifi_BLE_SDK/GD32VW55x_RELEASE_V1.0.2/MSDK/util/src\debug_print.c ****                               const char *fmt, va_list args)
 689:C:/Users/stapi/OneDrive/Desktop/GD32VW553/V1_MQTT_OK/GD32VW55X_Wifi_BLE_SDK/GD32VW55x_RELEASE_V1.0.2/MSDK/util/src\debug_print.c **** {
 1600              		.loc 1 689 1 is_stmt 1
 1601              		.cfi_startproc
 1602              	.LVL181:
 1603 0000 5971     		addi	sp,sp,-112
 1604              		.cfi_def_cfa_offset 112
 1605 0002 A2D6     		sw	s0,108(sp)
 1606 0004 A6D4     		sw	s1,104(sp)
 1607 0006 CAD2     		sw	s2,100(sp)
 1608 0008 CED0     		sw	s3,96(sp)
 1609 000a D2CE     		sw	s4,92(sp)
 1610 000c D6CC     		sw	s5,88(sp)
 1611 000e DACA     		sw	s6,84(sp)
 1612 0010 DEC8     		sw	s7,80(sp)
 1613 0012 E2C6     		sw	s8,76(sp)
 1614 0014 E6C4     		sw	s9,72(sp)
 1615 0016 EAC2     		sw	s10,68(sp)
 1616 0018 EEC0     		sw	s11,64(sp)
 1617              		.cfi_offset 8, -4
 1618              		.cfi_offset 9, -8
 1619              		.cfi_offset 18, -12
 1620              		.cfi_offset 19, -16
 1621              		.cfi_offset 20, -20
 1622              		.cfi_offset 21, -24
 1623              		.cfi_offset 22, -28
 1624              		.cfi_offset 23, -32
 1625              		.cfi_offset 24, -36
 1626              		.cfi_offset 25, -40
 1627              		.cfi_offset 26, -44
 1628              		.cfi_offset 27, -48
 1629              		.loc 1 689 1 is_stmt 0
 1630 001a AA88     		mv	a7,a0
 690:C:/Users/stapi/OneDrive/Desktop/GD32VW553/V1_MQTT_OK/GD32VW55X_Wifi_BLE_SDK/GD32VW55x_RELEASE_V1.0.2/MSDK/util/src\debug_print.c ****     uint32_t state_current = S_COPY;      // Initial state
 1631              		.loc 1 690 5 is_stmt 1
 1632              	.LVL182:
 691:C:/Users/stapi/OneDrive/Desktop/GD32VW553/V1_MQTT_OK/GD32VW55X_Wifi_BLE_SDK/GD32VW55x_RELEASE_V1.0.2/MSDK/util/src\debug_print.c ****     char c;
 1633              		.loc 1 691 5
 692:C:/Users/stapi/OneDrive/Desktop/GD32VW553/V1_MQTT_OK/GD32VW55X_Wifi_BLE_SDK/GD32VW55x_RELEASE_V1.0.2/MSDK/util/src\debug_print.c **** 
 693:C:/Users/stapi/OneDrive/Desktop/GD32VW553/V1_MQTT_OK/GD32VW55X_Wifi_BLE_SDK/GD32VW55x_RELEASE_V1.0.2/MSDK/util/src\debug_print.c ****     char *fmt_field_ptr = NULL;
 1634              		.loc 1 693 5
 694:C:/Users/stapi/OneDrive/Desktop/GD32VW553/V1_MQTT_OK/GD32VW55X_Wifi_BLE_SDK/GD32VW55x_RELEASE_V1.0.2/MSDK/util/src\debug_print.c ****     int fmt_field_size = 0;
 1635              		.loc 1 694 5
 695:C:/Users/stapi/OneDrive/Desktop/GD32VW553/V1_MQTT_OK/GD32VW55X_Wifi_BLE_SDK/GD32VW55x_RELEASE_V1.0.2/MSDK/util/src\debug_print.c **** 
 696:C:/Users/stapi/OneDrive/Desktop/GD32VW553/V1_MQTT_OK/GD32VW55X_Wifi_BLE_SDK/GD32VW55x_RELEASE_V1.0.2/MSDK/util/src\debug_print.c ****     char buffer_tmp[64];
 1636              		.loc 1 696 5
 697:C:/Users/stapi/OneDrive/Desktop/GD32VW553/V1_MQTT_OK/GD32VW55X_Wifi_BLE_SDK/GD32VW55x_RELEASE_V1.0.2/MSDK/util/src\debug_print.c **** 
 698:C:/Users/stapi/OneDrive/Desktop/GD32VW553/V1_MQTT_OK/GD32VW55X_Wifi_BLE_SDK/GD32VW55x_RELEASE_V1.0.2/MSDK/util/src\debug_print.c ****     int field_width = 0;
 1637              		.loc 1 698 5
 699:C:/Users/stapi/OneDrive/Desktop/GD32VW553/V1_MQTT_OK/GD32VW55X_Wifi_BLE_SDK/GD32VW55x_RELEASE_V1.0.2/MSDK/util/src\debug_print.c ****     char field_flags = 0;
 1638              		.loc 1 699 5
 700:C:/Users/stapi/OneDrive/Desktop/GD32VW553/V1_MQTT_OK/GD32VW55X_Wifi_BLE_SDK/GD32VW55x_RELEASE_V1.0.2/MSDK/util/src\debug_print.c ****     int field_precision = 0;
 1639              		.loc 1 700 5
 701:C:/Users/stapi/OneDrive/Desktop/GD32VW553/V1_MQTT_OK/GD32VW55X_Wifi_BLE_SDK/GD32VW55x_RELEASE_V1.0.2/MSDK/util/src\debug_print.c ****     int field_padding = 0;
 1640              		.loc 1 701 5
 702:C:/Users/stapi/OneDrive/Desktop/GD32VW553/V1_MQTT_OK/GD32VW55X_Wifi_BLE_SDK/GD32VW55x_RELEASE_V1.0.2/MSDK/util/src\debug_print.c **** 
 703:C:/Users/stapi/OneDrive/Desktop/GD32VW553/V1_MQTT_OK/GD32VW55X_Wifi_BLE_SDK/GD32VW55x_RELEASE_V1.0.2/MSDK/util/src\debug_print.c ****     int32_t value;
 1641              		.loc 1 703 5
 704:C:/Users/stapi/OneDrive/Desktop/GD32VW553/V1_MQTT_OK/GD32VW55X_Wifi_BLE_SDK/GD32VW55x_RELEASE_V1.0.2/MSDK/util/src\debug_print.c ****     char *tmp_ptr = NULL;
 1642              		.loc 1 704 5
 705:C:/Users/stapi/OneDrive/Desktop/GD32VW553/V1_MQTT_OK/GD32VW55X_Wifi_BLE_SDK/GD32VW55x_RELEASE_V1.0.2/MSDK/util/src\debug_print.c **** 
 706:C:/Users/stapi/OneDrive/Desktop/GD32VW553/V1_MQTT_OK/GD32VW55X_Wifi_BLE_SDK/GD32VW55x_RELEASE_V1.0.2/MSDK/util/src\debug_print.c ****     uint32_t res = 0, remain;
 1643              		.loc 1 706 5
 707:C:/Users/stapi/OneDrive/Desktop/GD32VW553/V1_MQTT_OK/GD32VW55X_Wifi_BLE_SDK/GD32VW55x_RELEASE_V1.0.2/MSDK/util/src\debug_print.c **** 
 708:C:/Users/stapi/OneDrive/Desktop/GD32VW553/V1_MQTT_OK/GD32VW55X_Wifi_BLE_SDK/GD32VW55x_RELEASE_V1.0.2/MSDK/util/src\debug_print.c ****     #define WRITE_CHAR(_c) if (remain && res >= offset) \
 709:C:/Users/stapi/OneDrive/Desktop/GD32VW553/V1_MQTT_OK/GD32VW55X_Wifi_BLE_SDK/GD32VW55x_RELEASE_V1.0.2/MSDK/util/src\debug_print.c ****         {                                               \
 710:C:/Users/stapi/OneDrive/Desktop/GD32VW553/V1_MQTT_OK/GD32VW55X_Wifi_BLE_SDK/GD32VW55x_RELEASE_V1.0.2/MSDK/util/src\debug_print.c ****             *buffer++ = (_c);remain--;                  \
 711:C:/Users/stapi/OneDrive/Desktop/GD32VW553/V1_MQTT_OK/GD32VW55X_Wifi_BLE_SDK/GD32VW55x_RELEASE_V1.0.2/MSDK/util/src\debug_print.c ****         }                                               \
 712:C:/Users/stapi/OneDrive/Desktop/GD32VW553/V1_MQTT_OK/GD32VW55X_Wifi_BLE_SDK/GD32VW55x_RELEASE_V1.0.2/MSDK/util/src\debug_print.c ****         res++
 713:C:/Users/stapi/OneDrive/Desktop/GD32VW553/V1_MQTT_OK/GD32VW55X_Wifi_BLE_SDK/GD32VW55x_RELEASE_V1.0.2/MSDK/util/src\debug_print.c **** 
 714:C:/Users/stapi/OneDrive/Desktop/GD32VW553/V1_MQTT_OK/GD32VW55X_Wifi_BLE_SDK/GD32VW55x_RELEASE_V1.0.2/MSDK/util/src\debug_print.c ****     // Check parameters: If buffer is NULL then size MUST be 0.
 715:C:/Users/stapi/OneDrive/Desktop/GD32VW553/V1_MQTT_OK/GD32VW55X_Wifi_BLE_SDK/GD32VW55x_RELEASE_V1.0.2/MSDK/util/src\debug_print.c ****     if (buffer == NULL)
 1644              		.loc 1 715 5
 1645              		.loc 1 715 8 is_stmt 0
 1646 001c 11E1     		bne	a0,zero,.L150
 716:C:/Users/stapi/OneDrive/Desktop/GD32VW553/V1_MQTT_OK/GD32VW55X_Wifi_BLE_SDK/GD32VW55x_RELEASE_V1.0.2/MSDK/util/src\debug_print.c ****         size = 0;
 1647              		.loc 1 716 14
 1648 001e 8145     		li	a1,0
 1649              	.LVL183:
 1650              	.L150:
 717:C:/Users/stapi/OneDrive/Desktop/GD32VW553/V1_MQTT_OK/GD32VW55X_Wifi_BLE_SDK/GD32VW55x_RELEASE_V1.0.2/MSDK/util/src\debug_print.c **** 
 718:C:/Users/stapi/OneDrive/Desktop/GD32VW553/V1_MQTT_OK/GD32VW55X_Wifi_BLE_SDK/GD32VW55x_RELEASE_V1.0.2/MSDK/util/src\debug_print.c ****     remain = size;
 1651              		.loc 1 718 5 is_stmt 1
 719:C:/Users/stapi/OneDrive/Desktop/GD32VW553/V1_MQTT_OK/GD32VW55X_Wifi_BLE_SDK/GD32VW55x_RELEASE_V1.0.2/MSDK/util/src\debug_print.c **** 
 720:C:/Users/stapi/OneDrive/Desktop/GD32VW553/V1_MQTT_OK/GD32VW55X_Wifi_BLE_SDK/GD32VW55x_RELEASE_V1.0.2/MSDK/util/src\debug_print.c ****     // For each char in format string
 721:C:/Users/stapi/OneDrive/Desktop/GD32VW553/V1_MQTT_OK/GD32VW55X_Wifi_BLE_SDK/GD32VW55x_RELEASE_V1.0.2/MSDK/util/src\debug_print.c ****     while ((c = *fmt++) != 0) {
 1652              		.loc 1 721 5
 1653 0020 37090000 		lui	s2,%hi(.L156)
 1654 0024 B7198000 		li	s3,8392704
 1655 0028 370A0000 		lui	s4,%hi(.L159)
 722:C:/Users/stapi/OneDrive/Desktop/GD32VW553/V1_MQTT_OK/GD32VW55X_Wifi_BLE_SDK/GD32VW55x_RELEASE_V1.0.2/MSDK/util/src\debug_print.c ****         state_current =  transition_table[state_current][type_get(c)];
 1656              		.loc 1 722 57 is_stmt 0
 1657 002c B70A0000 		lui	s5,%hi(.LANCHOR0)
 1658 0030 370B0000 		lui	s6,%hi(.L168)
 723:C:/Users/stapi/OneDrive/Desktop/GD32VW553/V1_MQTT_OK/GD32VW55X_Wifi_BLE_SDK/GD32VW55x_RELEASE_V1.0.2/MSDK/util/src\debug_print.c **** 
 724:C:/Users/stapi/OneDrive/Desktop/GD32VW553/V1_MQTT_OK/GD32VW55X_Wifi_BLE_SDK/GD32VW55x_RELEASE_V1.0.2/MSDK/util/src\debug_print.c ****         switch (state_current)
 725:C:/Users/stapi/OneDrive/Desktop/GD32VW553/V1_MQTT_OK/GD32VW55X_Wifi_BLE_SDK/GD32VW55x_RELEASE_V1.0.2/MSDK/util/src\debug_print.c ****         {
 726:C:/Users/stapi/OneDrive/Desktop/GD32VW553/V1_MQTT_OK/GD32VW55X_Wifi_BLE_SDK/GD32VW55x_RELEASE_V1.0.2/MSDK/util/src\debug_print.c ****         case S_COPY:
 727:C:/Users/stapi/OneDrive/Desktop/GD32VW553/V1_MQTT_OK/GD32VW55X_Wifi_BLE_SDK/GD32VW55x_RELEASE_V1.0.2/MSDK/util/src\debug_print.c ****             WRITE_CHAR(c);
 728:C:/Users/stapi/OneDrive/Desktop/GD32VW553/V1_MQTT_OK/GD32VW55X_Wifi_BLE_SDK/GD32VW55x_RELEASE_V1.0.2/MSDK/util/src\debug_print.c ****             break;
 729:C:/Users/stapi/OneDrive/Desktop/GD32VW553/V1_MQTT_OK/GD32VW55X_Wifi_BLE_SDK/GD32VW55x_RELEASE_V1.0.2/MSDK/util/src\debug_print.c **** 
 730:C:/Users/stapi/OneDrive/Desktop/GD32VW553/V1_MQTT_OK/GD32VW55X_Wifi_BLE_SDK/GD32VW55x_RELEASE_V1.0.2/MSDK/util/src\debug_print.c ****         case S_PERCENT:
 731:C:/Users/stapi/OneDrive/Desktop/GD32VW553/V1_MQTT_OK/GD32VW55X_Wifi_BLE_SDK/GD32VW55x_RELEASE_V1.0.2/MSDK/util/src\debug_print.c ****             // Assign default value for the conversion parameters
 732:C:/Users/stapi/OneDrive/Desktop/GD32VW553/V1_MQTT_OK/GD32VW55X_Wifi_BLE_SDK/GD32VW55x_RELEASE_V1.0.2/MSDK/util/src\debug_print.c ****             field_width = 0;
 733:C:/Users/stapi/OneDrive/Desktop/GD32VW553/V1_MQTT_OK/GD32VW55X_Wifi_BLE_SDK/GD32VW55x_RELEASE_V1.0.2/MSDK/util/src\debug_print.c ****             field_flags = 0;
 734:C:/Users/stapi/OneDrive/Desktop/GD32VW553/V1_MQTT_OK/GD32VW55X_Wifi_BLE_SDK/GD32VW55x_RELEASE_V1.0.2/MSDK/util/src\debug_print.c ****             field_precision = -1;
 735:C:/Users/stapi/OneDrive/Desktop/GD32VW553/V1_MQTT_OK/GD32VW55X_Wifi_BLE_SDK/GD32VW55x_RELEASE_V1.0.2/MSDK/util/src\debug_print.c ****             break;
 736:C:/Users/stapi/OneDrive/Desktop/GD32VW553/V1_MQTT_OK/GD32VW55X_Wifi_BLE_SDK/GD32VW55x_RELEASE_V1.0.2/MSDK/util/src\debug_print.c **** 
 737:C:/Users/stapi/OneDrive/Desktop/GD32VW553/V1_MQTT_OK/GD32VW55X_Wifi_BLE_SDK/GD32VW55x_RELEASE_V1.0.2/MSDK/util/src\debug_print.c ****         case S_FLAGS:
 738:C:/Users/stapi/OneDrive/Desktop/GD32VW553/V1_MQTT_OK/GD32VW55X_Wifi_BLE_SDK/GD32VW55x_RELEASE_V1.0.2/MSDK/util/src\debug_print.c ****             // set flag based on which flag character
 739:C:/Users/stapi/OneDrive/Desktop/GD32VW553/V1_MQTT_OK/GD32VW55X_Wifi_BLE_SDK/GD32VW55x_RELEASE_V1.0.2/MSDK/util/src\debug_print.c ****             switch (c)
 740:C:/Users/stapi/OneDrive/Desktop/GD32VW553/V1_MQTT_OK/GD32VW55X_Wifi_BLE_SDK/GD32VW55x_RELEASE_V1.0.2/MSDK/util/src\debug_print.c ****             {
 741:C:/Users/stapi/OneDrive/Desktop/GD32VW553/V1_MQTT_OK/GD32VW55X_Wifi_BLE_SDK/GD32VW55x_RELEASE_V1.0.2/MSDK/util/src\debug_print.c ****             case '-':
 742:C:/Users/stapi/OneDrive/Desktop/GD32VW553/V1_MQTT_OK/GD32VW55X_Wifi_BLE_SDK/GD32VW55x_RELEASE_V1.0.2/MSDK/util/src\debug_print.c ****                 // left justify
 743:C:/Users/stapi/OneDrive/Desktop/GD32VW553/V1_MQTT_OK/GD32VW55X_Wifi_BLE_SDK/GD32VW55x_RELEASE_V1.0.2/MSDK/util/src\debug_print.c ****                 field_flags |= FLAG_LEFT;
 744:C:/Users/stapi/OneDrive/Desktop/GD32VW553/V1_MQTT_OK/GD32VW55X_Wifi_BLE_SDK/GD32VW55x_RELEASE_V1.0.2/MSDK/util/src\debug_print.c ****                 break;
 745:C:/Users/stapi/OneDrive/Desktop/GD32VW553/V1_MQTT_OK/GD32VW55X_Wifi_BLE_SDK/GD32VW55x_RELEASE_V1.0.2/MSDK/util/src\debug_print.c ****             case '+':
 746:C:/Users/stapi/OneDrive/Desktop/GD32VW553/V1_MQTT_OK/GD32VW55X_Wifi_BLE_SDK/GD32VW55x_RELEASE_V1.0.2/MSDK/util/src\debug_print.c ****                 // force sign indicator
 747:C:/Users/stapi/OneDrive/Desktop/GD32VW553/V1_MQTT_OK/GD32VW55X_Wifi_BLE_SDK/GD32VW55x_RELEASE_V1.0.2/MSDK/util/src\debug_print.c ****                 field_flags |= FLAG_SIGN;
 748:C:/Users/stapi/OneDrive/Desktop/GD32VW553/V1_MQTT_OK/GD32VW55X_Wifi_BLE_SDK/GD32VW55x_RELEASE_V1.0.2/MSDK/util/src\debug_print.c ****                 break;
 749:C:/Users/stapi/OneDrive/Desktop/GD32VW553/V1_MQTT_OK/GD32VW55X_Wifi_BLE_SDK/GD32VW55x_RELEASE_V1.0.2/MSDK/util/src\debug_print.c ****             case ' ':
 750:C:/Users/stapi/OneDrive/Desktop/GD32VW553/V1_MQTT_OK/GD32VW55X_Wifi_BLE_SDK/GD32VW55x_RELEASE_V1.0.2/MSDK/util/src\debug_print.c ****                 // force sign or space
 751:C:/Users/stapi/OneDrive/Desktop/GD32VW553/V1_MQTT_OK/GD32VW55X_Wifi_BLE_SDK/GD32VW55x_RELEASE_V1.0.2/MSDK/util/src\debug_print.c ****                 field_flags |= FLAG_SIGN_SPACE;
 752:C:/Users/stapi/OneDrive/Desktop/GD32VW553/V1_MQTT_OK/GD32VW55X_Wifi_BLE_SDK/GD32VW55x_RELEASE_V1.0.2/MSDK/util/src\debug_print.c ****                 break;
 753:C:/Users/stapi/OneDrive/Desktop/GD32VW553/V1_MQTT_OK/GD32VW55X_Wifi_BLE_SDK/GD32VW55x_RELEASE_V1.0.2/MSDK/util/src\debug_print.c ****             case '0':
 754:C:/Users/stapi/OneDrive/Desktop/GD32VW553/V1_MQTT_OK/GD32VW55X_Wifi_BLE_SDK/GD32VW55x_RELEASE_V1.0.2/MSDK/util/src\debug_print.c ****                 // pad with leading 0
 755:C:/Users/stapi/OneDrive/Desktop/GD32VW553/V1_MQTT_OK/GD32VW55X_Wifi_BLE_SDK/GD32VW55x_RELEASE_V1.0.2/MSDK/util/src\debug_print.c ****                 field_flags |= FLAG_LEAD_ZERO;
 756:C:/Users/stapi/OneDrive/Desktop/GD32VW553/V1_MQTT_OK/GD32VW55X_Wifi_BLE_SDK/GD32VW55x_RELEASE_V1.0.2/MSDK/util/src\debug_print.c ****                 break;
 757:C:/Users/stapi/OneDrive/Desktop/GD32VW553/V1_MQTT_OK/GD32VW55X_Wifi_BLE_SDK/GD32VW55x_RELEASE_V1.0.2/MSDK/util/src\debug_print.c ****             default:
 758:C:/Users/stapi/OneDrive/Desktop/GD32VW553/V1_MQTT_OK/GD32VW55X_Wifi_BLE_SDK/GD32VW55x_RELEASE_V1.0.2/MSDK/util/src\debug_print.c ****                 PLF_ASSERT_ERR(0);
 759:C:/Users/stapi/OneDrive/Desktop/GD32VW553/V1_MQTT_OK/GD32VW55X_Wifi_BLE_SDK/GD32VW55x_RELEASE_V1.0.2/MSDK/util/src\debug_print.c ****                 break;
 760:C:/Users/stapi/OneDrive/Desktop/GD32VW553/V1_MQTT_OK/GD32VW55X_Wifi_BLE_SDK/GD32VW55x_RELEASE_V1.0.2/MSDK/util/src\debug_print.c ****             }
 761:C:/Users/stapi/OneDrive/Desktop/GD32VW553/V1_MQTT_OK/GD32VW55X_Wifi_BLE_SDK/GD32VW55x_RELEASE_V1.0.2/MSDK/util/src\debug_print.c ****             break;
 762:C:/Users/stapi/OneDrive/Desktop/GD32VW553/V1_MQTT_OK/GD32VW55X_Wifi_BLE_SDK/GD32VW55x_RELEASE_V1.0.2/MSDK/util/src\debug_print.c **** 
 763:C:/Users/stapi/OneDrive/Desktop/GD32VW553/V1_MQTT_OK/GD32VW55X_Wifi_BLE_SDK/GD32VW55x_RELEASE_V1.0.2/MSDK/util/src\debug_print.c ****         case S_WIDTH:
 764:C:/Users/stapi/OneDrive/Desktop/GD32VW553/V1_MQTT_OK/GD32VW55X_Wifi_BLE_SDK/GD32VW55x_RELEASE_V1.0.2/MSDK/util/src\debug_print.c ****             if (c != '*') {
 765:C:/Users/stapi/OneDrive/Desktop/GD32VW553/V1_MQTT_OK/GD32VW55X_Wifi_BLE_SDK/GD32VW55x_RELEASE_V1.0.2/MSDK/util/src\debug_print.c ****                 // add digit to current field width
 766:C:/Users/stapi/OneDrive/Desktop/GD32VW553/V1_MQTT_OK/GD32VW55X_Wifi_BLE_SDK/GD32VW55x_RELEASE_V1.0.2/MSDK/util/src\debug_print.c ****                 field_width = field_width * 10 + (c - '0');
 767:C:/Users/stapi/OneDrive/Desktop/GD32VW553/V1_MQTT_OK/GD32VW55X_Wifi_BLE_SDK/GD32VW55x_RELEASE_V1.0.2/MSDK/util/src\debug_print.c ****             } else {
 768:C:/Users/stapi/OneDrive/Desktop/GD32VW553/V1_MQTT_OK/GD32VW55X_Wifi_BLE_SDK/GD32VW55x_RELEASE_V1.0.2/MSDK/util/src\debug_print.c ****                 field_width = (int)va_arg(args, int);
 769:C:/Users/stapi/OneDrive/Desktop/GD32VW553/V1_MQTT_OK/GD32VW55X_Wifi_BLE_SDK/GD32VW55x_RELEASE_V1.0.2/MSDK/util/src\debug_print.c ****             }
 770:C:/Users/stapi/OneDrive/Desktop/GD32VW553/V1_MQTT_OK/GD32VW55X_Wifi_BLE_SDK/GD32VW55x_RELEASE_V1.0.2/MSDK/util/src\debug_print.c ****             break;
 771:C:/Users/stapi/OneDrive/Desktop/GD32VW553/V1_MQTT_OK/GD32VW55X_Wifi_BLE_SDK/GD32VW55x_RELEASE_V1.0.2/MSDK/util/src\debug_print.c **** 
 772:C:/Users/stapi/OneDrive/Desktop/GD32VW553/V1_MQTT_OK/GD32VW55X_Wifi_BLE_SDK/GD32VW55x_RELEASE_V1.0.2/MSDK/util/src\debug_print.c ****         case S_DOT:
 773:C:/Users/stapi/OneDrive/Desktop/GD32VW553/V1_MQTT_OK/GD32VW55X_Wifi_BLE_SDK/GD32VW55x_RELEASE_V1.0.2/MSDK/util/src\debug_print.c ****             // Clear the field_precision variable
 774:C:/Users/stapi/OneDrive/Desktop/GD32VW553/V1_MQTT_OK/GD32VW55X_Wifi_BLE_SDK/GD32VW55x_RELEASE_V1.0.2/MSDK/util/src\debug_print.c ****             field_precision = 0;
 775:C:/Users/stapi/OneDrive/Desktop/GD32VW553/V1_MQTT_OK/GD32VW55X_Wifi_BLE_SDK/GD32VW55x_RELEASE_V1.0.2/MSDK/util/src\debug_print.c ****             break;
 776:C:/Users/stapi/OneDrive/Desktop/GD32VW553/V1_MQTT_OK/GD32VW55X_Wifi_BLE_SDK/GD32VW55x_RELEASE_V1.0.2/MSDK/util/src\debug_print.c **** 
 777:C:/Users/stapi/OneDrive/Desktop/GD32VW553/V1_MQTT_OK/GD32VW55X_Wifi_BLE_SDK/GD32VW55x_RELEASE_V1.0.2/MSDK/util/src\debug_print.c ****         case S_PRECIS:
 778:C:/Users/stapi/OneDrive/Desktop/GD32VW553/V1_MQTT_OK/GD32VW55X_Wifi_BLE_SDK/GD32VW55x_RELEASE_V1.0.2/MSDK/util/src\debug_print.c ****             if (c != '*') {
 779:C:/Users/stapi/OneDrive/Desktop/GD32VW553/V1_MQTT_OK/GD32VW55X_Wifi_BLE_SDK/GD32VW55x_RELEASE_V1.0.2/MSDK/util/src\debug_print.c ****                 // Add digit to field_precision variable
 780:C:/Users/stapi/OneDrive/Desktop/GD32VW553/V1_MQTT_OK/GD32VW55X_Wifi_BLE_SDK/GD32VW55x_RELEASE_V1.0.2/MSDK/util/src\debug_print.c ****                 field_precision = field_precision * 10 + (c - '0');
 781:C:/Users/stapi/OneDrive/Desktop/GD32VW553/V1_MQTT_OK/GD32VW55X_Wifi_BLE_SDK/GD32VW55x_RELEASE_V1.0.2/MSDK/util/src\debug_print.c ****             } else {
