   1              		.file	"dlist.c"
   2              		.option nopic
   3              		.attribute arch, "rv32i2p0_m2p0_a2p0_f2p0_c2p0_b_p0p94"
   4              		.attribute unaligned_access, 0
   5              		.attribute stack_align, 16
   6              		.text
   7              	.Ltext0:
   8              		.cfi_sections	.debug_frame
   9              		.section	.text.list_add,"ax",@progbits
  10              		.align	1
  11              		.globl	list_add
  13              	list_add:
  14              	.LFB0:
  15              		.file 1 "C:/Users/stapi/OneDrive/Desktop/GD32VW553/GD32VW55X_Wifi_BLE_SDK/GD32VW55x_RELEASE_V1.0.2
   1:C:/Users/stapi/OneDrive/Desktop/GD32VW553/GD32VW55X_Wifi_BLE_SDK/GD32VW55x_RELEASE_V1.0.2/MSDK/util/src\dlist.c **** /*!
   2:C:/Users/stapi/OneDrive/Desktop/GD32VW553/GD32VW55X_Wifi_BLE_SDK/GD32VW55x_RELEASE_V1.0.2/MSDK/util/src\dlist.c ****     \file    dlist.c
   3:C:/Users/stapi/OneDrive/Desktop/GD32VW553/GD32VW55X_Wifi_BLE_SDK/GD32VW55x_RELEASE_V1.0.2/MSDK/util/src\dlist.c ****     \brief   Dlist function for GD32VW55x SDK.
   4:C:/Users/stapi/OneDrive/Desktop/GD32VW553/GD32VW55X_Wifi_BLE_SDK/GD32VW55x_RELEASE_V1.0.2/MSDK/util/src\dlist.c **** 
   5:C:/Users/stapi/OneDrive/Desktop/GD32VW553/GD32VW55X_Wifi_BLE_SDK/GD32VW55x_RELEASE_V1.0.2/MSDK/util/src\dlist.c ****     \version 2023-07-20, V1.0.0, firmware for GD32VW55x
   6:C:/Users/stapi/OneDrive/Desktop/GD32VW553/GD32VW55X_Wifi_BLE_SDK/GD32VW55x_RELEASE_V1.0.2/MSDK/util/src\dlist.c **** */
   7:C:/Users/stapi/OneDrive/Desktop/GD32VW553/GD32VW55X_Wifi_BLE_SDK/GD32VW55x_RELEASE_V1.0.2/MSDK/util/src\dlist.c **** 
   8:C:/Users/stapi/OneDrive/Desktop/GD32VW553/GD32VW55X_Wifi_BLE_SDK/GD32VW55x_RELEASE_V1.0.2/MSDK/util/src\dlist.c **** /*
   9:C:/Users/stapi/OneDrive/Desktop/GD32VW553/GD32VW55X_Wifi_BLE_SDK/GD32VW55x_RELEASE_V1.0.2/MSDK/util/src\dlist.c ****     Copyright (c) 2023, GigaDevice Semiconductor Inc.
  10:C:/Users/stapi/OneDrive/Desktop/GD32VW553/GD32VW55X_Wifi_BLE_SDK/GD32VW55x_RELEASE_V1.0.2/MSDK/util/src\dlist.c **** 
  11:C:/Users/stapi/OneDrive/Desktop/GD32VW553/GD32VW55X_Wifi_BLE_SDK/GD32VW55x_RELEASE_V1.0.2/MSDK/util/src\dlist.c ****     Redistribution and use in source and binary forms, with or without modification,
  12:C:/Users/stapi/OneDrive/Desktop/GD32VW553/GD32VW55X_Wifi_BLE_SDK/GD32VW55x_RELEASE_V1.0.2/MSDK/util/src\dlist.c **** are permitted provided that the following conditions are met:
  13:C:/Users/stapi/OneDrive/Desktop/GD32VW553/GD32VW55X_Wifi_BLE_SDK/GD32VW55x_RELEASE_V1.0.2/MSDK/util/src\dlist.c **** 
  14:C:/Users/stapi/OneDrive/Desktop/GD32VW553/GD32VW55X_Wifi_BLE_SDK/GD32VW55x_RELEASE_V1.0.2/MSDK/util/src\dlist.c ****     1. Redistributions of source code must retain the above copyright notice, this
  15:C:/Users/stapi/OneDrive/Desktop/GD32VW553/GD32VW55X_Wifi_BLE_SDK/GD32VW55x_RELEASE_V1.0.2/MSDK/util/src\dlist.c ****        list of conditions and the following disclaimer.
  16:C:/Users/stapi/OneDrive/Desktop/GD32VW553/GD32VW55X_Wifi_BLE_SDK/GD32VW55x_RELEASE_V1.0.2/MSDK/util/src\dlist.c ****     2. Redistributions in binary form must reproduce the above copyright notice,
  17:C:/Users/stapi/OneDrive/Desktop/GD32VW553/GD32VW55X_Wifi_BLE_SDK/GD32VW55x_RELEASE_V1.0.2/MSDK/util/src\dlist.c ****        this list of conditions and the following disclaimer in the documentation
  18:C:/Users/stapi/OneDrive/Desktop/GD32VW553/GD32VW55X_Wifi_BLE_SDK/GD32VW55x_RELEASE_V1.0.2/MSDK/util/src\dlist.c ****        and/or other materials provided with the distribution.
  19:C:/Users/stapi/OneDrive/Desktop/GD32VW553/GD32VW55X_Wifi_BLE_SDK/GD32VW55x_RELEASE_V1.0.2/MSDK/util/src\dlist.c ****     3. Neither the name of the copyright holder nor the names of its contributors
  20:C:/Users/stapi/OneDrive/Desktop/GD32VW553/GD32VW55X_Wifi_BLE_SDK/GD32VW55x_RELEASE_V1.0.2/MSDK/util/src\dlist.c ****        may be used to endorse or promote products derived from this software without
  21:C:/Users/stapi/OneDrive/Desktop/GD32VW553/GD32VW55X_Wifi_BLE_SDK/GD32VW55x_RELEASE_V1.0.2/MSDK/util/src\dlist.c ****        specific prior written permission.
  22:C:/Users/stapi/OneDrive/Desktop/GD32VW553/GD32VW55X_Wifi_BLE_SDK/GD32VW55x_RELEASE_V1.0.2/MSDK/util/src\dlist.c **** 
  23:C:/Users/stapi/OneDrive/Desktop/GD32VW553/GD32VW55X_Wifi_BLE_SDK/GD32VW55x_RELEASE_V1.0.2/MSDK/util/src\dlist.c ****     THIS SOFTWARE IS PROVIDED BY THE COPYRIGHT HOLDERS AND CONTRIBUTORS "AS IS"
  24:C:/Users/stapi/OneDrive/Desktop/GD32VW553/GD32VW55X_Wifi_BLE_SDK/GD32VW55x_RELEASE_V1.0.2/MSDK/util/src\dlist.c **** AND ANY EXPRESS OR IMPLIED WARRANTIES, INCLUDING, BUT NOT LIMITED TO, THE IMPLIED
  25:C:/Users/stapi/OneDrive/Desktop/GD32VW553/GD32VW55X_Wifi_BLE_SDK/GD32VW55x_RELEASE_V1.0.2/MSDK/util/src\dlist.c **** WARRANTIES OF MERCHANTABILITY AND FITNESS FOR A PARTICULAR PURPOSE ARE DISCLAIMED.
  26:C:/Users/stapi/OneDrive/Desktop/GD32VW553/GD32VW55X_Wifi_BLE_SDK/GD32VW55x_RELEASE_V1.0.2/MSDK/util/src\dlist.c **** IN NO EVENT SHALL THE COPYRIGHT HOLDER OR CONTRIBUTORS BE LIABLE FOR ANY DIRECT,
  27:C:/Users/stapi/OneDrive/Desktop/GD32VW553/GD32VW55X_Wifi_BLE_SDK/GD32VW55x_RELEASE_V1.0.2/MSDK/util/src\dlist.c **** INDIRECT, INCIDENTAL, SPECIAL, EXEMPLARY, OR CONSEQUENTIAL DAMAGES (INCLUDING, BUT
  28:C:/Users/stapi/OneDrive/Desktop/GD32VW553/GD32VW55X_Wifi_BLE_SDK/GD32VW55x_RELEASE_V1.0.2/MSDK/util/src\dlist.c **** NOT LIMITED TO, PROCUREMENT OF SUBSTITUTE GOODS OR SERVICES; LOSS OF USE, DATA, OR
  29:C:/Users/stapi/OneDrive/Desktop/GD32VW553/GD32VW55X_Wifi_BLE_SDK/GD32VW55x_RELEASE_V1.0.2/MSDK/util/src\dlist.c **** PROFITS; OR BUSINESS INTERRUPTION) HOWEVER CAUSED AND ON ANY THEORY OF LIABILITY,
  30:C:/Users/stapi/OneDrive/Desktop/GD32VW553/GD32VW55X_Wifi_BLE_SDK/GD32VW55x_RELEASE_V1.0.2/MSDK/util/src\dlist.c **** WHETHER IN CONTRACT, STRICT LIABILITY, OR TORT (INCLUDING NEGLIGENCE OR OTHERWISE)
  31:C:/Users/stapi/OneDrive/Desktop/GD32VW553/GD32VW55X_Wifi_BLE_SDK/GD32VW55x_RELEASE_V1.0.2/MSDK/util/src\dlist.c **** ARISING IN ANY WAY OUT OF THE USE OF THIS SOFTWARE, EVEN IF ADVISED OF THE POSSIBILITY
  32:C:/Users/stapi/OneDrive/Desktop/GD32VW553/GD32VW55X_Wifi_BLE_SDK/GD32VW55x_RELEASE_V1.0.2/MSDK/util/src\dlist.c **** OF SUCH DAMAGE.
  33:C:/Users/stapi/OneDrive/Desktop/GD32VW553/GD32VW55X_Wifi_BLE_SDK/GD32VW55x_RELEASE_V1.0.2/MSDK/util/src\dlist.c **** */
  34:C:/Users/stapi/OneDrive/Desktop/GD32VW553/GD32VW55X_Wifi_BLE_SDK/GD32VW55x_RELEASE_V1.0.2/MSDK/util/src\dlist.c **** 
  35:C:/Users/stapi/OneDrive/Desktop/GD32VW553/GD32VW55X_Wifi_BLE_SDK/GD32VW55x_RELEASE_V1.0.2/MSDK/util/src\dlist.c **** #include "dlist.h"
  36:C:/Users/stapi/OneDrive/Desktop/GD32VW553/GD32VW55X_Wifi_BLE_SDK/GD32VW55x_RELEASE_V1.0.2/MSDK/util/src\dlist.c **** 
  37:C:/Users/stapi/OneDrive/Desktop/GD32VW553/GD32VW55X_Wifi_BLE_SDK/GD32VW55x_RELEASE_V1.0.2/MSDK/util/src\dlist.c **** /*!
  38:C:/Users/stapi/OneDrive/Desktop/GD32VW553/GD32VW55X_Wifi_BLE_SDK/GD32VW55x_RELEASE_V1.0.2/MSDK/util/src\dlist.c ****     \brief      insert a new entry after the specified head
  39:C:/Users/stapi/OneDrive/Desktop/GD32VW553/GD32VW55X_Wifi_BLE_SDK/GD32VW55x_RELEASE_V1.0.2/MSDK/util/src\dlist.c ****     \param[in]  new: the new entry
  40:C:/Users/stapi/OneDrive/Desktop/GD32VW553/GD32VW55X_Wifi_BLE_SDK/GD32VW55x_RELEASE_V1.0.2/MSDK/util/src\dlist.c ****     \param[in]  head: the specified head
  41:C:/Users/stapi/OneDrive/Desktop/GD32VW553/GD32VW55X_Wifi_BLE_SDK/GD32VW55x_RELEASE_V1.0.2/MSDK/util/src\dlist.c ****     \param[out] none
  42:C:/Users/stapi/OneDrive/Desktop/GD32VW553/GD32VW55X_Wifi_BLE_SDK/GD32VW55x_RELEASE_V1.0.2/MSDK/util/src\dlist.c ****     \retval     none
  43:C:/Users/stapi/OneDrive/Desktop/GD32VW553/GD32VW55X_Wifi_BLE_SDK/GD32VW55x_RELEASE_V1.0.2/MSDK/util/src\dlist.c **** */
  44:C:/Users/stapi/OneDrive/Desktop/GD32VW553/GD32VW55X_Wifi_BLE_SDK/GD32VW55x_RELEASE_V1.0.2/MSDK/util/src\dlist.c **** void list_add(struct list_head *node, struct list_head *head)
  45:C:/Users/stapi/OneDrive/Desktop/GD32VW553/GD32VW55X_Wifi_BLE_SDK/GD32VW55x_RELEASE_V1.0.2/MSDK/util/src\dlist.c **** {
  16              		.loc 1 45 1
  17              		.cfi_startproc
  18              	.LVL0:
  46:C:/Users/stapi/OneDrive/Desktop/GD32VW553/GD32VW55X_Wifi_BLE_SDK/GD32VW55x_RELEASE_V1.0.2/MSDK/util/src\dlist.c ****     struct list_head *prev = head;
  19              		.loc 1 46 5
  47:C:/Users/stapi/OneDrive/Desktop/GD32VW553/GD32VW55X_Wifi_BLE_SDK/GD32VW55x_RELEASE_V1.0.2/MSDK/util/src\dlist.c ****     struct list_head *next = head->next;
  20              		.loc 1 47 5
  21              		.loc 1 47 23 is_stmt 0
  22 0000 9C41     		lw	a5,0(a1)
  23              	.LVL1:
  48:C:/Users/stapi/OneDrive/Desktop/GD32VW553/GD32VW55X_Wifi_BLE_SDK/GD32VW55x_RELEASE_V1.0.2/MSDK/util/src\dlist.c **** 
  49:C:/Users/stapi/OneDrive/Desktop/GD32VW553/GD32VW55X_Wifi_BLE_SDK/GD32VW55x_RELEASE_V1.0.2/MSDK/util/src\dlist.c ****     next->prev = node;
  24              		.loc 1 49 5 is_stmt 1
  25              		.loc 1 49 16 is_stmt 0
  26 0002 C8C3     		sw	a0,4(a5)
  50:C:/Users/stapi/OneDrive/Desktop/GD32VW553/GD32VW55X_Wifi_BLE_SDK/GD32VW55x_RELEASE_V1.0.2/MSDK/util/src\dlist.c ****     node->next = next;
  27              		.loc 1 50 5 is_stmt 1
  28              		.loc 1 50 16 is_stmt 0
  29 0004 1CC1     		sw	a5,0(a0)
  51:C:/Users/stapi/OneDrive/Desktop/GD32VW553/GD32VW55X_Wifi_BLE_SDK/GD32VW55x_RELEASE_V1.0.2/MSDK/util/src\dlist.c ****     node->prev = prev;
  30              		.loc 1 51 5 is_stmt 1
  31              		.loc 1 51 16 is_stmt 0
  32 0006 4CC1     		sw	a1,4(a0)
  52:C:/Users/stapi/OneDrive/Desktop/GD32VW553/GD32VW55X_Wifi_BLE_SDK/GD32VW55x_RELEASE_V1.0.2/MSDK/util/src\dlist.c ****     prev->next = node;
  33              		.loc 1 52 5 is_stmt 1
  34              		.loc 1 52 16 is_stmt 0
  35 0008 88C1     		sw	a0,0(a1)
  53:C:/Users/stapi/OneDrive/Desktop/GD32VW553/GD32VW55X_Wifi_BLE_SDK/GD32VW55x_RELEASE_V1.0.2/MSDK/util/src\dlist.c **** }
  36              		.loc 1 53 1
  37 000a 8280     		ret
  38              		.cfi_endproc
  39              	.LFE0:
  41              		.section	.text.list_add_tail,"ax",@progbits
  42              		.align	1
  43              		.globl	list_add_tail
  45              	list_add_tail:
  46              	.LFB1:
  54:C:/Users/stapi/OneDrive/Desktop/GD32VW553/GD32VW55X_Wifi_BLE_SDK/GD32VW55x_RELEASE_V1.0.2/MSDK/util/src\dlist.c **** 
  55:C:/Users/stapi/OneDrive/Desktop/GD32VW553/GD32VW55X_Wifi_BLE_SDK/GD32VW55x_RELEASE_V1.0.2/MSDK/util/src\dlist.c **** /*!
  56:C:/Users/stapi/OneDrive/Desktop/GD32VW553/GD32VW55X_Wifi_BLE_SDK/GD32VW55x_RELEASE_V1.0.2/MSDK/util/src\dlist.c ****     \brief      insert a new entry before the specified head
  57:C:/Users/stapi/OneDrive/Desktop/GD32VW553/GD32VW55X_Wifi_BLE_SDK/GD32VW55x_RELEASE_V1.0.2/MSDK/util/src\dlist.c ****     \param[in]  new: the new entry
  58:C:/Users/stapi/OneDrive/Desktop/GD32VW553/GD32VW55X_Wifi_BLE_SDK/GD32VW55x_RELEASE_V1.0.2/MSDK/util/src\dlist.c ****     \param[in]  head: the specified head
  59:C:/Users/stapi/OneDrive/Desktop/GD32VW553/GD32VW55X_Wifi_BLE_SDK/GD32VW55x_RELEASE_V1.0.2/MSDK/util/src\dlist.c ****     \param[out] none
  60:C:/Users/stapi/OneDrive/Desktop/GD32VW553/GD32VW55X_Wifi_BLE_SDK/GD32VW55x_RELEASE_V1.0.2/MSDK/util/src\dlist.c ****     \retval     none
  61:C:/Users/stapi/OneDrive/Desktop/GD32VW553/GD32VW55X_Wifi_BLE_SDK/GD32VW55x_RELEASE_V1.0.2/MSDK/util/src\dlist.c **** */
  62:C:/Users/stapi/OneDrive/Desktop/GD32VW553/GD32VW55X_Wifi_BLE_SDK/GD32VW55x_RELEASE_V1.0.2/MSDK/util/src\dlist.c **** void list_add_tail(struct list_head *node, struct list_head *head)
  63:C:/Users/stapi/OneDrive/Desktop/GD32VW553/GD32VW55X_Wifi_BLE_SDK/GD32VW55x_RELEASE_V1.0.2/MSDK/util/src\dlist.c **** {
  47              		.loc 1 63 1 is_stmt 1
  48              		.cfi_startproc
  49              	.LVL2:
  64:C:/Users/stapi/OneDrive/Desktop/GD32VW553/GD32VW55X_Wifi_BLE_SDK/GD32VW55x_RELEASE_V1.0.2/MSDK/util/src\dlist.c ****     struct list_head *prev = head->prev;
  50              		.loc 1 64 5
  51              		.loc 1 64 23 is_stmt 0
  52 0000 DC41     		lw	a5,4(a1)
  53              	.LVL3:
  65:C:/Users/stapi/OneDrive/Desktop/GD32VW553/GD32VW55X_Wifi_BLE_SDK/GD32VW55x_RELEASE_V1.0.2/MSDK/util/src\dlist.c ****     struct list_head *next = head;
  54              		.loc 1 65 5 is_stmt 1
  66:C:/Users/stapi/OneDrive/Desktop/GD32VW553/GD32VW55X_Wifi_BLE_SDK/GD32VW55x_RELEASE_V1.0.2/MSDK/util/src\dlist.c **** 
  67:C:/Users/stapi/OneDrive/Desktop/GD32VW553/GD32VW55X_Wifi_BLE_SDK/GD32VW55x_RELEASE_V1.0.2/MSDK/util/src\dlist.c ****     next->prev = node;
  55              		.loc 1 67 5
  56              		.loc 1 67 16 is_stmt 0
  57 0002 C8C1     		sw	a0,4(a1)
  68:C:/Users/stapi/OneDrive/Desktop/GD32VW553/GD32VW55X_Wifi_BLE_SDK/GD32VW55x_RELEASE_V1.0.2/MSDK/util/src\dlist.c ****     node->next = next;
  58              		.loc 1 68 5 is_stmt 1
  59              		.loc 1 68 16 is_stmt 0
  60 0004 0CC1     		sw	a1,0(a0)
  69:C:/Users/stapi/OneDrive/Desktop/GD32VW553/GD32VW55X_Wifi_BLE_SDK/GD32VW55x_RELEASE_V1.0.2/MSDK/util/src\dlist.c ****     node->prev = prev;
  61              		.loc 1 69 5 is_stmt 1
  62              		.loc 1 69 16 is_stmt 0
  63 0006 5CC1     		sw	a5,4(a0)
  70:C:/Users/stapi/OneDrive/Desktop/GD32VW553/GD32VW55X_Wifi_BLE_SDK/GD32VW55x_RELEASE_V1.0.2/MSDK/util/src\dlist.c ****     prev->next = node;
  64              		.loc 1 70 5 is_stmt 1
  65              		.loc 1 70 16 is_stmt 0
  66 0008 88C3     		sw	a0,0(a5)
  71:C:/Users/stapi/OneDrive/Desktop/GD32VW553/GD32VW55X_Wifi_BLE_SDK/GD32VW55x_RELEASE_V1.0.2/MSDK/util/src\dlist.c **** }
  67              		.loc 1 71 1
  68 000a 8280     		ret
  69              		.cfi_endproc
  70              	.LFE1:
  72              		.section	.text.list_del,"ax",@progbits
  73              		.align	1
  74              		.globl	list_del
  76              	list_del:
  77              	.LFB2:
  72:C:/Users/stapi/OneDrive/Desktop/GD32VW553/GD32VW55X_Wifi_BLE_SDK/GD32VW55x_RELEASE_V1.0.2/MSDK/util/src\dlist.c **** 
  73:C:/Users/stapi/OneDrive/Desktop/GD32VW553/GD32VW55X_Wifi_BLE_SDK/GD32VW55x_RELEASE_V1.0.2/MSDK/util/src\dlist.c **** /*!
  74:C:/Users/stapi/OneDrive/Desktop/GD32VW553/GD32VW55X_Wifi_BLE_SDK/GD32VW55x_RELEASE_V1.0.2/MSDK/util/src\dlist.c ****     \brief      delete entry from list
  75:C:/Users/stapi/OneDrive/Desktop/GD32VW553/GD32VW55X_Wifi_BLE_SDK/GD32VW55x_RELEASE_V1.0.2/MSDK/util/src\dlist.c ****     \param[in]  entry: the entry of a list
  76:C:/Users/stapi/OneDrive/Desktop/GD32VW553/GD32VW55X_Wifi_BLE_SDK/GD32VW55x_RELEASE_V1.0.2/MSDK/util/src\dlist.c ****     \param[out] none
  77:C:/Users/stapi/OneDrive/Desktop/GD32VW553/GD32VW55X_Wifi_BLE_SDK/GD32VW55x_RELEASE_V1.0.2/MSDK/util/src\dlist.c ****     \retval     none
  78:C:/Users/stapi/OneDrive/Desktop/GD32VW553/GD32VW55X_Wifi_BLE_SDK/GD32VW55x_RELEASE_V1.0.2/MSDK/util/src\dlist.c **** */
  79:C:/Users/stapi/OneDrive/Desktop/GD32VW553/GD32VW55X_Wifi_BLE_SDK/GD32VW55x_RELEASE_V1.0.2/MSDK/util/src\dlist.c **** void list_del(struct list_head *entry)
  80:C:/Users/stapi/OneDrive/Desktop/GD32VW553/GD32VW55X_Wifi_BLE_SDK/GD32VW55x_RELEASE_V1.0.2/MSDK/util/src\dlist.c **** {
  78              		.loc 1 80 1 is_stmt 1
  79              		.cfi_startproc
  80              	.LVL4:
  81:C:/Users/stapi/OneDrive/Desktop/GD32VW553/GD32VW55X_Wifi_BLE_SDK/GD32VW55x_RELEASE_V1.0.2/MSDK/util/src\dlist.c ****     struct list_head *prev = entry->prev;
  81              		.loc 1 81 5
  82              		.loc 1 81 23 is_stmt 0
  83 0000 5C41     		lw	a5,4(a0)
  84              	.LVL5:
  82:C:/Users/stapi/OneDrive/Desktop/GD32VW553/GD32VW55X_Wifi_BLE_SDK/GD32VW55x_RELEASE_V1.0.2/MSDK/util/src\dlist.c ****     struct list_head *next = entry->next;
  85              		.loc 1 82 5 is_stmt 1
  86              		.loc 1 82 23 is_stmt 0
  87 0002 1841     		lw	a4,0(a0)
  88              	.LVL6:
  83:C:/Users/stapi/OneDrive/Desktop/GD32VW553/GD32VW55X_Wifi_BLE_SDK/GD32VW55x_RELEASE_V1.0.2/MSDK/util/src\dlist.c **** 
  84:C:/Users/stapi/OneDrive/Desktop/GD32VW553/GD32VW55X_Wifi_BLE_SDK/GD32VW55x_RELEASE_V1.0.2/MSDK/util/src\dlist.c ****     next->prev = prev;
  89              		.loc 1 84 5 is_stmt 1
  90              		.loc 1 84 16 is_stmt 0
  91 0004 5CC3     		sw	a5,4(a4)
  85:C:/Users/stapi/OneDrive/Desktop/GD32VW553/GD32VW55X_Wifi_BLE_SDK/GD32VW55x_RELEASE_V1.0.2/MSDK/util/src\dlist.c ****     prev->next = next;
  92              		.loc 1 85 5 is_stmt 1
  93              		.loc 1 85 16 is_stmt 0
  94 0006 98C3     		sw	a4,0(a5)
  86:C:/Users/stapi/OneDrive/Desktop/GD32VW553/GD32VW55X_Wifi_BLE_SDK/GD32VW55x_RELEASE_V1.0.2/MSDK/util/src\dlist.c **** }
  95              		.loc 1 86 1
  96 0008 8280     		ret
  97              		.cfi_endproc
  98              	.LFE2:
 100              		.section	.text.list_del_init,"ax",@progbits
 101              		.align	1
 102              		.globl	list_del_init
 104              	list_del_init:
 105              	.LFB3:
  87:C:/Users/stapi/OneDrive/Desktop/GD32VW553/GD32VW55X_Wifi_BLE_SDK/GD32VW55x_RELEASE_V1.0.2/MSDK/util/src\dlist.c **** 
  88:C:/Users/stapi/OneDrive/Desktop/GD32VW553/GD32VW55X_Wifi_BLE_SDK/GD32VW55x_RELEASE_V1.0.2/MSDK/util/src\dlist.c **** /*!
  89:C:/Users/stapi/OneDrive/Desktop/GD32VW553/GD32VW55X_Wifi_BLE_SDK/GD32VW55x_RELEASE_V1.0.2/MSDK/util/src\dlist.c ****     \brief      delete entry from list and reinitialize it
  90:C:/Users/stapi/OneDrive/Desktop/GD32VW553/GD32VW55X_Wifi_BLE_SDK/GD32VW55x_RELEASE_V1.0.2/MSDK/util/src\dlist.c ****     \param[in]  entry: the entry to be deleted
  91:C:/Users/stapi/OneDrive/Desktop/GD32VW553/GD32VW55X_Wifi_BLE_SDK/GD32VW55x_RELEASE_V1.0.2/MSDK/util/src\dlist.c ****     \param[out] none
  92:C:/Users/stapi/OneDrive/Desktop/GD32VW553/GD32VW55X_Wifi_BLE_SDK/GD32VW55x_RELEASE_V1.0.2/MSDK/util/src\dlist.c ****     \retval     none
  93:C:/Users/stapi/OneDrive/Desktop/GD32VW553/GD32VW55X_Wifi_BLE_SDK/GD32VW55x_RELEASE_V1.0.2/MSDK/util/src\dlist.c **** */
  94:C:/Users/stapi/OneDrive/Desktop/GD32VW553/GD32VW55X_Wifi_BLE_SDK/GD32VW55x_RELEASE_V1.0.2/MSDK/util/src\dlist.c **** void list_del_init(struct list_head *entry)
  95:C:/Users/stapi/OneDrive/Desktop/GD32VW553/GD32VW55X_Wifi_BLE_SDK/GD32VW55x_RELEASE_V1.0.2/MSDK/util/src\dlist.c **** {
 106              		.loc 1 95 1 is_stmt 1
 107              		.cfi_startproc
 108              	.LVL7:
 109 0000 17030000 		call	t0,__riscv_save_1
 109      E7020300 
 110              		.cfi_offset 8, -8
 111              		.cfi_offset 1, -4
 112              		.cfi_def_cfa_offset 16
  96:C:/Users/stapi/OneDrive/Desktop/GD32VW553/GD32VW55X_Wifi_BLE_SDK/GD32VW55x_RELEASE_V1.0.2/MSDK/util/src\dlist.c ****     list_del(entry);
 113              		.loc 1 96 5
  95:C:/Users/stapi/OneDrive/Desktop/GD32VW553/GD32VW55X_Wifi_BLE_SDK/GD32VW55x_RELEASE_V1.0.2/MSDK/util/src\dlist.c ****     list_del(entry);
 114              		.loc 1 95 1 is_stmt 0
 115 0008 2A84     		mv	s0,a0
 116              		.loc 1 96 5
 117 000a 97000000 		call	list_del
 117      E7800000 
 118              	.LVL8:
  97:C:/Users/stapi/OneDrive/Desktop/GD32VW553/GD32VW55X_Wifi_BLE_SDK/GD32VW55x_RELEASE_V1.0.2/MSDK/util/src\dlist.c ****     INIT_DLIST_HEAD(entry);
 119              		.loc 1 97 5 is_stmt 1
 120              		.loc 1 97 5
 121 0012 00C0     		sw	s0,0(s0)
 122              		.loc 1 97 5
 123 0014 40C0     		sw	s0,4(s0)
 124              		.loc 1 97 5
  98:C:/Users/stapi/OneDrive/Desktop/GD32VW553/GD32VW55X_Wifi_BLE_SDK/GD32VW55x_RELEASE_V1.0.2/MSDK/util/src\dlist.c **** }
 125              		.loc 1 98 1 is_stmt 0
 126 0016 17030000 		tail	__riscv_restore_1
 126      67000300 
 127              		.cfi_restore 8
 128              		.cfi_restore 1
 129              		.cfi_def_cfa_offset 0
 130              		.cfi_endproc
 131              	.LFE3:
 133              		.section	.text.list_empty,"ax",@progbits
 134              		.align	1
 135              		.globl	list_empty
 137              	list_empty:
 138              	.LFB4:
  99:C:/Users/stapi/OneDrive/Desktop/GD32VW553/GD32VW55X_Wifi_BLE_SDK/GD32VW55x_RELEASE_V1.0.2/MSDK/util/src\dlist.c **** 
 100:C:/Users/stapi/OneDrive/Desktop/GD32VW553/GD32VW55X_Wifi_BLE_SDK/GD32VW55x_RELEASE_V1.0.2/MSDK/util/src\dlist.c **** /*!
 101:C:/Users/stapi/OneDrive/Desktop/GD32VW553/GD32VW55X_Wifi_BLE_SDK/GD32VW55x_RELEASE_V1.0.2/MSDK/util/src\dlist.c ****     \brief      whether a list is empty
 102:C:/Users/stapi/OneDrive/Desktop/GD32VW553/GD32VW55X_Wifi_BLE_SDK/GD32VW55x_RELEASE_V1.0.2/MSDK/util/src\dlist.c ****     \param[in]  head: the list head entry
 103:C:/Users/stapi/OneDrive/Desktop/GD32VW553/GD32VW55X_Wifi_BLE_SDK/GD32VW55x_RELEASE_V1.0.2/MSDK/util/src\dlist.c ****     \param[out] none
 104:C:/Users/stapi/OneDrive/Desktop/GD32VW553/GD32VW55X_Wifi_BLE_SDK/GD32VW55x_RELEASE_V1.0.2/MSDK/util/src\dlist.c ****     \retval     the result
 105:C:/Users/stapi/OneDrive/Desktop/GD32VW553/GD32VW55X_Wifi_BLE_SDK/GD32VW55x_RELEASE_V1.0.2/MSDK/util/src\dlist.c **** */
 106:C:/Users/stapi/OneDrive/Desktop/GD32VW553/GD32VW55X_Wifi_BLE_SDK/GD32VW55x_RELEASE_V1.0.2/MSDK/util/src\dlist.c **** int list_empty(struct list_head *head)
 107:C:/Users/stapi/OneDrive/Desktop/GD32VW553/GD32VW55X_Wifi_BLE_SDK/GD32VW55x_RELEASE_V1.0.2/MSDK/util/src\dlist.c **** {
 139              		.loc 1 107 1 is_stmt 1
 140              		.cfi_startproc
 141              	.LVL9:
 108:C:/Users/stapi/OneDrive/Desktop/GD32VW553/GD32VW55X_Wifi_BLE_SDK/GD32VW55x_RELEASE_V1.0.2/MSDK/util/src\dlist.c ****     if(head->next == head)
 142              		.loc 1 108 5
 143              		.loc 1 108 7 is_stmt 0
 144 0000 1C41     		lw	a5,0(a0)
 145 0002 3385A740 		sub	a0,a5,a0
 146              	.LVL10:
 109:C:/Users/stapi/OneDrive/Desktop/GD32VW553/GD32VW55X_Wifi_BLE_SDK/GD32VW55x_RELEASE_V1.0.2/MSDK/util/src\dlist.c ****         return 1;
 110:C:/Users/stapi/OneDrive/Desktop/GD32VW553/GD32VW55X_Wifi_BLE_SDK/GD32VW55x_RELEASE_V1.0.2/MSDK/util/src\dlist.c ****     else
 111:C:/Users/stapi/OneDrive/Desktop/GD32VW553/GD32VW55X_Wifi_BLE_SDK/GD32VW55x_RELEASE_V1.0.2/MSDK/util/src\dlist.c ****         return 0;
 112:C:/Users/stapi/OneDrive/Desktop/GD32VW553/GD32VW55X_Wifi_BLE_SDK/GD32VW55x_RELEASE_V1.0.2/MSDK/util/src\dlist.c **** }
 147              		.loc 1 112 1
 148 0006 13351500 		seqz	a0,a0
 149 000a 8280     		ret
 150              		.cfi_endproc
 151              	.LFE4:
 153              		.section	.text.list_splice,"ax",@progbits
 154              		.align	1
 155              		.globl	list_splice
 157              	list_splice:
 158              	.LFB5:
 113:C:/Users/stapi/OneDrive/Desktop/GD32VW553/GD32VW55X_Wifi_BLE_SDK/GD32VW55x_RELEASE_V1.0.2/MSDK/util/src\dlist.c **** 
 114:C:/Users/stapi/OneDrive/Desktop/GD32VW553/GD32VW55X_Wifi_BLE_SDK/GD32VW55x_RELEASE_V1.0.2/MSDK/util/src\dlist.c **** /*!
 115:C:/Users/stapi/OneDrive/Desktop/GD32VW553/GD32VW55X_Wifi_BLE_SDK/GD32VW55x_RELEASE_V1.0.2/MSDK/util/src\dlist.c ****     \brief      splice two lists
 116:C:/Users/stapi/OneDrive/Desktop/GD32VW553/GD32VW55X_Wifi_BLE_SDK/GD32VW55x_RELEASE_V1.0.2/MSDK/util/src\dlist.c ****     \param[in]  list: the new list to add
 117:C:/Users/stapi/OneDrive/Desktop/GD32VW553/GD32VW55X_Wifi_BLE_SDK/GD32VW55x_RELEASE_V1.0.2/MSDK/util/src\dlist.c ****     \param[in]  head: the place to add it in the first list
 118:C:/Users/stapi/OneDrive/Desktop/GD32VW553/GD32VW55X_Wifi_BLE_SDK/GD32VW55x_RELEASE_V1.0.2/MSDK/util/src\dlist.c ****     \param[out] none
 119:C:/Users/stapi/OneDrive/Desktop/GD32VW553/GD32VW55X_Wifi_BLE_SDK/GD32VW55x_RELEASE_V1.0.2/MSDK/util/src\dlist.c ****     \retval     none
 120:C:/Users/stapi/OneDrive/Desktop/GD32VW553/GD32VW55X_Wifi_BLE_SDK/GD32VW55x_RELEASE_V1.0.2/MSDK/util/src\dlist.c **** */
 121:C:/Users/stapi/OneDrive/Desktop/GD32VW553/GD32VW55X_Wifi_BLE_SDK/GD32VW55x_RELEASE_V1.0.2/MSDK/util/src\dlist.c **** void list_splice(struct list_head *list, struct list_head *head)
 122:C:/Users/stapi/OneDrive/Desktop/GD32VW553/GD32VW55X_Wifi_BLE_SDK/GD32VW55x_RELEASE_V1.0.2/MSDK/util/src\dlist.c **** {
 159              		.loc 1 122 1 is_stmt 1
 160              		.cfi_startproc
 161              	.LVL11:
 123:C:/Users/stapi/OneDrive/Desktop/GD32VW553/GD32VW55X_Wifi_BLE_SDK/GD32VW55x_RELEASE_V1.0.2/MSDK/util/src\dlist.c ****     struct list_head *first = list->next;
 162              		.loc 1 123 5
 163              		.loc 1 123 23 is_stmt 0
 164 0000 1C41     		lw	a5,0(a0)
 165              	.LVL12:
 124:C:/Users/stapi/OneDrive/Desktop/GD32VW553/GD32VW55X_Wifi_BLE_SDK/GD32VW55x_RELEASE_V1.0.2/MSDK/util/src\dlist.c **** 
 125:C:/Users/stapi/OneDrive/Desktop/GD32VW553/GD32VW55X_Wifi_BLE_SDK/GD32VW55x_RELEASE_V1.0.2/MSDK/util/src\dlist.c ****     if (first != list)
 166              		.loc 1 125 5 is_stmt 1
 167              		.loc 1 125 8 is_stmt 0
 168 0002 6308F500 		beq	a0,a5,.L7
 169              	.LBB2:
 126:C:/Users/stapi/OneDrive/Desktop/GD32VW553/GD32VW55X_Wifi_BLE_SDK/GD32VW55x_RELEASE_V1.0.2/MSDK/util/src\dlist.c ****     {
 127:C:/Users/stapi/OneDrive/Desktop/GD32VW553/GD32VW55X_Wifi_BLE_SDK/GD32VW55x_RELEASE_V1.0.2/MSDK/util/src\dlist.c ****         struct list_head *last = list->prev;
 170              		.loc 1 127 9 is_stmt 1
 171              		.loc 1 127 27 is_stmt 0
 172 0006 5441     		lw	a3,4(a0)
 173              	.LVL13:
 128:C:/Users/stapi/OneDrive/Desktop/GD32VW553/GD32VW55X_Wifi_BLE_SDK/GD32VW55x_RELEASE_V1.0.2/MSDK/util/src\dlist.c ****         struct list_head *at = head->next;
 174              		.loc 1 128 9 is_stmt 1
 175              		.loc 1 128 27 is_stmt 0
 176 0008 9841     		lw	a4,0(a1)
 177              	.LVL14:
 129:C:/Users/stapi/OneDrive/Desktop/GD32VW553/GD32VW55X_Wifi_BLE_SDK/GD32VW55x_RELEASE_V1.0.2/MSDK/util/src\dlist.c ****         first->prev = head;
 178              		.loc 1 129 9 is_stmt 1
 179              		.loc 1 129 21 is_stmt 0
 180 000a CCC3     		sw	a1,4(a5)
 130:C:/Users/stapi/OneDrive/Desktop/GD32VW553/GD32VW55X_Wifi_BLE_SDK/GD32VW55x_RELEASE_V1.0.2/MSDK/util/src\dlist.c ****         head->next = first;
 181              		.loc 1 130 9 is_stmt 1
 182              		.loc 1 130 20 is_stmt 0
 183 000c 9CC1     		sw	a5,0(a1)
 131:C:/Users/stapi/OneDrive/Desktop/GD32VW553/GD32VW55X_Wifi_BLE_SDK/GD32VW55x_RELEASE_V1.0.2/MSDK/util/src\dlist.c ****         last->next = at;
 184              		.loc 1 131 9 is_stmt 1
 185              		.loc 1 131 20 is_stmt 0
 186 000e 98C2     		sw	a4,0(a3)
 132:C:/Users/stapi/OneDrive/Desktop/GD32VW553/GD32VW55X_Wifi_BLE_SDK/GD32VW55x_RELEASE_V1.0.2/MSDK/util/src\dlist.c ****         at->prev = last;
 187              		.loc 1 132 9 is_stmt 1
 188              		.loc 1 132 18 is_stmt 0
 189 0010 54C3     		sw	a3,4(a4)
 190              	.LVL15:
 191              	.L7:
 192              	.LBE2:
 133:C:/Users/stapi/OneDrive/Desktop/GD32VW553/GD32VW55X_Wifi_BLE_SDK/GD32VW55x_RELEASE_V1.0.2/MSDK/util/src\dlist.c ****     }
 134:C:/Users/stapi/OneDrive/Desktop/GD32VW553/GD32VW55X_Wifi_BLE_SDK/GD32VW55x_RELEASE_V1.0.2/MSDK/util/src\dlist.c **** }
 193              		.loc 1 134 1
 194 0012 8280     		ret
 195              		.cfi_endproc
 196              	.LFE5:
 198              		.section	.text.list_len,"ax",@progbits
 199              		.align	1
 200              		.globl	list_len
 202              	list_len:
 203              	.LFB6:
 135:C:/Users/stapi/OneDrive/Desktop/GD32VW553/GD32VW55X_Wifi_BLE_SDK/GD32VW55x_RELEASE_V1.0.2/MSDK/util/src\dlist.c **** 
 136:C:/Users/stapi/OneDrive/Desktop/GD32VW553/GD32VW55X_Wifi_BLE_SDK/GD32VW55x_RELEASE_V1.0.2/MSDK/util/src\dlist.c **** int list_len(struct list_head *head)
 137:C:/Users/stapi/OneDrive/Desktop/GD32VW553/GD32VW55X_Wifi_BLE_SDK/GD32VW55x_RELEASE_V1.0.2/MSDK/util/src\dlist.c **** {
 204              		.loc 1 137 1 is_stmt 1
 205              		.cfi_startproc
 206              	.LVL16:
 138:C:/Users/stapi/OneDrive/Desktop/GD32VW553/GD32VW55X_Wifi_BLE_SDK/GD32VW55x_RELEASE_V1.0.2/MSDK/util/src\dlist.c ****     struct list_head *pos;
 207              		.loc 1 138 5
 139:C:/Users/stapi/OneDrive/Desktop/GD32VW553/GD32VW55X_Wifi_BLE_SDK/GD32VW55x_RELEASE_V1.0.2/MSDK/util/src\dlist.c ****     int count = 0;
 208              		.loc 1 139 5
 140:C:/Users/stapi/OneDrive/Desktop/GD32VW553/GD32VW55X_Wifi_BLE_SDK/GD32VW55x_RELEASE_V1.0.2/MSDK/util/src\dlist.c **** 
 141:C:/Users/stapi/OneDrive/Desktop/GD32VW553/GD32VW55X_Wifi_BLE_SDK/GD32VW55x_RELEASE_V1.0.2/MSDK/util/src\dlist.c ****     list_for_each(pos, head) {
 209              		.loc 1 141 5
 210 0000 1841     		lw	a4,0(a0)
 211              	.LVL17:
 137:C:/Users/stapi/OneDrive/Desktop/GD32VW553/GD32VW55X_Wifi_BLE_SDK/GD32VW55x_RELEASE_V1.0.2/MSDK/util/src\dlist.c ****     struct list_head *pos;
 212              		.loc 1 137 1 is_stmt 0
 213 0002 AA87     		mv	a5,a0
 139:C:/Users/stapi/OneDrive/Desktop/GD32VW553/GD32VW55X_Wifi_BLE_SDK/GD32VW55x_RELEASE_V1.0.2/MSDK/util/src\dlist.c ****     int count = 0;
 214              		.loc 1 139 9
 215 0004 0145     		li	a0,0
 216              	.LVL18:
 217              	.L10:
 218              		.loc 1 141 5 is_stmt 1 discriminator 1
 219 0006 6313F700 		bne	a4,a5,.L11
 142:C:/Users/stapi/OneDrive/Desktop/GD32VW553/GD32VW55X_Wifi_BLE_SDK/GD32VW55x_RELEASE_V1.0.2/MSDK/util/src\dlist.c ****         count++;
 143:C:/Users/stapi/OneDrive/Desktop/GD32VW553/GD32VW55X_Wifi_BLE_SDK/GD32VW55x_RELEASE_V1.0.2/MSDK/util/src\dlist.c ****     }
 144:C:/Users/stapi/OneDrive/Desktop/GD32VW553/GD32VW55X_Wifi_BLE_SDK/GD32VW55x_RELEASE_V1.0.2/MSDK/util/src\dlist.c ****     return count;
 220              		.loc 1 144 5
 145:C:/Users/stapi/OneDrive/Desktop/GD32VW553/GD32VW55X_Wifi_BLE_SDK/GD32VW55x_RELEASE_V1.0.2/MSDK/util/src\dlist.c **** }
 221              		.loc 1 145 1 is_stmt 0
 222 000a 8280     		ret
 223              	.L11:
 142:C:/Users/stapi/OneDrive/Desktop/GD32VW553/GD32VW55X_Wifi_BLE_SDK/GD32VW55x_RELEASE_V1.0.2/MSDK/util/src\dlist.c ****         count++;
 224              		.loc 1 142 9 is_stmt 1 discriminator 3
 141:C:/Users/stapi/OneDrive/Desktop/GD32VW553/GD32VW55X_Wifi_BLE_SDK/GD32VW55x_RELEASE_V1.0.2/MSDK/util/src\dlist.c ****         count++;
 225              		.loc 1 141 5 is_stmt 0 discriminator 3
 226 000c 1843     		lw	a4,0(a4)
 227              	.LVL19:
 142:C:/Users/stapi/OneDrive/Desktop/GD32VW553/GD32VW55X_Wifi_BLE_SDK/GD32VW55x_RELEASE_V1.0.2/MSDK/util/src\dlist.c ****         count++;
 228              		.loc 1 142 14 discriminator 3
 229 000e 0505     		addi	a0,a0,1
 230              	.LVL20:
 141:C:/Users/stapi/OneDrive/Desktop/GD32VW553/GD32VW55X_Wifi_BLE_SDK/GD32VW55x_RELEASE_V1.0.2/MSDK/util/src\dlist.c ****         count++;
 231              		.loc 1 141 5 is_stmt 1 discriminator 3
 232 0010 DDBF     		j	.L10
 233              		.cfi_endproc
 234              	.LFE6:
 236              		.text
 237              	.Letext0:
 238              		.file 2 "..\\..\\..\\..\\util\\include/dlist.h"