   1              		.file	"dlist.c"
   2              		.option nopic
   3              		.attribute arch, "rv32i2p0_m2p0_a2p0_f2p0_c2p0_b_p0p94"
   4              		.attribute unaligned_access, 0
   5              		.attribute stack_align, 16
   6              		.text
   7              	.Ltext0:
   8              		.cfi_sections	.debug_frame
   9              		.section	.text.list_add,"ax",@progbits
  10              		.align	1
  11              		.globl	list_add
  13              	list_add:
  14              	.LFB0:
  15              		.file 1 "C:/Users/stapi/OneDrive/Desktop/GD32VW553/GD32VW55X_Wifi_BLE_SDK/GD32VW55x_RELEASE_V1.0.2
   1:C:/Users/stapi/OneDrive/Desktop/GD32VW553/GD32VW55X_Wifi_BLE_SDK/GD32VW55x_RELEASE_V1.0.2/MSDK/util/src\dlist.c **** /*!
   2:C:/Users/stapi/OneDrive/Desktop/GD32VW553/GD32VW55X_Wifi_BLE_SDK/GD32VW55x_RELEASE_V1.0.2/MSDK/util/src\dlist.c ****     \file    dlist.c
   3:C:/Users/stapi/OneDrive/Desktop/GD32VW553/GD32VW55X_Wifi_BLE_SDK/GD32VW55x_RELEASE_V1.0.2/MSDK/util/src\dlist.c ****     \brief   Dlist function for GD32VW55x SDK.
   4:C:/Users/stapi/OneDrive/Desktop/GD32VW553/GD32VW55X_Wifi_BLE_SDK/GD32VW55x_RELEASE_V1.0.2/MSDK/util/src\dlist.c **** 
   5:C:/Users/stapi/OneDrive/Desktop/GD32VW553/GD32VW55X_Wifi_BLE_SDK/GD32VW55x_RELEASE_V1.0.2/MSDK/util/src\dlist.c ****     \version 2023-07-20, V1.0.0, firmware for GD32VW55x
   6:C:/Users/stapi/OneDrive/Desktop/GD32VW553/GD32VW55X_Wifi_BLE_SDK/GD32VW55x_RELEASE_V1.0.2/MSDK/util/src\dlist.c **** */
   7:C:/Users/stapi/OneDrive/Desktop/GD32VW553/GD32VW55X_Wifi_BLE_SDK/GD32VW55x_RELEASE_V1.0.2/MSDK/util/src\dlist.c **** 
   8:C:/Users/stapi/OneDrive/Desktop/GD32VW553/GD32VW55X_Wifi_BLE_SDK/GD32VW55x_RELEASE_V1.0.2/MSDK/util/src\dlist.c **** /*
   9:C:/Users/stapi/OneDrive/Desktop/GD32VW553/GD32VW55X_Wifi_BLE_SDK/GD32VW55x_RELEASE_V1.0.2/MSDK/util/src\dlist.c ****     Copyright (c) 2023, GigaDevice Semiconductor Inc.
  10:C:/Users/stapi/OneDrive/Desktop/GD32VW553/GD32VW55X_Wifi_BLE_SDK/GD32VW55x_RELEASE_V1.0.2/MSDK/util/src\dlist.c **** 
  11:C:/Users/stapi/OneDrive/Desktop/GD32VW553/GD32VW55X_Wifi_BLE_SDK/GD32VW55x_RELEASE_V1.0.2/MSDK/util/src\dlist.c ****     Redistribution and use in source and binary forms, with or without modification,
  12:C:/Users/stapi/OneDrive/Desktop/GD32VW553/GD32VW55X_Wifi_BLE_SDK/GD32VW55x_RELEASE_V1.0.2/MSDK/util/src\dlist.c **** are permitted provided that the following conditions are met:
  13:C:/Users/stapi/OneDrive/Desktop/GD32VW553/GD32VW55X_Wifi_BLE_SDK/GD32VW55x_RELEASE_V1.0.2/MSDK/util/src\dlist.c **** 
  14:C:/Users/stapi/OneDrive/Desktop/GD32VW553/GD32VW55X_Wifi_BLE_SDK/GD32VW55x_RELEASE_V1.0.2/MSDK/util/src\dlist.c ****     1. Redistributions of source code must retain the above copyright notice, this
  15:C:/Users/stapi/OneDrive/Desktop/GD32VW553/GD32VW55X_Wifi_BLE_SDK/GD32VW55x_RELEASE_V1.0.2/MSDK/util/src\dlist.c ****        list of conditions and the following disclaimer.
  16:C:/Users/stapi/OneDrive/Desktop/GD32VW553/GD32VW55X_Wifi_BLE_SDK/GD32VW55x_RELEASE_V1.0.2/MSDK/util/src\dlist.c ****     2. Redistributions in binary form must reproduce the above copyright notice,
  17:C:/Users/stapi/OneDrive/Desktop/GD32VW553/GD32VW55X_Wifi_BLE_SDK/GD32VW55x_RELEASE_V1.0.2/MSDK/util/src\dlist.c ****        this list of conditions and the following disclaimer in the documentation
  18:C:/Users/stapi/OneDrive/Desktop/GD32VW553/GD32VW55X_Wifi_BLE_SDK/GD32VW55x_RELEASE_V1.0.2/MSDK/util/src\dlist.c ****        and/or other materials provided with the distribution.
  19:C:/Users/stapi/OneDrive/Desktop/GD32VW553/GD32VW55X_Wifi_BLE_SDK/GD32VW55x_RELEASE_V1.0.2/MSDK/util/src\dlist.c ****     3. Neither the name of the copyright holder nor the names of its contributors
  20:C:/Users/stapi/OneDrive/Desktop/GD32VW553/GD32VW55X_Wifi_BLE_SDK/GD32VW55x_RELEASE_V1.0.2/MSDK/util/src\dlist.c ****        may be used to endorse or promote products derived from this software without
  21:C:/Users/stapi/OneDrive/Desktop/GD32VW553/GD32VW55X_Wifi_BLE_SDK/GD32VW55x_RELEASE_V1.0.2/MSDK/util/src\dlist.c ****        specific prior written permission.
  22:C:/Users/stapi/OneDrive/Desktop/GD32VW553/GD32VW55X_Wifi_BLE_SDK/GD32VW55x_RELEASE_V1.0.2/MSDK/util/src\dlist.c **** 
  23:C:/Users/stapi/OneDrive/Desktop/GD32VW553/GD32VW55X_Wifi_BLE_SDK/GD32VW55x_RELEASE_V1.0.2/MSDK/util/src\dlist.c ****     THIS SOFTWARE IS PROVIDED BY THE COPYRIGHT HOLDERS AND CONTRIBUTORS "AS IS"
  24:C:/Users/stapi/OneDrive/Desktop/GD32VW553/GD32VW55X_Wifi_BLE_SDK/GD32VW55x_RELEASE_V1.0.2/MSDK/util/src\dlist.c **** AND ANY EXPRESS OR IMPLIED WARRANTIES, INCLUDING, BUT NOT LIMITED TO, THE IMPLIED
  25:C:/Users/stapi/OneDrive/Desktop/GD32VW553/GD32VW55X_Wifi_BLE_SDK/GD32VW55x_RELEASE_V1.0.2/MSDK/util/src\dlist.c **** WARRANTIES OF MERCHANTABILITY AND FITNESS FOR A PARTICULAR PURPOSE ARE DISCLAIMED.
  26:C:/Users/stapi/OneDrive/Desktop/GD32VW553/GD32VW55X_Wifi_BLE_SDK/GD32VW55x_RELEASE_V1.0.2/MSDK/util/src\dlist.c **** IN NO EVENT SHALL THE COPYRIGHT HOLDER OR CONTRIBUTORS BE LIABLE FOR ANY DIRECT,
  27:C:/Users/stapi/OneDrive/Desktop/GD32VW553/GD32VW55X_Wifi_BLE_SDK/GD32VW55x_RELEASE_V1.0.2/MSDK/util/src\dlist.c **** INDIRECT, INCIDENTAL, SPECIAL, EXEMPLARY, OR CONSEQUENTIAL DAMAGES (INCLUDING, BUT
  28:C:/Users/stapi/OneDrive/Desktop/GD32VW553/GD32VW55X_Wifi_BLE_SDK/GD32VW55x_RELEASE_V1.0.2/MSDK/util/src\dlist.c **** NOT LIMITED TO, PROCUREMENT OF SUBSTITUTE GOODS OR SERVICES; LOSS OF USE, DATA, OR
  29:C:/Users/stapi/OneDrive/Desktop/GD32VW553/GD32VW55X_Wifi_BLE_SDK/GD32VW55x_RELEASE_V1.0.2/MSDK/util/src\dlist.c **** PROFITS; OR BUSINESS INTERRUPTION) HOWEVER CAUSED AND ON ANY THEORY OF LIABILITY,
  30:C:/Users/stapi/OneDrive/Desktop/GD32VW553/GD32VW55X_Wifi_BLE_SDK/GD32VW55x_RELEASE_V1.0.2/MSDK/util/src\dlist.c **** WHETHER IN CONTRACT, STRICT LIABILITY, OR TORT (INCLUDING NEGLIGENCE OR OTHERWISE)
  31:C:/Users/stapi/OneDrive/Desktop/GD32VW553/GD32VW55X_Wifi_BLE_SDK/GD32VW55x_RELEASE_V1.0.2/MSDK/util/src\dlist.c **** ARISING IN ANY WAY OUT OF THE USE OF THIS SOFTWARE, EVEN IF ADVISED OF THE POSSIBILITY
  32:C:/Users/stapi/OneDrive/Desktop/GD32VW553/GD32VW55X_Wifi_BLE_SDK/GD32VW55x_RELEASE_V1.0.2/MSDK/util/src\dlist.c **** OF SUCH DAMAGE.
  33:C:/Users/stapi/OneDrive/Desktop/GD32VW553/GD32VW55X_Wifi_BLE_SDK/GD32VW55x_RELEASE_V1.0.2/MSDK/util/src\dlist.c **** */
  34:C:/Users/stapi/OneDrive/Desktop/GD32VW553/GD32VW55X_Wifi_BLE_SDK/GD32VW55x_RELEASE_V1.0.2/MSDK/util/src\dlist.c **** 
  35:C:/Users/stapi/OneDrive/Desktop/GD32VW553/GD32VW55X_Wifi_BLE_SDK/GD32VW55x_RELEASE_V1.0.2/MSDK/util/src\dlist.c **** #include "dlist.h"
  36:C:/Users/stapi/OneDrive/Desktop/GD32VW553/GD32VW55X_Wifi_BLE_SDK/GD32VW55x_RELEASE_V1.0.2/MSDK/util/src\dlist.c **** 
  37:C:/Users/stapi/OneDrive/Desktop/GD32VW553/GD32VW55X_Wifi_BLE_SDK/GD32VW55x_RELEASE_V1.0.2/MSDK/util/src\dlist.c **** /*!
  38:C:/Users/stapi/OneDrive/Desktop/GD32VW553/GD32VW55X_Wifi_BLE_SDK/GD32VW55x_RELEASE_V1.0.2/MSDK/util/src\dlist.c ****     \brief      insert a new entry after the specified head
  39:C:/Users/stapi/OneDrive/Desktop/GD32VW553/GD32VW55X_Wifi_BLE_SDK/GD32VW55x_RELEASE_V1.0.2/MSDK/util/src\dlist.c ****     \param[in]  new: the new entry
  40:C:/Users/stapi/OneDrive/Desktop/GD32VW553/GD32VW55X_Wifi_BLE_SDK/GD32VW55x_RELEASE_V1.0.2/MSDK/util/src\dlist.c ****     \param[in]  head: the specified head
  41:C:/Users/stapi/OneDrive/Desktop/GD32VW553/GD32VW55X_Wifi_BLE_SDK/GD32VW55x_RELEASE_V1.0.2/MSDK/util/src\dlist.c ****     \param[out] none
  42:C:/Users/stapi/OneDrive/Desktop/GD32VW553/GD32VW55X_Wifi_BLE_SDK/GD32VW55x_RELEASE_V1.0.2/MSDK/util/src\dlist.c ****     \retval     none
  43:C:/Users/stapi/OneDrive/Desktop/GD32VW553/GD32VW55X_Wifi_BLE_SDK/GD32VW55x_RELEASE_V1.0.2/MSDK/util/src\dlist.c **** */
  44:C:/Users/stapi/OneDrive/Desktop/GD32VW553/GD32VW55X_Wifi_BLE_SDK/GD32VW55x_RELEASE_V1.0.2/MSDK/util/src\dlist.c **** void list_add(struct list_head *node, struct list_head *head)
  45:C:/Users/stapi/OneDrive/Desktop/GD32VW553/GD32VW55X_Wifi_BLE_SDK/GD32VW55x_RELEASE_V1.0.2/MSDK/util/src\dlist.c **** {
  16              		.loc 1 45 1
  17              		.cfi_startproc
  18              	.LVL0:
  46:C:/Users/stapi/OneDrive/Desktop/GD32VW553/GD32VW55X_Wifi_BLE_SDK/GD32VW55x_RELEASE_V1.0.2/MSDK/util/src\dlist.c ****     struct list_head *prev = head;
  19              		.loc 1 46 5
  47:C:/Users/stapi/OneDrive/Desktop/GD32VW553/GD32VW55X_Wifi_BLE_SDK/GD32VW55x_RELEASE_V1.0.2/MSDK/util/src\dlist.c ****     struct list_head *next = head->next;
  20              		.loc 1 47 5
  21              		.loc 1 47 23 is_stmt 0
  22 0000 9C41     		lw	a5,0(a1)
  23              	.LVL1:
  48:C:/Users/stapi/OneDrive/Desktop/GD32VW553/GD32VW55X_Wifi_BLE_SDK/GD32VW55x_RELEASE_V1.0.2/MSDK/util/src\dlist.c **** 
  49:C:/Users/stapi/OneDrive/Desktop/GD32VW553/GD32VW55X_Wifi_BLE_SDK/GD32VW55x_RELEASE_V1.0.2/MSDK/util/src\dlist.c ****     next->prev = node;
  24              		.loc 1 49 5 is_stmt 1
  25              		.loc 1 49 16 is_stmt 0
  26 0002 C8C3     		sw	a0,4(a5)
  50:C:/Users/stapi/OneDrive/Desktop/GD32VW553/GD32VW55X_Wifi_BLE_SDK/GD32VW55x_RELEASE_V1.0.2/MSDK/util/src\dlist.c ****     node->next = next;
  27              		.loc 1 50 5 is_stmt 1
  28              		.loc 1 50 16 is_stmt 0
  29 0004 1CC1     		sw	a5,0(a0)
  51:C:/Users/stapi/OneDrive/Desktop/GD32VW553/GD32VW55X_Wifi_BLE_SDK/GD32VW55x_RELEASE_V1.0.2/MSDK/util/src\dlist.c ****     node->prev = prev;
  30              		.loc 1 51 5 is_stmt 1
  31              		.loc 1 51 16 is_stmt 0
  32 0006 4CC1     		sw	a1,4(a0)
  52:C:/Users/stapi/OneDrive/Desktop/GD32VW553/GD32VW55X_Wifi_BLE_SDK/GD32VW55x_RELEASE_V1.0.2/MSDK/util/src\dlist.c ****     prev->next = node;
  33              		.loc 1 52 5 is_stmt 1
  34              		.loc 1 52 16 is_stmt 0
  35 0008 88C1     		sw	a0,0(a1)
  53:C:/Users/stapi/OneDrive/Desktop/GD32VW553/GD32VW55X_Wifi_BLE_SDK/GD32VW55x_RELEASE_V1.0.2/MSDK/util/src\dlist.c **** }
  36              		.loc 1 53 1
  37 000a 8280     		ret
  38              		.cfi_endproc
  39              	.LFE0:
  41              		.section	.text.list_add_tail,"ax",@progbits
  42              		.align	1
  43              		.globl	list_add_tail
  45              	list_add_tail:
  46              	.LFB1:
  54:C:/Users/stapi/OneDrive/Desktop/GD32VW553/GD32VW55X_Wifi_BLE_SDK/GD32VW55x_RELEASE_V1.0.2/MSDK/util/src\dlist.c **** 
  55:C:/Users/stapi/OneDrive/Desktop/GD32VW553/GD32VW55X_Wifi_BLE_SDK/GD32VW55x_RELEASE_V1.0.2/MSDK/util/src\dlist.c **** /*!
  56:C:/Users/stapi/OneDrive/Desktop/GD32VW553/GD32VW55X_Wifi_BLE_SDK/GD32VW55x_RELEASE_V1.0.2/MSDK/util/src\dlist.c ****     \brief      insert a new entry before the specified head
  57:C:/Users/stapi/OneDrive/Desktop/GD32VW553/GD32VW55X_Wifi_BLE_SDK/GD32VW55x_RELEASE_V1.0.2/MSDK/util/src\dlist.c ****     \param[in]  new: the new entry
  58:C:/Users/stapi/OneDrive/Desktop/GD32VW553/GD32VW55X_Wifi_BLE_SDK/GD32VW55x_RELEASE_V1.0.2/MSDK/util/src\dlist.c ****     \param[in]  head: the specified head
  59:C:/Users/stapi/OneDrive/Desktop/GD32VW553/GD32VW55X_Wifi_BLE_SDK/GD32VW55x_RELEASE_V1.0.2/MSDK/util/src\dlist.c ****     \param[out] none
  60:C:/Users/stapi/OneDrive/Desktop/GD32VW553/GD32VW55X_Wifi_BLE_SDK/GD32VW55x_RELEASE_V1.0.2/MSDK/util/src\dlist.c ****     \retval     none
  61:C:/Users/stapi/OneDrive/Desktop/GD32VW553/GD32VW55X_Wifi_BLE_SDK/GD32VW55x_RELEASE_V1.0.2/MSDK/util/src\dlist.c **** */
  62:C:/Users/stapi/OneDrive/Desktop/GD32VW553/GD32VW55X_Wifi_BLE_SDK/GD32VW55x_RELEASE_V1.0.2/MSDK/util/src\dlist.c **** void list_add_tail(struct list_head *node, struct list_head *head)
  63:C:/Users/stapi/OneDrive/Desktop/GD32VW553/GD32VW55X_Wifi_BLE_SDK/GD32VW55x_RELEASE_V1.0.2/MSDK/util/src\dlist.c **** {
  47              		.loc 1 63 1 is_stmt 1
  48              		.cfi_startproc
  49              	.LVL2:
  64:C:/Users/stapi/OneDrive/Desktop/GD32VW553/GD32VW55X_Wifi_BLE_SDK/GD32VW55x_RELEASE_V1.0.2/MSDK/util/src\dlist.c ****     struct list_head *prev = head->prev;
  50              		.loc 1 64 5
  51              		.loc 1 64 23 is_stmt 0
  52 0000 DC41     		lw	a5,4(a1)
  53              	.LVL3:
  65:C:/Users/stapi/OneDrive/Desktop/GD32VW553/GD32VW55X_Wifi_BLE_SDK/GD32VW55x_RELEASE_V1.0.2/MSDK/util/src\dlist.c ****     struct list_head *next = head;
  54              		.loc 1 65 5 is_stmt 1
  66:C:/Users/stapi/OneDrive/Desktop/GD32VW553/GD32VW55X_Wifi_BLE_SDK/GD32VW55x_RELEASE_V1.0.2/MSDK/util/src\dlist.c **** 
  67:C:/Users/stapi/OneDrive/Desktop/GD32VW553/GD32VW55X_Wifi_BLE_SDK/GD32VW55x_RELEASE_V1.0.2/MSDK/util/src\dlist.c ****     next->prev = node;
  55              		.loc 1 67 5
  56              		.loc 1 67 16 is_stmt 0
  57 0002 C8C1     		sw	a0,4(a1)
  68:C:/Users/stapi/OneDrive/Desktop/GD32VW553/GD32VW55X_Wifi_BLE_SDK/GD32VW55x_RELEASE_V1.0.2/MSDK/util/src\dlist.c ****     node->next = next;
  58              		.loc 1 68 5 is_stmt 1
  59              		.loc 1 68 16 is_stmt 0
  60 0004 0CC1     		sw	a1,0(a0)
  69:C:/Users/stapi/OneDrive/Desktop/GD32VW553/GD32VW55X_Wifi_BLE_SDK/GD32VW55x_RELEASE_V1.0.2/MSDK/util/src\dlist.c ****     node->prev = prev;
  61              		.loc 1 69 5 is_stmt 1
  62              		.loc 1 69 16 is_stmt 0
  63 0006 5CC1     		sw	a5,4(a0)
  70:C:/Users/stapi/OneDrive/Desktop/GD32VW553/GD32VW55X_Wifi_BLE_SDK/GD32VW55x_RELEASE_V1.0.2/MSDK/util/src\dlist.c ****     prev->next = node;
  64              		.loc 1 70 5 is_stmt 1
  65              		.loc 1 70 16 is_stmt 0
  66 0008 88C3     		sw	a0,0(a5)
  71:C:/Users/stapi/OneDrive/Desktop/GD32VW553/GD32VW55X_Wifi_BLE_SDK/GD32VW55x_RELEASE_V1.0.2/MSDK/util/src\dlist.c **** }
  67              		.loc 1 71 1
  68 000a 8280     		ret
  69              		.cfi_endproc
  70              	.LFE1:
  72              		.section	.text.list_del,"ax",@progbits
  73              		.align	1
  74              		.globl	list_del
  76              	list_del:
  77              	.LFB2:
  72:C:/Users/stapi/OneDrive/Desktop/GD32VW553/GD32VW55X_Wifi_BLE_SDK/GD32VW55x_RELEASE_V1.0.2/MSDK/util/src\dlist.c **** 
  73:C:/Users/stapi/OneDrive/Desktop/GD32VW553/GD32VW55X_Wifi_BLE_SDK/GD32VW55x_RELEASE_V1.0.2/MSDK/util/src\dlist.c **** /*!
  74:C:/Users/stapi/OneDrive/Desktop/GD32VW553/GD32VW55X_Wifi_BLE_SDK/GD32VW55x_RELEASE_V1.0.2/MSDK/util/src\dlist.c ****     \brief      delete entry from list
  75:C:/Users/stapi/OneDrive/Desktop/GD32VW553/GD32VW55X_Wifi_BLE_SDK/GD32VW55x_RELEASE_V1.0.2/MSDK/util/src\dlist.c ****     \param[in]  entry: the entry of a list
  76:C:/Users/stapi/OneDrive/Desktop/GD32VW553/GD32VW55X_Wifi_BLE_SDK/GD32VW55x_RELEASE_V1.0.2/MSDK/util/src\dlist.c ****     \param[out] none
  77:C:/Users/stapi/OneDrive/Desktop/GD32VW553/GD32VW55X_Wifi_BLE_SDK/GD32VW55x_RELEASE_V1.0.2/MSDK/util/src\dlist.c ****     \retval     none
  78:C:/Users/stapi/OneDrive/Desktop/GD32VW553/GD32VW55X_Wifi_BLE_SDK/GD32VW55x_RELEASE_V1.0.2/MSDK/util/src\dlist.c **** */
  79:C:/Users/stapi/OneDrive/Desktop/GD32VW553/GD32VW55X_Wifi_BLE_SDK/GD32VW55x_RELEASE_V1.0.2/MSDK/util/src\dlist.c **** void list_del(struct list_head *entry)
  80:C:/Users/stapi/OneDrive/Desktop/GD32VW553/GD32VW55X_Wifi_BLE_SDK/GD32VW55x_RELEASE_V1.0.2/MSDK/util/src\dlist.c **** {
  78              		.loc 1 80 1 is_stmt 1
  79              		.cfi_startproc
  80              	.LVL4:
  81:C:/Users/stapi/OneDrive/Desktop/GD32VW553/GD32VW55X_Wifi_BLE_SDK/GD32VW55x_RELEASE_V1.0.2/MSDK/util/src\dlist.c ****     struct list_head *prev = entry->prev;
  81              		.loc 1 81 5
  82              		.loc 1 81 23 is_stmt 0
  83 0000 5C41     		lw	a5,4(a0)
  84              	.LVL5:
  82:C:/Users/stapi/OneDrive/Desktop/GD32VW553/GD32VW55X_Wifi_BLE_SDK/GD32VW55x_RELEASE_V1.0.2/MSDK/util/src\dlist.c ****     struct list_head *next = entry->next;
  85              		.loc 1 82 5 is_stmt 1
  86              		.loc 1 82 23 is_stmt 0
  87 0002 1841     		lw	a4,0(a0)
  88              	.LVL6:
  83:C:/Users/stapi/OneDrive/Desktop/GD32VW553/GD32VW55X_Wifi_BLE_SDK/GD32VW55x_RELEASE_V1.0.2/MSDK/util/src\dlist.c **** 
  84:C:/Users/stapi/OneDrive/Desktop/GD32VW553/GD32VW55X_Wifi_BLE_SDK/GD32VW55x_RELEASE_V1.0.2/MSDK/util/src\dlist.c ****     next->prev = prev;
  89              		.loc 1 84 5 is_stmt 1
  90              		.loc 1 84 16 is_stmt 0
  91 0004 5CC3     		sw	a5,4(a4)
  85:C:/Users/stapi/OneDrive/Desktop/GD32VW553/GD32VW55X_Wifi_BLE_SDK/GD32VW55x_RELEASE_V1.0.2/MSDK/util/src\dlist.c ****     prev->next = next;
  92              		.loc 1 85 5 is_stmt 1
  93              		.loc 1 85 16 is_stmt 0
  94 0006 98C3     		sw	a4,0(a5)
  86:C:/Users/stapi/OneDrive/Desktop/GD32VW553/GD32VW55X_Wifi_BLE_SDK/GD32VW55x_RELEASE_V1.0.2/MSDK/util/src\dlist.c **** }
  95              		.loc 1 86 1
  96 0008 8280     		ret
  97              		.cfi_endproc
  98              	.LFE2:
 100              		.section	.text.list_del_init,"ax",@progbits
 101              		.align	1
 102              		.globl	list_del_init
 104              	list_del_init:
 105              	.LFB3:
  87:C:/Users/stapi/OneDrive/Desktop/GD32VW553/GD32VW55X_Wifi_BLE_SDK/GD32VW55x_RELEASE_V1.0.2/MSDK/util/src\dlist.c **** 
  88:C:/Users/stapi/OneDrive/Desktop/GD32VW553/GD32VW55X_Wifi_BLE_SDK/GD32VW55x_RELEASE_V1.0.2/MSDK/util/src\dlist.c **** /*!
  89:C:/Users/stapi/OneDrive/Desktop/GD32VW553/GD32VW55X_Wifi_BLE_SDK/GD32VW55x_RELEASE_V1.0.2/MSDK/util/src\dlist.c ****     \brief      delete entry from list and reinitialize it
  90:C:/Users/stapi/OneDrive/Desktop/GD32VW553/GD32VW55X_Wifi_BLE_SDK/GD32VW55x_RELEASE_V1.0.2/MSDK/util/src\dlist.c ****     \param[in]  entry: the entry to be deleted
  91:C:/Users/stapi/OneDrive/Desktop/GD32VW553/GD32VW55X_Wifi_BLE_SDK/GD32VW55x_RELEASE_V1.0.2/MSDK/util/src\dlist.c ****     \param[out] none
  92:C:/Users/stapi/OneDrive/Desktop/GD32VW553/GD32VW55X_Wifi_BLE_SDK/GD32VW55x_RELEASE_V1.0.2/MSDK/util/src\dlist.c ****     \retval     none
  93:C:/Users/stapi/OneDrive/Desktop/GD32VW553/GD32VW55X_Wifi_BLE_SDK/GD32VW55x_RELEASE_V1.0.2/MSDK/util/src\dlist.c **** */
  94:C:/Users/stapi/OneDrive/Desktop/GD32VW553/GD32VW55X_Wifi_BLE_SDK/GD32VW55x_RELEASE_V1.0.2/MSDK/util/src\dlist.c **** void list_del_init(struct list_head *entry)
  95:C:/Users/stapi/OneDrive/Desktop/GD32VW553/GD32VW55X_Wifi_BLE_SDK/GD32VW55x_RELEASE_V1.0.2/MSDK/util/src\dlist.c **** {
 106              		.loc 1 95 1 is_stmt 1
 107              		.cfi_startproc
 108              	.LVL7:
 109 0000 17030000 		call	t0,__riscv_save_1
 109      E7020300 
 110              		.cfi_offset 8, -8
 111              		.cfi_offset 1, -4
 112              		.cfi_def_cfa_offset 16
  96:C:/Users/stapi/OneDrive/Desktop/GD32VW553/GD32VW55X_Wifi_BLE_SDK/GD32VW55x_RELEASE_V1.0.2/MSDK/util/src\dlist.c ****     list_del(entry);
 113              		.loc 1 96 5
  95:C:/Users/stapi/OneDrive/Desktop/GD32VW553/GD32VW55X_Wifi_BLE_SDK/GD32VW55x_RELEASE_V1.0.2/MSDK/util/src\dlist.c ****     list_del(entry);
 114              		.loc 1 95 1 is_stmt 0
 115 0008 2A84     		mv	s0,a0
 116              		.loc 1 96 5
 117 000a 97000000 		call	list_del
 117      E7800000 
 118              	.LVL8:
  97:C:/Users/stapi/OneDrive/Desktop/GD32VW553/GD32VW55X_Wifi_BLE_SDK/GD32VW55x_RELEASE_V1.0.2/MSDK/util/src\dlist.c ****     INIT_DLIST_HEAD(entry);
 119              		.loc 1 97 5 is_stmt 1
 120              		.loc 1 97 5
 121 0012 00C0     		sw	s0,0(s0)
 122              		.loc 1 97 5
 123 0014 40C0     		sw	s0,4(s0)
 124              		.loc 1 97 5
  98:C:/Users/stapi/OneDrive/Desktop/GD32VW553/GD32VW55X_Wifi_BLE_SDK/GD32VW55x_RELEASE_V1.0.2/MSDK/util/src\dlist.c **** }
 125              		.loc 1 98 1 is_stmt 0
 126 0016 17030000 		tail	__riscv_restore_1
 126      67000300 
 127              		.cfi_restore 8
 128              		.cfi_restore 1
 129              		.cfi_def_cfa_offset 0
 130              		.cfi_endproc
 131              	.LFE3:
 133              		.section	.text.list_empty,"ax",@progbits
 134              		.align	1
 135              		.globl	list_empty
 137              	list_empty:
 138              	.LFB4:
  99:C:/Users/stapi/OneDrive/Desktop/GD32VW553/GD32VW55X_Wifi_BLE_SDK/GD32VW55x_RELEASE_V1.0.2/MSDK/util/src\dlist.c **** 
 100:C:/Users/stapi/OneDrive/Desktop/GD32VW553/GD32VW55X_Wifi_BLE_SDK/GD32VW55x_RELEASE_V1.0.2/MSDK/util/src\dlist.c **** /*!
 101:C:/Users/stapi/OneDrive/Desktop/GD32VW553/GD32VW55X_Wifi_BLE_SDK/GD32VW55x_RELEASE_V1.0.2/MSDK/util/src\dlist.c ****     \brief      whether a list is empty
 102:C:/Users/stapi/OneDrive/Desktop/GD32VW553/GD32VW55X_Wifi_BLE_SDK/GD32VW55x_RELEASE_V1.0.2/MSDK/util/src\dlist.c ****     \param[in]  head: the list head entry
 103:C:/Users/stapi/OneDrive/Desktop/GD32VW553/GD32VW55X_Wifi_BLE_SDK/GD32VW55x_RELEASE_V1.0.2/MSDK/util/src\dlist.c ****     \param[out] none
 104:C:/Users/stapi/OneDrive/Desktop/GD32VW553/GD32VW55X_Wifi_BLE_SDK/GD32VW55x_RELEASE_V1.0.2/MSDK/util/src\dlist.c ****     \retval     the result
 105:C:/Users/stapi/OneDrive/Desktop/GD32VW553/GD32VW55X_Wifi_BLE_SDK/GD32VW55x_RELEASE_V1.0.2/MSDK/util/src\dlist.c **** */
 106:C:/Users/stapi/OneDrive/Desktop/GD32VW553/GD32VW55X_Wifi_BLE_SDK/GD32VW55x_RELEASE_V1.0.2/MSDK/util/src\dlist.c **** int list_empty(struct list_head *head)
 107:C:/Users/stapi/OneDrive/Desktop/GD32VW553/GD32VW55X_Wifi_BLE_SDK/GD32VW55x_RELEASE_V1.0.2/MSDK/util/src\dlist.c **** {
 139              		.loc 1 107 1 is_stmt 1
 140              		.cfi_startproc
 141              	.LVL9:
 108:C:/Users/stapi/OneDrive/Desktop/GD32VW553/GD32VW55X_Wifi_BLE_SDK/GD32VW55x_RELEASE_V1.0.2/MSDK/util/src\dlist.c ****     if(head->next == head)
 142              		.loc 1 108 5
 143              		.loc 1 108 7 is_stmt 0
 144 0000 1C41     		lw	a5,0(a0)
 145 0002 3385A740 		sub	a0,a5,a0
 146              	.LVL10:
 109:C:/Users/stapi/OneDrive/Desktop/GD32VW553/GD32VW55X_Wifi_BLE_SDK/GD32VW55x_RELEASE_V1.0.2/MSDK/util/src\dlist.c ****         return 1;
 110:C:/Users/stapi/OneDrive/Desktop/GD32VW553/GD32VW55X_Wifi_BLE_SDK/GD32VW55x_RELEASE_V1.0.2/MSDK/util/src\dlist.c ****     else
 111:C:/Users/stapi/OneDrive/Desktop/GD32VW553/GD32VW55X_Wifi_BLE_SDK/GD32VW55x_RELEASE_V1.0.2/MSDK/util/src\dlist.c ****         return 0;
 112:C:/Users/stapi/OneDrive/Desktop/GD32VW553/GD32VW55X_Wifi_BLE_SDK/GD32VW55x_RELEASE_V1.0.2/MSDK/util/src\dlist.c **** }
 147              		.loc 1 112 1
 148 0006 13351500 		seqz	a0,a0
 149 000a 8280     		ret
 150              		.cfi_endproc
 151              	.LFE4:
 153              		.section	.text.list_splice,"ax",@progbits
 154              		.align	1
 155              		.globl	list_splice
 157              	list_splice:
 158              	.LFB5:
 113:C:/Users/stapi/OneDrive/Desktop/GD32VW553/GD32VW55X_Wifi_BLE_SDK/GD32VW55x_RELEASE_V1.0.2/MSDK/util/src\dlist.c **** 
 114:C:/Users/stapi/OneDrive/Desktop/GD32VW553/GD32VW55X_Wifi_BLE_SDK/GD32VW55x_RELEASE_V1.0.2/MSDK/util/src\dlist.c **** /*!
 115:C:/Users/stapi/OneDrive/Desktop/GD32VW553/GD32VW55X_Wifi_BLE_SDK/GD32VW55x_RELEASE_V1.0.2/MSDK/util/src\dlist.c ****     \brief      splice two lists
 116:C:/Users/stapi/OneDrive/Desktop/GD32VW553/GD32VW55X_Wifi_BLE_SDK/GD32VW55x_RELEASE_V1.0.2/MSDK/util/src\dlist.c ****     \param[in]  list: the new list to add
 117:C:/Users/stapi/OneDrive/Desktop/GD32VW553/GD32VW55X_Wifi_BLE_SDK/GD32VW55x_RELEASE_V1.0.2/MSDK/util/src\dlist.c ****     \param[in]  head: the place to add it in the first list
 118:C:/Users/stapi/OneDrive/Desktop/GD32VW553/GD32VW55X_Wifi_BLE_SDK/GD32VW55x_RELEASE_V1.0.2/MSDK/util/src\dlist.c ****     \param[out] none
 119:C:/Users/stapi/OneDrive/Desktop/GD32VW553/GD32VW55X_Wifi_BLE_SDK/GD32VW55x_RELEASE_V1.0.2/MSDK/util/src\dlist.c ****     \retval     none
 120:C:/Users/stapi/OneDrive/Desktop/GD32VW553/GD32VW55X_Wifi_BLE_SDK/GD32VW55x_RELEASE_V1.0.2/MSDK/util/src\dlist.c **** */
 121:C:/Users/stapi/OneDrive/Desktop/GD32VW553/GD32VW55X_Wifi_BLE_SDK/GD32VW55x_RELEASE_V1.0.2/MSDK/util/src\dlist.c **** void list_splice(struct list_head *list, struct list_head *head)
 122:C:/Users/stapi/OneDrive/Desktop/GD32VW553/GD32VW55X_Wifi_BLE_SDK/GD32VW55x_RELEASE_V1.0.2/MSDK/util/src\dlist.c **** {
 159              		.loc 1 122 1 is_stmt 1
 160              		.cfi_startproc
 161              	.LVL11:
 123:C:/Users/stapi/OneDrive/Desktop/GD32VW553/GD32VW55X_Wifi_BLE_SDK/GD32VW55x_RELEASE_V1.0.2/MSDK/util/src\dlist.c ****     struct list_head *first = list->next;
 162              		.loc 1 123 5
 163              		.loc 1 123 23 is_stmt 0
 164 0000 1C41     		lw	a5,0(a0)
 165              	.LVL12:
 124:C:/Users/stapi/OneDrive/Desktop/GD32VW553/GD32VW55X_Wifi_BLE_SDK/GD32VW55x_RELEASE_V1.0.2/MSDK/util/src\dlist.c **** 
 125:C:/Users/stapi/OneDrive/Desktop/GD32VW553/GD32VW55X_Wifi_BLE_SDK/GD32VW55x_RELEASE_V1.0.2/MSDK/util/src\dlist.c ****     if (first != list)
 166              		.loc 1 125 5 is_stmt 1
 167              		.loc 1 125 8 is_stmt 0
 168 0002 6308F500 		beq	a0,a5,.L7
 169              	.LBB2:
 126:C:/Users/stapi/OneDrive/Desktop/GD32VW553/GD32VW55X_Wifi_BLE_SDK/GD32VW55x_RELEASE_V1.0.2/MSDK/util/src\dlist.c ****     {
 127:C:/Users/stapi/OneDrive/Desktop/GD32VW553/GD32VW55X_Wifi_BLE_SDK/GD32VW55x_RELEASE_V1.0.2/MSDK/util/src\dlist.c ****         struct list_head *last = list->prev;
 170              		.loc 1 127 9 is_stmt 1
 171              		.loc 1 127 27 is_stmt 0
 172 0006 5441     		lw	a3,4(a0)
 173              	.LVL13:
 128:C:/Users/stapi/OneDrive/Desktop/GD32VW553/GD32VW55X_Wifi_BLE_SDK/GD32VW55x_RELEASE_V1.0.2/MSDK/util/src\dlist.c ****         struct list_head *at = head->next;
 174              		.loc 1 128 9 is_stmt 1
 175              		.loc 1 128 27 is_stmt 0
 176 0008 9841     		lw	a4,0(a1)
 177              	.LVL14:
 129:C:/Users/stapi/OneDrive/Desktop/GD32VW553/GD32VW55X_Wifi_BLE_SDK/GD32VW55x_RELEASE_V1.0.2/MSDK/util/src\dlist.c ****         first->prev = head;
 178              		.loc 1 129 9 is_stmt 1
 179              		.loc 1 129 21 is_stmt 0
 180 000a CCC3     		sw	a1,4(a5)
 130:C:/Users/stapi/OneDrive/Desktop/GD32VW553/GD32VW55X_Wifi_BLE_SDK/GD32VW55x_RELEASE_V1.0.2/MSDK/util/src\dlist.c ****         head->next = first;
 181              		.loc 1 130 9 is_stmt 1
 182              		.loc 1 130 20 is_stmt 0
 183 000c 9CC1     		sw	a5,0(a1)
 131:C:/Users/stapi/OneDrive/Desktop/GD32VW553/GD32VW55X_Wifi_BLE_SDK/GD32VW55x_RELEASE_V1.0.2/MSDK/util/src\dlist.c ****         last->next = at;
 184              		.loc 1 131 9 is_stmt 1
 185              		.loc 1 131 20 is_stmt 0
 186 000e 98C2     		sw	a4,0(a3)
 132:C:/Users/stapi/OneDrive/Desktop/GD32VW553/GD32VW55X_Wifi_BLE_SDK/GD32VW55x_RELEASE_V1.0.2/MSDK/util/src\dlist.c ****         at->prev = last;
 187              		.loc 1 132 9 is_stmt 1
 188              		.loc 1 132 18 is_stmt 0
 189 0010 54C3     		sw	a3,4(a4)
 190              	.LVL15:
 191              	.L7:
 192              	.LBE2:
 133:C:/Users/stapi/OneDrive/Desktop/GD32VW553/GD32VW55X_Wifi_BLE_SDK/GD32VW55x_RELEASE_V1.0.2/MSDK/util/src\dlist.c ****     }
 134:C:/Users/stapi/OneDrive/Desktop/GD32VW553/GD32VW55X_Wifi_BLE_SDK/GD32VW55x_RELEASE_V1.0.2/MSDK/util/src\dlist.c **** }
 193              		.loc 1 134 1
 194 0012 8280     		ret
 195              		.cfi_endproc
 196              	.LFE5:
 198              		.section	.text.list_len,"ax",@progbits
 199              		.align	1
 200              		.globl	list_len
 202              	list_len:
 203              	.LFB6:
 135:C:/Users/stapi/OneDrive/Desktop/GD32VW553/GD32VW55X_Wifi_BLE_SDK/GD32VW55x_RELEASE_V1.0.2/MSDK/util/src\dlist.c **** 
 136:C:/Users/stapi/OneDrive/Desktop/GD32VW553/GD32VW55X_Wifi_BLE_SDK/GD32VW55x_RELEASE_V1.0.2/MSDK/util/src\dlist.c **** int list_len(struct list_head *head)
 137:C:/Users/stapi/OneDrive/Desktop/GD32VW553/GD32VW55X_Wifi_BLE_SDK/GD32VW55x_RELEASE_V1.0.2/MSDK/util/src\dlist.c **** {
 204              		.loc 1 137 1 is_stmt 1
 205              		.cfi_startproc
 206              	.LVL16:
 138:C:/Users/stapi/OneDrive/Desktop/GD32VW553/GD32VW55X_Wifi_BLE_SDK/GD32VW55x_RELEASE_V1.0.2/MSDK/util/src\dlist.c ****     struct list_head *pos;
 207              		.loc 1 138 5
 139:C:/Users/stapi/OneDrive/Desktop/GD32VW553/GD32VW55X_Wifi_BLE_SDK/GD32VW55x_RELEASE_V1.0.2/MSDK/util/src\dlist.c ****     int count = 0;
 208              		.loc 1 139 5
 140:C:/Users/stapi/OneDrive/Desktop/GD32VW553/GD32VW55X_Wifi_BLE_SDK/GD32VW55x_RELEASE_V1.0.2/MSDK/util/src\dlist.c **** 
 141:C:/Users/stapi/OneDrive/Desktop/GD32VW553/GD32VW55X_Wifi_BLE_SDK/GD32VW55x_RELEASE_V1.0.2/MSDK/util/src\dlist.c ****     list_for_each(pos, head) {
 209              		.loc 1 141 5
 210 0000 1841     		lw	a4,0(a0)
 211              	.LVL17:
 137:C:/Users/stapi/OneDrive/Desktop/GD32VW553/GD32VW55X_Wifi_BLE_SDK/GD32VW55x_RELEASE_V1.0.2/MSDK/util/src\dlist.c ****     struct list_head *pos;
 212              		.loc 1 137 1 is_stmt 0
 213 0002 AA87     		mv	a5,a0
 139:C:/Users/stapi/OneDrive/Desktop/GD32VW553/GD32VW55X_Wifi_BLE_SDK/GD32VW55x_RELEASE_V1.0.2/MSDK/util/src\dlist.c ****     int count = 0;
 214              		.loc 1 139 9
 215 0004 0145     		li	a0,0
 216              	.LVL18:
 217              	.L10:
 218              		.loc 1 141 5 is_stmt 1 discriminator 1
 219 0006 6313F700 		bne	a4,a5,.L11
 142:C:/Users/stapi/OneDrive/Desktop/GD32VW553/GD32VW55X_Wifi_BLE_SDK/GD32VW55x_RELEASE_V1.0.2/MSDK/util/src\dlist.c ****         count++;
 143:C:/Users/stapi/OneDrive/Desktop/GD32VW553/GD32VW55X_Wifi_BLE_SDK/GD32VW55x_RELEASE_V1.0.2/MSDK/util/src\dlist.c ****     }
 144:C:/Users/stapi/OneDrive/Desktop/GD32VW553/GD32VW55X_Wifi_BLE_SDK/GD32VW55x_RELEASE_V1.0.2/MSDK/util/src\dlist.c ****     return count;
 220              		.loc 1 144 5
 145:C:/Users/stapi/OneDrive/Desktop/GD32VW553/GD32VW55X_Wifi_BLE_SDK/GD32VW55x_RELEASE_V1.0.2/MSDK/util/src\dlist.c **** }
 221              		.loc 1 145 1 is_stmt 0
 222 000a 8280     		ret
 223              	.L11:
 142:C:/Users/stapi/OneDrive/Desktop/GD32VW553/GD32VW55X_Wifi_BLE_SDK/GD32VW55x_RELEASE_V1.0.2/MSDK/util/src\dlist.c ****         count++;
 224              		.loc 1 142 9 is_stmt 1 discriminator 3
 141:C:/Users/stapi/OneDrive/Desktop/GD32VW553/GD32VW55X_Wifi_BLE_SDK/GD32VW55x_RELEASE_V1.0.2/MSDK/util/src\dlist.c ****         count++;
 225              		.loc 1 141 5 is_stmt 0 discriminator 3
 226 000c 1843     		lw	a4,0(a4)
 227              	.LVL19:
 142:C:/Users/stapi/OneDrive/Desktop/GD32VW553/GD32VW55X_Wifi_BLE_SDK/GD32VW55x_RELEASE_V1.0.2/MSDK/util/src\dlist.c ****         count++;
 228              		.loc 1 142 14 discriminator 3
 229 000e 0505     		addi	a0,a0,1
 230              	.LVL20:
 141:C:/Users/stapi/OneDrive/Desktop/GD32VW553/GD32VW55X_Wifi_BLE_SDK/GD32VW55x_RELEASE_V1.0.2/MSDK/util/src\dlist.c ****         count++;
 231              		.loc 1 141 5 is_stmt 1 discriminator 3
 232 0010 DDBF     		j	.L10
 233              		.cfi_endproc
 234              	.LFE6:
 236              		.text
 237              	.Letext0:
 238              		.file 2 "..\\..\\..\\..\\util\\include/dlist.h"
DEFINED SYMBOLS
                            *ABS*:0000000000000000 dlist.c
C:\Users\stapi\AppData\Local\Temp\ccZlft49.s:13     .text.list_add:0000000000000000 list_add
C:\Users\stapi\AppData\Local\Temp\ccZlft49.s:17     .text.list_add:0000000000000000 .L0 
C:\Users\stapi\AppData\Local\Temp\ccZlft49.s:19     .text.list_add:0000000000000000 .L0 
C:\Users\stapi\AppData\Local\Temp\ccZlft49.s:20     .text.list_add:0000000000000000 .L0 
C:\Users\stapi\AppData\Local\Temp\ccZlft49.s:21     .text.list_add:0000000000000000 .L0 
C:\Users\stapi\AppData\Local\Temp\ccZlft49.s:22     .text.list_add:0000000000000000 .L0 
C:\Users\stapi\AppData\Local\Temp\ccZlft49.s:25     .text.list_add:0000000000000002 .L0 
C:\Users\stapi\AppData\Local\Temp\ccZlft49.s:26     .text.list_add:0000000000000002 .L0 
C:\Users\stapi\AppData\Local\Temp\ccZlft49.s:28     .text.list_add:0000000000000004 .L0 
C:\Users\stapi\AppData\Local\Temp\ccZlft49.s:29     .text.list_add:0000000000000004 .L0 
C:\Users\stapi\AppData\Local\Temp\ccZlft49.s:31     .text.list_add:0000000000000006 .L0 
C:\Users\stapi\AppData\Local\Temp\ccZlft49.s:32     .text.list_add:0000000000000006 .L0 
C:\Users\stapi\AppData\Local\Temp\ccZlft49.s:34     .text.list_add:0000000000000008 .L0 
C:\Users\stapi\AppData\Local\Temp\ccZlft49.s:35     .text.list_add:0000000000000008 .L0 
C:\Users\stapi\AppData\Local\Temp\ccZlft49.s:37     .text.list_add:000000000000000a .L0 
C:\Users\stapi\AppData\Local\Temp\ccZlft49.s:38     .text.list_add:000000000000000c .L0 
C:\Users\stapi\AppData\Local\Temp\ccZlft49.s:45     .text.list_add_tail:0000000000000000 list_add_tail
C:\Users\stapi\AppData\Local\Temp\ccZlft49.s:48     .text.list_add_tail:0000000000000000 .L0 
C:\Users\stapi\AppData\Local\Temp\ccZlft49.s:50     .text.list_add_tail:0000000000000000 .L0 
C:\Users\stapi\AppData\Local\Temp\ccZlft49.s:51     .text.list_add_tail:0000000000000000 .L0 
C:\Users\stapi\AppData\Local\Temp\ccZlft49.s:52     .text.list_add_tail:0000000000000000 .L0 
C:\Users\stapi\AppData\Local\Temp\ccZlft49.s:55     .text.list_add_tail:0000000000000002 .L0 
C:\Users\stapi\AppData\Local\Temp\ccZlft49.s:56     .text.list_add_tail:0000000000000002 .L0 
C:\Users\stapi\AppData\Local\Temp\ccZlft49.s:57     .text.list_add_tail:0000000000000002 .L0 
C:\Users\stapi\AppData\Local\Temp\ccZlft49.s:59     .text.list_add_tail:0000000000000004 .L0 
C:\Users\stapi\AppData\Local\Temp\ccZlft49.s:60     .text.list_add_tail:0000000000000004 .L0 
C:\Users\stapi\AppData\Local\Temp\ccZlft49.s:62     .text.list_add_tail:0000000000000006 .L0 
C:\Users\stapi\AppData\Local\Temp\ccZlft49.s:63     .text.list_add_tail:0000000000000006 .L0 
C:\Users\stapi\AppData\Local\Temp\ccZlft49.s:65     .text.list_add_tail:0000000000000008 .L0 
C:\Users\stapi\AppData\Local\Temp\ccZlft49.s:66     .text.list_add_tail:0000000000000008 .L0 
C:\Users\stapi\AppData\Local\Temp\ccZlft49.s:68     .text.list_add_tail:000000000000000a .L0 
C:\Users\stapi\AppData\Local\Temp\ccZlft49.s:69     .text.list_add_tail:000000000000000c .L0 
C:\Users\stapi\AppData\Local\Temp\ccZlft49.s:76     .text.list_del:0000000000000000 list_del
C:\Users\stapi\AppData\Local\Temp\ccZlft49.s:79     .text.list_del:0000000000000000 .L0 
C:\Users\stapi\AppData\Local\Temp\ccZlft49.s:81     .text.list_del:0000000000000000 .L0 
C:\Users\stapi\AppData\Local\Temp\ccZlft49.s:82     .text.list_del:0000000000000000 .L0 
C:\Users\stapi\AppData\Local\Temp\ccZlft49.s:83     .text.list_del:0000000000000000 .L0 
C:\Users\stapi\AppData\Local\Temp\ccZlft49.s:86     .text.list_del:0000000000000002 .L0 
C:\Users\stapi\AppData\Local\Temp\ccZlft49.s:87     .text.list_del:0000000000000002 .L0 
C:\Users\stapi\AppData\Local\Temp\ccZlft49.s:90     .text.list_del:0000000000000004 .L0 
C:\Users\stapi\AppData\Local\Temp\ccZlft49.s:91     .text.list_del:0000000000000004 .L0 
C:\Users\stapi\AppData\Local\Temp\ccZlft49.s:93     .text.list_del:0000000000000006 .L0 
C:\Users\stapi\AppData\Local\Temp\ccZlft49.s:94     .text.list_del:0000000000000006 .L0 
C:\Users\stapi\AppData\Local\Temp\ccZlft49.s:96     .text.list_del:0000000000000008 .L0 
C:\Users\stapi\AppData\Local\Temp\ccZlft49.s:97     .text.list_del:000000000000000a .L0 
C:\Users\stapi\AppData\Local\Temp\ccZlft49.s:104    .text.list_del_init:0000000000000000 list_del_init
C:\Users\stapi\AppData\Local\Temp\ccZlft49.s:107    .text.list_del_init:0000000000000000 .L0 
C:\Users\stapi\AppData\Local\Temp\ccZlft49.s:109    .text.list_del_init:0000000000000000 .L0 
C:\Users\stapi\AppData\Local\Temp\ccZlft49.s:110    .text.list_del_init:0000000000000008 .L0 
C:\Users\stapi\AppData\Local\Temp\ccZlft49.s:111    .text.list_del_init:0000000000000008 .L0 
C:\Users\stapi\AppData\Local\Temp\ccZlft49.s:112    .text.list_del_init:0000000000000008 .L0 
C:\Users\stapi\AppData\Local\Temp\ccZlft49.s:114    .text.list_del_init:0000000000000008 .L0 
C:\Users\stapi\AppData\Local\Temp\ccZlft49.s:115    .text.list_del_init:0000000000000008 .L0 
C:\Users\stapi\AppData\Local\Temp\ccZlft49.s:117    .text.list_del_init:000000000000000a .L0 
C:\Users\stapi\AppData\Local\Temp\ccZlft49.s:120    .text.list_del_init:0000000000000012 .L0 
C:\Users\stapi\AppData\Local\Temp\ccZlft49.s:121    .text.list_del_init:0000000000000012 .L0 
C:\Users\stapi\AppData\Local\Temp\ccZlft49.s:123    .text.list_del_init:0000000000000014 .L0 
C:\Users\stapi\AppData\Local\Temp\ccZlft49.s:125    .text.list_del_init:0000000000000016 .L0 
C:\Users\stapi\AppData\Local\Temp\ccZlft49.s:126    .text.list_del_init:0000000000000016 .L0 
C:\Users\stapi\AppData\Local\Temp\ccZlft49.s:127    .text.list_del_init:000000000000001e .L0 
C:\Users\stapi\AppData\Local\Temp\ccZlft49.s:128    .text.list_del_init:000000000000001e .L0 
C:\Users\stapi\AppData\Local\Temp\ccZlft49.s:129    .text.list_del_init:000000000000001e .L0 
C:\Users\stapi\AppData\Local\Temp\ccZlft49.s:130    .text.list_del_init:000000000000001e .L0 
C:\Users\stapi\AppData\Local\Temp\ccZlft49.s:137    .text.list_empty:0000000000000000 list_empty
C:\Users\stapi\AppData\Local\Temp\ccZlft49.s:140    .text.list_empty:0000000000000000 .L0 
C:\Users\stapi\AppData\Local\Temp\ccZlft49.s:142    .text.list_empty:0000000000000000 .L0 
C:\Users\stapi\AppData\Local\Temp\ccZlft49.s:143    .text.list_empty:0000000000000000 .L0 
C:\Users\stapi\AppData\Local\Temp\ccZlft49.s:144    .text.list_empty:0000000000000000 .L0 
C:\Users\stapi\AppData\Local\Temp\ccZlft49.s:148    .text.list_empty:0000000000000006 .L0 
C:\Users\stapi\AppData\Local\Temp\ccZlft49.s:150    .text.list_empty:000000000000000c .L0 
C:\Users\stapi\AppData\Local\Temp\ccZlft49.s:157    .text.list_splice:0000000000000000 list_splice
C:\Users\stapi\AppData\Local\Temp\ccZlft49.s:160    .text.list_splice:0000000000000000 .L0 
C:\Users\stapi\AppData\Local\Temp\ccZlft49.s:162    .text.list_splice:0000000000000000 .L0 
C:\Users\stapi\AppData\Local\Temp\ccZlft49.s:163    .text.list_splice:0000000000000000 .L0 
C:\Users\stapi\AppData\Local\Temp\ccZlft49.s:164    .text.list_splice:0000000000000000 .L0 
C:\Users\stapi\AppData\Local\Temp\ccZlft49.s:167    .text.list_splice:0000000000000002 .L0 
C:\Users\stapi\AppData\Local\Temp\ccZlft49.s:168    .text.list_splice:0000000000000002 .L0 
C:\Users\stapi\AppData\Local\Temp\ccZlft49.s:171    .text.list_splice:0000000000000006 .L0 
C:\Users\stapi\AppData\Local\Temp\ccZlft49.s:172    .text.list_splice:0000000000000006 .L0 
C:\Users\stapi\AppData\Local\Temp\ccZlft49.s:175    .text.list_splice:0000000000000008 .L0 
C:\Users\stapi\AppData\Local\Temp\ccZlft49.s:176    .text.list_splice:0000000000000008 .L0 
C:\Users\stapi\AppData\Local\Temp\ccZlft49.s:179    .text.list_splice:000000000000000a .L0 
C:\Users\stapi\AppData\Local\Temp\ccZlft49.s:180    .text.list_splice:000000000000000a .L0 
C:\Users\stapi\AppData\Local\Temp\ccZlft49.s:182    .text.list_splice:000000000000000c .L0 
C:\Users\stapi\AppData\Local\Temp\ccZlft49.s:183    .text.list_splice:000000000000000c .L0 
C:\Users\stapi\AppData\Local\Temp\ccZlft49.s:185    .text.list_splice:000000000000000e .L0 
C:\Users\stapi\AppData\Local\Temp\ccZlft49.s:186    .text.list_splice:000000000000000e .L0 
C:\Users\stapi\AppData\Local\Temp\ccZlft49.s:188    .text.list_splice:0000000000000010 .L0 
C:\Users\stapi\AppData\Local\Temp\ccZlft49.s:189    .text.list_splice:0000000000000010 .L0 
C:\Users\stapi\AppData\Local\Temp\ccZlft49.s:194    .text.list_splice:0000000000000012 .L0 
C:\Users\stapi\AppData\Local\Temp\ccZlft49.s:195    .text.list_splice:0000000000000014 .L0 
C:\Users\stapi\AppData\Local\Temp\ccZlft49.s:202    .text.list_len:0000000000000000 list_len
C:\Users\stapi\AppData\Local\Temp\ccZlft49.s:205    .text.list_len:0000000000000000 .L0 
C:\Users\stapi\AppData\Local\Temp\ccZlft49.s:207    .text.list_len:0000000000000000 .L0 
C:\Users\stapi\AppData\Local\Temp\ccZlft49.s:208    .text.list_len:0000000000000000 .L0 
C:\Users\stapi\AppData\Local\Temp\ccZlft49.s:209    .text.list_len:0000000000000000 .L0 
C:\Users\stapi\AppData\Local\Temp\ccZlft49.s:210    .text.list_len:0000000000000000 .L0 
C:\Users\stapi\AppData\Local\Temp\ccZlft49.s:213    .text.list_len:0000000000000002 .L0 
C:\Users\stapi\AppData\Local\Temp\ccZlft49.s:215    .text.list_len:0000000000000004 .L0 
C:\Users\stapi\AppData\Local\Temp\ccZlft49.s:219    .text.list_len:0000000000000006 .L0 
C:\Users\stapi\AppData\Local\Temp\ccZlft49.s:221    .text.list_len:000000000000000a .L0 
C:\Users\stapi\AppData\Local\Temp\ccZlft49.s:222    .text.list_len:000000000000000a .L0 
C:\Users\stapi\AppData\Local\Temp\ccZlft49.s:225    .text.list_len:000000000000000c .L0 
C:\Users\stapi\AppData\Local\Temp\ccZlft49.s:226    .text.list_len:000000000000000c .L0 
C:\Users\stapi\AppData\Local\Temp\ccZlft49.s:229    .text.list_len:000000000000000e .L0 
C:\Users\stapi\AppData\Local\Temp\ccZlft49.s:232    .text.list_len:0000000000000010 .L0 
C:\Users\stapi\AppData\Local\Temp\ccZlft49.s:233    .text.list_len:0000000000000012 .L0 
C:\Users\stapi\AppData\Local\Temp\ccZlft49.s:41     .text.list_add:000000000000000c .L0 
C:\Users\stapi\AppData\Local\Temp\ccZlft49.s:72     .text.list_add_tail:000000000000000c .L0 
C:\Users\stapi\AppData\Local\Temp\ccZlft49.s:100    .text.list_del:000000000000000a .L0 
C:\Users\stapi\AppData\Local\Temp\ccZlft49.s:133    .text.list_del_init:000000000000001e .L0 
C:\Users\stapi\AppData\Local\Temp\ccZlft49.s:153    .text.list_empty:000000000000000c .L0 
C:\Users\stapi\AppData\Local\Temp\ccZlft49.s:198    .text.list_splice:0000000000000014 .L0 
C:\Users\stapi\AppData\Local\Temp\ccZlft49.s:236    .text.list_len:0000000000000012 .L0 
                     .debug_frame:0000000000000000 .L0 
C:\Users\stapi\AppData\Local\Temp\ccZlft49.s:191    .text.list_splice:0000000000000012 .L7
C:\Users\stapi\AppData\Local\Temp\ccZlft49.s:223    .text.list_len:000000000000000c .L11
C:\Users\stapi\AppData\Local\Temp\ccZlft49.s:217    .text.list_len:0000000000000006 .L10
C:\Users\stapi\AppData\Local\Temp\ccZlft49.s:537    .debug_abbrev:0000000000000000 .Ldebug_abbrev0
C:\Users\stapi\AppData\Local\Temp\ccZlft49.s:939    .debug_str:0000000000000038 .LASF15
C:\Users\stapi\AppData\Local\Temp\ccZlft49.s:959    .debug_str:00000000000001ec .LASF16
C:\Users\stapi\AppData\Local\Temp\ccZlft49.s:951    .debug_str:0000000000000153 .LASF17
C:\Users\stapi\AppData\Local\Temp\ccZlft49.s:905    .debug_ranges:0000000000000000 .Ldebug_ranges0
C:\Users\stapi\AppData\Local\Temp\ccZlft49.s:923    .debug_line:0000000000000000 .Ldebug_line0
C:\Users\stapi\AppData\Local\Temp\ccZlft49.s:953    .debug_str:00000000000001d1 .LASF18
C:\Users\stapi\AppData\Local\Temp\ccZlft49.s:963    .debug_str:000000000000026a .LASF0
C:\Users\stapi\AppData\Local\Temp\ccZlft49.s:957    .debug_str:00000000000001e7 .LASF1
C:\Users\stapi\AppData\Local\Temp\ccZlft49.s:943    .debug_str:0000000000000136 .LASF7
C:\Users\stapi\AppData\Local\Temp\ccZlft49.s:203    .text.list_len:0000000000000000 .LFB6
C:\Users\stapi\AppData\Local\Temp\ccZlft49.s:234    .text.list_len:0000000000000012 .LFE6
C:\Users\stapi\AppData\Local\Temp\ccZlft49.s:931    .debug_str:0000000000000016 .LASF3
C:\Users\stapi\AppData\Local\Temp\ccZlft49.s:807    .debug_loc:0000000000000000 .LLST4
C:\Users\stapi\AppData\Local\Temp\ccZlft49.s:818    .debug_loc:000000000000001e .LLST5
C:\Users\stapi\AppData\Local\Temp\ccZlft49.s:927    .debug_str:0000000000000005 .LASF2
C:\Users\stapi\AppData\Local\Temp\ccZlft49.s:829    .debug_loc:000000000000003c .LLST6
C:\Users\stapi\AppData\Local\Temp\ccZlft49.s:955    .debug_str:00000000000001db .LASF9
C:\Users\stapi\AppData\Local\Temp\ccZlft49.s:158    .text.list_splice:0000000000000000 .LFB5
C:\Users\stapi\AppData\Local\Temp\ccZlft49.s:196    .text.list_splice:0000000000000014 .LFE5
C:\Users\stapi\AppData\Local\Temp\ccZlft49.s:949    .debug_str:000000000000014e .LASF4
C:\Users\stapi\AppData\Local\Temp\ccZlft49.s:947    .debug_str:0000000000000148 .LASF5
C:\Users\stapi\AppData\Local\Temp\ccZlft49.s:169    .text.list_splice:0000000000000006 .LBB2
C:\Users\stapi\AppData\Local\Temp\ccZlft49.s:192    .text.list_splice:0000000000000012 .LBE2
C:\Users\stapi\AppData\Local\Temp\ccZlft49.s:925    .debug_str:0000000000000000 .LASF6
C:\Users\stapi\AppData\Local\Temp\ccZlft49.s:841    .debug_loc:000000000000005b .LLST2
C:\Users\stapi\AppData\Local\Temp\ccZlft49.s:848    .debug_loc:000000000000006e .LLST3
C:\Users\stapi\AppData\Local\Temp\ccZlft49.s:929    .debug_str:000000000000000b .LASF8
C:\Users\stapi\AppData\Local\Temp\ccZlft49.s:138    .text.list_empty:0000000000000000 .LFB4
C:\Users\stapi\AppData\Local\Temp\ccZlft49.s:151    .text.list_empty:000000000000000c .LFE4
C:\Users\stapi\AppData\Local\Temp\ccZlft49.s:855    .debug_loc:0000000000000081 .LLST1
C:\Users\stapi\AppData\Local\Temp\ccZlft49.s:961    .debug_str:000000000000025c .LASF10
C:\Users\stapi\AppData\Local\Temp\ccZlft49.s:105    .text.list_del_init:0000000000000000 .LFB3
C:\Users\stapi\AppData\Local\Temp\ccZlft49.s:131    .text.list_del_init:000000000000001e .LFE3
C:\Users\stapi\AppData\Local\Temp\ccZlft49.s:935    .debug_str:0000000000000024 .LASF11
C:\Users\stapi\AppData\Local\Temp\ccZlft49.s:869    .debug_loc:00000000000000a2 .LLST0
C:\Users\stapi\AppData\Local\Temp\ccZlft49.s:118    .text.list_del_init:0000000000000012 .LVL8
C:\Users\stapi\AppData\Local\Temp\ccZlft49.s:945    .debug_str:000000000000013f .LASF12
C:\Users\stapi\AppData\Local\Temp\ccZlft49.s:77     .text.list_del:0000000000000000 .LFB2
C:\Users\stapi\AppData\Local\Temp\ccZlft49.s:98     .text.list_del:000000000000000a .LFE2
C:\Users\stapi\AppData\Local\Temp\ccZlft49.s:937    .debug_str:000000000000002a .LASF13
C:\Users\stapi\AppData\Local\Temp\ccZlft49.s:46     .text.list_add_tail:0000000000000000 .LFB1
C:\Users\stapi\AppData\Local\Temp\ccZlft49.s:70     .text.list_add_tail:000000000000000c .LFE1
C:\Users\stapi\AppData\Local\Temp\ccZlft49.s:941    .debug_str:0000000000000131 .LASF14
C:\Users\stapi\AppData\Local\Temp\ccZlft49.s:933    .debug_str:000000000000001b .LASF19
C:\Users\stapi\AppData\Local\Temp\ccZlft49.s:14     .text.list_add:0000000000000000 .LFB0
C:\Users\stapi\AppData\Local\Temp\ccZlft49.s:39     .text.list_add:000000000000000c .LFE0
C:\Users\stapi\AppData\Local\Temp\ccZlft49.s:206    .text.list_len:0000000000000000 .LVL16
C:\Users\stapi\AppData\Local\Temp\ccZlft49.s:216    .text.list_len:0000000000000006 .LVL18
C:\Users\stapi\AppData\Local\Temp\ccZlft49.s:211    .text.list_len:0000000000000002 .LVL17
C:\Users\stapi\AppData\Local\Temp\ccZlft49.s:227    .text.list_len:000000000000000e .LVL19
C:\Users\stapi\AppData\Local\Temp\ccZlft49.s:230    .text.list_len:0000000000000010 .LVL20
C:\Users\stapi\AppData\Local\Temp\ccZlft49.s:173    .text.list_splice:0000000000000008 .LVL13
C:\Users\stapi\AppData\Local\Temp\ccZlft49.s:190    .text.list_splice:0000000000000012 .LVL15
C:\Users\stapi\AppData\Local\Temp\ccZlft49.s:177    .text.list_splice:000000000000000a .LVL14
C:\Users\stapi\AppData\Local\Temp\ccZlft49.s:141    .text.list_empty:0000000000000000 .LVL9
C:\Users\stapi\AppData\Local\Temp\ccZlft49.s:146    .text.list_empty:0000000000000006 .LVL10
C:\Users\stapi\AppData\Local\Temp\ccZlft49.s:108    .text.list_del_init:0000000000000000 .LVL7
C:\Users\stapi\AppData\Local\Temp\ccZlft49.s:240    .debug_info:0000000000000000 .Ldebug_info0

UNDEFINED SYMBOLS
__riscv_save_1
__riscv_restore_1
