   1              		.file	"slist.c"
   2              		.option nopic
   3              		.attribute arch, "rv32i2p0_m2p0_a2p0_f2p0_c2p0_b_p0p94"
   4              		.attribute unaligned_access, 0
   5              		.attribute stack_align, 16
   6              		.text
   7              	.Ltext0:
   8              		.cfi_sections	.debug_frame
   9              		.section	.text.list_init,"ax",@progbits
  10              		.align	1
  11              		.globl	list_init
  13              	list_init:
  14              	.LFB5:
  15              		.file 1 "C:/Users/stapi/OneDrive/Desktop/GD32VW553/V1_MQTT_OK/GD32VW55X_Wifi_BLE_SDK/GD32VW55x_REL
   1:C:/Users/stapi/OneDrive/Desktop/GD32VW553/V1_MQTT_OK/GD32VW55X_Wifi_BLE_SDK/GD32VW55x_RELEASE_V1.0.2/MSDK/util/src\slist.c **** /*!
   2:C:/Users/stapi/OneDrive/Desktop/GD32VW553/V1_MQTT_OK/GD32VW55X_Wifi_BLE_SDK/GD32VW55x_RELEASE_V1.0.2/MSDK/util/src\slist.c ****     \file    list.c
   3:C:/Users/stapi/OneDrive/Desktop/GD32VW553/V1_MQTT_OK/GD32VW55X_Wifi_BLE_SDK/GD32VW55x_RELEASE_V1.0.2/MSDK/util/src\slist.c ****     \brief   Single linked list managerment functions
   4:C:/Users/stapi/OneDrive/Desktop/GD32VW553/V1_MQTT_OK/GD32VW55X_Wifi_BLE_SDK/GD32VW55x_RELEASE_V1.0.2/MSDK/util/src\slist.c **** 
   5:C:/Users/stapi/OneDrive/Desktop/GD32VW553/V1_MQTT_OK/GD32VW55X_Wifi_BLE_SDK/GD32VW55x_RELEASE_V1.0.2/MSDK/util/src\slist.c ****     \version 2023-07-20, V1.0.0, firmware for GD32VW55x
   6:C:/Users/stapi/OneDrive/Desktop/GD32VW553/V1_MQTT_OK/GD32VW55X_Wifi_BLE_SDK/GD32VW55x_RELEASE_V1.0.2/MSDK/util/src\slist.c **** */
   7:C:/Users/stapi/OneDrive/Desktop/GD32VW553/V1_MQTT_OK/GD32VW55X_Wifi_BLE_SDK/GD32VW55x_RELEASE_V1.0.2/MSDK/util/src\slist.c **** 
   8:C:/Users/stapi/OneDrive/Desktop/GD32VW553/V1_MQTT_OK/GD32VW55X_Wifi_BLE_SDK/GD32VW55x_RELEASE_V1.0.2/MSDK/util/src\slist.c **** /*
   9:C:/Users/stapi/OneDrive/Desktop/GD32VW553/V1_MQTT_OK/GD32VW55X_Wifi_BLE_SDK/GD32VW55x_RELEASE_V1.0.2/MSDK/util/src\slist.c ****     Copyright (c) 2023, GigaDevice Semiconductor Inc.
  10:C:/Users/stapi/OneDrive/Desktop/GD32VW553/V1_MQTT_OK/GD32VW55X_Wifi_BLE_SDK/GD32VW55x_RELEASE_V1.0.2/MSDK/util/src\slist.c **** 
  11:C:/Users/stapi/OneDrive/Desktop/GD32VW553/V1_MQTT_OK/GD32VW55X_Wifi_BLE_SDK/GD32VW55x_RELEASE_V1.0.2/MSDK/util/src\slist.c ****     Redistribution and use in source and binary forms, with or without modification,
  12:C:/Users/stapi/OneDrive/Desktop/GD32VW553/V1_MQTT_OK/GD32VW55X_Wifi_BLE_SDK/GD32VW55x_RELEASE_V1.0.2/MSDK/util/src\slist.c **** are permitted provided that the following conditions are met:
  13:C:/Users/stapi/OneDrive/Desktop/GD32VW553/V1_MQTT_OK/GD32VW55X_Wifi_BLE_SDK/GD32VW55x_RELEASE_V1.0.2/MSDK/util/src\slist.c **** 
  14:C:/Users/stapi/OneDrive/Desktop/GD32VW553/V1_MQTT_OK/GD32VW55X_Wifi_BLE_SDK/GD32VW55x_RELEASE_V1.0.2/MSDK/util/src\slist.c ****     1. Redistributions of source code must retain the above copyright notice, this
  15:C:/Users/stapi/OneDrive/Desktop/GD32VW553/V1_MQTT_OK/GD32VW55X_Wifi_BLE_SDK/GD32VW55x_RELEASE_V1.0.2/MSDK/util/src\slist.c ****        list of conditions and the following disclaimer.
  16:C:/Users/stapi/OneDrive/Desktop/GD32VW553/V1_MQTT_OK/GD32VW55X_Wifi_BLE_SDK/GD32VW55x_RELEASE_V1.0.2/MSDK/util/src\slist.c ****     2. Redistributions in binary form must reproduce the above copyright notice,
  17:C:/Users/stapi/OneDrive/Desktop/GD32VW553/V1_MQTT_OK/GD32VW55X_Wifi_BLE_SDK/GD32VW55x_RELEASE_V1.0.2/MSDK/util/src\slist.c ****        this list of conditions and the following disclaimer in the documentation
  18:C:/Users/stapi/OneDrive/Desktop/GD32VW553/V1_MQTT_OK/GD32VW55X_Wifi_BLE_SDK/GD32VW55x_RELEASE_V1.0.2/MSDK/util/src\slist.c ****        and/or other materials provided with the distribution.
  19:C:/Users/stapi/OneDrive/Desktop/GD32VW553/V1_MQTT_OK/GD32VW55X_Wifi_BLE_SDK/GD32VW55x_RELEASE_V1.0.2/MSDK/util/src\slist.c ****     3. Neither the name of the copyright holder nor the names of its contributors
  20:C:/Users/stapi/OneDrive/Desktop/GD32VW553/V1_MQTT_OK/GD32VW55X_Wifi_BLE_SDK/GD32VW55x_RELEASE_V1.0.2/MSDK/util/src\slist.c ****        may be used to endorse or promote products derived from this software without
  21:C:/Users/stapi/OneDrive/Desktop/GD32VW553/V1_MQTT_OK/GD32VW55X_Wifi_BLE_SDK/GD32VW55x_RELEASE_V1.0.2/MSDK/util/src\slist.c ****        specific prior written permission.
  22:C:/Users/stapi/OneDrive/Desktop/GD32VW553/V1_MQTT_OK/GD32VW55X_Wifi_BLE_SDK/GD32VW55x_RELEASE_V1.0.2/MSDK/util/src\slist.c **** 
  23:C:/Users/stapi/OneDrive/Desktop/GD32VW553/V1_MQTT_OK/GD32VW55X_Wifi_BLE_SDK/GD32VW55x_RELEASE_V1.0.2/MSDK/util/src\slist.c ****     THIS SOFTWARE IS PROVIDED BY THE COPYRIGHT HOLDERS AND CONTRIBUTORS "AS IS"
  24:C:/Users/stapi/OneDrive/Desktop/GD32VW553/V1_MQTT_OK/GD32VW55X_Wifi_BLE_SDK/GD32VW55x_RELEASE_V1.0.2/MSDK/util/src\slist.c **** AND ANY EXPRESS OR IMPLIED WARRANTIES, INCLUDING, BUT NOT LIMITED TO, THE IMPLIED
  25:C:/Users/stapi/OneDrive/Desktop/GD32VW553/V1_MQTT_OK/GD32VW55X_Wifi_BLE_SDK/GD32VW55x_RELEASE_V1.0.2/MSDK/util/src\slist.c **** WARRANTIES OF MERCHANTABILITY AND FITNESS FOR A PARTICULAR PURPOSE ARE DISCLAIMED.
  26:C:/Users/stapi/OneDrive/Desktop/GD32VW553/V1_MQTT_OK/GD32VW55X_Wifi_BLE_SDK/GD32VW55x_RELEASE_V1.0.2/MSDK/util/src\slist.c **** IN NO EVENT SHALL THE COPYRIGHT HOLDER OR CONTRIBUTORS BE LIABLE FOR ANY DIRECT,
  27:C:/Users/stapi/OneDrive/Desktop/GD32VW553/V1_MQTT_OK/GD32VW55X_Wifi_BLE_SDK/GD32VW55x_RELEASE_V1.0.2/MSDK/util/src\slist.c **** INDIRECT, INCIDENTAL, SPECIAL, EXEMPLARY, OR CONSEQUENTIAL DAMAGES (INCLUDING, BUT
  28:C:/Users/stapi/OneDrive/Desktop/GD32VW553/V1_MQTT_OK/GD32VW55X_Wifi_BLE_SDK/GD32VW55x_RELEASE_V1.0.2/MSDK/util/src\slist.c **** NOT LIMITED TO, PROCUREMENT OF SUBSTITUTE GOODS OR SERVICES; LOSS OF USE, DATA, OR
  29:C:/Users/stapi/OneDrive/Desktop/GD32VW553/V1_MQTT_OK/GD32VW55X_Wifi_BLE_SDK/GD32VW55x_RELEASE_V1.0.2/MSDK/util/src\slist.c **** PROFITS; OR BUSINESS INTERRUPTION) HOWEVER CAUSED AND ON ANY THEORY OF LIABILITY,
  30:C:/Users/stapi/OneDrive/Desktop/GD32VW553/V1_MQTT_OK/GD32VW55X_Wifi_BLE_SDK/GD32VW55x_RELEASE_V1.0.2/MSDK/util/src\slist.c **** WHETHER IN CONTRACT, STRICT LIABILITY, OR TORT (INCLUDING NEGLIGENCE OR OTHERWISE)
  31:C:/Users/stapi/OneDrive/Desktop/GD32VW553/V1_MQTT_OK/GD32VW55X_Wifi_BLE_SDK/GD32VW55x_RELEASE_V1.0.2/MSDK/util/src\slist.c **** ARISING IN ANY WAY OUT OF THE USE OF THIS SOFTWARE, EVEN IF ADVISED OF THE POSSIBILITY
  32:C:/Users/stapi/OneDrive/Desktop/GD32VW553/V1_MQTT_OK/GD32VW55X_Wifi_BLE_SDK/GD32VW55x_RELEASE_V1.0.2/MSDK/util/src\slist.c **** OF SUCH DAMAGE.
  33:C:/Users/stapi/OneDrive/Desktop/GD32VW553/V1_MQTT_OK/GD32VW55X_Wifi_BLE_SDK/GD32VW55x_RELEASE_V1.0.2/MSDK/util/src\slist.c **** */
  34:C:/Users/stapi/OneDrive/Desktop/GD32VW553/V1_MQTT_OK/GD32VW55X_Wifi_BLE_SDK/GD32VW55x_RELEASE_V1.0.2/MSDK/util/src\slist.c **** 
  35:C:/Users/stapi/OneDrive/Desktop/GD32VW553/V1_MQTT_OK/GD32VW55X_Wifi_BLE_SDK/GD32VW55x_RELEASE_V1.0.2/MSDK/util/src\slist.c **** /*
  36:C:/Users/stapi/OneDrive/Desktop/GD32VW553/V1_MQTT_OK/GD32VW55X_Wifi_BLE_SDK/GD32VW55x_RELEASE_V1.0.2/MSDK/util/src\slist.c ****  * INCLUDE FILES
  37:C:/Users/stapi/OneDrive/Desktop/GD32VW553/V1_MQTT_OK/GD32VW55X_Wifi_BLE_SDK/GD32VW55x_RELEASE_V1.0.2/MSDK/util/src\slist.c ****  ****************************************************************************************
  38:C:/Users/stapi/OneDrive/Desktop/GD32VW553/V1_MQTT_OK/GD32VW55X_Wifi_BLE_SDK/GD32VW55x_RELEASE_V1.0.2/MSDK/util/src\slist.c ****  */
  39:C:/Users/stapi/OneDrive/Desktop/GD32VW553/V1_MQTT_OK/GD32VW55X_Wifi_BLE_SDK/GD32VW55x_RELEASE_V1.0.2/MSDK/util/src\slist.c **** 
  40:C:/Users/stapi/OneDrive/Desktop/GD32VW553/V1_MQTT_OK/GD32VW55X_Wifi_BLE_SDK/GD32VW55x_RELEASE_V1.0.2/MSDK/util/src\slist.c **** #include <string.h>
  41:C:/Users/stapi/OneDrive/Desktop/GD32VW553/V1_MQTT_OK/GD32VW55X_Wifi_BLE_SDK/GD32VW55x_RELEASE_V1.0.2/MSDK/util/src\slist.c **** 
  42:C:/Users/stapi/OneDrive/Desktop/GD32VW553/V1_MQTT_OK/GD32VW55X_Wifi_BLE_SDK/GD32VW55x_RELEASE_V1.0.2/MSDK/util/src\slist.c **** #include "slist.h"
  43:C:/Users/stapi/OneDrive/Desktop/GD32VW553/V1_MQTT_OK/GD32VW55X_Wifi_BLE_SDK/GD32VW55x_RELEASE_V1.0.2/MSDK/util/src\slist.c **** #include "wrapper_os.h"
  44:C:/Users/stapi/OneDrive/Desktop/GD32VW553/V1_MQTT_OK/GD32VW55X_Wifi_BLE_SDK/GD32VW55x_RELEASE_V1.0.2/MSDK/util/src\slist.c **** 
  45:C:/Users/stapi/OneDrive/Desktop/GD32VW553/V1_MQTT_OK/GD32VW55X_Wifi_BLE_SDK/GD32VW55x_RELEASE_V1.0.2/MSDK/util/src\slist.c **** void list_init(struct list *list)
  46:C:/Users/stapi/OneDrive/Desktop/GD32VW553/V1_MQTT_OK/GD32VW55X_Wifi_BLE_SDK/GD32VW55x_RELEASE_V1.0.2/MSDK/util/src\slist.c **** {
  16              		.loc 1 46 1
  17              		.cfi_startproc
  18              	.LVL0:
  47:C:/Users/stapi/OneDrive/Desktop/GD32VW553/V1_MQTT_OK/GD32VW55X_Wifi_BLE_SDK/GD32VW55x_RELEASE_V1.0.2/MSDK/util/src\slist.c ****     list->first = NULL;
  19              		.loc 1 47 5
  20              		.loc 1 47 17 is_stmt 0
  21 0000 23200500 		sw	zero,0(a0)
  48:C:/Users/stapi/OneDrive/Desktop/GD32VW553/V1_MQTT_OK/GD32VW55X_Wifi_BLE_SDK/GD32VW55x_RELEASE_V1.0.2/MSDK/util/src\slist.c ****     list->last = NULL;
  22              		.loc 1 48 5 is_stmt 1
  23              		.loc 1 48 16 is_stmt 0
  24 0004 23220500 		sw	zero,4(a0)
  49:C:/Users/stapi/OneDrive/Desktop/GD32VW553/V1_MQTT_OK/GD32VW55X_Wifi_BLE_SDK/GD32VW55x_RELEASE_V1.0.2/MSDK/util/src\slist.c **** }
  25              		.loc 1 49 1
  26 0008 8280     		ret
  27              		.cfi_endproc
  28              	.LFE5:
  30              		.section	.text.list_push_back,"ax",@progbits
  31              		.align	1
  32              		.globl	list_push_back
  34              	list_push_back:
  35              	.LFB7:
  50:C:/Users/stapi/OneDrive/Desktop/GD32VW553/V1_MQTT_OK/GD32VW55X_Wifi_BLE_SDK/GD32VW55x_RELEASE_V1.0.2/MSDK/util/src\slist.c **** 
  51:C:/Users/stapi/OneDrive/Desktop/GD32VW553/V1_MQTT_OK/GD32VW55X_Wifi_BLE_SDK/GD32VW55x_RELEASE_V1.0.2/MSDK/util/src\slist.c **** void list_pool_init(struct list *list, void *pool, size_t elmt_size, uint32_t elmt_cnt, void *defau
  52:C:/Users/stapi/OneDrive/Desktop/GD32VW553/V1_MQTT_OK/GD32VW55X_Wifi_BLE_SDK/GD32VW55x_RELEASE_V1.0.2/MSDK/util/src\slist.c **** {
  53:C:/Users/stapi/OneDrive/Desktop/GD32VW553/V1_MQTT_OK/GD32VW55X_Wifi_BLE_SDK/GD32VW55x_RELEASE_V1.0.2/MSDK/util/src\slist.c ****     uint32_t i;
  54:C:/Users/stapi/OneDrive/Desktop/GD32VW553/V1_MQTT_OK/GD32VW55X_Wifi_BLE_SDK/GD32VW55x_RELEASE_V1.0.2/MSDK/util/src\slist.c **** 
  55:C:/Users/stapi/OneDrive/Desktop/GD32VW553/V1_MQTT_OK/GD32VW55X_Wifi_BLE_SDK/GD32VW55x_RELEASE_V1.0.2/MSDK/util/src\slist.c ****     // initialize the free list relative to the pool
  56:C:/Users/stapi/OneDrive/Desktop/GD32VW553/V1_MQTT_OK/GD32VW55X_Wifi_BLE_SDK/GD32VW55x_RELEASE_V1.0.2/MSDK/util/src\slist.c ****     list_init(list);
  57:C:/Users/stapi/OneDrive/Desktop/GD32VW553/V1_MQTT_OK/GD32VW55X_Wifi_BLE_SDK/GD32VW55x_RELEASE_V1.0.2/MSDK/util/src\slist.c **** 
  58:C:/Users/stapi/OneDrive/Desktop/GD32VW553/V1_MQTT_OK/GD32VW55X_Wifi_BLE_SDK/GD32VW55x_RELEASE_V1.0.2/MSDK/util/src\slist.c ****     // Add each element of the pool to this list, and init them one by one
  59:C:/Users/stapi/OneDrive/Desktop/GD32VW553/V1_MQTT_OK/GD32VW55X_Wifi_BLE_SDK/GD32VW55x_RELEASE_V1.0.2/MSDK/util/src\slist.c ****     for (i = 0; i < elmt_cnt; i++) {
  60:C:/Users/stapi/OneDrive/Desktop/GD32VW553/V1_MQTT_OK/GD32VW55X_Wifi_BLE_SDK/GD32VW55x_RELEASE_V1.0.2/MSDK/util/src\slist.c ****         if (default_value) {
  61:C:/Users/stapi/OneDrive/Desktop/GD32VW553/V1_MQTT_OK/GD32VW55X_Wifi_BLE_SDK/GD32VW55x_RELEASE_V1.0.2/MSDK/util/src\slist.c ****             sys_memcpy(pool, default_value, elmt_size);
  62:C:/Users/stapi/OneDrive/Desktop/GD32VW553/V1_MQTT_OK/GD32VW55X_Wifi_BLE_SDK/GD32VW55x_RELEASE_V1.0.2/MSDK/util/src\slist.c ****         }
  63:C:/Users/stapi/OneDrive/Desktop/GD32VW553/V1_MQTT_OK/GD32VW55X_Wifi_BLE_SDK/GD32VW55x_RELEASE_V1.0.2/MSDK/util/src\slist.c **** 
  64:C:/Users/stapi/OneDrive/Desktop/GD32VW553/V1_MQTT_OK/GD32VW55X_Wifi_BLE_SDK/GD32VW55x_RELEASE_V1.0.2/MSDK/util/src\slist.c ****         list_push_back(list, (struct list_hdr *)pool);
  65:C:/Users/stapi/OneDrive/Desktop/GD32VW553/V1_MQTT_OK/GD32VW55X_Wifi_BLE_SDK/GD32VW55x_RELEASE_V1.0.2/MSDK/util/src\slist.c **** 
  66:C:/Users/stapi/OneDrive/Desktop/GD32VW553/V1_MQTT_OK/GD32VW55X_Wifi_BLE_SDK/GD32VW55x_RELEASE_V1.0.2/MSDK/util/src\slist.c ****         // move to the next pool element
  67:C:/Users/stapi/OneDrive/Desktop/GD32VW553/V1_MQTT_OK/GD32VW55X_Wifi_BLE_SDK/GD32VW55x_RELEASE_V1.0.2/MSDK/util/src\slist.c ****         pool = (void *)((uint8_t *)pool + (uint32_t)elmt_size);
  68:C:/Users/stapi/OneDrive/Desktop/GD32VW553/V1_MQTT_OK/GD32VW55X_Wifi_BLE_SDK/GD32VW55x_RELEASE_V1.0.2/MSDK/util/src\slist.c ****     }
  69:C:/Users/stapi/OneDrive/Desktop/GD32VW553/V1_MQTT_OK/GD32VW55X_Wifi_BLE_SDK/GD32VW55x_RELEASE_V1.0.2/MSDK/util/src\slist.c **** }
  70:C:/Users/stapi/OneDrive/Desktop/GD32VW553/V1_MQTT_OK/GD32VW55X_Wifi_BLE_SDK/GD32VW55x_RELEASE_V1.0.2/MSDK/util/src\slist.c **** 
  71:C:/Users/stapi/OneDrive/Desktop/GD32VW553/V1_MQTT_OK/GD32VW55X_Wifi_BLE_SDK/GD32VW55x_RELEASE_V1.0.2/MSDK/util/src\slist.c **** void list_push_back(struct list *list, struct list_hdr *list_hdr)
  72:C:/Users/stapi/OneDrive/Desktop/GD32VW553/V1_MQTT_OK/GD32VW55X_Wifi_BLE_SDK/GD32VW55x_RELEASE_V1.0.2/MSDK/util/src\slist.c **** {
  36              		.loc 1 72 1 is_stmt 1
  37              		.cfi_startproc
  38              	.LVL1:
  73:C:/Users/stapi/OneDrive/Desktop/GD32VW553/V1_MQTT_OK/GD32VW55X_Wifi_BLE_SDK/GD32VW55x_RELEASE_V1.0.2/MSDK/util/src\slist.c ****     // check if list is empty
  74:C:/Users/stapi/OneDrive/Desktop/GD32VW553/V1_MQTT_OK/GD32VW55X_Wifi_BLE_SDK/GD32VW55x_RELEASE_V1.0.2/MSDK/util/src\slist.c ****     if (list_is_empty(list)) {
  39              		.loc 1 74 5
  40              	.LBB12:
  41              	.LBB13:
  42              		.file 2 "..\\..\\..\\..\\util\\include/slist.h"
   1:..\..\..\..\util\include/slist.h **** /*!
   2:..\..\..\..\util\include/slist.h ****     \file    slist.h
   3:..\..\..\..\util\include/slist.h ****     \brief   Single linked list structures definitions
   4:..\..\..\..\util\include/slist.h **** 
   5:..\..\..\..\util\include/slist.h ****     \version 2023-07-20, V1.0.0, firmware for GD32VW55x
   6:..\..\..\..\util\include/slist.h **** */
   7:..\..\..\..\util\include/slist.h **** 
   8:..\..\..\..\util\include/slist.h **** /*
   9:..\..\..\..\util\include/slist.h ****     Copyright (c) 2023, GigaDevice Semiconductor Inc.
  10:..\..\..\..\util\include/slist.h **** 
  11:..\..\..\..\util\include/slist.h ****     Redistribution and use in source and binary forms, with or without modification,
  12:..\..\..\..\util\include/slist.h **** are permitted provided that the following conditions are met:
  13:..\..\..\..\util\include/slist.h **** 
  14:..\..\..\..\util\include/slist.h ****     1. Redistributions of source code must retain the above copyright notice, this
  15:..\..\..\..\util\include/slist.h ****        list of conditions and the following disclaimer.
  16:..\..\..\..\util\include/slist.h ****     2. Redistributions in binary form must reproduce the above copyright notice,
  17:..\..\..\..\util\include/slist.h ****        this list of conditions and the following disclaimer in the documentation
  18:..\..\..\..\util\include/slist.h ****        and/or other materials provided with the distribution.
  19:..\..\..\..\util\include/slist.h ****     3. Neither the name of the copyright holder nor the names of its contributors
  20:..\..\..\..\util\include/slist.h ****        may be used to endorse or promote products derived from this software without
  21:..\..\..\..\util\include/slist.h ****        specific prior written permission.
  22:..\..\..\..\util\include/slist.h **** 
  23:..\..\..\..\util\include/slist.h ****     THIS SOFTWARE IS PROVIDED BY THE COPYRIGHT HOLDERS AND CONTRIBUTORS "AS IS"
  24:..\..\..\..\util\include/slist.h **** AND ANY EXPRESS OR IMPLIED WARRANTIES, INCLUDING, BUT NOT LIMITED TO, THE IMPLIED
  25:..\..\..\..\util\include/slist.h **** WARRANTIES OF MERCHANTABILITY AND FITNESS FOR A PARTICULAR PURPOSE ARE DISCLAIMED.
  26:..\..\..\..\util\include/slist.h **** IN NO EVENT SHALL THE COPYRIGHT HOLDER OR CONTRIBUTORS BE LIABLE FOR ANY DIRECT,
  27:..\..\..\..\util\include/slist.h **** INDIRECT, INCIDENTAL, SPECIAL, EXEMPLARY, OR CONSEQUENTIAL DAMAGES (INCLUDING, BUT
  28:..\..\..\..\util\include/slist.h **** NOT LIMITED TO, PROCUREMENT OF SUBSTITUTE GOODS OR SERVICES; LOSS OF USE, DATA, OR
  29:..\..\..\..\util\include/slist.h **** PROFITS; OR BUSINESS INTERRUPTION) HOWEVER CAUSED AND ON ANY THEORY OF LIABILITY,
  30:..\..\..\..\util\include/slist.h **** WHETHER IN CONTRACT, STRICT LIABILITY, OR TORT (INCLUDING NEGLIGENCE OR OTHERWISE)
  31:..\..\..\..\util\include/slist.h **** ARISING IN ANY WAY OUT OF THE USE OF THIS SOFTWARE, EVEN IF ADVISED OF THE POSSIBILITY
  32:..\..\..\..\util\include/slist.h **** OF SUCH DAMAGE.
  33:..\..\..\..\util\include/slist.h **** */
  34:..\..\..\..\util\include/slist.h **** 
  35:..\..\..\..\util\include/slist.h **** #ifndef _LIST_H_
  36:..\..\..\..\util\include/slist.h **** #define _LIST_H_
  37:..\..\..\..\util\include/slist.h **** /*
  38:..\..\..\..\util\include/slist.h ****  * INCLUDE FILES
  39:..\..\..\..\util\include/slist.h ****  ****************************************************************************************
  40:..\..\..\..\util\include/slist.h ****  */
  41:..\..\..\..\util\include/slist.h **** #include <stdint.h>
  42:..\..\..\..\util\include/slist.h **** #include <stdbool.h>
  43:..\..\..\..\util\include/slist.h **** #include <stddef.h>     // for NULL and size_t
  44:..\..\..\..\util\include/slist.h **** #include "compiler.h"   // for __INLINE
  45:..\..\..\..\util\include/slist.h **** 
  46:..\..\..\..\util\include/slist.h **** /*
  47:..\..\..\..\util\include/slist.h ****  * STRUCTURE DECLARATIONS
  48:..\..\..\..\util\include/slist.h ****  ****************************************************************************************
  49:..\..\..\..\util\include/slist.h ****  */
  50:..\..\..\..\util\include/slist.h **** // structure of a list element header
  51:..\..\..\..\util\include/slist.h **** struct list_hdr
  52:..\..\..\..\util\include/slist.h **** {
  53:..\..\..\..\util\include/slist.h ****     // Pointer to the next element in the list
  54:..\..\..\..\util\include/slist.h ****     struct list_hdr *next;
  55:..\..\..\..\util\include/slist.h **** };
  56:..\..\..\..\util\include/slist.h **** 
  57:..\..\..\..\util\include/slist.h **** // structure of a list
  58:..\..\..\..\util\include/slist.h **** struct list
  59:..\..\..\..\util\include/slist.h **** {
  60:..\..\..\..\util\include/slist.h ****     // pointer to first element of the list
  61:..\..\..\..\util\include/slist.h ****     struct list_hdr *first;
  62:..\..\..\..\util\include/slist.h ****     // pointer to the last element
  63:..\..\..\..\util\include/slist.h ****     struct list_hdr *last;
  64:..\..\..\..\util\include/slist.h **** };
  65:..\..\..\..\util\include/slist.h **** 
  66:..\..\..\..\util\include/slist.h **** /*
  67:..\..\..\..\util\include/slist.h ****  * FUNCTION DECLARATIONS
  68:..\..\..\..\util\include/slist.h ****  ****************************************************************************************
  69:..\..\..\..\util\include/slist.h ****  */
  70:..\..\..\..\util\include/slist.h **** /**
  71:..\..\..\..\util\include/slist.h ****  ****************************************************************************************
  72:..\..\..\..\util\include/slist.h ****  * @brief Initialize a list to defaults values.
  73:..\..\..\..\util\include/slist.h ****  * @param[in] list           Pointer to the list structure.
  74:..\..\..\..\util\include/slist.h ****  ****************************************************************************************
  75:..\..\..\..\util\include/slist.h ****  */
  76:..\..\..\..\util\include/slist.h **** void list_init(struct list *list);
  77:..\..\..\..\util\include/slist.h **** 
  78:..\..\..\..\util\include/slist.h **** /**
  79:..\..\..\..\util\include/slist.h ****  ****************************************************************************************
  80:..\..\..\..\util\include/slist.h ****  * @brief Initialize a pool to default values, and initialize the relative free list.
  81:..\..\..\..\util\include/slist.h ****  *
  82:..\..\..\..\util\include/slist.h ****  * @param[in] list           Pointer to the list structure
  83:..\..\..\..\util\include/slist.h ****  * @param[in] pool           Pointer to the pool to be initialized
  84:..\..\..\..\util\include/slist.h ****  * @param[in] elmt_size      Size of one element of the pool
  85:..\..\..\..\util\include/slist.h ****  * @param[in] elmt_cnt       Nb of elements available in the pool
  86:..\..\..\..\util\include/slist.h ****  * @param[in] default_value  Pointer to the default value of each element (may be NULL)
  87:..\..\..\..\util\include/slist.h ****  ****************************************************************************************
  88:..\..\..\..\util\include/slist.h ****  */
  89:..\..\..\..\util\include/slist.h **** void list_pool_init(struct list *list, void *pool, size_t elmt_size, uint32_t elmt_cnt, void *defau
  90:..\..\..\..\util\include/slist.h **** 
  91:..\..\..\..\util\include/slist.h **** /**
  92:..\..\..\..\util\include/slist.h ****  ****************************************************************************************
  93:..\..\..\..\util\include/slist.h ****  * @brief Add an element as last on the list.
  94:..\..\..\..\util\include/slist.h ****  *
  95:..\..\..\..\util\include/slist.h ****  * @param[in] list           Pointer to the list structure
  96:..\..\..\..\util\include/slist.h ****  * @param[in] list_hdr       Pointer to the header to add at the end of the list
  97:..\..\..\..\util\include/slist.h ****  ****************************************************************************************
  98:..\..\..\..\util\include/slist.h ****  */
  99:..\..\..\..\util\include/slist.h **** void list_push_back(struct list *list, struct list_hdr *list_hdr);
 100:..\..\..\..\util\include/slist.h **** 
 101:..\..\..\..\util\include/slist.h **** /**
 102:..\..\..\..\util\include/slist.h ****  ****************************************************************************************
 103:..\..\..\..\util\include/slist.h ****  * @brief Add an element as first on the list.
 104:..\..\..\..\util\include/slist.h ****  *
 105:..\..\..\..\util\include/slist.h ****  * @param[in] list           Pointer to the list structure
 106:..\..\..\..\util\include/slist.h ****  * @param[in] list_hdr       Pointer to the header to add at the beginning of the list
 107:..\..\..\..\util\include/slist.h ****  ****************************************************************************************
 108:..\..\..\..\util\include/slist.h ****  */
 109:..\..\..\..\util\include/slist.h **** void list_push_front(struct list *list, struct list_hdr *list_hdr);
 110:..\..\..\..\util\include/slist.h **** 
 111:..\..\..\..\util\include/slist.h **** /**
 112:..\..\..\..\util\include/slist.h ****  ****************************************************************************************
 113:..\..\..\..\util\include/slist.h ****  * @brief Extract the first element of the list.
 114:..\..\..\..\util\include/slist.h ****  *
 115:..\..\..\..\util\include/slist.h ****  * @param[in] list           Pointer to the list structure
 116:..\..\..\..\util\include/slist.h ****  *
 117:..\..\..\..\util\include/slist.h ****  * @return The pointer to the element extracted, and NULL if the list is empty.
 118:..\..\..\..\util\include/slist.h ****  ****************************************************************************************
 119:..\..\..\..\util\include/slist.h ****  */
 120:..\..\..\..\util\include/slist.h **** struct list_hdr *list_pop_front(struct list *list);
 121:..\..\..\..\util\include/slist.h **** 
 122:..\..\..\..\util\include/slist.h **** /**
 123:..\..\..\..\util\include/slist.h ****  ****************************************************************************************
 124:..\..\..\..\util\include/slist.h ****  * @brief Search for a given element in the list, and extract it if found.
 125:..\..\..\..\util\include/slist.h ****  *
 126:..\..\..\..\util\include/slist.h ****  * @param[in] list           Pointer to the list structure
 127:..\..\..\..\util\include/slist.h ****  * @param[in] list_hdr       Pointer to the searched element
 128:..\..\..\..\util\include/slist.h ****  ****************************************************************************************
 129:..\..\..\..\util\include/slist.h ****  */
 130:..\..\..\..\util\include/slist.h **** void list_extract(struct list *list, struct list_hdr *list_hdr);
 131:..\..\..\..\util\include/slist.h **** 
 132:..\..\..\..\util\include/slist.h **** /**
 133:..\..\..\..\util\include/slist.h ****  ****************************************************************************************
 134:..\..\..\..\util\include/slist.h ****  * @brief Searched a given element in the list.
 135:..\..\..\..\util\include/slist.h ****  *
 136:..\..\..\..\util\include/slist.h ****  * @param[in] list           Pointer to the list structure
 137:..\..\..\..\util\include/slist.h ****  * @param[in] list_hdr       Pointer to the searched element
 138:..\..\..\..\util\include/slist.h ****  *
 139:..\..\..\..\util\include/slist.h ****  * @return true if the element is found in the list, false otherwise
 140:..\..\..\..\util\include/slist.h ****  ****************************************************************************************
 141:..\..\..\..\util\include/slist.h ****  */
 142:..\..\..\..\util\include/slist.h **** bool list_find(struct list *list, struct list_hdr *list_hdr);
 143:..\..\..\..\util\include/slist.h **** 
 144:..\..\..\..\util\include/slist.h **** /**
 145:..\..\..\..\util\include/slist.h ****  ****************************************************************************************
 146:..\..\..\..\util\include/slist.h ****  * @brief Insert an element in a sorted list.
 147:..\..\..\..\util\include/slist.h ****  *
 148:..\..\..\..\util\include/slist.h ****  * This primitive use a comparison function from the parameter list to select where the
 149:..\..\..\..\util\include/slist.h ****  * element must be inserted.
 150:..\..\..\..\util\include/slist.h ****  *
 151:..\..\..\..\util\include/slist.h ****  * @param[in]  list     Pointer to the list.
 152:..\..\..\..\util\include/slist.h ****  * @param[in]  element  Pointer to the element to insert.
 153:..\..\..\..\util\include/slist.h ****  * @param[in]  cmp      Comparison function (return true if first element has to be
 154:..\..\..\..\util\include/slist.h ****  *                      inserted before the second one).
 155:..\..\..\..\util\include/slist.h ****  ****************************************************************************************
 156:..\..\..\..\util\include/slist.h ****  */
 157:..\..\..\..\util\include/slist.h **** void list_insert(struct list * const list, struct list_hdr * const element,
 158:..\..\..\..\util\include/slist.h ****                     bool (*cmp)(struct list_hdr const *elementA, struct list_hdr const *elementB));
 159:..\..\..\..\util\include/slist.h **** 
 160:..\..\..\..\util\include/slist.h **** /**
 161:..\..\..\..\util\include/slist.h ****  ****************************************************************************************
 162:..\..\..\..\util\include/slist.h ****  * @brief Insert an element in a list after the provided element.
 163:..\..\..\..\util\include/slist.h ****  *
 164:..\..\..\..\util\include/slist.h ****  * If @p prev_element is NULL then @p element is added in the front of the list.
 165:..\..\..\..\util\include/slist.h ****  * Otherwise this primitive first ensure that @p prev_element is part of the list before
 166:..\..\..\..\util\include/slist.h ****  * adding @p element, and does nothing if this is not the case.
 167:..\..\..\..\util\include/slist.h ****  *
 168:..\..\..\..\util\include/slist.h ****  * @param[in]  list           Pointer to the list.
 169:..\..\..\..\util\include/slist.h ****  * @param[in]  prev_element   Pointer to the element to find in the list
 170:..\..\..\..\util\include/slist.h ****  * @param[in]  element        Pointer to the element to insert.
 171:..\..\..\..\util\include/slist.h ****  *
 172:..\..\..\..\util\include/slist.h ****  ****************************************************************************************
 173:..\..\..\..\util\include/slist.h ****  */
 174:..\..\..\..\util\include/slist.h **** void list_insert_after(struct list * const list,
 175:..\..\..\..\util\include/slist.h ****                           struct list_hdr * const prev_element,
 176:..\..\..\..\util\include/slist.h ****                           struct list_hdr * const element);
 177:..\..\..\..\util\include/slist.h **** 
 178:..\..\..\..\util\include/slist.h **** /**
 179:..\..\..\..\util\include/slist.h ****  ****************************************************************************************
 180:..\..\..\..\util\include/slist.h ****  * @brief Insert an element in a list after the provided element.
 181:..\..\..\..\util\include/slist.h ****  *
 182:..\..\..\..\util\include/slist.h ****  * Same as @ref co_list_insert_after except that if @p prev_element is not NULL no check
 183:..\..\..\..\util\include/slist.h ****  * is done to ensure it is part of the list.
 184:..\..\..\..\util\include/slist.h ****  *
 185:..\..\..\..\util\include/slist.h ****  * @param[in]  list           Pointer to the list.
 186:..\..\..\..\util\include/slist.h ****  * @param[in]  prev_element   Pointer to the element after which the new element must
 187:..\..\..\..\util\include/slist.h ****  *                            be added
 188:..\..\..\..\util\include/slist.h ****  * @param[in]  element        Pointer to the element to insert.
 189:..\..\..\..\util\include/slist.h ****  *
 190:..\..\..\..\util\include/slist.h ****  ****************************************************************************************
 191:..\..\..\..\util\include/slist.h ****  */
 192:..\..\..\..\util\include/slist.h **** void list_insert_after_fast(struct list * const list,
 193:..\..\..\..\util\include/slist.h ****                                struct list_hdr * const prev_element,
 194:..\..\..\..\util\include/slist.h ****                                struct list_hdr * const element);
 195:..\..\..\..\util\include/slist.h **** 
 196:..\..\..\..\util\include/slist.h **** /**
 197:..\..\..\..\util\include/slist.h ****  ****************************************************************************************
 198:..\..\..\..\util\include/slist.h ****  * @brief Insert an element in a sorted list before the provided element.
 199:..\..\..\..\util\include/slist.h ****  *
 200:..\..\..\..\util\include/slist.h ****  * This primitive use a comparison function from the parameter list to select where the
 201:..\..\..\..\util\include/slist.h ****  * element must be inserted.
 202:..\..\..\..\util\include/slist.h ****  *
 203:..\..\..\..\util\include/slist.h ****  * @param[in]  list           Pointer to the list.
 204:..\..\..\..\util\include/slist.h ****  * @param[in]  next_element   Pointer to the element to find in the list
 205:..\..\..\..\util\include/slist.h ****  * @param[in]  element        Pointer to the element to insert.
 206:..\..\..\..\util\include/slist.h ****  *
 207:..\..\..\..\util\include/slist.h ****  * If next_element is not found, the provided element is not inserted
 208:..\..\..\..\util\include/slist.h ****  ****************************************************************************************
 209:..\..\..\..\util\include/slist.h ****  */
 210:..\..\..\..\util\include/slist.h **** void list_insert_before(struct list * const list,
 211:..\..\..\..\util\include/slist.h ****                            struct list_hdr * const next_element,
 212:..\..\..\..\util\include/slist.h ****                            struct list_hdr * const element);
 213:..\..\..\..\util\include/slist.h **** 
 214:..\..\..\..\util\include/slist.h **** /**
 215:..\..\..\..\util\include/slist.h ****  ****************************************************************************************
 216:..\..\..\..\util\include/slist.h ****  * @brief Concatenate two lists.
 217:..\..\..\..\util\include/slist.h ****  * The resulting list is the list passed as the first parameter. The second list is
 218:..\..\..\..\util\include/slist.h ****  * emptied.
 219:..\..\..\..\util\include/slist.h ****  *
 220:..\..\..\..\util\include/slist.h ****  * @param[in]  list1          First list (will get the result of the concatenation)
 221:..\..\..\..\util\include/slist.h ****  * @param[in]  list2          Second list (will be emptied after the concatenation)
 222:..\..\..\..\util\include/slist.h ****  ****************************************************************************************
 223:..\..\..\..\util\include/slist.h ****  */
 224:..\..\..\..\util\include/slist.h **** void list_concat(struct list *list1, struct list *list2);
 225:..\..\..\..\util\include/slist.h **** 
 226:..\..\..\..\util\include/slist.h **** /**
 227:..\..\..\..\util\include/slist.h ****  ****************************************************************************************
 228:..\..\..\..\util\include/slist.h ****  * @brief Remove the element in the list after the provided element.
 229:..\..\..\..\util\include/slist.h ****  *
 230:..\..\..\..\util\include/slist.h ****  * This primitive removes an element in the list. It is assume that element is part of
 231:..\..\..\..\util\include/slist.h ****  * the list.
 232:..\..\..\..\util\include/slist.h ****  *
 233:..\..\..\..\util\include/slist.h ****  * @param[in] list          Pointer to the list.
 234:..\..\..\..\util\include/slist.h ****  * @param[in] prev_element  Pointer to the previous element.
 235:..\..\..\..\util\include/slist.h ****  *                          NULL if @p element is the first element in the list
 236:..\..\..\..\util\include/slist.h ****  * @param[in] element       Pointer to the element to remove.
 237:..\..\..\..\util\include/slist.h ****  *
 238:..\..\..\..\util\include/slist.h ****  ****************************************************************************************
 239:..\..\..\..\util\include/slist.h ****  */
 240:..\..\..\..\util\include/slist.h **** void list_remove(struct list *list, struct list_hdr *prev_element, struct list_hdr *element);
 241:..\..\..\..\util\include/slist.h **** 
 242:..\..\..\..\util\include/slist.h **** /**
 243:..\..\..\..\util\include/slist.h ****  ****************************************************************************************
 244:..\..\..\..\util\include/slist.h ****  * @brief Test if the list is empty.
 245:..\..\..\..\util\include/slist.h ****  *
 246:..\..\..\..\util\include/slist.h ****  * @param[in] list           Pointer to the list structure.
 247:..\..\..\..\util\include/slist.h ****  *
 248:..\..\..\..\util\include/slist.h ****  * @return true if the list is empty, false else otherwise.
 249:..\..\..\..\util\include/slist.h ****  ****************************************************************************************
 250:..\..\..\..\util\include/slist.h ****  */
 251:..\..\..\..\util\include/slist.h **** __INLINE bool list_is_empty(const struct list *list)
 252:..\..\..\..\util\include/slist.h **** {
 253:..\..\..\..\util\include/slist.h ****     return (list->first == NULL);
  43              		.loc 2 253 5
  44              	.LBE13:
  45              	.LBE12:
  46              		.loc 1 74 8 is_stmt 0
  47 0000 1C41     		lw	a5,0(a0)
  48 0002 91E7     		bne	a5,zero,.L3
  75:C:/Users/stapi/OneDrive/Desktop/GD32VW553/V1_MQTT_OK/GD32VW55X_Wifi_BLE_SDK/GD32VW55x_RELEASE_V1.0.2/MSDK/util/src\slist.c ****         // list empty => pushed element is also head
  76:C:/Users/stapi/OneDrive/Desktop/GD32VW553/V1_MQTT_OK/GD32VW55X_Wifi_BLE_SDK/GD32VW55x_RELEASE_V1.0.2/MSDK/util/src\slist.c ****         list->first = list_hdr;
  49              		.loc 1 76 9 is_stmt 1
  50              		.loc 1 76 21 is_stmt 0
  51 0004 0CC1     		sw	a1,0(a0)
  52              	.L4:
  77:C:/Users/stapi/OneDrive/Desktop/GD32VW553/V1_MQTT_OK/GD32VW55X_Wifi_BLE_SDK/GD32VW55x_RELEASE_V1.0.2/MSDK/util/src\slist.c ****     } else {
  78:C:/Users/stapi/OneDrive/Desktop/GD32VW553/V1_MQTT_OK/GD32VW55X_Wifi_BLE_SDK/GD32VW55x_RELEASE_V1.0.2/MSDK/util/src\slist.c ****         // list not empty => update next of last
  79:C:/Users/stapi/OneDrive/Desktop/GD32VW553/V1_MQTT_OK/GD32VW55X_Wifi_BLE_SDK/GD32VW55x_RELEASE_V1.0.2/MSDK/util/src\slist.c ****         list->last->next = list_hdr;
  80:C:/Users/stapi/OneDrive/Desktop/GD32VW553/V1_MQTT_OK/GD32VW55X_Wifi_BLE_SDK/GD32VW55x_RELEASE_V1.0.2/MSDK/util/src\slist.c ****     }
  81:C:/Users/stapi/OneDrive/Desktop/GD32VW553/V1_MQTT_OK/GD32VW55X_Wifi_BLE_SDK/GD32VW55x_RELEASE_V1.0.2/MSDK/util/src\slist.c **** 
  82:C:/Users/stapi/OneDrive/Desktop/GD32VW553/V1_MQTT_OK/GD32VW55X_Wifi_BLE_SDK/GD32VW55x_RELEASE_V1.0.2/MSDK/util/src\slist.c ****     // add element at the end of the list
  83:C:/Users/stapi/OneDrive/Desktop/GD32VW553/V1_MQTT_OK/GD32VW55X_Wifi_BLE_SDK/GD32VW55x_RELEASE_V1.0.2/MSDK/util/src\slist.c ****     list->last = list_hdr;
  53              		.loc 1 83 5 is_stmt 1
  54              		.loc 1 83 16 is_stmt 0
  55 0006 4CC1     		sw	a1,4(a0)
  84:C:/Users/stapi/OneDrive/Desktop/GD32VW553/V1_MQTT_OK/GD32VW55X_Wifi_BLE_SDK/GD32VW55x_RELEASE_V1.0.2/MSDK/util/src\slist.c ****     list_hdr->next = NULL;
  56              		.loc 1 84 5 is_stmt 1
  57              		.loc 1 84 20 is_stmt 0
  58 0008 23A00500 		sw	zero,0(a1)
  85:C:/Users/stapi/OneDrive/Desktop/GD32VW553/V1_MQTT_OK/GD32VW55X_Wifi_BLE_SDK/GD32VW55x_RELEASE_V1.0.2/MSDK/util/src\slist.c **** }
  59              		.loc 1 85 1
  60 000c 8280     		ret
  61              	.L3:
  79:C:/Users/stapi/OneDrive/Desktop/GD32VW553/V1_MQTT_OK/GD32VW55X_Wifi_BLE_SDK/GD32VW55x_RELEASE_V1.0.2/MSDK/util/src\slist.c ****     }
  62              		.loc 1 79 9 is_stmt 1
  79:C:/Users/stapi/OneDrive/Desktop/GD32VW553/V1_MQTT_OK/GD32VW55X_Wifi_BLE_SDK/GD32VW55x_RELEASE_V1.0.2/MSDK/util/src\slist.c ****     }
  63              		.loc 1 79 26 is_stmt 0
  64 000e 5C41     		lw	a5,4(a0)
  65 0010 8CC3     		sw	a1,0(a5)
  66 0012 D5BF     		j	.L4
  67              		.cfi_endproc
  68              	.LFE7:
  70              		.section	.text.list_pool_init,"ax",@progbits
  71              		.align	1
  72              		.globl	list_pool_init
  74              	list_pool_init:
  75              	.LFB6:
  52:C:/Users/stapi/OneDrive/Desktop/GD32VW553/V1_MQTT_OK/GD32VW55X_Wifi_BLE_SDK/GD32VW55x_RELEASE_V1.0.2/MSDK/util/src\slist.c ****     uint32_t i;
  76              		.loc 1 52 1 is_stmt 1
  77              		.cfi_startproc
  78              	.LVL2:
  79 0000 17030000 		call	t0,__riscv_save_6
  79      E7020300 
  80              		.cfi_offset 21, -28
  81              		.cfi_offset 20, -24
  82              		.cfi_offset 19, -20
  83              		.cfi_offset 18, -16
  84              		.cfi_offset 9, -12
  85              		.cfi_offset 8, -8
  86              		.cfi_offset 1, -4
  87              		.cfi_def_cfa_offset 32
  53:C:/Users/stapi/OneDrive/Desktop/GD32VW553/V1_MQTT_OK/GD32VW55X_Wifi_BLE_SDK/GD32VW55x_RELEASE_V1.0.2/MSDK/util/src\slist.c **** 
  88              		.loc 1 53 5
  56:C:/Users/stapi/OneDrive/Desktop/GD32VW553/V1_MQTT_OK/GD32VW55X_Wifi_BLE_SDK/GD32VW55x_RELEASE_V1.0.2/MSDK/util/src\slist.c **** 
  89              		.loc 1 56 5
  90              	.LVL3:
  91              	.LBB14:
  92              	.LBB15:
  47:C:/Users/stapi/OneDrive/Desktop/GD32VW553/V1_MQTT_OK/GD32VW55X_Wifi_BLE_SDK/GD32VW55x_RELEASE_V1.0.2/MSDK/util/src\slist.c ****     list->last = NULL;
  93              		.loc 1 47 5
  94              	.LBE15:
  95              	.LBE14:
  52:C:/Users/stapi/OneDrive/Desktop/GD32VW553/V1_MQTT_OK/GD32VW55X_Wifi_BLE_SDK/GD32VW55x_RELEASE_V1.0.2/MSDK/util/src\slist.c ****     uint32_t i;
  96              		.loc 1 52 1 is_stmt 0
  97 0008 AA84     		mv	s1,a0
  98 000a 2E84     		mv	s0,a1
  99 000c 3289     		mv	s2,a2
 100 000e 368A     		mv	s4,a3
 101 0010 BA89     		mv	s3,a4
 102              	.LBB17:
 103              	.LBB16:
  47:C:/Users/stapi/OneDrive/Desktop/GD32VW553/V1_MQTT_OK/GD32VW55X_Wifi_BLE_SDK/GD32VW55x_RELEASE_V1.0.2/MSDK/util/src\slist.c ****     list->last = NULL;
 104              		.loc 1 47 17
 105 0012 23200500 		sw	zero,0(a0)
  48:C:/Users/stapi/OneDrive/Desktop/GD32VW553/V1_MQTT_OK/GD32VW55X_Wifi_BLE_SDK/GD32VW55x_RELEASE_V1.0.2/MSDK/util/src\slist.c **** }
 106              		.loc 1 48 5 is_stmt 1
  48:C:/Users/stapi/OneDrive/Desktop/GD32VW553/V1_MQTT_OK/GD32VW55X_Wifi_BLE_SDK/GD32VW55x_RELEASE_V1.0.2/MSDK/util/src\slist.c **** }
 107              		.loc 1 48 16 is_stmt 0
 108 0016 23220500 		sw	zero,4(a0)
 109              	.LVL4:
 110              	.LBE16:
 111              	.LBE17:
  59:C:/Users/stapi/OneDrive/Desktop/GD32VW553/V1_MQTT_OK/GD32VW55X_Wifi_BLE_SDK/GD32VW55x_RELEASE_V1.0.2/MSDK/util/src\slist.c ****         if (default_value) {
 112              		.loc 1 59 5 is_stmt 1
  59:C:/Users/stapi/OneDrive/Desktop/GD32VW553/V1_MQTT_OK/GD32VW55X_Wifi_BLE_SDK/GD32VW55x_RELEASE_V1.0.2/MSDK/util/src\slist.c ****         if (default_value) {
 113              		.loc 1 59 12 is_stmt 0
 114 001a 814A     		li	s5,0
 115              	.LVL5:
 116              	.L6:
  59:C:/Users/stapi/OneDrive/Desktop/GD32VW553/V1_MQTT_OK/GD32VW55X_Wifi_BLE_SDK/GD32VW55x_RELEASE_V1.0.2/MSDK/util/src\slist.c ****         if (default_value) {
 117              		.loc 1 59 17 is_stmt 1 discriminator 1
  59:C:/Users/stapi/OneDrive/Desktop/GD32VW553/V1_MQTT_OK/GD32VW55X_Wifi_BLE_SDK/GD32VW55x_RELEASE_V1.0.2/MSDK/util/src\slist.c ****         if (default_value) {
 118              		.loc 1 59 5 is_stmt 0 discriminator 1
 119 001c 63964A01 		bne	s5,s4,.L8
  69:C:/Users/stapi/OneDrive/Desktop/GD32VW553/V1_MQTT_OK/GD32VW55X_Wifi_BLE_SDK/GD32VW55x_RELEASE_V1.0.2/MSDK/util/src\slist.c **** 
 120              		.loc 1 69 1
 121 0020 17030000 		tail	__riscv_restore_6
 121      67000300 
 122              		.cfi_remember_state
 123              		.cfi_restore 21
 124              		.cfi_restore 20
 125              		.cfi_restore 19
 126              		.cfi_restore 18
 127              		.cfi_restore 9
 128              		.cfi_restore 8
 129              		.cfi_restore 1
 130              		.cfi_def_cfa_offset 0
 131              	.L8:
 132              		.cfi_restore_state
  60:C:/Users/stapi/OneDrive/Desktop/GD32VW553/V1_MQTT_OK/GD32VW55X_Wifi_BLE_SDK/GD32VW55x_RELEASE_V1.0.2/MSDK/util/src\slist.c ****             sys_memcpy(pool, default_value, elmt_size);
 133              		.loc 1 60 9 is_stmt 1
  60:C:/Users/stapi/OneDrive/Desktop/GD32VW553/V1_MQTT_OK/GD32VW55X_Wifi_BLE_SDK/GD32VW55x_RELEASE_V1.0.2/MSDK/util/src\slist.c ****             sys_memcpy(pool, default_value, elmt_size);
 134              		.loc 1 60 12 is_stmt 0
 135 0028 63890900 		beq	s3,zero,.L7
  61:C:/Users/stapi/OneDrive/Desktop/GD32VW553/V1_MQTT_OK/GD32VW55X_Wifi_BLE_SDK/GD32VW55x_RELEASE_V1.0.2/MSDK/util/src\slist.c ****         }
 136              		.loc 1 61 13 is_stmt 1
 137 002c 4A86     		mv	a2,s2
 138 002e CE85     		mv	a1,s3
 139 0030 2285     		mv	a0,s0
 140 0032 97000000 		call	sys_memcpy
 140      E7800000 
 141              	.LVL6:
 142              	.L7:
  64:C:/Users/stapi/OneDrive/Desktop/GD32VW553/V1_MQTT_OK/GD32VW55X_Wifi_BLE_SDK/GD32VW55x_RELEASE_V1.0.2/MSDK/util/src\slist.c **** 
 143              		.loc 1 64 9 discriminator 2
 144 003a A285     		mv	a1,s0
 145 003c 2685     		mv	a0,s1
 146 003e 97000000 		call	list_push_back
 146      E7800000 
 147              	.LVL7:
  67:C:/Users/stapi/OneDrive/Desktop/GD32VW553/V1_MQTT_OK/GD32VW55X_Wifi_BLE_SDK/GD32VW55x_RELEASE_V1.0.2/MSDK/util/src\slist.c ****     }
 148              		.loc 1 67 9 discriminator 2
  67:C:/Users/stapi/OneDrive/Desktop/GD32VW553/V1_MQTT_OK/GD32VW55X_Wifi_BLE_SDK/GD32VW55x_RELEASE_V1.0.2/MSDK/util/src\slist.c ****     }
 149              		.loc 1 67 14 is_stmt 0 discriminator 2
 150 0046 4A94     		add	s0,s0,s2
 151              	.LVL8:
  59:C:/Users/stapi/OneDrive/Desktop/GD32VW553/V1_MQTT_OK/GD32VW55X_Wifi_BLE_SDK/GD32VW55x_RELEASE_V1.0.2/MSDK/util/src\slist.c ****         if (default_value) {
 152              		.loc 1 59 31 is_stmt 1 discriminator 2
  59:C:/Users/stapi/OneDrive/Desktop/GD32VW553/V1_MQTT_OK/GD32VW55X_Wifi_BLE_SDK/GD32VW55x_RELEASE_V1.0.2/MSDK/util/src\slist.c ****         if (default_value) {
 153              		.loc 1 59 32 is_stmt 0 discriminator 2
 154 0048 850A     		addi	s5,s5,1
 155              	.LVL9:
 156 004a C9BF     		j	.L6
 157              		.cfi_endproc
 158              	.LFE6:
 160              		.section	.text.list_push_front,"ax",@progbits
 161              		.align	1
 162              		.globl	list_push_front
 164              	list_push_front:
 165              	.LFB8:
  86:C:/Users/stapi/OneDrive/Desktop/GD32VW553/V1_MQTT_OK/GD32VW55X_Wifi_BLE_SDK/GD32VW55x_RELEASE_V1.0.2/MSDK/util/src\slist.c **** 
  87:C:/Users/stapi/OneDrive/Desktop/GD32VW553/V1_MQTT_OK/GD32VW55X_Wifi_BLE_SDK/GD32VW55x_RELEASE_V1.0.2/MSDK/util/src\slist.c **** void list_push_front(struct list *list,
  88:C:/Users/stapi/OneDrive/Desktop/GD32VW553/V1_MQTT_OK/GD32VW55X_Wifi_BLE_SDK/GD32VW55x_RELEASE_V1.0.2/MSDK/util/src\slist.c ****                         struct list_hdr *list_hdr)
  89:C:/Users/stapi/OneDrive/Desktop/GD32VW553/V1_MQTT_OK/GD32VW55X_Wifi_BLE_SDK/GD32VW55x_RELEASE_V1.0.2/MSDK/util/src\slist.c **** {
 166              		.loc 1 89 1 is_stmt 1
 167              		.cfi_startproc
 168              	.LVL10:
  90:C:/Users/stapi/OneDrive/Desktop/GD32VW553/V1_MQTT_OK/GD32VW55X_Wifi_BLE_SDK/GD32VW55x_RELEASE_V1.0.2/MSDK/util/src\slist.c ****     // check if list is empty
  91:C:/Users/stapi/OneDrive/Desktop/GD32VW553/V1_MQTT_OK/GD32VW55X_Wifi_BLE_SDK/GD32VW55x_RELEASE_V1.0.2/MSDK/util/src\slist.c ****     if (list_is_empty(list)) {
 169              		.loc 1 91 5
 170              	.LBB18:
 171              	.LBB19:
 172              		.loc 2 253 5
 173              		.loc 2 253 17 is_stmt 0
 174 0000 1C41     		lw	a5,0(a0)
 175              	.LVL11:
 176              	.LBE19:
 177              	.LBE18:
 178              		.loc 1 91 8
 179 0002 91E3     		bne	a5,zero,.L14
  92:C:/Users/stapi/OneDrive/Desktop/GD32VW553/V1_MQTT_OK/GD32VW55X_Wifi_BLE_SDK/GD32VW55x_RELEASE_V1.0.2/MSDK/util/src\slist.c ****         // list empty => pushed element is also head
  93:C:/Users/stapi/OneDrive/Desktop/GD32VW553/V1_MQTT_OK/GD32VW55X_Wifi_BLE_SDK/GD32VW55x_RELEASE_V1.0.2/MSDK/util/src\slist.c ****         list->last = list_hdr;
 180              		.loc 1 93 9 is_stmt 1
 181              		.loc 1 93 20 is_stmt 0
 182 0004 4CC1     		sw	a1,4(a0)
 183              	.L14:
  94:C:/Users/stapi/OneDrive/Desktop/GD32VW553/V1_MQTT_OK/GD32VW55X_Wifi_BLE_SDK/GD32VW55x_RELEASE_V1.0.2/MSDK/util/src\slist.c ****     }
  95:C:/Users/stapi/OneDrive/Desktop/GD32VW553/V1_MQTT_OK/GD32VW55X_Wifi_BLE_SDK/GD32VW55x_RELEASE_V1.0.2/MSDK/util/src\slist.c **** 
  96:C:/Users/stapi/OneDrive/Desktop/GD32VW553/V1_MQTT_OK/GD32VW55X_Wifi_BLE_SDK/GD32VW55x_RELEASE_V1.0.2/MSDK/util/src\slist.c ****     // add element at the beginning of the list
  97:C:/Users/stapi/OneDrive/Desktop/GD32VW553/V1_MQTT_OK/GD32VW55X_Wifi_BLE_SDK/GD32VW55x_RELEASE_V1.0.2/MSDK/util/src\slist.c ****     list_hdr->next = list->first;
 184              		.loc 1 97 5 is_stmt 1
 185              		.loc 1 97 20 is_stmt 0
 186 0006 9CC1     		sw	a5,0(a1)
  98:C:/Users/stapi/OneDrive/Desktop/GD32VW553/V1_MQTT_OK/GD32VW55X_Wifi_BLE_SDK/GD32VW55x_RELEASE_V1.0.2/MSDK/util/src\slist.c ****     list->first = list_hdr;
 187              		.loc 1 98 5 is_stmt 1
 188              		.loc 1 98 17 is_stmt 0
 189 0008 0CC1     		sw	a1,0(a0)
  99:C:/Users/stapi/OneDrive/Desktop/GD32VW553/V1_MQTT_OK/GD32VW55X_Wifi_BLE_SDK/GD32VW55x_RELEASE_V1.0.2/MSDK/util/src\slist.c **** }
 190              		.loc 1 99 1
 191 000a 8280     		ret
 192              		.cfi_endproc
 193              	.LFE8:
 195              		.section	.text.list_pop_front,"ax",@progbits
 196              		.align	1
 197              		.globl	list_pop_front
 199              	list_pop_front:
 200              	.LFB9:
 100:C:/Users/stapi/OneDrive/Desktop/GD32VW553/V1_MQTT_OK/GD32VW55X_Wifi_BLE_SDK/GD32VW55x_RELEASE_V1.0.2/MSDK/util/src\slist.c **** 
 101:C:/Users/stapi/OneDrive/Desktop/GD32VW553/V1_MQTT_OK/GD32VW55X_Wifi_BLE_SDK/GD32VW55x_RELEASE_V1.0.2/MSDK/util/src\slist.c **** struct list_hdr *list_pop_front(struct list *list)
 102:C:/Users/stapi/OneDrive/Desktop/GD32VW553/V1_MQTT_OK/GD32VW55X_Wifi_BLE_SDK/GD32VW55x_RELEASE_V1.0.2/MSDK/util/src\slist.c **** {
 201              		.loc 1 102 1 is_stmt 1
 202              		.cfi_startproc
 203              	.LVL12:
 103:C:/Users/stapi/OneDrive/Desktop/GD32VW553/V1_MQTT_OK/GD32VW55X_Wifi_BLE_SDK/GD32VW55x_RELEASE_V1.0.2/MSDK/util/src\slist.c ****     struct list_hdr *element;
 204              		.loc 1 103 5
 104:C:/Users/stapi/OneDrive/Desktop/GD32VW553/V1_MQTT_OK/GD32VW55X_Wifi_BLE_SDK/GD32VW55x_RELEASE_V1.0.2/MSDK/util/src\slist.c **** 
 105:C:/Users/stapi/OneDrive/Desktop/GD32VW553/V1_MQTT_OK/GD32VW55X_Wifi_BLE_SDK/GD32VW55x_RELEASE_V1.0.2/MSDK/util/src\slist.c ****     // check if list is empty
 106:C:/Users/stapi/OneDrive/Desktop/GD32VW553/V1_MQTT_OK/GD32VW55X_Wifi_BLE_SDK/GD32VW55x_RELEASE_V1.0.2/MSDK/util/src\slist.c ****     element = list->first;
 205              		.loc 1 106 5
 102:C:/Users/stapi/OneDrive/Desktop/GD32VW553/V1_MQTT_OK/GD32VW55X_Wifi_BLE_SDK/GD32VW55x_RELEASE_V1.0.2/MSDK/util/src\slist.c ****     struct list_hdr *element;
 206              		.loc 1 102 1 is_stmt 0
 207 0000 AA87     		mv	a5,a0
 208              		.loc 1 106 13
 209 0002 0841     		lw	a0,0(a0)
 210              	.LVL13:
 107:C:/Users/stapi/OneDrive/Desktop/GD32VW553/V1_MQTT_OK/GD32VW55X_Wifi_BLE_SDK/GD32VW55x_RELEASE_V1.0.2/MSDK/util/src\slist.c ****     if (element != NULL) {
 211              		.loc 1 107 5 is_stmt 1
 212              		.loc 1 107 8 is_stmt 0
 213 0004 01C9     		beq	a0,zero,.L15
 108:C:/Users/stapi/OneDrive/Desktop/GD32VW553/V1_MQTT_OK/GD32VW55X_Wifi_BLE_SDK/GD32VW55x_RELEASE_V1.0.2/MSDK/util/src\slist.c ****         // The list isn't empty : extract the first element
 109:C:/Users/stapi/OneDrive/Desktop/GD32VW553/V1_MQTT_OK/GD32VW55X_Wifi_BLE_SDK/GD32VW55x_RELEASE_V1.0.2/MSDK/util/src\slist.c ****         list->first = list->first->next;
 214              		.loc 1 109 9 is_stmt 1
 215              		.loc 1 109 21 is_stmt 0
 216 0006 1841     		lw	a4,0(a0)
 217 0008 98C3     		sw	a4,0(a5)
 110:C:/Users/stapi/OneDrive/Desktop/GD32VW553/V1_MQTT_OK/GD32VW55X_Wifi_BLE_SDK/GD32VW55x_RELEASE_V1.0.2/MSDK/util/src\slist.c ****         if (list->last == element)
 218              		.loc 1 110 9 is_stmt 1
 219              		.loc 1 110 12 is_stmt 0
 220 000a D843     		lw	a4,4(a5)
 221 000c 6314A700 		bne	a4,a0,.L15
 111:C:/Users/stapi/OneDrive/Desktop/GD32VW553/V1_MQTT_OK/GD32VW55X_Wifi_BLE_SDK/GD32VW55x_RELEASE_V1.0.2/MSDK/util/src\slist.c ****             list->last = NULL;
 222              		.loc 1 111 13 is_stmt 1
 223              		.loc 1 111 24 is_stmt 0
 224 0010 23A20700 		sw	zero,4(a5)
 112:C:/Users/stapi/OneDrive/Desktop/GD32VW553/V1_MQTT_OK/GD32VW55X_Wifi_BLE_SDK/GD32VW55x_RELEASE_V1.0.2/MSDK/util/src\slist.c ****     }
 113:C:/Users/stapi/OneDrive/Desktop/GD32VW553/V1_MQTT_OK/GD32VW55X_Wifi_BLE_SDK/GD32VW55x_RELEASE_V1.0.2/MSDK/util/src\slist.c **** 
 114:C:/Users/stapi/OneDrive/Desktop/GD32VW553/V1_MQTT_OK/GD32VW55X_Wifi_BLE_SDK/GD32VW55x_RELEASE_V1.0.2/MSDK/util/src\slist.c ****     return element;
 225              		.loc 1 114 5 is_stmt 1
 226              	.L15:
 115:C:/Users/stapi/OneDrive/Desktop/GD32VW553/V1_MQTT_OK/GD32VW55X_Wifi_BLE_SDK/GD32VW55x_RELEASE_V1.0.2/MSDK/util/src\slist.c **** }
 227              		.loc 1 115 1 is_stmt 0
 228 0014 8280     		ret
 229              		.cfi_endproc
 230              	.LFE9:
 232              		.section	.text.list_extract,"ax",@progbits
 233              		.align	1
 234              		.globl	list_extract
 236              	list_extract:
 237              	.LFB10:
 116:C:/Users/stapi/OneDrive/Desktop/GD32VW553/V1_MQTT_OK/GD32VW55X_Wifi_BLE_SDK/GD32VW55x_RELEASE_V1.0.2/MSDK/util/src\slist.c **** 
 117:C:/Users/stapi/OneDrive/Desktop/GD32VW553/V1_MQTT_OK/GD32VW55X_Wifi_BLE_SDK/GD32VW55x_RELEASE_V1.0.2/MSDK/util/src\slist.c **** void list_extract(struct list *list,
 118:C:/Users/stapi/OneDrive/Desktop/GD32VW553/V1_MQTT_OK/GD32VW55X_Wifi_BLE_SDK/GD32VW55x_RELEASE_V1.0.2/MSDK/util/src\slist.c ****                      struct list_hdr *list_hdr)
 119:C:/Users/stapi/OneDrive/Desktop/GD32VW553/V1_MQTT_OK/GD32VW55X_Wifi_BLE_SDK/GD32VW55x_RELEASE_V1.0.2/MSDK/util/src\slist.c **** {
 238              		.loc 1 119 1 is_stmt 1
 239              		.cfi_startproc
 240              	.LVL14:
 120:C:/Users/stapi/OneDrive/Desktop/GD32VW553/V1_MQTT_OK/GD32VW55X_Wifi_BLE_SDK/GD32VW55x_RELEASE_V1.0.2/MSDK/util/src\slist.c ****     struct list_hdr *scan_list;
 241              		.loc 1 120 5
 121:C:/Users/stapi/OneDrive/Desktop/GD32VW553/V1_MQTT_OK/GD32VW55X_Wifi_BLE_SDK/GD32VW55x_RELEASE_V1.0.2/MSDK/util/src\slist.c **** 
 122:C:/Users/stapi/OneDrive/Desktop/GD32VW553/V1_MQTT_OK/GD32VW55X_Wifi_BLE_SDK/GD32VW55x_RELEASE_V1.0.2/MSDK/util/src\slist.c ****     scan_list = list->first;
 242              		.loc 1 122 5
 243              		.loc 1 122 15 is_stmt 0
 244 0000 1C41     		lw	a5,0(a0)
 245              	.LVL15:
 123:C:/Users/stapi/OneDrive/Desktop/GD32VW553/V1_MQTT_OK/GD32VW55X_Wifi_BLE_SDK/GD32VW55x_RELEASE_V1.0.2/MSDK/util/src\slist.c **** 
 124:C:/Users/stapi/OneDrive/Desktop/GD32VW553/V1_MQTT_OK/GD32VW55X_Wifi_BLE_SDK/GD32VW55x_RELEASE_V1.0.2/MSDK/util/src\slist.c ****     // Check if list is empty or not
 125:C:/Users/stapi/OneDrive/Desktop/GD32VW553/V1_MQTT_OK/GD32VW55X_Wifi_BLE_SDK/GD32VW55x_RELEASE_V1.0.2/MSDK/util/src\slist.c ****     if (scan_list == NULL)
 246              		.loc 1 125 5 is_stmt 1
 247              		.loc 1 125 8 is_stmt 0
 248 0002 9DC7     		beq	a5,zero,.L19
 126:C:/Users/stapi/OneDrive/Desktop/GD32VW553/V1_MQTT_OK/GD32VW55X_Wifi_BLE_SDK/GD32VW55x_RELEASE_V1.0.2/MSDK/util/src\slist.c ****         return;
 127:C:/Users/stapi/OneDrive/Desktop/GD32VW553/V1_MQTT_OK/GD32VW55X_Wifi_BLE_SDK/GD32VW55x_RELEASE_V1.0.2/MSDK/util/src\slist.c **** 
 128:C:/Users/stapi/OneDrive/Desktop/GD32VW553/V1_MQTT_OK/GD32VW55X_Wifi_BLE_SDK/GD32VW55x_RELEASE_V1.0.2/MSDK/util/src\slist.c ****     // check if searched element is first
 129:C:/Users/stapi/OneDrive/Desktop/GD32VW553/V1_MQTT_OK/GD32VW55X_Wifi_BLE_SDK/GD32VW55x_RELEASE_V1.0.2/MSDK/util/src\slist.c ****     if (scan_list == list_hdr) {
 249              		.loc 1 129 5 is_stmt 1
 250              		.loc 1 129 8 is_stmt 0
 251 0004 639AB700 		bne	a5,a1,.L22
 130:C:/Users/stapi/OneDrive/Desktop/GD32VW553/V1_MQTT_OK/GD32VW55X_Wifi_BLE_SDK/GD32VW55x_RELEASE_V1.0.2/MSDK/util/src\slist.c ****         // Extract first element
 131:C:/Users/stapi/OneDrive/Desktop/GD32VW553/V1_MQTT_OK/GD32VW55X_Wifi_BLE_SDK/GD32VW55x_RELEASE_V1.0.2/MSDK/util/src\slist.c ****         list->first = scan_list->next;
 252              		.loc 1 131 9 is_stmt 1
 253              		.loc 1 131 21 is_stmt 0
 254 0008 9843     		lw	a4,0(a5)
 255 000a 18C1     		sw	a4,0(a0)
 132:C:/Users/stapi/OneDrive/Desktop/GD32VW553/V1_MQTT_OK/GD32VW55X_Wifi_BLE_SDK/GD32VW55x_RELEASE_V1.0.2/MSDK/util/src\slist.c ****         if (list->last == scan_list)
 256              		.loc 1 132 9 is_stmt 1
 257              		.loc 1 132 12 is_stmt 0
 258 000c 5841     		lw	a4,4(a0)
 259 000e 6311F702 		bne	a4,a5,.L19
 133:C:/Users/stapi/OneDrive/Desktop/GD32VW553/V1_MQTT_OK/GD32VW55X_Wifi_BLE_SDK/GD32VW55x_RELEASE_V1.0.2/MSDK/util/src\slist.c ****             list->last = NULL;
 260              		.loc 1 133 13 is_stmt 1
 261              		.loc 1 133 24 is_stmt 0
 262 0012 23220500 		sw	zero,4(a0)
 263 0016 8280     		ret
 264              	.LVL16:
 265              	.L22:
 134:C:/Users/stapi/OneDrive/Desktop/GD32VW553/V1_MQTT_OK/GD32VW55X_Wifi_BLE_SDK/GD32VW55x_RELEASE_V1.0.2/MSDK/util/src\slist.c ****     } else {
 135:C:/Users/stapi/OneDrive/Desktop/GD32VW553/V1_MQTT_OK/GD32VW55X_Wifi_BLE_SDK/GD32VW55x_RELEASE_V1.0.2/MSDK/util/src\slist.c ****         // Look for the element in the list
 136:C:/Users/stapi/OneDrive/Desktop/GD32VW553/V1_MQTT_OK/GD32VW55X_Wifi_BLE_SDK/GD32VW55x_RELEASE_V1.0.2/MSDK/util/src\slist.c ****         while ((scan_list->next != NULL) && (scan_list->next != list_hdr)) {
 266              		.loc 1 136 15 is_stmt 1
 267 0018 3E87     		mv	a4,a5
 268              		.loc 1 136 26 is_stmt 0
 269 001a 9C43     		lw	a5,0(a5)
 270              	.LVL17:
 271              		.loc 1 136 15
 272 001c 91CB     		beq	a5,zero,.L19
 273              		.loc 1 136 42 discriminator 1
 274 001e E39DB7FE 		bne	a5,a1,.L22
 137:C:/Users/stapi/OneDrive/Desktop/GD32VW553/V1_MQTT_OK/GD32VW55X_Wifi_BLE_SDK/GD32VW55x_RELEASE_V1.0.2/MSDK/util/src\slist.c ****             scan_list = scan_list->next;
 138:C:/Users/stapi/OneDrive/Desktop/GD32VW553/V1_MQTT_OK/GD32VW55X_Wifi_BLE_SDK/GD32VW55x_RELEASE_V1.0.2/MSDK/util/src\slist.c ****         }
 139:C:/Users/stapi/OneDrive/Desktop/GD32VW553/V1_MQTT_OK/GD32VW55X_Wifi_BLE_SDK/GD32VW55x_RELEASE_V1.0.2/MSDK/util/src\slist.c **** 
 140:C:/Users/stapi/OneDrive/Desktop/GD32VW553/V1_MQTT_OK/GD32VW55X_Wifi_BLE_SDK/GD32VW55x_RELEASE_V1.0.2/MSDK/util/src\slist.c ****         // Check if element was found in the list
 141:C:/Users/stapi/OneDrive/Desktop/GD32VW553/V1_MQTT_OK/GD32VW55X_Wifi_BLE_SDK/GD32VW55x_RELEASE_V1.0.2/MSDK/util/src\slist.c ****         if (scan_list->next != NULL) {
 275              		.loc 1 141 9 is_stmt 1
 142:C:/Users/stapi/OneDrive/Desktop/GD32VW553/V1_MQTT_OK/GD32VW55X_Wifi_BLE_SDK/GD32VW55x_RELEASE_V1.0.2/MSDK/util/src\slist.c ****             // check if the removed element is the last in the list
 143:C:/Users/stapi/OneDrive/Desktop/GD32VW553/V1_MQTT_OK/GD32VW55X_Wifi_BLE_SDK/GD32VW55x_RELEASE_V1.0.2/MSDK/util/src\slist.c ****             if (list->last == list_hdr) {
 276              		.loc 1 143 13
 277              		.loc 1 143 16 is_stmt 0
 278 0022 5C41     		lw	a5,4(a0)
 279 0024 6393B700 		bne	a5,a1,.L26
 144:C:/Users/stapi/OneDrive/Desktop/GD32VW553/V1_MQTT_OK/GD32VW55X_Wifi_BLE_SDK/GD32VW55x_RELEASE_V1.0.2/MSDK/util/src\slist.c ****                 // Last element will be extracted
 145:C:/Users/stapi/OneDrive/Desktop/GD32VW553/V1_MQTT_OK/GD32VW55X_Wifi_BLE_SDK/GD32VW55x_RELEASE_V1.0.2/MSDK/util/src\slist.c ****                 list->last = scan_list;
 280              		.loc 1 145 17 is_stmt 1
 281              		.loc 1 145 28 is_stmt 0
 282 0028 58C1     		sw	a4,4(a0)
 283              	.L26:
 146:C:/Users/stapi/OneDrive/Desktop/GD32VW553/V1_MQTT_OK/GD32VW55X_Wifi_BLE_SDK/GD32VW55x_RELEASE_V1.0.2/MSDK/util/src\slist.c ****             }
 147:C:/Users/stapi/OneDrive/Desktop/GD32VW553/V1_MQTT_OK/GD32VW55X_Wifi_BLE_SDK/GD32VW55x_RELEASE_V1.0.2/MSDK/util/src\slist.c ****             // Extract the element from the list
 148:C:/Users/stapi/OneDrive/Desktop/GD32VW553/V1_MQTT_OK/GD32VW55X_Wifi_BLE_SDK/GD32VW55x_RELEASE_V1.0.2/MSDK/util/src\slist.c ****             scan_list->next = list_hdr->next;
 284              		.loc 1 148 13 is_stmt 1
 285              		.loc 1 148 39 is_stmt 0
 286 002a 9C41     		lw	a5,0(a1)
 287              		.loc 1 148 29
 288 002c 1CC3     		sw	a5,0(a4)
 289 002e 8280     		ret
 290              	.LVL18:
 291              	.L19:
 149:C:/Users/stapi/OneDrive/Desktop/GD32VW553/V1_MQTT_OK/GD32VW55X_Wifi_BLE_SDK/GD32VW55x_RELEASE_V1.0.2/MSDK/util/src\slist.c ****         }
 150:C:/Users/stapi/OneDrive/Desktop/GD32VW553/V1_MQTT_OK/GD32VW55X_Wifi_BLE_SDK/GD32VW55x_RELEASE_V1.0.2/MSDK/util/src\slist.c ****     }
 151:C:/Users/stapi/OneDrive/Desktop/GD32VW553/V1_MQTT_OK/GD32VW55X_Wifi_BLE_SDK/GD32VW55x_RELEASE_V1.0.2/MSDK/util/src\slist.c **** }
 292              		.loc 1 151 1
 293 0030 8280     		ret
 294              		.cfi_endproc
 295              	.LFE10:
 297              		.section	.text.list_find,"ax",@progbits
 298              		.align	1
 299              		.globl	list_find
 301              	list_find:
 302              	.LFB11:
 152:C:/Users/stapi/OneDrive/Desktop/GD32VW553/V1_MQTT_OK/GD32VW55X_Wifi_BLE_SDK/GD32VW55x_RELEASE_V1.0.2/MSDK/util/src\slist.c **** 
 153:C:/Users/stapi/OneDrive/Desktop/GD32VW553/V1_MQTT_OK/GD32VW55X_Wifi_BLE_SDK/GD32VW55x_RELEASE_V1.0.2/MSDK/util/src\slist.c **** bool list_find(struct list *list, struct list_hdr *list_hdr)
 154:C:/Users/stapi/OneDrive/Desktop/GD32VW553/V1_MQTT_OK/GD32VW55X_Wifi_BLE_SDK/GD32VW55x_RELEASE_V1.0.2/MSDK/util/src\slist.c **** {
 303              		.loc 1 154 1 is_stmt 1
 304              		.cfi_startproc
 305              	.LVL19:
 306              	.L36:
 155:C:/Users/stapi/OneDrive/Desktop/GD32VW553/V1_MQTT_OK/GD32VW55X_Wifi_BLE_SDK/GD32VW55x_RELEASE_V1.0.2/MSDK/util/src\slist.c ****     struct list_hdr *tmp_list_hdr;
 156:C:/Users/stapi/OneDrive/Desktop/GD32VW553/V1_MQTT_OK/GD32VW55X_Wifi_BLE_SDK/GD32VW55x_RELEASE_V1.0.2/MSDK/util/src\slist.c **** 
 157:C:/Users/stapi/OneDrive/Desktop/GD32VW553/V1_MQTT_OK/GD32VW55X_Wifi_BLE_SDK/GD32VW55x_RELEASE_V1.0.2/MSDK/util/src\slist.c ****     // Go through the list to find the element
 158:C:/Users/stapi/OneDrive/Desktop/GD32VW553/V1_MQTT_OK/GD32VW55X_Wifi_BLE_SDK/GD32VW55x_RELEASE_V1.0.2/MSDK/util/src\slist.c ****     tmp_list_hdr = list->first;
 159:C:/Users/stapi/OneDrive/Desktop/GD32VW553/V1_MQTT_OK/GD32VW55X_Wifi_BLE_SDK/GD32VW55x_RELEASE_V1.0.2/MSDK/util/src\slist.c ****     while ((tmp_list_hdr != list_hdr) && (tmp_list_hdr != NULL)) {
 160:C:/Users/stapi/OneDrive/Desktop/GD32VW553/V1_MQTT_OK/GD32VW55X_Wifi_BLE_SDK/GD32VW55x_RELEASE_V1.0.2/MSDK/util/src\slist.c ****         tmp_list_hdr = tmp_list_hdr->next;
 307              		.loc 1 160 9
 308              		.loc 1 160 22 is_stmt 0
 309 0000 0841     		lw	a0,0(a0)
 310              	.LVL20:
 159:C:/Users/stapi/OneDrive/Desktop/GD32VW553/V1_MQTT_OK/GD32VW55X_Wifi_BLE_SDK/GD32VW55x_RELEASE_V1.0.2/MSDK/util/src\slist.c ****         tmp_list_hdr = tmp_list_hdr->next;
 311              		.loc 1 159 11 is_stmt 1
 312 0002 6303B500 		beq	a0,a1,.L35
 159:C:/Users/stapi/OneDrive/Desktop/GD32VW553/V1_MQTT_OK/GD32VW55X_Wifi_BLE_SDK/GD32VW55x_RELEASE_V1.0.2/MSDK/util/src\slist.c ****         tmp_list_hdr = tmp_list_hdr->next;
 313              		.loc 1 159 39 is_stmt 0 discriminator 1
 314 0006 6DFD     		bne	a0,zero,.L36
 315              	.L35:
 161:C:/Users/stapi/OneDrive/Desktop/GD32VW553/V1_MQTT_OK/GD32VW55X_Wifi_BLE_SDK/GD32VW55x_RELEASE_V1.0.2/MSDK/util/src\slist.c ****     }
 162:C:/Users/stapi/OneDrive/Desktop/GD32VW553/V1_MQTT_OK/GD32VW55X_Wifi_BLE_SDK/GD32VW55x_RELEASE_V1.0.2/MSDK/util/src\slist.c **** 
 163:C:/Users/stapi/OneDrive/Desktop/GD32VW553/V1_MQTT_OK/GD32VW55X_Wifi_BLE_SDK/GD32VW55x_RELEASE_V1.0.2/MSDK/util/src\slist.c ****     return (tmp_list_hdr == list_hdr);
 316              		.loc 1 163 5 is_stmt 1
 317              		.loc 1 163 26 is_stmt 0
 318 0008 3385A540 		sub	a0,a1,a0
 319              	.LVL21:
 164:C:/Users/stapi/OneDrive/Desktop/GD32VW553/V1_MQTT_OK/GD32VW55X_Wifi_BLE_SDK/GD32VW55x_RELEASE_V1.0.2/MSDK/util/src\slist.c **** }
 320              		.loc 1 164 1
 321 000c 13351500 		seqz	a0,a0
 322 0010 8280     		ret
 323              		.cfi_endproc
 324              	.LFE11:
 326              		.section	.text.list_cnt,"ax",@progbits
 327              		.align	1
 328              		.globl	list_cnt
 330              	list_cnt:
 331              	.LFB12:
 165:C:/Users/stapi/OneDrive/Desktop/GD32VW553/V1_MQTT_OK/GD32VW55X_Wifi_BLE_SDK/GD32VW55x_RELEASE_V1.0.2/MSDK/util/src\slist.c **** 
 166:C:/Users/stapi/OneDrive/Desktop/GD32VW553/V1_MQTT_OK/GD32VW55X_Wifi_BLE_SDK/GD32VW55x_RELEASE_V1.0.2/MSDK/util/src\slist.c **** uint32_t list_cnt(const struct list *list)
 167:C:/Users/stapi/OneDrive/Desktop/GD32VW553/V1_MQTT_OK/GD32VW55X_Wifi_BLE_SDK/GD32VW55x_RELEASE_V1.0.2/MSDK/util/src\slist.c **** {
 332              		.loc 1 167 1 is_stmt 1
 333              		.cfi_startproc
 334              	.LVL22:
 168:C:/Users/stapi/OneDrive/Desktop/GD32VW553/V1_MQTT_OK/GD32VW55X_Wifi_BLE_SDK/GD32VW55x_RELEASE_V1.0.2/MSDK/util/src\slist.c ****     uint32_t cnt = 0;
 335              		.loc 1 168 5
 169:C:/Users/stapi/OneDrive/Desktop/GD32VW553/V1_MQTT_OK/GD32VW55X_Wifi_BLE_SDK/GD32VW55x_RELEASE_V1.0.2/MSDK/util/src\slist.c ****     struct list_hdr *elt = list_pick(list);
 336              		.loc 1 169 5
 337              	.LBB20:
 338              	.LBB21:
 254:..\..\..\..\util\include/slist.h **** }
 255:..\..\..\..\util\include/slist.h **** 
 256:..\..\..\..\util\include/slist.h **** /**
 257:..\..\..\..\util\include/slist.h ****  ****************************************************************************************
 258:..\..\..\..\util\include/slist.h ****  * @brief Return the number of element of the list.
 259:..\..\..\..\util\include/slist.h ****  *
 260:..\..\..\..\util\include/slist.h ****  * @param[in] list           Pointer to the list structure.
 261:..\..\..\..\util\include/slist.h ****  *
 262:..\..\..\..\util\include/slist.h ****  * @return The number of elements in the list.
 263:..\..\..\..\util\include/slist.h ****  ****************************************************************************************
 264:..\..\..\..\util\include/slist.h ****  */
 265:..\..\..\..\util\include/slist.h **** uint32_t list_cnt(const struct list *list);
 266:..\..\..\..\util\include/slist.h **** 
 267:..\..\..\..\util\include/slist.h **** /**
 268:..\..\..\..\util\include/slist.h ****  ****************************************************************************************
 269:..\..\..\..\util\include/slist.h ****  * @brief Pick the first element from the list without removing it.
 270:..\..\..\..\util\include/slist.h ****  *
 271:..\..\..\..\util\include/slist.h ****  * @param[in] list           Pointer to the list structure.
 272:..\..\..\..\util\include/slist.h ****  *
 273:..\..\..\..\util\include/slist.h ****  * @return First element address. Returns NULL pointer if the list is empty.
 274:..\..\..\..\util\include/slist.h ****  ****************************************************************************************
 275:..\..\..\..\util\include/slist.h ****  */
 276:..\..\..\..\util\include/slist.h **** __INLINE struct list_hdr *list_pick(const struct list * const list)
 277:..\..\..\..\util\include/slist.h **** {
 278:..\..\..\..\util\include/slist.h ****     return list->first;
 339              		.loc 2 278 5
 340              		.loc 2 278 16 is_stmt 0
 341 0000 1C41     		lw	a5,0(a0)
 342              	.LVL23:
 343              	.LBE21:
 344              	.LBE20:
 170:C:/Users/stapi/OneDrive/Desktop/GD32VW553/V1_MQTT_OK/GD32VW55X_Wifi_BLE_SDK/GD32VW55x_RELEASE_V1.0.2/MSDK/util/src\slist.c **** 
 171:C:/Users/stapi/OneDrive/Desktop/GD32VW553/V1_MQTT_OK/GD32VW55X_Wifi_BLE_SDK/GD32VW55x_RELEASE_V1.0.2/MSDK/util/src\slist.c ****     // Go through the list to count the number of elements
 172:C:/Users/stapi/OneDrive/Desktop/GD32VW553/V1_MQTT_OK/GD32VW55X_Wifi_BLE_SDK/GD32VW55x_RELEASE_V1.0.2/MSDK/util/src\slist.c ****     while (elt != NULL) {
 345              		.loc 1 172 5 is_stmt 1
 168:C:/Users/stapi/OneDrive/Desktop/GD32VW553/V1_MQTT_OK/GD32VW55X_Wifi_BLE_SDK/GD32VW55x_RELEASE_V1.0.2/MSDK/util/src\slist.c ****     struct list_hdr *elt = list_pick(list);
 346              		.loc 1 168 14 is_stmt 0
 347 0002 0145     		li	a0,0
 348              	.LVL24:
 349              	.L39:
 350              		.loc 1 172 11 is_stmt 1
 351 0004 91E3     		bne	a5,zero,.L40
 173:C:/Users/stapi/OneDrive/Desktop/GD32VW553/V1_MQTT_OK/GD32VW55X_Wifi_BLE_SDK/GD32VW55x_RELEASE_V1.0.2/MSDK/util/src\slist.c ****         cnt++;
 174:C:/Users/stapi/OneDrive/Desktop/GD32VW553/V1_MQTT_OK/GD32VW55X_Wifi_BLE_SDK/GD32VW55x_RELEASE_V1.0.2/MSDK/util/src\slist.c ****         elt = list_next(elt);
 175:C:/Users/stapi/OneDrive/Desktop/GD32VW553/V1_MQTT_OK/GD32VW55X_Wifi_BLE_SDK/GD32VW55x_RELEASE_V1.0.2/MSDK/util/src\slist.c ****     }
 176:C:/Users/stapi/OneDrive/Desktop/GD32VW553/V1_MQTT_OK/GD32VW55X_Wifi_BLE_SDK/GD32VW55x_RELEASE_V1.0.2/MSDK/util/src\slist.c **** 
 177:C:/Users/stapi/OneDrive/Desktop/GD32VW553/V1_MQTT_OK/GD32VW55X_Wifi_BLE_SDK/GD32VW55x_RELEASE_V1.0.2/MSDK/util/src\slist.c ****     return cnt;
 352              		.loc 1 177 5
 178:C:/Users/stapi/OneDrive/Desktop/GD32VW553/V1_MQTT_OK/GD32VW55X_Wifi_BLE_SDK/GD32VW55x_RELEASE_V1.0.2/MSDK/util/src\slist.c **** }
 353              		.loc 1 178 1 is_stmt 0
 354 0006 8280     		ret
 355              	.L40:
 173:C:/Users/stapi/OneDrive/Desktop/GD32VW553/V1_MQTT_OK/GD32VW55X_Wifi_BLE_SDK/GD32VW55x_RELEASE_V1.0.2/MSDK/util/src\slist.c ****         cnt++;
 356              		.loc 1 173 9 is_stmt 1
 357              	.LBB22:
 358              	.LBB23:
 279:..\..\..\..\util\include/slist.h **** }
 280:..\..\..\..\util\include/slist.h **** 
 281:..\..\..\..\util\include/slist.h **** /**
 282:..\..\..\..\util\include/slist.h ****  ****************************************************************************************
 283:..\..\..\..\util\include/slist.h ****  * @brief Pick the last element from the list without removing it.
 284:..\..\..\..\util\include/slist.h ****  *
 285:..\..\..\..\util\include/slist.h ****  * @param[in] list           Pointer to the list structure.
 286:..\..\..\..\util\include/slist.h ****  *
 287:..\..\..\..\util\include/slist.h ****  * @return Last element address. Returns invalid value if the list is empty.
 288:..\..\..\..\util\include/slist.h ****  ****************************************************************************************
 289:..\..\..\..\util\include/slist.h ****  */
 290:..\..\..\..\util\include/slist.h **** __INLINE struct list_hdr *list_pick_last(const struct list * const list)
 291:..\..\..\..\util\include/slist.h **** {
 292:..\..\..\..\util\include/slist.h ****     return list->last;
 293:..\..\..\..\util\include/slist.h **** }
 294:..\..\..\..\util\include/slist.h **** 
 295:..\..\..\..\util\include/slist.h **** /**
 296:..\..\..\..\util\include/slist.h ****  ****************************************************************************************
 297:..\..\..\..\util\include/slist.h ****  * @brief Return following element of a list element.
 298:..\..\..\..\util\include/slist.h ****  *
 299:..\..\..\..\util\include/slist.h ****  * @param[in] list_hdr     Pointer to the list element.
 300:..\..\..\..\util\include/slist.h ****  *
 301:..\..\..\..\util\include/slist.h ****  * @return The pointer to the next element.
 302:..\..\..\..\util\include/slist.h ****  ****************************************************************************************
 303:..\..\..\..\util\include/slist.h ****  */
 304:..\..\..\..\util\include/slist.h **** __INLINE struct list_hdr *list_next(const struct list_hdr * const list_hdr)
 305:..\..\..\..\util\include/slist.h **** {
 306:..\..\..\..\util\include/slist.h ****     return list_hdr->next;
 359              		.loc 2 306 20 is_stmt 0
 360 0008 9C43     		lw	a5,0(a5)
 361              	.LVL25:
 362              	.LBE23:
 363              	.LBE22:
 173:C:/Users/stapi/OneDrive/Desktop/GD32VW553/V1_MQTT_OK/GD32VW55X_Wifi_BLE_SDK/GD32VW55x_RELEASE_V1.0.2/MSDK/util/src\slist.c ****         elt = list_next(elt);
 364              		.loc 1 173 12
 365 000a 0505     		addi	a0,a0,1
 366              	.LVL26:
 174:C:/Users/stapi/OneDrive/Desktop/GD32VW553/V1_MQTT_OK/GD32VW55X_Wifi_BLE_SDK/GD32VW55x_RELEASE_V1.0.2/MSDK/util/src\slist.c ****     }
 367              		.loc 1 174 9 is_stmt 1
 368              	.LBB25:
 369              	.LBB24:
 370              		.loc 2 306 5
 371 000c E5BF     		j	.L39
 372              	.LBE24:
 373              	.LBE25:
 374              		.cfi_endproc
 375              	.LFE12:
 377              		.section	.text.list_insert,"ax",@progbits
 378              		.align	1
 379              		.globl	list_insert
 381              	list_insert:
 382              	.LFB13:
 179:C:/Users/stapi/OneDrive/Desktop/GD32VW553/V1_MQTT_OK/GD32VW55X_Wifi_BLE_SDK/GD32VW55x_RELEASE_V1.0.2/MSDK/util/src\slist.c **** 
 180:C:/Users/stapi/OneDrive/Desktop/GD32VW553/V1_MQTT_OK/GD32VW55X_Wifi_BLE_SDK/GD32VW55x_RELEASE_V1.0.2/MSDK/util/src\slist.c **** void list_insert(struct list * const list,
 181:C:/Users/stapi/OneDrive/Desktop/GD32VW553/V1_MQTT_OK/GD32VW55X_Wifi_BLE_SDK/GD32VW55x_RELEASE_V1.0.2/MSDK/util/src\slist.c ****                     struct list_hdr * const element,
 182:C:/Users/stapi/OneDrive/Desktop/GD32VW553/V1_MQTT_OK/GD32VW55X_Wifi_BLE_SDK/GD32VW55x_RELEASE_V1.0.2/MSDK/util/src\slist.c ****                     bool (*cmp)(struct list_hdr const *elementA,
 183:C:/Users/stapi/OneDrive/Desktop/GD32VW553/V1_MQTT_OK/GD32VW55X_Wifi_BLE_SDK/GD32VW55x_RELEASE_V1.0.2/MSDK/util/src\slist.c ****                                 struct list_hdr const *elementB))
 184:C:/Users/stapi/OneDrive/Desktop/GD32VW553/V1_MQTT_OK/GD32VW55X_Wifi_BLE_SDK/GD32VW55x_RELEASE_V1.0.2/MSDK/util/src\slist.c **** {
 383              		.loc 1 184 1
 384              		.cfi_startproc
 385              	.LVL27:
 386 0000 17030000 		call	t0,__riscv_save_5
 386      E7020300 
 387              		.cfi_offset 20, -24
 388              		.cfi_offset 19, -20
 389              		.cfi_offset 18, -16
 390              		.cfi_offset 9, -12
 391              		.cfi_offset 8, -8
 392              		.cfi_offset 1, -4
 393              		.cfi_def_cfa_offset 32
 185:C:/Users/stapi/OneDrive/Desktop/GD32VW553/V1_MQTT_OK/GD32VW55X_Wifi_BLE_SDK/GD32VW55x_RELEASE_V1.0.2/MSDK/util/src\slist.c ****     struct list_hdr *prev = NULL;
 394              		.loc 1 185 5
 395              	.LVL28:
 186:C:/Users/stapi/OneDrive/Desktop/GD32VW553/V1_MQTT_OK/GD32VW55X_Wifi_BLE_SDK/GD32VW55x_RELEASE_V1.0.2/MSDK/util/src\slist.c ****     struct list_hdr *scan = list->first;
 396              		.loc 1 186 5
 397              		.loc 1 186 22 is_stmt 0
 398 0008 0441     		lw	s1,0(a0)
 399              	.LVL29:
 184:C:/Users/stapi/OneDrive/Desktop/GD32VW553/V1_MQTT_OK/GD32VW55X_Wifi_BLE_SDK/GD32VW55x_RELEASE_V1.0.2/MSDK/util/src\slist.c ****     struct list_hdr *prev = NULL;
 400              		.loc 1 184 1
 401 000a 2A89     		mv	s2,a0
 402 000c 2E84     		mv	s0,a1
 403 000e 328A     		mv	s4,a2
 185:C:/Users/stapi/OneDrive/Desktop/GD32VW553/V1_MQTT_OK/GD32VW55X_Wifi_BLE_SDK/GD32VW55x_RELEASE_V1.0.2/MSDK/util/src\slist.c ****     struct list_hdr *prev = NULL;
 404              		.loc 1 185 22
 405 0010 8149     		li	s3,0
 406              	.LVL30:
 407              	.L44:
 187:C:/Users/stapi/OneDrive/Desktop/GD32VW553/V1_MQTT_OK/GD32VW55X_Wifi_BLE_SDK/GD32VW55x_RELEASE_V1.0.2/MSDK/util/src\slist.c **** 
 188:C:/Users/stapi/OneDrive/Desktop/GD32VW553/V1_MQTT_OK/GD32VW55X_Wifi_BLE_SDK/GD32VW55x_RELEASE_V1.0.2/MSDK/util/src\slist.c ****     for (;;) {
 408              		.loc 1 188 5 is_stmt 1
 189:C:/Users/stapi/OneDrive/Desktop/GD32VW553/V1_MQTT_OK/GD32VW55X_Wifi_BLE_SDK/GD32VW55x_RELEASE_V1.0.2/MSDK/util/src\slist.c ****         // scan the list until the end or cmp() returns true
 190:C:/Users/stapi/OneDrive/Desktop/GD32VW553/V1_MQTT_OK/GD32VW55X_Wifi_BLE_SDK/GD32VW55x_RELEASE_V1.0.2/MSDK/util/src\slist.c ****         if (scan) {
 409              		.loc 1 190 9
 410              		.loc 1 190 12 is_stmt 0
 411 0012 81C8     		beq	s1,zero,.L42
 191:C:/Users/stapi/OneDrive/Desktop/GD32VW553/V1_MQTT_OK/GD32VW55X_Wifi_BLE_SDK/GD32VW55x_RELEASE_V1.0.2/MSDK/util/src\slist.c ****             if (cmp(element, scan)) {
 412              		.loc 1 191 13 is_stmt 1
 413              		.loc 1 191 17 is_stmt 0
 414 0014 A685     		mv	a1,s1
 415 0016 2285     		mv	a0,s0
 416 0018 029A     		jalr	s4
 417              	.LVL31:
 418              		.loc 1 191 16
 419 001a 11E5     		bne	a0,zero,.L43
 192:C:/Users/stapi/OneDrive/Desktop/GD32VW553/V1_MQTT_OK/GD32VW55X_Wifi_BLE_SDK/GD32VW55x_RELEASE_V1.0.2/MSDK/util/src\slist.c ****                 // insert now
 193:C:/Users/stapi/OneDrive/Desktop/GD32VW553/V1_MQTT_OK/GD32VW55X_Wifi_BLE_SDK/GD32VW55x_RELEASE_V1.0.2/MSDK/util/src\slist.c ****                 break;
 194:C:/Users/stapi/OneDrive/Desktop/GD32VW553/V1_MQTT_OK/GD32VW55X_Wifi_BLE_SDK/GD32VW55x_RELEASE_V1.0.2/MSDK/util/src\slist.c ****             }
 195:C:/Users/stapi/OneDrive/Desktop/GD32VW553/V1_MQTT_OK/GD32VW55X_Wifi_BLE_SDK/GD32VW55x_RELEASE_V1.0.2/MSDK/util/src\slist.c ****             prev = scan;
 420              		.loc 1 195 13 is_stmt 1
 421              	.LVL32:
 196:C:/Users/stapi/OneDrive/Desktop/GD32VW553/V1_MQTT_OK/GD32VW55X_Wifi_BLE_SDK/GD32VW55x_RELEASE_V1.0.2/MSDK/util/src\slist.c ****             scan = scan->next;
 422              		.loc 1 196 13
 188:C:/Users/stapi/OneDrive/Desktop/GD32VW553/V1_MQTT_OK/GD32VW55X_Wifi_BLE_SDK/GD32VW55x_RELEASE_V1.0.2/MSDK/util/src\slist.c ****         // scan the list until the end or cmp() returns true
 423              		.loc 1 188 11
 190:C:/Users/stapi/OneDrive/Desktop/GD32VW553/V1_MQTT_OK/GD32VW55X_Wifi_BLE_SDK/GD32VW55x_RELEASE_V1.0.2/MSDK/util/src\slist.c ****             if (cmp(element, scan)) {
 424              		.loc 1 190 12 is_stmt 0
 425 001c A689     		mv	s3,s1
 426              		.loc 1 196 18
 427 001e 8440     		lw	s1,0(s1)
 428              	.LVL33:
 190:C:/Users/stapi/OneDrive/Desktop/GD32VW553/V1_MQTT_OK/GD32VW55X_Wifi_BLE_SDK/GD32VW55x_RELEASE_V1.0.2/MSDK/util/src\slist.c ****             if (cmp(element, scan)) {
 429              		.loc 1 190 12
 430 0020 CDBF     		j	.L44
 431              	.L42:
 197:C:/Users/stapi/OneDrive/Desktop/GD32VW553/V1_MQTT_OK/GD32VW55X_Wifi_BLE_SDK/GD32VW55x_RELEASE_V1.0.2/MSDK/util/src\slist.c ****         } else {
 198:C:/Users/stapi/OneDrive/Desktop/GD32VW553/V1_MQTT_OK/GD32VW55X_Wifi_BLE_SDK/GD32VW55x_RELEASE_V1.0.2/MSDK/util/src\slist.c ****             // end of list
 199:C:/Users/stapi/OneDrive/Desktop/GD32VW553/V1_MQTT_OK/GD32VW55X_Wifi_BLE_SDK/GD32VW55x_RELEASE_V1.0.2/MSDK/util/src\slist.c ****             list->last = element;
 432              		.loc 1 199 13 is_stmt 1
 433              		.loc 1 199 24 is_stmt 0
 434 0022 23228900 		sw	s0,4(s2)
 200:C:/Users/stapi/OneDrive/Desktop/GD32VW553/V1_MQTT_OK/GD32VW55X_Wifi_BLE_SDK/GD32VW55x_RELEASE_V1.0.2/MSDK/util/src\slist.c ****             break;
 435              		.loc 1 200 13 is_stmt 1
 436              	.L43:
 201:C:/Users/stapi/OneDrive/Desktop/GD32VW553/V1_MQTT_OK/GD32VW55X_Wifi_BLE_SDK/GD32VW55x_RELEASE_V1.0.2/MSDK/util/src\slist.c ****         }
 202:C:/Users/stapi/OneDrive/Desktop/GD32VW553/V1_MQTT_OK/GD32VW55X_Wifi_BLE_SDK/GD32VW55x_RELEASE_V1.0.2/MSDK/util/src\slist.c ****     }
 203:C:/Users/stapi/OneDrive/Desktop/GD32VW553/V1_MQTT_OK/GD32VW55X_Wifi_BLE_SDK/GD32VW55x_RELEASE_V1.0.2/MSDK/util/src\slist.c **** 
 204:C:/Users/stapi/OneDrive/Desktop/GD32VW553/V1_MQTT_OK/GD32VW55X_Wifi_BLE_SDK/GD32VW55x_RELEASE_V1.0.2/MSDK/util/src\slist.c ****     element->next = scan;
 437              		.loc 1 204 5
 438              		.loc 1 204 19 is_stmt 0
 439 0026 04C0     		sw	s1,0(s0)
 205:C:/Users/stapi/OneDrive/Desktop/GD32VW553/V1_MQTT_OK/GD32VW55X_Wifi_BLE_SDK/GD32VW55x_RELEASE_V1.0.2/MSDK/util/src\slist.c **** 
 206:C:/Users/stapi/OneDrive/Desktop/GD32VW553/V1_MQTT_OK/GD32VW55X_Wifi_BLE_SDK/GD32VW55x_RELEASE_V1.0.2/MSDK/util/src\slist.c ****     if (prev) {
 440              		.loc 1 206 5 is_stmt 1
 441              		.loc 1 206 8 is_stmt 0
 442 0028 63880900 		beq	s3,zero,.L45
 207:C:/Users/stapi/OneDrive/Desktop/GD32VW553/V1_MQTT_OK/GD32VW55X_Wifi_BLE_SDK/GD32VW55x_RELEASE_V1.0.2/MSDK/util/src\slist.c ****         // second or more
 208:C:/Users/stapi/OneDrive/Desktop/GD32VW553/V1_MQTT_OK/GD32VW55X_Wifi_BLE_SDK/GD32VW55x_RELEASE_V1.0.2/MSDK/util/src\slist.c ****         prev->next = element;
 443              		.loc 1 208 9 is_stmt 1
 444              		.loc 1 208 20 is_stmt 0
 445 002c 23A08900 		sw	s0,0(s3)
 446              	.L41:
 209:C:/Users/stapi/OneDrive/Desktop/GD32VW553/V1_MQTT_OK/GD32VW55X_Wifi_BLE_SDK/GD32VW55x_RELEASE_V1.0.2/MSDK/util/src\slist.c ****     } else {
 210:C:/Users/stapi/OneDrive/Desktop/GD32VW553/V1_MQTT_OK/GD32VW55X_Wifi_BLE_SDK/GD32VW55x_RELEASE_V1.0.2/MSDK/util/src\slist.c ****         // first message
 211:C:/Users/stapi/OneDrive/Desktop/GD32VW553/V1_MQTT_OK/GD32VW55X_Wifi_BLE_SDK/GD32VW55x_RELEASE_V1.0.2/MSDK/util/src\slist.c ****         list->first = element;
 212:C:/Users/stapi/OneDrive/Desktop/GD32VW553/V1_MQTT_OK/GD32VW55X_Wifi_BLE_SDK/GD32VW55x_RELEASE_V1.0.2/MSDK/util/src\slist.c ****     }
 213:C:/Users/stapi/OneDrive/Desktop/GD32VW553/V1_MQTT_OK/GD32VW55X_Wifi_BLE_SDK/GD32VW55x_RELEASE_V1.0.2/MSDK/util/src\slist.c **** }
 447              		.loc 1 213 1
 448 0030 17030000 		tail	__riscv_restore_5
 448      67000300 
 449              		.cfi_remember_state
 450              		.cfi_restore 20
 451              		.cfi_restore 19
 452              		.cfi_restore 18
 453              		.cfi_restore 9
 454              		.cfi_restore 8
 455              		.cfi_restore 1
 456              		.cfi_def_cfa_offset 0
 457              	.L45:
 458              		.cfi_restore_state
 211:C:/Users/stapi/OneDrive/Desktop/GD32VW553/V1_MQTT_OK/GD32VW55X_Wifi_BLE_SDK/GD32VW55x_RELEASE_V1.0.2/MSDK/util/src\slist.c ****     }
 459              		.loc 1 211 9 is_stmt 1
 211:C:/Users/stapi/OneDrive/Desktop/GD32VW553/V1_MQTT_OK/GD32VW55X_Wifi_BLE_SDK/GD32VW55x_RELEASE_V1.0.2/MSDK/util/src\slist.c ****     }
 460              		.loc 1 211 21 is_stmt 0
 461 0038 23208900 		sw	s0,0(s2)
 462              		.loc 1 213 1
 463 003c D5BF     		j	.L41
 464              		.cfi_endproc
 465              	.LFE13:
 467              		.section	.text.list_insert_after,"ax",@progbits
 468              		.align	1
 469              		.globl	list_insert_after
 471              	list_insert_after:
 472              	.LFB14:
 214:C:/Users/stapi/OneDrive/Desktop/GD32VW553/V1_MQTT_OK/GD32VW55X_Wifi_BLE_SDK/GD32VW55x_RELEASE_V1.0.2/MSDK/util/src\slist.c **** 
 215:C:/Users/stapi/OneDrive/Desktop/GD32VW553/V1_MQTT_OK/GD32VW55X_Wifi_BLE_SDK/GD32VW55x_RELEASE_V1.0.2/MSDK/util/src\slist.c **** void list_insert_after(struct list * const list,
 216:C:/Users/stapi/OneDrive/Desktop/GD32VW553/V1_MQTT_OK/GD32VW55X_Wifi_BLE_SDK/GD32VW55x_RELEASE_V1.0.2/MSDK/util/src\slist.c ****                           struct list_hdr * const prev_element,
 217:C:/Users/stapi/OneDrive/Desktop/GD32VW553/V1_MQTT_OK/GD32VW55X_Wifi_BLE_SDK/GD32VW55x_RELEASE_V1.0.2/MSDK/util/src\slist.c ****                           struct list_hdr * const element)
 218:C:/Users/stapi/OneDrive/Desktop/GD32VW553/V1_MQTT_OK/GD32VW55X_Wifi_BLE_SDK/GD32VW55x_RELEASE_V1.0.2/MSDK/util/src\slist.c **** {
 473              		.loc 1 218 1 is_stmt 1
 474              		.cfi_startproc
 475              	.LVL34:
 219:C:/Users/stapi/OneDrive/Desktop/GD32VW553/V1_MQTT_OK/GD32VW55X_Wifi_BLE_SDK/GD32VW55x_RELEASE_V1.0.2/MSDK/util/src\slist.c ****     struct list_hdr *scan = list->first;
 476              		.loc 1 219 5
 218:C:/Users/stapi/OneDrive/Desktop/GD32VW553/V1_MQTT_OK/GD32VW55X_Wifi_BLE_SDK/GD32VW55x_RELEASE_V1.0.2/MSDK/util/src\slist.c ****     struct list_hdr *scan = list->first;
 477              		.loc 1 218 1 is_stmt 0
 478 0000 AE86     		mv	a3,a1
 479              		.loc 1 219 22
 480 0002 1C41     		lw	a5,0(a0)
 481              	.LVL35:
 220:C:/Users/stapi/OneDrive/Desktop/GD32VW553/V1_MQTT_OK/GD32VW55X_Wifi_BLE_SDK/GD32VW55x_RELEASE_V1.0.2/MSDK/util/src\slist.c **** 
 221:C:/Users/stapi/OneDrive/Desktop/GD32VW553/V1_MQTT_OK/GD32VW55X_Wifi_BLE_SDK/GD32VW55x_RELEASE_V1.0.2/MSDK/util/src\slist.c ****     if (prev_element == NULL) {
 482              		.loc 1 221 5 is_stmt 1
 218:C:/Users/stapi/OneDrive/Desktop/GD32VW553/V1_MQTT_OK/GD32VW55X_Wifi_BLE_SDK/GD32VW55x_RELEASE_V1.0.2/MSDK/util/src\slist.c ****     struct list_hdr *scan = list->first;
 483              		.loc 1 218 1 is_stmt 0
 484 0004 B285     		mv	a1,a2
 485              	.LVL36:
 486 0006 2A87     		mv	a4,a0
 487              		.loc 1 221 8
 488 0008 81EA     		bne	a3,zero,.L49
 222:C:/Users/stapi/OneDrive/Desktop/GD32VW553/V1_MQTT_OK/GD32VW55X_Wifi_BLE_SDK/GD32VW55x_RELEASE_V1.0.2/MSDK/util/src\slist.c ****         // Insert the element in front on the list
 223:C:/Users/stapi/OneDrive/Desktop/GD32VW553/V1_MQTT_OK/GD32VW55X_Wifi_BLE_SDK/GD32VW55x_RELEASE_V1.0.2/MSDK/util/src\slist.c ****         list_push_front(list, element);
 489              		.loc 1 223 9 is_stmt 1
 490 000a 17030000 		tail	list_push_front
 490      67000300 
 491              	.LVL37:
 492              	.L52:
 224:C:/Users/stapi/OneDrive/Desktop/GD32VW553/V1_MQTT_OK/GD32VW55X_Wifi_BLE_SDK/GD32VW55x_RELEASE_V1.0.2/MSDK/util/src\slist.c ****     } else {
 225:C:/Users/stapi/OneDrive/Desktop/GD32VW553/V1_MQTT_OK/GD32VW55X_Wifi_BLE_SDK/GD32VW55x_RELEASE_V1.0.2/MSDK/util/src\slist.c ****         // Look for prev_element in the list
 226:C:/Users/stapi/OneDrive/Desktop/GD32VW553/V1_MQTT_OK/GD32VW55X_Wifi_BLE_SDK/GD32VW55x_RELEASE_V1.0.2/MSDK/util/src\slist.c ****         while (scan) {
 227:C:/Users/stapi/OneDrive/Desktop/GD32VW553/V1_MQTT_OK/GD32VW55X_Wifi_BLE_SDK/GD32VW55x_RELEASE_V1.0.2/MSDK/util/src\slist.c ****             if (scan == prev_element) {
 493              		.loc 1 227 13
 494              		.loc 1 227 16 is_stmt 0
 495 0012 6387D700 		beq	a5,a3,.L51
 228:C:/Users/stapi/OneDrive/Desktop/GD32VW553/V1_MQTT_OK/GD32VW55X_Wifi_BLE_SDK/GD32VW55x_RELEASE_V1.0.2/MSDK/util/src\slist.c ****                 break;
 229:C:/Users/stapi/OneDrive/Desktop/GD32VW553/V1_MQTT_OK/GD32VW55X_Wifi_BLE_SDK/GD32VW55x_RELEASE_V1.0.2/MSDK/util/src\slist.c ****             }
 230:C:/Users/stapi/OneDrive/Desktop/GD32VW553/V1_MQTT_OK/GD32VW55X_Wifi_BLE_SDK/GD32VW55x_RELEASE_V1.0.2/MSDK/util/src\slist.c **** 
 231:C:/Users/stapi/OneDrive/Desktop/GD32VW553/V1_MQTT_OK/GD32VW55X_Wifi_BLE_SDK/GD32VW55x_RELEASE_V1.0.2/MSDK/util/src\slist.c ****             // Get next element
 232:C:/Users/stapi/OneDrive/Desktop/GD32VW553/V1_MQTT_OK/GD32VW55X_Wifi_BLE_SDK/GD32VW55x_RELEASE_V1.0.2/MSDK/util/src\slist.c ****             scan = scan->next;
 496              		.loc 1 232 13 is_stmt 1
 497              		.loc 1 232 18 is_stmt 0
 498 0016 9C43     		lw	a5,0(a5)
 499              	.LVL38:
 500              	.L49:
 226:C:/Users/stapi/OneDrive/Desktop/GD32VW553/V1_MQTT_OK/GD32VW55X_Wifi_BLE_SDK/GD32VW55x_RELEASE_V1.0.2/MSDK/util/src\slist.c ****             if (scan == prev_element) {
 501              		.loc 1 226 15 is_stmt 1
 502 0018 EDFF     		bne	a5,zero,.L52
 503 001a 8280     		ret
 504              	.LVL39:
 505              	.L53:
 233:C:/Users/stapi/OneDrive/Desktop/GD32VW553/V1_MQTT_OK/GD32VW55X_Wifi_BLE_SDK/GD32VW55x_RELEASE_V1.0.2/MSDK/util/src\slist.c ****         }
 234:C:/Users/stapi/OneDrive/Desktop/GD32VW553/V1_MQTT_OK/GD32VW55X_Wifi_BLE_SDK/GD32VW55x_RELEASE_V1.0.2/MSDK/util/src\slist.c **** 
 235:C:/Users/stapi/OneDrive/Desktop/GD32VW553/V1_MQTT_OK/GD32VW55X_Wifi_BLE_SDK/GD32VW55x_RELEASE_V1.0.2/MSDK/util/src\slist.c ****         // If prev_element has been found, insert element
 236:C:/Users/stapi/OneDrive/Desktop/GD32VW553/V1_MQTT_OK/GD32VW55X_Wifi_BLE_SDK/GD32VW55x_RELEASE_V1.0.2/MSDK/util/src\slist.c ****         if (scan) {
 237:C:/Users/stapi/OneDrive/Desktop/GD32VW553/V1_MQTT_OK/GD32VW55X_Wifi_BLE_SDK/GD32VW55x_RELEASE_V1.0.2/MSDK/util/src\slist.c ****             element->next = prev_element->next;
 238:C:/Users/stapi/OneDrive/Desktop/GD32VW553/V1_MQTT_OK/GD32VW55X_Wifi_BLE_SDK/GD32VW55x_RELEASE_V1.0.2/MSDK/util/src\slist.c ****             prev_element->next = element;
 239:C:/Users/stapi/OneDrive/Desktop/GD32VW553/V1_MQTT_OK/GD32VW55X_Wifi_BLE_SDK/GD32VW55x_RELEASE_V1.0.2/MSDK/util/src\slist.c **** 
 240:C:/Users/stapi/OneDrive/Desktop/GD32VW553/V1_MQTT_OK/GD32VW55X_Wifi_BLE_SDK/GD32VW55x_RELEASE_V1.0.2/MSDK/util/src\slist.c ****             if (list->last == prev_element) {
 241:C:/Users/stapi/OneDrive/Desktop/GD32VW553/V1_MQTT_OK/GD32VW55X_Wifi_BLE_SDK/GD32VW55x_RELEASE_V1.0.2/MSDK/util/src\slist.c ****                 list->last = element;
 506              		.loc 1 241 17
 507              		.loc 1 241 28 is_stmt 0
 508 001c 4CC3     		sw	a1,4(a4)
 242:C:/Users/stapi/OneDrive/Desktop/GD32VW553/V1_MQTT_OK/GD32VW55X_Wifi_BLE_SDK/GD32VW55x_RELEASE_V1.0.2/MSDK/util/src\slist.c ****             }
 243:C:/Users/stapi/OneDrive/Desktop/GD32VW553/V1_MQTT_OK/GD32VW55X_Wifi_BLE_SDK/GD32VW55x_RELEASE_V1.0.2/MSDK/util/src\slist.c ****         }
 244:C:/Users/stapi/OneDrive/Desktop/GD32VW553/V1_MQTT_OK/GD32VW55X_Wifi_BLE_SDK/GD32VW55x_RELEASE_V1.0.2/MSDK/util/src\slist.c ****     }
 245:C:/Users/stapi/OneDrive/Desktop/GD32VW553/V1_MQTT_OK/GD32VW55X_Wifi_BLE_SDK/GD32VW55x_RELEASE_V1.0.2/MSDK/util/src\slist.c **** }
 509              		.loc 1 245 1
 510 001e 8280     		ret
 511              	.LVL40:
 512              	.L51:
 236:C:/Users/stapi/OneDrive/Desktop/GD32VW553/V1_MQTT_OK/GD32VW55X_Wifi_BLE_SDK/GD32VW55x_RELEASE_V1.0.2/MSDK/util/src\slist.c ****             element->next = prev_element->next;
 513              		.loc 1 236 9 is_stmt 1
 237:C:/Users/stapi/OneDrive/Desktop/GD32VW553/V1_MQTT_OK/GD32VW55X_Wifi_BLE_SDK/GD32VW55x_RELEASE_V1.0.2/MSDK/util/src\slist.c ****             prev_element->next = element;
 514              		.loc 1 237 13
 237:C:/Users/stapi/OneDrive/Desktop/GD32VW553/V1_MQTT_OK/GD32VW55X_Wifi_BLE_SDK/GD32VW55x_RELEASE_V1.0.2/MSDK/util/src\slist.c ****             prev_element->next = element;
 515              		.loc 1 237 41 is_stmt 0
 516 0020 9443     		lw	a3,0(a5)
 517              	.LVL41:
 237:C:/Users/stapi/OneDrive/Desktop/GD32VW553/V1_MQTT_OK/GD32VW55X_Wifi_BLE_SDK/GD32VW55x_RELEASE_V1.0.2/MSDK/util/src\slist.c ****             prev_element->next = element;
 518              		.loc 1 237 27
 519 0022 94C1     		sw	a3,0(a1)
 238:C:/Users/stapi/OneDrive/Desktop/GD32VW553/V1_MQTT_OK/GD32VW55X_Wifi_BLE_SDK/GD32VW55x_RELEASE_V1.0.2/MSDK/util/src\slist.c **** 
 520              		.loc 1 238 13 is_stmt 1
 240:C:/Users/stapi/OneDrive/Desktop/GD32VW553/V1_MQTT_OK/GD32VW55X_Wifi_BLE_SDK/GD32VW55x_RELEASE_V1.0.2/MSDK/util/src\slist.c ****                 list->last = element;
 521              		.loc 1 240 16 is_stmt 0
 522 0024 5443     		lw	a3,4(a4)
 238:C:/Users/stapi/OneDrive/Desktop/GD32VW553/V1_MQTT_OK/GD32VW55X_Wifi_BLE_SDK/GD32VW55x_RELEASE_V1.0.2/MSDK/util/src\slist.c **** 
 523              		.loc 1 238 32
 524 0026 8CC3     		sw	a1,0(a5)
 240:C:/Users/stapi/OneDrive/Desktop/GD32VW553/V1_MQTT_OK/GD32VW55X_Wifi_BLE_SDK/GD32VW55x_RELEASE_V1.0.2/MSDK/util/src\slist.c ****                 list->last = element;
 525              		.loc 1 240 13 is_stmt 1
 240:C:/Users/stapi/OneDrive/Desktop/GD32VW553/V1_MQTT_OK/GD32VW55X_Wifi_BLE_SDK/GD32VW55x_RELEASE_V1.0.2/MSDK/util/src\slist.c ****                 list->last = element;
 526              		.loc 1 240 16 is_stmt 0
 527 0028 E38AF6FE 		beq	a3,a5,.L53
 528 002c 8280     		ret
 529              		.cfi_endproc
 530              	.LFE14:
 532              		.section	.text.list_insert_after_fast,"ax",@progbits
 533              		.align	1
 534              		.globl	list_insert_after_fast
 536              	list_insert_after_fast:
 537              	.LFB15:
 246:C:/Users/stapi/OneDrive/Desktop/GD32VW553/V1_MQTT_OK/GD32VW55X_Wifi_BLE_SDK/GD32VW55x_RELEASE_V1.0.2/MSDK/util/src\slist.c **** 
 247:C:/Users/stapi/OneDrive/Desktop/GD32VW553/V1_MQTT_OK/GD32VW55X_Wifi_BLE_SDK/GD32VW55x_RELEASE_V1.0.2/MSDK/util/src\slist.c **** void list_insert_after_fast(struct list * const list,
 248:C:/Users/stapi/OneDrive/Desktop/GD32VW553/V1_MQTT_OK/GD32VW55X_Wifi_BLE_SDK/GD32VW55x_RELEASE_V1.0.2/MSDK/util/src\slist.c ****                                struct list_hdr * const prev_element,
 249:C:/Users/stapi/OneDrive/Desktop/GD32VW553/V1_MQTT_OK/GD32VW55X_Wifi_BLE_SDK/GD32VW55x_RELEASE_V1.0.2/MSDK/util/src\slist.c ****                                struct list_hdr * const element)
 250:C:/Users/stapi/OneDrive/Desktop/GD32VW553/V1_MQTT_OK/GD32VW55X_Wifi_BLE_SDK/GD32VW55x_RELEASE_V1.0.2/MSDK/util/src\slist.c **** {
 538              		.loc 1 250 1 is_stmt 1
 539              		.cfi_startproc
 540              	.LVL42:
 251:C:/Users/stapi/OneDrive/Desktop/GD32VW553/V1_MQTT_OK/GD32VW55X_Wifi_BLE_SDK/GD32VW55x_RELEASE_V1.0.2/MSDK/util/src\slist.c ****     if (prev_element == NULL) {
 541              		.loc 1 251 5
 250:C:/Users/stapi/OneDrive/Desktop/GD32VW553/V1_MQTT_OK/GD32VW55X_Wifi_BLE_SDK/GD32VW55x_RELEASE_V1.0.2/MSDK/util/src\slist.c ****     if (prev_element == NULL) {
 542              		.loc 1 250 1 is_stmt 0
 543 0000 AE87     		mv	a5,a1
 544 0002 B285     		mv	a1,a2
 545              	.LVL43:
 546              		.loc 1 251 8
 547 0004 89E7     		bne	a5,zero,.L62
 252:C:/Users/stapi/OneDrive/Desktop/GD32VW553/V1_MQTT_OK/GD32VW55X_Wifi_BLE_SDK/GD32VW55x_RELEASE_V1.0.2/MSDK/util/src\slist.c ****         // Insert the element in front on the list
 253:C:/Users/stapi/OneDrive/Desktop/GD32VW553/V1_MQTT_OK/GD32VW55X_Wifi_BLE_SDK/GD32VW55x_RELEASE_V1.0.2/MSDK/util/src\slist.c ****         list_push_front(list, element);
 548              		.loc 1 253 9 is_stmt 1
 549 0006 17030000 		tail	list_push_front
 549      67000300 
 550              	.LVL44:
 551              	.L62:
 254:C:/Users/stapi/OneDrive/Desktop/GD32VW553/V1_MQTT_OK/GD32VW55X_Wifi_BLE_SDK/GD32VW55x_RELEASE_V1.0.2/MSDK/util/src\slist.c ****     } else {
 255:C:/Users/stapi/OneDrive/Desktop/GD32VW553/V1_MQTT_OK/GD32VW55X_Wifi_BLE_SDK/GD32VW55x_RELEASE_V1.0.2/MSDK/util/src\slist.c ****         element->next = prev_element->next;
 552              		.loc 1 255 9
 553              		.loc 1 255 37 is_stmt 0
 554 000e 9443     		lw	a3,0(a5)
 555              		.loc 1 255 23
 556 0010 14C2     		sw	a3,0(a2)
 256:C:/Users/stapi/OneDrive/Desktop/GD32VW553/V1_MQTT_OK/GD32VW55X_Wifi_BLE_SDK/GD32VW55x_RELEASE_V1.0.2/MSDK/util/src\slist.c ****         prev_element->next = element;
 557              		.loc 1 256 9 is_stmt 1
 257:C:/Users/stapi/OneDrive/Desktop/GD32VW553/V1_MQTT_OK/GD32VW55X_Wifi_BLE_SDK/GD32VW55x_RELEASE_V1.0.2/MSDK/util/src\slist.c **** 
 258:C:/Users/stapi/OneDrive/Desktop/GD32VW553/V1_MQTT_OK/GD32VW55X_Wifi_BLE_SDK/GD32VW55x_RELEASE_V1.0.2/MSDK/util/src\slist.c ****         if (list->last == prev_element)
 558              		.loc 1 258 12 is_stmt 0
 559 0012 5441     		lw	a3,4(a0)
 256:C:/Users/stapi/OneDrive/Desktop/GD32VW553/V1_MQTT_OK/GD32VW55X_Wifi_BLE_SDK/GD32VW55x_RELEASE_V1.0.2/MSDK/util/src\slist.c ****         prev_element->next = element;
 560              		.loc 1 256 28
 561 0014 90C3     		sw	a2,0(a5)
 562              		.loc 1 258 9 is_stmt 1
 563              		.loc 1 258 12 is_stmt 0
 564 0016 6394F600 		bne	a3,a5,.L65
 259:C:/Users/stapi/OneDrive/Desktop/GD32VW553/V1_MQTT_OK/GD32VW55X_Wifi_BLE_SDK/GD32VW55x_RELEASE_V1.0.2/MSDK/util/src\slist.c ****             list->last = element;
 565              		.loc 1 259 13 is_stmt 1
 566              		.loc 1 259 24 is_stmt 0
 567 001a 50C1     		sw	a2,4(a0)
 260:C:/Users/stapi/OneDrive/Desktop/GD32VW553/V1_MQTT_OK/GD32VW55X_Wifi_BLE_SDK/GD32VW55x_RELEASE_V1.0.2/MSDK/util/src\slist.c ****     }
 261:C:/Users/stapi/OneDrive/Desktop/GD32VW553/V1_MQTT_OK/GD32VW55X_Wifi_BLE_SDK/GD32VW55x_RELEASE_V1.0.2/MSDK/util/src\slist.c **** }
 568              		.loc 1 261 1
 569 001c 8280     		ret
 570              	.L65:
 571 001e 8280     		ret
 572              		.cfi_endproc
 573              	.LFE15:
 575              		.section	.text.list_insert_before,"ax",@progbits
 576              		.align	1
 577              		.globl	list_insert_before
 579              	list_insert_before:
 580              	.LFB16:
 262:C:/Users/stapi/OneDrive/Desktop/GD32VW553/V1_MQTT_OK/GD32VW55X_Wifi_BLE_SDK/GD32VW55x_RELEASE_V1.0.2/MSDK/util/src\slist.c **** 
 263:C:/Users/stapi/OneDrive/Desktop/GD32VW553/V1_MQTT_OK/GD32VW55X_Wifi_BLE_SDK/GD32VW55x_RELEASE_V1.0.2/MSDK/util/src\slist.c **** void list_insert_before(struct list * const list,
 264:C:/Users/stapi/OneDrive/Desktop/GD32VW553/V1_MQTT_OK/GD32VW55X_Wifi_BLE_SDK/GD32VW55x_RELEASE_V1.0.2/MSDK/util/src\slist.c ****                            struct list_hdr * const next_element,
 265:C:/Users/stapi/OneDrive/Desktop/GD32VW553/V1_MQTT_OK/GD32VW55X_Wifi_BLE_SDK/GD32VW55x_RELEASE_V1.0.2/MSDK/util/src\slist.c ****                            struct list_hdr * const element)
 266:C:/Users/stapi/OneDrive/Desktop/GD32VW553/V1_MQTT_OK/GD32VW55X_Wifi_BLE_SDK/GD32VW55x_RELEASE_V1.0.2/MSDK/util/src\slist.c **** {
 581              		.loc 1 266 1 is_stmt 1
 582              		.cfi_startproc
 583              	.LVL45:
 584 0000 17030000 		call	t0,__riscv_save_0
 584      E7020300 
 585              		.cfi_offset 1, -4
 586              		.cfi_def_cfa_offset 16
 267:C:/Users/stapi/OneDrive/Desktop/GD32VW553/V1_MQTT_OK/GD32VW55X_Wifi_BLE_SDK/GD32VW55x_RELEASE_V1.0.2/MSDK/util/src\slist.c ****     if (next_element == NULL) {
 587              		.loc 1 267 5
 266:C:/Users/stapi/OneDrive/Desktop/GD32VW553/V1_MQTT_OK/GD32VW55X_Wifi_BLE_SDK/GD32VW55x_RELEASE_V1.0.2/MSDK/util/src\slist.c ****     if (next_element == NULL) {
 588              		.loc 1 266 1 is_stmt 0
 589 0008 AE87     		mv	a5,a1
 590 000a B285     		mv	a1,a2
 591              	.LVL46:
 592              		.loc 1 267 8
 593 000c 89EB     		bne	a5,zero,.L69
 268:C:/Users/stapi/OneDrive/Desktop/GD32VW553/V1_MQTT_OK/GD32VW55X_Wifi_BLE_SDK/GD32VW55x_RELEASE_V1.0.2/MSDK/util/src\slist.c ****         // Insert the element at the end of the list
 269:C:/Users/stapi/OneDrive/Desktop/GD32VW553/V1_MQTT_OK/GD32VW55X_Wifi_BLE_SDK/GD32VW55x_RELEASE_V1.0.2/MSDK/util/src\slist.c ****         list_push_back(list, element);
 594              		.loc 1 269 9 is_stmt 1
 595 000e 97000000 		call	list_push_back
 595      E7800000 
 596              	.LVL47:
 597              	.L68:
 270:C:/Users/stapi/OneDrive/Desktop/GD32VW553/V1_MQTT_OK/GD32VW55X_Wifi_BLE_SDK/GD32VW55x_RELEASE_V1.0.2/MSDK/util/src\slist.c ****     } else if (next_element == list->first) {
 271:C:/Users/stapi/OneDrive/Desktop/GD32VW553/V1_MQTT_OK/GD32VW55X_Wifi_BLE_SDK/GD32VW55x_RELEASE_V1.0.2/MSDK/util/src\slist.c ****         // Insert the element in front of the list
 272:C:/Users/stapi/OneDrive/Desktop/GD32VW553/V1_MQTT_OK/GD32VW55X_Wifi_BLE_SDK/GD32VW55x_RELEASE_V1.0.2/MSDK/util/src\slist.c ****         list_push_front(list, element);
 273:C:/Users/stapi/OneDrive/Desktop/GD32VW553/V1_MQTT_OK/GD32VW55X_Wifi_BLE_SDK/GD32VW55x_RELEASE_V1.0.2/MSDK/util/src\slist.c ****     } else {
 274:C:/Users/stapi/OneDrive/Desktop/GD32VW553/V1_MQTT_OK/GD32VW55X_Wifi_BLE_SDK/GD32VW55x_RELEASE_V1.0.2/MSDK/util/src\slist.c ****         struct list_hdr *scan = list->first;
 275:C:/Users/stapi/OneDrive/Desktop/GD32VW553/V1_MQTT_OK/GD32VW55X_Wifi_BLE_SDK/GD32VW55x_RELEASE_V1.0.2/MSDK/util/src\slist.c **** 
 276:C:/Users/stapi/OneDrive/Desktop/GD32VW553/V1_MQTT_OK/GD32VW55X_Wifi_BLE_SDK/GD32VW55x_RELEASE_V1.0.2/MSDK/util/src\slist.c ****         // Look for next_element in the list
 277:C:/Users/stapi/OneDrive/Desktop/GD32VW553/V1_MQTT_OK/GD32VW55X_Wifi_BLE_SDK/GD32VW55x_RELEASE_V1.0.2/MSDK/util/src\slist.c ****         while (scan) {
 278:C:/Users/stapi/OneDrive/Desktop/GD32VW553/V1_MQTT_OK/GD32VW55X_Wifi_BLE_SDK/GD32VW55x_RELEASE_V1.0.2/MSDK/util/src\slist.c ****             if (scan->next == next_element) {
 279:C:/Users/stapi/OneDrive/Desktop/GD32VW553/V1_MQTT_OK/GD32VW55X_Wifi_BLE_SDK/GD32VW55x_RELEASE_V1.0.2/MSDK/util/src\slist.c ****                 break;
 280:C:/Users/stapi/OneDrive/Desktop/GD32VW553/V1_MQTT_OK/GD32VW55X_Wifi_BLE_SDK/GD32VW55x_RELEASE_V1.0.2/MSDK/util/src\slist.c ****             }
 281:C:/Users/stapi/OneDrive/Desktop/GD32VW553/V1_MQTT_OK/GD32VW55X_Wifi_BLE_SDK/GD32VW55x_RELEASE_V1.0.2/MSDK/util/src\slist.c **** 
 282:C:/Users/stapi/OneDrive/Desktop/GD32VW553/V1_MQTT_OK/GD32VW55X_Wifi_BLE_SDK/GD32VW55x_RELEASE_V1.0.2/MSDK/util/src\slist.c ****             // Get next element
 283:C:/Users/stapi/OneDrive/Desktop/GD32VW553/V1_MQTT_OK/GD32VW55X_Wifi_BLE_SDK/GD32VW55x_RELEASE_V1.0.2/MSDK/util/src\slist.c ****             scan = scan->next;
 284:C:/Users/stapi/OneDrive/Desktop/GD32VW553/V1_MQTT_OK/GD32VW55X_Wifi_BLE_SDK/GD32VW55x_RELEASE_V1.0.2/MSDK/util/src\slist.c ****         }
 285:C:/Users/stapi/OneDrive/Desktop/GD32VW553/V1_MQTT_OK/GD32VW55X_Wifi_BLE_SDK/GD32VW55x_RELEASE_V1.0.2/MSDK/util/src\slist.c **** 
 286:C:/Users/stapi/OneDrive/Desktop/GD32VW553/V1_MQTT_OK/GD32VW55X_Wifi_BLE_SDK/GD32VW55x_RELEASE_V1.0.2/MSDK/util/src\slist.c ****         // Insert element after scan
 287:C:/Users/stapi/OneDrive/Desktop/GD32VW553/V1_MQTT_OK/GD32VW55X_Wifi_BLE_SDK/GD32VW55x_RELEASE_V1.0.2/MSDK/util/src\slist.c ****         if (scan) {
 288:C:/Users/stapi/OneDrive/Desktop/GD32VW553/V1_MQTT_OK/GD32VW55X_Wifi_BLE_SDK/GD32VW55x_RELEASE_V1.0.2/MSDK/util/src\slist.c ****             element->next = next_element;
 289:C:/Users/stapi/OneDrive/Desktop/GD32VW553/V1_MQTT_OK/GD32VW55X_Wifi_BLE_SDK/GD32VW55x_RELEASE_V1.0.2/MSDK/util/src\slist.c ****             scan->next = element;
 290:C:/Users/stapi/OneDrive/Desktop/GD32VW553/V1_MQTT_OK/GD32VW55X_Wifi_BLE_SDK/GD32VW55x_RELEASE_V1.0.2/MSDK/util/src\slist.c ****         }
 291:C:/Users/stapi/OneDrive/Desktop/GD32VW553/V1_MQTT_OK/GD32VW55X_Wifi_BLE_SDK/GD32VW55x_RELEASE_V1.0.2/MSDK/util/src\slist.c ****     }
 292:C:/Users/stapi/OneDrive/Desktop/GD32VW553/V1_MQTT_OK/GD32VW55X_Wifi_BLE_SDK/GD32VW55x_RELEASE_V1.0.2/MSDK/util/src\slist.c **** }
 598              		.loc 1 292 1 is_stmt 0
 599 0016 17030000 		tail	__riscv_restore_0
 599      67000300 
 600              		.cfi_remember_state
 601              		.cfi_restore 1
 602              		.cfi_def_cfa_offset 0
 603              	.LVL48:
 604              	.L69:
 605              		.cfi_restore_state
 270:C:/Users/stapi/OneDrive/Desktop/GD32VW553/V1_MQTT_OK/GD32VW55X_Wifi_BLE_SDK/GD32VW55x_RELEASE_V1.0.2/MSDK/util/src\slist.c ****     } else if (next_element == list->first) {
 606              		.loc 1 270 12 is_stmt 1
 270:C:/Users/stapi/OneDrive/Desktop/GD32VW553/V1_MQTT_OK/GD32VW55X_Wifi_BLE_SDK/GD32VW55x_RELEASE_V1.0.2/MSDK/util/src\slist.c ****     } else if (next_element == list->first) {
 607              		.loc 1 270 36 is_stmt 0
 608 001e 1841     		lw	a4,0(a0)
 270:C:/Users/stapi/OneDrive/Desktop/GD32VW553/V1_MQTT_OK/GD32VW55X_Wifi_BLE_SDK/GD32VW55x_RELEASE_V1.0.2/MSDK/util/src\slist.c ****     } else if (next_element == list->first) {
 609              		.loc 1 270 15
 610 0020 631BF700 		bne	a4,a5,.L71
 272:C:/Users/stapi/OneDrive/Desktop/GD32VW553/V1_MQTT_OK/GD32VW55X_Wifi_BLE_SDK/GD32VW55x_RELEASE_V1.0.2/MSDK/util/src\slist.c ****     } else {
 611              		.loc 1 272 9 is_stmt 1
 612 0024 97000000 		call	list_push_front
 612      E7800000 
 613              	.LVL49:
 614 002c EDB7     		j	.L68
 615              	.LVL50:
 616              	.L73:
 617              	.LBB26:
 278:C:/Users/stapi/OneDrive/Desktop/GD32VW553/V1_MQTT_OK/GD32VW55X_Wifi_BLE_SDK/GD32VW55x_RELEASE_V1.0.2/MSDK/util/src\slist.c ****                 break;
 618              		.loc 1 278 13
 278:C:/Users/stapi/OneDrive/Desktop/GD32VW553/V1_MQTT_OK/GD32VW55X_Wifi_BLE_SDK/GD32VW55x_RELEASE_V1.0.2/MSDK/util/src\slist.c ****                 break;
 619              		.loc 1 278 21 is_stmt 0
 620 002e 1443     		lw	a3,0(a4)
 278:C:/Users/stapi/OneDrive/Desktop/GD32VW553/V1_MQTT_OK/GD32VW55X_Wifi_BLE_SDK/GD32VW55x_RELEASE_V1.0.2/MSDK/util/src\slist.c ****                 break;
 621              		.loc 1 278 16
 622 0030 6385F600 		beq	a3,a5,.L72
 623 0034 3687     		mv	a4,a3
 624              	.LVL51:
 625              	.L71:
 277:C:/Users/stapi/OneDrive/Desktop/GD32VW553/V1_MQTT_OK/GD32VW55X_Wifi_BLE_SDK/GD32VW55x_RELEASE_V1.0.2/MSDK/util/src\slist.c ****             if (scan->next == next_element) {
 626              		.loc 1 277 15 is_stmt 1
 627 0036 65FF     		bne	a4,zero,.L73
 628 0038 F9BF     		j	.L68
 629              	.L72:
 287:C:/Users/stapi/OneDrive/Desktop/GD32VW553/V1_MQTT_OK/GD32VW55X_Wifi_BLE_SDK/GD32VW55x_RELEASE_V1.0.2/MSDK/util/src\slist.c ****             element->next = next_element;
 630              		.loc 1 287 9
 288:C:/Users/stapi/OneDrive/Desktop/GD32VW553/V1_MQTT_OK/GD32VW55X_Wifi_BLE_SDK/GD32VW55x_RELEASE_V1.0.2/MSDK/util/src\slist.c ****             scan->next = element;
 631              		.loc 1 288 13
 288:C:/Users/stapi/OneDrive/Desktop/GD32VW553/V1_MQTT_OK/GD32VW55X_Wifi_BLE_SDK/GD32VW55x_RELEASE_V1.0.2/MSDK/util/src\slist.c ****             scan->next = element;
 632              		.loc 1 288 27 is_stmt 0
 633 003a 9CC1     		sw	a5,0(a1)
 289:C:/Users/stapi/OneDrive/Desktop/GD32VW553/V1_MQTT_OK/GD32VW55X_Wifi_BLE_SDK/GD32VW55x_RELEASE_V1.0.2/MSDK/util/src\slist.c ****         }
 634              		.loc 1 289 13 is_stmt 1
 289:C:/Users/stapi/OneDrive/Desktop/GD32VW553/V1_MQTT_OK/GD32VW55X_Wifi_BLE_SDK/GD32VW55x_RELEASE_V1.0.2/MSDK/util/src\slist.c ****         }
 635              		.loc 1 289 24 is_stmt 0
 636 003c 0CC3     		sw	a1,0(a4)
 637 003e E1BF     		j	.L68
 638              	.LBE26:
 639              		.cfi_endproc
 640              	.LFE16:
 642              		.section	.text.list_concat,"ax",@progbits
 643              		.align	1
 644              		.globl	list_concat
 646              	list_concat:
 647              	.LFB17:
 293:C:/Users/stapi/OneDrive/Desktop/GD32VW553/V1_MQTT_OK/GD32VW55X_Wifi_BLE_SDK/GD32VW55x_RELEASE_V1.0.2/MSDK/util/src\slist.c **** 
 294:C:/Users/stapi/OneDrive/Desktop/GD32VW553/V1_MQTT_OK/GD32VW55X_Wifi_BLE_SDK/GD32VW55x_RELEASE_V1.0.2/MSDK/util/src\slist.c **** void list_concat(struct list *list1, struct list *list2)
 295:C:/Users/stapi/OneDrive/Desktop/GD32VW553/V1_MQTT_OK/GD32VW55X_Wifi_BLE_SDK/GD32VW55x_RELEASE_V1.0.2/MSDK/util/src\slist.c **** {
 648              		.loc 1 295 1 is_stmt 1
 649              		.cfi_startproc
 650              	.LVL52:
 296:C:/Users/stapi/OneDrive/Desktop/GD32VW553/V1_MQTT_OK/GD32VW55X_Wifi_BLE_SDK/GD32VW55x_RELEASE_V1.0.2/MSDK/util/src\slist.c ****     // If list2 is empty, don't do anything
 297:C:/Users/stapi/OneDrive/Desktop/GD32VW553/V1_MQTT_OK/GD32VW55X_Wifi_BLE_SDK/GD32VW55x_RELEASE_V1.0.2/MSDK/util/src\slist.c ****     if (list2->first != NULL) {
 651              		.loc 1 297 5
 652              		.loc 1 297 14 is_stmt 0
 653 0000 9C41     		lw	a5,0(a1)
 654              		.loc 1 297 8
 655 0002 81CB     		beq	a5,zero,.L76
 298:C:/Users/stapi/OneDrive/Desktop/GD32VW553/V1_MQTT_OK/GD32VW55X_Wifi_BLE_SDK/GD32VW55x_RELEASE_V1.0.2/MSDK/util/src\slist.c ****         // Check if list1 is empty
 299:C:/Users/stapi/OneDrive/Desktop/GD32VW553/V1_MQTT_OK/GD32VW55X_Wifi_BLE_SDK/GD32VW55x_RELEASE_V1.0.2/MSDK/util/src\slist.c ****         if (list1->first == NULL) {
 656              		.loc 1 299 9 is_stmt 1
 657              		.loc 1 299 12 is_stmt 0
 658 0004 1841     		lw	a4,0(a0)
 659 0006 19E7     		bne	a4,zero,.L78
 300:C:/Users/stapi/OneDrive/Desktop/GD32VW553/V1_MQTT_OK/GD32VW55X_Wifi_BLE_SDK/GD32VW55x_RELEASE_V1.0.2/MSDK/util/src\slist.c ****             // If list1 is empty, list1 becomes list2
 301:C:/Users/stapi/OneDrive/Desktop/GD32VW553/V1_MQTT_OK/GD32VW55X_Wifi_BLE_SDK/GD32VW55x_RELEASE_V1.0.2/MSDK/util/src\slist.c ****             *list1 = *list2;
 660              		.loc 1 301 13 is_stmt 1
 661              		.loc 1 301 20 is_stmt 0
 662 0008 1CC1     		sw	a5,0(a0)
 663              	.L83:
 302:C:/Users/stapi/OneDrive/Desktop/GD32VW553/V1_MQTT_OK/GD32VW55X_Wifi_BLE_SDK/GD32VW55x_RELEASE_V1.0.2/MSDK/util/src\slist.c ****         } else {
 303:C:/Users/stapi/OneDrive/Desktop/GD32VW553/V1_MQTT_OK/GD32VW55X_Wifi_BLE_SDK/GD32VW55x_RELEASE_V1.0.2/MSDK/util/src\slist.c ****             // Otherwise, append list2 to list1
 304:C:/Users/stapi/OneDrive/Desktop/GD32VW553/V1_MQTT_OK/GD32VW55X_Wifi_BLE_SDK/GD32VW55x_RELEASE_V1.0.2/MSDK/util/src\slist.c ****             list1->last->next = list2->first;
 305:C:/Users/stapi/OneDrive/Desktop/GD32VW553/V1_MQTT_OK/GD32VW55X_Wifi_BLE_SDK/GD32VW55x_RELEASE_V1.0.2/MSDK/util/src\slist.c ****             list1->last = list2->last;
 664              		.loc 1 305 13 is_stmt 1
 665              		.loc 1 305 32 is_stmt 0
 666 000a DC41     		lw	a5,4(a1)
 667              		.loc 1 305 25
 668 000c 5CC1     		sw	a5,4(a0)
 306:C:/Users/stapi/OneDrive/Desktop/GD32VW553/V1_MQTT_OK/GD32VW55X_Wifi_BLE_SDK/GD32VW55x_RELEASE_V1.0.2/MSDK/util/src\slist.c ****         }
 307:C:/Users/stapi/OneDrive/Desktop/GD32VW553/V1_MQTT_OK/GD32VW55X_Wifi_BLE_SDK/GD32VW55x_RELEASE_V1.0.2/MSDK/util/src\slist.c ****         // Clear list2
 308:C:/Users/stapi/OneDrive/Desktop/GD32VW553/V1_MQTT_OK/GD32VW55X_Wifi_BLE_SDK/GD32VW55x_RELEASE_V1.0.2/MSDK/util/src\slist.c ****         list2->first = NULL;
 669              		.loc 1 308 9 is_stmt 1
 670              		.loc 1 308 22 is_stmt 0
 671 000e 23A00500 		sw	zero,0(a1)
 672              	.L76:
 309:C:/Users/stapi/OneDrive/Desktop/GD32VW553/V1_MQTT_OK/GD32VW55X_Wifi_BLE_SDK/GD32VW55x_RELEASE_V1.0.2/MSDK/util/src\slist.c ****     }
 310:C:/Users/stapi/OneDrive/Desktop/GD32VW553/V1_MQTT_OK/GD32VW55X_Wifi_BLE_SDK/GD32VW55x_RELEASE_V1.0.2/MSDK/util/src\slist.c **** }
 673              		.loc 1 310 1
 674 0012 8280     		ret
 675              	.L78:
 304:C:/Users/stapi/OneDrive/Desktop/GD32VW553/V1_MQTT_OK/GD32VW55X_Wifi_BLE_SDK/GD32VW55x_RELEASE_V1.0.2/MSDK/util/src\slist.c ****             list1->last = list2->last;
 676              		.loc 1 304 13 is_stmt 1
 304:C:/Users/stapi/OneDrive/Desktop/GD32VW553/V1_MQTT_OK/GD32VW55X_Wifi_BLE_SDK/GD32VW55x_RELEASE_V1.0.2/MSDK/util/src\slist.c ****             list1->last = list2->last;
 677              		.loc 1 304 31 is_stmt 0
 678 0014 5841     		lw	a4,4(a0)
 679 0016 1CC3     		sw	a5,0(a4)
 680 0018 CDBF     		j	.L83
 681              		.cfi_endproc
 682              	.LFE17:
 684              		.section	.text.list_remove,"ax",@progbits
 685              		.align	1
 686              		.globl	list_remove
 688              	list_remove:
 689              	.LFB18:
 311:C:/Users/stapi/OneDrive/Desktop/GD32VW553/V1_MQTT_OK/GD32VW55X_Wifi_BLE_SDK/GD32VW55x_RELEASE_V1.0.2/MSDK/util/src\slist.c **** 
 312:C:/Users/stapi/OneDrive/Desktop/GD32VW553/V1_MQTT_OK/GD32VW55X_Wifi_BLE_SDK/GD32VW55x_RELEASE_V1.0.2/MSDK/util/src\slist.c **** void list_remove(struct list *list, struct list_hdr *prev_element, struct list_hdr *element)
 313:C:/Users/stapi/OneDrive/Desktop/GD32VW553/V1_MQTT_OK/GD32VW55X_Wifi_BLE_SDK/GD32VW55x_RELEASE_V1.0.2/MSDK/util/src\slist.c **** {
 690              		.loc 1 313 1 is_stmt 1
 691              		.cfi_startproc
 692              	.LVL53:
 314:C:/Users/stapi/OneDrive/Desktop/GD32VW553/V1_MQTT_OK/GD32VW55X_Wifi_BLE_SDK/GD32VW55x_RELEASE_V1.0.2/MSDK/util/src\slist.c ****     if (prev_element == NULL) {
 693              		.loc 1 314 5
 315:C:/Users/stapi/OneDrive/Desktop/GD32VW553/V1_MQTT_OK/GD32VW55X_Wifi_BLE_SDK/GD32VW55x_RELEASE_V1.0.2/MSDK/util/src\slist.c ****         list->first = element->next;
 694              		.loc 1 315 30 is_stmt 0
 695 0000 1C42     		lw	a5,0(a2)
 314:C:/Users/stapi/OneDrive/Desktop/GD32VW553/V1_MQTT_OK/GD32VW55X_Wifi_BLE_SDK/GD32VW55x_RELEASE_V1.0.2/MSDK/util/src\slist.c ****     if (prev_element == NULL) {
 696              		.loc 1 314 8
 697 0002 89E9     		bne	a1,zero,.L85
 698              		.loc 1 315 9 is_stmt 1
 699              		.loc 1 315 21 is_stmt 0
 700 0004 1CC1     		sw	a5,0(a0)
 701              	.L86:
 316:C:/Users/stapi/OneDrive/Desktop/GD32VW553/V1_MQTT_OK/GD32VW55X_Wifi_BLE_SDK/GD32VW55x_RELEASE_V1.0.2/MSDK/util/src\slist.c ****     } else {
 317:C:/Users/stapi/OneDrive/Desktop/GD32VW553/V1_MQTT_OK/GD32VW55X_Wifi_BLE_SDK/GD32VW55x_RELEASE_V1.0.2/MSDK/util/src\slist.c ****         prev_element->next = element->next;
 318:C:/Users/stapi/OneDrive/Desktop/GD32VW553/V1_MQTT_OK/GD32VW55X_Wifi_BLE_SDK/GD32VW55x_RELEASE_V1.0.2/MSDK/util/src\slist.c ****     }
 319:C:/Users/stapi/OneDrive/Desktop/GD32VW553/V1_MQTT_OK/GD32VW55X_Wifi_BLE_SDK/GD32VW55x_RELEASE_V1.0.2/MSDK/util/src\slist.c **** 
 320:C:/Users/stapi/OneDrive/Desktop/GD32VW553/V1_MQTT_OK/GD32VW55X_Wifi_BLE_SDK/GD32VW55x_RELEASE_V1.0.2/MSDK/util/src\slist.c ****     if (list->last == element)
 702              		.loc 1 320 5 is_stmt 1
 703              		.loc 1 320 8 is_stmt 0
 704 0006 5C41     		lw	a5,4(a0)
 705 0008 6393C700 		bne	a5,a2,.L87
 321:C:/Users/stapi/OneDrive/Desktop/GD32VW553/V1_MQTT_OK/GD32VW55X_Wifi_BLE_SDK/GD32VW55x_RELEASE_V1.0.2/MSDK/util/src\slist.c ****         list->last = prev_element;
 706              		.loc 1 321 9 is_stmt 1
 707              		.loc 1 321 20 is_stmt 0
 708 000c 4CC1     		sw	a1,4(a0)
 709              	.L87:
 322:C:/Users/stapi/OneDrive/Desktop/GD32VW553/V1_MQTT_OK/GD32VW55X_Wifi_BLE_SDK/GD32VW55x_RELEASE_V1.0.2/MSDK/util/src\slist.c **** 
 323:C:/Users/stapi/OneDrive/Desktop/GD32VW553/V1_MQTT_OK/GD32VW55X_Wifi_BLE_SDK/GD32VW55x_RELEASE_V1.0.2/MSDK/util/src\slist.c ****     element->next = NULL;
 710              		.loc 1 323 5 is_stmt 1
 711              		.loc 1 323 19 is_stmt 0
 712 000e 23200600 		sw	zero,0(a2)
 324:C:/Users/stapi/OneDrive/Desktop/GD32VW553/V1_MQTT_OK/GD32VW55X_Wifi_BLE_SDK/GD32VW55x_RELEASE_V1.0.2/MSDK/util/src\slist.c **** }
 713              		.loc 1 324 1
 714 0012 8280     		ret
 715              	.L85:
 317:C:/Users/stapi/OneDrive/Desktop/GD32VW553/V1_MQTT_OK/GD32VW55X_Wifi_BLE_SDK/GD32VW55x_RELEASE_V1.0.2/MSDK/util/src\slist.c ****     }
 716              		.loc 1 317 9 is_stmt 1
 317:C:/Users/stapi/OneDrive/Desktop/GD32VW553/V1_MQTT_OK/GD32VW55X_Wifi_BLE_SDK/GD32VW55x_RELEASE_V1.0.2/MSDK/util/src\slist.c ****     }
 717              		.loc 1 317 28 is_stmt 0
 718 0014 9CC1     		sw	a5,0(a1)
 719 0016 C5BF     		j	.L86
 720              		.cfi_endproc
 721              	.LFE18:
 723              		.text
 724              	.Letext0:
 725              		.file 3 "c:\\users\\stapi\\onedrive\\desktop\\gd32vw553\\embeddedbuilder_v1.4.7.26843\\tools\\nucl
 726              		.file 4 "c:\\users\\stapi\\onedrive\\desktop\\gd32vw553\\embeddedbuilder_v1.4.7.26843\\tools\\nucl
 727              		.file 5 "c:\\users\\stapi\\onedrive\\desktop\\gd32vw553\\embeddedbuilder_v1.4.7.26843\\tools\\nucl
 728              		.file 6 "..\\..\\..\\..\\rtos\\rtos_wrapper/wrapper_os.h"
DEFINED SYMBOLS
                            *ABS*:0000000000000000 slist.c
C:\Users\stapi\AppData\Local\Temp\ccL7AZGF.s:13     .text.list_init:0000000000000000 list_init
C:\Users\stapi\AppData\Local\Temp\ccL7AZGF.s:17     .text.list_init:0000000000000000 .L0 
C:\Users\stapi\AppData\Local\Temp\ccL7AZGF.s:19     .text.list_init:0000000000000000 .L0 
C:\Users\stapi\AppData\Local\Temp\ccL7AZGF.s:20     .text.list_init:0000000000000000 .L0 
C:\Users\stapi\AppData\Local\Temp\ccL7AZGF.s:21     .text.list_init:0000000000000000 .L0 
C:\Users\stapi\AppData\Local\Temp\ccL7AZGF.s:23     .text.list_init:0000000000000004 .L0 
C:\Users\stapi\AppData\Local\Temp\ccL7AZGF.s:24     .text.list_init:0000000000000004 .L0 
C:\Users\stapi\AppData\Local\Temp\ccL7AZGF.s:26     .text.list_init:0000000000000008 .L0 
C:\Users\stapi\AppData\Local\Temp\ccL7AZGF.s:27     .text.list_init:000000000000000a .L0 
C:\Users\stapi\AppData\Local\Temp\ccL7AZGF.s:34     .text.list_push_back:0000000000000000 list_push_back
C:\Users\stapi\AppData\Local\Temp\ccL7AZGF.s:37     .text.list_push_back:0000000000000000 .L0 
C:\Users\stapi\AppData\Local\Temp\ccL7AZGF.s:39     .text.list_push_back:0000000000000000 .L0 
C:\Users\stapi\AppData\Local\Temp\ccL7AZGF.s:43     .text.list_push_back:0000000000000000 .L0 
C:\Users\stapi\AppData\Local\Temp\ccL7AZGF.s:46     .text.list_push_back:0000000000000000 .L0 
C:\Users\stapi\AppData\Local\Temp\ccL7AZGF.s:47     .text.list_push_back:0000000000000000 .L0 
C:\Users\stapi\AppData\Local\Temp\ccL7AZGF.s:50     .text.list_push_back:0000000000000004 .L0 
C:\Users\stapi\AppData\Local\Temp\ccL7AZGF.s:51     .text.list_push_back:0000000000000004 .L0 
C:\Users\stapi\AppData\Local\Temp\ccL7AZGF.s:54     .text.list_push_back:0000000000000006 .L0 
C:\Users\stapi\AppData\Local\Temp\ccL7AZGF.s:55     .text.list_push_back:0000000000000006 .L0 
C:\Users\stapi\AppData\Local\Temp\ccL7AZGF.s:57     .text.list_push_back:0000000000000008 .L0 
C:\Users\stapi\AppData\Local\Temp\ccL7AZGF.s:58     .text.list_push_back:0000000000000008 .L0 
C:\Users\stapi\AppData\Local\Temp\ccL7AZGF.s:60     .text.list_push_back:000000000000000c .L0 
C:\Users\stapi\AppData\Local\Temp\ccL7AZGF.s:63     .text.list_push_back:000000000000000e .L0 
C:\Users\stapi\AppData\Local\Temp\ccL7AZGF.s:64     .text.list_push_back:000000000000000e .L0 
C:\Users\stapi\AppData\Local\Temp\ccL7AZGF.s:67     .text.list_push_back:0000000000000014 .L0 
C:\Users\stapi\AppData\Local\Temp\ccL7AZGF.s:74     .text.list_pool_init:0000000000000000 list_pool_init
C:\Users\stapi\AppData\Local\Temp\ccL7AZGF.s:77     .text.list_pool_init:0000000000000000 .L0 
C:\Users\stapi\AppData\Local\Temp\ccL7AZGF.s:79     .text.list_pool_init:0000000000000000 .L0 
C:\Users\stapi\AppData\Local\Temp\ccL7AZGF.s:80     .text.list_pool_init:0000000000000008 .L0 
C:\Users\stapi\AppData\Local\Temp\ccL7AZGF.s:81     .text.list_pool_init:0000000000000008 .L0 
C:\Users\stapi\AppData\Local\Temp\ccL7AZGF.s:82     .text.list_pool_init:0000000000000008 .L0 
C:\Users\stapi\AppData\Local\Temp\ccL7AZGF.s:83     .text.list_pool_init:0000000000000008 .L0 
C:\Users\stapi\AppData\Local\Temp\ccL7AZGF.s:84     .text.list_pool_init:0000000000000008 .L0 
C:\Users\stapi\AppData\Local\Temp\ccL7AZGF.s:85     .text.list_pool_init:0000000000000008 .L0 
C:\Users\stapi\AppData\Local\Temp\ccL7AZGF.s:86     .text.list_pool_init:0000000000000008 .L0 
C:\Users\stapi\AppData\Local\Temp\ccL7AZGF.s:87     .text.list_pool_init:0000000000000008 .L0 
C:\Users\stapi\AppData\Local\Temp\ccL7AZGF.s:89     .text.list_pool_init:0000000000000008 .L0 
C:\Users\stapi\AppData\Local\Temp\ccL7AZGF.s:93     .text.list_pool_init:0000000000000008 .L0 
C:\Users\stapi\AppData\Local\Temp\ccL7AZGF.s:96     .text.list_pool_init:0000000000000008 .L0 
C:\Users\stapi\AppData\Local\Temp\ccL7AZGF.s:97     .text.list_pool_init:0000000000000008 .L0 
C:\Users\stapi\AppData\Local\Temp\ccL7AZGF.s:105    .text.list_pool_init:0000000000000012 .L0 
C:\Users\stapi\AppData\Local\Temp\ccL7AZGF.s:107    .text.list_pool_init:0000000000000016 .L0 
C:\Users\stapi\AppData\Local\Temp\ccL7AZGF.s:108    .text.list_pool_init:0000000000000016 .L0 
C:\Users\stapi\AppData\Local\Temp\ccL7AZGF.s:113    .text.list_pool_init:000000000000001a .L0 
C:\Users\stapi\AppData\Local\Temp\ccL7AZGF.s:114    .text.list_pool_init:000000000000001a .L0 
C:\Users\stapi\AppData\Local\Temp\ccL7AZGF.s:118    .text.list_pool_init:000000000000001c .L0 
C:\Users\stapi\AppData\Local\Temp\ccL7AZGF.s:119    .text.list_pool_init:000000000000001c .L0 
C:\Users\stapi\AppData\Local\Temp\ccL7AZGF.s:121    .text.list_pool_init:0000000000000020 .L0 
C:\Users\stapi\AppData\Local\Temp\ccL7AZGF.s:122    .text.list_pool_init:0000000000000028 .L0 
C:\Users\stapi\AppData\Local\Temp\ccL7AZGF.s:123    .text.list_pool_init:0000000000000028 .L0 
C:\Users\stapi\AppData\Local\Temp\ccL7AZGF.s:124    .text.list_pool_init:0000000000000028 .L0 
C:\Users\stapi\AppData\Local\Temp\ccL7AZGF.s:125    .text.list_pool_init:0000000000000028 .L0 
C:\Users\stapi\AppData\Local\Temp\ccL7AZGF.s:126    .text.list_pool_init:0000000000000028 .L0 
C:\Users\stapi\AppData\Local\Temp\ccL7AZGF.s:127    .text.list_pool_init:0000000000000028 .L0 
C:\Users\stapi\AppData\Local\Temp\ccL7AZGF.s:128    .text.list_pool_init:0000000000000028 .L0 
C:\Users\stapi\AppData\Local\Temp\ccL7AZGF.s:129    .text.list_pool_init:0000000000000028 .L0 
C:\Users\stapi\AppData\Local\Temp\ccL7AZGF.s:130    .text.list_pool_init:0000000000000028 .L0 
C:\Users\stapi\AppData\Local\Temp\ccL7AZGF.s:132    .text.list_pool_init:0000000000000028 .L0 
C:\Users\stapi\AppData\Local\Temp\ccL7AZGF.s:134    .text.list_pool_init:0000000000000028 .L0 
C:\Users\stapi\AppData\Local\Temp\ccL7AZGF.s:135    .text.list_pool_init:0000000000000028 .L0 
C:\Users\stapi\AppData\Local\Temp\ccL7AZGF.s:137    .text.list_pool_init:000000000000002c .L0 
C:\Users\stapi\AppData\Local\Temp\ccL7AZGF.s:144    .text.list_pool_init:000000000000003a .L0 
C:\Users\stapi\AppData\Local\Temp\ccL7AZGF.s:149    .text.list_pool_init:0000000000000046 .L0 
C:\Users\stapi\AppData\Local\Temp\ccL7AZGF.s:150    .text.list_pool_init:0000000000000046 .L0 
C:\Users\stapi\AppData\Local\Temp\ccL7AZGF.s:153    .text.list_pool_init:0000000000000048 .L0 
C:\Users\stapi\AppData\Local\Temp\ccL7AZGF.s:154    .text.list_pool_init:0000000000000048 .L0 
C:\Users\stapi\AppData\Local\Temp\ccL7AZGF.s:157    .text.list_pool_init:000000000000004c .L0 
C:\Users\stapi\AppData\Local\Temp\ccL7AZGF.s:164    .text.list_push_front:0000000000000000 list_push_front
C:\Users\stapi\AppData\Local\Temp\ccL7AZGF.s:167    .text.list_push_front:0000000000000000 .L0 
C:\Users\stapi\AppData\Local\Temp\ccL7AZGF.s:169    .text.list_push_front:0000000000000000 .L0 
C:\Users\stapi\AppData\Local\Temp\ccL7AZGF.s:172    .text.list_push_front:0000000000000000 .L0 
C:\Users\stapi\AppData\Local\Temp\ccL7AZGF.s:173    .text.list_push_front:0000000000000000 .L0 
C:\Users\stapi\AppData\Local\Temp\ccL7AZGF.s:174    .text.list_push_front:0000000000000000 .L0 
C:\Users\stapi\AppData\Local\Temp\ccL7AZGF.s:179    .text.list_push_front:0000000000000002 .L0 
C:\Users\stapi\AppData\Local\Temp\ccL7AZGF.s:181    .text.list_push_front:0000000000000004 .L0 
C:\Users\stapi\AppData\Local\Temp\ccL7AZGF.s:182    .text.list_push_front:0000000000000004 .L0 
C:\Users\stapi\AppData\Local\Temp\ccL7AZGF.s:185    .text.list_push_front:0000000000000006 .L0 
C:\Users\stapi\AppData\Local\Temp\ccL7AZGF.s:186    .text.list_push_front:0000000000000006 .L0 
C:\Users\stapi\AppData\Local\Temp\ccL7AZGF.s:188    .text.list_push_front:0000000000000008 .L0 
C:\Users\stapi\AppData\Local\Temp\ccL7AZGF.s:189    .text.list_push_front:0000000000000008 .L0 
C:\Users\stapi\AppData\Local\Temp\ccL7AZGF.s:191    .text.list_push_front:000000000000000a .L0 
C:\Users\stapi\AppData\Local\Temp\ccL7AZGF.s:192    .text.list_push_front:000000000000000c .L0 
C:\Users\stapi\AppData\Local\Temp\ccL7AZGF.s:199    .text.list_pop_front:0000000000000000 list_pop_front
C:\Users\stapi\AppData\Local\Temp\ccL7AZGF.s:202    .text.list_pop_front:0000000000000000 .L0 
C:\Users\stapi\AppData\Local\Temp\ccL7AZGF.s:204    .text.list_pop_front:0000000000000000 .L0 
C:\Users\stapi\AppData\Local\Temp\ccL7AZGF.s:205    .text.list_pop_front:0000000000000000 .L0 
C:\Users\stapi\AppData\Local\Temp\ccL7AZGF.s:206    .text.list_pop_front:0000000000000000 .L0 
C:\Users\stapi\AppData\Local\Temp\ccL7AZGF.s:207    .text.list_pop_front:0000000000000000 .L0 
C:\Users\stapi\AppData\Local\Temp\ccL7AZGF.s:209    .text.list_pop_front:0000000000000002 .L0 
C:\Users\stapi\AppData\Local\Temp\ccL7AZGF.s:212    .text.list_pop_front:0000000000000004 .L0 
C:\Users\stapi\AppData\Local\Temp\ccL7AZGF.s:213    .text.list_pop_front:0000000000000004 .L0 
C:\Users\stapi\AppData\Local\Temp\ccL7AZGF.s:215    .text.list_pop_front:0000000000000006 .L0 
C:\Users\stapi\AppData\Local\Temp\ccL7AZGF.s:216    .text.list_pop_front:0000000000000006 .L0 
C:\Users\stapi\AppData\Local\Temp\ccL7AZGF.s:219    .text.list_pop_front:000000000000000a .L0 
C:\Users\stapi\AppData\Local\Temp\ccL7AZGF.s:220    .text.list_pop_front:000000000000000a .L0 
C:\Users\stapi\AppData\Local\Temp\ccL7AZGF.s:223    .text.list_pop_front:0000000000000010 .L0 
C:\Users\stapi\AppData\Local\Temp\ccL7AZGF.s:224    .text.list_pop_front:0000000000000010 .L0 
C:\Users\stapi\AppData\Local\Temp\ccL7AZGF.s:227    .text.list_pop_front:0000000000000014 .L0 
C:\Users\stapi\AppData\Local\Temp\ccL7AZGF.s:228    .text.list_pop_front:0000000000000014 .L0 
C:\Users\stapi\AppData\Local\Temp\ccL7AZGF.s:229    .text.list_pop_front:0000000000000016 .L0 
C:\Users\stapi\AppData\Local\Temp\ccL7AZGF.s:236    .text.list_extract:0000000000000000 list_extract
C:\Users\stapi\AppData\Local\Temp\ccL7AZGF.s:239    .text.list_extract:0000000000000000 .L0 
C:\Users\stapi\AppData\Local\Temp\ccL7AZGF.s:241    .text.list_extract:0000000000000000 .L0 
C:\Users\stapi\AppData\Local\Temp\ccL7AZGF.s:242    .text.list_extract:0000000000000000 .L0 
C:\Users\stapi\AppData\Local\Temp\ccL7AZGF.s:243    .text.list_extract:0000000000000000 .L0 
C:\Users\stapi\AppData\Local\Temp\ccL7AZGF.s:244    .text.list_extract:0000000000000000 .L0 
C:\Users\stapi\AppData\Local\Temp\ccL7AZGF.s:247    .text.list_extract:0000000000000002 .L0 
C:\Users\stapi\AppData\Local\Temp\ccL7AZGF.s:248    .text.list_extract:0000000000000002 .L0 
C:\Users\stapi\AppData\Local\Temp\ccL7AZGF.s:250    .text.list_extract:0000000000000004 .L0 
C:\Users\stapi\AppData\Local\Temp\ccL7AZGF.s:251    .text.list_extract:0000000000000004 .L0 
C:\Users\stapi\AppData\Local\Temp\ccL7AZGF.s:253    .text.list_extract:0000000000000008 .L0 
C:\Users\stapi\AppData\Local\Temp\ccL7AZGF.s:254    .text.list_extract:0000000000000008 .L0 
C:\Users\stapi\AppData\Local\Temp\ccL7AZGF.s:257    .text.list_extract:000000000000000c .L0 
C:\Users\stapi\AppData\Local\Temp\ccL7AZGF.s:258    .text.list_extract:000000000000000c .L0 
C:\Users\stapi\AppData\Local\Temp\ccL7AZGF.s:261    .text.list_extract:0000000000000012 .L0 
C:\Users\stapi\AppData\Local\Temp\ccL7AZGF.s:262    .text.list_extract:0000000000000012 .L0 
C:\Users\stapi\AppData\Local\Temp\ccL7AZGF.s:267    .text.list_extract:0000000000000018 .L0 
C:\Users\stapi\AppData\Local\Temp\ccL7AZGF.s:269    .text.list_extract:000000000000001a .L0 
C:\Users\stapi\AppData\Local\Temp\ccL7AZGF.s:272    .text.list_extract:000000000000001c .L0 
C:\Users\stapi\AppData\Local\Temp\ccL7AZGF.s:274    .text.list_extract:000000000000001e .L0 
C:\Users\stapi\AppData\Local\Temp\ccL7AZGF.s:276    .text.list_extract:0000000000000022 .L0 
C:\Users\stapi\AppData\Local\Temp\ccL7AZGF.s:277    .text.list_extract:0000000000000022 .L0 
C:\Users\stapi\AppData\Local\Temp\ccL7AZGF.s:278    .text.list_extract:0000000000000022 .L0 
C:\Users\stapi\AppData\Local\Temp\ccL7AZGF.s:281    .text.list_extract:0000000000000028 .L0 
C:\Users\stapi\AppData\Local\Temp\ccL7AZGF.s:282    .text.list_extract:0000000000000028 .L0 
C:\Users\stapi\AppData\Local\Temp\ccL7AZGF.s:285    .text.list_extract:000000000000002a .L0 
C:\Users\stapi\AppData\Local\Temp\ccL7AZGF.s:286    .text.list_extract:000000000000002a .L0 
C:\Users\stapi\AppData\Local\Temp\ccL7AZGF.s:288    .text.list_extract:000000000000002c .L0 
C:\Users\stapi\AppData\Local\Temp\ccL7AZGF.s:293    .text.list_extract:0000000000000030 .L0 
C:\Users\stapi\AppData\Local\Temp\ccL7AZGF.s:294    .text.list_extract:0000000000000032 .L0 
C:\Users\stapi\AppData\Local\Temp\ccL7AZGF.s:301    .text.list_find:0000000000000000 list_find
C:\Users\stapi\AppData\Local\Temp\ccL7AZGF.s:304    .text.list_find:0000000000000000 .L0 
C:\Users\stapi\AppData\Local\Temp\ccL7AZGF.s:307    .text.list_find:0000000000000000 .L0 
C:\Users\stapi\AppData\Local\Temp\ccL7AZGF.s:308    .text.list_find:0000000000000000 .L0 
C:\Users\stapi\AppData\Local\Temp\ccL7AZGF.s:309    .text.list_find:0000000000000000 .L0 
C:\Users\stapi\AppData\Local\Temp\ccL7AZGF.s:312    .text.list_find:0000000000000002 .L0 
C:\Users\stapi\AppData\Local\Temp\ccL7AZGF.s:314    .text.list_find:0000000000000006 .L0 
C:\Users\stapi\AppData\Local\Temp\ccL7AZGF.s:317    .text.list_find:0000000000000008 .L0 
C:\Users\stapi\AppData\Local\Temp\ccL7AZGF.s:318    .text.list_find:0000000000000008 .L0 
C:\Users\stapi\AppData\Local\Temp\ccL7AZGF.s:321    .text.list_find:000000000000000c .L0 
C:\Users\stapi\AppData\Local\Temp\ccL7AZGF.s:323    .text.list_find:0000000000000012 .L0 
C:\Users\stapi\AppData\Local\Temp\ccL7AZGF.s:330    .text.list_cnt:0000000000000000 list_cnt
C:\Users\stapi\AppData\Local\Temp\ccL7AZGF.s:333    .text.list_cnt:0000000000000000 .L0 
C:\Users\stapi\AppData\Local\Temp\ccL7AZGF.s:335    .text.list_cnt:0000000000000000 .L0 
C:\Users\stapi\AppData\Local\Temp\ccL7AZGF.s:336    .text.list_cnt:0000000000000000 .L0 
C:\Users\stapi\AppData\Local\Temp\ccL7AZGF.s:339    .text.list_cnt:0000000000000000 .L0 
C:\Users\stapi\AppData\Local\Temp\ccL7AZGF.s:340    .text.list_cnt:0000000000000000 .L0 
C:\Users\stapi\AppData\Local\Temp\ccL7AZGF.s:341    .text.list_cnt:0000000000000000 .L0 
C:\Users\stapi\AppData\Local\Temp\ccL7AZGF.s:346    .text.list_cnt:0000000000000002 .L0 
C:\Users\stapi\AppData\Local\Temp\ccL7AZGF.s:347    .text.list_cnt:0000000000000002 .L0 
C:\Users\stapi\AppData\Local\Temp\ccL7AZGF.s:351    .text.list_cnt:0000000000000004 .L0 
C:\Users\stapi\AppData\Local\Temp\ccL7AZGF.s:353    .text.list_cnt:0000000000000006 .L0 
C:\Users\stapi\AppData\Local\Temp\ccL7AZGF.s:354    .text.list_cnt:0000000000000006 .L0 
C:\Users\stapi\AppData\Local\Temp\ccL7AZGF.s:359    .text.list_cnt:0000000000000008 .L0 
C:\Users\stapi\AppData\Local\Temp\ccL7AZGF.s:360    .text.list_cnt:0000000000000008 .L0 
C:\Users\stapi\AppData\Local\Temp\ccL7AZGF.s:365    .text.list_cnt:000000000000000a .L0 
C:\Users\stapi\AppData\Local\Temp\ccL7AZGF.s:370    .text.list_cnt:000000000000000c .L0 
C:\Users\stapi\AppData\Local\Temp\ccL7AZGF.s:371    .text.list_cnt:000000000000000c .L0 
C:\Users\stapi\AppData\Local\Temp\ccL7AZGF.s:374    .text.list_cnt:000000000000000e .L0 
C:\Users\stapi\AppData\Local\Temp\ccL7AZGF.s:381    .text.list_insert:0000000000000000 list_insert
C:\Users\stapi\AppData\Local\Temp\ccL7AZGF.s:384    .text.list_insert:0000000000000000 .L0 
C:\Users\stapi\AppData\Local\Temp\ccL7AZGF.s:386    .text.list_insert:0000000000000000 .L0 
C:\Users\stapi\AppData\Local\Temp\ccL7AZGF.s:387    .text.list_insert:0000000000000008 .L0 
C:\Users\stapi\AppData\Local\Temp\ccL7AZGF.s:388    .text.list_insert:0000000000000008 .L0 
C:\Users\stapi\AppData\Local\Temp\ccL7AZGF.s:389    .text.list_insert:0000000000000008 .L0 
C:\Users\stapi\AppData\Local\Temp\ccL7AZGF.s:390    .text.list_insert:0000000000000008 .L0 
C:\Users\stapi\AppData\Local\Temp\ccL7AZGF.s:391    .text.list_insert:0000000000000008 .L0 
C:\Users\stapi\AppData\Local\Temp\ccL7AZGF.s:392    .text.list_insert:0000000000000008 .L0 
C:\Users\stapi\AppData\Local\Temp\ccL7AZGF.s:393    .text.list_insert:0000000000000008 .L0 
C:\Users\stapi\AppData\Local\Temp\ccL7AZGF.s:396    .text.list_insert:0000000000000008 .L0 
C:\Users\stapi\AppData\Local\Temp\ccL7AZGF.s:397    .text.list_insert:0000000000000008 .L0 
C:\Users\stapi\AppData\Local\Temp\ccL7AZGF.s:398    .text.list_insert:0000000000000008 .L0 
C:\Users\stapi\AppData\Local\Temp\ccL7AZGF.s:401    .text.list_insert:000000000000000a .L0 
C:\Users\stapi\AppData\Local\Temp\ccL7AZGF.s:405    .text.list_insert:0000000000000010 .L0 
C:\Users\stapi\AppData\Local\Temp\ccL7AZGF.s:409    .text.list_insert:0000000000000012 .L0 
C:\Users\stapi\AppData\Local\Temp\ccL7AZGF.s:410    .text.list_insert:0000000000000012 .L0 
C:\Users\stapi\AppData\Local\Temp\ccL7AZGF.s:411    .text.list_insert:0000000000000012 .L0 
C:\Users\stapi\AppData\Local\Temp\ccL7AZGF.s:413    .text.list_insert:0000000000000014 .L0 
C:\Users\stapi\AppData\Local\Temp\ccL7AZGF.s:414    .text.list_insert:0000000000000014 .L0 
C:\Users\stapi\AppData\Local\Temp\ccL7AZGF.s:419    .text.list_insert:000000000000001a .L0 
C:\Users\stapi\AppData\Local\Temp\ccL7AZGF.s:422    .text.list_insert:000000000000001c .L0 
C:\Users\stapi\AppData\Local\Temp\ccL7AZGF.s:423    .text.list_insert:000000000000001c .L0 
C:\Users\stapi\AppData\Local\Temp\ccL7AZGF.s:424    .text.list_insert:000000000000001c .L0 
C:\Users\stapi\AppData\Local\Temp\ccL7AZGF.s:425    .text.list_insert:000000000000001c .L0 
C:\Users\stapi\AppData\Local\Temp\ccL7AZGF.s:427    .text.list_insert:000000000000001e .L0 
C:\Users\stapi\AppData\Local\Temp\ccL7AZGF.s:430    .text.list_insert:0000000000000020 .L0 
C:\Users\stapi\AppData\Local\Temp\ccL7AZGF.s:433    .text.list_insert:0000000000000022 .L0 
C:\Users\stapi\AppData\Local\Temp\ccL7AZGF.s:434    .text.list_insert:0000000000000022 .L0 
C:\Users\stapi\AppData\Local\Temp\ccL7AZGF.s:437    .text.list_insert:0000000000000026 .L0 
C:\Users\stapi\AppData\Local\Temp\ccL7AZGF.s:438    .text.list_insert:0000000000000026 .L0 
C:\Users\stapi\AppData\Local\Temp\ccL7AZGF.s:439    .text.list_insert:0000000000000026 .L0 
C:\Users\stapi\AppData\Local\Temp\ccL7AZGF.s:441    .text.list_insert:0000000000000028 .L0 
C:\Users\stapi\AppData\Local\Temp\ccL7AZGF.s:442    .text.list_insert:0000000000000028 .L0 
C:\Users\stapi\AppData\Local\Temp\ccL7AZGF.s:444    .text.list_insert:000000000000002c .L0 
C:\Users\stapi\AppData\Local\Temp\ccL7AZGF.s:445    .text.list_insert:000000000000002c .L0 
C:\Users\stapi\AppData\Local\Temp\ccL7AZGF.s:448    .text.list_insert:0000000000000030 .L0 
C:\Users\stapi\AppData\Local\Temp\ccL7AZGF.s:449    .text.list_insert:0000000000000038 .L0 
C:\Users\stapi\AppData\Local\Temp\ccL7AZGF.s:450    .text.list_insert:0000000000000038 .L0 
C:\Users\stapi\AppData\Local\Temp\ccL7AZGF.s:451    .text.list_insert:0000000000000038 .L0 
C:\Users\stapi\AppData\Local\Temp\ccL7AZGF.s:452    .text.list_insert:0000000000000038 .L0 
C:\Users\stapi\AppData\Local\Temp\ccL7AZGF.s:453    .text.list_insert:0000000000000038 .L0 
C:\Users\stapi\AppData\Local\Temp\ccL7AZGF.s:454    .text.list_insert:0000000000000038 .L0 
C:\Users\stapi\AppData\Local\Temp\ccL7AZGF.s:455    .text.list_insert:0000000000000038 .L0 
C:\Users\stapi\AppData\Local\Temp\ccL7AZGF.s:456    .text.list_insert:0000000000000038 .L0 
C:\Users\stapi\AppData\Local\Temp\ccL7AZGF.s:458    .text.list_insert:0000000000000038 .L0 
C:\Users\stapi\AppData\Local\Temp\ccL7AZGF.s:460    .text.list_insert:0000000000000038 .L0 
C:\Users\stapi\AppData\Local\Temp\ccL7AZGF.s:461    .text.list_insert:0000000000000038 .L0 
C:\Users\stapi\AppData\Local\Temp\ccL7AZGF.s:463    .text.list_insert:000000000000003c .L0 
C:\Users\stapi\AppData\Local\Temp\ccL7AZGF.s:464    .text.list_insert:000000000000003e .L0 
C:\Users\stapi\AppData\Local\Temp\ccL7AZGF.s:471    .text.list_insert_after:0000000000000000 list_insert_after
C:\Users\stapi\AppData\Local\Temp\ccL7AZGF.s:474    .text.list_insert_after:0000000000000000 .L0 
C:\Users\stapi\AppData\Local\Temp\ccL7AZGF.s:476    .text.list_insert_after:0000000000000000 .L0 
C:\Users\stapi\AppData\Local\Temp\ccL7AZGF.s:477    .text.list_insert_after:0000000000000000 .L0 
C:\Users\stapi\AppData\Local\Temp\ccL7AZGF.s:478    .text.list_insert_after:0000000000000000 .L0 
C:\Users\stapi\AppData\Local\Temp\ccL7AZGF.s:480    .text.list_insert_after:0000000000000002 .L0 
C:\Users\stapi\AppData\Local\Temp\ccL7AZGF.s:483    .text.list_insert_after:0000000000000004 .L0 
C:\Users\stapi\AppData\Local\Temp\ccL7AZGF.s:484    .text.list_insert_after:0000000000000004 .L0 
C:\Users\stapi\AppData\Local\Temp\ccL7AZGF.s:488    .text.list_insert_after:0000000000000008 .L0 
C:\Users\stapi\AppData\Local\Temp\ccL7AZGF.s:490    .text.list_insert_after:000000000000000a .L0 
C:\Users\stapi\AppData\Local\Temp\ccL7AZGF.s:494    .text.list_insert_after:0000000000000012 .L0 
C:\Users\stapi\AppData\Local\Temp\ccL7AZGF.s:495    .text.list_insert_after:0000000000000012 .L0 
C:\Users\stapi\AppData\Local\Temp\ccL7AZGF.s:497    .text.list_insert_after:0000000000000016 .L0 
C:\Users\stapi\AppData\Local\Temp\ccL7AZGF.s:498    .text.list_insert_after:0000000000000016 .L0 
C:\Users\stapi\AppData\Local\Temp\ccL7AZGF.s:502    .text.list_insert_after:0000000000000018 .L0 
C:\Users\stapi\AppData\Local\Temp\ccL7AZGF.s:507    .text.list_insert_after:000000000000001c .L0 
C:\Users\stapi\AppData\Local\Temp\ccL7AZGF.s:508    .text.list_insert_after:000000000000001c .L0 
C:\Users\stapi\AppData\Local\Temp\ccL7AZGF.s:510    .text.list_insert_after:000000000000001e .L0 
C:\Users\stapi\AppData\Local\Temp\ccL7AZGF.s:514    .text.list_insert_after:0000000000000020 .L0 
C:\Users\stapi\AppData\Local\Temp\ccL7AZGF.s:515    .text.list_insert_after:0000000000000020 .L0 
C:\Users\stapi\AppData\Local\Temp\ccL7AZGF.s:516    .text.list_insert_after:0000000000000020 .L0 
C:\Users\stapi\AppData\Local\Temp\ccL7AZGF.s:519    .text.list_insert_after:0000000000000022 .L0 
C:\Users\stapi\AppData\Local\Temp\ccL7AZGF.s:521    .text.list_insert_after:0000000000000024 .L0 
C:\Users\stapi\AppData\Local\Temp\ccL7AZGF.s:522    .text.list_insert_after:0000000000000024 .L0 
C:\Users\stapi\AppData\Local\Temp\ccL7AZGF.s:524    .text.list_insert_after:0000000000000026 .L0 
C:\Users\stapi\AppData\Local\Temp\ccL7AZGF.s:526    .text.list_insert_after:0000000000000028 .L0 
C:\Users\stapi\AppData\Local\Temp\ccL7AZGF.s:527    .text.list_insert_after:0000000000000028 .L0 
C:\Users\stapi\AppData\Local\Temp\ccL7AZGF.s:529    .text.list_insert_after:000000000000002e .L0 
C:\Users\stapi\AppData\Local\Temp\ccL7AZGF.s:536    .text.list_insert_after_fast:0000000000000000 list_insert_after_fast
C:\Users\stapi\AppData\Local\Temp\ccL7AZGF.s:539    .text.list_insert_after_fast:0000000000000000 .L0 
C:\Users\stapi\AppData\Local\Temp\ccL7AZGF.s:541    .text.list_insert_after_fast:0000000000000000 .L0 
C:\Users\stapi\AppData\Local\Temp\ccL7AZGF.s:542    .text.list_insert_after_fast:0000000000000000 .L0 
C:\Users\stapi\AppData\Local\Temp\ccL7AZGF.s:543    .text.list_insert_after_fast:0000000000000000 .L0 
C:\Users\stapi\AppData\Local\Temp\ccL7AZGF.s:547    .text.list_insert_after_fast:0000000000000004 .L0 
C:\Users\stapi\AppData\Local\Temp\ccL7AZGF.s:549    .text.list_insert_after_fast:0000000000000006 .L0 
C:\Users\stapi\AppData\Local\Temp\ccL7AZGF.s:553    .text.list_insert_after_fast:000000000000000e .L0 
C:\Users\stapi\AppData\Local\Temp\ccL7AZGF.s:554    .text.list_insert_after_fast:000000000000000e .L0 
C:\Users\stapi\AppData\Local\Temp\ccL7AZGF.s:556    .text.list_insert_after_fast:0000000000000010 .L0 
C:\Users\stapi\AppData\Local\Temp\ccL7AZGF.s:558    .text.list_insert_after_fast:0000000000000012 .L0 
C:\Users\stapi\AppData\Local\Temp\ccL7AZGF.s:559    .text.list_insert_after_fast:0000000000000012 .L0 
C:\Users\stapi\AppData\Local\Temp\ccL7AZGF.s:561    .text.list_insert_after_fast:0000000000000014 .L0 
C:\Users\stapi\AppData\Local\Temp\ccL7AZGF.s:563    .text.list_insert_after_fast:0000000000000016 .L0 
C:\Users\stapi\AppData\Local\Temp\ccL7AZGF.s:564    .text.list_insert_after_fast:0000000000000016 .L0 
C:\Users\stapi\AppData\Local\Temp\ccL7AZGF.s:566    .text.list_insert_after_fast:000000000000001a .L0 
C:\Users\stapi\AppData\Local\Temp\ccL7AZGF.s:567    .text.list_insert_after_fast:000000000000001a .L0 
C:\Users\stapi\AppData\Local\Temp\ccL7AZGF.s:569    .text.list_insert_after_fast:000000000000001c .L0 
C:\Users\stapi\AppData\Local\Temp\ccL7AZGF.s:572    .text.list_insert_after_fast:0000000000000020 .L0 
C:\Users\stapi\AppData\Local\Temp\ccL7AZGF.s:579    .text.list_insert_before:0000000000000000 list_insert_before
C:\Users\stapi\AppData\Local\Temp\ccL7AZGF.s:582    .text.list_insert_before:0000000000000000 .L0 
C:\Users\stapi\AppData\Local\Temp\ccL7AZGF.s:584    .text.list_insert_before:0000000000000000 .L0 
C:\Users\stapi\AppData\Local\Temp\ccL7AZGF.s:585    .text.list_insert_before:0000000000000008 .L0 
C:\Users\stapi\AppData\Local\Temp\ccL7AZGF.s:586    .text.list_insert_before:0000000000000008 .L0 
C:\Users\stapi\AppData\Local\Temp\ccL7AZGF.s:588    .text.list_insert_before:0000000000000008 .L0 
C:\Users\stapi\AppData\Local\Temp\ccL7AZGF.s:589    .text.list_insert_before:0000000000000008 .L0 
C:\Users\stapi\AppData\Local\Temp\ccL7AZGF.s:593    .text.list_insert_before:000000000000000c .L0 
C:\Users\stapi\AppData\Local\Temp\ccL7AZGF.s:595    .text.list_insert_before:000000000000000e .L0 
C:\Users\stapi\AppData\Local\Temp\ccL7AZGF.s:599    .text.list_insert_before:0000000000000016 .L0 
C:\Users\stapi\AppData\Local\Temp\ccL7AZGF.s:600    .text.list_insert_before:000000000000001e .L0 
C:\Users\stapi\AppData\Local\Temp\ccL7AZGF.s:601    .text.list_insert_before:000000000000001e .L0 
C:\Users\stapi\AppData\Local\Temp\ccL7AZGF.s:602    .text.list_insert_before:000000000000001e .L0 
C:\Users\stapi\AppData\Local\Temp\ccL7AZGF.s:605    .text.list_insert_before:000000000000001e .L0 
C:\Users\stapi\AppData\Local\Temp\ccL7AZGF.s:607    .text.list_insert_before:000000000000001e .L0 
C:\Users\stapi\AppData\Local\Temp\ccL7AZGF.s:608    .text.list_insert_before:000000000000001e .L0 
C:\Users\stapi\AppData\Local\Temp\ccL7AZGF.s:610    .text.list_insert_before:0000000000000020 .L0 
C:\Users\stapi\AppData\Local\Temp\ccL7AZGF.s:612    .text.list_insert_before:0000000000000024 .L0 
C:\Users\stapi\AppData\Local\Temp\ccL7AZGF.s:619    .text.list_insert_before:000000000000002e .L0 
C:\Users\stapi\AppData\Local\Temp\ccL7AZGF.s:620    .text.list_insert_before:000000000000002e .L0 
C:\Users\stapi\AppData\Local\Temp\ccL7AZGF.s:622    .text.list_insert_before:0000000000000030 .L0 
C:\Users\stapi\AppData\Local\Temp\ccL7AZGF.s:627    .text.list_insert_before:0000000000000036 .L0 
C:\Users\stapi\AppData\Local\Temp\ccL7AZGF.s:631    .text.list_insert_before:000000000000003a .L0 
C:\Users\stapi\AppData\Local\Temp\ccL7AZGF.s:632    .text.list_insert_before:000000000000003a .L0 
C:\Users\stapi\AppData\Local\Temp\ccL7AZGF.s:633    .text.list_insert_before:000000000000003a .L0 
C:\Users\stapi\AppData\Local\Temp\ccL7AZGF.s:635    .text.list_insert_before:000000000000003c .L0 
C:\Users\stapi\AppData\Local\Temp\ccL7AZGF.s:636    .text.list_insert_before:000000000000003c .L0 
C:\Users\stapi\AppData\Local\Temp\ccL7AZGF.s:639    .text.list_insert_before:0000000000000040 .L0 
C:\Users\stapi\AppData\Local\Temp\ccL7AZGF.s:646    .text.list_concat:0000000000000000 list_concat
C:\Users\stapi\AppData\Local\Temp\ccL7AZGF.s:649    .text.list_concat:0000000000000000 .L0 
C:\Users\stapi\AppData\Local\Temp\ccL7AZGF.s:651    .text.list_concat:0000000000000000 .L0 
C:\Users\stapi\AppData\Local\Temp\ccL7AZGF.s:652    .text.list_concat:0000000000000000 .L0 
C:\Users\stapi\AppData\Local\Temp\ccL7AZGF.s:653    .text.list_concat:0000000000000000 .L0 
C:\Users\stapi\AppData\Local\Temp\ccL7AZGF.s:655    .text.list_concat:0000000000000002 .L0 
C:\Users\stapi\AppData\Local\Temp\ccL7AZGF.s:657    .text.list_concat:0000000000000004 .L0 
C:\Users\stapi\AppData\Local\Temp\ccL7AZGF.s:658    .text.list_concat:0000000000000004 .L0 
C:\Users\stapi\AppData\Local\Temp\ccL7AZGF.s:661    .text.list_concat:0000000000000008 .L0 
C:\Users\stapi\AppData\Local\Temp\ccL7AZGF.s:662    .text.list_concat:0000000000000008 .L0 
C:\Users\stapi\AppData\Local\Temp\ccL7AZGF.s:665    .text.list_concat:000000000000000a .L0 
C:\Users\stapi\AppData\Local\Temp\ccL7AZGF.s:666    .text.list_concat:000000000000000a .L0 
C:\Users\stapi\AppData\Local\Temp\ccL7AZGF.s:668    .text.list_concat:000000000000000c .L0 
C:\Users\stapi\AppData\Local\Temp\ccL7AZGF.s:670    .text.list_concat:000000000000000e .L0 
C:\Users\stapi\AppData\Local\Temp\ccL7AZGF.s:671    .text.list_concat:000000000000000e .L0 
C:\Users\stapi\AppData\Local\Temp\ccL7AZGF.s:674    .text.list_concat:0000000000000012 .L0 
C:\Users\stapi\AppData\Local\Temp\ccL7AZGF.s:677    .text.list_concat:0000000000000014 .L0 
C:\Users\stapi\AppData\Local\Temp\ccL7AZGF.s:678    .text.list_concat:0000000000000014 .L0 
C:\Users\stapi\AppData\Local\Temp\ccL7AZGF.s:681    .text.list_concat:000000000000001a .L0 
C:\Users\stapi\AppData\Local\Temp\ccL7AZGF.s:688    .text.list_remove:0000000000000000 list_remove
C:\Users\stapi\AppData\Local\Temp\ccL7AZGF.s:691    .text.list_remove:0000000000000000 .L0 
C:\Users\stapi\AppData\Local\Temp\ccL7AZGF.s:693    .text.list_remove:0000000000000000 .L0 
C:\Users\stapi\AppData\Local\Temp\ccL7AZGF.s:694    .text.list_remove:0000000000000000 .L0 
C:\Users\stapi\AppData\Local\Temp\ccL7AZGF.s:695    .text.list_remove:0000000000000000 .L0 
C:\Users\stapi\AppData\Local\Temp\ccL7AZGF.s:697    .text.list_remove:0000000000000002 .L0 
C:\Users\stapi\AppData\Local\Temp\ccL7AZGF.s:699    .text.list_remove:0000000000000004 .L0 
C:\Users\stapi\AppData\Local\Temp\ccL7AZGF.s:700    .text.list_remove:0000000000000004 .L0 
C:\Users\stapi\AppData\Local\Temp\ccL7AZGF.s:703    .text.list_remove:0000000000000006 .L0 
C:\Users\stapi\AppData\Local\Temp\ccL7AZGF.s:704    .text.list_remove:0000000000000006 .L0 
C:\Users\stapi\AppData\Local\Temp\ccL7AZGF.s:707    .text.list_remove:000000000000000c .L0 
C:\Users\stapi\AppData\Local\Temp\ccL7AZGF.s:708    .text.list_remove:000000000000000c .L0 
C:\Users\stapi\AppData\Local\Temp\ccL7AZGF.s:711    .text.list_remove:000000000000000e .L0 
C:\Users\stapi\AppData\Local\Temp\ccL7AZGF.s:712    .text.list_remove:000000000000000e .L0 
C:\Users\stapi\AppData\Local\Temp\ccL7AZGF.s:714    .text.list_remove:0000000000000012 .L0 
C:\Users\stapi\AppData\Local\Temp\ccL7AZGF.s:717    .text.list_remove:0000000000000014 .L0 
C:\Users\stapi\AppData\Local\Temp\ccL7AZGF.s:718    .text.list_remove:0000000000000014 .L0 
C:\Users\stapi\AppData\Local\Temp\ccL7AZGF.s:720    .text.list_remove:0000000000000018 .L0 
C:\Users\stapi\AppData\Local\Temp\ccL7AZGF.s:30     .text.list_init:000000000000000a .L0 
C:\Users\stapi\AppData\Local\Temp\ccL7AZGF.s:70     .text.list_push_back:0000000000000014 .L0 
C:\Users\stapi\AppData\Local\Temp\ccL7AZGF.s:160    .text.list_pool_init:000000000000004c .L0 
C:\Users\stapi\AppData\Local\Temp\ccL7AZGF.s:195    .text.list_push_front:000000000000000c .L0 
C:\Users\stapi\AppData\Local\Temp\ccL7AZGF.s:232    .text.list_pop_front:0000000000000016 .L0 
C:\Users\stapi\AppData\Local\Temp\ccL7AZGF.s:297    .text.list_extract:0000000000000032 .L0 
C:\Users\stapi\AppData\Local\Temp\ccL7AZGF.s:326    .text.list_find:0000000000000012 .L0 
C:\Users\stapi\AppData\Local\Temp\ccL7AZGF.s:377    .text.list_cnt:000000000000000e .L0 
C:\Users\stapi\AppData\Local\Temp\ccL7AZGF.s:467    .text.list_insert:000000000000003e .L0 
C:\Users\stapi\AppData\Local\Temp\ccL7AZGF.s:532    .text.list_insert_after:000000000000002e .L0 
C:\Users\stapi\AppData\Local\Temp\ccL7AZGF.s:575    .text.list_insert_after_fast:0000000000000020 .L0 
C:\Users\stapi\AppData\Local\Temp\ccL7AZGF.s:642    .text.list_insert_before:0000000000000040 .L0 
C:\Users\stapi\AppData\Local\Temp\ccL7AZGF.s:684    .text.list_concat:000000000000001a .L0 
C:\Users\stapi\AppData\Local\Temp\ccL7AZGF.s:723    .text.list_remove:0000000000000018 .L0 
                     .debug_frame:0000000000000000 .L0 
C:\Users\stapi\AppData\Local\Temp\ccL7AZGF.s:61     .text.list_push_back:000000000000000e .L3
C:\Users\stapi\AppData\Local\Temp\ccL7AZGF.s:52     .text.list_push_back:0000000000000006 .L4
C:\Users\stapi\AppData\Local\Temp\ccL7AZGF.s:131    .text.list_pool_init:0000000000000028 .L8
C:\Users\stapi\AppData\Local\Temp\ccL7AZGF.s:142    .text.list_pool_init:000000000000003a .L7
C:\Users\stapi\AppData\Local\Temp\ccL7AZGF.s:116    .text.list_pool_init:000000000000001c .L6
C:\Users\stapi\AppData\Local\Temp\ccL7AZGF.s:183    .text.list_push_front:0000000000000006 .L14
C:\Users\stapi\AppData\Local\Temp\ccL7AZGF.s:226    .text.list_pop_front:0000000000000014 .L15
C:\Users\stapi\AppData\Local\Temp\ccL7AZGF.s:291    .text.list_extract:0000000000000030 .L19
C:\Users\stapi\AppData\Local\Temp\ccL7AZGF.s:265    .text.list_extract:0000000000000018 .L22
C:\Users\stapi\AppData\Local\Temp\ccL7AZGF.s:283    .text.list_extract:000000000000002a .L26
C:\Users\stapi\AppData\Local\Temp\ccL7AZGF.s:315    .text.list_find:0000000000000008 .L35
C:\Users\stapi\AppData\Local\Temp\ccL7AZGF.s:306    .text.list_find:0000000000000000 .L36
C:\Users\stapi\AppData\Local\Temp\ccL7AZGF.s:355    .text.list_cnt:0000000000000008 .L40
C:\Users\stapi\AppData\Local\Temp\ccL7AZGF.s:349    .text.list_cnt:0000000000000004 .L39
C:\Users\stapi\AppData\Local\Temp\ccL7AZGF.s:431    .text.list_insert:0000000000000022 .L42
C:\Users\stapi\AppData\Local\Temp\ccL7AZGF.s:436    .text.list_insert:0000000000000026 .L43
C:\Users\stapi\AppData\Local\Temp\ccL7AZGF.s:407    .text.list_insert:0000000000000012 .L44
C:\Users\stapi\AppData\Local\Temp\ccL7AZGF.s:457    .text.list_insert:0000000000000038 .L45
C:\Users\stapi\AppData\Local\Temp\ccL7AZGF.s:446    .text.list_insert:0000000000000030 .L41
C:\Users\stapi\AppData\Local\Temp\ccL7AZGF.s:500    .text.list_insert_after:0000000000000018 .L49
C:\Users\stapi\AppData\Local\Temp\ccL7AZGF.s:512    .text.list_insert_after:0000000000000020 .L51
C:\Users\stapi\AppData\Local\Temp\ccL7AZGF.s:492    .text.list_insert_after:0000000000000012 .L52
C:\Users\stapi\AppData\Local\Temp\ccL7AZGF.s:505    .text.list_insert_after:000000000000001c .L53
C:\Users\stapi\AppData\Local\Temp\ccL7AZGF.s:551    .text.list_insert_after_fast:000000000000000e .L62
C:\Users\stapi\AppData\Local\Temp\ccL7AZGF.s:570    .text.list_insert_after_fast:000000000000001e .L65
C:\Users\stapi\AppData\Local\Temp\ccL7AZGF.s:604    .text.list_insert_before:000000000000001e .L69
C:\Users\stapi\AppData\Local\Temp\ccL7AZGF.s:625    .text.list_insert_before:0000000000000036 .L71
C:\Users\stapi\AppData\Local\Temp\ccL7AZGF.s:597    .text.list_insert_before:0000000000000016 .L68
C:\Users\stapi\AppData\Local\Temp\ccL7AZGF.s:629    .text.list_insert_before:000000000000003a .L72
C:\Users\stapi\AppData\Local\Temp\ccL7AZGF.s:616    .text.list_insert_before:000000000000002e .L73
C:\Users\stapi\AppData\Local\Temp\ccL7AZGF.s:672    .text.list_concat:0000000000000012 .L76
C:\Users\stapi\AppData\Local\Temp\ccL7AZGF.s:675    .text.list_concat:0000000000000014 .L78
C:\Users\stapi\AppData\Local\Temp\ccL7AZGF.s:663    .text.list_concat:000000000000000a .L83
C:\Users\stapi\AppData\Local\Temp\ccL7AZGF.s:715    .text.list_remove:0000000000000014 .L85
C:\Users\stapi\AppData\Local\Temp\ccL7AZGF.s:709    .text.list_remove:000000000000000e .L87
C:\Users\stapi\AppData\Local\Temp\ccL7AZGF.s:701    .text.list_remove:0000000000000006 .L86
C:\Users\stapi\AppData\Local\Temp\ccL7AZGF.s:1612   .debug_abbrev:0000000000000000 .Ldebug_abbrev0
C:\Users\stapi\AppData\Local\Temp\ccL7AZGF.s:2863   .debug_str:0000000000000168 .LASF50
C:\Users\stapi\AppData\Local\Temp\ccL7AZGF.s:2861   .debug_str:00000000000000ed .LASF51
C:\Users\stapi\AppData\Local\Temp\ccL7AZGF.s:2883   .debug_str:00000000000002dc .LASF52
C:\Users\stapi\AppData\Local\Temp\ccL7AZGF.s:2771   .debug_ranges:0000000000000000 .Ldebug_ranges0
C:\Users\stapi\AppData\Local\Temp\ccL7AZGF.s:2815   .debug_line:0000000000000000 .Ldebug_line0
C:\Users\stapi\AppData\Local\Temp\ccL7AZGF.s:2821   .debug_str:000000000000000f .LASF2
C:\Users\stapi\AppData\Local\Temp\ccL7AZGF.s:2871   .debug_str:0000000000000282 .LASF0
C:\Users\stapi\AppData\Local\Temp\ccL7AZGF.s:2915   .debug_str:0000000000000411 .LASF1
C:\Users\stapi\AppData\Local\Temp\ccL7AZGF.s:2819   .debug_str:0000000000000005 .LASF3
C:\Users\stapi\AppData\Local\Temp\ccL7AZGF.s:2847   .debug_str:0000000000000082 .LASF4
C:\Users\stapi\AppData\Local\Temp\ccL7AZGF.s:2901   .debug_str:00000000000003c9 .LASF5
C:\Users\stapi\AppData\Local\Temp\ccL7AZGF.s:2851   .debug_str:000000000000009e .LASF6
C:\Users\stapi\AppData\Local\Temp\ccL7AZGF.s:2907   .debug_str:00000000000003e6 .LASF7
C:\Users\stapi\AppData\Local\Temp\ccL7AZGF.s:2865   .debug_str:0000000000000261 .LASF8
C:\Users\stapi\AppData\Local\Temp\ccL7AZGF.s:2859   .debug_str:00000000000000db .LASF9
C:\Users\stapi\AppData\Local\Temp\ccL7AZGF.s:2887   .debug_str:0000000000000373 .LASF10
C:\Users\stapi\AppData\Local\Temp\ccL7AZGF.s:2875   .debug_str:00000000000002a1 .LASF11
C:\Users\stapi\AppData\Local\Temp\ccL7AZGF.s:2891   .debug_str:0000000000000390 .LASF12
C:\Users\stapi\AppData\Local\Temp\ccL7AZGF.s:2843   .debug_str:000000000000006b .LASF13
C:\Users\stapi\AppData\Local\Temp\ccL7AZGF.s:2905   .debug_str:00000000000003dd .LASF14
C:\Users\stapi\AppData\Local\Temp\ccL7AZGF.s:2909   .debug_str:00000000000003ef .LASF15
C:\Users\stapi\AppData\Local\Temp\ccL7AZGF.s:2823   .debug_str:0000000000000016 .LASF17
C:\Users\stapi\AppData\Local\Temp\ccL7AZGF.s:2817   .debug_str:0000000000000000 .LASF16
C:\Users\stapi\AppData\Local\Temp\ccL7AZGF.s:2837   .debug_str:0000000000000051 .LASF18
C:\Users\stapi\AppData\Local\Temp\ccL7AZGF.s:2919   .debug_str:000000000000042a .LASF19
C:\Users\stapi\AppData\Local\Temp\ccL7AZGF.s:2895   .debug_str:000000000000039d .LASF22
C:\Users\stapi\AppData\Local\Temp\ccL7AZGF.s:689    .text.list_remove:0000000000000000 .LFB18
C:\Users\stapi\AppData\Local\Temp\ccL7AZGF.s:721    .text.list_remove:0000000000000018 .LFE18
C:\Users\stapi\AppData\Local\Temp\ccL7AZGF.s:2835   .debug_str:0000000000000044 .LASF20
C:\Users\stapi\AppData\Local\Temp\ccL7AZGF.s:2893   .debug_str:0000000000000395 .LASF21
C:\Users\stapi\AppData\Local\Temp\ccL7AZGF.s:2879   .debug_str:00000000000002c3 .LASF23
C:\Users\stapi\AppData\Local\Temp\ccL7AZGF.s:647    .text.list_concat:0000000000000000 .LFB17
C:\Users\stapi\AppData\Local\Temp\ccL7AZGF.s:682    .text.list_concat:000000000000001a .LFE17
C:\Users\stapi\AppData\Local\Temp\ccL7AZGF.s:2923   .debug_str:0000000000000434 .LASF24
C:\Users\stapi\AppData\Local\Temp\ccL7AZGF.s:2925   .debug_str:000000000000043a .LASF25
C:\Users\stapi\AppData\Local\Temp\ccL7AZGF.s:2897   .debug_str:00000000000003a9 .LASF26
C:\Users\stapi\AppData\Local\Temp\ccL7AZGF.s:580    .text.list_insert_before:0000000000000000 .LFB16
C:\Users\stapi\AppData\Local\Temp\ccL7AZGF.s:640    .text.list_insert_before:0000000000000040 .LFE16
C:\Users\stapi\AppData\Local\Temp\ccL7AZGF.s:2267   .debug_loc:0000000000000000 .LLST27
C:\Users\stapi\AppData\Local\Temp\ccL7AZGF.s:2917   .debug_str:000000000000041d .LASF27
C:\Users\stapi\AppData\Local\Temp\ccL7AZGF.s:2296   .debug_loc:0000000000000045 .LLST28
C:\Users\stapi\AppData\Local\Temp\ccL7AZGF.s:2329   .debug_loc:0000000000000095 .LLST29
C:\Users\stapi\AppData\Local\Temp\ccL7AZGF.s:617    .text.list_insert_before:000000000000002e .LBB26
C:\Users\stapi\AppData\Local\Temp\ccL7AZGF.s:638    .text.list_insert_before:0000000000000040 .LBE26
C:\Users\stapi\AppData\Local\Temp\ccL7AZGF.s:2831   .debug_str:000000000000003a .LASF30
C:\Users\stapi\AppData\Local\Temp\ccL7AZGF.s:596    .text.list_insert_before:0000000000000016 .LVL47
C:\Users\stapi\AppData\Local\Temp\ccL7AZGF.s:613    .text.list_insert_before:000000000000002c .LVL49
C:\Users\stapi\AppData\Local\Temp\ccL7AZGF.s:2855   .debug_str:00000000000000bb .LASF28
C:\Users\stapi\AppData\Local\Temp\ccL7AZGF.s:537    .text.list_insert_after_fast:0000000000000000 .LFB15
C:\Users\stapi\AppData\Local\Temp\ccL7AZGF.s:573    .text.list_insert_after_fast:0000000000000020 .LFE15
C:\Users\stapi\AppData\Local\Temp\ccL7AZGF.s:2358   .debug_loc:00000000000000da .LLST24
C:\Users\stapi\AppData\Local\Temp\ccL7AZGF.s:2376   .debug_loc:0000000000000106 .LLST25
C:\Users\stapi\AppData\Local\Temp\ccL7AZGF.s:2398   .debug_loc:000000000000013d .LLST26
C:\Users\stapi\AppData\Local\Temp\ccL7AZGF.s:550    .text.list_insert_after_fast:000000000000000e .LVL44
C:\Users\stapi\AppData\Local\Temp\ccL7AZGF.s:2873   .debug_str:000000000000028f .LASF29
C:\Users\stapi\AppData\Local\Temp\ccL7AZGF.s:472    .text.list_insert_after:0000000000000000 .LFB14
C:\Users\stapi\AppData\Local\Temp\ccL7AZGF.s:530    .text.list_insert_after:000000000000002e .LFE14
C:\Users\stapi\AppData\Local\Temp\ccL7AZGF.s:2416   .debug_loc:0000000000000169 .LLST20
C:\Users\stapi\AppData\Local\Temp\ccL7AZGF.s:2434   .debug_loc:0000000000000195 .LLST21
C:\Users\stapi\AppData\Local\Temp\ccL7AZGF.s:2474   .debug_loc:00000000000001f3 .LLST22
C:\Users\stapi\AppData\Local\Temp\ccL7AZGF.s:2492   .debug_loc:000000000000021f .LLST23
C:\Users\stapi\AppData\Local\Temp\ccL7AZGF.s:491    .text.list_insert_after:0000000000000012 .LVL37
C:\Users\stapi\AppData\Local\Temp\ccL7AZGF.s:2869   .debug_str:0000000000000276 .LASF31
C:\Users\stapi\AppData\Local\Temp\ccL7AZGF.s:382    .text.list_insert:0000000000000000 .LFB13
C:\Users\stapi\AppData\Local\Temp\ccL7AZGF.s:465    .text.list_insert:000000000000003e .LFE13
C:\Users\stapi\AppData\Local\Temp\ccL7AZGF.s:2503   .debug_loc:000000000000023d .LLST15
C:\Users\stapi\AppData\Local\Temp\ccL7AZGF.s:2514   .debug_loc:000000000000025b .LLST16
C:\Users\stapi\AppData\Local\Temp\ccL7AZGF.s:2525   .debug_loc:0000000000000279 .LLST17
C:\Users\stapi\AppData\Local\Temp\ccL7AZGF.s:2921   .debug_str:000000000000042f .LASF32
C:\Users\stapi\AppData\Local\Temp\ccL7AZGF.s:2536   .debug_loc:0000000000000297 .LLST18
C:\Users\stapi\AppData\Local\Temp\ccL7AZGF.s:2556   .debug_loc:00000000000002cc .LLST19
C:\Users\stapi\AppData\Local\Temp\ccL7AZGF.s:417    .text.list_insert:000000000000001a .LVL31
C:\Users\stapi\AppData\Local\Temp\ccL7AZGF.s:2829   .debug_str:0000000000000034 .LASF33
C:\Users\stapi\AppData\Local\Temp\ccL7AZGF.s:2857   .debug_str:00000000000000d2 .LASF34
C:\Users\stapi\AppData\Local\Temp\ccL7AZGF.s:331    .text.list_cnt:0000000000000000 .LFB12
C:\Users\stapi\AppData\Local\Temp\ccL7AZGF.s:375    .text.list_cnt:000000000000000e .LFE12
C:\Users\stapi\AppData\Local\Temp\ccL7AZGF.s:2572   .debug_loc:00000000000002f6 .LLST11
C:\Users\stapi\AppData\Local\Temp\ccL7AZGF.s:2586   .debug_loc:0000000000000317 .LLST12
C:\Users\stapi\AppData\Local\Temp\ccL7AZGF.s:2598   .debug_loc:0000000000000336 .LLST13
C:\Users\stapi\AppData\Local\Temp\ccL7AZGF.s:337    .text.list_cnt:0000000000000000 .LBB20
C:\Users\stapi\AppData\Local\Temp\ccL7AZGF.s:344    .text.list_cnt:0000000000000002 .LBE20
C:\Users\stapi\AppData\Local\Temp\ccL7AZGF.s:2609   .debug_loc:0000000000000354 .LLST14
C:\Users\stapi\AppData\Local\Temp\ccL7AZGF.s:357    .text.list_cnt:0000000000000008 .LBB22
C:\Users\stapi\AppData\Local\Temp\ccL7AZGF.s:2867   .debug_str:000000000000026c .LASF35
C:\Users\stapi\AppData\Local\Temp\ccL7AZGF.s:302    .text.list_find:0000000000000000 .LFB11
C:\Users\stapi\AppData\Local\Temp\ccL7AZGF.s:324    .text.list_find:0000000000000012 .LFE11
C:\Users\stapi\AppData\Local\Temp\ccL7AZGF.s:2881   .debug_str:00000000000002cf .LASF36
C:\Users\stapi\AppData\Local\Temp\ccL7AZGF.s:2616   .debug_loc:0000000000000367 .LLST10
C:\Users\stapi\AppData\Local\Temp\ccL7AZGF.s:2899   .debug_str:00000000000003bc .LASF37
C:\Users\stapi\AppData\Local\Temp\ccL7AZGF.s:237    .text.list_extract:0000000000000000 .LFB10
C:\Users\stapi\AppData\Local\Temp\ccL7AZGF.s:295    .text.list_extract:0000000000000032 .LFE10
C:\Users\stapi\AppData\Local\Temp\ccL7AZGF.s:2839   .debug_str:0000000000000057 .LASF38
C:\Users\stapi\AppData\Local\Temp\ccL7AZGF.s:2629   .debug_loc:0000000000000387 .LLST9
C:\Users\stapi\AppData\Local\Temp\ccL7AZGF.s:2911   .debug_str:00000000000003f8 .LASF39
C:\Users\stapi\AppData\Local\Temp\ccL7AZGF.s:200    .text.list_pop_front:0000000000000000 .LFB9
C:\Users\stapi\AppData\Local\Temp\ccL7AZGF.s:230    .text.list_pop_front:0000000000000016 .LFE9
C:\Users\stapi\AppData\Local\Temp\ccL7AZGF.s:2640   .debug_loc:00000000000003a5 .LLST8
C:\Users\stapi\AppData\Local\Temp\ccL7AZGF.s:2825   .debug_str:000000000000001b .LASF40
C:\Users\stapi\AppData\Local\Temp\ccL7AZGF.s:165    .text.list_push_front:0000000000000000 .LFB8
C:\Users\stapi\AppData\Local\Temp\ccL7AZGF.s:193    .text.list_push_front:000000000000000c .LFE8
C:\Users\stapi\AppData\Local\Temp\ccL7AZGF.s:170    .text.list_push_front:0000000000000000 .LBB18
C:\Users\stapi\AppData\Local\Temp\ccL7AZGF.s:177    .text.list_push_front:0000000000000002 .LBE18
C:\Users\stapi\AppData\Local\Temp\ccL7AZGF.s:2651   .debug_loc:00000000000003c3 .LLST7
C:\Users\stapi\AppData\Local\Temp\ccL7AZGF.s:2889   .debug_str:0000000000000381 .LASF41
C:\Users\stapi\AppData\Local\Temp\ccL7AZGF.s:35     .text.list_push_back:0000000000000000 .LFB7
C:\Users\stapi\AppData\Local\Temp\ccL7AZGF.s:68     .text.list_push_back:0000000000000014 .LFE7
C:\Users\stapi\AppData\Local\Temp\ccL7AZGF.s:40     .text.list_push_back:0000000000000000 .LBB12
C:\Users\stapi\AppData\Local\Temp\ccL7AZGF.s:45     .text.list_push_back:0000000000000000 .LBE12
C:\Users\stapi\AppData\Local\Temp\ccL7AZGF.s:2845   .debug_str:0000000000000073 .LASF42
C:\Users\stapi\AppData\Local\Temp\ccL7AZGF.s:75     .text.list_pool_init:0000000000000000 .LFB6
C:\Users\stapi\AppData\Local\Temp\ccL7AZGF.s:158    .text.list_pool_init:000000000000004c .LFE6
C:\Users\stapi\AppData\Local\Temp\ccL7AZGF.s:2658   .debug_loc:00000000000003d6 .LLST0
C:\Users\stapi\AppData\Local\Temp\ccL7AZGF.s:2833   .debug_str:000000000000003f .LASF43
C:\Users\stapi\AppData\Local\Temp\ccL7AZGF.s:2669   .debug_loc:00000000000003f4 .LLST1
C:\Users\stapi\AppData\Local\Temp\ccL7AZGF.s:2903   .debug_str:00000000000003d3 .LASF44
C:\Users\stapi\AppData\Local\Temp\ccL7AZGF.s:2680   .debug_loc:0000000000000412 .LLST2
C:\Users\stapi\AppData\Local\Temp\ccL7AZGF.s:2827   .debug_str:000000000000002b .LASF45
C:\Users\stapi\AppData\Local\Temp\ccL7AZGF.s:2691   .debug_loc:0000000000000430 .LLST3
C:\Users\stapi\AppData\Local\Temp\ccL7AZGF.s:2849   .debug_str:0000000000000090 .LASF46
C:\Users\stapi\AppData\Local\Temp\ccL7AZGF.s:2702   .debug_loc:000000000000044e .LLST4
C:\Users\stapi\AppData\Local\Temp\ccL7AZGF.s:2713   .debug_loc:000000000000046c .LLST5
C:\Users\stapi\AppData\Local\Temp\ccL7AZGF.s:91     .text.list_pool_init:0000000000000008 .LBB14
C:\Users\stapi\AppData\Local\Temp\ccL7AZGF.s:2725   .debug_loc:000000000000048b .LLST6
C:\Users\stapi\AppData\Local\Temp\ccL7AZGF.s:141    .text.list_pool_init:000000000000003a .LVL6
C:\Users\stapi\AppData\Local\Temp\ccL7AZGF.s:147    .text.list_pool_init:0000000000000046 .LVL7
C:\Users\stapi\AppData\Local\Temp\ccL7AZGF.s:2853   .debug_str:00000000000000b1 .LASF53
C:\Users\stapi\AppData\Local\Temp\ccL7AZGF.s:2841   .debug_str:0000000000000061 .LASF47
C:\Users\stapi\AppData\Local\Temp\ccL7AZGF.s:2913   .debug_str:0000000000000407 .LASF48
C:\Users\stapi\AppData\Local\Temp\ccL7AZGF.s:2885   .debug_str:0000000000000365 .LASF49
C:\Users\stapi\AppData\Local\Temp\ccL7AZGF.s:14     .text.list_init:0000000000000000 .LFB5
C:\Users\stapi\AppData\Local\Temp\ccL7AZGF.s:28     .text.list_init:000000000000000a .LFE5
C:\Users\stapi\AppData\Local\Temp\ccL7AZGF.s:2877   .debug_str:00000000000002b8 .LASF54
C:\Users\stapi\AppData\Local\Temp\ccL7AZGF.s:583    .text.list_insert_before:0000000000000000 .LVL45
C:\Users\stapi\AppData\Local\Temp\ccL7AZGF.s:603    .text.list_insert_before:000000000000001e .LVL48
C:\Users\stapi\AppData\Local\Temp\ccL7AZGF.s:615    .text.list_insert_before:000000000000002e .LVL50
C:\Users\stapi\AppData\Local\Temp\ccL7AZGF.s:591    .text.list_insert_before:000000000000000c .LVL46
C:\Users\stapi\AppData\Local\Temp\ccL7AZGF.s:540    .text.list_insert_after_fast:0000000000000000 .LVL42
C:\Users\stapi\AppData\Local\Temp\ccL7AZGF.s:545    .text.list_insert_after_fast:0000000000000004 .LVL43
C:\Users\stapi\AppData\Local\Temp\ccL7AZGF.s:475    .text.list_insert_after:0000000000000000 .LVL34
C:\Users\stapi\AppData\Local\Temp\ccL7AZGF.s:485    .text.list_insert_after:0000000000000006 .LVL36
C:\Users\stapi\AppData\Local\Temp\ccL7AZGF.s:504    .text.list_insert_after:000000000000001c .LVL39
C:\Users\stapi\AppData\Local\Temp\ccL7AZGF.s:511    .text.list_insert_after:0000000000000020 .LVL40
C:\Users\stapi\AppData\Local\Temp\ccL7AZGF.s:517    .text.list_insert_after:0000000000000022 .LVL41
C:\Users\stapi\AppData\Local\Temp\ccL7AZGF.s:481    .text.list_insert_after:0000000000000004 .LVL35
C:\Users\stapi\AppData\Local\Temp\ccL7AZGF.s:385    .text.list_insert:0000000000000000 .LVL27
C:\Users\stapi\AppData\Local\Temp\ccL7AZGF.s:406    .text.list_insert:0000000000000012 .LVL30
C:\Users\stapi\AppData\Local\Temp\ccL7AZGF.s:395    .text.list_insert:0000000000000008 .LVL28
C:\Users\stapi\AppData\Local\Temp\ccL7AZGF.s:421    .text.list_insert:000000000000001c .LVL32
C:\Users\stapi\AppData\Local\Temp\ccL7AZGF.s:428    .text.list_insert:0000000000000020 .LVL33
C:\Users\stapi\AppData\Local\Temp\ccL7AZGF.s:399    .text.list_insert:000000000000000a .LVL29
C:\Users\stapi\AppData\Local\Temp\ccL7AZGF.s:334    .text.list_cnt:0000000000000000 .LVL22
C:\Users\stapi\AppData\Local\Temp\ccL7AZGF.s:348    .text.list_cnt:0000000000000004 .LVL24
C:\Users\stapi\AppData\Local\Temp\ccL7AZGF.s:342    .text.list_cnt:0000000000000002 .LVL23
C:\Users\stapi\AppData\Local\Temp\ccL7AZGF.s:361    .text.list_cnt:000000000000000a .LVL25
C:\Users\stapi\AppData\Local\Temp\ccL7AZGF.s:366    .text.list_cnt:000000000000000c .LVL26
C:\Users\stapi\AppData\Local\Temp\ccL7AZGF.s:310    .text.list_find:0000000000000002 .LVL20
C:\Users\stapi\AppData\Local\Temp\ccL7AZGF.s:319    .text.list_find:000000000000000c .LVL21
C:\Users\stapi\AppData\Local\Temp\ccL7AZGF.s:245    .text.list_extract:0000000000000002 .LVL15
C:\Users\stapi\AppData\Local\Temp\ccL7AZGF.s:270    .text.list_extract:000000000000001c .LVL17
C:\Users\stapi\AppData\Local\Temp\ccL7AZGF.s:290    .text.list_extract:0000000000000030 .LVL18
C:\Users\stapi\AppData\Local\Temp\ccL7AZGF.s:203    .text.list_pop_front:0000000000000000 .LVL12
C:\Users\stapi\AppData\Local\Temp\ccL7AZGF.s:210    .text.list_pop_front:0000000000000004 .LVL13
C:\Users\stapi\AppData\Local\Temp\ccL7AZGF.s:168    .text.list_push_front:0000000000000000 .LVL10
C:\Users\stapi\AppData\Local\Temp\ccL7AZGF.s:175    .text.list_push_front:0000000000000002 .LVL11
C:\Users\stapi\AppData\Local\Temp\ccL7AZGF.s:78     .text.list_pool_init:0000000000000000 .LVL2
C:\Users\stapi\AppData\Local\Temp\ccL7AZGF.s:115    .text.list_pool_init:000000000000001c .LVL5
C:\Users\stapi\AppData\Local\Temp\ccL7AZGF.s:109    .text.list_pool_init:000000000000001a .LVL4
C:\Users\stapi\AppData\Local\Temp\ccL7AZGF.s:90     .text.list_pool_init:0000000000000008 .LVL3
C:\Users\stapi\AppData\Local\Temp\ccL7AZGF.s:730    .debug_info:0000000000000000 .Ldebug_info0
C:\Users\stapi\AppData\Local\Temp\ccL7AZGF.s:95     .text.list_pool_init:0000000000000008 .LBE14
C:\Users\stapi\AppData\Local\Temp\ccL7AZGF.s:102    .text.list_pool_init:0000000000000012 .LBB17
C:\Users\stapi\AppData\Local\Temp\ccL7AZGF.s:111    .text.list_pool_init:000000000000001a .LBE17
C:\Users\stapi\AppData\Local\Temp\ccL7AZGF.s:363    .text.list_cnt:000000000000000a .LBE22
C:\Users\stapi\AppData\Local\Temp\ccL7AZGF.s:368    .text.list_cnt:000000000000000c .LBB25
C:\Users\stapi\AppData\Local\Temp\ccL7AZGF.s:373    .text.list_cnt:000000000000000e .LBE25

UNDEFINED SYMBOLS
__riscv_save_6
__riscv_restore_6
sys_memcpy
__riscv_save_5
__riscv_restore_5
__riscv_save_0
__riscv_restore_0
