   1              		.file	"gd32vw55x_dbg.c"
   2              		.option nopic
   3              		.attribute arch, "rv32i2p0_m2p0_a2p0_f2p0_c2p0_b_p0p94"
   4              		.attribute unaligned_access, 0
   5              		.attribute stack_align, 16
   6              		.text
   7              	.Ltext0:
   8              		.cfi_sections	.debug_frame
   9              		.section	.text.dbg_deinit,"ax",@progbits
  10              		.align	1
  11              		.globl	dbg_deinit
  13              	dbg_deinit:
  14              	.LFB365:
  15              		.file 1 "C:/Users/stapi/OneDrive/Desktop/GD32VW553/GD32VW55X_Wifi_BLE_SDK/GD32VW55x_RELEASE_V1.0.2
   1:C:/Users/stapi/OneDrive/Desktop/GD32VW553/GD32VW55X_Wifi_BLE_SDK/GD32VW55x_RELEASE_V1.0.2/MSDK/plf/GD32VW55x_standard_peripheral/Source\gd32vw55x_dbg.c **** /*!
   2:C:/Users/stapi/OneDrive/Desktop/GD32VW553/GD32VW55X_Wifi_BLE_SDK/GD32VW55x_RELEASE_V1.0.2/MSDK/plf/GD32VW55x_standard_peripheral/Source\gd32vw55x_dbg.c ****     \file    gd32vw55x_dbg.c
   3:C:/Users/stapi/OneDrive/Desktop/GD32VW553/GD32VW55X_Wifi_BLE_SDK/GD32VW55x_RELEASE_V1.0.2/MSDK/plf/GD32VW55x_standard_peripheral/Source\gd32vw55x_dbg.c ****     \brief   DBG driver
   4:C:/Users/stapi/OneDrive/Desktop/GD32VW553/GD32VW55X_Wifi_BLE_SDK/GD32VW55x_RELEASE_V1.0.2/MSDK/plf/GD32VW55x_standard_peripheral/Source\gd32vw55x_dbg.c **** 
   5:C:/Users/stapi/OneDrive/Desktop/GD32VW553/GD32VW55X_Wifi_BLE_SDK/GD32VW55x_RELEASE_V1.0.2/MSDK/plf/GD32VW55x_standard_peripheral/Source\gd32vw55x_dbg.c ****     \version 2023-07-20, V1.0.0, firmware for GD32VW55x
   6:C:/Users/stapi/OneDrive/Desktop/GD32VW553/GD32VW55X_Wifi_BLE_SDK/GD32VW55x_RELEASE_V1.0.2/MSDK/plf/GD32VW55x_standard_peripheral/Source\gd32vw55x_dbg.c **** */
   7:C:/Users/stapi/OneDrive/Desktop/GD32VW553/GD32VW55X_Wifi_BLE_SDK/GD32VW55x_RELEASE_V1.0.2/MSDK/plf/GD32VW55x_standard_peripheral/Source\gd32vw55x_dbg.c **** 
   8:C:/Users/stapi/OneDrive/Desktop/GD32VW553/GD32VW55X_Wifi_BLE_SDK/GD32VW55x_RELEASE_V1.0.2/MSDK/plf/GD32VW55x_standard_peripheral/Source\gd32vw55x_dbg.c **** /*
   9:C:/Users/stapi/OneDrive/Desktop/GD32VW553/GD32VW55X_Wifi_BLE_SDK/GD32VW55x_RELEASE_V1.0.2/MSDK/plf/GD32VW55x_standard_peripheral/Source\gd32vw55x_dbg.c ****     Copyright (c) 2023, GigaDevice Semiconductor Inc.
  10:C:/Users/stapi/OneDrive/Desktop/GD32VW553/GD32VW55X_Wifi_BLE_SDK/GD32VW55x_RELEASE_V1.0.2/MSDK/plf/GD32VW55x_standard_peripheral/Source\gd32vw55x_dbg.c **** 
  11:C:/Users/stapi/OneDrive/Desktop/GD32VW553/GD32VW55X_Wifi_BLE_SDK/GD32VW55x_RELEASE_V1.0.2/MSDK/plf/GD32VW55x_standard_peripheral/Source\gd32vw55x_dbg.c ****     Redistribution and use in source and binary forms, with or without modification,
  12:C:/Users/stapi/OneDrive/Desktop/GD32VW553/GD32VW55X_Wifi_BLE_SDK/GD32VW55x_RELEASE_V1.0.2/MSDK/plf/GD32VW55x_standard_peripheral/Source\gd32vw55x_dbg.c **** are permitted provided that the following conditions are met:
  13:C:/Users/stapi/OneDrive/Desktop/GD32VW553/GD32VW55X_Wifi_BLE_SDK/GD32VW55x_RELEASE_V1.0.2/MSDK/plf/GD32VW55x_standard_peripheral/Source\gd32vw55x_dbg.c **** 
  14:C:/Users/stapi/OneDrive/Desktop/GD32VW553/GD32VW55X_Wifi_BLE_SDK/GD32VW55x_RELEASE_V1.0.2/MSDK/plf/GD32VW55x_standard_peripheral/Source\gd32vw55x_dbg.c ****     1. Redistributions of source code must retain the above copyright notice, this
  15:C:/Users/stapi/OneDrive/Desktop/GD32VW553/GD32VW55X_Wifi_BLE_SDK/GD32VW55x_RELEASE_V1.0.2/MSDK/plf/GD32VW55x_standard_peripheral/Source\gd32vw55x_dbg.c ****        list of conditions and the following disclaimer.
  16:C:/Users/stapi/OneDrive/Desktop/GD32VW553/GD32VW55X_Wifi_BLE_SDK/GD32VW55x_RELEASE_V1.0.2/MSDK/plf/GD32VW55x_standard_peripheral/Source\gd32vw55x_dbg.c ****     2. Redistributions in binary form must reproduce the above copyright notice,
  17:C:/Users/stapi/OneDrive/Desktop/GD32VW553/GD32VW55X_Wifi_BLE_SDK/GD32VW55x_RELEASE_V1.0.2/MSDK/plf/GD32VW55x_standard_peripheral/Source\gd32vw55x_dbg.c ****        this list of conditions and the following disclaimer in the documentation
  18:C:/Users/stapi/OneDrive/Desktop/GD32VW553/GD32VW55X_Wifi_BLE_SDK/GD32VW55x_RELEASE_V1.0.2/MSDK/plf/GD32VW55x_standard_peripheral/Source\gd32vw55x_dbg.c ****        and/or other materials provided with the distribution.
  19:C:/Users/stapi/OneDrive/Desktop/GD32VW553/GD32VW55X_Wifi_BLE_SDK/GD32VW55x_RELEASE_V1.0.2/MSDK/plf/GD32VW55x_standard_peripheral/Source\gd32vw55x_dbg.c ****     3. Neither the name of the copyright holder nor the names of its contributors
  20:C:/Users/stapi/OneDrive/Desktop/GD32VW553/GD32VW55X_Wifi_BLE_SDK/GD32VW55x_RELEASE_V1.0.2/MSDK/plf/GD32VW55x_standard_peripheral/Source\gd32vw55x_dbg.c ****        may be used to endorse or promote products derived from this software without
  21:C:/Users/stapi/OneDrive/Desktop/GD32VW553/GD32VW55X_Wifi_BLE_SDK/GD32VW55x_RELEASE_V1.0.2/MSDK/plf/GD32VW55x_standard_peripheral/Source\gd32vw55x_dbg.c ****        specific prior written permission.
  22:C:/Users/stapi/OneDrive/Desktop/GD32VW553/GD32VW55X_Wifi_BLE_SDK/GD32VW55x_RELEASE_V1.0.2/MSDK/plf/GD32VW55x_standard_peripheral/Source\gd32vw55x_dbg.c **** 
  23:C:/Users/stapi/OneDrive/Desktop/GD32VW553/GD32VW55X_Wifi_BLE_SDK/GD32VW55x_RELEASE_V1.0.2/MSDK/plf/GD32VW55x_standard_peripheral/Source\gd32vw55x_dbg.c ****     THIS SOFTWARE IS PROVIDED BY THE COPYRIGHT HOLDERS AND CONTRIBUTORS "AS IS"
  24:C:/Users/stapi/OneDrive/Desktop/GD32VW553/GD32VW55X_Wifi_BLE_SDK/GD32VW55x_RELEASE_V1.0.2/MSDK/plf/GD32VW55x_standard_peripheral/Source\gd32vw55x_dbg.c **** AND ANY EXPRESS OR IMPLIED WARRANTIES, INCLUDING, BUT NOT LIMITED TO, THE IMPLIED
  25:C:/Users/stapi/OneDrive/Desktop/GD32VW553/GD32VW55X_Wifi_BLE_SDK/GD32VW55x_RELEASE_V1.0.2/MSDK/plf/GD32VW55x_standard_peripheral/Source\gd32vw55x_dbg.c **** WARRANTIES OF MERCHANTABILITY AND FITNESS FOR A PARTICULAR PURPOSE ARE DISCLAIMED.
  26:C:/Users/stapi/OneDrive/Desktop/GD32VW553/GD32VW55X_Wifi_BLE_SDK/GD32VW55x_RELEASE_V1.0.2/MSDK/plf/GD32VW55x_standard_peripheral/Source\gd32vw55x_dbg.c **** IN NO EVENT SHALL THE COPYRIGHT HOLDER OR CONTRIBUTORS BE LIABLE FOR ANY DIRECT,
  27:C:/Users/stapi/OneDrive/Desktop/GD32VW553/GD32VW55X_Wifi_BLE_SDK/GD32VW55x_RELEASE_V1.0.2/MSDK/plf/GD32VW55x_standard_peripheral/Source\gd32vw55x_dbg.c **** INDIRECT, INCIDENTAL, SPECIAL, EXEMPLARY, OR CONSEQUENTIAL DAMAGES (INCLUDING, BUT
  28:C:/Users/stapi/OneDrive/Desktop/GD32VW553/GD32VW55X_Wifi_BLE_SDK/GD32VW55x_RELEASE_V1.0.2/MSDK/plf/GD32VW55x_standard_peripheral/Source\gd32vw55x_dbg.c **** NOT LIMITED TO, PROCUREMENT OF SUBSTITUTE GOODS OR SERVICES; LOSS OF USE, DATA, OR
  29:C:/Users/stapi/OneDrive/Desktop/GD32VW553/GD32VW55X_Wifi_BLE_SDK/GD32VW55x_RELEASE_V1.0.2/MSDK/plf/GD32VW55x_standard_peripheral/Source\gd32vw55x_dbg.c **** PROFITS; OR BUSINESS INTERRUPTION) HOWEVER CAUSED AND ON ANY THEORY OF LIABILITY,
  30:C:/Users/stapi/OneDrive/Desktop/GD32VW553/GD32VW55X_Wifi_BLE_SDK/GD32VW55x_RELEASE_V1.0.2/MSDK/plf/GD32VW55x_standard_peripheral/Source\gd32vw55x_dbg.c **** WHETHER IN CONTRACT, STRICT LIABILITY, OR TORT (INCLUDING NEGLIGENCE OR OTHERWISE)
  31:C:/Users/stapi/OneDrive/Desktop/GD32VW553/GD32VW55X_Wifi_BLE_SDK/GD32VW55x_RELEASE_V1.0.2/MSDK/plf/GD32VW55x_standard_peripheral/Source\gd32vw55x_dbg.c **** ARISING IN ANY WAY OUT OF THE USE OF THIS SOFTWARE, EVEN IF ADVISED OF THE POSSIBILITY
  32:C:/Users/stapi/OneDrive/Desktop/GD32VW553/GD32VW55X_Wifi_BLE_SDK/GD32VW55x_RELEASE_V1.0.2/MSDK/plf/GD32VW55x_standard_peripheral/Source\gd32vw55x_dbg.c **** OF SUCH DAMAGE.
  33:C:/Users/stapi/OneDrive/Desktop/GD32VW553/GD32VW55X_Wifi_BLE_SDK/GD32VW55x_RELEASE_V1.0.2/MSDK/plf/GD32VW55x_standard_peripheral/Source\gd32vw55x_dbg.c **** */
  34:C:/Users/stapi/OneDrive/Desktop/GD32VW553/GD32VW55X_Wifi_BLE_SDK/GD32VW55x_RELEASE_V1.0.2/MSDK/plf/GD32VW55x_standard_peripheral/Source\gd32vw55x_dbg.c **** 
  35:C:/Users/stapi/OneDrive/Desktop/GD32VW553/GD32VW55X_Wifi_BLE_SDK/GD32VW55x_RELEASE_V1.0.2/MSDK/plf/GD32VW55x_standard_peripheral/Source\gd32vw55x_dbg.c **** #include "gd32vw55x_dbg.h"
  36:C:/Users/stapi/OneDrive/Desktop/GD32VW553/GD32VW55X_Wifi_BLE_SDK/GD32VW55x_RELEASE_V1.0.2/MSDK/plf/GD32VW55x_standard_peripheral/Source\gd32vw55x_dbg.c **** 
  37:C:/Users/stapi/OneDrive/Desktop/GD32VW553/GD32VW55X_Wifi_BLE_SDK/GD32VW55x_RELEASE_V1.0.2/MSDK/plf/GD32VW55x_standard_peripheral/Source\gd32vw55x_dbg.c **** #define DBG_RESET_VAL       ((uint32_t)0x00000000U)   /*!< DBG reset value */
  38:C:/Users/stapi/OneDrive/Desktop/GD32VW553/GD32VW55X_Wifi_BLE_SDK/GD32VW55x_RELEASE_V1.0.2/MSDK/plf/GD32VW55x_standard_peripheral/Source\gd32vw55x_dbg.c **** 
  39:C:/Users/stapi/OneDrive/Desktop/GD32VW553/GD32VW55X_Wifi_BLE_SDK/GD32VW55x_RELEASE_V1.0.2/MSDK/plf/GD32VW55x_standard_peripheral/Source\gd32vw55x_dbg.c **** /*!
  40:C:/Users/stapi/OneDrive/Desktop/GD32VW553/GD32VW55X_Wifi_BLE_SDK/GD32VW55x_RELEASE_V1.0.2/MSDK/plf/GD32VW55x_standard_peripheral/Source\gd32vw55x_dbg.c ****     \brief      deinitialize the DBG
  41:C:/Users/stapi/OneDrive/Desktop/GD32VW553/GD32VW55X_Wifi_BLE_SDK/GD32VW55x_RELEASE_V1.0.2/MSDK/plf/GD32VW55x_standard_peripheral/Source\gd32vw55x_dbg.c ****     \param[in]  none
  42:C:/Users/stapi/OneDrive/Desktop/GD32VW553/GD32VW55X_Wifi_BLE_SDK/GD32VW55x_RELEASE_V1.0.2/MSDK/plf/GD32VW55x_standard_peripheral/Source\gd32vw55x_dbg.c ****     \param[out] none
  43:C:/Users/stapi/OneDrive/Desktop/GD32VW553/GD32VW55X_Wifi_BLE_SDK/GD32VW55x_RELEASE_V1.0.2/MSDK/plf/GD32VW55x_standard_peripheral/Source\gd32vw55x_dbg.c ****     \retval     none
  44:C:/Users/stapi/OneDrive/Desktop/GD32VW553/GD32VW55X_Wifi_BLE_SDK/GD32VW55x_RELEASE_V1.0.2/MSDK/plf/GD32VW55x_standard_peripheral/Source\gd32vw55x_dbg.c **** */
  45:C:/Users/stapi/OneDrive/Desktop/GD32VW553/GD32VW55X_Wifi_BLE_SDK/GD32VW55x_RELEASE_V1.0.2/MSDK/plf/GD32VW55x_standard_peripheral/Source\gd32vw55x_dbg.c **** void dbg_deinit(void)
  46:C:/Users/stapi/OneDrive/Desktop/GD32VW553/GD32VW55X_Wifi_BLE_SDK/GD32VW55x_RELEASE_V1.0.2/MSDK/plf/GD32VW55x_standard_peripheral/Source\gd32vw55x_dbg.c **** {
  16              		.loc 1 46 1
  17              		.cfi_startproc
  47:C:/Users/stapi/OneDrive/Desktop/GD32VW553/GD32VW55X_Wifi_BLE_SDK/GD32VW55x_RELEASE_V1.0.2/MSDK/plf/GD32VW55x_standard_peripheral/Source\gd32vw55x_dbg.c ****     DBG_CTL0 = DBG_RESET_VAL;
  18              		.loc 1 47 5
  19              		.loc 1 47 14 is_stmt 0
  20 0000 B74704E0 		li	a5,-536592384
  21 0004 23A20700 		sw	zero,4(a5)
  48:C:/Users/stapi/OneDrive/Desktop/GD32VW553/GD32VW55X_Wifi_BLE_SDK/GD32VW55x_RELEASE_V1.0.2/MSDK/plf/GD32VW55x_standard_peripheral/Source\gd32vw55x_dbg.c ****     DBG_CTL1 = DBG_RESET_VAL;
  22              		.loc 1 48 5 is_stmt 1
  23              		.loc 1 48 14 is_stmt 0
  24 0008 23A40700 		sw	zero,8(a5)
  49:C:/Users/stapi/OneDrive/Desktop/GD32VW553/GD32VW55X_Wifi_BLE_SDK/GD32VW55x_RELEASE_V1.0.2/MSDK/plf/GD32VW55x_standard_peripheral/Source\gd32vw55x_dbg.c ****     DBG_CTL2 = DBG_RESET_VAL;
  25              		.loc 1 49 5 is_stmt 1
  26              		.loc 1 49 14 is_stmt 0
  27 000c 23A60700 		sw	zero,12(a5)
  50:C:/Users/stapi/OneDrive/Desktop/GD32VW553/GD32VW55X_Wifi_BLE_SDK/GD32VW55x_RELEASE_V1.0.2/MSDK/plf/GD32VW55x_standard_peripheral/Source\gd32vw55x_dbg.c **** }
  28              		.loc 1 50 1
  29 0010 8280     		ret
  30              		.cfi_endproc
  31              	.LFE365:
  33              		.section	.text.dbg_id_get,"ax",@progbits
  34              		.align	1
  35              		.globl	dbg_id_get
  37              	dbg_id_get:
  38              	.LFB366:
  51:C:/Users/stapi/OneDrive/Desktop/GD32VW553/GD32VW55X_Wifi_BLE_SDK/GD32VW55x_RELEASE_V1.0.2/MSDK/plf/GD32VW55x_standard_peripheral/Source\gd32vw55x_dbg.c **** 
  52:C:/Users/stapi/OneDrive/Desktop/GD32VW553/GD32VW55X_Wifi_BLE_SDK/GD32VW55x_RELEASE_V1.0.2/MSDK/plf/GD32VW55x_standard_peripheral/Source\gd32vw55x_dbg.c **** /*!
  53:C:/Users/stapi/OneDrive/Desktop/GD32VW553/GD32VW55X_Wifi_BLE_SDK/GD32VW55x_RELEASE_V1.0.2/MSDK/plf/GD32VW55x_standard_peripheral/Source\gd32vw55x_dbg.c ****     \brief      read DBG_ID code register
  54:C:/Users/stapi/OneDrive/Desktop/GD32VW553/GD32VW55X_Wifi_BLE_SDK/GD32VW55x_RELEASE_V1.0.2/MSDK/plf/GD32VW55x_standard_peripheral/Source\gd32vw55x_dbg.c ****     \param[in]  none
  55:C:/Users/stapi/OneDrive/Desktop/GD32VW553/GD32VW55X_Wifi_BLE_SDK/GD32VW55x_RELEASE_V1.0.2/MSDK/plf/GD32VW55x_standard_peripheral/Source\gd32vw55x_dbg.c ****     \param[out] none
  56:C:/Users/stapi/OneDrive/Desktop/GD32VW553/GD32VW55X_Wifi_BLE_SDK/GD32VW55x_RELEASE_V1.0.2/MSDK/plf/GD32VW55x_standard_peripheral/Source\gd32vw55x_dbg.c ****     \retval     DBG_ID code
  57:C:/Users/stapi/OneDrive/Desktop/GD32VW553/GD32VW55X_Wifi_BLE_SDK/GD32VW55x_RELEASE_V1.0.2/MSDK/plf/GD32VW55x_standard_peripheral/Source\gd32vw55x_dbg.c **** */
  58:C:/Users/stapi/OneDrive/Desktop/GD32VW553/GD32VW55X_Wifi_BLE_SDK/GD32VW55x_RELEASE_V1.0.2/MSDK/plf/GD32VW55x_standard_peripheral/Source\gd32vw55x_dbg.c **** uint32_t dbg_id_get(void)
  59:C:/Users/stapi/OneDrive/Desktop/GD32VW553/GD32VW55X_Wifi_BLE_SDK/GD32VW55x_RELEASE_V1.0.2/MSDK/plf/GD32VW55x_standard_peripheral/Source\gd32vw55x_dbg.c **** {
  39              		.loc 1 59 1 is_stmt 1
  40              		.cfi_startproc
  60:C:/Users/stapi/OneDrive/Desktop/GD32VW553/GD32VW55X_Wifi_BLE_SDK/GD32VW55x_RELEASE_V1.0.2/MSDK/plf/GD32VW55x_standard_peripheral/Source\gd32vw55x_dbg.c ****     return DBG_ID;
  41              		.loc 1 60 5
  42              		.loc 1 60 12 is_stmt 0
  43 0000 B74704E0 		li	a5,-536592384
  44 0004 8843     		lw	a0,0(a5)
  61:C:/Users/stapi/OneDrive/Desktop/GD32VW553/GD32VW55X_Wifi_BLE_SDK/GD32VW55x_RELEASE_V1.0.2/MSDK/plf/GD32VW55x_standard_peripheral/Source\gd32vw55x_dbg.c **** }
  45              		.loc 1 61 1
  46 0006 8280     		ret
  47              		.cfi_endproc
  48              	.LFE366:
  50              		.section	.text.dbg_low_power_enable,"ax",@progbits
  51              		.align	1
  52              		.globl	dbg_low_power_enable
  54              	dbg_low_power_enable:
  55              	.LFB367:
  62:C:/Users/stapi/OneDrive/Desktop/GD32VW553/GD32VW55X_Wifi_BLE_SDK/GD32VW55x_RELEASE_V1.0.2/MSDK/plf/GD32VW55x_standard_peripheral/Source\gd32vw55x_dbg.c **** 
  63:C:/Users/stapi/OneDrive/Desktop/GD32VW553/GD32VW55X_Wifi_BLE_SDK/GD32VW55x_RELEASE_V1.0.2/MSDK/plf/GD32VW55x_standard_peripheral/Source\gd32vw55x_dbg.c **** /*!
  64:C:/Users/stapi/OneDrive/Desktop/GD32VW553/GD32VW55X_Wifi_BLE_SDK/GD32VW55x_RELEASE_V1.0.2/MSDK/plf/GD32VW55x_standard_peripheral/Source\gd32vw55x_dbg.c ****     \brief      enable low power behavior when the MCU is in debug mode
  65:C:/Users/stapi/OneDrive/Desktop/GD32VW553/GD32VW55X_Wifi_BLE_SDK/GD32VW55x_RELEASE_V1.0.2/MSDK/plf/GD32VW55x_standard_peripheral/Source\gd32vw55x_dbg.c ****     \param[in]  dbg_low_power:
  66:C:/Users/stapi/OneDrive/Desktop/GD32VW553/GD32VW55X_Wifi_BLE_SDK/GD32VW55x_RELEASE_V1.0.2/MSDK/plf/GD32VW55x_standard_peripheral/Source\gd32vw55x_dbg.c ****                 only one parameter can be selected which is shown as below:
  67:C:/Users/stapi/OneDrive/Desktop/GD32VW553/GD32VW55X_Wifi_BLE_SDK/GD32VW55x_RELEASE_V1.0.2/MSDK/plf/GD32VW55x_standard_peripheral/Source\gd32vw55x_dbg.c ****       \arg        DBG_LOW_POWER_SLEEP: keep debugger connection during sleep mode
  68:C:/Users/stapi/OneDrive/Desktop/GD32VW553/GD32VW55X_Wifi_BLE_SDK/GD32VW55x_RELEASE_V1.0.2/MSDK/plf/GD32VW55x_standard_peripheral/Source\gd32vw55x_dbg.c ****       \arg        DBG_LOW_POWER_DEEPSLEEP: keep debugger connection during deepsleep mode
  69:C:/Users/stapi/OneDrive/Desktop/GD32VW553/GD32VW55X_Wifi_BLE_SDK/GD32VW55x_RELEASE_V1.0.2/MSDK/plf/GD32VW55x_standard_peripheral/Source\gd32vw55x_dbg.c ****       \arg        DBG_LOW_POWER_STANDBY: keep debugger connection during standby mode
  70:C:/Users/stapi/OneDrive/Desktop/GD32VW553/GD32VW55X_Wifi_BLE_SDK/GD32VW55x_RELEASE_V1.0.2/MSDK/plf/GD32VW55x_standard_peripheral/Source\gd32vw55x_dbg.c ****     \param[out] none
  71:C:/Users/stapi/OneDrive/Desktop/GD32VW553/GD32VW55X_Wifi_BLE_SDK/GD32VW55x_RELEASE_V1.0.2/MSDK/plf/GD32VW55x_standard_peripheral/Source\gd32vw55x_dbg.c ****     \retval     none
  72:C:/Users/stapi/OneDrive/Desktop/GD32VW553/GD32VW55X_Wifi_BLE_SDK/GD32VW55x_RELEASE_V1.0.2/MSDK/plf/GD32VW55x_standard_peripheral/Source\gd32vw55x_dbg.c **** */
  73:C:/Users/stapi/OneDrive/Desktop/GD32VW553/GD32VW55X_Wifi_BLE_SDK/GD32VW55x_RELEASE_V1.0.2/MSDK/plf/GD32VW55x_standard_peripheral/Source\gd32vw55x_dbg.c **** void dbg_low_power_enable(uint32_t dbg_low_power)
  74:C:/Users/stapi/OneDrive/Desktop/GD32VW553/GD32VW55X_Wifi_BLE_SDK/GD32VW55x_RELEASE_V1.0.2/MSDK/plf/GD32VW55x_standard_peripheral/Source\gd32vw55x_dbg.c **** {
  56              		.loc 1 74 1 is_stmt 1
  57              		.cfi_startproc
  58              	.LVL0:
  75:C:/Users/stapi/OneDrive/Desktop/GD32VW553/GD32VW55X_Wifi_BLE_SDK/GD32VW55x_RELEASE_V1.0.2/MSDK/plf/GD32VW55x_standard_peripheral/Source\gd32vw55x_dbg.c ****     DBG_CTL0 |= dbg_low_power;
  59              		.loc 1 75 5
  60              		.loc 1 75 14 is_stmt 0
  61 0000 374704E0 		li	a4,-536592384
  62 0004 5C43     		lw	a5,4(a4)
  63 0006 C98F     		or	a5,a5,a0
  64 0008 5CC3     		sw	a5,4(a4)
  76:C:/Users/stapi/OneDrive/Desktop/GD32VW553/GD32VW55X_Wifi_BLE_SDK/GD32VW55x_RELEASE_V1.0.2/MSDK/plf/GD32VW55x_standard_peripheral/Source\gd32vw55x_dbg.c **** }
  65              		.loc 1 76 1
  66 000a 8280     		ret
  67              		.cfi_endproc
  68              	.LFE367:
  70              		.section	.text.dbg_low_power_disable,"ax",@progbits
  71              		.align	1
  72              		.globl	dbg_low_power_disable
  74              	dbg_low_power_disable:
  75              	.LFB368:
  77:C:/Users/stapi/OneDrive/Desktop/GD32VW553/GD32VW55X_Wifi_BLE_SDK/GD32VW55x_RELEASE_V1.0.2/MSDK/plf/GD32VW55x_standard_peripheral/Source\gd32vw55x_dbg.c **** 
  78:C:/Users/stapi/OneDrive/Desktop/GD32VW553/GD32VW55X_Wifi_BLE_SDK/GD32VW55x_RELEASE_V1.0.2/MSDK/plf/GD32VW55x_standard_peripheral/Source\gd32vw55x_dbg.c **** /*!
  79:C:/Users/stapi/OneDrive/Desktop/GD32VW553/GD32VW55X_Wifi_BLE_SDK/GD32VW55x_RELEASE_V1.0.2/MSDK/plf/GD32VW55x_standard_peripheral/Source\gd32vw55x_dbg.c ****     \brief      disable low power behavior when the MCU is in debug mode
  80:C:/Users/stapi/OneDrive/Desktop/GD32VW553/GD32VW55X_Wifi_BLE_SDK/GD32VW55x_RELEASE_V1.0.2/MSDK/plf/GD32VW55x_standard_peripheral/Source\gd32vw55x_dbg.c ****     \param[in]  dbg_low_power:
  81:C:/Users/stapi/OneDrive/Desktop/GD32VW553/GD32VW55X_Wifi_BLE_SDK/GD32VW55x_RELEASE_V1.0.2/MSDK/plf/GD32VW55x_standard_peripheral/Source\gd32vw55x_dbg.c ****                 only one parameter can be selected which is shown as below:
  82:C:/Users/stapi/OneDrive/Desktop/GD32VW553/GD32VW55X_Wifi_BLE_SDK/GD32VW55x_RELEASE_V1.0.2/MSDK/plf/GD32VW55x_standard_peripheral/Source\gd32vw55x_dbg.c ****       \arg        DBG_LOW_POWER_SLEEP: do not keep debugger connection during sleep mode
  83:C:/Users/stapi/OneDrive/Desktop/GD32VW553/GD32VW55X_Wifi_BLE_SDK/GD32VW55x_RELEASE_V1.0.2/MSDK/plf/GD32VW55x_standard_peripheral/Source\gd32vw55x_dbg.c ****       \arg        DBG_LOW_POWER_DEEPSLEEP: do not keep debugger connection during deepsleep mode
  84:C:/Users/stapi/OneDrive/Desktop/GD32VW553/GD32VW55X_Wifi_BLE_SDK/GD32VW55x_RELEASE_V1.0.2/MSDK/plf/GD32VW55x_standard_peripheral/Source\gd32vw55x_dbg.c ****       \arg        DBG_LOW_POWER_STANDBY: do not keep debugger connection during standby mode
  85:C:/Users/stapi/OneDrive/Desktop/GD32VW553/GD32VW55X_Wifi_BLE_SDK/GD32VW55x_RELEASE_V1.0.2/MSDK/plf/GD32VW55x_standard_peripheral/Source\gd32vw55x_dbg.c ****     \param[out] none
  86:C:/Users/stapi/OneDrive/Desktop/GD32VW553/GD32VW55X_Wifi_BLE_SDK/GD32VW55x_RELEASE_V1.0.2/MSDK/plf/GD32VW55x_standard_peripheral/Source\gd32vw55x_dbg.c ****     \retval     none
  87:C:/Users/stapi/OneDrive/Desktop/GD32VW553/GD32VW55X_Wifi_BLE_SDK/GD32VW55x_RELEASE_V1.0.2/MSDK/plf/GD32VW55x_standard_peripheral/Source\gd32vw55x_dbg.c **** */
  88:C:/Users/stapi/OneDrive/Desktop/GD32VW553/GD32VW55X_Wifi_BLE_SDK/GD32VW55x_RELEASE_V1.0.2/MSDK/plf/GD32VW55x_standard_peripheral/Source\gd32vw55x_dbg.c **** void dbg_low_power_disable(uint32_t dbg_low_power)
  89:C:/Users/stapi/OneDrive/Desktop/GD32VW553/GD32VW55X_Wifi_BLE_SDK/GD32VW55x_RELEASE_V1.0.2/MSDK/plf/GD32VW55x_standard_peripheral/Source\gd32vw55x_dbg.c **** {
  76              		.loc 1 89 1 is_stmt 1
  77              		.cfi_startproc
  78              	.LVL1:
  90:C:/Users/stapi/OneDrive/Desktop/GD32VW553/GD32VW55X_Wifi_BLE_SDK/GD32VW55x_RELEASE_V1.0.2/MSDK/plf/GD32VW55x_standard_peripheral/Source\gd32vw55x_dbg.c ****     DBG_CTL0 &= ~dbg_low_power;
  79              		.loc 1 90 5
  80              		.loc 1 90 14 is_stmt 0
  81 0000 B74704E0 		li	a5,-536592384
  82 0004 D843     		lw	a4,4(a5)
  83 0006 3375A740 		andn	a0,a4,a0
  84              	.LVL2:
  85 000a C8C3     		sw	a0,4(a5)
  91:C:/Users/stapi/OneDrive/Desktop/GD32VW553/GD32VW55X_Wifi_BLE_SDK/GD32VW55x_RELEASE_V1.0.2/MSDK/plf/GD32VW55x_standard_peripheral/Source\gd32vw55x_dbg.c **** }
  86              		.loc 1 91 1
  87 000c 8280     		ret
  88              		.cfi_endproc
  89              	.LFE368:
  91              		.section	.text.dbg_periph_enable,"ax",@progbits
  92              		.align	1
  93              		.globl	dbg_periph_enable
  95              	dbg_periph_enable:
  96              	.LFB369:
  92:C:/Users/stapi/OneDrive/Desktop/GD32VW553/GD32VW55X_Wifi_BLE_SDK/GD32VW55x_RELEASE_V1.0.2/MSDK/plf/GD32VW55x_standard_peripheral/Source\gd32vw55x_dbg.c **** 
  93:C:/Users/stapi/OneDrive/Desktop/GD32VW553/GD32VW55X_Wifi_BLE_SDK/GD32VW55x_RELEASE_V1.0.2/MSDK/plf/GD32VW55x_standard_peripheral/Source\gd32vw55x_dbg.c **** /*!
  94:C:/Users/stapi/OneDrive/Desktop/GD32VW553/GD32VW55X_Wifi_BLE_SDK/GD32VW55x_RELEASE_V1.0.2/MSDK/plf/GD32VW55x_standard_peripheral/Source\gd32vw55x_dbg.c ****     \brief      enable peripheral behavior when the MCU is in debug mode
  95:C:/Users/stapi/OneDrive/Desktop/GD32VW553/GD32VW55X_Wifi_BLE_SDK/GD32VW55x_RELEASE_V1.0.2/MSDK/plf/GD32VW55x_standard_peripheral/Source\gd32vw55x_dbg.c ****     \param[in]  dbg_periph: DBG peripheral
  96:C:/Users/stapi/OneDrive/Desktop/GD32VW553/GD32VW55X_Wifi_BLE_SDK/GD32VW55x_RELEASE_V1.0.2/MSDK/plf/GD32VW55x_standard_peripheral/Source\gd32vw55x_dbg.c ****                 only one parameter can be selected which is shown as below:
  97:C:/Users/stapi/OneDrive/Desktop/GD32VW553/GD32VW55X_Wifi_BLE_SDK/GD32VW55x_RELEASE_V1.0.2/MSDK/plf/GD32VW55x_standard_peripheral/Source\gd32vw55x_dbg.c ****       \arg        DBG_FWDGT_HOLD: hold FWDGT counter when core is halted
  98:C:/Users/stapi/OneDrive/Desktop/GD32VW553/GD32VW55X_Wifi_BLE_SDK/GD32VW55x_RELEASE_V1.0.2/MSDK/plf/GD32VW55x_standard_peripheral/Source\gd32vw55x_dbg.c ****       \arg        DBG_WWDGT_HOLD: hold WWDGT counter when core is halted
  99:C:/Users/stapi/OneDrive/Desktop/GD32VW553/GD32VW55X_Wifi_BLE_SDK/GD32VW55x_RELEASE_V1.0.2/MSDK/plf/GD32VW55x_standard_peripheral/Source\gd32vw55x_dbg.c ****       \arg        DBG_TIMER0_HOLD: hold TIMER0 counter when core is halted
 100:C:/Users/stapi/OneDrive/Desktop/GD32VW553/GD32VW55X_Wifi_BLE_SDK/GD32VW55x_RELEASE_V1.0.2/MSDK/plf/GD32VW55x_standard_peripheral/Source\gd32vw55x_dbg.c ****       \arg        DBG_TIMER1_HOLD: hold TIMER1 counter when core is halted
 101:C:/Users/stapi/OneDrive/Desktop/GD32VW553/GD32VW55X_Wifi_BLE_SDK/GD32VW55x_RELEASE_V1.0.2/MSDK/plf/GD32VW55x_standard_peripheral/Source\gd32vw55x_dbg.c ****       \arg        DBG_TIMER2_HOLD: hold TIMER2 counter when core is halted
 102:C:/Users/stapi/OneDrive/Desktop/GD32VW553/GD32VW55X_Wifi_BLE_SDK/GD32VW55x_RELEASE_V1.0.2/MSDK/plf/GD32VW55x_standard_peripheral/Source\gd32vw55x_dbg.c ****       \arg        DBG_TIMER5_HOLD: hold TIMER5 counter when core is halted
 103:C:/Users/stapi/OneDrive/Desktop/GD32VW553/GD32VW55X_Wifi_BLE_SDK/GD32VW55x_RELEASE_V1.0.2/MSDK/plf/GD32VW55x_standard_peripheral/Source\gd32vw55x_dbg.c ****       \arg        DBG_TIMER15_HOLD: hold TIMER15 counter when core is halted
 104:C:/Users/stapi/OneDrive/Desktop/GD32VW553/GD32VW55X_Wifi_BLE_SDK/GD32VW55x_RELEASE_V1.0.2/MSDK/plf/GD32VW55x_standard_peripheral/Source\gd32vw55x_dbg.c ****       \arg        DBG_TIMER16_HOLD: hold TIMER16 counter when core is halted
 105:C:/Users/stapi/OneDrive/Desktop/GD32VW553/GD32VW55X_Wifi_BLE_SDK/GD32VW55x_RELEASE_V1.0.2/MSDK/plf/GD32VW55x_standard_peripheral/Source\gd32vw55x_dbg.c ****       \arg        DBG_I2C0_HOLD: hold I2C0 SMBUS when core is halted
 106:C:/Users/stapi/OneDrive/Desktop/GD32VW553/GD32VW55X_Wifi_BLE_SDK/GD32VW55x_RELEASE_V1.0.2/MSDK/plf/GD32VW55x_standard_peripheral/Source\gd32vw55x_dbg.c ****       \arg        DBG_I2C1_HOLD: hold I2C1 SMBUS when core is halted
 107:C:/Users/stapi/OneDrive/Desktop/GD32VW553/GD32VW55X_Wifi_BLE_SDK/GD32VW55x_RELEASE_V1.0.2/MSDK/plf/GD32VW55x_standard_peripheral/Source\gd32vw55x_dbg.c ****       \arg        DBG_RTC_HOLD: hold RTC calendar and wakeup counter when core is halted
 108:C:/Users/stapi/OneDrive/Desktop/GD32VW553/GD32VW55X_Wifi_BLE_SDK/GD32VW55x_RELEASE_V1.0.2/MSDK/plf/GD32VW55x_standard_peripheral/Source\gd32vw55x_dbg.c ****     \param[out] none
 109:C:/Users/stapi/OneDrive/Desktop/GD32VW553/GD32VW55X_Wifi_BLE_SDK/GD32VW55x_RELEASE_V1.0.2/MSDK/plf/GD32VW55x_standard_peripheral/Source\gd32vw55x_dbg.c ****     \retval     none
 110:C:/Users/stapi/OneDrive/Desktop/GD32VW553/GD32VW55X_Wifi_BLE_SDK/GD32VW55x_RELEASE_V1.0.2/MSDK/plf/GD32VW55x_standard_peripheral/Source\gd32vw55x_dbg.c **** */
 111:C:/Users/stapi/OneDrive/Desktop/GD32VW553/GD32VW55X_Wifi_BLE_SDK/GD32VW55x_RELEASE_V1.0.2/MSDK/plf/GD32VW55x_standard_peripheral/Source\gd32vw55x_dbg.c **** void dbg_periph_enable(dbg_periph_enum dbg_periph)
 112:C:/Users/stapi/OneDrive/Desktop/GD32VW553/GD32VW55X_Wifi_BLE_SDK/GD32VW55x_RELEASE_V1.0.2/MSDK/plf/GD32VW55x_standard_peripheral/Source\gd32vw55x_dbg.c **** {
  97              		.loc 1 112 1 is_stmt 1
  98              		.cfi_startproc
  99              	.LVL3:
 113:C:/Users/stapi/OneDrive/Desktop/GD32VW553/GD32VW55X_Wifi_BLE_SDK/GD32VW55x_RELEASE_V1.0.2/MSDK/plf/GD32VW55x_standard_peripheral/Source\gd32vw55x_dbg.c ****     if(RESET == ((uint32_t)dbg_periph & BIT(30))) {
 100              		.loc 1 113 5
 101              		.loc 1 113 39 is_stmt 0
 102 0000 B7070040 		li	a5,1073741824
 103 0004 E98F     		and	a5,a0,a5
 104              		.loc 1 113 7
 105 0006 99E7     		bne	a5,zero,.L6
 114:C:/Users/stapi/OneDrive/Desktop/GD32VW553/GD32VW55X_Wifi_BLE_SDK/GD32VW55x_RELEASE_V1.0.2/MSDK/plf/GD32VW55x_standard_peripheral/Source\gd32vw55x_dbg.c ****         DBG_CTL1 |= (uint32_t)dbg_periph;
 106              		.loc 1 114 9 is_stmt 1
 107              		.loc 1 114 18 is_stmt 0
 108 0008 374704E0 		li	a4,-536592384
 109 000c 1C47     		lw	a5,8(a4)
 110 000e 5D8D     		or	a0,a5,a0
 111              	.LVL4:
 112 0010 08C7     		sw	a0,8(a4)
 113 0012 8280     		ret
 114              	.LVL5:
 115              	.L6:
 115:C:/Users/stapi/OneDrive/Desktop/GD32VW553/GD32VW55X_Wifi_BLE_SDK/GD32VW55x_RELEASE_V1.0.2/MSDK/plf/GD32VW55x_standard_peripheral/Source\gd32vw55x_dbg.c ****     } else {
 116:C:/Users/stapi/OneDrive/Desktop/GD32VW553/GD32VW55X_Wifi_BLE_SDK/GD32VW55x_RELEASE_V1.0.2/MSDK/plf/GD32VW55x_standard_peripheral/Source\gd32vw55x_dbg.c ****         DBG_CTL2 |= ((uint32_t)dbg_periph & (~BIT(30)));
 116              		.loc 1 116 9 is_stmt 1
 117              		.loc 1 116 18 is_stmt 0
 118 0014 B74704E0 		li	a5,-536592384
 119 0018 D847     		lw	a4,12(a5)
 120              		.loc 1 116 43
 121 001a 1315E549 		bclri	a0,a0,30
 122              	.LVL6:
 123              		.loc 1 116 18
 124 001e 598D     		or	a0,a0,a4
 125 0020 C8C7     		sw	a0,12(a5)
 117:C:/Users/stapi/OneDrive/Desktop/GD32VW553/GD32VW55X_Wifi_BLE_SDK/GD32VW55x_RELEASE_V1.0.2/MSDK/plf/GD32VW55x_standard_peripheral/Source\gd32vw55x_dbg.c ****     }
 118:C:/Users/stapi/OneDrive/Desktop/GD32VW553/GD32VW55X_Wifi_BLE_SDK/GD32VW55x_RELEASE_V1.0.2/MSDK/plf/GD32VW55x_standard_peripheral/Source\gd32vw55x_dbg.c **** }
 126              		.loc 1 118 1
 127 0022 8280     		ret
 128              		.cfi_endproc
 129              	.LFE369:
 131              		.section	.text.dbg_periph_disable,"ax",@progbits
 132              		.align	1
 133              		.globl	dbg_periph_disable
 135              	dbg_periph_disable:
 136              	.LFB370:
 119:C:/Users/stapi/OneDrive/Desktop/GD32VW553/GD32VW55X_Wifi_BLE_SDK/GD32VW55x_RELEASE_V1.0.2/MSDK/plf/GD32VW55x_standard_peripheral/Source\gd32vw55x_dbg.c **** 
 120:C:/Users/stapi/OneDrive/Desktop/GD32VW553/GD32VW55X_Wifi_BLE_SDK/GD32VW55x_RELEASE_V1.0.2/MSDK/plf/GD32VW55x_standard_peripheral/Source\gd32vw55x_dbg.c **** /*!
 121:C:/Users/stapi/OneDrive/Desktop/GD32VW553/GD32VW55X_Wifi_BLE_SDK/GD32VW55x_RELEASE_V1.0.2/MSDK/plf/GD32VW55x_standard_peripheral/Source\gd32vw55x_dbg.c ****     \brief      disable peripheral behavior when the MCU is in debug mode
 122:C:/Users/stapi/OneDrive/Desktop/GD32VW553/GD32VW55X_Wifi_BLE_SDK/GD32VW55x_RELEASE_V1.0.2/MSDK/plf/GD32VW55x_standard_peripheral/Source\gd32vw55x_dbg.c ****     \param[in]  dbg_periph: DBG peripheral
 123:C:/Users/stapi/OneDrive/Desktop/GD32VW553/GD32VW55X_Wifi_BLE_SDK/GD32VW55x_RELEASE_V1.0.2/MSDK/plf/GD32VW55x_standard_peripheral/Source\gd32vw55x_dbg.c ****                 only one parameter can be selected which is shown as below:
 124:C:/Users/stapi/OneDrive/Desktop/GD32VW553/GD32VW55X_Wifi_BLE_SDK/GD32VW55x_RELEASE_V1.0.2/MSDK/plf/GD32VW55x_standard_peripheral/Source\gd32vw55x_dbg.c ****       \arg        DBG_FWDGT_HOLD: hold FWDGT counter when core is halted
 125:C:/Users/stapi/OneDrive/Desktop/GD32VW553/GD32VW55X_Wifi_BLE_SDK/GD32VW55x_RELEASE_V1.0.2/MSDK/plf/GD32VW55x_standard_peripheral/Source\gd32vw55x_dbg.c ****       \arg        DBG_WWDGT_HOLD: hold WWDGT counter when core is halted
 126:C:/Users/stapi/OneDrive/Desktop/GD32VW553/GD32VW55X_Wifi_BLE_SDK/GD32VW55x_RELEASE_V1.0.2/MSDK/plf/GD32VW55x_standard_peripheral/Source\gd32vw55x_dbg.c ****       \arg        DBG_TIMER0_HOLD: hold TIMER0 counter when core is halted
 127:C:/Users/stapi/OneDrive/Desktop/GD32VW553/GD32VW55X_Wifi_BLE_SDK/GD32VW55x_RELEASE_V1.0.2/MSDK/plf/GD32VW55x_standard_peripheral/Source\gd32vw55x_dbg.c ****       \arg        DBG_TIMER1_HOLD: hold TIMER1 counter when core is halted
 128:C:/Users/stapi/OneDrive/Desktop/GD32VW553/GD32VW55X_Wifi_BLE_SDK/GD32VW55x_RELEASE_V1.0.2/MSDK/plf/GD32VW55x_standard_peripheral/Source\gd32vw55x_dbg.c ****       \arg        DBG_TIMER2_HOLD: hold TIMER2 counter when core is halted
 129:C:/Users/stapi/OneDrive/Desktop/GD32VW553/GD32VW55X_Wifi_BLE_SDK/GD32VW55x_RELEASE_V1.0.2/MSDK/plf/GD32VW55x_standard_peripheral/Source\gd32vw55x_dbg.c ****       \arg        DBG_TIMER5_HOLD: hold TIMER5 counter when core is halted
 130:C:/Users/stapi/OneDrive/Desktop/GD32VW553/GD32VW55X_Wifi_BLE_SDK/GD32VW55x_RELEASE_V1.0.2/MSDK/plf/GD32VW55x_standard_peripheral/Source\gd32vw55x_dbg.c ****       \arg        DBG_TIMER15_HOLD: hold TIMER15 counter when core is halted
 131:C:/Users/stapi/OneDrive/Desktop/GD32VW553/GD32VW55X_Wifi_BLE_SDK/GD32VW55x_RELEASE_V1.0.2/MSDK/plf/GD32VW55x_standard_peripheral/Source\gd32vw55x_dbg.c ****       \arg        DBG_TIMER16_HOLD: hold TIMER16 counter when core is halted
 132:C:/Users/stapi/OneDrive/Desktop/GD32VW553/GD32VW55X_Wifi_BLE_SDK/GD32VW55x_RELEASE_V1.0.2/MSDK/plf/GD32VW55x_standard_peripheral/Source\gd32vw55x_dbg.c ****       \arg        DBG_I2C0_HOLD: hold I2C0 SMBUS when core is halted
 133:C:/Users/stapi/OneDrive/Desktop/GD32VW553/GD32VW55X_Wifi_BLE_SDK/GD32VW55x_RELEASE_V1.0.2/MSDK/plf/GD32VW55x_standard_peripheral/Source\gd32vw55x_dbg.c ****       \arg        DBG_I2C1_HOLD: hold I2C1 SMBUS when core is halted
 134:C:/Users/stapi/OneDrive/Desktop/GD32VW553/GD32VW55X_Wifi_BLE_SDK/GD32VW55x_RELEASE_V1.0.2/MSDK/plf/GD32VW55x_standard_peripheral/Source\gd32vw55x_dbg.c ****       \arg        DBG_RTC_HOLD: hold RTC calendar and wakeup counter when core is halted
 135:C:/Users/stapi/OneDrive/Desktop/GD32VW553/GD32VW55X_Wifi_BLE_SDK/GD32VW55x_RELEASE_V1.0.2/MSDK/plf/GD32VW55x_standard_peripheral/Source\gd32vw55x_dbg.c ****     \param[out] none
 136:C:/Users/stapi/OneDrive/Desktop/GD32VW553/GD32VW55X_Wifi_BLE_SDK/GD32VW55x_RELEASE_V1.0.2/MSDK/plf/GD32VW55x_standard_peripheral/Source\gd32vw55x_dbg.c ****     \retval     none
 137:C:/Users/stapi/OneDrive/Desktop/GD32VW553/GD32VW55X_Wifi_BLE_SDK/GD32VW55x_RELEASE_V1.0.2/MSDK/plf/GD32VW55x_standard_peripheral/Source\gd32vw55x_dbg.c **** */
 138:C:/Users/stapi/OneDrive/Desktop/GD32VW553/GD32VW55X_Wifi_BLE_SDK/GD32VW55x_RELEASE_V1.0.2/MSDK/plf/GD32VW55x_standard_peripheral/Source\gd32vw55x_dbg.c **** void dbg_periph_disable(dbg_periph_enum dbg_periph)
 139:C:/Users/stapi/OneDrive/Desktop/GD32VW553/GD32VW55X_Wifi_BLE_SDK/GD32VW55x_RELEASE_V1.0.2/MSDK/plf/GD32VW55x_standard_peripheral/Source\gd32vw55x_dbg.c **** {
 137              		.loc 1 139 1 is_stmt 1
 138              		.cfi_startproc
 139              	.LVL7:
 140:C:/Users/stapi/OneDrive/Desktop/GD32VW553/GD32VW55X_Wifi_BLE_SDK/GD32VW55x_RELEASE_V1.0.2/MSDK/plf/GD32VW55x_standard_peripheral/Source\gd32vw55x_dbg.c ****     if(RESET == ((uint32_t)dbg_periph & BIT(30))) {
 140              		.loc 1 140 5
 141              		.loc 1 140 39 is_stmt 0
 142 0000 B7070040 		li	a5,1073741824
 143 0004 E98F     		and	a5,a0,a5
 144              		.loc 1 140 7
 145 0006 81EB     		bne	a5,zero,.L9
 141:C:/Users/stapi/OneDrive/Desktop/GD32VW553/GD32VW55X_Wifi_BLE_SDK/GD32VW55x_RELEASE_V1.0.2/MSDK/plf/GD32VW55x_standard_peripheral/Source\gd32vw55x_dbg.c ****         DBG_CTL1 &= ~(uint32_t)dbg_periph;
 146              		.loc 1 141 9 is_stmt 1
 147              		.loc 1 141 18 is_stmt 0
 148 0008 B74704E0 		li	a5,-536592384
 149 000c 9847     		lw	a4,8(a5)
 150 000e 3375A740 		andn	a0,a4,a0
 151              	.LVL8:
 152 0012 88C7     		sw	a0,8(a5)
 153 0014 8280     		ret
 154              	.LVL9:
 155              	.L9:
 142:C:/Users/stapi/OneDrive/Desktop/GD32VW553/GD32VW55X_Wifi_BLE_SDK/GD32VW55x_RELEASE_V1.0.2/MSDK/plf/GD32VW55x_standard_peripheral/Source\gd32vw55x_dbg.c ****     } else {
 143:C:/Users/stapi/OneDrive/Desktop/GD32VW553/GD32VW55X_Wifi_BLE_SDK/GD32VW55x_RELEASE_V1.0.2/MSDK/plf/GD32VW55x_standard_peripheral/Source\gd32vw55x_dbg.c ****         DBG_CTL2 &= ~((uint32_t)dbg_periph & (~BIT(30)));
 156              		.loc 1 143 9 is_stmt 1
 157              		.loc 1 143 18 is_stmt 0
 158 0016 B74704E0 		li	a5,-536592384
 159 001a D847     		lw	a4,12(a5)
 160              		.loc 1 143 44
 161 001c 1315E549 		bclri	a0,a0,30
 162              	.LVL10:
 163              		.loc 1 143 18
 164 0020 3375A740 		andn	a0,a4,a0
 165 0024 C8C7     		sw	a0,12(a5)
 144:C:/Users/stapi/OneDrive/Desktop/GD32VW553/GD32VW55X_Wifi_BLE_SDK/GD32VW55x_RELEASE_V1.0.2/MSDK/plf/GD32VW55x_standard_peripheral/Source\gd32vw55x_dbg.c ****     }
 145:C:/Users/stapi/OneDrive/Desktop/GD32VW553/GD32VW55X_Wifi_BLE_SDK/GD32VW55x_RELEASE_V1.0.2/MSDK/plf/GD32VW55x_standard_peripheral/Source\gd32vw55x_dbg.c **** }
 166              		.loc 1 145 1
 167 0026 8280     		ret
 168              		.cfi_endproc
 169              	.LFE370:
 171              		.text
 172              	.Letext0:
 173              		.file 2 "c:\\users\\stapi\\onedrive\\desktop\\gd32vw553\\embeddedbuilder_v1.4.7.26843\\tools\\nucl
 174              		.file 3 "c:\\users\\stapi\\onedrive\\desktop\\gd32vw553\\embeddedbuilder_v1.4.7.26843\\tools\\nucl
 175              		.file 4 "..\\..\\..\\..\\plf\\riscv\\gd32vw55x/gd32vw55x.h"
 176              		.file 5 "..\\..\\..\\..\\plf\\GD32VW55x_standard_peripheral\\Include/gd32vw55x_dbg.h"
DEFINED SYMBOLS
                            *ABS*:0000000000000000 gd32vw55x_dbg.c
C:\Users\stapi\AppData\Local\Temp\cc7nYHrG.s:13     .text.dbg_deinit:0000000000000000 dbg_deinit
C:\Users\stapi\AppData\Local\Temp\cc7nYHrG.s:17     .text.dbg_deinit:0000000000000000 .L0 
C:\Users\stapi\AppData\Local\Temp\cc7nYHrG.s:18     .text.dbg_deinit:0000000000000000 .L0 
C:\Users\stapi\AppData\Local\Temp\cc7nYHrG.s:19     .text.dbg_deinit:0000000000000000 .L0 
C:\Users\stapi\AppData\Local\Temp\cc7nYHrG.s:20     .text.dbg_deinit:0000000000000000 .L0 
C:\Users\stapi\AppData\Local\Temp\cc7nYHrG.s:23     .text.dbg_deinit:0000000000000008 .L0 
C:\Users\stapi\AppData\Local\Temp\cc7nYHrG.s:24     .text.dbg_deinit:0000000000000008 .L0 
C:\Users\stapi\AppData\Local\Temp\cc7nYHrG.s:26     .text.dbg_deinit:000000000000000c .L0 
C:\Users\stapi\AppData\Local\Temp\cc7nYHrG.s:27     .text.dbg_deinit:000000000000000c .L0 
C:\Users\stapi\AppData\Local\Temp\cc7nYHrG.s:29     .text.dbg_deinit:0000000000000010 .L0 
C:\Users\stapi\AppData\Local\Temp\cc7nYHrG.s:30     .text.dbg_deinit:0000000000000012 .L0 
C:\Users\stapi\AppData\Local\Temp\cc7nYHrG.s:37     .text.dbg_id_get:0000000000000000 dbg_id_get
C:\Users\stapi\AppData\Local\Temp\cc7nYHrG.s:40     .text.dbg_id_get:0000000000000000 .L0 
C:\Users\stapi\AppData\Local\Temp\cc7nYHrG.s:41     .text.dbg_id_get:0000000000000000 .L0 
C:\Users\stapi\AppData\Local\Temp\cc7nYHrG.s:42     .text.dbg_id_get:0000000000000000 .L0 
C:\Users\stapi\AppData\Local\Temp\cc7nYHrG.s:43     .text.dbg_id_get:0000000000000000 .L0 
C:\Users\stapi\AppData\Local\Temp\cc7nYHrG.s:46     .text.dbg_id_get:0000000000000006 .L0 
C:\Users\stapi\AppData\Local\Temp\cc7nYHrG.s:47     .text.dbg_id_get:0000000000000008 .L0 
C:\Users\stapi\AppData\Local\Temp\cc7nYHrG.s:54     .text.dbg_low_power_enable:0000000000000000 dbg_low_power_enable
C:\Users\stapi\AppData\Local\Temp\cc7nYHrG.s:57     .text.dbg_low_power_enable:0000000000000000 .L0 
C:\Users\stapi\AppData\Local\Temp\cc7nYHrG.s:59     .text.dbg_low_power_enable:0000000000000000 .L0 
C:\Users\stapi\AppData\Local\Temp\cc7nYHrG.s:60     .text.dbg_low_power_enable:0000000000000000 .L0 
C:\Users\stapi\AppData\Local\Temp\cc7nYHrG.s:61     .text.dbg_low_power_enable:0000000000000000 .L0 
C:\Users\stapi\AppData\Local\Temp\cc7nYHrG.s:66     .text.dbg_low_power_enable:000000000000000a .L0 
C:\Users\stapi\AppData\Local\Temp\cc7nYHrG.s:67     .text.dbg_low_power_enable:000000000000000c .L0 
C:\Users\stapi\AppData\Local\Temp\cc7nYHrG.s:74     .text.dbg_low_power_disable:0000000000000000 dbg_low_power_disable
C:\Users\stapi\AppData\Local\Temp\cc7nYHrG.s:77     .text.dbg_low_power_disable:0000000000000000 .L0 
C:\Users\stapi\AppData\Local\Temp\cc7nYHrG.s:79     .text.dbg_low_power_disable:0000000000000000 .L0 
C:\Users\stapi\AppData\Local\Temp\cc7nYHrG.s:80     .text.dbg_low_power_disable:0000000000000000 .L0 
C:\Users\stapi\AppData\Local\Temp\cc7nYHrG.s:81     .text.dbg_low_power_disable:0000000000000000 .L0 
C:\Users\stapi\AppData\Local\Temp\cc7nYHrG.s:87     .text.dbg_low_power_disable:000000000000000c .L0 
C:\Users\stapi\AppData\Local\Temp\cc7nYHrG.s:88     .text.dbg_low_power_disable:000000000000000e .L0 
C:\Users\stapi\AppData\Local\Temp\cc7nYHrG.s:95     .text.dbg_periph_enable:0000000000000000 dbg_periph_enable
C:\Users\stapi\AppData\Local\Temp\cc7nYHrG.s:98     .text.dbg_periph_enable:0000000000000000 .L0 
C:\Users\stapi\AppData\Local\Temp\cc7nYHrG.s:100    .text.dbg_periph_enable:0000000000000000 .L0 
C:\Users\stapi\AppData\Local\Temp\cc7nYHrG.s:101    .text.dbg_periph_enable:0000000000000000 .L0 
C:\Users\stapi\AppData\Local\Temp\cc7nYHrG.s:102    .text.dbg_periph_enable:0000000000000000 .L0 
C:\Users\stapi\AppData\Local\Temp\cc7nYHrG.s:105    .text.dbg_periph_enable:0000000000000006 .L0 
C:\Users\stapi\AppData\Local\Temp\cc7nYHrG.s:107    .text.dbg_periph_enable:0000000000000008 .L0 
C:\Users\stapi\AppData\Local\Temp\cc7nYHrG.s:108    .text.dbg_periph_enable:0000000000000008 .L0 
C:\Users\stapi\AppData\Local\Temp\cc7nYHrG.s:117    .text.dbg_periph_enable:0000000000000014 .L0 
C:\Users\stapi\AppData\Local\Temp\cc7nYHrG.s:118    .text.dbg_periph_enable:0000000000000014 .L0 
C:\Users\stapi\AppData\Local\Temp\cc7nYHrG.s:121    .text.dbg_periph_enable:000000000000001a .L0 
C:\Users\stapi\AppData\Local\Temp\cc7nYHrG.s:124    .text.dbg_periph_enable:000000000000001e .L0 
C:\Users\stapi\AppData\Local\Temp\cc7nYHrG.s:127    .text.dbg_periph_enable:0000000000000022 .L0 
C:\Users\stapi\AppData\Local\Temp\cc7nYHrG.s:128    .text.dbg_periph_enable:0000000000000024 .L0 
C:\Users\stapi\AppData\Local\Temp\cc7nYHrG.s:135    .text.dbg_periph_disable:0000000000000000 dbg_periph_disable
C:\Users\stapi\AppData\Local\Temp\cc7nYHrG.s:138    .text.dbg_periph_disable:0000000000000000 .L0 
C:\Users\stapi\AppData\Local\Temp\cc7nYHrG.s:140    .text.dbg_periph_disable:0000000000000000 .L0 
C:\Users\stapi\AppData\Local\Temp\cc7nYHrG.s:141    .text.dbg_periph_disable:0000000000000000 .L0 
C:\Users\stapi\AppData\Local\Temp\cc7nYHrG.s:142    .text.dbg_periph_disable:0000000000000000 .L0 
C:\Users\stapi\AppData\Local\Temp\cc7nYHrG.s:145    .text.dbg_periph_disable:0000000000000006 .L0 
C:\Users\stapi\AppData\Local\Temp\cc7nYHrG.s:147    .text.dbg_periph_disable:0000000000000008 .L0 
C:\Users\stapi\AppData\Local\Temp\cc7nYHrG.s:148    .text.dbg_periph_disable:0000000000000008 .L0 
C:\Users\stapi\AppData\Local\Temp\cc7nYHrG.s:157    .text.dbg_periph_disable:0000000000000016 .L0 
C:\Users\stapi\AppData\Local\Temp\cc7nYHrG.s:158    .text.dbg_periph_disable:0000000000000016 .L0 
C:\Users\stapi\AppData\Local\Temp\cc7nYHrG.s:161    .text.dbg_periph_disable:000000000000001c .L0 
C:\Users\stapi\AppData\Local\Temp\cc7nYHrG.s:164    .text.dbg_periph_disable:0000000000000020 .L0 
C:\Users\stapi\AppData\Local\Temp\cc7nYHrG.s:167    .text.dbg_periph_disable:0000000000000026 .L0 
C:\Users\stapi\AppData\Local\Temp\cc7nYHrG.s:168    .text.dbg_periph_disable:0000000000000028 .L0 
C:\Users\stapi\AppData\Local\Temp\cc7nYHrG.s:33     .text.dbg_deinit:0000000000000012 .L0 
C:\Users\stapi\AppData\Local\Temp\cc7nYHrG.s:50     .text.dbg_id_get:0000000000000008 .L0 
C:\Users\stapi\AppData\Local\Temp\cc7nYHrG.s:70     .text.dbg_low_power_enable:000000000000000c .L0 
C:\Users\stapi\AppData\Local\Temp\cc7nYHrG.s:91     .text.dbg_low_power_disable:000000000000000e .L0 
C:\Users\stapi\AppData\Local\Temp\cc7nYHrG.s:131    .text.dbg_periph_enable:0000000000000024 .L0 
C:\Users\stapi\AppData\Local\Temp\cc7nYHrG.s:171    .text.dbg_periph_disable:0000000000000028 .L0 
                     .debug_frame:0000000000000000 .L0 
C:\Users\stapi\AppData\Local\Temp\cc7nYHrG.s:115    .text.dbg_periph_enable:0000000000000014 .L6
C:\Users\stapi\AppData\Local\Temp\cc7nYHrG.s:155    .text.dbg_periph_disable:0000000000000016 .L9
C:\Users\stapi\AppData\Local\Temp\cc7nYHrG.s:404    .debug_abbrev:0000000000000000 .Ldebug_abbrev0
C:\Users\stapi\AppData\Local\Temp\cc7nYHrG.s:771    .debug_str:000000000000016a .LASF31
C:\Users\stapi\AppData\Local\Temp\cc7nYHrG.s:797    .debug_str:0000000000000312 .LASF32
C:\Users\stapi\AppData\Local\Temp\cc7nYHrG.s:757    .debug_str:000000000000009d .LASF33
C:\Users\stapi\AppData\Local\Temp\cc7nYHrG.s:719    .debug_ranges:0000000000000000 .Ldebug_ranges0
C:\Users\stapi\AppData\Local\Temp\cc7nYHrG.s:735    .debug_line:0000000000000000 .Ldebug_line0
C:\Users\stapi\AppData\Local\Temp\cc7nYHrG.s:779    .debug_str:0000000000000291 .LASF0
C:\Users\stapi\AppData\Local\Temp\cc7nYHrG.s:803    .debug_str:00000000000003bc .LASF1
C:\Users\stapi\AppData\Local\Temp\cc7nYHrG.s:755    .debug_str:000000000000008f .LASF2
C:\Users\stapi\AppData\Local\Temp\cc7nYHrG.s:745    .debug_str:000000000000003a .LASF3
C:\Users\stapi\AppData\Local\Temp\cc7nYHrG.s:743    .debug_str:0000000000000027 .LASF4
C:\Users\stapi\AppData\Local\Temp\cc7nYHrG.s:801    .debug_str:00000000000003b3 .LASF5
C:\Users\stapi\AppData\Local\Temp\cc7nYHrG.s:773    .debug_str:0000000000000263 .LASF10
C:\Users\stapi\AppData\Local\Temp\cc7nYHrG.s:759    .debug_str:000000000000011b .LASF6
C:\Users\stapi\AppData\Local\Temp\cc7nYHrG.s:793    .debug_str:00000000000002f5 .LASF7
C:\Users\stapi\AppData\Local\Temp\cc7nYHrG.s:753    .debug_str:0000000000000078 .LASF8
C:\Users\stapi\AppData\Local\Temp\cc7nYHrG.s:783    .debug_str:00000000000002ac .LASF9
C:\Users\stapi\AppData\Local\Temp\cc7nYHrG.s:799    .debug_str:00000000000003aa .LASF11
C:\Users\stapi\AppData\Local\Temp\cc7nYHrG.s:761    .debug_str:000000000000012d .LASF12
C:\Users\stapi\AppData\Local\Temp\cc7nYHrG.s:765    .debug_str:0000000000000142 .LASF13
C:\Users\stapi\AppData\Local\Temp\cc7nYHrG.s:789    .debug_str:00000000000002d2 .LASF14
C:\Users\stapi\AppData\Local\Temp\cc7nYHrG.s:785    .debug_str:00000000000002b1 .LASF15
C:\Users\stapi\AppData\Local\Temp\cc7nYHrG.s:767    .debug_str:0000000000000152 .LASF16
C:\Users\stapi\AppData\Local\Temp\cc7nYHrG.s:763    .debug_str:0000000000000133 .LASF17
C:\Users\stapi\AppData\Local\Temp\cc7nYHrG.s:795    .debug_str:0000000000000303 .LASF18
C:\Users\stapi\AppData\Local\Temp\cc7nYHrG.s:747    .debug_str:0000000000000044 .LASF19
C:\Users\stapi\AppData\Local\Temp\cc7nYHrG.s:781    .debug_str:000000000000029e .LASF20
C:\Users\stapi\AppData\Local\Temp\cc7nYHrG.s:805    .debug_str:00000000000003c8 .LASF21
C:\Users\stapi\AppData\Local\Temp\cc7nYHrG.s:787    .debug_str:00000000000002c1 .LASF22
C:\Users\stapi\AppData\Local\Temp\cc7nYHrG.s:739    .debug_str:000000000000000b .LASF23
C:\Users\stapi\AppData\Local\Temp\cc7nYHrG.s:749    .debug_str:0000000000000052 .LASF24
C:\Users\stapi\AppData\Local\Temp\cc7nYHrG.s:791    .debug_str:00000000000002e2 .LASF25
C:\Users\stapi\AppData\Local\Temp\cc7nYHrG.s:136    .text.dbg_periph_disable:0000000000000000 .LFB370
C:\Users\stapi\AppData\Local\Temp\cc7nYHrG.s:169    .text.dbg_periph_disable:0000000000000028 .LFE370
C:\Users\stapi\AppData\Local\Temp\cc7nYHrG.s:737    .debug_str:0000000000000000 .LASF27
C:\Users\stapi\AppData\Local\Temp\cc7nYHrG.s:632    .debug_loc:0000000000000000 .LLST2
C:\Users\stapi\AppData\Local\Temp\cc7nYHrG.s:807    .debug_str:00000000000003d8 .LASF26
C:\Users\stapi\AppData\Local\Temp\cc7nYHrG.s:96     .text.dbg_periph_enable:0000000000000000 .LFB369
C:\Users\stapi\AppData\Local\Temp\cc7nYHrG.s:129    .text.dbg_periph_enable:0000000000000024 .LFE369
C:\Users\stapi\AppData\Local\Temp\cc7nYHrG.s:657    .debug_loc:000000000000003a .LLST1
C:\Users\stapi\AppData\Local\Temp\cc7nYHrG.s:751    .debug_str:0000000000000062 .LASF28
C:\Users\stapi\AppData\Local\Temp\cc7nYHrG.s:75     .text.dbg_low_power_disable:0000000000000000 .LFB368
C:\Users\stapi\AppData\Local\Temp\cc7nYHrG.s:89     .text.dbg_low_power_disable:000000000000000e .LFE368
C:\Users\stapi\AppData\Local\Temp\cc7nYHrG.s:777    .debug_str:0000000000000283 .LASF29
C:\Users\stapi\AppData\Local\Temp\cc7nYHrG.s:682    .debug_loc:0000000000000074 .LLST0
C:\Users\stapi\AppData\Local\Temp\cc7nYHrG.s:775    .debug_str:000000000000026e .LASF30
C:\Users\stapi\AppData\Local\Temp\cc7nYHrG.s:55     .text.dbg_low_power_enable:0000000000000000 .LFB367
C:\Users\stapi\AppData\Local\Temp\cc7nYHrG.s:68     .text.dbg_low_power_enable:000000000000000c .LFE367
C:\Users\stapi\AppData\Local\Temp\cc7nYHrG.s:741    .debug_str:000000000000001c .LASF34
C:\Users\stapi\AppData\Local\Temp\cc7nYHrG.s:38     .text.dbg_id_get:0000000000000000 .LFB366
C:\Users\stapi\AppData\Local\Temp\cc7nYHrG.s:48     .text.dbg_id_get:0000000000000008 .LFE366
C:\Users\stapi\AppData\Local\Temp\cc7nYHrG.s:769    .debug_str:000000000000015f .LASF35
C:\Users\stapi\AppData\Local\Temp\cc7nYHrG.s:14     .text.dbg_deinit:0000000000000000 .LFB365
C:\Users\stapi\AppData\Local\Temp\cc7nYHrG.s:31     .text.dbg_deinit:0000000000000012 .LFE365
C:\Users\stapi\AppData\Local\Temp\cc7nYHrG.s:139    .text.dbg_periph_disable:0000000000000000 .LVL7
C:\Users\stapi\AppData\Local\Temp\cc7nYHrG.s:151    .text.dbg_periph_disable:0000000000000012 .LVL8
C:\Users\stapi\AppData\Local\Temp\cc7nYHrG.s:154    .text.dbg_periph_disable:0000000000000016 .LVL9
C:\Users\stapi\AppData\Local\Temp\cc7nYHrG.s:162    .text.dbg_periph_disable:0000000000000020 .LVL10
C:\Users\stapi\AppData\Local\Temp\cc7nYHrG.s:99     .text.dbg_periph_enable:0000000000000000 .LVL3
C:\Users\stapi\AppData\Local\Temp\cc7nYHrG.s:111    .text.dbg_periph_enable:0000000000000010 .LVL4
C:\Users\stapi\AppData\Local\Temp\cc7nYHrG.s:114    .text.dbg_periph_enable:0000000000000014 .LVL5
C:\Users\stapi\AppData\Local\Temp\cc7nYHrG.s:122    .text.dbg_periph_enable:000000000000001e .LVL6
C:\Users\stapi\AppData\Local\Temp\cc7nYHrG.s:78     .text.dbg_low_power_disable:0000000000000000 .LVL1
C:\Users\stapi\AppData\Local\Temp\cc7nYHrG.s:84     .text.dbg_low_power_disable:000000000000000a .LVL2
C:\Users\stapi\AppData\Local\Temp\cc7nYHrG.s:178    .debug_info:0000000000000000 .Ldebug_info0

NO UNDEFINED SYMBOLS
