   1              		.file	"gd32vw55x_qspi.c"
   2              		.option nopic
   3              		.attribute arch, "rv32i2p0_m2p0_a2p0_f2p0_c2p0_b_p0p94"
   4              		.attribute unaligned_access, 0
   5              		.attribute stack_align, 16
   6              		.text
   7              	.Ltext0:
   8              		.cfi_sections	.debug_frame
   9              		.section	.text.qspi_config,"ax",@progbits
  10              		.align	1
  12              	qspi_config:
  13              	.LFB386:
  14              		.file 1 "C:/Users/stapi/OneDrive/Desktop/GD32VW553/V1_MQTT_OK/GD32VW55X_Wifi_BLE_SDK/GD32VW55x_REL
   1:C:/Users/stapi/OneDrive/Desktop/GD32VW553/V1_MQTT_OK/GD32VW55X_Wifi_BLE_SDK/GD32VW55x_RELEASE_V1.0.2/MSDK/plf/GD32VW55x_standard_peripheral/Source\gd32vw55x_qspi.c **** /*!
   2:C:/Users/stapi/OneDrive/Desktop/GD32VW553/V1_MQTT_OK/GD32VW55X_Wifi_BLE_SDK/GD32VW55x_RELEASE_V1.0.2/MSDK/plf/GD32VW55x_standard_peripheral/Source\gd32vw55x_qspi.c ****     \file    gd32vw55x_qspi.c
   3:C:/Users/stapi/OneDrive/Desktop/GD32VW553/V1_MQTT_OK/GD32VW55X_Wifi_BLE_SDK/GD32VW55x_RELEASE_V1.0.2/MSDK/plf/GD32VW55x_standard_peripheral/Source\gd32vw55x_qspi.c ****     \brief   QSPI driver
   4:C:/Users/stapi/OneDrive/Desktop/GD32VW553/V1_MQTT_OK/GD32VW55X_Wifi_BLE_SDK/GD32VW55x_RELEASE_V1.0.2/MSDK/plf/GD32VW55x_standard_peripheral/Source\gd32vw55x_qspi.c **** 
   5:C:/Users/stapi/OneDrive/Desktop/GD32VW553/V1_MQTT_OK/GD32VW55X_Wifi_BLE_SDK/GD32VW55x_RELEASE_V1.0.2/MSDK/plf/GD32VW55x_standard_peripheral/Source\gd32vw55x_qspi.c ****     \version 2023-07-20, V1.0.0, firmware for GD32VW55x
   6:C:/Users/stapi/OneDrive/Desktop/GD32VW553/V1_MQTT_OK/GD32VW55X_Wifi_BLE_SDK/GD32VW55x_RELEASE_V1.0.2/MSDK/plf/GD32VW55x_standard_peripheral/Source\gd32vw55x_qspi.c **** */
   7:C:/Users/stapi/OneDrive/Desktop/GD32VW553/V1_MQTT_OK/GD32VW55X_Wifi_BLE_SDK/GD32VW55x_RELEASE_V1.0.2/MSDK/plf/GD32VW55x_standard_peripheral/Source\gd32vw55x_qspi.c **** 
   8:C:/Users/stapi/OneDrive/Desktop/GD32VW553/V1_MQTT_OK/GD32VW55X_Wifi_BLE_SDK/GD32VW55x_RELEASE_V1.0.2/MSDK/plf/GD32VW55x_standard_peripheral/Source\gd32vw55x_qspi.c **** /*
   9:C:/Users/stapi/OneDrive/Desktop/GD32VW553/V1_MQTT_OK/GD32VW55X_Wifi_BLE_SDK/GD32VW55x_RELEASE_V1.0.2/MSDK/plf/GD32VW55x_standard_peripheral/Source\gd32vw55x_qspi.c ****     Copyright (c) 2023, GigaDevice Semiconductor Inc.
  10:C:/Users/stapi/OneDrive/Desktop/GD32VW553/V1_MQTT_OK/GD32VW55X_Wifi_BLE_SDK/GD32VW55x_RELEASE_V1.0.2/MSDK/plf/GD32VW55x_standard_peripheral/Source\gd32vw55x_qspi.c **** 
  11:C:/Users/stapi/OneDrive/Desktop/GD32VW553/V1_MQTT_OK/GD32VW55X_Wifi_BLE_SDK/GD32VW55x_RELEASE_V1.0.2/MSDK/plf/GD32VW55x_standard_peripheral/Source\gd32vw55x_qspi.c ****     Redistribution and use in source and binary forms, with or without modification,
  12:C:/Users/stapi/OneDrive/Desktop/GD32VW553/V1_MQTT_OK/GD32VW55X_Wifi_BLE_SDK/GD32VW55x_RELEASE_V1.0.2/MSDK/plf/GD32VW55x_standard_peripheral/Source\gd32vw55x_qspi.c **** are permitted provided that the following conditions are met:
  13:C:/Users/stapi/OneDrive/Desktop/GD32VW553/V1_MQTT_OK/GD32VW55X_Wifi_BLE_SDK/GD32VW55x_RELEASE_V1.0.2/MSDK/plf/GD32VW55x_standard_peripheral/Source\gd32vw55x_qspi.c **** 
  14:C:/Users/stapi/OneDrive/Desktop/GD32VW553/V1_MQTT_OK/GD32VW55X_Wifi_BLE_SDK/GD32VW55x_RELEASE_V1.0.2/MSDK/plf/GD32VW55x_standard_peripheral/Source\gd32vw55x_qspi.c ****     1. Redistributions of source code must retain the above copyright notice, this
  15:C:/Users/stapi/OneDrive/Desktop/GD32VW553/V1_MQTT_OK/GD32VW55X_Wifi_BLE_SDK/GD32VW55x_RELEASE_V1.0.2/MSDK/plf/GD32VW55x_standard_peripheral/Source\gd32vw55x_qspi.c ****        list of conditions and the following disclaimer.
  16:C:/Users/stapi/OneDrive/Desktop/GD32VW553/V1_MQTT_OK/GD32VW55X_Wifi_BLE_SDK/GD32VW55x_RELEASE_V1.0.2/MSDK/plf/GD32VW55x_standard_peripheral/Source\gd32vw55x_qspi.c ****     2. Redistributions in binary form must reproduce the above copyright notice,
  17:C:/Users/stapi/OneDrive/Desktop/GD32VW553/V1_MQTT_OK/GD32VW55X_Wifi_BLE_SDK/GD32VW55x_RELEASE_V1.0.2/MSDK/plf/GD32VW55x_standard_peripheral/Source\gd32vw55x_qspi.c ****        this list of conditions and the following disclaimer in the documentation
  18:C:/Users/stapi/OneDrive/Desktop/GD32VW553/V1_MQTT_OK/GD32VW55X_Wifi_BLE_SDK/GD32VW55x_RELEASE_V1.0.2/MSDK/plf/GD32VW55x_standard_peripheral/Source\gd32vw55x_qspi.c ****        and/or other materials provided with the distribution.
  19:C:/Users/stapi/OneDrive/Desktop/GD32VW553/V1_MQTT_OK/GD32VW55X_Wifi_BLE_SDK/GD32VW55x_RELEASE_V1.0.2/MSDK/plf/GD32VW55x_standard_peripheral/Source\gd32vw55x_qspi.c ****     3. Neither the name of the copyright holder nor the names of its contributors
  20:C:/Users/stapi/OneDrive/Desktop/GD32VW553/V1_MQTT_OK/GD32VW55X_Wifi_BLE_SDK/GD32VW55x_RELEASE_V1.0.2/MSDK/plf/GD32VW55x_standard_peripheral/Source\gd32vw55x_qspi.c ****        may be used to endorse or promote products derived from this software without
  21:C:/Users/stapi/OneDrive/Desktop/GD32VW553/V1_MQTT_OK/GD32VW55X_Wifi_BLE_SDK/GD32VW55x_RELEASE_V1.0.2/MSDK/plf/GD32VW55x_standard_peripheral/Source\gd32vw55x_qspi.c ****        specific prior written permission.
  22:C:/Users/stapi/OneDrive/Desktop/GD32VW553/V1_MQTT_OK/GD32VW55X_Wifi_BLE_SDK/GD32VW55x_RELEASE_V1.0.2/MSDK/plf/GD32VW55x_standard_peripheral/Source\gd32vw55x_qspi.c **** 
  23:C:/Users/stapi/OneDrive/Desktop/GD32VW553/V1_MQTT_OK/GD32VW55X_Wifi_BLE_SDK/GD32VW55x_RELEASE_V1.0.2/MSDK/plf/GD32VW55x_standard_peripheral/Source\gd32vw55x_qspi.c ****     THIS SOFTWARE IS PROVIDED BY THE COPYRIGHT HOLDERS AND CONTRIBUTORS "AS IS"
  24:C:/Users/stapi/OneDrive/Desktop/GD32VW553/V1_MQTT_OK/GD32VW55X_Wifi_BLE_SDK/GD32VW55x_RELEASE_V1.0.2/MSDK/plf/GD32VW55x_standard_peripheral/Source\gd32vw55x_qspi.c **** AND ANY EXPRESS OR IMPLIED WARRANTIES, INCLUDING, BUT NOT LIMITED TO, THE IMPLIED
  25:C:/Users/stapi/OneDrive/Desktop/GD32VW553/V1_MQTT_OK/GD32VW55X_Wifi_BLE_SDK/GD32VW55x_RELEASE_V1.0.2/MSDK/plf/GD32VW55x_standard_peripheral/Source\gd32vw55x_qspi.c **** WARRANTIES OF MERCHANTABILITY AND FITNESS FOR A PARTICULAR PURPOSE ARE DISCLAIMED.
  26:C:/Users/stapi/OneDrive/Desktop/GD32VW553/V1_MQTT_OK/GD32VW55X_Wifi_BLE_SDK/GD32VW55x_RELEASE_V1.0.2/MSDK/plf/GD32VW55x_standard_peripheral/Source\gd32vw55x_qspi.c **** IN NO EVENT SHALL THE COPYRIGHT HOLDER OR CONTRIBUTORS BE LIABLE FOR ANY DIRECT,
  27:C:/Users/stapi/OneDrive/Desktop/GD32VW553/V1_MQTT_OK/GD32VW55X_Wifi_BLE_SDK/GD32VW55x_RELEASE_V1.0.2/MSDK/plf/GD32VW55x_standard_peripheral/Source\gd32vw55x_qspi.c **** INDIRECT, INCIDENTAL, SPECIAL, EXEMPLARY, OR CONSEQUENTIAL DAMAGES (INCLUDING, BUT
  28:C:/Users/stapi/OneDrive/Desktop/GD32VW553/V1_MQTT_OK/GD32VW55X_Wifi_BLE_SDK/GD32VW55x_RELEASE_V1.0.2/MSDK/plf/GD32VW55x_standard_peripheral/Source\gd32vw55x_qspi.c **** NOT LIMITED TO, PROCUREMENT OF SUBSTITUTE GOODS OR SERVICES; LOSS OF USE, DATA, OR
  29:C:/Users/stapi/OneDrive/Desktop/GD32VW553/V1_MQTT_OK/GD32VW55X_Wifi_BLE_SDK/GD32VW55x_RELEASE_V1.0.2/MSDK/plf/GD32VW55x_standard_peripheral/Source\gd32vw55x_qspi.c **** PROFITS; OR BUSINESS INTERRUPTION) HOWEVER CAUSED AND ON ANY THEORY OF LIABILITY,
  30:C:/Users/stapi/OneDrive/Desktop/GD32VW553/V1_MQTT_OK/GD32VW55X_Wifi_BLE_SDK/GD32VW55x_RELEASE_V1.0.2/MSDK/plf/GD32VW55x_standard_peripheral/Source\gd32vw55x_qspi.c **** WHETHER IN CONTRACT, STRICT LIABILITY, OR TORT (INCLUDING NEGLIGENCE OR OTHERWISE)
  31:C:/Users/stapi/OneDrive/Desktop/GD32VW553/V1_MQTT_OK/GD32VW55X_Wifi_BLE_SDK/GD32VW55x_RELEASE_V1.0.2/MSDK/plf/GD32VW55x_standard_peripheral/Source\gd32vw55x_qspi.c **** ARISING IN ANY WAY OUT OF THE USE OF THIS SOFTWARE, EVEN IF ADVISED OF THE POSSIBILITY
  32:C:/Users/stapi/OneDrive/Desktop/GD32VW553/V1_MQTT_OK/GD32VW55X_Wifi_BLE_SDK/GD32VW55x_RELEASE_V1.0.2/MSDK/plf/GD32VW55x_standard_peripheral/Source\gd32vw55x_qspi.c **** OF SUCH DAMAGE.
  33:C:/Users/stapi/OneDrive/Desktop/GD32VW553/V1_MQTT_OK/GD32VW55X_Wifi_BLE_SDK/GD32VW55x_RELEASE_V1.0.2/MSDK/plf/GD32VW55x_standard_peripheral/Source\gd32vw55x_qspi.c **** */
  34:C:/Users/stapi/OneDrive/Desktop/GD32VW553/V1_MQTT_OK/GD32VW55X_Wifi_BLE_SDK/GD32VW55x_RELEASE_V1.0.2/MSDK/plf/GD32VW55x_standard_peripheral/Source\gd32vw55x_qspi.c **** 
  35:C:/Users/stapi/OneDrive/Desktop/GD32VW553/V1_MQTT_OK/GD32VW55X_Wifi_BLE_SDK/GD32VW55x_RELEASE_V1.0.2/MSDK/plf/GD32VW55x_standard_peripheral/Source\gd32vw55x_qspi.c **** #include "gd32vw55x_qspi.h"
  36:C:/Users/stapi/OneDrive/Desktop/GD32VW553/V1_MQTT_OK/GD32VW55X_Wifi_BLE_SDK/GD32VW55x_RELEASE_V1.0.2/MSDK/plf/GD32VW55x_standard_peripheral/Source\gd32vw55x_qspi.c **** 
  37:C:/Users/stapi/OneDrive/Desktop/GD32VW553/V1_MQTT_OK/GD32VW55X_Wifi_BLE_SDK/GD32VW55x_RELEASE_V1.0.2/MSDK/plf/GD32VW55x_standard_peripheral/Source\gd32vw55x_qspi.c **** /* QSPI register bit offset */
  38:C:/Users/stapi/OneDrive/Desktop/GD32VW553/V1_MQTT_OK/GD32VW55X_Wifi_BLE_SDK/GD32VW55x_RELEASE_V1.0.2/MSDK/plf/GD32VW55x_standard_peripheral/Source\gd32vw55x_qspi.c **** #define CTL_FTL_OFFSET            ((uint32_t)0x00000008U)               /*!< bit offset of FTL in Q
  39:C:/Users/stapi/OneDrive/Desktop/GD32VW553/V1_MQTT_OK/GD32VW55X_Wifi_BLE_SDK/GD32VW55x_RELEASE_V1.0.2/MSDK/plf/GD32VW55x_standard_peripheral/Source\gd32vw55x_qspi.c **** #define CTL_PSC_OFFSET            ((uint32_t)0x00000018U)               /*!< bit offset of PSC in Q
  40:C:/Users/stapi/OneDrive/Desktop/GD32VW553/V1_MQTT_OK/GD32VW55X_Wifi_BLE_SDK/GD32VW55x_RELEASE_V1.0.2/MSDK/plf/GD32VW55x_standard_peripheral/Source\gd32vw55x_qspi.c **** #define DCFG_FMSZ_OFFSET          ((uint32_t)0x00000010U)               /*!< bit offset of FMSZ in 
  41:C:/Users/stapi/OneDrive/Desktop/GD32VW553/V1_MQTT_OK/GD32VW55X_Wifi_BLE_SDK/GD32VW55x_RELEASE_V1.0.2/MSDK/plf/GD32VW55x_standard_peripheral/Source\gd32vw55x_qspi.c **** #define TCFG_DUMYC_OFFSET         ((uint32_t)0x00000012U)               /*!< bit offset of DUMYC in
  42:C:/Users/stapi/OneDrive/Desktop/GD32VW553/V1_MQTT_OK/GD32VW55X_Wifi_BLE_SDK/GD32VW55x_RELEASE_V1.0.2/MSDK/plf/GD32VW55x_standard_peripheral/Source\gd32vw55x_qspi.c **** 
  43:C:/Users/stapi/OneDrive/Desktop/GD32VW553/V1_MQTT_OK/GD32VW55X_Wifi_BLE_SDK/GD32VW55x_RELEASE_V1.0.2/MSDK/plf/GD32VW55x_standard_peripheral/Source\gd32vw55x_qspi.c **** /* configure QSPI functional mode */
  44:C:/Users/stapi/OneDrive/Desktop/GD32VW553/V1_MQTT_OK/GD32VW55X_Wifi_BLE_SDK/GD32VW55x_RELEASE_V1.0.2/MSDK/plf/GD32VW55x_standard_peripheral/Source\gd32vw55x_qspi.c **** static void qspi_config(qspi_command_struct *cmd, uint32_t functionalmode);
  45:C:/Users/stapi/OneDrive/Desktop/GD32VW553/V1_MQTT_OK/GD32VW55X_Wifi_BLE_SDK/GD32VW55x_RELEASE_V1.0.2/MSDK/plf/GD32VW55x_standard_peripheral/Source\gd32vw55x_qspi.c **** 
  46:C:/Users/stapi/OneDrive/Desktop/GD32VW553/V1_MQTT_OK/GD32VW55X_Wifi_BLE_SDK/GD32VW55x_RELEASE_V1.0.2/MSDK/plf/GD32VW55x_standard_peripheral/Source\gd32vw55x_qspi.c **** /*!
  47:C:/Users/stapi/OneDrive/Desktop/GD32VW553/V1_MQTT_OK/GD32VW55X_Wifi_BLE_SDK/GD32VW55x_RELEASE_V1.0.2/MSDK/plf/GD32VW55x_standard_peripheral/Source\gd32vw55x_qspi.c ****     \brief      reset QSPI
  48:C:/Users/stapi/OneDrive/Desktop/GD32VW553/V1_MQTT_OK/GD32VW55X_Wifi_BLE_SDK/GD32VW55x_RELEASE_V1.0.2/MSDK/plf/GD32VW55x_standard_peripheral/Source\gd32vw55x_qspi.c ****     \param[in]  none
  49:C:/Users/stapi/OneDrive/Desktop/GD32VW553/V1_MQTT_OK/GD32VW55X_Wifi_BLE_SDK/GD32VW55x_RELEASE_V1.0.2/MSDK/plf/GD32VW55x_standard_peripheral/Source\gd32vw55x_qspi.c ****     \param[out] none
  50:C:/Users/stapi/OneDrive/Desktop/GD32VW553/V1_MQTT_OK/GD32VW55X_Wifi_BLE_SDK/GD32VW55x_RELEASE_V1.0.2/MSDK/plf/GD32VW55x_standard_peripheral/Source\gd32vw55x_qspi.c ****     \retval     none
  51:C:/Users/stapi/OneDrive/Desktop/GD32VW553/V1_MQTT_OK/GD32VW55X_Wifi_BLE_SDK/GD32VW55x_RELEASE_V1.0.2/MSDK/plf/GD32VW55x_standard_peripheral/Source\gd32vw55x_qspi.c **** */
  52:C:/Users/stapi/OneDrive/Desktop/GD32VW553/V1_MQTT_OK/GD32VW55X_Wifi_BLE_SDK/GD32VW55x_RELEASE_V1.0.2/MSDK/plf/GD32VW55x_standard_peripheral/Source\gd32vw55x_qspi.c **** void qspi_deinit(void)
  53:C:/Users/stapi/OneDrive/Desktop/GD32VW553/V1_MQTT_OK/GD32VW55X_Wifi_BLE_SDK/GD32VW55x_RELEASE_V1.0.2/MSDK/plf/GD32VW55x_standard_peripheral/Source\gd32vw55x_qspi.c **** {
  54:C:/Users/stapi/OneDrive/Desktop/GD32VW553/V1_MQTT_OK/GD32VW55X_Wifi_BLE_SDK/GD32VW55x_RELEASE_V1.0.2/MSDK/plf/GD32VW55x_standard_peripheral/Source\gd32vw55x_qspi.c ****     rcu_periph_reset_enable(RCU_QSPIRST);
  55:C:/Users/stapi/OneDrive/Desktop/GD32VW553/V1_MQTT_OK/GD32VW55X_Wifi_BLE_SDK/GD32VW55x_RELEASE_V1.0.2/MSDK/plf/GD32VW55x_standard_peripheral/Source\gd32vw55x_qspi.c ****     rcu_periph_reset_disable(RCU_QSPIRST);
  56:C:/Users/stapi/OneDrive/Desktop/GD32VW553/V1_MQTT_OK/GD32VW55X_Wifi_BLE_SDK/GD32VW55x_RELEASE_V1.0.2/MSDK/plf/GD32VW55x_standard_peripheral/Source\gd32vw55x_qspi.c **** }
  57:C:/Users/stapi/OneDrive/Desktop/GD32VW553/V1_MQTT_OK/GD32VW55X_Wifi_BLE_SDK/GD32VW55x_RELEASE_V1.0.2/MSDK/plf/GD32VW55x_standard_peripheral/Source\gd32vw55x_qspi.c **** 
  58:C:/Users/stapi/OneDrive/Desktop/GD32VW553/V1_MQTT_OK/GD32VW55X_Wifi_BLE_SDK/GD32VW55x_RELEASE_V1.0.2/MSDK/plf/GD32VW55x_standard_peripheral/Source\gd32vw55x_qspi.c **** /*!
  59:C:/Users/stapi/OneDrive/Desktop/GD32VW553/V1_MQTT_OK/GD32VW55X_Wifi_BLE_SDK/GD32VW55x_RELEASE_V1.0.2/MSDK/plf/GD32VW55x_standard_peripheral/Source\gd32vw55x_qspi.c ****     \brief      initialize the parameters of QSPI structure with the default values
  60:C:/Users/stapi/OneDrive/Desktop/GD32VW553/V1_MQTT_OK/GD32VW55X_Wifi_BLE_SDK/GD32VW55x_RELEASE_V1.0.2/MSDK/plf/GD32VW55x_standard_peripheral/Source\gd32vw55x_qspi.c ****     \param[in]  none
  61:C:/Users/stapi/OneDrive/Desktop/GD32VW553/V1_MQTT_OK/GD32VW55X_Wifi_BLE_SDK/GD32VW55x_RELEASE_V1.0.2/MSDK/plf/GD32VW55x_standard_peripheral/Source\gd32vw55x_qspi.c ****     \param[out] init_para: QSPI parameter structure
  62:C:/Users/stapi/OneDrive/Desktop/GD32VW553/V1_MQTT_OK/GD32VW55X_Wifi_BLE_SDK/GD32VW55x_RELEASE_V1.0.2/MSDK/plf/GD32VW55x_standard_peripheral/Source\gd32vw55x_qspi.c ****     \retval     none
  63:C:/Users/stapi/OneDrive/Desktop/GD32VW553/V1_MQTT_OK/GD32VW55X_Wifi_BLE_SDK/GD32VW55x_RELEASE_V1.0.2/MSDK/plf/GD32VW55x_standard_peripheral/Source\gd32vw55x_qspi.c **** */
  64:C:/Users/stapi/OneDrive/Desktop/GD32VW553/V1_MQTT_OK/GD32VW55X_Wifi_BLE_SDK/GD32VW55x_RELEASE_V1.0.2/MSDK/plf/GD32VW55x_standard_peripheral/Source\gd32vw55x_qspi.c **** void qspi_struct_para_init(qspi_init_struct *init_para)
  65:C:/Users/stapi/OneDrive/Desktop/GD32VW553/V1_MQTT_OK/GD32VW55X_Wifi_BLE_SDK/GD32VW55x_RELEASE_V1.0.2/MSDK/plf/GD32VW55x_standard_peripheral/Source\gd32vw55x_qspi.c **** {
  66:C:/Users/stapi/OneDrive/Desktop/GD32VW553/V1_MQTT_OK/GD32VW55X_Wifi_BLE_SDK/GD32VW55x_RELEASE_V1.0.2/MSDK/plf/GD32VW55x_standard_peripheral/Source\gd32vw55x_qspi.c ****     /* set the QSPI struct with the default values */
  67:C:/Users/stapi/OneDrive/Desktop/GD32VW553/V1_MQTT_OK/GD32VW55X_Wifi_BLE_SDK/GD32VW55x_RELEASE_V1.0.2/MSDK/plf/GD32VW55x_standard_peripheral/Source\gd32vw55x_qspi.c ****     init_para->clock_mode     = QSPI_CLOCK_MODE_0;
  68:C:/Users/stapi/OneDrive/Desktop/GD32VW553/V1_MQTT_OK/GD32VW55X_Wifi_BLE_SDK/GD32VW55x_RELEASE_V1.0.2/MSDK/plf/GD32VW55x_standard_peripheral/Source\gd32vw55x_qspi.c ****     init_para->prescaler      = 3U;
  69:C:/Users/stapi/OneDrive/Desktop/GD32VW553/V1_MQTT_OK/GD32VW55X_Wifi_BLE_SDK/GD32VW55x_RELEASE_V1.0.2/MSDK/plf/GD32VW55x_standard_peripheral/Source\gd32vw55x_qspi.c ****     init_para->fifo_threshold = 16U;
  70:C:/Users/stapi/OneDrive/Desktop/GD32VW553/V1_MQTT_OK/GD32VW55X_Wifi_BLE_SDK/GD32VW55x_RELEASE_V1.0.2/MSDK/plf/GD32VW55x_standard_peripheral/Source\gd32vw55x_qspi.c ****     init_para->sample_shift   = QSPI_SAMPLE_SHIFTING_NONE;
  71:C:/Users/stapi/OneDrive/Desktop/GD32VW553/V1_MQTT_OK/GD32VW55X_Wifi_BLE_SDK/GD32VW55x_RELEASE_V1.0.2/MSDK/plf/GD32VW55x_standard_peripheral/Source\gd32vw55x_qspi.c ****     init_para->flash_size     = 0x1FU;
  72:C:/Users/stapi/OneDrive/Desktop/GD32VW553/V1_MQTT_OK/GD32VW55X_Wifi_BLE_SDK/GD32VW55x_RELEASE_V1.0.2/MSDK/plf/GD32VW55x_standard_peripheral/Source\gd32vw55x_qspi.c ****     init_para->cs_high_time   = QSPI_CS_HIGH_TIME_1_CYCLE;
  73:C:/Users/stapi/OneDrive/Desktop/GD32VW553/V1_MQTT_OK/GD32VW55X_Wifi_BLE_SDK/GD32VW55x_RELEASE_V1.0.2/MSDK/plf/GD32VW55x_standard_peripheral/Source\gd32vw55x_qspi.c **** }
  74:C:/Users/stapi/OneDrive/Desktop/GD32VW553/V1_MQTT_OK/GD32VW55X_Wifi_BLE_SDK/GD32VW55x_RELEASE_V1.0.2/MSDK/plf/GD32VW55x_standard_peripheral/Source\gd32vw55x_qspi.c **** 
  75:C:/Users/stapi/OneDrive/Desktop/GD32VW553/V1_MQTT_OK/GD32VW55X_Wifi_BLE_SDK/GD32VW55x_RELEASE_V1.0.2/MSDK/plf/GD32VW55x_standard_peripheral/Source\gd32vw55x_qspi.c **** /*!
  76:C:/Users/stapi/OneDrive/Desktop/GD32VW553/V1_MQTT_OK/GD32VW55X_Wifi_BLE_SDK/GD32VW55x_RELEASE_V1.0.2/MSDK/plf/GD32VW55x_standard_peripheral/Source\gd32vw55x_qspi.c ****     \brief      initialize the parameters of QSPI command structure with the default values
  77:C:/Users/stapi/OneDrive/Desktop/GD32VW553/V1_MQTT_OK/GD32VW55X_Wifi_BLE_SDK/GD32VW55x_RELEASE_V1.0.2/MSDK/plf/GD32VW55x_standard_peripheral/Source\gd32vw55x_qspi.c ****     \param[in]  none
  78:C:/Users/stapi/OneDrive/Desktop/GD32VW553/V1_MQTT_OK/GD32VW55X_Wifi_BLE_SDK/GD32VW55x_RELEASE_V1.0.2/MSDK/plf/GD32VW55x_standard_peripheral/Source\gd32vw55x_qspi.c ****     \param[out] init_para: QSPI command parameter structure
  79:C:/Users/stapi/OneDrive/Desktop/GD32VW553/V1_MQTT_OK/GD32VW55X_Wifi_BLE_SDK/GD32VW55x_RELEASE_V1.0.2/MSDK/plf/GD32VW55x_standard_peripheral/Source\gd32vw55x_qspi.c ****     \retval     none
  80:C:/Users/stapi/OneDrive/Desktop/GD32VW553/V1_MQTT_OK/GD32VW55X_Wifi_BLE_SDK/GD32VW55x_RELEASE_V1.0.2/MSDK/plf/GD32VW55x_standard_peripheral/Source\gd32vw55x_qspi.c **** */
  81:C:/Users/stapi/OneDrive/Desktop/GD32VW553/V1_MQTT_OK/GD32VW55X_Wifi_BLE_SDK/GD32VW55x_RELEASE_V1.0.2/MSDK/plf/GD32VW55x_standard_peripheral/Source\gd32vw55x_qspi.c **** void qspi_cmd_struct_para_init(qspi_command_struct *init_para)
  82:C:/Users/stapi/OneDrive/Desktop/GD32VW553/V1_MQTT_OK/GD32VW55X_Wifi_BLE_SDK/GD32VW55x_RELEASE_V1.0.2/MSDK/plf/GD32VW55x_standard_peripheral/Source\gd32vw55x_qspi.c **** {
  83:C:/Users/stapi/OneDrive/Desktop/GD32VW553/V1_MQTT_OK/GD32VW55X_Wifi_BLE_SDK/GD32VW55x_RELEASE_V1.0.2/MSDK/plf/GD32VW55x_standard_peripheral/Source\gd32vw55x_qspi.c ****     /* set the QSPI command struct with the default values */
  84:C:/Users/stapi/OneDrive/Desktop/GD32VW553/V1_MQTT_OK/GD32VW55X_Wifi_BLE_SDK/GD32VW55x_RELEASE_V1.0.2/MSDK/plf/GD32VW55x_standard_peripheral/Source\gd32vw55x_qspi.c ****     init_para->instruction_mode = QSPI_INSTRUCTION_NONE;
  85:C:/Users/stapi/OneDrive/Desktop/GD32VW553/V1_MQTT_OK/GD32VW55X_Wifi_BLE_SDK/GD32VW55x_RELEASE_V1.0.2/MSDK/plf/GD32VW55x_standard_peripheral/Source\gd32vw55x_qspi.c ****     init_para->instruction      = 0U;
  86:C:/Users/stapi/OneDrive/Desktop/GD32VW553/V1_MQTT_OK/GD32VW55X_Wifi_BLE_SDK/GD32VW55x_RELEASE_V1.0.2/MSDK/plf/GD32VW55x_standard_peripheral/Source\gd32vw55x_qspi.c ****     init_para->addr_mode        = QSPI_ADDR_NONE;
  87:C:/Users/stapi/OneDrive/Desktop/GD32VW553/V1_MQTT_OK/GD32VW55X_Wifi_BLE_SDK/GD32VW55x_RELEASE_V1.0.2/MSDK/plf/GD32VW55x_standard_peripheral/Source\gd32vw55x_qspi.c ****     init_para->addr_size        = QSPI_ADDR_8_BITS;
  88:C:/Users/stapi/OneDrive/Desktop/GD32VW553/V1_MQTT_OK/GD32VW55X_Wifi_BLE_SDK/GD32VW55x_RELEASE_V1.0.2/MSDK/plf/GD32VW55x_standard_peripheral/Source\gd32vw55x_qspi.c ****     init_para->addr             = 0U;
  89:C:/Users/stapi/OneDrive/Desktop/GD32VW553/V1_MQTT_OK/GD32VW55X_Wifi_BLE_SDK/GD32VW55x_RELEASE_V1.0.2/MSDK/plf/GD32VW55x_standard_peripheral/Source\gd32vw55x_qspi.c ****     init_para->altebytes_mode   = QSPI_ALTE_BYTES_NONE;
  90:C:/Users/stapi/OneDrive/Desktop/GD32VW553/V1_MQTT_OK/GD32VW55X_Wifi_BLE_SDK/GD32VW55x_RELEASE_V1.0.2/MSDK/plf/GD32VW55x_standard_peripheral/Source\gd32vw55x_qspi.c ****     init_para->altebytes_size   = QSPI_ALTE_BYTES_8_BITS;
  91:C:/Users/stapi/OneDrive/Desktop/GD32VW553/V1_MQTT_OK/GD32VW55X_Wifi_BLE_SDK/GD32VW55x_RELEASE_V1.0.2/MSDK/plf/GD32VW55x_standard_peripheral/Source\gd32vw55x_qspi.c ****     init_para->altebytes        = 0U;
  92:C:/Users/stapi/OneDrive/Desktop/GD32VW553/V1_MQTT_OK/GD32VW55X_Wifi_BLE_SDK/GD32VW55x_RELEASE_V1.0.2/MSDK/plf/GD32VW55x_standard_peripheral/Source\gd32vw55x_qspi.c ****     init_para->dummycycles      = 0U;
  93:C:/Users/stapi/OneDrive/Desktop/GD32VW553/V1_MQTT_OK/GD32VW55X_Wifi_BLE_SDK/GD32VW55x_RELEASE_V1.0.2/MSDK/plf/GD32VW55x_standard_peripheral/Source\gd32vw55x_qspi.c ****     init_para->data_mode        = QSPI_DATA_NONE;
  94:C:/Users/stapi/OneDrive/Desktop/GD32VW553/V1_MQTT_OK/GD32VW55X_Wifi_BLE_SDK/GD32VW55x_RELEASE_V1.0.2/MSDK/plf/GD32VW55x_standard_peripheral/Source\gd32vw55x_qspi.c ****     init_para->data_length      = 0U;
  95:C:/Users/stapi/OneDrive/Desktop/GD32VW553/V1_MQTT_OK/GD32VW55X_Wifi_BLE_SDK/GD32VW55x_RELEASE_V1.0.2/MSDK/plf/GD32VW55x_standard_peripheral/Source\gd32vw55x_qspi.c ****     init_para->sioo_mode        = QSPI_SIOO_INST_EVERY_CMD;
  96:C:/Users/stapi/OneDrive/Desktop/GD32VW553/V1_MQTT_OK/GD32VW55X_Wifi_BLE_SDK/GD32VW55x_RELEASE_V1.0.2/MSDK/plf/GD32VW55x_standard_peripheral/Source\gd32vw55x_qspi.c **** }
  97:C:/Users/stapi/OneDrive/Desktop/GD32VW553/V1_MQTT_OK/GD32VW55X_Wifi_BLE_SDK/GD32VW55x_RELEASE_V1.0.2/MSDK/plf/GD32VW55x_standard_peripheral/Source\gd32vw55x_qspi.c **** 
  98:C:/Users/stapi/OneDrive/Desktop/GD32VW553/V1_MQTT_OK/GD32VW55X_Wifi_BLE_SDK/GD32VW55x_RELEASE_V1.0.2/MSDK/plf/GD32VW55x_standard_peripheral/Source\gd32vw55x_qspi.c **** /*!
  99:C:/Users/stapi/OneDrive/Desktop/GD32VW553/V1_MQTT_OK/GD32VW55X_Wifi_BLE_SDK/GD32VW55x_RELEASE_V1.0.2/MSDK/plf/GD32VW55x_standard_peripheral/Source\gd32vw55x_qspi.c ****     \brief      initialize the parameters of QSPI read polling structure with the default values
 100:C:/Users/stapi/OneDrive/Desktop/GD32VW553/V1_MQTT_OK/GD32VW55X_Wifi_BLE_SDK/GD32VW55x_RELEASE_V1.0.2/MSDK/plf/GD32VW55x_standard_peripheral/Source\gd32vw55x_qspi.c ****     \param[in]  none
 101:C:/Users/stapi/OneDrive/Desktop/GD32VW553/V1_MQTT_OK/GD32VW55X_Wifi_BLE_SDK/GD32VW55x_RELEASE_V1.0.2/MSDK/plf/GD32VW55x_standard_peripheral/Source\gd32vw55x_qspi.c ****     \param[out] init_para: QSPI read polling parameter structure
 102:C:/Users/stapi/OneDrive/Desktop/GD32VW553/V1_MQTT_OK/GD32VW55X_Wifi_BLE_SDK/GD32VW55x_RELEASE_V1.0.2/MSDK/plf/GD32VW55x_standard_peripheral/Source\gd32vw55x_qspi.c ****     \retval     none
 103:C:/Users/stapi/OneDrive/Desktop/GD32VW553/V1_MQTT_OK/GD32VW55X_Wifi_BLE_SDK/GD32VW55x_RELEASE_V1.0.2/MSDK/plf/GD32VW55x_standard_peripheral/Source\gd32vw55x_qspi.c **** */
 104:C:/Users/stapi/OneDrive/Desktop/GD32VW553/V1_MQTT_OK/GD32VW55X_Wifi_BLE_SDK/GD32VW55x_RELEASE_V1.0.2/MSDK/plf/GD32VW55x_standard_peripheral/Source\gd32vw55x_qspi.c **** void qspi_polling_struct_para_init(qspi_polling_struct *init_para)
 105:C:/Users/stapi/OneDrive/Desktop/GD32VW553/V1_MQTT_OK/GD32VW55X_Wifi_BLE_SDK/GD32VW55x_RELEASE_V1.0.2/MSDK/plf/GD32VW55x_standard_peripheral/Source\gd32vw55x_qspi.c **** {
 106:C:/Users/stapi/OneDrive/Desktop/GD32VW553/V1_MQTT_OK/GD32VW55X_Wifi_BLE_SDK/GD32VW55x_RELEASE_V1.0.2/MSDK/plf/GD32VW55x_standard_peripheral/Source\gd32vw55x_qspi.c ****     /* set the QSPI read polling struct with the default values */
 107:C:/Users/stapi/OneDrive/Desktop/GD32VW553/V1_MQTT_OK/GD32VW55X_Wifi_BLE_SDK/GD32VW55x_RELEASE_V1.0.2/MSDK/plf/GD32VW55x_standard_peripheral/Source\gd32vw55x_qspi.c ****     init_para->match            = 0U;
 108:C:/Users/stapi/OneDrive/Desktop/GD32VW553/V1_MQTT_OK/GD32VW55X_Wifi_BLE_SDK/GD32VW55x_RELEASE_V1.0.2/MSDK/plf/GD32VW55x_standard_peripheral/Source\gd32vw55x_qspi.c ****     init_para->mask             = 0U;
 109:C:/Users/stapi/OneDrive/Desktop/GD32VW553/V1_MQTT_OK/GD32VW55X_Wifi_BLE_SDK/GD32VW55x_RELEASE_V1.0.2/MSDK/plf/GD32VW55x_standard_peripheral/Source\gd32vw55x_qspi.c ****     init_para->interval         = 0U;
 110:C:/Users/stapi/OneDrive/Desktop/GD32VW553/V1_MQTT_OK/GD32VW55X_Wifi_BLE_SDK/GD32VW55x_RELEASE_V1.0.2/MSDK/plf/GD32VW55x_standard_peripheral/Source\gd32vw55x_qspi.c ****     init_para->statusbytes_size = 1U;
 111:C:/Users/stapi/OneDrive/Desktop/GD32VW553/V1_MQTT_OK/GD32VW55X_Wifi_BLE_SDK/GD32VW55x_RELEASE_V1.0.2/MSDK/plf/GD32VW55x_standard_peripheral/Source\gd32vw55x_qspi.c ****     init_para->match_mode       = QSPI_MATCH_MODE_AND;
 112:C:/Users/stapi/OneDrive/Desktop/GD32VW553/V1_MQTT_OK/GD32VW55X_Wifi_BLE_SDK/GD32VW55x_RELEASE_V1.0.2/MSDK/plf/GD32VW55x_standard_peripheral/Source\gd32vw55x_qspi.c ****     init_para->polling_stop     = QSPI_POLLING_STOP_DISABLE;
 113:C:/Users/stapi/OneDrive/Desktop/GD32VW553/V1_MQTT_OK/GD32VW55X_Wifi_BLE_SDK/GD32VW55x_RELEASE_V1.0.2/MSDK/plf/GD32VW55x_standard_peripheral/Source\gd32vw55x_qspi.c **** }
 114:C:/Users/stapi/OneDrive/Desktop/GD32VW553/V1_MQTT_OK/GD32VW55X_Wifi_BLE_SDK/GD32VW55x_RELEASE_V1.0.2/MSDK/plf/GD32VW55x_standard_peripheral/Source\gd32vw55x_qspi.c **** 
 115:C:/Users/stapi/OneDrive/Desktop/GD32VW553/V1_MQTT_OK/GD32VW55X_Wifi_BLE_SDK/GD32VW55x_RELEASE_V1.0.2/MSDK/plf/GD32VW55x_standard_peripheral/Source\gd32vw55x_qspi.c **** /*!
 116:C:/Users/stapi/OneDrive/Desktop/GD32VW553/V1_MQTT_OK/GD32VW55X_Wifi_BLE_SDK/GD32VW55x_RELEASE_V1.0.2/MSDK/plf/GD32VW55x_standard_peripheral/Source\gd32vw55x_qspi.c ****     \brief      initialize QSPI
 117:C:/Users/stapi/OneDrive/Desktop/GD32VW553/V1_MQTT_OK/GD32VW55X_Wifi_BLE_SDK/GD32VW55x_RELEASE_V1.0.2/MSDK/plf/GD32VW55x_standard_peripheral/Source\gd32vw55x_qspi.c ****     \param[in]  qspi_struct: QSPI parameter initialization structure
 118:C:/Users/stapi/OneDrive/Desktop/GD32VW553/V1_MQTT_OK/GD32VW55X_Wifi_BLE_SDK/GD32VW55x_RELEASE_V1.0.2/MSDK/plf/GD32VW55x_standard_peripheral/Source\gd32vw55x_qspi.c ****                             and the member values are shown as below:
 119:C:/Users/stapi/OneDrive/Desktop/GD32VW553/V1_MQTT_OK/GD32VW55X_Wifi_BLE_SDK/GD32VW55x_RELEASE_V1.0.2/MSDK/plf/GD32VW55x_standard_peripheral/Source\gd32vw55x_qspi.c ****                   prescaler: between 0 and 255
 120:C:/Users/stapi/OneDrive/Desktop/GD32VW553/V1_MQTT_OK/GD32VW55X_Wifi_BLE_SDK/GD32VW55x_RELEASE_V1.0.2/MSDK/plf/GD32VW55x_standard_peripheral/Source\gd32vw55x_qspi.c ****                   fifo_threshold: between 1 and 16
 121:C:/Users/stapi/OneDrive/Desktop/GD32VW553/V1_MQTT_OK/GD32VW55X_Wifi_BLE_SDK/GD32VW55x_RELEASE_V1.0.2/MSDK/plf/GD32VW55x_standard_peripheral/Source\gd32vw55x_qspi.c ****                   sample_shift: QSPI_SAMPLE_SHIFTING_NONE, QSPI_SAMPLE_SHIFTING_HALFCYCLE, QSPI_SAM
 122:C:/Users/stapi/OneDrive/Desktop/GD32VW553/V1_MQTT_OK/GD32VW55X_Wifi_BLE_SDK/GD32VW55x_RELEASE_V1.0.2/MSDK/plf/GD32VW55x_standard_peripheral/Source\gd32vw55x_qspi.c ****                   flash_size: between 0 and 28
 123:C:/Users/stapi/OneDrive/Desktop/GD32VW553/V1_MQTT_OK/GD32VW55X_Wifi_BLE_SDK/GD32VW55x_RELEASE_V1.0.2/MSDK/plf/GD32VW55x_standard_peripheral/Source\gd32vw55x_qspi.c ****                   cs_high_time: QSPI_CS_HIGH_TIME_1_CYCLE, QSPI_CS_HIGH_TIME_2_CYCLE, QSPI_CS_HIGH_
 124:C:/Users/stapi/OneDrive/Desktop/GD32VW553/V1_MQTT_OK/GD32VW55X_Wifi_BLE_SDK/GD32VW55x_RELEASE_V1.0.2/MSDK/plf/GD32VW55x_standard_peripheral/Source\gd32vw55x_qspi.c ****                                 QSPI_CS_HIGH_TIME_4_CYCLE, QSPI_CS_HIGH_TIME_5_CYCLE, QSPI_CS_HIGH_
 125:C:/Users/stapi/OneDrive/Desktop/GD32VW553/V1_MQTT_OK/GD32VW55X_Wifi_BLE_SDK/GD32VW55x_RELEASE_V1.0.2/MSDK/plf/GD32VW55x_standard_peripheral/Source\gd32vw55x_qspi.c ****                                 QSPI_CS_HIGH_TIME_7_CYCLE, QSPI_CS_HIGH_TIME_8_CYCLE
 126:C:/Users/stapi/OneDrive/Desktop/GD32VW553/V1_MQTT_OK/GD32VW55X_Wifi_BLE_SDK/GD32VW55x_RELEASE_V1.0.2/MSDK/plf/GD32VW55x_standard_peripheral/Source\gd32vw55x_qspi.c ****                   clock_mode: QSPI_CLOCK_MODE_0, QSPI_CLOCK_MODE_3
 127:C:/Users/stapi/OneDrive/Desktop/GD32VW553/V1_MQTT_OK/GD32VW55X_Wifi_BLE_SDK/GD32VW55x_RELEASE_V1.0.2/MSDK/plf/GD32VW55x_standard_peripheral/Source\gd32vw55x_qspi.c ****     \param[out] none
 128:C:/Users/stapi/OneDrive/Desktop/GD32VW553/V1_MQTT_OK/GD32VW55X_Wifi_BLE_SDK/GD32VW55x_RELEASE_V1.0.2/MSDK/plf/GD32VW55x_standard_peripheral/Source\gd32vw55x_qspi.c ****     \retval     none
 129:C:/Users/stapi/OneDrive/Desktop/GD32VW553/V1_MQTT_OK/GD32VW55X_Wifi_BLE_SDK/GD32VW55x_RELEASE_V1.0.2/MSDK/plf/GD32VW55x_standard_peripheral/Source\gd32vw55x_qspi.c **** */
 130:C:/Users/stapi/OneDrive/Desktop/GD32VW553/V1_MQTT_OK/GD32VW55X_Wifi_BLE_SDK/GD32VW55x_RELEASE_V1.0.2/MSDK/plf/GD32VW55x_standard_peripheral/Source\gd32vw55x_qspi.c **** void qspi_init(qspi_init_struct *qspi_struct)
 131:C:/Users/stapi/OneDrive/Desktop/GD32VW553/V1_MQTT_OK/GD32VW55X_Wifi_BLE_SDK/GD32VW55x_RELEASE_V1.0.2/MSDK/plf/GD32VW55x_standard_peripheral/Source\gd32vw55x_qspi.c **** {
 132:C:/Users/stapi/OneDrive/Desktop/GD32VW553/V1_MQTT_OK/GD32VW55X_Wifi_BLE_SDK/GD32VW55x_RELEASE_V1.0.2/MSDK/plf/GD32VW55x_standard_peripheral/Source\gd32vw55x_qspi.c ****     /* configure prescaler, sample_shift, fifo_threshold */
 133:C:/Users/stapi/OneDrive/Desktop/GD32VW553/V1_MQTT_OK/GD32VW55X_Wifi_BLE_SDK/GD32VW55x_RELEASE_V1.0.2/MSDK/plf/GD32VW55x_standard_peripheral/Source\gd32vw55x_qspi.c ****     QSPI_CTL &= ~(QSPI_CTL_PSC | QSPI_CTL_SSAMPLE | QSPI_CTL_FTL);
 134:C:/Users/stapi/OneDrive/Desktop/GD32VW553/V1_MQTT_OK/GD32VW55X_Wifi_BLE_SDK/GD32VW55x_RELEASE_V1.0.2/MSDK/plf/GD32VW55x_standard_peripheral/Source\gd32vw55x_qspi.c ****     QSPI_CTL |= (qspi_struct->prescaler << CTL_PSC_OFFSET) | qspi_struct->sample_shift | ((qspi_str
 135:C:/Users/stapi/OneDrive/Desktop/GD32VW553/V1_MQTT_OK/GD32VW55X_Wifi_BLE_SDK/GD32VW55x_RELEASE_V1.0.2/MSDK/plf/GD32VW55x_standard_peripheral/Source\gd32vw55x_qspi.c **** 
 136:C:/Users/stapi/OneDrive/Desktop/GD32VW553/V1_MQTT_OK/GD32VW55X_Wifi_BLE_SDK/GD32VW55x_RELEASE_V1.0.2/MSDK/plf/GD32VW55x_standard_peripheral/Source\gd32vw55x_qspi.c ****     /* configure flash_size, cs_high_time, clock_mode */
 137:C:/Users/stapi/OneDrive/Desktop/GD32VW553/V1_MQTT_OK/GD32VW55X_Wifi_BLE_SDK/GD32VW55x_RELEASE_V1.0.2/MSDK/plf/GD32VW55x_standard_peripheral/Source\gd32vw55x_qspi.c ****     QSPI_DCFG &= ~((QSPI_DCFG_FMSZ) | QSPI_CS_HIGH_TIME_8_CYCLE | QSPI_DCFG_CKMOD);
 138:C:/Users/stapi/OneDrive/Desktop/GD32VW553/V1_MQTT_OK/GD32VW55X_Wifi_BLE_SDK/GD32VW55x_RELEASE_V1.0.2/MSDK/plf/GD32VW55x_standard_peripheral/Source\gd32vw55x_qspi.c ****     QSPI_DCFG |= ((qspi_struct->flash_size << DCFG_FMSZ_OFFSET) | qspi_struct->cs_high_time | qspi_
 139:C:/Users/stapi/OneDrive/Desktop/GD32VW553/V1_MQTT_OK/GD32VW55X_Wifi_BLE_SDK/GD32VW55x_RELEASE_V1.0.2/MSDK/plf/GD32VW55x_standard_peripheral/Source\gd32vw55x_qspi.c **** }
 140:C:/Users/stapi/OneDrive/Desktop/GD32VW553/V1_MQTT_OK/GD32VW55X_Wifi_BLE_SDK/GD32VW55x_RELEASE_V1.0.2/MSDK/plf/GD32VW55x_standard_peripheral/Source\gd32vw55x_qspi.c **** 
 141:C:/Users/stapi/OneDrive/Desktop/GD32VW553/V1_MQTT_OK/GD32VW55X_Wifi_BLE_SDK/GD32VW55x_RELEASE_V1.0.2/MSDK/plf/GD32VW55x_standard_peripheral/Source\gd32vw55x_qspi.c **** /*!
 142:C:/Users/stapi/OneDrive/Desktop/GD32VW553/V1_MQTT_OK/GD32VW55X_Wifi_BLE_SDK/GD32VW55x_RELEASE_V1.0.2/MSDK/plf/GD32VW55x_standard_peripheral/Source\gd32vw55x_qspi.c ****     \brief      enable QSPI
 143:C:/Users/stapi/OneDrive/Desktop/GD32VW553/V1_MQTT_OK/GD32VW55X_Wifi_BLE_SDK/GD32VW55x_RELEASE_V1.0.2/MSDK/plf/GD32VW55x_standard_peripheral/Source\gd32vw55x_qspi.c ****     \param[in]  none
 144:C:/Users/stapi/OneDrive/Desktop/GD32VW553/V1_MQTT_OK/GD32VW55X_Wifi_BLE_SDK/GD32VW55x_RELEASE_V1.0.2/MSDK/plf/GD32VW55x_standard_peripheral/Source\gd32vw55x_qspi.c ****     \param[out] none
 145:C:/Users/stapi/OneDrive/Desktop/GD32VW553/V1_MQTT_OK/GD32VW55X_Wifi_BLE_SDK/GD32VW55x_RELEASE_V1.0.2/MSDK/plf/GD32VW55x_standard_peripheral/Source\gd32vw55x_qspi.c ****     \retval     none
 146:C:/Users/stapi/OneDrive/Desktop/GD32VW553/V1_MQTT_OK/GD32VW55X_Wifi_BLE_SDK/GD32VW55x_RELEASE_V1.0.2/MSDK/plf/GD32VW55x_standard_peripheral/Source\gd32vw55x_qspi.c **** */
 147:C:/Users/stapi/OneDrive/Desktop/GD32VW553/V1_MQTT_OK/GD32VW55X_Wifi_BLE_SDK/GD32VW55x_RELEASE_V1.0.2/MSDK/plf/GD32VW55x_standard_peripheral/Source\gd32vw55x_qspi.c **** void qspi_enable(void)
 148:C:/Users/stapi/OneDrive/Desktop/GD32VW553/V1_MQTT_OK/GD32VW55X_Wifi_BLE_SDK/GD32VW55x_RELEASE_V1.0.2/MSDK/plf/GD32VW55x_standard_peripheral/Source\gd32vw55x_qspi.c **** {
 149:C:/Users/stapi/OneDrive/Desktop/GD32VW553/V1_MQTT_OK/GD32VW55X_Wifi_BLE_SDK/GD32VW55x_RELEASE_V1.0.2/MSDK/plf/GD32VW55x_standard_peripheral/Source\gd32vw55x_qspi.c ****     QSPI_CTL |= (uint32_t)QSPI_CTL_QSPIEN;
 150:C:/Users/stapi/OneDrive/Desktop/GD32VW553/V1_MQTT_OK/GD32VW55X_Wifi_BLE_SDK/GD32VW55x_RELEASE_V1.0.2/MSDK/plf/GD32VW55x_standard_peripheral/Source\gd32vw55x_qspi.c **** }
 151:C:/Users/stapi/OneDrive/Desktop/GD32VW553/V1_MQTT_OK/GD32VW55X_Wifi_BLE_SDK/GD32VW55x_RELEASE_V1.0.2/MSDK/plf/GD32VW55x_standard_peripheral/Source\gd32vw55x_qspi.c **** 
 152:C:/Users/stapi/OneDrive/Desktop/GD32VW553/V1_MQTT_OK/GD32VW55X_Wifi_BLE_SDK/GD32VW55x_RELEASE_V1.0.2/MSDK/plf/GD32VW55x_standard_peripheral/Source\gd32vw55x_qspi.c **** /*!
 153:C:/Users/stapi/OneDrive/Desktop/GD32VW553/V1_MQTT_OK/GD32VW55X_Wifi_BLE_SDK/GD32VW55x_RELEASE_V1.0.2/MSDK/plf/GD32VW55x_standard_peripheral/Source\gd32vw55x_qspi.c ****     \brief      disable QSPI
 154:C:/Users/stapi/OneDrive/Desktop/GD32VW553/V1_MQTT_OK/GD32VW55X_Wifi_BLE_SDK/GD32VW55x_RELEASE_V1.0.2/MSDK/plf/GD32VW55x_standard_peripheral/Source\gd32vw55x_qspi.c ****     \param[in]  none
 155:C:/Users/stapi/OneDrive/Desktop/GD32VW553/V1_MQTT_OK/GD32VW55X_Wifi_BLE_SDK/GD32VW55x_RELEASE_V1.0.2/MSDK/plf/GD32VW55x_standard_peripheral/Source\gd32vw55x_qspi.c ****     \param[out] none
 156:C:/Users/stapi/OneDrive/Desktop/GD32VW553/V1_MQTT_OK/GD32VW55X_Wifi_BLE_SDK/GD32VW55x_RELEASE_V1.0.2/MSDK/plf/GD32VW55x_standard_peripheral/Source\gd32vw55x_qspi.c ****     \retval     none
 157:C:/Users/stapi/OneDrive/Desktop/GD32VW553/V1_MQTT_OK/GD32VW55X_Wifi_BLE_SDK/GD32VW55x_RELEASE_V1.0.2/MSDK/plf/GD32VW55x_standard_peripheral/Source\gd32vw55x_qspi.c **** */
 158:C:/Users/stapi/OneDrive/Desktop/GD32VW553/V1_MQTT_OK/GD32VW55X_Wifi_BLE_SDK/GD32VW55x_RELEASE_V1.0.2/MSDK/plf/GD32VW55x_standard_peripheral/Source\gd32vw55x_qspi.c **** void qspi_disable(void)
 159:C:/Users/stapi/OneDrive/Desktop/GD32VW553/V1_MQTT_OK/GD32VW55X_Wifi_BLE_SDK/GD32VW55x_RELEASE_V1.0.2/MSDK/plf/GD32VW55x_standard_peripheral/Source\gd32vw55x_qspi.c **** {
 160:C:/Users/stapi/OneDrive/Desktop/GD32VW553/V1_MQTT_OK/GD32VW55X_Wifi_BLE_SDK/GD32VW55x_RELEASE_V1.0.2/MSDK/plf/GD32VW55x_standard_peripheral/Source\gd32vw55x_qspi.c ****     QSPI_CTL &= (uint32_t)(~QSPI_CTL_QSPIEN);
 161:C:/Users/stapi/OneDrive/Desktop/GD32VW553/V1_MQTT_OK/GD32VW55X_Wifi_BLE_SDK/GD32VW55x_RELEASE_V1.0.2/MSDK/plf/GD32VW55x_standard_peripheral/Source\gd32vw55x_qspi.c **** }
 162:C:/Users/stapi/OneDrive/Desktop/GD32VW553/V1_MQTT_OK/GD32VW55X_Wifi_BLE_SDK/GD32VW55x_RELEASE_V1.0.2/MSDK/plf/GD32VW55x_standard_peripheral/Source\gd32vw55x_qspi.c **** 
 163:C:/Users/stapi/OneDrive/Desktop/GD32VW553/V1_MQTT_OK/GD32VW55X_Wifi_BLE_SDK/GD32VW55x_RELEASE_V1.0.2/MSDK/plf/GD32VW55x_standard_peripheral/Source\gd32vw55x_qspi.c **** /*!
 164:C:/Users/stapi/OneDrive/Desktop/GD32VW553/V1_MQTT_OK/GD32VW55X_Wifi_BLE_SDK/GD32VW55x_RELEASE_V1.0.2/MSDK/plf/GD32VW55x_standard_peripheral/Source\gd32vw55x_qspi.c ****     \brief      enable QSPI DMA
 165:C:/Users/stapi/OneDrive/Desktop/GD32VW553/V1_MQTT_OK/GD32VW55X_Wifi_BLE_SDK/GD32VW55x_RELEASE_V1.0.2/MSDK/plf/GD32VW55x_standard_peripheral/Source\gd32vw55x_qspi.c ****     \param[in]  none
 166:C:/Users/stapi/OneDrive/Desktop/GD32VW553/V1_MQTT_OK/GD32VW55X_Wifi_BLE_SDK/GD32VW55x_RELEASE_V1.0.2/MSDK/plf/GD32VW55x_standard_peripheral/Source\gd32vw55x_qspi.c ****     \param[out] none
 167:C:/Users/stapi/OneDrive/Desktop/GD32VW553/V1_MQTT_OK/GD32VW55X_Wifi_BLE_SDK/GD32VW55x_RELEASE_V1.0.2/MSDK/plf/GD32VW55x_standard_peripheral/Source\gd32vw55x_qspi.c ****     \retval     none
 168:C:/Users/stapi/OneDrive/Desktop/GD32VW553/V1_MQTT_OK/GD32VW55X_Wifi_BLE_SDK/GD32VW55x_RELEASE_V1.0.2/MSDK/plf/GD32VW55x_standard_peripheral/Source\gd32vw55x_qspi.c **** */
 169:C:/Users/stapi/OneDrive/Desktop/GD32VW553/V1_MQTT_OK/GD32VW55X_Wifi_BLE_SDK/GD32VW55x_RELEASE_V1.0.2/MSDK/plf/GD32VW55x_standard_peripheral/Source\gd32vw55x_qspi.c **** void qspi_dma_enable(void)
 170:C:/Users/stapi/OneDrive/Desktop/GD32VW553/V1_MQTT_OK/GD32VW55X_Wifi_BLE_SDK/GD32VW55x_RELEASE_V1.0.2/MSDK/plf/GD32VW55x_standard_peripheral/Source\gd32vw55x_qspi.c **** {
 171:C:/Users/stapi/OneDrive/Desktop/GD32VW553/V1_MQTT_OK/GD32VW55X_Wifi_BLE_SDK/GD32VW55x_RELEASE_V1.0.2/MSDK/plf/GD32VW55x_standard_peripheral/Source\gd32vw55x_qspi.c ****     QSPI_CTL |= (uint32_t)(QSPI_CTL_DMAEN);
 172:C:/Users/stapi/OneDrive/Desktop/GD32VW553/V1_MQTT_OK/GD32VW55X_Wifi_BLE_SDK/GD32VW55x_RELEASE_V1.0.2/MSDK/plf/GD32VW55x_standard_peripheral/Source\gd32vw55x_qspi.c **** }
 173:C:/Users/stapi/OneDrive/Desktop/GD32VW553/V1_MQTT_OK/GD32VW55X_Wifi_BLE_SDK/GD32VW55x_RELEASE_V1.0.2/MSDK/plf/GD32VW55x_standard_peripheral/Source\gd32vw55x_qspi.c **** 
 174:C:/Users/stapi/OneDrive/Desktop/GD32VW553/V1_MQTT_OK/GD32VW55X_Wifi_BLE_SDK/GD32VW55x_RELEASE_V1.0.2/MSDK/plf/GD32VW55x_standard_peripheral/Source\gd32vw55x_qspi.c **** /*!
 175:C:/Users/stapi/OneDrive/Desktop/GD32VW553/V1_MQTT_OK/GD32VW55X_Wifi_BLE_SDK/GD32VW55x_RELEASE_V1.0.2/MSDK/plf/GD32VW55x_standard_peripheral/Source\gd32vw55x_qspi.c ****     \brief      disable QSPI DMA
 176:C:/Users/stapi/OneDrive/Desktop/GD32VW553/V1_MQTT_OK/GD32VW55X_Wifi_BLE_SDK/GD32VW55x_RELEASE_V1.0.2/MSDK/plf/GD32VW55x_standard_peripheral/Source\gd32vw55x_qspi.c ****     \param[in]  none
 177:C:/Users/stapi/OneDrive/Desktop/GD32VW553/V1_MQTT_OK/GD32VW55X_Wifi_BLE_SDK/GD32VW55x_RELEASE_V1.0.2/MSDK/plf/GD32VW55x_standard_peripheral/Source\gd32vw55x_qspi.c ****     \param[out] none
 178:C:/Users/stapi/OneDrive/Desktop/GD32VW553/V1_MQTT_OK/GD32VW55X_Wifi_BLE_SDK/GD32VW55x_RELEASE_V1.0.2/MSDK/plf/GD32VW55x_standard_peripheral/Source\gd32vw55x_qspi.c ****     \retval     none
 179:C:/Users/stapi/OneDrive/Desktop/GD32VW553/V1_MQTT_OK/GD32VW55X_Wifi_BLE_SDK/GD32VW55x_RELEASE_V1.0.2/MSDK/plf/GD32VW55x_standard_peripheral/Source\gd32vw55x_qspi.c **** */
 180:C:/Users/stapi/OneDrive/Desktop/GD32VW553/V1_MQTT_OK/GD32VW55X_Wifi_BLE_SDK/GD32VW55x_RELEASE_V1.0.2/MSDK/plf/GD32VW55x_standard_peripheral/Source\gd32vw55x_qspi.c **** void qspi_dma_disable(void)
 181:C:/Users/stapi/OneDrive/Desktop/GD32VW553/V1_MQTT_OK/GD32VW55X_Wifi_BLE_SDK/GD32VW55x_RELEASE_V1.0.2/MSDK/plf/GD32VW55x_standard_peripheral/Source\gd32vw55x_qspi.c **** {
 182:C:/Users/stapi/OneDrive/Desktop/GD32VW553/V1_MQTT_OK/GD32VW55X_Wifi_BLE_SDK/GD32VW55x_RELEASE_V1.0.2/MSDK/plf/GD32VW55x_standard_peripheral/Source\gd32vw55x_qspi.c ****     QSPI_CTL &= (uint32_t)(~QSPI_CTL_DMAEN);
 183:C:/Users/stapi/OneDrive/Desktop/GD32VW553/V1_MQTT_OK/GD32VW55X_Wifi_BLE_SDK/GD32VW55x_RELEASE_V1.0.2/MSDK/plf/GD32VW55x_standard_peripheral/Source\gd32vw55x_qspi.c **** }
 184:C:/Users/stapi/OneDrive/Desktop/GD32VW553/V1_MQTT_OK/GD32VW55X_Wifi_BLE_SDK/GD32VW55x_RELEASE_V1.0.2/MSDK/plf/GD32VW55x_standard_peripheral/Source\gd32vw55x_qspi.c **** 
 185:C:/Users/stapi/OneDrive/Desktop/GD32VW553/V1_MQTT_OK/GD32VW55X_Wifi_BLE_SDK/GD32VW55x_RELEASE_V1.0.2/MSDK/plf/GD32VW55x_standard_peripheral/Source\gd32vw55x_qspi.c **** /*!
 186:C:/Users/stapi/OneDrive/Desktop/GD32VW553/V1_MQTT_OK/GD32VW55X_Wifi_BLE_SDK/GD32VW55x_RELEASE_V1.0.2/MSDK/plf/GD32VW55x_standard_peripheral/Source\gd32vw55x_qspi.c ****     \brief      configure QSPI command parameters
 187:C:/Users/stapi/OneDrive/Desktop/GD32VW553/V1_MQTT_OK/GD32VW55X_Wifi_BLE_SDK/GD32VW55x_RELEASE_V1.0.2/MSDK/plf/GD32VW55x_standard_peripheral/Source\gd32vw55x_qspi.c ****     \param[in]  cmd: QSPI command parameter structure
 188:C:/Users/stapi/OneDrive/Desktop/GD32VW553/V1_MQTT_OK/GD32VW55X_Wifi_BLE_SDK/GD32VW55x_RELEASE_V1.0.2/MSDK/plf/GD32VW55x_standard_peripheral/Source\gd32vw55x_qspi.c ****                              and the member values are shown as below:
 189:C:/Users/stapi/OneDrive/Desktop/GD32VW553/V1_MQTT_OK/GD32VW55X_Wifi_BLE_SDK/GD32VW55x_RELEASE_V1.0.2/MSDK/plf/GD32VW55x_standard_peripheral/Source\gd32vw55x_qspi.c ****                   instruction_mode: QSPI_INSTRUCTION_NONE, QSPI_INSTRUCTION_1_LINE,
 190:C:/Users/stapi/OneDrive/Desktop/GD32VW553/V1_MQTT_OK/GD32VW55X_Wifi_BLE_SDK/GD32VW55x_RELEASE_V1.0.2/MSDK/plf/GD32VW55x_standard_peripheral/Source\gd32vw55x_qspi.c ****                                     QSPI_INSTRUCTION_2_LINES, QSPI_INSTRUCTION_4_LINES
 191:C:/Users/stapi/OneDrive/Desktop/GD32VW553/V1_MQTT_OK/GD32VW55X_Wifi_BLE_SDK/GD32VW55x_RELEASE_V1.0.2/MSDK/plf/GD32VW55x_standard_peripheral/Source\gd32vw55x_qspi.c ****                   instruction: reference flash commands description
 192:C:/Users/stapi/OneDrive/Desktop/GD32VW553/V1_MQTT_OK/GD32VW55X_Wifi_BLE_SDK/GD32VW55x_RELEASE_V1.0.2/MSDK/plf/GD32VW55x_standard_peripheral/Source\gd32vw55x_qspi.c ****                   addr_mode: QSPI_ADDR_NONE, QSPI_ADDR_1_LINE, QSPI_ADDR_2_LINES, QSPI_ADDR_4_LINES
 193:C:/Users/stapi/OneDrive/Desktop/GD32VW553/V1_MQTT_OK/GD32VW55X_Wifi_BLE_SDK/GD32VW55x_RELEASE_V1.0.2/MSDK/plf/GD32VW55x_standard_peripheral/Source\gd32vw55x_qspi.c ****                   addr_size: QSPI_ADDR_8_BITS, QSPI_ADDR_16_BITS, QSPI_ADDR_24_BITS, QSPI_ADDR_32_B
 194:C:/Users/stapi/OneDrive/Desktop/GD32VW553/V1_MQTT_OK/GD32VW55X_Wifi_BLE_SDK/GD32VW55x_RELEASE_V1.0.2/MSDK/plf/GD32VW55x_standard_peripheral/Source\gd32vw55x_qspi.c ****                   addr: 0-flash size
 195:C:/Users/stapi/OneDrive/Desktop/GD32VW553/V1_MQTT_OK/GD32VW55X_Wifi_BLE_SDK/GD32VW55x_RELEASE_V1.0.2/MSDK/plf/GD32VW55x_standard_peripheral/Source\gd32vw55x_qspi.c ****                   altebytes_mode: QSPI_ALTE_BYTES_NONE, QSPI_ALTE_BYTES_1_LINE,
 196:C:/Users/stapi/OneDrive/Desktop/GD32VW553/V1_MQTT_OK/GD32VW55X_Wifi_BLE_SDK/GD32VW55x_RELEASE_V1.0.2/MSDK/plf/GD32VW55x_standard_peripheral/Source\gd32vw55x_qspi.c ****                                   QSPI_ALTE_BYTES_2_LINES, QSPI_ALTE_BYTES_4_LINES
 197:C:/Users/stapi/OneDrive/Desktop/GD32VW553/V1_MQTT_OK/GD32VW55X_Wifi_BLE_SDK/GD32VW55x_RELEASE_V1.0.2/MSDK/plf/GD32VW55x_standard_peripheral/Source\gd32vw55x_qspi.c ****                   altebytes_size: QSPI_ALTE_BYTES_8_BITS, QSPI_ALTE_BYTES_16_BITS,
 198:C:/Users/stapi/OneDrive/Desktop/GD32VW553/V1_MQTT_OK/GD32VW55X_Wifi_BLE_SDK/GD32VW55x_RELEASE_V1.0.2/MSDK/plf/GD32VW55x_standard_peripheral/Source\gd32vw55x_qspi.c ****                                   QSPI_ALTE_BYTES_24_BITS, QSPI_ALTE_BYTES_32_BITS
 199:C:/Users/stapi/OneDrive/Desktop/GD32VW553/V1_MQTT_OK/GD32VW55X_Wifi_BLE_SDK/GD32VW55x_RELEASE_V1.0.2/MSDK/plf/GD32VW55x_standard_peripheral/Source\gd32vw55x_qspi.c ****                   altebytes: 0-0xFFFFFFFF
 200:C:/Users/stapi/OneDrive/Desktop/GD32VW553/V1_MQTT_OK/GD32VW55X_Wifi_BLE_SDK/GD32VW55x_RELEASE_V1.0.2/MSDK/plf/GD32VW55x_standard_peripheral/Source\gd32vw55x_qspi.c ****                   dummycycles: between 0 and 31
 201:C:/Users/stapi/OneDrive/Desktop/GD32VW553/V1_MQTT_OK/GD32VW55X_Wifi_BLE_SDK/GD32VW55x_RELEASE_V1.0.2/MSDK/plf/GD32VW55x_standard_peripheral/Source\gd32vw55x_qspi.c ****                   data_mode: QSPI_DATA_NONE, QSPI_DATA_1_LINE, QSPI_DATA_2_LINES, QSPI_DATA_4_LINES
 202:C:/Users/stapi/OneDrive/Desktop/GD32VW553/V1_MQTT_OK/GD32VW55X_Wifi_BLE_SDK/GD32VW55x_RELEASE_V1.0.2/MSDK/plf/GD32VW55x_standard_peripheral/Source\gd32vw55x_qspi.c ****                   data_length: 0-0xFFFFFFFF
 203:C:/Users/stapi/OneDrive/Desktop/GD32VW553/V1_MQTT_OK/GD32VW55X_Wifi_BLE_SDK/GD32VW55x_RELEASE_V1.0.2/MSDK/plf/GD32VW55x_standard_peripheral/Source\gd32vw55x_qspi.c ****                   sioo_mode: QSPI_SIOO_INST_EVERY_CMD, QSPI_SIOO_INST_ONLY_FIRST_CMD
 204:C:/Users/stapi/OneDrive/Desktop/GD32VW553/V1_MQTT_OK/GD32VW55X_Wifi_BLE_SDK/GD32VW55x_RELEASE_V1.0.2/MSDK/plf/GD32VW55x_standard_peripheral/Source\gd32vw55x_qspi.c ****     \param[out] none
 205:C:/Users/stapi/OneDrive/Desktop/GD32VW553/V1_MQTT_OK/GD32VW55X_Wifi_BLE_SDK/GD32VW55x_RELEASE_V1.0.2/MSDK/plf/GD32VW55x_standard_peripheral/Source\gd32vw55x_qspi.c ****     \retval     none
 206:C:/Users/stapi/OneDrive/Desktop/GD32VW553/V1_MQTT_OK/GD32VW55X_Wifi_BLE_SDK/GD32VW55x_RELEASE_V1.0.2/MSDK/plf/GD32VW55x_standard_peripheral/Source\gd32vw55x_qspi.c **** */
 207:C:/Users/stapi/OneDrive/Desktop/GD32VW553/V1_MQTT_OK/GD32VW55X_Wifi_BLE_SDK/GD32VW55x_RELEASE_V1.0.2/MSDK/plf/GD32VW55x_standard_peripheral/Source\gd32vw55x_qspi.c **** void qspi_command_config(qspi_command_struct *cmd)
 208:C:/Users/stapi/OneDrive/Desktop/GD32VW553/V1_MQTT_OK/GD32VW55X_Wifi_BLE_SDK/GD32VW55x_RELEASE_V1.0.2/MSDK/plf/GD32VW55x_standard_peripheral/Source\gd32vw55x_qspi.c **** {
 209:C:/Users/stapi/OneDrive/Desktop/GD32VW553/V1_MQTT_OK/GD32VW55X_Wifi_BLE_SDK/GD32VW55x_RELEASE_V1.0.2/MSDK/plf/GD32VW55x_standard_peripheral/Source\gd32vw55x_qspi.c ****     /* call the configuration function */
 210:C:/Users/stapi/OneDrive/Desktop/GD32VW553/V1_MQTT_OK/GD32VW55X_Wifi_BLE_SDK/GD32VW55x_RELEASE_V1.0.2/MSDK/plf/GD32VW55x_standard_peripheral/Source\gd32vw55x_qspi.c ****     qspi_config(cmd, QSPI_NORMAL_WRITE);
 211:C:/Users/stapi/OneDrive/Desktop/GD32VW553/V1_MQTT_OK/GD32VW55X_Wifi_BLE_SDK/GD32VW55x_RELEASE_V1.0.2/MSDK/plf/GD32VW55x_standard_peripheral/Source\gd32vw55x_qspi.c **** 
 212:C:/Users/stapi/OneDrive/Desktop/GD32VW553/V1_MQTT_OK/GD32VW55X_Wifi_BLE_SDK/GD32VW55x_RELEASE_V1.0.2/MSDK/plf/GD32VW55x_standard_peripheral/Source\gd32vw55x_qspi.c ****     if(cmd->data_mode == QSPI_DATA_NONE) {
 213:C:/Users/stapi/OneDrive/Desktop/GD32VW553/V1_MQTT_OK/GD32VW55X_Wifi_BLE_SDK/GD32VW55x_RELEASE_V1.0.2/MSDK/plf/GD32VW55x_standard_peripheral/Source\gd32vw55x_qspi.c ****         /* when there is no data phase, the transfer start as soon as the configuration is done
 214:C:/Users/stapi/OneDrive/Desktop/GD32VW553/V1_MQTT_OK/GD32VW55X_Wifi_BLE_SDK/GD32VW55x_RELEASE_V1.0.2/MSDK/plf/GD32VW55x_standard_peripheral/Source\gd32vw55x_qspi.c ****         so wait until TC flag is set to go back in idle state */
 215:C:/Users/stapi/OneDrive/Desktop/GD32VW553/V1_MQTT_OK/GD32VW55X_Wifi_BLE_SDK/GD32VW55x_RELEASE_V1.0.2/MSDK/plf/GD32VW55x_standard_peripheral/Source\gd32vw55x_qspi.c ****         while((QSPI_STAT & QSPI_FLAG_TC) == 0U) {
 216:C:/Users/stapi/OneDrive/Desktop/GD32VW553/V1_MQTT_OK/GD32VW55X_Wifi_BLE_SDK/GD32VW55x_RELEASE_V1.0.2/MSDK/plf/GD32VW55x_standard_peripheral/Source\gd32vw55x_qspi.c ****         }
 217:C:/Users/stapi/OneDrive/Desktop/GD32VW553/V1_MQTT_OK/GD32VW55X_Wifi_BLE_SDK/GD32VW55x_RELEASE_V1.0.2/MSDK/plf/GD32VW55x_standard_peripheral/Source\gd32vw55x_qspi.c ****         QSPI_STATC = QSPI_STATC_TCC;
 218:C:/Users/stapi/OneDrive/Desktop/GD32VW553/V1_MQTT_OK/GD32VW55X_Wifi_BLE_SDK/GD32VW55x_RELEASE_V1.0.2/MSDK/plf/GD32VW55x_standard_peripheral/Source\gd32vw55x_qspi.c ****     }
 219:C:/Users/stapi/OneDrive/Desktop/GD32VW553/V1_MQTT_OK/GD32VW55X_Wifi_BLE_SDK/GD32VW55x_RELEASE_V1.0.2/MSDK/plf/GD32VW55x_standard_peripheral/Source\gd32vw55x_qspi.c **** }
 220:C:/Users/stapi/OneDrive/Desktop/GD32VW553/V1_MQTT_OK/GD32VW55X_Wifi_BLE_SDK/GD32VW55x_RELEASE_V1.0.2/MSDK/plf/GD32VW55x_standard_peripheral/Source\gd32vw55x_qspi.c **** 
 221:C:/Users/stapi/OneDrive/Desktop/GD32VW553/V1_MQTT_OK/GD32VW55X_Wifi_BLE_SDK/GD32VW55x_RELEASE_V1.0.2/MSDK/plf/GD32VW55x_standard_peripheral/Source\gd32vw55x_qspi.c **** /*!
 222:C:/Users/stapi/OneDrive/Desktop/GD32VW553/V1_MQTT_OK/GD32VW55X_Wifi_BLE_SDK/GD32VW55x_RELEASE_V1.0.2/MSDK/plf/GD32VW55x_standard_peripheral/Source\gd32vw55x_qspi.c ****     \brief      configure QSPI read polling mode
 223:C:/Users/stapi/OneDrive/Desktop/GD32VW553/V1_MQTT_OK/GD32VW55X_Wifi_BLE_SDK/GD32VW55x_RELEASE_V1.0.2/MSDK/plf/GD32VW55x_standard_peripheral/Source\gd32vw55x_qspi.c ****     \param[in]  cmd: QSPI command parameter structure
 224:C:/Users/stapi/OneDrive/Desktop/GD32VW553/V1_MQTT_OK/GD32VW55X_Wifi_BLE_SDK/GD32VW55x_RELEASE_V1.0.2/MSDK/plf/GD32VW55x_standard_peripheral/Source\gd32vw55x_qspi.c ****                              and the member values are shown as below:
 225:C:/Users/stapi/OneDrive/Desktop/GD32VW553/V1_MQTT_OK/GD32VW55X_Wifi_BLE_SDK/GD32VW55x_RELEASE_V1.0.2/MSDK/plf/GD32VW55x_standard_peripheral/Source\gd32vw55x_qspi.c ****                   instruction_mode: QSPI_INSTRUCTION_NONE, QSPI_INSTRUCTION_1_LINE,
 226:C:/Users/stapi/OneDrive/Desktop/GD32VW553/V1_MQTT_OK/GD32VW55X_Wifi_BLE_SDK/GD32VW55x_RELEASE_V1.0.2/MSDK/plf/GD32VW55x_standard_peripheral/Source\gd32vw55x_qspi.c ****                                     QSPI_INSTRUCTION_2_LINES, QSPI_INSTRUCTION_4_LINES
 227:C:/Users/stapi/OneDrive/Desktop/GD32VW553/V1_MQTT_OK/GD32VW55X_Wifi_BLE_SDK/GD32VW55x_RELEASE_V1.0.2/MSDK/plf/GD32VW55x_standard_peripheral/Source\gd32vw55x_qspi.c ****                   instruction: reference flash commands description
 228:C:/Users/stapi/OneDrive/Desktop/GD32VW553/V1_MQTT_OK/GD32VW55X_Wifi_BLE_SDK/GD32VW55x_RELEASE_V1.0.2/MSDK/plf/GD32VW55x_standard_peripheral/Source\gd32vw55x_qspi.c ****                   addr_mode: QSPI_ADDR_NONE, QSPI_ADDR_1_LINE, QSPI_ADDR_2_LINES, QSPI_ADDR_4_LINES
 229:C:/Users/stapi/OneDrive/Desktop/GD32VW553/V1_MQTT_OK/GD32VW55X_Wifi_BLE_SDK/GD32VW55x_RELEASE_V1.0.2/MSDK/plf/GD32VW55x_standard_peripheral/Source\gd32vw55x_qspi.c ****                   addr_size: QSPI_ADDR_8_BITS, QSPI_ADDR_16_BITS, QSPI_ADDR_24_BITS, QSPI_ADDR_32_B
 230:C:/Users/stapi/OneDrive/Desktop/GD32VW553/V1_MQTT_OK/GD32VW55X_Wifi_BLE_SDK/GD32VW55x_RELEASE_V1.0.2/MSDK/plf/GD32VW55x_standard_peripheral/Source\gd32vw55x_qspi.c ****                   addr: 0-flash size
 231:C:/Users/stapi/OneDrive/Desktop/GD32VW553/V1_MQTT_OK/GD32VW55X_Wifi_BLE_SDK/GD32VW55x_RELEASE_V1.0.2/MSDK/plf/GD32VW55x_standard_peripheral/Source\gd32vw55x_qspi.c ****                   altebytes_mode: QSPI_ALTE_BYTES_NONE, QSPI_ALTE_BYTES_1_LINE,
 232:C:/Users/stapi/OneDrive/Desktop/GD32VW553/V1_MQTT_OK/GD32VW55X_Wifi_BLE_SDK/GD32VW55x_RELEASE_V1.0.2/MSDK/plf/GD32VW55x_standard_peripheral/Source\gd32vw55x_qspi.c ****                                   QSPI_ALTE_BYTES_2_LINES, QSPI_ALTE_BYTES_4_LINES
 233:C:/Users/stapi/OneDrive/Desktop/GD32VW553/V1_MQTT_OK/GD32VW55X_Wifi_BLE_SDK/GD32VW55x_RELEASE_V1.0.2/MSDK/plf/GD32VW55x_standard_peripheral/Source\gd32vw55x_qspi.c ****                   altebytes_size: QSPI_ALTE_BYTES_8_BITS, QSPI_ALTE_BYTES_16_BITS,
 234:C:/Users/stapi/OneDrive/Desktop/GD32VW553/V1_MQTT_OK/GD32VW55X_Wifi_BLE_SDK/GD32VW55x_RELEASE_V1.0.2/MSDK/plf/GD32VW55x_standard_peripheral/Source\gd32vw55x_qspi.c ****                                   QSPI_ALTE_BYTES_24_BITS, QSPI_ALTE_BYTES_32_BITS
 235:C:/Users/stapi/OneDrive/Desktop/GD32VW553/V1_MQTT_OK/GD32VW55X_Wifi_BLE_SDK/GD32VW55x_RELEASE_V1.0.2/MSDK/plf/GD32VW55x_standard_peripheral/Source\gd32vw55x_qspi.c ****                   altebytes: 0-0xFFFFFFFF
 236:C:/Users/stapi/OneDrive/Desktop/GD32VW553/V1_MQTT_OK/GD32VW55X_Wifi_BLE_SDK/GD32VW55x_RELEASE_V1.0.2/MSDK/plf/GD32VW55x_standard_peripheral/Source\gd32vw55x_qspi.c ****                   dummycycles: between 0 and 31
 237:C:/Users/stapi/OneDrive/Desktop/GD32VW553/V1_MQTT_OK/GD32VW55X_Wifi_BLE_SDK/GD32VW55x_RELEASE_V1.0.2/MSDK/plf/GD32VW55x_standard_peripheral/Source\gd32vw55x_qspi.c ****                   data_mode: QSPI_DATA_NONE, QSPI_DATA_1_LINE, QSPI_DATA_2_LINES, QSPI_DATA_4_LINES
 238:C:/Users/stapi/OneDrive/Desktop/GD32VW553/V1_MQTT_OK/GD32VW55X_Wifi_BLE_SDK/GD32VW55x_RELEASE_V1.0.2/MSDK/plf/GD32VW55x_standard_peripheral/Source\gd32vw55x_qspi.c ****                   data_length: 0-0xFFFFFFFF
 239:C:/Users/stapi/OneDrive/Desktop/GD32VW553/V1_MQTT_OK/GD32VW55X_Wifi_BLE_SDK/GD32VW55x_RELEASE_V1.0.2/MSDK/plf/GD32VW55x_standard_peripheral/Source\gd32vw55x_qspi.c ****                   sioo_mode: QSPI_SIOO_INST_EVERY_CMD, QSPI_SIOO_INST_ONLY_FIRST_CMD
 240:C:/Users/stapi/OneDrive/Desktop/GD32VW553/V1_MQTT_OK/GD32VW55X_Wifi_BLE_SDK/GD32VW55x_RELEASE_V1.0.2/MSDK/plf/GD32VW55x_standard_peripheral/Source\gd32vw55x_qspi.c ****     \param[in]  cfg: QSPI read polling parameter structure
 241:C:/Users/stapi/OneDrive/Desktop/GD32VW553/V1_MQTT_OK/GD32VW55X_Wifi_BLE_SDK/GD32VW55x_RELEASE_V1.0.2/MSDK/plf/GD32VW55x_standard_peripheral/Source\gd32vw55x_qspi.c ****                              and the member values are shown as below:
 242:C:/Users/stapi/OneDrive/Desktop/GD32VW553/V1_MQTT_OK/GD32VW55X_Wifi_BLE_SDK/GD32VW55x_RELEASE_V1.0.2/MSDK/plf/GD32VW55x_standard_peripheral/Source\gd32vw55x_qspi.c ****                   match: between 0 and 0xFFFFFFFF
 243:C:/Users/stapi/OneDrive/Desktop/GD32VW553/V1_MQTT_OK/GD32VW55X_Wifi_BLE_SDK/GD32VW55x_RELEASE_V1.0.2/MSDK/plf/GD32VW55x_standard_peripheral/Source\gd32vw55x_qspi.c ****                   mask: between 0 and 0xFFFFFFFF
 244:C:/Users/stapi/OneDrive/Desktop/GD32VW553/V1_MQTT_OK/GD32VW55X_Wifi_BLE_SDK/GD32VW55x_RELEASE_V1.0.2/MSDK/plf/GD32VW55x_standard_peripheral/Source\gd32vw55x_qspi.c ****                   interval: between 0 and 0xFFFF
 245:C:/Users/stapi/OneDrive/Desktop/GD32VW553/V1_MQTT_OK/GD32VW55X_Wifi_BLE_SDK/GD32VW55x_RELEASE_V1.0.2/MSDK/plf/GD32VW55x_standard_peripheral/Source\gd32vw55x_qspi.c ****                   statusbytes_size: between 1 and 4
 246:C:/Users/stapi/OneDrive/Desktop/GD32VW553/V1_MQTT_OK/GD32VW55X_Wifi_BLE_SDK/GD32VW55x_RELEASE_V1.0.2/MSDK/plf/GD32VW55x_standard_peripheral/Source\gd32vw55x_qspi.c ****                   match_mode: QSPI_MATCH_MODE_AND, QSPI_MATCH_MODE_OR
 247:C:/Users/stapi/OneDrive/Desktop/GD32VW553/V1_MQTT_OK/GD32VW55X_Wifi_BLE_SDK/GD32VW55x_RELEASE_V1.0.2/MSDK/plf/GD32VW55x_standard_peripheral/Source\gd32vw55x_qspi.c ****                   polling_stop: QSPI_POLLING_STOP_DISABLE,QSPI_POLLING_STOP_ENABLE
 248:C:/Users/stapi/OneDrive/Desktop/GD32VW553/V1_MQTT_OK/GD32VW55X_Wifi_BLE_SDK/GD32VW55x_RELEASE_V1.0.2/MSDK/plf/GD32VW55x_standard_peripheral/Source\gd32vw55x_qspi.c ****     \param[out] none
 249:C:/Users/stapi/OneDrive/Desktop/GD32VW553/V1_MQTT_OK/GD32VW55X_Wifi_BLE_SDK/GD32VW55x_RELEASE_V1.0.2/MSDK/plf/GD32VW55x_standard_peripheral/Source\gd32vw55x_qspi.c ****     \retval     none
 250:C:/Users/stapi/OneDrive/Desktop/GD32VW553/V1_MQTT_OK/GD32VW55X_Wifi_BLE_SDK/GD32VW55x_RELEASE_V1.0.2/MSDK/plf/GD32VW55x_standard_peripheral/Source\gd32vw55x_qspi.c **** */
 251:C:/Users/stapi/OneDrive/Desktop/GD32VW553/V1_MQTT_OK/GD32VW55X_Wifi_BLE_SDK/GD32VW55x_RELEASE_V1.0.2/MSDK/plf/GD32VW55x_standard_peripheral/Source\gd32vw55x_qspi.c **** void qspi_polling_config(qspi_command_struct *cmd, qspi_polling_struct *cfg)
 252:C:/Users/stapi/OneDrive/Desktop/GD32VW553/V1_MQTT_OK/GD32VW55X_Wifi_BLE_SDK/GD32VW55x_RELEASE_V1.0.2/MSDK/plf/GD32VW55x_standard_peripheral/Source\gd32vw55x_qspi.c **** {
 253:C:/Users/stapi/OneDrive/Desktop/GD32VW553/V1_MQTT_OK/GD32VW55X_Wifi_BLE_SDK/GD32VW55x_RELEASE_V1.0.2/MSDK/plf/GD32VW55x_standard_peripheral/Source\gd32vw55x_qspi.c ****     /* configure the match value */
 254:C:/Users/stapi/OneDrive/Desktop/GD32VW553/V1_MQTT_OK/GD32VW55X_Wifi_BLE_SDK/GD32VW55x_RELEASE_V1.0.2/MSDK/plf/GD32VW55x_standard_peripheral/Source\gd32vw55x_qspi.c ****     QSPI_STATMATCH = cfg->match;
 255:C:/Users/stapi/OneDrive/Desktop/GD32VW553/V1_MQTT_OK/GD32VW55X_Wifi_BLE_SDK/GD32VW55x_RELEASE_V1.0.2/MSDK/plf/GD32VW55x_standard_peripheral/Source\gd32vw55x_qspi.c ****     /* configure the mask value */
 256:C:/Users/stapi/OneDrive/Desktop/GD32VW553/V1_MQTT_OK/GD32VW55X_Wifi_BLE_SDK/GD32VW55x_RELEASE_V1.0.2/MSDK/plf/GD32VW55x_standard_peripheral/Source\gd32vw55x_qspi.c ****     QSPI_STATMK = cfg->mask;
 257:C:/Users/stapi/OneDrive/Desktop/GD32VW553/V1_MQTT_OK/GD32VW55X_Wifi_BLE_SDK/GD32VW55x_RELEASE_V1.0.2/MSDK/plf/GD32VW55x_standard_peripheral/Source\gd32vw55x_qspi.c ****     /* configure the interval cycle */
 258:C:/Users/stapi/OneDrive/Desktop/GD32VW553/V1_MQTT_OK/GD32VW55X_Wifi_BLE_SDK/GD32VW55x_RELEASE_V1.0.2/MSDK/plf/GD32VW55x_standard_peripheral/Source\gd32vw55x_qspi.c ****     QSPI_INTERVAL = cfg->interval;
 259:C:/Users/stapi/OneDrive/Desktop/GD32VW553/V1_MQTT_OK/GD32VW55X_Wifi_BLE_SDK/GD32VW55x_RELEASE_V1.0.2/MSDK/plf/GD32VW55x_standard_peripheral/Source\gd32vw55x_qspi.c ****     /* configure the read polling match mode and read polling mode stop */
 260:C:/Users/stapi/OneDrive/Desktop/GD32VW553/V1_MQTT_OK/GD32VW55X_Wifi_BLE_SDK/GD32VW55x_RELEASE_V1.0.2/MSDK/plf/GD32VW55x_standard_peripheral/Source\gd32vw55x_qspi.c ****     QSPI_CTL &= ~(QSPI_CTL_RPMS | QSPI_CTL_RPMM);
 261:C:/Users/stapi/OneDrive/Desktop/GD32VW553/V1_MQTT_OK/GD32VW55X_Wifi_BLE_SDK/GD32VW55x_RELEASE_V1.0.2/MSDK/plf/GD32VW55x_standard_peripheral/Source\gd32vw55x_qspi.c ****     QSPI_CTL |= (cfg->match_mode | cfg->polling_stop);
 262:C:/Users/stapi/OneDrive/Desktop/GD32VW553/V1_MQTT_OK/GD32VW55X_Wifi_BLE_SDK/GD32VW55x_RELEASE_V1.0.2/MSDK/plf/GD32VW55x_standard_peripheral/Source\gd32vw55x_qspi.c **** 
 263:C:/Users/stapi/OneDrive/Desktop/GD32VW553/V1_MQTT_OK/GD32VW55X_Wifi_BLE_SDK/GD32VW55x_RELEASE_V1.0.2/MSDK/plf/GD32VW55x_standard_peripheral/Source\gd32vw55x_qspi.c ****     cmd->data_length = cfg->statusbytes_size;
 264:C:/Users/stapi/OneDrive/Desktop/GD32VW553/V1_MQTT_OK/GD32VW55X_Wifi_BLE_SDK/GD32VW55x_RELEASE_V1.0.2/MSDK/plf/GD32VW55x_standard_peripheral/Source\gd32vw55x_qspi.c ****     qspi_config(cmd, QSPI_READ_POLLING);
 265:C:/Users/stapi/OneDrive/Desktop/GD32VW553/V1_MQTT_OK/GD32VW55X_Wifi_BLE_SDK/GD32VW55x_RELEASE_V1.0.2/MSDK/plf/GD32VW55x_standard_peripheral/Source\gd32vw55x_qspi.c **** }
 266:C:/Users/stapi/OneDrive/Desktop/GD32VW553/V1_MQTT_OK/GD32VW55X_Wifi_BLE_SDK/GD32VW55x_RELEASE_V1.0.2/MSDK/plf/GD32VW55x_standard_peripheral/Source\gd32vw55x_qspi.c **** 
 267:C:/Users/stapi/OneDrive/Desktop/GD32VW553/V1_MQTT_OK/GD32VW55X_Wifi_BLE_SDK/GD32VW55x_RELEASE_V1.0.2/MSDK/plf/GD32VW55x_standard_peripheral/Source\gd32vw55x_qspi.c **** /*!
 268:C:/Users/stapi/OneDrive/Desktop/GD32VW553/V1_MQTT_OK/GD32VW55X_Wifi_BLE_SDK/GD32VW55x_RELEASE_V1.0.2/MSDK/plf/GD32VW55x_standard_peripheral/Source\gd32vw55x_qspi.c ****     \brief      configure QSPI memory mapped mode
 269:C:/Users/stapi/OneDrive/Desktop/GD32VW553/V1_MQTT_OK/GD32VW55X_Wifi_BLE_SDK/GD32VW55x_RELEASE_V1.0.2/MSDK/plf/GD32VW55x_standard_peripheral/Source\gd32vw55x_qspi.c ****     \param[in]  cmd: QSPI command parameter structure
 270:C:/Users/stapi/OneDrive/Desktop/GD32VW553/V1_MQTT_OK/GD32VW55X_Wifi_BLE_SDK/GD32VW55x_RELEASE_V1.0.2/MSDK/plf/GD32VW55x_standard_peripheral/Source\gd32vw55x_qspi.c ****                              and the member values are shown as below:
 271:C:/Users/stapi/OneDrive/Desktop/GD32VW553/V1_MQTT_OK/GD32VW55X_Wifi_BLE_SDK/GD32VW55x_RELEASE_V1.0.2/MSDK/plf/GD32VW55x_standard_peripheral/Source\gd32vw55x_qspi.c ****                   instruction_mode: QSPI_INSTRUCTION_NONE, QSPI_INSTRUCTION_1_LINE,
 272:C:/Users/stapi/OneDrive/Desktop/GD32VW553/V1_MQTT_OK/GD32VW55X_Wifi_BLE_SDK/GD32VW55x_RELEASE_V1.0.2/MSDK/plf/GD32VW55x_standard_peripheral/Source\gd32vw55x_qspi.c ****                                     QSPI_INSTRUCTION_2_LINES, QSPI_INSTRUCTION_4_LINES
 273:C:/Users/stapi/OneDrive/Desktop/GD32VW553/V1_MQTT_OK/GD32VW55X_Wifi_BLE_SDK/GD32VW55x_RELEASE_V1.0.2/MSDK/plf/GD32VW55x_standard_peripheral/Source\gd32vw55x_qspi.c ****                   instruction: reference flash commands description
 274:C:/Users/stapi/OneDrive/Desktop/GD32VW553/V1_MQTT_OK/GD32VW55X_Wifi_BLE_SDK/GD32VW55x_RELEASE_V1.0.2/MSDK/plf/GD32VW55x_standard_peripheral/Source\gd32vw55x_qspi.c ****                   addr_mode: QSPI_ADDR_NONE, QSPI_ADDR_1_LINE, QSPI_ADDR_2_LINES, QSPI_ADDR_4_LINES
 275:C:/Users/stapi/OneDrive/Desktop/GD32VW553/V1_MQTT_OK/GD32VW55X_Wifi_BLE_SDK/GD32VW55x_RELEASE_V1.0.2/MSDK/plf/GD32VW55x_standard_peripheral/Source\gd32vw55x_qspi.c ****                   addr_size: QSPI_ADDR_8_BITS, QSPI_ADDR_16_BITS, QSPI_ADDR_24_BITS, QSPI_ADDR_32_B
 276:C:/Users/stapi/OneDrive/Desktop/GD32VW553/V1_MQTT_OK/GD32VW55X_Wifi_BLE_SDK/GD32VW55x_RELEASE_V1.0.2/MSDK/plf/GD32VW55x_standard_peripheral/Source\gd32vw55x_qspi.c ****                   addr: 0-flash size
 277:C:/Users/stapi/OneDrive/Desktop/GD32VW553/V1_MQTT_OK/GD32VW55X_Wifi_BLE_SDK/GD32VW55x_RELEASE_V1.0.2/MSDK/plf/GD32VW55x_standard_peripheral/Source\gd32vw55x_qspi.c ****                   altebytes_mode: QSPI_ALTE_BYTES_NONE, QSPI_ALTE_BYTES_1_LINE,
 278:C:/Users/stapi/OneDrive/Desktop/GD32VW553/V1_MQTT_OK/GD32VW55X_Wifi_BLE_SDK/GD32VW55x_RELEASE_V1.0.2/MSDK/plf/GD32VW55x_standard_peripheral/Source\gd32vw55x_qspi.c ****                                   QSPI_ALTE_BYTES_2_LINES, QSPI_ALTE_BYTES_4_LINES
 279:C:/Users/stapi/OneDrive/Desktop/GD32VW553/V1_MQTT_OK/GD32VW55X_Wifi_BLE_SDK/GD32VW55x_RELEASE_V1.0.2/MSDK/plf/GD32VW55x_standard_peripheral/Source\gd32vw55x_qspi.c ****                   altebytes_size: QSPI_ALTE_BYTES_8_BITS, QSPI_ALTE_BYTES_16_BITS,
 280:C:/Users/stapi/OneDrive/Desktop/GD32VW553/V1_MQTT_OK/GD32VW55X_Wifi_BLE_SDK/GD32VW55x_RELEASE_V1.0.2/MSDK/plf/GD32VW55x_standard_peripheral/Source\gd32vw55x_qspi.c ****                                   QSPI_ALTE_BYTES_24_BITS, QSPI_ALTE_BYTES_32_BITS
 281:C:/Users/stapi/OneDrive/Desktop/GD32VW553/V1_MQTT_OK/GD32VW55X_Wifi_BLE_SDK/GD32VW55x_RELEASE_V1.0.2/MSDK/plf/GD32VW55x_standard_peripheral/Source\gd32vw55x_qspi.c ****                   altebytes: 0-0xFFFFFFFF
 282:C:/Users/stapi/OneDrive/Desktop/GD32VW553/V1_MQTT_OK/GD32VW55X_Wifi_BLE_SDK/GD32VW55x_RELEASE_V1.0.2/MSDK/plf/GD32VW55x_standard_peripheral/Source\gd32vw55x_qspi.c ****                   dummycycles: between 0 and 31
 283:C:/Users/stapi/OneDrive/Desktop/GD32VW553/V1_MQTT_OK/GD32VW55X_Wifi_BLE_SDK/GD32VW55x_RELEASE_V1.0.2/MSDK/plf/GD32VW55x_standard_peripheral/Source\gd32vw55x_qspi.c ****                   data_mode: QSPI_DATA_NONE, QSPI_DATA_1_LINE, QSPI_DATA_2_LINES, QSPI_DATA_4_LINES
 284:C:/Users/stapi/OneDrive/Desktop/GD32VW553/V1_MQTT_OK/GD32VW55X_Wifi_BLE_SDK/GD32VW55x_RELEASE_V1.0.2/MSDK/plf/GD32VW55x_standard_peripheral/Source\gd32vw55x_qspi.c ****                   data_length: 0-0xFFFFFFFF
 285:C:/Users/stapi/OneDrive/Desktop/GD32VW553/V1_MQTT_OK/GD32VW55X_Wifi_BLE_SDK/GD32VW55x_RELEASE_V1.0.2/MSDK/plf/GD32VW55x_standard_peripheral/Source\gd32vw55x_qspi.c ****                   sioo_mode: QSPI_SIOO_INST_EVERY_CMD, QSPI_SIOO_INST_ONLY_FIRST_CMD
 286:C:/Users/stapi/OneDrive/Desktop/GD32VW553/V1_MQTT_OK/GD32VW55X_Wifi_BLE_SDK/GD32VW55x_RELEASE_V1.0.2/MSDK/plf/GD32VW55x_standard_peripheral/Source\gd32vw55x_qspi.c ****     \param[in]  timeout: 0-0xFFFF
 287:C:/Users/stapi/OneDrive/Desktop/GD32VW553/V1_MQTT_OK/GD32VW55X_Wifi_BLE_SDK/GD32VW55x_RELEASE_V1.0.2/MSDK/plf/GD32VW55x_standard_peripheral/Source\gd32vw55x_qspi.c ****     \param[in]  toen:
 288:C:/Users/stapi/OneDrive/Desktop/GD32VW553/V1_MQTT_OK/GD32VW55X_Wifi_BLE_SDK/GD32VW55x_RELEASE_V1.0.2/MSDK/plf/GD32VW55x_standard_peripheral/Source\gd32vw55x_qspi.c ****       \arg        QSPI_TMOUT_DISABLE: disable timeout counter
 289:C:/Users/stapi/OneDrive/Desktop/GD32VW553/V1_MQTT_OK/GD32VW55X_Wifi_BLE_SDK/GD32VW55x_RELEASE_V1.0.2/MSDK/plf/GD32VW55x_standard_peripheral/Source\gd32vw55x_qspi.c ****       \arg        QSPI_TMOUT_ENABLE: enable timeout counter
 290:C:/Users/stapi/OneDrive/Desktop/GD32VW553/V1_MQTT_OK/GD32VW55X_Wifi_BLE_SDK/GD32VW55x_RELEASE_V1.0.2/MSDK/plf/GD32VW55x_standard_peripheral/Source\gd32vw55x_qspi.c ****     \param[out] none
 291:C:/Users/stapi/OneDrive/Desktop/GD32VW553/V1_MQTT_OK/GD32VW55X_Wifi_BLE_SDK/GD32VW55x_RELEASE_V1.0.2/MSDK/plf/GD32VW55x_standard_peripheral/Source\gd32vw55x_qspi.c ****     \retval     none
 292:C:/Users/stapi/OneDrive/Desktop/GD32VW553/V1_MQTT_OK/GD32VW55X_Wifi_BLE_SDK/GD32VW55x_RELEASE_V1.0.2/MSDK/plf/GD32VW55x_standard_peripheral/Source\gd32vw55x_qspi.c **** */
 293:C:/Users/stapi/OneDrive/Desktop/GD32VW553/V1_MQTT_OK/GD32VW55X_Wifi_BLE_SDK/GD32VW55x_RELEASE_V1.0.2/MSDK/plf/GD32VW55x_standard_peripheral/Source\gd32vw55x_qspi.c **** void qspi_memorymapped_config(qspi_command_struct *cmd, uint16_t timeout, uint32_t toen)
 294:C:/Users/stapi/OneDrive/Desktop/GD32VW553/V1_MQTT_OK/GD32VW55X_Wifi_BLE_SDK/GD32VW55x_RELEASE_V1.0.2/MSDK/plf/GD32VW55x_standard_peripheral/Source\gd32vw55x_qspi.c **** {
 295:C:/Users/stapi/OneDrive/Desktop/GD32VW553/V1_MQTT_OK/GD32VW55X_Wifi_BLE_SDK/GD32VW55x_RELEASE_V1.0.2/MSDK/plf/GD32VW55x_standard_peripheral/Source\gd32vw55x_qspi.c ****     /* enable timeout */
 296:C:/Users/stapi/OneDrive/Desktop/GD32VW553/V1_MQTT_OK/GD32VW55X_Wifi_BLE_SDK/GD32VW55x_RELEASE_V1.0.2/MSDK/plf/GD32VW55x_standard_peripheral/Source\gd32vw55x_qspi.c ****     QSPI_CTL &= ~QSPI_CTL_TMOUTEN;
 297:C:/Users/stapi/OneDrive/Desktop/GD32VW553/V1_MQTT_OK/GD32VW55X_Wifi_BLE_SDK/GD32VW55x_RELEASE_V1.0.2/MSDK/plf/GD32VW55x_standard_peripheral/Source\gd32vw55x_qspi.c ****     QSPI_CTL |= toen;
 298:C:/Users/stapi/OneDrive/Desktop/GD32VW553/V1_MQTT_OK/GD32VW55X_Wifi_BLE_SDK/GD32VW55x_RELEASE_V1.0.2/MSDK/plf/GD32VW55x_standard_peripheral/Source\gd32vw55x_qspi.c **** 
 299:C:/Users/stapi/OneDrive/Desktop/GD32VW553/V1_MQTT_OK/GD32VW55X_Wifi_BLE_SDK/GD32VW55x_RELEASE_V1.0.2/MSDK/plf/GD32VW55x_standard_peripheral/Source\gd32vw55x_qspi.c ****     if(toen == QSPI_CTL_TMOUTEN) {
 300:C:/Users/stapi/OneDrive/Desktop/GD32VW553/V1_MQTT_OK/GD32VW55X_Wifi_BLE_SDK/GD32VW55x_RELEASE_V1.0.2/MSDK/plf/GD32VW55x_standard_peripheral/Source\gd32vw55x_qspi.c ****         /* configure the timeout value */
 301:C:/Users/stapi/OneDrive/Desktop/GD32VW553/V1_MQTT_OK/GD32VW55X_Wifi_BLE_SDK/GD32VW55x_RELEASE_V1.0.2/MSDK/plf/GD32VW55x_standard_peripheral/Source\gd32vw55x_qspi.c ****         QSPI_TMOUT = timeout;
 302:C:/Users/stapi/OneDrive/Desktop/GD32VW553/V1_MQTT_OK/GD32VW55X_Wifi_BLE_SDK/GD32VW55x_RELEASE_V1.0.2/MSDK/plf/GD32VW55x_standard_peripheral/Source\gd32vw55x_qspi.c ****         QSPI_STATC = QSPI_STATC_TMOUTC;
 303:C:/Users/stapi/OneDrive/Desktop/GD32VW553/V1_MQTT_OK/GD32VW55X_Wifi_BLE_SDK/GD32VW55x_RELEASE_V1.0.2/MSDK/plf/GD32VW55x_standard_peripheral/Source\gd32vw55x_qspi.c ****         /* enable the QSPI timeout interrupt */
 304:C:/Users/stapi/OneDrive/Desktop/GD32VW553/V1_MQTT_OK/GD32VW55X_Wifi_BLE_SDK/GD32VW55x_RELEASE_V1.0.2/MSDK/plf/GD32VW55x_standard_peripheral/Source\gd32vw55x_qspi.c ****         QSPI_CTL |= QSPI_CTL_TMOUTIE;
 305:C:/Users/stapi/OneDrive/Desktop/GD32VW553/V1_MQTT_OK/GD32VW55X_Wifi_BLE_SDK/GD32VW55x_RELEASE_V1.0.2/MSDK/plf/GD32VW55x_standard_peripheral/Source\gd32vw55x_qspi.c ****     }
 306:C:/Users/stapi/OneDrive/Desktop/GD32VW553/V1_MQTT_OK/GD32VW55X_Wifi_BLE_SDK/GD32VW55x_RELEASE_V1.0.2/MSDK/plf/GD32VW55x_standard_peripheral/Source\gd32vw55x_qspi.c ****     qspi_config(cmd, QSPI_MEMORY_MAPPED);
 307:C:/Users/stapi/OneDrive/Desktop/GD32VW553/V1_MQTT_OK/GD32VW55X_Wifi_BLE_SDK/GD32VW55x_RELEASE_V1.0.2/MSDK/plf/GD32VW55x_standard_peripheral/Source\gd32vw55x_qspi.c **** }
 308:C:/Users/stapi/OneDrive/Desktop/GD32VW553/V1_MQTT_OK/GD32VW55X_Wifi_BLE_SDK/GD32VW55x_RELEASE_V1.0.2/MSDK/plf/GD32VW55x_standard_peripheral/Source\gd32vw55x_qspi.c **** 
 309:C:/Users/stapi/OneDrive/Desktop/GD32VW553/V1_MQTT_OK/GD32VW55X_Wifi_BLE_SDK/GD32VW55x_RELEASE_V1.0.2/MSDK/plf/GD32VW55x_standard_peripheral/Source\gd32vw55x_qspi.c **** /*!
 310:C:/Users/stapi/OneDrive/Desktop/GD32VW553/V1_MQTT_OK/GD32VW55X_Wifi_BLE_SDK/GD32VW55x_RELEASE_V1.0.2/MSDK/plf/GD32VW55x_standard_peripheral/Source\gd32vw55x_qspi.c ****     \brief      QSPI transmit data function
 311:C:/Users/stapi/OneDrive/Desktop/GD32VW553/V1_MQTT_OK/GD32VW55X_Wifi_BLE_SDK/GD32VW55x_RELEASE_V1.0.2/MSDK/plf/GD32VW55x_standard_peripheral/Source\gd32vw55x_qspi.c ****     \param[in]  tdata: pointer to the data to be transmitted
 312:C:/Users/stapi/OneDrive/Desktop/GD32VW553/V1_MQTT_OK/GD32VW55X_Wifi_BLE_SDK/GD32VW55x_RELEASE_V1.0.2/MSDK/plf/GD32VW55x_standard_peripheral/Source\gd32vw55x_qspi.c ****     \param[out] none
 313:C:/Users/stapi/OneDrive/Desktop/GD32VW553/V1_MQTT_OK/GD32VW55X_Wifi_BLE_SDK/GD32VW55x_RELEASE_V1.0.2/MSDK/plf/GD32VW55x_standard_peripheral/Source\gd32vw55x_qspi.c ****     \retval     none
 314:C:/Users/stapi/OneDrive/Desktop/GD32VW553/V1_MQTT_OK/GD32VW55X_Wifi_BLE_SDK/GD32VW55x_RELEASE_V1.0.2/MSDK/plf/GD32VW55x_standard_peripheral/Source\gd32vw55x_qspi.c **** */
 315:C:/Users/stapi/OneDrive/Desktop/GD32VW553/V1_MQTT_OK/GD32VW55X_Wifi_BLE_SDK/GD32VW55x_RELEASE_V1.0.2/MSDK/plf/GD32VW55x_standard_peripheral/Source\gd32vw55x_qspi.c **** void qspi_data_transmit(uint8_t *tdata)
 316:C:/Users/stapi/OneDrive/Desktop/GD32VW553/V1_MQTT_OK/GD32VW55X_Wifi_BLE_SDK/GD32VW55x_RELEASE_V1.0.2/MSDK/plf/GD32VW55x_standard_peripheral/Source\gd32vw55x_qspi.c **** {
 317:C:/Users/stapi/OneDrive/Desktop/GD32VW553/V1_MQTT_OK/GD32VW55X_Wifi_BLE_SDK/GD32VW55x_RELEASE_V1.0.2/MSDK/plf/GD32VW55x_standard_peripheral/Source\gd32vw55x_qspi.c ****     uint32_t tx_cnt;
 318:C:/Users/stapi/OneDrive/Desktop/GD32VW553/V1_MQTT_OK/GD32VW55X_Wifi_BLE_SDK/GD32VW55x_RELEASE_V1.0.2/MSDK/plf/GD32VW55x_standard_peripheral/Source\gd32vw55x_qspi.c **** 
 319:C:/Users/stapi/OneDrive/Desktop/GD32VW553/V1_MQTT_OK/GD32VW55X_Wifi_BLE_SDK/GD32VW55x_RELEASE_V1.0.2/MSDK/plf/GD32VW55x_standard_peripheral/Source\gd32vw55x_qspi.c ****     tx_cnt = QSPI_DTLEN + 1U;
 320:C:/Users/stapi/OneDrive/Desktop/GD32VW553/V1_MQTT_OK/GD32VW55X_Wifi_BLE_SDK/GD32VW55x_RELEASE_V1.0.2/MSDK/plf/GD32VW55x_standard_peripheral/Source\gd32vw55x_qspi.c **** 
 321:C:/Users/stapi/OneDrive/Desktop/GD32VW553/V1_MQTT_OK/GD32VW55X_Wifi_BLE_SDK/GD32VW55x_RELEASE_V1.0.2/MSDK/plf/GD32VW55x_standard_peripheral/Source\gd32vw55x_qspi.c ****     QSPI_TCFG = (QSPI_TCFG & ~QSPI_MEMORY_MAPPED) | QSPI_NORMAL_WRITE;
 322:C:/Users/stapi/OneDrive/Desktop/GD32VW553/V1_MQTT_OK/GD32VW55X_Wifi_BLE_SDK/GD32VW55x_RELEASE_V1.0.2/MSDK/plf/GD32VW55x_standard_peripheral/Source\gd32vw55x_qspi.c **** 
 323:C:/Users/stapi/OneDrive/Desktop/GD32VW553/V1_MQTT_OK/GD32VW55X_Wifi_BLE_SDK/GD32VW55x_RELEASE_V1.0.2/MSDK/plf/GD32VW55x_standard_peripheral/Source\gd32vw55x_qspi.c ****     while(tx_cnt > 0U) {
 324:C:/Users/stapi/OneDrive/Desktop/GD32VW553/V1_MQTT_OK/GD32VW55X_Wifi_BLE_SDK/GD32VW55x_RELEASE_V1.0.2/MSDK/plf/GD32VW55x_standard_peripheral/Source\gd32vw55x_qspi.c ****         while((QSPI_STAT & QSPI_FLAG_FT) == 0U) {
 325:C:/Users/stapi/OneDrive/Desktop/GD32VW553/V1_MQTT_OK/GD32VW55X_Wifi_BLE_SDK/GD32VW55x_RELEASE_V1.0.2/MSDK/plf/GD32VW55x_standard_peripheral/Source\gd32vw55x_qspi.c ****         }
 326:C:/Users/stapi/OneDrive/Desktop/GD32VW553/V1_MQTT_OK/GD32VW55X_Wifi_BLE_SDK/GD32VW55x_RELEASE_V1.0.2/MSDK/plf/GD32VW55x_standard_peripheral/Source\gd32vw55x_qspi.c ****         /* transmit data */
 327:C:/Users/stapi/OneDrive/Desktop/GD32VW553/V1_MQTT_OK/GD32VW55X_Wifi_BLE_SDK/GD32VW55x_RELEASE_V1.0.2/MSDK/plf/GD32VW55x_standard_peripheral/Source\gd32vw55x_qspi.c ****         *(uint8_t *)(QSPI + 0x00000020U) = *tdata++;
 328:C:/Users/stapi/OneDrive/Desktop/GD32VW553/V1_MQTT_OK/GD32VW55X_Wifi_BLE_SDK/GD32VW55x_RELEASE_V1.0.2/MSDK/plf/GD32VW55x_standard_peripheral/Source\gd32vw55x_qspi.c ****         tx_cnt--;
 329:C:/Users/stapi/OneDrive/Desktop/GD32VW553/V1_MQTT_OK/GD32VW55X_Wifi_BLE_SDK/GD32VW55x_RELEASE_V1.0.2/MSDK/plf/GD32VW55x_standard_peripheral/Source\gd32vw55x_qspi.c ****     }
 330:C:/Users/stapi/OneDrive/Desktop/GD32VW553/V1_MQTT_OK/GD32VW55X_Wifi_BLE_SDK/GD32VW55x_RELEASE_V1.0.2/MSDK/plf/GD32VW55x_standard_peripheral/Source\gd32vw55x_qspi.c **** }
 331:C:/Users/stapi/OneDrive/Desktop/GD32VW553/V1_MQTT_OK/GD32VW55X_Wifi_BLE_SDK/GD32VW55x_RELEASE_V1.0.2/MSDK/plf/GD32VW55x_standard_peripheral/Source\gd32vw55x_qspi.c **** 
 332:C:/Users/stapi/OneDrive/Desktop/GD32VW553/V1_MQTT_OK/GD32VW55X_Wifi_BLE_SDK/GD32VW55x_RELEASE_V1.0.2/MSDK/plf/GD32VW55x_standard_peripheral/Source\gd32vw55x_qspi.c **** /*!
 333:C:/Users/stapi/OneDrive/Desktop/GD32VW553/V1_MQTT_OK/GD32VW55X_Wifi_BLE_SDK/GD32VW55x_RELEASE_V1.0.2/MSDK/plf/GD32VW55x_standard_peripheral/Source\gd32vw55x_qspi.c ****     \brief      QSPI receive data function
 334:C:/Users/stapi/OneDrive/Desktop/GD32VW553/V1_MQTT_OK/GD32VW55X_Wifi_BLE_SDK/GD32VW55x_RELEASE_V1.0.2/MSDK/plf/GD32VW55x_standard_peripheral/Source\gd32vw55x_qspi.c ****     \param[in]  none
 335:C:/Users/stapi/OneDrive/Desktop/GD32VW553/V1_MQTT_OK/GD32VW55X_Wifi_BLE_SDK/GD32VW55x_RELEASE_V1.0.2/MSDK/plf/GD32VW55x_standard_peripheral/Source\gd32vw55x_qspi.c ****     \param[out] rdata: pointer to the data to be received
 336:C:/Users/stapi/OneDrive/Desktop/GD32VW553/V1_MQTT_OK/GD32VW55X_Wifi_BLE_SDK/GD32VW55x_RELEASE_V1.0.2/MSDK/plf/GD32VW55x_standard_peripheral/Source\gd32vw55x_qspi.c ****     \retval     none
 337:C:/Users/stapi/OneDrive/Desktop/GD32VW553/V1_MQTT_OK/GD32VW55X_Wifi_BLE_SDK/GD32VW55x_RELEASE_V1.0.2/MSDK/plf/GD32VW55x_standard_peripheral/Source\gd32vw55x_qspi.c **** */
 338:C:/Users/stapi/OneDrive/Desktop/GD32VW553/V1_MQTT_OK/GD32VW55X_Wifi_BLE_SDK/GD32VW55x_RELEASE_V1.0.2/MSDK/plf/GD32VW55x_standard_peripheral/Source\gd32vw55x_qspi.c **** void qspi_data_receive(uint8_t *rdata)
 339:C:/Users/stapi/OneDrive/Desktop/GD32VW553/V1_MQTT_OK/GD32VW55X_Wifi_BLE_SDK/GD32VW55x_RELEASE_V1.0.2/MSDK/plf/GD32VW55x_standard_peripheral/Source\gd32vw55x_qspi.c **** {
 340:C:/Users/stapi/OneDrive/Desktop/GD32VW553/V1_MQTT_OK/GD32VW55X_Wifi_BLE_SDK/GD32VW55x_RELEASE_V1.0.2/MSDK/plf/GD32VW55x_standard_peripheral/Source\gd32vw55x_qspi.c ****     uint32_t rx_cnt, addr;
 341:C:/Users/stapi/OneDrive/Desktop/GD32VW553/V1_MQTT_OK/GD32VW55X_Wifi_BLE_SDK/GD32VW55x_RELEASE_V1.0.2/MSDK/plf/GD32VW55x_standard_peripheral/Source\gd32vw55x_qspi.c **** 
 342:C:/Users/stapi/OneDrive/Desktop/GD32VW553/V1_MQTT_OK/GD32VW55X_Wifi_BLE_SDK/GD32VW55x_RELEASE_V1.0.2/MSDK/plf/GD32VW55x_standard_peripheral/Source\gd32vw55x_qspi.c ****     rx_cnt = QSPI_DTLEN + 1U;
 343:C:/Users/stapi/OneDrive/Desktop/GD32VW553/V1_MQTT_OK/GD32VW55X_Wifi_BLE_SDK/GD32VW55x_RELEASE_V1.0.2/MSDK/plf/GD32VW55x_standard_peripheral/Source\gd32vw55x_qspi.c ****     addr = QSPI_ADDR;
 344:C:/Users/stapi/OneDrive/Desktop/GD32VW553/V1_MQTT_OK/GD32VW55X_Wifi_BLE_SDK/GD32VW55x_RELEASE_V1.0.2/MSDK/plf/GD32VW55x_standard_peripheral/Source\gd32vw55x_qspi.c **** 
 345:C:/Users/stapi/OneDrive/Desktop/GD32VW553/V1_MQTT_OK/GD32VW55X_Wifi_BLE_SDK/GD32VW55x_RELEASE_V1.0.2/MSDK/plf/GD32VW55x_standard_peripheral/Source\gd32vw55x_qspi.c ****     QSPI_TCFG = (QSPI_TCFG & ~QSPI_MEMORY_MAPPED) | QSPI_NORMAL_READ;
 346:C:/Users/stapi/OneDrive/Desktop/GD32VW553/V1_MQTT_OK/GD32VW55X_Wifi_BLE_SDK/GD32VW55x_RELEASE_V1.0.2/MSDK/plf/GD32VW55x_standard_peripheral/Source\gd32vw55x_qspi.c ****     /* start the transfer by re-writing the address in QSPI_ADDR register */
 347:C:/Users/stapi/OneDrive/Desktop/GD32VW553/V1_MQTT_OK/GD32VW55X_Wifi_BLE_SDK/GD32VW55x_RELEASE_V1.0.2/MSDK/plf/GD32VW55x_standard_peripheral/Source\gd32vw55x_qspi.c ****     QSPI_ADDR = addr;
 348:C:/Users/stapi/OneDrive/Desktop/GD32VW553/V1_MQTT_OK/GD32VW55X_Wifi_BLE_SDK/GD32VW55x_RELEASE_V1.0.2/MSDK/plf/GD32VW55x_standard_peripheral/Source\gd32vw55x_qspi.c **** 
 349:C:/Users/stapi/OneDrive/Desktop/GD32VW553/V1_MQTT_OK/GD32VW55X_Wifi_BLE_SDK/GD32VW55x_RELEASE_V1.0.2/MSDK/plf/GD32VW55x_standard_peripheral/Source\gd32vw55x_qspi.c ****     while(rx_cnt > 0U) {
 350:C:/Users/stapi/OneDrive/Desktop/GD32VW553/V1_MQTT_OK/GD32VW55X_Wifi_BLE_SDK/GD32VW55x_RELEASE_V1.0.2/MSDK/plf/GD32VW55x_standard_peripheral/Source\gd32vw55x_qspi.c ****         while((QSPI_STAT & (QSPI_FLAG_FT | QSPI_FLAG_TC)) == 0U) {
 351:C:/Users/stapi/OneDrive/Desktop/GD32VW553/V1_MQTT_OK/GD32VW55X_Wifi_BLE_SDK/GD32VW55x_RELEASE_V1.0.2/MSDK/plf/GD32VW55x_standard_peripheral/Source\gd32vw55x_qspi.c ****         }
 352:C:/Users/stapi/OneDrive/Desktop/GD32VW553/V1_MQTT_OK/GD32VW55X_Wifi_BLE_SDK/GD32VW55x_RELEASE_V1.0.2/MSDK/plf/GD32VW55x_standard_peripheral/Source\gd32vw55x_qspi.c ****         *rdata++ = *(uint8_t *)(QSPI + 0x00000020U);
 353:C:/Users/stapi/OneDrive/Desktop/GD32VW553/V1_MQTT_OK/GD32VW55X_Wifi_BLE_SDK/GD32VW55x_RELEASE_V1.0.2/MSDK/plf/GD32VW55x_standard_peripheral/Source\gd32vw55x_qspi.c ****         rx_cnt--;
 354:C:/Users/stapi/OneDrive/Desktop/GD32VW553/V1_MQTT_OK/GD32VW55X_Wifi_BLE_SDK/GD32VW55x_RELEASE_V1.0.2/MSDK/plf/GD32VW55x_standard_peripheral/Source\gd32vw55x_qspi.c ****     }
 355:C:/Users/stapi/OneDrive/Desktop/GD32VW553/V1_MQTT_OK/GD32VW55X_Wifi_BLE_SDK/GD32VW55x_RELEASE_V1.0.2/MSDK/plf/GD32VW55x_standard_peripheral/Source\gd32vw55x_qspi.c **** }
 356:C:/Users/stapi/OneDrive/Desktop/GD32VW553/V1_MQTT_OK/GD32VW55X_Wifi_BLE_SDK/GD32VW55x_RELEASE_V1.0.2/MSDK/plf/GD32VW55x_standard_peripheral/Source\gd32vw55x_qspi.c **** 
 357:C:/Users/stapi/OneDrive/Desktop/GD32VW553/V1_MQTT_OK/GD32VW55X_Wifi_BLE_SDK/GD32VW55x_RELEASE_V1.0.2/MSDK/plf/GD32VW55x_standard_peripheral/Source\gd32vw55x_qspi.c **** /*!
 358:C:/Users/stapi/OneDrive/Desktop/GD32VW553/V1_MQTT_OK/GD32VW55X_Wifi_BLE_SDK/GD32VW55x_RELEASE_V1.0.2/MSDK/plf/GD32VW55x_standard_peripheral/Source\gd32vw55x_qspi.c ****     \brief      abort the current transmission
 359:C:/Users/stapi/OneDrive/Desktop/GD32VW553/V1_MQTT_OK/GD32VW55X_Wifi_BLE_SDK/GD32VW55x_RELEASE_V1.0.2/MSDK/plf/GD32VW55x_standard_peripheral/Source\gd32vw55x_qspi.c ****     \param[in]  none
 360:C:/Users/stapi/OneDrive/Desktop/GD32VW553/V1_MQTT_OK/GD32VW55X_Wifi_BLE_SDK/GD32VW55x_RELEASE_V1.0.2/MSDK/plf/GD32VW55x_standard_peripheral/Source\gd32vw55x_qspi.c ****     \param[out] none
 361:C:/Users/stapi/OneDrive/Desktop/GD32VW553/V1_MQTT_OK/GD32VW55X_Wifi_BLE_SDK/GD32VW55x_RELEASE_V1.0.2/MSDK/plf/GD32VW55x_standard_peripheral/Source\gd32vw55x_qspi.c ****     \retval     none
 362:C:/Users/stapi/OneDrive/Desktop/GD32VW553/V1_MQTT_OK/GD32VW55X_Wifi_BLE_SDK/GD32VW55x_RELEASE_V1.0.2/MSDK/plf/GD32VW55x_standard_peripheral/Source\gd32vw55x_qspi.c **** */
 363:C:/Users/stapi/OneDrive/Desktop/GD32VW553/V1_MQTT_OK/GD32VW55X_Wifi_BLE_SDK/GD32VW55x_RELEASE_V1.0.2/MSDK/plf/GD32VW55x_standard_peripheral/Source\gd32vw55x_qspi.c **** void qspi_transmission_abort(void)
 364:C:/Users/stapi/OneDrive/Desktop/GD32VW553/V1_MQTT_OK/GD32VW55X_Wifi_BLE_SDK/GD32VW55x_RELEASE_V1.0.2/MSDK/plf/GD32VW55x_standard_peripheral/Source\gd32vw55x_qspi.c **** {
 365:C:/Users/stapi/OneDrive/Desktop/GD32VW553/V1_MQTT_OK/GD32VW55X_Wifi_BLE_SDK/GD32VW55x_RELEASE_V1.0.2/MSDK/plf/GD32VW55x_standard_peripheral/Source\gd32vw55x_qspi.c ****     QSPI_CTL |= QSPI_CTL_ABORT;
 366:C:/Users/stapi/OneDrive/Desktop/GD32VW553/V1_MQTT_OK/GD32VW55X_Wifi_BLE_SDK/GD32VW55x_RELEASE_V1.0.2/MSDK/plf/GD32VW55x_standard_peripheral/Source\gd32vw55x_qspi.c **** }
 367:C:/Users/stapi/OneDrive/Desktop/GD32VW553/V1_MQTT_OK/GD32VW55X_Wifi_BLE_SDK/GD32VW55x_RELEASE_V1.0.2/MSDK/plf/GD32VW55x_standard_peripheral/Source\gd32vw55x_qspi.c **** 
 368:C:/Users/stapi/OneDrive/Desktop/GD32VW553/V1_MQTT_OK/GD32VW55X_Wifi_BLE_SDK/GD32VW55x_RELEASE_V1.0.2/MSDK/plf/GD32VW55x_standard_peripheral/Source\gd32vw55x_qspi.c **** /*!
 369:C:/Users/stapi/OneDrive/Desktop/GD32VW553/V1_MQTT_OK/GD32VW55X_Wifi_BLE_SDK/GD32VW55x_RELEASE_V1.0.2/MSDK/plf/GD32VW55x_standard_peripheral/Source\gd32vw55x_qspi.c ****     \brief      get QSPI flag status
 370:C:/Users/stapi/OneDrive/Desktop/GD32VW553/V1_MQTT_OK/GD32VW55X_Wifi_BLE_SDK/GD32VW55x_RELEASE_V1.0.2/MSDK/plf/GD32VW55x_standard_peripheral/Source\gd32vw55x_qspi.c ****     \param[in]  flag: QSPI flag
 371:C:/Users/stapi/OneDrive/Desktop/GD32VW553/V1_MQTT_OK/GD32VW55X_Wifi_BLE_SDK/GD32VW55x_RELEASE_V1.0.2/MSDK/plf/GD32VW55x_standard_peripheral/Source\gd32vw55x_qspi.c ****                 only one parameter can be selected which are shown as below:
 372:C:/Users/stapi/OneDrive/Desktop/GD32VW553/V1_MQTT_OK/GD32VW55X_Wifi_BLE_SDK/GD32VW55x_RELEASE_V1.0.2/MSDK/plf/GD32VW55x_standard_peripheral/Source\gd32vw55x_qspi.c ****       \arg        QSPI_FLAG_BUSY: busy flag
 373:C:/Users/stapi/OneDrive/Desktop/GD32VW553/V1_MQTT_OK/GD32VW55X_Wifi_BLE_SDK/GD32VW55x_RELEASE_V1.0.2/MSDK/plf/GD32VW55x_standard_peripheral/Source\gd32vw55x_qspi.c ****       \arg        QSPI_FLAG_TERR: transfer error flag
 374:C:/Users/stapi/OneDrive/Desktop/GD32VW553/V1_MQTT_OK/GD32VW55X_Wifi_BLE_SDK/GD32VW55x_RELEASE_V1.0.2/MSDK/plf/GD32VW55x_standard_peripheral/Source\gd32vw55x_qspi.c ****       \arg        QSPI_FLAG_TC: transfer complete flag
 375:C:/Users/stapi/OneDrive/Desktop/GD32VW553/V1_MQTT_OK/GD32VW55X_Wifi_BLE_SDK/GD32VW55x_RELEASE_V1.0.2/MSDK/plf/GD32VW55x_standard_peripheral/Source\gd32vw55x_qspi.c ****       \arg        QSPI_FLAG_FT: FIFO threshold flag
 376:C:/Users/stapi/OneDrive/Desktop/GD32VW553/V1_MQTT_OK/GD32VW55X_Wifi_BLE_SDK/GD32VW55x_RELEASE_V1.0.2/MSDK/plf/GD32VW55x_standard_peripheral/Source\gd32vw55x_qspi.c ****       \arg        QSPI_FLAG_RPMF: read polling match flag
 377:C:/Users/stapi/OneDrive/Desktop/GD32VW553/V1_MQTT_OK/GD32VW55X_Wifi_BLE_SDK/GD32VW55x_RELEASE_V1.0.2/MSDK/plf/GD32VW55x_standard_peripheral/Source\gd32vw55x_qspi.c ****       \arg        QSPI_FLAG_TMOUT: timeout flag
 378:C:/Users/stapi/OneDrive/Desktop/GD32VW553/V1_MQTT_OK/GD32VW55X_Wifi_BLE_SDK/GD32VW55x_RELEASE_V1.0.2/MSDK/plf/GD32VW55x_standard_peripheral/Source\gd32vw55x_qspi.c ****     \param[out] none
 379:C:/Users/stapi/OneDrive/Desktop/GD32VW553/V1_MQTT_OK/GD32VW55X_Wifi_BLE_SDK/GD32VW55x_RELEASE_V1.0.2/MSDK/plf/GD32VW55x_standard_peripheral/Source\gd32vw55x_qspi.c ****     \retval     FlagStatus: SET or RESET
 380:C:/Users/stapi/OneDrive/Desktop/GD32VW553/V1_MQTT_OK/GD32VW55X_Wifi_BLE_SDK/GD32VW55x_RELEASE_V1.0.2/MSDK/plf/GD32VW55x_standard_peripheral/Source\gd32vw55x_qspi.c **** */
 381:C:/Users/stapi/OneDrive/Desktop/GD32VW553/V1_MQTT_OK/GD32VW55X_Wifi_BLE_SDK/GD32VW55x_RELEASE_V1.0.2/MSDK/plf/GD32VW55x_standard_peripheral/Source\gd32vw55x_qspi.c **** FlagStatus qspi_flag_get(uint32_t flag)
 382:C:/Users/stapi/OneDrive/Desktop/GD32VW553/V1_MQTT_OK/GD32VW55X_Wifi_BLE_SDK/GD32VW55x_RELEASE_V1.0.2/MSDK/plf/GD32VW55x_standard_peripheral/Source\gd32vw55x_qspi.c **** {
 383:C:/Users/stapi/OneDrive/Desktop/GD32VW553/V1_MQTT_OK/GD32VW55X_Wifi_BLE_SDK/GD32VW55x_RELEASE_V1.0.2/MSDK/plf/GD32VW55x_standard_peripheral/Source\gd32vw55x_qspi.c ****     if(RESET != (QSPI_STAT & flag)) {
 384:C:/Users/stapi/OneDrive/Desktop/GD32VW553/V1_MQTT_OK/GD32VW55X_Wifi_BLE_SDK/GD32VW55x_RELEASE_V1.0.2/MSDK/plf/GD32VW55x_standard_peripheral/Source\gd32vw55x_qspi.c ****         return SET;
 385:C:/Users/stapi/OneDrive/Desktop/GD32VW553/V1_MQTT_OK/GD32VW55X_Wifi_BLE_SDK/GD32VW55x_RELEASE_V1.0.2/MSDK/plf/GD32VW55x_standard_peripheral/Source\gd32vw55x_qspi.c ****     } else {
 386:C:/Users/stapi/OneDrive/Desktop/GD32VW553/V1_MQTT_OK/GD32VW55X_Wifi_BLE_SDK/GD32VW55x_RELEASE_V1.0.2/MSDK/plf/GD32VW55x_standard_peripheral/Source\gd32vw55x_qspi.c ****         return RESET;
 387:C:/Users/stapi/OneDrive/Desktop/GD32VW553/V1_MQTT_OK/GD32VW55X_Wifi_BLE_SDK/GD32VW55x_RELEASE_V1.0.2/MSDK/plf/GD32VW55x_standard_peripheral/Source\gd32vw55x_qspi.c ****     }
 388:C:/Users/stapi/OneDrive/Desktop/GD32VW553/V1_MQTT_OK/GD32VW55X_Wifi_BLE_SDK/GD32VW55x_RELEASE_V1.0.2/MSDK/plf/GD32VW55x_standard_peripheral/Source\gd32vw55x_qspi.c **** }
 389:C:/Users/stapi/OneDrive/Desktop/GD32VW553/V1_MQTT_OK/GD32VW55X_Wifi_BLE_SDK/GD32VW55x_RELEASE_V1.0.2/MSDK/plf/GD32VW55x_standard_peripheral/Source\gd32vw55x_qspi.c **** 
 390:C:/Users/stapi/OneDrive/Desktop/GD32VW553/V1_MQTT_OK/GD32VW55X_Wifi_BLE_SDK/GD32VW55x_RELEASE_V1.0.2/MSDK/plf/GD32VW55x_standard_peripheral/Source\gd32vw55x_qspi.c **** /*!
 391:C:/Users/stapi/OneDrive/Desktop/GD32VW553/V1_MQTT_OK/GD32VW55X_Wifi_BLE_SDK/GD32VW55x_RELEASE_V1.0.2/MSDK/plf/GD32VW55x_standard_peripheral/Source\gd32vw55x_qspi.c ****     \brief      clear QSPI flag status
 392:C:/Users/stapi/OneDrive/Desktop/GD32VW553/V1_MQTT_OK/GD32VW55X_Wifi_BLE_SDK/GD32VW55x_RELEASE_V1.0.2/MSDK/plf/GD32VW55x_standard_peripheral/Source\gd32vw55x_qspi.c ****     \param[in]  flag: QSPI flag
 393:C:/Users/stapi/OneDrive/Desktop/GD32VW553/V1_MQTT_OK/GD32VW55X_Wifi_BLE_SDK/GD32VW55x_RELEASE_V1.0.2/MSDK/plf/GD32VW55x_standard_peripheral/Source\gd32vw55x_qspi.c ****                 one or more parameters can be selected which are shown as below:
 394:C:/Users/stapi/OneDrive/Desktop/GD32VW553/V1_MQTT_OK/GD32VW55X_Wifi_BLE_SDK/GD32VW55x_RELEASE_V1.0.2/MSDK/plf/GD32VW55x_standard_peripheral/Source\gd32vw55x_qspi.c ****       \arg        QSPI_FLAG_TERR: transfer error flag
 395:C:/Users/stapi/OneDrive/Desktop/GD32VW553/V1_MQTT_OK/GD32VW55X_Wifi_BLE_SDK/GD32VW55x_RELEASE_V1.0.2/MSDK/plf/GD32VW55x_standard_peripheral/Source\gd32vw55x_qspi.c ****       \arg        QSPI_FLAG_TC: transfer complete flag
 396:C:/Users/stapi/OneDrive/Desktop/GD32VW553/V1_MQTT_OK/GD32VW55X_Wifi_BLE_SDK/GD32VW55x_RELEASE_V1.0.2/MSDK/plf/GD32VW55x_standard_peripheral/Source\gd32vw55x_qspi.c ****       \arg        QSPI_FLAG_RPMF: read polling match flag
 397:C:/Users/stapi/OneDrive/Desktop/GD32VW553/V1_MQTT_OK/GD32VW55X_Wifi_BLE_SDK/GD32VW55x_RELEASE_V1.0.2/MSDK/plf/GD32VW55x_standard_peripheral/Source\gd32vw55x_qspi.c ****       \arg        QSPI_FLAG_TMOUT: timeout flag
 398:C:/Users/stapi/OneDrive/Desktop/GD32VW553/V1_MQTT_OK/GD32VW55X_Wifi_BLE_SDK/GD32VW55x_RELEASE_V1.0.2/MSDK/plf/GD32VW55x_standard_peripheral/Source\gd32vw55x_qspi.c ****     \param[out] none
 399:C:/Users/stapi/OneDrive/Desktop/GD32VW553/V1_MQTT_OK/GD32VW55X_Wifi_BLE_SDK/GD32VW55x_RELEASE_V1.0.2/MSDK/plf/GD32VW55x_standard_peripheral/Source\gd32vw55x_qspi.c ****     \retval     none
 400:C:/Users/stapi/OneDrive/Desktop/GD32VW553/V1_MQTT_OK/GD32VW55X_Wifi_BLE_SDK/GD32VW55x_RELEASE_V1.0.2/MSDK/plf/GD32VW55x_standard_peripheral/Source\gd32vw55x_qspi.c **** */
 401:C:/Users/stapi/OneDrive/Desktop/GD32VW553/V1_MQTT_OK/GD32VW55X_Wifi_BLE_SDK/GD32VW55x_RELEASE_V1.0.2/MSDK/plf/GD32VW55x_standard_peripheral/Source\gd32vw55x_qspi.c **** void qspi_flag_clear(uint32_t flag)
 402:C:/Users/stapi/OneDrive/Desktop/GD32VW553/V1_MQTT_OK/GD32VW55X_Wifi_BLE_SDK/GD32VW55x_RELEASE_V1.0.2/MSDK/plf/GD32VW55x_standard_peripheral/Source\gd32vw55x_qspi.c **** {
 403:C:/Users/stapi/OneDrive/Desktop/GD32VW553/V1_MQTT_OK/GD32VW55X_Wifi_BLE_SDK/GD32VW55x_RELEASE_V1.0.2/MSDK/plf/GD32VW55x_standard_peripheral/Source\gd32vw55x_qspi.c ****     QSPI_STATC |= (uint32_t)flag;
 404:C:/Users/stapi/OneDrive/Desktop/GD32VW553/V1_MQTT_OK/GD32VW55X_Wifi_BLE_SDK/GD32VW55x_RELEASE_V1.0.2/MSDK/plf/GD32VW55x_standard_peripheral/Source\gd32vw55x_qspi.c **** }
 405:C:/Users/stapi/OneDrive/Desktop/GD32VW553/V1_MQTT_OK/GD32VW55X_Wifi_BLE_SDK/GD32VW55x_RELEASE_V1.0.2/MSDK/plf/GD32VW55x_standard_peripheral/Source\gd32vw55x_qspi.c **** 
 406:C:/Users/stapi/OneDrive/Desktop/GD32VW553/V1_MQTT_OK/GD32VW55X_Wifi_BLE_SDK/GD32VW55x_RELEASE_V1.0.2/MSDK/plf/GD32VW55x_standard_peripheral/Source\gd32vw55x_qspi.c **** /*!
 407:C:/Users/stapi/OneDrive/Desktop/GD32VW553/V1_MQTT_OK/GD32VW55X_Wifi_BLE_SDK/GD32VW55x_RELEASE_V1.0.2/MSDK/plf/GD32VW55x_standard_peripheral/Source\gd32vw55x_qspi.c ****     \brief      enable QSPI interrupt
 408:C:/Users/stapi/OneDrive/Desktop/GD32VW553/V1_MQTT_OK/GD32VW55X_Wifi_BLE_SDK/GD32VW55x_RELEASE_V1.0.2/MSDK/plf/GD32VW55x_standard_peripheral/Source\gd32vw55x_qspi.c ****     \param[in]  interrupt: QSPI interrupt
 409:C:/Users/stapi/OneDrive/Desktop/GD32VW553/V1_MQTT_OK/GD32VW55X_Wifi_BLE_SDK/GD32VW55x_RELEASE_V1.0.2/MSDK/plf/GD32VW55x_standard_peripheral/Source\gd32vw55x_qspi.c ****                 one or more parameters can be selected which is shown as below:
 410:C:/Users/stapi/OneDrive/Desktop/GD32VW553/V1_MQTT_OK/GD32VW55X_Wifi_BLE_SDK/GD32VW55x_RELEASE_V1.0.2/MSDK/plf/GD32VW55x_standard_peripheral/Source\gd32vw55x_qspi.c ****       \arg        QSPI_INT_TC: transfer complete interrupt
 411:C:/Users/stapi/OneDrive/Desktop/GD32VW553/V1_MQTT_OK/GD32VW55X_Wifi_BLE_SDK/GD32VW55x_RELEASE_V1.0.2/MSDK/plf/GD32VW55x_standard_peripheral/Source\gd32vw55x_qspi.c ****       \arg        QSPI_INT_FT: FIFO threshold interrupt
 412:C:/Users/stapi/OneDrive/Desktop/GD32VW553/V1_MQTT_OK/GD32VW55X_Wifi_BLE_SDK/GD32VW55x_RELEASE_V1.0.2/MSDK/plf/GD32VW55x_standard_peripheral/Source\gd32vw55x_qspi.c ****       \arg        QSPI_INT_TERR: transfer error interrupt
 413:C:/Users/stapi/OneDrive/Desktop/GD32VW553/V1_MQTT_OK/GD32VW55X_Wifi_BLE_SDK/GD32VW55x_RELEASE_V1.0.2/MSDK/plf/GD32VW55x_standard_peripheral/Source\gd32vw55x_qspi.c ****       \arg        QSPI_INT_RPMF: read polling match interrupt
 414:C:/Users/stapi/OneDrive/Desktop/GD32VW553/V1_MQTT_OK/GD32VW55X_Wifi_BLE_SDK/GD32VW55x_RELEASE_V1.0.2/MSDK/plf/GD32VW55x_standard_peripheral/Source\gd32vw55x_qspi.c ****       \arg        QSPI_INT_TMOUT: timeout interrupt
 415:C:/Users/stapi/OneDrive/Desktop/GD32VW553/V1_MQTT_OK/GD32VW55X_Wifi_BLE_SDK/GD32VW55x_RELEASE_V1.0.2/MSDK/plf/GD32VW55x_standard_peripheral/Source\gd32vw55x_qspi.c ****     \param[out] none
 416:C:/Users/stapi/OneDrive/Desktop/GD32VW553/V1_MQTT_OK/GD32VW55X_Wifi_BLE_SDK/GD32VW55x_RELEASE_V1.0.2/MSDK/plf/GD32VW55x_standard_peripheral/Source\gd32vw55x_qspi.c ****     \retval     none
 417:C:/Users/stapi/OneDrive/Desktop/GD32VW553/V1_MQTT_OK/GD32VW55X_Wifi_BLE_SDK/GD32VW55x_RELEASE_V1.0.2/MSDK/plf/GD32VW55x_standard_peripheral/Source\gd32vw55x_qspi.c **** */
 418:C:/Users/stapi/OneDrive/Desktop/GD32VW553/V1_MQTT_OK/GD32VW55X_Wifi_BLE_SDK/GD32VW55x_RELEASE_V1.0.2/MSDK/plf/GD32VW55x_standard_peripheral/Source\gd32vw55x_qspi.c **** void qspi_interrupt_enable(uint32_t interrupt)
 419:C:/Users/stapi/OneDrive/Desktop/GD32VW553/V1_MQTT_OK/GD32VW55X_Wifi_BLE_SDK/GD32VW55x_RELEASE_V1.0.2/MSDK/plf/GD32VW55x_standard_peripheral/Source\gd32vw55x_qspi.c **** {
 420:C:/Users/stapi/OneDrive/Desktop/GD32VW553/V1_MQTT_OK/GD32VW55X_Wifi_BLE_SDK/GD32VW55x_RELEASE_V1.0.2/MSDK/plf/GD32VW55x_standard_peripheral/Source\gd32vw55x_qspi.c ****     QSPI_CTL |= (uint32_t)interrupt;
 421:C:/Users/stapi/OneDrive/Desktop/GD32VW553/V1_MQTT_OK/GD32VW55X_Wifi_BLE_SDK/GD32VW55x_RELEASE_V1.0.2/MSDK/plf/GD32VW55x_standard_peripheral/Source\gd32vw55x_qspi.c **** }
 422:C:/Users/stapi/OneDrive/Desktop/GD32VW553/V1_MQTT_OK/GD32VW55X_Wifi_BLE_SDK/GD32VW55x_RELEASE_V1.0.2/MSDK/plf/GD32VW55x_standard_peripheral/Source\gd32vw55x_qspi.c **** 
 423:C:/Users/stapi/OneDrive/Desktop/GD32VW553/V1_MQTT_OK/GD32VW55X_Wifi_BLE_SDK/GD32VW55x_RELEASE_V1.0.2/MSDK/plf/GD32VW55x_standard_peripheral/Source\gd32vw55x_qspi.c **** /*!
 424:C:/Users/stapi/OneDrive/Desktop/GD32VW553/V1_MQTT_OK/GD32VW55X_Wifi_BLE_SDK/GD32VW55x_RELEASE_V1.0.2/MSDK/plf/GD32VW55x_standard_peripheral/Source\gd32vw55x_qspi.c ****     \brief      disable QSPI interrupt
 425:C:/Users/stapi/OneDrive/Desktop/GD32VW553/V1_MQTT_OK/GD32VW55X_Wifi_BLE_SDK/GD32VW55x_RELEASE_V1.0.2/MSDK/plf/GD32VW55x_standard_peripheral/Source\gd32vw55x_qspi.c ****     \param[in]  interrupt: QSPI interrupt
 426:C:/Users/stapi/OneDrive/Desktop/GD32VW553/V1_MQTT_OK/GD32VW55X_Wifi_BLE_SDK/GD32VW55x_RELEASE_V1.0.2/MSDK/plf/GD32VW55x_standard_peripheral/Source\gd32vw55x_qspi.c ****                 one or more parameters can be selected which is shown as below:
 427:C:/Users/stapi/OneDrive/Desktop/GD32VW553/V1_MQTT_OK/GD32VW55X_Wifi_BLE_SDK/GD32VW55x_RELEASE_V1.0.2/MSDK/plf/GD32VW55x_standard_peripheral/Source\gd32vw55x_qspi.c ****       \arg        QSPI_INT_TC: transfer complete interrupt
 428:C:/Users/stapi/OneDrive/Desktop/GD32VW553/V1_MQTT_OK/GD32VW55X_Wifi_BLE_SDK/GD32VW55x_RELEASE_V1.0.2/MSDK/plf/GD32VW55x_standard_peripheral/Source\gd32vw55x_qspi.c ****       \arg        QSPI_INT_FT: FIFO threshold interrupt
 429:C:/Users/stapi/OneDrive/Desktop/GD32VW553/V1_MQTT_OK/GD32VW55X_Wifi_BLE_SDK/GD32VW55x_RELEASE_V1.0.2/MSDK/plf/GD32VW55x_standard_peripheral/Source\gd32vw55x_qspi.c ****       \arg        QSPI_INT_TERR: transfer error interrupt
 430:C:/Users/stapi/OneDrive/Desktop/GD32VW553/V1_MQTT_OK/GD32VW55X_Wifi_BLE_SDK/GD32VW55x_RELEASE_V1.0.2/MSDK/plf/GD32VW55x_standard_peripheral/Source\gd32vw55x_qspi.c ****       \arg        QSPI_INT_RPMF: read polling match interrupt
 431:C:/Users/stapi/OneDrive/Desktop/GD32VW553/V1_MQTT_OK/GD32VW55X_Wifi_BLE_SDK/GD32VW55x_RELEASE_V1.0.2/MSDK/plf/GD32VW55x_standard_peripheral/Source\gd32vw55x_qspi.c ****       \arg        QSPI_INT_TMOUT: timeout interrupt
 432:C:/Users/stapi/OneDrive/Desktop/GD32VW553/V1_MQTT_OK/GD32VW55X_Wifi_BLE_SDK/GD32VW55x_RELEASE_V1.0.2/MSDK/plf/GD32VW55x_standard_peripheral/Source\gd32vw55x_qspi.c ****     \param[out] none
 433:C:/Users/stapi/OneDrive/Desktop/GD32VW553/V1_MQTT_OK/GD32VW55X_Wifi_BLE_SDK/GD32VW55x_RELEASE_V1.0.2/MSDK/plf/GD32VW55x_standard_peripheral/Source\gd32vw55x_qspi.c ****     \retval     none
 434:C:/Users/stapi/OneDrive/Desktop/GD32VW553/V1_MQTT_OK/GD32VW55X_Wifi_BLE_SDK/GD32VW55x_RELEASE_V1.0.2/MSDK/plf/GD32VW55x_standard_peripheral/Source\gd32vw55x_qspi.c **** */
 435:C:/Users/stapi/OneDrive/Desktop/GD32VW553/V1_MQTT_OK/GD32VW55X_Wifi_BLE_SDK/GD32VW55x_RELEASE_V1.0.2/MSDK/plf/GD32VW55x_standard_peripheral/Source\gd32vw55x_qspi.c **** void qspi_interrupt_disable(uint32_t interrupt)
 436:C:/Users/stapi/OneDrive/Desktop/GD32VW553/V1_MQTT_OK/GD32VW55X_Wifi_BLE_SDK/GD32VW55x_RELEASE_V1.0.2/MSDK/plf/GD32VW55x_standard_peripheral/Source\gd32vw55x_qspi.c **** {
 437:C:/Users/stapi/OneDrive/Desktop/GD32VW553/V1_MQTT_OK/GD32VW55X_Wifi_BLE_SDK/GD32VW55x_RELEASE_V1.0.2/MSDK/plf/GD32VW55x_standard_peripheral/Source\gd32vw55x_qspi.c ****     QSPI_CTL &= ~(uint32_t)interrupt;
 438:C:/Users/stapi/OneDrive/Desktop/GD32VW553/V1_MQTT_OK/GD32VW55X_Wifi_BLE_SDK/GD32VW55x_RELEASE_V1.0.2/MSDK/plf/GD32VW55x_standard_peripheral/Source\gd32vw55x_qspi.c **** }
 439:C:/Users/stapi/OneDrive/Desktop/GD32VW553/V1_MQTT_OK/GD32VW55X_Wifi_BLE_SDK/GD32VW55x_RELEASE_V1.0.2/MSDK/plf/GD32VW55x_standard_peripheral/Source\gd32vw55x_qspi.c **** 
 440:C:/Users/stapi/OneDrive/Desktop/GD32VW553/V1_MQTT_OK/GD32VW55X_Wifi_BLE_SDK/GD32VW55x_RELEASE_V1.0.2/MSDK/plf/GD32VW55x_standard_peripheral/Source\gd32vw55x_qspi.c **** /*!
 441:C:/Users/stapi/OneDrive/Desktop/GD32VW553/V1_MQTT_OK/GD32VW55X_Wifi_BLE_SDK/GD32VW55x_RELEASE_V1.0.2/MSDK/plf/GD32VW55x_standard_peripheral/Source\gd32vw55x_qspi.c ****     \brief      get QSPI interrupt flag status
 442:C:/Users/stapi/OneDrive/Desktop/GD32VW553/V1_MQTT_OK/GD32VW55X_Wifi_BLE_SDK/GD32VW55x_RELEASE_V1.0.2/MSDK/plf/GD32VW55x_standard_peripheral/Source\gd32vw55x_qspi.c ****     \param[in]  int_flag: QSPI interrupt flag
 443:C:/Users/stapi/OneDrive/Desktop/GD32VW553/V1_MQTT_OK/GD32VW55X_Wifi_BLE_SDK/GD32VW55x_RELEASE_V1.0.2/MSDK/plf/GD32VW55x_standard_peripheral/Source\gd32vw55x_qspi.c ****                 only one parameter can be selected which are shown as below:
 444:C:/Users/stapi/OneDrive/Desktop/GD32VW553/V1_MQTT_OK/GD32VW55X_Wifi_BLE_SDK/GD32VW55x_RELEASE_V1.0.2/MSDK/plf/GD32VW55x_standard_peripheral/Source\gd32vw55x_qspi.c ****       \arg        QSPI_INT_FLAG_TERR: transfer error interrupt flag
 445:C:/Users/stapi/OneDrive/Desktop/GD32VW553/V1_MQTT_OK/GD32VW55X_Wifi_BLE_SDK/GD32VW55x_RELEASE_V1.0.2/MSDK/plf/GD32VW55x_standard_peripheral/Source\gd32vw55x_qspi.c ****       \arg        QSPI_INT_FLAG_TC: transfer complete interrupt flag
 446:C:/Users/stapi/OneDrive/Desktop/GD32VW553/V1_MQTT_OK/GD32VW55X_Wifi_BLE_SDK/GD32VW55x_RELEASE_V1.0.2/MSDK/plf/GD32VW55x_standard_peripheral/Source\gd32vw55x_qspi.c ****       \arg        QSPI_INT_FLAG_FT: FIFO threshold interrupt flag
 447:C:/Users/stapi/OneDrive/Desktop/GD32VW553/V1_MQTT_OK/GD32VW55X_Wifi_BLE_SDK/GD32VW55x_RELEASE_V1.0.2/MSDK/plf/GD32VW55x_standard_peripheral/Source\gd32vw55x_qspi.c ****       \arg        QSPI_INT_FLAG_RPMF: read polling match interrupt flag
 448:C:/Users/stapi/OneDrive/Desktop/GD32VW553/V1_MQTT_OK/GD32VW55X_Wifi_BLE_SDK/GD32VW55x_RELEASE_V1.0.2/MSDK/plf/GD32VW55x_standard_peripheral/Source\gd32vw55x_qspi.c ****       \arg        QSPI_INT_FLAG_TMOUT: timeout interrupt flag
 449:C:/Users/stapi/OneDrive/Desktop/GD32VW553/V1_MQTT_OK/GD32VW55X_Wifi_BLE_SDK/GD32VW55x_RELEASE_V1.0.2/MSDK/plf/GD32VW55x_standard_peripheral/Source\gd32vw55x_qspi.c ****     \param[out] none
 450:C:/Users/stapi/OneDrive/Desktop/GD32VW553/V1_MQTT_OK/GD32VW55X_Wifi_BLE_SDK/GD32VW55x_RELEASE_V1.0.2/MSDK/plf/GD32VW55x_standard_peripheral/Source\gd32vw55x_qspi.c ****     \retval     FlagStatus: SET or RESET
 451:C:/Users/stapi/OneDrive/Desktop/GD32VW553/V1_MQTT_OK/GD32VW55X_Wifi_BLE_SDK/GD32VW55x_RELEASE_V1.0.2/MSDK/plf/GD32VW55x_standard_peripheral/Source\gd32vw55x_qspi.c **** */
 452:C:/Users/stapi/OneDrive/Desktop/GD32VW553/V1_MQTT_OK/GD32VW55X_Wifi_BLE_SDK/GD32VW55x_RELEASE_V1.0.2/MSDK/plf/GD32VW55x_standard_peripheral/Source\gd32vw55x_qspi.c **** FlagStatus qspi_interrupt_flag_get(uint32_t int_flag)
 453:C:/Users/stapi/OneDrive/Desktop/GD32VW553/V1_MQTT_OK/GD32VW55X_Wifi_BLE_SDK/GD32VW55x_RELEASE_V1.0.2/MSDK/plf/GD32VW55x_standard_peripheral/Source\gd32vw55x_qspi.c **** {
 454:C:/Users/stapi/OneDrive/Desktop/GD32VW553/V1_MQTT_OK/GD32VW55X_Wifi_BLE_SDK/GD32VW55x_RELEASE_V1.0.2/MSDK/plf/GD32VW55x_standard_peripheral/Source\gd32vw55x_qspi.c ****     uint32_t reg1 = QSPI_CTL;
 455:C:/Users/stapi/OneDrive/Desktop/GD32VW553/V1_MQTT_OK/GD32VW55X_Wifi_BLE_SDK/GD32VW55x_RELEASE_V1.0.2/MSDK/plf/GD32VW55x_standard_peripheral/Source\gd32vw55x_qspi.c ****     uint32_t reg2 = QSPI_STAT;
 456:C:/Users/stapi/OneDrive/Desktop/GD32VW553/V1_MQTT_OK/GD32VW55X_Wifi_BLE_SDK/GD32VW55x_RELEASE_V1.0.2/MSDK/plf/GD32VW55x_standard_peripheral/Source\gd32vw55x_qspi.c **** 
 457:C:/Users/stapi/OneDrive/Desktop/GD32VW553/V1_MQTT_OK/GD32VW55X_Wifi_BLE_SDK/GD32VW55x_RELEASE_V1.0.2/MSDK/plf/GD32VW55x_standard_peripheral/Source\gd32vw55x_qspi.c ****     switch(int_flag) {
 458:C:/Users/stapi/OneDrive/Desktop/GD32VW553/V1_MQTT_OK/GD32VW55X_Wifi_BLE_SDK/GD32VW55x_RELEASE_V1.0.2/MSDK/plf/GD32VW55x_standard_peripheral/Source\gd32vw55x_qspi.c ****     /* QSPI transfer error interrupt flag */
 459:C:/Users/stapi/OneDrive/Desktop/GD32VW553/V1_MQTT_OK/GD32VW55X_Wifi_BLE_SDK/GD32VW55x_RELEASE_V1.0.2/MSDK/plf/GD32VW55x_standard_peripheral/Source\gd32vw55x_qspi.c ****     case QSPI_INT_FLAG_TERR:
 460:C:/Users/stapi/OneDrive/Desktop/GD32VW553/V1_MQTT_OK/GD32VW55X_Wifi_BLE_SDK/GD32VW55x_RELEASE_V1.0.2/MSDK/plf/GD32VW55x_standard_peripheral/Source\gd32vw55x_qspi.c ****         reg1 = reg1 & QSPI_STAT_TERR;
 461:C:/Users/stapi/OneDrive/Desktop/GD32VW553/V1_MQTT_OK/GD32VW55X_Wifi_BLE_SDK/GD32VW55x_RELEASE_V1.0.2/MSDK/plf/GD32VW55x_standard_peripheral/Source\gd32vw55x_qspi.c ****         reg2 = reg2 & QSPI_CTL_TERRIE;
 462:C:/Users/stapi/OneDrive/Desktop/GD32VW553/V1_MQTT_OK/GD32VW55X_Wifi_BLE_SDK/GD32VW55x_RELEASE_V1.0.2/MSDK/plf/GD32VW55x_standard_peripheral/Source\gd32vw55x_qspi.c ****         break;
 463:C:/Users/stapi/OneDrive/Desktop/GD32VW553/V1_MQTT_OK/GD32VW55X_Wifi_BLE_SDK/GD32VW55x_RELEASE_V1.0.2/MSDK/plf/GD32VW55x_standard_peripheral/Source\gd32vw55x_qspi.c ****     /* QSPI transfer complete interrupt flag */
 464:C:/Users/stapi/OneDrive/Desktop/GD32VW553/V1_MQTT_OK/GD32VW55X_Wifi_BLE_SDK/GD32VW55x_RELEASE_V1.0.2/MSDK/plf/GD32VW55x_standard_peripheral/Source\gd32vw55x_qspi.c ****     case QSPI_INT_FLAG_TC:
 465:C:/Users/stapi/OneDrive/Desktop/GD32VW553/V1_MQTT_OK/GD32VW55X_Wifi_BLE_SDK/GD32VW55x_RELEASE_V1.0.2/MSDK/plf/GD32VW55x_standard_peripheral/Source\gd32vw55x_qspi.c ****         reg1 = reg1 & QSPI_STAT_TC;
 466:C:/Users/stapi/OneDrive/Desktop/GD32VW553/V1_MQTT_OK/GD32VW55X_Wifi_BLE_SDK/GD32VW55x_RELEASE_V1.0.2/MSDK/plf/GD32VW55x_standard_peripheral/Source\gd32vw55x_qspi.c ****         reg2 = reg2 & QSPI_CTL_TCIE;
 467:C:/Users/stapi/OneDrive/Desktop/GD32VW553/V1_MQTT_OK/GD32VW55X_Wifi_BLE_SDK/GD32VW55x_RELEASE_V1.0.2/MSDK/plf/GD32VW55x_standard_peripheral/Source\gd32vw55x_qspi.c ****         break;
 468:C:/Users/stapi/OneDrive/Desktop/GD32VW553/V1_MQTT_OK/GD32VW55X_Wifi_BLE_SDK/GD32VW55x_RELEASE_V1.0.2/MSDK/plf/GD32VW55x_standard_peripheral/Source\gd32vw55x_qspi.c ****     /* QSPI FIFO threshold interrupt flag */
 469:C:/Users/stapi/OneDrive/Desktop/GD32VW553/V1_MQTT_OK/GD32VW55X_Wifi_BLE_SDK/GD32VW55x_RELEASE_V1.0.2/MSDK/plf/GD32VW55x_standard_peripheral/Source\gd32vw55x_qspi.c ****     case QSPI_INT_FLAG_FT:
 470:C:/Users/stapi/OneDrive/Desktop/GD32VW553/V1_MQTT_OK/GD32VW55X_Wifi_BLE_SDK/GD32VW55x_RELEASE_V1.0.2/MSDK/plf/GD32VW55x_standard_peripheral/Source\gd32vw55x_qspi.c ****         reg1 = reg1 & QSPI_STAT_FT;
 471:C:/Users/stapi/OneDrive/Desktop/GD32VW553/V1_MQTT_OK/GD32VW55X_Wifi_BLE_SDK/GD32VW55x_RELEASE_V1.0.2/MSDK/plf/GD32VW55x_standard_peripheral/Source\gd32vw55x_qspi.c ****         reg2 = reg2 & QSPI_CTL_FTIE;
 472:C:/Users/stapi/OneDrive/Desktop/GD32VW553/V1_MQTT_OK/GD32VW55X_Wifi_BLE_SDK/GD32VW55x_RELEASE_V1.0.2/MSDK/plf/GD32VW55x_standard_peripheral/Source\gd32vw55x_qspi.c ****         break;
 473:C:/Users/stapi/OneDrive/Desktop/GD32VW553/V1_MQTT_OK/GD32VW55X_Wifi_BLE_SDK/GD32VW55x_RELEASE_V1.0.2/MSDK/plf/GD32VW55x_standard_peripheral/Source\gd32vw55x_qspi.c ****     /* QSPI status match interrupt flag */
 474:C:/Users/stapi/OneDrive/Desktop/GD32VW553/V1_MQTT_OK/GD32VW55X_Wifi_BLE_SDK/GD32VW55x_RELEASE_V1.0.2/MSDK/plf/GD32VW55x_standard_peripheral/Source\gd32vw55x_qspi.c ****     case QSPI_INT_FLAG_RPMF:
 475:C:/Users/stapi/OneDrive/Desktop/GD32VW553/V1_MQTT_OK/GD32VW55X_Wifi_BLE_SDK/GD32VW55x_RELEASE_V1.0.2/MSDK/plf/GD32VW55x_standard_peripheral/Source\gd32vw55x_qspi.c ****         reg1 = reg1 & QSPI_STAT_RPMF;
 476:C:/Users/stapi/OneDrive/Desktop/GD32VW553/V1_MQTT_OK/GD32VW55X_Wifi_BLE_SDK/GD32VW55x_RELEASE_V1.0.2/MSDK/plf/GD32VW55x_standard_peripheral/Source\gd32vw55x_qspi.c ****         reg2 = reg2 & QSPI_CTL_RPMFIE;
 477:C:/Users/stapi/OneDrive/Desktop/GD32VW553/V1_MQTT_OK/GD32VW55X_Wifi_BLE_SDK/GD32VW55x_RELEASE_V1.0.2/MSDK/plf/GD32VW55x_standard_peripheral/Source\gd32vw55x_qspi.c ****         break;
 478:C:/Users/stapi/OneDrive/Desktop/GD32VW553/V1_MQTT_OK/GD32VW55X_Wifi_BLE_SDK/GD32VW55x_RELEASE_V1.0.2/MSDK/plf/GD32VW55x_standard_peripheral/Source\gd32vw55x_qspi.c ****     /* QSPI timeout interrupt flag */
 479:C:/Users/stapi/OneDrive/Desktop/GD32VW553/V1_MQTT_OK/GD32VW55X_Wifi_BLE_SDK/GD32VW55x_RELEASE_V1.0.2/MSDK/plf/GD32VW55x_standard_peripheral/Source\gd32vw55x_qspi.c ****     case QSPI_INT_FLAG_TMOUT:
 480:C:/Users/stapi/OneDrive/Desktop/GD32VW553/V1_MQTT_OK/GD32VW55X_Wifi_BLE_SDK/GD32VW55x_RELEASE_V1.0.2/MSDK/plf/GD32VW55x_standard_peripheral/Source\gd32vw55x_qspi.c ****         reg1 = reg1 & QSPI_STAT_TMOUT;
 481:C:/Users/stapi/OneDrive/Desktop/GD32VW553/V1_MQTT_OK/GD32VW55X_Wifi_BLE_SDK/GD32VW55x_RELEASE_V1.0.2/MSDK/plf/GD32VW55x_standard_peripheral/Source\gd32vw55x_qspi.c ****         reg2 = reg2 & QSPI_CTL_TMOUTIE;
 482:C:/Users/stapi/OneDrive/Desktop/GD32VW553/V1_MQTT_OK/GD32VW55X_Wifi_BLE_SDK/GD32VW55x_RELEASE_V1.0.2/MSDK/plf/GD32VW55x_standard_peripheral/Source\gd32vw55x_qspi.c ****         break;
 483:C:/Users/stapi/OneDrive/Desktop/GD32VW553/V1_MQTT_OK/GD32VW55X_Wifi_BLE_SDK/GD32VW55x_RELEASE_V1.0.2/MSDK/plf/GD32VW55x_standard_peripheral/Source\gd32vw55x_qspi.c ****     default :
 484:C:/Users/stapi/OneDrive/Desktop/GD32VW553/V1_MQTT_OK/GD32VW55X_Wifi_BLE_SDK/GD32VW55x_RELEASE_V1.0.2/MSDK/plf/GD32VW55x_standard_peripheral/Source\gd32vw55x_qspi.c ****         break;
 485:C:/Users/stapi/OneDrive/Desktop/GD32VW553/V1_MQTT_OK/GD32VW55X_Wifi_BLE_SDK/GD32VW55x_RELEASE_V1.0.2/MSDK/plf/GD32VW55x_standard_peripheral/Source\gd32vw55x_qspi.c ****     }
 486:C:/Users/stapi/OneDrive/Desktop/GD32VW553/V1_MQTT_OK/GD32VW55X_Wifi_BLE_SDK/GD32VW55x_RELEASE_V1.0.2/MSDK/plf/GD32VW55x_standard_peripheral/Source\gd32vw55x_qspi.c ****     /* get QSPI interrupt flag status */
 487:C:/Users/stapi/OneDrive/Desktop/GD32VW553/V1_MQTT_OK/GD32VW55X_Wifi_BLE_SDK/GD32VW55x_RELEASE_V1.0.2/MSDK/plf/GD32VW55x_standard_peripheral/Source\gd32vw55x_qspi.c ****     if(reg1 && reg2) {
 488:C:/Users/stapi/OneDrive/Desktop/GD32VW553/V1_MQTT_OK/GD32VW55X_Wifi_BLE_SDK/GD32VW55x_RELEASE_V1.0.2/MSDK/plf/GD32VW55x_standard_peripheral/Source\gd32vw55x_qspi.c ****         return SET;
 489:C:/Users/stapi/OneDrive/Desktop/GD32VW553/V1_MQTT_OK/GD32VW55X_Wifi_BLE_SDK/GD32VW55x_RELEASE_V1.0.2/MSDK/plf/GD32VW55x_standard_peripheral/Source\gd32vw55x_qspi.c ****     } else {
 490:C:/Users/stapi/OneDrive/Desktop/GD32VW553/V1_MQTT_OK/GD32VW55X_Wifi_BLE_SDK/GD32VW55x_RELEASE_V1.0.2/MSDK/plf/GD32VW55x_standard_peripheral/Source\gd32vw55x_qspi.c ****         return RESET;
 491:C:/Users/stapi/OneDrive/Desktop/GD32VW553/V1_MQTT_OK/GD32VW55X_Wifi_BLE_SDK/GD32VW55x_RELEASE_V1.0.2/MSDK/plf/GD32VW55x_standard_peripheral/Source\gd32vw55x_qspi.c ****     }
 492:C:/Users/stapi/OneDrive/Desktop/GD32VW553/V1_MQTT_OK/GD32VW55X_Wifi_BLE_SDK/GD32VW55x_RELEASE_V1.0.2/MSDK/plf/GD32VW55x_standard_peripheral/Source\gd32vw55x_qspi.c **** }
 493:C:/Users/stapi/OneDrive/Desktop/GD32VW553/V1_MQTT_OK/GD32VW55X_Wifi_BLE_SDK/GD32VW55x_RELEASE_V1.0.2/MSDK/plf/GD32VW55x_standard_peripheral/Source\gd32vw55x_qspi.c **** 
 494:C:/Users/stapi/OneDrive/Desktop/GD32VW553/V1_MQTT_OK/GD32VW55X_Wifi_BLE_SDK/GD32VW55x_RELEASE_V1.0.2/MSDK/plf/GD32VW55x_standard_peripheral/Source\gd32vw55x_qspi.c **** /*!
 495:C:/Users/stapi/OneDrive/Desktop/GD32VW553/V1_MQTT_OK/GD32VW55X_Wifi_BLE_SDK/GD32VW55x_RELEASE_V1.0.2/MSDK/plf/GD32VW55x_standard_peripheral/Source\gd32vw55x_qspi.c ****     \brief      clear QSPI interrupt flag status
 496:C:/Users/stapi/OneDrive/Desktop/GD32VW553/V1_MQTT_OK/GD32VW55X_Wifi_BLE_SDK/GD32VW55x_RELEASE_V1.0.2/MSDK/plf/GD32VW55x_standard_peripheral/Source\gd32vw55x_qspi.c ****     \param[in]  int_flag: QSPI interrupt flag
 497:C:/Users/stapi/OneDrive/Desktop/GD32VW553/V1_MQTT_OK/GD32VW55X_Wifi_BLE_SDK/GD32VW55x_RELEASE_V1.0.2/MSDK/plf/GD32VW55x_standard_peripheral/Source\gd32vw55x_qspi.c ****                 one or more parameters can be selected which are shown as below:
 498:C:/Users/stapi/OneDrive/Desktop/GD32VW553/V1_MQTT_OK/GD32VW55X_Wifi_BLE_SDK/GD32VW55x_RELEASE_V1.0.2/MSDK/plf/GD32VW55x_standard_peripheral/Source\gd32vw55x_qspi.c ****       \arg        QSPI_INT_FLAG_TERR: transfer error interrupt flag
 499:C:/Users/stapi/OneDrive/Desktop/GD32VW553/V1_MQTT_OK/GD32VW55X_Wifi_BLE_SDK/GD32VW55x_RELEASE_V1.0.2/MSDK/plf/GD32VW55x_standard_peripheral/Source\gd32vw55x_qspi.c ****       \arg        QSPI_INT_FLAG_TC: transfer complete interrupt flag
 500:C:/Users/stapi/OneDrive/Desktop/GD32VW553/V1_MQTT_OK/GD32VW55X_Wifi_BLE_SDK/GD32VW55x_RELEASE_V1.0.2/MSDK/plf/GD32VW55x_standard_peripheral/Source\gd32vw55x_qspi.c ****       \arg        QSPI_INT_FLAG_RPMF: read polling match interrupt flag
 501:C:/Users/stapi/OneDrive/Desktop/GD32VW553/V1_MQTT_OK/GD32VW55X_Wifi_BLE_SDK/GD32VW55x_RELEASE_V1.0.2/MSDK/plf/GD32VW55x_standard_peripheral/Source\gd32vw55x_qspi.c ****       \arg        QSPI_INT_FLAG_TMOUT: timeout interrupt flag
 502:C:/Users/stapi/OneDrive/Desktop/GD32VW553/V1_MQTT_OK/GD32VW55X_Wifi_BLE_SDK/GD32VW55x_RELEASE_V1.0.2/MSDK/plf/GD32VW55x_standard_peripheral/Source\gd32vw55x_qspi.c ****     \param[out] none
 503:C:/Users/stapi/OneDrive/Desktop/GD32VW553/V1_MQTT_OK/GD32VW55X_Wifi_BLE_SDK/GD32VW55x_RELEASE_V1.0.2/MSDK/plf/GD32VW55x_standard_peripheral/Source\gd32vw55x_qspi.c ****     \retval     none
 504:C:/Users/stapi/OneDrive/Desktop/GD32VW553/V1_MQTT_OK/GD32VW55X_Wifi_BLE_SDK/GD32VW55x_RELEASE_V1.0.2/MSDK/plf/GD32VW55x_standard_peripheral/Source\gd32vw55x_qspi.c **** */
 505:C:/Users/stapi/OneDrive/Desktop/GD32VW553/V1_MQTT_OK/GD32VW55X_Wifi_BLE_SDK/GD32VW55x_RELEASE_V1.0.2/MSDK/plf/GD32VW55x_standard_peripheral/Source\gd32vw55x_qspi.c **** void qspi_interrupt_flag_clear(uint32_t int_flag)
 506:C:/Users/stapi/OneDrive/Desktop/GD32VW553/V1_MQTT_OK/GD32VW55X_Wifi_BLE_SDK/GD32VW55x_RELEASE_V1.0.2/MSDK/plf/GD32VW55x_standard_peripheral/Source\gd32vw55x_qspi.c **** {
 507:C:/Users/stapi/OneDrive/Desktop/GD32VW553/V1_MQTT_OK/GD32VW55X_Wifi_BLE_SDK/GD32VW55x_RELEASE_V1.0.2/MSDK/plf/GD32VW55x_standard_peripheral/Source\gd32vw55x_qspi.c ****     QSPI_STATC |= (uint32_t)int_flag;
 508:C:/Users/stapi/OneDrive/Desktop/GD32VW553/V1_MQTT_OK/GD32VW55X_Wifi_BLE_SDK/GD32VW55x_RELEASE_V1.0.2/MSDK/plf/GD32VW55x_standard_peripheral/Source\gd32vw55x_qspi.c **** }
 509:C:/Users/stapi/OneDrive/Desktop/GD32VW553/V1_MQTT_OK/GD32VW55X_Wifi_BLE_SDK/GD32VW55x_RELEASE_V1.0.2/MSDK/plf/GD32VW55x_standard_peripheral/Source\gd32vw55x_qspi.c **** 
 510:C:/Users/stapi/OneDrive/Desktop/GD32VW553/V1_MQTT_OK/GD32VW55X_Wifi_BLE_SDK/GD32VW55x_RELEASE_V1.0.2/MSDK/plf/GD32VW55x_standard_peripheral/Source\gd32vw55x_qspi.c **** /*!
 511:C:/Users/stapi/OneDrive/Desktop/GD32VW553/V1_MQTT_OK/GD32VW55X_Wifi_BLE_SDK/GD32VW55x_RELEASE_V1.0.2/MSDK/plf/GD32VW55x_standard_peripheral/Source\gd32vw55x_qspi.c ****     \brief      configure QSPI functional mode
 512:C:/Users/stapi/OneDrive/Desktop/GD32VW553/V1_MQTT_OK/GD32VW55X_Wifi_BLE_SDK/GD32VW55x_RELEASE_V1.0.2/MSDK/plf/GD32VW55x_standard_peripheral/Source\gd32vw55x_qspi.c ****     \param[in]  cmd: QSPI command parameter structure
 513:C:/Users/stapi/OneDrive/Desktop/GD32VW553/V1_MQTT_OK/GD32VW55X_Wifi_BLE_SDK/GD32VW55x_RELEASE_V1.0.2/MSDK/plf/GD32VW55x_standard_peripheral/Source\gd32vw55x_qspi.c ****                              and the member values are shown as below:
 514:C:/Users/stapi/OneDrive/Desktop/GD32VW553/V1_MQTT_OK/GD32VW55X_Wifi_BLE_SDK/GD32VW55x_RELEASE_V1.0.2/MSDK/plf/GD32VW55x_standard_peripheral/Source\gd32vw55x_qspi.c ****                   instruction_mode: QSPI_INSTRUCTION_NONE, QSPI_INSTRUCTION_1_LINE,
 515:C:/Users/stapi/OneDrive/Desktop/GD32VW553/V1_MQTT_OK/GD32VW55X_Wifi_BLE_SDK/GD32VW55x_RELEASE_V1.0.2/MSDK/plf/GD32VW55x_standard_peripheral/Source\gd32vw55x_qspi.c ****                                     QSPI_INSTRUCTION_2_LINES, QSPI_INSTRUCTION_4_LINES
 516:C:/Users/stapi/OneDrive/Desktop/GD32VW553/V1_MQTT_OK/GD32VW55X_Wifi_BLE_SDK/GD32VW55x_RELEASE_V1.0.2/MSDK/plf/GD32VW55x_standard_peripheral/Source\gd32vw55x_qspi.c ****                   instruction: reference flash commands description
 517:C:/Users/stapi/OneDrive/Desktop/GD32VW553/V1_MQTT_OK/GD32VW55X_Wifi_BLE_SDK/GD32VW55x_RELEASE_V1.0.2/MSDK/plf/GD32VW55x_standard_peripheral/Source\gd32vw55x_qspi.c ****                   addr_mode: QSPI_ADDR_NONE, QSPI_ADDR_1_LINE, QSPI_ADDR_2_LINES, QSPI_ADDR_4_LINES
 518:C:/Users/stapi/OneDrive/Desktop/GD32VW553/V1_MQTT_OK/GD32VW55X_Wifi_BLE_SDK/GD32VW55x_RELEASE_V1.0.2/MSDK/plf/GD32VW55x_standard_peripheral/Source\gd32vw55x_qspi.c ****                   addr_size: QSPI_ADDR_8_BITS, QSPI_ADDR_16_BITS, QSPI_ADDR_24_BITS, QSPI_ADDR_32_B
 519:C:/Users/stapi/OneDrive/Desktop/GD32VW553/V1_MQTT_OK/GD32VW55X_Wifi_BLE_SDK/GD32VW55x_RELEASE_V1.0.2/MSDK/plf/GD32VW55x_standard_peripheral/Source\gd32vw55x_qspi.c ****                   addr: 0-flash size
 520:C:/Users/stapi/OneDrive/Desktop/GD32VW553/V1_MQTT_OK/GD32VW55X_Wifi_BLE_SDK/GD32VW55x_RELEASE_V1.0.2/MSDK/plf/GD32VW55x_standard_peripheral/Source\gd32vw55x_qspi.c ****                   altebytes_mode: QSPI_ALTE_BYTES_NONE, QSPI_ALTE_BYTES_1_LINE,
 521:C:/Users/stapi/OneDrive/Desktop/GD32VW553/V1_MQTT_OK/GD32VW55X_Wifi_BLE_SDK/GD32VW55x_RELEASE_V1.0.2/MSDK/plf/GD32VW55x_standard_peripheral/Source\gd32vw55x_qspi.c ****                                   QSPI_ALTE_BYTES_2_LINES, QSPI_ALTE_BYTES_4_LINES
 522:C:/Users/stapi/OneDrive/Desktop/GD32VW553/V1_MQTT_OK/GD32VW55X_Wifi_BLE_SDK/GD32VW55x_RELEASE_V1.0.2/MSDK/plf/GD32VW55x_standard_peripheral/Source\gd32vw55x_qspi.c ****                   altebytes_size: QSPI_ALTE_BYTES_8_BITS, QSPI_ALTE_BYTES_16_BITS,
 523:C:/Users/stapi/OneDrive/Desktop/GD32VW553/V1_MQTT_OK/GD32VW55X_Wifi_BLE_SDK/GD32VW55x_RELEASE_V1.0.2/MSDK/plf/GD32VW55x_standard_peripheral/Source\gd32vw55x_qspi.c ****                                   QSPI_ALTE_BYTES_24_BITS, QSPI_ALTE_BYTES_32_BITS
 524:C:/Users/stapi/OneDrive/Desktop/GD32VW553/V1_MQTT_OK/GD32VW55X_Wifi_BLE_SDK/GD32VW55x_RELEASE_V1.0.2/MSDK/plf/GD32VW55x_standard_peripheral/Source\gd32vw55x_qspi.c ****                   altebytes: 0-0xFFFFFFFF
 525:C:/Users/stapi/OneDrive/Desktop/GD32VW553/V1_MQTT_OK/GD32VW55X_Wifi_BLE_SDK/GD32VW55x_RELEASE_V1.0.2/MSDK/plf/GD32VW55x_standard_peripheral/Source\gd32vw55x_qspi.c ****                   dummycycles: between 0 and 31
 526:C:/Users/stapi/OneDrive/Desktop/GD32VW553/V1_MQTT_OK/GD32VW55X_Wifi_BLE_SDK/GD32VW55x_RELEASE_V1.0.2/MSDK/plf/GD32VW55x_standard_peripheral/Source\gd32vw55x_qspi.c ****                   data_mode: QSPI_DATA_NONE, QSPI_DATA_1_LINE, QSPI_DATA_2_LINES, QSPI_DATA_4_LINES
 527:C:/Users/stapi/OneDrive/Desktop/GD32VW553/V1_MQTT_OK/GD32VW55X_Wifi_BLE_SDK/GD32VW55x_RELEASE_V1.0.2/MSDK/plf/GD32VW55x_standard_peripheral/Source\gd32vw55x_qspi.c ****                   data_length: 0-0xFFFFFFFF
 528:C:/Users/stapi/OneDrive/Desktop/GD32VW553/V1_MQTT_OK/GD32VW55X_Wifi_BLE_SDK/GD32VW55x_RELEASE_V1.0.2/MSDK/plf/GD32VW55x_standard_peripheral/Source\gd32vw55x_qspi.c ****                   sioo_mode: QSPI_SIOO_INST_EVERY_CMD, QSPI_SIOO_INST_ONLY_FIRST_CMD
 529:C:/Users/stapi/OneDrive/Desktop/GD32VW553/V1_MQTT_OK/GD32VW55X_Wifi_BLE_SDK/GD32VW55x_RELEASE_V1.0.2/MSDK/plf/GD32VW55x_standard_peripheral/Source\gd32vw55x_qspi.c ****     \param[in]  functionalmode: QSPI functional mode select
 530:C:/Users/stapi/OneDrive/Desktop/GD32VW553/V1_MQTT_OK/GD32VW55X_Wifi_BLE_SDK/GD32VW55x_RELEASE_V1.0.2/MSDK/plf/GD32VW55x_standard_peripheral/Source\gd32vw55x_qspi.c ****                 only one parameter can be selected which is shown as below:
 531:C:/Users/stapi/OneDrive/Desktop/GD32VW553/V1_MQTT_OK/GD32VW55X_Wifi_BLE_SDK/GD32VW55x_RELEASE_V1.0.2/MSDK/plf/GD32VW55x_standard_peripheral/Source\gd32vw55x_qspi.c ****       \arg        QSPI_NORMAL_WRITE
 532:C:/Users/stapi/OneDrive/Desktop/GD32VW553/V1_MQTT_OK/GD32VW55X_Wifi_BLE_SDK/GD32VW55x_RELEASE_V1.0.2/MSDK/plf/GD32VW55x_standard_peripheral/Source\gd32vw55x_qspi.c ****       \arg        QSPI_NORMAL_READ
 533:C:/Users/stapi/OneDrive/Desktop/GD32VW553/V1_MQTT_OK/GD32VW55X_Wifi_BLE_SDK/GD32VW55x_RELEASE_V1.0.2/MSDK/plf/GD32VW55x_standard_peripheral/Source\gd32vw55x_qspi.c ****       \arg        QSPI_READ_POLLING
 534:C:/Users/stapi/OneDrive/Desktop/GD32VW553/V1_MQTT_OK/GD32VW55X_Wifi_BLE_SDK/GD32VW55x_RELEASE_V1.0.2/MSDK/plf/GD32VW55x_standard_peripheral/Source\gd32vw55x_qspi.c ****       \arg        QSPI_MEMORY_MAPPED
 535:C:/Users/stapi/OneDrive/Desktop/GD32VW553/V1_MQTT_OK/GD32VW55X_Wifi_BLE_SDK/GD32VW55x_RELEASE_V1.0.2/MSDK/plf/GD32VW55x_standard_peripheral/Source\gd32vw55x_qspi.c ****     \param[out] none
 536:C:/Users/stapi/OneDrive/Desktop/GD32VW553/V1_MQTT_OK/GD32VW55X_Wifi_BLE_SDK/GD32VW55x_RELEASE_V1.0.2/MSDK/plf/GD32VW55x_standard_peripheral/Source\gd32vw55x_qspi.c ****     \retval     none
 537:C:/Users/stapi/OneDrive/Desktop/GD32VW553/V1_MQTT_OK/GD32VW55X_Wifi_BLE_SDK/GD32VW55x_RELEASE_V1.0.2/MSDK/plf/GD32VW55x_standard_peripheral/Source\gd32vw55x_qspi.c **** */
 538:C:/Users/stapi/OneDrive/Desktop/GD32VW553/V1_MQTT_OK/GD32VW55X_Wifi_BLE_SDK/GD32VW55x_RELEASE_V1.0.2/MSDK/plf/GD32VW55x_standard_peripheral/Source\gd32vw55x_qspi.c **** static void qspi_config(qspi_command_struct *cmd, uint32_t functionalmode)
 539:C:/Users/stapi/OneDrive/Desktop/GD32VW553/V1_MQTT_OK/GD32VW55X_Wifi_BLE_SDK/GD32VW55x_RELEASE_V1.0.2/MSDK/plf/GD32VW55x_standard_peripheral/Source\gd32vw55x_qspi.c **** {
  15              		.loc 1 539 1
  16              		.cfi_startproc
  17              	.LVL0:
 540:C:/Users/stapi/OneDrive/Desktop/GD32VW553/V1_MQTT_OK/GD32VW55X_Wifi_BLE_SDK/GD32VW55x_RELEASE_V1.0.2/MSDK/plf/GD32VW55x_standard_peripheral/Source\gd32vw55x_qspi.c ****     if((cmd->data_mode != QSPI_DATA_NONE) && (functionalmode != QSPI_MEMORY_MAPPED)) {
  18              		.loc 1 540 5
  19              		.loc 1 540 7 is_stmt 0
  20 0000 5C51     		lw	a5,36(a0)
  21 0002 99CB     		beq	a5,zero,.L2
  22              		.loc 1 540 43 discriminator 1
  23 0004 B707000C 		li	a5,201326592
  24 0008 6388F500 		beq	a1,a5,.L2
 541:C:/Users/stapi/OneDrive/Desktop/GD32VW553/V1_MQTT_OK/GD32VW55X_Wifi_BLE_SDK/GD32VW55x_RELEASE_V1.0.2/MSDK/plf/GD32VW55x_standard_peripheral/Source\gd32vw55x_qspi.c ****         /* configure QSPI_DTLEN register with the number of data to read or write */
 542:C:/Users/stapi/OneDrive/Desktop/GD32VW553/V1_MQTT_OK/GD32VW55X_Wifi_BLE_SDK/GD32VW55x_RELEASE_V1.0.2/MSDK/plf/GD32VW55x_standard_peripheral/Source\gd32vw55x_qspi.c ****         QSPI_DTLEN = cmd->data_length - 1U;
  25              		.loc 1 542 9 is_stmt 1
  26              		.loc 1 542 39 is_stmt 0
  27 000c 1C55     		lw	a5,40(a0)
  28              		.loc 1 542 20
  29 000e 37670240 		li	a4,1073897472
  30              		.loc 1 542 39
  31 0012 FD17     		addi	a5,a5,-1
  32              		.loc 1 542 20
  33 0014 2328F780 		sw	a5,-2032(a4)
  34              	.L2:
 543:C:/Users/stapi/OneDrive/Desktop/GD32VW553/V1_MQTT_OK/GD32VW55X_Wifi_BLE_SDK/GD32VW55x_RELEASE_V1.0.2/MSDK/plf/GD32VW55x_standard_peripheral/Source\gd32vw55x_qspi.c ****     }
 544:C:/Users/stapi/OneDrive/Desktop/GD32VW553/V1_MQTT_OK/GD32VW55X_Wifi_BLE_SDK/GD32VW55x_RELEASE_V1.0.2/MSDK/plf/GD32VW55x_standard_peripheral/Source\gd32vw55x_qspi.c **** 
 545:C:/Users/stapi/OneDrive/Desktop/GD32VW553/V1_MQTT_OK/GD32VW55X_Wifi_BLE_SDK/GD32VW55x_RELEASE_V1.0.2/MSDK/plf/GD32VW55x_standard_peripheral/Source\gd32vw55x_qspi.c ****     if(cmd->instruction_mode != QSPI_INSTRUCTION_NONE) {
  35              		.loc 1 545 5 is_stmt 1
  36              		.loc 1 545 11 is_stmt 0
  37 0018 1C41     		lw	a5,0(a0)
 546:C:/Users/stapi/OneDrive/Desktop/GD32VW553/V1_MQTT_OK/GD32VW55X_Wifi_BLE_SDK/GD32VW55x_RELEASE_V1.0.2/MSDK/plf/GD32VW55x_standard_peripheral/Source\gd32vw55x_qspi.c ****         if(cmd->altebytes_mode != QSPI_ALTE_BYTES_NONE) {
  38              		.loc 1 546 15
  39 001a 5849     		lw	a4,20(a0)
 545:C:/Users/stapi/OneDrive/Desktop/GD32VW553/V1_MQTT_OK/GD32VW55X_Wifi_BLE_SDK/GD32VW55x_RELEASE_V1.0.2/MSDK/plf/GD32VW55x_standard_peripheral/Source\gd32vw55x_qspi.c ****         if(cmd->altebytes_mode != QSPI_ALTE_BYTES_NONE) {
  40              		.loc 1 545 7
  41 001c E9CB     		beq	a5,zero,.L3
  42              		.loc 1 546 9 is_stmt 1
  43              		.loc 1 546 11 is_stmt 0
  44 001e 2DCF     		beq	a4,zero,.L4
 547:C:/Users/stapi/OneDrive/Desktop/GD32VW553/V1_MQTT_OK/GD32VW55X_Wifi_BLE_SDK/GD32VW55x_RELEASE_V1.0.2/MSDK/plf/GD32VW55x_standard_peripheral/Source\gd32vw55x_qspi.c ****             /* configure QSPI_ALTE register with alternate bytes value */
 548:C:/Users/stapi/OneDrive/Desktop/GD32VW553/V1_MQTT_OK/GD32VW55X_Wifi_BLE_SDK/GD32VW55x_RELEASE_V1.0.2/MSDK/plf/GD32VW55x_standard_peripheral/Source\gd32vw55x_qspi.c ****             QSPI_ALTE = cmd->altebytes;
  45              		.loc 1 548 13 is_stmt 1
  46              		.loc 1 548 28 is_stmt 0
  47 0020 5C4D     		lw	a5,28(a0)
  48              		.loc 1 548 23
  49 0022 37680240 		li	a6,1073897472
  50 0026 232EF880 		sw	a5,-2020(a6)
 549:C:/Users/stapi/OneDrive/Desktop/GD32VW553/V1_MQTT_OK/GD32VW55X_Wifi_BLE_SDK/GD32VW55x_RELEASE_V1.0.2/MSDK/plf/GD32VW55x_standard_peripheral/Source\gd32vw55x_qspi.c **** 
 550:C:/Users/stapi/OneDrive/Desktop/GD32VW553/V1_MQTT_OK/GD32VW55X_Wifi_BLE_SDK/GD32VW55x_RELEASE_V1.0.2/MSDK/plf/GD32VW55x_standard_peripheral/Source\gd32vw55x_qspi.c ****             if(cmd->addr_mode != QSPI_ADDR_NONE) {
  51              		.loc 1 550 13 is_stmt 1
  52              		.loc 1 550 19 is_stmt 0
  53 002a 1845     		lw	a4,8(a0)
  54 002c 5451     		lw	a3,36(a0)
  55 002e 03230500 		lw	t1,0(a0)
  56 0032 032E4501 		lw	t3,20(a0)
  57 0036 5C55     		lw	a5,44(a0)
  58 0038 832E8501 		lw	t4,24(a0)
  59 003c 83284500 		lw	a7,4(a0)
  60 0040 1051     		lw	a2,32(a0)
  61              		.loc 1 550 15
  62 0042 1DCB     		beq	a4,zero,.L5
 551:C:/Users/stapi/OneDrive/Desktop/GD32VW553/V1_MQTT_OK/GD32VW55X_Wifi_BLE_SDK/GD32VW55x_RELEASE_V1.0.2/MSDK/plf/GD32VW55x_standard_peripheral/Source\gd32vw55x_qspi.c ****                 /* command with instruction, address and alternate bytes */
 552:C:/Users/stapi/OneDrive/Desktop/GD32VW553/V1_MQTT_OK/GD32VW55X_Wifi_BLE_SDK/GD32VW55x_RELEASE_V1.0.2/MSDK/plf/GD32VW55x_standard_peripheral/Source\gd32vw55x_qspi.c ****                 /* configure QSPI_TCFG register with all communications parameters */
 553:C:/Users/stapi/OneDrive/Desktop/GD32VW553/V1_MQTT_OK/GD32VW55X_Wifi_BLE_SDK/GD32VW55x_RELEASE_V1.0.2/MSDK/plf/GD32VW55x_standard_peripheral/Source\gd32vw55x_qspi.c ****                 QSPI_TCFG = cmd->data_mode | (cmd->dummycycles << TCFG_DUMYC_OFFSET) | cmd->sioo_mo
  63              		.loc 1 553 17 is_stmt 1
 554:C:/Users/stapi/OneDrive/Desktop/GD32VW553/V1_MQTT_OK/GD32VW55X_Wifi_BLE_SDK/GD32VW55x_RELEASE_V1.0.2/MSDK/plf/GD32VW55x_standard_peripheral/Source\gd32vw55x_qspi.c ****                             cmd->altebytes_size | cmd->altebytes_mode |
 555:C:/Users/stapi/OneDrive/Desktop/GD32VW553/V1_MQTT_OK/GD32VW55X_Wifi_BLE_SDK/GD32VW55x_RELEASE_V1.0.2/MSDK/plf/GD32VW55x_standard_peripheral/Source\gd32vw55x_qspi.c ****                             cmd->addr_size | cmd->addr_mode | cmd->instruction_mode |
 556:C:/Users/stapi/OneDrive/Desktop/GD32VW553/V1_MQTT_OK/GD32VW55X_Wifi_BLE_SDK/GD32VW55x_RELEASE_V1.0.2/MSDK/plf/GD32VW55x_standard_peripheral/Source\gd32vw55x_qspi.c ****                             cmd->instruction | functionalmode;
  64              		.loc 1 556 46 is_stmt 0
  65 0044 D98E     		or	a3,a4,a3
  66 0046 CD8E     		or	a3,a3,a1
  67 0048 33E7F600 		or	a4,a3,a5
  68 004c 5C45     		lw	a5,12(a0)
  69 004e 3367D701 		or	a4,a4,t4
  70 0052 3367C701 		or	a4,a4,t3
  71 0056 5D8F     		or	a4,a4,a5
  72 0058 33676700 		or	a4,a4,t1
  73 005c 33671701 		or	a4,a4,a7
 553:C:/Users/stapi/OneDrive/Desktop/GD32VW553/V1_MQTT_OK/GD32VW55X_Wifi_BLE_SDK/GD32VW55x_RELEASE_V1.0.2/MSDK/plf/GD32VW55x_standard_peripheral/Source\gd32vw55x_qspi.c ****                             cmd->altebytes_size | cmd->altebytes_mode |
  74              		.loc 1 553 64
  75 0060 4A06     		slli	a2,a2,18
  76              		.loc 1 556 46
  77 0062 518F     		or	a4,a4,a2
 553:C:/Users/stapi/OneDrive/Desktop/GD32VW553/V1_MQTT_OK/GD32VW55X_Wifi_BLE_SDK/GD32VW55x_RELEASE_V1.0.2/MSDK/plf/GD32VW55x_standard_peripheral/Source\gd32vw55x_qspi.c ****                             cmd->altebytes_size | cmd->altebytes_mode |
  78              		.loc 1 553 27
  79 0064 232AE880 		sw	a4,-2028(a6)
 557:C:/Users/stapi/OneDrive/Desktop/GD32VW553/V1_MQTT_OK/GD32VW55X_Wifi_BLE_SDK/GD32VW55x_RELEASE_V1.0.2/MSDK/plf/GD32VW55x_standard_peripheral/Source\gd32vw55x_qspi.c **** 
 558:C:/Users/stapi/OneDrive/Desktop/GD32VW553/V1_MQTT_OK/GD32VW55X_Wifi_BLE_SDK/GD32VW55x_RELEASE_V1.0.2/MSDK/plf/GD32VW55x_standard_peripheral/Source\gd32vw55x_qspi.c ****                 if(functionalmode != QSPI_MEMORY_MAPPED) {
  80              		.loc 1 558 17 is_stmt 1
  81              	.L23:
 559:C:/Users/stapi/OneDrive/Desktop/GD32VW553/V1_MQTT_OK/GD32VW55X_Wifi_BLE_SDK/GD32VW55x_RELEASE_V1.0.2/MSDK/plf/GD32VW55x_standard_peripheral/Source\gd32vw55x_qspi.c ****                     /* configure QSPI_ADDR register with address value */
 560:C:/Users/stapi/OneDrive/Desktop/GD32VW553/V1_MQTT_OK/GD32VW55X_Wifi_BLE_SDK/GD32VW55x_RELEASE_V1.0.2/MSDK/plf/GD32VW55x_standard_peripheral/Source\gd32vw55x_qspi.c ****                     QSPI_ADDR = cmd->addr;
 561:C:/Users/stapi/OneDrive/Desktop/GD32VW553/V1_MQTT_OK/GD32VW55X_Wifi_BLE_SDK/GD32VW55x_RELEASE_V1.0.2/MSDK/plf/GD32VW55x_standard_peripheral/Source\gd32vw55x_qspi.c ****                 }
 562:C:/Users/stapi/OneDrive/Desktop/GD32VW553/V1_MQTT_OK/GD32VW55X_Wifi_BLE_SDK/GD32VW55x_RELEASE_V1.0.2/MSDK/plf/GD32VW55x_standard_peripheral/Source\gd32vw55x_qspi.c ****             } else {
 563:C:/Users/stapi/OneDrive/Desktop/GD32VW553/V1_MQTT_OK/GD32VW55X_Wifi_BLE_SDK/GD32VW55x_RELEASE_V1.0.2/MSDK/plf/GD32VW55x_standard_peripheral/Source\gd32vw55x_qspi.c ****                 /* command with instruction and alternate bytes */
 564:C:/Users/stapi/OneDrive/Desktop/GD32VW553/V1_MQTT_OK/GD32VW55X_Wifi_BLE_SDK/GD32VW55x_RELEASE_V1.0.2/MSDK/plf/GD32VW55x_standard_peripheral/Source\gd32vw55x_qspi.c ****                 /* configure QSPI_TCFG register with all communications parameters */
 565:C:/Users/stapi/OneDrive/Desktop/GD32VW553/V1_MQTT_OK/GD32VW55X_Wifi_BLE_SDK/GD32VW55x_RELEASE_V1.0.2/MSDK/plf/GD32VW55x_standard_peripheral/Source\gd32vw55x_qspi.c ****                 QSPI_TCFG = cmd->data_mode | (cmd->dummycycles << TCFG_DUMYC_OFFSET) | cmd->sioo_mo
 566:C:/Users/stapi/OneDrive/Desktop/GD32VW553/V1_MQTT_OK/GD32VW55X_Wifi_BLE_SDK/GD32VW55x_RELEASE_V1.0.2/MSDK/plf/GD32VW55x_standard_peripheral/Source\gd32vw55x_qspi.c ****                             cmd->altebytes_size | cmd->altebytes_mode |
 567:C:/Users/stapi/OneDrive/Desktop/GD32VW553/V1_MQTT_OK/GD32VW55X_Wifi_BLE_SDK/GD32VW55x_RELEASE_V1.0.2/MSDK/plf/GD32VW55x_standard_peripheral/Source\gd32vw55x_qspi.c ****                             cmd->addr_mode | cmd->instruction_mode |
 568:C:/Users/stapi/OneDrive/Desktop/GD32VW553/V1_MQTT_OK/GD32VW55X_Wifi_BLE_SDK/GD32VW55x_RELEASE_V1.0.2/MSDK/plf/GD32VW55x_standard_peripheral/Source\gd32vw55x_qspi.c ****                             cmd->instruction | functionalmode;
 569:C:/Users/stapi/OneDrive/Desktop/GD32VW553/V1_MQTT_OK/GD32VW55X_Wifi_BLE_SDK/GD32VW55x_RELEASE_V1.0.2/MSDK/plf/GD32VW55x_standard_peripheral/Source\gd32vw55x_qspi.c ****             }
 570:C:/Users/stapi/OneDrive/Desktop/GD32VW553/V1_MQTT_OK/GD32VW55X_Wifi_BLE_SDK/GD32VW55x_RELEASE_V1.0.2/MSDK/plf/GD32VW55x_standard_peripheral/Source\gd32vw55x_qspi.c ****         } else {
 571:C:/Users/stapi/OneDrive/Desktop/GD32VW553/V1_MQTT_OK/GD32VW55X_Wifi_BLE_SDK/GD32VW55x_RELEASE_V1.0.2/MSDK/plf/GD32VW55x_standard_peripheral/Source\gd32vw55x_qspi.c ****             if(cmd->addr_mode != QSPI_ADDR_NONE) {
 572:C:/Users/stapi/OneDrive/Desktop/GD32VW553/V1_MQTT_OK/GD32VW55X_Wifi_BLE_SDK/GD32VW55x_RELEASE_V1.0.2/MSDK/plf/GD32VW55x_standard_peripheral/Source\gd32vw55x_qspi.c ****                 /* command with instruction and address */
 573:C:/Users/stapi/OneDrive/Desktop/GD32VW553/V1_MQTT_OK/GD32VW55X_Wifi_BLE_SDK/GD32VW55x_RELEASE_V1.0.2/MSDK/plf/GD32VW55x_standard_peripheral/Source\gd32vw55x_qspi.c ****                 /* configure QSPI_TCFG register with all communications parameters */
 574:C:/Users/stapi/OneDrive/Desktop/GD32VW553/V1_MQTT_OK/GD32VW55X_Wifi_BLE_SDK/GD32VW55x_RELEASE_V1.0.2/MSDK/plf/GD32VW55x_standard_peripheral/Source\gd32vw55x_qspi.c ****                 QSPI_TCFG = cmd->data_mode | (cmd->dummycycles << TCFG_DUMYC_OFFSET) | cmd->sioo_mo
 575:C:/Users/stapi/OneDrive/Desktop/GD32VW553/V1_MQTT_OK/GD32VW55X_Wifi_BLE_SDK/GD32VW55x_RELEASE_V1.0.2/MSDK/plf/GD32VW55x_standard_peripheral/Source\gd32vw55x_qspi.c ****                             cmd->altebytes_mode | cmd->addr_size | cmd->addr_mode |
 576:C:/Users/stapi/OneDrive/Desktop/GD32VW553/V1_MQTT_OK/GD32VW55X_Wifi_BLE_SDK/GD32VW55x_RELEASE_V1.0.2/MSDK/plf/GD32VW55x_standard_peripheral/Source\gd32vw55x_qspi.c ****                             cmd->instruction_mode | cmd->instruction | functionalmode;
 577:C:/Users/stapi/OneDrive/Desktop/GD32VW553/V1_MQTT_OK/GD32VW55X_Wifi_BLE_SDK/GD32VW55x_RELEASE_V1.0.2/MSDK/plf/GD32VW55x_standard_peripheral/Source\gd32vw55x_qspi.c **** 
 578:C:/Users/stapi/OneDrive/Desktop/GD32VW553/V1_MQTT_OK/GD32VW55X_Wifi_BLE_SDK/GD32VW55x_RELEASE_V1.0.2/MSDK/plf/GD32VW55x_standard_peripheral/Source\gd32vw55x_qspi.c ****                 if(functionalmode != QSPI_MEMORY_MAPPED) {
 579:C:/Users/stapi/OneDrive/Desktop/GD32VW553/V1_MQTT_OK/GD32VW55X_Wifi_BLE_SDK/GD32VW55x_RELEASE_V1.0.2/MSDK/plf/GD32VW55x_standard_peripheral/Source\gd32vw55x_qspi.c ****                     /* configure QSPI_ADDR register with address value */
 580:C:/Users/stapi/OneDrive/Desktop/GD32VW553/V1_MQTT_OK/GD32VW55X_Wifi_BLE_SDK/GD32VW55x_RELEASE_V1.0.2/MSDK/plf/GD32VW55x_standard_peripheral/Source\gd32vw55x_qspi.c ****                     QSPI_ADDR = cmd->addr;
 581:C:/Users/stapi/OneDrive/Desktop/GD32VW553/V1_MQTT_OK/GD32VW55X_Wifi_BLE_SDK/GD32VW55x_RELEASE_V1.0.2/MSDK/plf/GD32VW55x_standard_peripheral/Source\gd32vw55x_qspi.c ****                 }
 582:C:/Users/stapi/OneDrive/Desktop/GD32VW553/V1_MQTT_OK/GD32VW55X_Wifi_BLE_SDK/GD32VW55x_RELEASE_V1.0.2/MSDK/plf/GD32VW55x_standard_peripheral/Source\gd32vw55x_qspi.c ****             } else {
 583:C:/Users/stapi/OneDrive/Desktop/GD32VW553/V1_MQTT_OK/GD32VW55X_Wifi_BLE_SDK/GD32VW55x_RELEASE_V1.0.2/MSDK/plf/GD32VW55x_standard_peripheral/Source\gd32vw55x_qspi.c ****                 /* command with only instruction */
 584:C:/Users/stapi/OneDrive/Desktop/GD32VW553/V1_MQTT_OK/GD32VW55X_Wifi_BLE_SDK/GD32VW55x_RELEASE_V1.0.2/MSDK/plf/GD32VW55x_standard_peripheral/Source\gd32vw55x_qspi.c ****                 /* configure QSPI_TCFG register with all communications parameters */
 585:C:/Users/stapi/OneDrive/Desktop/GD32VW553/V1_MQTT_OK/GD32VW55X_Wifi_BLE_SDK/GD32VW55x_RELEASE_V1.0.2/MSDK/plf/GD32VW55x_standard_peripheral/Source\gd32vw55x_qspi.c ****                 QSPI_TCFG = cmd->data_mode | (cmd->dummycycles << TCFG_DUMYC_OFFSET) | cmd->sioo_mo
 586:C:/Users/stapi/OneDrive/Desktop/GD32VW553/V1_MQTT_OK/GD32VW55X_Wifi_BLE_SDK/GD32VW55x_RELEASE_V1.0.2/MSDK/plf/GD32VW55x_standard_peripheral/Source\gd32vw55x_qspi.c ****                             cmd->altebytes_mode | cmd->addr_mode | cmd->instruction_mode |
 587:C:/Users/stapi/OneDrive/Desktop/GD32VW553/V1_MQTT_OK/GD32VW55X_Wifi_BLE_SDK/GD32VW55x_RELEASE_V1.0.2/MSDK/plf/GD32VW55x_standard_peripheral/Source\gd32vw55x_qspi.c ****                             cmd->instruction | functionalmode;
 588:C:/Users/stapi/OneDrive/Desktop/GD32VW553/V1_MQTT_OK/GD32VW55X_Wifi_BLE_SDK/GD32VW55x_RELEASE_V1.0.2/MSDK/plf/GD32VW55x_standard_peripheral/Source\gd32vw55x_qspi.c ****             }
 589:C:/Users/stapi/OneDrive/Desktop/GD32VW553/V1_MQTT_OK/GD32VW55X_Wifi_BLE_SDK/GD32VW55x_RELEASE_V1.0.2/MSDK/plf/GD32VW55x_standard_peripheral/Source\gd32vw55x_qspi.c ****         }
 590:C:/Users/stapi/OneDrive/Desktop/GD32VW553/V1_MQTT_OK/GD32VW55X_Wifi_BLE_SDK/GD32VW55x_RELEASE_V1.0.2/MSDK/plf/GD32VW55x_standard_peripheral/Source\gd32vw55x_qspi.c ****     } else {
 591:C:/Users/stapi/OneDrive/Desktop/GD32VW553/V1_MQTT_OK/GD32VW55X_Wifi_BLE_SDK/GD32VW55x_RELEASE_V1.0.2/MSDK/plf/GD32VW55x_standard_peripheral/Source\gd32vw55x_qspi.c ****         if(cmd->altebytes_mode != QSPI_ALTE_BYTES_NONE) {
 592:C:/Users/stapi/OneDrive/Desktop/GD32VW553/V1_MQTT_OK/GD32VW55X_Wifi_BLE_SDK/GD32VW55x_RELEASE_V1.0.2/MSDK/plf/GD32VW55x_standard_peripheral/Source\gd32vw55x_qspi.c ****             /* configure QSPI_ALTE register with alternate bytes value */
 593:C:/Users/stapi/OneDrive/Desktop/GD32VW553/V1_MQTT_OK/GD32VW55X_Wifi_BLE_SDK/GD32VW55x_RELEASE_V1.0.2/MSDK/plf/GD32VW55x_standard_peripheral/Source\gd32vw55x_qspi.c ****             QSPI_ALTE = cmd->altebytes;
 594:C:/Users/stapi/OneDrive/Desktop/GD32VW553/V1_MQTT_OK/GD32VW55X_Wifi_BLE_SDK/GD32VW55x_RELEASE_V1.0.2/MSDK/plf/GD32VW55x_standard_peripheral/Source\gd32vw55x_qspi.c **** 
 595:C:/Users/stapi/OneDrive/Desktop/GD32VW553/V1_MQTT_OK/GD32VW55X_Wifi_BLE_SDK/GD32VW55x_RELEASE_V1.0.2/MSDK/plf/GD32VW55x_standard_peripheral/Source\gd32vw55x_qspi.c ****             if(cmd->addr_mode != QSPI_ADDR_NONE) {
 596:C:/Users/stapi/OneDrive/Desktop/GD32VW553/V1_MQTT_OK/GD32VW55X_Wifi_BLE_SDK/GD32VW55x_RELEASE_V1.0.2/MSDK/plf/GD32VW55x_standard_peripheral/Source\gd32vw55x_qspi.c ****                 /* command with address and alternate bytes */
 597:C:/Users/stapi/OneDrive/Desktop/GD32VW553/V1_MQTT_OK/GD32VW55X_Wifi_BLE_SDK/GD32VW55x_RELEASE_V1.0.2/MSDK/plf/GD32VW55x_standard_peripheral/Source\gd32vw55x_qspi.c ****                 /* configure QSPI_TCFG register with all communications parameters */
 598:C:/Users/stapi/OneDrive/Desktop/GD32VW553/V1_MQTT_OK/GD32VW55X_Wifi_BLE_SDK/GD32VW55x_RELEASE_V1.0.2/MSDK/plf/GD32VW55x_standard_peripheral/Source\gd32vw55x_qspi.c ****                 QSPI_TCFG = cmd->data_mode | (cmd->dummycycles << TCFG_DUMYC_OFFSET) | cmd->sioo_mo
 599:C:/Users/stapi/OneDrive/Desktop/GD32VW553/V1_MQTT_OK/GD32VW55X_Wifi_BLE_SDK/GD32VW55x_RELEASE_V1.0.2/MSDK/plf/GD32VW55x_standard_peripheral/Source\gd32vw55x_qspi.c ****                             cmd->altebytes_mode | cmd->altebytes_size | cmd->addr_size |
 600:C:/Users/stapi/OneDrive/Desktop/GD32VW553/V1_MQTT_OK/GD32VW55X_Wifi_BLE_SDK/GD32VW55x_RELEASE_V1.0.2/MSDK/plf/GD32VW55x_standard_peripheral/Source\gd32vw55x_qspi.c ****                             cmd->addr_mode | cmd->instruction_mode | functionalmode;
 601:C:/Users/stapi/OneDrive/Desktop/GD32VW553/V1_MQTT_OK/GD32VW55X_Wifi_BLE_SDK/GD32VW55x_RELEASE_V1.0.2/MSDK/plf/GD32VW55x_standard_peripheral/Source\gd32vw55x_qspi.c **** 
 602:C:/Users/stapi/OneDrive/Desktop/GD32VW553/V1_MQTT_OK/GD32VW55X_Wifi_BLE_SDK/GD32VW55x_RELEASE_V1.0.2/MSDK/plf/GD32VW55x_standard_peripheral/Source\gd32vw55x_qspi.c ****                 if(functionalmode != QSPI_MEMORY_MAPPED) {
  82              		.loc 1 602 17
  83              		.loc 1 602 19 is_stmt 0
  84 0068 B707000C 		li	a5,201326592
  85 006c 6380F508 		beq	a1,a5,.L1
 603:C:/Users/stapi/OneDrive/Desktop/GD32VW553/V1_MQTT_OK/GD32VW55X_Wifi_BLE_SDK/GD32VW55x_RELEASE_V1.0.2/MSDK/plf/GD32VW55x_standard_peripheral/Source\gd32vw55x_qspi.c ****                     /* configure QSPI_ADDR register with address value */
 604:C:/Users/stapi/OneDrive/Desktop/GD32VW553/V1_MQTT_OK/GD32VW55X_Wifi_BLE_SDK/GD32VW55x_RELEASE_V1.0.2/MSDK/plf/GD32VW55x_standard_peripheral/Source\gd32vw55x_qspi.c ****                     QSPI_ADDR = cmd->addr;
  86              		.loc 1 604 21 is_stmt 1
  87              		.loc 1 604 36 is_stmt 0
  88 0070 1C49     		lw	a5,16(a0)
  89              		.loc 1 604 31
  90 0072 232CF880 		sw	a5,-2024(a6)
  91 0076 8280     		ret
  92              	.L5:
 565:C:/Users/stapi/OneDrive/Desktop/GD32VW553/V1_MQTT_OK/GD32VW55X_Wifi_BLE_SDK/GD32VW55x_RELEASE_V1.0.2/MSDK/plf/GD32VW55x_standard_peripheral/Source\gd32vw55x_qspi.c ****                             cmd->altebytes_size | cmd->altebytes_mode |
  93              		.loc 1 565 17 is_stmt 1
 568:C:/Users/stapi/OneDrive/Desktop/GD32VW553/V1_MQTT_OK/GD32VW55X_Wifi_BLE_SDK/GD32VW55x_RELEASE_V1.0.2/MSDK/plf/GD32VW55x_standard_peripheral/Source\gd32vw55x_qspi.c ****             }
  94              		.loc 1 568 46 is_stmt 0
  95 0078 DD8E     		or	a3,a3,a5
  96 007a B3E7B600 		or	a5,a3,a1
  97 007e B3E7D701 		or	a5,a5,t4
  98 0082 33E7C701 		or	a4,a5,t3
  99 0086 33676700 		or	a4,a4,t1
 100 008a 33671701 		or	a4,a4,a7
 565:C:/Users/stapi/OneDrive/Desktop/GD32VW553/V1_MQTT_OK/GD32VW55X_Wifi_BLE_SDK/GD32VW55x_RELEASE_V1.0.2/MSDK/plf/GD32VW55x_standard_peripheral/Source\gd32vw55x_qspi.c ****                             cmd->altebytes_size | cmd->altebytes_mode |
 101              		.loc 1 565 64
 102 008e 4A06     		slli	a2,a2,18
 568:C:/Users/stapi/OneDrive/Desktop/GD32VW553/V1_MQTT_OK/GD32VW55X_Wifi_BLE_SDK/GD32VW55x_RELEASE_V1.0.2/MSDK/plf/GD32VW55x_standard_peripheral/Source\gd32vw55x_qspi.c ****             }
 103              		.loc 1 568 46
 104 0090 518F     		or	a4,a4,a2
 565:C:/Users/stapi/OneDrive/Desktop/GD32VW553/V1_MQTT_OK/GD32VW55X_Wifi_BLE_SDK/GD32VW55x_RELEASE_V1.0.2/MSDK/plf/GD32VW55x_standard_peripheral/Source\gd32vw55x_qspi.c ****                             cmd->altebytes_size | cmd->altebytes_mode |
 105              		.loc 1 565 27
 106 0092 232AE880 		sw	a4,-2028(a6)
 107 0096 8280     		ret
 108              	.L4:
 571:C:/Users/stapi/OneDrive/Desktop/GD32VW553/V1_MQTT_OK/GD32VW55X_Wifi_BLE_SDK/GD32VW55x_RELEASE_V1.0.2/MSDK/plf/GD32VW55x_standard_peripheral/Source\gd32vw55x_qspi.c ****                 /* command with instruction and address */
 109              		.loc 1 571 13 is_stmt 1
 574:C:/Users/stapi/OneDrive/Desktop/GD32VW553/V1_MQTT_OK/GD32VW55X_Wifi_BLE_SDK/GD32VW55x_RELEASE_V1.0.2/MSDK/plf/GD32VW55x_standard_peripheral/Source\gd32vw55x_qspi.c ****                             cmd->altebytes_mode | cmd->addr_size | cmd->addr_mode |
 110              		.loc 1 574 64 is_stmt 0
 111 0098 1451     		lw	a3,32(a0)
 571:C:/Users/stapi/OneDrive/Desktop/GD32VW553/V1_MQTT_OK/GD32VW55X_Wifi_BLE_SDK/GD32VW55x_RELEASE_V1.0.2/MSDK/plf/GD32VW55x_standard_peripheral/Source\gd32vw55x_qspi.c ****                 /* command with instruction and address */
 112              		.loc 1 571 19
 113 009a 1845     		lw	a4,8(a0)
 576:C:/Users/stapi/OneDrive/Desktop/GD32VW553/V1_MQTT_OK/GD32VW55X_Wifi_BLE_SDK/GD32VW55x_RELEASE_V1.0.2/MSDK/plf/GD32VW55x_standard_peripheral/Source\gd32vw55x_qspi.c **** 
 114              		.loc 1 576 56
 115 009c 83284500 		lw	a7,4(a0)
 574:C:/Users/stapi/OneDrive/Desktop/GD32VW553/V1_MQTT_OK/GD32VW55X_Wifi_BLE_SDK/GD32VW55x_RELEASE_V1.0.2/MSDK/plf/GD32VW55x_standard_peripheral/Source\gd32vw55x_qspi.c ****                             cmd->altebytes_mode | cmd->addr_size | cmd->addr_mode |
 116              		.loc 1 574 32
 117 00a0 03284502 		lw	a6,36(a0)
 574:C:/Users/stapi/OneDrive/Desktop/GD32VW553/V1_MQTT_OK/GD32VW55X_Wifi_BLE_SDK/GD32VW55x_RELEASE_V1.0.2/MSDK/plf/GD32VW55x_standard_peripheral/Source\gd32vw55x_qspi.c ****                             cmd->altebytes_mode | cmd->addr_size | cmd->addr_mode |
 118              		.loc 1 574 91
 119 00a4 5055     		lw	a2,44(a0)
 574:C:/Users/stapi/OneDrive/Desktop/GD32VW553/V1_MQTT_OK/GD32VW55X_Wifi_BLE_SDK/GD32VW55x_RELEASE_V1.0.2/MSDK/plf/GD32VW55x_standard_peripheral/Source\gd32vw55x_qspi.c ****                             cmd->altebytes_mode | cmd->addr_size | cmd->addr_mode |
 120              		.loc 1 574 64
 121 00a6 CA06     		slli	a3,a3,18
 571:C:/Users/stapi/OneDrive/Desktop/GD32VW553/V1_MQTT_OK/GD32VW55X_Wifi_BLE_SDK/GD32VW55x_RELEASE_V1.0.2/MSDK/plf/GD32VW55x_standard_peripheral/Source\gd32vw55x_qspi.c ****                 /* command with instruction and address */
 122              		.loc 1 571 15
 123 00a8 1DC7     		beq	a4,zero,.L8
 574:C:/Users/stapi/OneDrive/Desktop/GD32VW553/V1_MQTT_OK/GD32VW55X_Wifi_BLE_SDK/GD32VW55x_RELEASE_V1.0.2/MSDK/plf/GD32VW55x_standard_peripheral/Source\gd32vw55x_qspi.c ****                             cmd->altebytes_mode | cmd->addr_size | cmd->addr_mode |
 124              		.loc 1 574 17 is_stmt 1
 576:C:/Users/stapi/OneDrive/Desktop/GD32VW553/V1_MQTT_OK/GD32VW55X_Wifi_BLE_SDK/GD32VW55x_RELEASE_V1.0.2/MSDK/plf/GD32VW55x_standard_peripheral/Source\gd32vw55x_qspi.c **** 
 125              		.loc 1 576 70 is_stmt 0
 126 00aa 5D8F     		or	a4,a5,a4
 127 00ac 4D8F     		or	a4,a4,a1
 128 00ae 5C45     		lw	a5,12(a0)
 129 00b0 33671701 		or	a4,a4,a7
 130 00b4 33670701 		or	a4,a4,a6
 131 00b8 518F     		or	a4,a4,a2
 132 00ba 5D8F     		or	a4,a4,a5
 133 00bc 558F     		or	a4,a4,a3
 574:C:/Users/stapi/OneDrive/Desktop/GD32VW553/V1_MQTT_OK/GD32VW55X_Wifi_BLE_SDK/GD32VW55x_RELEASE_V1.0.2/MSDK/plf/GD32VW55x_standard_peripheral/Source\gd32vw55x_qspi.c ****                             cmd->altebytes_mode | cmd->addr_size | cmd->addr_mode |
 134              		.loc 1 574 27
 135 00be B7670240 		li	a5,1073897472
 136 00c2 23AAE780 		sw	a4,-2028(a5)
 578:C:/Users/stapi/OneDrive/Desktop/GD32VW553/V1_MQTT_OK/GD32VW55X_Wifi_BLE_SDK/GD32VW55x_RELEASE_V1.0.2/MSDK/plf/GD32VW55x_standard_peripheral/Source\gd32vw55x_qspi.c ****                     /* configure QSPI_ADDR register with address value */
 137              		.loc 1 578 17 is_stmt 1
 138              	.L25:
 605:C:/Users/stapi/OneDrive/Desktop/GD32VW553/V1_MQTT_OK/GD32VW55X_Wifi_BLE_SDK/GD32VW55x_RELEASE_V1.0.2/MSDK/plf/GD32VW55x_standard_peripheral/Source\gd32vw55x_qspi.c ****                 }
 606:C:/Users/stapi/OneDrive/Desktop/GD32VW553/V1_MQTT_OK/GD32VW55X_Wifi_BLE_SDK/GD32VW55x_RELEASE_V1.0.2/MSDK/plf/GD32VW55x_standard_peripheral/Source\gd32vw55x_qspi.c ****             } else {
 607:C:/Users/stapi/OneDrive/Desktop/GD32VW553/V1_MQTT_OK/GD32VW55X_Wifi_BLE_SDK/GD32VW55x_RELEASE_V1.0.2/MSDK/plf/GD32VW55x_standard_peripheral/Source\gd32vw55x_qspi.c ****                 /* command with only alternate bytes */
 608:C:/Users/stapi/OneDrive/Desktop/GD32VW553/V1_MQTT_OK/GD32VW55X_Wifi_BLE_SDK/GD32VW55x_RELEASE_V1.0.2/MSDK/plf/GD32VW55x_standard_peripheral/Source\gd32vw55x_qspi.c ****                 /* configure QSPI_TCFG register with all communications parameters */
 609:C:/Users/stapi/OneDrive/Desktop/GD32VW553/V1_MQTT_OK/GD32VW55X_Wifi_BLE_SDK/GD32VW55x_RELEASE_V1.0.2/MSDK/plf/GD32VW55x_standard_peripheral/Source\gd32vw55x_qspi.c ****                 QSPI_TCFG = cmd->data_mode | (cmd->dummycycles << TCFG_DUMYC_OFFSET) | cmd->sioo_mo
 610:C:/Users/stapi/OneDrive/Desktop/GD32VW553/V1_MQTT_OK/GD32VW55X_Wifi_BLE_SDK/GD32VW55x_RELEASE_V1.0.2/MSDK/plf/GD32VW55x_standard_peripheral/Source\gd32vw55x_qspi.c ****                             cmd->altebytes_mode | cmd->altebytes_size |
 611:C:/Users/stapi/OneDrive/Desktop/GD32VW553/V1_MQTT_OK/GD32VW55X_Wifi_BLE_SDK/GD32VW55x_RELEASE_V1.0.2/MSDK/plf/GD32VW55x_standard_peripheral/Source\gd32vw55x_qspi.c ****                             cmd->addr_mode | cmd->instruction_mode | functionalmode;
 612:C:/Users/stapi/OneDrive/Desktop/GD32VW553/V1_MQTT_OK/GD32VW55X_Wifi_BLE_SDK/GD32VW55x_RELEASE_V1.0.2/MSDK/plf/GD32VW55x_standard_peripheral/Source\gd32vw55x_qspi.c ****             }
 613:C:/Users/stapi/OneDrive/Desktop/GD32VW553/V1_MQTT_OK/GD32VW55X_Wifi_BLE_SDK/GD32VW55x_RELEASE_V1.0.2/MSDK/plf/GD32VW55x_standard_peripheral/Source\gd32vw55x_qspi.c ****         } else {
 614:C:/Users/stapi/OneDrive/Desktop/GD32VW553/V1_MQTT_OK/GD32VW55X_Wifi_BLE_SDK/GD32VW55x_RELEASE_V1.0.2/MSDK/plf/GD32VW55x_standard_peripheral/Source\gd32vw55x_qspi.c ****             if(cmd->addr_mode != QSPI_ADDR_NONE) {
 615:C:/Users/stapi/OneDrive/Desktop/GD32VW553/V1_MQTT_OK/GD32VW55X_Wifi_BLE_SDK/GD32VW55x_RELEASE_V1.0.2/MSDK/plf/GD32VW55x_standard_peripheral/Source\gd32vw55x_qspi.c ****                 /* command with only address */
 616:C:/Users/stapi/OneDrive/Desktop/GD32VW553/V1_MQTT_OK/GD32VW55X_Wifi_BLE_SDK/GD32VW55x_RELEASE_V1.0.2/MSDK/plf/GD32VW55x_standard_peripheral/Source\gd32vw55x_qspi.c ****                 /* configure QSPI_TCFG register with all communications parameters */
 617:C:/Users/stapi/OneDrive/Desktop/GD32VW553/V1_MQTT_OK/GD32VW55X_Wifi_BLE_SDK/GD32VW55x_RELEASE_V1.0.2/MSDK/plf/GD32VW55x_standard_peripheral/Source\gd32vw55x_qspi.c ****                 QSPI_TCFG = cmd->data_mode | (cmd->dummycycles << TCFG_DUMYC_OFFSET) | cmd->sioo_mo
 618:C:/Users/stapi/OneDrive/Desktop/GD32VW553/V1_MQTT_OK/GD32VW55X_Wifi_BLE_SDK/GD32VW55x_RELEASE_V1.0.2/MSDK/plf/GD32VW55x_standard_peripheral/Source\gd32vw55x_qspi.c ****                             cmd->altebytes_mode | cmd->addr_size |
 619:C:/Users/stapi/OneDrive/Desktop/GD32VW553/V1_MQTT_OK/GD32VW55X_Wifi_BLE_SDK/GD32VW55x_RELEASE_V1.0.2/MSDK/plf/GD32VW55x_standard_peripheral/Source\gd32vw55x_qspi.c ****                             cmd->addr_mode | cmd->instruction_mode | functionalmode;
 620:C:/Users/stapi/OneDrive/Desktop/GD32VW553/V1_MQTT_OK/GD32VW55X_Wifi_BLE_SDK/GD32VW55x_RELEASE_V1.0.2/MSDK/plf/GD32VW55x_standard_peripheral/Source\gd32vw55x_qspi.c **** 
 621:C:/Users/stapi/OneDrive/Desktop/GD32VW553/V1_MQTT_OK/GD32VW55X_Wifi_BLE_SDK/GD32VW55x_RELEASE_V1.0.2/MSDK/plf/GD32VW55x_standard_peripheral/Source\gd32vw55x_qspi.c ****                 if(functionalmode != QSPI_MEMORY_MAPPED) {
 139              		.loc 1 621 17
 140              		.loc 1 621 19 is_stmt 0
 141 00c6 3707000C 		li	a4,201326592
 142 00ca 6381E502 		beq	a1,a4,.L1
 622:C:/Users/stapi/OneDrive/Desktop/GD32VW553/V1_MQTT_OK/GD32VW55X_Wifi_BLE_SDK/GD32VW55x_RELEASE_V1.0.2/MSDK/plf/GD32VW55x_standard_peripheral/Source\gd32vw55x_qspi.c ****                     /* configure QSPI_ADDR register with address value */
 623:C:/Users/stapi/OneDrive/Desktop/GD32VW553/V1_MQTT_OK/GD32VW55X_Wifi_BLE_SDK/GD32VW55x_RELEASE_V1.0.2/MSDK/plf/GD32VW55x_standard_peripheral/Source\gd32vw55x_qspi.c ****                     QSPI_ADDR = cmd->addr;
 143              		.loc 1 623 21 is_stmt 1
 144              		.loc 1 623 36 is_stmt 0
 145 00ce 1849     		lw	a4,16(a0)
 146              		.loc 1 623 31
 147 00d0 23ACE780 		sw	a4,-2024(a5)
 148 00d4 8280     		ret
 149              	.L8:
 585:C:/Users/stapi/OneDrive/Desktop/GD32VW553/V1_MQTT_OK/GD32VW55X_Wifi_BLE_SDK/GD32VW55x_RELEASE_V1.0.2/MSDK/plf/GD32VW55x_standard_peripheral/Source\gd32vw55x_qspi.c ****                             cmd->altebytes_mode | cmd->addr_mode | cmd->instruction_mode |
 150              		.loc 1 585 17 is_stmt 1
 587:C:/Users/stapi/OneDrive/Desktop/GD32VW553/V1_MQTT_OK/GD32VW55X_Wifi_BLE_SDK/GD32VW55x_RELEASE_V1.0.2/MSDK/plf/GD32VW55x_standard_peripheral/Source\gd32vw55x_qspi.c ****             }
 151              		.loc 1 587 46 is_stmt 0
 152 00d6 B3E71701 		or	a5,a5,a7
 153 00da CD8F     		or	a5,a5,a1
 154 00dc B3E70701 		or	a5,a5,a6
 155 00e0 D18F     		or	a5,a5,a2
 156              	.L21:
 624:C:/Users/stapi/OneDrive/Desktop/GD32VW553/V1_MQTT_OK/GD32VW55X_Wifi_BLE_SDK/GD32VW55x_RELEASE_V1.0.2/MSDK/plf/GD32VW55x_standard_peripheral/Source\gd32vw55x_qspi.c ****                 }
 625:C:/Users/stapi/OneDrive/Desktop/GD32VW553/V1_MQTT_OK/GD32VW55X_Wifi_BLE_SDK/GD32VW55x_RELEASE_V1.0.2/MSDK/plf/GD32VW55x_standard_peripheral/Source\gd32vw55x_qspi.c ****             } else {
 626:C:/Users/stapi/OneDrive/Desktop/GD32VW553/V1_MQTT_OK/GD32VW55X_Wifi_BLE_SDK/GD32VW55x_RELEASE_V1.0.2/MSDK/plf/GD32VW55x_standard_peripheral/Source\gd32vw55x_qspi.c ****                 /* command with only data phase */
 627:C:/Users/stapi/OneDrive/Desktop/GD32VW553/V1_MQTT_OK/GD32VW55X_Wifi_BLE_SDK/GD32VW55x_RELEASE_V1.0.2/MSDK/plf/GD32VW55x_standard_peripheral/Source\gd32vw55x_qspi.c ****                 if(cmd->data_mode != QSPI_DATA_NONE) {
 628:C:/Users/stapi/OneDrive/Desktop/GD32VW553/V1_MQTT_OK/GD32VW55X_Wifi_BLE_SDK/GD32VW55x_RELEASE_V1.0.2/MSDK/plf/GD32VW55x_standard_peripheral/Source\gd32vw55x_qspi.c ****                     /* configure QSPI_TCFG register with all communications parameters */
 629:C:/Users/stapi/OneDrive/Desktop/GD32VW553/V1_MQTT_OK/GD32VW55X_Wifi_BLE_SDK/GD32VW55x_RELEASE_V1.0.2/MSDK/plf/GD32VW55x_standard_peripheral/Source\gd32vw55x_qspi.c ****                     QSPI_TCFG = cmd->data_mode | (cmd->dummycycles << TCFG_DUMYC_OFFSET) | cmd->sio
 630:C:/Users/stapi/OneDrive/Desktop/GD32VW553/V1_MQTT_OK/GD32VW55X_Wifi_BLE_SDK/GD32VW55x_RELEASE_V1.0.2/MSDK/plf/GD32VW55x_standard_peripheral/Source\gd32vw55x_qspi.c ****                                 cmd->altebytes_mode | cmd->addr_mode |
 631:C:/Users/stapi/OneDrive/Desktop/GD32VW553/V1_MQTT_OK/GD32VW55X_Wifi_BLE_SDK/GD32VW55x_RELEASE_V1.0.2/MSDK/plf/GD32VW55x_standard_peripheral/Source\gd32vw55x_qspi.c ****                                 cmd->instruction_mode | functionalmode;
 157              		.loc 1 631 55
 158 00e2 D58F     		or	a5,a5,a3
 629:C:/Users/stapi/OneDrive/Desktop/GD32VW553/V1_MQTT_OK/GD32VW55X_Wifi_BLE_SDK/GD32VW55x_RELEASE_V1.0.2/MSDK/plf/GD32VW55x_standard_peripheral/Source\gd32vw55x_qspi.c ****                                 cmd->altebytes_mode | cmd->addr_mode |
 159              		.loc 1 629 31
 160 00e4 37670240 		li	a4,1073897472
 161 00e8 232AF780 		sw	a5,-2028(a4)
 162              	.L1:
 632:C:/Users/stapi/OneDrive/Desktop/GD32VW553/V1_MQTT_OK/GD32VW55X_Wifi_BLE_SDK/GD32VW55x_RELEASE_V1.0.2/MSDK/plf/GD32VW55x_standard_peripheral/Source\gd32vw55x_qspi.c ****                 }
 633:C:/Users/stapi/OneDrive/Desktop/GD32VW553/V1_MQTT_OK/GD32VW55X_Wifi_BLE_SDK/GD32VW55x_RELEASE_V1.0.2/MSDK/plf/GD32VW55x_standard_peripheral/Source\gd32vw55x_qspi.c ****             }
 634:C:/Users/stapi/OneDrive/Desktop/GD32VW553/V1_MQTT_OK/GD32VW55X_Wifi_BLE_SDK/GD32VW55x_RELEASE_V1.0.2/MSDK/plf/GD32VW55x_standard_peripheral/Source\gd32vw55x_qspi.c ****         }
 635:C:/Users/stapi/OneDrive/Desktop/GD32VW553/V1_MQTT_OK/GD32VW55X_Wifi_BLE_SDK/GD32VW55x_RELEASE_V1.0.2/MSDK/plf/GD32VW55x_standard_peripheral/Source\gd32vw55x_qspi.c ****     }
 636:C:/Users/stapi/OneDrive/Desktop/GD32VW553/V1_MQTT_OK/GD32VW55X_Wifi_BLE_SDK/GD32VW55x_RELEASE_V1.0.2/MSDK/plf/GD32VW55x_standard_peripheral/Source\gd32vw55x_qspi.c **** }
 163              		.loc 1 636 1
 164 00ec 8280     		ret
 165              	.L3:
 591:C:/Users/stapi/OneDrive/Desktop/GD32VW553/V1_MQTT_OK/GD32VW55X_Wifi_BLE_SDK/GD32VW55x_RELEASE_V1.0.2/MSDK/plf/GD32VW55x_standard_peripheral/Source\gd32vw55x_qspi.c ****             /* configure QSPI_ALTE register with alternate bytes value */
 166              		.loc 1 591 9 is_stmt 1
 591:C:/Users/stapi/OneDrive/Desktop/GD32VW553/V1_MQTT_OK/GD32VW55X_Wifi_BLE_SDK/GD32VW55x_RELEASE_V1.0.2/MSDK/plf/GD32VW55x_standard_peripheral/Source\gd32vw55x_qspi.c ****             /* configure QSPI_ALTE register with alternate bytes value */
 167              		.loc 1 591 11 is_stmt 0
 168 00ee 25C3     		beq	a4,zero,.L10
 593:C:/Users/stapi/OneDrive/Desktop/GD32VW553/V1_MQTT_OK/GD32VW55X_Wifi_BLE_SDK/GD32VW55x_RELEASE_V1.0.2/MSDK/plf/GD32VW55x_standard_peripheral/Source\gd32vw55x_qspi.c **** 
 169              		.loc 1 593 13 is_stmt 1
 593:C:/Users/stapi/OneDrive/Desktop/GD32VW553/V1_MQTT_OK/GD32VW55X_Wifi_BLE_SDK/GD32VW55x_RELEASE_V1.0.2/MSDK/plf/GD32VW55x_standard_peripheral/Source\gd32vw55x_qspi.c **** 
 170              		.loc 1 593 28 is_stmt 0
 171 00f0 5C4D     		lw	a5,28(a0)
 593:C:/Users/stapi/OneDrive/Desktop/GD32VW553/V1_MQTT_OK/GD32VW55X_Wifi_BLE_SDK/GD32VW55x_RELEASE_V1.0.2/MSDK/plf/GD32VW55x_standard_peripheral/Source\gd32vw55x_qspi.c **** 
 172              		.loc 1 593 23
 173 00f2 37680240 		li	a6,1073897472
 174 00f6 232EF880 		sw	a5,-2020(a6)
 595:C:/Users/stapi/OneDrive/Desktop/GD32VW553/V1_MQTT_OK/GD32VW55X_Wifi_BLE_SDK/GD32VW55x_RELEASE_V1.0.2/MSDK/plf/GD32VW55x_standard_peripheral/Source\gd32vw55x_qspi.c ****                 /* command with address and alternate bytes */
 175              		.loc 1 595 13 is_stmt 1
 595:C:/Users/stapi/OneDrive/Desktop/GD32VW553/V1_MQTT_OK/GD32VW55X_Wifi_BLE_SDK/GD32VW55x_RELEASE_V1.0.2/MSDK/plf/GD32VW55x_standard_peripheral/Source\gd32vw55x_qspi.c ****                 /* command with address and alternate bytes */
 176              		.loc 1 595 19 is_stmt 0
 177 00fa 1845     		lw	a4,8(a0)
 178 00fc 5451     		lw	a3,36(a0)
 179 00fe 83280500 		lw	a7,0(a0)
 180 0102 032E4501 		lw	t3,20(a0)
 181 0106 5C55     		lw	a5,44(a0)
 182 0108 03238501 		lw	t1,24(a0)
 183 010c 1051     		lw	a2,32(a0)
 595:C:/Users/stapi/OneDrive/Desktop/GD32VW553/V1_MQTT_OK/GD32VW55X_Wifi_BLE_SDK/GD32VW55x_RELEASE_V1.0.2/MSDK/plf/GD32VW55x_standard_peripheral/Source\gd32vw55x_qspi.c ****                 /* command with address and alternate bytes */
 184              		.loc 1 595 15
 185 010e 0DC3     		beq	a4,zero,.L11
 598:C:/Users/stapi/OneDrive/Desktop/GD32VW553/V1_MQTT_OK/GD32VW55X_Wifi_BLE_SDK/GD32VW55x_RELEASE_V1.0.2/MSDK/plf/GD32VW55x_standard_peripheral/Source\gd32vw55x_qspi.c ****                             cmd->altebytes_mode | cmd->altebytes_size | cmd->addr_size |
 186              		.loc 1 598 17 is_stmt 1
 600:C:/Users/stapi/OneDrive/Desktop/GD32VW553/V1_MQTT_OK/GD32VW55X_Wifi_BLE_SDK/GD32VW55x_RELEASE_V1.0.2/MSDK/plf/GD32VW55x_standard_peripheral/Source\gd32vw55x_qspi.c **** 
 187              		.loc 1 600 68 is_stmt 0
 188 0110 558F     		or	a4,a4,a3
 189 0112 4D8F     		or	a4,a4,a1
 190 0114 D98F     		or	a5,a4,a5
 191 0116 5845     		lw	a4,12(a0)
 192 0118 B3E7C701 		or	a5,a5,t3
 193 011c B3E76700 		or	a5,a5,t1
 194 0120 D98F     		or	a5,a5,a4
 195 0122 B3E71701 		or	a5,a5,a7
 598:C:/Users/stapi/OneDrive/Desktop/GD32VW553/V1_MQTT_OK/GD32VW55X_Wifi_BLE_SDK/GD32VW55x_RELEASE_V1.0.2/MSDK/plf/GD32VW55x_standard_peripheral/Source\gd32vw55x_qspi.c ****                             cmd->altebytes_mode | cmd->altebytes_size | cmd->addr_size |
 196              		.loc 1 598 64
 197 0126 4A06     		slli	a2,a2,18
 600:C:/Users/stapi/OneDrive/Desktop/GD32VW553/V1_MQTT_OK/GD32VW55X_Wifi_BLE_SDK/GD32VW55x_RELEASE_V1.0.2/MSDK/plf/GD32VW55x_standard_peripheral/Source\gd32vw55x_qspi.c **** 
 198              		.loc 1 600 68
 199 0128 D18F     		or	a5,a5,a2
 598:C:/Users/stapi/OneDrive/Desktop/GD32VW553/V1_MQTT_OK/GD32VW55X_Wifi_BLE_SDK/GD32VW55x_RELEASE_V1.0.2/MSDK/plf/GD32VW55x_standard_peripheral/Source\gd32vw55x_qspi.c ****                             cmd->altebytes_mode | cmd->altebytes_size | cmd->addr_size |
 200              		.loc 1 598 27
 201 012a 232AF880 		sw	a5,-2028(a6)
 202 012e 2DBF     		j	.L23
 203              	.L11:
 609:C:/Users/stapi/OneDrive/Desktop/GD32VW553/V1_MQTT_OK/GD32VW55X_Wifi_BLE_SDK/GD32VW55x_RELEASE_V1.0.2/MSDK/plf/GD32VW55x_standard_peripheral/Source\gd32vw55x_qspi.c ****                             cmd->altebytes_mode | cmd->altebytes_size |
 204              		.loc 1 609 17 is_stmt 1
 611:C:/Users/stapi/OneDrive/Desktop/GD32VW553/V1_MQTT_OK/GD32VW55X_Wifi_BLE_SDK/GD32VW55x_RELEASE_V1.0.2/MSDK/plf/GD32VW55x_standard_peripheral/Source\gd32vw55x_qspi.c ****             }
 205              		.loc 1 611 68 is_stmt 0
 206 0130 33E7F600 		or	a4,a3,a5
 207 0134 B367B700 		or	a5,a4,a1
 208 0138 B3E7C701 		or	a5,a5,t3
 209 013c B3E76700 		or	a5,a5,t1
 210 0140 B3E71701 		or	a5,a5,a7
 609:C:/Users/stapi/OneDrive/Desktop/GD32VW553/V1_MQTT_OK/GD32VW55X_Wifi_BLE_SDK/GD32VW55x_RELEASE_V1.0.2/MSDK/plf/GD32VW55x_standard_peripheral/Source\gd32vw55x_qspi.c ****                             cmd->altebytes_mode | cmd->altebytes_size |
 211              		.loc 1 609 64
 212 0144 4A06     		slli	a2,a2,18
 611:C:/Users/stapi/OneDrive/Desktop/GD32VW553/V1_MQTT_OK/GD32VW55X_Wifi_BLE_SDK/GD32VW55x_RELEASE_V1.0.2/MSDK/plf/GD32VW55x_standard_peripheral/Source\gd32vw55x_qspi.c ****             }
 213              		.loc 1 611 68
 214 0146 D18F     		or	a5,a5,a2
 609:C:/Users/stapi/OneDrive/Desktop/GD32VW553/V1_MQTT_OK/GD32VW55X_Wifi_BLE_SDK/GD32VW55x_RELEASE_V1.0.2/MSDK/plf/GD32VW55x_standard_peripheral/Source\gd32vw55x_qspi.c ****                             cmd->altebytes_mode | cmd->altebytes_size |
 215              		.loc 1 609 27
 216 0148 232AF880 		sw	a5,-2028(a6)
 217 014c 8280     		ret
 218              	.L10:
 614:C:/Users/stapi/OneDrive/Desktop/GD32VW553/V1_MQTT_OK/GD32VW55X_Wifi_BLE_SDK/GD32VW55x_RELEASE_V1.0.2/MSDK/plf/GD32VW55x_standard_peripheral/Source\gd32vw55x_qspi.c ****                 /* command with only address */
 219              		.loc 1 614 13 is_stmt 1
 614:C:/Users/stapi/OneDrive/Desktop/GD32VW553/V1_MQTT_OK/GD32VW55X_Wifi_BLE_SDK/GD32VW55x_RELEASE_V1.0.2/MSDK/plf/GD32VW55x_standard_peripheral/Source\gd32vw55x_qspi.c ****                 /* command with only address */
 220              		.loc 1 614 19 is_stmt 0
 221 014e 1045     		lw	a2,8(a0)
 574:C:/Users/stapi/OneDrive/Desktop/GD32VW553/V1_MQTT_OK/GD32VW55X_Wifi_BLE_SDK/GD32VW55x_RELEASE_V1.0.2/MSDK/plf/GD32VW55x_standard_peripheral/Source\gd32vw55x_qspi.c ****                             cmd->altebytes_mode | cmd->addr_size | cmd->addr_mode |
 222              		.loc 1 574 32
 223 0150 5451     		lw	a3,36(a0)
 614:C:/Users/stapi/OneDrive/Desktop/GD32VW553/V1_MQTT_OK/GD32VW55X_Wifi_BLE_SDK/GD32VW55x_RELEASE_V1.0.2/MSDK/plf/GD32VW55x_standard_peripheral/Source\gd32vw55x_qspi.c ****                 /* command with only address */
 224              		.loc 1 614 15
 225 0152 19CE     		beq	a2,zero,.L12
 617:C:/Users/stapi/OneDrive/Desktop/GD32VW553/V1_MQTT_OK/GD32VW55X_Wifi_BLE_SDK/GD32VW55x_RELEASE_V1.0.2/MSDK/plf/GD32VW55x_standard_peripheral/Source\gd32vw55x_qspi.c ****                             cmd->altebytes_mode | cmd->addr_size |
 226              		.loc 1 617 17 is_stmt 1
 619:C:/Users/stapi/OneDrive/Desktop/GD32VW553/V1_MQTT_OK/GD32VW55X_Wifi_BLE_SDK/GD32VW55x_RELEASE_V1.0.2/MSDK/plf/GD32VW55x_standard_peripheral/Source\gd32vw55x_qspi.c **** 
 227              		.loc 1 619 68 is_stmt 0
 228 0154 558E     		or	a2,a3,a2
 229 0156 5455     		lw	a3,44(a0)
 230 0158 4D8E     		or	a2,a2,a1
 617:C:/Users/stapi/OneDrive/Desktop/GD32VW553/V1_MQTT_OK/GD32VW55X_Wifi_BLE_SDK/GD32VW55x_RELEASE_V1.0.2/MSDK/plf/GD32VW55x_standard_peripheral/Source\gd32vw55x_qspi.c ****                             cmd->altebytes_mode | cmd->addr_size |
 231              		.loc 1 617 64
 232 015a 1C51     		lw	a5,32(a0)
 619:C:/Users/stapi/OneDrive/Desktop/GD32VW553/V1_MQTT_OK/GD32VW55X_Wifi_BLE_SDK/GD32VW55x_RELEASE_V1.0.2/MSDK/plf/GD32VW55x_standard_peripheral/Source\gd32vw55x_qspi.c **** 
 233              		.loc 1 619 68
 234 015c 558E     		or	a2,a2,a3
 235 015e 5445     		lw	a3,12(a0)
 617:C:/Users/stapi/OneDrive/Desktop/GD32VW553/V1_MQTT_OK/GD32VW55X_Wifi_BLE_SDK/GD32VW55x_RELEASE_V1.0.2/MSDK/plf/GD32VW55x_standard_peripheral/Source\gd32vw55x_qspi.c ****                             cmd->altebytes_mode | cmd->addr_size |
 236              		.loc 1 617 64
 237 0160 CA07     		slli	a5,a5,18
 619:C:/Users/stapi/OneDrive/Desktop/GD32VW553/V1_MQTT_OK/GD32VW55X_Wifi_BLE_SDK/GD32VW55x_RELEASE_V1.0.2/MSDK/plf/GD32VW55x_standard_peripheral/Source\gd32vw55x_qspi.c **** 
 238              		.loc 1 619 68
 239 0162 558E     		or	a2,a2,a3
 240 0164 5D8E     		or	a2,a2,a5
 617:C:/Users/stapi/OneDrive/Desktop/GD32VW553/V1_MQTT_OK/GD32VW55X_Wifi_BLE_SDK/GD32VW55x_RELEASE_V1.0.2/MSDK/plf/GD32VW55x_standard_peripheral/Source\gd32vw55x_qspi.c ****                             cmd->altebytes_mode | cmd->addr_size |
 241              		.loc 1 617 27
 242 0166 B7670240 		li	a5,1073897472
 243 016a 23AAC780 		sw	a2,-2028(a5)
 244 016e A1BF     		j	.L25
 245              	.L12:
 627:C:/Users/stapi/OneDrive/Desktop/GD32VW553/V1_MQTT_OK/GD32VW55X_Wifi_BLE_SDK/GD32VW55x_RELEASE_V1.0.2/MSDK/plf/GD32VW55x_standard_peripheral/Source\gd32vw55x_qspi.c ****                     /* configure QSPI_TCFG register with all communications parameters */
 246              		.loc 1 627 17 is_stmt 1
 627:C:/Users/stapi/OneDrive/Desktop/GD32VW553/V1_MQTT_OK/GD32VW55X_Wifi_BLE_SDK/GD32VW55x_RELEASE_V1.0.2/MSDK/plf/GD32VW55x_standard_peripheral/Source\gd32vw55x_qspi.c ****                     /* configure QSPI_TCFG register with all communications parameters */
 247              		.loc 1 627 19 is_stmt 0
 248 0170 B5DE     		beq	a3,zero,.L1
 629:C:/Users/stapi/OneDrive/Desktop/GD32VW553/V1_MQTT_OK/GD32VW55X_Wifi_BLE_SDK/GD32VW55x_RELEASE_V1.0.2/MSDK/plf/GD32VW55x_standard_peripheral/Source\gd32vw55x_qspi.c ****                                 cmd->altebytes_mode | cmd->addr_mode |
 249              		.loc 1 629 21 is_stmt 1
 631:C:/Users/stapi/OneDrive/Desktop/GD32VW553/V1_MQTT_OK/GD32VW55X_Wifi_BLE_SDK/GD32VW55x_RELEASE_V1.0.2/MSDK/plf/GD32VW55x_standard_peripheral/Source\gd32vw55x_qspi.c ****                 }
 250              		.loc 1 631 55 is_stmt 0
 251 0172 5C55     		lw	a5,44(a0)
 252 0174 DD8E     		or	a3,a3,a5
 253 0176 B3E7B600 		or	a5,a3,a1
 629:C:/Users/stapi/OneDrive/Desktop/GD32VW553/V1_MQTT_OK/GD32VW55X_Wifi_BLE_SDK/GD32VW55x_RELEASE_V1.0.2/MSDK/plf/GD32VW55x_standard_peripheral/Source\gd32vw55x_qspi.c ****                                 cmd->altebytes_mode | cmd->addr_mode |
 254              		.loc 1 629 68
 255 017a 1451     		lw	a3,32(a0)
 256 017c CA06     		slli	a3,a3,18
 257 017e 95B7     		j	.L21
 258              		.cfi_endproc
 259              	.LFE386:
 261              		.section	.text.qspi_deinit,"ax",@progbits
 262              		.align	1
 263              		.globl	qspi_deinit
 265              	qspi_deinit:
 266              	.LFB365:
  53:C:/Users/stapi/OneDrive/Desktop/GD32VW553/V1_MQTT_OK/GD32VW55X_Wifi_BLE_SDK/GD32VW55x_RELEASE_V1.0.2/MSDK/plf/GD32VW55x_standard_peripheral/Source\gd32vw55x_qspi.c ****     rcu_periph_reset_enable(RCU_QSPIRST);
 267              		.loc 1 53 1 is_stmt 1
 268              		.cfi_startproc
 269 0000 17030000 		call	t0,__riscv_save_0
 269      E7020300 
 270              		.cfi_offset 1, -4
 271              		.cfi_def_cfa_offset 16
  54:C:/Users/stapi/OneDrive/Desktop/GD32VW553/V1_MQTT_OK/GD32VW55X_Wifi_BLE_SDK/GD32VW55x_RELEASE_V1.0.2/MSDK/plf/GD32VW55x_standard_peripheral/Source\gd32vw55x_qspi.c ****     rcu_periph_reset_disable(RCU_QSPIRST);
 272              		.loc 1 54 5
 273 0008 13051060 		li	a0,1537
 274 000c 97000000 		call	rcu_periph_reset_enable
 274      E7800000 
 275              	.LVL1:
  55:C:/Users/stapi/OneDrive/Desktop/GD32VW553/V1_MQTT_OK/GD32VW55X_Wifi_BLE_SDK/GD32VW55x_RELEASE_V1.0.2/MSDK/plf/GD32VW55x_standard_peripheral/Source\gd32vw55x_qspi.c **** }
 276              		.loc 1 55 5
 277 0014 13051060 		li	a0,1537
 278 0018 97000000 		call	rcu_periph_reset_disable
 278      E7800000 
 279              	.LVL2:
  56:C:/Users/stapi/OneDrive/Desktop/GD32VW553/V1_MQTT_OK/GD32VW55X_Wifi_BLE_SDK/GD32VW55x_RELEASE_V1.0.2/MSDK/plf/GD32VW55x_standard_peripheral/Source\gd32vw55x_qspi.c **** 
 280              		.loc 1 56 1 is_stmt 0
 281 0020 17030000 		tail	__riscv_restore_0
 281      67000300 
 282              		.cfi_restore 1
 283              		.cfi_def_cfa_offset 0
 284              		.cfi_endproc
 285              	.LFE365:
 287              		.section	.text.qspi_struct_para_init,"ax",@progbits
 288              		.align	1
 289              		.globl	qspi_struct_para_init
 291              	qspi_struct_para_init:
 292              	.LFB366:
  65:C:/Users/stapi/OneDrive/Desktop/GD32VW553/V1_MQTT_OK/GD32VW55X_Wifi_BLE_SDK/GD32VW55x_RELEASE_V1.0.2/MSDK/plf/GD32VW55x_standard_peripheral/Source\gd32vw55x_qspi.c ****     /* set the QSPI struct with the default values */
 293              		.loc 1 65 1 is_stmt 1
 294              		.cfi_startproc
 295              	.LVL3:
  67:C:/Users/stapi/OneDrive/Desktop/GD32VW553/V1_MQTT_OK/GD32VW55X_Wifi_BLE_SDK/GD32VW55x_RELEASE_V1.0.2/MSDK/plf/GD32VW55x_standard_peripheral/Source\gd32vw55x_qspi.c ****     init_para->prescaler      = 3U;
 296              		.loc 1 67 5
  68:C:/Users/stapi/OneDrive/Desktop/GD32VW553/V1_MQTT_OK/GD32VW55X_Wifi_BLE_SDK/GD32VW55x_RELEASE_V1.0.2/MSDK/plf/GD32VW55x_standard_peripheral/Source\gd32vw55x_qspi.c ****     init_para->fifo_threshold = 16U;
 297              		.loc 1 68 31 is_stmt 0
 298 0000 8D47     		li	a5,3
 299 0002 1CC1     		sw	a5,0(a0)
  69:C:/Users/stapi/OneDrive/Desktop/GD32VW553/V1_MQTT_OK/GD32VW55X_Wifi_BLE_SDK/GD32VW55x_RELEASE_V1.0.2/MSDK/plf/GD32VW55x_standard_peripheral/Source\gd32vw55x_qspi.c ****     init_para->sample_shift   = QSPI_SAMPLE_SHIFTING_NONE;
 300              		.loc 1 69 31
 301 0004 C147     		li	a5,16
 302 0006 5CC1     		sw	a5,4(a0)
  71:C:/Users/stapi/OneDrive/Desktop/GD32VW553/V1_MQTT_OK/GD32VW55X_Wifi_BLE_SDK/GD32VW55x_RELEASE_V1.0.2/MSDK/plf/GD32VW55x_standard_peripheral/Source\gd32vw55x_qspi.c ****     init_para->cs_high_time   = QSPI_CS_HIGH_TIME_1_CYCLE;
 303              		.loc 1 71 31
 304 0008 FD47     		li	a5,31
  67:C:/Users/stapi/OneDrive/Desktop/GD32VW553/V1_MQTT_OK/GD32VW55X_Wifi_BLE_SDK/GD32VW55x_RELEASE_V1.0.2/MSDK/plf/GD32VW55x_standard_peripheral/Source\gd32vw55x_qspi.c ****     init_para->prescaler      = 3U;
 305              		.loc 1 67 31
 306 000a 232A0500 		sw	zero,20(a0)
  68:C:/Users/stapi/OneDrive/Desktop/GD32VW553/V1_MQTT_OK/GD32VW55X_Wifi_BLE_SDK/GD32VW55x_RELEASE_V1.0.2/MSDK/plf/GD32VW55x_standard_peripheral/Source\gd32vw55x_qspi.c ****     init_para->fifo_threshold = 16U;
 307              		.loc 1 68 5 is_stmt 1
  69:C:/Users/stapi/OneDrive/Desktop/GD32VW553/V1_MQTT_OK/GD32VW55X_Wifi_BLE_SDK/GD32VW55x_RELEASE_V1.0.2/MSDK/plf/GD32VW55x_standard_peripheral/Source\gd32vw55x_qspi.c ****     init_para->sample_shift   = QSPI_SAMPLE_SHIFTING_NONE;
 308              		.loc 1 69 5
  70:C:/Users/stapi/OneDrive/Desktop/GD32VW553/V1_MQTT_OK/GD32VW55X_Wifi_BLE_SDK/GD32VW55x_RELEASE_V1.0.2/MSDK/plf/GD32VW55x_standard_peripheral/Source\gd32vw55x_qspi.c ****     init_para->flash_size     = 0x1FU;
 309              		.loc 1 70 5
  70:C:/Users/stapi/OneDrive/Desktop/GD32VW553/V1_MQTT_OK/GD32VW55X_Wifi_BLE_SDK/GD32VW55x_RELEASE_V1.0.2/MSDK/plf/GD32VW55x_standard_peripheral/Source\gd32vw55x_qspi.c ****     init_para->flash_size     = 0x1FU;
 310              		.loc 1 70 31 is_stmt 0
 311 000e 23240500 		sw	zero,8(a0)
  71:C:/Users/stapi/OneDrive/Desktop/GD32VW553/V1_MQTT_OK/GD32VW55X_Wifi_BLE_SDK/GD32VW55x_RELEASE_V1.0.2/MSDK/plf/GD32VW55x_standard_peripheral/Source\gd32vw55x_qspi.c ****     init_para->cs_high_time   = QSPI_CS_HIGH_TIME_1_CYCLE;
 312              		.loc 1 71 5 is_stmt 1
  71:C:/Users/stapi/OneDrive/Desktop/GD32VW553/V1_MQTT_OK/GD32VW55X_Wifi_BLE_SDK/GD32VW55x_RELEASE_V1.0.2/MSDK/plf/GD32VW55x_standard_peripheral/Source\gd32vw55x_qspi.c ****     init_para->cs_high_time   = QSPI_CS_HIGH_TIME_1_CYCLE;
 313              		.loc 1 71 31 is_stmt 0
 314 0012 5CC5     		sw	a5,12(a0)
  72:C:/Users/stapi/OneDrive/Desktop/GD32VW553/V1_MQTT_OK/GD32VW55X_Wifi_BLE_SDK/GD32VW55x_RELEASE_V1.0.2/MSDK/plf/GD32VW55x_standard_peripheral/Source\gd32vw55x_qspi.c **** }
 315              		.loc 1 72 5 is_stmt 1
  72:C:/Users/stapi/OneDrive/Desktop/GD32VW553/V1_MQTT_OK/GD32VW55X_Wifi_BLE_SDK/GD32VW55x_RELEASE_V1.0.2/MSDK/plf/GD32VW55x_standard_peripheral/Source\gd32vw55x_qspi.c **** }
 316              		.loc 1 72 31 is_stmt 0
 317 0014 23280500 		sw	zero,16(a0)
  73:C:/Users/stapi/OneDrive/Desktop/GD32VW553/V1_MQTT_OK/GD32VW55X_Wifi_BLE_SDK/GD32VW55x_RELEASE_V1.0.2/MSDK/plf/GD32VW55x_standard_peripheral/Source\gd32vw55x_qspi.c **** 
 318              		.loc 1 73 1
 319 0018 8280     		ret
 320              		.cfi_endproc
 321              	.LFE366:
 323              		.section	.text.qspi_cmd_struct_para_init,"ax",@progbits
 324              		.align	1
 325              		.globl	qspi_cmd_struct_para_init
 327              	qspi_cmd_struct_para_init:
 328              	.LFB367:
  82:C:/Users/stapi/OneDrive/Desktop/GD32VW553/V1_MQTT_OK/GD32VW55X_Wifi_BLE_SDK/GD32VW55x_RELEASE_V1.0.2/MSDK/plf/GD32VW55x_standard_peripheral/Source\gd32vw55x_qspi.c ****     /* set the QSPI command struct with the default values */
 329              		.loc 1 82 1 is_stmt 1
 330              		.cfi_startproc
 331              	.LVL4:
  84:C:/Users/stapi/OneDrive/Desktop/GD32VW553/V1_MQTT_OK/GD32VW55X_Wifi_BLE_SDK/GD32VW55x_RELEASE_V1.0.2/MSDK/plf/GD32VW55x_standard_peripheral/Source\gd32vw55x_qspi.c ****     init_para->instruction      = 0U;
 332              		.loc 1 84 5
  84:C:/Users/stapi/OneDrive/Desktop/GD32VW553/V1_MQTT_OK/GD32VW55X_Wifi_BLE_SDK/GD32VW55x_RELEASE_V1.0.2/MSDK/plf/GD32VW55x_standard_peripheral/Source\gd32vw55x_qspi.c ****     init_para->instruction      = 0U;
 333              		.loc 1 84 33 is_stmt 0
 334 0000 23200500 		sw	zero,0(a0)
  85:C:/Users/stapi/OneDrive/Desktop/GD32VW553/V1_MQTT_OK/GD32VW55X_Wifi_BLE_SDK/GD32VW55x_RELEASE_V1.0.2/MSDK/plf/GD32VW55x_standard_peripheral/Source\gd32vw55x_qspi.c ****     init_para->addr_mode        = QSPI_ADDR_NONE;
 335              		.loc 1 85 5 is_stmt 1
  85:C:/Users/stapi/OneDrive/Desktop/GD32VW553/V1_MQTT_OK/GD32VW55X_Wifi_BLE_SDK/GD32VW55x_RELEASE_V1.0.2/MSDK/plf/GD32VW55x_standard_peripheral/Source\gd32vw55x_qspi.c ****     init_para->addr_mode        = QSPI_ADDR_NONE;
 336              		.loc 1 85 33 is_stmt 0
 337 0004 23220500 		sw	zero,4(a0)
  86:C:/Users/stapi/OneDrive/Desktop/GD32VW553/V1_MQTT_OK/GD32VW55X_Wifi_BLE_SDK/GD32VW55x_RELEASE_V1.0.2/MSDK/plf/GD32VW55x_standard_peripheral/Source\gd32vw55x_qspi.c ****     init_para->addr_size        = QSPI_ADDR_8_BITS;
 338              		.loc 1 86 5 is_stmt 1
  86:C:/Users/stapi/OneDrive/Desktop/GD32VW553/V1_MQTT_OK/GD32VW55X_Wifi_BLE_SDK/GD32VW55x_RELEASE_V1.0.2/MSDK/plf/GD32VW55x_standard_peripheral/Source\gd32vw55x_qspi.c ****     init_para->addr_size        = QSPI_ADDR_8_BITS;
 339              		.loc 1 86 33 is_stmt 0
 340 0008 23240500 		sw	zero,8(a0)
  87:C:/Users/stapi/OneDrive/Desktop/GD32VW553/V1_MQTT_OK/GD32VW55X_Wifi_BLE_SDK/GD32VW55x_RELEASE_V1.0.2/MSDK/plf/GD32VW55x_standard_peripheral/Source\gd32vw55x_qspi.c ****     init_para->addr             = 0U;
 341              		.loc 1 87 5 is_stmt 1
  87:C:/Users/stapi/OneDrive/Desktop/GD32VW553/V1_MQTT_OK/GD32VW55X_Wifi_BLE_SDK/GD32VW55x_RELEASE_V1.0.2/MSDK/plf/GD32VW55x_standard_peripheral/Source\gd32vw55x_qspi.c ****     init_para->addr             = 0U;
 342              		.loc 1 87 33 is_stmt 0
 343 000c 23260500 		sw	zero,12(a0)
  88:C:/Users/stapi/OneDrive/Desktop/GD32VW553/V1_MQTT_OK/GD32VW55X_Wifi_BLE_SDK/GD32VW55x_RELEASE_V1.0.2/MSDK/plf/GD32VW55x_standard_peripheral/Source\gd32vw55x_qspi.c ****     init_para->altebytes_mode   = QSPI_ALTE_BYTES_NONE;
 344              		.loc 1 88 5 is_stmt 1
  88:C:/Users/stapi/OneDrive/Desktop/GD32VW553/V1_MQTT_OK/GD32VW55X_Wifi_BLE_SDK/GD32VW55x_RELEASE_V1.0.2/MSDK/plf/GD32VW55x_standard_peripheral/Source\gd32vw55x_qspi.c ****     init_para->altebytes_mode   = QSPI_ALTE_BYTES_NONE;
 345              		.loc 1 88 33 is_stmt 0
 346 0010 23280500 		sw	zero,16(a0)
  89:C:/Users/stapi/OneDrive/Desktop/GD32VW553/V1_MQTT_OK/GD32VW55X_Wifi_BLE_SDK/GD32VW55x_RELEASE_V1.0.2/MSDK/plf/GD32VW55x_standard_peripheral/Source\gd32vw55x_qspi.c ****     init_para->altebytes_size   = QSPI_ALTE_BYTES_8_BITS;
 347              		.loc 1 89 5 is_stmt 1
  89:C:/Users/stapi/OneDrive/Desktop/GD32VW553/V1_MQTT_OK/GD32VW55X_Wifi_BLE_SDK/GD32VW55x_RELEASE_V1.0.2/MSDK/plf/GD32VW55x_standard_peripheral/Source\gd32vw55x_qspi.c ****     init_para->altebytes_size   = QSPI_ALTE_BYTES_8_BITS;
 348              		.loc 1 89 33 is_stmt 0
 349 0014 232A0500 		sw	zero,20(a0)
  90:C:/Users/stapi/OneDrive/Desktop/GD32VW553/V1_MQTT_OK/GD32VW55X_Wifi_BLE_SDK/GD32VW55x_RELEASE_V1.0.2/MSDK/plf/GD32VW55x_standard_peripheral/Source\gd32vw55x_qspi.c ****     init_para->altebytes        = 0U;
 350              		.loc 1 90 5 is_stmt 1
  90:C:/Users/stapi/OneDrive/Desktop/GD32VW553/V1_MQTT_OK/GD32VW55X_Wifi_BLE_SDK/GD32VW55x_RELEASE_V1.0.2/MSDK/plf/GD32VW55x_standard_peripheral/Source\gd32vw55x_qspi.c ****     init_para->altebytes        = 0U;
 351              		.loc 1 90 33 is_stmt 0
 352 0018 232C0500 		sw	zero,24(a0)
  91:C:/Users/stapi/OneDrive/Desktop/GD32VW553/V1_MQTT_OK/GD32VW55X_Wifi_BLE_SDK/GD32VW55x_RELEASE_V1.0.2/MSDK/plf/GD32VW55x_standard_peripheral/Source\gd32vw55x_qspi.c ****     init_para->dummycycles      = 0U;
 353              		.loc 1 91 5 is_stmt 1
  91:C:/Users/stapi/OneDrive/Desktop/GD32VW553/V1_MQTT_OK/GD32VW55X_Wifi_BLE_SDK/GD32VW55x_RELEASE_V1.0.2/MSDK/plf/GD32VW55x_standard_peripheral/Source\gd32vw55x_qspi.c ****     init_para->dummycycles      = 0U;
 354              		.loc 1 91 33 is_stmt 0
 355 001c 232E0500 		sw	zero,28(a0)
  92:C:/Users/stapi/OneDrive/Desktop/GD32VW553/V1_MQTT_OK/GD32VW55X_Wifi_BLE_SDK/GD32VW55x_RELEASE_V1.0.2/MSDK/plf/GD32VW55x_standard_peripheral/Source\gd32vw55x_qspi.c ****     init_para->data_mode        = QSPI_DATA_NONE;
 356              		.loc 1 92 5 is_stmt 1
  92:C:/Users/stapi/OneDrive/Desktop/GD32VW553/V1_MQTT_OK/GD32VW55X_Wifi_BLE_SDK/GD32VW55x_RELEASE_V1.0.2/MSDK/plf/GD32VW55x_standard_peripheral/Source\gd32vw55x_qspi.c ****     init_para->data_mode        = QSPI_DATA_NONE;
 357              		.loc 1 92 33 is_stmt 0
 358 0020 23200502 		sw	zero,32(a0)
  93:C:/Users/stapi/OneDrive/Desktop/GD32VW553/V1_MQTT_OK/GD32VW55X_Wifi_BLE_SDK/GD32VW55x_RELEASE_V1.0.2/MSDK/plf/GD32VW55x_standard_peripheral/Source\gd32vw55x_qspi.c ****     init_para->data_length      = 0U;
 359              		.loc 1 93 5 is_stmt 1
  93:C:/Users/stapi/OneDrive/Desktop/GD32VW553/V1_MQTT_OK/GD32VW55X_Wifi_BLE_SDK/GD32VW55x_RELEASE_V1.0.2/MSDK/plf/GD32VW55x_standard_peripheral/Source\gd32vw55x_qspi.c ****     init_para->data_length      = 0U;
 360              		.loc 1 93 33 is_stmt 0
 361 0024 23220502 		sw	zero,36(a0)
  94:C:/Users/stapi/OneDrive/Desktop/GD32VW553/V1_MQTT_OK/GD32VW55X_Wifi_BLE_SDK/GD32VW55x_RELEASE_V1.0.2/MSDK/plf/GD32VW55x_standard_peripheral/Source\gd32vw55x_qspi.c ****     init_para->sioo_mode        = QSPI_SIOO_INST_EVERY_CMD;
 362              		.loc 1 94 5 is_stmt 1
  94:C:/Users/stapi/OneDrive/Desktop/GD32VW553/V1_MQTT_OK/GD32VW55X_Wifi_BLE_SDK/GD32VW55x_RELEASE_V1.0.2/MSDK/plf/GD32VW55x_standard_peripheral/Source\gd32vw55x_qspi.c ****     init_para->sioo_mode        = QSPI_SIOO_INST_EVERY_CMD;
 363              		.loc 1 94 33 is_stmt 0
 364 0028 23240502 		sw	zero,40(a0)
  95:C:/Users/stapi/OneDrive/Desktop/GD32VW553/V1_MQTT_OK/GD32VW55X_Wifi_BLE_SDK/GD32VW55x_RELEASE_V1.0.2/MSDK/plf/GD32VW55x_standard_peripheral/Source\gd32vw55x_qspi.c **** }
 365              		.loc 1 95 5 is_stmt 1
  95:C:/Users/stapi/OneDrive/Desktop/GD32VW553/V1_MQTT_OK/GD32VW55X_Wifi_BLE_SDK/GD32VW55x_RELEASE_V1.0.2/MSDK/plf/GD32VW55x_standard_peripheral/Source\gd32vw55x_qspi.c **** }
 366              		.loc 1 95 33 is_stmt 0
 367 002c 23260502 		sw	zero,44(a0)
  96:C:/Users/stapi/OneDrive/Desktop/GD32VW553/V1_MQTT_OK/GD32VW55X_Wifi_BLE_SDK/GD32VW55x_RELEASE_V1.0.2/MSDK/plf/GD32VW55x_standard_peripheral/Source\gd32vw55x_qspi.c **** 
 368              		.loc 1 96 1
 369 0030 8280     		ret
 370              		.cfi_endproc
 371              	.LFE367:
 373              		.section	.text.qspi_polling_struct_para_init,"ax",@progbits
 374              		.align	1
 375              		.globl	qspi_polling_struct_para_init
 377              	qspi_polling_struct_para_init:
 378              	.LFB368:
 105:C:/Users/stapi/OneDrive/Desktop/GD32VW553/V1_MQTT_OK/GD32VW55X_Wifi_BLE_SDK/GD32VW55x_RELEASE_V1.0.2/MSDK/plf/GD32VW55x_standard_peripheral/Source\gd32vw55x_qspi.c ****     /* set the QSPI read polling struct with the default values */
 379              		.loc 1 105 1 is_stmt 1
 380              		.cfi_startproc
 381              	.LVL5:
 107:C:/Users/stapi/OneDrive/Desktop/GD32VW553/V1_MQTT_OK/GD32VW55X_Wifi_BLE_SDK/GD32VW55x_RELEASE_V1.0.2/MSDK/plf/GD32VW55x_standard_peripheral/Source\gd32vw55x_qspi.c ****     init_para->mask             = 0U;
 382              		.loc 1 107 5
 110:C:/Users/stapi/OneDrive/Desktop/GD32VW553/V1_MQTT_OK/GD32VW55X_Wifi_BLE_SDK/GD32VW55x_RELEASE_V1.0.2/MSDK/plf/GD32VW55x_standard_peripheral/Source\gd32vw55x_qspi.c ****     init_para->match_mode       = QSPI_MATCH_MODE_AND;
 383              		.loc 1 110 33 is_stmt 0
 384 0000 8547     		li	a5,1
 107:C:/Users/stapi/OneDrive/Desktop/GD32VW553/V1_MQTT_OK/GD32VW55X_Wifi_BLE_SDK/GD32VW55x_RELEASE_V1.0.2/MSDK/plf/GD32VW55x_standard_peripheral/Source\gd32vw55x_qspi.c ****     init_para->mask             = 0U;
 385              		.loc 1 107 33
 386 0002 23200500 		sw	zero,0(a0)
 108:C:/Users/stapi/OneDrive/Desktop/GD32VW553/V1_MQTT_OK/GD32VW55X_Wifi_BLE_SDK/GD32VW55x_RELEASE_V1.0.2/MSDK/plf/GD32VW55x_standard_peripheral/Source\gd32vw55x_qspi.c ****     init_para->interval         = 0U;
 387              		.loc 1 108 5 is_stmt 1
 108:C:/Users/stapi/OneDrive/Desktop/GD32VW553/V1_MQTT_OK/GD32VW55X_Wifi_BLE_SDK/GD32VW55x_RELEASE_V1.0.2/MSDK/plf/GD32VW55x_standard_peripheral/Source\gd32vw55x_qspi.c ****     init_para->interval         = 0U;
 388              		.loc 1 108 33 is_stmt 0
 389 0006 23220500 		sw	zero,4(a0)
 109:C:/Users/stapi/OneDrive/Desktop/GD32VW553/V1_MQTT_OK/GD32VW55X_Wifi_BLE_SDK/GD32VW55x_RELEASE_V1.0.2/MSDK/plf/GD32VW55x_standard_peripheral/Source\gd32vw55x_qspi.c ****     init_para->statusbytes_size = 1U;
 390              		.loc 1 109 5 is_stmt 1
 109:C:/Users/stapi/OneDrive/Desktop/GD32VW553/V1_MQTT_OK/GD32VW55X_Wifi_BLE_SDK/GD32VW55x_RELEASE_V1.0.2/MSDK/plf/GD32VW55x_standard_peripheral/Source\gd32vw55x_qspi.c ****     init_para->statusbytes_size = 1U;
 391              		.loc 1 109 33 is_stmt 0
 392 000a 23240500 		sw	zero,8(a0)
 110:C:/Users/stapi/OneDrive/Desktop/GD32VW553/V1_MQTT_OK/GD32VW55X_Wifi_BLE_SDK/GD32VW55x_RELEASE_V1.0.2/MSDK/plf/GD32VW55x_standard_peripheral/Source\gd32vw55x_qspi.c ****     init_para->match_mode       = QSPI_MATCH_MODE_AND;
 393              		.loc 1 110 5 is_stmt 1
 110:C:/Users/stapi/OneDrive/Desktop/GD32VW553/V1_MQTT_OK/GD32VW55X_Wifi_BLE_SDK/GD32VW55x_RELEASE_V1.0.2/MSDK/plf/GD32VW55x_standard_peripheral/Source\gd32vw55x_qspi.c ****     init_para->match_mode       = QSPI_MATCH_MODE_AND;
 394              		.loc 1 110 33 is_stmt 0
 395 000e 5CC5     		sw	a5,12(a0)
 111:C:/Users/stapi/OneDrive/Desktop/GD32VW553/V1_MQTT_OK/GD32VW55X_Wifi_BLE_SDK/GD32VW55x_RELEASE_V1.0.2/MSDK/plf/GD32VW55x_standard_peripheral/Source\gd32vw55x_qspi.c ****     init_para->polling_stop     = QSPI_POLLING_STOP_DISABLE;
 396              		.loc 1 111 5 is_stmt 1
 111:C:/Users/stapi/OneDrive/Desktop/GD32VW553/V1_MQTT_OK/GD32VW55X_Wifi_BLE_SDK/GD32VW55x_RELEASE_V1.0.2/MSDK/plf/GD32VW55x_standard_peripheral/Source\gd32vw55x_qspi.c ****     init_para->polling_stop     = QSPI_POLLING_STOP_DISABLE;
 397              		.loc 1 111 33 is_stmt 0
 398 0010 23280500 		sw	zero,16(a0)
 112:C:/Users/stapi/OneDrive/Desktop/GD32VW553/V1_MQTT_OK/GD32VW55X_Wifi_BLE_SDK/GD32VW55x_RELEASE_V1.0.2/MSDK/plf/GD32VW55x_standard_peripheral/Source\gd32vw55x_qspi.c **** }
 399              		.loc 1 112 5 is_stmt 1
 112:C:/Users/stapi/OneDrive/Desktop/GD32VW553/V1_MQTT_OK/GD32VW55X_Wifi_BLE_SDK/GD32VW55x_RELEASE_V1.0.2/MSDK/plf/GD32VW55x_standard_peripheral/Source\gd32vw55x_qspi.c **** }
 400              		.loc 1 112 33 is_stmt 0
 401 0014 232A0500 		sw	zero,20(a0)
 113:C:/Users/stapi/OneDrive/Desktop/GD32VW553/V1_MQTT_OK/GD32VW55X_Wifi_BLE_SDK/GD32VW55x_RELEASE_V1.0.2/MSDK/plf/GD32VW55x_standard_peripheral/Source\gd32vw55x_qspi.c **** 
 402              		.loc 1 113 1
 403 0018 8280     		ret
 404              		.cfi_endproc
 405              	.LFE368:
 407              		.section	.text.qspi_init,"ax",@progbits
 408              		.align	1
 409              		.globl	qspi_init
 411              	qspi_init:
 412              	.LFB369:
 131:C:/Users/stapi/OneDrive/Desktop/GD32VW553/V1_MQTT_OK/GD32VW55X_Wifi_BLE_SDK/GD32VW55x_RELEASE_V1.0.2/MSDK/plf/GD32VW55x_standard_peripheral/Source\gd32vw55x_qspi.c ****     /* configure prescaler, sample_shift, fifo_threshold */
 413              		.loc 1 131 1 is_stmt 1
 414              		.cfi_startproc
 415              	.LVL6:
 133:C:/Users/stapi/OneDrive/Desktop/GD32VW553/V1_MQTT_OK/GD32VW55X_Wifi_BLE_SDK/GD32VW55x_RELEASE_V1.0.2/MSDK/plf/GD32VW55x_standard_peripheral/Source\gd32vw55x_qspi.c ****     QSPI_CTL |= (qspi_struct->prescaler << CTL_PSC_OFFSET) | qspi_struct->sample_shift | ((qspi_str
 416              		.loc 1 133 5
 133:C:/Users/stapi/OneDrive/Desktop/GD32VW553/V1_MQTT_OK/GD32VW55X_Wifi_BLE_SDK/GD32VW55x_RELEASE_V1.0.2/MSDK/plf/GD32VW55x_standard_peripheral/Source\gd32vw55x_qspi.c ****     QSPI_CTL |= (qspi_struct->prescaler << CTL_PSC_OFFSET) | qspi_struct->sample_shift | ((qspi_str
 417              		.loc 1 133 14 is_stmt 0
 418 0000 B7670240 		li	a5,1073897472
 419 0004 93870780 		addi	a5,a5,-2048
 420 0008 9843     		lw	a4,0(a5)
 421 000a B7F6FF00 		li	a3,16773120
 422 000e 9386F60C 		addi	a3,a3,207
 423 0012 758F     		and	a4,a4,a3
 424 0014 98C3     		sw	a4,0(a5)
 134:C:/Users/stapi/OneDrive/Desktop/GD32VW553/V1_MQTT_OK/GD32VW55X_Wifi_BLE_SDK/GD32VW55x_RELEASE_V1.0.2/MSDK/plf/GD32VW55x_standard_peripheral/Source\gd32vw55x_qspi.c **** 
 425              		.loc 1 134 5 is_stmt 1
 134:C:/Users/stapi/OneDrive/Desktop/GD32VW553/V1_MQTT_OK/GD32VW55X_Wifi_BLE_SDK/GD32VW55x_RELEASE_V1.0.2/MSDK/plf/GD32VW55x_standard_peripheral/Source\gd32vw55x_qspi.c **** 
 426              		.loc 1 134 14 is_stmt 0
 427 0016 9443     		lw	a3,0(a5)
 428 0018 1045     		lw	a2,8(a0)
 134:C:/Users/stapi/OneDrive/Desktop/GD32VW553/V1_MQTT_OK/GD32VW55X_Wifi_BLE_SDK/GD32VW55x_RELEASE_V1.0.2/MSDK/plf/GD32VW55x_standard_peripheral/Source\gd32vw55x_qspi.c **** 
 429              		.loc 1 134 41
 430 001a 1841     		lw	a4,0(a0)
 134:C:/Users/stapi/OneDrive/Desktop/GD32VW553/V1_MQTT_OK/GD32VW55X_Wifi_BLE_SDK/GD32VW55x_RELEASE_V1.0.2/MSDK/plf/GD32VW55x_standard_peripheral/Source\gd32vw55x_qspi.c **** 
 431              		.loc 1 134 14
 432 001c D18E     		or	a3,a3,a2
 134:C:/Users/stapi/OneDrive/Desktop/GD32VW553/V1_MQTT_OK/GD32VW55X_Wifi_BLE_SDK/GD32VW55x_RELEASE_V1.0.2/MSDK/plf/GD32VW55x_standard_peripheral/Source\gd32vw55x_qspi.c **** 
 433              		.loc 1 134 41
 434 001e 6207     		slli	a4,a4,24
 134:C:/Users/stapi/OneDrive/Desktop/GD32VW553/V1_MQTT_OK/GD32VW55X_Wifi_BLE_SDK/GD32VW55x_RELEASE_V1.0.2/MSDK/plf/GD32VW55x_standard_peripheral/Source\gd32vw55x_qspi.c **** 
 435              		.loc 1 134 14
 436 0020 558F     		or	a4,a4,a3
 134:C:/Users/stapi/OneDrive/Desktop/GD32VW553/V1_MQTT_OK/GD32VW55X_Wifi_BLE_SDK/GD32VW55x_RELEASE_V1.0.2/MSDK/plf/GD32VW55x_standard_peripheral/Source\gd32vw55x_qspi.c **** 
 437              		.loc 1 134 120
 438 0022 5441     		lw	a3,4(a0)
 439 0024 FD16     		addi	a3,a3,-1
 134:C:/Users/stapi/OneDrive/Desktop/GD32VW553/V1_MQTT_OK/GD32VW55X_Wifi_BLE_SDK/GD32VW55x_RELEASE_V1.0.2/MSDK/plf/GD32VW55x_standard_peripheral/Source\gd32vw55x_qspi.c **** 
 440              		.loc 1 134 126
 441 0026 A206     		slli	a3,a3,8
 134:C:/Users/stapi/OneDrive/Desktop/GD32VW553/V1_MQTT_OK/GD32VW55X_Wifi_BLE_SDK/GD32VW55x_RELEASE_V1.0.2/MSDK/plf/GD32VW55x_standard_peripheral/Source\gd32vw55x_qspi.c **** 
 442              		.loc 1 134 14
 443 0028 558F     		or	a4,a4,a3
 444 002a 98C3     		sw	a4,0(a5)
 137:C:/Users/stapi/OneDrive/Desktop/GD32VW553/V1_MQTT_OK/GD32VW55X_Wifi_BLE_SDK/GD32VW55x_RELEASE_V1.0.2/MSDK/plf/GD32VW55x_standard_peripheral/Source\gd32vw55x_qspi.c ****     QSPI_DCFG |= ((qspi_struct->flash_size << DCFG_FMSZ_OFFSET) | qspi_struct->cs_high_time | qspi_
 445              		.loc 1 137 5 is_stmt 1
 137:C:/Users/stapi/OneDrive/Desktop/GD32VW553/V1_MQTT_OK/GD32VW55X_Wifi_BLE_SDK/GD32VW55x_RELEASE_V1.0.2/MSDK/plf/GD32VW55x_standard_peripheral/Source\gd32vw55x_qspi.c ****     QSPI_DCFG |= ((qspi_struct->flash_size << DCFG_FMSZ_OFFSET) | qspi_struct->cs_high_time | qspi_
 446              		.loc 1 137 15 is_stmt 0
 447 002c D843     		lw	a4,4(a5)
 448 002e B706E1FF 		li	a3,-2031616
 449 0032 9386E68F 		addi	a3,a3,-1794
 450 0036 758F     		and	a4,a4,a3
 451 0038 D8C3     		sw	a4,4(a5)
 138:C:/Users/stapi/OneDrive/Desktop/GD32VW553/V1_MQTT_OK/GD32VW55X_Wifi_BLE_SDK/GD32VW55x_RELEASE_V1.0.2/MSDK/plf/GD32VW55x_standard_peripheral/Source\gd32vw55x_qspi.c **** }
 452              		.loc 1 138 5 is_stmt 1
 138:C:/Users/stapi/OneDrive/Desktop/GD32VW553/V1_MQTT_OK/GD32VW55X_Wifi_BLE_SDK/GD32VW55x_RELEASE_V1.0.2/MSDK/plf/GD32VW55x_standard_peripheral/Source\gd32vw55x_qspi.c **** }
 453              		.loc 1 138 15 is_stmt 0
 454 003a 1849     		lw	a4,16(a0)
 455 003c 5049     		lw	a2,20(a0)
 456 003e D443     		lw	a3,4(a5)
 457 0040 518F     		or	a4,a4,a2
 458 0042 558F     		or	a4,a4,a3
 138:C:/Users/stapi/OneDrive/Desktop/GD32VW553/V1_MQTT_OK/GD32VW55X_Wifi_BLE_SDK/GD32VW55x_RELEASE_V1.0.2/MSDK/plf/GD32VW55x_standard_peripheral/Source\gd32vw55x_qspi.c **** }
 459              		.loc 1 138 44
 460 0044 5445     		lw	a3,12(a0)
 461 0046 C206     		slli	a3,a3,16
 138:C:/Users/stapi/OneDrive/Desktop/GD32VW553/V1_MQTT_OK/GD32VW55X_Wifi_BLE_SDK/GD32VW55x_RELEASE_V1.0.2/MSDK/plf/GD32VW55x_standard_peripheral/Source\gd32vw55x_qspi.c **** }
 462              		.loc 1 138 15
 463 0048 558F     		or	a4,a4,a3
 464 004a D8C3     		sw	a4,4(a5)
 139:C:/Users/stapi/OneDrive/Desktop/GD32VW553/V1_MQTT_OK/GD32VW55X_Wifi_BLE_SDK/GD32VW55x_RELEASE_V1.0.2/MSDK/plf/GD32VW55x_standard_peripheral/Source\gd32vw55x_qspi.c **** 
 465              		.loc 1 139 1
 466 004c 8280     		ret
 467              		.cfi_endproc
 468              	.LFE369:
 470              		.section	.text.qspi_enable,"ax",@progbits
 471              		.align	1
 472              		.globl	qspi_enable
 474              	qspi_enable:
 475              	.LFB370:
 148:C:/Users/stapi/OneDrive/Desktop/GD32VW553/V1_MQTT_OK/GD32VW55X_Wifi_BLE_SDK/GD32VW55x_RELEASE_V1.0.2/MSDK/plf/GD32VW55x_standard_peripheral/Source\gd32vw55x_qspi.c ****     QSPI_CTL |= (uint32_t)QSPI_CTL_QSPIEN;
 476              		.loc 1 148 1 is_stmt 1
 477              		.cfi_startproc
 149:C:/Users/stapi/OneDrive/Desktop/GD32VW553/V1_MQTT_OK/GD32VW55X_Wifi_BLE_SDK/GD32VW55x_RELEASE_V1.0.2/MSDK/plf/GD32VW55x_standard_peripheral/Source\gd32vw55x_qspi.c **** }
 478              		.loc 1 149 5
 149:C:/Users/stapi/OneDrive/Desktop/GD32VW553/V1_MQTT_OK/GD32VW55X_Wifi_BLE_SDK/GD32VW55x_RELEASE_V1.0.2/MSDK/plf/GD32VW55x_standard_peripheral/Source\gd32vw55x_qspi.c **** }
 479              		.loc 1 149 14 is_stmt 0
 480 0000 37670240 		li	a4,1073897472
 481 0004 83270780 		lw	a5,-2048(a4)
 482 0008 93E71700 		ori	a5,a5,1
 483 000c 2320F780 		sw	a5,-2048(a4)
 150:C:/Users/stapi/OneDrive/Desktop/GD32VW553/V1_MQTT_OK/GD32VW55X_Wifi_BLE_SDK/GD32VW55x_RELEASE_V1.0.2/MSDK/plf/GD32VW55x_standard_peripheral/Source\gd32vw55x_qspi.c **** 
 484              		.loc 1 150 1
 485 0010 8280     		ret
 486              		.cfi_endproc
 487              	.LFE370:
 489              		.section	.text.qspi_disable,"ax",@progbits
 490              		.align	1
 491              		.globl	qspi_disable
 493              	qspi_disable:
 494              	.LFB371:
 159:C:/Users/stapi/OneDrive/Desktop/GD32VW553/V1_MQTT_OK/GD32VW55X_Wifi_BLE_SDK/GD32VW55x_RELEASE_V1.0.2/MSDK/plf/GD32VW55x_standard_peripheral/Source\gd32vw55x_qspi.c ****     QSPI_CTL &= (uint32_t)(~QSPI_CTL_QSPIEN);
 495              		.loc 1 159 1 is_stmt 1
 496              		.cfi_startproc
 160:C:/Users/stapi/OneDrive/Desktop/GD32VW553/V1_MQTT_OK/GD32VW55X_Wifi_BLE_SDK/GD32VW55x_RELEASE_V1.0.2/MSDK/plf/GD32VW55x_standard_peripheral/Source\gd32vw55x_qspi.c **** }
 497              		.loc 1 160 5
 160:C:/Users/stapi/OneDrive/Desktop/GD32VW553/V1_MQTT_OK/GD32VW55X_Wifi_BLE_SDK/GD32VW55x_RELEASE_V1.0.2/MSDK/plf/GD32VW55x_standard_peripheral/Source\gd32vw55x_qspi.c **** }
 498              		.loc 1 160 14 is_stmt 0
 499 0000 37670240 		li	a4,1073897472
 500 0004 83270780 		lw	a5,-2048(a4)
 501 0008 F99B     		andi	a5,a5,-2
 502 000a 2320F780 		sw	a5,-2048(a4)
 161:C:/Users/stapi/OneDrive/Desktop/GD32VW553/V1_MQTT_OK/GD32VW55X_Wifi_BLE_SDK/GD32VW55x_RELEASE_V1.0.2/MSDK/plf/GD32VW55x_standard_peripheral/Source\gd32vw55x_qspi.c **** 
 503              		.loc 1 161 1
 504 000e 8280     		ret
 505              		.cfi_endproc
 506              	.LFE371:
 508              		.section	.text.qspi_dma_enable,"ax",@progbits
 509              		.align	1
 510              		.globl	qspi_dma_enable
 512              	qspi_dma_enable:
 513              	.LFB372:
 170:C:/Users/stapi/OneDrive/Desktop/GD32VW553/V1_MQTT_OK/GD32VW55X_Wifi_BLE_SDK/GD32VW55x_RELEASE_V1.0.2/MSDK/plf/GD32VW55x_standard_peripheral/Source\gd32vw55x_qspi.c ****     QSPI_CTL |= (uint32_t)(QSPI_CTL_DMAEN);
 514              		.loc 1 170 1 is_stmt 1
 515              		.cfi_startproc
 171:C:/Users/stapi/OneDrive/Desktop/GD32VW553/V1_MQTT_OK/GD32VW55X_Wifi_BLE_SDK/GD32VW55x_RELEASE_V1.0.2/MSDK/plf/GD32VW55x_standard_peripheral/Source\gd32vw55x_qspi.c **** }
 516              		.loc 1 171 5
 171:C:/Users/stapi/OneDrive/Desktop/GD32VW553/V1_MQTT_OK/GD32VW55X_Wifi_BLE_SDK/GD32VW55x_RELEASE_V1.0.2/MSDK/plf/GD32VW55x_standard_peripheral/Source\gd32vw55x_qspi.c **** }
 517              		.loc 1 171 14 is_stmt 0
 518 0000 37670240 		li	a4,1073897472
 519 0004 83270780 		lw	a5,-2048(a4)
 520 0008 93E74700 		ori	a5,a5,4
 521 000c 2320F780 		sw	a5,-2048(a4)
 172:C:/Users/stapi/OneDrive/Desktop/GD32VW553/V1_MQTT_OK/GD32VW55X_Wifi_BLE_SDK/GD32VW55x_RELEASE_V1.0.2/MSDK/plf/GD32VW55x_standard_peripheral/Source\gd32vw55x_qspi.c **** 
 522              		.loc 1 172 1
 523 0010 8280     		ret
 524              		.cfi_endproc
 525              	.LFE372:
 527              		.section	.text.qspi_dma_disable,"ax",@progbits
 528              		.align	1
 529              		.globl	qspi_dma_disable
 531              	qspi_dma_disable:
 532              	.LFB373:
 181:C:/Users/stapi/OneDrive/Desktop/GD32VW553/V1_MQTT_OK/GD32VW55X_Wifi_BLE_SDK/GD32VW55x_RELEASE_V1.0.2/MSDK/plf/GD32VW55x_standard_peripheral/Source\gd32vw55x_qspi.c ****     QSPI_CTL &= (uint32_t)(~QSPI_CTL_DMAEN);
 533              		.loc 1 181 1 is_stmt 1
 534              		.cfi_startproc
 182:C:/Users/stapi/OneDrive/Desktop/GD32VW553/V1_MQTT_OK/GD32VW55X_Wifi_BLE_SDK/GD32VW55x_RELEASE_V1.0.2/MSDK/plf/GD32VW55x_standard_peripheral/Source\gd32vw55x_qspi.c **** }
 535              		.loc 1 182 5
 182:C:/Users/stapi/OneDrive/Desktop/GD32VW553/V1_MQTT_OK/GD32VW55X_Wifi_BLE_SDK/GD32VW55x_RELEASE_V1.0.2/MSDK/plf/GD32VW55x_standard_peripheral/Source\gd32vw55x_qspi.c **** }
 536              		.loc 1 182 14 is_stmt 0
 537 0000 37670240 		li	a4,1073897472
 538 0004 83270780 		lw	a5,-2048(a4)
 539 0008 ED9B     		andi	a5,a5,-5
 540 000a 2320F780 		sw	a5,-2048(a4)
 183:C:/Users/stapi/OneDrive/Desktop/GD32VW553/V1_MQTT_OK/GD32VW55X_Wifi_BLE_SDK/GD32VW55x_RELEASE_V1.0.2/MSDK/plf/GD32VW55x_standard_peripheral/Source\gd32vw55x_qspi.c **** 
 541              		.loc 1 183 1
 542 000e 8280     		ret
 543              		.cfi_endproc
 544              	.LFE373:
 546              		.section	.text.qspi_command_config,"ax",@progbits
 547              		.align	1
 548              		.globl	qspi_command_config
 550              	qspi_command_config:
 551              	.LFB374:
 208:C:/Users/stapi/OneDrive/Desktop/GD32VW553/V1_MQTT_OK/GD32VW55X_Wifi_BLE_SDK/GD32VW55x_RELEASE_V1.0.2/MSDK/plf/GD32VW55x_standard_peripheral/Source\gd32vw55x_qspi.c ****     /* call the configuration function */
 552              		.loc 1 208 1 is_stmt 1
 553              		.cfi_startproc
 554              	.LVL7:
 555 0000 17030000 		call	t0,__riscv_save_1
 555      E7020300 
 556              		.cfi_offset 8, -8
 557              		.cfi_offset 1, -4
 558              		.cfi_def_cfa_offset 16
 210:C:/Users/stapi/OneDrive/Desktop/GD32VW553/V1_MQTT_OK/GD32VW55X_Wifi_BLE_SDK/GD32VW55x_RELEASE_V1.0.2/MSDK/plf/GD32VW55x_standard_peripheral/Source\gd32vw55x_qspi.c **** 
 559              		.loc 1 210 5
 560 0008 8145     		li	a1,0
 208:C:/Users/stapi/OneDrive/Desktop/GD32VW553/V1_MQTT_OK/GD32VW55X_Wifi_BLE_SDK/GD32VW55x_RELEASE_V1.0.2/MSDK/plf/GD32VW55x_standard_peripheral/Source\gd32vw55x_qspi.c ****     /* call the configuration function */
 561              		.loc 1 208 1 is_stmt 0
 562 000a 2A84     		mv	s0,a0
 210:C:/Users/stapi/OneDrive/Desktop/GD32VW553/V1_MQTT_OK/GD32VW55X_Wifi_BLE_SDK/GD32VW55x_RELEASE_V1.0.2/MSDK/plf/GD32VW55x_standard_peripheral/Source\gd32vw55x_qspi.c **** 
 563              		.loc 1 210 5
 564 000c 97000000 		call	qspi_config
 564      E7800000 
 565              	.LVL8:
 212:C:/Users/stapi/OneDrive/Desktop/GD32VW553/V1_MQTT_OK/GD32VW55X_Wifi_BLE_SDK/GD32VW55x_RELEASE_V1.0.2/MSDK/plf/GD32VW55x_standard_peripheral/Source\gd32vw55x_qspi.c ****         /* when there is no data phase, the transfer start as soon as the configuration is done
 566              		.loc 1 212 5 is_stmt 1
 212:C:/Users/stapi/OneDrive/Desktop/GD32VW553/V1_MQTT_OK/GD32VW55X_Wifi_BLE_SDK/GD32VW55x_RELEASE_V1.0.2/MSDK/plf/GD32VW55x_standard_peripheral/Source\gd32vw55x_qspi.c ****         /* when there is no data phase, the transfer start as soon as the configuration is done
 567              		.loc 1 212 7 is_stmt 0
 568 0014 5C50     		lw	a5,36(s0)
 569 0016 91EB     		bne	a5,zero,.L36
 215:C:/Users/stapi/OneDrive/Desktop/GD32VW553/V1_MQTT_OK/GD32VW55X_Wifi_BLE_SDK/GD32VW55x_RELEASE_V1.0.2/MSDK/plf/GD32VW55x_standard_peripheral/Source\gd32vw55x_qspi.c ****         }
 570              		.loc 1 215 16
 571 0018 37670240 		li	a4,1073897472
 572              	.L38:
 216:C:/Users/stapi/OneDrive/Desktop/GD32VW553/V1_MQTT_OK/GD32VW55X_Wifi_BLE_SDK/GD32VW55x_RELEASE_V1.0.2/MSDK/plf/GD32VW55x_standard_peripheral/Source\gd32vw55x_qspi.c ****         QSPI_STATC = QSPI_STATC_TCC;
 573              		.loc 1 216 9 is_stmt 1 discriminator 1
 215:C:/Users/stapi/OneDrive/Desktop/GD32VW553/V1_MQTT_OK/GD32VW55X_Wifi_BLE_SDK/GD32VW55x_RELEASE_V1.0.2/MSDK/plf/GD32VW55x_standard_peripheral/Source\gd32vw55x_qspi.c ****         }
 574              		.loc 1 215 14 discriminator 1
 215:C:/Users/stapi/OneDrive/Desktop/GD32VW553/V1_MQTT_OK/GD32VW55X_Wifi_BLE_SDK/GD32VW55x_RELEASE_V1.0.2/MSDK/plf/GD32VW55x_standard_peripheral/Source\gd32vw55x_qspi.c ****         }
 575              		.loc 1 215 16 is_stmt 0 discriminator 1
 576 001c 83278780 		lw	a5,-2040(a4)
 215:C:/Users/stapi/OneDrive/Desktop/GD32VW553/V1_MQTT_OK/GD32VW55X_Wifi_BLE_SDK/GD32VW55x_RELEASE_V1.0.2/MSDK/plf/GD32VW55x_standard_peripheral/Source\gd32vw55x_qspi.c ****         }
 577              		.loc 1 215 26 discriminator 1
 578 0020 898B     		andi	a5,a5,2
 215:C:/Users/stapi/OneDrive/Desktop/GD32VW553/V1_MQTT_OK/GD32VW55X_Wifi_BLE_SDK/GD32VW55x_RELEASE_V1.0.2/MSDK/plf/GD32VW55x_standard_peripheral/Source\gd32vw55x_qspi.c ****         }
 579              		.loc 1 215 14 discriminator 1
 580 0022 EDDF     		beq	a5,zero,.L38
 217:C:/Users/stapi/OneDrive/Desktop/GD32VW553/V1_MQTT_OK/GD32VW55X_Wifi_BLE_SDK/GD32VW55x_RELEASE_V1.0.2/MSDK/plf/GD32VW55x_standard_peripheral/Source\gd32vw55x_qspi.c ****     }
 581              		.loc 1 217 9 is_stmt 1
 217:C:/Users/stapi/OneDrive/Desktop/GD32VW553/V1_MQTT_OK/GD32VW55X_Wifi_BLE_SDK/GD32VW55x_RELEASE_V1.0.2/MSDK/plf/GD32VW55x_standard_peripheral/Source\gd32vw55x_qspi.c ****     }
 582              		.loc 1 217 20 is_stmt 0
 583 0024 8947     		li	a5,2
 584 0026 2326F780 		sw	a5,-2036(a4)
 585              	.L36:
 219:C:/Users/stapi/OneDrive/Desktop/GD32VW553/V1_MQTT_OK/GD32VW55X_Wifi_BLE_SDK/GD32VW55x_RELEASE_V1.0.2/MSDK/plf/GD32VW55x_standard_peripheral/Source\gd32vw55x_qspi.c **** 
 586              		.loc 1 219 1
 587 002a 17030000 		tail	__riscv_restore_1
 587      67000300 
 588              		.cfi_restore 8
 589              		.cfi_restore 1
 590              		.cfi_def_cfa_offset 0
 591              		.cfi_endproc
 592              	.LFE374:
 594              		.section	.text.qspi_polling_config,"ax",@progbits
 595              		.align	1
 596              		.globl	qspi_polling_config
 598              	qspi_polling_config:
 599              	.LFB375:
 252:C:/Users/stapi/OneDrive/Desktop/GD32VW553/V1_MQTT_OK/GD32VW55X_Wifi_BLE_SDK/GD32VW55x_RELEASE_V1.0.2/MSDK/plf/GD32VW55x_standard_peripheral/Source\gd32vw55x_qspi.c ****     /* configure the match value */
 600              		.loc 1 252 1 is_stmt 1
 601              		.cfi_startproc
 602              	.LVL9:
 254:C:/Users/stapi/OneDrive/Desktop/GD32VW553/V1_MQTT_OK/GD32VW55X_Wifi_BLE_SDK/GD32VW55x_RELEASE_V1.0.2/MSDK/plf/GD32VW55x_standard_peripheral/Source\gd32vw55x_qspi.c ****     /* configure the mask value */
 603              		.loc 1 254 5
 254:C:/Users/stapi/OneDrive/Desktop/GD32VW553/V1_MQTT_OK/GD32VW55X_Wifi_BLE_SDK/GD32VW55x_RELEASE_V1.0.2/MSDK/plf/GD32VW55x_standard_peripheral/Source\gd32vw55x_qspi.c ****     /* configure the mask value */
 604              		.loc 1 254 25 is_stmt 0
 605 0000 9841     		lw	a4,0(a1)
 254:C:/Users/stapi/OneDrive/Desktop/GD32VW553/V1_MQTT_OK/GD32VW55X_Wifi_BLE_SDK/GD32VW55x_RELEASE_V1.0.2/MSDK/plf/GD32VW55x_standard_peripheral/Source\gd32vw55x_qspi.c ****     /* configure the mask value */
 606              		.loc 1 254 20
 607 0002 B7670240 		li	a5,1073897472
 608 0006 93870780 		addi	a5,a5,-2048
 609 000a 98D7     		sw	a4,40(a5)
 256:C:/Users/stapi/OneDrive/Desktop/GD32VW553/V1_MQTT_OK/GD32VW55X_Wifi_BLE_SDK/GD32VW55x_RELEASE_V1.0.2/MSDK/plf/GD32VW55x_standard_peripheral/Source\gd32vw55x_qspi.c ****     /* configure the interval cycle */
 610              		.loc 1 256 5 is_stmt 1
 256:C:/Users/stapi/OneDrive/Desktop/GD32VW553/V1_MQTT_OK/GD32VW55X_Wifi_BLE_SDK/GD32VW55x_RELEASE_V1.0.2/MSDK/plf/GD32VW55x_standard_peripheral/Source\gd32vw55x_qspi.c ****     /* configure the interval cycle */
 611              		.loc 1 256 22 is_stmt 0
 612 000c D841     		lw	a4,4(a1)
 260:C:/Users/stapi/OneDrive/Desktop/GD32VW553/V1_MQTT_OK/GD32VW55X_Wifi_BLE_SDK/GD32VW55x_RELEASE_V1.0.2/MSDK/plf/GD32VW55x_standard_peripheral/Source\gd32vw55x_qspi.c ****     QSPI_CTL |= (cfg->match_mode | cfg->polling_stop);
 613              		.loc 1 260 14
 614 000e B70640FF 		li	a3,-12582912
 615 0012 FD16     		addi	a3,a3,-1
 256:C:/Users/stapi/OneDrive/Desktop/GD32VW553/V1_MQTT_OK/GD32VW55X_Wifi_BLE_SDK/GD32VW55x_RELEASE_V1.0.2/MSDK/plf/GD32VW55x_standard_peripheral/Source\gd32vw55x_qspi.c ****     /* configure the interval cycle */
 616              		.loc 1 256 17
 617 0014 D8D3     		sw	a4,36(a5)
 258:C:/Users/stapi/OneDrive/Desktop/GD32VW553/V1_MQTT_OK/GD32VW55X_Wifi_BLE_SDK/GD32VW55x_RELEASE_V1.0.2/MSDK/plf/GD32VW55x_standard_peripheral/Source\gd32vw55x_qspi.c ****     /* configure the read polling match mode and read polling mode stop */
 618              		.loc 1 258 5 is_stmt 1
 258:C:/Users/stapi/OneDrive/Desktop/GD32VW553/V1_MQTT_OK/GD32VW55X_Wifi_BLE_SDK/GD32VW55x_RELEASE_V1.0.2/MSDK/plf/GD32VW55x_standard_peripheral/Source\gd32vw55x_qspi.c ****     /* configure the read polling match mode and read polling mode stop */
 619              		.loc 1 258 24 is_stmt 0
 620 0016 9845     		lw	a4,8(a1)
 258:C:/Users/stapi/OneDrive/Desktop/GD32VW553/V1_MQTT_OK/GD32VW55X_Wifi_BLE_SDK/GD32VW55x_RELEASE_V1.0.2/MSDK/plf/GD32VW55x_standard_peripheral/Source\gd32vw55x_qspi.c ****     /* configure the read polling match mode and read polling mode stop */
 621              		.loc 1 258 19
 622 0018 D8D7     		sw	a4,44(a5)
 260:C:/Users/stapi/OneDrive/Desktop/GD32VW553/V1_MQTT_OK/GD32VW55X_Wifi_BLE_SDK/GD32VW55x_RELEASE_V1.0.2/MSDK/plf/GD32VW55x_standard_peripheral/Source\gd32vw55x_qspi.c ****     QSPI_CTL |= (cfg->match_mode | cfg->polling_stop);
 623              		.loc 1 260 5 is_stmt 1
 260:C:/Users/stapi/OneDrive/Desktop/GD32VW553/V1_MQTT_OK/GD32VW55X_Wifi_BLE_SDK/GD32VW55x_RELEASE_V1.0.2/MSDK/plf/GD32VW55x_standard_peripheral/Source\gd32vw55x_qspi.c ****     QSPI_CTL |= (cfg->match_mode | cfg->polling_stop);
 624              		.loc 1 260 14 is_stmt 0
 625 001a 9843     		lw	a4,0(a5)
 626 001c 758F     		and	a4,a4,a3
 627 001e 98C3     		sw	a4,0(a5)
 261:C:/Users/stapi/OneDrive/Desktop/GD32VW553/V1_MQTT_OK/GD32VW55X_Wifi_BLE_SDK/GD32VW55x_RELEASE_V1.0.2/MSDK/plf/GD32VW55x_standard_peripheral/Source\gd32vw55x_qspi.c **** 
 628              		.loc 1 261 5 is_stmt 1
 261:C:/Users/stapi/OneDrive/Desktop/GD32VW553/V1_MQTT_OK/GD32VW55X_Wifi_BLE_SDK/GD32VW55x_RELEASE_V1.0.2/MSDK/plf/GD32VW55x_standard_peripheral/Source\gd32vw55x_qspi.c **** 
 629              		.loc 1 261 34 is_stmt 0
 630 0020 D049     		lw	a2,20(a1)
 631 0022 9849     		lw	a4,16(a1)
 261:C:/Users/stapi/OneDrive/Desktop/GD32VW553/V1_MQTT_OK/GD32VW55X_Wifi_BLE_SDK/GD32VW55x_RELEASE_V1.0.2/MSDK/plf/GD32VW55x_standard_peripheral/Source\gd32vw55x_qspi.c **** 
 632              		.loc 1 261 14
 633 0024 9443     		lw	a3,0(a5)
 261:C:/Users/stapi/OneDrive/Desktop/GD32VW553/V1_MQTT_OK/GD32VW55X_Wifi_BLE_SDK/GD32VW55x_RELEASE_V1.0.2/MSDK/plf/GD32VW55x_standard_peripheral/Source\gd32vw55x_qspi.c **** 
 634              		.loc 1 261 34
 635 0026 518F     		or	a4,a4,a2
 261:C:/Users/stapi/OneDrive/Desktop/GD32VW553/V1_MQTT_OK/GD32VW55X_Wifi_BLE_SDK/GD32VW55x_RELEASE_V1.0.2/MSDK/plf/GD32VW55x_standard_peripheral/Source\gd32vw55x_qspi.c **** 
 636              		.loc 1 261 14
 637 0028 558F     		or	a4,a4,a3
 638 002a 98C3     		sw	a4,0(a5)
 263:C:/Users/stapi/OneDrive/Desktop/GD32VW553/V1_MQTT_OK/GD32VW55X_Wifi_BLE_SDK/GD32VW55x_RELEASE_V1.0.2/MSDK/plf/GD32VW55x_standard_peripheral/Source\gd32vw55x_qspi.c ****     qspi_config(cmd, QSPI_READ_POLLING);
 639              		.loc 1 263 5 is_stmt 1
 263:C:/Users/stapi/OneDrive/Desktop/GD32VW553/V1_MQTT_OK/GD32VW55X_Wifi_BLE_SDK/GD32VW55x_RELEASE_V1.0.2/MSDK/plf/GD32VW55x_standard_peripheral/Source\gd32vw55x_qspi.c ****     qspi_config(cmd, QSPI_READ_POLLING);
 640              		.loc 1 263 22 is_stmt 0
 641 002c DC45     		lw	a5,12(a1)
 264:C:/Users/stapi/OneDrive/Desktop/GD32VW553/V1_MQTT_OK/GD32VW55X_Wifi_BLE_SDK/GD32VW55x_RELEASE_V1.0.2/MSDK/plf/GD32VW55x_standard_peripheral/Source\gd32vw55x_qspi.c **** }
 642              		.loc 1 264 5
 643 002e B7050008 		li	a1,134217728
 644              	.LVL10:
 263:C:/Users/stapi/OneDrive/Desktop/GD32VW553/V1_MQTT_OK/GD32VW55X_Wifi_BLE_SDK/GD32VW55x_RELEASE_V1.0.2/MSDK/plf/GD32VW55x_standard_peripheral/Source\gd32vw55x_qspi.c ****     qspi_config(cmd, QSPI_READ_POLLING);
 645              		.loc 1 263 22
 646 0032 1CD5     		sw	a5,40(a0)
 264:C:/Users/stapi/OneDrive/Desktop/GD32VW553/V1_MQTT_OK/GD32VW55X_Wifi_BLE_SDK/GD32VW55x_RELEASE_V1.0.2/MSDK/plf/GD32VW55x_standard_peripheral/Source\gd32vw55x_qspi.c **** }
 647              		.loc 1 264 5 is_stmt 1
 648 0034 17030000 		tail	qspi_config
 648      67000300 
 649              	.LVL11:
 650              		.cfi_endproc
 651              	.LFE375:
 653              		.section	.text.qspi_memorymapped_config,"ax",@progbits
 654              		.align	1
 655              		.globl	qspi_memorymapped_config
 657              	qspi_memorymapped_config:
 658              	.LFB376:
 294:C:/Users/stapi/OneDrive/Desktop/GD32VW553/V1_MQTT_OK/GD32VW55X_Wifi_BLE_SDK/GD32VW55x_RELEASE_V1.0.2/MSDK/plf/GD32VW55x_standard_peripheral/Source\gd32vw55x_qspi.c ****     /* enable timeout */
 659              		.loc 1 294 1
 660              		.cfi_startproc
 661              	.LVL12:
 296:C:/Users/stapi/OneDrive/Desktop/GD32VW553/V1_MQTT_OK/GD32VW55X_Wifi_BLE_SDK/GD32VW55x_RELEASE_V1.0.2/MSDK/plf/GD32VW55x_standard_peripheral/Source\gd32vw55x_qspi.c ****     QSPI_CTL |= toen;
 662              		.loc 1 296 5
 296:C:/Users/stapi/OneDrive/Desktop/GD32VW553/V1_MQTT_OK/GD32VW55X_Wifi_BLE_SDK/GD32VW55x_RELEASE_V1.0.2/MSDK/plf/GD32VW55x_standard_peripheral/Source\gd32vw55x_qspi.c ****     QSPI_CTL |= toen;
 663              		.loc 1 296 14 is_stmt 0
 664 0000 B7670240 		li	a5,1073897472
 665 0004 93870780 		addi	a5,a5,-2048
 666 0008 9843     		lw	a4,0(a5)
 667 000a 5D9B     		andi	a4,a4,-9
 668 000c 98C3     		sw	a4,0(a5)
 297:C:/Users/stapi/OneDrive/Desktop/GD32VW553/V1_MQTT_OK/GD32VW55X_Wifi_BLE_SDK/GD32VW55x_RELEASE_V1.0.2/MSDK/plf/GD32VW55x_standard_peripheral/Source\gd32vw55x_qspi.c **** 
 669              		.loc 1 297 5 is_stmt 1
 297:C:/Users/stapi/OneDrive/Desktop/GD32VW553/V1_MQTT_OK/GD32VW55X_Wifi_BLE_SDK/GD32VW55x_RELEASE_V1.0.2/MSDK/plf/GD32VW55x_standard_peripheral/Source\gd32vw55x_qspi.c **** 
 670              		.loc 1 297 14 is_stmt 0
 671 000e 9843     		lw	a4,0(a5)
 672 0010 518F     		or	a4,a4,a2
 673 0012 98C3     		sw	a4,0(a5)
 299:C:/Users/stapi/OneDrive/Desktop/GD32VW553/V1_MQTT_OK/GD32VW55X_Wifi_BLE_SDK/GD32VW55x_RELEASE_V1.0.2/MSDK/plf/GD32VW55x_standard_peripheral/Source\gd32vw55x_qspi.c ****         /* configure the timeout value */
 674              		.loc 1 299 5 is_stmt 1
 299:C:/Users/stapi/OneDrive/Desktop/GD32VW553/V1_MQTT_OK/GD32VW55X_Wifi_BLE_SDK/GD32VW55x_RELEASE_V1.0.2/MSDK/plf/GD32VW55x_standard_peripheral/Source\gd32vw55x_qspi.c ****         /* configure the timeout value */
 675              		.loc 1 299 7 is_stmt 0
 676 0014 2147     		li	a4,8
 677 0016 6319E600 		bne	a2,a4,.L45
 301:C:/Users/stapi/OneDrive/Desktop/GD32VW553/V1_MQTT_OK/GD32VW55X_Wifi_BLE_SDK/GD32VW55x_RELEASE_V1.0.2/MSDK/plf/GD32VW55x_standard_peripheral/Source\gd32vw55x_qspi.c ****         QSPI_STATC = QSPI_STATC_TMOUTC;
 678              		.loc 1 301 9 is_stmt 1
 301:C:/Users/stapi/OneDrive/Desktop/GD32VW553/V1_MQTT_OK/GD32VW55X_Wifi_BLE_SDK/GD32VW55x_RELEASE_V1.0.2/MSDK/plf/GD32VW55x_standard_peripheral/Source\gd32vw55x_qspi.c ****         QSPI_STATC = QSPI_STATC_TMOUTC;
 679              		.loc 1 301 20 is_stmt 0
 680 001a 8CDB     		sw	a1,48(a5)
 302:C:/Users/stapi/OneDrive/Desktop/GD32VW553/V1_MQTT_OK/GD32VW55X_Wifi_BLE_SDK/GD32VW55x_RELEASE_V1.0.2/MSDK/plf/GD32VW55x_standard_peripheral/Source\gd32vw55x_qspi.c ****         /* enable the QSPI timeout interrupt */
 681              		.loc 1 302 9 is_stmt 1
 302:C:/Users/stapi/OneDrive/Desktop/GD32VW553/V1_MQTT_OK/GD32VW55X_Wifi_BLE_SDK/GD32VW55x_RELEASE_V1.0.2/MSDK/plf/GD32VW55x_standard_peripheral/Source\gd32vw55x_qspi.c ****         /* enable the QSPI timeout interrupt */
 682              		.loc 1 302 20 is_stmt 0
 683 001c 4147     		li	a4,16
 684 001e D8C7     		sw	a4,12(a5)
 304:C:/Users/stapi/OneDrive/Desktop/GD32VW553/V1_MQTT_OK/GD32VW55X_Wifi_BLE_SDK/GD32VW55x_RELEASE_V1.0.2/MSDK/plf/GD32VW55x_standard_peripheral/Source\gd32vw55x_qspi.c ****     }
 685              		.loc 1 304 9 is_stmt 1
 304:C:/Users/stapi/OneDrive/Desktop/GD32VW553/V1_MQTT_OK/GD32VW55X_Wifi_BLE_SDK/GD32VW55x_RELEASE_V1.0.2/MSDK/plf/GD32VW55x_standard_peripheral/Source\gd32vw55x_qspi.c ****     }
 686              		.loc 1 304 18 is_stmt 0
 687 0020 9843     		lw	a4,0(a5)
 688 0022 13174729 		bseti	a4,a4,20
 689 0026 98C3     		sw	a4,0(a5)
 690              	.L45:
 306:C:/Users/stapi/OneDrive/Desktop/GD32VW553/V1_MQTT_OK/GD32VW55X_Wifi_BLE_SDK/GD32VW55x_RELEASE_V1.0.2/MSDK/plf/GD32VW55x_standard_peripheral/Source\gd32vw55x_qspi.c **** }
 691              		.loc 1 306 5 is_stmt 1
 692 0028 B705000C 		li	a1,201326592
 693              	.LVL13:
 694 002c 17030000 		tail	qspi_config
 694      67000300 
 695              	.LVL14:
 696              		.cfi_endproc
 697              	.LFE376:
 699              		.section	.text.qspi_data_transmit,"ax",@progbits
 700              		.align	1
 701              		.globl	qspi_data_transmit
 703              	qspi_data_transmit:
 704              	.LFB377:
 316:C:/Users/stapi/OneDrive/Desktop/GD32VW553/V1_MQTT_OK/GD32VW55X_Wifi_BLE_SDK/GD32VW55x_RELEASE_V1.0.2/MSDK/plf/GD32VW55x_standard_peripheral/Source\gd32vw55x_qspi.c ****     uint32_t tx_cnt;
 705              		.loc 1 316 1
 706              		.cfi_startproc
 707              	.LVL15:
 317:C:/Users/stapi/OneDrive/Desktop/GD32VW553/V1_MQTT_OK/GD32VW55X_Wifi_BLE_SDK/GD32VW55x_RELEASE_V1.0.2/MSDK/plf/GD32VW55x_standard_peripheral/Source\gd32vw55x_qspi.c **** 
 708              		.loc 1 317 5
 319:C:/Users/stapi/OneDrive/Desktop/GD32VW553/V1_MQTT_OK/GD32VW55X_Wifi_BLE_SDK/GD32VW55x_RELEASE_V1.0.2/MSDK/plf/GD32VW55x_standard_peripheral/Source\gd32vw55x_qspi.c **** 
 709              		.loc 1 319 5
 319:C:/Users/stapi/OneDrive/Desktop/GD32VW553/V1_MQTT_OK/GD32VW55X_Wifi_BLE_SDK/GD32VW55x_RELEASE_V1.0.2/MSDK/plf/GD32VW55x_standard_peripheral/Source\gd32vw55x_qspi.c **** 
 710              		.loc 1 319 14 is_stmt 0
 711 0000 37670240 		li	a4,1073897472
 712 0004 83270781 		lw	a5,-2032(a4)
 713              	.LVL16:
 321:C:/Users/stapi/OneDrive/Desktop/GD32VW553/V1_MQTT_OK/GD32VW55X_Wifi_BLE_SDK/GD32VW55x_RELEASE_V1.0.2/MSDK/plf/GD32VW55x_standard_peripheral/Source\gd32vw55x_qspi.c **** 
 714              		.loc 1 321 5 is_stmt 1
 321:C:/Users/stapi/OneDrive/Desktop/GD32VW553/V1_MQTT_OK/GD32VW55X_Wifi_BLE_SDK/GD32VW55x_RELEASE_V1.0.2/MSDK/plf/GD32VW55x_standard_peripheral/Source\gd32vw55x_qspi.c **** 
 715              		.loc 1 321 18 is_stmt 0
 716 0008 83264781 		lw	a3,-2028(a4)
 321:C:/Users/stapi/OneDrive/Desktop/GD32VW553/V1_MQTT_OK/GD32VW55X_Wifi_BLE_SDK/GD32VW55x_RELEASE_V1.0.2/MSDK/plf/GD32VW55x_standard_peripheral/Source\gd32vw55x_qspi.c **** 
 717              		.loc 1 321 51
 718 000c 370600F4 		li	a2,-201326592
 719 0010 7D16     		addi	a2,a2,-1
 720 0012 F18E     		and	a3,a3,a2
 319:C:/Users/stapi/OneDrive/Desktop/GD32VW553/V1_MQTT_OK/GD32VW55X_Wifi_BLE_SDK/GD32VW55x_RELEASE_V1.0.2/MSDK/plf/GD32VW55x_standard_peripheral/Source\gd32vw55x_qspi.c **** 
 721              		.loc 1 319 12
 722 0014 8507     		addi	a5,a5,1
 321:C:/Users/stapi/OneDrive/Desktop/GD32VW553/V1_MQTT_OK/GD32VW55X_Wifi_BLE_SDK/GD32VW55x_RELEASE_V1.0.2/MSDK/plf/GD32VW55x_standard_peripheral/Source\gd32vw55x_qspi.c **** 
 723              		.loc 1 321 15
 724 0016 232AD780 		sw	a3,-2028(a4)
 323:C:/Users/stapi/OneDrive/Desktop/GD32VW553/V1_MQTT_OK/GD32VW55X_Wifi_BLE_SDK/GD32VW55x_RELEASE_V1.0.2/MSDK/plf/GD32VW55x_standard_peripheral/Source\gd32vw55x_qspi.c ****         while((QSPI_STAT & QSPI_FLAG_FT) == 0U) {
 725              		.loc 1 323 5 is_stmt 1
 726 001a AA97     		add	a5,a0,a5
 324:C:/Users/stapi/OneDrive/Desktop/GD32VW553/V1_MQTT_OK/GD32VW55X_Wifi_BLE_SDK/GD32VW55x_RELEASE_V1.0.2/MSDK/plf/GD32VW55x_standard_peripheral/Source\gd32vw55x_qspi.c ****         }
 727              		.loc 1 324 16 is_stmt 0
 728 001c B7660240 		li	a3,1073897472
 729              	.L48:
 323:C:/Users/stapi/OneDrive/Desktop/GD32VW553/V1_MQTT_OK/GD32VW55X_Wifi_BLE_SDK/GD32VW55x_RELEASE_V1.0.2/MSDK/plf/GD32VW55x_standard_peripheral/Source\gd32vw55x_qspi.c ****         while((QSPI_STAT & QSPI_FLAG_FT) == 0U) {
 730              		.loc 1 323 10 is_stmt 1
 731 0020 6313F500 		bne	a0,a5,.L49
 330:C:/Users/stapi/OneDrive/Desktop/GD32VW553/V1_MQTT_OK/GD32VW55X_Wifi_BLE_SDK/GD32VW55x_RELEASE_V1.0.2/MSDK/plf/GD32VW55x_standard_peripheral/Source\gd32vw55x_qspi.c **** 
 732              		.loc 1 330 1 is_stmt 0
 733 0024 8280     		ret
 734              	.L49:
 325:C:/Users/stapi/OneDrive/Desktop/GD32VW553/V1_MQTT_OK/GD32VW55X_Wifi_BLE_SDK/GD32VW55x_RELEASE_V1.0.2/MSDK/plf/GD32VW55x_standard_peripheral/Source\gd32vw55x_qspi.c ****         /* transmit data */
 735              		.loc 1 325 9 is_stmt 1 discriminator 1
 324:C:/Users/stapi/OneDrive/Desktop/GD32VW553/V1_MQTT_OK/GD32VW55X_Wifi_BLE_SDK/GD32VW55x_RELEASE_V1.0.2/MSDK/plf/GD32VW55x_standard_peripheral/Source\gd32vw55x_qspi.c ****         }
 736              		.loc 1 324 14 discriminator 1
 324:C:/Users/stapi/OneDrive/Desktop/GD32VW553/V1_MQTT_OK/GD32VW55X_Wifi_BLE_SDK/GD32VW55x_RELEASE_V1.0.2/MSDK/plf/GD32VW55x_standard_peripheral/Source\gd32vw55x_qspi.c ****         }
 737              		.loc 1 324 16 is_stmt 0 discriminator 1
 738 0026 03A78680 		lw	a4,-2040(a3)
 324:C:/Users/stapi/OneDrive/Desktop/GD32VW553/V1_MQTT_OK/GD32VW55X_Wifi_BLE_SDK/GD32VW55x_RELEASE_V1.0.2/MSDK/plf/GD32VW55x_standard_peripheral/Source\gd32vw55x_qspi.c ****         }
 739              		.loc 1 324 26 discriminator 1
 740 002a 118B     		andi	a4,a4,4
 324:C:/Users/stapi/OneDrive/Desktop/GD32VW553/V1_MQTT_OK/GD32VW55X_Wifi_BLE_SDK/GD32VW55x_RELEASE_V1.0.2/MSDK/plf/GD32VW55x_standard_peripheral/Source\gd32vw55x_qspi.c ****         }
 741              		.loc 1 324 14 discriminator 1
 742 002c 6DDF     		beq	a4,zero,.L49
 327:C:/Users/stapi/OneDrive/Desktop/GD32VW553/V1_MQTT_OK/GD32VW55X_Wifi_BLE_SDK/GD32VW55x_RELEASE_V1.0.2/MSDK/plf/GD32VW55x_standard_peripheral/Source\gd32vw55x_qspi.c ****         tx_cnt--;
 743              		.loc 1 327 9 is_stmt 1
 327:C:/Users/stapi/OneDrive/Desktop/GD32VW553/V1_MQTT_OK/GD32VW55X_Wifi_BLE_SDK/GD32VW55x_RELEASE_V1.0.2/MSDK/plf/GD32VW55x_standard_peripheral/Source\gd32vw55x_qspi.c ****         tx_cnt--;
 744              		.loc 1 327 44 is_stmt 0
 745 002e 03470500 		lbu	a4,0(a0)
 327:C:/Users/stapi/OneDrive/Desktop/GD32VW553/V1_MQTT_OK/GD32VW55X_Wifi_BLE_SDK/GD32VW55x_RELEASE_V1.0.2/MSDK/plf/GD32VW55x_standard_peripheral/Source\gd32vw55x_qspi.c ****         tx_cnt--;
 746              		.loc 1 327 50
 747 0032 0505     		addi	a0,a0,1
 748              	.LVL17:
 327:C:/Users/stapi/OneDrive/Desktop/GD32VW553/V1_MQTT_OK/GD32VW55X_Wifi_BLE_SDK/GD32VW55x_RELEASE_V1.0.2/MSDK/plf/GD32VW55x_standard_peripheral/Source\gd32vw55x_qspi.c ****         tx_cnt--;
 749              		.loc 1 327 42
 750 0034 2380E682 		sb	a4,-2016(a3)
 328:C:/Users/stapi/OneDrive/Desktop/GD32VW553/V1_MQTT_OK/GD32VW55X_Wifi_BLE_SDK/GD32VW55x_RELEASE_V1.0.2/MSDK/plf/GD32VW55x_standard_peripheral/Source\gd32vw55x_qspi.c ****     }
 751              		.loc 1 328 9 is_stmt 1
 752 0038 E5B7     		j	.L48
 753              		.cfi_endproc
 754              	.LFE377:
 756              		.section	.text.qspi_data_receive,"ax",@progbits
 757              		.align	1
 758              		.globl	qspi_data_receive
 760              	qspi_data_receive:
 761              	.LFB378:
 339:C:/Users/stapi/OneDrive/Desktop/GD32VW553/V1_MQTT_OK/GD32VW55X_Wifi_BLE_SDK/GD32VW55x_RELEASE_V1.0.2/MSDK/plf/GD32VW55x_standard_peripheral/Source\gd32vw55x_qspi.c ****     uint32_t rx_cnt, addr;
 762              		.loc 1 339 1
 763              		.cfi_startproc
 764              	.LVL18:
 340:C:/Users/stapi/OneDrive/Desktop/GD32VW553/V1_MQTT_OK/GD32VW55X_Wifi_BLE_SDK/GD32VW55x_RELEASE_V1.0.2/MSDK/plf/GD32VW55x_standard_peripheral/Source\gd32vw55x_qspi.c **** 
 765              		.loc 1 340 5
 342:C:/Users/stapi/OneDrive/Desktop/GD32VW553/V1_MQTT_OK/GD32VW55X_Wifi_BLE_SDK/GD32VW55x_RELEASE_V1.0.2/MSDK/plf/GD32VW55x_standard_peripheral/Source\gd32vw55x_qspi.c ****     addr = QSPI_ADDR;
 766              		.loc 1 342 5
 342:C:/Users/stapi/OneDrive/Desktop/GD32VW553/V1_MQTT_OK/GD32VW55X_Wifi_BLE_SDK/GD32VW55x_RELEASE_V1.0.2/MSDK/plf/GD32VW55x_standard_peripheral/Source\gd32vw55x_qspi.c ****     addr = QSPI_ADDR;
 767              		.loc 1 342 14 is_stmt 0
 768 0000 B7670240 		li	a5,1073897472
 769 0004 93870780 		addi	a5,a5,-2048
 770 0008 984B     		lw	a4,16(a5)
 771              	.LVL19:
 343:C:/Users/stapi/OneDrive/Desktop/GD32VW553/V1_MQTT_OK/GD32VW55X_Wifi_BLE_SDK/GD32VW55x_RELEASE_V1.0.2/MSDK/plf/GD32VW55x_standard_peripheral/Source\gd32vw55x_qspi.c **** 
 772              		.loc 1 343 5 is_stmt 1
 343:C:/Users/stapi/OneDrive/Desktop/GD32VW553/V1_MQTT_OK/GD32VW55X_Wifi_BLE_SDK/GD32VW55x_RELEASE_V1.0.2/MSDK/plf/GD32VW55x_standard_peripheral/Source\gd32vw55x_qspi.c **** 
 773              		.loc 1 343 10 is_stmt 0
 774 000a 8C4F     		lw	a1,24(a5)
 775              	.LVL20:
 345:C:/Users/stapi/OneDrive/Desktop/GD32VW553/V1_MQTT_OK/GD32VW55X_Wifi_BLE_SDK/GD32VW55x_RELEASE_V1.0.2/MSDK/plf/GD32VW55x_standard_peripheral/Source\gd32vw55x_qspi.c ****     /* start the transfer by re-writing the address in QSPI_ADDR register */
 776              		.loc 1 345 5 is_stmt 1
 345:C:/Users/stapi/OneDrive/Desktop/GD32VW553/V1_MQTT_OK/GD32VW55X_Wifi_BLE_SDK/GD32VW55x_RELEASE_V1.0.2/MSDK/plf/GD32VW55x_standard_peripheral/Source\gd32vw55x_qspi.c ****     /* start the transfer by re-writing the address in QSPI_ADDR register */
 777              		.loc 1 345 18 is_stmt 0
 778 000c D44B     		lw	a3,20(a5)
 345:C:/Users/stapi/OneDrive/Desktop/GD32VW553/V1_MQTT_OK/GD32VW55X_Wifi_BLE_SDK/GD32VW55x_RELEASE_V1.0.2/MSDK/plf/GD32VW55x_standard_peripheral/Source\gd32vw55x_qspi.c ****     /* start the transfer by re-writing the address in QSPI_ADDR register */
 779              		.loc 1 345 28
 780 000e 370600F4 		li	a2,-201326592
 781 0012 7D16     		addi	a2,a2,-1
 782 0014 F18E     		and	a3,a3,a2
 345:C:/Users/stapi/OneDrive/Desktop/GD32VW553/V1_MQTT_OK/GD32VW55X_Wifi_BLE_SDK/GD32VW55x_RELEASE_V1.0.2/MSDK/plf/GD32VW55x_standard_peripheral/Source\gd32vw55x_qspi.c ****     /* start the transfer by re-writing the address in QSPI_ADDR register */
 783              		.loc 1 345 51
 784 0016 9396A629 		bseti	a3,a3,26
 345:C:/Users/stapi/OneDrive/Desktop/GD32VW553/V1_MQTT_OK/GD32VW55X_Wifi_BLE_SDK/GD32VW55x_RELEASE_V1.0.2/MSDK/plf/GD32VW55x_standard_peripheral/Source\gd32vw55x_qspi.c ****     /* start the transfer by re-writing the address in QSPI_ADDR register */
 785              		.loc 1 345 15
 786 001a D4CB     		sw	a3,20(a5)
 347:C:/Users/stapi/OneDrive/Desktop/GD32VW553/V1_MQTT_OK/GD32VW55X_Wifi_BLE_SDK/GD32VW55x_RELEASE_V1.0.2/MSDK/plf/GD32VW55x_standard_peripheral/Source\gd32vw55x_qspi.c **** 
 787              		.loc 1 347 5 is_stmt 1
 347:C:/Users/stapi/OneDrive/Desktop/GD32VW553/V1_MQTT_OK/GD32VW55X_Wifi_BLE_SDK/GD32VW55x_RELEASE_V1.0.2/MSDK/plf/GD32VW55x_standard_peripheral/Source\gd32vw55x_qspi.c **** 
 788              		.loc 1 347 15 is_stmt 0
 789 001c 8CCF     		sw	a1,24(a5)
 349:C:/Users/stapi/OneDrive/Desktop/GD32VW553/V1_MQTT_OK/GD32VW55X_Wifi_BLE_SDK/GD32VW55x_RELEASE_V1.0.2/MSDK/plf/GD32VW55x_standard_peripheral/Source\gd32vw55x_qspi.c ****         while((QSPI_STAT & (QSPI_FLAG_FT | QSPI_FLAG_TC)) == 0U) {
 790              		.loc 1 349 5 is_stmt 1
 342:C:/Users/stapi/OneDrive/Desktop/GD32VW553/V1_MQTT_OK/GD32VW55X_Wifi_BLE_SDK/GD32VW55x_RELEASE_V1.0.2/MSDK/plf/GD32VW55x_standard_peripheral/Source\gd32vw55x_qspi.c ****     addr = QSPI_ADDR;
 791              		.loc 1 342 12 is_stmt 0
 792 001e 93071700 		addi	a5,a4,1
 793 0022 AA97     		add	a5,a0,a5
 350:C:/Users/stapi/OneDrive/Desktop/GD32VW553/V1_MQTT_OK/GD32VW55X_Wifi_BLE_SDK/GD32VW55x_RELEASE_V1.0.2/MSDK/plf/GD32VW55x_standard_peripheral/Source\gd32vw55x_qspi.c ****         }
 794              		.loc 1 350 16
 795 0024 B7660240 		li	a3,1073897472
 796              	.L54:
 349:C:/Users/stapi/OneDrive/Desktop/GD32VW553/V1_MQTT_OK/GD32VW55X_Wifi_BLE_SDK/GD32VW55x_RELEASE_V1.0.2/MSDK/plf/GD32VW55x_standard_peripheral/Source\gd32vw55x_qspi.c ****         while((QSPI_STAT & (QSPI_FLAG_FT | QSPI_FLAG_TC)) == 0U) {
 797              		.loc 1 349 10 is_stmt 1
 798 0028 6313F500 		bne	a0,a5,.L55
 355:C:/Users/stapi/OneDrive/Desktop/GD32VW553/V1_MQTT_OK/GD32VW55X_Wifi_BLE_SDK/GD32VW55x_RELEASE_V1.0.2/MSDK/plf/GD32VW55x_standard_peripheral/Source\gd32vw55x_qspi.c **** 
 799              		.loc 1 355 1 is_stmt 0
 800 002c 8280     		ret
 801              	.L55:
 351:C:/Users/stapi/OneDrive/Desktop/GD32VW553/V1_MQTT_OK/GD32VW55X_Wifi_BLE_SDK/GD32VW55x_RELEASE_V1.0.2/MSDK/plf/GD32VW55x_standard_peripheral/Source\gd32vw55x_qspi.c ****         *rdata++ = *(uint8_t *)(QSPI + 0x00000020U);
 802              		.loc 1 351 9 is_stmt 1 discriminator 1
 350:C:/Users/stapi/OneDrive/Desktop/GD32VW553/V1_MQTT_OK/GD32VW55X_Wifi_BLE_SDK/GD32VW55x_RELEASE_V1.0.2/MSDK/plf/GD32VW55x_standard_peripheral/Source\gd32vw55x_qspi.c ****         }
 803              		.loc 1 350 14 discriminator 1
 350:C:/Users/stapi/OneDrive/Desktop/GD32VW553/V1_MQTT_OK/GD32VW55X_Wifi_BLE_SDK/GD32VW55x_RELEASE_V1.0.2/MSDK/plf/GD32VW55x_standard_peripheral/Source\gd32vw55x_qspi.c ****         }
 804              		.loc 1 350 16 is_stmt 0 discriminator 1
 805 002e 03A78680 		lw	a4,-2040(a3)
 350:C:/Users/stapi/OneDrive/Desktop/GD32VW553/V1_MQTT_OK/GD32VW55X_Wifi_BLE_SDK/GD32VW55x_RELEASE_V1.0.2/MSDK/plf/GD32VW55x_standard_peripheral/Source\gd32vw55x_qspi.c ****         }
 806              		.loc 1 350 26 discriminator 1
 807 0032 198B     		andi	a4,a4,6
 350:C:/Users/stapi/OneDrive/Desktop/GD32VW553/V1_MQTT_OK/GD32VW55X_Wifi_BLE_SDK/GD32VW55x_RELEASE_V1.0.2/MSDK/plf/GD32VW55x_standard_peripheral/Source\gd32vw55x_qspi.c ****         }
 808              		.loc 1 350 14 discriminator 1
 809 0034 6DDF     		beq	a4,zero,.L55
 352:C:/Users/stapi/OneDrive/Desktop/GD32VW553/V1_MQTT_OK/GD32VW55X_Wifi_BLE_SDK/GD32VW55x_RELEASE_V1.0.2/MSDK/plf/GD32VW55x_standard_peripheral/Source\gd32vw55x_qspi.c ****         rx_cnt--;
 810              		.loc 1 352 9 is_stmt 1
 352:C:/Users/stapi/OneDrive/Desktop/GD32VW553/V1_MQTT_OK/GD32VW55X_Wifi_BLE_SDK/GD32VW55x_RELEASE_V1.0.2/MSDK/plf/GD32VW55x_standard_peripheral/Source\gd32vw55x_qspi.c ****         rx_cnt--;
 811              		.loc 1 352 20 is_stmt 0
 812 0036 03C70682 		lbu	a4,-2016(a3)
 352:C:/Users/stapi/OneDrive/Desktop/GD32VW553/V1_MQTT_OK/GD32VW55X_Wifi_BLE_SDK/GD32VW55x_RELEASE_V1.0.2/MSDK/plf/GD32VW55x_standard_peripheral/Source\gd32vw55x_qspi.c ****         rx_cnt--;
 813              		.loc 1 352 15
 814 003a 0505     		addi	a0,a0,1
 815              	.LVL21:
 352:C:/Users/stapi/OneDrive/Desktop/GD32VW553/V1_MQTT_OK/GD32VW55X_Wifi_BLE_SDK/GD32VW55x_RELEASE_V1.0.2/MSDK/plf/GD32VW55x_standard_peripheral/Source\gd32vw55x_qspi.c ****         rx_cnt--;
 816              		.loc 1 352 18
 817 003c A30FE5FE 		sb	a4,-1(a0)
 353:C:/Users/stapi/OneDrive/Desktop/GD32VW553/V1_MQTT_OK/GD32VW55X_Wifi_BLE_SDK/GD32VW55x_RELEASE_V1.0.2/MSDK/plf/GD32VW55x_standard_peripheral/Source\gd32vw55x_qspi.c ****     }
 818              		.loc 1 353 9 is_stmt 1
 819 0040 E5B7     		j	.L54
 820              		.cfi_endproc
 821              	.LFE378:
 823              		.section	.text.qspi_transmission_abort,"ax",@progbits
 824              		.align	1
 825              		.globl	qspi_transmission_abort
 827              	qspi_transmission_abort:
 828              	.LFB379:
 364:C:/Users/stapi/OneDrive/Desktop/GD32VW553/V1_MQTT_OK/GD32VW55X_Wifi_BLE_SDK/GD32VW55x_RELEASE_V1.0.2/MSDK/plf/GD32VW55x_standard_peripheral/Source\gd32vw55x_qspi.c ****     QSPI_CTL |= QSPI_CTL_ABORT;
 829              		.loc 1 364 1
 830              		.cfi_startproc
 365:C:/Users/stapi/OneDrive/Desktop/GD32VW553/V1_MQTT_OK/GD32VW55X_Wifi_BLE_SDK/GD32VW55x_RELEASE_V1.0.2/MSDK/plf/GD32VW55x_standard_peripheral/Source\gd32vw55x_qspi.c **** }
 831              		.loc 1 365 5
 365:C:/Users/stapi/OneDrive/Desktop/GD32VW553/V1_MQTT_OK/GD32VW55X_Wifi_BLE_SDK/GD32VW55x_RELEASE_V1.0.2/MSDK/plf/GD32VW55x_standard_peripheral/Source\gd32vw55x_qspi.c **** }
 832              		.loc 1 365 14 is_stmt 0
 833 0000 37670240 		li	a4,1073897472
 834 0004 83270780 		lw	a5,-2048(a4)
 835 0008 93E72700 		ori	a5,a5,2
 836 000c 2320F780 		sw	a5,-2048(a4)
 366:C:/Users/stapi/OneDrive/Desktop/GD32VW553/V1_MQTT_OK/GD32VW55X_Wifi_BLE_SDK/GD32VW55x_RELEASE_V1.0.2/MSDK/plf/GD32VW55x_standard_peripheral/Source\gd32vw55x_qspi.c **** 
 837              		.loc 1 366 1
 838 0010 8280     		ret
 839              		.cfi_endproc
 840              	.LFE379:
 842              		.section	.text.qspi_flag_get,"ax",@progbits
 843              		.align	1
 844              		.globl	qspi_flag_get
 846              	qspi_flag_get:
 847              	.LFB380:
 382:C:/Users/stapi/OneDrive/Desktop/GD32VW553/V1_MQTT_OK/GD32VW55X_Wifi_BLE_SDK/GD32VW55x_RELEASE_V1.0.2/MSDK/plf/GD32VW55x_standard_peripheral/Source\gd32vw55x_qspi.c ****     if(RESET != (QSPI_STAT & flag)) {
 848              		.loc 1 382 1 is_stmt 1
 849              		.cfi_startproc
 850              	.LVL22:
 383:C:/Users/stapi/OneDrive/Desktop/GD32VW553/V1_MQTT_OK/GD32VW55X_Wifi_BLE_SDK/GD32VW55x_RELEASE_V1.0.2/MSDK/plf/GD32VW55x_standard_peripheral/Source\gd32vw55x_qspi.c ****         return SET;
 851              		.loc 1 383 5
 383:C:/Users/stapi/OneDrive/Desktop/GD32VW553/V1_MQTT_OK/GD32VW55X_Wifi_BLE_SDK/GD32VW55x_RELEASE_V1.0.2/MSDK/plf/GD32VW55x_standard_peripheral/Source\gd32vw55x_qspi.c ****         return SET;
 852              		.loc 1 383 18 is_stmt 0
 853 0000 B7670240 		li	a5,1073897472
 854 0004 83A78780 		lw	a5,-2040(a5)
 383:C:/Users/stapi/OneDrive/Desktop/GD32VW553/V1_MQTT_OK/GD32VW55X_Wifi_BLE_SDK/GD32VW55x_RELEASE_V1.0.2/MSDK/plf/GD32VW55x_standard_peripheral/Source\gd32vw55x_qspi.c ****         return SET;
 855              		.loc 1 383 28
 856 0008 7D8D     		and	a0,a5,a0
 857              	.LVL23:
 388:C:/Users/stapi/OneDrive/Desktop/GD32VW553/V1_MQTT_OK/GD32VW55X_Wifi_BLE_SDK/GD32VW55x_RELEASE_V1.0.2/MSDK/plf/GD32VW55x_standard_peripheral/Source\gd32vw55x_qspi.c **** 
 858              		.loc 1 388 1
 859 000a 3335A000 		snez	a0,a0
 860 000e 8280     		ret
 861              		.cfi_endproc
 862              	.LFE380:
 864              		.section	.text.qspi_flag_clear,"ax",@progbits
 865              		.align	1
 866              		.globl	qspi_flag_clear
 868              	qspi_flag_clear:
 869              	.LFB381:
 402:C:/Users/stapi/OneDrive/Desktop/GD32VW553/V1_MQTT_OK/GD32VW55X_Wifi_BLE_SDK/GD32VW55x_RELEASE_V1.0.2/MSDK/plf/GD32VW55x_standard_peripheral/Source\gd32vw55x_qspi.c ****     QSPI_STATC |= (uint32_t)flag;
 870              		.loc 1 402 1 is_stmt 1
 871              		.cfi_startproc
 872              	.LVL24:
 403:C:/Users/stapi/OneDrive/Desktop/GD32VW553/V1_MQTT_OK/GD32VW55X_Wifi_BLE_SDK/GD32VW55x_RELEASE_V1.0.2/MSDK/plf/GD32VW55x_standard_peripheral/Source\gd32vw55x_qspi.c **** }
 873              		.loc 1 403 5
 403:C:/Users/stapi/OneDrive/Desktop/GD32VW553/V1_MQTT_OK/GD32VW55X_Wifi_BLE_SDK/GD32VW55x_RELEASE_V1.0.2/MSDK/plf/GD32VW55x_standard_peripheral/Source\gd32vw55x_qspi.c **** }
 874              		.loc 1 403 16 is_stmt 0
 875 0000 37670240 		li	a4,1073897472
 876 0004 8327C780 		lw	a5,-2036(a4)
 877 0008 C98F     		or	a5,a5,a0
 878 000a 2326F780 		sw	a5,-2036(a4)
 404:C:/Users/stapi/OneDrive/Desktop/GD32VW553/V1_MQTT_OK/GD32VW55X_Wifi_BLE_SDK/GD32VW55x_RELEASE_V1.0.2/MSDK/plf/GD32VW55x_standard_peripheral/Source\gd32vw55x_qspi.c **** 
 879              		.loc 1 404 1
 880 000e 8280     		ret
 881              		.cfi_endproc
 882              	.LFE381:
 884              		.section	.text.qspi_interrupt_enable,"ax",@progbits
 885              		.align	1
 886              		.globl	qspi_interrupt_enable
 888              	qspi_interrupt_enable:
 889              	.LFB382:
 419:C:/Users/stapi/OneDrive/Desktop/GD32VW553/V1_MQTT_OK/GD32VW55X_Wifi_BLE_SDK/GD32VW55x_RELEASE_V1.0.2/MSDK/plf/GD32VW55x_standard_peripheral/Source\gd32vw55x_qspi.c ****     QSPI_CTL |= (uint32_t)interrupt;
 890              		.loc 1 419 1 is_stmt 1
 891              		.cfi_startproc
 892              	.LVL25:
 420:C:/Users/stapi/OneDrive/Desktop/GD32VW553/V1_MQTT_OK/GD32VW55X_Wifi_BLE_SDK/GD32VW55x_RELEASE_V1.0.2/MSDK/plf/GD32VW55x_standard_peripheral/Source\gd32vw55x_qspi.c **** }
 893              		.loc 1 420 5
 420:C:/Users/stapi/OneDrive/Desktop/GD32VW553/V1_MQTT_OK/GD32VW55X_Wifi_BLE_SDK/GD32VW55x_RELEASE_V1.0.2/MSDK/plf/GD32VW55x_standard_peripheral/Source\gd32vw55x_qspi.c **** }
 894              		.loc 1 420 14 is_stmt 0
 895 0000 37670240 		li	a4,1073897472
 896 0004 83270780 		lw	a5,-2048(a4)
 897 0008 C98F     		or	a5,a5,a0
 898 000a 2320F780 		sw	a5,-2048(a4)
 421:C:/Users/stapi/OneDrive/Desktop/GD32VW553/V1_MQTT_OK/GD32VW55X_Wifi_BLE_SDK/GD32VW55x_RELEASE_V1.0.2/MSDK/plf/GD32VW55x_standard_peripheral/Source\gd32vw55x_qspi.c **** 
 899              		.loc 1 421 1
 900 000e 8280     		ret
 901              		.cfi_endproc
 902              	.LFE382:
 904              		.section	.text.qspi_interrupt_disable,"ax",@progbits
 905              		.align	1
 906              		.globl	qspi_interrupt_disable
 908              	qspi_interrupt_disable:
 909              	.LFB383:
 436:C:/Users/stapi/OneDrive/Desktop/GD32VW553/V1_MQTT_OK/GD32VW55X_Wifi_BLE_SDK/GD32VW55x_RELEASE_V1.0.2/MSDK/plf/GD32VW55x_standard_peripheral/Source\gd32vw55x_qspi.c ****     QSPI_CTL &= ~(uint32_t)interrupt;
 910              		.loc 1 436 1 is_stmt 1
 911              		.cfi_startproc
 912              	.LVL26:
 437:C:/Users/stapi/OneDrive/Desktop/GD32VW553/V1_MQTT_OK/GD32VW55X_Wifi_BLE_SDK/GD32VW55x_RELEASE_V1.0.2/MSDK/plf/GD32VW55x_standard_peripheral/Source\gd32vw55x_qspi.c **** }
 913              		.loc 1 437 5
 437:C:/Users/stapi/OneDrive/Desktop/GD32VW553/V1_MQTT_OK/GD32VW55X_Wifi_BLE_SDK/GD32VW55x_RELEASE_V1.0.2/MSDK/plf/GD32VW55x_standard_peripheral/Source\gd32vw55x_qspi.c **** }
 914              		.loc 1 437 14 is_stmt 0
 915 0000 B7670240 		li	a5,1073897472
 916 0004 03A70780 		lw	a4,-2048(a5)
 917 0008 3375A740 		andn	a0,a4,a0
 918              	.LVL27:
 919 000c 23A0A780 		sw	a0,-2048(a5)
 438:C:/Users/stapi/OneDrive/Desktop/GD32VW553/V1_MQTT_OK/GD32VW55X_Wifi_BLE_SDK/GD32VW55x_RELEASE_V1.0.2/MSDK/plf/GD32VW55x_standard_peripheral/Source\gd32vw55x_qspi.c **** 
 920              		.loc 1 438 1
 921 0010 8280     		ret
 922              		.cfi_endproc
 923              	.LFE383:
 925              		.section	.text.qspi_interrupt_flag_get,"ax",@progbits
 926              		.align	1
 927              		.globl	qspi_interrupt_flag_get
 929              	qspi_interrupt_flag_get:
 930              	.LFB384:
 453:C:/Users/stapi/OneDrive/Desktop/GD32VW553/V1_MQTT_OK/GD32VW55X_Wifi_BLE_SDK/GD32VW55x_RELEASE_V1.0.2/MSDK/plf/GD32VW55x_standard_peripheral/Source\gd32vw55x_qspi.c ****     uint32_t reg1 = QSPI_CTL;
 931              		.loc 1 453 1 is_stmt 1
 932              		.cfi_startproc
 933              	.LVL28:
 454:C:/Users/stapi/OneDrive/Desktop/GD32VW553/V1_MQTT_OK/GD32VW55X_Wifi_BLE_SDK/GD32VW55x_RELEASE_V1.0.2/MSDK/plf/GD32VW55x_standard_peripheral/Source\gd32vw55x_qspi.c ****     uint32_t reg2 = QSPI_STAT;
 934              		.loc 1 454 5
 454:C:/Users/stapi/OneDrive/Desktop/GD32VW553/V1_MQTT_OK/GD32VW55X_Wifi_BLE_SDK/GD32VW55x_RELEASE_V1.0.2/MSDK/plf/GD32VW55x_standard_peripheral/Source\gd32vw55x_qspi.c ****     uint32_t reg2 = QSPI_STAT;
 935              		.loc 1 454 14 is_stmt 0
 936 0000 B7670240 		li	a5,1073897472
 453:C:/Users/stapi/OneDrive/Desktop/GD32VW553/V1_MQTT_OK/GD32VW55X_Wifi_BLE_SDK/GD32VW55x_RELEASE_V1.0.2/MSDK/plf/GD32VW55x_standard_peripheral/Source\gd32vw55x_qspi.c ****     uint32_t reg1 = QSPI_CTL;
 937              		.loc 1 453 1
 938 0004 2A87     		mv	a4,a0
 454:C:/Users/stapi/OneDrive/Desktop/GD32VW553/V1_MQTT_OK/GD32VW55X_Wifi_BLE_SDK/GD32VW55x_RELEASE_V1.0.2/MSDK/plf/GD32VW55x_standard_peripheral/Source\gd32vw55x_qspi.c ****     uint32_t reg2 = QSPI_STAT;
 939              		.loc 1 454 14
 940 0006 03A50780 		lw	a0,-2048(a5)
 941              	.LVL29:
 455:C:/Users/stapi/OneDrive/Desktop/GD32VW553/V1_MQTT_OK/GD32VW55X_Wifi_BLE_SDK/GD32VW55x_RELEASE_V1.0.2/MSDK/plf/GD32VW55x_standard_peripheral/Source\gd32vw55x_qspi.c **** 
 942              		.loc 1 455 5 is_stmt 1
 455:C:/Users/stapi/OneDrive/Desktop/GD32VW553/V1_MQTT_OK/GD32VW55X_Wifi_BLE_SDK/GD32VW55x_RELEASE_V1.0.2/MSDK/plf/GD32VW55x_standard_peripheral/Source\gd32vw55x_qspi.c **** 
 943              		.loc 1 455 14 is_stmt 0
 944 000a 83A78780 		lw	a5,-2040(a5)
 945              	.LVL30:
 457:C:/Users/stapi/OneDrive/Desktop/GD32VW553/V1_MQTT_OK/GD32VW55X_Wifi_BLE_SDK/GD32VW55x_RELEASE_V1.0.2/MSDK/plf/GD32VW55x_standard_peripheral/Source\gd32vw55x_qspi.c ****     /* QSPI transfer error interrupt flag */
 946              		.loc 1 457 5 is_stmt 1
 947 000e 9146     		li	a3,4
 948 0010 6300D704 		beq	a4,a3,.L65
 949 0014 63ECE600 		bgtu	a4,a3,.L66
 950 0018 8546     		li	a3,1
 951 001a 6303D702 		beq	a4,a3,.L67
 952 001e 8946     		li	a3,2
 953 0020 6304D702 		beq	a4,a3,.L68
 954              	.LVL31:
 955              	.L69:
 487:C:/Users/stapi/OneDrive/Desktop/GD32VW553/V1_MQTT_OK/GD32VW55X_Wifi_BLE_SDK/GD32VW55x_RELEASE_V1.0.2/MSDK/plf/GD32VW55x_standard_peripheral/Source\gd32vw55x_qspi.c ****         return SET;
 956              		.loc 1 487 5
 487:C:/Users/stapi/OneDrive/Desktop/GD32VW553/V1_MQTT_OK/GD32VW55X_Wifi_BLE_SDK/GD32VW55x_RELEASE_V1.0.2/MSDK/plf/GD32VW55x_standard_peripheral/Source\gd32vw55x_qspi.c ****         return SET;
 957              		.loc 1 487 7 is_stmt 0
 958 0024 19C1     		beq	a0,zero,.L64
 487:C:/Users/stapi/OneDrive/Desktop/GD32VW553/V1_MQTT_OK/GD32VW55X_Wifi_BLE_SDK/GD32VW55x_RELEASE_V1.0.2/MSDK/plf/GD32VW55x_standard_peripheral/Source\gd32vw55x_qspi.c ****         return SET;
 959              		.loc 1 487 13 discriminator 1
 960 0026 3335F000 		snez	a0,a5
 961              	.LVL32:
 962              	.L64:
 492:C:/Users/stapi/OneDrive/Desktop/GD32VW553/V1_MQTT_OK/GD32VW55X_Wifi_BLE_SDK/GD32VW55x_RELEASE_V1.0.2/MSDK/plf/GD32VW55x_standard_peripheral/Source\gd32vw55x_qspi.c **** 
 963              		.loc 1 492 1
 964 002a 8280     		ret
 965              	.LVL33:
 966              	.L66:
 457:C:/Users/stapi/OneDrive/Desktop/GD32VW553/V1_MQTT_OK/GD32VW55X_Wifi_BLE_SDK/GD32VW55x_RELEASE_V1.0.2/MSDK/plf/GD32VW55x_standard_peripheral/Source\gd32vw55x_qspi.c ****     /* QSPI transfer error interrupt flag */
 967              		.loc 1 457 5
 968 002c A146     		li	a3,8
 969 002e 6305D702 		beq	a4,a3,.L70
 970 0032 C146     		li	a3,16
 971 0034 E318D7FE 		bne	a4,a3,.L69
 480:C:/Users/stapi/OneDrive/Desktop/GD32VW553/V1_MQTT_OK/GD32VW55X_Wifi_BLE_SDK/GD32VW55x_RELEASE_V1.0.2/MSDK/plf/GD32VW55x_standard_peripheral/Source\gd32vw55x_qspi.c ****         reg2 = reg2 & QSPI_CTL_TMOUTIE;
 972              		.loc 1 480 9 is_stmt 1
 480:C:/Users/stapi/OneDrive/Desktop/GD32VW553/V1_MQTT_OK/GD32VW55X_Wifi_BLE_SDK/GD32VW55x_RELEASE_V1.0.2/MSDK/plf/GD32VW55x_standard_peripheral/Source\gd32vw55x_qspi.c ****         reg2 = reg2 & QSPI_CTL_TMOUTIE;
 973              		.loc 1 480 14 is_stmt 0
 974 0038 4189     		andi	a0,a0,16
 975              	.LVL34:
 481:C:/Users/stapi/OneDrive/Desktop/GD32VW553/V1_MQTT_OK/GD32VW55X_Wifi_BLE_SDK/GD32VW55x_RELEASE_V1.0.2/MSDK/plf/GD32VW55x_standard_peripheral/Source\gd32vw55x_qspi.c ****         break;
 976              		.loc 1 481 9 is_stmt 1
 481:C:/Users/stapi/OneDrive/Desktop/GD32VW553/V1_MQTT_OK/GD32VW55X_Wifi_BLE_SDK/GD32VW55x_RELEASE_V1.0.2/MSDK/plf/GD32VW55x_standard_peripheral/Source\gd32vw55x_qspi.c ****         break;
 977              		.loc 1 481 14 is_stmt 0
 978 003a 37071000 		li	a4,1048576
 979              	.LVL35:
 980 003e 19A0     		j	.L76
 981              	.LVL36:
 982              	.L67:
 460:C:/Users/stapi/OneDrive/Desktop/GD32VW553/V1_MQTT_OK/GD32VW55X_Wifi_BLE_SDK/GD32VW55x_RELEASE_V1.0.2/MSDK/plf/GD32VW55x_standard_peripheral/Source\gd32vw55x_qspi.c ****         reg2 = reg2 & QSPI_CTL_TERRIE;
 983              		.loc 1 460 9 is_stmt 1
 460:C:/Users/stapi/OneDrive/Desktop/GD32VW553/V1_MQTT_OK/GD32VW55X_Wifi_BLE_SDK/GD32VW55x_RELEASE_V1.0.2/MSDK/plf/GD32VW55x_standard_peripheral/Source\gd32vw55x_qspi.c ****         reg2 = reg2 & QSPI_CTL_TERRIE;
 984              		.loc 1 460 14 is_stmt 0
 985 0040 0589     		andi	a0,a0,1
 986              	.LVL37:
 461:C:/Users/stapi/OneDrive/Desktop/GD32VW553/V1_MQTT_OK/GD32VW55X_Wifi_BLE_SDK/GD32VW55x_RELEASE_V1.0.2/MSDK/plf/GD32VW55x_standard_peripheral/Source\gd32vw55x_qspi.c ****         break;
 987              		.loc 1 461 9 is_stmt 1
 461:C:/Users/stapi/OneDrive/Desktop/GD32VW553/V1_MQTT_OK/GD32VW55X_Wifi_BLE_SDK/GD32VW55x_RELEASE_V1.0.2/MSDK/plf/GD32VW55x_standard_peripheral/Source\gd32vw55x_qspi.c ****         break;
 988              		.loc 1 461 14 is_stmt 0
 989 0042 4167     		li	a4,65536
 990              	.LVL38:
 991              	.L76:
 481:C:/Users/stapi/OneDrive/Desktop/GD32VW553/V1_MQTT_OK/GD32VW55X_Wifi_BLE_SDK/GD32VW55x_RELEASE_V1.0.2/MSDK/plf/GD32VW55x_standard_peripheral/Source\gd32vw55x_qspi.c ****         break;
 992              		.loc 1 481 14
 993 0044 F98F     		and	a5,a5,a4
 994              	.LVL39:
 482:C:/Users/stapi/OneDrive/Desktop/GD32VW553/V1_MQTT_OK/GD32VW55X_Wifi_BLE_SDK/GD32VW55x_RELEASE_V1.0.2/MSDK/plf/GD32VW55x_standard_peripheral/Source\gd32vw55x_qspi.c ****     default :
 995              		.loc 1 482 9 is_stmt 1
 996 0046 F9BF     		j	.L69
 997              	.LVL40:
 998              	.L68:
 465:C:/Users/stapi/OneDrive/Desktop/GD32VW553/V1_MQTT_OK/GD32VW55X_Wifi_BLE_SDK/GD32VW55x_RELEASE_V1.0.2/MSDK/plf/GD32VW55x_standard_peripheral/Source\gd32vw55x_qspi.c ****         reg2 = reg2 & QSPI_CTL_TCIE;
 999              		.loc 1 465 9
 465:C:/Users/stapi/OneDrive/Desktop/GD32VW553/V1_MQTT_OK/GD32VW55X_Wifi_BLE_SDK/GD32VW55x_RELEASE_V1.0.2/MSDK/plf/GD32VW55x_standard_peripheral/Source\gd32vw55x_qspi.c ****         reg2 = reg2 & QSPI_CTL_TCIE;
 1000              		.loc 1 465 14 is_stmt 0
 1001 0048 0989     		andi	a0,a0,2
 1002              	.LVL41:
 466:C:/Users/stapi/OneDrive/Desktop/GD32VW553/V1_MQTT_OK/GD32VW55X_Wifi_BLE_SDK/GD32VW55x_RELEASE_V1.0.2/MSDK/plf/GD32VW55x_standard_peripheral/Source\gd32vw55x_qspi.c ****         break;
 1003              		.loc 1 466 9 is_stmt 1
 466:C:/Users/stapi/OneDrive/Desktop/GD32VW553/V1_MQTT_OK/GD32VW55X_Wifi_BLE_SDK/GD32VW55x_RELEASE_V1.0.2/MSDK/plf/GD32VW55x_standard_peripheral/Source\gd32vw55x_qspi.c ****         break;
 1004              		.loc 1 466 14 is_stmt 0
 1005 004a 37070200 		li	a4,131072
 1006              	.LVL42:
 1007 004e DDBF     		j	.L76
 1008              	.LVL43:
 1009              	.L65:
 470:C:/Users/stapi/OneDrive/Desktop/GD32VW553/V1_MQTT_OK/GD32VW55X_Wifi_BLE_SDK/GD32VW55x_RELEASE_V1.0.2/MSDK/plf/GD32VW55x_standard_peripheral/Source\gd32vw55x_qspi.c ****         reg2 = reg2 & QSPI_CTL_FTIE;
 1010              		.loc 1 470 9 is_stmt 1
 470:C:/Users/stapi/OneDrive/Desktop/GD32VW553/V1_MQTT_OK/GD32VW55X_Wifi_BLE_SDK/GD32VW55x_RELEASE_V1.0.2/MSDK/plf/GD32VW55x_standard_peripheral/Source\gd32vw55x_qspi.c ****         reg2 = reg2 & QSPI_CTL_FTIE;
 1011              		.loc 1 470 14 is_stmt 0
 1012 0050 1189     		andi	a0,a0,4
 1013              	.LVL44:
 471:C:/Users/stapi/OneDrive/Desktop/GD32VW553/V1_MQTT_OK/GD32VW55X_Wifi_BLE_SDK/GD32VW55x_RELEASE_V1.0.2/MSDK/plf/GD32VW55x_standard_peripheral/Source\gd32vw55x_qspi.c ****         break;
 1014              		.loc 1 471 9 is_stmt 1
 471:C:/Users/stapi/OneDrive/Desktop/GD32VW553/V1_MQTT_OK/GD32VW55X_Wifi_BLE_SDK/GD32VW55x_RELEASE_V1.0.2/MSDK/plf/GD32VW55x_standard_peripheral/Source\gd32vw55x_qspi.c ****         break;
 1015              		.loc 1 471 14 is_stmt 0
 1016 0052 37070400 		li	a4,262144
 1017              	.LVL45:
 1018 0056 FDB7     		j	.L76
 1019              	.LVL46:
 1020              	.L70:
 475:C:/Users/stapi/OneDrive/Desktop/GD32VW553/V1_MQTT_OK/GD32VW55X_Wifi_BLE_SDK/GD32VW55x_RELEASE_V1.0.2/MSDK/plf/GD32VW55x_standard_peripheral/Source\gd32vw55x_qspi.c ****         reg2 = reg2 & QSPI_CTL_RPMFIE;
 1021              		.loc 1 475 9 is_stmt 1
 475:C:/Users/stapi/OneDrive/Desktop/GD32VW553/V1_MQTT_OK/GD32VW55X_Wifi_BLE_SDK/GD32VW55x_RELEASE_V1.0.2/MSDK/plf/GD32VW55x_standard_peripheral/Source\gd32vw55x_qspi.c ****         reg2 = reg2 & QSPI_CTL_RPMFIE;
 1022              		.loc 1 475 14 is_stmt 0
 1023 0058 2189     		andi	a0,a0,8
 1024              	.LVL47:
 476:C:/Users/stapi/OneDrive/Desktop/GD32VW553/V1_MQTT_OK/GD32VW55X_Wifi_BLE_SDK/GD32VW55x_RELEASE_V1.0.2/MSDK/plf/GD32VW55x_standard_peripheral/Source\gd32vw55x_qspi.c ****         break;
 1025              		.loc 1 476 9 is_stmt 1
 476:C:/Users/stapi/OneDrive/Desktop/GD32VW553/V1_MQTT_OK/GD32VW55X_Wifi_BLE_SDK/GD32VW55x_RELEASE_V1.0.2/MSDK/plf/GD32VW55x_standard_peripheral/Source\gd32vw55x_qspi.c ****         break;
 1026              		.loc 1 476 14 is_stmt 0
 1027 005a 37070800 		li	a4,524288
 1028              	.LVL48:
 1029 005e DDB7     		j	.L76
 1030              		.cfi_endproc
 1031              	.LFE384:
 1033              		.section	.text.qspi_interrupt_flag_clear,"ax",@progbits
 1034              		.align	1
 1035              		.globl	qspi_interrupt_flag_clear
 1037              	qspi_interrupt_flag_clear:
 1038              	.LFB388:
 1039              		.cfi_startproc
 1040 0000 17030000 		tail	qspi_flag_clear
 1040      67000300 
 1041              		.cfi_endproc
 1042              	.LFE388:
 1044              		.text
 1045              	.Letext0:
 1046              		.file 2 "c:\\users\\stapi\\onedrive\\desktop\\gd32vw553\\embeddedbuilder_v1.4.7.26843\\tools\\nucl
 1047              		.file 3 "c:\\users\\stapi\\onedrive\\desktop\\gd32vw553\\embeddedbuilder_v1.4.7.26843\\tools\\nucl
 1048              		.file 4 "..\\..\\..\\..\\plf\\riscv\\gd32vw55x/gd32vw55x.h"
 1049              		.file 5 "..\\..\\..\\..\\plf\\GD32VW55x_standard_peripheral\\Include/gd32vw55x_rcu.h"
 1050              		.file 6 "..\\..\\..\\..\\plf\\GD32VW55x_standard_peripheral\\Include/gd32vw55x_qspi.h"
DEFINED SYMBOLS
                            *ABS*:0000000000000000 gd32vw55x_qspi.c
C:\Users\stapi\AppData\Local\Temp\ccvIhdCz.s:12     .text.qspi_config:0000000000000000 qspi_config
C:\Users\stapi\AppData\Local\Temp\ccvIhdCz.s:16     .text.qspi_config:0000000000000000 .L0 
C:\Users\stapi\AppData\Local\Temp\ccvIhdCz.s:18     .text.qspi_config:0000000000000000 .L0 
C:\Users\stapi\AppData\Local\Temp\ccvIhdCz.s:19     .text.qspi_config:0000000000000000 .L0 
C:\Users\stapi\AppData\Local\Temp\ccvIhdCz.s:20     .text.qspi_config:0000000000000000 .L0 
C:\Users\stapi\AppData\Local\Temp\ccvIhdCz.s:23     .text.qspi_config:0000000000000004 .L0 
C:\Users\stapi\AppData\Local\Temp\ccvIhdCz.s:26     .text.qspi_config:000000000000000c .L0 
C:\Users\stapi\AppData\Local\Temp\ccvIhdCz.s:27     .text.qspi_config:000000000000000c .L0 
C:\Users\stapi\AppData\Local\Temp\ccvIhdCz.s:29     .text.qspi_config:000000000000000e .L0 
C:\Users\stapi\AppData\Local\Temp\ccvIhdCz.s:31     .text.qspi_config:0000000000000012 .L0 
C:\Users\stapi\AppData\Local\Temp\ccvIhdCz.s:33     .text.qspi_config:0000000000000014 .L0 
C:\Users\stapi\AppData\Local\Temp\ccvIhdCz.s:36     .text.qspi_config:0000000000000018 .L0 
C:\Users\stapi\AppData\Local\Temp\ccvIhdCz.s:37     .text.qspi_config:0000000000000018 .L0 
C:\Users\stapi\AppData\Local\Temp\ccvIhdCz.s:39     .text.qspi_config:000000000000001a .L0 
C:\Users\stapi\AppData\Local\Temp\ccvIhdCz.s:41     .text.qspi_config:000000000000001c .L0 
C:\Users\stapi\AppData\Local\Temp\ccvIhdCz.s:43     .text.qspi_config:000000000000001e .L0 
C:\Users\stapi\AppData\Local\Temp\ccvIhdCz.s:44     .text.qspi_config:000000000000001e .L0 
C:\Users\stapi\AppData\Local\Temp\ccvIhdCz.s:46     .text.qspi_config:0000000000000020 .L0 
C:\Users\stapi\AppData\Local\Temp\ccvIhdCz.s:47     .text.qspi_config:0000000000000020 .L0 
C:\Users\stapi\AppData\Local\Temp\ccvIhdCz.s:49     .text.qspi_config:0000000000000022 .L0 
C:\Users\stapi\AppData\Local\Temp\ccvIhdCz.s:52     .text.qspi_config:000000000000002a .L0 
C:\Users\stapi\AppData\Local\Temp\ccvIhdCz.s:53     .text.qspi_config:000000000000002a .L0 
C:\Users\stapi\AppData\Local\Temp\ccvIhdCz.s:62     .text.qspi_config:0000000000000042 .L0 
C:\Users\stapi\AppData\Local\Temp\ccvIhdCz.s:64     .text.qspi_config:0000000000000044 .L0 
C:\Users\stapi\AppData\Local\Temp\ccvIhdCz.s:65     .text.qspi_config:0000000000000044 .L0 
C:\Users\stapi\AppData\Local\Temp\ccvIhdCz.s:75     .text.qspi_config:0000000000000060 .L0 
C:\Users\stapi\AppData\Local\Temp\ccvIhdCz.s:77     .text.qspi_config:0000000000000062 .L0 
C:\Users\stapi\AppData\Local\Temp\ccvIhdCz.s:79     .text.qspi_config:0000000000000064 .L0 
C:\Users\stapi\AppData\Local\Temp\ccvIhdCz.s:82     .text.qspi_config:0000000000000068 .L0 
C:\Users\stapi\AppData\Local\Temp\ccvIhdCz.s:83     .text.qspi_config:0000000000000068 .L0 
C:\Users\stapi\AppData\Local\Temp\ccvIhdCz.s:84     .text.qspi_config:0000000000000068 .L0 
C:\Users\stapi\AppData\Local\Temp\ccvIhdCz.s:87     .text.qspi_config:0000000000000070 .L0 
C:\Users\stapi\AppData\Local\Temp\ccvIhdCz.s:88     .text.qspi_config:0000000000000070 .L0 
C:\Users\stapi\AppData\Local\Temp\ccvIhdCz.s:90     .text.qspi_config:0000000000000072 .L0 
C:\Users\stapi\AppData\Local\Temp\ccvIhdCz.s:94     .text.qspi_config:0000000000000078 .L0 
C:\Users\stapi\AppData\Local\Temp\ccvIhdCz.s:95     .text.qspi_config:0000000000000078 .L0 
C:\Users\stapi\AppData\Local\Temp\ccvIhdCz.s:102    .text.qspi_config:000000000000008e .L0 
C:\Users\stapi\AppData\Local\Temp\ccvIhdCz.s:104    .text.qspi_config:0000000000000090 .L0 
C:\Users\stapi\AppData\Local\Temp\ccvIhdCz.s:106    .text.qspi_config:0000000000000092 .L0 
C:\Users\stapi\AppData\Local\Temp\ccvIhdCz.s:110    .text.qspi_config:0000000000000098 .L0 
C:\Users\stapi\AppData\Local\Temp\ccvIhdCz.s:111    .text.qspi_config:0000000000000098 .L0 
C:\Users\stapi\AppData\Local\Temp\ccvIhdCz.s:113    .text.qspi_config:000000000000009a .L0 
C:\Users\stapi\AppData\Local\Temp\ccvIhdCz.s:115    .text.qspi_config:000000000000009c .L0 
C:\Users\stapi\AppData\Local\Temp\ccvIhdCz.s:117    .text.qspi_config:00000000000000a0 .L0 
C:\Users\stapi\AppData\Local\Temp\ccvIhdCz.s:119    .text.qspi_config:00000000000000a4 .L0 
C:\Users\stapi\AppData\Local\Temp\ccvIhdCz.s:121    .text.qspi_config:00000000000000a6 .L0 
C:\Users\stapi\AppData\Local\Temp\ccvIhdCz.s:123    .text.qspi_config:00000000000000a8 .L0 
C:\Users\stapi\AppData\Local\Temp\ccvIhdCz.s:125    .text.qspi_config:00000000000000aa .L0 
C:\Users\stapi\AppData\Local\Temp\ccvIhdCz.s:126    .text.qspi_config:00000000000000aa .L0 
C:\Users\stapi\AppData\Local\Temp\ccvIhdCz.s:135    .text.qspi_config:00000000000000be .L0 
C:\Users\stapi\AppData\Local\Temp\ccvIhdCz.s:139    .text.qspi_config:00000000000000c6 .L0 
C:\Users\stapi\AppData\Local\Temp\ccvIhdCz.s:140    .text.qspi_config:00000000000000c6 .L0 
C:\Users\stapi\AppData\Local\Temp\ccvIhdCz.s:141    .text.qspi_config:00000000000000c6 .L0 
C:\Users\stapi\AppData\Local\Temp\ccvIhdCz.s:144    .text.qspi_config:00000000000000ce .L0 
C:\Users\stapi\AppData\Local\Temp\ccvIhdCz.s:145    .text.qspi_config:00000000000000ce .L0 
C:\Users\stapi\AppData\Local\Temp\ccvIhdCz.s:147    .text.qspi_config:00000000000000d0 .L0 
C:\Users\stapi\AppData\Local\Temp\ccvIhdCz.s:151    .text.qspi_config:00000000000000d6 .L0 
C:\Users\stapi\AppData\Local\Temp\ccvIhdCz.s:152    .text.qspi_config:00000000000000d6 .L0 
C:\Users\stapi\AppData\Local\Temp\ccvIhdCz.s:158    .text.qspi_config:00000000000000e2 .L0 
C:\Users\stapi\AppData\Local\Temp\ccvIhdCz.s:160    .text.qspi_config:00000000000000e4 .L0 
C:\Users\stapi\AppData\Local\Temp\ccvIhdCz.s:164    .text.qspi_config:00000000000000ec .L0 
C:\Users\stapi\AppData\Local\Temp\ccvIhdCz.s:167    .text.qspi_config:00000000000000ee .L0 
C:\Users\stapi\AppData\Local\Temp\ccvIhdCz.s:168    .text.qspi_config:00000000000000ee .L0 
C:\Users\stapi\AppData\Local\Temp\ccvIhdCz.s:170    .text.qspi_config:00000000000000f0 .L0 
C:\Users\stapi\AppData\Local\Temp\ccvIhdCz.s:171    .text.qspi_config:00000000000000f0 .L0 
C:\Users\stapi\AppData\Local\Temp\ccvIhdCz.s:173    .text.qspi_config:00000000000000f2 .L0 
C:\Users\stapi\AppData\Local\Temp\ccvIhdCz.s:176    .text.qspi_config:00000000000000fa .L0 
C:\Users\stapi\AppData\Local\Temp\ccvIhdCz.s:177    .text.qspi_config:00000000000000fa .L0 
C:\Users\stapi\AppData\Local\Temp\ccvIhdCz.s:185    .text.qspi_config:000000000000010e .L0 
C:\Users\stapi\AppData\Local\Temp\ccvIhdCz.s:187    .text.qspi_config:0000000000000110 .L0 
C:\Users\stapi\AppData\Local\Temp\ccvIhdCz.s:188    .text.qspi_config:0000000000000110 .L0 
C:\Users\stapi\AppData\Local\Temp\ccvIhdCz.s:197    .text.qspi_config:0000000000000126 .L0 
C:\Users\stapi\AppData\Local\Temp\ccvIhdCz.s:199    .text.qspi_config:0000000000000128 .L0 
C:\Users\stapi\AppData\Local\Temp\ccvIhdCz.s:201    .text.qspi_config:000000000000012a .L0 
C:\Users\stapi\AppData\Local\Temp\ccvIhdCz.s:205    .text.qspi_config:0000000000000130 .L0 
C:\Users\stapi\AppData\Local\Temp\ccvIhdCz.s:206    .text.qspi_config:0000000000000130 .L0 
C:\Users\stapi\AppData\Local\Temp\ccvIhdCz.s:212    .text.qspi_config:0000000000000144 .L0 
C:\Users\stapi\AppData\Local\Temp\ccvIhdCz.s:214    .text.qspi_config:0000000000000146 .L0 
C:\Users\stapi\AppData\Local\Temp\ccvIhdCz.s:216    .text.qspi_config:0000000000000148 .L0 
C:\Users\stapi\AppData\Local\Temp\ccvIhdCz.s:220    .text.qspi_config:000000000000014e .L0 
C:\Users\stapi\AppData\Local\Temp\ccvIhdCz.s:221    .text.qspi_config:000000000000014e .L0 
C:\Users\stapi\AppData\Local\Temp\ccvIhdCz.s:223    .text.qspi_config:0000000000000150 .L0 
C:\Users\stapi\AppData\Local\Temp\ccvIhdCz.s:225    .text.qspi_config:0000000000000152 .L0 
C:\Users\stapi\AppData\Local\Temp\ccvIhdCz.s:227    .text.qspi_config:0000000000000154 .L0 
C:\Users\stapi\AppData\Local\Temp\ccvIhdCz.s:228    .text.qspi_config:0000000000000154 .L0 
C:\Users\stapi\AppData\Local\Temp\ccvIhdCz.s:232    .text.qspi_config:000000000000015a .L0 
C:\Users\stapi\AppData\Local\Temp\ccvIhdCz.s:234    .text.qspi_config:000000000000015c .L0 
C:\Users\stapi\AppData\Local\Temp\ccvIhdCz.s:237    .text.qspi_config:0000000000000160 .L0 
C:\Users\stapi\AppData\Local\Temp\ccvIhdCz.s:239    .text.qspi_config:0000000000000162 .L0 
C:\Users\stapi\AppData\Local\Temp\ccvIhdCz.s:242    .text.qspi_config:0000000000000166 .L0 
C:\Users\stapi\AppData\Local\Temp\ccvIhdCz.s:247    .text.qspi_config:0000000000000170 .L0 
C:\Users\stapi\AppData\Local\Temp\ccvIhdCz.s:248    .text.qspi_config:0000000000000170 .L0 
C:\Users\stapi\AppData\Local\Temp\ccvIhdCz.s:250    .text.qspi_config:0000000000000172 .L0 
C:\Users\stapi\AppData\Local\Temp\ccvIhdCz.s:251    .text.qspi_config:0000000000000172 .L0 
C:\Users\stapi\AppData\Local\Temp\ccvIhdCz.s:255    .text.qspi_config:000000000000017a .L0 
C:\Users\stapi\AppData\Local\Temp\ccvIhdCz.s:258    .text.qspi_config:0000000000000180 .L0 
C:\Users\stapi\AppData\Local\Temp\ccvIhdCz.s:265    .text.qspi_deinit:0000000000000000 qspi_deinit
C:\Users\stapi\AppData\Local\Temp\ccvIhdCz.s:268    .text.qspi_deinit:0000000000000000 .L0 
C:\Users\stapi\AppData\Local\Temp\ccvIhdCz.s:269    .text.qspi_deinit:0000000000000000 .L0 
C:\Users\stapi\AppData\Local\Temp\ccvIhdCz.s:270    .text.qspi_deinit:0000000000000008 .L0 
C:\Users\stapi\AppData\Local\Temp\ccvIhdCz.s:271    .text.qspi_deinit:0000000000000008 .L0 
C:\Users\stapi\AppData\Local\Temp\ccvIhdCz.s:273    .text.qspi_deinit:0000000000000008 .L0 
C:\Users\stapi\AppData\Local\Temp\ccvIhdCz.s:277    .text.qspi_deinit:0000000000000014 .L0 
C:\Users\stapi\AppData\Local\Temp\ccvIhdCz.s:281    .text.qspi_deinit:0000000000000020 .L0 
C:\Users\stapi\AppData\Local\Temp\ccvIhdCz.s:282    .text.qspi_deinit:0000000000000028 .L0 
C:\Users\stapi\AppData\Local\Temp\ccvIhdCz.s:283    .text.qspi_deinit:0000000000000028 .L0 
C:\Users\stapi\AppData\Local\Temp\ccvIhdCz.s:284    .text.qspi_deinit:0000000000000028 .L0 
C:\Users\stapi\AppData\Local\Temp\ccvIhdCz.s:291    .text.qspi_struct_para_init:0000000000000000 qspi_struct_para_init
C:\Users\stapi\AppData\Local\Temp\ccvIhdCz.s:294    .text.qspi_struct_para_init:0000000000000000 .L0 
C:\Users\stapi\AppData\Local\Temp\ccvIhdCz.s:296    .text.qspi_struct_para_init:0000000000000000 .L0 
C:\Users\stapi\AppData\Local\Temp\ccvIhdCz.s:297    .text.qspi_struct_para_init:0000000000000000 .L0 
C:\Users\stapi\AppData\Local\Temp\ccvIhdCz.s:298    .text.qspi_struct_para_init:0000000000000000 .L0 
C:\Users\stapi\AppData\Local\Temp\ccvIhdCz.s:301    .text.qspi_struct_para_init:0000000000000004 .L0 
C:\Users\stapi\AppData\Local\Temp\ccvIhdCz.s:304    .text.qspi_struct_para_init:0000000000000008 .L0 
C:\Users\stapi\AppData\Local\Temp\ccvIhdCz.s:306    .text.qspi_struct_para_init:000000000000000a .L0 
C:\Users\stapi\AppData\Local\Temp\ccvIhdCz.s:308    .text.qspi_struct_para_init:000000000000000e .L0 
C:\Users\stapi\AppData\Local\Temp\ccvIhdCz.s:309    .text.qspi_struct_para_init:000000000000000e .L0 
C:\Users\stapi\AppData\Local\Temp\ccvIhdCz.s:310    .text.qspi_struct_para_init:000000000000000e .L0 
C:\Users\stapi\AppData\Local\Temp\ccvIhdCz.s:311    .text.qspi_struct_para_init:000000000000000e .L0 
C:\Users\stapi\AppData\Local\Temp\ccvIhdCz.s:313    .text.qspi_struct_para_init:0000000000000012 .L0 
C:\Users\stapi\AppData\Local\Temp\ccvIhdCz.s:314    .text.qspi_struct_para_init:0000000000000012 .L0 
C:\Users\stapi\AppData\Local\Temp\ccvIhdCz.s:316    .text.qspi_struct_para_init:0000000000000014 .L0 
C:\Users\stapi\AppData\Local\Temp\ccvIhdCz.s:317    .text.qspi_struct_para_init:0000000000000014 .L0 
C:\Users\stapi\AppData\Local\Temp\ccvIhdCz.s:319    .text.qspi_struct_para_init:0000000000000018 .L0 
C:\Users\stapi\AppData\Local\Temp\ccvIhdCz.s:320    .text.qspi_struct_para_init:000000000000001a .L0 
C:\Users\stapi\AppData\Local\Temp\ccvIhdCz.s:327    .text.qspi_cmd_struct_para_init:0000000000000000 qspi_cmd_struct_para_init
C:\Users\stapi\AppData\Local\Temp\ccvIhdCz.s:330    .text.qspi_cmd_struct_para_init:0000000000000000 .L0 
C:\Users\stapi\AppData\Local\Temp\ccvIhdCz.s:332    .text.qspi_cmd_struct_para_init:0000000000000000 .L0 
C:\Users\stapi\AppData\Local\Temp\ccvIhdCz.s:333    .text.qspi_cmd_struct_para_init:0000000000000000 .L0 
C:\Users\stapi\AppData\Local\Temp\ccvIhdCz.s:334    .text.qspi_cmd_struct_para_init:0000000000000000 .L0 
C:\Users\stapi\AppData\Local\Temp\ccvIhdCz.s:336    .text.qspi_cmd_struct_para_init:0000000000000004 .L0 
C:\Users\stapi\AppData\Local\Temp\ccvIhdCz.s:337    .text.qspi_cmd_struct_para_init:0000000000000004 .L0 
C:\Users\stapi\AppData\Local\Temp\ccvIhdCz.s:339    .text.qspi_cmd_struct_para_init:0000000000000008 .L0 
C:\Users\stapi\AppData\Local\Temp\ccvIhdCz.s:340    .text.qspi_cmd_struct_para_init:0000000000000008 .L0 
C:\Users\stapi\AppData\Local\Temp\ccvIhdCz.s:342    .text.qspi_cmd_struct_para_init:000000000000000c .L0 
C:\Users\stapi\AppData\Local\Temp\ccvIhdCz.s:343    .text.qspi_cmd_struct_para_init:000000000000000c .L0 
C:\Users\stapi\AppData\Local\Temp\ccvIhdCz.s:345    .text.qspi_cmd_struct_para_init:0000000000000010 .L0 
C:\Users\stapi\AppData\Local\Temp\ccvIhdCz.s:346    .text.qspi_cmd_struct_para_init:0000000000000010 .L0 
C:\Users\stapi\AppData\Local\Temp\ccvIhdCz.s:348    .text.qspi_cmd_struct_para_init:0000000000000014 .L0 
C:\Users\stapi\AppData\Local\Temp\ccvIhdCz.s:349    .text.qspi_cmd_struct_para_init:0000000000000014 .L0 
C:\Users\stapi\AppData\Local\Temp\ccvIhdCz.s:351    .text.qspi_cmd_struct_para_init:0000000000000018 .L0 
C:\Users\stapi\AppData\Local\Temp\ccvIhdCz.s:352    .text.qspi_cmd_struct_para_init:0000000000000018 .L0 
C:\Users\stapi\AppData\Local\Temp\ccvIhdCz.s:354    .text.qspi_cmd_struct_para_init:000000000000001c .L0 
C:\Users\stapi\AppData\Local\Temp\ccvIhdCz.s:355    .text.qspi_cmd_struct_para_init:000000000000001c .L0 
C:\Users\stapi\AppData\Local\Temp\ccvIhdCz.s:357    .text.qspi_cmd_struct_para_init:0000000000000020 .L0 
C:\Users\stapi\AppData\Local\Temp\ccvIhdCz.s:358    .text.qspi_cmd_struct_para_init:0000000000000020 .L0 
C:\Users\stapi\AppData\Local\Temp\ccvIhdCz.s:360    .text.qspi_cmd_struct_para_init:0000000000000024 .L0 
C:\Users\stapi\AppData\Local\Temp\ccvIhdCz.s:361    .text.qspi_cmd_struct_para_init:0000000000000024 .L0 
C:\Users\stapi\AppData\Local\Temp\ccvIhdCz.s:363    .text.qspi_cmd_struct_para_init:0000000000000028 .L0 
C:\Users\stapi\AppData\Local\Temp\ccvIhdCz.s:364    .text.qspi_cmd_struct_para_init:0000000000000028 .L0 
C:\Users\stapi\AppData\Local\Temp\ccvIhdCz.s:366    .text.qspi_cmd_struct_para_init:000000000000002c .L0 
C:\Users\stapi\AppData\Local\Temp\ccvIhdCz.s:367    .text.qspi_cmd_struct_para_init:000000000000002c .L0 
C:\Users\stapi\AppData\Local\Temp\ccvIhdCz.s:369    .text.qspi_cmd_struct_para_init:0000000000000030 .L0 
C:\Users\stapi\AppData\Local\Temp\ccvIhdCz.s:370    .text.qspi_cmd_struct_para_init:0000000000000032 .L0 
C:\Users\stapi\AppData\Local\Temp\ccvIhdCz.s:377    .text.qspi_polling_struct_para_init:0000000000000000 qspi_polling_struct_para_init
C:\Users\stapi\AppData\Local\Temp\ccvIhdCz.s:380    .text.qspi_polling_struct_para_init:0000000000000000 .L0 
C:\Users\stapi\AppData\Local\Temp\ccvIhdCz.s:382    .text.qspi_polling_struct_para_init:0000000000000000 .L0 
C:\Users\stapi\AppData\Local\Temp\ccvIhdCz.s:383    .text.qspi_polling_struct_para_init:0000000000000000 .L0 
C:\Users\stapi\AppData\Local\Temp\ccvIhdCz.s:384    .text.qspi_polling_struct_para_init:0000000000000000 .L0 
C:\Users\stapi\AppData\Local\Temp\ccvIhdCz.s:386    .text.qspi_polling_struct_para_init:0000000000000002 .L0 
C:\Users\stapi\AppData\Local\Temp\ccvIhdCz.s:388    .text.qspi_polling_struct_para_init:0000000000000006 .L0 
C:\Users\stapi\AppData\Local\Temp\ccvIhdCz.s:389    .text.qspi_polling_struct_para_init:0000000000000006 .L0 
C:\Users\stapi\AppData\Local\Temp\ccvIhdCz.s:391    .text.qspi_polling_struct_para_init:000000000000000a .L0 
C:\Users\stapi\AppData\Local\Temp\ccvIhdCz.s:392    .text.qspi_polling_struct_para_init:000000000000000a .L0 
C:\Users\stapi\AppData\Local\Temp\ccvIhdCz.s:394    .text.qspi_polling_struct_para_init:000000000000000e .L0 
C:\Users\stapi\AppData\Local\Temp\ccvIhdCz.s:395    .text.qspi_polling_struct_para_init:000000000000000e .L0 
C:\Users\stapi\AppData\Local\Temp\ccvIhdCz.s:397    .text.qspi_polling_struct_para_init:0000000000000010 .L0 
C:\Users\stapi\AppData\Local\Temp\ccvIhdCz.s:398    .text.qspi_polling_struct_para_init:0000000000000010 .L0 
C:\Users\stapi\AppData\Local\Temp\ccvIhdCz.s:400    .text.qspi_polling_struct_para_init:0000000000000014 .L0 
C:\Users\stapi\AppData\Local\Temp\ccvIhdCz.s:401    .text.qspi_polling_struct_para_init:0000000000000014 .L0 
C:\Users\stapi\AppData\Local\Temp\ccvIhdCz.s:403    .text.qspi_polling_struct_para_init:0000000000000018 .L0 
C:\Users\stapi\AppData\Local\Temp\ccvIhdCz.s:404    .text.qspi_polling_struct_para_init:000000000000001a .L0 
C:\Users\stapi\AppData\Local\Temp\ccvIhdCz.s:411    .text.qspi_init:0000000000000000 qspi_init
C:\Users\stapi\AppData\Local\Temp\ccvIhdCz.s:414    .text.qspi_init:0000000000000000 .L0 
C:\Users\stapi\AppData\Local\Temp\ccvIhdCz.s:416    .text.qspi_init:0000000000000000 .L0 
C:\Users\stapi\AppData\Local\Temp\ccvIhdCz.s:417    .text.qspi_init:0000000000000000 .L0 
C:\Users\stapi\AppData\Local\Temp\ccvIhdCz.s:418    .text.qspi_init:0000000000000000 .L0 
C:\Users\stapi\AppData\Local\Temp\ccvIhdCz.s:426    .text.qspi_init:0000000000000016 .L0 
C:\Users\stapi\AppData\Local\Temp\ccvIhdCz.s:427    .text.qspi_init:0000000000000016 .L0 
C:\Users\stapi\AppData\Local\Temp\ccvIhdCz.s:430    .text.qspi_init:000000000000001a .L0 
C:\Users\stapi\AppData\Local\Temp\ccvIhdCz.s:432    .text.qspi_init:000000000000001c .L0 
C:\Users\stapi\AppData\Local\Temp\ccvIhdCz.s:434    .text.qspi_init:000000000000001e .L0 
C:\Users\stapi\AppData\Local\Temp\ccvIhdCz.s:436    .text.qspi_init:0000000000000020 .L0 
C:\Users\stapi\AppData\Local\Temp\ccvIhdCz.s:438    .text.qspi_init:0000000000000022 .L0 
C:\Users\stapi\AppData\Local\Temp\ccvIhdCz.s:441    .text.qspi_init:0000000000000026 .L0 
C:\Users\stapi\AppData\Local\Temp\ccvIhdCz.s:443    .text.qspi_init:0000000000000028 .L0 
C:\Users\stapi\AppData\Local\Temp\ccvIhdCz.s:446    .text.qspi_init:000000000000002c .L0 
C:\Users\stapi\AppData\Local\Temp\ccvIhdCz.s:447    .text.qspi_init:000000000000002c .L0 
C:\Users\stapi\AppData\Local\Temp\ccvIhdCz.s:453    .text.qspi_init:000000000000003a .L0 
C:\Users\stapi\AppData\Local\Temp\ccvIhdCz.s:454    .text.qspi_init:000000000000003a .L0 
C:\Users\stapi\AppData\Local\Temp\ccvIhdCz.s:460    .text.qspi_init:0000000000000044 .L0 
C:\Users\stapi\AppData\Local\Temp\ccvIhdCz.s:463    .text.qspi_init:0000000000000048 .L0 
C:\Users\stapi\AppData\Local\Temp\ccvIhdCz.s:466    .text.qspi_init:000000000000004c .L0 
C:\Users\stapi\AppData\Local\Temp\ccvIhdCz.s:467    .text.qspi_init:000000000000004e .L0 
C:\Users\stapi\AppData\Local\Temp\ccvIhdCz.s:474    .text.qspi_enable:0000000000000000 qspi_enable
C:\Users\stapi\AppData\Local\Temp\ccvIhdCz.s:477    .text.qspi_enable:0000000000000000 .L0 
C:\Users\stapi\AppData\Local\Temp\ccvIhdCz.s:478    .text.qspi_enable:0000000000000000 .L0 
C:\Users\stapi\AppData\Local\Temp\ccvIhdCz.s:479    .text.qspi_enable:0000000000000000 .L0 
C:\Users\stapi\AppData\Local\Temp\ccvIhdCz.s:480    .text.qspi_enable:0000000000000000 .L0 
C:\Users\stapi\AppData\Local\Temp\ccvIhdCz.s:485    .text.qspi_enable:0000000000000010 .L0 
C:\Users\stapi\AppData\Local\Temp\ccvIhdCz.s:486    .text.qspi_enable:0000000000000012 .L0 
C:\Users\stapi\AppData\Local\Temp\ccvIhdCz.s:493    .text.qspi_disable:0000000000000000 qspi_disable
C:\Users\stapi\AppData\Local\Temp\ccvIhdCz.s:496    .text.qspi_disable:0000000000000000 .L0 
C:\Users\stapi\AppData\Local\Temp\ccvIhdCz.s:497    .text.qspi_disable:0000000000000000 .L0 
C:\Users\stapi\AppData\Local\Temp\ccvIhdCz.s:498    .text.qspi_disable:0000000000000000 .L0 
C:\Users\stapi\AppData\Local\Temp\ccvIhdCz.s:499    .text.qspi_disable:0000000000000000 .L0 
C:\Users\stapi\AppData\Local\Temp\ccvIhdCz.s:504    .text.qspi_disable:000000000000000e .L0 
C:\Users\stapi\AppData\Local\Temp\ccvIhdCz.s:505    .text.qspi_disable:0000000000000010 .L0 
C:\Users\stapi\AppData\Local\Temp\ccvIhdCz.s:512    .text.qspi_dma_enable:0000000000000000 qspi_dma_enable
C:\Users\stapi\AppData\Local\Temp\ccvIhdCz.s:515    .text.qspi_dma_enable:0000000000000000 .L0 
C:\Users\stapi\AppData\Local\Temp\ccvIhdCz.s:516    .text.qspi_dma_enable:0000000000000000 .L0 
C:\Users\stapi\AppData\Local\Temp\ccvIhdCz.s:517    .text.qspi_dma_enable:0000000000000000 .L0 
C:\Users\stapi\AppData\Local\Temp\ccvIhdCz.s:518    .text.qspi_dma_enable:0000000000000000 .L0 
C:\Users\stapi\AppData\Local\Temp\ccvIhdCz.s:523    .text.qspi_dma_enable:0000000000000010 .L0 
C:\Users\stapi\AppData\Local\Temp\ccvIhdCz.s:524    .text.qspi_dma_enable:0000000000000012 .L0 
C:\Users\stapi\AppData\Local\Temp\ccvIhdCz.s:531    .text.qspi_dma_disable:0000000000000000 qspi_dma_disable
C:\Users\stapi\AppData\Local\Temp\ccvIhdCz.s:534    .text.qspi_dma_disable:0000000000000000 .L0 
C:\Users\stapi\AppData\Local\Temp\ccvIhdCz.s:535    .text.qspi_dma_disable:0000000000000000 .L0 
C:\Users\stapi\AppData\Local\Temp\ccvIhdCz.s:536    .text.qspi_dma_disable:0000000000000000 .L0 
C:\Users\stapi\AppData\Local\Temp\ccvIhdCz.s:537    .text.qspi_dma_disable:0000000000000000 .L0 
C:\Users\stapi\AppData\Local\Temp\ccvIhdCz.s:542    .text.qspi_dma_disable:000000000000000e .L0 
C:\Users\stapi\AppData\Local\Temp\ccvIhdCz.s:543    .text.qspi_dma_disable:0000000000000010 .L0 
C:\Users\stapi\AppData\Local\Temp\ccvIhdCz.s:550    .text.qspi_command_config:0000000000000000 qspi_command_config
C:\Users\stapi\AppData\Local\Temp\ccvIhdCz.s:553    .text.qspi_command_config:0000000000000000 .L0 
C:\Users\stapi\AppData\Local\Temp\ccvIhdCz.s:555    .text.qspi_command_config:0000000000000000 .L0 
C:\Users\stapi\AppData\Local\Temp\ccvIhdCz.s:556    .text.qspi_command_config:0000000000000008 .L0 
C:\Users\stapi\AppData\Local\Temp\ccvIhdCz.s:557    .text.qspi_command_config:0000000000000008 .L0 
C:\Users\stapi\AppData\Local\Temp\ccvIhdCz.s:558    .text.qspi_command_config:0000000000000008 .L0 
C:\Users\stapi\AppData\Local\Temp\ccvIhdCz.s:560    .text.qspi_command_config:0000000000000008 .L0 
C:\Users\stapi\AppData\Local\Temp\ccvIhdCz.s:562    .text.qspi_command_config:000000000000000a .L0 
C:\Users\stapi\AppData\Local\Temp\ccvIhdCz.s:564    .text.qspi_command_config:000000000000000c .L0 
C:\Users\stapi\AppData\Local\Temp\ccvIhdCz.s:567    .text.qspi_command_config:0000000000000014 .L0 
C:\Users\stapi\AppData\Local\Temp\ccvIhdCz.s:568    .text.qspi_command_config:0000000000000014 .L0 
C:\Users\stapi\AppData\Local\Temp\ccvIhdCz.s:571    .text.qspi_command_config:0000000000000018 .L0 
C:\Users\stapi\AppData\Local\Temp\ccvIhdCz.s:574    .text.qspi_command_config:000000000000001c .L0 
C:\Users\stapi\AppData\Local\Temp\ccvIhdCz.s:575    .text.qspi_command_config:000000000000001c .L0 
C:\Users\stapi\AppData\Local\Temp\ccvIhdCz.s:576    .text.qspi_command_config:000000000000001c .L0 
C:\Users\stapi\AppData\Local\Temp\ccvIhdCz.s:578    .text.qspi_command_config:0000000000000020 .L0 
C:\Users\stapi\AppData\Local\Temp\ccvIhdCz.s:580    .text.qspi_command_config:0000000000000022 .L0 
C:\Users\stapi\AppData\Local\Temp\ccvIhdCz.s:582    .text.qspi_command_config:0000000000000024 .L0 
C:\Users\stapi\AppData\Local\Temp\ccvIhdCz.s:583    .text.qspi_command_config:0000000000000024 .L0 
C:\Users\stapi\AppData\Local\Temp\ccvIhdCz.s:587    .text.qspi_command_config:000000000000002a .L0 
C:\Users\stapi\AppData\Local\Temp\ccvIhdCz.s:588    .text.qspi_command_config:0000000000000032 .L0 
C:\Users\stapi\AppData\Local\Temp\ccvIhdCz.s:589    .text.qspi_command_config:0000000000000032 .L0 
C:\Users\stapi\AppData\Local\Temp\ccvIhdCz.s:590    .text.qspi_command_config:0000000000000032 .L0 
C:\Users\stapi\AppData\Local\Temp\ccvIhdCz.s:591    .text.qspi_command_config:0000000000000032 .L0 
C:\Users\stapi\AppData\Local\Temp\ccvIhdCz.s:598    .text.qspi_polling_config:0000000000000000 qspi_polling_config
C:\Users\stapi\AppData\Local\Temp\ccvIhdCz.s:601    .text.qspi_polling_config:0000000000000000 .L0 
C:\Users\stapi\AppData\Local\Temp\ccvIhdCz.s:603    .text.qspi_polling_config:0000000000000000 .L0 
C:\Users\stapi\AppData\Local\Temp\ccvIhdCz.s:604    .text.qspi_polling_config:0000000000000000 .L0 
C:\Users\stapi\AppData\Local\Temp\ccvIhdCz.s:605    .text.qspi_polling_config:0000000000000000 .L0 
C:\Users\stapi\AppData\Local\Temp\ccvIhdCz.s:607    .text.qspi_polling_config:0000000000000002 .L0 
C:\Users\stapi\AppData\Local\Temp\ccvIhdCz.s:611    .text.qspi_polling_config:000000000000000c .L0 
C:\Users\stapi\AppData\Local\Temp\ccvIhdCz.s:612    .text.qspi_polling_config:000000000000000c .L0 
C:\Users\stapi\AppData\Local\Temp\ccvIhdCz.s:614    .text.qspi_polling_config:000000000000000e .L0 
C:\Users\stapi\AppData\Local\Temp\ccvIhdCz.s:617    .text.qspi_polling_config:0000000000000014 .L0 
C:\Users\stapi\AppData\Local\Temp\ccvIhdCz.s:619    .text.qspi_polling_config:0000000000000016 .L0 
C:\Users\stapi\AppData\Local\Temp\ccvIhdCz.s:620    .text.qspi_polling_config:0000000000000016 .L0 
C:\Users\stapi\AppData\Local\Temp\ccvIhdCz.s:622    .text.qspi_polling_config:0000000000000018 .L0 
C:\Users\stapi\AppData\Local\Temp\ccvIhdCz.s:624    .text.qspi_polling_config:000000000000001a .L0 
C:\Users\stapi\AppData\Local\Temp\ccvIhdCz.s:625    .text.qspi_polling_config:000000000000001a .L0 
C:\Users\stapi\AppData\Local\Temp\ccvIhdCz.s:629    .text.qspi_polling_config:0000000000000020 .L0 
C:\Users\stapi\AppData\Local\Temp\ccvIhdCz.s:630    .text.qspi_polling_config:0000000000000020 .L0 
C:\Users\stapi\AppData\Local\Temp\ccvIhdCz.s:633    .text.qspi_polling_config:0000000000000024 .L0 
C:\Users\stapi\AppData\Local\Temp\ccvIhdCz.s:635    .text.qspi_polling_config:0000000000000026 .L0 
C:\Users\stapi\AppData\Local\Temp\ccvIhdCz.s:637    .text.qspi_polling_config:0000000000000028 .L0 
C:\Users\stapi\AppData\Local\Temp\ccvIhdCz.s:640    .text.qspi_polling_config:000000000000002c .L0 
C:\Users\stapi\AppData\Local\Temp\ccvIhdCz.s:641    .text.qspi_polling_config:000000000000002c .L0 
C:\Users\stapi\AppData\Local\Temp\ccvIhdCz.s:643    .text.qspi_polling_config:000000000000002e .L0 
C:\Users\stapi\AppData\Local\Temp\ccvIhdCz.s:646    .text.qspi_polling_config:0000000000000032 .L0 
C:\Users\stapi\AppData\Local\Temp\ccvIhdCz.s:648    .text.qspi_polling_config:0000000000000034 .L0 
C:\Users\stapi\AppData\Local\Temp\ccvIhdCz.s:650    .text.qspi_polling_config:000000000000003c .L0 
C:\Users\stapi\AppData\Local\Temp\ccvIhdCz.s:657    .text.qspi_memorymapped_config:0000000000000000 qspi_memorymapped_config
C:\Users\stapi\AppData\Local\Temp\ccvIhdCz.s:660    .text.qspi_memorymapped_config:0000000000000000 .L0 
C:\Users\stapi\AppData\Local\Temp\ccvIhdCz.s:662    .text.qspi_memorymapped_config:0000000000000000 .L0 
C:\Users\stapi\AppData\Local\Temp\ccvIhdCz.s:663    .text.qspi_memorymapped_config:0000000000000000 .L0 
C:\Users\stapi\AppData\Local\Temp\ccvIhdCz.s:664    .text.qspi_memorymapped_config:0000000000000000 .L0 
C:\Users\stapi\AppData\Local\Temp\ccvIhdCz.s:670    .text.qspi_memorymapped_config:000000000000000e .L0 
C:\Users\stapi\AppData\Local\Temp\ccvIhdCz.s:671    .text.qspi_memorymapped_config:000000000000000e .L0 
C:\Users\stapi\AppData\Local\Temp\ccvIhdCz.s:675    .text.qspi_memorymapped_config:0000000000000014 .L0 
C:\Users\stapi\AppData\Local\Temp\ccvIhdCz.s:676    .text.qspi_memorymapped_config:0000000000000014 .L0 
C:\Users\stapi\AppData\Local\Temp\ccvIhdCz.s:679    .text.qspi_memorymapped_config:000000000000001a .L0 
C:\Users\stapi\AppData\Local\Temp\ccvIhdCz.s:680    .text.qspi_memorymapped_config:000000000000001a .L0 
C:\Users\stapi\AppData\Local\Temp\ccvIhdCz.s:682    .text.qspi_memorymapped_config:000000000000001c .L0 
C:\Users\stapi\AppData\Local\Temp\ccvIhdCz.s:683    .text.qspi_memorymapped_config:000000000000001c .L0 
C:\Users\stapi\AppData\Local\Temp\ccvIhdCz.s:686    .text.qspi_memorymapped_config:0000000000000020 .L0 
C:\Users\stapi\AppData\Local\Temp\ccvIhdCz.s:687    .text.qspi_memorymapped_config:0000000000000020 .L0 
C:\Users\stapi\AppData\Local\Temp\ccvIhdCz.s:692    .text.qspi_memorymapped_config:0000000000000028 .L0 
C:\Users\stapi\AppData\Local\Temp\ccvIhdCz.s:696    .text.qspi_memorymapped_config:0000000000000034 .L0 
C:\Users\stapi\AppData\Local\Temp\ccvIhdCz.s:703    .text.qspi_data_transmit:0000000000000000 qspi_data_transmit
C:\Users\stapi\AppData\Local\Temp\ccvIhdCz.s:706    .text.qspi_data_transmit:0000000000000000 .L0 
C:\Users\stapi\AppData\Local\Temp\ccvIhdCz.s:708    .text.qspi_data_transmit:0000000000000000 .L0 
C:\Users\stapi\AppData\Local\Temp\ccvIhdCz.s:709    .text.qspi_data_transmit:0000000000000000 .L0 
C:\Users\stapi\AppData\Local\Temp\ccvIhdCz.s:710    .text.qspi_data_transmit:0000000000000000 .L0 
C:\Users\stapi\AppData\Local\Temp\ccvIhdCz.s:711    .text.qspi_data_transmit:0000000000000000 .L0 
C:\Users\stapi\AppData\Local\Temp\ccvIhdCz.s:715    .text.qspi_data_transmit:0000000000000008 .L0 
C:\Users\stapi\AppData\Local\Temp\ccvIhdCz.s:716    .text.qspi_data_transmit:0000000000000008 .L0 
C:\Users\stapi\AppData\Local\Temp\ccvIhdCz.s:718    .text.qspi_data_transmit:000000000000000c .L0 
C:\Users\stapi\AppData\Local\Temp\ccvIhdCz.s:722    .text.qspi_data_transmit:0000000000000014 .L0 
C:\Users\stapi\AppData\Local\Temp\ccvIhdCz.s:724    .text.qspi_data_transmit:0000000000000016 .L0 
C:\Users\stapi\AppData\Local\Temp\ccvIhdCz.s:726    .text.qspi_data_transmit:000000000000001a .L0 
C:\Users\stapi\AppData\Local\Temp\ccvIhdCz.s:728    .text.qspi_data_transmit:000000000000001c .L0 
C:\Users\stapi\AppData\Local\Temp\ccvIhdCz.s:731    .text.qspi_data_transmit:0000000000000020 .L0 
C:\Users\stapi\AppData\Local\Temp\ccvIhdCz.s:733    .text.qspi_data_transmit:0000000000000024 .L0 
C:\Users\stapi\AppData\Local\Temp\ccvIhdCz.s:736    .text.qspi_data_transmit:0000000000000026 .L0 
C:\Users\stapi\AppData\Local\Temp\ccvIhdCz.s:737    .text.qspi_data_transmit:0000000000000026 .L0 
C:\Users\stapi\AppData\Local\Temp\ccvIhdCz.s:738    .text.qspi_data_transmit:0000000000000026 .L0 
C:\Users\stapi\AppData\Local\Temp\ccvIhdCz.s:740    .text.qspi_data_transmit:000000000000002a .L0 
C:\Users\stapi\AppData\Local\Temp\ccvIhdCz.s:742    .text.qspi_data_transmit:000000000000002c .L0 
C:\Users\stapi\AppData\Local\Temp\ccvIhdCz.s:744    .text.qspi_data_transmit:000000000000002e .L0 
C:\Users\stapi\AppData\Local\Temp\ccvIhdCz.s:745    .text.qspi_data_transmit:000000000000002e .L0 
C:\Users\stapi\AppData\Local\Temp\ccvIhdCz.s:747    .text.qspi_data_transmit:0000000000000032 .L0 
C:\Users\stapi\AppData\Local\Temp\ccvIhdCz.s:750    .text.qspi_data_transmit:0000000000000034 .L0 
C:\Users\stapi\AppData\Local\Temp\ccvIhdCz.s:752    .text.qspi_data_transmit:0000000000000038 .L0 
C:\Users\stapi\AppData\Local\Temp\ccvIhdCz.s:753    .text.qspi_data_transmit:000000000000003a .L0 
C:\Users\stapi\AppData\Local\Temp\ccvIhdCz.s:760    .text.qspi_data_receive:0000000000000000 qspi_data_receive
C:\Users\stapi\AppData\Local\Temp\ccvIhdCz.s:763    .text.qspi_data_receive:0000000000000000 .L0 
C:\Users\stapi\AppData\Local\Temp\ccvIhdCz.s:765    .text.qspi_data_receive:0000000000000000 .L0 
C:\Users\stapi\AppData\Local\Temp\ccvIhdCz.s:766    .text.qspi_data_receive:0000000000000000 .L0 
C:\Users\stapi\AppData\Local\Temp\ccvIhdCz.s:767    .text.qspi_data_receive:0000000000000000 .L0 
C:\Users\stapi\AppData\Local\Temp\ccvIhdCz.s:768    .text.qspi_data_receive:0000000000000000 .L0 
C:\Users\stapi\AppData\Local\Temp\ccvIhdCz.s:773    .text.qspi_data_receive:000000000000000a .L0 
C:\Users\stapi\AppData\Local\Temp\ccvIhdCz.s:774    .text.qspi_data_receive:000000000000000a .L0 
C:\Users\stapi\AppData\Local\Temp\ccvIhdCz.s:777    .text.qspi_data_receive:000000000000000c .L0 
C:\Users\stapi\AppData\Local\Temp\ccvIhdCz.s:778    .text.qspi_data_receive:000000000000000c .L0 
C:\Users\stapi\AppData\Local\Temp\ccvIhdCz.s:780    .text.qspi_data_receive:000000000000000e .L0 
C:\Users\stapi\AppData\Local\Temp\ccvIhdCz.s:784    .text.qspi_data_receive:0000000000000016 .L0 
C:\Users\stapi\AppData\Local\Temp\ccvIhdCz.s:786    .text.qspi_data_receive:000000000000001a .L0 
C:\Users\stapi\AppData\Local\Temp\ccvIhdCz.s:788    .text.qspi_data_receive:000000000000001c .L0 
C:\Users\stapi\AppData\Local\Temp\ccvIhdCz.s:789    .text.qspi_data_receive:000000000000001c .L0 
C:\Users\stapi\AppData\Local\Temp\ccvIhdCz.s:791    .text.qspi_data_receive:000000000000001e .L0 
C:\Users\stapi\AppData\Local\Temp\ccvIhdCz.s:792    .text.qspi_data_receive:000000000000001e .L0 
C:\Users\stapi\AppData\Local\Temp\ccvIhdCz.s:795    .text.qspi_data_receive:0000000000000024 .L0 
C:\Users\stapi\AppData\Local\Temp\ccvIhdCz.s:798    .text.qspi_data_receive:0000000000000028 .L0 
C:\Users\stapi\AppData\Local\Temp\ccvIhdCz.s:800    .text.qspi_data_receive:000000000000002c .L0 
C:\Users\stapi\AppData\Local\Temp\ccvIhdCz.s:803    .text.qspi_data_receive:000000000000002e .L0 
C:\Users\stapi\AppData\Local\Temp\ccvIhdCz.s:804    .text.qspi_data_receive:000000000000002e .L0 
C:\Users\stapi\AppData\Local\Temp\ccvIhdCz.s:805    .text.qspi_data_receive:000000000000002e .L0 
C:\Users\stapi\AppData\Local\Temp\ccvIhdCz.s:807    .text.qspi_data_receive:0000000000000032 .L0 
C:\Users\stapi\AppData\Local\Temp\ccvIhdCz.s:809    .text.qspi_data_receive:0000000000000034 .L0 
C:\Users\stapi\AppData\Local\Temp\ccvIhdCz.s:811    .text.qspi_data_receive:0000000000000036 .L0 
C:\Users\stapi\AppData\Local\Temp\ccvIhdCz.s:812    .text.qspi_data_receive:0000000000000036 .L0 
C:\Users\stapi\AppData\Local\Temp\ccvIhdCz.s:814    .text.qspi_data_receive:000000000000003a .L0 
C:\Users\stapi\AppData\Local\Temp\ccvIhdCz.s:817    .text.qspi_data_receive:000000000000003c .L0 
C:\Users\stapi\AppData\Local\Temp\ccvIhdCz.s:819    .text.qspi_data_receive:0000000000000040 .L0 
C:\Users\stapi\AppData\Local\Temp\ccvIhdCz.s:820    .text.qspi_data_receive:0000000000000042 .L0 
C:\Users\stapi\AppData\Local\Temp\ccvIhdCz.s:827    .text.qspi_transmission_abort:0000000000000000 qspi_transmission_abort
C:\Users\stapi\AppData\Local\Temp\ccvIhdCz.s:830    .text.qspi_transmission_abort:0000000000000000 .L0 
C:\Users\stapi\AppData\Local\Temp\ccvIhdCz.s:831    .text.qspi_transmission_abort:0000000000000000 .L0 
C:\Users\stapi\AppData\Local\Temp\ccvIhdCz.s:832    .text.qspi_transmission_abort:0000000000000000 .L0 
C:\Users\stapi\AppData\Local\Temp\ccvIhdCz.s:833    .text.qspi_transmission_abort:0000000000000000 .L0 
C:\Users\stapi\AppData\Local\Temp\ccvIhdCz.s:838    .text.qspi_transmission_abort:0000000000000010 .L0 
C:\Users\stapi\AppData\Local\Temp\ccvIhdCz.s:839    .text.qspi_transmission_abort:0000000000000012 .L0 
C:\Users\stapi\AppData\Local\Temp\ccvIhdCz.s:846    .text.qspi_flag_get:0000000000000000 qspi_flag_get
C:\Users\stapi\AppData\Local\Temp\ccvIhdCz.s:849    .text.qspi_flag_get:0000000000000000 .L0 
C:\Users\stapi\AppData\Local\Temp\ccvIhdCz.s:851    .text.qspi_flag_get:0000000000000000 .L0 
C:\Users\stapi\AppData\Local\Temp\ccvIhdCz.s:852    .text.qspi_flag_get:0000000000000000 .L0 
C:\Users\stapi\AppData\Local\Temp\ccvIhdCz.s:853    .text.qspi_flag_get:0000000000000000 .L0 
C:\Users\stapi\AppData\Local\Temp\ccvIhdCz.s:856    .text.qspi_flag_get:0000000000000008 .L0 
C:\Users\stapi\AppData\Local\Temp\ccvIhdCz.s:859    .text.qspi_flag_get:000000000000000a .L0 
C:\Users\stapi\AppData\Local\Temp\ccvIhdCz.s:861    .text.qspi_flag_get:0000000000000010 .L0 
C:\Users\stapi\AppData\Local\Temp\ccvIhdCz.s:868    .text.qspi_flag_clear:0000000000000000 qspi_flag_clear
C:\Users\stapi\AppData\Local\Temp\ccvIhdCz.s:871    .text.qspi_flag_clear:0000000000000000 .L0 
C:\Users\stapi\AppData\Local\Temp\ccvIhdCz.s:873    .text.qspi_flag_clear:0000000000000000 .L0 
C:\Users\stapi\AppData\Local\Temp\ccvIhdCz.s:874    .text.qspi_flag_clear:0000000000000000 .L0 
C:\Users\stapi\AppData\Local\Temp\ccvIhdCz.s:875    .text.qspi_flag_clear:0000000000000000 .L0 
C:\Users\stapi\AppData\Local\Temp\ccvIhdCz.s:880    .text.qspi_flag_clear:000000000000000e .L0 
C:\Users\stapi\AppData\Local\Temp\ccvIhdCz.s:881    .text.qspi_flag_clear:0000000000000010 .L0 
C:\Users\stapi\AppData\Local\Temp\ccvIhdCz.s:888    .text.qspi_interrupt_enable:0000000000000000 qspi_interrupt_enable
C:\Users\stapi\AppData\Local\Temp\ccvIhdCz.s:891    .text.qspi_interrupt_enable:0000000000000000 .L0 
C:\Users\stapi\AppData\Local\Temp\ccvIhdCz.s:893    .text.qspi_interrupt_enable:0000000000000000 .L0 
C:\Users\stapi\AppData\Local\Temp\ccvIhdCz.s:894    .text.qspi_interrupt_enable:0000000000000000 .L0 
C:\Users\stapi\AppData\Local\Temp\ccvIhdCz.s:895    .text.qspi_interrupt_enable:0000000000000000 .L0 
C:\Users\stapi\AppData\Local\Temp\ccvIhdCz.s:900    .text.qspi_interrupt_enable:000000000000000e .L0 
C:\Users\stapi\AppData\Local\Temp\ccvIhdCz.s:901    .text.qspi_interrupt_enable:0000000000000010 .L0 
C:\Users\stapi\AppData\Local\Temp\ccvIhdCz.s:908    .text.qspi_interrupt_disable:0000000000000000 qspi_interrupt_disable
C:\Users\stapi\AppData\Local\Temp\ccvIhdCz.s:911    .text.qspi_interrupt_disable:0000000000000000 .L0 
C:\Users\stapi\AppData\Local\Temp\ccvIhdCz.s:913    .text.qspi_interrupt_disable:0000000000000000 .L0 
C:\Users\stapi\AppData\Local\Temp\ccvIhdCz.s:914    .text.qspi_interrupt_disable:0000000000000000 .L0 
C:\Users\stapi\AppData\Local\Temp\ccvIhdCz.s:915    .text.qspi_interrupt_disable:0000000000000000 .L0 
C:\Users\stapi\AppData\Local\Temp\ccvIhdCz.s:921    .text.qspi_interrupt_disable:0000000000000010 .L0 
C:\Users\stapi\AppData\Local\Temp\ccvIhdCz.s:922    .text.qspi_interrupt_disable:0000000000000012 .L0 
C:\Users\stapi\AppData\Local\Temp\ccvIhdCz.s:929    .text.qspi_interrupt_flag_get:0000000000000000 qspi_interrupt_flag_get
C:\Users\stapi\AppData\Local\Temp\ccvIhdCz.s:932    .text.qspi_interrupt_flag_get:0000000000000000 .L0 
C:\Users\stapi\AppData\Local\Temp\ccvIhdCz.s:934    .text.qspi_interrupt_flag_get:0000000000000000 .L0 
C:\Users\stapi\AppData\Local\Temp\ccvIhdCz.s:935    .text.qspi_interrupt_flag_get:0000000000000000 .L0 
C:\Users\stapi\AppData\Local\Temp\ccvIhdCz.s:936    .text.qspi_interrupt_flag_get:0000000000000000 .L0 
C:\Users\stapi\AppData\Local\Temp\ccvIhdCz.s:938    .text.qspi_interrupt_flag_get:0000000000000004 .L0 
C:\Users\stapi\AppData\Local\Temp\ccvIhdCz.s:940    .text.qspi_interrupt_flag_get:0000000000000006 .L0 
C:\Users\stapi\AppData\Local\Temp\ccvIhdCz.s:943    .text.qspi_interrupt_flag_get:000000000000000a .L0 
C:\Users\stapi\AppData\Local\Temp\ccvIhdCz.s:944    .text.qspi_interrupt_flag_get:000000000000000a .L0 
C:\Users\stapi\AppData\Local\Temp\ccvIhdCz.s:947    .text.qspi_interrupt_flag_get:000000000000000e .L0 
C:\Users\stapi\AppData\Local\Temp\ccvIhdCz.s:957    .text.qspi_interrupt_flag_get:0000000000000024 .L0 
C:\Users\stapi\AppData\Local\Temp\ccvIhdCz.s:958    .text.qspi_interrupt_flag_get:0000000000000024 .L0 
C:\Users\stapi\AppData\Local\Temp\ccvIhdCz.s:960    .text.qspi_interrupt_flag_get:0000000000000026 .L0 
C:\Users\stapi\AppData\Local\Temp\ccvIhdCz.s:964    .text.qspi_interrupt_flag_get:000000000000002a .L0 
C:\Users\stapi\AppData\Local\Temp\ccvIhdCz.s:968    .text.qspi_interrupt_flag_get:000000000000002c .L0 
C:\Users\stapi\AppData\Local\Temp\ccvIhdCz.s:973    .text.qspi_interrupt_flag_get:0000000000000038 .L0 
C:\Users\stapi\AppData\Local\Temp\ccvIhdCz.s:974    .text.qspi_interrupt_flag_get:0000000000000038 .L0 
C:\Users\stapi\AppData\Local\Temp\ccvIhdCz.s:977    .text.qspi_interrupt_flag_get:000000000000003a .L0 
C:\Users\stapi\AppData\Local\Temp\ccvIhdCz.s:978    .text.qspi_interrupt_flag_get:000000000000003a .L0 
C:\Users\stapi\AppData\Local\Temp\ccvIhdCz.s:984    .text.qspi_interrupt_flag_get:0000000000000040 .L0 
C:\Users\stapi\AppData\Local\Temp\ccvIhdCz.s:985    .text.qspi_interrupt_flag_get:0000000000000040 .L0 
C:\Users\stapi\AppData\Local\Temp\ccvIhdCz.s:988    .text.qspi_interrupt_flag_get:0000000000000042 .L0 
C:\Users\stapi\AppData\Local\Temp\ccvIhdCz.s:989    .text.qspi_interrupt_flag_get:0000000000000042 .L0 
C:\Users\stapi\AppData\Local\Temp\ccvIhdCz.s:993    .text.qspi_interrupt_flag_get:0000000000000044 .L0 
C:\Users\stapi\AppData\Local\Temp\ccvIhdCz.s:996    .text.qspi_interrupt_flag_get:0000000000000046 .L0 
C:\Users\stapi\AppData\Local\Temp\ccvIhdCz.s:1000   .text.qspi_interrupt_flag_get:0000000000000048 .L0 
C:\Users\stapi\AppData\Local\Temp\ccvIhdCz.s:1001   .text.qspi_interrupt_flag_get:0000000000000048 .L0 
C:\Users\stapi\AppData\Local\Temp\ccvIhdCz.s:1004   .text.qspi_interrupt_flag_get:000000000000004a .L0 
C:\Users\stapi\AppData\Local\Temp\ccvIhdCz.s:1005   .text.qspi_interrupt_flag_get:000000000000004a .L0 
C:\Users\stapi\AppData\Local\Temp\ccvIhdCz.s:1011   .text.qspi_interrupt_flag_get:0000000000000050 .L0 
C:\Users\stapi\AppData\Local\Temp\ccvIhdCz.s:1012   .text.qspi_interrupt_flag_get:0000000000000050 .L0 
C:\Users\stapi\AppData\Local\Temp\ccvIhdCz.s:1015   .text.qspi_interrupt_flag_get:0000000000000052 .L0 
C:\Users\stapi\AppData\Local\Temp\ccvIhdCz.s:1016   .text.qspi_interrupt_flag_get:0000000000000052 .L0 
C:\Users\stapi\AppData\Local\Temp\ccvIhdCz.s:1022   .text.qspi_interrupt_flag_get:0000000000000058 .L0 
C:\Users\stapi\AppData\Local\Temp\ccvIhdCz.s:1023   .text.qspi_interrupt_flag_get:0000000000000058 .L0 
C:\Users\stapi\AppData\Local\Temp\ccvIhdCz.s:1026   .text.qspi_interrupt_flag_get:000000000000005a .L0 
C:\Users\stapi\AppData\Local\Temp\ccvIhdCz.s:1027   .text.qspi_interrupt_flag_get:000000000000005a .L0 
C:\Users\stapi\AppData\Local\Temp\ccvIhdCz.s:1030   .text.qspi_interrupt_flag_get:0000000000000060 .L0 
C:\Users\stapi\AppData\Local\Temp\ccvIhdCz.s:1037   .text.qspi_interrupt_flag_clear:0000000000000000 qspi_interrupt_flag_clear
C:\Users\stapi\AppData\Local\Temp\ccvIhdCz.s:1039   .text.qspi_interrupt_flag_clear:0000000000000000 .L0 
C:\Users\stapi\AppData\Local\Temp\ccvIhdCz.s:1041   .text.qspi_interrupt_flag_clear:0000000000000008 .L0 
C:\Users\stapi\AppData\Local\Temp\ccvIhdCz.s:261    .text.qspi_config:0000000000000180 .L0 
C:\Users\stapi\AppData\Local\Temp\ccvIhdCz.s:287    .text.qspi_deinit:0000000000000028 .L0 
C:\Users\stapi\AppData\Local\Temp\ccvIhdCz.s:323    .text.qspi_struct_para_init:000000000000001a .L0 
C:\Users\stapi\AppData\Local\Temp\ccvIhdCz.s:373    .text.qspi_cmd_struct_para_init:0000000000000032 .L0 
C:\Users\stapi\AppData\Local\Temp\ccvIhdCz.s:407    .text.qspi_polling_struct_para_init:000000000000001a .L0 
C:\Users\stapi\AppData\Local\Temp\ccvIhdCz.s:470    .text.qspi_init:000000000000004e .L0 
C:\Users\stapi\AppData\Local\Temp\ccvIhdCz.s:489    .text.qspi_enable:0000000000000012 .L0 
C:\Users\stapi\AppData\Local\Temp\ccvIhdCz.s:508    .text.qspi_disable:0000000000000010 .L0 
C:\Users\stapi\AppData\Local\Temp\ccvIhdCz.s:527    .text.qspi_dma_enable:0000000000000012 .L0 
C:\Users\stapi\AppData\Local\Temp\ccvIhdCz.s:546    .text.qspi_dma_disable:0000000000000010 .L0 
C:\Users\stapi\AppData\Local\Temp\ccvIhdCz.s:594    .text.qspi_command_config:0000000000000032 .L0 
C:\Users\stapi\AppData\Local\Temp\ccvIhdCz.s:653    .text.qspi_polling_config:000000000000003c .L0 
C:\Users\stapi\AppData\Local\Temp\ccvIhdCz.s:699    .text.qspi_memorymapped_config:0000000000000034 .L0 
C:\Users\stapi\AppData\Local\Temp\ccvIhdCz.s:756    .text.qspi_data_transmit:000000000000003a .L0 
C:\Users\stapi\AppData\Local\Temp\ccvIhdCz.s:823    .text.qspi_data_receive:0000000000000042 .L0 
C:\Users\stapi\AppData\Local\Temp\ccvIhdCz.s:842    .text.qspi_transmission_abort:0000000000000012 .L0 
C:\Users\stapi\AppData\Local\Temp\ccvIhdCz.s:864    .text.qspi_flag_get:0000000000000010 .L0 
C:\Users\stapi\AppData\Local\Temp\ccvIhdCz.s:884    .text.qspi_flag_clear:0000000000000010 .L0 
C:\Users\stapi\AppData\Local\Temp\ccvIhdCz.s:904    .text.qspi_interrupt_enable:0000000000000010 .L0 
C:\Users\stapi\AppData\Local\Temp\ccvIhdCz.s:925    .text.qspi_interrupt_disable:0000000000000012 .L0 
C:\Users\stapi\AppData\Local\Temp\ccvIhdCz.s:1033   .text.qspi_interrupt_flag_get:0000000000000060 .L0 
                     .debug_frame:0000000000000000 .L0 
C:\Users\stapi\AppData\Local\Temp\ccvIhdCz.s:34     .text.qspi_config:0000000000000018 .L2
C:\Users\stapi\AppData\Local\Temp\ccvIhdCz.s:165    .text.qspi_config:00000000000000ee .L3
C:\Users\stapi\AppData\Local\Temp\ccvIhdCz.s:108    .text.qspi_config:0000000000000098 .L4
C:\Users\stapi\AppData\Local\Temp\ccvIhdCz.s:92     .text.qspi_config:0000000000000078 .L5
C:\Users\stapi\AppData\Local\Temp\ccvIhdCz.s:162    .text.qspi_config:00000000000000ec .L1
C:\Users\stapi\AppData\Local\Temp\ccvIhdCz.s:149    .text.qspi_config:00000000000000d6 .L8
C:\Users\stapi\AppData\Local\Temp\ccvIhdCz.s:218    .text.qspi_config:000000000000014e .L10
C:\Users\stapi\AppData\Local\Temp\ccvIhdCz.s:203    .text.qspi_config:0000000000000130 .L11
C:\Users\stapi\AppData\Local\Temp\ccvIhdCz.s:81     .text.qspi_config:0000000000000068 .L23
C:\Users\stapi\AppData\Local\Temp\ccvIhdCz.s:245    .text.qspi_config:0000000000000170 .L12
C:\Users\stapi\AppData\Local\Temp\ccvIhdCz.s:138    .text.qspi_config:00000000000000c6 .L25
C:\Users\stapi\AppData\Local\Temp\ccvIhdCz.s:156    .text.qspi_config:00000000000000e2 .L21
C:\Users\stapi\AppData\Local\Temp\ccvIhdCz.s:585    .text.qspi_command_config:000000000000002a .L36
C:\Users\stapi\AppData\Local\Temp\ccvIhdCz.s:572    .text.qspi_command_config:000000000000001c .L38
C:\Users\stapi\AppData\Local\Temp\ccvIhdCz.s:690    .text.qspi_memorymapped_config:0000000000000028 .L45
C:\Users\stapi\AppData\Local\Temp\ccvIhdCz.s:734    .text.qspi_data_transmit:0000000000000026 .L49
C:\Users\stapi\AppData\Local\Temp\ccvIhdCz.s:729    .text.qspi_data_transmit:0000000000000020 .L48
C:\Users\stapi\AppData\Local\Temp\ccvIhdCz.s:801    .text.qspi_data_receive:000000000000002e .L55
C:\Users\stapi\AppData\Local\Temp\ccvIhdCz.s:796    .text.qspi_data_receive:0000000000000028 .L54
C:\Users\stapi\AppData\Local\Temp\ccvIhdCz.s:1009   .text.qspi_interrupt_flag_get:0000000000000050 .L65
C:\Users\stapi\AppData\Local\Temp\ccvIhdCz.s:966    .text.qspi_interrupt_flag_get:000000000000002c .L66
C:\Users\stapi\AppData\Local\Temp\ccvIhdCz.s:982    .text.qspi_interrupt_flag_get:0000000000000040 .L67
C:\Users\stapi\AppData\Local\Temp\ccvIhdCz.s:998    .text.qspi_interrupt_flag_get:0000000000000048 .L68
C:\Users\stapi\AppData\Local\Temp\ccvIhdCz.s:962    .text.qspi_interrupt_flag_get:000000000000002a .L64
C:\Users\stapi\AppData\Local\Temp\ccvIhdCz.s:1020   .text.qspi_interrupt_flag_get:0000000000000058 .L70
C:\Users\stapi\AppData\Local\Temp\ccvIhdCz.s:955    .text.qspi_interrupt_flag_get:0000000000000024 .L69
C:\Users\stapi\AppData\Local\Temp\ccvIhdCz.s:991    .text.qspi_interrupt_flag_get:0000000000000044 .L76
C:\Users\stapi\AppData\Local\Temp\ccvIhdCz.s:1975   .debug_abbrev:0000000000000000 .Ldebug_abbrev0
C:\Users\stapi\AppData\Local\Temp\ccvIhdCz.s:2931   .debug_str:00000000000001db .LASF111
C:\Users\stapi\AppData\Local\Temp\ccvIhdCz.s:2947   .debug_str:0000000000000326 .LASF112
C:\Users\stapi\AppData\Local\Temp\ccvIhdCz.s:3045   .debug_str:0000000000000656 .LASF113
C:\Users\stapi\AppData\Local\Temp\ccvIhdCz.s:2811   .debug_ranges:0000000000000000 .Ldebug_ranges0
C:\Users\stapi\AppData\Local\Temp\ccvIhdCz.s:2857   .debug_line:0000000000000000 .Ldebug_line0
C:\Users\stapi\AppData\Local\Temp\ccvIhdCz.s:3075   .debug_str:0000000000000797 .LASF0
C:\Users\stapi\AppData\Local\Temp\ccvIhdCz.s:2975   .debug_str:000000000000047b .LASF1
C:\Users\stapi\AppData\Local\Temp\ccvIhdCz.s:2957   .debug_str:00000000000003fc .LASF4
C:\Users\stapi\AppData\Local\Temp\ccvIhdCz.s:2969   .debug_str:0000000000000453 .LASF2
C:\Users\stapi\AppData\Local\Temp\ccvIhdCz.s:2903   .debug_str:0000000000000135 .LASF3
C:\Users\stapi\AppData\Local\Temp\ccvIhdCz.s:2883   .debug_str:00000000000000b1 .LASF5
C:\Users\stapi\AppData\Local\Temp\ccvIhdCz.s:2995   .debug_str:00000000000004f6 .LASF6
C:\Users\stapi\AppData\Local\Temp\ccvIhdCz.s:3005   .debug_str:0000000000000533 .LASF7
C:\Users\stapi\AppData\Local\Temp\ccvIhdCz.s:2893   .debug_str:00000000000000fa .LASF8
C:\Users\stapi\AppData\Local\Temp\ccvIhdCz.s:3039   .debug_str:000000000000062a .LASF9
C:\Users\stapi\AppData\Local\Temp\ccvIhdCz.s:2937   .debug_str:00000000000002ec .LASF10
C:\Users\stapi\AppData\Local\Temp\ccvIhdCz.s:2977   .debug_str:0000000000000487 .LASF11
C:\Users\stapi\AppData\Local\Temp\ccvIhdCz.s:3003   .debug_str:000000000000052e .LASF12
C:\Users\stapi\AppData\Local\Temp\ccvIhdCz.s:2907   .debug_str:000000000000014d .LASF13
C:\Users\stapi\AppData\Local\Temp\ccvIhdCz.s:2985   .debug_str:00000000000004c6 .LASF14
C:\Users\stapi\AppData\Local\Temp\ccvIhdCz.s:2861   .debug_str:000000000000001a .LASF15
C:\Users\stapi\AppData\Local\Temp\ccvIhdCz.s:3057   .debug_str:0000000000000710 .LASF16
C:\Users\stapi\AppData\Local\Temp\ccvIhdCz.s:3081   .debug_str:00000000000007c6 .LASF17
C:\Users\stapi\AppData\Local\Temp\ccvIhdCz.s:2935   .debug_str:00000000000002df .LASF18
C:\Users\stapi\AppData\Local\Temp\ccvIhdCz.s:3047   .debug_str:00000000000006df .LASF19
C:\Users\stapi\AppData\Local\Temp\ccvIhdCz.s:3033   .debug_str:00000000000005fc .LASF20
C:\Users\stapi\AppData\Local\Temp\ccvIhdCz.s:3089   .debug_str:00000000000007f2 .LASF21
C:\Users\stapi\AppData\Local\Temp\ccvIhdCz.s:2863   .debug_str:0000000000000023 .LASF22
C:\Users\stapi\AppData\Local\Temp\ccvIhdCz.s:2955   .debug_str:00000000000003f1 .LASF23
C:\Users\stapi\AppData\Local\Temp\ccvIhdCz.s:3069   .debug_str:000000000000076a .LASF24
C:\Users\stapi\AppData\Local\Temp\ccvIhdCz.s:3031   .debug_str:00000000000005ef .LASF25
C:\Users\stapi\AppData\Local\Temp\ccvIhdCz.s:2927   .debug_str:00000000000001c5 .LASF26
C:\Users\stapi\AppData\Local\Temp\ccvIhdCz.s:2895   .debug_str:0000000000000105 .LASF27
C:\Users\stapi\AppData\Local\Temp\ccvIhdCz.s:2997   .debug_str:0000000000000509 .LASF28
C:\Users\stapi\AppData\Local\Temp\ccvIhdCz.s:3019   .debug_str:00000000000005b0 .LASF29
C:\Users\stapi\AppData\Local\Temp\ccvIhdCz.s:3007   .debug_str:000000000000053c .LASF30
C:\Users\stapi\AppData\Local\Temp\ccvIhdCz.s:3065   .debug_str:000000000000074c .LASF31
C:\Users\stapi\AppData\Local\Temp\ccvIhdCz.s:3013   .debug_str:0000000000000571 .LASF32
C:\Users\stapi\AppData\Local\Temp\ccvIhdCz.s:3087   .debug_str:00000000000007e5 .LASF33
C:\Users\stapi\AppData\Local\Temp\ccvIhdCz.s:2971   .debug_str:0000000000000461 .LASF34
C:\Users\stapi\AppData\Local\Temp\ccvIhdCz.s:2917   .debug_str:0000000000000192 .LASF35
C:\Users\stapi\AppData\Local\Temp\ccvIhdCz.s:2963   .debug_str:0000000000000422 .LASF36
C:\Users\stapi\AppData\Local\Temp\ccvIhdCz.s:2983   .debug_str:00000000000004ba .LASF37
C:\Users\stapi\AppData\Local\Temp\ccvIhdCz.s:3051   .debug_str:00000000000006f9 .LASF38
C:\Users\stapi\AppData\Local\Temp\ccvIhdCz.s:2929   .debug_str:00000000000001d0 .LASF39
C:\Users\stapi\AppData\Local\Temp\ccvIhdCz.s:2953   .debug_str:00000000000003e3 .LASF40
C:\Users\stapi\AppData\Local\Temp\ccvIhdCz.s:3049   .debug_str:00000000000006ec .LASF41
C:\Users\stapi\AppData\Local\Temp\ccvIhdCz.s:2991   .debug_str:00000000000004e1 .LASF42
C:\Users\stapi\AppData\Local\Temp\ccvIhdCz.s:2909   .debug_str:0000000000000155 .LASF43
C:\Users\stapi\AppData\Local\Temp\ccvIhdCz.s:2945   .debug_str:0000000000000318 .LASF44
C:\Users\stapi\AppData\Local\Temp\ccvIhdCz.s:2999   .debug_str:0000000000000515 .LASF45
C:\Users\stapi\AppData\Local\Temp\ccvIhdCz.s:3009   .debug_str:000000000000054a .LASF46
C:\Users\stapi\AppData\Local\Temp\ccvIhdCz.s:3079   .debug_str:00000000000007bc .LASF47
C:\Users\stapi\AppData\Local\Temp\ccvIhdCz.s:2993   .debug_str:00000000000004ec .LASF48
C:\Users\stapi\AppData\Local\Temp\ccvIhdCz.s:2959   .debug_str:0000000000000406 .LASF49
C:\Users\stapi\AppData\Local\Temp\ccvIhdCz.s:2881   .debug_str:00000000000000a4 .LASF50
C:\Users\stapi\AppData\Local\Temp\ccvIhdCz.s:2867   .debug_str:0000000000000034 .LASF51
C:\Users\stapi\AppData\Local\Temp\ccvIhdCz.s:2961   .debug_str:0000000000000415 .LASF52
C:\Users\stapi\AppData\Local\Temp\ccvIhdCz.s:2933   .debug_str:00000000000002d4 .LASF53
C:\Users\stapi\AppData\Local\Temp\ccvIhdCz.s:2875   .debug_str:0000000000000085 .LASF54
C:\Users\stapi\AppData\Local\Temp\ccvIhdCz.s:3063   .debug_str:000000000000073b .LASF55
C:\Users\stapi\AppData\Local\Temp\ccvIhdCz.s:3073   .debug_str:000000000000078b .LASF56
C:\Users\stapi\AppData\Local\Temp\ccvIhdCz.s:2913   .debug_str:0000000000000174 .LASF57
C:\Users\stapi\AppData\Local\Temp\ccvIhdCz.s:2949   .debug_str:00000000000003ca .LASF58
C:\Users\stapi\AppData\Local\Temp\ccvIhdCz.s:2865   .debug_str:000000000000002f .LASF59
C:\Users\stapi\AppData\Local\Temp\ccvIhdCz.s:2951   .debug_str:00000000000003d4 .LASF60
C:\Users\stapi\AppData\Local\Temp\ccvIhdCz.s:2973   .debug_str:000000000000046c .LASF61
C:\Users\stapi\AppData\Local\Temp\ccvIhdCz.s:2899   .debug_str:000000000000011b .LASF62
C:\Users\stapi\AppData\Local\Temp\ccvIhdCz.s:3059   .debug_str:0000000000000716 .LASF63
C:\Users\stapi\AppData\Local\Temp\ccvIhdCz.s:3001   .debug_str:0000000000000524 .LASF64
C:\Users\stapi\AppData\Local\Temp\ccvIhdCz.s:2885   .debug_str:00000000000000bc .LASF65
C:\Users\stapi\AppData\Local\Temp\ccvIhdCz.s:3037   .debug_str:0000000000000620 .LASF66
C:\Users\stapi\AppData\Local\Temp\ccvIhdCz.s:2915   .debug_str:000000000000017e .LASF67
C:\Users\stapi\AppData\Local\Temp\ccvIhdCz.s:3055   .debug_str:000000000000070a .LASF68
C:\Users\stapi\AppData\Local\Temp\ccvIhdCz.s:3053   .debug_str:0000000000000705 .LASF69
C:\Users\stapi\AppData\Local\Temp\ccvIhdCz.s:3043   .debug_str:000000000000064d .LASF70
C:\Users\stapi\AppData\Local\Temp\ccvIhdCz.s:3041   .debug_str:000000000000063c .LASF71
C:\Users\stapi\AppData\Local\Temp\ccvIhdCz.s:2897   .debug_str:0000000000000110 .LASF72
C:\Users\stapi\AppData\Local\Temp\ccvIhdCz.s:2965   .debug_str:0000000000000430 .LASF73
C:\Users\stapi\AppData\Local\Temp\ccvIhdCz.s:2869   .debug_str:000000000000003f .LASF74
C:\Users\stapi\AppData\Local\Temp\ccvIhdCz.s:2987   .debug_str:00000000000004cf .LASF114
C:\Users\stapi\AppData\Local\Temp\ccvIhdCz.s:13     .text.qspi_config:0000000000000000 .LFB386
C:\Users\stapi\AppData\Local\Temp\ccvIhdCz.s:259    .text.qspi_config:0000000000000180 .LFE386
C:\Users\stapi\AppData\Local\Temp\ccvIhdCz.s:3025   .debug_str:00000000000005d6 .LASF75
C:\Users\stapi\AppData\Local\Temp\ccvIhdCz.s:2873   .debug_str:000000000000006b .LASF115
C:\Users\stapi\AppData\Local\Temp\ccvIhdCz.s:3021   .debug_str:00000000000005bc .LASF76
C:\Users\stapi\AppData\Local\Temp\ccvIhdCz.s:3011   .debug_str:0000000000000559 .LASF84
C:\Users\stapi\AppData\Local\Temp\ccvIhdCz.s:930    .text.qspi_interrupt_flag_get:0000000000000000 .LFB384
C:\Users\stapi\AppData\Local\Temp\ccvIhdCz.s:1031   .text.qspi_interrupt_flag_get:0000000000000060 .LFE384
C:\Users\stapi\AppData\Local\Temp\ccvIhdCz.s:2543   .debug_loc:0000000000000000 .LLST10
C:\Users\stapi\AppData\Local\Temp\ccvIhdCz.s:3027   .debug_str:00000000000005e5 .LASF77
C:\Users\stapi\AppData\Local\Temp\ccvIhdCz.s:2616   .debug_loc:00000000000000a9 .LLST11
C:\Users\stapi\AppData\Local\Temp\ccvIhdCz.s:3029   .debug_str:00000000000005ea .LASF78
C:\Users\stapi\AppData\Local\Temp\ccvIhdCz.s:3035   .debug_str:0000000000000609 .LASF80
C:\Users\stapi\AppData\Local\Temp\ccvIhdCz.s:909    .text.qspi_interrupt_disable:0000000000000000 .LFB383
C:\Users\stapi\AppData\Local\Temp\ccvIhdCz.s:923    .text.qspi_interrupt_disable:0000000000000012 .LFE383
C:\Users\stapi\AppData\Local\Temp\ccvIhdCz.s:2923   .debug_str:00000000000001b1 .LASF79
C:\Users\stapi\AppData\Local\Temp\ccvIhdCz.s:2627   .debug_loc:00000000000000c7 .LLST9
C:\Users\stapi\AppData\Local\Temp\ccvIhdCz.s:2967   .debug_str:000000000000043d .LASF81
C:\Users\stapi\AppData\Local\Temp\ccvIhdCz.s:889    .text.qspi_interrupt_enable:0000000000000000 .LFB382
C:\Users\stapi\AppData\Local\Temp\ccvIhdCz.s:902    .text.qspi_interrupt_enable:0000000000000010 .LFE382
C:\Users\stapi\AppData\Local\Temp\ccvIhdCz.s:3067   .debug_str:000000000000075a .LASF82
C:\Users\stapi\AppData\Local\Temp\ccvIhdCz.s:869    .text.qspi_flag_clear:0000000000000000 .LFB381
C:\Users\stapi\AppData\Local\Temp\ccvIhdCz.s:882    .text.qspi_flag_clear:0000000000000010 .LFE381
C:\Users\stapi\AppData\Local\Temp\ccvIhdCz.s:2941   .debug_str:0000000000000307 .LASF83
C:\Users\stapi\AppData\Local\Temp\ccvIhdCz.s:2905   .debug_str:000000000000013f .LASF85
C:\Users\stapi\AppData\Local\Temp\ccvIhdCz.s:847    .text.qspi_flag_get:0000000000000000 .LFB380
C:\Users\stapi\AppData\Local\Temp\ccvIhdCz.s:862    .text.qspi_flag_get:0000000000000010 .LFE380
C:\Users\stapi\AppData\Local\Temp\ccvIhdCz.s:2641   .debug_loc:00000000000000e8 .LLST8
C:\Users\stapi\AppData\Local\Temp\ccvIhdCz.s:2871   .debug_str:0000000000000053 .LASF97
C:\Users\stapi\AppData\Local\Temp\ccvIhdCz.s:828    .text.qspi_transmission_abort:0000000000000000 .LFB379
C:\Users\stapi\AppData\Local\Temp\ccvIhdCz.s:840    .text.qspi_transmission_abort:0000000000000012 .LFE379
C:\Users\stapi\AppData\Local\Temp\ccvIhdCz.s:2981   .debug_str:00000000000004a8 .LASF86
C:\Users\stapi\AppData\Local\Temp\ccvIhdCz.s:761    .text.qspi_data_receive:0000000000000000 .LFB378
C:\Users\stapi\AppData\Local\Temp\ccvIhdCz.s:821    .text.qspi_data_receive:0000000000000042 .LFE378
C:\Users\stapi\AppData\Local\Temp\ccvIhdCz.s:2989   .debug_str:00000000000004db .LASF87
C:\Users\stapi\AppData\Local\Temp\ccvIhdCz.s:2655   .debug_loc:0000000000000109 .LLST7
C:\Users\stapi\AppData\Local\Temp\ccvIhdCz.s:2879   .debug_str:000000000000009d .LASF90
C:\Users\stapi\AppData\Local\Temp\ccvIhdCz.s:3017   .debug_str:000000000000059d .LASF88
C:\Users\stapi\AppData\Local\Temp\ccvIhdCz.s:704    .text.qspi_data_transmit:0000000000000000 .LFB377
C:\Users\stapi\AppData\Local\Temp\ccvIhdCz.s:754    .text.qspi_data_transmit:000000000000003a .LFE377
C:\Users\stapi\AppData\Local\Temp\ccvIhdCz.s:2919   .debug_str:000000000000019f .LASF89
C:\Users\stapi\AppData\Local\Temp\ccvIhdCz.s:2666   .debug_loc:0000000000000127 .LLST6
C:\Users\stapi\AppData\Local\Temp\ccvIhdCz.s:2877   .debug_str:0000000000000096 .LASF91
C:\Users\stapi\AppData\Local\Temp\ccvIhdCz.s:3061   .debug_str:0000000000000722 .LASF92
C:\Users\stapi\AppData\Local\Temp\ccvIhdCz.s:658    .text.qspi_memorymapped_config:0000000000000000 .LFB376
C:\Users\stapi\AppData\Local\Temp\ccvIhdCz.s:697    .text.qspi_memorymapped_config:0000000000000034 .LFE376
C:\Users\stapi\AppData\Local\Temp\ccvIhdCz.s:2677   .debug_loc:0000000000000145 .LLST3
C:\Users\stapi\AppData\Local\Temp\ccvIhdCz.s:3083   .debug_str:00000000000007d1 .LASF93
C:\Users\stapi\AppData\Local\Temp\ccvIhdCz.s:2691   .debug_loc:0000000000000166 .LLST4
C:\Users\stapi\AppData\Local\Temp\ccvIhdCz.s:2889   .debug_str:00000000000000e1 .LASF94
C:\Users\stapi\AppData\Local\Temp\ccvIhdCz.s:2705   .debug_loc:0000000000000187 .LLST5
C:\Users\stapi\AppData\Local\Temp\ccvIhdCz.s:695    .text.qspi_memorymapped_config:0000000000000034 .LVL14
C:\Users\stapi\AppData\Local\Temp\ccvIhdCz.s:2891   .debug_str:00000000000000e6 .LASF95
C:\Users\stapi\AppData\Local\Temp\ccvIhdCz.s:599    .text.qspi_polling_config:0000000000000000 .LFB375
C:\Users\stapi\AppData\Local\Temp\ccvIhdCz.s:651    .text.qspi_polling_config:000000000000003c .LFE375
C:\Users\stapi\AppData\Local\Temp\ccvIhdCz.s:2719   .debug_loc:00000000000001a8 .LLST1
C:\Users\stapi\AppData\Local\Temp\ccvIhdCz.s:2733   .debug_loc:00000000000001c9 .LLST2
C:\Users\stapi\AppData\Local\Temp\ccvIhdCz.s:649    .text.qspi_polling_config:000000000000003c .LVL11
C:\Users\stapi\AppData\Local\Temp\ccvIhdCz.s:2911   .debug_str:0000000000000160 .LASF96
C:\Users\stapi\AppData\Local\Temp\ccvIhdCz.s:551    .text.qspi_command_config:0000000000000000 .LFB374
C:\Users\stapi\AppData\Local\Temp\ccvIhdCz.s:592    .text.qspi_command_config:0000000000000032 .LFE374
C:\Users\stapi\AppData\Local\Temp\ccvIhdCz.s:2747   .debug_loc:00000000000001ea .LLST0
C:\Users\stapi\AppData\Local\Temp\ccvIhdCz.s:565    .text.qspi_command_config:0000000000000014 .LVL8
C:\Users\stapi\AppData\Local\Temp\ccvIhdCz.s:3023   .debug_str:00000000000005c5 .LASF98
C:\Users\stapi\AppData\Local\Temp\ccvIhdCz.s:532    .text.qspi_dma_disable:0000000000000000 .LFB373
C:\Users\stapi\AppData\Local\Temp\ccvIhdCz.s:544    .text.qspi_dma_disable:0000000000000010 .LFE373
C:\Users\stapi\AppData\Local\Temp\ccvIhdCz.s:2901   .debug_str:0000000000000125 .LASF99
C:\Users\stapi\AppData\Local\Temp\ccvIhdCz.s:513    .text.qspi_dma_enable:0000000000000000 .LFB372
C:\Users\stapi\AppData\Local\Temp\ccvIhdCz.s:525    .text.qspi_dma_enable:0000000000000012 .LFE372
C:\Users\stapi\AppData\Local\Temp\ccvIhdCz.s:2939   .debug_str:00000000000002fa .LASF100
C:\Users\stapi\AppData\Local\Temp\ccvIhdCz.s:494    .text.qspi_disable:0000000000000000 .LFB371
C:\Users\stapi\AppData\Local\Temp\ccvIhdCz.s:506    .text.qspi_disable:0000000000000010 .LFE371
C:\Users\stapi\AppData\Local\Temp\ccvIhdCz.s:3085   .debug_str:00000000000007d9 .LASF101
C:\Users\stapi\AppData\Local\Temp\ccvIhdCz.s:475    .text.qspi_enable:0000000000000000 .LFB370
C:\Users\stapi\AppData\Local\Temp\ccvIhdCz.s:487    .text.qspi_enable:0000000000000012 .LFE370
C:\Users\stapi\AppData\Local\Temp\ccvIhdCz.s:2979   .debug_str:000000000000049e .LASF102
C:\Users\stapi\AppData\Local\Temp\ccvIhdCz.s:412    .text.qspi_init:0000000000000000 .LFB369
C:\Users\stapi\AppData\Local\Temp\ccvIhdCz.s:468    .text.qspi_init:000000000000004e .LFE369
C:\Users\stapi\AppData\Local\Temp\ccvIhdCz.s:2943   .debug_str:000000000000030c .LASF103
C:\Users\stapi\AppData\Local\Temp\ccvIhdCz.s:3015   .debug_str:000000000000057f .LASF104
C:\Users\stapi\AppData\Local\Temp\ccvIhdCz.s:378    .text.qspi_polling_struct_para_init:0000000000000000 .LFB368
C:\Users\stapi\AppData\Local\Temp\ccvIhdCz.s:405    .text.qspi_polling_struct_para_init:000000000000001a .LFE368
C:\Users\stapi\AppData\Local\Temp\ccvIhdCz.s:2925   .debug_str:00000000000001bb .LASF105
C:\Users\stapi\AppData\Local\Temp\ccvIhdCz.s:2859   .debug_str:0000000000000000 .LASF106
C:\Users\stapi\AppData\Local\Temp\ccvIhdCz.s:328    .text.qspi_cmd_struct_para_init:0000000000000000 .LFB367
C:\Users\stapi\AppData\Local\Temp\ccvIhdCz.s:371    .text.qspi_cmd_struct_para_init:0000000000000032 .LFE367
C:\Users\stapi\AppData\Local\Temp\ccvIhdCz.s:3071   .debug_str:0000000000000775 .LASF107
C:\Users\stapi\AppData\Local\Temp\ccvIhdCz.s:292    .text.qspi_struct_para_init:0000000000000000 .LFB366
C:\Users\stapi\AppData\Local\Temp\ccvIhdCz.s:321    .text.qspi_struct_para_init:000000000000001a .LFE366
C:\Users\stapi\AppData\Local\Temp\ccvIhdCz.s:2921   .debug_str:00000000000001a5 .LASF108
C:\Users\stapi\AppData\Local\Temp\ccvIhdCz.s:266    .text.qspi_deinit:0000000000000000 .LFB365
C:\Users\stapi\AppData\Local\Temp\ccvIhdCz.s:285    .text.qspi_deinit:0000000000000028 .LFE365
C:\Users\stapi\AppData\Local\Temp\ccvIhdCz.s:275    .text.qspi_deinit:0000000000000014 .LVL1
C:\Users\stapi\AppData\Local\Temp\ccvIhdCz.s:279    .text.qspi_deinit:0000000000000020 .LVL2
C:\Users\stapi\AppData\Local\Temp\ccvIhdCz.s:3077   .debug_str:00000000000007a4 .LASF109
C:\Users\stapi\AppData\Local\Temp\ccvIhdCz.s:2887   .debug_str:00000000000000c8 .LASF110
C:\Users\stapi\AppData\Local\Temp\ccvIhdCz.s:933    .text.qspi_interrupt_flag_get:0000000000000000 .LVL28
C:\Users\stapi\AppData\Local\Temp\ccvIhdCz.s:941    .text.qspi_interrupt_flag_get:000000000000000a .LVL29
C:\Users\stapi\AppData\Local\Temp\ccvIhdCz.s:954    .text.qspi_interrupt_flag_get:0000000000000024 .LVL31
C:\Users\stapi\AppData\Local\Temp\ccvIhdCz.s:965    .text.qspi_interrupt_flag_get:000000000000002c .LVL33
C:\Users\stapi\AppData\Local\Temp\ccvIhdCz.s:979    .text.qspi_interrupt_flag_get:000000000000003e .LVL35
C:\Users\stapi\AppData\Local\Temp\ccvIhdCz.s:981    .text.qspi_interrupt_flag_get:0000000000000040 .LVL36
C:\Users\stapi\AppData\Local\Temp\ccvIhdCz.s:990    .text.qspi_interrupt_flag_get:0000000000000044 .LVL38
C:\Users\stapi\AppData\Local\Temp\ccvIhdCz.s:997    .text.qspi_interrupt_flag_get:0000000000000048 .LVL40
C:\Users\stapi\AppData\Local\Temp\ccvIhdCz.s:1006   .text.qspi_interrupt_flag_get:000000000000004e .LVL42
C:\Users\stapi\AppData\Local\Temp\ccvIhdCz.s:1008   .text.qspi_interrupt_flag_get:0000000000000050 .LVL43
C:\Users\stapi\AppData\Local\Temp\ccvIhdCz.s:1017   .text.qspi_interrupt_flag_get:0000000000000056 .LVL45
C:\Users\stapi\AppData\Local\Temp\ccvIhdCz.s:1019   .text.qspi_interrupt_flag_get:0000000000000058 .LVL46
C:\Users\stapi\AppData\Local\Temp\ccvIhdCz.s:1028   .text.qspi_interrupt_flag_get:000000000000005e .LVL48
C:\Users\stapi\AppData\Local\Temp\ccvIhdCz.s:961    .text.qspi_interrupt_flag_get:000000000000002a .LVL32
C:\Users\stapi\AppData\Local\Temp\ccvIhdCz.s:912    .text.qspi_interrupt_disable:0000000000000000 .LVL26
C:\Users\stapi\AppData\Local\Temp\ccvIhdCz.s:918    .text.qspi_interrupt_disable:000000000000000c .LVL27
C:\Users\stapi\AppData\Local\Temp\ccvIhdCz.s:850    .text.qspi_flag_get:0000000000000000 .LVL22
C:\Users\stapi\AppData\Local\Temp\ccvIhdCz.s:857    .text.qspi_flag_get:000000000000000a .LVL23
C:\Users\stapi\AppData\Local\Temp\ccvIhdCz.s:764    .text.qspi_data_receive:0000000000000000 .LVL18
C:\Users\stapi\AppData\Local\Temp\ccvIhdCz.s:815    .text.qspi_data_receive:000000000000003c .LVL21
C:\Users\stapi\AppData\Local\Temp\ccvIhdCz.s:707    .text.qspi_data_transmit:0000000000000000 .LVL15
C:\Users\stapi\AppData\Local\Temp\ccvIhdCz.s:748    .text.qspi_data_transmit:0000000000000034 .LVL17
C:\Users\stapi\AppData\Local\Temp\ccvIhdCz.s:661    .text.qspi_memorymapped_config:0000000000000000 .LVL12
C:\Users\stapi\AppData\Local\Temp\ccvIhdCz.s:693    .text.qspi_memorymapped_config:000000000000002c .LVL13
C:\Users\stapi\AppData\Local\Temp\ccvIhdCz.s:602    .text.qspi_polling_config:0000000000000000 .LVL9
C:\Users\stapi\AppData\Local\Temp\ccvIhdCz.s:644    .text.qspi_polling_config:0000000000000032 .LVL10
C:\Users\stapi\AppData\Local\Temp\ccvIhdCz.s:554    .text.qspi_command_config:0000000000000000 .LVL7
C:\Users\stapi\AppData\Local\Temp\ccvIhdCz.s:1052   .debug_info:0000000000000000 .Ldebug_info0

UNDEFINED SYMBOLS
__riscv_save_0
rcu_periph_reset_enable
rcu_periph_reset_disable
__riscv_restore_0
__riscv_save_1
__riscv_restore_1
