   1              		.file	"gd32vw55x_cau.c"
   2              		.option nopic
   3              		.attribute arch, "rv32i2p0_m2p0_a2p0_f2p0_c2p0_b_p0p94"
   4              		.attribute unaligned_access, 0
   5              		.attribute stack_align, 16
   6              		.text
   7              	.Ltext0:
   8              		.cfi_sections	.debug_frame
   9              		.section	.text.cau_deinit,"ax",@progbits
  10              		.align	1
  11              		.globl	cau_deinit
  13              	cau_deinit:
  14              	.LFB365:
  15              		.file 1 "C:/Users/stapi/OneDrive/Desktop/GD32VW553/GD32VW55X_Wifi_BLE_SDK/GD32VW55x_RELEASE_V1.0.2
   1:C:/Users/stapi/OneDrive/Desktop/GD32VW553/GD32VW55X_Wifi_BLE_SDK/GD32VW55x_RELEASE_V1.0.2/MSDK/plf/GD32VW55x_standard_peripheral/Source\gd32vw55x_cau.c **** /*!
   2:C:/Users/stapi/OneDrive/Desktop/GD32VW553/GD32VW55X_Wifi_BLE_SDK/GD32VW55x_RELEASE_V1.0.2/MSDK/plf/GD32VW55x_standard_peripheral/Source\gd32vw55x_cau.c ****     \file    gd32vw55x_cau.c
   3:C:/Users/stapi/OneDrive/Desktop/GD32VW553/GD32VW55X_Wifi_BLE_SDK/GD32VW55x_RELEASE_V1.0.2/MSDK/plf/GD32VW55x_standard_peripheral/Source\gd32vw55x_cau.c ****     \brief   CAU driver
   4:C:/Users/stapi/OneDrive/Desktop/GD32VW553/GD32VW55X_Wifi_BLE_SDK/GD32VW55x_RELEASE_V1.0.2/MSDK/plf/GD32VW55x_standard_peripheral/Source\gd32vw55x_cau.c **** 
   5:C:/Users/stapi/OneDrive/Desktop/GD32VW553/GD32VW55X_Wifi_BLE_SDK/GD32VW55x_RELEASE_V1.0.2/MSDK/plf/GD32VW55x_standard_peripheral/Source\gd32vw55x_cau.c ****     \version 2023-07-20, V1.0.0, firmware for GD32VW55x
   6:C:/Users/stapi/OneDrive/Desktop/GD32VW553/GD32VW55X_Wifi_BLE_SDK/GD32VW55x_RELEASE_V1.0.2/MSDK/plf/GD32VW55x_standard_peripheral/Source\gd32vw55x_cau.c **** */
   7:C:/Users/stapi/OneDrive/Desktop/GD32VW553/GD32VW55X_Wifi_BLE_SDK/GD32VW55x_RELEASE_V1.0.2/MSDK/plf/GD32VW55x_standard_peripheral/Source\gd32vw55x_cau.c **** 
   8:C:/Users/stapi/OneDrive/Desktop/GD32VW553/GD32VW55X_Wifi_BLE_SDK/GD32VW55x_RELEASE_V1.0.2/MSDK/plf/GD32VW55x_standard_peripheral/Source\gd32vw55x_cau.c **** /*
   9:C:/Users/stapi/OneDrive/Desktop/GD32VW553/GD32VW55X_Wifi_BLE_SDK/GD32VW55x_RELEASE_V1.0.2/MSDK/plf/GD32VW55x_standard_peripheral/Source\gd32vw55x_cau.c ****     Copyright (c) 2023, GigaDevice Semiconductor Inc.
  10:C:/Users/stapi/OneDrive/Desktop/GD32VW553/GD32VW55X_Wifi_BLE_SDK/GD32VW55x_RELEASE_V1.0.2/MSDK/plf/GD32VW55x_standard_peripheral/Source\gd32vw55x_cau.c **** 
  11:C:/Users/stapi/OneDrive/Desktop/GD32VW553/GD32VW55X_Wifi_BLE_SDK/GD32VW55x_RELEASE_V1.0.2/MSDK/plf/GD32VW55x_standard_peripheral/Source\gd32vw55x_cau.c ****     Redistribution and use in source and binary forms, with or without modification,
  12:C:/Users/stapi/OneDrive/Desktop/GD32VW553/GD32VW55X_Wifi_BLE_SDK/GD32VW55x_RELEASE_V1.0.2/MSDK/plf/GD32VW55x_standard_peripheral/Source\gd32vw55x_cau.c **** are permitted provided that the following conditions are met:
  13:C:/Users/stapi/OneDrive/Desktop/GD32VW553/GD32VW55X_Wifi_BLE_SDK/GD32VW55x_RELEASE_V1.0.2/MSDK/plf/GD32VW55x_standard_peripheral/Source\gd32vw55x_cau.c **** 
  14:C:/Users/stapi/OneDrive/Desktop/GD32VW553/GD32VW55X_Wifi_BLE_SDK/GD32VW55x_RELEASE_V1.0.2/MSDK/plf/GD32VW55x_standard_peripheral/Source\gd32vw55x_cau.c ****     1. Redistributions of source code must retain the above copyright notice, this
  15:C:/Users/stapi/OneDrive/Desktop/GD32VW553/GD32VW55X_Wifi_BLE_SDK/GD32VW55x_RELEASE_V1.0.2/MSDK/plf/GD32VW55x_standard_peripheral/Source\gd32vw55x_cau.c ****        list of conditions and the following disclaimer.
  16:C:/Users/stapi/OneDrive/Desktop/GD32VW553/GD32VW55X_Wifi_BLE_SDK/GD32VW55x_RELEASE_V1.0.2/MSDK/plf/GD32VW55x_standard_peripheral/Source\gd32vw55x_cau.c ****     2. Redistributions in binary form must reproduce the above copyright notice,
  17:C:/Users/stapi/OneDrive/Desktop/GD32VW553/GD32VW55X_Wifi_BLE_SDK/GD32VW55x_RELEASE_V1.0.2/MSDK/plf/GD32VW55x_standard_peripheral/Source\gd32vw55x_cau.c ****        this list of conditions and the following disclaimer in the documentation
  18:C:/Users/stapi/OneDrive/Desktop/GD32VW553/GD32VW55X_Wifi_BLE_SDK/GD32VW55x_RELEASE_V1.0.2/MSDK/plf/GD32VW55x_standard_peripheral/Source\gd32vw55x_cau.c ****        and/or other materials provided with the distribution.
  19:C:/Users/stapi/OneDrive/Desktop/GD32VW553/GD32VW55X_Wifi_BLE_SDK/GD32VW55x_RELEASE_V1.0.2/MSDK/plf/GD32VW55x_standard_peripheral/Source\gd32vw55x_cau.c ****     3. Neither the name of the copyright holder nor the names of its contributors
  20:C:/Users/stapi/OneDrive/Desktop/GD32VW553/GD32VW55X_Wifi_BLE_SDK/GD32VW55x_RELEASE_V1.0.2/MSDK/plf/GD32VW55x_standard_peripheral/Source\gd32vw55x_cau.c ****        may be used to endorse or promote products derived from this software without
  21:C:/Users/stapi/OneDrive/Desktop/GD32VW553/GD32VW55X_Wifi_BLE_SDK/GD32VW55x_RELEASE_V1.0.2/MSDK/plf/GD32VW55x_standard_peripheral/Source\gd32vw55x_cau.c ****        specific prior written permission.
  22:C:/Users/stapi/OneDrive/Desktop/GD32VW553/GD32VW55X_Wifi_BLE_SDK/GD32VW55x_RELEASE_V1.0.2/MSDK/plf/GD32VW55x_standard_peripheral/Source\gd32vw55x_cau.c **** 
  23:C:/Users/stapi/OneDrive/Desktop/GD32VW553/GD32VW55X_Wifi_BLE_SDK/GD32VW55x_RELEASE_V1.0.2/MSDK/plf/GD32VW55x_standard_peripheral/Source\gd32vw55x_cau.c ****     THIS SOFTWARE IS PROVIDED BY THE COPYRIGHT HOLDERS AND CONTRIBUTORS "AS IS"
  24:C:/Users/stapi/OneDrive/Desktop/GD32VW553/GD32VW55X_Wifi_BLE_SDK/GD32VW55x_RELEASE_V1.0.2/MSDK/plf/GD32VW55x_standard_peripheral/Source\gd32vw55x_cau.c **** AND ANY EXPRESS OR IMPLIED WARRANTIES, INCLUDING, BUT NOT LIMITED TO, THE IMPLIED
  25:C:/Users/stapi/OneDrive/Desktop/GD32VW553/GD32VW55X_Wifi_BLE_SDK/GD32VW55x_RELEASE_V1.0.2/MSDK/plf/GD32VW55x_standard_peripheral/Source\gd32vw55x_cau.c **** WARRANTIES OF MERCHANTABILITY AND FITNESS FOR A PARTICULAR PURPOSE ARE DISCLAIMED.
  26:C:/Users/stapi/OneDrive/Desktop/GD32VW553/GD32VW55X_Wifi_BLE_SDK/GD32VW55x_RELEASE_V1.0.2/MSDK/plf/GD32VW55x_standard_peripheral/Source\gd32vw55x_cau.c **** IN NO EVENT SHALL THE COPYRIGHT HOLDER OR CONTRIBUTORS BE LIABLE FOR ANY DIRECT,
  27:C:/Users/stapi/OneDrive/Desktop/GD32VW553/GD32VW55X_Wifi_BLE_SDK/GD32VW55x_RELEASE_V1.0.2/MSDK/plf/GD32VW55x_standard_peripheral/Source\gd32vw55x_cau.c **** INDIRECT, INCIDENTAL, SPECIAL, EXEMPLARY, OR CONSEQUENTIAL DAMAGES (INCLUDING, BUT
  28:C:/Users/stapi/OneDrive/Desktop/GD32VW553/GD32VW55X_Wifi_BLE_SDK/GD32VW55x_RELEASE_V1.0.2/MSDK/plf/GD32VW55x_standard_peripheral/Source\gd32vw55x_cau.c **** NOT LIMITED TO, PROCUREMENT OF SUBSTITUTE GOODS OR SERVICES; LOSS OF USE, DATA, OR
  29:C:/Users/stapi/OneDrive/Desktop/GD32VW553/GD32VW55X_Wifi_BLE_SDK/GD32VW55x_RELEASE_V1.0.2/MSDK/plf/GD32VW55x_standard_peripheral/Source\gd32vw55x_cau.c **** PROFITS; OR BUSINESS INTERRUPTION) HOWEVER CAUSED AND ON ANY THEORY OF LIABILITY,
  30:C:/Users/stapi/OneDrive/Desktop/GD32VW553/GD32VW55X_Wifi_BLE_SDK/GD32VW55x_RELEASE_V1.0.2/MSDK/plf/GD32VW55x_standard_peripheral/Source\gd32vw55x_cau.c **** WHETHER IN CONTRACT, STRICT LIABILITY, OR TORT (INCLUDING NEGLIGENCE OR OTHERWISE)
  31:C:/Users/stapi/OneDrive/Desktop/GD32VW553/GD32VW55X_Wifi_BLE_SDK/GD32VW55x_RELEASE_V1.0.2/MSDK/plf/GD32VW55x_standard_peripheral/Source\gd32vw55x_cau.c **** ARISING IN ANY WAY OUT OF THE USE OF THIS SOFTWARE, EVEN IF ADVISED OF THE POSSIBILITY
  32:C:/Users/stapi/OneDrive/Desktop/GD32VW553/GD32VW55X_Wifi_BLE_SDK/GD32VW55x_RELEASE_V1.0.2/MSDK/plf/GD32VW55x_standard_peripheral/Source\gd32vw55x_cau.c **** OF SUCH DAMAGE.
  33:C:/Users/stapi/OneDrive/Desktop/GD32VW553/GD32VW55X_Wifi_BLE_SDK/GD32VW55x_RELEASE_V1.0.2/MSDK/plf/GD32VW55x_standard_peripheral/Source\gd32vw55x_cau.c **** */
  34:C:/Users/stapi/OneDrive/Desktop/GD32VW553/GD32VW55X_Wifi_BLE_SDK/GD32VW55x_RELEASE_V1.0.2/MSDK/plf/GD32VW55x_standard_peripheral/Source\gd32vw55x_cau.c **** 
  35:C:/Users/stapi/OneDrive/Desktop/GD32VW553/GD32VW55X_Wifi_BLE_SDK/GD32VW55x_RELEASE_V1.0.2/MSDK/plf/GD32VW55x_standard_peripheral/Source\gd32vw55x_cau.c **** #include "gd32vw55x_cau.h"
  36:C:/Users/stapi/OneDrive/Desktop/GD32VW553/GD32VW55X_Wifi_BLE_SDK/GD32VW55x_RELEASE_V1.0.2/MSDK/plf/GD32VW55x_standard_peripheral/Source\gd32vw55x_cau.c **** #include "gd32vw55x_rcu.h"
  37:C:/Users/stapi/OneDrive/Desktop/GD32VW553/GD32VW55X_Wifi_BLE_SDK/GD32VW55x_RELEASE_V1.0.2/MSDK/plf/GD32VW55x_standard_peripheral/Source\gd32vw55x_cau.c **** 
  38:C:/Users/stapi/OneDrive/Desktop/GD32VW553/GD32VW55X_Wifi_BLE_SDK/GD32VW55x_RELEASE_V1.0.2/MSDK/plf/GD32VW55x_standard_peripheral/Source\gd32vw55x_cau.c **** #define FLAG_MASK            ((uint32_t)0x00000020U)
  39:C:/Users/stapi/OneDrive/Desktop/GD32VW553/GD32VW55X_Wifi_BLE_SDK/GD32VW55x_RELEASE_V1.0.2/MSDK/plf/GD32VW55x_standard_peripheral/Source\gd32vw55x_cau.c **** #define STAT0_AESDES_MASK    ((uint32_t)0x00000015U)
  40:C:/Users/stapi/OneDrive/Desktop/GD32VW553/GD32VW55X_Wifi_BLE_SDK/GD32VW55x_RELEASE_V1.0.2/MSDK/plf/GD32VW55x_standard_peripheral/Source\gd32vw55x_cau.c **** #define STAT0_TDES_MASK      ((uint32_t)0x00000014U)
  41:C:/Users/stapi/OneDrive/Desktop/GD32VW553/GD32VW55X_Wifi_BLE_SDK/GD32VW55x_RELEASE_V1.0.2/MSDK/plf/GD32VW55x_standard_peripheral/Source\gd32vw55x_cau.c **** 
  42:C:/Users/stapi/OneDrive/Desktop/GD32VW553/GD32VW55X_Wifi_BLE_SDK/GD32VW55x_RELEASE_V1.0.2/MSDK/plf/GD32VW55x_standard_peripheral/Source\gd32vw55x_cau.c **** /*!
  43:C:/Users/stapi/OneDrive/Desktop/GD32VW553/GD32VW55X_Wifi_BLE_SDK/GD32VW55x_RELEASE_V1.0.2/MSDK/plf/GD32VW55x_standard_peripheral/Source\gd32vw55x_cau.c ****     \brief      reset the CAU peripheral
  44:C:/Users/stapi/OneDrive/Desktop/GD32VW553/GD32VW55X_Wifi_BLE_SDK/GD32VW55x_RELEASE_V1.0.2/MSDK/plf/GD32VW55x_standard_peripheral/Source\gd32vw55x_cau.c ****     \param[in]  none
  45:C:/Users/stapi/OneDrive/Desktop/GD32VW553/GD32VW55X_Wifi_BLE_SDK/GD32VW55x_RELEASE_V1.0.2/MSDK/plf/GD32VW55x_standard_peripheral/Source\gd32vw55x_cau.c ****     \param[out] none
  46:C:/Users/stapi/OneDrive/Desktop/GD32VW553/GD32VW55X_Wifi_BLE_SDK/GD32VW55x_RELEASE_V1.0.2/MSDK/plf/GD32VW55x_standard_peripheral/Source\gd32vw55x_cau.c ****     \retval     none
  47:C:/Users/stapi/OneDrive/Desktop/GD32VW553/GD32VW55X_Wifi_BLE_SDK/GD32VW55x_RELEASE_V1.0.2/MSDK/plf/GD32VW55x_standard_peripheral/Source\gd32vw55x_cau.c **** */
  48:C:/Users/stapi/OneDrive/Desktop/GD32VW553/GD32VW55X_Wifi_BLE_SDK/GD32VW55x_RELEASE_V1.0.2/MSDK/plf/GD32VW55x_standard_peripheral/Source\gd32vw55x_cau.c **** void cau_deinit(void)
  49:C:/Users/stapi/OneDrive/Desktop/GD32VW553/GD32VW55X_Wifi_BLE_SDK/GD32VW55x_RELEASE_V1.0.2/MSDK/plf/GD32VW55x_standard_peripheral/Source\gd32vw55x_cau.c **** {
  16              		.loc 1 49 1
  17              		.cfi_startproc
  18 0000 17030000 		call	t0,__riscv_save_0
  18      E7020300 
  19              		.cfi_offset 1, -4
  20              		.cfi_def_cfa_offset 16
  50:C:/Users/stapi/OneDrive/Desktop/GD32VW553/GD32VW55X_Wifi_BLE_SDK/GD32VW55x_RELEASE_V1.0.2/MSDK/plf/GD32VW55x_standard_peripheral/Source\gd32vw55x_cau.c ****     /* enable CAU reset state */
  51:C:/Users/stapi/OneDrive/Desktop/GD32VW553/GD32VW55X_Wifi_BLE_SDK/GD32VW55x_RELEASE_V1.0.2/MSDK/plf/GD32VW55x_standard_peripheral/Source\gd32vw55x_cau.c ****     rcu_periph_reset_enable(RCU_CAURST);
  21              		.loc 1 51 5
  22 0008 13054050 		li	a0,1284
  23 000c 97000000 		call	rcu_periph_reset_enable
  23      E7800000 
  24              	.LVL0:
  52:C:/Users/stapi/OneDrive/Desktop/GD32VW553/GD32VW55X_Wifi_BLE_SDK/GD32VW55x_RELEASE_V1.0.2/MSDK/plf/GD32VW55x_standard_peripheral/Source\gd32vw55x_cau.c ****     /* release CAU from reset state */
  53:C:/Users/stapi/OneDrive/Desktop/GD32VW553/GD32VW55X_Wifi_BLE_SDK/GD32VW55x_RELEASE_V1.0.2/MSDK/plf/GD32VW55x_standard_peripheral/Source\gd32vw55x_cau.c ****     rcu_periph_reset_disable(RCU_CAURST);
  25              		.loc 1 53 5
  26 0014 13054050 		li	a0,1284
  27 0018 97000000 		call	rcu_periph_reset_disable
  27      E7800000 
  28              	.LVL1:
  54:C:/Users/stapi/OneDrive/Desktop/GD32VW553/GD32VW55X_Wifi_BLE_SDK/GD32VW55x_RELEASE_V1.0.2/MSDK/plf/GD32VW55x_standard_peripheral/Source\gd32vw55x_cau.c **** }
  29              		.loc 1 54 1 is_stmt 0
  30 0020 17030000 		tail	__riscv_restore_0
  30      67000300 
  31              		.cfi_restore 1
  32              		.cfi_def_cfa_offset 0
  33              		.cfi_endproc
  34              	.LFE365:
  36              		.section	.text.cau_struct_para_init,"ax",@progbits
  37              		.align	1
  38              		.globl	cau_struct_para_init
  40              	cau_struct_para_init:
  41              	.LFB366:
  55:C:/Users/stapi/OneDrive/Desktop/GD32VW553/GD32VW55X_Wifi_BLE_SDK/GD32VW55x_RELEASE_V1.0.2/MSDK/plf/GD32VW55x_standard_peripheral/Source\gd32vw55x_cau.c **** 
  56:C:/Users/stapi/OneDrive/Desktop/GD32VW553/GD32VW55X_Wifi_BLE_SDK/GD32VW55x_RELEASE_V1.0.2/MSDK/plf/GD32VW55x_standard_peripheral/Source\gd32vw55x_cau.c **** /*!
  57:C:/Users/stapi/OneDrive/Desktop/GD32VW553/GD32VW55X_Wifi_BLE_SDK/GD32VW55x_RELEASE_V1.0.2/MSDK/plf/GD32VW55x_standard_peripheral/Source\gd32vw55x_cau.c ****     \brief      initialize the CAU encrypt and decrypt parameter struct with the default values
  58:C:/Users/stapi/OneDrive/Desktop/GD32VW553/GD32VW55X_Wifi_BLE_SDK/GD32VW55x_RELEASE_V1.0.2/MSDK/plf/GD32VW55x_standard_peripheral/Source\gd32vw55x_cau.c ****     \param[in]  none
  59:C:/Users/stapi/OneDrive/Desktop/GD32VW553/GD32VW55X_Wifi_BLE_SDK/GD32VW55x_RELEASE_V1.0.2/MSDK/plf/GD32VW55x_standard_peripheral/Source\gd32vw55x_cau.c ****     \param[out] cau_parameter:
  60:C:/Users/stapi/OneDrive/Desktop/GD32VW553/GD32VW55X_Wifi_BLE_SDK/GD32VW55x_RELEASE_V1.0.2/MSDK/plf/GD32VW55x_standard_peripheral/Source\gd32vw55x_cau.c ****                   alg_dir: algorithm direction
  61:C:/Users/stapi/OneDrive/Desktop/GD32VW553/GD32VW55X_Wifi_BLE_SDK/GD32VW55x_RELEASE_V1.0.2/MSDK/plf/GD32VW55x_standard_peripheral/Source\gd32vw55x_cau.c ****                     CAU_ENCRYPT, CAU_DECRYPT
  62:C:/Users/stapi/OneDrive/Desktop/GD32VW553/GD32VW55X_Wifi_BLE_SDK/GD32VW55x_RELEASE_V1.0.2/MSDK/plf/GD32VW55x_standard_peripheral/Source\gd32vw55x_cau.c ****                   key: key
  63:C:/Users/stapi/OneDrive/Desktop/GD32VW553/GD32VW55X_Wifi_BLE_SDK/GD32VW55x_RELEASE_V1.0.2/MSDK/plf/GD32VW55x_standard_peripheral/Source\gd32vw55x_cau.c ****                   key_size: key size in bytes
  64:C:/Users/stapi/OneDrive/Desktop/GD32VW553/GD32VW55X_Wifi_BLE_SDK/GD32VW55x_RELEASE_V1.0.2/MSDK/plf/GD32VW55x_standard_peripheral/Source\gd32vw55x_cau.c ****                   iv: initialization vector
  65:C:/Users/stapi/OneDrive/Desktop/GD32VW553/GD32VW55X_Wifi_BLE_SDK/GD32VW55x_RELEASE_V1.0.2/MSDK/plf/GD32VW55x_standard_peripheral/Source\gd32vw55x_cau.c ****                   iv_size: iv size in bytes
  66:C:/Users/stapi/OneDrive/Desktop/GD32VW553/GD32VW55X_Wifi_BLE_SDK/GD32VW55x_RELEASE_V1.0.2/MSDK/plf/GD32VW55x_standard_peripheral/Source\gd32vw55x_cau.c ****                   input: input data
  67:C:/Users/stapi/OneDrive/Desktop/GD32VW553/GD32VW55X_Wifi_BLE_SDK/GD32VW55x_RELEASE_V1.0.2/MSDK/plf/GD32VW55x_standard_peripheral/Source\gd32vw55x_cau.c ****                   in_length: input data length in bytes
  68:C:/Users/stapi/OneDrive/Desktop/GD32VW553/GD32VW55X_Wifi_BLE_SDK/GD32VW55x_RELEASE_V1.0.2/MSDK/plf/GD32VW55x_standard_peripheral/Source\gd32vw55x_cau.c ****                   aad: additional authentication data
  69:C:/Users/stapi/OneDrive/Desktop/GD32VW553/GD32VW55X_Wifi_BLE_SDK/GD32VW55x_RELEASE_V1.0.2/MSDK/plf/GD32VW55x_standard_peripheral/Source\gd32vw55x_cau.c ****                   aad_size: header size
  70:C:/Users/stapi/OneDrive/Desktop/GD32VW553/GD32VW55X_Wifi_BLE_SDK/GD32VW55x_RELEASE_V1.0.2/MSDK/plf/GD32VW55x_standard_peripheral/Source\gd32vw55x_cau.c ****     \retval     none
  71:C:/Users/stapi/OneDrive/Desktop/GD32VW553/GD32VW55X_Wifi_BLE_SDK/GD32VW55x_RELEASE_V1.0.2/MSDK/plf/GD32VW55x_standard_peripheral/Source\gd32vw55x_cau.c **** */
  72:C:/Users/stapi/OneDrive/Desktop/GD32VW553/GD32VW55X_Wifi_BLE_SDK/GD32VW55x_RELEASE_V1.0.2/MSDK/plf/GD32VW55x_standard_peripheral/Source\gd32vw55x_cau.c **** void cau_struct_para_init(cau_parameter_struct *cau_parameter)
  73:C:/Users/stapi/OneDrive/Desktop/GD32VW553/GD32VW55X_Wifi_BLE_SDK/GD32VW55x_RELEASE_V1.0.2/MSDK/plf/GD32VW55x_standard_peripheral/Source\gd32vw55x_cau.c **** {
  42              		.loc 1 73 1 is_stmt 1
  43              		.cfi_startproc
  44              	.LVL2:
  74:C:/Users/stapi/OneDrive/Desktop/GD32VW553/GD32VW55X_Wifi_BLE_SDK/GD32VW55x_RELEASE_V1.0.2/MSDK/plf/GD32VW55x_standard_peripheral/Source\gd32vw55x_cau.c ****     /* set the CAU encrypt and decrypt parameters struct with the default values */
  75:C:/Users/stapi/OneDrive/Desktop/GD32VW553/GD32VW55X_Wifi_BLE_SDK/GD32VW55x_RELEASE_V1.0.2/MSDK/plf/GD32VW55x_standard_peripheral/Source\gd32vw55x_cau.c ****     cau_parameter->alg_dir     = CAU_ENCRYPT;
  45              		.loc 1 75 5
  46              		.loc 1 75 32 is_stmt 0
  47 0000 23200500 		sw	zero,0(a0)
  76:C:/Users/stapi/OneDrive/Desktop/GD32VW553/GD32VW55X_Wifi_BLE_SDK/GD32VW55x_RELEASE_V1.0.2/MSDK/plf/GD32VW55x_standard_peripheral/Source\gd32vw55x_cau.c ****     cau_parameter->key         = 0U;
  48              		.loc 1 76 5 is_stmt 1
  49              		.loc 1 76 32 is_stmt 0
  50 0004 23220500 		sw	zero,4(a0)
  77:C:/Users/stapi/OneDrive/Desktop/GD32VW553/GD32VW55X_Wifi_BLE_SDK/GD32VW55x_RELEASE_V1.0.2/MSDK/plf/GD32VW55x_standard_peripheral/Source\gd32vw55x_cau.c ****     cau_parameter->key_size    = 0U;
  51              		.loc 1 77 5 is_stmt 1
  52              		.loc 1 77 32 is_stmt 0
  53 0008 23240500 		sw	zero,8(a0)
  78:C:/Users/stapi/OneDrive/Desktop/GD32VW553/GD32VW55X_Wifi_BLE_SDK/GD32VW55x_RELEASE_V1.0.2/MSDK/plf/GD32VW55x_standard_peripheral/Source\gd32vw55x_cau.c ****     cau_parameter->iv          = 0U;
  54              		.loc 1 78 5 is_stmt 1
  55              		.loc 1 78 32 is_stmt 0
  56 000c 23260500 		sw	zero,12(a0)
  79:C:/Users/stapi/OneDrive/Desktop/GD32VW553/GD32VW55X_Wifi_BLE_SDK/GD32VW55x_RELEASE_V1.0.2/MSDK/plf/GD32VW55x_standard_peripheral/Source\gd32vw55x_cau.c ****     cau_parameter->iv_size     = 0U;
  57              		.loc 1 79 5 is_stmt 1
  58              		.loc 1 79 32 is_stmt 0
  59 0010 23280500 		sw	zero,16(a0)
  80:C:/Users/stapi/OneDrive/Desktop/GD32VW553/GD32VW55X_Wifi_BLE_SDK/GD32VW55x_RELEASE_V1.0.2/MSDK/plf/GD32VW55x_standard_peripheral/Source\gd32vw55x_cau.c ****     cau_parameter->input       = 0U;
  60              		.loc 1 80 5 is_stmt 1
  61              		.loc 1 80 32 is_stmt 0
  62 0014 232A0500 		sw	zero,20(a0)
  81:C:/Users/stapi/OneDrive/Desktop/GD32VW553/GD32VW55X_Wifi_BLE_SDK/GD32VW55x_RELEASE_V1.0.2/MSDK/plf/GD32VW55x_standard_peripheral/Source\gd32vw55x_cau.c ****     cau_parameter->in_length   = 0U;
  63              		.loc 1 81 5 is_stmt 1
  64              		.loc 1 81 32 is_stmt 0
  65 0018 232C0500 		sw	zero,24(a0)
  82:C:/Users/stapi/OneDrive/Desktop/GD32VW553/GD32VW55X_Wifi_BLE_SDK/GD32VW55x_RELEASE_V1.0.2/MSDK/plf/GD32VW55x_standard_peripheral/Source\gd32vw55x_cau.c ****     cau_parameter->aad         = 0U;
  66              		.loc 1 82 5 is_stmt 1
  67              		.loc 1 82 32 is_stmt 0
  68 001c 232E0500 		sw	zero,28(a0)
  83:C:/Users/stapi/OneDrive/Desktop/GD32VW553/GD32VW55X_Wifi_BLE_SDK/GD32VW55x_RELEASE_V1.0.2/MSDK/plf/GD32VW55x_standard_peripheral/Source\gd32vw55x_cau.c ****     cau_parameter->aad_size    = 0U;
  69              		.loc 1 83 5 is_stmt 1
  70              		.loc 1 83 32 is_stmt 0
  71 0020 23200502 		sw	zero,32(a0)
  84:C:/Users/stapi/OneDrive/Desktop/GD32VW553/GD32VW55X_Wifi_BLE_SDK/GD32VW55x_RELEASE_V1.0.2/MSDK/plf/GD32VW55x_standard_peripheral/Source\gd32vw55x_cau.c **** }
  72              		.loc 1 84 1
  73 0024 8280     		ret
  74              		.cfi_endproc
  75              	.LFE366:
  77              		.section	.text.cau_key_struct_para_init,"ax",@progbits
  78              		.align	1
  79              		.globl	cau_key_struct_para_init
  81              	cau_key_struct_para_init:
  82              	.LFB367:
  85:C:/Users/stapi/OneDrive/Desktop/GD32VW553/GD32VW55X_Wifi_BLE_SDK/GD32VW55x_RELEASE_V1.0.2/MSDK/plf/GD32VW55x_standard_peripheral/Source\gd32vw55x_cau.c **** 
  86:C:/Users/stapi/OneDrive/Desktop/GD32VW553/GD32VW55X_Wifi_BLE_SDK/GD32VW55x_RELEASE_V1.0.2/MSDK/plf/GD32VW55x_standard_peripheral/Source\gd32vw55x_cau.c **** /*!
  87:C:/Users/stapi/OneDrive/Desktop/GD32VW553/GD32VW55X_Wifi_BLE_SDK/GD32VW55x_RELEASE_V1.0.2/MSDK/plf/GD32VW55x_standard_peripheral/Source\gd32vw55x_cau.c ****     \brief      initialize the key parameter struct with the default values
  88:C:/Users/stapi/OneDrive/Desktop/GD32VW553/GD32VW55X_Wifi_BLE_SDK/GD32VW55x_RELEASE_V1.0.2/MSDK/plf/GD32VW55x_standard_peripheral/Source\gd32vw55x_cau.c ****     \param[in]  none
  89:C:/Users/stapi/OneDrive/Desktop/GD32VW553/GD32VW55X_Wifi_BLE_SDK/GD32VW55x_RELEASE_V1.0.2/MSDK/plf/GD32VW55x_standard_peripheral/Source\gd32vw55x_cau.c ****     \param[out] key_initpara:
  90:C:/Users/stapi/OneDrive/Desktop/GD32VW553/GD32VW55X_Wifi_BLE_SDK/GD32VW55x_RELEASE_V1.0.2/MSDK/plf/GD32VW55x_standard_peripheral/Source\gd32vw55x_cau.c ****                   key_0_high: key 0 high
  91:C:/Users/stapi/OneDrive/Desktop/GD32VW553/GD32VW55X_Wifi_BLE_SDK/GD32VW55x_RELEASE_V1.0.2/MSDK/plf/GD32VW55x_standard_peripheral/Source\gd32vw55x_cau.c ****                   key_0_low:  key 0 low
  92:C:/Users/stapi/OneDrive/Desktop/GD32VW553/GD32VW55X_Wifi_BLE_SDK/GD32VW55x_RELEASE_V1.0.2/MSDK/plf/GD32VW55x_standard_peripheral/Source\gd32vw55x_cau.c ****                   key_1_high: key 1 high
  93:C:/Users/stapi/OneDrive/Desktop/GD32VW553/GD32VW55X_Wifi_BLE_SDK/GD32VW55x_RELEASE_V1.0.2/MSDK/plf/GD32VW55x_standard_peripheral/Source\gd32vw55x_cau.c ****                   key_1_low:  key 1 low
  94:C:/Users/stapi/OneDrive/Desktop/GD32VW553/GD32VW55X_Wifi_BLE_SDK/GD32VW55x_RELEASE_V1.0.2/MSDK/plf/GD32VW55x_standard_peripheral/Source\gd32vw55x_cau.c ****                   key_2_high: key 2 high
  95:C:/Users/stapi/OneDrive/Desktop/GD32VW553/GD32VW55X_Wifi_BLE_SDK/GD32VW55x_RELEASE_V1.0.2/MSDK/plf/GD32VW55x_standard_peripheral/Source\gd32vw55x_cau.c ****                   key_2_low:  key 2 low
  96:C:/Users/stapi/OneDrive/Desktop/GD32VW553/GD32VW55X_Wifi_BLE_SDK/GD32VW55x_RELEASE_V1.0.2/MSDK/plf/GD32VW55x_standard_peripheral/Source\gd32vw55x_cau.c ****                   key_3_high: key 3 high
  97:C:/Users/stapi/OneDrive/Desktop/GD32VW553/GD32VW55X_Wifi_BLE_SDK/GD32VW55x_RELEASE_V1.0.2/MSDK/plf/GD32VW55x_standard_peripheral/Source\gd32vw55x_cau.c ****                   key_3_low:  key 3 low
  98:C:/Users/stapi/OneDrive/Desktop/GD32VW553/GD32VW55X_Wifi_BLE_SDK/GD32VW55x_RELEASE_V1.0.2/MSDK/plf/GD32VW55x_standard_peripheral/Source\gd32vw55x_cau.c ****     \retval     none
  99:C:/Users/stapi/OneDrive/Desktop/GD32VW553/GD32VW55X_Wifi_BLE_SDK/GD32VW55x_RELEASE_V1.0.2/MSDK/plf/GD32VW55x_standard_peripheral/Source\gd32vw55x_cau.c **** */
 100:C:/Users/stapi/OneDrive/Desktop/GD32VW553/GD32VW55X_Wifi_BLE_SDK/GD32VW55x_RELEASE_V1.0.2/MSDK/plf/GD32VW55x_standard_peripheral/Source\gd32vw55x_cau.c **** void cau_key_struct_para_init(cau_key_parameter_struct *key_initpara)
 101:C:/Users/stapi/OneDrive/Desktop/GD32VW553/GD32VW55X_Wifi_BLE_SDK/GD32VW55x_RELEASE_V1.0.2/MSDK/plf/GD32VW55x_standard_peripheral/Source\gd32vw55x_cau.c **** {
  83              		.loc 1 101 1 is_stmt 1
  84              		.cfi_startproc
  85              	.LVL3:
 102:C:/Users/stapi/OneDrive/Desktop/GD32VW553/GD32VW55X_Wifi_BLE_SDK/GD32VW55x_RELEASE_V1.0.2/MSDK/plf/GD32VW55x_standard_peripheral/Source\gd32vw55x_cau.c ****     /* set the key parameters struct with the default values */
 103:C:/Users/stapi/OneDrive/Desktop/GD32VW553/GD32VW55X_Wifi_BLE_SDK/GD32VW55x_RELEASE_V1.0.2/MSDK/plf/GD32VW55x_standard_peripheral/Source\gd32vw55x_cau.c ****     key_initpara->key_0_high   = 0U;
  86              		.loc 1 103 5
  87              		.loc 1 103 32 is_stmt 0
  88 0000 23200500 		sw	zero,0(a0)
 104:C:/Users/stapi/OneDrive/Desktop/GD32VW553/GD32VW55X_Wifi_BLE_SDK/GD32VW55x_RELEASE_V1.0.2/MSDK/plf/GD32VW55x_standard_peripheral/Source\gd32vw55x_cau.c ****     key_initpara->key_0_low    = 0U;
  89              		.loc 1 104 5 is_stmt 1
  90              		.loc 1 104 32 is_stmt 0
  91 0004 23220500 		sw	zero,4(a0)
 105:C:/Users/stapi/OneDrive/Desktop/GD32VW553/GD32VW55X_Wifi_BLE_SDK/GD32VW55x_RELEASE_V1.0.2/MSDK/plf/GD32VW55x_standard_peripheral/Source\gd32vw55x_cau.c ****     key_initpara->key_1_high   = 0U;
  92              		.loc 1 105 5 is_stmt 1
  93              		.loc 1 105 32 is_stmt 0
  94 0008 23240500 		sw	zero,8(a0)
 106:C:/Users/stapi/OneDrive/Desktop/GD32VW553/GD32VW55X_Wifi_BLE_SDK/GD32VW55x_RELEASE_V1.0.2/MSDK/plf/GD32VW55x_standard_peripheral/Source\gd32vw55x_cau.c ****     key_initpara->key_1_low    = 0U;
  95              		.loc 1 106 5 is_stmt 1
  96              		.loc 1 106 32 is_stmt 0
  97 000c 23260500 		sw	zero,12(a0)
 107:C:/Users/stapi/OneDrive/Desktop/GD32VW553/GD32VW55X_Wifi_BLE_SDK/GD32VW55x_RELEASE_V1.0.2/MSDK/plf/GD32VW55x_standard_peripheral/Source\gd32vw55x_cau.c ****     key_initpara->key_2_high   = 0U;
  98              		.loc 1 107 5 is_stmt 1
  99              		.loc 1 107 32 is_stmt 0
 100 0010 23280500 		sw	zero,16(a0)
 108:C:/Users/stapi/OneDrive/Desktop/GD32VW553/GD32VW55X_Wifi_BLE_SDK/GD32VW55x_RELEASE_V1.0.2/MSDK/plf/GD32VW55x_standard_peripheral/Source\gd32vw55x_cau.c ****     key_initpara->key_2_low    = 0U;
 101              		.loc 1 108 5 is_stmt 1
 102              		.loc 1 108 32 is_stmt 0
 103 0014 232A0500 		sw	zero,20(a0)
 109:C:/Users/stapi/OneDrive/Desktop/GD32VW553/GD32VW55X_Wifi_BLE_SDK/GD32VW55x_RELEASE_V1.0.2/MSDK/plf/GD32VW55x_standard_peripheral/Source\gd32vw55x_cau.c ****     key_initpara->key_3_high   = 0U;
 104              		.loc 1 109 5 is_stmt 1
 105              		.loc 1 109 32 is_stmt 0
 106 0018 232C0500 		sw	zero,24(a0)
 110:C:/Users/stapi/OneDrive/Desktop/GD32VW553/GD32VW55X_Wifi_BLE_SDK/GD32VW55x_RELEASE_V1.0.2/MSDK/plf/GD32VW55x_standard_peripheral/Source\gd32vw55x_cau.c ****     key_initpara->key_3_low    = 0U;
 107              		.loc 1 110 5 is_stmt 1
 108              		.loc 1 110 32 is_stmt 0
 109 001c 232E0500 		sw	zero,28(a0)
 111:C:/Users/stapi/OneDrive/Desktop/GD32VW553/GD32VW55X_Wifi_BLE_SDK/GD32VW55x_RELEASE_V1.0.2/MSDK/plf/GD32VW55x_standard_peripheral/Source\gd32vw55x_cau.c **** }
 110              		.loc 1 111 1
 111 0020 8280     		ret
 112              		.cfi_endproc
 113              	.LFE367:
 115              		.section	.text.cau_iv_struct_para_init,"ax",@progbits
 116              		.align	1
 117              		.globl	cau_iv_struct_para_init
 119              	cau_iv_struct_para_init:
 120              	.LFB368:
 112:C:/Users/stapi/OneDrive/Desktop/GD32VW553/GD32VW55X_Wifi_BLE_SDK/GD32VW55x_RELEASE_V1.0.2/MSDK/plf/GD32VW55x_standard_peripheral/Source\gd32vw55x_cau.c **** 
 113:C:/Users/stapi/OneDrive/Desktop/GD32VW553/GD32VW55X_Wifi_BLE_SDK/GD32VW55x_RELEASE_V1.0.2/MSDK/plf/GD32VW55x_standard_peripheral/Source\gd32vw55x_cau.c **** /*!
 114:C:/Users/stapi/OneDrive/Desktop/GD32VW553/GD32VW55X_Wifi_BLE_SDK/GD32VW55x_RELEASE_V1.0.2/MSDK/plf/GD32VW55x_standard_peripheral/Source\gd32vw55x_cau.c ****     \brief      initialize the vectors parameter struct with the default values
 115:C:/Users/stapi/OneDrive/Desktop/GD32VW553/GD32VW55X_Wifi_BLE_SDK/GD32VW55x_RELEASE_V1.0.2/MSDK/plf/GD32VW55x_standard_peripheral/Source\gd32vw55x_cau.c ****     \param[in]  none
 116:C:/Users/stapi/OneDrive/Desktop/GD32VW553/GD32VW55X_Wifi_BLE_SDK/GD32VW55x_RELEASE_V1.0.2/MSDK/plf/GD32VW55x_standard_peripheral/Source\gd32vw55x_cau.c ****     \param[out] iv_initpara:
 117:C:/Users/stapi/OneDrive/Desktop/GD32VW553/GD32VW55X_Wifi_BLE_SDK/GD32VW55x_RELEASE_V1.0.2/MSDK/plf/GD32VW55x_standard_peripheral/Source\gd32vw55x_cau.c ****                   iv_0_high: init vector 0 high
 118:C:/Users/stapi/OneDrive/Desktop/GD32VW553/GD32VW55X_Wifi_BLE_SDK/GD32VW55x_RELEASE_V1.0.2/MSDK/plf/GD32VW55x_standard_peripheral/Source\gd32vw55x_cau.c ****                   iv_0_low:  init vector 0 low
 119:C:/Users/stapi/OneDrive/Desktop/GD32VW553/GD32VW55X_Wifi_BLE_SDK/GD32VW55x_RELEASE_V1.0.2/MSDK/plf/GD32VW55x_standard_peripheral/Source\gd32vw55x_cau.c ****                   iv_1_high: init vector 1 high
 120:C:/Users/stapi/OneDrive/Desktop/GD32VW553/GD32VW55X_Wifi_BLE_SDK/GD32VW55x_RELEASE_V1.0.2/MSDK/plf/GD32VW55x_standard_peripheral/Source\gd32vw55x_cau.c ****                   iv_1_low:  init vector 1 low
 121:C:/Users/stapi/OneDrive/Desktop/GD32VW553/GD32VW55X_Wifi_BLE_SDK/GD32VW55x_RELEASE_V1.0.2/MSDK/plf/GD32VW55x_standard_peripheral/Source\gd32vw55x_cau.c ****     \retval     none
 122:C:/Users/stapi/OneDrive/Desktop/GD32VW553/GD32VW55X_Wifi_BLE_SDK/GD32VW55x_RELEASE_V1.0.2/MSDK/plf/GD32VW55x_standard_peripheral/Source\gd32vw55x_cau.c **** */
 123:C:/Users/stapi/OneDrive/Desktop/GD32VW553/GD32VW55X_Wifi_BLE_SDK/GD32VW55x_RELEASE_V1.0.2/MSDK/plf/GD32VW55x_standard_peripheral/Source\gd32vw55x_cau.c **** void cau_iv_struct_para_init(cau_iv_parameter_struct *iv_initpara)
 124:C:/Users/stapi/OneDrive/Desktop/GD32VW553/GD32VW55X_Wifi_BLE_SDK/GD32VW55x_RELEASE_V1.0.2/MSDK/plf/GD32VW55x_standard_peripheral/Source\gd32vw55x_cau.c **** {
 121              		.loc 1 124 1 is_stmt 1
 122              		.cfi_startproc
 123              	.LVL4:
 125:C:/Users/stapi/OneDrive/Desktop/GD32VW553/GD32VW55X_Wifi_BLE_SDK/GD32VW55x_RELEASE_V1.0.2/MSDK/plf/GD32VW55x_standard_peripheral/Source\gd32vw55x_cau.c ****     /* set the vectors parameters struct with the default values */
 126:C:/Users/stapi/OneDrive/Desktop/GD32VW553/GD32VW55X_Wifi_BLE_SDK/GD32VW55x_RELEASE_V1.0.2/MSDK/plf/GD32VW55x_standard_peripheral/Source\gd32vw55x_cau.c ****     iv_initpara->iv_0_high   = 0U;
 124              		.loc 1 126 5
 125              		.loc 1 126 30 is_stmt 0
 126 0000 23200500 		sw	zero,0(a0)
 127:C:/Users/stapi/OneDrive/Desktop/GD32VW553/GD32VW55X_Wifi_BLE_SDK/GD32VW55x_RELEASE_V1.0.2/MSDK/plf/GD32VW55x_standard_peripheral/Source\gd32vw55x_cau.c ****     iv_initpara->iv_0_low    = 0U;
 127              		.loc 1 127 5 is_stmt 1
 128              		.loc 1 127 30 is_stmt 0
 129 0004 23220500 		sw	zero,4(a0)
 128:C:/Users/stapi/OneDrive/Desktop/GD32VW553/GD32VW55X_Wifi_BLE_SDK/GD32VW55x_RELEASE_V1.0.2/MSDK/plf/GD32VW55x_standard_peripheral/Source\gd32vw55x_cau.c ****     iv_initpara->iv_1_high   = 0U;
 130              		.loc 1 128 5 is_stmt 1
 131              		.loc 1 128 30 is_stmt 0
 132 0008 23240500 		sw	zero,8(a0)
 129:C:/Users/stapi/OneDrive/Desktop/GD32VW553/GD32VW55X_Wifi_BLE_SDK/GD32VW55x_RELEASE_V1.0.2/MSDK/plf/GD32VW55x_standard_peripheral/Source\gd32vw55x_cau.c ****     iv_initpara->iv_1_low    = 0U;
 133              		.loc 1 129 5 is_stmt 1
 134              		.loc 1 129 30 is_stmt 0
 135 000c 23260500 		sw	zero,12(a0)
 130:C:/Users/stapi/OneDrive/Desktop/GD32VW553/GD32VW55X_Wifi_BLE_SDK/GD32VW55x_RELEASE_V1.0.2/MSDK/plf/GD32VW55x_standard_peripheral/Source\gd32vw55x_cau.c **** }
 136              		.loc 1 130 1
 137 0010 8280     		ret
 138              		.cfi_endproc
 139              	.LFE368:
 141              		.section	.text.cau_context_struct_para_init,"ax",@progbits
 142              		.align	1
 143              		.globl	cau_context_struct_para_init
 145              	cau_context_struct_para_init:
 146              	.LFB369:
 131:C:/Users/stapi/OneDrive/Desktop/GD32VW553/GD32VW55X_Wifi_BLE_SDK/GD32VW55x_RELEASE_V1.0.2/MSDK/plf/GD32VW55x_standard_peripheral/Source\gd32vw55x_cau.c **** 
 132:C:/Users/stapi/OneDrive/Desktop/GD32VW553/GD32VW55X_Wifi_BLE_SDK/GD32VW55x_RELEASE_V1.0.2/MSDK/plf/GD32VW55x_standard_peripheral/Source\gd32vw55x_cau.c **** /*!
 133:C:/Users/stapi/OneDrive/Desktop/GD32VW553/GD32VW55X_Wifi_BLE_SDK/GD32VW55x_RELEASE_V1.0.2/MSDK/plf/GD32VW55x_standard_peripheral/Source\gd32vw55x_cau.c ****     \brief      initialize the context parameter struct with the default values
 134:C:/Users/stapi/OneDrive/Desktop/GD32VW553/GD32VW55X_Wifi_BLE_SDK/GD32VW55x_RELEASE_V1.0.2/MSDK/plf/GD32VW55x_standard_peripheral/Source\gd32vw55x_cau.c ****     \param[in]  none
 135:C:/Users/stapi/OneDrive/Desktop/GD32VW553/GD32VW55X_Wifi_BLE_SDK/GD32VW55x_RELEASE_V1.0.2/MSDK/plf/GD32VW55x_standard_peripheral/Source\gd32vw55x_cau.c ****     \param[out] cau_context:
 136:C:/Users/stapi/OneDrive/Desktop/GD32VW553/GD32VW55X_Wifi_BLE_SDK/GD32VW55x_RELEASE_V1.0.2/MSDK/plf/GD32VW55x_standard_peripheral/Source\gd32vw55x_cau.c ****                   ctl_config: current configuration
 137:C:/Users/stapi/OneDrive/Desktop/GD32VW553/GD32VW55X_Wifi_BLE_SDK/GD32VW55x_RELEASE_V1.0.2/MSDK/plf/GD32VW55x_standard_peripheral/Source\gd32vw55x_cau.c ****                   iv_0_high: init vector 0 high
 138:C:/Users/stapi/OneDrive/Desktop/GD32VW553/GD32VW55X_Wifi_BLE_SDK/GD32VW55x_RELEASE_V1.0.2/MSDK/plf/GD32VW55x_standard_peripheral/Source\gd32vw55x_cau.c ****                   iv_0_low:  init vector 0 low
 139:C:/Users/stapi/OneDrive/Desktop/GD32VW553/GD32VW55X_Wifi_BLE_SDK/GD32VW55x_RELEASE_V1.0.2/MSDK/plf/GD32VW55x_standard_peripheral/Source\gd32vw55x_cau.c ****                   iv_1_high: init vector 1 high
 140:C:/Users/stapi/OneDrive/Desktop/GD32VW553/GD32VW55X_Wifi_BLE_SDK/GD32VW55x_RELEASE_V1.0.2/MSDK/plf/GD32VW55x_standard_peripheral/Source\gd32vw55x_cau.c ****                   iv_1_low:  init vector 1 low
 141:C:/Users/stapi/OneDrive/Desktop/GD32VW553/GD32VW55X_Wifi_BLE_SDK/GD32VW55x_RELEASE_V1.0.2/MSDK/plf/GD32VW55x_standard_peripheral/Source\gd32vw55x_cau.c ****                   key_0_high: key 0 high
 142:C:/Users/stapi/OneDrive/Desktop/GD32VW553/GD32VW55X_Wifi_BLE_SDK/GD32VW55x_RELEASE_V1.0.2/MSDK/plf/GD32VW55x_standard_peripheral/Source\gd32vw55x_cau.c ****                   key_0_low:  key 0 low
 143:C:/Users/stapi/OneDrive/Desktop/GD32VW553/GD32VW55X_Wifi_BLE_SDK/GD32VW55x_RELEASE_V1.0.2/MSDK/plf/GD32VW55x_standard_peripheral/Source\gd32vw55x_cau.c ****                   key_1_high: key 1 high
 144:C:/Users/stapi/OneDrive/Desktop/GD32VW553/GD32VW55X_Wifi_BLE_SDK/GD32VW55x_RELEASE_V1.0.2/MSDK/plf/GD32VW55x_standard_peripheral/Source\gd32vw55x_cau.c ****                   key_1_low:  key 1 low
 145:C:/Users/stapi/OneDrive/Desktop/GD32VW553/GD32VW55X_Wifi_BLE_SDK/GD32VW55x_RELEASE_V1.0.2/MSDK/plf/GD32VW55x_standard_peripheral/Source\gd32vw55x_cau.c ****                   key_2_high: key 2 high
 146:C:/Users/stapi/OneDrive/Desktop/GD32VW553/GD32VW55X_Wifi_BLE_SDK/GD32VW55x_RELEASE_V1.0.2/MSDK/plf/GD32VW55x_standard_peripheral/Source\gd32vw55x_cau.c ****                   key_2_low:  key 2 low
 147:C:/Users/stapi/OneDrive/Desktop/GD32VW553/GD32VW55X_Wifi_BLE_SDK/GD32VW55x_RELEASE_V1.0.2/MSDK/plf/GD32VW55x_standard_peripheral/Source\gd32vw55x_cau.c ****                   key_3_high: key 3 high
 148:C:/Users/stapi/OneDrive/Desktop/GD32VW553/GD32VW55X_Wifi_BLE_SDK/GD32VW55x_RELEASE_V1.0.2/MSDK/plf/GD32VW55x_standard_peripheral/Source\gd32vw55x_cau.c ****                   key_3_low:  key 3 low
 149:C:/Users/stapi/OneDrive/Desktop/GD32VW553/GD32VW55X_Wifi_BLE_SDK/GD32VW55x_RELEASE_V1.0.2/MSDK/plf/GD32VW55x_standard_peripheral/Source\gd32vw55x_cau.c ****                   gcmccmctxs[8]: GCM or CCM mode context switch
 150:C:/Users/stapi/OneDrive/Desktop/GD32VW553/GD32VW55X_Wifi_BLE_SDK/GD32VW55x_RELEASE_V1.0.2/MSDK/plf/GD32VW55x_standard_peripheral/Source\gd32vw55x_cau.c ****                   gcmctxs[8]: GCM mode context switch
 151:C:/Users/stapi/OneDrive/Desktop/GD32VW553/GD32VW55X_Wifi_BLE_SDK/GD32VW55x_RELEASE_V1.0.2/MSDK/plf/GD32VW55x_standard_peripheral/Source\gd32vw55x_cau.c ****     \retval     none
 152:C:/Users/stapi/OneDrive/Desktop/GD32VW553/GD32VW55X_Wifi_BLE_SDK/GD32VW55x_RELEASE_V1.0.2/MSDK/plf/GD32VW55x_standard_peripheral/Source\gd32vw55x_cau.c **** */
 153:C:/Users/stapi/OneDrive/Desktop/GD32VW553/GD32VW55X_Wifi_BLE_SDK/GD32VW55x_RELEASE_V1.0.2/MSDK/plf/GD32VW55x_standard_peripheral/Source\gd32vw55x_cau.c **** void cau_context_struct_para_init(cau_context_parameter_struct *cau_context)
 154:C:/Users/stapi/OneDrive/Desktop/GD32VW553/GD32VW55X_Wifi_BLE_SDK/GD32VW55x_RELEASE_V1.0.2/MSDK/plf/GD32VW55x_standard_peripheral/Source\gd32vw55x_cau.c **** {
 147              		.loc 1 154 1 is_stmt 1
 148              		.cfi_startproc
 149              	.LVL5:
 155:C:/Users/stapi/OneDrive/Desktop/GD32VW553/GD32VW55X_Wifi_BLE_SDK/GD32VW55x_RELEASE_V1.0.2/MSDK/plf/GD32VW55x_standard_peripheral/Source\gd32vw55x_cau.c ****     cau_context->ctl_config = 0U;
 150              		.loc 1 155 5
 151              		.loc 1 155 29 is_stmt 0
 152 0000 23200500 		sw	zero,0(a0)
 156:C:/Users/stapi/OneDrive/Desktop/GD32VW553/GD32VW55X_Wifi_BLE_SDK/GD32VW55x_RELEASE_V1.0.2/MSDK/plf/GD32VW55x_standard_peripheral/Source\gd32vw55x_cau.c **** 
 157:C:/Users/stapi/OneDrive/Desktop/GD32VW553/GD32VW55X_Wifi_BLE_SDK/GD32VW55x_RELEASE_V1.0.2/MSDK/plf/GD32VW55x_standard_peripheral/Source\gd32vw55x_cau.c ****     /* set the vectors parameters with the default values */
 158:C:/Users/stapi/OneDrive/Desktop/GD32VW553/GD32VW55X_Wifi_BLE_SDK/GD32VW55x_RELEASE_V1.0.2/MSDK/plf/GD32VW55x_standard_peripheral/Source\gd32vw55x_cau.c ****     cau_context->iv_0_high  = 0U;
 153              		.loc 1 158 5 is_stmt 1
 154              		.loc 1 158 29 is_stmt 0
 155 0004 23220500 		sw	zero,4(a0)
 159:C:/Users/stapi/OneDrive/Desktop/GD32VW553/GD32VW55X_Wifi_BLE_SDK/GD32VW55x_RELEASE_V1.0.2/MSDK/plf/GD32VW55x_standard_peripheral/Source\gd32vw55x_cau.c ****     cau_context->iv_0_low   = 0U;
 156              		.loc 1 159 5 is_stmt 1
 157              		.loc 1 159 29 is_stmt 0
 158 0008 23240500 		sw	zero,8(a0)
 160:C:/Users/stapi/OneDrive/Desktop/GD32VW553/GD32VW55X_Wifi_BLE_SDK/GD32VW55x_RELEASE_V1.0.2/MSDK/plf/GD32VW55x_standard_peripheral/Source\gd32vw55x_cau.c ****     cau_context->iv_1_high  = 0U;
 159              		.loc 1 160 5 is_stmt 1
 160              		.loc 1 160 29 is_stmt 0
 161 000c 23260500 		sw	zero,12(a0)
 161:C:/Users/stapi/OneDrive/Desktop/GD32VW553/GD32VW55X_Wifi_BLE_SDK/GD32VW55x_RELEASE_V1.0.2/MSDK/plf/GD32VW55x_standard_peripheral/Source\gd32vw55x_cau.c ****     cau_context->iv_1_low   = 0U;
 162              		.loc 1 161 5 is_stmt 1
 163              		.loc 1 161 29 is_stmt 0
 164 0010 23280500 		sw	zero,16(a0)
 162:C:/Users/stapi/OneDrive/Desktop/GD32VW553/GD32VW55X_Wifi_BLE_SDK/GD32VW55x_RELEASE_V1.0.2/MSDK/plf/GD32VW55x_standard_peripheral/Source\gd32vw55x_cau.c **** 
 163:C:/Users/stapi/OneDrive/Desktop/GD32VW553/GD32VW55X_Wifi_BLE_SDK/GD32VW55x_RELEASE_V1.0.2/MSDK/plf/GD32VW55x_standard_peripheral/Source\gd32vw55x_cau.c ****     /* set the key parameters with the default values */
 164:C:/Users/stapi/OneDrive/Desktop/GD32VW553/GD32VW55X_Wifi_BLE_SDK/GD32VW55x_RELEASE_V1.0.2/MSDK/plf/GD32VW55x_standard_peripheral/Source\gd32vw55x_cau.c ****     cau_context->key_0_high = 0U;
 165              		.loc 1 164 5 is_stmt 1
 166              		.loc 1 164 29 is_stmt 0
 167 0014 232A0500 		sw	zero,20(a0)
 165:C:/Users/stapi/OneDrive/Desktop/GD32VW553/GD32VW55X_Wifi_BLE_SDK/GD32VW55x_RELEASE_V1.0.2/MSDK/plf/GD32VW55x_standard_peripheral/Source\gd32vw55x_cau.c ****     cau_context->key_0_low  = 0U;
 168              		.loc 1 165 5 is_stmt 1
 169              		.loc 1 165 29 is_stmt 0
 170 0018 232C0500 		sw	zero,24(a0)
 166:C:/Users/stapi/OneDrive/Desktop/GD32VW553/GD32VW55X_Wifi_BLE_SDK/GD32VW55x_RELEASE_V1.0.2/MSDK/plf/GD32VW55x_standard_peripheral/Source\gd32vw55x_cau.c ****     cau_context->key_1_high = 0U;
 171              		.loc 1 166 5 is_stmt 1
 172              		.loc 1 166 29 is_stmt 0
 173 001c 232E0500 		sw	zero,28(a0)
 167:C:/Users/stapi/OneDrive/Desktop/GD32VW553/GD32VW55X_Wifi_BLE_SDK/GD32VW55x_RELEASE_V1.0.2/MSDK/plf/GD32VW55x_standard_peripheral/Source\gd32vw55x_cau.c ****     cau_context->key_1_low  = 0U;
 174              		.loc 1 167 5 is_stmt 1
 175              		.loc 1 167 29 is_stmt 0
 176 0020 23200502 		sw	zero,32(a0)
 168:C:/Users/stapi/OneDrive/Desktop/GD32VW553/GD32VW55X_Wifi_BLE_SDK/GD32VW55x_RELEASE_V1.0.2/MSDK/plf/GD32VW55x_standard_peripheral/Source\gd32vw55x_cau.c ****     cau_context->key_2_high = 0U;
 177              		.loc 1 168 5 is_stmt 1
 178              		.loc 1 168 29 is_stmt 0
 179 0024 23220502 		sw	zero,36(a0)
 169:C:/Users/stapi/OneDrive/Desktop/GD32VW553/GD32VW55X_Wifi_BLE_SDK/GD32VW55x_RELEASE_V1.0.2/MSDK/plf/GD32VW55x_standard_peripheral/Source\gd32vw55x_cau.c ****     cau_context->key_2_low  = 0U;
 180              		.loc 1 169 5 is_stmt 1
 181              		.loc 1 169 29 is_stmt 0
 182 0028 23240502 		sw	zero,40(a0)
 170:C:/Users/stapi/OneDrive/Desktop/GD32VW553/GD32VW55X_Wifi_BLE_SDK/GD32VW55x_RELEASE_V1.0.2/MSDK/plf/GD32VW55x_standard_peripheral/Source\gd32vw55x_cau.c ****     cau_context->key_3_high = 0U;
 183              		.loc 1 170 5 is_stmt 1
 184              		.loc 1 170 29 is_stmt 0
 185 002c 23260502 		sw	zero,44(a0)
 171:C:/Users/stapi/OneDrive/Desktop/GD32VW553/GD32VW55X_Wifi_BLE_SDK/GD32VW55x_RELEASE_V1.0.2/MSDK/plf/GD32VW55x_standard_peripheral/Source\gd32vw55x_cau.c ****     cau_context->key_3_low  = 0U;
 186              		.loc 1 171 5 is_stmt 1
 187              		.loc 1 171 29 is_stmt 0
 188 0030 23280502 		sw	zero,48(a0)
 172:C:/Users/stapi/OneDrive/Desktop/GD32VW553/GD32VW55X_Wifi_BLE_SDK/GD32VW55x_RELEASE_V1.0.2/MSDK/plf/GD32VW55x_standard_peripheral/Source\gd32vw55x_cau.c **** 
 173:C:/Users/stapi/OneDrive/Desktop/GD32VW553/GD32VW55X_Wifi_BLE_SDK/GD32VW55x_RELEASE_V1.0.2/MSDK/plf/GD32VW55x_standard_peripheral/Source\gd32vw55x_cau.c ****     /* set the context switch with the default values */
 174:C:/Users/stapi/OneDrive/Desktop/GD32VW553/GD32VW55X_Wifi_BLE_SDK/GD32VW55x_RELEASE_V1.0.2/MSDK/plf/GD32VW55x_standard_peripheral/Source\gd32vw55x_cau.c ****     cau_context->gcmccmctxs[0] = 0U;
 189              		.loc 1 174 5 is_stmt 1
 190              		.loc 1 174 32 is_stmt 0
 191 0034 232A0502 		sw	zero,52(a0)
 175:C:/Users/stapi/OneDrive/Desktop/GD32VW553/GD32VW55X_Wifi_BLE_SDK/GD32VW55x_RELEASE_V1.0.2/MSDK/plf/GD32VW55x_standard_peripheral/Source\gd32vw55x_cau.c ****     cau_context->gcmccmctxs[1] = 0U;
 192              		.loc 1 175 5 is_stmt 1
 193              		.loc 1 175 32 is_stmt 0
 194 0038 232C0502 		sw	zero,56(a0)
 176:C:/Users/stapi/OneDrive/Desktop/GD32VW553/GD32VW55X_Wifi_BLE_SDK/GD32VW55x_RELEASE_V1.0.2/MSDK/plf/GD32VW55x_standard_peripheral/Source\gd32vw55x_cau.c ****     cau_context->gcmccmctxs[2] = 0U;
 195              		.loc 1 176 5 is_stmt 1
 196              		.loc 1 176 32 is_stmt 0
 197 003c 232E0502 		sw	zero,60(a0)
 177:C:/Users/stapi/OneDrive/Desktop/GD32VW553/GD32VW55X_Wifi_BLE_SDK/GD32VW55x_RELEASE_V1.0.2/MSDK/plf/GD32VW55x_standard_peripheral/Source\gd32vw55x_cau.c ****     cau_context->gcmccmctxs[3] = 0U;
 198              		.loc 1 177 5 is_stmt 1
 199              		.loc 1 177 32 is_stmt 0
 200 0040 23200504 		sw	zero,64(a0)
 178:C:/Users/stapi/OneDrive/Desktop/GD32VW553/GD32VW55X_Wifi_BLE_SDK/GD32VW55x_RELEASE_V1.0.2/MSDK/plf/GD32VW55x_standard_peripheral/Source\gd32vw55x_cau.c ****     cau_context->gcmccmctxs[4] = 0U;
 201              		.loc 1 178 5 is_stmt 1
 202              		.loc 1 178 32 is_stmt 0
 203 0044 23220504 		sw	zero,68(a0)
 179:C:/Users/stapi/OneDrive/Desktop/GD32VW553/GD32VW55X_Wifi_BLE_SDK/GD32VW55x_RELEASE_V1.0.2/MSDK/plf/GD32VW55x_standard_peripheral/Source\gd32vw55x_cau.c ****     cau_context->gcmccmctxs[5] = 0U;
 204              		.loc 1 179 5 is_stmt 1
 205              		.loc 1 179 32 is_stmt 0
 206 0048 23240504 		sw	zero,72(a0)
 180:C:/Users/stapi/OneDrive/Desktop/GD32VW553/GD32VW55X_Wifi_BLE_SDK/GD32VW55x_RELEASE_V1.0.2/MSDK/plf/GD32VW55x_standard_peripheral/Source\gd32vw55x_cau.c ****     cau_context->gcmccmctxs[6] = 0U;
 207              		.loc 1 180 5 is_stmt 1
 208              		.loc 1 180 32 is_stmt 0
 209 004c 23260504 		sw	zero,76(a0)
 181:C:/Users/stapi/OneDrive/Desktop/GD32VW553/GD32VW55X_Wifi_BLE_SDK/GD32VW55x_RELEASE_V1.0.2/MSDK/plf/GD32VW55x_standard_peripheral/Source\gd32vw55x_cau.c ****     cau_context->gcmccmctxs[7] = 0U;
 210              		.loc 1 181 5 is_stmt 1
 211              		.loc 1 181 32 is_stmt 0
 212 0050 23280504 		sw	zero,80(a0)
 182:C:/Users/stapi/OneDrive/Desktop/GD32VW553/GD32VW55X_Wifi_BLE_SDK/GD32VW55x_RELEASE_V1.0.2/MSDK/plf/GD32VW55x_standard_peripheral/Source\gd32vw55x_cau.c **** 
 183:C:/Users/stapi/OneDrive/Desktop/GD32VW553/GD32VW55X_Wifi_BLE_SDK/GD32VW55x_RELEASE_V1.0.2/MSDK/plf/GD32VW55x_standard_peripheral/Source\gd32vw55x_cau.c ****     cau_context->gcmctxs[0] = 0U;
 213              		.loc 1 183 5 is_stmt 1
 214              		.loc 1 183 29 is_stmt 0
 215 0054 232A0504 		sw	zero,84(a0)
 184:C:/Users/stapi/OneDrive/Desktop/GD32VW553/GD32VW55X_Wifi_BLE_SDK/GD32VW55x_RELEASE_V1.0.2/MSDK/plf/GD32VW55x_standard_peripheral/Source\gd32vw55x_cau.c ****     cau_context->gcmctxs[1] = 0U;
 216              		.loc 1 184 5 is_stmt 1
 217              		.loc 1 184 29 is_stmt 0
 218 0058 232C0504 		sw	zero,88(a0)
 185:C:/Users/stapi/OneDrive/Desktop/GD32VW553/GD32VW55X_Wifi_BLE_SDK/GD32VW55x_RELEASE_V1.0.2/MSDK/plf/GD32VW55x_standard_peripheral/Source\gd32vw55x_cau.c ****     cau_context->gcmctxs[2] = 0U;
 219              		.loc 1 185 5 is_stmt 1
 220              		.loc 1 185 29 is_stmt 0
 221 005c 232E0504 		sw	zero,92(a0)
 186:C:/Users/stapi/OneDrive/Desktop/GD32VW553/GD32VW55X_Wifi_BLE_SDK/GD32VW55x_RELEASE_V1.0.2/MSDK/plf/GD32VW55x_standard_peripheral/Source\gd32vw55x_cau.c ****     cau_context->gcmctxs[3] = 0U;
 222              		.loc 1 186 5 is_stmt 1
 223              		.loc 1 186 29 is_stmt 0
 224 0060 23200506 		sw	zero,96(a0)
 187:C:/Users/stapi/OneDrive/Desktop/GD32VW553/GD32VW55X_Wifi_BLE_SDK/GD32VW55x_RELEASE_V1.0.2/MSDK/plf/GD32VW55x_standard_peripheral/Source\gd32vw55x_cau.c ****     cau_context->gcmctxs[4] = 0U;
 225              		.loc 1 187 5 is_stmt 1
 226              		.loc 1 187 29 is_stmt 0
 227 0064 23220506 		sw	zero,100(a0)
 188:C:/Users/stapi/OneDrive/Desktop/GD32VW553/GD32VW55X_Wifi_BLE_SDK/GD32VW55x_RELEASE_V1.0.2/MSDK/plf/GD32VW55x_standard_peripheral/Source\gd32vw55x_cau.c ****     cau_context->gcmctxs[5] = 0U;
 228              		.loc 1 188 5 is_stmt 1
 229              		.loc 1 188 29 is_stmt 0
 230 0068 23240506 		sw	zero,104(a0)
 189:C:/Users/stapi/OneDrive/Desktop/GD32VW553/GD32VW55X_Wifi_BLE_SDK/GD32VW55x_RELEASE_V1.0.2/MSDK/plf/GD32VW55x_standard_peripheral/Source\gd32vw55x_cau.c ****     cau_context->gcmctxs[6] = 0U;
 231              		.loc 1 189 5 is_stmt 1
 232              		.loc 1 189 29 is_stmt 0
 233 006c 23260506 		sw	zero,108(a0)
 190:C:/Users/stapi/OneDrive/Desktop/GD32VW553/GD32VW55X_Wifi_BLE_SDK/GD32VW55x_RELEASE_V1.0.2/MSDK/plf/GD32VW55x_standard_peripheral/Source\gd32vw55x_cau.c ****     cau_context->gcmctxs[7] = 0U;
 234              		.loc 1 190 5 is_stmt 1
 235              		.loc 1 190 29 is_stmt 0
 236 0070 23280506 		sw	zero,112(a0)
 191:C:/Users/stapi/OneDrive/Desktop/GD32VW553/GD32VW55X_Wifi_BLE_SDK/GD32VW55x_RELEASE_V1.0.2/MSDK/plf/GD32VW55x_standard_peripheral/Source\gd32vw55x_cau.c **** }
 237              		.loc 1 191 1
 238 0074 8280     		ret
 239              		.cfi_endproc
 240              	.LFE369:
 242              		.section	.text.cau_enable,"ax",@progbits
 243              		.align	1
 244              		.globl	cau_enable
 246              	cau_enable:
 247              	.LFB370:
 192:C:/Users/stapi/OneDrive/Desktop/GD32VW553/GD32VW55X_Wifi_BLE_SDK/GD32VW55x_RELEASE_V1.0.2/MSDK/plf/GD32VW55x_standard_peripheral/Source\gd32vw55x_cau.c **** 
 193:C:/Users/stapi/OneDrive/Desktop/GD32VW553/GD32VW55X_Wifi_BLE_SDK/GD32VW55x_RELEASE_V1.0.2/MSDK/plf/GD32VW55x_standard_peripheral/Source\gd32vw55x_cau.c **** /*!
 194:C:/Users/stapi/OneDrive/Desktop/GD32VW553/GD32VW55X_Wifi_BLE_SDK/GD32VW55x_RELEASE_V1.0.2/MSDK/plf/GD32VW55x_standard_peripheral/Source\gd32vw55x_cau.c ****     \brief      enable the CAU peripheral
 195:C:/Users/stapi/OneDrive/Desktop/GD32VW553/GD32VW55X_Wifi_BLE_SDK/GD32VW55x_RELEASE_V1.0.2/MSDK/plf/GD32VW55x_standard_peripheral/Source\gd32vw55x_cau.c ****     \param[in]  none
 196:C:/Users/stapi/OneDrive/Desktop/GD32VW553/GD32VW55X_Wifi_BLE_SDK/GD32VW55x_RELEASE_V1.0.2/MSDK/plf/GD32VW55x_standard_peripheral/Source\gd32vw55x_cau.c ****     \param[out] none
 197:C:/Users/stapi/OneDrive/Desktop/GD32VW553/GD32VW55X_Wifi_BLE_SDK/GD32VW55x_RELEASE_V1.0.2/MSDK/plf/GD32VW55x_standard_peripheral/Source\gd32vw55x_cau.c ****     \retval     none
 198:C:/Users/stapi/OneDrive/Desktop/GD32VW553/GD32VW55X_Wifi_BLE_SDK/GD32VW55x_RELEASE_V1.0.2/MSDK/plf/GD32VW55x_standard_peripheral/Source\gd32vw55x_cau.c **** */
 199:C:/Users/stapi/OneDrive/Desktop/GD32VW553/GD32VW55X_Wifi_BLE_SDK/GD32VW55x_RELEASE_V1.0.2/MSDK/plf/GD32VW55x_standard_peripheral/Source\gd32vw55x_cau.c **** void cau_enable(void)
 200:C:/Users/stapi/OneDrive/Desktop/GD32VW553/GD32VW55X_Wifi_BLE_SDK/GD32VW55x_RELEASE_V1.0.2/MSDK/plf/GD32VW55x_standard_peripheral/Source\gd32vw55x_cau.c **** {
 248              		.loc 1 200 1 is_stmt 1
 249              		.cfi_startproc
 201:C:/Users/stapi/OneDrive/Desktop/GD32VW553/GD32VW55X_Wifi_BLE_SDK/GD32VW55x_RELEASE_V1.0.2/MSDK/plf/GD32VW55x_standard_peripheral/Source\gd32vw55x_cau.c ****     /* enable the CAU processor */
 202:C:/Users/stapi/OneDrive/Desktop/GD32VW553/GD32VW55X_Wifi_BLE_SDK/GD32VW55x_RELEASE_V1.0.2/MSDK/plf/GD32VW55x_standard_peripheral/Source\gd32vw55x_cau.c ****     CAU_CTL |= CAU_CTL_CAUEN;
 250              		.loc 1 202 5
 251              		.loc 1 202 13 is_stmt 0
 252 0000 3707064C 		li	a4,1275461632
 253 0004 1C43     		lw	a5,0(a4)
 254 0006 9397F728 		bseti	a5,a5,15
 255 000a 1CC3     		sw	a5,0(a4)
 203:C:/Users/stapi/OneDrive/Desktop/GD32VW553/GD32VW55X_Wifi_BLE_SDK/GD32VW55x_RELEASE_V1.0.2/MSDK/plf/GD32VW55x_standard_peripheral/Source\gd32vw55x_cau.c **** }
 256              		.loc 1 203 1
 257 000c 8280     		ret
 258              		.cfi_endproc
 259              	.LFE370:
 261              		.section	.text.cau_disable,"ax",@progbits
 262              		.align	1
 263              		.globl	cau_disable
 265              	cau_disable:
 266              	.LFB371:
 204:C:/Users/stapi/OneDrive/Desktop/GD32VW553/GD32VW55X_Wifi_BLE_SDK/GD32VW55x_RELEASE_V1.0.2/MSDK/plf/GD32VW55x_standard_peripheral/Source\gd32vw55x_cau.c **** 
 205:C:/Users/stapi/OneDrive/Desktop/GD32VW553/GD32VW55X_Wifi_BLE_SDK/GD32VW55x_RELEASE_V1.0.2/MSDK/plf/GD32VW55x_standard_peripheral/Source\gd32vw55x_cau.c **** /*!
 206:C:/Users/stapi/OneDrive/Desktop/GD32VW553/GD32VW55X_Wifi_BLE_SDK/GD32VW55x_RELEASE_V1.0.2/MSDK/plf/GD32VW55x_standard_peripheral/Source\gd32vw55x_cau.c ****     \brief      disable the CAU peripheral
 207:C:/Users/stapi/OneDrive/Desktop/GD32VW553/GD32VW55X_Wifi_BLE_SDK/GD32VW55x_RELEASE_V1.0.2/MSDK/plf/GD32VW55x_standard_peripheral/Source\gd32vw55x_cau.c ****     \param[in]  none
 208:C:/Users/stapi/OneDrive/Desktop/GD32VW553/GD32VW55X_Wifi_BLE_SDK/GD32VW55x_RELEASE_V1.0.2/MSDK/plf/GD32VW55x_standard_peripheral/Source\gd32vw55x_cau.c ****     \param[out] none
 209:C:/Users/stapi/OneDrive/Desktop/GD32VW553/GD32VW55X_Wifi_BLE_SDK/GD32VW55x_RELEASE_V1.0.2/MSDK/plf/GD32VW55x_standard_peripheral/Source\gd32vw55x_cau.c ****     \retval     none
 210:C:/Users/stapi/OneDrive/Desktop/GD32VW553/GD32VW55X_Wifi_BLE_SDK/GD32VW55x_RELEASE_V1.0.2/MSDK/plf/GD32VW55x_standard_peripheral/Source\gd32vw55x_cau.c **** */
 211:C:/Users/stapi/OneDrive/Desktop/GD32VW553/GD32VW55X_Wifi_BLE_SDK/GD32VW55x_RELEASE_V1.0.2/MSDK/plf/GD32VW55x_standard_peripheral/Source\gd32vw55x_cau.c **** void cau_disable(void)
 212:C:/Users/stapi/OneDrive/Desktop/GD32VW553/GD32VW55X_Wifi_BLE_SDK/GD32VW55x_RELEASE_V1.0.2/MSDK/plf/GD32VW55x_standard_peripheral/Source\gd32vw55x_cau.c **** {
 267              		.loc 1 212 1 is_stmt 1
 268              		.cfi_startproc
 213:C:/Users/stapi/OneDrive/Desktop/GD32VW553/GD32VW55X_Wifi_BLE_SDK/GD32VW55x_RELEASE_V1.0.2/MSDK/plf/GD32VW55x_standard_peripheral/Source\gd32vw55x_cau.c ****     /* disable the CAU processor */
 214:C:/Users/stapi/OneDrive/Desktop/GD32VW553/GD32VW55X_Wifi_BLE_SDK/GD32VW55x_RELEASE_V1.0.2/MSDK/plf/GD32VW55x_standard_peripheral/Source\gd32vw55x_cau.c ****     CAU_CTL &= ~CAU_CTL_CAUEN;
 269              		.loc 1 214 5
 270              		.loc 1 214 13 is_stmt 0
 271 0000 3707064C 		li	a4,1275461632
 272 0004 1C43     		lw	a5,0(a4)
 273 0006 9397F748 		bclri	a5,a5,15
 274 000a 1CC3     		sw	a5,0(a4)
 215:C:/Users/stapi/OneDrive/Desktop/GD32VW553/GD32VW55X_Wifi_BLE_SDK/GD32VW55x_RELEASE_V1.0.2/MSDK/plf/GD32VW55x_standard_peripheral/Source\gd32vw55x_cau.c **** }
 275              		.loc 1 215 1
 276 000c 8280     		ret
 277              		.cfi_endproc
 278              	.LFE371:
 280              		.section	.text.cau_dma_enable,"ax",@progbits
 281              		.align	1
 282              		.globl	cau_dma_enable
 284              	cau_dma_enable:
 285              	.LFB372:
 216:C:/Users/stapi/OneDrive/Desktop/GD32VW553/GD32VW55X_Wifi_BLE_SDK/GD32VW55x_RELEASE_V1.0.2/MSDK/plf/GD32VW55x_standard_peripheral/Source\gd32vw55x_cau.c **** 
 217:C:/Users/stapi/OneDrive/Desktop/GD32VW553/GD32VW55X_Wifi_BLE_SDK/GD32VW55x_RELEASE_V1.0.2/MSDK/plf/GD32VW55x_standard_peripheral/Source\gd32vw55x_cau.c **** /*!
 218:C:/Users/stapi/OneDrive/Desktop/GD32VW553/GD32VW55X_Wifi_BLE_SDK/GD32VW55x_RELEASE_V1.0.2/MSDK/plf/GD32VW55x_standard_peripheral/Source\gd32vw55x_cau.c ****     \brief      enable the CAU DMA interface
 219:C:/Users/stapi/OneDrive/Desktop/GD32VW553/GD32VW55X_Wifi_BLE_SDK/GD32VW55x_RELEASE_V1.0.2/MSDK/plf/GD32VW55x_standard_peripheral/Source\gd32vw55x_cau.c ****     \param[in]  dma_req: specify the CAU DMA transfer request to be enabled
 220:C:/Users/stapi/OneDrive/Desktop/GD32VW553/GD32VW55X_Wifi_BLE_SDK/GD32VW55x_RELEASE_V1.0.2/MSDK/plf/GD32VW55x_standard_peripheral/Source\gd32vw55x_cau.c ****                 one or more parameters can be selected which are shown as below:
 221:C:/Users/stapi/OneDrive/Desktop/GD32VW553/GD32VW55X_Wifi_BLE_SDK/GD32VW55x_RELEASE_V1.0.2/MSDK/plf/GD32VW55x_standard_peripheral/Source\gd32vw55x_cau.c ****       \arg        CAU_DMA_INFIFO: DMA for incoming(Rx) data transfer
 222:C:/Users/stapi/OneDrive/Desktop/GD32VW553/GD32VW55X_Wifi_BLE_SDK/GD32VW55x_RELEASE_V1.0.2/MSDK/plf/GD32VW55x_standard_peripheral/Source\gd32vw55x_cau.c ****       \arg        CAU_DMA_OUTFIFO: DMA for outgoing(Tx) data transfer
 223:C:/Users/stapi/OneDrive/Desktop/GD32VW553/GD32VW55X_Wifi_BLE_SDK/GD32VW55x_RELEASE_V1.0.2/MSDK/plf/GD32VW55x_standard_peripheral/Source\gd32vw55x_cau.c ****     \param[out] none
 224:C:/Users/stapi/OneDrive/Desktop/GD32VW553/GD32VW55X_Wifi_BLE_SDK/GD32VW55x_RELEASE_V1.0.2/MSDK/plf/GD32VW55x_standard_peripheral/Source\gd32vw55x_cau.c ****     \retval     none
 225:C:/Users/stapi/OneDrive/Desktop/GD32VW553/GD32VW55X_Wifi_BLE_SDK/GD32VW55x_RELEASE_V1.0.2/MSDK/plf/GD32VW55x_standard_peripheral/Source\gd32vw55x_cau.c **** */
 226:C:/Users/stapi/OneDrive/Desktop/GD32VW553/GD32VW55X_Wifi_BLE_SDK/GD32VW55x_RELEASE_V1.0.2/MSDK/plf/GD32VW55x_standard_peripheral/Source\gd32vw55x_cau.c **** void cau_dma_enable(uint32_t dma_req)
 227:C:/Users/stapi/OneDrive/Desktop/GD32VW553/GD32VW55X_Wifi_BLE_SDK/GD32VW55x_RELEASE_V1.0.2/MSDK/plf/GD32VW55x_standard_peripheral/Source\gd32vw55x_cau.c **** {
 286              		.loc 1 227 1 is_stmt 1
 287              		.cfi_startproc
 288              	.LVL6:
 228:C:/Users/stapi/OneDrive/Desktop/GD32VW553/GD32VW55X_Wifi_BLE_SDK/GD32VW55x_RELEASE_V1.0.2/MSDK/plf/GD32VW55x_standard_peripheral/Source\gd32vw55x_cau.c ****     /* enable the selected CAU DMA request */
 229:C:/Users/stapi/OneDrive/Desktop/GD32VW553/GD32VW55X_Wifi_BLE_SDK/GD32VW55x_RELEASE_V1.0.2/MSDK/plf/GD32VW55x_standard_peripheral/Source\gd32vw55x_cau.c ****     CAU_DMAEN |= dma_req;
 289              		.loc 1 229 5
 290              		.loc 1 229 15 is_stmt 0
 291 0000 3707064C 		li	a4,1275461632
 292 0004 1C4B     		lw	a5,16(a4)
 293 0006 C98F     		or	a5,a5,a0
 294 0008 1CCB     		sw	a5,16(a4)
 230:C:/Users/stapi/OneDrive/Desktop/GD32VW553/GD32VW55X_Wifi_BLE_SDK/GD32VW55x_RELEASE_V1.0.2/MSDK/plf/GD32VW55x_standard_peripheral/Source\gd32vw55x_cau.c **** }
 295              		.loc 1 230 1
 296 000a 8280     		ret
 297              		.cfi_endproc
 298              	.LFE372:
 300              		.section	.text.cau_dma_disable,"ax",@progbits
 301              		.align	1
 302              		.globl	cau_dma_disable
 304              	cau_dma_disable:
 305              	.LFB373:
 231:C:/Users/stapi/OneDrive/Desktop/GD32VW553/GD32VW55X_Wifi_BLE_SDK/GD32VW55x_RELEASE_V1.0.2/MSDK/plf/GD32VW55x_standard_peripheral/Source\gd32vw55x_cau.c **** 
 232:C:/Users/stapi/OneDrive/Desktop/GD32VW553/GD32VW55X_Wifi_BLE_SDK/GD32VW55x_RELEASE_V1.0.2/MSDK/plf/GD32VW55x_standard_peripheral/Source\gd32vw55x_cau.c **** /*!
 233:C:/Users/stapi/OneDrive/Desktop/GD32VW553/GD32VW55X_Wifi_BLE_SDK/GD32VW55x_RELEASE_V1.0.2/MSDK/plf/GD32VW55x_standard_peripheral/Source\gd32vw55x_cau.c ****     \brief      disable the CAU DMA interface
 234:C:/Users/stapi/OneDrive/Desktop/GD32VW553/GD32VW55X_Wifi_BLE_SDK/GD32VW55x_RELEASE_V1.0.2/MSDK/plf/GD32VW55x_standard_peripheral/Source\gd32vw55x_cau.c ****     \param[in]  dma_req: specify the CAU DMA transfer request to be disabled
 235:C:/Users/stapi/OneDrive/Desktop/GD32VW553/GD32VW55X_Wifi_BLE_SDK/GD32VW55x_RELEASE_V1.0.2/MSDK/plf/GD32VW55x_standard_peripheral/Source\gd32vw55x_cau.c ****                 one or more parameters can be selected which are shown as below:
 236:C:/Users/stapi/OneDrive/Desktop/GD32VW553/GD32VW55X_Wifi_BLE_SDK/GD32VW55x_RELEASE_V1.0.2/MSDK/plf/GD32VW55x_standard_peripheral/Source\gd32vw55x_cau.c ****       \arg        CAU_DMA_INFIFO: DMA for incoming(Rx) data transfer
 237:C:/Users/stapi/OneDrive/Desktop/GD32VW553/GD32VW55X_Wifi_BLE_SDK/GD32VW55x_RELEASE_V1.0.2/MSDK/plf/GD32VW55x_standard_peripheral/Source\gd32vw55x_cau.c ****       \arg        CAU_DMA_OUTFIFO: DMA for outgoing(Tx) data transfer
 238:C:/Users/stapi/OneDrive/Desktop/GD32VW553/GD32VW55X_Wifi_BLE_SDK/GD32VW55x_RELEASE_V1.0.2/MSDK/plf/GD32VW55x_standard_peripheral/Source\gd32vw55x_cau.c ****     \param[out] none
 239:C:/Users/stapi/OneDrive/Desktop/GD32VW553/GD32VW55X_Wifi_BLE_SDK/GD32VW55x_RELEASE_V1.0.2/MSDK/plf/GD32VW55x_standard_peripheral/Source\gd32vw55x_cau.c ****     \retval     none
 240:C:/Users/stapi/OneDrive/Desktop/GD32VW553/GD32VW55X_Wifi_BLE_SDK/GD32VW55x_RELEASE_V1.0.2/MSDK/plf/GD32VW55x_standard_peripheral/Source\gd32vw55x_cau.c **** */
 241:C:/Users/stapi/OneDrive/Desktop/GD32VW553/GD32VW55X_Wifi_BLE_SDK/GD32VW55x_RELEASE_V1.0.2/MSDK/plf/GD32VW55x_standard_peripheral/Source\gd32vw55x_cau.c **** void cau_dma_disable(uint32_t dma_req)
 242:C:/Users/stapi/OneDrive/Desktop/GD32VW553/GD32VW55X_Wifi_BLE_SDK/GD32VW55x_RELEASE_V1.0.2/MSDK/plf/GD32VW55x_standard_peripheral/Source\gd32vw55x_cau.c **** {
 306              		.loc 1 242 1 is_stmt 1
 307              		.cfi_startproc
 308              	.LVL7:
 243:C:/Users/stapi/OneDrive/Desktop/GD32VW553/GD32VW55X_Wifi_BLE_SDK/GD32VW55x_RELEASE_V1.0.2/MSDK/plf/GD32VW55x_standard_peripheral/Source\gd32vw55x_cau.c ****     /* disable the selected CAU DMA request */
 244:C:/Users/stapi/OneDrive/Desktop/GD32VW553/GD32VW55X_Wifi_BLE_SDK/GD32VW55x_RELEASE_V1.0.2/MSDK/plf/GD32VW55x_standard_peripheral/Source\gd32vw55x_cau.c ****     CAU_DMAEN &= ~(dma_req);
 309              		.loc 1 244 5
 310              		.loc 1 244 15 is_stmt 0
 311 0000 B707064C 		li	a5,1275461632
 312 0004 984B     		lw	a4,16(a5)
 313 0006 3375A740 		andn	a0,a4,a0
 314              	.LVL8:
 315 000a 88CB     		sw	a0,16(a5)
 245:C:/Users/stapi/OneDrive/Desktop/GD32VW553/GD32VW55X_Wifi_BLE_SDK/GD32VW55x_RELEASE_V1.0.2/MSDK/plf/GD32VW55x_standard_peripheral/Source\gd32vw55x_cau.c **** }
 316              		.loc 1 245 1
 317 000c 8280     		ret
 318              		.cfi_endproc
 319              	.LFE373:
 321              		.section	.text.cau_init,"ax",@progbits
 322              		.align	1
 323              		.globl	cau_init
 325              	cau_init:
 326              	.LFB374:
 246:C:/Users/stapi/OneDrive/Desktop/GD32VW553/GD32VW55X_Wifi_BLE_SDK/GD32VW55x_RELEASE_V1.0.2/MSDK/plf/GD32VW55x_standard_peripheral/Source\gd32vw55x_cau.c **** 
 247:C:/Users/stapi/OneDrive/Desktop/GD32VW553/GD32VW55X_Wifi_BLE_SDK/GD32VW55x_RELEASE_V1.0.2/MSDK/plf/GD32VW55x_standard_peripheral/Source\gd32vw55x_cau.c **** /*!
 248:C:/Users/stapi/OneDrive/Desktop/GD32VW553/GD32VW55X_Wifi_BLE_SDK/GD32VW55x_RELEASE_V1.0.2/MSDK/plf/GD32VW55x_standard_peripheral/Source\gd32vw55x_cau.c ****     \brief      initialize the CAU peripheral
 249:C:/Users/stapi/OneDrive/Desktop/GD32VW553/GD32VW55X_Wifi_BLE_SDK/GD32VW55x_RELEASE_V1.0.2/MSDK/plf/GD32VW55x_standard_peripheral/Source\gd32vw55x_cau.c ****     \param[in]  alg_dir: algorithm direction
 250:C:/Users/stapi/OneDrive/Desktop/GD32VW553/GD32VW55X_Wifi_BLE_SDK/GD32VW55x_RELEASE_V1.0.2/MSDK/plf/GD32VW55x_standard_peripheral/Source\gd32vw55x_cau.c ****                 only one parameter can be selected which is shown as below:
 251:C:/Users/stapi/OneDrive/Desktop/GD32VW553/GD32VW55X_Wifi_BLE_SDK/GD32VW55x_RELEASE_V1.0.2/MSDK/plf/GD32VW55x_standard_peripheral/Source\gd32vw55x_cau.c ****       \arg        CAU_ENCRYPT: encrypt
 252:C:/Users/stapi/OneDrive/Desktop/GD32VW553/GD32VW55X_Wifi_BLE_SDK/GD32VW55x_RELEASE_V1.0.2/MSDK/plf/GD32VW55x_standard_peripheral/Source\gd32vw55x_cau.c ****       \arg        CAU_DECRYPT: decrypt
 253:C:/Users/stapi/OneDrive/Desktop/GD32VW553/GD32VW55X_Wifi_BLE_SDK/GD32VW55x_RELEASE_V1.0.2/MSDK/plf/GD32VW55x_standard_peripheral/Source\gd32vw55x_cau.c ****     \param[in]  algo_mode: algorithm mode selection
 254:C:/Users/stapi/OneDrive/Desktop/GD32VW553/GD32VW55X_Wifi_BLE_SDK/GD32VW55x_RELEASE_V1.0.2/MSDK/plf/GD32VW55x_standard_peripheral/Source\gd32vw55x_cau.c ****                 only one parameter can be selected which is shown as below:
 255:C:/Users/stapi/OneDrive/Desktop/GD32VW553/GD32VW55X_Wifi_BLE_SDK/GD32VW55x_RELEASE_V1.0.2/MSDK/plf/GD32VW55x_standard_peripheral/Source\gd32vw55x_cau.c ****       \arg        CAU_MODE_TDES_ECB: TDES-ECB (3DES Electronic codebook)
 256:C:/Users/stapi/OneDrive/Desktop/GD32VW553/GD32VW55X_Wifi_BLE_SDK/GD32VW55x_RELEASE_V1.0.2/MSDK/plf/GD32VW55x_standard_peripheral/Source\gd32vw55x_cau.c ****       \arg        CAU_MODE_TDES_CBC: TDES-CBC (3DES Cipher block chaining)
 257:C:/Users/stapi/OneDrive/Desktop/GD32VW553/GD32VW55X_Wifi_BLE_SDK/GD32VW55x_RELEASE_V1.0.2/MSDK/plf/GD32VW55x_standard_peripheral/Source\gd32vw55x_cau.c ****       \arg        CAU_MODE_DES_ECB: DES-ECB (simple DES Electronic codebook)
 258:C:/Users/stapi/OneDrive/Desktop/GD32VW553/GD32VW55X_Wifi_BLE_SDK/GD32VW55x_RELEASE_V1.0.2/MSDK/plf/GD32VW55x_standard_peripheral/Source\gd32vw55x_cau.c ****       \arg        CAU_MODE_DES_CBC: DES-CBC (simple DES Cipher block chaining)
 259:C:/Users/stapi/OneDrive/Desktop/GD32VW553/GD32VW55X_Wifi_BLE_SDK/GD32VW55x_RELEASE_V1.0.2/MSDK/plf/GD32VW55x_standard_peripheral/Source\gd32vw55x_cau.c ****       \arg        CAU_MODE_AES_ECB: AES-ECB (AES Electronic codebook)
 260:C:/Users/stapi/OneDrive/Desktop/GD32VW553/GD32VW55X_Wifi_BLE_SDK/GD32VW55x_RELEASE_V1.0.2/MSDK/plf/GD32VW55x_standard_peripheral/Source\gd32vw55x_cau.c ****       \arg        CAU_MODE_AES_CBC: AES-CBC (AES Cipher block chaining)
 261:C:/Users/stapi/OneDrive/Desktop/GD32VW553/GD32VW55X_Wifi_BLE_SDK/GD32VW55x_RELEASE_V1.0.2/MSDK/plf/GD32VW55x_standard_peripheral/Source\gd32vw55x_cau.c ****       \arg        CAU_MODE_AES_CTR: AES-CTR (AES counter mode)
 262:C:/Users/stapi/OneDrive/Desktop/GD32VW553/GD32VW55X_Wifi_BLE_SDK/GD32VW55x_RELEASE_V1.0.2/MSDK/plf/GD32VW55x_standard_peripheral/Source\gd32vw55x_cau.c ****       \arg        CAU_MODE_AES_KEY: AES decryption key preparation mode
 263:C:/Users/stapi/OneDrive/Desktop/GD32VW553/GD32VW55X_Wifi_BLE_SDK/GD32VW55x_RELEASE_V1.0.2/MSDK/plf/GD32VW55x_standard_peripheral/Source\gd32vw55x_cau.c ****       \arg        CAU_MODE_AES_GCM: AES-GCM (AES Galois/counter mode)
 264:C:/Users/stapi/OneDrive/Desktop/GD32VW553/GD32VW55X_Wifi_BLE_SDK/GD32VW55x_RELEASE_V1.0.2/MSDK/plf/GD32VW55x_standard_peripheral/Source\gd32vw55x_cau.c ****       \arg        CAU_MODE_AES_CCM: AES-CCM (AES combined cipher machine mode)
 265:C:/Users/stapi/OneDrive/Desktop/GD32VW553/GD32VW55X_Wifi_BLE_SDK/GD32VW55x_RELEASE_V1.0.2/MSDK/plf/GD32VW55x_standard_peripheral/Source\gd32vw55x_cau.c ****       \arg        CAU_MODE_AES_CFB: AES-CFB (cipher feedback mode)
 266:C:/Users/stapi/OneDrive/Desktop/GD32VW553/GD32VW55X_Wifi_BLE_SDK/GD32VW55x_RELEASE_V1.0.2/MSDK/plf/GD32VW55x_standard_peripheral/Source\gd32vw55x_cau.c ****       \arg        CAU_MODE_AES_OFB: AES-OFB (output feedback mode)
 267:C:/Users/stapi/OneDrive/Desktop/GD32VW553/GD32VW55X_Wifi_BLE_SDK/GD32VW55x_RELEASE_V1.0.2/MSDK/plf/GD32VW55x_standard_peripheral/Source\gd32vw55x_cau.c ****     \param[in]  swapping: data swapping selection
 268:C:/Users/stapi/OneDrive/Desktop/GD32VW553/GD32VW55X_Wifi_BLE_SDK/GD32VW55x_RELEASE_V1.0.2/MSDK/plf/GD32VW55x_standard_peripheral/Source\gd32vw55x_cau.c ****                 only one parameter can be selected which is shown as below:
 269:C:/Users/stapi/OneDrive/Desktop/GD32VW553/GD32VW55X_Wifi_BLE_SDK/GD32VW55x_RELEASE_V1.0.2/MSDK/plf/GD32VW55x_standard_peripheral/Source\gd32vw55x_cau.c ****       \arg        CAU_SWAPPING_32BIT: no swapping
 270:C:/Users/stapi/OneDrive/Desktop/GD32VW553/GD32VW55X_Wifi_BLE_SDK/GD32VW55x_RELEASE_V1.0.2/MSDK/plf/GD32VW55x_standard_peripheral/Source\gd32vw55x_cau.c ****       \arg        CAU_SWAPPING_16BIT: half-word swapping
 271:C:/Users/stapi/OneDrive/Desktop/GD32VW553/GD32VW55X_Wifi_BLE_SDK/GD32VW55x_RELEASE_V1.0.2/MSDK/plf/GD32VW55x_standard_peripheral/Source\gd32vw55x_cau.c ****       \arg        CAU_SWAPPING_8BIT: bytes swapping
 272:C:/Users/stapi/OneDrive/Desktop/GD32VW553/GD32VW55X_Wifi_BLE_SDK/GD32VW55x_RELEASE_V1.0.2/MSDK/plf/GD32VW55x_standard_peripheral/Source\gd32vw55x_cau.c ****       \arg        CAU_SWAPPING_1BIT: bit swapping
 273:C:/Users/stapi/OneDrive/Desktop/GD32VW553/GD32VW55X_Wifi_BLE_SDK/GD32VW55x_RELEASE_V1.0.2/MSDK/plf/GD32VW55x_standard_peripheral/Source\gd32vw55x_cau.c ****     \param[out] none
 274:C:/Users/stapi/OneDrive/Desktop/GD32VW553/GD32VW55X_Wifi_BLE_SDK/GD32VW55x_RELEASE_V1.0.2/MSDK/plf/GD32VW55x_standard_peripheral/Source\gd32vw55x_cau.c ****     \retval     none
 275:C:/Users/stapi/OneDrive/Desktop/GD32VW553/GD32VW55X_Wifi_BLE_SDK/GD32VW55x_RELEASE_V1.0.2/MSDK/plf/GD32VW55x_standard_peripheral/Source\gd32vw55x_cau.c **** */
 276:C:/Users/stapi/OneDrive/Desktop/GD32VW553/GD32VW55X_Wifi_BLE_SDK/GD32VW55x_RELEASE_V1.0.2/MSDK/plf/GD32VW55x_standard_peripheral/Source\gd32vw55x_cau.c **** void cau_init(uint32_t alg_dir, uint32_t algo_mode, uint32_t swapping)
 277:C:/Users/stapi/OneDrive/Desktop/GD32VW553/GD32VW55X_Wifi_BLE_SDK/GD32VW55x_RELEASE_V1.0.2/MSDK/plf/GD32VW55x_standard_peripheral/Source\gd32vw55x_cau.c **** {
 327              		.loc 1 277 1 is_stmt 1
 328              		.cfi_startproc
 329              	.LVL9:
 278:C:/Users/stapi/OneDrive/Desktop/GD32VW553/GD32VW55X_Wifi_BLE_SDK/GD32VW55x_RELEASE_V1.0.2/MSDK/plf/GD32VW55x_standard_peripheral/Source\gd32vw55x_cau.c ****     /* select algorithm mode */
 279:C:/Users/stapi/OneDrive/Desktop/GD32VW553/GD32VW55X_Wifi_BLE_SDK/GD32VW55x_RELEASE_V1.0.2/MSDK/plf/GD32VW55x_standard_peripheral/Source\gd32vw55x_cau.c ****     CAU_CTL &= ~CAU_CTL_ALGM;
 330              		.loc 1 279 5
 331              		.loc 1 279 13 is_stmt 0
 332 0000 B707064C 		li	a5,1275461632
 333 0004 83A80700 		lw	a7,0(a5)
 334 0008 3703F8FF 		li	t1,-524288
 335 000c 130373FC 		addi	t1,t1,-57
 336 0010 B3F86800 		and	a7,a7,t1
 337 0014 23A01701 		sw	a7,0(a5)
 280:C:/Users/stapi/OneDrive/Desktop/GD32VW553/GD32VW55X_Wifi_BLE_SDK/GD32VW55x_RELEASE_V1.0.2/MSDK/plf/GD32VW55x_standard_peripheral/Source\gd32vw55x_cau.c ****     CAU_CTL |= algo_mode;
 338              		.loc 1 280 5 is_stmt 1
 339              		.loc 1 280 13 is_stmt 0
 340 0018 03A80700 		lw	a6,0(a5)
 341 001c 3368B800 		or	a6,a6,a1
 342 0020 23A00701 		sw	a6,0(a5)
 281:C:/Users/stapi/OneDrive/Desktop/GD32VW553/GD32VW55X_Wifi_BLE_SDK/GD32VW55x_RELEASE_V1.0.2/MSDK/plf/GD32VW55x_standard_peripheral/Source\gd32vw55x_cau.c **** 
 282:C:/Users/stapi/OneDrive/Desktop/GD32VW553/GD32VW55X_Wifi_BLE_SDK/GD32VW55x_RELEASE_V1.0.2/MSDK/plf/GD32VW55x_standard_peripheral/Source\gd32vw55x_cau.c ****     /* select data swapping */
 283:C:/Users/stapi/OneDrive/Desktop/GD32VW553/GD32VW55X_Wifi_BLE_SDK/GD32VW55x_RELEASE_V1.0.2/MSDK/plf/GD32VW55x_standard_peripheral/Source\gd32vw55x_cau.c ****     CAU_CTL &= ~CAU_CTL_DATAM;
 343              		.loc 1 283 5 is_stmt 1
 344              		.loc 1 283 13 is_stmt 0
 345 0024 8C43     		lw	a1,0(a5)
 346              	.LVL10:
 347 0026 93F5F5F3 		andi	a1,a1,-193
 348 002a 8CC3     		sw	a1,0(a5)
 284:C:/Users/stapi/OneDrive/Desktop/GD32VW553/GD32VW55X_Wifi_BLE_SDK/GD32VW55x_RELEASE_V1.0.2/MSDK/plf/GD32VW55x_standard_peripheral/Source\gd32vw55x_cau.c ****     CAU_CTL |= swapping;
 349              		.loc 1 284 5 is_stmt 1
 350              		.loc 1 284 13 is_stmt 0
 351 002c 9443     		lw	a3,0(a5)
 352 002e D18E     		or	a3,a3,a2
 353 0030 94C3     		sw	a3,0(a5)
 285:C:/Users/stapi/OneDrive/Desktop/GD32VW553/GD32VW55X_Wifi_BLE_SDK/GD32VW55x_RELEASE_V1.0.2/MSDK/plf/GD32VW55x_standard_peripheral/Source\gd32vw55x_cau.c **** 
 286:C:/Users/stapi/OneDrive/Desktop/GD32VW553/GD32VW55X_Wifi_BLE_SDK/GD32VW55x_RELEASE_V1.0.2/MSDK/plf/GD32VW55x_standard_peripheral/Source\gd32vw55x_cau.c ****     /* select algorithm direction */
 287:C:/Users/stapi/OneDrive/Desktop/GD32VW553/GD32VW55X_Wifi_BLE_SDK/GD32VW55x_RELEASE_V1.0.2/MSDK/plf/GD32VW55x_standard_peripheral/Source\gd32vw55x_cau.c ****     CAU_CTL &= ~CAU_CTL_CAUDIR;
 354              		.loc 1 287 5 is_stmt 1
 355              		.loc 1 287 13 is_stmt 0
 356 0032 9443     		lw	a3,0(a5)
 357 0034 ED9A     		andi	a3,a3,-5
 358 0036 94C3     		sw	a3,0(a5)
 288:C:/Users/stapi/OneDrive/Desktop/GD32VW553/GD32VW55X_Wifi_BLE_SDK/GD32VW55x_RELEASE_V1.0.2/MSDK/plf/GD32VW55x_standard_peripheral/Source\gd32vw55x_cau.c ****     CAU_CTL |= alg_dir;
 359              		.loc 1 288 5 is_stmt 1
 360              		.loc 1 288 13 is_stmt 0
 361 0038 9843     		lw	a4,0(a5)
 362 003a 498F     		or	a4,a4,a0
 363 003c 98C3     		sw	a4,0(a5)
 289:C:/Users/stapi/OneDrive/Desktop/GD32VW553/GD32VW55X_Wifi_BLE_SDK/GD32VW55x_RELEASE_V1.0.2/MSDK/plf/GD32VW55x_standard_peripheral/Source\gd32vw55x_cau.c **** }
 364              		.loc 1 289 1
 365 003e 8280     		ret
 366              		.cfi_endproc
 367              	.LFE374:
 369              		.section	.text.cau_aes_keysize_config,"ax",@progbits
 370              		.align	1
 371              		.globl	cau_aes_keysize_config
 373              	cau_aes_keysize_config:
 374              	.LFB375:
 290:C:/Users/stapi/OneDrive/Desktop/GD32VW553/GD32VW55X_Wifi_BLE_SDK/GD32VW55x_RELEASE_V1.0.2/MSDK/plf/GD32VW55x_standard_peripheral/Source\gd32vw55x_cau.c **** 
 291:C:/Users/stapi/OneDrive/Desktop/GD32VW553/GD32VW55X_Wifi_BLE_SDK/GD32VW55x_RELEASE_V1.0.2/MSDK/plf/GD32VW55x_standard_peripheral/Source\gd32vw55x_cau.c **** /*!
 292:C:/Users/stapi/OneDrive/Desktop/GD32VW553/GD32VW55X_Wifi_BLE_SDK/GD32VW55x_RELEASE_V1.0.2/MSDK/plf/GD32VW55x_standard_peripheral/Source\gd32vw55x_cau.c ****     \brief      configure key size if use AES algorithm
 293:C:/Users/stapi/OneDrive/Desktop/GD32VW553/GD32VW55X_Wifi_BLE_SDK/GD32VW55x_RELEASE_V1.0.2/MSDK/plf/GD32VW55x_standard_peripheral/Source\gd32vw55x_cau.c ****     \param[in]  key_size: key length selection when aes mode
 294:C:/Users/stapi/OneDrive/Desktop/GD32VW553/GD32VW55X_Wifi_BLE_SDK/GD32VW55x_RELEASE_V1.0.2/MSDK/plf/GD32VW55x_standard_peripheral/Source\gd32vw55x_cau.c ****                 only one parameter can be selected which is shown as below:
 295:C:/Users/stapi/OneDrive/Desktop/GD32VW553/GD32VW55X_Wifi_BLE_SDK/GD32VW55x_RELEASE_V1.0.2/MSDK/plf/GD32VW55x_standard_peripheral/Source\gd32vw55x_cau.c ****       \arg        CAU_KEYSIZE_128BIT: 128 bit key length
 296:C:/Users/stapi/OneDrive/Desktop/GD32VW553/GD32VW55X_Wifi_BLE_SDK/GD32VW55x_RELEASE_V1.0.2/MSDK/plf/GD32VW55x_standard_peripheral/Source\gd32vw55x_cau.c ****       \arg        CAU_KEYSIZE_192BIT: 192 bit key length
 297:C:/Users/stapi/OneDrive/Desktop/GD32VW553/GD32VW55X_Wifi_BLE_SDK/GD32VW55x_RELEASE_V1.0.2/MSDK/plf/GD32VW55x_standard_peripheral/Source\gd32vw55x_cau.c ****       \arg        CAU_KEYSIZE_256BIT: 256 bit key length
 298:C:/Users/stapi/OneDrive/Desktop/GD32VW553/GD32VW55X_Wifi_BLE_SDK/GD32VW55x_RELEASE_V1.0.2/MSDK/plf/GD32VW55x_standard_peripheral/Source\gd32vw55x_cau.c ****     \param[out] none
 299:C:/Users/stapi/OneDrive/Desktop/GD32VW553/GD32VW55X_Wifi_BLE_SDK/GD32VW55x_RELEASE_V1.0.2/MSDK/plf/GD32VW55x_standard_peripheral/Source\gd32vw55x_cau.c ****     \retval     none
 300:C:/Users/stapi/OneDrive/Desktop/GD32VW553/GD32VW55X_Wifi_BLE_SDK/GD32VW55x_RELEASE_V1.0.2/MSDK/plf/GD32VW55x_standard_peripheral/Source\gd32vw55x_cau.c **** */
 301:C:/Users/stapi/OneDrive/Desktop/GD32VW553/GD32VW55X_Wifi_BLE_SDK/GD32VW55x_RELEASE_V1.0.2/MSDK/plf/GD32VW55x_standard_peripheral/Source\gd32vw55x_cau.c **** void cau_aes_keysize_config(uint32_t key_size)
 302:C:/Users/stapi/OneDrive/Desktop/GD32VW553/GD32VW55X_Wifi_BLE_SDK/GD32VW55x_RELEASE_V1.0.2/MSDK/plf/GD32VW55x_standard_peripheral/Source\gd32vw55x_cau.c **** {
 375              		.loc 1 302 1 is_stmt 1
 376              		.cfi_startproc
 377              	.LVL11:
 303:C:/Users/stapi/OneDrive/Desktop/GD32VW553/GD32VW55X_Wifi_BLE_SDK/GD32VW55x_RELEASE_V1.0.2/MSDK/plf/GD32VW55x_standard_peripheral/Source\gd32vw55x_cau.c ****     CAU_CTL &= ~CAU_CTL_KEYM;
 378              		.loc 1 303 5
 379              		.loc 1 303 13 is_stmt 0
 380 0000 B707064C 		li	a5,1275461632
 381 0004 9443     		lw	a3,0(a5)
 382 0006 93F6F6CF 		andi	a3,a3,-769
 383 000a 94C3     		sw	a3,0(a5)
 304:C:/Users/stapi/OneDrive/Desktop/GD32VW553/GD32VW55X_Wifi_BLE_SDK/GD32VW55x_RELEASE_V1.0.2/MSDK/plf/GD32VW55x_standard_peripheral/Source\gd32vw55x_cau.c ****     CAU_CTL |= key_size;
 384              		.loc 1 304 5 is_stmt 1
 385              		.loc 1 304 13 is_stmt 0
 386 000c 9843     		lw	a4,0(a5)
 387 000e 498F     		or	a4,a4,a0
 388 0010 98C3     		sw	a4,0(a5)
 305:C:/Users/stapi/OneDrive/Desktop/GD32VW553/GD32VW55X_Wifi_BLE_SDK/GD32VW55x_RELEASE_V1.0.2/MSDK/plf/GD32VW55x_standard_peripheral/Source\gd32vw55x_cau.c **** }
 389              		.loc 1 305 1
 390 0012 8280     		ret
 391              		.cfi_endproc
 392              	.LFE375:
 394              		.section	.text.cau_key_init,"ax",@progbits
 395              		.align	1
 396              		.globl	cau_key_init
 398              	cau_key_init:
 399              	.LFB376:
 306:C:/Users/stapi/OneDrive/Desktop/GD32VW553/GD32VW55X_Wifi_BLE_SDK/GD32VW55x_RELEASE_V1.0.2/MSDK/plf/GD32VW55x_standard_peripheral/Source\gd32vw55x_cau.c **** 
 307:C:/Users/stapi/OneDrive/Desktop/GD32VW553/GD32VW55X_Wifi_BLE_SDK/GD32VW55x_RELEASE_V1.0.2/MSDK/plf/GD32VW55x_standard_peripheral/Source\gd32vw55x_cau.c **** /*!
 308:C:/Users/stapi/OneDrive/Desktop/GD32VW553/GD32VW55X_Wifi_BLE_SDK/GD32VW55x_RELEASE_V1.0.2/MSDK/plf/GD32VW55x_standard_peripheral/Source\gd32vw55x_cau.c ****     \brief      initialize the key parameters
 309:C:/Users/stapi/OneDrive/Desktop/GD32VW553/GD32VW55X_Wifi_BLE_SDK/GD32VW55x_RELEASE_V1.0.2/MSDK/plf/GD32VW55x_standard_peripheral/Source\gd32vw55x_cau.c ****     \param[in]  key_initpara: key init parameter struct
 310:C:/Users/stapi/OneDrive/Desktop/GD32VW553/GD32VW55X_Wifi_BLE_SDK/GD32VW55x_RELEASE_V1.0.2/MSDK/plf/GD32VW55x_standard_peripheral/Source\gd32vw55x_cau.c ****                   key_0_high: key 0 high
 311:C:/Users/stapi/OneDrive/Desktop/GD32VW553/GD32VW55X_Wifi_BLE_SDK/GD32VW55x_RELEASE_V1.0.2/MSDK/plf/GD32VW55x_standard_peripheral/Source\gd32vw55x_cau.c ****                   key_0_low:  key 0 low
 312:C:/Users/stapi/OneDrive/Desktop/GD32VW553/GD32VW55X_Wifi_BLE_SDK/GD32VW55x_RELEASE_V1.0.2/MSDK/plf/GD32VW55x_standard_peripheral/Source\gd32vw55x_cau.c ****                   key_1_high: key 1 high
 313:C:/Users/stapi/OneDrive/Desktop/GD32VW553/GD32VW55X_Wifi_BLE_SDK/GD32VW55x_RELEASE_V1.0.2/MSDK/plf/GD32VW55x_standard_peripheral/Source\gd32vw55x_cau.c ****                   key_1_low:  key 1 low
 314:C:/Users/stapi/OneDrive/Desktop/GD32VW553/GD32VW55X_Wifi_BLE_SDK/GD32VW55x_RELEASE_V1.0.2/MSDK/plf/GD32VW55x_standard_peripheral/Source\gd32vw55x_cau.c ****                   key_2_high: key 2 high
 315:C:/Users/stapi/OneDrive/Desktop/GD32VW553/GD32VW55X_Wifi_BLE_SDK/GD32VW55x_RELEASE_V1.0.2/MSDK/plf/GD32VW55x_standard_peripheral/Source\gd32vw55x_cau.c ****                   key_2_low:  key 2 low
 316:C:/Users/stapi/OneDrive/Desktop/GD32VW553/GD32VW55X_Wifi_BLE_SDK/GD32VW55x_RELEASE_V1.0.2/MSDK/plf/GD32VW55x_standard_peripheral/Source\gd32vw55x_cau.c ****                   key_3_high: key 3 high
 317:C:/Users/stapi/OneDrive/Desktop/GD32VW553/GD32VW55X_Wifi_BLE_SDK/GD32VW55x_RELEASE_V1.0.2/MSDK/plf/GD32VW55x_standard_peripheral/Source\gd32vw55x_cau.c ****                   key_3_low:  key 3 low
 318:C:/Users/stapi/OneDrive/Desktop/GD32VW553/GD32VW55X_Wifi_BLE_SDK/GD32VW55x_RELEASE_V1.0.2/MSDK/plf/GD32VW55x_standard_peripheral/Source\gd32vw55x_cau.c ****     \param[out] none
 319:C:/Users/stapi/OneDrive/Desktop/GD32VW553/GD32VW55X_Wifi_BLE_SDK/GD32VW55x_RELEASE_V1.0.2/MSDK/plf/GD32VW55x_standard_peripheral/Source\gd32vw55x_cau.c ****     \retval     none
 320:C:/Users/stapi/OneDrive/Desktop/GD32VW553/GD32VW55X_Wifi_BLE_SDK/GD32VW55x_RELEASE_V1.0.2/MSDK/plf/GD32VW55x_standard_peripheral/Source\gd32vw55x_cau.c **** */
 321:C:/Users/stapi/OneDrive/Desktop/GD32VW553/GD32VW55X_Wifi_BLE_SDK/GD32VW55x_RELEASE_V1.0.2/MSDK/plf/GD32VW55x_standard_peripheral/Source\gd32vw55x_cau.c **** void cau_key_init(cau_key_parameter_struct *key_initpara)
 322:C:/Users/stapi/OneDrive/Desktop/GD32VW553/GD32VW55X_Wifi_BLE_SDK/GD32VW55x_RELEASE_V1.0.2/MSDK/plf/GD32VW55x_standard_peripheral/Source\gd32vw55x_cau.c **** {
 400              		.loc 1 322 1 is_stmt 1
 401              		.cfi_startproc
 402              	.LVL12:
 323:C:/Users/stapi/OneDrive/Desktop/GD32VW553/GD32VW55X_Wifi_BLE_SDK/GD32VW55x_RELEASE_V1.0.2/MSDK/plf/GD32VW55x_standard_peripheral/Source\gd32vw55x_cau.c ****     CAU_KEY0H = key_initpara->key_0_high;
 403              		.loc 1 323 5
 404              		.loc 1 323 29 is_stmt 0
 405 0000 1841     		lw	a4,0(a0)
 406              		.loc 1 323 15
 407 0002 B707064C 		li	a5,1275461632
 408 0006 98D3     		sw	a4,32(a5)
 324:C:/Users/stapi/OneDrive/Desktop/GD32VW553/GD32VW55X_Wifi_BLE_SDK/GD32VW55x_RELEASE_V1.0.2/MSDK/plf/GD32VW55x_standard_peripheral/Source\gd32vw55x_cau.c ****     CAU_KEY0L = key_initpara->key_0_low;
 409              		.loc 1 324 5 is_stmt 1
 410              		.loc 1 324 29 is_stmt 0
 411 0008 5841     		lw	a4,4(a0)
 412              		.loc 1 324 15
 413 000a D8D3     		sw	a4,36(a5)
 325:C:/Users/stapi/OneDrive/Desktop/GD32VW553/GD32VW55X_Wifi_BLE_SDK/GD32VW55x_RELEASE_V1.0.2/MSDK/plf/GD32VW55x_standard_peripheral/Source\gd32vw55x_cau.c ****     CAU_KEY1H = key_initpara->key_1_high;
 414              		.loc 1 325 5 is_stmt 1
 415              		.loc 1 325 29 is_stmt 0
 416 000c 1845     		lw	a4,8(a0)
 417              		.loc 1 325 15
 418 000e 98D7     		sw	a4,40(a5)
 326:C:/Users/stapi/OneDrive/Desktop/GD32VW553/GD32VW55X_Wifi_BLE_SDK/GD32VW55x_RELEASE_V1.0.2/MSDK/plf/GD32VW55x_standard_peripheral/Source\gd32vw55x_cau.c ****     CAU_KEY1L = key_initpara->key_1_low;
 419              		.loc 1 326 5 is_stmt 1
 420              		.loc 1 326 29 is_stmt 0
 421 0010 5845     		lw	a4,12(a0)
 422              		.loc 1 326 15
 423 0012 D8D7     		sw	a4,44(a5)
 327:C:/Users/stapi/OneDrive/Desktop/GD32VW553/GD32VW55X_Wifi_BLE_SDK/GD32VW55x_RELEASE_V1.0.2/MSDK/plf/GD32VW55x_standard_peripheral/Source\gd32vw55x_cau.c ****     CAU_KEY2H = key_initpara->key_2_high;
 424              		.loc 1 327 5 is_stmt 1
 425              		.loc 1 327 29 is_stmt 0
 426 0014 1849     		lw	a4,16(a0)
 427              		.loc 1 327 15
 428 0016 98DB     		sw	a4,48(a5)
 328:C:/Users/stapi/OneDrive/Desktop/GD32VW553/GD32VW55X_Wifi_BLE_SDK/GD32VW55x_RELEASE_V1.0.2/MSDK/plf/GD32VW55x_standard_peripheral/Source\gd32vw55x_cau.c ****     CAU_KEY2L = key_initpara->key_2_low;
 429              		.loc 1 328 5 is_stmt 1
 430              		.loc 1 328 29 is_stmt 0
 431 0018 5849     		lw	a4,20(a0)
 432              		.loc 1 328 15
 433 001a D8DB     		sw	a4,52(a5)
 329:C:/Users/stapi/OneDrive/Desktop/GD32VW553/GD32VW55X_Wifi_BLE_SDK/GD32VW55x_RELEASE_V1.0.2/MSDK/plf/GD32VW55x_standard_peripheral/Source\gd32vw55x_cau.c ****     CAU_KEY3H = key_initpara->key_3_high;
 434              		.loc 1 329 5 is_stmt 1
 435              		.loc 1 329 29 is_stmt 0
 436 001c 184D     		lw	a4,24(a0)
 437              		.loc 1 329 15
 438 001e 98DF     		sw	a4,56(a5)
 330:C:/Users/stapi/OneDrive/Desktop/GD32VW553/GD32VW55X_Wifi_BLE_SDK/GD32VW55x_RELEASE_V1.0.2/MSDK/plf/GD32VW55x_standard_peripheral/Source\gd32vw55x_cau.c ****     CAU_KEY3L = key_initpara->key_3_low;
 439              		.loc 1 330 5 is_stmt 1
 440              		.loc 1 330 29 is_stmt 0
 441 0020 584D     		lw	a4,28(a0)
 442              		.loc 1 330 15
 443 0022 D8DF     		sw	a4,60(a5)
 331:C:/Users/stapi/OneDrive/Desktop/GD32VW553/GD32VW55X_Wifi_BLE_SDK/GD32VW55x_RELEASE_V1.0.2/MSDK/plf/GD32VW55x_standard_peripheral/Source\gd32vw55x_cau.c **** }
 444              		.loc 1 331 1
 445 0024 8280     		ret
 446              		.cfi_endproc
 447              	.LFE376:
 449              		.section	.text.cau_iv_init,"ax",@progbits
 450              		.align	1
 451              		.globl	cau_iv_init
 453              	cau_iv_init:
 454              	.LFB377:
 332:C:/Users/stapi/OneDrive/Desktop/GD32VW553/GD32VW55X_Wifi_BLE_SDK/GD32VW55x_RELEASE_V1.0.2/MSDK/plf/GD32VW55x_standard_peripheral/Source\gd32vw55x_cau.c **** 
 333:C:/Users/stapi/OneDrive/Desktop/GD32VW553/GD32VW55X_Wifi_BLE_SDK/GD32VW55x_RELEASE_V1.0.2/MSDK/plf/GD32VW55x_standard_peripheral/Source\gd32vw55x_cau.c **** /*!
 334:C:/Users/stapi/OneDrive/Desktop/GD32VW553/GD32VW55X_Wifi_BLE_SDK/GD32VW55x_RELEASE_V1.0.2/MSDK/plf/GD32VW55x_standard_peripheral/Source\gd32vw55x_cau.c ****     \brief      initialize the vectors parameters
 335:C:/Users/stapi/OneDrive/Desktop/GD32VW553/GD32VW55X_Wifi_BLE_SDK/GD32VW55x_RELEASE_V1.0.2/MSDK/plf/GD32VW55x_standard_peripheral/Source\gd32vw55x_cau.c ****     \param[in]  iv_initpara: vectors init parameter struct
 336:C:/Users/stapi/OneDrive/Desktop/GD32VW553/GD32VW55X_Wifi_BLE_SDK/GD32VW55x_RELEASE_V1.0.2/MSDK/plf/GD32VW55x_standard_peripheral/Source\gd32vw55x_cau.c ****                   iv_0_high: init vector 0 high
 337:C:/Users/stapi/OneDrive/Desktop/GD32VW553/GD32VW55X_Wifi_BLE_SDK/GD32VW55x_RELEASE_V1.0.2/MSDK/plf/GD32VW55x_standard_peripheral/Source\gd32vw55x_cau.c ****                   iv_0_low:  init vector 0 low
 338:C:/Users/stapi/OneDrive/Desktop/GD32VW553/GD32VW55X_Wifi_BLE_SDK/GD32VW55x_RELEASE_V1.0.2/MSDK/plf/GD32VW55x_standard_peripheral/Source\gd32vw55x_cau.c ****                   iv_1_high: init vector 1 high
 339:C:/Users/stapi/OneDrive/Desktop/GD32VW553/GD32VW55X_Wifi_BLE_SDK/GD32VW55x_RELEASE_V1.0.2/MSDK/plf/GD32VW55x_standard_peripheral/Source\gd32vw55x_cau.c ****                   iv_1_low:  init vector 1 low
 340:C:/Users/stapi/OneDrive/Desktop/GD32VW553/GD32VW55X_Wifi_BLE_SDK/GD32VW55x_RELEASE_V1.0.2/MSDK/plf/GD32VW55x_standard_peripheral/Source\gd32vw55x_cau.c ****     \param[out] none
 341:C:/Users/stapi/OneDrive/Desktop/GD32VW553/GD32VW55X_Wifi_BLE_SDK/GD32VW55x_RELEASE_V1.0.2/MSDK/plf/GD32VW55x_standard_peripheral/Source\gd32vw55x_cau.c ****     \retval     none
 342:C:/Users/stapi/OneDrive/Desktop/GD32VW553/GD32VW55X_Wifi_BLE_SDK/GD32VW55x_RELEASE_V1.0.2/MSDK/plf/GD32VW55x_standard_peripheral/Source\gd32vw55x_cau.c **** */
 343:C:/Users/stapi/OneDrive/Desktop/GD32VW553/GD32VW55X_Wifi_BLE_SDK/GD32VW55x_RELEASE_V1.0.2/MSDK/plf/GD32VW55x_standard_peripheral/Source\gd32vw55x_cau.c **** void cau_iv_init(cau_iv_parameter_struct *iv_initpara)
 344:C:/Users/stapi/OneDrive/Desktop/GD32VW553/GD32VW55X_Wifi_BLE_SDK/GD32VW55x_RELEASE_V1.0.2/MSDK/plf/GD32VW55x_standard_peripheral/Source\gd32vw55x_cau.c **** {
 455              		.loc 1 344 1 is_stmt 1
 456              		.cfi_startproc
 457              	.LVL13:
 345:C:/Users/stapi/OneDrive/Desktop/GD32VW553/GD32VW55X_Wifi_BLE_SDK/GD32VW55x_RELEASE_V1.0.2/MSDK/plf/GD32VW55x_standard_peripheral/Source\gd32vw55x_cau.c ****     CAU_IV0H = iv_initpara->iv_0_high;
 458              		.loc 1 345 5
 459              		.loc 1 345 27 is_stmt 0
 460 0000 1841     		lw	a4,0(a0)
 461              		.loc 1 345 14
 462 0002 B707064C 		li	a5,1275461632
 463 0006 B8C3     		sw	a4,64(a5)
 346:C:/Users/stapi/OneDrive/Desktop/GD32VW553/GD32VW55X_Wifi_BLE_SDK/GD32VW55x_RELEASE_V1.0.2/MSDK/plf/GD32VW55x_standard_peripheral/Source\gd32vw55x_cau.c ****     CAU_IV0L = iv_initpara->iv_0_low;
 464              		.loc 1 346 5 is_stmt 1
 465              		.loc 1 346 27 is_stmt 0
 466 0008 5841     		lw	a4,4(a0)
 467              		.loc 1 346 14
 468 000a F8C3     		sw	a4,68(a5)
 347:C:/Users/stapi/OneDrive/Desktop/GD32VW553/GD32VW55X_Wifi_BLE_SDK/GD32VW55x_RELEASE_V1.0.2/MSDK/plf/GD32VW55x_standard_peripheral/Source\gd32vw55x_cau.c ****     CAU_IV1H = iv_initpara->iv_1_high;
 469              		.loc 1 347 5 is_stmt 1
 470              		.loc 1 347 27 is_stmt 0
 471 000c 1845     		lw	a4,8(a0)
 472              		.loc 1 347 14
 473 000e B8C7     		sw	a4,72(a5)
 348:C:/Users/stapi/OneDrive/Desktop/GD32VW553/GD32VW55X_Wifi_BLE_SDK/GD32VW55x_RELEASE_V1.0.2/MSDK/plf/GD32VW55x_standard_peripheral/Source\gd32vw55x_cau.c ****     CAU_IV1L = iv_initpara->iv_1_low;
 474              		.loc 1 348 5 is_stmt 1
 475              		.loc 1 348 27 is_stmt 0
 476 0010 5845     		lw	a4,12(a0)
 477              		.loc 1 348 14
 478 0012 F8C7     		sw	a4,76(a5)
 349:C:/Users/stapi/OneDrive/Desktop/GD32VW553/GD32VW55X_Wifi_BLE_SDK/GD32VW55x_RELEASE_V1.0.2/MSDK/plf/GD32VW55x_standard_peripheral/Source\gd32vw55x_cau.c **** }
 479              		.loc 1 349 1
 480 0014 8280     		ret
 481              		.cfi_endproc
 482              	.LFE377:
 484              		.section	.text.cau_phase_config,"ax",@progbits
 485              		.align	1
 486              		.globl	cau_phase_config
 488              	cau_phase_config:
 489              	.LFB378:
 350:C:/Users/stapi/OneDrive/Desktop/GD32VW553/GD32VW55X_Wifi_BLE_SDK/GD32VW55x_RELEASE_V1.0.2/MSDK/plf/GD32VW55x_standard_peripheral/Source\gd32vw55x_cau.c **** 
 351:C:/Users/stapi/OneDrive/Desktop/GD32VW553/GD32VW55X_Wifi_BLE_SDK/GD32VW55x_RELEASE_V1.0.2/MSDK/plf/GD32VW55x_standard_peripheral/Source\gd32vw55x_cau.c **** /*!
 352:C:/Users/stapi/OneDrive/Desktop/GD32VW553/GD32VW55X_Wifi_BLE_SDK/GD32VW55x_RELEASE_V1.0.2/MSDK/plf/GD32VW55x_standard_peripheral/Source\gd32vw55x_cau.c ****     \brief      configure phase
 353:C:/Users/stapi/OneDrive/Desktop/GD32VW553/GD32VW55X_Wifi_BLE_SDK/GD32VW55x_RELEASE_V1.0.2/MSDK/plf/GD32VW55x_standard_peripheral/Source\gd32vw55x_cau.c ****     \param[in]  phase: gcm or ccm phase
 354:C:/Users/stapi/OneDrive/Desktop/GD32VW553/GD32VW55X_Wifi_BLE_SDK/GD32VW55x_RELEASE_V1.0.2/MSDK/plf/GD32VW55x_standard_peripheral/Source\gd32vw55x_cau.c ****                 only one parameter can be selected which is shown as below:
 355:C:/Users/stapi/OneDrive/Desktop/GD32VW553/GD32VW55X_Wifi_BLE_SDK/GD32VW55x_RELEASE_V1.0.2/MSDK/plf/GD32VW55x_standard_peripheral/Source\gd32vw55x_cau.c ****       \arg        CAU_PREPARE_PHASE: prepare phase
 356:C:/Users/stapi/OneDrive/Desktop/GD32VW553/GD32VW55X_Wifi_BLE_SDK/GD32VW55x_RELEASE_V1.0.2/MSDK/plf/GD32VW55x_standard_peripheral/Source\gd32vw55x_cau.c ****       \arg        CAU_AAD_PHASE: AAD phase
 357:C:/Users/stapi/OneDrive/Desktop/GD32VW553/GD32VW55X_Wifi_BLE_SDK/GD32VW55x_RELEASE_V1.0.2/MSDK/plf/GD32VW55x_standard_peripheral/Source\gd32vw55x_cau.c ****       \arg        CAU_ENCRYPT_DECRYPT_PHASE: encryption/decryption phase
 358:C:/Users/stapi/OneDrive/Desktop/GD32VW553/GD32VW55X_Wifi_BLE_SDK/GD32VW55x_RELEASE_V1.0.2/MSDK/plf/GD32VW55x_standard_peripheral/Source\gd32vw55x_cau.c ****       \arg        CAU_TAG_PHASE: tag phase
 359:C:/Users/stapi/OneDrive/Desktop/GD32VW553/GD32VW55X_Wifi_BLE_SDK/GD32VW55x_RELEASE_V1.0.2/MSDK/plf/GD32VW55x_standard_peripheral/Source\gd32vw55x_cau.c ****     \param[out] none
 360:C:/Users/stapi/OneDrive/Desktop/GD32VW553/GD32VW55X_Wifi_BLE_SDK/GD32VW55x_RELEASE_V1.0.2/MSDK/plf/GD32VW55x_standard_peripheral/Source\gd32vw55x_cau.c ****     \retval     none
 361:C:/Users/stapi/OneDrive/Desktop/GD32VW553/GD32VW55X_Wifi_BLE_SDK/GD32VW55x_RELEASE_V1.0.2/MSDK/plf/GD32VW55x_standard_peripheral/Source\gd32vw55x_cau.c **** */
 362:C:/Users/stapi/OneDrive/Desktop/GD32VW553/GD32VW55X_Wifi_BLE_SDK/GD32VW55x_RELEASE_V1.0.2/MSDK/plf/GD32VW55x_standard_peripheral/Source\gd32vw55x_cau.c **** void cau_phase_config(uint32_t phase)
 363:C:/Users/stapi/OneDrive/Desktop/GD32VW553/GD32VW55X_Wifi_BLE_SDK/GD32VW55x_RELEASE_V1.0.2/MSDK/plf/GD32VW55x_standard_peripheral/Source\gd32vw55x_cau.c **** {
 490              		.loc 1 363 1 is_stmt 1
 491              		.cfi_startproc
 492              	.LVL14:
 364:C:/Users/stapi/OneDrive/Desktop/GD32VW553/GD32VW55X_Wifi_BLE_SDK/GD32VW55x_RELEASE_V1.0.2/MSDK/plf/GD32VW55x_standard_peripheral/Source\gd32vw55x_cau.c ****     uint32_t temp;
 493              		.loc 1 364 5
 365:C:/Users/stapi/OneDrive/Desktop/GD32VW553/GD32VW55X_Wifi_BLE_SDK/GD32VW55x_RELEASE_V1.0.2/MSDK/plf/GD32VW55x_standard_peripheral/Source\gd32vw55x_cau.c ****     /* Get the CTL register */
 366:C:/Users/stapi/OneDrive/Desktop/GD32VW553/GD32VW55X_Wifi_BLE_SDK/GD32VW55x_RELEASE_V1.0.2/MSDK/plf/GD32VW55x_standard_peripheral/Source\gd32vw55x_cau.c ****     temp = CAU_CTL;
 494              		.loc 1 366 5
 495              		.loc 1 366 10 is_stmt 0
 496 0000 B706064C 		li	a3,1275461632
 497 0004 9C42     		lw	a5,0(a3)
 498              	.LVL15:
 367:C:/Users/stapi/OneDrive/Desktop/GD32VW553/GD32VW55X_Wifi_BLE_SDK/GD32VW55x_RELEASE_V1.0.2/MSDK/plf/GD32VW55x_standard_peripheral/Source\gd32vw55x_cau.c ****     /* Reset the phase configuration bits */
 368:C:/Users/stapi/OneDrive/Desktop/GD32VW553/GD32VW55X_Wifi_BLE_SDK/GD32VW55x_RELEASE_V1.0.2/MSDK/plf/GD32VW55x_standard_peripheral/Source\gd32vw55x_cau.c ****     temp &= ~CAU_CTL_GCM_CCMPH;
 499              		.loc 1 368 5 is_stmt 1
 500              		.loc 1 368 10 is_stmt 0
 501 0006 3707FDFF 		li	a4,-196608
 502 000a 7D17     		addi	a4,a4,-1
 503 000c F98F     		and	a5,a5,a4
 504              	.LVL16:
 369:C:/Users/stapi/OneDrive/Desktop/GD32VW553/GD32VW55X_Wifi_BLE_SDK/GD32VW55x_RELEASE_V1.0.2/MSDK/plf/GD32VW55x_standard_peripheral/Source\gd32vw55x_cau.c ****     /* Set the selected phase */
 370:C:/Users/stapi/OneDrive/Desktop/GD32VW553/GD32VW55X_Wifi_BLE_SDK/GD32VW55x_RELEASE_V1.0.2/MSDK/plf/GD32VW55x_standard_peripheral/Source\gd32vw55x_cau.c ****     temp |= phase;
 505              		.loc 1 370 5 is_stmt 1
 506              		.loc 1 370 10 is_stmt 0
 507 000e C98F     		or	a5,a5,a0
 508              	.LVL17:
 371:C:/Users/stapi/OneDrive/Desktop/GD32VW553/GD32VW55X_Wifi_BLE_SDK/GD32VW55x_RELEASE_V1.0.2/MSDK/plf/GD32VW55x_standard_peripheral/Source\gd32vw55x_cau.c ****     /* Set the CTL register */
 372:C:/Users/stapi/OneDrive/Desktop/GD32VW553/GD32VW55X_Wifi_BLE_SDK/GD32VW55x_RELEASE_V1.0.2/MSDK/plf/GD32VW55x_standard_peripheral/Source\gd32vw55x_cau.c ****     CAU_CTL = temp;
 509              		.loc 1 372 5 is_stmt 1
 510              		.loc 1 372 13 is_stmt 0
 511 0010 9CC2     		sw	a5,0(a3)
 373:C:/Users/stapi/OneDrive/Desktop/GD32VW553/GD32VW55X_Wifi_BLE_SDK/GD32VW55x_RELEASE_V1.0.2/MSDK/plf/GD32VW55x_standard_peripheral/Source\gd32vw55x_cau.c **** }
 512              		.loc 1 373 1
 513 0012 8280     		ret
 514              		.cfi_endproc
 515              	.LFE378:
 517              		.section	.text.cau_fifo_flush,"ax",@progbits
 518              		.align	1
 519              		.globl	cau_fifo_flush
 521              	cau_fifo_flush:
 522              	.LFB379:
 374:C:/Users/stapi/OneDrive/Desktop/GD32VW553/GD32VW55X_Wifi_BLE_SDK/GD32VW55x_RELEASE_V1.0.2/MSDK/plf/GD32VW55x_standard_peripheral/Source\gd32vw55x_cau.c **** 
 375:C:/Users/stapi/OneDrive/Desktop/GD32VW553/GD32VW55X_Wifi_BLE_SDK/GD32VW55x_RELEASE_V1.0.2/MSDK/plf/GD32VW55x_standard_peripheral/Source\gd32vw55x_cau.c **** /*!
 376:C:/Users/stapi/OneDrive/Desktop/GD32VW553/GD32VW55X_Wifi_BLE_SDK/GD32VW55x_RELEASE_V1.0.2/MSDK/plf/GD32VW55x_standard_peripheral/Source\gd32vw55x_cau.c ****     \brief      flush the IN and OUT FIFOs
 377:C:/Users/stapi/OneDrive/Desktop/GD32VW553/GD32VW55X_Wifi_BLE_SDK/GD32VW55x_RELEASE_V1.0.2/MSDK/plf/GD32VW55x_standard_peripheral/Source\gd32vw55x_cau.c ****     \param[in]  none
 378:C:/Users/stapi/OneDrive/Desktop/GD32VW553/GD32VW55X_Wifi_BLE_SDK/GD32VW55x_RELEASE_V1.0.2/MSDK/plf/GD32VW55x_standard_peripheral/Source\gd32vw55x_cau.c ****     \param[out] none
 379:C:/Users/stapi/OneDrive/Desktop/GD32VW553/GD32VW55X_Wifi_BLE_SDK/GD32VW55x_RELEASE_V1.0.2/MSDK/plf/GD32VW55x_standard_peripheral/Source\gd32vw55x_cau.c ****     \retval     none
 380:C:/Users/stapi/OneDrive/Desktop/GD32VW553/GD32VW55X_Wifi_BLE_SDK/GD32VW55x_RELEASE_V1.0.2/MSDK/plf/GD32VW55x_standard_peripheral/Source\gd32vw55x_cau.c **** */
 381:C:/Users/stapi/OneDrive/Desktop/GD32VW553/GD32VW55X_Wifi_BLE_SDK/GD32VW55x_RELEASE_V1.0.2/MSDK/plf/GD32VW55x_standard_peripheral/Source\gd32vw55x_cau.c **** void cau_fifo_flush(void)
 382:C:/Users/stapi/OneDrive/Desktop/GD32VW553/GD32VW55X_Wifi_BLE_SDK/GD32VW55x_RELEASE_V1.0.2/MSDK/plf/GD32VW55x_standard_peripheral/Source\gd32vw55x_cau.c **** {
 523              		.loc 1 382 1 is_stmt 1
 524              		.cfi_startproc
 383:C:/Users/stapi/OneDrive/Desktop/GD32VW553/GD32VW55X_Wifi_BLE_SDK/GD32VW55x_RELEASE_V1.0.2/MSDK/plf/GD32VW55x_standard_peripheral/Source\gd32vw55x_cau.c ****     /* reset the read and write pointers of the FIFOs */
 384:C:/Users/stapi/OneDrive/Desktop/GD32VW553/GD32VW55X_Wifi_BLE_SDK/GD32VW55x_RELEASE_V1.0.2/MSDK/plf/GD32VW55x_standard_peripheral/Source\gd32vw55x_cau.c ****     CAU_CTL |= CAU_CTL_FFLUSH;
 525              		.loc 1 384 5
 526              		.loc 1 384 13 is_stmt 0
 527 0000 3707064C 		li	a4,1275461632
 528 0004 1C43     		lw	a5,0(a4)
 529 0006 9397E728 		bseti	a5,a5,14
 530 000a 1CC3     		sw	a5,0(a4)
 385:C:/Users/stapi/OneDrive/Desktop/GD32VW553/GD32VW55X_Wifi_BLE_SDK/GD32VW55x_RELEASE_V1.0.2/MSDK/plf/GD32VW55x_standard_peripheral/Source\gd32vw55x_cau.c **** }
 531              		.loc 1 385 1
 532 000c 8280     		ret
 533              		.cfi_endproc
 534              	.LFE379:
 536              		.section	.text.cau_enable_state_get,"ax",@progbits
 537              		.align	1
 538              		.globl	cau_enable_state_get
 540              	cau_enable_state_get:
 541              	.LFB380:
 386:C:/Users/stapi/OneDrive/Desktop/GD32VW553/GD32VW55X_Wifi_BLE_SDK/GD32VW55x_RELEASE_V1.0.2/MSDK/plf/GD32VW55x_standard_peripheral/Source\gd32vw55x_cau.c **** 
 387:C:/Users/stapi/OneDrive/Desktop/GD32VW553/GD32VW55X_Wifi_BLE_SDK/GD32VW55x_RELEASE_V1.0.2/MSDK/plf/GD32VW55x_standard_peripheral/Source\gd32vw55x_cau.c **** /*!
 388:C:/Users/stapi/OneDrive/Desktop/GD32VW553/GD32VW55X_Wifi_BLE_SDK/GD32VW55x_RELEASE_V1.0.2/MSDK/plf/GD32VW55x_standard_peripheral/Source\gd32vw55x_cau.c ****     \brief      return whether CAU peripheral is enabled or disabled
 389:C:/Users/stapi/OneDrive/Desktop/GD32VW553/GD32VW55X_Wifi_BLE_SDK/GD32VW55x_RELEASE_V1.0.2/MSDK/plf/GD32VW55x_standard_peripheral/Source\gd32vw55x_cau.c ****     \param[in]  none
 390:C:/Users/stapi/OneDrive/Desktop/GD32VW553/GD32VW55X_Wifi_BLE_SDK/GD32VW55x_RELEASE_V1.0.2/MSDK/plf/GD32VW55x_standard_peripheral/Source\gd32vw55x_cau.c ****     \param[out] none
 391:C:/Users/stapi/OneDrive/Desktop/GD32VW553/GD32VW55X_Wifi_BLE_SDK/GD32VW55x_RELEASE_V1.0.2/MSDK/plf/GD32VW55x_standard_peripheral/Source\gd32vw55x_cau.c ****     \retval     ControlStatus: ENABLE or DISABLE
 392:C:/Users/stapi/OneDrive/Desktop/GD32VW553/GD32VW55X_Wifi_BLE_SDK/GD32VW55x_RELEASE_V1.0.2/MSDK/plf/GD32VW55x_standard_peripheral/Source\gd32vw55x_cau.c **** */
 393:C:/Users/stapi/OneDrive/Desktop/GD32VW553/GD32VW55X_Wifi_BLE_SDK/GD32VW55x_RELEASE_V1.0.2/MSDK/plf/GD32VW55x_standard_peripheral/Source\gd32vw55x_cau.c **** ControlStatus cau_enable_state_get(void)
 394:C:/Users/stapi/OneDrive/Desktop/GD32VW553/GD32VW55X_Wifi_BLE_SDK/GD32VW55x_RELEASE_V1.0.2/MSDK/plf/GD32VW55x_standard_peripheral/Source\gd32vw55x_cau.c **** {
 542              		.loc 1 394 1 is_stmt 1
 543              		.cfi_startproc
 395:C:/Users/stapi/OneDrive/Desktop/GD32VW553/GD32VW55X_Wifi_BLE_SDK/GD32VW55x_RELEASE_V1.0.2/MSDK/plf/GD32VW55x_standard_peripheral/Source\gd32vw55x_cau.c ****     ControlStatus ret = DISABLE;
 544              		.loc 1 395 5
 545              	.LVL18:
 396:C:/Users/stapi/OneDrive/Desktop/GD32VW553/GD32VW55X_Wifi_BLE_SDK/GD32VW55x_RELEASE_V1.0.2/MSDK/plf/GD32VW55x_standard_peripheral/Source\gd32vw55x_cau.c ****     if(RESET != (CAU_CTL & CAU_CTL_CAUEN)) {
 546              		.loc 1 396 5
 547              		.loc 1 396 18 is_stmt 0
 548 0000 B707064C 		li	a5,1275461632
 549 0004 8843     		lw	a0,0(a5)
 550              	.LVL19:
 397:C:/Users/stapi/OneDrive/Desktop/GD32VW553/GD32VW55X_Wifi_BLE_SDK/GD32VW55x_RELEASE_V1.0.2/MSDK/plf/GD32VW55x_standard_peripheral/Source\gd32vw55x_cau.c ****         ret = ENABLE;
 398:C:/Users/stapi/OneDrive/Desktop/GD32VW553/GD32VW55X_Wifi_BLE_SDK/GD32VW55x_RELEASE_V1.0.2/MSDK/plf/GD32VW55x_standard_peripheral/Source\gd32vw55x_cau.c ****     }
 399:C:/Users/stapi/OneDrive/Desktop/GD32VW553/GD32VW55X_Wifi_BLE_SDK/GD32VW55x_RELEASE_V1.0.2/MSDK/plf/GD32VW55x_standard_peripheral/Source\gd32vw55x_cau.c ****     return ret;
 551              		.loc 1 399 5 is_stmt 1
 400:C:/Users/stapi/OneDrive/Desktop/GD32VW553/GD32VW55X_Wifi_BLE_SDK/GD32VW55x_RELEASE_V1.0.2/MSDK/plf/GD32VW55x_standard_peripheral/Source\gd32vw55x_cau.c **** }
 552              		.loc 1 400 1 is_stmt 0
 553 0006 1355F548 		bexti	a0,a0,15
 554              	.LVL20:
 555 000a 8280     		ret
 556              		.cfi_endproc
 557              	.LFE380:
 559              		.section	.text.cau_data_write,"ax",@progbits
 560              		.align	1
 561              		.globl	cau_data_write
 563              	cau_data_write:
 564              	.LFB381:
 401:C:/Users/stapi/OneDrive/Desktop/GD32VW553/GD32VW55X_Wifi_BLE_SDK/GD32VW55x_RELEASE_V1.0.2/MSDK/plf/GD32VW55x_standard_peripheral/Source\gd32vw55x_cau.c **** 
 402:C:/Users/stapi/OneDrive/Desktop/GD32VW553/GD32VW55X_Wifi_BLE_SDK/GD32VW55x_RELEASE_V1.0.2/MSDK/plf/GD32VW55x_standard_peripheral/Source\gd32vw55x_cau.c **** /*!
 403:C:/Users/stapi/OneDrive/Desktop/GD32VW553/GD32VW55X_Wifi_BLE_SDK/GD32VW55x_RELEASE_V1.0.2/MSDK/plf/GD32VW55x_standard_peripheral/Source\gd32vw55x_cau.c ****     \brief      write data to the IN FIFO
 404:C:/Users/stapi/OneDrive/Desktop/GD32VW553/GD32VW55X_Wifi_BLE_SDK/GD32VW55x_RELEASE_V1.0.2/MSDK/plf/GD32VW55x_standard_peripheral/Source\gd32vw55x_cau.c ****     \param[in]  data: data to write (0 - 0xFFFFFFFF)
 405:C:/Users/stapi/OneDrive/Desktop/GD32VW553/GD32VW55X_Wifi_BLE_SDK/GD32VW55x_RELEASE_V1.0.2/MSDK/plf/GD32VW55x_standard_peripheral/Source\gd32vw55x_cau.c ****     \param[out] none
 406:C:/Users/stapi/OneDrive/Desktop/GD32VW553/GD32VW55X_Wifi_BLE_SDK/GD32VW55x_RELEASE_V1.0.2/MSDK/plf/GD32VW55x_standard_peripheral/Source\gd32vw55x_cau.c ****     \retval     none
 407:C:/Users/stapi/OneDrive/Desktop/GD32VW553/GD32VW55X_Wifi_BLE_SDK/GD32VW55x_RELEASE_V1.0.2/MSDK/plf/GD32VW55x_standard_peripheral/Source\gd32vw55x_cau.c **** */
 408:C:/Users/stapi/OneDrive/Desktop/GD32VW553/GD32VW55X_Wifi_BLE_SDK/GD32VW55x_RELEASE_V1.0.2/MSDK/plf/GD32VW55x_standard_peripheral/Source\gd32vw55x_cau.c **** void cau_data_write(uint32_t data)
 409:C:/Users/stapi/OneDrive/Desktop/GD32VW553/GD32VW55X_Wifi_BLE_SDK/GD32VW55x_RELEASE_V1.0.2/MSDK/plf/GD32VW55x_standard_peripheral/Source\gd32vw55x_cau.c **** {
 565              		.loc 1 409 1 is_stmt 1
 566              		.cfi_startproc
 567              	.LVL21:
 410:C:/Users/stapi/OneDrive/Desktop/GD32VW553/GD32VW55X_Wifi_BLE_SDK/GD32VW55x_RELEASE_V1.0.2/MSDK/plf/GD32VW55x_standard_peripheral/Source\gd32vw55x_cau.c ****     CAU_DI = data;
 568              		.loc 1 410 5
 569              		.loc 1 410 12 is_stmt 0
 570 0000 B707064C 		li	a5,1275461632
 571 0004 88C7     		sw	a0,8(a5)
 411:C:/Users/stapi/OneDrive/Desktop/GD32VW553/GD32VW55X_Wifi_BLE_SDK/GD32VW55x_RELEASE_V1.0.2/MSDK/plf/GD32VW55x_standard_peripheral/Source\gd32vw55x_cau.c **** }
 572              		.loc 1 411 1
 573 0006 8280     		ret
 574              		.cfi_endproc
 575              	.LFE381:
 577              		.section	.text.cau_data_read,"ax",@progbits
 578              		.align	1
 579              		.globl	cau_data_read
 581              	cau_data_read:
 582              	.LFB382:
 412:C:/Users/stapi/OneDrive/Desktop/GD32VW553/GD32VW55X_Wifi_BLE_SDK/GD32VW55x_RELEASE_V1.0.2/MSDK/plf/GD32VW55x_standard_peripheral/Source\gd32vw55x_cau.c **** 
 413:C:/Users/stapi/OneDrive/Desktop/GD32VW553/GD32VW55X_Wifi_BLE_SDK/GD32VW55x_RELEASE_V1.0.2/MSDK/plf/GD32VW55x_standard_peripheral/Source\gd32vw55x_cau.c **** /*!
 414:C:/Users/stapi/OneDrive/Desktop/GD32VW553/GD32VW55X_Wifi_BLE_SDK/GD32VW55x_RELEASE_V1.0.2/MSDK/plf/GD32VW55x_standard_peripheral/Source\gd32vw55x_cau.c ****     \brief      return the last data entered into the output FIFO
 415:C:/Users/stapi/OneDrive/Desktop/GD32VW553/GD32VW55X_Wifi_BLE_SDK/GD32VW55x_RELEASE_V1.0.2/MSDK/plf/GD32VW55x_standard_peripheral/Source\gd32vw55x_cau.c ****     \param[in]  none
 416:C:/Users/stapi/OneDrive/Desktop/GD32VW553/GD32VW55X_Wifi_BLE_SDK/GD32VW55x_RELEASE_V1.0.2/MSDK/plf/GD32VW55x_standard_peripheral/Source\gd32vw55x_cau.c ****     \param[out] none
 417:C:/Users/stapi/OneDrive/Desktop/GD32VW553/GD32VW55X_Wifi_BLE_SDK/GD32VW55x_RELEASE_V1.0.2/MSDK/plf/GD32VW55x_standard_peripheral/Source\gd32vw55x_cau.c ****     \retval     last data entered into the output FIFO
 418:C:/Users/stapi/OneDrive/Desktop/GD32VW553/GD32VW55X_Wifi_BLE_SDK/GD32VW55x_RELEASE_V1.0.2/MSDK/plf/GD32VW55x_standard_peripheral/Source\gd32vw55x_cau.c **** */
 419:C:/Users/stapi/OneDrive/Desktop/GD32VW553/GD32VW55X_Wifi_BLE_SDK/GD32VW55x_RELEASE_V1.0.2/MSDK/plf/GD32VW55x_standard_peripheral/Source\gd32vw55x_cau.c **** uint32_t cau_data_read(void)
 420:C:/Users/stapi/OneDrive/Desktop/GD32VW553/GD32VW55X_Wifi_BLE_SDK/GD32VW55x_RELEASE_V1.0.2/MSDK/plf/GD32VW55x_standard_peripheral/Source\gd32vw55x_cau.c **** {
 583              		.loc 1 420 1 is_stmt 1
 584              		.cfi_startproc
 421:C:/Users/stapi/OneDrive/Desktop/GD32VW553/GD32VW55X_Wifi_BLE_SDK/GD32VW55x_RELEASE_V1.0.2/MSDK/plf/GD32VW55x_standard_peripheral/Source\gd32vw55x_cau.c ****     return CAU_DO;
 585              		.loc 1 421 5
 586              		.loc 1 421 12 is_stmt 0
 587 0000 B707064C 		li	a5,1275461632
 588 0004 C847     		lw	a0,12(a5)
 422:C:/Users/stapi/OneDrive/Desktop/GD32VW553/GD32VW55X_Wifi_BLE_SDK/GD32VW55x_RELEASE_V1.0.2/MSDK/plf/GD32VW55x_standard_peripheral/Source\gd32vw55x_cau.c **** }
 589              		.loc 1 422 1
 590 0006 8280     		ret
 591              		.cfi_endproc
 592              	.LFE382:
 594              		.section	.text.cau_context_save,"ax",@progbits
 595              		.align	1
 596              		.globl	cau_context_save
 598              	cau_context_save:
 599              	.LFB383:
 423:C:/Users/stapi/OneDrive/Desktop/GD32VW553/GD32VW55X_Wifi_BLE_SDK/GD32VW55x_RELEASE_V1.0.2/MSDK/plf/GD32VW55x_standard_peripheral/Source\gd32vw55x_cau.c **** 
 424:C:/Users/stapi/OneDrive/Desktop/GD32VW553/GD32VW55X_Wifi_BLE_SDK/GD32VW55x_RELEASE_V1.0.2/MSDK/plf/GD32VW55x_standard_peripheral/Source\gd32vw55x_cau.c **** /*!
 425:C:/Users/stapi/OneDrive/Desktop/GD32VW553/GD32VW55X_Wifi_BLE_SDK/GD32VW55x_RELEASE_V1.0.2/MSDK/plf/GD32VW55x_standard_peripheral/Source\gd32vw55x_cau.c ****     \brief      save context before context switching
 426:C:/Users/stapi/OneDrive/Desktop/GD32VW553/GD32VW55X_Wifi_BLE_SDK/GD32VW55x_RELEASE_V1.0.2/MSDK/plf/GD32VW55x_standard_peripheral/Source\gd32vw55x_cau.c ****     \param[in]  key_initpara: key init parameter struct
 427:C:/Users/stapi/OneDrive/Desktop/GD32VW553/GD32VW55X_Wifi_BLE_SDK/GD32VW55x_RELEASE_V1.0.2/MSDK/plf/GD32VW55x_standard_peripheral/Source\gd32vw55x_cau.c ****                   key_0_high: key 0 high
 428:C:/Users/stapi/OneDrive/Desktop/GD32VW553/GD32VW55X_Wifi_BLE_SDK/GD32VW55x_RELEASE_V1.0.2/MSDK/plf/GD32VW55x_standard_peripheral/Source\gd32vw55x_cau.c ****                   key_0_low:  key 0 low
 429:C:/Users/stapi/OneDrive/Desktop/GD32VW553/GD32VW55X_Wifi_BLE_SDK/GD32VW55x_RELEASE_V1.0.2/MSDK/plf/GD32VW55x_standard_peripheral/Source\gd32vw55x_cau.c ****                   key_1_high: key 1 high
 430:C:/Users/stapi/OneDrive/Desktop/GD32VW553/GD32VW55X_Wifi_BLE_SDK/GD32VW55x_RELEASE_V1.0.2/MSDK/plf/GD32VW55x_standard_peripheral/Source\gd32vw55x_cau.c ****                   key_1_low:  key 1 low
 431:C:/Users/stapi/OneDrive/Desktop/GD32VW553/GD32VW55X_Wifi_BLE_SDK/GD32VW55x_RELEASE_V1.0.2/MSDK/plf/GD32VW55x_standard_peripheral/Source\gd32vw55x_cau.c ****                   key_2_high: key 2 high
 432:C:/Users/stapi/OneDrive/Desktop/GD32VW553/GD32VW55X_Wifi_BLE_SDK/GD32VW55x_RELEASE_V1.0.2/MSDK/plf/GD32VW55x_standard_peripheral/Source\gd32vw55x_cau.c ****                   key_2_low:  key 2 low
 433:C:/Users/stapi/OneDrive/Desktop/GD32VW553/GD32VW55X_Wifi_BLE_SDK/GD32VW55x_RELEASE_V1.0.2/MSDK/plf/GD32VW55x_standard_peripheral/Source\gd32vw55x_cau.c ****                   key_3_high: key 3 high
 434:C:/Users/stapi/OneDrive/Desktop/GD32VW553/GD32VW55X_Wifi_BLE_SDK/GD32VW55x_RELEASE_V1.0.2/MSDK/plf/GD32VW55x_standard_peripheral/Source\gd32vw55x_cau.c ****                   key_3_low:  key 3 low
 435:C:/Users/stapi/OneDrive/Desktop/GD32VW553/GD32VW55X_Wifi_BLE_SDK/GD32VW55x_RELEASE_V1.0.2/MSDK/plf/GD32VW55x_standard_peripheral/Source\gd32vw55x_cau.c ****     \param[out] cau_context:
 436:C:/Users/stapi/OneDrive/Desktop/GD32VW553/GD32VW55X_Wifi_BLE_SDK/GD32VW55x_RELEASE_V1.0.2/MSDK/plf/GD32VW55x_standard_peripheral/Source\gd32vw55x_cau.c ****                   ctl_config: current configuration
 437:C:/Users/stapi/OneDrive/Desktop/GD32VW553/GD32VW55X_Wifi_BLE_SDK/GD32VW55x_RELEASE_V1.0.2/MSDK/plf/GD32VW55x_standard_peripheral/Source\gd32vw55x_cau.c ****                   iv_0_high: init vector 0 high
 438:C:/Users/stapi/OneDrive/Desktop/GD32VW553/GD32VW55X_Wifi_BLE_SDK/GD32VW55x_RELEASE_V1.0.2/MSDK/plf/GD32VW55x_standard_peripheral/Source\gd32vw55x_cau.c ****                   iv_0_low:  init vector 0 low
 439:C:/Users/stapi/OneDrive/Desktop/GD32VW553/GD32VW55X_Wifi_BLE_SDK/GD32VW55x_RELEASE_V1.0.2/MSDK/plf/GD32VW55x_standard_peripheral/Source\gd32vw55x_cau.c ****                   iv_1_high: init vector 1 high
 440:C:/Users/stapi/OneDrive/Desktop/GD32VW553/GD32VW55X_Wifi_BLE_SDK/GD32VW55x_RELEASE_V1.0.2/MSDK/plf/GD32VW55x_standard_peripheral/Source\gd32vw55x_cau.c ****                   iv_1_low:  init vector 1 low
 441:C:/Users/stapi/OneDrive/Desktop/GD32VW553/GD32VW55X_Wifi_BLE_SDK/GD32VW55x_RELEASE_V1.0.2/MSDK/plf/GD32VW55x_standard_peripheral/Source\gd32vw55x_cau.c ****                   key_0_high: key 0 high
 442:C:/Users/stapi/OneDrive/Desktop/GD32VW553/GD32VW55X_Wifi_BLE_SDK/GD32VW55x_RELEASE_V1.0.2/MSDK/plf/GD32VW55x_standard_peripheral/Source\gd32vw55x_cau.c ****                   key_0_low:  key 0 low
 443:C:/Users/stapi/OneDrive/Desktop/GD32VW553/GD32VW55X_Wifi_BLE_SDK/GD32VW55x_RELEASE_V1.0.2/MSDK/plf/GD32VW55x_standard_peripheral/Source\gd32vw55x_cau.c ****                   key_1_high: key 1 high
 444:C:/Users/stapi/OneDrive/Desktop/GD32VW553/GD32VW55X_Wifi_BLE_SDK/GD32VW55x_RELEASE_V1.0.2/MSDK/plf/GD32VW55x_standard_peripheral/Source\gd32vw55x_cau.c ****                   key_1_low:  key 1 low
 445:C:/Users/stapi/OneDrive/Desktop/GD32VW553/GD32VW55X_Wifi_BLE_SDK/GD32VW55x_RELEASE_V1.0.2/MSDK/plf/GD32VW55x_standard_peripheral/Source\gd32vw55x_cau.c ****                   key_2_high: key 2 high
 446:C:/Users/stapi/OneDrive/Desktop/GD32VW553/GD32VW55X_Wifi_BLE_SDK/GD32VW55x_RELEASE_V1.0.2/MSDK/plf/GD32VW55x_standard_peripheral/Source\gd32vw55x_cau.c ****                   key_2_low:  key 2 low
 447:C:/Users/stapi/OneDrive/Desktop/GD32VW553/GD32VW55X_Wifi_BLE_SDK/GD32VW55x_RELEASE_V1.0.2/MSDK/plf/GD32VW55x_standard_peripheral/Source\gd32vw55x_cau.c ****                   key_3_high: key 3 high
 448:C:/Users/stapi/OneDrive/Desktop/GD32VW553/GD32VW55X_Wifi_BLE_SDK/GD32VW55x_RELEASE_V1.0.2/MSDK/plf/GD32VW55x_standard_peripheral/Source\gd32vw55x_cau.c ****                   key_3_low:  key 3 low
 449:C:/Users/stapi/OneDrive/Desktop/GD32VW553/GD32VW55X_Wifi_BLE_SDK/GD32VW55x_RELEASE_V1.0.2/MSDK/plf/GD32VW55x_standard_peripheral/Source\gd32vw55x_cau.c ****                   gcmccmctxs[8]: GCM or CCM mode context switch
 450:C:/Users/stapi/OneDrive/Desktop/GD32VW553/GD32VW55X_Wifi_BLE_SDK/GD32VW55x_RELEASE_V1.0.2/MSDK/plf/GD32VW55x_standard_peripheral/Source\gd32vw55x_cau.c ****                   gcmctxs[8]: GCM mode context switch
 451:C:/Users/stapi/OneDrive/Desktop/GD32VW553/GD32VW55X_Wifi_BLE_SDK/GD32VW55x_RELEASE_V1.0.2/MSDK/plf/GD32VW55x_standard_peripheral/Source\gd32vw55x_cau.c ****     \retval     none
 452:C:/Users/stapi/OneDrive/Desktop/GD32VW553/GD32VW55X_Wifi_BLE_SDK/GD32VW55x_RELEASE_V1.0.2/MSDK/plf/GD32VW55x_standard_peripheral/Source\gd32vw55x_cau.c **** */
 453:C:/Users/stapi/OneDrive/Desktop/GD32VW553/GD32VW55X_Wifi_BLE_SDK/GD32VW55x_RELEASE_V1.0.2/MSDK/plf/GD32VW55x_standard_peripheral/Source\gd32vw55x_cau.c **** void cau_context_save(cau_context_parameter_struct *cau_context, cau_key_parameter_struct *key_init
 454:C:/Users/stapi/OneDrive/Desktop/GD32VW553/GD32VW55X_Wifi_BLE_SDK/GD32VW55x_RELEASE_V1.0.2/MSDK/plf/GD32VW55x_standard_peripheral/Source\gd32vw55x_cau.c **** {
 600              		.loc 1 454 1 is_stmt 1
 601              		.cfi_startproc
 602              	.LVL22:
 455:C:/Users/stapi/OneDrive/Desktop/GD32VW553/GD32VW55X_Wifi_BLE_SDK/GD32VW55x_RELEASE_V1.0.2/MSDK/plf/GD32VW55x_standard_peripheral/Source\gd32vw55x_cau.c ****     uint32_t checkmask = 0U;
 603              		.loc 1 455 5
 456:C:/Users/stapi/OneDrive/Desktop/GD32VW553/GD32VW55X_Wifi_BLE_SDK/GD32VW55x_RELEASE_V1.0.2/MSDK/plf/GD32VW55x_standard_peripheral/Source\gd32vw55x_cau.c ****     uint32_t checkbits = 0U;
 604              		.loc 1 456 5
 457:C:/Users/stapi/OneDrive/Desktop/GD32VW553/GD32VW55X_Wifi_BLE_SDK/GD32VW55x_RELEASE_V1.0.2/MSDK/plf/GD32VW55x_standard_peripheral/Source\gd32vw55x_cau.c ****     uint32_t algm_reg = 0U;
 605              		.loc 1 457 5
 458:C:/Users/stapi/OneDrive/Desktop/GD32VW553/GD32VW55X_Wifi_BLE_SDK/GD32VW55x_RELEASE_V1.0.2/MSDK/plf/GD32VW55x_standard_peripheral/Source\gd32vw55x_cau.c **** 
 459:C:/Users/stapi/OneDrive/Desktop/GD32VW553/GD32VW55X_Wifi_BLE_SDK/GD32VW55x_RELEASE_V1.0.2/MSDK/plf/GD32VW55x_standard_peripheral/Source\gd32vw55x_cau.c ****     /* stop DMA transfers on the IN FIFO by clearing the DMAIEN bit in the CAU_DMAEN */
 460:C:/Users/stapi/OneDrive/Desktop/GD32VW553/GD32VW55X_Wifi_BLE_SDK/GD32VW55x_RELEASE_V1.0.2/MSDK/plf/GD32VW55x_standard_peripheral/Source\gd32vw55x_cau.c ****     CAU_DMAEN &= ~CAU_DMA_INFIFO;
 606              		.loc 1 460 5
 607              		.loc 1 460 15 is_stmt 0
 608 0000 B707064C 		li	a5,1275461632
 609 0004 984B     		lw	a4,16(a5)
 461:C:/Users/stapi/OneDrive/Desktop/GD32VW553/GD32VW55X_Wifi_BLE_SDK/GD32VW55x_RELEASE_V1.0.2/MSDK/plf/GD32VW55x_standard_peripheral/Source\gd32vw55x_cau.c **** 
 462:C:/Users/stapi/OneDrive/Desktop/GD32VW553/GD32VW55X_Wifi_BLE_SDK/GD32VW55x_RELEASE_V1.0.2/MSDK/plf/GD32VW55x_standard_peripheral/Source\gd32vw55x_cau.c ****     algm_reg = CAU_CTL & CAU_CTL_ALGM;
 463:C:/Users/stapi/OneDrive/Desktop/GD32VW553/GD32VW55X_Wifi_BLE_SDK/GD32VW55x_RELEASE_V1.0.2/MSDK/plf/GD32VW55x_standard_peripheral/Source\gd32vw55x_cau.c ****     /* AES or DES */
 464:C:/Users/stapi/OneDrive/Desktop/GD32VW553/GD32VW55X_Wifi_BLE_SDK/GD32VW55x_RELEASE_V1.0.2/MSDK/plf/GD32VW55x_standard_peripheral/Source\gd32vw55x_cau.c ****     if((uint32_t)0 != (algm_reg & (~CAU_MODE_TDES_CBC))) {
 465:C:/Users/stapi/OneDrive/Desktop/GD32VW553/GD32VW55X_Wifi_BLE_SDK/GD32VW55x_RELEASE_V1.0.2/MSDK/plf/GD32VW55x_standard_peripheral/Source\gd32vw55x_cau.c ****         /* wait until both the IN and OUT FIFOs are empty (IEM=1 and ONE=0 in the CAU_STAT0 registe
 466:C:/Users/stapi/OneDrive/Desktop/GD32VW553/GD32VW55X_Wifi_BLE_SDK/GD32VW55x_RELEASE_V1.0.2/MSDK/plf/GD32VW55x_standard_peripheral/Source\gd32vw55x_cau.c ****         checkbits = CAU_STAT0_IEM;
 467:C:/Users/stapi/OneDrive/Desktop/GD32VW553/GD32VW55X_Wifi_BLE_SDK/GD32VW55x_RELEASE_V1.0.2/MSDK/plf/GD32VW55x_standard_peripheral/Source\gd32vw55x_cau.c ****         checkmask = STAT0_AESDES_MASK;
 468:C:/Users/stapi/OneDrive/Desktop/GD32VW553/GD32VW55X_Wifi_BLE_SDK/GD32VW55x_RELEASE_V1.0.2/MSDK/plf/GD32VW55x_standard_peripheral/Source\gd32vw55x_cau.c ****         /* TDES */
 469:C:/Users/stapi/OneDrive/Desktop/GD32VW553/GD32VW55X_Wifi_BLE_SDK/GD32VW55x_RELEASE_V1.0.2/MSDK/plf/GD32VW55x_standard_peripheral/Source\gd32vw55x_cau.c ****     } else {
 470:C:/Users/stapi/OneDrive/Desktop/GD32VW553/GD32VW55X_Wifi_BLE_SDK/GD32VW55x_RELEASE_V1.0.2/MSDK/plf/GD32VW55x_standard_peripheral/Source\gd32vw55x_cau.c ****         /* wait until OUT FIFO is empty (ONE=0 in the CAU_STAT0 register) and BUSY=0 */
 471:C:/Users/stapi/OneDrive/Desktop/GD32VW553/GD32VW55X_Wifi_BLE_SDK/GD32VW55x_RELEASE_V1.0.2/MSDK/plf/GD32VW55x_standard_peripheral/Source\gd32vw55x_cau.c ****         checkbits = 0U;
 472:C:/Users/stapi/OneDrive/Desktop/GD32VW553/GD32VW55X_Wifi_BLE_SDK/GD32VW55x_RELEASE_V1.0.2/MSDK/plf/GD32VW55x_standard_peripheral/Source\gd32vw55x_cau.c ****         checkmask = STAT0_TDES_MASK;
 610              		.loc 1 472 19
 611 0006 5148     		li	a6,20
 460:C:/Users/stapi/OneDrive/Desktop/GD32VW553/GD32VW55X_Wifi_BLE_SDK/GD32VW55x_RELEASE_V1.0.2/MSDK/plf/GD32VW55x_standard_peripheral/Source\gd32vw55x_cau.c **** 
 612              		.loc 1 460 15
 613 0008 799B     		andi	a4,a4,-2
 614 000a 98CB     		sw	a4,16(a5)
 462:C:/Users/stapi/OneDrive/Desktop/GD32VW553/GD32VW55X_Wifi_BLE_SDK/GD32VW55x_RELEASE_V1.0.2/MSDK/plf/GD32VW55x_standard_peripheral/Source\gd32vw55x_cau.c ****     /* AES or DES */
 615              		.loc 1 462 5 is_stmt 1
 462:C:/Users/stapi/OneDrive/Desktop/GD32VW553/GD32VW55X_Wifi_BLE_SDK/GD32VW55x_RELEASE_V1.0.2/MSDK/plf/GD32VW55x_standard_peripheral/Source\gd32vw55x_cau.c ****     /* AES or DES */
 616              		.loc 1 462 16 is_stmt 0
 617 000c 9443     		lw	a3,0(a5)
 462:C:/Users/stapi/OneDrive/Desktop/GD32VW553/GD32VW55X_Wifi_BLE_SDK/GD32VW55x_RELEASE_V1.0.2/MSDK/plf/GD32VW55x_standard_peripheral/Source\gd32vw55x_cau.c ****     /* AES or DES */
 618              		.loc 1 462 14
 619 000e B7070800 		li	a5,524288
 620 0012 13878703 		addi	a4,a5,56
 464:C:/Users/stapi/OneDrive/Desktop/GD32VW553/GD32VW55X_Wifi_BLE_SDK/GD32VW55x_RELEASE_V1.0.2/MSDK/plf/GD32VW55x_standard_peripheral/Source\gd32vw55x_cau.c ****         /* wait until both the IN and OUT FIFOs are empty (IEM=1 and ONE=0 in the CAU_STAT0 registe
 621              		.loc 1 464 33
 622 0016 93870703 		addi	a5,a5,48
 462:C:/Users/stapi/OneDrive/Desktop/GD32VW553/GD32VW55X_Wifi_BLE_SDK/GD32VW55x_RELEASE_V1.0.2/MSDK/plf/GD32VW55x_standard_peripheral/Source\gd32vw55x_cau.c ****     /* AES or DES */
 623              		.loc 1 462 14
 624 001a 758F     		and	a4,a3,a4
 625              	.LVL23:
 464:C:/Users/stapi/OneDrive/Desktop/GD32VW553/GD32VW55X_Wifi_BLE_SDK/GD32VW55x_RELEASE_V1.0.2/MSDK/plf/GD32VW55x_standard_peripheral/Source\gd32vw55x_cau.c ****         /* wait until both the IN and OUT FIFOs are empty (IEM=1 and ONE=0 in the CAU_STAT0 registe
 626              		.loc 1 464 5 is_stmt 1
 464:C:/Users/stapi/OneDrive/Desktop/GD32VW553/GD32VW55X_Wifi_BLE_SDK/GD32VW55x_RELEASE_V1.0.2/MSDK/plf/GD32VW55x_standard_peripheral/Source\gd32vw55x_cau.c ****         /* wait until both the IN and OUT FIFOs are empty (IEM=1 and ONE=0 in the CAU_STAT0 registe
 627              		.loc 1 464 33 is_stmt 0
 628 001c FD8E     		and	a3,a3,a5
 464:C:/Users/stapi/OneDrive/Desktop/GD32VW553/GD32VW55X_Wifi_BLE_SDK/GD32VW55x_RELEASE_V1.0.2/MSDK/plf/GD32VW55x_standard_peripheral/Source\gd32vw55x_cau.c ****         /* wait until both the IN and OUT FIFOs are empty (IEM=1 and ONE=0 in the CAU_STAT0 registe
 629              		.loc 1 464 7
 630 001e 99C2     		beq	a3,zero,.L21
 466:C:/Users/stapi/OneDrive/Desktop/GD32VW553/GD32VW55X_Wifi_BLE_SDK/GD32VW55x_RELEASE_V1.0.2/MSDK/plf/GD32VW55x_standard_peripheral/Source\gd32vw55x_cau.c ****         checkmask = STAT0_AESDES_MASK;
 631              		.loc 1 466 19
 632 0020 8546     		li	a3,1
 467:C:/Users/stapi/OneDrive/Desktop/GD32VW553/GD32VW55X_Wifi_BLE_SDK/GD32VW55x_RELEASE_V1.0.2/MSDK/plf/GD32VW55x_standard_peripheral/Source\gd32vw55x_cau.c ****         /* TDES */
 633              		.loc 1 467 19
 634 0022 5548     		li	a6,21
 635              	.L21:
 636              	.LVL24:
 473:C:/Users/stapi/OneDrive/Desktop/GD32VW553/GD32VW55X_Wifi_BLE_SDK/GD32VW55x_RELEASE_V1.0.2/MSDK/plf/GD32VW55x_standard_peripheral/Source\gd32vw55x_cau.c ****     }
 474:C:/Users/stapi/OneDrive/Desktop/GD32VW553/GD32VW55X_Wifi_BLE_SDK/GD32VW55x_RELEASE_V1.0.2/MSDK/plf/GD32VW55x_standard_peripheral/Source\gd32vw55x_cau.c **** 
 475:C:/Users/stapi/OneDrive/Desktop/GD32VW553/GD32VW55X_Wifi_BLE_SDK/GD32VW55x_RELEASE_V1.0.2/MSDK/plf/GD32VW55x_standard_peripheral/Source\gd32vw55x_cau.c ****     while((CAU_STAT0 & checkmask) != checkbits) {
 637              		.loc 1 475 12 discriminator 1
 638 0024 B707064C 		li	a5,1275461632
 639              	.L22:
 640              	.LVL25:
 476:C:/Users/stapi/OneDrive/Desktop/GD32VW553/GD32VW55X_Wifi_BLE_SDK/GD32VW55x_RELEASE_V1.0.2/MSDK/plf/GD32VW55x_standard_peripheral/Source\gd32vw55x_cau.c ****     }
 641              		.loc 1 476 5 is_stmt 1 discriminator 1
 475:C:/Users/stapi/OneDrive/Desktop/GD32VW553/GD32VW55X_Wifi_BLE_SDK/GD32VW55x_RELEASE_V1.0.2/MSDK/plf/GD32VW55x_standard_peripheral/Source\gd32vw55x_cau.c ****     }
 642              		.loc 1 475 10 discriminator 1
 475:C:/Users/stapi/OneDrive/Desktop/GD32VW553/GD32VW55X_Wifi_BLE_SDK/GD32VW55x_RELEASE_V1.0.2/MSDK/plf/GD32VW55x_standard_peripheral/Source\gd32vw55x_cau.c ****     }
 643              		.loc 1 475 12 is_stmt 0 discriminator 1
 644 0028 D043     		lw	a2,4(a5)
 475:C:/Users/stapi/OneDrive/Desktop/GD32VW553/GD32VW55X_Wifi_BLE_SDK/GD32VW55x_RELEASE_V1.0.2/MSDK/plf/GD32VW55x_standard_peripheral/Source\gd32vw55x_cau.c ****     }
 645              		.loc 1 475 22 discriminator 1
 646 002a 33760601 		and	a2,a2,a6
 475:C:/Users/stapi/OneDrive/Desktop/GD32VW553/GD32VW55X_Wifi_BLE_SDK/GD32VW55x_RELEASE_V1.0.2/MSDK/plf/GD32VW55x_standard_peripheral/Source\gd32vw55x_cau.c ****     }
 647              		.loc 1 475 10 discriminator 1
 648 002e E31DD6FE 		bne	a2,a3,.L22
 477:C:/Users/stapi/OneDrive/Desktop/GD32VW553/GD32VW55X_Wifi_BLE_SDK/GD32VW55x_RELEASE_V1.0.2/MSDK/plf/GD32VW55x_standard_peripheral/Source\gd32vw55x_cau.c **** 
 478:C:/Users/stapi/OneDrive/Desktop/GD32VW553/GD32VW55X_Wifi_BLE_SDK/GD32VW55x_RELEASE_V1.0.2/MSDK/plf/GD32VW55x_standard_peripheral/Source\gd32vw55x_cau.c ****     /* stop DMA transfers on the OUT FIFO by clear CAU_DMAEN_DMAOEN=0 */
 479:C:/Users/stapi/OneDrive/Desktop/GD32VW553/GD32VW55X_Wifi_BLE_SDK/GD32VW55x_RELEASE_V1.0.2/MSDK/plf/GD32VW55x_standard_peripheral/Source\gd32vw55x_cau.c ****     CAU_DMAEN &= ~CAU_DMAEN_DMAOEN;
 649              		.loc 1 479 5 is_stmt 1
 650              		.loc 1 479 15 is_stmt 0
 651 0032 944B     		lw	a3,16(a5)
 652              	.LVL26:
 480:C:/Users/stapi/OneDrive/Desktop/GD32VW553/GD32VW55X_Wifi_BLE_SDK/GD32VW55x_RELEASE_V1.0.2/MSDK/plf/GD32VW55x_standard_peripheral/Source\gd32vw55x_cau.c ****     /* disable CAU */
 481:C:/Users/stapi/OneDrive/Desktop/GD32VW553/GD32VW55X_Wifi_BLE_SDK/GD32VW55x_RELEASE_V1.0.2/MSDK/plf/GD32VW55x_standard_peripheral/Source\gd32vw55x_cau.c ****     CAU_CTL &= ~CAU_CTL_CAUEN;
 482:C:/Users/stapi/OneDrive/Desktop/GD32VW553/GD32VW55X_Wifi_BLE_SDK/GD32VW55x_RELEASE_V1.0.2/MSDK/plf/GD32VW55x_standard_peripheral/Source\gd32vw55x_cau.c **** 
 483:C:/Users/stapi/OneDrive/Desktop/GD32VW553/GD32VW55X_Wifi_BLE_SDK/GD32VW55x_RELEASE_V1.0.2/MSDK/plf/GD32VW55x_standard_peripheral/Source\gd32vw55x_cau.c ****     /* save the current configuration (bit 19, bit[17:16] and bit[9:2] in the CAU_CTL register) */
 484:C:/Users/stapi/OneDrive/Desktop/GD32VW553/GD32VW55X_Wifi_BLE_SDK/GD32VW55x_RELEASE_V1.0.2/MSDK/plf/GD32VW55x_standard_peripheral/Source\gd32vw55x_cau.c ****     cau_context->ctl_config  = CAU_CTL & (CAU_CTL_GCM_CCMPH |
 653              		.loc 1 484 40
 654 0034 3706FB00 		li	a2,16449536
 655 0038 1306C63F 		addi	a2,a2,1020
 479:C:/Users/stapi/OneDrive/Desktop/GD32VW553/GD32VW55X_Wifi_BLE_SDK/GD32VW55x_RELEASE_V1.0.2/MSDK/plf/GD32VW55x_standard_peripheral/Source\gd32vw55x_cau.c ****     /* disable CAU */
 656              		.loc 1 479 15
 657 003c F59A     		andi	a3,a3,-3
 658 003e 94CB     		sw	a3,16(a5)
 481:C:/Users/stapi/OneDrive/Desktop/GD32VW553/GD32VW55X_Wifi_BLE_SDK/GD32VW55x_RELEASE_V1.0.2/MSDK/plf/GD32VW55x_standard_peripheral/Source\gd32vw55x_cau.c **** 
 659              		.loc 1 481 5 is_stmt 1
 481:C:/Users/stapi/OneDrive/Desktop/GD32VW553/GD32VW55X_Wifi_BLE_SDK/GD32VW55x_RELEASE_V1.0.2/MSDK/plf/GD32VW55x_standard_peripheral/Source\gd32vw55x_cau.c **** 
 660              		.loc 1 481 13 is_stmt 0
 661 0040 9443     		lw	a3,0(a5)
 662 0042 9396F648 		bclri	a3,a3,15
 663 0046 94C3     		sw	a3,0(a5)
 664              		.loc 1 484 5 is_stmt 1
 665              		.loc 1 484 32 is_stmt 0
 666 0048 9443     		lw	a3,0(a5)
 667              		.loc 1 484 40
 668 004a F18E     		and	a3,a3,a2
 669              		.loc 1 484 30
 670 004c 14C1     		sw	a3,0(a0)
 485:C:/Users/stapi/OneDrive/Desktop/GD32VW553/GD32VW55X_Wifi_BLE_SDK/GD32VW55x_RELEASE_V1.0.2/MSDK/plf/GD32VW55x_standard_peripheral/Source\gd32vw55x_cau.c ****                                           CAU_CTL_KEYM  |
 486:C:/Users/stapi/OneDrive/Desktop/GD32VW553/GD32VW55X_Wifi_BLE_SDK/GD32VW55x_RELEASE_V1.0.2/MSDK/plf/GD32VW55x_standard_peripheral/Source\gd32vw55x_cau.c ****                                           CAU_CTL_DATAM |
 487:C:/Users/stapi/OneDrive/Desktop/GD32VW553/GD32VW55X_Wifi_BLE_SDK/GD32VW55x_RELEASE_V1.0.2/MSDK/plf/GD32VW55x_standard_peripheral/Source\gd32vw55x_cau.c ****                                           CAU_CTL_ALGM  |
 488:C:/Users/stapi/OneDrive/Desktop/GD32VW553/GD32VW55X_Wifi_BLE_SDK/GD32VW55x_RELEASE_V1.0.2/MSDK/plf/GD32VW55x_standard_peripheral/Source\gd32vw55x_cau.c ****                                           CAU_CTL_CAUDIR |
 489:C:/Users/stapi/OneDrive/Desktop/GD32VW553/GD32VW55X_Wifi_BLE_SDK/GD32VW55x_RELEASE_V1.0.2/MSDK/plf/GD32VW55x_standard_peripheral/Source\gd32vw55x_cau.c ****                                           CAU_CTL_NBPILB);
 490:C:/Users/stapi/OneDrive/Desktop/GD32VW553/GD32VW55X_Wifi_BLE_SDK/GD32VW55x_RELEASE_V1.0.2/MSDK/plf/GD32VW55x_standard_peripheral/Source\gd32vw55x_cau.c **** 
 491:C:/Users/stapi/OneDrive/Desktop/GD32VW553/GD32VW55X_Wifi_BLE_SDK/GD32VW55x_RELEASE_V1.0.2/MSDK/plf/GD32VW55x_standard_peripheral/Source\gd32vw55x_cau.c ****     /* save the key value */
 492:C:/Users/stapi/OneDrive/Desktop/GD32VW553/GD32VW55X_Wifi_BLE_SDK/GD32VW55x_RELEASE_V1.0.2/MSDK/plf/GD32VW55x_standard_peripheral/Source\gd32vw55x_cau.c ****     cau_context->key_0_high = key_initpara->key_0_high;
 671              		.loc 1 492 5 is_stmt 1
 672              		.loc 1 492 29 is_stmt 0
 673 004e 9441     		lw	a3,0(a1)
 674 0050 54C9     		sw	a3,20(a0)
 493:C:/Users/stapi/OneDrive/Desktop/GD32VW553/GD32VW55X_Wifi_BLE_SDK/GD32VW55x_RELEASE_V1.0.2/MSDK/plf/GD32VW55x_standard_peripheral/Source\gd32vw55x_cau.c ****     cau_context->key_0_low  = key_initpara->key_0_low;
 675              		.loc 1 493 5 is_stmt 1
 676              		.loc 1 493 29 is_stmt 0
 677 0052 D441     		lw	a3,4(a1)
 678 0054 14CD     		sw	a3,24(a0)
 494:C:/Users/stapi/OneDrive/Desktop/GD32VW553/GD32VW55X_Wifi_BLE_SDK/GD32VW55x_RELEASE_V1.0.2/MSDK/plf/GD32VW55x_standard_peripheral/Source\gd32vw55x_cau.c ****     cau_context->key_1_high = key_initpara->key_1_high;
 679              		.loc 1 494 5 is_stmt 1
 680              		.loc 1 494 29 is_stmt 0
 681 0056 9445     		lw	a3,8(a1)
 682 0058 54CD     		sw	a3,28(a0)
 495:C:/Users/stapi/OneDrive/Desktop/GD32VW553/GD32VW55X_Wifi_BLE_SDK/GD32VW55x_RELEASE_V1.0.2/MSDK/plf/GD32VW55x_standard_peripheral/Source\gd32vw55x_cau.c ****     cau_context->key_1_low  = key_initpara->key_1_low;
 683              		.loc 1 495 5 is_stmt 1
 684              		.loc 1 495 29 is_stmt 0
 685 005a D445     		lw	a3,12(a1)
 686 005c 14D1     		sw	a3,32(a0)
 496:C:/Users/stapi/OneDrive/Desktop/GD32VW553/GD32VW55X_Wifi_BLE_SDK/GD32VW55x_RELEASE_V1.0.2/MSDK/plf/GD32VW55x_standard_peripheral/Source\gd32vw55x_cau.c ****     cau_context->key_2_high = key_initpara->key_2_high;
 687              		.loc 1 496 5 is_stmt 1
 688              		.loc 1 496 29 is_stmt 0
 689 005e 9449     		lw	a3,16(a1)
 690 0060 54D1     		sw	a3,36(a0)
 497:C:/Users/stapi/OneDrive/Desktop/GD32VW553/GD32VW55X_Wifi_BLE_SDK/GD32VW55x_RELEASE_V1.0.2/MSDK/plf/GD32VW55x_standard_peripheral/Source\gd32vw55x_cau.c ****     cau_context->key_2_low  = key_initpara->key_2_low;
 691              		.loc 1 497 5 is_stmt 1
 692              		.loc 1 497 29 is_stmt 0
 693 0062 D449     		lw	a3,20(a1)
 694 0064 14D5     		sw	a3,40(a0)
 498:C:/Users/stapi/OneDrive/Desktop/GD32VW553/GD32VW55X_Wifi_BLE_SDK/GD32VW55x_RELEASE_V1.0.2/MSDK/plf/GD32VW55x_standard_peripheral/Source\gd32vw55x_cau.c ****     cau_context->key_3_high = key_initpara->key_3_high;
 695              		.loc 1 498 5 is_stmt 1
 696              		.loc 1 498 29 is_stmt 0
 697 0066 944D     		lw	a3,24(a1)
 698 0068 54D5     		sw	a3,44(a0)
 499:C:/Users/stapi/OneDrive/Desktop/GD32VW553/GD32VW55X_Wifi_BLE_SDK/GD32VW55x_RELEASE_V1.0.2/MSDK/plf/GD32VW55x_standard_peripheral/Source\gd32vw55x_cau.c ****     cau_context->key_3_low  = key_initpara->key_3_low;
 699              		.loc 1 499 5 is_stmt 1
 700              		.loc 1 499 29 is_stmt 0
 701 006a D44D     		lw	a3,28(a1)
 702 006c 14D9     		sw	a3,48(a0)
 500:C:/Users/stapi/OneDrive/Desktop/GD32VW553/GD32VW55X_Wifi_BLE_SDK/GD32VW55x_RELEASE_V1.0.2/MSDK/plf/GD32VW55x_standard_peripheral/Source\gd32vw55x_cau.c **** 
 501:C:/Users/stapi/OneDrive/Desktop/GD32VW553/GD32VW55X_Wifi_BLE_SDK/GD32VW55x_RELEASE_V1.0.2/MSDK/plf/GD32VW55x_standard_peripheral/Source\gd32vw55x_cau.c ****     if((CAU_MODE_TDES_ECB != algm_reg) && (CAU_MODE_DES_ECB != algm_reg) && (CAU_MODE_AES_ECB != al
 703              		.loc 1 501 5 is_stmt 1
 704              		.loc 1 501 7 is_stmt 0
 705 006e 3DCF     		beq	a4,zero,.L20
 706              		.loc 1 501 40 discriminator 1
 707 0070 930607FF 		addi	a3,a4,-16
 708 0074 BD9A     		andi	a3,a3,-17
 709 0076 99E6     		bne	a3,zero,.L25
 710              	.L28:
 502:C:/Users/stapi/OneDrive/Desktop/GD32VW553/GD32VW55X_Wifi_BLE_SDK/GD32VW55x_RELEASE_V1.0.2/MSDK/plf/GD32VW55x_standard_peripheral/Source\gd32vw55x_cau.c ****         /* if not in ECB mode, save the initialization vectors */
 503:C:/Users/stapi/OneDrive/Desktop/GD32VW553/GD32VW55X_Wifi_BLE_SDK/GD32VW55x_RELEASE_V1.0.2/MSDK/plf/GD32VW55x_standard_peripheral/Source\gd32vw55x_cau.c ****         cau_context->iv_0_high = CAU_IV0H;
 504:C:/Users/stapi/OneDrive/Desktop/GD32VW553/GD32VW55X_Wifi_BLE_SDK/GD32VW55x_RELEASE_V1.0.2/MSDK/plf/GD32VW55x_standard_peripheral/Source\gd32vw55x_cau.c ****         cau_context->iv_0_low = CAU_IV0L;
 505:C:/Users/stapi/OneDrive/Desktop/GD32VW553/GD32VW55X_Wifi_BLE_SDK/GD32VW55x_RELEASE_V1.0.2/MSDK/plf/GD32VW55x_standard_peripheral/Source\gd32vw55x_cau.c ****         cau_context->iv_1_high = CAU_IV1H;
 506:C:/Users/stapi/OneDrive/Desktop/GD32VW553/GD32VW55X_Wifi_BLE_SDK/GD32VW55x_RELEASE_V1.0.2/MSDK/plf/GD32VW55x_standard_peripheral/Source\gd32vw55x_cau.c ****         cau_context->iv_1_low = CAU_IV1L;
 507:C:/Users/stapi/OneDrive/Desktop/GD32VW553/GD32VW55X_Wifi_BLE_SDK/GD32VW55x_RELEASE_V1.0.2/MSDK/plf/GD32VW55x_standard_peripheral/Source\gd32vw55x_cau.c ****     }
 508:C:/Users/stapi/OneDrive/Desktop/GD32VW553/GD32VW55X_Wifi_BLE_SDK/GD32VW55x_RELEASE_V1.0.2/MSDK/plf/GD32VW55x_standard_peripheral/Source\gd32vw55x_cau.c **** 
 509:C:/Users/stapi/OneDrive/Desktop/GD32VW553/GD32VW55X_Wifi_BLE_SDK/GD32VW55x_RELEASE_V1.0.2/MSDK/plf/GD32VW55x_standard_peripheral/Source\gd32vw55x_cau.c ****     /* if in GCM/CCM mode, save the context switch registers */
 510:C:/Users/stapi/OneDrive/Desktop/GD32VW553/GD32VW55X_Wifi_BLE_SDK/GD32VW55x_RELEASE_V1.0.2/MSDK/plf/GD32VW55x_standard_peripheral/Source\gd32vw55x_cau.c ****     if((CAU_MODE_AES_GCM == algm_reg) || (CAU_MODE_AES_CCM == algm_reg)) {
 711              		.loc 1 510 39
 712 0078 B7070800 		li	a5,524288
 713 007c A107     		addi	a5,a5,8
 714 007e 630FF700 		beq	a4,a5,.L26
 715 0082 8280     		ret
 716              	.L25:
 503:C:/Users/stapi/OneDrive/Desktop/GD32VW553/GD32VW55X_Wifi_BLE_SDK/GD32VW55x_RELEASE_V1.0.2/MSDK/plf/GD32VW55x_standard_peripheral/Source\gd32vw55x_cau.c ****         cau_context->iv_0_low = CAU_IV0L;
 717              		.loc 1 503 9 is_stmt 1
 503:C:/Users/stapi/OneDrive/Desktop/GD32VW553/GD32VW55X_Wifi_BLE_SDK/GD32VW55x_RELEASE_V1.0.2/MSDK/plf/GD32VW55x_standard_peripheral/Source\gd32vw55x_cau.c ****         cau_context->iv_0_low = CAU_IV0L;
 718              		.loc 1 503 34 is_stmt 0
 719 0084 B443     		lw	a3,64(a5)
 503:C:/Users/stapi/OneDrive/Desktop/GD32VW553/GD32VW55X_Wifi_BLE_SDK/GD32VW55x_RELEASE_V1.0.2/MSDK/plf/GD32VW55x_standard_peripheral/Source\gd32vw55x_cau.c ****         cau_context->iv_0_low = CAU_IV0L;
 720              		.loc 1 503 32
 721 0086 54C1     		sw	a3,4(a0)
 504:C:/Users/stapi/OneDrive/Desktop/GD32VW553/GD32VW55X_Wifi_BLE_SDK/GD32VW55x_RELEASE_V1.0.2/MSDK/plf/GD32VW55x_standard_peripheral/Source\gd32vw55x_cau.c ****         cau_context->iv_1_high = CAU_IV1H;
 722              		.loc 1 504 9 is_stmt 1
 504:C:/Users/stapi/OneDrive/Desktop/GD32VW553/GD32VW55X_Wifi_BLE_SDK/GD32VW55x_RELEASE_V1.0.2/MSDK/plf/GD32VW55x_standard_peripheral/Source\gd32vw55x_cau.c ****         cau_context->iv_1_high = CAU_IV1H;
 723              		.loc 1 504 33 is_stmt 0
 724 0088 F443     		lw	a3,68(a5)
 504:C:/Users/stapi/OneDrive/Desktop/GD32VW553/GD32VW55X_Wifi_BLE_SDK/GD32VW55x_RELEASE_V1.0.2/MSDK/plf/GD32VW55x_standard_peripheral/Source\gd32vw55x_cau.c ****         cau_context->iv_1_high = CAU_IV1H;
 725              		.loc 1 504 31
 726 008a 14C5     		sw	a3,8(a0)
 505:C:/Users/stapi/OneDrive/Desktop/GD32VW553/GD32VW55X_Wifi_BLE_SDK/GD32VW55x_RELEASE_V1.0.2/MSDK/plf/GD32VW55x_standard_peripheral/Source\gd32vw55x_cau.c ****         cau_context->iv_1_low = CAU_IV1L;
 727              		.loc 1 505 9 is_stmt 1
 505:C:/Users/stapi/OneDrive/Desktop/GD32VW553/GD32VW55X_Wifi_BLE_SDK/GD32VW55x_RELEASE_V1.0.2/MSDK/plf/GD32VW55x_standard_peripheral/Source\gd32vw55x_cau.c ****         cau_context->iv_1_low = CAU_IV1L;
 728              		.loc 1 505 34 is_stmt 0
 729 008c B447     		lw	a3,72(a5)
 505:C:/Users/stapi/OneDrive/Desktop/GD32VW553/GD32VW55X_Wifi_BLE_SDK/GD32VW55x_RELEASE_V1.0.2/MSDK/plf/GD32VW55x_standard_peripheral/Source\gd32vw55x_cau.c ****         cau_context->iv_1_low = CAU_IV1L;
 730              		.loc 1 505 32
 731 008e 54C5     		sw	a3,12(a0)
 506:C:/Users/stapi/OneDrive/Desktop/GD32VW553/GD32VW55X_Wifi_BLE_SDK/GD32VW55x_RELEASE_V1.0.2/MSDK/plf/GD32VW55x_standard_peripheral/Source\gd32vw55x_cau.c ****     }
 732              		.loc 1 506 9 is_stmt 1
 506:C:/Users/stapi/OneDrive/Desktop/GD32VW553/GD32VW55X_Wifi_BLE_SDK/GD32VW55x_RELEASE_V1.0.2/MSDK/plf/GD32VW55x_standard_peripheral/Source\gd32vw55x_cau.c ****     }
 733              		.loc 1 506 33 is_stmt 0
 734 0090 FC47     		lw	a5,76(a5)
 506:C:/Users/stapi/OneDrive/Desktop/GD32VW553/GD32VW55X_Wifi_BLE_SDK/GD32VW55x_RELEASE_V1.0.2/MSDK/plf/GD32VW55x_standard_peripheral/Source\gd32vw55x_cau.c ****     }
 735              		.loc 1 506 31
 736 0092 1CC9     		sw	a5,16(a0)
 737              		.loc 1 510 5 is_stmt 1
 738              		.loc 1 510 7 is_stmt 0
 739 0094 B7070800 		li	a5,524288
 740 0098 E310F7FE 		bne	a4,a5,.L28
 741              	.L26:
 511:C:/Users/stapi/OneDrive/Desktop/GD32VW553/GD32VW55X_Wifi_BLE_SDK/GD32VW55x_RELEASE_V1.0.2/MSDK/plf/GD32VW55x_standard_peripheral/Source\gd32vw55x_cau.c ****         cau_context->gcmccmctxs[0U] = CAU_GCMCCMCTXSx(0U);
 742              		.loc 1 511 9 is_stmt 1
 743              		.loc 1 511 39 is_stmt 0
 744 009c B707064C 		li	a5,1275461632
 745 00a0 B44B     		lw	a3,80(a5)
 746              		.loc 1 511 37
 747 00a2 54D9     		sw	a3,52(a0)
 512:C:/Users/stapi/OneDrive/Desktop/GD32VW553/GD32VW55X_Wifi_BLE_SDK/GD32VW55x_RELEASE_V1.0.2/MSDK/plf/GD32VW55x_standard_peripheral/Source\gd32vw55x_cau.c ****         cau_context->gcmccmctxs[1U] = CAU_GCMCCMCTXSx(1U);
 748              		.loc 1 512 9 is_stmt 1
 749              		.loc 1 512 39 is_stmt 0
 750 00a4 F44B     		lw	a3,84(a5)
 751              		.loc 1 512 37
 752 00a6 14DD     		sw	a3,56(a0)
 513:C:/Users/stapi/OneDrive/Desktop/GD32VW553/GD32VW55X_Wifi_BLE_SDK/GD32VW55x_RELEASE_V1.0.2/MSDK/plf/GD32VW55x_standard_peripheral/Source\gd32vw55x_cau.c ****         cau_context->gcmccmctxs[2U] = CAU_GCMCCMCTXSx(2U);
 753              		.loc 1 513 9 is_stmt 1
 754              		.loc 1 513 39 is_stmt 0
 755 00a8 B44F     		lw	a3,88(a5)
 756              		.loc 1 513 37
 757 00aa 54DD     		sw	a3,60(a0)
 514:C:/Users/stapi/OneDrive/Desktop/GD32VW553/GD32VW55X_Wifi_BLE_SDK/GD32VW55x_RELEASE_V1.0.2/MSDK/plf/GD32VW55x_standard_peripheral/Source\gd32vw55x_cau.c ****         cau_context->gcmccmctxs[3U] = CAU_GCMCCMCTXSx(3U);
 758              		.loc 1 514 9 is_stmt 1
 759              		.loc 1 514 39 is_stmt 0
 760 00ac F44F     		lw	a3,92(a5)
 761              		.loc 1 514 37
 762 00ae 34C1     		sw	a3,64(a0)
 515:C:/Users/stapi/OneDrive/Desktop/GD32VW553/GD32VW55X_Wifi_BLE_SDK/GD32VW55x_RELEASE_V1.0.2/MSDK/plf/GD32VW55x_standard_peripheral/Source\gd32vw55x_cau.c ****         cau_context->gcmccmctxs[4U] = CAU_GCMCCMCTXSx(4U);
 763              		.loc 1 515 9 is_stmt 1
 764              		.loc 1 515 39 is_stmt 0
 765 00b0 B453     		lw	a3,96(a5)
 766              		.loc 1 515 37
 767 00b2 74C1     		sw	a3,68(a0)
 516:C:/Users/stapi/OneDrive/Desktop/GD32VW553/GD32VW55X_Wifi_BLE_SDK/GD32VW55x_RELEASE_V1.0.2/MSDK/plf/GD32VW55x_standard_peripheral/Source\gd32vw55x_cau.c ****         cau_context->gcmccmctxs[5U] = CAU_GCMCCMCTXSx(5U);
 768              		.loc 1 516 9 is_stmt 1
 769              		.loc 1 516 39 is_stmt 0
 770 00b4 F453     		lw	a3,100(a5)
 771              		.loc 1 516 37
 772 00b6 34C5     		sw	a3,72(a0)
 517:C:/Users/stapi/OneDrive/Desktop/GD32VW553/GD32VW55X_Wifi_BLE_SDK/GD32VW55x_RELEASE_V1.0.2/MSDK/plf/GD32VW55x_standard_peripheral/Source\gd32vw55x_cau.c ****         cau_context->gcmccmctxs[6U] = CAU_GCMCCMCTXSx(6U);
 773              		.loc 1 517 9 is_stmt 1
 774              		.loc 1 517 39 is_stmt 0
 775 00b8 B457     		lw	a3,104(a5)
 776              		.loc 1 517 37
 777 00ba 74C5     		sw	a3,76(a0)
 518:C:/Users/stapi/OneDrive/Desktop/GD32VW553/GD32VW55X_Wifi_BLE_SDK/GD32VW55x_RELEASE_V1.0.2/MSDK/plf/GD32VW55x_standard_peripheral/Source\gd32vw55x_cau.c ****         cau_context->gcmccmctxs[7U] = CAU_GCMCCMCTXSx(7U);
 778              		.loc 1 518 9 is_stmt 1
 779              		.loc 1 518 39 is_stmt 0
 780 00bc F457     		lw	a3,108(a5)
 781              		.loc 1 518 37
 782 00be 34C9     		sw	a3,80(a0)
 519:C:/Users/stapi/OneDrive/Desktop/GD32VW553/GD32VW55X_Wifi_BLE_SDK/GD32VW55x_RELEASE_V1.0.2/MSDK/plf/GD32VW55x_standard_peripheral/Source\gd32vw55x_cau.c ****     }
 520:C:/Users/stapi/OneDrive/Desktop/GD32VW553/GD32VW55X_Wifi_BLE_SDK/GD32VW55x_RELEASE_V1.0.2/MSDK/plf/GD32VW55x_standard_peripheral/Source\gd32vw55x_cau.c **** 
 521:C:/Users/stapi/OneDrive/Desktop/GD32VW553/GD32VW55X_Wifi_BLE_SDK/GD32VW55x_RELEASE_V1.0.2/MSDK/plf/GD32VW55x_standard_peripheral/Source\gd32vw55x_cau.c ****     /* if in GCM mode, save the context switch registers */
 522:C:/Users/stapi/OneDrive/Desktop/GD32VW553/GD32VW55X_Wifi_BLE_SDK/GD32VW55x_RELEASE_V1.0.2/MSDK/plf/GD32VW55x_standard_peripheral/Source\gd32vw55x_cau.c ****     if(CAU_MODE_AES_GCM == algm_reg) {
 783              		.loc 1 522 5 is_stmt 1
 784              		.loc 1 522 7 is_stmt 0
 785 00c0 B7060800 		li	a3,524288
 786 00c4 6314D702 		bne	a4,a3,.L20
 523:C:/Users/stapi/OneDrive/Desktop/GD32VW553/GD32VW55X_Wifi_BLE_SDK/GD32VW55x_RELEASE_V1.0.2/MSDK/plf/GD32VW55x_standard_peripheral/Source\gd32vw55x_cau.c ****         cau_context->gcmctxs[0U] = CAU_GCMCTXSx(0U);
 787              		.loc 1 523 9 is_stmt 1
 788              		.loc 1 523 36 is_stmt 0
 789 00c8 B85B     		lw	a4,112(a5)
 790              	.LVL27:
 791              		.loc 1 523 34
 792 00ca 78C9     		sw	a4,84(a0)
 524:C:/Users/stapi/OneDrive/Desktop/GD32VW553/GD32VW55X_Wifi_BLE_SDK/GD32VW55x_RELEASE_V1.0.2/MSDK/plf/GD32VW55x_standard_peripheral/Source\gd32vw55x_cau.c ****         cau_context->gcmctxs[1U] = CAU_GCMCTXSx(1U);
 793              		.loc 1 524 9 is_stmt 1
 794              		.loc 1 524 36 is_stmt 0
 795 00cc F85B     		lw	a4,116(a5)
 796              		.loc 1 524 34
 797 00ce 38CD     		sw	a4,88(a0)
 525:C:/Users/stapi/OneDrive/Desktop/GD32VW553/GD32VW55X_Wifi_BLE_SDK/GD32VW55x_RELEASE_V1.0.2/MSDK/plf/GD32VW55x_standard_peripheral/Source\gd32vw55x_cau.c ****         cau_context->gcmctxs[2U] = CAU_GCMCTXSx(2U);
 798              		.loc 1 525 9 is_stmt 1
 799              		.loc 1 525 36 is_stmt 0
 800 00d0 B85F     		lw	a4,120(a5)
 801              		.loc 1 525 34
 802 00d2 78CD     		sw	a4,92(a0)
 526:C:/Users/stapi/OneDrive/Desktop/GD32VW553/GD32VW55X_Wifi_BLE_SDK/GD32VW55x_RELEASE_V1.0.2/MSDK/plf/GD32VW55x_standard_peripheral/Source\gd32vw55x_cau.c ****         cau_context->gcmctxs[3U] = CAU_GCMCTXSx(3U);
 803              		.loc 1 526 9 is_stmt 1
 804              		.loc 1 526 36 is_stmt 0
 805 00d4 F85F     		lw	a4,124(a5)
 527:C:/Users/stapi/OneDrive/Desktop/GD32VW553/GD32VW55X_Wifi_BLE_SDK/GD32VW55x_RELEASE_V1.0.2/MSDK/plf/GD32VW55x_standard_peripheral/Source\gd32vw55x_cau.c ****         cau_context->gcmctxs[4U] = CAU_GCMCTXSx(4U);
 806              		.loc 1 527 36
 807 00d6 93870708 		addi	a5,a5,128
 526:C:/Users/stapi/OneDrive/Desktop/GD32VW553/GD32VW55X_Wifi_BLE_SDK/GD32VW55x_RELEASE_V1.0.2/MSDK/plf/GD32VW55x_standard_peripheral/Source\gd32vw55x_cau.c ****         cau_context->gcmctxs[3U] = CAU_GCMCTXSx(3U);
 808              		.loc 1 526 34
 809 00da 38D1     		sw	a4,96(a0)
 810              		.loc 1 527 9 is_stmt 1
 811              		.loc 1 527 36 is_stmt 0
 812 00dc 9843     		lw	a4,0(a5)
 813              		.loc 1 527 34
 814 00de 78D1     		sw	a4,100(a0)
 528:C:/Users/stapi/OneDrive/Desktop/GD32VW553/GD32VW55X_Wifi_BLE_SDK/GD32VW55x_RELEASE_V1.0.2/MSDK/plf/GD32VW55x_standard_peripheral/Source\gd32vw55x_cau.c ****         cau_context->gcmctxs[5U] = CAU_GCMCTXSx(5U);
 815              		.loc 1 528 9 is_stmt 1
 816              		.loc 1 528 36 is_stmt 0
 817 00e0 D843     		lw	a4,4(a5)
 818              		.loc 1 528 34
 819 00e2 38D5     		sw	a4,104(a0)
 529:C:/Users/stapi/OneDrive/Desktop/GD32VW553/GD32VW55X_Wifi_BLE_SDK/GD32VW55x_RELEASE_V1.0.2/MSDK/plf/GD32VW55x_standard_peripheral/Source\gd32vw55x_cau.c ****         cau_context->gcmctxs[6U] = CAU_GCMCTXSx(6U);
 820              		.loc 1 529 9 is_stmt 1
 821              		.loc 1 529 36 is_stmt 0
 822 00e4 9847     		lw	a4,8(a5)
 823              		.loc 1 529 34
 824 00e6 78D5     		sw	a4,108(a0)
 530:C:/Users/stapi/OneDrive/Desktop/GD32VW553/GD32VW55X_Wifi_BLE_SDK/GD32VW55x_RELEASE_V1.0.2/MSDK/plf/GD32VW55x_standard_peripheral/Source\gd32vw55x_cau.c ****         cau_context->gcmctxs[7U] = CAU_GCMCTXSx(7U);
 825              		.loc 1 530 9 is_stmt 1
 826              		.loc 1 530 36 is_stmt 0
 827 00e8 DC47     		lw	a5,12(a5)
 828              		.loc 1 530 34
 829 00ea 3CD9     		sw	a5,112(a0)
 830              	.L20:
 531:C:/Users/stapi/OneDrive/Desktop/GD32VW553/GD32VW55X_Wifi_BLE_SDK/GD32VW55x_RELEASE_V1.0.2/MSDK/plf/GD32VW55x_standard_peripheral/Source\gd32vw55x_cau.c ****     }
 532:C:/Users/stapi/OneDrive/Desktop/GD32VW553/GD32VW55X_Wifi_BLE_SDK/GD32VW55x_RELEASE_V1.0.2/MSDK/plf/GD32VW55x_standard_peripheral/Source\gd32vw55x_cau.c **** }
 831              		.loc 1 532 1
 832 00ec 8280     		ret
 833              		.cfi_endproc
 834              	.LFE383:
 836              		.section	.text.cau_flag_get,"ax",@progbits
 837              		.align	1
 838              		.globl	cau_flag_get
 840              	cau_flag_get:
 841              	.LFB385:
 533:C:/Users/stapi/OneDrive/Desktop/GD32VW553/GD32VW55X_Wifi_BLE_SDK/GD32VW55x_RELEASE_V1.0.2/MSDK/plf/GD32VW55x_standard_peripheral/Source\gd32vw55x_cau.c **** 
 534:C:/Users/stapi/OneDrive/Desktop/GD32VW553/GD32VW55X_Wifi_BLE_SDK/GD32VW55x_RELEASE_V1.0.2/MSDK/plf/GD32VW55x_standard_peripheral/Source\gd32vw55x_cau.c **** /*!
 535:C:/Users/stapi/OneDrive/Desktop/GD32VW553/GD32VW55X_Wifi_BLE_SDK/GD32VW55x_RELEASE_V1.0.2/MSDK/plf/GD32VW55x_standard_peripheral/Source\gd32vw55x_cau.c ****     \brief      restore context after context switching
 536:C:/Users/stapi/OneDrive/Desktop/GD32VW553/GD32VW55X_Wifi_BLE_SDK/GD32VW55x_RELEASE_V1.0.2/MSDK/plf/GD32VW55x_standard_peripheral/Source\gd32vw55x_cau.c ****     \param[in]  cau_context:
 537:C:/Users/stapi/OneDrive/Desktop/GD32VW553/GD32VW55X_Wifi_BLE_SDK/GD32VW55x_RELEASE_V1.0.2/MSDK/plf/GD32VW55x_standard_peripheral/Source\gd32vw55x_cau.c ****                   ctl_config: current configuration
 538:C:/Users/stapi/OneDrive/Desktop/GD32VW553/GD32VW55X_Wifi_BLE_SDK/GD32VW55x_RELEASE_V1.0.2/MSDK/plf/GD32VW55x_standard_peripheral/Source\gd32vw55x_cau.c ****                   iv_0_high: init vector 0 high
 539:C:/Users/stapi/OneDrive/Desktop/GD32VW553/GD32VW55X_Wifi_BLE_SDK/GD32VW55x_RELEASE_V1.0.2/MSDK/plf/GD32VW55x_standard_peripheral/Source\gd32vw55x_cau.c ****                   iv_0_low:  init vector 0 low
 540:C:/Users/stapi/OneDrive/Desktop/GD32VW553/GD32VW55X_Wifi_BLE_SDK/GD32VW55x_RELEASE_V1.0.2/MSDK/plf/GD32VW55x_standard_peripheral/Source\gd32vw55x_cau.c ****                   iv_1_high: init vector 1 high
 541:C:/Users/stapi/OneDrive/Desktop/GD32VW553/GD32VW55X_Wifi_BLE_SDK/GD32VW55x_RELEASE_V1.0.2/MSDK/plf/GD32VW55x_standard_peripheral/Source\gd32vw55x_cau.c ****                   iv_1_low:  init vector 1 low
 542:C:/Users/stapi/OneDrive/Desktop/GD32VW553/GD32VW55X_Wifi_BLE_SDK/GD32VW55x_RELEASE_V1.0.2/MSDK/plf/GD32VW55x_standard_peripheral/Source\gd32vw55x_cau.c ****                   key_0_high: key 0 high
 543:C:/Users/stapi/OneDrive/Desktop/GD32VW553/GD32VW55X_Wifi_BLE_SDK/GD32VW55x_RELEASE_V1.0.2/MSDK/plf/GD32VW55x_standard_peripheral/Source\gd32vw55x_cau.c ****                   key_0_low:  key 0 low
 544:C:/Users/stapi/OneDrive/Desktop/GD32VW553/GD32VW55X_Wifi_BLE_SDK/GD32VW55x_RELEASE_V1.0.2/MSDK/plf/GD32VW55x_standard_peripheral/Source\gd32vw55x_cau.c ****                   key_1_high: key 1 high
 545:C:/Users/stapi/OneDrive/Desktop/GD32VW553/GD32VW55X_Wifi_BLE_SDK/GD32VW55x_RELEASE_V1.0.2/MSDK/plf/GD32VW55x_standard_peripheral/Source\gd32vw55x_cau.c ****                   key_1_low:  key 1 low
 546:C:/Users/stapi/OneDrive/Desktop/GD32VW553/GD32VW55X_Wifi_BLE_SDK/GD32VW55x_RELEASE_V1.0.2/MSDK/plf/GD32VW55x_standard_peripheral/Source\gd32vw55x_cau.c ****                   key_2_high: key 2 high
 547:C:/Users/stapi/OneDrive/Desktop/GD32VW553/GD32VW55X_Wifi_BLE_SDK/GD32VW55x_RELEASE_V1.0.2/MSDK/plf/GD32VW55x_standard_peripheral/Source\gd32vw55x_cau.c ****                   key_2_low:  key 2 low
 548:C:/Users/stapi/OneDrive/Desktop/GD32VW553/GD32VW55X_Wifi_BLE_SDK/GD32VW55x_RELEASE_V1.0.2/MSDK/plf/GD32VW55x_standard_peripheral/Source\gd32vw55x_cau.c ****                   key_3_high: key 3 high
 549:C:/Users/stapi/OneDrive/Desktop/GD32VW553/GD32VW55X_Wifi_BLE_SDK/GD32VW55x_RELEASE_V1.0.2/MSDK/plf/GD32VW55x_standard_peripheral/Source\gd32vw55x_cau.c ****                   key_3_low:  key 3 low
 550:C:/Users/stapi/OneDrive/Desktop/GD32VW553/GD32VW55X_Wifi_BLE_SDK/GD32VW55x_RELEASE_V1.0.2/MSDK/plf/GD32VW55x_standard_peripheral/Source\gd32vw55x_cau.c ****                   gcmccmctxs[8]: GCM or CCM mode context switch
 551:C:/Users/stapi/OneDrive/Desktop/GD32VW553/GD32VW55X_Wifi_BLE_SDK/GD32VW55x_RELEASE_V1.0.2/MSDK/plf/GD32VW55x_standard_peripheral/Source\gd32vw55x_cau.c ****                   gcmctxs[8]: GCM mode context switch
 552:C:/Users/stapi/OneDrive/Desktop/GD32VW553/GD32VW55X_Wifi_BLE_SDK/GD32VW55x_RELEASE_V1.0.2/MSDK/plf/GD32VW55x_standard_peripheral/Source\gd32vw55x_cau.c ****     \param[out] none
 553:C:/Users/stapi/OneDrive/Desktop/GD32VW553/GD32VW55X_Wifi_BLE_SDK/GD32VW55x_RELEASE_V1.0.2/MSDK/plf/GD32VW55x_standard_peripheral/Source\gd32vw55x_cau.c ****     \retval     none
 554:C:/Users/stapi/OneDrive/Desktop/GD32VW553/GD32VW55X_Wifi_BLE_SDK/GD32VW55x_RELEASE_V1.0.2/MSDK/plf/GD32VW55x_standard_peripheral/Source\gd32vw55x_cau.c **** */
 555:C:/Users/stapi/OneDrive/Desktop/GD32VW553/GD32VW55X_Wifi_BLE_SDK/GD32VW55x_RELEASE_V1.0.2/MSDK/plf/GD32VW55x_standard_peripheral/Source\gd32vw55x_cau.c **** void cau_context_restore(cau_context_parameter_struct *cau_context)
 556:C:/Users/stapi/OneDrive/Desktop/GD32VW553/GD32VW55X_Wifi_BLE_SDK/GD32VW55x_RELEASE_V1.0.2/MSDK/plf/GD32VW55x_standard_peripheral/Source\gd32vw55x_cau.c **** {
 557:C:/Users/stapi/OneDrive/Desktop/GD32VW553/GD32VW55X_Wifi_BLE_SDK/GD32VW55x_RELEASE_V1.0.2/MSDK/plf/GD32VW55x_standard_peripheral/Source\gd32vw55x_cau.c ****     uint32_t algm_reg, aes_decrypt;
 558:C:/Users/stapi/OneDrive/Desktop/GD32VW553/GD32VW55X_Wifi_BLE_SDK/GD32VW55x_RELEASE_V1.0.2/MSDK/plf/GD32VW55x_standard_peripheral/Source\gd32vw55x_cau.c **** 
 559:C:/Users/stapi/OneDrive/Desktop/GD32VW553/GD32VW55X_Wifi_BLE_SDK/GD32VW55x_RELEASE_V1.0.2/MSDK/plf/GD32VW55x_standard_peripheral/Source\gd32vw55x_cau.c ****     /* configure the processor with the saved configuration */
 560:C:/Users/stapi/OneDrive/Desktop/GD32VW553/GD32VW55X_Wifi_BLE_SDK/GD32VW55x_RELEASE_V1.0.2/MSDK/plf/GD32VW55x_standard_peripheral/Source\gd32vw55x_cau.c ****     CAU_CTL = cau_context->ctl_config;
 561:C:/Users/stapi/OneDrive/Desktop/GD32VW553/GD32VW55X_Wifi_BLE_SDK/GD32VW55x_RELEASE_V1.0.2/MSDK/plf/GD32VW55x_standard_peripheral/Source\gd32vw55x_cau.c **** 
 562:C:/Users/stapi/OneDrive/Desktop/GD32VW553/GD32VW55X_Wifi_BLE_SDK/GD32VW55x_RELEASE_V1.0.2/MSDK/plf/GD32VW55x_standard_peripheral/Source\gd32vw55x_cau.c ****     algm_reg = CAU_CTL & CAU_CTL_ALGM;
 563:C:/Users/stapi/OneDrive/Desktop/GD32VW553/GD32VW55X_Wifi_BLE_SDK/GD32VW55x_RELEASE_V1.0.2/MSDK/plf/GD32VW55x_standard_peripheral/Source\gd32vw55x_cau.c **** 
 564:C:/Users/stapi/OneDrive/Desktop/GD32VW553/GD32VW55X_Wifi_BLE_SDK/GD32VW55x_RELEASE_V1.0.2/MSDK/plf/GD32VW55x_standard_peripheral/Source\gd32vw55x_cau.c ****     /* restore the key value */
 565:C:/Users/stapi/OneDrive/Desktop/GD32VW553/GD32VW55X_Wifi_BLE_SDK/GD32VW55x_RELEASE_V1.0.2/MSDK/plf/GD32VW55x_standard_peripheral/Source\gd32vw55x_cau.c ****     CAU_KEY0H = cau_context->key_0_high;
 566:C:/Users/stapi/OneDrive/Desktop/GD32VW553/GD32VW55X_Wifi_BLE_SDK/GD32VW55x_RELEASE_V1.0.2/MSDK/plf/GD32VW55x_standard_peripheral/Source\gd32vw55x_cau.c ****     CAU_KEY0L = cau_context->key_0_low;
 567:C:/Users/stapi/OneDrive/Desktop/GD32VW553/GD32VW55X_Wifi_BLE_SDK/GD32VW55x_RELEASE_V1.0.2/MSDK/plf/GD32VW55x_standard_peripheral/Source\gd32vw55x_cau.c ****     CAU_KEY1H = cau_context->key_1_high;
 568:C:/Users/stapi/OneDrive/Desktop/GD32VW553/GD32VW55X_Wifi_BLE_SDK/GD32VW55x_RELEASE_V1.0.2/MSDK/plf/GD32VW55x_standard_peripheral/Source\gd32vw55x_cau.c ****     CAU_KEY1L = cau_context->key_1_low;
 569:C:/Users/stapi/OneDrive/Desktop/GD32VW553/GD32VW55X_Wifi_BLE_SDK/GD32VW55x_RELEASE_V1.0.2/MSDK/plf/GD32VW55x_standard_peripheral/Source\gd32vw55x_cau.c ****     CAU_KEY2H = cau_context->key_2_high;
 570:C:/Users/stapi/OneDrive/Desktop/GD32VW553/GD32VW55X_Wifi_BLE_SDK/GD32VW55x_RELEASE_V1.0.2/MSDK/plf/GD32VW55x_standard_peripheral/Source\gd32vw55x_cau.c ****     CAU_KEY2L = cau_context->key_2_low;
 571:C:/Users/stapi/OneDrive/Desktop/GD32VW553/GD32VW55X_Wifi_BLE_SDK/GD32VW55x_RELEASE_V1.0.2/MSDK/plf/GD32VW55x_standard_peripheral/Source\gd32vw55x_cau.c ****     CAU_KEY3H = cau_context->key_3_high;
 572:C:/Users/stapi/OneDrive/Desktop/GD32VW553/GD32VW55X_Wifi_BLE_SDK/GD32VW55x_RELEASE_V1.0.2/MSDK/plf/GD32VW55x_standard_peripheral/Source\gd32vw55x_cau.c ****     CAU_KEY3L = cau_context->key_3_low;
 573:C:/Users/stapi/OneDrive/Desktop/GD32VW553/GD32VW55X_Wifi_BLE_SDK/GD32VW55x_RELEASE_V1.0.2/MSDK/plf/GD32VW55x_standard_peripheral/Source\gd32vw55x_cau.c **** 
 574:C:/Users/stapi/OneDrive/Desktop/GD32VW553/GD32VW55X_Wifi_BLE_SDK/GD32VW55x_RELEASE_V1.0.2/MSDK/plf/GD32VW55x_standard_peripheral/Source\gd32vw55x_cau.c ****     if((CAU_MODE_TDES_ECB != algm_reg) && (CAU_MODE_DES_ECB != algm_reg) && (CAU_MODE_AES_ECB != al
 575:C:/Users/stapi/OneDrive/Desktop/GD32VW553/GD32VW55X_Wifi_BLE_SDK/GD32VW55x_RELEASE_V1.0.2/MSDK/plf/GD32VW55x_standard_peripheral/Source\gd32vw55x_cau.c ****         /* restore the initialization vectors */
 576:C:/Users/stapi/OneDrive/Desktop/GD32VW553/GD32VW55X_Wifi_BLE_SDK/GD32VW55x_RELEASE_V1.0.2/MSDK/plf/GD32VW55x_standard_peripheral/Source\gd32vw55x_cau.c ****         CAU_IV0H = cau_context->iv_0_high;
 577:C:/Users/stapi/OneDrive/Desktop/GD32VW553/GD32VW55X_Wifi_BLE_SDK/GD32VW55x_RELEASE_V1.0.2/MSDK/plf/GD32VW55x_standard_peripheral/Source\gd32vw55x_cau.c ****         CAU_IV0L = cau_context->iv_0_low;
 578:C:/Users/stapi/OneDrive/Desktop/GD32VW553/GD32VW55X_Wifi_BLE_SDK/GD32VW55x_RELEASE_V1.0.2/MSDK/plf/GD32VW55x_standard_peripheral/Source\gd32vw55x_cau.c ****         CAU_IV1H = cau_context->iv_1_high;
 579:C:/Users/stapi/OneDrive/Desktop/GD32VW553/GD32VW55X_Wifi_BLE_SDK/GD32VW55x_RELEASE_V1.0.2/MSDK/plf/GD32VW55x_standard_peripheral/Source\gd32vw55x_cau.c ****         CAU_IV1L = cau_context->iv_1_low;
 580:C:/Users/stapi/OneDrive/Desktop/GD32VW553/GD32VW55X_Wifi_BLE_SDK/GD32VW55x_RELEASE_V1.0.2/MSDK/plf/GD32VW55x_standard_peripheral/Source\gd32vw55x_cau.c ****     }
 581:C:/Users/stapi/OneDrive/Desktop/GD32VW553/GD32VW55X_Wifi_BLE_SDK/GD32VW55x_RELEASE_V1.0.2/MSDK/plf/GD32VW55x_standard_peripheral/Source\gd32vw55x_cau.c **** 
 582:C:/Users/stapi/OneDrive/Desktop/GD32VW553/GD32VW55X_Wifi_BLE_SDK/GD32VW55x_RELEASE_V1.0.2/MSDK/plf/GD32VW55x_standard_peripheral/Source\gd32vw55x_cau.c ****     /* if in GCM/CCM mode, restore the context switch registers */
 583:C:/Users/stapi/OneDrive/Desktop/GD32VW553/GD32VW55X_Wifi_BLE_SDK/GD32VW55x_RELEASE_V1.0.2/MSDK/plf/GD32VW55x_standard_peripheral/Source\gd32vw55x_cau.c ****     if((CAU_MODE_AES_GCM == algm_reg) || (CAU_MODE_AES_CCM == algm_reg)) {
 584:C:/Users/stapi/OneDrive/Desktop/GD32VW553/GD32VW55X_Wifi_BLE_SDK/GD32VW55x_RELEASE_V1.0.2/MSDK/plf/GD32VW55x_standard_peripheral/Source\gd32vw55x_cau.c ****         CAU_GCMCCMCTXSx(0U) = cau_context->gcmccmctxs[0U];
 585:C:/Users/stapi/OneDrive/Desktop/GD32VW553/GD32VW55X_Wifi_BLE_SDK/GD32VW55x_RELEASE_V1.0.2/MSDK/plf/GD32VW55x_standard_peripheral/Source\gd32vw55x_cau.c ****         CAU_GCMCCMCTXSx(1U) = cau_context->gcmccmctxs[1U];
 586:C:/Users/stapi/OneDrive/Desktop/GD32VW553/GD32VW55X_Wifi_BLE_SDK/GD32VW55x_RELEASE_V1.0.2/MSDK/plf/GD32VW55x_standard_peripheral/Source\gd32vw55x_cau.c ****         CAU_GCMCCMCTXSx(2U) = cau_context->gcmccmctxs[2U];
 587:C:/Users/stapi/OneDrive/Desktop/GD32VW553/GD32VW55X_Wifi_BLE_SDK/GD32VW55x_RELEASE_V1.0.2/MSDK/plf/GD32VW55x_standard_peripheral/Source\gd32vw55x_cau.c ****         CAU_GCMCCMCTXSx(3U) = cau_context->gcmccmctxs[3U];
 588:C:/Users/stapi/OneDrive/Desktop/GD32VW553/GD32VW55X_Wifi_BLE_SDK/GD32VW55x_RELEASE_V1.0.2/MSDK/plf/GD32VW55x_standard_peripheral/Source\gd32vw55x_cau.c ****         CAU_GCMCCMCTXSx(4U) = cau_context->gcmccmctxs[4U];
 589:C:/Users/stapi/OneDrive/Desktop/GD32VW553/GD32VW55X_Wifi_BLE_SDK/GD32VW55x_RELEASE_V1.0.2/MSDK/plf/GD32VW55x_standard_peripheral/Source\gd32vw55x_cau.c ****         CAU_GCMCCMCTXSx(5U) = cau_context->gcmccmctxs[5U];
 590:C:/Users/stapi/OneDrive/Desktop/GD32VW553/GD32VW55X_Wifi_BLE_SDK/GD32VW55x_RELEASE_V1.0.2/MSDK/plf/GD32VW55x_standard_peripheral/Source\gd32vw55x_cau.c ****         CAU_GCMCCMCTXSx(6U) = cau_context->gcmccmctxs[6U];
 591:C:/Users/stapi/OneDrive/Desktop/GD32VW553/GD32VW55X_Wifi_BLE_SDK/GD32VW55x_RELEASE_V1.0.2/MSDK/plf/GD32VW55x_standard_peripheral/Source\gd32vw55x_cau.c ****         CAU_GCMCCMCTXSx(7U) = cau_context->gcmccmctxs[7U];
 592:C:/Users/stapi/OneDrive/Desktop/GD32VW553/GD32VW55X_Wifi_BLE_SDK/GD32VW55x_RELEASE_V1.0.2/MSDK/plf/GD32VW55x_standard_peripheral/Source\gd32vw55x_cau.c ****     }
 593:C:/Users/stapi/OneDrive/Desktop/GD32VW553/GD32VW55X_Wifi_BLE_SDK/GD32VW55x_RELEASE_V1.0.2/MSDK/plf/GD32VW55x_standard_peripheral/Source\gd32vw55x_cau.c **** 
 594:C:/Users/stapi/OneDrive/Desktop/GD32VW553/GD32VW55X_Wifi_BLE_SDK/GD32VW55x_RELEASE_V1.0.2/MSDK/plf/GD32VW55x_standard_peripheral/Source\gd32vw55x_cau.c ****     /* if in GCM mode, restore the context switch registers */
 595:C:/Users/stapi/OneDrive/Desktop/GD32VW553/GD32VW55X_Wifi_BLE_SDK/GD32VW55x_RELEASE_V1.0.2/MSDK/plf/GD32VW55x_standard_peripheral/Source\gd32vw55x_cau.c ****     if(CAU_MODE_AES_GCM == algm_reg) {
 596:C:/Users/stapi/OneDrive/Desktop/GD32VW553/GD32VW55X_Wifi_BLE_SDK/GD32VW55x_RELEASE_V1.0.2/MSDK/plf/GD32VW55x_standard_peripheral/Source\gd32vw55x_cau.c ****         CAU_GCMCTXSx(0U) = cau_context->gcmctxs[0U];
 597:C:/Users/stapi/OneDrive/Desktop/GD32VW553/GD32VW55X_Wifi_BLE_SDK/GD32VW55x_RELEASE_V1.0.2/MSDK/plf/GD32VW55x_standard_peripheral/Source\gd32vw55x_cau.c ****         CAU_GCMCTXSx(1U) = cau_context->gcmctxs[1U];
 598:C:/Users/stapi/OneDrive/Desktop/GD32VW553/GD32VW55X_Wifi_BLE_SDK/GD32VW55x_RELEASE_V1.0.2/MSDK/plf/GD32VW55x_standard_peripheral/Source\gd32vw55x_cau.c ****         CAU_GCMCTXSx(2U) = cau_context->gcmctxs[2U];
 599:C:/Users/stapi/OneDrive/Desktop/GD32VW553/GD32VW55X_Wifi_BLE_SDK/GD32VW55x_RELEASE_V1.0.2/MSDK/plf/GD32VW55x_standard_peripheral/Source\gd32vw55x_cau.c ****         CAU_GCMCTXSx(3U) = cau_context->gcmctxs[3U];
 600:C:/Users/stapi/OneDrive/Desktop/GD32VW553/GD32VW55X_Wifi_BLE_SDK/GD32VW55x_RELEASE_V1.0.2/MSDK/plf/GD32VW55x_standard_peripheral/Source\gd32vw55x_cau.c ****         CAU_GCMCTXSx(4U) = cau_context->gcmctxs[4U];
 601:C:/Users/stapi/OneDrive/Desktop/GD32VW553/GD32VW55X_Wifi_BLE_SDK/GD32VW55x_RELEASE_V1.0.2/MSDK/plf/GD32VW55x_standard_peripheral/Source\gd32vw55x_cau.c ****         CAU_GCMCTXSx(5U) = cau_context->gcmctxs[5U];
 602:C:/Users/stapi/OneDrive/Desktop/GD32VW553/GD32VW55X_Wifi_BLE_SDK/GD32VW55x_RELEASE_V1.0.2/MSDK/plf/GD32VW55x_standard_peripheral/Source\gd32vw55x_cau.c ****         CAU_GCMCTXSx(6U) = cau_context->gcmctxs[6U];
 603:C:/Users/stapi/OneDrive/Desktop/GD32VW553/GD32VW55X_Wifi_BLE_SDK/GD32VW55x_RELEASE_V1.0.2/MSDK/plf/GD32VW55x_standard_peripheral/Source\gd32vw55x_cau.c ****         CAU_GCMCTXSx(7U) = cau_context->gcmctxs[7U];
 604:C:/Users/stapi/OneDrive/Desktop/GD32VW553/GD32VW55X_Wifi_BLE_SDK/GD32VW55x_RELEASE_V1.0.2/MSDK/plf/GD32VW55x_standard_peripheral/Source\gd32vw55x_cau.c ****     }
 605:C:/Users/stapi/OneDrive/Desktop/GD32VW553/GD32VW55X_Wifi_BLE_SDK/GD32VW55x_RELEASE_V1.0.2/MSDK/plf/GD32VW55x_standard_peripheral/Source\gd32vw55x_cau.c **** 
 606:C:/Users/stapi/OneDrive/Desktop/GD32VW553/GD32VW55X_Wifi_BLE_SDK/GD32VW55x_RELEASE_V1.0.2/MSDK/plf/GD32VW55x_standard_peripheral/Source\gd32vw55x_cau.c ****     /* if it is AES ECB/CBC decryption, then first prepare key */
 607:C:/Users/stapi/OneDrive/Desktop/GD32VW553/GD32VW55X_Wifi_BLE_SDK/GD32VW55x_RELEASE_V1.0.2/MSDK/plf/GD32VW55x_standard_peripheral/Source\gd32vw55x_cau.c ****     aes_decrypt = CAU_CTL & (CAU_CTL_ALGM | CAU_CTL_CAUDIR);
 608:C:/Users/stapi/OneDrive/Desktop/GD32VW553/GD32VW55X_Wifi_BLE_SDK/GD32VW55x_RELEASE_V1.0.2/MSDK/plf/GD32VW55x_standard_peripheral/Source\gd32vw55x_cau.c ****     if(((CAU_MODE_AES_ECB | CAU_DECRYPT) == aes_decrypt) || ((CAU_MODE_AES_CBC | CAU_DECRYPT) == ae
 609:C:/Users/stapi/OneDrive/Desktop/GD32VW553/GD32VW55X_Wifi_BLE_SDK/GD32VW55x_RELEASE_V1.0.2/MSDK/plf/GD32VW55x_standard_peripheral/Source\gd32vw55x_cau.c ****         uint32_t alg_dir, algo_mode, swapping;
 610:C:/Users/stapi/OneDrive/Desktop/GD32VW553/GD32VW55X_Wifi_BLE_SDK/GD32VW55x_RELEASE_V1.0.2/MSDK/plf/GD32VW55x_standard_peripheral/Source\gd32vw55x_cau.c **** 
 611:C:/Users/stapi/OneDrive/Desktop/GD32VW553/GD32VW55X_Wifi_BLE_SDK/GD32VW55x_RELEASE_V1.0.2/MSDK/plf/GD32VW55x_standard_peripheral/Source\gd32vw55x_cau.c ****         /* flush IN/OUT FIFOs */
 612:C:/Users/stapi/OneDrive/Desktop/GD32VW553/GD32VW55X_Wifi_BLE_SDK/GD32VW55x_RELEASE_V1.0.2/MSDK/plf/GD32VW55x_standard_peripheral/Source\gd32vw55x_cau.c ****         cau_fifo_flush();
 613:C:/Users/stapi/OneDrive/Desktop/GD32VW553/GD32VW55X_Wifi_BLE_SDK/GD32VW55x_RELEASE_V1.0.2/MSDK/plf/GD32VW55x_standard_peripheral/Source\gd32vw55x_cau.c ****         /* parameters for key preparation for AES decryption */
 614:C:/Users/stapi/OneDrive/Desktop/GD32VW553/GD32VW55X_Wifi_BLE_SDK/GD32VW55x_RELEASE_V1.0.2/MSDK/plf/GD32VW55x_standard_peripheral/Source\gd32vw55x_cau.c ****         alg_dir = CAU_DECRYPT;
 615:C:/Users/stapi/OneDrive/Desktop/GD32VW553/GD32VW55X_Wifi_BLE_SDK/GD32VW55x_RELEASE_V1.0.2/MSDK/plf/GD32VW55x_standard_peripheral/Source\gd32vw55x_cau.c ****         algo_mode = CAU_MODE_AES_KEY;
 616:C:/Users/stapi/OneDrive/Desktop/GD32VW553/GD32VW55X_Wifi_BLE_SDK/GD32VW55x_RELEASE_V1.0.2/MSDK/plf/GD32VW55x_standard_peripheral/Source\gd32vw55x_cau.c ****         swapping = CAU_SWAPPING_32BIT;
 617:C:/Users/stapi/OneDrive/Desktop/GD32VW553/GD32VW55X_Wifi_BLE_SDK/GD32VW55x_RELEASE_V1.0.2/MSDK/plf/GD32VW55x_standard_peripheral/Source\gd32vw55x_cau.c ****         cau_init(alg_dir, algo_mode, swapping);
 618:C:/Users/stapi/OneDrive/Desktop/GD32VW553/GD32VW55X_Wifi_BLE_SDK/GD32VW55x_RELEASE_V1.0.2/MSDK/plf/GD32VW55x_standard_peripheral/Source\gd32vw55x_cau.c **** 
 619:C:/Users/stapi/OneDrive/Desktop/GD32VW553/GD32VW55X_Wifi_BLE_SDK/GD32VW55x_RELEASE_V1.0.2/MSDK/plf/GD32VW55x_standard_peripheral/Source\gd32vw55x_cau.c ****         /* enable CAU */
 620:C:/Users/stapi/OneDrive/Desktop/GD32VW553/GD32VW55X_Wifi_BLE_SDK/GD32VW55x_RELEASE_V1.0.2/MSDK/plf/GD32VW55x_standard_peripheral/Source\gd32vw55x_cau.c ****         cau_enable();
 621:C:/Users/stapi/OneDrive/Desktop/GD32VW553/GD32VW55X_Wifi_BLE_SDK/GD32VW55x_RELEASE_V1.0.2/MSDK/plf/GD32VW55x_standard_peripheral/Source\gd32vw55x_cau.c **** 
 622:C:/Users/stapi/OneDrive/Desktop/GD32VW553/GD32VW55X_Wifi_BLE_SDK/GD32VW55x_RELEASE_V1.0.2/MSDK/plf/GD32VW55x_standard_peripheral/Source\gd32vw55x_cau.c ****         /* wait until BUSY=0 */
 623:C:/Users/stapi/OneDrive/Desktop/GD32VW553/GD32VW55X_Wifi_BLE_SDK/GD32VW55x_RELEASE_V1.0.2/MSDK/plf/GD32VW55x_standard_peripheral/Source\gd32vw55x_cau.c ****         while((uint32_t)0U != cau_flag_get(CAU_FLAG_BUSY)) {
 624:C:/Users/stapi/OneDrive/Desktop/GD32VW553/GD32VW55X_Wifi_BLE_SDK/GD32VW55x_RELEASE_V1.0.2/MSDK/plf/GD32VW55x_standard_peripheral/Source\gd32vw55x_cau.c ****         }
 625:C:/Users/stapi/OneDrive/Desktop/GD32VW553/GD32VW55X_Wifi_BLE_SDK/GD32VW55x_RELEASE_V1.0.2/MSDK/plf/GD32VW55x_standard_peripheral/Source\gd32vw55x_cau.c **** 
 626:C:/Users/stapi/OneDrive/Desktop/GD32VW553/GD32VW55X_Wifi_BLE_SDK/GD32VW55x_RELEASE_V1.0.2/MSDK/plf/GD32VW55x_standard_peripheral/Source\gd32vw55x_cau.c ****         /* parameters for decryption */
 627:C:/Users/stapi/OneDrive/Desktop/GD32VW553/GD32VW55X_Wifi_BLE_SDK/GD32VW55x_RELEASE_V1.0.2/MSDK/plf/GD32VW55x_standard_peripheral/Source\gd32vw55x_cau.c ****         CAU_CTL = cau_context->ctl_config;
 628:C:/Users/stapi/OneDrive/Desktop/GD32VW553/GD32VW55X_Wifi_BLE_SDK/GD32VW55x_RELEASE_V1.0.2/MSDK/plf/GD32VW55x_standard_peripheral/Source\gd32vw55x_cau.c ****     }
 629:C:/Users/stapi/OneDrive/Desktop/GD32VW553/GD32VW55X_Wifi_BLE_SDK/GD32VW55x_RELEASE_V1.0.2/MSDK/plf/GD32VW55x_standard_peripheral/Source\gd32vw55x_cau.c **** 
 630:C:/Users/stapi/OneDrive/Desktop/GD32VW553/GD32VW55X_Wifi_BLE_SDK/GD32VW55x_RELEASE_V1.0.2/MSDK/plf/GD32VW55x_standard_peripheral/Source\gd32vw55x_cau.c ****     /* enable CAU */
 631:C:/Users/stapi/OneDrive/Desktop/GD32VW553/GD32VW55X_Wifi_BLE_SDK/GD32VW55x_RELEASE_V1.0.2/MSDK/plf/GD32VW55x_standard_peripheral/Source\gd32vw55x_cau.c ****     cau_enable();
 632:C:/Users/stapi/OneDrive/Desktop/GD32VW553/GD32VW55X_Wifi_BLE_SDK/GD32VW55x_RELEASE_V1.0.2/MSDK/plf/GD32VW55x_standard_peripheral/Source\gd32vw55x_cau.c **** }
 633:C:/Users/stapi/OneDrive/Desktop/GD32VW553/GD32VW55X_Wifi_BLE_SDK/GD32VW55x_RELEASE_V1.0.2/MSDK/plf/GD32VW55x_standard_peripheral/Source\gd32vw55x_cau.c **** 
 634:C:/Users/stapi/OneDrive/Desktop/GD32VW553/GD32VW55X_Wifi_BLE_SDK/GD32VW55x_RELEASE_V1.0.2/MSDK/plf/GD32VW55x_standard_peripheral/Source\gd32vw55x_cau.c **** /*!
 635:C:/Users/stapi/OneDrive/Desktop/GD32VW553/GD32VW55X_Wifi_BLE_SDK/GD32VW55x_RELEASE_V1.0.2/MSDK/plf/GD32VW55x_standard_peripheral/Source\gd32vw55x_cau.c ****     \brief      get the CAU flag status
 636:C:/Users/stapi/OneDrive/Desktop/GD32VW553/GD32VW55X_Wifi_BLE_SDK/GD32VW55x_RELEASE_V1.0.2/MSDK/plf/GD32VW55x_standard_peripheral/Source\gd32vw55x_cau.c ****     \param[in]  flag: CAU flag status
 637:C:/Users/stapi/OneDrive/Desktop/GD32VW553/GD32VW55X_Wifi_BLE_SDK/GD32VW55x_RELEASE_V1.0.2/MSDK/plf/GD32VW55x_standard_peripheral/Source\gd32vw55x_cau.c ****                 only one parameter can be selected which is shown as below:
 638:C:/Users/stapi/OneDrive/Desktop/GD32VW553/GD32VW55X_Wifi_BLE_SDK/GD32VW55x_RELEASE_V1.0.2/MSDK/plf/GD32VW55x_standard_peripheral/Source\gd32vw55x_cau.c ****       \arg        CAU_FLAG_INFIFO_EMPTY: input FIFO empty
 639:C:/Users/stapi/OneDrive/Desktop/GD32VW553/GD32VW55X_Wifi_BLE_SDK/GD32VW55x_RELEASE_V1.0.2/MSDK/plf/GD32VW55x_standard_peripheral/Source\gd32vw55x_cau.c ****       \arg        CAU_FLAG_INFIFO_NO_FULL: input FIFO is not full
 640:C:/Users/stapi/OneDrive/Desktop/GD32VW553/GD32VW55X_Wifi_BLE_SDK/GD32VW55x_RELEASE_V1.0.2/MSDK/plf/GD32VW55x_standard_peripheral/Source\gd32vw55x_cau.c ****       \arg        CAU_FLAG_OUTFIFO_NO_EMPTY: output FIFO not empty
 641:C:/Users/stapi/OneDrive/Desktop/GD32VW553/GD32VW55X_Wifi_BLE_SDK/GD32VW55x_RELEASE_V1.0.2/MSDK/plf/GD32VW55x_standard_peripheral/Source\gd32vw55x_cau.c ****       \arg        CAU_FLAG_OUTFIFO_FULL: output FIFO is full
 642:C:/Users/stapi/OneDrive/Desktop/GD32VW553/GD32VW55X_Wifi_BLE_SDK/GD32VW55x_RELEASE_V1.0.2/MSDK/plf/GD32VW55x_standard_peripheral/Source\gd32vw55x_cau.c ****       \arg        CAU_FLAG_BUSY: the CAU core is busy
 643:C:/Users/stapi/OneDrive/Desktop/GD32VW553/GD32VW55X_Wifi_BLE_SDK/GD32VW55x_RELEASE_V1.0.2/MSDK/plf/GD32VW55x_standard_peripheral/Source\gd32vw55x_cau.c ****       \arg        CAU_FLAG_INFIFO: input FIFO flag status
 644:C:/Users/stapi/OneDrive/Desktop/GD32VW553/GD32VW55X_Wifi_BLE_SDK/GD32VW55x_RELEASE_V1.0.2/MSDK/plf/GD32VW55x_standard_peripheral/Source\gd32vw55x_cau.c ****       \arg        CAU_FLAG_OUTFIFO: output FIFO flag status
 645:C:/Users/stapi/OneDrive/Desktop/GD32VW553/GD32VW55X_Wifi_BLE_SDK/GD32VW55x_RELEASE_V1.0.2/MSDK/plf/GD32VW55x_standard_peripheral/Source\gd32vw55x_cau.c ****     \param[out] none
 646:C:/Users/stapi/OneDrive/Desktop/GD32VW553/GD32VW55X_Wifi_BLE_SDK/GD32VW55x_RELEASE_V1.0.2/MSDK/plf/GD32VW55x_standard_peripheral/Source\gd32vw55x_cau.c ****     \retval     FlagStatus: SET or RESET
 647:C:/Users/stapi/OneDrive/Desktop/GD32VW553/GD32VW55X_Wifi_BLE_SDK/GD32VW55x_RELEASE_V1.0.2/MSDK/plf/GD32VW55x_standard_peripheral/Source\gd32vw55x_cau.c **** */
 648:C:/Users/stapi/OneDrive/Desktop/GD32VW553/GD32VW55X_Wifi_BLE_SDK/GD32VW55x_RELEASE_V1.0.2/MSDK/plf/GD32VW55x_standard_peripheral/Source\gd32vw55x_cau.c **** FlagStatus cau_flag_get(uint32_t flag)
 649:C:/Users/stapi/OneDrive/Desktop/GD32VW553/GD32VW55X_Wifi_BLE_SDK/GD32VW55x_RELEASE_V1.0.2/MSDK/plf/GD32VW55x_standard_peripheral/Source\gd32vw55x_cau.c **** {
 842              		.loc 1 649 1 is_stmt 1
 843              		.cfi_startproc
 844              	.LVL28:
 650:C:/Users/stapi/OneDrive/Desktop/GD32VW553/GD32VW55X_Wifi_BLE_SDK/GD32VW55x_RELEASE_V1.0.2/MSDK/plf/GD32VW55x_standard_peripheral/Source\gd32vw55x_cau.c ****     uint32_t reg = 0U;
 845              		.loc 1 650 5
 651:C:/Users/stapi/OneDrive/Desktop/GD32VW553/GD32VW55X_Wifi_BLE_SDK/GD32VW55x_RELEASE_V1.0.2/MSDK/plf/GD32VW55x_standard_peripheral/Source\gd32vw55x_cau.c ****     FlagStatus ret_flag = RESET;
 846              		.loc 1 651 5
 652:C:/Users/stapi/OneDrive/Desktop/GD32VW553/GD32VW55X_Wifi_BLE_SDK/GD32VW55x_RELEASE_V1.0.2/MSDK/plf/GD32VW55x_standard_peripheral/Source\gd32vw55x_cau.c **** 
 653:C:/Users/stapi/OneDrive/Desktop/GD32VW553/GD32VW55X_Wifi_BLE_SDK/GD32VW55x_RELEASE_V1.0.2/MSDK/plf/GD32VW55x_standard_peripheral/Source\gd32vw55x_cau.c ****     /* check if the flag is in CAU_STAT1 register */
 654:C:/Users/stapi/OneDrive/Desktop/GD32VW553/GD32VW55X_Wifi_BLE_SDK/GD32VW55x_RELEASE_V1.0.2/MSDK/plf/GD32VW55x_standard_peripheral/Source\gd32vw55x_cau.c ****     if(RESET != (flag & FLAG_MASK)){
 847              		.loc 1 654 5
 848              		.loc 1 654 23 is_stmt 0
 849 0000 93770502 		andi	a5,a0,32
 850              		.loc 1 654 7
 851 0004 81CB     		beq	a5,zero,.L32
 655:C:/Users/stapi/OneDrive/Desktop/GD32VW553/GD32VW55X_Wifi_BLE_SDK/GD32VW55x_RELEASE_V1.0.2/MSDK/plf/GD32VW55x_standard_peripheral/Source\gd32vw55x_cau.c ****         reg = CAU_STAT1;
 852              		.loc 1 655 9 is_stmt 1
 853              		.loc 1 655 13 is_stmt 0
 854 0006 B707064C 		li	a5,1275461632
 855 000a 9C4F     		lw	a5,24(a5)
 856              	.LVL29:
 857              	.L33:
 656:C:/Users/stapi/OneDrive/Desktop/GD32VW553/GD32VW55X_Wifi_BLE_SDK/GD32VW55x_RELEASE_V1.0.2/MSDK/plf/GD32VW55x_standard_peripheral/Source\gd32vw55x_cau.c ****     }else{
 657:C:/Users/stapi/OneDrive/Desktop/GD32VW553/GD32VW55X_Wifi_BLE_SDK/GD32VW55x_RELEASE_V1.0.2/MSDK/plf/GD32VW55x_standard_peripheral/Source\gd32vw55x_cau.c ****         /* the flag is in CAU_STAT0 register */
 658:C:/Users/stapi/OneDrive/Desktop/GD32VW553/GD32VW55X_Wifi_BLE_SDK/GD32VW55x_RELEASE_V1.0.2/MSDK/plf/GD32VW55x_standard_peripheral/Source\gd32vw55x_cau.c ****         reg = CAU_STAT0;
 659:C:/Users/stapi/OneDrive/Desktop/GD32VW553/GD32VW55X_Wifi_BLE_SDK/GD32VW55x_RELEASE_V1.0.2/MSDK/plf/GD32VW55x_standard_peripheral/Source\gd32vw55x_cau.c ****     }
 660:C:/Users/stapi/OneDrive/Desktop/GD32VW553/GD32VW55X_Wifi_BLE_SDK/GD32VW55x_RELEASE_V1.0.2/MSDK/plf/GD32VW55x_standard_peripheral/Source\gd32vw55x_cau.c **** 
 661:C:/Users/stapi/OneDrive/Desktop/GD32VW553/GD32VW55X_Wifi_BLE_SDK/GD32VW55x_RELEASE_V1.0.2/MSDK/plf/GD32VW55x_standard_peripheral/Source\gd32vw55x_cau.c ****     /* check the status of the specified CAU flag */
 662:C:/Users/stapi/OneDrive/Desktop/GD32VW553/GD32VW55X_Wifi_BLE_SDK/GD32VW55x_RELEASE_V1.0.2/MSDK/plf/GD32VW55x_standard_peripheral/Source\gd32vw55x_cau.c ****     if(RESET != (reg & flag)){
 858              		.loc 1 662 5 is_stmt 1
 663:C:/Users/stapi/OneDrive/Desktop/GD32VW553/GD32VW55X_Wifi_BLE_SDK/GD32VW55x_RELEASE_V1.0.2/MSDK/plf/GD32VW55x_standard_peripheral/Source\gd32vw55x_cau.c ****         ret_flag = SET;
 664:C:/Users/stapi/OneDrive/Desktop/GD32VW553/GD32VW55X_Wifi_BLE_SDK/GD32VW55x_RELEASE_V1.0.2/MSDK/plf/GD32VW55x_standard_peripheral/Source\gd32vw55x_cau.c ****     }
 665:C:/Users/stapi/OneDrive/Desktop/GD32VW553/GD32VW55X_Wifi_BLE_SDK/GD32VW55x_RELEASE_V1.0.2/MSDK/plf/GD32VW55x_standard_peripheral/Source\gd32vw55x_cau.c **** 
 666:C:/Users/stapi/OneDrive/Desktop/GD32VW553/GD32VW55X_Wifi_BLE_SDK/GD32VW55x_RELEASE_V1.0.2/MSDK/plf/GD32VW55x_standard_peripheral/Source\gd32vw55x_cau.c ****     return ret_flag;
 859              		.loc 1 666 5
 662:C:/Users/stapi/OneDrive/Desktop/GD32VW553/GD32VW55X_Wifi_BLE_SDK/GD32VW55x_RELEASE_V1.0.2/MSDK/plf/GD32VW55x_standard_peripheral/Source\gd32vw55x_cau.c ****         ret_flag = SET;
 860              		.loc 1 662 22 is_stmt 0
 861 000c 7D8D     		and	a0,a5,a0
 862              	.LVL30:
 667:C:/Users/stapi/OneDrive/Desktop/GD32VW553/GD32VW55X_Wifi_BLE_SDK/GD32VW55x_RELEASE_V1.0.2/MSDK/plf/GD32VW55x_standard_peripheral/Source\gd32vw55x_cau.c **** }
 863              		.loc 1 667 1
 864 000e 3335A000 		snez	a0,a0
 865 0012 8280     		ret
 866              	.LVL31:
 867              	.L32:
 658:C:/Users/stapi/OneDrive/Desktop/GD32VW553/GD32VW55X_Wifi_BLE_SDK/GD32VW55x_RELEASE_V1.0.2/MSDK/plf/GD32VW55x_standard_peripheral/Source\gd32vw55x_cau.c ****     }
 868              		.loc 1 658 9 is_stmt 1
 658:C:/Users/stapi/OneDrive/Desktop/GD32VW553/GD32VW55X_Wifi_BLE_SDK/GD32VW55x_RELEASE_V1.0.2/MSDK/plf/GD32VW55x_standard_peripheral/Source\gd32vw55x_cau.c ****     }
 869              		.loc 1 658 13 is_stmt 0
 870 0014 B707064C 		li	a5,1275461632
 871 0018 DC43     		lw	a5,4(a5)
 872              	.LVL32:
 873 001a CDBF     		j	.L33
 874              		.cfi_endproc
 875              	.LFE385:
 877              		.section	.text.cau_context_restore,"ax",@progbits
 878              		.align	1
 879              		.globl	cau_context_restore
 881              	cau_context_restore:
 882              	.LFB384:
 556:C:/Users/stapi/OneDrive/Desktop/GD32VW553/GD32VW55X_Wifi_BLE_SDK/GD32VW55x_RELEASE_V1.0.2/MSDK/plf/GD32VW55x_standard_peripheral/Source\gd32vw55x_cau.c ****     uint32_t algm_reg, aes_decrypt;
 883              		.loc 1 556 1 is_stmt 1
 884              		.cfi_startproc
 885              	.LVL33:
 886 0000 17030000 		call	t0,__riscv_save_1
 886      E7020300 
 887              		.cfi_offset 8, -8
 888              		.cfi_offset 1, -4
 889              		.cfi_def_cfa_offset 16
 557:C:/Users/stapi/OneDrive/Desktop/GD32VW553/GD32VW55X_Wifi_BLE_SDK/GD32VW55x_RELEASE_V1.0.2/MSDK/plf/GD32VW55x_standard_peripheral/Source\gd32vw55x_cau.c **** 
 890              		.loc 1 557 5
 560:C:/Users/stapi/OneDrive/Desktop/GD32VW553/GD32VW55X_Wifi_BLE_SDK/GD32VW55x_RELEASE_V1.0.2/MSDK/plf/GD32VW55x_standard_peripheral/Source\gd32vw55x_cau.c **** 
 891              		.loc 1 560 5
 560:C:/Users/stapi/OneDrive/Desktop/GD32VW553/GD32VW55X_Wifi_BLE_SDK/GD32VW55x_RELEASE_V1.0.2/MSDK/plf/GD32VW55x_standard_peripheral/Source\gd32vw55x_cau.c **** 
 892              		.loc 1 560 26 is_stmt 0
 893 0008 1841     		lw	a4,0(a0)
 560:C:/Users/stapi/OneDrive/Desktop/GD32VW553/GD32VW55X_Wifi_BLE_SDK/GD32VW55x_RELEASE_V1.0.2/MSDK/plf/GD32VW55x_standard_peripheral/Source\gd32vw55x_cau.c **** 
 894              		.loc 1 560 13
 895 000a B707064C 		li	a5,1275461632
 562:C:/Users/stapi/OneDrive/Desktop/GD32VW553/GD32VW55X_Wifi_BLE_SDK/GD32VW55x_RELEASE_V1.0.2/MSDK/plf/GD32VW55x_standard_peripheral/Source\gd32vw55x_cau.c **** 
 896              		.loc 1 562 14
 897 000e 37060800 		li	a2,524288
 560:C:/Users/stapi/OneDrive/Desktop/GD32VW553/GD32VW55X_Wifi_BLE_SDK/GD32VW55x_RELEASE_V1.0.2/MSDK/plf/GD32VW55x_standard_peripheral/Source\gd32vw55x_cau.c **** 
 898              		.loc 1 560 13
 899 0012 98C3     		sw	a4,0(a5)
 562:C:/Users/stapi/OneDrive/Desktop/GD32VW553/GD32VW55X_Wifi_BLE_SDK/GD32VW55x_RELEASE_V1.0.2/MSDK/plf/GD32VW55x_standard_peripheral/Source\gd32vw55x_cau.c **** 
 900              		.loc 1 562 5 is_stmt 1
 562:C:/Users/stapi/OneDrive/Desktop/GD32VW553/GD32VW55X_Wifi_BLE_SDK/GD32VW55x_RELEASE_V1.0.2/MSDK/plf/GD32VW55x_standard_peripheral/Source\gd32vw55x_cau.c **** 
 901              		.loc 1 562 16 is_stmt 0
 902 0014 9443     		lw	a3,0(a5)
 562:C:/Users/stapi/OneDrive/Desktop/GD32VW553/GD32VW55X_Wifi_BLE_SDK/GD32VW55x_RELEASE_V1.0.2/MSDK/plf/GD32VW55x_standard_peripheral/Source\gd32vw55x_cau.c **** 
 903              		.loc 1 562 14
 904 0016 13078603 		addi	a4,a2,56
 556:C:/Users/stapi/OneDrive/Desktop/GD32VW553/GD32VW55X_Wifi_BLE_SDK/GD32VW55x_RELEASE_V1.0.2/MSDK/plf/GD32VW55x_standard_peripheral/Source\gd32vw55x_cau.c ****     uint32_t algm_reg, aes_decrypt;
 905              		.loc 1 556 1
 906 001a 2A84     		mv	s0,a0
 562:C:/Users/stapi/OneDrive/Desktop/GD32VW553/GD32VW55X_Wifi_BLE_SDK/GD32VW55x_RELEASE_V1.0.2/MSDK/plf/GD32VW55x_standard_peripheral/Source\gd32vw55x_cau.c **** 
 907              		.loc 1 562 14
 908 001c 758F     		and	a4,a3,a4
 909              	.LVL34:
 565:C:/Users/stapi/OneDrive/Desktop/GD32VW553/GD32VW55X_Wifi_BLE_SDK/GD32VW55x_RELEASE_V1.0.2/MSDK/plf/GD32VW55x_standard_peripheral/Source\gd32vw55x_cau.c ****     CAU_KEY0L = cau_context->key_0_low;
 910              		.loc 1 565 5 is_stmt 1
 565:C:/Users/stapi/OneDrive/Desktop/GD32VW553/GD32VW55X_Wifi_BLE_SDK/GD32VW55x_RELEASE_V1.0.2/MSDK/plf/GD32VW55x_standard_peripheral/Source\gd32vw55x_cau.c ****     CAU_KEY0L = cau_context->key_0_low;
 911              		.loc 1 565 28 is_stmt 0
 912 001e 5449     		lw	a3,20(a0)
 565:C:/Users/stapi/OneDrive/Desktop/GD32VW553/GD32VW55X_Wifi_BLE_SDK/GD32VW55x_RELEASE_V1.0.2/MSDK/plf/GD32VW55x_standard_peripheral/Source\gd32vw55x_cau.c ****     CAU_KEY0L = cau_context->key_0_low;
 913              		.loc 1 565 15
 914 0020 94D3     		sw	a3,32(a5)
 566:C:/Users/stapi/OneDrive/Desktop/GD32VW553/GD32VW55X_Wifi_BLE_SDK/GD32VW55x_RELEASE_V1.0.2/MSDK/plf/GD32VW55x_standard_peripheral/Source\gd32vw55x_cau.c ****     CAU_KEY1H = cau_context->key_1_high;
 915              		.loc 1 566 5 is_stmt 1
 566:C:/Users/stapi/OneDrive/Desktop/GD32VW553/GD32VW55X_Wifi_BLE_SDK/GD32VW55x_RELEASE_V1.0.2/MSDK/plf/GD32VW55x_standard_peripheral/Source\gd32vw55x_cau.c ****     CAU_KEY1H = cau_context->key_1_high;
 916              		.loc 1 566 28 is_stmt 0
 917 0022 144D     		lw	a3,24(a0)
 566:C:/Users/stapi/OneDrive/Desktop/GD32VW553/GD32VW55X_Wifi_BLE_SDK/GD32VW55x_RELEASE_V1.0.2/MSDK/plf/GD32VW55x_standard_peripheral/Source\gd32vw55x_cau.c ****     CAU_KEY1H = cau_context->key_1_high;
 918              		.loc 1 566 15
 919 0024 D4D3     		sw	a3,36(a5)
 567:C:/Users/stapi/OneDrive/Desktop/GD32VW553/GD32VW55X_Wifi_BLE_SDK/GD32VW55x_RELEASE_V1.0.2/MSDK/plf/GD32VW55x_standard_peripheral/Source\gd32vw55x_cau.c ****     CAU_KEY1L = cau_context->key_1_low;
 920              		.loc 1 567 5 is_stmt 1
 567:C:/Users/stapi/OneDrive/Desktop/GD32VW553/GD32VW55X_Wifi_BLE_SDK/GD32VW55x_RELEASE_V1.0.2/MSDK/plf/GD32VW55x_standard_peripheral/Source\gd32vw55x_cau.c ****     CAU_KEY1L = cau_context->key_1_low;
 921              		.loc 1 567 28 is_stmt 0
 922 0026 544D     		lw	a3,28(a0)
 567:C:/Users/stapi/OneDrive/Desktop/GD32VW553/GD32VW55X_Wifi_BLE_SDK/GD32VW55x_RELEASE_V1.0.2/MSDK/plf/GD32VW55x_standard_peripheral/Source\gd32vw55x_cau.c ****     CAU_KEY1L = cau_context->key_1_low;
 923              		.loc 1 567 15
 924 0028 94D7     		sw	a3,40(a5)
 568:C:/Users/stapi/OneDrive/Desktop/GD32VW553/GD32VW55X_Wifi_BLE_SDK/GD32VW55x_RELEASE_V1.0.2/MSDK/plf/GD32VW55x_standard_peripheral/Source\gd32vw55x_cau.c ****     CAU_KEY2H = cau_context->key_2_high;
 925              		.loc 1 568 5 is_stmt 1
 568:C:/Users/stapi/OneDrive/Desktop/GD32VW553/GD32VW55X_Wifi_BLE_SDK/GD32VW55x_RELEASE_V1.0.2/MSDK/plf/GD32VW55x_standard_peripheral/Source\gd32vw55x_cau.c ****     CAU_KEY2H = cau_context->key_2_high;
 926              		.loc 1 568 28 is_stmt 0
 927 002a 1451     		lw	a3,32(a0)
 568:C:/Users/stapi/OneDrive/Desktop/GD32VW553/GD32VW55X_Wifi_BLE_SDK/GD32VW55x_RELEASE_V1.0.2/MSDK/plf/GD32VW55x_standard_peripheral/Source\gd32vw55x_cau.c ****     CAU_KEY2H = cau_context->key_2_high;
 928              		.loc 1 568 15
 929 002c D4D7     		sw	a3,44(a5)
 569:C:/Users/stapi/OneDrive/Desktop/GD32VW553/GD32VW55X_Wifi_BLE_SDK/GD32VW55x_RELEASE_V1.0.2/MSDK/plf/GD32VW55x_standard_peripheral/Source\gd32vw55x_cau.c ****     CAU_KEY2L = cau_context->key_2_low;
 930              		.loc 1 569 5 is_stmt 1
 569:C:/Users/stapi/OneDrive/Desktop/GD32VW553/GD32VW55X_Wifi_BLE_SDK/GD32VW55x_RELEASE_V1.0.2/MSDK/plf/GD32VW55x_standard_peripheral/Source\gd32vw55x_cau.c ****     CAU_KEY2L = cau_context->key_2_low;
 931              		.loc 1 569 28 is_stmt 0
 932 002e 5451     		lw	a3,36(a0)
 569:C:/Users/stapi/OneDrive/Desktop/GD32VW553/GD32VW55X_Wifi_BLE_SDK/GD32VW55x_RELEASE_V1.0.2/MSDK/plf/GD32VW55x_standard_peripheral/Source\gd32vw55x_cau.c ****     CAU_KEY2L = cau_context->key_2_low;
 933              		.loc 1 569 15
 934 0030 94DB     		sw	a3,48(a5)
 570:C:/Users/stapi/OneDrive/Desktop/GD32VW553/GD32VW55X_Wifi_BLE_SDK/GD32VW55x_RELEASE_V1.0.2/MSDK/plf/GD32VW55x_standard_peripheral/Source\gd32vw55x_cau.c ****     CAU_KEY3H = cau_context->key_3_high;
 935              		.loc 1 570 5 is_stmt 1
 570:C:/Users/stapi/OneDrive/Desktop/GD32VW553/GD32VW55X_Wifi_BLE_SDK/GD32VW55x_RELEASE_V1.0.2/MSDK/plf/GD32VW55x_standard_peripheral/Source\gd32vw55x_cau.c ****     CAU_KEY3H = cau_context->key_3_high;
 936              		.loc 1 570 28 is_stmt 0
 937 0032 1455     		lw	a3,40(a0)
 570:C:/Users/stapi/OneDrive/Desktop/GD32VW553/GD32VW55X_Wifi_BLE_SDK/GD32VW55x_RELEASE_V1.0.2/MSDK/plf/GD32VW55x_standard_peripheral/Source\gd32vw55x_cau.c ****     CAU_KEY3H = cau_context->key_3_high;
 938              		.loc 1 570 15
 939 0034 D4DB     		sw	a3,52(a5)
 571:C:/Users/stapi/OneDrive/Desktop/GD32VW553/GD32VW55X_Wifi_BLE_SDK/GD32VW55x_RELEASE_V1.0.2/MSDK/plf/GD32VW55x_standard_peripheral/Source\gd32vw55x_cau.c ****     CAU_KEY3L = cau_context->key_3_low;
 940              		.loc 1 571 5 is_stmt 1
 571:C:/Users/stapi/OneDrive/Desktop/GD32VW553/GD32VW55X_Wifi_BLE_SDK/GD32VW55x_RELEASE_V1.0.2/MSDK/plf/GD32VW55x_standard_peripheral/Source\gd32vw55x_cau.c ****     CAU_KEY3L = cau_context->key_3_low;
 941              		.loc 1 571 28 is_stmt 0
 942 0036 5455     		lw	a3,44(a0)
 571:C:/Users/stapi/OneDrive/Desktop/GD32VW553/GD32VW55X_Wifi_BLE_SDK/GD32VW55x_RELEASE_V1.0.2/MSDK/plf/GD32VW55x_standard_peripheral/Source\gd32vw55x_cau.c ****     CAU_KEY3L = cau_context->key_3_low;
 943              		.loc 1 571 15
 944 0038 94DF     		sw	a3,56(a5)
 572:C:/Users/stapi/OneDrive/Desktop/GD32VW553/GD32VW55X_Wifi_BLE_SDK/GD32VW55x_RELEASE_V1.0.2/MSDK/plf/GD32VW55x_standard_peripheral/Source\gd32vw55x_cau.c **** 
 945              		.loc 1 572 5 is_stmt 1
 572:C:/Users/stapi/OneDrive/Desktop/GD32VW553/GD32VW55X_Wifi_BLE_SDK/GD32VW55x_RELEASE_V1.0.2/MSDK/plf/GD32VW55x_standard_peripheral/Source\gd32vw55x_cau.c **** 
 946              		.loc 1 572 28 is_stmt 0
 947 003a 1459     		lw	a3,48(a0)
 572:C:/Users/stapi/OneDrive/Desktop/GD32VW553/GD32VW55X_Wifi_BLE_SDK/GD32VW55x_RELEASE_V1.0.2/MSDK/plf/GD32VW55x_standard_peripheral/Source\gd32vw55x_cau.c **** 
 948              		.loc 1 572 15
 949 003c D4DF     		sw	a3,60(a5)
 574:C:/Users/stapi/OneDrive/Desktop/GD32VW553/GD32VW55X_Wifi_BLE_SDK/GD32VW55x_RELEASE_V1.0.2/MSDK/plf/GD32VW55x_standard_peripheral/Source\gd32vw55x_cau.c ****         /* restore the initialization vectors */
 950              		.loc 1 574 5 is_stmt 1
 574:C:/Users/stapi/OneDrive/Desktop/GD32VW553/GD32VW55X_Wifi_BLE_SDK/GD32VW55x_RELEASE_V1.0.2/MSDK/plf/GD32VW55x_standard_peripheral/Source\gd32vw55x_cau.c ****         /* restore the initialization vectors */
 951              		.loc 1 574 7 is_stmt 0
 952 003e 11CB     		beq	a4,zero,.L36
 574:C:/Users/stapi/OneDrive/Desktop/GD32VW553/GD32VW55X_Wifi_BLE_SDK/GD32VW55x_RELEASE_V1.0.2/MSDK/plf/GD32VW55x_standard_peripheral/Source\gd32vw55x_cau.c ****         /* restore the initialization vectors */
 953              		.loc 1 574 40 discriminator 1
 954 0040 930607FF 		addi	a3,a4,-16
 955 0044 BD9A     		andi	a3,a3,-17
 956 0046 A5E6     		bne	a3,zero,.L37
 957              	.L40:
 583:C:/Users/stapi/OneDrive/Desktop/GD32VW553/GD32VW55X_Wifi_BLE_SDK/GD32VW55x_RELEASE_V1.0.2/MSDK/plf/GD32VW55x_standard_peripheral/Source\gd32vw55x_cau.c ****         CAU_GCMCCMCTXSx(0U) = cau_context->gcmccmctxs[0U];
 958              		.loc 1 583 39
 959 0048 B7070800 		li	a5,524288
 960 004c A107     		addi	a5,a5,8
 961 004e 630AF706 		beq	a4,a5,.L38
 962              	.LVL35:
 963              	.L36:
 607:C:/Users/stapi/OneDrive/Desktop/GD32VW553/GD32VW55X_Wifi_BLE_SDK/GD32VW55x_RELEASE_V1.0.2/MSDK/plf/GD32VW55x_standard_peripheral/Source\gd32vw55x_cau.c ****     if(((CAU_MODE_AES_ECB | CAU_DECRYPT) == aes_decrypt) || ((CAU_MODE_AES_CBC | CAU_DECRYPT) == ae
 964              		.loc 1 607 5 is_stmt 1
 607:C:/Users/stapi/OneDrive/Desktop/GD32VW553/GD32VW55X_Wifi_BLE_SDK/GD32VW55x_RELEASE_V1.0.2/MSDK/plf/GD32VW55x_standard_peripheral/Source\gd32vw55x_cau.c ****     if(((CAU_MODE_AES_ECB | CAU_DECRYPT) == aes_decrypt) || ((CAU_MODE_AES_CBC | CAU_DECRYPT) == ae
 965              		.loc 1 607 19 is_stmt 0
 966 0052 B707064C 		li	a5,1275461632
 967 0056 9C43     		lw	a5,0(a5)
 968              	.LVL36:
 608:C:/Users/stapi/OneDrive/Desktop/GD32VW553/GD32VW55X_Wifi_BLE_SDK/GD32VW55x_RELEASE_V1.0.2/MSDK/plf/GD32VW55x_standard_peripheral/Source\gd32vw55x_cau.c ****         uint32_t alg_dir, algo_mode, swapping;
 969              		.loc 1 608 5 is_stmt 1
 608:C:/Users/stapi/OneDrive/Desktop/GD32VW553/GD32VW55X_Wifi_BLE_SDK/GD32VW55x_RELEASE_V1.0.2/MSDK/plf/GD32VW55x_standard_peripheral/Source\gd32vw55x_cau.c ****         uint32_t alg_dir, algo_mode, swapping;
 970              		.loc 1 608 7 is_stmt 0
 971 0058 37070800 		li	a4,524288
 972 005c 13074703 		addi	a4,a4,52
 973 0060 F98F     		and	a5,a5,a4
 974              	.LVL37:
 975 0062 13074002 		li	a4,36
 976 0066 639CE702 		bne	a5,a4,.L41
 977              	.LBB2:
 609:C:/Users/stapi/OneDrive/Desktop/GD32VW553/GD32VW55X_Wifi_BLE_SDK/GD32VW55x_RELEASE_V1.0.2/MSDK/plf/GD32VW55x_standard_peripheral/Source\gd32vw55x_cau.c **** 
 978              		.loc 1 609 9 is_stmt 1
 612:C:/Users/stapi/OneDrive/Desktop/GD32VW553/GD32VW55X_Wifi_BLE_SDK/GD32VW55x_RELEASE_V1.0.2/MSDK/plf/GD32VW55x_standard_peripheral/Source\gd32vw55x_cau.c ****         /* parameters for key preparation for AES decryption */
 979              		.loc 1 612 9
 980 006a 97000000 		call	cau_fifo_flush
 980      E7800000 
 981              	.LVL38:
 614:C:/Users/stapi/OneDrive/Desktop/GD32VW553/GD32VW55X_Wifi_BLE_SDK/GD32VW55x_RELEASE_V1.0.2/MSDK/plf/GD32VW55x_standard_peripheral/Source\gd32vw55x_cau.c ****         algo_mode = CAU_MODE_AES_KEY;
 982              		.loc 1 614 9
 615:C:/Users/stapi/OneDrive/Desktop/GD32VW553/GD32VW55X_Wifi_BLE_SDK/GD32VW55x_RELEASE_V1.0.2/MSDK/plf/GD32VW55x_standard_peripheral/Source\gd32vw55x_cau.c ****         swapping = CAU_SWAPPING_32BIT;
 983              		.loc 1 615 9
 616:C:/Users/stapi/OneDrive/Desktop/GD32VW553/GD32VW55X_Wifi_BLE_SDK/GD32VW55x_RELEASE_V1.0.2/MSDK/plf/GD32VW55x_standard_peripheral/Source\gd32vw55x_cau.c ****         cau_init(alg_dir, algo_mode, swapping);
 984              		.loc 1 616 9
 617:C:/Users/stapi/OneDrive/Desktop/GD32VW553/GD32VW55X_Wifi_BLE_SDK/GD32VW55x_RELEASE_V1.0.2/MSDK/plf/GD32VW55x_standard_peripheral/Source\gd32vw55x_cau.c **** 
 985              		.loc 1 617 9
 986 0072 0146     		li	a2,0
 987 0074 93058003 		li	a1,56
 988 0078 1145     		li	a0,4
 989 007a 97000000 		call	cau_init
 989      E7800000 
 990              	.LVL39:
 620:C:/Users/stapi/OneDrive/Desktop/GD32VW553/GD32VW55X_Wifi_BLE_SDK/GD32VW55x_RELEASE_V1.0.2/MSDK/plf/GD32VW55x_standard_peripheral/Source\gd32vw55x_cau.c **** 
 991              		.loc 1 620 9
 992 0082 97000000 		call	cau_enable
 992      E7800000 
 993              	.LVL40:
 623:C:/Users/stapi/OneDrive/Desktop/GD32VW553/GD32VW55X_Wifi_BLE_SDK/GD32VW55x_RELEASE_V1.0.2/MSDK/plf/GD32VW55x_standard_peripheral/Source\gd32vw55x_cau.c ****         }
 994              		.loc 1 623 9
 995              	.L42:
 624:C:/Users/stapi/OneDrive/Desktop/GD32VW553/GD32VW55X_Wifi_BLE_SDK/GD32VW55x_RELEASE_V1.0.2/MSDK/plf/GD32VW55x_standard_peripheral/Source\gd32vw55x_cau.c **** 
 996              		.loc 1 624 9 discriminator 1
 623:C:/Users/stapi/OneDrive/Desktop/GD32VW553/GD32VW55X_Wifi_BLE_SDK/GD32VW55x_RELEASE_V1.0.2/MSDK/plf/GD32VW55x_standard_peripheral/Source\gd32vw55x_cau.c ****         }
 997              		.loc 1 623 14 discriminator 1
 623:C:/Users/stapi/OneDrive/Desktop/GD32VW553/GD32VW55X_Wifi_BLE_SDK/GD32VW55x_RELEASE_V1.0.2/MSDK/plf/GD32VW55x_standard_peripheral/Source\gd32vw55x_cau.c ****         }
 998              		.loc 1 623 31 is_stmt 0 discriminator 1
 999 008a 4145     		li	a0,16
 1000 008c 97000000 		call	cau_flag_get
 1000      E7800000 
 1001              	.LVL41:
 623:C:/Users/stapi/OneDrive/Desktop/GD32VW553/GD32VW55X_Wifi_BLE_SDK/GD32VW55x_RELEASE_V1.0.2/MSDK/plf/GD32VW55x_standard_peripheral/Source\gd32vw55x_cau.c ****         }
 1002              		.loc 1 623 14 discriminator 1
 1003 0094 7DF9     		bne	a0,zero,.L42
 627:C:/Users/stapi/OneDrive/Desktop/GD32VW553/GD32VW55X_Wifi_BLE_SDK/GD32VW55x_RELEASE_V1.0.2/MSDK/plf/GD32VW55x_standard_peripheral/Source\gd32vw55x_cau.c ****     }
 1004              		.loc 1 627 9 is_stmt 1
 627:C:/Users/stapi/OneDrive/Desktop/GD32VW553/GD32VW55X_Wifi_BLE_SDK/GD32VW55x_RELEASE_V1.0.2/MSDK/plf/GD32VW55x_standard_peripheral/Source\gd32vw55x_cau.c ****     }
 1005              		.loc 1 627 30 is_stmt 0
 1006 0096 1840     		lw	a4,0(s0)
 627:C:/Users/stapi/OneDrive/Desktop/GD32VW553/GD32VW55X_Wifi_BLE_SDK/GD32VW55x_RELEASE_V1.0.2/MSDK/plf/GD32VW55x_standard_peripheral/Source\gd32vw55x_cau.c ****     }
 1007              		.loc 1 627 17
 1008 0098 B707064C 		li	a5,1275461632
 1009 009c 98C3     		sw	a4,0(a5)
 1010              	.LVL42:
 1011              	.L41:
 1012              	.LBE2:
 631:C:/Users/stapi/OneDrive/Desktop/GD32VW553/GD32VW55X_Wifi_BLE_SDK/GD32VW55x_RELEASE_V1.0.2/MSDK/plf/GD32VW55x_standard_peripheral/Source\gd32vw55x_cau.c **** }
 1013              		.loc 1 631 5 is_stmt 1
 1014 009e 97000000 		call	cau_enable
 1014      E7800000 
 1015              	.LVL43:
 632:C:/Users/stapi/OneDrive/Desktop/GD32VW553/GD32VW55X_Wifi_BLE_SDK/GD32VW55x_RELEASE_V1.0.2/MSDK/plf/GD32VW55x_standard_peripheral/Source\gd32vw55x_cau.c **** 
 1016              		.loc 1 632 1 is_stmt 0
 1017 00a6 17030000 		tail	__riscv_restore_1
 1017      67000300 
 1018              		.cfi_remember_state
 1019              		.cfi_restore 8
 1020              		.cfi_restore 1
 1021              		.cfi_def_cfa_offset 0
 1022              	.LVL44:
 1023              	.L37:
 1024              		.cfi_restore_state
 576:C:/Users/stapi/OneDrive/Desktop/GD32VW553/GD32VW55X_Wifi_BLE_SDK/GD32VW55x_RELEASE_V1.0.2/MSDK/plf/GD32VW55x_standard_peripheral/Source\gd32vw55x_cau.c ****         CAU_IV0L = cau_context->iv_0_low;
 1025              		.loc 1 576 9 is_stmt 1
 576:C:/Users/stapi/OneDrive/Desktop/GD32VW553/GD32VW55X_Wifi_BLE_SDK/GD32VW55x_RELEASE_V1.0.2/MSDK/plf/GD32VW55x_standard_peripheral/Source\gd32vw55x_cau.c ****         CAU_IV0L = cau_context->iv_0_low;
 1026              		.loc 1 576 31 is_stmt 0
 1027 00ae 5441     		lw	a3,4(a0)
 576:C:/Users/stapi/OneDrive/Desktop/GD32VW553/GD32VW55X_Wifi_BLE_SDK/GD32VW55x_RELEASE_V1.0.2/MSDK/plf/GD32VW55x_standard_peripheral/Source\gd32vw55x_cau.c ****         CAU_IV0L = cau_context->iv_0_low;
 1028              		.loc 1 576 18
 1029 00b0 B4C3     		sw	a3,64(a5)
 577:C:/Users/stapi/OneDrive/Desktop/GD32VW553/GD32VW55X_Wifi_BLE_SDK/GD32VW55x_RELEASE_V1.0.2/MSDK/plf/GD32VW55x_standard_peripheral/Source\gd32vw55x_cau.c ****         CAU_IV1H = cau_context->iv_1_high;
 1030              		.loc 1 577 9 is_stmt 1
 577:C:/Users/stapi/OneDrive/Desktop/GD32VW553/GD32VW55X_Wifi_BLE_SDK/GD32VW55x_RELEASE_V1.0.2/MSDK/plf/GD32VW55x_standard_peripheral/Source\gd32vw55x_cau.c ****         CAU_IV1H = cau_context->iv_1_high;
 1031              		.loc 1 577 31 is_stmt 0
 1032 00b2 1445     		lw	a3,8(a0)
 577:C:/Users/stapi/OneDrive/Desktop/GD32VW553/GD32VW55X_Wifi_BLE_SDK/GD32VW55x_RELEASE_V1.0.2/MSDK/plf/GD32VW55x_standard_peripheral/Source\gd32vw55x_cau.c ****         CAU_IV1H = cau_context->iv_1_high;
 1033              		.loc 1 577 18
 1034 00b4 F4C3     		sw	a3,68(a5)
 578:C:/Users/stapi/OneDrive/Desktop/GD32VW553/GD32VW55X_Wifi_BLE_SDK/GD32VW55x_RELEASE_V1.0.2/MSDK/plf/GD32VW55x_standard_peripheral/Source\gd32vw55x_cau.c ****         CAU_IV1L = cau_context->iv_1_low;
 1035              		.loc 1 578 9 is_stmt 1
 578:C:/Users/stapi/OneDrive/Desktop/GD32VW553/GD32VW55X_Wifi_BLE_SDK/GD32VW55x_RELEASE_V1.0.2/MSDK/plf/GD32VW55x_standard_peripheral/Source\gd32vw55x_cau.c ****         CAU_IV1L = cau_context->iv_1_low;
 1036              		.loc 1 578 31 is_stmt 0
 1037 00b6 5445     		lw	a3,12(a0)
 578:C:/Users/stapi/OneDrive/Desktop/GD32VW553/GD32VW55X_Wifi_BLE_SDK/GD32VW55x_RELEASE_V1.0.2/MSDK/plf/GD32VW55x_standard_peripheral/Source\gd32vw55x_cau.c ****         CAU_IV1L = cau_context->iv_1_low;
 1038              		.loc 1 578 18
 1039 00b8 B4C7     		sw	a3,72(a5)
 579:C:/Users/stapi/OneDrive/Desktop/GD32VW553/GD32VW55X_Wifi_BLE_SDK/GD32VW55x_RELEASE_V1.0.2/MSDK/plf/GD32VW55x_standard_peripheral/Source\gd32vw55x_cau.c ****     }
 1040              		.loc 1 579 9 is_stmt 1
 579:C:/Users/stapi/OneDrive/Desktop/GD32VW553/GD32VW55X_Wifi_BLE_SDK/GD32VW55x_RELEASE_V1.0.2/MSDK/plf/GD32VW55x_standard_peripheral/Source\gd32vw55x_cau.c ****     }
 1041              		.loc 1 579 31 is_stmt 0
 1042 00ba 1449     		lw	a3,16(a0)
 579:C:/Users/stapi/OneDrive/Desktop/GD32VW553/GD32VW55X_Wifi_BLE_SDK/GD32VW55x_RELEASE_V1.0.2/MSDK/plf/GD32VW55x_standard_peripheral/Source\gd32vw55x_cau.c ****     }
 1043              		.loc 1 579 18
 1044 00bc F4C7     		sw	a3,76(a5)
 583:C:/Users/stapi/OneDrive/Desktop/GD32VW553/GD32VW55X_Wifi_BLE_SDK/GD32VW55x_RELEASE_V1.0.2/MSDK/plf/GD32VW55x_standard_peripheral/Source\gd32vw55x_cau.c ****         CAU_GCMCCMCTXSx(0U) = cau_context->gcmccmctxs[0U];
 1045              		.loc 1 583 5 is_stmt 1
 583:C:/Users/stapi/OneDrive/Desktop/GD32VW553/GD32VW55X_Wifi_BLE_SDK/GD32VW55x_RELEASE_V1.0.2/MSDK/plf/GD32VW55x_standard_peripheral/Source\gd32vw55x_cau.c ****         CAU_GCMCCMCTXSx(0U) = cau_context->gcmccmctxs[0U];
 1046              		.loc 1 583 7 is_stmt 0
 1047 00be E315C7F8 		bne	a4,a2,.L40
 1048              	.L38:
 584:C:/Users/stapi/OneDrive/Desktop/GD32VW553/GD32VW55X_Wifi_BLE_SDK/GD32VW55x_RELEASE_V1.0.2/MSDK/plf/GD32VW55x_standard_peripheral/Source\gd32vw55x_cau.c ****         CAU_GCMCCMCTXSx(1U) = cau_context->gcmccmctxs[1U];
 1049              		.loc 1 584 9 is_stmt 1
 584:C:/Users/stapi/OneDrive/Desktop/GD32VW553/GD32VW55X_Wifi_BLE_SDK/GD32VW55x_RELEASE_V1.0.2/MSDK/plf/GD32VW55x_standard_peripheral/Source\gd32vw55x_cau.c ****         CAU_GCMCCMCTXSx(1U) = cau_context->gcmccmctxs[1U];
 1050              		.loc 1 584 54 is_stmt 0
 1051 00c2 5458     		lw	a3,52(s0)
 584:C:/Users/stapi/OneDrive/Desktop/GD32VW553/GD32VW55X_Wifi_BLE_SDK/GD32VW55x_RELEASE_V1.0.2/MSDK/plf/GD32VW55x_standard_peripheral/Source\gd32vw55x_cau.c ****         CAU_GCMCCMCTXSx(1U) = cau_context->gcmccmctxs[1U];
 1052              		.loc 1 584 29
 1053 00c4 B707064C 		li	a5,1275461632
 1054 00c8 B4CB     		sw	a3,80(a5)
 585:C:/Users/stapi/OneDrive/Desktop/GD32VW553/GD32VW55X_Wifi_BLE_SDK/GD32VW55x_RELEASE_V1.0.2/MSDK/plf/GD32VW55x_standard_peripheral/Source\gd32vw55x_cau.c ****         CAU_GCMCCMCTXSx(2U) = cau_context->gcmccmctxs[2U];
 1055              		.loc 1 585 9 is_stmt 1
 585:C:/Users/stapi/OneDrive/Desktop/GD32VW553/GD32VW55X_Wifi_BLE_SDK/GD32VW55x_RELEASE_V1.0.2/MSDK/plf/GD32VW55x_standard_peripheral/Source\gd32vw55x_cau.c ****         CAU_GCMCCMCTXSx(2U) = cau_context->gcmccmctxs[2U];
 1056              		.loc 1 585 54 is_stmt 0
 1057 00ca 145C     		lw	a3,56(s0)
 585:C:/Users/stapi/OneDrive/Desktop/GD32VW553/GD32VW55X_Wifi_BLE_SDK/GD32VW55x_RELEASE_V1.0.2/MSDK/plf/GD32VW55x_standard_peripheral/Source\gd32vw55x_cau.c ****         CAU_GCMCCMCTXSx(2U) = cau_context->gcmccmctxs[2U];
 1058              		.loc 1 585 29
 1059 00cc F4CB     		sw	a3,84(a5)
 586:C:/Users/stapi/OneDrive/Desktop/GD32VW553/GD32VW55X_Wifi_BLE_SDK/GD32VW55x_RELEASE_V1.0.2/MSDK/plf/GD32VW55x_standard_peripheral/Source\gd32vw55x_cau.c ****         CAU_GCMCCMCTXSx(3U) = cau_context->gcmccmctxs[3U];
 1060              		.loc 1 586 9 is_stmt 1
 586:C:/Users/stapi/OneDrive/Desktop/GD32VW553/GD32VW55X_Wifi_BLE_SDK/GD32VW55x_RELEASE_V1.0.2/MSDK/plf/GD32VW55x_standard_peripheral/Source\gd32vw55x_cau.c ****         CAU_GCMCCMCTXSx(3U) = cau_context->gcmccmctxs[3U];
 1061              		.loc 1 586 54 is_stmt 0
 1062 00ce 545C     		lw	a3,60(s0)
 586:C:/Users/stapi/OneDrive/Desktop/GD32VW553/GD32VW55X_Wifi_BLE_SDK/GD32VW55x_RELEASE_V1.0.2/MSDK/plf/GD32VW55x_standard_peripheral/Source\gd32vw55x_cau.c ****         CAU_GCMCCMCTXSx(3U) = cau_context->gcmccmctxs[3U];
 1063              		.loc 1 586 29
 1064 00d0 B4CF     		sw	a3,88(a5)
 587:C:/Users/stapi/OneDrive/Desktop/GD32VW553/GD32VW55X_Wifi_BLE_SDK/GD32VW55x_RELEASE_V1.0.2/MSDK/plf/GD32VW55x_standard_peripheral/Source\gd32vw55x_cau.c ****         CAU_GCMCCMCTXSx(4U) = cau_context->gcmccmctxs[4U];
 1065              		.loc 1 587 9 is_stmt 1
 587:C:/Users/stapi/OneDrive/Desktop/GD32VW553/GD32VW55X_Wifi_BLE_SDK/GD32VW55x_RELEASE_V1.0.2/MSDK/plf/GD32VW55x_standard_peripheral/Source\gd32vw55x_cau.c ****         CAU_GCMCCMCTXSx(4U) = cau_context->gcmccmctxs[4U];
 1066              		.loc 1 587 54 is_stmt 0
 1067 00d2 3440     		lw	a3,64(s0)
 587:C:/Users/stapi/OneDrive/Desktop/GD32VW553/GD32VW55X_Wifi_BLE_SDK/GD32VW55x_RELEASE_V1.0.2/MSDK/plf/GD32VW55x_standard_peripheral/Source\gd32vw55x_cau.c ****         CAU_GCMCCMCTXSx(4U) = cau_context->gcmccmctxs[4U];
 1068              		.loc 1 587 29
 1069 00d4 F4CF     		sw	a3,92(a5)
 588:C:/Users/stapi/OneDrive/Desktop/GD32VW553/GD32VW55X_Wifi_BLE_SDK/GD32VW55x_RELEASE_V1.0.2/MSDK/plf/GD32VW55x_standard_peripheral/Source\gd32vw55x_cau.c ****         CAU_GCMCCMCTXSx(5U) = cau_context->gcmccmctxs[5U];
 1070              		.loc 1 588 9 is_stmt 1
 588:C:/Users/stapi/OneDrive/Desktop/GD32VW553/GD32VW55X_Wifi_BLE_SDK/GD32VW55x_RELEASE_V1.0.2/MSDK/plf/GD32VW55x_standard_peripheral/Source\gd32vw55x_cau.c ****         CAU_GCMCCMCTXSx(5U) = cau_context->gcmccmctxs[5U];
 1071              		.loc 1 588 54 is_stmt 0
 1072 00d6 7440     		lw	a3,68(s0)
 588:C:/Users/stapi/OneDrive/Desktop/GD32VW553/GD32VW55X_Wifi_BLE_SDK/GD32VW55x_RELEASE_V1.0.2/MSDK/plf/GD32VW55x_standard_peripheral/Source\gd32vw55x_cau.c ****         CAU_GCMCCMCTXSx(5U) = cau_context->gcmccmctxs[5U];
 1073              		.loc 1 588 29
 1074 00d8 B4D3     		sw	a3,96(a5)
 589:C:/Users/stapi/OneDrive/Desktop/GD32VW553/GD32VW55X_Wifi_BLE_SDK/GD32VW55x_RELEASE_V1.0.2/MSDK/plf/GD32VW55x_standard_peripheral/Source\gd32vw55x_cau.c ****         CAU_GCMCCMCTXSx(6U) = cau_context->gcmccmctxs[6U];
 1075              		.loc 1 589 9 is_stmt 1
 589:C:/Users/stapi/OneDrive/Desktop/GD32VW553/GD32VW55X_Wifi_BLE_SDK/GD32VW55x_RELEASE_V1.0.2/MSDK/plf/GD32VW55x_standard_peripheral/Source\gd32vw55x_cau.c ****         CAU_GCMCCMCTXSx(6U) = cau_context->gcmccmctxs[6U];
 1076              		.loc 1 589 54 is_stmt 0
 1077 00da 3444     		lw	a3,72(s0)
 589:C:/Users/stapi/OneDrive/Desktop/GD32VW553/GD32VW55X_Wifi_BLE_SDK/GD32VW55x_RELEASE_V1.0.2/MSDK/plf/GD32VW55x_standard_peripheral/Source\gd32vw55x_cau.c ****         CAU_GCMCCMCTXSx(6U) = cau_context->gcmccmctxs[6U];
 1078              		.loc 1 589 29
 1079 00dc F4D3     		sw	a3,100(a5)
 590:C:/Users/stapi/OneDrive/Desktop/GD32VW553/GD32VW55X_Wifi_BLE_SDK/GD32VW55x_RELEASE_V1.0.2/MSDK/plf/GD32VW55x_standard_peripheral/Source\gd32vw55x_cau.c ****         CAU_GCMCCMCTXSx(7U) = cau_context->gcmccmctxs[7U];
 1080              		.loc 1 590 9 is_stmt 1
 590:C:/Users/stapi/OneDrive/Desktop/GD32VW553/GD32VW55X_Wifi_BLE_SDK/GD32VW55x_RELEASE_V1.0.2/MSDK/plf/GD32VW55x_standard_peripheral/Source\gd32vw55x_cau.c ****         CAU_GCMCCMCTXSx(7U) = cau_context->gcmccmctxs[7U];
 1081              		.loc 1 590 54 is_stmt 0
 1082 00de 7444     		lw	a3,76(s0)
 590:C:/Users/stapi/OneDrive/Desktop/GD32VW553/GD32VW55X_Wifi_BLE_SDK/GD32VW55x_RELEASE_V1.0.2/MSDK/plf/GD32VW55x_standard_peripheral/Source\gd32vw55x_cau.c ****         CAU_GCMCCMCTXSx(7U) = cau_context->gcmccmctxs[7U];
 1083              		.loc 1 590 29
 1084 00e0 B4D7     		sw	a3,104(a5)
 591:C:/Users/stapi/OneDrive/Desktop/GD32VW553/GD32VW55X_Wifi_BLE_SDK/GD32VW55x_RELEASE_V1.0.2/MSDK/plf/GD32VW55x_standard_peripheral/Source\gd32vw55x_cau.c ****     }
 1085              		.loc 1 591 9 is_stmt 1
 591:C:/Users/stapi/OneDrive/Desktop/GD32VW553/GD32VW55X_Wifi_BLE_SDK/GD32VW55x_RELEASE_V1.0.2/MSDK/plf/GD32VW55x_standard_peripheral/Source\gd32vw55x_cau.c ****     }
 1086              		.loc 1 591 54 is_stmt 0
 1087 00e2 3448     		lw	a3,80(s0)
 591:C:/Users/stapi/OneDrive/Desktop/GD32VW553/GD32VW55X_Wifi_BLE_SDK/GD32VW55x_RELEASE_V1.0.2/MSDK/plf/GD32VW55x_standard_peripheral/Source\gd32vw55x_cau.c ****     }
 1088              		.loc 1 591 29
 1089 00e4 F4D7     		sw	a3,108(a5)
 595:C:/Users/stapi/OneDrive/Desktop/GD32VW553/GD32VW55X_Wifi_BLE_SDK/GD32VW55x_RELEASE_V1.0.2/MSDK/plf/GD32VW55x_standard_peripheral/Source\gd32vw55x_cau.c ****         CAU_GCMCTXSx(0U) = cau_context->gcmctxs[0U];
 1090              		.loc 1 595 5 is_stmt 1
 595:C:/Users/stapi/OneDrive/Desktop/GD32VW553/GD32VW55X_Wifi_BLE_SDK/GD32VW55x_RELEASE_V1.0.2/MSDK/plf/GD32VW55x_standard_peripheral/Source\gd32vw55x_cau.c ****         CAU_GCMCTXSx(0U) = cau_context->gcmctxs[0U];
 1091              		.loc 1 595 7 is_stmt 0
 1092 00e6 B7060800 		li	a3,524288
 1093 00ea E314D7F6 		bne	a4,a3,.L36
 596:C:/Users/stapi/OneDrive/Desktop/GD32VW553/GD32VW55X_Wifi_BLE_SDK/GD32VW55x_RELEASE_V1.0.2/MSDK/plf/GD32VW55x_standard_peripheral/Source\gd32vw55x_cau.c ****         CAU_GCMCTXSx(1U) = cau_context->gcmctxs[1U];
 1094              		.loc 1 596 9 is_stmt 1
 596:C:/Users/stapi/OneDrive/Desktop/GD32VW553/GD32VW55X_Wifi_BLE_SDK/GD32VW55x_RELEASE_V1.0.2/MSDK/plf/GD32VW55x_standard_peripheral/Source\gd32vw55x_cau.c ****         CAU_GCMCTXSx(1U) = cau_context->gcmctxs[1U];
 1095              		.loc 1 596 48 is_stmt 0
 1096 00ee 7848     		lw	a4,84(s0)
 1097              	.LVL45:
 596:C:/Users/stapi/OneDrive/Desktop/GD32VW553/GD32VW55X_Wifi_BLE_SDK/GD32VW55x_RELEASE_V1.0.2/MSDK/plf/GD32VW55x_standard_peripheral/Source\gd32vw55x_cau.c ****         CAU_GCMCTXSx(1U) = cau_context->gcmctxs[1U];
 1098              		.loc 1 596 26
 1099 00f0 B8DB     		sw	a4,112(a5)
 597:C:/Users/stapi/OneDrive/Desktop/GD32VW553/GD32VW55X_Wifi_BLE_SDK/GD32VW55x_RELEASE_V1.0.2/MSDK/plf/GD32VW55x_standard_peripheral/Source\gd32vw55x_cau.c ****         CAU_GCMCTXSx(2U) = cau_context->gcmctxs[2U];
 1100              		.loc 1 597 9 is_stmt 1
 597:C:/Users/stapi/OneDrive/Desktop/GD32VW553/GD32VW55X_Wifi_BLE_SDK/GD32VW55x_RELEASE_V1.0.2/MSDK/plf/GD32VW55x_standard_peripheral/Source\gd32vw55x_cau.c ****         CAU_GCMCTXSx(2U) = cau_context->gcmctxs[2U];
 1101              		.loc 1 597 48 is_stmt 0
 1102 00f2 384C     		lw	a4,88(s0)
 597:C:/Users/stapi/OneDrive/Desktop/GD32VW553/GD32VW55X_Wifi_BLE_SDK/GD32VW55x_RELEASE_V1.0.2/MSDK/plf/GD32VW55x_standard_peripheral/Source\gd32vw55x_cau.c ****         CAU_GCMCTXSx(2U) = cau_context->gcmctxs[2U];
 1103              		.loc 1 597 26
 1104 00f4 F8DB     		sw	a4,116(a5)
 598:C:/Users/stapi/OneDrive/Desktop/GD32VW553/GD32VW55X_Wifi_BLE_SDK/GD32VW55x_RELEASE_V1.0.2/MSDK/plf/GD32VW55x_standard_peripheral/Source\gd32vw55x_cau.c ****         CAU_GCMCTXSx(3U) = cau_context->gcmctxs[3U];
 1105              		.loc 1 598 9 is_stmt 1
 598:C:/Users/stapi/OneDrive/Desktop/GD32VW553/GD32VW55X_Wifi_BLE_SDK/GD32VW55x_RELEASE_V1.0.2/MSDK/plf/GD32VW55x_standard_peripheral/Source\gd32vw55x_cau.c ****         CAU_GCMCTXSx(3U) = cau_context->gcmctxs[3U];
 1106              		.loc 1 598 48 is_stmt 0
 1107 00f6 784C     		lw	a4,92(s0)
 598:C:/Users/stapi/OneDrive/Desktop/GD32VW553/GD32VW55X_Wifi_BLE_SDK/GD32VW55x_RELEASE_V1.0.2/MSDK/plf/GD32VW55x_standard_peripheral/Source\gd32vw55x_cau.c ****         CAU_GCMCTXSx(3U) = cau_context->gcmctxs[3U];
 1108              		.loc 1 598 26
 1109 00f8 B8DF     		sw	a4,120(a5)
 599:C:/Users/stapi/OneDrive/Desktop/GD32VW553/GD32VW55X_Wifi_BLE_SDK/GD32VW55x_RELEASE_V1.0.2/MSDK/plf/GD32VW55x_standard_peripheral/Source\gd32vw55x_cau.c ****         CAU_GCMCTXSx(4U) = cau_context->gcmctxs[4U];
 1110              		.loc 1 599 9 is_stmt 1
 599:C:/Users/stapi/OneDrive/Desktop/GD32VW553/GD32VW55X_Wifi_BLE_SDK/GD32VW55x_RELEASE_V1.0.2/MSDK/plf/GD32VW55x_standard_peripheral/Source\gd32vw55x_cau.c ****         CAU_GCMCTXSx(4U) = cau_context->gcmctxs[4U];
 1111              		.loc 1 599 48 is_stmt 0
 1112 00fa 3850     		lw	a4,96(s0)
 599:C:/Users/stapi/OneDrive/Desktop/GD32VW553/GD32VW55X_Wifi_BLE_SDK/GD32VW55x_RELEASE_V1.0.2/MSDK/plf/GD32VW55x_standard_peripheral/Source\gd32vw55x_cau.c ****         CAU_GCMCTXSx(4U) = cau_context->gcmctxs[4U];
 1113              		.loc 1 599 26
 1114 00fc F8DF     		sw	a4,124(a5)
 600:C:/Users/stapi/OneDrive/Desktop/GD32VW553/GD32VW55X_Wifi_BLE_SDK/GD32VW55x_RELEASE_V1.0.2/MSDK/plf/GD32VW55x_standard_peripheral/Source\gd32vw55x_cau.c ****         CAU_GCMCTXSx(5U) = cau_context->gcmctxs[5U];
 1115              		.loc 1 600 9 is_stmt 1
 600:C:/Users/stapi/OneDrive/Desktop/GD32VW553/GD32VW55X_Wifi_BLE_SDK/GD32VW55x_RELEASE_V1.0.2/MSDK/plf/GD32VW55x_standard_peripheral/Source\gd32vw55x_cau.c ****         CAU_GCMCTXSx(5U) = cau_context->gcmctxs[5U];
 1116              		.loc 1 600 48 is_stmt 0
 1117 00fe 7850     		lw	a4,100(s0)
 600:C:/Users/stapi/OneDrive/Desktop/GD32VW553/GD32VW55X_Wifi_BLE_SDK/GD32VW55x_RELEASE_V1.0.2/MSDK/plf/GD32VW55x_standard_peripheral/Source\gd32vw55x_cau.c ****         CAU_GCMCTXSx(5U) = cau_context->gcmctxs[5U];
 1118              		.loc 1 600 26
 1119 0100 93870708 		addi	a5,a5,128
 1120 0104 98C3     		sw	a4,0(a5)
 601:C:/Users/stapi/OneDrive/Desktop/GD32VW553/GD32VW55X_Wifi_BLE_SDK/GD32VW55x_RELEASE_V1.0.2/MSDK/plf/GD32VW55x_standard_peripheral/Source\gd32vw55x_cau.c ****         CAU_GCMCTXSx(6U) = cau_context->gcmctxs[6U];
 1121              		.loc 1 601 9 is_stmt 1
 601:C:/Users/stapi/OneDrive/Desktop/GD32VW553/GD32VW55X_Wifi_BLE_SDK/GD32VW55x_RELEASE_V1.0.2/MSDK/plf/GD32VW55x_standard_peripheral/Source\gd32vw55x_cau.c ****         CAU_GCMCTXSx(6U) = cau_context->gcmctxs[6U];
 1122              		.loc 1 601 48 is_stmt 0
 1123 0106 3854     		lw	a4,104(s0)
 601:C:/Users/stapi/OneDrive/Desktop/GD32VW553/GD32VW55X_Wifi_BLE_SDK/GD32VW55x_RELEASE_V1.0.2/MSDK/plf/GD32VW55x_standard_peripheral/Source\gd32vw55x_cau.c ****         CAU_GCMCTXSx(6U) = cau_context->gcmctxs[6U];
 1124              		.loc 1 601 26
 1125 0108 D8C3     		sw	a4,4(a5)
 602:C:/Users/stapi/OneDrive/Desktop/GD32VW553/GD32VW55X_Wifi_BLE_SDK/GD32VW55x_RELEASE_V1.0.2/MSDK/plf/GD32VW55x_standard_peripheral/Source\gd32vw55x_cau.c ****         CAU_GCMCTXSx(7U) = cau_context->gcmctxs[7U];
 1126              		.loc 1 602 9 is_stmt 1
 602:C:/Users/stapi/OneDrive/Desktop/GD32VW553/GD32VW55X_Wifi_BLE_SDK/GD32VW55x_RELEASE_V1.0.2/MSDK/plf/GD32VW55x_standard_peripheral/Source\gd32vw55x_cau.c ****         CAU_GCMCTXSx(7U) = cau_context->gcmctxs[7U];
 1127              		.loc 1 602 48 is_stmt 0
 1128 010a 7854     		lw	a4,108(s0)
 602:C:/Users/stapi/OneDrive/Desktop/GD32VW553/GD32VW55X_Wifi_BLE_SDK/GD32VW55x_RELEASE_V1.0.2/MSDK/plf/GD32VW55x_standard_peripheral/Source\gd32vw55x_cau.c ****         CAU_GCMCTXSx(7U) = cau_context->gcmctxs[7U];
 1129              		.loc 1 602 26
 1130 010c 98C7     		sw	a4,8(a5)
 603:C:/Users/stapi/OneDrive/Desktop/GD32VW553/GD32VW55X_Wifi_BLE_SDK/GD32VW55x_RELEASE_V1.0.2/MSDK/plf/GD32VW55x_standard_peripheral/Source\gd32vw55x_cau.c ****     }
 1131              		.loc 1 603 9 is_stmt 1
 603:C:/Users/stapi/OneDrive/Desktop/GD32VW553/GD32VW55X_Wifi_BLE_SDK/GD32VW55x_RELEASE_V1.0.2/MSDK/plf/GD32VW55x_standard_peripheral/Source\gd32vw55x_cau.c ****     }
 1132              		.loc 1 603 48 is_stmt 0
 1133 010e 3858     		lw	a4,112(s0)
 603:C:/Users/stapi/OneDrive/Desktop/GD32VW553/GD32VW55X_Wifi_BLE_SDK/GD32VW55x_RELEASE_V1.0.2/MSDK/plf/GD32VW55x_standard_peripheral/Source\gd32vw55x_cau.c ****     }
 1134              		.loc 1 603 26
 1135 0110 D8C7     		sw	a4,12(a5)
 1136 0112 81B7     		j	.L36
 1137              		.cfi_endproc
 1138              	.LFE384:
 1140              		.section	.text.cau_interrupt_enable,"ax",@progbits
 1141              		.align	1
 1142              		.globl	cau_interrupt_enable
 1144              	cau_interrupt_enable:
 1145              	.LFB386:
 668:C:/Users/stapi/OneDrive/Desktop/GD32VW553/GD32VW55X_Wifi_BLE_SDK/GD32VW55x_RELEASE_V1.0.2/MSDK/plf/GD32VW55x_standard_peripheral/Source\gd32vw55x_cau.c **** 
 669:C:/Users/stapi/OneDrive/Desktop/GD32VW553/GD32VW55X_Wifi_BLE_SDK/GD32VW55x_RELEASE_V1.0.2/MSDK/plf/GD32VW55x_standard_peripheral/Source\gd32vw55x_cau.c **** /*!
 670:C:/Users/stapi/OneDrive/Desktop/GD32VW553/GD32VW55X_Wifi_BLE_SDK/GD32VW55x_RELEASE_V1.0.2/MSDK/plf/GD32VW55x_standard_peripheral/Source\gd32vw55x_cau.c ****     \brief      enable the CAU interrupts
 671:C:/Users/stapi/OneDrive/Desktop/GD32VW553/GD32VW55X_Wifi_BLE_SDK/GD32VW55x_RELEASE_V1.0.2/MSDK/plf/GD32VW55x_standard_peripheral/Source\gd32vw55x_cau.c ****     \param[in]  interrupt: specify the CAU interrupt source to be enabled
 672:C:/Users/stapi/OneDrive/Desktop/GD32VW553/GD32VW55X_Wifi_BLE_SDK/GD32VW55x_RELEASE_V1.0.2/MSDK/plf/GD32VW55x_standard_peripheral/Source\gd32vw55x_cau.c ****                 one or more parameters can be selected which are shown as below:
 673:C:/Users/stapi/OneDrive/Desktop/GD32VW553/GD32VW55X_Wifi_BLE_SDK/GD32VW55x_RELEASE_V1.0.2/MSDK/plf/GD32VW55x_standard_peripheral/Source\gd32vw55x_cau.c ****       \arg        CAU_INT_INFIFO: input FIFO interrupt
 674:C:/Users/stapi/OneDrive/Desktop/GD32VW553/GD32VW55X_Wifi_BLE_SDK/GD32VW55x_RELEASE_V1.0.2/MSDK/plf/GD32VW55x_standard_peripheral/Source\gd32vw55x_cau.c ****       \arg        CAU_INT_OUTFIFO: output FIFO interrupt
 675:C:/Users/stapi/OneDrive/Desktop/GD32VW553/GD32VW55X_Wifi_BLE_SDK/GD32VW55x_RELEASE_V1.0.2/MSDK/plf/GD32VW55x_standard_peripheral/Source\gd32vw55x_cau.c ****     \param[out] none
 676:C:/Users/stapi/OneDrive/Desktop/GD32VW553/GD32VW55X_Wifi_BLE_SDK/GD32VW55x_RELEASE_V1.0.2/MSDK/plf/GD32VW55x_standard_peripheral/Source\gd32vw55x_cau.c ****     \retval     none
 677:C:/Users/stapi/OneDrive/Desktop/GD32VW553/GD32VW55X_Wifi_BLE_SDK/GD32VW55x_RELEASE_V1.0.2/MSDK/plf/GD32VW55x_standard_peripheral/Source\gd32vw55x_cau.c **** */
 678:C:/Users/stapi/OneDrive/Desktop/GD32VW553/GD32VW55X_Wifi_BLE_SDK/GD32VW55x_RELEASE_V1.0.2/MSDK/plf/GD32VW55x_standard_peripheral/Source\gd32vw55x_cau.c **** void cau_interrupt_enable(uint32_t interrupt)
 679:C:/Users/stapi/OneDrive/Desktop/GD32VW553/GD32VW55X_Wifi_BLE_SDK/GD32VW55x_RELEASE_V1.0.2/MSDK/plf/GD32VW55x_standard_peripheral/Source\gd32vw55x_cau.c **** {
 1146              		.loc 1 679 1 is_stmt 1
 1147              		.cfi_startproc
 1148              	.LVL46:
 680:C:/Users/stapi/OneDrive/Desktop/GD32VW553/GD32VW55X_Wifi_BLE_SDK/GD32VW55x_RELEASE_V1.0.2/MSDK/plf/GD32VW55x_standard_peripheral/Source\gd32vw55x_cau.c ****     /* enable the selected CAU interrupt */
 681:C:/Users/stapi/OneDrive/Desktop/GD32VW553/GD32VW55X_Wifi_BLE_SDK/GD32VW55x_RELEASE_V1.0.2/MSDK/plf/GD32VW55x_standard_peripheral/Source\gd32vw55x_cau.c ****     CAU_INTEN |= interrupt;
 1149              		.loc 1 681 5
 1150              		.loc 1 681 15 is_stmt 0
 1151 0000 3707064C 		li	a4,1275461632
 1152 0004 5C4B     		lw	a5,20(a4)
 1153 0006 C98F     		or	a5,a5,a0
 1154 0008 5CCB     		sw	a5,20(a4)
 682:C:/Users/stapi/OneDrive/Desktop/GD32VW553/GD32VW55X_Wifi_BLE_SDK/GD32VW55x_RELEASE_V1.0.2/MSDK/plf/GD32VW55x_standard_peripheral/Source\gd32vw55x_cau.c **** }
 1155              		.loc 1 682 1
 1156 000a 8280     		ret
 1157              		.cfi_endproc
 1158              	.LFE386:
 1160              		.section	.text.cau_interrupt_disable,"ax",@progbits
 1161              		.align	1
 1162              		.globl	cau_interrupt_disable
 1164              	cau_interrupt_disable:
 1165              	.LFB387:
 683:C:/Users/stapi/OneDrive/Desktop/GD32VW553/GD32VW55X_Wifi_BLE_SDK/GD32VW55x_RELEASE_V1.0.2/MSDK/plf/GD32VW55x_standard_peripheral/Source\gd32vw55x_cau.c **** 
 684:C:/Users/stapi/OneDrive/Desktop/GD32VW553/GD32VW55X_Wifi_BLE_SDK/GD32VW55x_RELEASE_V1.0.2/MSDK/plf/GD32VW55x_standard_peripheral/Source\gd32vw55x_cau.c **** /*!
 685:C:/Users/stapi/OneDrive/Desktop/GD32VW553/GD32VW55X_Wifi_BLE_SDK/GD32VW55x_RELEASE_V1.0.2/MSDK/plf/GD32VW55x_standard_peripheral/Source\gd32vw55x_cau.c ****     \brief      disable the CAU interrupts
 686:C:/Users/stapi/OneDrive/Desktop/GD32VW553/GD32VW55X_Wifi_BLE_SDK/GD32VW55x_RELEASE_V1.0.2/MSDK/plf/GD32VW55x_standard_peripheral/Source\gd32vw55x_cau.c ****     \param[in]  interrupt: specify the CAU interrupt source to be disabled
 687:C:/Users/stapi/OneDrive/Desktop/GD32VW553/GD32VW55X_Wifi_BLE_SDK/GD32VW55x_RELEASE_V1.0.2/MSDK/plf/GD32VW55x_standard_peripheral/Source\gd32vw55x_cau.c ****                 one or more parameters can be selected which are shown as below:
 688:C:/Users/stapi/OneDrive/Desktop/GD32VW553/GD32VW55X_Wifi_BLE_SDK/GD32VW55x_RELEASE_V1.0.2/MSDK/plf/GD32VW55x_standard_peripheral/Source\gd32vw55x_cau.c ****       \arg        CAU_INT_INFIFO: input FIFO interrupt
 689:C:/Users/stapi/OneDrive/Desktop/GD32VW553/GD32VW55X_Wifi_BLE_SDK/GD32VW55x_RELEASE_V1.0.2/MSDK/plf/GD32VW55x_standard_peripheral/Source\gd32vw55x_cau.c ****       \arg        CAU_INT_OUTFIFO: output FIFO interrupt
 690:C:/Users/stapi/OneDrive/Desktop/GD32VW553/GD32VW55X_Wifi_BLE_SDK/GD32VW55x_RELEASE_V1.0.2/MSDK/plf/GD32VW55x_standard_peripheral/Source\gd32vw55x_cau.c ****     \param[out] none
 691:C:/Users/stapi/OneDrive/Desktop/GD32VW553/GD32VW55X_Wifi_BLE_SDK/GD32VW55x_RELEASE_V1.0.2/MSDK/plf/GD32VW55x_standard_peripheral/Source\gd32vw55x_cau.c ****     \retval     none
 692:C:/Users/stapi/OneDrive/Desktop/GD32VW553/GD32VW55X_Wifi_BLE_SDK/GD32VW55x_RELEASE_V1.0.2/MSDK/plf/GD32VW55x_standard_peripheral/Source\gd32vw55x_cau.c **** */
 693:C:/Users/stapi/OneDrive/Desktop/GD32VW553/GD32VW55X_Wifi_BLE_SDK/GD32VW55x_RELEASE_V1.0.2/MSDK/plf/GD32VW55x_standard_peripheral/Source\gd32vw55x_cau.c **** void cau_interrupt_disable(uint32_t interrupt)
 694:C:/Users/stapi/OneDrive/Desktop/GD32VW553/GD32VW55X_Wifi_BLE_SDK/GD32VW55x_RELEASE_V1.0.2/MSDK/plf/GD32VW55x_standard_peripheral/Source\gd32vw55x_cau.c **** {
 1166              		.loc 1 694 1 is_stmt 1
 1167              		.cfi_startproc
 1168              	.LVL47:
 695:C:/Users/stapi/OneDrive/Desktop/GD32VW553/GD32VW55X_Wifi_BLE_SDK/GD32VW55x_RELEASE_V1.0.2/MSDK/plf/GD32VW55x_standard_peripheral/Source\gd32vw55x_cau.c ****     /* disable the selected CAU interrupt */
 696:C:/Users/stapi/OneDrive/Desktop/GD32VW553/GD32VW55X_Wifi_BLE_SDK/GD32VW55x_RELEASE_V1.0.2/MSDK/plf/GD32VW55x_standard_peripheral/Source\gd32vw55x_cau.c ****     CAU_INTEN &= ~(interrupt);
 1169              		.loc 1 696 5
 1170              		.loc 1 696 15 is_stmt 0
 1171 0000 B707064C 		li	a5,1275461632
 1172 0004 D84B     		lw	a4,20(a5)
 1173 0006 3375A740 		andn	a0,a4,a0
 1174              	.LVL48:
 1175 000a C8CB     		sw	a0,20(a5)
 697:C:/Users/stapi/OneDrive/Desktop/GD32VW553/GD32VW55X_Wifi_BLE_SDK/GD32VW55x_RELEASE_V1.0.2/MSDK/plf/GD32VW55x_standard_peripheral/Source\gd32vw55x_cau.c **** }
 1176              		.loc 1 697 1
 1177 000c 8280     		ret
 1178              		.cfi_endproc
 1179              	.LFE387:
 1181              		.section	.text.cau_interrupt_flag_get,"ax",@progbits
 1182              		.align	1
 1183              		.globl	cau_interrupt_flag_get
 1185              	cau_interrupt_flag_get:
 1186              	.LFB388:
 698:C:/Users/stapi/OneDrive/Desktop/GD32VW553/GD32VW55X_Wifi_BLE_SDK/GD32VW55x_RELEASE_V1.0.2/MSDK/plf/GD32VW55x_standard_peripheral/Source\gd32vw55x_cau.c **** 
 699:C:/Users/stapi/OneDrive/Desktop/GD32VW553/GD32VW55X_Wifi_BLE_SDK/GD32VW55x_RELEASE_V1.0.2/MSDK/plf/GD32VW55x_standard_peripheral/Source\gd32vw55x_cau.c **** /*!
 700:C:/Users/stapi/OneDrive/Desktop/GD32VW553/GD32VW55X_Wifi_BLE_SDK/GD32VW55x_RELEASE_V1.0.2/MSDK/plf/GD32VW55x_standard_peripheral/Source\gd32vw55x_cau.c ****     \brief      get the interrupt flag
 701:C:/Users/stapi/OneDrive/Desktop/GD32VW553/GD32VW55X_Wifi_BLE_SDK/GD32VW55x_RELEASE_V1.0.2/MSDK/plf/GD32VW55x_standard_peripheral/Source\gd32vw55x_cau.c ****     \param[in]  int_flag: CAU interrupt flag
 702:C:/Users/stapi/OneDrive/Desktop/GD32VW553/GD32VW55X_Wifi_BLE_SDK/GD32VW55x_RELEASE_V1.0.2/MSDK/plf/GD32VW55x_standard_peripheral/Source\gd32vw55x_cau.c ****                 only one parameter can be selected which is shown as below:
 703:C:/Users/stapi/OneDrive/Desktop/GD32VW553/GD32VW55X_Wifi_BLE_SDK/GD32VW55x_RELEASE_V1.0.2/MSDK/plf/GD32VW55x_standard_peripheral/Source\gd32vw55x_cau.c ****       \arg        CAU_INT_FLAG_INFIFO: input FIFO interrupt
 704:C:/Users/stapi/OneDrive/Desktop/GD32VW553/GD32VW55X_Wifi_BLE_SDK/GD32VW55x_RELEASE_V1.0.2/MSDK/plf/GD32VW55x_standard_peripheral/Source\gd32vw55x_cau.c ****       \arg        CAU_INT_FLAG_OUTFIFO: output FIFO interrupt
 705:C:/Users/stapi/OneDrive/Desktop/GD32VW553/GD32VW55X_Wifi_BLE_SDK/GD32VW55x_RELEASE_V1.0.2/MSDK/plf/GD32VW55x_standard_peripheral/Source\gd32vw55x_cau.c ****     \param[out] none
 706:C:/Users/stapi/OneDrive/Desktop/GD32VW553/GD32VW55X_Wifi_BLE_SDK/GD32VW55x_RELEASE_V1.0.2/MSDK/plf/GD32VW55x_standard_peripheral/Source\gd32vw55x_cau.c ****     \retval     FlagStatus: SET or RESET
 707:C:/Users/stapi/OneDrive/Desktop/GD32VW553/GD32VW55X_Wifi_BLE_SDK/GD32VW55x_RELEASE_V1.0.2/MSDK/plf/GD32VW55x_standard_peripheral/Source\gd32vw55x_cau.c **** */
 708:C:/Users/stapi/OneDrive/Desktop/GD32VW553/GD32VW55X_Wifi_BLE_SDK/GD32VW55x_RELEASE_V1.0.2/MSDK/plf/GD32VW55x_standard_peripheral/Source\gd32vw55x_cau.c **** FlagStatus cau_interrupt_flag_get(uint32_t int_flag)
 709:C:/Users/stapi/OneDrive/Desktop/GD32VW553/GD32VW55X_Wifi_BLE_SDK/GD32VW55x_RELEASE_V1.0.2/MSDK/plf/GD32VW55x_standard_peripheral/Source\gd32vw55x_cau.c **** {
 1187              		.loc 1 709 1 is_stmt 1
 1188              		.cfi_startproc
 1189              	.LVL49:
 710:C:/Users/stapi/OneDrive/Desktop/GD32VW553/GD32VW55X_Wifi_BLE_SDK/GD32VW55x_RELEASE_V1.0.2/MSDK/plf/GD32VW55x_standard_peripheral/Source\gd32vw55x_cau.c ****     FlagStatus flag = RESET;
 1190              		.loc 1 710 5
 711:C:/Users/stapi/OneDrive/Desktop/GD32VW553/GD32VW55X_Wifi_BLE_SDK/GD32VW55x_RELEASE_V1.0.2/MSDK/plf/GD32VW55x_standard_peripheral/Source\gd32vw55x_cau.c **** 
 712:C:/Users/stapi/OneDrive/Desktop/GD32VW553/GD32VW55X_Wifi_BLE_SDK/GD32VW55x_RELEASE_V1.0.2/MSDK/plf/GD32VW55x_standard_peripheral/Source\gd32vw55x_cau.c ****     /* check the status of the specified CAU interrupt */
 713:C:/Users/stapi/OneDrive/Desktop/GD32VW553/GD32VW55X_Wifi_BLE_SDK/GD32VW55x_RELEASE_V1.0.2/MSDK/plf/GD32VW55x_standard_peripheral/Source\gd32vw55x_cau.c ****     if(RESET != (CAU_INTF & int_flag)){
 1191              		.loc 1 713 5
 1192              		.loc 1 713 18 is_stmt 0
 1193 0000 B707064C 		li	a5,1275461632
 1194 0004 DC4F     		lw	a5,28(a5)
 1195              	.LVL50:
 714:C:/Users/stapi/OneDrive/Desktop/GD32VW553/GD32VW55X_Wifi_BLE_SDK/GD32VW55x_RELEASE_V1.0.2/MSDK/plf/GD32VW55x_standard_peripheral/Source\gd32vw55x_cau.c ****         flag = SET;
 715:C:/Users/stapi/OneDrive/Desktop/GD32VW553/GD32VW55X_Wifi_BLE_SDK/GD32VW55x_RELEASE_V1.0.2/MSDK/plf/GD32VW55x_standard_peripheral/Source\gd32vw55x_cau.c ****     }
 716:C:/Users/stapi/OneDrive/Desktop/GD32VW553/GD32VW55X_Wifi_BLE_SDK/GD32VW55x_RELEASE_V1.0.2/MSDK/plf/GD32VW55x_standard_peripheral/Source\gd32vw55x_cau.c **** 
 717:C:/Users/stapi/OneDrive/Desktop/GD32VW553/GD32VW55X_Wifi_BLE_SDK/GD32VW55x_RELEASE_V1.0.2/MSDK/plf/GD32VW55x_standard_peripheral/Source\gd32vw55x_cau.c ****     return flag;
 1196              		.loc 1 717 5 is_stmt 1
 713:C:/Users/stapi/OneDrive/Desktop/GD32VW553/GD32VW55X_Wifi_BLE_SDK/GD32VW55x_RELEASE_V1.0.2/MSDK/plf/GD32VW55x_standard_peripheral/Source\gd32vw55x_cau.c ****         flag = SET;
 1197              		.loc 1 713 27 is_stmt 0
 1198 0006 7D8D     		and	a0,a5,a0
 1199              	.LVL51:
 718:C:/Users/stapi/OneDrive/Desktop/GD32VW553/GD32VW55X_Wifi_BLE_SDK/GD32VW55x_RELEASE_V1.0.2/MSDK/plf/GD32VW55x_standard_peripheral/Source\gd32vw55x_cau.c **** }
 1200              		.loc 1 718 1
 1201 0008 3335A000 		snez	a0,a0
 1202 000c 8280     		ret
 1203              		.cfi_endproc
 1204              	.LFE388:
 1206              		.text
 1207              	.Letext0:
 1208              		.file 2 "c:\\users\\stapi\\onedrive\\desktop\\gd32vw553\\embeddedbuilder_v1.4.7.26843\\tools\\nucl
 1209              		.file 3 "c:\\users\\stapi\\onedrive\\desktop\\gd32vw553\\embeddedbuilder_v1.4.7.26843\\tools\\nucl
 1210              		.file 4 "..\\..\\..\\..\\plf\\riscv\\gd32vw55x/gd32vw55x.h"
 1211              		.file 5 "..\\..\\..\\..\\plf\\GD32VW55x_standard_peripheral\\Include/gd32vw55x_rcu.h"
 1212              		.file 6 "..\\..\\..\\..\\plf\\GD32VW55x_standard_peripheral\\Include/gd32vw55x_cau.h"
DEFINED SYMBOLS
                            *ABS*:0000000000000000 gd32vw55x_cau.c
C:\Users\stapi\AppData\Local\Temp\cc1aQxEq.s:13     .text.cau_deinit:0000000000000000 cau_deinit
C:\Users\stapi\AppData\Local\Temp\cc1aQxEq.s:17     .text.cau_deinit:0000000000000000 .L0 
C:\Users\stapi\AppData\Local\Temp\cc1aQxEq.s:18     .text.cau_deinit:0000000000000000 .L0 
C:\Users\stapi\AppData\Local\Temp\cc1aQxEq.s:19     .text.cau_deinit:0000000000000008 .L0 
C:\Users\stapi\AppData\Local\Temp\cc1aQxEq.s:20     .text.cau_deinit:0000000000000008 .L0 
C:\Users\stapi\AppData\Local\Temp\cc1aQxEq.s:22     .text.cau_deinit:0000000000000008 .L0 
C:\Users\stapi\AppData\Local\Temp\cc1aQxEq.s:26     .text.cau_deinit:0000000000000014 .L0 
C:\Users\stapi\AppData\Local\Temp\cc1aQxEq.s:30     .text.cau_deinit:0000000000000020 .L0 
C:\Users\stapi\AppData\Local\Temp\cc1aQxEq.s:31     .text.cau_deinit:0000000000000028 .L0 
C:\Users\stapi\AppData\Local\Temp\cc1aQxEq.s:32     .text.cau_deinit:0000000000000028 .L0 
C:\Users\stapi\AppData\Local\Temp\cc1aQxEq.s:33     .text.cau_deinit:0000000000000028 .L0 
C:\Users\stapi\AppData\Local\Temp\cc1aQxEq.s:40     .text.cau_struct_para_init:0000000000000000 cau_struct_para_init
C:\Users\stapi\AppData\Local\Temp\cc1aQxEq.s:43     .text.cau_struct_para_init:0000000000000000 .L0 
C:\Users\stapi\AppData\Local\Temp\cc1aQxEq.s:45     .text.cau_struct_para_init:0000000000000000 .L0 
C:\Users\stapi\AppData\Local\Temp\cc1aQxEq.s:46     .text.cau_struct_para_init:0000000000000000 .L0 
C:\Users\stapi\AppData\Local\Temp\cc1aQxEq.s:47     .text.cau_struct_para_init:0000000000000000 .L0 
C:\Users\stapi\AppData\Local\Temp\cc1aQxEq.s:49     .text.cau_struct_para_init:0000000000000004 .L0 
C:\Users\stapi\AppData\Local\Temp\cc1aQxEq.s:50     .text.cau_struct_para_init:0000000000000004 .L0 
C:\Users\stapi\AppData\Local\Temp\cc1aQxEq.s:52     .text.cau_struct_para_init:0000000000000008 .L0 
C:\Users\stapi\AppData\Local\Temp\cc1aQxEq.s:53     .text.cau_struct_para_init:0000000000000008 .L0 
C:\Users\stapi\AppData\Local\Temp\cc1aQxEq.s:55     .text.cau_struct_para_init:000000000000000c .L0 
C:\Users\stapi\AppData\Local\Temp\cc1aQxEq.s:56     .text.cau_struct_para_init:000000000000000c .L0 
C:\Users\stapi\AppData\Local\Temp\cc1aQxEq.s:58     .text.cau_struct_para_init:0000000000000010 .L0 
C:\Users\stapi\AppData\Local\Temp\cc1aQxEq.s:59     .text.cau_struct_para_init:0000000000000010 .L0 
C:\Users\stapi\AppData\Local\Temp\cc1aQxEq.s:61     .text.cau_struct_para_init:0000000000000014 .L0 
C:\Users\stapi\AppData\Local\Temp\cc1aQxEq.s:62     .text.cau_struct_para_init:0000000000000014 .L0 
C:\Users\stapi\AppData\Local\Temp\cc1aQxEq.s:64     .text.cau_struct_para_init:0000000000000018 .L0 
C:\Users\stapi\AppData\Local\Temp\cc1aQxEq.s:65     .text.cau_struct_para_init:0000000000000018 .L0 
C:\Users\stapi\AppData\Local\Temp\cc1aQxEq.s:67     .text.cau_struct_para_init:000000000000001c .L0 
C:\Users\stapi\AppData\Local\Temp\cc1aQxEq.s:68     .text.cau_struct_para_init:000000000000001c .L0 
C:\Users\stapi\AppData\Local\Temp\cc1aQxEq.s:70     .text.cau_struct_para_init:0000000000000020 .L0 
C:\Users\stapi\AppData\Local\Temp\cc1aQxEq.s:71     .text.cau_struct_para_init:0000000000000020 .L0 
C:\Users\stapi\AppData\Local\Temp\cc1aQxEq.s:73     .text.cau_struct_para_init:0000000000000024 .L0 
C:\Users\stapi\AppData\Local\Temp\cc1aQxEq.s:74     .text.cau_struct_para_init:0000000000000026 .L0 
C:\Users\stapi\AppData\Local\Temp\cc1aQxEq.s:81     .text.cau_key_struct_para_init:0000000000000000 cau_key_struct_para_init
C:\Users\stapi\AppData\Local\Temp\cc1aQxEq.s:84     .text.cau_key_struct_para_init:0000000000000000 .L0 
C:\Users\stapi\AppData\Local\Temp\cc1aQxEq.s:86     .text.cau_key_struct_para_init:0000000000000000 .L0 
C:\Users\stapi\AppData\Local\Temp\cc1aQxEq.s:87     .text.cau_key_struct_para_init:0000000000000000 .L0 
C:\Users\stapi\AppData\Local\Temp\cc1aQxEq.s:88     .text.cau_key_struct_para_init:0000000000000000 .L0 
C:\Users\stapi\AppData\Local\Temp\cc1aQxEq.s:90     .text.cau_key_struct_para_init:0000000000000004 .L0 
C:\Users\stapi\AppData\Local\Temp\cc1aQxEq.s:91     .text.cau_key_struct_para_init:0000000000000004 .L0 
C:\Users\stapi\AppData\Local\Temp\cc1aQxEq.s:93     .text.cau_key_struct_para_init:0000000000000008 .L0 
C:\Users\stapi\AppData\Local\Temp\cc1aQxEq.s:94     .text.cau_key_struct_para_init:0000000000000008 .L0 
C:\Users\stapi\AppData\Local\Temp\cc1aQxEq.s:96     .text.cau_key_struct_para_init:000000000000000c .L0 
C:\Users\stapi\AppData\Local\Temp\cc1aQxEq.s:97     .text.cau_key_struct_para_init:000000000000000c .L0 
C:\Users\stapi\AppData\Local\Temp\cc1aQxEq.s:99     .text.cau_key_struct_para_init:0000000000000010 .L0 
C:\Users\stapi\AppData\Local\Temp\cc1aQxEq.s:100    .text.cau_key_struct_para_init:0000000000000010 .L0 
C:\Users\stapi\AppData\Local\Temp\cc1aQxEq.s:102    .text.cau_key_struct_para_init:0000000000000014 .L0 
C:\Users\stapi\AppData\Local\Temp\cc1aQxEq.s:103    .text.cau_key_struct_para_init:0000000000000014 .L0 
C:\Users\stapi\AppData\Local\Temp\cc1aQxEq.s:105    .text.cau_key_struct_para_init:0000000000000018 .L0 
C:\Users\stapi\AppData\Local\Temp\cc1aQxEq.s:106    .text.cau_key_struct_para_init:0000000000000018 .L0 
C:\Users\stapi\AppData\Local\Temp\cc1aQxEq.s:108    .text.cau_key_struct_para_init:000000000000001c .L0 
C:\Users\stapi\AppData\Local\Temp\cc1aQxEq.s:109    .text.cau_key_struct_para_init:000000000000001c .L0 
C:\Users\stapi\AppData\Local\Temp\cc1aQxEq.s:111    .text.cau_key_struct_para_init:0000000000000020 .L0 
C:\Users\stapi\AppData\Local\Temp\cc1aQxEq.s:112    .text.cau_key_struct_para_init:0000000000000022 .L0 
C:\Users\stapi\AppData\Local\Temp\cc1aQxEq.s:119    .text.cau_iv_struct_para_init:0000000000000000 cau_iv_struct_para_init
C:\Users\stapi\AppData\Local\Temp\cc1aQxEq.s:122    .text.cau_iv_struct_para_init:0000000000000000 .L0 
C:\Users\stapi\AppData\Local\Temp\cc1aQxEq.s:124    .text.cau_iv_struct_para_init:0000000000000000 .L0 
C:\Users\stapi\AppData\Local\Temp\cc1aQxEq.s:125    .text.cau_iv_struct_para_init:0000000000000000 .L0 
C:\Users\stapi\AppData\Local\Temp\cc1aQxEq.s:126    .text.cau_iv_struct_para_init:0000000000000000 .L0 
C:\Users\stapi\AppData\Local\Temp\cc1aQxEq.s:128    .text.cau_iv_struct_para_init:0000000000000004 .L0 
C:\Users\stapi\AppData\Local\Temp\cc1aQxEq.s:129    .text.cau_iv_struct_para_init:0000000000000004 .L0 
C:\Users\stapi\AppData\Local\Temp\cc1aQxEq.s:131    .text.cau_iv_struct_para_init:0000000000000008 .L0 
C:\Users\stapi\AppData\Local\Temp\cc1aQxEq.s:132    .text.cau_iv_struct_para_init:0000000000000008 .L0 
C:\Users\stapi\AppData\Local\Temp\cc1aQxEq.s:134    .text.cau_iv_struct_para_init:000000000000000c .L0 
C:\Users\stapi\AppData\Local\Temp\cc1aQxEq.s:135    .text.cau_iv_struct_para_init:000000000000000c .L0 
C:\Users\stapi\AppData\Local\Temp\cc1aQxEq.s:137    .text.cau_iv_struct_para_init:0000000000000010 .L0 
C:\Users\stapi\AppData\Local\Temp\cc1aQxEq.s:138    .text.cau_iv_struct_para_init:0000000000000012 .L0 
C:\Users\stapi\AppData\Local\Temp\cc1aQxEq.s:145    .text.cau_context_struct_para_init:0000000000000000 cau_context_struct_para_init
C:\Users\stapi\AppData\Local\Temp\cc1aQxEq.s:148    .text.cau_context_struct_para_init:0000000000000000 .L0 
C:\Users\stapi\AppData\Local\Temp\cc1aQxEq.s:150    .text.cau_context_struct_para_init:0000000000000000 .L0 
C:\Users\stapi\AppData\Local\Temp\cc1aQxEq.s:151    .text.cau_context_struct_para_init:0000000000000000 .L0 
C:\Users\stapi\AppData\Local\Temp\cc1aQxEq.s:152    .text.cau_context_struct_para_init:0000000000000000 .L0 
C:\Users\stapi\AppData\Local\Temp\cc1aQxEq.s:154    .text.cau_context_struct_para_init:0000000000000004 .L0 
C:\Users\stapi\AppData\Local\Temp\cc1aQxEq.s:155    .text.cau_context_struct_para_init:0000000000000004 .L0 
C:\Users\stapi\AppData\Local\Temp\cc1aQxEq.s:157    .text.cau_context_struct_para_init:0000000000000008 .L0 
C:\Users\stapi\AppData\Local\Temp\cc1aQxEq.s:158    .text.cau_context_struct_para_init:0000000000000008 .L0 
C:\Users\stapi\AppData\Local\Temp\cc1aQxEq.s:160    .text.cau_context_struct_para_init:000000000000000c .L0 
C:\Users\stapi\AppData\Local\Temp\cc1aQxEq.s:161    .text.cau_context_struct_para_init:000000000000000c .L0 
C:\Users\stapi\AppData\Local\Temp\cc1aQxEq.s:163    .text.cau_context_struct_para_init:0000000000000010 .L0 
C:\Users\stapi\AppData\Local\Temp\cc1aQxEq.s:164    .text.cau_context_struct_para_init:0000000000000010 .L0 
C:\Users\stapi\AppData\Local\Temp\cc1aQxEq.s:166    .text.cau_context_struct_para_init:0000000000000014 .L0 
C:\Users\stapi\AppData\Local\Temp\cc1aQxEq.s:167    .text.cau_context_struct_para_init:0000000000000014 .L0 
C:\Users\stapi\AppData\Local\Temp\cc1aQxEq.s:169    .text.cau_context_struct_para_init:0000000000000018 .L0 
C:\Users\stapi\AppData\Local\Temp\cc1aQxEq.s:170    .text.cau_context_struct_para_init:0000000000000018 .L0 
C:\Users\stapi\AppData\Local\Temp\cc1aQxEq.s:172    .text.cau_context_struct_para_init:000000000000001c .L0 
C:\Users\stapi\AppData\Local\Temp\cc1aQxEq.s:173    .text.cau_context_struct_para_init:000000000000001c .L0 
C:\Users\stapi\AppData\Local\Temp\cc1aQxEq.s:175    .text.cau_context_struct_para_init:0000000000000020 .L0 
C:\Users\stapi\AppData\Local\Temp\cc1aQxEq.s:176    .text.cau_context_struct_para_init:0000000000000020 .L0 
C:\Users\stapi\AppData\Local\Temp\cc1aQxEq.s:178    .text.cau_context_struct_para_init:0000000000000024 .L0 
C:\Users\stapi\AppData\Local\Temp\cc1aQxEq.s:179    .text.cau_context_struct_para_init:0000000000000024 .L0 
C:\Users\stapi\AppData\Local\Temp\cc1aQxEq.s:181    .text.cau_context_struct_para_init:0000000000000028 .L0 
C:\Users\stapi\AppData\Local\Temp\cc1aQxEq.s:182    .text.cau_context_struct_para_init:0000000000000028 .L0 
C:\Users\stapi\AppData\Local\Temp\cc1aQxEq.s:184    .text.cau_context_struct_para_init:000000000000002c .L0 
C:\Users\stapi\AppData\Local\Temp\cc1aQxEq.s:185    .text.cau_context_struct_para_init:000000000000002c .L0 
C:\Users\stapi\AppData\Local\Temp\cc1aQxEq.s:187    .text.cau_context_struct_para_init:0000000000000030 .L0 
C:\Users\stapi\AppData\Local\Temp\cc1aQxEq.s:188    .text.cau_context_struct_para_init:0000000000000030 .L0 
C:\Users\stapi\AppData\Local\Temp\cc1aQxEq.s:190    .text.cau_context_struct_para_init:0000000000000034 .L0 
C:\Users\stapi\AppData\Local\Temp\cc1aQxEq.s:191    .text.cau_context_struct_para_init:0000000000000034 .L0 
C:\Users\stapi\AppData\Local\Temp\cc1aQxEq.s:193    .text.cau_context_struct_para_init:0000000000000038 .L0 
C:\Users\stapi\AppData\Local\Temp\cc1aQxEq.s:194    .text.cau_context_struct_para_init:0000000000000038 .L0 
C:\Users\stapi\AppData\Local\Temp\cc1aQxEq.s:196    .text.cau_context_struct_para_init:000000000000003c .L0 
C:\Users\stapi\AppData\Local\Temp\cc1aQxEq.s:197    .text.cau_context_struct_para_init:000000000000003c .L0 
C:\Users\stapi\AppData\Local\Temp\cc1aQxEq.s:199    .text.cau_context_struct_para_init:0000000000000040 .L0 
C:\Users\stapi\AppData\Local\Temp\cc1aQxEq.s:200    .text.cau_context_struct_para_init:0000000000000040 .L0 
C:\Users\stapi\AppData\Local\Temp\cc1aQxEq.s:202    .text.cau_context_struct_para_init:0000000000000044 .L0 
C:\Users\stapi\AppData\Local\Temp\cc1aQxEq.s:203    .text.cau_context_struct_para_init:0000000000000044 .L0 
C:\Users\stapi\AppData\Local\Temp\cc1aQxEq.s:205    .text.cau_context_struct_para_init:0000000000000048 .L0 
C:\Users\stapi\AppData\Local\Temp\cc1aQxEq.s:206    .text.cau_context_struct_para_init:0000000000000048 .L0 
C:\Users\stapi\AppData\Local\Temp\cc1aQxEq.s:208    .text.cau_context_struct_para_init:000000000000004c .L0 
C:\Users\stapi\AppData\Local\Temp\cc1aQxEq.s:209    .text.cau_context_struct_para_init:000000000000004c .L0 
C:\Users\stapi\AppData\Local\Temp\cc1aQxEq.s:211    .text.cau_context_struct_para_init:0000000000000050 .L0 
C:\Users\stapi\AppData\Local\Temp\cc1aQxEq.s:212    .text.cau_context_struct_para_init:0000000000000050 .L0 
C:\Users\stapi\AppData\Local\Temp\cc1aQxEq.s:214    .text.cau_context_struct_para_init:0000000000000054 .L0 
C:\Users\stapi\AppData\Local\Temp\cc1aQxEq.s:215    .text.cau_context_struct_para_init:0000000000000054 .L0 
C:\Users\stapi\AppData\Local\Temp\cc1aQxEq.s:217    .text.cau_context_struct_para_init:0000000000000058 .L0 
C:\Users\stapi\AppData\Local\Temp\cc1aQxEq.s:218    .text.cau_context_struct_para_init:0000000000000058 .L0 
C:\Users\stapi\AppData\Local\Temp\cc1aQxEq.s:220    .text.cau_context_struct_para_init:000000000000005c .L0 
C:\Users\stapi\AppData\Local\Temp\cc1aQxEq.s:221    .text.cau_context_struct_para_init:000000000000005c .L0 
C:\Users\stapi\AppData\Local\Temp\cc1aQxEq.s:223    .text.cau_context_struct_para_init:0000000000000060 .L0 
C:\Users\stapi\AppData\Local\Temp\cc1aQxEq.s:224    .text.cau_context_struct_para_init:0000000000000060 .L0 
C:\Users\stapi\AppData\Local\Temp\cc1aQxEq.s:226    .text.cau_context_struct_para_init:0000000000000064 .L0 
C:\Users\stapi\AppData\Local\Temp\cc1aQxEq.s:227    .text.cau_context_struct_para_init:0000000000000064 .L0 
C:\Users\stapi\AppData\Local\Temp\cc1aQxEq.s:229    .text.cau_context_struct_para_init:0000000000000068 .L0 
C:\Users\stapi\AppData\Local\Temp\cc1aQxEq.s:230    .text.cau_context_struct_para_init:0000000000000068 .L0 
C:\Users\stapi\AppData\Local\Temp\cc1aQxEq.s:232    .text.cau_context_struct_para_init:000000000000006c .L0 
C:\Users\stapi\AppData\Local\Temp\cc1aQxEq.s:233    .text.cau_context_struct_para_init:000000000000006c .L0 
C:\Users\stapi\AppData\Local\Temp\cc1aQxEq.s:235    .text.cau_context_struct_para_init:0000000000000070 .L0 
C:\Users\stapi\AppData\Local\Temp\cc1aQxEq.s:236    .text.cau_context_struct_para_init:0000000000000070 .L0 
C:\Users\stapi\AppData\Local\Temp\cc1aQxEq.s:238    .text.cau_context_struct_para_init:0000000000000074 .L0 
C:\Users\stapi\AppData\Local\Temp\cc1aQxEq.s:239    .text.cau_context_struct_para_init:0000000000000076 .L0 
C:\Users\stapi\AppData\Local\Temp\cc1aQxEq.s:246    .text.cau_enable:0000000000000000 cau_enable
C:\Users\stapi\AppData\Local\Temp\cc1aQxEq.s:249    .text.cau_enable:0000000000000000 .L0 
C:\Users\stapi\AppData\Local\Temp\cc1aQxEq.s:250    .text.cau_enable:0000000000000000 .L0 
C:\Users\stapi\AppData\Local\Temp\cc1aQxEq.s:251    .text.cau_enable:0000000000000000 .L0 
C:\Users\stapi\AppData\Local\Temp\cc1aQxEq.s:252    .text.cau_enable:0000000000000000 .L0 
C:\Users\stapi\AppData\Local\Temp\cc1aQxEq.s:257    .text.cau_enable:000000000000000c .L0 
C:\Users\stapi\AppData\Local\Temp\cc1aQxEq.s:258    .text.cau_enable:000000000000000e .L0 
C:\Users\stapi\AppData\Local\Temp\cc1aQxEq.s:265    .text.cau_disable:0000000000000000 cau_disable
C:\Users\stapi\AppData\Local\Temp\cc1aQxEq.s:268    .text.cau_disable:0000000000000000 .L0 
C:\Users\stapi\AppData\Local\Temp\cc1aQxEq.s:269    .text.cau_disable:0000000000000000 .L0 
C:\Users\stapi\AppData\Local\Temp\cc1aQxEq.s:270    .text.cau_disable:0000000000000000 .L0 
C:\Users\stapi\AppData\Local\Temp\cc1aQxEq.s:271    .text.cau_disable:0000000000000000 .L0 
C:\Users\stapi\AppData\Local\Temp\cc1aQxEq.s:276    .text.cau_disable:000000000000000c .L0 
C:\Users\stapi\AppData\Local\Temp\cc1aQxEq.s:277    .text.cau_disable:000000000000000e .L0 
C:\Users\stapi\AppData\Local\Temp\cc1aQxEq.s:284    .text.cau_dma_enable:0000000000000000 cau_dma_enable
C:\Users\stapi\AppData\Local\Temp\cc1aQxEq.s:287    .text.cau_dma_enable:0000000000000000 .L0 
C:\Users\stapi\AppData\Local\Temp\cc1aQxEq.s:289    .text.cau_dma_enable:0000000000000000 .L0 
C:\Users\stapi\AppData\Local\Temp\cc1aQxEq.s:290    .text.cau_dma_enable:0000000000000000 .L0 
C:\Users\stapi\AppData\Local\Temp\cc1aQxEq.s:291    .text.cau_dma_enable:0000000000000000 .L0 
C:\Users\stapi\AppData\Local\Temp\cc1aQxEq.s:296    .text.cau_dma_enable:000000000000000a .L0 
C:\Users\stapi\AppData\Local\Temp\cc1aQxEq.s:297    .text.cau_dma_enable:000000000000000c .L0 
C:\Users\stapi\AppData\Local\Temp\cc1aQxEq.s:304    .text.cau_dma_disable:0000000000000000 cau_dma_disable
C:\Users\stapi\AppData\Local\Temp\cc1aQxEq.s:307    .text.cau_dma_disable:0000000000000000 .L0 
C:\Users\stapi\AppData\Local\Temp\cc1aQxEq.s:309    .text.cau_dma_disable:0000000000000000 .L0 
C:\Users\stapi\AppData\Local\Temp\cc1aQxEq.s:310    .text.cau_dma_disable:0000000000000000 .L0 
C:\Users\stapi\AppData\Local\Temp\cc1aQxEq.s:311    .text.cau_dma_disable:0000000000000000 .L0 
C:\Users\stapi\AppData\Local\Temp\cc1aQxEq.s:317    .text.cau_dma_disable:000000000000000c .L0 
C:\Users\stapi\AppData\Local\Temp\cc1aQxEq.s:318    .text.cau_dma_disable:000000000000000e .L0 
C:\Users\stapi\AppData\Local\Temp\cc1aQxEq.s:325    .text.cau_init:0000000000000000 cau_init
C:\Users\stapi\AppData\Local\Temp\cc1aQxEq.s:328    .text.cau_init:0000000000000000 .L0 
C:\Users\stapi\AppData\Local\Temp\cc1aQxEq.s:330    .text.cau_init:0000000000000000 .L0 
C:\Users\stapi\AppData\Local\Temp\cc1aQxEq.s:331    .text.cau_init:0000000000000000 .L0 
C:\Users\stapi\AppData\Local\Temp\cc1aQxEq.s:332    .text.cau_init:0000000000000000 .L0 
C:\Users\stapi\AppData\Local\Temp\cc1aQxEq.s:339    .text.cau_init:0000000000000018 .L0 
C:\Users\stapi\AppData\Local\Temp\cc1aQxEq.s:340    .text.cau_init:0000000000000018 .L0 
C:\Users\stapi\AppData\Local\Temp\cc1aQxEq.s:344    .text.cau_init:0000000000000024 .L0 
C:\Users\stapi\AppData\Local\Temp\cc1aQxEq.s:345    .text.cau_init:0000000000000024 .L0 
C:\Users\stapi\AppData\Local\Temp\cc1aQxEq.s:350    .text.cau_init:000000000000002c .L0 
C:\Users\stapi\AppData\Local\Temp\cc1aQxEq.s:351    .text.cau_init:000000000000002c .L0 
C:\Users\stapi\AppData\Local\Temp\cc1aQxEq.s:355    .text.cau_init:0000000000000032 .L0 
C:\Users\stapi\AppData\Local\Temp\cc1aQxEq.s:356    .text.cau_init:0000000000000032 .L0 
C:\Users\stapi\AppData\Local\Temp\cc1aQxEq.s:360    .text.cau_init:0000000000000038 .L0 
C:\Users\stapi\AppData\Local\Temp\cc1aQxEq.s:361    .text.cau_init:0000000000000038 .L0 
C:\Users\stapi\AppData\Local\Temp\cc1aQxEq.s:365    .text.cau_init:000000000000003e .L0 
C:\Users\stapi\AppData\Local\Temp\cc1aQxEq.s:366    .text.cau_init:0000000000000040 .L0 
C:\Users\stapi\AppData\Local\Temp\cc1aQxEq.s:373    .text.cau_aes_keysize_config:0000000000000000 cau_aes_keysize_config
C:\Users\stapi\AppData\Local\Temp\cc1aQxEq.s:376    .text.cau_aes_keysize_config:0000000000000000 .L0 
C:\Users\stapi\AppData\Local\Temp\cc1aQxEq.s:378    .text.cau_aes_keysize_config:0000000000000000 .L0 
C:\Users\stapi\AppData\Local\Temp\cc1aQxEq.s:379    .text.cau_aes_keysize_config:0000000000000000 .L0 
C:\Users\stapi\AppData\Local\Temp\cc1aQxEq.s:380    .text.cau_aes_keysize_config:0000000000000000 .L0 
C:\Users\stapi\AppData\Local\Temp\cc1aQxEq.s:385    .text.cau_aes_keysize_config:000000000000000c .L0 
C:\Users\stapi\AppData\Local\Temp\cc1aQxEq.s:386    .text.cau_aes_keysize_config:000000000000000c .L0 
C:\Users\stapi\AppData\Local\Temp\cc1aQxEq.s:390    .text.cau_aes_keysize_config:0000000000000012 .L0 
C:\Users\stapi\AppData\Local\Temp\cc1aQxEq.s:391    .text.cau_aes_keysize_config:0000000000000014 .L0 
C:\Users\stapi\AppData\Local\Temp\cc1aQxEq.s:398    .text.cau_key_init:0000000000000000 cau_key_init
C:\Users\stapi\AppData\Local\Temp\cc1aQxEq.s:401    .text.cau_key_init:0000000000000000 .L0 
C:\Users\stapi\AppData\Local\Temp\cc1aQxEq.s:403    .text.cau_key_init:0000000000000000 .L0 
C:\Users\stapi\AppData\Local\Temp\cc1aQxEq.s:404    .text.cau_key_init:0000000000000000 .L0 
C:\Users\stapi\AppData\Local\Temp\cc1aQxEq.s:405    .text.cau_key_init:0000000000000000 .L0 
C:\Users\stapi\AppData\Local\Temp\cc1aQxEq.s:407    .text.cau_key_init:0000000000000002 .L0 
C:\Users\stapi\AppData\Local\Temp\cc1aQxEq.s:410    .text.cau_key_init:0000000000000008 .L0 
C:\Users\stapi\AppData\Local\Temp\cc1aQxEq.s:411    .text.cau_key_init:0000000000000008 .L0 
C:\Users\stapi\AppData\Local\Temp\cc1aQxEq.s:413    .text.cau_key_init:000000000000000a .L0 
C:\Users\stapi\AppData\Local\Temp\cc1aQxEq.s:415    .text.cau_key_init:000000000000000c .L0 
C:\Users\stapi\AppData\Local\Temp\cc1aQxEq.s:416    .text.cau_key_init:000000000000000c .L0 
C:\Users\stapi\AppData\Local\Temp\cc1aQxEq.s:418    .text.cau_key_init:000000000000000e .L0 
C:\Users\stapi\AppData\Local\Temp\cc1aQxEq.s:420    .text.cau_key_init:0000000000000010 .L0 
C:\Users\stapi\AppData\Local\Temp\cc1aQxEq.s:421    .text.cau_key_init:0000000000000010 .L0 
C:\Users\stapi\AppData\Local\Temp\cc1aQxEq.s:423    .text.cau_key_init:0000000000000012 .L0 
C:\Users\stapi\AppData\Local\Temp\cc1aQxEq.s:425    .text.cau_key_init:0000000000000014 .L0 
C:\Users\stapi\AppData\Local\Temp\cc1aQxEq.s:426    .text.cau_key_init:0000000000000014 .L0 
C:\Users\stapi\AppData\Local\Temp\cc1aQxEq.s:428    .text.cau_key_init:0000000000000016 .L0 
C:\Users\stapi\AppData\Local\Temp\cc1aQxEq.s:430    .text.cau_key_init:0000000000000018 .L0 
C:\Users\stapi\AppData\Local\Temp\cc1aQxEq.s:431    .text.cau_key_init:0000000000000018 .L0 
C:\Users\stapi\AppData\Local\Temp\cc1aQxEq.s:433    .text.cau_key_init:000000000000001a .L0 
C:\Users\stapi\AppData\Local\Temp\cc1aQxEq.s:435    .text.cau_key_init:000000000000001c .L0 
C:\Users\stapi\AppData\Local\Temp\cc1aQxEq.s:436    .text.cau_key_init:000000000000001c .L0 
C:\Users\stapi\AppData\Local\Temp\cc1aQxEq.s:438    .text.cau_key_init:000000000000001e .L0 
C:\Users\stapi\AppData\Local\Temp\cc1aQxEq.s:440    .text.cau_key_init:0000000000000020 .L0 
C:\Users\stapi\AppData\Local\Temp\cc1aQxEq.s:441    .text.cau_key_init:0000000000000020 .L0 
C:\Users\stapi\AppData\Local\Temp\cc1aQxEq.s:443    .text.cau_key_init:0000000000000022 .L0 
C:\Users\stapi\AppData\Local\Temp\cc1aQxEq.s:445    .text.cau_key_init:0000000000000024 .L0 
C:\Users\stapi\AppData\Local\Temp\cc1aQxEq.s:446    .text.cau_key_init:0000000000000026 .L0 
C:\Users\stapi\AppData\Local\Temp\cc1aQxEq.s:453    .text.cau_iv_init:0000000000000000 cau_iv_init
C:\Users\stapi\AppData\Local\Temp\cc1aQxEq.s:456    .text.cau_iv_init:0000000000000000 .L0 
C:\Users\stapi\AppData\Local\Temp\cc1aQxEq.s:458    .text.cau_iv_init:0000000000000000 .L0 
C:\Users\stapi\AppData\Local\Temp\cc1aQxEq.s:459    .text.cau_iv_init:0000000000000000 .L0 
C:\Users\stapi\AppData\Local\Temp\cc1aQxEq.s:460    .text.cau_iv_init:0000000000000000 .L0 
C:\Users\stapi\AppData\Local\Temp\cc1aQxEq.s:462    .text.cau_iv_init:0000000000000002 .L0 
C:\Users\stapi\AppData\Local\Temp\cc1aQxEq.s:465    .text.cau_iv_init:0000000000000008 .L0 
C:\Users\stapi\AppData\Local\Temp\cc1aQxEq.s:466    .text.cau_iv_init:0000000000000008 .L0 
C:\Users\stapi\AppData\Local\Temp\cc1aQxEq.s:468    .text.cau_iv_init:000000000000000a .L0 
C:\Users\stapi\AppData\Local\Temp\cc1aQxEq.s:470    .text.cau_iv_init:000000000000000c .L0 
C:\Users\stapi\AppData\Local\Temp\cc1aQxEq.s:471    .text.cau_iv_init:000000000000000c .L0 
C:\Users\stapi\AppData\Local\Temp\cc1aQxEq.s:473    .text.cau_iv_init:000000000000000e .L0 
C:\Users\stapi\AppData\Local\Temp\cc1aQxEq.s:475    .text.cau_iv_init:0000000000000010 .L0 
C:\Users\stapi\AppData\Local\Temp\cc1aQxEq.s:476    .text.cau_iv_init:0000000000000010 .L0 
C:\Users\stapi\AppData\Local\Temp\cc1aQxEq.s:478    .text.cau_iv_init:0000000000000012 .L0 
C:\Users\stapi\AppData\Local\Temp\cc1aQxEq.s:480    .text.cau_iv_init:0000000000000014 .L0 
C:\Users\stapi\AppData\Local\Temp\cc1aQxEq.s:481    .text.cau_iv_init:0000000000000016 .L0 
C:\Users\stapi\AppData\Local\Temp\cc1aQxEq.s:488    .text.cau_phase_config:0000000000000000 cau_phase_config
C:\Users\stapi\AppData\Local\Temp\cc1aQxEq.s:491    .text.cau_phase_config:0000000000000000 .L0 
C:\Users\stapi\AppData\Local\Temp\cc1aQxEq.s:493    .text.cau_phase_config:0000000000000000 .L0 
C:\Users\stapi\AppData\Local\Temp\cc1aQxEq.s:494    .text.cau_phase_config:0000000000000000 .L0 
C:\Users\stapi\AppData\Local\Temp\cc1aQxEq.s:495    .text.cau_phase_config:0000000000000000 .L0 
C:\Users\stapi\AppData\Local\Temp\cc1aQxEq.s:496    .text.cau_phase_config:0000000000000000 .L0 
C:\Users\stapi\AppData\Local\Temp\cc1aQxEq.s:500    .text.cau_phase_config:0000000000000006 .L0 
C:\Users\stapi\AppData\Local\Temp\cc1aQxEq.s:501    .text.cau_phase_config:0000000000000006 .L0 
C:\Users\stapi\AppData\Local\Temp\cc1aQxEq.s:506    .text.cau_phase_config:000000000000000e .L0 
C:\Users\stapi\AppData\Local\Temp\cc1aQxEq.s:507    .text.cau_phase_config:000000000000000e .L0 
C:\Users\stapi\AppData\Local\Temp\cc1aQxEq.s:510    .text.cau_phase_config:0000000000000010 .L0 
C:\Users\stapi\AppData\Local\Temp\cc1aQxEq.s:511    .text.cau_phase_config:0000000000000010 .L0 
C:\Users\stapi\AppData\Local\Temp\cc1aQxEq.s:513    .text.cau_phase_config:0000000000000012 .L0 
C:\Users\stapi\AppData\Local\Temp\cc1aQxEq.s:514    .text.cau_phase_config:0000000000000014 .L0 
C:\Users\stapi\AppData\Local\Temp\cc1aQxEq.s:521    .text.cau_fifo_flush:0000000000000000 cau_fifo_flush
C:\Users\stapi\AppData\Local\Temp\cc1aQxEq.s:524    .text.cau_fifo_flush:0000000000000000 .L0 
C:\Users\stapi\AppData\Local\Temp\cc1aQxEq.s:525    .text.cau_fifo_flush:0000000000000000 .L0 
C:\Users\stapi\AppData\Local\Temp\cc1aQxEq.s:526    .text.cau_fifo_flush:0000000000000000 .L0 
C:\Users\stapi\AppData\Local\Temp\cc1aQxEq.s:527    .text.cau_fifo_flush:0000000000000000 .L0 
C:\Users\stapi\AppData\Local\Temp\cc1aQxEq.s:532    .text.cau_fifo_flush:000000000000000c .L0 
C:\Users\stapi\AppData\Local\Temp\cc1aQxEq.s:533    .text.cau_fifo_flush:000000000000000e .L0 
C:\Users\stapi\AppData\Local\Temp\cc1aQxEq.s:540    .text.cau_enable_state_get:0000000000000000 cau_enable_state_get
C:\Users\stapi\AppData\Local\Temp\cc1aQxEq.s:543    .text.cau_enable_state_get:0000000000000000 .L0 
C:\Users\stapi\AppData\Local\Temp\cc1aQxEq.s:544    .text.cau_enable_state_get:0000000000000000 .L0 
C:\Users\stapi\AppData\Local\Temp\cc1aQxEq.s:546    .text.cau_enable_state_get:0000000000000000 .L0 
C:\Users\stapi\AppData\Local\Temp\cc1aQxEq.s:547    .text.cau_enable_state_get:0000000000000000 .L0 
C:\Users\stapi\AppData\Local\Temp\cc1aQxEq.s:548    .text.cau_enable_state_get:0000000000000000 .L0 
C:\Users\stapi\AppData\Local\Temp\cc1aQxEq.s:552    .text.cau_enable_state_get:0000000000000006 .L0 
C:\Users\stapi\AppData\Local\Temp\cc1aQxEq.s:553    .text.cau_enable_state_get:0000000000000006 .L0 
C:\Users\stapi\AppData\Local\Temp\cc1aQxEq.s:556    .text.cau_enable_state_get:000000000000000c .L0 
C:\Users\stapi\AppData\Local\Temp\cc1aQxEq.s:563    .text.cau_data_write:0000000000000000 cau_data_write
C:\Users\stapi\AppData\Local\Temp\cc1aQxEq.s:566    .text.cau_data_write:0000000000000000 .L0 
C:\Users\stapi\AppData\Local\Temp\cc1aQxEq.s:568    .text.cau_data_write:0000000000000000 .L0 
C:\Users\stapi\AppData\Local\Temp\cc1aQxEq.s:569    .text.cau_data_write:0000000000000000 .L0 
C:\Users\stapi\AppData\Local\Temp\cc1aQxEq.s:570    .text.cau_data_write:0000000000000000 .L0 
C:\Users\stapi\AppData\Local\Temp\cc1aQxEq.s:573    .text.cau_data_write:0000000000000006 .L0 
C:\Users\stapi\AppData\Local\Temp\cc1aQxEq.s:574    .text.cau_data_write:0000000000000008 .L0 
C:\Users\stapi\AppData\Local\Temp\cc1aQxEq.s:581    .text.cau_data_read:0000000000000000 cau_data_read
C:\Users\stapi\AppData\Local\Temp\cc1aQxEq.s:584    .text.cau_data_read:0000000000000000 .L0 
C:\Users\stapi\AppData\Local\Temp\cc1aQxEq.s:585    .text.cau_data_read:0000000000000000 .L0 
C:\Users\stapi\AppData\Local\Temp\cc1aQxEq.s:586    .text.cau_data_read:0000000000000000 .L0 
C:\Users\stapi\AppData\Local\Temp\cc1aQxEq.s:587    .text.cau_data_read:0000000000000000 .L0 
C:\Users\stapi\AppData\Local\Temp\cc1aQxEq.s:590    .text.cau_data_read:0000000000000006 .L0 
C:\Users\stapi\AppData\Local\Temp\cc1aQxEq.s:591    .text.cau_data_read:0000000000000008 .L0 
C:\Users\stapi\AppData\Local\Temp\cc1aQxEq.s:598    .text.cau_context_save:0000000000000000 cau_context_save
C:\Users\stapi\AppData\Local\Temp\cc1aQxEq.s:601    .text.cau_context_save:0000000000000000 .L0 
C:\Users\stapi\AppData\Local\Temp\cc1aQxEq.s:603    .text.cau_context_save:0000000000000000 .L0 
C:\Users\stapi\AppData\Local\Temp\cc1aQxEq.s:604    .text.cau_context_save:0000000000000000 .L0 
C:\Users\stapi\AppData\Local\Temp\cc1aQxEq.s:605    .text.cau_context_save:0000000000000000 .L0 
C:\Users\stapi\AppData\Local\Temp\cc1aQxEq.s:606    .text.cau_context_save:0000000000000000 .L0 
C:\Users\stapi\AppData\Local\Temp\cc1aQxEq.s:607    .text.cau_context_save:0000000000000000 .L0 
C:\Users\stapi\AppData\Local\Temp\cc1aQxEq.s:608    .text.cau_context_save:0000000000000000 .L0 
C:\Users\stapi\AppData\Local\Temp\cc1aQxEq.s:611    .text.cau_context_save:0000000000000006 .L0 
C:\Users\stapi\AppData\Local\Temp\cc1aQxEq.s:613    .text.cau_context_save:0000000000000008 .L0 
C:\Users\stapi\AppData\Local\Temp\cc1aQxEq.s:616    .text.cau_context_save:000000000000000c .L0 
C:\Users\stapi\AppData\Local\Temp\cc1aQxEq.s:617    .text.cau_context_save:000000000000000c .L0 
C:\Users\stapi\AppData\Local\Temp\cc1aQxEq.s:619    .text.cau_context_save:000000000000000e .L0 
C:\Users\stapi\AppData\Local\Temp\cc1aQxEq.s:622    .text.cau_context_save:0000000000000016 .L0 
C:\Users\stapi\AppData\Local\Temp\cc1aQxEq.s:624    .text.cau_context_save:000000000000001a .L0 
C:\Users\stapi\AppData\Local\Temp\cc1aQxEq.s:627    .text.cau_context_save:000000000000001c .L0 
C:\Users\stapi\AppData\Local\Temp\cc1aQxEq.s:628    .text.cau_context_save:000000000000001c .L0 
C:\Users\stapi\AppData\Local\Temp\cc1aQxEq.s:630    .text.cau_context_save:000000000000001e .L0 
C:\Users\stapi\AppData\Local\Temp\cc1aQxEq.s:632    .text.cau_context_save:0000000000000020 .L0 
C:\Users\stapi\AppData\Local\Temp\cc1aQxEq.s:634    .text.cau_context_save:0000000000000022 .L0 
C:\Users\stapi\AppData\Local\Temp\cc1aQxEq.s:638    .text.cau_context_save:0000000000000024 .L0 
C:\Users\stapi\AppData\Local\Temp\cc1aQxEq.s:642    .text.cau_context_save:0000000000000028 .L0 
C:\Users\stapi\AppData\Local\Temp\cc1aQxEq.s:643    .text.cau_context_save:0000000000000028 .L0 
C:\Users\stapi\AppData\Local\Temp\cc1aQxEq.s:644    .text.cau_context_save:0000000000000028 .L0 
C:\Users\stapi\AppData\Local\Temp\cc1aQxEq.s:646    .text.cau_context_save:000000000000002a .L0 
C:\Users\stapi\AppData\Local\Temp\cc1aQxEq.s:648    .text.cau_context_save:000000000000002e .L0 
C:\Users\stapi\AppData\Local\Temp\cc1aQxEq.s:650    .text.cau_context_save:0000000000000032 .L0 
C:\Users\stapi\AppData\Local\Temp\cc1aQxEq.s:651    .text.cau_context_save:0000000000000032 .L0 
C:\Users\stapi\AppData\Local\Temp\cc1aQxEq.s:654    .text.cau_context_save:0000000000000034 .L0 
C:\Users\stapi\AppData\Local\Temp\cc1aQxEq.s:657    .text.cau_context_save:000000000000003c .L0 
C:\Users\stapi\AppData\Local\Temp\cc1aQxEq.s:660    .text.cau_context_save:0000000000000040 .L0 
C:\Users\stapi\AppData\Local\Temp\cc1aQxEq.s:661    .text.cau_context_save:0000000000000040 .L0 
C:\Users\stapi\AppData\Local\Temp\cc1aQxEq.s:665    .text.cau_context_save:0000000000000048 .L0 
C:\Users\stapi\AppData\Local\Temp\cc1aQxEq.s:666    .text.cau_context_save:0000000000000048 .L0 
C:\Users\stapi\AppData\Local\Temp\cc1aQxEq.s:668    .text.cau_context_save:000000000000004a .L0 
C:\Users\stapi\AppData\Local\Temp\cc1aQxEq.s:670    .text.cau_context_save:000000000000004c .L0 
C:\Users\stapi\AppData\Local\Temp\cc1aQxEq.s:672    .text.cau_context_save:000000000000004e .L0 
C:\Users\stapi\AppData\Local\Temp\cc1aQxEq.s:673    .text.cau_context_save:000000000000004e .L0 
C:\Users\stapi\AppData\Local\Temp\cc1aQxEq.s:676    .text.cau_context_save:0000000000000052 .L0 
C:\Users\stapi\AppData\Local\Temp\cc1aQxEq.s:677    .text.cau_context_save:0000000000000052 .L0 
C:\Users\stapi\AppData\Local\Temp\cc1aQxEq.s:680    .text.cau_context_save:0000000000000056 .L0 
C:\Users\stapi\AppData\Local\Temp\cc1aQxEq.s:681    .text.cau_context_save:0000000000000056 .L0 
C:\Users\stapi\AppData\Local\Temp\cc1aQxEq.s:684    .text.cau_context_save:000000000000005a .L0 
C:\Users\stapi\AppData\Local\Temp\cc1aQxEq.s:685    .text.cau_context_save:000000000000005a .L0 
C:\Users\stapi\AppData\Local\Temp\cc1aQxEq.s:688    .text.cau_context_save:000000000000005e .L0 
C:\Users\stapi\AppData\Local\Temp\cc1aQxEq.s:689    .text.cau_context_save:000000000000005e .L0 
C:\Users\stapi\AppData\Local\Temp\cc1aQxEq.s:692    .text.cau_context_save:0000000000000062 .L0 
C:\Users\stapi\AppData\Local\Temp\cc1aQxEq.s:693    .text.cau_context_save:0000000000000062 .L0 
C:\Users\stapi\AppData\Local\Temp\cc1aQxEq.s:696    .text.cau_context_save:0000000000000066 .L0 
C:\Users\stapi\AppData\Local\Temp\cc1aQxEq.s:697    .text.cau_context_save:0000000000000066 .L0 
C:\Users\stapi\AppData\Local\Temp\cc1aQxEq.s:700    .text.cau_context_save:000000000000006a .L0 
C:\Users\stapi\AppData\Local\Temp\cc1aQxEq.s:701    .text.cau_context_save:000000000000006a .L0 
C:\Users\stapi\AppData\Local\Temp\cc1aQxEq.s:704    .text.cau_context_save:000000000000006e .L0 
C:\Users\stapi\AppData\Local\Temp\cc1aQxEq.s:705    .text.cau_context_save:000000000000006e .L0 
C:\Users\stapi\AppData\Local\Temp\cc1aQxEq.s:707    .text.cau_context_save:0000000000000070 .L0 
C:\Users\stapi\AppData\Local\Temp\cc1aQxEq.s:712    .text.cau_context_save:0000000000000078 .L0 
C:\Users\stapi\AppData\Local\Temp\cc1aQxEq.s:718    .text.cau_context_save:0000000000000084 .L0 
C:\Users\stapi\AppData\Local\Temp\cc1aQxEq.s:719    .text.cau_context_save:0000000000000084 .L0 
C:\Users\stapi\AppData\Local\Temp\cc1aQxEq.s:721    .text.cau_context_save:0000000000000086 .L0 
C:\Users\stapi\AppData\Local\Temp\cc1aQxEq.s:723    .text.cau_context_save:0000000000000088 .L0 
C:\Users\stapi\AppData\Local\Temp\cc1aQxEq.s:724    .text.cau_context_save:0000000000000088 .L0 
C:\Users\stapi\AppData\Local\Temp\cc1aQxEq.s:726    .text.cau_context_save:000000000000008a .L0 
C:\Users\stapi\AppData\Local\Temp\cc1aQxEq.s:728    .text.cau_context_save:000000000000008c .L0 
C:\Users\stapi\AppData\Local\Temp\cc1aQxEq.s:729    .text.cau_context_save:000000000000008c .L0 
C:\Users\stapi\AppData\Local\Temp\cc1aQxEq.s:731    .text.cau_context_save:000000000000008e .L0 
C:\Users\stapi\AppData\Local\Temp\cc1aQxEq.s:733    .text.cau_context_save:0000000000000090 .L0 
C:\Users\stapi\AppData\Local\Temp\cc1aQxEq.s:734    .text.cau_context_save:0000000000000090 .L0 
C:\Users\stapi\AppData\Local\Temp\cc1aQxEq.s:736    .text.cau_context_save:0000000000000092 .L0 
C:\Users\stapi\AppData\Local\Temp\cc1aQxEq.s:738    .text.cau_context_save:0000000000000094 .L0 
C:\Users\stapi\AppData\Local\Temp\cc1aQxEq.s:739    .text.cau_context_save:0000000000000094 .L0 
C:\Users\stapi\AppData\Local\Temp\cc1aQxEq.s:743    .text.cau_context_save:000000000000009c .L0 
C:\Users\stapi\AppData\Local\Temp\cc1aQxEq.s:744    .text.cau_context_save:000000000000009c .L0 
C:\Users\stapi\AppData\Local\Temp\cc1aQxEq.s:747    .text.cau_context_save:00000000000000a2 .L0 
C:\Users\stapi\AppData\Local\Temp\cc1aQxEq.s:749    .text.cau_context_save:00000000000000a4 .L0 
C:\Users\stapi\AppData\Local\Temp\cc1aQxEq.s:750    .text.cau_context_save:00000000000000a4 .L0 
C:\Users\stapi\AppData\Local\Temp\cc1aQxEq.s:752    .text.cau_context_save:00000000000000a6 .L0 
C:\Users\stapi\AppData\Local\Temp\cc1aQxEq.s:754    .text.cau_context_save:00000000000000a8 .L0 
C:\Users\stapi\AppData\Local\Temp\cc1aQxEq.s:755    .text.cau_context_save:00000000000000a8 .L0 
C:\Users\stapi\AppData\Local\Temp\cc1aQxEq.s:757    .text.cau_context_save:00000000000000aa .L0 
C:\Users\stapi\AppData\Local\Temp\cc1aQxEq.s:759    .text.cau_context_save:00000000000000ac .L0 
C:\Users\stapi\AppData\Local\Temp\cc1aQxEq.s:760    .text.cau_context_save:00000000000000ac .L0 
C:\Users\stapi\AppData\Local\Temp\cc1aQxEq.s:762    .text.cau_context_save:00000000000000ae .L0 
C:\Users\stapi\AppData\Local\Temp\cc1aQxEq.s:764    .text.cau_context_save:00000000000000b0 .L0 
C:\Users\stapi\AppData\Local\Temp\cc1aQxEq.s:765    .text.cau_context_save:00000000000000b0 .L0 
C:\Users\stapi\AppData\Local\Temp\cc1aQxEq.s:767    .text.cau_context_save:00000000000000b2 .L0 
C:\Users\stapi\AppData\Local\Temp\cc1aQxEq.s:769    .text.cau_context_save:00000000000000b4 .L0 
C:\Users\stapi\AppData\Local\Temp\cc1aQxEq.s:770    .text.cau_context_save:00000000000000b4 .L0 
C:\Users\stapi\AppData\Local\Temp\cc1aQxEq.s:772    .text.cau_context_save:00000000000000b6 .L0 
C:\Users\stapi\AppData\Local\Temp\cc1aQxEq.s:774    .text.cau_context_save:00000000000000b8 .L0 
C:\Users\stapi\AppData\Local\Temp\cc1aQxEq.s:775    .text.cau_context_save:00000000000000b8 .L0 
C:\Users\stapi\AppData\Local\Temp\cc1aQxEq.s:777    .text.cau_context_save:00000000000000ba .L0 
C:\Users\stapi\AppData\Local\Temp\cc1aQxEq.s:779    .text.cau_context_save:00000000000000bc .L0 
C:\Users\stapi\AppData\Local\Temp\cc1aQxEq.s:780    .text.cau_context_save:00000000000000bc .L0 
C:\Users\stapi\AppData\Local\Temp\cc1aQxEq.s:782    .text.cau_context_save:00000000000000be .L0 
C:\Users\stapi\AppData\Local\Temp\cc1aQxEq.s:784    .text.cau_context_save:00000000000000c0 .L0 
C:\Users\stapi\AppData\Local\Temp\cc1aQxEq.s:785    .text.cau_context_save:00000000000000c0 .L0 
C:\Users\stapi\AppData\Local\Temp\cc1aQxEq.s:788    .text.cau_context_save:00000000000000c8 .L0 
C:\Users\stapi\AppData\Local\Temp\cc1aQxEq.s:789    .text.cau_context_save:00000000000000c8 .L0 
C:\Users\stapi\AppData\Local\Temp\cc1aQxEq.s:792    .text.cau_context_save:00000000000000ca .L0 
C:\Users\stapi\AppData\Local\Temp\cc1aQxEq.s:794    .text.cau_context_save:00000000000000cc .L0 
C:\Users\stapi\AppData\Local\Temp\cc1aQxEq.s:795    .text.cau_context_save:00000000000000cc .L0 
C:\Users\stapi\AppData\Local\Temp\cc1aQxEq.s:797    .text.cau_context_save:00000000000000ce .L0 
C:\Users\stapi\AppData\Local\Temp\cc1aQxEq.s:799    .text.cau_context_save:00000000000000d0 .L0 
C:\Users\stapi\AppData\Local\Temp\cc1aQxEq.s:800    .text.cau_context_save:00000000000000d0 .L0 
C:\Users\stapi\AppData\Local\Temp\cc1aQxEq.s:802    .text.cau_context_save:00000000000000d2 .L0 
C:\Users\stapi\AppData\Local\Temp\cc1aQxEq.s:804    .text.cau_context_save:00000000000000d4 .L0 
C:\Users\stapi\AppData\Local\Temp\cc1aQxEq.s:805    .text.cau_context_save:00000000000000d4 .L0 
C:\Users\stapi\AppData\Local\Temp\cc1aQxEq.s:807    .text.cau_context_save:00000000000000d6 .L0 
C:\Users\stapi\AppData\Local\Temp\cc1aQxEq.s:809    .text.cau_context_save:00000000000000da .L0 
C:\Users\stapi\AppData\Local\Temp\cc1aQxEq.s:811    .text.cau_context_save:00000000000000dc .L0 
C:\Users\stapi\AppData\Local\Temp\cc1aQxEq.s:812    .text.cau_context_save:00000000000000dc .L0 
C:\Users\stapi\AppData\Local\Temp\cc1aQxEq.s:814    .text.cau_context_save:00000000000000de .L0 
C:\Users\stapi\AppData\Local\Temp\cc1aQxEq.s:816    .text.cau_context_save:00000000000000e0 .L0 
C:\Users\stapi\AppData\Local\Temp\cc1aQxEq.s:817    .text.cau_context_save:00000000000000e0 .L0 
C:\Users\stapi\AppData\Local\Temp\cc1aQxEq.s:819    .text.cau_context_save:00000000000000e2 .L0 
C:\Users\stapi\AppData\Local\Temp\cc1aQxEq.s:821    .text.cau_context_save:00000000000000e4 .L0 
C:\Users\stapi\AppData\Local\Temp\cc1aQxEq.s:822    .text.cau_context_save:00000000000000e4 .L0 
C:\Users\stapi\AppData\Local\Temp\cc1aQxEq.s:824    .text.cau_context_save:00000000000000e6 .L0 
C:\Users\stapi\AppData\Local\Temp\cc1aQxEq.s:826    .text.cau_context_save:00000000000000e8 .L0 
C:\Users\stapi\AppData\Local\Temp\cc1aQxEq.s:827    .text.cau_context_save:00000000000000e8 .L0 
C:\Users\stapi\AppData\Local\Temp\cc1aQxEq.s:829    .text.cau_context_save:00000000000000ea .L0 
C:\Users\stapi\AppData\Local\Temp\cc1aQxEq.s:832    .text.cau_context_save:00000000000000ec .L0 
C:\Users\stapi\AppData\Local\Temp\cc1aQxEq.s:833    .text.cau_context_save:00000000000000ee .L0 
C:\Users\stapi\AppData\Local\Temp\cc1aQxEq.s:840    .text.cau_flag_get:0000000000000000 cau_flag_get
C:\Users\stapi\AppData\Local\Temp\cc1aQxEq.s:843    .text.cau_flag_get:0000000000000000 .L0 
C:\Users\stapi\AppData\Local\Temp\cc1aQxEq.s:845    .text.cau_flag_get:0000000000000000 .L0 
C:\Users\stapi\AppData\Local\Temp\cc1aQxEq.s:846    .text.cau_flag_get:0000000000000000 .L0 
C:\Users\stapi\AppData\Local\Temp\cc1aQxEq.s:847    .text.cau_flag_get:0000000000000000 .L0 
C:\Users\stapi\AppData\Local\Temp\cc1aQxEq.s:848    .text.cau_flag_get:0000000000000000 .L0 
C:\Users\stapi\AppData\Local\Temp\cc1aQxEq.s:849    .text.cau_flag_get:0000000000000000 .L0 
C:\Users\stapi\AppData\Local\Temp\cc1aQxEq.s:851    .text.cau_flag_get:0000000000000004 .L0 
C:\Users\stapi\AppData\Local\Temp\cc1aQxEq.s:853    .text.cau_flag_get:0000000000000006 .L0 
C:\Users\stapi\AppData\Local\Temp\cc1aQxEq.s:854    .text.cau_flag_get:0000000000000006 .L0 
C:\Users\stapi\AppData\Local\Temp\cc1aQxEq.s:859    .text.cau_flag_get:000000000000000c .L0 
C:\Users\stapi\AppData\Local\Temp\cc1aQxEq.s:860    .text.cau_flag_get:000000000000000c .L0 
C:\Users\stapi\AppData\Local\Temp\cc1aQxEq.s:861    .text.cau_flag_get:000000000000000c .L0 
C:\Users\stapi\AppData\Local\Temp\cc1aQxEq.s:864    .text.cau_flag_get:000000000000000e .L0 
C:\Users\stapi\AppData\Local\Temp\cc1aQxEq.s:869    .text.cau_flag_get:0000000000000014 .L0 
C:\Users\stapi\AppData\Local\Temp\cc1aQxEq.s:870    .text.cau_flag_get:0000000000000014 .L0 
C:\Users\stapi\AppData\Local\Temp\cc1aQxEq.s:874    .text.cau_flag_get:000000000000001c .L0 
C:\Users\stapi\AppData\Local\Temp\cc1aQxEq.s:881    .text.cau_context_restore:0000000000000000 cau_context_restore
C:\Users\stapi\AppData\Local\Temp\cc1aQxEq.s:884    .text.cau_context_restore:0000000000000000 .L0 
C:\Users\stapi\AppData\Local\Temp\cc1aQxEq.s:886    .text.cau_context_restore:0000000000000000 .L0 
C:\Users\stapi\AppData\Local\Temp\cc1aQxEq.s:887    .text.cau_context_restore:0000000000000008 .L0 
C:\Users\stapi\AppData\Local\Temp\cc1aQxEq.s:888    .text.cau_context_restore:0000000000000008 .L0 
C:\Users\stapi\AppData\Local\Temp\cc1aQxEq.s:889    .text.cau_context_restore:0000000000000008 .L0 
C:\Users\stapi\AppData\Local\Temp\cc1aQxEq.s:891    .text.cau_context_restore:0000000000000008 .L0 
C:\Users\stapi\AppData\Local\Temp\cc1aQxEq.s:892    .text.cau_context_restore:0000000000000008 .L0 
C:\Users\stapi\AppData\Local\Temp\cc1aQxEq.s:893    .text.cau_context_restore:0000000000000008 .L0 
C:\Users\stapi\AppData\Local\Temp\cc1aQxEq.s:895    .text.cau_context_restore:000000000000000a .L0 
C:\Users\stapi\AppData\Local\Temp\cc1aQxEq.s:897    .text.cau_context_restore:000000000000000e .L0 
C:\Users\stapi\AppData\Local\Temp\cc1aQxEq.s:899    .text.cau_context_restore:0000000000000012 .L0 
C:\Users\stapi\AppData\Local\Temp\cc1aQxEq.s:901    .text.cau_context_restore:0000000000000014 .L0 
C:\Users\stapi\AppData\Local\Temp\cc1aQxEq.s:902    .text.cau_context_restore:0000000000000014 .L0 
C:\Users\stapi\AppData\Local\Temp\cc1aQxEq.s:904    .text.cau_context_restore:0000000000000016 .L0 
C:\Users\stapi\AppData\Local\Temp\cc1aQxEq.s:906    .text.cau_context_restore:000000000000001a .L0 
C:\Users\stapi\AppData\Local\Temp\cc1aQxEq.s:908    .text.cau_context_restore:000000000000001c .L0 
C:\Users\stapi\AppData\Local\Temp\cc1aQxEq.s:911    .text.cau_context_restore:000000000000001e .L0 
C:\Users\stapi\AppData\Local\Temp\cc1aQxEq.s:912    .text.cau_context_restore:000000000000001e .L0 
C:\Users\stapi\AppData\Local\Temp\cc1aQxEq.s:914    .text.cau_context_restore:0000000000000020 .L0 
C:\Users\stapi\AppData\Local\Temp\cc1aQxEq.s:916    .text.cau_context_restore:0000000000000022 .L0 
C:\Users\stapi\AppData\Local\Temp\cc1aQxEq.s:917    .text.cau_context_restore:0000000000000022 .L0 
C:\Users\stapi\AppData\Local\Temp\cc1aQxEq.s:919    .text.cau_context_restore:0000000000000024 .L0 
C:\Users\stapi\AppData\Local\Temp\cc1aQxEq.s:921    .text.cau_context_restore:0000000000000026 .L0 
C:\Users\stapi\AppData\Local\Temp\cc1aQxEq.s:922    .text.cau_context_restore:0000000000000026 .L0 
C:\Users\stapi\AppData\Local\Temp\cc1aQxEq.s:924    .text.cau_context_restore:0000000000000028 .L0 
C:\Users\stapi\AppData\Local\Temp\cc1aQxEq.s:926    .text.cau_context_restore:000000000000002a .L0 
C:\Users\stapi\AppData\Local\Temp\cc1aQxEq.s:927    .text.cau_context_restore:000000000000002a .L0 
C:\Users\stapi\AppData\Local\Temp\cc1aQxEq.s:929    .text.cau_context_restore:000000000000002c .L0 
C:\Users\stapi\AppData\Local\Temp\cc1aQxEq.s:931    .text.cau_context_restore:000000000000002e .L0 
C:\Users\stapi\AppData\Local\Temp\cc1aQxEq.s:932    .text.cau_context_restore:000000000000002e .L0 
C:\Users\stapi\AppData\Local\Temp\cc1aQxEq.s:934    .text.cau_context_restore:0000000000000030 .L0 
C:\Users\stapi\AppData\Local\Temp\cc1aQxEq.s:936    .text.cau_context_restore:0000000000000032 .L0 
C:\Users\stapi\AppData\Local\Temp\cc1aQxEq.s:937    .text.cau_context_restore:0000000000000032 .L0 
C:\Users\stapi\AppData\Local\Temp\cc1aQxEq.s:939    .text.cau_context_restore:0000000000000034 .L0 
C:\Users\stapi\AppData\Local\Temp\cc1aQxEq.s:941    .text.cau_context_restore:0000000000000036 .L0 
C:\Users\stapi\AppData\Local\Temp\cc1aQxEq.s:942    .text.cau_context_restore:0000000000000036 .L0 
C:\Users\stapi\AppData\Local\Temp\cc1aQxEq.s:944    .text.cau_context_restore:0000000000000038 .L0 
C:\Users\stapi\AppData\Local\Temp\cc1aQxEq.s:946    .text.cau_context_restore:000000000000003a .L0 
C:\Users\stapi\AppData\Local\Temp\cc1aQxEq.s:947    .text.cau_context_restore:000000000000003a .L0 
C:\Users\stapi\AppData\Local\Temp\cc1aQxEq.s:949    .text.cau_context_restore:000000000000003c .L0 
C:\Users\stapi\AppData\Local\Temp\cc1aQxEq.s:951    .text.cau_context_restore:000000000000003e .L0 
C:\Users\stapi\AppData\Local\Temp\cc1aQxEq.s:952    .text.cau_context_restore:000000000000003e .L0 
C:\Users\stapi\AppData\Local\Temp\cc1aQxEq.s:954    .text.cau_context_restore:0000000000000040 .L0 
C:\Users\stapi\AppData\Local\Temp\cc1aQxEq.s:959    .text.cau_context_restore:0000000000000048 .L0 
C:\Users\stapi\AppData\Local\Temp\cc1aQxEq.s:965    .text.cau_context_restore:0000000000000052 .L0 
C:\Users\stapi\AppData\Local\Temp\cc1aQxEq.s:966    .text.cau_context_restore:0000000000000052 .L0 
C:\Users\stapi\AppData\Local\Temp\cc1aQxEq.s:970    .text.cau_context_restore:0000000000000058 .L0 
C:\Users\stapi\AppData\Local\Temp\cc1aQxEq.s:971    .text.cau_context_restore:0000000000000058 .L0 
C:\Users\stapi\AppData\Local\Temp\cc1aQxEq.s:979    .text.cau_context_restore:000000000000006a .L0 
C:\Users\stapi\AppData\Local\Temp\cc1aQxEq.s:980    .text.cau_context_restore:000000000000006a .L0 
C:\Users\stapi\AppData\Local\Temp\cc1aQxEq.s:983    .text.cau_context_restore:0000000000000072 .L0 
C:\Users\stapi\AppData\Local\Temp\cc1aQxEq.s:984    .text.cau_context_restore:0000000000000072 .L0 
C:\Users\stapi\AppData\Local\Temp\cc1aQxEq.s:985    .text.cau_context_restore:0000000000000072 .L0 
C:\Users\stapi\AppData\Local\Temp\cc1aQxEq.s:986    .text.cau_context_restore:0000000000000072 .L0 
C:\Users\stapi\AppData\Local\Temp\cc1aQxEq.s:992    .text.cau_context_restore:0000000000000082 .L0 
C:\Users\stapi\AppData\Local\Temp\cc1aQxEq.s:996    .text.cau_context_restore:000000000000008a .L0 
C:\Users\stapi\AppData\Local\Temp\cc1aQxEq.s:997    .text.cau_context_restore:000000000000008a .L0 
C:\Users\stapi\AppData\Local\Temp\cc1aQxEq.s:998    .text.cau_context_restore:000000000000008a .L0 
C:\Users\stapi\AppData\Local\Temp\cc1aQxEq.s:999    .text.cau_context_restore:000000000000008a .L0 
C:\Users\stapi\AppData\Local\Temp\cc1aQxEq.s:1003   .text.cau_context_restore:0000000000000094 .L0 
C:\Users\stapi\AppData\Local\Temp\cc1aQxEq.s:1005   .text.cau_context_restore:0000000000000096 .L0 
C:\Users\stapi\AppData\Local\Temp\cc1aQxEq.s:1006   .text.cau_context_restore:0000000000000096 .L0 
C:\Users\stapi\AppData\Local\Temp\cc1aQxEq.s:1008   .text.cau_context_restore:0000000000000098 .L0 
C:\Users\stapi\AppData\Local\Temp\cc1aQxEq.s:1014   .text.cau_context_restore:000000000000009e .L0 
C:\Users\stapi\AppData\Local\Temp\cc1aQxEq.s:1017   .text.cau_context_restore:00000000000000a6 .L0 
C:\Users\stapi\AppData\Local\Temp\cc1aQxEq.s:1018   .text.cau_context_restore:00000000000000ae .L0 
C:\Users\stapi\AppData\Local\Temp\cc1aQxEq.s:1019   .text.cau_context_restore:00000000000000ae .L0 
C:\Users\stapi\AppData\Local\Temp\cc1aQxEq.s:1020   .text.cau_context_restore:00000000000000ae .L0 
C:\Users\stapi\AppData\Local\Temp\cc1aQxEq.s:1021   .text.cau_context_restore:00000000000000ae .L0 
C:\Users\stapi\AppData\Local\Temp\cc1aQxEq.s:1024   .text.cau_context_restore:00000000000000ae .L0 
C:\Users\stapi\AppData\Local\Temp\cc1aQxEq.s:1026   .text.cau_context_restore:00000000000000ae .L0 
C:\Users\stapi\AppData\Local\Temp\cc1aQxEq.s:1027   .text.cau_context_restore:00000000000000ae .L0 
C:\Users\stapi\AppData\Local\Temp\cc1aQxEq.s:1029   .text.cau_context_restore:00000000000000b0 .L0 
C:\Users\stapi\AppData\Local\Temp\cc1aQxEq.s:1031   .text.cau_context_restore:00000000000000b2 .L0 
C:\Users\stapi\AppData\Local\Temp\cc1aQxEq.s:1032   .text.cau_context_restore:00000000000000b2 .L0 
C:\Users\stapi\AppData\Local\Temp\cc1aQxEq.s:1034   .text.cau_context_restore:00000000000000b4 .L0 
C:\Users\stapi\AppData\Local\Temp\cc1aQxEq.s:1036   .text.cau_context_restore:00000000000000b6 .L0 
C:\Users\stapi\AppData\Local\Temp\cc1aQxEq.s:1037   .text.cau_context_restore:00000000000000b6 .L0 
C:\Users\stapi\AppData\Local\Temp\cc1aQxEq.s:1039   .text.cau_context_restore:00000000000000b8 .L0 
C:\Users\stapi\AppData\Local\Temp\cc1aQxEq.s:1041   .text.cau_context_restore:00000000000000ba .L0 
C:\Users\stapi\AppData\Local\Temp\cc1aQxEq.s:1042   .text.cau_context_restore:00000000000000ba .L0 
C:\Users\stapi\AppData\Local\Temp\cc1aQxEq.s:1044   .text.cau_context_restore:00000000000000bc .L0 
C:\Users\stapi\AppData\Local\Temp\cc1aQxEq.s:1046   .text.cau_context_restore:00000000000000be .L0 
C:\Users\stapi\AppData\Local\Temp\cc1aQxEq.s:1047   .text.cau_context_restore:00000000000000be .L0 
C:\Users\stapi\AppData\Local\Temp\cc1aQxEq.s:1050   .text.cau_context_restore:00000000000000c2 .L0 
C:\Users\stapi\AppData\Local\Temp\cc1aQxEq.s:1051   .text.cau_context_restore:00000000000000c2 .L0 
C:\Users\stapi\AppData\Local\Temp\cc1aQxEq.s:1053   .text.cau_context_restore:00000000000000c4 .L0 
C:\Users\stapi\AppData\Local\Temp\cc1aQxEq.s:1056   .text.cau_context_restore:00000000000000ca .L0 
C:\Users\stapi\AppData\Local\Temp\cc1aQxEq.s:1057   .text.cau_context_restore:00000000000000ca .L0 
C:\Users\stapi\AppData\Local\Temp\cc1aQxEq.s:1059   .text.cau_context_restore:00000000000000cc .L0 
C:\Users\stapi\AppData\Local\Temp\cc1aQxEq.s:1061   .text.cau_context_restore:00000000000000ce .L0 
C:\Users\stapi\AppData\Local\Temp\cc1aQxEq.s:1062   .text.cau_context_restore:00000000000000ce .L0 
C:\Users\stapi\AppData\Local\Temp\cc1aQxEq.s:1064   .text.cau_context_restore:00000000000000d0 .L0 
C:\Users\stapi\AppData\Local\Temp\cc1aQxEq.s:1066   .text.cau_context_restore:00000000000000d2 .L0 
C:\Users\stapi\AppData\Local\Temp\cc1aQxEq.s:1067   .text.cau_context_restore:00000000000000d2 .L0 
C:\Users\stapi\AppData\Local\Temp\cc1aQxEq.s:1069   .text.cau_context_restore:00000000000000d4 .L0 
C:\Users\stapi\AppData\Local\Temp\cc1aQxEq.s:1071   .text.cau_context_restore:00000000000000d6 .L0 
C:\Users\stapi\AppData\Local\Temp\cc1aQxEq.s:1072   .text.cau_context_restore:00000000000000d6 .L0 
C:\Users\stapi\AppData\Local\Temp\cc1aQxEq.s:1074   .text.cau_context_restore:00000000000000d8 .L0 
C:\Users\stapi\AppData\Local\Temp\cc1aQxEq.s:1076   .text.cau_context_restore:00000000000000da .L0 
C:\Users\stapi\AppData\Local\Temp\cc1aQxEq.s:1077   .text.cau_context_restore:00000000000000da .L0 
C:\Users\stapi\AppData\Local\Temp\cc1aQxEq.s:1079   .text.cau_context_restore:00000000000000dc .L0 
C:\Users\stapi\AppData\Local\Temp\cc1aQxEq.s:1081   .text.cau_context_restore:00000000000000de .L0 
C:\Users\stapi\AppData\Local\Temp\cc1aQxEq.s:1082   .text.cau_context_restore:00000000000000de .L0 
C:\Users\stapi\AppData\Local\Temp\cc1aQxEq.s:1084   .text.cau_context_restore:00000000000000e0 .L0 
C:\Users\stapi\AppData\Local\Temp\cc1aQxEq.s:1086   .text.cau_context_restore:00000000000000e2 .L0 
C:\Users\stapi\AppData\Local\Temp\cc1aQxEq.s:1087   .text.cau_context_restore:00000000000000e2 .L0 
C:\Users\stapi\AppData\Local\Temp\cc1aQxEq.s:1089   .text.cau_context_restore:00000000000000e4 .L0 
C:\Users\stapi\AppData\Local\Temp\cc1aQxEq.s:1091   .text.cau_context_restore:00000000000000e6 .L0 
C:\Users\stapi\AppData\Local\Temp\cc1aQxEq.s:1092   .text.cau_context_restore:00000000000000e6 .L0 
C:\Users\stapi\AppData\Local\Temp\cc1aQxEq.s:1095   .text.cau_context_restore:00000000000000ee .L0 
C:\Users\stapi\AppData\Local\Temp\cc1aQxEq.s:1096   .text.cau_context_restore:00000000000000ee .L0 
C:\Users\stapi\AppData\Local\Temp\cc1aQxEq.s:1099   .text.cau_context_restore:00000000000000f0 .L0 
C:\Users\stapi\AppData\Local\Temp\cc1aQxEq.s:1101   .text.cau_context_restore:00000000000000f2 .L0 
C:\Users\stapi\AppData\Local\Temp\cc1aQxEq.s:1102   .text.cau_context_restore:00000000000000f2 .L0 
C:\Users\stapi\AppData\Local\Temp\cc1aQxEq.s:1104   .text.cau_context_restore:00000000000000f4 .L0 
C:\Users\stapi\AppData\Local\Temp\cc1aQxEq.s:1106   .text.cau_context_restore:00000000000000f6 .L0 
C:\Users\stapi\AppData\Local\Temp\cc1aQxEq.s:1107   .text.cau_context_restore:00000000000000f6 .L0 
C:\Users\stapi\AppData\Local\Temp\cc1aQxEq.s:1109   .text.cau_context_restore:00000000000000f8 .L0 
C:\Users\stapi\AppData\Local\Temp\cc1aQxEq.s:1111   .text.cau_context_restore:00000000000000fa .L0 
C:\Users\stapi\AppData\Local\Temp\cc1aQxEq.s:1112   .text.cau_context_restore:00000000000000fa .L0 
C:\Users\stapi\AppData\Local\Temp\cc1aQxEq.s:1114   .text.cau_context_restore:00000000000000fc .L0 
C:\Users\stapi\AppData\Local\Temp\cc1aQxEq.s:1116   .text.cau_context_restore:00000000000000fe .L0 
C:\Users\stapi\AppData\Local\Temp\cc1aQxEq.s:1117   .text.cau_context_restore:00000000000000fe .L0 
C:\Users\stapi\AppData\Local\Temp\cc1aQxEq.s:1119   .text.cau_context_restore:0000000000000100 .L0 
C:\Users\stapi\AppData\Local\Temp\cc1aQxEq.s:1122   .text.cau_context_restore:0000000000000106 .L0 
C:\Users\stapi\AppData\Local\Temp\cc1aQxEq.s:1123   .text.cau_context_restore:0000000000000106 .L0 
C:\Users\stapi\AppData\Local\Temp\cc1aQxEq.s:1125   .text.cau_context_restore:0000000000000108 .L0 
C:\Users\stapi\AppData\Local\Temp\cc1aQxEq.s:1127   .text.cau_context_restore:000000000000010a .L0 
C:\Users\stapi\AppData\Local\Temp\cc1aQxEq.s:1128   .text.cau_context_restore:000000000000010a .L0 
C:\Users\stapi\AppData\Local\Temp\cc1aQxEq.s:1130   .text.cau_context_restore:000000000000010c .L0 
C:\Users\stapi\AppData\Local\Temp\cc1aQxEq.s:1132   .text.cau_context_restore:000000000000010e .L0 
C:\Users\stapi\AppData\Local\Temp\cc1aQxEq.s:1133   .text.cau_context_restore:000000000000010e .L0 
C:\Users\stapi\AppData\Local\Temp\cc1aQxEq.s:1135   .text.cau_context_restore:0000000000000110 .L0 
C:\Users\stapi\AppData\Local\Temp\cc1aQxEq.s:1137   .text.cau_context_restore:0000000000000114 .L0 
C:\Users\stapi\AppData\Local\Temp\cc1aQxEq.s:1144   .text.cau_interrupt_enable:0000000000000000 cau_interrupt_enable
C:\Users\stapi\AppData\Local\Temp\cc1aQxEq.s:1147   .text.cau_interrupt_enable:0000000000000000 .L0 
C:\Users\stapi\AppData\Local\Temp\cc1aQxEq.s:1149   .text.cau_interrupt_enable:0000000000000000 .L0 
C:\Users\stapi\AppData\Local\Temp\cc1aQxEq.s:1150   .text.cau_interrupt_enable:0000000000000000 .L0 
C:\Users\stapi\AppData\Local\Temp\cc1aQxEq.s:1151   .text.cau_interrupt_enable:0000000000000000 .L0 
C:\Users\stapi\AppData\Local\Temp\cc1aQxEq.s:1156   .text.cau_interrupt_enable:000000000000000a .L0 
C:\Users\stapi\AppData\Local\Temp\cc1aQxEq.s:1157   .text.cau_interrupt_enable:000000000000000c .L0 
C:\Users\stapi\AppData\Local\Temp\cc1aQxEq.s:1164   .text.cau_interrupt_disable:0000000000000000 cau_interrupt_disable
C:\Users\stapi\AppData\Local\Temp\cc1aQxEq.s:1167   .text.cau_interrupt_disable:0000000000000000 .L0 
C:\Users\stapi\AppData\Local\Temp\cc1aQxEq.s:1169   .text.cau_interrupt_disable:0000000000000000 .L0 
C:\Users\stapi\AppData\Local\Temp\cc1aQxEq.s:1170   .text.cau_interrupt_disable:0000000000000000 .L0 
C:\Users\stapi\AppData\Local\Temp\cc1aQxEq.s:1171   .text.cau_interrupt_disable:0000000000000000 .L0 
C:\Users\stapi\AppData\Local\Temp\cc1aQxEq.s:1177   .text.cau_interrupt_disable:000000000000000c .L0 
C:\Users\stapi\AppData\Local\Temp\cc1aQxEq.s:1178   .text.cau_interrupt_disable:000000000000000e .L0 
C:\Users\stapi\AppData\Local\Temp\cc1aQxEq.s:1185   .text.cau_interrupt_flag_get:0000000000000000 cau_interrupt_flag_get
C:\Users\stapi\AppData\Local\Temp\cc1aQxEq.s:1188   .text.cau_interrupt_flag_get:0000000000000000 .L0 
C:\Users\stapi\AppData\Local\Temp\cc1aQxEq.s:1190   .text.cau_interrupt_flag_get:0000000000000000 .L0 
C:\Users\stapi\AppData\Local\Temp\cc1aQxEq.s:1191   .text.cau_interrupt_flag_get:0000000000000000 .L0 
C:\Users\stapi\AppData\Local\Temp\cc1aQxEq.s:1192   .text.cau_interrupt_flag_get:0000000000000000 .L0 
C:\Users\stapi\AppData\Local\Temp\cc1aQxEq.s:1193   .text.cau_interrupt_flag_get:0000000000000000 .L0 
C:\Users\stapi\AppData\Local\Temp\cc1aQxEq.s:1197   .text.cau_interrupt_flag_get:0000000000000006 .L0 
C:\Users\stapi\AppData\Local\Temp\cc1aQxEq.s:1198   .text.cau_interrupt_flag_get:0000000000000006 .L0 
C:\Users\stapi\AppData\Local\Temp\cc1aQxEq.s:1201   .text.cau_interrupt_flag_get:0000000000000008 .L0 
C:\Users\stapi\AppData\Local\Temp\cc1aQxEq.s:1203   .text.cau_interrupt_flag_get:000000000000000e .L0 
C:\Users\stapi\AppData\Local\Temp\cc1aQxEq.s:36     .text.cau_deinit:0000000000000028 .L0 
C:\Users\stapi\AppData\Local\Temp\cc1aQxEq.s:77     .text.cau_struct_para_init:0000000000000026 .L0 
C:\Users\stapi\AppData\Local\Temp\cc1aQxEq.s:115    .text.cau_key_struct_para_init:0000000000000022 .L0 
C:\Users\stapi\AppData\Local\Temp\cc1aQxEq.s:141    .text.cau_iv_struct_para_init:0000000000000012 .L0 
C:\Users\stapi\AppData\Local\Temp\cc1aQxEq.s:242    .text.cau_context_struct_para_init:0000000000000076 .L0 
C:\Users\stapi\AppData\Local\Temp\cc1aQxEq.s:261    .text.cau_enable:000000000000000e .L0 
C:\Users\stapi\AppData\Local\Temp\cc1aQxEq.s:280    .text.cau_disable:000000000000000e .L0 
C:\Users\stapi\AppData\Local\Temp\cc1aQxEq.s:300    .text.cau_dma_enable:000000000000000c .L0 
C:\Users\stapi\AppData\Local\Temp\cc1aQxEq.s:321    .text.cau_dma_disable:000000000000000e .L0 
C:\Users\stapi\AppData\Local\Temp\cc1aQxEq.s:369    .text.cau_init:0000000000000040 .L0 
C:\Users\stapi\AppData\Local\Temp\cc1aQxEq.s:394    .text.cau_aes_keysize_config:0000000000000014 .L0 
C:\Users\stapi\AppData\Local\Temp\cc1aQxEq.s:449    .text.cau_key_init:0000000000000026 .L0 
C:\Users\stapi\AppData\Local\Temp\cc1aQxEq.s:484    .text.cau_iv_init:0000000000000016 .L0 
C:\Users\stapi\AppData\Local\Temp\cc1aQxEq.s:517    .text.cau_phase_config:0000000000000014 .L0 
C:\Users\stapi\AppData\Local\Temp\cc1aQxEq.s:536    .text.cau_fifo_flush:000000000000000e .L0 
C:\Users\stapi\AppData\Local\Temp\cc1aQxEq.s:559    .text.cau_enable_state_get:000000000000000c .L0 
C:\Users\stapi\AppData\Local\Temp\cc1aQxEq.s:577    .text.cau_data_write:0000000000000008 .L0 
C:\Users\stapi\AppData\Local\Temp\cc1aQxEq.s:594    .text.cau_data_read:0000000000000008 .L0 
C:\Users\stapi\AppData\Local\Temp\cc1aQxEq.s:836    .text.cau_context_save:00000000000000ee .L0 
C:\Users\stapi\AppData\Local\Temp\cc1aQxEq.s:877    .text.cau_flag_get:000000000000001c .L0 
C:\Users\stapi\AppData\Local\Temp\cc1aQxEq.s:1140   .text.cau_context_restore:0000000000000114 .L0 
C:\Users\stapi\AppData\Local\Temp\cc1aQxEq.s:1160   .text.cau_interrupt_enable:000000000000000c .L0 
C:\Users\stapi\AppData\Local\Temp\cc1aQxEq.s:1181   .text.cau_interrupt_disable:000000000000000e .L0 
C:\Users\stapi\AppData\Local\Temp\cc1aQxEq.s:1206   .text.cau_interrupt_flag_get:000000000000000e .L0 
                     .debug_frame:0000000000000000 .L0 
C:\Users\stapi\AppData\Local\Temp\cc1aQxEq.s:635    .text.cau_context_save:0000000000000024 .L21
C:\Users\stapi\AppData\Local\Temp\cc1aQxEq.s:639    .text.cau_context_save:0000000000000028 .L22
C:\Users\stapi\AppData\Local\Temp\cc1aQxEq.s:830    .text.cau_context_save:00000000000000ec .L20
C:\Users\stapi\AppData\Local\Temp\cc1aQxEq.s:716    .text.cau_context_save:0000000000000084 .L25
C:\Users\stapi\AppData\Local\Temp\cc1aQxEq.s:741    .text.cau_context_save:000000000000009c .L26
C:\Users\stapi\AppData\Local\Temp\cc1aQxEq.s:710    .text.cau_context_save:0000000000000078 .L28
C:\Users\stapi\AppData\Local\Temp\cc1aQxEq.s:867    .text.cau_flag_get:0000000000000014 .L32
C:\Users\stapi\AppData\Local\Temp\cc1aQxEq.s:857    .text.cau_flag_get:000000000000000c .L33
C:\Users\stapi\AppData\Local\Temp\cc1aQxEq.s:963    .text.cau_context_restore:0000000000000052 .L36
C:\Users\stapi\AppData\Local\Temp\cc1aQxEq.s:1023   .text.cau_context_restore:00000000000000ae .L37
C:\Users\stapi\AppData\Local\Temp\cc1aQxEq.s:1048   .text.cau_context_restore:00000000000000c2 .L38
C:\Users\stapi\AppData\Local\Temp\cc1aQxEq.s:1011   .text.cau_context_restore:000000000000009e .L41
C:\Users\stapi\AppData\Local\Temp\cc1aQxEq.s:995    .text.cau_context_restore:000000000000008a .L42
C:\Users\stapi\AppData\Local\Temp\cc1aQxEq.s:957    .text.cau_context_restore:0000000000000048 .L40
C:\Users\stapi\AppData\Local\Temp\cc1aQxEq.s:2355   .debug_abbrev:0000000000000000 .Ldebug_abbrev0
C:\Users\stapi\AppData\Local\Temp\cc1aQxEq.s:3385   .debug_str:00000000000001f6 .LASF117
C:\Users\stapi\AppData\Local\Temp\cc1aQxEq.s:3423   .debug_str:00000000000003e8 .LASF118
C:\Users\stapi\AppData\Local\Temp\cc1aQxEq.s:3527   .debug_str:00000000000006f0 .LASF119
C:\Users\stapi\AppData\Local\Temp\cc1aQxEq.s:3253   .debug_ranges:0000000000000000 .Ldebug_ranges0
C:\Users\stapi\AppData\Local\Temp\cc1aQxEq.s:3305   .debug_line:0000000000000000 .Ldebug_line0
C:\Users\stapi\AppData\Local\Temp\cc1aQxEq.s:3383   .debug_str:00000000000001e9 .LASF0
C:\Users\stapi\AppData\Local\Temp\cc1aQxEq.s:3339   .debug_str:00000000000000c6 .LASF1
C:\Users\stapi\AppData\Local\Temp\cc1aQxEq.s:3317   .debug_str:000000000000003d .LASF6
C:\Users\stapi\AppData\Local\Temp\cc1aQxEq.s:3463   .debug_str:0000000000000561 .LASF2
C:\Users\stapi\AppData\Local\Temp\cc1aQxEq.s:3471   .debug_str:000000000000059d .LASF3
C:\Users\stapi\AppData\Local\Temp\cc1aQxEq.s:3401   .debug_str:000000000000034f .LASF4
C:\Users\stapi\AppData\Local\Temp\cc1aQxEq.s:3349   .debug_str:0000000000000105 .LASF5
C:\Users\stapi\AppData\Local\Temp\cc1aQxEq.s:3369   .debug_str:000000000000018d .LASF7
C:\Users\stapi\AppData\Local\Temp\cc1aQxEq.s:3389   .debug_str:0000000000000305 .LASF8
C:\Users\stapi\AppData\Local\Temp\cc1aQxEq.s:3337   .debug_str:00000000000000b8 .LASF9
C:\Users\stapi\AppData\Local\Temp\cc1aQxEq.s:3341   .debug_str:00000000000000d2 .LASF10
C:\Users\stapi\AppData\Local\Temp\cc1aQxEq.s:3499   .debug_str:0000000000000641 .LASF11
C:\Users\stapi\AppData\Local\Temp\cc1aQxEq.s:3521   .debug_str:00000000000006c8 .LASF12
C:\Users\stapi\AppData\Local\Temp\cc1aQxEq.s:3487   .debug_str:00000000000005fa .LASF13
C:\Users\stapi\AppData\Local\Temp\cc1aQxEq.s:3329   .debug_str:0000000000000087 .LASF14
C:\Users\stapi\AppData\Local\Temp\cc1aQxEq.s:3353   .debug_str:0000000000000118 .LASF15
C:\Users\stapi\AppData\Local\Temp\cc1aQxEq.s:3451   .debug_str:0000000000000525 .LASF16
C:\Users\stapi\AppData\Local\Temp\cc1aQxEq.s:3459   .debug_str:0000000000000550 .LASF17
C:\Users\stapi\AppData\Local\Temp\cc1aQxEq.s:3313   .debug_str:0000000000000024 .LASF18
C:\Users\stapi\AppData\Local\Temp\cc1aQxEq.s:3363   .debug_str:0000000000000168 .LASF19
C:\Users\stapi\AppData\Local\Temp\cc1aQxEq.s:3393   .debug_str:0000000000000321 .LASF20
C:\Users\stapi\AppData\Local\Temp\cc1aQxEq.s:3421   .debug_str:00000000000003db .LASF21
C:\Users\stapi\AppData\Local\Temp\cc1aQxEq.s:3461   .debug_str:0000000000000556 .LASF22
C:\Users\stapi\AppData\Local\Temp\cc1aQxEq.s:3535   .debug_str:0000000000000792 .LASF23
C:\Users\stapi\AppData\Local\Temp\cc1aQxEq.s:3509   .debug_str:0000000000000674 .LASF24
C:\Users\stapi\AppData\Local\Temp\cc1aQxEq.s:3431   .debug_str:00000000000004ab .LASF25
C:\Users\stapi\AppData\Local\Temp\cc1aQxEq.s:3409   .debug_str:000000000000038a .LASF26
C:\Users\stapi\AppData\Local\Temp\cc1aQxEq.s:3543   .debug_str:00000000000007d2 .LASF27
C:\Users\stapi\AppData\Local\Temp\cc1aQxEq.s:3345   .debug_str:00000000000000f4 .LASF28
C:\Users\stapi\AppData\Local\Temp\cc1aQxEq.s:3465   .debug_str:000000000000056f .LASF29
C:\Users\stapi\AppData\Local\Temp\cc1aQxEq.s:3365   .debug_str:0000000000000175 .LASF30
C:\Users\stapi\AppData\Local\Temp\cc1aQxEq.s:3513   .debug_str:000000000000068e .LASF31
C:\Users\stapi\AppData\Local\Temp\cc1aQxEq.s:3495   .debug_str:0000000000000626 .LASF32
C:\Users\stapi\AppData\Local\Temp\cc1aQxEq.s:3407   .debug_str:000000000000037c .LASF33
C:\Users\stapi\AppData\Local\Temp\cc1aQxEq.s:3419   .debug_str:00000000000003ce .LASF34
C:\Users\stapi\AppData\Local\Temp\cc1aQxEq.s:3503   .debug_str:0000000000000655 .LASF35
C:\Users\stapi\AppData\Local\Temp\cc1aQxEq.s:3307   .debug_str:0000000000000000 .LASF36
C:\Users\stapi\AppData\Local\Temp\cc1aQxEq.s:3539   .debug_str:00000000000007b6 .LASF37
C:\Users\stapi\AppData\Local\Temp\cc1aQxEq.s:3397   .debug_str:0000000000000333 .LASF38
C:\Users\stapi\AppData\Local\Temp\cc1aQxEq.s:3367   .debug_str:0000000000000181 .LASF39
C:\Users\stapi\AppData\Local\Temp\cc1aQxEq.s:3375   .debug_str:00000000000001ba .LASF40
C:\Users\stapi\AppData\Local\Temp\cc1aQxEq.s:3541   .debug_str:00000000000007c4 .LASF41
C:\Users\stapi\AppData\Local\Temp\cc1aQxEq.s:3519   .debug_str:00000000000006bb .LASF42
C:\Users\stapi\AppData\Local\Temp\cc1aQxEq.s:3371   .debug_str:0000000000000198 .LASF43
C:\Users\stapi\AppData\Local\Temp\cc1aQxEq.s:3343   .debug_str:00000000000000e9 .LASF44
C:\Users\stapi\AppData\Local\Temp\cc1aQxEq.s:3315   .debug_str:000000000000002f .LASF45
C:\Users\stapi\AppData\Local\Temp\cc1aQxEq.s:3511   .debug_str:000000000000067f .LASF46
C:\Users\stapi\AppData\Local\Temp\cc1aQxEq.s:3489   .debug_str:0000000000000603 .LASF47
C:\Users\stapi\AppData\Local\Temp\cc1aQxEq.s:3453   .debug_str:0000000000000533 .LASF48
C:\Users\stapi\AppData\Local\Temp\cc1aQxEq.s:3309   .debug_str:000000000000000d .LASF49
C:\Users\stapi\AppData\Local\Temp\cc1aQxEq.s:3425   .debug_str:0000000000000480 .LASF50
C:\Users\stapi\AppData\Local\Temp\cc1aQxEq.s:3413   .debug_str:00000000000003b0 .LASF51
C:\Users\stapi\AppData\Local\Temp\cc1aQxEq.s:3529   .debug_str:000000000000076e .LASF52
C:\Users\stapi\AppData\Local\Temp\cc1aQxEq.s:3443   .debug_str:00000000000004fc .LASF53
C:\Users\stapi\AppData\Local\Temp\cc1aQxEq.s:3449   .debug_str:000000000000051b .LASF54
C:\Users\stapi\AppData\Local\Temp\cc1aQxEq.s:3475   .debug_str:00000000000005b0 .LASF55
C:\Users\stapi\AppData\Local\Temp\cc1aQxEq.s:3351   .debug_str:000000000000010e .LASF56
C:\Users\stapi\AppData\Local\Temp\cc1aQxEq.s:3433   .debug_str:00000000000004b6 .LASF57
C:\Users\stapi\AppData\Local\Temp\cc1aQxEq.s:3359   .debug_str:0000000000000154 .LASF58
C:\Users\stapi\AppData\Local\Temp\cc1aQxEq.s:3417   .debug_str:00000000000003c5 .LASF59
C:\Users\stapi\AppData\Local\Temp\cc1aQxEq.s:3469   .debug_str:0000000000000593 .LASF60
C:\Users\stapi\AppData\Local\Temp\cc1aQxEq.s:3327   .debug_str:000000000000007e .LASF61
C:\Users\stapi\AppData\Local\Temp\cc1aQxEq.s:3355   .debug_str:000000000000011f .LASF62
C:\Users\stapi\AppData\Local\Temp\cc1aQxEq.s:3403   .debug_str:0000000000000362 .LASF63
C:\Users\stapi\AppData\Local\Temp\cc1aQxEq.s:3323   .debug_str:000000000000006b .LASF64
C:\Users\stapi\AppData\Local\Temp\cc1aQxEq.s:3491   .debug_str:0000000000000612 .LASF65
C:\Users\stapi\AppData\Local\Temp\cc1aQxEq.s:3357   .debug_str:0000000000000137 .LASF66
C:\Users\stapi\AppData\Local\Temp\cc1aQxEq.s:3507   .debug_str:000000000000066c .LASF67
C:\Users\stapi\AppData\Local\Temp\cc1aQxEq.s:3477   .debug_str:00000000000005bb .LASF68
C:\Users\stapi\AppData\Local\Temp\cc1aQxEq.s:3445   .debug_str:0000000000000507 .LASF69
C:\Users\stapi\AppData\Local\Temp\cc1aQxEq.s:3485   .debug_str:00000000000005f4 .LASF70
C:\Users\stapi\AppData\Local\Temp\cc1aQxEq.s:3455   .debug_str:000000000000053d .LASF71
C:\Users\stapi\AppData\Local\Temp\cc1aQxEq.s:3473   .debug_str:00000000000005a7 .LASF72
C:\Users\stapi\AppData\Local\Temp\cc1aQxEq.s:3321   .debug_str:0000000000000056 .LASF73
C:\Users\stapi\AppData\Local\Temp\cc1aQxEq.s:3373   .debug_str:00000000000001a3 .LASF78
C:\Users\stapi\AppData\Local\Temp\cc1aQxEq.s:1186   .text.cau_interrupt_flag_get:0000000000000000 .LFB388
C:\Users\stapi\AppData\Local\Temp\cc1aQxEq.s:1204   .text.cau_interrupt_flag_get:000000000000000e .LFE388
C:\Users\stapi\AppData\Local\Temp\cc1aQxEq.s:3457   .debug_str:0000000000000547 .LASF74
C:\Users\stapi\AppData\Local\Temp\cc1aQxEq.s:2903   .debug_loc:0000000000000000 .LLST16
C:\Users\stapi\AppData\Local\Temp\cc1aQxEq.s:3479   .debug_str:00000000000005c4 .LASF80
C:\Users\stapi\AppData\Local\Temp\cc1aQxEq.s:2917   .debug_loc:0000000000000021 .LLST17
C:\Users\stapi\AppData\Local\Temp\cc1aQxEq.s:3387   .debug_str:00000000000002ef .LASF76
C:\Users\stapi\AppData\Local\Temp\cc1aQxEq.s:1165   .text.cau_interrupt_disable:0000000000000000 .LFB387
C:\Users\stapi\AppData\Local\Temp\cc1aQxEq.s:1179   .text.cau_interrupt_disable:000000000000000e .LFE387
C:\Users\stapi\AppData\Local\Temp\cc1aQxEq.s:3361   .debug_str:000000000000015e .LASF75
C:\Users\stapi\AppData\Local\Temp\cc1aQxEq.s:2954   .debug_loc:0000000000000060 .LLST15
C:\Users\stapi\AppData\Local\Temp\cc1aQxEq.s:3517   .debug_str:00000000000006a6 .LASF77
C:\Users\stapi\AppData\Local\Temp\cc1aQxEq.s:1145   .text.cau_interrupt_enable:0000000000000000 .LFB386
C:\Users\stapi\AppData\Local\Temp\cc1aQxEq.s:1158   .text.cau_interrupt_enable:000000000000000c .LFE386
C:\Users\stapi\AppData\Local\Temp\cc1aQxEq.s:3497   .debug_str:0000000000000634 .LASF79
C:\Users\stapi\AppData\Local\Temp\cc1aQxEq.s:841    .text.cau_flag_get:0000000000000000 .LFB385
C:\Users\stapi\AppData\Local\Temp\cc1aQxEq.s:875    .text.cau_flag_get:000000000000001c .LFE385
C:\Users\stapi\AppData\Local\Temp\cc1aQxEq.s:2968   .debug_loc:0000000000000081 .LLST6
C:\Users\stapi\AppData\Local\Temp\cc1aQxEq.s:2986   .debug_loc:00000000000000ad .LLST7
C:\Users\stapi\AppData\Local\Temp\cc1aQxEq.s:3441   .debug_str:00000000000004f3 .LASF81
C:\Users\stapi\AppData\Local\Temp\cc1aQxEq.s:3007   .debug_loc:00000000000000e3 .LLST8
C:\Users\stapi\AppData\Local\Temp\cc1aQxEq.s:3381   .debug_str:00000000000001d5 .LASF82
C:\Users\stapi\AppData\Local\Temp\cc1aQxEq.s:882    .text.cau_context_restore:0000000000000000 .LFB384
C:\Users\stapi\AppData\Local\Temp\cc1aQxEq.s:1138   .text.cau_context_restore:0000000000000114 .LFE384
C:\Users\stapi\AppData\Local\Temp\cc1aQxEq.s:3311   .debug_str:0000000000000018 .LASF83
C:\Users\stapi\AppData\Local\Temp\cc1aQxEq.s:3049   .debug_loc:000000000000012e .LLST9
C:\Users\stapi\AppData\Local\Temp\cc1aQxEq.s:3523   .debug_str:00000000000006d0 .LASF84
C:\Users\stapi\AppData\Local\Temp\cc1aQxEq.s:3060   .debug_loc:000000000000014c .LLST10
C:\Users\stapi\AppData\Local\Temp\cc1aQxEq.s:3447   .debug_str:000000000000050f .LASF85
C:\Users\stapi\AppData\Local\Temp\cc1aQxEq.s:3071   .debug_loc:000000000000016a .LLST11
C:\Users\stapi\AppData\Local\Temp\cc1aQxEq.s:977    .text.cau_context_restore:000000000000006a .LBB2
C:\Users\stapi\AppData\Local\Temp\cc1aQxEq.s:1012   .text.cau_context_restore:000000000000009e .LBE2
C:\Users\stapi\AppData\Local\Temp\cc1aQxEq.s:3083   .debug_loc:0000000000000185 .LLST12
C:\Users\stapi\AppData\Local\Temp\cc1aQxEq.s:3515   .debug_str:000000000000069c .LASF86
C:\Users\stapi\AppData\Local\Temp\cc1aQxEq.s:3091   .debug_loc:0000000000000199 .LLST13
C:\Users\stapi\AppData\Local\Temp\cc1aQxEq.s:3435   .debug_str:00000000000004cf .LASF87
C:\Users\stapi\AppData\Local\Temp\cc1aQxEq.s:3100   .debug_loc:00000000000001ae .LLST14
C:\Users\stapi\AppData\Local\Temp\cc1aQxEq.s:981    .text.cau_context_restore:0000000000000072 .LVL38
C:\Users\stapi\AppData\Local\Temp\cc1aQxEq.s:990    .text.cau_context_restore:0000000000000082 .LVL39
C:\Users\stapi\AppData\Local\Temp\cc1aQxEq.s:993    .text.cau_context_restore:000000000000008a .LVL40
C:\Users\stapi\AppData\Local\Temp\cc1aQxEq.s:1001   .text.cau_context_restore:0000000000000094 .LVL41
C:\Users\stapi\AppData\Local\Temp\cc1aQxEq.s:1015   .text.cau_context_restore:00000000000000a6 .LVL43
C:\Users\stapi\AppData\Local\Temp\cc1aQxEq.s:3533   .debug_str:0000000000000781 .LASF88
C:\Users\stapi\AppData\Local\Temp\cc1aQxEq.s:599    .text.cau_context_save:0000000000000000 .LFB383
C:\Users\stapi\AppData\Local\Temp\cc1aQxEq.s:834    .text.cau_context_save:00000000000000ee .LFE383
C:\Users\stapi\AppData\Local\Temp\cc1aQxEq.s:3439   .debug_str:00000000000004e6 .LASF89
C:\Users\stapi\AppData\Local\Temp\cc1aQxEq.s:3415   .debug_str:00000000000003bb .LASF90
C:\Users\stapi\AppData\Local\Temp\cc1aQxEq.s:3108   .debug_loc:00000000000001c2 .LLST3
C:\Users\stapi\AppData\Local\Temp\cc1aQxEq.s:3391   .debug_str:0000000000000317 .LASF91
C:\Users\stapi\AppData\Local\Temp\cc1aQxEq.s:3120   .debug_loc:00000000000001e1 .LLST4
C:\Users\stapi\AppData\Local\Temp\cc1aQxEq.s:3132   .debug_loc:0000000000000200 .LLST5
C:\Users\stapi\AppData\Local\Temp\cc1aQxEq.s:3483   .debug_str:00000000000005e6 .LASF120
C:\Users\stapi\AppData\Local\Temp\cc1aQxEq.s:582    .text.cau_data_read:0000000000000000 .LFB382
C:\Users\stapi\AppData\Local\Temp\cc1aQxEq.s:592    .text.cau_data_read:0000000000000008 .LFE382
C:\Users\stapi\AppData\Local\Temp\cc1aQxEq.s:3319   .debug_str:0000000000000047 .LASF92
C:\Users\stapi\AppData\Local\Temp\cc1aQxEq.s:564    .text.cau_data_write:0000000000000000 .LFB381
C:\Users\stapi\AppData\Local\Temp\cc1aQxEq.s:575    .text.cau_data_write:0000000000000008 .LFE381
C:\Users\stapi\AppData\Local\Temp\cc1aQxEq.s:3395   .debug_str:000000000000032e .LASF93
C:\Users\stapi\AppData\Local\Temp\cc1aQxEq.s:3545   .debug_str:00000000000007dd .LASF94
C:\Users\stapi\AppData\Local\Temp\cc1aQxEq.s:541    .text.cau_enable_state_get:0000000000000000 .LFB380
C:\Users\stapi\AppData\Local\Temp\cc1aQxEq.s:557    .text.cau_enable_state_get:000000000000000c .LFE380
C:\Users\stapi\AppData\Local\Temp\cc1aQxEq.s:3144   .debug_loc:000000000000021f .LLST2
C:\Users\stapi\AppData\Local\Temp\cc1aQxEq.s:3501   .debug_str:0000000000000646 .LASF106
C:\Users\stapi\AppData\Local\Temp\cc1aQxEq.s:522    .text.cau_fifo_flush:0000000000000000 .LFB379
C:\Users\stapi\AppData\Local\Temp\cc1aQxEq.s:534    .text.cau_fifo_flush:000000000000000e .LFE379
C:\Users\stapi\AppData\Local\Temp\cc1aQxEq.s:3331   .debug_str:000000000000008f .LASF95
C:\Users\stapi\AppData\Local\Temp\cc1aQxEq.s:489    .text.cau_phase_config:0000000000000000 .LFB378
C:\Users\stapi\AppData\Local\Temp\cc1aQxEq.s:515    .text.cau_phase_config:0000000000000014 .LFE378
C:\Users\stapi\AppData\Local\Temp\cc1aQxEq.s:3347   .debug_str:00000000000000ff .LASF96
C:\Users\stapi\AppData\Local\Temp\cc1aQxEq.s:3377   .debug_str:00000000000001c5 .LASF97
C:\Users\stapi\AppData\Local\Temp\cc1aQxEq.s:3493   .debug_str:000000000000061a .LASF98
C:\Users\stapi\AppData\Local\Temp\cc1aQxEq.s:454    .text.cau_iv_init:0000000000000000 .LFB377
C:\Users\stapi\AppData\Local\Temp\cc1aQxEq.s:482    .text.cau_iv_init:0000000000000016 .LFE377
C:\Users\stapi\AppData\Local\Temp\cc1aQxEq.s:3429   .debug_str:000000000000049f .LASF99
C:\Users\stapi\AppData\Local\Temp\cc1aQxEq.s:3333   .debug_str:00000000000000a0 .LASF100
C:\Users\stapi\AppData\Local\Temp\cc1aQxEq.s:399    .text.cau_key_init:0000000000000000 .LFB376
C:\Users\stapi\AppData\Local\Temp\cc1aQxEq.s:447    .text.cau_key_init:0000000000000026 .LFE376
C:\Users\stapi\AppData\Local\Temp\cc1aQxEq.s:3525   .debug_str:00000000000006d9 .LASF101
C:\Users\stapi\AppData\Local\Temp\cc1aQxEq.s:374    .text.cau_aes_keysize_config:0000000000000000 .LFB375
C:\Users\stapi\AppData\Local\Temp\cc1aQxEq.s:392    .text.cau_aes_keysize_config:0000000000000014 .LFE375
C:\Users\stapi\AppData\Local\Temp\cc1aQxEq.s:3531   .debug_str:0000000000000778 .LASF102
C:\Users\stapi\AppData\Local\Temp\cc1aQxEq.s:326    .text.cau_init:0000000000000000 .LFB374
C:\Users\stapi\AppData\Local\Temp\cc1aQxEq.s:367    .text.cau_init:0000000000000040 .LFE374
C:\Users\stapi\AppData\Local\Temp\cc1aQxEq.s:3166   .debug_loc:0000000000000249 .LLST1
C:\Users\stapi\AppData\Local\Temp\cc1aQxEq.s:3399   .debug_str:000000000000033f .LASF103
C:\Users\stapi\AppData\Local\Temp\cc1aQxEq.s:305    .text.cau_dma_disable:0000000000000000 .LFB373
C:\Users\stapi\AppData\Local\Temp\cc1aQxEq.s:319    .text.cau_dma_disable:000000000000000e .LFE373
C:\Users\stapi\AppData\Local\Temp\cc1aQxEq.s:3325   .debug_str:0000000000000076 .LASF104
C:\Users\stapi\AppData\Local\Temp\cc1aQxEq.s:3180   .debug_loc:000000000000026a .LLST0
C:\Users\stapi\AppData\Local\Temp\cc1aQxEq.s:3405   .debug_str:000000000000036d .LASF105
C:\Users\stapi\AppData\Local\Temp\cc1aQxEq.s:285    .text.cau_dma_enable:0000000000000000 .LFB372
C:\Users\stapi\AppData\Local\Temp\cc1aQxEq.s:298    .text.cau_dma_enable:000000000000000c .LFE372
C:\Users\stapi\AppData\Local\Temp\cc1aQxEq.s:3505   .debug_str:0000000000000660 .LASF107
C:\Users\stapi\AppData\Local\Temp\cc1aQxEq.s:266    .text.cau_disable:0000000000000000 .LFB371
C:\Users\stapi\AppData\Local\Temp\cc1aQxEq.s:278    .text.cau_disable:000000000000000e .LFE371
C:\Users\stapi\AppData\Local\Temp\cc1aQxEq.s:3379   .debug_str:00000000000001ca .LASF108
C:\Users\stapi\AppData\Local\Temp\cc1aQxEq.s:247    .text.cau_enable:0000000000000000 .LFB370
C:\Users\stapi\AppData\Local\Temp\cc1aQxEq.s:259    .text.cau_enable:000000000000000e .LFE370
C:\Users\stapi\AppData\Local\Temp\cc1aQxEq.s:3481   .debug_str:00000000000005c9 .LASF109
C:\Users\stapi\AppData\Local\Temp\cc1aQxEq.s:146    .text.cau_context_struct_para_init:0000000000000000 .LFB369
C:\Users\stapi\AppData\Local\Temp\cc1aQxEq.s:240    .text.cau_context_struct_para_init:0000000000000076 .LFE369
C:\Users\stapi\AppData\Local\Temp\cc1aQxEq.s:3467   .debug_str:000000000000057b .LASF110
C:\Users\stapi\AppData\Local\Temp\cc1aQxEq.s:120    .text.cau_iv_struct_para_init:0000000000000000 .LFB368
C:\Users\stapi\AppData\Local\Temp\cc1aQxEq.s:139    .text.cau_iv_struct_para_init:0000000000000012 .LFE368
C:\Users\stapi\AppData\Local\Temp\cc1aQxEq.s:3547   .debug_str:00000000000007f2 .LASF111
C:\Users\stapi\AppData\Local\Temp\cc1aQxEq.s:82     .text.cau_key_struct_para_init:0000000000000000 .LFB367
C:\Users\stapi\AppData\Local\Temp\cc1aQxEq.s:113    .text.cau_key_struct_para_init:0000000000000022 .LFE367
C:\Users\stapi\AppData\Local\Temp\cc1aQxEq.s:3427   .debug_str:000000000000048a .LASF112
C:\Users\stapi\AppData\Local\Temp\cc1aQxEq.s:41     .text.cau_struct_para_init:0000000000000000 .LFB366
C:\Users\stapi\AppData\Local\Temp\cc1aQxEq.s:75     .text.cau_struct_para_init:0000000000000026 .LFE366
C:\Users\stapi\AppData\Local\Temp\cc1aQxEq.s:3437   .debug_str:00000000000004d8 .LASF113
C:\Users\stapi\AppData\Local\Temp\cc1aQxEq.s:3335   .debug_str:00000000000000ad .LASF114
C:\Users\stapi\AppData\Local\Temp\cc1aQxEq.s:14     .text.cau_deinit:0000000000000000 .LFB365
C:\Users\stapi\AppData\Local\Temp\cc1aQxEq.s:34     .text.cau_deinit:0000000000000028 .LFE365
C:\Users\stapi\AppData\Local\Temp\cc1aQxEq.s:24     .text.cau_deinit:0000000000000014 .LVL0
C:\Users\stapi\AppData\Local\Temp\cc1aQxEq.s:28     .text.cau_deinit:0000000000000020 .LVL1
C:\Users\stapi\AppData\Local\Temp\cc1aQxEq.s:3537   .debug_str:000000000000079e .LASF115
C:\Users\stapi\AppData\Local\Temp\cc1aQxEq.s:3411   .debug_str:0000000000000397 .LASF116
C:\Users\stapi\AppData\Local\Temp\cc1aQxEq.s:1189   .text.cau_interrupt_flag_get:0000000000000000 .LVL49
C:\Users\stapi\AppData\Local\Temp\cc1aQxEq.s:1199   .text.cau_interrupt_flag_get:0000000000000008 .LVL51
C:\Users\stapi\AppData\Local\Temp\cc1aQxEq.s:1195   .text.cau_interrupt_flag_get:0000000000000006 .LVL50
C:\Users\stapi\AppData\Local\Temp\cc1aQxEq.s:1168   .text.cau_interrupt_disable:0000000000000000 .LVL47
C:\Users\stapi\AppData\Local\Temp\cc1aQxEq.s:1174   .text.cau_interrupt_disable:000000000000000a .LVL48
C:\Users\stapi\AppData\Local\Temp\cc1aQxEq.s:844    .text.cau_flag_get:0000000000000000 .LVL28
C:\Users\stapi\AppData\Local\Temp\cc1aQxEq.s:862    .text.cau_flag_get:000000000000000e .LVL30
C:\Users\stapi\AppData\Local\Temp\cc1aQxEq.s:866    .text.cau_flag_get:0000000000000014 .LVL31
C:\Users\stapi\AppData\Local\Temp\cc1aQxEq.s:856    .text.cau_flag_get:000000000000000c .LVL29
C:\Users\stapi\AppData\Local\Temp\cc1aQxEq.s:872    .text.cau_flag_get:000000000000001a .LVL32
C:\Users\stapi\AppData\Local\Temp\cc1aQxEq.s:885    .text.cau_context_restore:0000000000000000 .LVL33
C:\Users\stapi\AppData\Local\Temp\cc1aQxEq.s:909    .text.cau_context_restore:000000000000001e .LVL34
C:\Users\stapi\AppData\Local\Temp\cc1aQxEq.s:962    .text.cau_context_restore:0000000000000052 .LVL35
C:\Users\stapi\AppData\Local\Temp\cc1aQxEq.s:1022   .text.cau_context_restore:00000000000000ae .LVL44
C:\Users\stapi\AppData\Local\Temp\cc1aQxEq.s:1097   .text.cau_context_restore:00000000000000f0 .LVL45
C:\Users\stapi\AppData\Local\Temp\cc1aQxEq.s:968    .text.cau_context_restore:0000000000000058 .LVL36
C:\Users\stapi\AppData\Local\Temp\cc1aQxEq.s:974    .text.cau_context_restore:0000000000000062 .LVL37
C:\Users\stapi\AppData\Local\Temp\cc1aQxEq.s:1010   .text.cau_context_restore:000000000000009e .LVL42
C:\Users\stapi\AppData\Local\Temp\cc1aQxEq.s:602    .text.cau_context_save:0000000000000000 .LVL22
C:\Users\stapi\AppData\Local\Temp\cc1aQxEq.s:636    .text.cau_context_save:0000000000000024 .LVL24
C:\Users\stapi\AppData\Local\Temp\cc1aQxEq.s:640    .text.cau_context_save:0000000000000028 .LVL25
C:\Users\stapi\AppData\Local\Temp\cc1aQxEq.s:652    .text.cau_context_save:0000000000000034 .LVL26
C:\Users\stapi\AppData\Local\Temp\cc1aQxEq.s:625    .text.cau_context_save:000000000000001c .LVL23
C:\Users\stapi\AppData\Local\Temp\cc1aQxEq.s:790    .text.cau_context_save:00000000000000ca .LVL27
C:\Users\stapi\AppData\Local\Temp\cc1aQxEq.s:545    .text.cau_enable_state_get:0000000000000000 .LVL18
C:\Users\stapi\AppData\Local\Temp\cc1aQxEq.s:550    .text.cau_enable_state_get:0000000000000006 .LVL19
C:\Users\stapi\AppData\Local\Temp\cc1aQxEq.s:554    .text.cau_enable_state_get:000000000000000a .LVL20
C:\Users\stapi\AppData\Local\Temp\cc1aQxEq.s:329    .text.cau_init:0000000000000000 .LVL9
C:\Users\stapi\AppData\Local\Temp\cc1aQxEq.s:346    .text.cau_init:0000000000000026 .LVL10
C:\Users\stapi\AppData\Local\Temp\cc1aQxEq.s:308    .text.cau_dma_disable:0000000000000000 .LVL7
C:\Users\stapi\AppData\Local\Temp\cc1aQxEq.s:314    .text.cau_dma_disable:000000000000000a .LVL8
C:\Users\stapi\AppData\Local\Temp\cc1aQxEq.s:1214   .debug_info:0000000000000000 .Ldebug_info0

UNDEFINED SYMBOLS
__riscv_save_0
rcu_periph_reset_enable
rcu_periph_reset_disable
__riscv_restore_0
__riscv_save_1
__riscv_restore_1
