   1              		.file	"gd32vw55x_hau_sha_md5.c"
   2              		.option nopic
   3              		.attribute arch, "rv32i2p0_m2p0_a2p0_f2p0_c2p0_b_p0p94"
   4              		.attribute unaligned_access, 0
   5              		.attribute stack_align, 16
   6              		.text
   7              	.Ltext0:
   8              		.cfi_sections	.debug_frame
   9              		.section	.text.hau_sha_md5_digest_read,"ax",@progbits
  10              		.align	1
  11              		.globl	hau_sha_md5_digest_read
  13              	hau_sha_md5_digest_read:
  14              	.LFB373:
  15              		.file 1 "C:/Users/stapi/OneDrive/Desktop/GD32VW553/V1_MQTT_OK/GD32VW55X_Wifi_BLE_SDK/GD32VW55x_REL
   1:C:/Users/stapi/OneDrive/Desktop/GD32VW553/V1_MQTT_OK/GD32VW55X_Wifi_BLE_SDK/GD32VW55x_RELEASE_V1.0.2/MSDK/plf/GD32VW55x_standard_peripheral/Source\gd32vw55x_hau_sha_md5.c **** /*!
   2:C:/Users/stapi/OneDrive/Desktop/GD32VW553/V1_MQTT_OK/GD32VW55X_Wifi_BLE_SDK/GD32VW55x_RELEASE_V1.0.2/MSDK/plf/GD32VW55x_standard_peripheral/Source\gd32vw55x_hau_sha_md5.c ****     \file    gd32vw55x_hau_sha_md5.c
   3:C:/Users/stapi/OneDrive/Desktop/GD32VW553/V1_MQTT_OK/GD32VW55X_Wifi_BLE_SDK/GD32VW55x_RELEASE_V1.0.2/MSDK/plf/GD32VW55x_standard_peripheral/Source\gd32vw55x_hau_sha_md5.c ****     \brief   HAU_SHA_MD5 driver
   4:C:/Users/stapi/OneDrive/Desktop/GD32VW553/V1_MQTT_OK/GD32VW55X_Wifi_BLE_SDK/GD32VW55x_RELEASE_V1.0.2/MSDK/plf/GD32VW55x_standard_peripheral/Source\gd32vw55x_hau_sha_md5.c **** 
   5:C:/Users/stapi/OneDrive/Desktop/GD32VW553/V1_MQTT_OK/GD32VW55X_Wifi_BLE_SDK/GD32VW55x_RELEASE_V1.0.2/MSDK/plf/GD32VW55x_standard_peripheral/Source\gd32vw55x_hau_sha_md5.c ****     \version 2023-07-20, V1.0.0, firmware for GD32VW55x
   6:C:/Users/stapi/OneDrive/Desktop/GD32VW553/V1_MQTT_OK/GD32VW55X_Wifi_BLE_SDK/GD32VW55x_RELEASE_V1.0.2/MSDK/plf/GD32VW55x_standard_peripheral/Source\gd32vw55x_hau_sha_md5.c **** */
   7:C:/Users/stapi/OneDrive/Desktop/GD32VW553/V1_MQTT_OK/GD32VW55X_Wifi_BLE_SDK/GD32VW55x_RELEASE_V1.0.2/MSDK/plf/GD32VW55x_standard_peripheral/Source\gd32vw55x_hau_sha_md5.c **** 
   8:C:/Users/stapi/OneDrive/Desktop/GD32VW553/V1_MQTT_OK/GD32VW55X_Wifi_BLE_SDK/GD32VW55x_RELEASE_V1.0.2/MSDK/plf/GD32VW55x_standard_peripheral/Source\gd32vw55x_hau_sha_md5.c **** /*
   9:C:/Users/stapi/OneDrive/Desktop/GD32VW553/V1_MQTT_OK/GD32VW55X_Wifi_BLE_SDK/GD32VW55x_RELEASE_V1.0.2/MSDK/plf/GD32VW55x_standard_peripheral/Source\gd32vw55x_hau_sha_md5.c ****     Copyright (c) 2023, GigaDevice Semiconductor Inc.
  10:C:/Users/stapi/OneDrive/Desktop/GD32VW553/V1_MQTT_OK/GD32VW55X_Wifi_BLE_SDK/GD32VW55x_RELEASE_V1.0.2/MSDK/plf/GD32VW55x_standard_peripheral/Source\gd32vw55x_hau_sha_md5.c **** 
  11:C:/Users/stapi/OneDrive/Desktop/GD32VW553/V1_MQTT_OK/GD32VW55X_Wifi_BLE_SDK/GD32VW55x_RELEASE_V1.0.2/MSDK/plf/GD32VW55x_standard_peripheral/Source\gd32vw55x_hau_sha_md5.c ****     Redistribution and use in source and binary forms, with or without modification,
  12:C:/Users/stapi/OneDrive/Desktop/GD32VW553/V1_MQTT_OK/GD32VW55X_Wifi_BLE_SDK/GD32VW55x_RELEASE_V1.0.2/MSDK/plf/GD32VW55x_standard_peripheral/Source\gd32vw55x_hau_sha_md5.c **** are permitted provided that the following conditions are met:
  13:C:/Users/stapi/OneDrive/Desktop/GD32VW553/V1_MQTT_OK/GD32VW55X_Wifi_BLE_SDK/GD32VW55x_RELEASE_V1.0.2/MSDK/plf/GD32VW55x_standard_peripheral/Source\gd32vw55x_hau_sha_md5.c **** 
  14:C:/Users/stapi/OneDrive/Desktop/GD32VW553/V1_MQTT_OK/GD32VW55X_Wifi_BLE_SDK/GD32VW55x_RELEASE_V1.0.2/MSDK/plf/GD32VW55x_standard_peripheral/Source\gd32vw55x_hau_sha_md5.c ****     1. Redistributions of source code must retain the above copyright notice, this
  15:C:/Users/stapi/OneDrive/Desktop/GD32VW553/V1_MQTT_OK/GD32VW55X_Wifi_BLE_SDK/GD32VW55x_RELEASE_V1.0.2/MSDK/plf/GD32VW55x_standard_peripheral/Source\gd32vw55x_hau_sha_md5.c ****        list of conditions and the following disclaimer.
  16:C:/Users/stapi/OneDrive/Desktop/GD32VW553/V1_MQTT_OK/GD32VW55X_Wifi_BLE_SDK/GD32VW55x_RELEASE_V1.0.2/MSDK/plf/GD32VW55x_standard_peripheral/Source\gd32vw55x_hau_sha_md5.c ****     2. Redistributions in binary form must reproduce the above copyright notice,
  17:C:/Users/stapi/OneDrive/Desktop/GD32VW553/V1_MQTT_OK/GD32VW55X_Wifi_BLE_SDK/GD32VW55x_RELEASE_V1.0.2/MSDK/plf/GD32VW55x_standard_peripheral/Source\gd32vw55x_hau_sha_md5.c ****        this list of conditions and the following disclaimer in the documentation
  18:C:/Users/stapi/OneDrive/Desktop/GD32VW553/V1_MQTT_OK/GD32VW55X_Wifi_BLE_SDK/GD32VW55x_RELEASE_V1.0.2/MSDK/plf/GD32VW55x_standard_peripheral/Source\gd32vw55x_hau_sha_md5.c ****        and/or other materials provided with the distribution.
  19:C:/Users/stapi/OneDrive/Desktop/GD32VW553/V1_MQTT_OK/GD32VW55X_Wifi_BLE_SDK/GD32VW55x_RELEASE_V1.0.2/MSDK/plf/GD32VW55x_standard_peripheral/Source\gd32vw55x_hau_sha_md5.c ****     3. Neither the name of the copyright holder nor the names of its contributors
  20:C:/Users/stapi/OneDrive/Desktop/GD32VW553/V1_MQTT_OK/GD32VW55X_Wifi_BLE_SDK/GD32VW55x_RELEASE_V1.0.2/MSDK/plf/GD32VW55x_standard_peripheral/Source\gd32vw55x_hau_sha_md5.c ****        may be used to endorse or promote products derived from this software without
  21:C:/Users/stapi/OneDrive/Desktop/GD32VW553/V1_MQTT_OK/GD32VW55X_Wifi_BLE_SDK/GD32VW55x_RELEASE_V1.0.2/MSDK/plf/GD32VW55x_standard_peripheral/Source\gd32vw55x_hau_sha_md5.c ****        specific prior written permission.
  22:C:/Users/stapi/OneDrive/Desktop/GD32VW553/V1_MQTT_OK/GD32VW55X_Wifi_BLE_SDK/GD32VW55x_RELEASE_V1.0.2/MSDK/plf/GD32VW55x_standard_peripheral/Source\gd32vw55x_hau_sha_md5.c **** 
  23:C:/Users/stapi/OneDrive/Desktop/GD32VW553/V1_MQTT_OK/GD32VW55X_Wifi_BLE_SDK/GD32VW55x_RELEASE_V1.0.2/MSDK/plf/GD32VW55x_standard_peripheral/Source\gd32vw55x_hau_sha_md5.c ****     THIS SOFTWARE IS PROVIDED BY THE COPYRIGHT HOLDERS AND CONTRIBUTORS "AS IS"
  24:C:/Users/stapi/OneDrive/Desktop/GD32VW553/V1_MQTT_OK/GD32VW55X_Wifi_BLE_SDK/GD32VW55x_RELEASE_V1.0.2/MSDK/plf/GD32VW55x_standard_peripheral/Source\gd32vw55x_hau_sha_md5.c **** AND ANY EXPRESS OR IMPLIED WARRANTIES, INCLUDING, BUT NOT LIMITED TO, THE IMPLIED
  25:C:/Users/stapi/OneDrive/Desktop/GD32VW553/V1_MQTT_OK/GD32VW55X_Wifi_BLE_SDK/GD32VW55x_RELEASE_V1.0.2/MSDK/plf/GD32VW55x_standard_peripheral/Source\gd32vw55x_hau_sha_md5.c **** WARRANTIES OF MERCHANTABILITY AND FITNESS FOR A PARTICULAR PURPOSE ARE DISCLAIMED.
  26:C:/Users/stapi/OneDrive/Desktop/GD32VW553/V1_MQTT_OK/GD32VW55X_Wifi_BLE_SDK/GD32VW55x_RELEASE_V1.0.2/MSDK/plf/GD32VW55x_standard_peripheral/Source\gd32vw55x_hau_sha_md5.c **** IN NO EVENT SHALL THE COPYRIGHT HOLDER OR CONTRIBUTORS BE LIABLE FOR ANY DIRECT,
  27:C:/Users/stapi/OneDrive/Desktop/GD32VW553/V1_MQTT_OK/GD32VW55X_Wifi_BLE_SDK/GD32VW55x_RELEASE_V1.0.2/MSDK/plf/GD32VW55x_standard_peripheral/Source\gd32vw55x_hau_sha_md5.c **** INDIRECT, INCIDENTAL, SPECIAL, EXEMPLARY, OR CONSEQUENTIAL DAMAGES (INCLUDING, BUT
  28:C:/Users/stapi/OneDrive/Desktop/GD32VW553/V1_MQTT_OK/GD32VW55X_Wifi_BLE_SDK/GD32VW55x_RELEASE_V1.0.2/MSDK/plf/GD32VW55x_standard_peripheral/Source\gd32vw55x_hau_sha_md5.c **** NOT LIMITED TO, PROCUREMENT OF SUBSTITUTE GOODS OR SERVICES; LOSS OF USE, DATA, OR
  29:C:/Users/stapi/OneDrive/Desktop/GD32VW553/V1_MQTT_OK/GD32VW55X_Wifi_BLE_SDK/GD32VW55x_RELEASE_V1.0.2/MSDK/plf/GD32VW55x_standard_peripheral/Source\gd32vw55x_hau_sha_md5.c **** PROFITS; OR BUSINESS INTERRUPTION) HOWEVER CAUSED AND ON ANY THEORY OF LIABILITY,
  30:C:/Users/stapi/OneDrive/Desktop/GD32VW553/V1_MQTT_OK/GD32VW55X_Wifi_BLE_SDK/GD32VW55x_RELEASE_V1.0.2/MSDK/plf/GD32VW55x_standard_peripheral/Source\gd32vw55x_hau_sha_md5.c **** WHETHER IN CONTRACT, STRICT LIABILITY, OR TORT (INCLUDING NEGLIGENCE OR OTHERWISE)
  31:C:/Users/stapi/OneDrive/Desktop/GD32VW553/V1_MQTT_OK/GD32VW55X_Wifi_BLE_SDK/GD32VW55x_RELEASE_V1.0.2/MSDK/plf/GD32VW55x_standard_peripheral/Source\gd32vw55x_hau_sha_md5.c **** ARISING IN ANY WAY OUT OF THE USE OF THIS SOFTWARE, EVEN IF ADVISED OF THE POSSIBILITY
  32:C:/Users/stapi/OneDrive/Desktop/GD32VW553/V1_MQTT_OK/GD32VW55X_Wifi_BLE_SDK/GD32VW55x_RELEASE_V1.0.2/MSDK/plf/GD32VW55x_standard_peripheral/Source\gd32vw55x_hau_sha_md5.c **** OF SUCH DAMAGE.
  33:C:/Users/stapi/OneDrive/Desktop/GD32VW553/V1_MQTT_OK/GD32VW55X_Wifi_BLE_SDK/GD32VW55x_RELEASE_V1.0.2/MSDK/plf/GD32VW55x_standard_peripheral/Source\gd32vw55x_hau_sha_md5.c **** */
  34:C:/Users/stapi/OneDrive/Desktop/GD32VW553/V1_MQTT_OK/GD32VW55X_Wifi_BLE_SDK/GD32VW55x_RELEASE_V1.0.2/MSDK/plf/GD32VW55x_standard_peripheral/Source\gd32vw55x_hau_sha_md5.c **** 
  35:C:/Users/stapi/OneDrive/Desktop/GD32VW553/V1_MQTT_OK/GD32VW55X_Wifi_BLE_SDK/GD32VW55x_RELEASE_V1.0.2/MSDK/plf/GD32VW55x_standard_peripheral/Source\gd32vw55x_hau_sha_md5.c **** #include "gd32vw55x_hau.h"
  36:C:/Users/stapi/OneDrive/Desktop/GD32VW553/V1_MQTT_OK/GD32VW55X_Wifi_BLE_SDK/GD32VW55x_RELEASE_V1.0.2/MSDK/plf/GD32VW55x_standard_peripheral/Source\gd32vw55x_hau_sha_md5.c **** 
  37:C:/Users/stapi/OneDrive/Desktop/GD32VW553/V1_MQTT_OK/GD32VW55X_Wifi_BLE_SDK/GD32VW55x_RELEASE_V1.0.2/MSDK/plf/GD32VW55x_standard_peripheral/Source\gd32vw55x_hau_sha_md5.c **** #define SHAMD5_BSY_TIMEOUT    ((uint32_t)0x00010000U)
  38:C:/Users/stapi/OneDrive/Desktop/GD32VW553/V1_MQTT_OK/GD32VW55X_Wifi_BLE_SDK/GD32VW55x_RELEASE_V1.0.2/MSDK/plf/GD32VW55x_standard_peripheral/Source\gd32vw55x_hau_sha_md5.c **** 
  39:C:/Users/stapi/OneDrive/Desktop/GD32VW553/V1_MQTT_OK/GD32VW55X_Wifi_BLE_SDK/GD32VW55x_RELEASE_V1.0.2/MSDK/plf/GD32VW55x_standard_peripheral/Source\gd32vw55x_hau_sha_md5.c **** /* HAU digest calculate process in HASH mode */
  40:C:/Users/stapi/OneDrive/Desktop/GD32VW553/V1_MQTT_OK/GD32VW55X_Wifi_BLE_SDK/GD32VW55x_RELEASE_V1.0.2/MSDK/plf/GD32VW55x_standard_peripheral/Source\gd32vw55x_hau_sha_md5.c **** static ErrStatus hau_hash_calculate(uint32_t algo, uint8_t *input, uint32_t in_length, uint8_t *out
  41:C:/Users/stapi/OneDrive/Desktop/GD32VW553/V1_MQTT_OK/GD32VW55X_Wifi_BLE_SDK/GD32VW55x_RELEASE_V1.0.2/MSDK/plf/GD32VW55x_standard_peripheral/Source\gd32vw55x_hau_sha_md5.c **** /* HAU digest calculate process in HMAC mode */
  42:C:/Users/stapi/OneDrive/Desktop/GD32VW553/V1_MQTT_OK/GD32VW55X_Wifi_BLE_SDK/GD32VW55x_RELEASE_V1.0.2/MSDK/plf/GD32VW55x_standard_peripheral/Source\gd32vw55x_hau_sha_md5.c **** static ErrStatus hau_hmac_calculate(uint32_t algo, uint8_t *key, uint32_t keysize, uint8_t *input, 
  43:C:/Users/stapi/OneDrive/Desktop/GD32VW553/V1_MQTT_OK/GD32VW55X_Wifi_BLE_SDK/GD32VW55x_RELEASE_V1.0.2/MSDK/plf/GD32VW55x_standard_peripheral/Source\gd32vw55x_hau_sha_md5.c **** 
  44:C:/Users/stapi/OneDrive/Desktop/GD32VW553/V1_MQTT_OK/GD32VW55X_Wifi_BLE_SDK/GD32VW55x_RELEASE_V1.0.2/MSDK/plf/GD32VW55x_standard_peripheral/Source\gd32vw55x_hau_sha_md5.c **** /*!
  45:C:/Users/stapi/OneDrive/Desktop/GD32VW553/V1_MQTT_OK/GD32VW55X_Wifi_BLE_SDK/GD32VW55x_RELEASE_V1.0.2/MSDK/plf/GD32VW55x_standard_peripheral/Source\gd32vw55x_hau_sha_md5.c ****     \brief      calculate digest using SHA1 in HASH mode
  46:C:/Users/stapi/OneDrive/Desktop/GD32VW553/V1_MQTT_OK/GD32VW55X_Wifi_BLE_SDK/GD32VW55x_RELEASE_V1.0.2/MSDK/plf/GD32VW55x_standard_peripheral/Source\gd32vw55x_hau_sha_md5.c ****     \param[in]  input: pointer to the input buffer
  47:C:/Users/stapi/OneDrive/Desktop/GD32VW553/V1_MQTT_OK/GD32VW55X_Wifi_BLE_SDK/GD32VW55x_RELEASE_V1.0.2/MSDK/plf/GD32VW55x_standard_peripheral/Source\gd32vw55x_hau_sha_md5.c ****     \param[in]  in_length: length of the input buffer
  48:C:/Users/stapi/OneDrive/Desktop/GD32VW553/V1_MQTT_OK/GD32VW55X_Wifi_BLE_SDK/GD32VW55x_RELEASE_V1.0.2/MSDK/plf/GD32VW55x_standard_peripheral/Source\gd32vw55x_hau_sha_md5.c ****     \param[in]  output: the result digest
  49:C:/Users/stapi/OneDrive/Desktop/GD32VW553/V1_MQTT_OK/GD32VW55X_Wifi_BLE_SDK/GD32VW55x_RELEASE_V1.0.2/MSDK/plf/GD32VW55x_standard_peripheral/Source\gd32vw55x_hau_sha_md5.c ****     \param[out] none
  50:C:/Users/stapi/OneDrive/Desktop/GD32VW553/V1_MQTT_OK/GD32VW55X_Wifi_BLE_SDK/GD32VW55x_RELEASE_V1.0.2/MSDK/plf/GD32VW55x_standard_peripheral/Source\gd32vw55x_hau_sha_md5.c ****     \retval     ErrStatus: SUCCESS or ERROR
  51:C:/Users/stapi/OneDrive/Desktop/GD32VW553/V1_MQTT_OK/GD32VW55X_Wifi_BLE_SDK/GD32VW55x_RELEASE_V1.0.2/MSDK/plf/GD32VW55x_standard_peripheral/Source\gd32vw55x_hau_sha_md5.c **** */
  52:C:/Users/stapi/OneDrive/Desktop/GD32VW553/V1_MQTT_OK/GD32VW55X_Wifi_BLE_SDK/GD32VW55x_RELEASE_V1.0.2/MSDK/plf/GD32VW55x_standard_peripheral/Source\gd32vw55x_hau_sha_md5.c **** ErrStatus hau_hash_sha_1(uint8_t *input, uint32_t in_length, uint8_t output[20])
  53:C:/Users/stapi/OneDrive/Desktop/GD32VW553/V1_MQTT_OK/GD32VW55X_Wifi_BLE_SDK/GD32VW55x_RELEASE_V1.0.2/MSDK/plf/GD32VW55x_standard_peripheral/Source\gd32vw55x_hau_sha_md5.c **** {
  54:C:/Users/stapi/OneDrive/Desktop/GD32VW553/V1_MQTT_OK/GD32VW55X_Wifi_BLE_SDK/GD32VW55x_RELEASE_V1.0.2/MSDK/plf/GD32VW55x_standard_peripheral/Source\gd32vw55x_hau_sha_md5.c ****     ErrStatus ret = ERROR;
  55:C:/Users/stapi/OneDrive/Desktop/GD32VW553/V1_MQTT_OK/GD32VW55X_Wifi_BLE_SDK/GD32VW55x_RELEASE_V1.0.2/MSDK/plf/GD32VW55x_standard_peripheral/Source\gd32vw55x_hau_sha_md5.c ****     ret = hau_hash_calculate(HAU_ALGO_SHA1, input, in_length, output);
  56:C:/Users/stapi/OneDrive/Desktop/GD32VW553/V1_MQTT_OK/GD32VW55X_Wifi_BLE_SDK/GD32VW55x_RELEASE_V1.0.2/MSDK/plf/GD32VW55x_standard_peripheral/Source\gd32vw55x_hau_sha_md5.c ****     return ret;
  57:C:/Users/stapi/OneDrive/Desktop/GD32VW553/V1_MQTT_OK/GD32VW55X_Wifi_BLE_SDK/GD32VW55x_RELEASE_V1.0.2/MSDK/plf/GD32VW55x_standard_peripheral/Source\gd32vw55x_hau_sha_md5.c **** }
  58:C:/Users/stapi/OneDrive/Desktop/GD32VW553/V1_MQTT_OK/GD32VW55X_Wifi_BLE_SDK/GD32VW55x_RELEASE_V1.0.2/MSDK/plf/GD32VW55x_standard_peripheral/Source\gd32vw55x_hau_sha_md5.c **** 
  59:C:/Users/stapi/OneDrive/Desktop/GD32VW553/V1_MQTT_OK/GD32VW55X_Wifi_BLE_SDK/GD32VW55x_RELEASE_V1.0.2/MSDK/plf/GD32VW55x_standard_peripheral/Source\gd32vw55x_hau_sha_md5.c **** /*!
  60:C:/Users/stapi/OneDrive/Desktop/GD32VW553/V1_MQTT_OK/GD32VW55X_Wifi_BLE_SDK/GD32VW55x_RELEASE_V1.0.2/MSDK/plf/GD32VW55x_standard_peripheral/Source\gd32vw55x_hau_sha_md5.c ****     \brief      calculate digest using SHA1 in HMAC mode
  61:C:/Users/stapi/OneDrive/Desktop/GD32VW553/V1_MQTT_OK/GD32VW55X_Wifi_BLE_SDK/GD32VW55x_RELEASE_V1.0.2/MSDK/plf/GD32VW55x_standard_peripheral/Source\gd32vw55x_hau_sha_md5.c ****     \param[in]  key: pointer to the key used for HMAC
  62:C:/Users/stapi/OneDrive/Desktop/GD32VW553/V1_MQTT_OK/GD32VW55X_Wifi_BLE_SDK/GD32VW55x_RELEASE_V1.0.2/MSDK/plf/GD32VW55x_standard_peripheral/Source\gd32vw55x_hau_sha_md5.c ****     \param[in]  keysize: length of the key used for HMAC
  63:C:/Users/stapi/OneDrive/Desktop/GD32VW553/V1_MQTT_OK/GD32VW55X_Wifi_BLE_SDK/GD32VW55x_RELEASE_V1.0.2/MSDK/plf/GD32VW55x_standard_peripheral/Source\gd32vw55x_hau_sha_md5.c ****     \param[in]  input: pointer to the input buffer
  64:C:/Users/stapi/OneDrive/Desktop/GD32VW553/V1_MQTT_OK/GD32VW55X_Wifi_BLE_SDK/GD32VW55x_RELEASE_V1.0.2/MSDK/plf/GD32VW55x_standard_peripheral/Source\gd32vw55x_hau_sha_md5.c ****     \param[in]  in_length: length of the input buffer
  65:C:/Users/stapi/OneDrive/Desktop/GD32VW553/V1_MQTT_OK/GD32VW55X_Wifi_BLE_SDK/GD32VW55x_RELEASE_V1.0.2/MSDK/plf/GD32VW55x_standard_peripheral/Source\gd32vw55x_hau_sha_md5.c ****     \param[in]  output: the result digest
  66:C:/Users/stapi/OneDrive/Desktop/GD32VW553/V1_MQTT_OK/GD32VW55X_Wifi_BLE_SDK/GD32VW55x_RELEASE_V1.0.2/MSDK/plf/GD32VW55x_standard_peripheral/Source\gd32vw55x_hau_sha_md5.c ****     \param[out] none
  67:C:/Users/stapi/OneDrive/Desktop/GD32VW553/V1_MQTT_OK/GD32VW55X_Wifi_BLE_SDK/GD32VW55x_RELEASE_V1.0.2/MSDK/plf/GD32VW55x_standard_peripheral/Source\gd32vw55x_hau_sha_md5.c ****     \retval     ErrStatus: SUCCESS or ERROR
  68:C:/Users/stapi/OneDrive/Desktop/GD32VW553/V1_MQTT_OK/GD32VW55X_Wifi_BLE_SDK/GD32VW55x_RELEASE_V1.0.2/MSDK/plf/GD32VW55x_standard_peripheral/Source\gd32vw55x_hau_sha_md5.c **** */
  69:C:/Users/stapi/OneDrive/Desktop/GD32VW553/V1_MQTT_OK/GD32VW55X_Wifi_BLE_SDK/GD32VW55x_RELEASE_V1.0.2/MSDK/plf/GD32VW55x_standard_peripheral/Source\gd32vw55x_hau_sha_md5.c **** ErrStatus hau_hmac_sha_1(uint8_t *key, uint32_t keysize, uint8_t *input, uint32_t in_length, uint8_
  70:C:/Users/stapi/OneDrive/Desktop/GD32VW553/V1_MQTT_OK/GD32VW55X_Wifi_BLE_SDK/GD32VW55x_RELEASE_V1.0.2/MSDK/plf/GD32VW55x_standard_peripheral/Source\gd32vw55x_hau_sha_md5.c **** {
  71:C:/Users/stapi/OneDrive/Desktop/GD32VW553/V1_MQTT_OK/GD32VW55X_Wifi_BLE_SDK/GD32VW55x_RELEASE_V1.0.2/MSDK/plf/GD32VW55x_standard_peripheral/Source\gd32vw55x_hau_sha_md5.c ****     ErrStatus ret = ERROR;
  72:C:/Users/stapi/OneDrive/Desktop/GD32VW553/V1_MQTT_OK/GD32VW55X_Wifi_BLE_SDK/GD32VW55x_RELEASE_V1.0.2/MSDK/plf/GD32VW55x_standard_peripheral/Source\gd32vw55x_hau_sha_md5.c ****     ret = hau_hmac_calculate(HAU_ALGO_SHA1, key, keysize, input, in_length, output);
  73:C:/Users/stapi/OneDrive/Desktop/GD32VW553/V1_MQTT_OK/GD32VW55X_Wifi_BLE_SDK/GD32VW55x_RELEASE_V1.0.2/MSDK/plf/GD32VW55x_standard_peripheral/Source\gd32vw55x_hau_sha_md5.c ****     return ret;
  74:C:/Users/stapi/OneDrive/Desktop/GD32VW553/V1_MQTT_OK/GD32VW55X_Wifi_BLE_SDK/GD32VW55x_RELEASE_V1.0.2/MSDK/plf/GD32VW55x_standard_peripheral/Source\gd32vw55x_hau_sha_md5.c **** }
  75:C:/Users/stapi/OneDrive/Desktop/GD32VW553/V1_MQTT_OK/GD32VW55X_Wifi_BLE_SDK/GD32VW55x_RELEASE_V1.0.2/MSDK/plf/GD32VW55x_standard_peripheral/Source\gd32vw55x_hau_sha_md5.c **** 
  76:C:/Users/stapi/OneDrive/Desktop/GD32VW553/V1_MQTT_OK/GD32VW55X_Wifi_BLE_SDK/GD32VW55x_RELEASE_V1.0.2/MSDK/plf/GD32VW55x_standard_peripheral/Source\gd32vw55x_hau_sha_md5.c **** /*!
  77:C:/Users/stapi/OneDrive/Desktop/GD32VW553/V1_MQTT_OK/GD32VW55X_Wifi_BLE_SDK/GD32VW55x_RELEASE_V1.0.2/MSDK/plf/GD32VW55x_standard_peripheral/Source\gd32vw55x_hau_sha_md5.c ****     \brief      calculate digest using SHA224 in HASH mode
  78:C:/Users/stapi/OneDrive/Desktop/GD32VW553/V1_MQTT_OK/GD32VW55X_Wifi_BLE_SDK/GD32VW55x_RELEASE_V1.0.2/MSDK/plf/GD32VW55x_standard_peripheral/Source\gd32vw55x_hau_sha_md5.c ****     \param[in]  input: pointer to the input buffer
  79:C:/Users/stapi/OneDrive/Desktop/GD32VW553/V1_MQTT_OK/GD32VW55X_Wifi_BLE_SDK/GD32VW55x_RELEASE_V1.0.2/MSDK/plf/GD32VW55x_standard_peripheral/Source\gd32vw55x_hau_sha_md5.c ****     \param[in]  in_length: length of the input buffer
  80:C:/Users/stapi/OneDrive/Desktop/GD32VW553/V1_MQTT_OK/GD32VW55X_Wifi_BLE_SDK/GD32VW55x_RELEASE_V1.0.2/MSDK/plf/GD32VW55x_standard_peripheral/Source\gd32vw55x_hau_sha_md5.c ****     \param[in]  output: the result digest
  81:C:/Users/stapi/OneDrive/Desktop/GD32VW553/V1_MQTT_OK/GD32VW55X_Wifi_BLE_SDK/GD32VW55x_RELEASE_V1.0.2/MSDK/plf/GD32VW55x_standard_peripheral/Source\gd32vw55x_hau_sha_md5.c ****     \param[out] none
  82:C:/Users/stapi/OneDrive/Desktop/GD32VW553/V1_MQTT_OK/GD32VW55X_Wifi_BLE_SDK/GD32VW55x_RELEASE_V1.0.2/MSDK/plf/GD32VW55x_standard_peripheral/Source\gd32vw55x_hau_sha_md5.c ****     \retval     ErrStatus: SUCCESS or ERROR
  83:C:/Users/stapi/OneDrive/Desktop/GD32VW553/V1_MQTT_OK/GD32VW55X_Wifi_BLE_SDK/GD32VW55x_RELEASE_V1.0.2/MSDK/plf/GD32VW55x_standard_peripheral/Source\gd32vw55x_hau_sha_md5.c **** */
  84:C:/Users/stapi/OneDrive/Desktop/GD32VW553/V1_MQTT_OK/GD32VW55X_Wifi_BLE_SDK/GD32VW55x_RELEASE_V1.0.2/MSDK/plf/GD32VW55x_standard_peripheral/Source\gd32vw55x_hau_sha_md5.c **** ErrStatus hau_hash_sha_224(uint8_t *input, uint32_t in_length, uint8_t output[28])
  85:C:/Users/stapi/OneDrive/Desktop/GD32VW553/V1_MQTT_OK/GD32VW55X_Wifi_BLE_SDK/GD32VW55x_RELEASE_V1.0.2/MSDK/plf/GD32VW55x_standard_peripheral/Source\gd32vw55x_hau_sha_md5.c **** {
  86:C:/Users/stapi/OneDrive/Desktop/GD32VW553/V1_MQTT_OK/GD32VW55X_Wifi_BLE_SDK/GD32VW55x_RELEASE_V1.0.2/MSDK/plf/GD32VW55x_standard_peripheral/Source\gd32vw55x_hau_sha_md5.c ****     ErrStatus ret = ERROR;
  87:C:/Users/stapi/OneDrive/Desktop/GD32VW553/V1_MQTT_OK/GD32VW55X_Wifi_BLE_SDK/GD32VW55x_RELEASE_V1.0.2/MSDK/plf/GD32VW55x_standard_peripheral/Source\gd32vw55x_hau_sha_md5.c ****     ret = hau_hash_calculate(HAU_ALGO_SHA224, input, in_length, output);
  88:C:/Users/stapi/OneDrive/Desktop/GD32VW553/V1_MQTT_OK/GD32VW55X_Wifi_BLE_SDK/GD32VW55x_RELEASE_V1.0.2/MSDK/plf/GD32VW55x_standard_peripheral/Source\gd32vw55x_hau_sha_md5.c ****     return ret;
  89:C:/Users/stapi/OneDrive/Desktop/GD32VW553/V1_MQTT_OK/GD32VW55X_Wifi_BLE_SDK/GD32VW55x_RELEASE_V1.0.2/MSDK/plf/GD32VW55x_standard_peripheral/Source\gd32vw55x_hau_sha_md5.c **** }
  90:C:/Users/stapi/OneDrive/Desktop/GD32VW553/V1_MQTT_OK/GD32VW55X_Wifi_BLE_SDK/GD32VW55x_RELEASE_V1.0.2/MSDK/plf/GD32VW55x_standard_peripheral/Source\gd32vw55x_hau_sha_md5.c **** 
  91:C:/Users/stapi/OneDrive/Desktop/GD32VW553/V1_MQTT_OK/GD32VW55X_Wifi_BLE_SDK/GD32VW55x_RELEASE_V1.0.2/MSDK/plf/GD32VW55x_standard_peripheral/Source\gd32vw55x_hau_sha_md5.c **** /*!
  92:C:/Users/stapi/OneDrive/Desktop/GD32VW553/V1_MQTT_OK/GD32VW55X_Wifi_BLE_SDK/GD32VW55x_RELEASE_V1.0.2/MSDK/plf/GD32VW55x_standard_peripheral/Source\gd32vw55x_hau_sha_md5.c ****     \brief      calculate digest using SHA224 in HMAC mode
  93:C:/Users/stapi/OneDrive/Desktop/GD32VW553/V1_MQTT_OK/GD32VW55X_Wifi_BLE_SDK/GD32VW55x_RELEASE_V1.0.2/MSDK/plf/GD32VW55x_standard_peripheral/Source\gd32vw55x_hau_sha_md5.c ****     \param[in]  key: pointer to the key used for HMAC
  94:C:/Users/stapi/OneDrive/Desktop/GD32VW553/V1_MQTT_OK/GD32VW55X_Wifi_BLE_SDK/GD32VW55x_RELEASE_V1.0.2/MSDK/plf/GD32VW55x_standard_peripheral/Source\gd32vw55x_hau_sha_md5.c ****     \param[in]  keysize: length of the key used for HMAC
  95:C:/Users/stapi/OneDrive/Desktop/GD32VW553/V1_MQTT_OK/GD32VW55X_Wifi_BLE_SDK/GD32VW55x_RELEASE_V1.0.2/MSDK/plf/GD32VW55x_standard_peripheral/Source\gd32vw55x_hau_sha_md5.c ****     \param[in]  input: pointer to the input buffer
  96:C:/Users/stapi/OneDrive/Desktop/GD32VW553/V1_MQTT_OK/GD32VW55X_Wifi_BLE_SDK/GD32VW55x_RELEASE_V1.0.2/MSDK/plf/GD32VW55x_standard_peripheral/Source\gd32vw55x_hau_sha_md5.c ****     \param[in]  in_length: length of the input buffer
  97:C:/Users/stapi/OneDrive/Desktop/GD32VW553/V1_MQTT_OK/GD32VW55X_Wifi_BLE_SDK/GD32VW55x_RELEASE_V1.0.2/MSDK/plf/GD32VW55x_standard_peripheral/Source\gd32vw55x_hau_sha_md5.c ****     \param[in]  output: the result digest
  98:C:/Users/stapi/OneDrive/Desktop/GD32VW553/V1_MQTT_OK/GD32VW55X_Wifi_BLE_SDK/GD32VW55x_RELEASE_V1.0.2/MSDK/plf/GD32VW55x_standard_peripheral/Source\gd32vw55x_hau_sha_md5.c ****     \param[out] none
  99:C:/Users/stapi/OneDrive/Desktop/GD32VW553/V1_MQTT_OK/GD32VW55X_Wifi_BLE_SDK/GD32VW55x_RELEASE_V1.0.2/MSDK/plf/GD32VW55x_standard_peripheral/Source\gd32vw55x_hau_sha_md5.c ****     \retval     ErrStatus: SUCCESS or ERROR
 100:C:/Users/stapi/OneDrive/Desktop/GD32VW553/V1_MQTT_OK/GD32VW55X_Wifi_BLE_SDK/GD32VW55x_RELEASE_V1.0.2/MSDK/plf/GD32VW55x_standard_peripheral/Source\gd32vw55x_hau_sha_md5.c **** */
 101:C:/Users/stapi/OneDrive/Desktop/GD32VW553/V1_MQTT_OK/GD32VW55X_Wifi_BLE_SDK/GD32VW55x_RELEASE_V1.0.2/MSDK/plf/GD32VW55x_standard_peripheral/Source\gd32vw55x_hau_sha_md5.c **** ErrStatus hau_hmac_sha_224(uint8_t *key, uint32_t keysize, uint8_t *input, uint32_t in_length, uint
 102:C:/Users/stapi/OneDrive/Desktop/GD32VW553/V1_MQTT_OK/GD32VW55X_Wifi_BLE_SDK/GD32VW55x_RELEASE_V1.0.2/MSDK/plf/GD32VW55x_standard_peripheral/Source\gd32vw55x_hau_sha_md5.c **** {
 103:C:/Users/stapi/OneDrive/Desktop/GD32VW553/V1_MQTT_OK/GD32VW55X_Wifi_BLE_SDK/GD32VW55x_RELEASE_V1.0.2/MSDK/plf/GD32VW55x_standard_peripheral/Source\gd32vw55x_hau_sha_md5.c ****     ErrStatus ret = ERROR;
 104:C:/Users/stapi/OneDrive/Desktop/GD32VW553/V1_MQTT_OK/GD32VW55X_Wifi_BLE_SDK/GD32VW55x_RELEASE_V1.0.2/MSDK/plf/GD32VW55x_standard_peripheral/Source\gd32vw55x_hau_sha_md5.c ****     ret = hau_hmac_calculate(HAU_ALGO_SHA224, key, keysize, input, in_length, output);
 105:C:/Users/stapi/OneDrive/Desktop/GD32VW553/V1_MQTT_OK/GD32VW55X_Wifi_BLE_SDK/GD32VW55x_RELEASE_V1.0.2/MSDK/plf/GD32VW55x_standard_peripheral/Source\gd32vw55x_hau_sha_md5.c ****     return ret;
 106:C:/Users/stapi/OneDrive/Desktop/GD32VW553/V1_MQTT_OK/GD32VW55X_Wifi_BLE_SDK/GD32VW55x_RELEASE_V1.0.2/MSDK/plf/GD32VW55x_standard_peripheral/Source\gd32vw55x_hau_sha_md5.c **** }
 107:C:/Users/stapi/OneDrive/Desktop/GD32VW553/V1_MQTT_OK/GD32VW55X_Wifi_BLE_SDK/GD32VW55x_RELEASE_V1.0.2/MSDK/plf/GD32VW55x_standard_peripheral/Source\gd32vw55x_hau_sha_md5.c **** 
 108:C:/Users/stapi/OneDrive/Desktop/GD32VW553/V1_MQTT_OK/GD32VW55X_Wifi_BLE_SDK/GD32VW55x_RELEASE_V1.0.2/MSDK/plf/GD32VW55x_standard_peripheral/Source\gd32vw55x_hau_sha_md5.c **** /*!
 109:C:/Users/stapi/OneDrive/Desktop/GD32VW553/V1_MQTT_OK/GD32VW55X_Wifi_BLE_SDK/GD32VW55x_RELEASE_V1.0.2/MSDK/plf/GD32VW55x_standard_peripheral/Source\gd32vw55x_hau_sha_md5.c ****     \brief      calculate digest using SHA256 in HASH mode
 110:C:/Users/stapi/OneDrive/Desktop/GD32VW553/V1_MQTT_OK/GD32VW55X_Wifi_BLE_SDK/GD32VW55x_RELEASE_V1.0.2/MSDK/plf/GD32VW55x_standard_peripheral/Source\gd32vw55x_hau_sha_md5.c ****     \param[in]  input: pointer to the input buffer
 111:C:/Users/stapi/OneDrive/Desktop/GD32VW553/V1_MQTT_OK/GD32VW55X_Wifi_BLE_SDK/GD32VW55x_RELEASE_V1.0.2/MSDK/plf/GD32VW55x_standard_peripheral/Source\gd32vw55x_hau_sha_md5.c ****     \param[in]  in_length: length of the input buffer
 112:C:/Users/stapi/OneDrive/Desktop/GD32VW553/V1_MQTT_OK/GD32VW55X_Wifi_BLE_SDK/GD32VW55x_RELEASE_V1.0.2/MSDK/plf/GD32VW55x_standard_peripheral/Source\gd32vw55x_hau_sha_md5.c ****     \param[in]  output: the result digest
 113:C:/Users/stapi/OneDrive/Desktop/GD32VW553/V1_MQTT_OK/GD32VW55X_Wifi_BLE_SDK/GD32VW55x_RELEASE_V1.0.2/MSDK/plf/GD32VW55x_standard_peripheral/Source\gd32vw55x_hau_sha_md5.c ****     \param[out] none
 114:C:/Users/stapi/OneDrive/Desktop/GD32VW553/V1_MQTT_OK/GD32VW55X_Wifi_BLE_SDK/GD32VW55x_RELEASE_V1.0.2/MSDK/plf/GD32VW55x_standard_peripheral/Source\gd32vw55x_hau_sha_md5.c ****     \retval     ErrStatus: SUCCESS or ERROR
 115:C:/Users/stapi/OneDrive/Desktop/GD32VW553/V1_MQTT_OK/GD32VW55X_Wifi_BLE_SDK/GD32VW55x_RELEASE_V1.0.2/MSDK/plf/GD32VW55x_standard_peripheral/Source\gd32vw55x_hau_sha_md5.c **** */
 116:C:/Users/stapi/OneDrive/Desktop/GD32VW553/V1_MQTT_OK/GD32VW55X_Wifi_BLE_SDK/GD32VW55x_RELEASE_V1.0.2/MSDK/plf/GD32VW55x_standard_peripheral/Source\gd32vw55x_hau_sha_md5.c **** ErrStatus hau_hash_sha_256(uint8_t *input, uint32_t in_length, uint8_t output[32])
 117:C:/Users/stapi/OneDrive/Desktop/GD32VW553/V1_MQTT_OK/GD32VW55X_Wifi_BLE_SDK/GD32VW55x_RELEASE_V1.0.2/MSDK/plf/GD32VW55x_standard_peripheral/Source\gd32vw55x_hau_sha_md5.c **** {
 118:C:/Users/stapi/OneDrive/Desktop/GD32VW553/V1_MQTT_OK/GD32VW55X_Wifi_BLE_SDK/GD32VW55x_RELEASE_V1.0.2/MSDK/plf/GD32VW55x_standard_peripheral/Source\gd32vw55x_hau_sha_md5.c ****     ErrStatus ret = ERROR;
 119:C:/Users/stapi/OneDrive/Desktop/GD32VW553/V1_MQTT_OK/GD32VW55X_Wifi_BLE_SDK/GD32VW55x_RELEASE_V1.0.2/MSDK/plf/GD32VW55x_standard_peripheral/Source\gd32vw55x_hau_sha_md5.c ****     ret = hau_hash_calculate(HAU_ALGO_SHA256, input, in_length, output);
 120:C:/Users/stapi/OneDrive/Desktop/GD32VW553/V1_MQTT_OK/GD32VW55X_Wifi_BLE_SDK/GD32VW55x_RELEASE_V1.0.2/MSDK/plf/GD32VW55x_standard_peripheral/Source\gd32vw55x_hau_sha_md5.c ****     return ret;
 121:C:/Users/stapi/OneDrive/Desktop/GD32VW553/V1_MQTT_OK/GD32VW55X_Wifi_BLE_SDK/GD32VW55x_RELEASE_V1.0.2/MSDK/plf/GD32VW55x_standard_peripheral/Source\gd32vw55x_hau_sha_md5.c **** }
 122:C:/Users/stapi/OneDrive/Desktop/GD32VW553/V1_MQTT_OK/GD32VW55X_Wifi_BLE_SDK/GD32VW55x_RELEASE_V1.0.2/MSDK/plf/GD32VW55x_standard_peripheral/Source\gd32vw55x_hau_sha_md5.c **** 
 123:C:/Users/stapi/OneDrive/Desktop/GD32VW553/V1_MQTT_OK/GD32VW55X_Wifi_BLE_SDK/GD32VW55x_RELEASE_V1.0.2/MSDK/plf/GD32VW55x_standard_peripheral/Source\gd32vw55x_hau_sha_md5.c **** /*!
 124:C:/Users/stapi/OneDrive/Desktop/GD32VW553/V1_MQTT_OK/GD32VW55X_Wifi_BLE_SDK/GD32VW55x_RELEASE_V1.0.2/MSDK/plf/GD32VW55x_standard_peripheral/Source\gd32vw55x_hau_sha_md5.c ****     \brief      calculate digest using SHA256 in HMAC mode
 125:C:/Users/stapi/OneDrive/Desktop/GD32VW553/V1_MQTT_OK/GD32VW55X_Wifi_BLE_SDK/GD32VW55x_RELEASE_V1.0.2/MSDK/plf/GD32VW55x_standard_peripheral/Source\gd32vw55x_hau_sha_md5.c ****     \param[in]  key: pointer to the key used for HMAC
 126:C:/Users/stapi/OneDrive/Desktop/GD32VW553/V1_MQTT_OK/GD32VW55X_Wifi_BLE_SDK/GD32VW55x_RELEASE_V1.0.2/MSDK/plf/GD32VW55x_standard_peripheral/Source\gd32vw55x_hau_sha_md5.c ****     \param[in]  keysize: length of the key used for HMAC
 127:C:/Users/stapi/OneDrive/Desktop/GD32VW553/V1_MQTT_OK/GD32VW55X_Wifi_BLE_SDK/GD32VW55x_RELEASE_V1.0.2/MSDK/plf/GD32VW55x_standard_peripheral/Source\gd32vw55x_hau_sha_md5.c ****     \param[in]  input: pointer to the input buffer
 128:C:/Users/stapi/OneDrive/Desktop/GD32VW553/V1_MQTT_OK/GD32VW55X_Wifi_BLE_SDK/GD32VW55x_RELEASE_V1.0.2/MSDK/plf/GD32VW55x_standard_peripheral/Source\gd32vw55x_hau_sha_md5.c ****     \param[in]  in_length: length of the input buffer
 129:C:/Users/stapi/OneDrive/Desktop/GD32VW553/V1_MQTT_OK/GD32VW55X_Wifi_BLE_SDK/GD32VW55x_RELEASE_V1.0.2/MSDK/plf/GD32VW55x_standard_peripheral/Source\gd32vw55x_hau_sha_md5.c ****     \param[in]  output: the result digest
 130:C:/Users/stapi/OneDrive/Desktop/GD32VW553/V1_MQTT_OK/GD32VW55X_Wifi_BLE_SDK/GD32VW55x_RELEASE_V1.0.2/MSDK/plf/GD32VW55x_standard_peripheral/Source\gd32vw55x_hau_sha_md5.c ****     \param[out] none
 131:C:/Users/stapi/OneDrive/Desktop/GD32VW553/V1_MQTT_OK/GD32VW55X_Wifi_BLE_SDK/GD32VW55x_RELEASE_V1.0.2/MSDK/plf/GD32VW55x_standard_peripheral/Source\gd32vw55x_hau_sha_md5.c ****     \retval     ErrStatus: SUCCESS or ERROR
 132:C:/Users/stapi/OneDrive/Desktop/GD32VW553/V1_MQTT_OK/GD32VW55X_Wifi_BLE_SDK/GD32VW55x_RELEASE_V1.0.2/MSDK/plf/GD32VW55x_standard_peripheral/Source\gd32vw55x_hau_sha_md5.c **** */
 133:C:/Users/stapi/OneDrive/Desktop/GD32VW553/V1_MQTT_OK/GD32VW55X_Wifi_BLE_SDK/GD32VW55x_RELEASE_V1.0.2/MSDK/plf/GD32VW55x_standard_peripheral/Source\gd32vw55x_hau_sha_md5.c **** ErrStatus hau_hmac_sha_256(uint8_t *key, uint32_t keysize, uint8_t *input, uint32_t in_length, uint
 134:C:/Users/stapi/OneDrive/Desktop/GD32VW553/V1_MQTT_OK/GD32VW55X_Wifi_BLE_SDK/GD32VW55x_RELEASE_V1.0.2/MSDK/plf/GD32VW55x_standard_peripheral/Source\gd32vw55x_hau_sha_md5.c **** {
 135:C:/Users/stapi/OneDrive/Desktop/GD32VW553/V1_MQTT_OK/GD32VW55X_Wifi_BLE_SDK/GD32VW55x_RELEASE_V1.0.2/MSDK/plf/GD32VW55x_standard_peripheral/Source\gd32vw55x_hau_sha_md5.c ****     ErrStatus ret = ERROR;
 136:C:/Users/stapi/OneDrive/Desktop/GD32VW553/V1_MQTT_OK/GD32VW55X_Wifi_BLE_SDK/GD32VW55x_RELEASE_V1.0.2/MSDK/plf/GD32VW55x_standard_peripheral/Source\gd32vw55x_hau_sha_md5.c ****     ret = hau_hmac_calculate(HAU_ALGO_SHA256, key, keysize, input, in_length, output);
 137:C:/Users/stapi/OneDrive/Desktop/GD32VW553/V1_MQTT_OK/GD32VW55X_Wifi_BLE_SDK/GD32VW55x_RELEASE_V1.0.2/MSDK/plf/GD32VW55x_standard_peripheral/Source\gd32vw55x_hau_sha_md5.c ****     return ret;
 138:C:/Users/stapi/OneDrive/Desktop/GD32VW553/V1_MQTT_OK/GD32VW55X_Wifi_BLE_SDK/GD32VW55x_RELEASE_V1.0.2/MSDK/plf/GD32VW55x_standard_peripheral/Source\gd32vw55x_hau_sha_md5.c **** }
 139:C:/Users/stapi/OneDrive/Desktop/GD32VW553/V1_MQTT_OK/GD32VW55X_Wifi_BLE_SDK/GD32VW55x_RELEASE_V1.0.2/MSDK/plf/GD32VW55x_standard_peripheral/Source\gd32vw55x_hau_sha_md5.c **** 
 140:C:/Users/stapi/OneDrive/Desktop/GD32VW553/V1_MQTT_OK/GD32VW55X_Wifi_BLE_SDK/GD32VW55x_RELEASE_V1.0.2/MSDK/plf/GD32VW55x_standard_peripheral/Source\gd32vw55x_hau_sha_md5.c **** /*!
 141:C:/Users/stapi/OneDrive/Desktop/GD32VW553/V1_MQTT_OK/GD32VW55X_Wifi_BLE_SDK/GD32VW55x_RELEASE_V1.0.2/MSDK/plf/GD32VW55x_standard_peripheral/Source\gd32vw55x_hau_sha_md5.c ****     \brief      calculate digest using MD5 in HASH mode
 142:C:/Users/stapi/OneDrive/Desktop/GD32VW553/V1_MQTT_OK/GD32VW55X_Wifi_BLE_SDK/GD32VW55x_RELEASE_V1.0.2/MSDK/plf/GD32VW55x_standard_peripheral/Source\gd32vw55x_hau_sha_md5.c ****     \param[in]  input: pointer to the input buffer
 143:C:/Users/stapi/OneDrive/Desktop/GD32VW553/V1_MQTT_OK/GD32VW55X_Wifi_BLE_SDK/GD32VW55x_RELEASE_V1.0.2/MSDK/plf/GD32VW55x_standard_peripheral/Source\gd32vw55x_hau_sha_md5.c ****     \param[in]  in_length: length of the input buffer
 144:C:/Users/stapi/OneDrive/Desktop/GD32VW553/V1_MQTT_OK/GD32VW55X_Wifi_BLE_SDK/GD32VW55x_RELEASE_V1.0.2/MSDK/plf/GD32VW55x_standard_peripheral/Source\gd32vw55x_hau_sha_md5.c ****     \param[in]  output: the result digest
 145:C:/Users/stapi/OneDrive/Desktop/GD32VW553/V1_MQTT_OK/GD32VW55X_Wifi_BLE_SDK/GD32VW55x_RELEASE_V1.0.2/MSDK/plf/GD32VW55x_standard_peripheral/Source\gd32vw55x_hau_sha_md5.c ****     \param[out] none
 146:C:/Users/stapi/OneDrive/Desktop/GD32VW553/V1_MQTT_OK/GD32VW55X_Wifi_BLE_SDK/GD32VW55x_RELEASE_V1.0.2/MSDK/plf/GD32VW55x_standard_peripheral/Source\gd32vw55x_hau_sha_md5.c ****     \retval     ErrStatus: SUCCESS or ERROR
 147:C:/Users/stapi/OneDrive/Desktop/GD32VW553/V1_MQTT_OK/GD32VW55X_Wifi_BLE_SDK/GD32VW55x_RELEASE_V1.0.2/MSDK/plf/GD32VW55x_standard_peripheral/Source\gd32vw55x_hau_sha_md5.c **** */
 148:C:/Users/stapi/OneDrive/Desktop/GD32VW553/V1_MQTT_OK/GD32VW55X_Wifi_BLE_SDK/GD32VW55x_RELEASE_V1.0.2/MSDK/plf/GD32VW55x_standard_peripheral/Source\gd32vw55x_hau_sha_md5.c **** ErrStatus hau_hash_md5(uint8_t *input, uint32_t in_length, uint8_t output[16])
 149:C:/Users/stapi/OneDrive/Desktop/GD32VW553/V1_MQTT_OK/GD32VW55X_Wifi_BLE_SDK/GD32VW55x_RELEASE_V1.0.2/MSDK/plf/GD32VW55x_standard_peripheral/Source\gd32vw55x_hau_sha_md5.c **** {
 150:C:/Users/stapi/OneDrive/Desktop/GD32VW553/V1_MQTT_OK/GD32VW55X_Wifi_BLE_SDK/GD32VW55x_RELEASE_V1.0.2/MSDK/plf/GD32VW55x_standard_peripheral/Source\gd32vw55x_hau_sha_md5.c ****     ErrStatus ret = ERROR;
 151:C:/Users/stapi/OneDrive/Desktop/GD32VW553/V1_MQTT_OK/GD32VW55X_Wifi_BLE_SDK/GD32VW55x_RELEASE_V1.0.2/MSDK/plf/GD32VW55x_standard_peripheral/Source\gd32vw55x_hau_sha_md5.c ****     ret = hau_hash_calculate(HAU_ALGO_MD5, input, in_length, output);
 152:C:/Users/stapi/OneDrive/Desktop/GD32VW553/V1_MQTT_OK/GD32VW55X_Wifi_BLE_SDK/GD32VW55x_RELEASE_V1.0.2/MSDK/plf/GD32VW55x_standard_peripheral/Source\gd32vw55x_hau_sha_md5.c ****     return ret;
 153:C:/Users/stapi/OneDrive/Desktop/GD32VW553/V1_MQTT_OK/GD32VW55X_Wifi_BLE_SDK/GD32VW55x_RELEASE_V1.0.2/MSDK/plf/GD32VW55x_standard_peripheral/Source\gd32vw55x_hau_sha_md5.c **** }
 154:C:/Users/stapi/OneDrive/Desktop/GD32VW553/V1_MQTT_OK/GD32VW55X_Wifi_BLE_SDK/GD32VW55x_RELEASE_V1.0.2/MSDK/plf/GD32VW55x_standard_peripheral/Source\gd32vw55x_hau_sha_md5.c **** 
 155:C:/Users/stapi/OneDrive/Desktop/GD32VW553/V1_MQTT_OK/GD32VW55X_Wifi_BLE_SDK/GD32VW55x_RELEASE_V1.0.2/MSDK/plf/GD32VW55x_standard_peripheral/Source\gd32vw55x_hau_sha_md5.c **** /*!
 156:C:/Users/stapi/OneDrive/Desktop/GD32VW553/V1_MQTT_OK/GD32VW55X_Wifi_BLE_SDK/GD32VW55x_RELEASE_V1.0.2/MSDK/plf/GD32VW55x_standard_peripheral/Source\gd32vw55x_hau_sha_md5.c ****     \brief      calculate digest using MD5 in HMAC mode
 157:C:/Users/stapi/OneDrive/Desktop/GD32VW553/V1_MQTT_OK/GD32VW55X_Wifi_BLE_SDK/GD32VW55x_RELEASE_V1.0.2/MSDK/plf/GD32VW55x_standard_peripheral/Source\gd32vw55x_hau_sha_md5.c ****     \param[in]  key: pointer to the key used for HMAC
 158:C:/Users/stapi/OneDrive/Desktop/GD32VW553/V1_MQTT_OK/GD32VW55X_Wifi_BLE_SDK/GD32VW55x_RELEASE_V1.0.2/MSDK/plf/GD32VW55x_standard_peripheral/Source\gd32vw55x_hau_sha_md5.c ****     \param[in]  keysize: length of the key used for HMAC
 159:C:/Users/stapi/OneDrive/Desktop/GD32VW553/V1_MQTT_OK/GD32VW55X_Wifi_BLE_SDK/GD32VW55x_RELEASE_V1.0.2/MSDK/plf/GD32VW55x_standard_peripheral/Source\gd32vw55x_hau_sha_md5.c ****     \param[in]  input: pointer to the input buffer
 160:C:/Users/stapi/OneDrive/Desktop/GD32VW553/V1_MQTT_OK/GD32VW55X_Wifi_BLE_SDK/GD32VW55x_RELEASE_V1.0.2/MSDK/plf/GD32VW55x_standard_peripheral/Source\gd32vw55x_hau_sha_md5.c ****     \param[in]  in_length: length of the input buffer
 161:C:/Users/stapi/OneDrive/Desktop/GD32VW553/V1_MQTT_OK/GD32VW55X_Wifi_BLE_SDK/GD32VW55x_RELEASE_V1.0.2/MSDK/plf/GD32VW55x_standard_peripheral/Source\gd32vw55x_hau_sha_md5.c ****     \param[in]  output: the result digest
 162:C:/Users/stapi/OneDrive/Desktop/GD32VW553/V1_MQTT_OK/GD32VW55X_Wifi_BLE_SDK/GD32VW55x_RELEASE_V1.0.2/MSDK/plf/GD32VW55x_standard_peripheral/Source\gd32vw55x_hau_sha_md5.c ****     \param[out] none
 163:C:/Users/stapi/OneDrive/Desktop/GD32VW553/V1_MQTT_OK/GD32VW55X_Wifi_BLE_SDK/GD32VW55x_RELEASE_V1.0.2/MSDK/plf/GD32VW55x_standard_peripheral/Source\gd32vw55x_hau_sha_md5.c ****     \retval     ErrStatus: SUCCESS or ERROR
 164:C:/Users/stapi/OneDrive/Desktop/GD32VW553/V1_MQTT_OK/GD32VW55X_Wifi_BLE_SDK/GD32VW55x_RELEASE_V1.0.2/MSDK/plf/GD32VW55x_standard_peripheral/Source\gd32vw55x_hau_sha_md5.c **** */
 165:C:/Users/stapi/OneDrive/Desktop/GD32VW553/V1_MQTT_OK/GD32VW55X_Wifi_BLE_SDK/GD32VW55x_RELEASE_V1.0.2/MSDK/plf/GD32VW55x_standard_peripheral/Source\gd32vw55x_hau_sha_md5.c **** ErrStatus hau_hmac_md5(uint8_t *key, uint32_t keysize, uint8_t *input, uint32_t in_length, uint8_t 
 166:C:/Users/stapi/OneDrive/Desktop/GD32VW553/V1_MQTT_OK/GD32VW55X_Wifi_BLE_SDK/GD32VW55x_RELEASE_V1.0.2/MSDK/plf/GD32VW55x_standard_peripheral/Source\gd32vw55x_hau_sha_md5.c **** {
 167:C:/Users/stapi/OneDrive/Desktop/GD32VW553/V1_MQTT_OK/GD32VW55X_Wifi_BLE_SDK/GD32VW55x_RELEASE_V1.0.2/MSDK/plf/GD32VW55x_standard_peripheral/Source\gd32vw55x_hau_sha_md5.c ****     ErrStatus ret = ERROR;
 168:C:/Users/stapi/OneDrive/Desktop/GD32VW553/V1_MQTT_OK/GD32VW55X_Wifi_BLE_SDK/GD32VW55x_RELEASE_V1.0.2/MSDK/plf/GD32VW55x_standard_peripheral/Source\gd32vw55x_hau_sha_md5.c ****     ret = hau_hmac_calculate(HAU_ALGO_MD5, key, keysize, input, in_length, output);
 169:C:/Users/stapi/OneDrive/Desktop/GD32VW553/V1_MQTT_OK/GD32VW55X_Wifi_BLE_SDK/GD32VW55x_RELEASE_V1.0.2/MSDK/plf/GD32VW55x_standard_peripheral/Source\gd32vw55x_hau_sha_md5.c ****     return ret;
 170:C:/Users/stapi/OneDrive/Desktop/GD32VW553/V1_MQTT_OK/GD32VW55X_Wifi_BLE_SDK/GD32VW55x_RELEASE_V1.0.2/MSDK/plf/GD32VW55x_standard_peripheral/Source\gd32vw55x_hau_sha_md5.c **** }
 171:C:/Users/stapi/OneDrive/Desktop/GD32VW553/V1_MQTT_OK/GD32VW55X_Wifi_BLE_SDK/GD32VW55x_RELEASE_V1.0.2/MSDK/plf/GD32VW55x_standard_peripheral/Source\gd32vw55x_hau_sha_md5.c **** 
 172:C:/Users/stapi/OneDrive/Desktop/GD32VW553/V1_MQTT_OK/GD32VW55X_Wifi_BLE_SDK/GD32VW55x_RELEASE_V1.0.2/MSDK/plf/GD32VW55x_standard_peripheral/Source\gd32vw55x_hau_sha_md5.c **** /*!
 173:C:/Users/stapi/OneDrive/Desktop/GD32VW553/V1_MQTT_OK/GD32VW55X_Wifi_BLE_SDK/GD32VW55x_RELEASE_V1.0.2/MSDK/plf/GD32VW55x_standard_peripheral/Source\gd32vw55x_hau_sha_md5.c ****     \brief      HAU SHA/MD5 digest read
 174:C:/Users/stapi/OneDrive/Desktop/GD32VW553/V1_MQTT_OK/GD32VW55X_Wifi_BLE_SDK/GD32VW55x_RELEASE_V1.0.2/MSDK/plf/GD32VW55x_standard_peripheral/Source\gd32vw55x_hau_sha_md5.c ****     \param[in]  algo: algorithm selection
 175:C:/Users/stapi/OneDrive/Desktop/GD32VW553/V1_MQTT_OK/GD32VW55X_Wifi_BLE_SDK/GD32VW55x_RELEASE_V1.0.2/MSDK/plf/GD32VW55x_standard_peripheral/Source\gd32vw55x_hau_sha_md5.c ****     \param[out] output: the result digest
 176:C:/Users/stapi/OneDrive/Desktop/GD32VW553/V1_MQTT_OK/GD32VW55X_Wifi_BLE_SDK/GD32VW55x_RELEASE_V1.0.2/MSDK/plf/GD32VW55x_standard_peripheral/Source\gd32vw55x_hau_sha_md5.c ****     \retval     none
 177:C:/Users/stapi/OneDrive/Desktop/GD32VW553/V1_MQTT_OK/GD32VW55X_Wifi_BLE_SDK/GD32VW55x_RELEASE_V1.0.2/MSDK/plf/GD32VW55x_standard_peripheral/Source\gd32vw55x_hau_sha_md5.c **** */
 178:C:/Users/stapi/OneDrive/Desktop/GD32VW553/V1_MQTT_OK/GD32VW55X_Wifi_BLE_SDK/GD32VW55x_RELEASE_V1.0.2/MSDK/plf/GD32VW55x_standard_peripheral/Source\gd32vw55x_hau_sha_md5.c **** void hau_sha_md5_digest_read(uint32_t algo, uint8_t *output)
 179:C:/Users/stapi/OneDrive/Desktop/GD32VW553/V1_MQTT_OK/GD32VW55X_Wifi_BLE_SDK/GD32VW55x_RELEASE_V1.0.2/MSDK/plf/GD32VW55x_standard_peripheral/Source\gd32vw55x_hau_sha_md5.c **** {
  16              		.loc 1 179 1
  17              		.cfi_startproc
  18              	.LVL0:
  19 0000 17030000 		call	t0,__riscv_save_1
  19      E7020300 
  20              		.cfi_offset 8, -8
  21              		.cfi_offset 1, -4
  22              		.cfi_def_cfa_offset 16
 180:C:/Users/stapi/OneDrive/Desktop/GD32VW553/V1_MQTT_OK/GD32VW55X_Wifi_BLE_SDK/GD32VW55x_RELEASE_V1.0.2/MSDK/plf/GD32VW55x_standard_peripheral/Source\gd32vw55x_hau_sha_md5.c ****     hau_digest_parameter_struct digest_para;
  23              		.loc 1 180 5
 181:C:/Users/stapi/OneDrive/Desktop/GD32VW553/V1_MQTT_OK/GD32VW55X_Wifi_BLE_SDK/GD32VW55x_RELEASE_V1.0.2/MSDK/plf/GD32VW55x_standard_peripheral/Source\gd32vw55x_hau_sha_md5.c ****     uint32_t outputaddr = (uint32_t)output;
  24              		.loc 1 181 5
  25              	.LVL1:
 182:C:/Users/stapi/OneDrive/Desktop/GD32VW553/V1_MQTT_OK/GD32VW55X_Wifi_BLE_SDK/GD32VW55x_RELEASE_V1.0.2/MSDK/plf/GD32VW55x_standard_peripheral/Source\gd32vw55x_hau_sha_md5.c **** 
 183:C:/Users/stapi/OneDrive/Desktop/GD32VW553/V1_MQTT_OK/GD32VW55X_Wifi_BLE_SDK/GD32VW55x_RELEASE_V1.0.2/MSDK/plf/GD32VW55x_standard_peripheral/Source\gd32vw55x_hau_sha_md5.c ****     switch(algo){
  26              		.loc 1 183 5
  27 0008 B7070400 		li	a5,262144
 179:C:/Users/stapi/OneDrive/Desktop/GD32VW553/V1_MQTT_OK/GD32VW55X_Wifi_BLE_SDK/GD32VW55x_RELEASE_V1.0.2/MSDK/plf/GD32VW55x_standard_peripheral/Source\gd32vw55x_hau_sha_md5.c ****     hau_digest_parameter_struct digest_para;
  28              		.loc 1 179 1 is_stmt 0
  29 000c 0111     		addi	sp,sp,-32
  30              		.cfi_def_cfa_offset 48
 179:C:/Users/stapi/OneDrive/Desktop/GD32VW553/V1_MQTT_OK/GD32VW55X_Wifi_BLE_SDK/GD32VW55x_RELEASE_V1.0.2/MSDK/plf/GD32VW55x_standard_peripheral/Source\gd32vw55x_hau_sha_md5.c ****     hau_digest_parameter_struct digest_para;
  31              		.loc 1 179 1
  32 000e 2E84     		mv	s0,a1
  33              		.loc 1 183 5
  34 0010 6302F50A 		beq	a0,a5,.L2
  35 0014 63ECA700 		bgtu	a0,a5,.L3
  36 0018 25C5     		beq	a0,zero,.L4
  37 001a 93070008 		li	a5,128
  38 001e 630DF50C 		beq	a0,a5,.L5
  39              	.LVL2:
  40              	.L1:
 184:C:/Users/stapi/OneDrive/Desktop/GD32VW553/V1_MQTT_OK/GD32VW55X_Wifi_BLE_SDK/GD32VW55x_RELEASE_V1.0.2/MSDK/plf/GD32VW55x_standard_peripheral/Source\gd32vw55x_hau_sha_md5.c ****     case HAU_ALGO_SHA1:
 185:C:/Users/stapi/OneDrive/Desktop/GD32VW553/V1_MQTT_OK/GD32VW55X_Wifi_BLE_SDK/GD32VW55x_RELEASE_V1.0.2/MSDK/plf/GD32VW55x_standard_peripheral/Source\gd32vw55x_hau_sha_md5.c ****         hau_digest_read(&digest_para);
 186:C:/Users/stapi/OneDrive/Desktop/GD32VW553/V1_MQTT_OK/GD32VW55X_Wifi_BLE_SDK/GD32VW55x_RELEASE_V1.0.2/MSDK/plf/GD32VW55x_standard_peripheral/Source\gd32vw55x_hau_sha_md5.c ****         *(uint32_t*)(outputaddr)  = __REV(digest_para.out[0]);
 187:C:/Users/stapi/OneDrive/Desktop/GD32VW553/V1_MQTT_OK/GD32VW55X_Wifi_BLE_SDK/GD32VW55x_RELEASE_V1.0.2/MSDK/plf/GD32VW55x_standard_peripheral/Source\gd32vw55x_hau_sha_md5.c ****         outputaddr += 4U;
 188:C:/Users/stapi/OneDrive/Desktop/GD32VW553/V1_MQTT_OK/GD32VW55X_Wifi_BLE_SDK/GD32VW55x_RELEASE_V1.0.2/MSDK/plf/GD32VW55x_standard_peripheral/Source\gd32vw55x_hau_sha_md5.c ****         *(uint32_t*)(outputaddr)  = __REV(digest_para.out[1]);
 189:C:/Users/stapi/OneDrive/Desktop/GD32VW553/V1_MQTT_OK/GD32VW55X_Wifi_BLE_SDK/GD32VW55x_RELEASE_V1.0.2/MSDK/plf/GD32VW55x_standard_peripheral/Source\gd32vw55x_hau_sha_md5.c ****         outputaddr += 4U;
 190:C:/Users/stapi/OneDrive/Desktop/GD32VW553/V1_MQTT_OK/GD32VW55X_Wifi_BLE_SDK/GD32VW55x_RELEASE_V1.0.2/MSDK/plf/GD32VW55x_standard_peripheral/Source\gd32vw55x_hau_sha_md5.c ****         *(uint32_t*)(outputaddr)  = __REV(digest_para.out[2]);
 191:C:/Users/stapi/OneDrive/Desktop/GD32VW553/V1_MQTT_OK/GD32VW55X_Wifi_BLE_SDK/GD32VW55x_RELEASE_V1.0.2/MSDK/plf/GD32VW55x_standard_peripheral/Source\gd32vw55x_hau_sha_md5.c ****         outputaddr += 4U;
 192:C:/Users/stapi/OneDrive/Desktop/GD32VW553/V1_MQTT_OK/GD32VW55X_Wifi_BLE_SDK/GD32VW55x_RELEASE_V1.0.2/MSDK/plf/GD32VW55x_standard_peripheral/Source\gd32vw55x_hau_sha_md5.c ****         *(uint32_t*)(outputaddr)  = __REV(digest_para.out[3]);
 193:C:/Users/stapi/OneDrive/Desktop/GD32VW553/V1_MQTT_OK/GD32VW55X_Wifi_BLE_SDK/GD32VW55x_RELEASE_V1.0.2/MSDK/plf/GD32VW55x_standard_peripheral/Source\gd32vw55x_hau_sha_md5.c ****         outputaddr += 4U;
 194:C:/Users/stapi/OneDrive/Desktop/GD32VW553/V1_MQTT_OK/GD32VW55X_Wifi_BLE_SDK/GD32VW55x_RELEASE_V1.0.2/MSDK/plf/GD32VW55x_standard_peripheral/Source\gd32vw55x_hau_sha_md5.c ****         *(uint32_t*)(outputaddr)  = __REV(digest_para.out[4]);
 195:C:/Users/stapi/OneDrive/Desktop/GD32VW553/V1_MQTT_OK/GD32VW55X_Wifi_BLE_SDK/GD32VW55x_RELEASE_V1.0.2/MSDK/plf/GD32VW55x_standard_peripheral/Source\gd32vw55x_hau_sha_md5.c ****         break;
 196:C:/Users/stapi/OneDrive/Desktop/GD32VW553/V1_MQTT_OK/GD32VW55X_Wifi_BLE_SDK/GD32VW55x_RELEASE_V1.0.2/MSDK/plf/GD32VW55x_standard_peripheral/Source\gd32vw55x_hau_sha_md5.c ****     case HAU_ALGO_SHA224:
 197:C:/Users/stapi/OneDrive/Desktop/GD32VW553/V1_MQTT_OK/GD32VW55X_Wifi_BLE_SDK/GD32VW55x_RELEASE_V1.0.2/MSDK/plf/GD32VW55x_standard_peripheral/Source\gd32vw55x_hau_sha_md5.c ****         hau_digest_read(&digest_para);
 198:C:/Users/stapi/OneDrive/Desktop/GD32VW553/V1_MQTT_OK/GD32VW55X_Wifi_BLE_SDK/GD32VW55x_RELEASE_V1.0.2/MSDK/plf/GD32VW55x_standard_peripheral/Source\gd32vw55x_hau_sha_md5.c ****         *(uint32_t*)(outputaddr)  = __REV(digest_para.out[0]);
 199:C:/Users/stapi/OneDrive/Desktop/GD32VW553/V1_MQTT_OK/GD32VW55X_Wifi_BLE_SDK/GD32VW55x_RELEASE_V1.0.2/MSDK/plf/GD32VW55x_standard_peripheral/Source\gd32vw55x_hau_sha_md5.c ****         outputaddr += 4U;
 200:C:/Users/stapi/OneDrive/Desktop/GD32VW553/V1_MQTT_OK/GD32VW55X_Wifi_BLE_SDK/GD32VW55x_RELEASE_V1.0.2/MSDK/plf/GD32VW55x_standard_peripheral/Source\gd32vw55x_hau_sha_md5.c ****         *(uint32_t*)(outputaddr)  = __REV(digest_para.out[1]);
 201:C:/Users/stapi/OneDrive/Desktop/GD32VW553/V1_MQTT_OK/GD32VW55X_Wifi_BLE_SDK/GD32VW55x_RELEASE_V1.0.2/MSDK/plf/GD32VW55x_standard_peripheral/Source\gd32vw55x_hau_sha_md5.c ****         outputaddr += 4U;
 202:C:/Users/stapi/OneDrive/Desktop/GD32VW553/V1_MQTT_OK/GD32VW55X_Wifi_BLE_SDK/GD32VW55x_RELEASE_V1.0.2/MSDK/plf/GD32VW55x_standard_peripheral/Source\gd32vw55x_hau_sha_md5.c ****         *(uint32_t*)(outputaddr)  = __REV(digest_para.out[2]);
 203:C:/Users/stapi/OneDrive/Desktop/GD32VW553/V1_MQTT_OK/GD32VW55X_Wifi_BLE_SDK/GD32VW55x_RELEASE_V1.0.2/MSDK/plf/GD32VW55x_standard_peripheral/Source\gd32vw55x_hau_sha_md5.c ****         outputaddr += 4U;
 204:C:/Users/stapi/OneDrive/Desktop/GD32VW553/V1_MQTT_OK/GD32VW55X_Wifi_BLE_SDK/GD32VW55x_RELEASE_V1.0.2/MSDK/plf/GD32VW55x_standard_peripheral/Source\gd32vw55x_hau_sha_md5.c ****         *(uint32_t*)(outputaddr)  = __REV(digest_para.out[3]);
 205:C:/Users/stapi/OneDrive/Desktop/GD32VW553/V1_MQTT_OK/GD32VW55X_Wifi_BLE_SDK/GD32VW55x_RELEASE_V1.0.2/MSDK/plf/GD32VW55x_standard_peripheral/Source\gd32vw55x_hau_sha_md5.c ****         outputaddr += 4U;
 206:C:/Users/stapi/OneDrive/Desktop/GD32VW553/V1_MQTT_OK/GD32VW55X_Wifi_BLE_SDK/GD32VW55x_RELEASE_V1.0.2/MSDK/plf/GD32VW55x_standard_peripheral/Source\gd32vw55x_hau_sha_md5.c ****         *(uint32_t*)(outputaddr)  = __REV(digest_para.out[4]);
 207:C:/Users/stapi/OneDrive/Desktop/GD32VW553/V1_MQTT_OK/GD32VW55X_Wifi_BLE_SDK/GD32VW55x_RELEASE_V1.0.2/MSDK/plf/GD32VW55x_standard_peripheral/Source\gd32vw55x_hau_sha_md5.c ****         outputaddr += 4U;
 208:C:/Users/stapi/OneDrive/Desktop/GD32VW553/V1_MQTT_OK/GD32VW55X_Wifi_BLE_SDK/GD32VW55x_RELEASE_V1.0.2/MSDK/plf/GD32VW55x_standard_peripheral/Source\gd32vw55x_hau_sha_md5.c ****         *(uint32_t*)(outputaddr)  = __REV(digest_para.out[5]);
 209:C:/Users/stapi/OneDrive/Desktop/GD32VW553/V1_MQTT_OK/GD32VW55X_Wifi_BLE_SDK/GD32VW55x_RELEASE_V1.0.2/MSDK/plf/GD32VW55x_standard_peripheral/Source\gd32vw55x_hau_sha_md5.c ****         outputaddr += 4U;
 210:C:/Users/stapi/OneDrive/Desktop/GD32VW553/V1_MQTT_OK/GD32VW55X_Wifi_BLE_SDK/GD32VW55x_RELEASE_V1.0.2/MSDK/plf/GD32VW55x_standard_peripheral/Source\gd32vw55x_hau_sha_md5.c ****         *(uint32_t*)(outputaddr)  = __REV(digest_para.out[6]);
 211:C:/Users/stapi/OneDrive/Desktop/GD32VW553/V1_MQTT_OK/GD32VW55X_Wifi_BLE_SDK/GD32VW55x_RELEASE_V1.0.2/MSDK/plf/GD32VW55x_standard_peripheral/Source\gd32vw55x_hau_sha_md5.c ****         break;
 212:C:/Users/stapi/OneDrive/Desktop/GD32VW553/V1_MQTT_OK/GD32VW55X_Wifi_BLE_SDK/GD32VW55x_RELEASE_V1.0.2/MSDK/plf/GD32VW55x_standard_peripheral/Source\gd32vw55x_hau_sha_md5.c ****     case HAU_ALGO_SHA256:
 213:C:/Users/stapi/OneDrive/Desktop/GD32VW553/V1_MQTT_OK/GD32VW55X_Wifi_BLE_SDK/GD32VW55x_RELEASE_V1.0.2/MSDK/plf/GD32VW55x_standard_peripheral/Source\gd32vw55x_hau_sha_md5.c ****         hau_digest_read(&digest_para);
 214:C:/Users/stapi/OneDrive/Desktop/GD32VW553/V1_MQTT_OK/GD32VW55X_Wifi_BLE_SDK/GD32VW55x_RELEASE_V1.0.2/MSDK/plf/GD32VW55x_standard_peripheral/Source\gd32vw55x_hau_sha_md5.c ****         *(uint32_t*)(outputaddr)  = __REV(digest_para.out[0]);
 215:C:/Users/stapi/OneDrive/Desktop/GD32VW553/V1_MQTT_OK/GD32VW55X_Wifi_BLE_SDK/GD32VW55x_RELEASE_V1.0.2/MSDK/plf/GD32VW55x_standard_peripheral/Source\gd32vw55x_hau_sha_md5.c ****         outputaddr += 4U;
 216:C:/Users/stapi/OneDrive/Desktop/GD32VW553/V1_MQTT_OK/GD32VW55X_Wifi_BLE_SDK/GD32VW55x_RELEASE_V1.0.2/MSDK/plf/GD32VW55x_standard_peripheral/Source\gd32vw55x_hau_sha_md5.c ****         *(uint32_t*)(outputaddr)  = __REV(digest_para.out[1]);
 217:C:/Users/stapi/OneDrive/Desktop/GD32VW553/V1_MQTT_OK/GD32VW55X_Wifi_BLE_SDK/GD32VW55x_RELEASE_V1.0.2/MSDK/plf/GD32VW55x_standard_peripheral/Source\gd32vw55x_hau_sha_md5.c ****         outputaddr += 4U;
 218:C:/Users/stapi/OneDrive/Desktop/GD32VW553/V1_MQTT_OK/GD32VW55X_Wifi_BLE_SDK/GD32VW55x_RELEASE_V1.0.2/MSDK/plf/GD32VW55x_standard_peripheral/Source\gd32vw55x_hau_sha_md5.c ****         *(uint32_t*)(outputaddr)  = __REV(digest_para.out[2]);
 219:C:/Users/stapi/OneDrive/Desktop/GD32VW553/V1_MQTT_OK/GD32VW55X_Wifi_BLE_SDK/GD32VW55x_RELEASE_V1.0.2/MSDK/plf/GD32VW55x_standard_peripheral/Source\gd32vw55x_hau_sha_md5.c ****         outputaddr += 4U;
 220:C:/Users/stapi/OneDrive/Desktop/GD32VW553/V1_MQTT_OK/GD32VW55X_Wifi_BLE_SDK/GD32VW55x_RELEASE_V1.0.2/MSDK/plf/GD32VW55x_standard_peripheral/Source\gd32vw55x_hau_sha_md5.c ****         *(uint32_t*)(outputaddr)  = __REV(digest_para.out[3]);
 221:C:/Users/stapi/OneDrive/Desktop/GD32VW553/V1_MQTT_OK/GD32VW55X_Wifi_BLE_SDK/GD32VW55x_RELEASE_V1.0.2/MSDK/plf/GD32VW55x_standard_peripheral/Source\gd32vw55x_hau_sha_md5.c ****         outputaddr += 4U;
 222:C:/Users/stapi/OneDrive/Desktop/GD32VW553/V1_MQTT_OK/GD32VW55X_Wifi_BLE_SDK/GD32VW55x_RELEASE_V1.0.2/MSDK/plf/GD32VW55x_standard_peripheral/Source\gd32vw55x_hau_sha_md5.c ****         *(uint32_t*)(outputaddr)  = __REV(digest_para.out[4]);
 223:C:/Users/stapi/OneDrive/Desktop/GD32VW553/V1_MQTT_OK/GD32VW55X_Wifi_BLE_SDK/GD32VW55x_RELEASE_V1.0.2/MSDK/plf/GD32VW55x_standard_peripheral/Source\gd32vw55x_hau_sha_md5.c ****         outputaddr += 4U;
 224:C:/Users/stapi/OneDrive/Desktop/GD32VW553/V1_MQTT_OK/GD32VW55X_Wifi_BLE_SDK/GD32VW55x_RELEASE_V1.0.2/MSDK/plf/GD32VW55x_standard_peripheral/Source\gd32vw55x_hau_sha_md5.c ****         *(uint32_t*)(outputaddr)  = __REV(digest_para.out[5]);
 225:C:/Users/stapi/OneDrive/Desktop/GD32VW553/V1_MQTT_OK/GD32VW55X_Wifi_BLE_SDK/GD32VW55x_RELEASE_V1.0.2/MSDK/plf/GD32VW55x_standard_peripheral/Source\gd32vw55x_hau_sha_md5.c ****         outputaddr += 4U;
 226:C:/Users/stapi/OneDrive/Desktop/GD32VW553/V1_MQTT_OK/GD32VW55X_Wifi_BLE_SDK/GD32VW55x_RELEASE_V1.0.2/MSDK/plf/GD32VW55x_standard_peripheral/Source\gd32vw55x_hau_sha_md5.c ****         *(uint32_t*)(outputaddr)  = __REV(digest_para.out[6]);
 227:C:/Users/stapi/OneDrive/Desktop/GD32VW553/V1_MQTT_OK/GD32VW55X_Wifi_BLE_SDK/GD32VW55x_RELEASE_V1.0.2/MSDK/plf/GD32VW55x_standard_peripheral/Source\gd32vw55x_hau_sha_md5.c ****         outputaddr += 4U;
 228:C:/Users/stapi/OneDrive/Desktop/GD32VW553/V1_MQTT_OK/GD32VW55X_Wifi_BLE_SDK/GD32VW55x_RELEASE_V1.0.2/MSDK/plf/GD32VW55x_standard_peripheral/Source\gd32vw55x_hau_sha_md5.c ****         *(uint32_t*)(outputaddr)  = __REV(digest_para.out[7]);
 229:C:/Users/stapi/OneDrive/Desktop/GD32VW553/V1_MQTT_OK/GD32VW55X_Wifi_BLE_SDK/GD32VW55x_RELEASE_V1.0.2/MSDK/plf/GD32VW55x_standard_peripheral/Source\gd32vw55x_hau_sha_md5.c ****         break;
 230:C:/Users/stapi/OneDrive/Desktop/GD32VW553/V1_MQTT_OK/GD32VW55X_Wifi_BLE_SDK/GD32VW55x_RELEASE_V1.0.2/MSDK/plf/GD32VW55x_standard_peripheral/Source\gd32vw55x_hau_sha_md5.c ****     case HAU_ALGO_MD5:
 231:C:/Users/stapi/OneDrive/Desktop/GD32VW553/V1_MQTT_OK/GD32VW55X_Wifi_BLE_SDK/GD32VW55x_RELEASE_V1.0.2/MSDK/plf/GD32VW55x_standard_peripheral/Source\gd32vw55x_hau_sha_md5.c ****         hau_digest_read(&digest_para);
 232:C:/Users/stapi/OneDrive/Desktop/GD32VW553/V1_MQTT_OK/GD32VW55X_Wifi_BLE_SDK/GD32VW55x_RELEASE_V1.0.2/MSDK/plf/GD32VW55x_standard_peripheral/Source\gd32vw55x_hau_sha_md5.c ****         *(uint32_t*)(outputaddr)  = __REV(digest_para.out[0]);
 233:C:/Users/stapi/OneDrive/Desktop/GD32VW553/V1_MQTT_OK/GD32VW55X_Wifi_BLE_SDK/GD32VW55x_RELEASE_V1.0.2/MSDK/plf/GD32VW55x_standard_peripheral/Source\gd32vw55x_hau_sha_md5.c ****         outputaddr += 4U;
 234:C:/Users/stapi/OneDrive/Desktop/GD32VW553/V1_MQTT_OK/GD32VW55X_Wifi_BLE_SDK/GD32VW55x_RELEASE_V1.0.2/MSDK/plf/GD32VW55x_standard_peripheral/Source\gd32vw55x_hau_sha_md5.c ****         *(uint32_t*)(outputaddr)  = __REV(digest_para.out[1]);
 235:C:/Users/stapi/OneDrive/Desktop/GD32VW553/V1_MQTT_OK/GD32VW55X_Wifi_BLE_SDK/GD32VW55x_RELEASE_V1.0.2/MSDK/plf/GD32VW55x_standard_peripheral/Source\gd32vw55x_hau_sha_md5.c ****         outputaddr += 4U;
 236:C:/Users/stapi/OneDrive/Desktop/GD32VW553/V1_MQTT_OK/GD32VW55X_Wifi_BLE_SDK/GD32VW55x_RELEASE_V1.0.2/MSDK/plf/GD32VW55x_standard_peripheral/Source\gd32vw55x_hau_sha_md5.c ****         *(uint32_t*)(outputaddr)  = __REV(digest_para.out[2]);
 237:C:/Users/stapi/OneDrive/Desktop/GD32VW553/V1_MQTT_OK/GD32VW55X_Wifi_BLE_SDK/GD32VW55x_RELEASE_V1.0.2/MSDK/plf/GD32VW55x_standard_peripheral/Source\gd32vw55x_hau_sha_md5.c ****         outputaddr += 4U;
 238:C:/Users/stapi/OneDrive/Desktop/GD32VW553/V1_MQTT_OK/GD32VW55X_Wifi_BLE_SDK/GD32VW55x_RELEASE_V1.0.2/MSDK/plf/GD32VW55x_standard_peripheral/Source\gd32vw55x_hau_sha_md5.c ****         *(uint32_t*)(outputaddr)  = __REV(digest_para.out[3]);
 239:C:/Users/stapi/OneDrive/Desktop/GD32VW553/V1_MQTT_OK/GD32VW55X_Wifi_BLE_SDK/GD32VW55x_RELEASE_V1.0.2/MSDK/plf/GD32VW55x_standard_peripheral/Source\gd32vw55x_hau_sha_md5.c ****         break;
 240:C:/Users/stapi/OneDrive/Desktop/GD32VW553/V1_MQTT_OK/GD32VW55X_Wifi_BLE_SDK/GD32VW55x_RELEASE_V1.0.2/MSDK/plf/GD32VW55x_standard_peripheral/Source\gd32vw55x_hau_sha_md5.c ****     default:
 241:C:/Users/stapi/OneDrive/Desktop/GD32VW553/V1_MQTT_OK/GD32VW55X_Wifi_BLE_SDK/GD32VW55x_RELEASE_V1.0.2/MSDK/plf/GD32VW55x_standard_peripheral/Source\gd32vw55x_hau_sha_md5.c ****         break;
 242:C:/Users/stapi/OneDrive/Desktop/GD32VW553/V1_MQTT_OK/GD32VW55X_Wifi_BLE_SDK/GD32VW55x_RELEASE_V1.0.2/MSDK/plf/GD32VW55x_standard_peripheral/Source\gd32vw55x_hau_sha_md5.c ****     }
 243:C:/Users/stapi/OneDrive/Desktop/GD32VW553/V1_MQTT_OK/GD32VW55X_Wifi_BLE_SDK/GD32VW55x_RELEASE_V1.0.2/MSDK/plf/GD32VW55x_standard_peripheral/Source\gd32vw55x_hau_sha_md5.c **** }
  41              		.loc 1 243 1
  42 0022 0561     		addi	sp,sp,32
  43              		.cfi_remember_state
  44              		.cfi_def_cfa_offset 0
  45 0024 17030000 		tail	__riscv_restore_1
  45      67000300 
  46              		.cfi_restore 8
  47              		.cfi_restore 1
  48              		.cfi_def_cfa_offset -16
  49              	.LVL3:
  50              	.L3:
  51              		.cfi_restore_state
 183:C:/Users/stapi/OneDrive/Desktop/GD32VW553/V1_MQTT_OK/GD32VW55X_Wifi_BLE_SDK/GD32VW55x_RELEASE_V1.0.2/MSDK/plf/GD32VW55x_standard_peripheral/Source\gd32vw55x_hau_sha_md5.c ****     case HAU_ALGO_SHA1:
  52              		.loc 1 183 5
  53 002c 93870708 		addi	a5,a5,128
  54 0030 E319F5FE 		bne	a0,a5,.L1
 213:C:/Users/stapi/OneDrive/Desktop/GD32VW553/V1_MQTT_OK/GD32VW55X_Wifi_BLE_SDK/GD32VW55x_RELEASE_V1.0.2/MSDK/plf/GD32VW55x_standard_peripheral/Source\gd32vw55x_hau_sha_md5.c ****         *(uint32_t*)(outputaddr)  = __REV(digest_para.out[0]);
  55              		.loc 1 213 9 is_stmt 1
  56 0034 0A85     		mv	a0,sp
  57              	.LVL4:
  58 0036 97000000 		call	hau_digest_read
  58      E7800000 
  59              	.LVL5:
 214:C:/Users/stapi/OneDrive/Desktop/GD32VW553/V1_MQTT_OK/GD32VW55X_Wifi_BLE_SDK/GD32VW55x_RELEASE_V1.0.2/MSDK/plf/GD32VW55x_standard_peripheral/Source\gd32vw55x_hau_sha_md5.c ****         outputaddr += 4U;
  60              		.loc 1 214 9
  61 003e 8247     		lw	a5,0(sp)
  62 0040 93D78769 		rev8	a5,a5
  63              	.LVL6:
  64              	.LBB50:
  65              	.LBB51:
  66              		.file 2 "..\\..\\..\\..\\plf\\riscv\\NMSIS\\Core\\Include/core_compatiable.h"
   1:..\..\..\..\plf\riscv\NMSIS\Core\Include/core_compatiable.h **** /*
   2:..\..\..\..\plf\riscv\NMSIS\Core\Include/core_compatiable.h ****  * Copyright (c) 2019 Nuclei Limited. All rights reserved.
   3:..\..\..\..\plf\riscv\NMSIS\Core\Include/core_compatiable.h ****  *
   4:..\..\..\..\plf\riscv\NMSIS\Core\Include/core_compatiable.h ****  * SPDX-License-Identifier: Apache-2.0
   5:..\..\..\..\plf\riscv\NMSIS\Core\Include/core_compatiable.h ****  *
   6:..\..\..\..\plf\riscv\NMSIS\Core\Include/core_compatiable.h ****  * Licensed under the Apache License, Version 2.0 (the License); you may
   7:..\..\..\..\plf\riscv\NMSIS\Core\Include/core_compatiable.h ****  * not use this file except in compliance with the License.
   8:..\..\..\..\plf\riscv\NMSIS\Core\Include/core_compatiable.h ****  * You may obtain a copy of the License at
   9:..\..\..\..\plf\riscv\NMSIS\Core\Include/core_compatiable.h ****  *
  10:..\..\..\..\plf\riscv\NMSIS\Core\Include/core_compatiable.h ****  * www.apache.org/licenses/LICENSE-2.0
  11:..\..\..\..\plf\riscv\NMSIS\Core\Include/core_compatiable.h ****  *
  12:..\..\..\..\plf\riscv\NMSIS\Core\Include/core_compatiable.h ****  * Unless required by applicable law or agreed to in writing, software
  13:..\..\..\..\plf\riscv\NMSIS\Core\Include/core_compatiable.h ****  * distributed under the License is distributed on an AS IS BASIS, WITHOUT
  14:..\..\..\..\plf\riscv\NMSIS\Core\Include/core_compatiable.h ****  * WARRANTIES OR CONDITIONS OF ANY KIND, either express or implied.
  15:..\..\..\..\plf\riscv\NMSIS\Core\Include/core_compatiable.h ****  * See the License for the specific language governing permissions and
  16:..\..\..\..\plf\riscv\NMSIS\Core\Include/core_compatiable.h ****  * limitations under the License.
  17:..\..\..\..\plf\riscv\NMSIS\Core\Include/core_compatiable.h ****  */
  18:..\..\..\..\plf\riscv\NMSIS\Core\Include/core_compatiable.h **** #ifndef __CORE_COMPATIABLE_H__
  19:..\..\..\..\plf\riscv\NMSIS\Core\Include/core_compatiable.h **** #define __CORE_COMPATIABLE_H__
  20:..\..\..\..\plf\riscv\NMSIS\Core\Include/core_compatiable.h **** /*!
  21:..\..\..\..\plf\riscv\NMSIS\Core\Include/core_compatiable.h ****  * @file     core_compatiable.h
  22:..\..\..\..\plf\riscv\NMSIS\Core\Include/core_compatiable.h ****  * @brief    ARM compatiable function definitions header file
  23:..\..\..\..\plf\riscv\NMSIS\Core\Include/core_compatiable.h ****  */
  24:..\..\..\..\plf\riscv\NMSIS\Core\Include/core_compatiable.h **** #ifdef __cplusplus
  25:..\..\..\..\plf\riscv\NMSIS\Core\Include/core_compatiable.h ****  extern "C" {
  26:..\..\..\..\plf\riscv\NMSIS\Core\Include/core_compatiable.h **** #endif
  27:..\..\..\..\plf\riscv\NMSIS\Core\Include/core_compatiable.h **** 
  28:..\..\..\..\plf\riscv\NMSIS\Core\Include/core_compatiable.h **** /* ===== ARM Compatiable Functions ===== */
  29:..\..\..\..\plf\riscv\NMSIS\Core\Include/core_compatiable.h **** /**
  30:..\..\..\..\plf\riscv\NMSIS\Core\Include/core_compatiable.h ****  * \defgroup NMSIS_Core_ARMCompatiable_Functions   ARM Compatiable Functions
  31:..\..\..\..\plf\riscv\NMSIS\Core\Include/core_compatiable.h ****  * \ingroup  NMSIS_Core
  32:..\..\..\..\plf\riscv\NMSIS\Core\Include/core_compatiable.h ****  * \brief    A few functions that compatiable with ARM CMSIS-Core.
  33:..\..\..\..\plf\riscv\NMSIS\Core\Include/core_compatiable.h ****  * \details
  34:..\..\..\..\plf\riscv\NMSIS\Core\Include/core_compatiable.h ****  *
  35:..\..\..\..\plf\riscv\NMSIS\Core\Include/core_compatiable.h ****  * Here we provided a few functions that compatiable with ARM CMSIS-Core,
  36:..\..\..\..\plf\riscv\NMSIS\Core\Include/core_compatiable.h ****  * mostly used in the DSP and NN library.
  37:..\..\..\..\plf\riscv\NMSIS\Core\Include/core_compatiable.h ****  * @{
  38:..\..\..\..\plf\riscv\NMSIS\Core\Include/core_compatiable.h ****  */
  39:..\..\..\..\plf\riscv\NMSIS\Core\Include/core_compatiable.h **** /** \brief Instruction Synchronization Barrier, compatiable with ARM */
  40:..\..\..\..\plf\riscv\NMSIS\Core\Include/core_compatiable.h **** #define __ISB()                             __RWMB()
  41:..\..\..\..\plf\riscv\NMSIS\Core\Include/core_compatiable.h **** 
  42:..\..\..\..\plf\riscv\NMSIS\Core\Include/core_compatiable.h **** /** \brief Data Synchronization Barrier, compatiable with ARM */
  43:..\..\..\..\plf\riscv\NMSIS\Core\Include/core_compatiable.h **** #define __DSB()                             __RWMB()
  44:..\..\..\..\plf\riscv\NMSIS\Core\Include/core_compatiable.h **** 
  45:..\..\..\..\plf\riscv\NMSIS\Core\Include/core_compatiable.h **** /** \brief Data Memory Barrier, compatiable with ARM */
  46:..\..\..\..\plf\riscv\NMSIS\Core\Include/core_compatiable.h **** #define __DMB()                             __RWMB()
  47:..\..\..\..\plf\riscv\NMSIS\Core\Include/core_compatiable.h **** 
  48:..\..\..\..\plf\riscv\NMSIS\Core\Include/core_compatiable.h **** /** \brief LDRT Unprivileged (8 bit), ARM Compatiable */
  49:..\..\..\..\plf\riscv\NMSIS\Core\Include/core_compatiable.h **** #define __LDRBT(ptr)                        __LB((ptr))
  50:..\..\..\..\plf\riscv\NMSIS\Core\Include/core_compatiable.h **** /** \brief LDRT Unprivileged (16 bit), ARM Compatiable */
  51:..\..\..\..\plf\riscv\NMSIS\Core\Include/core_compatiable.h **** #define __LDRHT(ptr)                        __LH((ptr))
  52:..\..\..\..\plf\riscv\NMSIS\Core\Include/core_compatiable.h **** /** \brief LDRT Unprivileged (32 bit), ARM Compatiable */
  53:..\..\..\..\plf\riscv\NMSIS\Core\Include/core_compatiable.h **** #define __LDRT(ptr)                         __LW((ptr))
  54:..\..\..\..\plf\riscv\NMSIS\Core\Include/core_compatiable.h **** 
  55:..\..\..\..\plf\riscv\NMSIS\Core\Include/core_compatiable.h **** /** \brief STRT Unprivileged (8 bit), ARM Compatiable */
  56:..\..\..\..\plf\riscv\NMSIS\Core\Include/core_compatiable.h **** #define __STRBT(val, ptr)                   __SB((ptr), (val))
  57:..\..\..\..\plf\riscv\NMSIS\Core\Include/core_compatiable.h **** /** \brief STRT Unprivileged (16 bit), ARM Compatiable */
  58:..\..\..\..\plf\riscv\NMSIS\Core\Include/core_compatiable.h **** #define __STRHT(val, ptr)                   __SH((ptr), (val))
  59:..\..\..\..\plf\riscv\NMSIS\Core\Include/core_compatiable.h **** /** \brief STRT Unprivileged (32 bit), ARM Compatiable */
  60:..\..\..\..\plf\riscv\NMSIS\Core\Include/core_compatiable.h **** #define __STRT(val, ptr)                    __SW((ptr), (val))
  61:..\..\..\..\plf\riscv\NMSIS\Core\Include/core_compatiable.h **** 
  62:..\..\..\..\plf\riscv\NMSIS\Core\Include/core_compatiable.h **** /* ===== Saturation Operations ===== */
  63:..\..\..\..\plf\riscv\NMSIS\Core\Include/core_compatiable.h **** /**
  64:..\..\..\..\plf\riscv\NMSIS\Core\Include/core_compatiable.h ****  * \brief   Signed Saturate
  65:..\..\..\..\plf\riscv\NMSIS\Core\Include/core_compatiable.h ****  * \details Saturates a signed value.
  66:..\..\..\..\plf\riscv\NMSIS\Core\Include/core_compatiable.h ****  * \param [in]  value  Value to be saturated
  67:..\..\..\..\plf\riscv\NMSIS\Core\Include/core_compatiable.h ****  * \param [in]    sat  Bit position to saturate to (1..32)
  68:..\..\..\..\plf\riscv\NMSIS\Core\Include/core_compatiable.h ****  * \return             Saturated value
  69:..\..\..\..\plf\riscv\NMSIS\Core\Include/core_compatiable.h ****  */
  70:..\..\..\..\plf\riscv\NMSIS\Core\Include/core_compatiable.h **** #if defined(__DSP_PRESENT) && (__DSP_PRESENT == 1)
  71:..\..\..\..\plf\riscv\NMSIS\Core\Include/core_compatiable.h **** #define __SSAT(val, sat)          __RV_SCLIP32((val), (sat-1))
  72:..\..\..\..\plf\riscv\NMSIS\Core\Include/core_compatiable.h **** #else
  73:..\..\..\..\plf\riscv\NMSIS\Core\Include/core_compatiable.h **** __STATIC_FORCEINLINE int32_t __SSAT(int32_t val, uint32_t sat)
  74:..\..\..\..\plf\riscv\NMSIS\Core\Include/core_compatiable.h **** {
  75:..\..\..\..\plf\riscv\NMSIS\Core\Include/core_compatiable.h ****     if ((sat >= 1U) && (sat <= 32U)) {
  76:..\..\..\..\plf\riscv\NMSIS\Core\Include/core_compatiable.h ****         const int32_t max = (int32_t)((1U << (sat - 1U)) - 1U);
  77:..\..\..\..\plf\riscv\NMSIS\Core\Include/core_compatiable.h ****         const int32_t min = -1 - max ;
  78:..\..\..\..\plf\riscv\NMSIS\Core\Include/core_compatiable.h ****         if (val > max) {
  79:..\..\..\..\plf\riscv\NMSIS\Core\Include/core_compatiable.h ****             return max;
  80:..\..\..\..\plf\riscv\NMSIS\Core\Include/core_compatiable.h ****         } else if (val < min) {
  81:..\..\..\..\plf\riscv\NMSIS\Core\Include/core_compatiable.h ****             return min;
  82:..\..\..\..\plf\riscv\NMSIS\Core\Include/core_compatiable.h ****         }
  83:..\..\..\..\plf\riscv\NMSIS\Core\Include/core_compatiable.h ****     }
  84:..\..\..\..\plf\riscv\NMSIS\Core\Include/core_compatiable.h ****     return val;
  85:..\..\..\..\plf\riscv\NMSIS\Core\Include/core_compatiable.h **** }
  86:..\..\..\..\plf\riscv\NMSIS\Core\Include/core_compatiable.h **** #endif
  87:..\..\..\..\plf\riscv\NMSIS\Core\Include/core_compatiable.h **** 
  88:..\..\..\..\plf\riscv\NMSIS\Core\Include/core_compatiable.h **** /**
  89:..\..\..\..\plf\riscv\NMSIS\Core\Include/core_compatiable.h ****  * \brief   Unsigned Saturate
  90:..\..\..\..\plf\riscv\NMSIS\Core\Include/core_compatiable.h ****  * \details Saturates an unsigned value.
  91:..\..\..\..\plf\riscv\NMSIS\Core\Include/core_compatiable.h ****  * \param [in]  value  Value to be saturated
  92:..\..\..\..\plf\riscv\NMSIS\Core\Include/core_compatiable.h ****  * \param [in]    sat  Bit position to saturate to (0..31)
  93:..\..\..\..\plf\riscv\NMSIS\Core\Include/core_compatiable.h ****  * \return             Saturated value
  94:..\..\..\..\plf\riscv\NMSIS\Core\Include/core_compatiable.h ****  */
  95:..\..\..\..\plf\riscv\NMSIS\Core\Include/core_compatiable.h **** #if defined(__DSP_PRESENT) && (__DSP_PRESENT == 1)
  96:..\..\..\..\plf\riscv\NMSIS\Core\Include/core_compatiable.h **** #define __USAT(val, sat)        __RV_UCLIP32((val), (sat))
  97:..\..\..\..\plf\riscv\NMSIS\Core\Include/core_compatiable.h **** #else
  98:..\..\..\..\plf\riscv\NMSIS\Core\Include/core_compatiable.h **** __STATIC_FORCEINLINE uint32_t __USAT(int32_t val, uint32_t sat)
  99:..\..\..\..\plf\riscv\NMSIS\Core\Include/core_compatiable.h **** {
 100:..\..\..\..\plf\riscv\NMSIS\Core\Include/core_compatiable.h ****     if (sat <= 31U) {
 101:..\..\..\..\plf\riscv\NMSIS\Core\Include/core_compatiable.h ****         const uint32_t max = ((1U << sat) - 1U);
 102:..\..\..\..\plf\riscv\NMSIS\Core\Include/core_compatiable.h ****         if (val > (int32_t)max) {
 103:..\..\..\..\plf\riscv\NMSIS\Core\Include/core_compatiable.h ****             return max;
 104:..\..\..\..\plf\riscv\NMSIS\Core\Include/core_compatiable.h ****         } else if (val < 0) {
 105:..\..\..\..\plf\riscv\NMSIS\Core\Include/core_compatiable.h ****             return 0U;
 106:..\..\..\..\plf\riscv\NMSIS\Core\Include/core_compatiable.h ****         }
 107:..\..\..\..\plf\riscv\NMSIS\Core\Include/core_compatiable.h ****     }
 108:..\..\..\..\plf\riscv\NMSIS\Core\Include/core_compatiable.h ****     return (uint32_t)val;
 109:..\..\..\..\plf\riscv\NMSIS\Core\Include/core_compatiable.h **** }
 110:..\..\..\..\plf\riscv\NMSIS\Core\Include/core_compatiable.h **** #endif
 111:..\..\..\..\plf\riscv\NMSIS\Core\Include/core_compatiable.h **** 
 112:..\..\..\..\plf\riscv\NMSIS\Core\Include/core_compatiable.h **** /* ===== Data Processing Operations ===== */
 113:..\..\..\..\plf\riscv\NMSIS\Core\Include/core_compatiable.h **** /**
 114:..\..\..\..\plf\riscv\NMSIS\Core\Include/core_compatiable.h ****  * \brief   Reverse byte order (32 bit)
 115:..\..\..\..\plf\riscv\NMSIS\Core\Include/core_compatiable.h ****  * \details Reverses the byte order in unsigned integer value.
 116:..\..\..\..\plf\riscv\NMSIS\Core\Include/core_compatiable.h ****  * For example, 0x12345678 becomes 0x78563412.
 117:..\..\..\..\plf\riscv\NMSIS\Core\Include/core_compatiable.h ****  * \param [in]    value  Value to reverse
 118:..\..\..\..\plf\riscv\NMSIS\Core\Include/core_compatiable.h ****  * \return               Reversed value
 119:..\..\..\..\plf\riscv\NMSIS\Core\Include/core_compatiable.h ****  */
 120:..\..\..\..\plf\riscv\NMSIS\Core\Include/core_compatiable.h **** __STATIC_FORCEINLINE uint32_t __REV(uint32_t value)
 121:..\..\..\..\plf\riscv\NMSIS\Core\Include/core_compatiable.h **** {
 122:..\..\..\..\plf\riscv\NMSIS\Core\Include/core_compatiable.h ****     uint32_t result;
  67              		.loc 2 122 5
 123:..\..\..\..\plf\riscv\NMSIS\Core\Include/core_compatiable.h **** 
 124:..\..\..\..\plf\riscv\NMSIS\Core\Include/core_compatiable.h ****     result =  ((value & 0xff000000) >> 24)
  68              		.loc 2 124 5
 125:..\..\..\..\plf\riscv\NMSIS\Core\Include/core_compatiable.h ****         | ((value & 0x00ff0000) >> 8 )
 126:..\..\..\..\plf\riscv\NMSIS\Core\Include/core_compatiable.h ****         | ((value & 0x0000ff00) << 8 )
 127:..\..\..\..\plf\riscv\NMSIS\Core\Include/core_compatiable.h ****         | ((value & 0x000000ff) << 24);
 128:..\..\..\..\plf\riscv\NMSIS\Core\Include/core_compatiable.h ****     return result;
  69              		.loc 2 128 5
  70              	.LBE51:
  71              	.LBE50:
 214:C:/Users/stapi/OneDrive/Desktop/GD32VW553/V1_MQTT_OK/GD32VW55X_Wifi_BLE_SDK/GD32VW55x_RELEASE_V1.0.2/MSDK/plf/GD32VW55x_standard_peripheral/Source\gd32vw55x_hau_sha_md5.c ****         outputaddr += 4U;
  72              		.loc 1 214 35 is_stmt 0
  73 0044 1CC0     		sw	a5,0(s0)
 215:C:/Users/stapi/OneDrive/Desktop/GD32VW553/V1_MQTT_OK/GD32VW55X_Wifi_BLE_SDK/GD32VW55x_RELEASE_V1.0.2/MSDK/plf/GD32VW55x_standard_peripheral/Source\gd32vw55x_hau_sha_md5.c ****         *(uint32_t*)(outputaddr)  = __REV(digest_para.out[1]);
  74              		.loc 1 215 9 is_stmt 1
  75              	.LVL7:
 216:C:/Users/stapi/OneDrive/Desktop/GD32VW553/V1_MQTT_OK/GD32VW55X_Wifi_BLE_SDK/GD32VW55x_RELEASE_V1.0.2/MSDK/plf/GD32VW55x_standard_peripheral/Source\gd32vw55x_hau_sha_md5.c ****         outputaddr += 4U;
  76              		.loc 1 216 9
  77 0046 9247     		lw	a5,4(sp)
  78 0048 93D78769 		rev8	a5,a5
  79              	.LVL8:
  80              	.LBB52:
  81              	.LBB53:
 122:..\..\..\..\plf\riscv\NMSIS\Core\Include/core_compatiable.h **** 
  82              		.loc 2 122 5
 124:..\..\..\..\plf\riscv\NMSIS\Core\Include/core_compatiable.h ****         | ((value & 0x00ff0000) >> 8 )
  83              		.loc 2 124 5
  84              		.loc 2 128 5
  85              	.LBE53:
  86              	.LBE52:
 216:C:/Users/stapi/OneDrive/Desktop/GD32VW553/V1_MQTT_OK/GD32VW55X_Wifi_BLE_SDK/GD32VW55x_RELEASE_V1.0.2/MSDK/plf/GD32VW55x_standard_peripheral/Source\gd32vw55x_hau_sha_md5.c ****         outputaddr += 4U;
  87              		.loc 1 216 35 is_stmt 0
  88 004c 5CC0     		sw	a5,4(s0)
 217:C:/Users/stapi/OneDrive/Desktop/GD32VW553/V1_MQTT_OK/GD32VW55X_Wifi_BLE_SDK/GD32VW55x_RELEASE_V1.0.2/MSDK/plf/GD32VW55x_standard_peripheral/Source\gd32vw55x_hau_sha_md5.c ****         *(uint32_t*)(outputaddr)  = __REV(digest_para.out[2]);
  89              		.loc 1 217 9 is_stmt 1
  90              	.LVL9:
 218:C:/Users/stapi/OneDrive/Desktop/GD32VW553/V1_MQTT_OK/GD32VW55X_Wifi_BLE_SDK/GD32VW55x_RELEASE_V1.0.2/MSDK/plf/GD32VW55x_standard_peripheral/Source\gd32vw55x_hau_sha_md5.c ****         outputaddr += 4U;
  91              		.loc 1 218 9
  92 004e A247     		lw	a5,8(sp)
  93 0050 93D78769 		rev8	a5,a5
  94              	.LVL10:
  95              	.LBB54:
  96              	.LBB55:
 122:..\..\..\..\plf\riscv\NMSIS\Core\Include/core_compatiable.h **** 
  97              		.loc 2 122 5
 124:..\..\..\..\plf\riscv\NMSIS\Core\Include/core_compatiable.h ****         | ((value & 0x00ff0000) >> 8 )
  98              		.loc 2 124 5
  99              		.loc 2 128 5
 100              	.LBE55:
 101              	.LBE54:
 218:C:/Users/stapi/OneDrive/Desktop/GD32VW553/V1_MQTT_OK/GD32VW55X_Wifi_BLE_SDK/GD32VW55x_RELEASE_V1.0.2/MSDK/plf/GD32VW55x_standard_peripheral/Source\gd32vw55x_hau_sha_md5.c ****         outputaddr += 4U;
 102              		.loc 1 218 35 is_stmt 0
 103 0054 1CC4     		sw	a5,8(s0)
 219:C:/Users/stapi/OneDrive/Desktop/GD32VW553/V1_MQTT_OK/GD32VW55X_Wifi_BLE_SDK/GD32VW55x_RELEASE_V1.0.2/MSDK/plf/GD32VW55x_standard_peripheral/Source\gd32vw55x_hau_sha_md5.c ****         *(uint32_t*)(outputaddr)  = __REV(digest_para.out[3]);
 104              		.loc 1 219 9 is_stmt 1
 105              	.LVL11:
 220:C:/Users/stapi/OneDrive/Desktop/GD32VW553/V1_MQTT_OK/GD32VW55X_Wifi_BLE_SDK/GD32VW55x_RELEASE_V1.0.2/MSDK/plf/GD32VW55x_standard_peripheral/Source\gd32vw55x_hau_sha_md5.c ****         outputaddr += 4U;
 106              		.loc 1 220 9
 107 0056 B247     		lw	a5,12(sp)
 108 0058 93D78769 		rev8	a5,a5
 109              	.LVL12:
 110              	.LBB56:
 111              	.LBB57:
 122:..\..\..\..\plf\riscv\NMSIS\Core\Include/core_compatiable.h **** 
 112              		.loc 2 122 5
 124:..\..\..\..\plf\riscv\NMSIS\Core\Include/core_compatiable.h ****         | ((value & 0x00ff0000) >> 8 )
 113              		.loc 2 124 5
 114              		.loc 2 128 5
 115              	.LBE57:
 116              	.LBE56:
 220:C:/Users/stapi/OneDrive/Desktop/GD32VW553/V1_MQTT_OK/GD32VW55X_Wifi_BLE_SDK/GD32VW55x_RELEASE_V1.0.2/MSDK/plf/GD32VW55x_standard_peripheral/Source\gd32vw55x_hau_sha_md5.c ****         outputaddr += 4U;
 117              		.loc 1 220 35 is_stmt 0
 118 005c 5CC4     		sw	a5,12(s0)
 221:C:/Users/stapi/OneDrive/Desktop/GD32VW553/V1_MQTT_OK/GD32VW55X_Wifi_BLE_SDK/GD32VW55x_RELEASE_V1.0.2/MSDK/plf/GD32VW55x_standard_peripheral/Source\gd32vw55x_hau_sha_md5.c ****         *(uint32_t*)(outputaddr)  = __REV(digest_para.out[4]);
 119              		.loc 1 221 9 is_stmt 1
 120              	.LVL13:
 222:C:/Users/stapi/OneDrive/Desktop/GD32VW553/V1_MQTT_OK/GD32VW55X_Wifi_BLE_SDK/GD32VW55x_RELEASE_V1.0.2/MSDK/plf/GD32VW55x_standard_peripheral/Source\gd32vw55x_hau_sha_md5.c ****         outputaddr += 4U;
 121              		.loc 1 222 9
 122 005e C247     		lw	a5,16(sp)
 123 0060 93D78769 		rev8	a5,a5
 124              	.LVL14:
 125              	.LBB58:
 126              	.LBB59:
 122:..\..\..\..\plf\riscv\NMSIS\Core\Include/core_compatiable.h **** 
 127              		.loc 2 122 5
 124:..\..\..\..\plf\riscv\NMSIS\Core\Include/core_compatiable.h ****         | ((value & 0x00ff0000) >> 8 )
 128              		.loc 2 124 5
 129              		.loc 2 128 5
 130              	.LBE59:
 131              	.LBE58:
 222:C:/Users/stapi/OneDrive/Desktop/GD32VW553/V1_MQTT_OK/GD32VW55X_Wifi_BLE_SDK/GD32VW55x_RELEASE_V1.0.2/MSDK/plf/GD32VW55x_standard_peripheral/Source\gd32vw55x_hau_sha_md5.c ****         outputaddr += 4U;
 132              		.loc 1 222 35 is_stmt 0
 133 0064 1CC8     		sw	a5,16(s0)
 223:C:/Users/stapi/OneDrive/Desktop/GD32VW553/V1_MQTT_OK/GD32VW55X_Wifi_BLE_SDK/GD32VW55x_RELEASE_V1.0.2/MSDK/plf/GD32VW55x_standard_peripheral/Source\gd32vw55x_hau_sha_md5.c ****         *(uint32_t*)(outputaddr)  = __REV(digest_para.out[5]);
 134              		.loc 1 223 9 is_stmt 1
 135              	.LVL15:
 224:C:/Users/stapi/OneDrive/Desktop/GD32VW553/V1_MQTT_OK/GD32VW55X_Wifi_BLE_SDK/GD32VW55x_RELEASE_V1.0.2/MSDK/plf/GD32VW55x_standard_peripheral/Source\gd32vw55x_hau_sha_md5.c ****         outputaddr += 4U;
 136              		.loc 1 224 9
 137 0066 D247     		lw	a5,20(sp)
 138 0068 93D78769 		rev8	a5,a5
 139              	.LVL16:
 140              	.LBB60:
 141              	.LBB61:
 122:..\..\..\..\plf\riscv\NMSIS\Core\Include/core_compatiable.h **** 
 142              		.loc 2 122 5
 124:..\..\..\..\plf\riscv\NMSIS\Core\Include/core_compatiable.h ****         | ((value & 0x00ff0000) >> 8 )
 143              		.loc 2 124 5
 144              		.loc 2 128 5
 145              	.LBE61:
 146              	.LBE60:
 224:C:/Users/stapi/OneDrive/Desktop/GD32VW553/V1_MQTT_OK/GD32VW55X_Wifi_BLE_SDK/GD32VW55x_RELEASE_V1.0.2/MSDK/plf/GD32VW55x_standard_peripheral/Source\gd32vw55x_hau_sha_md5.c ****         outputaddr += 4U;
 147              		.loc 1 224 35 is_stmt 0
 148 006c 5CC8     		sw	a5,20(s0)
 225:C:/Users/stapi/OneDrive/Desktop/GD32VW553/V1_MQTT_OK/GD32VW55X_Wifi_BLE_SDK/GD32VW55x_RELEASE_V1.0.2/MSDK/plf/GD32VW55x_standard_peripheral/Source\gd32vw55x_hau_sha_md5.c ****         *(uint32_t*)(outputaddr)  = __REV(digest_para.out[6]);
 149              		.loc 1 225 9 is_stmt 1
 150              	.LVL17:
 226:C:/Users/stapi/OneDrive/Desktop/GD32VW553/V1_MQTT_OK/GD32VW55X_Wifi_BLE_SDK/GD32VW55x_RELEASE_V1.0.2/MSDK/plf/GD32VW55x_standard_peripheral/Source\gd32vw55x_hau_sha_md5.c ****         outputaddr += 4U;
 151              		.loc 1 226 9
 152 006e E247     		lw	a5,24(sp)
 153 0070 93D78769 		rev8	a5,a5
 154              	.LVL18:
 155              	.LBB62:
 156              	.LBB63:
 122:..\..\..\..\plf\riscv\NMSIS\Core\Include/core_compatiable.h **** 
 157              		.loc 2 122 5
 124:..\..\..\..\plf\riscv\NMSIS\Core\Include/core_compatiable.h ****         | ((value & 0x00ff0000) >> 8 )
 158              		.loc 2 124 5
 159              		.loc 2 128 5
 160              	.LBE63:
 161              	.LBE62:
 226:C:/Users/stapi/OneDrive/Desktop/GD32VW553/V1_MQTT_OK/GD32VW55X_Wifi_BLE_SDK/GD32VW55x_RELEASE_V1.0.2/MSDK/plf/GD32VW55x_standard_peripheral/Source\gd32vw55x_hau_sha_md5.c ****         outputaddr += 4U;
 162              		.loc 1 226 35 is_stmt 0
 163 0074 1CCC     		sw	a5,24(s0)
 227:C:/Users/stapi/OneDrive/Desktop/GD32VW553/V1_MQTT_OK/GD32VW55X_Wifi_BLE_SDK/GD32VW55x_RELEASE_V1.0.2/MSDK/plf/GD32VW55x_standard_peripheral/Source\gd32vw55x_hau_sha_md5.c ****         *(uint32_t*)(outputaddr)  = __REV(digest_para.out[7]);
 164              		.loc 1 227 9 is_stmt 1
 165              	.LVL19:
 228:C:/Users/stapi/OneDrive/Desktop/GD32VW553/V1_MQTT_OK/GD32VW55X_Wifi_BLE_SDK/GD32VW55x_RELEASE_V1.0.2/MSDK/plf/GD32VW55x_standard_peripheral/Source\gd32vw55x_hau_sha_md5.c ****         break;
 166              		.loc 1 228 9
 167 0076 F247     		lw	a5,28(sp)
 168 0078 93D78769 		rev8	a5,a5
 169              	.LVL20:
 170              	.LBB64:
 171              	.LBB65:
 122:..\..\..\..\plf\riscv\NMSIS\Core\Include/core_compatiable.h **** 
 172              		.loc 2 122 5
 124:..\..\..\..\plf\riscv\NMSIS\Core\Include/core_compatiable.h ****         | ((value & 0x00ff0000) >> 8 )
 173              		.loc 2 124 5
 174              		.loc 2 128 5
 175              	.LBE65:
 176              	.LBE64:
 228:C:/Users/stapi/OneDrive/Desktop/GD32VW553/V1_MQTT_OK/GD32VW55X_Wifi_BLE_SDK/GD32VW55x_RELEASE_V1.0.2/MSDK/plf/GD32VW55x_standard_peripheral/Source\gd32vw55x_hau_sha_md5.c ****         break;
 177              		.loc 1 228 35 is_stmt 0
 178 007c 5CCC     		sw	a5,28(s0)
 229:C:/Users/stapi/OneDrive/Desktop/GD32VW553/V1_MQTT_OK/GD32VW55X_Wifi_BLE_SDK/GD32VW55x_RELEASE_V1.0.2/MSDK/plf/GD32VW55x_standard_peripheral/Source\gd32vw55x_hau_sha_md5.c ****     case HAU_ALGO_MD5:
 179              		.loc 1 229 9 is_stmt 1
 180 007e 55B7     		j	.L1
 181              	.LVL21:
 182              	.L4:
 185:C:/Users/stapi/OneDrive/Desktop/GD32VW553/V1_MQTT_OK/GD32VW55X_Wifi_BLE_SDK/GD32VW55x_RELEASE_V1.0.2/MSDK/plf/GD32VW55x_standard_peripheral/Source\gd32vw55x_hau_sha_md5.c ****         *(uint32_t*)(outputaddr)  = __REV(digest_para.out[0]);
 183              		.loc 1 185 9
 184 0080 0A85     		mv	a0,sp
 185              	.LVL22:
 186 0082 97000000 		call	hau_digest_read
 186      E7800000 
 187              	.LVL23:
 186:C:/Users/stapi/OneDrive/Desktop/GD32VW553/V1_MQTT_OK/GD32VW55X_Wifi_BLE_SDK/GD32VW55x_RELEASE_V1.0.2/MSDK/plf/GD32VW55x_standard_peripheral/Source\gd32vw55x_hau_sha_md5.c ****         outputaddr += 4U;
 188              		.loc 1 186 9
 189 008a 8247     		lw	a5,0(sp)
 190 008c 93D78769 		rev8	a5,a5
 191              	.LVL24:
 192              	.LBB66:
 193              	.LBB67:
 122:..\..\..\..\plf\riscv\NMSIS\Core\Include/core_compatiable.h **** 
 194              		.loc 2 122 5
 124:..\..\..\..\plf\riscv\NMSIS\Core\Include/core_compatiable.h ****         | ((value & 0x00ff0000) >> 8 )
 195              		.loc 2 124 5
 196              		.loc 2 128 5
 197              	.LBE67:
 198              	.LBE66:
 186:C:/Users/stapi/OneDrive/Desktop/GD32VW553/V1_MQTT_OK/GD32VW55X_Wifi_BLE_SDK/GD32VW55x_RELEASE_V1.0.2/MSDK/plf/GD32VW55x_standard_peripheral/Source\gd32vw55x_hau_sha_md5.c ****         outputaddr += 4U;
 199              		.loc 1 186 35 is_stmt 0
 200 0090 1CC0     		sw	a5,0(s0)
 187:C:/Users/stapi/OneDrive/Desktop/GD32VW553/V1_MQTT_OK/GD32VW55X_Wifi_BLE_SDK/GD32VW55x_RELEASE_V1.0.2/MSDK/plf/GD32VW55x_standard_peripheral/Source\gd32vw55x_hau_sha_md5.c ****         *(uint32_t*)(outputaddr)  = __REV(digest_para.out[1]);
 201              		.loc 1 187 9 is_stmt 1
 202              	.LVL25:
 188:C:/Users/stapi/OneDrive/Desktop/GD32VW553/V1_MQTT_OK/GD32VW55X_Wifi_BLE_SDK/GD32VW55x_RELEASE_V1.0.2/MSDK/plf/GD32VW55x_standard_peripheral/Source\gd32vw55x_hau_sha_md5.c ****         outputaddr += 4U;
 203              		.loc 1 188 9
 204 0092 9247     		lw	a5,4(sp)
 205 0094 93D78769 		rev8	a5,a5
 206              	.LVL26:
 207              	.LBB68:
 208              	.LBB69:
 122:..\..\..\..\plf\riscv\NMSIS\Core\Include/core_compatiable.h **** 
 209              		.loc 2 122 5
 124:..\..\..\..\plf\riscv\NMSIS\Core\Include/core_compatiable.h ****         | ((value & 0x00ff0000) >> 8 )
 210              		.loc 2 124 5
 211              		.loc 2 128 5
 212              	.LBE69:
 213              	.LBE68:
 188:C:/Users/stapi/OneDrive/Desktop/GD32VW553/V1_MQTT_OK/GD32VW55X_Wifi_BLE_SDK/GD32VW55x_RELEASE_V1.0.2/MSDK/plf/GD32VW55x_standard_peripheral/Source\gd32vw55x_hau_sha_md5.c ****         outputaddr += 4U;
 214              		.loc 1 188 35 is_stmt 0
 215 0098 5CC0     		sw	a5,4(s0)
 189:C:/Users/stapi/OneDrive/Desktop/GD32VW553/V1_MQTT_OK/GD32VW55X_Wifi_BLE_SDK/GD32VW55x_RELEASE_V1.0.2/MSDK/plf/GD32VW55x_standard_peripheral/Source\gd32vw55x_hau_sha_md5.c ****         *(uint32_t*)(outputaddr)  = __REV(digest_para.out[2]);
 216              		.loc 1 189 9 is_stmt 1
 217              	.LVL27:
 190:C:/Users/stapi/OneDrive/Desktop/GD32VW553/V1_MQTT_OK/GD32VW55X_Wifi_BLE_SDK/GD32VW55x_RELEASE_V1.0.2/MSDK/plf/GD32VW55x_standard_peripheral/Source\gd32vw55x_hau_sha_md5.c ****         outputaddr += 4U;
 218              		.loc 1 190 9
 219 009a A247     		lw	a5,8(sp)
 220 009c 93D78769 		rev8	a5,a5
 221              	.LVL28:
 222              	.LBB70:
 223              	.LBB71:
 122:..\..\..\..\plf\riscv\NMSIS\Core\Include/core_compatiable.h **** 
 224              		.loc 2 122 5
 124:..\..\..\..\plf\riscv\NMSIS\Core\Include/core_compatiable.h ****         | ((value & 0x00ff0000) >> 8 )
 225              		.loc 2 124 5
 226              		.loc 2 128 5
 227              	.LBE71:
 228              	.LBE70:
 190:C:/Users/stapi/OneDrive/Desktop/GD32VW553/V1_MQTT_OK/GD32VW55X_Wifi_BLE_SDK/GD32VW55x_RELEASE_V1.0.2/MSDK/plf/GD32VW55x_standard_peripheral/Source\gd32vw55x_hau_sha_md5.c ****         outputaddr += 4U;
 229              		.loc 1 190 35 is_stmt 0
 230 00a0 1CC4     		sw	a5,8(s0)
 191:C:/Users/stapi/OneDrive/Desktop/GD32VW553/V1_MQTT_OK/GD32VW55X_Wifi_BLE_SDK/GD32VW55x_RELEASE_V1.0.2/MSDK/plf/GD32VW55x_standard_peripheral/Source\gd32vw55x_hau_sha_md5.c ****         *(uint32_t*)(outputaddr)  = __REV(digest_para.out[3]);
 231              		.loc 1 191 9 is_stmt 1
 232              	.LVL29:
 192:C:/Users/stapi/OneDrive/Desktop/GD32VW553/V1_MQTT_OK/GD32VW55X_Wifi_BLE_SDK/GD32VW55x_RELEASE_V1.0.2/MSDK/plf/GD32VW55x_standard_peripheral/Source\gd32vw55x_hau_sha_md5.c ****         outputaddr += 4U;
 233              		.loc 1 192 9
 234 00a2 B247     		lw	a5,12(sp)
 235 00a4 93D78769 		rev8	a5,a5
 236              	.LVL30:
 237              	.LBB72:
 238              	.LBB73:
 122:..\..\..\..\plf\riscv\NMSIS\Core\Include/core_compatiable.h **** 
 239              		.loc 2 122 5
 124:..\..\..\..\plf\riscv\NMSIS\Core\Include/core_compatiable.h ****         | ((value & 0x00ff0000) >> 8 )
 240              		.loc 2 124 5
 241              		.loc 2 128 5
 242              	.LBE73:
 243              	.LBE72:
 192:C:/Users/stapi/OneDrive/Desktop/GD32VW553/V1_MQTT_OK/GD32VW55X_Wifi_BLE_SDK/GD32VW55x_RELEASE_V1.0.2/MSDK/plf/GD32VW55x_standard_peripheral/Source\gd32vw55x_hau_sha_md5.c ****         outputaddr += 4U;
 244              		.loc 1 192 35 is_stmt 0
 245 00a8 5CC4     		sw	a5,12(s0)
 193:C:/Users/stapi/OneDrive/Desktop/GD32VW553/V1_MQTT_OK/GD32VW55X_Wifi_BLE_SDK/GD32VW55x_RELEASE_V1.0.2/MSDK/plf/GD32VW55x_standard_peripheral/Source\gd32vw55x_hau_sha_md5.c ****         *(uint32_t*)(outputaddr)  = __REV(digest_para.out[4]);
 246              		.loc 1 193 9 is_stmt 1
 247              	.LVL31:
 194:C:/Users/stapi/OneDrive/Desktop/GD32VW553/V1_MQTT_OK/GD32VW55X_Wifi_BLE_SDK/GD32VW55x_RELEASE_V1.0.2/MSDK/plf/GD32VW55x_standard_peripheral/Source\gd32vw55x_hau_sha_md5.c ****         break;
 248              		.loc 1 194 9
 249 00aa C247     		lw	a5,16(sp)
 250 00ac 93D78769 		rev8	a5,a5
 251              	.LVL32:
 252              	.LBB74:
 253              	.LBB75:
 122:..\..\..\..\plf\riscv\NMSIS\Core\Include/core_compatiable.h **** 
 254              		.loc 2 122 5
 124:..\..\..\..\plf\riscv\NMSIS\Core\Include/core_compatiable.h ****         | ((value & 0x00ff0000) >> 8 )
 255              		.loc 2 124 5
 256              		.loc 2 128 5
 257              	.LBE75:
 258              	.LBE74:
 194:C:/Users/stapi/OneDrive/Desktop/GD32VW553/V1_MQTT_OK/GD32VW55X_Wifi_BLE_SDK/GD32VW55x_RELEASE_V1.0.2/MSDK/plf/GD32VW55x_standard_peripheral/Source\gd32vw55x_hau_sha_md5.c ****         break;
 259              		.loc 1 194 35 is_stmt 0
 260 00b0 1CC8     		sw	a5,16(s0)
 195:C:/Users/stapi/OneDrive/Desktop/GD32VW553/V1_MQTT_OK/GD32VW55X_Wifi_BLE_SDK/GD32VW55x_RELEASE_V1.0.2/MSDK/plf/GD32VW55x_standard_peripheral/Source\gd32vw55x_hau_sha_md5.c ****     case HAU_ALGO_SHA224:
 261              		.loc 1 195 9 is_stmt 1
 262 00b2 85BF     		j	.L1
 263              	.LVL33:
 264              	.L2:
 197:C:/Users/stapi/OneDrive/Desktop/GD32VW553/V1_MQTT_OK/GD32VW55X_Wifi_BLE_SDK/GD32VW55x_RELEASE_V1.0.2/MSDK/plf/GD32VW55x_standard_peripheral/Source\gd32vw55x_hau_sha_md5.c ****         *(uint32_t*)(outputaddr)  = __REV(digest_para.out[0]);
 265              		.loc 1 197 9
 266 00b4 0A85     		mv	a0,sp
 267              	.LVL34:
 268 00b6 97000000 		call	hau_digest_read
 268      E7800000 
 269              	.LVL35:
 198:C:/Users/stapi/OneDrive/Desktop/GD32VW553/V1_MQTT_OK/GD32VW55X_Wifi_BLE_SDK/GD32VW55x_RELEASE_V1.0.2/MSDK/plf/GD32VW55x_standard_peripheral/Source\gd32vw55x_hau_sha_md5.c ****         outputaddr += 4U;
 270              		.loc 1 198 9
 271 00be 8247     		lw	a5,0(sp)
 272 00c0 93D78769 		rev8	a5,a5
 273              	.LVL36:
 274              	.LBB76:
 275              	.LBB77:
 122:..\..\..\..\plf\riscv\NMSIS\Core\Include/core_compatiable.h **** 
 276              		.loc 2 122 5
 124:..\..\..\..\plf\riscv\NMSIS\Core\Include/core_compatiable.h ****         | ((value & 0x00ff0000) >> 8 )
 277              		.loc 2 124 5
 278              		.loc 2 128 5
 279              	.LBE77:
 280              	.LBE76:
 198:C:/Users/stapi/OneDrive/Desktop/GD32VW553/V1_MQTT_OK/GD32VW55X_Wifi_BLE_SDK/GD32VW55x_RELEASE_V1.0.2/MSDK/plf/GD32VW55x_standard_peripheral/Source\gd32vw55x_hau_sha_md5.c ****         outputaddr += 4U;
 281              		.loc 1 198 35 is_stmt 0
 282 00c4 1CC0     		sw	a5,0(s0)
 199:C:/Users/stapi/OneDrive/Desktop/GD32VW553/V1_MQTT_OK/GD32VW55X_Wifi_BLE_SDK/GD32VW55x_RELEASE_V1.0.2/MSDK/plf/GD32VW55x_standard_peripheral/Source\gd32vw55x_hau_sha_md5.c ****         *(uint32_t*)(outputaddr)  = __REV(digest_para.out[1]);
 283              		.loc 1 199 9 is_stmt 1
 284              	.LVL37:
 200:C:/Users/stapi/OneDrive/Desktop/GD32VW553/V1_MQTT_OK/GD32VW55X_Wifi_BLE_SDK/GD32VW55x_RELEASE_V1.0.2/MSDK/plf/GD32VW55x_standard_peripheral/Source\gd32vw55x_hau_sha_md5.c ****         outputaddr += 4U;
 285              		.loc 1 200 9
 286 00c6 9247     		lw	a5,4(sp)
 287 00c8 93D78769 		rev8	a5,a5
 288              	.LVL38:
 289              	.LBB78:
 290              	.LBB79:
 122:..\..\..\..\plf\riscv\NMSIS\Core\Include/core_compatiable.h **** 
 291              		.loc 2 122 5
 124:..\..\..\..\plf\riscv\NMSIS\Core\Include/core_compatiable.h ****         | ((value & 0x00ff0000) >> 8 )
 292              		.loc 2 124 5
 293              		.loc 2 128 5
 294              	.LBE79:
 295              	.LBE78:
 200:C:/Users/stapi/OneDrive/Desktop/GD32VW553/V1_MQTT_OK/GD32VW55X_Wifi_BLE_SDK/GD32VW55x_RELEASE_V1.0.2/MSDK/plf/GD32VW55x_standard_peripheral/Source\gd32vw55x_hau_sha_md5.c ****         outputaddr += 4U;
 296              		.loc 1 200 35 is_stmt 0
 297 00cc 5CC0     		sw	a5,4(s0)
 201:C:/Users/stapi/OneDrive/Desktop/GD32VW553/V1_MQTT_OK/GD32VW55X_Wifi_BLE_SDK/GD32VW55x_RELEASE_V1.0.2/MSDK/plf/GD32VW55x_standard_peripheral/Source\gd32vw55x_hau_sha_md5.c ****         *(uint32_t*)(outputaddr)  = __REV(digest_para.out[2]);
 298              		.loc 1 201 9 is_stmt 1
 299              	.LVL39:
 202:C:/Users/stapi/OneDrive/Desktop/GD32VW553/V1_MQTT_OK/GD32VW55X_Wifi_BLE_SDK/GD32VW55x_RELEASE_V1.0.2/MSDK/plf/GD32VW55x_standard_peripheral/Source\gd32vw55x_hau_sha_md5.c ****         outputaddr += 4U;
 300              		.loc 1 202 9
 301 00ce A247     		lw	a5,8(sp)
 302 00d0 93D78769 		rev8	a5,a5
 303              	.LVL40:
 304              	.LBB80:
 305              	.LBB81:
 122:..\..\..\..\plf\riscv\NMSIS\Core\Include/core_compatiable.h **** 
 306              		.loc 2 122 5
 124:..\..\..\..\plf\riscv\NMSIS\Core\Include/core_compatiable.h ****         | ((value & 0x00ff0000) >> 8 )
 307              		.loc 2 124 5
 308              		.loc 2 128 5
 309              	.LBE81:
 310              	.LBE80:
 202:C:/Users/stapi/OneDrive/Desktop/GD32VW553/V1_MQTT_OK/GD32VW55X_Wifi_BLE_SDK/GD32VW55x_RELEASE_V1.0.2/MSDK/plf/GD32VW55x_standard_peripheral/Source\gd32vw55x_hau_sha_md5.c ****         outputaddr += 4U;
 311              		.loc 1 202 35 is_stmt 0
 312 00d4 1CC4     		sw	a5,8(s0)
 203:C:/Users/stapi/OneDrive/Desktop/GD32VW553/V1_MQTT_OK/GD32VW55X_Wifi_BLE_SDK/GD32VW55x_RELEASE_V1.0.2/MSDK/plf/GD32VW55x_standard_peripheral/Source\gd32vw55x_hau_sha_md5.c ****         *(uint32_t*)(outputaddr)  = __REV(digest_para.out[3]);
 313              		.loc 1 203 9 is_stmt 1
 314              	.LVL41:
 204:C:/Users/stapi/OneDrive/Desktop/GD32VW553/V1_MQTT_OK/GD32VW55X_Wifi_BLE_SDK/GD32VW55x_RELEASE_V1.0.2/MSDK/plf/GD32VW55x_standard_peripheral/Source\gd32vw55x_hau_sha_md5.c ****         outputaddr += 4U;
 315              		.loc 1 204 9
 316 00d6 B247     		lw	a5,12(sp)
 317 00d8 93D78769 		rev8	a5,a5
 318              	.LVL42:
 319              	.LBB82:
 320              	.LBB83:
 122:..\..\..\..\plf\riscv\NMSIS\Core\Include/core_compatiable.h **** 
 321              		.loc 2 122 5
 124:..\..\..\..\plf\riscv\NMSIS\Core\Include/core_compatiable.h ****         | ((value & 0x00ff0000) >> 8 )
 322              		.loc 2 124 5
 323              		.loc 2 128 5
 324              	.LBE83:
 325              	.LBE82:
 204:C:/Users/stapi/OneDrive/Desktop/GD32VW553/V1_MQTT_OK/GD32VW55X_Wifi_BLE_SDK/GD32VW55x_RELEASE_V1.0.2/MSDK/plf/GD32VW55x_standard_peripheral/Source\gd32vw55x_hau_sha_md5.c ****         outputaddr += 4U;
 326              		.loc 1 204 35 is_stmt 0
 327 00dc 5CC4     		sw	a5,12(s0)
 205:C:/Users/stapi/OneDrive/Desktop/GD32VW553/V1_MQTT_OK/GD32VW55X_Wifi_BLE_SDK/GD32VW55x_RELEASE_V1.0.2/MSDK/plf/GD32VW55x_standard_peripheral/Source\gd32vw55x_hau_sha_md5.c ****         *(uint32_t*)(outputaddr)  = __REV(digest_para.out[4]);
 328              		.loc 1 205 9 is_stmt 1
 329              	.LVL43:
 206:C:/Users/stapi/OneDrive/Desktop/GD32VW553/V1_MQTT_OK/GD32VW55X_Wifi_BLE_SDK/GD32VW55x_RELEASE_V1.0.2/MSDK/plf/GD32VW55x_standard_peripheral/Source\gd32vw55x_hau_sha_md5.c ****         outputaddr += 4U;
 330              		.loc 1 206 9
 331 00de C247     		lw	a5,16(sp)
 332 00e0 93D78769 		rev8	a5,a5
 333              	.LVL44:
 334              	.LBB84:
 335              	.LBB85:
 122:..\..\..\..\plf\riscv\NMSIS\Core\Include/core_compatiable.h **** 
 336              		.loc 2 122 5
 124:..\..\..\..\plf\riscv\NMSIS\Core\Include/core_compatiable.h ****         | ((value & 0x00ff0000) >> 8 )
 337              		.loc 2 124 5
 338              		.loc 2 128 5
 339              	.LBE85:
 340              	.LBE84:
 206:C:/Users/stapi/OneDrive/Desktop/GD32VW553/V1_MQTT_OK/GD32VW55X_Wifi_BLE_SDK/GD32VW55x_RELEASE_V1.0.2/MSDK/plf/GD32VW55x_standard_peripheral/Source\gd32vw55x_hau_sha_md5.c ****         outputaddr += 4U;
 341              		.loc 1 206 35 is_stmt 0
 342 00e4 1CC8     		sw	a5,16(s0)
 207:C:/Users/stapi/OneDrive/Desktop/GD32VW553/V1_MQTT_OK/GD32VW55X_Wifi_BLE_SDK/GD32VW55x_RELEASE_V1.0.2/MSDK/plf/GD32VW55x_standard_peripheral/Source\gd32vw55x_hau_sha_md5.c ****         *(uint32_t*)(outputaddr)  = __REV(digest_para.out[5]);
 343              		.loc 1 207 9 is_stmt 1
 344              	.LVL45:
 208:C:/Users/stapi/OneDrive/Desktop/GD32VW553/V1_MQTT_OK/GD32VW55X_Wifi_BLE_SDK/GD32VW55x_RELEASE_V1.0.2/MSDK/plf/GD32VW55x_standard_peripheral/Source\gd32vw55x_hau_sha_md5.c ****         outputaddr += 4U;
 345              		.loc 1 208 9
 346 00e6 D247     		lw	a5,20(sp)
 347 00e8 93D78769 		rev8	a5,a5
 348              	.LVL46:
 349              	.LBB86:
 350              	.LBB87:
 122:..\..\..\..\plf\riscv\NMSIS\Core\Include/core_compatiable.h **** 
 351              		.loc 2 122 5
 124:..\..\..\..\plf\riscv\NMSIS\Core\Include/core_compatiable.h ****         | ((value & 0x00ff0000) >> 8 )
 352              		.loc 2 124 5
 353              		.loc 2 128 5
 354              	.LBE87:
 355              	.LBE86:
 208:C:/Users/stapi/OneDrive/Desktop/GD32VW553/V1_MQTT_OK/GD32VW55X_Wifi_BLE_SDK/GD32VW55x_RELEASE_V1.0.2/MSDK/plf/GD32VW55x_standard_peripheral/Source\gd32vw55x_hau_sha_md5.c ****         outputaddr += 4U;
 356              		.loc 1 208 35 is_stmt 0
 357 00ec 5CC8     		sw	a5,20(s0)
 209:C:/Users/stapi/OneDrive/Desktop/GD32VW553/V1_MQTT_OK/GD32VW55X_Wifi_BLE_SDK/GD32VW55x_RELEASE_V1.0.2/MSDK/plf/GD32VW55x_standard_peripheral/Source\gd32vw55x_hau_sha_md5.c ****         *(uint32_t*)(outputaddr)  = __REV(digest_para.out[6]);
 358              		.loc 1 209 9 is_stmt 1
 359              	.LVL47:
 210:C:/Users/stapi/OneDrive/Desktop/GD32VW553/V1_MQTT_OK/GD32VW55X_Wifi_BLE_SDK/GD32VW55x_RELEASE_V1.0.2/MSDK/plf/GD32VW55x_standard_peripheral/Source\gd32vw55x_hau_sha_md5.c ****         break;
 360              		.loc 1 210 9
 361 00ee E247     		lw	a5,24(sp)
 362 00f0 93D78769 		rev8	a5,a5
 363              	.LVL48:
 364              	.LBB88:
 365              	.LBB89:
 122:..\..\..\..\plf\riscv\NMSIS\Core\Include/core_compatiable.h **** 
 366              		.loc 2 122 5
 124:..\..\..\..\plf\riscv\NMSIS\Core\Include/core_compatiable.h ****         | ((value & 0x00ff0000) >> 8 )
 367              		.loc 2 124 5
 368              		.loc 2 128 5
 369              	.LBE89:
 370              	.LBE88:
 210:C:/Users/stapi/OneDrive/Desktop/GD32VW553/V1_MQTT_OK/GD32VW55X_Wifi_BLE_SDK/GD32VW55x_RELEASE_V1.0.2/MSDK/plf/GD32VW55x_standard_peripheral/Source\gd32vw55x_hau_sha_md5.c ****         break;
 371              		.loc 1 210 35 is_stmt 0
 372 00f4 1CCC     		sw	a5,24(s0)
 211:C:/Users/stapi/OneDrive/Desktop/GD32VW553/V1_MQTT_OK/GD32VW55X_Wifi_BLE_SDK/GD32VW55x_RELEASE_V1.0.2/MSDK/plf/GD32VW55x_standard_peripheral/Source\gd32vw55x_hau_sha_md5.c ****     case HAU_ALGO_SHA256:
 373              		.loc 1 211 9 is_stmt 1
 374 00f6 35B7     		j	.L1
 375              	.LVL49:
 376              	.L5:
 231:C:/Users/stapi/OneDrive/Desktop/GD32VW553/V1_MQTT_OK/GD32VW55X_Wifi_BLE_SDK/GD32VW55x_RELEASE_V1.0.2/MSDK/plf/GD32VW55x_standard_peripheral/Source\gd32vw55x_hau_sha_md5.c ****         *(uint32_t*)(outputaddr)  = __REV(digest_para.out[0]);
 377              		.loc 1 231 9
 378 00f8 0A85     		mv	a0,sp
 379              	.LVL50:
 380 00fa 97000000 		call	hau_digest_read
 380      E7800000 
 381              	.LVL51:
 232:C:/Users/stapi/OneDrive/Desktop/GD32VW553/V1_MQTT_OK/GD32VW55X_Wifi_BLE_SDK/GD32VW55x_RELEASE_V1.0.2/MSDK/plf/GD32VW55x_standard_peripheral/Source\gd32vw55x_hau_sha_md5.c ****         outputaddr += 4U;
 382              		.loc 1 232 9
 383 0102 8247     		lw	a5,0(sp)
 384 0104 93D78769 		rev8	a5,a5
 385              	.LVL52:
 386              	.LBB90:
 387              	.LBB91:
 122:..\..\..\..\plf\riscv\NMSIS\Core\Include/core_compatiable.h **** 
 388              		.loc 2 122 5
 124:..\..\..\..\plf\riscv\NMSIS\Core\Include/core_compatiable.h ****         | ((value & 0x00ff0000) >> 8 )
 389              		.loc 2 124 5
 390              		.loc 2 128 5
 391              	.LBE91:
 392              	.LBE90:
 232:C:/Users/stapi/OneDrive/Desktop/GD32VW553/V1_MQTT_OK/GD32VW55X_Wifi_BLE_SDK/GD32VW55x_RELEASE_V1.0.2/MSDK/plf/GD32VW55x_standard_peripheral/Source\gd32vw55x_hau_sha_md5.c ****         outputaddr += 4U;
 393              		.loc 1 232 35 is_stmt 0
 394 0108 1CC0     		sw	a5,0(s0)
 233:C:/Users/stapi/OneDrive/Desktop/GD32VW553/V1_MQTT_OK/GD32VW55X_Wifi_BLE_SDK/GD32VW55x_RELEASE_V1.0.2/MSDK/plf/GD32VW55x_standard_peripheral/Source\gd32vw55x_hau_sha_md5.c ****         *(uint32_t*)(outputaddr)  = __REV(digest_para.out[1]);
 395              		.loc 1 233 9 is_stmt 1
 396              	.LVL53:
 234:C:/Users/stapi/OneDrive/Desktop/GD32VW553/V1_MQTT_OK/GD32VW55X_Wifi_BLE_SDK/GD32VW55x_RELEASE_V1.0.2/MSDK/plf/GD32VW55x_standard_peripheral/Source\gd32vw55x_hau_sha_md5.c ****         outputaddr += 4U;
 397              		.loc 1 234 9
 398 010a 9247     		lw	a5,4(sp)
 399 010c 93D78769 		rev8	a5,a5
 400              	.LVL54:
 401              	.LBB92:
 402              	.LBB93:
 122:..\..\..\..\plf\riscv\NMSIS\Core\Include/core_compatiable.h **** 
 403              		.loc 2 122 5
 124:..\..\..\..\plf\riscv\NMSIS\Core\Include/core_compatiable.h ****         | ((value & 0x00ff0000) >> 8 )
 404              		.loc 2 124 5
 405              		.loc 2 128 5
 406              	.LBE93:
 407              	.LBE92:
 234:C:/Users/stapi/OneDrive/Desktop/GD32VW553/V1_MQTT_OK/GD32VW55X_Wifi_BLE_SDK/GD32VW55x_RELEASE_V1.0.2/MSDK/plf/GD32VW55x_standard_peripheral/Source\gd32vw55x_hau_sha_md5.c ****         outputaddr += 4U;
 408              		.loc 1 234 35 is_stmt 0
 409 0110 5CC0     		sw	a5,4(s0)
 235:C:/Users/stapi/OneDrive/Desktop/GD32VW553/V1_MQTT_OK/GD32VW55X_Wifi_BLE_SDK/GD32VW55x_RELEASE_V1.0.2/MSDK/plf/GD32VW55x_standard_peripheral/Source\gd32vw55x_hau_sha_md5.c ****         *(uint32_t*)(outputaddr)  = __REV(digest_para.out[2]);
 410              		.loc 1 235 9 is_stmt 1
 411              	.LVL55:
 236:C:/Users/stapi/OneDrive/Desktop/GD32VW553/V1_MQTT_OK/GD32VW55X_Wifi_BLE_SDK/GD32VW55x_RELEASE_V1.0.2/MSDK/plf/GD32VW55x_standard_peripheral/Source\gd32vw55x_hau_sha_md5.c ****         outputaddr += 4U;
 412              		.loc 1 236 9
 413 0112 A247     		lw	a5,8(sp)
 414 0114 93D78769 		rev8	a5,a5
 415              	.LVL56:
 416              	.LBB94:
 417              	.LBB95:
 122:..\..\..\..\plf\riscv\NMSIS\Core\Include/core_compatiable.h **** 
 418              		.loc 2 122 5
 124:..\..\..\..\plf\riscv\NMSIS\Core\Include/core_compatiable.h ****         | ((value & 0x00ff0000) >> 8 )
 419              		.loc 2 124 5
 420              		.loc 2 128 5
 421              	.LBE95:
 422              	.LBE94:
 236:C:/Users/stapi/OneDrive/Desktop/GD32VW553/V1_MQTT_OK/GD32VW55X_Wifi_BLE_SDK/GD32VW55x_RELEASE_V1.0.2/MSDK/plf/GD32VW55x_standard_peripheral/Source\gd32vw55x_hau_sha_md5.c ****         outputaddr += 4U;
 423              		.loc 1 236 35 is_stmt 0
 424 0118 1CC4     		sw	a5,8(s0)
 237:C:/Users/stapi/OneDrive/Desktop/GD32VW553/V1_MQTT_OK/GD32VW55X_Wifi_BLE_SDK/GD32VW55x_RELEASE_V1.0.2/MSDK/plf/GD32VW55x_standard_peripheral/Source\gd32vw55x_hau_sha_md5.c ****         *(uint32_t*)(outputaddr)  = __REV(digest_para.out[3]);
 425              		.loc 1 237 9 is_stmt 1
 426              	.LVL57:
 238:C:/Users/stapi/OneDrive/Desktop/GD32VW553/V1_MQTT_OK/GD32VW55X_Wifi_BLE_SDK/GD32VW55x_RELEASE_V1.0.2/MSDK/plf/GD32VW55x_standard_peripheral/Source\gd32vw55x_hau_sha_md5.c ****         break;
 427              		.loc 1 238 9
 428 011a B247     		lw	a5,12(sp)
 429 011c 93D78769 		rev8	a5,a5
 430              	.LVL58:
 431              	.LBB96:
 432              	.LBB97:
 122:..\..\..\..\plf\riscv\NMSIS\Core\Include/core_compatiable.h **** 
 433              		.loc 2 122 5
 124:..\..\..\..\plf\riscv\NMSIS\Core\Include/core_compatiable.h ****         | ((value & 0x00ff0000) >> 8 )
 434              		.loc 2 124 5
 435              		.loc 2 128 5
 436              	.LBE97:
 437              	.LBE96:
 238:C:/Users/stapi/OneDrive/Desktop/GD32VW553/V1_MQTT_OK/GD32VW55X_Wifi_BLE_SDK/GD32VW55x_RELEASE_V1.0.2/MSDK/plf/GD32VW55x_standard_peripheral/Source\gd32vw55x_hau_sha_md5.c ****         break;
 438              		.loc 1 238 35 is_stmt 0
 439 0120 5CC4     		sw	a5,12(s0)
 239:C:/Users/stapi/OneDrive/Desktop/GD32VW553/V1_MQTT_OK/GD32VW55X_Wifi_BLE_SDK/GD32VW55x_RELEASE_V1.0.2/MSDK/plf/GD32VW55x_standard_peripheral/Source\gd32vw55x_hau_sha_md5.c ****     default:
 440              		.loc 1 239 9 is_stmt 1
 441              		.loc 1 243 1 is_stmt 0
 442 0122 01B7     		j	.L1
 443              		.cfi_endproc
 444              	.LFE373:
 446              		.section	.text.hau_hash_calculate,"ax",@progbits
 447              		.align	1
 449              	hau_hash_calculate:
 450              	.LFB374:
 244:C:/Users/stapi/OneDrive/Desktop/GD32VW553/V1_MQTT_OK/GD32VW55X_Wifi_BLE_SDK/GD32VW55x_RELEASE_V1.0.2/MSDK/plf/GD32VW55x_standard_peripheral/Source\gd32vw55x_hau_sha_md5.c **** 
 245:C:/Users/stapi/OneDrive/Desktop/GD32VW553/V1_MQTT_OK/GD32VW55X_Wifi_BLE_SDK/GD32VW55x_RELEASE_V1.0.2/MSDK/plf/GD32VW55x_standard_peripheral/Source\gd32vw55x_hau_sha_md5.c **** /*!
 246:C:/Users/stapi/OneDrive/Desktop/GD32VW553/V1_MQTT_OK/GD32VW55X_Wifi_BLE_SDK/GD32VW55x_RELEASE_V1.0.2/MSDK/plf/GD32VW55x_standard_peripheral/Source\gd32vw55x_hau_sha_md5.c ****     \brief      HAU digest calculate process in HASH mode
 247:C:/Users/stapi/OneDrive/Desktop/GD32VW553/V1_MQTT_OK/GD32VW55X_Wifi_BLE_SDK/GD32VW55x_RELEASE_V1.0.2/MSDK/plf/GD32VW55x_standard_peripheral/Source\gd32vw55x_hau_sha_md5.c ****     \param[in]  algo: algorithm selection
 248:C:/Users/stapi/OneDrive/Desktop/GD32VW553/V1_MQTT_OK/GD32VW55X_Wifi_BLE_SDK/GD32VW55x_RELEASE_V1.0.2/MSDK/plf/GD32VW55x_standard_peripheral/Source\gd32vw55x_hau_sha_md5.c ****     \param[in]  input: pointer to the input buffer
 249:C:/Users/stapi/OneDrive/Desktop/GD32VW553/V1_MQTT_OK/GD32VW55X_Wifi_BLE_SDK/GD32VW55x_RELEASE_V1.0.2/MSDK/plf/GD32VW55x_standard_peripheral/Source\gd32vw55x_hau_sha_md5.c ****     \param[in]  in_length: length of the input buffer
 250:C:/Users/stapi/OneDrive/Desktop/GD32VW553/V1_MQTT_OK/GD32VW55X_Wifi_BLE_SDK/GD32VW55x_RELEASE_V1.0.2/MSDK/plf/GD32VW55x_standard_peripheral/Source\gd32vw55x_hau_sha_md5.c ****     \param[in]  output: the result digest
 251:C:/Users/stapi/OneDrive/Desktop/GD32VW553/V1_MQTT_OK/GD32VW55X_Wifi_BLE_SDK/GD32VW55x_RELEASE_V1.0.2/MSDK/plf/GD32VW55x_standard_peripheral/Source\gd32vw55x_hau_sha_md5.c ****     \param[out] none
 252:C:/Users/stapi/OneDrive/Desktop/GD32VW553/V1_MQTT_OK/GD32VW55X_Wifi_BLE_SDK/GD32VW55x_RELEASE_V1.0.2/MSDK/plf/GD32VW55x_standard_peripheral/Source\gd32vw55x_hau_sha_md5.c ****     \retval     ErrStatus: SUCCESS or ERROR
 253:C:/Users/stapi/OneDrive/Desktop/GD32VW553/V1_MQTT_OK/GD32VW55X_Wifi_BLE_SDK/GD32VW55x_RELEASE_V1.0.2/MSDK/plf/GD32VW55x_standard_peripheral/Source\gd32vw55x_hau_sha_md5.c **** */
 254:C:/Users/stapi/OneDrive/Desktop/GD32VW553/V1_MQTT_OK/GD32VW55X_Wifi_BLE_SDK/GD32VW55x_RELEASE_V1.0.2/MSDK/plf/GD32VW55x_standard_peripheral/Source\gd32vw55x_hau_sha_md5.c **** static ErrStatus hau_hash_calculate(uint32_t algo, uint8_t *input, uint32_t in_length, uint8_t *out
 255:C:/Users/stapi/OneDrive/Desktop/GD32VW553/V1_MQTT_OK/GD32VW55X_Wifi_BLE_SDK/GD32VW55x_RELEASE_V1.0.2/MSDK/plf/GD32VW55x_standard_peripheral/Source\gd32vw55x_hau_sha_md5.c **** {
 451              		.loc 1 255 1 is_stmt 1
 452              		.cfi_startproc
 453              	.LVL59:
 454 0000 17030000 		call	t0,__riscv_save_5
 454      E7020300 
 455              		.cfi_offset 20, -24
 456              		.cfi_offset 19, -20
 457              		.cfi_offset 18, -16
 458              		.cfi_offset 9, -12
 459              		.cfi_offset 8, -8
 460              		.cfi_offset 1, -4
 461              		.cfi_def_cfa_offset 32
 256:C:/Users/stapi/OneDrive/Desktop/GD32VW553/V1_MQTT_OK/GD32VW55X_Wifi_BLE_SDK/GD32VW55x_RELEASE_V1.0.2/MSDK/plf/GD32VW55x_standard_peripheral/Source\gd32vw55x_hau_sha_md5.c ****     hau_init_parameter_struct init_para;
 462              		.loc 1 256 5
 257:C:/Users/stapi/OneDrive/Desktop/GD32VW553/V1_MQTT_OK/GD32VW55X_Wifi_BLE_SDK/GD32VW55x_RELEASE_V1.0.2/MSDK/plf/GD32VW55x_standard_peripheral/Source\gd32vw55x_hau_sha_md5.c **** 
 258:C:/Users/stapi/OneDrive/Desktop/GD32VW553/V1_MQTT_OK/GD32VW55X_Wifi_BLE_SDK/GD32VW55x_RELEASE_V1.0.2/MSDK/plf/GD32VW55x_standard_peripheral/Source\gd32vw55x_hau_sha_md5.c ****     __IO uint32_t num_last_valid = 0U;
 463              		.loc 1 258 5
 255:C:/Users/stapi/OneDrive/Desktop/GD32VW553/V1_MQTT_OK/GD32VW55X_Wifi_BLE_SDK/GD32VW55x_RELEASE_V1.0.2/MSDK/plf/GD32VW55x_standard_peripheral/Source\gd32vw55x_hau_sha_md5.c ****     hau_init_parameter_struct init_para;
 464              		.loc 1 255 1 is_stmt 0
 465 0008 0111     		addi	sp,sp,-32
 466              		.cfi_def_cfa_offset 64
 259:C:/Users/stapi/OneDrive/Desktop/GD32VW553/V1_MQTT_OK/GD32VW55X_Wifi_BLE_SDK/GD32VW55x_RELEASE_V1.0.2/MSDK/plf/GD32VW55x_standard_peripheral/Source\gd32vw55x_hau_sha_md5.c ****     uint32_t i = 0U;
 260:C:/Users/stapi/OneDrive/Desktop/GD32VW553/V1_MQTT_OK/GD32VW55X_Wifi_BLE_SDK/GD32VW55x_RELEASE_V1.0.2/MSDK/plf/GD32VW55x_standard_peripheral/Source\gd32vw55x_hau_sha_md5.c ****     __IO uint32_t counter = 0U;
 261:C:/Users/stapi/OneDrive/Desktop/GD32VW553/V1_MQTT_OK/GD32VW55X_Wifi_BLE_SDK/GD32VW55x_RELEASE_V1.0.2/MSDK/plf/GD32VW55x_standard_peripheral/Source\gd32vw55x_hau_sha_md5.c ****     uint32_t busystatus = 0U;
 262:C:/Users/stapi/OneDrive/Desktop/GD32VW553/V1_MQTT_OK/GD32VW55X_Wifi_BLE_SDK/GD32VW55x_RELEASE_V1.0.2/MSDK/plf/GD32VW55x_standard_peripheral/Source\gd32vw55x_hau_sha_md5.c ****     uint32_t inputaddr  = (uint32_t)input;
 263:C:/Users/stapi/OneDrive/Desktop/GD32VW553/V1_MQTT_OK/GD32VW55X_Wifi_BLE_SDK/GD32VW55x_RELEASE_V1.0.2/MSDK/plf/GD32VW55x_standard_peripheral/Source\gd32vw55x_hau_sha_md5.c **** 
 264:C:/Users/stapi/OneDrive/Desktop/GD32VW553/V1_MQTT_OK/GD32VW55X_Wifi_BLE_SDK/GD32VW55x_RELEASE_V1.0.2/MSDK/plf/GD32VW55x_standard_peripheral/Source\gd32vw55x_hau_sha_md5.c ****     /* number of valid bits in last word */
 265:C:/Users/stapi/OneDrive/Desktop/GD32VW553/V1_MQTT_OK/GD32VW55X_Wifi_BLE_SDK/GD32VW55x_RELEASE_V1.0.2/MSDK/plf/GD32VW55x_standard_peripheral/Source\gd32vw55x_hau_sha_md5.c ****     num_last_valid = 8U * (in_length % 4U);
 467              		.loc 1 265 38
 468 000a 93773600 		andi	a5,a2,3
 258:C:/Users/stapi/OneDrive/Desktop/GD32VW553/V1_MQTT_OK/GD32VW55X_Wifi_BLE_SDK/GD32VW55x_RELEASE_V1.0.2/MSDK/plf/GD32VW55x_standard_peripheral/Source\gd32vw55x_hau_sha_md5.c ****     uint32_t i = 0U;
 469              		.loc 1 258 19
 470 000e 02C4     		sw	zero,8(sp)
 259:C:/Users/stapi/OneDrive/Desktop/GD32VW553/V1_MQTT_OK/GD32VW55X_Wifi_BLE_SDK/GD32VW55x_RELEASE_V1.0.2/MSDK/plf/GD32VW55x_standard_peripheral/Source\gd32vw55x_hau_sha_md5.c ****     uint32_t i = 0U;
 471              		.loc 1 259 5 is_stmt 1
 472              	.LVL60:
 260:C:/Users/stapi/OneDrive/Desktop/GD32VW553/V1_MQTT_OK/GD32VW55X_Wifi_BLE_SDK/GD32VW55x_RELEASE_V1.0.2/MSDK/plf/GD32VW55x_standard_peripheral/Source\gd32vw55x_hau_sha_md5.c ****     uint32_t busystatus = 0U;
 473              		.loc 1 260 5
 474              		.loc 1 265 25 is_stmt 0
 475 0010 8E07     		slli	a5,a5,3
 260:C:/Users/stapi/OneDrive/Desktop/GD32VW553/V1_MQTT_OK/GD32VW55X_Wifi_BLE_SDK/GD32VW55x_RELEASE_V1.0.2/MSDK/plf/GD32VW55x_standard_peripheral/Source\gd32vw55x_hau_sha_md5.c ****     uint32_t busystatus = 0U;
 476              		.loc 1 260 19
 477 0012 02C6     		sw	zero,12(sp)
 261:C:/Users/stapi/OneDrive/Desktop/GD32VW553/V1_MQTT_OK/GD32VW55X_Wifi_BLE_SDK/GD32VW55x_RELEASE_V1.0.2/MSDK/plf/GD32VW55x_standard_peripheral/Source\gd32vw55x_hau_sha_md5.c ****     uint32_t inputaddr  = (uint32_t)input;
 478              		.loc 1 261 5 is_stmt 1
 479              	.LVL61:
 262:C:/Users/stapi/OneDrive/Desktop/GD32VW553/V1_MQTT_OK/GD32VW55X_Wifi_BLE_SDK/GD32VW55x_RELEASE_V1.0.2/MSDK/plf/GD32VW55x_standard_peripheral/Source\gd32vw55x_hau_sha_md5.c **** 
 480              		.loc 1 262 5
 255:C:/Users/stapi/OneDrive/Desktop/GD32VW553/V1_MQTT_OK/GD32VW55X_Wifi_BLE_SDK/GD32VW55x_RELEASE_V1.0.2/MSDK/plf/GD32VW55x_standard_peripheral/Source\gd32vw55x_hau_sha_md5.c ****     hau_init_parameter_struct init_para;
 481              		.loc 1 255 1 is_stmt 0
 482 0014 2A84     		mv	s0,a0
 483 0016 2E8A     		mv	s4,a1
 484              	.LVL62:
 485              		.loc 1 265 5 is_stmt 1
 255:C:/Users/stapi/OneDrive/Desktop/GD32VW553/V1_MQTT_OK/GD32VW55X_Wifi_BLE_SDK/GD32VW55x_RELEASE_V1.0.2/MSDK/plf/GD32VW55x_standard_peripheral/Source\gd32vw55x_hau_sha_md5.c ****     hau_init_parameter_struct init_para;
 486              		.loc 1 255 1 is_stmt 0
 487 0018 B284     		mv	s1,a2
 488 001a B689     		mv	s3,a3
 489              		.loc 1 265 20
 490 001c 3EC4     		sw	a5,8(sp)
 266:C:/Users/stapi/OneDrive/Desktop/GD32VW553/V1_MQTT_OK/GD32VW55X_Wifi_BLE_SDK/GD32VW55x_RELEASE_V1.0.2/MSDK/plf/GD32VW55x_standard_peripheral/Source\gd32vw55x_hau_sha_md5.c **** 
 267:C:/Users/stapi/OneDrive/Desktop/GD32VW553/V1_MQTT_OK/GD32VW55X_Wifi_BLE_SDK/GD32VW55x_RELEASE_V1.0.2/MSDK/plf/GD32VW55x_standard_peripheral/Source\gd32vw55x_hau_sha_md5.c ****     /* HAU peripheral initialization */
 268:C:/Users/stapi/OneDrive/Desktop/GD32VW553/V1_MQTT_OK/GD32VW55X_Wifi_BLE_SDK/GD32VW55x_RELEASE_V1.0.2/MSDK/plf/GD32VW55x_standard_peripheral/Source\gd32vw55x_hau_sha_md5.c ****     hau_deinit();
 491              		.loc 1 268 5 is_stmt 1
 492 001e 97000000 		call	hau_deinit
 492      E7800000 
 493              	.LVL63:
 269:C:/Users/stapi/OneDrive/Desktop/GD32VW553/V1_MQTT_OK/GD32VW55X_Wifi_BLE_SDK/GD32VW55x_RELEASE_V1.0.2/MSDK/plf/GD32VW55x_standard_peripheral/Source\gd32vw55x_hau_sha_md5.c **** 
 270:C:/Users/stapi/OneDrive/Desktop/GD32VW553/V1_MQTT_OK/GD32VW55X_Wifi_BLE_SDK/GD32VW55x_RELEASE_V1.0.2/MSDK/plf/GD32VW55x_standard_peripheral/Source\gd32vw55x_hau_sha_md5.c ****     /* HAU configuration */
 271:C:/Users/stapi/OneDrive/Desktop/GD32VW553/V1_MQTT_OK/GD32VW55X_Wifi_BLE_SDK/GD32VW55x_RELEASE_V1.0.2/MSDK/plf/GD32VW55x_standard_peripheral/Source\gd32vw55x_hau_sha_md5.c ****     init_para.algo = algo;
 494              		.loc 1 271 5
 272:C:/Users/stapi/OneDrive/Desktop/GD32VW553/V1_MQTT_OK/GD32VW55X_Wifi_BLE_SDK/GD32VW55x_RELEASE_V1.0.2/MSDK/plf/GD32VW55x_standard_peripheral/Source\gd32vw55x_hau_sha_md5.c ****     init_para.mode = HAU_MODE_HASH;
 273:C:/Users/stapi/OneDrive/Desktop/GD32VW553/V1_MQTT_OK/GD32VW55X_Wifi_BLE_SDK/GD32VW55x_RELEASE_V1.0.2/MSDK/plf/GD32VW55x_standard_peripheral/Source\gd32vw55x_hau_sha_md5.c ****     init_para.datatype = HAU_SWAPPING_8BIT;
 495              		.loc 1 273 24 is_stmt 0
 496 0026 93070002 		li	a5,32
 274:C:/Users/stapi/OneDrive/Desktop/GD32VW553/V1_MQTT_OK/GD32VW55X_Wifi_BLE_SDK/GD32VW55x_RELEASE_V1.0.2/MSDK/plf/GD32VW55x_standard_peripheral/Source\gd32vw55x_hau_sha_md5.c ****     hau_init(&init_para);
 497              		.loc 1 274 5
 498 002a 0808     		addi	a0,sp,16
 273:C:/Users/stapi/OneDrive/Desktop/GD32VW553/V1_MQTT_OK/GD32VW55X_Wifi_BLE_SDK/GD32VW55x_RELEASE_V1.0.2/MSDK/plf/GD32VW55x_standard_peripheral/Source\gd32vw55x_hau_sha_md5.c ****     hau_init(&init_para);
 499              		.loc 1 273 24
 500 002c 3ECC     		sw	a5,24(sp)
 271:C:/Users/stapi/OneDrive/Desktop/GD32VW553/V1_MQTT_OK/GD32VW55X_Wifi_BLE_SDK/GD32VW55x_RELEASE_V1.0.2/MSDK/plf/GD32VW55x_standard_peripheral/Source\gd32vw55x_hau_sha_md5.c ****     init_para.mode = HAU_MODE_HASH;
 501              		.loc 1 271 20
 502 002e 22C8     		sw	s0,16(sp)
 272:C:/Users/stapi/OneDrive/Desktop/GD32VW553/V1_MQTT_OK/GD32VW55X_Wifi_BLE_SDK/GD32VW55x_RELEASE_V1.0.2/MSDK/plf/GD32VW55x_standard_peripheral/Source\gd32vw55x_hau_sha_md5.c ****     init_para.datatype = HAU_SWAPPING_8BIT;
 503              		.loc 1 272 5 is_stmt 1
 272:C:/Users/stapi/OneDrive/Desktop/GD32VW553/V1_MQTT_OK/GD32VW55X_Wifi_BLE_SDK/GD32VW55x_RELEASE_V1.0.2/MSDK/plf/GD32VW55x_standard_peripheral/Source\gd32vw55x_hau_sha_md5.c ****     init_para.datatype = HAU_SWAPPING_8BIT;
 504              		.loc 1 272 20 is_stmt 0
 505 0030 02CA     		sw	zero,20(sp)
 273:C:/Users/stapi/OneDrive/Desktop/GD32VW553/V1_MQTT_OK/GD32VW55X_Wifi_BLE_SDK/GD32VW55x_RELEASE_V1.0.2/MSDK/plf/GD32VW55x_standard_peripheral/Source\gd32vw55x_hau_sha_md5.c ****     hau_init(&init_para);
 506              		.loc 1 273 5 is_stmt 1
 507              		.loc 1 274 5
 508 0032 97000000 		call	hau_init
 508      E7800000 
 509              	.LVL64:
 275:C:/Users/stapi/OneDrive/Desktop/GD32VW553/V1_MQTT_OK/GD32VW55X_Wifi_BLE_SDK/GD32VW55x_RELEASE_V1.0.2/MSDK/plf/GD32VW55x_standard_peripheral/Source\gd32vw55x_hau_sha_md5.c **** 
 276:C:/Users/stapi/OneDrive/Desktop/GD32VW553/V1_MQTT_OK/GD32VW55X_Wifi_BLE_SDK/GD32VW55x_RELEASE_V1.0.2/MSDK/plf/GD32VW55x_standard_peripheral/Source\gd32vw55x_hau_sha_md5.c ****     /* configure the number of valid bits in last word of the message */
 277:C:/Users/stapi/OneDrive/Desktop/GD32VW553/V1_MQTT_OK/GD32VW55X_Wifi_BLE_SDK/GD32VW55x_RELEASE_V1.0.2/MSDK/plf/GD32VW55x_standard_peripheral/Source\gd32vw55x_hau_sha_md5.c ****     hau_last_word_validbits_num_config(num_last_valid);
 510              		.loc 1 277 5
 511 003a 2245     		lw	a0,8(sp)
 278:C:/Users/stapi/OneDrive/Desktop/GD32VW553/V1_MQTT_OK/GD32VW55X_Wifi_BLE_SDK/GD32VW55x_RELEASE_V1.0.2/MSDK/plf/GD32VW55x_standard_peripheral/Source\gd32vw55x_hau_sha_md5.c **** 
 279:C:/Users/stapi/OneDrive/Desktop/GD32VW553/V1_MQTT_OK/GD32VW55X_Wifi_BLE_SDK/GD32VW55x_RELEASE_V1.0.2/MSDK/plf/GD32VW55x_standard_peripheral/Source\gd32vw55x_hau_sha_md5.c ****     /* write data to the IN FIFO */
 280:C:/Users/stapi/OneDrive/Desktop/GD32VW553/V1_MQTT_OK/GD32VW55X_Wifi_BLE_SDK/GD32VW55x_RELEASE_V1.0.2/MSDK/plf/GD32VW55x_standard_peripheral/Source\gd32vw55x_hau_sha_md5.c ****     for(i = 0U; i < in_length; i += 4U){
 512              		.loc 1 280 11 is_stmt 0
 513 003c 0149     		li	s2,0
 277:C:/Users/stapi/OneDrive/Desktop/GD32VW553/V1_MQTT_OK/GD32VW55X_Wifi_BLE_SDK/GD32VW55x_RELEASE_V1.0.2/MSDK/plf/GD32VW55x_standard_peripheral/Source\gd32vw55x_hau_sha_md5.c **** 
 514              		.loc 1 277 5
 515 003e 97000000 		call	hau_last_word_validbits_num_config
 515      E7800000 
 516              	.LVL65:
 517              		.loc 1 280 5 is_stmt 1
 518              	.L10:
 519              		.loc 1 280 17 discriminator 1
 520              		.loc 1 280 5 is_stmt 0 discriminator 1
 521 0046 636C9902 		bltu	s2,s1,.L11
 281:C:/Users/stapi/OneDrive/Desktop/GD32VW553/V1_MQTT_OK/GD32VW55X_Wifi_BLE_SDK/GD32VW55x_RELEASE_V1.0.2/MSDK/plf/GD32VW55x_standard_peripheral/Source\gd32vw55x_hau_sha_md5.c ****         hau_data_write(*(uint32_t*)inputaddr);
 282:C:/Users/stapi/OneDrive/Desktop/GD32VW553/V1_MQTT_OK/GD32VW55X_Wifi_BLE_SDK/GD32VW55x_RELEASE_V1.0.2/MSDK/plf/GD32VW55x_standard_peripheral/Source\gd32vw55x_hau_sha_md5.c ****         inputaddr += 4U;
 283:C:/Users/stapi/OneDrive/Desktop/GD32VW553/V1_MQTT_OK/GD32VW55X_Wifi_BLE_SDK/GD32VW55x_RELEASE_V1.0.2/MSDK/plf/GD32VW55x_standard_peripheral/Source\gd32vw55x_hau_sha_md5.c ****     }
 284:C:/Users/stapi/OneDrive/Desktop/GD32VW553/V1_MQTT_OK/GD32VW55X_Wifi_BLE_SDK/GD32VW55x_RELEASE_V1.0.2/MSDK/plf/GD32VW55x_standard_peripheral/Source\gd32vw55x_hau_sha_md5.c **** 
 285:C:/Users/stapi/OneDrive/Desktop/GD32VW553/V1_MQTT_OK/GD32VW55X_Wifi_BLE_SDK/GD32VW55x_RELEASE_V1.0.2/MSDK/plf/GD32VW55x_standard_peripheral/Source\gd32vw55x_hau_sha_md5.c ****     /* enable digest calculation */
 286:C:/Users/stapi/OneDrive/Desktop/GD32VW553/V1_MQTT_OK/GD32VW55X_Wifi_BLE_SDK/GD32VW55x_RELEASE_V1.0.2/MSDK/plf/GD32VW55x_standard_peripheral/Source\gd32vw55x_hau_sha_md5.c ****     hau_digest_calculation_enable();
 522              		.loc 1 286 5 is_stmt 1
 523 004a 97000000 		call	hau_digest_calculation_enable
 523      E7800000 
 524              	.LVL66:
 287:C:/Users/stapi/OneDrive/Desktop/GD32VW553/V1_MQTT_OK/GD32VW55X_Wifi_BLE_SDK/GD32VW55x_RELEASE_V1.0.2/MSDK/plf/GD32VW55x_standard_peripheral/Source\gd32vw55x_hau_sha_md5.c **** 
 288:C:/Users/stapi/OneDrive/Desktop/GD32VW553/V1_MQTT_OK/GD32VW55X_Wifi_BLE_SDK/GD32VW55x_RELEASE_V1.0.2/MSDK/plf/GD32VW55x_standard_peripheral/Source\gd32vw55x_hau_sha_md5.c ****     /* wait until the busy flag is reset */
 289:C:/Users/stapi/OneDrive/Desktop/GD32VW553/V1_MQTT_OK/GD32VW55X_Wifi_BLE_SDK/GD32VW55x_RELEASE_V1.0.2/MSDK/plf/GD32VW55x_standard_peripheral/Source\gd32vw55x_hau_sha_md5.c ****     do{
 290:C:/Users/stapi/OneDrive/Desktop/GD32VW553/V1_MQTT_OK/GD32VW55X_Wifi_BLE_SDK/GD32VW55x_RELEASE_V1.0.2/MSDK/plf/GD32VW55x_standard_peripheral/Source\gd32vw55x_hau_sha_md5.c ****         busystatus = hau_flag_get(HAU_FLAG_BUSY);
 291:C:/Users/stapi/OneDrive/Desktop/GD32VW553/V1_MQTT_OK/GD32VW55X_Wifi_BLE_SDK/GD32VW55x_RELEASE_V1.0.2/MSDK/plf/GD32VW55x_standard_peripheral/Source\gd32vw55x_hau_sha_md5.c ****         counter++;
 292:C:/Users/stapi/OneDrive/Desktop/GD32VW553/V1_MQTT_OK/GD32VW55X_Wifi_BLE_SDK/GD32VW55x_RELEASE_V1.0.2/MSDK/plf/GD32VW55x_standard_peripheral/Source\gd32vw55x_hau_sha_md5.c ****     }while((SHAMD5_BSY_TIMEOUT != counter) && (RESET != busystatus));
 525              		.loc 1 292 5 is_stmt 0
 526 0052 C164     		li	s1,65536
 527              	.LVL67:
 528              	.L13:
 289:C:/Users/stapi/OneDrive/Desktop/GD32VW553/V1_MQTT_OK/GD32VW55X_Wifi_BLE_SDK/GD32VW55x_RELEASE_V1.0.2/MSDK/plf/GD32VW55x_standard_peripheral/Source\gd32vw55x_hau_sha_md5.c ****         busystatus = hau_flag_get(HAU_FLAG_BUSY);
 529              		.loc 1 289 5 is_stmt 1 discriminator 2
 290:C:/Users/stapi/OneDrive/Desktop/GD32VW553/V1_MQTT_OK/GD32VW55X_Wifi_BLE_SDK/GD32VW55x_RELEASE_V1.0.2/MSDK/plf/GD32VW55x_standard_peripheral/Source\gd32vw55x_hau_sha_md5.c ****         counter++;
 530              		.loc 1 290 9 discriminator 2
 290:C:/Users/stapi/OneDrive/Desktop/GD32VW553/V1_MQTT_OK/GD32VW55X_Wifi_BLE_SDK/GD32VW55x_RELEASE_V1.0.2/MSDK/plf/GD32VW55x_standard_peripheral/Source\gd32vw55x_hau_sha_md5.c ****         counter++;
 531              		.loc 1 290 22 is_stmt 0 discriminator 2
 532 0054 2145     		li	a0,8
 533 0056 97000000 		call	hau_flag_get
 533      E7800000 
 534              	.LVL68:
 291:C:/Users/stapi/OneDrive/Desktop/GD32VW553/V1_MQTT_OK/GD32VW55X_Wifi_BLE_SDK/GD32VW55x_RELEASE_V1.0.2/MSDK/plf/GD32VW55x_standard_peripheral/Source\gd32vw55x_hau_sha_md5.c ****     }while((SHAMD5_BSY_TIMEOUT != counter) && (RESET != busystatus));
 535              		.loc 1 291 16 discriminator 2
 536 005e 3247     		lw	a4,12(sp)
 290:C:/Users/stapi/OneDrive/Desktop/GD32VW553/V1_MQTT_OK/GD32VW55X_Wifi_BLE_SDK/GD32VW55x_RELEASE_V1.0.2/MSDK/plf/GD32VW55x_standard_peripheral/Source\gd32vw55x_hau_sha_md5.c ****         counter++;
 537              		.loc 1 290 22 discriminator 2
 538 0060 AA87     		mv	a5,a0
 539              	.LVL69:
 291:C:/Users/stapi/OneDrive/Desktop/GD32VW553/V1_MQTT_OK/GD32VW55X_Wifi_BLE_SDK/GD32VW55x_RELEASE_V1.0.2/MSDK/plf/GD32VW55x_standard_peripheral/Source\gd32vw55x_hau_sha_md5.c ****     }while((SHAMD5_BSY_TIMEOUT != counter) && (RESET != busystatus));
 540              		.loc 1 291 9 is_stmt 1 discriminator 2
 291:C:/Users/stapi/OneDrive/Desktop/GD32VW553/V1_MQTT_OK/GD32VW55X_Wifi_BLE_SDK/GD32VW55x_RELEASE_V1.0.2/MSDK/plf/GD32VW55x_standard_peripheral/Source\gd32vw55x_hau_sha_md5.c ****     }while((SHAMD5_BSY_TIMEOUT != counter) && (RESET != busystatus));
 541              		.loc 1 291 16 is_stmt 0 discriminator 2
 542 0062 0507     		addi	a4,a4,1
 543 0064 3AC6     		sw	a4,12(sp)
 544              		.loc 1 292 11 is_stmt 1 discriminator 2
 545              		.loc 1 292 32 is_stmt 0 discriminator 2
 546 0066 3247     		lw	a4,12(sp)
 547              		.loc 1 292 5 discriminator 2
 548 0068 63049702 		beq	a4,s1,.L12
 549              		.loc 1 292 44 discriminator 1
 550 006c 65F5     		bne	a0,zero,.L13
 551              	.LVL70:
 552              	.L14:
 293:C:/Users/stapi/OneDrive/Desktop/GD32VW553/V1_MQTT_OK/GD32VW55X_Wifi_BLE_SDK/GD32VW55x_RELEASE_V1.0.2/MSDK/plf/GD32VW55x_standard_peripheral/Source\gd32vw55x_hau_sha_md5.c **** 
 294:C:/Users/stapi/OneDrive/Desktop/GD32VW553/V1_MQTT_OK/GD32VW55X_Wifi_BLE_SDK/GD32VW55x_RELEASE_V1.0.2/MSDK/plf/GD32VW55x_standard_peripheral/Source\gd32vw55x_hau_sha_md5.c ****     if(RESET != busystatus){
 295:C:/Users/stapi/OneDrive/Desktop/GD32VW553/V1_MQTT_OK/GD32VW55X_Wifi_BLE_SDK/GD32VW55x_RELEASE_V1.0.2/MSDK/plf/GD32VW55x_standard_peripheral/Source\gd32vw55x_hau_sha_md5.c ****         return ERROR;
 296:C:/Users/stapi/OneDrive/Desktop/GD32VW553/V1_MQTT_OK/GD32VW55X_Wifi_BLE_SDK/GD32VW55x_RELEASE_V1.0.2/MSDK/plf/GD32VW55x_standard_peripheral/Source\gd32vw55x_hau_sha_md5.c ****     }else{
 297:C:/Users/stapi/OneDrive/Desktop/GD32VW553/V1_MQTT_OK/GD32VW55X_Wifi_BLE_SDK/GD32VW55x_RELEASE_V1.0.2/MSDK/plf/GD32VW55x_standard_peripheral/Source\gd32vw55x_hau_sha_md5.c ****         /* read the message digest */
 298:C:/Users/stapi/OneDrive/Desktop/GD32VW553/V1_MQTT_OK/GD32VW55X_Wifi_BLE_SDK/GD32VW55x_RELEASE_V1.0.2/MSDK/plf/GD32VW55x_standard_peripheral/Source\gd32vw55x_hau_sha_md5.c ****         hau_sha_md5_digest_read(algo, output);
 553              		.loc 1 298 9 is_stmt 1
 554 006e 2285     		mv	a0,s0
 555 0070 CE85     		mv	a1,s3
 556 0072 97000000 		call	hau_sha_md5_digest_read
 556      E7800000 
 557              	.LVL71:
 299:C:/Users/stapi/OneDrive/Desktop/GD32VW553/V1_MQTT_OK/GD32VW55X_Wifi_BLE_SDK/GD32VW55x_RELEASE_V1.0.2/MSDK/plf/GD32VW55x_standard_peripheral/Source\gd32vw55x_hau_sha_md5.c ****     }
 300:C:/Users/stapi/OneDrive/Desktop/GD32VW553/V1_MQTT_OK/GD32VW55X_Wifi_BLE_SDK/GD32VW55x_RELEASE_V1.0.2/MSDK/plf/GD32VW55x_standard_peripheral/Source\gd32vw55x_hau_sha_md5.c ****     return SUCCESS;
 558              		.loc 1 300 5
 559              		.loc 1 300 12 is_stmt 0
 560 007a 0545     		li	a0,1
 561 007c 21A8     		j	.L9
 562              	.LVL72:
 563              	.L11:
 281:C:/Users/stapi/OneDrive/Desktop/GD32VW553/V1_MQTT_OK/GD32VW55X_Wifi_BLE_SDK/GD32VW55x_RELEASE_V1.0.2/MSDK/plf/GD32VW55x_standard_peripheral/Source\gd32vw55x_hau_sha_md5.c ****         inputaddr += 4U;
 564              		.loc 1 281 9 is_stmt 1 discriminator 3
 565 007e B3072A01 		add	a5,s4,s2
 566 0082 8843     		lw	a0,0(a5)
 280:C:/Users/stapi/OneDrive/Desktop/GD32VW553/V1_MQTT_OK/GD32VW55X_Wifi_BLE_SDK/GD32VW55x_RELEASE_V1.0.2/MSDK/plf/GD32VW55x_standard_peripheral/Source\gd32vw55x_hau_sha_md5.c ****         hau_data_write(*(uint32_t*)inputaddr);
 567              		.loc 1 280 34 is_stmt 0 discriminator 3
 568 0084 1109     		addi	s2,s2,4
 569              	.LVL73:
 281:C:/Users/stapi/OneDrive/Desktop/GD32VW553/V1_MQTT_OK/GD32VW55X_Wifi_BLE_SDK/GD32VW55x_RELEASE_V1.0.2/MSDK/plf/GD32VW55x_standard_peripheral/Source\gd32vw55x_hau_sha_md5.c ****         inputaddr += 4U;
 570              		.loc 1 281 9 discriminator 3
 571 0086 97000000 		call	hau_data_write
 571      E7800000 
 572              	.LVL74:
 282:C:/Users/stapi/OneDrive/Desktop/GD32VW553/V1_MQTT_OK/GD32VW55X_Wifi_BLE_SDK/GD32VW55x_RELEASE_V1.0.2/MSDK/plf/GD32VW55x_standard_peripheral/Source\gd32vw55x_hau_sha_md5.c ****     }
 573              		.loc 1 282 9 is_stmt 1 discriminator 3
 280:C:/Users/stapi/OneDrive/Desktop/GD32VW553/V1_MQTT_OK/GD32VW55X_Wifi_BLE_SDK/GD32VW55x_RELEASE_V1.0.2/MSDK/plf/GD32VW55x_standard_peripheral/Source\gd32vw55x_hau_sha_md5.c ****         hau_data_write(*(uint32_t*)inputaddr);
 574              		.loc 1 280 32 discriminator 3
 575 008e 65BF     		j	.L10
 576              	.LVL75:
 577              	.L12:
 294:C:/Users/stapi/OneDrive/Desktop/GD32VW553/V1_MQTT_OK/GD32VW55X_Wifi_BLE_SDK/GD32VW55x_RELEASE_V1.0.2/MSDK/plf/GD32VW55x_standard_peripheral/Source\gd32vw55x_hau_sha_md5.c ****         return ERROR;
 578              		.loc 1 294 5
 295:C:/Users/stapi/OneDrive/Desktop/GD32VW553/V1_MQTT_OK/GD32VW55X_Wifi_BLE_SDK/GD32VW55x_RELEASE_V1.0.2/MSDK/plf/GD32VW55x_standard_peripheral/Source\gd32vw55x_hau_sha_md5.c ****     }else{
 579              		.loc 1 295 16 is_stmt 0
 580 0090 0145     		li	a0,0
 581              	.LVL76:
 294:C:/Users/stapi/OneDrive/Desktop/GD32VW553/V1_MQTT_OK/GD32VW55X_Wifi_BLE_SDK/GD32VW55x_RELEASE_V1.0.2/MSDK/plf/GD32VW55x_standard_peripheral/Source\gd32vw55x_hau_sha_md5.c ****         return ERROR;
 582              		.loc 1 294 7
 583 0092 F1DF     		beq	a5,zero,.L14
 584              	.LVL77:
 585              	.L9:
 301:C:/Users/stapi/OneDrive/Desktop/GD32VW553/V1_MQTT_OK/GD32VW55X_Wifi_BLE_SDK/GD32VW55x_RELEASE_V1.0.2/MSDK/plf/GD32VW55x_standard_peripheral/Source\gd32vw55x_hau_sha_md5.c **** }
 586              		.loc 1 301 1
 587 0094 0561     		addi	sp,sp,32
 588              		.cfi_def_cfa_offset 0
 589 0096 17030000 		tail	__riscv_restore_5
 589      67000300 
 590              		.cfi_restore 20
 591              		.cfi_restore 19
 592              		.cfi_restore 18
 593              		.cfi_restore 9
 594              		.cfi_restore 8
 595              		.cfi_restore 1
 596              		.cfi_def_cfa_offset -32
 597              		.cfi_endproc
 598              	.LFE374:
 600              		.section	.text.hau_hash_sha_1,"ax",@progbits
 601              		.align	1
 602              		.globl	hau_hash_sha_1
 604              	hau_hash_sha_1:
 605              	.LFB365:
  53:C:/Users/stapi/OneDrive/Desktop/GD32VW553/V1_MQTT_OK/GD32VW55X_Wifi_BLE_SDK/GD32VW55x_RELEASE_V1.0.2/MSDK/plf/GD32VW55x_standard_peripheral/Source\gd32vw55x_hau_sha_md5.c ****     ErrStatus ret = ERROR;
 606              		.loc 1 53 1 is_stmt 1
 607              		.cfi_startproc
 608              	.LVL78:
  54:C:/Users/stapi/OneDrive/Desktop/GD32VW553/V1_MQTT_OK/GD32VW55X_Wifi_BLE_SDK/GD32VW55x_RELEASE_V1.0.2/MSDK/plf/GD32VW55x_standard_peripheral/Source\gd32vw55x_hau_sha_md5.c ****     ret = hau_hash_calculate(HAU_ALGO_SHA1, input, in_length, output);
 609              		.loc 1 54 5
  55:C:/Users/stapi/OneDrive/Desktop/GD32VW553/V1_MQTT_OK/GD32VW55X_Wifi_BLE_SDK/GD32VW55x_RELEASE_V1.0.2/MSDK/plf/GD32VW55x_standard_peripheral/Source\gd32vw55x_hau_sha_md5.c ****     return ret;
 610              		.loc 1 55 5
  53:C:/Users/stapi/OneDrive/Desktop/GD32VW553/V1_MQTT_OK/GD32VW55X_Wifi_BLE_SDK/GD32VW55x_RELEASE_V1.0.2/MSDK/plf/GD32VW55x_standard_peripheral/Source\gd32vw55x_hau_sha_md5.c ****     ErrStatus ret = ERROR;
 611              		.loc 1 53 1 is_stmt 0
 612 0000 B286     		mv	a3,a2
  55:C:/Users/stapi/OneDrive/Desktop/GD32VW553/V1_MQTT_OK/GD32VW55X_Wifi_BLE_SDK/GD32VW55x_RELEASE_V1.0.2/MSDK/plf/GD32VW55x_standard_peripheral/Source\gd32vw55x_hau_sha_md5.c ****     return ret;
 613              		.loc 1 55 11
 614 0002 2E86     		mv	a2,a1
 615              	.LVL79:
 616 0004 AA85     		mv	a1,a0
 617              	.LVL80:
 618 0006 0145     		li	a0,0
 619              	.LVL81:
 620 0008 17030000 		tail	hau_hash_calculate
 620      67000300 
 621              	.LVL82:
  56:C:/Users/stapi/OneDrive/Desktop/GD32VW553/V1_MQTT_OK/GD32VW55X_Wifi_BLE_SDK/GD32VW55x_RELEASE_V1.0.2/MSDK/plf/GD32VW55x_standard_peripheral/Source\gd32vw55x_hau_sha_md5.c **** }
 622              		.loc 1 56 5 is_stmt 1
 623              		.cfi_endproc
 624              	.LFE365:
 626              		.section	.text.hau_hash_sha_224,"ax",@progbits
 627              		.align	1
 628              		.globl	hau_hash_sha_224
 630              	hau_hash_sha_224:
 631              	.LFB367:
  85:C:/Users/stapi/OneDrive/Desktop/GD32VW553/V1_MQTT_OK/GD32VW55X_Wifi_BLE_SDK/GD32VW55x_RELEASE_V1.0.2/MSDK/plf/GD32VW55x_standard_peripheral/Source\gd32vw55x_hau_sha_md5.c ****     ErrStatus ret = ERROR;
 632              		.loc 1 85 1
 633              		.cfi_startproc
 634              	.LVL83:
  86:C:/Users/stapi/OneDrive/Desktop/GD32VW553/V1_MQTT_OK/GD32VW55X_Wifi_BLE_SDK/GD32VW55x_RELEASE_V1.0.2/MSDK/plf/GD32VW55x_standard_peripheral/Source\gd32vw55x_hau_sha_md5.c ****     ret = hau_hash_calculate(HAU_ALGO_SHA224, input, in_length, output);
 635              		.loc 1 86 5
  87:C:/Users/stapi/OneDrive/Desktop/GD32VW553/V1_MQTT_OK/GD32VW55X_Wifi_BLE_SDK/GD32VW55x_RELEASE_V1.0.2/MSDK/plf/GD32VW55x_standard_peripheral/Source\gd32vw55x_hau_sha_md5.c ****     return ret;
 636              		.loc 1 87 5
  85:C:/Users/stapi/OneDrive/Desktop/GD32VW553/V1_MQTT_OK/GD32VW55X_Wifi_BLE_SDK/GD32VW55x_RELEASE_V1.0.2/MSDK/plf/GD32VW55x_standard_peripheral/Source\gd32vw55x_hau_sha_md5.c ****     ErrStatus ret = ERROR;
 637              		.loc 1 85 1 is_stmt 0
 638 0000 B286     		mv	a3,a2
  87:C:/Users/stapi/OneDrive/Desktop/GD32VW553/V1_MQTT_OK/GD32VW55X_Wifi_BLE_SDK/GD32VW55x_RELEASE_V1.0.2/MSDK/plf/GD32VW55x_standard_peripheral/Source\gd32vw55x_hau_sha_md5.c ****     return ret;
 639              		.loc 1 87 11
 640 0002 2E86     		mv	a2,a1
 641              	.LVL84:
 642 0004 AA85     		mv	a1,a0
 643              	.LVL85:
 644 0006 37050400 		li	a0,262144
 645              	.LVL86:
 646 000a 17030000 		tail	hau_hash_calculate
 646      67000300 
 647              	.LVL87:
  88:C:/Users/stapi/OneDrive/Desktop/GD32VW553/V1_MQTT_OK/GD32VW55X_Wifi_BLE_SDK/GD32VW55x_RELEASE_V1.0.2/MSDK/plf/GD32VW55x_standard_peripheral/Source\gd32vw55x_hau_sha_md5.c **** }
 648              		.loc 1 88 5 is_stmt 1
 649              		.cfi_endproc
 650              	.LFE367:
 652              		.section	.text.hau_hash_sha_256,"ax",@progbits
 653              		.align	1
 654              		.globl	hau_hash_sha_256
 656              	hau_hash_sha_256:
 657              	.LFB369:
 117:C:/Users/stapi/OneDrive/Desktop/GD32VW553/V1_MQTT_OK/GD32VW55X_Wifi_BLE_SDK/GD32VW55x_RELEASE_V1.0.2/MSDK/plf/GD32VW55x_standard_peripheral/Source\gd32vw55x_hau_sha_md5.c ****     ErrStatus ret = ERROR;
 658              		.loc 1 117 1
 659              		.cfi_startproc
 660              	.LVL88:
 118:C:/Users/stapi/OneDrive/Desktop/GD32VW553/V1_MQTT_OK/GD32VW55X_Wifi_BLE_SDK/GD32VW55x_RELEASE_V1.0.2/MSDK/plf/GD32VW55x_standard_peripheral/Source\gd32vw55x_hau_sha_md5.c ****     ret = hau_hash_calculate(HAU_ALGO_SHA256, input, in_length, output);
 661              		.loc 1 118 5
 119:C:/Users/stapi/OneDrive/Desktop/GD32VW553/V1_MQTT_OK/GD32VW55X_Wifi_BLE_SDK/GD32VW55x_RELEASE_V1.0.2/MSDK/plf/GD32VW55x_standard_peripheral/Source\gd32vw55x_hau_sha_md5.c ****     return ret;
 662              		.loc 1 119 5
 117:C:/Users/stapi/OneDrive/Desktop/GD32VW553/V1_MQTT_OK/GD32VW55X_Wifi_BLE_SDK/GD32VW55x_RELEASE_V1.0.2/MSDK/plf/GD32VW55x_standard_peripheral/Source\gd32vw55x_hau_sha_md5.c ****     ErrStatus ret = ERROR;
 663              		.loc 1 117 1 is_stmt 0
 664 0000 B286     		mv	a3,a2
 119:C:/Users/stapi/OneDrive/Desktop/GD32VW553/V1_MQTT_OK/GD32VW55X_Wifi_BLE_SDK/GD32VW55x_RELEASE_V1.0.2/MSDK/plf/GD32VW55x_standard_peripheral/Source\gd32vw55x_hau_sha_md5.c ****     return ret;
 665              		.loc 1 119 11
 666 0002 2E86     		mv	a2,a1
 667              	.LVL89:
 668 0004 AA85     		mv	a1,a0
 669              	.LVL90:
 670 0006 37050400 		li	a0,262144
 671              	.LVL91:
 672 000a 13050508 		addi	a0,a0,128
 673 000e 17030000 		tail	hau_hash_calculate
 673      67000300 
 674              	.LVL92:
 120:C:/Users/stapi/OneDrive/Desktop/GD32VW553/V1_MQTT_OK/GD32VW55X_Wifi_BLE_SDK/GD32VW55x_RELEASE_V1.0.2/MSDK/plf/GD32VW55x_standard_peripheral/Source\gd32vw55x_hau_sha_md5.c **** }
 675              		.loc 1 120 5 is_stmt 1
 676              		.cfi_endproc
 677              	.LFE369:
 679              		.section	.text.hau_hash_md5,"ax",@progbits
 680              		.align	1
 681              		.globl	hau_hash_md5
 683              	hau_hash_md5:
 684              	.LFB371:
 149:C:/Users/stapi/OneDrive/Desktop/GD32VW553/V1_MQTT_OK/GD32VW55X_Wifi_BLE_SDK/GD32VW55x_RELEASE_V1.0.2/MSDK/plf/GD32VW55x_standard_peripheral/Source\gd32vw55x_hau_sha_md5.c ****     ErrStatus ret = ERROR;
 685              		.loc 1 149 1
 686              		.cfi_startproc
 687              	.LVL93:
 150:C:/Users/stapi/OneDrive/Desktop/GD32VW553/V1_MQTT_OK/GD32VW55X_Wifi_BLE_SDK/GD32VW55x_RELEASE_V1.0.2/MSDK/plf/GD32VW55x_standard_peripheral/Source\gd32vw55x_hau_sha_md5.c ****     ret = hau_hash_calculate(HAU_ALGO_MD5, input, in_length, output);
 688              		.loc 1 150 5
 151:C:/Users/stapi/OneDrive/Desktop/GD32VW553/V1_MQTT_OK/GD32VW55X_Wifi_BLE_SDK/GD32VW55x_RELEASE_V1.0.2/MSDK/plf/GD32VW55x_standard_peripheral/Source\gd32vw55x_hau_sha_md5.c ****     return ret;
 689              		.loc 1 151 5
 149:C:/Users/stapi/OneDrive/Desktop/GD32VW553/V1_MQTT_OK/GD32VW55X_Wifi_BLE_SDK/GD32VW55x_RELEASE_V1.0.2/MSDK/plf/GD32VW55x_standard_peripheral/Source\gd32vw55x_hau_sha_md5.c ****     ErrStatus ret = ERROR;
 690              		.loc 1 149 1 is_stmt 0
 691 0000 B286     		mv	a3,a2
 151:C:/Users/stapi/OneDrive/Desktop/GD32VW553/V1_MQTT_OK/GD32VW55X_Wifi_BLE_SDK/GD32VW55x_RELEASE_V1.0.2/MSDK/plf/GD32VW55x_standard_peripheral/Source\gd32vw55x_hau_sha_md5.c ****     return ret;
 692              		.loc 1 151 11
 693 0002 2E86     		mv	a2,a1
 694              	.LVL94:
 695 0004 AA85     		mv	a1,a0
 696              	.LVL95:
 697 0006 13050008 		li	a0,128
 698              	.LVL96:
 699 000a 17030000 		tail	hau_hash_calculate
 699      67000300 
 700              	.LVL97:
 152:C:/Users/stapi/OneDrive/Desktop/GD32VW553/V1_MQTT_OK/GD32VW55X_Wifi_BLE_SDK/GD32VW55x_RELEASE_V1.0.2/MSDK/plf/GD32VW55x_standard_peripheral/Source\gd32vw55x_hau_sha_md5.c **** }
 701              		.loc 1 152 5 is_stmt 1
 702              		.cfi_endproc
 703              	.LFE371:
 705              		.section	.text.hau_hmac_calculate,"ax",@progbits
 706              		.align	1
 708              	hau_hmac_calculate:
 709              	.LFB375:
 302:C:/Users/stapi/OneDrive/Desktop/GD32VW553/V1_MQTT_OK/GD32VW55X_Wifi_BLE_SDK/GD32VW55x_RELEASE_V1.0.2/MSDK/plf/GD32VW55x_standard_peripheral/Source\gd32vw55x_hau_sha_md5.c **** 
 303:C:/Users/stapi/OneDrive/Desktop/GD32VW553/V1_MQTT_OK/GD32VW55X_Wifi_BLE_SDK/GD32VW55x_RELEASE_V1.0.2/MSDK/plf/GD32VW55x_standard_peripheral/Source\gd32vw55x_hau_sha_md5.c **** /*!
 304:C:/Users/stapi/OneDrive/Desktop/GD32VW553/V1_MQTT_OK/GD32VW55X_Wifi_BLE_SDK/GD32VW55x_RELEASE_V1.0.2/MSDK/plf/GD32VW55x_standard_peripheral/Source\gd32vw55x_hau_sha_md5.c ****     \brief      HAU digest calculate process in HMAC mode
 305:C:/Users/stapi/OneDrive/Desktop/GD32VW553/V1_MQTT_OK/GD32VW55X_Wifi_BLE_SDK/GD32VW55x_RELEASE_V1.0.2/MSDK/plf/GD32VW55x_standard_peripheral/Source\gd32vw55x_hau_sha_md5.c ****     \param[in]  algo: algorithm selection
 306:C:/Users/stapi/OneDrive/Desktop/GD32VW553/V1_MQTT_OK/GD32VW55X_Wifi_BLE_SDK/GD32VW55x_RELEASE_V1.0.2/MSDK/plf/GD32VW55x_standard_peripheral/Source\gd32vw55x_hau_sha_md5.c ****     \param[in]  key: pointer to the key used for HMAC
 307:C:/Users/stapi/OneDrive/Desktop/GD32VW553/V1_MQTT_OK/GD32VW55X_Wifi_BLE_SDK/GD32VW55x_RELEASE_V1.0.2/MSDK/plf/GD32VW55x_standard_peripheral/Source\gd32vw55x_hau_sha_md5.c ****     \param[in]  keysize: length of the key used for HMAC
 308:C:/Users/stapi/OneDrive/Desktop/GD32VW553/V1_MQTT_OK/GD32VW55X_Wifi_BLE_SDK/GD32VW55x_RELEASE_V1.0.2/MSDK/plf/GD32VW55x_standard_peripheral/Source\gd32vw55x_hau_sha_md5.c ****     \param[in]  input: pointer to the input buffer
 309:C:/Users/stapi/OneDrive/Desktop/GD32VW553/V1_MQTT_OK/GD32VW55X_Wifi_BLE_SDK/GD32VW55x_RELEASE_V1.0.2/MSDK/plf/GD32VW55x_standard_peripheral/Source\gd32vw55x_hau_sha_md5.c ****     \param[in]  in_length: length of the input buffer
 310:C:/Users/stapi/OneDrive/Desktop/GD32VW553/V1_MQTT_OK/GD32VW55X_Wifi_BLE_SDK/GD32VW55x_RELEASE_V1.0.2/MSDK/plf/GD32VW55x_standard_peripheral/Source\gd32vw55x_hau_sha_md5.c ****     \param[in]  output: the result digest
 311:C:/Users/stapi/OneDrive/Desktop/GD32VW553/V1_MQTT_OK/GD32VW55X_Wifi_BLE_SDK/GD32VW55x_RELEASE_V1.0.2/MSDK/plf/GD32VW55x_standard_peripheral/Source\gd32vw55x_hau_sha_md5.c ****     \param[out] none
 312:C:/Users/stapi/OneDrive/Desktop/GD32VW553/V1_MQTT_OK/GD32VW55X_Wifi_BLE_SDK/GD32VW55x_RELEASE_V1.0.2/MSDK/plf/GD32VW55x_standard_peripheral/Source\gd32vw55x_hau_sha_md5.c ****     \retval     ErrStatus: SUCCESS or ERROR
 313:C:/Users/stapi/OneDrive/Desktop/GD32VW553/V1_MQTT_OK/GD32VW55X_Wifi_BLE_SDK/GD32VW55x_RELEASE_V1.0.2/MSDK/plf/GD32VW55x_standard_peripheral/Source\gd32vw55x_hau_sha_md5.c **** */
 314:C:/Users/stapi/OneDrive/Desktop/GD32VW553/V1_MQTT_OK/GD32VW55X_Wifi_BLE_SDK/GD32VW55x_RELEASE_V1.0.2/MSDK/plf/GD32VW55x_standard_peripheral/Source\gd32vw55x_hau_sha_md5.c **** static ErrStatus hau_hmac_calculate(uint32_t algo, uint8_t *key, uint32_t keysize, uint8_t *input, 
 315:C:/Users/stapi/OneDrive/Desktop/GD32VW553/V1_MQTT_OK/GD32VW55X_Wifi_BLE_SDK/GD32VW55x_RELEASE_V1.0.2/MSDK/plf/GD32VW55x_standard_peripheral/Source\gd32vw55x_hau_sha_md5.c **** {
 710              		.loc 1 315 1
 711              		.cfi_startproc
 712              	.LVL98:
 713 0000 17030000 		call	t0,__riscv_save_7
 713      E7020300 
 714              		.cfi_offset 22, -32
 715              		.cfi_offset 21, -28
 716              		.cfi_offset 20, -24
 717              		.cfi_offset 19, -20
 718              		.cfi_offset 18, -16
 719              		.cfi_offset 9, -12
 720              		.cfi_offset 8, -8
 721              		.cfi_offset 1, -4
 722              		.cfi_def_cfa_offset 32
 316:C:/Users/stapi/OneDrive/Desktop/GD32VW553/V1_MQTT_OK/GD32VW55X_Wifi_BLE_SDK/GD32VW55x_RELEASE_V1.0.2/MSDK/plf/GD32VW55x_standard_peripheral/Source\gd32vw55x_hau_sha_md5.c ****     hau_init_parameter_struct init_para;
 723              		.loc 1 316 5
 317:C:/Users/stapi/OneDrive/Desktop/GD32VW553/V1_MQTT_OK/GD32VW55X_Wifi_BLE_SDK/GD32VW55x_RELEASE_V1.0.2/MSDK/plf/GD32VW55x_standard_peripheral/Source\gd32vw55x_hau_sha_md5.c **** 
 318:C:/Users/stapi/OneDrive/Desktop/GD32VW553/V1_MQTT_OK/GD32VW55X_Wifi_BLE_SDK/GD32VW55x_RELEASE_V1.0.2/MSDK/plf/GD32VW55x_standard_peripheral/Source\gd32vw55x_hau_sha_md5.c ****     __IO uint16_t num_last_valid = 0U;
 724              		.loc 1 318 5
 315:C:/Users/stapi/OneDrive/Desktop/GD32VW553/V1_MQTT_OK/GD32VW55X_Wifi_BLE_SDK/GD32VW55x_RELEASE_V1.0.2/MSDK/plf/GD32VW55x_standard_peripheral/Source\gd32vw55x_hau_sha_md5.c ****     hau_init_parameter_struct init_para;
 725              		.loc 1 315 1 is_stmt 0
 726 0008 0111     		addi	sp,sp,-32
 727              		.cfi_def_cfa_offset 64
 728              		.loc 1 318 19
 729 000a 23140100 		sh	zero,8(sp)
 319:C:/Users/stapi/OneDrive/Desktop/GD32VW553/V1_MQTT_OK/GD32VW55X_Wifi_BLE_SDK/GD32VW55x_RELEASE_V1.0.2/MSDK/plf/GD32VW55x_standard_peripheral/Source\gd32vw55x_hau_sha_md5.c ****     __IO uint16_t num_key_valid = 0U;
 730              		.loc 1 319 5 is_stmt 1
 731              		.loc 1 319 19 is_stmt 0
 732 000e 23150100 		sh	zero,10(sp)
 320:C:/Users/stapi/OneDrive/Desktop/GD32VW553/V1_MQTT_OK/GD32VW55X_Wifi_BLE_SDK/GD32VW55x_RELEASE_V1.0.2/MSDK/plf/GD32VW55x_standard_peripheral/Source\gd32vw55x_hau_sha_md5.c ****     uint32_t i = 0U;
 733              		.loc 1 320 5 is_stmt 1
 734              	.LVL99:
 321:C:/Users/stapi/OneDrive/Desktop/GD32VW553/V1_MQTT_OK/GD32VW55X_Wifi_BLE_SDK/GD32VW55x_RELEASE_V1.0.2/MSDK/plf/GD32VW55x_standard_peripheral/Source\gd32vw55x_hau_sha_md5.c ****     __IO uint32_t counter = 0U;
 735              		.loc 1 321 5
 315:C:/Users/stapi/OneDrive/Desktop/GD32VW553/V1_MQTT_OK/GD32VW55X_Wifi_BLE_SDK/GD32VW55x_RELEASE_V1.0.2/MSDK/plf/GD32VW55x_standard_peripheral/Source\gd32vw55x_hau_sha_md5.c ****     hau_init_parameter_struct init_para;
 736              		.loc 1 315 1 is_stmt 0
 737 0012 3E8A     		mv	s4,a5
 322:C:/Users/stapi/OneDrive/Desktop/GD32VW553/V1_MQTT_OK/GD32VW55X_Wifi_BLE_SDK/GD32VW55x_RELEASE_V1.0.2/MSDK/plf/GD32VW55x_standard_peripheral/Source\gd32vw55x_hau_sha_md5.c ****     uint32_t busystatus = 0U;
 323:C:/Users/stapi/OneDrive/Desktop/GD32VW553/V1_MQTT_OK/GD32VW55X_Wifi_BLE_SDK/GD32VW55x_RELEASE_V1.0.2/MSDK/plf/GD32VW55x_standard_peripheral/Source\gd32vw55x_hau_sha_md5.c ****     uint32_t keyaddr    = (uint32_t)key;
 324:C:/Users/stapi/OneDrive/Desktop/GD32VW553/V1_MQTT_OK/GD32VW55X_Wifi_BLE_SDK/GD32VW55x_RELEASE_V1.0.2/MSDK/plf/GD32VW55x_standard_peripheral/Source\gd32vw55x_hau_sha_md5.c ****     uint32_t inputaddr  = (uint32_t)input;
 325:C:/Users/stapi/OneDrive/Desktop/GD32VW553/V1_MQTT_OK/GD32VW55X_Wifi_BLE_SDK/GD32VW55x_RELEASE_V1.0.2/MSDK/plf/GD32VW55x_standard_peripheral/Source\gd32vw55x_hau_sha_md5.c **** 
 326:C:/Users/stapi/OneDrive/Desktop/GD32VW553/V1_MQTT_OK/GD32VW55X_Wifi_BLE_SDK/GD32VW55x_RELEASE_V1.0.2/MSDK/plf/GD32VW55x_standard_peripheral/Source\gd32vw55x_hau_sha_md5.c ****     /* number of valid bits in last word of the message */
 327:C:/Users/stapi/OneDrive/Desktop/GD32VW553/V1_MQTT_OK/GD32VW55X_Wifi_BLE_SDK/GD32VW55x_RELEASE_V1.0.2/MSDK/plf/GD32VW55x_standard_peripheral/Source\gd32vw55x_hau_sha_md5.c ****     num_last_valid = 8U * (uint16_t)(in_length % 4U);
 738              		.loc 1 327 20
 739 0014 93773700 		andi	a5,a4,3
 740              	.LVL100:
 321:C:/Users/stapi/OneDrive/Desktop/GD32VW553/V1_MQTT_OK/GD32VW55X_Wifi_BLE_SDK/GD32VW55x_RELEASE_V1.0.2/MSDK/plf/GD32VW55x_standard_peripheral/Source\gd32vw55x_hau_sha_md5.c ****     uint32_t busystatus = 0U;
 741              		.loc 1 321 19
 742 0018 02C6     		sw	zero,12(sp)
 322:C:/Users/stapi/OneDrive/Desktop/GD32VW553/V1_MQTT_OK/GD32VW55X_Wifi_BLE_SDK/GD32VW55x_RELEASE_V1.0.2/MSDK/plf/GD32VW55x_standard_peripheral/Source\gd32vw55x_hau_sha_md5.c ****     uint32_t busystatus = 0U;
 743              		.loc 1 322 5 is_stmt 1
 744              	.LVL101:
 323:C:/Users/stapi/OneDrive/Desktop/GD32VW553/V1_MQTT_OK/GD32VW55X_Wifi_BLE_SDK/GD32VW55x_RELEASE_V1.0.2/MSDK/plf/GD32VW55x_standard_peripheral/Source\gd32vw55x_hau_sha_md5.c ****     uint32_t inputaddr  = (uint32_t)input;
 745              		.loc 1 323 5
 746              		.loc 1 327 20 is_stmt 0
 747 001a 8E07     		slli	a5,a5,3
 748 001c 2314F100 		sh	a5,8(sp)
 328:C:/Users/stapi/OneDrive/Desktop/GD32VW553/V1_MQTT_OK/GD32VW55X_Wifi_BLE_SDK/GD32VW55x_RELEASE_V1.0.2/MSDK/plf/GD32VW55x_standard_peripheral/Source\gd32vw55x_hau_sha_md5.c ****     /* number of valid bits in last word of the key */
 329:C:/Users/stapi/OneDrive/Desktop/GD32VW553/V1_MQTT_OK/GD32VW55X_Wifi_BLE_SDK/GD32VW55x_RELEASE_V1.0.2/MSDK/plf/GD32VW55x_standard_peripheral/Source\gd32vw55x_hau_sha_md5.c ****     num_key_valid = 8U * (uint16_t)(keysize % 4U);
 749              		.loc 1 329 19
 750 0020 93773600 		andi	a5,a2,3
 751 0024 8E07     		slli	a5,a5,3
 315:C:/Users/stapi/OneDrive/Desktop/GD32VW553/V1_MQTT_OK/GD32VW55X_Wifi_BLE_SDK/GD32VW55x_RELEASE_V1.0.2/MSDK/plf/GD32VW55x_standard_peripheral/Source\gd32vw55x_hau_sha_md5.c ****     hau_init_parameter_struct init_para;
 752              		.loc 1 315 1
 753 0026 AA84     		mv	s1,a0
 754 0028 AE89     		mv	s3,a1
 755              	.LVL102:
 324:C:/Users/stapi/OneDrive/Desktop/GD32VW553/V1_MQTT_OK/GD32VW55X_Wifi_BLE_SDK/GD32VW55x_RELEASE_V1.0.2/MSDK/plf/GD32VW55x_standard_peripheral/Source\gd32vw55x_hau_sha_md5.c **** 
 756              		.loc 1 324 5 is_stmt 1
 315:C:/Users/stapi/OneDrive/Desktop/GD32VW553/V1_MQTT_OK/GD32VW55X_Wifi_BLE_SDK/GD32VW55x_RELEASE_V1.0.2/MSDK/plf/GD32VW55x_standard_peripheral/Source\gd32vw55x_hau_sha_md5.c ****     hau_init_parameter_struct init_para;
 757              		.loc 1 315 1 is_stmt 0
 758 002a 3284     		mv	s0,a2
 759 002c 368B     		mv	s6,a3
 760              	.LVL103:
 327:C:/Users/stapi/OneDrive/Desktop/GD32VW553/V1_MQTT_OK/GD32VW55X_Wifi_BLE_SDK/GD32VW55x_RELEASE_V1.0.2/MSDK/plf/GD32VW55x_standard_peripheral/Source\gd32vw55x_hau_sha_md5.c ****     /* number of valid bits in last word of the key */
 761              		.loc 1 327 5 is_stmt 1
 762              		.loc 1 329 5
 315:C:/Users/stapi/OneDrive/Desktop/GD32VW553/V1_MQTT_OK/GD32VW55X_Wifi_BLE_SDK/GD32VW55x_RELEASE_V1.0.2/MSDK/plf/GD32VW55x_standard_peripheral/Source\gd32vw55x_hau_sha_md5.c ****     hau_init_parameter_struct init_para;
 763              		.loc 1 315 1 is_stmt 0
 764 002e 3A89     		mv	s2,a4
 765              		.loc 1 329 19
 766 0030 2315F100 		sh	a5,10(sp)
 330:C:/Users/stapi/OneDrive/Desktop/GD32VW553/V1_MQTT_OK/GD32VW55X_Wifi_BLE_SDK/GD32VW55x_RELEASE_V1.0.2/MSDK/plf/GD32VW55x_standard_peripheral/Source\gd32vw55x_hau_sha_md5.c **** 
 331:C:/Users/stapi/OneDrive/Desktop/GD32VW553/V1_MQTT_OK/GD32VW55X_Wifi_BLE_SDK/GD32VW55x_RELEASE_V1.0.2/MSDK/plf/GD32VW55x_standard_peripheral/Source\gd32vw55x_hau_sha_md5.c ****     /* HAU peripheral initialization */
 332:C:/Users/stapi/OneDrive/Desktop/GD32VW553/V1_MQTT_OK/GD32VW55X_Wifi_BLE_SDK/GD32VW55x_RELEASE_V1.0.2/MSDK/plf/GD32VW55x_standard_peripheral/Source\gd32vw55x_hau_sha_md5.c ****     hau_deinit();
 767              		.loc 1 332 5 is_stmt 1
 768 0034 97000000 		call	hau_deinit
 768      E7800000 
 769              	.LVL104:
 333:C:/Users/stapi/OneDrive/Desktop/GD32VW553/V1_MQTT_OK/GD32VW55X_Wifi_BLE_SDK/GD32VW55x_RELEASE_V1.0.2/MSDK/plf/GD32VW55x_standard_peripheral/Source\gd32vw55x_hau_sha_md5.c **** 
 334:C:/Users/stapi/OneDrive/Desktop/GD32VW553/V1_MQTT_OK/GD32VW55X_Wifi_BLE_SDK/GD32VW55x_RELEASE_V1.0.2/MSDK/plf/GD32VW55x_standard_peripheral/Source\gd32vw55x_hau_sha_md5.c ****     /* HAU configuration */
 335:C:/Users/stapi/OneDrive/Desktop/GD32VW553/V1_MQTT_OK/GD32VW55X_Wifi_BLE_SDK/GD32VW55x_RELEASE_V1.0.2/MSDK/plf/GD32VW55x_standard_peripheral/Source\gd32vw55x_hau_sha_md5.c ****     init_para.algo = algo;
 770              		.loc 1 335 5
 336:C:/Users/stapi/OneDrive/Desktop/GD32VW553/V1_MQTT_OK/GD32VW55X_Wifi_BLE_SDK/GD32VW55x_RELEASE_V1.0.2/MSDK/plf/GD32VW55x_standard_peripheral/Source\gd32vw55x_hau_sha_md5.c ****     init_para.mode = HAU_MODE_HMAC;
 771              		.loc 1 336 20 is_stmt 0
 772 003c 13060004 		li	a2,64
 773 0040 32CA     		sw	a2,20(sp)
 337:C:/Users/stapi/OneDrive/Desktop/GD32VW553/V1_MQTT_OK/GD32VW55X_Wifi_BLE_SDK/GD32VW55x_RELEASE_V1.0.2/MSDK/plf/GD32VW55x_standard_peripheral/Source\gd32vw55x_hau_sha_md5.c ****     init_para.datatype = HAU_SWAPPING_8BIT;
 338:C:/Users/stapi/OneDrive/Desktop/GD32VW553/V1_MQTT_OK/GD32VW55X_Wifi_BLE_SDK/GD32VW55x_RELEASE_V1.0.2/MSDK/plf/GD32VW55x_standard_peripheral/Source\gd32vw55x_hau_sha_md5.c ****     if(keysize > 64U){
 339:C:/Users/stapi/OneDrive/Desktop/GD32VW553/V1_MQTT_OK/GD32VW55X_Wifi_BLE_SDK/GD32VW55x_RELEASE_V1.0.2/MSDK/plf/GD32VW55x_standard_peripheral/Source\gd32vw55x_hau_sha_md5.c ****         init_para.keytype = HAU_KEY_LONGGER_64;
 774              		.loc 1 339 27
 775 0042 33368600 		sgtu	a2,s0,a2
 337:C:/Users/stapi/OneDrive/Desktop/GD32VW553/V1_MQTT_OK/GD32VW55X_Wifi_BLE_SDK/GD32VW55x_RELEASE_V1.0.2/MSDK/plf/GD32VW55x_standard_peripheral/Source\gd32vw55x_hau_sha_md5.c ****     init_para.datatype = HAU_SWAPPING_8BIT;
 776              		.loc 1 337 24
 777 0046 93070002 		li	a5,32
 778              		.loc 1 339 27
 779 004a 4206     		slli	a2,a2,16
 340:C:/Users/stapi/OneDrive/Desktop/GD32VW553/V1_MQTT_OK/GD32VW55X_Wifi_BLE_SDK/GD32VW55x_RELEASE_V1.0.2/MSDK/plf/GD32VW55x_standard_peripheral/Source\gd32vw55x_hau_sha_md5.c ****     }else{
 341:C:/Users/stapi/OneDrive/Desktop/GD32VW553/V1_MQTT_OK/GD32VW55X_Wifi_BLE_SDK/GD32VW55x_RELEASE_V1.0.2/MSDK/plf/GD32VW55x_standard_peripheral/Source\gd32vw55x_hau_sha_md5.c ****         init_para.keytype = HAU_KEY_SHORTER_64;
 342:C:/Users/stapi/OneDrive/Desktop/GD32VW553/V1_MQTT_OK/GD32VW55X_Wifi_BLE_SDK/GD32VW55x_RELEASE_V1.0.2/MSDK/plf/GD32VW55x_standard_peripheral/Source\gd32vw55x_hau_sha_md5.c ****     }
 343:C:/Users/stapi/OneDrive/Desktop/GD32VW553/V1_MQTT_OK/GD32VW55X_Wifi_BLE_SDK/GD32VW55x_RELEASE_V1.0.2/MSDK/plf/GD32VW55x_standard_peripheral/Source\gd32vw55x_hau_sha_md5.c ****     hau_init(&init_para);
 780              		.loc 1 343 5
 781 004c 0808     		addi	a0,sp,16
 337:C:/Users/stapi/OneDrive/Desktop/GD32VW553/V1_MQTT_OK/GD32VW55X_Wifi_BLE_SDK/GD32VW55x_RELEASE_V1.0.2/MSDK/plf/GD32VW55x_standard_peripheral/Source\gd32vw55x_hau_sha_md5.c ****     init_para.datatype = HAU_SWAPPING_8BIT;
 782              		.loc 1 337 24
 783 004e 3ECC     		sw	a5,24(sp)
 784 0050 32CE     		sw	a2,28(sp)
 335:C:/Users/stapi/OneDrive/Desktop/GD32VW553/V1_MQTT_OK/GD32VW55X_Wifi_BLE_SDK/GD32VW55x_RELEASE_V1.0.2/MSDK/plf/GD32VW55x_standard_peripheral/Source\gd32vw55x_hau_sha_md5.c ****     init_para.mode = HAU_MODE_HMAC;
 785              		.loc 1 335 20
 786 0052 26C8     		sw	s1,16(sp)
 336:C:/Users/stapi/OneDrive/Desktop/GD32VW553/V1_MQTT_OK/GD32VW55X_Wifi_BLE_SDK/GD32VW55x_RELEASE_V1.0.2/MSDK/plf/GD32VW55x_standard_peripheral/Source\gd32vw55x_hau_sha_md5.c ****     init_para.datatype = HAU_SWAPPING_8BIT;
 787              		.loc 1 336 5 is_stmt 1
 337:C:/Users/stapi/OneDrive/Desktop/GD32VW553/V1_MQTT_OK/GD32VW55X_Wifi_BLE_SDK/GD32VW55x_RELEASE_V1.0.2/MSDK/plf/GD32VW55x_standard_peripheral/Source\gd32vw55x_hau_sha_md5.c ****     if(keysize > 64U){
 788              		.loc 1 337 5
 338:C:/Users/stapi/OneDrive/Desktop/GD32VW553/V1_MQTT_OK/GD32VW55X_Wifi_BLE_SDK/GD32VW55x_RELEASE_V1.0.2/MSDK/plf/GD32VW55x_standard_peripheral/Source\gd32vw55x_hau_sha_md5.c ****         init_para.keytype = HAU_KEY_LONGGER_64;
 789              		.loc 1 338 5
 790              		.loc 1 343 5
 791 0054 97000000 		call	hau_init
 791      E7800000 
 792              	.LVL105:
 344:C:/Users/stapi/OneDrive/Desktop/GD32VW553/V1_MQTT_OK/GD32VW55X_Wifi_BLE_SDK/GD32VW55x_RELEASE_V1.0.2/MSDK/plf/GD32VW55x_standard_peripheral/Source\gd32vw55x_hau_sha_md5.c **** 
 345:C:/Users/stapi/OneDrive/Desktop/GD32VW553/V1_MQTT_OK/GD32VW55X_Wifi_BLE_SDK/GD32VW55x_RELEASE_V1.0.2/MSDK/plf/GD32VW55x_standard_peripheral/Source\gd32vw55x_hau_sha_md5.c ****     /* configure the number of valid bits in last word of the key */
 346:C:/Users/stapi/OneDrive/Desktop/GD32VW553/V1_MQTT_OK/GD32VW55X_Wifi_BLE_SDK/GD32VW55x_RELEASE_V1.0.2/MSDK/plf/GD32VW55x_standard_peripheral/Source\gd32vw55x_hau_sha_md5.c ****     hau_last_word_validbits_num_config((uint32_t)num_key_valid);
 793              		.loc 1 346 5
 794 005c 0355A100 		lhu	a0,10(sp)
 347:C:/Users/stapi/OneDrive/Desktop/GD32VW553/V1_MQTT_OK/GD32VW55X_Wifi_BLE_SDK/GD32VW55x_RELEASE_V1.0.2/MSDK/plf/GD32VW55x_standard_peripheral/Source\gd32vw55x_hau_sha_md5.c **** 
 348:C:/Users/stapi/OneDrive/Desktop/GD32VW553/V1_MQTT_OK/GD32VW55X_Wifi_BLE_SDK/GD32VW55x_RELEASE_V1.0.2/MSDK/plf/GD32VW55x_standard_peripheral/Source\gd32vw55x_hau_sha_md5.c ****     /* write the key */
 349:C:/Users/stapi/OneDrive/Desktop/GD32VW553/V1_MQTT_OK/GD32VW55X_Wifi_BLE_SDK/GD32VW55x_RELEASE_V1.0.2/MSDK/plf/GD32VW55x_standard_peripheral/Source\gd32vw55x_hau_sha_md5.c ****     for(i = 0U; i < keysize; i += 4U){
 795              		.loc 1 349 11 is_stmt 0
 796 0060 814A     		li	s5,0
 346:C:/Users/stapi/OneDrive/Desktop/GD32VW553/V1_MQTT_OK/GD32VW55X_Wifi_BLE_SDK/GD32VW55x_RELEASE_V1.0.2/MSDK/plf/GD32VW55x_standard_peripheral/Source\gd32vw55x_hau_sha_md5.c **** 
 797              		.loc 1 346 5
 798 0062 33450508 		zext.h	a0,a0
 799 0066 97000000 		call	hau_last_word_validbits_num_config
 799      E7800000 
 800              	.LVL106:
 801              		.loc 1 349 5 is_stmt 1
 802              	.L29:
 803              		.loc 1 349 17 discriminator 1
 804              		.loc 1 349 5 is_stmt 0 discriminator 1
 805 006e 63E58A0A 		bltu	s5,s0,.L30
 350:C:/Users/stapi/OneDrive/Desktop/GD32VW553/V1_MQTT_OK/GD32VW55X_Wifi_BLE_SDK/GD32VW55x_RELEASE_V1.0.2/MSDK/plf/GD32VW55x_standard_peripheral/Source\gd32vw55x_hau_sha_md5.c ****         hau_data_write(*(uint32_t*)keyaddr);
 351:C:/Users/stapi/OneDrive/Desktop/GD32VW553/V1_MQTT_OK/GD32VW55X_Wifi_BLE_SDK/GD32VW55x_RELEASE_V1.0.2/MSDK/plf/GD32VW55x_standard_peripheral/Source\gd32vw55x_hau_sha_md5.c ****         keyaddr += 4U;
 352:C:/Users/stapi/OneDrive/Desktop/GD32VW553/V1_MQTT_OK/GD32VW55X_Wifi_BLE_SDK/GD32VW55x_RELEASE_V1.0.2/MSDK/plf/GD32VW55x_standard_peripheral/Source\gd32vw55x_hau_sha_md5.c ****     }
 353:C:/Users/stapi/OneDrive/Desktop/GD32VW553/V1_MQTT_OK/GD32VW55X_Wifi_BLE_SDK/GD32VW55x_RELEASE_V1.0.2/MSDK/plf/GD32VW55x_standard_peripheral/Source\gd32vw55x_hau_sha_md5.c **** 
 354:C:/Users/stapi/OneDrive/Desktop/GD32VW553/V1_MQTT_OK/GD32VW55X_Wifi_BLE_SDK/GD32VW55x_RELEASE_V1.0.2/MSDK/plf/GD32VW55x_standard_peripheral/Source\gd32vw55x_hau_sha_md5.c ****     /* enable digest calculation */
 355:C:/Users/stapi/OneDrive/Desktop/GD32VW553/V1_MQTT_OK/GD32VW55X_Wifi_BLE_SDK/GD32VW55x_RELEASE_V1.0.2/MSDK/plf/GD32VW55x_standard_peripheral/Source\gd32vw55x_hau_sha_md5.c ****     hau_digest_calculation_enable();
 806              		.loc 1 355 5 is_stmt 1
 807 0072 97000000 		call	hau_digest_calculation_enable
 807      E7800000 
 808              	.LVL107:
 356:C:/Users/stapi/OneDrive/Desktop/GD32VW553/V1_MQTT_OK/GD32VW55X_Wifi_BLE_SDK/GD32VW55x_RELEASE_V1.0.2/MSDK/plf/GD32VW55x_standard_peripheral/Source\gd32vw55x_hau_sha_md5.c **** 
 357:C:/Users/stapi/OneDrive/Desktop/GD32VW553/V1_MQTT_OK/GD32VW55X_Wifi_BLE_SDK/GD32VW55x_RELEASE_V1.0.2/MSDK/plf/GD32VW55x_standard_peripheral/Source\gd32vw55x_hau_sha_md5.c ****     /* wait until the busy flag is reset */
 358:C:/Users/stapi/OneDrive/Desktop/GD32VW553/V1_MQTT_OK/GD32VW55X_Wifi_BLE_SDK/GD32VW55x_RELEASE_V1.0.2/MSDK/plf/GD32VW55x_standard_peripheral/Source\gd32vw55x_hau_sha_md5.c ****     do{
 359:C:/Users/stapi/OneDrive/Desktop/GD32VW553/V1_MQTT_OK/GD32VW55X_Wifi_BLE_SDK/GD32VW55x_RELEASE_V1.0.2/MSDK/plf/GD32VW55x_standard_peripheral/Source\gd32vw55x_hau_sha_md5.c ****         busystatus = hau_flag_get(HAU_FLAG_BUSY);
 360:C:/Users/stapi/OneDrive/Desktop/GD32VW553/V1_MQTT_OK/GD32VW55X_Wifi_BLE_SDK/GD32VW55x_RELEASE_V1.0.2/MSDK/plf/GD32VW55x_standard_peripheral/Source\gd32vw55x_hau_sha_md5.c ****         counter++;
 361:C:/Users/stapi/OneDrive/Desktop/GD32VW553/V1_MQTT_OK/GD32VW55X_Wifi_BLE_SDK/GD32VW55x_RELEASE_V1.0.2/MSDK/plf/GD32VW55x_standard_peripheral/Source\gd32vw55x_hau_sha_md5.c ****     }while((SHAMD5_BSY_TIMEOUT != counter) && (RESET != busystatus));
 809              		.loc 1 361 5 is_stmt 0
 810 007a C16A     		li	s5,65536
 811              	.LVL108:
 812              	.L32:
 358:C:/Users/stapi/OneDrive/Desktop/GD32VW553/V1_MQTT_OK/GD32VW55X_Wifi_BLE_SDK/GD32VW55x_RELEASE_V1.0.2/MSDK/plf/GD32VW55x_standard_peripheral/Source\gd32vw55x_hau_sha_md5.c ****         busystatus = hau_flag_get(HAU_FLAG_BUSY);
 813              		.loc 1 358 5 is_stmt 1 discriminator 2
 359:C:/Users/stapi/OneDrive/Desktop/GD32VW553/V1_MQTT_OK/GD32VW55X_Wifi_BLE_SDK/GD32VW55x_RELEASE_V1.0.2/MSDK/plf/GD32VW55x_standard_peripheral/Source\gd32vw55x_hau_sha_md5.c ****         counter++;
 814              		.loc 1 359 9 discriminator 2
 359:C:/Users/stapi/OneDrive/Desktop/GD32VW553/V1_MQTT_OK/GD32VW55X_Wifi_BLE_SDK/GD32VW55x_RELEASE_V1.0.2/MSDK/plf/GD32VW55x_standard_peripheral/Source\gd32vw55x_hau_sha_md5.c ****         counter++;
 815              		.loc 1 359 22 is_stmt 0 discriminator 2
 816 007c 2145     		li	a0,8
 817 007e 97000000 		call	hau_flag_get
 817      E7800000 
 818              	.LVL109:
 360:C:/Users/stapi/OneDrive/Desktop/GD32VW553/V1_MQTT_OK/GD32VW55X_Wifi_BLE_SDK/GD32VW55x_RELEASE_V1.0.2/MSDK/plf/GD32VW55x_standard_peripheral/Source\gd32vw55x_hau_sha_md5.c ****     }while((SHAMD5_BSY_TIMEOUT != counter) && (RESET != busystatus));
 819              		.loc 1 360 9 is_stmt 1 discriminator 2
 360:C:/Users/stapi/OneDrive/Desktop/GD32VW553/V1_MQTT_OK/GD32VW55X_Wifi_BLE_SDK/GD32VW55x_RELEASE_V1.0.2/MSDK/plf/GD32VW55x_standard_peripheral/Source\gd32vw55x_hau_sha_md5.c ****     }while((SHAMD5_BSY_TIMEOUT != counter) && (RESET != busystatus));
 820              		.loc 1 360 16 is_stmt 0 discriminator 2
 821 0086 B247     		lw	a5,12(sp)
 822 0088 8507     		addi	a5,a5,1
 823 008a 3EC6     		sw	a5,12(sp)
 824              		.loc 1 361 11 is_stmt 1 discriminator 2
 825              		.loc 1 361 32 is_stmt 0 discriminator 2
 826 008c B247     		lw	a5,12(sp)
 827              		.loc 1 361 5 discriminator 2
 828 008e 638E5709 		beq	a5,s5,.L31
 829              		.loc 1 361 44 discriminator 1
 830 0092 6DF5     		bne	a0,zero,.L32
 831              	.L33:
 362:C:/Users/stapi/OneDrive/Desktop/GD32VW553/V1_MQTT_OK/GD32VW55X_Wifi_BLE_SDK/GD32VW55x_RELEASE_V1.0.2/MSDK/plf/GD32VW55x_standard_peripheral/Source\gd32vw55x_hau_sha_md5.c **** 
 363:C:/Users/stapi/OneDrive/Desktop/GD32VW553/V1_MQTT_OK/GD32VW55X_Wifi_BLE_SDK/GD32VW55x_RELEASE_V1.0.2/MSDK/plf/GD32VW55x_standard_peripheral/Source\gd32vw55x_hau_sha_md5.c ****     if(RESET != busystatus){
 364:C:/Users/stapi/OneDrive/Desktop/GD32VW553/V1_MQTT_OK/GD32VW55X_Wifi_BLE_SDK/GD32VW55x_RELEASE_V1.0.2/MSDK/plf/GD32VW55x_standard_peripheral/Source\gd32vw55x_hau_sha_md5.c ****         return ERROR;
 365:C:/Users/stapi/OneDrive/Desktop/GD32VW553/V1_MQTT_OK/GD32VW55X_Wifi_BLE_SDK/GD32VW55x_RELEASE_V1.0.2/MSDK/plf/GD32VW55x_standard_peripheral/Source\gd32vw55x_hau_sha_md5.c ****     }else{
 366:C:/Users/stapi/OneDrive/Desktop/GD32VW553/V1_MQTT_OK/GD32VW55X_Wifi_BLE_SDK/GD32VW55x_RELEASE_V1.0.2/MSDK/plf/GD32VW55x_standard_peripheral/Source\gd32vw55x_hau_sha_md5.c ****         /* configure the number of valid bits in last word of the message */
 367:C:/Users/stapi/OneDrive/Desktop/GD32VW553/V1_MQTT_OK/GD32VW55X_Wifi_BLE_SDK/GD32VW55x_RELEASE_V1.0.2/MSDK/plf/GD32VW55x_standard_peripheral/Source\gd32vw55x_hau_sha_md5.c ****         hau_last_word_validbits_num_config((uint32_t)num_last_valid);
 832              		.loc 1 367 9 is_stmt 1
 833 0094 03558100 		lhu	a0,8(sp)
 834              	.LVL110:
 368:C:/Users/stapi/OneDrive/Desktop/GD32VW553/V1_MQTT_OK/GD32VW55X_Wifi_BLE_SDK/GD32VW55x_RELEASE_V1.0.2/MSDK/plf/GD32VW55x_standard_peripheral/Source\gd32vw55x_hau_sha_md5.c **** 
 369:C:/Users/stapi/OneDrive/Desktop/GD32VW553/V1_MQTT_OK/GD32VW55X_Wifi_BLE_SDK/GD32VW55x_RELEASE_V1.0.2/MSDK/plf/GD32VW55x_standard_peripheral/Source\gd32vw55x_hau_sha_md5.c ****         /* write data to the IN FIFO */
 370:C:/Users/stapi/OneDrive/Desktop/GD32VW553/V1_MQTT_OK/GD32VW55X_Wifi_BLE_SDK/GD32VW55x_RELEASE_V1.0.2/MSDK/plf/GD32VW55x_standard_peripheral/Source\gd32vw55x_hau_sha_md5.c ****         for(i = 0U; i < in_length; i += 4U){
 835              		.loc 1 370 15 is_stmt 0
 836 0098 814A     		li	s5,0
 367:C:/Users/stapi/OneDrive/Desktop/GD32VW553/V1_MQTT_OK/GD32VW55X_Wifi_BLE_SDK/GD32VW55x_RELEASE_V1.0.2/MSDK/plf/GD32VW55x_standard_peripheral/Source\gd32vw55x_hau_sha_md5.c **** 
 837              		.loc 1 367 9
 838 009a 33450508 		zext.h	a0,a0
 839 009e 97000000 		call	hau_last_word_validbits_num_config
 839      E7800000 
 840              	.LVL111:
 841              		.loc 1 370 9 is_stmt 1
 842              	.L35:
 843              		.loc 1 370 21 discriminator 1
 844              		.loc 1 370 9 is_stmt 0 discriminator 1
 845 00a6 63E92A09 		bltu	s5,s2,.L36
 371:C:/Users/stapi/OneDrive/Desktop/GD32VW553/V1_MQTT_OK/GD32VW55X_Wifi_BLE_SDK/GD32VW55x_RELEASE_V1.0.2/MSDK/plf/GD32VW55x_standard_peripheral/Source\gd32vw55x_hau_sha_md5.c ****             hau_data_write(*(uint32_t*)inputaddr);
 372:C:/Users/stapi/OneDrive/Desktop/GD32VW553/V1_MQTT_OK/GD32VW55X_Wifi_BLE_SDK/GD32VW55x_RELEASE_V1.0.2/MSDK/plf/GD32VW55x_standard_peripheral/Source\gd32vw55x_hau_sha_md5.c ****             inputaddr += 4U;
 373:C:/Users/stapi/OneDrive/Desktop/GD32VW553/V1_MQTT_OK/GD32VW55X_Wifi_BLE_SDK/GD32VW55x_RELEASE_V1.0.2/MSDK/plf/GD32VW55x_standard_peripheral/Source\gd32vw55x_hau_sha_md5.c ****         }
 374:C:/Users/stapi/OneDrive/Desktop/GD32VW553/V1_MQTT_OK/GD32VW55X_Wifi_BLE_SDK/GD32VW55x_RELEASE_V1.0.2/MSDK/plf/GD32VW55x_standard_peripheral/Source\gd32vw55x_hau_sha_md5.c **** 
 375:C:/Users/stapi/OneDrive/Desktop/GD32VW553/V1_MQTT_OK/GD32VW55X_Wifi_BLE_SDK/GD32VW55x_RELEASE_V1.0.2/MSDK/plf/GD32VW55x_standard_peripheral/Source\gd32vw55x_hau_sha_md5.c ****         /* enable digest calculation */
 376:C:/Users/stapi/OneDrive/Desktop/GD32VW553/V1_MQTT_OK/GD32VW55X_Wifi_BLE_SDK/GD32VW55x_RELEASE_V1.0.2/MSDK/plf/GD32VW55x_standard_peripheral/Source\gd32vw55x_hau_sha_md5.c ****         hau_digest_calculation_enable();
 846              		.loc 1 376 9 is_stmt 1
 847 00aa 97000000 		call	hau_digest_calculation_enable
 847      E7800000 
 848              	.LVL112:
 377:C:/Users/stapi/OneDrive/Desktop/GD32VW553/V1_MQTT_OK/GD32VW55X_Wifi_BLE_SDK/GD32VW55x_RELEASE_V1.0.2/MSDK/plf/GD32VW55x_standard_peripheral/Source\gd32vw55x_hau_sha_md5.c **** 
 378:C:/Users/stapi/OneDrive/Desktop/GD32VW553/V1_MQTT_OK/GD32VW55X_Wifi_BLE_SDK/GD32VW55x_RELEASE_V1.0.2/MSDK/plf/GD32VW55x_standard_peripheral/Source\gd32vw55x_hau_sha_md5.c ****         /* wait until the busy flag is reset */
 379:C:/Users/stapi/OneDrive/Desktop/GD32VW553/V1_MQTT_OK/GD32VW55X_Wifi_BLE_SDK/GD32VW55x_RELEASE_V1.0.2/MSDK/plf/GD32VW55x_standard_peripheral/Source\gd32vw55x_hau_sha_md5.c ****         counter = 0U;
 849              		.loc 1 379 9
 380:C:/Users/stapi/OneDrive/Desktop/GD32VW553/V1_MQTT_OK/GD32VW55X_Wifi_BLE_SDK/GD32VW55x_RELEASE_V1.0.2/MSDK/plf/GD32VW55x_standard_peripheral/Source\gd32vw55x_hau_sha_md5.c ****         do{
 381:C:/Users/stapi/OneDrive/Desktop/GD32VW553/V1_MQTT_OK/GD32VW55X_Wifi_BLE_SDK/GD32VW55x_RELEASE_V1.0.2/MSDK/plf/GD32VW55x_standard_peripheral/Source\gd32vw55x_hau_sha_md5.c ****             busystatus = hau_flag_get(HAU_FLAG_BUSY);
 382:C:/Users/stapi/OneDrive/Desktop/GD32VW553/V1_MQTT_OK/GD32VW55X_Wifi_BLE_SDK/GD32VW55x_RELEASE_V1.0.2/MSDK/plf/GD32VW55x_standard_peripheral/Source\gd32vw55x_hau_sha_md5.c ****             counter++;
 383:C:/Users/stapi/OneDrive/Desktop/GD32VW553/V1_MQTT_OK/GD32VW55X_Wifi_BLE_SDK/GD32VW55x_RELEASE_V1.0.2/MSDK/plf/GD32VW55x_standard_peripheral/Source\gd32vw55x_hau_sha_md5.c ****         }while((SHAMD5_BSY_TIMEOUT != counter) && (RESET != busystatus));
 850              		.loc 1 383 9 is_stmt 0
 851 00b2 4169     		li	s2,65536
 852              	.LVL113:
 379:C:/Users/stapi/OneDrive/Desktop/GD32VW553/V1_MQTT_OK/GD32VW55X_Wifi_BLE_SDK/GD32VW55x_RELEASE_V1.0.2/MSDK/plf/GD32VW55x_standard_peripheral/Source\gd32vw55x_hau_sha_md5.c ****         do{
 853              		.loc 1 379 17
 854 00b4 02C6     		sw	zero,12(sp)
 855              	.L38:
 380:C:/Users/stapi/OneDrive/Desktop/GD32VW553/V1_MQTT_OK/GD32VW55X_Wifi_BLE_SDK/GD32VW55x_RELEASE_V1.0.2/MSDK/plf/GD32VW55x_standard_peripheral/Source\gd32vw55x_hau_sha_md5.c ****         do{
 856              		.loc 1 380 9 is_stmt 1 discriminator 2
 381:C:/Users/stapi/OneDrive/Desktop/GD32VW553/V1_MQTT_OK/GD32VW55X_Wifi_BLE_SDK/GD32VW55x_RELEASE_V1.0.2/MSDK/plf/GD32VW55x_standard_peripheral/Source\gd32vw55x_hau_sha_md5.c ****             counter++;
 857              		.loc 1 381 13 discriminator 2
 381:C:/Users/stapi/OneDrive/Desktop/GD32VW553/V1_MQTT_OK/GD32VW55X_Wifi_BLE_SDK/GD32VW55x_RELEASE_V1.0.2/MSDK/plf/GD32VW55x_standard_peripheral/Source\gd32vw55x_hau_sha_md5.c ****             counter++;
 858              		.loc 1 381 26 is_stmt 0 discriminator 2
 859 00b6 2145     		li	a0,8
 860 00b8 97000000 		call	hau_flag_get
 860      E7800000 
 861              	.LVL114:
 382:C:/Users/stapi/OneDrive/Desktop/GD32VW553/V1_MQTT_OK/GD32VW55X_Wifi_BLE_SDK/GD32VW55x_RELEASE_V1.0.2/MSDK/plf/GD32VW55x_standard_peripheral/Source\gd32vw55x_hau_sha_md5.c ****         }while((SHAMD5_BSY_TIMEOUT != counter) && (RESET != busystatus));
 862              		.loc 1 382 13 is_stmt 1 discriminator 2
 382:C:/Users/stapi/OneDrive/Desktop/GD32VW553/V1_MQTT_OK/GD32VW55X_Wifi_BLE_SDK/GD32VW55x_RELEASE_V1.0.2/MSDK/plf/GD32VW55x_standard_peripheral/Source\gd32vw55x_hau_sha_md5.c ****         }while((SHAMD5_BSY_TIMEOUT != counter) && (RESET != busystatus));
 863              		.loc 1 382 20 is_stmt 0 discriminator 2
 864 00c0 B247     		lw	a5,12(sp)
 865 00c2 8507     		addi	a5,a5,1
 866 00c4 3EC6     		sw	a5,12(sp)
 867              		.loc 1 383 15 is_stmt 1 discriminator 2
 868              		.loc 1 383 36 is_stmt 0 discriminator 2
 869 00c6 B247     		lw	a5,12(sp)
 870              		.loc 1 383 9 discriminator 2
 871 00c8 63812709 		beq	a5,s2,.L37
 872              		.loc 1 383 48 discriminator 1
 873 00cc 6DF5     		bne	a0,zero,.L38
 874              	.L39:
 384:C:/Users/stapi/OneDrive/Desktop/GD32VW553/V1_MQTT_OK/GD32VW55X_Wifi_BLE_SDK/GD32VW55x_RELEASE_V1.0.2/MSDK/plf/GD32VW55x_standard_peripheral/Source\gd32vw55x_hau_sha_md5.c **** 
 385:C:/Users/stapi/OneDrive/Desktop/GD32VW553/V1_MQTT_OK/GD32VW55X_Wifi_BLE_SDK/GD32VW55x_RELEASE_V1.0.2/MSDK/plf/GD32VW55x_standard_peripheral/Source\gd32vw55x_hau_sha_md5.c ****         if(RESET != busystatus){
 386:C:/Users/stapi/OneDrive/Desktop/GD32VW553/V1_MQTT_OK/GD32VW55X_Wifi_BLE_SDK/GD32VW55x_RELEASE_V1.0.2/MSDK/plf/GD32VW55x_standard_peripheral/Source\gd32vw55x_hau_sha_md5.c ****             return ERROR;
 387:C:/Users/stapi/OneDrive/Desktop/GD32VW553/V1_MQTT_OK/GD32VW55X_Wifi_BLE_SDK/GD32VW55x_RELEASE_V1.0.2/MSDK/plf/GD32VW55x_standard_peripheral/Source\gd32vw55x_hau_sha_md5.c ****         }else{
 388:C:/Users/stapi/OneDrive/Desktop/GD32VW553/V1_MQTT_OK/GD32VW55X_Wifi_BLE_SDK/GD32VW55x_RELEASE_V1.0.2/MSDK/plf/GD32VW55x_standard_peripheral/Source\gd32vw55x_hau_sha_md5.c ****             /* configure the number of valid bits in last word of the key */
 389:C:/Users/stapi/OneDrive/Desktop/GD32VW553/V1_MQTT_OK/GD32VW55X_Wifi_BLE_SDK/GD32VW55x_RELEASE_V1.0.2/MSDK/plf/GD32VW55x_standard_peripheral/Source\gd32vw55x_hau_sha_md5.c ****             hau_last_word_validbits_num_config((uint32_t)num_key_valid);
 875              		.loc 1 389 13 is_stmt 1
 876 00ce 0355A100 		lhu	a0,10(sp)
 877              	.LVL115:
 390:C:/Users/stapi/OneDrive/Desktop/GD32VW553/V1_MQTT_OK/GD32VW55X_Wifi_BLE_SDK/GD32VW55x_RELEASE_V1.0.2/MSDK/plf/GD32VW55x_standard_peripheral/Source\gd32vw55x_hau_sha_md5.c **** 
 391:C:/Users/stapi/OneDrive/Desktop/GD32VW553/V1_MQTT_OK/GD32VW55X_Wifi_BLE_SDK/GD32VW55x_RELEASE_V1.0.2/MSDK/plf/GD32VW55x_standard_peripheral/Source\gd32vw55x_hau_sha_md5.c ****             /* write the key */
 392:C:/Users/stapi/OneDrive/Desktop/GD32VW553/V1_MQTT_OK/GD32VW55X_Wifi_BLE_SDK/GD32VW55x_RELEASE_V1.0.2/MSDK/plf/GD32VW55x_standard_peripheral/Source\gd32vw55x_hau_sha_md5.c ****             keyaddr = (uint32_t)key;
 393:C:/Users/stapi/OneDrive/Desktop/GD32VW553/V1_MQTT_OK/GD32VW55X_Wifi_BLE_SDK/GD32VW55x_RELEASE_V1.0.2/MSDK/plf/GD32VW55x_standard_peripheral/Source\gd32vw55x_hau_sha_md5.c ****             for(i = 0U; i < keysize; i += 4U){
 878              		.loc 1 393 19 is_stmt 0
 879 00d2 0149     		li	s2,0
 389:C:/Users/stapi/OneDrive/Desktop/GD32VW553/V1_MQTT_OK/GD32VW55X_Wifi_BLE_SDK/GD32VW55x_RELEASE_V1.0.2/MSDK/plf/GD32VW55x_standard_peripheral/Source\gd32vw55x_hau_sha_md5.c **** 
 880              		.loc 1 389 13
 881 00d4 33450508 		zext.h	a0,a0
 882 00d8 97000000 		call	hau_last_word_validbits_num_config
 882      E7800000 
 883              	.LVL116:
 392:C:/Users/stapi/OneDrive/Desktop/GD32VW553/V1_MQTT_OK/GD32VW55X_Wifi_BLE_SDK/GD32VW55x_RELEASE_V1.0.2/MSDK/plf/GD32VW55x_standard_peripheral/Source\gd32vw55x_hau_sha_md5.c ****             for(i = 0U; i < keysize; i += 4U){
 884              		.loc 1 392 13 is_stmt 1
 885              		.loc 1 393 13
 886              	.L41:
 887              		.loc 1 393 25 discriminator 1
 888              		.loc 1 393 13 is_stmt 0 discriminator 1
 889 00e0 63678906 		bltu	s2,s0,.L42
 394:C:/Users/stapi/OneDrive/Desktop/GD32VW553/V1_MQTT_OK/GD32VW55X_Wifi_BLE_SDK/GD32VW55x_RELEASE_V1.0.2/MSDK/plf/GD32VW55x_standard_peripheral/Source\gd32vw55x_hau_sha_md5.c ****                 hau_data_write(*(uint32_t*)keyaddr);
 395:C:/Users/stapi/OneDrive/Desktop/GD32VW553/V1_MQTT_OK/GD32VW55X_Wifi_BLE_SDK/GD32VW55x_RELEASE_V1.0.2/MSDK/plf/GD32VW55x_standard_peripheral/Source\gd32vw55x_hau_sha_md5.c ****                 keyaddr += 4U;
 396:C:/Users/stapi/OneDrive/Desktop/GD32VW553/V1_MQTT_OK/GD32VW55X_Wifi_BLE_SDK/GD32VW55x_RELEASE_V1.0.2/MSDK/plf/GD32VW55x_standard_peripheral/Source\gd32vw55x_hau_sha_md5.c ****             }
 397:C:/Users/stapi/OneDrive/Desktop/GD32VW553/V1_MQTT_OK/GD32VW55X_Wifi_BLE_SDK/GD32VW55x_RELEASE_V1.0.2/MSDK/plf/GD32VW55x_standard_peripheral/Source\gd32vw55x_hau_sha_md5.c **** 
 398:C:/Users/stapi/OneDrive/Desktop/GD32VW553/V1_MQTT_OK/GD32VW55X_Wifi_BLE_SDK/GD32VW55x_RELEASE_V1.0.2/MSDK/plf/GD32VW55x_standard_peripheral/Source\gd32vw55x_hau_sha_md5.c ****             /* enable digest calculation */
 399:C:/Users/stapi/OneDrive/Desktop/GD32VW553/V1_MQTT_OK/GD32VW55X_Wifi_BLE_SDK/GD32VW55x_RELEASE_V1.0.2/MSDK/plf/GD32VW55x_standard_peripheral/Source\gd32vw55x_hau_sha_md5.c ****             hau_digest_calculation_enable();
 890              		.loc 1 399 13 is_stmt 1
 891 00e4 97000000 		call	hau_digest_calculation_enable
 891      E7800000 
 892              	.LVL117:
 400:C:/Users/stapi/OneDrive/Desktop/GD32VW553/V1_MQTT_OK/GD32VW55X_Wifi_BLE_SDK/GD32VW55x_RELEASE_V1.0.2/MSDK/plf/GD32VW55x_standard_peripheral/Source\gd32vw55x_hau_sha_md5.c **** 
 401:C:/Users/stapi/OneDrive/Desktop/GD32VW553/V1_MQTT_OK/GD32VW55X_Wifi_BLE_SDK/GD32VW55x_RELEASE_V1.0.2/MSDK/plf/GD32VW55x_standard_peripheral/Source\gd32vw55x_hau_sha_md5.c ****             /* wait until the busy flag is reset */
 402:C:/Users/stapi/OneDrive/Desktop/GD32VW553/V1_MQTT_OK/GD32VW55X_Wifi_BLE_SDK/GD32VW55x_RELEASE_V1.0.2/MSDK/plf/GD32VW55x_standard_peripheral/Source\gd32vw55x_hau_sha_md5.c ****             counter =0U;
 893              		.loc 1 402 13
 403:C:/Users/stapi/OneDrive/Desktop/GD32VW553/V1_MQTT_OK/GD32VW55X_Wifi_BLE_SDK/GD32VW55x_RELEASE_V1.0.2/MSDK/plf/GD32VW55x_standard_peripheral/Source\gd32vw55x_hau_sha_md5.c ****             do{
 404:C:/Users/stapi/OneDrive/Desktop/GD32VW553/V1_MQTT_OK/GD32VW55X_Wifi_BLE_SDK/GD32VW55x_RELEASE_V1.0.2/MSDK/plf/GD32VW55x_standard_peripheral/Source\gd32vw55x_hau_sha_md5.c ****                 busystatus = hau_flag_get(HAU_FLAG_BUSY);
 405:C:/Users/stapi/OneDrive/Desktop/GD32VW553/V1_MQTT_OK/GD32VW55X_Wifi_BLE_SDK/GD32VW55x_RELEASE_V1.0.2/MSDK/plf/GD32VW55x_standard_peripheral/Source\gd32vw55x_hau_sha_md5.c ****                 counter++;
 406:C:/Users/stapi/OneDrive/Desktop/GD32VW553/V1_MQTT_OK/GD32VW55X_Wifi_BLE_SDK/GD32VW55x_RELEASE_V1.0.2/MSDK/plf/GD32VW55x_standard_peripheral/Source\gd32vw55x_hau_sha_md5.c ****             }while((SHAMD5_BSY_TIMEOUT != counter) && (RESET != busystatus));
 894              		.loc 1 406 13 is_stmt 0
 895 00ec 4164     		li	s0,65536
 896              	.LVL118:
 402:C:/Users/stapi/OneDrive/Desktop/GD32VW553/V1_MQTT_OK/GD32VW55X_Wifi_BLE_SDK/GD32VW55x_RELEASE_V1.0.2/MSDK/plf/GD32VW55x_standard_peripheral/Source\gd32vw55x_hau_sha_md5.c ****             do{
 897              		.loc 1 402 21
 898 00ee 02C6     		sw	zero,12(sp)
 899              	.L44:
 403:C:/Users/stapi/OneDrive/Desktop/GD32VW553/V1_MQTT_OK/GD32VW55X_Wifi_BLE_SDK/GD32VW55x_RELEASE_V1.0.2/MSDK/plf/GD32VW55x_standard_peripheral/Source\gd32vw55x_hau_sha_md5.c ****             do{
 900              		.loc 1 403 13 is_stmt 1 discriminator 2
 404:C:/Users/stapi/OneDrive/Desktop/GD32VW553/V1_MQTT_OK/GD32VW55X_Wifi_BLE_SDK/GD32VW55x_RELEASE_V1.0.2/MSDK/plf/GD32VW55x_standard_peripheral/Source\gd32vw55x_hau_sha_md5.c ****                 counter++;
 901              		.loc 1 404 17 discriminator 2
 404:C:/Users/stapi/OneDrive/Desktop/GD32VW553/V1_MQTT_OK/GD32VW55X_Wifi_BLE_SDK/GD32VW55x_RELEASE_V1.0.2/MSDK/plf/GD32VW55x_standard_peripheral/Source\gd32vw55x_hau_sha_md5.c ****                 counter++;
 902              		.loc 1 404 30 is_stmt 0 discriminator 2
 903 00f0 2145     		li	a0,8
 904 00f2 97000000 		call	hau_flag_get
 904      E7800000 
 905              	.LVL119:
 405:C:/Users/stapi/OneDrive/Desktop/GD32VW553/V1_MQTT_OK/GD32VW55X_Wifi_BLE_SDK/GD32VW55x_RELEASE_V1.0.2/MSDK/plf/GD32VW55x_standard_peripheral/Source\gd32vw55x_hau_sha_md5.c ****             }while((SHAMD5_BSY_TIMEOUT != counter) && (RESET != busystatus));
 906              		.loc 1 405 17 is_stmt 1 discriminator 2
 405:C:/Users/stapi/OneDrive/Desktop/GD32VW553/V1_MQTT_OK/GD32VW55X_Wifi_BLE_SDK/GD32VW55x_RELEASE_V1.0.2/MSDK/plf/GD32VW55x_standard_peripheral/Source\gd32vw55x_hau_sha_md5.c ****             }while((SHAMD5_BSY_TIMEOUT != counter) && (RESET != busystatus));
 907              		.loc 1 405 24 is_stmt 0 discriminator 2
 908 00fa B247     		lw	a5,12(sp)
 909 00fc 8507     		addi	a5,a5,1
 910 00fe 3EC6     		sw	a5,12(sp)
 911              		.loc 1 406 19 is_stmt 1 discriminator 2
 912              		.loc 1 406 40 is_stmt 0 discriminator 2
 913 0100 B247     		lw	a5,12(sp)
 914              		.loc 1 406 13 discriminator 2
 915 0102 638F8704 		beq	a5,s0,.L43
 916              		.loc 1 406 52 discriminator 1
 917 0106 6DF5     		bne	a0,zero,.L44
 918              	.L45:
 407:C:/Users/stapi/OneDrive/Desktop/GD32VW553/V1_MQTT_OK/GD32VW55X_Wifi_BLE_SDK/GD32VW55x_RELEASE_V1.0.2/MSDK/plf/GD32VW55x_standard_peripheral/Source\gd32vw55x_hau_sha_md5.c **** 
 408:C:/Users/stapi/OneDrive/Desktop/GD32VW553/V1_MQTT_OK/GD32VW55X_Wifi_BLE_SDK/GD32VW55x_RELEASE_V1.0.2/MSDK/plf/GD32VW55x_standard_peripheral/Source\gd32vw55x_hau_sha_md5.c ****             if(RESET != busystatus){
 409:C:/Users/stapi/OneDrive/Desktop/GD32VW553/V1_MQTT_OK/GD32VW55X_Wifi_BLE_SDK/GD32VW55x_RELEASE_V1.0.2/MSDK/plf/GD32VW55x_standard_peripheral/Source\gd32vw55x_hau_sha_md5.c ****                 return ERROR;
 410:C:/Users/stapi/OneDrive/Desktop/GD32VW553/V1_MQTT_OK/GD32VW55X_Wifi_BLE_SDK/GD32VW55x_RELEASE_V1.0.2/MSDK/plf/GD32VW55x_standard_peripheral/Source\gd32vw55x_hau_sha_md5.c ****             }else{
 411:C:/Users/stapi/OneDrive/Desktop/GD32VW553/V1_MQTT_OK/GD32VW55X_Wifi_BLE_SDK/GD32VW55x_RELEASE_V1.0.2/MSDK/plf/GD32VW55x_standard_peripheral/Source\gd32vw55x_hau_sha_md5.c ****                 /* read the message digest */
 412:C:/Users/stapi/OneDrive/Desktop/GD32VW553/V1_MQTT_OK/GD32VW55X_Wifi_BLE_SDK/GD32VW55x_RELEASE_V1.0.2/MSDK/plf/GD32VW55x_standard_peripheral/Source\gd32vw55x_hau_sha_md5.c ****                 hau_sha_md5_digest_read(algo, output);
 919              		.loc 1 412 17 is_stmt 1
 920 0108 2685     		mv	a0,s1
 921              	.LVL120:
 922 010a D285     		mv	a1,s4
 923 010c 97000000 		call	hau_sha_md5_digest_read
 923      E7800000 
 924              	.LVL121:
 413:C:/Users/stapi/OneDrive/Desktop/GD32VW553/V1_MQTT_OK/GD32VW55X_Wifi_BLE_SDK/GD32VW55x_RELEASE_V1.0.2/MSDK/plf/GD32VW55x_standard_peripheral/Source\gd32vw55x_hau_sha_md5.c ****             }
 414:C:/Users/stapi/OneDrive/Desktop/GD32VW553/V1_MQTT_OK/GD32VW55X_Wifi_BLE_SDK/GD32VW55x_RELEASE_V1.0.2/MSDK/plf/GD32VW55x_standard_peripheral/Source\gd32vw55x_hau_sha_md5.c ****         }
 415:C:/Users/stapi/OneDrive/Desktop/GD32VW553/V1_MQTT_OK/GD32VW55X_Wifi_BLE_SDK/GD32VW55x_RELEASE_V1.0.2/MSDK/plf/GD32VW55x_standard_peripheral/Source\gd32vw55x_hau_sha_md5.c ****     }
 416:C:/Users/stapi/OneDrive/Desktop/GD32VW553/V1_MQTT_OK/GD32VW55X_Wifi_BLE_SDK/GD32VW55x_RELEASE_V1.0.2/MSDK/plf/GD32VW55x_standard_peripheral/Source\gd32vw55x_hau_sha_md5.c ****     return SUCCESS;
 925              		.loc 1 416 5
 926              		.loc 1 416 12 is_stmt 0
 927 0114 0545     		li	a0,1
 928 0116 21A8     		j	.L27
 929              	.LVL122:
 930              	.L30:
 350:C:/Users/stapi/OneDrive/Desktop/GD32VW553/V1_MQTT_OK/GD32VW55X_Wifi_BLE_SDK/GD32VW55x_RELEASE_V1.0.2/MSDK/plf/GD32VW55x_standard_peripheral/Source\gd32vw55x_hau_sha_md5.c ****         keyaddr += 4U;
 931              		.loc 1 350 9 is_stmt 1 discriminator 3
 932 0118 B3875901 		add	a5,s3,s5
 933 011c 8843     		lw	a0,0(a5)
 349:C:/Users/stapi/OneDrive/Desktop/GD32VW553/V1_MQTT_OK/GD32VW55X_Wifi_BLE_SDK/GD32VW55x_RELEASE_V1.0.2/MSDK/plf/GD32VW55x_standard_peripheral/Source\gd32vw55x_hau_sha_md5.c ****         hau_data_write(*(uint32_t*)keyaddr);
 934              		.loc 1 349 32 is_stmt 0 discriminator 3
 935 011e 910A     		addi	s5,s5,4
 936              	.LVL123:
 350:C:/Users/stapi/OneDrive/Desktop/GD32VW553/V1_MQTT_OK/GD32VW55X_Wifi_BLE_SDK/GD32VW55x_RELEASE_V1.0.2/MSDK/plf/GD32VW55x_standard_peripheral/Source\gd32vw55x_hau_sha_md5.c ****         keyaddr += 4U;
 937              		.loc 1 350 9 discriminator 3
 938 0120 97000000 		call	hau_data_write
 938      E7800000 
 939              	.LVL124:
 351:C:/Users/stapi/OneDrive/Desktop/GD32VW553/V1_MQTT_OK/GD32VW55X_Wifi_BLE_SDK/GD32VW55x_RELEASE_V1.0.2/MSDK/plf/GD32VW55x_standard_peripheral/Source\gd32vw55x_hau_sha_md5.c ****     }
 940              		.loc 1 351 9 is_stmt 1 discriminator 3
 349:C:/Users/stapi/OneDrive/Desktop/GD32VW553/V1_MQTT_OK/GD32VW55X_Wifi_BLE_SDK/GD32VW55x_RELEASE_V1.0.2/MSDK/plf/GD32VW55x_standard_peripheral/Source\gd32vw55x_hau_sha_md5.c ****         hau_data_write(*(uint32_t*)keyaddr);
 941              		.loc 1 349 30 discriminator 3
 942 0128 99B7     		j	.L29
 943              	.LVL125:
 944              	.L31:
 363:C:/Users/stapi/OneDrive/Desktop/GD32VW553/V1_MQTT_OK/GD32VW55X_Wifi_BLE_SDK/GD32VW55x_RELEASE_V1.0.2/MSDK/plf/GD32VW55x_standard_peripheral/Source\gd32vw55x_hau_sha_md5.c ****         return ERROR;
 945              		.loc 1 363 5
 363:C:/Users/stapi/OneDrive/Desktop/GD32VW553/V1_MQTT_OK/GD32VW55X_Wifi_BLE_SDK/GD32VW55x_RELEASE_V1.0.2/MSDK/plf/GD32VW55x_standard_peripheral/Source\gd32vw55x_hau_sha_md5.c ****         return ERROR;
 946              		.loc 1 363 7 is_stmt 0
 947 012a 2DD5     		beq	a0,zero,.L33
 948              	.LVL126:
 949              	.L40:
 364:C:/Users/stapi/OneDrive/Desktop/GD32VW553/V1_MQTT_OK/GD32VW55X_Wifi_BLE_SDK/GD32VW55x_RELEASE_V1.0.2/MSDK/plf/GD32VW55x_standard_peripheral/Source\gd32vw55x_hau_sha_md5.c ****     }else{
 950              		.loc 1 364 16
 951 012c 0145     		li	a0,0
 952              	.LVL127:
 953              	.L27:
 417:C:/Users/stapi/OneDrive/Desktop/GD32VW553/V1_MQTT_OK/GD32VW55X_Wifi_BLE_SDK/GD32VW55x_RELEASE_V1.0.2/MSDK/plf/GD32VW55x_standard_peripheral/Source\gd32vw55x_hau_sha_md5.c **** }
 954              		.loc 1 417 1
 955 012e 0561     		addi	sp,sp,32
 956              		.cfi_remember_state
 957              		.cfi_def_cfa_offset 0
 958 0130 17030000 		tail	__riscv_restore_7
 958      67000300 
 959              		.cfi_restore 22
 960              		.cfi_restore 21
 961              		.cfi_restore 20
 962              		.cfi_restore 19
 963              		.cfi_restore 18
 964              		.cfi_restore 9
 965              		.cfi_restore 8
 966              		.cfi_restore 1
 967              		.cfi_def_cfa_offset -32
 968              	.LVL128:
 969              	.L36:
 970              		.cfi_restore_state
 371:C:/Users/stapi/OneDrive/Desktop/GD32VW553/V1_MQTT_OK/GD32VW55X_Wifi_BLE_SDK/GD32VW55x_RELEASE_V1.0.2/MSDK/plf/GD32VW55x_standard_peripheral/Source\gd32vw55x_hau_sha_md5.c ****             inputaddr += 4U;
 971              		.loc 1 371 13 is_stmt 1 discriminator 3
 972 0138 B3075B01 		add	a5,s6,s5
 973 013c 8843     		lw	a0,0(a5)
 370:C:/Users/stapi/OneDrive/Desktop/GD32VW553/V1_MQTT_OK/GD32VW55X_Wifi_BLE_SDK/GD32VW55x_RELEASE_V1.0.2/MSDK/plf/GD32VW55x_standard_peripheral/Source\gd32vw55x_hau_sha_md5.c ****             hau_data_write(*(uint32_t*)inputaddr);
 974              		.loc 1 370 38 is_stmt 0 discriminator 3
 975 013e 910A     		addi	s5,s5,4
 976              	.LVL129:
 371:C:/Users/stapi/OneDrive/Desktop/GD32VW553/V1_MQTT_OK/GD32VW55X_Wifi_BLE_SDK/GD32VW55x_RELEASE_V1.0.2/MSDK/plf/GD32VW55x_standard_peripheral/Source\gd32vw55x_hau_sha_md5.c ****             inputaddr += 4U;
 977              		.loc 1 371 13 discriminator 3
 978 0140 97000000 		call	hau_data_write
 978      E7800000 
 979              	.LVL130:
 372:C:/Users/stapi/OneDrive/Desktop/GD32VW553/V1_MQTT_OK/GD32VW55X_Wifi_BLE_SDK/GD32VW55x_RELEASE_V1.0.2/MSDK/plf/GD32VW55x_standard_peripheral/Source\gd32vw55x_hau_sha_md5.c ****         }
 980              		.loc 1 372 13 is_stmt 1 discriminator 3
 370:C:/Users/stapi/OneDrive/Desktop/GD32VW553/V1_MQTT_OK/GD32VW55X_Wifi_BLE_SDK/GD32VW55x_RELEASE_V1.0.2/MSDK/plf/GD32VW55x_standard_peripheral/Source\gd32vw55x_hau_sha_md5.c ****             hau_data_write(*(uint32_t*)inputaddr);
 981              		.loc 1 370 36 discriminator 3
 982 0148 B9BF     		j	.L35
 983              	.LVL131:
 984              	.L37:
 385:C:/Users/stapi/OneDrive/Desktop/GD32VW553/V1_MQTT_OK/GD32VW55X_Wifi_BLE_SDK/GD32VW55x_RELEASE_V1.0.2/MSDK/plf/GD32VW55x_standard_peripheral/Source\gd32vw55x_hau_sha_md5.c ****             return ERROR;
 985              		.loc 1 385 9
 385:C:/Users/stapi/OneDrive/Desktop/GD32VW553/V1_MQTT_OK/GD32VW55X_Wifi_BLE_SDK/GD32VW55x_RELEASE_V1.0.2/MSDK/plf/GD32VW55x_standard_peripheral/Source\gd32vw55x_hau_sha_md5.c ****             return ERROR;
 986              		.loc 1 385 11 is_stmt 0
 987 014a 6DF1     		bne	a0,zero,.L40
 988 014c 49B7     		j	.L39
 989              	.LVL132:
 990              	.L42:
 394:C:/Users/stapi/OneDrive/Desktop/GD32VW553/V1_MQTT_OK/GD32VW55X_Wifi_BLE_SDK/GD32VW55x_RELEASE_V1.0.2/MSDK/plf/GD32VW55x_standard_peripheral/Source\gd32vw55x_hau_sha_md5.c ****                 keyaddr += 4U;
 991              		.loc 1 394 17 is_stmt 1 discriminator 3
 992 014e B3872901 		add	a5,s3,s2
 993 0152 8843     		lw	a0,0(a5)
 393:C:/Users/stapi/OneDrive/Desktop/GD32VW553/V1_MQTT_OK/GD32VW55X_Wifi_BLE_SDK/GD32VW55x_RELEASE_V1.0.2/MSDK/plf/GD32VW55x_standard_peripheral/Source\gd32vw55x_hau_sha_md5.c ****                 hau_data_write(*(uint32_t*)keyaddr);
 994              		.loc 1 393 40 is_stmt 0 discriminator 3
 995 0154 1109     		addi	s2,s2,4
 996              	.LVL133:
 394:C:/Users/stapi/OneDrive/Desktop/GD32VW553/V1_MQTT_OK/GD32VW55X_Wifi_BLE_SDK/GD32VW55x_RELEASE_V1.0.2/MSDK/plf/GD32VW55x_standard_peripheral/Source\gd32vw55x_hau_sha_md5.c ****                 keyaddr += 4U;
 997              		.loc 1 394 17 discriminator 3
 998 0156 97000000 		call	hau_data_write
 998      E7800000 
 999              	.LVL134:
 395:C:/Users/stapi/OneDrive/Desktop/GD32VW553/V1_MQTT_OK/GD32VW55X_Wifi_BLE_SDK/GD32VW55x_RELEASE_V1.0.2/MSDK/plf/GD32VW55x_standard_peripheral/Source\gd32vw55x_hau_sha_md5.c ****             }
 1000              		.loc 1 395 17 is_stmt 1 discriminator 3
 393:C:/Users/stapi/OneDrive/Desktop/GD32VW553/V1_MQTT_OK/GD32VW55X_Wifi_BLE_SDK/GD32VW55x_RELEASE_V1.0.2/MSDK/plf/GD32VW55x_standard_peripheral/Source\gd32vw55x_hau_sha_md5.c ****                 hau_data_write(*(uint32_t*)keyaddr);
 1001              		.loc 1 393 38 discriminator 3
 1002 015e 49B7     		j	.L41
 1003              	.LVL135:
 1004              	.L43:
 408:C:/Users/stapi/OneDrive/Desktop/GD32VW553/V1_MQTT_OK/GD32VW55X_Wifi_BLE_SDK/GD32VW55x_RELEASE_V1.0.2/MSDK/plf/GD32VW55x_standard_peripheral/Source\gd32vw55x_hau_sha_md5.c ****                 return ERROR;
 1005              		.loc 1 408 13
 408:C:/Users/stapi/OneDrive/Desktop/GD32VW553/V1_MQTT_OK/GD32VW55X_Wifi_BLE_SDK/GD32VW55x_RELEASE_V1.0.2/MSDK/plf/GD32VW55x_standard_peripheral/Source\gd32vw55x_hau_sha_md5.c ****                 return ERROR;
 1006              		.loc 1 408 15 is_stmt 0
 1007 0160 71F5     		bne	a0,zero,.L40
 1008 0162 5DB7     		j	.L45
 1009              		.cfi_endproc
 1010              	.LFE375:
 1012              		.section	.text.hau_hmac_sha_1,"ax",@progbits
 1013              		.align	1
 1014              		.globl	hau_hmac_sha_1
 1016              	hau_hmac_sha_1:
 1017              	.LFB366:
  70:C:/Users/stapi/OneDrive/Desktop/GD32VW553/V1_MQTT_OK/GD32VW55X_Wifi_BLE_SDK/GD32VW55x_RELEASE_V1.0.2/MSDK/plf/GD32VW55x_standard_peripheral/Source\gd32vw55x_hau_sha_md5.c ****     ErrStatus ret = ERROR;
 1018              		.loc 1 70 1 is_stmt 1
 1019              		.cfi_startproc
 1020              	.LVL136:
  71:C:/Users/stapi/OneDrive/Desktop/GD32VW553/V1_MQTT_OK/GD32VW55X_Wifi_BLE_SDK/GD32VW55x_RELEASE_V1.0.2/MSDK/plf/GD32VW55x_standard_peripheral/Source\gd32vw55x_hau_sha_md5.c ****     ret = hau_hmac_calculate(HAU_ALGO_SHA1, key, keysize, input, in_length, output);
 1021              		.loc 1 71 5
  72:C:/Users/stapi/OneDrive/Desktop/GD32VW553/V1_MQTT_OK/GD32VW55X_Wifi_BLE_SDK/GD32VW55x_RELEASE_V1.0.2/MSDK/plf/GD32VW55x_standard_peripheral/Source\gd32vw55x_hau_sha_md5.c ****     return ret;
 1022              		.loc 1 72 5
  70:C:/Users/stapi/OneDrive/Desktop/GD32VW553/V1_MQTT_OK/GD32VW55X_Wifi_BLE_SDK/GD32VW55x_RELEASE_V1.0.2/MSDK/plf/GD32VW55x_standard_peripheral/Source\gd32vw55x_hau_sha_md5.c ****     ErrStatus ret = ERROR;
 1023              		.loc 1 70 1 is_stmt 0
 1024 0000 BA87     		mv	a5,a4
  72:C:/Users/stapi/OneDrive/Desktop/GD32VW553/V1_MQTT_OK/GD32VW55X_Wifi_BLE_SDK/GD32VW55x_RELEASE_V1.0.2/MSDK/plf/GD32VW55x_standard_peripheral/Source\gd32vw55x_hau_sha_md5.c ****     return ret;
 1025              		.loc 1 72 11
 1026 0002 3687     		mv	a4,a3
 1027              	.LVL137:
 1028 0004 B286     		mv	a3,a2
 1029              	.LVL138:
 1030 0006 2E86     		mv	a2,a1
 1031              	.LVL139:
 1032 0008 AA85     		mv	a1,a0
 1033              	.LVL140:
 1034 000a 0145     		li	a0,0
 1035              	.LVL141:
 1036 000c 17030000 		tail	hau_hmac_calculate
 1036      67000300 
 1037              	.LVL142:
  73:C:/Users/stapi/OneDrive/Desktop/GD32VW553/V1_MQTT_OK/GD32VW55X_Wifi_BLE_SDK/GD32VW55x_RELEASE_V1.0.2/MSDK/plf/GD32VW55x_standard_peripheral/Source\gd32vw55x_hau_sha_md5.c **** }
 1038              		.loc 1 73 5 is_stmt 1
 1039              		.cfi_endproc
 1040              	.LFE366:
 1042              		.section	.text.hau_hmac_sha_224,"ax",@progbits
 1043              		.align	1
 1044              		.globl	hau_hmac_sha_224
 1046              	hau_hmac_sha_224:
 1047              	.LFB368:
 102:C:/Users/stapi/OneDrive/Desktop/GD32VW553/V1_MQTT_OK/GD32VW55X_Wifi_BLE_SDK/GD32VW55x_RELEASE_V1.0.2/MSDK/plf/GD32VW55x_standard_peripheral/Source\gd32vw55x_hau_sha_md5.c ****     ErrStatus ret = ERROR;
 1048              		.loc 1 102 1
 1049              		.cfi_startproc
 1050              	.LVL143:
 103:C:/Users/stapi/OneDrive/Desktop/GD32VW553/V1_MQTT_OK/GD32VW55X_Wifi_BLE_SDK/GD32VW55x_RELEASE_V1.0.2/MSDK/plf/GD32VW55x_standard_peripheral/Source\gd32vw55x_hau_sha_md5.c ****     ret = hau_hmac_calculate(HAU_ALGO_SHA224, key, keysize, input, in_length, output);
 1051              		.loc 1 103 5
 104:C:/Users/stapi/OneDrive/Desktop/GD32VW553/V1_MQTT_OK/GD32VW55X_Wifi_BLE_SDK/GD32VW55x_RELEASE_V1.0.2/MSDK/plf/GD32VW55x_standard_peripheral/Source\gd32vw55x_hau_sha_md5.c ****     return ret;
 1052              		.loc 1 104 5
 102:C:/Users/stapi/OneDrive/Desktop/GD32VW553/V1_MQTT_OK/GD32VW55X_Wifi_BLE_SDK/GD32VW55x_RELEASE_V1.0.2/MSDK/plf/GD32VW55x_standard_peripheral/Source\gd32vw55x_hau_sha_md5.c ****     ErrStatus ret = ERROR;
 1053              		.loc 1 102 1 is_stmt 0
 1054 0000 BA87     		mv	a5,a4
 104:C:/Users/stapi/OneDrive/Desktop/GD32VW553/V1_MQTT_OK/GD32VW55X_Wifi_BLE_SDK/GD32VW55x_RELEASE_V1.0.2/MSDK/plf/GD32VW55x_standard_peripheral/Source\gd32vw55x_hau_sha_md5.c ****     return ret;
 1055              		.loc 1 104 11
 1056 0002 3687     		mv	a4,a3
 1057              	.LVL144:
 1058 0004 B286     		mv	a3,a2
 1059              	.LVL145:
 1060 0006 2E86     		mv	a2,a1
 1061              	.LVL146:
 1062 0008 AA85     		mv	a1,a0
 1063              	.LVL147:
 1064 000a 37050400 		li	a0,262144
 1065              	.LVL148:
 1066 000e 17030000 		tail	hau_hmac_calculate
 1066      67000300 
 1067              	.LVL149:
 105:C:/Users/stapi/OneDrive/Desktop/GD32VW553/V1_MQTT_OK/GD32VW55X_Wifi_BLE_SDK/GD32VW55x_RELEASE_V1.0.2/MSDK/plf/GD32VW55x_standard_peripheral/Source\gd32vw55x_hau_sha_md5.c **** }
 1068              		.loc 1 105 5 is_stmt 1
 1069              		.cfi_endproc
 1070              	.LFE368:
 1072              		.section	.text.hau_hmac_sha_256,"ax",@progbits
 1073              		.align	1
 1074              		.globl	hau_hmac_sha_256
 1076              	hau_hmac_sha_256:
 1077              	.LFB370:
 134:C:/Users/stapi/OneDrive/Desktop/GD32VW553/V1_MQTT_OK/GD32VW55X_Wifi_BLE_SDK/GD32VW55x_RELEASE_V1.0.2/MSDK/plf/GD32VW55x_standard_peripheral/Source\gd32vw55x_hau_sha_md5.c ****     ErrStatus ret = ERROR;
 1078              		.loc 1 134 1
 1079              		.cfi_startproc
 1080              	.LVL150:
 135:C:/Users/stapi/OneDrive/Desktop/GD32VW553/V1_MQTT_OK/GD32VW55X_Wifi_BLE_SDK/GD32VW55x_RELEASE_V1.0.2/MSDK/plf/GD32VW55x_standard_peripheral/Source\gd32vw55x_hau_sha_md5.c ****     ret = hau_hmac_calculate(HAU_ALGO_SHA256, key, keysize, input, in_length, output);
 1081              		.loc 1 135 5
 136:C:/Users/stapi/OneDrive/Desktop/GD32VW553/V1_MQTT_OK/GD32VW55X_Wifi_BLE_SDK/GD32VW55x_RELEASE_V1.0.2/MSDK/plf/GD32VW55x_standard_peripheral/Source\gd32vw55x_hau_sha_md5.c ****     return ret;
 1082              		.loc 1 136 5
 134:C:/Users/stapi/OneDrive/Desktop/GD32VW553/V1_MQTT_OK/GD32VW55X_Wifi_BLE_SDK/GD32VW55x_RELEASE_V1.0.2/MSDK/plf/GD32VW55x_standard_peripheral/Source\gd32vw55x_hau_sha_md5.c ****     ErrStatus ret = ERROR;
 1083              		.loc 1 134 1 is_stmt 0
 1084 0000 BA87     		mv	a5,a4
 136:C:/Users/stapi/OneDrive/Desktop/GD32VW553/V1_MQTT_OK/GD32VW55X_Wifi_BLE_SDK/GD32VW55x_RELEASE_V1.0.2/MSDK/plf/GD32VW55x_standard_peripheral/Source\gd32vw55x_hau_sha_md5.c ****     return ret;
 1085              		.loc 1 136 11
 1086 0002 3687     		mv	a4,a3
 1087              	.LVL151:
 1088 0004 B286     		mv	a3,a2
 1089              	.LVL152:
 1090 0006 2E86     		mv	a2,a1
 1091              	.LVL153:
 1092 0008 AA85     		mv	a1,a0
 1093              	.LVL154:
 1094 000a 37050400 		li	a0,262144
 1095              	.LVL155:
 1096 000e 13050508 		addi	a0,a0,128
 1097 0012 17030000 		tail	hau_hmac_calculate
 1097      67000300 
 1098              	.LVL156:
 137:C:/Users/stapi/OneDrive/Desktop/GD32VW553/V1_MQTT_OK/GD32VW55X_Wifi_BLE_SDK/GD32VW55x_RELEASE_V1.0.2/MSDK/plf/GD32VW55x_standard_peripheral/Source\gd32vw55x_hau_sha_md5.c **** }
 1099              		.loc 1 137 5 is_stmt 1
 1100              		.cfi_endproc
 1101              	.LFE370:
 1103              		.section	.text.hau_hmac_md5,"ax",@progbits
 1104              		.align	1
 1105              		.globl	hau_hmac_md5
 1107              	hau_hmac_md5:
 1108              	.LFB372:
 166:C:/Users/stapi/OneDrive/Desktop/GD32VW553/V1_MQTT_OK/GD32VW55X_Wifi_BLE_SDK/GD32VW55x_RELEASE_V1.0.2/MSDK/plf/GD32VW55x_standard_peripheral/Source\gd32vw55x_hau_sha_md5.c ****     ErrStatus ret = ERROR;
 1109              		.loc 1 166 1
 1110              		.cfi_startproc
 1111              	.LVL157:
 167:C:/Users/stapi/OneDrive/Desktop/GD32VW553/V1_MQTT_OK/GD32VW55X_Wifi_BLE_SDK/GD32VW55x_RELEASE_V1.0.2/MSDK/plf/GD32VW55x_standard_peripheral/Source\gd32vw55x_hau_sha_md5.c ****     ret = hau_hmac_calculate(HAU_ALGO_MD5, key, keysize, input, in_length, output);
 1112              		.loc 1 167 5
 168:C:/Users/stapi/OneDrive/Desktop/GD32VW553/V1_MQTT_OK/GD32VW55X_Wifi_BLE_SDK/GD32VW55x_RELEASE_V1.0.2/MSDK/plf/GD32VW55x_standard_peripheral/Source\gd32vw55x_hau_sha_md5.c ****     return ret;
 1113              		.loc 1 168 5
 166:C:/Users/stapi/OneDrive/Desktop/GD32VW553/V1_MQTT_OK/GD32VW55X_Wifi_BLE_SDK/GD32VW55x_RELEASE_V1.0.2/MSDK/plf/GD32VW55x_standard_peripheral/Source\gd32vw55x_hau_sha_md5.c ****     ErrStatus ret = ERROR;
 1114              		.loc 1 166 1 is_stmt 0
 1115 0000 BA87     		mv	a5,a4
 168:C:/Users/stapi/OneDrive/Desktop/GD32VW553/V1_MQTT_OK/GD32VW55X_Wifi_BLE_SDK/GD32VW55x_RELEASE_V1.0.2/MSDK/plf/GD32VW55x_standard_peripheral/Source\gd32vw55x_hau_sha_md5.c ****     return ret;
 1116              		.loc 1 168 11
 1117 0002 3687     		mv	a4,a3
 1118              	.LVL158:
 1119 0004 B286     		mv	a3,a2
 1120              	.LVL159:
 1121 0006 2E86     		mv	a2,a1
 1122              	.LVL160:
 1123 0008 AA85     		mv	a1,a0
 1124              	.LVL161:
 1125 000a 13050008 		li	a0,128
 1126              	.LVL162:
 1127 000e 17030000 		tail	hau_hmac_calculate
 1127      67000300 
 1128              	.LVL163:
 169:C:/Users/stapi/OneDrive/Desktop/GD32VW553/V1_MQTT_OK/GD32VW55X_Wifi_BLE_SDK/GD32VW55x_RELEASE_V1.0.2/MSDK/plf/GD32VW55x_standard_peripheral/Source\gd32vw55x_hau_sha_md5.c **** }
 1129              		.loc 1 169 5 is_stmt 1
 1130              		.cfi_endproc
 1131              	.LFE372:
 1133              		.text
 1134              	.Letext0:
 1135              		.file 3 "c:\\users\\stapi\\onedrive\\desktop\\gd32vw553\\embeddedbuilder_v1.4.7.26843\\tools\\nucl
 1136              		.file 4 "c:\\users\\stapi\\onedrive\\desktop\\gd32vw553\\embeddedbuilder_v1.4.7.26843\\tools\\nucl
 1137              		.file 5 "..\\..\\..\\..\\plf\\riscv\\gd32vw55x/gd32vw55x.h"
 1138              		.file 6 "..\\..\\..\\..\\plf\\GD32VW55x_standard_peripheral\\Include/gd32vw55x_hau.h"
DEFINED SYMBOLS
                            *ABS*:0000000000000000 gd32vw55x_hau_sha_md5.c
C:\Users\stapi\AppData\Local\Temp\ccNDCObj.s:13     .text.hau_sha_md5_digest_read:0000000000000000 hau_sha_md5_digest_read
C:\Users\stapi\AppData\Local\Temp\ccNDCObj.s:17     .text.hau_sha_md5_digest_read:0000000000000000 .L0 
C:\Users\stapi\AppData\Local\Temp\ccNDCObj.s:19     .text.hau_sha_md5_digest_read:0000000000000000 .L0 
C:\Users\stapi\AppData\Local\Temp\ccNDCObj.s:20     .text.hau_sha_md5_digest_read:0000000000000008 .L0 
C:\Users\stapi\AppData\Local\Temp\ccNDCObj.s:21     .text.hau_sha_md5_digest_read:0000000000000008 .L0 
C:\Users\stapi\AppData\Local\Temp\ccNDCObj.s:22     .text.hau_sha_md5_digest_read:0000000000000008 .L0 
C:\Users\stapi\AppData\Local\Temp\ccNDCObj.s:24     .text.hau_sha_md5_digest_read:0000000000000008 .L0 
C:\Users\stapi\AppData\Local\Temp\ccNDCObj.s:26     .text.hau_sha_md5_digest_read:0000000000000008 .L0 
C:\Users\stapi\AppData\Local\Temp\ccNDCObj.s:27     .text.hau_sha_md5_digest_read:0000000000000008 .L0 
C:\Users\stapi\AppData\Local\Temp\ccNDCObj.s:29     .text.hau_sha_md5_digest_read:000000000000000c .L0 
C:\Users\stapi\AppData\Local\Temp\ccNDCObj.s:30     .text.hau_sha_md5_digest_read:000000000000000e .L0 
C:\Users\stapi\AppData\Local\Temp\ccNDCObj.s:32     .text.hau_sha_md5_digest_read:000000000000000e .L0 
C:\Users\stapi\AppData\Local\Temp\ccNDCObj.s:34     .text.hau_sha_md5_digest_read:0000000000000010 .L0 
C:\Users\stapi\AppData\Local\Temp\ccNDCObj.s:42     .text.hau_sha_md5_digest_read:0000000000000022 .L0 
C:\Users\stapi\AppData\Local\Temp\ccNDCObj.s:43     .text.hau_sha_md5_digest_read:0000000000000024 .L0 
C:\Users\stapi\AppData\Local\Temp\ccNDCObj.s:44     .text.hau_sha_md5_digest_read:0000000000000024 .L0 
C:\Users\stapi\AppData\Local\Temp\ccNDCObj.s:46     .text.hau_sha_md5_digest_read:000000000000002c .L0 
C:\Users\stapi\AppData\Local\Temp\ccNDCObj.s:47     .text.hau_sha_md5_digest_read:000000000000002c .L0 
C:\Users\stapi\AppData\Local\Temp\ccNDCObj.s:48     .text.hau_sha_md5_digest_read:000000000000002c .L0 
C:\Users\stapi\AppData\Local\Temp\ccNDCObj.s:51     .text.hau_sha_md5_digest_read:000000000000002c .L0 
C:\Users\stapi\AppData\Local\Temp\ccNDCObj.s:53     .text.hau_sha_md5_digest_read:000000000000002c .L0 
C:\Users\stapi\AppData\Local\Temp\ccNDCObj.s:56     .text.hau_sha_md5_digest_read:0000000000000034 .L0 
C:\Users\stapi\AppData\Local\Temp\ccNDCObj.s:61     .text.hau_sha_md5_digest_read:000000000000003e .L0 
C:\Users\stapi\AppData\Local\Temp\ccNDCObj.s:68     .text.hau_sha_md5_digest_read:0000000000000044 .L0 
C:\Users\stapi\AppData\Local\Temp\ccNDCObj.s:69     .text.hau_sha_md5_digest_read:0000000000000044 .L0 
C:\Users\stapi\AppData\Local\Temp\ccNDCObj.s:72     .text.hau_sha_md5_digest_read:0000000000000044 .L0 
C:\Users\stapi\AppData\Local\Temp\ccNDCObj.s:73     .text.hau_sha_md5_digest_read:0000000000000044 .L0 
C:\Users\stapi\AppData\Local\Temp\ccNDCObj.s:76     .text.hau_sha_md5_digest_read:0000000000000046 .L0 
C:\Users\stapi\AppData\Local\Temp\ccNDCObj.s:77     .text.hau_sha_md5_digest_read:0000000000000046 .L0 
C:\Users\stapi\AppData\Local\Temp\ccNDCObj.s:83     .text.hau_sha_md5_digest_read:000000000000004c .L0 
C:\Users\stapi\AppData\Local\Temp\ccNDCObj.s:84     .text.hau_sha_md5_digest_read:000000000000004c .L0 
C:\Users\stapi\AppData\Local\Temp\ccNDCObj.s:87     .text.hau_sha_md5_digest_read:000000000000004c .L0 
C:\Users\stapi\AppData\Local\Temp\ccNDCObj.s:88     .text.hau_sha_md5_digest_read:000000000000004c .L0 
C:\Users\stapi\AppData\Local\Temp\ccNDCObj.s:91     .text.hau_sha_md5_digest_read:000000000000004e .L0 
C:\Users\stapi\AppData\Local\Temp\ccNDCObj.s:92     .text.hau_sha_md5_digest_read:000000000000004e .L0 
C:\Users\stapi\AppData\Local\Temp\ccNDCObj.s:98     .text.hau_sha_md5_digest_read:0000000000000054 .L0 
C:\Users\stapi\AppData\Local\Temp\ccNDCObj.s:99     .text.hau_sha_md5_digest_read:0000000000000054 .L0 
C:\Users\stapi\AppData\Local\Temp\ccNDCObj.s:102    .text.hau_sha_md5_digest_read:0000000000000054 .L0 
C:\Users\stapi\AppData\Local\Temp\ccNDCObj.s:103    .text.hau_sha_md5_digest_read:0000000000000054 .L0 
C:\Users\stapi\AppData\Local\Temp\ccNDCObj.s:106    .text.hau_sha_md5_digest_read:0000000000000056 .L0 
C:\Users\stapi\AppData\Local\Temp\ccNDCObj.s:107    .text.hau_sha_md5_digest_read:0000000000000056 .L0 
C:\Users\stapi\AppData\Local\Temp\ccNDCObj.s:113    .text.hau_sha_md5_digest_read:000000000000005c .L0 
C:\Users\stapi\AppData\Local\Temp\ccNDCObj.s:114    .text.hau_sha_md5_digest_read:000000000000005c .L0 
C:\Users\stapi\AppData\Local\Temp\ccNDCObj.s:117    .text.hau_sha_md5_digest_read:000000000000005c .L0 
C:\Users\stapi\AppData\Local\Temp\ccNDCObj.s:118    .text.hau_sha_md5_digest_read:000000000000005c .L0 
C:\Users\stapi\AppData\Local\Temp\ccNDCObj.s:121    .text.hau_sha_md5_digest_read:000000000000005e .L0 
C:\Users\stapi\AppData\Local\Temp\ccNDCObj.s:122    .text.hau_sha_md5_digest_read:000000000000005e .L0 
C:\Users\stapi\AppData\Local\Temp\ccNDCObj.s:128    .text.hau_sha_md5_digest_read:0000000000000064 .L0 
C:\Users\stapi\AppData\Local\Temp\ccNDCObj.s:129    .text.hau_sha_md5_digest_read:0000000000000064 .L0 
C:\Users\stapi\AppData\Local\Temp\ccNDCObj.s:132    .text.hau_sha_md5_digest_read:0000000000000064 .L0 
C:\Users\stapi\AppData\Local\Temp\ccNDCObj.s:133    .text.hau_sha_md5_digest_read:0000000000000064 .L0 
C:\Users\stapi\AppData\Local\Temp\ccNDCObj.s:136    .text.hau_sha_md5_digest_read:0000000000000066 .L0 
C:\Users\stapi\AppData\Local\Temp\ccNDCObj.s:137    .text.hau_sha_md5_digest_read:0000000000000066 .L0 
C:\Users\stapi\AppData\Local\Temp\ccNDCObj.s:143    .text.hau_sha_md5_digest_read:000000000000006c .L0 
C:\Users\stapi\AppData\Local\Temp\ccNDCObj.s:144    .text.hau_sha_md5_digest_read:000000000000006c .L0 
C:\Users\stapi\AppData\Local\Temp\ccNDCObj.s:147    .text.hau_sha_md5_digest_read:000000000000006c .L0 
C:\Users\stapi\AppData\Local\Temp\ccNDCObj.s:148    .text.hau_sha_md5_digest_read:000000000000006c .L0 
C:\Users\stapi\AppData\Local\Temp\ccNDCObj.s:151    .text.hau_sha_md5_digest_read:000000000000006e .L0 
C:\Users\stapi\AppData\Local\Temp\ccNDCObj.s:152    .text.hau_sha_md5_digest_read:000000000000006e .L0 
C:\Users\stapi\AppData\Local\Temp\ccNDCObj.s:158    .text.hau_sha_md5_digest_read:0000000000000074 .L0 
C:\Users\stapi\AppData\Local\Temp\ccNDCObj.s:159    .text.hau_sha_md5_digest_read:0000000000000074 .L0 
C:\Users\stapi\AppData\Local\Temp\ccNDCObj.s:162    .text.hau_sha_md5_digest_read:0000000000000074 .L0 
C:\Users\stapi\AppData\Local\Temp\ccNDCObj.s:163    .text.hau_sha_md5_digest_read:0000000000000074 .L0 
C:\Users\stapi\AppData\Local\Temp\ccNDCObj.s:166    .text.hau_sha_md5_digest_read:0000000000000076 .L0 
C:\Users\stapi\AppData\Local\Temp\ccNDCObj.s:167    .text.hau_sha_md5_digest_read:0000000000000076 .L0 
C:\Users\stapi\AppData\Local\Temp\ccNDCObj.s:173    .text.hau_sha_md5_digest_read:000000000000007c .L0 
C:\Users\stapi\AppData\Local\Temp\ccNDCObj.s:174    .text.hau_sha_md5_digest_read:000000000000007c .L0 
C:\Users\stapi\AppData\Local\Temp\ccNDCObj.s:177    .text.hau_sha_md5_digest_read:000000000000007c .L0 
C:\Users\stapi\AppData\Local\Temp\ccNDCObj.s:178    .text.hau_sha_md5_digest_read:000000000000007c .L0 
C:\Users\stapi\AppData\Local\Temp\ccNDCObj.s:180    .text.hau_sha_md5_digest_read:000000000000007e .L0 
C:\Users\stapi\AppData\Local\Temp\ccNDCObj.s:184    .text.hau_sha_md5_digest_read:0000000000000080 .L0 
C:\Users\stapi\AppData\Local\Temp\ccNDCObj.s:189    .text.hau_sha_md5_digest_read:000000000000008a .L0 
C:\Users\stapi\AppData\Local\Temp\ccNDCObj.s:195    .text.hau_sha_md5_digest_read:0000000000000090 .L0 
C:\Users\stapi\AppData\Local\Temp\ccNDCObj.s:196    .text.hau_sha_md5_digest_read:0000000000000090 .L0 
C:\Users\stapi\AppData\Local\Temp\ccNDCObj.s:199    .text.hau_sha_md5_digest_read:0000000000000090 .L0 
C:\Users\stapi\AppData\Local\Temp\ccNDCObj.s:200    .text.hau_sha_md5_digest_read:0000000000000090 .L0 
C:\Users\stapi\AppData\Local\Temp\ccNDCObj.s:203    .text.hau_sha_md5_digest_read:0000000000000092 .L0 
C:\Users\stapi\AppData\Local\Temp\ccNDCObj.s:204    .text.hau_sha_md5_digest_read:0000000000000092 .L0 
C:\Users\stapi\AppData\Local\Temp\ccNDCObj.s:210    .text.hau_sha_md5_digest_read:0000000000000098 .L0 
C:\Users\stapi\AppData\Local\Temp\ccNDCObj.s:211    .text.hau_sha_md5_digest_read:0000000000000098 .L0 
C:\Users\stapi\AppData\Local\Temp\ccNDCObj.s:214    .text.hau_sha_md5_digest_read:0000000000000098 .L0 
C:\Users\stapi\AppData\Local\Temp\ccNDCObj.s:215    .text.hau_sha_md5_digest_read:0000000000000098 .L0 
C:\Users\stapi\AppData\Local\Temp\ccNDCObj.s:218    .text.hau_sha_md5_digest_read:000000000000009a .L0 
C:\Users\stapi\AppData\Local\Temp\ccNDCObj.s:219    .text.hau_sha_md5_digest_read:000000000000009a .L0 
C:\Users\stapi\AppData\Local\Temp\ccNDCObj.s:225    .text.hau_sha_md5_digest_read:00000000000000a0 .L0 
C:\Users\stapi\AppData\Local\Temp\ccNDCObj.s:226    .text.hau_sha_md5_digest_read:00000000000000a0 .L0 
C:\Users\stapi\AppData\Local\Temp\ccNDCObj.s:229    .text.hau_sha_md5_digest_read:00000000000000a0 .L0 
C:\Users\stapi\AppData\Local\Temp\ccNDCObj.s:230    .text.hau_sha_md5_digest_read:00000000000000a0 .L0 
C:\Users\stapi\AppData\Local\Temp\ccNDCObj.s:233    .text.hau_sha_md5_digest_read:00000000000000a2 .L0 
C:\Users\stapi\AppData\Local\Temp\ccNDCObj.s:234    .text.hau_sha_md5_digest_read:00000000000000a2 .L0 
C:\Users\stapi\AppData\Local\Temp\ccNDCObj.s:240    .text.hau_sha_md5_digest_read:00000000000000a8 .L0 
C:\Users\stapi\AppData\Local\Temp\ccNDCObj.s:241    .text.hau_sha_md5_digest_read:00000000000000a8 .L0 
C:\Users\stapi\AppData\Local\Temp\ccNDCObj.s:244    .text.hau_sha_md5_digest_read:00000000000000a8 .L0 
C:\Users\stapi\AppData\Local\Temp\ccNDCObj.s:245    .text.hau_sha_md5_digest_read:00000000000000a8 .L0 
C:\Users\stapi\AppData\Local\Temp\ccNDCObj.s:248    .text.hau_sha_md5_digest_read:00000000000000aa .L0 
C:\Users\stapi\AppData\Local\Temp\ccNDCObj.s:249    .text.hau_sha_md5_digest_read:00000000000000aa .L0 
C:\Users\stapi\AppData\Local\Temp\ccNDCObj.s:255    .text.hau_sha_md5_digest_read:00000000000000b0 .L0 
C:\Users\stapi\AppData\Local\Temp\ccNDCObj.s:256    .text.hau_sha_md5_digest_read:00000000000000b0 .L0 
C:\Users\stapi\AppData\Local\Temp\ccNDCObj.s:259    .text.hau_sha_md5_digest_read:00000000000000b0 .L0 
C:\Users\stapi\AppData\Local\Temp\ccNDCObj.s:260    .text.hau_sha_md5_digest_read:00000000000000b0 .L0 
C:\Users\stapi\AppData\Local\Temp\ccNDCObj.s:262    .text.hau_sha_md5_digest_read:00000000000000b2 .L0 
C:\Users\stapi\AppData\Local\Temp\ccNDCObj.s:266    .text.hau_sha_md5_digest_read:00000000000000b4 .L0 
C:\Users\stapi\AppData\Local\Temp\ccNDCObj.s:271    .text.hau_sha_md5_digest_read:00000000000000be .L0 
C:\Users\stapi\AppData\Local\Temp\ccNDCObj.s:277    .text.hau_sha_md5_digest_read:00000000000000c4 .L0 
C:\Users\stapi\AppData\Local\Temp\ccNDCObj.s:278    .text.hau_sha_md5_digest_read:00000000000000c4 .L0 
C:\Users\stapi\AppData\Local\Temp\ccNDCObj.s:281    .text.hau_sha_md5_digest_read:00000000000000c4 .L0 
C:\Users\stapi\AppData\Local\Temp\ccNDCObj.s:282    .text.hau_sha_md5_digest_read:00000000000000c4 .L0 
C:\Users\stapi\AppData\Local\Temp\ccNDCObj.s:285    .text.hau_sha_md5_digest_read:00000000000000c6 .L0 
C:\Users\stapi\AppData\Local\Temp\ccNDCObj.s:286    .text.hau_sha_md5_digest_read:00000000000000c6 .L0 
C:\Users\stapi\AppData\Local\Temp\ccNDCObj.s:292    .text.hau_sha_md5_digest_read:00000000000000cc .L0 
C:\Users\stapi\AppData\Local\Temp\ccNDCObj.s:293    .text.hau_sha_md5_digest_read:00000000000000cc .L0 
C:\Users\stapi\AppData\Local\Temp\ccNDCObj.s:296    .text.hau_sha_md5_digest_read:00000000000000cc .L0 
C:\Users\stapi\AppData\Local\Temp\ccNDCObj.s:297    .text.hau_sha_md5_digest_read:00000000000000cc .L0 
C:\Users\stapi\AppData\Local\Temp\ccNDCObj.s:300    .text.hau_sha_md5_digest_read:00000000000000ce .L0 
C:\Users\stapi\AppData\Local\Temp\ccNDCObj.s:301    .text.hau_sha_md5_digest_read:00000000000000ce .L0 
C:\Users\stapi\AppData\Local\Temp\ccNDCObj.s:307    .text.hau_sha_md5_digest_read:00000000000000d4 .L0 
C:\Users\stapi\AppData\Local\Temp\ccNDCObj.s:308    .text.hau_sha_md5_digest_read:00000000000000d4 .L0 
C:\Users\stapi\AppData\Local\Temp\ccNDCObj.s:311    .text.hau_sha_md5_digest_read:00000000000000d4 .L0 
C:\Users\stapi\AppData\Local\Temp\ccNDCObj.s:312    .text.hau_sha_md5_digest_read:00000000000000d4 .L0 
C:\Users\stapi\AppData\Local\Temp\ccNDCObj.s:315    .text.hau_sha_md5_digest_read:00000000000000d6 .L0 
C:\Users\stapi\AppData\Local\Temp\ccNDCObj.s:316    .text.hau_sha_md5_digest_read:00000000000000d6 .L0 
C:\Users\stapi\AppData\Local\Temp\ccNDCObj.s:322    .text.hau_sha_md5_digest_read:00000000000000dc .L0 
C:\Users\stapi\AppData\Local\Temp\ccNDCObj.s:323    .text.hau_sha_md5_digest_read:00000000000000dc .L0 
C:\Users\stapi\AppData\Local\Temp\ccNDCObj.s:326    .text.hau_sha_md5_digest_read:00000000000000dc .L0 
C:\Users\stapi\AppData\Local\Temp\ccNDCObj.s:327    .text.hau_sha_md5_digest_read:00000000000000dc .L0 
C:\Users\stapi\AppData\Local\Temp\ccNDCObj.s:330    .text.hau_sha_md5_digest_read:00000000000000de .L0 
C:\Users\stapi\AppData\Local\Temp\ccNDCObj.s:331    .text.hau_sha_md5_digest_read:00000000000000de .L0 
C:\Users\stapi\AppData\Local\Temp\ccNDCObj.s:337    .text.hau_sha_md5_digest_read:00000000000000e4 .L0 
C:\Users\stapi\AppData\Local\Temp\ccNDCObj.s:338    .text.hau_sha_md5_digest_read:00000000000000e4 .L0 
C:\Users\stapi\AppData\Local\Temp\ccNDCObj.s:341    .text.hau_sha_md5_digest_read:00000000000000e4 .L0 
C:\Users\stapi\AppData\Local\Temp\ccNDCObj.s:342    .text.hau_sha_md5_digest_read:00000000000000e4 .L0 
C:\Users\stapi\AppData\Local\Temp\ccNDCObj.s:345    .text.hau_sha_md5_digest_read:00000000000000e6 .L0 
C:\Users\stapi\AppData\Local\Temp\ccNDCObj.s:346    .text.hau_sha_md5_digest_read:00000000000000e6 .L0 
C:\Users\stapi\AppData\Local\Temp\ccNDCObj.s:352    .text.hau_sha_md5_digest_read:00000000000000ec .L0 
C:\Users\stapi\AppData\Local\Temp\ccNDCObj.s:353    .text.hau_sha_md5_digest_read:00000000000000ec .L0 
C:\Users\stapi\AppData\Local\Temp\ccNDCObj.s:356    .text.hau_sha_md5_digest_read:00000000000000ec .L0 
C:\Users\stapi\AppData\Local\Temp\ccNDCObj.s:357    .text.hau_sha_md5_digest_read:00000000000000ec .L0 
C:\Users\stapi\AppData\Local\Temp\ccNDCObj.s:360    .text.hau_sha_md5_digest_read:00000000000000ee .L0 
C:\Users\stapi\AppData\Local\Temp\ccNDCObj.s:361    .text.hau_sha_md5_digest_read:00000000000000ee .L0 
C:\Users\stapi\AppData\Local\Temp\ccNDCObj.s:367    .text.hau_sha_md5_digest_read:00000000000000f4 .L0 
C:\Users\stapi\AppData\Local\Temp\ccNDCObj.s:368    .text.hau_sha_md5_digest_read:00000000000000f4 .L0 
C:\Users\stapi\AppData\Local\Temp\ccNDCObj.s:371    .text.hau_sha_md5_digest_read:00000000000000f4 .L0 
C:\Users\stapi\AppData\Local\Temp\ccNDCObj.s:372    .text.hau_sha_md5_digest_read:00000000000000f4 .L0 
C:\Users\stapi\AppData\Local\Temp\ccNDCObj.s:374    .text.hau_sha_md5_digest_read:00000000000000f6 .L0 
C:\Users\stapi\AppData\Local\Temp\ccNDCObj.s:378    .text.hau_sha_md5_digest_read:00000000000000f8 .L0 
C:\Users\stapi\AppData\Local\Temp\ccNDCObj.s:383    .text.hau_sha_md5_digest_read:0000000000000102 .L0 
C:\Users\stapi\AppData\Local\Temp\ccNDCObj.s:389    .text.hau_sha_md5_digest_read:0000000000000108 .L0 
C:\Users\stapi\AppData\Local\Temp\ccNDCObj.s:390    .text.hau_sha_md5_digest_read:0000000000000108 .L0 
C:\Users\stapi\AppData\Local\Temp\ccNDCObj.s:393    .text.hau_sha_md5_digest_read:0000000000000108 .L0 
C:\Users\stapi\AppData\Local\Temp\ccNDCObj.s:394    .text.hau_sha_md5_digest_read:0000000000000108 .L0 
C:\Users\stapi\AppData\Local\Temp\ccNDCObj.s:397    .text.hau_sha_md5_digest_read:000000000000010a .L0 
C:\Users\stapi\AppData\Local\Temp\ccNDCObj.s:398    .text.hau_sha_md5_digest_read:000000000000010a .L0 
C:\Users\stapi\AppData\Local\Temp\ccNDCObj.s:404    .text.hau_sha_md5_digest_read:0000000000000110 .L0 
C:\Users\stapi\AppData\Local\Temp\ccNDCObj.s:405    .text.hau_sha_md5_digest_read:0000000000000110 .L0 
C:\Users\stapi\AppData\Local\Temp\ccNDCObj.s:408    .text.hau_sha_md5_digest_read:0000000000000110 .L0 
C:\Users\stapi\AppData\Local\Temp\ccNDCObj.s:409    .text.hau_sha_md5_digest_read:0000000000000110 .L0 
C:\Users\stapi\AppData\Local\Temp\ccNDCObj.s:412    .text.hau_sha_md5_digest_read:0000000000000112 .L0 
C:\Users\stapi\AppData\Local\Temp\ccNDCObj.s:413    .text.hau_sha_md5_digest_read:0000000000000112 .L0 
C:\Users\stapi\AppData\Local\Temp\ccNDCObj.s:419    .text.hau_sha_md5_digest_read:0000000000000118 .L0 
C:\Users\stapi\AppData\Local\Temp\ccNDCObj.s:420    .text.hau_sha_md5_digest_read:0000000000000118 .L0 
C:\Users\stapi\AppData\Local\Temp\ccNDCObj.s:423    .text.hau_sha_md5_digest_read:0000000000000118 .L0 
C:\Users\stapi\AppData\Local\Temp\ccNDCObj.s:424    .text.hau_sha_md5_digest_read:0000000000000118 .L0 
C:\Users\stapi\AppData\Local\Temp\ccNDCObj.s:427    .text.hau_sha_md5_digest_read:000000000000011a .L0 
C:\Users\stapi\AppData\Local\Temp\ccNDCObj.s:428    .text.hau_sha_md5_digest_read:000000000000011a .L0 
C:\Users\stapi\AppData\Local\Temp\ccNDCObj.s:434    .text.hau_sha_md5_digest_read:0000000000000120 .L0 
C:\Users\stapi\AppData\Local\Temp\ccNDCObj.s:435    .text.hau_sha_md5_digest_read:0000000000000120 .L0 
C:\Users\stapi\AppData\Local\Temp\ccNDCObj.s:438    .text.hau_sha_md5_digest_read:0000000000000120 .L0 
C:\Users\stapi\AppData\Local\Temp\ccNDCObj.s:439    .text.hau_sha_md5_digest_read:0000000000000120 .L0 
C:\Users\stapi\AppData\Local\Temp\ccNDCObj.s:441    .text.hau_sha_md5_digest_read:0000000000000122 .L0 
C:\Users\stapi\AppData\Local\Temp\ccNDCObj.s:442    .text.hau_sha_md5_digest_read:0000000000000122 .L0 
C:\Users\stapi\AppData\Local\Temp\ccNDCObj.s:443    .text.hau_sha_md5_digest_read:0000000000000124 .L0 
C:\Users\stapi\AppData\Local\Temp\ccNDCObj.s:449    .text.hau_hash_calculate:0000000000000000 hau_hash_calculate
C:\Users\stapi\AppData\Local\Temp\ccNDCObj.s:452    .text.hau_hash_calculate:0000000000000000 .L0 
C:\Users\stapi\AppData\Local\Temp\ccNDCObj.s:454    .text.hau_hash_calculate:0000000000000000 .L0 
C:\Users\stapi\AppData\Local\Temp\ccNDCObj.s:455    .text.hau_hash_calculate:0000000000000008 .L0 
C:\Users\stapi\AppData\Local\Temp\ccNDCObj.s:456    .text.hau_hash_calculate:0000000000000008 .L0 
C:\Users\stapi\AppData\Local\Temp\ccNDCObj.s:457    .text.hau_hash_calculate:0000000000000008 .L0 
C:\Users\stapi\AppData\Local\Temp\ccNDCObj.s:458    .text.hau_hash_calculate:0000000000000008 .L0 
C:\Users\stapi\AppData\Local\Temp\ccNDCObj.s:459    .text.hau_hash_calculate:0000000000000008 .L0 
C:\Users\stapi\AppData\Local\Temp\ccNDCObj.s:460    .text.hau_hash_calculate:0000000000000008 .L0 
C:\Users\stapi\AppData\Local\Temp\ccNDCObj.s:461    .text.hau_hash_calculate:0000000000000008 .L0 
C:\Users\stapi\AppData\Local\Temp\ccNDCObj.s:463    .text.hau_hash_calculate:0000000000000008 .L0 
C:\Users\stapi\AppData\Local\Temp\ccNDCObj.s:464    .text.hau_hash_calculate:0000000000000008 .L0 
C:\Users\stapi\AppData\Local\Temp\ccNDCObj.s:465    .text.hau_hash_calculate:0000000000000008 .L0 
C:\Users\stapi\AppData\Local\Temp\ccNDCObj.s:466    .text.hau_hash_calculate:000000000000000a .L0 
C:\Users\stapi\AppData\Local\Temp\ccNDCObj.s:468    .text.hau_hash_calculate:000000000000000a .L0 
C:\Users\stapi\AppData\Local\Temp\ccNDCObj.s:470    .text.hau_hash_calculate:000000000000000e .L0 
C:\Users\stapi\AppData\Local\Temp\ccNDCObj.s:473    .text.hau_hash_calculate:0000000000000010 .L0 
C:\Users\stapi\AppData\Local\Temp\ccNDCObj.s:474    .text.hau_hash_calculate:0000000000000010 .L0 
C:\Users\stapi\AppData\Local\Temp\ccNDCObj.s:475    .text.hau_hash_calculate:0000000000000010 .L0 
C:\Users\stapi\AppData\Local\Temp\ccNDCObj.s:477    .text.hau_hash_calculate:0000000000000012 .L0 
C:\Users\stapi\AppData\Local\Temp\ccNDCObj.s:480    .text.hau_hash_calculate:0000000000000014 .L0 
C:\Users\stapi\AppData\Local\Temp\ccNDCObj.s:481    .text.hau_hash_calculate:0000000000000014 .L0 
C:\Users\stapi\AppData\Local\Temp\ccNDCObj.s:482    .text.hau_hash_calculate:0000000000000014 .L0 
C:\Users\stapi\AppData\Local\Temp\ccNDCObj.s:486    .text.hau_hash_calculate:0000000000000018 .L0 
C:\Users\stapi\AppData\Local\Temp\ccNDCObj.s:487    .text.hau_hash_calculate:0000000000000018 .L0 
C:\Users\stapi\AppData\Local\Temp\ccNDCObj.s:490    .text.hau_hash_calculate:000000000000001c .L0 
C:\Users\stapi\AppData\Local\Temp\ccNDCObj.s:492    .text.hau_hash_calculate:000000000000001e .L0 
C:\Users\stapi\AppData\Local\Temp\ccNDCObj.s:495    .text.hau_hash_calculate:0000000000000026 .L0 
C:\Users\stapi\AppData\Local\Temp\ccNDCObj.s:496    .text.hau_hash_calculate:0000000000000026 .L0 
C:\Users\stapi\AppData\Local\Temp\ccNDCObj.s:498    .text.hau_hash_calculate:000000000000002a .L0 
C:\Users\stapi\AppData\Local\Temp\ccNDCObj.s:500    .text.hau_hash_calculate:000000000000002c .L0 
C:\Users\stapi\AppData\Local\Temp\ccNDCObj.s:502    .text.hau_hash_calculate:000000000000002e .L0 
C:\Users\stapi\AppData\Local\Temp\ccNDCObj.s:504    .text.hau_hash_calculate:0000000000000030 .L0 
C:\Users\stapi\AppData\Local\Temp\ccNDCObj.s:505    .text.hau_hash_calculate:0000000000000030 .L0 
C:\Users\stapi\AppData\Local\Temp\ccNDCObj.s:507    .text.hau_hash_calculate:0000000000000032 .L0 
C:\Users\stapi\AppData\Local\Temp\ccNDCObj.s:508    .text.hau_hash_calculate:0000000000000032 .L0 
C:\Users\stapi\AppData\Local\Temp\ccNDCObj.s:511    .text.hau_hash_calculate:000000000000003a .L0 
C:\Users\stapi\AppData\Local\Temp\ccNDCObj.s:513    .text.hau_hash_calculate:000000000000003c .L0 
C:\Users\stapi\AppData\Local\Temp\ccNDCObj.s:515    .text.hau_hash_calculate:000000000000003e .L0 
C:\Users\stapi\AppData\Local\Temp\ccNDCObj.s:519    .text.hau_hash_calculate:0000000000000046 .L0 
C:\Users\stapi\AppData\Local\Temp\ccNDCObj.s:520    .text.hau_hash_calculate:0000000000000046 .L0 
C:\Users\stapi\AppData\Local\Temp\ccNDCObj.s:521    .text.hau_hash_calculate:0000000000000046 .L0 
C:\Users\stapi\AppData\Local\Temp\ccNDCObj.s:523    .text.hau_hash_calculate:000000000000004a .L0 
C:\Users\stapi\AppData\Local\Temp\ccNDCObj.s:526    .text.hau_hash_calculate:0000000000000052 .L0 
C:\Users\stapi\AppData\Local\Temp\ccNDCObj.s:530    .text.hau_hash_calculate:0000000000000054 .L0 
C:\Users\stapi\AppData\Local\Temp\ccNDCObj.s:531    .text.hau_hash_calculate:0000000000000054 .L0 
C:\Users\stapi\AppData\Local\Temp\ccNDCObj.s:532    .text.hau_hash_calculate:0000000000000054 .L0 
C:\Users\stapi\AppData\Local\Temp\ccNDCObj.s:536    .text.hau_hash_calculate:000000000000005e .L0 
C:\Users\stapi\AppData\Local\Temp\ccNDCObj.s:538    .text.hau_hash_calculate:0000000000000060 .L0 
C:\Users\stapi\AppData\Local\Temp\ccNDCObj.s:541    .text.hau_hash_calculate:0000000000000062 .L0 
C:\Users\stapi\AppData\Local\Temp\ccNDCObj.s:542    .text.hau_hash_calculate:0000000000000062 .L0 
C:\Users\stapi\AppData\Local\Temp\ccNDCObj.s:545    .text.hau_hash_calculate:0000000000000066 .L0 
C:\Users\stapi\AppData\Local\Temp\ccNDCObj.s:546    .text.hau_hash_calculate:0000000000000066 .L0 
C:\Users\stapi\AppData\Local\Temp\ccNDCObj.s:548    .text.hau_hash_calculate:0000000000000068 .L0 
C:\Users\stapi\AppData\Local\Temp\ccNDCObj.s:550    .text.hau_hash_calculate:000000000000006c .L0 
C:\Users\stapi\AppData\Local\Temp\ccNDCObj.s:554    .text.hau_hash_calculate:000000000000006e .L0 
C:\Users\stapi\AppData\Local\Temp\ccNDCObj.s:559    .text.hau_hash_calculate:000000000000007a .L0 
C:\Users\stapi\AppData\Local\Temp\ccNDCObj.s:560    .text.hau_hash_calculate:000000000000007a .L0 
C:\Users\stapi\AppData\Local\Temp\ccNDCObj.s:565    .text.hau_hash_calculate:000000000000007e .L0 
C:\Users\stapi\AppData\Local\Temp\ccNDCObj.s:568    .text.hau_hash_calculate:0000000000000084 .L0 
C:\Users\stapi\AppData\Local\Temp\ccNDCObj.s:571    .text.hau_hash_calculate:0000000000000086 .L0 
C:\Users\stapi\AppData\Local\Temp\ccNDCObj.s:574    .text.hau_hash_calculate:000000000000008e .L0 
C:\Users\stapi\AppData\Local\Temp\ccNDCObj.s:575    .text.hau_hash_calculate:000000000000008e .L0 
C:\Users\stapi\AppData\Local\Temp\ccNDCObj.s:579    .text.hau_hash_calculate:0000000000000090 .L0 
C:\Users\stapi\AppData\Local\Temp\ccNDCObj.s:580    .text.hau_hash_calculate:0000000000000090 .L0 
C:\Users\stapi\AppData\Local\Temp\ccNDCObj.s:583    .text.hau_hash_calculate:0000000000000092 .L0 
C:\Users\stapi\AppData\Local\Temp\ccNDCObj.s:587    .text.hau_hash_calculate:0000000000000094 .L0 
C:\Users\stapi\AppData\Local\Temp\ccNDCObj.s:588    .text.hau_hash_calculate:0000000000000096 .L0 
C:\Users\stapi\AppData\Local\Temp\ccNDCObj.s:590    .text.hau_hash_calculate:000000000000009e .L0 
C:\Users\stapi\AppData\Local\Temp\ccNDCObj.s:591    .text.hau_hash_calculate:000000000000009e .L0 
C:\Users\stapi\AppData\Local\Temp\ccNDCObj.s:592    .text.hau_hash_calculate:000000000000009e .L0 
C:\Users\stapi\AppData\Local\Temp\ccNDCObj.s:593    .text.hau_hash_calculate:000000000000009e .L0 
C:\Users\stapi\AppData\Local\Temp\ccNDCObj.s:594    .text.hau_hash_calculate:000000000000009e .L0 
C:\Users\stapi\AppData\Local\Temp\ccNDCObj.s:595    .text.hau_hash_calculate:000000000000009e .L0 
C:\Users\stapi\AppData\Local\Temp\ccNDCObj.s:596    .text.hau_hash_calculate:000000000000009e .L0 
C:\Users\stapi\AppData\Local\Temp\ccNDCObj.s:597    .text.hau_hash_calculate:000000000000009e .L0 
C:\Users\stapi\AppData\Local\Temp\ccNDCObj.s:604    .text.hau_hash_sha_1:0000000000000000 hau_hash_sha_1
C:\Users\stapi\AppData\Local\Temp\ccNDCObj.s:607    .text.hau_hash_sha_1:0000000000000000 .L0 
C:\Users\stapi\AppData\Local\Temp\ccNDCObj.s:609    .text.hau_hash_sha_1:0000000000000000 .L0 
C:\Users\stapi\AppData\Local\Temp\ccNDCObj.s:610    .text.hau_hash_sha_1:0000000000000000 .L0 
C:\Users\stapi\AppData\Local\Temp\ccNDCObj.s:611    .text.hau_hash_sha_1:0000000000000000 .L0 
C:\Users\stapi\AppData\Local\Temp\ccNDCObj.s:612    .text.hau_hash_sha_1:0000000000000000 .L0 
C:\Users\stapi\AppData\Local\Temp\ccNDCObj.s:614    .text.hau_hash_sha_1:0000000000000002 .L0 
C:\Users\stapi\AppData\Local\Temp\ccNDCObj.s:623    .text.hau_hash_sha_1:0000000000000010 .L0 
C:\Users\stapi\AppData\Local\Temp\ccNDCObj.s:630    .text.hau_hash_sha_224:0000000000000000 hau_hash_sha_224
C:\Users\stapi\AppData\Local\Temp\ccNDCObj.s:632    .text.hau_hash_sha_224:0000000000000000 .L0 
C:\Users\stapi\AppData\Local\Temp\ccNDCObj.s:633    .text.hau_hash_sha_224:0000000000000000 .L0 
C:\Users\stapi\AppData\Local\Temp\ccNDCObj.s:635    .text.hau_hash_sha_224:0000000000000000 .L0 
C:\Users\stapi\AppData\Local\Temp\ccNDCObj.s:636    .text.hau_hash_sha_224:0000000000000000 .L0 
C:\Users\stapi\AppData\Local\Temp\ccNDCObj.s:637    .text.hau_hash_sha_224:0000000000000000 .L0 
C:\Users\stapi\AppData\Local\Temp\ccNDCObj.s:638    .text.hau_hash_sha_224:0000000000000000 .L0 
C:\Users\stapi\AppData\Local\Temp\ccNDCObj.s:640    .text.hau_hash_sha_224:0000000000000002 .L0 
C:\Users\stapi\AppData\Local\Temp\ccNDCObj.s:649    .text.hau_hash_sha_224:0000000000000012 .L0 
C:\Users\stapi\AppData\Local\Temp\ccNDCObj.s:656    .text.hau_hash_sha_256:0000000000000000 hau_hash_sha_256
C:\Users\stapi\AppData\Local\Temp\ccNDCObj.s:658    .text.hau_hash_sha_256:0000000000000000 .L0 
C:\Users\stapi\AppData\Local\Temp\ccNDCObj.s:659    .text.hau_hash_sha_256:0000000000000000 .L0 
C:\Users\stapi\AppData\Local\Temp\ccNDCObj.s:661    .text.hau_hash_sha_256:0000000000000000 .L0 
C:\Users\stapi\AppData\Local\Temp\ccNDCObj.s:662    .text.hau_hash_sha_256:0000000000000000 .L0 
C:\Users\stapi\AppData\Local\Temp\ccNDCObj.s:663    .text.hau_hash_sha_256:0000000000000000 .L0 
C:\Users\stapi\AppData\Local\Temp\ccNDCObj.s:664    .text.hau_hash_sha_256:0000000000000000 .L0 
C:\Users\stapi\AppData\Local\Temp\ccNDCObj.s:666    .text.hau_hash_sha_256:0000000000000002 .L0 
C:\Users\stapi\AppData\Local\Temp\ccNDCObj.s:676    .text.hau_hash_sha_256:0000000000000016 .L0 
C:\Users\stapi\AppData\Local\Temp\ccNDCObj.s:683    .text.hau_hash_md5:0000000000000000 hau_hash_md5
C:\Users\stapi\AppData\Local\Temp\ccNDCObj.s:685    .text.hau_hash_md5:0000000000000000 .L0 
C:\Users\stapi\AppData\Local\Temp\ccNDCObj.s:686    .text.hau_hash_md5:0000000000000000 .L0 
C:\Users\stapi\AppData\Local\Temp\ccNDCObj.s:688    .text.hau_hash_md5:0000000000000000 .L0 
C:\Users\stapi\AppData\Local\Temp\ccNDCObj.s:689    .text.hau_hash_md5:0000000000000000 .L0 
C:\Users\stapi\AppData\Local\Temp\ccNDCObj.s:690    .text.hau_hash_md5:0000000000000000 .L0 
C:\Users\stapi\AppData\Local\Temp\ccNDCObj.s:691    .text.hau_hash_md5:0000000000000000 .L0 
C:\Users\stapi\AppData\Local\Temp\ccNDCObj.s:693    .text.hau_hash_md5:0000000000000002 .L0 
C:\Users\stapi\AppData\Local\Temp\ccNDCObj.s:702    .text.hau_hash_md5:0000000000000012 .L0 
C:\Users\stapi\AppData\Local\Temp\ccNDCObj.s:708    .text.hau_hmac_calculate:0000000000000000 hau_hmac_calculate
C:\Users\stapi\AppData\Local\Temp\ccNDCObj.s:710    .text.hau_hmac_calculate:0000000000000000 .L0 
C:\Users\stapi\AppData\Local\Temp\ccNDCObj.s:711    .text.hau_hmac_calculate:0000000000000000 .L0 
C:\Users\stapi\AppData\Local\Temp\ccNDCObj.s:713    .text.hau_hmac_calculate:0000000000000000 .L0 
C:\Users\stapi\AppData\Local\Temp\ccNDCObj.s:714    .text.hau_hmac_calculate:0000000000000008 .L0 
C:\Users\stapi\AppData\Local\Temp\ccNDCObj.s:715    .text.hau_hmac_calculate:0000000000000008 .L0 
C:\Users\stapi\AppData\Local\Temp\ccNDCObj.s:716    .text.hau_hmac_calculate:0000000000000008 .L0 
C:\Users\stapi\AppData\Local\Temp\ccNDCObj.s:717    .text.hau_hmac_calculate:0000000000000008 .L0 
C:\Users\stapi\AppData\Local\Temp\ccNDCObj.s:718    .text.hau_hmac_calculate:0000000000000008 .L0 
C:\Users\stapi\AppData\Local\Temp\ccNDCObj.s:719    .text.hau_hmac_calculate:0000000000000008 .L0 
C:\Users\stapi\AppData\Local\Temp\ccNDCObj.s:720    .text.hau_hmac_calculate:0000000000000008 .L0 
C:\Users\stapi\AppData\Local\Temp\ccNDCObj.s:721    .text.hau_hmac_calculate:0000000000000008 .L0 
C:\Users\stapi\AppData\Local\Temp\ccNDCObj.s:722    .text.hau_hmac_calculate:0000000000000008 .L0 
C:\Users\stapi\AppData\Local\Temp\ccNDCObj.s:724    .text.hau_hmac_calculate:0000000000000008 .L0 
C:\Users\stapi\AppData\Local\Temp\ccNDCObj.s:725    .text.hau_hmac_calculate:0000000000000008 .L0 
C:\Users\stapi\AppData\Local\Temp\ccNDCObj.s:726    .text.hau_hmac_calculate:0000000000000008 .L0 
C:\Users\stapi\AppData\Local\Temp\ccNDCObj.s:727    .text.hau_hmac_calculate:000000000000000a .L0 
C:\Users\stapi\AppData\Local\Temp\ccNDCObj.s:729    .text.hau_hmac_calculate:000000000000000a .L0 
C:\Users\stapi\AppData\Local\Temp\ccNDCObj.s:731    .text.hau_hmac_calculate:000000000000000e .L0 
C:\Users\stapi\AppData\Local\Temp\ccNDCObj.s:732    .text.hau_hmac_calculate:000000000000000e .L0 
C:\Users\stapi\AppData\Local\Temp\ccNDCObj.s:735    .text.hau_hmac_calculate:0000000000000012 .L0 
C:\Users\stapi\AppData\Local\Temp\ccNDCObj.s:736    .text.hau_hmac_calculate:0000000000000012 .L0 
C:\Users\stapi\AppData\Local\Temp\ccNDCObj.s:737    .text.hau_hmac_calculate:0000000000000012 .L0 
C:\Users\stapi\AppData\Local\Temp\ccNDCObj.s:739    .text.hau_hmac_calculate:0000000000000014 .L0 
C:\Users\stapi\AppData\Local\Temp\ccNDCObj.s:742    .text.hau_hmac_calculate:0000000000000018 .L0 
C:\Users\stapi\AppData\Local\Temp\ccNDCObj.s:745    .text.hau_hmac_calculate:000000000000001a .L0 
C:\Users\stapi\AppData\Local\Temp\ccNDCObj.s:746    .text.hau_hmac_calculate:000000000000001a .L0 
C:\Users\stapi\AppData\Local\Temp\ccNDCObj.s:747    .text.hau_hmac_calculate:000000000000001a .L0 
C:\Users\stapi\AppData\Local\Temp\ccNDCObj.s:750    .text.hau_hmac_calculate:0000000000000020 .L0 
C:\Users\stapi\AppData\Local\Temp\ccNDCObj.s:753    .text.hau_hmac_calculate:0000000000000026 .L0 
C:\Users\stapi\AppData\Local\Temp\ccNDCObj.s:757    .text.hau_hmac_calculate:000000000000002a .L0 
C:\Users\stapi\AppData\Local\Temp\ccNDCObj.s:758    .text.hau_hmac_calculate:000000000000002a .L0 
C:\Users\stapi\AppData\Local\Temp\ccNDCObj.s:762    .text.hau_hmac_calculate:000000000000002e .L0 
C:\Users\stapi\AppData\Local\Temp\ccNDCObj.s:763    .text.hau_hmac_calculate:000000000000002e .L0 
C:\Users\stapi\AppData\Local\Temp\ccNDCObj.s:764    .text.hau_hmac_calculate:000000000000002e .L0 
C:\Users\stapi\AppData\Local\Temp\ccNDCObj.s:766    .text.hau_hmac_calculate:0000000000000030 .L0 
C:\Users\stapi\AppData\Local\Temp\ccNDCObj.s:768    .text.hau_hmac_calculate:0000000000000034 .L0 
C:\Users\stapi\AppData\Local\Temp\ccNDCObj.s:771    .text.hau_hmac_calculate:000000000000003c .L0 
C:\Users\stapi\AppData\Local\Temp\ccNDCObj.s:772    .text.hau_hmac_calculate:000000000000003c .L0 
C:\Users\stapi\AppData\Local\Temp\ccNDCObj.s:775    .text.hau_hmac_calculate:0000000000000042 .L0 
C:\Users\stapi\AppData\Local\Temp\ccNDCObj.s:777    .text.hau_hmac_calculate:0000000000000046 .L0 
C:\Users\stapi\AppData\Local\Temp\ccNDCObj.s:779    .text.hau_hmac_calculate:000000000000004a .L0 
C:\Users\stapi\AppData\Local\Temp\ccNDCObj.s:781    .text.hau_hmac_calculate:000000000000004c .L0 
C:\Users\stapi\AppData\Local\Temp\ccNDCObj.s:783    .text.hau_hmac_calculate:000000000000004e .L0 
C:\Users\stapi\AppData\Local\Temp\ccNDCObj.s:786    .text.hau_hmac_calculate:0000000000000052 .L0 
C:\Users\stapi\AppData\Local\Temp\ccNDCObj.s:788    .text.hau_hmac_calculate:0000000000000054 .L0 
C:\Users\stapi\AppData\Local\Temp\ccNDCObj.s:789    .text.hau_hmac_calculate:0000000000000054 .L0 
C:\Users\stapi\AppData\Local\Temp\ccNDCObj.s:790    .text.hau_hmac_calculate:0000000000000054 .L0 
C:\Users\stapi\AppData\Local\Temp\ccNDCObj.s:791    .text.hau_hmac_calculate:0000000000000054 .L0 
C:\Users\stapi\AppData\Local\Temp\ccNDCObj.s:794    .text.hau_hmac_calculate:000000000000005c .L0 
C:\Users\stapi\AppData\Local\Temp\ccNDCObj.s:796    .text.hau_hmac_calculate:0000000000000060 .L0 
C:\Users\stapi\AppData\Local\Temp\ccNDCObj.s:798    .text.hau_hmac_calculate:0000000000000062 .L0 
C:\Users\stapi\AppData\Local\Temp\ccNDCObj.s:803    .text.hau_hmac_calculate:000000000000006e .L0 
C:\Users\stapi\AppData\Local\Temp\ccNDCObj.s:804    .text.hau_hmac_calculate:000000000000006e .L0 
C:\Users\stapi\AppData\Local\Temp\ccNDCObj.s:805    .text.hau_hmac_calculate:000000000000006e .L0 
C:\Users\stapi\AppData\Local\Temp\ccNDCObj.s:807    .text.hau_hmac_calculate:0000000000000072 .L0 
C:\Users\stapi\AppData\Local\Temp\ccNDCObj.s:810    .text.hau_hmac_calculate:000000000000007a .L0 
C:\Users\stapi\AppData\Local\Temp\ccNDCObj.s:814    .text.hau_hmac_calculate:000000000000007c .L0 
C:\Users\stapi\AppData\Local\Temp\ccNDCObj.s:815    .text.hau_hmac_calculate:000000000000007c .L0 
C:\Users\stapi\AppData\Local\Temp\ccNDCObj.s:816    .text.hau_hmac_calculate:000000000000007c .L0 
C:\Users\stapi\AppData\Local\Temp\ccNDCObj.s:820    .text.hau_hmac_calculate:0000000000000086 .L0 
C:\Users\stapi\AppData\Local\Temp\ccNDCObj.s:821    .text.hau_hmac_calculate:0000000000000086 .L0 
C:\Users\stapi\AppData\Local\Temp\ccNDCObj.s:825    .text.hau_hmac_calculate:000000000000008c .L0 
C:\Users\stapi\AppData\Local\Temp\ccNDCObj.s:826    .text.hau_hmac_calculate:000000000000008c .L0 
C:\Users\stapi\AppData\Local\Temp\ccNDCObj.s:828    .text.hau_hmac_calculate:000000000000008e .L0 
C:\Users\stapi\AppData\Local\Temp\ccNDCObj.s:830    .text.hau_hmac_calculate:0000000000000092 .L0 
C:\Users\stapi\AppData\Local\Temp\ccNDCObj.s:833    .text.hau_hmac_calculate:0000000000000094 .L0 
C:\Users\stapi\AppData\Local\Temp\ccNDCObj.s:836    .text.hau_hmac_calculate:0000000000000098 .L0 
C:\Users\stapi\AppData\Local\Temp\ccNDCObj.s:838    .text.hau_hmac_calculate:000000000000009a .L0 
C:\Users\stapi\AppData\Local\Temp\ccNDCObj.s:843    .text.hau_hmac_calculate:00000000000000a6 .L0 
C:\Users\stapi\AppData\Local\Temp\ccNDCObj.s:844    .text.hau_hmac_calculate:00000000000000a6 .L0 
C:\Users\stapi\AppData\Local\Temp\ccNDCObj.s:845    .text.hau_hmac_calculate:00000000000000a6 .L0 
C:\Users\stapi\AppData\Local\Temp\ccNDCObj.s:847    .text.hau_hmac_calculate:00000000000000aa .L0 
C:\Users\stapi\AppData\Local\Temp\ccNDCObj.s:850    .text.hau_hmac_calculate:00000000000000b2 .L0 
C:\Users\stapi\AppData\Local\Temp\ccNDCObj.s:851    .text.hau_hmac_calculate:00000000000000b2 .L0 
C:\Users\stapi\AppData\Local\Temp\ccNDCObj.s:854    .text.hau_hmac_calculate:00000000000000b4 .L0 
C:\Users\stapi\AppData\Local\Temp\ccNDCObj.s:857    .text.hau_hmac_calculate:00000000000000b6 .L0 
C:\Users\stapi\AppData\Local\Temp\ccNDCObj.s:858    .text.hau_hmac_calculate:00000000000000b6 .L0 
C:\Users\stapi\AppData\Local\Temp\ccNDCObj.s:859    .text.hau_hmac_calculate:00000000000000b6 .L0 
C:\Users\stapi\AppData\Local\Temp\ccNDCObj.s:863    .text.hau_hmac_calculate:00000000000000c0 .L0 
C:\Users\stapi\AppData\Local\Temp\ccNDCObj.s:864    .text.hau_hmac_calculate:00000000000000c0 .L0 
C:\Users\stapi\AppData\Local\Temp\ccNDCObj.s:868    .text.hau_hmac_calculate:00000000000000c6 .L0 
C:\Users\stapi\AppData\Local\Temp\ccNDCObj.s:869    .text.hau_hmac_calculate:00000000000000c6 .L0 
C:\Users\stapi\AppData\Local\Temp\ccNDCObj.s:871    .text.hau_hmac_calculate:00000000000000c8 .L0 
C:\Users\stapi\AppData\Local\Temp\ccNDCObj.s:873    .text.hau_hmac_calculate:00000000000000cc .L0 
C:\Users\stapi\AppData\Local\Temp\ccNDCObj.s:876    .text.hau_hmac_calculate:00000000000000ce .L0 
C:\Users\stapi\AppData\Local\Temp\ccNDCObj.s:879    .text.hau_hmac_calculate:00000000000000d2 .L0 
C:\Users\stapi\AppData\Local\Temp\ccNDCObj.s:881    .text.hau_hmac_calculate:00000000000000d4 .L0 
C:\Users\stapi\AppData\Local\Temp\ccNDCObj.s:885    .text.hau_hmac_calculate:00000000000000e0 .L0 
C:\Users\stapi\AppData\Local\Temp\ccNDCObj.s:887    .text.hau_hmac_calculate:00000000000000e0 .L0 
C:\Users\stapi\AppData\Local\Temp\ccNDCObj.s:888    .text.hau_hmac_calculate:00000000000000e0 .L0 
C:\Users\stapi\AppData\Local\Temp\ccNDCObj.s:889    .text.hau_hmac_calculate:00000000000000e0 .L0 
C:\Users\stapi\AppData\Local\Temp\ccNDCObj.s:891    .text.hau_hmac_calculate:00000000000000e4 .L0 
C:\Users\stapi\AppData\Local\Temp\ccNDCObj.s:894    .text.hau_hmac_calculate:00000000000000ec .L0 
C:\Users\stapi\AppData\Local\Temp\ccNDCObj.s:895    .text.hau_hmac_calculate:00000000000000ec .L0 
C:\Users\stapi\AppData\Local\Temp\ccNDCObj.s:898    .text.hau_hmac_calculate:00000000000000ee .L0 
C:\Users\stapi\AppData\Local\Temp\ccNDCObj.s:901    .text.hau_hmac_calculate:00000000000000f0 .L0 
C:\Users\stapi\AppData\Local\Temp\ccNDCObj.s:902    .text.hau_hmac_calculate:00000000000000f0 .L0 
C:\Users\stapi\AppData\Local\Temp\ccNDCObj.s:903    .text.hau_hmac_calculate:00000000000000f0 .L0 
C:\Users\stapi\AppData\Local\Temp\ccNDCObj.s:907    .text.hau_hmac_calculate:00000000000000fa .L0 
C:\Users\stapi\AppData\Local\Temp\ccNDCObj.s:908    .text.hau_hmac_calculate:00000000000000fa .L0 
C:\Users\stapi\AppData\Local\Temp\ccNDCObj.s:912    .text.hau_hmac_calculate:0000000000000100 .L0 
C:\Users\stapi\AppData\Local\Temp\ccNDCObj.s:913    .text.hau_hmac_calculate:0000000000000100 .L0 
C:\Users\stapi\AppData\Local\Temp\ccNDCObj.s:915    .text.hau_hmac_calculate:0000000000000102 .L0 
C:\Users\stapi\AppData\Local\Temp\ccNDCObj.s:917    .text.hau_hmac_calculate:0000000000000106 .L0 
C:\Users\stapi\AppData\Local\Temp\ccNDCObj.s:920    .text.hau_hmac_calculate:0000000000000108 .L0 
C:\Users\stapi\AppData\Local\Temp\ccNDCObj.s:926    .text.hau_hmac_calculate:0000000000000114 .L0 
C:\Users\stapi\AppData\Local\Temp\ccNDCObj.s:927    .text.hau_hmac_calculate:0000000000000114 .L0 
C:\Users\stapi\AppData\Local\Temp\ccNDCObj.s:932    .text.hau_hmac_calculate:0000000000000118 .L0 
C:\Users\stapi\AppData\Local\Temp\ccNDCObj.s:935    .text.hau_hmac_calculate:000000000000011e .L0 
C:\Users\stapi\AppData\Local\Temp\ccNDCObj.s:938    .text.hau_hmac_calculate:0000000000000120 .L0 
C:\Users\stapi\AppData\Local\Temp\ccNDCObj.s:941    .text.hau_hmac_calculate:0000000000000128 .L0 
C:\Users\stapi\AppData\Local\Temp\ccNDCObj.s:942    .text.hau_hmac_calculate:0000000000000128 .L0 
C:\Users\stapi\AppData\Local\Temp\ccNDCObj.s:946    .text.hau_hmac_calculate:000000000000012a .L0 
C:\Users\stapi\AppData\Local\Temp\ccNDCObj.s:947    .text.hau_hmac_calculate:000000000000012a .L0 
C:\Users\stapi\AppData\Local\Temp\ccNDCObj.s:951    .text.hau_hmac_calculate:000000000000012c .L0 
C:\Users\stapi\AppData\Local\Temp\ccNDCObj.s:955    .text.hau_hmac_calculate:000000000000012e .L0 
C:\Users\stapi\AppData\Local\Temp\ccNDCObj.s:956    .text.hau_hmac_calculate:0000000000000130 .L0 
C:\Users\stapi\AppData\Local\Temp\ccNDCObj.s:957    .text.hau_hmac_calculate:0000000000000130 .L0 
C:\Users\stapi\AppData\Local\Temp\ccNDCObj.s:959    .text.hau_hmac_calculate:0000000000000138 .L0 
C:\Users\stapi\AppData\Local\Temp\ccNDCObj.s:960    .text.hau_hmac_calculate:0000000000000138 .L0 
C:\Users\stapi\AppData\Local\Temp\ccNDCObj.s:961    .text.hau_hmac_calculate:0000000000000138 .L0 
C:\Users\stapi\AppData\Local\Temp\ccNDCObj.s:962    .text.hau_hmac_calculate:0000000000000138 .L0 
C:\Users\stapi\AppData\Local\Temp\ccNDCObj.s:963    .text.hau_hmac_calculate:0000000000000138 .L0 
C:\Users\stapi\AppData\Local\Temp\ccNDCObj.s:964    .text.hau_hmac_calculate:0000000000000138 .L0 
C:\Users\stapi\AppData\Local\Temp\ccNDCObj.s:965    .text.hau_hmac_calculate:0000000000000138 .L0 
C:\Users\stapi\AppData\Local\Temp\ccNDCObj.s:966    .text.hau_hmac_calculate:0000000000000138 .L0 
C:\Users\stapi\AppData\Local\Temp\ccNDCObj.s:967    .text.hau_hmac_calculate:0000000000000138 .L0 
C:\Users\stapi\AppData\Local\Temp\ccNDCObj.s:970    .text.hau_hmac_calculate:0000000000000138 .L0 
C:\Users\stapi\AppData\Local\Temp\ccNDCObj.s:972    .text.hau_hmac_calculate:0000000000000138 .L0 
C:\Users\stapi\AppData\Local\Temp\ccNDCObj.s:975    .text.hau_hmac_calculate:000000000000013e .L0 
C:\Users\stapi\AppData\Local\Temp\ccNDCObj.s:978    .text.hau_hmac_calculate:0000000000000140 .L0 
C:\Users\stapi\AppData\Local\Temp\ccNDCObj.s:981    .text.hau_hmac_calculate:0000000000000148 .L0 
C:\Users\stapi\AppData\Local\Temp\ccNDCObj.s:982    .text.hau_hmac_calculate:0000000000000148 .L0 
C:\Users\stapi\AppData\Local\Temp\ccNDCObj.s:986    .text.hau_hmac_calculate:000000000000014a .L0 
C:\Users\stapi\AppData\Local\Temp\ccNDCObj.s:987    .text.hau_hmac_calculate:000000000000014a .L0 
C:\Users\stapi\AppData\Local\Temp\ccNDCObj.s:992    .text.hau_hmac_calculate:000000000000014e .L0 
C:\Users\stapi\AppData\Local\Temp\ccNDCObj.s:995    .text.hau_hmac_calculate:0000000000000154 .L0 
C:\Users\stapi\AppData\Local\Temp\ccNDCObj.s:998    .text.hau_hmac_calculate:0000000000000156 .L0 
C:\Users\stapi\AppData\Local\Temp\ccNDCObj.s:1001   .text.hau_hmac_calculate:000000000000015e .L0 
C:\Users\stapi\AppData\Local\Temp\ccNDCObj.s:1002   .text.hau_hmac_calculate:000000000000015e .L0 
C:\Users\stapi\AppData\Local\Temp\ccNDCObj.s:1006   .text.hau_hmac_calculate:0000000000000160 .L0 
C:\Users\stapi\AppData\Local\Temp\ccNDCObj.s:1007   .text.hau_hmac_calculate:0000000000000160 .L0 
C:\Users\stapi\AppData\Local\Temp\ccNDCObj.s:1009   .text.hau_hmac_calculate:0000000000000164 .L0 
C:\Users\stapi\AppData\Local\Temp\ccNDCObj.s:1016   .text.hau_hmac_sha_1:0000000000000000 hau_hmac_sha_1
C:\Users\stapi\AppData\Local\Temp\ccNDCObj.s:1019   .text.hau_hmac_sha_1:0000000000000000 .L0 
C:\Users\stapi\AppData\Local\Temp\ccNDCObj.s:1021   .text.hau_hmac_sha_1:0000000000000000 .L0 
C:\Users\stapi\AppData\Local\Temp\ccNDCObj.s:1022   .text.hau_hmac_sha_1:0000000000000000 .L0 
C:\Users\stapi\AppData\Local\Temp\ccNDCObj.s:1023   .text.hau_hmac_sha_1:0000000000000000 .L0 
C:\Users\stapi\AppData\Local\Temp\ccNDCObj.s:1024   .text.hau_hmac_sha_1:0000000000000000 .L0 
C:\Users\stapi\AppData\Local\Temp\ccNDCObj.s:1026   .text.hau_hmac_sha_1:0000000000000002 .L0 
C:\Users\stapi\AppData\Local\Temp\ccNDCObj.s:1039   .text.hau_hmac_sha_1:0000000000000014 .L0 
C:\Users\stapi\AppData\Local\Temp\ccNDCObj.s:1046   .text.hau_hmac_sha_224:0000000000000000 hau_hmac_sha_224
C:\Users\stapi\AppData\Local\Temp\ccNDCObj.s:1048   .text.hau_hmac_sha_224:0000000000000000 .L0 
C:\Users\stapi\AppData\Local\Temp\ccNDCObj.s:1049   .text.hau_hmac_sha_224:0000000000000000 .L0 
C:\Users\stapi\AppData\Local\Temp\ccNDCObj.s:1051   .text.hau_hmac_sha_224:0000000000000000 .L0 
C:\Users\stapi\AppData\Local\Temp\ccNDCObj.s:1052   .text.hau_hmac_sha_224:0000000000000000 .L0 
C:\Users\stapi\AppData\Local\Temp\ccNDCObj.s:1053   .text.hau_hmac_sha_224:0000000000000000 .L0 
C:\Users\stapi\AppData\Local\Temp\ccNDCObj.s:1054   .text.hau_hmac_sha_224:0000000000000000 .L0 
C:\Users\stapi\AppData\Local\Temp\ccNDCObj.s:1056   .text.hau_hmac_sha_224:0000000000000002 .L0 
C:\Users\stapi\AppData\Local\Temp\ccNDCObj.s:1069   .text.hau_hmac_sha_224:0000000000000016 .L0 
C:\Users\stapi\AppData\Local\Temp\ccNDCObj.s:1076   .text.hau_hmac_sha_256:0000000000000000 hau_hmac_sha_256
C:\Users\stapi\AppData\Local\Temp\ccNDCObj.s:1078   .text.hau_hmac_sha_256:0000000000000000 .L0 
C:\Users\stapi\AppData\Local\Temp\ccNDCObj.s:1079   .text.hau_hmac_sha_256:0000000000000000 .L0 
C:\Users\stapi\AppData\Local\Temp\ccNDCObj.s:1081   .text.hau_hmac_sha_256:0000000000000000 .L0 
C:\Users\stapi\AppData\Local\Temp\ccNDCObj.s:1082   .text.hau_hmac_sha_256:0000000000000000 .L0 
C:\Users\stapi\AppData\Local\Temp\ccNDCObj.s:1083   .text.hau_hmac_sha_256:0000000000000000 .L0 
C:\Users\stapi\AppData\Local\Temp\ccNDCObj.s:1084   .text.hau_hmac_sha_256:0000000000000000 .L0 
C:\Users\stapi\AppData\Local\Temp\ccNDCObj.s:1086   .text.hau_hmac_sha_256:0000000000000002 .L0 
C:\Users\stapi\AppData\Local\Temp\ccNDCObj.s:1100   .text.hau_hmac_sha_256:000000000000001a .L0 
C:\Users\stapi\AppData\Local\Temp\ccNDCObj.s:1107   .text.hau_hmac_md5:0000000000000000 hau_hmac_md5
C:\Users\stapi\AppData\Local\Temp\ccNDCObj.s:1109   .text.hau_hmac_md5:0000000000000000 .L0 
C:\Users\stapi\AppData\Local\Temp\ccNDCObj.s:1110   .text.hau_hmac_md5:0000000000000000 .L0 
C:\Users\stapi\AppData\Local\Temp\ccNDCObj.s:1112   .text.hau_hmac_md5:0000000000000000 .L0 
C:\Users\stapi\AppData\Local\Temp\ccNDCObj.s:1113   .text.hau_hmac_md5:0000000000000000 .L0 
C:\Users\stapi\AppData\Local\Temp\ccNDCObj.s:1114   .text.hau_hmac_md5:0000000000000000 .L0 
C:\Users\stapi\AppData\Local\Temp\ccNDCObj.s:1115   .text.hau_hmac_md5:0000000000000000 .L0 
C:\Users\stapi\AppData\Local\Temp\ccNDCObj.s:1117   .text.hau_hmac_md5:0000000000000002 .L0 
C:\Users\stapi\AppData\Local\Temp\ccNDCObj.s:1130   .text.hau_hmac_md5:0000000000000016 .L0 
C:\Users\stapi\AppData\Local\Temp\ccNDCObj.s:446    .text.hau_sha_md5_digest_read:0000000000000124 .L0 
C:\Users\stapi\AppData\Local\Temp\ccNDCObj.s:600    .text.hau_hash_calculate:000000000000009e .L0 
C:\Users\stapi\AppData\Local\Temp\ccNDCObj.s:626    .text.hau_hash_sha_1:0000000000000010 .L0 
C:\Users\stapi\AppData\Local\Temp\ccNDCObj.s:652    .text.hau_hash_sha_224:0000000000000012 .L0 
C:\Users\stapi\AppData\Local\Temp\ccNDCObj.s:679    .text.hau_hash_sha_256:0000000000000016 .L0 
C:\Users\stapi\AppData\Local\Temp\ccNDCObj.s:705    .text.hau_hash_md5:0000000000000012 .L0 
C:\Users\stapi\AppData\Local\Temp\ccNDCObj.s:1012   .text.hau_hmac_calculate:0000000000000164 .L0 
C:\Users\stapi\AppData\Local\Temp\ccNDCObj.s:1042   .text.hau_hmac_sha_1:0000000000000014 .L0 
C:\Users\stapi\AppData\Local\Temp\ccNDCObj.s:1072   .text.hau_hmac_sha_224:0000000000000016 .L0 
C:\Users\stapi\AppData\Local\Temp\ccNDCObj.s:1103   .text.hau_hmac_sha_256:000000000000001a .L0 
C:\Users\stapi\AppData\Local\Temp\ccNDCObj.s:1133   .text.hau_hmac_md5:0000000000000016 .L0 
                     .debug_frame:0000000000000000 .L0 
C:\Users\stapi\AppData\Local\Temp\ccNDCObj.s:264    .text.hau_sha_md5_digest_read:00000000000000b4 .L2
C:\Users\stapi\AppData\Local\Temp\ccNDCObj.s:50     .text.hau_sha_md5_digest_read:000000000000002c .L3
C:\Users\stapi\AppData\Local\Temp\ccNDCObj.s:182    .text.hau_sha_md5_digest_read:0000000000000080 .L4
C:\Users\stapi\AppData\Local\Temp\ccNDCObj.s:376    .text.hau_sha_md5_digest_read:00000000000000f8 .L5
C:\Users\stapi\AppData\Local\Temp\ccNDCObj.s:40     .text.hau_sha_md5_digest_read:0000000000000022 .L1
C:\Users\stapi\AppData\Local\Temp\ccNDCObj.s:563    .text.hau_hash_calculate:000000000000007e .L11
C:\Users\stapi\AppData\Local\Temp\ccNDCObj.s:577    .text.hau_hash_calculate:0000000000000090 .L12
C:\Users\stapi\AppData\Local\Temp\ccNDCObj.s:528    .text.hau_hash_calculate:0000000000000054 .L13
C:\Users\stapi\AppData\Local\Temp\ccNDCObj.s:585    .text.hau_hash_calculate:0000000000000094 .L9
C:\Users\stapi\AppData\Local\Temp\ccNDCObj.s:518    .text.hau_hash_calculate:0000000000000046 .L10
C:\Users\stapi\AppData\Local\Temp\ccNDCObj.s:552    .text.hau_hash_calculate:000000000000006e .L14
C:\Users\stapi\AppData\Local\Temp\ccNDCObj.s:930    .text.hau_hmac_calculate:0000000000000118 .L30
C:\Users\stapi\AppData\Local\Temp\ccNDCObj.s:944    .text.hau_hmac_calculate:000000000000012a .L31
C:\Users\stapi\AppData\Local\Temp\ccNDCObj.s:812    .text.hau_hmac_calculate:000000000000007c .L32
C:\Users\stapi\AppData\Local\Temp\ccNDCObj.s:969    .text.hau_hmac_calculate:0000000000000138 .L36
C:\Users\stapi\AppData\Local\Temp\ccNDCObj.s:984    .text.hau_hmac_calculate:000000000000014a .L37
C:\Users\stapi\AppData\Local\Temp\ccNDCObj.s:855    .text.hau_hmac_calculate:00000000000000b6 .L38
C:\Users\stapi\AppData\Local\Temp\ccNDCObj.s:990    .text.hau_hmac_calculate:000000000000014e .L42
C:\Users\stapi\AppData\Local\Temp\ccNDCObj.s:1004   .text.hau_hmac_calculate:0000000000000160 .L43
C:\Users\stapi\AppData\Local\Temp\ccNDCObj.s:899    .text.hau_hmac_calculate:00000000000000f0 .L44
C:\Users\stapi\AppData\Local\Temp\ccNDCObj.s:953    .text.hau_hmac_calculate:000000000000012e .L27
C:\Users\stapi\AppData\Local\Temp\ccNDCObj.s:802    .text.hau_hmac_calculate:000000000000006e .L29
C:\Users\stapi\AppData\Local\Temp\ccNDCObj.s:831    .text.hau_hmac_calculate:0000000000000094 .L33
C:\Users\stapi\AppData\Local\Temp\ccNDCObj.s:842    .text.hau_hmac_calculate:00000000000000a6 .L35
C:\Users\stapi\AppData\Local\Temp\ccNDCObj.s:949    .text.hau_hmac_calculate:000000000000012c .L40
C:\Users\stapi\AppData\Local\Temp\ccNDCObj.s:874    .text.hau_hmac_calculate:00000000000000ce .L39
C:\Users\stapi\AppData\Local\Temp\ccNDCObj.s:886    .text.hau_hmac_calculate:00000000000000e0 .L41
C:\Users\stapi\AppData\Local\Temp\ccNDCObj.s:918    .text.hau_hmac_calculate:0000000000000108 .L45
C:\Users\stapi\AppData\Local\Temp\ccNDCObj.s:2829   .debug_abbrev:0000000000000000 .Ldebug_abbrev0
C:\Users\stapi\AppData\Local\Temp\ccNDCObj.s:4837   .debug_str:00000000000000d9 .LASF56
C:\Users\stapi\AppData\Local\Temp\ccNDCObj.s:4845   .debug_str:0000000000000200 .LASF57
C:\Users\stapi\AppData\Local\Temp\ccNDCObj.s:4899   .debug_str:00000000000003fa .LASF58
C:\Users\stapi\AppData\Local\Temp\ccNDCObj.s:4769   .debug_ranges:0000000000000000 .Ldebug_ranges0
C:\Users\stapi\AppData\Local\Temp\ccNDCObj.s:4795   .debug_line:0000000000000000 .Ldebug_line0
C:\Users\stapi\AppData\Local\Temp\ccNDCObj.s:4867   .debug_str:0000000000000323 .LASF0
C:\Users\stapi\AppData\Local\Temp\ccNDCObj.s:4861   .debug_str:00000000000002f7 .LASF1
C:\Users\stapi\AppData\Local\Temp\ccNDCObj.s:4851   .debug_str:00000000000002be .LASF4
C:\Users\stapi\AppData\Local\Temp\ccNDCObj.s:4857   .debug_str:00000000000002e1 .LASF2
C:\Users\stapi\AppData\Local\Temp\ccNDCObj.s:4815   .debug_str:000000000000006f .LASF3
C:\Users\stapi\AppData\Local\Temp\ccNDCObj.s:4813   .debug_str:0000000000000064 .LASF5
C:\Users\stapi\AppData\Local\Temp\ccNDCObj.s:4879   .debug_str:0000000000000363 .LASF6
C:\Users\stapi\AppData\Local\Temp\ccNDCObj.s:4847   .debug_str:00000000000002ab .LASF7
C:\Users\stapi\AppData\Local\Temp\ccNDCObj.s:4809   .debug_str:0000000000000054 .LASF8
C:\Users\stapi\AppData\Local\Temp\ccNDCObj.s:4895   .debug_str:00000000000003d0 .LASF9
C:\Users\stapi\AppData\Local\Temp\ccNDCObj.s:4841   .debug_str:00000000000001e3 .LASF10
C:\Users\stapi\AppData\Local\Temp\ccNDCObj.s:4863   .debug_str:0000000000000303 .LASF11
C:\Users\stapi\AppData\Local\Temp\ccNDCObj.s:4887   .debug_str:0000000000000396 .LASF12
C:\Users\stapi\AppData\Local\Temp\ccNDCObj.s:4821   .debug_str:000000000000008c .LASF13
C:\Users\stapi\AppData\Local\Temp\ccNDCObj.s:4869   .debug_str:0000000000000330 .LASF14
C:\Users\stapi\AppData\Local\Temp\ccNDCObj.s:4829   .debug_str:00000000000000ad .LASF15
C:\Users\stapi\AppData\Local\Temp\ccNDCObj.s:4905   .debug_str:00000000000004a1 .LASF16
C:\Users\stapi\AppData\Local\Temp\ccNDCObj.s:4853   .debug_str:00000000000002c8 .LASF17
C:\Users\stapi\AppData\Local\Temp\ccNDCObj.s:4875   .debug_str:000000000000034f .LASF18
C:\Users\stapi\AppData\Local\Temp\ccNDCObj.s:4807   .debug_str:000000000000004a .LASF19
C:\Users\stapi\AppData\Local\Temp\ccNDCObj.s:4825   .debug_str:000000000000009f .LASF20
C:\Users\stapi\AppData\Local\Temp\ccNDCObj.s:4811   .debug_str:000000000000005f .LASF21
C:\Users\stapi\AppData\Local\Temp\ccNDCObj.s:4827   .debug_str:00000000000000a4 .LASF22
C:\Users\stapi\AppData\Local\Temp\ccNDCObj.s:4891   .debug_str:00000000000003ac .LASF23
C:\Users\stapi\AppData\Local\Temp\ccNDCObj.s:4913   .debug_str:00000000000004d8 .LASF24
C:\Users\stapi\AppData\Local\Temp\ccNDCObj.s:4893   .debug_str:00000000000003b4 .LASF25
C:\Users\stapi\AppData\Local\Temp\ccNDCObj.s:4855   .debug_str:00000000000002ce .LASF37
C:\Users\stapi\AppData\Local\Temp\ccNDCObj.s:709    .text.hau_hmac_calculate:0000000000000000 .LFB375
C:\Users\stapi\AppData\Local\Temp\ccNDCObj.s:1010   .text.hau_hmac_calculate:0000000000000164 .LFE375
C:\Users\stapi\AppData\Local\Temp\ccNDCObj.s:3441   .debug_loc:0000000000000000 .LLST22
C:\Users\stapi\AppData\Local\Temp\ccNDCObj.s:3452   .debug_loc:000000000000001e .LLST23
C:\Users\stapi\AppData\Local\Temp\ccNDCObj.s:4917   .debug_str:00000000000004f9 .LASF26
C:\Users\stapi\AppData\Local\Temp\ccNDCObj.s:3463   .debug_loc:000000000000003c .LLST24
C:\Users\stapi\AppData\Local\Temp\ccNDCObj.s:4871   .debug_str:0000000000000339 .LASF27
C:\Users\stapi\AppData\Local\Temp\ccNDCObj.s:3503   .debug_loc:000000000000009a .LLST25
C:\Users\stapi\AppData\Local\Temp\ccNDCObj.s:4849   .debug_str:00000000000002b4 .LASF28
C:\Users\stapi\AppData\Local\Temp\ccNDCObj.s:3514   .debug_loc:00000000000000b8 .LLST26
C:\Users\stapi\AppData\Local\Temp\ccNDCObj.s:4915   .debug_str:00000000000004f2 .LASF29
C:\Users\stapi\AppData\Local\Temp\ccNDCObj.s:3554   .debug_loc:0000000000000116 .LLST27
C:\Users\stapi\AppData\Local\Temp\ccNDCObj.s:4835   .debug_str:00000000000000cf .LASF30
C:\Users\stapi\AppData\Local\Temp\ccNDCObj.s:4901   .debug_str:0000000000000483 .LASF31
C:\Users\stapi\AppData\Local\Temp\ccNDCObj.s:4805   .debug_str:000000000000003c .LASF32
C:\Users\stapi\AppData\Local\Temp\ccNDCObj.s:3565   .debug_loc:0000000000000134 .LLST28
C:\Users\stapi\AppData\Local\Temp\ccNDCObj.s:4859   .debug_str:00000000000002ef .LASF33
C:\Users\stapi\AppData\Local\Temp\ccNDCObj.s:4881   .debug_str:0000000000000376 .LASF34
C:\Users\stapi\AppData\Local\Temp\ccNDCObj.s:3627   .debug_loc:00000000000001d2 .LLST29
C:\Users\stapi\AppData\Local\Temp\ccNDCObj.s:4833   .debug_str:00000000000000c7 .LASF35
C:\Users\stapi\AppData\Local\Temp\ccNDCObj.s:3664   .debug_loc:0000000000000234 .LLST30
C:\Users\stapi\AppData\Local\Temp\ccNDCObj.s:4799   .debug_str:0000000000000007 .LASF36
C:\Users\stapi\AppData\Local\Temp\ccNDCObj.s:3742   .debug_loc:00000000000002c6 .LLST31
C:\Users\stapi\AppData\Local\Temp\ccNDCObj.s:769    .text.hau_hmac_calculate:000000000000003c .LVL104
C:\Users\stapi\AppData\Local\Temp\ccNDCObj.s:792    .text.hau_hmac_calculate:000000000000005c .LVL105
C:\Users\stapi\AppData\Local\Temp\ccNDCObj.s:800    .text.hau_hmac_calculate:000000000000006e .LVL106
C:\Users\stapi\AppData\Local\Temp\ccNDCObj.s:808    .text.hau_hmac_calculate:000000000000007a .LVL107
C:\Users\stapi\AppData\Local\Temp\ccNDCObj.s:818    .text.hau_hmac_calculate:0000000000000086 .LVL109
C:\Users\stapi\AppData\Local\Temp\ccNDCObj.s:840    .text.hau_hmac_calculate:00000000000000a6 .LVL111
C:\Users\stapi\AppData\Local\Temp\ccNDCObj.s:848    .text.hau_hmac_calculate:00000000000000b2 .LVL112
C:\Users\stapi\AppData\Local\Temp\ccNDCObj.s:861    .text.hau_hmac_calculate:00000000000000c0 .LVL114
C:\Users\stapi\AppData\Local\Temp\ccNDCObj.s:883    .text.hau_hmac_calculate:00000000000000e0 .LVL116
C:\Users\stapi\AppData\Local\Temp\ccNDCObj.s:892    .text.hau_hmac_calculate:00000000000000ec .LVL117
C:\Users\stapi\AppData\Local\Temp\ccNDCObj.s:905    .text.hau_hmac_calculate:00000000000000fa .LVL119
C:\Users\stapi\AppData\Local\Temp\ccNDCObj.s:924    .text.hau_hmac_calculate:0000000000000114 .LVL121
C:\Users\stapi\AppData\Local\Temp\ccNDCObj.s:939    .text.hau_hmac_calculate:0000000000000128 .LVL124
C:\Users\stapi\AppData\Local\Temp\ccNDCObj.s:979    .text.hau_hmac_calculate:0000000000000148 .LVL130
C:\Users\stapi\AppData\Local\Temp\ccNDCObj.s:999    .text.hau_hmac_calculate:000000000000015e .LVL134
C:\Users\stapi\AppData\Local\Temp\ccNDCObj.s:4911   .debug_str:00000000000004c5 .LASF38
C:\Users\stapi\AppData\Local\Temp\ccNDCObj.s:450    .text.hau_hash_calculate:0000000000000000 .LFB374
C:\Users\stapi\AppData\Local\Temp\ccNDCObj.s:598    .text.hau_hash_calculate:000000000000009e .LFE374
C:\Users\stapi\AppData\Local\Temp\ccNDCObj.s:3795   .debug_loc:0000000000000331 .LLST3
C:\Users\stapi\AppData\Local\Temp\ccNDCObj.s:3806   .debug_loc:000000000000034f .LLST4
C:\Users\stapi\AppData\Local\Temp\ccNDCObj.s:3817   .debug_loc:000000000000036d .LLST5
C:\Users\stapi\AppData\Local\Temp\ccNDCObj.s:3846   .debug_loc:00000000000003b2 .LLST6
C:\Users\stapi\AppData\Local\Temp\ccNDCObj.s:3857   .debug_loc:00000000000003d0 .LLST7
C:\Users\stapi\AppData\Local\Temp\ccNDCObj.s:3879   .debug_loc:0000000000000407 .LLST8
C:\Users\stapi\AppData\Local\Temp\ccNDCObj.s:3908   .debug_loc:0000000000000453 .LLST9
C:\Users\stapi\AppData\Local\Temp\ccNDCObj.s:493    .text.hau_hash_calculate:0000000000000026 .LVL63
C:\Users\stapi\AppData\Local\Temp\ccNDCObj.s:509    .text.hau_hash_calculate:000000000000003a .LVL64
C:\Users\stapi\AppData\Local\Temp\ccNDCObj.s:516    .text.hau_hash_calculate:0000000000000046 .LVL65
C:\Users\stapi\AppData\Local\Temp\ccNDCObj.s:524    .text.hau_hash_calculate:0000000000000052 .LVL66
C:\Users\stapi\AppData\Local\Temp\ccNDCObj.s:534    .text.hau_hash_calculate:000000000000005e .LVL68
C:\Users\stapi\AppData\Local\Temp\ccNDCObj.s:557    .text.hau_hash_calculate:000000000000007a .LVL71
C:\Users\stapi\AppData\Local\Temp\ccNDCObj.s:572    .text.hau_hash_calculate:000000000000008e .LVL74
C:\Users\stapi\AppData\Local\Temp\ccNDCObj.s:4897   .debug_str:00000000000003e2 .LASF59
C:\Users\stapi\AppData\Local\Temp\ccNDCObj.s:14     .text.hau_sha_md5_digest_read:0000000000000000 .LFB373
C:\Users\stapi\AppData\Local\Temp\ccNDCObj.s:444    .text.hau_sha_md5_digest_read:0000000000000124 .LFE373
C:\Users\stapi\AppData\Local\Temp\ccNDCObj.s:3948   .debug_loc:00000000000004a3 .LLST0
C:\Users\stapi\AppData\Local\Temp\ccNDCObj.s:4006   .debug_loc:0000000000000528 .LLST1
C:\Users\stapi\AppData\Local\Temp\ccNDCObj.s:4877   .debug_str:0000000000000357 .LASF39
C:\Users\stapi\AppData\Local\Temp\ccNDCObj.s:4823   .debug_str:0000000000000094 .LASF40
C:\Users\stapi\AppData\Local\Temp\ccNDCObj.s:4017   .debug_loc:0000000000000546 .LLST2
C:\Users\stapi\AppData\Local\Temp\ccNDCObj.s:64     .text.hau_sha_md5_digest_read:0000000000000044 .LBB50
C:\Users\stapi\AppData\Local\Temp\ccNDCObj.s:71     .text.hau_sha_md5_digest_read:0000000000000044 .LBE50
C:\Users\stapi\AppData\Local\Temp\ccNDCObj.s:80     .text.hau_sha_md5_digest_read:000000000000004c .LBB52
C:\Users\stapi\AppData\Local\Temp\ccNDCObj.s:86     .text.hau_sha_md5_digest_read:000000000000004c .LBE52
C:\Users\stapi\AppData\Local\Temp\ccNDCObj.s:95     .text.hau_sha_md5_digest_read:0000000000000054 .LBB54
C:\Users\stapi\AppData\Local\Temp\ccNDCObj.s:101    .text.hau_sha_md5_digest_read:0000000000000054 .LBE54
C:\Users\stapi\AppData\Local\Temp\ccNDCObj.s:110    .text.hau_sha_md5_digest_read:000000000000005c .LBB56
C:\Users\stapi\AppData\Local\Temp\ccNDCObj.s:116    .text.hau_sha_md5_digest_read:000000000000005c .LBE56
C:\Users\stapi\AppData\Local\Temp\ccNDCObj.s:125    .text.hau_sha_md5_digest_read:0000000000000064 .LBB58
C:\Users\stapi\AppData\Local\Temp\ccNDCObj.s:131    .text.hau_sha_md5_digest_read:0000000000000064 .LBE58
C:\Users\stapi\AppData\Local\Temp\ccNDCObj.s:140    .text.hau_sha_md5_digest_read:000000000000006c .LBB60
C:\Users\stapi\AppData\Local\Temp\ccNDCObj.s:146    .text.hau_sha_md5_digest_read:000000000000006c .LBE60
C:\Users\stapi\AppData\Local\Temp\ccNDCObj.s:155    .text.hau_sha_md5_digest_read:0000000000000074 .LBB62
C:\Users\stapi\AppData\Local\Temp\ccNDCObj.s:161    .text.hau_sha_md5_digest_read:0000000000000074 .LBE62
C:\Users\stapi\AppData\Local\Temp\ccNDCObj.s:170    .text.hau_sha_md5_digest_read:000000000000007c .LBB64
C:\Users\stapi\AppData\Local\Temp\ccNDCObj.s:176    .text.hau_sha_md5_digest_read:000000000000007c .LBE64
C:\Users\stapi\AppData\Local\Temp\ccNDCObj.s:192    .text.hau_sha_md5_digest_read:0000000000000090 .LBB66
C:\Users\stapi\AppData\Local\Temp\ccNDCObj.s:198    .text.hau_sha_md5_digest_read:0000000000000090 .LBE66
C:\Users\stapi\AppData\Local\Temp\ccNDCObj.s:207    .text.hau_sha_md5_digest_read:0000000000000098 .LBB68
C:\Users\stapi\AppData\Local\Temp\ccNDCObj.s:213    .text.hau_sha_md5_digest_read:0000000000000098 .LBE68
C:\Users\stapi\AppData\Local\Temp\ccNDCObj.s:222    .text.hau_sha_md5_digest_read:00000000000000a0 .LBB70
C:\Users\stapi\AppData\Local\Temp\ccNDCObj.s:228    .text.hau_sha_md5_digest_read:00000000000000a0 .LBE70
C:\Users\stapi\AppData\Local\Temp\ccNDCObj.s:237    .text.hau_sha_md5_digest_read:00000000000000a8 .LBB72
C:\Users\stapi\AppData\Local\Temp\ccNDCObj.s:243    .text.hau_sha_md5_digest_read:00000000000000a8 .LBE72
C:\Users\stapi\AppData\Local\Temp\ccNDCObj.s:252    .text.hau_sha_md5_digest_read:00000000000000b0 .LBB74
C:\Users\stapi\AppData\Local\Temp\ccNDCObj.s:258    .text.hau_sha_md5_digest_read:00000000000000b0 .LBE74
C:\Users\stapi\AppData\Local\Temp\ccNDCObj.s:274    .text.hau_sha_md5_digest_read:00000000000000c4 .LBB76
C:\Users\stapi\AppData\Local\Temp\ccNDCObj.s:280    .text.hau_sha_md5_digest_read:00000000000000c4 .LBE76
C:\Users\stapi\AppData\Local\Temp\ccNDCObj.s:289    .text.hau_sha_md5_digest_read:00000000000000cc .LBB78
C:\Users\stapi\AppData\Local\Temp\ccNDCObj.s:295    .text.hau_sha_md5_digest_read:00000000000000cc .LBE78
C:\Users\stapi\AppData\Local\Temp\ccNDCObj.s:304    .text.hau_sha_md5_digest_read:00000000000000d4 .LBB80
C:\Users\stapi\AppData\Local\Temp\ccNDCObj.s:310    .text.hau_sha_md5_digest_read:00000000000000d4 .LBE80
C:\Users\stapi\AppData\Local\Temp\ccNDCObj.s:319    .text.hau_sha_md5_digest_read:00000000000000dc .LBB82
C:\Users\stapi\AppData\Local\Temp\ccNDCObj.s:325    .text.hau_sha_md5_digest_read:00000000000000dc .LBE82
C:\Users\stapi\AppData\Local\Temp\ccNDCObj.s:334    .text.hau_sha_md5_digest_read:00000000000000e4 .LBB84
C:\Users\stapi\AppData\Local\Temp\ccNDCObj.s:340    .text.hau_sha_md5_digest_read:00000000000000e4 .LBE84
C:\Users\stapi\AppData\Local\Temp\ccNDCObj.s:349    .text.hau_sha_md5_digest_read:00000000000000ec .LBB86
C:\Users\stapi\AppData\Local\Temp\ccNDCObj.s:355    .text.hau_sha_md5_digest_read:00000000000000ec .LBE86
C:\Users\stapi\AppData\Local\Temp\ccNDCObj.s:364    .text.hau_sha_md5_digest_read:00000000000000f4 .LBB88
C:\Users\stapi\AppData\Local\Temp\ccNDCObj.s:370    .text.hau_sha_md5_digest_read:00000000000000f4 .LBE88
C:\Users\stapi\AppData\Local\Temp\ccNDCObj.s:386    .text.hau_sha_md5_digest_read:0000000000000108 .LBB90
C:\Users\stapi\AppData\Local\Temp\ccNDCObj.s:392    .text.hau_sha_md5_digest_read:0000000000000108 .LBE90
C:\Users\stapi\AppData\Local\Temp\ccNDCObj.s:401    .text.hau_sha_md5_digest_read:0000000000000110 .LBB92
C:\Users\stapi\AppData\Local\Temp\ccNDCObj.s:407    .text.hau_sha_md5_digest_read:0000000000000110 .LBE92
C:\Users\stapi\AppData\Local\Temp\ccNDCObj.s:416    .text.hau_sha_md5_digest_read:0000000000000118 .LBB94
C:\Users\stapi\AppData\Local\Temp\ccNDCObj.s:422    .text.hau_sha_md5_digest_read:0000000000000118 .LBE94
C:\Users\stapi\AppData\Local\Temp\ccNDCObj.s:431    .text.hau_sha_md5_digest_read:0000000000000120 .LBB96
C:\Users\stapi\AppData\Local\Temp\ccNDCObj.s:437    .text.hau_sha_md5_digest_read:0000000000000120 .LBE96
C:\Users\stapi\AppData\Local\Temp\ccNDCObj.s:59     .text.hau_sha_md5_digest_read:000000000000003e .LVL5
C:\Users\stapi\AppData\Local\Temp\ccNDCObj.s:187    .text.hau_sha_md5_digest_read:000000000000008a .LVL23
C:\Users\stapi\AppData\Local\Temp\ccNDCObj.s:269    .text.hau_sha_md5_digest_read:00000000000000be .LVL35
C:\Users\stapi\AppData\Local\Temp\ccNDCObj.s:381    .text.hau_sha_md5_digest_read:0000000000000102 .LVL51
C:\Users\stapi\AppData\Local\Temp\ccNDCObj.s:4819   .debug_str:000000000000007f .LASF41
C:\Users\stapi\AppData\Local\Temp\ccNDCObj.s:1108   .text.hau_hmac_md5:0000000000000000 .LFB372
C:\Users\stapi\AppData\Local\Temp\ccNDCObj.s:1131   .text.hau_hmac_md5:0000000000000016 .LFE372
C:\Users\stapi\AppData\Local\Temp\ccNDCObj.s:4160   .debug_loc:0000000000000689 .LLST47
C:\Users\stapi\AppData\Local\Temp\ccNDCObj.s:4178   .debug_loc:00000000000006b5 .LLST48
C:\Users\stapi\AppData\Local\Temp\ccNDCObj.s:4196   .debug_loc:00000000000006e1 .LLST49
C:\Users\stapi\AppData\Local\Temp\ccNDCObj.s:4214   .debug_loc:000000000000070d .LLST50
C:\Users\stapi\AppData\Local\Temp\ccNDCObj.s:4232   .debug_loc:0000000000000739 .LLST51
C:\Users\stapi\AppData\Local\Temp\ccNDCObj.s:1128   .text.hau_hmac_md5:0000000000000016 .LVL163
C:\Users\stapi\AppData\Local\Temp\ccNDCObj.s:4909   .debug_str:00000000000004b8 .LASF42
C:\Users\stapi\AppData\Local\Temp\ccNDCObj.s:684    .text.hau_hash_md5:0000000000000000 .LFB371
C:\Users\stapi\AppData\Local\Temp\ccNDCObj.s:703    .text.hau_hash_md5:0000000000000012 .LFE371
C:\Users\stapi\AppData\Local\Temp\ccNDCObj.s:4250   .debug_loc:0000000000000765 .LLST19
C:\Users\stapi\AppData\Local\Temp\ccNDCObj.s:4268   .debug_loc:0000000000000791 .LLST20
C:\Users\stapi\AppData\Local\Temp\ccNDCObj.s:4286   .debug_loc:00000000000007bd .LLST21
C:\Users\stapi\AppData\Local\Temp\ccNDCObj.s:700    .text.hau_hash_md5:0000000000000012 .LVL97
C:\Users\stapi\AppData\Local\Temp\ccNDCObj.s:4839   .debug_str:00000000000001d2 .LASF43
C:\Users\stapi\AppData\Local\Temp\ccNDCObj.s:1077   .text.hau_hmac_sha_256:0000000000000000 .LFB370
C:\Users\stapi\AppData\Local\Temp\ccNDCObj.s:1101   .text.hau_hmac_sha_256:000000000000001a .LFE370
C:\Users\stapi\AppData\Local\Temp\ccNDCObj.s:4304   .debug_loc:00000000000007e9 .LLST42
C:\Users\stapi\AppData\Local\Temp\ccNDCObj.s:4322   .debug_loc:0000000000000815 .LLST43
C:\Users\stapi\AppData\Local\Temp\ccNDCObj.s:4340   .debug_loc:0000000000000841 .LLST44
C:\Users\stapi\AppData\Local\Temp\ccNDCObj.s:4358   .debug_loc:000000000000086d .LLST45
C:\Users\stapi\AppData\Local\Temp\ccNDCObj.s:4376   .debug_loc:0000000000000899 .LLST46
C:\Users\stapi\AppData\Local\Temp\ccNDCObj.s:1098   .text.hau_hmac_sha_256:000000000000001a .LVL156
C:\Users\stapi\AppData\Local\Temp\ccNDCObj.s:4889   .debug_str:000000000000039b .LASF44
C:\Users\stapi\AppData\Local\Temp\ccNDCObj.s:657    .text.hau_hash_sha_256:0000000000000000 .LFB369
C:\Users\stapi\AppData\Local\Temp\ccNDCObj.s:677    .text.hau_hash_sha_256:0000000000000016 .LFE369
C:\Users\stapi\AppData\Local\Temp\ccNDCObj.s:4394   .debug_loc:00000000000008c5 .LLST16
C:\Users\stapi\AppData\Local\Temp\ccNDCObj.s:4412   .debug_loc:00000000000008f1 .LLST17
C:\Users\stapi\AppData\Local\Temp\ccNDCObj.s:4430   .debug_loc:000000000000091d .LLST18
C:\Users\stapi\AppData\Local\Temp\ccNDCObj.s:674    .text.hau_hash_sha_256:0000000000000016 .LVL92
C:\Users\stapi\AppData\Local\Temp\ccNDCObj.s:4831   .debug_str:00000000000000b6 .LASF45
C:\Users\stapi\AppData\Local\Temp\ccNDCObj.s:1047   .text.hau_hmac_sha_224:0000000000000000 .LFB368
C:\Users\stapi\AppData\Local\Temp\ccNDCObj.s:1070   .text.hau_hmac_sha_224:0000000000000016 .LFE368
C:\Users\stapi\AppData\Local\Temp\ccNDCObj.s:4448   .debug_loc:0000000000000949 .LLST37
C:\Users\stapi\AppData\Local\Temp\ccNDCObj.s:4466   .debug_loc:0000000000000975 .LLST38
C:\Users\stapi\AppData\Local\Temp\ccNDCObj.s:4484   .debug_loc:00000000000009a1 .LLST39
C:\Users\stapi\AppData\Local\Temp\ccNDCObj.s:4502   .debug_loc:00000000000009cd .LLST40
C:\Users\stapi\AppData\Local\Temp\ccNDCObj.s:4520   .debug_loc:00000000000009f9 .LLST41
C:\Users\stapi\AppData\Local\Temp\ccNDCObj.s:1067   .text.hau_hmac_sha_224:0000000000000016 .LVL149
C:\Users\stapi\AppData\Local\Temp\ccNDCObj.s:4907   .debug_str:00000000000004a7 .LASF46
C:\Users\stapi\AppData\Local\Temp\ccNDCObj.s:631    .text.hau_hash_sha_224:0000000000000000 .LFB367
C:\Users\stapi\AppData\Local\Temp\ccNDCObj.s:650    .text.hau_hash_sha_224:0000000000000012 .LFE367
C:\Users\stapi\AppData\Local\Temp\ccNDCObj.s:4538   .debug_loc:0000000000000a25 .LLST13
C:\Users\stapi\AppData\Local\Temp\ccNDCObj.s:4556   .debug_loc:0000000000000a51 .LLST14
C:\Users\stapi\AppData\Local\Temp\ccNDCObj.s:4574   .debug_loc:0000000000000a7d .LLST15
C:\Users\stapi\AppData\Local\Temp\ccNDCObj.s:647    .text.hau_hash_sha_224:0000000000000012 .LVL87
C:\Users\stapi\AppData\Local\Temp\ccNDCObj.s:4843   .debug_str:00000000000001f1 .LASF47
C:\Users\stapi\AppData\Local\Temp\ccNDCObj.s:1017   .text.hau_hmac_sha_1:0000000000000000 .LFB366
C:\Users\stapi\AppData\Local\Temp\ccNDCObj.s:1040   .text.hau_hmac_sha_1:0000000000000014 .LFE366
C:\Users\stapi\AppData\Local\Temp\ccNDCObj.s:4592   .debug_loc:0000000000000aa9 .LLST32
C:\Users\stapi\AppData\Local\Temp\ccNDCObj.s:4610   .debug_loc:0000000000000ad5 .LLST33
C:\Users\stapi\AppData\Local\Temp\ccNDCObj.s:4628   .debug_loc:0000000000000b01 .LLST34
C:\Users\stapi\AppData\Local\Temp\ccNDCObj.s:4646   .debug_loc:0000000000000b2d .LLST35
C:\Users\stapi\AppData\Local\Temp\ccNDCObj.s:4664   .debug_loc:0000000000000b59 .LLST36
C:\Users\stapi\AppData\Local\Temp\ccNDCObj.s:1037   .text.hau_hmac_sha_1:0000000000000014 .LVL142
C:\Users\stapi\AppData\Local\Temp\ccNDCObj.s:4903   .debug_str:0000000000000492 .LASF48
C:\Users\stapi\AppData\Local\Temp\ccNDCObj.s:605    .text.hau_hash_sha_1:0000000000000000 .LFB365
C:\Users\stapi\AppData\Local\Temp\ccNDCObj.s:624    .text.hau_hash_sha_1:0000000000000010 .LFE365
C:\Users\stapi\AppData\Local\Temp\ccNDCObj.s:4682   .debug_loc:0000000000000b85 .LLST10
C:\Users\stapi\AppData\Local\Temp\ccNDCObj.s:4700   .debug_loc:0000000000000bb1 .LLST11
C:\Users\stapi\AppData\Local\Temp\ccNDCObj.s:4718   .debug_loc:0000000000000bdd .LLST12
C:\Users\stapi\AppData\Local\Temp\ccNDCObj.s:621    .text.hau_hash_sha_1:0000000000000010 .LVL82
C:\Users\stapi\AppData\Local\Temp\ccNDCObj.s:4883   .debug_str:0000000000000381 .LASF60
C:\Users\stapi\AppData\Local\Temp\ccNDCObj.s:4817   .debug_str:0000000000000079 .LASF61
C:\Users\stapi\AppData\Local\Temp\ccNDCObj.s:4797   .debug_str:0000000000000000 .LASF62
C:\Users\stapi\AppData\Local\Temp\ccNDCObj.s:4919   .debug_str:0000000000000501 .LASF49
C:\Users\stapi\AppData\Local\Temp\ccNDCObj.s:4865   .debug_str:000000000000031a .LASF50
C:\Users\stapi\AppData\Local\Temp\ccNDCObj.s:4921   .debug_str:000000000000050c .LASF51
C:\Users\stapi\AppData\Local\Temp\ccNDCObj.s:4801   .debug_str:0000000000000011 .LASF52
C:\Users\stapi\AppData\Local\Temp\ccNDCObj.s:4803   .debug_str:000000000000002f .LASF53
C:\Users\stapi\AppData\Local\Temp\ccNDCObj.s:4885   .debug_str:0000000000000387 .LASF54
C:\Users\stapi\AppData\Local\Temp\ccNDCObj.s:4873   .debug_str:000000000000033f .LASF55
C:\Users\stapi\AppData\Local\Temp\ccNDCObj.s:712    .text.hau_hmac_calculate:0000000000000000 .LVL98
C:\Users\stapi\AppData\Local\Temp\ccNDCObj.s:896    .text.hau_hmac_calculate:00000000000000ee .LVL118
C:\Users\stapi\AppData\Local\Temp\ccNDCObj.s:929    .text.hau_hmac_calculate:0000000000000118 .LVL122
C:\Users\stapi\AppData\Local\Temp\ccNDCObj.s:948    .text.hau_hmac_calculate:000000000000012c .LVL126
C:\Users\stapi\AppData\Local\Temp\ccNDCObj.s:968    .text.hau_hmac_calculate:0000000000000138 .LVL128
C:\Users\stapi\AppData\Local\Temp\ccNDCObj.s:1003   .text.hau_hmac_calculate:0000000000000160 .LVL135
C:\Users\stapi\AppData\Local\Temp\ccNDCObj.s:852    .text.hau_hmac_calculate:00000000000000b4 .LVL113
C:\Users\stapi\AppData\Local\Temp\ccNDCObj.s:983    .text.hau_hmac_calculate:000000000000014a .LVL131
C:\Users\stapi\AppData\Local\Temp\ccNDCObj.s:740    .text.hau_hmac_calculate:0000000000000018 .LVL100
C:\Users\stapi\AppData\Local\Temp\ccNDCObj.s:734    .text.hau_hmac_calculate:0000000000000012 .LVL99
C:\Users\stapi\AppData\Local\Temp\ccNDCObj.s:811    .text.hau_hmac_calculate:000000000000007c .LVL108
C:\Users\stapi\AppData\Local\Temp\ccNDCObj.s:936    .text.hau_hmac_calculate:0000000000000120 .LVL123
C:\Users\stapi\AppData\Local\Temp\ccNDCObj.s:943    .text.hau_hmac_calculate:000000000000012a .LVL125
C:\Users\stapi\AppData\Local\Temp\ccNDCObj.s:976    .text.hau_hmac_calculate:0000000000000140 .LVL129
C:\Users\stapi\AppData\Local\Temp\ccNDCObj.s:989    .text.hau_hmac_calculate:000000000000014e .LVL132
C:\Users\stapi\AppData\Local\Temp\ccNDCObj.s:996    .text.hau_hmac_calculate:0000000000000156 .LVL133
C:\Users\stapi\AppData\Local\Temp\ccNDCObj.s:744    .text.hau_hmac_calculate:000000000000001a .LVL101
C:\Users\stapi\AppData\Local\Temp\ccNDCObj.s:834    .text.hau_hmac_calculate:0000000000000098 .LVL110
C:\Users\stapi\AppData\Local\Temp\ccNDCObj.s:877    .text.hau_hmac_calculate:00000000000000d2 .LVL115
C:\Users\stapi\AppData\Local\Temp\ccNDCObj.s:921    .text.hau_hmac_calculate:000000000000010a .LVL120
C:\Users\stapi\AppData\Local\Temp\ccNDCObj.s:952    .text.hau_hmac_calculate:000000000000012e .LVL127
C:\Users\stapi\AppData\Local\Temp\ccNDCObj.s:755    .text.hau_hmac_calculate:000000000000002a .LVL102
C:\Users\stapi\AppData\Local\Temp\ccNDCObj.s:760    .text.hau_hmac_calculate:000000000000002e .LVL103
C:\Users\stapi\AppData\Local\Temp\ccNDCObj.s:453    .text.hau_hash_calculate:0000000000000000 .LVL59
C:\Users\stapi\AppData\Local\Temp\ccNDCObj.s:527    .text.hau_hash_calculate:0000000000000054 .LVL67
C:\Users\stapi\AppData\Local\Temp\ccNDCObj.s:562    .text.hau_hash_calculate:000000000000007e .LVL72
C:\Users\stapi\AppData\Local\Temp\ccNDCObj.s:576    .text.hau_hash_calculate:0000000000000090 .LVL75
C:\Users\stapi\AppData\Local\Temp\ccNDCObj.s:472    .text.hau_hash_calculate:0000000000000010 .LVL60
C:\Users\stapi\AppData\Local\Temp\ccNDCObj.s:569    .text.hau_hash_calculate:0000000000000086 .LVL73
C:\Users\stapi\AppData\Local\Temp\ccNDCObj.s:479    .text.hau_hash_calculate:0000000000000014 .LVL61
C:\Users\stapi\AppData\Local\Temp\ccNDCObj.s:539    .text.hau_hash_calculate:0000000000000062 .LVL69
C:\Users\stapi\AppData\Local\Temp\ccNDCObj.s:551    .text.hau_hash_calculate:000000000000006e .LVL70
C:\Users\stapi\AppData\Local\Temp\ccNDCObj.s:581    .text.hau_hash_calculate:0000000000000092 .LVL76
C:\Users\stapi\AppData\Local\Temp\ccNDCObj.s:584    .text.hau_hash_calculate:0000000000000094 .LVL77
C:\Users\stapi\AppData\Local\Temp\ccNDCObj.s:484    .text.hau_hash_calculate:0000000000000018 .LVL62
C:\Users\stapi\AppData\Local\Temp\ccNDCObj.s:18     .text.hau_sha_md5_digest_read:0000000000000000 .LVL0
C:\Users\stapi\AppData\Local\Temp\ccNDCObj.s:39     .text.hau_sha_md5_digest_read:0000000000000022 .LVL2
C:\Users\stapi\AppData\Local\Temp\ccNDCObj.s:49     .text.hau_sha_md5_digest_read:000000000000002c .LVL3
C:\Users\stapi\AppData\Local\Temp\ccNDCObj.s:57     .text.hau_sha_md5_digest_read:0000000000000036 .LVL4
C:\Users\stapi\AppData\Local\Temp\ccNDCObj.s:181    .text.hau_sha_md5_digest_read:0000000000000080 .LVL21
C:\Users\stapi\AppData\Local\Temp\ccNDCObj.s:185    .text.hau_sha_md5_digest_read:0000000000000082 .LVL22
C:\Users\stapi\AppData\Local\Temp\ccNDCObj.s:263    .text.hau_sha_md5_digest_read:00000000000000b4 .LVL33
C:\Users\stapi\AppData\Local\Temp\ccNDCObj.s:267    .text.hau_sha_md5_digest_read:00000000000000b6 .LVL34
C:\Users\stapi\AppData\Local\Temp\ccNDCObj.s:375    .text.hau_sha_md5_digest_read:00000000000000f8 .LVL49
C:\Users\stapi\AppData\Local\Temp\ccNDCObj.s:379    .text.hau_sha_md5_digest_read:00000000000000fa .LVL50
C:\Users\stapi\AppData\Local\Temp\ccNDCObj.s:25     .text.hau_sha_md5_digest_read:0000000000000008 .LVL1
C:\Users\stapi\AppData\Local\Temp\ccNDCObj.s:75     .text.hau_sha_md5_digest_read:0000000000000046 .LVL7
C:\Users\stapi\AppData\Local\Temp\ccNDCObj.s:90     .text.hau_sha_md5_digest_read:000000000000004e .LVL9
C:\Users\stapi\AppData\Local\Temp\ccNDCObj.s:105    .text.hau_sha_md5_digest_read:0000000000000056 .LVL11
C:\Users\stapi\AppData\Local\Temp\ccNDCObj.s:120    .text.hau_sha_md5_digest_read:000000000000005e .LVL13
C:\Users\stapi\AppData\Local\Temp\ccNDCObj.s:135    .text.hau_sha_md5_digest_read:0000000000000066 .LVL15
C:\Users\stapi\AppData\Local\Temp\ccNDCObj.s:150    .text.hau_sha_md5_digest_read:000000000000006e .LVL17
C:\Users\stapi\AppData\Local\Temp\ccNDCObj.s:165    .text.hau_sha_md5_digest_read:0000000000000076 .LVL19
C:\Users\stapi\AppData\Local\Temp\ccNDCObj.s:202    .text.hau_sha_md5_digest_read:0000000000000092 .LVL25
C:\Users\stapi\AppData\Local\Temp\ccNDCObj.s:217    .text.hau_sha_md5_digest_read:000000000000009a .LVL27
C:\Users\stapi\AppData\Local\Temp\ccNDCObj.s:232    .text.hau_sha_md5_digest_read:00000000000000a2 .LVL29
C:\Users\stapi\AppData\Local\Temp\ccNDCObj.s:247    .text.hau_sha_md5_digest_read:00000000000000aa .LVL31
C:\Users\stapi\AppData\Local\Temp\ccNDCObj.s:284    .text.hau_sha_md5_digest_read:00000000000000c6 .LVL37
C:\Users\stapi\AppData\Local\Temp\ccNDCObj.s:299    .text.hau_sha_md5_digest_read:00000000000000ce .LVL39
C:\Users\stapi\AppData\Local\Temp\ccNDCObj.s:314    .text.hau_sha_md5_digest_read:00000000000000d6 .LVL41
C:\Users\stapi\AppData\Local\Temp\ccNDCObj.s:329    .text.hau_sha_md5_digest_read:00000000000000de .LVL43
C:\Users\stapi\AppData\Local\Temp\ccNDCObj.s:344    .text.hau_sha_md5_digest_read:00000000000000e6 .LVL45
C:\Users\stapi\AppData\Local\Temp\ccNDCObj.s:359    .text.hau_sha_md5_digest_read:00000000000000ee .LVL47
C:\Users\stapi\AppData\Local\Temp\ccNDCObj.s:396    .text.hau_sha_md5_digest_read:000000000000010a .LVL53
C:\Users\stapi\AppData\Local\Temp\ccNDCObj.s:411    .text.hau_sha_md5_digest_read:0000000000000112 .LVL55
C:\Users\stapi\AppData\Local\Temp\ccNDCObj.s:426    .text.hau_sha_md5_digest_read:000000000000011a .LVL57
C:\Users\stapi\AppData\Local\Temp\ccNDCObj.s:1111   .text.hau_hmac_md5:0000000000000000 .LVL157
C:\Users\stapi\AppData\Local\Temp\ccNDCObj.s:1126   .text.hau_hmac_md5:000000000000000e .LVL162
C:\Users\stapi\AppData\Local\Temp\ccNDCObj.s:1124   .text.hau_hmac_md5:000000000000000a .LVL161
C:\Users\stapi\AppData\Local\Temp\ccNDCObj.s:1122   .text.hau_hmac_md5:0000000000000008 .LVL160
C:\Users\stapi\AppData\Local\Temp\ccNDCObj.s:1120   .text.hau_hmac_md5:0000000000000006 .LVL159
C:\Users\stapi\AppData\Local\Temp\ccNDCObj.s:1118   .text.hau_hmac_md5:0000000000000004 .LVL158
C:\Users\stapi\AppData\Local\Temp\ccNDCObj.s:687    .text.hau_hash_md5:0000000000000000 .LVL93
C:\Users\stapi\AppData\Local\Temp\ccNDCObj.s:698    .text.hau_hash_md5:000000000000000a .LVL96
C:\Users\stapi\AppData\Local\Temp\ccNDCObj.s:696    .text.hau_hash_md5:0000000000000006 .LVL95
C:\Users\stapi\AppData\Local\Temp\ccNDCObj.s:694    .text.hau_hash_md5:0000000000000004 .LVL94
C:\Users\stapi\AppData\Local\Temp\ccNDCObj.s:1080   .text.hau_hmac_sha_256:0000000000000000 .LVL150
C:\Users\stapi\AppData\Local\Temp\ccNDCObj.s:1095   .text.hau_hmac_sha_256:000000000000000e .LVL155
C:\Users\stapi\AppData\Local\Temp\ccNDCObj.s:1093   .text.hau_hmac_sha_256:000000000000000a .LVL154
C:\Users\stapi\AppData\Local\Temp\ccNDCObj.s:1091   .text.hau_hmac_sha_256:0000000000000008 .LVL153
C:\Users\stapi\AppData\Local\Temp\ccNDCObj.s:1089   .text.hau_hmac_sha_256:0000000000000006 .LVL152
C:\Users\stapi\AppData\Local\Temp\ccNDCObj.s:1087   .text.hau_hmac_sha_256:0000000000000004 .LVL151
C:\Users\stapi\AppData\Local\Temp\ccNDCObj.s:660    .text.hau_hash_sha_256:0000000000000000 .LVL88
C:\Users\stapi\AppData\Local\Temp\ccNDCObj.s:671    .text.hau_hash_sha_256:000000000000000a .LVL91
C:\Users\stapi\AppData\Local\Temp\ccNDCObj.s:669    .text.hau_hash_sha_256:0000000000000006 .LVL90
C:\Users\stapi\AppData\Local\Temp\ccNDCObj.s:667    .text.hau_hash_sha_256:0000000000000004 .LVL89
C:\Users\stapi\AppData\Local\Temp\ccNDCObj.s:1050   .text.hau_hmac_sha_224:0000000000000000 .LVL143
C:\Users\stapi\AppData\Local\Temp\ccNDCObj.s:1065   .text.hau_hmac_sha_224:000000000000000e .LVL148
C:\Users\stapi\AppData\Local\Temp\ccNDCObj.s:1063   .text.hau_hmac_sha_224:000000000000000a .LVL147
C:\Users\stapi\AppData\Local\Temp\ccNDCObj.s:1061   .text.hau_hmac_sha_224:0000000000000008 .LVL146
C:\Users\stapi\AppData\Local\Temp\ccNDCObj.s:1059   .text.hau_hmac_sha_224:0000000000000006 .LVL145
C:\Users\stapi\AppData\Local\Temp\ccNDCObj.s:1057   .text.hau_hmac_sha_224:0000000000000004 .LVL144
C:\Users\stapi\AppData\Local\Temp\ccNDCObj.s:634    .text.hau_hash_sha_224:0000000000000000 .LVL83
C:\Users\stapi\AppData\Local\Temp\ccNDCObj.s:645    .text.hau_hash_sha_224:000000000000000a .LVL86
C:\Users\stapi\AppData\Local\Temp\ccNDCObj.s:643    .text.hau_hash_sha_224:0000000000000006 .LVL85
C:\Users\stapi\AppData\Local\Temp\ccNDCObj.s:641    .text.hau_hash_sha_224:0000000000000004 .LVL84
C:\Users\stapi\AppData\Local\Temp\ccNDCObj.s:1020   .text.hau_hmac_sha_1:0000000000000000 .LVL136
C:\Users\stapi\AppData\Local\Temp\ccNDCObj.s:1035   .text.hau_hmac_sha_1:000000000000000c .LVL141
C:\Users\stapi\AppData\Local\Temp\ccNDCObj.s:1033   .text.hau_hmac_sha_1:000000000000000a .LVL140
C:\Users\stapi\AppData\Local\Temp\ccNDCObj.s:1031   .text.hau_hmac_sha_1:0000000000000008 .LVL139
C:\Users\stapi\AppData\Local\Temp\ccNDCObj.s:1029   .text.hau_hmac_sha_1:0000000000000006 .LVL138
C:\Users\stapi\AppData\Local\Temp\ccNDCObj.s:1027   .text.hau_hmac_sha_1:0000000000000004 .LVL137
C:\Users\stapi\AppData\Local\Temp\ccNDCObj.s:608    .text.hau_hash_sha_1:0000000000000000 .LVL78
C:\Users\stapi\AppData\Local\Temp\ccNDCObj.s:619    .text.hau_hash_sha_1:0000000000000008 .LVL81
C:\Users\stapi\AppData\Local\Temp\ccNDCObj.s:617    .text.hau_hash_sha_1:0000000000000006 .LVL80
C:\Users\stapi\AppData\Local\Temp\ccNDCObj.s:615    .text.hau_hash_sha_1:0000000000000004 .LVL79
C:\Users\stapi\AppData\Local\Temp\ccNDCObj.s:1140   .debug_info:0000000000000000 .Ldebug_info0

UNDEFINED SYMBOLS
__riscv_save_1
__riscv_restore_1
hau_digest_read
__riscv_save_5
hau_deinit
hau_init
hau_last_word_validbits_num_config
hau_digest_calculation_enable
hau_flag_get
hau_data_write
__riscv_restore_5
__riscv_save_7
__riscv_restore_7
