   1              		.file	"gd32vw55x_cau_tdes.c"
   2              		.option nopic
   3              		.attribute arch, "rv32i2p0_m2p0_a2p0_f2p0_c2p0_b_p0p94"
   4              		.attribute unaligned_access, 0
   5              		.attribute stack_align, 16
   6              		.text
   7              	.Ltext0:
   8              		.cfi_sections	.debug_frame
   9              		.section	.text.cau_tdes_calculate,"ax",@progbits
  10              		.align	1
  12              	cau_tdes_calculate:
  13              	.LFB367:
  14              		.file 1 "C:/Users/stapi/OneDrive/Desktop/GD32VW553/V1_MQTT_OK/GD32VW55X_Wifi_BLE_SDK/GD32VW55x_REL
   1:C:/Users/stapi/OneDrive/Desktop/GD32VW553/V1_MQTT_OK/GD32VW55X_Wifi_BLE_SDK/GD32VW55x_RELEASE_V1.0.2/MSDK/plf/GD32VW55x_standard_peripheral/Source\gd32vw55x_cau_tdes.c **** /*!
   2:C:/Users/stapi/OneDrive/Desktop/GD32VW553/V1_MQTT_OK/GD32VW55X_Wifi_BLE_SDK/GD32VW55x_RELEASE_V1.0.2/MSDK/plf/GD32VW55x_standard_peripheral/Source\gd32vw55x_cau_tdes.c ****     \file    gd32vw55x_cau_tdes.c
   3:C:/Users/stapi/OneDrive/Desktop/GD32VW553/V1_MQTT_OK/GD32VW55X_Wifi_BLE_SDK/GD32VW55x_RELEASE_V1.0.2/MSDK/plf/GD32VW55x_standard_peripheral/Source\gd32vw55x_cau_tdes.c ****     \brief   CAU TDES driver
   4:C:/Users/stapi/OneDrive/Desktop/GD32VW553/V1_MQTT_OK/GD32VW55X_Wifi_BLE_SDK/GD32VW55x_RELEASE_V1.0.2/MSDK/plf/GD32VW55x_standard_peripheral/Source\gd32vw55x_cau_tdes.c **** 
   5:C:/Users/stapi/OneDrive/Desktop/GD32VW553/V1_MQTT_OK/GD32VW55X_Wifi_BLE_SDK/GD32VW55x_RELEASE_V1.0.2/MSDK/plf/GD32VW55x_standard_peripheral/Source\gd32vw55x_cau_tdes.c ****     \version 2023-07-20, V1.0.0, firmware for GD32VW55x
   6:C:/Users/stapi/OneDrive/Desktop/GD32VW553/V1_MQTT_OK/GD32VW55X_Wifi_BLE_SDK/GD32VW55x_RELEASE_V1.0.2/MSDK/plf/GD32VW55x_standard_peripheral/Source\gd32vw55x_cau_tdes.c **** */
   7:C:/Users/stapi/OneDrive/Desktop/GD32VW553/V1_MQTT_OK/GD32VW55X_Wifi_BLE_SDK/GD32VW55x_RELEASE_V1.0.2/MSDK/plf/GD32VW55x_standard_peripheral/Source\gd32vw55x_cau_tdes.c **** 
   8:C:/Users/stapi/OneDrive/Desktop/GD32VW553/V1_MQTT_OK/GD32VW55X_Wifi_BLE_SDK/GD32VW55x_RELEASE_V1.0.2/MSDK/plf/GD32VW55x_standard_peripheral/Source\gd32vw55x_cau_tdes.c **** /*
   9:C:/Users/stapi/OneDrive/Desktop/GD32VW553/V1_MQTT_OK/GD32VW55X_Wifi_BLE_SDK/GD32VW55x_RELEASE_V1.0.2/MSDK/plf/GD32VW55x_standard_peripheral/Source\gd32vw55x_cau_tdes.c ****     Copyright (c) 2023, GigaDevice Semiconductor Inc.
  10:C:/Users/stapi/OneDrive/Desktop/GD32VW553/V1_MQTT_OK/GD32VW55X_Wifi_BLE_SDK/GD32VW55x_RELEASE_V1.0.2/MSDK/plf/GD32VW55x_standard_peripheral/Source\gd32vw55x_cau_tdes.c **** 
  11:C:/Users/stapi/OneDrive/Desktop/GD32VW553/V1_MQTT_OK/GD32VW55X_Wifi_BLE_SDK/GD32VW55x_RELEASE_V1.0.2/MSDK/plf/GD32VW55x_standard_peripheral/Source\gd32vw55x_cau_tdes.c ****     Redistribution and use in source and binary forms, with or without modification,
  12:C:/Users/stapi/OneDrive/Desktop/GD32VW553/V1_MQTT_OK/GD32VW55X_Wifi_BLE_SDK/GD32VW55x_RELEASE_V1.0.2/MSDK/plf/GD32VW55x_standard_peripheral/Source\gd32vw55x_cau_tdes.c **** are permitted provided that the following conditions are met:
  13:C:/Users/stapi/OneDrive/Desktop/GD32VW553/V1_MQTT_OK/GD32VW55X_Wifi_BLE_SDK/GD32VW55x_RELEASE_V1.0.2/MSDK/plf/GD32VW55x_standard_peripheral/Source\gd32vw55x_cau_tdes.c **** 
  14:C:/Users/stapi/OneDrive/Desktop/GD32VW553/V1_MQTT_OK/GD32VW55X_Wifi_BLE_SDK/GD32VW55x_RELEASE_V1.0.2/MSDK/plf/GD32VW55x_standard_peripheral/Source\gd32vw55x_cau_tdes.c ****     1. Redistributions of source code must retain the above copyright notice, this
  15:C:/Users/stapi/OneDrive/Desktop/GD32VW553/V1_MQTT_OK/GD32VW55X_Wifi_BLE_SDK/GD32VW55x_RELEASE_V1.0.2/MSDK/plf/GD32VW55x_standard_peripheral/Source\gd32vw55x_cau_tdes.c ****        list of conditions and the following disclaimer.
  16:C:/Users/stapi/OneDrive/Desktop/GD32VW553/V1_MQTT_OK/GD32VW55X_Wifi_BLE_SDK/GD32VW55x_RELEASE_V1.0.2/MSDK/plf/GD32VW55x_standard_peripheral/Source\gd32vw55x_cau_tdes.c ****     2. Redistributions in binary form must reproduce the above copyright notice,
  17:C:/Users/stapi/OneDrive/Desktop/GD32VW553/V1_MQTT_OK/GD32VW55X_Wifi_BLE_SDK/GD32VW55x_RELEASE_V1.0.2/MSDK/plf/GD32VW55x_standard_peripheral/Source\gd32vw55x_cau_tdes.c ****        this list of conditions and the following disclaimer in the documentation
  18:C:/Users/stapi/OneDrive/Desktop/GD32VW553/V1_MQTT_OK/GD32VW55X_Wifi_BLE_SDK/GD32VW55x_RELEASE_V1.0.2/MSDK/plf/GD32VW55x_standard_peripheral/Source\gd32vw55x_cau_tdes.c ****        and/or other materials provided with the distribution.
  19:C:/Users/stapi/OneDrive/Desktop/GD32VW553/V1_MQTT_OK/GD32VW55X_Wifi_BLE_SDK/GD32VW55x_RELEASE_V1.0.2/MSDK/plf/GD32VW55x_standard_peripheral/Source\gd32vw55x_cau_tdes.c ****     3. Neither the name of the copyright holder nor the names of its contributors
  20:C:/Users/stapi/OneDrive/Desktop/GD32VW553/V1_MQTT_OK/GD32VW55X_Wifi_BLE_SDK/GD32VW55x_RELEASE_V1.0.2/MSDK/plf/GD32VW55x_standard_peripheral/Source\gd32vw55x_cau_tdes.c ****        may be used to endorse or promote products derived from this software without
  21:C:/Users/stapi/OneDrive/Desktop/GD32VW553/V1_MQTT_OK/GD32VW55X_Wifi_BLE_SDK/GD32VW55x_RELEASE_V1.0.2/MSDK/plf/GD32VW55x_standard_peripheral/Source\gd32vw55x_cau_tdes.c ****        specific prior written permission.
  22:C:/Users/stapi/OneDrive/Desktop/GD32VW553/V1_MQTT_OK/GD32VW55X_Wifi_BLE_SDK/GD32VW55x_RELEASE_V1.0.2/MSDK/plf/GD32VW55x_standard_peripheral/Source\gd32vw55x_cau_tdes.c **** 
  23:C:/Users/stapi/OneDrive/Desktop/GD32VW553/V1_MQTT_OK/GD32VW55X_Wifi_BLE_SDK/GD32VW55x_RELEASE_V1.0.2/MSDK/plf/GD32VW55x_standard_peripheral/Source\gd32vw55x_cau_tdes.c ****     THIS SOFTWARE IS PROVIDED BY THE COPYRIGHT HOLDERS AND CONTRIBUTORS "AS IS"
  24:C:/Users/stapi/OneDrive/Desktop/GD32VW553/V1_MQTT_OK/GD32VW55X_Wifi_BLE_SDK/GD32VW55x_RELEASE_V1.0.2/MSDK/plf/GD32VW55x_standard_peripheral/Source\gd32vw55x_cau_tdes.c **** AND ANY EXPRESS OR IMPLIED WARRANTIES, INCLUDING, BUT NOT LIMITED TO, THE IMPLIED
  25:C:/Users/stapi/OneDrive/Desktop/GD32VW553/V1_MQTT_OK/GD32VW55X_Wifi_BLE_SDK/GD32VW55x_RELEASE_V1.0.2/MSDK/plf/GD32VW55x_standard_peripheral/Source\gd32vw55x_cau_tdes.c **** WARRANTIES OF MERCHANTABILITY AND FITNESS FOR A PARTICULAR PURPOSE ARE DISCLAIMED.
  26:C:/Users/stapi/OneDrive/Desktop/GD32VW553/V1_MQTT_OK/GD32VW55X_Wifi_BLE_SDK/GD32VW55x_RELEASE_V1.0.2/MSDK/plf/GD32VW55x_standard_peripheral/Source\gd32vw55x_cau_tdes.c **** IN NO EVENT SHALL THE COPYRIGHT HOLDER OR CONTRIBUTORS BE LIABLE FOR ANY DIRECT,
  27:C:/Users/stapi/OneDrive/Desktop/GD32VW553/V1_MQTT_OK/GD32VW55X_Wifi_BLE_SDK/GD32VW55x_RELEASE_V1.0.2/MSDK/plf/GD32VW55x_standard_peripheral/Source\gd32vw55x_cau_tdes.c **** INDIRECT, INCIDENTAL, SPECIAL, EXEMPLARY, OR CONSEQUENTIAL DAMAGES (INCLUDING, BUT
  28:C:/Users/stapi/OneDrive/Desktop/GD32VW553/V1_MQTT_OK/GD32VW55X_Wifi_BLE_SDK/GD32VW55x_RELEASE_V1.0.2/MSDK/plf/GD32VW55x_standard_peripheral/Source\gd32vw55x_cau_tdes.c **** NOT LIMITED TO, PROCUREMENT OF SUBSTITUTE GOODS OR SERVICES; LOSS OF USE, DATA, OR
  29:C:/Users/stapi/OneDrive/Desktop/GD32VW553/V1_MQTT_OK/GD32VW55X_Wifi_BLE_SDK/GD32VW55x_RELEASE_V1.0.2/MSDK/plf/GD32VW55x_standard_peripheral/Source\gd32vw55x_cau_tdes.c **** PROFITS; OR BUSINESS INTERRUPTION) HOWEVER CAUSED AND ON ANY THEORY OF LIABILITY,
  30:C:/Users/stapi/OneDrive/Desktop/GD32VW553/V1_MQTT_OK/GD32VW55X_Wifi_BLE_SDK/GD32VW55x_RELEASE_V1.0.2/MSDK/plf/GD32VW55x_standard_peripheral/Source\gd32vw55x_cau_tdes.c **** WHETHER IN CONTRACT, STRICT LIABILITY, OR TORT (INCLUDING NEGLIGENCE OR OTHERWISE)
  31:C:/Users/stapi/OneDrive/Desktop/GD32VW553/V1_MQTT_OK/GD32VW55X_Wifi_BLE_SDK/GD32VW55x_RELEASE_V1.0.2/MSDK/plf/GD32VW55x_standard_peripheral/Source\gd32vw55x_cau_tdes.c **** ARISING IN ANY WAY OUT OF THE USE OF THIS SOFTWARE, EVEN IF ADVISED OF THE POSSIBILITY
  32:C:/Users/stapi/OneDrive/Desktop/GD32VW553/V1_MQTT_OK/GD32VW55X_Wifi_BLE_SDK/GD32VW55x_RELEASE_V1.0.2/MSDK/plf/GD32VW55x_standard_peripheral/Source\gd32vw55x_cau_tdes.c **** OF SUCH DAMAGE.
  33:C:/Users/stapi/OneDrive/Desktop/GD32VW553/V1_MQTT_OK/GD32VW55X_Wifi_BLE_SDK/GD32VW55x_RELEASE_V1.0.2/MSDK/plf/GD32VW55x_standard_peripheral/Source\gd32vw55x_cau_tdes.c **** */
  34:C:/Users/stapi/OneDrive/Desktop/GD32VW553/V1_MQTT_OK/GD32VW55X_Wifi_BLE_SDK/GD32VW55x_RELEASE_V1.0.2/MSDK/plf/GD32VW55x_standard_peripheral/Source\gd32vw55x_cau_tdes.c **** 
  35:C:/Users/stapi/OneDrive/Desktop/GD32VW553/V1_MQTT_OK/GD32VW55X_Wifi_BLE_SDK/GD32VW55x_RELEASE_V1.0.2/MSDK/plf/GD32VW55x_standard_peripheral/Source\gd32vw55x_cau_tdes.c **** #include "gd32vw55x_cau.h"
  36:C:/Users/stapi/OneDrive/Desktop/GD32VW553/V1_MQTT_OK/GD32VW55X_Wifi_BLE_SDK/GD32VW55x_RELEASE_V1.0.2/MSDK/plf/GD32VW55x_standard_peripheral/Source\gd32vw55x_cau_tdes.c **** 
  37:C:/Users/stapi/OneDrive/Desktop/GD32VW553/V1_MQTT_OK/GD32VW55X_Wifi_BLE_SDK/GD32VW55x_RELEASE_V1.0.2/MSDK/plf/GD32VW55x_standard_peripheral/Source\gd32vw55x_cau_tdes.c **** #define TDESBSY_TIMEOUT    ((uint32_t)0x00010000U)
  38:C:/Users/stapi/OneDrive/Desktop/GD32VW553/V1_MQTT_OK/GD32VW55X_Wifi_BLE_SDK/GD32VW55x_RELEASE_V1.0.2/MSDK/plf/GD32VW55x_standard_peripheral/Source\gd32vw55x_cau_tdes.c **** 
  39:C:/Users/stapi/OneDrive/Desktop/GD32VW553/V1_MQTT_OK/GD32VW55X_Wifi_BLE_SDK/GD32VW55x_RELEASE_V1.0.2/MSDK/plf/GD32VW55x_standard_peripheral/Source\gd32vw55x_cau_tdes.c **** /* TDES calculate process */
  40:C:/Users/stapi/OneDrive/Desktop/GD32VW553/V1_MQTT_OK/GD32VW55X_Wifi_BLE_SDK/GD32VW55x_RELEASE_V1.0.2/MSDK/plf/GD32VW55x_standard_peripheral/Source\gd32vw55x_cau_tdes.c **** static ErrStatus cau_tdes_calculate(uint8_t *input, uint32_t in_length, uint8_t *output);
  41:C:/Users/stapi/OneDrive/Desktop/GD32VW553/V1_MQTT_OK/GD32VW55X_Wifi_BLE_SDK/GD32VW55x_RELEASE_V1.0.2/MSDK/plf/GD32VW55x_standard_peripheral/Source\gd32vw55x_cau_tdes.c **** 
  42:C:/Users/stapi/OneDrive/Desktop/GD32VW553/V1_MQTT_OK/GD32VW55X_Wifi_BLE_SDK/GD32VW55x_RELEASE_V1.0.2/MSDK/plf/GD32VW55x_standard_peripheral/Source\gd32vw55x_cau_tdes.c **** /*!
  43:C:/Users/stapi/OneDrive/Desktop/GD32VW553/V1_MQTT_OK/GD32VW55X_Wifi_BLE_SDK/GD32VW55x_RELEASE_V1.0.2/MSDK/plf/GD32VW55x_standard_peripheral/Source\gd32vw55x_cau_tdes.c ****     \brief      encrypt and decrypt using TDES in ECB mode
  44:C:/Users/stapi/OneDrive/Desktop/GD32VW553/V1_MQTT_OK/GD32VW55X_Wifi_BLE_SDK/GD32VW55x_RELEASE_V1.0.2/MSDK/plf/GD32VW55x_standard_peripheral/Source\gd32vw55x_cau_tdes.c ****     \param[in]  cau_parameter: pointer to the input structure
  45:C:/Users/stapi/OneDrive/Desktop/GD32VW553/V1_MQTT_OK/GD32VW55X_Wifi_BLE_SDK/GD32VW55x_RELEASE_V1.0.2/MSDK/plf/GD32VW55x_standard_peripheral/Source\gd32vw55x_cau_tdes.c ****                   alg_dir: algorithm direction
  46:C:/Users/stapi/OneDrive/Desktop/GD32VW553/V1_MQTT_OK/GD32VW55X_Wifi_BLE_SDK/GD32VW55x_RELEASE_V1.0.2/MSDK/plf/GD32VW55x_standard_peripheral/Source\gd32vw55x_cau_tdes.c ****                     CAU_ENCRYPT, CAU_DECRYPT
  47:C:/Users/stapi/OneDrive/Desktop/GD32VW553/V1_MQTT_OK/GD32VW55X_Wifi_BLE_SDK/GD32VW55x_RELEASE_V1.0.2/MSDK/plf/GD32VW55x_standard_peripheral/Source\gd32vw55x_cau_tdes.c ****                   key: key, 24 bytes
  48:C:/Users/stapi/OneDrive/Desktop/GD32VW553/V1_MQTT_OK/GD32VW55X_Wifi_BLE_SDK/GD32VW55x_RELEASE_V1.0.2/MSDK/plf/GD32VW55x_standard_peripheral/Source\gd32vw55x_cau_tdes.c ****                   input: input data
  49:C:/Users/stapi/OneDrive/Desktop/GD32VW553/V1_MQTT_OK/GD32VW55X_Wifi_BLE_SDK/GD32VW55x_RELEASE_V1.0.2/MSDK/plf/GD32VW55x_standard_peripheral/Source\gd32vw55x_cau_tdes.c ****                   in_length: input data length in bytes, must be a multiple of 8 bytes
  50:C:/Users/stapi/OneDrive/Desktop/GD32VW553/V1_MQTT_OK/GD32VW55X_Wifi_BLE_SDK/GD32VW55x_RELEASE_V1.0.2/MSDK/plf/GD32VW55x_standard_peripheral/Source\gd32vw55x_cau_tdes.c ****     \param[out] output: pointer to the output structure
  51:C:/Users/stapi/OneDrive/Desktop/GD32VW553/V1_MQTT_OK/GD32VW55X_Wifi_BLE_SDK/GD32VW55x_RELEASE_V1.0.2/MSDK/plf/GD32VW55x_standard_peripheral/Source\gd32vw55x_cau_tdes.c ****     \retval     ErrStatus: SUCCESS or ERROR
  52:C:/Users/stapi/OneDrive/Desktop/GD32VW553/V1_MQTT_OK/GD32VW55X_Wifi_BLE_SDK/GD32VW55x_RELEASE_V1.0.2/MSDK/plf/GD32VW55x_standard_peripheral/Source\gd32vw55x_cau_tdes.c **** */
  53:C:/Users/stapi/OneDrive/Desktop/GD32VW553/V1_MQTT_OK/GD32VW55X_Wifi_BLE_SDK/GD32VW55x_RELEASE_V1.0.2/MSDK/plf/GD32VW55x_standard_peripheral/Source\gd32vw55x_cau_tdes.c **** ErrStatus cau_tdes_ecb(cau_parameter_struct *cau_parameter, uint8_t *output)
  54:C:/Users/stapi/OneDrive/Desktop/GD32VW553/V1_MQTT_OK/GD32VW55X_Wifi_BLE_SDK/GD32VW55x_RELEASE_V1.0.2/MSDK/plf/GD32VW55x_standard_peripheral/Source\gd32vw55x_cau_tdes.c **** {
  55:C:/Users/stapi/OneDrive/Desktop/GD32VW553/V1_MQTT_OK/GD32VW55X_Wifi_BLE_SDK/GD32VW55x_RELEASE_V1.0.2/MSDK/plf/GD32VW55x_standard_peripheral/Source\gd32vw55x_cau_tdes.c ****     ErrStatus ret = ERROR;
  56:C:/Users/stapi/OneDrive/Desktop/GD32VW553/V1_MQTT_OK/GD32VW55X_Wifi_BLE_SDK/GD32VW55x_RELEASE_V1.0.2/MSDK/plf/GD32VW55x_standard_peripheral/Source\gd32vw55x_cau_tdes.c ****     cau_key_parameter_struct key_initpara;
  57:C:/Users/stapi/OneDrive/Desktop/GD32VW553/V1_MQTT_OK/GD32VW55X_Wifi_BLE_SDK/GD32VW55x_RELEASE_V1.0.2/MSDK/plf/GD32VW55x_standard_peripheral/Source\gd32vw55x_cau_tdes.c ****     uint32_t keyaddr    = (uint32_t)(cau_parameter->key);
  58:C:/Users/stapi/OneDrive/Desktop/GD32VW553/V1_MQTT_OK/GD32VW55X_Wifi_BLE_SDK/GD32VW55x_RELEASE_V1.0.2/MSDK/plf/GD32VW55x_standard_peripheral/Source\gd32vw55x_cau_tdes.c ****     uint32_t inputaddr  = (uint32_t)(cau_parameter->input);
  59:C:/Users/stapi/OneDrive/Desktop/GD32VW553/V1_MQTT_OK/GD32VW55X_Wifi_BLE_SDK/GD32VW55x_RELEASE_V1.0.2/MSDK/plf/GD32VW55x_standard_peripheral/Source\gd32vw55x_cau_tdes.c ****     uint32_t outputaddr = (uint32_t)output;
  60:C:/Users/stapi/OneDrive/Desktop/GD32VW553/V1_MQTT_OK/GD32VW55X_Wifi_BLE_SDK/GD32VW55x_RELEASE_V1.0.2/MSDK/plf/GD32VW55x_standard_peripheral/Source\gd32vw55x_cau_tdes.c **** 
  61:C:/Users/stapi/OneDrive/Desktop/GD32VW553/V1_MQTT_OK/GD32VW55X_Wifi_BLE_SDK/GD32VW55x_RELEASE_V1.0.2/MSDK/plf/GD32VW55x_standard_peripheral/Source\gd32vw55x_cau_tdes.c ****     /* key structure initialization */
  62:C:/Users/stapi/OneDrive/Desktop/GD32VW553/V1_MQTT_OK/GD32VW55X_Wifi_BLE_SDK/GD32VW55x_RELEASE_V1.0.2/MSDK/plf/GD32VW55x_standard_peripheral/Source\gd32vw55x_cau_tdes.c ****     cau_key_struct_para_init(&key_initpara);
  63:C:/Users/stapi/OneDrive/Desktop/GD32VW553/V1_MQTT_OK/GD32VW55X_Wifi_BLE_SDK/GD32VW55x_RELEASE_V1.0.2/MSDK/plf/GD32VW55x_standard_peripheral/Source\gd32vw55x_cau_tdes.c ****     /* initialize the CAU peripheral */
  64:C:/Users/stapi/OneDrive/Desktop/GD32VW553/V1_MQTT_OK/GD32VW55X_Wifi_BLE_SDK/GD32VW55x_RELEASE_V1.0.2/MSDK/plf/GD32VW55x_standard_peripheral/Source\gd32vw55x_cau_tdes.c ****     cau_init(cau_parameter->alg_dir, CAU_MODE_TDES_ECB, CAU_SWAPPING_8BIT);
  65:C:/Users/stapi/OneDrive/Desktop/GD32VW553/V1_MQTT_OK/GD32VW55X_Wifi_BLE_SDK/GD32VW55x_RELEASE_V1.0.2/MSDK/plf/GD32VW55x_standard_peripheral/Source\gd32vw55x_cau_tdes.c **** 
  66:C:/Users/stapi/OneDrive/Desktop/GD32VW553/V1_MQTT_OK/GD32VW55X_Wifi_BLE_SDK/GD32VW55x_RELEASE_V1.0.2/MSDK/plf/GD32VW55x_standard_peripheral/Source\gd32vw55x_cau_tdes.c ****     /* key initialization */
  67:C:/Users/stapi/OneDrive/Desktop/GD32VW553/V1_MQTT_OK/GD32VW55X_Wifi_BLE_SDK/GD32VW55x_RELEASE_V1.0.2/MSDK/plf/GD32VW55x_standard_peripheral/Source\gd32vw55x_cau_tdes.c ****     key_initpara.key_1_high = __REV(*(uint32_t *)(keyaddr));
  68:C:/Users/stapi/OneDrive/Desktop/GD32VW553/V1_MQTT_OK/GD32VW55X_Wifi_BLE_SDK/GD32VW55x_RELEASE_V1.0.2/MSDK/plf/GD32VW55x_standard_peripheral/Source\gd32vw55x_cau_tdes.c ****     keyaddr += 4U;
  69:C:/Users/stapi/OneDrive/Desktop/GD32VW553/V1_MQTT_OK/GD32VW55X_Wifi_BLE_SDK/GD32VW55x_RELEASE_V1.0.2/MSDK/plf/GD32VW55x_standard_peripheral/Source\gd32vw55x_cau_tdes.c ****     key_initpara.key_1_low  = __REV(*(uint32_t *)(keyaddr));
  70:C:/Users/stapi/OneDrive/Desktop/GD32VW553/V1_MQTT_OK/GD32VW55X_Wifi_BLE_SDK/GD32VW55x_RELEASE_V1.0.2/MSDK/plf/GD32VW55x_standard_peripheral/Source\gd32vw55x_cau_tdes.c ****     keyaddr += 4U;
  71:C:/Users/stapi/OneDrive/Desktop/GD32VW553/V1_MQTT_OK/GD32VW55X_Wifi_BLE_SDK/GD32VW55x_RELEASE_V1.0.2/MSDK/plf/GD32VW55x_standard_peripheral/Source\gd32vw55x_cau_tdes.c ****     key_initpara.key_2_high = __REV(*(uint32_t *)(keyaddr));
  72:C:/Users/stapi/OneDrive/Desktop/GD32VW553/V1_MQTT_OK/GD32VW55X_Wifi_BLE_SDK/GD32VW55x_RELEASE_V1.0.2/MSDK/plf/GD32VW55x_standard_peripheral/Source\gd32vw55x_cau_tdes.c ****     keyaddr += 4U;
  73:C:/Users/stapi/OneDrive/Desktop/GD32VW553/V1_MQTT_OK/GD32VW55X_Wifi_BLE_SDK/GD32VW55x_RELEASE_V1.0.2/MSDK/plf/GD32VW55x_standard_peripheral/Source\gd32vw55x_cau_tdes.c ****     key_initpara.key_2_low  = __REV(*(uint32_t *)(keyaddr));
  74:C:/Users/stapi/OneDrive/Desktop/GD32VW553/V1_MQTT_OK/GD32VW55X_Wifi_BLE_SDK/GD32VW55x_RELEASE_V1.0.2/MSDK/plf/GD32VW55x_standard_peripheral/Source\gd32vw55x_cau_tdes.c ****     keyaddr += 4U;
  75:C:/Users/stapi/OneDrive/Desktop/GD32VW553/V1_MQTT_OK/GD32VW55X_Wifi_BLE_SDK/GD32VW55x_RELEASE_V1.0.2/MSDK/plf/GD32VW55x_standard_peripheral/Source\gd32vw55x_cau_tdes.c ****     key_initpara.key_3_high = __REV(*(uint32_t *)(keyaddr));
  76:C:/Users/stapi/OneDrive/Desktop/GD32VW553/V1_MQTT_OK/GD32VW55X_Wifi_BLE_SDK/GD32VW55x_RELEASE_V1.0.2/MSDK/plf/GD32VW55x_standard_peripheral/Source\gd32vw55x_cau_tdes.c ****     keyaddr += 4U;
  77:C:/Users/stapi/OneDrive/Desktop/GD32VW553/V1_MQTT_OK/GD32VW55X_Wifi_BLE_SDK/GD32VW55x_RELEASE_V1.0.2/MSDK/plf/GD32VW55x_standard_peripheral/Source\gd32vw55x_cau_tdes.c ****     key_initpara.key_3_low  = __REV(*(uint32_t *)(keyaddr));
  78:C:/Users/stapi/OneDrive/Desktop/GD32VW553/V1_MQTT_OK/GD32VW55X_Wifi_BLE_SDK/GD32VW55x_RELEASE_V1.0.2/MSDK/plf/GD32VW55x_standard_peripheral/Source\gd32vw55x_cau_tdes.c ****     cau_key_init(&key_initpara);
  79:C:/Users/stapi/OneDrive/Desktop/GD32VW553/V1_MQTT_OK/GD32VW55X_Wifi_BLE_SDK/GD32VW55x_RELEASE_V1.0.2/MSDK/plf/GD32VW55x_standard_peripheral/Source\gd32vw55x_cau_tdes.c **** 
  80:C:/Users/stapi/OneDrive/Desktop/GD32VW553/V1_MQTT_OK/GD32VW55X_Wifi_BLE_SDK/GD32VW55x_RELEASE_V1.0.2/MSDK/plf/GD32VW55x_standard_peripheral/Source\gd32vw55x_cau_tdes.c ****     /* flush the IN and OUT FIFOs */
  81:C:/Users/stapi/OneDrive/Desktop/GD32VW553/V1_MQTT_OK/GD32VW55X_Wifi_BLE_SDK/GD32VW55x_RELEASE_V1.0.2/MSDK/plf/GD32VW55x_standard_peripheral/Source\gd32vw55x_cau_tdes.c ****     cau_fifo_flush();
  82:C:/Users/stapi/OneDrive/Desktop/GD32VW553/V1_MQTT_OK/GD32VW55X_Wifi_BLE_SDK/GD32VW55x_RELEASE_V1.0.2/MSDK/plf/GD32VW55x_standard_peripheral/Source\gd32vw55x_cau_tdes.c **** 
  83:C:/Users/stapi/OneDrive/Desktop/GD32VW553/V1_MQTT_OK/GD32VW55X_Wifi_BLE_SDK/GD32VW55x_RELEASE_V1.0.2/MSDK/plf/GD32VW55x_standard_peripheral/Source\gd32vw55x_cau_tdes.c ****     /* enable the CAU peripheral */
  84:C:/Users/stapi/OneDrive/Desktop/GD32VW553/V1_MQTT_OK/GD32VW55X_Wifi_BLE_SDK/GD32VW55x_RELEASE_V1.0.2/MSDK/plf/GD32VW55x_standard_peripheral/Source\gd32vw55x_cau_tdes.c ****     cau_enable();
  85:C:/Users/stapi/OneDrive/Desktop/GD32VW553/V1_MQTT_OK/GD32VW55X_Wifi_BLE_SDK/GD32VW55x_RELEASE_V1.0.2/MSDK/plf/GD32VW55x_standard_peripheral/Source\gd32vw55x_cau_tdes.c ****     /* TDES calculate process */
  86:C:/Users/stapi/OneDrive/Desktop/GD32VW553/V1_MQTT_OK/GD32VW55X_Wifi_BLE_SDK/GD32VW55x_RELEASE_V1.0.2/MSDK/plf/GD32VW55x_standard_peripheral/Source\gd32vw55x_cau_tdes.c ****     ret = cau_tdes_calculate((uint8_t *)inputaddr, cau_parameter->in_length, (uint8_t *)outputaddr)
  87:C:/Users/stapi/OneDrive/Desktop/GD32VW553/V1_MQTT_OK/GD32VW55X_Wifi_BLE_SDK/GD32VW55x_RELEASE_V1.0.2/MSDK/plf/GD32VW55x_standard_peripheral/Source\gd32vw55x_cau_tdes.c ****     /* disable the CAU peripheral */
  88:C:/Users/stapi/OneDrive/Desktop/GD32VW553/V1_MQTT_OK/GD32VW55X_Wifi_BLE_SDK/GD32VW55x_RELEASE_V1.0.2/MSDK/plf/GD32VW55x_standard_peripheral/Source\gd32vw55x_cau_tdes.c ****     cau_disable();
  89:C:/Users/stapi/OneDrive/Desktop/GD32VW553/V1_MQTT_OK/GD32VW55X_Wifi_BLE_SDK/GD32VW55x_RELEASE_V1.0.2/MSDK/plf/GD32VW55x_standard_peripheral/Source\gd32vw55x_cau_tdes.c **** 
  90:C:/Users/stapi/OneDrive/Desktop/GD32VW553/V1_MQTT_OK/GD32VW55X_Wifi_BLE_SDK/GD32VW55x_RELEASE_V1.0.2/MSDK/plf/GD32VW55x_standard_peripheral/Source\gd32vw55x_cau_tdes.c ****     return ret;
  91:C:/Users/stapi/OneDrive/Desktop/GD32VW553/V1_MQTT_OK/GD32VW55X_Wifi_BLE_SDK/GD32VW55x_RELEASE_V1.0.2/MSDK/plf/GD32VW55x_standard_peripheral/Source\gd32vw55x_cau_tdes.c **** }
  92:C:/Users/stapi/OneDrive/Desktop/GD32VW553/V1_MQTT_OK/GD32VW55X_Wifi_BLE_SDK/GD32VW55x_RELEASE_V1.0.2/MSDK/plf/GD32VW55x_standard_peripheral/Source\gd32vw55x_cau_tdes.c **** 
  93:C:/Users/stapi/OneDrive/Desktop/GD32VW553/V1_MQTT_OK/GD32VW55X_Wifi_BLE_SDK/GD32VW55x_RELEASE_V1.0.2/MSDK/plf/GD32VW55x_standard_peripheral/Source\gd32vw55x_cau_tdes.c **** /*!
  94:C:/Users/stapi/OneDrive/Desktop/GD32VW553/V1_MQTT_OK/GD32VW55X_Wifi_BLE_SDK/GD32VW55x_RELEASE_V1.0.2/MSDK/plf/GD32VW55x_standard_peripheral/Source\gd32vw55x_cau_tdes.c ****     \brief      encrypt and decrypt using TDES in CBC mode
  95:C:/Users/stapi/OneDrive/Desktop/GD32VW553/V1_MQTT_OK/GD32VW55X_Wifi_BLE_SDK/GD32VW55x_RELEASE_V1.0.2/MSDK/plf/GD32VW55x_standard_peripheral/Source\gd32vw55x_cau_tdes.c ****     \param[in]  cau_parameter: pointer to the input structure
  96:C:/Users/stapi/OneDrive/Desktop/GD32VW553/V1_MQTT_OK/GD32VW55X_Wifi_BLE_SDK/GD32VW55x_RELEASE_V1.0.2/MSDK/plf/GD32VW55x_standard_peripheral/Source\gd32vw55x_cau_tdes.c ****                   alg_dir: algorithm direction
  97:C:/Users/stapi/OneDrive/Desktop/GD32VW553/V1_MQTT_OK/GD32VW55X_Wifi_BLE_SDK/GD32VW55x_RELEASE_V1.0.2/MSDK/plf/GD32VW55x_standard_peripheral/Source\gd32vw55x_cau_tdes.c ****                     CAU_ENCRYPT, CAU_DECRYPT
  98:C:/Users/stapi/OneDrive/Desktop/GD32VW553/V1_MQTT_OK/GD32VW55X_Wifi_BLE_SDK/GD32VW55x_RELEASE_V1.0.2/MSDK/plf/GD32VW55x_standard_peripheral/Source\gd32vw55x_cau_tdes.c ****                   key: key, 24 bytes
  99:C:/Users/stapi/OneDrive/Desktop/GD32VW553/V1_MQTT_OK/GD32VW55X_Wifi_BLE_SDK/GD32VW55x_RELEASE_V1.0.2/MSDK/plf/GD32VW55x_standard_peripheral/Source\gd32vw55x_cau_tdes.c ****                   iv: initialization vector, 8 bytes
 100:C:/Users/stapi/OneDrive/Desktop/GD32VW553/V1_MQTT_OK/GD32VW55X_Wifi_BLE_SDK/GD32VW55x_RELEASE_V1.0.2/MSDK/plf/GD32VW55x_standard_peripheral/Source\gd32vw55x_cau_tdes.c ****                   input: input data
 101:C:/Users/stapi/OneDrive/Desktop/GD32VW553/V1_MQTT_OK/GD32VW55X_Wifi_BLE_SDK/GD32VW55x_RELEASE_V1.0.2/MSDK/plf/GD32VW55x_standard_peripheral/Source\gd32vw55x_cau_tdes.c ****                   in_length: input data length in bytes, must be a multiple of 8 bytes
 102:C:/Users/stapi/OneDrive/Desktop/GD32VW553/V1_MQTT_OK/GD32VW55X_Wifi_BLE_SDK/GD32VW55x_RELEASE_V1.0.2/MSDK/plf/GD32VW55x_standard_peripheral/Source\gd32vw55x_cau_tdes.c ****     \param[out] output: pointer to the output structure
 103:C:/Users/stapi/OneDrive/Desktop/GD32VW553/V1_MQTT_OK/GD32VW55X_Wifi_BLE_SDK/GD32VW55x_RELEASE_V1.0.2/MSDK/plf/GD32VW55x_standard_peripheral/Source\gd32vw55x_cau_tdes.c ****     \retval     ErrStatus: SUCCESS or ERROR
 104:C:/Users/stapi/OneDrive/Desktop/GD32VW553/V1_MQTT_OK/GD32VW55X_Wifi_BLE_SDK/GD32VW55x_RELEASE_V1.0.2/MSDK/plf/GD32VW55x_standard_peripheral/Source\gd32vw55x_cau_tdes.c **** */
 105:C:/Users/stapi/OneDrive/Desktop/GD32VW553/V1_MQTT_OK/GD32VW55X_Wifi_BLE_SDK/GD32VW55x_RELEASE_V1.0.2/MSDK/plf/GD32VW55x_standard_peripheral/Source\gd32vw55x_cau_tdes.c **** ErrStatus cau_tdes_cbc(cau_parameter_struct *cau_parameter, uint8_t *output)
 106:C:/Users/stapi/OneDrive/Desktop/GD32VW553/V1_MQTT_OK/GD32VW55X_Wifi_BLE_SDK/GD32VW55x_RELEASE_V1.0.2/MSDK/plf/GD32VW55x_standard_peripheral/Source\gd32vw55x_cau_tdes.c **** {
 107:C:/Users/stapi/OneDrive/Desktop/GD32VW553/V1_MQTT_OK/GD32VW55X_Wifi_BLE_SDK/GD32VW55x_RELEASE_V1.0.2/MSDK/plf/GD32VW55x_standard_peripheral/Source\gd32vw55x_cau_tdes.c ****     ErrStatus ret = ERROR;
 108:C:/Users/stapi/OneDrive/Desktop/GD32VW553/V1_MQTT_OK/GD32VW55X_Wifi_BLE_SDK/GD32VW55x_RELEASE_V1.0.2/MSDK/plf/GD32VW55x_standard_peripheral/Source\gd32vw55x_cau_tdes.c ****     cau_key_parameter_struct key_initpara;
 109:C:/Users/stapi/OneDrive/Desktop/GD32VW553/V1_MQTT_OK/GD32VW55X_Wifi_BLE_SDK/GD32VW55x_RELEASE_V1.0.2/MSDK/plf/GD32VW55x_standard_peripheral/Source\gd32vw55x_cau_tdes.c ****     cau_iv_parameter_struct iv_initpara;
 110:C:/Users/stapi/OneDrive/Desktop/GD32VW553/V1_MQTT_OK/GD32VW55X_Wifi_BLE_SDK/GD32VW55x_RELEASE_V1.0.2/MSDK/plf/GD32VW55x_standard_peripheral/Source\gd32vw55x_cau_tdes.c ****     uint32_t keyaddr    = (uint32_t)(cau_parameter->key);
 111:C:/Users/stapi/OneDrive/Desktop/GD32VW553/V1_MQTT_OK/GD32VW55X_Wifi_BLE_SDK/GD32VW55x_RELEASE_V1.0.2/MSDK/plf/GD32VW55x_standard_peripheral/Source\gd32vw55x_cau_tdes.c ****     uint32_t inputaddr  = (uint32_t)(cau_parameter->input);
 112:C:/Users/stapi/OneDrive/Desktop/GD32VW553/V1_MQTT_OK/GD32VW55X_Wifi_BLE_SDK/GD32VW55x_RELEASE_V1.0.2/MSDK/plf/GD32VW55x_standard_peripheral/Source\gd32vw55x_cau_tdes.c ****     uint32_t outputaddr = (uint32_t)output;
 113:C:/Users/stapi/OneDrive/Desktop/GD32VW553/V1_MQTT_OK/GD32VW55X_Wifi_BLE_SDK/GD32VW55x_RELEASE_V1.0.2/MSDK/plf/GD32VW55x_standard_peripheral/Source\gd32vw55x_cau_tdes.c ****     uint32_t ivaddr     = (uint32_t)(cau_parameter->iv);
 114:C:/Users/stapi/OneDrive/Desktop/GD32VW553/V1_MQTT_OK/GD32VW55X_Wifi_BLE_SDK/GD32VW55x_RELEASE_V1.0.2/MSDK/plf/GD32VW55x_standard_peripheral/Source\gd32vw55x_cau_tdes.c **** 
 115:C:/Users/stapi/OneDrive/Desktop/GD32VW553/V1_MQTT_OK/GD32VW55X_Wifi_BLE_SDK/GD32VW55x_RELEASE_V1.0.2/MSDK/plf/GD32VW55x_standard_peripheral/Source\gd32vw55x_cau_tdes.c ****     /* key structure initialization */
 116:C:/Users/stapi/OneDrive/Desktop/GD32VW553/V1_MQTT_OK/GD32VW55X_Wifi_BLE_SDK/GD32VW55x_RELEASE_V1.0.2/MSDK/plf/GD32VW55x_standard_peripheral/Source\gd32vw55x_cau_tdes.c ****     cau_key_struct_para_init(&key_initpara);
 117:C:/Users/stapi/OneDrive/Desktop/GD32VW553/V1_MQTT_OK/GD32VW55X_Wifi_BLE_SDK/GD32VW55x_RELEASE_V1.0.2/MSDK/plf/GD32VW55x_standard_peripheral/Source\gd32vw55x_cau_tdes.c ****     /* initialize the CAU peripheral */
 118:C:/Users/stapi/OneDrive/Desktop/GD32VW553/V1_MQTT_OK/GD32VW55X_Wifi_BLE_SDK/GD32VW55x_RELEASE_V1.0.2/MSDK/plf/GD32VW55x_standard_peripheral/Source\gd32vw55x_cau_tdes.c ****     cau_init(cau_parameter->alg_dir, CAU_MODE_TDES_CBC, CAU_SWAPPING_8BIT);
 119:C:/Users/stapi/OneDrive/Desktop/GD32VW553/V1_MQTT_OK/GD32VW55X_Wifi_BLE_SDK/GD32VW55x_RELEASE_V1.0.2/MSDK/plf/GD32VW55x_standard_peripheral/Source\gd32vw55x_cau_tdes.c **** 
 120:C:/Users/stapi/OneDrive/Desktop/GD32VW553/V1_MQTT_OK/GD32VW55X_Wifi_BLE_SDK/GD32VW55x_RELEASE_V1.0.2/MSDK/plf/GD32VW55x_standard_peripheral/Source\gd32vw55x_cau_tdes.c ****     /* key initialization */
 121:C:/Users/stapi/OneDrive/Desktop/GD32VW553/V1_MQTT_OK/GD32VW55X_Wifi_BLE_SDK/GD32VW55x_RELEASE_V1.0.2/MSDK/plf/GD32VW55x_standard_peripheral/Source\gd32vw55x_cau_tdes.c ****     key_initpara.key_1_high = __REV(*(uint32_t *)(keyaddr));
 122:C:/Users/stapi/OneDrive/Desktop/GD32VW553/V1_MQTT_OK/GD32VW55X_Wifi_BLE_SDK/GD32VW55x_RELEASE_V1.0.2/MSDK/plf/GD32VW55x_standard_peripheral/Source\gd32vw55x_cau_tdes.c ****     keyaddr += 4U;
 123:C:/Users/stapi/OneDrive/Desktop/GD32VW553/V1_MQTT_OK/GD32VW55X_Wifi_BLE_SDK/GD32VW55x_RELEASE_V1.0.2/MSDK/plf/GD32VW55x_standard_peripheral/Source\gd32vw55x_cau_tdes.c ****     key_initpara.key_1_low  = __REV(*(uint32_t *)(keyaddr));
 124:C:/Users/stapi/OneDrive/Desktop/GD32VW553/V1_MQTT_OK/GD32VW55X_Wifi_BLE_SDK/GD32VW55x_RELEASE_V1.0.2/MSDK/plf/GD32VW55x_standard_peripheral/Source\gd32vw55x_cau_tdes.c ****     keyaddr += 4U;
 125:C:/Users/stapi/OneDrive/Desktop/GD32VW553/V1_MQTT_OK/GD32VW55X_Wifi_BLE_SDK/GD32VW55x_RELEASE_V1.0.2/MSDK/plf/GD32VW55x_standard_peripheral/Source\gd32vw55x_cau_tdes.c ****     key_initpara.key_2_high = __REV(*(uint32_t *)(keyaddr));
 126:C:/Users/stapi/OneDrive/Desktop/GD32VW553/V1_MQTT_OK/GD32VW55X_Wifi_BLE_SDK/GD32VW55x_RELEASE_V1.0.2/MSDK/plf/GD32VW55x_standard_peripheral/Source\gd32vw55x_cau_tdes.c ****     keyaddr += 4U;
 127:C:/Users/stapi/OneDrive/Desktop/GD32VW553/V1_MQTT_OK/GD32VW55X_Wifi_BLE_SDK/GD32VW55x_RELEASE_V1.0.2/MSDK/plf/GD32VW55x_standard_peripheral/Source\gd32vw55x_cau_tdes.c ****     key_initpara.key_2_low  = __REV(*(uint32_t *)(keyaddr));
 128:C:/Users/stapi/OneDrive/Desktop/GD32VW553/V1_MQTT_OK/GD32VW55X_Wifi_BLE_SDK/GD32VW55x_RELEASE_V1.0.2/MSDK/plf/GD32VW55x_standard_peripheral/Source\gd32vw55x_cau_tdes.c ****     keyaddr += 4U;
 129:C:/Users/stapi/OneDrive/Desktop/GD32VW553/V1_MQTT_OK/GD32VW55X_Wifi_BLE_SDK/GD32VW55x_RELEASE_V1.0.2/MSDK/plf/GD32VW55x_standard_peripheral/Source\gd32vw55x_cau_tdes.c ****     key_initpara.key_3_high = __REV(*(uint32_t *)(keyaddr));
 130:C:/Users/stapi/OneDrive/Desktop/GD32VW553/V1_MQTT_OK/GD32VW55X_Wifi_BLE_SDK/GD32VW55x_RELEASE_V1.0.2/MSDK/plf/GD32VW55x_standard_peripheral/Source\gd32vw55x_cau_tdes.c ****     keyaddr += 4U;
 131:C:/Users/stapi/OneDrive/Desktop/GD32VW553/V1_MQTT_OK/GD32VW55X_Wifi_BLE_SDK/GD32VW55x_RELEASE_V1.0.2/MSDK/plf/GD32VW55x_standard_peripheral/Source\gd32vw55x_cau_tdes.c ****     key_initpara.key_3_low  = __REV(*(uint32_t *)(keyaddr));
 132:C:/Users/stapi/OneDrive/Desktop/GD32VW553/V1_MQTT_OK/GD32VW55X_Wifi_BLE_SDK/GD32VW55x_RELEASE_V1.0.2/MSDK/plf/GD32VW55x_standard_peripheral/Source\gd32vw55x_cau_tdes.c ****     cau_key_init(&key_initpara);
 133:C:/Users/stapi/OneDrive/Desktop/GD32VW553/V1_MQTT_OK/GD32VW55X_Wifi_BLE_SDK/GD32VW55x_RELEASE_V1.0.2/MSDK/plf/GD32VW55x_standard_peripheral/Source\gd32vw55x_cau_tdes.c **** 
 134:C:/Users/stapi/OneDrive/Desktop/GD32VW553/V1_MQTT_OK/GD32VW55X_Wifi_BLE_SDK/GD32VW55x_RELEASE_V1.0.2/MSDK/plf/GD32VW55x_standard_peripheral/Source\gd32vw55x_cau_tdes.c ****     /* vectors initialization */
 135:C:/Users/stapi/OneDrive/Desktop/GD32VW553/V1_MQTT_OK/GD32VW55X_Wifi_BLE_SDK/GD32VW55x_RELEASE_V1.0.2/MSDK/plf/GD32VW55x_standard_peripheral/Source\gd32vw55x_cau_tdes.c ****     iv_initpara.iv_0_high = __REV(*(uint32_t *)(ivaddr));
 136:C:/Users/stapi/OneDrive/Desktop/GD32VW553/V1_MQTT_OK/GD32VW55X_Wifi_BLE_SDK/GD32VW55x_RELEASE_V1.0.2/MSDK/plf/GD32VW55x_standard_peripheral/Source\gd32vw55x_cau_tdes.c ****     ivaddr += 4U;
 137:C:/Users/stapi/OneDrive/Desktop/GD32VW553/V1_MQTT_OK/GD32VW55X_Wifi_BLE_SDK/GD32VW55x_RELEASE_V1.0.2/MSDK/plf/GD32VW55x_standard_peripheral/Source\gd32vw55x_cau_tdes.c ****     iv_initpara.iv_0_low  = __REV(*(uint32_t *)(ivaddr));
 138:C:/Users/stapi/OneDrive/Desktop/GD32VW553/V1_MQTT_OK/GD32VW55X_Wifi_BLE_SDK/GD32VW55x_RELEASE_V1.0.2/MSDK/plf/GD32VW55x_standard_peripheral/Source\gd32vw55x_cau_tdes.c ****     cau_iv_init(&iv_initpara);
 139:C:/Users/stapi/OneDrive/Desktop/GD32VW553/V1_MQTT_OK/GD32VW55X_Wifi_BLE_SDK/GD32VW55x_RELEASE_V1.0.2/MSDK/plf/GD32VW55x_standard_peripheral/Source\gd32vw55x_cau_tdes.c **** 
 140:C:/Users/stapi/OneDrive/Desktop/GD32VW553/V1_MQTT_OK/GD32VW55X_Wifi_BLE_SDK/GD32VW55x_RELEASE_V1.0.2/MSDK/plf/GD32VW55x_standard_peripheral/Source\gd32vw55x_cau_tdes.c ****     /* flush the IN and OUT FIFOs */
 141:C:/Users/stapi/OneDrive/Desktop/GD32VW553/V1_MQTT_OK/GD32VW55X_Wifi_BLE_SDK/GD32VW55x_RELEASE_V1.0.2/MSDK/plf/GD32VW55x_standard_peripheral/Source\gd32vw55x_cau_tdes.c ****     cau_fifo_flush();
 142:C:/Users/stapi/OneDrive/Desktop/GD32VW553/V1_MQTT_OK/GD32VW55X_Wifi_BLE_SDK/GD32VW55x_RELEASE_V1.0.2/MSDK/plf/GD32VW55x_standard_peripheral/Source\gd32vw55x_cau_tdes.c ****     /* enable the CAU peripheral */
 143:C:/Users/stapi/OneDrive/Desktop/GD32VW553/V1_MQTT_OK/GD32VW55X_Wifi_BLE_SDK/GD32VW55x_RELEASE_V1.0.2/MSDK/plf/GD32VW55x_standard_peripheral/Source\gd32vw55x_cau_tdes.c ****     cau_enable();
 144:C:/Users/stapi/OneDrive/Desktop/GD32VW553/V1_MQTT_OK/GD32VW55X_Wifi_BLE_SDK/GD32VW55x_RELEASE_V1.0.2/MSDK/plf/GD32VW55x_standard_peripheral/Source\gd32vw55x_cau_tdes.c ****     /* TDES calculate process */
 145:C:/Users/stapi/OneDrive/Desktop/GD32VW553/V1_MQTT_OK/GD32VW55X_Wifi_BLE_SDK/GD32VW55x_RELEASE_V1.0.2/MSDK/plf/GD32VW55x_standard_peripheral/Source\gd32vw55x_cau_tdes.c ****     ret = cau_tdes_calculate((uint8_t *)inputaddr, cau_parameter->in_length, (uint8_t *)outputaddr)
 146:C:/Users/stapi/OneDrive/Desktop/GD32VW553/V1_MQTT_OK/GD32VW55X_Wifi_BLE_SDK/GD32VW55x_RELEASE_V1.0.2/MSDK/plf/GD32VW55x_standard_peripheral/Source\gd32vw55x_cau_tdes.c ****     /* disable the CAU peripheral */
 147:C:/Users/stapi/OneDrive/Desktop/GD32VW553/V1_MQTT_OK/GD32VW55X_Wifi_BLE_SDK/GD32VW55x_RELEASE_V1.0.2/MSDK/plf/GD32VW55x_standard_peripheral/Source\gd32vw55x_cau_tdes.c ****     cau_disable();
 148:C:/Users/stapi/OneDrive/Desktop/GD32VW553/V1_MQTT_OK/GD32VW55X_Wifi_BLE_SDK/GD32VW55x_RELEASE_V1.0.2/MSDK/plf/GD32VW55x_standard_peripheral/Source\gd32vw55x_cau_tdes.c **** 
 149:C:/Users/stapi/OneDrive/Desktop/GD32VW553/V1_MQTT_OK/GD32VW55X_Wifi_BLE_SDK/GD32VW55x_RELEASE_V1.0.2/MSDK/plf/GD32VW55x_standard_peripheral/Source\gd32vw55x_cau_tdes.c ****     return ret;
 150:C:/Users/stapi/OneDrive/Desktop/GD32VW553/V1_MQTT_OK/GD32VW55X_Wifi_BLE_SDK/GD32VW55x_RELEASE_V1.0.2/MSDK/plf/GD32VW55x_standard_peripheral/Source\gd32vw55x_cau_tdes.c **** }
 151:C:/Users/stapi/OneDrive/Desktop/GD32VW553/V1_MQTT_OK/GD32VW55X_Wifi_BLE_SDK/GD32VW55x_RELEASE_V1.0.2/MSDK/plf/GD32VW55x_standard_peripheral/Source\gd32vw55x_cau_tdes.c **** 
 152:C:/Users/stapi/OneDrive/Desktop/GD32VW553/V1_MQTT_OK/GD32VW55X_Wifi_BLE_SDK/GD32VW55x_RELEASE_V1.0.2/MSDK/plf/GD32VW55x_standard_peripheral/Source\gd32vw55x_cau_tdes.c **** /*!
 153:C:/Users/stapi/OneDrive/Desktop/GD32VW553/V1_MQTT_OK/GD32VW55X_Wifi_BLE_SDK/GD32VW55x_RELEASE_V1.0.2/MSDK/plf/GD32VW55x_standard_peripheral/Source\gd32vw55x_cau_tdes.c ****     \brief      TDES calculate process
 154:C:/Users/stapi/OneDrive/Desktop/GD32VW553/V1_MQTT_OK/GD32VW55X_Wifi_BLE_SDK/GD32VW55x_RELEASE_V1.0.2/MSDK/plf/GD32VW55x_standard_peripheral/Source\gd32vw55x_cau_tdes.c ****     \param[in]  input: pointer to the input buffer
 155:C:/Users/stapi/OneDrive/Desktop/GD32VW553/V1_MQTT_OK/GD32VW55X_Wifi_BLE_SDK/GD32VW55x_RELEASE_V1.0.2/MSDK/plf/GD32VW55x_standard_peripheral/Source\gd32vw55x_cau_tdes.c ****     \param[in]  in_length: length of the input buffer in bytes, must be a multiple of 8 bytes
 156:C:/Users/stapi/OneDrive/Desktop/GD32VW553/V1_MQTT_OK/GD32VW55X_Wifi_BLE_SDK/GD32VW55x_RELEASE_V1.0.2/MSDK/plf/GD32VW55x_standard_peripheral/Source\gd32vw55x_cau_tdes.c ****     \param[out] output: pointer to the returned buffer
 157:C:/Users/stapi/OneDrive/Desktop/GD32VW553/V1_MQTT_OK/GD32VW55X_Wifi_BLE_SDK/GD32VW55x_RELEASE_V1.0.2/MSDK/plf/GD32VW55x_standard_peripheral/Source\gd32vw55x_cau_tdes.c ****     \retval     ErrStatus: SUCCESS or ERROR
 158:C:/Users/stapi/OneDrive/Desktop/GD32VW553/V1_MQTT_OK/GD32VW55X_Wifi_BLE_SDK/GD32VW55x_RELEASE_V1.0.2/MSDK/plf/GD32VW55x_standard_peripheral/Source\gd32vw55x_cau_tdes.c **** */
 159:C:/Users/stapi/OneDrive/Desktop/GD32VW553/V1_MQTT_OK/GD32VW55X_Wifi_BLE_SDK/GD32VW55x_RELEASE_V1.0.2/MSDK/plf/GD32VW55x_standard_peripheral/Source\gd32vw55x_cau_tdes.c **** static ErrStatus cau_tdes_calculate(uint8_t *input, uint32_t in_length, uint8_t *output)
 160:C:/Users/stapi/OneDrive/Desktop/GD32VW553/V1_MQTT_OK/GD32VW55X_Wifi_BLE_SDK/GD32VW55x_RELEASE_V1.0.2/MSDK/plf/GD32VW55x_standard_peripheral/Source\gd32vw55x_cau_tdes.c **** {
  15              		.loc 1 160 1
  16              		.cfi_startproc
  17              	.LVL0:
  18 0000 17030000 		call	t0,__riscv_save_5
  18      E7020300 
  19              		.cfi_offset 20, -24
  20              		.cfi_offset 19, -20
  21              		.cfi_offset 18, -16
  22              		.cfi_offset 9, -12
  23              		.cfi_offset 8, -8
  24              		.cfi_offset 1, -4
  25              		.cfi_def_cfa_offset 32
  26 0008 4111     		addi	sp,sp,-16
  27              		.cfi_def_cfa_offset 48
  28              		.loc 1 160 1 is_stmt 0
  29 000a 2A89     		mv	s2,a0
  30 000c AE89     		mv	s3,a1
 161:C:/Users/stapi/OneDrive/Desktop/GD32VW553/V1_MQTT_OK/GD32VW55X_Wifi_BLE_SDK/GD32VW55x_RELEASE_V1.0.2/MSDK/plf/GD32VW55x_standard_peripheral/Source\gd32vw55x_cau_tdes.c ****     uint32_t inputaddr  = (uint32_t)input;
  31              		.loc 1 161 5 is_stmt 1
  32              	.LVL1:
 162:C:/Users/stapi/OneDrive/Desktop/GD32VW553/V1_MQTT_OK/GD32VW55X_Wifi_BLE_SDK/GD32VW55x_RELEASE_V1.0.2/MSDK/plf/GD32VW55x_standard_peripheral/Source\gd32vw55x_cau_tdes.c ****     uint32_t outputaddr = (uint32_t)output;
  33              		.loc 1 162 5
 163:C:/Users/stapi/OneDrive/Desktop/GD32VW553/V1_MQTT_OK/GD32VW55X_Wifi_BLE_SDK/GD32VW55x_RELEASE_V1.0.2/MSDK/plf/GD32VW55x_standard_peripheral/Source\gd32vw55x_cau_tdes.c ****     uint32_t i = 0U;
  34              		.loc 1 163 5
 164:C:/Users/stapi/OneDrive/Desktop/GD32VW553/V1_MQTT_OK/GD32VW55X_Wifi_BLE_SDK/GD32VW55x_RELEASE_V1.0.2/MSDK/plf/GD32VW55x_standard_peripheral/Source\gd32vw55x_cau_tdes.c ****     __IO uint32_t counter = 0U;
  35              		.loc 1 164 5
 160:C:/Users/stapi/OneDrive/Desktop/GD32VW553/V1_MQTT_OK/GD32VW55X_Wifi_BLE_SDK/GD32VW55x_RELEASE_V1.0.2/MSDK/plf/GD32VW55x_standard_peripheral/Source\gd32vw55x_cau_tdes.c ****     uint32_t inputaddr  = (uint32_t)input;
  36              		.loc 1 160 1 is_stmt 0
  37 000e 3284     		mv	s0,a2
  38              		.loc 1 164 19
  39 0010 02C6     		sw	zero,12(sp)
 165:C:/Users/stapi/OneDrive/Desktop/GD32VW553/V1_MQTT_OK/GD32VW55X_Wifi_BLE_SDK/GD32VW55x_RELEASE_V1.0.2/MSDK/plf/GD32VW55x_standard_peripheral/Source\gd32vw55x_cau_tdes.c ****     uint32_t busystatus = 0U;
  40              		.loc 1 165 5 is_stmt 1
  41              	.LVL2:
 166:C:/Users/stapi/OneDrive/Desktop/GD32VW553/V1_MQTT_OK/GD32VW55X_Wifi_BLE_SDK/GD32VW55x_RELEASE_V1.0.2/MSDK/plf/GD32VW55x_standard_peripheral/Source\gd32vw55x_cau_tdes.c **** 
 167:C:/Users/stapi/OneDrive/Desktop/GD32VW553/V1_MQTT_OK/GD32VW55X_Wifi_BLE_SDK/GD32VW55x_RELEASE_V1.0.2/MSDK/plf/GD32VW55x_standard_peripheral/Source\gd32vw55x_cau_tdes.c ****     /* the clock is not enabled or there is no embeded CAU peripheral */
 168:C:/Users/stapi/OneDrive/Desktop/GD32VW553/V1_MQTT_OK/GD32VW55X_Wifi_BLE_SDK/GD32VW55x_RELEASE_V1.0.2/MSDK/plf/GD32VW55x_standard_peripheral/Source\gd32vw55x_cau_tdes.c ****     if(DISABLE == cau_enable_state_get()) {
  42              		.loc 1 168 5
  43              		.loc 1 168 19 is_stmt 0
  44 0012 97000000 		call	cau_enable_state_get
  44      E7800000 
  45              	.LVL3:
  46              		.loc 1 168 7
  47 001a 19E5     		bne	a0,zero,.L2
  48              	.LVL4:
  49              	.L8:
 169:C:/Users/stapi/OneDrive/Desktop/GD32VW553/V1_MQTT_OK/GD32VW55X_Wifi_BLE_SDK/GD32VW55x_RELEASE_V1.0.2/MSDK/plf/GD32VW55x_standard_peripheral/Source\gd32vw55x_cau_tdes.c ****         return ERROR;
  50              		.loc 1 169 16
  51 001c 0145     		li	a0,0
  52              	.L1:
 170:C:/Users/stapi/OneDrive/Desktop/GD32VW553/V1_MQTT_OK/GD32VW55X_Wifi_BLE_SDK/GD32VW55x_RELEASE_V1.0.2/MSDK/plf/GD32VW55x_standard_peripheral/Source\gd32vw55x_cau_tdes.c ****     }
 171:C:/Users/stapi/OneDrive/Desktop/GD32VW553/V1_MQTT_OK/GD32VW55X_Wifi_BLE_SDK/GD32VW55x_RELEASE_V1.0.2/MSDK/plf/GD32VW55x_standard_peripheral/Source\gd32vw55x_cau_tdes.c **** 
 172:C:/Users/stapi/OneDrive/Desktop/GD32VW553/V1_MQTT_OK/GD32VW55X_Wifi_BLE_SDK/GD32VW55x_RELEASE_V1.0.2/MSDK/plf/GD32VW55x_standard_peripheral/Source\gd32vw55x_cau_tdes.c ****     for(i = 0U; i < in_length; i += 8U) {
 173:C:/Users/stapi/OneDrive/Desktop/GD32VW553/V1_MQTT_OK/GD32VW55X_Wifi_BLE_SDK/GD32VW55x_RELEASE_V1.0.2/MSDK/plf/GD32VW55x_standard_peripheral/Source\gd32vw55x_cau_tdes.c ****         /* write data to the IN FIFO */
 174:C:/Users/stapi/OneDrive/Desktop/GD32VW553/V1_MQTT_OK/GD32VW55X_Wifi_BLE_SDK/GD32VW55x_RELEASE_V1.0.2/MSDK/plf/GD32VW55x_standard_peripheral/Source\gd32vw55x_cau_tdes.c ****         cau_data_write(*(uint32_t *)(inputaddr));
 175:C:/Users/stapi/OneDrive/Desktop/GD32VW553/V1_MQTT_OK/GD32VW55X_Wifi_BLE_SDK/GD32VW55x_RELEASE_V1.0.2/MSDK/plf/GD32VW55x_standard_peripheral/Source\gd32vw55x_cau_tdes.c ****         inputaddr += 4U;
 176:C:/Users/stapi/OneDrive/Desktop/GD32VW553/V1_MQTT_OK/GD32VW55X_Wifi_BLE_SDK/GD32VW55x_RELEASE_V1.0.2/MSDK/plf/GD32VW55x_standard_peripheral/Source\gd32vw55x_cau_tdes.c ****         cau_data_write(*(uint32_t *)(inputaddr));
 177:C:/Users/stapi/OneDrive/Desktop/GD32VW553/V1_MQTT_OK/GD32VW55X_Wifi_BLE_SDK/GD32VW55x_RELEASE_V1.0.2/MSDK/plf/GD32VW55x_standard_peripheral/Source\gd32vw55x_cau_tdes.c ****         inputaddr += 4U;
 178:C:/Users/stapi/OneDrive/Desktop/GD32VW553/V1_MQTT_OK/GD32VW55X_Wifi_BLE_SDK/GD32VW55x_RELEASE_V1.0.2/MSDK/plf/GD32VW55x_standard_peripheral/Source\gd32vw55x_cau_tdes.c **** 
 179:C:/Users/stapi/OneDrive/Desktop/GD32VW553/V1_MQTT_OK/GD32VW55X_Wifi_BLE_SDK/GD32VW55x_RELEASE_V1.0.2/MSDK/plf/GD32VW55x_standard_peripheral/Source\gd32vw55x_cau_tdes.c ****         /* wait until the complete message has been processed */
 180:C:/Users/stapi/OneDrive/Desktop/GD32VW553/V1_MQTT_OK/GD32VW55X_Wifi_BLE_SDK/GD32VW55x_RELEASE_V1.0.2/MSDK/plf/GD32VW55x_standard_peripheral/Source\gd32vw55x_cau_tdes.c ****         counter = 0U;
 181:C:/Users/stapi/OneDrive/Desktop/GD32VW553/V1_MQTT_OK/GD32VW55X_Wifi_BLE_SDK/GD32VW55x_RELEASE_V1.0.2/MSDK/plf/GD32VW55x_standard_peripheral/Source\gd32vw55x_cau_tdes.c ****         do {
 182:C:/Users/stapi/OneDrive/Desktop/GD32VW553/V1_MQTT_OK/GD32VW55X_Wifi_BLE_SDK/GD32VW55x_RELEASE_V1.0.2/MSDK/plf/GD32VW55x_standard_peripheral/Source\gd32vw55x_cau_tdes.c ****             busystatus = cau_flag_get(CAU_FLAG_BUSY);
 183:C:/Users/stapi/OneDrive/Desktop/GD32VW553/V1_MQTT_OK/GD32VW55X_Wifi_BLE_SDK/GD32VW55x_RELEASE_V1.0.2/MSDK/plf/GD32VW55x_standard_peripheral/Source\gd32vw55x_cau_tdes.c ****             counter++;
 184:C:/Users/stapi/OneDrive/Desktop/GD32VW553/V1_MQTT_OK/GD32VW55X_Wifi_BLE_SDK/GD32VW55x_RELEASE_V1.0.2/MSDK/plf/GD32VW55x_standard_peripheral/Source\gd32vw55x_cau_tdes.c ****         } while((TDESBSY_TIMEOUT != counter) && (RESET != busystatus));
 185:C:/Users/stapi/OneDrive/Desktop/GD32VW553/V1_MQTT_OK/GD32VW55X_Wifi_BLE_SDK/GD32VW55x_RELEASE_V1.0.2/MSDK/plf/GD32VW55x_standard_peripheral/Source\gd32vw55x_cau_tdes.c **** 
 186:C:/Users/stapi/OneDrive/Desktop/GD32VW553/V1_MQTT_OK/GD32VW55X_Wifi_BLE_SDK/GD32VW55x_RELEASE_V1.0.2/MSDK/plf/GD32VW55x_standard_peripheral/Source\gd32vw55x_cau_tdes.c ****         if(RESET != busystatus) {
 187:C:/Users/stapi/OneDrive/Desktop/GD32VW553/V1_MQTT_OK/GD32VW55X_Wifi_BLE_SDK/GD32VW55x_RELEASE_V1.0.2/MSDK/plf/GD32VW55x_standard_peripheral/Source\gd32vw55x_cau_tdes.c ****             return ERROR;
 188:C:/Users/stapi/OneDrive/Desktop/GD32VW553/V1_MQTT_OK/GD32VW55X_Wifi_BLE_SDK/GD32VW55x_RELEASE_V1.0.2/MSDK/plf/GD32VW55x_standard_peripheral/Source\gd32vw55x_cau_tdes.c ****         } else {
 189:C:/Users/stapi/OneDrive/Desktop/GD32VW553/V1_MQTT_OK/GD32VW55X_Wifi_BLE_SDK/GD32VW55x_RELEASE_V1.0.2/MSDK/plf/GD32VW55x_standard_peripheral/Source\gd32vw55x_cau_tdes.c ****             /* read the output block from the output FIFO */
 190:C:/Users/stapi/OneDrive/Desktop/GD32VW553/V1_MQTT_OK/GD32VW55X_Wifi_BLE_SDK/GD32VW55x_RELEASE_V1.0.2/MSDK/plf/GD32VW55x_standard_peripheral/Source\gd32vw55x_cau_tdes.c ****             *(uint32_t *)(outputaddr) = cau_data_read();
 191:C:/Users/stapi/OneDrive/Desktop/GD32VW553/V1_MQTT_OK/GD32VW55X_Wifi_BLE_SDK/GD32VW55x_RELEASE_V1.0.2/MSDK/plf/GD32VW55x_standard_peripheral/Source\gd32vw55x_cau_tdes.c ****             outputaddr += 4U;
 192:C:/Users/stapi/OneDrive/Desktop/GD32VW553/V1_MQTT_OK/GD32VW55X_Wifi_BLE_SDK/GD32VW55x_RELEASE_V1.0.2/MSDK/plf/GD32VW55x_standard_peripheral/Source\gd32vw55x_cau_tdes.c ****             *(uint32_t *)(outputaddr) = cau_data_read();
 193:C:/Users/stapi/OneDrive/Desktop/GD32VW553/V1_MQTT_OK/GD32VW55X_Wifi_BLE_SDK/GD32VW55x_RELEASE_V1.0.2/MSDK/plf/GD32VW55x_standard_peripheral/Source\gd32vw55x_cau_tdes.c ****             outputaddr += 4U;
 194:C:/Users/stapi/OneDrive/Desktop/GD32VW553/V1_MQTT_OK/GD32VW55X_Wifi_BLE_SDK/GD32VW55x_RELEASE_V1.0.2/MSDK/plf/GD32VW55x_standard_peripheral/Source\gd32vw55x_cau_tdes.c ****         }
 195:C:/Users/stapi/OneDrive/Desktop/GD32VW553/V1_MQTT_OK/GD32VW55X_Wifi_BLE_SDK/GD32VW55x_RELEASE_V1.0.2/MSDK/plf/GD32VW55x_standard_peripheral/Source\gd32vw55x_cau_tdes.c ****     }
 196:C:/Users/stapi/OneDrive/Desktop/GD32VW553/V1_MQTT_OK/GD32VW55X_Wifi_BLE_SDK/GD32VW55x_RELEASE_V1.0.2/MSDK/plf/GD32VW55x_standard_peripheral/Source\gd32vw55x_cau_tdes.c **** 
 197:C:/Users/stapi/OneDrive/Desktop/GD32VW553/V1_MQTT_OK/GD32VW55X_Wifi_BLE_SDK/GD32VW55x_RELEASE_V1.0.2/MSDK/plf/GD32VW55x_standard_peripheral/Source\gd32vw55x_cau_tdes.c ****     return SUCCESS;
 198:C:/Users/stapi/OneDrive/Desktop/GD32VW553/V1_MQTT_OK/GD32VW55X_Wifi_BLE_SDK/GD32VW55x_RELEASE_V1.0.2/MSDK/plf/GD32VW55x_standard_peripheral/Source\gd32vw55x_cau_tdes.c **** }
  53              		.loc 1 198 1
  54 001e 4101     		addi	sp,sp,16
  55              		.cfi_remember_state
  56              		.cfi_def_cfa_offset 0
  57 0020 17030000 		tail	__riscv_restore_5
  57      67000300 
  58              		.cfi_restore 20
  59              		.cfi_restore 19
  60              		.cfi_restore 18
  61              		.cfi_restore 9
  62              		.cfi_restore 8
  63              		.cfi_restore 1
  64              		.cfi_def_cfa_offset -32
  65              	.LVL5:
  66              	.L2:
  67              		.cfi_restore_state
 161:C:/Users/stapi/OneDrive/Desktop/GD32VW553/V1_MQTT_OK/GD32VW55X_Wifi_BLE_SDK/GD32VW55x_RELEASE_V1.0.2/MSDK/plf/GD32VW55x_standard_peripheral/Source\gd32vw55x_cau_tdes.c ****     uint32_t outputaddr = (uint32_t)output;
  68              		.loc 1 161 14
  69 0028 CA84     		mv	s1,s2
 184:C:/Users/stapi/OneDrive/Desktop/GD32VW553/V1_MQTT_OK/GD32VW55X_Wifi_BLE_SDK/GD32VW55x_RELEASE_V1.0.2/MSDK/plf/GD32VW55x_standard_peripheral/Source\gd32vw55x_cau_tdes.c **** 
  70              		.loc 1 184 9
  71 002a 416A     		li	s4,65536
  72              	.LVL6:
  73              	.L4:
 172:C:/Users/stapi/OneDrive/Desktop/GD32VW553/V1_MQTT_OK/GD32VW55X_Wifi_BLE_SDK/GD32VW55x_RELEASE_V1.0.2/MSDK/plf/GD32VW55x_standard_peripheral/Source\gd32vw55x_cau_tdes.c ****         /* write data to the IN FIFO */
  74              		.loc 1 172 17 is_stmt 1 discriminator 1
 172:C:/Users/stapi/OneDrive/Desktop/GD32VW553/V1_MQTT_OK/GD32VW55X_Wifi_BLE_SDK/GD32VW55x_RELEASE_V1.0.2/MSDK/plf/GD32VW55x_standard_peripheral/Source\gd32vw55x_cau_tdes.c ****         /* write data to the IN FIFO */
  75              		.loc 1 172 5 is_stmt 0 discriminator 1
  76 002c B3872441 		sub	a5,s1,s2
  77 0030 63E43701 		bgtu	s3,a5,.L9
 197:C:/Users/stapi/OneDrive/Desktop/GD32VW553/V1_MQTT_OK/GD32VW55X_Wifi_BLE_SDK/GD32VW55x_RELEASE_V1.0.2/MSDK/plf/GD32VW55x_standard_peripheral/Source\gd32vw55x_cau_tdes.c **** }
  78              		.loc 1 197 12
  79 0034 0545     		li	a0,1
  80 0036 E5B7     		j	.L1
  81              	.L9:
 174:C:/Users/stapi/OneDrive/Desktop/GD32VW553/V1_MQTT_OK/GD32VW55X_Wifi_BLE_SDK/GD32VW55x_RELEASE_V1.0.2/MSDK/plf/GD32VW55x_standard_peripheral/Source\gd32vw55x_cau_tdes.c ****         inputaddr += 4U;
  82              		.loc 1 174 9 is_stmt 1
  83 0038 8840     		lw	a0,0(s1)
  84 003a 97000000 		call	cau_data_write
  84      E7800000 
  85              	.LVL7:
 175:C:/Users/stapi/OneDrive/Desktop/GD32VW553/V1_MQTT_OK/GD32VW55X_Wifi_BLE_SDK/GD32VW55x_RELEASE_V1.0.2/MSDK/plf/GD32VW55x_standard_peripheral/Source\gd32vw55x_cau_tdes.c ****         cau_data_write(*(uint32_t *)(inputaddr));
  86              		.loc 1 175 9
 176:C:/Users/stapi/OneDrive/Desktop/GD32VW553/V1_MQTT_OK/GD32VW55X_Wifi_BLE_SDK/GD32VW55x_RELEASE_V1.0.2/MSDK/plf/GD32VW55x_standard_peripheral/Source\gd32vw55x_cau_tdes.c ****         inputaddr += 4U;
  87              		.loc 1 176 9
  88 0042 C840     		lw	a0,4(s1)
 177:C:/Users/stapi/OneDrive/Desktop/GD32VW553/V1_MQTT_OK/GD32VW55X_Wifi_BLE_SDK/GD32VW55x_RELEASE_V1.0.2/MSDK/plf/GD32VW55x_standard_peripheral/Source\gd32vw55x_cau_tdes.c **** 
  89              		.loc 1 177 19 is_stmt 0
  90 0044 A104     		addi	s1,s1,8
  91              	.LVL8:
 176:C:/Users/stapi/OneDrive/Desktop/GD32VW553/V1_MQTT_OK/GD32VW55X_Wifi_BLE_SDK/GD32VW55x_RELEASE_V1.0.2/MSDK/plf/GD32VW55x_standard_peripheral/Source\gd32vw55x_cau_tdes.c ****         inputaddr += 4U;
  92              		.loc 1 176 9
  93 0046 97000000 		call	cau_data_write
  93      E7800000 
  94              	.LVL9:
 177:C:/Users/stapi/OneDrive/Desktop/GD32VW553/V1_MQTT_OK/GD32VW55X_Wifi_BLE_SDK/GD32VW55x_RELEASE_V1.0.2/MSDK/plf/GD32VW55x_standard_peripheral/Source\gd32vw55x_cau_tdes.c **** 
  95              		.loc 1 177 9 is_stmt 1
 180:C:/Users/stapi/OneDrive/Desktop/GD32VW553/V1_MQTT_OK/GD32VW55X_Wifi_BLE_SDK/GD32VW55x_RELEASE_V1.0.2/MSDK/plf/GD32VW55x_standard_peripheral/Source\gd32vw55x_cau_tdes.c ****         do {
  96              		.loc 1 180 9
 180:C:/Users/stapi/OneDrive/Desktop/GD32VW553/V1_MQTT_OK/GD32VW55X_Wifi_BLE_SDK/GD32VW55x_RELEASE_V1.0.2/MSDK/plf/GD32VW55x_standard_peripheral/Source\gd32vw55x_cau_tdes.c ****         do {
  97              		.loc 1 180 17 is_stmt 0
  98 004e 02C6     		sw	zero,12(sp)
  99              	.L6:
 181:C:/Users/stapi/OneDrive/Desktop/GD32VW553/V1_MQTT_OK/GD32VW55X_Wifi_BLE_SDK/GD32VW55x_RELEASE_V1.0.2/MSDK/plf/GD32VW55x_standard_peripheral/Source\gd32vw55x_cau_tdes.c ****             busystatus = cau_flag_get(CAU_FLAG_BUSY);
 100              		.loc 1 181 9 is_stmt 1 discriminator 2
 182:C:/Users/stapi/OneDrive/Desktop/GD32VW553/V1_MQTT_OK/GD32VW55X_Wifi_BLE_SDK/GD32VW55x_RELEASE_V1.0.2/MSDK/plf/GD32VW55x_standard_peripheral/Source\gd32vw55x_cau_tdes.c ****             counter++;
 101              		.loc 1 182 13 discriminator 2
 182:C:/Users/stapi/OneDrive/Desktop/GD32VW553/V1_MQTT_OK/GD32VW55X_Wifi_BLE_SDK/GD32VW55x_RELEASE_V1.0.2/MSDK/plf/GD32VW55x_standard_peripheral/Source\gd32vw55x_cau_tdes.c ****             counter++;
 102              		.loc 1 182 26 is_stmt 0 discriminator 2
 103 0050 4145     		li	a0,16
 104 0052 97000000 		call	cau_flag_get
 104      E7800000 
 105              	.LVL10:
 183:C:/Users/stapi/OneDrive/Desktop/GD32VW553/V1_MQTT_OK/GD32VW55X_Wifi_BLE_SDK/GD32VW55x_RELEASE_V1.0.2/MSDK/plf/GD32VW55x_standard_peripheral/Source\gd32vw55x_cau_tdes.c ****         } while((TDESBSY_TIMEOUT != counter) && (RESET != busystatus));
 106              		.loc 1 183 13 is_stmt 1 discriminator 2
 183:C:/Users/stapi/OneDrive/Desktop/GD32VW553/V1_MQTT_OK/GD32VW55X_Wifi_BLE_SDK/GD32VW55x_RELEASE_V1.0.2/MSDK/plf/GD32VW55x_standard_peripheral/Source\gd32vw55x_cau_tdes.c ****         } while((TDESBSY_TIMEOUT != counter) && (RESET != busystatus));
 107              		.loc 1 183 20 is_stmt 0 discriminator 2
 108 005a B247     		lw	a5,12(sp)
 109 005c 8507     		addi	a5,a5,1
 110 005e 3EC6     		sw	a5,12(sp)
 184:C:/Users/stapi/OneDrive/Desktop/GD32VW553/V1_MQTT_OK/GD32VW55X_Wifi_BLE_SDK/GD32VW55x_RELEASE_V1.0.2/MSDK/plf/GD32VW55x_standard_peripheral/Source\gd32vw55x_cau_tdes.c **** 
 111              		.loc 1 184 16 is_stmt 1 discriminator 2
 184:C:/Users/stapi/OneDrive/Desktop/GD32VW553/V1_MQTT_OK/GD32VW55X_Wifi_BLE_SDK/GD32VW55x_RELEASE_V1.0.2/MSDK/plf/GD32VW55x_standard_peripheral/Source\gd32vw55x_cau_tdes.c **** 
 112              		.loc 1 184 34 is_stmt 0 discriminator 2
 113 0060 B247     		lw	a5,12(sp)
 184:C:/Users/stapi/OneDrive/Desktop/GD32VW553/V1_MQTT_OK/GD32VW55X_Wifi_BLE_SDK/GD32VW55x_RELEASE_V1.0.2/MSDK/plf/GD32VW55x_standard_peripheral/Source\gd32vw55x_cau_tdes.c **** 
 114              		.loc 1 184 9 discriminator 2
 115 0062 638F4701 		beq	a5,s4,.L5
 184:C:/Users/stapi/OneDrive/Desktop/GD32VW553/V1_MQTT_OK/GD32VW55X_Wifi_BLE_SDK/GD32VW55x_RELEASE_V1.0.2/MSDK/plf/GD32VW55x_standard_peripheral/Source\gd32vw55x_cau_tdes.c **** 
 116              		.loc 1 184 46 discriminator 1
 117 0066 6DF5     		bne	a0,zero,.L6
 118              	.L7:
 190:C:/Users/stapi/OneDrive/Desktop/GD32VW553/V1_MQTT_OK/GD32VW55X_Wifi_BLE_SDK/GD32VW55x_RELEASE_V1.0.2/MSDK/plf/GD32VW55x_standard_peripheral/Source\gd32vw55x_cau_tdes.c ****             outputaddr += 4U;
 119              		.loc 1 190 13 is_stmt 1 discriminator 2
 190:C:/Users/stapi/OneDrive/Desktop/GD32VW553/V1_MQTT_OK/GD32VW55X_Wifi_BLE_SDK/GD32VW55x_RELEASE_V1.0.2/MSDK/plf/GD32VW55x_standard_peripheral/Source\gd32vw55x_cau_tdes.c ****             outputaddr += 4U;
 120              		.loc 1 190 41 is_stmt 0 discriminator 2
 121 0068 97000000 		call	cau_data_read
 121      E7800000 
 122              	.LVL11:
 190:C:/Users/stapi/OneDrive/Desktop/GD32VW553/V1_MQTT_OK/GD32VW55X_Wifi_BLE_SDK/GD32VW55x_RELEASE_V1.0.2/MSDK/plf/GD32VW55x_standard_peripheral/Source\gd32vw55x_cau_tdes.c ****             outputaddr += 4U;
 123              		.loc 1 190 39 discriminator 2
 124 0070 08C0     		sw	a0,0(s0)
 191:C:/Users/stapi/OneDrive/Desktop/GD32VW553/V1_MQTT_OK/GD32VW55X_Wifi_BLE_SDK/GD32VW55x_RELEASE_V1.0.2/MSDK/plf/GD32VW55x_standard_peripheral/Source\gd32vw55x_cau_tdes.c ****             *(uint32_t *)(outputaddr) = cau_data_read();
 125              		.loc 1 191 13 is_stmt 1 discriminator 2
 126              	.LVL12:
 192:C:/Users/stapi/OneDrive/Desktop/GD32VW553/V1_MQTT_OK/GD32VW55X_Wifi_BLE_SDK/GD32VW55x_RELEASE_V1.0.2/MSDK/plf/GD32VW55x_standard_peripheral/Source\gd32vw55x_cau_tdes.c ****             outputaddr += 4U;
 127              		.loc 1 192 13 discriminator 2
 192:C:/Users/stapi/OneDrive/Desktop/GD32VW553/V1_MQTT_OK/GD32VW55X_Wifi_BLE_SDK/GD32VW55x_RELEASE_V1.0.2/MSDK/plf/GD32VW55x_standard_peripheral/Source\gd32vw55x_cau_tdes.c ****             outputaddr += 4U;
 128              		.loc 1 192 41 is_stmt 0 discriminator 2
 129 0072 97000000 		call	cau_data_read
 129      E7800000 
 130              	.LVL13:
 192:C:/Users/stapi/OneDrive/Desktop/GD32VW553/V1_MQTT_OK/GD32VW55X_Wifi_BLE_SDK/GD32VW55x_RELEASE_V1.0.2/MSDK/plf/GD32VW55x_standard_peripheral/Source\gd32vw55x_cau_tdes.c ****             outputaddr += 4U;
 131              		.loc 1 192 39 discriminator 2
 132 007a 48C0     		sw	a0,4(s0)
 193:C:/Users/stapi/OneDrive/Desktop/GD32VW553/V1_MQTT_OK/GD32VW55X_Wifi_BLE_SDK/GD32VW55x_RELEASE_V1.0.2/MSDK/plf/GD32VW55x_standard_peripheral/Source\gd32vw55x_cau_tdes.c ****         }
 133              		.loc 1 193 13 is_stmt 1 discriminator 2
 193:C:/Users/stapi/OneDrive/Desktop/GD32VW553/V1_MQTT_OK/GD32VW55X_Wifi_BLE_SDK/GD32VW55x_RELEASE_V1.0.2/MSDK/plf/GD32VW55x_standard_peripheral/Source\gd32vw55x_cau_tdes.c ****         }
 134              		.loc 1 193 24 is_stmt 0 discriminator 2
 135 007c 2104     		addi	s0,s0,8
 136              	.LVL14:
 172:C:/Users/stapi/OneDrive/Desktop/GD32VW553/V1_MQTT_OK/GD32VW55X_Wifi_BLE_SDK/GD32VW55x_RELEASE_V1.0.2/MSDK/plf/GD32VW55x_standard_peripheral/Source\gd32vw55x_cau_tdes.c ****         /* write data to the IN FIFO */
 137              		.loc 1 172 32 is_stmt 1 discriminator 2
 138 007e 7DB7     		j	.L4
 139              	.LVL15:
 140              	.L5:
 186:C:/Users/stapi/OneDrive/Desktop/GD32VW553/V1_MQTT_OK/GD32VW55X_Wifi_BLE_SDK/GD32VW55x_RELEASE_V1.0.2/MSDK/plf/GD32VW55x_standard_peripheral/Source\gd32vw55x_cau_tdes.c ****             return ERROR;
 141              		.loc 1 186 9
 186:C:/Users/stapi/OneDrive/Desktop/GD32VW553/V1_MQTT_OK/GD32VW55X_Wifi_BLE_SDK/GD32VW55x_RELEASE_V1.0.2/MSDK/plf/GD32VW55x_standard_peripheral/Source\gd32vw55x_cau_tdes.c ****             return ERROR;
 142              		.loc 1 186 11 is_stmt 0
 143 0080 65D5     		beq	a0,zero,.L7
 144 0082 69BF     		j	.L8
 145              		.cfi_endproc
 146              	.LFE367:
 148              		.section	.text.cau_tdes_ecb,"ax",@progbits
 149              		.align	1
 150              		.globl	cau_tdes_ecb
 152              	cau_tdes_ecb:
 153              	.LFB365:
  54:C:/Users/stapi/OneDrive/Desktop/GD32VW553/V1_MQTT_OK/GD32VW55X_Wifi_BLE_SDK/GD32VW55x_RELEASE_V1.0.2/MSDK/plf/GD32VW55x_standard_peripheral/Source\gd32vw55x_cau_tdes.c ****     ErrStatus ret = ERROR;
 154              		.loc 1 54 1 is_stmt 1
 155              		.cfi_startproc
 156              	.LVL16:
 157 0000 17030000 		call	t0,__riscv_save_4
 157      E7020300 
 158              		.cfi_offset 19, -20
 159              		.cfi_offset 18, -16
 160              		.cfi_offset 9, -12
 161              		.cfi_offset 8, -8
 162              		.cfi_offset 1, -4
 163              		.cfi_def_cfa_offset 32
  55:C:/Users/stapi/OneDrive/Desktop/GD32VW553/V1_MQTT_OK/GD32VW55X_Wifi_BLE_SDK/GD32VW55x_RELEASE_V1.0.2/MSDK/plf/GD32VW55x_standard_peripheral/Source\gd32vw55x_cau_tdes.c ****     cau_key_parameter_struct key_initpara;
 164              		.loc 1 55 5
 165              	.LVL17:
  56:C:/Users/stapi/OneDrive/Desktop/GD32VW553/V1_MQTT_OK/GD32VW55X_Wifi_BLE_SDK/GD32VW55x_RELEASE_V1.0.2/MSDK/plf/GD32VW55x_standard_peripheral/Source\gd32vw55x_cau_tdes.c ****     uint32_t keyaddr    = (uint32_t)(cau_parameter->key);
 166              		.loc 1 56 5
  57:C:/Users/stapi/OneDrive/Desktop/GD32VW553/V1_MQTT_OK/GD32VW55X_Wifi_BLE_SDK/GD32VW55x_RELEASE_V1.0.2/MSDK/plf/GD32VW55x_standard_peripheral/Source\gd32vw55x_cau_tdes.c ****     uint32_t inputaddr  = (uint32_t)(cau_parameter->input);
 167              		.loc 1 57 5
  54:C:/Users/stapi/OneDrive/Desktop/GD32VW553/V1_MQTT_OK/GD32VW55X_Wifi_BLE_SDK/GD32VW55x_RELEASE_V1.0.2/MSDK/plf/GD32VW55x_standard_peripheral/Source\gd32vw55x_cau_tdes.c ****     ErrStatus ret = ERROR;
 168              		.loc 1 54 1 is_stmt 0
 169 0008 7971     		addi	sp,sp,-48
 170              		.cfi_def_cfa_offset 80
  57:C:/Users/stapi/OneDrive/Desktop/GD32VW553/V1_MQTT_OK/GD32VW55X_Wifi_BLE_SDK/GD32VW55x_RELEASE_V1.0.2/MSDK/plf/GD32VW55x_standard_peripheral/Source\gd32vw55x_cau_tdes.c ****     uint32_t inputaddr  = (uint32_t)(cau_parameter->input);
 171              		.loc 1 57 51
 172 000a 4441     		lw	s1,4(a0)
 173              	.LVL18:
  58:C:/Users/stapi/OneDrive/Desktop/GD32VW553/V1_MQTT_OK/GD32VW55X_Wifi_BLE_SDK/GD32VW55x_RELEASE_V1.0.2/MSDK/plf/GD32VW55x_standard_peripheral/Source\gd32vw55x_cau_tdes.c ****     uint32_t outputaddr = (uint32_t)output;
 174              		.loc 1 58 5 is_stmt 1
  54:C:/Users/stapi/OneDrive/Desktop/GD32VW553/V1_MQTT_OK/GD32VW55X_Wifi_BLE_SDK/GD32VW55x_RELEASE_V1.0.2/MSDK/plf/GD32VW55x_standard_peripheral/Source\gd32vw55x_cau_tdes.c ****     ErrStatus ret = ERROR;
 175              		.loc 1 54 1 is_stmt 0
 176 000c 2A84     		mv	s0,a0
  58:C:/Users/stapi/OneDrive/Desktop/GD32VW553/V1_MQTT_OK/GD32VW55X_Wifi_BLE_SDK/GD32VW55x_RELEASE_V1.0.2/MSDK/plf/GD32VW55x_standard_peripheral/Source\gd32vw55x_cau_tdes.c ****     uint32_t outputaddr = (uint32_t)output;
 177              		.loc 1 58 51
 178 000e 83294501 		lw	s3,20(a0)
 179              	.LVL19:
  59:C:/Users/stapi/OneDrive/Desktop/GD32VW553/V1_MQTT_OK/GD32VW55X_Wifi_BLE_SDK/GD32VW55x_RELEASE_V1.0.2/MSDK/plf/GD32VW55x_standard_peripheral/Source\gd32vw55x_cau_tdes.c **** 
 180              		.loc 1 59 5 is_stmt 1
  62:C:/Users/stapi/OneDrive/Desktop/GD32VW553/V1_MQTT_OK/GD32VW55X_Wifi_BLE_SDK/GD32VW55x_RELEASE_V1.0.2/MSDK/plf/GD32VW55x_standard_peripheral/Source\gd32vw55x_cau_tdes.c ****     /* initialize the CAU peripheral */
 181              		.loc 1 62 5 is_stmt 0
 182 0012 0808     		addi	a0,sp,16
 183              	.LVL20:
  54:C:/Users/stapi/OneDrive/Desktop/GD32VW553/V1_MQTT_OK/GD32VW55X_Wifi_BLE_SDK/GD32VW55x_RELEASE_V1.0.2/MSDK/plf/GD32VW55x_standard_peripheral/Source\gd32vw55x_cau_tdes.c ****     ErrStatus ret = ERROR;
 184              		.loc 1 54 1
 185 0014 2E89     		mv	s2,a1
 186              	.LVL21:
  62:C:/Users/stapi/OneDrive/Desktop/GD32VW553/V1_MQTT_OK/GD32VW55X_Wifi_BLE_SDK/GD32VW55x_RELEASE_V1.0.2/MSDK/plf/GD32VW55x_standard_peripheral/Source\gd32vw55x_cau_tdes.c ****     /* initialize the CAU peripheral */
 187              		.loc 1 62 5 is_stmt 1
 188 0016 97000000 		call	cau_key_struct_para_init
 188      E7800000 
 189              	.LVL22:
  64:C:/Users/stapi/OneDrive/Desktop/GD32VW553/V1_MQTT_OK/GD32VW55X_Wifi_BLE_SDK/GD32VW55x_RELEASE_V1.0.2/MSDK/plf/GD32VW55x_standard_peripheral/Source\gd32vw55x_cau_tdes.c **** 
 190              		.loc 1 64 5
 191 001e 0840     		lw	a0,0(s0)
 192 0020 13060008 		li	a2,128
 193 0024 8145     		li	a1,0
 194 0026 97000000 		call	cau_init
 194      E7800000 
 195              	.LVL23:
  67:C:/Users/stapi/OneDrive/Desktop/GD32VW553/V1_MQTT_OK/GD32VW55X_Wifi_BLE_SDK/GD32VW55x_RELEASE_V1.0.2/MSDK/plf/GD32VW55x_standard_peripheral/Source\gd32vw55x_cau_tdes.c ****     keyaddr += 4U;
 196              		.loc 1 67 5
 197 002e 9C40     		lw	a5,0(s1)
  78:C:/Users/stapi/OneDrive/Desktop/GD32VW553/V1_MQTT_OK/GD32VW55X_Wifi_BLE_SDK/GD32VW55x_RELEASE_V1.0.2/MSDK/plf/GD32VW55x_standard_peripheral/Source\gd32vw55x_cau_tdes.c **** 
 198              		.loc 1 78 5 is_stmt 0
 199 0030 0808     		addi	a0,sp,16
 200 0032 93D78769 		rev8	a5,a5
 201              	.LVL24:
 202              	.LBB30:
 203              	.LBB31:
 204              		.file 2 "..\\..\\..\\..\\plf\\riscv\\NMSIS\\Core\\Include/core_compatiable.h"
   1:..\..\..\..\plf\riscv\NMSIS\Core\Include/core_compatiable.h **** /*
   2:..\..\..\..\plf\riscv\NMSIS\Core\Include/core_compatiable.h ****  * Copyright (c) 2019 Nuclei Limited. All rights reserved.
   3:..\..\..\..\plf\riscv\NMSIS\Core\Include/core_compatiable.h ****  *
   4:..\..\..\..\plf\riscv\NMSIS\Core\Include/core_compatiable.h ****  * SPDX-License-Identifier: Apache-2.0
   5:..\..\..\..\plf\riscv\NMSIS\Core\Include/core_compatiable.h ****  *
   6:..\..\..\..\plf\riscv\NMSIS\Core\Include/core_compatiable.h ****  * Licensed under the Apache License, Version 2.0 (the License); you may
   7:..\..\..\..\plf\riscv\NMSIS\Core\Include/core_compatiable.h ****  * not use this file except in compliance with the License.
   8:..\..\..\..\plf\riscv\NMSIS\Core\Include/core_compatiable.h ****  * You may obtain a copy of the License at
   9:..\..\..\..\plf\riscv\NMSIS\Core\Include/core_compatiable.h ****  *
  10:..\..\..\..\plf\riscv\NMSIS\Core\Include/core_compatiable.h ****  * www.apache.org/licenses/LICENSE-2.0
  11:..\..\..\..\plf\riscv\NMSIS\Core\Include/core_compatiable.h ****  *
  12:..\..\..\..\plf\riscv\NMSIS\Core\Include/core_compatiable.h ****  * Unless required by applicable law or agreed to in writing, software
  13:..\..\..\..\plf\riscv\NMSIS\Core\Include/core_compatiable.h ****  * distributed under the License is distributed on an AS IS BASIS, WITHOUT
  14:..\..\..\..\plf\riscv\NMSIS\Core\Include/core_compatiable.h ****  * WARRANTIES OR CONDITIONS OF ANY KIND, either express or implied.
  15:..\..\..\..\plf\riscv\NMSIS\Core\Include/core_compatiable.h ****  * See the License for the specific language governing permissions and
  16:..\..\..\..\plf\riscv\NMSIS\Core\Include/core_compatiable.h ****  * limitations under the License.
  17:..\..\..\..\plf\riscv\NMSIS\Core\Include/core_compatiable.h ****  */
  18:..\..\..\..\plf\riscv\NMSIS\Core\Include/core_compatiable.h **** #ifndef __CORE_COMPATIABLE_H__
  19:..\..\..\..\plf\riscv\NMSIS\Core\Include/core_compatiable.h **** #define __CORE_COMPATIABLE_H__
  20:..\..\..\..\plf\riscv\NMSIS\Core\Include/core_compatiable.h **** /*!
  21:..\..\..\..\plf\riscv\NMSIS\Core\Include/core_compatiable.h ****  * @file     core_compatiable.h
  22:..\..\..\..\plf\riscv\NMSIS\Core\Include/core_compatiable.h ****  * @brief    ARM compatiable function definitions header file
  23:..\..\..\..\plf\riscv\NMSIS\Core\Include/core_compatiable.h ****  */
  24:..\..\..\..\plf\riscv\NMSIS\Core\Include/core_compatiable.h **** #ifdef __cplusplus
  25:..\..\..\..\plf\riscv\NMSIS\Core\Include/core_compatiable.h ****  extern "C" {
  26:..\..\..\..\plf\riscv\NMSIS\Core\Include/core_compatiable.h **** #endif
  27:..\..\..\..\plf\riscv\NMSIS\Core\Include/core_compatiable.h **** 
  28:..\..\..\..\plf\riscv\NMSIS\Core\Include/core_compatiable.h **** /* ===== ARM Compatiable Functions ===== */
  29:..\..\..\..\plf\riscv\NMSIS\Core\Include/core_compatiable.h **** /**
  30:..\..\..\..\plf\riscv\NMSIS\Core\Include/core_compatiable.h ****  * \defgroup NMSIS_Core_ARMCompatiable_Functions   ARM Compatiable Functions
  31:..\..\..\..\plf\riscv\NMSIS\Core\Include/core_compatiable.h ****  * \ingroup  NMSIS_Core
  32:..\..\..\..\plf\riscv\NMSIS\Core\Include/core_compatiable.h ****  * \brief    A few functions that compatiable with ARM CMSIS-Core.
  33:..\..\..\..\plf\riscv\NMSIS\Core\Include/core_compatiable.h ****  * \details
  34:..\..\..\..\plf\riscv\NMSIS\Core\Include/core_compatiable.h ****  *
  35:..\..\..\..\plf\riscv\NMSIS\Core\Include/core_compatiable.h ****  * Here we provided a few functions that compatiable with ARM CMSIS-Core,
  36:..\..\..\..\plf\riscv\NMSIS\Core\Include/core_compatiable.h ****  * mostly used in the DSP and NN library.
  37:..\..\..\..\plf\riscv\NMSIS\Core\Include/core_compatiable.h ****  * @{
  38:..\..\..\..\plf\riscv\NMSIS\Core\Include/core_compatiable.h ****  */
  39:..\..\..\..\plf\riscv\NMSIS\Core\Include/core_compatiable.h **** /** \brief Instruction Synchronization Barrier, compatiable with ARM */
  40:..\..\..\..\plf\riscv\NMSIS\Core\Include/core_compatiable.h **** #define __ISB()                             __RWMB()
  41:..\..\..\..\plf\riscv\NMSIS\Core\Include/core_compatiable.h **** 
  42:..\..\..\..\plf\riscv\NMSIS\Core\Include/core_compatiable.h **** /** \brief Data Synchronization Barrier, compatiable with ARM */
  43:..\..\..\..\plf\riscv\NMSIS\Core\Include/core_compatiable.h **** #define __DSB()                             __RWMB()
  44:..\..\..\..\plf\riscv\NMSIS\Core\Include/core_compatiable.h **** 
  45:..\..\..\..\plf\riscv\NMSIS\Core\Include/core_compatiable.h **** /** \brief Data Memory Barrier, compatiable with ARM */
  46:..\..\..\..\plf\riscv\NMSIS\Core\Include/core_compatiable.h **** #define __DMB()                             __RWMB()
  47:..\..\..\..\plf\riscv\NMSIS\Core\Include/core_compatiable.h **** 
  48:..\..\..\..\plf\riscv\NMSIS\Core\Include/core_compatiable.h **** /** \brief LDRT Unprivileged (8 bit), ARM Compatiable */
  49:..\..\..\..\plf\riscv\NMSIS\Core\Include/core_compatiable.h **** #define __LDRBT(ptr)                        __LB((ptr))
  50:..\..\..\..\plf\riscv\NMSIS\Core\Include/core_compatiable.h **** /** \brief LDRT Unprivileged (16 bit), ARM Compatiable */
  51:..\..\..\..\plf\riscv\NMSIS\Core\Include/core_compatiable.h **** #define __LDRHT(ptr)                        __LH((ptr))
  52:..\..\..\..\plf\riscv\NMSIS\Core\Include/core_compatiable.h **** /** \brief LDRT Unprivileged (32 bit), ARM Compatiable */
  53:..\..\..\..\plf\riscv\NMSIS\Core\Include/core_compatiable.h **** #define __LDRT(ptr)                         __LW((ptr))
  54:..\..\..\..\plf\riscv\NMSIS\Core\Include/core_compatiable.h **** 
  55:..\..\..\..\plf\riscv\NMSIS\Core\Include/core_compatiable.h **** /** \brief STRT Unprivileged (8 bit), ARM Compatiable */
  56:..\..\..\..\plf\riscv\NMSIS\Core\Include/core_compatiable.h **** #define __STRBT(val, ptr)                   __SB((ptr), (val))
  57:..\..\..\..\plf\riscv\NMSIS\Core\Include/core_compatiable.h **** /** \brief STRT Unprivileged (16 bit), ARM Compatiable */
  58:..\..\..\..\plf\riscv\NMSIS\Core\Include/core_compatiable.h **** #define __STRHT(val, ptr)                   __SH((ptr), (val))
  59:..\..\..\..\plf\riscv\NMSIS\Core\Include/core_compatiable.h **** /** \brief STRT Unprivileged (32 bit), ARM Compatiable */
  60:..\..\..\..\plf\riscv\NMSIS\Core\Include/core_compatiable.h **** #define __STRT(val, ptr)                    __SW((ptr), (val))
  61:..\..\..\..\plf\riscv\NMSIS\Core\Include/core_compatiable.h **** 
  62:..\..\..\..\plf\riscv\NMSIS\Core\Include/core_compatiable.h **** /* ===== Saturation Operations ===== */
  63:..\..\..\..\plf\riscv\NMSIS\Core\Include/core_compatiable.h **** /**
  64:..\..\..\..\plf\riscv\NMSIS\Core\Include/core_compatiable.h ****  * \brief   Signed Saturate
  65:..\..\..\..\plf\riscv\NMSIS\Core\Include/core_compatiable.h ****  * \details Saturates a signed value.
  66:..\..\..\..\plf\riscv\NMSIS\Core\Include/core_compatiable.h ****  * \param [in]  value  Value to be saturated
  67:..\..\..\..\plf\riscv\NMSIS\Core\Include/core_compatiable.h ****  * \param [in]    sat  Bit position to saturate to (1..32)
  68:..\..\..\..\plf\riscv\NMSIS\Core\Include/core_compatiable.h ****  * \return             Saturated value
  69:..\..\..\..\plf\riscv\NMSIS\Core\Include/core_compatiable.h ****  */
  70:..\..\..\..\plf\riscv\NMSIS\Core\Include/core_compatiable.h **** #if defined(__DSP_PRESENT) && (__DSP_PRESENT == 1)
  71:..\..\..\..\plf\riscv\NMSIS\Core\Include/core_compatiable.h **** #define __SSAT(val, sat)          __RV_SCLIP32((val), (sat-1))
  72:..\..\..\..\plf\riscv\NMSIS\Core\Include/core_compatiable.h **** #else
  73:..\..\..\..\plf\riscv\NMSIS\Core\Include/core_compatiable.h **** __STATIC_FORCEINLINE int32_t __SSAT(int32_t val, uint32_t sat)
  74:..\..\..\..\plf\riscv\NMSIS\Core\Include/core_compatiable.h **** {
  75:..\..\..\..\plf\riscv\NMSIS\Core\Include/core_compatiable.h ****     if ((sat >= 1U) && (sat <= 32U)) {
  76:..\..\..\..\plf\riscv\NMSIS\Core\Include/core_compatiable.h ****         const int32_t max = (int32_t)((1U << (sat - 1U)) - 1U);
  77:..\..\..\..\plf\riscv\NMSIS\Core\Include/core_compatiable.h ****         const int32_t min = -1 - max ;
  78:..\..\..\..\plf\riscv\NMSIS\Core\Include/core_compatiable.h ****         if (val > max) {
  79:..\..\..\..\plf\riscv\NMSIS\Core\Include/core_compatiable.h ****             return max;
  80:..\..\..\..\plf\riscv\NMSIS\Core\Include/core_compatiable.h ****         } else if (val < min) {
  81:..\..\..\..\plf\riscv\NMSIS\Core\Include/core_compatiable.h ****             return min;
  82:..\..\..\..\plf\riscv\NMSIS\Core\Include/core_compatiable.h ****         }
  83:..\..\..\..\plf\riscv\NMSIS\Core\Include/core_compatiable.h ****     }
  84:..\..\..\..\plf\riscv\NMSIS\Core\Include/core_compatiable.h ****     return val;
  85:..\..\..\..\plf\riscv\NMSIS\Core\Include/core_compatiable.h **** }
  86:..\..\..\..\plf\riscv\NMSIS\Core\Include/core_compatiable.h **** #endif
  87:..\..\..\..\plf\riscv\NMSIS\Core\Include/core_compatiable.h **** 
  88:..\..\..\..\plf\riscv\NMSIS\Core\Include/core_compatiable.h **** /**
  89:..\..\..\..\plf\riscv\NMSIS\Core\Include/core_compatiable.h ****  * \brief   Unsigned Saturate
  90:..\..\..\..\plf\riscv\NMSIS\Core\Include/core_compatiable.h ****  * \details Saturates an unsigned value.
  91:..\..\..\..\plf\riscv\NMSIS\Core\Include/core_compatiable.h ****  * \param [in]  value  Value to be saturated
  92:..\..\..\..\plf\riscv\NMSIS\Core\Include/core_compatiable.h ****  * \param [in]    sat  Bit position to saturate to (0..31)
  93:..\..\..\..\plf\riscv\NMSIS\Core\Include/core_compatiable.h ****  * \return             Saturated value
  94:..\..\..\..\plf\riscv\NMSIS\Core\Include/core_compatiable.h ****  */
  95:..\..\..\..\plf\riscv\NMSIS\Core\Include/core_compatiable.h **** #if defined(__DSP_PRESENT) && (__DSP_PRESENT == 1)
  96:..\..\..\..\plf\riscv\NMSIS\Core\Include/core_compatiable.h **** #define __USAT(val, sat)        __RV_UCLIP32((val), (sat))
  97:..\..\..\..\plf\riscv\NMSIS\Core\Include/core_compatiable.h **** #else
  98:..\..\..\..\plf\riscv\NMSIS\Core\Include/core_compatiable.h **** __STATIC_FORCEINLINE uint32_t __USAT(int32_t val, uint32_t sat)
  99:..\..\..\..\plf\riscv\NMSIS\Core\Include/core_compatiable.h **** {
 100:..\..\..\..\plf\riscv\NMSIS\Core\Include/core_compatiable.h ****     if (sat <= 31U) {
 101:..\..\..\..\plf\riscv\NMSIS\Core\Include/core_compatiable.h ****         const uint32_t max = ((1U << sat) - 1U);
 102:..\..\..\..\plf\riscv\NMSIS\Core\Include/core_compatiable.h ****         if (val > (int32_t)max) {
 103:..\..\..\..\plf\riscv\NMSIS\Core\Include/core_compatiable.h ****             return max;
 104:..\..\..\..\plf\riscv\NMSIS\Core\Include/core_compatiable.h ****         } else if (val < 0) {
 105:..\..\..\..\plf\riscv\NMSIS\Core\Include/core_compatiable.h ****             return 0U;
 106:..\..\..\..\plf\riscv\NMSIS\Core\Include/core_compatiable.h ****         }
 107:..\..\..\..\plf\riscv\NMSIS\Core\Include/core_compatiable.h ****     }
 108:..\..\..\..\plf\riscv\NMSIS\Core\Include/core_compatiable.h ****     return (uint32_t)val;
 109:..\..\..\..\plf\riscv\NMSIS\Core\Include/core_compatiable.h **** }
 110:..\..\..\..\plf\riscv\NMSIS\Core\Include/core_compatiable.h **** #endif
 111:..\..\..\..\plf\riscv\NMSIS\Core\Include/core_compatiable.h **** 
 112:..\..\..\..\plf\riscv\NMSIS\Core\Include/core_compatiable.h **** /* ===== Data Processing Operations ===== */
 113:..\..\..\..\plf\riscv\NMSIS\Core\Include/core_compatiable.h **** /**
 114:..\..\..\..\plf\riscv\NMSIS\Core\Include/core_compatiable.h ****  * \brief   Reverse byte order (32 bit)
 115:..\..\..\..\plf\riscv\NMSIS\Core\Include/core_compatiable.h ****  * \details Reverses the byte order in unsigned integer value.
 116:..\..\..\..\plf\riscv\NMSIS\Core\Include/core_compatiable.h ****  * For example, 0x12345678 becomes 0x78563412.
 117:..\..\..\..\plf\riscv\NMSIS\Core\Include/core_compatiable.h ****  * \param [in]    value  Value to reverse
 118:..\..\..\..\plf\riscv\NMSIS\Core\Include/core_compatiable.h ****  * \return               Reversed value
 119:..\..\..\..\plf\riscv\NMSIS\Core\Include/core_compatiable.h ****  */
 120:..\..\..\..\plf\riscv\NMSIS\Core\Include/core_compatiable.h **** __STATIC_FORCEINLINE uint32_t __REV(uint32_t value)
 121:..\..\..\..\plf\riscv\NMSIS\Core\Include/core_compatiable.h **** {
 122:..\..\..\..\plf\riscv\NMSIS\Core\Include/core_compatiable.h ****     uint32_t result;
 205              		.loc 2 122 5 is_stmt 1
 123:..\..\..\..\plf\riscv\NMSIS\Core\Include/core_compatiable.h **** 
 124:..\..\..\..\plf\riscv\NMSIS\Core\Include/core_compatiable.h ****     result =  ((value & 0xff000000) >> 24)
 206              		.loc 2 124 5
 125:..\..\..\..\plf\riscv\NMSIS\Core\Include/core_compatiable.h ****         | ((value & 0x00ff0000) >> 8 )
 126:..\..\..\..\plf\riscv\NMSIS\Core\Include/core_compatiable.h ****         | ((value & 0x0000ff00) << 8 )
 127:..\..\..\..\plf\riscv\NMSIS\Core\Include/core_compatiable.h ****         | ((value & 0x000000ff) << 24);
 128:..\..\..\..\plf\riscv\NMSIS\Core\Include/core_compatiable.h ****     return result;
 207              		.loc 2 128 5
 208              	.LBE31:
 209              	.LBE30:
  67:C:/Users/stapi/OneDrive/Desktop/GD32VW553/V1_MQTT_OK/GD32VW55X_Wifi_BLE_SDK/GD32VW55x_RELEASE_V1.0.2/MSDK/plf/GD32VW55x_standard_peripheral/Source\gd32vw55x_cau_tdes.c ****     keyaddr += 4U;
 210              		.loc 1 67 29 is_stmt 0
 211 0036 3ECC     		sw	a5,24(sp)
  68:C:/Users/stapi/OneDrive/Desktop/GD32VW553/V1_MQTT_OK/GD32VW55X_Wifi_BLE_SDK/GD32VW55x_RELEASE_V1.0.2/MSDK/plf/GD32VW55x_standard_peripheral/Source\gd32vw55x_cau_tdes.c ****     key_initpara.key_1_low  = __REV(*(uint32_t *)(keyaddr));
 212              		.loc 1 68 5 is_stmt 1
 213              	.LVL25:
  69:C:/Users/stapi/OneDrive/Desktop/GD32VW553/V1_MQTT_OK/GD32VW55X_Wifi_BLE_SDK/GD32VW55x_RELEASE_V1.0.2/MSDK/plf/GD32VW55x_standard_peripheral/Source\gd32vw55x_cau_tdes.c ****     keyaddr += 4U;
 214              		.loc 1 69 5
 215 0038 DC40     		lw	a5,4(s1)
 216 003a 93D78769 		rev8	a5,a5
 217              	.LVL26:
 218              	.LBB32:
 219              	.LBB33:
 122:..\..\..\..\plf\riscv\NMSIS\Core\Include/core_compatiable.h **** 
 220              		.loc 2 122 5
 124:..\..\..\..\plf\riscv\NMSIS\Core\Include/core_compatiable.h ****         | ((value & 0x00ff0000) >> 8 )
 221              		.loc 2 124 5
 222              		.loc 2 128 5
 223              	.LBE33:
 224              	.LBE32:
  69:C:/Users/stapi/OneDrive/Desktop/GD32VW553/V1_MQTT_OK/GD32VW55X_Wifi_BLE_SDK/GD32VW55x_RELEASE_V1.0.2/MSDK/plf/GD32VW55x_standard_peripheral/Source\gd32vw55x_cau_tdes.c ****     keyaddr += 4U;
 225              		.loc 1 69 29 is_stmt 0
 226 003e 3ECE     		sw	a5,28(sp)
  70:C:/Users/stapi/OneDrive/Desktop/GD32VW553/V1_MQTT_OK/GD32VW55X_Wifi_BLE_SDK/GD32VW55x_RELEASE_V1.0.2/MSDK/plf/GD32VW55x_standard_peripheral/Source\gd32vw55x_cau_tdes.c ****     key_initpara.key_2_high = __REV(*(uint32_t *)(keyaddr));
 227              		.loc 1 70 5 is_stmt 1
 228              	.LVL27:
  71:C:/Users/stapi/OneDrive/Desktop/GD32VW553/V1_MQTT_OK/GD32VW55X_Wifi_BLE_SDK/GD32VW55x_RELEASE_V1.0.2/MSDK/plf/GD32VW55x_standard_peripheral/Source\gd32vw55x_cau_tdes.c ****     keyaddr += 4U;
 229              		.loc 1 71 5
 230 0040 9C44     		lw	a5,8(s1)
 231 0042 93D78769 		rev8	a5,a5
 232              	.LVL28:
 233              	.LBB34:
 234              	.LBB35:
 122:..\..\..\..\plf\riscv\NMSIS\Core\Include/core_compatiable.h **** 
 235              		.loc 2 122 5
 124:..\..\..\..\plf\riscv\NMSIS\Core\Include/core_compatiable.h ****         | ((value & 0x00ff0000) >> 8 )
 236              		.loc 2 124 5
 237              		.loc 2 128 5
 238              	.LBE35:
 239              	.LBE34:
  71:C:/Users/stapi/OneDrive/Desktop/GD32VW553/V1_MQTT_OK/GD32VW55X_Wifi_BLE_SDK/GD32VW55x_RELEASE_V1.0.2/MSDK/plf/GD32VW55x_standard_peripheral/Source\gd32vw55x_cau_tdes.c ****     keyaddr += 4U;
 240              		.loc 1 71 29 is_stmt 0
 241 0046 3ED0     		sw	a5,32(sp)
  72:C:/Users/stapi/OneDrive/Desktop/GD32VW553/V1_MQTT_OK/GD32VW55X_Wifi_BLE_SDK/GD32VW55x_RELEASE_V1.0.2/MSDK/plf/GD32VW55x_standard_peripheral/Source\gd32vw55x_cau_tdes.c ****     key_initpara.key_2_low  = __REV(*(uint32_t *)(keyaddr));
 242              		.loc 1 72 5 is_stmt 1
 243              	.LVL29:
  73:C:/Users/stapi/OneDrive/Desktop/GD32VW553/V1_MQTT_OK/GD32VW55X_Wifi_BLE_SDK/GD32VW55x_RELEASE_V1.0.2/MSDK/plf/GD32VW55x_standard_peripheral/Source\gd32vw55x_cau_tdes.c ****     keyaddr += 4U;
 244              		.loc 1 73 5
 245 0048 DC44     		lw	a5,12(s1)
 246 004a 93D78769 		rev8	a5,a5
 247              	.LVL30:
 248              	.LBB36:
 249              	.LBB37:
 122:..\..\..\..\plf\riscv\NMSIS\Core\Include/core_compatiable.h **** 
 250              		.loc 2 122 5
 124:..\..\..\..\plf\riscv\NMSIS\Core\Include/core_compatiable.h ****         | ((value & 0x00ff0000) >> 8 )
 251              		.loc 2 124 5
 252              		.loc 2 128 5
 253              	.LBE37:
 254              	.LBE36:
  73:C:/Users/stapi/OneDrive/Desktop/GD32VW553/V1_MQTT_OK/GD32VW55X_Wifi_BLE_SDK/GD32VW55x_RELEASE_V1.0.2/MSDK/plf/GD32VW55x_standard_peripheral/Source\gd32vw55x_cau_tdes.c ****     keyaddr += 4U;
 255              		.loc 1 73 29 is_stmt 0
 256 004e 3ED2     		sw	a5,36(sp)
  74:C:/Users/stapi/OneDrive/Desktop/GD32VW553/V1_MQTT_OK/GD32VW55X_Wifi_BLE_SDK/GD32VW55x_RELEASE_V1.0.2/MSDK/plf/GD32VW55x_standard_peripheral/Source\gd32vw55x_cau_tdes.c ****     key_initpara.key_3_high = __REV(*(uint32_t *)(keyaddr));
 257              		.loc 1 74 5 is_stmt 1
 258              	.LVL31:
  75:C:/Users/stapi/OneDrive/Desktop/GD32VW553/V1_MQTT_OK/GD32VW55X_Wifi_BLE_SDK/GD32VW55x_RELEASE_V1.0.2/MSDK/plf/GD32VW55x_standard_peripheral/Source\gd32vw55x_cau_tdes.c ****     keyaddr += 4U;
 259              		.loc 1 75 5
 260 0050 9C48     		lw	a5,16(s1)
 261 0052 93D78769 		rev8	a5,a5
 262              	.LVL32:
 263              	.LBB38:
 264              	.LBB39:
 122:..\..\..\..\plf\riscv\NMSIS\Core\Include/core_compatiable.h **** 
 265              		.loc 2 122 5
 124:..\..\..\..\plf\riscv\NMSIS\Core\Include/core_compatiable.h ****         | ((value & 0x00ff0000) >> 8 )
 266              		.loc 2 124 5
 267              		.loc 2 128 5
 268              	.LBE39:
 269              	.LBE38:
  75:C:/Users/stapi/OneDrive/Desktop/GD32VW553/V1_MQTT_OK/GD32VW55X_Wifi_BLE_SDK/GD32VW55x_RELEASE_V1.0.2/MSDK/plf/GD32VW55x_standard_peripheral/Source\gd32vw55x_cau_tdes.c ****     keyaddr += 4U;
 270              		.loc 1 75 29 is_stmt 0
 271 0056 3ED4     		sw	a5,40(sp)
  76:C:/Users/stapi/OneDrive/Desktop/GD32VW553/V1_MQTT_OK/GD32VW55X_Wifi_BLE_SDK/GD32VW55x_RELEASE_V1.0.2/MSDK/plf/GD32VW55x_standard_peripheral/Source\gd32vw55x_cau_tdes.c ****     key_initpara.key_3_low  = __REV(*(uint32_t *)(keyaddr));
 272              		.loc 1 76 5 is_stmt 1
 273              	.LVL33:
  77:C:/Users/stapi/OneDrive/Desktop/GD32VW553/V1_MQTT_OK/GD32VW55X_Wifi_BLE_SDK/GD32VW55x_RELEASE_V1.0.2/MSDK/plf/GD32VW55x_standard_peripheral/Source\gd32vw55x_cau_tdes.c ****     cau_key_init(&key_initpara);
 274              		.loc 1 77 5
 275 0058 DC48     		lw	a5,20(s1)
 276 005a 93D78769 		rev8	a5,a5
 277              	.LVL34:
 278              	.LBB40:
 279              	.LBB41:
 122:..\..\..\..\plf\riscv\NMSIS\Core\Include/core_compatiable.h **** 
 280              		.loc 2 122 5
 124:..\..\..\..\plf\riscv\NMSIS\Core\Include/core_compatiable.h ****         | ((value & 0x00ff0000) >> 8 )
 281              		.loc 2 124 5
 282              		.loc 2 128 5
 283              	.LBE41:
 284              	.LBE40:
  77:C:/Users/stapi/OneDrive/Desktop/GD32VW553/V1_MQTT_OK/GD32VW55X_Wifi_BLE_SDK/GD32VW55x_RELEASE_V1.0.2/MSDK/plf/GD32VW55x_standard_peripheral/Source\gd32vw55x_cau_tdes.c ****     cau_key_init(&key_initpara);
 285              		.loc 1 77 29 is_stmt 0
 286 005e 3ED6     		sw	a5,44(sp)
  78:C:/Users/stapi/OneDrive/Desktop/GD32VW553/V1_MQTT_OK/GD32VW55X_Wifi_BLE_SDK/GD32VW55x_RELEASE_V1.0.2/MSDK/plf/GD32VW55x_standard_peripheral/Source\gd32vw55x_cau_tdes.c **** 
 287              		.loc 1 78 5 is_stmt 1
 288 0060 97000000 		call	cau_key_init
 288      E7800000 
 289              	.LVL35:
  81:C:/Users/stapi/OneDrive/Desktop/GD32VW553/V1_MQTT_OK/GD32VW55X_Wifi_BLE_SDK/GD32VW55x_RELEASE_V1.0.2/MSDK/plf/GD32VW55x_standard_peripheral/Source\gd32vw55x_cau_tdes.c **** 
 290              		.loc 1 81 5
 291 0068 97000000 		call	cau_fifo_flush
 291      E7800000 
 292              	.LVL36:
  84:C:/Users/stapi/OneDrive/Desktop/GD32VW553/V1_MQTT_OK/GD32VW55X_Wifi_BLE_SDK/GD32VW55x_RELEASE_V1.0.2/MSDK/plf/GD32VW55x_standard_peripheral/Source\gd32vw55x_cau_tdes.c ****     /* TDES calculate process */
 293              		.loc 1 84 5
 294 0070 97000000 		call	cau_enable
 294      E7800000 
 295              	.LVL37:
  86:C:/Users/stapi/OneDrive/Desktop/GD32VW553/V1_MQTT_OK/GD32VW55X_Wifi_BLE_SDK/GD32VW55x_RELEASE_V1.0.2/MSDK/plf/GD32VW55x_standard_peripheral/Source\gd32vw55x_cau_tdes.c ****     /* disable the CAU peripheral */
 296              		.loc 1 86 5
  86:C:/Users/stapi/OneDrive/Desktop/GD32VW553/V1_MQTT_OK/GD32VW55X_Wifi_BLE_SDK/GD32VW55x_RELEASE_V1.0.2/MSDK/plf/GD32VW55x_standard_peripheral/Source\gd32vw55x_cau_tdes.c ****     /* disable the CAU peripheral */
 297              		.loc 1 86 11 is_stmt 0
 298 0078 0C4C     		lw	a1,24(s0)
 299 007a 4A86     		mv	a2,s2
 300 007c 4E85     		mv	a0,s3
 301 007e 97000000 		call	cau_tdes_calculate
 301      E7800000 
 302              	.LVL38:
 303 0086 2AC6     		sw	a0,12(sp)
 304              	.LVL39:
  88:C:/Users/stapi/OneDrive/Desktop/GD32VW553/V1_MQTT_OK/GD32VW55X_Wifi_BLE_SDK/GD32VW55x_RELEASE_V1.0.2/MSDK/plf/GD32VW55x_standard_peripheral/Source\gd32vw55x_cau_tdes.c **** 
 305              		.loc 1 88 5 is_stmt 1
 306 0088 97000000 		call	cau_disable
 306      E7800000 
 307              	.LVL40:
  90:C:/Users/stapi/OneDrive/Desktop/GD32VW553/V1_MQTT_OK/GD32VW55X_Wifi_BLE_SDK/GD32VW55x_RELEASE_V1.0.2/MSDK/plf/GD32VW55x_standard_peripheral/Source\gd32vw55x_cau_tdes.c **** }
 308              		.loc 1 90 5
  91:C:/Users/stapi/OneDrive/Desktop/GD32VW553/V1_MQTT_OK/GD32VW55X_Wifi_BLE_SDK/GD32VW55x_RELEASE_V1.0.2/MSDK/plf/GD32VW55x_standard_peripheral/Source\gd32vw55x_cau_tdes.c **** 
 309              		.loc 1 91 1 is_stmt 0
 310 0090 3245     		lw	a0,12(sp)
 311 0092 4561     		addi	sp,sp,48
 312              		.cfi_def_cfa_offset 0
 313              	.LVL41:
 314 0094 17030000 		tail	__riscv_restore_4
 314      67000300 
 315              		.cfi_restore 19
 316              		.cfi_restore 18
 317              		.cfi_restore 9
 318              		.cfi_restore 8
 319              		.cfi_restore 1
 320              		.cfi_def_cfa_offset -32
 321              		.cfi_endproc
 322              	.LFE365:
 324              		.section	.text.cau_tdes_cbc,"ax",@progbits
 325              		.align	1
 326              		.globl	cau_tdes_cbc
 328              	cau_tdes_cbc:
 329              	.LFB366:
 106:C:/Users/stapi/OneDrive/Desktop/GD32VW553/V1_MQTT_OK/GD32VW55X_Wifi_BLE_SDK/GD32VW55x_RELEASE_V1.0.2/MSDK/plf/GD32VW55x_standard_peripheral/Source\gd32vw55x_cau_tdes.c ****     ErrStatus ret = ERROR;
 330              		.loc 1 106 1 is_stmt 1
 331              		.cfi_startproc
 332              	.LVL42:
 333 0000 17030000 		call	t0,__riscv_save_5
 333      E7020300 
 334              		.cfi_offset 20, -24
 335              		.cfi_offset 19, -20
 336              		.cfi_offset 18, -16
 337              		.cfi_offset 9, -12
 338              		.cfi_offset 8, -8
 339              		.cfi_offset 1, -4
 340              		.cfi_def_cfa_offset 32
 107:C:/Users/stapi/OneDrive/Desktop/GD32VW553/V1_MQTT_OK/GD32VW55X_Wifi_BLE_SDK/GD32VW55x_RELEASE_V1.0.2/MSDK/plf/GD32VW55x_standard_peripheral/Source\gd32vw55x_cau_tdes.c ****     cau_key_parameter_struct key_initpara;
 341              		.loc 1 107 5
 342              	.LVL43:
 108:C:/Users/stapi/OneDrive/Desktop/GD32VW553/V1_MQTT_OK/GD32VW55X_Wifi_BLE_SDK/GD32VW55x_RELEASE_V1.0.2/MSDK/plf/GD32VW55x_standard_peripheral/Source\gd32vw55x_cau_tdes.c ****     cau_iv_parameter_struct iv_initpara;
 343              		.loc 1 108 5
 109:C:/Users/stapi/OneDrive/Desktop/GD32VW553/V1_MQTT_OK/GD32VW55X_Wifi_BLE_SDK/GD32VW55x_RELEASE_V1.0.2/MSDK/plf/GD32VW55x_standard_peripheral/Source\gd32vw55x_cau_tdes.c ****     uint32_t keyaddr    = (uint32_t)(cau_parameter->key);
 344              		.loc 1 109 5
 110:C:/Users/stapi/OneDrive/Desktop/GD32VW553/V1_MQTT_OK/GD32VW55X_Wifi_BLE_SDK/GD32VW55x_RELEASE_V1.0.2/MSDK/plf/GD32VW55x_standard_peripheral/Source\gd32vw55x_cau_tdes.c ****     uint32_t inputaddr  = (uint32_t)(cau_parameter->input);
 345              		.loc 1 110 5
 106:C:/Users/stapi/OneDrive/Desktop/GD32VW553/V1_MQTT_OK/GD32VW55X_Wifi_BLE_SDK/GD32VW55x_RELEASE_V1.0.2/MSDK/plf/GD32VW55x_standard_peripheral/Source\gd32vw55x_cau_tdes.c ****     ErrStatus ret = ERROR;
 346              		.loc 1 106 1 is_stmt 0
 347 0008 3971     		addi	sp,sp,-64
 348              		.cfi_def_cfa_offset 96
 110:C:/Users/stapi/OneDrive/Desktop/GD32VW553/V1_MQTT_OK/GD32VW55X_Wifi_BLE_SDK/GD32VW55x_RELEASE_V1.0.2/MSDK/plf/GD32VW55x_standard_peripheral/Source\gd32vw55x_cau_tdes.c ****     uint32_t inputaddr  = (uint32_t)(cau_parameter->input);
 349              		.loc 1 110 51
 350 000a 4441     		lw	s1,4(a0)
 351              	.LVL44:
 111:C:/Users/stapi/OneDrive/Desktop/GD32VW553/V1_MQTT_OK/GD32VW55X_Wifi_BLE_SDK/GD32VW55x_RELEASE_V1.0.2/MSDK/plf/GD32VW55x_standard_peripheral/Source\gd32vw55x_cau_tdes.c ****     uint32_t outputaddr = (uint32_t)output;
 352              		.loc 1 111 5 is_stmt 1
 113:C:/Users/stapi/OneDrive/Desktop/GD32VW553/V1_MQTT_OK/GD32VW55X_Wifi_BLE_SDK/GD32VW55x_RELEASE_V1.0.2/MSDK/plf/GD32VW55x_standard_peripheral/Source\gd32vw55x_cau_tdes.c **** 
 353              		.loc 1 113 51 is_stmt 0
 354 000c 8329C500 		lw	s3,12(a0)
 106:C:/Users/stapi/OneDrive/Desktop/GD32VW553/V1_MQTT_OK/GD32VW55X_Wifi_BLE_SDK/GD32VW55x_RELEASE_V1.0.2/MSDK/plf/GD32VW55x_standard_peripheral/Source\gd32vw55x_cau_tdes.c ****     ErrStatus ret = ERROR;
 355              		.loc 1 106 1
 356 0010 2A84     		mv	s0,a0
 111:C:/Users/stapi/OneDrive/Desktop/GD32VW553/V1_MQTT_OK/GD32VW55X_Wifi_BLE_SDK/GD32VW55x_RELEASE_V1.0.2/MSDK/plf/GD32VW55x_standard_peripheral/Source\gd32vw55x_cau_tdes.c ****     uint32_t outputaddr = (uint32_t)output;
 357              		.loc 1 111 51
 358 0012 032A4501 		lw	s4,20(a0)
 359              	.LVL45:
 112:C:/Users/stapi/OneDrive/Desktop/GD32VW553/V1_MQTT_OK/GD32VW55X_Wifi_BLE_SDK/GD32VW55x_RELEASE_V1.0.2/MSDK/plf/GD32VW55x_standard_peripheral/Source\gd32vw55x_cau_tdes.c ****     uint32_t ivaddr     = (uint32_t)(cau_parameter->iv);
 360              		.loc 1 112 5 is_stmt 1
 116:C:/Users/stapi/OneDrive/Desktop/GD32VW553/V1_MQTT_OK/GD32VW55X_Wifi_BLE_SDK/GD32VW55x_RELEASE_V1.0.2/MSDK/plf/GD32VW55x_standard_peripheral/Source\gd32vw55x_cau_tdes.c ****     /* initialize the CAU peripheral */
 361              		.loc 1 116 5 is_stmt 0
 362 0016 0810     		addi	a0,sp,32
 363              	.LVL46:
 106:C:/Users/stapi/OneDrive/Desktop/GD32VW553/V1_MQTT_OK/GD32VW55X_Wifi_BLE_SDK/GD32VW55x_RELEASE_V1.0.2/MSDK/plf/GD32VW55x_standard_peripheral/Source\gd32vw55x_cau_tdes.c ****     ErrStatus ret = ERROR;
 364              		.loc 1 106 1
 365 0018 2E89     		mv	s2,a1
 366              	.LVL47:
 113:C:/Users/stapi/OneDrive/Desktop/GD32VW553/V1_MQTT_OK/GD32VW55X_Wifi_BLE_SDK/GD32VW55x_RELEASE_V1.0.2/MSDK/plf/GD32VW55x_standard_peripheral/Source\gd32vw55x_cau_tdes.c **** 
 367              		.loc 1 113 5 is_stmt 1
 116:C:/Users/stapi/OneDrive/Desktop/GD32VW553/V1_MQTT_OK/GD32VW55X_Wifi_BLE_SDK/GD32VW55x_RELEASE_V1.0.2/MSDK/plf/GD32VW55x_standard_peripheral/Source\gd32vw55x_cau_tdes.c ****     /* initialize the CAU peripheral */
 368              		.loc 1 116 5
 369 001a 97000000 		call	cau_key_struct_para_init
 369      E7800000 
 370              	.LVL48:
 118:C:/Users/stapi/OneDrive/Desktop/GD32VW553/V1_MQTT_OK/GD32VW55X_Wifi_BLE_SDK/GD32VW55x_RELEASE_V1.0.2/MSDK/plf/GD32VW55x_standard_peripheral/Source\gd32vw55x_cau_tdes.c **** 
 371              		.loc 1 118 5
 372 0022 0840     		lw	a0,0(s0)
 373 0024 13060008 		li	a2,128
 374 0028 A145     		li	a1,8
 375 002a 97000000 		call	cau_init
 375      E7800000 
 376              	.LVL49:
 121:C:/Users/stapi/OneDrive/Desktop/GD32VW553/V1_MQTT_OK/GD32VW55X_Wifi_BLE_SDK/GD32VW55x_RELEASE_V1.0.2/MSDK/plf/GD32VW55x_standard_peripheral/Source\gd32vw55x_cau_tdes.c ****     keyaddr += 4U;
 377              		.loc 1 121 5
 378 0032 9C40     		lw	a5,0(s1)
 132:C:/Users/stapi/OneDrive/Desktop/GD32VW553/V1_MQTT_OK/GD32VW55X_Wifi_BLE_SDK/GD32VW55x_RELEASE_V1.0.2/MSDK/plf/GD32VW55x_standard_peripheral/Source\gd32vw55x_cau_tdes.c **** 
 379              		.loc 1 132 5 is_stmt 0
 380 0034 0810     		addi	a0,sp,32
 381 0036 93D78769 		rev8	a5,a5
 382              	.LVL50:
 383              	.LBB42:
 384              	.LBB43:
 122:..\..\..\..\plf\riscv\NMSIS\Core\Include/core_compatiable.h **** 
 385              		.loc 2 122 5 is_stmt 1
 124:..\..\..\..\plf\riscv\NMSIS\Core\Include/core_compatiable.h ****         | ((value & 0x00ff0000) >> 8 )
 386              		.loc 2 124 5
 387              		.loc 2 128 5
 388              	.LBE43:
 389              	.LBE42:
 121:C:/Users/stapi/OneDrive/Desktop/GD32VW553/V1_MQTT_OK/GD32VW55X_Wifi_BLE_SDK/GD32VW55x_RELEASE_V1.0.2/MSDK/plf/GD32VW55x_standard_peripheral/Source\gd32vw55x_cau_tdes.c ****     keyaddr += 4U;
 390              		.loc 1 121 29 is_stmt 0
 391 003a 3ED4     		sw	a5,40(sp)
 122:C:/Users/stapi/OneDrive/Desktop/GD32VW553/V1_MQTT_OK/GD32VW55X_Wifi_BLE_SDK/GD32VW55x_RELEASE_V1.0.2/MSDK/plf/GD32VW55x_standard_peripheral/Source\gd32vw55x_cau_tdes.c ****     key_initpara.key_1_low  = __REV(*(uint32_t *)(keyaddr));
 392              		.loc 1 122 5 is_stmt 1
 393              	.LVL51:
 123:C:/Users/stapi/OneDrive/Desktop/GD32VW553/V1_MQTT_OK/GD32VW55X_Wifi_BLE_SDK/GD32VW55x_RELEASE_V1.0.2/MSDK/plf/GD32VW55x_standard_peripheral/Source\gd32vw55x_cau_tdes.c ****     keyaddr += 4U;
 394              		.loc 1 123 5
 395 003c DC40     		lw	a5,4(s1)
 396 003e 93D78769 		rev8	a5,a5
 397              	.LVL52:
 398              	.LBB44:
 399              	.LBB45:
 122:..\..\..\..\plf\riscv\NMSIS\Core\Include/core_compatiable.h **** 
 400              		.loc 2 122 5
 124:..\..\..\..\plf\riscv\NMSIS\Core\Include/core_compatiable.h ****         | ((value & 0x00ff0000) >> 8 )
 401              		.loc 2 124 5
 402              		.loc 2 128 5
 403              	.LBE45:
 404              	.LBE44:
 123:C:/Users/stapi/OneDrive/Desktop/GD32VW553/V1_MQTT_OK/GD32VW55X_Wifi_BLE_SDK/GD32VW55x_RELEASE_V1.0.2/MSDK/plf/GD32VW55x_standard_peripheral/Source\gd32vw55x_cau_tdes.c ****     keyaddr += 4U;
 405              		.loc 1 123 29 is_stmt 0
 406 0042 3ED6     		sw	a5,44(sp)
 124:C:/Users/stapi/OneDrive/Desktop/GD32VW553/V1_MQTT_OK/GD32VW55X_Wifi_BLE_SDK/GD32VW55x_RELEASE_V1.0.2/MSDK/plf/GD32VW55x_standard_peripheral/Source\gd32vw55x_cau_tdes.c ****     key_initpara.key_2_high = __REV(*(uint32_t *)(keyaddr));
 407              		.loc 1 124 5 is_stmt 1
 408              	.LVL53:
 125:C:/Users/stapi/OneDrive/Desktop/GD32VW553/V1_MQTT_OK/GD32VW55X_Wifi_BLE_SDK/GD32VW55x_RELEASE_V1.0.2/MSDK/plf/GD32VW55x_standard_peripheral/Source\gd32vw55x_cau_tdes.c ****     keyaddr += 4U;
 409              		.loc 1 125 5
 410 0044 9C44     		lw	a5,8(s1)
 411 0046 93D78769 		rev8	a5,a5
 412              	.LVL54:
 413              	.LBB46:
 414              	.LBB47:
 122:..\..\..\..\plf\riscv\NMSIS\Core\Include/core_compatiable.h **** 
 415              		.loc 2 122 5
 124:..\..\..\..\plf\riscv\NMSIS\Core\Include/core_compatiable.h ****         | ((value & 0x00ff0000) >> 8 )
 416              		.loc 2 124 5
 417              		.loc 2 128 5
 418              	.LBE47:
 419              	.LBE46:
 125:C:/Users/stapi/OneDrive/Desktop/GD32VW553/V1_MQTT_OK/GD32VW55X_Wifi_BLE_SDK/GD32VW55x_RELEASE_V1.0.2/MSDK/plf/GD32VW55x_standard_peripheral/Source\gd32vw55x_cau_tdes.c ****     keyaddr += 4U;
 420              		.loc 1 125 29 is_stmt 0
 421 004a 3ED8     		sw	a5,48(sp)
 126:C:/Users/stapi/OneDrive/Desktop/GD32VW553/V1_MQTT_OK/GD32VW55X_Wifi_BLE_SDK/GD32VW55x_RELEASE_V1.0.2/MSDK/plf/GD32VW55x_standard_peripheral/Source\gd32vw55x_cau_tdes.c ****     key_initpara.key_2_low  = __REV(*(uint32_t *)(keyaddr));
 422              		.loc 1 126 5 is_stmt 1
 423              	.LVL55:
 127:C:/Users/stapi/OneDrive/Desktop/GD32VW553/V1_MQTT_OK/GD32VW55X_Wifi_BLE_SDK/GD32VW55x_RELEASE_V1.0.2/MSDK/plf/GD32VW55x_standard_peripheral/Source\gd32vw55x_cau_tdes.c ****     keyaddr += 4U;
 424              		.loc 1 127 5
 425 004c DC44     		lw	a5,12(s1)
 426 004e 93D78769 		rev8	a5,a5
 427              	.LVL56:
 428              	.LBB48:
 429              	.LBB49:
 122:..\..\..\..\plf\riscv\NMSIS\Core\Include/core_compatiable.h **** 
 430              		.loc 2 122 5
 124:..\..\..\..\plf\riscv\NMSIS\Core\Include/core_compatiable.h ****         | ((value & 0x00ff0000) >> 8 )
 431              		.loc 2 124 5
 432              		.loc 2 128 5
 433              	.LBE49:
 434              	.LBE48:
 127:C:/Users/stapi/OneDrive/Desktop/GD32VW553/V1_MQTT_OK/GD32VW55X_Wifi_BLE_SDK/GD32VW55x_RELEASE_V1.0.2/MSDK/plf/GD32VW55x_standard_peripheral/Source\gd32vw55x_cau_tdes.c ****     keyaddr += 4U;
 435              		.loc 1 127 29 is_stmt 0
 436 0052 3EDA     		sw	a5,52(sp)
 128:C:/Users/stapi/OneDrive/Desktop/GD32VW553/V1_MQTT_OK/GD32VW55X_Wifi_BLE_SDK/GD32VW55x_RELEASE_V1.0.2/MSDK/plf/GD32VW55x_standard_peripheral/Source\gd32vw55x_cau_tdes.c ****     key_initpara.key_3_high = __REV(*(uint32_t *)(keyaddr));
 437              		.loc 1 128 5 is_stmt 1
 438              	.LVL57:
 129:C:/Users/stapi/OneDrive/Desktop/GD32VW553/V1_MQTT_OK/GD32VW55X_Wifi_BLE_SDK/GD32VW55x_RELEASE_V1.0.2/MSDK/plf/GD32VW55x_standard_peripheral/Source\gd32vw55x_cau_tdes.c ****     keyaddr += 4U;
 439              		.loc 1 129 5
 440 0054 9C48     		lw	a5,16(s1)
 441 0056 93D78769 		rev8	a5,a5
 442              	.LVL58:
 443              	.LBB50:
 444              	.LBB51:
 122:..\..\..\..\plf\riscv\NMSIS\Core\Include/core_compatiable.h **** 
 445              		.loc 2 122 5
 124:..\..\..\..\plf\riscv\NMSIS\Core\Include/core_compatiable.h ****         | ((value & 0x00ff0000) >> 8 )
 446              		.loc 2 124 5
 447              		.loc 2 128 5
 448              	.LBE51:
 449              	.LBE50:
 129:C:/Users/stapi/OneDrive/Desktop/GD32VW553/V1_MQTT_OK/GD32VW55X_Wifi_BLE_SDK/GD32VW55x_RELEASE_V1.0.2/MSDK/plf/GD32VW55x_standard_peripheral/Source\gd32vw55x_cau_tdes.c ****     keyaddr += 4U;
 450              		.loc 1 129 29 is_stmt 0
 451 005a 3EDC     		sw	a5,56(sp)
 130:C:/Users/stapi/OneDrive/Desktop/GD32VW553/V1_MQTT_OK/GD32VW55X_Wifi_BLE_SDK/GD32VW55x_RELEASE_V1.0.2/MSDK/plf/GD32VW55x_standard_peripheral/Source\gd32vw55x_cau_tdes.c ****     key_initpara.key_3_low  = __REV(*(uint32_t *)(keyaddr));
 452              		.loc 1 130 5 is_stmt 1
 453              	.LVL59:
 131:C:/Users/stapi/OneDrive/Desktop/GD32VW553/V1_MQTT_OK/GD32VW55X_Wifi_BLE_SDK/GD32VW55x_RELEASE_V1.0.2/MSDK/plf/GD32VW55x_standard_peripheral/Source\gd32vw55x_cau_tdes.c ****     cau_key_init(&key_initpara);
 454              		.loc 1 131 5
 455 005c DC48     		lw	a5,20(s1)
 456 005e 93D78769 		rev8	a5,a5
 457              	.LVL60:
 458              	.LBB52:
 459              	.LBB53:
 122:..\..\..\..\plf\riscv\NMSIS\Core\Include/core_compatiable.h **** 
 460              		.loc 2 122 5
 124:..\..\..\..\plf\riscv\NMSIS\Core\Include/core_compatiable.h ****         | ((value & 0x00ff0000) >> 8 )
 461              		.loc 2 124 5
 462              		.loc 2 128 5
 463              	.LBE53:
 464              	.LBE52:
 131:C:/Users/stapi/OneDrive/Desktop/GD32VW553/V1_MQTT_OK/GD32VW55X_Wifi_BLE_SDK/GD32VW55x_RELEASE_V1.0.2/MSDK/plf/GD32VW55x_standard_peripheral/Source\gd32vw55x_cau_tdes.c ****     cau_key_init(&key_initpara);
 465              		.loc 1 131 29 is_stmt 0
 466 0062 3EDE     		sw	a5,60(sp)
 132:C:/Users/stapi/OneDrive/Desktop/GD32VW553/V1_MQTT_OK/GD32VW55X_Wifi_BLE_SDK/GD32VW55x_RELEASE_V1.0.2/MSDK/plf/GD32VW55x_standard_peripheral/Source\gd32vw55x_cau_tdes.c **** 
 467              		.loc 1 132 5 is_stmt 1
 468 0064 97000000 		call	cau_key_init
 468      E7800000 
 469              	.LVL61:
 135:C:/Users/stapi/OneDrive/Desktop/GD32VW553/V1_MQTT_OK/GD32VW55X_Wifi_BLE_SDK/GD32VW55x_RELEASE_V1.0.2/MSDK/plf/GD32VW55x_standard_peripheral/Source\gd32vw55x_cau_tdes.c ****     ivaddr += 4U;
 470              		.loc 1 135 5
 471 006c 83A70900 		lw	a5,0(s3)
 138:C:/Users/stapi/OneDrive/Desktop/GD32VW553/V1_MQTT_OK/GD32VW55X_Wifi_BLE_SDK/GD32VW55x_RELEASE_V1.0.2/MSDK/plf/GD32VW55x_standard_peripheral/Source\gd32vw55x_cau_tdes.c **** 
 472              		.loc 1 138 5 is_stmt 0
 473 0070 0808     		addi	a0,sp,16
 474 0072 93D78769 		rev8	a5,a5
 475              	.LVL62:
 476              	.LBB54:
 477              	.LBB55:
 122:..\..\..\..\plf\riscv\NMSIS\Core\Include/core_compatiable.h **** 
 478              		.loc 2 122 5 is_stmt 1
 124:..\..\..\..\plf\riscv\NMSIS\Core\Include/core_compatiable.h ****         | ((value & 0x00ff0000) >> 8 )
 479              		.loc 2 124 5
 480              		.loc 2 128 5
 481              	.LBE55:
 482              	.LBE54:
 135:C:/Users/stapi/OneDrive/Desktop/GD32VW553/V1_MQTT_OK/GD32VW55X_Wifi_BLE_SDK/GD32VW55x_RELEASE_V1.0.2/MSDK/plf/GD32VW55x_standard_peripheral/Source\gd32vw55x_cau_tdes.c ****     ivaddr += 4U;
 483              		.loc 1 135 27 is_stmt 0
 484 0076 3EC8     		sw	a5,16(sp)
 136:C:/Users/stapi/OneDrive/Desktop/GD32VW553/V1_MQTT_OK/GD32VW55X_Wifi_BLE_SDK/GD32VW55x_RELEASE_V1.0.2/MSDK/plf/GD32VW55x_standard_peripheral/Source\gd32vw55x_cau_tdes.c ****     iv_initpara.iv_0_low  = __REV(*(uint32_t *)(ivaddr));
 485              		.loc 1 136 5 is_stmt 1
 486              	.LVL63:
 137:C:/Users/stapi/OneDrive/Desktop/GD32VW553/V1_MQTT_OK/GD32VW55X_Wifi_BLE_SDK/GD32VW55x_RELEASE_V1.0.2/MSDK/plf/GD32VW55x_standard_peripheral/Source\gd32vw55x_cau_tdes.c ****     cau_iv_init(&iv_initpara);
 487              		.loc 1 137 5
 488 0078 83A74900 		lw	a5,4(s3)
 489 007c 93D78769 		rev8	a5,a5
 490              	.LVL64:
 491              	.LBB56:
 492              	.LBB57:
 122:..\..\..\..\plf\riscv\NMSIS\Core\Include/core_compatiable.h **** 
 493              		.loc 2 122 5
 124:..\..\..\..\plf\riscv\NMSIS\Core\Include/core_compatiable.h ****         | ((value & 0x00ff0000) >> 8 )
 494              		.loc 2 124 5
 495              		.loc 2 128 5
 496              	.LBE57:
 497              	.LBE56:
 137:C:/Users/stapi/OneDrive/Desktop/GD32VW553/V1_MQTT_OK/GD32VW55X_Wifi_BLE_SDK/GD32VW55x_RELEASE_V1.0.2/MSDK/plf/GD32VW55x_standard_peripheral/Source\gd32vw55x_cau_tdes.c ****     cau_iv_init(&iv_initpara);
 498              		.loc 1 137 27 is_stmt 0
 499 0080 3ECA     		sw	a5,20(sp)
 138:C:/Users/stapi/OneDrive/Desktop/GD32VW553/V1_MQTT_OK/GD32VW55X_Wifi_BLE_SDK/GD32VW55x_RELEASE_V1.0.2/MSDK/plf/GD32VW55x_standard_peripheral/Source\gd32vw55x_cau_tdes.c **** 
 500              		.loc 1 138 5 is_stmt 1
 501 0082 97000000 		call	cau_iv_init
 501      E7800000 
 502              	.LVL65:
 141:C:/Users/stapi/OneDrive/Desktop/GD32VW553/V1_MQTT_OK/GD32VW55X_Wifi_BLE_SDK/GD32VW55x_RELEASE_V1.0.2/MSDK/plf/GD32VW55x_standard_peripheral/Source\gd32vw55x_cau_tdes.c ****     /* enable the CAU peripheral */
 503              		.loc 1 141 5
 504 008a 97000000 		call	cau_fifo_flush
 504      E7800000 
 505              	.LVL66:
 143:C:/Users/stapi/OneDrive/Desktop/GD32VW553/V1_MQTT_OK/GD32VW55X_Wifi_BLE_SDK/GD32VW55x_RELEASE_V1.0.2/MSDK/plf/GD32VW55x_standard_peripheral/Source\gd32vw55x_cau_tdes.c ****     /* TDES calculate process */
 506              		.loc 1 143 5
 507 0092 97000000 		call	cau_enable
 507      E7800000 
 508              	.LVL67:
 145:C:/Users/stapi/OneDrive/Desktop/GD32VW553/V1_MQTT_OK/GD32VW55X_Wifi_BLE_SDK/GD32VW55x_RELEASE_V1.0.2/MSDK/plf/GD32VW55x_standard_peripheral/Source\gd32vw55x_cau_tdes.c ****     /* disable the CAU peripheral */
 509              		.loc 1 145 5
 145:C:/Users/stapi/OneDrive/Desktop/GD32VW553/V1_MQTT_OK/GD32VW55X_Wifi_BLE_SDK/GD32VW55x_RELEASE_V1.0.2/MSDK/plf/GD32VW55x_standard_peripheral/Source\gd32vw55x_cau_tdes.c ****     /* disable the CAU peripheral */
 510              		.loc 1 145 11 is_stmt 0
 511 009a 0C4C     		lw	a1,24(s0)
 512 009c 4A86     		mv	a2,s2
 513 009e 5285     		mv	a0,s4
 514 00a0 97000000 		call	cau_tdes_calculate
 514      E7800000 
 515              	.LVL68:
 516 00a8 2AC6     		sw	a0,12(sp)
 517              	.LVL69:
 147:C:/Users/stapi/OneDrive/Desktop/GD32VW553/V1_MQTT_OK/GD32VW55X_Wifi_BLE_SDK/GD32VW55x_RELEASE_V1.0.2/MSDK/plf/GD32VW55x_standard_peripheral/Source\gd32vw55x_cau_tdes.c **** 
 518              		.loc 1 147 5 is_stmt 1
 519 00aa 97000000 		call	cau_disable
 519      E7800000 
 520              	.LVL70:
 149:C:/Users/stapi/OneDrive/Desktop/GD32VW553/V1_MQTT_OK/GD32VW55X_Wifi_BLE_SDK/GD32VW55x_RELEASE_V1.0.2/MSDK/plf/GD32VW55x_standard_peripheral/Source\gd32vw55x_cau_tdes.c **** }
 521              		.loc 1 149 5
 150:C:/Users/stapi/OneDrive/Desktop/GD32VW553/V1_MQTT_OK/GD32VW55X_Wifi_BLE_SDK/GD32VW55x_RELEASE_V1.0.2/MSDK/plf/GD32VW55x_standard_peripheral/Source\gd32vw55x_cau_tdes.c **** 
 522              		.loc 1 150 1 is_stmt 0
 523 00b2 3245     		lw	a0,12(sp)
 524 00b4 2161     		addi	sp,sp,64
 525              		.cfi_def_cfa_offset 0
 526              	.LVL71:
 527 00b6 17030000 		tail	__riscv_restore_5
 527      67000300 
 528              		.cfi_restore 20
 529              		.cfi_restore 19
 530              		.cfi_restore 18
 531              		.cfi_restore 9
 532              		.cfi_restore 8
 533              		.cfi_restore 1
 534              		.cfi_def_cfa_offset -32
 535              		.cfi_endproc
 536              	.LFE366:
 538              		.text
 539              	.Letext0:
 540              		.file 3 "c:\\users\\stapi\\onedrive\\desktop\\gd32vw553\\embeddedbuilder_v1.4.7.26843\\tools\\nucl
 541              		.file 4 "c:\\users\\stapi\\onedrive\\desktop\\gd32vw553\\embeddedbuilder_v1.4.7.26843\\tools\\nucl
 542              		.file 5 "..\\..\\..\\..\\plf\\riscv\\gd32vw55x/gd32vw55x.h"
 543              		.file 6 "..\\..\\..\\..\\plf\\GD32VW55x_standard_peripheral\\Include/gd32vw55x_cau.h"
DEFINED SYMBOLS
                            *ABS*:0000000000000000 gd32vw55x_cau_tdes.c
C:\Users\stapi\AppData\Local\Temp\cczdkX9j.s:12     .text.cau_tdes_calculate:0000000000000000 cau_tdes_calculate
C:\Users\stapi\AppData\Local\Temp\cczdkX9j.s:16     .text.cau_tdes_calculate:0000000000000000 .L0 
C:\Users\stapi\AppData\Local\Temp\cczdkX9j.s:18     .text.cau_tdes_calculate:0000000000000000 .L0 
C:\Users\stapi\AppData\Local\Temp\cczdkX9j.s:19     .text.cau_tdes_calculate:0000000000000008 .L0 
C:\Users\stapi\AppData\Local\Temp\cczdkX9j.s:20     .text.cau_tdes_calculate:0000000000000008 .L0 
C:\Users\stapi\AppData\Local\Temp\cczdkX9j.s:21     .text.cau_tdes_calculate:0000000000000008 .L0 
C:\Users\stapi\AppData\Local\Temp\cczdkX9j.s:22     .text.cau_tdes_calculate:0000000000000008 .L0 
C:\Users\stapi\AppData\Local\Temp\cczdkX9j.s:23     .text.cau_tdes_calculate:0000000000000008 .L0 
C:\Users\stapi\AppData\Local\Temp\cczdkX9j.s:24     .text.cau_tdes_calculate:0000000000000008 .L0 
C:\Users\stapi\AppData\Local\Temp\cczdkX9j.s:25     .text.cau_tdes_calculate:0000000000000008 .L0 
C:\Users\stapi\AppData\Local\Temp\cczdkX9j.s:27     .text.cau_tdes_calculate:000000000000000a .L0 
C:\Users\stapi\AppData\Local\Temp\cczdkX9j.s:29     .text.cau_tdes_calculate:000000000000000a .L0 
C:\Users\stapi\AppData\Local\Temp\cczdkX9j.s:33     .text.cau_tdes_calculate:000000000000000e .L0 
C:\Users\stapi\AppData\Local\Temp\cczdkX9j.s:34     .text.cau_tdes_calculate:000000000000000e .L0 
C:\Users\stapi\AppData\Local\Temp\cczdkX9j.s:35     .text.cau_tdes_calculate:000000000000000e .L0 
C:\Users\stapi\AppData\Local\Temp\cczdkX9j.s:36     .text.cau_tdes_calculate:000000000000000e .L0 
C:\Users\stapi\AppData\Local\Temp\cczdkX9j.s:37     .text.cau_tdes_calculate:000000000000000e .L0 
C:\Users\stapi\AppData\Local\Temp\cczdkX9j.s:39     .text.cau_tdes_calculate:0000000000000010 .L0 
C:\Users\stapi\AppData\Local\Temp\cczdkX9j.s:42     .text.cau_tdes_calculate:0000000000000012 .L0 
C:\Users\stapi\AppData\Local\Temp\cczdkX9j.s:43     .text.cau_tdes_calculate:0000000000000012 .L0 
C:\Users\stapi\AppData\Local\Temp\cczdkX9j.s:44     .text.cau_tdes_calculate:0000000000000012 .L0 
C:\Users\stapi\AppData\Local\Temp\cczdkX9j.s:47     .text.cau_tdes_calculate:000000000000001a .L0 
C:\Users\stapi\AppData\Local\Temp\cczdkX9j.s:51     .text.cau_tdes_calculate:000000000000001c .L0 
C:\Users\stapi\AppData\Local\Temp\cczdkX9j.s:54     .text.cau_tdes_calculate:000000000000001e .L0 
C:\Users\stapi\AppData\Local\Temp\cczdkX9j.s:55     .text.cau_tdes_calculate:0000000000000020 .L0 
C:\Users\stapi\AppData\Local\Temp\cczdkX9j.s:56     .text.cau_tdes_calculate:0000000000000020 .L0 
C:\Users\stapi\AppData\Local\Temp\cczdkX9j.s:58     .text.cau_tdes_calculate:0000000000000028 .L0 
C:\Users\stapi\AppData\Local\Temp\cczdkX9j.s:59     .text.cau_tdes_calculate:0000000000000028 .L0 
C:\Users\stapi\AppData\Local\Temp\cczdkX9j.s:60     .text.cau_tdes_calculate:0000000000000028 .L0 
C:\Users\stapi\AppData\Local\Temp\cczdkX9j.s:61     .text.cau_tdes_calculate:0000000000000028 .L0 
C:\Users\stapi\AppData\Local\Temp\cczdkX9j.s:62     .text.cau_tdes_calculate:0000000000000028 .L0 
C:\Users\stapi\AppData\Local\Temp\cczdkX9j.s:63     .text.cau_tdes_calculate:0000000000000028 .L0 
C:\Users\stapi\AppData\Local\Temp\cczdkX9j.s:64     .text.cau_tdes_calculate:0000000000000028 .L0 
C:\Users\stapi\AppData\Local\Temp\cczdkX9j.s:67     .text.cau_tdes_calculate:0000000000000028 .L0 
C:\Users\stapi\AppData\Local\Temp\cczdkX9j.s:69     .text.cau_tdes_calculate:0000000000000028 .L0 
C:\Users\stapi\AppData\Local\Temp\cczdkX9j.s:71     .text.cau_tdes_calculate:000000000000002a .L0 
C:\Users\stapi\AppData\Local\Temp\cczdkX9j.s:75     .text.cau_tdes_calculate:000000000000002c .L0 
C:\Users\stapi\AppData\Local\Temp\cczdkX9j.s:76     .text.cau_tdes_calculate:000000000000002c .L0 
C:\Users\stapi\AppData\Local\Temp\cczdkX9j.s:79     .text.cau_tdes_calculate:0000000000000034 .L0 
C:\Users\stapi\AppData\Local\Temp\cczdkX9j.s:83     .text.cau_tdes_calculate:0000000000000038 .L0 
C:\Users\stapi\AppData\Local\Temp\cczdkX9j.s:87     .text.cau_tdes_calculate:0000000000000042 .L0 
C:\Users\stapi\AppData\Local\Temp\cczdkX9j.s:88     .text.cau_tdes_calculate:0000000000000042 .L0 
C:\Users\stapi\AppData\Local\Temp\cczdkX9j.s:90     .text.cau_tdes_calculate:0000000000000044 .L0 
C:\Users\stapi\AppData\Local\Temp\cczdkX9j.s:93     .text.cau_tdes_calculate:0000000000000046 .L0 
C:\Users\stapi\AppData\Local\Temp\cczdkX9j.s:96     .text.cau_tdes_calculate:000000000000004e .L0 
C:\Users\stapi\AppData\Local\Temp\cczdkX9j.s:97     .text.cau_tdes_calculate:000000000000004e .L0 
C:\Users\stapi\AppData\Local\Temp\cczdkX9j.s:98     .text.cau_tdes_calculate:000000000000004e .L0 
C:\Users\stapi\AppData\Local\Temp\cczdkX9j.s:101    .text.cau_tdes_calculate:0000000000000050 .L0 
C:\Users\stapi\AppData\Local\Temp\cczdkX9j.s:102    .text.cau_tdes_calculate:0000000000000050 .L0 
C:\Users\stapi\AppData\Local\Temp\cczdkX9j.s:103    .text.cau_tdes_calculate:0000000000000050 .L0 
C:\Users\stapi\AppData\Local\Temp\cczdkX9j.s:107    .text.cau_tdes_calculate:000000000000005a .L0 
C:\Users\stapi\AppData\Local\Temp\cczdkX9j.s:108    .text.cau_tdes_calculate:000000000000005a .L0 
C:\Users\stapi\AppData\Local\Temp\cczdkX9j.s:112    .text.cau_tdes_calculate:0000000000000060 .L0 
C:\Users\stapi\AppData\Local\Temp\cczdkX9j.s:113    .text.cau_tdes_calculate:0000000000000060 .L0 
C:\Users\stapi\AppData\Local\Temp\cczdkX9j.s:115    .text.cau_tdes_calculate:0000000000000062 .L0 
C:\Users\stapi\AppData\Local\Temp\cczdkX9j.s:117    .text.cau_tdes_calculate:0000000000000066 .L0 
C:\Users\stapi\AppData\Local\Temp\cczdkX9j.s:120    .text.cau_tdes_calculate:0000000000000068 .L0 
C:\Users\stapi\AppData\Local\Temp\cczdkX9j.s:121    .text.cau_tdes_calculate:0000000000000068 .L0 
C:\Users\stapi\AppData\Local\Temp\cczdkX9j.s:124    .text.cau_tdes_calculate:0000000000000070 .L0 
C:\Users\stapi\AppData\Local\Temp\cczdkX9j.s:127    .text.cau_tdes_calculate:0000000000000072 .L0 
C:\Users\stapi\AppData\Local\Temp\cczdkX9j.s:128    .text.cau_tdes_calculate:0000000000000072 .L0 
C:\Users\stapi\AppData\Local\Temp\cczdkX9j.s:129    .text.cau_tdes_calculate:0000000000000072 .L0 
C:\Users\stapi\AppData\Local\Temp\cczdkX9j.s:132    .text.cau_tdes_calculate:000000000000007a .L0 
C:\Users\stapi\AppData\Local\Temp\cczdkX9j.s:134    .text.cau_tdes_calculate:000000000000007c .L0 
C:\Users\stapi\AppData\Local\Temp\cczdkX9j.s:135    .text.cau_tdes_calculate:000000000000007c .L0 
C:\Users\stapi\AppData\Local\Temp\cczdkX9j.s:138    .text.cau_tdes_calculate:000000000000007e .L0 
C:\Users\stapi\AppData\Local\Temp\cczdkX9j.s:142    .text.cau_tdes_calculate:0000000000000080 .L0 
C:\Users\stapi\AppData\Local\Temp\cczdkX9j.s:143    .text.cau_tdes_calculate:0000000000000080 .L0 
C:\Users\stapi\AppData\Local\Temp\cczdkX9j.s:145    .text.cau_tdes_calculate:0000000000000084 .L0 
C:\Users\stapi\AppData\Local\Temp\cczdkX9j.s:152    .text.cau_tdes_ecb:0000000000000000 cau_tdes_ecb
C:\Users\stapi\AppData\Local\Temp\cczdkX9j.s:155    .text.cau_tdes_ecb:0000000000000000 .L0 
C:\Users\stapi\AppData\Local\Temp\cczdkX9j.s:157    .text.cau_tdes_ecb:0000000000000000 .L0 
C:\Users\stapi\AppData\Local\Temp\cczdkX9j.s:158    .text.cau_tdes_ecb:0000000000000008 .L0 
C:\Users\stapi\AppData\Local\Temp\cczdkX9j.s:159    .text.cau_tdes_ecb:0000000000000008 .L0 
C:\Users\stapi\AppData\Local\Temp\cczdkX9j.s:160    .text.cau_tdes_ecb:0000000000000008 .L0 
C:\Users\stapi\AppData\Local\Temp\cczdkX9j.s:161    .text.cau_tdes_ecb:0000000000000008 .L0 
C:\Users\stapi\AppData\Local\Temp\cczdkX9j.s:162    .text.cau_tdes_ecb:0000000000000008 .L0 
C:\Users\stapi\AppData\Local\Temp\cczdkX9j.s:163    .text.cau_tdes_ecb:0000000000000008 .L0 
C:\Users\stapi\AppData\Local\Temp\cczdkX9j.s:166    .text.cau_tdes_ecb:0000000000000008 .L0 
C:\Users\stapi\AppData\Local\Temp\cczdkX9j.s:167    .text.cau_tdes_ecb:0000000000000008 .L0 
C:\Users\stapi\AppData\Local\Temp\cczdkX9j.s:168    .text.cau_tdes_ecb:0000000000000008 .L0 
C:\Users\stapi\AppData\Local\Temp\cczdkX9j.s:169    .text.cau_tdes_ecb:0000000000000008 .L0 
C:\Users\stapi\AppData\Local\Temp\cczdkX9j.s:170    .text.cau_tdes_ecb:000000000000000a .L0 
C:\Users\stapi\AppData\Local\Temp\cczdkX9j.s:172    .text.cau_tdes_ecb:000000000000000a .L0 
C:\Users\stapi\AppData\Local\Temp\cczdkX9j.s:175    .text.cau_tdes_ecb:000000000000000c .L0 
C:\Users\stapi\AppData\Local\Temp\cczdkX9j.s:176    .text.cau_tdes_ecb:000000000000000c .L0 
C:\Users\stapi\AppData\Local\Temp\cczdkX9j.s:178    .text.cau_tdes_ecb:000000000000000e .L0 
C:\Users\stapi\AppData\Local\Temp\cczdkX9j.s:181    .text.cau_tdes_ecb:0000000000000012 .L0 
C:\Users\stapi\AppData\Local\Temp\cczdkX9j.s:182    .text.cau_tdes_ecb:0000000000000012 .L0 
C:\Users\stapi\AppData\Local\Temp\cczdkX9j.s:185    .text.cau_tdes_ecb:0000000000000014 .L0 
C:\Users\stapi\AppData\Local\Temp\cczdkX9j.s:188    .text.cau_tdes_ecb:0000000000000016 .L0 
C:\Users\stapi\AppData\Local\Temp\cczdkX9j.s:191    .text.cau_tdes_ecb:000000000000001e .L0 
C:\Users\stapi\AppData\Local\Temp\cczdkX9j.s:197    .text.cau_tdes_ecb:000000000000002e .L0 
C:\Users\stapi\AppData\Local\Temp\cczdkX9j.s:199    .text.cau_tdes_ecb:0000000000000030 .L0 
C:\Users\stapi\AppData\Local\Temp\cczdkX9j.s:206    .text.cau_tdes_ecb:0000000000000036 .L0 
C:\Users\stapi\AppData\Local\Temp\cczdkX9j.s:207    .text.cau_tdes_ecb:0000000000000036 .L0 
C:\Users\stapi\AppData\Local\Temp\cczdkX9j.s:210    .text.cau_tdes_ecb:0000000000000036 .L0 
C:\Users\stapi\AppData\Local\Temp\cczdkX9j.s:211    .text.cau_tdes_ecb:0000000000000036 .L0 
C:\Users\stapi\AppData\Local\Temp\cczdkX9j.s:214    .text.cau_tdes_ecb:0000000000000038 .L0 
C:\Users\stapi\AppData\Local\Temp\cczdkX9j.s:215    .text.cau_tdes_ecb:0000000000000038 .L0 
C:\Users\stapi\AppData\Local\Temp\cczdkX9j.s:221    .text.cau_tdes_ecb:000000000000003e .L0 
C:\Users\stapi\AppData\Local\Temp\cczdkX9j.s:222    .text.cau_tdes_ecb:000000000000003e .L0 
C:\Users\stapi\AppData\Local\Temp\cczdkX9j.s:225    .text.cau_tdes_ecb:000000000000003e .L0 
C:\Users\stapi\AppData\Local\Temp\cczdkX9j.s:226    .text.cau_tdes_ecb:000000000000003e .L0 
C:\Users\stapi\AppData\Local\Temp\cczdkX9j.s:229    .text.cau_tdes_ecb:0000000000000040 .L0 
C:\Users\stapi\AppData\Local\Temp\cczdkX9j.s:230    .text.cau_tdes_ecb:0000000000000040 .L0 
C:\Users\stapi\AppData\Local\Temp\cczdkX9j.s:236    .text.cau_tdes_ecb:0000000000000046 .L0 
C:\Users\stapi\AppData\Local\Temp\cczdkX9j.s:237    .text.cau_tdes_ecb:0000000000000046 .L0 
C:\Users\stapi\AppData\Local\Temp\cczdkX9j.s:240    .text.cau_tdes_ecb:0000000000000046 .L0 
C:\Users\stapi\AppData\Local\Temp\cczdkX9j.s:241    .text.cau_tdes_ecb:0000000000000046 .L0 
C:\Users\stapi\AppData\Local\Temp\cczdkX9j.s:244    .text.cau_tdes_ecb:0000000000000048 .L0 
C:\Users\stapi\AppData\Local\Temp\cczdkX9j.s:245    .text.cau_tdes_ecb:0000000000000048 .L0 
C:\Users\stapi\AppData\Local\Temp\cczdkX9j.s:251    .text.cau_tdes_ecb:000000000000004e .L0 
C:\Users\stapi\AppData\Local\Temp\cczdkX9j.s:252    .text.cau_tdes_ecb:000000000000004e .L0 
C:\Users\stapi\AppData\Local\Temp\cczdkX9j.s:255    .text.cau_tdes_ecb:000000000000004e .L0 
C:\Users\stapi\AppData\Local\Temp\cczdkX9j.s:256    .text.cau_tdes_ecb:000000000000004e .L0 
C:\Users\stapi\AppData\Local\Temp\cczdkX9j.s:259    .text.cau_tdes_ecb:0000000000000050 .L0 
C:\Users\stapi\AppData\Local\Temp\cczdkX9j.s:260    .text.cau_tdes_ecb:0000000000000050 .L0 
C:\Users\stapi\AppData\Local\Temp\cczdkX9j.s:266    .text.cau_tdes_ecb:0000000000000056 .L0 
C:\Users\stapi\AppData\Local\Temp\cczdkX9j.s:267    .text.cau_tdes_ecb:0000000000000056 .L0 
C:\Users\stapi\AppData\Local\Temp\cczdkX9j.s:270    .text.cau_tdes_ecb:0000000000000056 .L0 
C:\Users\stapi\AppData\Local\Temp\cczdkX9j.s:271    .text.cau_tdes_ecb:0000000000000056 .L0 
C:\Users\stapi\AppData\Local\Temp\cczdkX9j.s:274    .text.cau_tdes_ecb:0000000000000058 .L0 
C:\Users\stapi\AppData\Local\Temp\cczdkX9j.s:275    .text.cau_tdes_ecb:0000000000000058 .L0 
C:\Users\stapi\AppData\Local\Temp\cczdkX9j.s:281    .text.cau_tdes_ecb:000000000000005e .L0 
C:\Users\stapi\AppData\Local\Temp\cczdkX9j.s:282    .text.cau_tdes_ecb:000000000000005e .L0 
C:\Users\stapi\AppData\Local\Temp\cczdkX9j.s:285    .text.cau_tdes_ecb:000000000000005e .L0 
C:\Users\stapi\AppData\Local\Temp\cczdkX9j.s:286    .text.cau_tdes_ecb:000000000000005e .L0 
C:\Users\stapi\AppData\Local\Temp\cczdkX9j.s:288    .text.cau_tdes_ecb:0000000000000060 .L0 
C:\Users\stapi\AppData\Local\Temp\cczdkX9j.s:291    .text.cau_tdes_ecb:0000000000000068 .L0 
C:\Users\stapi\AppData\Local\Temp\cczdkX9j.s:294    .text.cau_tdes_ecb:0000000000000070 .L0 
C:\Users\stapi\AppData\Local\Temp\cczdkX9j.s:297    .text.cau_tdes_ecb:0000000000000078 .L0 
C:\Users\stapi\AppData\Local\Temp\cczdkX9j.s:298    .text.cau_tdes_ecb:0000000000000078 .L0 
C:\Users\stapi\AppData\Local\Temp\cczdkX9j.s:306    .text.cau_tdes_ecb:0000000000000088 .L0 
C:\Users\stapi\AppData\Local\Temp\cczdkX9j.s:309    .text.cau_tdes_ecb:0000000000000090 .L0 
C:\Users\stapi\AppData\Local\Temp\cczdkX9j.s:310    .text.cau_tdes_ecb:0000000000000090 .L0 
C:\Users\stapi\AppData\Local\Temp\cczdkX9j.s:312    .text.cau_tdes_ecb:0000000000000094 .L0 
C:\Users\stapi\AppData\Local\Temp\cczdkX9j.s:315    .text.cau_tdes_ecb:000000000000009c .L0 
C:\Users\stapi\AppData\Local\Temp\cczdkX9j.s:316    .text.cau_tdes_ecb:000000000000009c .L0 
C:\Users\stapi\AppData\Local\Temp\cczdkX9j.s:317    .text.cau_tdes_ecb:000000000000009c .L0 
C:\Users\stapi\AppData\Local\Temp\cczdkX9j.s:318    .text.cau_tdes_ecb:000000000000009c .L0 
C:\Users\stapi\AppData\Local\Temp\cczdkX9j.s:319    .text.cau_tdes_ecb:000000000000009c .L0 
C:\Users\stapi\AppData\Local\Temp\cczdkX9j.s:320    .text.cau_tdes_ecb:000000000000009c .L0 
C:\Users\stapi\AppData\Local\Temp\cczdkX9j.s:321    .text.cau_tdes_ecb:000000000000009c .L0 
C:\Users\stapi\AppData\Local\Temp\cczdkX9j.s:328    .text.cau_tdes_cbc:0000000000000000 cau_tdes_cbc
C:\Users\stapi\AppData\Local\Temp\cczdkX9j.s:331    .text.cau_tdes_cbc:0000000000000000 .L0 
C:\Users\stapi\AppData\Local\Temp\cczdkX9j.s:333    .text.cau_tdes_cbc:0000000000000000 .L0 
C:\Users\stapi\AppData\Local\Temp\cczdkX9j.s:334    .text.cau_tdes_cbc:0000000000000008 .L0 
C:\Users\stapi\AppData\Local\Temp\cczdkX9j.s:335    .text.cau_tdes_cbc:0000000000000008 .L0 
C:\Users\stapi\AppData\Local\Temp\cczdkX9j.s:336    .text.cau_tdes_cbc:0000000000000008 .L0 
C:\Users\stapi\AppData\Local\Temp\cczdkX9j.s:337    .text.cau_tdes_cbc:0000000000000008 .L0 
C:\Users\stapi\AppData\Local\Temp\cczdkX9j.s:338    .text.cau_tdes_cbc:0000000000000008 .L0 
C:\Users\stapi\AppData\Local\Temp\cczdkX9j.s:339    .text.cau_tdes_cbc:0000000000000008 .L0 
C:\Users\stapi\AppData\Local\Temp\cczdkX9j.s:340    .text.cau_tdes_cbc:0000000000000008 .L0 
C:\Users\stapi\AppData\Local\Temp\cczdkX9j.s:343    .text.cau_tdes_cbc:0000000000000008 .L0 
C:\Users\stapi\AppData\Local\Temp\cczdkX9j.s:344    .text.cau_tdes_cbc:0000000000000008 .L0 
C:\Users\stapi\AppData\Local\Temp\cczdkX9j.s:345    .text.cau_tdes_cbc:0000000000000008 .L0 
C:\Users\stapi\AppData\Local\Temp\cczdkX9j.s:346    .text.cau_tdes_cbc:0000000000000008 .L0 
C:\Users\stapi\AppData\Local\Temp\cczdkX9j.s:347    .text.cau_tdes_cbc:0000000000000008 .L0 
C:\Users\stapi\AppData\Local\Temp\cczdkX9j.s:348    .text.cau_tdes_cbc:000000000000000a .L0 
C:\Users\stapi\AppData\Local\Temp\cczdkX9j.s:350    .text.cau_tdes_cbc:000000000000000a .L0 
C:\Users\stapi\AppData\Local\Temp\cczdkX9j.s:353    .text.cau_tdes_cbc:000000000000000c .L0 
C:\Users\stapi\AppData\Local\Temp\cczdkX9j.s:354    .text.cau_tdes_cbc:000000000000000c .L0 
C:\Users\stapi\AppData\Local\Temp\cczdkX9j.s:356    .text.cau_tdes_cbc:0000000000000010 .L0 
C:\Users\stapi\AppData\Local\Temp\cczdkX9j.s:358    .text.cau_tdes_cbc:0000000000000012 .L0 
C:\Users\stapi\AppData\Local\Temp\cczdkX9j.s:361    .text.cau_tdes_cbc:0000000000000016 .L0 
C:\Users\stapi\AppData\Local\Temp\cczdkX9j.s:362    .text.cau_tdes_cbc:0000000000000016 .L0 
C:\Users\stapi\AppData\Local\Temp\cczdkX9j.s:365    .text.cau_tdes_cbc:0000000000000018 .L0 
C:\Users\stapi\AppData\Local\Temp\cczdkX9j.s:368    .text.cau_tdes_cbc:000000000000001a .L0 
C:\Users\stapi\AppData\Local\Temp\cczdkX9j.s:369    .text.cau_tdes_cbc:000000000000001a .L0 
C:\Users\stapi\AppData\Local\Temp\cczdkX9j.s:372    .text.cau_tdes_cbc:0000000000000022 .L0 
C:\Users\stapi\AppData\Local\Temp\cczdkX9j.s:378    .text.cau_tdes_cbc:0000000000000032 .L0 
C:\Users\stapi\AppData\Local\Temp\cczdkX9j.s:380    .text.cau_tdes_cbc:0000000000000034 .L0 
C:\Users\stapi\AppData\Local\Temp\cczdkX9j.s:386    .text.cau_tdes_cbc:000000000000003a .L0 
C:\Users\stapi\AppData\Local\Temp\cczdkX9j.s:387    .text.cau_tdes_cbc:000000000000003a .L0 
C:\Users\stapi\AppData\Local\Temp\cczdkX9j.s:390    .text.cau_tdes_cbc:000000000000003a .L0 
C:\Users\stapi\AppData\Local\Temp\cczdkX9j.s:391    .text.cau_tdes_cbc:000000000000003a .L0 
C:\Users\stapi\AppData\Local\Temp\cczdkX9j.s:394    .text.cau_tdes_cbc:000000000000003c .L0 
C:\Users\stapi\AppData\Local\Temp\cczdkX9j.s:395    .text.cau_tdes_cbc:000000000000003c .L0 
C:\Users\stapi\AppData\Local\Temp\cczdkX9j.s:401    .text.cau_tdes_cbc:0000000000000042 .L0 
C:\Users\stapi\AppData\Local\Temp\cczdkX9j.s:402    .text.cau_tdes_cbc:0000000000000042 .L0 
C:\Users\stapi\AppData\Local\Temp\cczdkX9j.s:405    .text.cau_tdes_cbc:0000000000000042 .L0 
C:\Users\stapi\AppData\Local\Temp\cczdkX9j.s:406    .text.cau_tdes_cbc:0000000000000042 .L0 
C:\Users\stapi\AppData\Local\Temp\cczdkX9j.s:409    .text.cau_tdes_cbc:0000000000000044 .L0 
C:\Users\stapi\AppData\Local\Temp\cczdkX9j.s:410    .text.cau_tdes_cbc:0000000000000044 .L0 
C:\Users\stapi\AppData\Local\Temp\cczdkX9j.s:416    .text.cau_tdes_cbc:000000000000004a .L0 
C:\Users\stapi\AppData\Local\Temp\cczdkX9j.s:417    .text.cau_tdes_cbc:000000000000004a .L0 
C:\Users\stapi\AppData\Local\Temp\cczdkX9j.s:420    .text.cau_tdes_cbc:000000000000004a .L0 
C:\Users\stapi\AppData\Local\Temp\cczdkX9j.s:421    .text.cau_tdes_cbc:000000000000004a .L0 
C:\Users\stapi\AppData\Local\Temp\cczdkX9j.s:424    .text.cau_tdes_cbc:000000000000004c .L0 
C:\Users\stapi\AppData\Local\Temp\cczdkX9j.s:425    .text.cau_tdes_cbc:000000000000004c .L0 
C:\Users\stapi\AppData\Local\Temp\cczdkX9j.s:431    .text.cau_tdes_cbc:0000000000000052 .L0 
C:\Users\stapi\AppData\Local\Temp\cczdkX9j.s:432    .text.cau_tdes_cbc:0000000000000052 .L0 
C:\Users\stapi\AppData\Local\Temp\cczdkX9j.s:435    .text.cau_tdes_cbc:0000000000000052 .L0 
C:\Users\stapi\AppData\Local\Temp\cczdkX9j.s:436    .text.cau_tdes_cbc:0000000000000052 .L0 
C:\Users\stapi\AppData\Local\Temp\cczdkX9j.s:439    .text.cau_tdes_cbc:0000000000000054 .L0 
C:\Users\stapi\AppData\Local\Temp\cczdkX9j.s:440    .text.cau_tdes_cbc:0000000000000054 .L0 
C:\Users\stapi\AppData\Local\Temp\cczdkX9j.s:446    .text.cau_tdes_cbc:000000000000005a .L0 
C:\Users\stapi\AppData\Local\Temp\cczdkX9j.s:447    .text.cau_tdes_cbc:000000000000005a .L0 
C:\Users\stapi\AppData\Local\Temp\cczdkX9j.s:450    .text.cau_tdes_cbc:000000000000005a .L0 
C:\Users\stapi\AppData\Local\Temp\cczdkX9j.s:451    .text.cau_tdes_cbc:000000000000005a .L0 
C:\Users\stapi\AppData\Local\Temp\cczdkX9j.s:454    .text.cau_tdes_cbc:000000000000005c .L0 
C:\Users\stapi\AppData\Local\Temp\cczdkX9j.s:455    .text.cau_tdes_cbc:000000000000005c .L0 
C:\Users\stapi\AppData\Local\Temp\cczdkX9j.s:461    .text.cau_tdes_cbc:0000000000000062 .L0 
C:\Users\stapi\AppData\Local\Temp\cczdkX9j.s:462    .text.cau_tdes_cbc:0000000000000062 .L0 
C:\Users\stapi\AppData\Local\Temp\cczdkX9j.s:465    .text.cau_tdes_cbc:0000000000000062 .L0 
C:\Users\stapi\AppData\Local\Temp\cczdkX9j.s:466    .text.cau_tdes_cbc:0000000000000062 .L0 
C:\Users\stapi\AppData\Local\Temp\cczdkX9j.s:468    .text.cau_tdes_cbc:0000000000000064 .L0 
C:\Users\stapi\AppData\Local\Temp\cczdkX9j.s:471    .text.cau_tdes_cbc:000000000000006c .L0 
C:\Users\stapi\AppData\Local\Temp\cczdkX9j.s:473    .text.cau_tdes_cbc:0000000000000070 .L0 
C:\Users\stapi\AppData\Local\Temp\cczdkX9j.s:479    .text.cau_tdes_cbc:0000000000000076 .L0 
C:\Users\stapi\AppData\Local\Temp\cczdkX9j.s:480    .text.cau_tdes_cbc:0000000000000076 .L0 
C:\Users\stapi\AppData\Local\Temp\cczdkX9j.s:483    .text.cau_tdes_cbc:0000000000000076 .L0 
C:\Users\stapi\AppData\Local\Temp\cczdkX9j.s:484    .text.cau_tdes_cbc:0000000000000076 .L0 
C:\Users\stapi\AppData\Local\Temp\cczdkX9j.s:487    .text.cau_tdes_cbc:0000000000000078 .L0 
C:\Users\stapi\AppData\Local\Temp\cczdkX9j.s:488    .text.cau_tdes_cbc:0000000000000078 .L0 
C:\Users\stapi\AppData\Local\Temp\cczdkX9j.s:494    .text.cau_tdes_cbc:0000000000000080 .L0 
C:\Users\stapi\AppData\Local\Temp\cczdkX9j.s:495    .text.cau_tdes_cbc:0000000000000080 .L0 
C:\Users\stapi\AppData\Local\Temp\cczdkX9j.s:498    .text.cau_tdes_cbc:0000000000000080 .L0 
C:\Users\stapi\AppData\Local\Temp\cczdkX9j.s:499    .text.cau_tdes_cbc:0000000000000080 .L0 
C:\Users\stapi\AppData\Local\Temp\cczdkX9j.s:501    .text.cau_tdes_cbc:0000000000000082 .L0 
C:\Users\stapi\AppData\Local\Temp\cczdkX9j.s:504    .text.cau_tdes_cbc:000000000000008a .L0 
C:\Users\stapi\AppData\Local\Temp\cczdkX9j.s:507    .text.cau_tdes_cbc:0000000000000092 .L0 
C:\Users\stapi\AppData\Local\Temp\cczdkX9j.s:510    .text.cau_tdes_cbc:000000000000009a .L0 
C:\Users\stapi\AppData\Local\Temp\cczdkX9j.s:511    .text.cau_tdes_cbc:000000000000009a .L0 
C:\Users\stapi\AppData\Local\Temp\cczdkX9j.s:519    .text.cau_tdes_cbc:00000000000000aa .L0 
C:\Users\stapi\AppData\Local\Temp\cczdkX9j.s:522    .text.cau_tdes_cbc:00000000000000b2 .L0 
C:\Users\stapi\AppData\Local\Temp\cczdkX9j.s:523    .text.cau_tdes_cbc:00000000000000b2 .L0 
C:\Users\stapi\AppData\Local\Temp\cczdkX9j.s:525    .text.cau_tdes_cbc:00000000000000b6 .L0 
C:\Users\stapi\AppData\Local\Temp\cczdkX9j.s:528    .text.cau_tdes_cbc:00000000000000be .L0 
C:\Users\stapi\AppData\Local\Temp\cczdkX9j.s:529    .text.cau_tdes_cbc:00000000000000be .L0 
C:\Users\stapi\AppData\Local\Temp\cczdkX9j.s:530    .text.cau_tdes_cbc:00000000000000be .L0 
C:\Users\stapi\AppData\Local\Temp\cczdkX9j.s:531    .text.cau_tdes_cbc:00000000000000be .L0 
C:\Users\stapi\AppData\Local\Temp\cczdkX9j.s:532    .text.cau_tdes_cbc:00000000000000be .L0 
C:\Users\stapi\AppData\Local\Temp\cczdkX9j.s:533    .text.cau_tdes_cbc:00000000000000be .L0 
C:\Users\stapi\AppData\Local\Temp\cczdkX9j.s:534    .text.cau_tdes_cbc:00000000000000be .L0 
C:\Users\stapi\AppData\Local\Temp\cczdkX9j.s:535    .text.cau_tdes_cbc:00000000000000be .L0 
C:\Users\stapi\AppData\Local\Temp\cczdkX9j.s:148    .text.cau_tdes_calculate:0000000000000084 .L0 
C:\Users\stapi\AppData\Local\Temp\cczdkX9j.s:324    .text.cau_tdes_ecb:000000000000009c .L0 
C:\Users\stapi\AppData\Local\Temp\cczdkX9j.s:538    .text.cau_tdes_cbc:00000000000000be .L0 
                     .debug_frame:0000000000000000 .L0 
C:\Users\stapi\AppData\Local\Temp\cczdkX9j.s:66     .text.cau_tdes_calculate:0000000000000028 .L2
C:\Users\stapi\AppData\Local\Temp\cczdkX9j.s:81     .text.cau_tdes_calculate:0000000000000038 .L9
C:\Users\stapi\AppData\Local\Temp\cczdkX9j.s:52     .text.cau_tdes_calculate:000000000000001e .L1
C:\Users\stapi\AppData\Local\Temp\cczdkX9j.s:140    .text.cau_tdes_calculate:0000000000000080 .L5
C:\Users\stapi\AppData\Local\Temp\cczdkX9j.s:99     .text.cau_tdes_calculate:0000000000000050 .L6
C:\Users\stapi\AppData\Local\Temp\cczdkX9j.s:73     .text.cau_tdes_calculate:000000000000002c .L4
C:\Users\stapi\AppData\Local\Temp\cczdkX9j.s:118    .text.cau_tdes_calculate:0000000000000068 .L7
C:\Users\stapi\AppData\Local\Temp\cczdkX9j.s:49     .text.cau_tdes_calculate:000000000000001c .L8
C:\Users\stapi\AppData\Local\Temp\cczdkX9j.s:1520   .debug_abbrev:0000000000000000 .Ldebug_abbrev0
C:\Users\stapi\AppData\Local\Temp\cczdkX9j.s:2431   .debug_str:000000000000013e .LASF64
C:\Users\stapi\AppData\Local\Temp\cczdkX9j.s:2509   .debug_str:0000000000000462 .LASF65
C:\Users\stapi\AppData\Local\Temp\cczdkX9j.s:2495   .debug_str:000000000000039b .LASF66
C:\Users\stapi\AppData\Local\Temp\cczdkX9j.s:2365   .debug_ranges:0000000000000000 .Ldebug_ranges0
C:\Users\stapi\AppData\Local\Temp\cczdkX9j.s:2375   .debug_line:0000000000000000 .Ldebug_line0
C:\Users\stapi\AppData\Local\Temp\cczdkX9j.s:2467   .debug_str:00000000000002f7 .LASF0
C:\Users\stapi\AppData\Local\Temp\cczdkX9j.s:2457   .debug_str:00000000000002b5 .LASF1
C:\Users\stapi\AppData\Local\Temp\cczdkX9j.s:2441   .debug_str:0000000000000264 .LASF6
C:\Users\stapi\AppData\Local\Temp\cczdkX9j.s:2453   .debug_str:000000000000029f .LASF2
C:\Users\stapi\AppData\Local\Temp\cczdkX9j.s:2427   .debug_str:000000000000012b .LASF3
C:\Users\stapi\AppData\Local\Temp\cczdkX9j.s:2477   .debug_str:0000000000000326 .LASF4
C:\Users\stapi\AppData\Local\Temp\cczdkX9j.s:2437   .debug_str:0000000000000251 .LASF5
C:\Users\stapi\AppData\Local\Temp\cczdkX9j.s:2497   .debug_str:0000000000000424 .LASF7
C:\Users\stapi\AppData\Local\Temp\cczdkX9j.s:2489   .debug_str:0000000000000375 .LASF8
C:\Users\stapi\AppData\Local\Temp\cczdkX9j.s:2433   .debug_str:0000000000000237 .LASF9
C:\Users\stapi\AppData\Local\Temp\cczdkX9j.s:2459   .debug_str:00000000000002c1 .LASF10
C:\Users\stapi\AppData\Local\Temp\cczdkX9j.s:2479   .debug_str:0000000000000339 .LASF11
C:\Users\stapi\AppData\Local\Temp\cczdkX9j.s:2417   .debug_str:00000000000000fe .LASF12
C:\Users\stapi\AppData\Local\Temp\cczdkX9j.s:2461   .debug_str:00000000000002d8 .LASF13
C:\Users\stapi\AppData\Local\Temp\cczdkX9j.s:2485   .debug_str:0000000000000354 .LASF14
C:\Users\stapi\AppData\Local\Temp\cczdkX9j.s:2517   .debug_str:0000000000000536 .LASF15
C:\Users\stapi\AppData\Local\Temp\cczdkX9j.s:2501   .debug_str:0000000000000438 .LASF16
C:\Users\stapi\AppData\Local\Temp\cczdkX9j.s:2445   .debug_str:0000000000000278 .LASF17
C:\Users\stapi\AppData\Local\Temp\cczdkX9j.s:2473   .debug_str:0000000000000316 .LASF18
C:\Users\stapi\AppData\Local\Temp\cczdkX9j.s:2395   .debug_str:000000000000007f .LASF19
C:\Users\stapi\AppData\Local\Temp\cczdkX9j.s:2451   .debug_str:0000000000000294 .LASF20
C:\Users\stapi\AppData\Local\Temp\cczdkX9j.s:2515   .debug_str:000000000000052c .LASF21
C:\Users\stapi\AppData\Local\Temp\cczdkX9j.s:2399   .debug_str:0000000000000095 .LASF22
C:\Users\stapi\AppData\Local\Temp\cczdkX9j.s:2471   .debug_str:000000000000030c .LASF23
C:\Users\stapi\AppData\Local\Temp\cczdkX9j.s:2483   .debug_str:0000000000000349 .LASF24
C:\Users\stapi\AppData\Local\Temp\cczdkX9j.s:2511   .debug_str:000000000000050a .LASF25
C:\Users\stapi\AppData\Local\Temp\cczdkX9j.s:2393   .debug_str:0000000000000074 .LASF26
C:\Users\stapi\AppData\Local\Temp\cczdkX9j.s:2405   .debug_str:00000000000000b8 .LASF27
C:\Users\stapi\AppData\Local\Temp\cczdkX9j.s:2487   .debug_str:000000000000035c .LASF28
C:\Users\stapi\AppData\Local\Temp\cczdkX9j.s:2443   .debug_str:000000000000026e .LASF29
C:\Users\stapi\AppData\Local\Temp\cczdkX9j.s:2447   .debug_str:000000000000027e .LASF30
C:\Users\stapi\AppData\Local\Temp\cczdkX9j.s:2403   .debug_str:00000000000000ae .LASF31
C:\Users\stapi\AppData\Local\Temp\cczdkX9j.s:2465   .debug_str:00000000000002ee .LASF32
C:\Users\stapi\AppData\Local\Temp\cczdkX9j.s:2513   .debug_str:0000000000000514 .LASF33
C:\Users\stapi\AppData\Local\Temp\cczdkX9j.s:2469   .debug_str:0000000000000304 .LASF34
C:\Users\stapi\AppData\Local\Temp\cczdkX9j.s:2499   .debug_str:000000000000042f .LASF35
C:\Users\stapi\AppData\Local\Temp\cczdkX9j.s:2475   .debug_str:000000000000031e .LASF36
C:\Users\stapi\AppData\Local\Temp\cczdkX9j.s:2389   .debug_str:000000000000005b .LASF37
C:\Users\stapi\AppData\Local\Temp\cczdkX9j.s:2439   .debug_str:000000000000025a .LASF38
C:\Users\stapi\AppData\Local\Temp\cczdkX9j.s:2493   .debug_str:0000000000000392 .LASF39
C:\Users\stapi\AppData\Local\Temp\cczdkX9j.s:2409   .debug_str:00000000000000cf .LASF40
C:\Users\stapi\AppData\Local\Temp\cczdkX9j.s:2391   .debug_str:0000000000000061 .LASF67
C:\Users\stapi\AppData\Local\Temp\cczdkX9j.s:13     .text.cau_tdes_calculate:0000000000000000 .LFB367
C:\Users\stapi\AppData\Local\Temp\cczdkX9j.s:146    .text.cau_tdes_calculate:0000000000000084 .LFE367
C:\Users\stapi\AppData\Local\Temp\cczdkX9j.s:1957   .debug_loc:0000000000000000 .LLST0
C:\Users\stapi\AppData\Local\Temp\cczdkX9j.s:1968   .debug_loc:000000000000001e .LLST1
C:\Users\stapi\AppData\Local\Temp\cczdkX9j.s:2505   .debug_str:000000000000044d .LASF41
C:\Users\stapi\AppData\Local\Temp\cczdkX9j.s:1979   .debug_loc:000000000000003c .LLST2
C:\Users\stapi\AppData\Local\Temp\cczdkX9j.s:2381   .debug_str:000000000000001c .LASF42
C:\Users\stapi\AppData\Local\Temp\cczdkX9j.s:2008   .debug_loc:0000000000000081 .LLST3
C:\Users\stapi\AppData\Local\Temp\cczdkX9j.s:2419   .debug_str:0000000000000106 .LASF43
C:\Users\stapi\AppData\Local\Temp\cczdkX9j.s:2043   .debug_loc:00000000000000da .LLST4
C:\Users\stapi\AppData\Local\Temp\cczdkX9j.s:2077   .debug_loc:0000000000000124 .LLST5
C:\Users\stapi\AppData\Local\Temp\cczdkX9j.s:2455   .debug_str:00000000000002ad .LASF44
C:\Users\stapi\AppData\Local\Temp\cczdkX9j.s:2491   .debug_str:0000000000000387 .LASF45
C:\Users\stapi\AppData\Local\Temp\cczdkX9j.s:2130   .debug_loc:0000000000000188 .LLST6
C:\Users\stapi\AppData\Local\Temp\cczdkX9j.s:45     .text.cau_tdes_calculate:000000000000001a .LVL3
C:\Users\stapi\AppData\Local\Temp\cczdkX9j.s:85     .text.cau_tdes_calculate:0000000000000042 .LVL7
C:\Users\stapi\AppData\Local\Temp\cczdkX9j.s:94     .text.cau_tdes_calculate:000000000000004e .LVL9
C:\Users\stapi\AppData\Local\Temp\cczdkX9j.s:105    .text.cau_tdes_calculate:000000000000005a .LVL10
C:\Users\stapi\AppData\Local\Temp\cczdkX9j.s:122    .text.cau_tdes_calculate:0000000000000070 .LVL11
C:\Users\stapi\AppData\Local\Temp\cczdkX9j.s:130    .text.cau_tdes_calculate:000000000000007a .LVL13
C:\Users\stapi\AppData\Local\Temp\cczdkX9j.s:2407   .debug_str:00000000000000c2 .LASF51
C:\Users\stapi\AppData\Local\Temp\cczdkX9j.s:329    .text.cau_tdes_cbc:0000000000000000 .LFB366
C:\Users\stapi\AppData\Local\Temp\cczdkX9j.s:536    .text.cau_tdes_cbc:00000000000000be .LFE366
C:\Users\stapi\AppData\Local\Temp\cczdkX9j.s:2401   .debug_str:00000000000000a0 .LASF46
C:\Users\stapi\AppData\Local\Temp\cczdkX9j.s:2151   .debug_loc:00000000000001be .LLST12
C:\Users\stapi\AppData\Local\Temp\cczdkX9j.s:2162   .debug_loc:00000000000001dc .LLST13
C:\Users\stapi\AppData\Local\Temp\cczdkX9j.s:2173   .debug_loc:00000000000001fa .LLST14
C:\Users\stapi\AppData\Local\Temp\cczdkX9j.s:2463   .debug_str:00000000000002e1 .LASF47
C:\Users\stapi\AppData\Local\Temp\cczdkX9j.s:2397   .debug_str:0000000000000089 .LASF48
C:\Users\stapi\AppData\Local\Temp\cczdkX9j.s:2425   .debug_str:0000000000000123 .LASF49
C:\Users\stapi\AppData\Local\Temp\cczdkX9j.s:2195   .debug_loc:0000000000000231 .LLST15
C:\Users\stapi\AppData\Local\Temp\cczdkX9j.s:2232   .debug_loc:0000000000000285 .LLST16
C:\Users\stapi\AppData\Local\Temp\cczdkX9j.s:2411   .debug_str:00000000000000e4 .LASF50
C:\Users\stapi\AppData\Local\Temp\cczdkX9j.s:2243   .debug_loc:00000000000002a3 .LLST17
C:\Users\stapi\AppData\Local\Temp\cczdkX9j.s:383    .text.cau_tdes_cbc:000000000000003a .LBB42
C:\Users\stapi\AppData\Local\Temp\cczdkX9j.s:389    .text.cau_tdes_cbc:000000000000003a .LBE42
C:\Users\stapi\AppData\Local\Temp\cczdkX9j.s:398    .text.cau_tdes_cbc:0000000000000042 .LBB44
C:\Users\stapi\AppData\Local\Temp\cczdkX9j.s:404    .text.cau_tdes_cbc:0000000000000042 .LBE44
C:\Users\stapi\AppData\Local\Temp\cczdkX9j.s:413    .text.cau_tdes_cbc:000000000000004a .LBB46
C:\Users\stapi\AppData\Local\Temp\cczdkX9j.s:419    .text.cau_tdes_cbc:000000000000004a .LBE46
C:\Users\stapi\AppData\Local\Temp\cczdkX9j.s:428    .text.cau_tdes_cbc:0000000000000052 .LBB48
C:\Users\stapi\AppData\Local\Temp\cczdkX9j.s:434    .text.cau_tdes_cbc:0000000000000052 .LBE48
C:\Users\stapi\AppData\Local\Temp\cczdkX9j.s:443    .text.cau_tdes_cbc:000000000000005a .LBB50
C:\Users\stapi\AppData\Local\Temp\cczdkX9j.s:449    .text.cau_tdes_cbc:000000000000005a .LBE50
C:\Users\stapi\AppData\Local\Temp\cczdkX9j.s:458    .text.cau_tdes_cbc:0000000000000062 .LBB52
C:\Users\stapi\AppData\Local\Temp\cczdkX9j.s:464    .text.cau_tdes_cbc:0000000000000062 .LBE52
C:\Users\stapi\AppData\Local\Temp\cczdkX9j.s:476    .text.cau_tdes_cbc:0000000000000076 .LBB54
C:\Users\stapi\AppData\Local\Temp\cczdkX9j.s:482    .text.cau_tdes_cbc:0000000000000076 .LBE54
C:\Users\stapi\AppData\Local\Temp\cczdkX9j.s:491    .text.cau_tdes_cbc:0000000000000080 .LBB56
C:\Users\stapi\AppData\Local\Temp\cczdkX9j.s:497    .text.cau_tdes_cbc:0000000000000080 .LBE56
C:\Users\stapi\AppData\Local\Temp\cczdkX9j.s:370    .text.cau_tdes_cbc:0000000000000022 .LVL48
C:\Users\stapi\AppData\Local\Temp\cczdkX9j.s:376    .text.cau_tdes_cbc:0000000000000032 .LVL49
C:\Users\stapi\AppData\Local\Temp\cczdkX9j.s:469    .text.cau_tdes_cbc:000000000000006c .LVL61
C:\Users\stapi\AppData\Local\Temp\cczdkX9j.s:502    .text.cau_tdes_cbc:000000000000008a .LVL65
C:\Users\stapi\AppData\Local\Temp\cczdkX9j.s:505    .text.cau_tdes_cbc:0000000000000092 .LVL66
C:\Users\stapi\AppData\Local\Temp\cczdkX9j.s:508    .text.cau_tdes_cbc:000000000000009a .LVL67
C:\Users\stapi\AppData\Local\Temp\cczdkX9j.s:515    .text.cau_tdes_cbc:00000000000000a8 .LVL68
C:\Users\stapi\AppData\Local\Temp\cczdkX9j.s:520    .text.cau_tdes_cbc:00000000000000b2 .LVL70
C:\Users\stapi\AppData\Local\Temp\cczdkX9j.s:2415   .debug_str:00000000000000f1 .LASF52
C:\Users\stapi\AppData\Local\Temp\cczdkX9j.s:153    .text.cau_tdes_ecb:0000000000000000 .LFB365
C:\Users\stapi\AppData\Local\Temp\cczdkX9j.s:322    .text.cau_tdes_ecb:000000000000009c .LFE365
C:\Users\stapi\AppData\Local\Temp\cczdkX9j.s:2256   .debug_loc:00000000000002c3 .LLST7
C:\Users\stapi\AppData\Local\Temp\cczdkX9j.s:2267   .debug_loc:00000000000002e1 .LLST8
C:\Users\stapi\AppData\Local\Temp\cczdkX9j.s:2278   .debug_loc:00000000000002ff .LLST9
C:\Users\stapi\AppData\Local\Temp\cczdkX9j.s:2300   .debug_loc:0000000000000336 .LLST10
C:\Users\stapi\AppData\Local\Temp\cczdkX9j.s:2337   .debug_loc:000000000000038a .LLST11
C:\Users\stapi\AppData\Local\Temp\cczdkX9j.s:202    .text.cau_tdes_ecb:0000000000000036 .LBB30
C:\Users\stapi\AppData\Local\Temp\cczdkX9j.s:209    .text.cau_tdes_ecb:0000000000000036 .LBE30
C:\Users\stapi\AppData\Local\Temp\cczdkX9j.s:218    .text.cau_tdes_ecb:000000000000003e .LBB32
C:\Users\stapi\AppData\Local\Temp\cczdkX9j.s:224    .text.cau_tdes_ecb:000000000000003e .LBE32
C:\Users\stapi\AppData\Local\Temp\cczdkX9j.s:233    .text.cau_tdes_ecb:0000000000000046 .LBB34
C:\Users\stapi\AppData\Local\Temp\cczdkX9j.s:239    .text.cau_tdes_ecb:0000000000000046 .LBE34
C:\Users\stapi\AppData\Local\Temp\cczdkX9j.s:248    .text.cau_tdes_ecb:000000000000004e .LBB36
C:\Users\stapi\AppData\Local\Temp\cczdkX9j.s:254    .text.cau_tdes_ecb:000000000000004e .LBE36
C:\Users\stapi\AppData\Local\Temp\cczdkX9j.s:263    .text.cau_tdes_ecb:0000000000000056 .LBB38
C:\Users\stapi\AppData\Local\Temp\cczdkX9j.s:269    .text.cau_tdes_ecb:0000000000000056 .LBE38
C:\Users\stapi\AppData\Local\Temp\cczdkX9j.s:278    .text.cau_tdes_ecb:000000000000005e .LBB40
C:\Users\stapi\AppData\Local\Temp\cczdkX9j.s:284    .text.cau_tdes_ecb:000000000000005e .LBE40
C:\Users\stapi\AppData\Local\Temp\cczdkX9j.s:189    .text.cau_tdes_ecb:000000000000001e .LVL22
C:\Users\stapi\AppData\Local\Temp\cczdkX9j.s:195    .text.cau_tdes_ecb:000000000000002e .LVL23
C:\Users\stapi\AppData\Local\Temp\cczdkX9j.s:289    .text.cau_tdes_ecb:0000000000000068 .LVL35
C:\Users\stapi\AppData\Local\Temp\cczdkX9j.s:292    .text.cau_tdes_ecb:0000000000000070 .LVL36
C:\Users\stapi\AppData\Local\Temp\cczdkX9j.s:295    .text.cau_tdes_ecb:0000000000000078 .LVL37
C:\Users\stapi\AppData\Local\Temp\cczdkX9j.s:302    .text.cau_tdes_ecb:0000000000000086 .LVL38
C:\Users\stapi\AppData\Local\Temp\cczdkX9j.s:307    .text.cau_tdes_ecb:0000000000000090 .LVL40
C:\Users\stapi\AppData\Local\Temp\cczdkX9j.s:2421   .debug_str:0000000000000111 .LASF68
C:\Users\stapi\AppData\Local\Temp\cczdkX9j.s:2413   .debug_str:00000000000000eb .LASF69
C:\Users\stapi\AppData\Local\Temp\cczdkX9j.s:2377   .debug_str:0000000000000000 .LASF70
C:\Users\stapi\AppData\Local\Temp\cczdkX9j.s:2379   .debug_str:0000000000000007 .LASF53
C:\Users\stapi\AppData\Local\Temp\cczdkX9j.s:2503   .debug_str:000000000000043e .LASF54
C:\Users\stapi\AppData\Local\Temp\cczdkX9j.s:2449   .debug_str:0000000000000287 .LASF55
C:\Users\stapi\AppData\Local\Temp\cczdkX9j.s:2507   .debug_str:0000000000000454 .LASF56
C:\Users\stapi\AppData\Local\Temp\cczdkX9j.s:2387   .debug_str:0000000000000042 .LASF57
C:\Users\stapi\AppData\Local\Temp\cczdkX9j.s:2429   .debug_str:0000000000000135 .LASF58
C:\Users\stapi\AppData\Local\Temp\cczdkX9j.s:2383   .debug_str:0000000000000026 .LASF59
C:\Users\stapi\AppData\Local\Temp\cczdkX9j.s:2435   .debug_str:0000000000000245 .LASF60
C:\Users\stapi\AppData\Local\Temp\cczdkX9j.s:2385   .debug_str:0000000000000033 .LASF61
C:\Users\stapi\AppData\Local\Temp\cczdkX9j.s:2481   .debug_str:000000000000033e .LASF62
C:\Users\stapi\AppData\Local\Temp\cczdkX9j.s:2423   .debug_str:0000000000000117 .LASF63
C:\Users\stapi\AppData\Local\Temp\cczdkX9j.s:17     .text.cau_tdes_calculate:0000000000000000 .LVL0
C:\Users\stapi\AppData\Local\Temp\cczdkX9j.s:48     .text.cau_tdes_calculate:000000000000001c .LVL4
C:\Users\stapi\AppData\Local\Temp\cczdkX9j.s:65     .text.cau_tdes_calculate:0000000000000028 .LVL5
C:\Users\stapi\AppData\Local\Temp\cczdkX9j.s:72     .text.cau_tdes_calculate:000000000000002c .LVL6
C:\Users\stapi\AppData\Local\Temp\cczdkX9j.s:32     .text.cau_tdes_calculate:000000000000000e .LVL1
C:\Users\stapi\AppData\Local\Temp\cczdkX9j.s:91     .text.cau_tdes_calculate:0000000000000046 .LVL8
C:\Users\stapi\AppData\Local\Temp\cczdkX9j.s:126    .text.cau_tdes_calculate:0000000000000072 .LVL12
C:\Users\stapi\AppData\Local\Temp\cczdkX9j.s:136    .text.cau_tdes_calculate:000000000000007e .LVL14
C:\Users\stapi\AppData\Local\Temp\cczdkX9j.s:139    .text.cau_tdes_calculate:0000000000000080 .LVL15
C:\Users\stapi\AppData\Local\Temp\cczdkX9j.s:41     .text.cau_tdes_calculate:0000000000000012 .LVL2
C:\Users\stapi\AppData\Local\Temp\cczdkX9j.s:332    .text.cau_tdes_cbc:0000000000000000 .LVL42
C:\Users\stapi\AppData\Local\Temp\cczdkX9j.s:363    .text.cau_tdes_cbc:0000000000000018 .LVL46
C:\Users\stapi\AppData\Local\Temp\cczdkX9j.s:342    .text.cau_tdes_cbc:0000000000000008 .LVL43
C:\Users\stapi\AppData\Local\Temp\cczdkX9j.s:517    .text.cau_tdes_cbc:00000000000000aa .LVL69
C:\Users\stapi\AppData\Local\Temp\cczdkX9j.s:526    .text.cau_tdes_cbc:00000000000000b6 .LVL71
C:\Users\stapi\AppData\Local\Temp\cczdkX9j.s:351    .text.cau_tdes_cbc:000000000000000c .LVL44
C:\Users\stapi\AppData\Local\Temp\cczdkX9j.s:393    .text.cau_tdes_cbc:000000000000003c .LVL51
C:\Users\stapi\AppData\Local\Temp\cczdkX9j.s:408    .text.cau_tdes_cbc:0000000000000044 .LVL53
C:\Users\stapi\AppData\Local\Temp\cczdkX9j.s:423    .text.cau_tdes_cbc:000000000000004c .LVL55
C:\Users\stapi\AppData\Local\Temp\cczdkX9j.s:438    .text.cau_tdes_cbc:0000000000000054 .LVL57
C:\Users\stapi\AppData\Local\Temp\cczdkX9j.s:453    .text.cau_tdes_cbc:000000000000005c .LVL59
C:\Users\stapi\AppData\Local\Temp\cczdkX9j.s:366    .text.cau_tdes_cbc:000000000000001a .LVL47
C:\Users\stapi\AppData\Local\Temp\cczdkX9j.s:486    .text.cau_tdes_cbc:0000000000000078 .LVL63
C:\Users\stapi\AppData\Local\Temp\cczdkX9j.s:156    .text.cau_tdes_ecb:0000000000000000 .LVL16
C:\Users\stapi\AppData\Local\Temp\cczdkX9j.s:183    .text.cau_tdes_ecb:0000000000000014 .LVL20
C:\Users\stapi\AppData\Local\Temp\cczdkX9j.s:165    .text.cau_tdes_ecb:0000000000000008 .LVL17
C:\Users\stapi\AppData\Local\Temp\cczdkX9j.s:304    .text.cau_tdes_ecb:0000000000000088 .LVL39
C:\Users\stapi\AppData\Local\Temp\cczdkX9j.s:313    .text.cau_tdes_ecb:0000000000000094 .LVL41
C:\Users\stapi\AppData\Local\Temp\cczdkX9j.s:173    .text.cau_tdes_ecb:000000000000000c .LVL18
C:\Users\stapi\AppData\Local\Temp\cczdkX9j.s:213    .text.cau_tdes_ecb:0000000000000038 .LVL25
C:\Users\stapi\AppData\Local\Temp\cczdkX9j.s:228    .text.cau_tdes_ecb:0000000000000040 .LVL27
C:\Users\stapi\AppData\Local\Temp\cczdkX9j.s:243    .text.cau_tdes_ecb:0000000000000048 .LVL29
C:\Users\stapi\AppData\Local\Temp\cczdkX9j.s:258    .text.cau_tdes_ecb:0000000000000050 .LVL31
C:\Users\stapi\AppData\Local\Temp\cczdkX9j.s:273    .text.cau_tdes_ecb:0000000000000058 .LVL33
C:\Users\stapi\AppData\Local\Temp\cczdkX9j.s:186    .text.cau_tdes_ecb:0000000000000016 .LVL21
C:\Users\stapi\AppData\Local\Temp\cczdkX9j.s:545    .debug_info:0000000000000000 .Ldebug_info0

UNDEFINED SYMBOLS
__riscv_save_5
cau_enable_state_get
__riscv_restore_5
cau_data_write
cau_flag_get
cau_data_read
__riscv_save_4
cau_key_struct_para_init
cau_init
cau_key_init
cau_fifo_flush
cau_enable
cau_disable
__riscv_restore_4
cau_iv_init
