   1              		.file	"gd32vw55x_timer.c"
   2              		.option nopic
   3              		.attribute arch, "rv32i2p0_m2p0_a2p0_f2p0_c2p0_b_p0p94"
   4              		.attribute unaligned_access, 0
   5              		.attribute stack_align, 16
   6              		.text
   7              	.Ltext0:
   8              		.cfi_sections	.debug_frame
   9              		.section	.text.timer_deinit,"ax",@progbits
  10              		.align	1
  11              		.globl	timer_deinit
  13              	timer_deinit:
  14              	.LFB365:
  15              		.file 1 "C:/Users/stapi/OneDrive/Desktop/GD32VW553/GD32VW55X_Wifi_BLE_SDK/GD32VW55x_RELEASE_V1.0.2
   1:C:/Users/stapi/OneDrive/Desktop/GD32VW553/GD32VW55X_Wifi_BLE_SDK/GD32VW55x_RELEASE_V1.0.2/MSDK/plf/GD32VW55x_standard_peripheral/Source\gd32vw55x_timer.c **** /*!
   2:C:/Users/stapi/OneDrive/Desktop/GD32VW553/GD32VW55X_Wifi_BLE_SDK/GD32VW55x_RELEASE_V1.0.2/MSDK/plf/GD32VW55x_standard_peripheral/Source\gd32vw55x_timer.c ****     \file    gd32vw55x_timer.c
   3:C:/Users/stapi/OneDrive/Desktop/GD32VW553/GD32VW55X_Wifi_BLE_SDK/GD32VW55x_RELEASE_V1.0.2/MSDK/plf/GD32VW55x_standard_peripheral/Source\gd32vw55x_timer.c ****     \brief   TIMER driver
   4:C:/Users/stapi/OneDrive/Desktop/GD32VW553/GD32VW55X_Wifi_BLE_SDK/GD32VW55x_RELEASE_V1.0.2/MSDK/plf/GD32VW55x_standard_peripheral/Source\gd32vw55x_timer.c **** 
   5:C:/Users/stapi/OneDrive/Desktop/GD32VW553/GD32VW55X_Wifi_BLE_SDK/GD32VW55x_RELEASE_V1.0.2/MSDK/plf/GD32VW55x_standard_peripheral/Source\gd32vw55x_timer.c ****     \version 2023-07-20, V1.0.0, firmware for GD32VW55x
   6:C:/Users/stapi/OneDrive/Desktop/GD32VW553/GD32VW55X_Wifi_BLE_SDK/GD32VW55x_RELEASE_V1.0.2/MSDK/plf/GD32VW55x_standard_peripheral/Source\gd32vw55x_timer.c **** */
   7:C:/Users/stapi/OneDrive/Desktop/GD32VW553/GD32VW55X_Wifi_BLE_SDK/GD32VW55x_RELEASE_V1.0.2/MSDK/plf/GD32VW55x_standard_peripheral/Source\gd32vw55x_timer.c **** 
   8:C:/Users/stapi/OneDrive/Desktop/GD32VW553/GD32VW55X_Wifi_BLE_SDK/GD32VW55x_RELEASE_V1.0.2/MSDK/plf/GD32VW55x_standard_peripheral/Source\gd32vw55x_timer.c **** /*
   9:C:/Users/stapi/OneDrive/Desktop/GD32VW553/GD32VW55X_Wifi_BLE_SDK/GD32VW55x_RELEASE_V1.0.2/MSDK/plf/GD32VW55x_standard_peripheral/Source\gd32vw55x_timer.c ****     Copyright (c) 2023, GigaDevice Semiconductor Inc.
  10:C:/Users/stapi/OneDrive/Desktop/GD32VW553/GD32VW55X_Wifi_BLE_SDK/GD32VW55x_RELEASE_V1.0.2/MSDK/plf/GD32VW55x_standard_peripheral/Source\gd32vw55x_timer.c **** 
  11:C:/Users/stapi/OneDrive/Desktop/GD32VW553/GD32VW55X_Wifi_BLE_SDK/GD32VW55x_RELEASE_V1.0.2/MSDK/plf/GD32VW55x_standard_peripheral/Source\gd32vw55x_timer.c ****     Redistribution and use in source and binary forms, with or without modification,
  12:C:/Users/stapi/OneDrive/Desktop/GD32VW553/GD32VW55X_Wifi_BLE_SDK/GD32VW55x_RELEASE_V1.0.2/MSDK/plf/GD32VW55x_standard_peripheral/Source\gd32vw55x_timer.c **** are permitted provided that the following conditions are met:
  13:C:/Users/stapi/OneDrive/Desktop/GD32VW553/GD32VW55X_Wifi_BLE_SDK/GD32VW55x_RELEASE_V1.0.2/MSDK/plf/GD32VW55x_standard_peripheral/Source\gd32vw55x_timer.c **** 
  14:C:/Users/stapi/OneDrive/Desktop/GD32VW553/GD32VW55X_Wifi_BLE_SDK/GD32VW55x_RELEASE_V1.0.2/MSDK/plf/GD32VW55x_standard_peripheral/Source\gd32vw55x_timer.c ****     1. Redistributions of source code must retain the above copyright notice, this
  15:C:/Users/stapi/OneDrive/Desktop/GD32VW553/GD32VW55X_Wifi_BLE_SDK/GD32VW55x_RELEASE_V1.0.2/MSDK/plf/GD32VW55x_standard_peripheral/Source\gd32vw55x_timer.c ****        list of conditions and the following disclaimer.
  16:C:/Users/stapi/OneDrive/Desktop/GD32VW553/GD32VW55X_Wifi_BLE_SDK/GD32VW55x_RELEASE_V1.0.2/MSDK/plf/GD32VW55x_standard_peripheral/Source\gd32vw55x_timer.c ****     2. Redistributions in binary form must reproduce the above copyright notice,
  17:C:/Users/stapi/OneDrive/Desktop/GD32VW553/GD32VW55X_Wifi_BLE_SDK/GD32VW55x_RELEASE_V1.0.2/MSDK/plf/GD32VW55x_standard_peripheral/Source\gd32vw55x_timer.c ****        this list of conditions and the following disclaimer in the documentation
  18:C:/Users/stapi/OneDrive/Desktop/GD32VW553/GD32VW55X_Wifi_BLE_SDK/GD32VW55x_RELEASE_V1.0.2/MSDK/plf/GD32VW55x_standard_peripheral/Source\gd32vw55x_timer.c ****        and/or other materials provided with the distribution.
  19:C:/Users/stapi/OneDrive/Desktop/GD32VW553/GD32VW55X_Wifi_BLE_SDK/GD32VW55x_RELEASE_V1.0.2/MSDK/plf/GD32VW55x_standard_peripheral/Source\gd32vw55x_timer.c ****     3. Neither the name of the copyright holder nor the names of its contributors
  20:C:/Users/stapi/OneDrive/Desktop/GD32VW553/GD32VW55X_Wifi_BLE_SDK/GD32VW55x_RELEASE_V1.0.2/MSDK/plf/GD32VW55x_standard_peripheral/Source\gd32vw55x_timer.c ****        may be used to endorse or promote products derived from this software without
  21:C:/Users/stapi/OneDrive/Desktop/GD32VW553/GD32VW55X_Wifi_BLE_SDK/GD32VW55x_RELEASE_V1.0.2/MSDK/plf/GD32VW55x_standard_peripheral/Source\gd32vw55x_timer.c ****        specific prior written permission.
  22:C:/Users/stapi/OneDrive/Desktop/GD32VW553/GD32VW55X_Wifi_BLE_SDK/GD32VW55x_RELEASE_V1.0.2/MSDK/plf/GD32VW55x_standard_peripheral/Source\gd32vw55x_timer.c **** 
  23:C:/Users/stapi/OneDrive/Desktop/GD32VW553/GD32VW55X_Wifi_BLE_SDK/GD32VW55x_RELEASE_V1.0.2/MSDK/plf/GD32VW55x_standard_peripheral/Source\gd32vw55x_timer.c ****     THIS SOFTWARE IS PROVIDED BY THE COPYRIGHT HOLDERS AND CONTRIBUTORS "AS IS"
  24:C:/Users/stapi/OneDrive/Desktop/GD32VW553/GD32VW55X_Wifi_BLE_SDK/GD32VW55x_RELEASE_V1.0.2/MSDK/plf/GD32VW55x_standard_peripheral/Source\gd32vw55x_timer.c **** AND ANY EXPRESS OR IMPLIED WARRANTIES, INCLUDING, BUT NOT LIMITED TO, THE IMPLIED
  25:C:/Users/stapi/OneDrive/Desktop/GD32VW553/GD32VW55X_Wifi_BLE_SDK/GD32VW55x_RELEASE_V1.0.2/MSDK/plf/GD32VW55x_standard_peripheral/Source\gd32vw55x_timer.c **** WARRANTIES OF MERCHANTABILITY AND FITNESS FOR A PARTICULAR PURPOSE ARE DISCLAIMED.
  26:C:/Users/stapi/OneDrive/Desktop/GD32VW553/GD32VW55X_Wifi_BLE_SDK/GD32VW55x_RELEASE_V1.0.2/MSDK/plf/GD32VW55x_standard_peripheral/Source\gd32vw55x_timer.c **** IN NO EVENT SHALL THE COPYRIGHT HOLDER OR CONTRIBUTORS BE LIABLE FOR ANY DIRECT,
  27:C:/Users/stapi/OneDrive/Desktop/GD32VW553/GD32VW55X_Wifi_BLE_SDK/GD32VW55x_RELEASE_V1.0.2/MSDK/plf/GD32VW55x_standard_peripheral/Source\gd32vw55x_timer.c **** INDIRECT, INCIDENTAL, SPECIAL, EXEMPLARY, OR CONSEQUENTIAL DAMAGES (INCLUDING, BUT
  28:C:/Users/stapi/OneDrive/Desktop/GD32VW553/GD32VW55X_Wifi_BLE_SDK/GD32VW55x_RELEASE_V1.0.2/MSDK/plf/GD32VW55x_standard_peripheral/Source\gd32vw55x_timer.c **** NOT LIMITED TO, PROCUREMENT OF SUBSTITUTE GOODS OR SERVICES; LOSS OF USE, DATA, OR
  29:C:/Users/stapi/OneDrive/Desktop/GD32VW553/GD32VW55X_Wifi_BLE_SDK/GD32VW55x_RELEASE_V1.0.2/MSDK/plf/GD32VW55x_standard_peripheral/Source\gd32vw55x_timer.c **** PROFITS; OR BUSINESS INTERRUPTION) HOWEVER CAUSED AND ON ANY THEORY OF LIABILITY,
  30:C:/Users/stapi/OneDrive/Desktop/GD32VW553/GD32VW55X_Wifi_BLE_SDK/GD32VW55x_RELEASE_V1.0.2/MSDK/plf/GD32VW55x_standard_peripheral/Source\gd32vw55x_timer.c **** WHETHER IN CONTRACT, STRICT LIABILITY, OR TORT (INCLUDING NEGLIGENCE OR OTHERWISE)
  31:C:/Users/stapi/OneDrive/Desktop/GD32VW553/GD32VW55X_Wifi_BLE_SDK/GD32VW55x_RELEASE_V1.0.2/MSDK/plf/GD32VW55x_standard_peripheral/Source\gd32vw55x_timer.c **** ARISING IN ANY WAY OUT OF THE USE OF THIS SOFTWARE, EVEN IF ADVISED OF THE POSSIBILITY
  32:C:/Users/stapi/OneDrive/Desktop/GD32VW553/GD32VW55X_Wifi_BLE_SDK/GD32VW55x_RELEASE_V1.0.2/MSDK/plf/GD32VW55x_standard_peripheral/Source\gd32vw55x_timer.c **** OF SUCH DAMAGE.
  33:C:/Users/stapi/OneDrive/Desktop/GD32VW553/GD32VW55X_Wifi_BLE_SDK/GD32VW55x_RELEASE_V1.0.2/MSDK/plf/GD32VW55x_standard_peripheral/Source\gd32vw55x_timer.c **** */
  34:C:/Users/stapi/OneDrive/Desktop/GD32VW553/GD32VW55X_Wifi_BLE_SDK/GD32VW55x_RELEASE_V1.0.2/MSDK/plf/GD32VW55x_standard_peripheral/Source\gd32vw55x_timer.c **** 
  35:C:/Users/stapi/OneDrive/Desktop/GD32VW553/GD32VW55X_Wifi_BLE_SDK/GD32VW55x_RELEASE_V1.0.2/MSDK/plf/GD32VW55x_standard_peripheral/Source\gd32vw55x_timer.c **** #include "gd32vw55x_timer.h"
  36:C:/Users/stapi/OneDrive/Desktop/GD32VW553/GD32VW55X_Wifi_BLE_SDK/GD32VW55x_RELEASE_V1.0.2/MSDK/plf/GD32VW55x_standard_peripheral/Source\gd32vw55x_timer.c **** 
  37:C:/Users/stapi/OneDrive/Desktop/GD32VW553/GD32VW55X_Wifi_BLE_SDK/GD32VW55x_RELEASE_V1.0.2/MSDK/plf/GD32VW55x_standard_peripheral/Source\gd32vw55x_timer.c **** /* TIMER init parameter mask */
  38:C:/Users/stapi/OneDrive/Desktop/GD32VW553/GD32VW55X_Wifi_BLE_SDK/GD32VW55x_RELEASE_V1.0.2/MSDK/plf/GD32VW55x_standard_peripheral/Source\gd32vw55x_timer.c **** #define ALIGNEDMODE_MASK            ((uint32_t)0x00000060U)   /*!< TIMER init parameter aligne dmod
  39:C:/Users/stapi/OneDrive/Desktop/GD32VW553/GD32VW55X_Wifi_BLE_SDK/GD32VW55x_RELEASE_V1.0.2/MSDK/plf/GD32VW55x_standard_peripheral/Source\gd32vw55x_timer.c **** #define COUNTERDIRECTION_MASK       ((uint32_t)0x00000010U)   /*!< TIMER init parameter counter dir
  40:C:/Users/stapi/OneDrive/Desktop/GD32VW553/GD32VW55X_Wifi_BLE_SDK/GD32VW55x_RELEASE_V1.0.2/MSDK/plf/GD32VW55x_standard_peripheral/Source\gd32vw55x_timer.c **** #define CLOCKDIVISION_MASK          ((uint32_t)0x00000300U)   /*!< TIMER init parameter clock divis
  41:C:/Users/stapi/OneDrive/Desktop/GD32VW553/GD32VW55X_Wifi_BLE_SDK/GD32VW55x_RELEASE_V1.0.2/MSDK/plf/GD32VW55x_standard_peripheral/Source\gd32vw55x_timer.c **** 
  42:C:/Users/stapi/OneDrive/Desktop/GD32VW553/GD32VW55X_Wifi_BLE_SDK/GD32VW55x_RELEASE_V1.0.2/MSDK/plf/GD32VW55x_standard_peripheral/Source\gd32vw55x_timer.c **** /*!
  43:C:/Users/stapi/OneDrive/Desktop/GD32VW553/GD32VW55X_Wifi_BLE_SDK/GD32VW55x_RELEASE_V1.0.2/MSDK/plf/GD32VW55x_standard_peripheral/Source\gd32vw55x_timer.c ****     \brief      deinit a TIMER
  44:C:/Users/stapi/OneDrive/Desktop/GD32VW553/GD32VW55X_Wifi_BLE_SDK/GD32VW55x_RELEASE_V1.0.2/MSDK/plf/GD32VW55x_standard_peripheral/Source\gd32vw55x_timer.c ****     \param[in]  timer_periph: TIMERx(x=0,1,2,5,15,16)
  45:C:/Users/stapi/OneDrive/Desktop/GD32VW553/GD32VW55X_Wifi_BLE_SDK/GD32VW55x_RELEASE_V1.0.2/MSDK/plf/GD32VW55x_standard_peripheral/Source\gd32vw55x_timer.c ****     \param[out] none
  46:C:/Users/stapi/OneDrive/Desktop/GD32VW553/GD32VW55X_Wifi_BLE_SDK/GD32VW55x_RELEASE_V1.0.2/MSDK/plf/GD32VW55x_standard_peripheral/Source\gd32vw55x_timer.c ****     \retval     none
  47:C:/Users/stapi/OneDrive/Desktop/GD32VW553/GD32VW55X_Wifi_BLE_SDK/GD32VW55x_RELEASE_V1.0.2/MSDK/plf/GD32VW55x_standard_peripheral/Source\gd32vw55x_timer.c **** */
  48:C:/Users/stapi/OneDrive/Desktop/GD32VW553/GD32VW55X_Wifi_BLE_SDK/GD32VW55x_RELEASE_V1.0.2/MSDK/plf/GD32VW55x_standard_peripheral/Source\gd32vw55x_timer.c **** void timer_deinit(uint32_t timer_periph)
  49:C:/Users/stapi/OneDrive/Desktop/GD32VW553/GD32VW55X_Wifi_BLE_SDK/GD32VW55x_RELEASE_V1.0.2/MSDK/plf/GD32VW55x_standard_peripheral/Source\gd32vw55x_timer.c **** {
  16              		.loc 1 49 1
  17              		.cfi_startproc
  18              	.LVL0:
  19 0000 17030000 		call	t0,__riscv_save_1
  19      E7020300 
  20              		.cfi_offset 8, -8
  21              		.cfi_offset 1, -4
  22              		.cfi_def_cfa_offset 16
  50:C:/Users/stapi/OneDrive/Desktop/GD32VW553/GD32VW55X_Wifi_BLE_SDK/GD32VW55x_RELEASE_V1.0.2/MSDK/plf/GD32VW55x_standard_peripheral/Source\gd32vw55x_timer.c ****     switch(timer_periph){
  23              		.loc 1 50 5
  24 0008 B7070140 		li	a5,1073807360
  25 000c 6306F504 		beq	a0,a5,.L2
  26 0010 63E2A702 		bgtu	a0,a5,.L3
  27 0014 B7070040 		li	a5,1073741824
  28 0018 13870740 		addi	a4,a5,1024
  29 001c 6306E506 		beq	a0,a4,.L4
  30 0020 37170040 		li	a4,1073745920
  31 0024 630CE506 		beq	a0,a4,.L5
  32 0028 6306F504 		beq	a0,a5,.L6
  33              	.LVL1:
  34              	.L1:
  51:C:/Users/stapi/OneDrive/Desktop/GD32VW553/GD32VW55X_Wifi_BLE_SDK/GD32VW55x_RELEASE_V1.0.2/MSDK/plf/GD32VW55x_standard_peripheral/Source\gd32vw55x_timer.c ****     case TIMER0:
  52:C:/Users/stapi/OneDrive/Desktop/GD32VW553/GD32VW55X_Wifi_BLE_SDK/GD32VW55x_RELEASE_V1.0.2/MSDK/plf/GD32VW55x_standard_peripheral/Source\gd32vw55x_timer.c ****         /* reset TIMER0 */
  53:C:/Users/stapi/OneDrive/Desktop/GD32VW553/GD32VW55X_Wifi_BLE_SDK/GD32VW55x_RELEASE_V1.0.2/MSDK/plf/GD32VW55x_standard_peripheral/Source\gd32vw55x_timer.c ****         rcu_periph_reset_enable(RCU_TIMER0RST);
  54:C:/Users/stapi/OneDrive/Desktop/GD32VW553/GD32VW55X_Wifi_BLE_SDK/GD32VW55x_RELEASE_V1.0.2/MSDK/plf/GD32VW55x_standard_peripheral/Source\gd32vw55x_timer.c ****         rcu_periph_reset_disable(RCU_TIMER0RST);
  55:C:/Users/stapi/OneDrive/Desktop/GD32VW553/GD32VW55X_Wifi_BLE_SDK/GD32VW55x_RELEASE_V1.0.2/MSDK/plf/GD32VW55x_standard_peripheral/Source\gd32vw55x_timer.c ****         break;
  56:C:/Users/stapi/OneDrive/Desktop/GD32VW553/GD32VW55X_Wifi_BLE_SDK/GD32VW55x_RELEASE_V1.0.2/MSDK/plf/GD32VW55x_standard_peripheral/Source\gd32vw55x_timer.c ****     case TIMER1:
  57:C:/Users/stapi/OneDrive/Desktop/GD32VW553/GD32VW55X_Wifi_BLE_SDK/GD32VW55x_RELEASE_V1.0.2/MSDK/plf/GD32VW55x_standard_peripheral/Source\gd32vw55x_timer.c ****         /* reset TIMER1 */
  58:C:/Users/stapi/OneDrive/Desktop/GD32VW553/GD32VW55X_Wifi_BLE_SDK/GD32VW55x_RELEASE_V1.0.2/MSDK/plf/GD32VW55x_standard_peripheral/Source\gd32vw55x_timer.c ****         rcu_periph_reset_enable(RCU_TIMER1RST);
  59:C:/Users/stapi/OneDrive/Desktop/GD32VW553/GD32VW55X_Wifi_BLE_SDK/GD32VW55x_RELEASE_V1.0.2/MSDK/plf/GD32VW55x_standard_peripheral/Source\gd32vw55x_timer.c ****         rcu_periph_reset_disable(RCU_TIMER1RST);
  60:C:/Users/stapi/OneDrive/Desktop/GD32VW553/GD32VW55X_Wifi_BLE_SDK/GD32VW55x_RELEASE_V1.0.2/MSDK/plf/GD32VW55x_standard_peripheral/Source\gd32vw55x_timer.c ****         break;
  61:C:/Users/stapi/OneDrive/Desktop/GD32VW553/GD32VW55X_Wifi_BLE_SDK/GD32VW55x_RELEASE_V1.0.2/MSDK/plf/GD32VW55x_standard_peripheral/Source\gd32vw55x_timer.c ****     case TIMER2:
  62:C:/Users/stapi/OneDrive/Desktop/GD32VW553/GD32VW55X_Wifi_BLE_SDK/GD32VW55x_RELEASE_V1.0.2/MSDK/plf/GD32VW55x_standard_peripheral/Source\gd32vw55x_timer.c ****         /* reset TIMER2 */
  63:C:/Users/stapi/OneDrive/Desktop/GD32VW553/GD32VW55X_Wifi_BLE_SDK/GD32VW55x_RELEASE_V1.0.2/MSDK/plf/GD32VW55x_standard_peripheral/Source\gd32vw55x_timer.c ****        	rcu_periph_reset_enable(RCU_TIMER2RST);
  64:C:/Users/stapi/OneDrive/Desktop/GD32VW553/GD32VW55X_Wifi_BLE_SDK/GD32VW55x_RELEASE_V1.0.2/MSDK/plf/GD32VW55x_standard_peripheral/Source\gd32vw55x_timer.c ****        	rcu_periph_reset_disable(RCU_TIMER2RST);
  65:C:/Users/stapi/OneDrive/Desktop/GD32VW553/GD32VW55X_Wifi_BLE_SDK/GD32VW55x_RELEASE_V1.0.2/MSDK/plf/GD32VW55x_standard_peripheral/Source\gd32vw55x_timer.c ****         break;
  66:C:/Users/stapi/OneDrive/Desktop/GD32VW553/GD32VW55X_Wifi_BLE_SDK/GD32VW55x_RELEASE_V1.0.2/MSDK/plf/GD32VW55x_standard_peripheral/Source\gd32vw55x_timer.c ****     case TIMER5:
  67:C:/Users/stapi/OneDrive/Desktop/GD32VW553/GD32VW55X_Wifi_BLE_SDK/GD32VW55x_RELEASE_V1.0.2/MSDK/plf/GD32VW55x_standard_peripheral/Source\gd32vw55x_timer.c ****         /* reset TIMER5 */
  68:C:/Users/stapi/OneDrive/Desktop/GD32VW553/GD32VW55X_Wifi_BLE_SDK/GD32VW55x_RELEASE_V1.0.2/MSDK/plf/GD32VW55x_standard_peripheral/Source\gd32vw55x_timer.c ****         rcu_periph_reset_enable(RCU_TIMER5RST);
  69:C:/Users/stapi/OneDrive/Desktop/GD32VW553/GD32VW55X_Wifi_BLE_SDK/GD32VW55x_RELEASE_V1.0.2/MSDK/plf/GD32VW55x_standard_peripheral/Source\gd32vw55x_timer.c ****         rcu_periph_reset_disable(RCU_TIMER5RST);
  70:C:/Users/stapi/OneDrive/Desktop/GD32VW553/GD32VW55X_Wifi_BLE_SDK/GD32VW55x_RELEASE_V1.0.2/MSDK/plf/GD32VW55x_standard_peripheral/Source\gd32vw55x_timer.c ****         break;
  71:C:/Users/stapi/OneDrive/Desktop/GD32VW553/GD32VW55X_Wifi_BLE_SDK/GD32VW55x_RELEASE_V1.0.2/MSDK/plf/GD32VW55x_standard_peripheral/Source\gd32vw55x_timer.c ****     case TIMER15:
  72:C:/Users/stapi/OneDrive/Desktop/GD32VW553/GD32VW55X_Wifi_BLE_SDK/GD32VW55x_RELEASE_V1.0.2/MSDK/plf/GD32VW55x_standard_peripheral/Source\gd32vw55x_timer.c ****         /* reset TIMER15 */
  73:C:/Users/stapi/OneDrive/Desktop/GD32VW553/GD32VW55X_Wifi_BLE_SDK/GD32VW55x_RELEASE_V1.0.2/MSDK/plf/GD32VW55x_standard_peripheral/Source\gd32vw55x_timer.c ****         rcu_periph_reset_enable(RCU_TIMER15RST);
  74:C:/Users/stapi/OneDrive/Desktop/GD32VW553/GD32VW55X_Wifi_BLE_SDK/GD32VW55x_RELEASE_V1.0.2/MSDK/plf/GD32VW55x_standard_peripheral/Source\gd32vw55x_timer.c ****         rcu_periph_reset_disable(RCU_TIMER15RST);
  75:C:/Users/stapi/OneDrive/Desktop/GD32VW553/GD32VW55X_Wifi_BLE_SDK/GD32VW55x_RELEASE_V1.0.2/MSDK/plf/GD32VW55x_standard_peripheral/Source\gd32vw55x_timer.c ****         break;
  76:C:/Users/stapi/OneDrive/Desktop/GD32VW553/GD32VW55X_Wifi_BLE_SDK/GD32VW55x_RELEASE_V1.0.2/MSDK/plf/GD32VW55x_standard_peripheral/Source\gd32vw55x_timer.c ****     case TIMER16:
  77:C:/Users/stapi/OneDrive/Desktop/GD32VW553/GD32VW55X_Wifi_BLE_SDK/GD32VW55x_RELEASE_V1.0.2/MSDK/plf/GD32VW55x_standard_peripheral/Source\gd32vw55x_timer.c ****         /* reset TIMER16 */
  78:C:/Users/stapi/OneDrive/Desktop/GD32VW553/GD32VW55X_Wifi_BLE_SDK/GD32VW55x_RELEASE_V1.0.2/MSDK/plf/GD32VW55x_standard_peripheral/Source\gd32vw55x_timer.c ****         rcu_periph_reset_enable(RCU_TIMER16RST);
  79:C:/Users/stapi/OneDrive/Desktop/GD32VW553/GD32VW55X_Wifi_BLE_SDK/GD32VW55x_RELEASE_V1.0.2/MSDK/plf/GD32VW55x_standard_peripheral/Source\gd32vw55x_timer.c ****         rcu_periph_reset_disable(RCU_TIMER16RST);
  80:C:/Users/stapi/OneDrive/Desktop/GD32VW553/GD32VW55X_Wifi_BLE_SDK/GD32VW55x_RELEASE_V1.0.2/MSDK/plf/GD32VW55x_standard_peripheral/Source\gd32vw55x_timer.c ****         break;
  81:C:/Users/stapi/OneDrive/Desktop/GD32VW553/GD32VW55X_Wifi_BLE_SDK/GD32VW55x_RELEASE_V1.0.2/MSDK/plf/GD32VW55x_standard_peripheral/Source\gd32vw55x_timer.c ****     default:
  82:C:/Users/stapi/OneDrive/Desktop/GD32VW553/GD32VW55X_Wifi_BLE_SDK/GD32VW55x_RELEASE_V1.0.2/MSDK/plf/GD32VW55x_standard_peripheral/Source\gd32vw55x_timer.c ****         break;
  83:C:/Users/stapi/OneDrive/Desktop/GD32VW553/GD32VW55X_Wifi_BLE_SDK/GD32VW55x_RELEASE_V1.0.2/MSDK/plf/GD32VW55x_standard_peripheral/Source\gd32vw55x_timer.c ****     }
  84:C:/Users/stapi/OneDrive/Desktop/GD32VW553/GD32VW55X_Wifi_BLE_SDK/GD32VW55x_RELEASE_V1.0.2/MSDK/plf/GD32VW55x_standard_peripheral/Source\gd32vw55x_timer.c **** }
  35              		.loc 1 84 1 is_stmt 0
  36 002c 17030000 		tail	__riscv_restore_1
  36      67000300 
  37              		.cfi_remember_state
  38              		.cfi_restore 8
  39              		.cfi_restore 1
  40              		.cfi_def_cfa_offset 0
  41              	.LVL2:
  42              	.L3:
  43              		.cfi_restore_state
  50:C:/Users/stapi/OneDrive/Desktop/GD32VW553/GD32VW55X_Wifi_BLE_SDK/GD32VW55x_RELEASE_V1.0.2/MSDK/plf/GD32VW55x_standard_peripheral/Source\gd32vw55x_timer.c ****     switch(timer_periph){
  44              		.loc 1 50 5
  45 0034 B7870140 		li	a5,1073840128
  46 0038 630CF506 		beq	a0,a5,.L8
  47 003c 93870740 		addi	a5,a5,1024
  48 0040 E316F5FE 		bne	a0,a5,.L1
  78:C:/Users/stapi/OneDrive/Desktop/GD32VW553/GD32VW55X_Wifi_BLE_SDK/GD32VW55x_RELEASE_V1.0.2/MSDK/plf/GD32VW55x_standard_peripheral/Source\gd32vw55x_timer.c ****         rcu_periph_reset_disable(RCU_TIMER16RST);
  49              		.loc 1 78 9 is_stmt 1
  50 0044 0564     		li	s0,4096
  51 0046 13052491 		addi	a0,s0,-1774
  52              	.LVL3:
  53 004a 97000000 		call	rcu_periph_reset_enable
  53      E7800000 
  54              	.LVL4:
  79:C:/Users/stapi/OneDrive/Desktop/GD32VW553/GD32VW55X_Wifi_BLE_SDK/GD32VW55x_RELEASE_V1.0.2/MSDK/plf/GD32VW55x_standard_peripheral/Source\gd32vw55x_timer.c ****         break;
  55              		.loc 1 79 9
  56 0052 13052491 		addi	a0,s0,-1774
  57 0056 11A8     		j	.L11
  58              	.LVL5:
  59              	.L2:
  53:C:/Users/stapi/OneDrive/Desktop/GD32VW553/GD32VW55X_Wifi_BLE_SDK/GD32VW55x_RELEASE_V1.0.2/MSDK/plf/GD32VW55x_standard_peripheral/Source\gd32vw55x_timer.c ****         rcu_periph_reset_disable(RCU_TIMER0RST);
  60              		.loc 1 53 9
  61 0058 0564     		li	s0,4096
  62 005a 13050490 		addi	a0,s0,-1792
  63              	.LVL6:
  64 005e 97000000 		call	rcu_periph_reset_enable
  64      E7800000 
  65              	.LVL7:
  54:C:/Users/stapi/OneDrive/Desktop/GD32VW553/GD32VW55X_Wifi_BLE_SDK/GD32VW55x_RELEASE_V1.0.2/MSDK/plf/GD32VW55x_standard_peripheral/Source\gd32vw55x_timer.c ****         break;
  66              		.loc 1 54 9
  67 0066 13050490 		addi	a0,s0,-1792
  68              	.L11:
  79:C:/Users/stapi/OneDrive/Desktop/GD32VW553/GD32VW55X_Wifi_BLE_SDK/GD32VW55x_RELEASE_V1.0.2/MSDK/plf/GD32VW55x_standard_peripheral/Source\gd32vw55x_timer.c ****         break;
  69              		.loc 1 79 9 is_stmt 0
  70 006a 97000000 		call	rcu_periph_reset_disable
  70      E7800000 
  71              	.LVL8:
  80:C:/Users/stapi/OneDrive/Desktop/GD32VW553/GD32VW55X_Wifi_BLE_SDK/GD32VW55x_RELEASE_V1.0.2/MSDK/plf/GD32VW55x_standard_peripheral/Source\gd32vw55x_timer.c ****     default:
  72              		.loc 1 80 9 is_stmt 1
  73              		.loc 1 84 1 is_stmt 0
  74 0072 6DBF     		j	.L1
  75              	.LVL9:
  76              	.L6:
  58:C:/Users/stapi/OneDrive/Desktop/GD32VW553/GD32VW55X_Wifi_BLE_SDK/GD32VW55x_RELEASE_V1.0.2/MSDK/plf/GD32VW55x_standard_peripheral/Source\gd32vw55x_timer.c ****         rcu_periph_reset_disable(RCU_TIMER1RST);
  77              		.loc 1 58 9 is_stmt 1
  78 0074 0564     		li	s0,4096
  79 0076 13050480 		addi	a0,s0,-2048
  80              	.LVL10:
  81 007a 97000000 		call	rcu_periph_reset_enable
  81      E7800000 
  82              	.LVL11:
  59:C:/Users/stapi/OneDrive/Desktop/GD32VW553/GD32VW55X_Wifi_BLE_SDK/GD32VW55x_RELEASE_V1.0.2/MSDK/plf/GD32VW55x_standard_peripheral/Source\gd32vw55x_timer.c ****         break;
  83              		.loc 1 59 9
  84 0082 13050480 		addi	a0,s0,-2048
  85 0086 D5B7     		j	.L11
  86              	.LVL12:
  87              	.L4:
  63:C:/Users/stapi/OneDrive/Desktop/GD32VW553/GD32VW55X_Wifi_BLE_SDK/GD32VW55x_RELEASE_V1.0.2/MSDK/plf/GD32VW55x_standard_peripheral/Source\gd32vw55x_timer.c ****        	rcu_periph_reset_disable(RCU_TIMER2RST);
  88              		.loc 1 63 9
  89 0088 0564     		li	s0,4096
  90 008a 13051480 		addi	a0,s0,-2047
  91              	.LVL13:
  92 008e 97000000 		call	rcu_periph_reset_enable
  92      E7800000 
  93              	.LVL14:
  64:C:/Users/stapi/OneDrive/Desktop/GD32VW553/GD32VW55X_Wifi_BLE_SDK/GD32VW55x_RELEASE_V1.0.2/MSDK/plf/GD32VW55x_standard_peripheral/Source\gd32vw55x_timer.c ****         break;
  94              		.loc 1 64 9
  95 0096 13051480 		addi	a0,s0,-2047
  96 009a C1BF     		j	.L11
  97              	.LVL15:
  98              	.L5:
  68:C:/Users/stapi/OneDrive/Desktop/GD32VW553/GD32VW55X_Wifi_BLE_SDK/GD32VW55x_RELEASE_V1.0.2/MSDK/plf/GD32VW55x_standard_peripheral/Source\gd32vw55x_timer.c ****         rcu_periph_reset_disable(RCU_TIMER5RST);
  99              		.loc 1 68 9
 100 009c 0564     		li	s0,4096
 101 009e 13054480 		addi	a0,s0,-2044
 102              	.LVL16:
 103 00a2 97000000 		call	rcu_periph_reset_enable
 103      E7800000 
 104              	.LVL17:
  69:C:/Users/stapi/OneDrive/Desktop/GD32VW553/GD32VW55X_Wifi_BLE_SDK/GD32VW55x_RELEASE_V1.0.2/MSDK/plf/GD32VW55x_standard_peripheral/Source\gd32vw55x_timer.c ****         break;
 105              		.loc 1 69 9
 106 00aa 13054480 		addi	a0,s0,-2044
 107 00ae 75BF     		j	.L11
 108              	.LVL18:
 109              	.L8:
  73:C:/Users/stapi/OneDrive/Desktop/GD32VW553/GD32VW55X_Wifi_BLE_SDK/GD32VW55x_RELEASE_V1.0.2/MSDK/plf/GD32VW55x_standard_peripheral/Source\gd32vw55x_timer.c ****         rcu_periph_reset_disable(RCU_TIMER15RST);
 110              		.loc 1 73 9
 111 00b0 0564     		li	s0,4096
 112 00b2 13051491 		addi	a0,s0,-1775
 113              	.LVL19:
 114 00b6 97000000 		call	rcu_periph_reset_enable
 114      E7800000 
 115              	.LVL20:
  74:C:/Users/stapi/OneDrive/Desktop/GD32VW553/GD32VW55X_Wifi_BLE_SDK/GD32VW55x_RELEASE_V1.0.2/MSDK/plf/GD32VW55x_standard_peripheral/Source\gd32vw55x_timer.c ****         break;
 116              		.loc 1 74 9
 117 00be 13051491 		addi	a0,s0,-1775
 118 00c2 65B7     		j	.L11
 119              		.cfi_endproc
 120              	.LFE365:
 122              		.section	.text.timer_struct_para_init,"ax",@progbits
 123              		.align	1
 124              		.globl	timer_struct_para_init
 126              	timer_struct_para_init:
 127              	.LFB366:
  85:C:/Users/stapi/OneDrive/Desktop/GD32VW553/GD32VW55X_Wifi_BLE_SDK/GD32VW55x_RELEASE_V1.0.2/MSDK/plf/GD32VW55x_standard_peripheral/Source\gd32vw55x_timer.c **** 
  86:C:/Users/stapi/OneDrive/Desktop/GD32VW553/GD32VW55X_Wifi_BLE_SDK/GD32VW55x_RELEASE_V1.0.2/MSDK/plf/GD32VW55x_standard_peripheral/Source\gd32vw55x_timer.c **** /*!
  87:C:/Users/stapi/OneDrive/Desktop/GD32VW553/GD32VW55X_Wifi_BLE_SDK/GD32VW55x_RELEASE_V1.0.2/MSDK/plf/GD32VW55x_standard_peripheral/Source\gd32vw55x_timer.c ****     \brief      initialize TIMER init parameter struct with a default value
  88:C:/Users/stapi/OneDrive/Desktop/GD32VW553/GD32VW55X_Wifi_BLE_SDK/GD32VW55x_RELEASE_V1.0.2/MSDK/plf/GD32VW55x_standard_peripheral/Source\gd32vw55x_timer.c ****     \param[in]  initpara: init parameter struct
  89:C:/Users/stapi/OneDrive/Desktop/GD32VW553/GD32VW55X_Wifi_BLE_SDK/GD32VW55x_RELEASE_V1.0.2/MSDK/plf/GD32VW55x_standard_peripheral/Source\gd32vw55x_timer.c ****     \param[out] none
  90:C:/Users/stapi/OneDrive/Desktop/GD32VW553/GD32VW55X_Wifi_BLE_SDK/GD32VW55x_RELEASE_V1.0.2/MSDK/plf/GD32VW55x_standard_peripheral/Source\gd32vw55x_timer.c ****     \retval     none
  91:C:/Users/stapi/OneDrive/Desktop/GD32VW553/GD32VW55X_Wifi_BLE_SDK/GD32VW55x_RELEASE_V1.0.2/MSDK/plf/GD32VW55x_standard_peripheral/Source\gd32vw55x_timer.c **** */
  92:C:/Users/stapi/OneDrive/Desktop/GD32VW553/GD32VW55X_Wifi_BLE_SDK/GD32VW55x_RELEASE_V1.0.2/MSDK/plf/GD32VW55x_standard_peripheral/Source\gd32vw55x_timer.c **** void timer_struct_para_init(timer_parameter_struct* initpara)
  93:C:/Users/stapi/OneDrive/Desktop/GD32VW553/GD32VW55X_Wifi_BLE_SDK/GD32VW55x_RELEASE_V1.0.2/MSDK/plf/GD32VW55x_standard_peripheral/Source\gd32vw55x_timer.c **** {
 128              		.loc 1 93 1
 129              		.cfi_startproc
 130              	.LVL21:
  94:C:/Users/stapi/OneDrive/Desktop/GD32VW553/GD32VW55X_Wifi_BLE_SDK/GD32VW55x_RELEASE_V1.0.2/MSDK/plf/GD32VW55x_standard_peripheral/Source\gd32vw55x_timer.c ****     /* initialize the init parameter struct member with the default value */
  95:C:/Users/stapi/OneDrive/Desktop/GD32VW553/GD32VW55X_Wifi_BLE_SDK/GD32VW55x_RELEASE_V1.0.2/MSDK/plf/GD32VW55x_standard_peripheral/Source\gd32vw55x_timer.c ****     initpara->prescaler         = 0U;
 131              		.loc 1 95 5
  96:C:/Users/stapi/OneDrive/Desktop/GD32VW553/GD32VW55X_Wifi_BLE_SDK/GD32VW55x_RELEASE_V1.0.2/MSDK/plf/GD32VW55x_standard_peripheral/Source\gd32vw55x_timer.c ****     initpara->alignedmode       = TIMER_COUNTER_EDGE;
 132              		.loc 1 96 5
  97:C:/Users/stapi/OneDrive/Desktop/GD32VW553/GD32VW55X_Wifi_BLE_SDK/GD32VW55x_RELEASE_V1.0.2/MSDK/plf/GD32VW55x_standard_peripheral/Source\gd32vw55x_timer.c ****     initpara->counterdirection  = TIMER_COUNTER_UP;
 133              		.loc 1 97 5
  98:C:/Users/stapi/OneDrive/Desktop/GD32VW553/GD32VW55X_Wifi_BLE_SDK/GD32VW55x_RELEASE_V1.0.2/MSDK/plf/GD32VW55x_standard_peripheral/Source\gd32vw55x_timer.c ****     initpara->period            = 65535U;
 134              		.loc 1 98 33 is_stmt 0
 135 0000 C167     		li	a5,65536
 136 0002 FD17     		addi	a5,a5,-1
  95:C:/Users/stapi/OneDrive/Desktop/GD32VW553/GD32VW55X_Wifi_BLE_SDK/GD32VW55x_RELEASE_V1.0.2/MSDK/plf/GD32VW55x_standard_peripheral/Source\gd32vw55x_timer.c ****     initpara->alignedmode       = TIMER_COUNTER_EDGE;
 137              		.loc 1 95 33
 138 0004 23200500 		sw	zero,0(a0)
  97:C:/Users/stapi/OneDrive/Desktop/GD32VW553/GD32VW55X_Wifi_BLE_SDK/GD32VW55x_RELEASE_V1.0.2/MSDK/plf/GD32VW55x_standard_peripheral/Source\gd32vw55x_timer.c ****     initpara->counterdirection  = TIMER_COUNTER_UP;
 139              		.loc 1 97 33
 140 0008 23120500 		sh	zero,4(a0)
 141              		.loc 1 98 5 is_stmt 1
 142              		.loc 1 98 33 is_stmt 0
 143 000c 1CC5     		sw	a5,8(a0)
  99:C:/Users/stapi/OneDrive/Desktop/GD32VW553/GD32VW55X_Wifi_BLE_SDK/GD32VW55x_RELEASE_V1.0.2/MSDK/plf/GD32VW55x_standard_peripheral/Source\gd32vw55x_timer.c ****     initpara->clockdivision     = TIMER_CKDIV_DIV1;
 144              		.loc 1 99 5 is_stmt 1
 145              		.loc 1 99 33 is_stmt 0
 146 000e 23160500 		sh	zero,12(a0)
 100:C:/Users/stapi/OneDrive/Desktop/GD32VW553/GD32VW55X_Wifi_BLE_SDK/GD32VW55x_RELEASE_V1.0.2/MSDK/plf/GD32VW55x_standard_peripheral/Source\gd32vw55x_timer.c ****     initpara->repetitioncounter = 0U;
 147              		.loc 1 100 5 is_stmt 1
 148              		.loc 1 100 33 is_stmt 0
 149 0012 23070500 		sb	zero,14(a0)
 101:C:/Users/stapi/OneDrive/Desktop/GD32VW553/GD32VW55X_Wifi_BLE_SDK/GD32VW55x_RELEASE_V1.0.2/MSDK/plf/GD32VW55x_standard_peripheral/Source\gd32vw55x_timer.c **** }
 150              		.loc 1 101 1
 151 0016 8280     		ret
 152              		.cfi_endproc
 153              	.LFE366:
 155              		.section	.text.timer_init,"ax",@progbits
 156              		.align	1
 157              		.globl	timer_init
 159              	timer_init:
 160              	.LFB367:
 102:C:/Users/stapi/OneDrive/Desktop/GD32VW553/GD32VW55X_Wifi_BLE_SDK/GD32VW55x_RELEASE_V1.0.2/MSDK/plf/GD32VW55x_standard_peripheral/Source\gd32vw55x_timer.c **** 
 103:C:/Users/stapi/OneDrive/Desktop/GD32VW553/GD32VW55X_Wifi_BLE_SDK/GD32VW55x_RELEASE_V1.0.2/MSDK/plf/GD32VW55x_standard_peripheral/Source\gd32vw55x_timer.c **** /*!
 104:C:/Users/stapi/OneDrive/Desktop/GD32VW553/GD32VW55X_Wifi_BLE_SDK/GD32VW55x_RELEASE_V1.0.2/MSDK/plf/GD32VW55x_standard_peripheral/Source\gd32vw55x_timer.c ****     \brief      initialize TIMER counter
 105:C:/Users/stapi/OneDrive/Desktop/GD32VW553/GD32VW55X_Wifi_BLE_SDK/GD32VW55x_RELEASE_V1.0.2/MSDK/plf/GD32VW55x_standard_peripheral/Source\gd32vw55x_timer.c ****     \param[in]  timer_periph: TIMERx(x=0,1,2,5,15,16)
 106:C:/Users/stapi/OneDrive/Desktop/GD32VW553/GD32VW55X_Wifi_BLE_SDK/GD32VW55x_RELEASE_V1.0.2/MSDK/plf/GD32VW55x_standard_peripheral/Source\gd32vw55x_timer.c ****     \param[in]  initpara: init parameter struct
 107:C:/Users/stapi/OneDrive/Desktop/GD32VW553/GD32VW55X_Wifi_BLE_SDK/GD32VW55x_RELEASE_V1.0.2/MSDK/plf/GD32VW55x_standard_peripheral/Source\gd32vw55x_timer.c ****                   prescaler: prescaler value of the counter clock, 0~65535
 108:C:/Users/stapi/OneDrive/Desktop/GD32VW553/GD32VW55X_Wifi_BLE_SDK/GD32VW55x_RELEASE_V1.0.2/MSDK/plf/GD32VW55x_standard_peripheral/Source\gd32vw55x_timer.c ****                   alignedmode: TIMER_COUNTER_EDGE, TIMER_COUNTER_CENTER_DOWN, TIMER_COUNTER_CENTER_
 109:C:/Users/stapi/OneDrive/Desktop/GD32VW553/GD32VW55X_Wifi_BLE_SDK/GD32VW55x_RELEASE_V1.0.2/MSDK/plf/GD32VW55x_standard_peripheral/Source\gd32vw55x_timer.c ****                   counterdirection: TIMER_COUNTER_UP, TIMER_COUNTER_DOWN
 110:C:/Users/stapi/OneDrive/Desktop/GD32VW553/GD32VW55X_Wifi_BLE_SDK/GD32VW55x_RELEASE_V1.0.2/MSDK/plf/GD32VW55x_standard_peripheral/Source\gd32vw55x_timer.c ****                   period: counter auto reload value, 0~65535(TIMERx(x=0,5,15,16)),0~4294967295(TIME
 111:C:/Users/stapi/OneDrive/Desktop/GD32VW553/GD32VW55X_Wifi_BLE_SDK/GD32VW55x_RELEASE_V1.0.2/MSDK/plf/GD32VW55x_standard_peripheral/Source\gd32vw55x_timer.c ****                   clockdivision: TIMER_CKDIV_DIV1, TIMER_CKDIV_DIV2, TIMER_CKDIV_DIV4
 112:C:/Users/stapi/OneDrive/Desktop/GD32VW553/GD32VW55X_Wifi_BLE_SDK/GD32VW55x_RELEASE_V1.0.2/MSDK/plf/GD32VW55x_standard_peripheral/Source\gd32vw55x_timer.c ****                   repetitioncounter: counter repetition value, 0~255
 113:C:/Users/stapi/OneDrive/Desktop/GD32VW553/GD32VW55X_Wifi_BLE_SDK/GD32VW55x_RELEASE_V1.0.2/MSDK/plf/GD32VW55x_standard_peripheral/Source\gd32vw55x_timer.c ****     \param[out] none
 114:C:/Users/stapi/OneDrive/Desktop/GD32VW553/GD32VW55X_Wifi_BLE_SDK/GD32VW55x_RELEASE_V1.0.2/MSDK/plf/GD32VW55x_standard_peripheral/Source\gd32vw55x_timer.c ****     \retval     none
 115:C:/Users/stapi/OneDrive/Desktop/GD32VW553/GD32VW55X_Wifi_BLE_SDK/GD32VW55x_RELEASE_V1.0.2/MSDK/plf/GD32VW55x_standard_peripheral/Source\gd32vw55x_timer.c **** */
 116:C:/Users/stapi/OneDrive/Desktop/GD32VW553/GD32VW55X_Wifi_BLE_SDK/GD32VW55x_RELEASE_V1.0.2/MSDK/plf/GD32VW55x_standard_peripheral/Source\gd32vw55x_timer.c **** void timer_init(uint32_t timer_periph, timer_parameter_struct* initpara)
 117:C:/Users/stapi/OneDrive/Desktop/GD32VW553/GD32VW55X_Wifi_BLE_SDK/GD32VW55x_RELEASE_V1.0.2/MSDK/plf/GD32VW55x_standard_peripheral/Source\gd32vw55x_timer.c **** {
 161              		.loc 1 117 1 is_stmt 1
 162              		.cfi_startproc
 163              	.LVL22:
 118:C:/Users/stapi/OneDrive/Desktop/GD32VW553/GD32VW55X_Wifi_BLE_SDK/GD32VW55x_RELEASE_V1.0.2/MSDK/plf/GD32VW55x_standard_peripheral/Source\gd32vw55x_timer.c ****     /* configure the counter prescaler value */
 119:C:/Users/stapi/OneDrive/Desktop/GD32VW553/GD32VW55X_Wifi_BLE_SDK/GD32VW55x_RELEASE_V1.0.2/MSDK/plf/GD32VW55x_standard_peripheral/Source\gd32vw55x_timer.c ****     TIMER_PSC(timer_periph) = (uint16_t)initpara->prescaler;
 164              		.loc 1 119 5
 165              		.loc 1 119 31 is_stmt 0
 166 0000 83D70500 		lhu	a5,0(a1)
 167              		.loc 1 119 29
 168 0004 1CD5     		sw	a5,40(a0)
 120:C:/Users/stapi/OneDrive/Desktop/GD32VW553/GD32VW55X_Wifi_BLE_SDK/GD32VW55x_RELEASE_V1.0.2/MSDK/plf/GD32VW55x_standard_peripheral/Source\gd32vw55x_timer.c **** 
 121:C:/Users/stapi/OneDrive/Desktop/GD32VW553/GD32VW55X_Wifi_BLE_SDK/GD32VW55x_RELEASE_V1.0.2/MSDK/plf/GD32VW55x_standard_peripheral/Source\gd32vw55x_timer.c ****     /* configure the counter direction and aligned mode */
 122:C:/Users/stapi/OneDrive/Desktop/GD32VW553/GD32VW55X_Wifi_BLE_SDK/GD32VW55x_RELEASE_V1.0.2/MSDK/plf/GD32VW55x_standard_peripheral/Source\gd32vw55x_timer.c ****     if((TIMER0 == timer_periph) || (TIMER1 == timer_periph) || (TIMER2 == timer_periph)){
 169              		.loc 1 122 5 is_stmt 1
 170              		.loc 1 122 7 is_stmt 0
 171 0006 B7070140 		li	a5,1073807360
 172 000a 6308F500 		beq	a0,a5,.L14
 173              		.loc 1 122 33 discriminator 1
 174 000e 9377F5BF 		andi	a5,a0,-1025
 175 0012 37070040 		li	a4,1073741824
 176 0016 6393E702 		bne	a5,a4,.L15
 177              	.L14:
 123:C:/Users/stapi/OneDrive/Desktop/GD32VW553/GD32VW55X_Wifi_BLE_SDK/GD32VW55x_RELEASE_V1.0.2/MSDK/plf/GD32VW55x_standard_peripheral/Source\gd32vw55x_timer.c ****         TIMER_CTL0(timer_periph) &= (~(uint32_t)(TIMER_CTL0_DIR | TIMER_CTL0_CAM));
 178              		.loc 1 123 9 is_stmt 1
 179              		.loc 1 123 34 is_stmt 0
 180 001a 1C41     		lw	a5,0(a0)
 181 001c 93F7F7F8 		andi	a5,a5,-113
 182 0020 1CC1     		sw	a5,0(a0)
 124:C:/Users/stapi/OneDrive/Desktop/GD32VW553/GD32VW55X_Wifi_BLE_SDK/GD32VW55x_RELEASE_V1.0.2/MSDK/plf/GD32VW55x_standard_peripheral/Source\gd32vw55x_timer.c ****         TIMER_CTL0(timer_periph) |= (uint32_t)(initpara->alignedmode & ALIGNEDMODE_MASK);
 183              		.loc 1 124 9 is_stmt 1
 184              		.loc 1 124 37 is_stmt 0
 185 0022 83D72500 		lhu	a5,2(a1)
 186              		.loc 1 124 34
 187 0026 1841     		lw	a4,0(a0)
 188              		.loc 1 124 37
 189 0028 93F70706 		andi	a5,a5,96
 190              		.loc 1 124 34
 191 002c D98F     		or	a5,a5,a4
 192 002e 1CC1     		sw	a5,0(a0)
 125:C:/Users/stapi/OneDrive/Desktop/GD32VW553/GD32VW55X_Wifi_BLE_SDK/GD32VW55x_RELEASE_V1.0.2/MSDK/plf/GD32VW55x_standard_peripheral/Source\gd32vw55x_timer.c ****         TIMER_CTL0(timer_periph) |= (uint32_t)(initpara->counterdirection & COUNTERDIRECTION_MASK);
 193              		.loc 1 125 9 is_stmt 1
 194              		.loc 1 125 37 is_stmt 0
 195 0030 83D74500 		lhu	a5,4(a1)
 196              		.loc 1 125 34
 197 0034 1841     		lw	a4,0(a0)
 198              		.loc 1 125 37
 199 0036 C18B     		andi	a5,a5,16
 200              		.loc 1 125 34
 201 0038 D98F     		or	a5,a5,a4
 202 003a 1CC1     		sw	a5,0(a0)
 203              	.L15:
 126:C:/Users/stapi/OneDrive/Desktop/GD32VW553/GD32VW55X_Wifi_BLE_SDK/GD32VW55x_RELEASE_V1.0.2/MSDK/plf/GD32VW55x_standard_peripheral/Source\gd32vw55x_timer.c ****     }
 127:C:/Users/stapi/OneDrive/Desktop/GD32VW553/GD32VW55X_Wifi_BLE_SDK/GD32VW55x_RELEASE_V1.0.2/MSDK/plf/GD32VW55x_standard_peripheral/Source\gd32vw55x_timer.c **** 
 128:C:/Users/stapi/OneDrive/Desktop/GD32VW553/GD32VW55X_Wifi_BLE_SDK/GD32VW55x_RELEASE_V1.0.2/MSDK/plf/GD32VW55x_standard_peripheral/Source\gd32vw55x_timer.c ****     /* configure the autoreload value */
 129:C:/Users/stapi/OneDrive/Desktop/GD32VW553/GD32VW55X_Wifi_BLE_SDK/GD32VW55x_RELEASE_V1.0.2/MSDK/plf/GD32VW55x_standard_peripheral/Source\gd32vw55x_timer.c ****     TIMER_CAR(timer_periph) = (uint32_t)initpara->period;
 204              		.loc 1 129 5 is_stmt 1
 205              		.loc 1 129 49 is_stmt 0
 206 003c 9C45     		lw	a5,8(a1)
 207              		.loc 1 129 29
 208 003e 5CD5     		sw	a5,44(a0)
 130:C:/Users/stapi/OneDrive/Desktop/GD32VW553/GD32VW55X_Wifi_BLE_SDK/GD32VW55x_RELEASE_V1.0.2/MSDK/plf/GD32VW55x_standard_peripheral/Source\gd32vw55x_timer.c **** 
 131:C:/Users/stapi/OneDrive/Desktop/GD32VW553/GD32VW55X_Wifi_BLE_SDK/GD32VW55x_RELEASE_V1.0.2/MSDK/plf/GD32VW55x_standard_peripheral/Source\gd32vw55x_timer.c ****     if(TIMER5 != timer_periph){
 209              		.loc 1 131 5 is_stmt 1
 210              		.loc 1 131 7 is_stmt 0
 211 0040 B7170040 		li	a5,1073745920
 212 0044 630AF502 		beq	a0,a5,.L17
 132:C:/Users/stapi/OneDrive/Desktop/GD32VW553/GD32VW55X_Wifi_BLE_SDK/GD32VW55x_RELEASE_V1.0.2/MSDK/plf/GD32VW55x_standard_peripheral/Source\gd32vw55x_timer.c ****         /* reset the CKDIV bit */
 133:C:/Users/stapi/OneDrive/Desktop/GD32VW553/GD32VW55X_Wifi_BLE_SDK/GD32VW55x_RELEASE_V1.0.2/MSDK/plf/GD32VW55x_standard_peripheral/Source\gd32vw55x_timer.c ****         TIMER_CTL0(timer_periph) &= (~(uint32_t)TIMER_CTL0_CKDIV);
 213              		.loc 1 133 9 is_stmt 1
 214              		.loc 1 133 34 is_stmt 0
 215 0048 1C41     		lw	a5,0(a0)
 216 004a 93F7F7CF 		andi	a5,a5,-769
 217 004e 1CC1     		sw	a5,0(a0)
 134:C:/Users/stapi/OneDrive/Desktop/GD32VW553/GD32VW55X_Wifi_BLE_SDK/GD32VW55x_RELEASE_V1.0.2/MSDK/plf/GD32VW55x_standard_peripheral/Source\gd32vw55x_timer.c ****         TIMER_CTL0(timer_periph) |= (uint32_t)(initpara->clockdivision & CLOCKDIVISION_MASK);
 218              		.loc 1 134 9 is_stmt 1
 219              		.loc 1 134 37 is_stmt 0
 220 0050 83D7C500 		lhu	a5,12(a1)
 221              		.loc 1 134 34
 222 0054 1841     		lw	a4,0(a0)
 223              		.loc 1 134 37
 224 0056 93F70730 		andi	a5,a5,768
 225              		.loc 1 134 34
 226 005a D98F     		or	a5,a5,a4
 227 005c 1CC1     		sw	a5,0(a0)
 135:C:/Users/stapi/OneDrive/Desktop/GD32VW553/GD32VW55X_Wifi_BLE_SDK/GD32VW55x_RELEASE_V1.0.2/MSDK/plf/GD32VW55x_standard_peripheral/Source\gd32vw55x_timer.c ****     }
 136:C:/Users/stapi/OneDrive/Desktop/GD32VW553/GD32VW55X_Wifi_BLE_SDK/GD32VW55x_RELEASE_V1.0.2/MSDK/plf/GD32VW55x_standard_peripheral/Source\gd32vw55x_timer.c **** 
 137:C:/Users/stapi/OneDrive/Desktop/GD32VW553/GD32VW55X_Wifi_BLE_SDK/GD32VW55x_RELEASE_V1.0.2/MSDK/plf/GD32VW55x_standard_peripheral/Source\gd32vw55x_timer.c ****     if((TIMER0 == timer_periph) || (TIMER15 == timer_periph) || (TIMER16 == timer_periph)){
 228              		.loc 1 137 5 is_stmt 1
 229              		.loc 1 137 7 is_stmt 0
 230 005e B7070140 		li	a5,1073807360
 231 0062 6308F500 		beq	a0,a5,.L18
 232              		.loc 1 137 33 discriminator 1
 233 0066 9377F5BF 		andi	a5,a0,-1025
 234 006a 37870140 		li	a4,1073840128
 235 006e 6395E700 		bne	a5,a4,.L17
 236              	.L18:
 138:C:/Users/stapi/OneDrive/Desktop/GD32VW553/GD32VW55X_Wifi_BLE_SDK/GD32VW55x_RELEASE_V1.0.2/MSDK/plf/GD32VW55x_standard_peripheral/Source\gd32vw55x_timer.c ****         /* configure the repetition counter value */
 139:C:/Users/stapi/OneDrive/Desktop/GD32VW553/GD32VW55X_Wifi_BLE_SDK/GD32VW55x_RELEASE_V1.0.2/MSDK/plf/GD32VW55x_standard_peripheral/Source\gd32vw55x_timer.c ****         TIMER_CREP(timer_periph) = (uint32_t)initpara->repetitioncounter;
 237              		.loc 1 139 9 is_stmt 1
 238              		.loc 1 139 36 is_stmt 0
 239 0072 83C7E500 		lbu	a5,14(a1)
 240              		.loc 1 139 34
 241 0076 1CD9     		sw	a5,48(a0)
 242              	.L17:
 140:C:/Users/stapi/OneDrive/Desktop/GD32VW553/GD32VW55X_Wifi_BLE_SDK/GD32VW55x_RELEASE_V1.0.2/MSDK/plf/GD32VW55x_standard_peripheral/Source\gd32vw55x_timer.c ****     }
 141:C:/Users/stapi/OneDrive/Desktop/GD32VW553/GD32VW55X_Wifi_BLE_SDK/GD32VW55x_RELEASE_V1.0.2/MSDK/plf/GD32VW55x_standard_peripheral/Source\gd32vw55x_timer.c **** 
 142:C:/Users/stapi/OneDrive/Desktop/GD32VW553/GD32VW55X_Wifi_BLE_SDK/GD32VW55x_RELEASE_V1.0.2/MSDK/plf/GD32VW55x_standard_peripheral/Source\gd32vw55x_timer.c ****     /* generate an update event */
 143:C:/Users/stapi/OneDrive/Desktop/GD32VW553/GD32VW55X_Wifi_BLE_SDK/GD32VW55x_RELEASE_V1.0.2/MSDK/plf/GD32VW55x_standard_peripheral/Source\gd32vw55x_timer.c ****     TIMER_SWEVG(timer_periph) |= (uint32_t)TIMER_SWEVG_UPG;
 243              		.loc 1 143 5 is_stmt 1
 244              		.loc 1 143 31 is_stmt 0
 245 0078 5C49     		lw	a5,20(a0)
 246 007a 93E71700 		ori	a5,a5,1
 247 007e 5CC9     		sw	a5,20(a0)
 144:C:/Users/stapi/OneDrive/Desktop/GD32VW553/GD32VW55X_Wifi_BLE_SDK/GD32VW55x_RELEASE_V1.0.2/MSDK/plf/GD32VW55x_standard_peripheral/Source\gd32vw55x_timer.c **** }
 248              		.loc 1 144 1
 249 0080 8280     		ret
 250              		.cfi_endproc
 251              	.LFE367:
 253              		.section	.text.timer_enable,"ax",@progbits
 254              		.align	1
 255              		.globl	timer_enable
 257              	timer_enable:
 258              	.LFB368:
 145:C:/Users/stapi/OneDrive/Desktop/GD32VW553/GD32VW55X_Wifi_BLE_SDK/GD32VW55x_RELEASE_V1.0.2/MSDK/plf/GD32VW55x_standard_peripheral/Source\gd32vw55x_timer.c **** 
 146:C:/Users/stapi/OneDrive/Desktop/GD32VW553/GD32VW55X_Wifi_BLE_SDK/GD32VW55x_RELEASE_V1.0.2/MSDK/plf/GD32VW55x_standard_peripheral/Source\gd32vw55x_timer.c **** /*!
 147:C:/Users/stapi/OneDrive/Desktop/GD32VW553/GD32VW55X_Wifi_BLE_SDK/GD32VW55x_RELEASE_V1.0.2/MSDK/plf/GD32VW55x_standard_peripheral/Source\gd32vw55x_timer.c ****     \brief      enable a TIMER
 148:C:/Users/stapi/OneDrive/Desktop/GD32VW553/GD32VW55X_Wifi_BLE_SDK/GD32VW55x_RELEASE_V1.0.2/MSDK/plf/GD32VW55x_standard_peripheral/Source\gd32vw55x_timer.c ****     \param[in]  timer_periph: TIMERx(x=0,1,2,5,15,16)
 149:C:/Users/stapi/OneDrive/Desktop/GD32VW553/GD32VW55X_Wifi_BLE_SDK/GD32VW55x_RELEASE_V1.0.2/MSDK/plf/GD32VW55x_standard_peripheral/Source\gd32vw55x_timer.c ****     \param[out] none
 150:C:/Users/stapi/OneDrive/Desktop/GD32VW553/GD32VW55X_Wifi_BLE_SDK/GD32VW55x_RELEASE_V1.0.2/MSDK/plf/GD32VW55x_standard_peripheral/Source\gd32vw55x_timer.c ****     \retval     none
 151:C:/Users/stapi/OneDrive/Desktop/GD32VW553/GD32VW55X_Wifi_BLE_SDK/GD32VW55x_RELEASE_V1.0.2/MSDK/plf/GD32VW55x_standard_peripheral/Source\gd32vw55x_timer.c **** */
 152:C:/Users/stapi/OneDrive/Desktop/GD32VW553/GD32VW55X_Wifi_BLE_SDK/GD32VW55x_RELEASE_V1.0.2/MSDK/plf/GD32VW55x_standard_peripheral/Source\gd32vw55x_timer.c **** void timer_enable(uint32_t timer_periph)
 153:C:/Users/stapi/OneDrive/Desktop/GD32VW553/GD32VW55X_Wifi_BLE_SDK/GD32VW55x_RELEASE_V1.0.2/MSDK/plf/GD32VW55x_standard_peripheral/Source\gd32vw55x_timer.c **** {
 259              		.loc 1 153 1 is_stmt 1
 260              		.cfi_startproc
 261              	.LVL23:
 154:C:/Users/stapi/OneDrive/Desktop/GD32VW553/GD32VW55X_Wifi_BLE_SDK/GD32VW55x_RELEASE_V1.0.2/MSDK/plf/GD32VW55x_standard_peripheral/Source\gd32vw55x_timer.c ****     TIMER_CTL0(timer_periph) |= (uint32_t)TIMER_CTL0_CEN;
 262              		.loc 1 154 5
 263              		.loc 1 154 30 is_stmt 0
 264 0000 1C41     		lw	a5,0(a0)
 265 0002 93E71700 		ori	a5,a5,1
 266 0006 1CC1     		sw	a5,0(a0)
 155:C:/Users/stapi/OneDrive/Desktop/GD32VW553/GD32VW55X_Wifi_BLE_SDK/GD32VW55x_RELEASE_V1.0.2/MSDK/plf/GD32VW55x_standard_peripheral/Source\gd32vw55x_timer.c **** }
 267              		.loc 1 155 1
 268 0008 8280     		ret
 269              		.cfi_endproc
 270              	.LFE368:
 272              		.section	.text.timer_disable,"ax",@progbits
 273              		.align	1
 274              		.globl	timer_disable
 276              	timer_disable:
 277              	.LFB369:
 156:C:/Users/stapi/OneDrive/Desktop/GD32VW553/GD32VW55X_Wifi_BLE_SDK/GD32VW55x_RELEASE_V1.0.2/MSDK/plf/GD32VW55x_standard_peripheral/Source\gd32vw55x_timer.c **** 
 157:C:/Users/stapi/OneDrive/Desktop/GD32VW553/GD32VW55X_Wifi_BLE_SDK/GD32VW55x_RELEASE_V1.0.2/MSDK/plf/GD32VW55x_standard_peripheral/Source\gd32vw55x_timer.c **** /*!
 158:C:/Users/stapi/OneDrive/Desktop/GD32VW553/GD32VW55X_Wifi_BLE_SDK/GD32VW55x_RELEASE_V1.0.2/MSDK/plf/GD32VW55x_standard_peripheral/Source\gd32vw55x_timer.c ****     \brief      disable a TIMER
 159:C:/Users/stapi/OneDrive/Desktop/GD32VW553/GD32VW55X_Wifi_BLE_SDK/GD32VW55x_RELEASE_V1.0.2/MSDK/plf/GD32VW55x_standard_peripheral/Source\gd32vw55x_timer.c ****     \param[in]  timer_periph: TIMERx(x=0,1,2,5,15,16)
 160:C:/Users/stapi/OneDrive/Desktop/GD32VW553/GD32VW55X_Wifi_BLE_SDK/GD32VW55x_RELEASE_V1.0.2/MSDK/plf/GD32VW55x_standard_peripheral/Source\gd32vw55x_timer.c ****     \param[out] none
 161:C:/Users/stapi/OneDrive/Desktop/GD32VW553/GD32VW55X_Wifi_BLE_SDK/GD32VW55x_RELEASE_V1.0.2/MSDK/plf/GD32VW55x_standard_peripheral/Source\gd32vw55x_timer.c ****     \retval     none
 162:C:/Users/stapi/OneDrive/Desktop/GD32VW553/GD32VW55X_Wifi_BLE_SDK/GD32VW55x_RELEASE_V1.0.2/MSDK/plf/GD32VW55x_standard_peripheral/Source\gd32vw55x_timer.c **** */
 163:C:/Users/stapi/OneDrive/Desktop/GD32VW553/GD32VW55X_Wifi_BLE_SDK/GD32VW55x_RELEASE_V1.0.2/MSDK/plf/GD32VW55x_standard_peripheral/Source\gd32vw55x_timer.c **** void timer_disable(uint32_t timer_periph)
 164:C:/Users/stapi/OneDrive/Desktop/GD32VW553/GD32VW55X_Wifi_BLE_SDK/GD32VW55x_RELEASE_V1.0.2/MSDK/plf/GD32VW55x_standard_peripheral/Source\gd32vw55x_timer.c **** {
 278              		.loc 1 164 1 is_stmt 1
 279              		.cfi_startproc
 280              	.LVL24:
 165:C:/Users/stapi/OneDrive/Desktop/GD32VW553/GD32VW55X_Wifi_BLE_SDK/GD32VW55x_RELEASE_V1.0.2/MSDK/plf/GD32VW55x_standard_peripheral/Source\gd32vw55x_timer.c ****     TIMER_CTL0(timer_periph) &= ~(uint32_t)TIMER_CTL0_CEN;
 281              		.loc 1 165 5
 282              		.loc 1 165 30 is_stmt 0
 283 0000 1C41     		lw	a5,0(a0)
 284 0002 F99B     		andi	a5,a5,-2
 285 0004 1CC1     		sw	a5,0(a0)
 166:C:/Users/stapi/OneDrive/Desktop/GD32VW553/GD32VW55X_Wifi_BLE_SDK/GD32VW55x_RELEASE_V1.0.2/MSDK/plf/GD32VW55x_standard_peripheral/Source\gd32vw55x_timer.c **** }
 286              		.loc 1 166 1
 287 0006 8280     		ret
 288              		.cfi_endproc
 289              	.LFE369:
 291              		.section	.text.timer_auto_reload_shadow_enable,"ax",@progbits
 292              		.align	1
 293              		.globl	timer_auto_reload_shadow_enable
 295              	timer_auto_reload_shadow_enable:
 296              	.LFB370:
 167:C:/Users/stapi/OneDrive/Desktop/GD32VW553/GD32VW55X_Wifi_BLE_SDK/GD32VW55x_RELEASE_V1.0.2/MSDK/plf/GD32VW55x_standard_peripheral/Source\gd32vw55x_timer.c **** 
 168:C:/Users/stapi/OneDrive/Desktop/GD32VW553/GD32VW55X_Wifi_BLE_SDK/GD32VW55x_RELEASE_V1.0.2/MSDK/plf/GD32VW55x_standard_peripheral/Source\gd32vw55x_timer.c **** /*!
 169:C:/Users/stapi/OneDrive/Desktop/GD32VW553/GD32VW55X_Wifi_BLE_SDK/GD32VW55x_RELEASE_V1.0.2/MSDK/plf/GD32VW55x_standard_peripheral/Source\gd32vw55x_timer.c ****     \brief      enable the auto reload shadow function
 170:C:/Users/stapi/OneDrive/Desktop/GD32VW553/GD32VW55X_Wifi_BLE_SDK/GD32VW55x_RELEASE_V1.0.2/MSDK/plf/GD32VW55x_standard_peripheral/Source\gd32vw55x_timer.c ****     \param[in]  timer_periph: TIMERx(x=0,1,2,5,15,16)
 171:C:/Users/stapi/OneDrive/Desktop/GD32VW553/GD32VW55X_Wifi_BLE_SDK/GD32VW55x_RELEASE_V1.0.2/MSDK/plf/GD32VW55x_standard_peripheral/Source\gd32vw55x_timer.c ****     \param[out] none
 172:C:/Users/stapi/OneDrive/Desktop/GD32VW553/GD32VW55X_Wifi_BLE_SDK/GD32VW55x_RELEASE_V1.0.2/MSDK/plf/GD32VW55x_standard_peripheral/Source\gd32vw55x_timer.c ****     \retval     none
 173:C:/Users/stapi/OneDrive/Desktop/GD32VW553/GD32VW55X_Wifi_BLE_SDK/GD32VW55x_RELEASE_V1.0.2/MSDK/plf/GD32VW55x_standard_peripheral/Source\gd32vw55x_timer.c **** */
 174:C:/Users/stapi/OneDrive/Desktop/GD32VW553/GD32VW55X_Wifi_BLE_SDK/GD32VW55x_RELEASE_V1.0.2/MSDK/plf/GD32VW55x_standard_peripheral/Source\gd32vw55x_timer.c **** void timer_auto_reload_shadow_enable(uint32_t timer_periph)
 175:C:/Users/stapi/OneDrive/Desktop/GD32VW553/GD32VW55X_Wifi_BLE_SDK/GD32VW55x_RELEASE_V1.0.2/MSDK/plf/GD32VW55x_standard_peripheral/Source\gd32vw55x_timer.c **** {
 297              		.loc 1 175 1 is_stmt 1
 298              		.cfi_startproc
 299              	.LVL25:
 176:C:/Users/stapi/OneDrive/Desktop/GD32VW553/GD32VW55X_Wifi_BLE_SDK/GD32VW55x_RELEASE_V1.0.2/MSDK/plf/GD32VW55x_standard_peripheral/Source\gd32vw55x_timer.c ****     TIMER_CTL0(timer_periph) |= (uint32_t)TIMER_CTL0_ARSE;
 300              		.loc 1 176 5
 301              		.loc 1 176 30 is_stmt 0
 302 0000 1C41     		lw	a5,0(a0)
 303 0002 93E70708 		ori	a5,a5,128
 304 0006 1CC1     		sw	a5,0(a0)
 177:C:/Users/stapi/OneDrive/Desktop/GD32VW553/GD32VW55X_Wifi_BLE_SDK/GD32VW55x_RELEASE_V1.0.2/MSDK/plf/GD32VW55x_standard_peripheral/Source\gd32vw55x_timer.c **** }
 305              		.loc 1 177 1
 306 0008 8280     		ret
 307              		.cfi_endproc
 308              	.LFE370:
 310              		.section	.text.timer_auto_reload_shadow_disable,"ax",@progbits
 311              		.align	1
 312              		.globl	timer_auto_reload_shadow_disable
 314              	timer_auto_reload_shadow_disable:
 315              	.LFB371:
 178:C:/Users/stapi/OneDrive/Desktop/GD32VW553/GD32VW55X_Wifi_BLE_SDK/GD32VW55x_RELEASE_V1.0.2/MSDK/plf/GD32VW55x_standard_peripheral/Source\gd32vw55x_timer.c **** 
 179:C:/Users/stapi/OneDrive/Desktop/GD32VW553/GD32VW55X_Wifi_BLE_SDK/GD32VW55x_RELEASE_V1.0.2/MSDK/plf/GD32VW55x_standard_peripheral/Source\gd32vw55x_timer.c **** /*!
 180:C:/Users/stapi/OneDrive/Desktop/GD32VW553/GD32VW55X_Wifi_BLE_SDK/GD32VW55x_RELEASE_V1.0.2/MSDK/plf/GD32VW55x_standard_peripheral/Source\gd32vw55x_timer.c ****     \brief      disable the auto reload shadow function
 181:C:/Users/stapi/OneDrive/Desktop/GD32VW553/GD32VW55X_Wifi_BLE_SDK/GD32VW55x_RELEASE_V1.0.2/MSDK/plf/GD32VW55x_standard_peripheral/Source\gd32vw55x_timer.c ****     \param[in]  timer_periph: TIMERx(x=0,1,2,5,15,16)
 182:C:/Users/stapi/OneDrive/Desktop/GD32VW553/GD32VW55X_Wifi_BLE_SDK/GD32VW55x_RELEASE_V1.0.2/MSDK/plf/GD32VW55x_standard_peripheral/Source\gd32vw55x_timer.c ****     \param[out] none
 183:C:/Users/stapi/OneDrive/Desktop/GD32VW553/GD32VW55X_Wifi_BLE_SDK/GD32VW55x_RELEASE_V1.0.2/MSDK/plf/GD32VW55x_standard_peripheral/Source\gd32vw55x_timer.c ****     \retval     none
 184:C:/Users/stapi/OneDrive/Desktop/GD32VW553/GD32VW55X_Wifi_BLE_SDK/GD32VW55x_RELEASE_V1.0.2/MSDK/plf/GD32VW55x_standard_peripheral/Source\gd32vw55x_timer.c **** */
 185:C:/Users/stapi/OneDrive/Desktop/GD32VW553/GD32VW55X_Wifi_BLE_SDK/GD32VW55x_RELEASE_V1.0.2/MSDK/plf/GD32VW55x_standard_peripheral/Source\gd32vw55x_timer.c **** void timer_auto_reload_shadow_disable(uint32_t timer_periph)
 186:C:/Users/stapi/OneDrive/Desktop/GD32VW553/GD32VW55X_Wifi_BLE_SDK/GD32VW55x_RELEASE_V1.0.2/MSDK/plf/GD32VW55x_standard_peripheral/Source\gd32vw55x_timer.c **** {
 316              		.loc 1 186 1 is_stmt 1
 317              		.cfi_startproc
 318              	.LVL26:
 187:C:/Users/stapi/OneDrive/Desktop/GD32VW553/GD32VW55X_Wifi_BLE_SDK/GD32VW55x_RELEASE_V1.0.2/MSDK/plf/GD32VW55x_standard_peripheral/Source\gd32vw55x_timer.c ****     TIMER_CTL0(timer_periph) &= ~(uint32_t)TIMER_CTL0_ARSE;
 319              		.loc 1 187 5
 320              		.loc 1 187 30 is_stmt 0
 321 0000 1C41     		lw	a5,0(a0)
 322 0002 93F7F7F7 		andi	a5,a5,-129
 323 0006 1CC1     		sw	a5,0(a0)
 188:C:/Users/stapi/OneDrive/Desktop/GD32VW553/GD32VW55X_Wifi_BLE_SDK/GD32VW55x_RELEASE_V1.0.2/MSDK/plf/GD32VW55x_standard_peripheral/Source\gd32vw55x_timer.c **** }
 324              		.loc 1 188 1
 325 0008 8280     		ret
 326              		.cfi_endproc
 327              	.LFE371:
 329              		.section	.text.timer_update_event_enable,"ax",@progbits
 330              		.align	1
 331              		.globl	timer_update_event_enable
 333              	timer_update_event_enable:
 334              	.LFB372:
 189:C:/Users/stapi/OneDrive/Desktop/GD32VW553/GD32VW55X_Wifi_BLE_SDK/GD32VW55x_RELEASE_V1.0.2/MSDK/plf/GD32VW55x_standard_peripheral/Source\gd32vw55x_timer.c **** 
 190:C:/Users/stapi/OneDrive/Desktop/GD32VW553/GD32VW55X_Wifi_BLE_SDK/GD32VW55x_RELEASE_V1.0.2/MSDK/plf/GD32VW55x_standard_peripheral/Source\gd32vw55x_timer.c **** /*!
 191:C:/Users/stapi/OneDrive/Desktop/GD32VW553/GD32VW55X_Wifi_BLE_SDK/GD32VW55x_RELEASE_V1.0.2/MSDK/plf/GD32VW55x_standard_peripheral/Source\gd32vw55x_timer.c ****     \brief      enable the update event
 192:C:/Users/stapi/OneDrive/Desktop/GD32VW553/GD32VW55X_Wifi_BLE_SDK/GD32VW55x_RELEASE_V1.0.2/MSDK/plf/GD32VW55x_standard_peripheral/Source\gd32vw55x_timer.c ****     \param[in]  timer_periph: TIMERx(x=0,1,2,5,15,16)
 193:C:/Users/stapi/OneDrive/Desktop/GD32VW553/GD32VW55X_Wifi_BLE_SDK/GD32VW55x_RELEASE_V1.0.2/MSDK/plf/GD32VW55x_standard_peripheral/Source\gd32vw55x_timer.c ****     \param[out] none
 194:C:/Users/stapi/OneDrive/Desktop/GD32VW553/GD32VW55X_Wifi_BLE_SDK/GD32VW55x_RELEASE_V1.0.2/MSDK/plf/GD32VW55x_standard_peripheral/Source\gd32vw55x_timer.c ****     \retval     none
 195:C:/Users/stapi/OneDrive/Desktop/GD32VW553/GD32VW55X_Wifi_BLE_SDK/GD32VW55x_RELEASE_V1.0.2/MSDK/plf/GD32VW55x_standard_peripheral/Source\gd32vw55x_timer.c **** */
 196:C:/Users/stapi/OneDrive/Desktop/GD32VW553/GD32VW55X_Wifi_BLE_SDK/GD32VW55x_RELEASE_V1.0.2/MSDK/plf/GD32VW55x_standard_peripheral/Source\gd32vw55x_timer.c **** void timer_update_event_enable(uint32_t timer_periph)
 197:C:/Users/stapi/OneDrive/Desktop/GD32VW553/GD32VW55X_Wifi_BLE_SDK/GD32VW55x_RELEASE_V1.0.2/MSDK/plf/GD32VW55x_standard_peripheral/Source\gd32vw55x_timer.c **** {
 335              		.loc 1 197 1 is_stmt 1
 336              		.cfi_startproc
 337              	.LVL27:
 198:C:/Users/stapi/OneDrive/Desktop/GD32VW553/GD32VW55X_Wifi_BLE_SDK/GD32VW55x_RELEASE_V1.0.2/MSDK/plf/GD32VW55x_standard_peripheral/Source\gd32vw55x_timer.c ****     TIMER_CTL0(timer_periph) &= ~(uint32_t)TIMER_CTL0_UPDIS;
 338              		.loc 1 198 5
 339              		.loc 1 198 30 is_stmt 0
 340 0000 1C41     		lw	a5,0(a0)
 341 0002 F59B     		andi	a5,a5,-3
 342 0004 1CC1     		sw	a5,0(a0)
 199:C:/Users/stapi/OneDrive/Desktop/GD32VW553/GD32VW55X_Wifi_BLE_SDK/GD32VW55x_RELEASE_V1.0.2/MSDK/plf/GD32VW55x_standard_peripheral/Source\gd32vw55x_timer.c **** }
 343              		.loc 1 199 1
 344 0006 8280     		ret
 345              		.cfi_endproc
 346              	.LFE372:
 348              		.section	.text.timer_update_event_disable,"ax",@progbits
 349              		.align	1
 350              		.globl	timer_update_event_disable
 352              	timer_update_event_disable:
 353              	.LFB373:
 200:C:/Users/stapi/OneDrive/Desktop/GD32VW553/GD32VW55X_Wifi_BLE_SDK/GD32VW55x_RELEASE_V1.0.2/MSDK/plf/GD32VW55x_standard_peripheral/Source\gd32vw55x_timer.c **** 
 201:C:/Users/stapi/OneDrive/Desktop/GD32VW553/GD32VW55X_Wifi_BLE_SDK/GD32VW55x_RELEASE_V1.0.2/MSDK/plf/GD32VW55x_standard_peripheral/Source\gd32vw55x_timer.c **** /*!
 202:C:/Users/stapi/OneDrive/Desktop/GD32VW553/GD32VW55X_Wifi_BLE_SDK/GD32VW55x_RELEASE_V1.0.2/MSDK/plf/GD32VW55x_standard_peripheral/Source\gd32vw55x_timer.c ****     \brief      disable the update event
 203:C:/Users/stapi/OneDrive/Desktop/GD32VW553/GD32VW55X_Wifi_BLE_SDK/GD32VW55x_RELEASE_V1.0.2/MSDK/plf/GD32VW55x_standard_peripheral/Source\gd32vw55x_timer.c ****     \param[in]  timer_periph: TIMERx(x=0,1,2,5,15,16)
 204:C:/Users/stapi/OneDrive/Desktop/GD32VW553/GD32VW55X_Wifi_BLE_SDK/GD32VW55x_RELEASE_V1.0.2/MSDK/plf/GD32VW55x_standard_peripheral/Source\gd32vw55x_timer.c ****     \param[out] none
 205:C:/Users/stapi/OneDrive/Desktop/GD32VW553/GD32VW55X_Wifi_BLE_SDK/GD32VW55x_RELEASE_V1.0.2/MSDK/plf/GD32VW55x_standard_peripheral/Source\gd32vw55x_timer.c ****     \retval     none
 206:C:/Users/stapi/OneDrive/Desktop/GD32VW553/GD32VW55X_Wifi_BLE_SDK/GD32VW55x_RELEASE_V1.0.2/MSDK/plf/GD32VW55x_standard_peripheral/Source\gd32vw55x_timer.c **** */
 207:C:/Users/stapi/OneDrive/Desktop/GD32VW553/GD32VW55X_Wifi_BLE_SDK/GD32VW55x_RELEASE_V1.0.2/MSDK/plf/GD32VW55x_standard_peripheral/Source\gd32vw55x_timer.c **** void timer_update_event_disable(uint32_t timer_periph)
 208:C:/Users/stapi/OneDrive/Desktop/GD32VW553/GD32VW55X_Wifi_BLE_SDK/GD32VW55x_RELEASE_V1.0.2/MSDK/plf/GD32VW55x_standard_peripheral/Source\gd32vw55x_timer.c **** {
 354              		.loc 1 208 1 is_stmt 1
 355              		.cfi_startproc
 356              	.LVL28:
 209:C:/Users/stapi/OneDrive/Desktop/GD32VW553/GD32VW55X_Wifi_BLE_SDK/GD32VW55x_RELEASE_V1.0.2/MSDK/plf/GD32VW55x_standard_peripheral/Source\gd32vw55x_timer.c ****     TIMER_CTL0(timer_periph) |= (uint32_t) TIMER_CTL0_UPDIS;
 357              		.loc 1 209 5
 358              		.loc 1 209 30 is_stmt 0
 359 0000 1C41     		lw	a5,0(a0)
 360 0002 93E72700 		ori	a5,a5,2
 361 0006 1CC1     		sw	a5,0(a0)
 210:C:/Users/stapi/OneDrive/Desktop/GD32VW553/GD32VW55X_Wifi_BLE_SDK/GD32VW55x_RELEASE_V1.0.2/MSDK/plf/GD32VW55x_standard_peripheral/Source\gd32vw55x_timer.c **** }
 362              		.loc 1 210 1
 363 0008 8280     		ret
 364              		.cfi_endproc
 365              	.LFE373:
 367              		.section	.text.timer_counter_alignment,"ax",@progbits
 368              		.align	1
 369              		.globl	timer_counter_alignment
 371              	timer_counter_alignment:
 372              	.LFB374:
 211:C:/Users/stapi/OneDrive/Desktop/GD32VW553/GD32VW55X_Wifi_BLE_SDK/GD32VW55x_RELEASE_V1.0.2/MSDK/plf/GD32VW55x_standard_peripheral/Source\gd32vw55x_timer.c **** 
 212:C:/Users/stapi/OneDrive/Desktop/GD32VW553/GD32VW55X_Wifi_BLE_SDK/GD32VW55x_RELEASE_V1.0.2/MSDK/plf/GD32VW55x_standard_peripheral/Source\gd32vw55x_timer.c **** /*!
 213:C:/Users/stapi/OneDrive/Desktop/GD32VW553/GD32VW55X_Wifi_BLE_SDK/GD32VW55x_RELEASE_V1.0.2/MSDK/plf/GD32VW55x_standard_peripheral/Source\gd32vw55x_timer.c ****     \brief      set TIMER counter alignment mode
 214:C:/Users/stapi/OneDrive/Desktop/GD32VW553/GD32VW55X_Wifi_BLE_SDK/GD32VW55x_RELEASE_V1.0.2/MSDK/plf/GD32VW55x_standard_peripheral/Source\gd32vw55x_timer.c ****     \param[in]  timer_periph: TIMERx(x=0,1,2)
 215:C:/Users/stapi/OneDrive/Desktop/GD32VW553/GD32VW55X_Wifi_BLE_SDK/GD32VW55x_RELEASE_V1.0.2/MSDK/plf/GD32VW55x_standard_peripheral/Source\gd32vw55x_timer.c ****     \param[in]  aligned:
 216:C:/Users/stapi/OneDrive/Desktop/GD32VW553/GD32VW55X_Wifi_BLE_SDK/GD32VW55x_RELEASE_V1.0.2/MSDK/plf/GD32VW55x_standard_peripheral/Source\gd32vw55x_timer.c ****                 only one parameter can be selected which is shown as below:
 217:C:/Users/stapi/OneDrive/Desktop/GD32VW553/GD32VW55X_Wifi_BLE_SDK/GD32VW55x_RELEASE_V1.0.2/MSDK/plf/GD32VW55x_standard_peripheral/Source\gd32vw55x_timer.c ****       \arg        TIMER_COUNTER_EDGE: edge-aligned mode
 218:C:/Users/stapi/OneDrive/Desktop/GD32VW553/GD32VW55X_Wifi_BLE_SDK/GD32VW55x_RELEASE_V1.0.2/MSDK/plf/GD32VW55x_standard_peripheral/Source\gd32vw55x_timer.c ****       \arg        TIMER_COUNTER_CENTER_DOWN: center-aligned and counting down assert mode
 219:C:/Users/stapi/OneDrive/Desktop/GD32VW553/GD32VW55X_Wifi_BLE_SDK/GD32VW55x_RELEASE_V1.0.2/MSDK/plf/GD32VW55x_standard_peripheral/Source\gd32vw55x_timer.c ****       \arg        TIMER_COUNTER_CENTER_UP: center-aligned and counting up assert mode
 220:C:/Users/stapi/OneDrive/Desktop/GD32VW553/GD32VW55X_Wifi_BLE_SDK/GD32VW55x_RELEASE_V1.0.2/MSDK/plf/GD32VW55x_standard_peripheral/Source\gd32vw55x_timer.c ****       \arg        TIMER_COUNTER_CENTER_BOTH: center-aligned and counting up/down assert mode
 221:C:/Users/stapi/OneDrive/Desktop/GD32VW553/GD32VW55X_Wifi_BLE_SDK/GD32VW55x_RELEASE_V1.0.2/MSDK/plf/GD32VW55x_standard_peripheral/Source\gd32vw55x_timer.c ****     \param[out] none
 222:C:/Users/stapi/OneDrive/Desktop/GD32VW553/GD32VW55X_Wifi_BLE_SDK/GD32VW55x_RELEASE_V1.0.2/MSDK/plf/GD32VW55x_standard_peripheral/Source\gd32vw55x_timer.c ****     \retval     none
 223:C:/Users/stapi/OneDrive/Desktop/GD32VW553/GD32VW55X_Wifi_BLE_SDK/GD32VW55x_RELEASE_V1.0.2/MSDK/plf/GD32VW55x_standard_peripheral/Source\gd32vw55x_timer.c **** */
 224:C:/Users/stapi/OneDrive/Desktop/GD32VW553/GD32VW55X_Wifi_BLE_SDK/GD32VW55x_RELEASE_V1.0.2/MSDK/plf/GD32VW55x_standard_peripheral/Source\gd32vw55x_timer.c **** void timer_counter_alignment(uint32_t timer_periph, uint16_t aligned)
 225:C:/Users/stapi/OneDrive/Desktop/GD32VW553/GD32VW55X_Wifi_BLE_SDK/GD32VW55x_RELEASE_V1.0.2/MSDK/plf/GD32VW55x_standard_peripheral/Source\gd32vw55x_timer.c **** {
 373              		.loc 1 225 1 is_stmt 1
 374              		.cfi_startproc
 375              	.LVL29:
 226:C:/Users/stapi/OneDrive/Desktop/GD32VW553/GD32VW55X_Wifi_BLE_SDK/GD32VW55x_RELEASE_V1.0.2/MSDK/plf/GD32VW55x_standard_peripheral/Source\gd32vw55x_timer.c ****     TIMER_CTL0(timer_periph) &= (uint32_t)(~TIMER_CTL0_CAM);
 376              		.loc 1 226 5
 377              		.loc 1 226 30 is_stmt 0
 378 0000 1C41     		lw	a5,0(a0)
 379 0002 93F7F7F9 		andi	a5,a5,-97
 380 0006 1CC1     		sw	a5,0(a0)
 227:C:/Users/stapi/OneDrive/Desktop/GD32VW553/GD32VW55X_Wifi_BLE_SDK/GD32VW55x_RELEASE_V1.0.2/MSDK/plf/GD32VW55x_standard_peripheral/Source\gd32vw55x_timer.c ****     TIMER_CTL0(timer_periph) |= (uint32_t)aligned;
 381              		.loc 1 227 5 is_stmt 1
 382              		.loc 1 227 30 is_stmt 0
 383 0008 1C41     		lw	a5,0(a0)
 384 000a DD8D     		or	a1,a1,a5
 385              	.LVL30:
 386 000c 0CC1     		sw	a1,0(a0)
 228:C:/Users/stapi/OneDrive/Desktop/GD32VW553/GD32VW55X_Wifi_BLE_SDK/GD32VW55x_RELEASE_V1.0.2/MSDK/plf/GD32VW55x_standard_peripheral/Source\gd32vw55x_timer.c **** }
 387              		.loc 1 228 1
 388 000e 8280     		ret
 389              		.cfi_endproc
 390              	.LFE374:
 392              		.section	.text.timer_counter_up_direction,"ax",@progbits
 393              		.align	1
 394              		.globl	timer_counter_up_direction
 396              	timer_counter_up_direction:
 397              	.LFB375:
 229:C:/Users/stapi/OneDrive/Desktop/GD32VW553/GD32VW55X_Wifi_BLE_SDK/GD32VW55x_RELEASE_V1.0.2/MSDK/plf/GD32VW55x_standard_peripheral/Source\gd32vw55x_timer.c **** 
 230:C:/Users/stapi/OneDrive/Desktop/GD32VW553/GD32VW55X_Wifi_BLE_SDK/GD32VW55x_RELEASE_V1.0.2/MSDK/plf/GD32VW55x_standard_peripheral/Source\gd32vw55x_timer.c **** /*!
 231:C:/Users/stapi/OneDrive/Desktop/GD32VW553/GD32VW55X_Wifi_BLE_SDK/GD32VW55x_RELEASE_V1.0.2/MSDK/plf/GD32VW55x_standard_peripheral/Source\gd32vw55x_timer.c ****     \brief      set TIMER counter up direction
 232:C:/Users/stapi/OneDrive/Desktop/GD32VW553/GD32VW55X_Wifi_BLE_SDK/GD32VW55x_RELEASE_V1.0.2/MSDK/plf/GD32VW55x_standard_peripheral/Source\gd32vw55x_timer.c ****     \param[in]  timer_periph: TIMERx(x=0,1,2)
 233:C:/Users/stapi/OneDrive/Desktop/GD32VW553/GD32VW55X_Wifi_BLE_SDK/GD32VW55x_RELEASE_V1.0.2/MSDK/plf/GD32VW55x_standard_peripheral/Source\gd32vw55x_timer.c ****     \param[out] none
 234:C:/Users/stapi/OneDrive/Desktop/GD32VW553/GD32VW55X_Wifi_BLE_SDK/GD32VW55x_RELEASE_V1.0.2/MSDK/plf/GD32VW55x_standard_peripheral/Source\gd32vw55x_timer.c ****     \retval     none
 235:C:/Users/stapi/OneDrive/Desktop/GD32VW553/GD32VW55X_Wifi_BLE_SDK/GD32VW55x_RELEASE_V1.0.2/MSDK/plf/GD32VW55x_standard_peripheral/Source\gd32vw55x_timer.c **** */
 236:C:/Users/stapi/OneDrive/Desktop/GD32VW553/GD32VW55X_Wifi_BLE_SDK/GD32VW55x_RELEASE_V1.0.2/MSDK/plf/GD32VW55x_standard_peripheral/Source\gd32vw55x_timer.c **** void timer_counter_up_direction(uint32_t timer_periph)
 237:C:/Users/stapi/OneDrive/Desktop/GD32VW553/GD32VW55X_Wifi_BLE_SDK/GD32VW55x_RELEASE_V1.0.2/MSDK/plf/GD32VW55x_standard_peripheral/Source\gd32vw55x_timer.c **** {
 398              		.loc 1 237 1 is_stmt 1
 399              		.cfi_startproc
 400              	.LVL31:
 238:C:/Users/stapi/OneDrive/Desktop/GD32VW553/GD32VW55X_Wifi_BLE_SDK/GD32VW55x_RELEASE_V1.0.2/MSDK/plf/GD32VW55x_standard_peripheral/Source\gd32vw55x_timer.c ****     TIMER_CTL0(timer_periph) &= ~(uint32_t)TIMER_CTL0_DIR;
 401              		.loc 1 238 5
 402              		.loc 1 238 30 is_stmt 0
 403 0000 1C41     		lw	a5,0(a0)
 404 0002 BD9B     		andi	a5,a5,-17
 405 0004 1CC1     		sw	a5,0(a0)
 239:C:/Users/stapi/OneDrive/Desktop/GD32VW553/GD32VW55X_Wifi_BLE_SDK/GD32VW55x_RELEASE_V1.0.2/MSDK/plf/GD32VW55x_standard_peripheral/Source\gd32vw55x_timer.c **** }
 406              		.loc 1 239 1
 407 0006 8280     		ret
 408              		.cfi_endproc
 409              	.LFE375:
 411              		.section	.text.timer_counter_down_direction,"ax",@progbits
 412              		.align	1
 413              		.globl	timer_counter_down_direction
 415              	timer_counter_down_direction:
 416              	.LFB376:
 240:C:/Users/stapi/OneDrive/Desktop/GD32VW553/GD32VW55X_Wifi_BLE_SDK/GD32VW55x_RELEASE_V1.0.2/MSDK/plf/GD32VW55x_standard_peripheral/Source\gd32vw55x_timer.c **** 
 241:C:/Users/stapi/OneDrive/Desktop/GD32VW553/GD32VW55X_Wifi_BLE_SDK/GD32VW55x_RELEASE_V1.0.2/MSDK/plf/GD32VW55x_standard_peripheral/Source\gd32vw55x_timer.c **** /*!
 242:C:/Users/stapi/OneDrive/Desktop/GD32VW553/GD32VW55X_Wifi_BLE_SDK/GD32VW55x_RELEASE_V1.0.2/MSDK/plf/GD32VW55x_standard_peripheral/Source\gd32vw55x_timer.c ****     \brief      set TIMER counter down direction
 243:C:/Users/stapi/OneDrive/Desktop/GD32VW553/GD32VW55X_Wifi_BLE_SDK/GD32VW55x_RELEASE_V1.0.2/MSDK/plf/GD32VW55x_standard_peripheral/Source\gd32vw55x_timer.c ****     \param[in]  timer_periph: TIMERx(x=0,1,2)
 244:C:/Users/stapi/OneDrive/Desktop/GD32VW553/GD32VW55X_Wifi_BLE_SDK/GD32VW55x_RELEASE_V1.0.2/MSDK/plf/GD32VW55x_standard_peripheral/Source\gd32vw55x_timer.c ****     \param[out] none
 245:C:/Users/stapi/OneDrive/Desktop/GD32VW553/GD32VW55X_Wifi_BLE_SDK/GD32VW55x_RELEASE_V1.0.2/MSDK/plf/GD32VW55x_standard_peripheral/Source\gd32vw55x_timer.c ****     \retval     none
 246:C:/Users/stapi/OneDrive/Desktop/GD32VW553/GD32VW55X_Wifi_BLE_SDK/GD32VW55x_RELEASE_V1.0.2/MSDK/plf/GD32VW55x_standard_peripheral/Source\gd32vw55x_timer.c **** */
 247:C:/Users/stapi/OneDrive/Desktop/GD32VW553/GD32VW55X_Wifi_BLE_SDK/GD32VW55x_RELEASE_V1.0.2/MSDK/plf/GD32VW55x_standard_peripheral/Source\gd32vw55x_timer.c **** void timer_counter_down_direction(uint32_t timer_periph)
 248:C:/Users/stapi/OneDrive/Desktop/GD32VW553/GD32VW55X_Wifi_BLE_SDK/GD32VW55x_RELEASE_V1.0.2/MSDK/plf/GD32VW55x_standard_peripheral/Source\gd32vw55x_timer.c **** {
 417              		.loc 1 248 1 is_stmt 1
 418              		.cfi_startproc
 419              	.LVL32:
 249:C:/Users/stapi/OneDrive/Desktop/GD32VW553/GD32VW55X_Wifi_BLE_SDK/GD32VW55x_RELEASE_V1.0.2/MSDK/plf/GD32VW55x_standard_peripheral/Source\gd32vw55x_timer.c ****     TIMER_CTL0(timer_periph) |= (uint32_t)TIMER_CTL0_DIR;
 420              		.loc 1 249 5
 421              		.loc 1 249 30 is_stmt 0
 422 0000 1C41     		lw	a5,0(a0)
 423 0002 93E70701 		ori	a5,a5,16
 424 0006 1CC1     		sw	a5,0(a0)
 250:C:/Users/stapi/OneDrive/Desktop/GD32VW553/GD32VW55X_Wifi_BLE_SDK/GD32VW55x_RELEASE_V1.0.2/MSDK/plf/GD32VW55x_standard_peripheral/Source\gd32vw55x_timer.c **** }
 425              		.loc 1 250 1
 426 0008 8280     		ret
 427              		.cfi_endproc
 428              	.LFE376:
 430              		.section	.text.timer_prescaler_config,"ax",@progbits
 431              		.align	1
 432              		.globl	timer_prescaler_config
 434              	timer_prescaler_config:
 435              	.LFB377:
 251:C:/Users/stapi/OneDrive/Desktop/GD32VW553/GD32VW55X_Wifi_BLE_SDK/GD32VW55x_RELEASE_V1.0.2/MSDK/plf/GD32VW55x_standard_peripheral/Source\gd32vw55x_timer.c **** 
 252:C:/Users/stapi/OneDrive/Desktop/GD32VW553/GD32VW55X_Wifi_BLE_SDK/GD32VW55x_RELEASE_V1.0.2/MSDK/plf/GD32VW55x_standard_peripheral/Source\gd32vw55x_timer.c **** /*!
 253:C:/Users/stapi/OneDrive/Desktop/GD32VW553/GD32VW55X_Wifi_BLE_SDK/GD32VW55x_RELEASE_V1.0.2/MSDK/plf/GD32VW55x_standard_peripheral/Source\gd32vw55x_timer.c ****     \brief      configure TIMER prescaler
 254:C:/Users/stapi/OneDrive/Desktop/GD32VW553/GD32VW55X_Wifi_BLE_SDK/GD32VW55x_RELEASE_V1.0.2/MSDK/plf/GD32VW55x_standard_peripheral/Source\gd32vw55x_timer.c ****     \param[in]  timer_periph: TIMERx(x=0,1,2,5,15,16)
 255:C:/Users/stapi/OneDrive/Desktop/GD32VW553/GD32VW55X_Wifi_BLE_SDK/GD32VW55x_RELEASE_V1.0.2/MSDK/plf/GD32VW55x_standard_peripheral/Source\gd32vw55x_timer.c ****     \param[in]  prescaler: prescaler value,0~65535
 256:C:/Users/stapi/OneDrive/Desktop/GD32VW553/GD32VW55X_Wifi_BLE_SDK/GD32VW55x_RELEASE_V1.0.2/MSDK/plf/GD32VW55x_standard_peripheral/Source\gd32vw55x_timer.c ****     \param[in]  pscreload: prescaler reload mode
 257:C:/Users/stapi/OneDrive/Desktop/GD32VW553/GD32VW55X_Wifi_BLE_SDK/GD32VW55x_RELEASE_V1.0.2/MSDK/plf/GD32VW55x_standard_peripheral/Source\gd32vw55x_timer.c ****                 only one parameter can be selected which is shown as below:
 258:C:/Users/stapi/OneDrive/Desktop/GD32VW553/GD32VW55X_Wifi_BLE_SDK/GD32VW55x_RELEASE_V1.0.2/MSDK/plf/GD32VW55x_standard_peripheral/Source\gd32vw55x_timer.c ****       \arg        TIMER_PSC_RELOAD_NOW: the prescaler is loaded right now
 259:C:/Users/stapi/OneDrive/Desktop/GD32VW553/GD32VW55X_Wifi_BLE_SDK/GD32VW55x_RELEASE_V1.0.2/MSDK/plf/GD32VW55x_standard_peripheral/Source\gd32vw55x_timer.c ****       \arg        TIMER_PSC_RELOAD_UPDATE: the prescaler is loaded at the next update event
 260:C:/Users/stapi/OneDrive/Desktop/GD32VW553/GD32VW55X_Wifi_BLE_SDK/GD32VW55x_RELEASE_V1.0.2/MSDK/plf/GD32VW55x_standard_peripheral/Source\gd32vw55x_timer.c ****     \param[out] none
 261:C:/Users/stapi/OneDrive/Desktop/GD32VW553/GD32VW55X_Wifi_BLE_SDK/GD32VW55x_RELEASE_V1.0.2/MSDK/plf/GD32VW55x_standard_peripheral/Source\gd32vw55x_timer.c ****     \retval     none
 262:C:/Users/stapi/OneDrive/Desktop/GD32VW553/GD32VW55X_Wifi_BLE_SDK/GD32VW55x_RELEASE_V1.0.2/MSDK/plf/GD32VW55x_standard_peripheral/Source\gd32vw55x_timer.c **** */
 263:C:/Users/stapi/OneDrive/Desktop/GD32VW553/GD32VW55X_Wifi_BLE_SDK/GD32VW55x_RELEASE_V1.0.2/MSDK/plf/GD32VW55x_standard_peripheral/Source\gd32vw55x_timer.c **** void timer_prescaler_config(uint32_t timer_periph, uint16_t prescaler, uint32_t pscreload)
 264:C:/Users/stapi/OneDrive/Desktop/GD32VW553/GD32VW55X_Wifi_BLE_SDK/GD32VW55x_RELEASE_V1.0.2/MSDK/plf/GD32VW55x_standard_peripheral/Source\gd32vw55x_timer.c **** {
 436              		.loc 1 264 1 is_stmt 1
 437              		.cfi_startproc
 438              	.LVL33:
 265:C:/Users/stapi/OneDrive/Desktop/GD32VW553/GD32VW55X_Wifi_BLE_SDK/GD32VW55x_RELEASE_V1.0.2/MSDK/plf/GD32VW55x_standard_peripheral/Source\gd32vw55x_timer.c ****     TIMER_PSC(timer_periph) = (uint32_t)prescaler;
 439              		.loc 1 265 5
 440              		.loc 1 265 29 is_stmt 0
 441 0000 0CD5     		sw	a1,40(a0)
 266:C:/Users/stapi/OneDrive/Desktop/GD32VW553/GD32VW55X_Wifi_BLE_SDK/GD32VW55x_RELEASE_V1.0.2/MSDK/plf/GD32VW55x_standard_peripheral/Source\gd32vw55x_timer.c **** 
 267:C:/Users/stapi/OneDrive/Desktop/GD32VW553/GD32VW55X_Wifi_BLE_SDK/GD32VW55x_RELEASE_V1.0.2/MSDK/plf/GD32VW55x_standard_peripheral/Source\gd32vw55x_timer.c ****     if(TIMER_PSC_RELOAD_NOW == pscreload){
 442              		.loc 1 267 5 is_stmt 1
 443              		.loc 1 267 7 is_stmt 0
 444 0002 09E6     		bne	a2,zero,.L29
 268:C:/Users/stapi/OneDrive/Desktop/GD32VW553/GD32VW55X_Wifi_BLE_SDK/GD32VW55x_RELEASE_V1.0.2/MSDK/plf/GD32VW55x_standard_peripheral/Source\gd32vw55x_timer.c ****         TIMER_SWEVG(timer_periph) |= (uint32_t)TIMER_SWEVG_UPG;
 445              		.loc 1 268 9 is_stmt 1
 446              		.loc 1 268 35 is_stmt 0
 447 0004 5C49     		lw	a5,20(a0)
 448 0006 93E71700 		ori	a5,a5,1
 449 000a 5CC9     		sw	a5,20(a0)
 450              	.L29:
 269:C:/Users/stapi/OneDrive/Desktop/GD32VW553/GD32VW55X_Wifi_BLE_SDK/GD32VW55x_RELEASE_V1.0.2/MSDK/plf/GD32VW55x_standard_peripheral/Source\gd32vw55x_timer.c ****     }
 270:C:/Users/stapi/OneDrive/Desktop/GD32VW553/GD32VW55X_Wifi_BLE_SDK/GD32VW55x_RELEASE_V1.0.2/MSDK/plf/GD32VW55x_standard_peripheral/Source\gd32vw55x_timer.c **** }
 451              		.loc 1 270 1
 452 000c 8280     		ret
 453              		.cfi_endproc
 454              	.LFE377:
 456              		.section	.text.timer_repetition_value_config,"ax",@progbits
 457              		.align	1
 458              		.globl	timer_repetition_value_config
 460              	timer_repetition_value_config:
 461              	.LFB378:
 271:C:/Users/stapi/OneDrive/Desktop/GD32VW553/GD32VW55X_Wifi_BLE_SDK/GD32VW55x_RELEASE_V1.0.2/MSDK/plf/GD32VW55x_standard_peripheral/Source\gd32vw55x_timer.c **** 
 272:C:/Users/stapi/OneDrive/Desktop/GD32VW553/GD32VW55X_Wifi_BLE_SDK/GD32VW55x_RELEASE_V1.0.2/MSDK/plf/GD32VW55x_standard_peripheral/Source\gd32vw55x_timer.c **** /*!
 273:C:/Users/stapi/OneDrive/Desktop/GD32VW553/GD32VW55X_Wifi_BLE_SDK/GD32VW55x_RELEASE_V1.0.2/MSDK/plf/GD32VW55x_standard_peripheral/Source\gd32vw55x_timer.c ****     \brief      configure TIMER repetition register value
 274:C:/Users/stapi/OneDrive/Desktop/GD32VW553/GD32VW55X_Wifi_BLE_SDK/GD32VW55x_RELEASE_V1.0.2/MSDK/plf/GD32VW55x_standard_peripheral/Source\gd32vw55x_timer.c ****     \param[in]  timer_periph: TIMERx(x=0,15,16)
 275:C:/Users/stapi/OneDrive/Desktop/GD32VW553/GD32VW55X_Wifi_BLE_SDK/GD32VW55x_RELEASE_V1.0.2/MSDK/plf/GD32VW55x_standard_peripheral/Source\gd32vw55x_timer.c ****     \param[in]  repetition: the counter repetition value, 0~255
 276:C:/Users/stapi/OneDrive/Desktop/GD32VW553/GD32VW55X_Wifi_BLE_SDK/GD32VW55x_RELEASE_V1.0.2/MSDK/plf/GD32VW55x_standard_peripheral/Source\gd32vw55x_timer.c ****     \param[out] none
 277:C:/Users/stapi/OneDrive/Desktop/GD32VW553/GD32VW55X_Wifi_BLE_SDK/GD32VW55x_RELEASE_V1.0.2/MSDK/plf/GD32VW55x_standard_peripheral/Source\gd32vw55x_timer.c ****     \retval     none
 278:C:/Users/stapi/OneDrive/Desktop/GD32VW553/GD32VW55X_Wifi_BLE_SDK/GD32VW55x_RELEASE_V1.0.2/MSDK/plf/GD32VW55x_standard_peripheral/Source\gd32vw55x_timer.c **** */
 279:C:/Users/stapi/OneDrive/Desktop/GD32VW553/GD32VW55X_Wifi_BLE_SDK/GD32VW55x_RELEASE_V1.0.2/MSDK/plf/GD32VW55x_standard_peripheral/Source\gd32vw55x_timer.c **** void timer_repetition_value_config(uint32_t timer_periph, uint16_t repetition)
 280:C:/Users/stapi/OneDrive/Desktop/GD32VW553/GD32VW55X_Wifi_BLE_SDK/GD32VW55x_RELEASE_V1.0.2/MSDK/plf/GD32VW55x_standard_peripheral/Source\gd32vw55x_timer.c **** {
 462              		.loc 1 280 1 is_stmt 1
 463              		.cfi_startproc
 464              	.LVL34:
 281:C:/Users/stapi/OneDrive/Desktop/GD32VW553/GD32VW55X_Wifi_BLE_SDK/GD32VW55x_RELEASE_V1.0.2/MSDK/plf/GD32VW55x_standard_peripheral/Source\gd32vw55x_timer.c ****     TIMER_CREP(timer_periph) = (uint32_t)repetition;
 465              		.loc 1 281 5
 466              		.loc 1 281 30 is_stmt 0
 467 0000 0CD9     		sw	a1,48(a0)
 282:C:/Users/stapi/OneDrive/Desktop/GD32VW553/GD32VW55X_Wifi_BLE_SDK/GD32VW55x_RELEASE_V1.0.2/MSDK/plf/GD32VW55x_standard_peripheral/Source\gd32vw55x_timer.c **** }
 468              		.loc 1 282 1
 469 0002 8280     		ret
 470              		.cfi_endproc
 471              	.LFE378:
 473              		.section	.text.timer_autoreload_value_config,"ax",@progbits
 474              		.align	1
 475              		.globl	timer_autoreload_value_config
 477              	timer_autoreload_value_config:
 478              	.LFB379:
 283:C:/Users/stapi/OneDrive/Desktop/GD32VW553/GD32VW55X_Wifi_BLE_SDK/GD32VW55x_RELEASE_V1.0.2/MSDK/plf/GD32VW55x_standard_peripheral/Source\gd32vw55x_timer.c **** 
 284:C:/Users/stapi/OneDrive/Desktop/GD32VW553/GD32VW55X_Wifi_BLE_SDK/GD32VW55x_RELEASE_V1.0.2/MSDK/plf/GD32VW55x_standard_peripheral/Source\gd32vw55x_timer.c **** /*!
 285:C:/Users/stapi/OneDrive/Desktop/GD32VW553/GD32VW55X_Wifi_BLE_SDK/GD32VW55x_RELEASE_V1.0.2/MSDK/plf/GD32VW55x_standard_peripheral/Source\gd32vw55x_timer.c ****     \brief      configure TIMER autoreload register value
 286:C:/Users/stapi/OneDrive/Desktop/GD32VW553/GD32VW55X_Wifi_BLE_SDK/GD32VW55x_RELEASE_V1.0.2/MSDK/plf/GD32VW55x_standard_peripheral/Source\gd32vw55x_timer.c ****     \param[in]  timer_periph: TIMERx(x=0,1,2,5,15,16)
 287:C:/Users/stapi/OneDrive/Desktop/GD32VW553/GD32VW55X_Wifi_BLE_SDK/GD32VW55x_RELEASE_V1.0.2/MSDK/plf/GD32VW55x_standard_peripheral/Source\gd32vw55x_timer.c ****     \param[in]  autoreload: the counter auto-reload value,0~65535(TIMERx(x=0,5,15,16)),0~4294967295
 288:C:/Users/stapi/OneDrive/Desktop/GD32VW553/GD32VW55X_Wifi_BLE_SDK/GD32VW55x_RELEASE_V1.0.2/MSDK/plf/GD32VW55x_standard_peripheral/Source\gd32vw55x_timer.c ****     \param[out] none
 289:C:/Users/stapi/OneDrive/Desktop/GD32VW553/GD32VW55X_Wifi_BLE_SDK/GD32VW55x_RELEASE_V1.0.2/MSDK/plf/GD32VW55x_standard_peripheral/Source\gd32vw55x_timer.c ****     \retval     none
 290:C:/Users/stapi/OneDrive/Desktop/GD32VW553/GD32VW55X_Wifi_BLE_SDK/GD32VW55x_RELEASE_V1.0.2/MSDK/plf/GD32VW55x_standard_peripheral/Source\gd32vw55x_timer.c **** */
 291:C:/Users/stapi/OneDrive/Desktop/GD32VW553/GD32VW55X_Wifi_BLE_SDK/GD32VW55x_RELEASE_V1.0.2/MSDK/plf/GD32VW55x_standard_peripheral/Source\gd32vw55x_timer.c **** void timer_autoreload_value_config(uint32_t timer_periph, uint32_t autoreload)
 292:C:/Users/stapi/OneDrive/Desktop/GD32VW553/GD32VW55X_Wifi_BLE_SDK/GD32VW55x_RELEASE_V1.0.2/MSDK/plf/GD32VW55x_standard_peripheral/Source\gd32vw55x_timer.c **** {
 479              		.loc 1 292 1 is_stmt 1
 480              		.cfi_startproc
 481              	.LVL35:
 293:C:/Users/stapi/OneDrive/Desktop/GD32VW553/GD32VW55X_Wifi_BLE_SDK/GD32VW55x_RELEASE_V1.0.2/MSDK/plf/GD32VW55x_standard_peripheral/Source\gd32vw55x_timer.c ****     TIMER_CAR(timer_periph) = (uint32_t)autoreload;
 482              		.loc 1 293 5
 483              		.loc 1 293 29 is_stmt 0
 484 0000 4CD5     		sw	a1,44(a0)
 294:C:/Users/stapi/OneDrive/Desktop/GD32VW553/GD32VW55X_Wifi_BLE_SDK/GD32VW55x_RELEASE_V1.0.2/MSDK/plf/GD32VW55x_standard_peripheral/Source\gd32vw55x_timer.c **** }
 485              		.loc 1 294 1
 486 0002 8280     		ret
 487              		.cfi_endproc
 488              	.LFE379:
 490              		.section	.text.timer_counter_value_config,"ax",@progbits
 491              		.align	1
 492              		.globl	timer_counter_value_config
 494              	timer_counter_value_config:
 495              	.LFB380:
 295:C:/Users/stapi/OneDrive/Desktop/GD32VW553/GD32VW55X_Wifi_BLE_SDK/GD32VW55x_RELEASE_V1.0.2/MSDK/plf/GD32VW55x_standard_peripheral/Source\gd32vw55x_timer.c **** 
 296:C:/Users/stapi/OneDrive/Desktop/GD32VW553/GD32VW55X_Wifi_BLE_SDK/GD32VW55x_RELEASE_V1.0.2/MSDK/plf/GD32VW55x_standard_peripheral/Source\gd32vw55x_timer.c **** /*!
 297:C:/Users/stapi/OneDrive/Desktop/GD32VW553/GD32VW55X_Wifi_BLE_SDK/GD32VW55x_RELEASE_V1.0.2/MSDK/plf/GD32VW55x_standard_peripheral/Source\gd32vw55x_timer.c ****     \brief      configure TIMER counter register value
 298:C:/Users/stapi/OneDrive/Desktop/GD32VW553/GD32VW55X_Wifi_BLE_SDK/GD32VW55x_RELEASE_V1.0.2/MSDK/plf/GD32VW55x_standard_peripheral/Source\gd32vw55x_timer.c ****     \param[in]  timer_periph: TIMERx(x=0,1,2,5,15,16)
 299:C:/Users/stapi/OneDrive/Desktop/GD32VW553/GD32VW55X_Wifi_BLE_SDK/GD32VW55x_RELEASE_V1.0.2/MSDK/plf/GD32VW55x_standard_peripheral/Source\gd32vw55x_timer.c ****     \param[in]  counter: the counter value,0~65535(TIMERx(x=0,5,15,16)),0~4294967295(TIMERx(x=1,2))
 300:C:/Users/stapi/OneDrive/Desktop/GD32VW553/GD32VW55X_Wifi_BLE_SDK/GD32VW55x_RELEASE_V1.0.2/MSDK/plf/GD32VW55x_standard_peripheral/Source\gd32vw55x_timer.c ****     \param[out] none
 301:C:/Users/stapi/OneDrive/Desktop/GD32VW553/GD32VW55X_Wifi_BLE_SDK/GD32VW55x_RELEASE_V1.0.2/MSDK/plf/GD32VW55x_standard_peripheral/Source\gd32vw55x_timer.c ****     \retval     none
 302:C:/Users/stapi/OneDrive/Desktop/GD32VW553/GD32VW55X_Wifi_BLE_SDK/GD32VW55x_RELEASE_V1.0.2/MSDK/plf/GD32VW55x_standard_peripheral/Source\gd32vw55x_timer.c **** */
 303:C:/Users/stapi/OneDrive/Desktop/GD32VW553/GD32VW55X_Wifi_BLE_SDK/GD32VW55x_RELEASE_V1.0.2/MSDK/plf/GD32VW55x_standard_peripheral/Source\gd32vw55x_timer.c **** void timer_counter_value_config(uint32_t timer_periph, uint32_t counter)
 304:C:/Users/stapi/OneDrive/Desktop/GD32VW553/GD32VW55X_Wifi_BLE_SDK/GD32VW55x_RELEASE_V1.0.2/MSDK/plf/GD32VW55x_standard_peripheral/Source\gd32vw55x_timer.c **** {
 496              		.loc 1 304 1 is_stmt 1
 497              		.cfi_startproc
 498              	.LVL36:
 305:C:/Users/stapi/OneDrive/Desktop/GD32VW553/GD32VW55X_Wifi_BLE_SDK/GD32VW55x_RELEASE_V1.0.2/MSDK/plf/GD32VW55x_standard_peripheral/Source\gd32vw55x_timer.c ****     TIMER_CNT(timer_periph) = (uint32_t)counter;
 499              		.loc 1 305 5
 500              		.loc 1 305 29 is_stmt 0
 501 0000 4CD1     		sw	a1,36(a0)
 306:C:/Users/stapi/OneDrive/Desktop/GD32VW553/GD32VW55X_Wifi_BLE_SDK/GD32VW55x_RELEASE_V1.0.2/MSDK/plf/GD32VW55x_standard_peripheral/Source\gd32vw55x_timer.c **** }
 502              		.loc 1 306 1
 503 0002 8280     		ret
 504              		.cfi_endproc
 505              	.LFE380:
 507              		.section	.text.timer_counter_read,"ax",@progbits
 508              		.align	1
 509              		.globl	timer_counter_read
 511              	timer_counter_read:
 512              	.LFB381:
 307:C:/Users/stapi/OneDrive/Desktop/GD32VW553/GD32VW55X_Wifi_BLE_SDK/GD32VW55x_RELEASE_V1.0.2/MSDK/plf/GD32VW55x_standard_peripheral/Source\gd32vw55x_timer.c **** 
 308:C:/Users/stapi/OneDrive/Desktop/GD32VW553/GD32VW55X_Wifi_BLE_SDK/GD32VW55x_RELEASE_V1.0.2/MSDK/plf/GD32VW55x_standard_peripheral/Source\gd32vw55x_timer.c **** /*!
 309:C:/Users/stapi/OneDrive/Desktop/GD32VW553/GD32VW55X_Wifi_BLE_SDK/GD32VW55x_RELEASE_V1.0.2/MSDK/plf/GD32VW55x_standard_peripheral/Source\gd32vw55x_timer.c ****     \brief      read TIMER counter value
 310:C:/Users/stapi/OneDrive/Desktop/GD32VW553/GD32VW55X_Wifi_BLE_SDK/GD32VW55x_RELEASE_V1.0.2/MSDK/plf/GD32VW55x_standard_peripheral/Source\gd32vw55x_timer.c ****     \param[in]  timer_periph: TIMERx(x=0,1,2,5,15,16)
 311:C:/Users/stapi/OneDrive/Desktop/GD32VW553/GD32VW55X_Wifi_BLE_SDK/GD32VW55x_RELEASE_V1.0.2/MSDK/plf/GD32VW55x_standard_peripheral/Source\gd32vw55x_timer.c ****     \param[out] none
 312:C:/Users/stapi/OneDrive/Desktop/GD32VW553/GD32VW55X_Wifi_BLE_SDK/GD32VW55x_RELEASE_V1.0.2/MSDK/plf/GD32VW55x_standard_peripheral/Source\gd32vw55x_timer.c ****     \retval     counter value
 313:C:/Users/stapi/OneDrive/Desktop/GD32VW553/GD32VW55X_Wifi_BLE_SDK/GD32VW55x_RELEASE_V1.0.2/MSDK/plf/GD32VW55x_standard_peripheral/Source\gd32vw55x_timer.c **** */
 314:C:/Users/stapi/OneDrive/Desktop/GD32VW553/GD32VW55X_Wifi_BLE_SDK/GD32VW55x_RELEASE_V1.0.2/MSDK/plf/GD32VW55x_standard_peripheral/Source\gd32vw55x_timer.c **** uint32_t timer_counter_read(uint32_t timer_periph)
 315:C:/Users/stapi/OneDrive/Desktop/GD32VW553/GD32VW55X_Wifi_BLE_SDK/GD32VW55x_RELEASE_V1.0.2/MSDK/plf/GD32VW55x_standard_peripheral/Source\gd32vw55x_timer.c **** {
 513              		.loc 1 315 1 is_stmt 1
 514              		.cfi_startproc
 515              	.LVL37:
 316:C:/Users/stapi/OneDrive/Desktop/GD32VW553/GD32VW55X_Wifi_BLE_SDK/GD32VW55x_RELEASE_V1.0.2/MSDK/plf/GD32VW55x_standard_peripheral/Source\gd32vw55x_timer.c ****     uint32_t count_value = 0U;
 516              		.loc 1 316 5
 317:C:/Users/stapi/OneDrive/Desktop/GD32VW553/GD32VW55X_Wifi_BLE_SDK/GD32VW55x_RELEASE_V1.0.2/MSDK/plf/GD32VW55x_standard_peripheral/Source\gd32vw55x_timer.c ****     count_value = TIMER_CNT(timer_periph);
 517              		.loc 1 317 5
 518              		.loc 1 317 17 is_stmt 0
 519 0000 4851     		lw	a0,36(a0)
 520              	.LVL38:
 318:C:/Users/stapi/OneDrive/Desktop/GD32VW553/GD32VW55X_Wifi_BLE_SDK/GD32VW55x_RELEASE_V1.0.2/MSDK/plf/GD32VW55x_standard_peripheral/Source\gd32vw55x_timer.c ****     return (count_value);
 521              		.loc 1 318 5 is_stmt 1
 319:C:/Users/stapi/OneDrive/Desktop/GD32VW553/GD32VW55X_Wifi_BLE_SDK/GD32VW55x_RELEASE_V1.0.2/MSDK/plf/GD32VW55x_standard_peripheral/Source\gd32vw55x_timer.c **** }
 522              		.loc 1 319 1 is_stmt 0
 523 0002 8280     		ret
 524              		.cfi_endproc
 525              	.LFE381:
 527              		.section	.text.timer_prescaler_read,"ax",@progbits
 528              		.align	1
 529              		.globl	timer_prescaler_read
 531              	timer_prescaler_read:
 532              	.LFB382:
 320:C:/Users/stapi/OneDrive/Desktop/GD32VW553/GD32VW55X_Wifi_BLE_SDK/GD32VW55x_RELEASE_V1.0.2/MSDK/plf/GD32VW55x_standard_peripheral/Source\gd32vw55x_timer.c **** 
 321:C:/Users/stapi/OneDrive/Desktop/GD32VW553/GD32VW55X_Wifi_BLE_SDK/GD32VW55x_RELEASE_V1.0.2/MSDK/plf/GD32VW55x_standard_peripheral/Source\gd32vw55x_timer.c **** /*!
 322:C:/Users/stapi/OneDrive/Desktop/GD32VW553/GD32VW55X_Wifi_BLE_SDK/GD32VW55x_RELEASE_V1.0.2/MSDK/plf/GD32VW55x_standard_peripheral/Source\gd32vw55x_timer.c ****     \brief      read TIMER prescaler value
 323:C:/Users/stapi/OneDrive/Desktop/GD32VW553/GD32VW55X_Wifi_BLE_SDK/GD32VW55x_RELEASE_V1.0.2/MSDK/plf/GD32VW55x_standard_peripheral/Source\gd32vw55x_timer.c ****     \param[in]  timer_periph: TIMERx(x=0,1,2,5,15,16)
 324:C:/Users/stapi/OneDrive/Desktop/GD32VW553/GD32VW55X_Wifi_BLE_SDK/GD32VW55x_RELEASE_V1.0.2/MSDK/plf/GD32VW55x_standard_peripheral/Source\gd32vw55x_timer.c ****     \param[out] none
 325:C:/Users/stapi/OneDrive/Desktop/GD32VW553/GD32VW55X_Wifi_BLE_SDK/GD32VW55x_RELEASE_V1.0.2/MSDK/plf/GD32VW55x_standard_peripheral/Source\gd32vw55x_timer.c ****     \retval     prescaler register value
 326:C:/Users/stapi/OneDrive/Desktop/GD32VW553/GD32VW55X_Wifi_BLE_SDK/GD32VW55x_RELEASE_V1.0.2/MSDK/plf/GD32VW55x_standard_peripheral/Source\gd32vw55x_timer.c **** */
 327:C:/Users/stapi/OneDrive/Desktop/GD32VW553/GD32VW55X_Wifi_BLE_SDK/GD32VW55x_RELEASE_V1.0.2/MSDK/plf/GD32VW55x_standard_peripheral/Source\gd32vw55x_timer.c **** uint16_t timer_prescaler_read(uint32_t timer_periph)
 328:C:/Users/stapi/OneDrive/Desktop/GD32VW553/GD32VW55X_Wifi_BLE_SDK/GD32VW55x_RELEASE_V1.0.2/MSDK/plf/GD32VW55x_standard_peripheral/Source\gd32vw55x_timer.c **** {
 533              		.loc 1 328 1 is_stmt 1
 534              		.cfi_startproc
 535              	.LVL39:
 329:C:/Users/stapi/OneDrive/Desktop/GD32VW553/GD32VW55X_Wifi_BLE_SDK/GD32VW55x_RELEASE_V1.0.2/MSDK/plf/GD32VW55x_standard_peripheral/Source\gd32vw55x_timer.c ****     uint16_t prescaler_value = 0U;
 536              		.loc 1 329 5
 330:C:/Users/stapi/OneDrive/Desktop/GD32VW553/GD32VW55X_Wifi_BLE_SDK/GD32VW55x_RELEASE_V1.0.2/MSDK/plf/GD32VW55x_standard_peripheral/Source\gd32vw55x_timer.c ****     prescaler_value = (uint16_t)(TIMER_PSC(timer_periph));
 537              		.loc 1 330 5
 538              		.loc 1 330 34 is_stmt 0
 539 0000 0855     		lw	a0,40(a0)
 540              	.LVL40:
 331:C:/Users/stapi/OneDrive/Desktop/GD32VW553/GD32VW55X_Wifi_BLE_SDK/GD32VW55x_RELEASE_V1.0.2/MSDK/plf/GD32VW55x_standard_peripheral/Source\gd32vw55x_timer.c ****     return (prescaler_value);
 541              		.loc 1 331 5 is_stmt 1
 332:C:/Users/stapi/OneDrive/Desktop/GD32VW553/GD32VW55X_Wifi_BLE_SDK/GD32VW55x_RELEASE_V1.0.2/MSDK/plf/GD32VW55x_standard_peripheral/Source\gd32vw55x_timer.c **** }
 542              		.loc 1 332 1 is_stmt 0
 543 0002 33450508 		zext.h	a0,a0
 544 0006 8280     		ret
 545              		.cfi_endproc
 546              	.LFE382:
 548              		.section	.text.timer_single_pulse_mode_config,"ax",@progbits
 549              		.align	1
 550              		.globl	timer_single_pulse_mode_config
 552              	timer_single_pulse_mode_config:
 553              	.LFB383:
 333:C:/Users/stapi/OneDrive/Desktop/GD32VW553/GD32VW55X_Wifi_BLE_SDK/GD32VW55x_RELEASE_V1.0.2/MSDK/plf/GD32VW55x_standard_peripheral/Source\gd32vw55x_timer.c **** 
 334:C:/Users/stapi/OneDrive/Desktop/GD32VW553/GD32VW55X_Wifi_BLE_SDK/GD32VW55x_RELEASE_V1.0.2/MSDK/plf/GD32VW55x_standard_peripheral/Source\gd32vw55x_timer.c **** /*!
 335:C:/Users/stapi/OneDrive/Desktop/GD32VW553/GD32VW55X_Wifi_BLE_SDK/GD32VW55x_RELEASE_V1.0.2/MSDK/plf/GD32VW55x_standard_peripheral/Source\gd32vw55x_timer.c ****     \brief      configure TIMER single pulse mode
 336:C:/Users/stapi/OneDrive/Desktop/GD32VW553/GD32VW55X_Wifi_BLE_SDK/GD32VW55x_RELEASE_V1.0.2/MSDK/plf/GD32VW55x_standard_peripheral/Source\gd32vw55x_timer.c ****     \param[in]  timer_periph: TIMERx(x=0,1,2,5,15,16)
 337:C:/Users/stapi/OneDrive/Desktop/GD32VW553/GD32VW55X_Wifi_BLE_SDK/GD32VW55x_RELEASE_V1.0.2/MSDK/plf/GD32VW55x_standard_peripheral/Source\gd32vw55x_timer.c ****     \param[in]  spmode:
 338:C:/Users/stapi/OneDrive/Desktop/GD32VW553/GD32VW55X_Wifi_BLE_SDK/GD32VW55x_RELEASE_V1.0.2/MSDK/plf/GD32VW55x_standard_peripheral/Source\gd32vw55x_timer.c ****                 only one parameter can be selected which is shown as below:
 339:C:/Users/stapi/OneDrive/Desktop/GD32VW553/GD32VW55X_Wifi_BLE_SDK/GD32VW55x_RELEASE_V1.0.2/MSDK/plf/GD32VW55x_standard_peripheral/Source\gd32vw55x_timer.c ****       \arg        TIMER_SP_MODE_SINGLE: single pulse mode
 340:C:/Users/stapi/OneDrive/Desktop/GD32VW553/GD32VW55X_Wifi_BLE_SDK/GD32VW55x_RELEASE_V1.0.2/MSDK/plf/GD32VW55x_standard_peripheral/Source\gd32vw55x_timer.c ****       \arg        TIMER_SP_MODE_REPETITIVE: repetitive pulse mode
 341:C:/Users/stapi/OneDrive/Desktop/GD32VW553/GD32VW55X_Wifi_BLE_SDK/GD32VW55x_RELEASE_V1.0.2/MSDK/plf/GD32VW55x_standard_peripheral/Source\gd32vw55x_timer.c ****     \param[out] none
 342:C:/Users/stapi/OneDrive/Desktop/GD32VW553/GD32VW55X_Wifi_BLE_SDK/GD32VW55x_RELEASE_V1.0.2/MSDK/plf/GD32VW55x_standard_peripheral/Source\gd32vw55x_timer.c ****     \retval     none
 343:C:/Users/stapi/OneDrive/Desktop/GD32VW553/GD32VW55X_Wifi_BLE_SDK/GD32VW55x_RELEASE_V1.0.2/MSDK/plf/GD32VW55x_standard_peripheral/Source\gd32vw55x_timer.c **** */
 344:C:/Users/stapi/OneDrive/Desktop/GD32VW553/GD32VW55X_Wifi_BLE_SDK/GD32VW55x_RELEASE_V1.0.2/MSDK/plf/GD32VW55x_standard_peripheral/Source\gd32vw55x_timer.c **** void timer_single_pulse_mode_config(uint32_t timer_periph, uint32_t spmode)
 345:C:/Users/stapi/OneDrive/Desktop/GD32VW553/GD32VW55X_Wifi_BLE_SDK/GD32VW55x_RELEASE_V1.0.2/MSDK/plf/GD32VW55x_standard_peripheral/Source\gd32vw55x_timer.c **** {
 554              		.loc 1 345 1 is_stmt 1
 555              		.cfi_startproc
 556              	.LVL41:
 346:C:/Users/stapi/OneDrive/Desktop/GD32VW553/GD32VW55X_Wifi_BLE_SDK/GD32VW55x_RELEASE_V1.0.2/MSDK/plf/GD32VW55x_standard_peripheral/Source\gd32vw55x_timer.c ****     if(TIMER_SP_MODE_SINGLE == spmode){
 557              		.loc 1 346 5
 558              		.loc 1 346 7 is_stmt 0
 559 0000 91E5     		bne	a1,zero,.L37
 347:C:/Users/stapi/OneDrive/Desktop/GD32VW553/GD32VW55X_Wifi_BLE_SDK/GD32VW55x_RELEASE_V1.0.2/MSDK/plf/GD32VW55x_standard_peripheral/Source\gd32vw55x_timer.c ****         TIMER_CTL0(timer_periph) |= (uint32_t)TIMER_CTL0_SPM;
 560              		.loc 1 347 9 is_stmt 1
 561              		.loc 1 347 34 is_stmt 0
 562 0002 1C41     		lw	a5,0(a0)
 563 0004 93E78700 		ori	a5,a5,8
 564              	.L39:
 348:C:/Users/stapi/OneDrive/Desktop/GD32VW553/GD32VW55X_Wifi_BLE_SDK/GD32VW55x_RELEASE_V1.0.2/MSDK/plf/GD32VW55x_standard_peripheral/Source\gd32vw55x_timer.c ****     }else if(TIMER_SP_MODE_REPETITIVE == spmode){
 349:C:/Users/stapi/OneDrive/Desktop/GD32VW553/GD32VW55X_Wifi_BLE_SDK/GD32VW55x_RELEASE_V1.0.2/MSDK/plf/GD32VW55x_standard_peripheral/Source\gd32vw55x_timer.c ****         TIMER_CTL0(timer_periph) &= ~((uint32_t)TIMER_CTL0_SPM);
 565              		.loc 1 349 34
 566 0008 1CC1     		sw	a5,0(a0)
 350:C:/Users/stapi/OneDrive/Desktop/GD32VW553/GD32VW55X_Wifi_BLE_SDK/GD32VW55x_RELEASE_V1.0.2/MSDK/plf/GD32VW55x_standard_peripheral/Source\gd32vw55x_timer.c ****     }else{
 351:C:/Users/stapi/OneDrive/Desktop/GD32VW553/GD32VW55X_Wifi_BLE_SDK/GD32VW55x_RELEASE_V1.0.2/MSDK/plf/GD32VW55x_standard_peripheral/Source\gd32vw55x_timer.c ****         /* illegal parameters */
 352:C:/Users/stapi/OneDrive/Desktop/GD32VW553/GD32VW55X_Wifi_BLE_SDK/GD32VW55x_RELEASE_V1.0.2/MSDK/plf/GD32VW55x_standard_peripheral/Source\gd32vw55x_timer.c ****     }
 567              		.loc 1 352 5 is_stmt 1
 568              	.L36:
 353:C:/Users/stapi/OneDrive/Desktop/GD32VW553/GD32VW55X_Wifi_BLE_SDK/GD32VW55x_RELEASE_V1.0.2/MSDK/plf/GD32VW55x_standard_peripheral/Source\gd32vw55x_timer.c **** }
 569              		.loc 1 353 1 is_stmt 0
 570 000a 8280     		ret
 571              	.L37:
 348:C:/Users/stapi/OneDrive/Desktop/GD32VW553/GD32VW55X_Wifi_BLE_SDK/GD32VW55x_RELEASE_V1.0.2/MSDK/plf/GD32VW55x_standard_peripheral/Source\gd32vw55x_timer.c ****     }else if(TIMER_SP_MODE_REPETITIVE == spmode){
 572              		.loc 1 348 11 is_stmt 1
 348:C:/Users/stapi/OneDrive/Desktop/GD32VW553/GD32VW55X_Wifi_BLE_SDK/GD32VW55x_RELEASE_V1.0.2/MSDK/plf/GD32VW55x_standard_peripheral/Source\gd32vw55x_timer.c ****     }else if(TIMER_SP_MODE_REPETITIVE == spmode){
 573              		.loc 1 348 13 is_stmt 0
 574 000c 8547     		li	a5,1
 575 000e E39EF5FE 		bne	a1,a5,.L36
 349:C:/Users/stapi/OneDrive/Desktop/GD32VW553/GD32VW55X_Wifi_BLE_SDK/GD32VW55x_RELEASE_V1.0.2/MSDK/plf/GD32VW55x_standard_peripheral/Source\gd32vw55x_timer.c ****     }else{
 576              		.loc 1 349 9 is_stmt 1
 349:C:/Users/stapi/OneDrive/Desktop/GD32VW553/GD32VW55X_Wifi_BLE_SDK/GD32VW55x_RELEASE_V1.0.2/MSDK/plf/GD32VW55x_standard_peripheral/Source\gd32vw55x_timer.c ****     }else{
 577              		.loc 1 349 34 is_stmt 0
 578 0012 1C41     		lw	a5,0(a0)
 579 0014 DD9B     		andi	a5,a5,-9
 580 0016 CDBF     		j	.L39
 581              		.cfi_endproc
 582              	.LFE383:
 584              		.section	.text.timer_update_source_config,"ax",@progbits
 585              		.align	1
 586              		.globl	timer_update_source_config
 588              	timer_update_source_config:
 589              	.LFB384:
 354:C:/Users/stapi/OneDrive/Desktop/GD32VW553/GD32VW55X_Wifi_BLE_SDK/GD32VW55x_RELEASE_V1.0.2/MSDK/plf/GD32VW55x_standard_peripheral/Source\gd32vw55x_timer.c **** 
 355:C:/Users/stapi/OneDrive/Desktop/GD32VW553/GD32VW55X_Wifi_BLE_SDK/GD32VW55x_RELEASE_V1.0.2/MSDK/plf/GD32VW55x_standard_peripheral/Source\gd32vw55x_timer.c **** /*!
 356:C:/Users/stapi/OneDrive/Desktop/GD32VW553/GD32VW55X_Wifi_BLE_SDK/GD32VW55x_RELEASE_V1.0.2/MSDK/plf/GD32VW55x_standard_peripheral/Source\gd32vw55x_timer.c ****     \brief      configure TIMER update source
 357:C:/Users/stapi/OneDrive/Desktop/GD32VW553/GD32VW55X_Wifi_BLE_SDK/GD32VW55x_RELEASE_V1.0.2/MSDK/plf/GD32VW55x_standard_peripheral/Source\gd32vw55x_timer.c ****     \param[in]  timer_periph: TIMERx(x=0,1,2,5,15,16)
 358:C:/Users/stapi/OneDrive/Desktop/GD32VW553/GD32VW55X_Wifi_BLE_SDK/GD32VW55x_RELEASE_V1.0.2/MSDK/plf/GD32VW55x_standard_peripheral/Source\gd32vw55x_timer.c ****     \param[in]  update:
 359:C:/Users/stapi/OneDrive/Desktop/GD32VW553/GD32VW55X_Wifi_BLE_SDK/GD32VW55x_RELEASE_V1.0.2/MSDK/plf/GD32VW55x_standard_peripheral/Source\gd32vw55x_timer.c ****                 only one parameter can be selected which is shown as below:
 360:C:/Users/stapi/OneDrive/Desktop/GD32VW553/GD32VW55X_Wifi_BLE_SDK/GD32VW55x_RELEASE_V1.0.2/MSDK/plf/GD32VW55x_standard_peripheral/Source\gd32vw55x_timer.c ****       \arg        TIMER_UPDATE_SRC_GLOBAL: update generate by setting of UPG bit or the counter ove
 361:C:/Users/stapi/OneDrive/Desktop/GD32VW553/GD32VW55X_Wifi_BLE_SDK/GD32VW55x_RELEASE_V1.0.2/MSDK/plf/GD32VW55x_standard_peripheral/Source\gd32vw55x_timer.c ****       \arg        TIMER_UPDATE_SRC_REGULAR: update generate only by counter overflow/underflow
 362:C:/Users/stapi/OneDrive/Desktop/GD32VW553/GD32VW55X_Wifi_BLE_SDK/GD32VW55x_RELEASE_V1.0.2/MSDK/plf/GD32VW55x_standard_peripheral/Source\gd32vw55x_timer.c ****     \param[out] none
 363:C:/Users/stapi/OneDrive/Desktop/GD32VW553/GD32VW55X_Wifi_BLE_SDK/GD32VW55x_RELEASE_V1.0.2/MSDK/plf/GD32VW55x_standard_peripheral/Source\gd32vw55x_timer.c ****     \retval     none
 364:C:/Users/stapi/OneDrive/Desktop/GD32VW553/GD32VW55X_Wifi_BLE_SDK/GD32VW55x_RELEASE_V1.0.2/MSDK/plf/GD32VW55x_standard_peripheral/Source\gd32vw55x_timer.c **** */
 365:C:/Users/stapi/OneDrive/Desktop/GD32VW553/GD32VW55X_Wifi_BLE_SDK/GD32VW55x_RELEASE_V1.0.2/MSDK/plf/GD32VW55x_standard_peripheral/Source\gd32vw55x_timer.c **** void timer_update_source_config(uint32_t timer_periph, uint32_t update)
 366:C:/Users/stapi/OneDrive/Desktop/GD32VW553/GD32VW55X_Wifi_BLE_SDK/GD32VW55x_RELEASE_V1.0.2/MSDK/plf/GD32VW55x_standard_peripheral/Source\gd32vw55x_timer.c **** {
 590              		.loc 1 366 1 is_stmt 1
 591              		.cfi_startproc
 592              	.LVL42:
 367:C:/Users/stapi/OneDrive/Desktop/GD32VW553/GD32VW55X_Wifi_BLE_SDK/GD32VW55x_RELEASE_V1.0.2/MSDK/plf/GD32VW55x_standard_peripheral/Source\gd32vw55x_timer.c ****     if(TIMER_UPDATE_SRC_REGULAR == update){
 593              		.loc 1 367 5
 594              		.loc 1 367 7 is_stmt 0
 595 0000 91E5     		bne	a1,zero,.L41
 368:C:/Users/stapi/OneDrive/Desktop/GD32VW553/GD32VW55X_Wifi_BLE_SDK/GD32VW55x_RELEASE_V1.0.2/MSDK/plf/GD32VW55x_standard_peripheral/Source\gd32vw55x_timer.c ****         TIMER_CTL0(timer_periph) |= (uint32_t)TIMER_CTL0_UPS;
 596              		.loc 1 368 9 is_stmt 1
 597              		.loc 1 368 34 is_stmt 0
 598 0002 1C41     		lw	a5,0(a0)
 599 0004 93E74700 		ori	a5,a5,4
 600              	.L43:
 369:C:/Users/stapi/OneDrive/Desktop/GD32VW553/GD32VW55X_Wifi_BLE_SDK/GD32VW55x_RELEASE_V1.0.2/MSDK/plf/GD32VW55x_standard_peripheral/Source\gd32vw55x_timer.c ****     }else if(TIMER_UPDATE_SRC_GLOBAL == update){
 370:C:/Users/stapi/OneDrive/Desktop/GD32VW553/GD32VW55X_Wifi_BLE_SDK/GD32VW55x_RELEASE_V1.0.2/MSDK/plf/GD32VW55x_standard_peripheral/Source\gd32vw55x_timer.c ****         TIMER_CTL0(timer_periph) &= ~(uint32_t)TIMER_CTL0_UPS;
 601              		.loc 1 370 34
 602 0008 1CC1     		sw	a5,0(a0)
 371:C:/Users/stapi/OneDrive/Desktop/GD32VW553/GD32VW55X_Wifi_BLE_SDK/GD32VW55x_RELEASE_V1.0.2/MSDK/plf/GD32VW55x_standard_peripheral/Source\gd32vw55x_timer.c ****     }else{
 372:C:/Users/stapi/OneDrive/Desktop/GD32VW553/GD32VW55X_Wifi_BLE_SDK/GD32VW55x_RELEASE_V1.0.2/MSDK/plf/GD32VW55x_standard_peripheral/Source\gd32vw55x_timer.c ****         /* illegal parameters */
 373:C:/Users/stapi/OneDrive/Desktop/GD32VW553/GD32VW55X_Wifi_BLE_SDK/GD32VW55x_RELEASE_V1.0.2/MSDK/plf/GD32VW55x_standard_peripheral/Source\gd32vw55x_timer.c ****     }
 603              		.loc 1 373 5 is_stmt 1
 604              	.L40:
 374:C:/Users/stapi/OneDrive/Desktop/GD32VW553/GD32VW55X_Wifi_BLE_SDK/GD32VW55x_RELEASE_V1.0.2/MSDK/plf/GD32VW55x_standard_peripheral/Source\gd32vw55x_timer.c **** }
 605              		.loc 1 374 1 is_stmt 0
 606 000a 8280     		ret
 607              	.L41:
 369:C:/Users/stapi/OneDrive/Desktop/GD32VW553/GD32VW55X_Wifi_BLE_SDK/GD32VW55x_RELEASE_V1.0.2/MSDK/plf/GD32VW55x_standard_peripheral/Source\gd32vw55x_timer.c ****     }else if(TIMER_UPDATE_SRC_GLOBAL == update){
 608              		.loc 1 369 11 is_stmt 1
 369:C:/Users/stapi/OneDrive/Desktop/GD32VW553/GD32VW55X_Wifi_BLE_SDK/GD32VW55x_RELEASE_V1.0.2/MSDK/plf/GD32VW55x_standard_peripheral/Source\gd32vw55x_timer.c ****     }else if(TIMER_UPDATE_SRC_GLOBAL == update){
 609              		.loc 1 369 13 is_stmt 0
 610 000c 8547     		li	a5,1
 611 000e E39EF5FE 		bne	a1,a5,.L40
 370:C:/Users/stapi/OneDrive/Desktop/GD32VW553/GD32VW55X_Wifi_BLE_SDK/GD32VW55x_RELEASE_V1.0.2/MSDK/plf/GD32VW55x_standard_peripheral/Source\gd32vw55x_timer.c ****     }else{
 612              		.loc 1 370 9 is_stmt 1
 370:C:/Users/stapi/OneDrive/Desktop/GD32VW553/GD32VW55X_Wifi_BLE_SDK/GD32VW55x_RELEASE_V1.0.2/MSDK/plf/GD32VW55x_standard_peripheral/Source\gd32vw55x_timer.c ****     }else{
 613              		.loc 1 370 34 is_stmt 0
 614 0012 1C41     		lw	a5,0(a0)
 615 0014 ED9B     		andi	a5,a5,-5
 616 0016 CDBF     		j	.L43
 617              		.cfi_endproc
 618              	.LFE384:
 620              		.section	.text.timer_dma_enable,"ax",@progbits
 621              		.align	1
 622              		.globl	timer_dma_enable
 624              	timer_dma_enable:
 625              	.LFB385:
 375:C:/Users/stapi/OneDrive/Desktop/GD32VW553/GD32VW55X_Wifi_BLE_SDK/GD32VW55x_RELEASE_V1.0.2/MSDK/plf/GD32VW55x_standard_peripheral/Source\gd32vw55x_timer.c **** 
 376:C:/Users/stapi/OneDrive/Desktop/GD32VW553/GD32VW55X_Wifi_BLE_SDK/GD32VW55x_RELEASE_V1.0.2/MSDK/plf/GD32VW55x_standard_peripheral/Source\gd32vw55x_timer.c **** /*!
 377:C:/Users/stapi/OneDrive/Desktop/GD32VW553/GD32VW55X_Wifi_BLE_SDK/GD32VW55x_RELEASE_V1.0.2/MSDK/plf/GD32VW55x_standard_peripheral/Source\gd32vw55x_timer.c ****     \brief      enable the TIMER DMA
 378:C:/Users/stapi/OneDrive/Desktop/GD32VW553/GD32VW55X_Wifi_BLE_SDK/GD32VW55x_RELEASE_V1.0.2/MSDK/plf/GD32VW55x_standard_peripheral/Source\gd32vw55x_timer.c ****     \param[in]  timer_periph: please refer to the following parameters
 379:C:/Users/stapi/OneDrive/Desktop/GD32VW553/GD32VW55X_Wifi_BLE_SDK/GD32VW55x_RELEASE_V1.0.2/MSDK/plf/GD32VW55x_standard_peripheral/Source\gd32vw55x_timer.c ****     \param[in]  dma: specify which DMA to enable
 380:C:/Users/stapi/OneDrive/Desktop/GD32VW553/GD32VW55X_Wifi_BLE_SDK/GD32VW55x_RELEASE_V1.0.2/MSDK/plf/GD32VW55x_standard_peripheral/Source\gd32vw55x_timer.c ****                 one or more parameters can be selected which are shown as below:
 381:C:/Users/stapi/OneDrive/Desktop/GD32VW553/GD32VW55X_Wifi_BLE_SDK/GD32VW55x_RELEASE_V1.0.2/MSDK/plf/GD32VW55x_standard_peripheral/Source\gd32vw55x_timer.c ****       \arg        TIMER_DMA_UPD:  update DMA enable,TIMERx(x=0,1,2,5,15,16)
 382:C:/Users/stapi/OneDrive/Desktop/GD32VW553/GD32VW55X_Wifi_BLE_SDK/GD32VW55x_RELEASE_V1.0.2/MSDK/plf/GD32VW55x_standard_peripheral/Source\gd32vw55x_timer.c ****       \arg        TIMER_DMA_CH0D: channel 0 DMA enable, TIMERx(x=0,1,2,15,16)
 383:C:/Users/stapi/OneDrive/Desktop/GD32VW553/GD32VW55X_Wifi_BLE_SDK/GD32VW55x_RELEASE_V1.0.2/MSDK/plf/GD32VW55x_standard_peripheral/Source\gd32vw55x_timer.c ****       \arg        TIMER_DMA_CH1D: channel 1 DMA enable, TIMERx(x=0,1,2)
 384:C:/Users/stapi/OneDrive/Desktop/GD32VW553/GD32VW55X_Wifi_BLE_SDK/GD32VW55x_RELEASE_V1.0.2/MSDK/plf/GD32VW55x_standard_peripheral/Source\gd32vw55x_timer.c ****       \arg        TIMER_DMA_CH2D: channel 2 DMA enable, TIMERx(x=0,1,2)
 385:C:/Users/stapi/OneDrive/Desktop/GD32VW553/GD32VW55X_Wifi_BLE_SDK/GD32VW55x_RELEASE_V1.0.2/MSDK/plf/GD32VW55x_standard_peripheral/Source\gd32vw55x_timer.c ****       \arg        TIMER_DMA_CH3D: channel 3 DMA enable, TIMERx(x=0,1,2)
 386:C:/Users/stapi/OneDrive/Desktop/GD32VW553/GD32VW55X_Wifi_BLE_SDK/GD32VW55x_RELEASE_V1.0.2/MSDK/plf/GD32VW55x_standard_peripheral/Source\gd32vw55x_timer.c ****       \arg        TIMER_DMA_CMTD: commutation DMA enable,TIMERx(x=0)
 387:C:/Users/stapi/OneDrive/Desktop/GD32VW553/GD32VW55X_Wifi_BLE_SDK/GD32VW55x_RELEASE_V1.0.2/MSDK/plf/GD32VW55x_standard_peripheral/Source\gd32vw55x_timer.c ****       \arg        TIMER_DMA_TRGD: trigger DMA enable,TIMERx(x=0,1,2)
 388:C:/Users/stapi/OneDrive/Desktop/GD32VW553/GD32VW55X_Wifi_BLE_SDK/GD32VW55x_RELEASE_V1.0.2/MSDK/plf/GD32VW55x_standard_peripheral/Source\gd32vw55x_timer.c ****     \param[out] none
 389:C:/Users/stapi/OneDrive/Desktop/GD32VW553/GD32VW55X_Wifi_BLE_SDK/GD32VW55x_RELEASE_V1.0.2/MSDK/plf/GD32VW55x_standard_peripheral/Source\gd32vw55x_timer.c ****     \retval     none
 390:C:/Users/stapi/OneDrive/Desktop/GD32VW553/GD32VW55X_Wifi_BLE_SDK/GD32VW55x_RELEASE_V1.0.2/MSDK/plf/GD32VW55x_standard_peripheral/Source\gd32vw55x_timer.c **** */
 391:C:/Users/stapi/OneDrive/Desktop/GD32VW553/GD32VW55X_Wifi_BLE_SDK/GD32VW55x_RELEASE_V1.0.2/MSDK/plf/GD32VW55x_standard_peripheral/Source\gd32vw55x_timer.c **** void timer_dma_enable(uint32_t timer_periph, uint16_t dma)
 392:C:/Users/stapi/OneDrive/Desktop/GD32VW553/GD32VW55X_Wifi_BLE_SDK/GD32VW55x_RELEASE_V1.0.2/MSDK/plf/GD32VW55x_standard_peripheral/Source\gd32vw55x_timer.c **** {
 626              		.loc 1 392 1 is_stmt 1
 627              		.cfi_startproc
 628              	.LVL43:
 393:C:/Users/stapi/OneDrive/Desktop/GD32VW553/GD32VW55X_Wifi_BLE_SDK/GD32VW55x_RELEASE_V1.0.2/MSDK/plf/GD32VW55x_standard_peripheral/Source\gd32vw55x_timer.c ****     TIMER_DMAINTEN(timer_periph) |= (uint32_t) dma;
 629              		.loc 1 393 5
 630              		.loc 1 393 34 is_stmt 0
 631 0000 5C45     		lw	a5,12(a0)
 632 0002 DD8D     		or	a1,a1,a5
 633              	.LVL44:
 634 0004 4CC5     		sw	a1,12(a0)
 394:C:/Users/stapi/OneDrive/Desktop/GD32VW553/GD32VW55X_Wifi_BLE_SDK/GD32VW55x_RELEASE_V1.0.2/MSDK/plf/GD32VW55x_standard_peripheral/Source\gd32vw55x_timer.c **** }
 635              		.loc 1 394 1
 636 0006 8280     		ret
 637              		.cfi_endproc
 638              	.LFE385:
 640              		.section	.text.timer_dma_disable,"ax",@progbits
 641              		.align	1
 642              		.globl	timer_dma_disable
 644              	timer_dma_disable:
 645              	.LFB386:
 395:C:/Users/stapi/OneDrive/Desktop/GD32VW553/GD32VW55X_Wifi_BLE_SDK/GD32VW55x_RELEASE_V1.0.2/MSDK/plf/GD32VW55x_standard_peripheral/Source\gd32vw55x_timer.c **** 
 396:C:/Users/stapi/OneDrive/Desktop/GD32VW553/GD32VW55X_Wifi_BLE_SDK/GD32VW55x_RELEASE_V1.0.2/MSDK/plf/GD32VW55x_standard_peripheral/Source\gd32vw55x_timer.c **** /*!
 397:C:/Users/stapi/OneDrive/Desktop/GD32VW553/GD32VW55X_Wifi_BLE_SDK/GD32VW55x_RELEASE_V1.0.2/MSDK/plf/GD32VW55x_standard_peripheral/Source\gd32vw55x_timer.c ****     \brief      disable the TIMER DMA
 398:C:/Users/stapi/OneDrive/Desktop/GD32VW553/GD32VW55X_Wifi_BLE_SDK/GD32VW55x_RELEASE_V1.0.2/MSDK/plf/GD32VW55x_standard_peripheral/Source\gd32vw55x_timer.c ****     \param[in]  timer_periph: please refer to the following parameters
 399:C:/Users/stapi/OneDrive/Desktop/GD32VW553/GD32VW55X_Wifi_BLE_SDK/GD32VW55x_RELEASE_V1.0.2/MSDK/plf/GD32VW55x_standard_peripheral/Source\gd32vw55x_timer.c ****     \param[in]  dma: specify which DMA to disable
 400:C:/Users/stapi/OneDrive/Desktop/GD32VW553/GD32VW55X_Wifi_BLE_SDK/GD32VW55x_RELEASE_V1.0.2/MSDK/plf/GD32VW55x_standard_peripheral/Source\gd32vw55x_timer.c ****                 one or more parameters can be selected which are shown as below:
 401:C:/Users/stapi/OneDrive/Desktop/GD32VW553/GD32VW55X_Wifi_BLE_SDK/GD32VW55x_RELEASE_V1.0.2/MSDK/plf/GD32VW55x_standard_peripheral/Source\gd32vw55x_timer.c ****       \arg        TIMER_DMA_UPD:  update DMA disable,TIMERx(x=0,1,2,5,15,16)
 402:C:/Users/stapi/OneDrive/Desktop/GD32VW553/GD32VW55X_Wifi_BLE_SDK/GD32VW55x_RELEASE_V1.0.2/MSDK/plf/GD32VW55x_standard_peripheral/Source\gd32vw55x_timer.c ****       \arg        TIMER_DMA_CH0D: channel 0 DMA disable,TIMERx(x=0,1,2,15,16)
 403:C:/Users/stapi/OneDrive/Desktop/GD32VW553/GD32VW55X_Wifi_BLE_SDK/GD32VW55x_RELEASE_V1.0.2/MSDK/plf/GD32VW55x_standard_peripheral/Source\gd32vw55x_timer.c ****       \arg        TIMER_DMA_CH1D: channel 1 DMA disable,TIMERx(x=0,1,2)
 404:C:/Users/stapi/OneDrive/Desktop/GD32VW553/GD32VW55X_Wifi_BLE_SDK/GD32VW55x_RELEASE_V1.0.2/MSDK/plf/GD32VW55x_standard_peripheral/Source\gd32vw55x_timer.c ****       \arg        TIMER_DMA_CH2D: channel 2 DMA disable,TIMERx(x=0,1,2)
 405:C:/Users/stapi/OneDrive/Desktop/GD32VW553/GD32VW55X_Wifi_BLE_SDK/GD32VW55x_RELEASE_V1.0.2/MSDK/plf/GD32VW55x_standard_peripheral/Source\gd32vw55x_timer.c ****       \arg        TIMER_DMA_CH3D: channel 3 DMA disable,TIMERx(x=0,1,2)
 406:C:/Users/stapi/OneDrive/Desktop/GD32VW553/GD32VW55X_Wifi_BLE_SDK/GD32VW55x_RELEASE_V1.0.2/MSDK/plf/GD32VW55x_standard_peripheral/Source\gd32vw55x_timer.c ****       \arg        TIMER_DMA_CMTD: commutation DMA disable,TIMERx(x=0)
 407:C:/Users/stapi/OneDrive/Desktop/GD32VW553/GD32VW55X_Wifi_BLE_SDK/GD32VW55x_RELEASE_V1.0.2/MSDK/plf/GD32VW55x_standard_peripheral/Source\gd32vw55x_timer.c ****       \arg        TIMER_DMA_TRGD: trigger DMA disable,TIMERx(x=0,1,2)
 408:C:/Users/stapi/OneDrive/Desktop/GD32VW553/GD32VW55X_Wifi_BLE_SDK/GD32VW55x_RELEASE_V1.0.2/MSDK/plf/GD32VW55x_standard_peripheral/Source\gd32vw55x_timer.c ****     \param[out] none
 409:C:/Users/stapi/OneDrive/Desktop/GD32VW553/GD32VW55X_Wifi_BLE_SDK/GD32VW55x_RELEASE_V1.0.2/MSDK/plf/GD32VW55x_standard_peripheral/Source\gd32vw55x_timer.c ****     \retval     none
 410:C:/Users/stapi/OneDrive/Desktop/GD32VW553/GD32VW55X_Wifi_BLE_SDK/GD32VW55x_RELEASE_V1.0.2/MSDK/plf/GD32VW55x_standard_peripheral/Source\gd32vw55x_timer.c **** */
 411:C:/Users/stapi/OneDrive/Desktop/GD32VW553/GD32VW55X_Wifi_BLE_SDK/GD32VW55x_RELEASE_V1.0.2/MSDK/plf/GD32VW55x_standard_peripheral/Source\gd32vw55x_timer.c **** void timer_dma_disable(uint32_t timer_periph, uint16_t dma)
 412:C:/Users/stapi/OneDrive/Desktop/GD32VW553/GD32VW55X_Wifi_BLE_SDK/GD32VW55x_RELEASE_V1.0.2/MSDK/plf/GD32VW55x_standard_peripheral/Source\gd32vw55x_timer.c **** {
 646              		.loc 1 412 1 is_stmt 1
 647              		.cfi_startproc
 648              	.LVL45:
 413:C:/Users/stapi/OneDrive/Desktop/GD32VW553/GD32VW55X_Wifi_BLE_SDK/GD32VW55x_RELEASE_V1.0.2/MSDK/plf/GD32VW55x_standard_peripheral/Source\gd32vw55x_timer.c ****     TIMER_DMAINTEN(timer_periph) &= (~(uint32_t)(dma));
 649              		.loc 1 413 5
 650              		.loc 1 413 34 is_stmt 0
 651 0000 5C45     		lw	a5,12(a0)
 652 0002 B3F5B740 		andn	a1,a5,a1
 653              	.LVL46:
 654 0006 4CC5     		sw	a1,12(a0)
 414:C:/Users/stapi/OneDrive/Desktop/GD32VW553/GD32VW55X_Wifi_BLE_SDK/GD32VW55x_RELEASE_V1.0.2/MSDK/plf/GD32VW55x_standard_peripheral/Source\gd32vw55x_timer.c **** }
 655              		.loc 1 414 1
 656 0008 8280     		ret
 657              		.cfi_endproc
 658              	.LFE386:
 660              		.section	.text.timer_channel_dma_request_source_select,"ax",@progbits
 661              		.align	1
 662              		.globl	timer_channel_dma_request_source_select
 664              	timer_channel_dma_request_source_select:
 665              	.LFB387:
 415:C:/Users/stapi/OneDrive/Desktop/GD32VW553/GD32VW55X_Wifi_BLE_SDK/GD32VW55x_RELEASE_V1.0.2/MSDK/plf/GD32VW55x_standard_peripheral/Source\gd32vw55x_timer.c **** 
 416:C:/Users/stapi/OneDrive/Desktop/GD32VW553/GD32VW55X_Wifi_BLE_SDK/GD32VW55x_RELEASE_V1.0.2/MSDK/plf/GD32VW55x_standard_peripheral/Source\gd32vw55x_timer.c **** /*!
 417:C:/Users/stapi/OneDrive/Desktop/GD32VW553/GD32VW55X_Wifi_BLE_SDK/GD32VW55x_RELEASE_V1.0.2/MSDK/plf/GD32VW55x_standard_peripheral/Source\gd32vw55x_timer.c ****     \brief      channel DMA request source selection
 418:C:/Users/stapi/OneDrive/Desktop/GD32VW553/GD32VW55X_Wifi_BLE_SDK/GD32VW55x_RELEASE_V1.0.2/MSDK/plf/GD32VW55x_standard_peripheral/Source\gd32vw55x_timer.c ****     \param[in]  timer_periph: TIMERx(x=0,1,2,15,16)
 419:C:/Users/stapi/OneDrive/Desktop/GD32VW553/GD32VW55X_Wifi_BLE_SDK/GD32VW55x_RELEASE_V1.0.2/MSDK/plf/GD32VW55x_standard_peripheral/Source\gd32vw55x_timer.c ****     \param[in]  dma_request: channel DMA request source selection
 420:C:/Users/stapi/OneDrive/Desktop/GD32VW553/GD32VW55X_Wifi_BLE_SDK/GD32VW55x_RELEASE_V1.0.2/MSDK/plf/GD32VW55x_standard_peripheral/Source\gd32vw55x_timer.c ****                 only one parameter can be selected which is shown as below:
 421:C:/Users/stapi/OneDrive/Desktop/GD32VW553/GD32VW55X_Wifi_BLE_SDK/GD32VW55x_RELEASE_V1.0.2/MSDK/plf/GD32VW55x_standard_peripheral/Source\gd32vw55x_timer.c ****        \arg        TIMER_DMAREQUEST_CHANNELEVENT: DMA request of channel y is sent when channel y e
 422:C:/Users/stapi/OneDrive/Desktop/GD32VW553/GD32VW55X_Wifi_BLE_SDK/GD32VW55x_RELEASE_V1.0.2/MSDK/plf/GD32VW55x_standard_peripheral/Source\gd32vw55x_timer.c ****        \arg        TIMER_DMAREQUEST_UPDATEEVENT: DMA request of channel y is sent when update event
 423:C:/Users/stapi/OneDrive/Desktop/GD32VW553/GD32VW55X_Wifi_BLE_SDK/GD32VW55x_RELEASE_V1.0.2/MSDK/plf/GD32VW55x_standard_peripheral/Source\gd32vw55x_timer.c ****     \param[out] none
 424:C:/Users/stapi/OneDrive/Desktop/GD32VW553/GD32VW55X_Wifi_BLE_SDK/GD32VW55x_RELEASE_V1.0.2/MSDK/plf/GD32VW55x_standard_peripheral/Source\gd32vw55x_timer.c ****     \retval     none
 425:C:/Users/stapi/OneDrive/Desktop/GD32VW553/GD32VW55X_Wifi_BLE_SDK/GD32VW55x_RELEASE_V1.0.2/MSDK/plf/GD32VW55x_standard_peripheral/Source\gd32vw55x_timer.c **** */
 426:C:/Users/stapi/OneDrive/Desktop/GD32VW553/GD32VW55X_Wifi_BLE_SDK/GD32VW55x_RELEASE_V1.0.2/MSDK/plf/GD32VW55x_standard_peripheral/Source\gd32vw55x_timer.c **** void timer_channel_dma_request_source_select(uint32_t timer_periph, uint32_t dma_request)
 427:C:/Users/stapi/OneDrive/Desktop/GD32VW553/GD32VW55X_Wifi_BLE_SDK/GD32VW55x_RELEASE_V1.0.2/MSDK/plf/GD32VW55x_standard_peripheral/Source\gd32vw55x_timer.c **** {
 666              		.loc 1 427 1 is_stmt 1
 667              		.cfi_startproc
 668              	.LVL47:
 428:C:/Users/stapi/OneDrive/Desktop/GD32VW553/GD32VW55X_Wifi_BLE_SDK/GD32VW55x_RELEASE_V1.0.2/MSDK/plf/GD32VW55x_standard_peripheral/Source\gd32vw55x_timer.c ****     if(TIMER_DMAREQUEST_UPDATEEVENT == dma_request){
 669              		.loc 1 428 5
 670              		.loc 1 428 7 is_stmt 0
 671 0000 91E5     		bne	a1,zero,.L47
 429:C:/Users/stapi/OneDrive/Desktop/GD32VW553/GD32VW55X_Wifi_BLE_SDK/GD32VW55x_RELEASE_V1.0.2/MSDK/plf/GD32VW55x_standard_peripheral/Source\gd32vw55x_timer.c ****         TIMER_CTL1(timer_periph) |= (uint32_t)TIMER_CTL1_DMAS;
 672              		.loc 1 429 9 is_stmt 1
 673              		.loc 1 429 34 is_stmt 0
 674 0002 5C41     		lw	a5,4(a0)
 675 0004 93E78700 		ori	a5,a5,8
 676              	.L49:
 430:C:/Users/stapi/OneDrive/Desktop/GD32VW553/GD32VW55X_Wifi_BLE_SDK/GD32VW55x_RELEASE_V1.0.2/MSDK/plf/GD32VW55x_standard_peripheral/Source\gd32vw55x_timer.c ****     }else if(TIMER_DMAREQUEST_CHANNELEVENT == dma_request){
 431:C:/Users/stapi/OneDrive/Desktop/GD32VW553/GD32VW55X_Wifi_BLE_SDK/GD32VW55x_RELEASE_V1.0.2/MSDK/plf/GD32VW55x_standard_peripheral/Source\gd32vw55x_timer.c ****         TIMER_CTL1(timer_periph) &= ~(uint32_t)TIMER_CTL1_DMAS;
 677              		.loc 1 431 34
 678 0008 5CC1     		sw	a5,4(a0)
 432:C:/Users/stapi/OneDrive/Desktop/GD32VW553/GD32VW55X_Wifi_BLE_SDK/GD32VW55x_RELEASE_V1.0.2/MSDK/plf/GD32VW55x_standard_peripheral/Source\gd32vw55x_timer.c ****     }else{
 433:C:/Users/stapi/OneDrive/Desktop/GD32VW553/GD32VW55X_Wifi_BLE_SDK/GD32VW55x_RELEASE_V1.0.2/MSDK/plf/GD32VW55x_standard_peripheral/Source\gd32vw55x_timer.c ****         /* illegal parameters */
 434:C:/Users/stapi/OneDrive/Desktop/GD32VW553/GD32VW55X_Wifi_BLE_SDK/GD32VW55x_RELEASE_V1.0.2/MSDK/plf/GD32VW55x_standard_peripheral/Source\gd32vw55x_timer.c ****     }
 679              		.loc 1 434 5 is_stmt 1
 680              	.L46:
 435:C:/Users/stapi/OneDrive/Desktop/GD32VW553/GD32VW55X_Wifi_BLE_SDK/GD32VW55x_RELEASE_V1.0.2/MSDK/plf/GD32VW55x_standard_peripheral/Source\gd32vw55x_timer.c **** }
 681              		.loc 1 435 1 is_stmt 0
 682 000a 8280     		ret
 683              	.L47:
 430:C:/Users/stapi/OneDrive/Desktop/GD32VW553/GD32VW55X_Wifi_BLE_SDK/GD32VW55x_RELEASE_V1.0.2/MSDK/plf/GD32VW55x_standard_peripheral/Source\gd32vw55x_timer.c ****     }else if(TIMER_DMAREQUEST_CHANNELEVENT == dma_request){
 684              		.loc 1 430 11 is_stmt 1
 430:C:/Users/stapi/OneDrive/Desktop/GD32VW553/GD32VW55X_Wifi_BLE_SDK/GD32VW55x_RELEASE_V1.0.2/MSDK/plf/GD32VW55x_standard_peripheral/Source\gd32vw55x_timer.c ****     }else if(TIMER_DMAREQUEST_CHANNELEVENT == dma_request){
 685              		.loc 1 430 13 is_stmt 0
 686 000c 8547     		li	a5,1
 687 000e E39EF5FE 		bne	a1,a5,.L46
 431:C:/Users/stapi/OneDrive/Desktop/GD32VW553/GD32VW55X_Wifi_BLE_SDK/GD32VW55x_RELEASE_V1.0.2/MSDK/plf/GD32VW55x_standard_peripheral/Source\gd32vw55x_timer.c ****     }else{
 688              		.loc 1 431 9 is_stmt 1
 431:C:/Users/stapi/OneDrive/Desktop/GD32VW553/GD32VW55X_Wifi_BLE_SDK/GD32VW55x_RELEASE_V1.0.2/MSDK/plf/GD32VW55x_standard_peripheral/Source\gd32vw55x_timer.c ****     }else{
 689              		.loc 1 431 34 is_stmt 0
 690 0012 5C41     		lw	a5,4(a0)
 691 0014 DD9B     		andi	a5,a5,-9
 692 0016 CDBF     		j	.L49
 693              		.cfi_endproc
 694              	.LFE387:
 696              		.section	.text.timer_dma_transfer_config,"ax",@progbits
 697              		.align	1
 698              		.globl	timer_dma_transfer_config
 700              	timer_dma_transfer_config:
 701              	.LFB388:
 436:C:/Users/stapi/OneDrive/Desktop/GD32VW553/GD32VW55X_Wifi_BLE_SDK/GD32VW55x_RELEASE_V1.0.2/MSDK/plf/GD32VW55x_standard_peripheral/Source\gd32vw55x_timer.c **** 
 437:C:/Users/stapi/OneDrive/Desktop/GD32VW553/GD32VW55X_Wifi_BLE_SDK/GD32VW55x_RELEASE_V1.0.2/MSDK/plf/GD32VW55x_standard_peripheral/Source\gd32vw55x_timer.c **** /*!
 438:C:/Users/stapi/OneDrive/Desktop/GD32VW553/GD32VW55X_Wifi_BLE_SDK/GD32VW55x_RELEASE_V1.0.2/MSDK/plf/GD32VW55x_standard_peripheral/Source\gd32vw55x_timer.c ****     \brief      configure the TIMER DMA transfer
 439:C:/Users/stapi/OneDrive/Desktop/GD32VW553/GD32VW55X_Wifi_BLE_SDK/GD32VW55x_RELEASE_V1.0.2/MSDK/plf/GD32VW55x_standard_peripheral/Source\gd32vw55x_timer.c ****     \param[in]  timer_periph: please refer to the following parameters
 440:C:/Users/stapi/OneDrive/Desktop/GD32VW553/GD32VW55X_Wifi_BLE_SDK/GD32VW55x_RELEASE_V1.0.2/MSDK/plf/GD32VW55x_standard_peripheral/Source\gd32vw55x_timer.c ****     \param[in]  dma_baseaddr:
 441:C:/Users/stapi/OneDrive/Desktop/GD32VW553/GD32VW55X_Wifi_BLE_SDK/GD32VW55x_RELEASE_V1.0.2/MSDK/plf/GD32VW55x_standard_peripheral/Source\gd32vw55x_timer.c ****                 only one parameter can be selected which is shown as below:
 442:C:/Users/stapi/OneDrive/Desktop/GD32VW553/GD32VW55X_Wifi_BLE_SDK/GD32VW55x_RELEASE_V1.0.2/MSDK/plf/GD32VW55x_standard_peripheral/Source\gd32vw55x_timer.c ****        \arg        TIMER_DMACFG_DMATA_CTL0: DMA transfer address is TIMER_CTL0,TIMERx(x=0,1,2,15,16
 443:C:/Users/stapi/OneDrive/Desktop/GD32VW553/GD32VW55X_Wifi_BLE_SDK/GD32VW55x_RELEASE_V1.0.2/MSDK/plf/GD32VW55x_standard_peripheral/Source\gd32vw55x_timer.c ****        \arg        TIMER_DMACFG_DMATA_CTL1: DMA transfer address is TIMER_CTL1,TIMERx(x=0,1,2,15,16
 444:C:/Users/stapi/OneDrive/Desktop/GD32VW553/GD32VW55X_Wifi_BLE_SDK/GD32VW55x_RELEASE_V1.0.2/MSDK/plf/GD32VW55x_standard_peripheral/Source\gd32vw55x_timer.c ****        \arg        TIMER_DMACFG_DMATA_SMCFG: DMA transfer address is TIMER_SMCFG,TIMERx(x=0,1,2)
 445:C:/Users/stapi/OneDrive/Desktop/GD32VW553/GD32VW55X_Wifi_BLE_SDK/GD32VW55x_RELEASE_V1.0.2/MSDK/plf/GD32VW55x_standard_peripheral/Source\gd32vw55x_timer.c ****        \arg        TIMER_DMACFG_DMATA_DMAINTEN: DMA transfer address is TIMER_DMAINTEN,TIMERx(x=0,1
 446:C:/Users/stapi/OneDrive/Desktop/GD32VW553/GD32VW55X_Wifi_BLE_SDK/GD32VW55x_RELEASE_V1.0.2/MSDK/plf/GD32VW55x_standard_peripheral/Source\gd32vw55x_timer.c ****        \arg        TIMER_DMACFG_DMATA_INTF: DMA transfer address is TIMER_INTF,TIMERx(x=0,1,2,15,16
 447:C:/Users/stapi/OneDrive/Desktop/GD32VW553/GD32VW55X_Wifi_BLE_SDK/GD32VW55x_RELEASE_V1.0.2/MSDK/plf/GD32VW55x_standard_peripheral/Source\gd32vw55x_timer.c ****        \arg        TIMER_DMACFG_DMATA_SWEVG: DMA transfer address is TIMER_SWEVG,TIMERx(x=0,1,2,15,
 448:C:/Users/stapi/OneDrive/Desktop/GD32VW553/GD32VW55X_Wifi_BLE_SDK/GD32VW55x_RELEASE_V1.0.2/MSDK/plf/GD32VW55x_standard_peripheral/Source\gd32vw55x_timer.c ****        \arg        TIMER_DMACFG_DMATA_CHCTL0: DMA transfer address is TIMER_CHCTL0,TIMERx(x=0,1,2,1
 449:C:/Users/stapi/OneDrive/Desktop/GD32VW553/GD32VW55X_Wifi_BLE_SDK/GD32VW55x_RELEASE_V1.0.2/MSDK/plf/GD32VW55x_standard_peripheral/Source\gd32vw55x_timer.c ****        \arg        TIMER_DMACFG_DMATA_CHCTL1: DMA transfer address is TIMER_CHCTL1,TIMERx(x=0,1,2)
 450:C:/Users/stapi/OneDrive/Desktop/GD32VW553/GD32VW55X_Wifi_BLE_SDK/GD32VW55x_RELEASE_V1.0.2/MSDK/plf/GD32VW55x_standard_peripheral/Source\gd32vw55x_timer.c ****        \arg        TIMER_DMACFG_DMATA_CHCTL2: DMA transfer address is TIMER_CHCTL2,TIMERx(x=0,1,2,1
 451:C:/Users/stapi/OneDrive/Desktop/GD32VW553/GD32VW55X_Wifi_BLE_SDK/GD32VW55x_RELEASE_V1.0.2/MSDK/plf/GD32VW55x_standard_peripheral/Source\gd32vw55x_timer.c ****        \arg        TIMER_DMACFG_DMATA_CNT: DMA transfer address is TIMER_CNT,TIMERx(x=0,1,2,15,16)
 452:C:/Users/stapi/OneDrive/Desktop/GD32VW553/GD32VW55X_Wifi_BLE_SDK/GD32VW55x_RELEASE_V1.0.2/MSDK/plf/GD32VW55x_standard_peripheral/Source\gd32vw55x_timer.c ****        \arg        TIMER_DMACFG_DMATA_PSC: DMA transfer address is TIMER_PSC,TIMERx(x=0,1,2,15,16)
 453:C:/Users/stapi/OneDrive/Desktop/GD32VW553/GD32VW55X_Wifi_BLE_SDK/GD32VW55x_RELEASE_V1.0.2/MSDK/plf/GD32VW55x_standard_peripheral/Source\gd32vw55x_timer.c ****        \arg        TIMER_DMACFG_DMATA_CAR: DMA transfer address is TIMER_CAR,TIMERx(x=0,1,2,15,16)
 454:C:/Users/stapi/OneDrive/Desktop/GD32VW553/GD32VW55X_Wifi_BLE_SDK/GD32VW55x_RELEASE_V1.0.2/MSDK/plf/GD32VW55x_standard_peripheral/Source\gd32vw55x_timer.c ****        \arg        TIMER_DMACFG_DMATA_CREP: DMA transfer address is TIMER_CREP,TIMERx(x=0,15,16)
 455:C:/Users/stapi/OneDrive/Desktop/GD32VW553/GD32VW55X_Wifi_BLE_SDK/GD32VW55x_RELEASE_V1.0.2/MSDK/plf/GD32VW55x_standard_peripheral/Source\gd32vw55x_timer.c ****        \arg        TIMER_DMACFG_DMATA_CH0CV: DMA transfer address is TIMER_CH0CV,TIMERx(x=0,1,2,15,
 456:C:/Users/stapi/OneDrive/Desktop/GD32VW553/GD32VW55X_Wifi_BLE_SDK/GD32VW55x_RELEASE_V1.0.2/MSDK/plf/GD32VW55x_standard_peripheral/Source\gd32vw55x_timer.c ****        \arg        TIMER_DMACFG_DMATA_CH1CV: DMA transfer address is TIMER_CH1CV,TIMERx(x=0,1,2)
 457:C:/Users/stapi/OneDrive/Desktop/GD32VW553/GD32VW55X_Wifi_BLE_SDK/GD32VW55x_RELEASE_V1.0.2/MSDK/plf/GD32VW55x_standard_peripheral/Source\gd32vw55x_timer.c ****        \arg        TIMER_DMACFG_DMATA_CH2CV: DMA transfer address is TIMER_CH2CV,TIMERx(x=0,1,2)
 458:C:/Users/stapi/OneDrive/Desktop/GD32VW553/GD32VW55X_Wifi_BLE_SDK/GD32VW55x_RELEASE_V1.0.2/MSDK/plf/GD32VW55x_standard_peripheral/Source\gd32vw55x_timer.c ****        \arg        TIMER_DMACFG_DMATA_CH3CV: DMA transfer address is TIMER_CH3CV,TIMERx(x=0,1,2)
 459:C:/Users/stapi/OneDrive/Desktop/GD32VW553/GD32VW55X_Wifi_BLE_SDK/GD32VW55x_RELEASE_V1.0.2/MSDK/plf/GD32VW55x_standard_peripheral/Source\gd32vw55x_timer.c ****        \arg        TIMER_DMACFG_DMATA_CCHP: DMA transfer address is TIMER_CCHP,TIMERx(x=0,15,16)
 460:C:/Users/stapi/OneDrive/Desktop/GD32VW553/GD32VW55X_Wifi_BLE_SDK/GD32VW55x_RELEASE_V1.0.2/MSDK/plf/GD32VW55x_standard_peripheral/Source\gd32vw55x_timer.c ****        \arg        TIMER_DMACFG_DMATA_DMACFG: DMA transfer address is TIMER_DMACFG,TIMERx(x=0,1,2,1
 461:C:/Users/stapi/OneDrive/Desktop/GD32VW553/GD32VW55X_Wifi_BLE_SDK/GD32VW55x_RELEASE_V1.0.2/MSDK/plf/GD32VW55x_standard_peripheral/Source\gd32vw55x_timer.c ****        \arg        TIMER_DMACFG_DMATA_DMATB: DMA transfer address is TIMER_DMATB,TIMERx(x=0,1,2,15,
 462:C:/Users/stapi/OneDrive/Desktop/GD32VW553/GD32VW55X_Wifi_BLE_SDK/GD32VW55x_RELEASE_V1.0.2/MSDK/plf/GD32VW55x_standard_peripheral/Source\gd32vw55x_timer.c ****     \param[in]  dma_lenth:
 463:C:/Users/stapi/OneDrive/Desktop/GD32VW553/GD32VW55X_Wifi_BLE_SDK/GD32VW55x_RELEASE_V1.0.2/MSDK/plf/GD32VW55x_standard_peripheral/Source\gd32vw55x_timer.c ****                 only one parameter can be selected which is shown as below:
 464:C:/Users/stapi/OneDrive/Desktop/GD32VW553/GD32VW55X_Wifi_BLE_SDK/GD32VW55x_RELEASE_V1.0.2/MSDK/plf/GD32VW55x_standard_peripheral/Source\gd32vw55x_timer.c ****        \arg        TIMER_DMACFG_DMATC_xTRANSFER(x=1..18): DMA transfer x time
 465:C:/Users/stapi/OneDrive/Desktop/GD32VW553/GD32VW55X_Wifi_BLE_SDK/GD32VW55x_RELEASE_V1.0.2/MSDK/plf/GD32VW55x_standard_peripheral/Source\gd32vw55x_timer.c ****     \param[out] none
 466:C:/Users/stapi/OneDrive/Desktop/GD32VW553/GD32VW55X_Wifi_BLE_SDK/GD32VW55x_RELEASE_V1.0.2/MSDK/plf/GD32VW55x_standard_peripheral/Source\gd32vw55x_timer.c ****     \retval     none
 467:C:/Users/stapi/OneDrive/Desktop/GD32VW553/GD32VW55X_Wifi_BLE_SDK/GD32VW55x_RELEASE_V1.0.2/MSDK/plf/GD32VW55x_standard_peripheral/Source\gd32vw55x_timer.c **** */
 468:C:/Users/stapi/OneDrive/Desktop/GD32VW553/GD32VW55X_Wifi_BLE_SDK/GD32VW55x_RELEASE_V1.0.2/MSDK/plf/GD32VW55x_standard_peripheral/Source\gd32vw55x_timer.c **** void timer_dma_transfer_config(uint32_t timer_periph, uint32_t dma_baseaddr, uint32_t dma_lenth)
 469:C:/Users/stapi/OneDrive/Desktop/GD32VW553/GD32VW55X_Wifi_BLE_SDK/GD32VW55x_RELEASE_V1.0.2/MSDK/plf/GD32VW55x_standard_peripheral/Source\gd32vw55x_timer.c **** {
 702              		.loc 1 469 1 is_stmt 1
 703              		.cfi_startproc
 704              	.LVL48:
 470:C:/Users/stapi/OneDrive/Desktop/GD32VW553/GD32VW55X_Wifi_BLE_SDK/GD32VW55x_RELEASE_V1.0.2/MSDK/plf/GD32VW55x_standard_peripheral/Source\gd32vw55x_timer.c ****     TIMER_DMACFG(timer_periph) &= (~(uint32_t)(TIMER_DMACFG_DMATA | TIMER_DMACFG_DMATC));
 705              		.loc 1 470 5
 706              		.loc 1 470 32 is_stmt 0
 707 0000 3C45     		lw	a5,72(a0)
 708 0002 7977     		li	a4,-8192
 709 0004 1307070E 		addi	a4,a4,224
 710 0008 F98F     		and	a5,a5,a4
 711 000a 3CC5     		sw	a5,72(a0)
 471:C:/Users/stapi/OneDrive/Desktop/GD32VW553/GD32VW55X_Wifi_BLE_SDK/GD32VW55x_RELEASE_V1.0.2/MSDK/plf/GD32VW55x_standard_peripheral/Source\gd32vw55x_timer.c ****     TIMER_DMACFG(timer_periph) |= (uint32_t)(dma_baseaddr | dma_lenth);
 712              		.loc 1 471 5 is_stmt 1
 713              		.loc 1 471 32 is_stmt 0
 714 000c 3C45     		lw	a5,72(a0)
 715              		.loc 1 471 59
 716 000e D18D     		or	a1,a1,a2
 717              	.LVL49:
 718              		.loc 1 471 32
 719 0010 DD8D     		or	a1,a1,a5
 720 0012 2CC5     		sw	a1,72(a0)
 472:C:/Users/stapi/OneDrive/Desktop/GD32VW553/GD32VW55X_Wifi_BLE_SDK/GD32VW55x_RELEASE_V1.0.2/MSDK/plf/GD32VW55x_standard_peripheral/Source\gd32vw55x_timer.c **** }
 721              		.loc 1 472 1
 722 0014 8280     		ret
 723              		.cfi_endproc
 724              	.LFE388:
 726              		.section	.text.timer_event_software_generate,"ax",@progbits
 727              		.align	1
 728              		.globl	timer_event_software_generate
 730              	timer_event_software_generate:
 731              	.LFB389:
 473:C:/Users/stapi/OneDrive/Desktop/GD32VW553/GD32VW55X_Wifi_BLE_SDK/GD32VW55x_RELEASE_V1.0.2/MSDK/plf/GD32VW55x_standard_peripheral/Source\gd32vw55x_timer.c **** 
 474:C:/Users/stapi/OneDrive/Desktop/GD32VW553/GD32VW55X_Wifi_BLE_SDK/GD32VW55x_RELEASE_V1.0.2/MSDK/plf/GD32VW55x_standard_peripheral/Source\gd32vw55x_timer.c **** /*!
 475:C:/Users/stapi/OneDrive/Desktop/GD32VW553/GD32VW55X_Wifi_BLE_SDK/GD32VW55x_RELEASE_V1.0.2/MSDK/plf/GD32VW55x_standard_peripheral/Source\gd32vw55x_timer.c ****     \brief      software generate events
 476:C:/Users/stapi/OneDrive/Desktop/GD32VW553/GD32VW55X_Wifi_BLE_SDK/GD32VW55x_RELEASE_V1.0.2/MSDK/plf/GD32VW55x_standard_peripheral/Source\gd32vw55x_timer.c ****     \param[in]  timer_periph: please refer to the following parameters
 477:C:/Users/stapi/OneDrive/Desktop/GD32VW553/GD32VW55X_Wifi_BLE_SDK/GD32VW55x_RELEASE_V1.0.2/MSDK/plf/GD32VW55x_standard_peripheral/Source\gd32vw55x_timer.c ****     \param[in]  event: the timer software event generation sources
 478:C:/Users/stapi/OneDrive/Desktop/GD32VW553/GD32VW55X_Wifi_BLE_SDK/GD32VW55x_RELEASE_V1.0.2/MSDK/plf/GD32VW55x_standard_peripheral/Source\gd32vw55x_timer.c ****                 one or more parameters can be selected which are shown as below:
 479:C:/Users/stapi/OneDrive/Desktop/GD32VW553/GD32VW55X_Wifi_BLE_SDK/GD32VW55x_RELEASE_V1.0.2/MSDK/plf/GD32VW55x_standard_peripheral/Source\gd32vw55x_timer.c ****       \arg        TIMER_EVENT_SRC_UPG: update event,TIMERx(x=0,1,2,5,15,16)
 480:C:/Users/stapi/OneDrive/Desktop/GD32VW553/GD32VW55X_Wifi_BLE_SDK/GD32VW55x_RELEASE_V1.0.2/MSDK/plf/GD32VW55x_standard_peripheral/Source\gd32vw55x_timer.c ****       \arg        TIMER_EVENT_SRC_CH0G: channel 0 capture or compare event generation,TIMERx(x=0,1,
 481:C:/Users/stapi/OneDrive/Desktop/GD32VW553/GD32VW55X_Wifi_BLE_SDK/GD32VW55x_RELEASE_V1.0.2/MSDK/plf/GD32VW55x_standard_peripheral/Source\gd32vw55x_timer.c ****       \arg        TIMER_EVENT_SRC_CH1G: channel 1 capture or compare event generation,TIMERx(x=0,1,
 482:C:/Users/stapi/OneDrive/Desktop/GD32VW553/GD32VW55X_Wifi_BLE_SDK/GD32VW55x_RELEASE_V1.0.2/MSDK/plf/GD32VW55x_standard_peripheral/Source\gd32vw55x_timer.c ****       \arg        TIMER_EVENT_SRC_CH2G: channel 2 capture or compare event generation,TIMERx(x=0,1,
 483:C:/Users/stapi/OneDrive/Desktop/GD32VW553/GD32VW55X_Wifi_BLE_SDK/GD32VW55x_RELEASE_V1.0.2/MSDK/plf/GD32VW55x_standard_peripheral/Source\gd32vw55x_timer.c ****       \arg        TIMER_EVENT_SRC_CH3G: channel 3 capture or compare event generation,TIMERx(x=0,1,
 484:C:/Users/stapi/OneDrive/Desktop/GD32VW553/GD32VW55X_Wifi_BLE_SDK/GD32VW55x_RELEASE_V1.0.2/MSDK/plf/GD32VW55x_standard_peripheral/Source\gd32vw55x_timer.c ****       \arg        TIMER_EVENT_SRC_CMTG: channel commutation event generation,TIMERx(x=0,15,16)
 485:C:/Users/stapi/OneDrive/Desktop/GD32VW553/GD32VW55X_Wifi_BLE_SDK/GD32VW55x_RELEASE_V1.0.2/MSDK/plf/GD32VW55x_standard_peripheral/Source\gd32vw55x_timer.c ****       \arg        TIMER_EVENT_SRC_TRGG: trigger event generation,TIMERx(x=0,1,2)
 486:C:/Users/stapi/OneDrive/Desktop/GD32VW553/GD32VW55X_Wifi_BLE_SDK/GD32VW55x_RELEASE_V1.0.2/MSDK/plf/GD32VW55x_standard_peripheral/Source\gd32vw55x_timer.c ****       \arg        TIMER_EVENT_SRC_BRKG:  break event generation,TIMERx(x=0,15,16)
 487:C:/Users/stapi/OneDrive/Desktop/GD32VW553/GD32VW55X_Wifi_BLE_SDK/GD32VW55x_RELEASE_V1.0.2/MSDK/plf/GD32VW55x_standard_peripheral/Source\gd32vw55x_timer.c ****     \param[out] none
 488:C:/Users/stapi/OneDrive/Desktop/GD32VW553/GD32VW55X_Wifi_BLE_SDK/GD32VW55x_RELEASE_V1.0.2/MSDK/plf/GD32VW55x_standard_peripheral/Source\gd32vw55x_timer.c ****     \retval     none
 489:C:/Users/stapi/OneDrive/Desktop/GD32VW553/GD32VW55X_Wifi_BLE_SDK/GD32VW55x_RELEASE_V1.0.2/MSDK/plf/GD32VW55x_standard_peripheral/Source\gd32vw55x_timer.c **** */
 490:C:/Users/stapi/OneDrive/Desktop/GD32VW553/GD32VW55X_Wifi_BLE_SDK/GD32VW55x_RELEASE_V1.0.2/MSDK/plf/GD32VW55x_standard_peripheral/Source\gd32vw55x_timer.c **** void timer_event_software_generate(uint32_t timer_periph, uint16_t event)
 491:C:/Users/stapi/OneDrive/Desktop/GD32VW553/GD32VW55X_Wifi_BLE_SDK/GD32VW55x_RELEASE_V1.0.2/MSDK/plf/GD32VW55x_standard_peripheral/Source\gd32vw55x_timer.c **** {
 732              		.loc 1 491 1 is_stmt 1
 733              		.cfi_startproc
 734              	.LVL50:
 492:C:/Users/stapi/OneDrive/Desktop/GD32VW553/GD32VW55X_Wifi_BLE_SDK/GD32VW55x_RELEASE_V1.0.2/MSDK/plf/GD32VW55x_standard_peripheral/Source\gd32vw55x_timer.c ****     TIMER_SWEVG(timer_periph) |= (uint32_t)event;
 735              		.loc 1 492 5
 736              		.loc 1 492 31 is_stmt 0
 737 0000 5C49     		lw	a5,20(a0)
 738 0002 DD8D     		or	a1,a1,a5
 739              	.LVL51:
 740 0004 4CC9     		sw	a1,20(a0)
 493:C:/Users/stapi/OneDrive/Desktop/GD32VW553/GD32VW55X_Wifi_BLE_SDK/GD32VW55x_RELEASE_V1.0.2/MSDK/plf/GD32VW55x_standard_peripheral/Source\gd32vw55x_timer.c **** }
 741              		.loc 1 493 1
 742 0006 8280     		ret
 743              		.cfi_endproc
 744              	.LFE389:
 746              		.section	.text.timer_break_struct_para_init,"ax",@progbits
 747              		.align	1
 748              		.globl	timer_break_struct_para_init
 750              	timer_break_struct_para_init:
 751              	.LFB390:
 494:C:/Users/stapi/OneDrive/Desktop/GD32VW553/GD32VW55X_Wifi_BLE_SDK/GD32VW55x_RELEASE_V1.0.2/MSDK/plf/GD32VW55x_standard_peripheral/Source\gd32vw55x_timer.c **** 
 495:C:/Users/stapi/OneDrive/Desktop/GD32VW553/GD32VW55X_Wifi_BLE_SDK/GD32VW55x_RELEASE_V1.0.2/MSDK/plf/GD32VW55x_standard_peripheral/Source\gd32vw55x_timer.c **** /*!
 496:C:/Users/stapi/OneDrive/Desktop/GD32VW553/GD32VW55X_Wifi_BLE_SDK/GD32VW55x_RELEASE_V1.0.2/MSDK/plf/GD32VW55x_standard_peripheral/Source\gd32vw55x_timer.c ****     \brief      initialize TIMER break parameter struct with a default value
 497:C:/Users/stapi/OneDrive/Desktop/GD32VW553/GD32VW55X_Wifi_BLE_SDK/GD32VW55x_RELEASE_V1.0.2/MSDK/plf/GD32VW55x_standard_peripheral/Source\gd32vw55x_timer.c ****     \param[in]  breakpara: TIMER break parameter struct
 498:C:/Users/stapi/OneDrive/Desktop/GD32VW553/GD32VW55X_Wifi_BLE_SDK/GD32VW55x_RELEASE_V1.0.2/MSDK/plf/GD32VW55x_standard_peripheral/Source\gd32vw55x_timer.c ****     \param[out] none
 499:C:/Users/stapi/OneDrive/Desktop/GD32VW553/GD32VW55X_Wifi_BLE_SDK/GD32VW55x_RELEASE_V1.0.2/MSDK/plf/GD32VW55x_standard_peripheral/Source\gd32vw55x_timer.c ****     \retval     none
 500:C:/Users/stapi/OneDrive/Desktop/GD32VW553/GD32VW55X_Wifi_BLE_SDK/GD32VW55x_RELEASE_V1.0.2/MSDK/plf/GD32VW55x_standard_peripheral/Source\gd32vw55x_timer.c **** */
 501:C:/Users/stapi/OneDrive/Desktop/GD32VW553/GD32VW55X_Wifi_BLE_SDK/GD32VW55x_RELEASE_V1.0.2/MSDK/plf/GD32VW55x_standard_peripheral/Source\gd32vw55x_timer.c **** void timer_break_struct_para_init(timer_break_parameter_struct* breakpara)
 502:C:/Users/stapi/OneDrive/Desktop/GD32VW553/GD32VW55X_Wifi_BLE_SDK/GD32VW55x_RELEASE_V1.0.2/MSDK/plf/GD32VW55x_standard_peripheral/Source\gd32vw55x_timer.c **** {
 752              		.loc 1 502 1 is_stmt 1
 753              		.cfi_startproc
 754              	.LVL52:
 503:C:/Users/stapi/OneDrive/Desktop/GD32VW553/GD32VW55X_Wifi_BLE_SDK/GD32VW55x_RELEASE_V1.0.2/MSDK/plf/GD32VW55x_standard_peripheral/Source\gd32vw55x_timer.c ****     /* initialize the break parameter struct member with the default value */
 504:C:/Users/stapi/OneDrive/Desktop/GD32VW553/GD32VW55X_Wifi_BLE_SDK/GD32VW55x_RELEASE_V1.0.2/MSDK/plf/GD32VW55x_standard_peripheral/Source\gd32vw55x_timer.c ****     breakpara->runoffstate     = TIMER_ROS_STATE_DISABLE;
 755              		.loc 1 504 5
 756              		.loc 1 504 32 is_stmt 0
 757 0000 23100500 		sh	zero,0(a0)
 505:C:/Users/stapi/OneDrive/Desktop/GD32VW553/GD32VW55X_Wifi_BLE_SDK/GD32VW55x_RELEASE_V1.0.2/MSDK/plf/GD32VW55x_standard_peripheral/Source\gd32vw55x_timer.c ****     breakpara->ideloffstate    = TIMER_IOS_STATE_DISABLE;
 758              		.loc 1 505 5 is_stmt 1
 506:C:/Users/stapi/OneDrive/Desktop/GD32VW553/GD32VW55X_Wifi_BLE_SDK/GD32VW55x_RELEASE_V1.0.2/MSDK/plf/GD32VW55x_standard_peripheral/Source\gd32vw55x_timer.c ****     breakpara->deadtime        = 0U;
 759              		.loc 1 506 5
 507:C:/Users/stapi/OneDrive/Desktop/GD32VW553/GD32VW55X_Wifi_BLE_SDK/GD32VW55x_RELEASE_V1.0.2/MSDK/plf/GD32VW55x_standard_peripheral/Source\gd32vw55x_timer.c ****     breakpara->breakpolarity   = TIMER_BREAK_POLARITY_LOW;
 760              		.loc 1 507 5
 508:C:/Users/stapi/OneDrive/Desktop/GD32VW553/GD32VW55X_Wifi_BLE_SDK/GD32VW55x_RELEASE_V1.0.2/MSDK/plf/GD32VW55x_standard_peripheral/Source\gd32vw55x_timer.c ****     breakpara->outputautostate = TIMER_OUTAUTO_DISABLE;
 761              		.loc 1 508 5
 509:C:/Users/stapi/OneDrive/Desktop/GD32VW553/GD32VW55X_Wifi_BLE_SDK/GD32VW55x_RELEASE_V1.0.2/MSDK/plf/GD32VW55x_standard_peripheral/Source\gd32vw55x_timer.c ****     breakpara->protectmode     = TIMER_CCHP_PROT_OFF;
 762              		.loc 1 509 5
 510:C:/Users/stapi/OneDrive/Desktop/GD32VW553/GD32VW55X_Wifi_BLE_SDK/GD32VW55x_RELEASE_V1.0.2/MSDK/plf/GD32VW55x_standard_peripheral/Source\gd32vw55x_timer.c ****     breakpara->breakstate      = TIMER_BREAK_DISABLE;
 763              		.loc 1 510 5
 505:C:/Users/stapi/OneDrive/Desktop/GD32VW553/GD32VW55X_Wifi_BLE_SDK/GD32VW55x_RELEASE_V1.0.2/MSDK/plf/GD32VW55x_standard_peripheral/Source\gd32vw55x_timer.c ****     breakpara->deadtime        = 0U;
 764              		.loc 1 505 32 is_stmt 0
 765 0004 23220500 		sw	zero,4(a0)
 506:C:/Users/stapi/OneDrive/Desktop/GD32VW553/GD32VW55X_Wifi_BLE_SDK/GD32VW55x_RELEASE_V1.0.2/MSDK/plf/GD32VW55x_standard_peripheral/Source\gd32vw55x_timer.c ****     breakpara->breakpolarity   = TIMER_BREAK_POLARITY_LOW;
 766              		.loc 1 506 32
 767 0008 23240500 		sw	zero,8(a0)
 508:C:/Users/stapi/OneDrive/Desktop/GD32VW553/GD32VW55X_Wifi_BLE_SDK/GD32VW55x_RELEASE_V1.0.2/MSDK/plf/GD32VW55x_standard_peripheral/Source\gd32vw55x_timer.c ****     breakpara->protectmode     = TIMER_CCHP_PROT_OFF;
 768              		.loc 1 508 32
 769 000c 23260500 		sw	zero,12(a0)
 770              		.loc 1 510 32
 771 0010 23180500 		sh	zero,16(a0)
 511:C:/Users/stapi/OneDrive/Desktop/GD32VW553/GD32VW55X_Wifi_BLE_SDK/GD32VW55x_RELEASE_V1.0.2/MSDK/plf/GD32VW55x_standard_peripheral/Source\gd32vw55x_timer.c **** }
 772              		.loc 1 511 1
 773 0014 8280     		ret
 774              		.cfi_endproc
 775              	.LFE390:
 777              		.section	.text.timer_break_config,"ax",@progbits
 778              		.align	1
 779              		.globl	timer_break_config
 781              	timer_break_config:
 782              	.LFB391:
 512:C:/Users/stapi/OneDrive/Desktop/GD32VW553/GD32VW55X_Wifi_BLE_SDK/GD32VW55x_RELEASE_V1.0.2/MSDK/plf/GD32VW55x_standard_peripheral/Source\gd32vw55x_timer.c **** 
 513:C:/Users/stapi/OneDrive/Desktop/GD32VW553/GD32VW55X_Wifi_BLE_SDK/GD32VW55x_RELEASE_V1.0.2/MSDK/plf/GD32VW55x_standard_peripheral/Source\gd32vw55x_timer.c **** /*!
 514:C:/Users/stapi/OneDrive/Desktop/GD32VW553/GD32VW55X_Wifi_BLE_SDK/GD32VW55x_RELEASE_V1.0.2/MSDK/plf/GD32VW55x_standard_peripheral/Source\gd32vw55x_timer.c ****     \brief      configure TIMER break function
 515:C:/Users/stapi/OneDrive/Desktop/GD32VW553/GD32VW55X_Wifi_BLE_SDK/GD32VW55x_RELEASE_V1.0.2/MSDK/plf/GD32VW55x_standard_peripheral/Source\gd32vw55x_timer.c ****     \param[in]  timer_periph: TIMERx(x=0,15,16)
 516:C:/Users/stapi/OneDrive/Desktop/GD32VW553/GD32VW55X_Wifi_BLE_SDK/GD32VW55x_RELEASE_V1.0.2/MSDK/plf/GD32VW55x_standard_peripheral/Source\gd32vw55x_timer.c ****     \param[in]  breakpara: TIMER break parameter struct
 517:C:/Users/stapi/OneDrive/Desktop/GD32VW553/GD32VW55X_Wifi_BLE_SDK/GD32VW55x_RELEASE_V1.0.2/MSDK/plf/GD32VW55x_standard_peripheral/Source\gd32vw55x_timer.c ****                 runoffstate: TIMER_ROS_STATE_ENABLE,TIMER_ROS_STATE_DISABLE
 518:C:/Users/stapi/OneDrive/Desktop/GD32VW553/GD32VW55X_Wifi_BLE_SDK/GD32VW55x_RELEASE_V1.0.2/MSDK/plf/GD32VW55x_standard_peripheral/Source\gd32vw55x_timer.c ****                 ideloffstate: TIMER_IOS_STATE_ENABLE,TIMER_IOS_STATE_DISABLE
 519:C:/Users/stapi/OneDrive/Desktop/GD32VW553/GD32VW55X_Wifi_BLE_SDK/GD32VW55x_RELEASE_V1.0.2/MSDK/plf/GD32VW55x_standard_peripheral/Source\gd32vw55x_timer.c ****                 deadtime: 0~255
 520:C:/Users/stapi/OneDrive/Desktop/GD32VW553/GD32VW55X_Wifi_BLE_SDK/GD32VW55x_RELEASE_V1.0.2/MSDK/plf/GD32VW55x_standard_peripheral/Source\gd32vw55x_timer.c ****                 breakpolarity: TIMER_BREAK_POLARITY_LOW,TIMER_BREAK_POLARITY_HIGH
 521:C:/Users/stapi/OneDrive/Desktop/GD32VW553/GD32VW55X_Wifi_BLE_SDK/GD32VW55x_RELEASE_V1.0.2/MSDK/plf/GD32VW55x_standard_peripheral/Source\gd32vw55x_timer.c ****                 outputautostate: TIMER_OUTAUTO_ENABLE,TIMER_OUTAUTO_DISABLE
 522:C:/Users/stapi/OneDrive/Desktop/GD32VW553/GD32VW55X_Wifi_BLE_SDK/GD32VW55x_RELEASE_V1.0.2/MSDK/plf/GD32VW55x_standard_peripheral/Source\gd32vw55x_timer.c ****                 protectmode: TIMER_CCHP_PROT_OFF,TIMER_CCHP_PROT_0,TIMER_CCHP_PROT_1,TIMER_CCHP_PRO
 523:C:/Users/stapi/OneDrive/Desktop/GD32VW553/GD32VW55X_Wifi_BLE_SDK/GD32VW55x_RELEASE_V1.0.2/MSDK/plf/GD32VW55x_standard_peripheral/Source\gd32vw55x_timer.c ****                 breakstate: TIMER_BREAK_ENABLE,TIMER_BREAK_DISABLE
 524:C:/Users/stapi/OneDrive/Desktop/GD32VW553/GD32VW55X_Wifi_BLE_SDK/GD32VW55x_RELEASE_V1.0.2/MSDK/plf/GD32VW55x_standard_peripheral/Source\gd32vw55x_timer.c ****     \param[out] none
 525:C:/Users/stapi/OneDrive/Desktop/GD32VW553/GD32VW55X_Wifi_BLE_SDK/GD32VW55x_RELEASE_V1.0.2/MSDK/plf/GD32VW55x_standard_peripheral/Source\gd32vw55x_timer.c ****     \retval     none
 526:C:/Users/stapi/OneDrive/Desktop/GD32VW553/GD32VW55X_Wifi_BLE_SDK/GD32VW55x_RELEASE_V1.0.2/MSDK/plf/GD32VW55x_standard_peripheral/Source\gd32vw55x_timer.c **** */
 527:C:/Users/stapi/OneDrive/Desktop/GD32VW553/GD32VW55X_Wifi_BLE_SDK/GD32VW55x_RELEASE_V1.0.2/MSDK/plf/GD32VW55x_standard_peripheral/Source\gd32vw55x_timer.c **** void timer_break_config(uint32_t timer_periph, timer_break_parameter_struct* breakpara)
 528:C:/Users/stapi/OneDrive/Desktop/GD32VW553/GD32VW55X_Wifi_BLE_SDK/GD32VW55x_RELEASE_V1.0.2/MSDK/plf/GD32VW55x_standard_peripheral/Source\gd32vw55x_timer.c **** {
 783              		.loc 1 528 1 is_stmt 1
 784              		.cfi_startproc
 785              	.LVL53:
 529:C:/Users/stapi/OneDrive/Desktop/GD32VW553/GD32VW55X_Wifi_BLE_SDK/GD32VW55x_RELEASE_V1.0.2/MSDK/plf/GD32VW55x_standard_peripheral/Source\gd32vw55x_timer.c ****     TIMER_CCHP(timer_periph) = (uint32_t)(((uint32_t)(breakpara->runoffstate))|
 786              		.loc 1 529 5
 787              		.loc 1 529 32 is_stmt 0
 788 0000 03D7C500 		lhu	a4,12(a1)
 789 0004 83D7A500 		lhu	a5,10(a1)
 790 0008 83D68500 		lhu	a3,8(a1)
 791 000c D98F     		or	a5,a5,a4
 792 000e D841     		lw	a4,4(a1)
 793 0010 B3C70708 		zext.h	a5,a5
 794 0014 D98F     		or	a5,a5,a4
 530:C:/Users/stapi/OneDrive/Desktop/GD32VW553/GD32VW55X_Wifi_BLE_SDK/GD32VW55x_RELEASE_V1.0.2/MSDK/plf/GD32VW55x_standard_peripheral/Source\gd32vw55x_timer.c ****                                           ((uint32_t)(breakpara->ideloffstate))|
 531:C:/Users/stapi/OneDrive/Desktop/GD32VW553/GD32VW55X_Wifi_BLE_SDK/GD32VW55x_RELEASE_V1.0.2/MSDK/plf/GD32VW55x_standard_peripheral/Source\gd32vw55x_timer.c ****                                           ((uint32_t)(breakpara->deadtime))|
 532:C:/Users/stapi/OneDrive/Desktop/GD32VW553/GD32VW55X_Wifi_BLE_SDK/GD32VW55x_RELEASE_V1.0.2/MSDK/plf/GD32VW55x_standard_peripheral/Source\gd32vw55x_timer.c ****                                           ((uint32_t)(breakpara->breakpolarity))|
 533:C:/Users/stapi/OneDrive/Desktop/GD32VW553/GD32VW55X_Wifi_BLE_SDK/GD32VW55x_RELEASE_V1.0.2/MSDK/plf/GD32VW55x_standard_peripheral/Source\gd32vw55x_timer.c ****                                           ((uint32_t)(breakpara->outputautostate)) |
 534:C:/Users/stapi/OneDrive/Desktop/GD32VW553/GD32VW55X_Wifi_BLE_SDK/GD32VW55x_RELEASE_V1.0.2/MSDK/plf/GD32VW55x_standard_peripheral/Source\gd32vw55x_timer.c ****                                           ((uint32_t)(breakpara->protectmode))|
 795              		.loc 1 534 44
 796 0016 03D7E500 		lhu	a4,14(a1)
 529:C:/Users/stapi/OneDrive/Desktop/GD32VW553/GD32VW55X_Wifi_BLE_SDK/GD32VW55x_RELEASE_V1.0.2/MSDK/plf/GD32VW55x_standard_peripheral/Source\gd32vw55x_timer.c ****     TIMER_CCHP(timer_periph) = (uint32_t)(((uint32_t)(breakpara->runoffstate))|
 797              		.loc 1 529 32
 798 001a D98F     		or	a5,a5,a4
 535:C:/Users/stapi/OneDrive/Desktop/GD32VW553/GD32VW55X_Wifi_BLE_SDK/GD32VW55x_RELEASE_V1.0.2/MSDK/plf/GD32VW55x_standard_peripheral/Source\gd32vw55x_timer.c ****                                           ((uint32_t)(breakpara->breakstate))) ;
 799              		.loc 1 535 44
 800 001c 03D70501 		lhu	a4,16(a1)
 529:C:/Users/stapi/OneDrive/Desktop/GD32VW553/GD32VW55X_Wifi_BLE_SDK/GD32VW55x_RELEASE_V1.0.2/MSDK/plf/GD32VW55x_standard_peripheral/Source\gd32vw55x_timer.c ****     TIMER_CCHP(timer_periph) = (uint32_t)(((uint32_t)(breakpara->runoffstate))|
 801              		.loc 1 529 32
 802 0020 D98F     		or	a5,a5,a4
 803 0022 03D70500 		lhu	a4,0(a1)
 804 0026 558F     		or	a4,a4,a3
 805 0028 33470708 		zext.h	a4,a4
 806 002c D98F     		or	a5,a5,a4
 529:C:/Users/stapi/OneDrive/Desktop/GD32VW553/GD32VW55X_Wifi_BLE_SDK/GD32VW55x_RELEASE_V1.0.2/MSDK/plf/GD32VW55x_standard_peripheral/Source\gd32vw55x_timer.c ****     TIMER_CCHP(timer_periph) = (uint32_t)(((uint32_t)(breakpara->runoffstate))|
 807              		.loc 1 529 30
 808 002e 7CC1     		sw	a5,68(a0)
 536:C:/Users/stapi/OneDrive/Desktop/GD32VW553/GD32VW55X_Wifi_BLE_SDK/GD32VW55x_RELEASE_V1.0.2/MSDK/plf/GD32VW55x_standard_peripheral/Source\gd32vw55x_timer.c **** }
 809              		.loc 1 536 1
 810 0030 8280     		ret
 811              		.cfi_endproc
 812              	.LFE391:
 814              		.section	.text.timer_break_enable,"ax",@progbits
 815              		.align	1
 816              		.globl	timer_break_enable
 818              	timer_break_enable:
 819              	.LFB392:
 537:C:/Users/stapi/OneDrive/Desktop/GD32VW553/GD32VW55X_Wifi_BLE_SDK/GD32VW55x_RELEASE_V1.0.2/MSDK/plf/GD32VW55x_standard_peripheral/Source\gd32vw55x_timer.c **** 
 538:C:/Users/stapi/OneDrive/Desktop/GD32VW553/GD32VW55X_Wifi_BLE_SDK/GD32VW55x_RELEASE_V1.0.2/MSDK/plf/GD32VW55x_standard_peripheral/Source\gd32vw55x_timer.c **** /*!
 539:C:/Users/stapi/OneDrive/Desktop/GD32VW553/GD32VW55X_Wifi_BLE_SDK/GD32VW55x_RELEASE_V1.0.2/MSDK/plf/GD32VW55x_standard_peripheral/Source\gd32vw55x_timer.c ****     \brief      enable TIMER break function
 540:C:/Users/stapi/OneDrive/Desktop/GD32VW553/GD32VW55X_Wifi_BLE_SDK/GD32VW55x_RELEASE_V1.0.2/MSDK/plf/GD32VW55x_standard_peripheral/Source\gd32vw55x_timer.c ****     \param[in]  timer_periph: TIMERx(x=0,15,16)
 541:C:/Users/stapi/OneDrive/Desktop/GD32VW553/GD32VW55X_Wifi_BLE_SDK/GD32VW55x_RELEASE_V1.0.2/MSDK/plf/GD32VW55x_standard_peripheral/Source\gd32vw55x_timer.c ****     \param[out] none
 542:C:/Users/stapi/OneDrive/Desktop/GD32VW553/GD32VW55X_Wifi_BLE_SDK/GD32VW55x_RELEASE_V1.0.2/MSDK/plf/GD32VW55x_standard_peripheral/Source\gd32vw55x_timer.c ****     \retval     none
 543:C:/Users/stapi/OneDrive/Desktop/GD32VW553/GD32VW55X_Wifi_BLE_SDK/GD32VW55x_RELEASE_V1.0.2/MSDK/plf/GD32VW55x_standard_peripheral/Source\gd32vw55x_timer.c **** */
 544:C:/Users/stapi/OneDrive/Desktop/GD32VW553/GD32VW55X_Wifi_BLE_SDK/GD32VW55x_RELEASE_V1.0.2/MSDK/plf/GD32VW55x_standard_peripheral/Source\gd32vw55x_timer.c **** void timer_break_enable(uint32_t timer_periph)
 545:C:/Users/stapi/OneDrive/Desktop/GD32VW553/GD32VW55X_Wifi_BLE_SDK/GD32VW55x_RELEASE_V1.0.2/MSDK/plf/GD32VW55x_standard_peripheral/Source\gd32vw55x_timer.c **** {
 820              		.loc 1 545 1 is_stmt 1
 821              		.cfi_startproc
 822              	.LVL54:
 546:C:/Users/stapi/OneDrive/Desktop/GD32VW553/GD32VW55X_Wifi_BLE_SDK/GD32VW55x_RELEASE_V1.0.2/MSDK/plf/GD32VW55x_standard_peripheral/Source\gd32vw55x_timer.c ****     TIMER_CCHP(timer_periph) |= (uint32_t)TIMER_CCHP_BRKEN;
 823              		.loc 1 546 5
 824              		.loc 1 546 30 is_stmt 0
 825 0000 7C41     		lw	a5,68(a0)
 826 0002 9397C728 		bseti	a5,a5,12
 827 0006 7CC1     		sw	a5,68(a0)
 547:C:/Users/stapi/OneDrive/Desktop/GD32VW553/GD32VW55X_Wifi_BLE_SDK/GD32VW55x_RELEASE_V1.0.2/MSDK/plf/GD32VW55x_standard_peripheral/Source\gd32vw55x_timer.c **** }
 828              		.loc 1 547 1
 829 0008 8280     		ret
 830              		.cfi_endproc
 831              	.LFE392:
 833              		.section	.text.timer_break_disable,"ax",@progbits
 834              		.align	1
 835              		.globl	timer_break_disable
 837              	timer_break_disable:
 838              	.LFB393:
 548:C:/Users/stapi/OneDrive/Desktop/GD32VW553/GD32VW55X_Wifi_BLE_SDK/GD32VW55x_RELEASE_V1.0.2/MSDK/plf/GD32VW55x_standard_peripheral/Source\gd32vw55x_timer.c **** 
 549:C:/Users/stapi/OneDrive/Desktop/GD32VW553/GD32VW55X_Wifi_BLE_SDK/GD32VW55x_RELEASE_V1.0.2/MSDK/plf/GD32VW55x_standard_peripheral/Source\gd32vw55x_timer.c **** /*!
 550:C:/Users/stapi/OneDrive/Desktop/GD32VW553/GD32VW55X_Wifi_BLE_SDK/GD32VW55x_RELEASE_V1.0.2/MSDK/plf/GD32VW55x_standard_peripheral/Source\gd32vw55x_timer.c ****     \brief      disable TIMER break function
 551:C:/Users/stapi/OneDrive/Desktop/GD32VW553/GD32VW55X_Wifi_BLE_SDK/GD32VW55x_RELEASE_V1.0.2/MSDK/plf/GD32VW55x_standard_peripheral/Source\gd32vw55x_timer.c ****     \param[in]  timer_periph: TIMERx(x=0,15,16)
 552:C:/Users/stapi/OneDrive/Desktop/GD32VW553/GD32VW55X_Wifi_BLE_SDK/GD32VW55x_RELEASE_V1.0.2/MSDK/plf/GD32VW55x_standard_peripheral/Source\gd32vw55x_timer.c ****     \param[out] none
 553:C:/Users/stapi/OneDrive/Desktop/GD32VW553/GD32VW55X_Wifi_BLE_SDK/GD32VW55x_RELEASE_V1.0.2/MSDK/plf/GD32VW55x_standard_peripheral/Source\gd32vw55x_timer.c ****     \retval     none
 554:C:/Users/stapi/OneDrive/Desktop/GD32VW553/GD32VW55X_Wifi_BLE_SDK/GD32VW55x_RELEASE_V1.0.2/MSDK/plf/GD32VW55x_standard_peripheral/Source\gd32vw55x_timer.c **** */
 555:C:/Users/stapi/OneDrive/Desktop/GD32VW553/GD32VW55X_Wifi_BLE_SDK/GD32VW55x_RELEASE_V1.0.2/MSDK/plf/GD32VW55x_standard_peripheral/Source\gd32vw55x_timer.c **** void timer_break_disable(uint32_t timer_periph)
 556:C:/Users/stapi/OneDrive/Desktop/GD32VW553/GD32VW55X_Wifi_BLE_SDK/GD32VW55x_RELEASE_V1.0.2/MSDK/plf/GD32VW55x_standard_peripheral/Source\gd32vw55x_timer.c **** {
 839              		.loc 1 556 1 is_stmt 1
 840              		.cfi_startproc
 841              	.LVL55:
 557:C:/Users/stapi/OneDrive/Desktop/GD32VW553/GD32VW55X_Wifi_BLE_SDK/GD32VW55x_RELEASE_V1.0.2/MSDK/plf/GD32VW55x_standard_peripheral/Source\gd32vw55x_timer.c ****     TIMER_CCHP(timer_periph) &= ~(uint32_t)TIMER_CCHP_BRKEN;
 842              		.loc 1 557 5
 843              		.loc 1 557 30 is_stmt 0
 844 0000 7C41     		lw	a5,68(a0)
 845 0002 9397C748 		bclri	a5,a5,12
 846 0006 7CC1     		sw	a5,68(a0)
 558:C:/Users/stapi/OneDrive/Desktop/GD32VW553/GD32VW55X_Wifi_BLE_SDK/GD32VW55x_RELEASE_V1.0.2/MSDK/plf/GD32VW55x_standard_peripheral/Source\gd32vw55x_timer.c **** }
 847              		.loc 1 558 1
 848 0008 8280     		ret
 849              		.cfi_endproc
 850              	.LFE393:
 852              		.section	.text.timer_automatic_output_enable,"ax",@progbits
 853              		.align	1
 854              		.globl	timer_automatic_output_enable
 856              	timer_automatic_output_enable:
 857              	.LFB394:
 559:C:/Users/stapi/OneDrive/Desktop/GD32VW553/GD32VW55X_Wifi_BLE_SDK/GD32VW55x_RELEASE_V1.0.2/MSDK/plf/GD32VW55x_standard_peripheral/Source\gd32vw55x_timer.c **** 
 560:C:/Users/stapi/OneDrive/Desktop/GD32VW553/GD32VW55X_Wifi_BLE_SDK/GD32VW55x_RELEASE_V1.0.2/MSDK/plf/GD32VW55x_standard_peripheral/Source\gd32vw55x_timer.c **** /*!
 561:C:/Users/stapi/OneDrive/Desktop/GD32VW553/GD32VW55X_Wifi_BLE_SDK/GD32VW55x_RELEASE_V1.0.2/MSDK/plf/GD32VW55x_standard_peripheral/Source\gd32vw55x_timer.c ****     \brief      enable TIMER output automatic function
 562:C:/Users/stapi/OneDrive/Desktop/GD32VW553/GD32VW55X_Wifi_BLE_SDK/GD32VW55x_RELEASE_V1.0.2/MSDK/plf/GD32VW55x_standard_peripheral/Source\gd32vw55x_timer.c ****     \param[in]  timer_periph: TIMERx(x=0,15,16)
 563:C:/Users/stapi/OneDrive/Desktop/GD32VW553/GD32VW55X_Wifi_BLE_SDK/GD32VW55x_RELEASE_V1.0.2/MSDK/plf/GD32VW55x_standard_peripheral/Source\gd32vw55x_timer.c ****     \param[out] none
 564:C:/Users/stapi/OneDrive/Desktop/GD32VW553/GD32VW55X_Wifi_BLE_SDK/GD32VW55x_RELEASE_V1.0.2/MSDK/plf/GD32VW55x_standard_peripheral/Source\gd32vw55x_timer.c ****     \retval     none
 565:C:/Users/stapi/OneDrive/Desktop/GD32VW553/GD32VW55X_Wifi_BLE_SDK/GD32VW55x_RELEASE_V1.0.2/MSDK/plf/GD32VW55x_standard_peripheral/Source\gd32vw55x_timer.c **** */
 566:C:/Users/stapi/OneDrive/Desktop/GD32VW553/GD32VW55X_Wifi_BLE_SDK/GD32VW55x_RELEASE_V1.0.2/MSDK/plf/GD32VW55x_standard_peripheral/Source\gd32vw55x_timer.c **** void timer_automatic_output_enable(uint32_t timer_periph)
 567:C:/Users/stapi/OneDrive/Desktop/GD32VW553/GD32VW55X_Wifi_BLE_SDK/GD32VW55x_RELEASE_V1.0.2/MSDK/plf/GD32VW55x_standard_peripheral/Source\gd32vw55x_timer.c **** {
 858              		.loc 1 567 1 is_stmt 1
 859              		.cfi_startproc
 860              	.LVL56:
 568:C:/Users/stapi/OneDrive/Desktop/GD32VW553/GD32VW55X_Wifi_BLE_SDK/GD32VW55x_RELEASE_V1.0.2/MSDK/plf/GD32VW55x_standard_peripheral/Source\gd32vw55x_timer.c ****     TIMER_CCHP(timer_periph) |= (uint32_t)TIMER_CCHP_OAEN;
 861              		.loc 1 568 5
 862              		.loc 1 568 30 is_stmt 0
 863 0000 7C41     		lw	a5,68(a0)
 864 0002 9397E728 		bseti	a5,a5,14
 865 0006 7CC1     		sw	a5,68(a0)
 569:C:/Users/stapi/OneDrive/Desktop/GD32VW553/GD32VW55X_Wifi_BLE_SDK/GD32VW55x_RELEASE_V1.0.2/MSDK/plf/GD32VW55x_standard_peripheral/Source\gd32vw55x_timer.c **** }
 866              		.loc 1 569 1
 867 0008 8280     		ret
 868              		.cfi_endproc
 869              	.LFE394:
 871              		.section	.text.timer_automatic_output_disable,"ax",@progbits
 872              		.align	1
 873              		.globl	timer_automatic_output_disable
 875              	timer_automatic_output_disable:
 876              	.LFB395:
 570:C:/Users/stapi/OneDrive/Desktop/GD32VW553/GD32VW55X_Wifi_BLE_SDK/GD32VW55x_RELEASE_V1.0.2/MSDK/plf/GD32VW55x_standard_peripheral/Source\gd32vw55x_timer.c **** 
 571:C:/Users/stapi/OneDrive/Desktop/GD32VW553/GD32VW55X_Wifi_BLE_SDK/GD32VW55x_RELEASE_V1.0.2/MSDK/plf/GD32VW55x_standard_peripheral/Source\gd32vw55x_timer.c **** /*!
 572:C:/Users/stapi/OneDrive/Desktop/GD32VW553/GD32VW55X_Wifi_BLE_SDK/GD32VW55x_RELEASE_V1.0.2/MSDK/plf/GD32VW55x_standard_peripheral/Source\gd32vw55x_timer.c ****     \brief      disable TIMER output automatic function
 573:C:/Users/stapi/OneDrive/Desktop/GD32VW553/GD32VW55X_Wifi_BLE_SDK/GD32VW55x_RELEASE_V1.0.2/MSDK/plf/GD32VW55x_standard_peripheral/Source\gd32vw55x_timer.c ****     \param[in]  timer_periph: TIMERx(x=0,15,16)
 574:C:/Users/stapi/OneDrive/Desktop/GD32VW553/GD32VW55X_Wifi_BLE_SDK/GD32VW55x_RELEASE_V1.0.2/MSDK/plf/GD32VW55x_standard_peripheral/Source\gd32vw55x_timer.c ****     \param[out] none
 575:C:/Users/stapi/OneDrive/Desktop/GD32VW553/GD32VW55X_Wifi_BLE_SDK/GD32VW55x_RELEASE_V1.0.2/MSDK/plf/GD32VW55x_standard_peripheral/Source\gd32vw55x_timer.c ****     \retval     none
 576:C:/Users/stapi/OneDrive/Desktop/GD32VW553/GD32VW55X_Wifi_BLE_SDK/GD32VW55x_RELEASE_V1.0.2/MSDK/plf/GD32VW55x_standard_peripheral/Source\gd32vw55x_timer.c **** */
 577:C:/Users/stapi/OneDrive/Desktop/GD32VW553/GD32VW55X_Wifi_BLE_SDK/GD32VW55x_RELEASE_V1.0.2/MSDK/plf/GD32VW55x_standard_peripheral/Source\gd32vw55x_timer.c **** void timer_automatic_output_disable(uint32_t timer_periph)
 578:C:/Users/stapi/OneDrive/Desktop/GD32VW553/GD32VW55X_Wifi_BLE_SDK/GD32VW55x_RELEASE_V1.0.2/MSDK/plf/GD32VW55x_standard_peripheral/Source\gd32vw55x_timer.c **** {
 877              		.loc 1 578 1 is_stmt 1
 878              		.cfi_startproc
 879              	.LVL57:
 579:C:/Users/stapi/OneDrive/Desktop/GD32VW553/GD32VW55X_Wifi_BLE_SDK/GD32VW55x_RELEASE_V1.0.2/MSDK/plf/GD32VW55x_standard_peripheral/Source\gd32vw55x_timer.c ****     TIMER_CCHP(timer_periph) &= ~(uint32_t)TIMER_CCHP_OAEN;
 880              		.loc 1 579 5
 881              		.loc 1 579 30 is_stmt 0
 882 0000 7C41     		lw	a5,68(a0)
 883 0002 9397E748 		bclri	a5,a5,14
 884 0006 7CC1     		sw	a5,68(a0)
 580:C:/Users/stapi/OneDrive/Desktop/GD32VW553/GD32VW55X_Wifi_BLE_SDK/GD32VW55x_RELEASE_V1.0.2/MSDK/plf/GD32VW55x_standard_peripheral/Source\gd32vw55x_timer.c **** }
 885              		.loc 1 580 1
 886 0008 8280     		ret
 887              		.cfi_endproc
 888              	.LFE395:
 890              		.section	.text.timer_primary_output_config,"ax",@progbits
 891              		.align	1
 892              		.globl	timer_primary_output_config
 894              	timer_primary_output_config:
 895              	.LFB396:
 581:C:/Users/stapi/OneDrive/Desktop/GD32VW553/GD32VW55X_Wifi_BLE_SDK/GD32VW55x_RELEASE_V1.0.2/MSDK/plf/GD32VW55x_standard_peripheral/Source\gd32vw55x_timer.c **** 
 582:C:/Users/stapi/OneDrive/Desktop/GD32VW553/GD32VW55X_Wifi_BLE_SDK/GD32VW55x_RELEASE_V1.0.2/MSDK/plf/GD32VW55x_standard_peripheral/Source\gd32vw55x_timer.c **** /*!
 583:C:/Users/stapi/OneDrive/Desktop/GD32VW553/GD32VW55X_Wifi_BLE_SDK/GD32VW55x_RELEASE_V1.0.2/MSDK/plf/GD32VW55x_standard_peripheral/Source\gd32vw55x_timer.c ****     \brief      configure TIMER primary output function
 584:C:/Users/stapi/OneDrive/Desktop/GD32VW553/GD32VW55X_Wifi_BLE_SDK/GD32VW55x_RELEASE_V1.0.2/MSDK/plf/GD32VW55x_standard_peripheral/Source\gd32vw55x_timer.c ****     \param[in]  timer_periph: TIMERx(x=0,15,16)
 585:C:/Users/stapi/OneDrive/Desktop/GD32VW553/GD32VW55X_Wifi_BLE_SDK/GD32VW55x_RELEASE_V1.0.2/MSDK/plf/GD32VW55x_standard_peripheral/Source\gd32vw55x_timer.c ****     \param[in]  newvalue: ENABLE or DISABLE
 586:C:/Users/stapi/OneDrive/Desktop/GD32VW553/GD32VW55X_Wifi_BLE_SDK/GD32VW55x_RELEASE_V1.0.2/MSDK/plf/GD32VW55x_standard_peripheral/Source\gd32vw55x_timer.c ****     \param[out] none
 587:C:/Users/stapi/OneDrive/Desktop/GD32VW553/GD32VW55X_Wifi_BLE_SDK/GD32VW55x_RELEASE_V1.0.2/MSDK/plf/GD32VW55x_standard_peripheral/Source\gd32vw55x_timer.c ****     \retval     none
 588:C:/Users/stapi/OneDrive/Desktop/GD32VW553/GD32VW55X_Wifi_BLE_SDK/GD32VW55x_RELEASE_V1.0.2/MSDK/plf/GD32VW55x_standard_peripheral/Source\gd32vw55x_timer.c **** */
 589:C:/Users/stapi/OneDrive/Desktop/GD32VW553/GD32VW55X_Wifi_BLE_SDK/GD32VW55x_RELEASE_V1.0.2/MSDK/plf/GD32VW55x_standard_peripheral/Source\gd32vw55x_timer.c **** void timer_primary_output_config(uint32_t timer_periph, ControlStatus newvalue)
 590:C:/Users/stapi/OneDrive/Desktop/GD32VW553/GD32VW55X_Wifi_BLE_SDK/GD32VW55x_RELEASE_V1.0.2/MSDK/plf/GD32VW55x_standard_peripheral/Source\gd32vw55x_timer.c **** {
 896              		.loc 1 590 1 is_stmt 1
 897              		.cfi_startproc
 898              	.LVL58:
 591:C:/Users/stapi/OneDrive/Desktop/GD32VW553/GD32VW55X_Wifi_BLE_SDK/GD32VW55x_RELEASE_V1.0.2/MSDK/plf/GD32VW55x_standard_peripheral/Source\gd32vw55x_timer.c ****     if(ENABLE == newvalue){
 899              		.loc 1 591 5
 900              		.loc 1 591 7 is_stmt 0
 901 0000 8547     		li	a5,1
 902 0002 6397F500 		bne	a1,a5,.L59
 592:C:/Users/stapi/OneDrive/Desktop/GD32VW553/GD32VW55X_Wifi_BLE_SDK/GD32VW55x_RELEASE_V1.0.2/MSDK/plf/GD32VW55x_standard_peripheral/Source\gd32vw55x_timer.c ****         TIMER_CCHP(timer_periph) |= (uint32_t)TIMER_CCHP_POEN;
 903              		.loc 1 592 9 is_stmt 1
 904              		.loc 1 592 34 is_stmt 0
 905 0006 7C41     		lw	a5,68(a0)
 906 0008 9397F728 		bseti	a5,a5,15
 907              	.L61:
 593:C:/Users/stapi/OneDrive/Desktop/GD32VW553/GD32VW55X_Wifi_BLE_SDK/GD32VW55x_RELEASE_V1.0.2/MSDK/plf/GD32VW55x_standard_peripheral/Source\gd32vw55x_timer.c ****     }else{
 594:C:/Users/stapi/OneDrive/Desktop/GD32VW553/GD32VW55X_Wifi_BLE_SDK/GD32VW55x_RELEASE_V1.0.2/MSDK/plf/GD32VW55x_standard_peripheral/Source\gd32vw55x_timer.c ****         TIMER_CCHP(timer_periph) &= (~(uint32_t)TIMER_CCHP_POEN);
 908              		.loc 1 594 34
 909 000c 7CC1     		sw	a5,68(a0)
 595:C:/Users/stapi/OneDrive/Desktop/GD32VW553/GD32VW55X_Wifi_BLE_SDK/GD32VW55x_RELEASE_V1.0.2/MSDK/plf/GD32VW55x_standard_peripheral/Source\gd32vw55x_timer.c ****     }
 596:C:/Users/stapi/OneDrive/Desktop/GD32VW553/GD32VW55X_Wifi_BLE_SDK/GD32VW55x_RELEASE_V1.0.2/MSDK/plf/GD32VW55x_standard_peripheral/Source\gd32vw55x_timer.c **** }
 910              		.loc 1 596 1
 911 000e 8280     		ret
 912              	.L59:
 594:C:/Users/stapi/OneDrive/Desktop/GD32VW553/GD32VW55X_Wifi_BLE_SDK/GD32VW55x_RELEASE_V1.0.2/MSDK/plf/GD32VW55x_standard_peripheral/Source\gd32vw55x_timer.c ****     }
 913              		.loc 1 594 9 is_stmt 1
 594:C:/Users/stapi/OneDrive/Desktop/GD32VW553/GD32VW55X_Wifi_BLE_SDK/GD32VW55x_RELEASE_V1.0.2/MSDK/plf/GD32VW55x_standard_peripheral/Source\gd32vw55x_timer.c ****     }
 914              		.loc 1 594 34 is_stmt 0
 915 0010 7C41     		lw	a5,68(a0)
 916 0012 9397F748 		bclri	a5,a5,15
 917 0016 DDBF     		j	.L61
 918              		.cfi_endproc
 919              	.LFE396:
 921              		.section	.text.timer_channel_control_shadow_config,"ax",@progbits
 922              		.align	1
 923              		.globl	timer_channel_control_shadow_config
 925              	timer_channel_control_shadow_config:
 926              	.LFB397:
 597:C:/Users/stapi/OneDrive/Desktop/GD32VW553/GD32VW55X_Wifi_BLE_SDK/GD32VW55x_RELEASE_V1.0.2/MSDK/plf/GD32VW55x_standard_peripheral/Source\gd32vw55x_timer.c **** 
 598:C:/Users/stapi/OneDrive/Desktop/GD32VW553/GD32VW55X_Wifi_BLE_SDK/GD32VW55x_RELEASE_V1.0.2/MSDK/plf/GD32VW55x_standard_peripheral/Source\gd32vw55x_timer.c **** /*!
 599:C:/Users/stapi/OneDrive/Desktop/GD32VW553/GD32VW55X_Wifi_BLE_SDK/GD32VW55x_RELEASE_V1.0.2/MSDK/plf/GD32VW55x_standard_peripheral/Source\gd32vw55x_timer.c ****     \brief      enable or disable channel capture/compare control shadow register
 600:C:/Users/stapi/OneDrive/Desktop/GD32VW553/GD32VW55X_Wifi_BLE_SDK/GD32VW55x_RELEASE_V1.0.2/MSDK/plf/GD32VW55x_standard_peripheral/Source\gd32vw55x_timer.c ****     \param[in]  timer_periph: TIMERx(x=0,15,16)
 601:C:/Users/stapi/OneDrive/Desktop/GD32VW553/GD32VW55X_Wifi_BLE_SDK/GD32VW55x_RELEASE_V1.0.2/MSDK/plf/GD32VW55x_standard_peripheral/Source\gd32vw55x_timer.c ****     \param[in]  newvalue: ENABLE or DISABLE
 602:C:/Users/stapi/OneDrive/Desktop/GD32VW553/GD32VW55X_Wifi_BLE_SDK/GD32VW55x_RELEASE_V1.0.2/MSDK/plf/GD32VW55x_standard_peripheral/Source\gd32vw55x_timer.c ****     \param[out] none
 603:C:/Users/stapi/OneDrive/Desktop/GD32VW553/GD32VW55X_Wifi_BLE_SDK/GD32VW55x_RELEASE_V1.0.2/MSDK/plf/GD32VW55x_standard_peripheral/Source\gd32vw55x_timer.c ****     \retval     none
 604:C:/Users/stapi/OneDrive/Desktop/GD32VW553/GD32VW55X_Wifi_BLE_SDK/GD32VW55x_RELEASE_V1.0.2/MSDK/plf/GD32VW55x_standard_peripheral/Source\gd32vw55x_timer.c **** */
 605:C:/Users/stapi/OneDrive/Desktop/GD32VW553/GD32VW55X_Wifi_BLE_SDK/GD32VW55x_RELEASE_V1.0.2/MSDK/plf/GD32VW55x_standard_peripheral/Source\gd32vw55x_timer.c **** void timer_channel_control_shadow_config(uint32_t timer_periph, ControlStatus newvalue)
 606:C:/Users/stapi/OneDrive/Desktop/GD32VW553/GD32VW55X_Wifi_BLE_SDK/GD32VW55x_RELEASE_V1.0.2/MSDK/plf/GD32VW55x_standard_peripheral/Source\gd32vw55x_timer.c **** {
 927              		.loc 1 606 1 is_stmt 1
 928              		.cfi_startproc
 929              	.LVL59:
 607:C:/Users/stapi/OneDrive/Desktop/GD32VW553/GD32VW55X_Wifi_BLE_SDK/GD32VW55x_RELEASE_V1.0.2/MSDK/plf/GD32VW55x_standard_peripheral/Source\gd32vw55x_timer.c ****     if(ENABLE == newvalue){
 930              		.loc 1 607 5
 931              		.loc 1 607 7 is_stmt 0
 932 0000 8547     		li	a5,1
 933 0002 6397F500 		bne	a1,a5,.L63
 608:C:/Users/stapi/OneDrive/Desktop/GD32VW553/GD32VW55X_Wifi_BLE_SDK/GD32VW55x_RELEASE_V1.0.2/MSDK/plf/GD32VW55x_standard_peripheral/Source\gd32vw55x_timer.c ****         TIMER_CTL1(timer_periph) |= (uint32_t)TIMER_CTL1_CCSE;
 934              		.loc 1 608 9 is_stmt 1
 935              		.loc 1 608 34 is_stmt 0
 936 0006 5C41     		lw	a5,4(a0)
 937 0008 93E71700 		ori	a5,a5,1
 938              	.L65:
 609:C:/Users/stapi/OneDrive/Desktop/GD32VW553/GD32VW55X_Wifi_BLE_SDK/GD32VW55x_RELEASE_V1.0.2/MSDK/plf/GD32VW55x_standard_peripheral/Source\gd32vw55x_timer.c ****     }else{
 610:C:/Users/stapi/OneDrive/Desktop/GD32VW553/GD32VW55X_Wifi_BLE_SDK/GD32VW55x_RELEASE_V1.0.2/MSDK/plf/GD32VW55x_standard_peripheral/Source\gd32vw55x_timer.c ****         TIMER_CTL1(timer_periph) &= (~(uint32_t)TIMER_CTL1_CCSE);
 939              		.loc 1 610 34
 940 000c 5CC1     		sw	a5,4(a0)
 611:C:/Users/stapi/OneDrive/Desktop/GD32VW553/GD32VW55X_Wifi_BLE_SDK/GD32VW55x_RELEASE_V1.0.2/MSDK/plf/GD32VW55x_standard_peripheral/Source\gd32vw55x_timer.c ****     }
 612:C:/Users/stapi/OneDrive/Desktop/GD32VW553/GD32VW55X_Wifi_BLE_SDK/GD32VW55x_RELEASE_V1.0.2/MSDK/plf/GD32VW55x_standard_peripheral/Source\gd32vw55x_timer.c **** }
 941              		.loc 1 612 1
 942 000e 8280     		ret
 943              	.L63:
 610:C:/Users/stapi/OneDrive/Desktop/GD32VW553/GD32VW55X_Wifi_BLE_SDK/GD32VW55x_RELEASE_V1.0.2/MSDK/plf/GD32VW55x_standard_peripheral/Source\gd32vw55x_timer.c ****     }
 944              		.loc 1 610 9 is_stmt 1
 610:C:/Users/stapi/OneDrive/Desktop/GD32VW553/GD32VW55X_Wifi_BLE_SDK/GD32VW55x_RELEASE_V1.0.2/MSDK/plf/GD32VW55x_standard_peripheral/Source\gd32vw55x_timer.c ****     }
 945              		.loc 1 610 34 is_stmt 0
 946 0010 5C41     		lw	a5,4(a0)
 947 0012 F99B     		andi	a5,a5,-2
 948 0014 E5BF     		j	.L65
 949              		.cfi_endproc
 950              	.LFE397:
 952              		.section	.text.timer_channel_control_shadow_update_config,"ax",@progbits
 953              		.align	1
 954              		.globl	timer_channel_control_shadow_update_config
 956              	timer_channel_control_shadow_update_config:
 957              	.LFB398:
 613:C:/Users/stapi/OneDrive/Desktop/GD32VW553/GD32VW55X_Wifi_BLE_SDK/GD32VW55x_RELEASE_V1.0.2/MSDK/plf/GD32VW55x_standard_peripheral/Source\gd32vw55x_timer.c **** 
 614:C:/Users/stapi/OneDrive/Desktop/GD32VW553/GD32VW55X_Wifi_BLE_SDK/GD32VW55x_RELEASE_V1.0.2/MSDK/plf/GD32VW55x_standard_peripheral/Source\gd32vw55x_timer.c **** /*!
 615:C:/Users/stapi/OneDrive/Desktop/GD32VW553/GD32VW55X_Wifi_BLE_SDK/GD32VW55x_RELEASE_V1.0.2/MSDK/plf/GD32VW55x_standard_peripheral/Source\gd32vw55x_timer.c ****     \brief      configure TIMER channel control shadow register update control
 616:C:/Users/stapi/OneDrive/Desktop/GD32VW553/GD32VW55X_Wifi_BLE_SDK/GD32VW55x_RELEASE_V1.0.2/MSDK/plf/GD32VW55x_standard_peripheral/Source\gd32vw55x_timer.c ****     \param[in]  timer_periph: TIMERx(x=0,15,16)
 617:C:/Users/stapi/OneDrive/Desktop/GD32VW553/GD32VW55X_Wifi_BLE_SDK/GD32VW55x_RELEASE_V1.0.2/MSDK/plf/GD32VW55x_standard_peripheral/Source\gd32vw55x_timer.c ****     \param[in]  ccuctl: channel control shadow register update control
 618:C:/Users/stapi/OneDrive/Desktop/GD32VW553/GD32VW55X_Wifi_BLE_SDK/GD32VW55x_RELEASE_V1.0.2/MSDK/plf/GD32VW55x_standard_peripheral/Source\gd32vw55x_timer.c ****                 only one parameter can be selected which is shown as below:
 619:C:/Users/stapi/OneDrive/Desktop/GD32VW553/GD32VW55X_Wifi_BLE_SDK/GD32VW55x_RELEASE_V1.0.2/MSDK/plf/GD32VW55x_standard_peripheral/Source\gd32vw55x_timer.c ****       \arg        TIMER_UPDATECTL_CCU: the shadow registers update by when CMTG bit is set
 620:C:/Users/stapi/OneDrive/Desktop/GD32VW553/GD32VW55X_Wifi_BLE_SDK/GD32VW55x_RELEASE_V1.0.2/MSDK/plf/GD32VW55x_standard_peripheral/Source\gd32vw55x_timer.c ****       \arg        TIMER_UPDATECTL_CCUTRI: the shadow registers update by when CMTG bit is set or an
 621:C:/Users/stapi/OneDrive/Desktop/GD32VW553/GD32VW55X_Wifi_BLE_SDK/GD32VW55x_RELEASE_V1.0.2/MSDK/plf/GD32VW55x_standard_peripheral/Source\gd32vw55x_timer.c ****     \param[out] none
 622:C:/Users/stapi/OneDrive/Desktop/GD32VW553/GD32VW55X_Wifi_BLE_SDK/GD32VW55x_RELEASE_V1.0.2/MSDK/plf/GD32VW55x_standard_peripheral/Source\gd32vw55x_timer.c ****     \retval     none
 623:C:/Users/stapi/OneDrive/Desktop/GD32VW553/GD32VW55X_Wifi_BLE_SDK/GD32VW55x_RELEASE_V1.0.2/MSDK/plf/GD32VW55x_standard_peripheral/Source\gd32vw55x_timer.c **** */
 624:C:/Users/stapi/OneDrive/Desktop/GD32VW553/GD32VW55X_Wifi_BLE_SDK/GD32VW55x_RELEASE_V1.0.2/MSDK/plf/GD32VW55x_standard_peripheral/Source\gd32vw55x_timer.c **** void timer_channel_control_shadow_update_config(uint32_t timer_periph, uint32_t ccuctl)
 625:C:/Users/stapi/OneDrive/Desktop/GD32VW553/GD32VW55X_Wifi_BLE_SDK/GD32VW55x_RELEASE_V1.0.2/MSDK/plf/GD32VW55x_standard_peripheral/Source\gd32vw55x_timer.c **** {
 958              		.loc 1 625 1 is_stmt 1
 959              		.cfi_startproc
 960              	.LVL60:
 626:C:/Users/stapi/OneDrive/Desktop/GD32VW553/GD32VW55X_Wifi_BLE_SDK/GD32VW55x_RELEASE_V1.0.2/MSDK/plf/GD32VW55x_standard_peripheral/Source\gd32vw55x_timer.c ****     if(TIMER_UPDATECTL_CCU == ccuctl){
 961              		.loc 1 626 5
 962              		.loc 1 626 7 is_stmt 0
 963 0000 89E5     		bne	a1,zero,.L67
 627:C:/Users/stapi/OneDrive/Desktop/GD32VW553/GD32VW55X_Wifi_BLE_SDK/GD32VW55x_RELEASE_V1.0.2/MSDK/plf/GD32VW55x_standard_peripheral/Source\gd32vw55x_timer.c ****         TIMER_CTL1(timer_periph) &= (~(uint32_t)TIMER_CTL1_CCUC);
 964              		.loc 1 627 9 is_stmt 1
 965              		.loc 1 627 34 is_stmt 0
 966 0002 5C41     		lw	a5,4(a0)
 967 0004 ED9B     		andi	a5,a5,-5
 968              	.L69:
 628:C:/Users/stapi/OneDrive/Desktop/GD32VW553/GD32VW55X_Wifi_BLE_SDK/GD32VW55x_RELEASE_V1.0.2/MSDK/plf/GD32VW55x_standard_peripheral/Source\gd32vw55x_timer.c ****     }else if(TIMER_UPDATECTL_CCUTRI == ccuctl){
 629:C:/Users/stapi/OneDrive/Desktop/GD32VW553/GD32VW55X_Wifi_BLE_SDK/GD32VW55x_RELEASE_V1.0.2/MSDK/plf/GD32VW55x_standard_peripheral/Source\gd32vw55x_timer.c ****         TIMER_CTL1(timer_periph) |= (uint32_t)TIMER_CTL1_CCUC;
 969              		.loc 1 629 34
 970 0006 5CC1     		sw	a5,4(a0)
 630:C:/Users/stapi/OneDrive/Desktop/GD32VW553/GD32VW55X_Wifi_BLE_SDK/GD32VW55x_RELEASE_V1.0.2/MSDK/plf/GD32VW55x_standard_peripheral/Source\gd32vw55x_timer.c ****     }else{
 631:C:/Users/stapi/OneDrive/Desktop/GD32VW553/GD32VW55X_Wifi_BLE_SDK/GD32VW55x_RELEASE_V1.0.2/MSDK/plf/GD32VW55x_standard_peripheral/Source\gd32vw55x_timer.c ****         /* illegal parameters */
 632:C:/Users/stapi/OneDrive/Desktop/GD32VW553/GD32VW55X_Wifi_BLE_SDK/GD32VW55x_RELEASE_V1.0.2/MSDK/plf/GD32VW55x_standard_peripheral/Source\gd32vw55x_timer.c ****     }
 971              		.loc 1 632 5 is_stmt 1
 972              	.L66:
 633:C:/Users/stapi/OneDrive/Desktop/GD32VW553/GD32VW55X_Wifi_BLE_SDK/GD32VW55x_RELEASE_V1.0.2/MSDK/plf/GD32VW55x_standard_peripheral/Source\gd32vw55x_timer.c **** }
 973              		.loc 1 633 1 is_stmt 0
 974 0008 8280     		ret
 975              	.L67:
 628:C:/Users/stapi/OneDrive/Desktop/GD32VW553/GD32VW55X_Wifi_BLE_SDK/GD32VW55x_RELEASE_V1.0.2/MSDK/plf/GD32VW55x_standard_peripheral/Source\gd32vw55x_timer.c ****     }else if(TIMER_UPDATECTL_CCUTRI == ccuctl){
 976              		.loc 1 628 11 is_stmt 1
 628:C:/Users/stapi/OneDrive/Desktop/GD32VW553/GD32VW55X_Wifi_BLE_SDK/GD32VW55x_RELEASE_V1.0.2/MSDK/plf/GD32VW55x_standard_peripheral/Source\gd32vw55x_timer.c ****     }else if(TIMER_UPDATECTL_CCUTRI == ccuctl){
 977              		.loc 1 628 13 is_stmt 0
 978 000a 8547     		li	a5,1
 979 000c E39EF5FE 		bne	a1,a5,.L66
 629:C:/Users/stapi/OneDrive/Desktop/GD32VW553/GD32VW55X_Wifi_BLE_SDK/GD32VW55x_RELEASE_V1.0.2/MSDK/plf/GD32VW55x_standard_peripheral/Source\gd32vw55x_timer.c ****     }else{
 980              		.loc 1 629 9 is_stmt 1
 629:C:/Users/stapi/OneDrive/Desktop/GD32VW553/GD32VW55X_Wifi_BLE_SDK/GD32VW55x_RELEASE_V1.0.2/MSDK/plf/GD32VW55x_standard_peripheral/Source\gd32vw55x_timer.c ****     }else{
 981              		.loc 1 629 34 is_stmt 0
 982 0010 5C41     		lw	a5,4(a0)
 983 0012 93E74700 		ori	a5,a5,4
 984 0016 C5BF     		j	.L69
 985              		.cfi_endproc
 986              	.LFE398:
 988              		.section	.text.timer_channel_output_struct_para_init,"ax",@progbits
 989              		.align	1
 990              		.globl	timer_channel_output_struct_para_init
 992              	timer_channel_output_struct_para_init:
 993              	.LFB399:
 634:C:/Users/stapi/OneDrive/Desktop/GD32VW553/GD32VW55X_Wifi_BLE_SDK/GD32VW55x_RELEASE_V1.0.2/MSDK/plf/GD32VW55x_standard_peripheral/Source\gd32vw55x_timer.c **** 
 635:C:/Users/stapi/OneDrive/Desktop/GD32VW553/GD32VW55X_Wifi_BLE_SDK/GD32VW55x_RELEASE_V1.0.2/MSDK/plf/GD32VW55x_standard_peripheral/Source\gd32vw55x_timer.c **** /*!
 636:C:/Users/stapi/OneDrive/Desktop/GD32VW553/GD32VW55X_Wifi_BLE_SDK/GD32VW55x_RELEASE_V1.0.2/MSDK/plf/GD32VW55x_standard_peripheral/Source\gd32vw55x_timer.c ****     \brief      initialize TIMER channel output parameter struct with a default value
 637:C:/Users/stapi/OneDrive/Desktop/GD32VW553/GD32VW55X_Wifi_BLE_SDK/GD32VW55x_RELEASE_V1.0.2/MSDK/plf/GD32VW55x_standard_peripheral/Source\gd32vw55x_timer.c ****     \param[in]  ocpara: TIMER channel n output parameter struct
 638:C:/Users/stapi/OneDrive/Desktop/GD32VW553/GD32VW55X_Wifi_BLE_SDK/GD32VW55x_RELEASE_V1.0.2/MSDK/plf/GD32VW55x_standard_peripheral/Source\gd32vw55x_timer.c ****     \param[out] none
 639:C:/Users/stapi/OneDrive/Desktop/GD32VW553/GD32VW55X_Wifi_BLE_SDK/GD32VW55x_RELEASE_V1.0.2/MSDK/plf/GD32VW55x_standard_peripheral/Source\gd32vw55x_timer.c ****     \retval     none
 640:C:/Users/stapi/OneDrive/Desktop/GD32VW553/GD32VW55X_Wifi_BLE_SDK/GD32VW55x_RELEASE_V1.0.2/MSDK/plf/GD32VW55x_standard_peripheral/Source\gd32vw55x_timer.c **** */
 641:C:/Users/stapi/OneDrive/Desktop/GD32VW553/GD32VW55X_Wifi_BLE_SDK/GD32VW55x_RELEASE_V1.0.2/MSDK/plf/GD32VW55x_standard_peripheral/Source\gd32vw55x_timer.c **** void timer_channel_output_struct_para_init(timer_oc_parameter_struct* ocpara)
 642:C:/Users/stapi/OneDrive/Desktop/GD32VW553/GD32VW55X_Wifi_BLE_SDK/GD32VW55x_RELEASE_V1.0.2/MSDK/plf/GD32VW55x_standard_peripheral/Source\gd32vw55x_timer.c **** {
 994              		.loc 1 642 1 is_stmt 1
 995              		.cfi_startproc
 996              	.LVL61:
 643:C:/Users/stapi/OneDrive/Desktop/GD32VW553/GD32VW55X_Wifi_BLE_SDK/GD32VW55x_RELEASE_V1.0.2/MSDK/plf/GD32VW55x_standard_peripheral/Source\gd32vw55x_timer.c ****     /* initialize the channel output parameter struct member with the default value */
 644:C:/Users/stapi/OneDrive/Desktop/GD32VW553/GD32VW55X_Wifi_BLE_SDK/GD32VW55x_RELEASE_V1.0.2/MSDK/plf/GD32VW55x_standard_peripheral/Source\gd32vw55x_timer.c ****     ocpara->outputstate  = TIMER_CCX_DISABLE;
 997              		.loc 1 644 5
 645:C:/Users/stapi/OneDrive/Desktop/GD32VW553/GD32VW55X_Wifi_BLE_SDK/GD32VW55x_RELEASE_V1.0.2/MSDK/plf/GD32VW55x_standard_peripheral/Source\gd32vw55x_timer.c ****     ocpara->outputnstate = TIMER_CCXN_DISABLE;
 998              		.loc 1 645 5
 646:C:/Users/stapi/OneDrive/Desktop/GD32VW553/GD32VW55X_Wifi_BLE_SDK/GD32VW55x_RELEASE_V1.0.2/MSDK/plf/GD32VW55x_standard_peripheral/Source\gd32vw55x_timer.c ****     ocpara->ocpolarity   = TIMER_OC_POLARITY_HIGH;
 999              		.loc 1 646 5
 647:C:/Users/stapi/OneDrive/Desktop/GD32VW553/GD32VW55X_Wifi_BLE_SDK/GD32VW55x_RELEASE_V1.0.2/MSDK/plf/GD32VW55x_standard_peripheral/Source\gd32vw55x_timer.c ****     ocpara->ocnpolarity  = TIMER_OCN_POLARITY_HIGH;
 1000              		.loc 1 647 5
 648:C:/Users/stapi/OneDrive/Desktop/GD32VW553/GD32VW55X_Wifi_BLE_SDK/GD32VW55x_RELEASE_V1.0.2/MSDK/plf/GD32VW55x_standard_peripheral/Source\gd32vw55x_timer.c ****     ocpara->ocidlestate  = TIMER_OC_IDLE_STATE_LOW;
 1001              		.loc 1 648 5
 649:C:/Users/stapi/OneDrive/Desktop/GD32VW553/GD32VW55X_Wifi_BLE_SDK/GD32VW55x_RELEASE_V1.0.2/MSDK/plf/GD32VW55x_standard_peripheral/Source\gd32vw55x_timer.c ****     ocpara->ocnidlestate = TIMER_OCN_IDLE_STATE_LOW;
 1002              		.loc 1 649 5
 644:C:/Users/stapi/OneDrive/Desktop/GD32VW553/GD32VW55X_Wifi_BLE_SDK/GD32VW55x_RELEASE_V1.0.2/MSDK/plf/GD32VW55x_standard_peripheral/Source\gd32vw55x_timer.c ****     ocpara->outputnstate = TIMER_CCXN_DISABLE;
 1003              		.loc 1 644 26 is_stmt 0
 1004 0000 23200500 		sw	zero,0(a0)
 645:C:/Users/stapi/OneDrive/Desktop/GD32VW553/GD32VW55X_Wifi_BLE_SDK/GD32VW55x_RELEASE_V1.0.2/MSDK/plf/GD32VW55x_standard_peripheral/Source\gd32vw55x_timer.c ****     ocpara->ocpolarity   = TIMER_OC_POLARITY_HIGH;
 1005              		.loc 1 645 26
 1006 0004 23220500 		sw	zero,4(a0)
 647:C:/Users/stapi/OneDrive/Desktop/GD32VW553/GD32VW55X_Wifi_BLE_SDK/GD32VW55x_RELEASE_V1.0.2/MSDK/plf/GD32VW55x_standard_peripheral/Source\gd32vw55x_timer.c ****     ocpara->ocidlestate  = TIMER_OC_IDLE_STATE_LOW;
 1007              		.loc 1 647 26
 1008 0008 23240500 		sw	zero,8(a0)
 1009              		.loc 1 649 26
 1010 000c 23160500 		sh	zero,12(a0)
 650:C:/Users/stapi/OneDrive/Desktop/GD32VW553/GD32VW55X_Wifi_BLE_SDK/GD32VW55x_RELEASE_V1.0.2/MSDK/plf/GD32VW55x_standard_peripheral/Source\gd32vw55x_timer.c **** }
 1011              		.loc 1 650 1
 1012 0010 8280     		ret
 1013              		.cfi_endproc
 1014              	.LFE399:
 1016              		.section	.text.timer_channel_output_config,"ax",@progbits
 1017              		.align	1
 1018              		.globl	timer_channel_output_config
 1020              	timer_channel_output_config:
 1021              	.LFB400:
 651:C:/Users/stapi/OneDrive/Desktop/GD32VW553/GD32VW55X_Wifi_BLE_SDK/GD32VW55x_RELEASE_V1.0.2/MSDK/plf/GD32VW55x_standard_peripheral/Source\gd32vw55x_timer.c **** 
 652:C:/Users/stapi/OneDrive/Desktop/GD32VW553/GD32VW55X_Wifi_BLE_SDK/GD32VW55x_RELEASE_V1.0.2/MSDK/plf/GD32VW55x_standard_peripheral/Source\gd32vw55x_timer.c **** /*!
 653:C:/Users/stapi/OneDrive/Desktop/GD32VW553/GD32VW55X_Wifi_BLE_SDK/GD32VW55x_RELEASE_V1.0.2/MSDK/plf/GD32VW55x_standard_peripheral/Source\gd32vw55x_timer.c ****     \brief      configure TIMER channel output function
 654:C:/Users/stapi/OneDrive/Desktop/GD32VW553/GD32VW55X_Wifi_BLE_SDK/GD32VW55x_RELEASE_V1.0.2/MSDK/plf/GD32VW55x_standard_peripheral/Source\gd32vw55x_timer.c ****     \param[in]  timer_periph: please refer to the following parameters
 655:C:/Users/stapi/OneDrive/Desktop/GD32VW553/GD32VW55X_Wifi_BLE_SDK/GD32VW55x_RELEASE_V1.0.2/MSDK/plf/GD32VW55x_standard_peripheral/Source\gd32vw55x_timer.c ****     \param[in]  channel:
 656:C:/Users/stapi/OneDrive/Desktop/GD32VW553/GD32VW55X_Wifi_BLE_SDK/GD32VW55x_RELEASE_V1.0.2/MSDK/plf/GD32VW55x_standard_peripheral/Source\gd32vw55x_timer.c ****                 only one parameter can be selected which is shown as below:
 657:C:/Users/stapi/OneDrive/Desktop/GD32VW553/GD32VW55X_Wifi_BLE_SDK/GD32VW55x_RELEASE_V1.0.2/MSDK/plf/GD32VW55x_standard_peripheral/Source\gd32vw55x_timer.c ****       \arg        TIMER_CH_0: TIMER channel 0(TIMERx(x=0,1,2,15,16))
 658:C:/Users/stapi/OneDrive/Desktop/GD32VW553/GD32VW55X_Wifi_BLE_SDK/GD32VW55x_RELEASE_V1.0.2/MSDK/plf/GD32VW55x_standard_peripheral/Source\gd32vw55x_timer.c ****       \arg        TIMER_CH_1: TIMER channel 1(TIMERx(x=0,1,2))
 659:C:/Users/stapi/OneDrive/Desktop/GD32VW553/GD32VW55X_Wifi_BLE_SDK/GD32VW55x_RELEASE_V1.0.2/MSDK/plf/GD32VW55x_standard_peripheral/Source\gd32vw55x_timer.c ****       \arg        TIMER_CH_2: TIMER channel 2(TIMERx(x=0,1,2))
 660:C:/Users/stapi/OneDrive/Desktop/GD32VW553/GD32VW55X_Wifi_BLE_SDK/GD32VW55x_RELEASE_V1.0.2/MSDK/plf/GD32VW55x_standard_peripheral/Source\gd32vw55x_timer.c ****       \arg        TIMER_CH_3: TIMER channel 3(TIMERx(x=0,1,2))
 661:C:/Users/stapi/OneDrive/Desktop/GD32VW553/GD32VW55X_Wifi_BLE_SDK/GD32VW55x_RELEASE_V1.0.2/MSDK/plf/GD32VW55x_standard_peripheral/Source\gd32vw55x_timer.c ****     \param[in]  ocpara: TIMER channeln output parameter struct
 662:C:/Users/stapi/OneDrive/Desktop/GD32VW553/GD32VW55X_Wifi_BLE_SDK/GD32VW55x_RELEASE_V1.0.2/MSDK/plf/GD32VW55x_standard_peripheral/Source\gd32vw55x_timer.c ****                 outputstate: TIMER_CCX_ENABLE,TIMER_CCX_DISABLE
 663:C:/Users/stapi/OneDrive/Desktop/GD32VW553/GD32VW55X_Wifi_BLE_SDK/GD32VW55x_RELEASE_V1.0.2/MSDK/plf/GD32VW55x_standard_peripheral/Source\gd32vw55x_timer.c ****                 outputnstate: TIMER_CCXN_ENABLE,TIMER_CCXN_DISABLE
 664:C:/Users/stapi/OneDrive/Desktop/GD32VW553/GD32VW55X_Wifi_BLE_SDK/GD32VW55x_RELEASE_V1.0.2/MSDK/plf/GD32VW55x_standard_peripheral/Source\gd32vw55x_timer.c ****                 ocpolarity: TIMER_OC_POLARITY_HIGH,TIMER_OC_POLARITY_LOW
 665:C:/Users/stapi/OneDrive/Desktop/GD32VW553/GD32VW55X_Wifi_BLE_SDK/GD32VW55x_RELEASE_V1.0.2/MSDK/plf/GD32VW55x_standard_peripheral/Source\gd32vw55x_timer.c ****                 ocnpolarity: TIMER_OCN_POLARITY_HIGH,TIMER_OCN_POLARITY_LOW
 666:C:/Users/stapi/OneDrive/Desktop/GD32VW553/GD32VW55X_Wifi_BLE_SDK/GD32VW55x_RELEASE_V1.0.2/MSDK/plf/GD32VW55x_standard_peripheral/Source\gd32vw55x_timer.c ****                 ocidlestate: TIMER_OC_IDLE_STATE_LOW,TIMER_OC_IDLE_STATE_HIGH
 667:C:/Users/stapi/OneDrive/Desktop/GD32VW553/GD32VW55X_Wifi_BLE_SDK/GD32VW55x_RELEASE_V1.0.2/MSDK/plf/GD32VW55x_standard_peripheral/Source\gd32vw55x_timer.c ****                 ocnidlestate: TIMER_OCN_IDLE_STATE_LOW,TIMER_OCN_IDLE_STATE_HIGH
 668:C:/Users/stapi/OneDrive/Desktop/GD32VW553/GD32VW55X_Wifi_BLE_SDK/GD32VW55x_RELEASE_V1.0.2/MSDK/plf/GD32VW55x_standard_peripheral/Source\gd32vw55x_timer.c ****     \param[out] none
 669:C:/Users/stapi/OneDrive/Desktop/GD32VW553/GD32VW55X_Wifi_BLE_SDK/GD32VW55x_RELEASE_V1.0.2/MSDK/plf/GD32VW55x_standard_peripheral/Source\gd32vw55x_timer.c ****     \retval     none
 670:C:/Users/stapi/OneDrive/Desktop/GD32VW553/GD32VW55X_Wifi_BLE_SDK/GD32VW55x_RELEASE_V1.0.2/MSDK/plf/GD32VW55x_standard_peripheral/Source\gd32vw55x_timer.c **** */
 671:C:/Users/stapi/OneDrive/Desktop/GD32VW553/GD32VW55X_Wifi_BLE_SDK/GD32VW55x_RELEASE_V1.0.2/MSDK/plf/GD32VW55x_standard_peripheral/Source\gd32vw55x_timer.c **** void timer_channel_output_config(uint32_t timer_periph, uint16_t channel, timer_oc_parameter_struct
 672:C:/Users/stapi/OneDrive/Desktop/GD32VW553/GD32VW55X_Wifi_BLE_SDK/GD32VW55x_RELEASE_V1.0.2/MSDK/plf/GD32VW55x_standard_peripheral/Source\gd32vw55x_timer.c **** {
 1022              		.loc 1 672 1 is_stmt 1
 1023              		.cfi_startproc
 1024              	.LVL62:
 673:C:/Users/stapi/OneDrive/Desktop/GD32VW553/GD32VW55X_Wifi_BLE_SDK/GD32VW55x_RELEASE_V1.0.2/MSDK/plf/GD32VW55x_standard_peripheral/Source\gd32vw55x_timer.c ****     switch(channel){
 1025              		.loc 1 673 5
 1026 0000 8947     		li	a5,2
 1027 0002 6389F510 		beq	a1,a5,.L72
 1028 0006 63E4B708 		bgtu	a1,a5,.L73
 1029 000a 83576600 		lhu	a5,6(a2)
 1030 000e C1E5     		bne	a1,zero,.L80
 674:C:/Users/stapi/OneDrive/Desktop/GD32VW553/GD32VW55X_Wifi_BLE_SDK/GD32VW55x_RELEASE_V1.0.2/MSDK/plf/GD32VW55x_standard_peripheral/Source\gd32vw55x_timer.c ****     /* configure TIMER_CH_0 */
 675:C:/Users/stapi/OneDrive/Desktop/GD32VW553/GD32VW55X_Wifi_BLE_SDK/GD32VW55x_RELEASE_V1.0.2/MSDK/plf/GD32VW55x_standard_peripheral/Source\gd32vw55x_timer.c ****     case TIMER_CH_0:
 676:C:/Users/stapi/OneDrive/Desktop/GD32VW553/GD32VW55X_Wifi_BLE_SDK/GD32VW55x_RELEASE_V1.0.2/MSDK/plf/GD32VW55x_standard_peripheral/Source\gd32vw55x_timer.c ****         /* reset the CH0EN bit */
 677:C:/Users/stapi/OneDrive/Desktop/GD32VW553/GD32VW55X_Wifi_BLE_SDK/GD32VW55x_RELEASE_V1.0.2/MSDK/plf/GD32VW55x_standard_peripheral/Source\gd32vw55x_timer.c ****         TIMER_CHCTL2(timer_periph) &= (~(uint32_t)TIMER_CHCTL2_CH0EN);
 1031              		.loc 1 677 9
 1032              		.loc 1 677 36 is_stmt 0
 1033 0010 1851     		lw	a4,32(a0)
 1034 0012 799B     		andi	a4,a4,-2
 1035 0014 18D1     		sw	a4,32(a0)
 678:C:/Users/stapi/OneDrive/Desktop/GD32VW553/GD32VW55X_Wifi_BLE_SDK/GD32VW55x_RELEASE_V1.0.2/MSDK/plf/GD32VW55x_standard_peripheral/Source\gd32vw55x_timer.c ****         TIMER_CHCTL0(timer_periph) &= ~(uint32_t)TIMER_CHCTL0_CH0MS;
 1036              		.loc 1 678 9 is_stmt 1
 1037              		.loc 1 678 36 is_stmt 0
 1038 0016 184D     		lw	a4,24(a0)
 1039 0018 719B     		andi	a4,a4,-4
 1040 001a 18CD     		sw	a4,24(a0)
 679:C:/Users/stapi/OneDrive/Desktop/GD32VW553/GD32VW55X_Wifi_BLE_SDK/GD32VW55x_RELEASE_V1.0.2/MSDK/plf/GD32VW55x_standard_peripheral/Source\gd32vw55x_timer.c ****         /* set the CH0EN bit */
 680:C:/Users/stapi/OneDrive/Desktop/GD32VW553/GD32VW55X_Wifi_BLE_SDK/GD32VW55x_RELEASE_V1.0.2/MSDK/plf/GD32VW55x_standard_peripheral/Source\gd32vw55x_timer.c ****         TIMER_CHCTL2(timer_periph) |= (uint32_t)ocpara->outputstate;
 1041              		.loc 1 680 9 is_stmt 1
 1042              		.loc 1 680 36 is_stmt 0
 1043 001c 1851     		lw	a4,32(a0)
 1044 001e 1442     		lw	a3,0(a2)
 1045 0020 558F     		or	a4,a4,a3
 1046 0022 18D1     		sw	a4,32(a0)
 681:C:/Users/stapi/OneDrive/Desktop/GD32VW553/GD32VW55X_Wifi_BLE_SDK/GD32VW55x_RELEASE_V1.0.2/MSDK/plf/GD32VW55x_standard_peripheral/Source\gd32vw55x_timer.c ****         /* reset the CH0P bit */
 682:C:/Users/stapi/OneDrive/Desktop/GD32VW553/GD32VW55X_Wifi_BLE_SDK/GD32VW55x_RELEASE_V1.0.2/MSDK/plf/GD32VW55x_standard_peripheral/Source\gd32vw55x_timer.c ****         TIMER_CHCTL2(timer_periph) &= (~(uint32_t)TIMER_CHCTL2_CH0P);
 1047              		.loc 1 682 9 is_stmt 1
 1048              		.loc 1 682 36 is_stmt 0
 1049 0024 1851     		lw	a4,32(a0)
 1050 0026 759B     		andi	a4,a4,-3
 1051 0028 18D1     		sw	a4,32(a0)
 683:C:/Users/stapi/OneDrive/Desktop/GD32VW553/GD32VW55X_Wifi_BLE_SDK/GD32VW55x_RELEASE_V1.0.2/MSDK/plf/GD32VW55x_standard_peripheral/Source\gd32vw55x_timer.c ****         /* set the CH0P bit */
 684:C:/Users/stapi/OneDrive/Desktop/GD32VW553/GD32VW55X_Wifi_BLE_SDK/GD32VW55x_RELEASE_V1.0.2/MSDK/plf/GD32VW55x_standard_peripheral/Source\gd32vw55x_timer.c ****         TIMER_CHCTL2(timer_periph) |= (uint32_t)ocpara->ocpolarity;
 1052              		.loc 1 684 9 is_stmt 1
 1053              		.loc 1 684 36 is_stmt 0
 1054 002a 1851     		lw	a4,32(a0)
 1055 002c D98F     		or	a5,a5,a4
 1056 002e 1CD1     		sw	a5,32(a0)
 685:C:/Users/stapi/OneDrive/Desktop/GD32VW553/GD32VW55X_Wifi_BLE_SDK/GD32VW55x_RELEASE_V1.0.2/MSDK/plf/GD32VW55x_standard_peripheral/Source\gd32vw55x_timer.c **** 
 686:C:/Users/stapi/OneDrive/Desktop/GD32VW553/GD32VW55X_Wifi_BLE_SDK/GD32VW55x_RELEASE_V1.0.2/MSDK/plf/GD32VW55x_standard_peripheral/Source\gd32vw55x_timer.c ****         if((TIMER0 == timer_periph) || (TIMER15 == timer_periph) || (TIMER16 == timer_periph)){
 1057              		.loc 1 686 9 is_stmt 1
 1058              		.loc 1 686 11 is_stmt 0
 1059 0030 37070140 		li	a4,1073807360
 1060 0034 9317F548 		bclri	a5,a0,15
 1061 0038 6388E700 		beq	a5,a4,.L78
 1062              		.loc 1 686 66 discriminator 2
 1063 003c B7870140 		li	a5,1073840128
 1064 0040 93870740 		addi	a5,a5,1024
 1065 0044 6314F504 		bne	a0,a5,.L71
 1066              	.L78:
 687:C:/Users/stapi/OneDrive/Desktop/GD32VW553/GD32VW55X_Wifi_BLE_SDK/GD32VW55x_RELEASE_V1.0.2/MSDK/plf/GD32VW55x_standard_peripheral/Source\gd32vw55x_timer.c ****             /* reset the CH0NEN bit */
 688:C:/Users/stapi/OneDrive/Desktop/GD32VW553/GD32VW55X_Wifi_BLE_SDK/GD32VW55x_RELEASE_V1.0.2/MSDK/plf/GD32VW55x_standard_peripheral/Source\gd32vw55x_timer.c ****             TIMER_CHCTL2(timer_periph) &= (~(uint32_t)TIMER_CHCTL2_CH0NEN);
 1067              		.loc 1 688 13 is_stmt 1
 1068              		.loc 1 688 40 is_stmt 0
 1069 0048 1C51     		lw	a5,32(a0)
 1070 004a ED9B     		andi	a5,a5,-5
 1071 004c 1CD1     		sw	a5,32(a0)
 689:C:/Users/stapi/OneDrive/Desktop/GD32VW553/GD32VW55X_Wifi_BLE_SDK/GD32VW55x_RELEASE_V1.0.2/MSDK/plf/GD32VW55x_standard_peripheral/Source\gd32vw55x_timer.c ****             /* set the CH0NEN bit */
 690:C:/Users/stapi/OneDrive/Desktop/GD32VW553/GD32VW55X_Wifi_BLE_SDK/GD32VW55x_RELEASE_V1.0.2/MSDK/plf/GD32VW55x_standard_peripheral/Source\gd32vw55x_timer.c ****             TIMER_CHCTL2(timer_periph) |= (uint32_t)ocpara->outputnstate;
 1072              		.loc 1 690 13 is_stmt 1
 1073              		.loc 1 690 40 is_stmt 0
 1074 004e 1851     		lw	a4,32(a0)
 1075              		.loc 1 690 43
 1076 0050 83574600 		lhu	a5,4(a2)
 1077              		.loc 1 690 40
 1078 0054 D98F     		or	a5,a5,a4
 1079 0056 1CD1     		sw	a5,32(a0)
 691:C:/Users/stapi/OneDrive/Desktop/GD32VW553/GD32VW55X_Wifi_BLE_SDK/GD32VW55x_RELEASE_V1.0.2/MSDK/plf/GD32VW55x_standard_peripheral/Source\gd32vw55x_timer.c ****             /* reset the CH0NP bit */
 692:C:/Users/stapi/OneDrive/Desktop/GD32VW553/GD32VW55X_Wifi_BLE_SDK/GD32VW55x_RELEASE_V1.0.2/MSDK/plf/GD32VW55x_standard_peripheral/Source\gd32vw55x_timer.c ****             TIMER_CHCTL2(timer_periph) &= (~(uint32_t)TIMER_CHCTL2_CH0NP);
 1080              		.loc 1 692 13 is_stmt 1
 1081              		.loc 1 692 40 is_stmt 0
 1082 0058 1C51     		lw	a5,32(a0)
 1083 005a DD9B     		andi	a5,a5,-9
 1084 005c 1CD1     		sw	a5,32(a0)
 693:C:/Users/stapi/OneDrive/Desktop/GD32VW553/GD32VW55X_Wifi_BLE_SDK/GD32VW55x_RELEASE_V1.0.2/MSDK/plf/GD32VW55x_standard_peripheral/Source\gd32vw55x_timer.c ****             /* set the CH0NP bit */
 694:C:/Users/stapi/OneDrive/Desktop/GD32VW553/GD32VW55X_Wifi_BLE_SDK/GD32VW55x_RELEASE_V1.0.2/MSDK/plf/GD32VW55x_standard_peripheral/Source\gd32vw55x_timer.c ****             TIMER_CHCTL2(timer_periph) |= (uint32_t)ocpara->ocnpolarity;
 1085              		.loc 1 694 13 is_stmt 1
 1086              		.loc 1 694 40 is_stmt 0
 1087 005e 1851     		lw	a4,32(a0)
 1088              		.loc 1 694 43
 1089 0060 83578600 		lhu	a5,8(a2)
 1090              		.loc 1 694 40
 1091 0064 D98F     		or	a5,a5,a4
 1092 0066 1CD1     		sw	a5,32(a0)
 695:C:/Users/stapi/OneDrive/Desktop/GD32VW553/GD32VW55X_Wifi_BLE_SDK/GD32VW55x_RELEASE_V1.0.2/MSDK/plf/GD32VW55x_standard_peripheral/Source\gd32vw55x_timer.c ****             /* reset the ISO0 bit */
 696:C:/Users/stapi/OneDrive/Desktop/GD32VW553/GD32VW55X_Wifi_BLE_SDK/GD32VW55x_RELEASE_V1.0.2/MSDK/plf/GD32VW55x_standard_peripheral/Source\gd32vw55x_timer.c ****             TIMER_CTL1(timer_periph) &= (~(uint32_t)TIMER_CTL1_ISO0);
 1093              		.loc 1 696 13 is_stmt 1
 1094              		.loc 1 696 38 is_stmt 0
 1095 0068 5C41     		lw	a5,4(a0)
 1096 006a 93F7F7EF 		andi	a5,a5,-257
 1097 006e 5CC1     		sw	a5,4(a0)
 697:C:/Users/stapi/OneDrive/Desktop/GD32VW553/GD32VW55X_Wifi_BLE_SDK/GD32VW55x_RELEASE_V1.0.2/MSDK/plf/GD32VW55x_standard_peripheral/Source\gd32vw55x_timer.c ****             /* set the ISO0 bit */
 698:C:/Users/stapi/OneDrive/Desktop/GD32VW553/GD32VW55X_Wifi_BLE_SDK/GD32VW55x_RELEASE_V1.0.2/MSDK/plf/GD32VW55x_standard_peripheral/Source\gd32vw55x_timer.c ****             TIMER_CTL1(timer_periph) |= (uint32_t)ocpara->ocidlestate;
 1098              		.loc 1 698 13 is_stmt 1
 1099              		.loc 1 698 38 is_stmt 0
 1100 0070 5841     		lw	a4,4(a0)
 1101              		.loc 1 698 41
 1102 0072 8357A600 		lhu	a5,10(a2)
 1103              		.loc 1 698 38
 1104 0076 D98F     		or	a5,a5,a4
 1105 0078 5CC1     		sw	a5,4(a0)
 699:C:/Users/stapi/OneDrive/Desktop/GD32VW553/GD32VW55X_Wifi_BLE_SDK/GD32VW55x_RELEASE_V1.0.2/MSDK/plf/GD32VW55x_standard_peripheral/Source\gd32vw55x_timer.c ****             /* reset the ISO0N bit */
 700:C:/Users/stapi/OneDrive/Desktop/GD32VW553/GD32VW55X_Wifi_BLE_SDK/GD32VW55x_RELEASE_V1.0.2/MSDK/plf/GD32VW55x_standard_peripheral/Source\gd32vw55x_timer.c ****             TIMER_CTL1(timer_periph) &= (~(uint32_t)TIMER_CTL1_ISO0N);
 1106              		.loc 1 700 13 is_stmt 1
 1107              		.loc 1 700 38 is_stmt 0
 1108 007a 5C41     		lw	a5,4(a0)
 1109 007c 93F7F7DF 		andi	a5,a5,-513
 1110 0080 5CC1     		sw	a5,4(a0)
 701:C:/Users/stapi/OneDrive/Desktop/GD32VW553/GD32VW55X_Wifi_BLE_SDK/GD32VW55x_RELEASE_V1.0.2/MSDK/plf/GD32VW55x_standard_peripheral/Source\gd32vw55x_timer.c ****             /* set the ISO0N bit */
 702:C:/Users/stapi/OneDrive/Desktop/GD32VW553/GD32VW55X_Wifi_BLE_SDK/GD32VW55x_RELEASE_V1.0.2/MSDK/plf/GD32VW55x_standard_peripheral/Source\gd32vw55x_timer.c ****             TIMER_CTL1(timer_periph) |= (uint32_t)ocpara->ocnidlestate;
 1111              		.loc 1 702 13 is_stmt 1
 1112              		.loc 1 702 38 is_stmt 0
 1113 0082 5841     		lw	a4,4(a0)
 1114              		.loc 1 702 41
 1115 0084 8357C600 		lhu	a5,12(a2)
 1116              	.L81:
 703:C:/Users/stapi/OneDrive/Desktop/GD32VW553/GD32VW55X_Wifi_BLE_SDK/GD32VW55x_RELEASE_V1.0.2/MSDK/plf/GD32VW55x_standard_peripheral/Source\gd32vw55x_timer.c ****         }
 704:C:/Users/stapi/OneDrive/Desktop/GD32VW553/GD32VW55X_Wifi_BLE_SDK/GD32VW55x_RELEASE_V1.0.2/MSDK/plf/GD32VW55x_standard_peripheral/Source\gd32vw55x_timer.c ****         break;
 705:C:/Users/stapi/OneDrive/Desktop/GD32VW553/GD32VW55X_Wifi_BLE_SDK/GD32VW55x_RELEASE_V1.0.2/MSDK/plf/GD32VW55x_standard_peripheral/Source\gd32vw55x_timer.c ****     /* configure TIMER_CH_1 */
 706:C:/Users/stapi/OneDrive/Desktop/GD32VW553/GD32VW55X_Wifi_BLE_SDK/GD32VW55x_RELEASE_V1.0.2/MSDK/plf/GD32VW55x_standard_peripheral/Source\gd32vw55x_timer.c ****     case TIMER_CH_1:
 707:C:/Users/stapi/OneDrive/Desktop/GD32VW553/GD32VW55X_Wifi_BLE_SDK/GD32VW55x_RELEASE_V1.0.2/MSDK/plf/GD32VW55x_standard_peripheral/Source\gd32vw55x_timer.c ****         /* reset the CH1EN bit */
 708:C:/Users/stapi/OneDrive/Desktop/GD32VW553/GD32VW55X_Wifi_BLE_SDK/GD32VW55x_RELEASE_V1.0.2/MSDK/plf/GD32VW55x_standard_peripheral/Source\gd32vw55x_timer.c ****         TIMER_CHCTL2(timer_periph) &= (~(uint32_t)TIMER_CHCTL2_CH1EN);
 709:C:/Users/stapi/OneDrive/Desktop/GD32VW553/GD32VW55X_Wifi_BLE_SDK/GD32VW55x_RELEASE_V1.0.2/MSDK/plf/GD32VW55x_standard_peripheral/Source\gd32vw55x_timer.c ****         TIMER_CHCTL0(timer_periph) &= ~(uint32_t)TIMER_CHCTL0_CH1MS;
 710:C:/Users/stapi/OneDrive/Desktop/GD32VW553/GD32VW55X_Wifi_BLE_SDK/GD32VW55x_RELEASE_V1.0.2/MSDK/plf/GD32VW55x_standard_peripheral/Source\gd32vw55x_timer.c ****         /* set the CH1EN bit */
 711:C:/Users/stapi/OneDrive/Desktop/GD32VW553/GD32VW55X_Wifi_BLE_SDK/GD32VW55x_RELEASE_V1.0.2/MSDK/plf/GD32VW55x_standard_peripheral/Source\gd32vw55x_timer.c ****         TIMER_CHCTL2(timer_periph) |= (uint32_t)((uint32_t)(ocpara->outputstate) << 4U);
 712:C:/Users/stapi/OneDrive/Desktop/GD32VW553/GD32VW55X_Wifi_BLE_SDK/GD32VW55x_RELEASE_V1.0.2/MSDK/plf/GD32VW55x_standard_peripheral/Source\gd32vw55x_timer.c ****         /* reset the CH1P bit */
 713:C:/Users/stapi/OneDrive/Desktop/GD32VW553/GD32VW55X_Wifi_BLE_SDK/GD32VW55x_RELEASE_V1.0.2/MSDK/plf/GD32VW55x_standard_peripheral/Source\gd32vw55x_timer.c ****         TIMER_CHCTL2(timer_periph) &= (~(uint32_t)TIMER_CHCTL2_CH1P);
 714:C:/Users/stapi/OneDrive/Desktop/GD32VW553/GD32VW55X_Wifi_BLE_SDK/GD32VW55x_RELEASE_V1.0.2/MSDK/plf/GD32VW55x_standard_peripheral/Source\gd32vw55x_timer.c ****         /* set the CH1P bit */
 715:C:/Users/stapi/OneDrive/Desktop/GD32VW553/GD32VW55X_Wifi_BLE_SDK/GD32VW55x_RELEASE_V1.0.2/MSDK/plf/GD32VW55x_standard_peripheral/Source\gd32vw55x_timer.c ****         TIMER_CHCTL2(timer_periph) |= (uint32_t)((uint32_t)(ocpara->ocpolarity) << 4U);
 716:C:/Users/stapi/OneDrive/Desktop/GD32VW553/GD32VW55X_Wifi_BLE_SDK/GD32VW55x_RELEASE_V1.0.2/MSDK/plf/GD32VW55x_standard_peripheral/Source\gd32vw55x_timer.c **** 
 717:C:/Users/stapi/OneDrive/Desktop/GD32VW553/GD32VW55X_Wifi_BLE_SDK/GD32VW55x_RELEASE_V1.0.2/MSDK/plf/GD32VW55x_standard_peripheral/Source\gd32vw55x_timer.c ****         if(TIMER0 == timer_periph){
 718:C:/Users/stapi/OneDrive/Desktop/GD32VW553/GD32VW55X_Wifi_BLE_SDK/GD32VW55x_RELEASE_V1.0.2/MSDK/plf/GD32VW55x_standard_peripheral/Source\gd32vw55x_timer.c ****             /* reset the CH1NEN bit */
 719:C:/Users/stapi/OneDrive/Desktop/GD32VW553/GD32VW55X_Wifi_BLE_SDK/GD32VW55x_RELEASE_V1.0.2/MSDK/plf/GD32VW55x_standard_peripheral/Source\gd32vw55x_timer.c ****             TIMER_CHCTL2(timer_periph) &= (~(uint32_t)TIMER_CHCTL2_CH1NEN);
 720:C:/Users/stapi/OneDrive/Desktop/GD32VW553/GD32VW55X_Wifi_BLE_SDK/GD32VW55x_RELEASE_V1.0.2/MSDK/plf/GD32VW55x_standard_peripheral/Source\gd32vw55x_timer.c ****             /* set the CH1NEN bit */
 721:C:/Users/stapi/OneDrive/Desktop/GD32VW553/GD32VW55X_Wifi_BLE_SDK/GD32VW55x_RELEASE_V1.0.2/MSDK/plf/GD32VW55x_standard_peripheral/Source\gd32vw55x_timer.c ****             TIMER_CHCTL2(timer_periph) |= (uint32_t)((uint32_t)(ocpara->outputnstate) << 4U);
 722:C:/Users/stapi/OneDrive/Desktop/GD32VW553/GD32VW55X_Wifi_BLE_SDK/GD32VW55x_RELEASE_V1.0.2/MSDK/plf/GD32VW55x_standard_peripheral/Source\gd32vw55x_timer.c ****             /* reset the CH1NP bit */
 723:C:/Users/stapi/OneDrive/Desktop/GD32VW553/GD32VW55X_Wifi_BLE_SDK/GD32VW55x_RELEASE_V1.0.2/MSDK/plf/GD32VW55x_standard_peripheral/Source\gd32vw55x_timer.c ****             TIMER_CHCTL2(timer_periph) &= (~(uint32_t)TIMER_CHCTL2_CH1NP);
 724:C:/Users/stapi/OneDrive/Desktop/GD32VW553/GD32VW55X_Wifi_BLE_SDK/GD32VW55x_RELEASE_V1.0.2/MSDK/plf/GD32VW55x_standard_peripheral/Source\gd32vw55x_timer.c ****             /* set the CH1NP bit */
 725:C:/Users/stapi/OneDrive/Desktop/GD32VW553/GD32VW55X_Wifi_BLE_SDK/GD32VW55x_RELEASE_V1.0.2/MSDK/plf/GD32VW55x_standard_peripheral/Source\gd32vw55x_timer.c ****             TIMER_CHCTL2(timer_periph) |= (uint32_t)((uint32_t)(ocpara->ocnpolarity) << 4U);
 726:C:/Users/stapi/OneDrive/Desktop/GD32VW553/GD32VW55X_Wifi_BLE_SDK/GD32VW55x_RELEASE_V1.0.2/MSDK/plf/GD32VW55x_standard_peripheral/Source\gd32vw55x_timer.c ****             /* reset the ISO1 bit */
 727:C:/Users/stapi/OneDrive/Desktop/GD32VW553/GD32VW55X_Wifi_BLE_SDK/GD32VW55x_RELEASE_V1.0.2/MSDK/plf/GD32VW55x_standard_peripheral/Source\gd32vw55x_timer.c ****             TIMER_CTL1(timer_periph) &= (~(uint32_t)TIMER_CTL1_ISO1);
 728:C:/Users/stapi/OneDrive/Desktop/GD32VW553/GD32VW55X_Wifi_BLE_SDK/GD32VW55x_RELEASE_V1.0.2/MSDK/plf/GD32VW55x_standard_peripheral/Source\gd32vw55x_timer.c ****             /* set the ISO1 bit */
 729:C:/Users/stapi/OneDrive/Desktop/GD32VW553/GD32VW55X_Wifi_BLE_SDK/GD32VW55x_RELEASE_V1.0.2/MSDK/plf/GD32VW55x_standard_peripheral/Source\gd32vw55x_timer.c ****             TIMER_CTL1(timer_periph) |= (uint32_t)((uint32_t)(ocpara->ocidlestate) << 2U);
 730:C:/Users/stapi/OneDrive/Desktop/GD32VW553/GD32VW55X_Wifi_BLE_SDK/GD32VW55x_RELEASE_V1.0.2/MSDK/plf/GD32VW55x_standard_peripheral/Source\gd32vw55x_timer.c ****             /* reset the ISO1N bit */
 731:C:/Users/stapi/OneDrive/Desktop/GD32VW553/GD32VW55X_Wifi_BLE_SDK/GD32VW55x_RELEASE_V1.0.2/MSDK/plf/GD32VW55x_standard_peripheral/Source\gd32vw55x_timer.c ****             TIMER_CTL1(timer_periph) &= (~(uint32_t)TIMER_CTL1_ISO1N);
 732:C:/Users/stapi/OneDrive/Desktop/GD32VW553/GD32VW55X_Wifi_BLE_SDK/GD32VW55x_RELEASE_V1.0.2/MSDK/plf/GD32VW55x_standard_peripheral/Source\gd32vw55x_timer.c ****             /* set the ISO1N bit */
 733:C:/Users/stapi/OneDrive/Desktop/GD32VW553/GD32VW55X_Wifi_BLE_SDK/GD32VW55x_RELEASE_V1.0.2/MSDK/plf/GD32VW55x_standard_peripheral/Source\gd32vw55x_timer.c ****             TIMER_CTL1(timer_periph) |= (uint32_t)((uint32_t)(ocpara->ocnidlestate) << 2U);
 734:C:/Users/stapi/OneDrive/Desktop/GD32VW553/GD32VW55X_Wifi_BLE_SDK/GD32VW55x_RELEASE_V1.0.2/MSDK/plf/GD32VW55x_standard_peripheral/Source\gd32vw55x_timer.c ****         }
 735:C:/Users/stapi/OneDrive/Desktop/GD32VW553/GD32VW55X_Wifi_BLE_SDK/GD32VW55x_RELEASE_V1.0.2/MSDK/plf/GD32VW55x_standard_peripheral/Source\gd32vw55x_timer.c ****         break;
 736:C:/Users/stapi/OneDrive/Desktop/GD32VW553/GD32VW55X_Wifi_BLE_SDK/GD32VW55x_RELEASE_V1.0.2/MSDK/plf/GD32VW55x_standard_peripheral/Source\gd32vw55x_timer.c ****     /* configure TIMER_CH_2 */
 737:C:/Users/stapi/OneDrive/Desktop/GD32VW553/GD32VW55X_Wifi_BLE_SDK/GD32VW55x_RELEASE_V1.0.2/MSDK/plf/GD32VW55x_standard_peripheral/Source\gd32vw55x_timer.c ****     case TIMER_CH_2:
 738:C:/Users/stapi/OneDrive/Desktop/GD32VW553/GD32VW55X_Wifi_BLE_SDK/GD32VW55x_RELEASE_V1.0.2/MSDK/plf/GD32VW55x_standard_peripheral/Source\gd32vw55x_timer.c ****         /* reset the CH2EN bit */
 739:C:/Users/stapi/OneDrive/Desktop/GD32VW553/GD32VW55X_Wifi_BLE_SDK/GD32VW55x_RELEASE_V1.0.2/MSDK/plf/GD32VW55x_standard_peripheral/Source\gd32vw55x_timer.c ****         TIMER_CHCTL2(timer_periph) &= (~(uint32_t)TIMER_CHCTL2_CH2EN);
 740:C:/Users/stapi/OneDrive/Desktop/GD32VW553/GD32VW55X_Wifi_BLE_SDK/GD32VW55x_RELEASE_V1.0.2/MSDK/plf/GD32VW55x_standard_peripheral/Source\gd32vw55x_timer.c ****         TIMER_CHCTL1(timer_periph) &= ~(uint32_t)TIMER_CHCTL1_CH2MS;
 741:C:/Users/stapi/OneDrive/Desktop/GD32VW553/GD32VW55X_Wifi_BLE_SDK/GD32VW55x_RELEASE_V1.0.2/MSDK/plf/GD32VW55x_standard_peripheral/Source\gd32vw55x_timer.c ****         /* set the CH2EN bit */
 742:C:/Users/stapi/OneDrive/Desktop/GD32VW553/GD32VW55X_Wifi_BLE_SDK/GD32VW55x_RELEASE_V1.0.2/MSDK/plf/GD32VW55x_standard_peripheral/Source\gd32vw55x_timer.c ****         TIMER_CHCTL2(timer_periph) |= (uint32_t)((uint32_t)(ocpara->outputstate) << 8U);
 743:C:/Users/stapi/OneDrive/Desktop/GD32VW553/GD32VW55X_Wifi_BLE_SDK/GD32VW55x_RELEASE_V1.0.2/MSDK/plf/GD32VW55x_standard_peripheral/Source\gd32vw55x_timer.c ****         /* reset the CH2P bit */
 744:C:/Users/stapi/OneDrive/Desktop/GD32VW553/GD32VW55X_Wifi_BLE_SDK/GD32VW55x_RELEASE_V1.0.2/MSDK/plf/GD32VW55x_standard_peripheral/Source\gd32vw55x_timer.c ****         TIMER_CHCTL2(timer_periph) &= (~(uint32_t)TIMER_CHCTL2_CH2P);
 745:C:/Users/stapi/OneDrive/Desktop/GD32VW553/GD32VW55X_Wifi_BLE_SDK/GD32VW55x_RELEASE_V1.0.2/MSDK/plf/GD32VW55x_standard_peripheral/Source\gd32vw55x_timer.c ****         /* set the CH2P bit */
 746:C:/Users/stapi/OneDrive/Desktop/GD32VW553/GD32VW55X_Wifi_BLE_SDK/GD32VW55x_RELEASE_V1.0.2/MSDK/plf/GD32VW55x_standard_peripheral/Source\gd32vw55x_timer.c ****         TIMER_CHCTL2(timer_periph) |= (uint32_t)((uint32_t)(ocpara->ocpolarity) << 8U);
 747:C:/Users/stapi/OneDrive/Desktop/GD32VW553/GD32VW55X_Wifi_BLE_SDK/GD32VW55x_RELEASE_V1.0.2/MSDK/plf/GD32VW55x_standard_peripheral/Source\gd32vw55x_timer.c **** 
 748:C:/Users/stapi/OneDrive/Desktop/GD32VW553/GD32VW55X_Wifi_BLE_SDK/GD32VW55x_RELEASE_V1.0.2/MSDK/plf/GD32VW55x_standard_peripheral/Source\gd32vw55x_timer.c ****         if(TIMER0 == timer_periph){
 749:C:/Users/stapi/OneDrive/Desktop/GD32VW553/GD32VW55X_Wifi_BLE_SDK/GD32VW55x_RELEASE_V1.0.2/MSDK/plf/GD32VW55x_standard_peripheral/Source\gd32vw55x_timer.c ****             /* reset the CH2NEN bit */
 750:C:/Users/stapi/OneDrive/Desktop/GD32VW553/GD32VW55X_Wifi_BLE_SDK/GD32VW55x_RELEASE_V1.0.2/MSDK/plf/GD32VW55x_standard_peripheral/Source\gd32vw55x_timer.c ****             TIMER_CHCTL2(timer_periph) &= (~(uint32_t)TIMER_CHCTL2_CH2NEN);
 751:C:/Users/stapi/OneDrive/Desktop/GD32VW553/GD32VW55X_Wifi_BLE_SDK/GD32VW55x_RELEASE_V1.0.2/MSDK/plf/GD32VW55x_standard_peripheral/Source\gd32vw55x_timer.c ****             /* set the CH2NEN bit */
 752:C:/Users/stapi/OneDrive/Desktop/GD32VW553/GD32VW55X_Wifi_BLE_SDK/GD32VW55x_RELEASE_V1.0.2/MSDK/plf/GD32VW55x_standard_peripheral/Source\gd32vw55x_timer.c ****             TIMER_CHCTL2(timer_periph) |= (uint32_t)((uint32_t)(ocpara->outputnstate) << 8U);
 753:C:/Users/stapi/OneDrive/Desktop/GD32VW553/GD32VW55X_Wifi_BLE_SDK/GD32VW55x_RELEASE_V1.0.2/MSDK/plf/GD32VW55x_standard_peripheral/Source\gd32vw55x_timer.c ****             /* reset the CH2NP bit */
 754:C:/Users/stapi/OneDrive/Desktop/GD32VW553/GD32VW55X_Wifi_BLE_SDK/GD32VW55x_RELEASE_V1.0.2/MSDK/plf/GD32VW55x_standard_peripheral/Source\gd32vw55x_timer.c ****             TIMER_CHCTL2(timer_periph) &= (~(uint32_t)TIMER_CHCTL2_CH2NP);
 755:C:/Users/stapi/OneDrive/Desktop/GD32VW553/GD32VW55X_Wifi_BLE_SDK/GD32VW55x_RELEASE_V1.0.2/MSDK/plf/GD32VW55x_standard_peripheral/Source\gd32vw55x_timer.c ****             /* set the CH2NP bit */
 756:C:/Users/stapi/OneDrive/Desktop/GD32VW553/GD32VW55X_Wifi_BLE_SDK/GD32VW55x_RELEASE_V1.0.2/MSDK/plf/GD32VW55x_standard_peripheral/Source\gd32vw55x_timer.c ****             TIMER_CHCTL2(timer_periph) |= (uint32_t)((uint32_t)(ocpara->ocnpolarity) << 8U);
 757:C:/Users/stapi/OneDrive/Desktop/GD32VW553/GD32VW55X_Wifi_BLE_SDK/GD32VW55x_RELEASE_V1.0.2/MSDK/plf/GD32VW55x_standard_peripheral/Source\gd32vw55x_timer.c ****             /* reset the ISO2 bit */
 758:C:/Users/stapi/OneDrive/Desktop/GD32VW553/GD32VW55X_Wifi_BLE_SDK/GD32VW55x_RELEASE_V1.0.2/MSDK/plf/GD32VW55x_standard_peripheral/Source\gd32vw55x_timer.c ****             TIMER_CTL1(timer_periph) &= (~(uint32_t)TIMER_CTL1_ISO2);
 759:C:/Users/stapi/OneDrive/Desktop/GD32VW553/GD32VW55X_Wifi_BLE_SDK/GD32VW55x_RELEASE_V1.0.2/MSDK/plf/GD32VW55x_standard_peripheral/Source\gd32vw55x_timer.c ****             /* set the ISO2 bit */
 760:C:/Users/stapi/OneDrive/Desktop/GD32VW553/GD32VW55X_Wifi_BLE_SDK/GD32VW55x_RELEASE_V1.0.2/MSDK/plf/GD32VW55x_standard_peripheral/Source\gd32vw55x_timer.c ****             TIMER_CTL1(timer_periph) |= (uint32_t)((uint32_t)(ocpara->ocidlestate) << 4U);
 761:C:/Users/stapi/OneDrive/Desktop/GD32VW553/GD32VW55X_Wifi_BLE_SDK/GD32VW55x_RELEASE_V1.0.2/MSDK/plf/GD32VW55x_standard_peripheral/Source\gd32vw55x_timer.c ****             /* reset the ISO2N bit */
 762:C:/Users/stapi/OneDrive/Desktop/GD32VW553/GD32VW55X_Wifi_BLE_SDK/GD32VW55x_RELEASE_V1.0.2/MSDK/plf/GD32VW55x_standard_peripheral/Source\gd32vw55x_timer.c ****             TIMER_CTL1(timer_periph) &= (~(uint32_t)TIMER_CTL1_ISO2N);
 763:C:/Users/stapi/OneDrive/Desktop/GD32VW553/GD32VW55X_Wifi_BLE_SDK/GD32VW55x_RELEASE_V1.0.2/MSDK/plf/GD32VW55x_standard_peripheral/Source\gd32vw55x_timer.c ****             /* set the ISO2N bit */
 764:C:/Users/stapi/OneDrive/Desktop/GD32VW553/GD32VW55X_Wifi_BLE_SDK/GD32VW55x_RELEASE_V1.0.2/MSDK/plf/GD32VW55x_standard_peripheral/Source\gd32vw55x_timer.c ****             TIMER_CTL1(timer_periph) |= (uint32_t)((uint32_t)(ocpara->ocnidlestate) << 4U);
 765:C:/Users/stapi/OneDrive/Desktop/GD32VW553/GD32VW55X_Wifi_BLE_SDK/GD32VW55x_RELEASE_V1.0.2/MSDK/plf/GD32VW55x_standard_peripheral/Source\gd32vw55x_timer.c ****         }
 766:C:/Users/stapi/OneDrive/Desktop/GD32VW553/GD32VW55X_Wifi_BLE_SDK/GD32VW55x_RELEASE_V1.0.2/MSDK/plf/GD32VW55x_standard_peripheral/Source\gd32vw55x_timer.c ****         break;
 767:C:/Users/stapi/OneDrive/Desktop/GD32VW553/GD32VW55X_Wifi_BLE_SDK/GD32VW55x_RELEASE_V1.0.2/MSDK/plf/GD32VW55x_standard_peripheral/Source\gd32vw55x_timer.c ****     /* configure TIMER_CH_3 */
 768:C:/Users/stapi/OneDrive/Desktop/GD32VW553/GD32VW55X_Wifi_BLE_SDK/GD32VW55x_RELEASE_V1.0.2/MSDK/plf/GD32VW55x_standard_peripheral/Source\gd32vw55x_timer.c ****     case TIMER_CH_3:
 769:C:/Users/stapi/OneDrive/Desktop/GD32VW553/GD32VW55X_Wifi_BLE_SDK/GD32VW55x_RELEASE_V1.0.2/MSDK/plf/GD32VW55x_standard_peripheral/Source\gd32vw55x_timer.c ****         /* reset the CH3EN bit */
 770:C:/Users/stapi/OneDrive/Desktop/GD32VW553/GD32VW55X_Wifi_BLE_SDK/GD32VW55x_RELEASE_V1.0.2/MSDK/plf/GD32VW55x_standard_peripheral/Source\gd32vw55x_timer.c ****         TIMER_CHCTL2(timer_periph) &=(~(uint32_t)TIMER_CHCTL2_CH3EN);
 771:C:/Users/stapi/OneDrive/Desktop/GD32VW553/GD32VW55X_Wifi_BLE_SDK/GD32VW55x_RELEASE_V1.0.2/MSDK/plf/GD32VW55x_standard_peripheral/Source\gd32vw55x_timer.c ****         TIMER_CHCTL1(timer_periph) &= ~(uint32_t)TIMER_CHCTL1_CH3MS;
 772:C:/Users/stapi/OneDrive/Desktop/GD32VW553/GD32VW55X_Wifi_BLE_SDK/GD32VW55x_RELEASE_V1.0.2/MSDK/plf/GD32VW55x_standard_peripheral/Source\gd32vw55x_timer.c ****         /* set the CH3EN bit */
 773:C:/Users/stapi/OneDrive/Desktop/GD32VW553/GD32VW55X_Wifi_BLE_SDK/GD32VW55x_RELEASE_V1.0.2/MSDK/plf/GD32VW55x_standard_peripheral/Source\gd32vw55x_timer.c ****         TIMER_CHCTL2(timer_periph) |= (uint32_t)((uint32_t)(ocpara->outputstate) << 12U);
 774:C:/Users/stapi/OneDrive/Desktop/GD32VW553/GD32VW55X_Wifi_BLE_SDK/GD32VW55x_RELEASE_V1.0.2/MSDK/plf/GD32VW55x_standard_peripheral/Source\gd32vw55x_timer.c ****         /* reset the CH3P bit */
 775:C:/Users/stapi/OneDrive/Desktop/GD32VW553/GD32VW55X_Wifi_BLE_SDK/GD32VW55x_RELEASE_V1.0.2/MSDK/plf/GD32VW55x_standard_peripheral/Source\gd32vw55x_timer.c ****         TIMER_CHCTL2(timer_periph) &= (~(uint32_t)TIMER_CHCTL2_CH3P);
 776:C:/Users/stapi/OneDrive/Desktop/GD32VW553/GD32VW55X_Wifi_BLE_SDK/GD32VW55x_RELEASE_V1.0.2/MSDK/plf/GD32VW55x_standard_peripheral/Source\gd32vw55x_timer.c ****         /* set the CH3P bit */
 777:C:/Users/stapi/OneDrive/Desktop/GD32VW553/GD32VW55X_Wifi_BLE_SDK/GD32VW55x_RELEASE_V1.0.2/MSDK/plf/GD32VW55x_standard_peripheral/Source\gd32vw55x_timer.c ****         TIMER_CHCTL2(timer_periph) |= (uint32_t)((uint32_t)(ocpara->ocpolarity) << 12U);
 778:C:/Users/stapi/OneDrive/Desktop/GD32VW553/GD32VW55X_Wifi_BLE_SDK/GD32VW55x_RELEASE_V1.0.2/MSDK/plf/GD32VW55x_standard_peripheral/Source\gd32vw55x_timer.c **** 
 779:C:/Users/stapi/OneDrive/Desktop/GD32VW553/GD32VW55X_Wifi_BLE_SDK/GD32VW55x_RELEASE_V1.0.2/MSDK/plf/GD32VW55x_standard_peripheral/Source\gd32vw55x_timer.c ****         if(TIMER0 == timer_periph){
 780:C:/Users/stapi/OneDrive/Desktop/GD32VW553/GD32VW55X_Wifi_BLE_SDK/GD32VW55x_RELEASE_V1.0.2/MSDK/plf/GD32VW55x_standard_peripheral/Source\gd32vw55x_timer.c ****             /* reset the ISO3 bit */
 781:C:/Users/stapi/OneDrive/Desktop/GD32VW553/GD32VW55X_Wifi_BLE_SDK/GD32VW55x_RELEASE_V1.0.2/MSDK/plf/GD32VW55x_standard_peripheral/Source\gd32vw55x_timer.c ****             TIMER_CTL1(timer_periph) &= (~(uint32_t)TIMER_CTL1_ISO3);
 782:C:/Users/stapi/OneDrive/Desktop/GD32VW553/GD32VW55X_Wifi_BLE_SDK/GD32VW55x_RELEASE_V1.0.2/MSDK/plf/GD32VW55x_standard_peripheral/Source\gd32vw55x_timer.c ****             /* set the ISO3 bit */
 783:C:/Users/stapi/OneDrive/Desktop/GD32VW553/GD32VW55X_Wifi_BLE_SDK/GD32VW55x_RELEASE_V1.0.2/MSDK/plf/GD32VW55x_standard_peripheral/Source\gd32vw55x_timer.c ****             TIMER_CTL1(timer_periph) |= (uint32_t)((uint32_t)(ocpara->ocidlestate) << 6U);
 1117              		.loc 1 783 38
 1118 0088 D98F     		or	a5,a5,a4
 1119 008a 5CC1     		sw	a5,4(a0)
 1120              	.L71:
 784:C:/Users/stapi/OneDrive/Desktop/GD32VW553/GD32VW55X_Wifi_BLE_SDK/GD32VW55x_RELEASE_V1.0.2/MSDK/plf/GD32VW55x_standard_peripheral/Source\gd32vw55x_timer.c ****         }
 785:C:/Users/stapi/OneDrive/Desktop/GD32VW553/GD32VW55X_Wifi_BLE_SDK/GD32VW55x_RELEASE_V1.0.2/MSDK/plf/GD32VW55x_standard_peripheral/Source\gd32vw55x_timer.c ****         break;
 786:C:/Users/stapi/OneDrive/Desktop/GD32VW553/GD32VW55X_Wifi_BLE_SDK/GD32VW55x_RELEASE_V1.0.2/MSDK/plf/GD32VW55x_standard_peripheral/Source\gd32vw55x_timer.c ****     default:
 787:C:/Users/stapi/OneDrive/Desktop/GD32VW553/GD32VW55X_Wifi_BLE_SDK/GD32VW55x_RELEASE_V1.0.2/MSDK/plf/GD32VW55x_standard_peripheral/Source\gd32vw55x_timer.c ****         break;
 788:C:/Users/stapi/OneDrive/Desktop/GD32VW553/GD32VW55X_Wifi_BLE_SDK/GD32VW55x_RELEASE_V1.0.2/MSDK/plf/GD32VW55x_standard_peripheral/Source\gd32vw55x_timer.c ****     }
 789:C:/Users/stapi/OneDrive/Desktop/GD32VW553/GD32VW55X_Wifi_BLE_SDK/GD32VW55x_RELEASE_V1.0.2/MSDK/plf/GD32VW55x_standard_peripheral/Source\gd32vw55x_timer.c **** }
 1121              		.loc 1 789 1
 1122 008c 8280     		ret
 1123              	.L73:
 673:C:/Users/stapi/OneDrive/Desktop/GD32VW553/GD32VW55X_Wifi_BLE_SDK/GD32VW55x_RELEASE_V1.0.2/MSDK/plf/GD32VW55x_standard_peripheral/Source\gd32vw55x_timer.c ****     /* configure TIMER_CH_0 */
 1124              		.loc 1 673 5
 1125 008e 8D47     		li	a5,3
 1126 0090 6383F510 		beq	a1,a5,.L76
 1127 0094 8280     		ret
 1128              	.L80:
 708:C:/Users/stapi/OneDrive/Desktop/GD32VW553/GD32VW55X_Wifi_BLE_SDK/GD32VW55x_RELEASE_V1.0.2/MSDK/plf/GD32VW55x_standard_peripheral/Source\gd32vw55x_timer.c ****         TIMER_CHCTL0(timer_periph) &= ~(uint32_t)TIMER_CHCTL0_CH1MS;
 1129              		.loc 1 708 9 is_stmt 1
 708:C:/Users/stapi/OneDrive/Desktop/GD32VW553/GD32VW55X_Wifi_BLE_SDK/GD32VW55x_RELEASE_V1.0.2/MSDK/plf/GD32VW55x_standard_peripheral/Source\gd32vw55x_timer.c ****         TIMER_CHCTL0(timer_periph) &= ~(uint32_t)TIMER_CHCTL0_CH1MS;
 1130              		.loc 1 708 36 is_stmt 0
 1131 0096 1851     		lw	a4,32(a0)
 715:C:/Users/stapi/OneDrive/Desktop/GD32VW553/GD32VW55X_Wifi_BLE_SDK/GD32VW55x_RELEASE_V1.0.2/MSDK/plf/GD32VW55x_standard_peripheral/Source\gd32vw55x_timer.c **** 
 1132              		.loc 1 715 39
 1133 0098 9207     		slli	a5,a5,4
 708:C:/Users/stapi/OneDrive/Desktop/GD32VW553/GD32VW55X_Wifi_BLE_SDK/GD32VW55x_RELEASE_V1.0.2/MSDK/plf/GD32VW55x_standard_peripheral/Source\gd32vw55x_timer.c ****         TIMER_CHCTL0(timer_periph) &= ~(uint32_t)TIMER_CHCTL0_CH1MS;
 1134              		.loc 1 708 36
 1135 009a 3D9B     		andi	a4,a4,-17
 1136 009c 18D1     		sw	a4,32(a0)
 709:C:/Users/stapi/OneDrive/Desktop/GD32VW553/GD32VW55X_Wifi_BLE_SDK/GD32VW55x_RELEASE_V1.0.2/MSDK/plf/GD32VW55x_standard_peripheral/Source\gd32vw55x_timer.c ****         /* set the CH1EN bit */
 1137              		.loc 1 709 9 is_stmt 1
 709:C:/Users/stapi/OneDrive/Desktop/GD32VW553/GD32VW55X_Wifi_BLE_SDK/GD32VW55x_RELEASE_V1.0.2/MSDK/plf/GD32VW55x_standard_peripheral/Source\gd32vw55x_timer.c ****         /* set the CH1EN bit */
 1138              		.loc 1 709 36 is_stmt 0
 1139 009e 184D     		lw	a4,24(a0)
 1140 00a0 1377F7CF 		andi	a4,a4,-769
 1141 00a4 18CD     		sw	a4,24(a0)
 711:C:/Users/stapi/OneDrive/Desktop/GD32VW553/GD32VW55X_Wifi_BLE_SDK/GD32VW55x_RELEASE_V1.0.2/MSDK/plf/GD32VW55x_standard_peripheral/Source\gd32vw55x_timer.c ****         /* reset the CH1P bit */
 1142              		.loc 1 711 9 is_stmt 1
 711:C:/Users/stapi/OneDrive/Desktop/GD32VW553/GD32VW55X_Wifi_BLE_SDK/GD32VW55x_RELEASE_V1.0.2/MSDK/plf/GD32VW55x_standard_peripheral/Source\gd32vw55x_timer.c ****         /* reset the CH1P bit */
 1143              		.loc 1 711 39 is_stmt 0
 1144 00a6 1842     		lw	a4,0(a2)
 711:C:/Users/stapi/OneDrive/Desktop/GD32VW553/GD32VW55X_Wifi_BLE_SDK/GD32VW55x_RELEASE_V1.0.2/MSDK/plf/GD32VW55x_standard_peripheral/Source\gd32vw55x_timer.c ****         /* reset the CH1P bit */
 1145              		.loc 1 711 36
 1146 00a8 1451     		lw	a3,32(a0)
 711:C:/Users/stapi/OneDrive/Desktop/GD32VW553/GD32VW55X_Wifi_BLE_SDK/GD32VW55x_RELEASE_V1.0.2/MSDK/plf/GD32VW55x_standard_peripheral/Source\gd32vw55x_timer.c ****         /* reset the CH1P bit */
 1147              		.loc 1 711 39
 1148 00aa 1207     		slli	a4,a4,4
 711:C:/Users/stapi/OneDrive/Desktop/GD32VW553/GD32VW55X_Wifi_BLE_SDK/GD32VW55x_RELEASE_V1.0.2/MSDK/plf/GD32VW55x_standard_peripheral/Source\gd32vw55x_timer.c ****         /* reset the CH1P bit */
 1149              		.loc 1 711 36
 1150 00ac 558F     		or	a4,a4,a3
 1151 00ae 18D1     		sw	a4,32(a0)
 713:C:/Users/stapi/OneDrive/Desktop/GD32VW553/GD32VW55X_Wifi_BLE_SDK/GD32VW55x_RELEASE_V1.0.2/MSDK/plf/GD32VW55x_standard_peripheral/Source\gd32vw55x_timer.c ****         /* set the CH1P bit */
 1152              		.loc 1 713 9 is_stmt 1
 713:C:/Users/stapi/OneDrive/Desktop/GD32VW553/GD32VW55X_Wifi_BLE_SDK/GD32VW55x_RELEASE_V1.0.2/MSDK/plf/GD32VW55x_standard_peripheral/Source\gd32vw55x_timer.c ****         /* set the CH1P bit */
 1153              		.loc 1 713 36 is_stmt 0
 1154 00b0 1851     		lw	a4,32(a0)
 1155 00b2 1377F7FD 		andi	a4,a4,-33
 1156 00b6 18D1     		sw	a4,32(a0)
 715:C:/Users/stapi/OneDrive/Desktop/GD32VW553/GD32VW55X_Wifi_BLE_SDK/GD32VW55x_RELEASE_V1.0.2/MSDK/plf/GD32VW55x_standard_peripheral/Source\gd32vw55x_timer.c **** 
 1157              		.loc 1 715 9 is_stmt 1
 715:C:/Users/stapi/OneDrive/Desktop/GD32VW553/GD32VW55X_Wifi_BLE_SDK/GD32VW55x_RELEASE_V1.0.2/MSDK/plf/GD32VW55x_standard_peripheral/Source\gd32vw55x_timer.c **** 
 1158              		.loc 1 715 36 is_stmt 0
 1159 00b8 1851     		lw	a4,32(a0)
 1160 00ba D98F     		or	a5,a5,a4
 1161 00bc 1CD1     		sw	a5,32(a0)
 717:C:/Users/stapi/OneDrive/Desktop/GD32VW553/GD32VW55X_Wifi_BLE_SDK/GD32VW55x_RELEASE_V1.0.2/MSDK/plf/GD32VW55x_standard_peripheral/Source\gd32vw55x_timer.c ****             /* reset the CH1NEN bit */
 1162              		.loc 1 717 9 is_stmt 1
 717:C:/Users/stapi/OneDrive/Desktop/GD32VW553/GD32VW55X_Wifi_BLE_SDK/GD32VW55x_RELEASE_V1.0.2/MSDK/plf/GD32VW55x_standard_peripheral/Source\gd32vw55x_timer.c ****             /* reset the CH1NEN bit */
 1163              		.loc 1 717 11 is_stmt 0
 1164 00be B7070140 		li	a5,1073807360
 1165 00c2 E315F5FC 		bne	a0,a5,.L71
 719:C:/Users/stapi/OneDrive/Desktop/GD32VW553/GD32VW55X_Wifi_BLE_SDK/GD32VW55x_RELEASE_V1.0.2/MSDK/plf/GD32VW55x_standard_peripheral/Source\gd32vw55x_timer.c ****             /* set the CH1NEN bit */
 1166              		.loc 1 719 13 is_stmt 1
 719:C:/Users/stapi/OneDrive/Desktop/GD32VW553/GD32VW55X_Wifi_BLE_SDK/GD32VW55x_RELEASE_V1.0.2/MSDK/plf/GD32VW55x_standard_peripheral/Source\gd32vw55x_timer.c ****             /* set the CH1NEN bit */
 1167              		.loc 1 719 40 is_stmt 0
 1168 00c6 1C51     		lw	a5,32(a0)
 1169 00c8 93F7F7FB 		andi	a5,a5,-65
 1170 00cc 1CD1     		sw	a5,32(a0)
 721:C:/Users/stapi/OneDrive/Desktop/GD32VW553/GD32VW55X_Wifi_BLE_SDK/GD32VW55x_RELEASE_V1.0.2/MSDK/plf/GD32VW55x_standard_peripheral/Source\gd32vw55x_timer.c ****             /* reset the CH1NP bit */
 1171              		.loc 1 721 13 is_stmt 1
 721:C:/Users/stapi/OneDrive/Desktop/GD32VW553/GD32VW55X_Wifi_BLE_SDK/GD32VW55x_RELEASE_V1.0.2/MSDK/plf/GD32VW55x_standard_peripheral/Source\gd32vw55x_timer.c ****             /* reset the CH1NP bit */
 1172              		.loc 1 721 54 is_stmt 0
 1173 00ce 83574600 		lhu	a5,4(a2)
 721:C:/Users/stapi/OneDrive/Desktop/GD32VW553/GD32VW55X_Wifi_BLE_SDK/GD32VW55x_RELEASE_V1.0.2/MSDK/plf/GD32VW55x_standard_peripheral/Source\gd32vw55x_timer.c ****             /* reset the CH1NP bit */
 1174              		.loc 1 721 40
 1175 00d2 1851     		lw	a4,32(a0)
 721:C:/Users/stapi/OneDrive/Desktop/GD32VW553/GD32VW55X_Wifi_BLE_SDK/GD32VW55x_RELEASE_V1.0.2/MSDK/plf/GD32VW55x_standard_peripheral/Source\gd32vw55x_timer.c ****             /* reset the CH1NP bit */
 1176              		.loc 1 721 43
 1177 00d4 9207     		slli	a5,a5,4
 721:C:/Users/stapi/OneDrive/Desktop/GD32VW553/GD32VW55X_Wifi_BLE_SDK/GD32VW55x_RELEASE_V1.0.2/MSDK/plf/GD32VW55x_standard_peripheral/Source\gd32vw55x_timer.c ****             /* reset the CH1NP bit */
 1178              		.loc 1 721 40
 1179 00d6 D98F     		or	a5,a5,a4
 1180 00d8 1CD1     		sw	a5,32(a0)
 723:C:/Users/stapi/OneDrive/Desktop/GD32VW553/GD32VW55X_Wifi_BLE_SDK/GD32VW55x_RELEASE_V1.0.2/MSDK/plf/GD32VW55x_standard_peripheral/Source\gd32vw55x_timer.c ****             /* set the CH1NP bit */
 1181              		.loc 1 723 13 is_stmt 1
 723:C:/Users/stapi/OneDrive/Desktop/GD32VW553/GD32VW55X_Wifi_BLE_SDK/GD32VW55x_RELEASE_V1.0.2/MSDK/plf/GD32VW55x_standard_peripheral/Source\gd32vw55x_timer.c ****             /* set the CH1NP bit */
 1182              		.loc 1 723 40 is_stmt 0
 1183 00da 1C51     		lw	a5,32(a0)
 1184 00dc 93F7F7F7 		andi	a5,a5,-129
 1185 00e0 1CD1     		sw	a5,32(a0)
 725:C:/Users/stapi/OneDrive/Desktop/GD32VW553/GD32VW55X_Wifi_BLE_SDK/GD32VW55x_RELEASE_V1.0.2/MSDK/plf/GD32VW55x_standard_peripheral/Source\gd32vw55x_timer.c ****             /* reset the ISO1 bit */
 1186              		.loc 1 725 13 is_stmt 1
 725:C:/Users/stapi/OneDrive/Desktop/GD32VW553/GD32VW55X_Wifi_BLE_SDK/GD32VW55x_RELEASE_V1.0.2/MSDK/plf/GD32VW55x_standard_peripheral/Source\gd32vw55x_timer.c ****             /* reset the ISO1 bit */
 1187              		.loc 1 725 54 is_stmt 0
 1188 00e2 83578600 		lhu	a5,8(a2)
 725:C:/Users/stapi/OneDrive/Desktop/GD32VW553/GD32VW55X_Wifi_BLE_SDK/GD32VW55x_RELEASE_V1.0.2/MSDK/plf/GD32VW55x_standard_peripheral/Source\gd32vw55x_timer.c ****             /* reset the ISO1 bit */
 1189              		.loc 1 725 40
 1190 00e6 1851     		lw	a4,32(a0)
 725:C:/Users/stapi/OneDrive/Desktop/GD32VW553/GD32VW55X_Wifi_BLE_SDK/GD32VW55x_RELEASE_V1.0.2/MSDK/plf/GD32VW55x_standard_peripheral/Source\gd32vw55x_timer.c ****             /* reset the ISO1 bit */
 1191              		.loc 1 725 43
 1192 00e8 9207     		slli	a5,a5,4
 725:C:/Users/stapi/OneDrive/Desktop/GD32VW553/GD32VW55X_Wifi_BLE_SDK/GD32VW55x_RELEASE_V1.0.2/MSDK/plf/GD32VW55x_standard_peripheral/Source\gd32vw55x_timer.c ****             /* reset the ISO1 bit */
 1193              		.loc 1 725 40
 1194 00ea D98F     		or	a5,a5,a4
 1195 00ec 1CD1     		sw	a5,32(a0)
 727:C:/Users/stapi/OneDrive/Desktop/GD32VW553/GD32VW55X_Wifi_BLE_SDK/GD32VW55x_RELEASE_V1.0.2/MSDK/plf/GD32VW55x_standard_peripheral/Source\gd32vw55x_timer.c ****             /* set the ISO1 bit */
 1196              		.loc 1 727 13 is_stmt 1
 727:C:/Users/stapi/OneDrive/Desktop/GD32VW553/GD32VW55X_Wifi_BLE_SDK/GD32VW55x_RELEASE_V1.0.2/MSDK/plf/GD32VW55x_standard_peripheral/Source\gd32vw55x_timer.c ****             /* set the ISO1 bit */
 1197              		.loc 1 727 38 is_stmt 0
 1198 00ee 5C41     		lw	a5,4(a0)
 1199 00f0 93F7F7BF 		andi	a5,a5,-1025
 1200 00f4 5CC1     		sw	a5,4(a0)
 729:C:/Users/stapi/OneDrive/Desktop/GD32VW553/GD32VW55X_Wifi_BLE_SDK/GD32VW55x_RELEASE_V1.0.2/MSDK/plf/GD32VW55x_standard_peripheral/Source\gd32vw55x_timer.c ****             /* reset the ISO1N bit */
 1201              		.loc 1 729 13 is_stmt 1
 729:C:/Users/stapi/OneDrive/Desktop/GD32VW553/GD32VW55X_Wifi_BLE_SDK/GD32VW55x_RELEASE_V1.0.2/MSDK/plf/GD32VW55x_standard_peripheral/Source\gd32vw55x_timer.c ****             /* reset the ISO1N bit */
 1202              		.loc 1 729 52 is_stmt 0
 1203 00f6 8357A600 		lhu	a5,10(a2)
 729:C:/Users/stapi/OneDrive/Desktop/GD32VW553/GD32VW55X_Wifi_BLE_SDK/GD32VW55x_RELEASE_V1.0.2/MSDK/plf/GD32VW55x_standard_peripheral/Source\gd32vw55x_timer.c ****             /* reset the ISO1N bit */
 1204              		.loc 1 729 38
 1205 00fa 5841     		lw	a4,4(a0)
 729:C:/Users/stapi/OneDrive/Desktop/GD32VW553/GD32VW55X_Wifi_BLE_SDK/GD32VW55x_RELEASE_V1.0.2/MSDK/plf/GD32VW55x_standard_peripheral/Source\gd32vw55x_timer.c ****             /* reset the ISO1N bit */
 1206              		.loc 1 729 41
 1207 00fc 8A07     		slli	a5,a5,2
 729:C:/Users/stapi/OneDrive/Desktop/GD32VW553/GD32VW55X_Wifi_BLE_SDK/GD32VW55x_RELEASE_V1.0.2/MSDK/plf/GD32VW55x_standard_peripheral/Source\gd32vw55x_timer.c ****             /* reset the ISO1N bit */
 1208              		.loc 1 729 38
 1209 00fe D98F     		or	a5,a5,a4
 1210 0100 5CC1     		sw	a5,4(a0)
 731:C:/Users/stapi/OneDrive/Desktop/GD32VW553/GD32VW55X_Wifi_BLE_SDK/GD32VW55x_RELEASE_V1.0.2/MSDK/plf/GD32VW55x_standard_peripheral/Source\gd32vw55x_timer.c ****             /* set the ISO1N bit */
 1211              		.loc 1 731 13 is_stmt 1
 731:C:/Users/stapi/OneDrive/Desktop/GD32VW553/GD32VW55X_Wifi_BLE_SDK/GD32VW55x_RELEASE_V1.0.2/MSDK/plf/GD32VW55x_standard_peripheral/Source\gd32vw55x_timer.c ****             /* set the ISO1N bit */
 1212              		.loc 1 731 38 is_stmt 0
 1213 0102 5C41     		lw	a5,4(a0)
 1214 0104 9397B748 		bclri	a5,a5,11
 1215 0108 5CC1     		sw	a5,4(a0)
 733:C:/Users/stapi/OneDrive/Desktop/GD32VW553/GD32VW55X_Wifi_BLE_SDK/GD32VW55x_RELEASE_V1.0.2/MSDK/plf/GD32VW55x_standard_peripheral/Source\gd32vw55x_timer.c ****         }
 1216              		.loc 1 733 13 is_stmt 1
 733:C:/Users/stapi/OneDrive/Desktop/GD32VW553/GD32VW55X_Wifi_BLE_SDK/GD32VW55x_RELEASE_V1.0.2/MSDK/plf/GD32VW55x_standard_peripheral/Source\gd32vw55x_timer.c ****         }
 1217              		.loc 1 733 52 is_stmt 0
 1218 010a 8357C600 		lhu	a5,12(a2)
 733:C:/Users/stapi/OneDrive/Desktop/GD32VW553/GD32VW55X_Wifi_BLE_SDK/GD32VW55x_RELEASE_V1.0.2/MSDK/plf/GD32VW55x_standard_peripheral/Source\gd32vw55x_timer.c ****         }
 1219              		.loc 1 733 38
 1220 010e 5841     		lw	a4,4(a0)
 733:C:/Users/stapi/OneDrive/Desktop/GD32VW553/GD32VW55X_Wifi_BLE_SDK/GD32VW55x_RELEASE_V1.0.2/MSDK/plf/GD32VW55x_standard_peripheral/Source\gd32vw55x_timer.c ****         }
 1221              		.loc 1 733 41
 1222 0110 8A07     		slli	a5,a5,2
 1223 0112 9DBF     		j	.L81
 1224              	.L72:
 739:C:/Users/stapi/OneDrive/Desktop/GD32VW553/GD32VW55X_Wifi_BLE_SDK/GD32VW55x_RELEASE_V1.0.2/MSDK/plf/GD32VW55x_standard_peripheral/Source\gd32vw55x_timer.c ****         TIMER_CHCTL1(timer_periph) &= ~(uint32_t)TIMER_CHCTL1_CH2MS;
 1225              		.loc 1 739 9 is_stmt 1
 739:C:/Users/stapi/OneDrive/Desktop/GD32VW553/GD32VW55X_Wifi_BLE_SDK/GD32VW55x_RELEASE_V1.0.2/MSDK/plf/GD32VW55x_standard_peripheral/Source\gd32vw55x_timer.c ****         TIMER_CHCTL1(timer_periph) &= ~(uint32_t)TIMER_CHCTL1_CH2MS;
 1226              		.loc 1 739 36 is_stmt 0
 1227 0114 1C51     		lw	a5,32(a0)
 1228 0116 93F7F7EF 		andi	a5,a5,-257
 1229 011a 1CD1     		sw	a5,32(a0)
 740:C:/Users/stapi/OneDrive/Desktop/GD32VW553/GD32VW55X_Wifi_BLE_SDK/GD32VW55x_RELEASE_V1.0.2/MSDK/plf/GD32VW55x_standard_peripheral/Source\gd32vw55x_timer.c ****         /* set the CH2EN bit */
 1230              		.loc 1 740 9 is_stmt 1
 740:C:/Users/stapi/OneDrive/Desktop/GD32VW553/GD32VW55X_Wifi_BLE_SDK/GD32VW55x_RELEASE_V1.0.2/MSDK/plf/GD32VW55x_standard_peripheral/Source\gd32vw55x_timer.c ****         /* set the CH2EN bit */
 1231              		.loc 1 740 36 is_stmt 0
 1232 011c 5C4D     		lw	a5,28(a0)
 1233 011e F19B     		andi	a5,a5,-4
 1234 0120 5CCD     		sw	a5,28(a0)
 742:C:/Users/stapi/OneDrive/Desktop/GD32VW553/GD32VW55X_Wifi_BLE_SDK/GD32VW55x_RELEASE_V1.0.2/MSDK/plf/GD32VW55x_standard_peripheral/Source\gd32vw55x_timer.c ****         /* reset the CH2P bit */
 1235              		.loc 1 742 9 is_stmt 1
 742:C:/Users/stapi/OneDrive/Desktop/GD32VW553/GD32VW55X_Wifi_BLE_SDK/GD32VW55x_RELEASE_V1.0.2/MSDK/plf/GD32VW55x_standard_peripheral/Source\gd32vw55x_timer.c ****         /* reset the CH2P bit */
 1236              		.loc 1 742 39 is_stmt 0
 1237 0122 1C42     		lw	a5,0(a2)
 742:C:/Users/stapi/OneDrive/Desktop/GD32VW553/GD32VW55X_Wifi_BLE_SDK/GD32VW55x_RELEASE_V1.0.2/MSDK/plf/GD32VW55x_standard_peripheral/Source\gd32vw55x_timer.c ****         /* reset the CH2P bit */
 1238              		.loc 1 742 36
 1239 0124 1851     		lw	a4,32(a0)
 742:C:/Users/stapi/OneDrive/Desktop/GD32VW553/GD32VW55X_Wifi_BLE_SDK/GD32VW55x_RELEASE_V1.0.2/MSDK/plf/GD32VW55x_standard_peripheral/Source\gd32vw55x_timer.c ****         /* reset the CH2P bit */
 1240              		.loc 1 742 39
 1241 0126 A207     		slli	a5,a5,8
 742:C:/Users/stapi/OneDrive/Desktop/GD32VW553/GD32VW55X_Wifi_BLE_SDK/GD32VW55x_RELEASE_V1.0.2/MSDK/plf/GD32VW55x_standard_peripheral/Source\gd32vw55x_timer.c ****         /* reset the CH2P bit */
 1242              		.loc 1 742 36
 1243 0128 D98F     		or	a5,a5,a4
 1244 012a 1CD1     		sw	a5,32(a0)
 744:C:/Users/stapi/OneDrive/Desktop/GD32VW553/GD32VW55X_Wifi_BLE_SDK/GD32VW55x_RELEASE_V1.0.2/MSDK/plf/GD32VW55x_standard_peripheral/Source\gd32vw55x_timer.c ****         /* set the CH2P bit */
 1245              		.loc 1 744 9 is_stmt 1
 744:C:/Users/stapi/OneDrive/Desktop/GD32VW553/GD32VW55X_Wifi_BLE_SDK/GD32VW55x_RELEASE_V1.0.2/MSDK/plf/GD32VW55x_standard_peripheral/Source\gd32vw55x_timer.c ****         /* set the CH2P bit */
 1246              		.loc 1 744 36 is_stmt 0
 1247 012c 1C51     		lw	a5,32(a0)
 1248 012e 93F7F7DF 		andi	a5,a5,-513
 1249 0132 1CD1     		sw	a5,32(a0)
 746:C:/Users/stapi/OneDrive/Desktop/GD32VW553/GD32VW55X_Wifi_BLE_SDK/GD32VW55x_RELEASE_V1.0.2/MSDK/plf/GD32VW55x_standard_peripheral/Source\gd32vw55x_timer.c **** 
 1250              		.loc 1 746 9 is_stmt 1
 746:C:/Users/stapi/OneDrive/Desktop/GD32VW553/GD32VW55X_Wifi_BLE_SDK/GD32VW55x_RELEASE_V1.0.2/MSDK/plf/GD32VW55x_standard_peripheral/Source\gd32vw55x_timer.c **** 
 1251              		.loc 1 746 50 is_stmt 0
 1252 0134 83576600 		lhu	a5,6(a2)
 746:C:/Users/stapi/OneDrive/Desktop/GD32VW553/GD32VW55X_Wifi_BLE_SDK/GD32VW55x_RELEASE_V1.0.2/MSDK/plf/GD32VW55x_standard_peripheral/Source\gd32vw55x_timer.c **** 
 1253              		.loc 1 746 36
 1254 0138 1851     		lw	a4,32(a0)
 746:C:/Users/stapi/OneDrive/Desktop/GD32VW553/GD32VW55X_Wifi_BLE_SDK/GD32VW55x_RELEASE_V1.0.2/MSDK/plf/GD32VW55x_standard_peripheral/Source\gd32vw55x_timer.c **** 
 1255              		.loc 1 746 39
 1256 013a A207     		slli	a5,a5,8
 746:C:/Users/stapi/OneDrive/Desktop/GD32VW553/GD32VW55X_Wifi_BLE_SDK/GD32VW55x_RELEASE_V1.0.2/MSDK/plf/GD32VW55x_standard_peripheral/Source\gd32vw55x_timer.c **** 
 1257              		.loc 1 746 36
 1258 013c D98F     		or	a5,a5,a4
 1259 013e 1CD1     		sw	a5,32(a0)
 748:C:/Users/stapi/OneDrive/Desktop/GD32VW553/GD32VW55X_Wifi_BLE_SDK/GD32VW55x_RELEASE_V1.0.2/MSDK/plf/GD32VW55x_standard_peripheral/Source\gd32vw55x_timer.c ****             /* reset the CH2NEN bit */
 1260              		.loc 1 748 9 is_stmt 1
 748:C:/Users/stapi/OneDrive/Desktop/GD32VW553/GD32VW55X_Wifi_BLE_SDK/GD32VW55x_RELEASE_V1.0.2/MSDK/plf/GD32VW55x_standard_peripheral/Source\gd32vw55x_timer.c ****             /* reset the CH2NEN bit */
 1261              		.loc 1 748 11 is_stmt 0
 1262 0140 B7070140 		li	a5,1073807360
 1263 0144 E314F5F4 		bne	a0,a5,.L71
 750:C:/Users/stapi/OneDrive/Desktop/GD32VW553/GD32VW55X_Wifi_BLE_SDK/GD32VW55x_RELEASE_V1.0.2/MSDK/plf/GD32VW55x_standard_peripheral/Source\gd32vw55x_timer.c ****             /* set the CH2NEN bit */
 1264              		.loc 1 750 13 is_stmt 1
 750:C:/Users/stapi/OneDrive/Desktop/GD32VW553/GD32VW55X_Wifi_BLE_SDK/GD32VW55x_RELEASE_V1.0.2/MSDK/plf/GD32VW55x_standard_peripheral/Source\gd32vw55x_timer.c ****             /* set the CH2NEN bit */
 1265              		.loc 1 750 40 is_stmt 0
 1266 0148 1C51     		lw	a5,32(a0)
 1267 014a 93F7F7BF 		andi	a5,a5,-1025
 1268 014e 1CD1     		sw	a5,32(a0)
 752:C:/Users/stapi/OneDrive/Desktop/GD32VW553/GD32VW55X_Wifi_BLE_SDK/GD32VW55x_RELEASE_V1.0.2/MSDK/plf/GD32VW55x_standard_peripheral/Source\gd32vw55x_timer.c ****             /* reset the CH2NP bit */
 1269              		.loc 1 752 13 is_stmt 1
 752:C:/Users/stapi/OneDrive/Desktop/GD32VW553/GD32VW55X_Wifi_BLE_SDK/GD32VW55x_RELEASE_V1.0.2/MSDK/plf/GD32VW55x_standard_peripheral/Source\gd32vw55x_timer.c ****             /* reset the CH2NP bit */
 1270              		.loc 1 752 54 is_stmt 0
 1271 0150 83574600 		lhu	a5,4(a2)
 752:C:/Users/stapi/OneDrive/Desktop/GD32VW553/GD32VW55X_Wifi_BLE_SDK/GD32VW55x_RELEASE_V1.0.2/MSDK/plf/GD32VW55x_standard_peripheral/Source\gd32vw55x_timer.c ****             /* reset the CH2NP bit */
 1272              		.loc 1 752 40
 1273 0154 1851     		lw	a4,32(a0)
 752:C:/Users/stapi/OneDrive/Desktop/GD32VW553/GD32VW55X_Wifi_BLE_SDK/GD32VW55x_RELEASE_V1.0.2/MSDK/plf/GD32VW55x_standard_peripheral/Source\gd32vw55x_timer.c ****             /* reset the CH2NP bit */
 1274              		.loc 1 752 43
 1275 0156 A207     		slli	a5,a5,8
 752:C:/Users/stapi/OneDrive/Desktop/GD32VW553/GD32VW55X_Wifi_BLE_SDK/GD32VW55x_RELEASE_V1.0.2/MSDK/plf/GD32VW55x_standard_peripheral/Source\gd32vw55x_timer.c ****             /* reset the CH2NP bit */
 1276              		.loc 1 752 40
 1277 0158 D98F     		or	a5,a5,a4
 1278 015a 1CD1     		sw	a5,32(a0)
 754:C:/Users/stapi/OneDrive/Desktop/GD32VW553/GD32VW55X_Wifi_BLE_SDK/GD32VW55x_RELEASE_V1.0.2/MSDK/plf/GD32VW55x_standard_peripheral/Source\gd32vw55x_timer.c ****             /* set the CH2NP bit */
 1279              		.loc 1 754 13 is_stmt 1
 754:C:/Users/stapi/OneDrive/Desktop/GD32VW553/GD32VW55X_Wifi_BLE_SDK/GD32VW55x_RELEASE_V1.0.2/MSDK/plf/GD32VW55x_standard_peripheral/Source\gd32vw55x_timer.c ****             /* set the CH2NP bit */
 1280              		.loc 1 754 40 is_stmt 0
 1281 015c 1C51     		lw	a5,32(a0)
 1282 015e 9397B748 		bclri	a5,a5,11
 1283 0162 1CD1     		sw	a5,32(a0)
 756:C:/Users/stapi/OneDrive/Desktop/GD32VW553/GD32VW55X_Wifi_BLE_SDK/GD32VW55x_RELEASE_V1.0.2/MSDK/plf/GD32VW55x_standard_peripheral/Source\gd32vw55x_timer.c ****             /* reset the ISO2 bit */
 1284              		.loc 1 756 13 is_stmt 1
 756:C:/Users/stapi/OneDrive/Desktop/GD32VW553/GD32VW55X_Wifi_BLE_SDK/GD32VW55x_RELEASE_V1.0.2/MSDK/plf/GD32VW55x_standard_peripheral/Source\gd32vw55x_timer.c ****             /* reset the ISO2 bit */
 1285              		.loc 1 756 54 is_stmt 0
 1286 0164 83578600 		lhu	a5,8(a2)
 756:C:/Users/stapi/OneDrive/Desktop/GD32VW553/GD32VW55X_Wifi_BLE_SDK/GD32VW55x_RELEASE_V1.0.2/MSDK/plf/GD32VW55x_standard_peripheral/Source\gd32vw55x_timer.c ****             /* reset the ISO2 bit */
 1287              		.loc 1 756 40
 1288 0168 1851     		lw	a4,32(a0)
 756:C:/Users/stapi/OneDrive/Desktop/GD32VW553/GD32VW55X_Wifi_BLE_SDK/GD32VW55x_RELEASE_V1.0.2/MSDK/plf/GD32VW55x_standard_peripheral/Source\gd32vw55x_timer.c ****             /* reset the ISO2 bit */
 1289              		.loc 1 756 43
 1290 016a A207     		slli	a5,a5,8
 756:C:/Users/stapi/OneDrive/Desktop/GD32VW553/GD32VW55X_Wifi_BLE_SDK/GD32VW55x_RELEASE_V1.0.2/MSDK/plf/GD32VW55x_standard_peripheral/Source\gd32vw55x_timer.c ****             /* reset the ISO2 bit */
 1291              		.loc 1 756 40
 1292 016c D98F     		or	a5,a5,a4
 1293 016e 1CD1     		sw	a5,32(a0)
 758:C:/Users/stapi/OneDrive/Desktop/GD32VW553/GD32VW55X_Wifi_BLE_SDK/GD32VW55x_RELEASE_V1.0.2/MSDK/plf/GD32VW55x_standard_peripheral/Source\gd32vw55x_timer.c ****             /* set the ISO2 bit */
 1294              		.loc 1 758 13 is_stmt 1
 758:C:/Users/stapi/OneDrive/Desktop/GD32VW553/GD32VW55X_Wifi_BLE_SDK/GD32VW55x_RELEASE_V1.0.2/MSDK/plf/GD32VW55x_standard_peripheral/Source\gd32vw55x_timer.c ****             /* set the ISO2 bit */
 1295              		.loc 1 758 38 is_stmt 0
 1296 0170 5C41     		lw	a5,4(a0)
 1297 0172 9397C748 		bclri	a5,a5,12
 1298 0176 5CC1     		sw	a5,4(a0)
 760:C:/Users/stapi/OneDrive/Desktop/GD32VW553/GD32VW55X_Wifi_BLE_SDK/GD32VW55x_RELEASE_V1.0.2/MSDK/plf/GD32VW55x_standard_peripheral/Source\gd32vw55x_timer.c ****             /* reset the ISO2N bit */
 1299              		.loc 1 760 13 is_stmt 1
 760:C:/Users/stapi/OneDrive/Desktop/GD32VW553/GD32VW55X_Wifi_BLE_SDK/GD32VW55x_RELEASE_V1.0.2/MSDK/plf/GD32VW55x_standard_peripheral/Source\gd32vw55x_timer.c ****             /* reset the ISO2N bit */
 1300              		.loc 1 760 52 is_stmt 0
 1301 0178 8357A600 		lhu	a5,10(a2)
 760:C:/Users/stapi/OneDrive/Desktop/GD32VW553/GD32VW55X_Wifi_BLE_SDK/GD32VW55x_RELEASE_V1.0.2/MSDK/plf/GD32VW55x_standard_peripheral/Source\gd32vw55x_timer.c ****             /* reset the ISO2N bit */
 1302              		.loc 1 760 38
 1303 017c 5841     		lw	a4,4(a0)
 760:C:/Users/stapi/OneDrive/Desktop/GD32VW553/GD32VW55X_Wifi_BLE_SDK/GD32VW55x_RELEASE_V1.0.2/MSDK/plf/GD32VW55x_standard_peripheral/Source\gd32vw55x_timer.c ****             /* reset the ISO2N bit */
 1304              		.loc 1 760 41
 1305 017e 9207     		slli	a5,a5,4
 760:C:/Users/stapi/OneDrive/Desktop/GD32VW553/GD32VW55X_Wifi_BLE_SDK/GD32VW55x_RELEASE_V1.0.2/MSDK/plf/GD32VW55x_standard_peripheral/Source\gd32vw55x_timer.c ****             /* reset the ISO2N bit */
 1306              		.loc 1 760 38
 1307 0180 D98F     		or	a5,a5,a4
 1308 0182 5CC1     		sw	a5,4(a0)
 762:C:/Users/stapi/OneDrive/Desktop/GD32VW553/GD32VW55X_Wifi_BLE_SDK/GD32VW55x_RELEASE_V1.0.2/MSDK/plf/GD32VW55x_standard_peripheral/Source\gd32vw55x_timer.c ****             /* set the ISO2N bit */
 1309              		.loc 1 762 13 is_stmt 1
 762:C:/Users/stapi/OneDrive/Desktop/GD32VW553/GD32VW55X_Wifi_BLE_SDK/GD32VW55x_RELEASE_V1.0.2/MSDK/plf/GD32VW55x_standard_peripheral/Source\gd32vw55x_timer.c ****             /* set the ISO2N bit */
 1310              		.loc 1 762 38 is_stmt 0
 1311 0184 5C41     		lw	a5,4(a0)
 1312 0186 9397D748 		bclri	a5,a5,13
 1313 018a 5CC1     		sw	a5,4(a0)
 764:C:/Users/stapi/OneDrive/Desktop/GD32VW553/GD32VW55X_Wifi_BLE_SDK/GD32VW55x_RELEASE_V1.0.2/MSDK/plf/GD32VW55x_standard_peripheral/Source\gd32vw55x_timer.c ****         }
 1314              		.loc 1 764 13 is_stmt 1
 764:C:/Users/stapi/OneDrive/Desktop/GD32VW553/GD32VW55X_Wifi_BLE_SDK/GD32VW55x_RELEASE_V1.0.2/MSDK/plf/GD32VW55x_standard_peripheral/Source\gd32vw55x_timer.c ****         }
 1315              		.loc 1 764 52 is_stmt 0
 1316 018c 8357C600 		lhu	a5,12(a2)
 764:C:/Users/stapi/OneDrive/Desktop/GD32VW553/GD32VW55X_Wifi_BLE_SDK/GD32VW55x_RELEASE_V1.0.2/MSDK/plf/GD32VW55x_standard_peripheral/Source\gd32vw55x_timer.c ****         }
 1317              		.loc 1 764 38
 1318 0190 5841     		lw	a4,4(a0)
 764:C:/Users/stapi/OneDrive/Desktop/GD32VW553/GD32VW55X_Wifi_BLE_SDK/GD32VW55x_RELEASE_V1.0.2/MSDK/plf/GD32VW55x_standard_peripheral/Source\gd32vw55x_timer.c ****         }
 1319              		.loc 1 764 41
 1320 0192 9207     		slli	a5,a5,4
 1321 0194 D5BD     		j	.L81
 1322              	.L76:
 770:C:/Users/stapi/OneDrive/Desktop/GD32VW553/GD32VW55X_Wifi_BLE_SDK/GD32VW55x_RELEASE_V1.0.2/MSDK/plf/GD32VW55x_standard_peripheral/Source\gd32vw55x_timer.c ****         TIMER_CHCTL1(timer_periph) &= ~(uint32_t)TIMER_CHCTL1_CH3MS;
 1323              		.loc 1 770 9 is_stmt 1
 770:C:/Users/stapi/OneDrive/Desktop/GD32VW553/GD32VW55X_Wifi_BLE_SDK/GD32VW55x_RELEASE_V1.0.2/MSDK/plf/GD32VW55x_standard_peripheral/Source\gd32vw55x_timer.c ****         TIMER_CHCTL1(timer_periph) &= ~(uint32_t)TIMER_CHCTL1_CH3MS;
 1324              		.loc 1 770 36 is_stmt 0
 1325 0196 1C51     		lw	a5,32(a0)
 1326 0198 9397C748 		bclri	a5,a5,12
 1327 019c 1CD1     		sw	a5,32(a0)
 771:C:/Users/stapi/OneDrive/Desktop/GD32VW553/GD32VW55X_Wifi_BLE_SDK/GD32VW55x_RELEASE_V1.0.2/MSDK/plf/GD32VW55x_standard_peripheral/Source\gd32vw55x_timer.c ****         /* set the CH3EN bit */
 1328              		.loc 1 771 9 is_stmt 1
 771:C:/Users/stapi/OneDrive/Desktop/GD32VW553/GD32VW55X_Wifi_BLE_SDK/GD32VW55x_RELEASE_V1.0.2/MSDK/plf/GD32VW55x_standard_peripheral/Source\gd32vw55x_timer.c ****         /* set the CH3EN bit */
 1329              		.loc 1 771 36 is_stmt 0
 1330 019e 5C4D     		lw	a5,28(a0)
 1331 01a0 93F7F7CF 		andi	a5,a5,-769
 1332 01a4 5CCD     		sw	a5,28(a0)
 773:C:/Users/stapi/OneDrive/Desktop/GD32VW553/GD32VW55X_Wifi_BLE_SDK/GD32VW55x_RELEASE_V1.0.2/MSDK/plf/GD32VW55x_standard_peripheral/Source\gd32vw55x_timer.c ****         /* reset the CH3P bit */
 1333              		.loc 1 773 9 is_stmt 1
 773:C:/Users/stapi/OneDrive/Desktop/GD32VW553/GD32VW55X_Wifi_BLE_SDK/GD32VW55x_RELEASE_V1.0.2/MSDK/plf/GD32VW55x_standard_peripheral/Source\gd32vw55x_timer.c ****         /* reset the CH3P bit */
 1334              		.loc 1 773 39 is_stmt 0
 1335 01a6 1C42     		lw	a5,0(a2)
 773:C:/Users/stapi/OneDrive/Desktop/GD32VW553/GD32VW55X_Wifi_BLE_SDK/GD32VW55x_RELEASE_V1.0.2/MSDK/plf/GD32VW55x_standard_peripheral/Source\gd32vw55x_timer.c ****         /* reset the CH3P bit */
 1336              		.loc 1 773 36
 1337 01a8 1851     		lw	a4,32(a0)
 773:C:/Users/stapi/OneDrive/Desktop/GD32VW553/GD32VW55X_Wifi_BLE_SDK/GD32VW55x_RELEASE_V1.0.2/MSDK/plf/GD32VW55x_standard_peripheral/Source\gd32vw55x_timer.c ****         /* reset the CH3P bit */
 1338              		.loc 1 773 39
 1339 01aa B207     		slli	a5,a5,12
 773:C:/Users/stapi/OneDrive/Desktop/GD32VW553/GD32VW55X_Wifi_BLE_SDK/GD32VW55x_RELEASE_V1.0.2/MSDK/plf/GD32VW55x_standard_peripheral/Source\gd32vw55x_timer.c ****         /* reset the CH3P bit */
 1340              		.loc 1 773 36
 1341 01ac D98F     		or	a5,a5,a4
 1342 01ae 1CD1     		sw	a5,32(a0)
 775:C:/Users/stapi/OneDrive/Desktop/GD32VW553/GD32VW55X_Wifi_BLE_SDK/GD32VW55x_RELEASE_V1.0.2/MSDK/plf/GD32VW55x_standard_peripheral/Source\gd32vw55x_timer.c ****         /* set the CH3P bit */
 1343              		.loc 1 775 9 is_stmt 1
 775:C:/Users/stapi/OneDrive/Desktop/GD32VW553/GD32VW55X_Wifi_BLE_SDK/GD32VW55x_RELEASE_V1.0.2/MSDK/plf/GD32VW55x_standard_peripheral/Source\gd32vw55x_timer.c ****         /* set the CH3P bit */
 1344              		.loc 1 775 36 is_stmt 0
 1345 01b0 1C51     		lw	a5,32(a0)
 1346 01b2 9397D748 		bclri	a5,a5,13
 1347 01b6 1CD1     		sw	a5,32(a0)
 777:C:/Users/stapi/OneDrive/Desktop/GD32VW553/GD32VW55X_Wifi_BLE_SDK/GD32VW55x_RELEASE_V1.0.2/MSDK/plf/GD32VW55x_standard_peripheral/Source\gd32vw55x_timer.c **** 
 1348              		.loc 1 777 9 is_stmt 1
 777:C:/Users/stapi/OneDrive/Desktop/GD32VW553/GD32VW55X_Wifi_BLE_SDK/GD32VW55x_RELEASE_V1.0.2/MSDK/plf/GD32VW55x_standard_peripheral/Source\gd32vw55x_timer.c **** 
 1349              		.loc 1 777 50 is_stmt 0
 1350 01b8 83576600 		lhu	a5,6(a2)
 777:C:/Users/stapi/OneDrive/Desktop/GD32VW553/GD32VW55X_Wifi_BLE_SDK/GD32VW55x_RELEASE_V1.0.2/MSDK/plf/GD32VW55x_standard_peripheral/Source\gd32vw55x_timer.c **** 
 1351              		.loc 1 777 36
 1352 01bc 1851     		lw	a4,32(a0)
 777:C:/Users/stapi/OneDrive/Desktop/GD32VW553/GD32VW55X_Wifi_BLE_SDK/GD32VW55x_RELEASE_V1.0.2/MSDK/plf/GD32VW55x_standard_peripheral/Source\gd32vw55x_timer.c **** 
 1353              		.loc 1 777 39
 1354 01be B207     		slli	a5,a5,12
 777:C:/Users/stapi/OneDrive/Desktop/GD32VW553/GD32VW55X_Wifi_BLE_SDK/GD32VW55x_RELEASE_V1.0.2/MSDK/plf/GD32VW55x_standard_peripheral/Source\gd32vw55x_timer.c **** 
 1355              		.loc 1 777 36
 1356 01c0 D98F     		or	a5,a5,a4
 1357 01c2 1CD1     		sw	a5,32(a0)
 779:C:/Users/stapi/OneDrive/Desktop/GD32VW553/GD32VW55X_Wifi_BLE_SDK/GD32VW55x_RELEASE_V1.0.2/MSDK/plf/GD32VW55x_standard_peripheral/Source\gd32vw55x_timer.c ****             /* reset the ISO3 bit */
 1358              		.loc 1 779 9 is_stmt 1
 779:C:/Users/stapi/OneDrive/Desktop/GD32VW553/GD32VW55X_Wifi_BLE_SDK/GD32VW55x_RELEASE_V1.0.2/MSDK/plf/GD32VW55x_standard_peripheral/Source\gd32vw55x_timer.c ****             /* reset the ISO3 bit */
 1359              		.loc 1 779 11 is_stmt 0
 1360 01c4 B7070140 		li	a5,1073807360
 1361 01c8 E312F5EC 		bne	a0,a5,.L71
 781:C:/Users/stapi/OneDrive/Desktop/GD32VW553/GD32VW55X_Wifi_BLE_SDK/GD32VW55x_RELEASE_V1.0.2/MSDK/plf/GD32VW55x_standard_peripheral/Source\gd32vw55x_timer.c ****             /* set the ISO3 bit */
 1362              		.loc 1 781 13 is_stmt 1
 781:C:/Users/stapi/OneDrive/Desktop/GD32VW553/GD32VW55X_Wifi_BLE_SDK/GD32VW55x_RELEASE_V1.0.2/MSDK/plf/GD32VW55x_standard_peripheral/Source\gd32vw55x_timer.c ****             /* set the ISO3 bit */
 1363              		.loc 1 781 38 is_stmt 0
 1364 01cc 5C41     		lw	a5,4(a0)
 1365 01ce 9397E748 		bclri	a5,a5,14
 1366 01d2 5CC1     		sw	a5,4(a0)
 783:C:/Users/stapi/OneDrive/Desktop/GD32VW553/GD32VW55X_Wifi_BLE_SDK/GD32VW55x_RELEASE_V1.0.2/MSDK/plf/GD32VW55x_standard_peripheral/Source\gd32vw55x_timer.c ****         }
 1367              		.loc 1 783 13 is_stmt 1
 783:C:/Users/stapi/OneDrive/Desktop/GD32VW553/GD32VW55X_Wifi_BLE_SDK/GD32VW55x_RELEASE_V1.0.2/MSDK/plf/GD32VW55x_standard_peripheral/Source\gd32vw55x_timer.c ****         }
 1368              		.loc 1 783 52 is_stmt 0
 1369 01d4 8357A600 		lhu	a5,10(a2)
 783:C:/Users/stapi/OneDrive/Desktop/GD32VW553/GD32VW55X_Wifi_BLE_SDK/GD32VW55x_RELEASE_V1.0.2/MSDK/plf/GD32VW55x_standard_peripheral/Source\gd32vw55x_timer.c ****         }
 1370              		.loc 1 783 38
 1371 01d8 5841     		lw	a4,4(a0)
 783:C:/Users/stapi/OneDrive/Desktop/GD32VW553/GD32VW55X_Wifi_BLE_SDK/GD32VW55x_RELEASE_V1.0.2/MSDK/plf/GD32VW55x_standard_peripheral/Source\gd32vw55x_timer.c ****         }
 1372              		.loc 1 783 41
 1373 01da 9A07     		slli	a5,a5,6
 1374 01dc 75B5     		j	.L81
 1375              		.cfi_endproc
 1376              	.LFE400:
 1378              		.section	.text.timer_channel_output_mode_config,"ax",@progbits
 1379              		.align	1
 1380              		.globl	timer_channel_output_mode_config
 1382              	timer_channel_output_mode_config:
 1383              	.LFB401:
 790:C:/Users/stapi/OneDrive/Desktop/GD32VW553/GD32VW55X_Wifi_BLE_SDK/GD32VW55x_RELEASE_V1.0.2/MSDK/plf/GD32VW55x_standard_peripheral/Source\gd32vw55x_timer.c **** 
 791:C:/Users/stapi/OneDrive/Desktop/GD32VW553/GD32VW55X_Wifi_BLE_SDK/GD32VW55x_RELEASE_V1.0.2/MSDK/plf/GD32VW55x_standard_peripheral/Source\gd32vw55x_timer.c **** /*!
 792:C:/Users/stapi/OneDrive/Desktop/GD32VW553/GD32VW55X_Wifi_BLE_SDK/GD32VW55x_RELEASE_V1.0.2/MSDK/plf/GD32VW55x_standard_peripheral/Source\gd32vw55x_timer.c ****     \brief      configure TIMER channel output compare mode
 793:C:/Users/stapi/OneDrive/Desktop/GD32VW553/GD32VW55X_Wifi_BLE_SDK/GD32VW55x_RELEASE_V1.0.2/MSDK/plf/GD32VW55x_standard_peripheral/Source\gd32vw55x_timer.c ****     \param[in]  timer_periph: please refer to the following parameters
 794:C:/Users/stapi/OneDrive/Desktop/GD32VW553/GD32VW55X_Wifi_BLE_SDK/GD32VW55x_RELEASE_V1.0.2/MSDK/plf/GD32VW55x_standard_peripheral/Source\gd32vw55x_timer.c ****     \param[in]  channel:
 795:C:/Users/stapi/OneDrive/Desktop/GD32VW553/GD32VW55X_Wifi_BLE_SDK/GD32VW55x_RELEASE_V1.0.2/MSDK/plf/GD32VW55x_standard_peripheral/Source\gd32vw55x_timer.c ****                 only one parameter can be selected which is shown as below:
 796:C:/Users/stapi/OneDrive/Desktop/GD32VW553/GD32VW55X_Wifi_BLE_SDK/GD32VW55x_RELEASE_V1.0.2/MSDK/plf/GD32VW55x_standard_peripheral/Source\gd32vw55x_timer.c ****       \arg        TIMER_CH_0: TIMER channel0(TIMERx(x=0,1,2,15,16))
 797:C:/Users/stapi/OneDrive/Desktop/GD32VW553/GD32VW55X_Wifi_BLE_SDK/GD32VW55x_RELEASE_V1.0.2/MSDK/plf/GD32VW55x_standard_peripheral/Source\gd32vw55x_timer.c ****       \arg        TIMER_CH_1: TIMER channel1(TIMERx(x=0,1,2))
 798:C:/Users/stapi/OneDrive/Desktop/GD32VW553/GD32VW55X_Wifi_BLE_SDK/GD32VW55x_RELEASE_V1.0.2/MSDK/plf/GD32VW55x_standard_peripheral/Source\gd32vw55x_timer.c ****       \arg        TIMER_CH_2: TIMER channel2(TIMERx(x=0,1,2))
 799:C:/Users/stapi/OneDrive/Desktop/GD32VW553/GD32VW55X_Wifi_BLE_SDK/GD32VW55x_RELEASE_V1.0.2/MSDK/plf/GD32VW55x_standard_peripheral/Source\gd32vw55x_timer.c ****       \arg        TIMER_CH_3: TIMER channel3(TIMERx(x=0,1,2))
 800:C:/Users/stapi/OneDrive/Desktop/GD32VW553/GD32VW55X_Wifi_BLE_SDK/GD32VW55x_RELEASE_V1.0.2/MSDK/plf/GD32VW55x_standard_peripheral/Source\gd32vw55x_timer.c ****     \param[in]  ocmode: channel output compare mode
 801:C:/Users/stapi/OneDrive/Desktop/GD32VW553/GD32VW55X_Wifi_BLE_SDK/GD32VW55x_RELEASE_V1.0.2/MSDK/plf/GD32VW55x_standard_peripheral/Source\gd32vw55x_timer.c ****                 only one parameter can be selected which is shown as below:
 802:C:/Users/stapi/OneDrive/Desktop/GD32VW553/GD32VW55X_Wifi_BLE_SDK/GD32VW55x_RELEASE_V1.0.2/MSDK/plf/GD32VW55x_standard_peripheral/Source\gd32vw55x_timer.c ****       \arg        TIMER_OC_MODE_TIMING: timing mode
 803:C:/Users/stapi/OneDrive/Desktop/GD32VW553/GD32VW55X_Wifi_BLE_SDK/GD32VW55x_RELEASE_V1.0.2/MSDK/plf/GD32VW55x_standard_peripheral/Source\gd32vw55x_timer.c ****       \arg        TIMER_OC_MODE_ACTIVE: active mode
 804:C:/Users/stapi/OneDrive/Desktop/GD32VW553/GD32VW55X_Wifi_BLE_SDK/GD32VW55x_RELEASE_V1.0.2/MSDK/plf/GD32VW55x_standard_peripheral/Source\gd32vw55x_timer.c ****       \arg        TIMER_OC_MODE_INACTIVE: inactive mode
 805:C:/Users/stapi/OneDrive/Desktop/GD32VW553/GD32VW55X_Wifi_BLE_SDK/GD32VW55x_RELEASE_V1.0.2/MSDK/plf/GD32VW55x_standard_peripheral/Source\gd32vw55x_timer.c ****       \arg        TIMER_OC_MODE_TOGGLE: toggle mode
 806:C:/Users/stapi/OneDrive/Desktop/GD32VW553/GD32VW55X_Wifi_BLE_SDK/GD32VW55x_RELEASE_V1.0.2/MSDK/plf/GD32VW55x_standard_peripheral/Source\gd32vw55x_timer.c ****       \arg        TIMER_OC_MODE_LOW: force low mode
 807:C:/Users/stapi/OneDrive/Desktop/GD32VW553/GD32VW55X_Wifi_BLE_SDK/GD32VW55x_RELEASE_V1.0.2/MSDK/plf/GD32VW55x_standard_peripheral/Source\gd32vw55x_timer.c ****       \arg        TIMER_OC_MODE_HIGH: force high mode
 808:C:/Users/stapi/OneDrive/Desktop/GD32VW553/GD32VW55X_Wifi_BLE_SDK/GD32VW55x_RELEASE_V1.0.2/MSDK/plf/GD32VW55x_standard_peripheral/Source\gd32vw55x_timer.c ****       \arg        TIMER_OC_MODE_PWM0: PWM0 mode
 809:C:/Users/stapi/OneDrive/Desktop/GD32VW553/GD32VW55X_Wifi_BLE_SDK/GD32VW55x_RELEASE_V1.0.2/MSDK/plf/GD32VW55x_standard_peripheral/Source\gd32vw55x_timer.c ****       \arg        TIMER_OC_MODE_PWM1: PWM1 mode
 810:C:/Users/stapi/OneDrive/Desktop/GD32VW553/GD32VW55X_Wifi_BLE_SDK/GD32VW55x_RELEASE_V1.0.2/MSDK/plf/GD32VW55x_standard_peripheral/Source\gd32vw55x_timer.c ****     \param[out] none
 811:C:/Users/stapi/OneDrive/Desktop/GD32VW553/GD32VW55X_Wifi_BLE_SDK/GD32VW55x_RELEASE_V1.0.2/MSDK/plf/GD32VW55x_standard_peripheral/Source\gd32vw55x_timer.c ****     \retval     none
 812:C:/Users/stapi/OneDrive/Desktop/GD32VW553/GD32VW55X_Wifi_BLE_SDK/GD32VW55x_RELEASE_V1.0.2/MSDK/plf/GD32VW55x_standard_peripheral/Source\gd32vw55x_timer.c **** */
 813:C:/Users/stapi/OneDrive/Desktop/GD32VW553/GD32VW55X_Wifi_BLE_SDK/GD32VW55x_RELEASE_V1.0.2/MSDK/plf/GD32VW55x_standard_peripheral/Source\gd32vw55x_timer.c **** void timer_channel_output_mode_config(uint32_t timer_periph, uint16_t channel, uint16_t ocmode)
 814:C:/Users/stapi/OneDrive/Desktop/GD32VW553/GD32VW55X_Wifi_BLE_SDK/GD32VW55x_RELEASE_V1.0.2/MSDK/plf/GD32VW55x_standard_peripheral/Source\gd32vw55x_timer.c **** {
 1384              		.loc 1 814 1 is_stmt 1
 1385              		.cfi_startproc
 1386              	.LVL63:
 815:C:/Users/stapi/OneDrive/Desktop/GD32VW553/GD32VW55X_Wifi_BLE_SDK/GD32VW55x_RELEASE_V1.0.2/MSDK/plf/GD32VW55x_standard_peripheral/Source\gd32vw55x_timer.c ****     switch(channel){
 1387              		.loc 1 815 5
 1388 0000 8947     		li	a5,2
 1389 0002 6389F502 		beq	a1,a5,.L83
 1390 0006 63EBB700 		bgtu	a1,a5,.L84
 1391 000a 89ED     		bne	a1,zero,.L89
 816:C:/Users/stapi/OneDrive/Desktop/GD32VW553/GD32VW55X_Wifi_BLE_SDK/GD32VW55x_RELEASE_V1.0.2/MSDK/plf/GD32VW55x_standard_peripheral/Source\gd32vw55x_timer.c ****     /* configure TIMER_CH_0 */
 817:C:/Users/stapi/OneDrive/Desktop/GD32VW553/GD32VW55X_Wifi_BLE_SDK/GD32VW55x_RELEASE_V1.0.2/MSDK/plf/GD32VW55x_standard_peripheral/Source\gd32vw55x_timer.c ****     case TIMER_CH_0:
 818:C:/Users/stapi/OneDrive/Desktop/GD32VW553/GD32VW55X_Wifi_BLE_SDK/GD32VW55x_RELEASE_V1.0.2/MSDK/plf/GD32VW55x_standard_peripheral/Source\gd32vw55x_timer.c ****         TIMER_CHCTL0(timer_periph) &= (~(uint32_t)TIMER_CHCTL0_CH0COMCTL);
 1392              		.loc 1 818 9
 1393              		.loc 1 818 36 is_stmt 0
 1394 000c 1C4D     		lw	a5,24(a0)
 1395 000e 93F7F7F8 		andi	a5,a5,-113
 1396 0012 1CCD     		sw	a5,24(a0)
 819:C:/Users/stapi/OneDrive/Desktop/GD32VW553/GD32VW55X_Wifi_BLE_SDK/GD32VW55x_RELEASE_V1.0.2/MSDK/plf/GD32VW55x_standard_peripheral/Source\gd32vw55x_timer.c ****         TIMER_CHCTL0(timer_periph) |= (uint32_t)ocmode;
 1397              		.loc 1 819 9 is_stmt 1
 1398              		.loc 1 819 36 is_stmt 0
 1399 0014 1C4D     		lw	a5,24(a0)
 1400              	.LVL64:
 1401              	.L90:
 820:C:/Users/stapi/OneDrive/Desktop/GD32VW553/GD32VW55X_Wifi_BLE_SDK/GD32VW55x_RELEASE_V1.0.2/MSDK/plf/GD32VW55x_standard_peripheral/Source\gd32vw55x_timer.c ****         break;
 821:C:/Users/stapi/OneDrive/Desktop/GD32VW553/GD32VW55X_Wifi_BLE_SDK/GD32VW55x_RELEASE_V1.0.2/MSDK/plf/GD32VW55x_standard_peripheral/Source\gd32vw55x_timer.c ****     /* configure TIMER_CH_1 */
 822:C:/Users/stapi/OneDrive/Desktop/GD32VW553/GD32VW55X_Wifi_BLE_SDK/GD32VW55x_RELEASE_V1.0.2/MSDK/plf/GD32VW55x_standard_peripheral/Source\gd32vw55x_timer.c ****     case TIMER_CH_1:
 823:C:/Users/stapi/OneDrive/Desktop/GD32VW553/GD32VW55X_Wifi_BLE_SDK/GD32VW55x_RELEASE_V1.0.2/MSDK/plf/GD32VW55x_standard_peripheral/Source\gd32vw55x_timer.c ****         TIMER_CHCTL0(timer_periph) &= (~(uint32_t)TIMER_CHCTL0_CH1COMCTL);
 824:C:/Users/stapi/OneDrive/Desktop/GD32VW553/GD32VW55X_Wifi_BLE_SDK/GD32VW55x_RELEASE_V1.0.2/MSDK/plf/GD32VW55x_standard_peripheral/Source\gd32vw55x_timer.c ****         TIMER_CHCTL0(timer_periph) |= (uint32_t)((uint32_t)(ocmode) << 8U);
 1402              		.loc 1 824 36
 1403 0016 5D8E     		or	a2,a2,a5
 1404 0018 10CD     		sw	a2,24(a0)
 825:C:/Users/stapi/OneDrive/Desktop/GD32VW553/GD32VW55X_Wifi_BLE_SDK/GD32VW55x_RELEASE_V1.0.2/MSDK/plf/GD32VW55x_standard_peripheral/Source\gd32vw55x_timer.c ****         break;
 1405              		.loc 1 825 9 is_stmt 1
 1406 001a 8280     		ret
 1407              	.LVL65:
 1408              	.L84:
 815:C:/Users/stapi/OneDrive/Desktop/GD32VW553/GD32VW55X_Wifi_BLE_SDK/GD32VW55x_RELEASE_V1.0.2/MSDK/plf/GD32VW55x_standard_peripheral/Source\gd32vw55x_timer.c ****     /* configure TIMER_CH_0 */
 1409              		.loc 1 815 5 is_stmt 0
 1410 001c 8D47     		li	a5,3
 1411 001e 6383F502 		beq	a1,a5,.L87
 1412 0022 8280     		ret
 1413              	.L89:
 823:C:/Users/stapi/OneDrive/Desktop/GD32VW553/GD32VW55X_Wifi_BLE_SDK/GD32VW55x_RELEASE_V1.0.2/MSDK/plf/GD32VW55x_standard_peripheral/Source\gd32vw55x_timer.c ****         TIMER_CHCTL0(timer_periph) |= (uint32_t)((uint32_t)(ocmode) << 8U);
 1414              		.loc 1 823 9 is_stmt 1
 823:C:/Users/stapi/OneDrive/Desktop/GD32VW553/GD32VW55X_Wifi_BLE_SDK/GD32VW55x_RELEASE_V1.0.2/MSDK/plf/GD32VW55x_standard_peripheral/Source\gd32vw55x_timer.c ****         TIMER_CHCTL0(timer_periph) |= (uint32_t)((uint32_t)(ocmode) << 8U);
 1415              		.loc 1 823 36 is_stmt 0
 1416 0024 1C4D     		lw	a5,24(a0)
 1417 0026 6577     		li	a4,-28672
 1418 0028 7D17     		addi	a4,a4,-1
 1419 002a F98F     		and	a5,a5,a4
 1420 002c 1CCD     		sw	a5,24(a0)
 824:C:/Users/stapi/OneDrive/Desktop/GD32VW553/GD32VW55X_Wifi_BLE_SDK/GD32VW55x_RELEASE_V1.0.2/MSDK/plf/GD32VW55x_standard_peripheral/Source\gd32vw55x_timer.c ****         break;
 1421              		.loc 1 824 9 is_stmt 1
 824:C:/Users/stapi/OneDrive/Desktop/GD32VW553/GD32VW55X_Wifi_BLE_SDK/GD32VW55x_RELEASE_V1.0.2/MSDK/plf/GD32VW55x_standard_peripheral/Source\gd32vw55x_timer.c ****         break;
 1422              		.loc 1 824 36 is_stmt 0
 1423 002e 1C4D     		lw	a5,24(a0)
 824:C:/Users/stapi/OneDrive/Desktop/GD32VW553/GD32VW55X_Wifi_BLE_SDK/GD32VW55x_RELEASE_V1.0.2/MSDK/plf/GD32VW55x_standard_peripheral/Source\gd32vw55x_timer.c ****         break;
 1424              		.loc 1 824 39
 1425 0030 2206     		slli	a2,a2,8
 1426              	.LVL66:
 1427 0032 D5B7     		j	.L90
 1428              	.LVL67:
 1429              	.L83:
 826:C:/Users/stapi/OneDrive/Desktop/GD32VW553/GD32VW55X_Wifi_BLE_SDK/GD32VW55x_RELEASE_V1.0.2/MSDK/plf/GD32VW55x_standard_peripheral/Source\gd32vw55x_timer.c ****     /* configure TIMER_CH_2 */
 827:C:/Users/stapi/OneDrive/Desktop/GD32VW553/GD32VW55X_Wifi_BLE_SDK/GD32VW55x_RELEASE_V1.0.2/MSDK/plf/GD32VW55x_standard_peripheral/Source\gd32vw55x_timer.c ****     case TIMER_CH_2:
 828:C:/Users/stapi/OneDrive/Desktop/GD32VW553/GD32VW55X_Wifi_BLE_SDK/GD32VW55x_RELEASE_V1.0.2/MSDK/plf/GD32VW55x_standard_peripheral/Source\gd32vw55x_timer.c ****         TIMER_CHCTL1(timer_periph) &= (~(uint32_t)TIMER_CHCTL1_CH2COMCTL);
 1430              		.loc 1 828 9 is_stmt 1
 1431              		.loc 1 828 36 is_stmt 0
 1432 0034 5C4D     		lw	a5,28(a0)
 1433 0036 93F7F7F8 		andi	a5,a5,-113
 1434 003a 5CCD     		sw	a5,28(a0)
 829:C:/Users/stapi/OneDrive/Desktop/GD32VW553/GD32VW55X_Wifi_BLE_SDK/GD32VW55x_RELEASE_V1.0.2/MSDK/plf/GD32VW55x_standard_peripheral/Source\gd32vw55x_timer.c ****         TIMER_CHCTL1(timer_periph) |= (uint32_t)ocmode;
 1435              		.loc 1 829 9 is_stmt 1
 1436              		.loc 1 829 36 is_stmt 0
 1437 003c 5C4D     		lw	a5,28(a0)
 1438              	.LVL68:
 1439              	.L91:
 830:C:/Users/stapi/OneDrive/Desktop/GD32VW553/GD32VW55X_Wifi_BLE_SDK/GD32VW55x_RELEASE_V1.0.2/MSDK/plf/GD32VW55x_standard_peripheral/Source\gd32vw55x_timer.c ****         break;
 831:C:/Users/stapi/OneDrive/Desktop/GD32VW553/GD32VW55X_Wifi_BLE_SDK/GD32VW55x_RELEASE_V1.0.2/MSDK/plf/GD32VW55x_standard_peripheral/Source\gd32vw55x_timer.c ****     /* configure TIMER_CH_3 */
 832:C:/Users/stapi/OneDrive/Desktop/GD32VW553/GD32VW55X_Wifi_BLE_SDK/GD32VW55x_RELEASE_V1.0.2/MSDK/plf/GD32VW55x_standard_peripheral/Source\gd32vw55x_timer.c ****     case TIMER_CH_3:
 833:C:/Users/stapi/OneDrive/Desktop/GD32VW553/GD32VW55X_Wifi_BLE_SDK/GD32VW55x_RELEASE_V1.0.2/MSDK/plf/GD32VW55x_standard_peripheral/Source\gd32vw55x_timer.c ****         TIMER_CHCTL1(timer_periph) &= (~(uint32_t)TIMER_CHCTL1_CH3COMCTL);
 834:C:/Users/stapi/OneDrive/Desktop/GD32VW553/GD32VW55X_Wifi_BLE_SDK/GD32VW55x_RELEASE_V1.0.2/MSDK/plf/GD32VW55x_standard_peripheral/Source\gd32vw55x_timer.c ****         TIMER_CHCTL1(timer_periph) |= (uint32_t)((uint32_t)(ocmode) << 8U);
 1440              		.loc 1 834 36
 1441 003e 5D8E     		or	a2,a2,a5
 1442 0040 50CD     		sw	a2,28(a0)
 835:C:/Users/stapi/OneDrive/Desktop/GD32VW553/GD32VW55X_Wifi_BLE_SDK/GD32VW55x_RELEASE_V1.0.2/MSDK/plf/GD32VW55x_standard_peripheral/Source\gd32vw55x_timer.c ****         break;
 1443              		.loc 1 835 9 is_stmt 1
 836:C:/Users/stapi/OneDrive/Desktop/GD32VW553/GD32VW55X_Wifi_BLE_SDK/GD32VW55x_RELEASE_V1.0.2/MSDK/plf/GD32VW55x_standard_peripheral/Source\gd32vw55x_timer.c ****     default:
 837:C:/Users/stapi/OneDrive/Desktop/GD32VW553/GD32VW55X_Wifi_BLE_SDK/GD32VW55x_RELEASE_V1.0.2/MSDK/plf/GD32VW55x_standard_peripheral/Source\gd32vw55x_timer.c ****         break;
 838:C:/Users/stapi/OneDrive/Desktop/GD32VW553/GD32VW55X_Wifi_BLE_SDK/GD32VW55x_RELEASE_V1.0.2/MSDK/plf/GD32VW55x_standard_peripheral/Source\gd32vw55x_timer.c ****     }
 839:C:/Users/stapi/OneDrive/Desktop/GD32VW553/GD32VW55X_Wifi_BLE_SDK/GD32VW55x_RELEASE_V1.0.2/MSDK/plf/GD32VW55x_standard_peripheral/Source\gd32vw55x_timer.c **** }
 1444              		.loc 1 839 1 is_stmt 0
 1445 0042 8280     		ret
 1446              	.LVL69:
 1447              	.L87:
 833:C:/Users/stapi/OneDrive/Desktop/GD32VW553/GD32VW55X_Wifi_BLE_SDK/GD32VW55x_RELEASE_V1.0.2/MSDK/plf/GD32VW55x_standard_peripheral/Source\gd32vw55x_timer.c ****         TIMER_CHCTL1(timer_periph) |= (uint32_t)((uint32_t)(ocmode) << 8U);
 1448              		.loc 1 833 9 is_stmt 1
 833:C:/Users/stapi/OneDrive/Desktop/GD32VW553/GD32VW55X_Wifi_BLE_SDK/GD32VW55x_RELEASE_V1.0.2/MSDK/plf/GD32VW55x_standard_peripheral/Source\gd32vw55x_timer.c ****         TIMER_CHCTL1(timer_periph) |= (uint32_t)((uint32_t)(ocmode) << 8U);
 1449              		.loc 1 833 36 is_stmt 0
 1450 0044 5C4D     		lw	a5,28(a0)
 1451 0046 6577     		li	a4,-28672
 1452 0048 7D17     		addi	a4,a4,-1
 1453 004a F98F     		and	a5,a5,a4
 1454 004c 5CCD     		sw	a5,28(a0)
 834:C:/Users/stapi/OneDrive/Desktop/GD32VW553/GD32VW55X_Wifi_BLE_SDK/GD32VW55x_RELEASE_V1.0.2/MSDK/plf/GD32VW55x_standard_peripheral/Source\gd32vw55x_timer.c ****         break;
 1455              		.loc 1 834 9 is_stmt 1
 834:C:/Users/stapi/OneDrive/Desktop/GD32VW553/GD32VW55X_Wifi_BLE_SDK/GD32VW55x_RELEASE_V1.0.2/MSDK/plf/GD32VW55x_standard_peripheral/Source\gd32vw55x_timer.c ****         break;
 1456              		.loc 1 834 36 is_stmt 0
 1457 004e 5C4D     		lw	a5,28(a0)
 834:C:/Users/stapi/OneDrive/Desktop/GD32VW553/GD32VW55X_Wifi_BLE_SDK/GD32VW55x_RELEASE_V1.0.2/MSDK/plf/GD32VW55x_standard_peripheral/Source\gd32vw55x_timer.c ****         break;
 1458              		.loc 1 834 39
 1459 0050 2206     		slli	a2,a2,8
 1460              	.LVL70:
 1461 0052 F5B7     		j	.L91
 1462              		.cfi_endproc
 1463              	.LFE401:
 1465              		.section	.text.timer_channel_output_pulse_value_config,"ax",@progbits
 1466              		.align	1
 1467              		.globl	timer_channel_output_pulse_value_config
 1469              	timer_channel_output_pulse_value_config:
 1470              	.LFB402:
 840:C:/Users/stapi/OneDrive/Desktop/GD32VW553/GD32VW55X_Wifi_BLE_SDK/GD32VW55x_RELEASE_V1.0.2/MSDK/plf/GD32VW55x_standard_peripheral/Source\gd32vw55x_timer.c **** 
 841:C:/Users/stapi/OneDrive/Desktop/GD32VW553/GD32VW55X_Wifi_BLE_SDK/GD32VW55x_RELEASE_V1.0.2/MSDK/plf/GD32VW55x_standard_peripheral/Source\gd32vw55x_timer.c **** /*!
 842:C:/Users/stapi/OneDrive/Desktop/GD32VW553/GD32VW55X_Wifi_BLE_SDK/GD32VW55x_RELEASE_V1.0.2/MSDK/plf/GD32VW55x_standard_peripheral/Source\gd32vw55x_timer.c ****     \brief      configure TIMER channel output pulse value
 843:C:/Users/stapi/OneDrive/Desktop/GD32VW553/GD32VW55X_Wifi_BLE_SDK/GD32VW55x_RELEASE_V1.0.2/MSDK/plf/GD32VW55x_standard_peripheral/Source\gd32vw55x_timer.c ****     \param[in]  timer_periph: please refer to the following parameters
 844:C:/Users/stapi/OneDrive/Desktop/GD32VW553/GD32VW55X_Wifi_BLE_SDK/GD32VW55x_RELEASE_V1.0.2/MSDK/plf/GD32VW55x_standard_peripheral/Source\gd32vw55x_timer.c ****     \param[in]  channel:
 845:C:/Users/stapi/OneDrive/Desktop/GD32VW553/GD32VW55X_Wifi_BLE_SDK/GD32VW55x_RELEASE_V1.0.2/MSDK/plf/GD32VW55x_standard_peripheral/Source\gd32vw55x_timer.c ****                 only one parameter can be selected which is shown as below:
 846:C:/Users/stapi/OneDrive/Desktop/GD32VW553/GD32VW55X_Wifi_BLE_SDK/GD32VW55x_RELEASE_V1.0.2/MSDK/plf/GD32VW55x_standard_peripheral/Source\gd32vw55x_timer.c ****       \arg        TIMER_CH_0: TIMER channel0(TIMERx(x=0,1,2,15,16))
 847:C:/Users/stapi/OneDrive/Desktop/GD32VW553/GD32VW55X_Wifi_BLE_SDK/GD32VW55x_RELEASE_V1.0.2/MSDK/plf/GD32VW55x_standard_peripheral/Source\gd32vw55x_timer.c ****       \arg        TIMER_CH_1: TIMER channel1(TIMERx(x=0,1,2))
 848:C:/Users/stapi/OneDrive/Desktop/GD32VW553/GD32VW55X_Wifi_BLE_SDK/GD32VW55x_RELEASE_V1.0.2/MSDK/plf/GD32VW55x_standard_peripheral/Source\gd32vw55x_timer.c ****       \arg        TIMER_CH_2: TIMER channel2(TIMERx(x=0,1,2))
 849:C:/Users/stapi/OneDrive/Desktop/GD32VW553/GD32VW55X_Wifi_BLE_SDK/GD32VW55x_RELEASE_V1.0.2/MSDK/plf/GD32VW55x_standard_peripheral/Source\gd32vw55x_timer.c ****       \arg        TIMER_CH_3: TIMER channel3(TIMERx(x=0,1,2))
 850:C:/Users/stapi/OneDrive/Desktop/GD32VW553/GD32VW55X_Wifi_BLE_SDK/GD32VW55x_RELEASE_V1.0.2/MSDK/plf/GD32VW55x_standard_peripheral/Source\gd32vw55x_timer.c ****     \param[in]  pulse: channel output pulse value
 851:C:/Users/stapi/OneDrive/Desktop/GD32VW553/GD32VW55X_Wifi_BLE_SDK/GD32VW55x_RELEASE_V1.0.2/MSDK/plf/GD32VW55x_standard_peripheral/Source\gd32vw55x_timer.c ****     \param[out] none
 852:C:/Users/stapi/OneDrive/Desktop/GD32VW553/GD32VW55X_Wifi_BLE_SDK/GD32VW55x_RELEASE_V1.0.2/MSDK/plf/GD32VW55x_standard_peripheral/Source\gd32vw55x_timer.c ****     \retval     none
 853:C:/Users/stapi/OneDrive/Desktop/GD32VW553/GD32VW55X_Wifi_BLE_SDK/GD32VW55x_RELEASE_V1.0.2/MSDK/plf/GD32VW55x_standard_peripheral/Source\gd32vw55x_timer.c **** */
 854:C:/Users/stapi/OneDrive/Desktop/GD32VW553/GD32VW55X_Wifi_BLE_SDK/GD32VW55x_RELEASE_V1.0.2/MSDK/plf/GD32VW55x_standard_peripheral/Source\gd32vw55x_timer.c **** void timer_channel_output_pulse_value_config(uint32_t timer_periph, uint16_t channel, uint32_t puls
 855:C:/Users/stapi/OneDrive/Desktop/GD32VW553/GD32VW55X_Wifi_BLE_SDK/GD32VW55x_RELEASE_V1.0.2/MSDK/plf/GD32VW55x_standard_peripheral/Source\gd32vw55x_timer.c **** {
 1471              		.loc 1 855 1 is_stmt 1
 1472              		.cfi_startproc
 1473              	.LVL71:
 856:C:/Users/stapi/OneDrive/Desktop/GD32VW553/GD32VW55X_Wifi_BLE_SDK/GD32VW55x_RELEASE_V1.0.2/MSDK/plf/GD32VW55x_standard_peripheral/Source\gd32vw55x_timer.c ****     switch(channel){
 1474              		.loc 1 856 5
 1475 0000 8947     		li	a5,2
 1476 0002 638DF500 		beq	a1,a5,.L93
 1477 0006 63E5B700 		bgtu	a1,a5,.L94
 1478 000a 99E5     		bne	a1,zero,.L99
 857:C:/Users/stapi/OneDrive/Desktop/GD32VW553/GD32VW55X_Wifi_BLE_SDK/GD32VW55x_RELEASE_V1.0.2/MSDK/plf/GD32VW55x_standard_peripheral/Source\gd32vw55x_timer.c ****     /* configure TIMER_CH_0 */
 858:C:/Users/stapi/OneDrive/Desktop/GD32VW553/GD32VW55X_Wifi_BLE_SDK/GD32VW55x_RELEASE_V1.0.2/MSDK/plf/GD32VW55x_standard_peripheral/Source\gd32vw55x_timer.c ****     case TIMER_CH_0:
 859:C:/Users/stapi/OneDrive/Desktop/GD32VW553/GD32VW55X_Wifi_BLE_SDK/GD32VW55x_RELEASE_V1.0.2/MSDK/plf/GD32VW55x_standard_peripheral/Source\gd32vw55x_timer.c ****         TIMER_CH0CV(timer_periph) = (uint32_t)pulse;
 1479              		.loc 1 859 9
 1480              		.loc 1 859 35 is_stmt 0
 1481 000c 50D9     		sw	a2,52(a0)
 860:C:/Users/stapi/OneDrive/Desktop/GD32VW553/GD32VW55X_Wifi_BLE_SDK/GD32VW55x_RELEASE_V1.0.2/MSDK/plf/GD32VW55x_standard_peripheral/Source\gd32vw55x_timer.c ****         break;
 1482              		.loc 1 860 9 is_stmt 1
 1483 000e 8280     		ret
 1484              	.L94:
 856:C:/Users/stapi/OneDrive/Desktop/GD32VW553/GD32VW55X_Wifi_BLE_SDK/GD32VW55x_RELEASE_V1.0.2/MSDK/plf/GD32VW55x_standard_peripheral/Source\gd32vw55x_timer.c ****     switch(channel){
 1485              		.loc 1 856 5 is_stmt 0
 1486 0010 8D47     		li	a5,3
 1487 0012 6387F500 		beq	a1,a5,.L97
 1488 0016 8280     		ret
 1489              	.L99:
 861:C:/Users/stapi/OneDrive/Desktop/GD32VW553/GD32VW55X_Wifi_BLE_SDK/GD32VW55x_RELEASE_V1.0.2/MSDK/plf/GD32VW55x_standard_peripheral/Source\gd32vw55x_timer.c ****     /* configure TIMER_CH_1 */
 862:C:/Users/stapi/OneDrive/Desktop/GD32VW553/GD32VW55X_Wifi_BLE_SDK/GD32VW55x_RELEASE_V1.0.2/MSDK/plf/GD32VW55x_standard_peripheral/Source\gd32vw55x_timer.c ****     case TIMER_CH_1:
 863:C:/Users/stapi/OneDrive/Desktop/GD32VW553/GD32VW55X_Wifi_BLE_SDK/GD32VW55x_RELEASE_V1.0.2/MSDK/plf/GD32VW55x_standard_peripheral/Source\gd32vw55x_timer.c ****         TIMER_CH1CV(timer_periph) = (uint32_t)pulse;
 1490              		.loc 1 863 9 is_stmt 1
 1491              		.loc 1 863 35 is_stmt 0
 1492 0018 10DD     		sw	a2,56(a0)
 864:C:/Users/stapi/OneDrive/Desktop/GD32VW553/GD32VW55X_Wifi_BLE_SDK/GD32VW55x_RELEASE_V1.0.2/MSDK/plf/GD32VW55x_standard_peripheral/Source\gd32vw55x_timer.c ****         break;
 1493              		.loc 1 864 9 is_stmt 1
 1494 001a 8280     		ret
 1495              	.L93:
 865:C:/Users/stapi/OneDrive/Desktop/GD32VW553/GD32VW55X_Wifi_BLE_SDK/GD32VW55x_RELEASE_V1.0.2/MSDK/plf/GD32VW55x_standard_peripheral/Source\gd32vw55x_timer.c ****     /* configure TIMER_CH_2 */
 866:C:/Users/stapi/OneDrive/Desktop/GD32VW553/GD32VW55X_Wifi_BLE_SDK/GD32VW55x_RELEASE_V1.0.2/MSDK/plf/GD32VW55x_standard_peripheral/Source\gd32vw55x_timer.c ****     case TIMER_CH_2:
 867:C:/Users/stapi/OneDrive/Desktop/GD32VW553/GD32VW55X_Wifi_BLE_SDK/GD32VW55x_RELEASE_V1.0.2/MSDK/plf/GD32VW55x_standard_peripheral/Source\gd32vw55x_timer.c ****         TIMER_CH2CV(timer_periph) = (uint32_t)pulse;
 1496              		.loc 1 867 9
 1497              		.loc 1 867 35 is_stmt 0
 1498 001c 50DD     		sw	a2,60(a0)
 868:C:/Users/stapi/OneDrive/Desktop/GD32VW553/GD32VW55X_Wifi_BLE_SDK/GD32VW55x_RELEASE_V1.0.2/MSDK/plf/GD32VW55x_standard_peripheral/Source\gd32vw55x_timer.c ****         break;
 1499              		.loc 1 868 9 is_stmt 1
 1500 001e 8280     		ret
 1501              	.L97:
 869:C:/Users/stapi/OneDrive/Desktop/GD32VW553/GD32VW55X_Wifi_BLE_SDK/GD32VW55x_RELEASE_V1.0.2/MSDK/plf/GD32VW55x_standard_peripheral/Source\gd32vw55x_timer.c ****     /* configure TIMER_CH_3 */
 870:C:/Users/stapi/OneDrive/Desktop/GD32VW553/GD32VW55X_Wifi_BLE_SDK/GD32VW55x_RELEASE_V1.0.2/MSDK/plf/GD32VW55x_standard_peripheral/Source\gd32vw55x_timer.c ****     case TIMER_CH_3:
 871:C:/Users/stapi/OneDrive/Desktop/GD32VW553/GD32VW55X_Wifi_BLE_SDK/GD32VW55x_RELEASE_V1.0.2/MSDK/plf/GD32VW55x_standard_peripheral/Source\gd32vw55x_timer.c ****         TIMER_CH3CV(timer_periph) = (uint32_t)pulse;
 1502              		.loc 1 871 9
 1503              		.loc 1 871 35 is_stmt 0
 1504 0020 30C1     		sw	a2,64(a0)
 872:C:/Users/stapi/OneDrive/Desktop/GD32VW553/GD32VW55X_Wifi_BLE_SDK/GD32VW55x_RELEASE_V1.0.2/MSDK/plf/GD32VW55x_standard_peripheral/Source\gd32vw55x_timer.c ****         break;
 1505              		.loc 1 872 9 is_stmt 1
 873:C:/Users/stapi/OneDrive/Desktop/GD32VW553/GD32VW55X_Wifi_BLE_SDK/GD32VW55x_RELEASE_V1.0.2/MSDK/plf/GD32VW55x_standard_peripheral/Source\gd32vw55x_timer.c ****     default:
 874:C:/Users/stapi/OneDrive/Desktop/GD32VW553/GD32VW55X_Wifi_BLE_SDK/GD32VW55x_RELEASE_V1.0.2/MSDK/plf/GD32VW55x_standard_peripheral/Source\gd32vw55x_timer.c ****         break;
 875:C:/Users/stapi/OneDrive/Desktop/GD32VW553/GD32VW55X_Wifi_BLE_SDK/GD32VW55x_RELEASE_V1.0.2/MSDK/plf/GD32VW55x_standard_peripheral/Source\gd32vw55x_timer.c ****     }
 876:C:/Users/stapi/OneDrive/Desktop/GD32VW553/GD32VW55X_Wifi_BLE_SDK/GD32VW55x_RELEASE_V1.0.2/MSDK/plf/GD32VW55x_standard_peripheral/Source\gd32vw55x_timer.c **** }
 1506              		.loc 1 876 1 is_stmt 0
 1507 0022 8280     		ret
 1508              		.cfi_endproc
 1509              	.LFE402:
 1511              		.section	.text.timer_channel_output_shadow_config,"ax",@progbits
 1512              		.align	1
 1513              		.globl	timer_channel_output_shadow_config
 1515              	timer_channel_output_shadow_config:
 1516              	.LFB403:
 877:C:/Users/stapi/OneDrive/Desktop/GD32VW553/GD32VW55X_Wifi_BLE_SDK/GD32VW55x_RELEASE_V1.0.2/MSDK/plf/GD32VW55x_standard_peripheral/Source\gd32vw55x_timer.c **** 
 878:C:/Users/stapi/OneDrive/Desktop/GD32VW553/GD32VW55X_Wifi_BLE_SDK/GD32VW55x_RELEASE_V1.0.2/MSDK/plf/GD32VW55x_standard_peripheral/Source\gd32vw55x_timer.c **** /*!
 879:C:/Users/stapi/OneDrive/Desktop/GD32VW553/GD32VW55X_Wifi_BLE_SDK/GD32VW55x_RELEASE_V1.0.2/MSDK/plf/GD32VW55x_standard_peripheral/Source\gd32vw55x_timer.c ****     \brief      configure TIMER channel output shadow function
 880:C:/Users/stapi/OneDrive/Desktop/GD32VW553/GD32VW55X_Wifi_BLE_SDK/GD32VW55x_RELEASE_V1.0.2/MSDK/plf/GD32VW55x_standard_peripheral/Source\gd32vw55x_timer.c ****     \param[in]  timer_periph: please refer to the following parameters
 881:C:/Users/stapi/OneDrive/Desktop/GD32VW553/GD32VW55X_Wifi_BLE_SDK/GD32VW55x_RELEASE_V1.0.2/MSDK/plf/GD32VW55x_standard_peripheral/Source\gd32vw55x_timer.c ****     \param[in]  channel:
 882:C:/Users/stapi/OneDrive/Desktop/GD32VW553/GD32VW55X_Wifi_BLE_SDK/GD32VW55x_RELEASE_V1.0.2/MSDK/plf/GD32VW55x_standard_peripheral/Source\gd32vw55x_timer.c ****                 only one parameter can be selected which is shown as below:
 883:C:/Users/stapi/OneDrive/Desktop/GD32VW553/GD32VW55X_Wifi_BLE_SDK/GD32VW55x_RELEASE_V1.0.2/MSDK/plf/GD32VW55x_standard_peripheral/Source\gd32vw55x_timer.c ****       \arg        TIMER_CH_0: TIMER channel0(TIMERx(x=0,1,2,15,16))
 884:C:/Users/stapi/OneDrive/Desktop/GD32VW553/GD32VW55X_Wifi_BLE_SDK/GD32VW55x_RELEASE_V1.0.2/MSDK/plf/GD32VW55x_standard_peripheral/Source\gd32vw55x_timer.c ****       \arg        TIMER_CH_1: TIMER channel1(TIMERx(x=0,1,2))
 885:C:/Users/stapi/OneDrive/Desktop/GD32VW553/GD32VW55X_Wifi_BLE_SDK/GD32VW55x_RELEASE_V1.0.2/MSDK/plf/GD32VW55x_standard_peripheral/Source\gd32vw55x_timer.c ****       \arg        TIMER_CH_2: TIMER channel2(TIMERx(x=0,1,2))
 886:C:/Users/stapi/OneDrive/Desktop/GD32VW553/GD32VW55X_Wifi_BLE_SDK/GD32VW55x_RELEASE_V1.0.2/MSDK/plf/GD32VW55x_standard_peripheral/Source\gd32vw55x_timer.c ****       \arg        TIMER_CH_3: TIMER channel3(TIMERx(x=0,1,2))
 887:C:/Users/stapi/OneDrive/Desktop/GD32VW553/GD32VW55X_Wifi_BLE_SDK/GD32VW55x_RELEASE_V1.0.2/MSDK/plf/GD32VW55x_standard_peripheral/Source\gd32vw55x_timer.c ****     \param[in]  ocshadow: channel output shadow state
 888:C:/Users/stapi/OneDrive/Desktop/GD32VW553/GD32VW55X_Wifi_BLE_SDK/GD32VW55x_RELEASE_V1.0.2/MSDK/plf/GD32VW55x_standard_peripheral/Source\gd32vw55x_timer.c ****                 only one parameter can be selected which is shown as below:
 889:C:/Users/stapi/OneDrive/Desktop/GD32VW553/GD32VW55X_Wifi_BLE_SDK/GD32VW55x_RELEASE_V1.0.2/MSDK/plf/GD32VW55x_standard_peripheral/Source\gd32vw55x_timer.c ****       \arg        TIMER_OC_SHADOW_ENABLE: channel output shadow state enable
 890:C:/Users/stapi/OneDrive/Desktop/GD32VW553/GD32VW55X_Wifi_BLE_SDK/GD32VW55x_RELEASE_V1.0.2/MSDK/plf/GD32VW55x_standard_peripheral/Source\gd32vw55x_timer.c ****       \arg        TIMER_OC_SHADOW_DISABLE: channel output shadow state disable
 891:C:/Users/stapi/OneDrive/Desktop/GD32VW553/GD32VW55X_Wifi_BLE_SDK/GD32VW55x_RELEASE_V1.0.2/MSDK/plf/GD32VW55x_standard_peripheral/Source\gd32vw55x_timer.c ****     \param[out] none
 892:C:/Users/stapi/OneDrive/Desktop/GD32VW553/GD32VW55X_Wifi_BLE_SDK/GD32VW55x_RELEASE_V1.0.2/MSDK/plf/GD32VW55x_standard_peripheral/Source\gd32vw55x_timer.c ****     \retval     none
 893:C:/Users/stapi/OneDrive/Desktop/GD32VW553/GD32VW55X_Wifi_BLE_SDK/GD32VW55x_RELEASE_V1.0.2/MSDK/plf/GD32VW55x_standard_peripheral/Source\gd32vw55x_timer.c **** */
 894:C:/Users/stapi/OneDrive/Desktop/GD32VW553/GD32VW55X_Wifi_BLE_SDK/GD32VW55x_RELEASE_V1.0.2/MSDK/plf/GD32VW55x_standard_peripheral/Source\gd32vw55x_timer.c **** void timer_channel_output_shadow_config(uint32_t timer_periph, uint16_t channel, uint16_t ocshadow)
 895:C:/Users/stapi/OneDrive/Desktop/GD32VW553/GD32VW55X_Wifi_BLE_SDK/GD32VW55x_RELEASE_V1.0.2/MSDK/plf/GD32VW55x_standard_peripheral/Source\gd32vw55x_timer.c **** {
 1517              		.loc 1 895 1 is_stmt 1
 1518              		.cfi_startproc
 1519              	.LVL72:
 896:C:/Users/stapi/OneDrive/Desktop/GD32VW553/GD32VW55X_Wifi_BLE_SDK/GD32VW55x_RELEASE_V1.0.2/MSDK/plf/GD32VW55x_standard_peripheral/Source\gd32vw55x_timer.c ****     switch(channel){
 1520              		.loc 1 896 5
 1521 0000 8947     		li	a5,2
 1522 0002 6387F502 		beq	a1,a5,.L101
 1523 0006 63EAB700 		bgtu	a1,a5,.L102
 1524 000a 81ED     		bne	a1,zero,.L107
 897:C:/Users/stapi/OneDrive/Desktop/GD32VW553/GD32VW55X_Wifi_BLE_SDK/GD32VW55x_RELEASE_V1.0.2/MSDK/plf/GD32VW55x_standard_peripheral/Source\gd32vw55x_timer.c ****     /* configure TIMER_CH_0 */
 898:C:/Users/stapi/OneDrive/Desktop/GD32VW553/GD32VW55X_Wifi_BLE_SDK/GD32VW55x_RELEASE_V1.0.2/MSDK/plf/GD32VW55x_standard_peripheral/Source\gd32vw55x_timer.c ****     case TIMER_CH_0:
 899:C:/Users/stapi/OneDrive/Desktop/GD32VW553/GD32VW55X_Wifi_BLE_SDK/GD32VW55x_RELEASE_V1.0.2/MSDK/plf/GD32VW55x_standard_peripheral/Source\gd32vw55x_timer.c ****         TIMER_CHCTL0(timer_periph) &= (~(uint32_t)TIMER_CHCTL0_CH0COMSEN);
 1525              		.loc 1 899 9
 1526              		.loc 1 899 36 is_stmt 0
 1527 000c 1C4D     		lw	a5,24(a0)
 1528 000e DD9B     		andi	a5,a5,-9
 1529 0010 1CCD     		sw	a5,24(a0)
 900:C:/Users/stapi/OneDrive/Desktop/GD32VW553/GD32VW55X_Wifi_BLE_SDK/GD32VW55x_RELEASE_V1.0.2/MSDK/plf/GD32VW55x_standard_peripheral/Source\gd32vw55x_timer.c ****         TIMER_CHCTL0(timer_periph) |= (uint32_t)ocshadow;
 1530              		.loc 1 900 9 is_stmt 1
 1531              		.loc 1 900 36 is_stmt 0
 1532 0012 1C4D     		lw	a5,24(a0)
 1533              	.LVL73:
 1534              	.L108:
 901:C:/Users/stapi/OneDrive/Desktop/GD32VW553/GD32VW55X_Wifi_BLE_SDK/GD32VW55x_RELEASE_V1.0.2/MSDK/plf/GD32VW55x_standard_peripheral/Source\gd32vw55x_timer.c ****         break;
 902:C:/Users/stapi/OneDrive/Desktop/GD32VW553/GD32VW55X_Wifi_BLE_SDK/GD32VW55x_RELEASE_V1.0.2/MSDK/plf/GD32VW55x_standard_peripheral/Source\gd32vw55x_timer.c ****     /* configure TIMER_CH_1 */
 903:C:/Users/stapi/OneDrive/Desktop/GD32VW553/GD32VW55X_Wifi_BLE_SDK/GD32VW55x_RELEASE_V1.0.2/MSDK/plf/GD32VW55x_standard_peripheral/Source\gd32vw55x_timer.c ****     case TIMER_CH_1:
 904:C:/Users/stapi/OneDrive/Desktop/GD32VW553/GD32VW55X_Wifi_BLE_SDK/GD32VW55x_RELEASE_V1.0.2/MSDK/plf/GD32VW55x_standard_peripheral/Source\gd32vw55x_timer.c ****         TIMER_CHCTL0(timer_periph) &= (~(uint32_t)TIMER_CHCTL0_CH1COMSEN);
 905:C:/Users/stapi/OneDrive/Desktop/GD32VW553/GD32VW55X_Wifi_BLE_SDK/GD32VW55x_RELEASE_V1.0.2/MSDK/plf/GD32VW55x_standard_peripheral/Source\gd32vw55x_timer.c ****         TIMER_CHCTL0(timer_periph) |= (uint32_t)((uint32_t)(ocshadow) << 8U);
 1535              		.loc 1 905 36
 1536 0014 5D8E     		or	a2,a2,a5
 1537 0016 10CD     		sw	a2,24(a0)
 906:C:/Users/stapi/OneDrive/Desktop/GD32VW553/GD32VW55X_Wifi_BLE_SDK/GD32VW55x_RELEASE_V1.0.2/MSDK/plf/GD32VW55x_standard_peripheral/Source\gd32vw55x_timer.c ****         break;
 1538              		.loc 1 906 9 is_stmt 1
 1539 0018 8280     		ret
 1540              	.LVL74:
 1541              	.L102:
 896:C:/Users/stapi/OneDrive/Desktop/GD32VW553/GD32VW55X_Wifi_BLE_SDK/GD32VW55x_RELEASE_V1.0.2/MSDK/plf/GD32VW55x_standard_peripheral/Source\gd32vw55x_timer.c ****     /* configure TIMER_CH_0 */
 1542              		.loc 1 896 5 is_stmt 0
 1543 001a 8D47     		li	a5,3
 1544 001c 6381F502 		beq	a1,a5,.L105
 1545 0020 8280     		ret
 1546              	.L107:
 904:C:/Users/stapi/OneDrive/Desktop/GD32VW553/GD32VW55X_Wifi_BLE_SDK/GD32VW55x_RELEASE_V1.0.2/MSDK/plf/GD32VW55x_standard_peripheral/Source\gd32vw55x_timer.c ****         TIMER_CHCTL0(timer_periph) |= (uint32_t)((uint32_t)(ocshadow) << 8U);
 1547              		.loc 1 904 9 is_stmt 1
 904:C:/Users/stapi/OneDrive/Desktop/GD32VW553/GD32VW55X_Wifi_BLE_SDK/GD32VW55x_RELEASE_V1.0.2/MSDK/plf/GD32VW55x_standard_peripheral/Source\gd32vw55x_timer.c ****         TIMER_CHCTL0(timer_periph) |= (uint32_t)((uint32_t)(ocshadow) << 8U);
 1548              		.loc 1 904 36 is_stmt 0
 1549 0022 1C4D     		lw	a5,24(a0)
 905:C:/Users/stapi/OneDrive/Desktop/GD32VW553/GD32VW55X_Wifi_BLE_SDK/GD32VW55x_RELEASE_V1.0.2/MSDK/plf/GD32VW55x_standard_peripheral/Source\gd32vw55x_timer.c ****         break;
 1550              		.loc 1 905 39
 1551 0024 2206     		slli	a2,a2,8
 1552              	.LVL75:
 904:C:/Users/stapi/OneDrive/Desktop/GD32VW553/GD32VW55X_Wifi_BLE_SDK/GD32VW55x_RELEASE_V1.0.2/MSDK/plf/GD32VW55x_standard_peripheral/Source\gd32vw55x_timer.c ****         TIMER_CHCTL0(timer_periph) |= (uint32_t)((uint32_t)(ocshadow) << 8U);
 1553              		.loc 1 904 36
 1554 0026 9397B748 		bclri	a5,a5,11
 1555 002a 1CCD     		sw	a5,24(a0)
 905:C:/Users/stapi/OneDrive/Desktop/GD32VW553/GD32VW55X_Wifi_BLE_SDK/GD32VW55x_RELEASE_V1.0.2/MSDK/plf/GD32VW55x_standard_peripheral/Source\gd32vw55x_timer.c ****         break;
 1556              		.loc 1 905 9 is_stmt 1
 905:C:/Users/stapi/OneDrive/Desktop/GD32VW553/GD32VW55X_Wifi_BLE_SDK/GD32VW55x_RELEASE_V1.0.2/MSDK/plf/GD32VW55x_standard_peripheral/Source\gd32vw55x_timer.c ****         break;
 1557              		.loc 1 905 36 is_stmt 0
 1558 002c 1C4D     		lw	a5,24(a0)
 1559 002e DDB7     		j	.L108
 1560              	.LVL76:
 1561              	.L101:
 907:C:/Users/stapi/OneDrive/Desktop/GD32VW553/GD32VW55X_Wifi_BLE_SDK/GD32VW55x_RELEASE_V1.0.2/MSDK/plf/GD32VW55x_standard_peripheral/Source\gd32vw55x_timer.c ****     /* configure TIMER_CH_2 */
 908:C:/Users/stapi/OneDrive/Desktop/GD32VW553/GD32VW55X_Wifi_BLE_SDK/GD32VW55x_RELEASE_V1.0.2/MSDK/plf/GD32VW55x_standard_peripheral/Source\gd32vw55x_timer.c ****     case TIMER_CH_2:
 909:C:/Users/stapi/OneDrive/Desktop/GD32VW553/GD32VW55X_Wifi_BLE_SDK/GD32VW55x_RELEASE_V1.0.2/MSDK/plf/GD32VW55x_standard_peripheral/Source\gd32vw55x_timer.c ****         TIMER_CHCTL1(timer_periph) &= (~(uint32_t)TIMER_CHCTL1_CH2COMSEN);
 1562              		.loc 1 909 9 is_stmt 1
 1563              		.loc 1 909 36 is_stmt 0
 1564 0030 5C4D     		lw	a5,28(a0)
 1565 0032 DD9B     		andi	a5,a5,-9
 1566 0034 5CCD     		sw	a5,28(a0)
 910:C:/Users/stapi/OneDrive/Desktop/GD32VW553/GD32VW55X_Wifi_BLE_SDK/GD32VW55x_RELEASE_V1.0.2/MSDK/plf/GD32VW55x_standard_peripheral/Source\gd32vw55x_timer.c ****         TIMER_CHCTL1(timer_periph) |= (uint32_t)ocshadow;
 1567              		.loc 1 910 9 is_stmt 1
 1568              		.loc 1 910 36 is_stmt 0
 1569 0036 5C4D     		lw	a5,28(a0)
 1570              	.LVL77:
 1571              	.L109:
 911:C:/Users/stapi/OneDrive/Desktop/GD32VW553/GD32VW55X_Wifi_BLE_SDK/GD32VW55x_RELEASE_V1.0.2/MSDK/plf/GD32VW55x_standard_peripheral/Source\gd32vw55x_timer.c ****         break;
 912:C:/Users/stapi/OneDrive/Desktop/GD32VW553/GD32VW55X_Wifi_BLE_SDK/GD32VW55x_RELEASE_V1.0.2/MSDK/plf/GD32VW55x_standard_peripheral/Source\gd32vw55x_timer.c ****     /* configure TIMER_CH_3 */
 913:C:/Users/stapi/OneDrive/Desktop/GD32VW553/GD32VW55X_Wifi_BLE_SDK/GD32VW55x_RELEASE_V1.0.2/MSDK/plf/GD32VW55x_standard_peripheral/Source\gd32vw55x_timer.c ****     case TIMER_CH_3:
 914:C:/Users/stapi/OneDrive/Desktop/GD32VW553/GD32VW55X_Wifi_BLE_SDK/GD32VW55x_RELEASE_V1.0.2/MSDK/plf/GD32VW55x_standard_peripheral/Source\gd32vw55x_timer.c ****         TIMER_CHCTL1(timer_periph) &= (~(uint32_t)TIMER_CHCTL1_CH3COMSEN);
 915:C:/Users/stapi/OneDrive/Desktop/GD32VW553/GD32VW55X_Wifi_BLE_SDK/GD32VW55x_RELEASE_V1.0.2/MSDK/plf/GD32VW55x_standard_peripheral/Source\gd32vw55x_timer.c ****         TIMER_CHCTL1(timer_periph) |= (uint32_t)((uint32_t)(ocshadow) << 8U);
 1572              		.loc 1 915 36
 1573 0038 5D8E     		or	a2,a2,a5
 1574 003a 50CD     		sw	a2,28(a0)
 916:C:/Users/stapi/OneDrive/Desktop/GD32VW553/GD32VW55X_Wifi_BLE_SDK/GD32VW55x_RELEASE_V1.0.2/MSDK/plf/GD32VW55x_standard_peripheral/Source\gd32vw55x_timer.c ****         break;
 1575              		.loc 1 916 9 is_stmt 1
 917:C:/Users/stapi/OneDrive/Desktop/GD32VW553/GD32VW55X_Wifi_BLE_SDK/GD32VW55x_RELEASE_V1.0.2/MSDK/plf/GD32VW55x_standard_peripheral/Source\gd32vw55x_timer.c ****     default:
 918:C:/Users/stapi/OneDrive/Desktop/GD32VW553/GD32VW55X_Wifi_BLE_SDK/GD32VW55x_RELEASE_V1.0.2/MSDK/plf/GD32VW55x_standard_peripheral/Source\gd32vw55x_timer.c ****         break;
 919:C:/Users/stapi/OneDrive/Desktop/GD32VW553/GD32VW55X_Wifi_BLE_SDK/GD32VW55x_RELEASE_V1.0.2/MSDK/plf/GD32VW55x_standard_peripheral/Source\gd32vw55x_timer.c ****     }
 920:C:/Users/stapi/OneDrive/Desktop/GD32VW553/GD32VW55X_Wifi_BLE_SDK/GD32VW55x_RELEASE_V1.0.2/MSDK/plf/GD32VW55x_standard_peripheral/Source\gd32vw55x_timer.c **** }
 1576              		.loc 1 920 1 is_stmt 0
 1577 003c 8280     		ret
 1578              	.LVL78:
 1579              	.L105:
 914:C:/Users/stapi/OneDrive/Desktop/GD32VW553/GD32VW55X_Wifi_BLE_SDK/GD32VW55x_RELEASE_V1.0.2/MSDK/plf/GD32VW55x_standard_peripheral/Source\gd32vw55x_timer.c ****         TIMER_CHCTL1(timer_periph) |= (uint32_t)((uint32_t)(ocshadow) << 8U);
 1580              		.loc 1 914 9 is_stmt 1
 914:C:/Users/stapi/OneDrive/Desktop/GD32VW553/GD32VW55X_Wifi_BLE_SDK/GD32VW55x_RELEASE_V1.0.2/MSDK/plf/GD32VW55x_standard_peripheral/Source\gd32vw55x_timer.c ****         TIMER_CHCTL1(timer_periph) |= (uint32_t)((uint32_t)(ocshadow) << 8U);
 1581              		.loc 1 914 36 is_stmt 0
 1582 003e 5C4D     		lw	a5,28(a0)
 915:C:/Users/stapi/OneDrive/Desktop/GD32VW553/GD32VW55X_Wifi_BLE_SDK/GD32VW55x_RELEASE_V1.0.2/MSDK/plf/GD32VW55x_standard_peripheral/Source\gd32vw55x_timer.c ****         break;
 1583              		.loc 1 915 39
 1584 0040 2206     		slli	a2,a2,8
 1585              	.LVL79:
 914:C:/Users/stapi/OneDrive/Desktop/GD32VW553/GD32VW55X_Wifi_BLE_SDK/GD32VW55x_RELEASE_V1.0.2/MSDK/plf/GD32VW55x_standard_peripheral/Source\gd32vw55x_timer.c ****         TIMER_CHCTL1(timer_periph) |= (uint32_t)((uint32_t)(ocshadow) << 8U);
 1586              		.loc 1 914 36
 1587 0042 9397B748 		bclri	a5,a5,11
 1588 0046 5CCD     		sw	a5,28(a0)
 915:C:/Users/stapi/OneDrive/Desktop/GD32VW553/GD32VW55X_Wifi_BLE_SDK/GD32VW55x_RELEASE_V1.0.2/MSDK/plf/GD32VW55x_standard_peripheral/Source\gd32vw55x_timer.c ****         break;
 1589              		.loc 1 915 9 is_stmt 1
 915:C:/Users/stapi/OneDrive/Desktop/GD32VW553/GD32VW55X_Wifi_BLE_SDK/GD32VW55x_RELEASE_V1.0.2/MSDK/plf/GD32VW55x_standard_peripheral/Source\gd32vw55x_timer.c ****         break;
 1590              		.loc 1 915 36 is_stmt 0
 1591 0048 5C4D     		lw	a5,28(a0)
 1592 004a FDB7     		j	.L109
 1593              		.cfi_endproc
 1594              	.LFE403:
 1596              		.section	.text.timer_channel_output_fast_config,"ax",@progbits
 1597              		.align	1
 1598              		.globl	timer_channel_output_fast_config
 1600              	timer_channel_output_fast_config:
 1601              	.LFB404:
 921:C:/Users/stapi/OneDrive/Desktop/GD32VW553/GD32VW55X_Wifi_BLE_SDK/GD32VW55x_RELEASE_V1.0.2/MSDK/plf/GD32VW55x_standard_peripheral/Source\gd32vw55x_timer.c **** 
 922:C:/Users/stapi/OneDrive/Desktop/GD32VW553/GD32VW55X_Wifi_BLE_SDK/GD32VW55x_RELEASE_V1.0.2/MSDK/plf/GD32VW55x_standard_peripheral/Source\gd32vw55x_timer.c **** /*!
 923:C:/Users/stapi/OneDrive/Desktop/GD32VW553/GD32VW55X_Wifi_BLE_SDK/GD32VW55x_RELEASE_V1.0.2/MSDK/plf/GD32VW55x_standard_peripheral/Source\gd32vw55x_timer.c ****     \brief      configure TIMER channel output fast function
 924:C:/Users/stapi/OneDrive/Desktop/GD32VW553/GD32VW55X_Wifi_BLE_SDK/GD32VW55x_RELEASE_V1.0.2/MSDK/plf/GD32VW55x_standard_peripheral/Source\gd32vw55x_timer.c ****     \param[in]  timer_periph: please refer to the following parameters
 925:C:/Users/stapi/OneDrive/Desktop/GD32VW553/GD32VW55X_Wifi_BLE_SDK/GD32VW55x_RELEASE_V1.0.2/MSDK/plf/GD32VW55x_standard_peripheral/Source\gd32vw55x_timer.c ****     \param[in]  channel:
 926:C:/Users/stapi/OneDrive/Desktop/GD32VW553/GD32VW55X_Wifi_BLE_SDK/GD32VW55x_RELEASE_V1.0.2/MSDK/plf/GD32VW55x_standard_peripheral/Source\gd32vw55x_timer.c ****                 only one parameter can be selected which is shown as below:
 927:C:/Users/stapi/OneDrive/Desktop/GD32VW553/GD32VW55X_Wifi_BLE_SDK/GD32VW55x_RELEASE_V1.0.2/MSDK/plf/GD32VW55x_standard_peripheral/Source\gd32vw55x_timer.c ****       \arg        TIMER_CH_0: TIMER channel0(TIMERx(x=0,1,2,15,16))
 928:C:/Users/stapi/OneDrive/Desktop/GD32VW553/GD32VW55X_Wifi_BLE_SDK/GD32VW55x_RELEASE_V1.0.2/MSDK/plf/GD32VW55x_standard_peripheral/Source\gd32vw55x_timer.c ****       \arg        TIMER_CH_1: TIMER channel1(TIMERx(x=0,1,2))
 929:C:/Users/stapi/OneDrive/Desktop/GD32VW553/GD32VW55X_Wifi_BLE_SDK/GD32VW55x_RELEASE_V1.0.2/MSDK/plf/GD32VW55x_standard_peripheral/Source\gd32vw55x_timer.c ****       \arg        TIMER_CH_2: TIMER channel2(TIMERx(x=0,1,2))
 930:C:/Users/stapi/OneDrive/Desktop/GD32VW553/GD32VW55X_Wifi_BLE_SDK/GD32VW55x_RELEASE_V1.0.2/MSDK/plf/GD32VW55x_standard_peripheral/Source\gd32vw55x_timer.c ****       \arg        TIMER_CH_3: TIMER channel3(TIMERx(x=0,1,2))
 931:C:/Users/stapi/OneDrive/Desktop/GD32VW553/GD32VW55X_Wifi_BLE_SDK/GD32VW55x_RELEASE_V1.0.2/MSDK/plf/GD32VW55x_standard_peripheral/Source\gd32vw55x_timer.c ****     \param[in]  ocfast: channel output fast function
 932:C:/Users/stapi/OneDrive/Desktop/GD32VW553/GD32VW55X_Wifi_BLE_SDK/GD32VW55x_RELEASE_V1.0.2/MSDK/plf/GD32VW55x_standard_peripheral/Source\gd32vw55x_timer.c ****                 only one parameter can be selected which is shown as below:
 933:C:/Users/stapi/OneDrive/Desktop/GD32VW553/GD32VW55X_Wifi_BLE_SDK/GD32VW55x_RELEASE_V1.0.2/MSDK/plf/GD32VW55x_standard_peripheral/Source\gd32vw55x_timer.c ****       \arg        TIMER_OC_FAST_ENABLE: channel output fast function enable
 934:C:/Users/stapi/OneDrive/Desktop/GD32VW553/GD32VW55X_Wifi_BLE_SDK/GD32VW55x_RELEASE_V1.0.2/MSDK/plf/GD32VW55x_standard_peripheral/Source\gd32vw55x_timer.c ****       \arg        TIMER_OC_FAST_DISABLE: channel output fast function disable
 935:C:/Users/stapi/OneDrive/Desktop/GD32VW553/GD32VW55X_Wifi_BLE_SDK/GD32VW55x_RELEASE_V1.0.2/MSDK/plf/GD32VW55x_standard_peripheral/Source\gd32vw55x_timer.c ****     \param[out] none
 936:C:/Users/stapi/OneDrive/Desktop/GD32VW553/GD32VW55X_Wifi_BLE_SDK/GD32VW55x_RELEASE_V1.0.2/MSDK/plf/GD32VW55x_standard_peripheral/Source\gd32vw55x_timer.c ****     \retval     none
 937:C:/Users/stapi/OneDrive/Desktop/GD32VW553/GD32VW55X_Wifi_BLE_SDK/GD32VW55x_RELEASE_V1.0.2/MSDK/plf/GD32VW55x_standard_peripheral/Source\gd32vw55x_timer.c **** */
 938:C:/Users/stapi/OneDrive/Desktop/GD32VW553/GD32VW55X_Wifi_BLE_SDK/GD32VW55x_RELEASE_V1.0.2/MSDK/plf/GD32VW55x_standard_peripheral/Source\gd32vw55x_timer.c **** void timer_channel_output_fast_config(uint32_t timer_periph, uint16_t channel, uint16_t ocfast)
 939:C:/Users/stapi/OneDrive/Desktop/GD32VW553/GD32VW55X_Wifi_BLE_SDK/GD32VW55x_RELEASE_V1.0.2/MSDK/plf/GD32VW55x_standard_peripheral/Source\gd32vw55x_timer.c **** {
 1602              		.loc 1 939 1 is_stmt 1
 1603              		.cfi_startproc
 1604              	.LVL80:
 940:C:/Users/stapi/OneDrive/Desktop/GD32VW553/GD32VW55X_Wifi_BLE_SDK/GD32VW55x_RELEASE_V1.0.2/MSDK/plf/GD32VW55x_standard_peripheral/Source\gd32vw55x_timer.c ****     switch(channel){
 1605              		.loc 1 940 5
 1606 0000 8947     		li	a5,2
 1607 0002 6387F502 		beq	a1,a5,.L111
 1608 0006 63EAB700 		bgtu	a1,a5,.L112
 1609 000a 81ED     		bne	a1,zero,.L117
 941:C:/Users/stapi/OneDrive/Desktop/GD32VW553/GD32VW55X_Wifi_BLE_SDK/GD32VW55x_RELEASE_V1.0.2/MSDK/plf/GD32VW55x_standard_peripheral/Source\gd32vw55x_timer.c ****     /* configure TIMER_CH_0 */
 942:C:/Users/stapi/OneDrive/Desktop/GD32VW553/GD32VW55X_Wifi_BLE_SDK/GD32VW55x_RELEASE_V1.0.2/MSDK/plf/GD32VW55x_standard_peripheral/Source\gd32vw55x_timer.c ****     case TIMER_CH_0:
 943:C:/Users/stapi/OneDrive/Desktop/GD32VW553/GD32VW55X_Wifi_BLE_SDK/GD32VW55x_RELEASE_V1.0.2/MSDK/plf/GD32VW55x_standard_peripheral/Source\gd32vw55x_timer.c ****         TIMER_CHCTL0(timer_periph) &= (~(uint32_t)TIMER_CHCTL0_CH0COMFEN);
 1610              		.loc 1 943 9
 1611              		.loc 1 943 36 is_stmt 0
 1612 000c 1C4D     		lw	a5,24(a0)
 1613 000e ED9B     		andi	a5,a5,-5
 1614 0010 1CCD     		sw	a5,24(a0)
 944:C:/Users/stapi/OneDrive/Desktop/GD32VW553/GD32VW55X_Wifi_BLE_SDK/GD32VW55x_RELEASE_V1.0.2/MSDK/plf/GD32VW55x_standard_peripheral/Source\gd32vw55x_timer.c ****         TIMER_CHCTL0(timer_periph) |= (uint32_t)ocfast;
 1615              		.loc 1 944 9 is_stmt 1
 1616              		.loc 1 944 36 is_stmt 0
 1617 0012 1C4D     		lw	a5,24(a0)
 1618              	.LVL81:
 1619              	.L118:
 945:C:/Users/stapi/OneDrive/Desktop/GD32VW553/GD32VW55X_Wifi_BLE_SDK/GD32VW55x_RELEASE_V1.0.2/MSDK/plf/GD32VW55x_standard_peripheral/Source\gd32vw55x_timer.c ****         break;
 946:C:/Users/stapi/OneDrive/Desktop/GD32VW553/GD32VW55X_Wifi_BLE_SDK/GD32VW55x_RELEASE_V1.0.2/MSDK/plf/GD32VW55x_standard_peripheral/Source\gd32vw55x_timer.c ****     /* configure TIMER_CH_1 */
 947:C:/Users/stapi/OneDrive/Desktop/GD32VW553/GD32VW55X_Wifi_BLE_SDK/GD32VW55x_RELEASE_V1.0.2/MSDK/plf/GD32VW55x_standard_peripheral/Source\gd32vw55x_timer.c ****     case TIMER_CH_1:
 948:C:/Users/stapi/OneDrive/Desktop/GD32VW553/GD32VW55X_Wifi_BLE_SDK/GD32VW55x_RELEASE_V1.0.2/MSDK/plf/GD32VW55x_standard_peripheral/Source\gd32vw55x_timer.c ****         TIMER_CHCTL0(timer_periph) &= (~(uint32_t)TIMER_CHCTL0_CH1COMFEN);
 949:C:/Users/stapi/OneDrive/Desktop/GD32VW553/GD32VW55X_Wifi_BLE_SDK/GD32VW55x_RELEASE_V1.0.2/MSDK/plf/GD32VW55x_standard_peripheral/Source\gd32vw55x_timer.c ****         TIMER_CHCTL0(timer_periph) |= (uint32_t)((uint32_t)ocfast << 8U);
 1620              		.loc 1 949 36
 1621 0014 5D8E     		or	a2,a2,a5
 1622 0016 10CD     		sw	a2,24(a0)
 950:C:/Users/stapi/OneDrive/Desktop/GD32VW553/GD32VW55X_Wifi_BLE_SDK/GD32VW55x_RELEASE_V1.0.2/MSDK/plf/GD32VW55x_standard_peripheral/Source\gd32vw55x_timer.c ****         break;
 1623              		.loc 1 950 9 is_stmt 1
 1624 0018 8280     		ret
 1625              	.LVL82:
 1626              	.L112:
 940:C:/Users/stapi/OneDrive/Desktop/GD32VW553/GD32VW55X_Wifi_BLE_SDK/GD32VW55x_RELEASE_V1.0.2/MSDK/plf/GD32VW55x_standard_peripheral/Source\gd32vw55x_timer.c ****     /* configure TIMER_CH_0 */
 1627              		.loc 1 940 5 is_stmt 0
 1628 001a 8D47     		li	a5,3
 1629 001c 6381F502 		beq	a1,a5,.L115
 1630 0020 8280     		ret
 1631              	.L117:
 948:C:/Users/stapi/OneDrive/Desktop/GD32VW553/GD32VW55X_Wifi_BLE_SDK/GD32VW55x_RELEASE_V1.0.2/MSDK/plf/GD32VW55x_standard_peripheral/Source\gd32vw55x_timer.c ****         TIMER_CHCTL0(timer_periph) |= (uint32_t)((uint32_t)ocfast << 8U);
 1632              		.loc 1 948 9 is_stmt 1
 948:C:/Users/stapi/OneDrive/Desktop/GD32VW553/GD32VW55X_Wifi_BLE_SDK/GD32VW55x_RELEASE_V1.0.2/MSDK/plf/GD32VW55x_standard_peripheral/Source\gd32vw55x_timer.c ****         TIMER_CHCTL0(timer_periph) |= (uint32_t)((uint32_t)ocfast << 8U);
 1633              		.loc 1 948 36 is_stmt 0
 1634 0022 1C4D     		lw	a5,24(a0)
 949:C:/Users/stapi/OneDrive/Desktop/GD32VW553/GD32VW55X_Wifi_BLE_SDK/GD32VW55x_RELEASE_V1.0.2/MSDK/plf/GD32VW55x_standard_peripheral/Source\gd32vw55x_timer.c ****         break;
 1635              		.loc 1 949 39
 1636 0024 2206     		slli	a2,a2,8
 1637              	.LVL83:
 948:C:/Users/stapi/OneDrive/Desktop/GD32VW553/GD32VW55X_Wifi_BLE_SDK/GD32VW55x_RELEASE_V1.0.2/MSDK/plf/GD32VW55x_standard_peripheral/Source\gd32vw55x_timer.c ****         TIMER_CHCTL0(timer_periph) |= (uint32_t)((uint32_t)ocfast << 8U);
 1638              		.loc 1 948 36
 1639 0026 93F7F7BF 		andi	a5,a5,-1025
 1640 002a 1CCD     		sw	a5,24(a0)
 949:C:/Users/stapi/OneDrive/Desktop/GD32VW553/GD32VW55X_Wifi_BLE_SDK/GD32VW55x_RELEASE_V1.0.2/MSDK/plf/GD32VW55x_standard_peripheral/Source\gd32vw55x_timer.c ****         break;
 1641              		.loc 1 949 9 is_stmt 1
 949:C:/Users/stapi/OneDrive/Desktop/GD32VW553/GD32VW55X_Wifi_BLE_SDK/GD32VW55x_RELEASE_V1.0.2/MSDK/plf/GD32VW55x_standard_peripheral/Source\gd32vw55x_timer.c ****         break;
 1642              		.loc 1 949 36 is_stmt 0
 1643 002c 1C4D     		lw	a5,24(a0)
 1644 002e DDB7     		j	.L118
 1645              	.LVL84:
 1646              	.L111:
 951:C:/Users/stapi/OneDrive/Desktop/GD32VW553/GD32VW55X_Wifi_BLE_SDK/GD32VW55x_RELEASE_V1.0.2/MSDK/plf/GD32VW55x_standard_peripheral/Source\gd32vw55x_timer.c ****     /* configure TIMER_CH_2 */
 952:C:/Users/stapi/OneDrive/Desktop/GD32VW553/GD32VW55X_Wifi_BLE_SDK/GD32VW55x_RELEASE_V1.0.2/MSDK/plf/GD32VW55x_standard_peripheral/Source\gd32vw55x_timer.c ****     case TIMER_CH_2:
 953:C:/Users/stapi/OneDrive/Desktop/GD32VW553/GD32VW55X_Wifi_BLE_SDK/GD32VW55x_RELEASE_V1.0.2/MSDK/plf/GD32VW55x_standard_peripheral/Source\gd32vw55x_timer.c ****         TIMER_CHCTL1(timer_periph) &= (~(uint32_t)TIMER_CHCTL1_CH2COMFEN);
 1647              		.loc 1 953 9 is_stmt 1
 1648              		.loc 1 953 36 is_stmt 0
 1649 0030 5C4D     		lw	a5,28(a0)
 1650 0032 ED9B     		andi	a5,a5,-5
 1651 0034 5CCD     		sw	a5,28(a0)
 954:C:/Users/stapi/OneDrive/Desktop/GD32VW553/GD32VW55X_Wifi_BLE_SDK/GD32VW55x_RELEASE_V1.0.2/MSDK/plf/GD32VW55x_standard_peripheral/Source\gd32vw55x_timer.c ****         TIMER_CHCTL1(timer_periph) |= (uint32_t)ocfast;
 1652              		.loc 1 954 9 is_stmt 1
 1653              		.loc 1 954 36 is_stmt 0
 1654 0036 5C4D     		lw	a5,28(a0)
 1655              	.LVL85:
 1656              	.L119:
 955:C:/Users/stapi/OneDrive/Desktop/GD32VW553/GD32VW55X_Wifi_BLE_SDK/GD32VW55x_RELEASE_V1.0.2/MSDK/plf/GD32VW55x_standard_peripheral/Source\gd32vw55x_timer.c ****         break;
 956:C:/Users/stapi/OneDrive/Desktop/GD32VW553/GD32VW55X_Wifi_BLE_SDK/GD32VW55x_RELEASE_V1.0.2/MSDK/plf/GD32VW55x_standard_peripheral/Source\gd32vw55x_timer.c ****     /* configure TIMER_CH_3 */
 957:C:/Users/stapi/OneDrive/Desktop/GD32VW553/GD32VW55X_Wifi_BLE_SDK/GD32VW55x_RELEASE_V1.0.2/MSDK/plf/GD32VW55x_standard_peripheral/Source\gd32vw55x_timer.c ****     case TIMER_CH_3:
 958:C:/Users/stapi/OneDrive/Desktop/GD32VW553/GD32VW55X_Wifi_BLE_SDK/GD32VW55x_RELEASE_V1.0.2/MSDK/plf/GD32VW55x_standard_peripheral/Source\gd32vw55x_timer.c ****         TIMER_CHCTL1(timer_periph) &= (~(uint32_t)TIMER_CHCTL1_CH3COMFEN);
 959:C:/Users/stapi/OneDrive/Desktop/GD32VW553/GD32VW55X_Wifi_BLE_SDK/GD32VW55x_RELEASE_V1.0.2/MSDK/plf/GD32VW55x_standard_peripheral/Source\gd32vw55x_timer.c ****         TIMER_CHCTL1(timer_periph) |= (uint32_t)((uint32_t)ocfast << 8U);
 1657              		.loc 1 959 36
 1658 0038 5D8E     		or	a2,a2,a5
 1659 003a 50CD     		sw	a2,28(a0)
 960:C:/Users/stapi/OneDrive/Desktop/GD32VW553/GD32VW55X_Wifi_BLE_SDK/GD32VW55x_RELEASE_V1.0.2/MSDK/plf/GD32VW55x_standard_peripheral/Source\gd32vw55x_timer.c ****         break;
 1660              		.loc 1 960 9 is_stmt 1
 961:C:/Users/stapi/OneDrive/Desktop/GD32VW553/GD32VW55X_Wifi_BLE_SDK/GD32VW55x_RELEASE_V1.0.2/MSDK/plf/GD32VW55x_standard_peripheral/Source\gd32vw55x_timer.c ****     default:
 962:C:/Users/stapi/OneDrive/Desktop/GD32VW553/GD32VW55X_Wifi_BLE_SDK/GD32VW55x_RELEASE_V1.0.2/MSDK/plf/GD32VW55x_standard_peripheral/Source\gd32vw55x_timer.c ****         break;
 963:C:/Users/stapi/OneDrive/Desktop/GD32VW553/GD32VW55X_Wifi_BLE_SDK/GD32VW55x_RELEASE_V1.0.2/MSDK/plf/GD32VW55x_standard_peripheral/Source\gd32vw55x_timer.c ****     }
 964:C:/Users/stapi/OneDrive/Desktop/GD32VW553/GD32VW55X_Wifi_BLE_SDK/GD32VW55x_RELEASE_V1.0.2/MSDK/plf/GD32VW55x_standard_peripheral/Source\gd32vw55x_timer.c **** }
 1661              		.loc 1 964 1 is_stmt 0
 1662 003c 8280     		ret
 1663              	.LVL86:
 1664              	.L115:
 958:C:/Users/stapi/OneDrive/Desktop/GD32VW553/GD32VW55X_Wifi_BLE_SDK/GD32VW55x_RELEASE_V1.0.2/MSDK/plf/GD32VW55x_standard_peripheral/Source\gd32vw55x_timer.c ****         TIMER_CHCTL1(timer_periph) |= (uint32_t)((uint32_t)ocfast << 8U);
 1665              		.loc 1 958 9 is_stmt 1
 958:C:/Users/stapi/OneDrive/Desktop/GD32VW553/GD32VW55X_Wifi_BLE_SDK/GD32VW55x_RELEASE_V1.0.2/MSDK/plf/GD32VW55x_standard_peripheral/Source\gd32vw55x_timer.c ****         TIMER_CHCTL1(timer_periph) |= (uint32_t)((uint32_t)ocfast << 8U);
 1666              		.loc 1 958 36 is_stmt 0
 1667 003e 5C4D     		lw	a5,28(a0)
 959:C:/Users/stapi/OneDrive/Desktop/GD32VW553/GD32VW55X_Wifi_BLE_SDK/GD32VW55x_RELEASE_V1.0.2/MSDK/plf/GD32VW55x_standard_peripheral/Source\gd32vw55x_timer.c ****         break;
 1668              		.loc 1 959 39
 1669 0040 2206     		slli	a2,a2,8
 1670              	.LVL87:
 958:C:/Users/stapi/OneDrive/Desktop/GD32VW553/GD32VW55X_Wifi_BLE_SDK/GD32VW55x_RELEASE_V1.0.2/MSDK/plf/GD32VW55x_standard_peripheral/Source\gd32vw55x_timer.c ****         TIMER_CHCTL1(timer_periph) |= (uint32_t)((uint32_t)ocfast << 8U);
 1671              		.loc 1 958 36
 1672 0042 93F7F7BF 		andi	a5,a5,-1025
 1673 0046 5CCD     		sw	a5,28(a0)
 959:C:/Users/stapi/OneDrive/Desktop/GD32VW553/GD32VW55X_Wifi_BLE_SDK/GD32VW55x_RELEASE_V1.0.2/MSDK/plf/GD32VW55x_standard_peripheral/Source\gd32vw55x_timer.c ****         break;
 1674              		.loc 1 959 9 is_stmt 1
 959:C:/Users/stapi/OneDrive/Desktop/GD32VW553/GD32VW55X_Wifi_BLE_SDK/GD32VW55x_RELEASE_V1.0.2/MSDK/plf/GD32VW55x_standard_peripheral/Source\gd32vw55x_timer.c ****         break;
 1675              		.loc 1 959 36 is_stmt 0
 1676 0048 5C4D     		lw	a5,28(a0)
 1677 004a FDB7     		j	.L119
 1678              		.cfi_endproc
 1679              	.LFE404:
 1681              		.section	.text.timer_channel_output_clear_config,"ax",@progbits
 1682              		.align	1
 1683              		.globl	timer_channel_output_clear_config
 1685              	timer_channel_output_clear_config:
 1686              	.LFB405:
 965:C:/Users/stapi/OneDrive/Desktop/GD32VW553/GD32VW55X_Wifi_BLE_SDK/GD32VW55x_RELEASE_V1.0.2/MSDK/plf/GD32VW55x_standard_peripheral/Source\gd32vw55x_timer.c **** 
 966:C:/Users/stapi/OneDrive/Desktop/GD32VW553/GD32VW55X_Wifi_BLE_SDK/GD32VW55x_RELEASE_V1.0.2/MSDK/plf/GD32VW55x_standard_peripheral/Source\gd32vw55x_timer.c **** /*!
 967:C:/Users/stapi/OneDrive/Desktop/GD32VW553/GD32VW55X_Wifi_BLE_SDK/GD32VW55x_RELEASE_V1.0.2/MSDK/plf/GD32VW55x_standard_peripheral/Source\gd32vw55x_timer.c ****     \brief      configure TIMER channel output clear function
 968:C:/Users/stapi/OneDrive/Desktop/GD32VW553/GD32VW55X_Wifi_BLE_SDK/GD32VW55x_RELEASE_V1.0.2/MSDK/plf/GD32VW55x_standard_peripheral/Source\gd32vw55x_timer.c ****     \param[in]  timer_periph: TIMERx(x=0,1,2)
 969:C:/Users/stapi/OneDrive/Desktop/GD32VW553/GD32VW55X_Wifi_BLE_SDK/GD32VW55x_RELEASE_V1.0.2/MSDK/plf/GD32VW55x_standard_peripheral/Source\gd32vw55x_timer.c ****     \param[in]  channel:
 970:C:/Users/stapi/OneDrive/Desktop/GD32VW553/GD32VW55X_Wifi_BLE_SDK/GD32VW55x_RELEASE_V1.0.2/MSDK/plf/GD32VW55x_standard_peripheral/Source\gd32vw55x_timer.c ****                 only one parameter can be selected which is shown as below:
 971:C:/Users/stapi/OneDrive/Desktop/GD32VW553/GD32VW55X_Wifi_BLE_SDK/GD32VW55x_RELEASE_V1.0.2/MSDK/plf/GD32VW55x_standard_peripheral/Source\gd32vw55x_timer.c ****       \arg        TIMER_CH_0: TIMER channel0
 972:C:/Users/stapi/OneDrive/Desktop/GD32VW553/GD32VW55X_Wifi_BLE_SDK/GD32VW55x_RELEASE_V1.0.2/MSDK/plf/GD32VW55x_standard_peripheral/Source\gd32vw55x_timer.c ****       \arg        TIMER_CH_1: TIMER channel1
 973:C:/Users/stapi/OneDrive/Desktop/GD32VW553/GD32VW55X_Wifi_BLE_SDK/GD32VW55x_RELEASE_V1.0.2/MSDK/plf/GD32VW55x_standard_peripheral/Source\gd32vw55x_timer.c ****       \arg        TIMER_CH_2: TIMER channel2
 974:C:/Users/stapi/OneDrive/Desktop/GD32VW553/GD32VW55X_Wifi_BLE_SDK/GD32VW55x_RELEASE_V1.0.2/MSDK/plf/GD32VW55x_standard_peripheral/Source\gd32vw55x_timer.c ****       \arg        TIMER_CH_3: TIMER channel3
 975:C:/Users/stapi/OneDrive/Desktop/GD32VW553/GD32VW55X_Wifi_BLE_SDK/GD32VW55x_RELEASE_V1.0.2/MSDK/plf/GD32VW55x_standard_peripheral/Source\gd32vw55x_timer.c ****     \param[in]  occlear: channel output clear function
 976:C:/Users/stapi/OneDrive/Desktop/GD32VW553/GD32VW55X_Wifi_BLE_SDK/GD32VW55x_RELEASE_V1.0.2/MSDK/plf/GD32VW55x_standard_peripheral/Source\gd32vw55x_timer.c ****                 only one parameter can be selected which is shown as below:
 977:C:/Users/stapi/OneDrive/Desktop/GD32VW553/GD32VW55X_Wifi_BLE_SDK/GD32VW55x_RELEASE_V1.0.2/MSDK/plf/GD32VW55x_standard_peripheral/Source\gd32vw55x_timer.c ****       \arg        TIMER_OC_CLEAR_ENABLE: channel output clear function enable
 978:C:/Users/stapi/OneDrive/Desktop/GD32VW553/GD32VW55X_Wifi_BLE_SDK/GD32VW55x_RELEASE_V1.0.2/MSDK/plf/GD32VW55x_standard_peripheral/Source\gd32vw55x_timer.c ****       \arg        TIMER_OC_CLEAR_DISABLE: channel output clear function disable
 979:C:/Users/stapi/OneDrive/Desktop/GD32VW553/GD32VW55X_Wifi_BLE_SDK/GD32VW55x_RELEASE_V1.0.2/MSDK/plf/GD32VW55x_standard_peripheral/Source\gd32vw55x_timer.c ****     \param[out] none
 980:C:/Users/stapi/OneDrive/Desktop/GD32VW553/GD32VW55X_Wifi_BLE_SDK/GD32VW55x_RELEASE_V1.0.2/MSDK/plf/GD32VW55x_standard_peripheral/Source\gd32vw55x_timer.c ****     \retval     none
 981:C:/Users/stapi/OneDrive/Desktop/GD32VW553/GD32VW55X_Wifi_BLE_SDK/GD32VW55x_RELEASE_V1.0.2/MSDK/plf/GD32VW55x_standard_peripheral/Source\gd32vw55x_timer.c **** */
 982:C:/Users/stapi/OneDrive/Desktop/GD32VW553/GD32VW55X_Wifi_BLE_SDK/GD32VW55x_RELEASE_V1.0.2/MSDK/plf/GD32VW55x_standard_peripheral/Source\gd32vw55x_timer.c **** void timer_channel_output_clear_config(uint32_t timer_periph, uint16_t channel, uint16_t occlear)
 983:C:/Users/stapi/OneDrive/Desktop/GD32VW553/GD32VW55X_Wifi_BLE_SDK/GD32VW55x_RELEASE_V1.0.2/MSDK/plf/GD32VW55x_standard_peripheral/Source\gd32vw55x_timer.c **** {
 1687              		.loc 1 983 1 is_stmt 1
 1688              		.cfi_startproc
 1689              	.LVL88:
 984:C:/Users/stapi/OneDrive/Desktop/GD32VW553/GD32VW55X_Wifi_BLE_SDK/GD32VW55x_RELEASE_V1.0.2/MSDK/plf/GD32VW55x_standard_peripheral/Source\gd32vw55x_timer.c ****     switch(channel){
 1690              		.loc 1 984 5
 1691 0000 8947     		li	a5,2
 1692 0002 6388F502 		beq	a1,a5,.L121
 1693 0006 63EBB700 		bgtu	a1,a5,.L122
 1694 000a 89ED     		bne	a1,zero,.L127
 985:C:/Users/stapi/OneDrive/Desktop/GD32VW553/GD32VW55X_Wifi_BLE_SDK/GD32VW55x_RELEASE_V1.0.2/MSDK/plf/GD32VW55x_standard_peripheral/Source\gd32vw55x_timer.c ****     /* configure TIMER_CH_0 */
 986:C:/Users/stapi/OneDrive/Desktop/GD32VW553/GD32VW55X_Wifi_BLE_SDK/GD32VW55x_RELEASE_V1.0.2/MSDK/plf/GD32VW55x_standard_peripheral/Source\gd32vw55x_timer.c ****     case TIMER_CH_0:
 987:C:/Users/stapi/OneDrive/Desktop/GD32VW553/GD32VW55X_Wifi_BLE_SDK/GD32VW55x_RELEASE_V1.0.2/MSDK/plf/GD32VW55x_standard_peripheral/Source\gd32vw55x_timer.c ****         TIMER_CHCTL0(timer_periph) &= (~(uint32_t)TIMER_CHCTL0_CH0COMCEN);
 1695              		.loc 1 987 9
 1696              		.loc 1 987 36 is_stmt 0
 1697 000c 1C4D     		lw	a5,24(a0)
 1698 000e 93F7F7F7 		andi	a5,a5,-129
 1699 0012 1CCD     		sw	a5,24(a0)
 988:C:/Users/stapi/OneDrive/Desktop/GD32VW553/GD32VW55X_Wifi_BLE_SDK/GD32VW55x_RELEASE_V1.0.2/MSDK/plf/GD32VW55x_standard_peripheral/Source\gd32vw55x_timer.c ****         TIMER_CHCTL0(timer_periph) |= (uint32_t)occlear;
 1700              		.loc 1 988 9 is_stmt 1
 1701              		.loc 1 988 36 is_stmt 0
 1702 0014 1C4D     		lw	a5,24(a0)
 1703              	.LVL89:
 1704              	.L128:
 989:C:/Users/stapi/OneDrive/Desktop/GD32VW553/GD32VW55X_Wifi_BLE_SDK/GD32VW55x_RELEASE_V1.0.2/MSDK/plf/GD32VW55x_standard_peripheral/Source\gd32vw55x_timer.c ****         break;
 990:C:/Users/stapi/OneDrive/Desktop/GD32VW553/GD32VW55X_Wifi_BLE_SDK/GD32VW55x_RELEASE_V1.0.2/MSDK/plf/GD32VW55x_standard_peripheral/Source\gd32vw55x_timer.c ****     /* configure TIMER_CH_1 */
 991:C:/Users/stapi/OneDrive/Desktop/GD32VW553/GD32VW55X_Wifi_BLE_SDK/GD32VW55x_RELEASE_V1.0.2/MSDK/plf/GD32VW55x_standard_peripheral/Source\gd32vw55x_timer.c ****     case TIMER_CH_1:
 992:C:/Users/stapi/OneDrive/Desktop/GD32VW553/GD32VW55X_Wifi_BLE_SDK/GD32VW55x_RELEASE_V1.0.2/MSDK/plf/GD32VW55x_standard_peripheral/Source\gd32vw55x_timer.c ****         TIMER_CHCTL0(timer_periph) &= (~(uint32_t)TIMER_CHCTL0_CH1COMCEN);
 993:C:/Users/stapi/OneDrive/Desktop/GD32VW553/GD32VW55X_Wifi_BLE_SDK/GD32VW55x_RELEASE_V1.0.2/MSDK/plf/GD32VW55x_standard_peripheral/Source\gd32vw55x_timer.c ****         TIMER_CHCTL0(timer_periph) |= (uint32_t)((uint32_t)occlear << 8U);
 1705              		.loc 1 993 36
 1706 0016 5D8E     		or	a2,a2,a5
 1707 0018 10CD     		sw	a2,24(a0)
 994:C:/Users/stapi/OneDrive/Desktop/GD32VW553/GD32VW55X_Wifi_BLE_SDK/GD32VW55x_RELEASE_V1.0.2/MSDK/plf/GD32VW55x_standard_peripheral/Source\gd32vw55x_timer.c ****         break;
 1708              		.loc 1 994 9 is_stmt 1
 1709 001a 8280     		ret
 1710              	.LVL90:
 1711              	.L122:
 984:C:/Users/stapi/OneDrive/Desktop/GD32VW553/GD32VW55X_Wifi_BLE_SDK/GD32VW55x_RELEASE_V1.0.2/MSDK/plf/GD32VW55x_standard_peripheral/Source\gd32vw55x_timer.c ****     /* configure TIMER_CH_0 */
 1712              		.loc 1 984 5 is_stmt 0
 1713 001c 8D47     		li	a5,3
 1714 001e 6382F502 		beq	a1,a5,.L125
 1715 0022 8280     		ret
 1716              	.L127:
 992:C:/Users/stapi/OneDrive/Desktop/GD32VW553/GD32VW55X_Wifi_BLE_SDK/GD32VW55x_RELEASE_V1.0.2/MSDK/plf/GD32VW55x_standard_peripheral/Source\gd32vw55x_timer.c ****         TIMER_CHCTL0(timer_periph) |= (uint32_t)((uint32_t)occlear << 8U);
 1717              		.loc 1 992 9 is_stmt 1
 992:C:/Users/stapi/OneDrive/Desktop/GD32VW553/GD32VW55X_Wifi_BLE_SDK/GD32VW55x_RELEASE_V1.0.2/MSDK/plf/GD32VW55x_standard_peripheral/Source\gd32vw55x_timer.c ****         TIMER_CHCTL0(timer_periph) |= (uint32_t)((uint32_t)occlear << 8U);
 1718              		.loc 1 992 36 is_stmt 0
 1719 0024 1C4D     		lw	a5,24(a0)
 993:C:/Users/stapi/OneDrive/Desktop/GD32VW553/GD32VW55X_Wifi_BLE_SDK/GD32VW55x_RELEASE_V1.0.2/MSDK/plf/GD32VW55x_standard_peripheral/Source\gd32vw55x_timer.c ****         break;
 1720              		.loc 1 993 39
 1721 0026 2206     		slli	a2,a2,8
 1722              	.LVL91:
 992:C:/Users/stapi/OneDrive/Desktop/GD32VW553/GD32VW55X_Wifi_BLE_SDK/GD32VW55x_RELEASE_V1.0.2/MSDK/plf/GD32VW55x_standard_peripheral/Source\gd32vw55x_timer.c ****         TIMER_CHCTL0(timer_periph) |= (uint32_t)((uint32_t)occlear << 8U);
 1723              		.loc 1 992 36
 1724 0028 9397F748 		bclri	a5,a5,15
 1725 002c 1CCD     		sw	a5,24(a0)
 993:C:/Users/stapi/OneDrive/Desktop/GD32VW553/GD32VW55X_Wifi_BLE_SDK/GD32VW55x_RELEASE_V1.0.2/MSDK/plf/GD32VW55x_standard_peripheral/Source\gd32vw55x_timer.c ****         break;
 1726              		.loc 1 993 9 is_stmt 1
 993:C:/Users/stapi/OneDrive/Desktop/GD32VW553/GD32VW55X_Wifi_BLE_SDK/GD32VW55x_RELEASE_V1.0.2/MSDK/plf/GD32VW55x_standard_peripheral/Source\gd32vw55x_timer.c ****         break;
 1727              		.loc 1 993 36 is_stmt 0
 1728 002e 1C4D     		lw	a5,24(a0)
 1729 0030 DDB7     		j	.L128
 1730              	.LVL92:
 1731              	.L121:
 995:C:/Users/stapi/OneDrive/Desktop/GD32VW553/GD32VW55X_Wifi_BLE_SDK/GD32VW55x_RELEASE_V1.0.2/MSDK/plf/GD32VW55x_standard_peripheral/Source\gd32vw55x_timer.c ****     /* configure TIMER_CH_2 */
 996:C:/Users/stapi/OneDrive/Desktop/GD32VW553/GD32VW55X_Wifi_BLE_SDK/GD32VW55x_RELEASE_V1.0.2/MSDK/plf/GD32VW55x_standard_peripheral/Source\gd32vw55x_timer.c ****     case TIMER_CH_2:
 997:C:/Users/stapi/OneDrive/Desktop/GD32VW553/GD32VW55X_Wifi_BLE_SDK/GD32VW55x_RELEASE_V1.0.2/MSDK/plf/GD32VW55x_standard_peripheral/Source\gd32vw55x_timer.c ****         TIMER_CHCTL1(timer_periph) &= (~(uint32_t)TIMER_CHCTL1_CH2COMCEN);
 1732              		.loc 1 997 9 is_stmt 1
 1733              		.loc 1 997 36 is_stmt 0
 1734 0032 5C4D     		lw	a5,28(a0)
 1735 0034 93F7F7F7 		andi	a5,a5,-129
 1736 0038 5CCD     		sw	a5,28(a0)
 998:C:/Users/stapi/OneDrive/Desktop/GD32VW553/GD32VW55X_Wifi_BLE_SDK/GD32VW55x_RELEASE_V1.0.2/MSDK/plf/GD32VW55x_standard_peripheral/Source\gd32vw55x_timer.c ****         TIMER_CHCTL1(timer_periph) |= (uint32_t)occlear;
 1737              		.loc 1 998 9 is_stmt 1
 1738              		.loc 1 998 36 is_stmt 0
 1739 003a 5C4D     		lw	a5,28(a0)
 1740              	.LVL93:
 1741              	.L129:
 999:C:/Users/stapi/OneDrive/Desktop/GD32VW553/GD32VW55X_Wifi_BLE_SDK/GD32VW55x_RELEASE_V1.0.2/MSDK/plf/GD32VW55x_standard_peripheral/Source\gd32vw55x_timer.c ****         break;
1000:C:/Users/stapi/OneDrive/Desktop/GD32VW553/GD32VW55X_Wifi_BLE_SDK/GD32VW55x_RELEASE_V1.0.2/MSDK/plf/GD32VW55x_standard_peripheral/Source\gd32vw55x_timer.c ****     /* configure TIMER_CH_3 */
1001:C:/Users/stapi/OneDrive/Desktop/GD32VW553/GD32VW55X_Wifi_BLE_SDK/GD32VW55x_RELEASE_V1.0.2/MSDK/plf/GD32VW55x_standard_peripheral/Source\gd32vw55x_timer.c ****     case TIMER_CH_3:
1002:C:/Users/stapi/OneDrive/Desktop/GD32VW553/GD32VW55X_Wifi_BLE_SDK/GD32VW55x_RELEASE_V1.0.2/MSDK/plf/GD32VW55x_standard_peripheral/Source\gd32vw55x_timer.c ****         TIMER_CHCTL1(timer_periph) &= (~(uint32_t)TIMER_CHCTL1_CH3COMCEN);
1003:C:/Users/stapi/OneDrive/Desktop/GD32VW553/GD32VW55X_Wifi_BLE_SDK/GD32VW55x_RELEASE_V1.0.2/MSDK/plf/GD32VW55x_standard_peripheral/Source\gd32vw55x_timer.c ****         TIMER_CHCTL1(timer_periph) |= (uint32_t)((uint32_t)occlear << 8U);
 1742              		.loc 1 1003 36
 1743 003c 5D8E     		or	a2,a2,a5
 1744 003e 50CD     		sw	a2,28(a0)
1004:C:/Users/stapi/OneDrive/Desktop/GD32VW553/GD32VW55X_Wifi_BLE_SDK/GD32VW55x_RELEASE_V1.0.2/MSDK/plf/GD32VW55x_standard_peripheral/Source\gd32vw55x_timer.c ****         break;
 1745              		.loc 1 1004 9 is_stmt 1
1005:C:/Users/stapi/OneDrive/Desktop/GD32VW553/GD32VW55X_Wifi_BLE_SDK/GD32VW55x_RELEASE_V1.0.2/MSDK/plf/GD32VW55x_standard_peripheral/Source\gd32vw55x_timer.c ****     default:
1006:C:/Users/stapi/OneDrive/Desktop/GD32VW553/GD32VW55X_Wifi_BLE_SDK/GD32VW55x_RELEASE_V1.0.2/MSDK/plf/GD32VW55x_standard_peripheral/Source\gd32vw55x_timer.c ****         break;
1007:C:/Users/stapi/OneDrive/Desktop/GD32VW553/GD32VW55X_Wifi_BLE_SDK/GD32VW55x_RELEASE_V1.0.2/MSDK/plf/GD32VW55x_standard_peripheral/Source\gd32vw55x_timer.c ****     }
1008:C:/Users/stapi/OneDrive/Desktop/GD32VW553/GD32VW55X_Wifi_BLE_SDK/GD32VW55x_RELEASE_V1.0.2/MSDK/plf/GD32VW55x_standard_peripheral/Source\gd32vw55x_timer.c **** }
 1746              		.loc 1 1008 1 is_stmt 0
 1747 0040 8280     		ret
 1748              	.LVL94:
 1749              	.L125:
1002:C:/Users/stapi/OneDrive/Desktop/GD32VW553/GD32VW55X_Wifi_BLE_SDK/GD32VW55x_RELEASE_V1.0.2/MSDK/plf/GD32VW55x_standard_peripheral/Source\gd32vw55x_timer.c ****         TIMER_CHCTL1(timer_periph) |= (uint32_t)((uint32_t)occlear << 8U);
 1750              		.loc 1 1002 9 is_stmt 1
1002:C:/Users/stapi/OneDrive/Desktop/GD32VW553/GD32VW55X_Wifi_BLE_SDK/GD32VW55x_RELEASE_V1.0.2/MSDK/plf/GD32VW55x_standard_peripheral/Source\gd32vw55x_timer.c ****         TIMER_CHCTL1(timer_periph) |= (uint32_t)((uint32_t)occlear << 8U);
 1751              		.loc 1 1002 36 is_stmt 0
 1752 0042 5C4D     		lw	a5,28(a0)
1003:C:/Users/stapi/OneDrive/Desktop/GD32VW553/GD32VW55X_Wifi_BLE_SDK/GD32VW55x_RELEASE_V1.0.2/MSDK/plf/GD32VW55x_standard_peripheral/Source\gd32vw55x_timer.c ****         break;
 1753              		.loc 1 1003 39
 1754 0044 2206     		slli	a2,a2,8
 1755              	.LVL95:
1002:C:/Users/stapi/OneDrive/Desktop/GD32VW553/GD32VW55X_Wifi_BLE_SDK/GD32VW55x_RELEASE_V1.0.2/MSDK/plf/GD32VW55x_standard_peripheral/Source\gd32vw55x_timer.c ****         TIMER_CHCTL1(timer_periph) |= (uint32_t)((uint32_t)occlear << 8U);
 1756              		.loc 1 1002 36
 1757 0046 9397F748 		bclri	a5,a5,15
 1758 004a 5CCD     		sw	a5,28(a0)
1003:C:/Users/stapi/OneDrive/Desktop/GD32VW553/GD32VW55X_Wifi_BLE_SDK/GD32VW55x_RELEASE_V1.0.2/MSDK/plf/GD32VW55x_standard_peripheral/Source\gd32vw55x_timer.c ****         break;
 1759              		.loc 1 1003 9 is_stmt 1
1003:C:/Users/stapi/OneDrive/Desktop/GD32VW553/GD32VW55X_Wifi_BLE_SDK/GD32VW55x_RELEASE_V1.0.2/MSDK/plf/GD32VW55x_standard_peripheral/Source\gd32vw55x_timer.c ****         break;
 1760              		.loc 1 1003 36 is_stmt 0
 1761 004c 5C4D     		lw	a5,28(a0)
 1762 004e FDB7     		j	.L129
 1763              		.cfi_endproc
 1764              	.LFE405:
 1766              		.section	.text.timer_channel_output_polarity_config,"ax",@progbits
 1767              		.align	1
 1768              		.globl	timer_channel_output_polarity_config
 1770              	timer_channel_output_polarity_config:
 1771              	.LFB406:
1009:C:/Users/stapi/OneDrive/Desktop/GD32VW553/GD32VW55X_Wifi_BLE_SDK/GD32VW55x_RELEASE_V1.0.2/MSDK/plf/GD32VW55x_standard_peripheral/Source\gd32vw55x_timer.c **** 
1010:C:/Users/stapi/OneDrive/Desktop/GD32VW553/GD32VW55X_Wifi_BLE_SDK/GD32VW55x_RELEASE_V1.0.2/MSDK/plf/GD32VW55x_standard_peripheral/Source\gd32vw55x_timer.c **** /*!
1011:C:/Users/stapi/OneDrive/Desktop/GD32VW553/GD32VW55X_Wifi_BLE_SDK/GD32VW55x_RELEASE_V1.0.2/MSDK/plf/GD32VW55x_standard_peripheral/Source\gd32vw55x_timer.c ****     \brief      configure TIMER channel output polarity
1012:C:/Users/stapi/OneDrive/Desktop/GD32VW553/GD32VW55X_Wifi_BLE_SDK/GD32VW55x_RELEASE_V1.0.2/MSDK/plf/GD32VW55x_standard_peripheral/Source\gd32vw55x_timer.c ****     \param[in]  timer_periph: please refer to the following parameters
1013:C:/Users/stapi/OneDrive/Desktop/GD32VW553/GD32VW55X_Wifi_BLE_SDK/GD32VW55x_RELEASE_V1.0.2/MSDK/plf/GD32VW55x_standard_peripheral/Source\gd32vw55x_timer.c ****     \param[in]  channel:
1014:C:/Users/stapi/OneDrive/Desktop/GD32VW553/GD32VW55X_Wifi_BLE_SDK/GD32VW55x_RELEASE_V1.0.2/MSDK/plf/GD32VW55x_standard_peripheral/Source\gd32vw55x_timer.c ****                 only one parameter can be selected which is shown as below:
1015:C:/Users/stapi/OneDrive/Desktop/GD32VW553/GD32VW55X_Wifi_BLE_SDK/GD32VW55x_RELEASE_V1.0.2/MSDK/plf/GD32VW55x_standard_peripheral/Source\gd32vw55x_timer.c ****       \arg        TIMER_CH_0: TIMER channel0(TIMERx(x=0,1,2,15,16))
1016:C:/Users/stapi/OneDrive/Desktop/GD32VW553/GD32VW55X_Wifi_BLE_SDK/GD32VW55x_RELEASE_V1.0.2/MSDK/plf/GD32VW55x_standard_peripheral/Source\gd32vw55x_timer.c ****       \arg        TIMER_CH_1: TIMER channel1(TIMERx(x=0,1,2))
1017:C:/Users/stapi/OneDrive/Desktop/GD32VW553/GD32VW55X_Wifi_BLE_SDK/GD32VW55x_RELEASE_V1.0.2/MSDK/plf/GD32VW55x_standard_peripheral/Source\gd32vw55x_timer.c ****       \arg        TIMER_CH_2: TIMER channel2(TIMERx(x=0,1,2))
1018:C:/Users/stapi/OneDrive/Desktop/GD32VW553/GD32VW55X_Wifi_BLE_SDK/GD32VW55x_RELEASE_V1.0.2/MSDK/plf/GD32VW55x_standard_peripheral/Source\gd32vw55x_timer.c ****       \arg        TIMER_CH_3: TIMER channel3(TIMERx(x=0,1,2))
1019:C:/Users/stapi/OneDrive/Desktop/GD32VW553/GD32VW55X_Wifi_BLE_SDK/GD32VW55x_RELEASE_V1.0.2/MSDK/plf/GD32VW55x_standard_peripheral/Source\gd32vw55x_timer.c ****     \param[in]  ocpolarity: channel output polarity
1020:C:/Users/stapi/OneDrive/Desktop/GD32VW553/GD32VW55X_Wifi_BLE_SDK/GD32VW55x_RELEASE_V1.0.2/MSDK/plf/GD32VW55x_standard_peripheral/Source\gd32vw55x_timer.c ****                 only one parameter can be selected which is shown as below:
1021:C:/Users/stapi/OneDrive/Desktop/GD32VW553/GD32VW55X_Wifi_BLE_SDK/GD32VW55x_RELEASE_V1.0.2/MSDK/plf/GD32VW55x_standard_peripheral/Source\gd32vw55x_timer.c ****       \arg        TIMER_OC_POLARITY_HIGH: channel output polarity is high
1022:C:/Users/stapi/OneDrive/Desktop/GD32VW553/GD32VW55X_Wifi_BLE_SDK/GD32VW55x_RELEASE_V1.0.2/MSDK/plf/GD32VW55x_standard_peripheral/Source\gd32vw55x_timer.c ****       \arg        TIMER_OC_POLARITY_LOW: channel output polarity is low
1023:C:/Users/stapi/OneDrive/Desktop/GD32VW553/GD32VW55X_Wifi_BLE_SDK/GD32VW55x_RELEASE_V1.0.2/MSDK/plf/GD32VW55x_standard_peripheral/Source\gd32vw55x_timer.c ****     \param[out] none
1024:C:/Users/stapi/OneDrive/Desktop/GD32VW553/GD32VW55X_Wifi_BLE_SDK/GD32VW55x_RELEASE_V1.0.2/MSDK/plf/GD32VW55x_standard_peripheral/Source\gd32vw55x_timer.c ****     \retval     none
1025:C:/Users/stapi/OneDrive/Desktop/GD32VW553/GD32VW55X_Wifi_BLE_SDK/GD32VW55x_RELEASE_V1.0.2/MSDK/plf/GD32VW55x_standard_peripheral/Source\gd32vw55x_timer.c **** */
1026:C:/Users/stapi/OneDrive/Desktop/GD32VW553/GD32VW55X_Wifi_BLE_SDK/GD32VW55x_RELEASE_V1.0.2/MSDK/plf/GD32VW55x_standard_peripheral/Source\gd32vw55x_timer.c **** void timer_channel_output_polarity_config(uint32_t timer_periph, uint16_t channel, uint16_t ocpolar
1027:C:/Users/stapi/OneDrive/Desktop/GD32VW553/GD32VW55X_Wifi_BLE_SDK/GD32VW55x_RELEASE_V1.0.2/MSDK/plf/GD32VW55x_standard_peripheral/Source\gd32vw55x_timer.c **** {
 1772              		.loc 1 1027 1 is_stmt 1
 1773              		.cfi_startproc
 1774              	.LVL96:
1028:C:/Users/stapi/OneDrive/Desktop/GD32VW553/GD32VW55X_Wifi_BLE_SDK/GD32VW55x_RELEASE_V1.0.2/MSDK/plf/GD32VW55x_standard_peripheral/Source\gd32vw55x_timer.c ****     switch(channel){
 1775              		.loc 1 1028 5
 1776 0000 8947     		li	a5,2
 1777 0002 6387F502 		beq	a1,a5,.L131
 1778 0006 63EAB700 		bgtu	a1,a5,.L132
 1779 000a 81ED     		bne	a1,zero,.L137
1029:C:/Users/stapi/OneDrive/Desktop/GD32VW553/GD32VW55X_Wifi_BLE_SDK/GD32VW55x_RELEASE_V1.0.2/MSDK/plf/GD32VW55x_standard_peripheral/Source\gd32vw55x_timer.c ****     /* configure TIMER_CH_0 */
1030:C:/Users/stapi/OneDrive/Desktop/GD32VW553/GD32VW55X_Wifi_BLE_SDK/GD32VW55x_RELEASE_V1.0.2/MSDK/plf/GD32VW55x_standard_peripheral/Source\gd32vw55x_timer.c ****     case TIMER_CH_0:
1031:C:/Users/stapi/OneDrive/Desktop/GD32VW553/GD32VW55X_Wifi_BLE_SDK/GD32VW55x_RELEASE_V1.0.2/MSDK/plf/GD32VW55x_standard_peripheral/Source\gd32vw55x_timer.c ****         TIMER_CHCTL2(timer_periph) &= (~(uint32_t)TIMER_CHCTL2_CH0P);
 1780              		.loc 1 1031 9
 1781              		.loc 1 1031 36 is_stmt 0
 1782 000c 1C51     		lw	a5,32(a0)
 1783 000e F59B     		andi	a5,a5,-3
 1784 0010 1CD1     		sw	a5,32(a0)
1032:C:/Users/stapi/OneDrive/Desktop/GD32VW553/GD32VW55X_Wifi_BLE_SDK/GD32VW55x_RELEASE_V1.0.2/MSDK/plf/GD32VW55x_standard_peripheral/Source\gd32vw55x_timer.c ****         TIMER_CHCTL2(timer_periph) |= (uint32_t)ocpolarity;
 1785              		.loc 1 1032 9 is_stmt 1
 1786              		.loc 1 1032 36 is_stmt 0
 1787 0012 1C51     		lw	a5,32(a0)
 1788              	.LVL97:
 1789              	.L138:
1033:C:/Users/stapi/OneDrive/Desktop/GD32VW553/GD32VW55X_Wifi_BLE_SDK/GD32VW55x_RELEASE_V1.0.2/MSDK/plf/GD32VW55x_standard_peripheral/Source\gd32vw55x_timer.c ****         break;
1034:C:/Users/stapi/OneDrive/Desktop/GD32VW553/GD32VW55X_Wifi_BLE_SDK/GD32VW55x_RELEASE_V1.0.2/MSDK/plf/GD32VW55x_standard_peripheral/Source\gd32vw55x_timer.c ****     /* configure TIMER_CH_1 */
1035:C:/Users/stapi/OneDrive/Desktop/GD32VW553/GD32VW55X_Wifi_BLE_SDK/GD32VW55x_RELEASE_V1.0.2/MSDK/plf/GD32VW55x_standard_peripheral/Source\gd32vw55x_timer.c ****     case TIMER_CH_1:
1036:C:/Users/stapi/OneDrive/Desktop/GD32VW553/GD32VW55X_Wifi_BLE_SDK/GD32VW55x_RELEASE_V1.0.2/MSDK/plf/GD32VW55x_standard_peripheral/Source\gd32vw55x_timer.c ****         TIMER_CHCTL2(timer_periph) &= (~(uint32_t)TIMER_CHCTL2_CH1P);
1037:C:/Users/stapi/OneDrive/Desktop/GD32VW553/GD32VW55X_Wifi_BLE_SDK/GD32VW55x_RELEASE_V1.0.2/MSDK/plf/GD32VW55x_standard_peripheral/Source\gd32vw55x_timer.c ****         TIMER_CHCTL2(timer_periph) |= (uint32_t)((uint32_t)ocpolarity << 4U);
1038:C:/Users/stapi/OneDrive/Desktop/GD32VW553/GD32VW55X_Wifi_BLE_SDK/GD32VW55x_RELEASE_V1.0.2/MSDK/plf/GD32VW55x_standard_peripheral/Source\gd32vw55x_timer.c ****         break;
1039:C:/Users/stapi/OneDrive/Desktop/GD32VW553/GD32VW55X_Wifi_BLE_SDK/GD32VW55x_RELEASE_V1.0.2/MSDK/plf/GD32VW55x_standard_peripheral/Source\gd32vw55x_timer.c ****     /* configure TIMER_CH_2 */
1040:C:/Users/stapi/OneDrive/Desktop/GD32VW553/GD32VW55X_Wifi_BLE_SDK/GD32VW55x_RELEASE_V1.0.2/MSDK/plf/GD32VW55x_standard_peripheral/Source\gd32vw55x_timer.c ****     case TIMER_CH_2:
1041:C:/Users/stapi/OneDrive/Desktop/GD32VW553/GD32VW55X_Wifi_BLE_SDK/GD32VW55x_RELEASE_V1.0.2/MSDK/plf/GD32VW55x_standard_peripheral/Source\gd32vw55x_timer.c ****         TIMER_CHCTL2(timer_periph) &= (~(uint32_t)TIMER_CHCTL2_CH2P);
1042:C:/Users/stapi/OneDrive/Desktop/GD32VW553/GD32VW55X_Wifi_BLE_SDK/GD32VW55x_RELEASE_V1.0.2/MSDK/plf/GD32VW55x_standard_peripheral/Source\gd32vw55x_timer.c ****         TIMER_CHCTL2(timer_periph) |= (uint32_t)((uint32_t)ocpolarity << 8U);
1043:C:/Users/stapi/OneDrive/Desktop/GD32VW553/GD32VW55X_Wifi_BLE_SDK/GD32VW55x_RELEASE_V1.0.2/MSDK/plf/GD32VW55x_standard_peripheral/Source\gd32vw55x_timer.c ****         break;
1044:C:/Users/stapi/OneDrive/Desktop/GD32VW553/GD32VW55X_Wifi_BLE_SDK/GD32VW55x_RELEASE_V1.0.2/MSDK/plf/GD32VW55x_standard_peripheral/Source\gd32vw55x_timer.c ****     /* configure TIMER_CH_3 */
1045:C:/Users/stapi/OneDrive/Desktop/GD32VW553/GD32VW55X_Wifi_BLE_SDK/GD32VW55x_RELEASE_V1.0.2/MSDK/plf/GD32VW55x_standard_peripheral/Source\gd32vw55x_timer.c ****     case TIMER_CH_3:
1046:C:/Users/stapi/OneDrive/Desktop/GD32VW553/GD32VW55X_Wifi_BLE_SDK/GD32VW55x_RELEASE_V1.0.2/MSDK/plf/GD32VW55x_standard_peripheral/Source\gd32vw55x_timer.c ****         TIMER_CHCTL2(timer_periph) &= (~(uint32_t)TIMER_CHCTL2_CH3P);
1047:C:/Users/stapi/OneDrive/Desktop/GD32VW553/GD32VW55X_Wifi_BLE_SDK/GD32VW55x_RELEASE_V1.0.2/MSDK/plf/GD32VW55x_standard_peripheral/Source\gd32vw55x_timer.c ****         TIMER_CHCTL2(timer_periph) |= (uint32_t)((uint32_t)ocpolarity << 12U);
 1790              		.loc 1 1047 36
 1791 0014 5D8E     		or	a2,a2,a5
 1792 0016 10D1     		sw	a2,32(a0)
1048:C:/Users/stapi/OneDrive/Desktop/GD32VW553/GD32VW55X_Wifi_BLE_SDK/GD32VW55x_RELEASE_V1.0.2/MSDK/plf/GD32VW55x_standard_peripheral/Source\gd32vw55x_timer.c ****         break;
 1793              		.loc 1 1048 9 is_stmt 1
1049:C:/Users/stapi/OneDrive/Desktop/GD32VW553/GD32VW55X_Wifi_BLE_SDK/GD32VW55x_RELEASE_V1.0.2/MSDK/plf/GD32VW55x_standard_peripheral/Source\gd32vw55x_timer.c ****     default:
1050:C:/Users/stapi/OneDrive/Desktop/GD32VW553/GD32VW55X_Wifi_BLE_SDK/GD32VW55x_RELEASE_V1.0.2/MSDK/plf/GD32VW55x_standard_peripheral/Source\gd32vw55x_timer.c ****         break;
1051:C:/Users/stapi/OneDrive/Desktop/GD32VW553/GD32VW55X_Wifi_BLE_SDK/GD32VW55x_RELEASE_V1.0.2/MSDK/plf/GD32VW55x_standard_peripheral/Source\gd32vw55x_timer.c ****     }
1052:C:/Users/stapi/OneDrive/Desktop/GD32VW553/GD32VW55X_Wifi_BLE_SDK/GD32VW55x_RELEASE_V1.0.2/MSDK/plf/GD32VW55x_standard_peripheral/Source\gd32vw55x_timer.c **** }
 1794              		.loc 1 1052 1 is_stmt 0
 1795 0018 8280     		ret
 1796              	.LVL98:
 1797              	.L132:
1028:C:/Users/stapi/OneDrive/Desktop/GD32VW553/GD32VW55X_Wifi_BLE_SDK/GD32VW55x_RELEASE_V1.0.2/MSDK/plf/GD32VW55x_standard_peripheral/Source\gd32vw55x_timer.c ****     /* configure TIMER_CH_0 */
 1798              		.loc 1 1028 5
 1799 001a 8D47     		li	a5,3
 1800 001c 6381F502 		beq	a1,a5,.L135
 1801 0020 8280     		ret
 1802              	.L137:
1036:C:/Users/stapi/OneDrive/Desktop/GD32VW553/GD32VW55X_Wifi_BLE_SDK/GD32VW55x_RELEASE_V1.0.2/MSDK/plf/GD32VW55x_standard_peripheral/Source\gd32vw55x_timer.c ****         TIMER_CHCTL2(timer_periph) |= (uint32_t)((uint32_t)ocpolarity << 4U);
 1803              		.loc 1 1036 9 is_stmt 1
1036:C:/Users/stapi/OneDrive/Desktop/GD32VW553/GD32VW55X_Wifi_BLE_SDK/GD32VW55x_RELEASE_V1.0.2/MSDK/plf/GD32VW55x_standard_peripheral/Source\gd32vw55x_timer.c ****         TIMER_CHCTL2(timer_periph) |= (uint32_t)((uint32_t)ocpolarity << 4U);
 1804              		.loc 1 1036 36 is_stmt 0
 1805 0022 1C51     		lw	a5,32(a0)
1037:C:/Users/stapi/OneDrive/Desktop/GD32VW553/GD32VW55X_Wifi_BLE_SDK/GD32VW55x_RELEASE_V1.0.2/MSDK/plf/GD32VW55x_standard_peripheral/Source\gd32vw55x_timer.c ****         break;
 1806              		.loc 1 1037 39
 1807 0024 1206     		slli	a2,a2,4
 1808              	.LVL99:
1036:C:/Users/stapi/OneDrive/Desktop/GD32VW553/GD32VW55X_Wifi_BLE_SDK/GD32VW55x_RELEASE_V1.0.2/MSDK/plf/GD32VW55x_standard_peripheral/Source\gd32vw55x_timer.c ****         TIMER_CHCTL2(timer_periph) |= (uint32_t)((uint32_t)ocpolarity << 4U);
 1809              		.loc 1 1036 36
 1810 0026 93F7F7FD 		andi	a5,a5,-33
 1811 002a 1CD1     		sw	a5,32(a0)
1037:C:/Users/stapi/OneDrive/Desktop/GD32VW553/GD32VW55X_Wifi_BLE_SDK/GD32VW55x_RELEASE_V1.0.2/MSDK/plf/GD32VW55x_standard_peripheral/Source\gd32vw55x_timer.c ****         break;
 1812              		.loc 1 1037 9 is_stmt 1
1037:C:/Users/stapi/OneDrive/Desktop/GD32VW553/GD32VW55X_Wifi_BLE_SDK/GD32VW55x_RELEASE_V1.0.2/MSDK/plf/GD32VW55x_standard_peripheral/Source\gd32vw55x_timer.c ****         break;
 1813              		.loc 1 1037 36 is_stmt 0
 1814 002c 1C51     		lw	a5,32(a0)
 1815 002e DDB7     		j	.L138
 1816              	.LVL100:
 1817              	.L131:
1041:C:/Users/stapi/OneDrive/Desktop/GD32VW553/GD32VW55X_Wifi_BLE_SDK/GD32VW55x_RELEASE_V1.0.2/MSDK/plf/GD32VW55x_standard_peripheral/Source\gd32vw55x_timer.c ****         TIMER_CHCTL2(timer_periph) |= (uint32_t)((uint32_t)ocpolarity << 8U);
 1818              		.loc 1 1041 9 is_stmt 1
1041:C:/Users/stapi/OneDrive/Desktop/GD32VW553/GD32VW55X_Wifi_BLE_SDK/GD32VW55x_RELEASE_V1.0.2/MSDK/plf/GD32VW55x_standard_peripheral/Source\gd32vw55x_timer.c ****         TIMER_CHCTL2(timer_periph) |= (uint32_t)((uint32_t)ocpolarity << 8U);
 1819              		.loc 1 1041 36 is_stmt 0
 1820 0030 1C51     		lw	a5,32(a0)
1042:C:/Users/stapi/OneDrive/Desktop/GD32VW553/GD32VW55X_Wifi_BLE_SDK/GD32VW55x_RELEASE_V1.0.2/MSDK/plf/GD32VW55x_standard_peripheral/Source\gd32vw55x_timer.c ****         break;
 1821              		.loc 1 1042 39
 1822 0032 2206     		slli	a2,a2,8
 1823              	.LVL101:
1041:C:/Users/stapi/OneDrive/Desktop/GD32VW553/GD32VW55X_Wifi_BLE_SDK/GD32VW55x_RELEASE_V1.0.2/MSDK/plf/GD32VW55x_standard_peripheral/Source\gd32vw55x_timer.c ****         TIMER_CHCTL2(timer_periph) |= (uint32_t)((uint32_t)ocpolarity << 8U);
 1824              		.loc 1 1041 36
 1825 0034 93F7F7DF 		andi	a5,a5,-513
 1826 0038 1CD1     		sw	a5,32(a0)
1042:C:/Users/stapi/OneDrive/Desktop/GD32VW553/GD32VW55X_Wifi_BLE_SDK/GD32VW55x_RELEASE_V1.0.2/MSDK/plf/GD32VW55x_standard_peripheral/Source\gd32vw55x_timer.c ****         break;
 1827              		.loc 1 1042 9 is_stmt 1
1042:C:/Users/stapi/OneDrive/Desktop/GD32VW553/GD32VW55X_Wifi_BLE_SDK/GD32VW55x_RELEASE_V1.0.2/MSDK/plf/GD32VW55x_standard_peripheral/Source\gd32vw55x_timer.c ****         break;
 1828              		.loc 1 1042 36 is_stmt 0
 1829 003a 1C51     		lw	a5,32(a0)
 1830 003c E1BF     		j	.L138
 1831              	.LVL102:
 1832              	.L135:
1046:C:/Users/stapi/OneDrive/Desktop/GD32VW553/GD32VW55X_Wifi_BLE_SDK/GD32VW55x_RELEASE_V1.0.2/MSDK/plf/GD32VW55x_standard_peripheral/Source\gd32vw55x_timer.c ****         TIMER_CHCTL2(timer_periph) |= (uint32_t)((uint32_t)ocpolarity << 12U);
 1833              		.loc 1 1046 9 is_stmt 1
1046:C:/Users/stapi/OneDrive/Desktop/GD32VW553/GD32VW55X_Wifi_BLE_SDK/GD32VW55x_RELEASE_V1.0.2/MSDK/plf/GD32VW55x_standard_peripheral/Source\gd32vw55x_timer.c ****         TIMER_CHCTL2(timer_periph) |= (uint32_t)((uint32_t)ocpolarity << 12U);
 1834              		.loc 1 1046 36 is_stmt 0
 1835 003e 1C51     		lw	a5,32(a0)
1047:C:/Users/stapi/OneDrive/Desktop/GD32VW553/GD32VW55X_Wifi_BLE_SDK/GD32VW55x_RELEASE_V1.0.2/MSDK/plf/GD32VW55x_standard_peripheral/Source\gd32vw55x_timer.c ****         break;
 1836              		.loc 1 1047 39
 1837 0040 3206     		slli	a2,a2,12
 1838              	.LVL103:
1046:C:/Users/stapi/OneDrive/Desktop/GD32VW553/GD32VW55X_Wifi_BLE_SDK/GD32VW55x_RELEASE_V1.0.2/MSDK/plf/GD32VW55x_standard_peripheral/Source\gd32vw55x_timer.c ****         TIMER_CHCTL2(timer_periph) |= (uint32_t)((uint32_t)ocpolarity << 12U);
 1839              		.loc 1 1046 36
 1840 0042 9397D748 		bclri	a5,a5,13
 1841 0046 1CD1     		sw	a5,32(a0)
1047:C:/Users/stapi/OneDrive/Desktop/GD32VW553/GD32VW55X_Wifi_BLE_SDK/GD32VW55x_RELEASE_V1.0.2/MSDK/plf/GD32VW55x_standard_peripheral/Source\gd32vw55x_timer.c ****         break;
 1842              		.loc 1 1047 9 is_stmt 1
1047:C:/Users/stapi/OneDrive/Desktop/GD32VW553/GD32VW55X_Wifi_BLE_SDK/GD32VW55x_RELEASE_V1.0.2/MSDK/plf/GD32VW55x_standard_peripheral/Source\gd32vw55x_timer.c ****         break;
 1843              		.loc 1 1047 36 is_stmt 0
 1844 0048 1C51     		lw	a5,32(a0)
 1845 004a E9B7     		j	.L138
 1846              		.cfi_endproc
 1847              	.LFE406:
 1849              		.section	.text.timer_channel_complementary_output_polarity_config,"ax",@progbits
 1850              		.align	1
 1851              		.globl	timer_channel_complementary_output_polarity_config
 1853              	timer_channel_complementary_output_polarity_config:
 1854              	.LFB407:
1053:C:/Users/stapi/OneDrive/Desktop/GD32VW553/GD32VW55X_Wifi_BLE_SDK/GD32VW55x_RELEASE_V1.0.2/MSDK/plf/GD32VW55x_standard_peripheral/Source\gd32vw55x_timer.c **** 
1054:C:/Users/stapi/OneDrive/Desktop/GD32VW553/GD32VW55X_Wifi_BLE_SDK/GD32VW55x_RELEASE_V1.0.2/MSDK/plf/GD32VW55x_standard_peripheral/Source\gd32vw55x_timer.c **** /*!
1055:C:/Users/stapi/OneDrive/Desktop/GD32VW553/GD32VW55X_Wifi_BLE_SDK/GD32VW55x_RELEASE_V1.0.2/MSDK/plf/GD32VW55x_standard_peripheral/Source\gd32vw55x_timer.c ****     \brief      configure TIMER channel complementary output polarity
1056:C:/Users/stapi/OneDrive/Desktop/GD32VW553/GD32VW55X_Wifi_BLE_SDK/GD32VW55x_RELEASE_V1.0.2/MSDK/plf/GD32VW55x_standard_peripheral/Source\gd32vw55x_timer.c ****     \param[in]  timer_periph: please refer to the following parameters
1057:C:/Users/stapi/OneDrive/Desktop/GD32VW553/GD32VW55X_Wifi_BLE_SDK/GD32VW55x_RELEASE_V1.0.2/MSDK/plf/GD32VW55x_standard_peripheral/Source\gd32vw55x_timer.c ****     \param[in]  channel:
1058:C:/Users/stapi/OneDrive/Desktop/GD32VW553/GD32VW55X_Wifi_BLE_SDK/GD32VW55x_RELEASE_V1.0.2/MSDK/plf/GD32VW55x_standard_peripheral/Source\gd32vw55x_timer.c ****                 only one parameter can be selected which is shown as below:
1059:C:/Users/stapi/OneDrive/Desktop/GD32VW553/GD32VW55X_Wifi_BLE_SDK/GD32VW55x_RELEASE_V1.0.2/MSDK/plf/GD32VW55x_standard_peripheral/Source\gd32vw55x_timer.c ****       \arg        TIMER_CH_0: TIMER channel0(TIMERx(x=0,15,16))
1060:C:/Users/stapi/OneDrive/Desktop/GD32VW553/GD32VW55X_Wifi_BLE_SDK/GD32VW55x_RELEASE_V1.0.2/MSDK/plf/GD32VW55x_standard_peripheral/Source\gd32vw55x_timer.c ****       \arg        TIMER_CH_1: TIMER channel1(TIMERx(x=0))
1061:C:/Users/stapi/OneDrive/Desktop/GD32VW553/GD32VW55X_Wifi_BLE_SDK/GD32VW55x_RELEASE_V1.0.2/MSDK/plf/GD32VW55x_standard_peripheral/Source\gd32vw55x_timer.c ****       \arg        TIMER_CH_2: TIMER channel2(TIMERx(x=0))
1062:C:/Users/stapi/OneDrive/Desktop/GD32VW553/GD32VW55X_Wifi_BLE_SDK/GD32VW55x_RELEASE_V1.0.2/MSDK/plf/GD32VW55x_standard_peripheral/Source\gd32vw55x_timer.c ****     \param[in]  ocnpolarity: channel complementary output polarity
1063:C:/Users/stapi/OneDrive/Desktop/GD32VW553/GD32VW55X_Wifi_BLE_SDK/GD32VW55x_RELEASE_V1.0.2/MSDK/plf/GD32VW55x_standard_peripheral/Source\gd32vw55x_timer.c ****                 only one parameter can be selected which is shown as below:
1064:C:/Users/stapi/OneDrive/Desktop/GD32VW553/GD32VW55X_Wifi_BLE_SDK/GD32VW55x_RELEASE_V1.0.2/MSDK/plf/GD32VW55x_standard_peripheral/Source\gd32vw55x_timer.c ****       \arg        TIMER_OCN_POLARITY_HIGH: channel complementary output polarity is high
1065:C:/Users/stapi/OneDrive/Desktop/GD32VW553/GD32VW55X_Wifi_BLE_SDK/GD32VW55x_RELEASE_V1.0.2/MSDK/plf/GD32VW55x_standard_peripheral/Source\gd32vw55x_timer.c ****       \arg        TIMER_OCN_POLARITY_LOW: channel complementary output polarity is low
1066:C:/Users/stapi/OneDrive/Desktop/GD32VW553/GD32VW55X_Wifi_BLE_SDK/GD32VW55x_RELEASE_V1.0.2/MSDK/plf/GD32VW55x_standard_peripheral/Source\gd32vw55x_timer.c ****     \param[out] none
1067:C:/Users/stapi/OneDrive/Desktop/GD32VW553/GD32VW55X_Wifi_BLE_SDK/GD32VW55x_RELEASE_V1.0.2/MSDK/plf/GD32VW55x_standard_peripheral/Source\gd32vw55x_timer.c ****     \retval     none
1068:C:/Users/stapi/OneDrive/Desktop/GD32VW553/GD32VW55X_Wifi_BLE_SDK/GD32VW55x_RELEASE_V1.0.2/MSDK/plf/GD32VW55x_standard_peripheral/Source\gd32vw55x_timer.c **** */
1069:C:/Users/stapi/OneDrive/Desktop/GD32VW553/GD32VW55X_Wifi_BLE_SDK/GD32VW55x_RELEASE_V1.0.2/MSDK/plf/GD32VW55x_standard_peripheral/Source\gd32vw55x_timer.c **** void timer_channel_complementary_output_polarity_config(uint32_t timer_periph, uint16_t channel, ui
1070:C:/Users/stapi/OneDrive/Desktop/GD32VW553/GD32VW55X_Wifi_BLE_SDK/GD32VW55x_RELEASE_V1.0.2/MSDK/plf/GD32VW55x_standard_peripheral/Source\gd32vw55x_timer.c **** {
 1855              		.loc 1 1070 1 is_stmt 1
 1856              		.cfi_startproc
 1857              	.LVL104:
1071:C:/Users/stapi/OneDrive/Desktop/GD32VW553/GD32VW55X_Wifi_BLE_SDK/GD32VW55x_RELEASE_V1.0.2/MSDK/plf/GD32VW55x_standard_peripheral/Source\gd32vw55x_timer.c ****     switch(channel){
 1858              		.loc 1 1071 5
 1859 0000 8547     		li	a5,1
 1860 0002 638DF500 		beq	a1,a5,.L140
 1861 0006 8947     		li	a5,2
 1862 0008 6381F502 		beq	a1,a5,.L141
 1863 000c 99E5     		bne	a1,zero,.L139
1072:C:/Users/stapi/OneDrive/Desktop/GD32VW553/GD32VW55X_Wifi_BLE_SDK/GD32VW55x_RELEASE_V1.0.2/MSDK/plf/GD32VW55x_standard_peripheral/Source\gd32vw55x_timer.c ****     /* configure TIMER_CH_0 */
1073:C:/Users/stapi/OneDrive/Desktop/GD32VW553/GD32VW55X_Wifi_BLE_SDK/GD32VW55x_RELEASE_V1.0.2/MSDK/plf/GD32VW55x_standard_peripheral/Source\gd32vw55x_timer.c ****     case TIMER_CH_0:
1074:C:/Users/stapi/OneDrive/Desktop/GD32VW553/GD32VW55X_Wifi_BLE_SDK/GD32VW55x_RELEASE_V1.0.2/MSDK/plf/GD32VW55x_standard_peripheral/Source\gd32vw55x_timer.c ****         TIMER_CHCTL2(timer_periph) &= (~(uint32_t)TIMER_CHCTL2_CH0NP);
 1864              		.loc 1 1074 9
 1865              		.loc 1 1074 36 is_stmt 0
 1866 000e 1C51     		lw	a5,32(a0)
 1867 0010 DD9B     		andi	a5,a5,-9
 1868 0012 1CD1     		sw	a5,32(a0)
1075:C:/Users/stapi/OneDrive/Desktop/GD32VW553/GD32VW55X_Wifi_BLE_SDK/GD32VW55x_RELEASE_V1.0.2/MSDK/plf/GD32VW55x_standard_peripheral/Source\gd32vw55x_timer.c ****         TIMER_CHCTL2(timer_periph) |= (uint32_t)ocnpolarity;
 1869              		.loc 1 1075 9 is_stmt 1
 1870              		.loc 1 1075 36 is_stmt 0
 1871 0014 1C51     		lw	a5,32(a0)
 1872              	.LVL105:
 1873              	.L143:
1076:C:/Users/stapi/OneDrive/Desktop/GD32VW553/GD32VW55X_Wifi_BLE_SDK/GD32VW55x_RELEASE_V1.0.2/MSDK/plf/GD32VW55x_standard_peripheral/Source\gd32vw55x_timer.c ****         break;
1077:C:/Users/stapi/OneDrive/Desktop/GD32VW553/GD32VW55X_Wifi_BLE_SDK/GD32VW55x_RELEASE_V1.0.2/MSDK/plf/GD32VW55x_standard_peripheral/Source\gd32vw55x_timer.c ****     /* configure TIMER_CH_1 */
1078:C:/Users/stapi/OneDrive/Desktop/GD32VW553/GD32VW55X_Wifi_BLE_SDK/GD32VW55x_RELEASE_V1.0.2/MSDK/plf/GD32VW55x_standard_peripheral/Source\gd32vw55x_timer.c ****     case TIMER_CH_1:
1079:C:/Users/stapi/OneDrive/Desktop/GD32VW553/GD32VW55X_Wifi_BLE_SDK/GD32VW55x_RELEASE_V1.0.2/MSDK/plf/GD32VW55x_standard_peripheral/Source\gd32vw55x_timer.c ****         TIMER_CHCTL2(timer_periph) &= (~(uint32_t)TIMER_CHCTL2_CH1NP);
1080:C:/Users/stapi/OneDrive/Desktop/GD32VW553/GD32VW55X_Wifi_BLE_SDK/GD32VW55x_RELEASE_V1.0.2/MSDK/plf/GD32VW55x_standard_peripheral/Source\gd32vw55x_timer.c ****         TIMER_CHCTL2(timer_periph) |= (uint32_t)((uint32_t)ocnpolarity << 4U);
1081:C:/Users/stapi/OneDrive/Desktop/GD32VW553/GD32VW55X_Wifi_BLE_SDK/GD32VW55x_RELEASE_V1.0.2/MSDK/plf/GD32VW55x_standard_peripheral/Source\gd32vw55x_timer.c ****         break;
1082:C:/Users/stapi/OneDrive/Desktop/GD32VW553/GD32VW55X_Wifi_BLE_SDK/GD32VW55x_RELEASE_V1.0.2/MSDK/plf/GD32VW55x_standard_peripheral/Source\gd32vw55x_timer.c ****     /* configure TIMER_CH_2 */
1083:C:/Users/stapi/OneDrive/Desktop/GD32VW553/GD32VW55X_Wifi_BLE_SDK/GD32VW55x_RELEASE_V1.0.2/MSDK/plf/GD32VW55x_standard_peripheral/Source\gd32vw55x_timer.c ****     case TIMER_CH_2:
1084:C:/Users/stapi/OneDrive/Desktop/GD32VW553/GD32VW55X_Wifi_BLE_SDK/GD32VW55x_RELEASE_V1.0.2/MSDK/plf/GD32VW55x_standard_peripheral/Source\gd32vw55x_timer.c ****         TIMER_CHCTL2(timer_periph) &= (~(uint32_t)TIMER_CHCTL2_CH2NP);
1085:C:/Users/stapi/OneDrive/Desktop/GD32VW553/GD32VW55X_Wifi_BLE_SDK/GD32VW55x_RELEASE_V1.0.2/MSDK/plf/GD32VW55x_standard_peripheral/Source\gd32vw55x_timer.c ****         TIMER_CHCTL2(timer_periph) |= (uint32_t)((uint32_t)ocnpolarity << 8U);
 1874              		.loc 1 1085 36
 1875 0016 5D8E     		or	a2,a2,a5
 1876 0018 10D1     		sw	a2,32(a0)
1086:C:/Users/stapi/OneDrive/Desktop/GD32VW553/GD32VW55X_Wifi_BLE_SDK/GD32VW55x_RELEASE_V1.0.2/MSDK/plf/GD32VW55x_standard_peripheral/Source\gd32vw55x_timer.c ****         break;
 1877              		.loc 1 1086 9 is_stmt 1
 1878              	.L139:
1087:C:/Users/stapi/OneDrive/Desktop/GD32VW553/GD32VW55X_Wifi_BLE_SDK/GD32VW55x_RELEASE_V1.0.2/MSDK/plf/GD32VW55x_standard_peripheral/Source\gd32vw55x_timer.c ****     default:
1088:C:/Users/stapi/OneDrive/Desktop/GD32VW553/GD32VW55X_Wifi_BLE_SDK/GD32VW55x_RELEASE_V1.0.2/MSDK/plf/GD32VW55x_standard_peripheral/Source\gd32vw55x_timer.c ****         break;
1089:C:/Users/stapi/OneDrive/Desktop/GD32VW553/GD32VW55X_Wifi_BLE_SDK/GD32VW55x_RELEASE_V1.0.2/MSDK/plf/GD32VW55x_standard_peripheral/Source\gd32vw55x_timer.c ****     }
1090:C:/Users/stapi/OneDrive/Desktop/GD32VW553/GD32VW55X_Wifi_BLE_SDK/GD32VW55x_RELEASE_V1.0.2/MSDK/plf/GD32VW55x_standard_peripheral/Source\gd32vw55x_timer.c **** }
 1879              		.loc 1 1090 1 is_stmt 0
 1880 001a 8280     		ret
 1881              	.LVL106:
 1882              	.L140:
1079:C:/Users/stapi/OneDrive/Desktop/GD32VW553/GD32VW55X_Wifi_BLE_SDK/GD32VW55x_RELEASE_V1.0.2/MSDK/plf/GD32VW55x_standard_peripheral/Source\gd32vw55x_timer.c ****         TIMER_CHCTL2(timer_periph) |= (uint32_t)((uint32_t)ocnpolarity << 4U);
 1883              		.loc 1 1079 9 is_stmt 1
1079:C:/Users/stapi/OneDrive/Desktop/GD32VW553/GD32VW55X_Wifi_BLE_SDK/GD32VW55x_RELEASE_V1.0.2/MSDK/plf/GD32VW55x_standard_peripheral/Source\gd32vw55x_timer.c ****         TIMER_CHCTL2(timer_periph) |= (uint32_t)((uint32_t)ocnpolarity << 4U);
 1884              		.loc 1 1079 36 is_stmt 0
 1885 001c 1C51     		lw	a5,32(a0)
1080:C:/Users/stapi/OneDrive/Desktop/GD32VW553/GD32VW55X_Wifi_BLE_SDK/GD32VW55x_RELEASE_V1.0.2/MSDK/plf/GD32VW55x_standard_peripheral/Source\gd32vw55x_timer.c ****         break;
 1886              		.loc 1 1080 39
 1887 001e 1206     		slli	a2,a2,4
 1888              	.LVL107:
1079:C:/Users/stapi/OneDrive/Desktop/GD32VW553/GD32VW55X_Wifi_BLE_SDK/GD32VW55x_RELEASE_V1.0.2/MSDK/plf/GD32VW55x_standard_peripheral/Source\gd32vw55x_timer.c ****         TIMER_CHCTL2(timer_periph) |= (uint32_t)((uint32_t)ocnpolarity << 4U);
 1889              		.loc 1 1079 36
 1890 0020 93F7F7F7 		andi	a5,a5,-129
 1891 0024 1CD1     		sw	a5,32(a0)
1080:C:/Users/stapi/OneDrive/Desktop/GD32VW553/GD32VW55X_Wifi_BLE_SDK/GD32VW55x_RELEASE_V1.0.2/MSDK/plf/GD32VW55x_standard_peripheral/Source\gd32vw55x_timer.c ****         break;
 1892              		.loc 1 1080 9 is_stmt 1
1080:C:/Users/stapi/OneDrive/Desktop/GD32VW553/GD32VW55X_Wifi_BLE_SDK/GD32VW55x_RELEASE_V1.0.2/MSDK/plf/GD32VW55x_standard_peripheral/Source\gd32vw55x_timer.c ****         break;
 1893              		.loc 1 1080 36 is_stmt 0
 1894 0026 1C51     		lw	a5,32(a0)
 1895 0028 FDB7     		j	.L143
 1896              	.LVL108:
 1897              	.L141:
1084:C:/Users/stapi/OneDrive/Desktop/GD32VW553/GD32VW55X_Wifi_BLE_SDK/GD32VW55x_RELEASE_V1.0.2/MSDK/plf/GD32VW55x_standard_peripheral/Source\gd32vw55x_timer.c ****         TIMER_CHCTL2(timer_periph) |= (uint32_t)((uint32_t)ocnpolarity << 8U);
 1898              		.loc 1 1084 9 is_stmt 1
1084:C:/Users/stapi/OneDrive/Desktop/GD32VW553/GD32VW55X_Wifi_BLE_SDK/GD32VW55x_RELEASE_V1.0.2/MSDK/plf/GD32VW55x_standard_peripheral/Source\gd32vw55x_timer.c ****         TIMER_CHCTL2(timer_periph) |= (uint32_t)((uint32_t)ocnpolarity << 8U);
 1899              		.loc 1 1084 36 is_stmt 0
 1900 002a 1C51     		lw	a5,32(a0)
1085:C:/Users/stapi/OneDrive/Desktop/GD32VW553/GD32VW55X_Wifi_BLE_SDK/GD32VW55x_RELEASE_V1.0.2/MSDK/plf/GD32VW55x_standard_peripheral/Source\gd32vw55x_timer.c ****         break;
 1901              		.loc 1 1085 39
 1902 002c 2206     		slli	a2,a2,8
 1903              	.LVL109:
1084:C:/Users/stapi/OneDrive/Desktop/GD32VW553/GD32VW55X_Wifi_BLE_SDK/GD32VW55x_RELEASE_V1.0.2/MSDK/plf/GD32VW55x_standard_peripheral/Source\gd32vw55x_timer.c ****         TIMER_CHCTL2(timer_periph) |= (uint32_t)((uint32_t)ocnpolarity << 8U);
 1904              		.loc 1 1084 36
 1905 002e 9397B748 		bclri	a5,a5,11
 1906 0032 1CD1     		sw	a5,32(a0)
1085:C:/Users/stapi/OneDrive/Desktop/GD32VW553/GD32VW55X_Wifi_BLE_SDK/GD32VW55x_RELEASE_V1.0.2/MSDK/plf/GD32VW55x_standard_peripheral/Source\gd32vw55x_timer.c ****         break;
 1907              		.loc 1 1085 9 is_stmt 1
1085:C:/Users/stapi/OneDrive/Desktop/GD32VW553/GD32VW55X_Wifi_BLE_SDK/GD32VW55x_RELEASE_V1.0.2/MSDK/plf/GD32VW55x_standard_peripheral/Source\gd32vw55x_timer.c ****         break;
 1908              		.loc 1 1085 36 is_stmt 0
 1909 0034 1C51     		lw	a5,32(a0)
 1910 0036 C5B7     		j	.L143
 1911              		.cfi_endproc
 1912              	.LFE407:
 1914              		.section	.text.timer_channel_output_state_config,"ax",@progbits
 1915              		.align	1
 1916              		.globl	timer_channel_output_state_config
 1918              	timer_channel_output_state_config:
 1919              	.LFB408:
1091:C:/Users/stapi/OneDrive/Desktop/GD32VW553/GD32VW55X_Wifi_BLE_SDK/GD32VW55x_RELEASE_V1.0.2/MSDK/plf/GD32VW55x_standard_peripheral/Source\gd32vw55x_timer.c **** 
1092:C:/Users/stapi/OneDrive/Desktop/GD32VW553/GD32VW55X_Wifi_BLE_SDK/GD32VW55x_RELEASE_V1.0.2/MSDK/plf/GD32VW55x_standard_peripheral/Source\gd32vw55x_timer.c **** /*!
1093:C:/Users/stapi/OneDrive/Desktop/GD32VW553/GD32VW55X_Wifi_BLE_SDK/GD32VW55x_RELEASE_V1.0.2/MSDK/plf/GD32VW55x_standard_peripheral/Source\gd32vw55x_timer.c ****     \brief      configure TIMER channel enable state
1094:C:/Users/stapi/OneDrive/Desktop/GD32VW553/GD32VW55X_Wifi_BLE_SDK/GD32VW55x_RELEASE_V1.0.2/MSDK/plf/GD32VW55x_standard_peripheral/Source\gd32vw55x_timer.c ****     \param[in]  timer_periph: please refer to the following parameters
1095:C:/Users/stapi/OneDrive/Desktop/GD32VW553/GD32VW55X_Wifi_BLE_SDK/GD32VW55x_RELEASE_V1.0.2/MSDK/plf/GD32VW55x_standard_peripheral/Source\gd32vw55x_timer.c ****     \param[in]  channel:
1096:C:/Users/stapi/OneDrive/Desktop/GD32VW553/GD32VW55X_Wifi_BLE_SDK/GD32VW55x_RELEASE_V1.0.2/MSDK/plf/GD32VW55x_standard_peripheral/Source\gd32vw55x_timer.c ****                 only one parameter can be selected which is shown as below:
1097:C:/Users/stapi/OneDrive/Desktop/GD32VW553/GD32VW55X_Wifi_BLE_SDK/GD32VW55x_RELEASE_V1.0.2/MSDK/plf/GD32VW55x_standard_peripheral/Source\gd32vw55x_timer.c ****       \arg        TIMER_CH_0: TIMER channel0(TIMERx(x=0,1,2,15,16))
1098:C:/Users/stapi/OneDrive/Desktop/GD32VW553/GD32VW55X_Wifi_BLE_SDK/GD32VW55x_RELEASE_V1.0.2/MSDK/plf/GD32VW55x_standard_peripheral/Source\gd32vw55x_timer.c ****       \arg        TIMER_CH_1: TIMER channel1(TIMERx(x=0,1,2))
1099:C:/Users/stapi/OneDrive/Desktop/GD32VW553/GD32VW55X_Wifi_BLE_SDK/GD32VW55x_RELEASE_V1.0.2/MSDK/plf/GD32VW55x_standard_peripheral/Source\gd32vw55x_timer.c ****       \arg        TIMER_CH_2: TIMER channel2(TIMERx(x=0,1,2))
1100:C:/Users/stapi/OneDrive/Desktop/GD32VW553/GD32VW55X_Wifi_BLE_SDK/GD32VW55x_RELEASE_V1.0.2/MSDK/plf/GD32VW55x_standard_peripheral/Source\gd32vw55x_timer.c ****       \arg        TIMER_CH_3: TIMER channel3(TIMERx(x=0,1,2))
1101:C:/Users/stapi/OneDrive/Desktop/GD32VW553/GD32VW55X_Wifi_BLE_SDK/GD32VW55x_RELEASE_V1.0.2/MSDK/plf/GD32VW55x_standard_peripheral/Source\gd32vw55x_timer.c ****     \param[in]  state: TIMER channel enable state
1102:C:/Users/stapi/OneDrive/Desktop/GD32VW553/GD32VW55X_Wifi_BLE_SDK/GD32VW55x_RELEASE_V1.0.2/MSDK/plf/GD32VW55x_standard_peripheral/Source\gd32vw55x_timer.c ****                 only one parameter can be selected which is shown as below:
1103:C:/Users/stapi/OneDrive/Desktop/GD32VW553/GD32VW55X_Wifi_BLE_SDK/GD32VW55x_RELEASE_V1.0.2/MSDK/plf/GD32VW55x_standard_peripheral/Source\gd32vw55x_timer.c ****       \arg        TIMER_CCX_ENABLE: channel enable
1104:C:/Users/stapi/OneDrive/Desktop/GD32VW553/GD32VW55X_Wifi_BLE_SDK/GD32VW55x_RELEASE_V1.0.2/MSDK/plf/GD32VW55x_standard_peripheral/Source\gd32vw55x_timer.c ****       \arg        TIMER_CCX_DISABLE: channel disable
1105:C:/Users/stapi/OneDrive/Desktop/GD32VW553/GD32VW55X_Wifi_BLE_SDK/GD32VW55x_RELEASE_V1.0.2/MSDK/plf/GD32VW55x_standard_peripheral/Source\gd32vw55x_timer.c ****     \param[out] none
1106:C:/Users/stapi/OneDrive/Desktop/GD32VW553/GD32VW55X_Wifi_BLE_SDK/GD32VW55x_RELEASE_V1.0.2/MSDK/plf/GD32VW55x_standard_peripheral/Source\gd32vw55x_timer.c ****     \retval     none
1107:C:/Users/stapi/OneDrive/Desktop/GD32VW553/GD32VW55X_Wifi_BLE_SDK/GD32VW55x_RELEASE_V1.0.2/MSDK/plf/GD32VW55x_standard_peripheral/Source\gd32vw55x_timer.c **** */
1108:C:/Users/stapi/OneDrive/Desktop/GD32VW553/GD32VW55X_Wifi_BLE_SDK/GD32VW55x_RELEASE_V1.0.2/MSDK/plf/GD32VW55x_standard_peripheral/Source\gd32vw55x_timer.c **** void timer_channel_output_state_config(uint32_t timer_periph, uint16_t channel, uint32_t state)
1109:C:/Users/stapi/OneDrive/Desktop/GD32VW553/GD32VW55X_Wifi_BLE_SDK/GD32VW55x_RELEASE_V1.0.2/MSDK/plf/GD32VW55x_standard_peripheral/Source\gd32vw55x_timer.c **** {
 1920              		.loc 1 1109 1 is_stmt 1
 1921              		.cfi_startproc
 1922              	.LVL110:
1110:C:/Users/stapi/OneDrive/Desktop/GD32VW553/GD32VW55X_Wifi_BLE_SDK/GD32VW55x_RELEASE_V1.0.2/MSDK/plf/GD32VW55x_standard_peripheral/Source\gd32vw55x_timer.c ****     switch(channel){
 1923              		.loc 1 1110 5
 1924 0000 8947     		li	a5,2
 1925 0002 6386F502 		beq	a1,a5,.L145
 1926 0006 63EAB700 		bgtu	a1,a5,.L146
 1927 000a 81ED     		bne	a1,zero,.L151
1111:C:/Users/stapi/OneDrive/Desktop/GD32VW553/GD32VW55X_Wifi_BLE_SDK/GD32VW55x_RELEASE_V1.0.2/MSDK/plf/GD32VW55x_standard_peripheral/Source\gd32vw55x_timer.c ****     /* configure TIMER_CH_0 */
1112:C:/Users/stapi/OneDrive/Desktop/GD32VW553/GD32VW55X_Wifi_BLE_SDK/GD32VW55x_RELEASE_V1.0.2/MSDK/plf/GD32VW55x_standard_peripheral/Source\gd32vw55x_timer.c ****     case TIMER_CH_0:
1113:C:/Users/stapi/OneDrive/Desktop/GD32VW553/GD32VW55X_Wifi_BLE_SDK/GD32VW55x_RELEASE_V1.0.2/MSDK/plf/GD32VW55x_standard_peripheral/Source\gd32vw55x_timer.c ****         TIMER_CHCTL2(timer_periph) &= (~(uint32_t)TIMER_CHCTL2_CH0EN);
 1928              		.loc 1 1113 9
 1929              		.loc 1 1113 36 is_stmt 0
 1930 000c 1C51     		lw	a5,32(a0)
 1931 000e F99B     		andi	a5,a5,-2
 1932 0010 1CD1     		sw	a5,32(a0)
1114:C:/Users/stapi/OneDrive/Desktop/GD32VW553/GD32VW55X_Wifi_BLE_SDK/GD32VW55x_RELEASE_V1.0.2/MSDK/plf/GD32VW55x_standard_peripheral/Source\gd32vw55x_timer.c ****         TIMER_CHCTL2(timer_periph) |= (uint32_t)state;
 1933              		.loc 1 1114 9 is_stmt 1
 1934              		.loc 1 1114 36 is_stmt 0
 1935 0012 1C51     		lw	a5,32(a0)
 1936              	.LVL111:
 1937              	.L152:
1115:C:/Users/stapi/OneDrive/Desktop/GD32VW553/GD32VW55X_Wifi_BLE_SDK/GD32VW55x_RELEASE_V1.0.2/MSDK/plf/GD32VW55x_standard_peripheral/Source\gd32vw55x_timer.c ****         break;
1116:C:/Users/stapi/OneDrive/Desktop/GD32VW553/GD32VW55X_Wifi_BLE_SDK/GD32VW55x_RELEASE_V1.0.2/MSDK/plf/GD32VW55x_standard_peripheral/Source\gd32vw55x_timer.c ****     /* configure TIMER_CH_1 */
1117:C:/Users/stapi/OneDrive/Desktop/GD32VW553/GD32VW55X_Wifi_BLE_SDK/GD32VW55x_RELEASE_V1.0.2/MSDK/plf/GD32VW55x_standard_peripheral/Source\gd32vw55x_timer.c ****     case TIMER_CH_1:
1118:C:/Users/stapi/OneDrive/Desktop/GD32VW553/GD32VW55X_Wifi_BLE_SDK/GD32VW55x_RELEASE_V1.0.2/MSDK/plf/GD32VW55x_standard_peripheral/Source\gd32vw55x_timer.c ****         TIMER_CHCTL2(timer_periph) &= (~(uint32_t)TIMER_CHCTL2_CH1EN);
1119:C:/Users/stapi/OneDrive/Desktop/GD32VW553/GD32VW55X_Wifi_BLE_SDK/GD32VW55x_RELEASE_V1.0.2/MSDK/plf/GD32VW55x_standard_peripheral/Source\gd32vw55x_timer.c ****         TIMER_CHCTL2(timer_periph) |= (uint32_t)((uint32_t)state << 4U);
1120:C:/Users/stapi/OneDrive/Desktop/GD32VW553/GD32VW55X_Wifi_BLE_SDK/GD32VW55x_RELEASE_V1.0.2/MSDK/plf/GD32VW55x_standard_peripheral/Source\gd32vw55x_timer.c ****         break;
1121:C:/Users/stapi/OneDrive/Desktop/GD32VW553/GD32VW55X_Wifi_BLE_SDK/GD32VW55x_RELEASE_V1.0.2/MSDK/plf/GD32VW55x_standard_peripheral/Source\gd32vw55x_timer.c ****     /* configure TIMER_CH_2 */
1122:C:/Users/stapi/OneDrive/Desktop/GD32VW553/GD32VW55X_Wifi_BLE_SDK/GD32VW55x_RELEASE_V1.0.2/MSDK/plf/GD32VW55x_standard_peripheral/Source\gd32vw55x_timer.c ****     case TIMER_CH_2:
1123:C:/Users/stapi/OneDrive/Desktop/GD32VW553/GD32VW55X_Wifi_BLE_SDK/GD32VW55x_RELEASE_V1.0.2/MSDK/plf/GD32VW55x_standard_peripheral/Source\gd32vw55x_timer.c ****         TIMER_CHCTL2(timer_periph) &= (~(uint32_t)TIMER_CHCTL2_CH2EN);
1124:C:/Users/stapi/OneDrive/Desktop/GD32VW553/GD32VW55X_Wifi_BLE_SDK/GD32VW55x_RELEASE_V1.0.2/MSDK/plf/GD32VW55x_standard_peripheral/Source\gd32vw55x_timer.c ****         TIMER_CHCTL2(timer_periph) |= (uint32_t)((uint32_t)state << 8U);
1125:C:/Users/stapi/OneDrive/Desktop/GD32VW553/GD32VW55X_Wifi_BLE_SDK/GD32VW55x_RELEASE_V1.0.2/MSDK/plf/GD32VW55x_standard_peripheral/Source\gd32vw55x_timer.c ****         break;
1126:C:/Users/stapi/OneDrive/Desktop/GD32VW553/GD32VW55X_Wifi_BLE_SDK/GD32VW55x_RELEASE_V1.0.2/MSDK/plf/GD32VW55x_standard_peripheral/Source\gd32vw55x_timer.c ****     /* configure TIMER_CH_3 */
1127:C:/Users/stapi/OneDrive/Desktop/GD32VW553/GD32VW55X_Wifi_BLE_SDK/GD32VW55x_RELEASE_V1.0.2/MSDK/plf/GD32VW55x_standard_peripheral/Source\gd32vw55x_timer.c ****     case TIMER_CH_3:
1128:C:/Users/stapi/OneDrive/Desktop/GD32VW553/GD32VW55X_Wifi_BLE_SDK/GD32VW55x_RELEASE_V1.0.2/MSDK/plf/GD32VW55x_standard_peripheral/Source\gd32vw55x_timer.c ****         TIMER_CHCTL2(timer_periph) &= (~(uint32_t)TIMER_CHCTL2_CH3EN);
1129:C:/Users/stapi/OneDrive/Desktop/GD32VW553/GD32VW55X_Wifi_BLE_SDK/GD32VW55x_RELEASE_V1.0.2/MSDK/plf/GD32VW55x_standard_peripheral/Source\gd32vw55x_timer.c ****         TIMER_CHCTL2(timer_periph) |= (uint32_t)((uint32_t)state << 12U);
 1938              		.loc 1 1129 36
 1939 0014 5D8E     		or	a2,a2,a5
 1940 0016 10D1     		sw	a2,32(a0)
1130:C:/Users/stapi/OneDrive/Desktop/GD32VW553/GD32VW55X_Wifi_BLE_SDK/GD32VW55x_RELEASE_V1.0.2/MSDK/plf/GD32VW55x_standard_peripheral/Source\gd32vw55x_timer.c ****         break;
 1941              		.loc 1 1130 9 is_stmt 1
1131:C:/Users/stapi/OneDrive/Desktop/GD32VW553/GD32VW55X_Wifi_BLE_SDK/GD32VW55x_RELEASE_V1.0.2/MSDK/plf/GD32VW55x_standard_peripheral/Source\gd32vw55x_timer.c ****     default:
1132:C:/Users/stapi/OneDrive/Desktop/GD32VW553/GD32VW55X_Wifi_BLE_SDK/GD32VW55x_RELEASE_V1.0.2/MSDK/plf/GD32VW55x_standard_peripheral/Source\gd32vw55x_timer.c ****         break;
1133:C:/Users/stapi/OneDrive/Desktop/GD32VW553/GD32VW55X_Wifi_BLE_SDK/GD32VW55x_RELEASE_V1.0.2/MSDK/plf/GD32VW55x_standard_peripheral/Source\gd32vw55x_timer.c ****     }
1134:C:/Users/stapi/OneDrive/Desktop/GD32VW553/GD32VW55X_Wifi_BLE_SDK/GD32VW55x_RELEASE_V1.0.2/MSDK/plf/GD32VW55x_standard_peripheral/Source\gd32vw55x_timer.c **** }
 1942              		.loc 1 1134 1 is_stmt 0
 1943 0018 8280     		ret
 1944              	.LVL112:
 1945              	.L146:
1110:C:/Users/stapi/OneDrive/Desktop/GD32VW553/GD32VW55X_Wifi_BLE_SDK/GD32VW55x_RELEASE_V1.0.2/MSDK/plf/GD32VW55x_standard_peripheral/Source\gd32vw55x_timer.c ****     /* configure TIMER_CH_0 */
 1946              		.loc 1 1110 5
 1947 001a 8D47     		li	a5,3
 1948 001c 6380F502 		beq	a1,a5,.L149
 1949 0020 8280     		ret
 1950              	.L151:
1118:C:/Users/stapi/OneDrive/Desktop/GD32VW553/GD32VW55X_Wifi_BLE_SDK/GD32VW55x_RELEASE_V1.0.2/MSDK/plf/GD32VW55x_standard_peripheral/Source\gd32vw55x_timer.c ****         TIMER_CHCTL2(timer_periph) |= (uint32_t)((uint32_t)state << 4U);
 1951              		.loc 1 1118 9 is_stmt 1
1118:C:/Users/stapi/OneDrive/Desktop/GD32VW553/GD32VW55X_Wifi_BLE_SDK/GD32VW55x_RELEASE_V1.0.2/MSDK/plf/GD32VW55x_standard_peripheral/Source\gd32vw55x_timer.c ****         TIMER_CHCTL2(timer_periph) |= (uint32_t)((uint32_t)state << 4U);
 1952              		.loc 1 1118 36 is_stmt 0
 1953 0022 1C51     		lw	a5,32(a0)
1119:C:/Users/stapi/OneDrive/Desktop/GD32VW553/GD32VW55X_Wifi_BLE_SDK/GD32VW55x_RELEASE_V1.0.2/MSDK/plf/GD32VW55x_standard_peripheral/Source\gd32vw55x_timer.c ****         break;
 1954              		.loc 1 1119 39
 1955 0024 1206     		slli	a2,a2,4
 1956              	.LVL113:
1118:C:/Users/stapi/OneDrive/Desktop/GD32VW553/GD32VW55X_Wifi_BLE_SDK/GD32VW55x_RELEASE_V1.0.2/MSDK/plf/GD32VW55x_standard_peripheral/Source\gd32vw55x_timer.c ****         TIMER_CHCTL2(timer_periph) |= (uint32_t)((uint32_t)state << 4U);
 1957              		.loc 1 1118 36
 1958 0026 BD9B     		andi	a5,a5,-17
 1959 0028 1CD1     		sw	a5,32(a0)
1119:C:/Users/stapi/OneDrive/Desktop/GD32VW553/GD32VW55X_Wifi_BLE_SDK/GD32VW55x_RELEASE_V1.0.2/MSDK/plf/GD32VW55x_standard_peripheral/Source\gd32vw55x_timer.c ****         break;
 1960              		.loc 1 1119 9 is_stmt 1
1119:C:/Users/stapi/OneDrive/Desktop/GD32VW553/GD32VW55X_Wifi_BLE_SDK/GD32VW55x_RELEASE_V1.0.2/MSDK/plf/GD32VW55x_standard_peripheral/Source\gd32vw55x_timer.c ****         break;
 1961              		.loc 1 1119 36 is_stmt 0
 1962 002a 1C51     		lw	a5,32(a0)
 1963 002c E5B7     		j	.L152
 1964              	.LVL114:
 1965              	.L145:
1123:C:/Users/stapi/OneDrive/Desktop/GD32VW553/GD32VW55X_Wifi_BLE_SDK/GD32VW55x_RELEASE_V1.0.2/MSDK/plf/GD32VW55x_standard_peripheral/Source\gd32vw55x_timer.c ****         TIMER_CHCTL2(timer_periph) |= (uint32_t)((uint32_t)state << 8U);
 1966              		.loc 1 1123 9 is_stmt 1
1123:C:/Users/stapi/OneDrive/Desktop/GD32VW553/GD32VW55X_Wifi_BLE_SDK/GD32VW55x_RELEASE_V1.0.2/MSDK/plf/GD32VW55x_standard_peripheral/Source\gd32vw55x_timer.c ****         TIMER_CHCTL2(timer_periph) |= (uint32_t)((uint32_t)state << 8U);
 1967              		.loc 1 1123 36 is_stmt 0
 1968 002e 1C51     		lw	a5,32(a0)
1124:C:/Users/stapi/OneDrive/Desktop/GD32VW553/GD32VW55X_Wifi_BLE_SDK/GD32VW55x_RELEASE_V1.0.2/MSDK/plf/GD32VW55x_standard_peripheral/Source\gd32vw55x_timer.c ****         break;
 1969              		.loc 1 1124 39
 1970 0030 2206     		slli	a2,a2,8
 1971              	.LVL115:
1123:C:/Users/stapi/OneDrive/Desktop/GD32VW553/GD32VW55X_Wifi_BLE_SDK/GD32VW55x_RELEASE_V1.0.2/MSDK/plf/GD32VW55x_standard_peripheral/Source\gd32vw55x_timer.c ****         TIMER_CHCTL2(timer_periph) |= (uint32_t)((uint32_t)state << 8U);
 1972              		.loc 1 1123 36
 1973 0032 93F7F7EF 		andi	a5,a5,-257
 1974 0036 1CD1     		sw	a5,32(a0)
1124:C:/Users/stapi/OneDrive/Desktop/GD32VW553/GD32VW55X_Wifi_BLE_SDK/GD32VW55x_RELEASE_V1.0.2/MSDK/plf/GD32VW55x_standard_peripheral/Source\gd32vw55x_timer.c ****         break;
 1975              		.loc 1 1124 9 is_stmt 1
1124:C:/Users/stapi/OneDrive/Desktop/GD32VW553/GD32VW55X_Wifi_BLE_SDK/GD32VW55x_RELEASE_V1.0.2/MSDK/plf/GD32VW55x_standard_peripheral/Source\gd32vw55x_timer.c ****         break;
 1976              		.loc 1 1124 36 is_stmt 0
 1977 0038 1C51     		lw	a5,32(a0)
 1978 003a E9BF     		j	.L152
 1979              	.LVL116:
 1980              	.L149:
1128:C:/Users/stapi/OneDrive/Desktop/GD32VW553/GD32VW55X_Wifi_BLE_SDK/GD32VW55x_RELEASE_V1.0.2/MSDK/plf/GD32VW55x_standard_peripheral/Source\gd32vw55x_timer.c ****         TIMER_CHCTL2(timer_periph) |= (uint32_t)((uint32_t)state << 12U);
 1981              		.loc 1 1128 9 is_stmt 1
1128:C:/Users/stapi/OneDrive/Desktop/GD32VW553/GD32VW55X_Wifi_BLE_SDK/GD32VW55x_RELEASE_V1.0.2/MSDK/plf/GD32VW55x_standard_peripheral/Source\gd32vw55x_timer.c ****         TIMER_CHCTL2(timer_periph) |= (uint32_t)((uint32_t)state << 12U);
 1982              		.loc 1 1128 36 is_stmt 0
 1983 003c 1C51     		lw	a5,32(a0)
1129:C:/Users/stapi/OneDrive/Desktop/GD32VW553/GD32VW55X_Wifi_BLE_SDK/GD32VW55x_RELEASE_V1.0.2/MSDK/plf/GD32VW55x_standard_peripheral/Source\gd32vw55x_timer.c ****         break;
 1984              		.loc 1 1129 39
 1985 003e 3206     		slli	a2,a2,12
 1986              	.LVL117:
1128:C:/Users/stapi/OneDrive/Desktop/GD32VW553/GD32VW55X_Wifi_BLE_SDK/GD32VW55x_RELEASE_V1.0.2/MSDK/plf/GD32VW55x_standard_peripheral/Source\gd32vw55x_timer.c ****         TIMER_CHCTL2(timer_periph) |= (uint32_t)((uint32_t)state << 12U);
 1987              		.loc 1 1128 36
 1988 0040 9397C748 		bclri	a5,a5,12
 1989 0044 1CD1     		sw	a5,32(a0)
1129:C:/Users/stapi/OneDrive/Desktop/GD32VW553/GD32VW55X_Wifi_BLE_SDK/GD32VW55x_RELEASE_V1.0.2/MSDK/plf/GD32VW55x_standard_peripheral/Source\gd32vw55x_timer.c ****         break;
 1990              		.loc 1 1129 9 is_stmt 1
1129:C:/Users/stapi/OneDrive/Desktop/GD32VW553/GD32VW55X_Wifi_BLE_SDK/GD32VW55x_RELEASE_V1.0.2/MSDK/plf/GD32VW55x_standard_peripheral/Source\gd32vw55x_timer.c ****         break;
 1991              		.loc 1 1129 36 is_stmt 0
 1992 0046 1C51     		lw	a5,32(a0)
 1993 0048 F1B7     		j	.L152
 1994              		.cfi_endproc
 1995              	.LFE408:
 1997              		.section	.text.timer_channel_complementary_output_state_config,"ax",@progbits
 1998              		.align	1
 1999              		.globl	timer_channel_complementary_output_state_config
 2001              	timer_channel_complementary_output_state_config:
 2002              	.LFB409:
1135:C:/Users/stapi/OneDrive/Desktop/GD32VW553/GD32VW55X_Wifi_BLE_SDK/GD32VW55x_RELEASE_V1.0.2/MSDK/plf/GD32VW55x_standard_peripheral/Source\gd32vw55x_timer.c **** 
1136:C:/Users/stapi/OneDrive/Desktop/GD32VW553/GD32VW55X_Wifi_BLE_SDK/GD32VW55x_RELEASE_V1.0.2/MSDK/plf/GD32VW55x_standard_peripheral/Source\gd32vw55x_timer.c **** /*!
1137:C:/Users/stapi/OneDrive/Desktop/GD32VW553/GD32VW55X_Wifi_BLE_SDK/GD32VW55x_RELEASE_V1.0.2/MSDK/plf/GD32VW55x_standard_peripheral/Source\gd32vw55x_timer.c ****     \brief      configure TIMER channel complementary output enable state
1138:C:/Users/stapi/OneDrive/Desktop/GD32VW553/GD32VW55X_Wifi_BLE_SDK/GD32VW55x_RELEASE_V1.0.2/MSDK/plf/GD32VW55x_standard_peripheral/Source\gd32vw55x_timer.c ****     \param[in]  timer_periph: please refer to the following parameters
1139:C:/Users/stapi/OneDrive/Desktop/GD32VW553/GD32VW55X_Wifi_BLE_SDK/GD32VW55x_RELEASE_V1.0.2/MSDK/plf/GD32VW55x_standard_peripheral/Source\gd32vw55x_timer.c ****     \param[in]  channel:
1140:C:/Users/stapi/OneDrive/Desktop/GD32VW553/GD32VW55X_Wifi_BLE_SDK/GD32VW55x_RELEASE_V1.0.2/MSDK/plf/GD32VW55x_standard_peripheral/Source\gd32vw55x_timer.c ****                 only one parameter can be selected which is shown as below:
1141:C:/Users/stapi/OneDrive/Desktop/GD32VW553/GD32VW55X_Wifi_BLE_SDK/GD32VW55x_RELEASE_V1.0.2/MSDK/plf/GD32VW55x_standard_peripheral/Source\gd32vw55x_timer.c ****       \arg        TIMER_CH_0: TIMER channel0(TIMERx(x=0,15,16))
1142:C:/Users/stapi/OneDrive/Desktop/GD32VW553/GD32VW55X_Wifi_BLE_SDK/GD32VW55x_RELEASE_V1.0.2/MSDK/plf/GD32VW55x_standard_peripheral/Source\gd32vw55x_timer.c ****       \arg        TIMER_CH_1: TIMER channel1(TIMERx(x=0))
1143:C:/Users/stapi/OneDrive/Desktop/GD32VW553/GD32VW55X_Wifi_BLE_SDK/GD32VW55x_RELEASE_V1.0.2/MSDK/plf/GD32VW55x_standard_peripheral/Source\gd32vw55x_timer.c ****       \arg        TIMER_CH_2: TIMER channel2(TIMERx(x=0))
1144:C:/Users/stapi/OneDrive/Desktop/GD32VW553/GD32VW55X_Wifi_BLE_SDK/GD32VW55x_RELEASE_V1.0.2/MSDK/plf/GD32VW55x_standard_peripheral/Source\gd32vw55x_timer.c ****     \param[in]  ocnstate: TIMER channel complementary output enable state
1145:C:/Users/stapi/OneDrive/Desktop/GD32VW553/GD32VW55X_Wifi_BLE_SDK/GD32VW55x_RELEASE_V1.0.2/MSDK/plf/GD32VW55x_standard_peripheral/Source\gd32vw55x_timer.c ****                 only one parameter can be selected which is shown as below:
1146:C:/Users/stapi/OneDrive/Desktop/GD32VW553/GD32VW55X_Wifi_BLE_SDK/GD32VW55x_RELEASE_V1.0.2/MSDK/plf/GD32VW55x_standard_peripheral/Source\gd32vw55x_timer.c ****       \arg        TIMER_CCXN_ENABLE: channel complementary enable
1147:C:/Users/stapi/OneDrive/Desktop/GD32VW553/GD32VW55X_Wifi_BLE_SDK/GD32VW55x_RELEASE_V1.0.2/MSDK/plf/GD32VW55x_standard_peripheral/Source\gd32vw55x_timer.c ****       \arg        TIMER_CCXN_DISABLE: channel complementary disable
1148:C:/Users/stapi/OneDrive/Desktop/GD32VW553/GD32VW55X_Wifi_BLE_SDK/GD32VW55x_RELEASE_V1.0.2/MSDK/plf/GD32VW55x_standard_peripheral/Source\gd32vw55x_timer.c ****     \param[out] none
1149:C:/Users/stapi/OneDrive/Desktop/GD32VW553/GD32VW55X_Wifi_BLE_SDK/GD32VW55x_RELEASE_V1.0.2/MSDK/plf/GD32VW55x_standard_peripheral/Source\gd32vw55x_timer.c ****     \retval     none
1150:C:/Users/stapi/OneDrive/Desktop/GD32VW553/GD32VW55X_Wifi_BLE_SDK/GD32VW55x_RELEASE_V1.0.2/MSDK/plf/GD32VW55x_standard_peripheral/Source\gd32vw55x_timer.c **** */
1151:C:/Users/stapi/OneDrive/Desktop/GD32VW553/GD32VW55X_Wifi_BLE_SDK/GD32VW55x_RELEASE_V1.0.2/MSDK/plf/GD32VW55x_standard_peripheral/Source\gd32vw55x_timer.c **** void timer_channel_complementary_output_state_config(uint32_t timer_periph, uint16_t channel, uint1
1152:C:/Users/stapi/OneDrive/Desktop/GD32VW553/GD32VW55X_Wifi_BLE_SDK/GD32VW55x_RELEASE_V1.0.2/MSDK/plf/GD32VW55x_standard_peripheral/Source\gd32vw55x_timer.c **** {
 2003              		.loc 1 1152 1 is_stmt 1
 2004              		.cfi_startproc
 2005              	.LVL118:
1153:C:/Users/stapi/OneDrive/Desktop/GD32VW553/GD32VW55X_Wifi_BLE_SDK/GD32VW55x_RELEASE_V1.0.2/MSDK/plf/GD32VW55x_standard_peripheral/Source\gd32vw55x_timer.c ****     switch(channel){
 2006              		.loc 1 1153 5
 2007 0000 8547     		li	a5,1
 2008 0002 638DF500 		beq	a1,a5,.L154
 2009 0006 8947     		li	a5,2
 2010 0008 6381F502 		beq	a1,a5,.L155
 2011 000c 99E5     		bne	a1,zero,.L153
1154:C:/Users/stapi/OneDrive/Desktop/GD32VW553/GD32VW55X_Wifi_BLE_SDK/GD32VW55x_RELEASE_V1.0.2/MSDK/plf/GD32VW55x_standard_peripheral/Source\gd32vw55x_timer.c ****     /* configure TIMER_CH_0 */
1155:C:/Users/stapi/OneDrive/Desktop/GD32VW553/GD32VW55X_Wifi_BLE_SDK/GD32VW55x_RELEASE_V1.0.2/MSDK/plf/GD32VW55x_standard_peripheral/Source\gd32vw55x_timer.c ****     case TIMER_CH_0:
1156:C:/Users/stapi/OneDrive/Desktop/GD32VW553/GD32VW55X_Wifi_BLE_SDK/GD32VW55x_RELEASE_V1.0.2/MSDK/plf/GD32VW55x_standard_peripheral/Source\gd32vw55x_timer.c ****         TIMER_CHCTL2(timer_periph) &= (~(uint32_t)TIMER_CHCTL2_CH0NEN);
 2012              		.loc 1 1156 9
 2013              		.loc 1 1156 36 is_stmt 0
 2014 000e 1C51     		lw	a5,32(a0)
 2015 0010 ED9B     		andi	a5,a5,-5
 2016 0012 1CD1     		sw	a5,32(a0)
1157:C:/Users/stapi/OneDrive/Desktop/GD32VW553/GD32VW55X_Wifi_BLE_SDK/GD32VW55x_RELEASE_V1.0.2/MSDK/plf/GD32VW55x_standard_peripheral/Source\gd32vw55x_timer.c ****         TIMER_CHCTL2(timer_periph) |= (uint32_t)ocnstate;
 2017              		.loc 1 1157 9 is_stmt 1
 2018              		.loc 1 1157 36 is_stmt 0
 2019 0014 1C51     		lw	a5,32(a0)
 2020              	.LVL119:
 2021              	.L157:
1158:C:/Users/stapi/OneDrive/Desktop/GD32VW553/GD32VW55X_Wifi_BLE_SDK/GD32VW55x_RELEASE_V1.0.2/MSDK/plf/GD32VW55x_standard_peripheral/Source\gd32vw55x_timer.c ****         break;
1159:C:/Users/stapi/OneDrive/Desktop/GD32VW553/GD32VW55X_Wifi_BLE_SDK/GD32VW55x_RELEASE_V1.0.2/MSDK/plf/GD32VW55x_standard_peripheral/Source\gd32vw55x_timer.c ****     /* configure TIMER_CH_1 */
1160:C:/Users/stapi/OneDrive/Desktop/GD32VW553/GD32VW55X_Wifi_BLE_SDK/GD32VW55x_RELEASE_V1.0.2/MSDK/plf/GD32VW55x_standard_peripheral/Source\gd32vw55x_timer.c ****     case TIMER_CH_1:
1161:C:/Users/stapi/OneDrive/Desktop/GD32VW553/GD32VW55X_Wifi_BLE_SDK/GD32VW55x_RELEASE_V1.0.2/MSDK/plf/GD32VW55x_standard_peripheral/Source\gd32vw55x_timer.c ****         TIMER_CHCTL2(timer_periph) &= (~(uint32_t)TIMER_CHCTL2_CH1NEN);
1162:C:/Users/stapi/OneDrive/Desktop/GD32VW553/GD32VW55X_Wifi_BLE_SDK/GD32VW55x_RELEASE_V1.0.2/MSDK/plf/GD32VW55x_standard_peripheral/Source\gd32vw55x_timer.c ****         TIMER_CHCTL2(timer_periph) |= (uint32_t)((uint32_t)ocnstate << 4U);
1163:C:/Users/stapi/OneDrive/Desktop/GD32VW553/GD32VW55X_Wifi_BLE_SDK/GD32VW55x_RELEASE_V1.0.2/MSDK/plf/GD32VW55x_standard_peripheral/Source\gd32vw55x_timer.c ****         break;
1164:C:/Users/stapi/OneDrive/Desktop/GD32VW553/GD32VW55X_Wifi_BLE_SDK/GD32VW55x_RELEASE_V1.0.2/MSDK/plf/GD32VW55x_standard_peripheral/Source\gd32vw55x_timer.c ****     /* configure TIMER_CH_2 */
1165:C:/Users/stapi/OneDrive/Desktop/GD32VW553/GD32VW55X_Wifi_BLE_SDK/GD32VW55x_RELEASE_V1.0.2/MSDK/plf/GD32VW55x_standard_peripheral/Source\gd32vw55x_timer.c ****     case TIMER_CH_2:
1166:C:/Users/stapi/OneDrive/Desktop/GD32VW553/GD32VW55X_Wifi_BLE_SDK/GD32VW55x_RELEASE_V1.0.2/MSDK/plf/GD32VW55x_standard_peripheral/Source\gd32vw55x_timer.c ****         TIMER_CHCTL2(timer_periph) &= (~(uint32_t)TIMER_CHCTL2_CH2NEN);
1167:C:/Users/stapi/OneDrive/Desktop/GD32VW553/GD32VW55X_Wifi_BLE_SDK/GD32VW55x_RELEASE_V1.0.2/MSDK/plf/GD32VW55x_standard_peripheral/Source\gd32vw55x_timer.c ****         TIMER_CHCTL2(timer_periph) |= (uint32_t)((uint32_t)ocnstate << 8U);
 2022              		.loc 1 1167 36
 2023 0016 5D8E     		or	a2,a2,a5
 2024 0018 10D1     		sw	a2,32(a0)
1168:C:/Users/stapi/OneDrive/Desktop/GD32VW553/GD32VW55X_Wifi_BLE_SDK/GD32VW55x_RELEASE_V1.0.2/MSDK/plf/GD32VW55x_standard_peripheral/Source\gd32vw55x_timer.c ****         break;
 2025              		.loc 1 1168 9 is_stmt 1
 2026              	.L153:
1169:C:/Users/stapi/OneDrive/Desktop/GD32VW553/GD32VW55X_Wifi_BLE_SDK/GD32VW55x_RELEASE_V1.0.2/MSDK/plf/GD32VW55x_standard_peripheral/Source\gd32vw55x_timer.c ****     default:
1170:C:/Users/stapi/OneDrive/Desktop/GD32VW553/GD32VW55X_Wifi_BLE_SDK/GD32VW55x_RELEASE_V1.0.2/MSDK/plf/GD32VW55x_standard_peripheral/Source\gd32vw55x_timer.c ****         break;
1171:C:/Users/stapi/OneDrive/Desktop/GD32VW553/GD32VW55X_Wifi_BLE_SDK/GD32VW55x_RELEASE_V1.0.2/MSDK/plf/GD32VW55x_standard_peripheral/Source\gd32vw55x_timer.c ****     }
1172:C:/Users/stapi/OneDrive/Desktop/GD32VW553/GD32VW55X_Wifi_BLE_SDK/GD32VW55x_RELEASE_V1.0.2/MSDK/plf/GD32VW55x_standard_peripheral/Source\gd32vw55x_timer.c **** }
 2027              		.loc 1 1172 1 is_stmt 0
 2028 001a 8280     		ret
 2029              	.LVL120:
 2030              	.L154:
1161:C:/Users/stapi/OneDrive/Desktop/GD32VW553/GD32VW55X_Wifi_BLE_SDK/GD32VW55x_RELEASE_V1.0.2/MSDK/plf/GD32VW55x_standard_peripheral/Source\gd32vw55x_timer.c ****         TIMER_CHCTL2(timer_periph) |= (uint32_t)((uint32_t)ocnstate << 4U);
 2031              		.loc 1 1161 9 is_stmt 1
1161:C:/Users/stapi/OneDrive/Desktop/GD32VW553/GD32VW55X_Wifi_BLE_SDK/GD32VW55x_RELEASE_V1.0.2/MSDK/plf/GD32VW55x_standard_peripheral/Source\gd32vw55x_timer.c ****         TIMER_CHCTL2(timer_periph) |= (uint32_t)((uint32_t)ocnstate << 4U);
 2032              		.loc 1 1161 36 is_stmt 0
 2033 001c 1C51     		lw	a5,32(a0)
1162:C:/Users/stapi/OneDrive/Desktop/GD32VW553/GD32VW55X_Wifi_BLE_SDK/GD32VW55x_RELEASE_V1.0.2/MSDK/plf/GD32VW55x_standard_peripheral/Source\gd32vw55x_timer.c ****         break;
 2034              		.loc 1 1162 39
 2035 001e 1206     		slli	a2,a2,4
 2036              	.LVL121:
1161:C:/Users/stapi/OneDrive/Desktop/GD32VW553/GD32VW55X_Wifi_BLE_SDK/GD32VW55x_RELEASE_V1.0.2/MSDK/plf/GD32VW55x_standard_peripheral/Source\gd32vw55x_timer.c ****         TIMER_CHCTL2(timer_periph) |= (uint32_t)((uint32_t)ocnstate << 4U);
 2037              		.loc 1 1161 36
 2038 0020 93F7F7FB 		andi	a5,a5,-65
 2039 0024 1CD1     		sw	a5,32(a0)
1162:C:/Users/stapi/OneDrive/Desktop/GD32VW553/GD32VW55X_Wifi_BLE_SDK/GD32VW55x_RELEASE_V1.0.2/MSDK/plf/GD32VW55x_standard_peripheral/Source\gd32vw55x_timer.c ****         break;
 2040              		.loc 1 1162 9 is_stmt 1
1162:C:/Users/stapi/OneDrive/Desktop/GD32VW553/GD32VW55X_Wifi_BLE_SDK/GD32VW55x_RELEASE_V1.0.2/MSDK/plf/GD32VW55x_standard_peripheral/Source\gd32vw55x_timer.c ****         break;
 2041              		.loc 1 1162 36 is_stmt 0
 2042 0026 1C51     		lw	a5,32(a0)
 2043 0028 FDB7     		j	.L157
 2044              	.LVL122:
 2045              	.L155:
1166:C:/Users/stapi/OneDrive/Desktop/GD32VW553/GD32VW55X_Wifi_BLE_SDK/GD32VW55x_RELEASE_V1.0.2/MSDK/plf/GD32VW55x_standard_peripheral/Source\gd32vw55x_timer.c ****         TIMER_CHCTL2(timer_periph) |= (uint32_t)((uint32_t)ocnstate << 8U);
 2046              		.loc 1 1166 9 is_stmt 1
1166:C:/Users/stapi/OneDrive/Desktop/GD32VW553/GD32VW55X_Wifi_BLE_SDK/GD32VW55x_RELEASE_V1.0.2/MSDK/plf/GD32VW55x_standard_peripheral/Source\gd32vw55x_timer.c ****         TIMER_CHCTL2(timer_periph) |= (uint32_t)((uint32_t)ocnstate << 8U);
 2047              		.loc 1 1166 36 is_stmt 0
 2048 002a 1C51     		lw	a5,32(a0)
1167:C:/Users/stapi/OneDrive/Desktop/GD32VW553/GD32VW55X_Wifi_BLE_SDK/GD32VW55x_RELEASE_V1.0.2/MSDK/plf/GD32VW55x_standard_peripheral/Source\gd32vw55x_timer.c ****         break;
 2049              		.loc 1 1167 39
 2050 002c 2206     		slli	a2,a2,8
 2051              	.LVL123:
1166:C:/Users/stapi/OneDrive/Desktop/GD32VW553/GD32VW55X_Wifi_BLE_SDK/GD32VW55x_RELEASE_V1.0.2/MSDK/plf/GD32VW55x_standard_peripheral/Source\gd32vw55x_timer.c ****         TIMER_CHCTL2(timer_periph) |= (uint32_t)((uint32_t)ocnstate << 8U);
 2052              		.loc 1 1166 36
 2053 002e 93F7F7BF 		andi	a5,a5,-1025
 2054 0032 1CD1     		sw	a5,32(a0)
1167:C:/Users/stapi/OneDrive/Desktop/GD32VW553/GD32VW55X_Wifi_BLE_SDK/GD32VW55x_RELEASE_V1.0.2/MSDK/plf/GD32VW55x_standard_peripheral/Source\gd32vw55x_timer.c ****         break;
 2055              		.loc 1 1167 9 is_stmt 1
1167:C:/Users/stapi/OneDrive/Desktop/GD32VW553/GD32VW55X_Wifi_BLE_SDK/GD32VW55x_RELEASE_V1.0.2/MSDK/plf/GD32VW55x_standard_peripheral/Source\gd32vw55x_timer.c ****         break;
 2056              		.loc 1 1167 36 is_stmt 0
 2057 0034 1C51     		lw	a5,32(a0)
 2058 0036 C5B7     		j	.L157
 2059              		.cfi_endproc
 2060              	.LFE409:
 2062              		.section	.text.timer_channel_input_struct_para_init,"ax",@progbits
 2063              		.align	1
 2064              		.globl	timer_channel_input_struct_para_init
 2066              	timer_channel_input_struct_para_init:
 2067              	.LFB410:
1173:C:/Users/stapi/OneDrive/Desktop/GD32VW553/GD32VW55X_Wifi_BLE_SDK/GD32VW55x_RELEASE_V1.0.2/MSDK/plf/GD32VW55x_standard_peripheral/Source\gd32vw55x_timer.c **** 
1174:C:/Users/stapi/OneDrive/Desktop/GD32VW553/GD32VW55X_Wifi_BLE_SDK/GD32VW55x_RELEASE_V1.0.2/MSDK/plf/GD32VW55x_standard_peripheral/Source\gd32vw55x_timer.c **** /*!
1175:C:/Users/stapi/OneDrive/Desktop/GD32VW553/GD32VW55X_Wifi_BLE_SDK/GD32VW55x_RELEASE_V1.0.2/MSDK/plf/GD32VW55x_standard_peripheral/Source\gd32vw55x_timer.c ****     \brief      initialize TIMER channel input parameter struct with a default value
1176:C:/Users/stapi/OneDrive/Desktop/GD32VW553/GD32VW55X_Wifi_BLE_SDK/GD32VW55x_RELEASE_V1.0.2/MSDK/plf/GD32VW55x_standard_peripheral/Source\gd32vw55x_timer.c ****     \param[in]  icpara: TIMER channel intput parameter struct
1177:C:/Users/stapi/OneDrive/Desktop/GD32VW553/GD32VW55X_Wifi_BLE_SDK/GD32VW55x_RELEASE_V1.0.2/MSDK/plf/GD32VW55x_standard_peripheral/Source\gd32vw55x_timer.c ****     \param[out] none
1178:C:/Users/stapi/OneDrive/Desktop/GD32VW553/GD32VW55X_Wifi_BLE_SDK/GD32VW55x_RELEASE_V1.0.2/MSDK/plf/GD32VW55x_standard_peripheral/Source\gd32vw55x_timer.c ****     \retval     none
1179:C:/Users/stapi/OneDrive/Desktop/GD32VW553/GD32VW55X_Wifi_BLE_SDK/GD32VW55x_RELEASE_V1.0.2/MSDK/plf/GD32VW55x_standard_peripheral/Source\gd32vw55x_timer.c **** */
1180:C:/Users/stapi/OneDrive/Desktop/GD32VW553/GD32VW55X_Wifi_BLE_SDK/GD32VW55x_RELEASE_V1.0.2/MSDK/plf/GD32VW55x_standard_peripheral/Source\gd32vw55x_timer.c **** void timer_channel_input_struct_para_init(timer_ic_parameter_struct* icpara)
1181:C:/Users/stapi/OneDrive/Desktop/GD32VW553/GD32VW55X_Wifi_BLE_SDK/GD32VW55x_RELEASE_V1.0.2/MSDK/plf/GD32VW55x_standard_peripheral/Source\gd32vw55x_timer.c **** {
 2068              		.loc 1 1181 1 is_stmt 1
 2069              		.cfi_startproc
 2070              	.LVL124:
1182:C:/Users/stapi/OneDrive/Desktop/GD32VW553/GD32VW55X_Wifi_BLE_SDK/GD32VW55x_RELEASE_V1.0.2/MSDK/plf/GD32VW55x_standard_peripheral/Source\gd32vw55x_timer.c ****     /* initialize the channel input parameter struct member with the default value */
1183:C:/Users/stapi/OneDrive/Desktop/GD32VW553/GD32VW55X_Wifi_BLE_SDK/GD32VW55x_RELEASE_V1.0.2/MSDK/plf/GD32VW55x_standard_peripheral/Source\gd32vw55x_timer.c ****     icpara->icpolarity  = TIMER_IC_POLARITY_RISING;
 2071              		.loc 1 1183 5
1184:C:/Users/stapi/OneDrive/Desktop/GD32VW553/GD32VW55X_Wifi_BLE_SDK/GD32VW55x_RELEASE_V1.0.2/MSDK/plf/GD32VW55x_standard_peripheral/Source\gd32vw55x_timer.c ****     icpara->icselection = TIMER_IC_SELECTION_DIRECTTI;
 2072              		.loc 1 1184 25 is_stmt 0
 2073 0000 8547     		li	a5,1
1183:C:/Users/stapi/OneDrive/Desktop/GD32VW553/GD32VW55X_Wifi_BLE_SDK/GD32VW55x_RELEASE_V1.0.2/MSDK/plf/GD32VW55x_standard_peripheral/Source\gd32vw55x_timer.c ****     icpara->icselection = TIMER_IC_SELECTION_DIRECTTI;
 2074              		.loc 1 1183 25
 2075 0002 23100500 		sh	zero,0(a0)
 2076              		.loc 1 1184 5 is_stmt 1
 2077              		.loc 1 1184 25 is_stmt 0
 2078 0006 2311F500 		sh	a5,2(a0)
1185:C:/Users/stapi/OneDrive/Desktop/GD32VW553/GD32VW55X_Wifi_BLE_SDK/GD32VW55x_RELEASE_V1.0.2/MSDK/plf/GD32VW55x_standard_peripheral/Source\gd32vw55x_timer.c ****     icpara->icprescaler = TIMER_IC_PSC_DIV1;
 2079              		.loc 1 1185 5 is_stmt 1
 2080              		.loc 1 1185 25 is_stmt 0
 2081 000a 23120500 		sh	zero,4(a0)
1186:C:/Users/stapi/OneDrive/Desktop/GD32VW553/GD32VW55X_Wifi_BLE_SDK/GD32VW55x_RELEASE_V1.0.2/MSDK/plf/GD32VW55x_standard_peripheral/Source\gd32vw55x_timer.c ****     icpara->icfilter    = 0U;
 2082              		.loc 1 1186 5 is_stmt 1
 2083              		.loc 1 1186 25 is_stmt 0
 2084 000e 23130500 		sh	zero,6(a0)
1187:C:/Users/stapi/OneDrive/Desktop/GD32VW553/GD32VW55X_Wifi_BLE_SDK/GD32VW55x_RELEASE_V1.0.2/MSDK/plf/GD32VW55x_standard_peripheral/Source\gd32vw55x_timer.c **** }
 2085              		.loc 1 1187 1
 2086 0012 8280     		ret
 2087              		.cfi_endproc
 2088              	.LFE410:
 2090              		.section	.text.timer_channel_input_capture_prescaler_config,"ax",@progbits
 2091              		.align	1
 2092              		.globl	timer_channel_input_capture_prescaler_config
 2094              	timer_channel_input_capture_prescaler_config:
 2095              	.LFB412:
1188:C:/Users/stapi/OneDrive/Desktop/GD32VW553/GD32VW55X_Wifi_BLE_SDK/GD32VW55x_RELEASE_V1.0.2/MSDK/plf/GD32VW55x_standard_peripheral/Source\gd32vw55x_timer.c **** 
1189:C:/Users/stapi/OneDrive/Desktop/GD32VW553/GD32VW55X_Wifi_BLE_SDK/GD32VW55x_RELEASE_V1.0.2/MSDK/plf/GD32VW55x_standard_peripheral/Source\gd32vw55x_timer.c **** /*!
1190:C:/Users/stapi/OneDrive/Desktop/GD32VW553/GD32VW55X_Wifi_BLE_SDK/GD32VW55x_RELEASE_V1.0.2/MSDK/plf/GD32VW55x_standard_peripheral/Source\gd32vw55x_timer.c ****     \brief      configure TIMER input capture parameter
1191:C:/Users/stapi/OneDrive/Desktop/GD32VW553/GD32VW55X_Wifi_BLE_SDK/GD32VW55x_RELEASE_V1.0.2/MSDK/plf/GD32VW55x_standard_peripheral/Source\gd32vw55x_timer.c ****     \param[in]  timer_periph: please refer to the following parameters
1192:C:/Users/stapi/OneDrive/Desktop/GD32VW553/GD32VW55X_Wifi_BLE_SDK/GD32VW55x_RELEASE_V1.0.2/MSDK/plf/GD32VW55x_standard_peripheral/Source\gd32vw55x_timer.c ****     \param[in]  channel:
1193:C:/Users/stapi/OneDrive/Desktop/GD32VW553/GD32VW55X_Wifi_BLE_SDK/GD32VW55x_RELEASE_V1.0.2/MSDK/plf/GD32VW55x_standard_peripheral/Source\gd32vw55x_timer.c ****                 only one parameter can be selected which is shown as below:
1194:C:/Users/stapi/OneDrive/Desktop/GD32VW553/GD32VW55X_Wifi_BLE_SDK/GD32VW55x_RELEASE_V1.0.2/MSDK/plf/GD32VW55x_standard_peripheral/Source\gd32vw55x_timer.c ****       \arg        TIMER_CH_0: TIMER channel0(TIMERx(x=0,1,2,15,16))
1195:C:/Users/stapi/OneDrive/Desktop/GD32VW553/GD32VW55X_Wifi_BLE_SDK/GD32VW55x_RELEASE_V1.0.2/MSDK/plf/GD32VW55x_standard_peripheral/Source\gd32vw55x_timer.c ****       \arg        TIMER_CH_1: TIMER channel1(TIMERx(x=0,1,2))
1196:C:/Users/stapi/OneDrive/Desktop/GD32VW553/GD32VW55X_Wifi_BLE_SDK/GD32VW55x_RELEASE_V1.0.2/MSDK/plf/GD32VW55x_standard_peripheral/Source\gd32vw55x_timer.c ****       \arg        TIMER_CH_2: TIMER channel2(TIMERx(x=0,1,2))
1197:C:/Users/stapi/OneDrive/Desktop/GD32VW553/GD32VW55X_Wifi_BLE_SDK/GD32VW55x_RELEASE_V1.0.2/MSDK/plf/GD32VW55x_standard_peripheral/Source\gd32vw55x_timer.c ****       \arg        TIMER_CH_3: TIMER channel3(TIMERx(x=0,1,2))
1198:C:/Users/stapi/OneDrive/Desktop/GD32VW553/GD32VW55X_Wifi_BLE_SDK/GD32VW55x_RELEASE_V1.0.2/MSDK/plf/GD32VW55x_standard_peripheral/Source\gd32vw55x_timer.c ****     \param[in]  icpara: TIMER channel intput parameter struct
1199:C:/Users/stapi/OneDrive/Desktop/GD32VW553/GD32VW55X_Wifi_BLE_SDK/GD32VW55x_RELEASE_V1.0.2/MSDK/plf/GD32VW55x_standard_peripheral/Source\gd32vw55x_timer.c ****                 icpolarity: TIMER_IC_POLARITY_RISING,TIMER_IC_POLARITY_FALLING,TIMER_IC_POLARITY_BO
1200:C:/Users/stapi/OneDrive/Desktop/GD32VW553/GD32VW55X_Wifi_BLE_SDK/GD32VW55x_RELEASE_V1.0.2/MSDK/plf/GD32VW55x_standard_peripheral/Source\gd32vw55x_timer.c ****                 icselection: TIMER_IC_SELECTION_DIRECTTI,TIMER_IC_SELECTION_INDIRECTTI,TIMER_IC_SEL
1201:C:/Users/stapi/OneDrive/Desktop/GD32VW553/GD32VW55X_Wifi_BLE_SDK/GD32VW55x_RELEASE_V1.0.2/MSDK/plf/GD32VW55x_standard_peripheral/Source\gd32vw55x_timer.c ****                 icprescaler: TIMER_IC_PSC_DIV1,TIMER_IC_PSC_DIV2,TIMER_IC_PSC_DIV4,TIMER_IC_PSC_DIV
1202:C:/Users/stapi/OneDrive/Desktop/GD32VW553/GD32VW55X_Wifi_BLE_SDK/GD32VW55x_RELEASE_V1.0.2/MSDK/plf/GD32VW55x_standard_peripheral/Source\gd32vw55x_timer.c ****                 icfilter: 0~15
1203:C:/Users/stapi/OneDrive/Desktop/GD32VW553/GD32VW55X_Wifi_BLE_SDK/GD32VW55x_RELEASE_V1.0.2/MSDK/plf/GD32VW55x_standard_peripheral/Source\gd32vw55x_timer.c ****     \param[out] none
1204:C:/Users/stapi/OneDrive/Desktop/GD32VW553/GD32VW55X_Wifi_BLE_SDK/GD32VW55x_RELEASE_V1.0.2/MSDK/plf/GD32VW55x_standard_peripheral/Source\gd32vw55x_timer.c ****     \retval     none
1205:C:/Users/stapi/OneDrive/Desktop/GD32VW553/GD32VW55X_Wifi_BLE_SDK/GD32VW55x_RELEASE_V1.0.2/MSDK/plf/GD32VW55x_standard_peripheral/Source\gd32vw55x_timer.c **** */
1206:C:/Users/stapi/OneDrive/Desktop/GD32VW553/GD32VW55X_Wifi_BLE_SDK/GD32VW55x_RELEASE_V1.0.2/MSDK/plf/GD32VW55x_standard_peripheral/Source\gd32vw55x_timer.c **** void timer_input_capture_config(uint32_t timer_periph, uint16_t channel, timer_ic_parameter_struct*
1207:C:/Users/stapi/OneDrive/Desktop/GD32VW553/GD32VW55X_Wifi_BLE_SDK/GD32VW55x_RELEASE_V1.0.2/MSDK/plf/GD32VW55x_standard_peripheral/Source\gd32vw55x_timer.c **** {
1208:C:/Users/stapi/OneDrive/Desktop/GD32VW553/GD32VW55X_Wifi_BLE_SDK/GD32VW55x_RELEASE_V1.0.2/MSDK/plf/GD32VW55x_standard_peripheral/Source\gd32vw55x_timer.c ****     switch(channel){
1209:C:/Users/stapi/OneDrive/Desktop/GD32VW553/GD32VW55X_Wifi_BLE_SDK/GD32VW55x_RELEASE_V1.0.2/MSDK/plf/GD32VW55x_standard_peripheral/Source\gd32vw55x_timer.c ****     /* configure TIMER_CH_0 */
1210:C:/Users/stapi/OneDrive/Desktop/GD32VW553/GD32VW55X_Wifi_BLE_SDK/GD32VW55x_RELEASE_V1.0.2/MSDK/plf/GD32VW55x_standard_peripheral/Source\gd32vw55x_timer.c ****     case TIMER_CH_0:
1211:C:/Users/stapi/OneDrive/Desktop/GD32VW553/GD32VW55X_Wifi_BLE_SDK/GD32VW55x_RELEASE_V1.0.2/MSDK/plf/GD32VW55x_standard_peripheral/Source\gd32vw55x_timer.c ****         /* reset the CH0EN bit */
1212:C:/Users/stapi/OneDrive/Desktop/GD32VW553/GD32VW55X_Wifi_BLE_SDK/GD32VW55x_RELEASE_V1.0.2/MSDK/plf/GD32VW55x_standard_peripheral/Source\gd32vw55x_timer.c ****         TIMER_CHCTL2(timer_periph) &= (~(uint32_t)TIMER_CHCTL2_CH0EN);
1213:C:/Users/stapi/OneDrive/Desktop/GD32VW553/GD32VW55X_Wifi_BLE_SDK/GD32VW55x_RELEASE_V1.0.2/MSDK/plf/GD32VW55x_standard_peripheral/Source\gd32vw55x_timer.c **** 
1214:C:/Users/stapi/OneDrive/Desktop/GD32VW553/GD32VW55X_Wifi_BLE_SDK/GD32VW55x_RELEASE_V1.0.2/MSDK/plf/GD32VW55x_standard_peripheral/Source\gd32vw55x_timer.c ****         /* reset the CH0P and CH0NP bits */
1215:C:/Users/stapi/OneDrive/Desktop/GD32VW553/GD32VW55X_Wifi_BLE_SDK/GD32VW55x_RELEASE_V1.0.2/MSDK/plf/GD32VW55x_standard_peripheral/Source\gd32vw55x_timer.c ****         TIMER_CHCTL2(timer_periph) &= (~(uint32_t)(TIMER_CHCTL2_CH0P | TIMER_CHCTL2_CH0NP));
1216:C:/Users/stapi/OneDrive/Desktop/GD32VW553/GD32VW55X_Wifi_BLE_SDK/GD32VW55x_RELEASE_V1.0.2/MSDK/plf/GD32VW55x_standard_peripheral/Source\gd32vw55x_timer.c ****         TIMER_CHCTL2(timer_periph) |= (uint32_t)(icpara->icpolarity);
1217:C:/Users/stapi/OneDrive/Desktop/GD32VW553/GD32VW55X_Wifi_BLE_SDK/GD32VW55x_RELEASE_V1.0.2/MSDK/plf/GD32VW55x_standard_peripheral/Source\gd32vw55x_timer.c ****         /* reset the CH0MS bit */
1218:C:/Users/stapi/OneDrive/Desktop/GD32VW553/GD32VW55X_Wifi_BLE_SDK/GD32VW55x_RELEASE_V1.0.2/MSDK/plf/GD32VW55x_standard_peripheral/Source\gd32vw55x_timer.c ****         TIMER_CHCTL0(timer_periph) &= (~(uint32_t)TIMER_CHCTL0_CH0MS);
1219:C:/Users/stapi/OneDrive/Desktop/GD32VW553/GD32VW55X_Wifi_BLE_SDK/GD32VW55x_RELEASE_V1.0.2/MSDK/plf/GD32VW55x_standard_peripheral/Source\gd32vw55x_timer.c ****         TIMER_CHCTL0(timer_periph) |= (uint32_t)(icpara->icselection);
1220:C:/Users/stapi/OneDrive/Desktop/GD32VW553/GD32VW55X_Wifi_BLE_SDK/GD32VW55x_RELEASE_V1.0.2/MSDK/plf/GD32VW55x_standard_peripheral/Source\gd32vw55x_timer.c ****         /* reset the CH0CAPFLT bit */
1221:C:/Users/stapi/OneDrive/Desktop/GD32VW553/GD32VW55X_Wifi_BLE_SDK/GD32VW55x_RELEASE_V1.0.2/MSDK/plf/GD32VW55x_standard_peripheral/Source\gd32vw55x_timer.c ****         TIMER_CHCTL0(timer_periph) &= (~(uint32_t)TIMER_CHCTL0_CH0CAPFLT);
1222:C:/Users/stapi/OneDrive/Desktop/GD32VW553/GD32VW55X_Wifi_BLE_SDK/GD32VW55x_RELEASE_V1.0.2/MSDK/plf/GD32VW55x_standard_peripheral/Source\gd32vw55x_timer.c ****         TIMER_CHCTL0(timer_periph) |= (uint32_t)((uint32_t)(icpara->icfilter) << 4U);
1223:C:/Users/stapi/OneDrive/Desktop/GD32VW553/GD32VW55X_Wifi_BLE_SDK/GD32VW55x_RELEASE_V1.0.2/MSDK/plf/GD32VW55x_standard_peripheral/Source\gd32vw55x_timer.c **** 
1224:C:/Users/stapi/OneDrive/Desktop/GD32VW553/GD32VW55X_Wifi_BLE_SDK/GD32VW55x_RELEASE_V1.0.2/MSDK/plf/GD32VW55x_standard_peripheral/Source\gd32vw55x_timer.c ****         /* set the CH0EN bit */
1225:C:/Users/stapi/OneDrive/Desktop/GD32VW553/GD32VW55X_Wifi_BLE_SDK/GD32VW55x_RELEASE_V1.0.2/MSDK/plf/GD32VW55x_standard_peripheral/Source\gd32vw55x_timer.c ****         TIMER_CHCTL2(timer_periph) |= (uint32_t)TIMER_CHCTL2_CH0EN;
1226:C:/Users/stapi/OneDrive/Desktop/GD32VW553/GD32VW55X_Wifi_BLE_SDK/GD32VW55x_RELEASE_V1.0.2/MSDK/plf/GD32VW55x_standard_peripheral/Source\gd32vw55x_timer.c ****         break;
1227:C:/Users/stapi/OneDrive/Desktop/GD32VW553/GD32VW55X_Wifi_BLE_SDK/GD32VW55x_RELEASE_V1.0.2/MSDK/plf/GD32VW55x_standard_peripheral/Source\gd32vw55x_timer.c **** 
1228:C:/Users/stapi/OneDrive/Desktop/GD32VW553/GD32VW55X_Wifi_BLE_SDK/GD32VW55x_RELEASE_V1.0.2/MSDK/plf/GD32VW55x_standard_peripheral/Source\gd32vw55x_timer.c ****     /* configure TIMER_CH_1 */
1229:C:/Users/stapi/OneDrive/Desktop/GD32VW553/GD32VW55X_Wifi_BLE_SDK/GD32VW55x_RELEASE_V1.0.2/MSDK/plf/GD32VW55x_standard_peripheral/Source\gd32vw55x_timer.c ****     case TIMER_CH_1:
1230:C:/Users/stapi/OneDrive/Desktop/GD32VW553/GD32VW55X_Wifi_BLE_SDK/GD32VW55x_RELEASE_V1.0.2/MSDK/plf/GD32VW55x_standard_peripheral/Source\gd32vw55x_timer.c ****         /* reset the CH1EN bit */
1231:C:/Users/stapi/OneDrive/Desktop/GD32VW553/GD32VW55X_Wifi_BLE_SDK/GD32VW55x_RELEASE_V1.0.2/MSDK/plf/GD32VW55x_standard_peripheral/Source\gd32vw55x_timer.c ****         TIMER_CHCTL2(timer_periph) &= (~(uint32_t)TIMER_CHCTL2_CH1EN);
1232:C:/Users/stapi/OneDrive/Desktop/GD32VW553/GD32VW55X_Wifi_BLE_SDK/GD32VW55x_RELEASE_V1.0.2/MSDK/plf/GD32VW55x_standard_peripheral/Source\gd32vw55x_timer.c **** 
1233:C:/Users/stapi/OneDrive/Desktop/GD32VW553/GD32VW55X_Wifi_BLE_SDK/GD32VW55x_RELEASE_V1.0.2/MSDK/plf/GD32VW55x_standard_peripheral/Source\gd32vw55x_timer.c ****         /* reset the CH1P and CH1NP bits */
1234:C:/Users/stapi/OneDrive/Desktop/GD32VW553/GD32VW55X_Wifi_BLE_SDK/GD32VW55x_RELEASE_V1.0.2/MSDK/plf/GD32VW55x_standard_peripheral/Source\gd32vw55x_timer.c ****         TIMER_CHCTL2(timer_periph) &= (~(uint32_t)(TIMER_CHCTL2_CH1P | TIMER_CHCTL2_CH1NP));
1235:C:/Users/stapi/OneDrive/Desktop/GD32VW553/GD32VW55X_Wifi_BLE_SDK/GD32VW55x_RELEASE_V1.0.2/MSDK/plf/GD32VW55x_standard_peripheral/Source\gd32vw55x_timer.c ****         TIMER_CHCTL2(timer_periph) |= (uint32_t)((uint32_t)(icpara->icpolarity) << 4U);
1236:C:/Users/stapi/OneDrive/Desktop/GD32VW553/GD32VW55X_Wifi_BLE_SDK/GD32VW55x_RELEASE_V1.0.2/MSDK/plf/GD32VW55x_standard_peripheral/Source\gd32vw55x_timer.c ****         /* reset the CH1MS bit */
1237:C:/Users/stapi/OneDrive/Desktop/GD32VW553/GD32VW55X_Wifi_BLE_SDK/GD32VW55x_RELEASE_V1.0.2/MSDK/plf/GD32VW55x_standard_peripheral/Source\gd32vw55x_timer.c ****         TIMER_CHCTL0(timer_periph) &= (~(uint32_t)TIMER_CHCTL0_CH1MS);
1238:C:/Users/stapi/OneDrive/Desktop/GD32VW553/GD32VW55X_Wifi_BLE_SDK/GD32VW55x_RELEASE_V1.0.2/MSDK/plf/GD32VW55x_standard_peripheral/Source\gd32vw55x_timer.c ****         TIMER_CHCTL0(timer_periph) |= (uint32_t)((uint32_t)(icpara->icselection) << 8U);
1239:C:/Users/stapi/OneDrive/Desktop/GD32VW553/GD32VW55X_Wifi_BLE_SDK/GD32VW55x_RELEASE_V1.0.2/MSDK/plf/GD32VW55x_standard_peripheral/Source\gd32vw55x_timer.c ****         /* reset the CH1CAPFLT bit */
1240:C:/Users/stapi/OneDrive/Desktop/GD32VW553/GD32VW55X_Wifi_BLE_SDK/GD32VW55x_RELEASE_V1.0.2/MSDK/plf/GD32VW55x_standard_peripheral/Source\gd32vw55x_timer.c ****         TIMER_CHCTL0(timer_periph) &= (~(uint32_t)TIMER_CHCTL0_CH1CAPFLT);
1241:C:/Users/stapi/OneDrive/Desktop/GD32VW553/GD32VW55X_Wifi_BLE_SDK/GD32VW55x_RELEASE_V1.0.2/MSDK/plf/GD32VW55x_standard_peripheral/Source\gd32vw55x_timer.c ****         TIMER_CHCTL0(timer_periph) |= (uint32_t)((uint32_t)(icpara->icfilter) << 12U);
1242:C:/Users/stapi/OneDrive/Desktop/GD32VW553/GD32VW55X_Wifi_BLE_SDK/GD32VW55x_RELEASE_V1.0.2/MSDK/plf/GD32VW55x_standard_peripheral/Source\gd32vw55x_timer.c **** 
1243:C:/Users/stapi/OneDrive/Desktop/GD32VW553/GD32VW55X_Wifi_BLE_SDK/GD32VW55x_RELEASE_V1.0.2/MSDK/plf/GD32VW55x_standard_peripheral/Source\gd32vw55x_timer.c ****         /* set the CH1EN bit */
1244:C:/Users/stapi/OneDrive/Desktop/GD32VW553/GD32VW55X_Wifi_BLE_SDK/GD32VW55x_RELEASE_V1.0.2/MSDK/plf/GD32VW55x_standard_peripheral/Source\gd32vw55x_timer.c ****         TIMER_CHCTL2(timer_periph) |= (uint32_t)TIMER_CHCTL2_CH1EN;
1245:C:/Users/stapi/OneDrive/Desktop/GD32VW553/GD32VW55X_Wifi_BLE_SDK/GD32VW55x_RELEASE_V1.0.2/MSDK/plf/GD32VW55x_standard_peripheral/Source\gd32vw55x_timer.c ****         break;
1246:C:/Users/stapi/OneDrive/Desktop/GD32VW553/GD32VW55X_Wifi_BLE_SDK/GD32VW55x_RELEASE_V1.0.2/MSDK/plf/GD32VW55x_standard_peripheral/Source\gd32vw55x_timer.c ****     /* configure TIMER_CH_2 */
1247:C:/Users/stapi/OneDrive/Desktop/GD32VW553/GD32VW55X_Wifi_BLE_SDK/GD32VW55x_RELEASE_V1.0.2/MSDK/plf/GD32VW55x_standard_peripheral/Source\gd32vw55x_timer.c ****     case TIMER_CH_2:
1248:C:/Users/stapi/OneDrive/Desktop/GD32VW553/GD32VW55X_Wifi_BLE_SDK/GD32VW55x_RELEASE_V1.0.2/MSDK/plf/GD32VW55x_standard_peripheral/Source\gd32vw55x_timer.c ****         /* reset the CH2EN bit */
1249:C:/Users/stapi/OneDrive/Desktop/GD32VW553/GD32VW55X_Wifi_BLE_SDK/GD32VW55x_RELEASE_V1.0.2/MSDK/plf/GD32VW55x_standard_peripheral/Source\gd32vw55x_timer.c ****         TIMER_CHCTL2(timer_periph) &= (~(uint32_t)TIMER_CHCTL2_CH2EN);
1250:C:/Users/stapi/OneDrive/Desktop/GD32VW553/GD32VW55X_Wifi_BLE_SDK/GD32VW55x_RELEASE_V1.0.2/MSDK/plf/GD32VW55x_standard_peripheral/Source\gd32vw55x_timer.c **** 
1251:C:/Users/stapi/OneDrive/Desktop/GD32VW553/GD32VW55X_Wifi_BLE_SDK/GD32VW55x_RELEASE_V1.0.2/MSDK/plf/GD32VW55x_standard_peripheral/Source\gd32vw55x_timer.c ****         /* reset the CH2P and CH2NP bits */
1252:C:/Users/stapi/OneDrive/Desktop/GD32VW553/GD32VW55X_Wifi_BLE_SDK/GD32VW55x_RELEASE_V1.0.2/MSDK/plf/GD32VW55x_standard_peripheral/Source\gd32vw55x_timer.c ****         TIMER_CHCTL2(timer_periph) &= (~(uint32_t)(TIMER_CHCTL2_CH2P | TIMER_CHCTL2_CH2NP));
1253:C:/Users/stapi/OneDrive/Desktop/GD32VW553/GD32VW55X_Wifi_BLE_SDK/GD32VW55x_RELEASE_V1.0.2/MSDK/plf/GD32VW55x_standard_peripheral/Source\gd32vw55x_timer.c ****         TIMER_CHCTL2(timer_periph) |= (uint32_t)((uint32_t)(icpara->icpolarity) << 8U);
1254:C:/Users/stapi/OneDrive/Desktop/GD32VW553/GD32VW55X_Wifi_BLE_SDK/GD32VW55x_RELEASE_V1.0.2/MSDK/plf/GD32VW55x_standard_peripheral/Source\gd32vw55x_timer.c **** 
1255:C:/Users/stapi/OneDrive/Desktop/GD32VW553/GD32VW55X_Wifi_BLE_SDK/GD32VW55x_RELEASE_V1.0.2/MSDK/plf/GD32VW55x_standard_peripheral/Source\gd32vw55x_timer.c ****         /* reset the CH2MS bit */
1256:C:/Users/stapi/OneDrive/Desktop/GD32VW553/GD32VW55X_Wifi_BLE_SDK/GD32VW55x_RELEASE_V1.0.2/MSDK/plf/GD32VW55x_standard_peripheral/Source\gd32vw55x_timer.c ****         TIMER_CHCTL1(timer_periph) &= (~(uint32_t)TIMER_CHCTL1_CH2MS);
1257:C:/Users/stapi/OneDrive/Desktop/GD32VW553/GD32VW55X_Wifi_BLE_SDK/GD32VW55x_RELEASE_V1.0.2/MSDK/plf/GD32VW55x_standard_peripheral/Source\gd32vw55x_timer.c ****         TIMER_CHCTL1(timer_periph) |= (uint32_t)((uint32_t)(icpara->icselection));
1258:C:/Users/stapi/OneDrive/Desktop/GD32VW553/GD32VW55X_Wifi_BLE_SDK/GD32VW55x_RELEASE_V1.0.2/MSDK/plf/GD32VW55x_standard_peripheral/Source\gd32vw55x_timer.c **** 
1259:C:/Users/stapi/OneDrive/Desktop/GD32VW553/GD32VW55X_Wifi_BLE_SDK/GD32VW55x_RELEASE_V1.0.2/MSDK/plf/GD32VW55x_standard_peripheral/Source\gd32vw55x_timer.c ****         /* reset the CH2CAPFLT bit */
1260:C:/Users/stapi/OneDrive/Desktop/GD32VW553/GD32VW55X_Wifi_BLE_SDK/GD32VW55x_RELEASE_V1.0.2/MSDK/plf/GD32VW55x_standard_peripheral/Source\gd32vw55x_timer.c ****         TIMER_CHCTL1(timer_periph) &= (~(uint32_t)TIMER_CHCTL1_CH2CAPFLT);
1261:C:/Users/stapi/OneDrive/Desktop/GD32VW553/GD32VW55X_Wifi_BLE_SDK/GD32VW55x_RELEASE_V1.0.2/MSDK/plf/GD32VW55x_standard_peripheral/Source\gd32vw55x_timer.c ****         TIMER_CHCTL1(timer_periph) |= (uint32_t)((uint32_t)(icpara->icfilter) << 4U);
1262:C:/Users/stapi/OneDrive/Desktop/GD32VW553/GD32VW55X_Wifi_BLE_SDK/GD32VW55x_RELEASE_V1.0.2/MSDK/plf/GD32VW55x_standard_peripheral/Source\gd32vw55x_timer.c **** 
1263:C:/Users/stapi/OneDrive/Desktop/GD32VW553/GD32VW55X_Wifi_BLE_SDK/GD32VW55x_RELEASE_V1.0.2/MSDK/plf/GD32VW55x_standard_peripheral/Source\gd32vw55x_timer.c ****         /* set the CH2EN bit */
1264:C:/Users/stapi/OneDrive/Desktop/GD32VW553/GD32VW55X_Wifi_BLE_SDK/GD32VW55x_RELEASE_V1.0.2/MSDK/plf/GD32VW55x_standard_peripheral/Source\gd32vw55x_timer.c ****         TIMER_CHCTL2(timer_periph) |= (uint32_t)TIMER_CHCTL2_CH2EN;
1265:C:/Users/stapi/OneDrive/Desktop/GD32VW553/GD32VW55X_Wifi_BLE_SDK/GD32VW55x_RELEASE_V1.0.2/MSDK/plf/GD32VW55x_standard_peripheral/Source\gd32vw55x_timer.c ****         break;
1266:C:/Users/stapi/OneDrive/Desktop/GD32VW553/GD32VW55X_Wifi_BLE_SDK/GD32VW55x_RELEASE_V1.0.2/MSDK/plf/GD32VW55x_standard_peripheral/Source\gd32vw55x_timer.c ****     /* configure TIMER_CH_3 */
1267:C:/Users/stapi/OneDrive/Desktop/GD32VW553/GD32VW55X_Wifi_BLE_SDK/GD32VW55x_RELEASE_V1.0.2/MSDK/plf/GD32VW55x_standard_peripheral/Source\gd32vw55x_timer.c ****     case TIMER_CH_3:
1268:C:/Users/stapi/OneDrive/Desktop/GD32VW553/GD32VW55X_Wifi_BLE_SDK/GD32VW55x_RELEASE_V1.0.2/MSDK/plf/GD32VW55x_standard_peripheral/Source\gd32vw55x_timer.c ****         /* reset the CH3EN bit */
1269:C:/Users/stapi/OneDrive/Desktop/GD32VW553/GD32VW55X_Wifi_BLE_SDK/GD32VW55x_RELEASE_V1.0.2/MSDK/plf/GD32VW55x_standard_peripheral/Source\gd32vw55x_timer.c ****         TIMER_CHCTL2(timer_periph) &= (~(uint32_t)TIMER_CHCTL2_CH3EN);
1270:C:/Users/stapi/OneDrive/Desktop/GD32VW553/GD32VW55X_Wifi_BLE_SDK/GD32VW55x_RELEASE_V1.0.2/MSDK/plf/GD32VW55x_standard_peripheral/Source\gd32vw55x_timer.c **** 
1271:C:/Users/stapi/OneDrive/Desktop/GD32VW553/GD32VW55X_Wifi_BLE_SDK/GD32VW55x_RELEASE_V1.0.2/MSDK/plf/GD32VW55x_standard_peripheral/Source\gd32vw55x_timer.c ****         /* reset the CH3P and CH3NP bits */
1272:C:/Users/stapi/OneDrive/Desktop/GD32VW553/GD32VW55X_Wifi_BLE_SDK/GD32VW55x_RELEASE_V1.0.2/MSDK/plf/GD32VW55x_standard_peripheral/Source\gd32vw55x_timer.c ****         TIMER_CHCTL2(timer_periph) &= (~(uint32_t)(TIMER_CHCTL2_CH3P|TIMER_CHCTL2_CH3NP));
1273:C:/Users/stapi/OneDrive/Desktop/GD32VW553/GD32VW55X_Wifi_BLE_SDK/GD32VW55x_RELEASE_V1.0.2/MSDK/plf/GD32VW55x_standard_peripheral/Source\gd32vw55x_timer.c ****         TIMER_CHCTL2(timer_periph) |= (uint32_t)((uint32_t)(icpara->icpolarity) << 12U);
1274:C:/Users/stapi/OneDrive/Desktop/GD32VW553/GD32VW55X_Wifi_BLE_SDK/GD32VW55x_RELEASE_V1.0.2/MSDK/plf/GD32VW55x_standard_peripheral/Source\gd32vw55x_timer.c **** 
1275:C:/Users/stapi/OneDrive/Desktop/GD32VW553/GD32VW55X_Wifi_BLE_SDK/GD32VW55x_RELEASE_V1.0.2/MSDK/plf/GD32VW55x_standard_peripheral/Source\gd32vw55x_timer.c ****         /* reset the CH3MS bit */
1276:C:/Users/stapi/OneDrive/Desktop/GD32VW553/GD32VW55X_Wifi_BLE_SDK/GD32VW55x_RELEASE_V1.0.2/MSDK/plf/GD32VW55x_standard_peripheral/Source\gd32vw55x_timer.c ****         TIMER_CHCTL1(timer_periph) &= (~(uint32_t)TIMER_CHCTL1_CH3MS);
1277:C:/Users/stapi/OneDrive/Desktop/GD32VW553/GD32VW55X_Wifi_BLE_SDK/GD32VW55x_RELEASE_V1.0.2/MSDK/plf/GD32VW55x_standard_peripheral/Source\gd32vw55x_timer.c ****         TIMER_CHCTL1(timer_periph) |= (uint32_t)((uint32_t)(icpara->icselection) << 8U);
1278:C:/Users/stapi/OneDrive/Desktop/GD32VW553/GD32VW55X_Wifi_BLE_SDK/GD32VW55x_RELEASE_V1.0.2/MSDK/plf/GD32VW55x_standard_peripheral/Source\gd32vw55x_timer.c **** 
1279:C:/Users/stapi/OneDrive/Desktop/GD32VW553/GD32VW55X_Wifi_BLE_SDK/GD32VW55x_RELEASE_V1.0.2/MSDK/plf/GD32VW55x_standard_peripheral/Source\gd32vw55x_timer.c ****         /* reset the CH3CAPFLT bit */
1280:C:/Users/stapi/OneDrive/Desktop/GD32VW553/GD32VW55X_Wifi_BLE_SDK/GD32VW55x_RELEASE_V1.0.2/MSDK/plf/GD32VW55x_standard_peripheral/Source\gd32vw55x_timer.c ****         TIMER_CHCTL1(timer_periph) &= (~(uint32_t)TIMER_CHCTL1_CH3CAPFLT);
1281:C:/Users/stapi/OneDrive/Desktop/GD32VW553/GD32VW55X_Wifi_BLE_SDK/GD32VW55x_RELEASE_V1.0.2/MSDK/plf/GD32VW55x_standard_peripheral/Source\gd32vw55x_timer.c ****         TIMER_CHCTL1(timer_periph) |= (uint32_t)((uint32_t)(icpara->icfilter) << 12U);
1282:C:/Users/stapi/OneDrive/Desktop/GD32VW553/GD32VW55X_Wifi_BLE_SDK/GD32VW55x_RELEASE_V1.0.2/MSDK/plf/GD32VW55x_standard_peripheral/Source\gd32vw55x_timer.c **** 
1283:C:/Users/stapi/OneDrive/Desktop/GD32VW553/GD32VW55X_Wifi_BLE_SDK/GD32VW55x_RELEASE_V1.0.2/MSDK/plf/GD32VW55x_standard_peripheral/Source\gd32vw55x_timer.c ****         /* set the CH3EN bit */
1284:C:/Users/stapi/OneDrive/Desktop/GD32VW553/GD32VW55X_Wifi_BLE_SDK/GD32VW55x_RELEASE_V1.0.2/MSDK/plf/GD32VW55x_standard_peripheral/Source\gd32vw55x_timer.c ****         TIMER_CHCTL2(timer_periph) |= (uint32_t)TIMER_CHCTL2_CH3EN;
1285:C:/Users/stapi/OneDrive/Desktop/GD32VW553/GD32VW55X_Wifi_BLE_SDK/GD32VW55x_RELEASE_V1.0.2/MSDK/plf/GD32VW55x_standard_peripheral/Source\gd32vw55x_timer.c ****         break;
1286:C:/Users/stapi/OneDrive/Desktop/GD32VW553/GD32VW55X_Wifi_BLE_SDK/GD32VW55x_RELEASE_V1.0.2/MSDK/plf/GD32VW55x_standard_peripheral/Source\gd32vw55x_timer.c ****     default:
1287:C:/Users/stapi/OneDrive/Desktop/GD32VW553/GD32VW55X_Wifi_BLE_SDK/GD32VW55x_RELEASE_V1.0.2/MSDK/plf/GD32VW55x_standard_peripheral/Source\gd32vw55x_timer.c ****         break;
1288:C:/Users/stapi/OneDrive/Desktop/GD32VW553/GD32VW55X_Wifi_BLE_SDK/GD32VW55x_RELEASE_V1.0.2/MSDK/plf/GD32VW55x_standard_peripheral/Source\gd32vw55x_timer.c ****     }
1289:C:/Users/stapi/OneDrive/Desktop/GD32VW553/GD32VW55X_Wifi_BLE_SDK/GD32VW55x_RELEASE_V1.0.2/MSDK/plf/GD32VW55x_standard_peripheral/Source\gd32vw55x_timer.c ****     /* configure TIMER channel input capture prescaler value */
1290:C:/Users/stapi/OneDrive/Desktop/GD32VW553/GD32VW55X_Wifi_BLE_SDK/GD32VW55x_RELEASE_V1.0.2/MSDK/plf/GD32VW55x_standard_peripheral/Source\gd32vw55x_timer.c ****     timer_channel_input_capture_prescaler_config(timer_periph, channel, (uint16_t)(icpara->icpresca
1291:C:/Users/stapi/OneDrive/Desktop/GD32VW553/GD32VW55X_Wifi_BLE_SDK/GD32VW55x_RELEASE_V1.0.2/MSDK/plf/GD32VW55x_standard_peripheral/Source\gd32vw55x_timer.c **** }
1292:C:/Users/stapi/OneDrive/Desktop/GD32VW553/GD32VW55X_Wifi_BLE_SDK/GD32VW55x_RELEASE_V1.0.2/MSDK/plf/GD32VW55x_standard_peripheral/Source\gd32vw55x_timer.c **** 
1293:C:/Users/stapi/OneDrive/Desktop/GD32VW553/GD32VW55X_Wifi_BLE_SDK/GD32VW55x_RELEASE_V1.0.2/MSDK/plf/GD32VW55x_standard_peripheral/Source\gd32vw55x_timer.c **** /*!
1294:C:/Users/stapi/OneDrive/Desktop/GD32VW553/GD32VW55X_Wifi_BLE_SDK/GD32VW55x_RELEASE_V1.0.2/MSDK/plf/GD32VW55x_standard_peripheral/Source\gd32vw55x_timer.c ****     \brief      configure TIMER channel input capture prescaler value
1295:C:/Users/stapi/OneDrive/Desktop/GD32VW553/GD32VW55X_Wifi_BLE_SDK/GD32VW55x_RELEASE_V1.0.2/MSDK/plf/GD32VW55x_standard_peripheral/Source\gd32vw55x_timer.c ****     \param[in]  timer_periph: please refer to the following parameters
1296:C:/Users/stapi/OneDrive/Desktop/GD32VW553/GD32VW55X_Wifi_BLE_SDK/GD32VW55x_RELEASE_V1.0.2/MSDK/plf/GD32VW55x_standard_peripheral/Source\gd32vw55x_timer.c ****     \param[in]  channel:
1297:C:/Users/stapi/OneDrive/Desktop/GD32VW553/GD32VW55X_Wifi_BLE_SDK/GD32VW55x_RELEASE_V1.0.2/MSDK/plf/GD32VW55x_standard_peripheral/Source\gd32vw55x_timer.c ****                 only one parameter can be selected which is shown as below:
1298:C:/Users/stapi/OneDrive/Desktop/GD32VW553/GD32VW55X_Wifi_BLE_SDK/GD32VW55x_RELEASE_V1.0.2/MSDK/plf/GD32VW55x_standard_peripheral/Source\gd32vw55x_timer.c ****       \arg        TIMER_CH_0: TIMER channel0(TIMERx(x=0,1,2,15,16))
1299:C:/Users/stapi/OneDrive/Desktop/GD32VW553/GD32VW55X_Wifi_BLE_SDK/GD32VW55x_RELEASE_V1.0.2/MSDK/plf/GD32VW55x_standard_peripheral/Source\gd32vw55x_timer.c ****       \arg        TIMER_CH_1: TIMER channel1(TIMERx(x=0,1,2))
1300:C:/Users/stapi/OneDrive/Desktop/GD32VW553/GD32VW55X_Wifi_BLE_SDK/GD32VW55x_RELEASE_V1.0.2/MSDK/plf/GD32VW55x_standard_peripheral/Source\gd32vw55x_timer.c ****       \arg        TIMER_CH_2: TIMER channel2(TIMERx(x=0,1,2))
1301:C:/Users/stapi/OneDrive/Desktop/GD32VW553/GD32VW55X_Wifi_BLE_SDK/GD32VW55x_RELEASE_V1.0.2/MSDK/plf/GD32VW55x_standard_peripheral/Source\gd32vw55x_timer.c ****       \arg        TIMER_CH_3: TIMER channel3(TIMERx(x=0,1,2))
1302:C:/Users/stapi/OneDrive/Desktop/GD32VW553/GD32VW55X_Wifi_BLE_SDK/GD32VW55x_RELEASE_V1.0.2/MSDK/plf/GD32VW55x_standard_peripheral/Source\gd32vw55x_timer.c ****     \param[in]  prescaler: channel input capture prescaler value
1303:C:/Users/stapi/OneDrive/Desktop/GD32VW553/GD32VW55X_Wifi_BLE_SDK/GD32VW55x_RELEASE_V1.0.2/MSDK/plf/GD32VW55x_standard_peripheral/Source\gd32vw55x_timer.c ****                 only one parameter can be selected which is shown as below:
1304:C:/Users/stapi/OneDrive/Desktop/GD32VW553/GD32VW55X_Wifi_BLE_SDK/GD32VW55x_RELEASE_V1.0.2/MSDK/plf/GD32VW55x_standard_peripheral/Source\gd32vw55x_timer.c ****       \arg        TIMER_IC_PSC_DIV1: no prescaler
1305:C:/Users/stapi/OneDrive/Desktop/GD32VW553/GD32VW55X_Wifi_BLE_SDK/GD32VW55x_RELEASE_V1.0.2/MSDK/plf/GD32VW55x_standard_peripheral/Source\gd32vw55x_timer.c ****       \arg        TIMER_IC_PSC_DIV2: divided by 2
1306:C:/Users/stapi/OneDrive/Desktop/GD32VW553/GD32VW55X_Wifi_BLE_SDK/GD32VW55x_RELEASE_V1.0.2/MSDK/plf/GD32VW55x_standard_peripheral/Source\gd32vw55x_timer.c ****       \arg        TIMER_IC_PSC_DIV4: divided by 4
1307:C:/Users/stapi/OneDrive/Desktop/GD32VW553/GD32VW55X_Wifi_BLE_SDK/GD32VW55x_RELEASE_V1.0.2/MSDK/plf/GD32VW55x_standard_peripheral/Source\gd32vw55x_timer.c ****       \arg        TIMER_IC_PSC_DIV8: divided by 8
1308:C:/Users/stapi/OneDrive/Desktop/GD32VW553/GD32VW55X_Wifi_BLE_SDK/GD32VW55x_RELEASE_V1.0.2/MSDK/plf/GD32VW55x_standard_peripheral/Source\gd32vw55x_timer.c ****     \param[out] none
1309:C:/Users/stapi/OneDrive/Desktop/GD32VW553/GD32VW55X_Wifi_BLE_SDK/GD32VW55x_RELEASE_V1.0.2/MSDK/plf/GD32VW55x_standard_peripheral/Source\gd32vw55x_timer.c ****     \retval     none
1310:C:/Users/stapi/OneDrive/Desktop/GD32VW553/GD32VW55X_Wifi_BLE_SDK/GD32VW55x_RELEASE_V1.0.2/MSDK/plf/GD32VW55x_standard_peripheral/Source\gd32vw55x_timer.c **** */
1311:C:/Users/stapi/OneDrive/Desktop/GD32VW553/GD32VW55X_Wifi_BLE_SDK/GD32VW55x_RELEASE_V1.0.2/MSDK/plf/GD32VW55x_standard_peripheral/Source\gd32vw55x_timer.c **** void timer_channel_input_capture_prescaler_config(uint32_t timer_periph, uint16_t channel, uint16_t
1312:C:/Users/stapi/OneDrive/Desktop/GD32VW553/GD32VW55X_Wifi_BLE_SDK/GD32VW55x_RELEASE_V1.0.2/MSDK/plf/GD32VW55x_standard_peripheral/Source\gd32vw55x_timer.c **** {
 2096              		.loc 1 1312 1 is_stmt 1
 2097              		.cfi_startproc
 2098              	.LVL125:
1313:C:/Users/stapi/OneDrive/Desktop/GD32VW553/GD32VW55X_Wifi_BLE_SDK/GD32VW55x_RELEASE_V1.0.2/MSDK/plf/GD32VW55x_standard_peripheral/Source\gd32vw55x_timer.c ****     switch(channel){
 2099              		.loc 1 1313 5
 2100 0000 8947     		li	a5,2
 2101 0002 6389F502 		beq	a1,a5,.L160
 2102 0006 63EAB700 		bgtu	a1,a5,.L161
 2103 000a 81ED     		bne	a1,zero,.L166
1314:C:/Users/stapi/OneDrive/Desktop/GD32VW553/GD32VW55X_Wifi_BLE_SDK/GD32VW55x_RELEASE_V1.0.2/MSDK/plf/GD32VW55x_standard_peripheral/Source\gd32vw55x_timer.c ****     /* configure TIMER_CH_0 */
1315:C:/Users/stapi/OneDrive/Desktop/GD32VW553/GD32VW55X_Wifi_BLE_SDK/GD32VW55x_RELEASE_V1.0.2/MSDK/plf/GD32VW55x_standard_peripheral/Source\gd32vw55x_timer.c ****     case TIMER_CH_0:
1316:C:/Users/stapi/OneDrive/Desktop/GD32VW553/GD32VW55X_Wifi_BLE_SDK/GD32VW55x_RELEASE_V1.0.2/MSDK/plf/GD32VW55x_standard_peripheral/Source\gd32vw55x_timer.c ****         TIMER_CHCTL0(timer_periph) &= (~(uint32_t)TIMER_CHCTL0_CH0CAPPSC);
 2104              		.loc 1 1316 9
 2105              		.loc 1 1316 36 is_stmt 0
 2106 000c 1C4D     		lw	a5,24(a0)
 2107 000e CD9B     		andi	a5,a5,-13
 2108 0010 1CCD     		sw	a5,24(a0)
1317:C:/Users/stapi/OneDrive/Desktop/GD32VW553/GD32VW55X_Wifi_BLE_SDK/GD32VW55x_RELEASE_V1.0.2/MSDK/plf/GD32VW55x_standard_peripheral/Source\gd32vw55x_timer.c ****         TIMER_CHCTL0(timer_periph) |= (uint32_t)prescaler;
 2109              		.loc 1 1317 9 is_stmt 1
 2110              		.loc 1 1317 36 is_stmt 0
 2111 0012 1C4D     		lw	a5,24(a0)
 2112              	.LVL126:
 2113              	.L167:
1318:C:/Users/stapi/OneDrive/Desktop/GD32VW553/GD32VW55X_Wifi_BLE_SDK/GD32VW55x_RELEASE_V1.0.2/MSDK/plf/GD32VW55x_standard_peripheral/Source\gd32vw55x_timer.c ****         break;
1319:C:/Users/stapi/OneDrive/Desktop/GD32VW553/GD32VW55X_Wifi_BLE_SDK/GD32VW55x_RELEASE_V1.0.2/MSDK/plf/GD32VW55x_standard_peripheral/Source\gd32vw55x_timer.c ****     /* configure TIMER_CH_1 */
1320:C:/Users/stapi/OneDrive/Desktop/GD32VW553/GD32VW55X_Wifi_BLE_SDK/GD32VW55x_RELEASE_V1.0.2/MSDK/plf/GD32VW55x_standard_peripheral/Source\gd32vw55x_timer.c ****     case TIMER_CH_1:
1321:C:/Users/stapi/OneDrive/Desktop/GD32VW553/GD32VW55X_Wifi_BLE_SDK/GD32VW55x_RELEASE_V1.0.2/MSDK/plf/GD32VW55x_standard_peripheral/Source\gd32vw55x_timer.c ****         TIMER_CHCTL0(timer_periph) &= (~(uint32_t)TIMER_CHCTL0_CH1CAPPSC);
1322:C:/Users/stapi/OneDrive/Desktop/GD32VW553/GD32VW55X_Wifi_BLE_SDK/GD32VW55x_RELEASE_V1.0.2/MSDK/plf/GD32VW55x_standard_peripheral/Source\gd32vw55x_timer.c ****         TIMER_CHCTL0(timer_periph) |= ((uint32_t)prescaler << 8U);
 2114              		.loc 1 1322 36
 2115 0014 5D8E     		or	a2,a2,a5
 2116 0016 10CD     		sw	a2,24(a0)
1323:C:/Users/stapi/OneDrive/Desktop/GD32VW553/GD32VW55X_Wifi_BLE_SDK/GD32VW55x_RELEASE_V1.0.2/MSDK/plf/GD32VW55x_standard_peripheral/Source\gd32vw55x_timer.c ****         break;
 2117              		.loc 1 1323 9 is_stmt 1
 2118 0018 8280     		ret
 2119              	.LVL127:
 2120              	.L161:
1313:C:/Users/stapi/OneDrive/Desktop/GD32VW553/GD32VW55X_Wifi_BLE_SDK/GD32VW55x_RELEASE_V1.0.2/MSDK/plf/GD32VW55x_standard_peripheral/Source\gd32vw55x_timer.c ****     /* configure TIMER_CH_0 */
 2121              		.loc 1 1313 5 is_stmt 0
 2122 001a 8D47     		li	a5,3
 2123 001c 6383F502 		beq	a1,a5,.L164
 2124 0020 8280     		ret
 2125              	.L166:
1321:C:/Users/stapi/OneDrive/Desktop/GD32VW553/GD32VW55X_Wifi_BLE_SDK/GD32VW55x_RELEASE_V1.0.2/MSDK/plf/GD32VW55x_standard_peripheral/Source\gd32vw55x_timer.c ****         TIMER_CHCTL0(timer_periph) |= ((uint32_t)prescaler << 8U);
 2126              		.loc 1 1321 9 is_stmt 1
1321:C:/Users/stapi/OneDrive/Desktop/GD32VW553/GD32VW55X_Wifi_BLE_SDK/GD32VW55x_RELEASE_V1.0.2/MSDK/plf/GD32VW55x_standard_peripheral/Source\gd32vw55x_timer.c ****         TIMER_CHCTL0(timer_periph) |= ((uint32_t)prescaler << 8U);
 2127              		.loc 1 1321 36 is_stmt 0
 2128 0022 1C4D     		lw	a5,24(a0)
 2129 0024 7D77     		li	a4,-4096
 2130 0026 1307F73F 		addi	a4,a4,1023
 2131 002a F98F     		and	a5,a5,a4
 2132 002c 1CCD     		sw	a5,24(a0)
1322:C:/Users/stapi/OneDrive/Desktop/GD32VW553/GD32VW55X_Wifi_BLE_SDK/GD32VW55x_RELEASE_V1.0.2/MSDK/plf/GD32VW55x_standard_peripheral/Source\gd32vw55x_timer.c ****         break;
 2133              		.loc 1 1322 9 is_stmt 1
1322:C:/Users/stapi/OneDrive/Desktop/GD32VW553/GD32VW55X_Wifi_BLE_SDK/GD32VW55x_RELEASE_V1.0.2/MSDK/plf/GD32VW55x_standard_peripheral/Source\gd32vw55x_timer.c ****         break;
 2134              		.loc 1 1322 36 is_stmt 0
 2135 002e 1C4D     		lw	a5,24(a0)
1322:C:/Users/stapi/OneDrive/Desktop/GD32VW553/GD32VW55X_Wifi_BLE_SDK/GD32VW55x_RELEASE_V1.0.2/MSDK/plf/GD32VW55x_standard_peripheral/Source\gd32vw55x_timer.c ****         break;
 2136              		.loc 1 1322 60
 2137 0030 2206     		slli	a2,a2,8
 2138              	.LVL128:
 2139 0032 CDB7     		j	.L167
 2140              	.LVL129:
 2141              	.L160:
1324:C:/Users/stapi/OneDrive/Desktop/GD32VW553/GD32VW55X_Wifi_BLE_SDK/GD32VW55x_RELEASE_V1.0.2/MSDK/plf/GD32VW55x_standard_peripheral/Source\gd32vw55x_timer.c ****     /* configure TIMER_CH_2 */
1325:C:/Users/stapi/OneDrive/Desktop/GD32VW553/GD32VW55X_Wifi_BLE_SDK/GD32VW55x_RELEASE_V1.0.2/MSDK/plf/GD32VW55x_standard_peripheral/Source\gd32vw55x_timer.c ****     case TIMER_CH_2:
1326:C:/Users/stapi/OneDrive/Desktop/GD32VW553/GD32VW55X_Wifi_BLE_SDK/GD32VW55x_RELEASE_V1.0.2/MSDK/plf/GD32VW55x_standard_peripheral/Source\gd32vw55x_timer.c ****         TIMER_CHCTL1(timer_periph) &= (~(uint32_t)TIMER_CHCTL1_CH2CAPPSC);
 2142              		.loc 1 1326 9 is_stmt 1
 2143              		.loc 1 1326 36 is_stmt 0
 2144 0034 5C4D     		lw	a5,28(a0)
 2145 0036 CD9B     		andi	a5,a5,-13
 2146 0038 5CCD     		sw	a5,28(a0)
1327:C:/Users/stapi/OneDrive/Desktop/GD32VW553/GD32VW55X_Wifi_BLE_SDK/GD32VW55x_RELEASE_V1.0.2/MSDK/plf/GD32VW55x_standard_peripheral/Source\gd32vw55x_timer.c ****         TIMER_CHCTL1(timer_periph) |= (uint32_t)prescaler;
 2147              		.loc 1 1327 9 is_stmt 1
 2148              		.loc 1 1327 36 is_stmt 0
 2149 003a 5C4D     		lw	a5,28(a0)
 2150              	.LVL130:
 2151              	.L168:
1328:C:/Users/stapi/OneDrive/Desktop/GD32VW553/GD32VW55X_Wifi_BLE_SDK/GD32VW55x_RELEASE_V1.0.2/MSDK/plf/GD32VW55x_standard_peripheral/Source\gd32vw55x_timer.c ****         break;
1329:C:/Users/stapi/OneDrive/Desktop/GD32VW553/GD32VW55X_Wifi_BLE_SDK/GD32VW55x_RELEASE_V1.0.2/MSDK/plf/GD32VW55x_standard_peripheral/Source\gd32vw55x_timer.c ****     /* configure TIMER_CH_3 */
1330:C:/Users/stapi/OneDrive/Desktop/GD32VW553/GD32VW55X_Wifi_BLE_SDK/GD32VW55x_RELEASE_V1.0.2/MSDK/plf/GD32VW55x_standard_peripheral/Source\gd32vw55x_timer.c ****     case TIMER_CH_3:
1331:C:/Users/stapi/OneDrive/Desktop/GD32VW553/GD32VW55X_Wifi_BLE_SDK/GD32VW55x_RELEASE_V1.0.2/MSDK/plf/GD32VW55x_standard_peripheral/Source\gd32vw55x_timer.c ****         TIMER_CHCTL1(timer_periph) &= (~(uint32_t)TIMER_CHCTL1_CH3CAPPSC);
1332:C:/Users/stapi/OneDrive/Desktop/GD32VW553/GD32VW55X_Wifi_BLE_SDK/GD32VW55x_RELEASE_V1.0.2/MSDK/plf/GD32VW55x_standard_peripheral/Source\gd32vw55x_timer.c ****         TIMER_CHCTL1(timer_periph) |= ((uint32_t)prescaler << 8U);
 2152              		.loc 1 1332 36
 2153 003c 5D8E     		or	a2,a2,a5
 2154 003e 50CD     		sw	a2,28(a0)
1333:C:/Users/stapi/OneDrive/Desktop/GD32VW553/GD32VW55X_Wifi_BLE_SDK/GD32VW55x_RELEASE_V1.0.2/MSDK/plf/GD32VW55x_standard_peripheral/Source\gd32vw55x_timer.c ****         break;
 2155              		.loc 1 1333 9 is_stmt 1
1334:C:/Users/stapi/OneDrive/Desktop/GD32VW553/GD32VW55X_Wifi_BLE_SDK/GD32VW55x_RELEASE_V1.0.2/MSDK/plf/GD32VW55x_standard_peripheral/Source\gd32vw55x_timer.c ****     default:
1335:C:/Users/stapi/OneDrive/Desktop/GD32VW553/GD32VW55X_Wifi_BLE_SDK/GD32VW55x_RELEASE_V1.0.2/MSDK/plf/GD32VW55x_standard_peripheral/Source\gd32vw55x_timer.c ****         break;
1336:C:/Users/stapi/OneDrive/Desktop/GD32VW553/GD32VW55X_Wifi_BLE_SDK/GD32VW55x_RELEASE_V1.0.2/MSDK/plf/GD32VW55x_standard_peripheral/Source\gd32vw55x_timer.c ****     }
1337:C:/Users/stapi/OneDrive/Desktop/GD32VW553/GD32VW55X_Wifi_BLE_SDK/GD32VW55x_RELEASE_V1.0.2/MSDK/plf/GD32VW55x_standard_peripheral/Source\gd32vw55x_timer.c **** }
 2156              		.loc 1 1337 1 is_stmt 0
 2157 0040 8280     		ret
 2158              	.LVL131:
 2159              	.L164:
1331:C:/Users/stapi/OneDrive/Desktop/GD32VW553/GD32VW55X_Wifi_BLE_SDK/GD32VW55x_RELEASE_V1.0.2/MSDK/plf/GD32VW55x_standard_peripheral/Source\gd32vw55x_timer.c ****         TIMER_CHCTL1(timer_periph) |= ((uint32_t)prescaler << 8U);
 2160              		.loc 1 1331 9 is_stmt 1
1331:C:/Users/stapi/OneDrive/Desktop/GD32VW553/GD32VW55X_Wifi_BLE_SDK/GD32VW55x_RELEASE_V1.0.2/MSDK/plf/GD32VW55x_standard_peripheral/Source\gd32vw55x_timer.c ****         TIMER_CHCTL1(timer_periph) |= ((uint32_t)prescaler << 8U);
 2161              		.loc 1 1331 36 is_stmt 0
 2162 0042 5C4D     		lw	a5,28(a0)
 2163 0044 7D77     		li	a4,-4096
 2164 0046 1307F73F 		addi	a4,a4,1023
 2165 004a F98F     		and	a5,a5,a4
 2166 004c 5CCD     		sw	a5,28(a0)
1332:C:/Users/stapi/OneDrive/Desktop/GD32VW553/GD32VW55X_Wifi_BLE_SDK/GD32VW55x_RELEASE_V1.0.2/MSDK/plf/GD32VW55x_standard_peripheral/Source\gd32vw55x_timer.c ****         break;
 2167              		.loc 1 1332 9 is_stmt 1
1332:C:/Users/stapi/OneDrive/Desktop/GD32VW553/GD32VW55X_Wifi_BLE_SDK/GD32VW55x_RELEASE_V1.0.2/MSDK/plf/GD32VW55x_standard_peripheral/Source\gd32vw55x_timer.c ****         break;
 2168              		.loc 1 1332 36 is_stmt 0
 2169 004e 5C4D     		lw	a5,28(a0)
1332:C:/Users/stapi/OneDrive/Desktop/GD32VW553/GD32VW55X_Wifi_BLE_SDK/GD32VW55x_RELEASE_V1.0.2/MSDK/plf/GD32VW55x_standard_peripheral/Source\gd32vw55x_timer.c ****         break;
 2170              		.loc 1 1332 60
 2171 0050 2206     		slli	a2,a2,8
 2172              	.LVL132:
 2173 0052 EDB7     		j	.L168
 2174              		.cfi_endproc
 2175              	.LFE412:
 2177              		.section	.text.timer_input_capture_config,"ax",@progbits
 2178              		.align	1
 2179              		.globl	timer_input_capture_config
 2181              	timer_input_capture_config:
 2182              	.LFB411:
1207:C:/Users/stapi/OneDrive/Desktop/GD32VW553/GD32VW55X_Wifi_BLE_SDK/GD32VW55x_RELEASE_V1.0.2/MSDK/plf/GD32VW55x_standard_peripheral/Source\gd32vw55x_timer.c ****     switch(channel){
 2183              		.loc 1 1207 1 is_stmt 1
 2184              		.cfi_startproc
 2185              	.LVL133:
1208:C:/Users/stapi/OneDrive/Desktop/GD32VW553/GD32VW55X_Wifi_BLE_SDK/GD32VW55x_RELEASE_V1.0.2/MSDK/plf/GD32VW55x_standard_peripheral/Source\gd32vw55x_timer.c ****     /* configure TIMER_CH_0 */
 2186              		.loc 1 1208 5
 2187 0000 8947     		li	a5,2
 2188 0002 638FF50A 		beq	a1,a5,.L170
 2189 0006 63EDB704 		bgtu	a1,a5,.L171
 2190 000a 83560600 		lhu	a3,0(a2)
 2191 000e 03572600 		lhu	a4,2(a2)
 2192 0012 83576600 		lhu	a5,6(a2)
 2193 0016 B1ED     		bne	a1,zero,.L176
1212:C:/Users/stapi/OneDrive/Desktop/GD32VW553/GD32VW55X_Wifi_BLE_SDK/GD32VW55x_RELEASE_V1.0.2/MSDK/plf/GD32VW55x_standard_peripheral/Source\gd32vw55x_timer.c **** 
 2194              		.loc 1 1212 9
1212:C:/Users/stapi/OneDrive/Desktop/GD32VW553/GD32VW55X_Wifi_BLE_SDK/GD32VW55x_RELEASE_V1.0.2/MSDK/plf/GD32VW55x_standard_peripheral/Source\gd32vw55x_timer.c **** 
 2195              		.loc 1 1212 36 is_stmt 0
 2196 0018 03280502 		lw	a6,32(a0)
1222:C:/Users/stapi/OneDrive/Desktop/GD32VW553/GD32VW55X_Wifi_BLE_SDK/GD32VW55x_RELEASE_V1.0.2/MSDK/plf/GD32VW55x_standard_peripheral/Source\gd32vw55x_timer.c **** 
 2197              		.loc 1 1222 39
 2198 001c 9207     		slli	a5,a5,4
1212:C:/Users/stapi/OneDrive/Desktop/GD32VW553/GD32VW55X_Wifi_BLE_SDK/GD32VW55x_RELEASE_V1.0.2/MSDK/plf/GD32VW55x_standard_peripheral/Source\gd32vw55x_timer.c **** 
 2199              		.loc 1 1212 36
 2200 001e 1378E8FF 		andi	a6,a6,-2
 2201 0022 23200503 		sw	a6,32(a0)
1215:C:/Users/stapi/OneDrive/Desktop/GD32VW553/GD32VW55X_Wifi_BLE_SDK/GD32VW55x_RELEASE_V1.0.2/MSDK/plf/GD32VW55x_standard_peripheral/Source\gd32vw55x_timer.c ****         TIMER_CHCTL2(timer_periph) |= (uint32_t)(icpara->icpolarity);
 2202              		.loc 1 1215 9 is_stmt 1
1215:C:/Users/stapi/OneDrive/Desktop/GD32VW553/GD32VW55X_Wifi_BLE_SDK/GD32VW55x_RELEASE_V1.0.2/MSDK/plf/GD32VW55x_standard_peripheral/Source\gd32vw55x_timer.c ****         TIMER_CHCTL2(timer_periph) |= (uint32_t)(icpara->icpolarity);
 2203              		.loc 1 1215 36 is_stmt 0
 2204 0026 03280502 		lw	a6,32(a0)
 2205 002a 137858FF 		andi	a6,a6,-11
 2206 002e 23200503 		sw	a6,32(a0)
1216:C:/Users/stapi/OneDrive/Desktop/GD32VW553/GD32VW55X_Wifi_BLE_SDK/GD32VW55x_RELEASE_V1.0.2/MSDK/plf/GD32VW55x_standard_peripheral/Source\gd32vw55x_timer.c ****         /* reset the CH0MS bit */
 2207              		.loc 1 1216 9 is_stmt 1
1216:C:/Users/stapi/OneDrive/Desktop/GD32VW553/GD32VW55X_Wifi_BLE_SDK/GD32VW55x_RELEASE_V1.0.2/MSDK/plf/GD32VW55x_standard_peripheral/Source\gd32vw55x_timer.c ****         /* reset the CH0MS bit */
 2208              		.loc 1 1216 36 is_stmt 0
 2209 0032 03280502 		lw	a6,32(a0)
 2210 0036 B3E60601 		or	a3,a3,a6
 2211 003a 14D1     		sw	a3,32(a0)
1218:C:/Users/stapi/OneDrive/Desktop/GD32VW553/GD32VW55X_Wifi_BLE_SDK/GD32VW55x_RELEASE_V1.0.2/MSDK/plf/GD32VW55x_standard_peripheral/Source\gd32vw55x_timer.c ****         TIMER_CHCTL0(timer_periph) |= (uint32_t)(icpara->icselection);
 2212              		.loc 1 1218 9 is_stmt 1
1218:C:/Users/stapi/OneDrive/Desktop/GD32VW553/GD32VW55X_Wifi_BLE_SDK/GD32VW55x_RELEASE_V1.0.2/MSDK/plf/GD32VW55x_standard_peripheral/Source\gd32vw55x_timer.c ****         TIMER_CHCTL0(timer_periph) |= (uint32_t)(icpara->icselection);
 2213              		.loc 1 1218 36 is_stmt 0
 2214 003c 144D     		lw	a3,24(a0)
 2215 003e F19A     		andi	a3,a3,-4
 2216 0040 14CD     		sw	a3,24(a0)
1219:C:/Users/stapi/OneDrive/Desktop/GD32VW553/GD32VW55X_Wifi_BLE_SDK/GD32VW55x_RELEASE_V1.0.2/MSDK/plf/GD32VW55x_standard_peripheral/Source\gd32vw55x_timer.c ****         /* reset the CH0CAPFLT bit */
 2217              		.loc 1 1219 9 is_stmt 1
1219:C:/Users/stapi/OneDrive/Desktop/GD32VW553/GD32VW55X_Wifi_BLE_SDK/GD32VW55x_RELEASE_V1.0.2/MSDK/plf/GD32VW55x_standard_peripheral/Source\gd32vw55x_timer.c ****         /* reset the CH0CAPFLT bit */
 2218              		.loc 1 1219 36 is_stmt 0
 2219 0042 144D     		lw	a3,24(a0)
 2220 0044 558F     		or	a4,a4,a3
 2221 0046 18CD     		sw	a4,24(a0)
1221:C:/Users/stapi/OneDrive/Desktop/GD32VW553/GD32VW55X_Wifi_BLE_SDK/GD32VW55x_RELEASE_V1.0.2/MSDK/plf/GD32VW55x_standard_peripheral/Source\gd32vw55x_timer.c ****         TIMER_CHCTL0(timer_periph) |= (uint32_t)((uint32_t)(icpara->icfilter) << 4U);
 2222              		.loc 1 1221 9 is_stmt 1
1221:C:/Users/stapi/OneDrive/Desktop/GD32VW553/GD32VW55X_Wifi_BLE_SDK/GD32VW55x_RELEASE_V1.0.2/MSDK/plf/GD32VW55x_standard_peripheral/Source\gd32vw55x_timer.c ****         TIMER_CHCTL0(timer_periph) |= (uint32_t)((uint32_t)(icpara->icfilter) << 4U);
 2223              		.loc 1 1221 36 is_stmt 0
 2224 0048 184D     		lw	a4,24(a0)
 2225 004a 1377F7F0 		andi	a4,a4,-241
 2226 004e 18CD     		sw	a4,24(a0)
1222:C:/Users/stapi/OneDrive/Desktop/GD32VW553/GD32VW55X_Wifi_BLE_SDK/GD32VW55x_RELEASE_V1.0.2/MSDK/plf/GD32VW55x_standard_peripheral/Source\gd32vw55x_timer.c **** 
 2227              		.loc 1 1222 9 is_stmt 1
1222:C:/Users/stapi/OneDrive/Desktop/GD32VW553/GD32VW55X_Wifi_BLE_SDK/GD32VW55x_RELEASE_V1.0.2/MSDK/plf/GD32VW55x_standard_peripheral/Source\gd32vw55x_timer.c **** 
 2228              		.loc 1 1222 36 is_stmt 0
 2229 0050 184D     		lw	a4,24(a0)
 2230 0052 D98F     		or	a5,a5,a4
 2231 0054 1CCD     		sw	a5,24(a0)
1225:C:/Users/stapi/OneDrive/Desktop/GD32VW553/GD32VW55X_Wifi_BLE_SDK/GD32VW55x_RELEASE_V1.0.2/MSDK/plf/GD32VW55x_standard_peripheral/Source\gd32vw55x_timer.c ****         break;
 2232              		.loc 1 1225 9 is_stmt 1
1225:C:/Users/stapi/OneDrive/Desktop/GD32VW553/GD32VW55X_Wifi_BLE_SDK/GD32VW55x_RELEASE_V1.0.2/MSDK/plf/GD32VW55x_standard_peripheral/Source\gd32vw55x_timer.c ****         break;
 2233              		.loc 1 1225 36 is_stmt 0
 2234 0056 1C51     		lw	a5,32(a0)
 2235 0058 93E71700 		ori	a5,a5,1
 2236              	.L178:
1284:C:/Users/stapi/OneDrive/Desktop/GD32VW553/GD32VW55X_Wifi_BLE_SDK/GD32VW55x_RELEASE_V1.0.2/MSDK/plf/GD32VW55x_standard_peripheral/Source\gd32vw55x_timer.c ****         break;
 2237              		.loc 1 1284 36
 2238 005c 1CD1     		sw	a5,32(a0)
1285:C:/Users/stapi/OneDrive/Desktop/GD32VW553/GD32VW55X_Wifi_BLE_SDK/GD32VW55x_RELEASE_V1.0.2/MSDK/plf/GD32VW55x_standard_peripheral/Source\gd32vw55x_timer.c ****     default:
 2239              		.loc 1 1285 9 is_stmt 1
 2240 005e 21A0     		j	.L175
 2241              	.L171:
1208:C:/Users/stapi/OneDrive/Desktop/GD32VW553/GD32VW55X_Wifi_BLE_SDK/GD32VW55x_RELEASE_V1.0.2/MSDK/plf/GD32VW55x_standard_peripheral/Source\gd32vw55x_timer.c ****     /* configure TIMER_CH_0 */
 2242              		.loc 1 1208 5 is_stmt 0
 2243 0060 8D47     		li	a5,3
 2244 0062 6385F50A 		beq	a1,a5,.L174
 2245              	.L175:
1290:C:/Users/stapi/OneDrive/Desktop/GD32VW553/GD32VW55X_Wifi_BLE_SDK/GD32VW55x_RELEASE_V1.0.2/MSDK/plf/GD32VW55x_standard_peripheral/Source\gd32vw55x_timer.c **** }
 2246              		.loc 1 1290 5 is_stmt 1
 2247 0066 03564600 		lhu	a2,4(a2)
 2248              	.LVL134:
 2249 006a 17030000 		tail	timer_channel_input_capture_prescaler_config
 2249      67000300 
 2250              	.LVL135:
 2251              	.L176:
1231:C:/Users/stapi/OneDrive/Desktop/GD32VW553/GD32VW55X_Wifi_BLE_SDK/GD32VW55x_RELEASE_V1.0.2/MSDK/plf/GD32VW55x_standard_peripheral/Source\gd32vw55x_timer.c **** 
 2252              		.loc 1 1231 9
1231:C:/Users/stapi/OneDrive/Desktop/GD32VW553/GD32VW55X_Wifi_BLE_SDK/GD32VW55x_RELEASE_V1.0.2/MSDK/plf/GD32VW55x_standard_peripheral/Source\gd32vw55x_timer.c **** 
 2253              		.loc 1 1231 36 is_stmt 0
 2254 0072 03280502 		lw	a6,32(a0)
1235:C:/Users/stapi/OneDrive/Desktop/GD32VW553/GD32VW55X_Wifi_BLE_SDK/GD32VW55x_RELEASE_V1.0.2/MSDK/plf/GD32VW55x_standard_peripheral/Source\gd32vw55x_timer.c ****         /* reset the CH1MS bit */
 2255              		.loc 1 1235 39
 2256 0076 9206     		slli	a3,a3,4
1238:C:/Users/stapi/OneDrive/Desktop/GD32VW553/GD32VW55X_Wifi_BLE_SDK/GD32VW55x_RELEASE_V1.0.2/MSDK/plf/GD32VW55x_standard_peripheral/Source\gd32vw55x_timer.c ****         /* reset the CH1CAPFLT bit */
 2257              		.loc 1 1238 39
 2258 0078 2207     		slli	a4,a4,8
1231:C:/Users/stapi/OneDrive/Desktop/GD32VW553/GD32VW55X_Wifi_BLE_SDK/GD32VW55x_RELEASE_V1.0.2/MSDK/plf/GD32VW55x_standard_peripheral/Source\gd32vw55x_timer.c **** 
 2259              		.loc 1 1231 36
 2260 007a 1378F8FE 		andi	a6,a6,-17
 2261 007e 23200503 		sw	a6,32(a0)
1234:C:/Users/stapi/OneDrive/Desktop/GD32VW553/GD32VW55X_Wifi_BLE_SDK/GD32VW55x_RELEASE_V1.0.2/MSDK/plf/GD32VW55x_standard_peripheral/Source\gd32vw55x_timer.c ****         TIMER_CHCTL2(timer_periph) |= (uint32_t)((uint32_t)(icpara->icpolarity) << 4U);
 2262              		.loc 1 1234 9 is_stmt 1
1234:C:/Users/stapi/OneDrive/Desktop/GD32VW553/GD32VW55X_Wifi_BLE_SDK/GD32VW55x_RELEASE_V1.0.2/MSDK/plf/GD32VW55x_standard_peripheral/Source\gd32vw55x_timer.c ****         TIMER_CHCTL2(timer_periph) |= (uint32_t)((uint32_t)(icpara->icpolarity) << 4U);
 2263              		.loc 1 1234 36 is_stmt 0
 2264 0082 03280502 		lw	a6,32(a0)
1241:C:/Users/stapi/OneDrive/Desktop/GD32VW553/GD32VW55X_Wifi_BLE_SDK/GD32VW55x_RELEASE_V1.0.2/MSDK/plf/GD32VW55x_standard_peripheral/Source\gd32vw55x_timer.c **** 
 2265              		.loc 1 1241 39
 2266 0086 B207     		slli	a5,a5,12
1234:C:/Users/stapi/OneDrive/Desktop/GD32VW553/GD32VW55X_Wifi_BLE_SDK/GD32VW55x_RELEASE_V1.0.2/MSDK/plf/GD32VW55x_standard_peripheral/Source\gd32vw55x_timer.c ****         TIMER_CHCTL2(timer_periph) |= (uint32_t)((uint32_t)(icpara->icpolarity) << 4U);
 2267              		.loc 1 1234 36
 2268 0088 1378F8F5 		andi	a6,a6,-161
 2269 008c 23200503 		sw	a6,32(a0)
1235:C:/Users/stapi/OneDrive/Desktop/GD32VW553/GD32VW55X_Wifi_BLE_SDK/GD32VW55x_RELEASE_V1.0.2/MSDK/plf/GD32VW55x_standard_peripheral/Source\gd32vw55x_timer.c ****         /* reset the CH1MS bit */
 2270              		.loc 1 1235 9 is_stmt 1
1235:C:/Users/stapi/OneDrive/Desktop/GD32VW553/GD32VW55X_Wifi_BLE_SDK/GD32VW55x_RELEASE_V1.0.2/MSDK/plf/GD32VW55x_standard_peripheral/Source\gd32vw55x_timer.c ****         /* reset the CH1MS bit */
 2271              		.loc 1 1235 36 is_stmt 0
 2272 0090 03280502 		lw	a6,32(a0)
 2273 0094 B3E60601 		or	a3,a3,a6
 2274 0098 14D1     		sw	a3,32(a0)
1237:C:/Users/stapi/OneDrive/Desktop/GD32VW553/GD32VW55X_Wifi_BLE_SDK/GD32VW55x_RELEASE_V1.0.2/MSDK/plf/GD32VW55x_standard_peripheral/Source\gd32vw55x_timer.c ****         TIMER_CHCTL0(timer_periph) |= (uint32_t)((uint32_t)(icpara->icselection) << 8U);
 2275              		.loc 1 1237 9 is_stmt 1
1237:C:/Users/stapi/OneDrive/Desktop/GD32VW553/GD32VW55X_Wifi_BLE_SDK/GD32VW55x_RELEASE_V1.0.2/MSDK/plf/GD32VW55x_standard_peripheral/Source\gd32vw55x_timer.c ****         TIMER_CHCTL0(timer_periph) |= (uint32_t)((uint32_t)(icpara->icselection) << 8U);
 2276              		.loc 1 1237 36 is_stmt 0
 2277 009a 144D     		lw	a3,24(a0)
 2278 009c 93F6F6CF 		andi	a3,a3,-769
 2279 00a0 14CD     		sw	a3,24(a0)
1238:C:/Users/stapi/OneDrive/Desktop/GD32VW553/GD32VW55X_Wifi_BLE_SDK/GD32VW55x_RELEASE_V1.0.2/MSDK/plf/GD32VW55x_standard_peripheral/Source\gd32vw55x_timer.c ****         /* reset the CH1CAPFLT bit */
 2280              		.loc 1 1238 9 is_stmt 1
1238:C:/Users/stapi/OneDrive/Desktop/GD32VW553/GD32VW55X_Wifi_BLE_SDK/GD32VW55x_RELEASE_V1.0.2/MSDK/plf/GD32VW55x_standard_peripheral/Source\gd32vw55x_timer.c ****         /* reset the CH1CAPFLT bit */
 2281              		.loc 1 1238 36 is_stmt 0
 2282 00a2 144D     		lw	a3,24(a0)
 2283 00a4 558F     		or	a4,a4,a3
 2284 00a6 18CD     		sw	a4,24(a0)
1240:C:/Users/stapi/OneDrive/Desktop/GD32VW553/GD32VW55X_Wifi_BLE_SDK/GD32VW55x_RELEASE_V1.0.2/MSDK/plf/GD32VW55x_standard_peripheral/Source\gd32vw55x_timer.c ****         TIMER_CHCTL0(timer_periph) |= (uint32_t)((uint32_t)(icpara->icfilter) << 12U);
 2285              		.loc 1 1240 9 is_stmt 1
1240:C:/Users/stapi/OneDrive/Desktop/GD32VW553/GD32VW55X_Wifi_BLE_SDK/GD32VW55x_RELEASE_V1.0.2/MSDK/plf/GD32VW55x_standard_peripheral/Source\gd32vw55x_timer.c ****         TIMER_CHCTL0(timer_periph) |= (uint32_t)((uint32_t)(icpara->icfilter) << 12U);
 2286              		.loc 1 1240 36 is_stmt 0
 2287 00a8 184D     		lw	a4,24(a0)
 2288 00aa C576     		li	a3,-61440
 2289 00ac FD16     		addi	a3,a3,-1
 2290 00ae 758F     		and	a4,a4,a3
 2291 00b0 18CD     		sw	a4,24(a0)
1241:C:/Users/stapi/OneDrive/Desktop/GD32VW553/GD32VW55X_Wifi_BLE_SDK/GD32VW55x_RELEASE_V1.0.2/MSDK/plf/GD32VW55x_standard_peripheral/Source\gd32vw55x_timer.c **** 
 2292              		.loc 1 1241 9 is_stmt 1
1241:C:/Users/stapi/OneDrive/Desktop/GD32VW553/GD32VW55X_Wifi_BLE_SDK/GD32VW55x_RELEASE_V1.0.2/MSDK/plf/GD32VW55x_standard_peripheral/Source\gd32vw55x_timer.c **** 
 2293              		.loc 1 1241 36 is_stmt 0
 2294 00b2 184D     		lw	a4,24(a0)
 2295 00b4 D98F     		or	a5,a5,a4
 2296 00b6 1CCD     		sw	a5,24(a0)
1244:C:/Users/stapi/OneDrive/Desktop/GD32VW553/GD32VW55X_Wifi_BLE_SDK/GD32VW55x_RELEASE_V1.0.2/MSDK/plf/GD32VW55x_standard_peripheral/Source\gd32vw55x_timer.c ****         break;
 2297              		.loc 1 1244 9 is_stmt 1
1244:C:/Users/stapi/OneDrive/Desktop/GD32VW553/GD32VW55X_Wifi_BLE_SDK/GD32VW55x_RELEASE_V1.0.2/MSDK/plf/GD32VW55x_standard_peripheral/Source\gd32vw55x_timer.c ****         break;
 2298              		.loc 1 1244 36 is_stmt 0
 2299 00b8 1C51     		lw	a5,32(a0)
 2300 00ba 93E70701 		ori	a5,a5,16
 2301 00be 79BF     		j	.L178
 2302              	.L170:
1249:C:/Users/stapi/OneDrive/Desktop/GD32VW553/GD32VW55X_Wifi_BLE_SDK/GD32VW55x_RELEASE_V1.0.2/MSDK/plf/GD32VW55x_standard_peripheral/Source\gd32vw55x_timer.c **** 
 2303              		.loc 1 1249 9 is_stmt 1
1249:C:/Users/stapi/OneDrive/Desktop/GD32VW553/GD32VW55X_Wifi_BLE_SDK/GD32VW55x_RELEASE_V1.0.2/MSDK/plf/GD32VW55x_standard_peripheral/Source\gd32vw55x_timer.c **** 
 2304              		.loc 1 1249 36 is_stmt 0
 2305 00c0 1C51     		lw	a5,32(a0)
1252:C:/Users/stapi/OneDrive/Desktop/GD32VW553/GD32VW55X_Wifi_BLE_SDK/GD32VW55x_RELEASE_V1.0.2/MSDK/plf/GD32VW55x_standard_peripheral/Source\gd32vw55x_timer.c ****         TIMER_CHCTL2(timer_periph) |= (uint32_t)((uint32_t)(icpara->icpolarity) << 8U);
 2306              		.loc 1 1252 36
 2307 00c2 7D77     		li	a4,-4096
 2308 00c4 1307F75F 		addi	a4,a4,1535
1249:C:/Users/stapi/OneDrive/Desktop/GD32VW553/GD32VW55X_Wifi_BLE_SDK/GD32VW55x_RELEASE_V1.0.2/MSDK/plf/GD32VW55x_standard_peripheral/Source\gd32vw55x_timer.c **** 
 2309              		.loc 1 1249 36
 2310 00c8 93F7F7EF 		andi	a5,a5,-257
 2311 00cc 1CD1     		sw	a5,32(a0)
1252:C:/Users/stapi/OneDrive/Desktop/GD32VW553/GD32VW55X_Wifi_BLE_SDK/GD32VW55x_RELEASE_V1.0.2/MSDK/plf/GD32VW55x_standard_peripheral/Source\gd32vw55x_timer.c ****         TIMER_CHCTL2(timer_periph) |= (uint32_t)((uint32_t)(icpara->icpolarity) << 8U);
 2312              		.loc 1 1252 9 is_stmt 1
1252:C:/Users/stapi/OneDrive/Desktop/GD32VW553/GD32VW55X_Wifi_BLE_SDK/GD32VW55x_RELEASE_V1.0.2/MSDK/plf/GD32VW55x_standard_peripheral/Source\gd32vw55x_timer.c ****         TIMER_CHCTL2(timer_periph) |= (uint32_t)((uint32_t)(icpara->icpolarity) << 8U);
 2313              		.loc 1 1252 36 is_stmt 0
 2314 00ce 1C51     		lw	a5,32(a0)
 2315 00d0 F98F     		and	a5,a5,a4
 2316 00d2 1CD1     		sw	a5,32(a0)
1253:C:/Users/stapi/OneDrive/Desktop/GD32VW553/GD32VW55X_Wifi_BLE_SDK/GD32VW55x_RELEASE_V1.0.2/MSDK/plf/GD32VW55x_standard_peripheral/Source\gd32vw55x_timer.c **** 
 2317              		.loc 1 1253 9 is_stmt 1
1253:C:/Users/stapi/OneDrive/Desktop/GD32VW553/GD32VW55X_Wifi_BLE_SDK/GD32VW55x_RELEASE_V1.0.2/MSDK/plf/GD32VW55x_standard_peripheral/Source\gd32vw55x_timer.c **** 
 2318              		.loc 1 1253 50 is_stmt 0
 2319 00d4 83570600 		lhu	a5,0(a2)
1253:C:/Users/stapi/OneDrive/Desktop/GD32VW553/GD32VW55X_Wifi_BLE_SDK/GD32VW55x_RELEASE_V1.0.2/MSDK/plf/GD32VW55x_standard_peripheral/Source\gd32vw55x_timer.c **** 
 2320              		.loc 1 1253 36
 2321 00d8 1851     		lw	a4,32(a0)
1253:C:/Users/stapi/OneDrive/Desktop/GD32VW553/GD32VW55X_Wifi_BLE_SDK/GD32VW55x_RELEASE_V1.0.2/MSDK/plf/GD32VW55x_standard_peripheral/Source\gd32vw55x_timer.c **** 
 2322              		.loc 1 1253 39
 2323 00da A207     		slli	a5,a5,8
1253:C:/Users/stapi/OneDrive/Desktop/GD32VW553/GD32VW55X_Wifi_BLE_SDK/GD32VW55x_RELEASE_V1.0.2/MSDK/plf/GD32VW55x_standard_peripheral/Source\gd32vw55x_timer.c **** 
 2324              		.loc 1 1253 36
 2325 00dc D98F     		or	a5,a5,a4
 2326 00de 1CD1     		sw	a5,32(a0)
1256:C:/Users/stapi/OneDrive/Desktop/GD32VW553/GD32VW55X_Wifi_BLE_SDK/GD32VW55x_RELEASE_V1.0.2/MSDK/plf/GD32VW55x_standard_peripheral/Source\gd32vw55x_timer.c ****         TIMER_CHCTL1(timer_periph) |= (uint32_t)((uint32_t)(icpara->icselection));
 2327              		.loc 1 1256 9 is_stmt 1
1256:C:/Users/stapi/OneDrive/Desktop/GD32VW553/GD32VW55X_Wifi_BLE_SDK/GD32VW55x_RELEASE_V1.0.2/MSDK/plf/GD32VW55x_standard_peripheral/Source\gd32vw55x_timer.c ****         TIMER_CHCTL1(timer_periph) |= (uint32_t)((uint32_t)(icpara->icselection));
 2328              		.loc 1 1256 36 is_stmt 0
 2329 00e0 5C4D     		lw	a5,28(a0)
 2330 00e2 F19B     		andi	a5,a5,-4
 2331 00e4 5CCD     		sw	a5,28(a0)
1257:C:/Users/stapi/OneDrive/Desktop/GD32VW553/GD32VW55X_Wifi_BLE_SDK/GD32VW55x_RELEASE_V1.0.2/MSDK/plf/GD32VW55x_standard_peripheral/Source\gd32vw55x_timer.c **** 
 2332              		.loc 1 1257 9 is_stmt 1
1257:C:/Users/stapi/OneDrive/Desktop/GD32VW553/GD32VW55X_Wifi_BLE_SDK/GD32VW55x_RELEASE_V1.0.2/MSDK/plf/GD32VW55x_standard_peripheral/Source\gd32vw55x_timer.c **** 
 2333              		.loc 1 1257 36 is_stmt 0
 2334 00e6 584D     		lw	a4,28(a0)
1257:C:/Users/stapi/OneDrive/Desktop/GD32VW553/GD32VW55X_Wifi_BLE_SDK/GD32VW55x_RELEASE_V1.0.2/MSDK/plf/GD32VW55x_standard_peripheral/Source\gd32vw55x_timer.c **** 
 2335              		.loc 1 1257 39
 2336 00e8 83572600 		lhu	a5,2(a2)
1257:C:/Users/stapi/OneDrive/Desktop/GD32VW553/GD32VW55X_Wifi_BLE_SDK/GD32VW55x_RELEASE_V1.0.2/MSDK/plf/GD32VW55x_standard_peripheral/Source\gd32vw55x_timer.c **** 
 2337              		.loc 1 1257 36
 2338 00ec D98F     		or	a5,a5,a4
 2339 00ee 5CCD     		sw	a5,28(a0)
1260:C:/Users/stapi/OneDrive/Desktop/GD32VW553/GD32VW55X_Wifi_BLE_SDK/GD32VW55x_RELEASE_V1.0.2/MSDK/plf/GD32VW55x_standard_peripheral/Source\gd32vw55x_timer.c ****         TIMER_CHCTL1(timer_periph) |= (uint32_t)((uint32_t)(icpara->icfilter) << 4U);
 2340              		.loc 1 1260 9 is_stmt 1
1260:C:/Users/stapi/OneDrive/Desktop/GD32VW553/GD32VW55X_Wifi_BLE_SDK/GD32VW55x_RELEASE_V1.0.2/MSDK/plf/GD32VW55x_standard_peripheral/Source\gd32vw55x_timer.c ****         TIMER_CHCTL1(timer_periph) |= (uint32_t)((uint32_t)(icpara->icfilter) << 4U);
 2341              		.loc 1 1260 36 is_stmt 0
 2342 00f0 5C4D     		lw	a5,28(a0)
 2343 00f2 93F7F7F0 		andi	a5,a5,-241
 2344 00f6 5CCD     		sw	a5,28(a0)
1261:C:/Users/stapi/OneDrive/Desktop/GD32VW553/GD32VW55X_Wifi_BLE_SDK/GD32VW55x_RELEASE_V1.0.2/MSDK/plf/GD32VW55x_standard_peripheral/Source\gd32vw55x_timer.c **** 
 2345              		.loc 1 1261 9 is_stmt 1
1261:C:/Users/stapi/OneDrive/Desktop/GD32VW553/GD32VW55X_Wifi_BLE_SDK/GD32VW55x_RELEASE_V1.0.2/MSDK/plf/GD32VW55x_standard_peripheral/Source\gd32vw55x_timer.c **** 
 2346              		.loc 1 1261 50 is_stmt 0
 2347 00f8 83576600 		lhu	a5,6(a2)
1261:C:/Users/stapi/OneDrive/Desktop/GD32VW553/GD32VW55X_Wifi_BLE_SDK/GD32VW55x_RELEASE_V1.0.2/MSDK/plf/GD32VW55x_standard_peripheral/Source\gd32vw55x_timer.c **** 
 2348              		.loc 1 1261 36
 2349 00fc 584D     		lw	a4,28(a0)
1261:C:/Users/stapi/OneDrive/Desktop/GD32VW553/GD32VW55X_Wifi_BLE_SDK/GD32VW55x_RELEASE_V1.0.2/MSDK/plf/GD32VW55x_standard_peripheral/Source\gd32vw55x_timer.c **** 
 2350              		.loc 1 1261 39
 2351 00fe 9207     		slli	a5,a5,4
1261:C:/Users/stapi/OneDrive/Desktop/GD32VW553/GD32VW55X_Wifi_BLE_SDK/GD32VW55x_RELEASE_V1.0.2/MSDK/plf/GD32VW55x_standard_peripheral/Source\gd32vw55x_timer.c **** 
 2352              		.loc 1 1261 36
 2353 0100 D98F     		or	a5,a5,a4
 2354 0102 5CCD     		sw	a5,28(a0)
1264:C:/Users/stapi/OneDrive/Desktop/GD32VW553/GD32VW55X_Wifi_BLE_SDK/GD32VW55x_RELEASE_V1.0.2/MSDK/plf/GD32VW55x_standard_peripheral/Source\gd32vw55x_timer.c ****         break;
 2355              		.loc 1 1264 9 is_stmt 1
1264:C:/Users/stapi/OneDrive/Desktop/GD32VW553/GD32VW55X_Wifi_BLE_SDK/GD32VW55x_RELEASE_V1.0.2/MSDK/plf/GD32VW55x_standard_peripheral/Source\gd32vw55x_timer.c ****         break;
 2356              		.loc 1 1264 36 is_stmt 0
 2357 0104 1C51     		lw	a5,32(a0)
 2358 0106 93E70710 		ori	a5,a5,256
 2359 010a 89BF     		j	.L178
 2360              	.L174:
1269:C:/Users/stapi/OneDrive/Desktop/GD32VW553/GD32VW55X_Wifi_BLE_SDK/GD32VW55x_RELEASE_V1.0.2/MSDK/plf/GD32VW55x_standard_peripheral/Source\gd32vw55x_timer.c **** 
 2361              		.loc 1 1269 9 is_stmt 1
1269:C:/Users/stapi/OneDrive/Desktop/GD32VW553/GD32VW55X_Wifi_BLE_SDK/GD32VW55x_RELEASE_V1.0.2/MSDK/plf/GD32VW55x_standard_peripheral/Source\gd32vw55x_timer.c **** 
 2362              		.loc 1 1269 36 is_stmt 0
 2363 010c 1C51     		lw	a5,32(a0)
1272:C:/Users/stapi/OneDrive/Desktop/GD32VW553/GD32VW55X_Wifi_BLE_SDK/GD32VW55x_RELEASE_V1.0.2/MSDK/plf/GD32VW55x_standard_peripheral/Source\gd32vw55x_timer.c ****         TIMER_CHCTL2(timer_periph) |= (uint32_t)((uint32_t)(icpara->icpolarity) << 12U);
 2364              		.loc 1 1272 36
 2365 010e 5977     		li	a4,-40960
 2366 0110 7D17     		addi	a4,a4,-1
1269:C:/Users/stapi/OneDrive/Desktop/GD32VW553/GD32VW55X_Wifi_BLE_SDK/GD32VW55x_RELEASE_V1.0.2/MSDK/plf/GD32VW55x_standard_peripheral/Source\gd32vw55x_timer.c **** 
 2367              		.loc 1 1269 36
 2368 0112 9397C748 		bclri	a5,a5,12
 2369 0116 1CD1     		sw	a5,32(a0)
1272:C:/Users/stapi/OneDrive/Desktop/GD32VW553/GD32VW55X_Wifi_BLE_SDK/GD32VW55x_RELEASE_V1.0.2/MSDK/plf/GD32VW55x_standard_peripheral/Source\gd32vw55x_timer.c ****         TIMER_CHCTL2(timer_periph) |= (uint32_t)((uint32_t)(icpara->icpolarity) << 12U);
 2370              		.loc 1 1272 9 is_stmt 1
1272:C:/Users/stapi/OneDrive/Desktop/GD32VW553/GD32VW55X_Wifi_BLE_SDK/GD32VW55x_RELEASE_V1.0.2/MSDK/plf/GD32VW55x_standard_peripheral/Source\gd32vw55x_timer.c ****         TIMER_CHCTL2(timer_periph) |= (uint32_t)((uint32_t)(icpara->icpolarity) << 12U);
 2371              		.loc 1 1272 36 is_stmt 0
 2372 0118 1C51     		lw	a5,32(a0)
 2373 011a F98F     		and	a5,a5,a4
 2374 011c 1CD1     		sw	a5,32(a0)
1273:C:/Users/stapi/OneDrive/Desktop/GD32VW553/GD32VW55X_Wifi_BLE_SDK/GD32VW55x_RELEASE_V1.0.2/MSDK/plf/GD32VW55x_standard_peripheral/Source\gd32vw55x_timer.c **** 
 2375              		.loc 1 1273 9 is_stmt 1
1273:C:/Users/stapi/OneDrive/Desktop/GD32VW553/GD32VW55X_Wifi_BLE_SDK/GD32VW55x_RELEASE_V1.0.2/MSDK/plf/GD32VW55x_standard_peripheral/Source\gd32vw55x_timer.c **** 
 2376              		.loc 1 1273 50 is_stmt 0
 2377 011e 83570600 		lhu	a5,0(a2)
1273:C:/Users/stapi/OneDrive/Desktop/GD32VW553/GD32VW55X_Wifi_BLE_SDK/GD32VW55x_RELEASE_V1.0.2/MSDK/plf/GD32VW55x_standard_peripheral/Source\gd32vw55x_timer.c **** 
 2378              		.loc 1 1273 36
 2379 0122 1851     		lw	a4,32(a0)
1273:C:/Users/stapi/OneDrive/Desktop/GD32VW553/GD32VW55X_Wifi_BLE_SDK/GD32VW55x_RELEASE_V1.0.2/MSDK/plf/GD32VW55x_standard_peripheral/Source\gd32vw55x_timer.c **** 
 2380              		.loc 1 1273 39
 2381 0124 B207     		slli	a5,a5,12
1273:C:/Users/stapi/OneDrive/Desktop/GD32VW553/GD32VW55X_Wifi_BLE_SDK/GD32VW55x_RELEASE_V1.0.2/MSDK/plf/GD32VW55x_standard_peripheral/Source\gd32vw55x_timer.c **** 
 2382              		.loc 1 1273 36
 2383 0126 D98F     		or	a5,a5,a4
 2384 0128 1CD1     		sw	a5,32(a0)
1276:C:/Users/stapi/OneDrive/Desktop/GD32VW553/GD32VW55X_Wifi_BLE_SDK/GD32VW55x_RELEASE_V1.0.2/MSDK/plf/GD32VW55x_standard_peripheral/Source\gd32vw55x_timer.c ****         TIMER_CHCTL1(timer_periph) |= (uint32_t)((uint32_t)(icpara->icselection) << 8U);
 2385              		.loc 1 1276 9 is_stmt 1
1276:C:/Users/stapi/OneDrive/Desktop/GD32VW553/GD32VW55X_Wifi_BLE_SDK/GD32VW55x_RELEASE_V1.0.2/MSDK/plf/GD32VW55x_standard_peripheral/Source\gd32vw55x_timer.c ****         TIMER_CHCTL1(timer_periph) |= (uint32_t)((uint32_t)(icpara->icselection) << 8U);
 2386              		.loc 1 1276 36 is_stmt 0
 2387 012a 5C4D     		lw	a5,28(a0)
 2388 012c 93F7F7CF 		andi	a5,a5,-769
 2389 0130 5CCD     		sw	a5,28(a0)
1277:C:/Users/stapi/OneDrive/Desktop/GD32VW553/GD32VW55X_Wifi_BLE_SDK/GD32VW55x_RELEASE_V1.0.2/MSDK/plf/GD32VW55x_standard_peripheral/Source\gd32vw55x_timer.c **** 
 2390              		.loc 1 1277 9 is_stmt 1
1277:C:/Users/stapi/OneDrive/Desktop/GD32VW553/GD32VW55X_Wifi_BLE_SDK/GD32VW55x_RELEASE_V1.0.2/MSDK/plf/GD32VW55x_standard_peripheral/Source\gd32vw55x_timer.c **** 
 2391              		.loc 1 1277 50 is_stmt 0
 2392 0132 83572600 		lhu	a5,2(a2)
1277:C:/Users/stapi/OneDrive/Desktop/GD32VW553/GD32VW55X_Wifi_BLE_SDK/GD32VW55x_RELEASE_V1.0.2/MSDK/plf/GD32VW55x_standard_peripheral/Source\gd32vw55x_timer.c **** 
 2393              		.loc 1 1277 36
 2394 0136 584D     		lw	a4,28(a0)
1277:C:/Users/stapi/OneDrive/Desktop/GD32VW553/GD32VW55X_Wifi_BLE_SDK/GD32VW55x_RELEASE_V1.0.2/MSDK/plf/GD32VW55x_standard_peripheral/Source\gd32vw55x_timer.c **** 
 2395              		.loc 1 1277 39
 2396 0138 A207     		slli	a5,a5,8
1277:C:/Users/stapi/OneDrive/Desktop/GD32VW553/GD32VW55X_Wifi_BLE_SDK/GD32VW55x_RELEASE_V1.0.2/MSDK/plf/GD32VW55x_standard_peripheral/Source\gd32vw55x_timer.c **** 
 2397              		.loc 1 1277 36
 2398 013a D98F     		or	a5,a5,a4
 2399 013c 5CCD     		sw	a5,28(a0)
1280:C:/Users/stapi/OneDrive/Desktop/GD32VW553/GD32VW55X_Wifi_BLE_SDK/GD32VW55x_RELEASE_V1.0.2/MSDK/plf/GD32VW55x_standard_peripheral/Source\gd32vw55x_timer.c ****         TIMER_CHCTL1(timer_periph) |= (uint32_t)((uint32_t)(icpara->icfilter) << 12U);
 2400              		.loc 1 1280 9 is_stmt 1
1280:C:/Users/stapi/OneDrive/Desktop/GD32VW553/GD32VW55X_Wifi_BLE_SDK/GD32VW55x_RELEASE_V1.0.2/MSDK/plf/GD32VW55x_standard_peripheral/Source\gd32vw55x_timer.c ****         TIMER_CHCTL1(timer_periph) |= (uint32_t)((uint32_t)(icpara->icfilter) << 12U);
 2401              		.loc 1 1280 36 is_stmt 0
 2402 013e 5C4D     		lw	a5,28(a0)
 2403 0140 4577     		li	a4,-61440
 2404 0142 7D17     		addi	a4,a4,-1
 2405 0144 F98F     		and	a5,a5,a4
 2406 0146 5CCD     		sw	a5,28(a0)
1281:C:/Users/stapi/OneDrive/Desktop/GD32VW553/GD32VW55X_Wifi_BLE_SDK/GD32VW55x_RELEASE_V1.0.2/MSDK/plf/GD32VW55x_standard_peripheral/Source\gd32vw55x_timer.c **** 
 2407              		.loc 1 1281 9 is_stmt 1
1281:C:/Users/stapi/OneDrive/Desktop/GD32VW553/GD32VW55X_Wifi_BLE_SDK/GD32VW55x_RELEASE_V1.0.2/MSDK/plf/GD32VW55x_standard_peripheral/Source\gd32vw55x_timer.c **** 
 2408              		.loc 1 1281 50 is_stmt 0
 2409 0148 83576600 		lhu	a5,6(a2)
1281:C:/Users/stapi/OneDrive/Desktop/GD32VW553/GD32VW55X_Wifi_BLE_SDK/GD32VW55x_RELEASE_V1.0.2/MSDK/plf/GD32VW55x_standard_peripheral/Source\gd32vw55x_timer.c **** 
 2410              		.loc 1 1281 36
 2411 014c 584D     		lw	a4,28(a0)
1281:C:/Users/stapi/OneDrive/Desktop/GD32VW553/GD32VW55X_Wifi_BLE_SDK/GD32VW55x_RELEASE_V1.0.2/MSDK/plf/GD32VW55x_standard_peripheral/Source\gd32vw55x_timer.c **** 
 2412              		.loc 1 1281 39
 2413 014e B207     		slli	a5,a5,12
1281:C:/Users/stapi/OneDrive/Desktop/GD32VW553/GD32VW55X_Wifi_BLE_SDK/GD32VW55x_RELEASE_V1.0.2/MSDK/plf/GD32VW55x_standard_peripheral/Source\gd32vw55x_timer.c **** 
 2414              		.loc 1 1281 36
 2415 0150 D98F     		or	a5,a5,a4
 2416 0152 5CCD     		sw	a5,28(a0)
1284:C:/Users/stapi/OneDrive/Desktop/GD32VW553/GD32VW55X_Wifi_BLE_SDK/GD32VW55x_RELEASE_V1.0.2/MSDK/plf/GD32VW55x_standard_peripheral/Source\gd32vw55x_timer.c ****         break;
 2417              		.loc 1 1284 9 is_stmt 1
1284:C:/Users/stapi/OneDrive/Desktop/GD32VW553/GD32VW55X_Wifi_BLE_SDK/GD32VW55x_RELEASE_V1.0.2/MSDK/plf/GD32VW55x_standard_peripheral/Source\gd32vw55x_timer.c ****         break;
 2418              		.loc 1 1284 36 is_stmt 0
 2419 0154 1C51     		lw	a5,32(a0)
 2420 0156 9397C728 		bseti	a5,a5,12
 2421 015a 09B7     		j	.L178
 2422              		.cfi_endproc
 2423              	.LFE411:
 2425              		.section	.text.timer_channel_capture_value_register_read,"ax",@progbits
 2426              		.align	1
 2427              		.globl	timer_channel_capture_value_register_read
 2429              	timer_channel_capture_value_register_read:
 2430              	.LFB413:
1338:C:/Users/stapi/OneDrive/Desktop/GD32VW553/GD32VW55X_Wifi_BLE_SDK/GD32VW55x_RELEASE_V1.0.2/MSDK/plf/GD32VW55x_standard_peripheral/Source\gd32vw55x_timer.c **** 
1339:C:/Users/stapi/OneDrive/Desktop/GD32VW553/GD32VW55X_Wifi_BLE_SDK/GD32VW55x_RELEASE_V1.0.2/MSDK/plf/GD32VW55x_standard_peripheral/Source\gd32vw55x_timer.c **** /*!
1340:C:/Users/stapi/OneDrive/Desktop/GD32VW553/GD32VW55X_Wifi_BLE_SDK/GD32VW55x_RELEASE_V1.0.2/MSDK/plf/GD32VW55x_standard_peripheral/Source\gd32vw55x_timer.c ****     \brief      read TIMER channel capture compare register value
1341:C:/Users/stapi/OneDrive/Desktop/GD32VW553/GD32VW55X_Wifi_BLE_SDK/GD32VW55x_RELEASE_V1.0.2/MSDK/plf/GD32VW55x_standard_peripheral/Source\gd32vw55x_timer.c ****     \param[in]  timer_periph: please refer to the following parameters
1342:C:/Users/stapi/OneDrive/Desktop/GD32VW553/GD32VW55X_Wifi_BLE_SDK/GD32VW55x_RELEASE_V1.0.2/MSDK/plf/GD32VW55x_standard_peripheral/Source\gd32vw55x_timer.c ****     \param[in]  channel:
1343:C:/Users/stapi/OneDrive/Desktop/GD32VW553/GD32VW55X_Wifi_BLE_SDK/GD32VW55x_RELEASE_V1.0.2/MSDK/plf/GD32VW55x_standard_peripheral/Source\gd32vw55x_timer.c ****                 only one parameter can be selected which is shown as below:
1344:C:/Users/stapi/OneDrive/Desktop/GD32VW553/GD32VW55X_Wifi_BLE_SDK/GD32VW55x_RELEASE_V1.0.2/MSDK/plf/GD32VW55x_standard_peripheral/Source\gd32vw55x_timer.c ****       \arg        TIMER_CH_0: TIMER channel0(TIMERx(x=0,1,2,15,16))
1345:C:/Users/stapi/OneDrive/Desktop/GD32VW553/GD32VW55X_Wifi_BLE_SDK/GD32VW55x_RELEASE_V1.0.2/MSDK/plf/GD32VW55x_standard_peripheral/Source\gd32vw55x_timer.c ****       \arg        TIMER_CH_1: TIMER channel1(TIMERx(x=0,1,2))
1346:C:/Users/stapi/OneDrive/Desktop/GD32VW553/GD32VW55X_Wifi_BLE_SDK/GD32VW55x_RELEASE_V1.0.2/MSDK/plf/GD32VW55x_standard_peripheral/Source\gd32vw55x_timer.c ****       \arg        TIMER_CH_2: TIMER channel2(TIMERx(x=0,1,2))
1347:C:/Users/stapi/OneDrive/Desktop/GD32VW553/GD32VW55X_Wifi_BLE_SDK/GD32VW55x_RELEASE_V1.0.2/MSDK/plf/GD32VW55x_standard_peripheral/Source\gd32vw55x_timer.c ****       \arg        TIMER_CH_3: TIMER channel3(TIMERx(x=0,1,2))
1348:C:/Users/stapi/OneDrive/Desktop/GD32VW553/GD32VW55X_Wifi_BLE_SDK/GD32VW55x_RELEASE_V1.0.2/MSDK/plf/GD32VW55x_standard_peripheral/Source\gd32vw55x_timer.c ****     \param[out] none
1349:C:/Users/stapi/OneDrive/Desktop/GD32VW553/GD32VW55X_Wifi_BLE_SDK/GD32VW55x_RELEASE_V1.0.2/MSDK/plf/GD32VW55x_standard_peripheral/Source\gd32vw55x_timer.c ****     \retval     channel capture compare register value
1350:C:/Users/stapi/OneDrive/Desktop/GD32VW553/GD32VW55X_Wifi_BLE_SDK/GD32VW55x_RELEASE_V1.0.2/MSDK/plf/GD32VW55x_standard_peripheral/Source\gd32vw55x_timer.c **** */
1351:C:/Users/stapi/OneDrive/Desktop/GD32VW553/GD32VW55X_Wifi_BLE_SDK/GD32VW55x_RELEASE_V1.0.2/MSDK/plf/GD32VW55x_standard_peripheral/Source\gd32vw55x_timer.c **** uint32_t timer_channel_capture_value_register_read(uint32_t timer_periph, uint16_t channel)
1352:C:/Users/stapi/OneDrive/Desktop/GD32VW553/GD32VW55X_Wifi_BLE_SDK/GD32VW55x_RELEASE_V1.0.2/MSDK/plf/GD32VW55x_standard_peripheral/Source\gd32vw55x_timer.c **** {
 2431              		.loc 1 1352 1 is_stmt 1
 2432              		.cfi_startproc
 2433              	.LVL136:
1353:C:/Users/stapi/OneDrive/Desktop/GD32VW553/GD32VW55X_Wifi_BLE_SDK/GD32VW55x_RELEASE_V1.0.2/MSDK/plf/GD32VW55x_standard_peripheral/Source\gd32vw55x_timer.c ****     uint32_t count_value = 0U;
 2434              		.loc 1 1353 5
1354:C:/Users/stapi/OneDrive/Desktop/GD32VW553/GD32VW55X_Wifi_BLE_SDK/GD32VW55x_RELEASE_V1.0.2/MSDK/plf/GD32VW55x_standard_peripheral/Source\gd32vw55x_timer.c **** 
1355:C:/Users/stapi/OneDrive/Desktop/GD32VW553/GD32VW55X_Wifi_BLE_SDK/GD32VW55x_RELEASE_V1.0.2/MSDK/plf/GD32VW55x_standard_peripheral/Source\gd32vw55x_timer.c ****     switch(channel){
 2435              		.loc 1 1355 5
 2436 0000 8947     		li	a5,2
 2437 0002 638EF500 		beq	a1,a5,.L180
 2438 0006 63E5B700 		bgtu	a1,a5,.L181
 2439 000a 81E9     		bne	a1,zero,.L186
1356:C:/Users/stapi/OneDrive/Desktop/GD32VW553/GD32VW55X_Wifi_BLE_SDK/GD32VW55x_RELEASE_V1.0.2/MSDK/plf/GD32VW55x_standard_peripheral/Source\gd32vw55x_timer.c ****     /* read TIMER channel 0 capture compare register value */
1357:C:/Users/stapi/OneDrive/Desktop/GD32VW553/GD32VW55X_Wifi_BLE_SDK/GD32VW55x_RELEASE_V1.0.2/MSDK/plf/GD32VW55x_standard_peripheral/Source\gd32vw55x_timer.c ****     case TIMER_CH_0:
1358:C:/Users/stapi/OneDrive/Desktop/GD32VW553/GD32VW55X_Wifi_BLE_SDK/GD32VW55x_RELEASE_V1.0.2/MSDK/plf/GD32VW55x_standard_peripheral/Source\gd32vw55x_timer.c ****         count_value = TIMER_CH0CV(timer_periph);
 2440              		.loc 1 1358 9
 2441              		.loc 1 1358 21 is_stmt 0
 2442 000c 4859     		lw	a0,52(a0)
 2443              	.LVL137:
1359:C:/Users/stapi/OneDrive/Desktop/GD32VW553/GD32VW55X_Wifi_BLE_SDK/GD32VW55x_RELEASE_V1.0.2/MSDK/plf/GD32VW55x_standard_peripheral/Source\gd32vw55x_timer.c ****         break;
 2444              		.loc 1 1359 9 is_stmt 1
 2445 000e 8280     		ret
 2446              	.LVL138:
 2447              	.L181:
1355:C:/Users/stapi/OneDrive/Desktop/GD32VW553/GD32VW55X_Wifi_BLE_SDK/GD32VW55x_RELEASE_V1.0.2/MSDK/plf/GD32VW55x_standard_peripheral/Source\gd32vw55x_timer.c ****     /* read TIMER channel 0 capture compare register value */
 2448              		.loc 1 1355 5 is_stmt 0
 2449 0010 8D47     		li	a5,3
 2450 0012 6388F500 		beq	a1,a5,.L184
 2451 0016 0145     		li	a0,0
 2452              	.LVL139:
 2453 0018 8280     		ret
 2454              	.LVL140:
 2455              	.L186:
1360:C:/Users/stapi/OneDrive/Desktop/GD32VW553/GD32VW55X_Wifi_BLE_SDK/GD32VW55x_RELEASE_V1.0.2/MSDK/plf/GD32VW55x_standard_peripheral/Source\gd32vw55x_timer.c ****     /* read TIMER channel 1 capture compare register value */
1361:C:/Users/stapi/OneDrive/Desktop/GD32VW553/GD32VW55X_Wifi_BLE_SDK/GD32VW55x_RELEASE_V1.0.2/MSDK/plf/GD32VW55x_standard_peripheral/Source\gd32vw55x_timer.c ****     case TIMER_CH_1:
1362:C:/Users/stapi/OneDrive/Desktop/GD32VW553/GD32VW55X_Wifi_BLE_SDK/GD32VW55x_RELEASE_V1.0.2/MSDK/plf/GD32VW55x_standard_peripheral/Source\gd32vw55x_timer.c ****         count_value = TIMER_CH1CV(timer_periph);
 2456              		.loc 1 1362 9 is_stmt 1
 2457              		.loc 1 1362 21 is_stmt 0
 2458 001a 085D     		lw	a0,56(a0)
 2459              	.LVL141:
1363:C:/Users/stapi/OneDrive/Desktop/GD32VW553/GD32VW55X_Wifi_BLE_SDK/GD32VW55x_RELEASE_V1.0.2/MSDK/plf/GD32VW55x_standard_peripheral/Source\gd32vw55x_timer.c ****         break;
 2460              		.loc 1 1363 9 is_stmt 1
 2461 001c 8280     		ret
 2462              	.LVL142:
 2463              	.L180:
1364:C:/Users/stapi/OneDrive/Desktop/GD32VW553/GD32VW55X_Wifi_BLE_SDK/GD32VW55x_RELEASE_V1.0.2/MSDK/plf/GD32VW55x_standard_peripheral/Source\gd32vw55x_timer.c ****     /* read TIMER channel 2 capture compare register value */
1365:C:/Users/stapi/OneDrive/Desktop/GD32VW553/GD32VW55X_Wifi_BLE_SDK/GD32VW55x_RELEASE_V1.0.2/MSDK/plf/GD32VW55x_standard_peripheral/Source\gd32vw55x_timer.c ****     case TIMER_CH_2:
1366:C:/Users/stapi/OneDrive/Desktop/GD32VW553/GD32VW55X_Wifi_BLE_SDK/GD32VW55x_RELEASE_V1.0.2/MSDK/plf/GD32VW55x_standard_peripheral/Source\gd32vw55x_timer.c ****         count_value = TIMER_CH2CV(timer_periph);
 2464              		.loc 1 1366 9
 2465              		.loc 1 1366 21 is_stmt 0
 2466 001e 485D     		lw	a0,60(a0)
 2467              	.LVL143:
1367:C:/Users/stapi/OneDrive/Desktop/GD32VW553/GD32VW55X_Wifi_BLE_SDK/GD32VW55x_RELEASE_V1.0.2/MSDK/plf/GD32VW55x_standard_peripheral/Source\gd32vw55x_timer.c ****         break;
 2468              		.loc 1 1367 9 is_stmt 1
 2469 0020 8280     		ret
 2470              	.LVL144:
 2471              	.L184:
1368:C:/Users/stapi/OneDrive/Desktop/GD32VW553/GD32VW55X_Wifi_BLE_SDK/GD32VW55x_RELEASE_V1.0.2/MSDK/plf/GD32VW55x_standard_peripheral/Source\gd32vw55x_timer.c ****     /* read TIMER channel 3 capture compare register value */
1369:C:/Users/stapi/OneDrive/Desktop/GD32VW553/GD32VW55X_Wifi_BLE_SDK/GD32VW55x_RELEASE_V1.0.2/MSDK/plf/GD32VW55x_standard_peripheral/Source\gd32vw55x_timer.c ****     case TIMER_CH_3:
1370:C:/Users/stapi/OneDrive/Desktop/GD32VW553/GD32VW55X_Wifi_BLE_SDK/GD32VW55x_RELEASE_V1.0.2/MSDK/plf/GD32VW55x_standard_peripheral/Source\gd32vw55x_timer.c ****         count_value = TIMER_CH3CV(timer_periph);
 2472              		.loc 1 1370 9
 2473              		.loc 1 1370 21 is_stmt 0
 2474 0022 2841     		lw	a0,64(a0)
 2475              	.LVL145:
1371:C:/Users/stapi/OneDrive/Desktop/GD32VW553/GD32VW55X_Wifi_BLE_SDK/GD32VW55x_RELEASE_V1.0.2/MSDK/plf/GD32VW55x_standard_peripheral/Source\gd32vw55x_timer.c ****         break;
 2476              		.loc 1 1371 9 is_stmt 1
1372:C:/Users/stapi/OneDrive/Desktop/GD32VW553/GD32VW55X_Wifi_BLE_SDK/GD32VW55x_RELEASE_V1.0.2/MSDK/plf/GD32VW55x_standard_peripheral/Source\gd32vw55x_timer.c ****     default:
1373:C:/Users/stapi/OneDrive/Desktop/GD32VW553/GD32VW55X_Wifi_BLE_SDK/GD32VW55x_RELEASE_V1.0.2/MSDK/plf/GD32VW55x_standard_peripheral/Source\gd32vw55x_timer.c ****         break;
1374:C:/Users/stapi/OneDrive/Desktop/GD32VW553/GD32VW55X_Wifi_BLE_SDK/GD32VW55x_RELEASE_V1.0.2/MSDK/plf/GD32VW55x_standard_peripheral/Source\gd32vw55x_timer.c ****     }
1375:C:/Users/stapi/OneDrive/Desktop/GD32VW553/GD32VW55X_Wifi_BLE_SDK/GD32VW55x_RELEASE_V1.0.2/MSDK/plf/GD32VW55x_standard_peripheral/Source\gd32vw55x_timer.c ****     return (count_value);
 2477              		.loc 1 1375 5
1376:C:/Users/stapi/OneDrive/Desktop/GD32VW553/GD32VW55X_Wifi_BLE_SDK/GD32VW55x_RELEASE_V1.0.2/MSDK/plf/GD32VW55x_standard_peripheral/Source\gd32vw55x_timer.c **** }
 2478              		.loc 1 1376 1 is_stmt 0
 2479 0024 8280     		ret
 2480              		.cfi_endproc
 2481              	.LFE413:
 2483              		.section	.text.timer_input_pwm_capture_config,"ax",@progbits
 2484              		.align	1
 2485              		.globl	timer_input_pwm_capture_config
 2487              	timer_input_pwm_capture_config:
 2488              	.LFB414:
1377:C:/Users/stapi/OneDrive/Desktop/GD32VW553/GD32VW55X_Wifi_BLE_SDK/GD32VW55x_RELEASE_V1.0.2/MSDK/plf/GD32VW55x_standard_peripheral/Source\gd32vw55x_timer.c **** 
1378:C:/Users/stapi/OneDrive/Desktop/GD32VW553/GD32VW55X_Wifi_BLE_SDK/GD32VW55x_RELEASE_V1.0.2/MSDK/plf/GD32VW55x_standard_peripheral/Source\gd32vw55x_timer.c **** /*!
1379:C:/Users/stapi/OneDrive/Desktop/GD32VW553/GD32VW55X_Wifi_BLE_SDK/GD32VW55x_RELEASE_V1.0.2/MSDK/plf/GD32VW55x_standard_peripheral/Source\gd32vw55x_timer.c ****     \brief      configure TIMER input pwm capture function
1380:C:/Users/stapi/OneDrive/Desktop/GD32VW553/GD32VW55X_Wifi_BLE_SDK/GD32VW55x_RELEASE_V1.0.2/MSDK/plf/GD32VW55x_standard_peripheral/Source\gd32vw55x_timer.c ****     \param[in]  timer_periph: TIMERx(x=0,1,2)
1381:C:/Users/stapi/OneDrive/Desktop/GD32VW553/GD32VW55X_Wifi_BLE_SDK/GD32VW55x_RELEASE_V1.0.2/MSDK/plf/GD32VW55x_standard_peripheral/Source\gd32vw55x_timer.c ****     \param[in]  channel:
1382:C:/Users/stapi/OneDrive/Desktop/GD32VW553/GD32VW55X_Wifi_BLE_SDK/GD32VW55x_RELEASE_V1.0.2/MSDK/plf/GD32VW55x_standard_peripheral/Source\gd32vw55x_timer.c ****                 only one parameter can be selected which is shown as below:
1383:C:/Users/stapi/OneDrive/Desktop/GD32VW553/GD32VW55X_Wifi_BLE_SDK/GD32VW55x_RELEASE_V1.0.2/MSDK/plf/GD32VW55x_standard_peripheral/Source\gd32vw55x_timer.c ****       \arg        TIMER_CH_0: TIMER channel0
1384:C:/Users/stapi/OneDrive/Desktop/GD32VW553/GD32VW55X_Wifi_BLE_SDK/GD32VW55x_RELEASE_V1.0.2/MSDK/plf/GD32VW55x_standard_peripheral/Source\gd32vw55x_timer.c ****       \arg        TIMER_CH_1: TIMER channel1
1385:C:/Users/stapi/OneDrive/Desktop/GD32VW553/GD32VW55X_Wifi_BLE_SDK/GD32VW55x_RELEASE_V1.0.2/MSDK/plf/GD32VW55x_standard_peripheral/Source\gd32vw55x_timer.c ****      \param[in]  icpwm:TIMER channel intput pwm parameter struct
1386:C:/Users/stapi/OneDrive/Desktop/GD32VW553/GD32VW55X_Wifi_BLE_SDK/GD32VW55x_RELEASE_V1.0.2/MSDK/plf/GD32VW55x_standard_peripheral/Source\gd32vw55x_timer.c ****                  icpolarity: TIMER_IC_POLARITY_RISING,TIMER_IC_POLARITY_FALLING
1387:C:/Users/stapi/OneDrive/Desktop/GD32VW553/GD32VW55X_Wifi_BLE_SDK/GD32VW55x_RELEASE_V1.0.2/MSDK/plf/GD32VW55x_standard_peripheral/Source\gd32vw55x_timer.c ****                  icselection: TIMER_IC_SELECTION_DIRECTTI,TIMER_IC_SELECTION_INDIRECTTI
1388:C:/Users/stapi/OneDrive/Desktop/GD32VW553/GD32VW55X_Wifi_BLE_SDK/GD32VW55x_RELEASE_V1.0.2/MSDK/plf/GD32VW55x_standard_peripheral/Source\gd32vw55x_timer.c ****                  icprescaler: TIMER_IC_PSC_DIV1,TIMER_IC_PSC_DIV2,TIMER_IC_PSC_DIV4,TIMER_IC_PSC_DI
1389:C:/Users/stapi/OneDrive/Desktop/GD32VW553/GD32VW55X_Wifi_BLE_SDK/GD32VW55x_RELEASE_V1.0.2/MSDK/plf/GD32VW55x_standard_peripheral/Source\gd32vw55x_timer.c ****                  icfilter: 0~15
1390:C:/Users/stapi/OneDrive/Desktop/GD32VW553/GD32VW55X_Wifi_BLE_SDK/GD32VW55x_RELEASE_V1.0.2/MSDK/plf/GD32VW55x_standard_peripheral/Source\gd32vw55x_timer.c ****     \param[out] none
1391:C:/Users/stapi/OneDrive/Desktop/GD32VW553/GD32VW55X_Wifi_BLE_SDK/GD32VW55x_RELEASE_V1.0.2/MSDK/plf/GD32VW55x_standard_peripheral/Source\gd32vw55x_timer.c ****     \retval     none
1392:C:/Users/stapi/OneDrive/Desktop/GD32VW553/GD32VW55X_Wifi_BLE_SDK/GD32VW55x_RELEASE_V1.0.2/MSDK/plf/GD32VW55x_standard_peripheral/Source\gd32vw55x_timer.c **** */
1393:C:/Users/stapi/OneDrive/Desktop/GD32VW553/GD32VW55X_Wifi_BLE_SDK/GD32VW55x_RELEASE_V1.0.2/MSDK/plf/GD32VW55x_standard_peripheral/Source\gd32vw55x_timer.c **** void timer_input_pwm_capture_config(uint32_t timer_periph, uint16_t channel, timer_ic_parameter_str
1394:C:/Users/stapi/OneDrive/Desktop/GD32VW553/GD32VW55X_Wifi_BLE_SDK/GD32VW55x_RELEASE_V1.0.2/MSDK/plf/GD32VW55x_standard_peripheral/Source\gd32vw55x_timer.c **** {
 2489              		.loc 1 1394 1 is_stmt 1
 2490              		.cfi_startproc
 2491              	.LVL146:
 2492 0000 17030000 		call	t0,__riscv_save_3
 2492      E7020300 
 2493              		.cfi_offset 18, -16
 2494              		.cfi_offset 9, -12
 2495              		.cfi_offset 8, -8
 2496              		.cfi_offset 1, -4
 2497              		.cfi_def_cfa_offset 16
1395:C:/Users/stapi/OneDrive/Desktop/GD32VW553/GD32VW55X_Wifi_BLE_SDK/GD32VW55x_RELEASE_V1.0.2/MSDK/plf/GD32VW55x_standard_peripheral/Source\gd32vw55x_timer.c ****     uint16_t icpolarity  = 0x0U;
 2498              		.loc 1 1395 5
 2499              	.LVL147:
1396:C:/Users/stapi/OneDrive/Desktop/GD32VW553/GD32VW55X_Wifi_BLE_SDK/GD32VW55x_RELEASE_V1.0.2/MSDK/plf/GD32VW55x_standard_peripheral/Source\gd32vw55x_timer.c ****     uint16_t icselection = 0x0U;
 2500              		.loc 1 1396 5
1397:C:/Users/stapi/OneDrive/Desktop/GD32VW553/GD32VW55X_Wifi_BLE_SDK/GD32VW55x_RELEASE_V1.0.2/MSDK/plf/GD32VW55x_standard_peripheral/Source\gd32vw55x_timer.c **** 
1398:C:/Users/stapi/OneDrive/Desktop/GD32VW553/GD32VW55X_Wifi_BLE_SDK/GD32VW55x_RELEASE_V1.0.2/MSDK/plf/GD32VW55x_standard_peripheral/Source\gd32vw55x_timer.c ****     /* Set channel input polarity */
1399:C:/Users/stapi/OneDrive/Desktop/GD32VW553/GD32VW55X_Wifi_BLE_SDK/GD32VW55x_RELEASE_V1.0.2/MSDK/plf/GD32VW55x_standard_peripheral/Source\gd32vw55x_timer.c ****     if(TIMER_IC_POLARITY_RISING == icpwm->icpolarity){
 2501              		.loc 1 1399 5
 2502              		.loc 1 1399 41 is_stmt 0
 2503 0008 83560600 		lhu	a3,0(a2)
1400:C:/Users/stapi/OneDrive/Desktop/GD32VW553/GD32VW55X_Wifi_BLE_SDK/GD32VW55x_RELEASE_V1.0.2/MSDK/plf/GD32VW55x_standard_peripheral/Source\gd32vw55x_timer.c ****         icpolarity = TIMER_IC_POLARITY_FALLING;
1401:C:/Users/stapi/OneDrive/Desktop/GD32VW553/GD32VW55X_Wifi_BLE_SDK/GD32VW55x_RELEASE_V1.0.2/MSDK/plf/GD32VW55x_standard_peripheral/Source\gd32vw55x_timer.c ****     }else{
1402:C:/Users/stapi/OneDrive/Desktop/GD32VW553/GD32VW55X_Wifi_BLE_SDK/GD32VW55x_RELEASE_V1.0.2/MSDK/plf/GD32VW55x_standard_peripheral/Source\gd32vw55x_timer.c ****         icpolarity = TIMER_IC_POLARITY_RISING;
1403:C:/Users/stapi/OneDrive/Desktop/GD32VW553/GD32VW55X_Wifi_BLE_SDK/GD32VW55x_RELEASE_V1.0.2/MSDK/plf/GD32VW55x_standard_peripheral/Source\gd32vw55x_timer.c ****     }
1404:C:/Users/stapi/OneDrive/Desktop/GD32VW553/GD32VW55X_Wifi_BLE_SDK/GD32VW55x_RELEASE_V1.0.2/MSDK/plf/GD32VW55x_standard_peripheral/Source\gd32vw55x_timer.c ****     /* Set channel input mode selection */
1405:C:/Users/stapi/OneDrive/Desktop/GD32VW553/GD32VW55X_Wifi_BLE_SDK/GD32VW55x_RELEASE_V1.0.2/MSDK/plf/GD32VW55x_standard_peripheral/Source\gd32vw55x_timer.c ****     if(TIMER_IC_SELECTION_DIRECTTI == icpwm->icselection){
 2504              		.loc 1 1405 44
 2505 000c 03572600 		lhu	a4,2(a2)
 2506              		.loc 1 1405 7
 2507 0010 8547     		li	a5,1
1402:C:/Users/stapi/OneDrive/Desktop/GD32VW553/GD32VW55X_Wifi_BLE_SDK/GD32VW55x_RELEASE_V1.0.2/MSDK/plf/GD32VW55x_standard_peripheral/Source\gd32vw55x_timer.c ****     }
 2508              		.loc 1 1402 20
 2509 0012 93B41600 		seqz	s1,a3
1394:C:/Users/stapi/OneDrive/Desktop/GD32VW553/GD32VW55X_Wifi_BLE_SDK/GD32VW55x_RELEASE_V1.0.2/MSDK/plf/GD32VW55x_standard_peripheral/Source\gd32vw55x_timer.c ****     uint16_t icpolarity  = 0x0U;
 2510              		.loc 1 1394 1
 2511 0016 4111     		addi	sp,sp,-16
 2512              		.cfi_def_cfa_offset 32
1394:C:/Users/stapi/OneDrive/Desktop/GD32VW553/GD32VW55X_Wifi_BLE_SDK/GD32VW55x_RELEASE_V1.0.2/MSDK/plf/GD32VW55x_standard_peripheral/Source\gd32vw55x_timer.c ****     uint16_t icpolarity  = 0x0U;
 2513              		.loc 1 1394 1
 2514 0018 3284     		mv	s0,a2
1402:C:/Users/stapi/OneDrive/Desktop/GD32VW553/GD32VW55X_Wifi_BLE_SDK/GD32VW55x_RELEASE_V1.0.2/MSDK/plf/GD32VW55x_standard_peripheral/Source\gd32vw55x_timer.c ****     }
 2515              		.loc 1 1402 20
 2516 001a 8604     		slli	s1,s1,1
 2517              	.LVL148:
 2518              		.loc 1 1405 5 is_stmt 1
1406:C:/Users/stapi/OneDrive/Desktop/GD32VW553/GD32VW55X_Wifi_BLE_SDK/GD32VW55x_RELEASE_V1.0.2/MSDK/plf/GD32VW55x_standard_peripheral/Source\gd32vw55x_timer.c ****         icselection = TIMER_IC_SELECTION_INDIRECTTI;
1407:C:/Users/stapi/OneDrive/Desktop/GD32VW553/GD32VW55X_Wifi_BLE_SDK/GD32VW55x_RELEASE_V1.0.2/MSDK/plf/GD32VW55x_standard_peripheral/Source\gd32vw55x_timer.c ****     }else{
1408:C:/Users/stapi/OneDrive/Desktop/GD32VW553/GD32VW55X_Wifi_BLE_SDK/GD32VW55x_RELEASE_V1.0.2/MSDK/plf/GD32VW55x_standard_peripheral/Source\gd32vw55x_timer.c ****         icselection = TIMER_IC_SELECTION_DIRECTTI;
 2519              		.loc 1 1408 21 is_stmt 0
 2520 001c 0549     		li	s2,1
1405:C:/Users/stapi/OneDrive/Desktop/GD32VW553/GD32VW55X_Wifi_BLE_SDK/GD32VW55x_RELEASE_V1.0.2/MSDK/plf/GD32VW55x_standard_peripheral/Source\gd32vw55x_timer.c ****         icselection = TIMER_IC_SELECTION_INDIRECTTI;
 2521              		.loc 1 1405 7
 2522 001e 6313F700 		bne	a4,a5,.L189
 2523 0022 0949     		li	s2,2
 2524              	.L189:
 2525              	.LVL149:
1409:C:/Users/stapi/OneDrive/Desktop/GD32VW553/GD32VW55X_Wifi_BLE_SDK/GD32VW55x_RELEASE_V1.0.2/MSDK/plf/GD32VW55x_standard_peripheral/Source\gd32vw55x_timer.c ****     }
1410:C:/Users/stapi/OneDrive/Desktop/GD32VW553/GD32VW55X_Wifi_BLE_SDK/GD32VW55x_RELEASE_V1.0.2/MSDK/plf/GD32VW55x_standard_peripheral/Source\gd32vw55x_timer.c **** 
1411:C:/Users/stapi/OneDrive/Desktop/GD32VW553/GD32VW55X_Wifi_BLE_SDK/GD32VW55x_RELEASE_V1.0.2/MSDK/plf/GD32VW55x_standard_peripheral/Source\gd32vw55x_timer.c ****     if(TIMER_CH_0 == channel){
 2526              		.loc 1 1411 5 is_stmt 1
1412:C:/Users/stapi/OneDrive/Desktop/GD32VW553/GD32VW55X_Wifi_BLE_SDK/GD32VW55x_RELEASE_V1.0.2/MSDK/plf/GD32VW55x_standard_peripheral/Source\gd32vw55x_timer.c ****         /* reset the CH0EN bit */
1413:C:/Users/stapi/OneDrive/Desktop/GD32VW553/GD32VW55X_Wifi_BLE_SDK/GD32VW55x_RELEASE_V1.0.2/MSDK/plf/GD32VW55x_standard_peripheral/Source\gd32vw55x_timer.c ****         TIMER_CHCTL2(timer_periph) &= (~(uint32_t)TIMER_CHCTL2_CH0EN);
1414:C:/Users/stapi/OneDrive/Desktop/GD32VW553/GD32VW55X_Wifi_BLE_SDK/GD32VW55x_RELEASE_V1.0.2/MSDK/plf/GD32VW55x_standard_peripheral/Source\gd32vw55x_timer.c ****         /* reset the CH0P and CH0NP bits */
1415:C:/Users/stapi/OneDrive/Desktop/GD32VW553/GD32VW55X_Wifi_BLE_SDK/GD32VW55x_RELEASE_V1.0.2/MSDK/plf/GD32VW55x_standard_peripheral/Source\gd32vw55x_timer.c ****         TIMER_CHCTL2(timer_periph) &= (~(uint32_t)(TIMER_CHCTL2_CH0P | TIMER_CHCTL2_CH0NP));
1416:C:/Users/stapi/OneDrive/Desktop/GD32VW553/GD32VW55X_Wifi_BLE_SDK/GD32VW55x_RELEASE_V1.0.2/MSDK/plf/GD32VW55x_standard_peripheral/Source\gd32vw55x_timer.c ****         /* set the CH0P and CH0NP bits */
1417:C:/Users/stapi/OneDrive/Desktop/GD32VW553/GD32VW55X_Wifi_BLE_SDK/GD32VW55x_RELEASE_V1.0.2/MSDK/plf/GD32VW55x_standard_peripheral/Source\gd32vw55x_timer.c ****         TIMER_CHCTL2(timer_periph) |= (uint32_t)(icpwm->icpolarity);
1418:C:/Users/stapi/OneDrive/Desktop/GD32VW553/GD32VW55X_Wifi_BLE_SDK/GD32VW55x_RELEASE_V1.0.2/MSDK/plf/GD32VW55x_standard_peripheral/Source\gd32vw55x_timer.c ****         /* reset the CH0MS bit */
1419:C:/Users/stapi/OneDrive/Desktop/GD32VW553/GD32VW55X_Wifi_BLE_SDK/GD32VW55x_RELEASE_V1.0.2/MSDK/plf/GD32VW55x_standard_peripheral/Source\gd32vw55x_timer.c ****         TIMER_CHCTL0(timer_periph) &= (~(uint32_t)TIMER_CHCTL0_CH0MS);
1420:C:/Users/stapi/OneDrive/Desktop/GD32VW553/GD32VW55X_Wifi_BLE_SDK/GD32VW55x_RELEASE_V1.0.2/MSDK/plf/GD32VW55x_standard_peripheral/Source\gd32vw55x_timer.c ****         /* set the CH0MS bit */
1421:C:/Users/stapi/OneDrive/Desktop/GD32VW553/GD32VW55X_Wifi_BLE_SDK/GD32VW55x_RELEASE_V1.0.2/MSDK/plf/GD32VW55x_standard_peripheral/Source\gd32vw55x_timer.c ****         TIMER_CHCTL0(timer_periph) |= (uint32_t)(icpwm->icselection);
1422:C:/Users/stapi/OneDrive/Desktop/GD32VW553/GD32VW55X_Wifi_BLE_SDK/GD32VW55x_RELEASE_V1.0.2/MSDK/plf/GD32VW55x_standard_peripheral/Source\gd32vw55x_timer.c ****         /* reset the CH0CAPFLT bit */
1423:C:/Users/stapi/OneDrive/Desktop/GD32VW553/GD32VW55X_Wifi_BLE_SDK/GD32VW55x_RELEASE_V1.0.2/MSDK/plf/GD32VW55x_standard_peripheral/Source\gd32vw55x_timer.c ****         TIMER_CHCTL0(timer_periph) &= (~(uint32_t)TIMER_CHCTL0_CH0CAPFLT);
1424:C:/Users/stapi/OneDrive/Desktop/GD32VW553/GD32VW55X_Wifi_BLE_SDK/GD32VW55x_RELEASE_V1.0.2/MSDK/plf/GD32VW55x_standard_peripheral/Source\gd32vw55x_timer.c ****         /* set the CH0CAPFLT bit */
1425:C:/Users/stapi/OneDrive/Desktop/GD32VW553/GD32VW55X_Wifi_BLE_SDK/GD32VW55x_RELEASE_V1.0.2/MSDK/plf/GD32VW55x_standard_peripheral/Source\gd32vw55x_timer.c ****         TIMER_CHCTL0(timer_periph) |= ((uint32_t)(icpwm->icfilter) << 4U);
 2527              		.loc 1 1425 40 is_stmt 0
 2528 0024 83576400 		lhu	a5,6(s0)
1426:C:/Users/stapi/OneDrive/Desktop/GD32VW553/GD32VW55X_Wifi_BLE_SDK/GD32VW55x_RELEASE_V1.0.2/MSDK/plf/GD32VW55x_standard_peripheral/Source\gd32vw55x_timer.c ****         /* set the CH0EN bit */
1427:C:/Users/stapi/OneDrive/Desktop/GD32VW553/GD32VW55X_Wifi_BLE_SDK/GD32VW55x_RELEASE_V1.0.2/MSDK/plf/GD32VW55x_standard_peripheral/Source\gd32vw55x_timer.c ****         TIMER_CHCTL2(timer_periph) |= (uint32_t)TIMER_CHCTL2_CH0EN;
1428:C:/Users/stapi/OneDrive/Desktop/GD32VW553/GD32VW55X_Wifi_BLE_SDK/GD32VW55x_RELEASE_V1.0.2/MSDK/plf/GD32VW55x_standard_peripheral/Source\gd32vw55x_timer.c ****         /* configure TIMER channel input capture prescaler value */
1429:C:/Users/stapi/OneDrive/Desktop/GD32VW553/GD32VW55X_Wifi_BLE_SDK/GD32VW55x_RELEASE_V1.0.2/MSDK/plf/GD32VW55x_standard_peripheral/Source\gd32vw55x_timer.c ****         timer_channel_input_capture_prescaler_config(timer_periph, TIMER_CH_0, (uint16_t)(icpwm->ic
 2529              		.loc 1 1429 96
 2530 0028 03564400 		lhu	a2,4(s0)
 2531              	.LVL150:
1411:C:/Users/stapi/OneDrive/Desktop/GD32VW553/GD32VW55X_Wifi_BLE_SDK/GD32VW55x_RELEASE_V1.0.2/MSDK/plf/GD32VW55x_standard_peripheral/Source\gd32vw55x_timer.c ****         /* reset the CH0EN bit */
 2532              		.loc 1 1411 7
 2533 002c DDE1     		bne	a1,zero,.L190
1413:C:/Users/stapi/OneDrive/Desktop/GD32VW553/GD32VW55X_Wifi_BLE_SDK/GD32VW55x_RELEASE_V1.0.2/MSDK/plf/GD32VW55x_standard_peripheral/Source\gd32vw55x_timer.c ****         /* reset the CH0P and CH0NP bits */
 2534              		.loc 1 1413 9 is_stmt 1
1413:C:/Users/stapi/OneDrive/Desktop/GD32VW553/GD32VW55X_Wifi_BLE_SDK/GD32VW55x_RELEASE_V1.0.2/MSDK/plf/GD32VW55x_standard_peripheral/Source\gd32vw55x_timer.c ****         /* reset the CH0P and CH0NP bits */
 2535              		.loc 1 1413 36 is_stmt 0
 2536 002e 0C51     		lw	a1,32(a0)
 2537              	.LVL151:
1425:C:/Users/stapi/OneDrive/Desktop/GD32VW553/GD32VW55X_Wifi_BLE_SDK/GD32VW55x_RELEASE_V1.0.2/MSDK/plf/GD32VW55x_standard_peripheral/Source\gd32vw55x_timer.c ****         /* set the CH0EN bit */
 2538              		.loc 1 1425 68
 2539 0030 9207     		slli	a5,a5,4
 2540              		.loc 1 1429 9
 2541 0032 2AC6     		sw	a0,12(sp)
1413:C:/Users/stapi/OneDrive/Desktop/GD32VW553/GD32VW55X_Wifi_BLE_SDK/GD32VW55x_RELEASE_V1.0.2/MSDK/plf/GD32VW55x_standard_peripheral/Source\gd32vw55x_timer.c ****         /* reset the CH0P and CH0NP bits */
 2542              		.loc 1 1413 36
 2543 0034 F999     		andi	a1,a1,-2
 2544 0036 0CD1     		sw	a1,32(a0)
1415:C:/Users/stapi/OneDrive/Desktop/GD32VW553/GD32VW55X_Wifi_BLE_SDK/GD32VW55x_RELEASE_V1.0.2/MSDK/plf/GD32VW55x_standard_peripheral/Source\gd32vw55x_timer.c ****         /* set the CH0P and CH0NP bits */
 2545              		.loc 1 1415 9 is_stmt 1
1415:C:/Users/stapi/OneDrive/Desktop/GD32VW553/GD32VW55X_Wifi_BLE_SDK/GD32VW55x_RELEASE_V1.0.2/MSDK/plf/GD32VW55x_standard_peripheral/Source\gd32vw55x_timer.c ****         /* set the CH0P and CH0NP bits */
 2546              		.loc 1 1415 36 is_stmt 0
 2547 0038 0C51     		lw	a1,32(a0)
1430:C:/Users/stapi/OneDrive/Desktop/GD32VW553/GD32VW55X_Wifi_BLE_SDK/GD32VW55x_RELEASE_V1.0.2/MSDK/plf/GD32VW55x_standard_peripheral/Source\gd32vw55x_timer.c **** 
1431:C:/Users/stapi/OneDrive/Desktop/GD32VW553/GD32VW55X_Wifi_BLE_SDK/GD32VW55x_RELEASE_V1.0.2/MSDK/plf/GD32VW55x_standard_peripheral/Source\gd32vw55x_timer.c ****         /* reset the CH1EN bit */
1432:C:/Users/stapi/OneDrive/Desktop/GD32VW553/GD32VW55X_Wifi_BLE_SDK/GD32VW55x_RELEASE_V1.0.2/MSDK/plf/GD32VW55x_standard_peripheral/Source\gd32vw55x_timer.c ****         TIMER_CHCTL2(timer_periph) &= (~(uint32_t)TIMER_CHCTL2_CH1EN);
1433:C:/Users/stapi/OneDrive/Desktop/GD32VW553/GD32VW55X_Wifi_BLE_SDK/GD32VW55x_RELEASE_V1.0.2/MSDK/plf/GD32VW55x_standard_peripheral/Source\gd32vw55x_timer.c ****         /* reset the CH1P and CH1NP bits */
1434:C:/Users/stapi/OneDrive/Desktop/GD32VW553/GD32VW55X_Wifi_BLE_SDK/GD32VW55x_RELEASE_V1.0.2/MSDK/plf/GD32VW55x_standard_peripheral/Source\gd32vw55x_timer.c ****         TIMER_CHCTL2(timer_periph) &= (~(uint32_t)(TIMER_CHCTL2_CH1P | TIMER_CHCTL2_CH1NP));
1435:C:/Users/stapi/OneDrive/Desktop/GD32VW553/GD32VW55X_Wifi_BLE_SDK/GD32VW55x_RELEASE_V1.0.2/MSDK/plf/GD32VW55x_standard_peripheral/Source\gd32vw55x_timer.c ****         /* set the CH1P and CH1NP bits */
1436:C:/Users/stapi/OneDrive/Desktop/GD32VW553/GD32VW55X_Wifi_BLE_SDK/GD32VW55x_RELEASE_V1.0.2/MSDK/plf/GD32VW55x_standard_peripheral/Source\gd32vw55x_timer.c ****         TIMER_CHCTL2(timer_periph) |= (uint32_t)((uint32_t)icpolarity<< 4U);
 2548              		.loc 1 1436 39
 2549 003a 9204     		slli	s1,s1,4
 2550              	.LVL152:
1437:C:/Users/stapi/OneDrive/Desktop/GD32VW553/GD32VW55X_Wifi_BLE_SDK/GD32VW55x_RELEASE_V1.0.2/MSDK/plf/GD32VW55x_standard_peripheral/Source\gd32vw55x_timer.c ****         /* reset the CH1MS bit */
1438:C:/Users/stapi/OneDrive/Desktop/GD32VW553/GD32VW55X_Wifi_BLE_SDK/GD32VW55x_RELEASE_V1.0.2/MSDK/plf/GD32VW55x_standard_peripheral/Source\gd32vw55x_timer.c ****         TIMER_CHCTL0(timer_periph) &= (~(uint32_t)TIMER_CHCTL0_CH1MS);
1439:C:/Users/stapi/OneDrive/Desktop/GD32VW553/GD32VW55X_Wifi_BLE_SDK/GD32VW55x_RELEASE_V1.0.2/MSDK/plf/GD32VW55x_standard_peripheral/Source\gd32vw55x_timer.c ****         /* set the CH1MS bit */
1440:C:/Users/stapi/OneDrive/Desktop/GD32VW553/GD32VW55X_Wifi_BLE_SDK/GD32VW55x_RELEASE_V1.0.2/MSDK/plf/GD32VW55x_standard_peripheral/Source\gd32vw55x_timer.c ****         TIMER_CHCTL0(timer_periph) |= (uint32_t)((uint32_t)icselection << 8U);
 2551              		.loc 1 1440 39
 2552 003c 2209     		slli	s2,s2,8
 2553              	.LVL153:
1415:C:/Users/stapi/OneDrive/Desktop/GD32VW553/GD32VW55X_Wifi_BLE_SDK/GD32VW55x_RELEASE_V1.0.2/MSDK/plf/GD32VW55x_standard_peripheral/Source\gd32vw55x_timer.c ****         /* set the CH0P and CH0NP bits */
 2554              		.loc 1 1415 36
 2555 003e D599     		andi	a1,a1,-11
 2556 0040 0CD1     		sw	a1,32(a0)
1417:C:/Users/stapi/OneDrive/Desktop/GD32VW553/GD32VW55X_Wifi_BLE_SDK/GD32VW55x_RELEASE_V1.0.2/MSDK/plf/GD32VW55x_standard_peripheral/Source\gd32vw55x_timer.c ****         /* reset the CH0MS bit */
 2557              		.loc 1 1417 9 is_stmt 1
1417:C:/Users/stapi/OneDrive/Desktop/GD32VW553/GD32VW55X_Wifi_BLE_SDK/GD32VW55x_RELEASE_V1.0.2/MSDK/plf/GD32VW55x_standard_peripheral/Source\gd32vw55x_timer.c ****         /* reset the CH0MS bit */
 2558              		.loc 1 1417 36 is_stmt 0
 2559 0042 0C51     		lw	a1,32(a0)
 2560 0044 CD8E     		or	a3,a1,a3
 2561              	.LVL154:
 2562 0046 14D1     		sw	a3,32(a0)
1419:C:/Users/stapi/OneDrive/Desktop/GD32VW553/GD32VW55X_Wifi_BLE_SDK/GD32VW55x_RELEASE_V1.0.2/MSDK/plf/GD32VW55x_standard_peripheral/Source\gd32vw55x_timer.c ****         /* set the CH0MS bit */
 2563              		.loc 1 1419 9 is_stmt 1
1419:C:/Users/stapi/OneDrive/Desktop/GD32VW553/GD32VW55X_Wifi_BLE_SDK/GD32VW55x_RELEASE_V1.0.2/MSDK/plf/GD32VW55x_standard_peripheral/Source\gd32vw55x_timer.c ****         /* set the CH0MS bit */
 2564              		.loc 1 1419 36 is_stmt 0
 2565 0048 144D     		lw	a3,24(a0)
1429:C:/Users/stapi/OneDrive/Desktop/GD32VW553/GD32VW55X_Wifi_BLE_SDK/GD32VW55x_RELEASE_V1.0.2/MSDK/plf/GD32VW55x_standard_peripheral/Source\gd32vw55x_timer.c **** 
 2566              		.loc 1 1429 9
 2567 004a 8145     		li	a1,0
1419:C:/Users/stapi/OneDrive/Desktop/GD32VW553/GD32VW55X_Wifi_BLE_SDK/GD32VW55x_RELEASE_V1.0.2/MSDK/plf/GD32VW55x_standard_peripheral/Source\gd32vw55x_timer.c ****         /* set the CH0MS bit */
 2568              		.loc 1 1419 36
 2569 004c F19A     		andi	a3,a3,-4
 2570 004e 14CD     		sw	a3,24(a0)
1421:C:/Users/stapi/OneDrive/Desktop/GD32VW553/GD32VW55X_Wifi_BLE_SDK/GD32VW55x_RELEASE_V1.0.2/MSDK/plf/GD32VW55x_standard_peripheral/Source\gd32vw55x_timer.c ****         /* reset the CH0CAPFLT bit */
 2571              		.loc 1 1421 9 is_stmt 1
1421:C:/Users/stapi/OneDrive/Desktop/GD32VW553/GD32VW55X_Wifi_BLE_SDK/GD32VW55x_RELEASE_V1.0.2/MSDK/plf/GD32VW55x_standard_peripheral/Source\gd32vw55x_timer.c ****         /* reset the CH0CAPFLT bit */
 2572              		.loc 1 1421 36 is_stmt 0
 2573 0050 144D     		lw	a3,24(a0)
 2574 0052 558F     		or	a4,a3,a4
 2575 0054 18CD     		sw	a4,24(a0)
1423:C:/Users/stapi/OneDrive/Desktop/GD32VW553/GD32VW55X_Wifi_BLE_SDK/GD32VW55x_RELEASE_V1.0.2/MSDK/plf/GD32VW55x_standard_peripheral/Source\gd32vw55x_timer.c ****         /* set the CH0CAPFLT bit */
 2576              		.loc 1 1423 9 is_stmt 1
1423:C:/Users/stapi/OneDrive/Desktop/GD32VW553/GD32VW55X_Wifi_BLE_SDK/GD32VW55x_RELEASE_V1.0.2/MSDK/plf/GD32VW55x_standard_peripheral/Source\gd32vw55x_timer.c ****         /* set the CH0CAPFLT bit */
 2577              		.loc 1 1423 36 is_stmt 0
 2578 0056 184D     		lw	a4,24(a0)
 2579 0058 1377F7F0 		andi	a4,a4,-241
 2580 005c 18CD     		sw	a4,24(a0)
1425:C:/Users/stapi/OneDrive/Desktop/GD32VW553/GD32VW55X_Wifi_BLE_SDK/GD32VW55x_RELEASE_V1.0.2/MSDK/plf/GD32VW55x_standard_peripheral/Source\gd32vw55x_timer.c ****         /* set the CH0EN bit */
 2581              		.loc 1 1425 9 is_stmt 1
1425:C:/Users/stapi/OneDrive/Desktop/GD32VW553/GD32VW55X_Wifi_BLE_SDK/GD32VW55x_RELEASE_V1.0.2/MSDK/plf/GD32VW55x_standard_peripheral/Source\gd32vw55x_timer.c ****         /* set the CH0EN bit */
 2582              		.loc 1 1425 36 is_stmt 0
 2583 005e 184D     		lw	a4,24(a0)
 2584 0060 D98F     		or	a5,a5,a4
 2585 0062 1CCD     		sw	a5,24(a0)
1427:C:/Users/stapi/OneDrive/Desktop/GD32VW553/GD32VW55X_Wifi_BLE_SDK/GD32VW55x_RELEASE_V1.0.2/MSDK/plf/GD32VW55x_standard_peripheral/Source\gd32vw55x_timer.c ****         /* configure TIMER channel input capture prescaler value */
 2586              		.loc 1 1427 9 is_stmt 1
1427:C:/Users/stapi/OneDrive/Desktop/GD32VW553/GD32VW55X_Wifi_BLE_SDK/GD32VW55x_RELEASE_V1.0.2/MSDK/plf/GD32VW55x_standard_peripheral/Source\gd32vw55x_timer.c ****         /* configure TIMER channel input capture prescaler value */
 2587              		.loc 1 1427 36 is_stmt 0
 2588 0064 1C51     		lw	a5,32(a0)
 2589 0066 93E71700 		ori	a5,a5,1
 2590 006a 1CD1     		sw	a5,32(a0)
1429:C:/Users/stapi/OneDrive/Desktop/GD32VW553/GD32VW55X_Wifi_BLE_SDK/GD32VW55x_RELEASE_V1.0.2/MSDK/plf/GD32VW55x_standard_peripheral/Source\gd32vw55x_timer.c **** 
 2591              		.loc 1 1429 9 is_stmt 1
 2592 006c 97000000 		call	timer_channel_input_capture_prescaler_config
 2592      E7800000 
 2593              	.LVL155:
1432:C:/Users/stapi/OneDrive/Desktop/GD32VW553/GD32VW55X_Wifi_BLE_SDK/GD32VW55x_RELEASE_V1.0.2/MSDK/plf/GD32VW55x_standard_peripheral/Source\gd32vw55x_timer.c ****         /* reset the CH1P and CH1NP bits */
 2594              		.loc 1 1432 9
1432:C:/Users/stapi/OneDrive/Desktop/GD32VW553/GD32VW55X_Wifi_BLE_SDK/GD32VW55x_RELEASE_V1.0.2/MSDK/plf/GD32VW55x_standard_peripheral/Source\gd32vw55x_timer.c ****         /* reset the CH1P and CH1NP bits */
 2595              		.loc 1 1432 36 is_stmt 0
 2596 0074 3245     		lw	a0,12(sp)
1441:C:/Users/stapi/OneDrive/Desktop/GD32VW553/GD32VW55X_Wifi_BLE_SDK/GD32VW55x_RELEASE_V1.0.2/MSDK/plf/GD32VW55x_standard_peripheral/Source\gd32vw55x_timer.c ****         /* reset the CH1CAPFLT bit */
1442:C:/Users/stapi/OneDrive/Desktop/GD32VW553/GD32VW55X_Wifi_BLE_SDK/GD32VW55x_RELEASE_V1.0.2/MSDK/plf/GD32VW55x_standard_peripheral/Source\gd32vw55x_timer.c ****         TIMER_CHCTL0(timer_periph) &= (~(uint32_t)TIMER_CHCTL0_CH1CAPFLT);
 2597              		.loc 1 1442 36
 2598 0076 4577     		li	a4,-61440
 2599 0078 7D17     		addi	a4,a4,-1
1432:C:/Users/stapi/OneDrive/Desktop/GD32VW553/GD32VW55X_Wifi_BLE_SDK/GD32VW55x_RELEASE_V1.0.2/MSDK/plf/GD32VW55x_standard_peripheral/Source\gd32vw55x_timer.c ****         /* reset the CH1P and CH1NP bits */
 2600              		.loc 1 1432 36
 2601 007a 1C51     		lw	a5,32(a0)
1443:C:/Users/stapi/OneDrive/Desktop/GD32VW553/GD32VW55X_Wifi_BLE_SDK/GD32VW55x_RELEASE_V1.0.2/MSDK/plf/GD32VW55x_standard_peripheral/Source\gd32vw55x_timer.c ****         /* set the CH1CAPFLT bit */
1444:C:/Users/stapi/OneDrive/Desktop/GD32VW553/GD32VW55X_Wifi_BLE_SDK/GD32VW55x_RELEASE_V1.0.2/MSDK/plf/GD32VW55x_standard_peripheral/Source\gd32vw55x_timer.c ****         TIMER_CHCTL0(timer_periph) |= (uint32_t)((uint32_t)(icpwm->icfilter) << 12U);
1445:C:/Users/stapi/OneDrive/Desktop/GD32VW553/GD32VW55X_Wifi_BLE_SDK/GD32VW55x_RELEASE_V1.0.2/MSDK/plf/GD32VW55x_standard_peripheral/Source\gd32vw55x_timer.c ****         /* set the CH1EN bit */
1446:C:/Users/stapi/OneDrive/Desktop/GD32VW553/GD32VW55X_Wifi_BLE_SDK/GD32VW55x_RELEASE_V1.0.2/MSDK/plf/GD32VW55x_standard_peripheral/Source\gd32vw55x_timer.c ****         TIMER_CHCTL2(timer_periph) |= (uint32_t)TIMER_CHCTL2_CH1EN;
1447:C:/Users/stapi/OneDrive/Desktop/GD32VW553/GD32VW55X_Wifi_BLE_SDK/GD32VW55x_RELEASE_V1.0.2/MSDK/plf/GD32VW55x_standard_peripheral/Source\gd32vw55x_timer.c ****         /* configure TIMER channel input capture prescaler value */
1448:C:/Users/stapi/OneDrive/Desktop/GD32VW553/GD32VW55X_Wifi_BLE_SDK/GD32VW55x_RELEASE_V1.0.2/MSDK/plf/GD32VW55x_standard_peripheral/Source\gd32vw55x_timer.c ****         timer_channel_input_capture_prescaler_config(timer_periph, TIMER_CH_1, (uint16_t)(icpwm->ic
 2602              		.loc 1 1448 9
 2603 007c 03564400 		lhu	a2,4(s0)
 2604 0080 8545     		li	a1,1
1432:C:/Users/stapi/OneDrive/Desktop/GD32VW553/GD32VW55X_Wifi_BLE_SDK/GD32VW55x_RELEASE_V1.0.2/MSDK/plf/GD32VW55x_standard_peripheral/Source\gd32vw55x_timer.c ****         /* reset the CH1P and CH1NP bits */
 2605              		.loc 1 1432 36
 2606 0082 BD9B     		andi	a5,a5,-17
 2607 0084 1CD1     		sw	a5,32(a0)
1434:C:/Users/stapi/OneDrive/Desktop/GD32VW553/GD32VW55X_Wifi_BLE_SDK/GD32VW55x_RELEASE_V1.0.2/MSDK/plf/GD32VW55x_standard_peripheral/Source\gd32vw55x_timer.c ****         /* set the CH1P and CH1NP bits */
 2608              		.loc 1 1434 9 is_stmt 1
1434:C:/Users/stapi/OneDrive/Desktop/GD32VW553/GD32VW55X_Wifi_BLE_SDK/GD32VW55x_RELEASE_V1.0.2/MSDK/plf/GD32VW55x_standard_peripheral/Source\gd32vw55x_timer.c ****         /* set the CH1P and CH1NP bits */
 2609              		.loc 1 1434 36 is_stmt 0
 2610 0086 1C51     		lw	a5,32(a0)
 2611 0088 93F7F7F5 		andi	a5,a5,-161
 2612 008c 1CD1     		sw	a5,32(a0)
1436:C:/Users/stapi/OneDrive/Desktop/GD32VW553/GD32VW55X_Wifi_BLE_SDK/GD32VW55x_RELEASE_V1.0.2/MSDK/plf/GD32VW55x_standard_peripheral/Source\gd32vw55x_timer.c ****         /* reset the CH1MS bit */
 2613              		.loc 1 1436 9 is_stmt 1
1436:C:/Users/stapi/OneDrive/Desktop/GD32VW553/GD32VW55X_Wifi_BLE_SDK/GD32VW55x_RELEASE_V1.0.2/MSDK/plf/GD32VW55x_standard_peripheral/Source\gd32vw55x_timer.c ****         /* reset the CH1MS bit */
 2614              		.loc 1 1436 36 is_stmt 0
 2615 008e 1C51     		lw	a5,32(a0)
 2616 0090 DD8C     		or	s1,s1,a5
 2617 0092 04D1     		sw	s1,32(a0)
1438:C:/Users/stapi/OneDrive/Desktop/GD32VW553/GD32VW55X_Wifi_BLE_SDK/GD32VW55x_RELEASE_V1.0.2/MSDK/plf/GD32VW55x_standard_peripheral/Source\gd32vw55x_timer.c ****         /* set the CH1MS bit */
 2618              		.loc 1 1438 9 is_stmt 1
1438:C:/Users/stapi/OneDrive/Desktop/GD32VW553/GD32VW55X_Wifi_BLE_SDK/GD32VW55x_RELEASE_V1.0.2/MSDK/plf/GD32VW55x_standard_peripheral/Source\gd32vw55x_timer.c ****         /* set the CH1MS bit */
 2619              		.loc 1 1438 36 is_stmt 0
 2620 0094 1C4D     		lw	a5,24(a0)
 2621 0096 93F7F7CF 		andi	a5,a5,-769
 2622 009a 1CCD     		sw	a5,24(a0)
1440:C:/Users/stapi/OneDrive/Desktop/GD32VW553/GD32VW55X_Wifi_BLE_SDK/GD32VW55x_RELEASE_V1.0.2/MSDK/plf/GD32VW55x_standard_peripheral/Source\gd32vw55x_timer.c ****         /* reset the CH1CAPFLT bit */
 2623              		.loc 1 1440 9 is_stmt 1
1440:C:/Users/stapi/OneDrive/Desktop/GD32VW553/GD32VW55X_Wifi_BLE_SDK/GD32VW55x_RELEASE_V1.0.2/MSDK/plf/GD32VW55x_standard_peripheral/Source\gd32vw55x_timer.c ****         /* reset the CH1CAPFLT bit */
 2624              		.loc 1 1440 36 is_stmt 0
 2625 009c 1C4D     		lw	a5,24(a0)
 2626 009e 3369F900 		or	s2,s2,a5
 2627 00a2 232C2501 		sw	s2,24(a0)
1442:C:/Users/stapi/OneDrive/Desktop/GD32VW553/GD32VW55X_Wifi_BLE_SDK/GD32VW55x_RELEASE_V1.0.2/MSDK/plf/GD32VW55x_standard_peripheral/Source\gd32vw55x_timer.c ****         /* set the CH1CAPFLT bit */
 2628              		.loc 1 1442 9 is_stmt 1
1442:C:/Users/stapi/OneDrive/Desktop/GD32VW553/GD32VW55X_Wifi_BLE_SDK/GD32VW55x_RELEASE_V1.0.2/MSDK/plf/GD32VW55x_standard_peripheral/Source\gd32vw55x_timer.c ****         /* set the CH1CAPFLT bit */
 2629              		.loc 1 1442 36 is_stmt 0
 2630 00a6 1C4D     		lw	a5,24(a0)
 2631 00a8 F98F     		and	a5,a5,a4
 2632 00aa 1CCD     		sw	a5,24(a0)
1444:C:/Users/stapi/OneDrive/Desktop/GD32VW553/GD32VW55X_Wifi_BLE_SDK/GD32VW55x_RELEASE_V1.0.2/MSDK/plf/GD32VW55x_standard_peripheral/Source\gd32vw55x_timer.c ****         /* set the CH1EN bit */
 2633              		.loc 1 1444 9 is_stmt 1
1444:C:/Users/stapi/OneDrive/Desktop/GD32VW553/GD32VW55X_Wifi_BLE_SDK/GD32VW55x_RELEASE_V1.0.2/MSDK/plf/GD32VW55x_standard_peripheral/Source\gd32vw55x_timer.c ****         /* set the CH1EN bit */
 2634              		.loc 1 1444 50 is_stmt 0
 2635 00ac 83576400 		lhu	a5,6(s0)
1444:C:/Users/stapi/OneDrive/Desktop/GD32VW553/GD32VW55X_Wifi_BLE_SDK/GD32VW55x_RELEASE_V1.0.2/MSDK/plf/GD32VW55x_standard_peripheral/Source\gd32vw55x_timer.c ****         /* set the CH1EN bit */
 2636              		.loc 1 1444 36
 2637 00b0 184D     		lw	a4,24(a0)
1444:C:/Users/stapi/OneDrive/Desktop/GD32VW553/GD32VW55X_Wifi_BLE_SDK/GD32VW55x_RELEASE_V1.0.2/MSDK/plf/GD32VW55x_standard_peripheral/Source\gd32vw55x_timer.c ****         /* set the CH1EN bit */
 2638              		.loc 1 1444 39
 2639 00b2 B207     		slli	a5,a5,12
1444:C:/Users/stapi/OneDrive/Desktop/GD32VW553/GD32VW55X_Wifi_BLE_SDK/GD32VW55x_RELEASE_V1.0.2/MSDK/plf/GD32VW55x_standard_peripheral/Source\gd32vw55x_timer.c ****         /* set the CH1EN bit */
 2640              		.loc 1 1444 36
 2641 00b4 D98F     		or	a5,a5,a4
 2642 00b6 1CCD     		sw	a5,24(a0)
1446:C:/Users/stapi/OneDrive/Desktop/GD32VW553/GD32VW55X_Wifi_BLE_SDK/GD32VW55x_RELEASE_V1.0.2/MSDK/plf/GD32VW55x_standard_peripheral/Source\gd32vw55x_timer.c ****         /* configure TIMER channel input capture prescaler value */
 2643              		.loc 1 1446 9 is_stmt 1
1446:C:/Users/stapi/OneDrive/Desktop/GD32VW553/GD32VW55X_Wifi_BLE_SDK/GD32VW55x_RELEASE_V1.0.2/MSDK/plf/GD32VW55x_standard_peripheral/Source\gd32vw55x_timer.c ****         /* configure TIMER channel input capture prescaler value */
 2644              		.loc 1 1446 36 is_stmt 0
 2645 00b8 1C51     		lw	a5,32(a0)
 2646 00ba 93E70701 		ori	a5,a5,16
 2647 00be 1CD1     		sw	a5,32(a0)
 2648              		.loc 1 1448 9 is_stmt 1
 2649              	.L196:
1449:C:/Users/stapi/OneDrive/Desktop/GD32VW553/GD32VW55X_Wifi_BLE_SDK/GD32VW55x_RELEASE_V1.0.2/MSDK/plf/GD32VW55x_standard_peripheral/Source\gd32vw55x_timer.c ****     }else{
1450:C:/Users/stapi/OneDrive/Desktop/GD32VW553/GD32VW55X_Wifi_BLE_SDK/GD32VW55x_RELEASE_V1.0.2/MSDK/plf/GD32VW55x_standard_peripheral/Source\gd32vw55x_timer.c ****         /* reset the CH1EN bit */
1451:C:/Users/stapi/OneDrive/Desktop/GD32VW553/GD32VW55X_Wifi_BLE_SDK/GD32VW55x_RELEASE_V1.0.2/MSDK/plf/GD32VW55x_standard_peripheral/Source\gd32vw55x_timer.c ****         TIMER_CHCTL2(timer_periph) &= (~(uint32_t)TIMER_CHCTL2_CH1EN);
1452:C:/Users/stapi/OneDrive/Desktop/GD32VW553/GD32VW55X_Wifi_BLE_SDK/GD32VW55x_RELEASE_V1.0.2/MSDK/plf/GD32VW55x_standard_peripheral/Source\gd32vw55x_timer.c ****         /* reset the CH1P and CH1NP bits */
1453:C:/Users/stapi/OneDrive/Desktop/GD32VW553/GD32VW55X_Wifi_BLE_SDK/GD32VW55x_RELEASE_V1.0.2/MSDK/plf/GD32VW55x_standard_peripheral/Source\gd32vw55x_timer.c ****         TIMER_CHCTL2(timer_periph) &= (~(uint32_t)(TIMER_CHCTL2_CH1P | TIMER_CHCTL2_CH1NP));
1454:C:/Users/stapi/OneDrive/Desktop/GD32VW553/GD32VW55X_Wifi_BLE_SDK/GD32VW55x_RELEASE_V1.0.2/MSDK/plf/GD32VW55x_standard_peripheral/Source\gd32vw55x_timer.c ****         /* set the CH1P and CH1NP bits */
1455:C:/Users/stapi/OneDrive/Desktop/GD32VW553/GD32VW55X_Wifi_BLE_SDK/GD32VW55x_RELEASE_V1.0.2/MSDK/plf/GD32VW55x_standard_peripheral/Source\gd32vw55x_timer.c ****         TIMER_CHCTL2(timer_periph) |= (uint32_t)((uint32_t)(icpwm->icpolarity) << 4U);
1456:C:/Users/stapi/OneDrive/Desktop/GD32VW553/GD32VW55X_Wifi_BLE_SDK/GD32VW55x_RELEASE_V1.0.2/MSDK/plf/GD32VW55x_standard_peripheral/Source\gd32vw55x_timer.c ****         /* reset the CH1MS bit */
1457:C:/Users/stapi/OneDrive/Desktop/GD32VW553/GD32VW55X_Wifi_BLE_SDK/GD32VW55x_RELEASE_V1.0.2/MSDK/plf/GD32VW55x_standard_peripheral/Source\gd32vw55x_timer.c ****         TIMER_CHCTL0(timer_periph) &= (~(uint32_t)TIMER_CHCTL0_CH1MS);
1458:C:/Users/stapi/OneDrive/Desktop/GD32VW553/GD32VW55X_Wifi_BLE_SDK/GD32VW55x_RELEASE_V1.0.2/MSDK/plf/GD32VW55x_standard_peripheral/Source\gd32vw55x_timer.c ****         /* set the CH1MS bit */
1459:C:/Users/stapi/OneDrive/Desktop/GD32VW553/GD32VW55X_Wifi_BLE_SDK/GD32VW55x_RELEASE_V1.0.2/MSDK/plf/GD32VW55x_standard_peripheral/Source\gd32vw55x_timer.c ****         TIMER_CHCTL0(timer_periph) |= (uint32_t)((uint32_t)(icpwm->icselection) << 8U);
1460:C:/Users/stapi/OneDrive/Desktop/GD32VW553/GD32VW55X_Wifi_BLE_SDK/GD32VW55x_RELEASE_V1.0.2/MSDK/plf/GD32VW55x_standard_peripheral/Source\gd32vw55x_timer.c ****         /* reset the CH1CAPFLT bit */
1461:C:/Users/stapi/OneDrive/Desktop/GD32VW553/GD32VW55X_Wifi_BLE_SDK/GD32VW55x_RELEASE_V1.0.2/MSDK/plf/GD32VW55x_standard_peripheral/Source\gd32vw55x_timer.c ****         TIMER_CHCTL0(timer_periph) &= (~(uint32_t)TIMER_CHCTL0_CH1CAPFLT);
1462:C:/Users/stapi/OneDrive/Desktop/GD32VW553/GD32VW55X_Wifi_BLE_SDK/GD32VW55x_RELEASE_V1.0.2/MSDK/plf/GD32VW55x_standard_peripheral/Source\gd32vw55x_timer.c ****         /* set the CH1CAPFLT bit */
1463:C:/Users/stapi/OneDrive/Desktop/GD32VW553/GD32VW55X_Wifi_BLE_SDK/GD32VW55x_RELEASE_V1.0.2/MSDK/plf/GD32VW55x_standard_peripheral/Source\gd32vw55x_timer.c ****         TIMER_CHCTL0(timer_periph) |= (uint32_t)((uint32_t)(icpwm->icfilter) << 12U);
1464:C:/Users/stapi/OneDrive/Desktop/GD32VW553/GD32VW55X_Wifi_BLE_SDK/GD32VW55x_RELEASE_V1.0.2/MSDK/plf/GD32VW55x_standard_peripheral/Source\gd32vw55x_timer.c ****         /* set the CH1EN bit */
1465:C:/Users/stapi/OneDrive/Desktop/GD32VW553/GD32VW55X_Wifi_BLE_SDK/GD32VW55x_RELEASE_V1.0.2/MSDK/plf/GD32VW55x_standard_peripheral/Source\gd32vw55x_timer.c ****         TIMER_CHCTL2(timer_periph) |= (uint32_t)TIMER_CHCTL2_CH1EN;
1466:C:/Users/stapi/OneDrive/Desktop/GD32VW553/GD32VW55X_Wifi_BLE_SDK/GD32VW55x_RELEASE_V1.0.2/MSDK/plf/GD32VW55x_standard_peripheral/Source\gd32vw55x_timer.c ****         /* configure TIMER channel input capture prescaler value */
1467:C:/Users/stapi/OneDrive/Desktop/GD32VW553/GD32VW55X_Wifi_BLE_SDK/GD32VW55x_RELEASE_V1.0.2/MSDK/plf/GD32VW55x_standard_peripheral/Source\gd32vw55x_timer.c ****         timer_channel_input_capture_prescaler_config(timer_periph, TIMER_CH_1, (uint16_t)(icpwm->ic
1468:C:/Users/stapi/OneDrive/Desktop/GD32VW553/GD32VW55X_Wifi_BLE_SDK/GD32VW55x_RELEASE_V1.0.2/MSDK/plf/GD32VW55x_standard_peripheral/Source\gd32vw55x_timer.c **** 
1469:C:/Users/stapi/OneDrive/Desktop/GD32VW553/GD32VW55X_Wifi_BLE_SDK/GD32VW55x_RELEASE_V1.0.2/MSDK/plf/GD32VW55x_standard_peripheral/Source\gd32vw55x_timer.c ****         /* reset the CH0EN bit */
1470:C:/Users/stapi/OneDrive/Desktop/GD32VW553/GD32VW55X_Wifi_BLE_SDK/GD32VW55x_RELEASE_V1.0.2/MSDK/plf/GD32VW55x_standard_peripheral/Source\gd32vw55x_timer.c ****         TIMER_CHCTL2(timer_periph) &= (~(uint32_t)TIMER_CHCTL2_CH0EN);
1471:C:/Users/stapi/OneDrive/Desktop/GD32VW553/GD32VW55X_Wifi_BLE_SDK/GD32VW55x_RELEASE_V1.0.2/MSDK/plf/GD32VW55x_standard_peripheral/Source\gd32vw55x_timer.c ****         /* reset the CH0P and CH0NP bits */
1472:C:/Users/stapi/OneDrive/Desktop/GD32VW553/GD32VW55X_Wifi_BLE_SDK/GD32VW55x_RELEASE_V1.0.2/MSDK/plf/GD32VW55x_standard_peripheral/Source\gd32vw55x_timer.c ****         TIMER_CHCTL2(timer_periph) &= (~(uint32_t)(TIMER_CHCTL2_CH0P | TIMER_CHCTL2_CH0NP));
1473:C:/Users/stapi/OneDrive/Desktop/GD32VW553/GD32VW55X_Wifi_BLE_SDK/GD32VW55x_RELEASE_V1.0.2/MSDK/plf/GD32VW55x_standard_peripheral/Source\gd32vw55x_timer.c ****         /* set the CH0P and CH0NP bits */
1474:C:/Users/stapi/OneDrive/Desktop/GD32VW553/GD32VW55X_Wifi_BLE_SDK/GD32VW55x_RELEASE_V1.0.2/MSDK/plf/GD32VW55x_standard_peripheral/Source\gd32vw55x_timer.c ****         TIMER_CHCTL2(timer_periph) |= (uint32_t)icpolarity;
1475:C:/Users/stapi/OneDrive/Desktop/GD32VW553/GD32VW55X_Wifi_BLE_SDK/GD32VW55x_RELEASE_V1.0.2/MSDK/plf/GD32VW55x_standard_peripheral/Source\gd32vw55x_timer.c ****         /* reset the CH0MS bit */
1476:C:/Users/stapi/OneDrive/Desktop/GD32VW553/GD32VW55X_Wifi_BLE_SDK/GD32VW55x_RELEASE_V1.0.2/MSDK/plf/GD32VW55x_standard_peripheral/Source\gd32vw55x_timer.c ****         TIMER_CHCTL0(timer_periph) &= (~(uint32_t)TIMER_CHCTL0_CH0MS);
1477:C:/Users/stapi/OneDrive/Desktop/GD32VW553/GD32VW55X_Wifi_BLE_SDK/GD32VW55x_RELEASE_V1.0.2/MSDK/plf/GD32VW55x_standard_peripheral/Source\gd32vw55x_timer.c ****         /* set the CH0MS bit */
1478:C:/Users/stapi/OneDrive/Desktop/GD32VW553/GD32VW55X_Wifi_BLE_SDK/GD32VW55x_RELEASE_V1.0.2/MSDK/plf/GD32VW55x_standard_peripheral/Source\gd32vw55x_timer.c ****         TIMER_CHCTL0(timer_periph) |= (uint32_t)icselection;
1479:C:/Users/stapi/OneDrive/Desktop/GD32VW553/GD32VW55X_Wifi_BLE_SDK/GD32VW55x_RELEASE_V1.0.2/MSDK/plf/GD32VW55x_standard_peripheral/Source\gd32vw55x_timer.c ****         /* reset the CH0CAPFLT bit */
1480:C:/Users/stapi/OneDrive/Desktop/GD32VW553/GD32VW55X_Wifi_BLE_SDK/GD32VW55x_RELEASE_V1.0.2/MSDK/plf/GD32VW55x_standard_peripheral/Source\gd32vw55x_timer.c ****         TIMER_CHCTL0(timer_periph) &= (~(uint32_t)TIMER_CHCTL0_CH0CAPFLT);
1481:C:/Users/stapi/OneDrive/Desktop/GD32VW553/GD32VW55X_Wifi_BLE_SDK/GD32VW55x_RELEASE_V1.0.2/MSDK/plf/GD32VW55x_standard_peripheral/Source\gd32vw55x_timer.c ****         /* set the CH0CAPFLT bit */
1482:C:/Users/stapi/OneDrive/Desktop/GD32VW553/GD32VW55X_Wifi_BLE_SDK/GD32VW55x_RELEASE_V1.0.2/MSDK/plf/GD32VW55x_standard_peripheral/Source\gd32vw55x_timer.c ****         TIMER_CHCTL0(timer_periph) |= ((uint32_t)(icpwm->icfilter) << 4U);
1483:C:/Users/stapi/OneDrive/Desktop/GD32VW553/GD32VW55X_Wifi_BLE_SDK/GD32VW55x_RELEASE_V1.0.2/MSDK/plf/GD32VW55x_standard_peripheral/Source\gd32vw55x_timer.c ****         /* set the CH0EN bit */
1484:C:/Users/stapi/OneDrive/Desktop/GD32VW553/GD32VW55X_Wifi_BLE_SDK/GD32VW55x_RELEASE_V1.0.2/MSDK/plf/GD32VW55x_standard_peripheral/Source\gd32vw55x_timer.c ****         TIMER_CHCTL2(timer_periph) |= (uint32_t)TIMER_CHCTL2_CH0EN;
1485:C:/Users/stapi/OneDrive/Desktop/GD32VW553/GD32VW55X_Wifi_BLE_SDK/GD32VW55x_RELEASE_V1.0.2/MSDK/plf/GD32VW55x_standard_peripheral/Source\gd32vw55x_timer.c ****         /* configure TIMER channel input capture prescaler value */
1486:C:/Users/stapi/OneDrive/Desktop/GD32VW553/GD32VW55X_Wifi_BLE_SDK/GD32VW55x_RELEASE_V1.0.2/MSDK/plf/GD32VW55x_standard_peripheral/Source\gd32vw55x_timer.c ****         timer_channel_input_capture_prescaler_config(timer_periph, TIMER_CH_0, (uint16_t)(icpwm->ic
 2650              		.loc 1 1486 9 is_stmt 0
 2651 00c0 97000000 		call	timer_channel_input_capture_prescaler_config
 2651      E7800000 
 2652              	.LVL156:
1487:C:/Users/stapi/OneDrive/Desktop/GD32VW553/GD32VW55X_Wifi_BLE_SDK/GD32VW55x_RELEASE_V1.0.2/MSDK/plf/GD32VW55x_standard_peripheral/Source\gd32vw55x_timer.c ****     }
1488:C:/Users/stapi/OneDrive/Desktop/GD32VW553/GD32VW55X_Wifi_BLE_SDK/GD32VW55x_RELEASE_V1.0.2/MSDK/plf/GD32VW55x_standard_peripheral/Source\gd32vw55x_timer.c **** }
 2653              		.loc 1 1488 1
 2654 00c8 4101     		addi	sp,sp,16
 2655              		.cfi_remember_state
 2656              		.cfi_def_cfa_offset 0
 2657              	.LVL157:
 2658 00ca 17030000 		tail	__riscv_restore_3
 2658      67000300 
 2659              		.cfi_restore 18
 2660              		.cfi_restore 9
 2661              		.cfi_restore 8
 2662              		.cfi_restore 1
 2663              		.cfi_def_cfa_offset -16
 2664              	.LVL158:
 2665              	.L190:
 2666              		.cfi_restore_state
1451:C:/Users/stapi/OneDrive/Desktop/GD32VW553/GD32VW55X_Wifi_BLE_SDK/GD32VW55x_RELEASE_V1.0.2/MSDK/plf/GD32VW55x_standard_peripheral/Source\gd32vw55x_timer.c ****         /* reset the CH1P and CH1NP bits */
 2667              		.loc 1 1451 9 is_stmt 1
1451:C:/Users/stapi/OneDrive/Desktop/GD32VW553/GD32VW55X_Wifi_BLE_SDK/GD32VW55x_RELEASE_V1.0.2/MSDK/plf/GD32VW55x_standard_peripheral/Source\gd32vw55x_timer.c ****         /* reset the CH1P and CH1NP bits */
 2668              		.loc 1 1451 36 is_stmt 0
 2669 00d2 0C51     		lw	a1,32(a0)
 2670              	.LVL159:
1455:C:/Users/stapi/OneDrive/Desktop/GD32VW553/GD32VW55X_Wifi_BLE_SDK/GD32VW55x_RELEASE_V1.0.2/MSDK/plf/GD32VW55x_standard_peripheral/Source\gd32vw55x_timer.c ****         /* reset the CH1MS bit */
 2671              		.loc 1 1455 39
 2672 00d4 9206     		slli	a3,a3,4
1459:C:/Users/stapi/OneDrive/Desktop/GD32VW553/GD32VW55X_Wifi_BLE_SDK/GD32VW55x_RELEASE_V1.0.2/MSDK/plf/GD32VW55x_standard_peripheral/Source\gd32vw55x_timer.c ****         /* reset the CH1CAPFLT bit */
 2673              		.loc 1 1459 39
 2674 00d6 2207     		slli	a4,a4,8
1451:C:/Users/stapi/OneDrive/Desktop/GD32VW553/GD32VW55X_Wifi_BLE_SDK/GD32VW55x_RELEASE_V1.0.2/MSDK/plf/GD32VW55x_standard_peripheral/Source\gd32vw55x_timer.c ****         /* reset the CH1P and CH1NP bits */
 2675              		.loc 1 1451 36
 2676 00d8 BD99     		andi	a1,a1,-17
 2677 00da 0CD1     		sw	a1,32(a0)
1453:C:/Users/stapi/OneDrive/Desktop/GD32VW553/GD32VW55X_Wifi_BLE_SDK/GD32VW55x_RELEASE_V1.0.2/MSDK/plf/GD32VW55x_standard_peripheral/Source\gd32vw55x_timer.c ****         /* set the CH1P and CH1NP bits */
 2678              		.loc 1 1453 9 is_stmt 1
1453:C:/Users/stapi/OneDrive/Desktop/GD32VW553/GD32VW55X_Wifi_BLE_SDK/GD32VW55x_RELEASE_V1.0.2/MSDK/plf/GD32VW55x_standard_peripheral/Source\gd32vw55x_timer.c ****         /* set the CH1P and CH1NP bits */
 2679              		.loc 1 1453 36 is_stmt 0
 2680 00dc 0C51     		lw	a1,32(a0)
1463:C:/Users/stapi/OneDrive/Desktop/GD32VW553/GD32VW55X_Wifi_BLE_SDK/GD32VW55x_RELEASE_V1.0.2/MSDK/plf/GD32VW55x_standard_peripheral/Source\gd32vw55x_timer.c ****         /* set the CH1EN bit */
 2681              		.loc 1 1463 39
 2682 00de B207     		slli	a5,a5,12
1467:C:/Users/stapi/OneDrive/Desktop/GD32VW553/GD32VW55X_Wifi_BLE_SDK/GD32VW55x_RELEASE_V1.0.2/MSDK/plf/GD32VW55x_standard_peripheral/Source\gd32vw55x_timer.c **** 
 2683              		.loc 1 1467 9
 2684 00e0 2AC6     		sw	a0,12(sp)
1453:C:/Users/stapi/OneDrive/Desktop/GD32VW553/GD32VW55X_Wifi_BLE_SDK/GD32VW55x_RELEASE_V1.0.2/MSDK/plf/GD32VW55x_standard_peripheral/Source\gd32vw55x_timer.c ****         /* set the CH1P and CH1NP bits */
 2685              		.loc 1 1453 36
 2686 00e2 93F5F5F5 		andi	a1,a1,-161
 2687 00e6 0CD1     		sw	a1,32(a0)
1455:C:/Users/stapi/OneDrive/Desktop/GD32VW553/GD32VW55X_Wifi_BLE_SDK/GD32VW55x_RELEASE_V1.0.2/MSDK/plf/GD32VW55x_standard_peripheral/Source\gd32vw55x_timer.c ****         /* reset the CH1MS bit */
 2688              		.loc 1 1455 9 is_stmt 1
1455:C:/Users/stapi/OneDrive/Desktop/GD32VW553/GD32VW55X_Wifi_BLE_SDK/GD32VW55x_RELEASE_V1.0.2/MSDK/plf/GD32VW55x_standard_peripheral/Source\gd32vw55x_timer.c ****         /* reset the CH1MS bit */
 2689              		.loc 1 1455 36 is_stmt 0
 2690 00e8 0C51     		lw	a1,32(a0)
 2691 00ea CD8E     		or	a3,a3,a1
 2692 00ec 14D1     		sw	a3,32(a0)
1457:C:/Users/stapi/OneDrive/Desktop/GD32VW553/GD32VW55X_Wifi_BLE_SDK/GD32VW55x_RELEASE_V1.0.2/MSDK/plf/GD32VW55x_standard_peripheral/Source\gd32vw55x_timer.c ****         /* set the CH1MS bit */
 2693              		.loc 1 1457 9 is_stmt 1
1457:C:/Users/stapi/OneDrive/Desktop/GD32VW553/GD32VW55X_Wifi_BLE_SDK/GD32VW55x_RELEASE_V1.0.2/MSDK/plf/GD32VW55x_standard_peripheral/Source\gd32vw55x_timer.c ****         /* set the CH1MS bit */
 2694              		.loc 1 1457 36 is_stmt 0
 2695 00ee 144D     		lw	a3,24(a0)
1467:C:/Users/stapi/OneDrive/Desktop/GD32VW553/GD32VW55X_Wifi_BLE_SDK/GD32VW55x_RELEASE_V1.0.2/MSDK/plf/GD32VW55x_standard_peripheral/Source\gd32vw55x_timer.c **** 
 2696              		.loc 1 1467 9
 2697 00f0 8545     		li	a1,1
1457:C:/Users/stapi/OneDrive/Desktop/GD32VW553/GD32VW55X_Wifi_BLE_SDK/GD32VW55x_RELEASE_V1.0.2/MSDK/plf/GD32VW55x_standard_peripheral/Source\gd32vw55x_timer.c ****         /* set the CH1MS bit */
 2698              		.loc 1 1457 36
 2699 00f2 93F6F6CF 		andi	a3,a3,-769
 2700 00f6 14CD     		sw	a3,24(a0)
1459:C:/Users/stapi/OneDrive/Desktop/GD32VW553/GD32VW55X_Wifi_BLE_SDK/GD32VW55x_RELEASE_V1.0.2/MSDK/plf/GD32VW55x_standard_peripheral/Source\gd32vw55x_timer.c ****         /* reset the CH1CAPFLT bit */
 2701              		.loc 1 1459 9 is_stmt 1
1459:C:/Users/stapi/OneDrive/Desktop/GD32VW553/GD32VW55X_Wifi_BLE_SDK/GD32VW55x_RELEASE_V1.0.2/MSDK/plf/GD32VW55x_standard_peripheral/Source\gd32vw55x_timer.c ****         /* reset the CH1CAPFLT bit */
 2702              		.loc 1 1459 36 is_stmt 0
 2703 00f8 144D     		lw	a3,24(a0)
 2704 00fa 558F     		or	a4,a4,a3
 2705 00fc 18CD     		sw	a4,24(a0)
1461:C:/Users/stapi/OneDrive/Desktop/GD32VW553/GD32VW55X_Wifi_BLE_SDK/GD32VW55x_RELEASE_V1.0.2/MSDK/plf/GD32VW55x_standard_peripheral/Source\gd32vw55x_timer.c ****         /* set the CH1CAPFLT bit */
 2706              		.loc 1 1461 9 is_stmt 1
1461:C:/Users/stapi/OneDrive/Desktop/GD32VW553/GD32VW55X_Wifi_BLE_SDK/GD32VW55x_RELEASE_V1.0.2/MSDK/plf/GD32VW55x_standard_peripheral/Source\gd32vw55x_timer.c ****         /* set the CH1CAPFLT bit */
 2707              		.loc 1 1461 36 is_stmt 0
 2708 00fe 184D     		lw	a4,24(a0)
 2709 0100 C576     		li	a3,-61440
 2710 0102 FD16     		addi	a3,a3,-1
 2711 0104 758F     		and	a4,a4,a3
 2712 0106 18CD     		sw	a4,24(a0)
1463:C:/Users/stapi/OneDrive/Desktop/GD32VW553/GD32VW55X_Wifi_BLE_SDK/GD32VW55x_RELEASE_V1.0.2/MSDK/plf/GD32VW55x_standard_peripheral/Source\gd32vw55x_timer.c ****         /* set the CH1EN bit */
 2713              		.loc 1 1463 9 is_stmt 1
1463:C:/Users/stapi/OneDrive/Desktop/GD32VW553/GD32VW55X_Wifi_BLE_SDK/GD32VW55x_RELEASE_V1.0.2/MSDK/plf/GD32VW55x_standard_peripheral/Source\gd32vw55x_timer.c ****         /* set the CH1EN bit */
 2714              		.loc 1 1463 36 is_stmt 0
 2715 0108 184D     		lw	a4,24(a0)
 2716 010a D98F     		or	a5,a5,a4
 2717 010c 1CCD     		sw	a5,24(a0)
1465:C:/Users/stapi/OneDrive/Desktop/GD32VW553/GD32VW55X_Wifi_BLE_SDK/GD32VW55x_RELEASE_V1.0.2/MSDK/plf/GD32VW55x_standard_peripheral/Source\gd32vw55x_timer.c ****         /* configure TIMER channel input capture prescaler value */
 2718              		.loc 1 1465 9 is_stmt 1
1465:C:/Users/stapi/OneDrive/Desktop/GD32VW553/GD32VW55X_Wifi_BLE_SDK/GD32VW55x_RELEASE_V1.0.2/MSDK/plf/GD32VW55x_standard_peripheral/Source\gd32vw55x_timer.c ****         /* configure TIMER channel input capture prescaler value */
 2719              		.loc 1 1465 36 is_stmt 0
 2720 010e 1C51     		lw	a5,32(a0)
 2721 0110 93E70701 		ori	a5,a5,16
 2722 0114 1CD1     		sw	a5,32(a0)
1467:C:/Users/stapi/OneDrive/Desktop/GD32VW553/GD32VW55X_Wifi_BLE_SDK/GD32VW55x_RELEASE_V1.0.2/MSDK/plf/GD32VW55x_standard_peripheral/Source\gd32vw55x_timer.c **** 
 2723              		.loc 1 1467 9 is_stmt 1
 2724 0116 97000000 		call	timer_channel_input_capture_prescaler_config
 2724      E7800000 
 2725              	.LVL160:
1470:C:/Users/stapi/OneDrive/Desktop/GD32VW553/GD32VW55X_Wifi_BLE_SDK/GD32VW55x_RELEASE_V1.0.2/MSDK/plf/GD32VW55x_standard_peripheral/Source\gd32vw55x_timer.c ****         /* reset the CH0P and CH0NP bits */
 2726              		.loc 1 1470 9
1470:C:/Users/stapi/OneDrive/Desktop/GD32VW553/GD32VW55X_Wifi_BLE_SDK/GD32VW55x_RELEASE_V1.0.2/MSDK/plf/GD32VW55x_standard_peripheral/Source\gd32vw55x_timer.c ****         /* reset the CH0P and CH0NP bits */
 2727              		.loc 1 1470 36 is_stmt 0
 2728 011e 3245     		lw	a0,12(sp)
1486:C:/Users/stapi/OneDrive/Desktop/GD32VW553/GD32VW55X_Wifi_BLE_SDK/GD32VW55x_RELEASE_V1.0.2/MSDK/plf/GD32VW55x_standard_peripheral/Source\gd32vw55x_timer.c ****     }
 2729              		.loc 1 1486 9
 2730 0120 03564400 		lhu	a2,4(s0)
 2731 0124 8145     		li	a1,0
1470:C:/Users/stapi/OneDrive/Desktop/GD32VW553/GD32VW55X_Wifi_BLE_SDK/GD32VW55x_RELEASE_V1.0.2/MSDK/plf/GD32VW55x_standard_peripheral/Source\gd32vw55x_timer.c ****         /* reset the CH0P and CH0NP bits */
 2732              		.loc 1 1470 36
 2733 0126 1C51     		lw	a5,32(a0)
 2734 0128 F99B     		andi	a5,a5,-2
 2735 012a 1CD1     		sw	a5,32(a0)
1472:C:/Users/stapi/OneDrive/Desktop/GD32VW553/GD32VW55X_Wifi_BLE_SDK/GD32VW55x_RELEASE_V1.0.2/MSDK/plf/GD32VW55x_standard_peripheral/Source\gd32vw55x_timer.c ****         /* set the CH0P and CH0NP bits */
 2736              		.loc 1 1472 9 is_stmt 1
1472:C:/Users/stapi/OneDrive/Desktop/GD32VW553/GD32VW55X_Wifi_BLE_SDK/GD32VW55x_RELEASE_V1.0.2/MSDK/plf/GD32VW55x_standard_peripheral/Source\gd32vw55x_timer.c ****         /* set the CH0P and CH0NP bits */
 2737              		.loc 1 1472 36 is_stmt 0
 2738 012c 1C51     		lw	a5,32(a0)
 2739 012e D59B     		andi	a5,a5,-11
 2740 0130 1CD1     		sw	a5,32(a0)
1474:C:/Users/stapi/OneDrive/Desktop/GD32VW553/GD32VW55X_Wifi_BLE_SDK/GD32VW55x_RELEASE_V1.0.2/MSDK/plf/GD32VW55x_standard_peripheral/Source\gd32vw55x_timer.c ****         /* reset the CH0MS bit */
 2741              		.loc 1 1474 9 is_stmt 1
1474:C:/Users/stapi/OneDrive/Desktop/GD32VW553/GD32VW55X_Wifi_BLE_SDK/GD32VW55x_RELEASE_V1.0.2/MSDK/plf/GD32VW55x_standard_peripheral/Source\gd32vw55x_timer.c ****         /* reset the CH0MS bit */
 2742              		.loc 1 1474 36 is_stmt 0
 2743 0132 1C51     		lw	a5,32(a0)
 2744 0134 DD8C     		or	s1,a5,s1
 2745              	.LVL161:
 2746 0136 04D1     		sw	s1,32(a0)
1476:C:/Users/stapi/OneDrive/Desktop/GD32VW553/GD32VW55X_Wifi_BLE_SDK/GD32VW55x_RELEASE_V1.0.2/MSDK/plf/GD32VW55x_standard_peripheral/Source\gd32vw55x_timer.c ****         /* set the CH0MS bit */
 2747              		.loc 1 1476 9 is_stmt 1
1476:C:/Users/stapi/OneDrive/Desktop/GD32VW553/GD32VW55X_Wifi_BLE_SDK/GD32VW55x_RELEASE_V1.0.2/MSDK/plf/GD32VW55x_standard_peripheral/Source\gd32vw55x_timer.c ****         /* set the CH0MS bit */
 2748              		.loc 1 1476 36 is_stmt 0
 2749 0138 1C4D     		lw	a5,24(a0)
 2750 013a F19B     		andi	a5,a5,-4
 2751 013c 1CCD     		sw	a5,24(a0)
1478:C:/Users/stapi/OneDrive/Desktop/GD32VW553/GD32VW55X_Wifi_BLE_SDK/GD32VW55x_RELEASE_V1.0.2/MSDK/plf/GD32VW55x_standard_peripheral/Source\gd32vw55x_timer.c ****         /* reset the CH0CAPFLT bit */
 2752              		.loc 1 1478 9 is_stmt 1
1478:C:/Users/stapi/OneDrive/Desktop/GD32VW553/GD32VW55X_Wifi_BLE_SDK/GD32VW55x_RELEASE_V1.0.2/MSDK/plf/GD32VW55x_standard_peripheral/Source\gd32vw55x_timer.c ****         /* reset the CH0CAPFLT bit */
 2753              		.loc 1 1478 36 is_stmt 0
 2754 013e 1C4D     		lw	a5,24(a0)
 2755 0140 33E92701 		or	s2,a5,s2
 2756              	.LVL162:
 2757 0144 232C2501 		sw	s2,24(a0)
1480:C:/Users/stapi/OneDrive/Desktop/GD32VW553/GD32VW55X_Wifi_BLE_SDK/GD32VW55x_RELEASE_V1.0.2/MSDK/plf/GD32VW55x_standard_peripheral/Source\gd32vw55x_timer.c ****         /* set the CH0CAPFLT bit */
 2758              		.loc 1 1480 9 is_stmt 1
1480:C:/Users/stapi/OneDrive/Desktop/GD32VW553/GD32VW55X_Wifi_BLE_SDK/GD32VW55x_RELEASE_V1.0.2/MSDK/plf/GD32VW55x_standard_peripheral/Source\gd32vw55x_timer.c ****         /* set the CH0CAPFLT bit */
 2759              		.loc 1 1480 36 is_stmt 0
 2760 0148 1C4D     		lw	a5,24(a0)
 2761 014a 93F7F7F0 		andi	a5,a5,-241
 2762 014e 1CCD     		sw	a5,24(a0)
1482:C:/Users/stapi/OneDrive/Desktop/GD32VW553/GD32VW55X_Wifi_BLE_SDK/GD32VW55x_RELEASE_V1.0.2/MSDK/plf/GD32VW55x_standard_peripheral/Source\gd32vw55x_timer.c ****         /* set the CH0EN bit */
 2763              		.loc 1 1482 9 is_stmt 1
1482:C:/Users/stapi/OneDrive/Desktop/GD32VW553/GD32VW55X_Wifi_BLE_SDK/GD32VW55x_RELEASE_V1.0.2/MSDK/plf/GD32VW55x_standard_peripheral/Source\gd32vw55x_timer.c ****         /* set the CH0EN bit */
 2764              		.loc 1 1482 40 is_stmt 0
 2765 0150 83576400 		lhu	a5,6(s0)
1482:C:/Users/stapi/OneDrive/Desktop/GD32VW553/GD32VW55X_Wifi_BLE_SDK/GD32VW55x_RELEASE_V1.0.2/MSDK/plf/GD32VW55x_standard_peripheral/Source\gd32vw55x_timer.c ****         /* set the CH0EN bit */
 2766              		.loc 1 1482 36
 2767 0154 184D     		lw	a4,24(a0)
1482:C:/Users/stapi/OneDrive/Desktop/GD32VW553/GD32VW55X_Wifi_BLE_SDK/GD32VW55x_RELEASE_V1.0.2/MSDK/plf/GD32VW55x_standard_peripheral/Source\gd32vw55x_timer.c ****         /* set the CH0EN bit */
 2768              		.loc 1 1482 68
 2769 0156 9207     		slli	a5,a5,4
1482:C:/Users/stapi/OneDrive/Desktop/GD32VW553/GD32VW55X_Wifi_BLE_SDK/GD32VW55x_RELEASE_V1.0.2/MSDK/plf/GD32VW55x_standard_peripheral/Source\gd32vw55x_timer.c ****         /* set the CH0EN bit */
 2770              		.loc 1 1482 36
 2771 0158 D98F     		or	a5,a5,a4
 2772 015a 1CCD     		sw	a5,24(a0)
1484:C:/Users/stapi/OneDrive/Desktop/GD32VW553/GD32VW55X_Wifi_BLE_SDK/GD32VW55x_RELEASE_V1.0.2/MSDK/plf/GD32VW55x_standard_peripheral/Source\gd32vw55x_timer.c ****         /* configure TIMER channel input capture prescaler value */
 2773              		.loc 1 1484 9 is_stmt 1
1484:C:/Users/stapi/OneDrive/Desktop/GD32VW553/GD32VW55X_Wifi_BLE_SDK/GD32VW55x_RELEASE_V1.0.2/MSDK/plf/GD32VW55x_standard_peripheral/Source\gd32vw55x_timer.c ****         /* configure TIMER channel input capture prescaler value */
 2774              		.loc 1 1484 36 is_stmt 0
 2775 015c 1C51     		lw	a5,32(a0)
 2776 015e 93E71700 		ori	a5,a5,1
 2777 0162 1CD1     		sw	a5,32(a0)
1486:C:/Users/stapi/OneDrive/Desktop/GD32VW553/GD32VW55X_Wifi_BLE_SDK/GD32VW55x_RELEASE_V1.0.2/MSDK/plf/GD32VW55x_standard_peripheral/Source\gd32vw55x_timer.c ****     }
 2778              		.loc 1 1486 9 is_stmt 1
 2779 0164 B1BF     		j	.L196
 2780              		.cfi_endproc
 2781              	.LFE414:
 2783              		.section	.text.timer_hall_mode_config,"ax",@progbits
 2784              		.align	1
 2785              		.globl	timer_hall_mode_config
 2787              	timer_hall_mode_config:
 2788              	.LFB415:
1489:C:/Users/stapi/OneDrive/Desktop/GD32VW553/GD32VW55X_Wifi_BLE_SDK/GD32VW55x_RELEASE_V1.0.2/MSDK/plf/GD32VW55x_standard_peripheral/Source\gd32vw55x_timer.c **** 
1490:C:/Users/stapi/OneDrive/Desktop/GD32VW553/GD32VW55X_Wifi_BLE_SDK/GD32VW55x_RELEASE_V1.0.2/MSDK/plf/GD32VW55x_standard_peripheral/Source\gd32vw55x_timer.c **** /*!
1491:C:/Users/stapi/OneDrive/Desktop/GD32VW553/GD32VW55X_Wifi_BLE_SDK/GD32VW55x_RELEASE_V1.0.2/MSDK/plf/GD32VW55x_standard_peripheral/Source\gd32vw55x_timer.c ****     \brief      configure TIMER hall sensor mode
1492:C:/Users/stapi/OneDrive/Desktop/GD32VW553/GD32VW55X_Wifi_BLE_SDK/GD32VW55x_RELEASE_V1.0.2/MSDK/plf/GD32VW55x_standard_peripheral/Source\gd32vw55x_timer.c ****     \param[in]  timer_periph: TIMERx(x=0,1,2)
1493:C:/Users/stapi/OneDrive/Desktop/GD32VW553/GD32VW55X_Wifi_BLE_SDK/GD32VW55x_RELEASE_V1.0.2/MSDK/plf/GD32VW55x_standard_peripheral/Source\gd32vw55x_timer.c ****     \param[in]  hallmode:
1494:C:/Users/stapi/OneDrive/Desktop/GD32VW553/GD32VW55X_Wifi_BLE_SDK/GD32VW55x_RELEASE_V1.0.2/MSDK/plf/GD32VW55x_standard_peripheral/Source\gd32vw55x_timer.c ****                 only one parameter can be selected which is shown as below:
1495:C:/Users/stapi/OneDrive/Desktop/GD32VW553/GD32VW55X_Wifi_BLE_SDK/GD32VW55x_RELEASE_V1.0.2/MSDK/plf/GD32VW55x_standard_peripheral/Source\gd32vw55x_timer.c ****       \arg        TIMER_HALLINTERFACE_ENABLE: TIMER hall sensor mode enable
1496:C:/Users/stapi/OneDrive/Desktop/GD32VW553/GD32VW55X_Wifi_BLE_SDK/GD32VW55x_RELEASE_V1.0.2/MSDK/plf/GD32VW55x_standard_peripheral/Source\gd32vw55x_timer.c ****       \arg        TIMER_HALLINTERFACE_DISABLE: TIMER hall sensor mode disable
1497:C:/Users/stapi/OneDrive/Desktop/GD32VW553/GD32VW55X_Wifi_BLE_SDK/GD32VW55x_RELEASE_V1.0.2/MSDK/plf/GD32VW55x_standard_peripheral/Source\gd32vw55x_timer.c ****     \param[out] none
1498:C:/Users/stapi/OneDrive/Desktop/GD32VW553/GD32VW55X_Wifi_BLE_SDK/GD32VW55x_RELEASE_V1.0.2/MSDK/plf/GD32VW55x_standard_peripheral/Source\gd32vw55x_timer.c ****     \retval     none
1499:C:/Users/stapi/OneDrive/Desktop/GD32VW553/GD32VW55X_Wifi_BLE_SDK/GD32VW55x_RELEASE_V1.0.2/MSDK/plf/GD32VW55x_standard_peripheral/Source\gd32vw55x_timer.c **** */
1500:C:/Users/stapi/OneDrive/Desktop/GD32VW553/GD32VW55X_Wifi_BLE_SDK/GD32VW55x_RELEASE_V1.0.2/MSDK/plf/GD32VW55x_standard_peripheral/Source\gd32vw55x_timer.c **** void timer_hall_mode_config(uint32_t timer_periph, uint32_t hallmode)
1501:C:/Users/stapi/OneDrive/Desktop/GD32VW553/GD32VW55X_Wifi_BLE_SDK/GD32VW55x_RELEASE_V1.0.2/MSDK/plf/GD32VW55x_standard_peripheral/Source\gd32vw55x_timer.c **** {
 2789              		.loc 1 1501 1
 2790              		.cfi_startproc
 2791              	.LVL163:
1502:C:/Users/stapi/OneDrive/Desktop/GD32VW553/GD32VW55X_Wifi_BLE_SDK/GD32VW55x_RELEASE_V1.0.2/MSDK/plf/GD32VW55x_standard_peripheral/Source\gd32vw55x_timer.c ****     if(TIMER_HALLINTERFACE_ENABLE == hallmode){
 2792              		.loc 1 1502 5
 2793              		.loc 1 1502 7 is_stmt 0
 2794 0000 91E5     		bne	a1,zero,.L198
1503:C:/Users/stapi/OneDrive/Desktop/GD32VW553/GD32VW55X_Wifi_BLE_SDK/GD32VW55x_RELEASE_V1.0.2/MSDK/plf/GD32VW55x_standard_peripheral/Source\gd32vw55x_timer.c ****         TIMER_CTL1(timer_periph) |= (uint32_t)TIMER_CTL1_TI0S;
 2795              		.loc 1 1503 9 is_stmt 1
 2796              		.loc 1 1503 34 is_stmt 0
 2797 0002 5C41     		lw	a5,4(a0)
 2798 0004 93E70708 		ori	a5,a5,128
 2799              	.L200:
1504:C:/Users/stapi/OneDrive/Desktop/GD32VW553/GD32VW55X_Wifi_BLE_SDK/GD32VW55x_RELEASE_V1.0.2/MSDK/plf/GD32VW55x_standard_peripheral/Source\gd32vw55x_timer.c ****     }else if(TIMER_HALLINTERFACE_DISABLE == hallmode){
1505:C:/Users/stapi/OneDrive/Desktop/GD32VW553/GD32VW55X_Wifi_BLE_SDK/GD32VW55x_RELEASE_V1.0.2/MSDK/plf/GD32VW55x_standard_peripheral/Source\gd32vw55x_timer.c ****         TIMER_CTL1(timer_periph) &= ~(uint32_t)TIMER_CTL1_TI0S;
 2800              		.loc 1 1505 34
 2801 0008 5CC1     		sw	a5,4(a0)
1506:C:/Users/stapi/OneDrive/Desktop/GD32VW553/GD32VW55X_Wifi_BLE_SDK/GD32VW55x_RELEASE_V1.0.2/MSDK/plf/GD32VW55x_standard_peripheral/Source\gd32vw55x_timer.c ****     }else{
1507:C:/Users/stapi/OneDrive/Desktop/GD32VW553/GD32VW55X_Wifi_BLE_SDK/GD32VW55x_RELEASE_V1.0.2/MSDK/plf/GD32VW55x_standard_peripheral/Source\gd32vw55x_timer.c ****         /* illegal parameters */
1508:C:/Users/stapi/OneDrive/Desktop/GD32VW553/GD32VW55X_Wifi_BLE_SDK/GD32VW55x_RELEASE_V1.0.2/MSDK/plf/GD32VW55x_standard_peripheral/Source\gd32vw55x_timer.c ****     }
 2802              		.loc 1 1508 5 is_stmt 1
 2803              	.L197:
1509:C:/Users/stapi/OneDrive/Desktop/GD32VW553/GD32VW55X_Wifi_BLE_SDK/GD32VW55x_RELEASE_V1.0.2/MSDK/plf/GD32VW55x_standard_peripheral/Source\gd32vw55x_timer.c **** }
 2804              		.loc 1 1509 1 is_stmt 0
 2805 000a 8280     		ret
 2806              	.L198:
1504:C:/Users/stapi/OneDrive/Desktop/GD32VW553/GD32VW55X_Wifi_BLE_SDK/GD32VW55x_RELEASE_V1.0.2/MSDK/plf/GD32VW55x_standard_peripheral/Source\gd32vw55x_timer.c ****     }else if(TIMER_HALLINTERFACE_DISABLE == hallmode){
 2807              		.loc 1 1504 11 is_stmt 1
1504:C:/Users/stapi/OneDrive/Desktop/GD32VW553/GD32VW55X_Wifi_BLE_SDK/GD32VW55x_RELEASE_V1.0.2/MSDK/plf/GD32VW55x_standard_peripheral/Source\gd32vw55x_timer.c ****     }else if(TIMER_HALLINTERFACE_DISABLE == hallmode){
 2808              		.loc 1 1504 13 is_stmt 0
 2809 000c 8547     		li	a5,1
 2810 000e E39EF5FE 		bne	a1,a5,.L197
1505:C:/Users/stapi/OneDrive/Desktop/GD32VW553/GD32VW55X_Wifi_BLE_SDK/GD32VW55x_RELEASE_V1.0.2/MSDK/plf/GD32VW55x_standard_peripheral/Source\gd32vw55x_timer.c ****     }else{
 2811              		.loc 1 1505 9 is_stmt 1
1505:C:/Users/stapi/OneDrive/Desktop/GD32VW553/GD32VW55X_Wifi_BLE_SDK/GD32VW55x_RELEASE_V1.0.2/MSDK/plf/GD32VW55x_standard_peripheral/Source\gd32vw55x_timer.c ****     }else{
 2812              		.loc 1 1505 34 is_stmt 0
 2813 0012 5C41     		lw	a5,4(a0)
 2814 0014 93F7F7F7 		andi	a5,a5,-129
 2815 0018 C5BF     		j	.L200
 2816              		.cfi_endproc
 2817              	.LFE415:
 2819              		.section	.text.timer_input_trigger_source_select,"ax",@progbits
 2820              		.align	1
 2821              		.globl	timer_input_trigger_source_select
 2823              	timer_input_trigger_source_select:
 2824              	.LFB416:
1510:C:/Users/stapi/OneDrive/Desktop/GD32VW553/GD32VW55X_Wifi_BLE_SDK/GD32VW55x_RELEASE_V1.0.2/MSDK/plf/GD32VW55x_standard_peripheral/Source\gd32vw55x_timer.c **** 
1511:C:/Users/stapi/OneDrive/Desktop/GD32VW553/GD32VW55X_Wifi_BLE_SDK/GD32VW55x_RELEASE_V1.0.2/MSDK/plf/GD32VW55x_standard_peripheral/Source\gd32vw55x_timer.c **** /*!
1512:C:/Users/stapi/OneDrive/Desktop/GD32VW553/GD32VW55X_Wifi_BLE_SDK/GD32VW55x_RELEASE_V1.0.2/MSDK/plf/GD32VW55x_standard_peripheral/Source\gd32vw55x_timer.c ****     \brief      select TIMER input trigger source
1513:C:/Users/stapi/OneDrive/Desktop/GD32VW553/GD32VW55X_Wifi_BLE_SDK/GD32VW55x_RELEASE_V1.0.2/MSDK/plf/GD32VW55x_standard_peripheral/Source\gd32vw55x_timer.c ****     \param[in]  timer_periph: TIMERx(x=0,1,2)
1514:C:/Users/stapi/OneDrive/Desktop/GD32VW553/GD32VW55X_Wifi_BLE_SDK/GD32VW55x_RELEASE_V1.0.2/MSDK/plf/GD32VW55x_standard_peripheral/Source\gd32vw55x_timer.c ****     \param[in]  intrigger:
1515:C:/Users/stapi/OneDrive/Desktop/GD32VW553/GD32VW55X_Wifi_BLE_SDK/GD32VW55x_RELEASE_V1.0.2/MSDK/plf/GD32VW55x_standard_peripheral/Source\gd32vw55x_timer.c ****                 only one parameter can be selected which is shown as below:
1516:C:/Users/stapi/OneDrive/Desktop/GD32VW553/GD32VW55X_Wifi_BLE_SDK/GD32VW55x_RELEASE_V1.0.2/MSDK/plf/GD32VW55x_standard_peripheral/Source\gd32vw55x_timer.c ****       \arg        TIMER_SMCFG_TRGSEL_ITI0: internal trigger 0
1517:C:/Users/stapi/OneDrive/Desktop/GD32VW553/GD32VW55X_Wifi_BLE_SDK/GD32VW55x_RELEASE_V1.0.2/MSDK/plf/GD32VW55x_standard_peripheral/Source\gd32vw55x_timer.c ****       \arg        TIMER_SMCFG_TRGSEL_ITI1: internal trigger 1
1518:C:/Users/stapi/OneDrive/Desktop/GD32VW553/GD32VW55X_Wifi_BLE_SDK/GD32VW55x_RELEASE_V1.0.2/MSDK/plf/GD32VW55x_standard_peripheral/Source\gd32vw55x_timer.c ****       \arg        TIMER_SMCFG_TRGSEL_ITI2: internal trigger 2
1519:C:/Users/stapi/OneDrive/Desktop/GD32VW553/GD32VW55X_Wifi_BLE_SDK/GD32VW55x_RELEASE_V1.0.2/MSDK/plf/GD32VW55x_standard_peripheral/Source\gd32vw55x_timer.c ****       \arg        TIMER_SMCFG_TRGSEL_ITI3: internal trigger 3
1520:C:/Users/stapi/OneDrive/Desktop/GD32VW553/GD32VW55X_Wifi_BLE_SDK/GD32VW55x_RELEASE_V1.0.2/MSDK/plf/GD32VW55x_standard_peripheral/Source\gd32vw55x_timer.c ****       \arg        TIMER_SMCFG_TRGSEL_CI0F_ED: TI0 edge detector
1521:C:/Users/stapi/OneDrive/Desktop/GD32VW553/GD32VW55X_Wifi_BLE_SDK/GD32VW55x_RELEASE_V1.0.2/MSDK/plf/GD32VW55x_standard_peripheral/Source\gd32vw55x_timer.c ****       \arg        TIMER_SMCFG_TRGSEL_CI0FE0: filtered TIMER input 0
1522:C:/Users/stapi/OneDrive/Desktop/GD32VW553/GD32VW55X_Wifi_BLE_SDK/GD32VW55x_RELEASE_V1.0.2/MSDK/plf/GD32VW55x_standard_peripheral/Source\gd32vw55x_timer.c ****       \arg        TIMER_SMCFG_TRGSEL_CI1FE1: filtered TIMER input 1
1523:C:/Users/stapi/OneDrive/Desktop/GD32VW553/GD32VW55X_Wifi_BLE_SDK/GD32VW55x_RELEASE_V1.0.2/MSDK/plf/GD32VW55x_standard_peripheral/Source\gd32vw55x_timer.c ****       \arg        TIMER_SMCFG_TRGSEL_ETIFP: external trigger
1524:C:/Users/stapi/OneDrive/Desktop/GD32VW553/GD32VW55X_Wifi_BLE_SDK/GD32VW55x_RELEASE_V1.0.2/MSDK/plf/GD32VW55x_standard_peripheral/Source\gd32vw55x_timer.c ****     \param[out] none
1525:C:/Users/stapi/OneDrive/Desktop/GD32VW553/GD32VW55X_Wifi_BLE_SDK/GD32VW55x_RELEASE_V1.0.2/MSDK/plf/GD32VW55x_standard_peripheral/Source\gd32vw55x_timer.c ****     \retval     none
1526:C:/Users/stapi/OneDrive/Desktop/GD32VW553/GD32VW55X_Wifi_BLE_SDK/GD32VW55x_RELEASE_V1.0.2/MSDK/plf/GD32VW55x_standard_peripheral/Source\gd32vw55x_timer.c **** */
1527:C:/Users/stapi/OneDrive/Desktop/GD32VW553/GD32VW55X_Wifi_BLE_SDK/GD32VW55x_RELEASE_V1.0.2/MSDK/plf/GD32VW55x_standard_peripheral/Source\gd32vw55x_timer.c **** void timer_input_trigger_source_select(uint32_t timer_periph, uint32_t intrigger)
1528:C:/Users/stapi/OneDrive/Desktop/GD32VW553/GD32VW55X_Wifi_BLE_SDK/GD32VW55x_RELEASE_V1.0.2/MSDK/plf/GD32VW55x_standard_peripheral/Source\gd32vw55x_timer.c **** {
 2825              		.loc 1 1528 1 is_stmt 1
 2826              		.cfi_startproc
 2827              	.LVL164:
1529:C:/Users/stapi/OneDrive/Desktop/GD32VW553/GD32VW55X_Wifi_BLE_SDK/GD32VW55x_RELEASE_V1.0.2/MSDK/plf/GD32VW55x_standard_peripheral/Source\gd32vw55x_timer.c ****     uint32_t TIMERxCFG_temp = 0U;
 2828              		.loc 1 1529 5
1530:C:/Users/stapi/OneDrive/Desktop/GD32VW553/GD32VW55X_Wifi_BLE_SDK/GD32VW55x_RELEASE_V1.0.2/MSDK/plf/GD32VW55x_standard_peripheral/Source\gd32vw55x_timer.c ****     volatile uint32_t *TIMERxCFG_addr = NULL;
 2829              		.loc 1 1530 5
1531:C:/Users/stapi/OneDrive/Desktop/GD32VW553/GD32VW55X_Wifi_BLE_SDK/GD32VW55x_RELEASE_V1.0.2/MSDK/plf/GD32VW55x_standard_peripheral/Source\gd32vw55x_timer.c ****     uint8_t i = 0U;
 2830              		.loc 1 1531 5
1532:C:/Users/stapi/OneDrive/Desktop/GD32VW553/GD32VW55X_Wifi_BLE_SDK/GD32VW55x_RELEASE_V1.0.2/MSDK/plf/GD32VW55x_standard_peripheral/Source\gd32vw55x_timer.c **** 
1533:C:/Users/stapi/OneDrive/Desktop/GD32VW553/GD32VW55X_Wifi_BLE_SDK/GD32VW55x_RELEASE_V1.0.2/MSDK/plf/GD32VW55x_standard_peripheral/Source\gd32vw55x_timer.c ****     switch(timer_periph) {
 2831              		.loc 1 1533 5
 2832 0000 B7070040 		li	a5,1073741824
 2833 0004 13870740 		addi	a4,a5,1024
 2834 0008 6301E502 		beq	a0,a4,.L207
 2835 000c 37070140 		li	a4,1073807360
 2836 0010 6302E502 		beq	a0,a4,.L208
 2837 0014 6319F504 		bne	a0,a5,.L203
 2838 0018 B7470140 		li	a5,1073823744
 2839 001c 93874790 		addi	a5,a5,-1788
 2840              	.L202:
 2841              	.LVL165:
1534:C:/Users/stapi/OneDrive/Desktop/GD32VW553/GD32VW55X_Wifi_BLE_SDK/GD32VW55x_RELEASE_V1.0.2/MSDK/plf/GD32VW55x_standard_peripheral/Source\gd32vw55x_timer.c ****     case TIMER0:
1535:C:/Users/stapi/OneDrive/Desktop/GD32VW553/GD32VW55X_Wifi_BLE_SDK/GD32VW55x_RELEASE_V1.0.2/MSDK/plf/GD32VW55x_standard_peripheral/Source\gd32vw55x_timer.c ****         TIMERxCFG_addr = &SYSCFG_TIMER0CFG;
1536:C:/Users/stapi/OneDrive/Desktop/GD32VW553/GD32VW55X_Wifi_BLE_SDK/GD32VW55x_RELEASE_V1.0.2/MSDK/plf/GD32VW55x_standard_peripheral/Source\gd32vw55x_timer.c ****         break;
1537:C:/Users/stapi/OneDrive/Desktop/GD32VW553/GD32VW55X_Wifi_BLE_SDK/GD32VW55x_RELEASE_V1.0.2/MSDK/plf/GD32VW55x_standard_peripheral/Source\gd32vw55x_timer.c ****     case TIMER1:
1538:C:/Users/stapi/OneDrive/Desktop/GD32VW553/GD32VW55X_Wifi_BLE_SDK/GD32VW55x_RELEASE_V1.0.2/MSDK/plf/GD32VW55x_standard_peripheral/Source\gd32vw55x_timer.c ****         TIMERxCFG_addr = &SYSCFG_TIMER1CFG;
1539:C:/Users/stapi/OneDrive/Desktop/GD32VW553/GD32VW55X_Wifi_BLE_SDK/GD32VW55x_RELEASE_V1.0.2/MSDK/plf/GD32VW55x_standard_peripheral/Source\gd32vw55x_timer.c ****         break;
1540:C:/Users/stapi/OneDrive/Desktop/GD32VW553/GD32VW55X_Wifi_BLE_SDK/GD32VW55x_RELEASE_V1.0.2/MSDK/plf/GD32VW55x_standard_peripheral/Source\gd32vw55x_timer.c ****     case TIMER2:
1541:C:/Users/stapi/OneDrive/Desktop/GD32VW553/GD32VW55X_Wifi_BLE_SDK/GD32VW55x_RELEASE_V1.0.2/MSDK/plf/GD32VW55x_standard_peripheral/Source\gd32vw55x_timer.c ****         TIMERxCFG_addr = &SYSCFG_TIMER2CFG;
1542:C:/Users/stapi/OneDrive/Desktop/GD32VW553/GD32VW55X_Wifi_BLE_SDK/GD32VW55x_RELEASE_V1.0.2/MSDK/plf/GD32VW55x_standard_peripheral/Source\gd32vw55x_timer.c ****         break;
1543:C:/Users/stapi/OneDrive/Desktop/GD32VW553/GD32VW55X_Wifi_BLE_SDK/GD32VW55x_RELEASE_V1.0.2/MSDK/plf/GD32VW55x_standard_peripheral/Source\gd32vw55x_timer.c ****     default:
1544:C:/Users/stapi/OneDrive/Desktop/GD32VW553/GD32VW55X_Wifi_BLE_SDK/GD32VW55x_RELEASE_V1.0.2/MSDK/plf/GD32VW55x_standard_peripheral/Source\gd32vw55x_timer.c ****         break;
1545:C:/Users/stapi/OneDrive/Desktop/GD32VW553/GD32VW55X_Wifi_BLE_SDK/GD32VW55x_RELEASE_V1.0.2/MSDK/plf/GD32VW55x_standard_peripheral/Source\gd32vw55x_timer.c ****     }
1546:C:/Users/stapi/OneDrive/Desktop/GD32VW553/GD32VW55X_Wifi_BLE_SDK/GD32VW55x_RELEASE_V1.0.2/MSDK/plf/GD32VW55x_standard_peripheral/Source\gd32vw55x_timer.c **** 
1547:C:/Users/stapi/OneDrive/Desktop/GD32VW553/GD32VW55X_Wifi_BLE_SDK/GD32VW55x_RELEASE_V1.0.2/MSDK/plf/GD32VW55x_standard_peripheral/Source\gd32vw55x_timer.c ****     TIMERxCFG_temp = REG32(TIMERxCFG_addr);
 2842              		.loc 1 1547 5
 2843              		.loc 1 1547 20 is_stmt 0
 2844 0020 8843     		lw	a0,0(a5)
 2845              	.LVL166:
1548:C:/Users/stapi/OneDrive/Desktop/GD32VW553/GD32VW55X_Wifi_BLE_SDK/GD32VW55x_RELEASE_V1.0.2/MSDK/plf/GD32VW55x_standard_peripheral/Source\gd32vw55x_timer.c **** 
1549:C:/Users/stapi/OneDrive/Desktop/GD32VW553/GD32VW55X_Wifi_BLE_SDK/GD32VW55x_RELEASE_V1.0.2/MSDK/plf/GD32VW55x_standard_peripheral/Source\gd32vw55x_timer.c ****     if((TIMERxCFG_temp & 0xFFFFFFFFU) == 0U) {
 2846              		.loc 1 1549 5 is_stmt 1
 2847              		.loc 1 1549 7 is_stmt 0
 2848 0022 11ED     		bne	a0,zero,.L209
1550:C:/Users/stapi/OneDrive/Desktop/GD32VW553/GD32VW55X_Wifi_BLE_SDK/GD32VW55x_RELEASE_V1.0.2/MSDK/plf/GD32VW55x_standard_peripheral/Source\gd32vw55x_timer.c ****         TIMERxCFG_temp = (BITS(28,31) & ((uint32_t)(intrigger) << 28U));
 2849              		.loc 1 1550 9 is_stmt 1
 2850              		.loc 1 1550 24 is_stmt 0
 2851 0024 F205     		slli	a1,a1,28
 2852              	.LVL167:
 2853              	.L205:
1551:C:/Users/stapi/OneDrive/Desktop/GD32VW553/GD32VW55X_Wifi_BLE_SDK/GD32VW55x_RELEASE_V1.0.2/MSDK/plf/GD32VW55x_standard_peripheral/Source\gd32vw55x_timer.c ****     } else {
1552:C:/Users/stapi/OneDrive/Desktop/GD32VW553/GD32VW55X_Wifi_BLE_SDK/GD32VW55x_RELEASE_V1.0.2/MSDK/plf/GD32VW55x_standard_peripheral/Source\gd32vw55x_timer.c ****         for(i = 0U; i < 8U; i++) {
1553:C:/Users/stapi/OneDrive/Desktop/GD32VW553/GD32VW55X_Wifi_BLE_SDK/GD32VW55x_RELEASE_V1.0.2/MSDK/plf/GD32VW55x_standard_peripheral/Source\gd32vw55x_timer.c ****             if((TIMERxCFG_temp & (BITS(0,3) << (i * 4U))) != 0U) break;
1554:C:/Users/stapi/OneDrive/Desktop/GD32VW553/GD32VW55X_Wifi_BLE_SDK/GD32VW55x_RELEASE_V1.0.2/MSDK/plf/GD32VW55x_standard_peripheral/Source\gd32vw55x_timer.c ****         }
1555:C:/Users/stapi/OneDrive/Desktop/GD32VW553/GD32VW55X_Wifi_BLE_SDK/GD32VW55x_RELEASE_V1.0.2/MSDK/plf/GD32VW55x_standard_peripheral/Source\gd32vw55x_timer.c ****         TIMERxCFG_temp = ((BITS(0,3) << (i * 4U)) & ((uint32_t)(intrigger) << (i * 4U)));
1556:C:/Users/stapi/OneDrive/Desktop/GD32VW553/GD32VW55X_Wifi_BLE_SDK/GD32VW55x_RELEASE_V1.0.2/MSDK/plf/GD32VW55x_standard_peripheral/Source\gd32vw55x_timer.c ****     }
1557:C:/Users/stapi/OneDrive/Desktop/GD32VW553/GD32VW55X_Wifi_BLE_SDK/GD32VW55x_RELEASE_V1.0.2/MSDK/plf/GD32VW55x_standard_peripheral/Source\gd32vw55x_timer.c **** 
1558:C:/Users/stapi/OneDrive/Desktop/GD32VW553/GD32VW55X_Wifi_BLE_SDK/GD32VW55x_RELEASE_V1.0.2/MSDK/plf/GD32VW55x_standard_peripheral/Source\gd32vw55x_timer.c ****     REG32(TIMERxCFG_addr) = TIMERxCFG_temp;
 2854              		.loc 1 1558 5 is_stmt 1
 2855              		.loc 1 1558 27 is_stmt 0
 2856 0026 8CC3     		sw	a1,0(a5)
1559:C:/Users/stapi/OneDrive/Desktop/GD32VW553/GD32VW55X_Wifi_BLE_SDK/GD32VW55x_RELEASE_V1.0.2/MSDK/plf/GD32VW55x_standard_peripheral/Source\gd32vw55x_timer.c **** }
 2857              		.loc 1 1559 1
 2858 0028 8280     		ret
 2859              	.LVL168:
 2860              	.L207:
1541:C:/Users/stapi/OneDrive/Desktop/GD32VW553/GD32VW55X_Wifi_BLE_SDK/GD32VW55x_RELEASE_V1.0.2/MSDK/plf/GD32VW55x_standard_peripheral/Source\gd32vw55x_timer.c ****         break;
 2861              		.loc 1 1541 24
 2862 002a B7470140 		li	a5,1073823744
 2863 002e 93878790 		addi	a5,a5,-1784
 2864 0032 FDB7     		j	.L202
 2865              	.L208:
1535:C:/Users/stapi/OneDrive/Desktop/GD32VW553/GD32VW55X_Wifi_BLE_SDK/GD32VW55x_RELEASE_V1.0.2/MSDK/plf/GD32VW55x_standard_peripheral/Source\gd32vw55x_timer.c ****         break;
 2866              		.loc 1 1535 24
 2867 0034 B7470140 		li	a5,1073823744
 2868 0038 93870790 		addi	a5,a5,-1792
 2869 003c D5B7     		j	.L202
 2870              	.LVL169:
 2871              	.L209:
 2872 003e 0147     		li	a4,0
1553:C:/Users/stapi/OneDrive/Desktop/GD32VW553/GD32VW55X_Wifi_BLE_SDK/GD32VW55x_RELEASE_V1.0.2/MSDK/plf/GD32VW55x_standard_peripheral/Source\gd32vw55x_timer.c ****         }
 2873              		.loc 1 1553 45
 2874 0040 BD48     		li	a7,15
1552:C:/Users/stapi/OneDrive/Desktop/GD32VW553/GD32VW55X_Wifi_BLE_SDK/GD32VW55x_RELEASE_V1.0.2/MSDK/plf/GD32VW55x_standard_peripheral/Source\gd32vw55x_timer.c ****             if((TIMERxCFG_temp & (BITS(0,3) << (i * 4U))) != 0U) break;
 2875              		.loc 1 1552 9
 2876 0042 2148     		li	a6,8
 2877              	.LVL170:
 2878              	.L204:
1553:C:/Users/stapi/OneDrive/Desktop/GD32VW553/GD32VW55X_Wifi_BLE_SDK/GD32VW55x_RELEASE_V1.0.2/MSDK/plf/GD32VW55x_standard_peripheral/Source\gd32vw55x_timer.c ****         }
 2879              		.loc 1 1553 45
 2880 0044 93162700 		slli	a3,a4,2
 2881 0048 B396D800 		sll	a3,a7,a3
1553:C:/Users/stapi/OneDrive/Desktop/GD32VW553/GD32VW55X_Wifi_BLE_SDK/GD32VW55x_RELEASE_V1.0.2/MSDK/plf/GD32VW55x_standard_peripheral/Source\gd32vw55x_timer.c ****         }
 2882              		.loc 1 1553 32
 2883 004c E98E     		and	a3,a3,a0
 2884 004e 1376F70F 		andi	a2,a4,0xff
 2885              	.LVL171:
1553:C:/Users/stapi/OneDrive/Desktop/GD32VW553/GD32VW55X_Wifi_BLE_SDK/GD32VW55x_RELEASE_V1.0.2/MSDK/plf/GD32VW55x_standard_peripheral/Source\gd32vw55x_timer.c ****         }
 2886              		.loc 1 1553 13 is_stmt 1
1553:C:/Users/stapi/OneDrive/Desktop/GD32VW553/GD32VW55X_Wifi_BLE_SDK/GD32VW55x_RELEASE_V1.0.2/MSDK/plf/GD32VW55x_standard_peripheral/Source\gd32vw55x_timer.c ****         }
 2887              		.loc 1 1553 15 is_stmt 0
 2888 0052 89E6     		bne	a3,zero,.L206
1552:C:/Users/stapi/OneDrive/Desktop/GD32VW553/GD32VW55X_Wifi_BLE_SDK/GD32VW55x_RELEASE_V1.0.2/MSDK/plf/GD32VW55x_standard_peripheral/Source\gd32vw55x_timer.c ****             if((TIMERxCFG_temp & (BITS(0,3) << (i * 4U))) != 0U) break;
 2889              		.loc 1 1552 29 is_stmt 1 discriminator 2
 2890              	.LVL172:
1552:C:/Users/stapi/OneDrive/Desktop/GD32VW553/GD32VW55X_Wifi_BLE_SDK/GD32VW55x_RELEASE_V1.0.2/MSDK/plf/GD32VW55x_standard_peripheral/Source\gd32vw55x_timer.c ****             if((TIMERxCFG_temp & (BITS(0,3) << (i * 4U))) != 0U) break;
 2891              		.loc 1 1552 21 discriminator 2
1552:C:/Users/stapi/OneDrive/Desktop/GD32VW553/GD32VW55X_Wifi_BLE_SDK/GD32VW55x_RELEASE_V1.0.2/MSDK/plf/GD32VW55x_standard_peripheral/Source\gd32vw55x_timer.c ****             if((TIMERxCFG_temp & (BITS(0,3) << (i * 4U))) != 0U) break;
 2892              		.loc 1 1552 9 is_stmt 0 discriminator 2
 2893 0054 0507     		addi	a4,a4,1
 2894              	.LVL173:
 2895 0056 E31707FF 		bne	a4,a6,.L204
 2896 005a 2146     		li	a2,8
 2897              	.LVL174:
 2898              	.L206:
1555:C:/Users/stapi/OneDrive/Desktop/GD32VW553/GD32VW55X_Wifi_BLE_SDK/GD32VW55x_RELEASE_V1.0.2/MSDK/plf/GD32VW55x_standard_peripheral/Source\gd32vw55x_timer.c ****     }
 2899              		.loc 1 1555 9 is_stmt 1
1555:C:/Users/stapi/OneDrive/Desktop/GD32VW553/GD32VW55X_Wifi_BLE_SDK/GD32VW55x_RELEASE_V1.0.2/MSDK/plf/GD32VW55x_standard_peripheral/Source\gd32vw55x_timer.c ****     }
 2900              		.loc 1 1555 44 is_stmt 0
 2901 005c 0A06     		slli	a2,a2,2
1555:C:/Users/stapi/OneDrive/Desktop/GD32VW553/GD32VW55X_Wifi_BLE_SDK/GD32VW55x_RELEASE_V1.0.2/MSDK/plf/GD32VW55x_standard_peripheral/Source\gd32vw55x_timer.c ****     }
 2902              		.loc 1 1555 76
 2903 005e BD89     		andi	a1,a1,15
 2904              	.LVL175:
1555:C:/Users/stapi/OneDrive/Desktop/GD32VW553/GD32VW55X_Wifi_BLE_SDK/GD32VW55x_RELEASE_V1.0.2/MSDK/plf/GD32VW55x_standard_peripheral/Source\gd32vw55x_timer.c ****     }
 2905              		.loc 1 1555 24
 2906 0060 B395C500 		sll	a1,a1,a2
 2907              	.LVL176:
 2908 0064 C9B7     		j	.L205
 2909              	.LVL177:
 2910              	.L203:
1547:C:/Users/stapi/OneDrive/Desktop/GD32VW553/GD32VW55X_Wifi_BLE_SDK/GD32VW55x_RELEASE_V1.0.2/MSDK/plf/GD32VW55x_standard_peripheral/Source\gd32vw55x_timer.c **** 
 2911              		.loc 1 1547 5 is_stmt 1
1547:C:/Users/stapi/OneDrive/Desktop/GD32VW553/GD32VW55X_Wifi_BLE_SDK/GD32VW55x_RELEASE_V1.0.2/MSDK/plf/GD32VW55x_standard_peripheral/Source\gd32vw55x_timer.c **** 
 2912              		.loc 1 1547 20 is_stmt 0
 2913 0066 83270000 		lw	a5,0(zero)
 2914              	.LVL178:
 2915 006a 0290     		ebreak
 2916              		.cfi_endproc
 2917              	.LFE416:
 2919              		.section	.text.timer_master_output_trigger_source_select,"ax",@progbits
 2920              		.align	1
 2921              		.globl	timer_master_output_trigger_source_select
 2923              	timer_master_output_trigger_source_select:
 2924              	.LFB417:
1560:C:/Users/stapi/OneDrive/Desktop/GD32VW553/GD32VW55X_Wifi_BLE_SDK/GD32VW55x_RELEASE_V1.0.2/MSDK/plf/GD32VW55x_standard_peripheral/Source\gd32vw55x_timer.c **** 
1561:C:/Users/stapi/OneDrive/Desktop/GD32VW553/GD32VW55X_Wifi_BLE_SDK/GD32VW55x_RELEASE_V1.0.2/MSDK/plf/GD32VW55x_standard_peripheral/Source\gd32vw55x_timer.c **** /*!
1562:C:/Users/stapi/OneDrive/Desktop/GD32VW553/GD32VW55X_Wifi_BLE_SDK/GD32VW55x_RELEASE_V1.0.2/MSDK/plf/GD32VW55x_standard_peripheral/Source\gd32vw55x_timer.c ****     \brief      select TIMER master mode output trigger source
1563:C:/Users/stapi/OneDrive/Desktop/GD32VW553/GD32VW55X_Wifi_BLE_SDK/GD32VW55x_RELEASE_V1.0.2/MSDK/plf/GD32VW55x_standard_peripheral/Source\gd32vw55x_timer.c ****     \param[in]  timer_periph: TIMERx(x=0,1,2)
1564:C:/Users/stapi/OneDrive/Desktop/GD32VW553/GD32VW55X_Wifi_BLE_SDK/GD32VW55x_RELEASE_V1.0.2/MSDK/plf/GD32VW55x_standard_peripheral/Source\gd32vw55x_timer.c ****     \param[in]  outrigger:
1565:C:/Users/stapi/OneDrive/Desktop/GD32VW553/GD32VW55X_Wifi_BLE_SDK/GD32VW55x_RELEASE_V1.0.2/MSDK/plf/GD32VW55x_standard_peripheral/Source\gd32vw55x_timer.c ****                 only one parameter can be selected which is shown as below:
1566:C:/Users/stapi/OneDrive/Desktop/GD32VW553/GD32VW55X_Wifi_BLE_SDK/GD32VW55x_RELEASE_V1.0.2/MSDK/plf/GD32VW55x_standard_peripheral/Source\gd32vw55x_timer.c ****       \arg        TIMER_TRI_OUT_SRC_RESET: the UPG bit as trigger output
1567:C:/Users/stapi/OneDrive/Desktop/GD32VW553/GD32VW55X_Wifi_BLE_SDK/GD32VW55x_RELEASE_V1.0.2/MSDK/plf/GD32VW55x_standard_peripheral/Source\gd32vw55x_timer.c ****       \arg        TIMER_TRI_OUT_SRC_ENABLE: the counter enable signal TIMER_CTL0_CEN as trigger out
1568:C:/Users/stapi/OneDrive/Desktop/GD32VW553/GD32VW55X_Wifi_BLE_SDK/GD32VW55x_RELEASE_V1.0.2/MSDK/plf/GD32VW55x_standard_peripheral/Source\gd32vw55x_timer.c ****       \arg        TIMER_TRI_OUT_SRC_UPDATE: update event as trigger output
1569:C:/Users/stapi/OneDrive/Desktop/GD32VW553/GD32VW55X_Wifi_BLE_SDK/GD32VW55x_RELEASE_V1.0.2/MSDK/plf/GD32VW55x_standard_peripheral/Source\gd32vw55x_timer.c ****       \arg        TIMER_TRI_OUT_SRC_CH0: a capture or a compare match occurred in channal0 as trigg
1570:C:/Users/stapi/OneDrive/Desktop/GD32VW553/GD32VW55X_Wifi_BLE_SDK/GD32VW55x_RELEASE_V1.0.2/MSDK/plf/GD32VW55x_standard_peripheral/Source\gd32vw55x_timer.c ****       \arg        TIMER_TRI_OUT_SRC_O0CPRE: O0CPRE as trigger output
1571:C:/Users/stapi/OneDrive/Desktop/GD32VW553/GD32VW55X_Wifi_BLE_SDK/GD32VW55x_RELEASE_V1.0.2/MSDK/plf/GD32VW55x_standard_peripheral/Source\gd32vw55x_timer.c ****       \arg        TIMER_TRI_OUT_SRC_O1CPRE: O1CPRE as trigger output
1572:C:/Users/stapi/OneDrive/Desktop/GD32VW553/GD32VW55X_Wifi_BLE_SDK/GD32VW55x_RELEASE_V1.0.2/MSDK/plf/GD32VW55x_standard_peripheral/Source\gd32vw55x_timer.c ****       \arg        TIMER_TRI_OUT_SRC_O2CPRE: O2CPRE as trigger output
1573:C:/Users/stapi/OneDrive/Desktop/GD32VW553/GD32VW55X_Wifi_BLE_SDK/GD32VW55x_RELEASE_V1.0.2/MSDK/plf/GD32VW55x_standard_peripheral/Source\gd32vw55x_timer.c ****       \arg        TIMER_TRI_OUT_SRC_O3CPRE: O3CPRE as trigger output
1574:C:/Users/stapi/OneDrive/Desktop/GD32VW553/GD32VW55X_Wifi_BLE_SDK/GD32VW55x_RELEASE_V1.0.2/MSDK/plf/GD32VW55x_standard_peripheral/Source\gd32vw55x_timer.c ****     \param[out] none
1575:C:/Users/stapi/OneDrive/Desktop/GD32VW553/GD32VW55X_Wifi_BLE_SDK/GD32VW55x_RELEASE_V1.0.2/MSDK/plf/GD32VW55x_standard_peripheral/Source\gd32vw55x_timer.c ****     \retval     none
1576:C:/Users/stapi/OneDrive/Desktop/GD32VW553/GD32VW55X_Wifi_BLE_SDK/GD32VW55x_RELEASE_V1.0.2/MSDK/plf/GD32VW55x_standard_peripheral/Source\gd32vw55x_timer.c **** */
1577:C:/Users/stapi/OneDrive/Desktop/GD32VW553/GD32VW55X_Wifi_BLE_SDK/GD32VW55x_RELEASE_V1.0.2/MSDK/plf/GD32VW55x_standard_peripheral/Source\gd32vw55x_timer.c **** void timer_master_output_trigger_source_select(uint32_t timer_periph, uint32_t outrigger)
1578:C:/Users/stapi/OneDrive/Desktop/GD32VW553/GD32VW55X_Wifi_BLE_SDK/GD32VW55x_RELEASE_V1.0.2/MSDK/plf/GD32VW55x_standard_peripheral/Source\gd32vw55x_timer.c **** {
 2925              		.loc 1 1578 1 is_stmt 1
 2926              		.cfi_startproc
 2927              	.LVL179:
1579:C:/Users/stapi/OneDrive/Desktop/GD32VW553/GD32VW55X_Wifi_BLE_SDK/GD32VW55x_RELEASE_V1.0.2/MSDK/plf/GD32VW55x_standard_peripheral/Source\gd32vw55x_timer.c ****     TIMER_CTL1(timer_periph) &= (~(uint32_t)TIMER_CTL1_MMC);
 2928              		.loc 1 1579 5
 2929              		.loc 1 1579 30 is_stmt 0
 2930 0000 5841     		lw	a4,4(a0)
 2931 0002 1377F7F8 		andi	a4,a4,-113
 2932 0006 58C1     		sw	a4,4(a0)
1580:C:/Users/stapi/OneDrive/Desktop/GD32VW553/GD32VW55X_Wifi_BLE_SDK/GD32VW55x_RELEASE_V1.0.2/MSDK/plf/GD32VW55x_standard_peripheral/Source\gd32vw55x_timer.c ****     TIMER_CTL1(timer_periph) |= (uint32_t)outrigger;
 2933              		.loc 1 1580 5 is_stmt 1
 2934              		.loc 1 1580 30 is_stmt 0
 2935 0008 5C41     		lw	a5,4(a0)
 2936 000a CD8F     		or	a5,a5,a1
 2937 000c 5CC1     		sw	a5,4(a0)
1581:C:/Users/stapi/OneDrive/Desktop/GD32VW553/GD32VW55X_Wifi_BLE_SDK/GD32VW55x_RELEASE_V1.0.2/MSDK/plf/GD32VW55x_standard_peripheral/Source\gd32vw55x_timer.c **** }
 2938              		.loc 1 1581 1
 2939 000e 8280     		ret
 2940              		.cfi_endproc
 2941              	.LFE417:
 2943              		.section	.text.timer_slave_mode_select,"ax",@progbits
 2944              		.align	1
 2945              		.globl	timer_slave_mode_select
 2947              	timer_slave_mode_select:
 2948              	.LFB418:
1582:C:/Users/stapi/OneDrive/Desktop/GD32VW553/GD32VW55X_Wifi_BLE_SDK/GD32VW55x_RELEASE_V1.0.2/MSDK/plf/GD32VW55x_standard_peripheral/Source\gd32vw55x_timer.c **** 
1583:C:/Users/stapi/OneDrive/Desktop/GD32VW553/GD32VW55X_Wifi_BLE_SDK/GD32VW55x_RELEASE_V1.0.2/MSDK/plf/GD32VW55x_standard_peripheral/Source\gd32vw55x_timer.c **** /*!
1584:C:/Users/stapi/OneDrive/Desktop/GD32VW553/GD32VW55X_Wifi_BLE_SDK/GD32VW55x_RELEASE_V1.0.2/MSDK/plf/GD32VW55x_standard_peripheral/Source\gd32vw55x_timer.c ****     \brief      select TIMER slave mode
1585:C:/Users/stapi/OneDrive/Desktop/GD32VW553/GD32VW55X_Wifi_BLE_SDK/GD32VW55x_RELEASE_V1.0.2/MSDK/plf/GD32VW55x_standard_peripheral/Source\gd32vw55x_timer.c ****     \param[in]  timer_periph: TIMERx(x=0,1,2)
1586:C:/Users/stapi/OneDrive/Desktop/GD32VW553/GD32VW55X_Wifi_BLE_SDK/GD32VW55x_RELEASE_V1.0.2/MSDK/plf/GD32VW55x_standard_peripheral/Source\gd32vw55x_timer.c ****     \param[in]  slavemode:
1587:C:/Users/stapi/OneDrive/Desktop/GD32VW553/GD32VW55X_Wifi_BLE_SDK/GD32VW55x_RELEASE_V1.0.2/MSDK/plf/GD32VW55x_standard_peripheral/Source\gd32vw55x_timer.c ****                 only one parameter can be selected which is shown as below:
1588:C:/Users/stapi/OneDrive/Desktop/GD32VW553/GD32VW55X_Wifi_BLE_SDK/GD32VW55x_RELEASE_V1.0.2/MSDK/plf/GD32VW55x_standard_peripheral/Source\gd32vw55x_timer.c ****       \arg        TIMER_SLAVE_MODE_DISABLE: slave mode disable
1589:C:/Users/stapi/OneDrive/Desktop/GD32VW553/GD32VW55X_Wifi_BLE_SDK/GD32VW55x_RELEASE_V1.0.2/MSDK/plf/GD32VW55x_standard_peripheral/Source\gd32vw55x_timer.c ****       \arg        TIMER_QUAD_DECODER_MODE0: quadrature decoder mode 0
1590:C:/Users/stapi/OneDrive/Desktop/GD32VW553/GD32VW55X_Wifi_BLE_SDK/GD32VW55x_RELEASE_V1.0.2/MSDK/plf/GD32VW55x_standard_peripheral/Source\gd32vw55x_timer.c ****       \arg        TIMER_QUAD_DECODER_MODE1: quadrature decoder mode 1
1591:C:/Users/stapi/OneDrive/Desktop/GD32VW553/GD32VW55X_Wifi_BLE_SDK/GD32VW55x_RELEASE_V1.0.2/MSDK/plf/GD32VW55x_standard_peripheral/Source\gd32vw55x_timer.c ****       \arg        TIMER_QUAD_DECODER_MODE2: quadrature decoder mode 2
1592:C:/Users/stapi/OneDrive/Desktop/GD32VW553/GD32VW55X_Wifi_BLE_SDK/GD32VW55x_RELEASE_V1.0.2/MSDK/plf/GD32VW55x_standard_peripheral/Source\gd32vw55x_timer.c ****       \arg        TIMER_SLAVE_MODE_RESTART: restart mode
1593:C:/Users/stapi/OneDrive/Desktop/GD32VW553/GD32VW55X_Wifi_BLE_SDK/GD32VW55x_RELEASE_V1.0.2/MSDK/plf/GD32VW55x_standard_peripheral/Source\gd32vw55x_timer.c ****       \arg        TIMER_SLAVE_MODE_PAUSE: pause mode
1594:C:/Users/stapi/OneDrive/Desktop/GD32VW553/GD32VW55X_Wifi_BLE_SDK/GD32VW55x_RELEASE_V1.0.2/MSDK/plf/GD32VW55x_standard_peripheral/Source\gd32vw55x_timer.c ****       \arg        TIMER_SLAVE_MODE_EVENT: event mode
1595:C:/Users/stapi/OneDrive/Desktop/GD32VW553/GD32VW55X_Wifi_BLE_SDK/GD32VW55x_RELEASE_V1.0.2/MSDK/plf/GD32VW55x_standard_peripheral/Source\gd32vw55x_timer.c ****       \arg        TIMER_SLAVE_MODE_EXTERNAL0: external clock mode 0.
1596:C:/Users/stapi/OneDrive/Desktop/GD32VW553/GD32VW55X_Wifi_BLE_SDK/GD32VW55x_RELEASE_V1.0.2/MSDK/plf/GD32VW55x_standard_peripheral/Source\gd32vw55x_timer.c ****     \param[out] none
1597:C:/Users/stapi/OneDrive/Desktop/GD32VW553/GD32VW55X_Wifi_BLE_SDK/GD32VW55x_RELEASE_V1.0.2/MSDK/plf/GD32VW55x_standard_peripheral/Source\gd32vw55x_timer.c ****     \retval     none
1598:C:/Users/stapi/OneDrive/Desktop/GD32VW553/GD32VW55X_Wifi_BLE_SDK/GD32VW55x_RELEASE_V1.0.2/MSDK/plf/GD32VW55x_standard_peripheral/Source\gd32vw55x_timer.c **** */
1599:C:/Users/stapi/OneDrive/Desktop/GD32VW553/GD32VW55X_Wifi_BLE_SDK/GD32VW55x_RELEASE_V1.0.2/MSDK/plf/GD32VW55x_standard_peripheral/Source\gd32vw55x_timer.c **** void timer_slave_mode_select(uint32_t timer_periph, uint32_t slavemode)
1600:C:/Users/stapi/OneDrive/Desktop/GD32VW553/GD32VW55X_Wifi_BLE_SDK/GD32VW55x_RELEASE_V1.0.2/MSDK/plf/GD32VW55x_standard_peripheral/Source\gd32vw55x_timer.c **** {
 2949              		.loc 1 1600 1 is_stmt 1
 2950              		.cfi_startproc
 2951              	.LVL180:
1601:C:/Users/stapi/OneDrive/Desktop/GD32VW553/GD32VW55X_Wifi_BLE_SDK/GD32VW55x_RELEASE_V1.0.2/MSDK/plf/GD32VW55x_standard_peripheral/Source\gd32vw55x_timer.c ****     uint32_t TIMERxCFG_temp = 0U;
 2952              		.loc 1 1601 5
1602:C:/Users/stapi/OneDrive/Desktop/GD32VW553/GD32VW55X_Wifi_BLE_SDK/GD32VW55x_RELEASE_V1.0.2/MSDK/plf/GD32VW55x_standard_peripheral/Source\gd32vw55x_timer.c ****     volatile uint32_t *TIMERxCFG_addr = NULL;
 2953              		.loc 1 1602 5
1603:C:/Users/stapi/OneDrive/Desktop/GD32VW553/GD32VW55X_Wifi_BLE_SDK/GD32VW55x_RELEASE_V1.0.2/MSDK/plf/GD32VW55x_standard_peripheral/Source\gd32vw55x_timer.c ****     uint32_t trigger_temp = 0U;
 2954              		.loc 1 1603 5
1604:C:/Users/stapi/OneDrive/Desktop/GD32VW553/GD32VW55X_Wifi_BLE_SDK/GD32VW55x_RELEASE_V1.0.2/MSDK/plf/GD32VW55x_standard_peripheral/Source\gd32vw55x_timer.c ****     uint8_t i = 0U;
 2955              		.loc 1 1604 5
1605:C:/Users/stapi/OneDrive/Desktop/GD32VW553/GD32VW55X_Wifi_BLE_SDK/GD32VW55x_RELEASE_V1.0.2/MSDK/plf/GD32VW55x_standard_peripheral/Source\gd32vw55x_timer.c **** 
1606:C:/Users/stapi/OneDrive/Desktop/GD32VW553/GD32VW55X_Wifi_BLE_SDK/GD32VW55x_RELEASE_V1.0.2/MSDK/plf/GD32VW55x_standard_peripheral/Source\gd32vw55x_timer.c ****     switch(timer_periph) {
 2956              		.loc 1 1606 5
 2957 0000 B7070040 		li	a5,1073741824
 2958 0004 13870740 		addi	a4,a5,1024
 2959 0008 630EE504 		beq	a0,a4,.L219
 2960 000c 37070140 		li	a4,1073807360
 2961 0010 630FE504 		beq	a0,a4,.L220
 2962 0014 6312F506 		bne	a0,a5,.L215
 2963 0018 B7470140 		li	a5,1073823744
 2964 001c 93874790 		addi	a5,a5,-1788
 2965              	.L214:
 2966              	.LVL181:
1607:C:/Users/stapi/OneDrive/Desktop/GD32VW553/GD32VW55X_Wifi_BLE_SDK/GD32VW55x_RELEASE_V1.0.2/MSDK/plf/GD32VW55x_standard_peripheral/Source\gd32vw55x_timer.c ****     case TIMER0:
1608:C:/Users/stapi/OneDrive/Desktop/GD32VW553/GD32VW55X_Wifi_BLE_SDK/GD32VW55x_RELEASE_V1.0.2/MSDK/plf/GD32VW55x_standard_peripheral/Source\gd32vw55x_timer.c ****         TIMERxCFG_addr = &SYSCFG_TIMER0CFG;
1609:C:/Users/stapi/OneDrive/Desktop/GD32VW553/GD32VW55X_Wifi_BLE_SDK/GD32VW55x_RELEASE_V1.0.2/MSDK/plf/GD32VW55x_standard_peripheral/Source\gd32vw55x_timer.c ****         break;
1610:C:/Users/stapi/OneDrive/Desktop/GD32VW553/GD32VW55X_Wifi_BLE_SDK/GD32VW55x_RELEASE_V1.0.2/MSDK/plf/GD32VW55x_standard_peripheral/Source\gd32vw55x_timer.c ****     case TIMER1:
1611:C:/Users/stapi/OneDrive/Desktop/GD32VW553/GD32VW55X_Wifi_BLE_SDK/GD32VW55x_RELEASE_V1.0.2/MSDK/plf/GD32VW55x_standard_peripheral/Source\gd32vw55x_timer.c ****         TIMERxCFG_addr = &SYSCFG_TIMER1CFG;
1612:C:/Users/stapi/OneDrive/Desktop/GD32VW553/GD32VW55X_Wifi_BLE_SDK/GD32VW55x_RELEASE_V1.0.2/MSDK/plf/GD32VW55x_standard_peripheral/Source\gd32vw55x_timer.c ****         break;
1613:C:/Users/stapi/OneDrive/Desktop/GD32VW553/GD32VW55X_Wifi_BLE_SDK/GD32VW55x_RELEASE_V1.0.2/MSDK/plf/GD32VW55x_standard_peripheral/Source\gd32vw55x_timer.c ****     case TIMER2:
1614:C:/Users/stapi/OneDrive/Desktop/GD32VW553/GD32VW55X_Wifi_BLE_SDK/GD32VW55x_RELEASE_V1.0.2/MSDK/plf/GD32VW55x_standard_peripheral/Source\gd32vw55x_timer.c ****         TIMERxCFG_addr = &SYSCFG_TIMER2CFG;
1615:C:/Users/stapi/OneDrive/Desktop/GD32VW553/GD32VW55X_Wifi_BLE_SDK/GD32VW55x_RELEASE_V1.0.2/MSDK/plf/GD32VW55x_standard_peripheral/Source\gd32vw55x_timer.c ****         break;
1616:C:/Users/stapi/OneDrive/Desktop/GD32VW553/GD32VW55X_Wifi_BLE_SDK/GD32VW55x_RELEASE_V1.0.2/MSDK/plf/GD32VW55x_standard_peripheral/Source\gd32vw55x_timer.c ****     default:
1617:C:/Users/stapi/OneDrive/Desktop/GD32VW553/GD32VW55X_Wifi_BLE_SDK/GD32VW55x_RELEASE_V1.0.2/MSDK/plf/GD32VW55x_standard_peripheral/Source\gd32vw55x_timer.c ****          break;
1618:C:/Users/stapi/OneDrive/Desktop/GD32VW553/GD32VW55X_Wifi_BLE_SDK/GD32VW55x_RELEASE_V1.0.2/MSDK/plf/GD32VW55x_standard_peripheral/Source\gd32vw55x_timer.c ****      }
1619:C:/Users/stapi/OneDrive/Desktop/GD32VW553/GD32VW55X_Wifi_BLE_SDK/GD32VW55x_RELEASE_V1.0.2/MSDK/plf/GD32VW55x_standard_peripheral/Source\gd32vw55x_timer.c **** 
1620:C:/Users/stapi/OneDrive/Desktop/GD32VW553/GD32VW55X_Wifi_BLE_SDK/GD32VW55x_RELEASE_V1.0.2/MSDK/plf/GD32VW55x_standard_peripheral/Source\gd32vw55x_timer.c ****     TIMERxCFG_temp = REG32(TIMERxCFG_addr);
 2967              		.loc 1 1620 5
 2968              		.loc 1 1620 20 is_stmt 0
 2969 0020 03A80700 		lw	a6,0(a5)
 2970              	.LVL182:
1621:C:/Users/stapi/OneDrive/Desktop/GD32VW553/GD32VW55X_Wifi_BLE_SDK/GD32VW55x_RELEASE_V1.0.2/MSDK/plf/GD32VW55x_standard_peripheral/Source\gd32vw55x_timer.c ****     if((TIMERxCFG_temp & 0xFFFFFFFFU) == 0U) {
 2971              		.loc 1 1621 5 is_stmt 1
1622:C:/Users/stapi/OneDrive/Desktop/GD32VW553/GD32VW55X_Wifi_BLE_SDK/GD32VW55x_RELEASE_V1.0.2/MSDK/plf/GD32VW55x_standard_peripheral/Source\gd32vw55x_timer.c ****         TIMERxCFG_temp = 0xF << (slavemode * 4U);
 2972              		.loc 1 1622 44 is_stmt 0
 2973 0024 8A05     		slli	a1,a1,2
 2974              	.LVL183:
 2975              		.loc 1 1622 30
 2976 0026 3D47     		li	a4,15
1621:C:/Users/stapi/OneDrive/Desktop/GD32VW553/GD32VW55X_Wifi_BLE_SDK/GD32VW55x_RELEASE_V1.0.2/MSDK/plf/GD32VW55x_standard_peripheral/Source\gd32vw55x_timer.c ****     if((TIMERxCFG_temp & 0xFFFFFFFFU) == 0U) {
 2977              		.loc 1 1621 7
 2978 0028 630A0802 		beq	a6,zero,.L224
 2979 002c 0146     		li	a2,0
1623:C:/Users/stapi/OneDrive/Desktop/GD32VW553/GD32VW55X_Wifi_BLE_SDK/GD32VW55x_RELEASE_V1.0.2/MSDK/plf/GD32VW55x_standard_peripheral/Source\gd32vw55x_timer.c ****     } else {
1624:C:/Users/stapi/OneDrive/Desktop/GD32VW553/GD32VW55X_Wifi_BLE_SDK/GD32VW55x_RELEASE_V1.0.2/MSDK/plf/GD32VW55x_standard_peripheral/Source\gd32vw55x_timer.c ****         for(i = 0U; i < 8U; i++) {
1625:C:/Users/stapi/OneDrive/Desktop/GD32VW553/GD32VW55X_Wifi_BLE_SDK/GD32VW55x_RELEASE_V1.0.2/MSDK/plf/GD32VW55x_standard_peripheral/Source\gd32vw55x_timer.c ****             if((TIMERxCFG_temp & (BITS(0,3) << (i * 4U))) != 0U) break;
 2980              		.loc 1 1625 45
 2981 002e BD48     		li	a7,15
1624:C:/Users/stapi/OneDrive/Desktop/GD32VW553/GD32VW55X_Wifi_BLE_SDK/GD32VW55x_RELEASE_V1.0.2/MSDK/plf/GD32VW55x_standard_peripheral/Source\gd32vw55x_timer.c ****             if((TIMERxCFG_temp & (BITS(0,3) << (i * 4U))) != 0U) break;
 2982              		.loc 1 1624 9
 2983 0030 2147     		li	a4,8
 2984              	.LVL184:
 2985              	.L216:
 2986              		.loc 1 1625 45
 2987 0032 13152600 		slli	a0,a2,2
 2988 0036 3395A800 		sll	a0,a7,a0
 2989              		.loc 1 1625 32
 2990 003a 33750501 		and	a0,a0,a6
 2991 003e 9376F60F 		andi	a3,a2,0xff
 2992              	.LVL185:
 2993              		.loc 1 1625 13 is_stmt 1
 2994              		.loc 1 1625 15 is_stmt 0
 2995 0042 09E5     		bne	a0,zero,.L218
1624:C:/Users/stapi/OneDrive/Desktop/GD32VW553/GD32VW55X_Wifi_BLE_SDK/GD32VW55x_RELEASE_V1.0.2/MSDK/plf/GD32VW55x_standard_peripheral/Source\gd32vw55x_timer.c ****             if((TIMERxCFG_temp & (BITS(0,3) << (i * 4U))) != 0U) break;
 2996              		.loc 1 1624 29 is_stmt 1 discriminator 2
 2997              	.LVL186:
1624:C:/Users/stapi/OneDrive/Desktop/GD32VW553/GD32VW55X_Wifi_BLE_SDK/GD32VW55x_RELEASE_V1.0.2/MSDK/plf/GD32VW55x_standard_peripheral/Source\gd32vw55x_timer.c ****             if((TIMERxCFG_temp & (BITS(0,3) << (i * 4U))) != 0U) break;
 2998              		.loc 1 1624 21 discriminator 2
1624:C:/Users/stapi/OneDrive/Desktop/GD32VW553/GD32VW55X_Wifi_BLE_SDK/GD32VW55x_RELEASE_V1.0.2/MSDK/plf/GD32VW55x_standard_peripheral/Source\gd32vw55x_timer.c ****             if((TIMERxCFG_temp & (BITS(0,3) << (i * 4U))) != 0U) break;
 2999              		.loc 1 1624 9 is_stmt 0 discriminator 2
 3000 0044 0506     		addi	a2,a2,1
 3001              	.LVL187:
 3002 0046 E316E6FE 		bne	a2,a4,.L216
 3003 004a A146     		li	a3,8
 3004              	.LVL188:
 3005              	.L218:
1626:C:/Users/stapi/OneDrive/Desktop/GD32VW553/GD32VW55X_Wifi_BLE_SDK/GD32VW55x_RELEASE_V1.0.2/MSDK/plf/GD32VW55x_standard_peripheral/Source\gd32vw55x_timer.c ****         }
1627:C:/Users/stapi/OneDrive/Desktop/GD32VW553/GD32VW55X_Wifi_BLE_SDK/GD32VW55x_RELEASE_V1.0.2/MSDK/plf/GD32VW55x_standard_peripheral/Source\gd32vw55x_timer.c ****         trigger_temp = (TIMERxCFG_temp & (BITS(0,3) << (i * 4U))) >> (i * 4U);
 3006              		.loc 1 1627 9 is_stmt 1
 3007              		.loc 1 1627 59 is_stmt 0
 3008 004c 8A06     		slli	a3,a3,2
 3009              		.loc 1 1627 53
 3010 004e 3D47     		li	a4,15
 3011 0050 3317D700 		sll	a4,a4,a3
 3012              		.loc 1 1627 40
 3013 0054 33770701 		and	a4,a4,a6
 3014              		.loc 1 1627 22
 3015 0058 3357D700 		srl	a4,a4,a3
 3016              	.L224:
 3017              	.LVL189:
1628:C:/Users/stapi/OneDrive/Desktop/GD32VW553/GD32VW55X_Wifi_BLE_SDK/GD32VW55x_RELEASE_V1.0.2/MSDK/plf/GD32VW55x_standard_peripheral/Source\gd32vw55x_timer.c ****         TIMERxCFG_temp = trigger_temp << (slavemode * 4U);
 3018              		.loc 1 1628 9 is_stmt 1
 3019              		.loc 1 1628 24 is_stmt 0
 3020 005c B315B700 		sll	a1,a4,a1
 3021              	.LVL190:
1629:C:/Users/stapi/OneDrive/Desktop/GD32VW553/GD32VW55X_Wifi_BLE_SDK/GD32VW55x_RELEASE_V1.0.2/MSDK/plf/GD32VW55x_standard_peripheral/Source\gd32vw55x_timer.c ****     }
1630:C:/Users/stapi/OneDrive/Desktop/GD32VW553/GD32VW55X_Wifi_BLE_SDK/GD32VW55x_RELEASE_V1.0.2/MSDK/plf/GD32VW55x_standard_peripheral/Source\gd32vw55x_timer.c **** 
1631:C:/Users/stapi/OneDrive/Desktop/GD32VW553/GD32VW55X_Wifi_BLE_SDK/GD32VW55x_RELEASE_V1.0.2/MSDK/plf/GD32VW55x_standard_peripheral/Source\gd32vw55x_timer.c ****     REG32(TIMERxCFG_addr) = TIMERxCFG_temp;
 3022              		.loc 1 1631 5 is_stmt 1
 3023              		.loc 1 1631 27 is_stmt 0
 3024 0060 8CC3     		sw	a1,0(a5)
1632:C:/Users/stapi/OneDrive/Desktop/GD32VW553/GD32VW55X_Wifi_BLE_SDK/GD32VW55x_RELEASE_V1.0.2/MSDK/plf/GD32VW55x_standard_peripheral/Source\gd32vw55x_timer.c **** }
 3025              		.loc 1 1632 1
 3026 0062 8280     		ret
 3027              	.LVL191:
 3028              	.L219:
1614:C:/Users/stapi/OneDrive/Desktop/GD32VW553/GD32VW55X_Wifi_BLE_SDK/GD32VW55x_RELEASE_V1.0.2/MSDK/plf/GD32VW55x_standard_peripheral/Source\gd32vw55x_timer.c ****         break;
 3029              		.loc 1 1614 24
 3030 0064 B7470140 		li	a5,1073823744
 3031 0068 93878790 		addi	a5,a5,-1784
 3032 006c 55BF     		j	.L214
 3033              	.L220:
1608:C:/Users/stapi/OneDrive/Desktop/GD32VW553/GD32VW55X_Wifi_BLE_SDK/GD32VW55x_RELEASE_V1.0.2/MSDK/plf/GD32VW55x_standard_peripheral/Source\gd32vw55x_timer.c ****         break;
 3034              		.loc 1 1608 24
 3035 006e B7470140 		li	a5,1073823744
 3036 0072 93870790 		addi	a5,a5,-1792
 3037 0076 6DB7     		j	.L214
 3038              	.L215:
1620:C:/Users/stapi/OneDrive/Desktop/GD32VW553/GD32VW55X_Wifi_BLE_SDK/GD32VW55x_RELEASE_V1.0.2/MSDK/plf/GD32VW55x_standard_peripheral/Source\gd32vw55x_timer.c ****     if((TIMERxCFG_temp & 0xFFFFFFFFU) == 0U) {
 3039              		.loc 1 1620 5 is_stmt 1
1620:C:/Users/stapi/OneDrive/Desktop/GD32VW553/GD32VW55X_Wifi_BLE_SDK/GD32VW55x_RELEASE_V1.0.2/MSDK/plf/GD32VW55x_standard_peripheral/Source\gd32vw55x_timer.c ****     if((TIMERxCFG_temp & 0xFFFFFFFFU) == 0U) {
 3040              		.loc 1 1620 20 is_stmt 0
 3041 0078 83270000 		lw	a5,0(zero)
 3042              	.LVL192:
 3043 007c 0290     		ebreak
 3044              		.cfi_endproc
 3045              	.LFE418:
 3047              		.section	.text.timer_master_slave_mode_config,"ax",@progbits
 3048              		.align	1
 3049              		.globl	timer_master_slave_mode_config
 3051              	timer_master_slave_mode_config:
 3052              	.LFB419:
1633:C:/Users/stapi/OneDrive/Desktop/GD32VW553/GD32VW55X_Wifi_BLE_SDK/GD32VW55x_RELEASE_V1.0.2/MSDK/plf/GD32VW55x_standard_peripheral/Source\gd32vw55x_timer.c **** 
1634:C:/Users/stapi/OneDrive/Desktop/GD32VW553/GD32VW55X_Wifi_BLE_SDK/GD32VW55x_RELEASE_V1.0.2/MSDK/plf/GD32VW55x_standard_peripheral/Source\gd32vw55x_timer.c **** /*!
1635:C:/Users/stapi/OneDrive/Desktop/GD32VW553/GD32VW55X_Wifi_BLE_SDK/GD32VW55x_RELEASE_V1.0.2/MSDK/plf/GD32VW55x_standard_peripheral/Source\gd32vw55x_timer.c ****     \brief      configure TIMER master slave mode
1636:C:/Users/stapi/OneDrive/Desktop/GD32VW553/GD32VW55X_Wifi_BLE_SDK/GD32VW55x_RELEASE_V1.0.2/MSDK/plf/GD32VW55x_standard_peripheral/Source\gd32vw55x_timer.c ****     \param[in]  timer_periph: TIMERx(x=0,1,2)
1637:C:/Users/stapi/OneDrive/Desktop/GD32VW553/GD32VW55X_Wifi_BLE_SDK/GD32VW55x_RELEASE_V1.0.2/MSDK/plf/GD32VW55x_standard_peripheral/Source\gd32vw55x_timer.c ****     \param[in]  masterslave:
1638:C:/Users/stapi/OneDrive/Desktop/GD32VW553/GD32VW55X_Wifi_BLE_SDK/GD32VW55x_RELEASE_V1.0.2/MSDK/plf/GD32VW55x_standard_peripheral/Source\gd32vw55x_timer.c ****                 only one parameter can be selected which is shown as below:
1639:C:/Users/stapi/OneDrive/Desktop/GD32VW553/GD32VW55X_Wifi_BLE_SDK/GD32VW55x_RELEASE_V1.0.2/MSDK/plf/GD32VW55x_standard_peripheral/Source\gd32vw55x_timer.c ****       \arg        TIMER_MASTER_SLAVE_MODE_ENABLE: master slave mode enable
1640:C:/Users/stapi/OneDrive/Desktop/GD32VW553/GD32VW55X_Wifi_BLE_SDK/GD32VW55x_RELEASE_V1.0.2/MSDK/plf/GD32VW55x_standard_peripheral/Source\gd32vw55x_timer.c ****       \arg        TIMER_MASTER_SLAVE_MODE_DISABLE: master slave mode disable
1641:C:/Users/stapi/OneDrive/Desktop/GD32VW553/GD32VW55X_Wifi_BLE_SDK/GD32VW55x_RELEASE_V1.0.2/MSDK/plf/GD32VW55x_standard_peripheral/Source\gd32vw55x_timer.c ****     \param[out] none
1642:C:/Users/stapi/OneDrive/Desktop/GD32VW553/GD32VW55X_Wifi_BLE_SDK/GD32VW55x_RELEASE_V1.0.2/MSDK/plf/GD32VW55x_standard_peripheral/Source\gd32vw55x_timer.c ****     \retval     none
1643:C:/Users/stapi/OneDrive/Desktop/GD32VW553/GD32VW55X_Wifi_BLE_SDK/GD32VW55x_RELEASE_V1.0.2/MSDK/plf/GD32VW55x_standard_peripheral/Source\gd32vw55x_timer.c **** */
1644:C:/Users/stapi/OneDrive/Desktop/GD32VW553/GD32VW55X_Wifi_BLE_SDK/GD32VW55x_RELEASE_V1.0.2/MSDK/plf/GD32VW55x_standard_peripheral/Source\gd32vw55x_timer.c **** void timer_master_slave_mode_config(uint32_t timer_periph, uint32_t masterslave)
1645:C:/Users/stapi/OneDrive/Desktop/GD32VW553/GD32VW55X_Wifi_BLE_SDK/GD32VW55x_RELEASE_V1.0.2/MSDK/plf/GD32VW55x_standard_peripheral/Source\gd32vw55x_timer.c **** {
 3053              		.loc 1 1645 1 is_stmt 1
 3054              		.cfi_startproc
 3055              	.LVL193:
1646:C:/Users/stapi/OneDrive/Desktop/GD32VW553/GD32VW55X_Wifi_BLE_SDK/GD32VW55x_RELEASE_V1.0.2/MSDK/plf/GD32VW55x_standard_peripheral/Source\gd32vw55x_timer.c ****     if(TIMER_MASTER_SLAVE_MODE_ENABLE == masterslave){
 3056              		.loc 1 1646 5
 3057              		.loc 1 1646 7 is_stmt 0
 3058 0000 91E5     		bne	a1,zero,.L226
1647:C:/Users/stapi/OneDrive/Desktop/GD32VW553/GD32VW55X_Wifi_BLE_SDK/GD32VW55x_RELEASE_V1.0.2/MSDK/plf/GD32VW55x_standard_peripheral/Source\gd32vw55x_timer.c ****         TIMER_SMCFG(timer_periph) |= (uint32_t)TIMER_SMCFG_MSM;
 3059              		.loc 1 1647 9 is_stmt 1
 3060              		.loc 1 1647 35 is_stmt 0
 3061 0002 1C45     		lw	a5,8(a0)
 3062 0004 93E70708 		ori	a5,a5,128
 3063              	.L228:
1648:C:/Users/stapi/OneDrive/Desktop/GD32VW553/GD32VW55X_Wifi_BLE_SDK/GD32VW55x_RELEASE_V1.0.2/MSDK/plf/GD32VW55x_standard_peripheral/Source\gd32vw55x_timer.c ****     }else if(TIMER_MASTER_SLAVE_MODE_DISABLE == masterslave){
1649:C:/Users/stapi/OneDrive/Desktop/GD32VW553/GD32VW55X_Wifi_BLE_SDK/GD32VW55x_RELEASE_V1.0.2/MSDK/plf/GD32VW55x_standard_peripheral/Source\gd32vw55x_timer.c ****         TIMER_SMCFG(timer_periph) &= ~(uint32_t)TIMER_SMCFG_MSM;
 3064              		.loc 1 1649 35
 3065 0008 1CC5     		sw	a5,8(a0)
1650:C:/Users/stapi/OneDrive/Desktop/GD32VW553/GD32VW55X_Wifi_BLE_SDK/GD32VW55x_RELEASE_V1.0.2/MSDK/plf/GD32VW55x_standard_peripheral/Source\gd32vw55x_timer.c ****     }else{
1651:C:/Users/stapi/OneDrive/Desktop/GD32VW553/GD32VW55X_Wifi_BLE_SDK/GD32VW55x_RELEASE_V1.0.2/MSDK/plf/GD32VW55x_standard_peripheral/Source\gd32vw55x_timer.c ****         /* illegal parameters */
1652:C:/Users/stapi/OneDrive/Desktop/GD32VW553/GD32VW55X_Wifi_BLE_SDK/GD32VW55x_RELEASE_V1.0.2/MSDK/plf/GD32VW55x_standard_peripheral/Source\gd32vw55x_timer.c ****     }
 3066              		.loc 1 1652 5 is_stmt 1
 3067              	.L225:
1653:C:/Users/stapi/OneDrive/Desktop/GD32VW553/GD32VW55X_Wifi_BLE_SDK/GD32VW55x_RELEASE_V1.0.2/MSDK/plf/GD32VW55x_standard_peripheral/Source\gd32vw55x_timer.c **** }
 3068              		.loc 1 1653 1 is_stmt 0
 3069 000a 8280     		ret
 3070              	.L226:
1648:C:/Users/stapi/OneDrive/Desktop/GD32VW553/GD32VW55X_Wifi_BLE_SDK/GD32VW55x_RELEASE_V1.0.2/MSDK/plf/GD32VW55x_standard_peripheral/Source\gd32vw55x_timer.c ****     }else if(TIMER_MASTER_SLAVE_MODE_DISABLE == masterslave){
 3071              		.loc 1 1648 11 is_stmt 1
1648:C:/Users/stapi/OneDrive/Desktop/GD32VW553/GD32VW55X_Wifi_BLE_SDK/GD32VW55x_RELEASE_V1.0.2/MSDK/plf/GD32VW55x_standard_peripheral/Source\gd32vw55x_timer.c ****     }else if(TIMER_MASTER_SLAVE_MODE_DISABLE == masterslave){
 3072              		.loc 1 1648 13 is_stmt 0
 3073 000c 8547     		li	a5,1
 3074 000e E39EF5FE 		bne	a1,a5,.L225
1649:C:/Users/stapi/OneDrive/Desktop/GD32VW553/GD32VW55X_Wifi_BLE_SDK/GD32VW55x_RELEASE_V1.0.2/MSDK/plf/GD32VW55x_standard_peripheral/Source\gd32vw55x_timer.c ****     }else{
 3075              		.loc 1 1649 9 is_stmt 1
1649:C:/Users/stapi/OneDrive/Desktop/GD32VW553/GD32VW55X_Wifi_BLE_SDK/GD32VW55x_RELEASE_V1.0.2/MSDK/plf/GD32VW55x_standard_peripheral/Source\gd32vw55x_timer.c ****     }else{
 3076              		.loc 1 1649 35 is_stmt 0
 3077 0012 1C45     		lw	a5,8(a0)
 3078 0014 93F7F7F7 		andi	a5,a5,-129
 3079 0018 C5BF     		j	.L228
 3080              		.cfi_endproc
 3081              	.LFE419:
 3083              		.section	.text.timer_external_trigger_config,"ax",@progbits
 3084              		.align	1
 3085              		.globl	timer_external_trigger_config
 3087              	timer_external_trigger_config:
 3088              	.LFB420:
1654:C:/Users/stapi/OneDrive/Desktop/GD32VW553/GD32VW55X_Wifi_BLE_SDK/GD32VW55x_RELEASE_V1.0.2/MSDK/plf/GD32VW55x_standard_peripheral/Source\gd32vw55x_timer.c **** 
1655:C:/Users/stapi/OneDrive/Desktop/GD32VW553/GD32VW55X_Wifi_BLE_SDK/GD32VW55x_RELEASE_V1.0.2/MSDK/plf/GD32VW55x_standard_peripheral/Source\gd32vw55x_timer.c **** /*!
1656:C:/Users/stapi/OneDrive/Desktop/GD32VW553/GD32VW55X_Wifi_BLE_SDK/GD32VW55x_RELEASE_V1.0.2/MSDK/plf/GD32VW55x_standard_peripheral/Source\gd32vw55x_timer.c ****     \brief      configure TIMER external trigger input
1657:C:/Users/stapi/OneDrive/Desktop/GD32VW553/GD32VW55X_Wifi_BLE_SDK/GD32VW55x_RELEASE_V1.0.2/MSDK/plf/GD32VW55x_standard_peripheral/Source\gd32vw55x_timer.c ****     \param[in]  timer_periph: TIMERx(x=0,1,2)
1658:C:/Users/stapi/OneDrive/Desktop/GD32VW553/GD32VW55X_Wifi_BLE_SDK/GD32VW55x_RELEASE_V1.0.2/MSDK/plf/GD32VW55x_standard_peripheral/Source\gd32vw55x_timer.c ****     \param[in]  extprescaler:
1659:C:/Users/stapi/OneDrive/Desktop/GD32VW553/GD32VW55X_Wifi_BLE_SDK/GD32VW55x_RELEASE_V1.0.2/MSDK/plf/GD32VW55x_standard_peripheral/Source\gd32vw55x_timer.c ****                 only one parameter can be selected which is shown as below:
1660:C:/Users/stapi/OneDrive/Desktop/GD32VW553/GD32VW55X_Wifi_BLE_SDK/GD32VW55x_RELEASE_V1.0.2/MSDK/plf/GD32VW55x_standard_peripheral/Source\gd32vw55x_timer.c ****       \arg        TIMER_EXT_TRI_PSC_OFF: no divided
1661:C:/Users/stapi/OneDrive/Desktop/GD32VW553/GD32VW55X_Wifi_BLE_SDK/GD32VW55x_RELEASE_V1.0.2/MSDK/plf/GD32VW55x_standard_peripheral/Source\gd32vw55x_timer.c ****       \arg        TIMER_EXT_TRI_PSC_DIV2: divided by 2
1662:C:/Users/stapi/OneDrive/Desktop/GD32VW553/GD32VW55X_Wifi_BLE_SDK/GD32VW55x_RELEASE_V1.0.2/MSDK/plf/GD32VW55x_standard_peripheral/Source\gd32vw55x_timer.c ****       \arg        TIMER_EXT_TRI_PSC_DIV4: divided by 4
1663:C:/Users/stapi/OneDrive/Desktop/GD32VW553/GD32VW55X_Wifi_BLE_SDK/GD32VW55x_RELEASE_V1.0.2/MSDK/plf/GD32VW55x_standard_peripheral/Source\gd32vw55x_timer.c ****       \arg        TIMER_EXT_TRI_PSC_DIV8: divided by 8
1664:C:/Users/stapi/OneDrive/Desktop/GD32VW553/GD32VW55X_Wifi_BLE_SDK/GD32VW55x_RELEASE_V1.0.2/MSDK/plf/GD32VW55x_standard_peripheral/Source\gd32vw55x_timer.c ****     \param[in]  extpolarity:
1665:C:/Users/stapi/OneDrive/Desktop/GD32VW553/GD32VW55X_Wifi_BLE_SDK/GD32VW55x_RELEASE_V1.0.2/MSDK/plf/GD32VW55x_standard_peripheral/Source\gd32vw55x_timer.c ****                 only one parameter can be selected which is shown as below:
1666:C:/Users/stapi/OneDrive/Desktop/GD32VW553/GD32VW55X_Wifi_BLE_SDK/GD32VW55x_RELEASE_V1.0.2/MSDK/plf/GD32VW55x_standard_peripheral/Source\gd32vw55x_timer.c ****       \arg        TIMER_ETP_FALLING: active low or falling edge active
1667:C:/Users/stapi/OneDrive/Desktop/GD32VW553/GD32VW55X_Wifi_BLE_SDK/GD32VW55x_RELEASE_V1.0.2/MSDK/plf/GD32VW55x_standard_peripheral/Source\gd32vw55x_timer.c ****       \arg        TIMER_ETP_RISING: active high or rising edge active
1668:C:/Users/stapi/OneDrive/Desktop/GD32VW553/GD32VW55X_Wifi_BLE_SDK/GD32VW55x_RELEASE_V1.0.2/MSDK/plf/GD32VW55x_standard_peripheral/Source\gd32vw55x_timer.c ****     \param[in]  extfilter: a value between 0 and 15
1669:C:/Users/stapi/OneDrive/Desktop/GD32VW553/GD32VW55X_Wifi_BLE_SDK/GD32VW55x_RELEASE_V1.0.2/MSDK/plf/GD32VW55x_standard_peripheral/Source\gd32vw55x_timer.c ****     \param[out] none
1670:C:/Users/stapi/OneDrive/Desktop/GD32VW553/GD32VW55X_Wifi_BLE_SDK/GD32VW55x_RELEASE_V1.0.2/MSDK/plf/GD32VW55x_standard_peripheral/Source\gd32vw55x_timer.c ****     \retval     none
1671:C:/Users/stapi/OneDrive/Desktop/GD32VW553/GD32VW55X_Wifi_BLE_SDK/GD32VW55x_RELEASE_V1.0.2/MSDK/plf/GD32VW55x_standard_peripheral/Source\gd32vw55x_timer.c **** */
1672:C:/Users/stapi/OneDrive/Desktop/GD32VW553/GD32VW55X_Wifi_BLE_SDK/GD32VW55x_RELEASE_V1.0.2/MSDK/plf/GD32VW55x_standard_peripheral/Source\gd32vw55x_timer.c **** void timer_external_trigger_config(uint32_t timer_periph, uint32_t extprescaler, uint32_t extpolari
1673:C:/Users/stapi/OneDrive/Desktop/GD32VW553/GD32VW55X_Wifi_BLE_SDK/GD32VW55x_RELEASE_V1.0.2/MSDK/plf/GD32VW55x_standard_peripheral/Source\gd32vw55x_timer.c **** {
 3089              		.loc 1 1673 1 is_stmt 1
 3090              		.cfi_startproc
 3091              	.LVL194:
1674:C:/Users/stapi/OneDrive/Desktop/GD32VW553/GD32VW55X_Wifi_BLE_SDK/GD32VW55x_RELEASE_V1.0.2/MSDK/plf/GD32VW55x_standard_peripheral/Source\gd32vw55x_timer.c ****     TIMER_SMCFG(timer_periph) &= (~(uint32_t)(TIMER_SMCFG_ETP | TIMER_SMCFG_ETPSC | TIMER_SMCFG_ETF
 3092              		.loc 1 1674 5
 3093              		.loc 1 1674 31 is_stmt 0
 3094 0000 1C45     		lw	a5,8(a0)
 3095 0002 5177     		li	a4,-49152
 3096 0004 1307F70F 		addi	a4,a4,255
 3097 0008 F98F     		and	a5,a5,a4
 3098 000a 1CC5     		sw	a5,8(a0)
1675:C:/Users/stapi/OneDrive/Desktop/GD32VW553/GD32VW55X_Wifi_BLE_SDK/GD32VW55x_RELEASE_V1.0.2/MSDK/plf/GD32VW55x_standard_peripheral/Source\gd32vw55x_timer.c ****     TIMER_SMCFG(timer_periph) |= (uint32_t)(extprescaler | extpolarity);
 3099              		.loc 1 1675 5 is_stmt 1
 3100              		.loc 1 1675 31 is_stmt 0
 3101 000c 1C45     		lw	a5,8(a0)
 3102              		.loc 1 1675 58
 3103 000e D18D     		or	a1,a1,a2
 3104              	.LVL195:
1676:C:/Users/stapi/OneDrive/Desktop/GD32VW553/GD32VW55X_Wifi_BLE_SDK/GD32VW55x_RELEASE_V1.0.2/MSDK/plf/GD32VW55x_standard_peripheral/Source\gd32vw55x_timer.c ****     TIMER_SMCFG(timer_periph) |= (uint32_t)(extfilter << 8U);
 3105              		.loc 1 1676 55
 3106 0010 A206     		slli	a3,a3,8
 3107              	.LVL196:
1675:C:/Users/stapi/OneDrive/Desktop/GD32VW553/GD32VW55X_Wifi_BLE_SDK/GD32VW55x_RELEASE_V1.0.2/MSDK/plf/GD32VW55x_standard_peripheral/Source\gd32vw55x_timer.c ****     TIMER_SMCFG(timer_periph) |= (uint32_t)(extprescaler | extpolarity);
 3108              		.loc 1 1675 31
 3109 0012 DD8D     		or	a1,a1,a5
 3110 0014 0CC5     		sw	a1,8(a0)
 3111              		.loc 1 1676 5 is_stmt 1
 3112              		.loc 1 1676 31 is_stmt 0
 3113 0016 1C45     		lw	a5,8(a0)
 3114 0018 DD8E     		or	a3,a3,a5
 3115 001a 14C5     		sw	a3,8(a0)
1677:C:/Users/stapi/OneDrive/Desktop/GD32VW553/GD32VW55X_Wifi_BLE_SDK/GD32VW55x_RELEASE_V1.0.2/MSDK/plf/GD32VW55x_standard_peripheral/Source\gd32vw55x_timer.c **** }
 3116              		.loc 1 1677 1
 3117 001c 8280     		ret
 3118              		.cfi_endproc
 3119              	.LFE420:
 3121              		.section	.text.timer_quadrature_decoder_mode_config,"ax",@progbits
 3122              		.align	1
 3123              		.globl	timer_quadrature_decoder_mode_config
 3125              	timer_quadrature_decoder_mode_config:
 3126              	.LFB421:
1678:C:/Users/stapi/OneDrive/Desktop/GD32VW553/GD32VW55X_Wifi_BLE_SDK/GD32VW55x_RELEASE_V1.0.2/MSDK/plf/GD32VW55x_standard_peripheral/Source\gd32vw55x_timer.c **** 
1679:C:/Users/stapi/OneDrive/Desktop/GD32VW553/GD32VW55X_Wifi_BLE_SDK/GD32VW55x_RELEASE_V1.0.2/MSDK/plf/GD32VW55x_standard_peripheral/Source\gd32vw55x_timer.c **** /*!
1680:C:/Users/stapi/OneDrive/Desktop/GD32VW553/GD32VW55X_Wifi_BLE_SDK/GD32VW55x_RELEASE_V1.0.2/MSDK/plf/GD32VW55x_standard_peripheral/Source\gd32vw55x_timer.c ****     \brief      configure TIMER quadrature decoder mode
1681:C:/Users/stapi/OneDrive/Desktop/GD32VW553/GD32VW55X_Wifi_BLE_SDK/GD32VW55x_RELEASE_V1.0.2/MSDK/plf/GD32VW55x_standard_peripheral/Source\gd32vw55x_timer.c ****     \param[in]  timer_periph: TIMERx(x=0,1,2)
1682:C:/Users/stapi/OneDrive/Desktop/GD32VW553/GD32VW55X_Wifi_BLE_SDK/GD32VW55x_RELEASE_V1.0.2/MSDK/plf/GD32VW55x_standard_peripheral/Source\gd32vw55x_timer.c ****     \param[in]  decomode:
1683:C:/Users/stapi/OneDrive/Desktop/GD32VW553/GD32VW55X_Wifi_BLE_SDK/GD32VW55x_RELEASE_V1.0.2/MSDK/plf/GD32VW55x_standard_peripheral/Source\gd32vw55x_timer.c ****                 only one parameter can be selected which is shown as below:
1684:C:/Users/stapi/OneDrive/Desktop/GD32VW553/GD32VW55X_Wifi_BLE_SDK/GD32VW55x_RELEASE_V1.0.2/MSDK/plf/GD32VW55x_standard_peripheral/Source\gd32vw55x_timer.c ****       \arg        TIMER_QUAD_DECODER_MODE0: counter counts on CI0FE0 edge depending on CI1FE1 level
1685:C:/Users/stapi/OneDrive/Desktop/GD32VW553/GD32VW55X_Wifi_BLE_SDK/GD32VW55x_RELEASE_V1.0.2/MSDK/plf/GD32VW55x_standard_peripheral/Source\gd32vw55x_timer.c ****       \arg        TIMER_QUAD_DECODER_MODE1: counter counts on CI1FE1 edge depending on CI0FE0 level
1686:C:/Users/stapi/OneDrive/Desktop/GD32VW553/GD32VW55X_Wifi_BLE_SDK/GD32VW55x_RELEASE_V1.0.2/MSDK/plf/GD32VW55x_standard_peripheral/Source\gd32vw55x_timer.c ****       \arg        TIMER_QUAD_DECODER_MODE2: counter counts on both CI0FE0 and CI1FE1 edges dependin
1687:C:/Users/stapi/OneDrive/Desktop/GD32VW553/GD32VW55X_Wifi_BLE_SDK/GD32VW55x_RELEASE_V1.0.2/MSDK/plf/GD32VW55x_standard_peripheral/Source\gd32vw55x_timer.c ****     \param[in]  ic0polarity:
1688:C:/Users/stapi/OneDrive/Desktop/GD32VW553/GD32VW55X_Wifi_BLE_SDK/GD32VW55x_RELEASE_V1.0.2/MSDK/plf/GD32VW55x_standard_peripheral/Source\gd32vw55x_timer.c ****                 only one parameter can be selected which is shown as below:
1689:C:/Users/stapi/OneDrive/Desktop/GD32VW553/GD32VW55X_Wifi_BLE_SDK/GD32VW55x_RELEASE_V1.0.2/MSDK/plf/GD32VW55x_standard_peripheral/Source\gd32vw55x_timer.c ****       \arg        TIMER_IC_POLARITY_RISING: capture rising edge
1690:C:/Users/stapi/OneDrive/Desktop/GD32VW553/GD32VW55X_Wifi_BLE_SDK/GD32VW55x_RELEASE_V1.0.2/MSDK/plf/GD32VW55x_standard_peripheral/Source\gd32vw55x_timer.c ****       \arg        TIMER_IC_POLARITY_FALLING: capture falling edge
1691:C:/Users/stapi/OneDrive/Desktop/GD32VW553/GD32VW55X_Wifi_BLE_SDK/GD32VW55x_RELEASE_V1.0.2/MSDK/plf/GD32VW55x_standard_peripheral/Source\gd32vw55x_timer.c ****       \arg        TIMER_IC_POLARITY_BOTH_EDGE: active both edge
1692:C:/Users/stapi/OneDrive/Desktop/GD32VW553/GD32VW55X_Wifi_BLE_SDK/GD32VW55x_RELEASE_V1.0.2/MSDK/plf/GD32VW55x_standard_peripheral/Source\gd32vw55x_timer.c ****     \param[in]  ic1polarity:
1693:C:/Users/stapi/OneDrive/Desktop/GD32VW553/GD32VW55X_Wifi_BLE_SDK/GD32VW55x_RELEASE_V1.0.2/MSDK/plf/GD32VW55x_standard_peripheral/Source\gd32vw55x_timer.c ****                 only one parameter can be selected which is shown as below:
1694:C:/Users/stapi/OneDrive/Desktop/GD32VW553/GD32VW55X_Wifi_BLE_SDK/GD32VW55x_RELEASE_V1.0.2/MSDK/plf/GD32VW55x_standard_peripheral/Source\gd32vw55x_timer.c ****       \arg        TIMER_IC_POLARITY_RISING: capture rising edge
1695:C:/Users/stapi/OneDrive/Desktop/GD32VW553/GD32VW55X_Wifi_BLE_SDK/GD32VW55x_RELEASE_V1.0.2/MSDK/plf/GD32VW55x_standard_peripheral/Source\gd32vw55x_timer.c ****       \arg        TIMER_IC_POLARITY_FALLING: capture falling edge
1696:C:/Users/stapi/OneDrive/Desktop/GD32VW553/GD32VW55X_Wifi_BLE_SDK/GD32VW55x_RELEASE_V1.0.2/MSDK/plf/GD32VW55x_standard_peripheral/Source\gd32vw55x_timer.c ****       \arg        TIMER_IC_POLARITY_BOTH_EDGE: active both edge
1697:C:/Users/stapi/OneDrive/Desktop/GD32VW553/GD32VW55X_Wifi_BLE_SDK/GD32VW55x_RELEASE_V1.0.2/MSDK/plf/GD32VW55x_standard_peripheral/Source\gd32vw55x_timer.c ****     \param[out] none
1698:C:/Users/stapi/OneDrive/Desktop/GD32VW553/GD32VW55X_Wifi_BLE_SDK/GD32VW55x_RELEASE_V1.0.2/MSDK/plf/GD32VW55x_standard_peripheral/Source\gd32vw55x_timer.c ****     \retval     none
1699:C:/Users/stapi/OneDrive/Desktop/GD32VW553/GD32VW55X_Wifi_BLE_SDK/GD32VW55x_RELEASE_V1.0.2/MSDK/plf/GD32VW55x_standard_peripheral/Source\gd32vw55x_timer.c **** */
1700:C:/Users/stapi/OneDrive/Desktop/GD32VW553/GD32VW55X_Wifi_BLE_SDK/GD32VW55x_RELEASE_V1.0.2/MSDK/plf/GD32VW55x_standard_peripheral/Source\gd32vw55x_timer.c **** void timer_quadrature_decoder_mode_config(uint32_t timer_periph, uint32_t decomode, uint16_t ic0pol
1701:C:/Users/stapi/OneDrive/Desktop/GD32VW553/GD32VW55X_Wifi_BLE_SDK/GD32VW55x_RELEASE_V1.0.2/MSDK/plf/GD32VW55x_standard_peripheral/Source\gd32vw55x_timer.c **** {
 3127              		.loc 1 1701 1 is_stmt 1
 3128              		.cfi_startproc
 3129              	.LVL197:
 3130 0000 17030000 		call	t0,__riscv_save_3
 3130      E7020300 
 3131              		.cfi_offset 18, -16
 3132              		.cfi_offset 9, -12
 3133              		.cfi_offset 8, -8
 3134              		.cfi_offset 1, -4
 3135              		.cfi_def_cfa_offset 16
1702:C:/Users/stapi/OneDrive/Desktop/GD32VW553/GD32VW55X_Wifi_BLE_SDK/GD32VW55x_RELEASE_V1.0.2/MSDK/plf/GD32VW55x_standard_peripheral/Source\gd32vw55x_timer.c ****     /* configure the quadrature decoder mode */
1703:C:/Users/stapi/OneDrive/Desktop/GD32VW553/GD32VW55X_Wifi_BLE_SDK/GD32VW55x_RELEASE_V1.0.2/MSDK/plf/GD32VW55x_standard_peripheral/Source\gd32vw55x_timer.c ****     timer_slave_mode_select(timer_periph, decomode);
 3136              		.loc 1 1703 5
1701:C:/Users/stapi/OneDrive/Desktop/GD32VW553/GD32VW55X_Wifi_BLE_SDK/GD32VW55x_RELEASE_V1.0.2/MSDK/plf/GD32VW55x_standard_peripheral/Source\gd32vw55x_timer.c ****     /* configure the quadrature decoder mode */
 3137              		.loc 1 1701 1 is_stmt 0
 3138 0008 2A84     		mv	s0,a0
 3139 000a 3289     		mv	s2,a2
 3140 000c B684     		mv	s1,a3
 3141              		.loc 1 1703 5
 3142 000e 97000000 		call	timer_slave_mode_select
 3142      E7800000 
 3143              	.LVL198:
1704:C:/Users/stapi/OneDrive/Desktop/GD32VW553/GD32VW55X_Wifi_BLE_SDK/GD32VW55x_RELEASE_V1.0.2/MSDK/plf/GD32VW55x_standard_peripheral/Source\gd32vw55x_timer.c ****     /* configure input capture selection */
1705:C:/Users/stapi/OneDrive/Desktop/GD32VW553/GD32VW55X_Wifi_BLE_SDK/GD32VW55x_RELEASE_V1.0.2/MSDK/plf/GD32VW55x_standard_peripheral/Source\gd32vw55x_timer.c ****     TIMER_CHCTL0(timer_periph) &= (uint32_t)(((~(uint32_t)TIMER_CHCTL0_CH0MS)) & ((~(uint32_t)TIMER
 3144              		.loc 1 1705 5 is_stmt 1
 3145              		.loc 1 1705 32 is_stmt 0
 3146 0016 1C4C     		lw	a5,24(s0)
1706:C:/Users/stapi/OneDrive/Desktop/GD32VW553/GD32VW55X_Wifi_BLE_SDK/GD32VW55x_RELEASE_V1.0.2/MSDK/plf/GD32VW55x_standard_peripheral/Source\gd32vw55x_timer.c ****     TIMER_CHCTL0(timer_periph) |= (uint32_t)(TIMER_IC_SELECTION_DIRECTTI | ((uint32_t)TIMER_IC_SELE
1707:C:/Users/stapi/OneDrive/Desktop/GD32VW553/GD32VW55X_Wifi_BLE_SDK/GD32VW55x_RELEASE_V1.0.2/MSDK/plf/GD32VW55x_standard_peripheral/Source\gd32vw55x_timer.c ****     /* configure channel input capture polarity */
1708:C:/Users/stapi/OneDrive/Desktop/GD32VW553/GD32VW55X_Wifi_BLE_SDK/GD32VW55x_RELEASE_V1.0.2/MSDK/plf/GD32VW55x_standard_peripheral/Source\gd32vw55x_timer.c ****     TIMER_CHCTL2(timer_periph) &= (~(uint32_t)(TIMER_CHCTL2_CH0P | TIMER_CHCTL2_CH0NP));
1709:C:/Users/stapi/OneDrive/Desktop/GD32VW553/GD32VW55X_Wifi_BLE_SDK/GD32VW55x_RELEASE_V1.0.2/MSDK/plf/GD32VW55x_standard_peripheral/Source\gd32vw55x_timer.c ****     TIMER_CHCTL2(timer_periph) &= (~(uint32_t)(TIMER_CHCTL2_CH1P | TIMER_CHCTL2_CH1NP));
1710:C:/Users/stapi/OneDrive/Desktop/GD32VW553/GD32VW55X_Wifi_BLE_SDK/GD32VW55x_RELEASE_V1.0.2/MSDK/plf/GD32VW55x_standard_peripheral/Source\gd32vw55x_timer.c ****     TIMER_CHCTL2(timer_periph) |= ((uint32_t)ic0polarity | ((uint32_t)ic1polarity << 4U));
 3147              		.loc 1 1710 83
 3148 0018 9204     		slli	s1,s1,4
 3149              		.loc 1 1710 58
 3150 001a B3E42401 		or	s1,s1,s2
1705:C:/Users/stapi/OneDrive/Desktop/GD32VW553/GD32VW55X_Wifi_BLE_SDK/GD32VW55x_RELEASE_V1.0.2/MSDK/plf/GD32VW55x_standard_peripheral/Source\gd32vw55x_timer.c ****     TIMER_CHCTL0(timer_periph) |= (uint32_t)(TIMER_IC_SELECTION_DIRECTTI | ((uint32_t)TIMER_IC_SELE
 3151              		.loc 1 1705 32
 3152 001e 93F7C7CF 		andi	a5,a5,-772
 3153 0022 1CCC     		sw	a5,24(s0)
1706:C:/Users/stapi/OneDrive/Desktop/GD32VW553/GD32VW55X_Wifi_BLE_SDK/GD32VW55x_RELEASE_V1.0.2/MSDK/plf/GD32VW55x_standard_peripheral/Source\gd32vw55x_timer.c ****     TIMER_CHCTL0(timer_periph) |= (uint32_t)(TIMER_IC_SELECTION_DIRECTTI | ((uint32_t)TIMER_IC_SELE
 3154              		.loc 1 1706 5 is_stmt 1
1706:C:/Users/stapi/OneDrive/Desktop/GD32VW553/GD32VW55X_Wifi_BLE_SDK/GD32VW55x_RELEASE_V1.0.2/MSDK/plf/GD32VW55x_standard_peripheral/Source\gd32vw55x_timer.c ****     TIMER_CHCTL0(timer_periph) |= (uint32_t)(TIMER_IC_SELECTION_DIRECTTI | ((uint32_t)TIMER_IC_SELE
 3155              		.loc 1 1706 32 is_stmt 0
 3156 0024 1C4C     		lw	a5,24(s0)
 3157 0026 93E71710 		ori	a5,a5,257
 3158 002a 1CCC     		sw	a5,24(s0)
1708:C:/Users/stapi/OneDrive/Desktop/GD32VW553/GD32VW55X_Wifi_BLE_SDK/GD32VW55x_RELEASE_V1.0.2/MSDK/plf/GD32VW55x_standard_peripheral/Source\gd32vw55x_timer.c ****     TIMER_CHCTL2(timer_periph) &= (~(uint32_t)(TIMER_CHCTL2_CH1P | TIMER_CHCTL2_CH1NP));
 3159              		.loc 1 1708 5 is_stmt 1
1708:C:/Users/stapi/OneDrive/Desktop/GD32VW553/GD32VW55X_Wifi_BLE_SDK/GD32VW55x_RELEASE_V1.0.2/MSDK/plf/GD32VW55x_standard_peripheral/Source\gd32vw55x_timer.c ****     TIMER_CHCTL2(timer_periph) &= (~(uint32_t)(TIMER_CHCTL2_CH1P | TIMER_CHCTL2_CH1NP));
 3160              		.loc 1 1708 32 is_stmt 0
 3161 002c 1C50     		lw	a5,32(s0)
 3162 002e D59B     		andi	a5,a5,-11
 3163 0030 1CD0     		sw	a5,32(s0)
1709:C:/Users/stapi/OneDrive/Desktop/GD32VW553/GD32VW55X_Wifi_BLE_SDK/GD32VW55x_RELEASE_V1.0.2/MSDK/plf/GD32VW55x_standard_peripheral/Source\gd32vw55x_timer.c ****     TIMER_CHCTL2(timer_periph) |= ((uint32_t)ic0polarity | ((uint32_t)ic1polarity << 4U));
 3164              		.loc 1 1709 5 is_stmt 1
1709:C:/Users/stapi/OneDrive/Desktop/GD32VW553/GD32VW55X_Wifi_BLE_SDK/GD32VW55x_RELEASE_V1.0.2/MSDK/plf/GD32VW55x_standard_peripheral/Source\gd32vw55x_timer.c ****     TIMER_CHCTL2(timer_periph) |= ((uint32_t)ic0polarity | ((uint32_t)ic1polarity << 4U));
 3165              		.loc 1 1709 32 is_stmt 0
 3166 0032 1C50     		lw	a5,32(s0)
 3167 0034 93F7F7F5 		andi	a5,a5,-161
 3168 0038 1CD0     		sw	a5,32(s0)
 3169              		.loc 1 1710 5 is_stmt 1
 3170              		.loc 1 1710 32 is_stmt 0
 3171 003a 1050     		lw	a2,32(s0)
 3172 003c D18C     		or	s1,s1,a2
 3173 003e 04D0     		sw	s1,32(s0)
1711:C:/Users/stapi/OneDrive/Desktop/GD32VW553/GD32VW55X_Wifi_BLE_SDK/GD32VW55x_RELEASE_V1.0.2/MSDK/plf/GD32VW55x_standard_peripheral/Source\gd32vw55x_timer.c **** }
 3174              		.loc 1 1711 1
 3175 0040 17030000 		tail	__riscv_restore_3
 3175      67000300 
 3176              		.cfi_restore 18
 3177              		.cfi_restore 9
 3178              		.cfi_restore 8
 3179              		.cfi_restore 1
 3180              		.cfi_def_cfa_offset 0
 3181              		.cfi_endproc
 3182              	.LFE421:
 3184              		.section	.text.timer_internal_clock_config,"ax",@progbits
 3185              		.align	1
 3186              		.globl	timer_internal_clock_config
 3188              	timer_internal_clock_config:
 3189              	.LFB422:
1712:C:/Users/stapi/OneDrive/Desktop/GD32VW553/GD32VW55X_Wifi_BLE_SDK/GD32VW55x_RELEASE_V1.0.2/MSDK/plf/GD32VW55x_standard_peripheral/Source\gd32vw55x_timer.c **** 
1713:C:/Users/stapi/OneDrive/Desktop/GD32VW553/GD32VW55X_Wifi_BLE_SDK/GD32VW55x_RELEASE_V1.0.2/MSDK/plf/GD32VW55x_standard_peripheral/Source\gd32vw55x_timer.c **** /*!
1714:C:/Users/stapi/OneDrive/Desktop/GD32VW553/GD32VW55X_Wifi_BLE_SDK/GD32VW55x_RELEASE_V1.0.2/MSDK/plf/GD32VW55x_standard_peripheral/Source\gd32vw55x_timer.c ****     \brief      configure TIMER internal clock mode
1715:C:/Users/stapi/OneDrive/Desktop/GD32VW553/GD32VW55X_Wifi_BLE_SDK/GD32VW55x_RELEASE_V1.0.2/MSDK/plf/GD32VW55x_standard_peripheral/Source\gd32vw55x_timer.c ****     \param[in]  timer_periph: TIMERx(x=0,1,2)
1716:C:/Users/stapi/OneDrive/Desktop/GD32VW553/GD32VW55X_Wifi_BLE_SDK/GD32VW55x_RELEASE_V1.0.2/MSDK/plf/GD32VW55x_standard_peripheral/Source\gd32vw55x_timer.c ****     \param[out] none
1717:C:/Users/stapi/OneDrive/Desktop/GD32VW553/GD32VW55X_Wifi_BLE_SDK/GD32VW55x_RELEASE_V1.0.2/MSDK/plf/GD32VW55x_standard_peripheral/Source\gd32vw55x_timer.c ****     \retval     none
1718:C:/Users/stapi/OneDrive/Desktop/GD32VW553/GD32VW55X_Wifi_BLE_SDK/GD32VW55x_RELEASE_V1.0.2/MSDK/plf/GD32VW55x_standard_peripheral/Source\gd32vw55x_timer.c **** */
1719:C:/Users/stapi/OneDrive/Desktop/GD32VW553/GD32VW55X_Wifi_BLE_SDK/GD32VW55x_RELEASE_V1.0.2/MSDK/plf/GD32VW55x_standard_peripheral/Source\gd32vw55x_timer.c **** void timer_internal_clock_config(uint32_t timer_periph)
1720:C:/Users/stapi/OneDrive/Desktop/GD32VW553/GD32VW55X_Wifi_BLE_SDK/GD32VW55x_RELEASE_V1.0.2/MSDK/plf/GD32VW55x_standard_peripheral/Source\gd32vw55x_timer.c **** {
 3190              		.loc 1 1720 1 is_stmt 1
 3191              		.cfi_startproc
 3192              	.LVL199:
1721:C:/Users/stapi/OneDrive/Desktop/GD32VW553/GD32VW55X_Wifi_BLE_SDK/GD32VW55x_RELEASE_V1.0.2/MSDK/plf/GD32VW55x_standard_peripheral/Source\gd32vw55x_timer.c ****     timer_slave_mode_select(timer_periph, TIMER_SLAVE_MODE_DISABLE);
 3193              		.loc 1 1721 5
 3194 0000 9D45     		li	a1,7
 3195 0002 17030000 		tail	timer_slave_mode_select
 3195      67000300 
 3196              	.LVL200:
 3197              		.cfi_endproc
 3198              	.LFE422:
 3200              		.section	.text.timer_internal_trigger_as_external_clock_config,"ax",@progbits
 3201              		.align	1
 3202              		.globl	timer_internal_trigger_as_external_clock_config
 3204              	timer_internal_trigger_as_external_clock_config:
 3205              	.LFB423:
1722:C:/Users/stapi/OneDrive/Desktop/GD32VW553/GD32VW55X_Wifi_BLE_SDK/GD32VW55x_RELEASE_V1.0.2/MSDK/plf/GD32VW55x_standard_peripheral/Source\gd32vw55x_timer.c **** }
1723:C:/Users/stapi/OneDrive/Desktop/GD32VW553/GD32VW55X_Wifi_BLE_SDK/GD32VW55x_RELEASE_V1.0.2/MSDK/plf/GD32VW55x_standard_peripheral/Source\gd32vw55x_timer.c **** 
1724:C:/Users/stapi/OneDrive/Desktop/GD32VW553/GD32VW55X_Wifi_BLE_SDK/GD32VW55x_RELEASE_V1.0.2/MSDK/plf/GD32VW55x_standard_peripheral/Source\gd32vw55x_timer.c **** /*!
1725:C:/Users/stapi/OneDrive/Desktop/GD32VW553/GD32VW55X_Wifi_BLE_SDK/GD32VW55x_RELEASE_V1.0.2/MSDK/plf/GD32VW55x_standard_peripheral/Source\gd32vw55x_timer.c ****     \brief      configure TIMER the internal trigger as external clock input
1726:C:/Users/stapi/OneDrive/Desktop/GD32VW553/GD32VW55X_Wifi_BLE_SDK/GD32VW55x_RELEASE_V1.0.2/MSDK/plf/GD32VW55x_standard_peripheral/Source\gd32vw55x_timer.c ****     \param[in]  timer_periph: TIMERx(x=0,1,2)
1727:C:/Users/stapi/OneDrive/Desktop/GD32VW553/GD32VW55X_Wifi_BLE_SDK/GD32VW55x_RELEASE_V1.0.2/MSDK/plf/GD32VW55x_standard_peripheral/Source\gd32vw55x_timer.c ****     \param[in]  intrigger:
1728:C:/Users/stapi/OneDrive/Desktop/GD32VW553/GD32VW55X_Wifi_BLE_SDK/GD32VW55x_RELEASE_V1.0.2/MSDK/plf/GD32VW55x_standard_peripheral/Source\gd32vw55x_timer.c ****                 only one parameter can be selected which is shown as below:
1729:C:/Users/stapi/OneDrive/Desktop/GD32VW553/GD32VW55X_Wifi_BLE_SDK/GD32VW55x_RELEASE_V1.0.2/MSDK/plf/GD32VW55x_standard_peripheral/Source\gd32vw55x_timer.c ****       \arg        TIMER_SMCFG_TRGSEL_ITI0: internal trigger 0
1730:C:/Users/stapi/OneDrive/Desktop/GD32VW553/GD32VW55X_Wifi_BLE_SDK/GD32VW55x_RELEASE_V1.0.2/MSDK/plf/GD32VW55x_standard_peripheral/Source\gd32vw55x_timer.c ****       \arg        TIMER_SMCFG_TRGSEL_ITI1: internal trigger 1
1731:C:/Users/stapi/OneDrive/Desktop/GD32VW553/GD32VW55X_Wifi_BLE_SDK/GD32VW55x_RELEASE_V1.0.2/MSDK/plf/GD32VW55x_standard_peripheral/Source\gd32vw55x_timer.c ****       \arg        TIMER_SMCFG_TRGSEL_ITI2: internal trigger 2
1732:C:/Users/stapi/OneDrive/Desktop/GD32VW553/GD32VW55X_Wifi_BLE_SDK/GD32VW55x_RELEASE_V1.0.2/MSDK/plf/GD32VW55x_standard_peripheral/Source\gd32vw55x_timer.c ****       \arg        TIMER_SMCFG_TRGSEL_ITI3: internal trigger 3
1733:C:/Users/stapi/OneDrive/Desktop/GD32VW553/GD32VW55X_Wifi_BLE_SDK/GD32VW55x_RELEASE_V1.0.2/MSDK/plf/GD32VW55x_standard_peripheral/Source\gd32vw55x_timer.c ****     \param[out] none
1734:C:/Users/stapi/OneDrive/Desktop/GD32VW553/GD32VW55X_Wifi_BLE_SDK/GD32VW55x_RELEASE_V1.0.2/MSDK/plf/GD32VW55x_standard_peripheral/Source\gd32vw55x_timer.c ****     \retval     none
1735:C:/Users/stapi/OneDrive/Desktop/GD32VW553/GD32VW55X_Wifi_BLE_SDK/GD32VW55x_RELEASE_V1.0.2/MSDK/plf/GD32VW55x_standard_peripheral/Source\gd32vw55x_timer.c **** */
1736:C:/Users/stapi/OneDrive/Desktop/GD32VW553/GD32VW55X_Wifi_BLE_SDK/GD32VW55x_RELEASE_V1.0.2/MSDK/plf/GD32VW55x_standard_peripheral/Source\gd32vw55x_timer.c **** void timer_internal_trigger_as_external_clock_config(uint32_t timer_periph, uint32_t intrigger)
1737:C:/Users/stapi/OneDrive/Desktop/GD32VW553/GD32VW55X_Wifi_BLE_SDK/GD32VW55x_RELEASE_V1.0.2/MSDK/plf/GD32VW55x_standard_peripheral/Source\gd32vw55x_timer.c **** {
 3206              		.loc 1 1737 1
 3207              		.cfi_startproc
 3208              	.LVL201:
 3209 0000 17030000 		call	t0,__riscv_save_2
 3209      E7020300 
 3210              		.cfi_offset 9, -12
 3211              		.cfi_offset 8, -8
 3212              		.cfi_offset 1, -4
 3213              		.cfi_def_cfa_offset 16
1738:C:/Users/stapi/OneDrive/Desktop/GD32VW553/GD32VW55X_Wifi_BLE_SDK/GD32VW55x_RELEASE_V1.0.2/MSDK/plf/GD32VW55x_standard_peripheral/Source\gd32vw55x_timer.c ****     /* select TIMER slave mode */
1739:C:/Users/stapi/OneDrive/Desktop/GD32VW553/GD32VW55X_Wifi_BLE_SDK/GD32VW55x_RELEASE_V1.0.2/MSDK/plf/GD32VW55x_standard_peripheral/Source\gd32vw55x_timer.c ****     timer_slave_mode_select(timer_periph, TIMER_SLAVE_MODE_EXTERNAL0);
 3214              		.loc 1 1739 5
1737:C:/Users/stapi/OneDrive/Desktop/GD32VW553/GD32VW55X_Wifi_BLE_SDK/GD32VW55x_RELEASE_V1.0.2/MSDK/plf/GD32VW55x_standard_peripheral/Source\gd32vw55x_timer.c ****     /* select TIMER slave mode */
 3215              		.loc 1 1737 1 is_stmt 0
 3216 0008 AE84     		mv	s1,a1
 3217              		.loc 1 1739 5
 3218 000a 9945     		li	a1,6
 3219              	.LVL202:
1737:C:/Users/stapi/OneDrive/Desktop/GD32VW553/GD32VW55X_Wifi_BLE_SDK/GD32VW55x_RELEASE_V1.0.2/MSDK/plf/GD32VW55x_standard_peripheral/Source\gd32vw55x_timer.c ****     /* select TIMER slave mode */
 3220              		.loc 1 1737 1
 3221 000c 2A84     		mv	s0,a0
 3222              		.loc 1 1739 5
 3223 000e 97000000 		call	timer_slave_mode_select
 3223      E7800000 
 3224              	.LVL203:
1740:C:/Users/stapi/OneDrive/Desktop/GD32VW553/GD32VW55X_Wifi_BLE_SDK/GD32VW55x_RELEASE_V1.0.2/MSDK/plf/GD32VW55x_standard_peripheral/Source\gd32vw55x_timer.c ****     /* select TIMER input trigger source */
1741:C:/Users/stapi/OneDrive/Desktop/GD32VW553/GD32VW55X_Wifi_BLE_SDK/GD32VW55x_RELEASE_V1.0.2/MSDK/plf/GD32VW55x_standard_peripheral/Source\gd32vw55x_timer.c ****     timer_input_trigger_source_select(timer_periph, intrigger);
 3225              		.loc 1 1741 5 is_stmt 1
 3226 0016 A685     		mv	a1,s1
 3227 0018 2285     		mv	a0,s0
 3228 001a 97000000 		call	timer_input_trigger_source_select
 3228      E7800000 
 3229              	.LVL204:
1742:C:/Users/stapi/OneDrive/Desktop/GD32VW553/GD32VW55X_Wifi_BLE_SDK/GD32VW55x_RELEASE_V1.0.2/MSDK/plf/GD32VW55x_standard_peripheral/Source\gd32vw55x_timer.c **** }
 3230              		.loc 1 1742 1 is_stmt 0
 3231 0022 17030000 		tail	__riscv_restore_2
 3231      67000300 
 3232              		.cfi_restore 9
 3233              		.cfi_restore 8
 3234              		.cfi_restore 1
 3235              		.cfi_def_cfa_offset 0
 3236              		.cfi_endproc
 3237              	.LFE423:
 3239              		.section	.text.timer_external_trigger_as_external_clock_config,"ax",@progbits
 3240              		.align	1
 3241              		.globl	timer_external_trigger_as_external_clock_config
 3243              	timer_external_trigger_as_external_clock_config:
 3244              	.LFB424:
1743:C:/Users/stapi/OneDrive/Desktop/GD32VW553/GD32VW55X_Wifi_BLE_SDK/GD32VW55x_RELEASE_V1.0.2/MSDK/plf/GD32VW55x_standard_peripheral/Source\gd32vw55x_timer.c **** 
1744:C:/Users/stapi/OneDrive/Desktop/GD32VW553/GD32VW55X_Wifi_BLE_SDK/GD32VW55x_RELEASE_V1.0.2/MSDK/plf/GD32VW55x_standard_peripheral/Source\gd32vw55x_timer.c **** /*!
1745:C:/Users/stapi/OneDrive/Desktop/GD32VW553/GD32VW55X_Wifi_BLE_SDK/GD32VW55x_RELEASE_V1.0.2/MSDK/plf/GD32VW55x_standard_peripheral/Source\gd32vw55x_timer.c ****     \brief      configure TIMER the external trigger as external clock input
1746:C:/Users/stapi/OneDrive/Desktop/GD32VW553/GD32VW55X_Wifi_BLE_SDK/GD32VW55x_RELEASE_V1.0.2/MSDK/plf/GD32VW55x_standard_peripheral/Source\gd32vw55x_timer.c ****     \param[in]  timer_periph: TIMERx(x=0,1,2)
1747:C:/Users/stapi/OneDrive/Desktop/GD32VW553/GD32VW55X_Wifi_BLE_SDK/GD32VW55x_RELEASE_V1.0.2/MSDK/plf/GD32VW55x_standard_peripheral/Source\gd32vw55x_timer.c ****     \param[in]  extrigger:
1748:C:/Users/stapi/OneDrive/Desktop/GD32VW553/GD32VW55X_Wifi_BLE_SDK/GD32VW55x_RELEASE_V1.0.2/MSDK/plf/GD32VW55x_standard_peripheral/Source\gd32vw55x_timer.c ****                 only one parameter can be selected which is shown as below:
1749:C:/Users/stapi/OneDrive/Desktop/GD32VW553/GD32VW55X_Wifi_BLE_SDK/GD32VW55x_RELEASE_V1.0.2/MSDK/plf/GD32VW55x_standard_peripheral/Source\gd32vw55x_timer.c ****       \arg        TIMER_SMCFG_TRGSEL_CI0F_ED: TI0 edge detector
1750:C:/Users/stapi/OneDrive/Desktop/GD32VW553/GD32VW55X_Wifi_BLE_SDK/GD32VW55x_RELEASE_V1.0.2/MSDK/plf/GD32VW55x_standard_peripheral/Source\gd32vw55x_timer.c ****       \arg        TIMER_SMCFG_TRGSEL_CI0FE0: filtered TIMER input 0
1751:C:/Users/stapi/OneDrive/Desktop/GD32VW553/GD32VW55X_Wifi_BLE_SDK/GD32VW55x_RELEASE_V1.0.2/MSDK/plf/GD32VW55x_standard_peripheral/Source\gd32vw55x_timer.c ****       \arg        TIMER_SMCFG_TRGSEL_CI1FE1: filtered TIMER input 1
1752:C:/Users/stapi/OneDrive/Desktop/GD32VW553/GD32VW55X_Wifi_BLE_SDK/GD32VW55x_RELEASE_V1.0.2/MSDK/plf/GD32VW55x_standard_peripheral/Source\gd32vw55x_timer.c ****     \param[in]  extpolarity:
1753:C:/Users/stapi/OneDrive/Desktop/GD32VW553/GD32VW55X_Wifi_BLE_SDK/GD32VW55x_RELEASE_V1.0.2/MSDK/plf/GD32VW55x_standard_peripheral/Source\gd32vw55x_timer.c ****                 only one parameter can be selected which is shown as below:
1754:C:/Users/stapi/OneDrive/Desktop/GD32VW553/GD32VW55X_Wifi_BLE_SDK/GD32VW55x_RELEASE_V1.0.2/MSDK/plf/GD32VW55x_standard_peripheral/Source\gd32vw55x_timer.c ****       \arg        TIMER_IC_POLARITY_RISING: active high or rising edge active
1755:C:/Users/stapi/OneDrive/Desktop/GD32VW553/GD32VW55X_Wifi_BLE_SDK/GD32VW55x_RELEASE_V1.0.2/MSDK/plf/GD32VW55x_standard_peripheral/Source\gd32vw55x_timer.c ****       \arg        TIMER_IC_POLARITY_FALLING: active low or falling edge active
1756:C:/Users/stapi/OneDrive/Desktop/GD32VW553/GD32VW55X_Wifi_BLE_SDK/GD32VW55x_RELEASE_V1.0.2/MSDK/plf/GD32VW55x_standard_peripheral/Source\gd32vw55x_timer.c ****       \arg        TIMER_IC_POLARITY_BOTH_EDGE: active both edge
1757:C:/Users/stapi/OneDrive/Desktop/GD32VW553/GD32VW55X_Wifi_BLE_SDK/GD32VW55x_RELEASE_V1.0.2/MSDK/plf/GD32VW55x_standard_peripheral/Source\gd32vw55x_timer.c ****     \param[in]  extfilter: a value between 0 and 15
1758:C:/Users/stapi/OneDrive/Desktop/GD32VW553/GD32VW55X_Wifi_BLE_SDK/GD32VW55x_RELEASE_V1.0.2/MSDK/plf/GD32VW55x_standard_peripheral/Source\gd32vw55x_timer.c ****     \param[out] none
1759:C:/Users/stapi/OneDrive/Desktop/GD32VW553/GD32VW55X_Wifi_BLE_SDK/GD32VW55x_RELEASE_V1.0.2/MSDK/plf/GD32VW55x_standard_peripheral/Source\gd32vw55x_timer.c ****     \retval     none
1760:C:/Users/stapi/OneDrive/Desktop/GD32VW553/GD32VW55X_Wifi_BLE_SDK/GD32VW55x_RELEASE_V1.0.2/MSDK/plf/GD32VW55x_standard_peripheral/Source\gd32vw55x_timer.c **** */
1761:C:/Users/stapi/OneDrive/Desktop/GD32VW553/GD32VW55X_Wifi_BLE_SDK/GD32VW55x_RELEASE_V1.0.2/MSDK/plf/GD32VW55x_standard_peripheral/Source\gd32vw55x_timer.c **** void timer_external_trigger_as_external_clock_config(uint32_t timer_periph, uint32_t extrigger, uin
1762:C:/Users/stapi/OneDrive/Desktop/GD32VW553/GD32VW55X_Wifi_BLE_SDK/GD32VW55x_RELEASE_V1.0.2/MSDK/plf/GD32VW55x_standard_peripheral/Source\gd32vw55x_timer.c **** {
 3245              		.loc 1 1762 1 is_stmt 1
 3246              		.cfi_startproc
 3247              	.LVL205:
 3248 0000 17030000 		call	t0,__riscv_save_1
 3248      E7020300 
 3249              		.cfi_offset 8, -8
 3250              		.cfi_offset 1, -4
 3251              		.cfi_def_cfa_offset 16
1763:C:/Users/stapi/OneDrive/Desktop/GD32VW553/GD32VW55X_Wifi_BLE_SDK/GD32VW55x_RELEASE_V1.0.2/MSDK/plf/GD32VW55x_standard_peripheral/Source\gd32vw55x_timer.c ****     if(TIMER_SMCFG_TRGSEL_CI1FE1 == extrigger) {
 3252              		.loc 1 1763 5
 3253              		.loc 1 1763 7 is_stmt 0
 3254 0008 9D47     		li	a5,7
1762:C:/Users/stapi/OneDrive/Desktop/GD32VW553/GD32VW55X_Wifi_BLE_SDK/GD32VW55x_RELEASE_V1.0.2/MSDK/plf/GD32VW55x_standard_peripheral/Source\gd32vw55x_timer.c ****     if(TIMER_SMCFG_TRGSEL_CI1FE1 == extrigger) {
 3255              		.loc 1 1762 1
 3256 000a 4111     		addi	sp,sp,-16
 3257              		.cfi_def_cfa_offset 32
1762:C:/Users/stapi/OneDrive/Desktop/GD32VW553/GD32VW55X_Wifi_BLE_SDK/GD32VW55x_RELEASE_V1.0.2/MSDK/plf/GD32VW55x_standard_peripheral/Source\gd32vw55x_timer.c ****     if(TIMER_SMCFG_TRGSEL_CI1FE1 == extrigger) {
 3258              		.loc 1 1762 1
 3259 000c 2E84     		mv	s0,a1
 3260              		.loc 1 1763 7
 3261 000e 6393F506 		bne	a1,a5,.L237
1764:C:/Users/stapi/OneDrive/Desktop/GD32VW553/GD32VW55X_Wifi_BLE_SDK/GD32VW55x_RELEASE_V1.0.2/MSDK/plf/GD32VW55x_standard_peripheral/Source\gd32vw55x_timer.c ****         /* reset the CH1EN bit */
1765:C:/Users/stapi/OneDrive/Desktop/GD32VW553/GD32VW55X_Wifi_BLE_SDK/GD32VW55x_RELEASE_V1.0.2/MSDK/plf/GD32VW55x_standard_peripheral/Source\gd32vw55x_timer.c ****         TIMER_CHCTL2(timer_periph) &= (~(uint32_t)TIMER_CHCTL2_CH1EN);
 3262              		.loc 1 1765 9 is_stmt 1
 3263              		.loc 1 1765 36 is_stmt 0
 3264 0012 1C51     		lw	a5,32(a0)
1766:C:/Users/stapi/OneDrive/Desktop/GD32VW553/GD32VW55X_Wifi_BLE_SDK/GD32VW55x_RELEASE_V1.0.2/MSDK/plf/GD32VW55x_standard_peripheral/Source\gd32vw55x_timer.c ****         /* reset the CH1NP bit */
1767:C:/Users/stapi/OneDrive/Desktop/GD32VW553/GD32VW55X_Wifi_BLE_SDK/GD32VW55x_RELEASE_V1.0.2/MSDK/plf/GD32VW55x_standard_peripheral/Source\gd32vw55x_timer.c ****         TIMER_CHCTL2(timer_periph) &= (~(uint32_t)(TIMER_CHCTL2_CH1P | TIMER_CHCTL2_CH1NP));
1768:C:/Users/stapi/OneDrive/Desktop/GD32VW553/GD32VW55X_Wifi_BLE_SDK/GD32VW55x_RELEASE_V1.0.2/MSDK/plf/GD32VW55x_standard_peripheral/Source\gd32vw55x_timer.c ****         /* set the CH1NP bit */
1769:C:/Users/stapi/OneDrive/Desktop/GD32VW553/GD32VW55X_Wifi_BLE_SDK/GD32VW55x_RELEASE_V1.0.2/MSDK/plf/GD32VW55x_standard_peripheral/Source\gd32vw55x_timer.c ****         TIMER_CHCTL2(timer_periph) |= (uint32_t)((uint32_t)extpolarity << 4U);
 3265              		.loc 1 1769 39
 3266 0014 1206     		slli	a2,a2,4
 3267              	.LVL206:
1770:C:/Users/stapi/OneDrive/Desktop/GD32VW553/GD32VW55X_Wifi_BLE_SDK/GD32VW55x_RELEASE_V1.0.2/MSDK/plf/GD32VW55x_standard_peripheral/Source\gd32vw55x_timer.c ****         /* reset the CH1MS bit */
1771:C:/Users/stapi/OneDrive/Desktop/GD32VW553/GD32VW55X_Wifi_BLE_SDK/GD32VW55x_RELEASE_V1.0.2/MSDK/plf/GD32VW55x_standard_peripheral/Source\gd32vw55x_timer.c ****         TIMER_CHCTL0(timer_periph) &= (~(uint32_t)TIMER_CHCTL0_CH1MS);
1772:C:/Users/stapi/OneDrive/Desktop/GD32VW553/GD32VW55X_Wifi_BLE_SDK/GD32VW55x_RELEASE_V1.0.2/MSDK/plf/GD32VW55x_standard_peripheral/Source\gd32vw55x_timer.c ****         /* set the CH1MS bit */
1773:C:/Users/stapi/OneDrive/Desktop/GD32VW553/GD32VW55X_Wifi_BLE_SDK/GD32VW55x_RELEASE_V1.0.2/MSDK/plf/GD32VW55x_standard_peripheral/Source\gd32vw55x_timer.c ****         TIMER_CHCTL0(timer_periph) |= (uint32_t)((uint32_t)TIMER_IC_SELECTION_DIRECTTI << 8U);
1774:C:/Users/stapi/OneDrive/Desktop/GD32VW553/GD32VW55X_Wifi_BLE_SDK/GD32VW55x_RELEASE_V1.0.2/MSDK/plf/GD32VW55x_standard_peripheral/Source\gd32vw55x_timer.c ****         /* reset the CH1CAPFLT bit */
1775:C:/Users/stapi/OneDrive/Desktop/GD32VW553/GD32VW55X_Wifi_BLE_SDK/GD32VW55x_RELEASE_V1.0.2/MSDK/plf/GD32VW55x_standard_peripheral/Source\gd32vw55x_timer.c ****         TIMER_CHCTL0(timer_periph) &= (~(uint32_t)TIMER_CHCTL0_CH1CAPFLT);
 3268              		.loc 1 1775 36
 3269 0016 4577     		li	a4,-61440
1765:C:/Users/stapi/OneDrive/Desktop/GD32VW553/GD32VW55X_Wifi_BLE_SDK/GD32VW55x_RELEASE_V1.0.2/MSDK/plf/GD32VW55x_standard_peripheral/Source\gd32vw55x_timer.c ****         /* reset the CH1NP bit */
 3270              		.loc 1 1765 36
 3271 0018 BD9B     		andi	a5,a5,-17
 3272 001a 1CD1     		sw	a5,32(a0)
1767:C:/Users/stapi/OneDrive/Desktop/GD32VW553/GD32VW55X_Wifi_BLE_SDK/GD32VW55x_RELEASE_V1.0.2/MSDK/plf/GD32VW55x_standard_peripheral/Source\gd32vw55x_timer.c ****         /* set the CH1NP bit */
 3273              		.loc 1 1767 9 is_stmt 1
1767:C:/Users/stapi/OneDrive/Desktop/GD32VW553/GD32VW55X_Wifi_BLE_SDK/GD32VW55x_RELEASE_V1.0.2/MSDK/plf/GD32VW55x_standard_peripheral/Source\gd32vw55x_timer.c ****         /* set the CH1NP bit */
 3274              		.loc 1 1767 36 is_stmt 0
 3275 001c 1C51     		lw	a5,32(a0)
 3276              		.loc 1 1775 36
 3277 001e 7D17     		addi	a4,a4,-1
1776:C:/Users/stapi/OneDrive/Desktop/GD32VW553/GD32VW55X_Wifi_BLE_SDK/GD32VW55x_RELEASE_V1.0.2/MSDK/plf/GD32VW55x_standard_peripheral/Source\gd32vw55x_timer.c ****         /* set the CH1CAPFLT bit */
1777:C:/Users/stapi/OneDrive/Desktop/GD32VW553/GD32VW55X_Wifi_BLE_SDK/GD32VW55x_RELEASE_V1.0.2/MSDK/plf/GD32VW55x_standard_peripheral/Source\gd32vw55x_timer.c ****         TIMER_CHCTL0(timer_periph) |= (uint32_t)(extfilter << 12U);
 3278              		.loc 1 1777 60
 3279 0020 B206     		slli	a3,a3,12
 3280              	.LVL207:
1767:C:/Users/stapi/OneDrive/Desktop/GD32VW553/GD32VW55X_Wifi_BLE_SDK/GD32VW55x_RELEASE_V1.0.2/MSDK/plf/GD32VW55x_standard_peripheral/Source\gd32vw55x_timer.c ****         /* set the CH1NP bit */
 3281              		.loc 1 1767 36
 3282 0022 93F7F7F5 		andi	a5,a5,-161
 3283 0026 1CD1     		sw	a5,32(a0)
1769:C:/Users/stapi/OneDrive/Desktop/GD32VW553/GD32VW55X_Wifi_BLE_SDK/GD32VW55x_RELEASE_V1.0.2/MSDK/plf/GD32VW55x_standard_peripheral/Source\gd32vw55x_timer.c ****         /* reset the CH1MS bit */
 3284              		.loc 1 1769 9 is_stmt 1
1769:C:/Users/stapi/OneDrive/Desktop/GD32VW553/GD32VW55X_Wifi_BLE_SDK/GD32VW55x_RELEASE_V1.0.2/MSDK/plf/GD32VW55x_standard_peripheral/Source\gd32vw55x_timer.c ****         /* reset the CH1MS bit */
 3285              		.loc 1 1769 36 is_stmt 0
 3286 0028 1C51     		lw	a5,32(a0)
 3287 002a 5D8E     		or	a2,a2,a5
 3288 002c 10D1     		sw	a2,32(a0)
1771:C:/Users/stapi/OneDrive/Desktop/GD32VW553/GD32VW55X_Wifi_BLE_SDK/GD32VW55x_RELEASE_V1.0.2/MSDK/plf/GD32VW55x_standard_peripheral/Source\gd32vw55x_timer.c ****         /* set the CH1MS bit */
 3289              		.loc 1 1771 9 is_stmt 1
1771:C:/Users/stapi/OneDrive/Desktop/GD32VW553/GD32VW55X_Wifi_BLE_SDK/GD32VW55x_RELEASE_V1.0.2/MSDK/plf/GD32VW55x_standard_peripheral/Source\gd32vw55x_timer.c ****         /* set the CH1MS bit */
 3290              		.loc 1 1771 36 is_stmt 0
 3291 002e 1C4D     		lw	a5,24(a0)
 3292 0030 93F7F7CF 		andi	a5,a5,-769
 3293 0034 1CCD     		sw	a5,24(a0)
1773:C:/Users/stapi/OneDrive/Desktop/GD32VW553/GD32VW55X_Wifi_BLE_SDK/GD32VW55x_RELEASE_V1.0.2/MSDK/plf/GD32VW55x_standard_peripheral/Source\gd32vw55x_timer.c ****         /* reset the CH1CAPFLT bit */
 3294              		.loc 1 1773 9 is_stmt 1
1773:C:/Users/stapi/OneDrive/Desktop/GD32VW553/GD32VW55X_Wifi_BLE_SDK/GD32VW55x_RELEASE_V1.0.2/MSDK/plf/GD32VW55x_standard_peripheral/Source\gd32vw55x_timer.c ****         /* reset the CH1CAPFLT bit */
 3295              		.loc 1 1773 36 is_stmt 0
 3296 0036 1C4D     		lw	a5,24(a0)
 3297 0038 93E70710 		ori	a5,a5,256
 3298 003c 1CCD     		sw	a5,24(a0)
1775:C:/Users/stapi/OneDrive/Desktop/GD32VW553/GD32VW55X_Wifi_BLE_SDK/GD32VW55x_RELEASE_V1.0.2/MSDK/plf/GD32VW55x_standard_peripheral/Source\gd32vw55x_timer.c ****         /* set the CH1CAPFLT bit */
 3299              		.loc 1 1775 9 is_stmt 1
1775:C:/Users/stapi/OneDrive/Desktop/GD32VW553/GD32VW55X_Wifi_BLE_SDK/GD32VW55x_RELEASE_V1.0.2/MSDK/plf/GD32VW55x_standard_peripheral/Source\gd32vw55x_timer.c ****         /* set the CH1CAPFLT bit */
 3300              		.loc 1 1775 36 is_stmt 0
 3301 003e 1C4D     		lw	a5,24(a0)
 3302 0040 F98F     		and	a5,a5,a4
 3303 0042 1CCD     		sw	a5,24(a0)
 3304              		.loc 1 1777 9 is_stmt 1
 3305              		.loc 1 1777 36 is_stmt 0
 3306 0044 1C4D     		lw	a5,24(a0)
 3307 0046 DD8E     		or	a3,a3,a5
 3308 0048 14CD     		sw	a3,24(a0)
1778:C:/Users/stapi/OneDrive/Desktop/GD32VW553/GD32VW55X_Wifi_BLE_SDK/GD32VW55x_RELEASE_V1.0.2/MSDK/plf/GD32VW55x_standard_peripheral/Source\gd32vw55x_timer.c ****         /* set the CH1EN bit */
1779:C:/Users/stapi/OneDrive/Desktop/GD32VW553/GD32VW55X_Wifi_BLE_SDK/GD32VW55x_RELEASE_V1.0.2/MSDK/plf/GD32VW55x_standard_peripheral/Source\gd32vw55x_timer.c ****         TIMER_CHCTL2(timer_periph) |= (uint32_t)TIMER_CHCTL2_CH1EN;
 3309              		.loc 1 1779 9 is_stmt 1
 3310              		.loc 1 1779 36 is_stmt 0
 3311 004a 1C51     		lw	a5,32(a0)
 3312 004c 93E70701 		ori	a5,a5,16
 3313              	.L240:
1780:C:/Users/stapi/OneDrive/Desktop/GD32VW553/GD32VW55X_Wifi_BLE_SDK/GD32VW55x_RELEASE_V1.0.2/MSDK/plf/GD32VW55x_standard_peripheral/Source\gd32vw55x_timer.c ****     } else {
1781:C:/Users/stapi/OneDrive/Desktop/GD32VW553/GD32VW55X_Wifi_BLE_SDK/GD32VW55x_RELEASE_V1.0.2/MSDK/plf/GD32VW55x_standard_peripheral/Source\gd32vw55x_timer.c ****         /* reset the CH0EN bit */
1782:C:/Users/stapi/OneDrive/Desktop/GD32VW553/GD32VW55X_Wifi_BLE_SDK/GD32VW55x_RELEASE_V1.0.2/MSDK/plf/GD32VW55x_standard_peripheral/Source\gd32vw55x_timer.c ****         TIMER_CHCTL2(timer_periph) &= (~(uint32_t)TIMER_CHCTL2_CH0EN);
1783:C:/Users/stapi/OneDrive/Desktop/GD32VW553/GD32VW55X_Wifi_BLE_SDK/GD32VW55x_RELEASE_V1.0.2/MSDK/plf/GD32VW55x_standard_peripheral/Source\gd32vw55x_timer.c ****         /* reset the CH0P and CH0NP bits */
1784:C:/Users/stapi/OneDrive/Desktop/GD32VW553/GD32VW55X_Wifi_BLE_SDK/GD32VW55x_RELEASE_V1.0.2/MSDK/plf/GD32VW55x_standard_peripheral/Source\gd32vw55x_timer.c ****         TIMER_CHCTL2(timer_periph) &= (~(uint32_t)(TIMER_CHCTL2_CH0P | TIMER_CHCTL2_CH0NP));
1785:C:/Users/stapi/OneDrive/Desktop/GD32VW553/GD32VW55X_Wifi_BLE_SDK/GD32VW55x_RELEASE_V1.0.2/MSDK/plf/GD32VW55x_standard_peripheral/Source\gd32vw55x_timer.c ****         /* set the CH0P and CH0NP bits */
1786:C:/Users/stapi/OneDrive/Desktop/GD32VW553/GD32VW55X_Wifi_BLE_SDK/GD32VW55x_RELEASE_V1.0.2/MSDK/plf/GD32VW55x_standard_peripheral/Source\gd32vw55x_timer.c ****         TIMER_CHCTL2(timer_periph) |= (uint32_t)extpolarity;
1787:C:/Users/stapi/OneDrive/Desktop/GD32VW553/GD32VW55X_Wifi_BLE_SDK/GD32VW55x_RELEASE_V1.0.2/MSDK/plf/GD32VW55x_standard_peripheral/Source\gd32vw55x_timer.c ****         /* reset the CH0MS bit */
1788:C:/Users/stapi/OneDrive/Desktop/GD32VW553/GD32VW55X_Wifi_BLE_SDK/GD32VW55x_RELEASE_V1.0.2/MSDK/plf/GD32VW55x_standard_peripheral/Source\gd32vw55x_timer.c ****         TIMER_CHCTL0(timer_periph) &= (~(uint32_t)TIMER_CHCTL0_CH0MS);
1789:C:/Users/stapi/OneDrive/Desktop/GD32VW553/GD32VW55X_Wifi_BLE_SDK/GD32VW55x_RELEASE_V1.0.2/MSDK/plf/GD32VW55x_standard_peripheral/Source\gd32vw55x_timer.c ****         /* set the CH0MS bit */
1790:C:/Users/stapi/OneDrive/Desktop/GD32VW553/GD32VW55X_Wifi_BLE_SDK/GD32VW55x_RELEASE_V1.0.2/MSDK/plf/GD32VW55x_standard_peripheral/Source\gd32vw55x_timer.c ****         TIMER_CHCTL0(timer_periph) |= (uint32_t)TIMER_IC_SELECTION_DIRECTTI;
1791:C:/Users/stapi/OneDrive/Desktop/GD32VW553/GD32VW55X_Wifi_BLE_SDK/GD32VW55x_RELEASE_V1.0.2/MSDK/plf/GD32VW55x_standard_peripheral/Source\gd32vw55x_timer.c ****         /* reset the CH0CAPFLT bit */
1792:C:/Users/stapi/OneDrive/Desktop/GD32VW553/GD32VW55X_Wifi_BLE_SDK/GD32VW55x_RELEASE_V1.0.2/MSDK/plf/GD32VW55x_standard_peripheral/Source\gd32vw55x_timer.c ****         TIMER_CHCTL0(timer_periph) &= (~(uint32_t)TIMER_CHCTL0_CH0CAPFLT);
1793:C:/Users/stapi/OneDrive/Desktop/GD32VW553/GD32VW55X_Wifi_BLE_SDK/GD32VW55x_RELEASE_V1.0.2/MSDK/plf/GD32VW55x_standard_peripheral/Source\gd32vw55x_timer.c ****         /* reset the CH0CAPFLT bit */
1794:C:/Users/stapi/OneDrive/Desktop/GD32VW553/GD32VW55X_Wifi_BLE_SDK/GD32VW55x_RELEASE_V1.0.2/MSDK/plf/GD32VW55x_standard_peripheral/Source\gd32vw55x_timer.c ****         TIMER_CHCTL0(timer_periph) |= (uint32_t)(extfilter << 4U);
1795:C:/Users/stapi/OneDrive/Desktop/GD32VW553/GD32VW55X_Wifi_BLE_SDK/GD32VW55x_RELEASE_V1.0.2/MSDK/plf/GD32VW55x_standard_peripheral/Source\gd32vw55x_timer.c ****         /* set the CH0EN bit */
1796:C:/Users/stapi/OneDrive/Desktop/GD32VW553/GD32VW55X_Wifi_BLE_SDK/GD32VW55x_RELEASE_V1.0.2/MSDK/plf/GD32VW55x_standard_peripheral/Source\gd32vw55x_timer.c ****         TIMER_CHCTL2(timer_periph) |= (uint32_t)TIMER_CHCTL2_CH0EN;
 3314              		.loc 1 1796 36
 3315 0050 1CD1     		sw	a5,32(a0)
1797:C:/Users/stapi/OneDrive/Desktop/GD32VW553/GD32VW55X_Wifi_BLE_SDK/GD32VW55x_RELEASE_V1.0.2/MSDK/plf/GD32VW55x_standard_peripheral/Source\gd32vw55x_timer.c ****     }
1798:C:/Users/stapi/OneDrive/Desktop/GD32VW553/GD32VW55X_Wifi_BLE_SDK/GD32VW55x_RELEASE_V1.0.2/MSDK/plf/GD32VW55x_standard_peripheral/Source\gd32vw55x_timer.c ****     /* select TIMER slave mode */
1799:C:/Users/stapi/OneDrive/Desktop/GD32VW553/GD32VW55X_Wifi_BLE_SDK/GD32VW55x_RELEASE_V1.0.2/MSDK/plf/GD32VW55x_standard_peripheral/Source\gd32vw55x_timer.c ****     timer_slave_mode_select(timer_periph, TIMER_SLAVE_MODE_EXTERNAL0);
 3316              		.loc 1 1799 5 is_stmt 1
 3317 0052 9945     		li	a1,6
 3318              	.LVL208:
 3319 0054 2AC6     		sw	a0,12(sp)
 3320 0056 97000000 		call	timer_slave_mode_select
 3320      E7800000 
 3321              	.LVL209:
1800:C:/Users/stapi/OneDrive/Desktop/GD32VW553/GD32VW55X_Wifi_BLE_SDK/GD32VW55x_RELEASE_V1.0.2/MSDK/plf/GD32VW55x_standard_peripheral/Source\gd32vw55x_timer.c ****     /* select TIMER input trigger source */
1801:C:/Users/stapi/OneDrive/Desktop/GD32VW553/GD32VW55X_Wifi_BLE_SDK/GD32VW55x_RELEASE_V1.0.2/MSDK/plf/GD32VW55x_standard_peripheral/Source\gd32vw55x_timer.c ****     timer_input_trigger_source_select(timer_periph, extrigger);
 3322              		.loc 1 1801 5
 3323 005e 3245     		lw	a0,12(sp)
 3324 0060 A285     		mv	a1,s0
 3325 0062 97000000 		call	timer_input_trigger_source_select
 3325      E7800000 
 3326              	.LVL210:
1802:C:/Users/stapi/OneDrive/Desktop/GD32VW553/GD32VW55X_Wifi_BLE_SDK/GD32VW55x_RELEASE_V1.0.2/MSDK/plf/GD32VW55x_standard_peripheral/Source\gd32vw55x_timer.c **** }
 3327              		.loc 1 1802 1 is_stmt 0
 3328 006a 4101     		addi	sp,sp,16
 3329              		.cfi_remember_state
 3330              		.cfi_def_cfa_offset 0
 3331              	.LVL211:
 3332 006c 17030000 		tail	__riscv_restore_1
 3332      67000300 
 3333              		.cfi_restore 8
 3334              		.cfi_restore 1
 3335              		.cfi_def_cfa_offset -16
 3336              	.LVL212:
 3337              	.L237:
 3338              		.cfi_restore_state
1782:C:/Users/stapi/OneDrive/Desktop/GD32VW553/GD32VW55X_Wifi_BLE_SDK/GD32VW55x_RELEASE_V1.0.2/MSDK/plf/GD32VW55x_standard_peripheral/Source\gd32vw55x_timer.c ****         /* reset the CH0P and CH0NP bits */
 3339              		.loc 1 1782 9 is_stmt 1
1782:C:/Users/stapi/OneDrive/Desktop/GD32VW553/GD32VW55X_Wifi_BLE_SDK/GD32VW55x_RELEASE_V1.0.2/MSDK/plf/GD32VW55x_standard_peripheral/Source\gd32vw55x_timer.c ****         /* reset the CH0P and CH0NP bits */
 3340              		.loc 1 1782 36 is_stmt 0
 3341 0074 1C51     		lw	a5,32(a0)
1794:C:/Users/stapi/OneDrive/Desktop/GD32VW553/GD32VW55X_Wifi_BLE_SDK/GD32VW55x_RELEASE_V1.0.2/MSDK/plf/GD32VW55x_standard_peripheral/Source\gd32vw55x_timer.c ****         /* set the CH0EN bit */
 3342              		.loc 1 1794 60
 3343 0076 9206     		slli	a3,a3,4
 3344              	.LVL213:
1782:C:/Users/stapi/OneDrive/Desktop/GD32VW553/GD32VW55X_Wifi_BLE_SDK/GD32VW55x_RELEASE_V1.0.2/MSDK/plf/GD32VW55x_standard_peripheral/Source\gd32vw55x_timer.c ****         /* reset the CH0P and CH0NP bits */
 3345              		.loc 1 1782 36
 3346 0078 F99B     		andi	a5,a5,-2
 3347 007a 1CD1     		sw	a5,32(a0)
1784:C:/Users/stapi/OneDrive/Desktop/GD32VW553/GD32VW55X_Wifi_BLE_SDK/GD32VW55x_RELEASE_V1.0.2/MSDK/plf/GD32VW55x_standard_peripheral/Source\gd32vw55x_timer.c ****         /* set the CH0P and CH0NP bits */
 3348              		.loc 1 1784 9 is_stmt 1
1784:C:/Users/stapi/OneDrive/Desktop/GD32VW553/GD32VW55X_Wifi_BLE_SDK/GD32VW55x_RELEASE_V1.0.2/MSDK/plf/GD32VW55x_standard_peripheral/Source\gd32vw55x_timer.c ****         /* set the CH0P and CH0NP bits */
 3349              		.loc 1 1784 36 is_stmt 0
 3350 007c 1C51     		lw	a5,32(a0)
 3351 007e D59B     		andi	a5,a5,-11
 3352 0080 1CD1     		sw	a5,32(a0)
1786:C:/Users/stapi/OneDrive/Desktop/GD32VW553/GD32VW55X_Wifi_BLE_SDK/GD32VW55x_RELEASE_V1.0.2/MSDK/plf/GD32VW55x_standard_peripheral/Source\gd32vw55x_timer.c ****         /* reset the CH0MS bit */
 3353              		.loc 1 1786 9 is_stmt 1
1786:C:/Users/stapi/OneDrive/Desktop/GD32VW553/GD32VW55X_Wifi_BLE_SDK/GD32VW55x_RELEASE_V1.0.2/MSDK/plf/GD32VW55x_standard_peripheral/Source\gd32vw55x_timer.c ****         /* reset the CH0MS bit */
 3354              		.loc 1 1786 36 is_stmt 0
 3355 0082 1C51     		lw	a5,32(a0)
 3356 0084 5D8E     		or	a2,a5,a2
 3357              	.LVL214:
 3358 0086 10D1     		sw	a2,32(a0)
1788:C:/Users/stapi/OneDrive/Desktop/GD32VW553/GD32VW55X_Wifi_BLE_SDK/GD32VW55x_RELEASE_V1.0.2/MSDK/plf/GD32VW55x_standard_peripheral/Source\gd32vw55x_timer.c ****         /* set the CH0MS bit */
 3359              		.loc 1 1788 9 is_stmt 1
1788:C:/Users/stapi/OneDrive/Desktop/GD32VW553/GD32VW55X_Wifi_BLE_SDK/GD32VW55x_RELEASE_V1.0.2/MSDK/plf/GD32VW55x_standard_peripheral/Source\gd32vw55x_timer.c ****         /* set the CH0MS bit */
 3360              		.loc 1 1788 36 is_stmt 0
 3361 0088 1C4D     		lw	a5,24(a0)
 3362 008a F19B     		andi	a5,a5,-4
 3363 008c 1CCD     		sw	a5,24(a0)
1790:C:/Users/stapi/OneDrive/Desktop/GD32VW553/GD32VW55X_Wifi_BLE_SDK/GD32VW55x_RELEASE_V1.0.2/MSDK/plf/GD32VW55x_standard_peripheral/Source\gd32vw55x_timer.c ****         /* reset the CH0CAPFLT bit */
 3364              		.loc 1 1790 9 is_stmt 1
1790:C:/Users/stapi/OneDrive/Desktop/GD32VW553/GD32VW55X_Wifi_BLE_SDK/GD32VW55x_RELEASE_V1.0.2/MSDK/plf/GD32VW55x_standard_peripheral/Source\gd32vw55x_timer.c ****         /* reset the CH0CAPFLT bit */
 3365              		.loc 1 1790 36 is_stmt 0
 3366 008e 1C4D     		lw	a5,24(a0)
 3367 0090 93E71700 		ori	a5,a5,1
 3368 0094 1CCD     		sw	a5,24(a0)
1792:C:/Users/stapi/OneDrive/Desktop/GD32VW553/GD32VW55X_Wifi_BLE_SDK/GD32VW55x_RELEASE_V1.0.2/MSDK/plf/GD32VW55x_standard_peripheral/Source\gd32vw55x_timer.c ****         /* reset the CH0CAPFLT bit */
 3369              		.loc 1 1792 9 is_stmt 1
1792:C:/Users/stapi/OneDrive/Desktop/GD32VW553/GD32VW55X_Wifi_BLE_SDK/GD32VW55x_RELEASE_V1.0.2/MSDK/plf/GD32VW55x_standard_peripheral/Source\gd32vw55x_timer.c ****         /* reset the CH0CAPFLT bit */
 3370              		.loc 1 1792 36 is_stmt 0
 3371 0096 1C4D     		lw	a5,24(a0)
 3372 0098 93F7F7F0 		andi	a5,a5,-241
 3373 009c 1CCD     		sw	a5,24(a0)
1794:C:/Users/stapi/OneDrive/Desktop/GD32VW553/GD32VW55X_Wifi_BLE_SDK/GD32VW55x_RELEASE_V1.0.2/MSDK/plf/GD32VW55x_standard_peripheral/Source\gd32vw55x_timer.c ****         /* set the CH0EN bit */
 3374              		.loc 1 1794 9 is_stmt 1
1794:C:/Users/stapi/OneDrive/Desktop/GD32VW553/GD32VW55X_Wifi_BLE_SDK/GD32VW55x_RELEASE_V1.0.2/MSDK/plf/GD32VW55x_standard_peripheral/Source\gd32vw55x_timer.c ****         /* set the CH0EN bit */
 3375              		.loc 1 1794 36 is_stmt 0
 3376 009e 1C4D     		lw	a5,24(a0)
 3377 00a0 DD8E     		or	a3,a3,a5
 3378 00a2 14CD     		sw	a3,24(a0)
1796:C:/Users/stapi/OneDrive/Desktop/GD32VW553/GD32VW55X_Wifi_BLE_SDK/GD32VW55x_RELEASE_V1.0.2/MSDK/plf/GD32VW55x_standard_peripheral/Source\gd32vw55x_timer.c ****     }
 3379              		.loc 1 1796 9 is_stmt 1
1796:C:/Users/stapi/OneDrive/Desktop/GD32VW553/GD32VW55X_Wifi_BLE_SDK/GD32VW55x_RELEASE_V1.0.2/MSDK/plf/GD32VW55x_standard_peripheral/Source\gd32vw55x_timer.c ****     }
 3380              		.loc 1 1796 36 is_stmt 0
 3381 00a4 1C51     		lw	a5,32(a0)
 3382 00a6 93E71700 		ori	a5,a5,1
 3383 00aa 5DB7     		j	.L240
 3384              		.cfi_endproc
 3385              	.LFE424:
 3387              		.section	.text.timer_external_clock_mode0_config,"ax",@progbits
 3388              		.align	1
 3389              		.globl	timer_external_clock_mode0_config
 3391              	timer_external_clock_mode0_config:
 3392              	.LFB425:
1803:C:/Users/stapi/OneDrive/Desktop/GD32VW553/GD32VW55X_Wifi_BLE_SDK/GD32VW55x_RELEASE_V1.0.2/MSDK/plf/GD32VW55x_standard_peripheral/Source\gd32vw55x_timer.c **** 
1804:C:/Users/stapi/OneDrive/Desktop/GD32VW553/GD32VW55X_Wifi_BLE_SDK/GD32VW55x_RELEASE_V1.0.2/MSDK/plf/GD32VW55x_standard_peripheral/Source\gd32vw55x_timer.c **** /*!
1805:C:/Users/stapi/OneDrive/Desktop/GD32VW553/GD32VW55X_Wifi_BLE_SDK/GD32VW55x_RELEASE_V1.0.2/MSDK/plf/GD32VW55x_standard_peripheral/Source\gd32vw55x_timer.c ****     \brief      configure TIMER the external clock mode0
1806:C:/Users/stapi/OneDrive/Desktop/GD32VW553/GD32VW55X_Wifi_BLE_SDK/GD32VW55x_RELEASE_V1.0.2/MSDK/plf/GD32VW55x_standard_peripheral/Source\gd32vw55x_timer.c ****     \param[in]  timer_periph: TIMERx(x=0,1,2)
1807:C:/Users/stapi/OneDrive/Desktop/GD32VW553/GD32VW55X_Wifi_BLE_SDK/GD32VW55x_RELEASE_V1.0.2/MSDK/plf/GD32VW55x_standard_peripheral/Source\gd32vw55x_timer.c ****     \param[in]  extprescaler:
1808:C:/Users/stapi/OneDrive/Desktop/GD32VW553/GD32VW55X_Wifi_BLE_SDK/GD32VW55x_RELEASE_V1.0.2/MSDK/plf/GD32VW55x_standard_peripheral/Source\gd32vw55x_timer.c ****                 only one parameter can be selected which is shown as below:
1809:C:/Users/stapi/OneDrive/Desktop/GD32VW553/GD32VW55X_Wifi_BLE_SDK/GD32VW55x_RELEASE_V1.0.2/MSDK/plf/GD32VW55x_standard_peripheral/Source\gd32vw55x_timer.c ****       \arg        TIMER_EXT_TRI_PSC_OFF: no divided
1810:C:/Users/stapi/OneDrive/Desktop/GD32VW553/GD32VW55X_Wifi_BLE_SDK/GD32VW55x_RELEASE_V1.0.2/MSDK/plf/GD32VW55x_standard_peripheral/Source\gd32vw55x_timer.c ****       \arg        TIMER_EXT_TRI_PSC_DIV2: divided by 2
1811:C:/Users/stapi/OneDrive/Desktop/GD32VW553/GD32VW55X_Wifi_BLE_SDK/GD32VW55x_RELEASE_V1.0.2/MSDK/plf/GD32VW55x_standard_peripheral/Source\gd32vw55x_timer.c ****       \arg        TIMER_EXT_TRI_PSC_DIV4: divided by 4
1812:C:/Users/stapi/OneDrive/Desktop/GD32VW553/GD32VW55X_Wifi_BLE_SDK/GD32VW55x_RELEASE_V1.0.2/MSDK/plf/GD32VW55x_standard_peripheral/Source\gd32vw55x_timer.c ****       \arg        TIMER_EXT_TRI_PSC_DIV8: divided by 8
1813:C:/Users/stapi/OneDrive/Desktop/GD32VW553/GD32VW55X_Wifi_BLE_SDK/GD32VW55x_RELEASE_V1.0.2/MSDK/plf/GD32VW55x_standard_peripheral/Source\gd32vw55x_timer.c ****     \param[in]  extpolarity:
1814:C:/Users/stapi/OneDrive/Desktop/GD32VW553/GD32VW55X_Wifi_BLE_SDK/GD32VW55x_RELEASE_V1.0.2/MSDK/plf/GD32VW55x_standard_peripheral/Source\gd32vw55x_timer.c ****                 only one parameter can be selected which is shown as below:
1815:C:/Users/stapi/OneDrive/Desktop/GD32VW553/GD32VW55X_Wifi_BLE_SDK/GD32VW55x_RELEASE_V1.0.2/MSDK/plf/GD32VW55x_standard_peripheral/Source\gd32vw55x_timer.c ****       \arg        TIMER_ETP_FALLING: active low or falling edge active
1816:C:/Users/stapi/OneDrive/Desktop/GD32VW553/GD32VW55X_Wifi_BLE_SDK/GD32VW55x_RELEASE_V1.0.2/MSDK/plf/GD32VW55x_standard_peripheral/Source\gd32vw55x_timer.c ****       \arg        TIMER_ETP_RISING: active high or rising edge active
1817:C:/Users/stapi/OneDrive/Desktop/GD32VW553/GD32VW55X_Wifi_BLE_SDK/GD32VW55x_RELEASE_V1.0.2/MSDK/plf/GD32VW55x_standard_peripheral/Source\gd32vw55x_timer.c ****     \param[in]  extfilter: a value between 0 and 15
1818:C:/Users/stapi/OneDrive/Desktop/GD32VW553/GD32VW55X_Wifi_BLE_SDK/GD32VW55x_RELEASE_V1.0.2/MSDK/plf/GD32VW55x_standard_peripheral/Source\gd32vw55x_timer.c ****     \param[out] none
1819:C:/Users/stapi/OneDrive/Desktop/GD32VW553/GD32VW55X_Wifi_BLE_SDK/GD32VW55x_RELEASE_V1.0.2/MSDK/plf/GD32VW55x_standard_peripheral/Source\gd32vw55x_timer.c ****     \retval     none
1820:C:/Users/stapi/OneDrive/Desktop/GD32VW553/GD32VW55X_Wifi_BLE_SDK/GD32VW55x_RELEASE_V1.0.2/MSDK/plf/GD32VW55x_standard_peripheral/Source\gd32vw55x_timer.c **** */
1821:C:/Users/stapi/OneDrive/Desktop/GD32VW553/GD32VW55X_Wifi_BLE_SDK/GD32VW55x_RELEASE_V1.0.2/MSDK/plf/GD32VW55x_standard_peripheral/Source\gd32vw55x_timer.c **** void timer_external_clock_mode0_config(uint32_t timer_periph, uint32_t extprescaler, uint32_t extpo
1822:C:/Users/stapi/OneDrive/Desktop/GD32VW553/GD32VW55X_Wifi_BLE_SDK/GD32VW55x_RELEASE_V1.0.2/MSDK/plf/GD32VW55x_standard_peripheral/Source\gd32vw55x_timer.c **** {
 3393              		.loc 1 1822 1 is_stmt 1
 3394              		.cfi_startproc
 3395              	.LVL215:
 3396 0000 17030000 		call	t0,__riscv_save_1
 3396      E7020300 
 3397              		.cfi_offset 8, -8
 3398              		.cfi_offset 1, -4
 3399              		.cfi_def_cfa_offset 16
1823:C:/Users/stapi/OneDrive/Desktop/GD32VW553/GD32VW55X_Wifi_BLE_SDK/GD32VW55x_RELEASE_V1.0.2/MSDK/plf/GD32VW55x_standard_peripheral/Source\gd32vw55x_timer.c ****     /* configure TIMER external trigger input */
1824:C:/Users/stapi/OneDrive/Desktop/GD32VW553/GD32VW55X_Wifi_BLE_SDK/GD32VW55x_RELEASE_V1.0.2/MSDK/plf/GD32VW55x_standard_peripheral/Source\gd32vw55x_timer.c ****     timer_external_trigger_config(timer_periph, extprescaler, extpolarity, extfilter);
 3400              		.loc 1 1824 5
1822:C:/Users/stapi/OneDrive/Desktop/GD32VW553/GD32VW55X_Wifi_BLE_SDK/GD32VW55x_RELEASE_V1.0.2/MSDK/plf/GD32VW55x_standard_peripheral/Source\gd32vw55x_timer.c ****     /* configure TIMER external trigger input */
 3401              		.loc 1 1822 1 is_stmt 0
 3402 0008 2A84     		mv	s0,a0
 3403              		.loc 1 1824 5
 3404 000a 97000000 		call	timer_external_trigger_config
 3404      E7800000 
 3405              	.LVL216:
1825:C:/Users/stapi/OneDrive/Desktop/GD32VW553/GD32VW55X_Wifi_BLE_SDK/GD32VW55x_RELEASE_V1.0.2/MSDK/plf/GD32VW55x_standard_peripheral/Source\gd32vw55x_timer.c ****     /* select TIMER slave mode */
1826:C:/Users/stapi/OneDrive/Desktop/GD32VW553/GD32VW55X_Wifi_BLE_SDK/GD32VW55x_RELEASE_V1.0.2/MSDK/plf/GD32VW55x_standard_peripheral/Source\gd32vw55x_timer.c ****     timer_slave_mode_select(timer_periph, TIMER_SLAVE_MODE_EXTERNAL0);
 3406              		.loc 1 1826 5 is_stmt 1
 3407 0012 2285     		mv	a0,s0
 3408 0014 9945     		li	a1,6
 3409 0016 97000000 		call	timer_slave_mode_select
 3409      E7800000 
 3410              	.LVL217:
1827:C:/Users/stapi/OneDrive/Desktop/GD32VW553/GD32VW55X_Wifi_BLE_SDK/GD32VW55x_RELEASE_V1.0.2/MSDK/plf/GD32VW55x_standard_peripheral/Source\gd32vw55x_timer.c ****     /* select TIMER input trigger source */
1828:C:/Users/stapi/OneDrive/Desktop/GD32VW553/GD32VW55X_Wifi_BLE_SDK/GD32VW55x_RELEASE_V1.0.2/MSDK/plf/GD32VW55x_standard_peripheral/Source\gd32vw55x_timer.c ****     timer_input_trigger_source_select(timer_periph, TIMER_SMCFG_TRGSEL_ETIFP);
 3411              		.loc 1 1828 5
 3412 001e A145     		li	a1,8
 3413 0020 2285     		mv	a0,s0
 3414 0022 97000000 		call	timer_input_trigger_source_select
 3414      E7800000 
 3415              	.LVL218:
1829:C:/Users/stapi/OneDrive/Desktop/GD32VW553/GD32VW55X_Wifi_BLE_SDK/GD32VW55x_RELEASE_V1.0.2/MSDK/plf/GD32VW55x_standard_peripheral/Source\gd32vw55x_timer.c **** }
 3416              		.loc 1 1829 1 is_stmt 0
 3417 002a 17030000 		tail	__riscv_restore_1
 3417      67000300 
 3418              		.cfi_restore 8
 3419              		.cfi_restore 1
 3420              		.cfi_def_cfa_offset 0
 3421              		.cfi_endproc
 3422              	.LFE425:
 3424              		.section	.text.timer_external_clock_mode1_config,"ax",@progbits
 3425              		.align	1
 3426              		.globl	timer_external_clock_mode1_config
 3428              	timer_external_clock_mode1_config:
 3429              	.LFB426:
1830:C:/Users/stapi/OneDrive/Desktop/GD32VW553/GD32VW55X_Wifi_BLE_SDK/GD32VW55x_RELEASE_V1.0.2/MSDK/plf/GD32VW55x_standard_peripheral/Source\gd32vw55x_timer.c **** 
1831:C:/Users/stapi/OneDrive/Desktop/GD32VW553/GD32VW55X_Wifi_BLE_SDK/GD32VW55x_RELEASE_V1.0.2/MSDK/plf/GD32VW55x_standard_peripheral/Source\gd32vw55x_timer.c **** /*!
1832:C:/Users/stapi/OneDrive/Desktop/GD32VW553/GD32VW55X_Wifi_BLE_SDK/GD32VW55x_RELEASE_V1.0.2/MSDK/plf/GD32VW55x_standard_peripheral/Source\gd32vw55x_timer.c ****     \brief      configure TIMER the external clock mode1
1833:C:/Users/stapi/OneDrive/Desktop/GD32VW553/GD32VW55X_Wifi_BLE_SDK/GD32VW55x_RELEASE_V1.0.2/MSDK/plf/GD32VW55x_standard_peripheral/Source\gd32vw55x_timer.c ****     \param[in]  timer_periph: TIMERx(x=0,1,2)
1834:C:/Users/stapi/OneDrive/Desktop/GD32VW553/GD32VW55X_Wifi_BLE_SDK/GD32VW55x_RELEASE_V1.0.2/MSDK/plf/GD32VW55x_standard_peripheral/Source\gd32vw55x_timer.c ****     \param[in]  extprescaler:
1835:C:/Users/stapi/OneDrive/Desktop/GD32VW553/GD32VW55X_Wifi_BLE_SDK/GD32VW55x_RELEASE_V1.0.2/MSDK/plf/GD32VW55x_standard_peripheral/Source\gd32vw55x_timer.c ****                 only one parameter can be selected which is shown as below:
1836:C:/Users/stapi/OneDrive/Desktop/GD32VW553/GD32VW55X_Wifi_BLE_SDK/GD32VW55x_RELEASE_V1.0.2/MSDK/plf/GD32VW55x_standard_peripheral/Source\gd32vw55x_timer.c ****       \arg        TIMER_EXT_TRI_PSC_OFF: no divided
1837:C:/Users/stapi/OneDrive/Desktop/GD32VW553/GD32VW55X_Wifi_BLE_SDK/GD32VW55x_RELEASE_V1.0.2/MSDK/plf/GD32VW55x_standard_peripheral/Source\gd32vw55x_timer.c ****       \arg        TIMER_EXT_TRI_PSC_DIV2: divided by 2
1838:C:/Users/stapi/OneDrive/Desktop/GD32VW553/GD32VW55X_Wifi_BLE_SDK/GD32VW55x_RELEASE_V1.0.2/MSDK/plf/GD32VW55x_standard_peripheral/Source\gd32vw55x_timer.c ****       \arg        TIMER_EXT_TRI_PSC_DIV4: divided by 4
1839:C:/Users/stapi/OneDrive/Desktop/GD32VW553/GD32VW55X_Wifi_BLE_SDK/GD32VW55x_RELEASE_V1.0.2/MSDK/plf/GD32VW55x_standard_peripheral/Source\gd32vw55x_timer.c ****       \arg        TIMER_EXT_TRI_PSC_DIV8: divided by 8
1840:C:/Users/stapi/OneDrive/Desktop/GD32VW553/GD32VW55X_Wifi_BLE_SDK/GD32VW55x_RELEASE_V1.0.2/MSDK/plf/GD32VW55x_standard_peripheral/Source\gd32vw55x_timer.c ****     \param[in]  extpolarity:
1841:C:/Users/stapi/OneDrive/Desktop/GD32VW553/GD32VW55X_Wifi_BLE_SDK/GD32VW55x_RELEASE_V1.0.2/MSDK/plf/GD32VW55x_standard_peripheral/Source\gd32vw55x_timer.c ****                 only one parameter can be selected which is shown as below:
1842:C:/Users/stapi/OneDrive/Desktop/GD32VW553/GD32VW55X_Wifi_BLE_SDK/GD32VW55x_RELEASE_V1.0.2/MSDK/plf/GD32VW55x_standard_peripheral/Source\gd32vw55x_timer.c ****       \arg        TIMER_ETP_FALLING: active low or falling edge active
1843:C:/Users/stapi/OneDrive/Desktop/GD32VW553/GD32VW55X_Wifi_BLE_SDK/GD32VW55x_RELEASE_V1.0.2/MSDK/plf/GD32VW55x_standard_peripheral/Source\gd32vw55x_timer.c ****       \arg        TIMER_ETP_RISING: active high or rising edge active
1844:C:/Users/stapi/OneDrive/Desktop/GD32VW553/GD32VW55X_Wifi_BLE_SDK/GD32VW55x_RELEASE_V1.0.2/MSDK/plf/GD32VW55x_standard_peripheral/Source\gd32vw55x_timer.c ****     \param[in]  extfilter: a value between 0 and 15
1845:C:/Users/stapi/OneDrive/Desktop/GD32VW553/GD32VW55X_Wifi_BLE_SDK/GD32VW55x_RELEASE_V1.0.2/MSDK/plf/GD32VW55x_standard_peripheral/Source\gd32vw55x_timer.c ****     \param[out] none
1846:C:/Users/stapi/OneDrive/Desktop/GD32VW553/GD32VW55X_Wifi_BLE_SDK/GD32VW55x_RELEASE_V1.0.2/MSDK/plf/GD32VW55x_standard_peripheral/Source\gd32vw55x_timer.c ****     \retval     none
1847:C:/Users/stapi/OneDrive/Desktop/GD32VW553/GD32VW55X_Wifi_BLE_SDK/GD32VW55x_RELEASE_V1.0.2/MSDK/plf/GD32VW55x_standard_peripheral/Source\gd32vw55x_timer.c **** */
1848:C:/Users/stapi/OneDrive/Desktop/GD32VW553/GD32VW55X_Wifi_BLE_SDK/GD32VW55x_RELEASE_V1.0.2/MSDK/plf/GD32VW55x_standard_peripheral/Source\gd32vw55x_timer.c **** void timer_external_clock_mode1_config(uint32_t timer_periph, uint32_t extprescaler, uint32_t extpo
1849:C:/Users/stapi/OneDrive/Desktop/GD32VW553/GD32VW55X_Wifi_BLE_SDK/GD32VW55x_RELEASE_V1.0.2/MSDK/plf/GD32VW55x_standard_peripheral/Source\gd32vw55x_timer.c **** {
 3430              		.loc 1 1849 1 is_stmt 1
 3431              		.cfi_startproc
 3432              	.LVL219:
 3433 0000 17030000 		call	t0,__riscv_save_1
 3433      E7020300 
 3434              		.cfi_offset 8, -8
 3435              		.cfi_offset 1, -4
 3436              		.cfi_def_cfa_offset 16
1850:C:/Users/stapi/OneDrive/Desktop/GD32VW553/GD32VW55X_Wifi_BLE_SDK/GD32VW55x_RELEASE_V1.0.2/MSDK/plf/GD32VW55x_standard_peripheral/Source\gd32vw55x_timer.c ****     /* configure TIMER external trigger input */
1851:C:/Users/stapi/OneDrive/Desktop/GD32VW553/GD32VW55X_Wifi_BLE_SDK/GD32VW55x_RELEASE_V1.0.2/MSDK/plf/GD32VW55x_standard_peripheral/Source\gd32vw55x_timer.c ****     timer_external_trigger_config(timer_periph, extprescaler, extpolarity, extfilter);
 3437              		.loc 1 1851 5
1849:C:/Users/stapi/OneDrive/Desktop/GD32VW553/GD32VW55X_Wifi_BLE_SDK/GD32VW55x_RELEASE_V1.0.2/MSDK/plf/GD32VW55x_standard_peripheral/Source\gd32vw55x_timer.c ****     /* configure TIMER external trigger input */
 3438              		.loc 1 1849 1 is_stmt 0
 3439 0008 2A84     		mv	s0,a0
 3440              		.loc 1 1851 5
 3441 000a 97000000 		call	timer_external_trigger_config
 3441      E7800000 
 3442              	.LVL220:
1852:C:/Users/stapi/OneDrive/Desktop/GD32VW553/GD32VW55X_Wifi_BLE_SDK/GD32VW55x_RELEASE_V1.0.2/MSDK/plf/GD32VW55x_standard_peripheral/Source\gd32vw55x_timer.c ****     TIMER_SMCFG(timer_periph) |= (uint32_t)TIMER_SMCFG_SMC1;
 3443              		.loc 1 1852 5 is_stmt 1
 3444              		.loc 1 1852 31 is_stmt 0
 3445 0012 1C44     		lw	a5,8(s0)
 3446 0014 9397E728 		bseti	a5,a5,14
 3447 0018 1CC4     		sw	a5,8(s0)
1853:C:/Users/stapi/OneDrive/Desktop/GD32VW553/GD32VW55X_Wifi_BLE_SDK/GD32VW55x_RELEASE_V1.0.2/MSDK/plf/GD32VW55x_standard_peripheral/Source\gd32vw55x_timer.c **** }
 3448              		.loc 1 1853 1
 3449 001a 17030000 		tail	__riscv_restore_1
 3449      67000300 
 3450              		.cfi_restore 8
 3451              		.cfi_restore 1
 3452              		.cfi_def_cfa_offset 0
 3453              		.cfi_endproc
 3454              	.LFE426:
 3456              		.section	.text.timer_external_clock_mode1_disable,"ax",@progbits
 3457              		.align	1
 3458              		.globl	timer_external_clock_mode1_disable
 3460              	timer_external_clock_mode1_disable:
 3461              	.LFB427:
1854:C:/Users/stapi/OneDrive/Desktop/GD32VW553/GD32VW55X_Wifi_BLE_SDK/GD32VW55x_RELEASE_V1.0.2/MSDK/plf/GD32VW55x_standard_peripheral/Source\gd32vw55x_timer.c **** 
1855:C:/Users/stapi/OneDrive/Desktop/GD32VW553/GD32VW55X_Wifi_BLE_SDK/GD32VW55x_RELEASE_V1.0.2/MSDK/plf/GD32VW55x_standard_peripheral/Source\gd32vw55x_timer.c **** /*!
1856:C:/Users/stapi/OneDrive/Desktop/GD32VW553/GD32VW55X_Wifi_BLE_SDK/GD32VW55x_RELEASE_V1.0.2/MSDK/plf/GD32VW55x_standard_peripheral/Source\gd32vw55x_timer.c ****     \brief      disable TIMER the external clock mode1
1857:C:/Users/stapi/OneDrive/Desktop/GD32VW553/GD32VW55X_Wifi_BLE_SDK/GD32VW55x_RELEASE_V1.0.2/MSDK/plf/GD32VW55x_standard_peripheral/Source\gd32vw55x_timer.c ****     \param[in]  timer_periph: TIMERx(x=0,1,2)
1858:C:/Users/stapi/OneDrive/Desktop/GD32VW553/GD32VW55X_Wifi_BLE_SDK/GD32VW55x_RELEASE_V1.0.2/MSDK/plf/GD32VW55x_standard_peripheral/Source\gd32vw55x_timer.c ****     \param[out] none
1859:C:/Users/stapi/OneDrive/Desktop/GD32VW553/GD32VW55X_Wifi_BLE_SDK/GD32VW55x_RELEASE_V1.0.2/MSDK/plf/GD32VW55x_standard_peripheral/Source\gd32vw55x_timer.c ****     \retval     none
1860:C:/Users/stapi/OneDrive/Desktop/GD32VW553/GD32VW55X_Wifi_BLE_SDK/GD32VW55x_RELEASE_V1.0.2/MSDK/plf/GD32VW55x_standard_peripheral/Source\gd32vw55x_timer.c **** */
1861:C:/Users/stapi/OneDrive/Desktop/GD32VW553/GD32VW55X_Wifi_BLE_SDK/GD32VW55x_RELEASE_V1.0.2/MSDK/plf/GD32VW55x_standard_peripheral/Source\gd32vw55x_timer.c **** void timer_external_clock_mode1_disable(uint32_t timer_periph)
1862:C:/Users/stapi/OneDrive/Desktop/GD32VW553/GD32VW55X_Wifi_BLE_SDK/GD32VW55x_RELEASE_V1.0.2/MSDK/plf/GD32VW55x_standard_peripheral/Source\gd32vw55x_timer.c **** {
 3462              		.loc 1 1862 1 is_stmt 1
 3463              		.cfi_startproc
 3464              	.LVL221:
1863:C:/Users/stapi/OneDrive/Desktop/GD32VW553/GD32VW55X_Wifi_BLE_SDK/GD32VW55x_RELEASE_V1.0.2/MSDK/plf/GD32VW55x_standard_peripheral/Source\gd32vw55x_timer.c ****     TIMER_SMCFG(timer_periph) &= ~(uint32_t)TIMER_SMCFG_SMC1;
 3465              		.loc 1 1863 5
 3466              		.loc 1 1863 31 is_stmt 0
 3467 0000 1C45     		lw	a5,8(a0)
 3468 0002 9397E748 		bclri	a5,a5,14
 3469 0006 1CC5     		sw	a5,8(a0)
1864:C:/Users/stapi/OneDrive/Desktop/GD32VW553/GD32VW55X_Wifi_BLE_SDK/GD32VW55x_RELEASE_V1.0.2/MSDK/plf/GD32VW55x_standard_peripheral/Source\gd32vw55x_timer.c **** }
 3470              		.loc 1 1864 1
 3471 0008 8280     		ret
 3472              		.cfi_endproc
 3473              	.LFE427:
 3475              		.section	.text.timer_write_chxval_register_config,"ax",@progbits
 3476              		.align	1
 3477              		.globl	timer_write_chxval_register_config
 3479              	timer_write_chxval_register_config:
 3480              	.LFB428:
1865:C:/Users/stapi/OneDrive/Desktop/GD32VW553/GD32VW55X_Wifi_BLE_SDK/GD32VW55x_RELEASE_V1.0.2/MSDK/plf/GD32VW55x_standard_peripheral/Source\gd32vw55x_timer.c **** 
1866:C:/Users/stapi/OneDrive/Desktop/GD32VW553/GD32VW55X_Wifi_BLE_SDK/GD32VW55x_RELEASE_V1.0.2/MSDK/plf/GD32VW55x_standard_peripheral/Source\gd32vw55x_timer.c **** /*!
1867:C:/Users/stapi/OneDrive/Desktop/GD32VW553/GD32VW55X_Wifi_BLE_SDK/GD32VW55x_RELEASE_V1.0.2/MSDK/plf/GD32VW55x_standard_peripheral/Source\gd32vw55x_timer.c ****     \brief      configure TIMER write CHxVAL register selection
1868:C:/Users/stapi/OneDrive/Desktop/GD32VW553/GD32VW55X_Wifi_BLE_SDK/GD32VW55x_RELEASE_V1.0.2/MSDK/plf/GD32VW55x_standard_peripheral/Source\gd32vw55x_timer.c ****     \param[in]  timer_periph: TIMERx(x=0,1,2,15,16)
1869:C:/Users/stapi/OneDrive/Desktop/GD32VW553/GD32VW55X_Wifi_BLE_SDK/GD32VW55x_RELEASE_V1.0.2/MSDK/plf/GD32VW55x_standard_peripheral/Source\gd32vw55x_timer.c ****     \param[in]  ccsel:
1870:C:/Users/stapi/OneDrive/Desktop/GD32VW553/GD32VW55X_Wifi_BLE_SDK/GD32VW55x_RELEASE_V1.0.2/MSDK/plf/GD32VW55x_standard_peripheral/Source\gd32vw55x_timer.c ****                 only one parameter can be selected which is shown as below:
1871:C:/Users/stapi/OneDrive/Desktop/GD32VW553/GD32VW55X_Wifi_BLE_SDK/GD32VW55x_RELEASE_V1.0.2/MSDK/plf/GD32VW55x_standard_peripheral/Source\gd32vw55x_timer.c ****       \arg        TIMER_CHVSEL_DISABLE: no effect
1872:C:/Users/stapi/OneDrive/Desktop/GD32VW553/GD32VW55X_Wifi_BLE_SDK/GD32VW55x_RELEASE_V1.0.2/MSDK/plf/GD32VW55x_standard_peripheral/Source\gd32vw55x_timer.c ****       \arg        TIMER_CHVSEL_ENABLE: when write the CHxVAL register, if the write value is same a
1873:C:/Users/stapi/OneDrive/Desktop/GD32VW553/GD32VW55X_Wifi_BLE_SDK/GD32VW55x_RELEASE_V1.0.2/MSDK/plf/GD32VW55x_standard_peripheral/Source\gd32vw55x_timer.c ****     \param[out] none
1874:C:/Users/stapi/OneDrive/Desktop/GD32VW553/GD32VW55X_Wifi_BLE_SDK/GD32VW55x_RELEASE_V1.0.2/MSDK/plf/GD32VW55x_standard_peripheral/Source\gd32vw55x_timer.c ****     \retval     none
1875:C:/Users/stapi/OneDrive/Desktop/GD32VW553/GD32VW55X_Wifi_BLE_SDK/GD32VW55x_RELEASE_V1.0.2/MSDK/plf/GD32VW55x_standard_peripheral/Source\gd32vw55x_timer.c **** */
1876:C:/Users/stapi/OneDrive/Desktop/GD32VW553/GD32VW55X_Wifi_BLE_SDK/GD32VW55x_RELEASE_V1.0.2/MSDK/plf/GD32VW55x_standard_peripheral/Source\gd32vw55x_timer.c **** void timer_write_chxval_register_config(uint32_t timer_periph, uint16_t ccsel)
1877:C:/Users/stapi/OneDrive/Desktop/GD32VW553/GD32VW55X_Wifi_BLE_SDK/GD32VW55x_RELEASE_V1.0.2/MSDK/plf/GD32VW55x_standard_peripheral/Source\gd32vw55x_timer.c **** {
 3481              		.loc 1 1877 1 is_stmt 1
 3482              		.cfi_startproc
 3483              	.LVL222:
1878:C:/Users/stapi/OneDrive/Desktop/GD32VW553/GD32VW55X_Wifi_BLE_SDK/GD32VW55x_RELEASE_V1.0.2/MSDK/plf/GD32VW55x_standard_peripheral/Source\gd32vw55x_timer.c ****     if(TIMER_CHVSEL_ENABLE == ccsel){
 3484              		.loc 1 1878 5
 3485              		.loc 1 1878 7 is_stmt 0
 3486 0000 8947     		li	a5,2
 3487 0002 6399F500 		bne	a1,a5,.L247
1879:C:/Users/stapi/OneDrive/Desktop/GD32VW553/GD32VW55X_Wifi_BLE_SDK/GD32VW55x_RELEASE_V1.0.2/MSDK/plf/GD32VW55x_standard_peripheral/Source\gd32vw55x_timer.c ****         TIMER_CFG(timer_periph) |= (uint32_t)TIMER_CFG_CHVSEL;
 3488              		.loc 1 1879 9 is_stmt 1
 3489              		.loc 1 1879 33 is_stmt 0
 3490 0006 8327C50F 		lw	a5,252(a0)
 3491 000a 93E72700 		ori	a5,a5,2
 3492              	.L249:
1880:C:/Users/stapi/OneDrive/Desktop/GD32VW553/GD32VW55X_Wifi_BLE_SDK/GD32VW55x_RELEASE_V1.0.2/MSDK/plf/GD32VW55x_standard_peripheral/Source\gd32vw55x_timer.c ****     }else if(TIMER_CHVSEL_DISABLE == ccsel){
1881:C:/Users/stapi/OneDrive/Desktop/GD32VW553/GD32VW55X_Wifi_BLE_SDK/GD32VW55x_RELEASE_V1.0.2/MSDK/plf/GD32VW55x_standard_peripheral/Source\gd32vw55x_timer.c ****         TIMER_CFG(timer_periph) &= ~(uint32_t)TIMER_CFG_CHVSEL;
 3493              		.loc 1 1881 33
 3494 000e 232EF50E 		sw	a5,252(a0)
1882:C:/Users/stapi/OneDrive/Desktop/GD32VW553/GD32VW55X_Wifi_BLE_SDK/GD32VW55x_RELEASE_V1.0.2/MSDK/plf/GD32VW55x_standard_peripheral/Source\gd32vw55x_timer.c ****     }else{
1883:C:/Users/stapi/OneDrive/Desktop/GD32VW553/GD32VW55X_Wifi_BLE_SDK/GD32VW55x_RELEASE_V1.0.2/MSDK/plf/GD32VW55x_standard_peripheral/Source\gd32vw55x_timer.c ****         /* illegal parameters */
1884:C:/Users/stapi/OneDrive/Desktop/GD32VW553/GD32VW55X_Wifi_BLE_SDK/GD32VW55x_RELEASE_V1.0.2/MSDK/plf/GD32VW55x_standard_peripheral/Source\gd32vw55x_timer.c ****     }
 3495              		.loc 1 1884 5 is_stmt 1
 3496              	.L246:
1885:C:/Users/stapi/OneDrive/Desktop/GD32VW553/GD32VW55X_Wifi_BLE_SDK/GD32VW55x_RELEASE_V1.0.2/MSDK/plf/GD32VW55x_standard_peripheral/Source\gd32vw55x_timer.c **** }
 3497              		.loc 1 1885 1 is_stmt 0
 3498 0012 8280     		ret
 3499              	.L247:
1880:C:/Users/stapi/OneDrive/Desktop/GD32VW553/GD32VW55X_Wifi_BLE_SDK/GD32VW55x_RELEASE_V1.0.2/MSDK/plf/GD32VW55x_standard_peripheral/Source\gd32vw55x_timer.c ****     }else if(TIMER_CHVSEL_DISABLE == ccsel){
 3500              		.loc 1 1880 11 is_stmt 1
1880:C:/Users/stapi/OneDrive/Desktop/GD32VW553/GD32VW55X_Wifi_BLE_SDK/GD32VW55x_RELEASE_V1.0.2/MSDK/plf/GD32VW55x_standard_peripheral/Source\gd32vw55x_timer.c ****     }else if(TIMER_CHVSEL_DISABLE == ccsel){
 3501              		.loc 1 1880 13 is_stmt 0
 3502 0014 FDFD     		bne	a1,zero,.L246
1881:C:/Users/stapi/OneDrive/Desktop/GD32VW553/GD32VW55X_Wifi_BLE_SDK/GD32VW55x_RELEASE_V1.0.2/MSDK/plf/GD32VW55x_standard_peripheral/Source\gd32vw55x_timer.c ****     }else{
 3503              		.loc 1 1881 9 is_stmt 1
1881:C:/Users/stapi/OneDrive/Desktop/GD32VW553/GD32VW55X_Wifi_BLE_SDK/GD32VW55x_RELEASE_V1.0.2/MSDK/plf/GD32VW55x_standard_peripheral/Source\gd32vw55x_timer.c ****     }else{
 3504              		.loc 1 1881 33 is_stmt 0
 3505 0016 8327C50F 		lw	a5,252(a0)
 3506 001a F59B     		andi	a5,a5,-3
 3507 001c CDBF     		j	.L249
 3508              		.cfi_endproc
 3509              	.LFE428:
 3511              		.section	.text.timer_output_value_selection_config,"ax",@progbits
 3512              		.align	1
 3513              		.globl	timer_output_value_selection_config
 3515              	timer_output_value_selection_config:
 3516              	.LFB429:
1886:C:/Users/stapi/OneDrive/Desktop/GD32VW553/GD32VW55X_Wifi_BLE_SDK/GD32VW55x_RELEASE_V1.0.2/MSDK/plf/GD32VW55x_standard_peripheral/Source\gd32vw55x_timer.c **** 
1887:C:/Users/stapi/OneDrive/Desktop/GD32VW553/GD32VW55X_Wifi_BLE_SDK/GD32VW55x_RELEASE_V1.0.2/MSDK/plf/GD32VW55x_standard_peripheral/Source\gd32vw55x_timer.c **** /*!
1888:C:/Users/stapi/OneDrive/Desktop/GD32VW553/GD32VW55X_Wifi_BLE_SDK/GD32VW55x_RELEASE_V1.0.2/MSDK/plf/GD32VW55x_standard_peripheral/Source\gd32vw55x_timer.c ****     \brief      configure TIMER output value selection
1889:C:/Users/stapi/OneDrive/Desktop/GD32VW553/GD32VW55X_Wifi_BLE_SDK/GD32VW55x_RELEASE_V1.0.2/MSDK/plf/GD32VW55x_standard_peripheral/Source\gd32vw55x_timer.c ****     \param[in]  timer_periph: TIMERx(x=0,15,16)
1890:C:/Users/stapi/OneDrive/Desktop/GD32VW553/GD32VW55X_Wifi_BLE_SDK/GD32VW55x_RELEASE_V1.0.2/MSDK/plf/GD32VW55x_standard_peripheral/Source\gd32vw55x_timer.c ****     \param[in]  outsel:
1891:C:/Users/stapi/OneDrive/Desktop/GD32VW553/GD32VW55X_Wifi_BLE_SDK/GD32VW55x_RELEASE_V1.0.2/MSDK/plf/GD32VW55x_standard_peripheral/Source\gd32vw55x_timer.c ****                 only one parameter can be selected which is shown as below:
1892:C:/Users/stapi/OneDrive/Desktop/GD32VW553/GD32VW55X_Wifi_BLE_SDK/GD32VW55x_RELEASE_V1.0.2/MSDK/plf/GD32VW55x_standard_peripheral/Source\gd32vw55x_timer.c ****       \arg        TIMER_OUTSEL_DISABLE: no effect
1893:C:/Users/stapi/OneDrive/Desktop/GD32VW553/GD32VW55X_Wifi_BLE_SDK/GD32VW55x_RELEASE_V1.0.2/MSDK/plf/GD32VW55x_standard_peripheral/Source\gd32vw55x_timer.c ****       \arg        TIMER_OUTSEL_ENABLE: if POEN and IOS is 0, the output disabled
1894:C:/Users/stapi/OneDrive/Desktop/GD32VW553/GD32VW55X_Wifi_BLE_SDK/GD32VW55x_RELEASE_V1.0.2/MSDK/plf/GD32VW55x_standard_peripheral/Source\gd32vw55x_timer.c ****     \param[out] none
1895:C:/Users/stapi/OneDrive/Desktop/GD32VW553/GD32VW55X_Wifi_BLE_SDK/GD32VW55x_RELEASE_V1.0.2/MSDK/plf/GD32VW55x_standard_peripheral/Source\gd32vw55x_timer.c ****     \retval     none
1896:C:/Users/stapi/OneDrive/Desktop/GD32VW553/GD32VW55X_Wifi_BLE_SDK/GD32VW55x_RELEASE_V1.0.2/MSDK/plf/GD32VW55x_standard_peripheral/Source\gd32vw55x_timer.c **** */
1897:C:/Users/stapi/OneDrive/Desktop/GD32VW553/GD32VW55X_Wifi_BLE_SDK/GD32VW55x_RELEASE_V1.0.2/MSDK/plf/GD32VW55x_standard_peripheral/Source\gd32vw55x_timer.c **** void timer_output_value_selection_config(uint32_t timer_periph, uint16_t outsel)
1898:C:/Users/stapi/OneDrive/Desktop/GD32VW553/GD32VW55X_Wifi_BLE_SDK/GD32VW55x_RELEASE_V1.0.2/MSDK/plf/GD32VW55x_standard_peripheral/Source\gd32vw55x_timer.c **** {
 3517              		.loc 1 1898 1 is_stmt 1
 3518              		.cfi_startproc
 3519              	.LVL223:
1899:C:/Users/stapi/OneDrive/Desktop/GD32VW553/GD32VW55X_Wifi_BLE_SDK/GD32VW55x_RELEASE_V1.0.2/MSDK/plf/GD32VW55x_standard_peripheral/Source\gd32vw55x_timer.c ****     if(TIMER_OUTSEL_ENABLE == outsel){
 3520              		.loc 1 1899 5
 3521              		.loc 1 1899 7 is_stmt 0
 3522 0000 8547     		li	a5,1
 3523 0002 6399F500 		bne	a1,a5,.L251
1900:C:/Users/stapi/OneDrive/Desktop/GD32VW553/GD32VW55X_Wifi_BLE_SDK/GD32VW55x_RELEASE_V1.0.2/MSDK/plf/GD32VW55x_standard_peripheral/Source\gd32vw55x_timer.c ****         TIMER_CFG(timer_periph) |= (uint32_t)TIMER_CFG_OUTSEL;
 3524              		.loc 1 1900 9 is_stmt 1
 3525              		.loc 1 1900 33 is_stmt 0
 3526 0006 8327C50F 		lw	a5,252(a0)
 3527 000a 93E71700 		ori	a5,a5,1
 3528              	.L253:
1901:C:/Users/stapi/OneDrive/Desktop/GD32VW553/GD32VW55X_Wifi_BLE_SDK/GD32VW55x_RELEASE_V1.0.2/MSDK/plf/GD32VW55x_standard_peripheral/Source\gd32vw55x_timer.c ****     }else if(TIMER_OUTSEL_DISABLE == outsel){
1902:C:/Users/stapi/OneDrive/Desktop/GD32VW553/GD32VW55X_Wifi_BLE_SDK/GD32VW55x_RELEASE_V1.0.2/MSDK/plf/GD32VW55x_standard_peripheral/Source\gd32vw55x_timer.c ****         TIMER_CFG(timer_periph) &= ~(uint32_t)TIMER_CFG_OUTSEL;
 3529              		.loc 1 1902 33
 3530 000e 232EF50E 		sw	a5,252(a0)
1903:C:/Users/stapi/OneDrive/Desktop/GD32VW553/GD32VW55X_Wifi_BLE_SDK/GD32VW55x_RELEASE_V1.0.2/MSDK/plf/GD32VW55x_standard_peripheral/Source\gd32vw55x_timer.c ****     }else{
1904:C:/Users/stapi/OneDrive/Desktop/GD32VW553/GD32VW55X_Wifi_BLE_SDK/GD32VW55x_RELEASE_V1.0.2/MSDK/plf/GD32VW55x_standard_peripheral/Source\gd32vw55x_timer.c ****         /* illegal parameters */
1905:C:/Users/stapi/OneDrive/Desktop/GD32VW553/GD32VW55X_Wifi_BLE_SDK/GD32VW55x_RELEASE_V1.0.2/MSDK/plf/GD32VW55x_standard_peripheral/Source\gd32vw55x_timer.c ****     }
 3531              		.loc 1 1905 5 is_stmt 1
 3532              	.L250:
1906:C:/Users/stapi/OneDrive/Desktop/GD32VW553/GD32VW55X_Wifi_BLE_SDK/GD32VW55x_RELEASE_V1.0.2/MSDK/plf/GD32VW55x_standard_peripheral/Source\gd32vw55x_timer.c **** }
 3533              		.loc 1 1906 1 is_stmt 0
 3534 0012 8280     		ret
 3535              	.L251:
1901:C:/Users/stapi/OneDrive/Desktop/GD32VW553/GD32VW55X_Wifi_BLE_SDK/GD32VW55x_RELEASE_V1.0.2/MSDK/plf/GD32VW55x_standard_peripheral/Source\gd32vw55x_timer.c ****     }else if(TIMER_OUTSEL_DISABLE == outsel){
 3536              		.loc 1 1901 11 is_stmt 1
1901:C:/Users/stapi/OneDrive/Desktop/GD32VW553/GD32VW55X_Wifi_BLE_SDK/GD32VW55x_RELEASE_V1.0.2/MSDK/plf/GD32VW55x_standard_peripheral/Source\gd32vw55x_timer.c ****     }else if(TIMER_OUTSEL_DISABLE == outsel){
 3537              		.loc 1 1901 13 is_stmt 0
 3538 0014 FDFD     		bne	a1,zero,.L250
1902:C:/Users/stapi/OneDrive/Desktop/GD32VW553/GD32VW55X_Wifi_BLE_SDK/GD32VW55x_RELEASE_V1.0.2/MSDK/plf/GD32VW55x_standard_peripheral/Source\gd32vw55x_timer.c ****     }else{
 3539              		.loc 1 1902 9 is_stmt 1
1902:C:/Users/stapi/OneDrive/Desktop/GD32VW553/GD32VW55X_Wifi_BLE_SDK/GD32VW55x_RELEASE_V1.0.2/MSDK/plf/GD32VW55x_standard_peripheral/Source\gd32vw55x_timer.c ****     }else{
 3540              		.loc 1 1902 33 is_stmt 0
 3541 0016 8327C50F 		lw	a5,252(a0)
 3542 001a F99B     		andi	a5,a5,-2
 3543 001c CDBF     		j	.L253
 3544              		.cfi_endproc
 3545              	.LFE429:
 3547              		.section	.text.timer_flag_get,"ax",@progbits
 3548              		.align	1
 3549              		.globl	timer_flag_get
 3551              	timer_flag_get:
 3552              	.LFB430:
1907:C:/Users/stapi/OneDrive/Desktop/GD32VW553/GD32VW55X_Wifi_BLE_SDK/GD32VW55x_RELEASE_V1.0.2/MSDK/plf/GD32VW55x_standard_peripheral/Source\gd32vw55x_timer.c **** 
1908:C:/Users/stapi/OneDrive/Desktop/GD32VW553/GD32VW55X_Wifi_BLE_SDK/GD32VW55x_RELEASE_V1.0.2/MSDK/plf/GD32VW55x_standard_peripheral/Source\gd32vw55x_timer.c **** /*!
1909:C:/Users/stapi/OneDrive/Desktop/GD32VW553/GD32VW55X_Wifi_BLE_SDK/GD32VW55x_RELEASE_V1.0.2/MSDK/plf/GD32VW55x_standard_peripheral/Source\gd32vw55x_timer.c ****     \brief      get TIMER flags
1910:C:/Users/stapi/OneDrive/Desktop/GD32VW553/GD32VW55X_Wifi_BLE_SDK/GD32VW55x_RELEASE_V1.0.2/MSDK/plf/GD32VW55x_standard_peripheral/Source\gd32vw55x_timer.c ****     \param[in]  timer_periph: please refer to the following parameters
1911:C:/Users/stapi/OneDrive/Desktop/GD32VW553/GD32VW55X_Wifi_BLE_SDK/GD32VW55x_RELEASE_V1.0.2/MSDK/plf/GD32VW55x_standard_peripheral/Source\gd32vw55x_timer.c ****     \param[in]  flag: the timer interrupt flags
1912:C:/Users/stapi/OneDrive/Desktop/GD32VW553/GD32VW55X_Wifi_BLE_SDK/GD32VW55x_RELEASE_V1.0.2/MSDK/plf/GD32VW55x_standard_peripheral/Source\gd32vw55x_timer.c ****                 only one parameter can be selected which is shown as below:
1913:C:/Users/stapi/OneDrive/Desktop/GD32VW553/GD32VW55X_Wifi_BLE_SDK/GD32VW55x_RELEASE_V1.0.2/MSDK/plf/GD32VW55x_standard_peripheral/Source\gd32vw55x_timer.c ****       \arg        TIMER_FLAG_UP: update flag,TIMERx(x=0,1,2,5,15,16)
1914:C:/Users/stapi/OneDrive/Desktop/GD32VW553/GD32VW55X_Wifi_BLE_SDK/GD32VW55x_RELEASE_V1.0.2/MSDK/plf/GD32VW55x_standard_peripheral/Source\gd32vw55x_timer.c ****       \arg        TIMER_FLAG_CH0: channel 0 flag,TIMERx(x=0,1,2,15,16)
1915:C:/Users/stapi/OneDrive/Desktop/GD32VW553/GD32VW55X_Wifi_BLE_SDK/GD32VW55x_RELEASE_V1.0.2/MSDK/plf/GD32VW55x_standard_peripheral/Source\gd32vw55x_timer.c ****       \arg        TIMER_FLAG_CH1: channel 1 flag,TIMERx(x=0,1,2)
1916:C:/Users/stapi/OneDrive/Desktop/GD32VW553/GD32VW55X_Wifi_BLE_SDK/GD32VW55x_RELEASE_V1.0.2/MSDK/plf/GD32VW55x_standard_peripheral/Source\gd32vw55x_timer.c ****       \arg        TIMER_FLAG_CH2: channel 2 flag,TIMERx(x=0,1,2)
1917:C:/Users/stapi/OneDrive/Desktop/GD32VW553/GD32VW55X_Wifi_BLE_SDK/GD32VW55x_RELEASE_V1.0.2/MSDK/plf/GD32VW55x_standard_peripheral/Source\gd32vw55x_timer.c ****       \arg        TIMER_FLAG_CH3: channel 3 flag,TIMERx(x=0,1,2)
1918:C:/Users/stapi/OneDrive/Desktop/GD32VW553/GD32VW55X_Wifi_BLE_SDK/GD32VW55x_RELEASE_V1.0.2/MSDK/plf/GD32VW55x_standard_peripheral/Source\gd32vw55x_timer.c ****       \arg        TIMER_FLAG_CMT: channel control update flag,TIMERx(x=0,15,16)
1919:C:/Users/stapi/OneDrive/Desktop/GD32VW553/GD32VW55X_Wifi_BLE_SDK/GD32VW55x_RELEASE_V1.0.2/MSDK/plf/GD32VW55x_standard_peripheral/Source\gd32vw55x_timer.c ****       \arg        TIMER_FLAG_TRG: trigger flag,TIMERx(x=0,1,2)
1920:C:/Users/stapi/OneDrive/Desktop/GD32VW553/GD32VW55X_Wifi_BLE_SDK/GD32VW55x_RELEASE_V1.0.2/MSDK/plf/GD32VW55x_standard_peripheral/Source\gd32vw55x_timer.c ****       \arg        TIMER_FLAG_BRK: break flag,TIMERx(x=0,15,16)
1921:C:/Users/stapi/OneDrive/Desktop/GD32VW553/GD32VW55X_Wifi_BLE_SDK/GD32VW55x_RELEASE_V1.0.2/MSDK/plf/GD32VW55x_standard_peripheral/Source\gd32vw55x_timer.c ****       \arg        TIMER_FLAG_CH0O: channel 0 overcapture flag,TIMERx(x=0,1,2,15,16)
1922:C:/Users/stapi/OneDrive/Desktop/GD32VW553/GD32VW55X_Wifi_BLE_SDK/GD32VW55x_RELEASE_V1.0.2/MSDK/plf/GD32VW55x_standard_peripheral/Source\gd32vw55x_timer.c ****       \arg        TIMER_FLAG_CH1O: channel 1 overcapture flag,TIMERx(x=0,1,2)
1923:C:/Users/stapi/OneDrive/Desktop/GD32VW553/GD32VW55X_Wifi_BLE_SDK/GD32VW55x_RELEASE_V1.0.2/MSDK/plf/GD32VW55x_standard_peripheral/Source\gd32vw55x_timer.c ****       \arg        TIMER_FLAG_CH2O: channel 2 overcapture flag,TIMERx(x=0,1,2)
1924:C:/Users/stapi/OneDrive/Desktop/GD32VW553/GD32VW55X_Wifi_BLE_SDK/GD32VW55x_RELEASE_V1.0.2/MSDK/plf/GD32VW55x_standard_peripheral/Source\gd32vw55x_timer.c ****       \arg        TIMER_FLAG_CH3O: channel 3 overcapture flag,TIMERx(x=0,1,2)
1925:C:/Users/stapi/OneDrive/Desktop/GD32VW553/GD32VW55X_Wifi_BLE_SDK/GD32VW55x_RELEASE_V1.0.2/MSDK/plf/GD32VW55x_standard_peripheral/Source\gd32vw55x_timer.c ****     \param[out] none
1926:C:/Users/stapi/OneDrive/Desktop/GD32VW553/GD32VW55X_Wifi_BLE_SDK/GD32VW55x_RELEASE_V1.0.2/MSDK/plf/GD32VW55x_standard_peripheral/Source\gd32vw55x_timer.c ****     \retval     FlagStatus: SET or RESET
1927:C:/Users/stapi/OneDrive/Desktop/GD32VW553/GD32VW55X_Wifi_BLE_SDK/GD32VW55x_RELEASE_V1.0.2/MSDK/plf/GD32VW55x_standard_peripheral/Source\gd32vw55x_timer.c **** */
1928:C:/Users/stapi/OneDrive/Desktop/GD32VW553/GD32VW55X_Wifi_BLE_SDK/GD32VW55x_RELEASE_V1.0.2/MSDK/plf/GD32VW55x_standard_peripheral/Source\gd32vw55x_timer.c **** FlagStatus timer_flag_get(uint32_t timer_periph, uint32_t flag)
1929:C:/Users/stapi/OneDrive/Desktop/GD32VW553/GD32VW55X_Wifi_BLE_SDK/GD32VW55x_RELEASE_V1.0.2/MSDK/plf/GD32VW55x_standard_peripheral/Source\gd32vw55x_timer.c **** {
 3553              		.loc 1 1929 1 is_stmt 1
 3554              		.cfi_startproc
 3555              	.LVL224:
1930:C:/Users/stapi/OneDrive/Desktop/GD32VW553/GD32VW55X_Wifi_BLE_SDK/GD32VW55x_RELEASE_V1.0.2/MSDK/plf/GD32VW55x_standard_peripheral/Source\gd32vw55x_timer.c ****     if(RESET != (TIMER_INTF(timer_periph) & flag)){
 3556              		.loc 1 1930 5
 3557              		.loc 1 1930 18 is_stmt 0
 3558 0000 0849     		lw	a0,16(a0)
 3559              	.LVL225:
 3560              		.loc 1 1930 43
 3561 0002 6D8D     		and	a0,a0,a1
1931:C:/Users/stapi/OneDrive/Desktop/GD32VW553/GD32VW55X_Wifi_BLE_SDK/GD32VW55x_RELEASE_V1.0.2/MSDK/plf/GD32VW55x_standard_peripheral/Source\gd32vw55x_timer.c ****         return SET;
1932:C:/Users/stapi/OneDrive/Desktop/GD32VW553/GD32VW55X_Wifi_BLE_SDK/GD32VW55x_RELEASE_V1.0.2/MSDK/plf/GD32VW55x_standard_peripheral/Source\gd32vw55x_timer.c ****     }else{
1933:C:/Users/stapi/OneDrive/Desktop/GD32VW553/GD32VW55X_Wifi_BLE_SDK/GD32VW55x_RELEASE_V1.0.2/MSDK/plf/GD32VW55x_standard_peripheral/Source\gd32vw55x_timer.c ****         return RESET;
1934:C:/Users/stapi/OneDrive/Desktop/GD32VW553/GD32VW55X_Wifi_BLE_SDK/GD32VW55x_RELEASE_V1.0.2/MSDK/plf/GD32VW55x_standard_peripheral/Source\gd32vw55x_timer.c ****     }
1935:C:/Users/stapi/OneDrive/Desktop/GD32VW553/GD32VW55X_Wifi_BLE_SDK/GD32VW55x_RELEASE_V1.0.2/MSDK/plf/GD32VW55x_standard_peripheral/Source\gd32vw55x_timer.c **** }
 3562              		.loc 1 1935 1
 3563 0004 3335A000 		snez	a0,a0
 3564 0008 8280     		ret
 3565              		.cfi_endproc
 3566              	.LFE430:
 3568              		.section	.text.timer_flag_clear,"ax",@progbits
 3569              		.align	1
 3570              		.globl	timer_flag_clear
 3572              	timer_flag_clear:
 3573              	.LFB431:
1936:C:/Users/stapi/OneDrive/Desktop/GD32VW553/GD32VW55X_Wifi_BLE_SDK/GD32VW55x_RELEASE_V1.0.2/MSDK/plf/GD32VW55x_standard_peripheral/Source\gd32vw55x_timer.c **** 
1937:C:/Users/stapi/OneDrive/Desktop/GD32VW553/GD32VW55X_Wifi_BLE_SDK/GD32VW55x_RELEASE_V1.0.2/MSDK/plf/GD32VW55x_standard_peripheral/Source\gd32vw55x_timer.c **** /*!
1938:C:/Users/stapi/OneDrive/Desktop/GD32VW553/GD32VW55X_Wifi_BLE_SDK/GD32VW55x_RELEASE_V1.0.2/MSDK/plf/GD32VW55x_standard_peripheral/Source\gd32vw55x_timer.c ****     \brief      clear TIMER flags
1939:C:/Users/stapi/OneDrive/Desktop/GD32VW553/GD32VW55X_Wifi_BLE_SDK/GD32VW55x_RELEASE_V1.0.2/MSDK/plf/GD32VW55x_standard_peripheral/Source\gd32vw55x_timer.c ****     \param[in]  timer_periph: please refer to the following parameters
1940:C:/Users/stapi/OneDrive/Desktop/GD32VW553/GD32VW55X_Wifi_BLE_SDK/GD32VW55x_RELEASE_V1.0.2/MSDK/plf/GD32VW55x_standard_peripheral/Source\gd32vw55x_timer.c ****     \param[in]  flag: the timer interrupt flags
1941:C:/Users/stapi/OneDrive/Desktop/GD32VW553/GD32VW55X_Wifi_BLE_SDK/GD32VW55x_RELEASE_V1.0.2/MSDK/plf/GD32VW55x_standard_peripheral/Source\gd32vw55x_timer.c ****                 only one parameter can be selected which is shown as below:
1942:C:/Users/stapi/OneDrive/Desktop/GD32VW553/GD32VW55X_Wifi_BLE_SDK/GD32VW55x_RELEASE_V1.0.2/MSDK/plf/GD32VW55x_standard_peripheral/Source\gd32vw55x_timer.c ****       \arg        TIMER_FLAG_UP: update flag,TIMERx(x=0,1,2,5,15,16)
1943:C:/Users/stapi/OneDrive/Desktop/GD32VW553/GD32VW55X_Wifi_BLE_SDK/GD32VW55x_RELEASE_V1.0.2/MSDK/plf/GD32VW55x_standard_peripheral/Source\gd32vw55x_timer.c ****       \arg        TIMER_FLAG_CH0: channel 0 flag,TIMERx(x=0,1,2,15,16)
1944:C:/Users/stapi/OneDrive/Desktop/GD32VW553/GD32VW55X_Wifi_BLE_SDK/GD32VW55x_RELEASE_V1.0.2/MSDK/plf/GD32VW55x_standard_peripheral/Source\gd32vw55x_timer.c ****       \arg        TIMER_FLAG_CH1: channel 1 flag,TIMERx(x=0,1,2)
1945:C:/Users/stapi/OneDrive/Desktop/GD32VW553/GD32VW55X_Wifi_BLE_SDK/GD32VW55x_RELEASE_V1.0.2/MSDK/plf/GD32VW55x_standard_peripheral/Source\gd32vw55x_timer.c ****       \arg        TIMER_FLAG_CH2: channel 2 flag,TIMERx(x=0,1,2)
1946:C:/Users/stapi/OneDrive/Desktop/GD32VW553/GD32VW55X_Wifi_BLE_SDK/GD32VW55x_RELEASE_V1.0.2/MSDK/plf/GD32VW55x_standard_peripheral/Source\gd32vw55x_timer.c ****       \arg        TIMER_FLAG_CH3: channel 3 flag,TIMERx(x=0,1,2)
1947:C:/Users/stapi/OneDrive/Desktop/GD32VW553/GD32VW55X_Wifi_BLE_SDK/GD32VW55x_RELEASE_V1.0.2/MSDK/plf/GD32VW55x_standard_peripheral/Source\gd32vw55x_timer.c ****       \arg        TIMER_FLAG_CMT: channel control update flag,TIMERx(x=0,15,16)
1948:C:/Users/stapi/OneDrive/Desktop/GD32VW553/GD32VW55X_Wifi_BLE_SDK/GD32VW55x_RELEASE_V1.0.2/MSDK/plf/GD32VW55x_standard_peripheral/Source\gd32vw55x_timer.c ****       \arg        TIMER_FLAG_TRG: trigger flag,TIMERx(x=0,1,2)
1949:C:/Users/stapi/OneDrive/Desktop/GD32VW553/GD32VW55X_Wifi_BLE_SDK/GD32VW55x_RELEASE_V1.0.2/MSDK/plf/GD32VW55x_standard_peripheral/Source\gd32vw55x_timer.c ****       \arg        TIMER_FLAG_BRK: break flag,TIMERx(x=0,15,16)
1950:C:/Users/stapi/OneDrive/Desktop/GD32VW553/GD32VW55X_Wifi_BLE_SDK/GD32VW55x_RELEASE_V1.0.2/MSDK/plf/GD32VW55x_standard_peripheral/Source\gd32vw55x_timer.c ****       \arg        TIMER_FLAG_CH0O: channel 0 overcapture flag,TIMERx(x=0,1,2,15,16)
1951:C:/Users/stapi/OneDrive/Desktop/GD32VW553/GD32VW55X_Wifi_BLE_SDK/GD32VW55x_RELEASE_V1.0.2/MSDK/plf/GD32VW55x_standard_peripheral/Source\gd32vw55x_timer.c ****       \arg        TIMER_FLAG_CH1O: channel 1 overcapture flag,TIMERx(x=0,1,2)
1952:C:/Users/stapi/OneDrive/Desktop/GD32VW553/GD32VW55X_Wifi_BLE_SDK/GD32VW55x_RELEASE_V1.0.2/MSDK/plf/GD32VW55x_standard_peripheral/Source\gd32vw55x_timer.c ****       \arg        TIMER_FLAG_CH2O: channel 2 overcapture flag,TIMERx(x=0,1,2)
1953:C:/Users/stapi/OneDrive/Desktop/GD32VW553/GD32VW55X_Wifi_BLE_SDK/GD32VW55x_RELEASE_V1.0.2/MSDK/plf/GD32VW55x_standard_peripheral/Source\gd32vw55x_timer.c ****       \arg        TIMER_FLAG_CH3O: channel 3 overcapture flag,TIMERx(x=0,1,2)
1954:C:/Users/stapi/OneDrive/Desktop/GD32VW553/GD32VW55X_Wifi_BLE_SDK/GD32VW55x_RELEASE_V1.0.2/MSDK/plf/GD32VW55x_standard_peripheral/Source\gd32vw55x_timer.c ****     \param[out] none
1955:C:/Users/stapi/OneDrive/Desktop/GD32VW553/GD32VW55X_Wifi_BLE_SDK/GD32VW55x_RELEASE_V1.0.2/MSDK/plf/GD32VW55x_standard_peripheral/Source\gd32vw55x_timer.c ****     \retval     none
1956:C:/Users/stapi/OneDrive/Desktop/GD32VW553/GD32VW55X_Wifi_BLE_SDK/GD32VW55x_RELEASE_V1.0.2/MSDK/plf/GD32VW55x_standard_peripheral/Source\gd32vw55x_timer.c **** */
1957:C:/Users/stapi/OneDrive/Desktop/GD32VW553/GD32VW55X_Wifi_BLE_SDK/GD32VW55x_RELEASE_V1.0.2/MSDK/plf/GD32VW55x_standard_peripheral/Source\gd32vw55x_timer.c **** void timer_flag_clear(uint32_t timer_periph, uint32_t flag)
1958:C:/Users/stapi/OneDrive/Desktop/GD32VW553/GD32VW55X_Wifi_BLE_SDK/GD32VW55x_RELEASE_V1.0.2/MSDK/plf/GD32VW55x_standard_peripheral/Source\gd32vw55x_timer.c **** {
 3574              		.loc 1 1958 1 is_stmt 1
 3575              		.cfi_startproc
 3576              	.LVL226:
1959:C:/Users/stapi/OneDrive/Desktop/GD32VW553/GD32VW55X_Wifi_BLE_SDK/GD32VW55x_RELEASE_V1.0.2/MSDK/plf/GD32VW55x_standard_peripheral/Source\gd32vw55x_timer.c ****     TIMER_INTF(timer_periph) = (~(uint32_t)flag);
 3577              		.loc 1 1959 5
 3578              		.loc 1 1959 33 is_stmt 0
 3579 0000 93C5F5FF 		not	a1,a1
 3580              	.LVL227:
 3581              		.loc 1 1959 30
 3582 0004 0CC9     		sw	a1,16(a0)
1960:C:/Users/stapi/OneDrive/Desktop/GD32VW553/GD32VW55X_Wifi_BLE_SDK/GD32VW55x_RELEASE_V1.0.2/MSDK/plf/GD32VW55x_standard_peripheral/Source\gd32vw55x_timer.c **** }
 3583              		.loc 1 1960 1
 3584 0006 8280     		ret
 3585              		.cfi_endproc
 3586              	.LFE431:
 3588              		.section	.text.timer_interrupt_enable,"ax",@progbits
 3589              		.align	1
 3590              		.globl	timer_interrupt_enable
 3592              	timer_interrupt_enable:
 3593              	.LFB432:
1961:C:/Users/stapi/OneDrive/Desktop/GD32VW553/GD32VW55X_Wifi_BLE_SDK/GD32VW55x_RELEASE_V1.0.2/MSDK/plf/GD32VW55x_standard_peripheral/Source\gd32vw55x_timer.c **** 
1962:C:/Users/stapi/OneDrive/Desktop/GD32VW553/GD32VW55X_Wifi_BLE_SDK/GD32VW55x_RELEASE_V1.0.2/MSDK/plf/GD32VW55x_standard_peripheral/Source\gd32vw55x_timer.c **** /*!
1963:C:/Users/stapi/OneDrive/Desktop/GD32VW553/GD32VW55X_Wifi_BLE_SDK/GD32VW55x_RELEASE_V1.0.2/MSDK/plf/GD32VW55x_standard_peripheral/Source\gd32vw55x_timer.c ****     \brief      enable the TIMER interrupt
1964:C:/Users/stapi/OneDrive/Desktop/GD32VW553/GD32VW55X_Wifi_BLE_SDK/GD32VW55x_RELEASE_V1.0.2/MSDK/plf/GD32VW55x_standard_peripheral/Source\gd32vw55x_timer.c ****     \param[in]  timer_periph: please refer to the following parameters
1965:C:/Users/stapi/OneDrive/Desktop/GD32VW553/GD32VW55X_Wifi_BLE_SDK/GD32VW55x_RELEASE_V1.0.2/MSDK/plf/GD32VW55x_standard_peripheral/Source\gd32vw55x_timer.c ****     \param[in]  interrupt: specify which interrupt to enable
1966:C:/Users/stapi/OneDrive/Desktop/GD32VW553/GD32VW55X_Wifi_BLE_SDK/GD32VW55x_RELEASE_V1.0.2/MSDK/plf/GD32VW55x_standard_peripheral/Source\gd32vw55x_timer.c ****                 only one parameter can be selected which is shown as below:
1967:C:/Users/stapi/OneDrive/Desktop/GD32VW553/GD32VW55X_Wifi_BLE_SDK/GD32VW55x_RELEASE_V1.0.2/MSDK/plf/GD32VW55x_standard_peripheral/Source\gd32vw55x_timer.c ****       \arg        TIMER_INT_UP: update interrupt enable,TIMERx(x=0,1,2,5,15,16)
1968:C:/Users/stapi/OneDrive/Desktop/GD32VW553/GD32VW55X_Wifi_BLE_SDK/GD32VW55x_RELEASE_V1.0.2/MSDK/plf/GD32VW55x_standard_peripheral/Source\gd32vw55x_timer.c ****       \arg        TIMER_INT_CH0: channel 0 interrupt enable,TIMERx(x=0,1,2,15,16)
1969:C:/Users/stapi/OneDrive/Desktop/GD32VW553/GD32VW55X_Wifi_BLE_SDK/GD32VW55x_RELEASE_V1.0.2/MSDK/plf/GD32VW55x_standard_peripheral/Source\gd32vw55x_timer.c ****       \arg        TIMER_INT_CH1: channel 1 interrupt enable,TIMERx(x=0,1,2)
1970:C:/Users/stapi/OneDrive/Desktop/GD32VW553/GD32VW55X_Wifi_BLE_SDK/GD32VW55x_RELEASE_V1.0.2/MSDK/plf/GD32VW55x_standard_peripheral/Source\gd32vw55x_timer.c ****       \arg        TIMER_INT_CH2: channel 2 interrupt enable,TIMERx(x=0,1,2)
1971:C:/Users/stapi/OneDrive/Desktop/GD32VW553/GD32VW55X_Wifi_BLE_SDK/GD32VW55x_RELEASE_V1.0.2/MSDK/plf/GD32VW55x_standard_peripheral/Source\gd32vw55x_timer.c ****       \arg        TIMER_INT_CH3: channel 3 interrupt enable,TIMERx(x=0,1,2)
1972:C:/Users/stapi/OneDrive/Desktop/GD32VW553/GD32VW55X_Wifi_BLE_SDK/GD32VW55x_RELEASE_V1.0.2/MSDK/plf/GD32VW55x_standard_peripheral/Source\gd32vw55x_timer.c ****       \arg        TIMER_INT_CMT: commutation interrupt enable,TIMERx(x=0,15,16)
1973:C:/Users/stapi/OneDrive/Desktop/GD32VW553/GD32VW55X_Wifi_BLE_SDK/GD32VW55x_RELEASE_V1.0.2/MSDK/plf/GD32VW55x_standard_peripheral/Source\gd32vw55x_timer.c ****       \arg        TIMER_INT_TRG: trigger interrupt enable,TIMERx(x=0,1,2)
1974:C:/Users/stapi/OneDrive/Desktop/GD32VW553/GD32VW55X_Wifi_BLE_SDK/GD32VW55x_RELEASE_V1.0.2/MSDK/plf/GD32VW55x_standard_peripheral/Source\gd32vw55x_timer.c ****       \arg        TIMER_INT_BRK: break interrupt enable,TIMERx(x=0,15,16)
1975:C:/Users/stapi/OneDrive/Desktop/GD32VW553/GD32VW55X_Wifi_BLE_SDK/GD32VW55x_RELEASE_V1.0.2/MSDK/plf/GD32VW55x_standard_peripheral/Source\gd32vw55x_timer.c ****     \param[out] none
1976:C:/Users/stapi/OneDrive/Desktop/GD32VW553/GD32VW55X_Wifi_BLE_SDK/GD32VW55x_RELEASE_V1.0.2/MSDK/plf/GD32VW55x_standard_peripheral/Source\gd32vw55x_timer.c ****     \retval     none
1977:C:/Users/stapi/OneDrive/Desktop/GD32VW553/GD32VW55X_Wifi_BLE_SDK/GD32VW55x_RELEASE_V1.0.2/MSDK/plf/GD32VW55x_standard_peripheral/Source\gd32vw55x_timer.c **** */
1978:C:/Users/stapi/OneDrive/Desktop/GD32VW553/GD32VW55X_Wifi_BLE_SDK/GD32VW55x_RELEASE_V1.0.2/MSDK/plf/GD32VW55x_standard_peripheral/Source\gd32vw55x_timer.c **** void timer_interrupt_enable(uint32_t timer_periph, uint32_t interrupt)
1979:C:/Users/stapi/OneDrive/Desktop/GD32VW553/GD32VW55X_Wifi_BLE_SDK/GD32VW55x_RELEASE_V1.0.2/MSDK/plf/GD32VW55x_standard_peripheral/Source\gd32vw55x_timer.c **** {
 3594              		.loc 1 1979 1 is_stmt 1
 3595              		.cfi_startproc
 3596              	.LVL228:
1980:C:/Users/stapi/OneDrive/Desktop/GD32VW553/GD32VW55X_Wifi_BLE_SDK/GD32VW55x_RELEASE_V1.0.2/MSDK/plf/GD32VW55x_standard_peripheral/Source\gd32vw55x_timer.c ****     TIMER_DMAINTEN(timer_periph) |= (uint32_t) interrupt;
 3597              		.loc 1 1980 5
 3598              		.loc 1 1980 34 is_stmt 0
 3599 0000 5C45     		lw	a5,12(a0)
 3600 0002 CD8F     		or	a5,a5,a1
 3601 0004 5CC5     		sw	a5,12(a0)
1981:C:/Users/stapi/OneDrive/Desktop/GD32VW553/GD32VW55X_Wifi_BLE_SDK/GD32VW55x_RELEASE_V1.0.2/MSDK/plf/GD32VW55x_standard_peripheral/Source\gd32vw55x_timer.c **** }
 3602              		.loc 1 1981 1
 3603 0006 8280     		ret
 3604              		.cfi_endproc
 3605              	.LFE432:
 3607              		.section	.text.timer_interrupt_disable,"ax",@progbits
 3608              		.align	1
 3609              		.globl	timer_interrupt_disable
 3611              	timer_interrupt_disable:
 3612              	.LFB433:
1982:C:/Users/stapi/OneDrive/Desktop/GD32VW553/GD32VW55X_Wifi_BLE_SDK/GD32VW55x_RELEASE_V1.0.2/MSDK/plf/GD32VW55x_standard_peripheral/Source\gd32vw55x_timer.c **** 
1983:C:/Users/stapi/OneDrive/Desktop/GD32VW553/GD32VW55X_Wifi_BLE_SDK/GD32VW55x_RELEASE_V1.0.2/MSDK/plf/GD32VW55x_standard_peripheral/Source\gd32vw55x_timer.c **** /*!
1984:C:/Users/stapi/OneDrive/Desktop/GD32VW553/GD32VW55X_Wifi_BLE_SDK/GD32VW55x_RELEASE_V1.0.2/MSDK/plf/GD32VW55x_standard_peripheral/Source\gd32vw55x_timer.c ****     \brief      disable the TIMER interrupt
1985:C:/Users/stapi/OneDrive/Desktop/GD32VW553/GD32VW55X_Wifi_BLE_SDK/GD32VW55x_RELEASE_V1.0.2/MSDK/plf/GD32VW55x_standard_peripheral/Source\gd32vw55x_timer.c ****     \param[in]  timer_periph: please refer to the following parameters
1986:C:/Users/stapi/OneDrive/Desktop/GD32VW553/GD32VW55X_Wifi_BLE_SDK/GD32VW55x_RELEASE_V1.0.2/MSDK/plf/GD32VW55x_standard_peripheral/Source\gd32vw55x_timer.c ****     \param[in]  interrupt: specify which interrupt to disable
1987:C:/Users/stapi/OneDrive/Desktop/GD32VW553/GD32VW55X_Wifi_BLE_SDK/GD32VW55x_RELEASE_V1.0.2/MSDK/plf/GD32VW55x_standard_peripheral/Source\gd32vw55x_timer.c ****                 only one parameter can be selected which is shown as below:
1988:C:/Users/stapi/OneDrive/Desktop/GD32VW553/GD32VW55X_Wifi_BLE_SDK/GD32VW55x_RELEASE_V1.0.2/MSDK/plf/GD32VW55x_standard_peripheral/Source\gd32vw55x_timer.c ****       \arg        TIMER_INT_UP: update interrupt disable,TIMERx(x=0,1,2,5,15,16)
1989:C:/Users/stapi/OneDrive/Desktop/GD32VW553/GD32VW55X_Wifi_BLE_SDK/GD32VW55x_RELEASE_V1.0.2/MSDK/plf/GD32VW55x_standard_peripheral/Source\gd32vw55x_timer.c ****       \arg        TIMER_INT_CH0: channel 0 interrupt disable,TIMERx(x=0,1,2,15,16)
1990:C:/Users/stapi/OneDrive/Desktop/GD32VW553/GD32VW55X_Wifi_BLE_SDK/GD32VW55x_RELEASE_V1.0.2/MSDK/plf/GD32VW55x_standard_peripheral/Source\gd32vw55x_timer.c ****       \arg        TIMER_INT_CH1: channel 1 interrupt disable,TIMERx(x=0,1,2)
1991:C:/Users/stapi/OneDrive/Desktop/GD32VW553/GD32VW55X_Wifi_BLE_SDK/GD32VW55x_RELEASE_V1.0.2/MSDK/plf/GD32VW55x_standard_peripheral/Source\gd32vw55x_timer.c ****       \arg        TIMER_INT_CH2: channel 2 interrupt disable,TIMERx(x=0,1,2)
1992:C:/Users/stapi/OneDrive/Desktop/GD32VW553/GD32VW55X_Wifi_BLE_SDK/GD32VW55x_RELEASE_V1.0.2/MSDK/plf/GD32VW55x_standard_peripheral/Source\gd32vw55x_timer.c ****       \arg        TIMER_INT_CH3: channel 3 interrupt disable,TIMERx(x=0,1,2)
1993:C:/Users/stapi/OneDrive/Desktop/GD32VW553/GD32VW55X_Wifi_BLE_SDK/GD32VW55x_RELEASE_V1.0.2/MSDK/plf/GD32VW55x_standard_peripheral/Source\gd32vw55x_timer.c ****       \arg        TIMER_INT_CMT: commutation interrupt disable,TIMERx(x=0,15,16)
1994:C:/Users/stapi/OneDrive/Desktop/GD32VW553/GD32VW55X_Wifi_BLE_SDK/GD32VW55x_RELEASE_V1.0.2/MSDK/plf/GD32VW55x_standard_peripheral/Source\gd32vw55x_timer.c ****       \arg        TIMER_INT_TRG: trigger interrupt disable,TIMERx(x=0,1,2)
1995:C:/Users/stapi/OneDrive/Desktop/GD32VW553/GD32VW55X_Wifi_BLE_SDK/GD32VW55x_RELEASE_V1.0.2/MSDK/plf/GD32VW55x_standard_peripheral/Source\gd32vw55x_timer.c ****       \arg        TIMER_INT_BRK: break interrupt disable,TIMERx(x=0,15,16)
1996:C:/Users/stapi/OneDrive/Desktop/GD32VW553/GD32VW55X_Wifi_BLE_SDK/GD32VW55x_RELEASE_V1.0.2/MSDK/plf/GD32VW55x_standard_peripheral/Source\gd32vw55x_timer.c ****     \param[out] none
1997:C:/Users/stapi/OneDrive/Desktop/GD32VW553/GD32VW55X_Wifi_BLE_SDK/GD32VW55x_RELEASE_V1.0.2/MSDK/plf/GD32VW55x_standard_peripheral/Source\gd32vw55x_timer.c ****     \retval     none
1998:C:/Users/stapi/OneDrive/Desktop/GD32VW553/GD32VW55X_Wifi_BLE_SDK/GD32VW55x_RELEASE_V1.0.2/MSDK/plf/GD32VW55x_standard_peripheral/Source\gd32vw55x_timer.c **** */
1999:C:/Users/stapi/OneDrive/Desktop/GD32VW553/GD32VW55X_Wifi_BLE_SDK/GD32VW55x_RELEASE_V1.0.2/MSDK/plf/GD32VW55x_standard_peripheral/Source\gd32vw55x_timer.c **** void timer_interrupt_disable(uint32_t timer_periph, uint32_t interrupt)
2000:C:/Users/stapi/OneDrive/Desktop/GD32VW553/GD32VW55X_Wifi_BLE_SDK/GD32VW55x_RELEASE_V1.0.2/MSDK/plf/GD32VW55x_standard_peripheral/Source\gd32vw55x_timer.c **** {
 3613              		.loc 1 2000 1 is_stmt 1
 3614              		.cfi_startproc
 3615              	.LVL229:
2001:C:/Users/stapi/OneDrive/Desktop/GD32VW553/GD32VW55X_Wifi_BLE_SDK/GD32VW55x_RELEASE_V1.0.2/MSDK/plf/GD32VW55x_standard_peripheral/Source\gd32vw55x_timer.c ****     TIMER_DMAINTEN(timer_periph) &= (~(uint32_t)interrupt);
 3616              		.loc 1 2001 5
 3617              		.loc 1 2001 34 is_stmt 0
 3618 0000 5C45     		lw	a5,12(a0)
 3619 0002 B3F5B740 		andn	a1,a5,a1
 3620              	.LVL230:
 3621 0006 4CC5     		sw	a1,12(a0)
2002:C:/Users/stapi/OneDrive/Desktop/GD32VW553/GD32VW55X_Wifi_BLE_SDK/GD32VW55x_RELEASE_V1.0.2/MSDK/plf/GD32VW55x_standard_peripheral/Source\gd32vw55x_timer.c **** }
 3622              		.loc 1 2002 1
 3623 0008 8280     		ret
 3624              		.cfi_endproc
 3625              	.LFE433:
 3627              		.section	.text.timer_interrupt_flag_get,"ax",@progbits
 3628              		.align	1
 3629              		.globl	timer_interrupt_flag_get
 3631              	timer_interrupt_flag_get:
 3632              	.LFB434:
2003:C:/Users/stapi/OneDrive/Desktop/GD32VW553/GD32VW55X_Wifi_BLE_SDK/GD32VW55x_RELEASE_V1.0.2/MSDK/plf/GD32VW55x_standard_peripheral/Source\gd32vw55x_timer.c **** 
2004:C:/Users/stapi/OneDrive/Desktop/GD32VW553/GD32VW55X_Wifi_BLE_SDK/GD32VW55x_RELEASE_V1.0.2/MSDK/plf/GD32VW55x_standard_peripheral/Source\gd32vw55x_timer.c **** /*!
2005:C:/Users/stapi/OneDrive/Desktop/GD32VW553/GD32VW55X_Wifi_BLE_SDK/GD32VW55x_RELEASE_V1.0.2/MSDK/plf/GD32VW55x_standard_peripheral/Source\gd32vw55x_timer.c ****     \brief      get timer interrupt flag
2006:C:/Users/stapi/OneDrive/Desktop/GD32VW553/GD32VW55X_Wifi_BLE_SDK/GD32VW55x_RELEASE_V1.0.2/MSDK/plf/GD32VW55x_standard_peripheral/Source\gd32vw55x_timer.c ****     \param[in]  timer_periph: please refer to the following parameters
2007:C:/Users/stapi/OneDrive/Desktop/GD32VW553/GD32VW55X_Wifi_BLE_SDK/GD32VW55x_RELEASE_V1.0.2/MSDK/plf/GD32VW55x_standard_peripheral/Source\gd32vw55x_timer.c ****     \param[in]  int_flag: the timer interrupt bits
2008:C:/Users/stapi/OneDrive/Desktop/GD32VW553/GD32VW55X_Wifi_BLE_SDK/GD32VW55x_RELEASE_V1.0.2/MSDK/plf/GD32VW55x_standard_peripheral/Source\gd32vw55x_timer.c ****                 only one parameter can be selected which is shown as below:
2009:C:/Users/stapi/OneDrive/Desktop/GD32VW553/GD32VW55X_Wifi_BLE_SDK/GD32VW55x_RELEASE_V1.0.2/MSDK/plf/GD32VW55x_standard_peripheral/Source\gd32vw55x_timer.c ****       \arg        TIMER_INT_FLAG_UP: update interrupt flag,TIMERx(x=0,1,2,5,15,16)
2010:C:/Users/stapi/OneDrive/Desktop/GD32VW553/GD32VW55X_Wifi_BLE_SDK/GD32VW55x_RELEASE_V1.0.2/MSDK/plf/GD32VW55x_standard_peripheral/Source\gd32vw55x_timer.c ****       \arg        TIMER_INT_FLAG_CH0: channel 0 interrupt flag,TIMERx(x=0,1,2,15,16)
2011:C:/Users/stapi/OneDrive/Desktop/GD32VW553/GD32VW55X_Wifi_BLE_SDK/GD32VW55x_RELEASE_V1.0.2/MSDK/plf/GD32VW55x_standard_peripheral/Source\gd32vw55x_timer.c ****       \arg        TIMER_INT_FLAG_CH1: channel 1 interrupt flag,TIMERx(x=0,1,2)
2012:C:/Users/stapi/OneDrive/Desktop/GD32VW553/GD32VW55X_Wifi_BLE_SDK/GD32VW55x_RELEASE_V1.0.2/MSDK/plf/GD32VW55x_standard_peripheral/Source\gd32vw55x_timer.c ****       \arg        TIMER_INT_FLAG_CH2: channel 2 interrupt flag,TIMERx(x=0,1,2)
2013:C:/Users/stapi/OneDrive/Desktop/GD32VW553/GD32VW55X_Wifi_BLE_SDK/GD32VW55x_RELEASE_V1.0.2/MSDK/plf/GD32VW55x_standard_peripheral/Source\gd32vw55x_timer.c ****       \arg        TIMER_INT_FLAG_CH3: channel 3 interrupt flag,TIMERx(x=0,1,2)
2014:C:/Users/stapi/OneDrive/Desktop/GD32VW553/GD32VW55X_Wifi_BLE_SDK/GD32VW55x_RELEASE_V1.0.2/MSDK/plf/GD32VW55x_standard_peripheral/Source\gd32vw55x_timer.c ****       \arg        TIMER_INT_FLAG_CMT: channel commutation interrupt flag,TIMERx(x=0,15,16)
2015:C:/Users/stapi/OneDrive/Desktop/GD32VW553/GD32VW55X_Wifi_BLE_SDK/GD32VW55x_RELEASE_V1.0.2/MSDK/plf/GD32VW55x_standard_peripheral/Source\gd32vw55x_timer.c ****       \arg        TIMER_INT_FLAG_TRG: trigger interrupt flag,TIMERx(x=0,1,2)
2016:C:/Users/stapi/OneDrive/Desktop/GD32VW553/GD32VW55X_Wifi_BLE_SDK/GD32VW55x_RELEASE_V1.0.2/MSDK/plf/GD32VW55x_standard_peripheral/Source\gd32vw55x_timer.c ****       \arg        TIMER_INT_FLAG_BRK:  break interrupt flag,TIMERx(x=0,15,16)
2017:C:/Users/stapi/OneDrive/Desktop/GD32VW553/GD32VW55X_Wifi_BLE_SDK/GD32VW55x_RELEASE_V1.0.2/MSDK/plf/GD32VW55x_standard_peripheral/Source\gd32vw55x_timer.c ****     \param[out] none
2018:C:/Users/stapi/OneDrive/Desktop/GD32VW553/GD32VW55X_Wifi_BLE_SDK/GD32VW55x_RELEASE_V1.0.2/MSDK/plf/GD32VW55x_standard_peripheral/Source\gd32vw55x_timer.c ****     \retval     FlagStatus: SET or RESET
2019:C:/Users/stapi/OneDrive/Desktop/GD32VW553/GD32VW55X_Wifi_BLE_SDK/GD32VW55x_RELEASE_V1.0.2/MSDK/plf/GD32VW55x_standard_peripheral/Source\gd32vw55x_timer.c **** */
2020:C:/Users/stapi/OneDrive/Desktop/GD32VW553/GD32VW55X_Wifi_BLE_SDK/GD32VW55x_RELEASE_V1.0.2/MSDK/plf/GD32VW55x_standard_peripheral/Source\gd32vw55x_timer.c **** FlagStatus timer_interrupt_flag_get(uint32_t timer_periph, uint32_t int_flag)
2021:C:/Users/stapi/OneDrive/Desktop/GD32VW553/GD32VW55X_Wifi_BLE_SDK/GD32VW55x_RELEASE_V1.0.2/MSDK/plf/GD32VW55x_standard_peripheral/Source\gd32vw55x_timer.c **** {
 3633              		.loc 1 2021 1 is_stmt 1
 3634              		.cfi_startproc
 3635              	.LVL231:
2022:C:/Users/stapi/OneDrive/Desktop/GD32VW553/GD32VW55X_Wifi_BLE_SDK/GD32VW55x_RELEASE_V1.0.2/MSDK/plf/GD32VW55x_standard_peripheral/Source\gd32vw55x_timer.c ****     uint32_t val;
 3636              		.loc 1 2022 5
2023:C:/Users/stapi/OneDrive/Desktop/GD32VW553/GD32VW55X_Wifi_BLE_SDK/GD32VW55x_RELEASE_V1.0.2/MSDK/plf/GD32VW55x_standard_peripheral/Source\gd32vw55x_timer.c ****     val = (TIMER_DMAINTEN(timer_periph) & int_flag);
 3637              		.loc 1 2023 5
 3638              		.loc 1 2023 12 is_stmt 0
 3639 0000 5C45     		lw	a5,12(a0)
 3640              	.LVL232:
2024:C:/Users/stapi/OneDrive/Desktop/GD32VW553/GD32VW55X_Wifi_BLE_SDK/GD32VW55x_RELEASE_V1.0.2/MSDK/plf/GD32VW55x_standard_peripheral/Source\gd32vw55x_timer.c ****     if((RESET != (TIMER_INTF(timer_periph) & int_flag) ) && (RESET != val)){
 3641              		.loc 1 2024 5 is_stmt 1
 3642              		.loc 1 2024 19 is_stmt 0
 3643 0002 0849     		lw	a0,16(a0)
 3644              	.LVL233:
 3645              		.loc 1 2024 44
 3646 0004 6D8D     		and	a0,a0,a1
 3647              		.loc 1 2024 7
 3648 0006 01C5     		beq	a0,zero,.L258
2023:C:/Users/stapi/OneDrive/Desktop/GD32VW553/GD32VW55X_Wifi_BLE_SDK/GD32VW55x_RELEASE_V1.0.2/MSDK/plf/GD32VW55x_standard_peripheral/Source\gd32vw55x_timer.c ****     val = (TIMER_DMAINTEN(timer_periph) & int_flag);
 3649              		.loc 1 2023 9 discriminator 1
 3650 0008 FD8D     		and	a1,a5,a1
 3651              	.LVL234:
 3652              		.loc 1 2024 58 discriminator 1
 3653 000a 3335B000 		snez	a0,a1
 3654              	.LVL235:
 3655              	.L258:
2025:C:/Users/stapi/OneDrive/Desktop/GD32VW553/GD32VW55X_Wifi_BLE_SDK/GD32VW55x_RELEASE_V1.0.2/MSDK/plf/GD32VW55x_standard_peripheral/Source\gd32vw55x_timer.c ****         return SET;
2026:C:/Users/stapi/OneDrive/Desktop/GD32VW553/GD32VW55X_Wifi_BLE_SDK/GD32VW55x_RELEASE_V1.0.2/MSDK/plf/GD32VW55x_standard_peripheral/Source\gd32vw55x_timer.c ****     }else{
2027:C:/Users/stapi/OneDrive/Desktop/GD32VW553/GD32VW55X_Wifi_BLE_SDK/GD32VW55x_RELEASE_V1.0.2/MSDK/plf/GD32VW55x_standard_peripheral/Source\gd32vw55x_timer.c ****         return RESET;
2028:C:/Users/stapi/OneDrive/Desktop/GD32VW553/GD32VW55X_Wifi_BLE_SDK/GD32VW55x_RELEASE_V1.0.2/MSDK/plf/GD32VW55x_standard_peripheral/Source\gd32vw55x_timer.c ****     }
2029:C:/Users/stapi/OneDrive/Desktop/GD32VW553/GD32VW55X_Wifi_BLE_SDK/GD32VW55x_RELEASE_V1.0.2/MSDK/plf/GD32VW55x_standard_peripheral/Source\gd32vw55x_timer.c **** }
 3656              		.loc 1 2029 1
 3657 000e 8280     		ret
 3658              		.cfi_endproc
 3659              	.LFE434:
 3661              		.section	.text.timer_interrupt_flag_clear,"ax",@progbits
 3662              		.align	1
 3663              		.globl	timer_interrupt_flag_clear
 3665              	timer_interrupt_flag_clear:
 3666              	.LFB437:
 3667              		.cfi_startproc
 3668 0000 93C5F5FF 		not	a1,a1
 3669 0004 0CC9     		sw	a1,16(a0)
 3670 0006 8280     		ret
 3671              		.cfi_endproc
 3672              	.LFE437:
 3674              		.text
 3675              	.Letext0:
 3676              		.file 2 "c:\\users\\stapi\\onedrive\\desktop\\gd32vw553\\embeddedbuilder_v1.4.7.26843\\tools\\nucl
 3677              		.file 3 "c:\\users\\stapi\\onedrive\\desktop\\gd32vw553\\embeddedbuilder_v1.4.7.26843\\tools\\nucl
 3678              		.file 4 "..\\..\\..\\..\\plf\\riscv\\gd32vw55x/gd32vw55x.h"
 3679              		.file 5 "..\\..\\..\\..\\plf\\GD32VW55x_standard_peripheral\\Include/gd32vw55x_rcu.h"
 3680              		.file 6 "..\\..\\..\\..\\plf\\GD32VW55x_standard_peripheral\\Include/gd32vw55x_timer.h"
DEFINED SYMBOLS
                            *ABS*:0000000000000000 gd32vw55x_timer.c
C:\Users\stapi\AppData\Local\Temp\ccmnwr16.s:13     .text.timer_deinit:0000000000000000 timer_deinit
C:\Users\stapi\AppData\Local\Temp\ccmnwr16.s:17     .text.timer_deinit:0000000000000000 .L0 
C:\Users\stapi\AppData\Local\Temp\ccmnwr16.s:19     .text.timer_deinit:0000000000000000 .L0 
C:\Users\stapi\AppData\Local\Temp\ccmnwr16.s:20     .text.timer_deinit:0000000000000008 .L0 
C:\Users\stapi\AppData\Local\Temp\ccmnwr16.s:21     .text.timer_deinit:0000000000000008 .L0 
C:\Users\stapi\AppData\Local\Temp\ccmnwr16.s:22     .text.timer_deinit:0000000000000008 .L0 
C:\Users\stapi\AppData\Local\Temp\ccmnwr16.s:24     .text.timer_deinit:0000000000000008 .L0 
C:\Users\stapi\AppData\Local\Temp\ccmnwr16.s:36     .text.timer_deinit:000000000000002c .L0 
C:\Users\stapi\AppData\Local\Temp\ccmnwr16.s:37     .text.timer_deinit:0000000000000034 .L0 
C:\Users\stapi\AppData\Local\Temp\ccmnwr16.s:38     .text.timer_deinit:0000000000000034 .L0 
C:\Users\stapi\AppData\Local\Temp\ccmnwr16.s:39     .text.timer_deinit:0000000000000034 .L0 
C:\Users\stapi\AppData\Local\Temp\ccmnwr16.s:40     .text.timer_deinit:0000000000000034 .L0 
C:\Users\stapi\AppData\Local\Temp\ccmnwr16.s:43     .text.timer_deinit:0000000000000034 .L0 
C:\Users\stapi\AppData\Local\Temp\ccmnwr16.s:45     .text.timer_deinit:0000000000000034 .L0 
C:\Users\stapi\AppData\Local\Temp\ccmnwr16.s:50     .text.timer_deinit:0000000000000044 .L0 
C:\Users\stapi\AppData\Local\Temp\ccmnwr16.s:56     .text.timer_deinit:0000000000000052 .L0 
C:\Users\stapi\AppData\Local\Temp\ccmnwr16.s:61     .text.timer_deinit:0000000000000058 .L0 
C:\Users\stapi\AppData\Local\Temp\ccmnwr16.s:67     .text.timer_deinit:0000000000000066 .L0 
C:\Users\stapi\AppData\Local\Temp\ccmnwr16.s:70     .text.timer_deinit:000000000000006a .L0 
C:\Users\stapi\AppData\Local\Temp\ccmnwr16.s:73     .text.timer_deinit:0000000000000072 .L0 
C:\Users\stapi\AppData\Local\Temp\ccmnwr16.s:74     .text.timer_deinit:0000000000000072 .L0 
C:\Users\stapi\AppData\Local\Temp\ccmnwr16.s:78     .text.timer_deinit:0000000000000074 .L0 
C:\Users\stapi\AppData\Local\Temp\ccmnwr16.s:84     .text.timer_deinit:0000000000000082 .L0 
C:\Users\stapi\AppData\Local\Temp\ccmnwr16.s:89     .text.timer_deinit:0000000000000088 .L0 
C:\Users\stapi\AppData\Local\Temp\ccmnwr16.s:95     .text.timer_deinit:0000000000000096 .L0 
C:\Users\stapi\AppData\Local\Temp\ccmnwr16.s:100    .text.timer_deinit:000000000000009c .L0 
C:\Users\stapi\AppData\Local\Temp\ccmnwr16.s:106    .text.timer_deinit:00000000000000aa .L0 
C:\Users\stapi\AppData\Local\Temp\ccmnwr16.s:111    .text.timer_deinit:00000000000000b0 .L0 
C:\Users\stapi\AppData\Local\Temp\ccmnwr16.s:117    .text.timer_deinit:00000000000000be .L0 
C:\Users\stapi\AppData\Local\Temp\ccmnwr16.s:119    .text.timer_deinit:00000000000000c4 .L0 
C:\Users\stapi\AppData\Local\Temp\ccmnwr16.s:126    .text.timer_struct_para_init:0000000000000000 timer_struct_para_init
C:\Users\stapi\AppData\Local\Temp\ccmnwr16.s:129    .text.timer_struct_para_init:0000000000000000 .L0 
C:\Users\stapi\AppData\Local\Temp\ccmnwr16.s:131    .text.timer_struct_para_init:0000000000000000 .L0 
C:\Users\stapi\AppData\Local\Temp\ccmnwr16.s:132    .text.timer_struct_para_init:0000000000000000 .L0 
C:\Users\stapi\AppData\Local\Temp\ccmnwr16.s:133    .text.timer_struct_para_init:0000000000000000 .L0 
C:\Users\stapi\AppData\Local\Temp\ccmnwr16.s:134    .text.timer_struct_para_init:0000000000000000 .L0 
C:\Users\stapi\AppData\Local\Temp\ccmnwr16.s:135    .text.timer_struct_para_init:0000000000000000 .L0 
C:\Users\stapi\AppData\Local\Temp\ccmnwr16.s:138    .text.timer_struct_para_init:0000000000000004 .L0 
C:\Users\stapi\AppData\Local\Temp\ccmnwr16.s:140    .text.timer_struct_para_init:0000000000000008 .L0 
C:\Users\stapi\AppData\Local\Temp\ccmnwr16.s:142    .text.timer_struct_para_init:000000000000000c .L0 
C:\Users\stapi\AppData\Local\Temp\ccmnwr16.s:143    .text.timer_struct_para_init:000000000000000c .L0 
C:\Users\stapi\AppData\Local\Temp\ccmnwr16.s:145    .text.timer_struct_para_init:000000000000000e .L0 
C:\Users\stapi\AppData\Local\Temp\ccmnwr16.s:146    .text.timer_struct_para_init:000000000000000e .L0 
C:\Users\stapi\AppData\Local\Temp\ccmnwr16.s:148    .text.timer_struct_para_init:0000000000000012 .L0 
C:\Users\stapi\AppData\Local\Temp\ccmnwr16.s:149    .text.timer_struct_para_init:0000000000000012 .L0 
C:\Users\stapi\AppData\Local\Temp\ccmnwr16.s:151    .text.timer_struct_para_init:0000000000000016 .L0 
C:\Users\stapi\AppData\Local\Temp\ccmnwr16.s:152    .text.timer_struct_para_init:0000000000000018 .L0 
C:\Users\stapi\AppData\Local\Temp\ccmnwr16.s:159    .text.timer_init:0000000000000000 timer_init
C:\Users\stapi\AppData\Local\Temp\ccmnwr16.s:162    .text.timer_init:0000000000000000 .L0 
C:\Users\stapi\AppData\Local\Temp\ccmnwr16.s:164    .text.timer_init:0000000000000000 .L0 
C:\Users\stapi\AppData\Local\Temp\ccmnwr16.s:165    .text.timer_init:0000000000000000 .L0 
C:\Users\stapi\AppData\Local\Temp\ccmnwr16.s:166    .text.timer_init:0000000000000000 .L0 
C:\Users\stapi\AppData\Local\Temp\ccmnwr16.s:168    .text.timer_init:0000000000000004 .L0 
C:\Users\stapi\AppData\Local\Temp\ccmnwr16.s:170    .text.timer_init:0000000000000006 .L0 
C:\Users\stapi\AppData\Local\Temp\ccmnwr16.s:171    .text.timer_init:0000000000000006 .L0 
C:\Users\stapi\AppData\Local\Temp\ccmnwr16.s:174    .text.timer_init:000000000000000e .L0 
C:\Users\stapi\AppData\Local\Temp\ccmnwr16.s:179    .text.timer_init:000000000000001a .L0 
C:\Users\stapi\AppData\Local\Temp\ccmnwr16.s:180    .text.timer_init:000000000000001a .L0 
C:\Users\stapi\AppData\Local\Temp\ccmnwr16.s:184    .text.timer_init:0000000000000022 .L0 
C:\Users\stapi\AppData\Local\Temp\ccmnwr16.s:185    .text.timer_init:0000000000000022 .L0 
C:\Users\stapi\AppData\Local\Temp\ccmnwr16.s:187    .text.timer_init:0000000000000026 .L0 
C:\Users\stapi\AppData\Local\Temp\ccmnwr16.s:189    .text.timer_init:0000000000000028 .L0 
C:\Users\stapi\AppData\Local\Temp\ccmnwr16.s:191    .text.timer_init:000000000000002c .L0 
C:\Users\stapi\AppData\Local\Temp\ccmnwr16.s:194    .text.timer_init:0000000000000030 .L0 
C:\Users\stapi\AppData\Local\Temp\ccmnwr16.s:195    .text.timer_init:0000000000000030 .L0 
C:\Users\stapi\AppData\Local\Temp\ccmnwr16.s:197    .text.timer_init:0000000000000034 .L0 
C:\Users\stapi\AppData\Local\Temp\ccmnwr16.s:199    .text.timer_init:0000000000000036 .L0 
C:\Users\stapi\AppData\Local\Temp\ccmnwr16.s:201    .text.timer_init:0000000000000038 .L0 
C:\Users\stapi\AppData\Local\Temp\ccmnwr16.s:205    .text.timer_init:000000000000003c .L0 
C:\Users\stapi\AppData\Local\Temp\ccmnwr16.s:206    .text.timer_init:000000000000003c .L0 
C:\Users\stapi\AppData\Local\Temp\ccmnwr16.s:208    .text.timer_init:000000000000003e .L0 
C:\Users\stapi\AppData\Local\Temp\ccmnwr16.s:210    .text.timer_init:0000000000000040 .L0 
C:\Users\stapi\AppData\Local\Temp\ccmnwr16.s:211    .text.timer_init:0000000000000040 .L0 
C:\Users\stapi\AppData\Local\Temp\ccmnwr16.s:214    .text.timer_init:0000000000000048 .L0 
C:\Users\stapi\AppData\Local\Temp\ccmnwr16.s:215    .text.timer_init:0000000000000048 .L0 
C:\Users\stapi\AppData\Local\Temp\ccmnwr16.s:219    .text.timer_init:0000000000000050 .L0 
C:\Users\stapi\AppData\Local\Temp\ccmnwr16.s:220    .text.timer_init:0000000000000050 .L0 
C:\Users\stapi\AppData\Local\Temp\ccmnwr16.s:222    .text.timer_init:0000000000000054 .L0 
C:\Users\stapi\AppData\Local\Temp\ccmnwr16.s:224    .text.timer_init:0000000000000056 .L0 
C:\Users\stapi\AppData\Local\Temp\ccmnwr16.s:226    .text.timer_init:000000000000005a .L0 
C:\Users\stapi\AppData\Local\Temp\ccmnwr16.s:229    .text.timer_init:000000000000005e .L0 
C:\Users\stapi\AppData\Local\Temp\ccmnwr16.s:230    .text.timer_init:000000000000005e .L0 
C:\Users\stapi\AppData\Local\Temp\ccmnwr16.s:233    .text.timer_init:0000000000000066 .L0 
C:\Users\stapi\AppData\Local\Temp\ccmnwr16.s:238    .text.timer_init:0000000000000072 .L0 
C:\Users\stapi\AppData\Local\Temp\ccmnwr16.s:239    .text.timer_init:0000000000000072 .L0 
C:\Users\stapi\AppData\Local\Temp\ccmnwr16.s:241    .text.timer_init:0000000000000076 .L0 
C:\Users\stapi\AppData\Local\Temp\ccmnwr16.s:244    .text.timer_init:0000000000000078 .L0 
C:\Users\stapi\AppData\Local\Temp\ccmnwr16.s:245    .text.timer_init:0000000000000078 .L0 
C:\Users\stapi\AppData\Local\Temp\ccmnwr16.s:249    .text.timer_init:0000000000000080 .L0 
C:\Users\stapi\AppData\Local\Temp\ccmnwr16.s:250    .text.timer_init:0000000000000082 .L0 
C:\Users\stapi\AppData\Local\Temp\ccmnwr16.s:257    .text.timer_enable:0000000000000000 timer_enable
C:\Users\stapi\AppData\Local\Temp\ccmnwr16.s:260    .text.timer_enable:0000000000000000 .L0 
C:\Users\stapi\AppData\Local\Temp\ccmnwr16.s:262    .text.timer_enable:0000000000000000 .L0 
C:\Users\stapi\AppData\Local\Temp\ccmnwr16.s:263    .text.timer_enable:0000000000000000 .L0 
C:\Users\stapi\AppData\Local\Temp\ccmnwr16.s:264    .text.timer_enable:0000000000000000 .L0 
C:\Users\stapi\AppData\Local\Temp\ccmnwr16.s:268    .text.timer_enable:0000000000000008 .L0 
C:\Users\stapi\AppData\Local\Temp\ccmnwr16.s:269    .text.timer_enable:000000000000000a .L0 
C:\Users\stapi\AppData\Local\Temp\ccmnwr16.s:276    .text.timer_disable:0000000000000000 timer_disable
C:\Users\stapi\AppData\Local\Temp\ccmnwr16.s:279    .text.timer_disable:0000000000000000 .L0 
C:\Users\stapi\AppData\Local\Temp\ccmnwr16.s:281    .text.timer_disable:0000000000000000 .L0 
C:\Users\stapi\AppData\Local\Temp\ccmnwr16.s:282    .text.timer_disable:0000000000000000 .L0 
C:\Users\stapi\AppData\Local\Temp\ccmnwr16.s:283    .text.timer_disable:0000000000000000 .L0 
C:\Users\stapi\AppData\Local\Temp\ccmnwr16.s:287    .text.timer_disable:0000000000000006 .L0 
C:\Users\stapi\AppData\Local\Temp\ccmnwr16.s:288    .text.timer_disable:0000000000000008 .L0 
C:\Users\stapi\AppData\Local\Temp\ccmnwr16.s:295    .text.timer_auto_reload_shadow_enable:0000000000000000 timer_auto_reload_shadow_enable
C:\Users\stapi\AppData\Local\Temp\ccmnwr16.s:298    .text.timer_auto_reload_shadow_enable:0000000000000000 .L0 
C:\Users\stapi\AppData\Local\Temp\ccmnwr16.s:300    .text.timer_auto_reload_shadow_enable:0000000000000000 .L0 
C:\Users\stapi\AppData\Local\Temp\ccmnwr16.s:301    .text.timer_auto_reload_shadow_enable:0000000000000000 .L0 
C:\Users\stapi\AppData\Local\Temp\ccmnwr16.s:302    .text.timer_auto_reload_shadow_enable:0000000000000000 .L0 
C:\Users\stapi\AppData\Local\Temp\ccmnwr16.s:306    .text.timer_auto_reload_shadow_enable:0000000000000008 .L0 
C:\Users\stapi\AppData\Local\Temp\ccmnwr16.s:307    .text.timer_auto_reload_shadow_enable:000000000000000a .L0 
C:\Users\stapi\AppData\Local\Temp\ccmnwr16.s:314    .text.timer_auto_reload_shadow_disable:0000000000000000 timer_auto_reload_shadow_disable
C:\Users\stapi\AppData\Local\Temp\ccmnwr16.s:317    .text.timer_auto_reload_shadow_disable:0000000000000000 .L0 
C:\Users\stapi\AppData\Local\Temp\ccmnwr16.s:319    .text.timer_auto_reload_shadow_disable:0000000000000000 .L0 
C:\Users\stapi\AppData\Local\Temp\ccmnwr16.s:320    .text.timer_auto_reload_shadow_disable:0000000000000000 .L0 
C:\Users\stapi\AppData\Local\Temp\ccmnwr16.s:321    .text.timer_auto_reload_shadow_disable:0000000000000000 .L0 
C:\Users\stapi\AppData\Local\Temp\ccmnwr16.s:325    .text.timer_auto_reload_shadow_disable:0000000000000008 .L0 
C:\Users\stapi\AppData\Local\Temp\ccmnwr16.s:326    .text.timer_auto_reload_shadow_disable:000000000000000a .L0 
C:\Users\stapi\AppData\Local\Temp\ccmnwr16.s:333    .text.timer_update_event_enable:0000000000000000 timer_update_event_enable
C:\Users\stapi\AppData\Local\Temp\ccmnwr16.s:336    .text.timer_update_event_enable:0000000000000000 .L0 
C:\Users\stapi\AppData\Local\Temp\ccmnwr16.s:338    .text.timer_update_event_enable:0000000000000000 .L0 
C:\Users\stapi\AppData\Local\Temp\ccmnwr16.s:339    .text.timer_update_event_enable:0000000000000000 .L0 
C:\Users\stapi\AppData\Local\Temp\ccmnwr16.s:340    .text.timer_update_event_enable:0000000000000000 .L0 
C:\Users\stapi\AppData\Local\Temp\ccmnwr16.s:344    .text.timer_update_event_enable:0000000000000006 .L0 
C:\Users\stapi\AppData\Local\Temp\ccmnwr16.s:345    .text.timer_update_event_enable:0000000000000008 .L0 
C:\Users\stapi\AppData\Local\Temp\ccmnwr16.s:352    .text.timer_update_event_disable:0000000000000000 timer_update_event_disable
C:\Users\stapi\AppData\Local\Temp\ccmnwr16.s:355    .text.timer_update_event_disable:0000000000000000 .L0 
C:\Users\stapi\AppData\Local\Temp\ccmnwr16.s:357    .text.timer_update_event_disable:0000000000000000 .L0 
C:\Users\stapi\AppData\Local\Temp\ccmnwr16.s:358    .text.timer_update_event_disable:0000000000000000 .L0 
C:\Users\stapi\AppData\Local\Temp\ccmnwr16.s:359    .text.timer_update_event_disable:0000000000000000 .L0 
C:\Users\stapi\AppData\Local\Temp\ccmnwr16.s:363    .text.timer_update_event_disable:0000000000000008 .L0 
C:\Users\stapi\AppData\Local\Temp\ccmnwr16.s:364    .text.timer_update_event_disable:000000000000000a .L0 
C:\Users\stapi\AppData\Local\Temp\ccmnwr16.s:371    .text.timer_counter_alignment:0000000000000000 timer_counter_alignment
C:\Users\stapi\AppData\Local\Temp\ccmnwr16.s:374    .text.timer_counter_alignment:0000000000000000 .L0 
C:\Users\stapi\AppData\Local\Temp\ccmnwr16.s:376    .text.timer_counter_alignment:0000000000000000 .L0 
C:\Users\stapi\AppData\Local\Temp\ccmnwr16.s:377    .text.timer_counter_alignment:0000000000000000 .L0 
C:\Users\stapi\AppData\Local\Temp\ccmnwr16.s:378    .text.timer_counter_alignment:0000000000000000 .L0 
C:\Users\stapi\AppData\Local\Temp\ccmnwr16.s:382    .text.timer_counter_alignment:0000000000000008 .L0 
C:\Users\stapi\AppData\Local\Temp\ccmnwr16.s:383    .text.timer_counter_alignment:0000000000000008 .L0 
C:\Users\stapi\AppData\Local\Temp\ccmnwr16.s:388    .text.timer_counter_alignment:000000000000000e .L0 
C:\Users\stapi\AppData\Local\Temp\ccmnwr16.s:389    .text.timer_counter_alignment:0000000000000010 .L0 
C:\Users\stapi\AppData\Local\Temp\ccmnwr16.s:396    .text.timer_counter_up_direction:0000000000000000 timer_counter_up_direction
C:\Users\stapi\AppData\Local\Temp\ccmnwr16.s:399    .text.timer_counter_up_direction:0000000000000000 .L0 
C:\Users\stapi\AppData\Local\Temp\ccmnwr16.s:401    .text.timer_counter_up_direction:0000000000000000 .L0 
C:\Users\stapi\AppData\Local\Temp\ccmnwr16.s:402    .text.timer_counter_up_direction:0000000000000000 .L0 
C:\Users\stapi\AppData\Local\Temp\ccmnwr16.s:403    .text.timer_counter_up_direction:0000000000000000 .L0 
C:\Users\stapi\AppData\Local\Temp\ccmnwr16.s:407    .text.timer_counter_up_direction:0000000000000006 .L0 
C:\Users\stapi\AppData\Local\Temp\ccmnwr16.s:408    .text.timer_counter_up_direction:0000000000000008 .L0 
C:\Users\stapi\AppData\Local\Temp\ccmnwr16.s:415    .text.timer_counter_down_direction:0000000000000000 timer_counter_down_direction
C:\Users\stapi\AppData\Local\Temp\ccmnwr16.s:418    .text.timer_counter_down_direction:0000000000000000 .L0 
C:\Users\stapi\AppData\Local\Temp\ccmnwr16.s:420    .text.timer_counter_down_direction:0000000000000000 .L0 
C:\Users\stapi\AppData\Local\Temp\ccmnwr16.s:421    .text.timer_counter_down_direction:0000000000000000 .L0 
C:\Users\stapi\AppData\Local\Temp\ccmnwr16.s:422    .text.timer_counter_down_direction:0000000000000000 .L0 
C:\Users\stapi\AppData\Local\Temp\ccmnwr16.s:426    .text.timer_counter_down_direction:0000000000000008 .L0 
C:\Users\stapi\AppData\Local\Temp\ccmnwr16.s:427    .text.timer_counter_down_direction:000000000000000a .L0 
C:\Users\stapi\AppData\Local\Temp\ccmnwr16.s:434    .text.timer_prescaler_config:0000000000000000 timer_prescaler_config
C:\Users\stapi\AppData\Local\Temp\ccmnwr16.s:437    .text.timer_prescaler_config:0000000000000000 .L0 
C:\Users\stapi\AppData\Local\Temp\ccmnwr16.s:439    .text.timer_prescaler_config:0000000000000000 .L0 
C:\Users\stapi\AppData\Local\Temp\ccmnwr16.s:440    .text.timer_prescaler_config:0000000000000000 .L0 
C:\Users\stapi\AppData\Local\Temp\ccmnwr16.s:441    .text.timer_prescaler_config:0000000000000000 .L0 
C:\Users\stapi\AppData\Local\Temp\ccmnwr16.s:443    .text.timer_prescaler_config:0000000000000002 .L0 
C:\Users\stapi\AppData\Local\Temp\ccmnwr16.s:444    .text.timer_prescaler_config:0000000000000002 .L0 
C:\Users\stapi\AppData\Local\Temp\ccmnwr16.s:446    .text.timer_prescaler_config:0000000000000004 .L0 
C:\Users\stapi\AppData\Local\Temp\ccmnwr16.s:447    .text.timer_prescaler_config:0000000000000004 .L0 
C:\Users\stapi\AppData\Local\Temp\ccmnwr16.s:452    .text.timer_prescaler_config:000000000000000c .L0 
C:\Users\stapi\AppData\Local\Temp\ccmnwr16.s:453    .text.timer_prescaler_config:000000000000000e .L0 
C:\Users\stapi\AppData\Local\Temp\ccmnwr16.s:460    .text.timer_repetition_value_config:0000000000000000 timer_repetition_value_config
C:\Users\stapi\AppData\Local\Temp\ccmnwr16.s:463    .text.timer_repetition_value_config:0000000000000000 .L0 
C:\Users\stapi\AppData\Local\Temp\ccmnwr16.s:465    .text.timer_repetition_value_config:0000000000000000 .L0 
C:\Users\stapi\AppData\Local\Temp\ccmnwr16.s:466    .text.timer_repetition_value_config:0000000000000000 .L0 
C:\Users\stapi\AppData\Local\Temp\ccmnwr16.s:467    .text.timer_repetition_value_config:0000000000000000 .L0 
C:\Users\stapi\AppData\Local\Temp\ccmnwr16.s:469    .text.timer_repetition_value_config:0000000000000002 .L0 
C:\Users\stapi\AppData\Local\Temp\ccmnwr16.s:470    .text.timer_repetition_value_config:0000000000000004 .L0 
C:\Users\stapi\AppData\Local\Temp\ccmnwr16.s:477    .text.timer_autoreload_value_config:0000000000000000 timer_autoreload_value_config
C:\Users\stapi\AppData\Local\Temp\ccmnwr16.s:480    .text.timer_autoreload_value_config:0000000000000000 .L0 
C:\Users\stapi\AppData\Local\Temp\ccmnwr16.s:482    .text.timer_autoreload_value_config:0000000000000000 .L0 
C:\Users\stapi\AppData\Local\Temp\ccmnwr16.s:483    .text.timer_autoreload_value_config:0000000000000000 .L0 
C:\Users\stapi\AppData\Local\Temp\ccmnwr16.s:484    .text.timer_autoreload_value_config:0000000000000000 .L0 
C:\Users\stapi\AppData\Local\Temp\ccmnwr16.s:486    .text.timer_autoreload_value_config:0000000000000002 .L0 
C:\Users\stapi\AppData\Local\Temp\ccmnwr16.s:487    .text.timer_autoreload_value_config:0000000000000004 .L0 
C:\Users\stapi\AppData\Local\Temp\ccmnwr16.s:494    .text.timer_counter_value_config:0000000000000000 timer_counter_value_config
C:\Users\stapi\AppData\Local\Temp\ccmnwr16.s:497    .text.timer_counter_value_config:0000000000000000 .L0 
C:\Users\stapi\AppData\Local\Temp\ccmnwr16.s:499    .text.timer_counter_value_config:0000000000000000 .L0 
C:\Users\stapi\AppData\Local\Temp\ccmnwr16.s:500    .text.timer_counter_value_config:0000000000000000 .L0 
C:\Users\stapi\AppData\Local\Temp\ccmnwr16.s:501    .text.timer_counter_value_config:0000000000000000 .L0 
C:\Users\stapi\AppData\Local\Temp\ccmnwr16.s:503    .text.timer_counter_value_config:0000000000000002 .L0 
C:\Users\stapi\AppData\Local\Temp\ccmnwr16.s:504    .text.timer_counter_value_config:0000000000000004 .L0 
C:\Users\stapi\AppData\Local\Temp\ccmnwr16.s:511    .text.timer_counter_read:0000000000000000 timer_counter_read
C:\Users\stapi\AppData\Local\Temp\ccmnwr16.s:514    .text.timer_counter_read:0000000000000000 .L0 
C:\Users\stapi\AppData\Local\Temp\ccmnwr16.s:516    .text.timer_counter_read:0000000000000000 .L0 
C:\Users\stapi\AppData\Local\Temp\ccmnwr16.s:517    .text.timer_counter_read:0000000000000000 .L0 
C:\Users\stapi\AppData\Local\Temp\ccmnwr16.s:518    .text.timer_counter_read:0000000000000000 .L0 
C:\Users\stapi\AppData\Local\Temp\ccmnwr16.s:519    .text.timer_counter_read:0000000000000000 .L0 
C:\Users\stapi\AppData\Local\Temp\ccmnwr16.s:522    .text.timer_counter_read:0000000000000002 .L0 
C:\Users\stapi\AppData\Local\Temp\ccmnwr16.s:523    .text.timer_counter_read:0000000000000002 .L0 
C:\Users\stapi\AppData\Local\Temp\ccmnwr16.s:524    .text.timer_counter_read:0000000000000004 .L0 
C:\Users\stapi\AppData\Local\Temp\ccmnwr16.s:531    .text.timer_prescaler_read:0000000000000000 timer_prescaler_read
C:\Users\stapi\AppData\Local\Temp\ccmnwr16.s:534    .text.timer_prescaler_read:0000000000000000 .L0 
C:\Users\stapi\AppData\Local\Temp\ccmnwr16.s:536    .text.timer_prescaler_read:0000000000000000 .L0 
C:\Users\stapi\AppData\Local\Temp\ccmnwr16.s:537    .text.timer_prescaler_read:0000000000000000 .L0 
C:\Users\stapi\AppData\Local\Temp\ccmnwr16.s:538    .text.timer_prescaler_read:0000000000000000 .L0 
C:\Users\stapi\AppData\Local\Temp\ccmnwr16.s:539    .text.timer_prescaler_read:0000000000000000 .L0 
C:\Users\stapi\AppData\Local\Temp\ccmnwr16.s:542    .text.timer_prescaler_read:0000000000000002 .L0 
C:\Users\stapi\AppData\Local\Temp\ccmnwr16.s:543    .text.timer_prescaler_read:0000000000000002 .L0 
C:\Users\stapi\AppData\Local\Temp\ccmnwr16.s:545    .text.timer_prescaler_read:0000000000000008 .L0 
C:\Users\stapi\AppData\Local\Temp\ccmnwr16.s:552    .text.timer_single_pulse_mode_config:0000000000000000 timer_single_pulse_mode_config
C:\Users\stapi\AppData\Local\Temp\ccmnwr16.s:555    .text.timer_single_pulse_mode_config:0000000000000000 .L0 
C:\Users\stapi\AppData\Local\Temp\ccmnwr16.s:557    .text.timer_single_pulse_mode_config:0000000000000000 .L0 
C:\Users\stapi\AppData\Local\Temp\ccmnwr16.s:558    .text.timer_single_pulse_mode_config:0000000000000000 .L0 
C:\Users\stapi\AppData\Local\Temp\ccmnwr16.s:559    .text.timer_single_pulse_mode_config:0000000000000000 .L0 
C:\Users\stapi\AppData\Local\Temp\ccmnwr16.s:561    .text.timer_single_pulse_mode_config:0000000000000002 .L0 
C:\Users\stapi\AppData\Local\Temp\ccmnwr16.s:562    .text.timer_single_pulse_mode_config:0000000000000002 .L0 
C:\Users\stapi\AppData\Local\Temp\ccmnwr16.s:566    .text.timer_single_pulse_mode_config:0000000000000008 .L0 
C:\Users\stapi\AppData\Local\Temp\ccmnwr16.s:569    .text.timer_single_pulse_mode_config:000000000000000a .L0 
C:\Users\stapi\AppData\Local\Temp\ccmnwr16.s:570    .text.timer_single_pulse_mode_config:000000000000000a .L0 
C:\Users\stapi\AppData\Local\Temp\ccmnwr16.s:573    .text.timer_single_pulse_mode_config:000000000000000c .L0 
C:\Users\stapi\AppData\Local\Temp\ccmnwr16.s:574    .text.timer_single_pulse_mode_config:000000000000000c .L0 
C:\Users\stapi\AppData\Local\Temp\ccmnwr16.s:577    .text.timer_single_pulse_mode_config:0000000000000012 .L0 
C:\Users\stapi\AppData\Local\Temp\ccmnwr16.s:578    .text.timer_single_pulse_mode_config:0000000000000012 .L0 
C:\Users\stapi\AppData\Local\Temp\ccmnwr16.s:581    .text.timer_single_pulse_mode_config:0000000000000018 .L0 
C:\Users\stapi\AppData\Local\Temp\ccmnwr16.s:588    .text.timer_update_source_config:0000000000000000 timer_update_source_config
C:\Users\stapi\AppData\Local\Temp\ccmnwr16.s:591    .text.timer_update_source_config:0000000000000000 .L0 
C:\Users\stapi\AppData\Local\Temp\ccmnwr16.s:593    .text.timer_update_source_config:0000000000000000 .L0 
C:\Users\stapi\AppData\Local\Temp\ccmnwr16.s:594    .text.timer_update_source_config:0000000000000000 .L0 
C:\Users\stapi\AppData\Local\Temp\ccmnwr16.s:595    .text.timer_update_source_config:0000000000000000 .L0 
C:\Users\stapi\AppData\Local\Temp\ccmnwr16.s:597    .text.timer_update_source_config:0000000000000002 .L0 
C:\Users\stapi\AppData\Local\Temp\ccmnwr16.s:598    .text.timer_update_source_config:0000000000000002 .L0 
C:\Users\stapi\AppData\Local\Temp\ccmnwr16.s:602    .text.timer_update_source_config:0000000000000008 .L0 
C:\Users\stapi\AppData\Local\Temp\ccmnwr16.s:605    .text.timer_update_source_config:000000000000000a .L0 
C:\Users\stapi\AppData\Local\Temp\ccmnwr16.s:606    .text.timer_update_source_config:000000000000000a .L0 
C:\Users\stapi\AppData\Local\Temp\ccmnwr16.s:609    .text.timer_update_source_config:000000000000000c .L0 
C:\Users\stapi\AppData\Local\Temp\ccmnwr16.s:610    .text.timer_update_source_config:000000000000000c .L0 
C:\Users\stapi\AppData\Local\Temp\ccmnwr16.s:613    .text.timer_update_source_config:0000000000000012 .L0 
C:\Users\stapi\AppData\Local\Temp\ccmnwr16.s:614    .text.timer_update_source_config:0000000000000012 .L0 
C:\Users\stapi\AppData\Local\Temp\ccmnwr16.s:617    .text.timer_update_source_config:0000000000000018 .L0 
C:\Users\stapi\AppData\Local\Temp\ccmnwr16.s:624    .text.timer_dma_enable:0000000000000000 timer_dma_enable
C:\Users\stapi\AppData\Local\Temp\ccmnwr16.s:627    .text.timer_dma_enable:0000000000000000 .L0 
C:\Users\stapi\AppData\Local\Temp\ccmnwr16.s:629    .text.timer_dma_enable:0000000000000000 .L0 
C:\Users\stapi\AppData\Local\Temp\ccmnwr16.s:630    .text.timer_dma_enable:0000000000000000 .L0 
C:\Users\stapi\AppData\Local\Temp\ccmnwr16.s:631    .text.timer_dma_enable:0000000000000000 .L0 
C:\Users\stapi\AppData\Local\Temp\ccmnwr16.s:636    .text.timer_dma_enable:0000000000000006 .L0 
C:\Users\stapi\AppData\Local\Temp\ccmnwr16.s:637    .text.timer_dma_enable:0000000000000008 .L0 
C:\Users\stapi\AppData\Local\Temp\ccmnwr16.s:644    .text.timer_dma_disable:0000000000000000 timer_dma_disable
C:\Users\stapi\AppData\Local\Temp\ccmnwr16.s:647    .text.timer_dma_disable:0000000000000000 .L0 
C:\Users\stapi\AppData\Local\Temp\ccmnwr16.s:649    .text.timer_dma_disable:0000000000000000 .L0 
C:\Users\stapi\AppData\Local\Temp\ccmnwr16.s:650    .text.timer_dma_disable:0000000000000000 .L0 
C:\Users\stapi\AppData\Local\Temp\ccmnwr16.s:651    .text.timer_dma_disable:0000000000000000 .L0 
C:\Users\stapi\AppData\Local\Temp\ccmnwr16.s:656    .text.timer_dma_disable:0000000000000008 .L0 
C:\Users\stapi\AppData\Local\Temp\ccmnwr16.s:657    .text.timer_dma_disable:000000000000000a .L0 
C:\Users\stapi\AppData\Local\Temp\ccmnwr16.s:664    .text.timer_channel_dma_request_source_select:0000000000000000 timer_channel_dma_request_source_select
C:\Users\stapi\AppData\Local\Temp\ccmnwr16.s:667    .text.timer_channel_dma_request_source_select:0000000000000000 .L0 
C:\Users\stapi\AppData\Local\Temp\ccmnwr16.s:669    .text.timer_channel_dma_request_source_select:0000000000000000 .L0 
C:\Users\stapi\AppData\Local\Temp\ccmnwr16.s:670    .text.timer_channel_dma_request_source_select:0000000000000000 .L0 
C:\Users\stapi\AppData\Local\Temp\ccmnwr16.s:671    .text.timer_channel_dma_request_source_select:0000000000000000 .L0 
C:\Users\stapi\AppData\Local\Temp\ccmnwr16.s:673    .text.timer_channel_dma_request_source_select:0000000000000002 .L0 
C:\Users\stapi\AppData\Local\Temp\ccmnwr16.s:674    .text.timer_channel_dma_request_source_select:0000000000000002 .L0 
C:\Users\stapi\AppData\Local\Temp\ccmnwr16.s:678    .text.timer_channel_dma_request_source_select:0000000000000008 .L0 
C:\Users\stapi\AppData\Local\Temp\ccmnwr16.s:681    .text.timer_channel_dma_request_source_select:000000000000000a .L0 
C:\Users\stapi\AppData\Local\Temp\ccmnwr16.s:682    .text.timer_channel_dma_request_source_select:000000000000000a .L0 
C:\Users\stapi\AppData\Local\Temp\ccmnwr16.s:685    .text.timer_channel_dma_request_source_select:000000000000000c .L0 
C:\Users\stapi\AppData\Local\Temp\ccmnwr16.s:686    .text.timer_channel_dma_request_source_select:000000000000000c .L0 
C:\Users\stapi\AppData\Local\Temp\ccmnwr16.s:689    .text.timer_channel_dma_request_source_select:0000000000000012 .L0 
C:\Users\stapi\AppData\Local\Temp\ccmnwr16.s:690    .text.timer_channel_dma_request_source_select:0000000000000012 .L0 
C:\Users\stapi\AppData\Local\Temp\ccmnwr16.s:693    .text.timer_channel_dma_request_source_select:0000000000000018 .L0 
C:\Users\stapi\AppData\Local\Temp\ccmnwr16.s:700    .text.timer_dma_transfer_config:0000000000000000 timer_dma_transfer_config
C:\Users\stapi\AppData\Local\Temp\ccmnwr16.s:703    .text.timer_dma_transfer_config:0000000000000000 .L0 
C:\Users\stapi\AppData\Local\Temp\ccmnwr16.s:705    .text.timer_dma_transfer_config:0000000000000000 .L0 
C:\Users\stapi\AppData\Local\Temp\ccmnwr16.s:706    .text.timer_dma_transfer_config:0000000000000000 .L0 
C:\Users\stapi\AppData\Local\Temp\ccmnwr16.s:707    .text.timer_dma_transfer_config:0000000000000000 .L0 
C:\Users\stapi\AppData\Local\Temp\ccmnwr16.s:713    .text.timer_dma_transfer_config:000000000000000c .L0 
C:\Users\stapi\AppData\Local\Temp\ccmnwr16.s:714    .text.timer_dma_transfer_config:000000000000000c .L0 
C:\Users\stapi\AppData\Local\Temp\ccmnwr16.s:716    .text.timer_dma_transfer_config:000000000000000e .L0 
C:\Users\stapi\AppData\Local\Temp\ccmnwr16.s:719    .text.timer_dma_transfer_config:0000000000000010 .L0 
C:\Users\stapi\AppData\Local\Temp\ccmnwr16.s:722    .text.timer_dma_transfer_config:0000000000000014 .L0 
C:\Users\stapi\AppData\Local\Temp\ccmnwr16.s:723    .text.timer_dma_transfer_config:0000000000000016 .L0 
C:\Users\stapi\AppData\Local\Temp\ccmnwr16.s:730    .text.timer_event_software_generate:0000000000000000 timer_event_software_generate
C:\Users\stapi\AppData\Local\Temp\ccmnwr16.s:733    .text.timer_event_software_generate:0000000000000000 .L0 
C:\Users\stapi\AppData\Local\Temp\ccmnwr16.s:735    .text.timer_event_software_generate:0000000000000000 .L0 
C:\Users\stapi\AppData\Local\Temp\ccmnwr16.s:736    .text.timer_event_software_generate:0000000000000000 .L0 
C:\Users\stapi\AppData\Local\Temp\ccmnwr16.s:737    .text.timer_event_software_generate:0000000000000000 .L0 
C:\Users\stapi\AppData\Local\Temp\ccmnwr16.s:742    .text.timer_event_software_generate:0000000000000006 .L0 
C:\Users\stapi\AppData\Local\Temp\ccmnwr16.s:743    .text.timer_event_software_generate:0000000000000008 .L0 
C:\Users\stapi\AppData\Local\Temp\ccmnwr16.s:750    .text.timer_break_struct_para_init:0000000000000000 timer_break_struct_para_init
C:\Users\stapi\AppData\Local\Temp\ccmnwr16.s:753    .text.timer_break_struct_para_init:0000000000000000 .L0 
C:\Users\stapi\AppData\Local\Temp\ccmnwr16.s:755    .text.timer_break_struct_para_init:0000000000000000 .L0 
C:\Users\stapi\AppData\Local\Temp\ccmnwr16.s:756    .text.timer_break_struct_para_init:0000000000000000 .L0 
C:\Users\stapi\AppData\Local\Temp\ccmnwr16.s:757    .text.timer_break_struct_para_init:0000000000000000 .L0 
C:\Users\stapi\AppData\Local\Temp\ccmnwr16.s:759    .text.timer_break_struct_para_init:0000000000000004 .L0 
C:\Users\stapi\AppData\Local\Temp\ccmnwr16.s:760    .text.timer_break_struct_para_init:0000000000000004 .L0 
C:\Users\stapi\AppData\Local\Temp\ccmnwr16.s:761    .text.timer_break_struct_para_init:0000000000000004 .L0 
C:\Users\stapi\AppData\Local\Temp\ccmnwr16.s:762    .text.timer_break_struct_para_init:0000000000000004 .L0 
C:\Users\stapi\AppData\Local\Temp\ccmnwr16.s:763    .text.timer_break_struct_para_init:0000000000000004 .L0 
C:\Users\stapi\AppData\Local\Temp\ccmnwr16.s:764    .text.timer_break_struct_para_init:0000000000000004 .L0 
C:\Users\stapi\AppData\Local\Temp\ccmnwr16.s:765    .text.timer_break_struct_para_init:0000000000000004 .L0 
C:\Users\stapi\AppData\Local\Temp\ccmnwr16.s:767    .text.timer_break_struct_para_init:0000000000000008 .L0 
C:\Users\stapi\AppData\Local\Temp\ccmnwr16.s:769    .text.timer_break_struct_para_init:000000000000000c .L0 
C:\Users\stapi\AppData\Local\Temp\ccmnwr16.s:771    .text.timer_break_struct_para_init:0000000000000010 .L0 
C:\Users\stapi\AppData\Local\Temp\ccmnwr16.s:773    .text.timer_break_struct_para_init:0000000000000014 .L0 
C:\Users\stapi\AppData\Local\Temp\ccmnwr16.s:774    .text.timer_break_struct_para_init:0000000000000016 .L0 
C:\Users\stapi\AppData\Local\Temp\ccmnwr16.s:781    .text.timer_break_config:0000000000000000 timer_break_config
C:\Users\stapi\AppData\Local\Temp\ccmnwr16.s:784    .text.timer_break_config:0000000000000000 .L0 
C:\Users\stapi\AppData\Local\Temp\ccmnwr16.s:786    .text.timer_break_config:0000000000000000 .L0 
C:\Users\stapi\AppData\Local\Temp\ccmnwr16.s:787    .text.timer_break_config:0000000000000000 .L0 
C:\Users\stapi\AppData\Local\Temp\ccmnwr16.s:788    .text.timer_break_config:0000000000000000 .L0 
C:\Users\stapi\AppData\Local\Temp\ccmnwr16.s:796    .text.timer_break_config:0000000000000016 .L0 
C:\Users\stapi\AppData\Local\Temp\ccmnwr16.s:798    .text.timer_break_config:000000000000001a .L0 
C:\Users\stapi\AppData\Local\Temp\ccmnwr16.s:800    .text.timer_break_config:000000000000001c .L0 
C:\Users\stapi\AppData\Local\Temp\ccmnwr16.s:802    .text.timer_break_config:0000000000000020 .L0 
C:\Users\stapi\AppData\Local\Temp\ccmnwr16.s:808    .text.timer_break_config:000000000000002e .L0 
C:\Users\stapi\AppData\Local\Temp\ccmnwr16.s:810    .text.timer_break_config:0000000000000030 .L0 
C:\Users\stapi\AppData\Local\Temp\ccmnwr16.s:811    .text.timer_break_config:0000000000000032 .L0 
C:\Users\stapi\AppData\Local\Temp\ccmnwr16.s:818    .text.timer_break_enable:0000000000000000 timer_break_enable
C:\Users\stapi\AppData\Local\Temp\ccmnwr16.s:821    .text.timer_break_enable:0000000000000000 .L0 
C:\Users\stapi\AppData\Local\Temp\ccmnwr16.s:823    .text.timer_break_enable:0000000000000000 .L0 
C:\Users\stapi\AppData\Local\Temp\ccmnwr16.s:824    .text.timer_break_enable:0000000000000000 .L0 
C:\Users\stapi\AppData\Local\Temp\ccmnwr16.s:825    .text.timer_break_enable:0000000000000000 .L0 
C:\Users\stapi\AppData\Local\Temp\ccmnwr16.s:829    .text.timer_break_enable:0000000000000008 .L0 
C:\Users\stapi\AppData\Local\Temp\ccmnwr16.s:830    .text.timer_break_enable:000000000000000a .L0 
C:\Users\stapi\AppData\Local\Temp\ccmnwr16.s:837    .text.timer_break_disable:0000000000000000 timer_break_disable
C:\Users\stapi\AppData\Local\Temp\ccmnwr16.s:840    .text.timer_break_disable:0000000000000000 .L0 
C:\Users\stapi\AppData\Local\Temp\ccmnwr16.s:842    .text.timer_break_disable:0000000000000000 .L0 
C:\Users\stapi\AppData\Local\Temp\ccmnwr16.s:843    .text.timer_break_disable:0000000000000000 .L0 
C:\Users\stapi\AppData\Local\Temp\ccmnwr16.s:844    .text.timer_break_disable:0000000000000000 .L0 
C:\Users\stapi\AppData\Local\Temp\ccmnwr16.s:848    .text.timer_break_disable:0000000000000008 .L0 
C:\Users\stapi\AppData\Local\Temp\ccmnwr16.s:849    .text.timer_break_disable:000000000000000a .L0 
C:\Users\stapi\AppData\Local\Temp\ccmnwr16.s:856    .text.timer_automatic_output_enable:0000000000000000 timer_automatic_output_enable
C:\Users\stapi\AppData\Local\Temp\ccmnwr16.s:859    .text.timer_automatic_output_enable:0000000000000000 .L0 
C:\Users\stapi\AppData\Local\Temp\ccmnwr16.s:861    .text.timer_automatic_output_enable:0000000000000000 .L0 
C:\Users\stapi\AppData\Local\Temp\ccmnwr16.s:862    .text.timer_automatic_output_enable:0000000000000000 .L0 
C:\Users\stapi\AppData\Local\Temp\ccmnwr16.s:863    .text.timer_automatic_output_enable:0000000000000000 .L0 
C:\Users\stapi\AppData\Local\Temp\ccmnwr16.s:867    .text.timer_automatic_output_enable:0000000000000008 .L0 
C:\Users\stapi\AppData\Local\Temp\ccmnwr16.s:868    .text.timer_automatic_output_enable:000000000000000a .L0 
C:\Users\stapi\AppData\Local\Temp\ccmnwr16.s:875    .text.timer_automatic_output_disable:0000000000000000 timer_automatic_output_disable
C:\Users\stapi\AppData\Local\Temp\ccmnwr16.s:878    .text.timer_automatic_output_disable:0000000000000000 .L0 
C:\Users\stapi\AppData\Local\Temp\ccmnwr16.s:880    .text.timer_automatic_output_disable:0000000000000000 .L0 
C:\Users\stapi\AppData\Local\Temp\ccmnwr16.s:881    .text.timer_automatic_output_disable:0000000000000000 .L0 
C:\Users\stapi\AppData\Local\Temp\ccmnwr16.s:882    .text.timer_automatic_output_disable:0000000000000000 .L0 
C:\Users\stapi\AppData\Local\Temp\ccmnwr16.s:886    .text.timer_automatic_output_disable:0000000000000008 .L0 
C:\Users\stapi\AppData\Local\Temp\ccmnwr16.s:887    .text.timer_automatic_output_disable:000000000000000a .L0 
C:\Users\stapi\AppData\Local\Temp\ccmnwr16.s:894    .text.timer_primary_output_config:0000000000000000 timer_primary_output_config
C:\Users\stapi\AppData\Local\Temp\ccmnwr16.s:897    .text.timer_primary_output_config:0000000000000000 .L0 
C:\Users\stapi\AppData\Local\Temp\ccmnwr16.s:899    .text.timer_primary_output_config:0000000000000000 .L0 
C:\Users\stapi\AppData\Local\Temp\ccmnwr16.s:900    .text.timer_primary_output_config:0000000000000000 .L0 
C:\Users\stapi\AppData\Local\Temp\ccmnwr16.s:901    .text.timer_primary_output_config:0000000000000000 .L0 
C:\Users\stapi\AppData\Local\Temp\ccmnwr16.s:904    .text.timer_primary_output_config:0000000000000006 .L0 
C:\Users\stapi\AppData\Local\Temp\ccmnwr16.s:905    .text.timer_primary_output_config:0000000000000006 .L0 
C:\Users\stapi\AppData\Local\Temp\ccmnwr16.s:909    .text.timer_primary_output_config:000000000000000c .L0 
C:\Users\stapi\AppData\Local\Temp\ccmnwr16.s:911    .text.timer_primary_output_config:000000000000000e .L0 
C:\Users\stapi\AppData\Local\Temp\ccmnwr16.s:914    .text.timer_primary_output_config:0000000000000010 .L0 
C:\Users\stapi\AppData\Local\Temp\ccmnwr16.s:915    .text.timer_primary_output_config:0000000000000010 .L0 
C:\Users\stapi\AppData\Local\Temp\ccmnwr16.s:918    .text.timer_primary_output_config:0000000000000018 .L0 
C:\Users\stapi\AppData\Local\Temp\ccmnwr16.s:925    .text.timer_channel_control_shadow_config:0000000000000000 timer_channel_control_shadow_config
C:\Users\stapi\AppData\Local\Temp\ccmnwr16.s:928    .text.timer_channel_control_shadow_config:0000000000000000 .L0 
C:\Users\stapi\AppData\Local\Temp\ccmnwr16.s:930    .text.timer_channel_control_shadow_config:0000000000000000 .L0 
C:\Users\stapi\AppData\Local\Temp\ccmnwr16.s:931    .text.timer_channel_control_shadow_config:0000000000000000 .L0 
C:\Users\stapi\AppData\Local\Temp\ccmnwr16.s:932    .text.timer_channel_control_shadow_config:0000000000000000 .L0 
C:\Users\stapi\AppData\Local\Temp\ccmnwr16.s:935    .text.timer_channel_control_shadow_config:0000000000000006 .L0 
C:\Users\stapi\AppData\Local\Temp\ccmnwr16.s:936    .text.timer_channel_control_shadow_config:0000000000000006 .L0 
C:\Users\stapi\AppData\Local\Temp\ccmnwr16.s:940    .text.timer_channel_control_shadow_config:000000000000000c .L0 
C:\Users\stapi\AppData\Local\Temp\ccmnwr16.s:942    .text.timer_channel_control_shadow_config:000000000000000e .L0 
C:\Users\stapi\AppData\Local\Temp\ccmnwr16.s:945    .text.timer_channel_control_shadow_config:0000000000000010 .L0 
C:\Users\stapi\AppData\Local\Temp\ccmnwr16.s:946    .text.timer_channel_control_shadow_config:0000000000000010 .L0 
C:\Users\stapi\AppData\Local\Temp\ccmnwr16.s:949    .text.timer_channel_control_shadow_config:0000000000000016 .L0 
C:\Users\stapi\AppData\Local\Temp\ccmnwr16.s:956    .text.timer_channel_control_shadow_update_config:0000000000000000 timer_channel_control_shadow_update_config
C:\Users\stapi\AppData\Local\Temp\ccmnwr16.s:959    .text.timer_channel_control_shadow_update_config:0000000000000000 .L0 
C:\Users\stapi\AppData\Local\Temp\ccmnwr16.s:961    .text.timer_channel_control_shadow_update_config:0000000000000000 .L0 
C:\Users\stapi\AppData\Local\Temp\ccmnwr16.s:962    .text.timer_channel_control_shadow_update_config:0000000000000000 .L0 
C:\Users\stapi\AppData\Local\Temp\ccmnwr16.s:963    .text.timer_channel_control_shadow_update_config:0000000000000000 .L0 
C:\Users\stapi\AppData\Local\Temp\ccmnwr16.s:965    .text.timer_channel_control_shadow_update_config:0000000000000002 .L0 
C:\Users\stapi\AppData\Local\Temp\ccmnwr16.s:966    .text.timer_channel_control_shadow_update_config:0000000000000002 .L0 
C:\Users\stapi\AppData\Local\Temp\ccmnwr16.s:970    .text.timer_channel_control_shadow_update_config:0000000000000006 .L0 
C:\Users\stapi\AppData\Local\Temp\ccmnwr16.s:973    .text.timer_channel_control_shadow_update_config:0000000000000008 .L0 
C:\Users\stapi\AppData\Local\Temp\ccmnwr16.s:974    .text.timer_channel_control_shadow_update_config:0000000000000008 .L0 
C:\Users\stapi\AppData\Local\Temp\ccmnwr16.s:977    .text.timer_channel_control_shadow_update_config:000000000000000a .L0 
C:\Users\stapi\AppData\Local\Temp\ccmnwr16.s:978    .text.timer_channel_control_shadow_update_config:000000000000000a .L0 
C:\Users\stapi\AppData\Local\Temp\ccmnwr16.s:981    .text.timer_channel_control_shadow_update_config:0000000000000010 .L0 
C:\Users\stapi\AppData\Local\Temp\ccmnwr16.s:982    .text.timer_channel_control_shadow_update_config:0000000000000010 .L0 
C:\Users\stapi\AppData\Local\Temp\ccmnwr16.s:985    .text.timer_channel_control_shadow_update_config:0000000000000018 .L0 
C:\Users\stapi\AppData\Local\Temp\ccmnwr16.s:992    .text.timer_channel_output_struct_para_init:0000000000000000 timer_channel_output_struct_para_init
C:\Users\stapi\AppData\Local\Temp\ccmnwr16.s:995    .text.timer_channel_output_struct_para_init:0000000000000000 .L0 
C:\Users\stapi\AppData\Local\Temp\ccmnwr16.s:997    .text.timer_channel_output_struct_para_init:0000000000000000 .L0 
C:\Users\stapi\AppData\Local\Temp\ccmnwr16.s:998    .text.timer_channel_output_struct_para_init:0000000000000000 .L0 
C:\Users\stapi\AppData\Local\Temp\ccmnwr16.s:999    .text.timer_channel_output_struct_para_init:0000000000000000 .L0 
C:\Users\stapi\AppData\Local\Temp\ccmnwr16.s:1000   .text.timer_channel_output_struct_para_init:0000000000000000 .L0 
C:\Users\stapi\AppData\Local\Temp\ccmnwr16.s:1001   .text.timer_channel_output_struct_para_init:0000000000000000 .L0 
C:\Users\stapi\AppData\Local\Temp\ccmnwr16.s:1002   .text.timer_channel_output_struct_para_init:0000000000000000 .L0 
C:\Users\stapi\AppData\Local\Temp\ccmnwr16.s:1003   .text.timer_channel_output_struct_para_init:0000000000000000 .L0 
C:\Users\stapi\AppData\Local\Temp\ccmnwr16.s:1004   .text.timer_channel_output_struct_para_init:0000000000000000 .L0 
C:\Users\stapi\AppData\Local\Temp\ccmnwr16.s:1006   .text.timer_channel_output_struct_para_init:0000000000000004 .L0 
C:\Users\stapi\AppData\Local\Temp\ccmnwr16.s:1008   .text.timer_channel_output_struct_para_init:0000000000000008 .L0 
C:\Users\stapi\AppData\Local\Temp\ccmnwr16.s:1010   .text.timer_channel_output_struct_para_init:000000000000000c .L0 
C:\Users\stapi\AppData\Local\Temp\ccmnwr16.s:1012   .text.timer_channel_output_struct_para_init:0000000000000010 .L0 
C:\Users\stapi\AppData\Local\Temp\ccmnwr16.s:1013   .text.timer_channel_output_struct_para_init:0000000000000012 .L0 
C:\Users\stapi\AppData\Local\Temp\ccmnwr16.s:1020   .text.timer_channel_output_config:0000000000000000 timer_channel_output_config
C:\Users\stapi\AppData\Local\Temp\ccmnwr16.s:1023   .text.timer_channel_output_config:0000000000000000 .L0 
C:\Users\stapi\AppData\Local\Temp\ccmnwr16.s:1025   .text.timer_channel_output_config:0000000000000000 .L0 
C:\Users\stapi\AppData\Local\Temp\ccmnwr16.s:1026   .text.timer_channel_output_config:0000000000000000 .L0 
C:\Users\stapi\AppData\Local\Temp\ccmnwr16.s:1032   .text.timer_channel_output_config:0000000000000010 .L0 
C:\Users\stapi\AppData\Local\Temp\ccmnwr16.s:1033   .text.timer_channel_output_config:0000000000000010 .L0 
C:\Users\stapi\AppData\Local\Temp\ccmnwr16.s:1037   .text.timer_channel_output_config:0000000000000016 .L0 
C:\Users\stapi\AppData\Local\Temp\ccmnwr16.s:1038   .text.timer_channel_output_config:0000000000000016 .L0 
C:\Users\stapi\AppData\Local\Temp\ccmnwr16.s:1042   .text.timer_channel_output_config:000000000000001c .L0 
C:\Users\stapi\AppData\Local\Temp\ccmnwr16.s:1043   .text.timer_channel_output_config:000000000000001c .L0 
C:\Users\stapi\AppData\Local\Temp\ccmnwr16.s:1048   .text.timer_channel_output_config:0000000000000024 .L0 
C:\Users\stapi\AppData\Local\Temp\ccmnwr16.s:1049   .text.timer_channel_output_config:0000000000000024 .L0 
C:\Users\stapi\AppData\Local\Temp\ccmnwr16.s:1053   .text.timer_channel_output_config:000000000000002a .L0 
C:\Users\stapi\AppData\Local\Temp\ccmnwr16.s:1054   .text.timer_channel_output_config:000000000000002a .L0 
C:\Users\stapi\AppData\Local\Temp\ccmnwr16.s:1058   .text.timer_channel_output_config:0000000000000030 .L0 
C:\Users\stapi\AppData\Local\Temp\ccmnwr16.s:1059   .text.timer_channel_output_config:0000000000000030 .L0 
C:\Users\stapi\AppData\Local\Temp\ccmnwr16.s:1063   .text.timer_channel_output_config:000000000000003c .L0 
C:\Users\stapi\AppData\Local\Temp\ccmnwr16.s:1068   .text.timer_channel_output_config:0000000000000048 .L0 
C:\Users\stapi\AppData\Local\Temp\ccmnwr16.s:1069   .text.timer_channel_output_config:0000000000000048 .L0 
C:\Users\stapi\AppData\Local\Temp\ccmnwr16.s:1073   .text.timer_channel_output_config:000000000000004e .L0 
C:\Users\stapi\AppData\Local\Temp\ccmnwr16.s:1074   .text.timer_channel_output_config:000000000000004e .L0 
C:\Users\stapi\AppData\Local\Temp\ccmnwr16.s:1076   .text.timer_channel_output_config:0000000000000050 .L0 
C:\Users\stapi\AppData\Local\Temp\ccmnwr16.s:1078   .text.timer_channel_output_config:0000000000000054 .L0 
C:\Users\stapi\AppData\Local\Temp\ccmnwr16.s:1081   .text.timer_channel_output_config:0000000000000058 .L0 
C:\Users\stapi\AppData\Local\Temp\ccmnwr16.s:1082   .text.timer_channel_output_config:0000000000000058 .L0 
C:\Users\stapi\AppData\Local\Temp\ccmnwr16.s:1086   .text.timer_channel_output_config:000000000000005e .L0 
C:\Users\stapi\AppData\Local\Temp\ccmnwr16.s:1087   .text.timer_channel_output_config:000000000000005e .L0 
C:\Users\stapi\AppData\Local\Temp\ccmnwr16.s:1089   .text.timer_channel_output_config:0000000000000060 .L0 
C:\Users\stapi\AppData\Local\Temp\ccmnwr16.s:1091   .text.timer_channel_output_config:0000000000000064 .L0 
C:\Users\stapi\AppData\Local\Temp\ccmnwr16.s:1094   .text.timer_channel_output_config:0000000000000068 .L0 
C:\Users\stapi\AppData\Local\Temp\ccmnwr16.s:1095   .text.timer_channel_output_config:0000000000000068 .L0 
C:\Users\stapi\AppData\Local\Temp\ccmnwr16.s:1099   .text.timer_channel_output_config:0000000000000070 .L0 
C:\Users\stapi\AppData\Local\Temp\ccmnwr16.s:1100   .text.timer_channel_output_config:0000000000000070 .L0 
C:\Users\stapi\AppData\Local\Temp\ccmnwr16.s:1102   .text.timer_channel_output_config:0000000000000072 .L0 
C:\Users\stapi\AppData\Local\Temp\ccmnwr16.s:1104   .text.timer_channel_output_config:0000000000000076 .L0 
C:\Users\stapi\AppData\Local\Temp\ccmnwr16.s:1107   .text.timer_channel_output_config:000000000000007a .L0 
C:\Users\stapi\AppData\Local\Temp\ccmnwr16.s:1108   .text.timer_channel_output_config:000000000000007a .L0 
C:\Users\stapi\AppData\Local\Temp\ccmnwr16.s:1112   .text.timer_channel_output_config:0000000000000082 .L0 
C:\Users\stapi\AppData\Local\Temp\ccmnwr16.s:1113   .text.timer_channel_output_config:0000000000000082 .L0 
C:\Users\stapi\AppData\Local\Temp\ccmnwr16.s:1115   .text.timer_channel_output_config:0000000000000084 .L0 
C:\Users\stapi\AppData\Local\Temp\ccmnwr16.s:1118   .text.timer_channel_output_config:0000000000000088 .L0 
C:\Users\stapi\AppData\Local\Temp\ccmnwr16.s:1122   .text.timer_channel_output_config:000000000000008c .L0 
C:\Users\stapi\AppData\Local\Temp\ccmnwr16.s:1125   .text.timer_channel_output_config:000000000000008e .L0 
C:\Users\stapi\AppData\Local\Temp\ccmnwr16.s:1130   .text.timer_channel_output_config:0000000000000096 .L0 
C:\Users\stapi\AppData\Local\Temp\ccmnwr16.s:1131   .text.timer_channel_output_config:0000000000000096 .L0 
C:\Users\stapi\AppData\Local\Temp\ccmnwr16.s:1133   .text.timer_channel_output_config:0000000000000098 .L0 
C:\Users\stapi\AppData\Local\Temp\ccmnwr16.s:1135   .text.timer_channel_output_config:000000000000009a .L0 
C:\Users\stapi\AppData\Local\Temp\ccmnwr16.s:1138   .text.timer_channel_output_config:000000000000009e .L0 
C:\Users\stapi\AppData\Local\Temp\ccmnwr16.s:1139   .text.timer_channel_output_config:000000000000009e .L0 
C:\Users\stapi\AppData\Local\Temp\ccmnwr16.s:1143   .text.timer_channel_output_config:00000000000000a6 .L0 
C:\Users\stapi\AppData\Local\Temp\ccmnwr16.s:1144   .text.timer_channel_output_config:00000000000000a6 .L0 
C:\Users\stapi\AppData\Local\Temp\ccmnwr16.s:1146   .text.timer_channel_output_config:00000000000000a8 .L0 
C:\Users\stapi\AppData\Local\Temp\ccmnwr16.s:1148   .text.timer_channel_output_config:00000000000000aa .L0 
C:\Users\stapi\AppData\Local\Temp\ccmnwr16.s:1150   .text.timer_channel_output_config:00000000000000ac .L0 
C:\Users\stapi\AppData\Local\Temp\ccmnwr16.s:1153   .text.timer_channel_output_config:00000000000000b0 .L0 
C:\Users\stapi\AppData\Local\Temp\ccmnwr16.s:1154   .text.timer_channel_output_config:00000000000000b0 .L0 
C:\Users\stapi\AppData\Local\Temp\ccmnwr16.s:1158   .text.timer_channel_output_config:00000000000000b8 .L0 
C:\Users\stapi\AppData\Local\Temp\ccmnwr16.s:1159   .text.timer_channel_output_config:00000000000000b8 .L0 
C:\Users\stapi\AppData\Local\Temp\ccmnwr16.s:1163   .text.timer_channel_output_config:00000000000000be .L0 
C:\Users\stapi\AppData\Local\Temp\ccmnwr16.s:1164   .text.timer_channel_output_config:00000000000000be .L0 
C:\Users\stapi\AppData\Local\Temp\ccmnwr16.s:1167   .text.timer_channel_output_config:00000000000000c6 .L0 
C:\Users\stapi\AppData\Local\Temp\ccmnwr16.s:1168   .text.timer_channel_output_config:00000000000000c6 .L0 
C:\Users\stapi\AppData\Local\Temp\ccmnwr16.s:1172   .text.timer_channel_output_config:00000000000000ce .L0 
C:\Users\stapi\AppData\Local\Temp\ccmnwr16.s:1173   .text.timer_channel_output_config:00000000000000ce .L0 
C:\Users\stapi\AppData\Local\Temp\ccmnwr16.s:1175   .text.timer_channel_output_config:00000000000000d2 .L0 
C:\Users\stapi\AppData\Local\Temp\ccmnwr16.s:1177   .text.timer_channel_output_config:00000000000000d4 .L0 
C:\Users\stapi\AppData\Local\Temp\ccmnwr16.s:1179   .text.timer_channel_output_config:00000000000000d6 .L0 
C:\Users\stapi\AppData\Local\Temp\ccmnwr16.s:1182   .text.timer_channel_output_config:00000000000000da .L0 
C:\Users\stapi\AppData\Local\Temp\ccmnwr16.s:1183   .text.timer_channel_output_config:00000000000000da .L0 
C:\Users\stapi\AppData\Local\Temp\ccmnwr16.s:1187   .text.timer_channel_output_config:00000000000000e2 .L0 
C:\Users\stapi\AppData\Local\Temp\ccmnwr16.s:1188   .text.timer_channel_output_config:00000000000000e2 .L0 
C:\Users\stapi\AppData\Local\Temp\ccmnwr16.s:1190   .text.timer_channel_output_config:00000000000000e6 .L0 
C:\Users\stapi\AppData\Local\Temp\ccmnwr16.s:1192   .text.timer_channel_output_config:00000000000000e8 .L0 
C:\Users\stapi\AppData\Local\Temp\ccmnwr16.s:1194   .text.timer_channel_output_config:00000000000000ea .L0 
C:\Users\stapi\AppData\Local\Temp\ccmnwr16.s:1197   .text.timer_channel_output_config:00000000000000ee .L0 
C:\Users\stapi\AppData\Local\Temp\ccmnwr16.s:1198   .text.timer_channel_output_config:00000000000000ee .L0 
C:\Users\stapi\AppData\Local\Temp\ccmnwr16.s:1202   .text.timer_channel_output_config:00000000000000f6 .L0 
C:\Users\stapi\AppData\Local\Temp\ccmnwr16.s:1203   .text.timer_channel_output_config:00000000000000f6 .L0 
C:\Users\stapi\AppData\Local\Temp\ccmnwr16.s:1205   .text.timer_channel_output_config:00000000000000fa .L0 
C:\Users\stapi\AppData\Local\Temp\ccmnwr16.s:1207   .text.timer_channel_output_config:00000000000000fc .L0 
C:\Users\stapi\AppData\Local\Temp\ccmnwr16.s:1209   .text.timer_channel_output_config:00000000000000fe .L0 
C:\Users\stapi\AppData\Local\Temp\ccmnwr16.s:1212   .text.timer_channel_output_config:0000000000000102 .L0 
C:\Users\stapi\AppData\Local\Temp\ccmnwr16.s:1213   .text.timer_channel_output_config:0000000000000102 .L0 
C:\Users\stapi\AppData\Local\Temp\ccmnwr16.s:1217   .text.timer_channel_output_config:000000000000010a .L0 
C:\Users\stapi\AppData\Local\Temp\ccmnwr16.s:1218   .text.timer_channel_output_config:000000000000010a .L0 
C:\Users\stapi\AppData\Local\Temp\ccmnwr16.s:1220   .text.timer_channel_output_config:000000000000010e .L0 
C:\Users\stapi\AppData\Local\Temp\ccmnwr16.s:1222   .text.timer_channel_output_config:0000000000000110 .L0 
C:\Users\stapi\AppData\Local\Temp\ccmnwr16.s:1226   .text.timer_channel_output_config:0000000000000114 .L0 
C:\Users\stapi\AppData\Local\Temp\ccmnwr16.s:1227   .text.timer_channel_output_config:0000000000000114 .L0 
C:\Users\stapi\AppData\Local\Temp\ccmnwr16.s:1231   .text.timer_channel_output_config:000000000000011c .L0 
C:\Users\stapi\AppData\Local\Temp\ccmnwr16.s:1232   .text.timer_channel_output_config:000000000000011c .L0 
C:\Users\stapi\AppData\Local\Temp\ccmnwr16.s:1236   .text.timer_channel_output_config:0000000000000122 .L0 
C:\Users\stapi\AppData\Local\Temp\ccmnwr16.s:1237   .text.timer_channel_output_config:0000000000000122 .L0 
C:\Users\stapi\AppData\Local\Temp\ccmnwr16.s:1239   .text.timer_channel_output_config:0000000000000124 .L0 
C:\Users\stapi\AppData\Local\Temp\ccmnwr16.s:1241   .text.timer_channel_output_config:0000000000000126 .L0 
C:\Users\stapi\AppData\Local\Temp\ccmnwr16.s:1243   .text.timer_channel_output_config:0000000000000128 .L0 
C:\Users\stapi\AppData\Local\Temp\ccmnwr16.s:1246   .text.timer_channel_output_config:000000000000012c .L0 
C:\Users\stapi\AppData\Local\Temp\ccmnwr16.s:1247   .text.timer_channel_output_config:000000000000012c .L0 
C:\Users\stapi\AppData\Local\Temp\ccmnwr16.s:1251   .text.timer_channel_output_config:0000000000000134 .L0 
C:\Users\stapi\AppData\Local\Temp\ccmnwr16.s:1252   .text.timer_channel_output_config:0000000000000134 .L0 
C:\Users\stapi\AppData\Local\Temp\ccmnwr16.s:1254   .text.timer_channel_output_config:0000000000000138 .L0 
C:\Users\stapi\AppData\Local\Temp\ccmnwr16.s:1256   .text.timer_channel_output_config:000000000000013a .L0 
C:\Users\stapi\AppData\Local\Temp\ccmnwr16.s:1258   .text.timer_channel_output_config:000000000000013c .L0 
C:\Users\stapi\AppData\Local\Temp\ccmnwr16.s:1261   .text.timer_channel_output_config:0000000000000140 .L0 
C:\Users\stapi\AppData\Local\Temp\ccmnwr16.s:1262   .text.timer_channel_output_config:0000000000000140 .L0 
C:\Users\stapi\AppData\Local\Temp\ccmnwr16.s:1265   .text.timer_channel_output_config:0000000000000148 .L0 
C:\Users\stapi\AppData\Local\Temp\ccmnwr16.s:1266   .text.timer_channel_output_config:0000000000000148 .L0 
C:\Users\stapi\AppData\Local\Temp\ccmnwr16.s:1270   .text.timer_channel_output_config:0000000000000150 .L0 
C:\Users\stapi\AppData\Local\Temp\ccmnwr16.s:1271   .text.timer_channel_output_config:0000000000000150 .L0 
C:\Users\stapi\AppData\Local\Temp\ccmnwr16.s:1273   .text.timer_channel_output_config:0000000000000154 .L0 
C:\Users\stapi\AppData\Local\Temp\ccmnwr16.s:1275   .text.timer_channel_output_config:0000000000000156 .L0 
C:\Users\stapi\AppData\Local\Temp\ccmnwr16.s:1277   .text.timer_channel_output_config:0000000000000158 .L0 
C:\Users\stapi\AppData\Local\Temp\ccmnwr16.s:1280   .text.timer_channel_output_config:000000000000015c .L0 
C:\Users\stapi\AppData\Local\Temp\ccmnwr16.s:1281   .text.timer_channel_output_config:000000000000015c .L0 
C:\Users\stapi\AppData\Local\Temp\ccmnwr16.s:1285   .text.timer_channel_output_config:0000000000000164 .L0 
C:\Users\stapi\AppData\Local\Temp\ccmnwr16.s:1286   .text.timer_channel_output_config:0000000000000164 .L0 
C:\Users\stapi\AppData\Local\Temp\ccmnwr16.s:1288   .text.timer_channel_output_config:0000000000000168 .L0 
C:\Users\stapi\AppData\Local\Temp\ccmnwr16.s:1290   .text.timer_channel_output_config:000000000000016a .L0 
C:\Users\stapi\AppData\Local\Temp\ccmnwr16.s:1292   .text.timer_channel_output_config:000000000000016c .L0 
C:\Users\stapi\AppData\Local\Temp\ccmnwr16.s:1295   .text.timer_channel_output_config:0000000000000170 .L0 
C:\Users\stapi\AppData\Local\Temp\ccmnwr16.s:1296   .text.timer_channel_output_config:0000000000000170 .L0 
C:\Users\stapi\AppData\Local\Temp\ccmnwr16.s:1300   .text.timer_channel_output_config:0000000000000178 .L0 
C:\Users\stapi\AppData\Local\Temp\ccmnwr16.s:1301   .text.timer_channel_output_config:0000000000000178 .L0 
C:\Users\stapi\AppData\Local\Temp\ccmnwr16.s:1303   .text.timer_channel_output_config:000000000000017c .L0 
C:\Users\stapi\AppData\Local\Temp\ccmnwr16.s:1305   .text.timer_channel_output_config:000000000000017e .L0 
C:\Users\stapi\AppData\Local\Temp\ccmnwr16.s:1307   .text.timer_channel_output_config:0000000000000180 .L0 
C:\Users\stapi\AppData\Local\Temp\ccmnwr16.s:1310   .text.timer_channel_output_config:0000000000000184 .L0 
C:\Users\stapi\AppData\Local\Temp\ccmnwr16.s:1311   .text.timer_channel_output_config:0000000000000184 .L0 
C:\Users\stapi\AppData\Local\Temp\ccmnwr16.s:1315   .text.timer_channel_output_config:000000000000018c .L0 
C:\Users\stapi\AppData\Local\Temp\ccmnwr16.s:1316   .text.timer_channel_output_config:000000000000018c .L0 
C:\Users\stapi\AppData\Local\Temp\ccmnwr16.s:1318   .text.timer_channel_output_config:0000000000000190 .L0 
C:\Users\stapi\AppData\Local\Temp\ccmnwr16.s:1320   .text.timer_channel_output_config:0000000000000192 .L0 
C:\Users\stapi\AppData\Local\Temp\ccmnwr16.s:1324   .text.timer_channel_output_config:0000000000000196 .L0 
C:\Users\stapi\AppData\Local\Temp\ccmnwr16.s:1325   .text.timer_channel_output_config:0000000000000196 .L0 
C:\Users\stapi\AppData\Local\Temp\ccmnwr16.s:1329   .text.timer_channel_output_config:000000000000019e .L0 
C:\Users\stapi\AppData\Local\Temp\ccmnwr16.s:1330   .text.timer_channel_output_config:000000000000019e .L0 
C:\Users\stapi\AppData\Local\Temp\ccmnwr16.s:1334   .text.timer_channel_output_config:00000000000001a6 .L0 
C:\Users\stapi\AppData\Local\Temp\ccmnwr16.s:1335   .text.timer_channel_output_config:00000000000001a6 .L0 
C:\Users\stapi\AppData\Local\Temp\ccmnwr16.s:1337   .text.timer_channel_output_config:00000000000001a8 .L0 
C:\Users\stapi\AppData\Local\Temp\ccmnwr16.s:1339   .text.timer_channel_output_config:00000000000001aa .L0 
C:\Users\stapi\AppData\Local\Temp\ccmnwr16.s:1341   .text.timer_channel_output_config:00000000000001ac .L0 
C:\Users\stapi\AppData\Local\Temp\ccmnwr16.s:1344   .text.timer_channel_output_config:00000000000001b0 .L0 
C:\Users\stapi\AppData\Local\Temp\ccmnwr16.s:1345   .text.timer_channel_output_config:00000000000001b0 .L0 
C:\Users\stapi\AppData\Local\Temp\ccmnwr16.s:1349   .text.timer_channel_output_config:00000000000001b8 .L0 
C:\Users\stapi\AppData\Local\Temp\ccmnwr16.s:1350   .text.timer_channel_output_config:00000000000001b8 .L0 
C:\Users\stapi\AppData\Local\Temp\ccmnwr16.s:1352   .text.timer_channel_output_config:00000000000001bc .L0 
C:\Users\stapi\AppData\Local\Temp\ccmnwr16.s:1354   .text.timer_channel_output_config:00000000000001be .L0 
C:\Users\stapi\AppData\Local\Temp\ccmnwr16.s:1356   .text.timer_channel_output_config:00000000000001c0 .L0 
C:\Users\stapi\AppData\Local\Temp\ccmnwr16.s:1359   .text.timer_channel_output_config:00000000000001c4 .L0 
C:\Users\stapi\AppData\Local\Temp\ccmnwr16.s:1360   .text.timer_channel_output_config:00000000000001c4 .L0 
C:\Users\stapi\AppData\Local\Temp\ccmnwr16.s:1363   .text.timer_channel_output_config:00000000000001cc .L0 
C:\Users\stapi\AppData\Local\Temp\ccmnwr16.s:1364   .text.timer_channel_output_config:00000000000001cc .L0 
C:\Users\stapi\AppData\Local\Temp\ccmnwr16.s:1368   .text.timer_channel_output_config:00000000000001d4 .L0 
C:\Users\stapi\AppData\Local\Temp\ccmnwr16.s:1369   .text.timer_channel_output_config:00000000000001d4 .L0 
C:\Users\stapi\AppData\Local\Temp\ccmnwr16.s:1371   .text.timer_channel_output_config:00000000000001d8 .L0 
C:\Users\stapi\AppData\Local\Temp\ccmnwr16.s:1373   .text.timer_channel_output_config:00000000000001da .L0 
C:\Users\stapi\AppData\Local\Temp\ccmnwr16.s:1375   .text.timer_channel_output_config:00000000000001de .L0 
C:\Users\stapi\AppData\Local\Temp\ccmnwr16.s:1382   .text.timer_channel_output_mode_config:0000000000000000 timer_channel_output_mode_config
C:\Users\stapi\AppData\Local\Temp\ccmnwr16.s:1385   .text.timer_channel_output_mode_config:0000000000000000 .L0 
C:\Users\stapi\AppData\Local\Temp\ccmnwr16.s:1387   .text.timer_channel_output_mode_config:0000000000000000 .L0 
C:\Users\stapi\AppData\Local\Temp\ccmnwr16.s:1388   .text.timer_channel_output_mode_config:0000000000000000 .L0 
C:\Users\stapi\AppData\Local\Temp\ccmnwr16.s:1393   .text.timer_channel_output_mode_config:000000000000000c .L0 
C:\Users\stapi\AppData\Local\Temp\ccmnwr16.s:1394   .text.timer_channel_output_mode_config:000000000000000c .L0 
C:\Users\stapi\AppData\Local\Temp\ccmnwr16.s:1398   .text.timer_channel_output_mode_config:0000000000000014 .L0 
C:\Users\stapi\AppData\Local\Temp\ccmnwr16.s:1399   .text.timer_channel_output_mode_config:0000000000000014 .L0 
C:\Users\stapi\AppData\Local\Temp\ccmnwr16.s:1403   .text.timer_channel_output_mode_config:0000000000000016 .L0 
C:\Users\stapi\AppData\Local\Temp\ccmnwr16.s:1406   .text.timer_channel_output_mode_config:000000000000001a .L0 
C:\Users\stapi\AppData\Local\Temp\ccmnwr16.s:1410   .text.timer_channel_output_mode_config:000000000000001c .L0 
C:\Users\stapi\AppData\Local\Temp\ccmnwr16.s:1415   .text.timer_channel_output_mode_config:0000000000000024 .L0 
C:\Users\stapi\AppData\Local\Temp\ccmnwr16.s:1416   .text.timer_channel_output_mode_config:0000000000000024 .L0 
C:\Users\stapi\AppData\Local\Temp\ccmnwr16.s:1422   .text.timer_channel_output_mode_config:000000000000002e .L0 
C:\Users\stapi\AppData\Local\Temp\ccmnwr16.s:1423   .text.timer_channel_output_mode_config:000000000000002e .L0 
C:\Users\stapi\AppData\Local\Temp\ccmnwr16.s:1425   .text.timer_channel_output_mode_config:0000000000000030 .L0 
C:\Users\stapi\AppData\Local\Temp\ccmnwr16.s:1431   .text.timer_channel_output_mode_config:0000000000000034 .L0 
C:\Users\stapi\AppData\Local\Temp\ccmnwr16.s:1432   .text.timer_channel_output_mode_config:0000000000000034 .L0 
C:\Users\stapi\AppData\Local\Temp\ccmnwr16.s:1436   .text.timer_channel_output_mode_config:000000000000003c .L0 
C:\Users\stapi\AppData\Local\Temp\ccmnwr16.s:1437   .text.timer_channel_output_mode_config:000000000000003c .L0 
C:\Users\stapi\AppData\Local\Temp\ccmnwr16.s:1441   .text.timer_channel_output_mode_config:000000000000003e .L0 
C:\Users\stapi\AppData\Local\Temp\ccmnwr16.s:1444   .text.timer_channel_output_mode_config:0000000000000042 .L0 
C:\Users\stapi\AppData\Local\Temp\ccmnwr16.s:1445   .text.timer_channel_output_mode_config:0000000000000042 .L0 
C:\Users\stapi\AppData\Local\Temp\ccmnwr16.s:1449   .text.timer_channel_output_mode_config:0000000000000044 .L0 
C:\Users\stapi\AppData\Local\Temp\ccmnwr16.s:1450   .text.timer_channel_output_mode_config:0000000000000044 .L0 
C:\Users\stapi\AppData\Local\Temp\ccmnwr16.s:1456   .text.timer_channel_output_mode_config:000000000000004e .L0 
C:\Users\stapi\AppData\Local\Temp\ccmnwr16.s:1457   .text.timer_channel_output_mode_config:000000000000004e .L0 
C:\Users\stapi\AppData\Local\Temp\ccmnwr16.s:1459   .text.timer_channel_output_mode_config:0000000000000050 .L0 
C:\Users\stapi\AppData\Local\Temp\ccmnwr16.s:1462   .text.timer_channel_output_mode_config:0000000000000054 .L0 
C:\Users\stapi\AppData\Local\Temp\ccmnwr16.s:1469   .text.timer_channel_output_pulse_value_config:0000000000000000 timer_channel_output_pulse_value_config
C:\Users\stapi\AppData\Local\Temp\ccmnwr16.s:1472   .text.timer_channel_output_pulse_value_config:0000000000000000 .L0 
C:\Users\stapi\AppData\Local\Temp\ccmnwr16.s:1474   .text.timer_channel_output_pulse_value_config:0000000000000000 .L0 
C:\Users\stapi\AppData\Local\Temp\ccmnwr16.s:1475   .text.timer_channel_output_pulse_value_config:0000000000000000 .L0 
C:\Users\stapi\AppData\Local\Temp\ccmnwr16.s:1480   .text.timer_channel_output_pulse_value_config:000000000000000c .L0 
C:\Users\stapi\AppData\Local\Temp\ccmnwr16.s:1481   .text.timer_channel_output_pulse_value_config:000000000000000c .L0 
C:\Users\stapi\AppData\Local\Temp\ccmnwr16.s:1483   .text.timer_channel_output_pulse_value_config:000000000000000e .L0 
C:\Users\stapi\AppData\Local\Temp\ccmnwr16.s:1486   .text.timer_channel_output_pulse_value_config:0000000000000010 .L0 
C:\Users\stapi\AppData\Local\Temp\ccmnwr16.s:1491   .text.timer_channel_output_pulse_value_config:0000000000000018 .L0 
C:\Users\stapi\AppData\Local\Temp\ccmnwr16.s:1492   .text.timer_channel_output_pulse_value_config:0000000000000018 .L0 
C:\Users\stapi\AppData\Local\Temp\ccmnwr16.s:1494   .text.timer_channel_output_pulse_value_config:000000000000001a .L0 
C:\Users\stapi\AppData\Local\Temp\ccmnwr16.s:1497   .text.timer_channel_output_pulse_value_config:000000000000001c .L0 
C:\Users\stapi\AppData\Local\Temp\ccmnwr16.s:1498   .text.timer_channel_output_pulse_value_config:000000000000001c .L0 
C:\Users\stapi\AppData\Local\Temp\ccmnwr16.s:1500   .text.timer_channel_output_pulse_value_config:000000000000001e .L0 
C:\Users\stapi\AppData\Local\Temp\ccmnwr16.s:1503   .text.timer_channel_output_pulse_value_config:0000000000000020 .L0 
C:\Users\stapi\AppData\Local\Temp\ccmnwr16.s:1504   .text.timer_channel_output_pulse_value_config:0000000000000020 .L0 
C:\Users\stapi\AppData\Local\Temp\ccmnwr16.s:1506   .text.timer_channel_output_pulse_value_config:0000000000000022 .L0 
C:\Users\stapi\AppData\Local\Temp\ccmnwr16.s:1507   .text.timer_channel_output_pulse_value_config:0000000000000022 .L0 
C:\Users\stapi\AppData\Local\Temp\ccmnwr16.s:1508   .text.timer_channel_output_pulse_value_config:0000000000000024 .L0 
C:\Users\stapi\AppData\Local\Temp\ccmnwr16.s:1515   .text.timer_channel_output_shadow_config:0000000000000000 timer_channel_output_shadow_config
C:\Users\stapi\AppData\Local\Temp\ccmnwr16.s:1518   .text.timer_channel_output_shadow_config:0000000000000000 .L0 
C:\Users\stapi\AppData\Local\Temp\ccmnwr16.s:1520   .text.timer_channel_output_shadow_config:0000000000000000 .L0 
C:\Users\stapi\AppData\Local\Temp\ccmnwr16.s:1521   .text.timer_channel_output_shadow_config:0000000000000000 .L0 
C:\Users\stapi\AppData\Local\Temp\ccmnwr16.s:1526   .text.timer_channel_output_shadow_config:000000000000000c .L0 
C:\Users\stapi\AppData\Local\Temp\ccmnwr16.s:1527   .text.timer_channel_output_shadow_config:000000000000000c .L0 
C:\Users\stapi\AppData\Local\Temp\ccmnwr16.s:1531   .text.timer_channel_output_shadow_config:0000000000000012 .L0 
C:\Users\stapi\AppData\Local\Temp\ccmnwr16.s:1532   .text.timer_channel_output_shadow_config:0000000000000012 .L0 
C:\Users\stapi\AppData\Local\Temp\ccmnwr16.s:1536   .text.timer_channel_output_shadow_config:0000000000000014 .L0 
C:\Users\stapi\AppData\Local\Temp\ccmnwr16.s:1539   .text.timer_channel_output_shadow_config:0000000000000018 .L0 
C:\Users\stapi\AppData\Local\Temp\ccmnwr16.s:1543   .text.timer_channel_output_shadow_config:000000000000001a .L0 
C:\Users\stapi\AppData\Local\Temp\ccmnwr16.s:1548   .text.timer_channel_output_shadow_config:0000000000000022 .L0 
C:\Users\stapi\AppData\Local\Temp\ccmnwr16.s:1549   .text.timer_channel_output_shadow_config:0000000000000022 .L0 
C:\Users\stapi\AppData\Local\Temp\ccmnwr16.s:1551   .text.timer_channel_output_shadow_config:0000000000000024 .L0 
C:\Users\stapi\AppData\Local\Temp\ccmnwr16.s:1554   .text.timer_channel_output_shadow_config:0000000000000026 .L0 
C:\Users\stapi\AppData\Local\Temp\ccmnwr16.s:1557   .text.timer_channel_output_shadow_config:000000000000002c .L0 
C:\Users\stapi\AppData\Local\Temp\ccmnwr16.s:1558   .text.timer_channel_output_shadow_config:000000000000002c .L0 
C:\Users\stapi\AppData\Local\Temp\ccmnwr16.s:1563   .text.timer_channel_output_shadow_config:0000000000000030 .L0 
C:\Users\stapi\AppData\Local\Temp\ccmnwr16.s:1564   .text.timer_channel_output_shadow_config:0000000000000030 .L0 
C:\Users\stapi\AppData\Local\Temp\ccmnwr16.s:1568   .text.timer_channel_output_shadow_config:0000000000000036 .L0 
C:\Users\stapi\AppData\Local\Temp\ccmnwr16.s:1569   .text.timer_channel_output_shadow_config:0000000000000036 .L0 
C:\Users\stapi\AppData\Local\Temp\ccmnwr16.s:1573   .text.timer_channel_output_shadow_config:0000000000000038 .L0 
C:\Users\stapi\AppData\Local\Temp\ccmnwr16.s:1576   .text.timer_channel_output_shadow_config:000000000000003c .L0 
C:\Users\stapi\AppData\Local\Temp\ccmnwr16.s:1577   .text.timer_channel_output_shadow_config:000000000000003c .L0 
C:\Users\stapi\AppData\Local\Temp\ccmnwr16.s:1581   .text.timer_channel_output_shadow_config:000000000000003e .L0 
C:\Users\stapi\AppData\Local\Temp\ccmnwr16.s:1582   .text.timer_channel_output_shadow_config:000000000000003e .L0 
C:\Users\stapi\AppData\Local\Temp\ccmnwr16.s:1584   .text.timer_channel_output_shadow_config:0000000000000040 .L0 
C:\Users\stapi\AppData\Local\Temp\ccmnwr16.s:1587   .text.timer_channel_output_shadow_config:0000000000000042 .L0 
C:\Users\stapi\AppData\Local\Temp\ccmnwr16.s:1590   .text.timer_channel_output_shadow_config:0000000000000048 .L0 
C:\Users\stapi\AppData\Local\Temp\ccmnwr16.s:1591   .text.timer_channel_output_shadow_config:0000000000000048 .L0 
C:\Users\stapi\AppData\Local\Temp\ccmnwr16.s:1593   .text.timer_channel_output_shadow_config:000000000000004c .L0 
C:\Users\stapi\AppData\Local\Temp\ccmnwr16.s:1600   .text.timer_channel_output_fast_config:0000000000000000 timer_channel_output_fast_config
C:\Users\stapi\AppData\Local\Temp\ccmnwr16.s:1603   .text.timer_channel_output_fast_config:0000000000000000 .L0 
C:\Users\stapi\AppData\Local\Temp\ccmnwr16.s:1605   .text.timer_channel_output_fast_config:0000000000000000 .L0 
C:\Users\stapi\AppData\Local\Temp\ccmnwr16.s:1606   .text.timer_channel_output_fast_config:0000000000000000 .L0 
C:\Users\stapi\AppData\Local\Temp\ccmnwr16.s:1611   .text.timer_channel_output_fast_config:000000000000000c .L0 
C:\Users\stapi\AppData\Local\Temp\ccmnwr16.s:1612   .text.timer_channel_output_fast_config:000000000000000c .L0 
C:\Users\stapi\AppData\Local\Temp\ccmnwr16.s:1616   .text.timer_channel_output_fast_config:0000000000000012 .L0 
C:\Users\stapi\AppData\Local\Temp\ccmnwr16.s:1617   .text.timer_channel_output_fast_config:0000000000000012 .L0 
C:\Users\stapi\AppData\Local\Temp\ccmnwr16.s:1621   .text.timer_channel_output_fast_config:0000000000000014 .L0 
C:\Users\stapi\AppData\Local\Temp\ccmnwr16.s:1624   .text.timer_channel_output_fast_config:0000000000000018 .L0 
C:\Users\stapi\AppData\Local\Temp\ccmnwr16.s:1628   .text.timer_channel_output_fast_config:000000000000001a .L0 
C:\Users\stapi\AppData\Local\Temp\ccmnwr16.s:1633   .text.timer_channel_output_fast_config:0000000000000022 .L0 
C:\Users\stapi\AppData\Local\Temp\ccmnwr16.s:1634   .text.timer_channel_output_fast_config:0000000000000022 .L0 
C:\Users\stapi\AppData\Local\Temp\ccmnwr16.s:1636   .text.timer_channel_output_fast_config:0000000000000024 .L0 
C:\Users\stapi\AppData\Local\Temp\ccmnwr16.s:1639   .text.timer_channel_output_fast_config:0000000000000026 .L0 
C:\Users\stapi\AppData\Local\Temp\ccmnwr16.s:1642   .text.timer_channel_output_fast_config:000000000000002c .L0 
C:\Users\stapi\AppData\Local\Temp\ccmnwr16.s:1643   .text.timer_channel_output_fast_config:000000000000002c .L0 
C:\Users\stapi\AppData\Local\Temp\ccmnwr16.s:1648   .text.timer_channel_output_fast_config:0000000000000030 .L0 
C:\Users\stapi\AppData\Local\Temp\ccmnwr16.s:1649   .text.timer_channel_output_fast_config:0000000000000030 .L0 
C:\Users\stapi\AppData\Local\Temp\ccmnwr16.s:1653   .text.timer_channel_output_fast_config:0000000000000036 .L0 
C:\Users\stapi\AppData\Local\Temp\ccmnwr16.s:1654   .text.timer_channel_output_fast_config:0000000000000036 .L0 
C:\Users\stapi\AppData\Local\Temp\ccmnwr16.s:1658   .text.timer_channel_output_fast_config:0000000000000038 .L0 
C:\Users\stapi\AppData\Local\Temp\ccmnwr16.s:1661   .text.timer_channel_output_fast_config:000000000000003c .L0 
C:\Users\stapi\AppData\Local\Temp\ccmnwr16.s:1662   .text.timer_channel_output_fast_config:000000000000003c .L0 
C:\Users\stapi\AppData\Local\Temp\ccmnwr16.s:1666   .text.timer_channel_output_fast_config:000000000000003e .L0 
C:\Users\stapi\AppData\Local\Temp\ccmnwr16.s:1667   .text.timer_channel_output_fast_config:000000000000003e .L0 
C:\Users\stapi\AppData\Local\Temp\ccmnwr16.s:1669   .text.timer_channel_output_fast_config:0000000000000040 .L0 
C:\Users\stapi\AppData\Local\Temp\ccmnwr16.s:1672   .text.timer_channel_output_fast_config:0000000000000042 .L0 
C:\Users\stapi\AppData\Local\Temp\ccmnwr16.s:1675   .text.timer_channel_output_fast_config:0000000000000048 .L0 
C:\Users\stapi\AppData\Local\Temp\ccmnwr16.s:1676   .text.timer_channel_output_fast_config:0000000000000048 .L0 
C:\Users\stapi\AppData\Local\Temp\ccmnwr16.s:1678   .text.timer_channel_output_fast_config:000000000000004c .L0 
C:\Users\stapi\AppData\Local\Temp\ccmnwr16.s:1685   .text.timer_channel_output_clear_config:0000000000000000 timer_channel_output_clear_config
C:\Users\stapi\AppData\Local\Temp\ccmnwr16.s:1688   .text.timer_channel_output_clear_config:0000000000000000 .L0 
C:\Users\stapi\AppData\Local\Temp\ccmnwr16.s:1690   .text.timer_channel_output_clear_config:0000000000000000 .L0 
C:\Users\stapi\AppData\Local\Temp\ccmnwr16.s:1691   .text.timer_channel_output_clear_config:0000000000000000 .L0 
C:\Users\stapi\AppData\Local\Temp\ccmnwr16.s:1696   .text.timer_channel_output_clear_config:000000000000000c .L0 
C:\Users\stapi\AppData\Local\Temp\ccmnwr16.s:1697   .text.timer_channel_output_clear_config:000000000000000c .L0 
C:\Users\stapi\AppData\Local\Temp\ccmnwr16.s:1701   .text.timer_channel_output_clear_config:0000000000000014 .L0 
C:\Users\stapi\AppData\Local\Temp\ccmnwr16.s:1702   .text.timer_channel_output_clear_config:0000000000000014 .L0 
C:\Users\stapi\AppData\Local\Temp\ccmnwr16.s:1706   .text.timer_channel_output_clear_config:0000000000000016 .L0 
C:\Users\stapi\AppData\Local\Temp\ccmnwr16.s:1709   .text.timer_channel_output_clear_config:000000000000001a .L0 
C:\Users\stapi\AppData\Local\Temp\ccmnwr16.s:1713   .text.timer_channel_output_clear_config:000000000000001c .L0 
C:\Users\stapi\AppData\Local\Temp\ccmnwr16.s:1718   .text.timer_channel_output_clear_config:0000000000000024 .L0 
C:\Users\stapi\AppData\Local\Temp\ccmnwr16.s:1719   .text.timer_channel_output_clear_config:0000000000000024 .L0 
C:\Users\stapi\AppData\Local\Temp\ccmnwr16.s:1721   .text.timer_channel_output_clear_config:0000000000000026 .L0 
C:\Users\stapi\AppData\Local\Temp\ccmnwr16.s:1724   .text.timer_channel_output_clear_config:0000000000000028 .L0 
C:\Users\stapi\AppData\Local\Temp\ccmnwr16.s:1727   .text.timer_channel_output_clear_config:000000000000002e .L0 
C:\Users\stapi\AppData\Local\Temp\ccmnwr16.s:1728   .text.timer_channel_output_clear_config:000000000000002e .L0 
C:\Users\stapi\AppData\Local\Temp\ccmnwr16.s:1733   .text.timer_channel_output_clear_config:0000000000000032 .L0 
C:\Users\stapi\AppData\Local\Temp\ccmnwr16.s:1734   .text.timer_channel_output_clear_config:0000000000000032 .L0 
C:\Users\stapi\AppData\Local\Temp\ccmnwr16.s:1738   .text.timer_channel_output_clear_config:000000000000003a .L0 
C:\Users\stapi\AppData\Local\Temp\ccmnwr16.s:1739   .text.timer_channel_output_clear_config:000000000000003a .L0 
C:\Users\stapi\AppData\Local\Temp\ccmnwr16.s:1743   .text.timer_channel_output_clear_config:000000000000003c .L0 
C:\Users\stapi\AppData\Local\Temp\ccmnwr16.s:1746   .text.timer_channel_output_clear_config:0000000000000040 .L0 
C:\Users\stapi\AppData\Local\Temp\ccmnwr16.s:1747   .text.timer_channel_output_clear_config:0000000000000040 .L0 
C:\Users\stapi\AppData\Local\Temp\ccmnwr16.s:1751   .text.timer_channel_output_clear_config:0000000000000042 .L0 
C:\Users\stapi\AppData\Local\Temp\ccmnwr16.s:1752   .text.timer_channel_output_clear_config:0000000000000042 .L0 
C:\Users\stapi\AppData\Local\Temp\ccmnwr16.s:1754   .text.timer_channel_output_clear_config:0000000000000044 .L0 
C:\Users\stapi\AppData\Local\Temp\ccmnwr16.s:1757   .text.timer_channel_output_clear_config:0000000000000046 .L0 
C:\Users\stapi\AppData\Local\Temp\ccmnwr16.s:1760   .text.timer_channel_output_clear_config:000000000000004c .L0 
C:\Users\stapi\AppData\Local\Temp\ccmnwr16.s:1761   .text.timer_channel_output_clear_config:000000000000004c .L0 
C:\Users\stapi\AppData\Local\Temp\ccmnwr16.s:1763   .text.timer_channel_output_clear_config:0000000000000050 .L0 
C:\Users\stapi\AppData\Local\Temp\ccmnwr16.s:1770   .text.timer_channel_output_polarity_config:0000000000000000 timer_channel_output_polarity_config
C:\Users\stapi\AppData\Local\Temp\ccmnwr16.s:1773   .text.timer_channel_output_polarity_config:0000000000000000 .L0 
C:\Users\stapi\AppData\Local\Temp\ccmnwr16.s:1775   .text.timer_channel_output_polarity_config:0000000000000000 .L0 
C:\Users\stapi\AppData\Local\Temp\ccmnwr16.s:1776   .text.timer_channel_output_polarity_config:0000000000000000 .L0 
C:\Users\stapi\AppData\Local\Temp\ccmnwr16.s:1781   .text.timer_channel_output_polarity_config:000000000000000c .L0 
C:\Users\stapi\AppData\Local\Temp\ccmnwr16.s:1782   .text.timer_channel_output_polarity_config:000000000000000c .L0 
C:\Users\stapi\AppData\Local\Temp\ccmnwr16.s:1786   .text.timer_channel_output_polarity_config:0000000000000012 .L0 
C:\Users\stapi\AppData\Local\Temp\ccmnwr16.s:1787   .text.timer_channel_output_polarity_config:0000000000000012 .L0 
C:\Users\stapi\AppData\Local\Temp\ccmnwr16.s:1791   .text.timer_channel_output_polarity_config:0000000000000014 .L0 
C:\Users\stapi\AppData\Local\Temp\ccmnwr16.s:1794   .text.timer_channel_output_polarity_config:0000000000000018 .L0 
C:\Users\stapi\AppData\Local\Temp\ccmnwr16.s:1795   .text.timer_channel_output_polarity_config:0000000000000018 .L0 
C:\Users\stapi\AppData\Local\Temp\ccmnwr16.s:1799   .text.timer_channel_output_polarity_config:000000000000001a .L0 
C:\Users\stapi\AppData\Local\Temp\ccmnwr16.s:1804   .text.timer_channel_output_polarity_config:0000000000000022 .L0 
C:\Users\stapi\AppData\Local\Temp\ccmnwr16.s:1805   .text.timer_channel_output_polarity_config:0000000000000022 .L0 
C:\Users\stapi\AppData\Local\Temp\ccmnwr16.s:1807   .text.timer_channel_output_polarity_config:0000000000000024 .L0 
C:\Users\stapi\AppData\Local\Temp\ccmnwr16.s:1810   .text.timer_channel_output_polarity_config:0000000000000026 .L0 
C:\Users\stapi\AppData\Local\Temp\ccmnwr16.s:1813   .text.timer_channel_output_polarity_config:000000000000002c .L0 
C:\Users\stapi\AppData\Local\Temp\ccmnwr16.s:1814   .text.timer_channel_output_polarity_config:000000000000002c .L0 
C:\Users\stapi\AppData\Local\Temp\ccmnwr16.s:1819   .text.timer_channel_output_polarity_config:0000000000000030 .L0 
C:\Users\stapi\AppData\Local\Temp\ccmnwr16.s:1820   .text.timer_channel_output_polarity_config:0000000000000030 .L0 
C:\Users\stapi\AppData\Local\Temp\ccmnwr16.s:1822   .text.timer_channel_output_polarity_config:0000000000000032 .L0 
C:\Users\stapi\AppData\Local\Temp\ccmnwr16.s:1825   .text.timer_channel_output_polarity_config:0000000000000034 .L0 
C:\Users\stapi\AppData\Local\Temp\ccmnwr16.s:1828   .text.timer_channel_output_polarity_config:000000000000003a .L0 
C:\Users\stapi\AppData\Local\Temp\ccmnwr16.s:1829   .text.timer_channel_output_polarity_config:000000000000003a .L0 
C:\Users\stapi\AppData\Local\Temp\ccmnwr16.s:1834   .text.timer_channel_output_polarity_config:000000000000003e .L0 
C:\Users\stapi\AppData\Local\Temp\ccmnwr16.s:1835   .text.timer_channel_output_polarity_config:000000000000003e .L0 
C:\Users\stapi\AppData\Local\Temp\ccmnwr16.s:1837   .text.timer_channel_output_polarity_config:0000000000000040 .L0 
C:\Users\stapi\AppData\Local\Temp\ccmnwr16.s:1840   .text.timer_channel_output_polarity_config:0000000000000042 .L0 
C:\Users\stapi\AppData\Local\Temp\ccmnwr16.s:1843   .text.timer_channel_output_polarity_config:0000000000000048 .L0 
C:\Users\stapi\AppData\Local\Temp\ccmnwr16.s:1844   .text.timer_channel_output_polarity_config:0000000000000048 .L0 
C:\Users\stapi\AppData\Local\Temp\ccmnwr16.s:1846   .text.timer_channel_output_polarity_config:000000000000004c .L0 
C:\Users\stapi\AppData\Local\Temp\ccmnwr16.s:1853   .text.timer_channel_complementary_output_polarity_config:0000000000000000 timer_channel_complementary_output_polarity_config
C:\Users\stapi\AppData\Local\Temp\ccmnwr16.s:1856   .text.timer_channel_complementary_output_polarity_config:0000000000000000 .L0 
C:\Users\stapi\AppData\Local\Temp\ccmnwr16.s:1858   .text.timer_channel_complementary_output_polarity_config:0000000000000000 .L0 
C:\Users\stapi\AppData\Local\Temp\ccmnwr16.s:1859   .text.timer_channel_complementary_output_polarity_config:0000000000000000 .L0 
C:\Users\stapi\AppData\Local\Temp\ccmnwr16.s:1865   .text.timer_channel_complementary_output_polarity_config:000000000000000e .L0 
C:\Users\stapi\AppData\Local\Temp\ccmnwr16.s:1866   .text.timer_channel_complementary_output_polarity_config:000000000000000e .L0 
C:\Users\stapi\AppData\Local\Temp\ccmnwr16.s:1870   .text.timer_channel_complementary_output_polarity_config:0000000000000014 .L0 
C:\Users\stapi\AppData\Local\Temp\ccmnwr16.s:1871   .text.timer_channel_complementary_output_polarity_config:0000000000000014 .L0 
C:\Users\stapi\AppData\Local\Temp\ccmnwr16.s:1875   .text.timer_channel_complementary_output_polarity_config:0000000000000016 .L0 
C:\Users\stapi\AppData\Local\Temp\ccmnwr16.s:1879   .text.timer_channel_complementary_output_polarity_config:000000000000001a .L0 
C:\Users\stapi\AppData\Local\Temp\ccmnwr16.s:1880   .text.timer_channel_complementary_output_polarity_config:000000000000001a .L0 
C:\Users\stapi\AppData\Local\Temp\ccmnwr16.s:1884   .text.timer_channel_complementary_output_polarity_config:000000000000001c .L0 
C:\Users\stapi\AppData\Local\Temp\ccmnwr16.s:1885   .text.timer_channel_complementary_output_polarity_config:000000000000001c .L0 
C:\Users\stapi\AppData\Local\Temp\ccmnwr16.s:1887   .text.timer_channel_complementary_output_polarity_config:000000000000001e .L0 
C:\Users\stapi\AppData\Local\Temp\ccmnwr16.s:1890   .text.timer_channel_complementary_output_polarity_config:0000000000000020 .L0 
C:\Users\stapi\AppData\Local\Temp\ccmnwr16.s:1893   .text.timer_channel_complementary_output_polarity_config:0000000000000026 .L0 
C:\Users\stapi\AppData\Local\Temp\ccmnwr16.s:1894   .text.timer_channel_complementary_output_polarity_config:0000000000000026 .L0 
C:\Users\stapi\AppData\Local\Temp\ccmnwr16.s:1899   .text.timer_channel_complementary_output_polarity_config:000000000000002a .L0 
C:\Users\stapi\AppData\Local\Temp\ccmnwr16.s:1900   .text.timer_channel_complementary_output_polarity_config:000000000000002a .L0 
C:\Users\stapi\AppData\Local\Temp\ccmnwr16.s:1902   .text.timer_channel_complementary_output_polarity_config:000000000000002c .L0 
C:\Users\stapi\AppData\Local\Temp\ccmnwr16.s:1905   .text.timer_channel_complementary_output_polarity_config:000000000000002e .L0 
C:\Users\stapi\AppData\Local\Temp\ccmnwr16.s:1908   .text.timer_channel_complementary_output_polarity_config:0000000000000034 .L0 
C:\Users\stapi\AppData\Local\Temp\ccmnwr16.s:1909   .text.timer_channel_complementary_output_polarity_config:0000000000000034 .L0 
C:\Users\stapi\AppData\Local\Temp\ccmnwr16.s:1911   .text.timer_channel_complementary_output_polarity_config:0000000000000038 .L0 
C:\Users\stapi\AppData\Local\Temp\ccmnwr16.s:1918   .text.timer_channel_output_state_config:0000000000000000 timer_channel_output_state_config
C:\Users\stapi\AppData\Local\Temp\ccmnwr16.s:1921   .text.timer_channel_output_state_config:0000000000000000 .L0 
C:\Users\stapi\AppData\Local\Temp\ccmnwr16.s:1923   .text.timer_channel_output_state_config:0000000000000000 .L0 
C:\Users\stapi\AppData\Local\Temp\ccmnwr16.s:1924   .text.timer_channel_output_state_config:0000000000000000 .L0 
C:\Users\stapi\AppData\Local\Temp\ccmnwr16.s:1929   .text.timer_channel_output_state_config:000000000000000c .L0 
C:\Users\stapi\AppData\Local\Temp\ccmnwr16.s:1930   .text.timer_channel_output_state_config:000000000000000c .L0 
C:\Users\stapi\AppData\Local\Temp\ccmnwr16.s:1934   .text.timer_channel_output_state_config:0000000000000012 .L0 
C:\Users\stapi\AppData\Local\Temp\ccmnwr16.s:1935   .text.timer_channel_output_state_config:0000000000000012 .L0 
C:\Users\stapi\AppData\Local\Temp\ccmnwr16.s:1939   .text.timer_channel_output_state_config:0000000000000014 .L0 
C:\Users\stapi\AppData\Local\Temp\ccmnwr16.s:1942   .text.timer_channel_output_state_config:0000000000000018 .L0 
C:\Users\stapi\AppData\Local\Temp\ccmnwr16.s:1943   .text.timer_channel_output_state_config:0000000000000018 .L0 
C:\Users\stapi\AppData\Local\Temp\ccmnwr16.s:1947   .text.timer_channel_output_state_config:000000000000001a .L0 
C:\Users\stapi\AppData\Local\Temp\ccmnwr16.s:1952   .text.timer_channel_output_state_config:0000000000000022 .L0 
C:\Users\stapi\AppData\Local\Temp\ccmnwr16.s:1953   .text.timer_channel_output_state_config:0000000000000022 .L0 
C:\Users\stapi\AppData\Local\Temp\ccmnwr16.s:1955   .text.timer_channel_output_state_config:0000000000000024 .L0 
C:\Users\stapi\AppData\Local\Temp\ccmnwr16.s:1958   .text.timer_channel_output_state_config:0000000000000026 .L0 
C:\Users\stapi\AppData\Local\Temp\ccmnwr16.s:1961   .text.timer_channel_output_state_config:000000000000002a .L0 
C:\Users\stapi\AppData\Local\Temp\ccmnwr16.s:1962   .text.timer_channel_output_state_config:000000000000002a .L0 
C:\Users\stapi\AppData\Local\Temp\ccmnwr16.s:1967   .text.timer_channel_output_state_config:000000000000002e .L0 
C:\Users\stapi\AppData\Local\Temp\ccmnwr16.s:1968   .text.timer_channel_output_state_config:000000000000002e .L0 
C:\Users\stapi\AppData\Local\Temp\ccmnwr16.s:1970   .text.timer_channel_output_state_config:0000000000000030 .L0 
C:\Users\stapi\AppData\Local\Temp\ccmnwr16.s:1973   .text.timer_channel_output_state_config:0000000000000032 .L0 
C:\Users\stapi\AppData\Local\Temp\ccmnwr16.s:1976   .text.timer_channel_output_state_config:0000000000000038 .L0 
C:\Users\stapi\AppData\Local\Temp\ccmnwr16.s:1977   .text.timer_channel_output_state_config:0000000000000038 .L0 
C:\Users\stapi\AppData\Local\Temp\ccmnwr16.s:1982   .text.timer_channel_output_state_config:000000000000003c .L0 
C:\Users\stapi\AppData\Local\Temp\ccmnwr16.s:1983   .text.timer_channel_output_state_config:000000000000003c .L0 
C:\Users\stapi\AppData\Local\Temp\ccmnwr16.s:1985   .text.timer_channel_output_state_config:000000000000003e .L0 
C:\Users\stapi\AppData\Local\Temp\ccmnwr16.s:1988   .text.timer_channel_output_state_config:0000000000000040 .L0 
C:\Users\stapi\AppData\Local\Temp\ccmnwr16.s:1991   .text.timer_channel_output_state_config:0000000000000046 .L0 
C:\Users\stapi\AppData\Local\Temp\ccmnwr16.s:1992   .text.timer_channel_output_state_config:0000000000000046 .L0 
C:\Users\stapi\AppData\Local\Temp\ccmnwr16.s:1994   .text.timer_channel_output_state_config:000000000000004a .L0 
C:\Users\stapi\AppData\Local\Temp\ccmnwr16.s:2001   .text.timer_channel_complementary_output_state_config:0000000000000000 timer_channel_complementary_output_state_config
C:\Users\stapi\AppData\Local\Temp\ccmnwr16.s:2004   .text.timer_channel_complementary_output_state_config:0000000000000000 .L0 
C:\Users\stapi\AppData\Local\Temp\ccmnwr16.s:2006   .text.timer_channel_complementary_output_state_config:0000000000000000 .L0 
C:\Users\stapi\AppData\Local\Temp\ccmnwr16.s:2007   .text.timer_channel_complementary_output_state_config:0000000000000000 .L0 
C:\Users\stapi\AppData\Local\Temp\ccmnwr16.s:2013   .text.timer_channel_complementary_output_state_config:000000000000000e .L0 
C:\Users\stapi\AppData\Local\Temp\ccmnwr16.s:2014   .text.timer_channel_complementary_output_state_config:000000000000000e .L0 
C:\Users\stapi\AppData\Local\Temp\ccmnwr16.s:2018   .text.timer_channel_complementary_output_state_config:0000000000000014 .L0 
C:\Users\stapi\AppData\Local\Temp\ccmnwr16.s:2019   .text.timer_channel_complementary_output_state_config:0000000000000014 .L0 
C:\Users\stapi\AppData\Local\Temp\ccmnwr16.s:2023   .text.timer_channel_complementary_output_state_config:0000000000000016 .L0 
C:\Users\stapi\AppData\Local\Temp\ccmnwr16.s:2027   .text.timer_channel_complementary_output_state_config:000000000000001a .L0 
C:\Users\stapi\AppData\Local\Temp\ccmnwr16.s:2028   .text.timer_channel_complementary_output_state_config:000000000000001a .L0 
C:\Users\stapi\AppData\Local\Temp\ccmnwr16.s:2032   .text.timer_channel_complementary_output_state_config:000000000000001c .L0 
C:\Users\stapi\AppData\Local\Temp\ccmnwr16.s:2033   .text.timer_channel_complementary_output_state_config:000000000000001c .L0 
C:\Users\stapi\AppData\Local\Temp\ccmnwr16.s:2035   .text.timer_channel_complementary_output_state_config:000000000000001e .L0 
C:\Users\stapi\AppData\Local\Temp\ccmnwr16.s:2038   .text.timer_channel_complementary_output_state_config:0000000000000020 .L0 
C:\Users\stapi\AppData\Local\Temp\ccmnwr16.s:2041   .text.timer_channel_complementary_output_state_config:0000000000000026 .L0 
C:\Users\stapi\AppData\Local\Temp\ccmnwr16.s:2042   .text.timer_channel_complementary_output_state_config:0000000000000026 .L0 
C:\Users\stapi\AppData\Local\Temp\ccmnwr16.s:2047   .text.timer_channel_complementary_output_state_config:000000000000002a .L0 
C:\Users\stapi\AppData\Local\Temp\ccmnwr16.s:2048   .text.timer_channel_complementary_output_state_config:000000000000002a .L0 
C:\Users\stapi\AppData\Local\Temp\ccmnwr16.s:2050   .text.timer_channel_complementary_output_state_config:000000000000002c .L0 
C:\Users\stapi\AppData\Local\Temp\ccmnwr16.s:2053   .text.timer_channel_complementary_output_state_config:000000000000002e .L0 
C:\Users\stapi\AppData\Local\Temp\ccmnwr16.s:2056   .text.timer_channel_complementary_output_state_config:0000000000000034 .L0 
C:\Users\stapi\AppData\Local\Temp\ccmnwr16.s:2057   .text.timer_channel_complementary_output_state_config:0000000000000034 .L0 
C:\Users\stapi\AppData\Local\Temp\ccmnwr16.s:2059   .text.timer_channel_complementary_output_state_config:0000000000000038 .L0 
C:\Users\stapi\AppData\Local\Temp\ccmnwr16.s:2066   .text.timer_channel_input_struct_para_init:0000000000000000 timer_channel_input_struct_para_init
C:\Users\stapi\AppData\Local\Temp\ccmnwr16.s:2069   .text.timer_channel_input_struct_para_init:0000000000000000 .L0 
C:\Users\stapi\AppData\Local\Temp\ccmnwr16.s:2071   .text.timer_channel_input_struct_para_init:0000000000000000 .L0 
C:\Users\stapi\AppData\Local\Temp\ccmnwr16.s:2072   .text.timer_channel_input_struct_para_init:0000000000000000 .L0 
C:\Users\stapi\AppData\Local\Temp\ccmnwr16.s:2073   .text.timer_channel_input_struct_para_init:0000000000000000 .L0 
C:\Users\stapi\AppData\Local\Temp\ccmnwr16.s:2075   .text.timer_channel_input_struct_para_init:0000000000000002 .L0 
C:\Users\stapi\AppData\Local\Temp\ccmnwr16.s:2077   .text.timer_channel_input_struct_para_init:0000000000000006 .L0 
C:\Users\stapi\AppData\Local\Temp\ccmnwr16.s:2078   .text.timer_channel_input_struct_para_init:0000000000000006 .L0 
C:\Users\stapi\AppData\Local\Temp\ccmnwr16.s:2080   .text.timer_channel_input_struct_para_init:000000000000000a .L0 
C:\Users\stapi\AppData\Local\Temp\ccmnwr16.s:2081   .text.timer_channel_input_struct_para_init:000000000000000a .L0 
C:\Users\stapi\AppData\Local\Temp\ccmnwr16.s:2083   .text.timer_channel_input_struct_para_init:000000000000000e .L0 
C:\Users\stapi\AppData\Local\Temp\ccmnwr16.s:2084   .text.timer_channel_input_struct_para_init:000000000000000e .L0 
C:\Users\stapi\AppData\Local\Temp\ccmnwr16.s:2086   .text.timer_channel_input_struct_para_init:0000000000000012 .L0 
C:\Users\stapi\AppData\Local\Temp\ccmnwr16.s:2087   .text.timer_channel_input_struct_para_init:0000000000000014 .L0 
C:\Users\stapi\AppData\Local\Temp\ccmnwr16.s:2094   .text.timer_channel_input_capture_prescaler_config:0000000000000000 timer_channel_input_capture_prescaler_config
C:\Users\stapi\AppData\Local\Temp\ccmnwr16.s:2097   .text.timer_channel_input_capture_prescaler_config:0000000000000000 .L0 
C:\Users\stapi\AppData\Local\Temp\ccmnwr16.s:2099   .text.timer_channel_input_capture_prescaler_config:0000000000000000 .L0 
C:\Users\stapi\AppData\Local\Temp\ccmnwr16.s:2100   .text.timer_channel_input_capture_prescaler_config:0000000000000000 .L0 
C:\Users\stapi\AppData\Local\Temp\ccmnwr16.s:2105   .text.timer_channel_input_capture_prescaler_config:000000000000000c .L0 
C:\Users\stapi\AppData\Local\Temp\ccmnwr16.s:2106   .text.timer_channel_input_capture_prescaler_config:000000000000000c .L0 
C:\Users\stapi\AppData\Local\Temp\ccmnwr16.s:2110   .text.timer_channel_input_capture_prescaler_config:0000000000000012 .L0 
C:\Users\stapi\AppData\Local\Temp\ccmnwr16.s:2111   .text.timer_channel_input_capture_prescaler_config:0000000000000012 .L0 
C:\Users\stapi\AppData\Local\Temp\ccmnwr16.s:2115   .text.timer_channel_input_capture_prescaler_config:0000000000000014 .L0 
C:\Users\stapi\AppData\Local\Temp\ccmnwr16.s:2118   .text.timer_channel_input_capture_prescaler_config:0000000000000018 .L0 
C:\Users\stapi\AppData\Local\Temp\ccmnwr16.s:2122   .text.timer_channel_input_capture_prescaler_config:000000000000001a .L0 
C:\Users\stapi\AppData\Local\Temp\ccmnwr16.s:2127   .text.timer_channel_input_capture_prescaler_config:0000000000000022 .L0 
C:\Users\stapi\AppData\Local\Temp\ccmnwr16.s:2128   .text.timer_channel_input_capture_prescaler_config:0000000000000022 .L0 
C:\Users\stapi\AppData\Local\Temp\ccmnwr16.s:2134   .text.timer_channel_input_capture_prescaler_config:000000000000002e .L0 
C:\Users\stapi\AppData\Local\Temp\ccmnwr16.s:2135   .text.timer_channel_input_capture_prescaler_config:000000000000002e .L0 
C:\Users\stapi\AppData\Local\Temp\ccmnwr16.s:2137   .text.timer_channel_input_capture_prescaler_config:0000000000000030 .L0 
C:\Users\stapi\AppData\Local\Temp\ccmnwr16.s:2143   .text.timer_channel_input_capture_prescaler_config:0000000000000034 .L0 
C:\Users\stapi\AppData\Local\Temp\ccmnwr16.s:2144   .text.timer_channel_input_capture_prescaler_config:0000000000000034 .L0 
C:\Users\stapi\AppData\Local\Temp\ccmnwr16.s:2148   .text.timer_channel_input_capture_prescaler_config:000000000000003a .L0 
C:\Users\stapi\AppData\Local\Temp\ccmnwr16.s:2149   .text.timer_channel_input_capture_prescaler_config:000000000000003a .L0 
C:\Users\stapi\AppData\Local\Temp\ccmnwr16.s:2153   .text.timer_channel_input_capture_prescaler_config:000000000000003c .L0 
C:\Users\stapi\AppData\Local\Temp\ccmnwr16.s:2156   .text.timer_channel_input_capture_prescaler_config:0000000000000040 .L0 
C:\Users\stapi\AppData\Local\Temp\ccmnwr16.s:2157   .text.timer_channel_input_capture_prescaler_config:0000000000000040 .L0 
C:\Users\stapi\AppData\Local\Temp\ccmnwr16.s:2161   .text.timer_channel_input_capture_prescaler_config:0000000000000042 .L0 
C:\Users\stapi\AppData\Local\Temp\ccmnwr16.s:2162   .text.timer_channel_input_capture_prescaler_config:0000000000000042 .L0 
C:\Users\stapi\AppData\Local\Temp\ccmnwr16.s:2168   .text.timer_channel_input_capture_prescaler_config:000000000000004e .L0 
C:\Users\stapi\AppData\Local\Temp\ccmnwr16.s:2169   .text.timer_channel_input_capture_prescaler_config:000000000000004e .L0 
C:\Users\stapi\AppData\Local\Temp\ccmnwr16.s:2171   .text.timer_channel_input_capture_prescaler_config:0000000000000050 .L0 
C:\Users\stapi\AppData\Local\Temp\ccmnwr16.s:2174   .text.timer_channel_input_capture_prescaler_config:0000000000000054 .L0 
C:\Users\stapi\AppData\Local\Temp\ccmnwr16.s:2181   .text.timer_input_capture_config:0000000000000000 timer_input_capture_config
C:\Users\stapi\AppData\Local\Temp\ccmnwr16.s:2184   .text.timer_input_capture_config:0000000000000000 .L0 
C:\Users\stapi\AppData\Local\Temp\ccmnwr16.s:2186   .text.timer_input_capture_config:0000000000000000 .L0 
C:\Users\stapi\AppData\Local\Temp\ccmnwr16.s:2187   .text.timer_input_capture_config:0000000000000000 .L0 
C:\Users\stapi\AppData\Local\Temp\ccmnwr16.s:2195   .text.timer_input_capture_config:0000000000000018 .L0 
C:\Users\stapi\AppData\Local\Temp\ccmnwr16.s:2196   .text.timer_input_capture_config:0000000000000018 .L0 
C:\Users\stapi\AppData\Local\Temp\ccmnwr16.s:2198   .text.timer_input_capture_config:000000000000001c .L0 
C:\Users\stapi\AppData\Local\Temp\ccmnwr16.s:2200   .text.timer_input_capture_config:000000000000001e .L0 
C:\Users\stapi\AppData\Local\Temp\ccmnwr16.s:2203   .text.timer_input_capture_config:0000000000000026 .L0 
C:\Users\stapi\AppData\Local\Temp\ccmnwr16.s:2204   .text.timer_input_capture_config:0000000000000026 .L0 
C:\Users\stapi\AppData\Local\Temp\ccmnwr16.s:2208   .text.timer_input_capture_config:0000000000000032 .L0 
C:\Users\stapi\AppData\Local\Temp\ccmnwr16.s:2209   .text.timer_input_capture_config:0000000000000032 .L0 
C:\Users\stapi\AppData\Local\Temp\ccmnwr16.s:2213   .text.timer_input_capture_config:000000000000003c .L0 
C:\Users\stapi\AppData\Local\Temp\ccmnwr16.s:2214   .text.timer_input_capture_config:000000000000003c .L0 
C:\Users\stapi\AppData\Local\Temp\ccmnwr16.s:2218   .text.timer_input_capture_config:0000000000000042 .L0 
C:\Users\stapi\AppData\Local\Temp\ccmnwr16.s:2219   .text.timer_input_capture_config:0000000000000042 .L0 
C:\Users\stapi\AppData\Local\Temp\ccmnwr16.s:2223   .text.timer_input_capture_config:0000000000000048 .L0 
C:\Users\stapi\AppData\Local\Temp\ccmnwr16.s:2224   .text.timer_input_capture_config:0000000000000048 .L0 
C:\Users\stapi\AppData\Local\Temp\ccmnwr16.s:2228   .text.timer_input_capture_config:0000000000000050 .L0 
C:\Users\stapi\AppData\Local\Temp\ccmnwr16.s:2229   .text.timer_input_capture_config:0000000000000050 .L0 
C:\Users\stapi\AppData\Local\Temp\ccmnwr16.s:2233   .text.timer_input_capture_config:0000000000000056 .L0 
C:\Users\stapi\AppData\Local\Temp\ccmnwr16.s:2234   .text.timer_input_capture_config:0000000000000056 .L0 
C:\Users\stapi\AppData\Local\Temp\ccmnwr16.s:2238   .text.timer_input_capture_config:000000000000005c .L0 
C:\Users\stapi\AppData\Local\Temp\ccmnwr16.s:2240   .text.timer_input_capture_config:000000000000005e .L0 
C:\Users\stapi\AppData\Local\Temp\ccmnwr16.s:2243   .text.timer_input_capture_config:0000000000000060 .L0 
C:\Users\stapi\AppData\Local\Temp\ccmnwr16.s:2247   .text.timer_input_capture_config:0000000000000066 .L0 
C:\Users\stapi\AppData\Local\Temp\ccmnwr16.s:2253   .text.timer_input_capture_config:0000000000000072 .L0 
C:\Users\stapi\AppData\Local\Temp\ccmnwr16.s:2254   .text.timer_input_capture_config:0000000000000072 .L0 
C:\Users\stapi\AppData\Local\Temp\ccmnwr16.s:2256   .text.timer_input_capture_config:0000000000000076 .L0 
C:\Users\stapi\AppData\Local\Temp\ccmnwr16.s:2258   .text.timer_input_capture_config:0000000000000078 .L0 
C:\Users\stapi\AppData\Local\Temp\ccmnwr16.s:2260   .text.timer_input_capture_config:000000000000007a .L0 
C:\Users\stapi\AppData\Local\Temp\ccmnwr16.s:2263   .text.timer_input_capture_config:0000000000000082 .L0 
C:\Users\stapi\AppData\Local\Temp\ccmnwr16.s:2264   .text.timer_input_capture_config:0000000000000082 .L0 
C:\Users\stapi\AppData\Local\Temp\ccmnwr16.s:2266   .text.timer_input_capture_config:0000000000000086 .L0 
C:\Users\stapi\AppData\Local\Temp\ccmnwr16.s:2268   .text.timer_input_capture_config:0000000000000088 .L0 
C:\Users\stapi\AppData\Local\Temp\ccmnwr16.s:2271   .text.timer_input_capture_config:0000000000000090 .L0 
C:\Users\stapi\AppData\Local\Temp\ccmnwr16.s:2272   .text.timer_input_capture_config:0000000000000090 .L0 
C:\Users\stapi\AppData\Local\Temp\ccmnwr16.s:2276   .text.timer_input_capture_config:000000000000009a .L0 
C:\Users\stapi\AppData\Local\Temp\ccmnwr16.s:2277   .text.timer_input_capture_config:000000000000009a .L0 
C:\Users\stapi\AppData\Local\Temp\ccmnwr16.s:2281   .text.timer_input_capture_config:00000000000000a2 .L0 
C:\Users\stapi\AppData\Local\Temp\ccmnwr16.s:2282   .text.timer_input_capture_config:00000000000000a2 .L0 
C:\Users\stapi\AppData\Local\Temp\ccmnwr16.s:2286   .text.timer_input_capture_config:00000000000000a8 .L0 
C:\Users\stapi\AppData\Local\Temp\ccmnwr16.s:2287   .text.timer_input_capture_config:00000000000000a8 .L0 
C:\Users\stapi\AppData\Local\Temp\ccmnwr16.s:2293   .text.timer_input_capture_config:00000000000000b2 .L0 
C:\Users\stapi\AppData\Local\Temp\ccmnwr16.s:2294   .text.timer_input_capture_config:00000000000000b2 .L0 
C:\Users\stapi\AppData\Local\Temp\ccmnwr16.s:2298   .text.timer_input_capture_config:00000000000000b8 .L0 
C:\Users\stapi\AppData\Local\Temp\ccmnwr16.s:2299   .text.timer_input_capture_config:00000000000000b8 .L0 
C:\Users\stapi\AppData\Local\Temp\ccmnwr16.s:2304   .text.timer_input_capture_config:00000000000000c0 .L0 
C:\Users\stapi\AppData\Local\Temp\ccmnwr16.s:2305   .text.timer_input_capture_config:00000000000000c0 .L0 
C:\Users\stapi\AppData\Local\Temp\ccmnwr16.s:2307   .text.timer_input_capture_config:00000000000000c2 .L0 
C:\Users\stapi\AppData\Local\Temp\ccmnwr16.s:2310   .text.timer_input_capture_config:00000000000000c8 .L0 
C:\Users\stapi\AppData\Local\Temp\ccmnwr16.s:2313   .text.timer_input_capture_config:00000000000000ce .L0 
C:\Users\stapi\AppData\Local\Temp\ccmnwr16.s:2314   .text.timer_input_capture_config:00000000000000ce .L0 
C:\Users\stapi\AppData\Local\Temp\ccmnwr16.s:2318   .text.timer_input_capture_config:00000000000000d4 .L0 
C:\Users\stapi\AppData\Local\Temp\ccmnwr16.s:2319   .text.timer_input_capture_config:00000000000000d4 .L0 
C:\Users\stapi\AppData\Local\Temp\ccmnwr16.s:2321   .text.timer_input_capture_config:00000000000000d8 .L0 
C:\Users\stapi\AppData\Local\Temp\ccmnwr16.s:2323   .text.timer_input_capture_config:00000000000000da .L0 
C:\Users\stapi\AppData\Local\Temp\ccmnwr16.s:2325   .text.timer_input_capture_config:00000000000000dc .L0 
C:\Users\stapi\AppData\Local\Temp\ccmnwr16.s:2328   .text.timer_input_capture_config:00000000000000e0 .L0 
C:\Users\stapi\AppData\Local\Temp\ccmnwr16.s:2329   .text.timer_input_capture_config:00000000000000e0 .L0 
C:\Users\stapi\AppData\Local\Temp\ccmnwr16.s:2333   .text.timer_input_capture_config:00000000000000e6 .L0 
C:\Users\stapi\AppData\Local\Temp\ccmnwr16.s:2334   .text.timer_input_capture_config:00000000000000e6 .L0 
C:\Users\stapi\AppData\Local\Temp\ccmnwr16.s:2336   .text.timer_input_capture_config:00000000000000e8 .L0 
C:\Users\stapi\AppData\Local\Temp\ccmnwr16.s:2338   .text.timer_input_capture_config:00000000000000ec .L0 
C:\Users\stapi\AppData\Local\Temp\ccmnwr16.s:2341   .text.timer_input_capture_config:00000000000000f0 .L0 
C:\Users\stapi\AppData\Local\Temp\ccmnwr16.s:2342   .text.timer_input_capture_config:00000000000000f0 .L0 
C:\Users\stapi\AppData\Local\Temp\ccmnwr16.s:2346   .text.timer_input_capture_config:00000000000000f8 .L0 
C:\Users\stapi\AppData\Local\Temp\ccmnwr16.s:2347   .text.timer_input_capture_config:00000000000000f8 .L0 
C:\Users\stapi\AppData\Local\Temp\ccmnwr16.s:2349   .text.timer_input_capture_config:00000000000000fc .L0 
C:\Users\stapi\AppData\Local\Temp\ccmnwr16.s:2351   .text.timer_input_capture_config:00000000000000fe .L0 
C:\Users\stapi\AppData\Local\Temp\ccmnwr16.s:2353   .text.timer_input_capture_config:0000000000000100 .L0 
C:\Users\stapi\AppData\Local\Temp\ccmnwr16.s:2356   .text.timer_input_capture_config:0000000000000104 .L0 
C:\Users\stapi\AppData\Local\Temp\ccmnwr16.s:2357   .text.timer_input_capture_config:0000000000000104 .L0 
C:\Users\stapi\AppData\Local\Temp\ccmnwr16.s:2362   .text.timer_input_capture_config:000000000000010c .L0 
C:\Users\stapi\AppData\Local\Temp\ccmnwr16.s:2363   .text.timer_input_capture_config:000000000000010c .L0 
C:\Users\stapi\AppData\Local\Temp\ccmnwr16.s:2365   .text.timer_input_capture_config:000000000000010e .L0 
C:\Users\stapi\AppData\Local\Temp\ccmnwr16.s:2368   .text.timer_input_capture_config:0000000000000112 .L0 
C:\Users\stapi\AppData\Local\Temp\ccmnwr16.s:2371   .text.timer_input_capture_config:0000000000000118 .L0 
C:\Users\stapi\AppData\Local\Temp\ccmnwr16.s:2372   .text.timer_input_capture_config:0000000000000118 .L0 
C:\Users\stapi\AppData\Local\Temp\ccmnwr16.s:2376   .text.timer_input_capture_config:000000000000011e .L0 
C:\Users\stapi\AppData\Local\Temp\ccmnwr16.s:2377   .text.timer_input_capture_config:000000000000011e .L0 
C:\Users\stapi\AppData\Local\Temp\ccmnwr16.s:2379   .text.timer_input_capture_config:0000000000000122 .L0 
C:\Users\stapi\AppData\Local\Temp\ccmnwr16.s:2381   .text.timer_input_capture_config:0000000000000124 .L0 
C:\Users\stapi\AppData\Local\Temp\ccmnwr16.s:2383   .text.timer_input_capture_config:0000000000000126 .L0 
C:\Users\stapi\AppData\Local\Temp\ccmnwr16.s:2386   .text.timer_input_capture_config:000000000000012a .L0 
C:\Users\stapi\AppData\Local\Temp\ccmnwr16.s:2387   .text.timer_input_capture_config:000000000000012a .L0 
C:\Users\stapi\AppData\Local\Temp\ccmnwr16.s:2391   .text.timer_input_capture_config:0000000000000132 .L0 
C:\Users\stapi\AppData\Local\Temp\ccmnwr16.s:2392   .text.timer_input_capture_config:0000000000000132 .L0 
C:\Users\stapi\AppData\Local\Temp\ccmnwr16.s:2394   .text.timer_input_capture_config:0000000000000136 .L0 
C:\Users\stapi\AppData\Local\Temp\ccmnwr16.s:2396   .text.timer_input_capture_config:0000000000000138 .L0 
C:\Users\stapi\AppData\Local\Temp\ccmnwr16.s:2398   .text.timer_input_capture_config:000000000000013a .L0 
C:\Users\stapi\AppData\Local\Temp\ccmnwr16.s:2401   .text.timer_input_capture_config:000000000000013e .L0 
C:\Users\stapi\AppData\Local\Temp\ccmnwr16.s:2402   .text.timer_input_capture_config:000000000000013e .L0 
C:\Users\stapi\AppData\Local\Temp\ccmnwr16.s:2408   .text.timer_input_capture_config:0000000000000148 .L0 
C:\Users\stapi\AppData\Local\Temp\ccmnwr16.s:2409   .text.timer_input_capture_config:0000000000000148 .L0 
C:\Users\stapi\AppData\Local\Temp\ccmnwr16.s:2411   .text.timer_input_capture_config:000000000000014c .L0 
C:\Users\stapi\AppData\Local\Temp\ccmnwr16.s:2413   .text.timer_input_capture_config:000000000000014e .L0 
C:\Users\stapi\AppData\Local\Temp\ccmnwr16.s:2415   .text.timer_input_capture_config:0000000000000150 .L0 
C:\Users\stapi\AppData\Local\Temp\ccmnwr16.s:2418   .text.timer_input_capture_config:0000000000000154 .L0 
C:\Users\stapi\AppData\Local\Temp\ccmnwr16.s:2419   .text.timer_input_capture_config:0000000000000154 .L0 
C:\Users\stapi\AppData\Local\Temp\ccmnwr16.s:2422   .text.timer_input_capture_config:000000000000015c .L0 
C:\Users\stapi\AppData\Local\Temp\ccmnwr16.s:2429   .text.timer_channel_capture_value_register_read:0000000000000000 timer_channel_capture_value_register_read
C:\Users\stapi\AppData\Local\Temp\ccmnwr16.s:2432   .text.timer_channel_capture_value_register_read:0000000000000000 .L0 
C:\Users\stapi\AppData\Local\Temp\ccmnwr16.s:2434   .text.timer_channel_capture_value_register_read:0000000000000000 .L0 
C:\Users\stapi\AppData\Local\Temp\ccmnwr16.s:2435   .text.timer_channel_capture_value_register_read:0000000000000000 .L0 
C:\Users\stapi\AppData\Local\Temp\ccmnwr16.s:2436   .text.timer_channel_capture_value_register_read:0000000000000000 .L0 
C:\Users\stapi\AppData\Local\Temp\ccmnwr16.s:2441   .text.timer_channel_capture_value_register_read:000000000000000c .L0 
C:\Users\stapi\AppData\Local\Temp\ccmnwr16.s:2442   .text.timer_channel_capture_value_register_read:000000000000000c .L0 
C:\Users\stapi\AppData\Local\Temp\ccmnwr16.s:2445   .text.timer_channel_capture_value_register_read:000000000000000e .L0 
C:\Users\stapi\AppData\Local\Temp\ccmnwr16.s:2449   .text.timer_channel_capture_value_register_read:0000000000000010 .L0 
C:\Users\stapi\AppData\Local\Temp\ccmnwr16.s:2457   .text.timer_channel_capture_value_register_read:000000000000001a .L0 
C:\Users\stapi\AppData\Local\Temp\ccmnwr16.s:2458   .text.timer_channel_capture_value_register_read:000000000000001a .L0 
C:\Users\stapi\AppData\Local\Temp\ccmnwr16.s:2461   .text.timer_channel_capture_value_register_read:000000000000001c .L0 
C:\Users\stapi\AppData\Local\Temp\ccmnwr16.s:2465   .text.timer_channel_capture_value_register_read:000000000000001e .L0 
C:\Users\stapi\AppData\Local\Temp\ccmnwr16.s:2466   .text.timer_channel_capture_value_register_read:000000000000001e .L0 
C:\Users\stapi\AppData\Local\Temp\ccmnwr16.s:2469   .text.timer_channel_capture_value_register_read:0000000000000020 .L0 
C:\Users\stapi\AppData\Local\Temp\ccmnwr16.s:2473   .text.timer_channel_capture_value_register_read:0000000000000022 .L0 
C:\Users\stapi\AppData\Local\Temp\ccmnwr16.s:2474   .text.timer_channel_capture_value_register_read:0000000000000022 .L0 
C:\Users\stapi\AppData\Local\Temp\ccmnwr16.s:2477   .text.timer_channel_capture_value_register_read:0000000000000024 .L0 
C:\Users\stapi\AppData\Local\Temp\ccmnwr16.s:2478   .text.timer_channel_capture_value_register_read:0000000000000024 .L0 
C:\Users\stapi\AppData\Local\Temp\ccmnwr16.s:2479   .text.timer_channel_capture_value_register_read:0000000000000024 .L0 
C:\Users\stapi\AppData\Local\Temp\ccmnwr16.s:2480   .text.timer_channel_capture_value_register_read:0000000000000026 .L0 
C:\Users\stapi\AppData\Local\Temp\ccmnwr16.s:2487   .text.timer_input_pwm_capture_config:0000000000000000 timer_input_pwm_capture_config
C:\Users\stapi\AppData\Local\Temp\ccmnwr16.s:2490   .text.timer_input_pwm_capture_config:0000000000000000 .L0 
C:\Users\stapi\AppData\Local\Temp\ccmnwr16.s:2492   .text.timer_input_pwm_capture_config:0000000000000000 .L0 
C:\Users\stapi\AppData\Local\Temp\ccmnwr16.s:2493   .text.timer_input_pwm_capture_config:0000000000000008 .L0 
C:\Users\stapi\AppData\Local\Temp\ccmnwr16.s:2494   .text.timer_input_pwm_capture_config:0000000000000008 .L0 
C:\Users\stapi\AppData\Local\Temp\ccmnwr16.s:2495   .text.timer_input_pwm_capture_config:0000000000000008 .L0 
C:\Users\stapi\AppData\Local\Temp\ccmnwr16.s:2496   .text.timer_input_pwm_capture_config:0000000000000008 .L0 
C:\Users\stapi\AppData\Local\Temp\ccmnwr16.s:2497   .text.timer_input_pwm_capture_config:0000000000000008 .L0 
C:\Users\stapi\AppData\Local\Temp\ccmnwr16.s:2500   .text.timer_input_pwm_capture_config:0000000000000008 .L0 
C:\Users\stapi\AppData\Local\Temp\ccmnwr16.s:2501   .text.timer_input_pwm_capture_config:0000000000000008 .L0 
C:\Users\stapi\AppData\Local\Temp\ccmnwr16.s:2502   .text.timer_input_pwm_capture_config:0000000000000008 .L0 
C:\Users\stapi\AppData\Local\Temp\ccmnwr16.s:2503   .text.timer_input_pwm_capture_config:0000000000000008 .L0 
C:\Users\stapi\AppData\Local\Temp\ccmnwr16.s:2505   .text.timer_input_pwm_capture_config:000000000000000c .L0 
C:\Users\stapi\AppData\Local\Temp\ccmnwr16.s:2507   .text.timer_input_pwm_capture_config:0000000000000010 .L0 
C:\Users\stapi\AppData\Local\Temp\ccmnwr16.s:2509   .text.timer_input_pwm_capture_config:0000000000000012 .L0 
C:\Users\stapi\AppData\Local\Temp\ccmnwr16.s:2511   .text.timer_input_pwm_capture_config:0000000000000016 .L0 
C:\Users\stapi\AppData\Local\Temp\ccmnwr16.s:2512   .text.timer_input_pwm_capture_config:0000000000000018 .L0 
C:\Users\stapi\AppData\Local\Temp\ccmnwr16.s:2514   .text.timer_input_pwm_capture_config:0000000000000018 .L0 
C:\Users\stapi\AppData\Local\Temp\ccmnwr16.s:2516   .text.timer_input_pwm_capture_config:000000000000001a .L0 
C:\Users\stapi\AppData\Local\Temp\ccmnwr16.s:2519   .text.timer_input_pwm_capture_config:000000000000001c .L0 
C:\Users\stapi\AppData\Local\Temp\ccmnwr16.s:2520   .text.timer_input_pwm_capture_config:000000000000001c .L0 
C:\Users\stapi\AppData\Local\Temp\ccmnwr16.s:2522   .text.timer_input_pwm_capture_config:000000000000001e .L0 
C:\Users\stapi\AppData\Local\Temp\ccmnwr16.s:2527   .text.timer_input_pwm_capture_config:0000000000000024 .L0 
C:\Users\stapi\AppData\Local\Temp\ccmnwr16.s:2528   .text.timer_input_pwm_capture_config:0000000000000024 .L0 
C:\Users\stapi\AppData\Local\Temp\ccmnwr16.s:2530   .text.timer_input_pwm_capture_config:0000000000000028 .L0 
C:\Users\stapi\AppData\Local\Temp\ccmnwr16.s:2533   .text.timer_input_pwm_capture_config:000000000000002c .L0 
C:\Users\stapi\AppData\Local\Temp\ccmnwr16.s:2535   .text.timer_input_pwm_capture_config:000000000000002e .L0 
C:\Users\stapi\AppData\Local\Temp\ccmnwr16.s:2536   .text.timer_input_pwm_capture_config:000000000000002e .L0 
C:\Users\stapi\AppData\Local\Temp\ccmnwr16.s:2539   .text.timer_input_pwm_capture_config:0000000000000030 .L0 
C:\Users\stapi\AppData\Local\Temp\ccmnwr16.s:2541   .text.timer_input_pwm_capture_config:0000000000000032 .L0 
C:\Users\stapi\AppData\Local\Temp\ccmnwr16.s:2543   .text.timer_input_pwm_capture_config:0000000000000034 .L0 
C:\Users\stapi\AppData\Local\Temp\ccmnwr16.s:2546   .text.timer_input_pwm_capture_config:0000000000000038 .L0 
C:\Users\stapi\AppData\Local\Temp\ccmnwr16.s:2547   .text.timer_input_pwm_capture_config:0000000000000038 .L0 
C:\Users\stapi\AppData\Local\Temp\ccmnwr16.s:2549   .text.timer_input_pwm_capture_config:000000000000003a .L0 
C:\Users\stapi\AppData\Local\Temp\ccmnwr16.s:2552   .text.timer_input_pwm_capture_config:000000000000003c .L0 
C:\Users\stapi\AppData\Local\Temp\ccmnwr16.s:2555   .text.timer_input_pwm_capture_config:000000000000003e .L0 
C:\Users\stapi\AppData\Local\Temp\ccmnwr16.s:2558   .text.timer_input_pwm_capture_config:0000000000000042 .L0 
C:\Users\stapi\AppData\Local\Temp\ccmnwr16.s:2559   .text.timer_input_pwm_capture_config:0000000000000042 .L0 
C:\Users\stapi\AppData\Local\Temp\ccmnwr16.s:2564   .text.timer_input_pwm_capture_config:0000000000000048 .L0 
C:\Users\stapi\AppData\Local\Temp\ccmnwr16.s:2565   .text.timer_input_pwm_capture_config:0000000000000048 .L0 
C:\Users\stapi\AppData\Local\Temp\ccmnwr16.s:2567   .text.timer_input_pwm_capture_config:000000000000004a .L0 
C:\Users\stapi\AppData\Local\Temp\ccmnwr16.s:2569   .text.timer_input_pwm_capture_config:000000000000004c .L0 
C:\Users\stapi\AppData\Local\Temp\ccmnwr16.s:2572   .text.timer_input_pwm_capture_config:0000000000000050 .L0 
C:\Users\stapi\AppData\Local\Temp\ccmnwr16.s:2573   .text.timer_input_pwm_capture_config:0000000000000050 .L0 
C:\Users\stapi\AppData\Local\Temp\ccmnwr16.s:2577   .text.timer_input_pwm_capture_config:0000000000000056 .L0 
C:\Users\stapi\AppData\Local\Temp\ccmnwr16.s:2578   .text.timer_input_pwm_capture_config:0000000000000056 .L0 
C:\Users\stapi\AppData\Local\Temp\ccmnwr16.s:2582   .text.timer_input_pwm_capture_config:000000000000005e .L0 
C:\Users\stapi\AppData\Local\Temp\ccmnwr16.s:2583   .text.timer_input_pwm_capture_config:000000000000005e .L0 
C:\Users\stapi\AppData\Local\Temp\ccmnwr16.s:2587   .text.timer_input_pwm_capture_config:0000000000000064 .L0 
C:\Users\stapi\AppData\Local\Temp\ccmnwr16.s:2588   .text.timer_input_pwm_capture_config:0000000000000064 .L0 
C:\Users\stapi\AppData\Local\Temp\ccmnwr16.s:2592   .text.timer_input_pwm_capture_config:000000000000006c .L0 
C:\Users\stapi\AppData\Local\Temp\ccmnwr16.s:2595   .text.timer_input_pwm_capture_config:0000000000000074 .L0 
C:\Users\stapi\AppData\Local\Temp\ccmnwr16.s:2596   .text.timer_input_pwm_capture_config:0000000000000074 .L0 
C:\Users\stapi\AppData\Local\Temp\ccmnwr16.s:2598   .text.timer_input_pwm_capture_config:0000000000000076 .L0 
C:\Users\stapi\AppData\Local\Temp\ccmnwr16.s:2601   .text.timer_input_pwm_capture_config:000000000000007a .L0 
C:\Users\stapi\AppData\Local\Temp\ccmnwr16.s:2603   .text.timer_input_pwm_capture_config:000000000000007c .L0 
C:\Users\stapi\AppData\Local\Temp\ccmnwr16.s:2606   .text.timer_input_pwm_capture_config:0000000000000082 .L0 
C:\Users\stapi\AppData\Local\Temp\ccmnwr16.s:2609   .text.timer_input_pwm_capture_config:0000000000000086 .L0 
C:\Users\stapi\AppData\Local\Temp\ccmnwr16.s:2610   .text.timer_input_pwm_capture_config:0000000000000086 .L0 
C:\Users\stapi\AppData\Local\Temp\ccmnwr16.s:2614   .text.timer_input_pwm_capture_config:000000000000008e .L0 
C:\Users\stapi\AppData\Local\Temp\ccmnwr16.s:2615   .text.timer_input_pwm_capture_config:000000000000008e .L0 
C:\Users\stapi\AppData\Local\Temp\ccmnwr16.s:2619   .text.timer_input_pwm_capture_config:0000000000000094 .L0 
C:\Users\stapi\AppData\Local\Temp\ccmnwr16.s:2620   .text.timer_input_pwm_capture_config:0000000000000094 .L0 
C:\Users\stapi\AppData\Local\Temp\ccmnwr16.s:2624   .text.timer_input_pwm_capture_config:000000000000009c .L0 
C:\Users\stapi\AppData\Local\Temp\ccmnwr16.s:2625   .text.timer_input_pwm_capture_config:000000000000009c .L0 
C:\Users\stapi\AppData\Local\Temp\ccmnwr16.s:2629   .text.timer_input_pwm_capture_config:00000000000000a6 .L0 
C:\Users\stapi\AppData\Local\Temp\ccmnwr16.s:2630   .text.timer_input_pwm_capture_config:00000000000000a6 .L0 
C:\Users\stapi\AppData\Local\Temp\ccmnwr16.s:2634   .text.timer_input_pwm_capture_config:00000000000000ac .L0 
C:\Users\stapi\AppData\Local\Temp\ccmnwr16.s:2635   .text.timer_input_pwm_capture_config:00000000000000ac .L0 
C:\Users\stapi\AppData\Local\Temp\ccmnwr16.s:2637   .text.timer_input_pwm_capture_config:00000000000000b0 .L0 
C:\Users\stapi\AppData\Local\Temp\ccmnwr16.s:2639   .text.timer_input_pwm_capture_config:00000000000000b2 .L0 
C:\Users\stapi\AppData\Local\Temp\ccmnwr16.s:2641   .text.timer_input_pwm_capture_config:00000000000000b4 .L0 
C:\Users\stapi\AppData\Local\Temp\ccmnwr16.s:2644   .text.timer_input_pwm_capture_config:00000000000000b8 .L0 
C:\Users\stapi\AppData\Local\Temp\ccmnwr16.s:2645   .text.timer_input_pwm_capture_config:00000000000000b8 .L0 
C:\Users\stapi\AppData\Local\Temp\ccmnwr16.s:2650   .text.timer_input_pwm_capture_config:00000000000000c0 .L0 
C:\Users\stapi\AppData\Local\Temp\ccmnwr16.s:2651   .text.timer_input_pwm_capture_config:00000000000000c0 .L0 
C:\Users\stapi\AppData\Local\Temp\ccmnwr16.s:2654   .text.timer_input_pwm_capture_config:00000000000000c8 .L0 
C:\Users\stapi\AppData\Local\Temp\ccmnwr16.s:2655   .text.timer_input_pwm_capture_config:00000000000000ca .L0 
C:\Users\stapi\AppData\Local\Temp\ccmnwr16.s:2656   .text.timer_input_pwm_capture_config:00000000000000ca .L0 
C:\Users\stapi\AppData\Local\Temp\ccmnwr16.s:2659   .text.timer_input_pwm_capture_config:00000000000000d2 .L0 
C:\Users\stapi\AppData\Local\Temp\ccmnwr16.s:2660   .text.timer_input_pwm_capture_config:00000000000000d2 .L0 
C:\Users\stapi\AppData\Local\Temp\ccmnwr16.s:2661   .text.timer_input_pwm_capture_config:00000000000000d2 .L0 
C:\Users\stapi\AppData\Local\Temp\ccmnwr16.s:2662   .text.timer_input_pwm_capture_config:00000000000000d2 .L0 
C:\Users\stapi\AppData\Local\Temp\ccmnwr16.s:2663   .text.timer_input_pwm_capture_config:00000000000000d2 .L0 
C:\Users\stapi\AppData\Local\Temp\ccmnwr16.s:2666   .text.timer_input_pwm_capture_config:00000000000000d2 .L0 
C:\Users\stapi\AppData\Local\Temp\ccmnwr16.s:2668   .text.timer_input_pwm_capture_config:00000000000000d2 .L0 
C:\Users\stapi\AppData\Local\Temp\ccmnwr16.s:2669   .text.timer_input_pwm_capture_config:00000000000000d2 .L0 
C:\Users\stapi\AppData\Local\Temp\ccmnwr16.s:2672   .text.timer_input_pwm_capture_config:00000000000000d4 .L0 
C:\Users\stapi\AppData\Local\Temp\ccmnwr16.s:2674   .text.timer_input_pwm_capture_config:00000000000000d6 .L0 
C:\Users\stapi\AppData\Local\Temp\ccmnwr16.s:2676   .text.timer_input_pwm_capture_config:00000000000000d8 .L0 
C:\Users\stapi\AppData\Local\Temp\ccmnwr16.s:2679   .text.timer_input_pwm_capture_config:00000000000000dc .L0 
C:\Users\stapi\AppData\Local\Temp\ccmnwr16.s:2680   .text.timer_input_pwm_capture_config:00000000000000dc .L0 
C:\Users\stapi\AppData\Local\Temp\ccmnwr16.s:2682   .text.timer_input_pwm_capture_config:00000000000000de .L0 
C:\Users\stapi\AppData\Local\Temp\ccmnwr16.s:2684   .text.timer_input_pwm_capture_config:00000000000000e0 .L0 
C:\Users\stapi\AppData\Local\Temp\ccmnwr16.s:2686   .text.timer_input_pwm_capture_config:00000000000000e2 .L0 
C:\Users\stapi\AppData\Local\Temp\ccmnwr16.s:2689   .text.timer_input_pwm_capture_config:00000000000000e8 .L0 
C:\Users\stapi\AppData\Local\Temp\ccmnwr16.s:2690   .text.timer_input_pwm_capture_config:00000000000000e8 .L0 
C:\Users\stapi\AppData\Local\Temp\ccmnwr16.s:2694   .text.timer_input_pwm_capture_config:00000000000000ee .L0 
C:\Users\stapi\AppData\Local\Temp\ccmnwr16.s:2695   .text.timer_input_pwm_capture_config:00000000000000ee .L0 
C:\Users\stapi\AppData\Local\Temp\ccmnwr16.s:2697   .text.timer_input_pwm_capture_config:00000000000000f0 .L0 
C:\Users\stapi\AppData\Local\Temp\ccmnwr16.s:2699   .text.timer_input_pwm_capture_config:00000000000000f2 .L0 
C:\Users\stapi\AppData\Local\Temp\ccmnwr16.s:2702   .text.timer_input_pwm_capture_config:00000000000000f8 .L0 
C:\Users\stapi\AppData\Local\Temp\ccmnwr16.s:2703   .text.timer_input_pwm_capture_config:00000000000000f8 .L0 
C:\Users\stapi\AppData\Local\Temp\ccmnwr16.s:2707   .text.timer_input_pwm_capture_config:00000000000000fe .L0 
C:\Users\stapi\AppData\Local\Temp\ccmnwr16.s:2708   .text.timer_input_pwm_capture_config:00000000000000fe .L0 
C:\Users\stapi\AppData\Local\Temp\ccmnwr16.s:2714   .text.timer_input_pwm_capture_config:0000000000000108 .L0 
C:\Users\stapi\AppData\Local\Temp\ccmnwr16.s:2715   .text.timer_input_pwm_capture_config:0000000000000108 .L0 
C:\Users\stapi\AppData\Local\Temp\ccmnwr16.s:2719   .text.timer_input_pwm_capture_config:000000000000010e .L0 
C:\Users\stapi\AppData\Local\Temp\ccmnwr16.s:2720   .text.timer_input_pwm_capture_config:000000000000010e .L0 
C:\Users\stapi\AppData\Local\Temp\ccmnwr16.s:2724   .text.timer_input_pwm_capture_config:0000000000000116 .L0 
C:\Users\stapi\AppData\Local\Temp\ccmnwr16.s:2727   .text.timer_input_pwm_capture_config:000000000000011e .L0 
C:\Users\stapi\AppData\Local\Temp\ccmnwr16.s:2728   .text.timer_input_pwm_capture_config:000000000000011e .L0 
C:\Users\stapi\AppData\Local\Temp\ccmnwr16.s:2730   .text.timer_input_pwm_capture_config:0000000000000120 .L0 
C:\Users\stapi\AppData\Local\Temp\ccmnwr16.s:2733   .text.timer_input_pwm_capture_config:0000000000000126 .L0 
C:\Users\stapi\AppData\Local\Temp\ccmnwr16.s:2737   .text.timer_input_pwm_capture_config:000000000000012c .L0 
C:\Users\stapi\AppData\Local\Temp\ccmnwr16.s:2738   .text.timer_input_pwm_capture_config:000000000000012c .L0 
C:\Users\stapi\AppData\Local\Temp\ccmnwr16.s:2742   .text.timer_input_pwm_capture_config:0000000000000132 .L0 
C:\Users\stapi\AppData\Local\Temp\ccmnwr16.s:2743   .text.timer_input_pwm_capture_config:0000000000000132 .L0 
C:\Users\stapi\AppData\Local\Temp\ccmnwr16.s:2748   .text.timer_input_pwm_capture_config:0000000000000138 .L0 
C:\Users\stapi\AppData\Local\Temp\ccmnwr16.s:2749   .text.timer_input_pwm_capture_config:0000000000000138 .L0 
C:\Users\stapi\AppData\Local\Temp\ccmnwr16.s:2753   .text.timer_input_pwm_capture_config:000000000000013e .L0 
C:\Users\stapi\AppData\Local\Temp\ccmnwr16.s:2754   .text.timer_input_pwm_capture_config:000000000000013e .L0 
C:\Users\stapi\AppData\Local\Temp\ccmnwr16.s:2759   .text.timer_input_pwm_capture_config:0000000000000148 .L0 
C:\Users\stapi\AppData\Local\Temp\ccmnwr16.s:2760   .text.timer_input_pwm_capture_config:0000000000000148 .L0 
C:\Users\stapi\AppData\Local\Temp\ccmnwr16.s:2764   .text.timer_input_pwm_capture_config:0000000000000150 .L0 
C:\Users\stapi\AppData\Local\Temp\ccmnwr16.s:2765   .text.timer_input_pwm_capture_config:0000000000000150 .L0 
C:\Users\stapi\AppData\Local\Temp\ccmnwr16.s:2767   .text.timer_input_pwm_capture_config:0000000000000154 .L0 
C:\Users\stapi\AppData\Local\Temp\ccmnwr16.s:2769   .text.timer_input_pwm_capture_config:0000000000000156 .L0 
C:\Users\stapi\AppData\Local\Temp\ccmnwr16.s:2771   .text.timer_input_pwm_capture_config:0000000000000158 .L0 
C:\Users\stapi\AppData\Local\Temp\ccmnwr16.s:2774   .text.timer_input_pwm_capture_config:000000000000015c .L0 
C:\Users\stapi\AppData\Local\Temp\ccmnwr16.s:2775   .text.timer_input_pwm_capture_config:000000000000015c .L0 
C:\Users\stapi\AppData\Local\Temp\ccmnwr16.s:2779   .text.timer_input_pwm_capture_config:0000000000000164 .L0 
C:\Users\stapi\AppData\Local\Temp\ccmnwr16.s:2780   .text.timer_input_pwm_capture_config:0000000000000166 .L0 
C:\Users\stapi\AppData\Local\Temp\ccmnwr16.s:2787   .text.timer_hall_mode_config:0000000000000000 timer_hall_mode_config
C:\Users\stapi\AppData\Local\Temp\ccmnwr16.s:2790   .text.timer_hall_mode_config:0000000000000000 .L0 
C:\Users\stapi\AppData\Local\Temp\ccmnwr16.s:2792   .text.timer_hall_mode_config:0000000000000000 .L0 
C:\Users\stapi\AppData\Local\Temp\ccmnwr16.s:2793   .text.timer_hall_mode_config:0000000000000000 .L0 
C:\Users\stapi\AppData\Local\Temp\ccmnwr16.s:2794   .text.timer_hall_mode_config:0000000000000000 .L0 
C:\Users\stapi\AppData\Local\Temp\ccmnwr16.s:2796   .text.timer_hall_mode_config:0000000000000002 .L0 
C:\Users\stapi\AppData\Local\Temp\ccmnwr16.s:2797   .text.timer_hall_mode_config:0000000000000002 .L0 
C:\Users\stapi\AppData\Local\Temp\ccmnwr16.s:2801   .text.timer_hall_mode_config:0000000000000008 .L0 
C:\Users\stapi\AppData\Local\Temp\ccmnwr16.s:2804   .text.timer_hall_mode_config:000000000000000a .L0 
C:\Users\stapi\AppData\Local\Temp\ccmnwr16.s:2805   .text.timer_hall_mode_config:000000000000000a .L0 
C:\Users\stapi\AppData\Local\Temp\ccmnwr16.s:2808   .text.timer_hall_mode_config:000000000000000c .L0 
C:\Users\stapi\AppData\Local\Temp\ccmnwr16.s:2809   .text.timer_hall_mode_config:000000000000000c .L0 
C:\Users\stapi\AppData\Local\Temp\ccmnwr16.s:2812   .text.timer_hall_mode_config:0000000000000012 .L0 
C:\Users\stapi\AppData\Local\Temp\ccmnwr16.s:2813   .text.timer_hall_mode_config:0000000000000012 .L0 
C:\Users\stapi\AppData\Local\Temp\ccmnwr16.s:2816   .text.timer_hall_mode_config:000000000000001a .L0 
C:\Users\stapi\AppData\Local\Temp\ccmnwr16.s:2823   .text.timer_input_trigger_source_select:0000000000000000 timer_input_trigger_source_select
C:\Users\stapi\AppData\Local\Temp\ccmnwr16.s:2826   .text.timer_input_trigger_source_select:0000000000000000 .L0 
C:\Users\stapi\AppData\Local\Temp\ccmnwr16.s:2828   .text.timer_input_trigger_source_select:0000000000000000 .L0 
C:\Users\stapi\AppData\Local\Temp\ccmnwr16.s:2829   .text.timer_input_trigger_source_select:0000000000000000 .L0 
C:\Users\stapi\AppData\Local\Temp\ccmnwr16.s:2830   .text.timer_input_trigger_source_select:0000000000000000 .L0 
C:\Users\stapi\AppData\Local\Temp\ccmnwr16.s:2831   .text.timer_input_trigger_source_select:0000000000000000 .L0 
C:\Users\stapi\AppData\Local\Temp\ccmnwr16.s:2832   .text.timer_input_trigger_source_select:0000000000000000 .L0 
C:\Users\stapi\AppData\Local\Temp\ccmnwr16.s:2843   .text.timer_input_trigger_source_select:0000000000000020 .L0 
C:\Users\stapi\AppData\Local\Temp\ccmnwr16.s:2844   .text.timer_input_trigger_source_select:0000000000000020 .L0 
C:\Users\stapi\AppData\Local\Temp\ccmnwr16.s:2847   .text.timer_input_trigger_source_select:0000000000000022 .L0 
C:\Users\stapi\AppData\Local\Temp\ccmnwr16.s:2848   .text.timer_input_trigger_source_select:0000000000000022 .L0 
C:\Users\stapi\AppData\Local\Temp\ccmnwr16.s:2850   .text.timer_input_trigger_source_select:0000000000000024 .L0 
C:\Users\stapi\AppData\Local\Temp\ccmnwr16.s:2851   .text.timer_input_trigger_source_select:0000000000000024 .L0 
C:\Users\stapi\AppData\Local\Temp\ccmnwr16.s:2855   .text.timer_input_trigger_source_select:0000000000000026 .L0 
C:\Users\stapi\AppData\Local\Temp\ccmnwr16.s:2856   .text.timer_input_trigger_source_select:0000000000000026 .L0 
C:\Users\stapi\AppData\Local\Temp\ccmnwr16.s:2858   .text.timer_input_trigger_source_select:0000000000000028 .L0 
C:\Users\stapi\AppData\Local\Temp\ccmnwr16.s:2862   .text.timer_input_trigger_source_select:000000000000002a .L0 
C:\Users\stapi\AppData\Local\Temp\ccmnwr16.s:2867   .text.timer_input_trigger_source_select:0000000000000034 .L0 
C:\Users\stapi\AppData\Local\Temp\ccmnwr16.s:2874   .text.timer_input_trigger_source_select:0000000000000040 .L0 
C:\Users\stapi\AppData\Local\Temp\ccmnwr16.s:2876   .text.timer_input_trigger_source_select:0000000000000042 .L0 
C:\Users\stapi\AppData\Local\Temp\ccmnwr16.s:2880   .text.timer_input_trigger_source_select:0000000000000044 .L0 
C:\Users\stapi\AppData\Local\Temp\ccmnwr16.s:2883   .text.timer_input_trigger_source_select:000000000000004c .L0 
C:\Users\stapi\AppData\Local\Temp\ccmnwr16.s:2887   .text.timer_input_trigger_source_select:0000000000000052 .L0 
C:\Users\stapi\AppData\Local\Temp\ccmnwr16.s:2888   .text.timer_input_trigger_source_select:0000000000000052 .L0 
C:\Users\stapi\AppData\Local\Temp\ccmnwr16.s:2891   .text.timer_input_trigger_source_select:0000000000000054 .L0 
C:\Users\stapi\AppData\Local\Temp\ccmnwr16.s:2892   .text.timer_input_trigger_source_select:0000000000000054 .L0 
C:\Users\stapi\AppData\Local\Temp\ccmnwr16.s:2893   .text.timer_input_trigger_source_select:0000000000000054 .L0 
C:\Users\stapi\AppData\Local\Temp\ccmnwr16.s:2900   .text.timer_input_trigger_source_select:000000000000005c .L0 
C:\Users\stapi\AppData\Local\Temp\ccmnwr16.s:2901   .text.timer_input_trigger_source_select:000000000000005c .L0 
C:\Users\stapi\AppData\Local\Temp\ccmnwr16.s:2903   .text.timer_input_trigger_source_select:000000000000005e .L0 
C:\Users\stapi\AppData\Local\Temp\ccmnwr16.s:2906   .text.timer_input_trigger_source_select:0000000000000060 .L0 
C:\Users\stapi\AppData\Local\Temp\ccmnwr16.s:2912   .text.timer_input_trigger_source_select:0000000000000066 .L0 
C:\Users\stapi\AppData\Local\Temp\ccmnwr16.s:2913   .text.timer_input_trigger_source_select:0000000000000066 .L0 
C:\Users\stapi\AppData\Local\Temp\ccmnwr16.s:2916   .text.timer_input_trigger_source_select:000000000000006c .L0 
C:\Users\stapi\AppData\Local\Temp\ccmnwr16.s:2923   .text.timer_master_output_trigger_source_select:0000000000000000 timer_master_output_trigger_source_select
C:\Users\stapi\AppData\Local\Temp\ccmnwr16.s:2926   .text.timer_master_output_trigger_source_select:0000000000000000 .L0 
C:\Users\stapi\AppData\Local\Temp\ccmnwr16.s:2928   .text.timer_master_output_trigger_source_select:0000000000000000 .L0 
C:\Users\stapi\AppData\Local\Temp\ccmnwr16.s:2929   .text.timer_master_output_trigger_source_select:0000000000000000 .L0 
C:\Users\stapi\AppData\Local\Temp\ccmnwr16.s:2930   .text.timer_master_output_trigger_source_select:0000000000000000 .L0 
C:\Users\stapi\AppData\Local\Temp\ccmnwr16.s:2934   .text.timer_master_output_trigger_source_select:0000000000000008 .L0 
C:\Users\stapi\AppData\Local\Temp\ccmnwr16.s:2935   .text.timer_master_output_trigger_source_select:0000000000000008 .L0 
C:\Users\stapi\AppData\Local\Temp\ccmnwr16.s:2939   .text.timer_master_output_trigger_source_select:000000000000000e .L0 
C:\Users\stapi\AppData\Local\Temp\ccmnwr16.s:2940   .text.timer_master_output_trigger_source_select:0000000000000010 .L0 
C:\Users\stapi\AppData\Local\Temp\ccmnwr16.s:2947   .text.timer_slave_mode_select:0000000000000000 timer_slave_mode_select
C:\Users\stapi\AppData\Local\Temp\ccmnwr16.s:2950   .text.timer_slave_mode_select:0000000000000000 .L0 
C:\Users\stapi\AppData\Local\Temp\ccmnwr16.s:2952   .text.timer_slave_mode_select:0000000000000000 .L0 
C:\Users\stapi\AppData\Local\Temp\ccmnwr16.s:2953   .text.timer_slave_mode_select:0000000000000000 .L0 
C:\Users\stapi\AppData\Local\Temp\ccmnwr16.s:2954   .text.timer_slave_mode_select:0000000000000000 .L0 
C:\Users\stapi\AppData\Local\Temp\ccmnwr16.s:2955   .text.timer_slave_mode_select:0000000000000000 .L0 
C:\Users\stapi\AppData\Local\Temp\ccmnwr16.s:2956   .text.timer_slave_mode_select:0000000000000000 .L0 
C:\Users\stapi\AppData\Local\Temp\ccmnwr16.s:2957   .text.timer_slave_mode_select:0000000000000000 .L0 
C:\Users\stapi\AppData\Local\Temp\ccmnwr16.s:2968   .text.timer_slave_mode_select:0000000000000020 .L0 
C:\Users\stapi\AppData\Local\Temp\ccmnwr16.s:2969   .text.timer_slave_mode_select:0000000000000020 .L0 
C:\Users\stapi\AppData\Local\Temp\ccmnwr16.s:2972   .text.timer_slave_mode_select:0000000000000024 .L0 
C:\Users\stapi\AppData\Local\Temp\ccmnwr16.s:2973   .text.timer_slave_mode_select:0000000000000024 .L0 
C:\Users\stapi\AppData\Local\Temp\ccmnwr16.s:2976   .text.timer_slave_mode_select:0000000000000026 .L0 
C:\Users\stapi\AppData\Local\Temp\ccmnwr16.s:2978   .text.timer_slave_mode_select:0000000000000028 .L0 
C:\Users\stapi\AppData\Local\Temp\ccmnwr16.s:2981   .text.timer_slave_mode_select:000000000000002e .L0 
C:\Users\stapi\AppData\Local\Temp\ccmnwr16.s:2983   .text.timer_slave_mode_select:0000000000000030 .L0 
C:\Users\stapi\AppData\Local\Temp\ccmnwr16.s:2987   .text.timer_slave_mode_select:0000000000000032 .L0 
C:\Users\stapi\AppData\Local\Temp\ccmnwr16.s:2990   .text.timer_slave_mode_select:000000000000003a .L0 
C:\Users\stapi\AppData\Local\Temp\ccmnwr16.s:2994   .text.timer_slave_mode_select:0000000000000042 .L0 
C:\Users\stapi\AppData\Local\Temp\ccmnwr16.s:2995   .text.timer_slave_mode_select:0000000000000042 .L0 
C:\Users\stapi\AppData\Local\Temp\ccmnwr16.s:2998   .text.timer_slave_mode_select:0000000000000044 .L0 
C:\Users\stapi\AppData\Local\Temp\ccmnwr16.s:2999   .text.timer_slave_mode_select:0000000000000044 .L0 
C:\Users\stapi\AppData\Local\Temp\ccmnwr16.s:3000   .text.timer_slave_mode_select:0000000000000044 .L0 
C:\Users\stapi\AppData\Local\Temp\ccmnwr16.s:3007   .text.timer_slave_mode_select:000000000000004c .L0 
C:\Users\stapi\AppData\Local\Temp\ccmnwr16.s:3008   .text.timer_slave_mode_select:000000000000004c .L0 
C:\Users\stapi\AppData\Local\Temp\ccmnwr16.s:3010   .text.timer_slave_mode_select:000000000000004e .L0 
C:\Users\stapi\AppData\Local\Temp\ccmnwr16.s:3013   .text.timer_slave_mode_select:0000000000000054 .L0 
C:\Users\stapi\AppData\Local\Temp\ccmnwr16.s:3015   .text.timer_slave_mode_select:0000000000000058 .L0 
C:\Users\stapi\AppData\Local\Temp\ccmnwr16.s:3019   .text.timer_slave_mode_select:000000000000005c .L0 
C:\Users\stapi\AppData\Local\Temp\ccmnwr16.s:3020   .text.timer_slave_mode_select:000000000000005c .L0 
C:\Users\stapi\AppData\Local\Temp\ccmnwr16.s:3023   .text.timer_slave_mode_select:0000000000000060 .L0 
C:\Users\stapi\AppData\Local\Temp\ccmnwr16.s:3024   .text.timer_slave_mode_select:0000000000000060 .L0 
C:\Users\stapi\AppData\Local\Temp\ccmnwr16.s:3026   .text.timer_slave_mode_select:0000000000000062 .L0 
C:\Users\stapi\AppData\Local\Temp\ccmnwr16.s:3030   .text.timer_slave_mode_select:0000000000000064 .L0 
C:\Users\stapi\AppData\Local\Temp\ccmnwr16.s:3035   .text.timer_slave_mode_select:000000000000006e .L0 
C:\Users\stapi\AppData\Local\Temp\ccmnwr16.s:3040   .text.timer_slave_mode_select:0000000000000078 .L0 
C:\Users\stapi\AppData\Local\Temp\ccmnwr16.s:3041   .text.timer_slave_mode_select:0000000000000078 .L0 
C:\Users\stapi\AppData\Local\Temp\ccmnwr16.s:3044   .text.timer_slave_mode_select:000000000000007e .L0 
C:\Users\stapi\AppData\Local\Temp\ccmnwr16.s:3051   .text.timer_master_slave_mode_config:0000000000000000 timer_master_slave_mode_config
C:\Users\stapi\AppData\Local\Temp\ccmnwr16.s:3054   .text.timer_master_slave_mode_config:0000000000000000 .L0 
C:\Users\stapi\AppData\Local\Temp\ccmnwr16.s:3056   .text.timer_master_slave_mode_config:0000000000000000 .L0 
C:\Users\stapi\AppData\Local\Temp\ccmnwr16.s:3057   .text.timer_master_slave_mode_config:0000000000000000 .L0 
C:\Users\stapi\AppData\Local\Temp\ccmnwr16.s:3058   .text.timer_master_slave_mode_config:0000000000000000 .L0 
C:\Users\stapi\AppData\Local\Temp\ccmnwr16.s:3060   .text.timer_master_slave_mode_config:0000000000000002 .L0 
C:\Users\stapi\AppData\Local\Temp\ccmnwr16.s:3061   .text.timer_master_slave_mode_config:0000000000000002 .L0 
C:\Users\stapi\AppData\Local\Temp\ccmnwr16.s:3065   .text.timer_master_slave_mode_config:0000000000000008 .L0 
C:\Users\stapi\AppData\Local\Temp\ccmnwr16.s:3068   .text.timer_master_slave_mode_config:000000000000000a .L0 
C:\Users\stapi\AppData\Local\Temp\ccmnwr16.s:3069   .text.timer_master_slave_mode_config:000000000000000a .L0 
C:\Users\stapi\AppData\Local\Temp\ccmnwr16.s:3072   .text.timer_master_slave_mode_config:000000000000000c .L0 
C:\Users\stapi\AppData\Local\Temp\ccmnwr16.s:3073   .text.timer_master_slave_mode_config:000000000000000c .L0 
C:\Users\stapi\AppData\Local\Temp\ccmnwr16.s:3076   .text.timer_master_slave_mode_config:0000000000000012 .L0 
C:\Users\stapi\AppData\Local\Temp\ccmnwr16.s:3077   .text.timer_master_slave_mode_config:0000000000000012 .L0 
C:\Users\stapi\AppData\Local\Temp\ccmnwr16.s:3080   .text.timer_master_slave_mode_config:000000000000001a .L0 
C:\Users\stapi\AppData\Local\Temp\ccmnwr16.s:3087   .text.timer_external_trigger_config:0000000000000000 timer_external_trigger_config
C:\Users\stapi\AppData\Local\Temp\ccmnwr16.s:3090   .text.timer_external_trigger_config:0000000000000000 .L0 
C:\Users\stapi\AppData\Local\Temp\ccmnwr16.s:3092   .text.timer_external_trigger_config:0000000000000000 .L0 
C:\Users\stapi\AppData\Local\Temp\ccmnwr16.s:3093   .text.timer_external_trigger_config:0000000000000000 .L0 
C:\Users\stapi\AppData\Local\Temp\ccmnwr16.s:3094   .text.timer_external_trigger_config:0000000000000000 .L0 
C:\Users\stapi\AppData\Local\Temp\ccmnwr16.s:3100   .text.timer_external_trigger_config:000000000000000c .L0 
C:\Users\stapi\AppData\Local\Temp\ccmnwr16.s:3101   .text.timer_external_trigger_config:000000000000000c .L0 
C:\Users\stapi\AppData\Local\Temp\ccmnwr16.s:3103   .text.timer_external_trigger_config:000000000000000e .L0 
C:\Users\stapi\AppData\Local\Temp\ccmnwr16.s:3106   .text.timer_external_trigger_config:0000000000000010 .L0 
C:\Users\stapi\AppData\Local\Temp\ccmnwr16.s:3109   .text.timer_external_trigger_config:0000000000000012 .L0 
C:\Users\stapi\AppData\Local\Temp\ccmnwr16.s:3112   .text.timer_external_trigger_config:0000000000000016 .L0 
C:\Users\stapi\AppData\Local\Temp\ccmnwr16.s:3113   .text.timer_external_trigger_config:0000000000000016 .L0 
C:\Users\stapi\AppData\Local\Temp\ccmnwr16.s:3117   .text.timer_external_trigger_config:000000000000001c .L0 
C:\Users\stapi\AppData\Local\Temp\ccmnwr16.s:3118   .text.timer_external_trigger_config:000000000000001e .L0 
C:\Users\stapi\AppData\Local\Temp\ccmnwr16.s:3125   .text.timer_quadrature_decoder_mode_config:0000000000000000 timer_quadrature_decoder_mode_config
C:\Users\stapi\AppData\Local\Temp\ccmnwr16.s:3128   .text.timer_quadrature_decoder_mode_config:0000000000000000 .L0 
C:\Users\stapi\AppData\Local\Temp\ccmnwr16.s:3130   .text.timer_quadrature_decoder_mode_config:0000000000000000 .L0 
C:\Users\stapi\AppData\Local\Temp\ccmnwr16.s:3131   .text.timer_quadrature_decoder_mode_config:0000000000000008 .L0 
C:\Users\stapi\AppData\Local\Temp\ccmnwr16.s:3132   .text.timer_quadrature_decoder_mode_config:0000000000000008 .L0 
C:\Users\stapi\AppData\Local\Temp\ccmnwr16.s:3133   .text.timer_quadrature_decoder_mode_config:0000000000000008 .L0 
C:\Users\stapi\AppData\Local\Temp\ccmnwr16.s:3134   .text.timer_quadrature_decoder_mode_config:0000000000000008 .L0 
C:\Users\stapi\AppData\Local\Temp\ccmnwr16.s:3135   .text.timer_quadrature_decoder_mode_config:0000000000000008 .L0 
C:\Users\stapi\AppData\Local\Temp\ccmnwr16.s:3137   .text.timer_quadrature_decoder_mode_config:0000000000000008 .L0 
C:\Users\stapi\AppData\Local\Temp\ccmnwr16.s:3138   .text.timer_quadrature_decoder_mode_config:0000000000000008 .L0 
C:\Users\stapi\AppData\Local\Temp\ccmnwr16.s:3142   .text.timer_quadrature_decoder_mode_config:000000000000000e .L0 
C:\Users\stapi\AppData\Local\Temp\ccmnwr16.s:3145   .text.timer_quadrature_decoder_mode_config:0000000000000016 .L0 
C:\Users\stapi\AppData\Local\Temp\ccmnwr16.s:3146   .text.timer_quadrature_decoder_mode_config:0000000000000016 .L0 
C:\Users\stapi\AppData\Local\Temp\ccmnwr16.s:3148   .text.timer_quadrature_decoder_mode_config:0000000000000018 .L0 
C:\Users\stapi\AppData\Local\Temp\ccmnwr16.s:3150   .text.timer_quadrature_decoder_mode_config:000000000000001a .L0 
C:\Users\stapi\AppData\Local\Temp\ccmnwr16.s:3152   .text.timer_quadrature_decoder_mode_config:000000000000001e .L0 
C:\Users\stapi\AppData\Local\Temp\ccmnwr16.s:3155   .text.timer_quadrature_decoder_mode_config:0000000000000024 .L0 
C:\Users\stapi\AppData\Local\Temp\ccmnwr16.s:3156   .text.timer_quadrature_decoder_mode_config:0000000000000024 .L0 
C:\Users\stapi\AppData\Local\Temp\ccmnwr16.s:3160   .text.timer_quadrature_decoder_mode_config:000000000000002c .L0 
C:\Users\stapi\AppData\Local\Temp\ccmnwr16.s:3161   .text.timer_quadrature_decoder_mode_config:000000000000002c .L0 
C:\Users\stapi\AppData\Local\Temp\ccmnwr16.s:3165   .text.timer_quadrature_decoder_mode_config:0000000000000032 .L0 
C:\Users\stapi\AppData\Local\Temp\ccmnwr16.s:3166   .text.timer_quadrature_decoder_mode_config:0000000000000032 .L0 
C:\Users\stapi\AppData\Local\Temp\ccmnwr16.s:3170   .text.timer_quadrature_decoder_mode_config:000000000000003a .L0 
C:\Users\stapi\AppData\Local\Temp\ccmnwr16.s:3171   .text.timer_quadrature_decoder_mode_config:000000000000003a .L0 
C:\Users\stapi\AppData\Local\Temp\ccmnwr16.s:3175   .text.timer_quadrature_decoder_mode_config:0000000000000040 .L0 
C:\Users\stapi\AppData\Local\Temp\ccmnwr16.s:3176   .text.timer_quadrature_decoder_mode_config:0000000000000048 .L0 
C:\Users\stapi\AppData\Local\Temp\ccmnwr16.s:3177   .text.timer_quadrature_decoder_mode_config:0000000000000048 .L0 
C:\Users\stapi\AppData\Local\Temp\ccmnwr16.s:3178   .text.timer_quadrature_decoder_mode_config:0000000000000048 .L0 
C:\Users\stapi\AppData\Local\Temp\ccmnwr16.s:3179   .text.timer_quadrature_decoder_mode_config:0000000000000048 .L0 
C:\Users\stapi\AppData\Local\Temp\ccmnwr16.s:3180   .text.timer_quadrature_decoder_mode_config:0000000000000048 .L0 
C:\Users\stapi\AppData\Local\Temp\ccmnwr16.s:3181   .text.timer_quadrature_decoder_mode_config:0000000000000048 .L0 
C:\Users\stapi\AppData\Local\Temp\ccmnwr16.s:3188   .text.timer_internal_clock_config:0000000000000000 timer_internal_clock_config
C:\Users\stapi\AppData\Local\Temp\ccmnwr16.s:3191   .text.timer_internal_clock_config:0000000000000000 .L0 
C:\Users\stapi\AppData\Local\Temp\ccmnwr16.s:3193   .text.timer_internal_clock_config:0000000000000000 .L0 
C:\Users\stapi\AppData\Local\Temp\ccmnwr16.s:3194   .text.timer_internal_clock_config:0000000000000000 .L0 
C:\Users\stapi\AppData\Local\Temp\ccmnwr16.s:3197   .text.timer_internal_clock_config:000000000000000a .L0 
C:\Users\stapi\AppData\Local\Temp\ccmnwr16.s:3204   .text.timer_internal_trigger_as_external_clock_config:0000000000000000 timer_internal_trigger_as_external_clock_config
C:\Users\stapi\AppData\Local\Temp\ccmnwr16.s:3207   .text.timer_internal_trigger_as_external_clock_config:0000000000000000 .L0 
C:\Users\stapi\AppData\Local\Temp\ccmnwr16.s:3209   .text.timer_internal_trigger_as_external_clock_config:0000000000000000 .L0 
C:\Users\stapi\AppData\Local\Temp\ccmnwr16.s:3210   .text.timer_internal_trigger_as_external_clock_config:0000000000000008 .L0 
C:\Users\stapi\AppData\Local\Temp\ccmnwr16.s:3211   .text.timer_internal_trigger_as_external_clock_config:0000000000000008 .L0 
C:\Users\stapi\AppData\Local\Temp\ccmnwr16.s:3212   .text.timer_internal_trigger_as_external_clock_config:0000000000000008 .L0 
C:\Users\stapi\AppData\Local\Temp\ccmnwr16.s:3213   .text.timer_internal_trigger_as_external_clock_config:0000000000000008 .L0 
C:\Users\stapi\AppData\Local\Temp\ccmnwr16.s:3215   .text.timer_internal_trigger_as_external_clock_config:0000000000000008 .L0 
C:\Users\stapi\AppData\Local\Temp\ccmnwr16.s:3216   .text.timer_internal_trigger_as_external_clock_config:0000000000000008 .L0 
C:\Users\stapi\AppData\Local\Temp\ccmnwr16.s:3218   .text.timer_internal_trigger_as_external_clock_config:000000000000000a .L0 
C:\Users\stapi\AppData\Local\Temp\ccmnwr16.s:3221   .text.timer_internal_trigger_as_external_clock_config:000000000000000c .L0 
C:\Users\stapi\AppData\Local\Temp\ccmnwr16.s:3223   .text.timer_internal_trigger_as_external_clock_config:000000000000000e .L0 
C:\Users\stapi\AppData\Local\Temp\ccmnwr16.s:3226   .text.timer_internal_trigger_as_external_clock_config:0000000000000016 .L0 
C:\Users\stapi\AppData\Local\Temp\ccmnwr16.s:3231   .text.timer_internal_trigger_as_external_clock_config:0000000000000022 .L0 
C:\Users\stapi\AppData\Local\Temp\ccmnwr16.s:3232   .text.timer_internal_trigger_as_external_clock_config:000000000000002a .L0 
C:\Users\stapi\AppData\Local\Temp\ccmnwr16.s:3233   .text.timer_internal_trigger_as_external_clock_config:000000000000002a .L0 
C:\Users\stapi\AppData\Local\Temp\ccmnwr16.s:3234   .text.timer_internal_trigger_as_external_clock_config:000000000000002a .L0 
C:\Users\stapi\AppData\Local\Temp\ccmnwr16.s:3235   .text.timer_internal_trigger_as_external_clock_config:000000000000002a .L0 
C:\Users\stapi\AppData\Local\Temp\ccmnwr16.s:3236   .text.timer_internal_trigger_as_external_clock_config:000000000000002a .L0 
C:\Users\stapi\AppData\Local\Temp\ccmnwr16.s:3243   .text.timer_external_trigger_as_external_clock_config:0000000000000000 timer_external_trigger_as_external_clock_config
C:\Users\stapi\AppData\Local\Temp\ccmnwr16.s:3246   .text.timer_external_trigger_as_external_clock_config:0000000000000000 .L0 
C:\Users\stapi\AppData\Local\Temp\ccmnwr16.s:3248   .text.timer_external_trigger_as_external_clock_config:0000000000000000 .L0 
C:\Users\stapi\AppData\Local\Temp\ccmnwr16.s:3249   .text.timer_external_trigger_as_external_clock_config:0000000000000008 .L0 
C:\Users\stapi\AppData\Local\Temp\ccmnwr16.s:3250   .text.timer_external_trigger_as_external_clock_config:0000000000000008 .L0 
C:\Users\stapi\AppData\Local\Temp\ccmnwr16.s:3251   .text.timer_external_trigger_as_external_clock_config:0000000000000008 .L0 
C:\Users\stapi\AppData\Local\Temp\ccmnwr16.s:3253   .text.timer_external_trigger_as_external_clock_config:0000000000000008 .L0 
C:\Users\stapi\AppData\Local\Temp\ccmnwr16.s:3254   .text.timer_external_trigger_as_external_clock_config:0000000000000008 .L0 
C:\Users\stapi\AppData\Local\Temp\ccmnwr16.s:3256   .text.timer_external_trigger_as_external_clock_config:000000000000000a .L0 
C:\Users\stapi\AppData\Local\Temp\ccmnwr16.s:3257   .text.timer_external_trigger_as_external_clock_config:000000000000000c .L0 
C:\Users\stapi\AppData\Local\Temp\ccmnwr16.s:3259   .text.timer_external_trigger_as_external_clock_config:000000000000000c .L0 
C:\Users\stapi\AppData\Local\Temp\ccmnwr16.s:3261   .text.timer_external_trigger_as_external_clock_config:000000000000000e .L0 
C:\Users\stapi\AppData\Local\Temp\ccmnwr16.s:3263   .text.timer_external_trigger_as_external_clock_config:0000000000000012 .L0 
C:\Users\stapi\AppData\Local\Temp\ccmnwr16.s:3264   .text.timer_external_trigger_as_external_clock_config:0000000000000012 .L0 
C:\Users\stapi\AppData\Local\Temp\ccmnwr16.s:3266   .text.timer_external_trigger_as_external_clock_config:0000000000000014 .L0 
C:\Users\stapi\AppData\Local\Temp\ccmnwr16.s:3269   .text.timer_external_trigger_as_external_clock_config:0000000000000016 .L0 
C:\Users\stapi\AppData\Local\Temp\ccmnwr16.s:3271   .text.timer_external_trigger_as_external_clock_config:0000000000000018 .L0 
C:\Users\stapi\AppData\Local\Temp\ccmnwr16.s:3274   .text.timer_external_trigger_as_external_clock_config:000000000000001c .L0 
C:\Users\stapi\AppData\Local\Temp\ccmnwr16.s:3275   .text.timer_external_trigger_as_external_clock_config:000000000000001c .L0 
C:\Users\stapi\AppData\Local\Temp\ccmnwr16.s:3277   .text.timer_external_trigger_as_external_clock_config:000000000000001e .L0 
C:\Users\stapi\AppData\Local\Temp\ccmnwr16.s:3279   .text.timer_external_trigger_as_external_clock_config:0000000000000020 .L0 
C:\Users\stapi\AppData\Local\Temp\ccmnwr16.s:3282   .text.timer_external_trigger_as_external_clock_config:0000000000000022 .L0 
C:\Users\stapi\AppData\Local\Temp\ccmnwr16.s:3285   .text.timer_external_trigger_as_external_clock_config:0000000000000028 .L0 
C:\Users\stapi\AppData\Local\Temp\ccmnwr16.s:3286   .text.timer_external_trigger_as_external_clock_config:0000000000000028 .L0 
C:\Users\stapi\AppData\Local\Temp\ccmnwr16.s:3290   .text.timer_external_trigger_as_external_clock_config:000000000000002e .L0 
C:\Users\stapi\AppData\Local\Temp\ccmnwr16.s:3291   .text.timer_external_trigger_as_external_clock_config:000000000000002e .L0 
C:\Users\stapi\AppData\Local\Temp\ccmnwr16.s:3295   .text.timer_external_trigger_as_external_clock_config:0000000000000036 .L0 
C:\Users\stapi\AppData\Local\Temp\ccmnwr16.s:3296   .text.timer_external_trigger_as_external_clock_config:0000000000000036 .L0 
C:\Users\stapi\AppData\Local\Temp\ccmnwr16.s:3300   .text.timer_external_trigger_as_external_clock_config:000000000000003e .L0 
C:\Users\stapi\AppData\Local\Temp\ccmnwr16.s:3301   .text.timer_external_trigger_as_external_clock_config:000000000000003e .L0 
C:\Users\stapi\AppData\Local\Temp\ccmnwr16.s:3305   .text.timer_external_trigger_as_external_clock_config:0000000000000044 .L0 
C:\Users\stapi\AppData\Local\Temp\ccmnwr16.s:3306   .text.timer_external_trigger_as_external_clock_config:0000000000000044 .L0 
C:\Users\stapi\AppData\Local\Temp\ccmnwr16.s:3310   .text.timer_external_trigger_as_external_clock_config:000000000000004a .L0 
C:\Users\stapi\AppData\Local\Temp\ccmnwr16.s:3311   .text.timer_external_trigger_as_external_clock_config:000000000000004a .L0 
C:\Users\stapi\AppData\Local\Temp\ccmnwr16.s:3315   .text.timer_external_trigger_as_external_clock_config:0000000000000050 .L0 
C:\Users\stapi\AppData\Local\Temp\ccmnwr16.s:3317   .text.timer_external_trigger_as_external_clock_config:0000000000000052 .L0 
C:\Users\stapi\AppData\Local\Temp\ccmnwr16.s:3323   .text.timer_external_trigger_as_external_clock_config:000000000000005e .L0 
C:\Users\stapi\AppData\Local\Temp\ccmnwr16.s:3328   .text.timer_external_trigger_as_external_clock_config:000000000000006a .L0 
C:\Users\stapi\AppData\Local\Temp\ccmnwr16.s:3329   .text.timer_external_trigger_as_external_clock_config:000000000000006c .L0 
C:\Users\stapi\AppData\Local\Temp\ccmnwr16.s:3330   .text.timer_external_trigger_as_external_clock_config:000000000000006c .L0 
C:\Users\stapi\AppData\Local\Temp\ccmnwr16.s:3333   .text.timer_external_trigger_as_external_clock_config:0000000000000074 .L0 
C:\Users\stapi\AppData\Local\Temp\ccmnwr16.s:3334   .text.timer_external_trigger_as_external_clock_config:0000000000000074 .L0 
C:\Users\stapi\AppData\Local\Temp\ccmnwr16.s:3335   .text.timer_external_trigger_as_external_clock_config:0000000000000074 .L0 
C:\Users\stapi\AppData\Local\Temp\ccmnwr16.s:3338   .text.timer_external_trigger_as_external_clock_config:0000000000000074 .L0 
C:\Users\stapi\AppData\Local\Temp\ccmnwr16.s:3340   .text.timer_external_trigger_as_external_clock_config:0000000000000074 .L0 
C:\Users\stapi\AppData\Local\Temp\ccmnwr16.s:3341   .text.timer_external_trigger_as_external_clock_config:0000000000000074 .L0 
C:\Users\stapi\AppData\Local\Temp\ccmnwr16.s:3343   .text.timer_external_trigger_as_external_clock_config:0000000000000076 .L0 
C:\Users\stapi\AppData\Local\Temp\ccmnwr16.s:3346   .text.timer_external_trigger_as_external_clock_config:0000000000000078 .L0 
C:\Users\stapi\AppData\Local\Temp\ccmnwr16.s:3349   .text.timer_external_trigger_as_external_clock_config:000000000000007c .L0 
C:\Users\stapi\AppData\Local\Temp\ccmnwr16.s:3350   .text.timer_external_trigger_as_external_clock_config:000000000000007c .L0 
C:\Users\stapi\AppData\Local\Temp\ccmnwr16.s:3354   .text.timer_external_trigger_as_external_clock_config:0000000000000082 .L0 
C:\Users\stapi\AppData\Local\Temp\ccmnwr16.s:3355   .text.timer_external_trigger_as_external_clock_config:0000000000000082 .L0 
C:\Users\stapi\AppData\Local\Temp\ccmnwr16.s:3360   .text.timer_external_trigger_as_external_clock_config:0000000000000088 .L0 
C:\Users\stapi\AppData\Local\Temp\ccmnwr16.s:3361   .text.timer_external_trigger_as_external_clock_config:0000000000000088 .L0 
C:\Users\stapi\AppData\Local\Temp\ccmnwr16.s:3365   .text.timer_external_trigger_as_external_clock_config:000000000000008e .L0 
C:\Users\stapi\AppData\Local\Temp\ccmnwr16.s:3366   .text.timer_external_trigger_as_external_clock_config:000000000000008e .L0 
C:\Users\stapi\AppData\Local\Temp\ccmnwr16.s:3370   .text.timer_external_trigger_as_external_clock_config:0000000000000096 .L0 
C:\Users\stapi\AppData\Local\Temp\ccmnwr16.s:3371   .text.timer_external_trigger_as_external_clock_config:0000000000000096 .L0 
C:\Users\stapi\AppData\Local\Temp\ccmnwr16.s:3375   .text.timer_external_trigger_as_external_clock_config:000000000000009e .L0 
C:\Users\stapi\AppData\Local\Temp\ccmnwr16.s:3376   .text.timer_external_trigger_as_external_clock_config:000000000000009e .L0 
C:\Users\stapi\AppData\Local\Temp\ccmnwr16.s:3380   .text.timer_external_trigger_as_external_clock_config:00000000000000a4 .L0 
C:\Users\stapi\AppData\Local\Temp\ccmnwr16.s:3381   .text.timer_external_trigger_as_external_clock_config:00000000000000a4 .L0 
C:\Users\stapi\AppData\Local\Temp\ccmnwr16.s:3384   .text.timer_external_trigger_as_external_clock_config:00000000000000ac .L0 
C:\Users\stapi\AppData\Local\Temp\ccmnwr16.s:3391   .text.timer_external_clock_mode0_config:0000000000000000 timer_external_clock_mode0_config
C:\Users\stapi\AppData\Local\Temp\ccmnwr16.s:3394   .text.timer_external_clock_mode0_config:0000000000000000 .L0 
C:\Users\stapi\AppData\Local\Temp\ccmnwr16.s:3396   .text.timer_external_clock_mode0_config:0000000000000000 .L0 
C:\Users\stapi\AppData\Local\Temp\ccmnwr16.s:3397   .text.timer_external_clock_mode0_config:0000000000000008 .L0 
C:\Users\stapi\AppData\Local\Temp\ccmnwr16.s:3398   .text.timer_external_clock_mode0_config:0000000000000008 .L0 
C:\Users\stapi\AppData\Local\Temp\ccmnwr16.s:3399   .text.timer_external_clock_mode0_config:0000000000000008 .L0 
C:\Users\stapi\AppData\Local\Temp\ccmnwr16.s:3401   .text.timer_external_clock_mode0_config:0000000000000008 .L0 
C:\Users\stapi\AppData\Local\Temp\ccmnwr16.s:3402   .text.timer_external_clock_mode0_config:0000000000000008 .L0 
C:\Users\stapi\AppData\Local\Temp\ccmnwr16.s:3404   .text.timer_external_clock_mode0_config:000000000000000a .L0 
C:\Users\stapi\AppData\Local\Temp\ccmnwr16.s:3407   .text.timer_external_clock_mode0_config:0000000000000012 .L0 
C:\Users\stapi\AppData\Local\Temp\ccmnwr16.s:3412   .text.timer_external_clock_mode0_config:000000000000001e .L0 
C:\Users\stapi\AppData\Local\Temp\ccmnwr16.s:3417   .text.timer_external_clock_mode0_config:000000000000002a .L0 
C:\Users\stapi\AppData\Local\Temp\ccmnwr16.s:3418   .text.timer_external_clock_mode0_config:0000000000000032 .L0 
C:\Users\stapi\AppData\Local\Temp\ccmnwr16.s:3419   .text.timer_external_clock_mode0_config:0000000000000032 .L0 
C:\Users\stapi\AppData\Local\Temp\ccmnwr16.s:3420   .text.timer_external_clock_mode0_config:0000000000000032 .L0 
C:\Users\stapi\AppData\Local\Temp\ccmnwr16.s:3421   .text.timer_external_clock_mode0_config:0000000000000032 .L0 
C:\Users\stapi\AppData\Local\Temp\ccmnwr16.s:3428   .text.timer_external_clock_mode1_config:0000000000000000 timer_external_clock_mode1_config
C:\Users\stapi\AppData\Local\Temp\ccmnwr16.s:3431   .text.timer_external_clock_mode1_config:0000000000000000 .L0 
C:\Users\stapi\AppData\Local\Temp\ccmnwr16.s:3433   .text.timer_external_clock_mode1_config:0000000000000000 .L0 
C:\Users\stapi\AppData\Local\Temp\ccmnwr16.s:3434   .text.timer_external_clock_mode1_config:0000000000000008 .L0 
C:\Users\stapi\AppData\Local\Temp\ccmnwr16.s:3435   .text.timer_external_clock_mode1_config:0000000000000008 .L0 
C:\Users\stapi\AppData\Local\Temp\ccmnwr16.s:3436   .text.timer_external_clock_mode1_config:0000000000000008 .L0 
C:\Users\stapi\AppData\Local\Temp\ccmnwr16.s:3438   .text.timer_external_clock_mode1_config:0000000000000008 .L0 
C:\Users\stapi\AppData\Local\Temp\ccmnwr16.s:3439   .text.timer_external_clock_mode1_config:0000000000000008 .L0 
C:\Users\stapi\AppData\Local\Temp\ccmnwr16.s:3441   .text.timer_external_clock_mode1_config:000000000000000a .L0 
C:\Users\stapi\AppData\Local\Temp\ccmnwr16.s:3444   .text.timer_external_clock_mode1_config:0000000000000012 .L0 
C:\Users\stapi\AppData\Local\Temp\ccmnwr16.s:3445   .text.timer_external_clock_mode1_config:0000000000000012 .L0 
C:\Users\stapi\AppData\Local\Temp\ccmnwr16.s:3449   .text.timer_external_clock_mode1_config:000000000000001a .L0 
C:\Users\stapi\AppData\Local\Temp\ccmnwr16.s:3450   .text.timer_external_clock_mode1_config:0000000000000022 .L0 
C:\Users\stapi\AppData\Local\Temp\ccmnwr16.s:3451   .text.timer_external_clock_mode1_config:0000000000000022 .L0 
C:\Users\stapi\AppData\Local\Temp\ccmnwr16.s:3452   .text.timer_external_clock_mode1_config:0000000000000022 .L0 
C:\Users\stapi\AppData\Local\Temp\ccmnwr16.s:3453   .text.timer_external_clock_mode1_config:0000000000000022 .L0 
C:\Users\stapi\AppData\Local\Temp\ccmnwr16.s:3460   .text.timer_external_clock_mode1_disable:0000000000000000 timer_external_clock_mode1_disable
C:\Users\stapi\AppData\Local\Temp\ccmnwr16.s:3463   .text.timer_external_clock_mode1_disable:0000000000000000 .L0 
C:\Users\stapi\AppData\Local\Temp\ccmnwr16.s:3465   .text.timer_external_clock_mode1_disable:0000000000000000 .L0 
C:\Users\stapi\AppData\Local\Temp\ccmnwr16.s:3466   .text.timer_external_clock_mode1_disable:0000000000000000 .L0 
C:\Users\stapi\AppData\Local\Temp\ccmnwr16.s:3467   .text.timer_external_clock_mode1_disable:0000000000000000 .L0 
C:\Users\stapi\AppData\Local\Temp\ccmnwr16.s:3471   .text.timer_external_clock_mode1_disable:0000000000000008 .L0 
C:\Users\stapi\AppData\Local\Temp\ccmnwr16.s:3472   .text.timer_external_clock_mode1_disable:000000000000000a .L0 
C:\Users\stapi\AppData\Local\Temp\ccmnwr16.s:3479   .text.timer_write_chxval_register_config:0000000000000000 timer_write_chxval_register_config
C:\Users\stapi\AppData\Local\Temp\ccmnwr16.s:3482   .text.timer_write_chxval_register_config:0000000000000000 .L0 
C:\Users\stapi\AppData\Local\Temp\ccmnwr16.s:3484   .text.timer_write_chxval_register_config:0000000000000000 .L0 
C:\Users\stapi\AppData\Local\Temp\ccmnwr16.s:3485   .text.timer_write_chxval_register_config:0000000000000000 .L0 
C:\Users\stapi\AppData\Local\Temp\ccmnwr16.s:3486   .text.timer_write_chxval_register_config:0000000000000000 .L0 
C:\Users\stapi\AppData\Local\Temp\ccmnwr16.s:3489   .text.timer_write_chxval_register_config:0000000000000006 .L0 
C:\Users\stapi\AppData\Local\Temp\ccmnwr16.s:3490   .text.timer_write_chxval_register_config:0000000000000006 .L0 
C:\Users\stapi\AppData\Local\Temp\ccmnwr16.s:3494   .text.timer_write_chxval_register_config:000000000000000e .L0 
C:\Users\stapi\AppData\Local\Temp\ccmnwr16.s:3497   .text.timer_write_chxval_register_config:0000000000000012 .L0 
C:\Users\stapi\AppData\Local\Temp\ccmnwr16.s:3498   .text.timer_write_chxval_register_config:0000000000000012 .L0 
C:\Users\stapi\AppData\Local\Temp\ccmnwr16.s:3501   .text.timer_write_chxval_register_config:0000000000000014 .L0 
C:\Users\stapi\AppData\Local\Temp\ccmnwr16.s:3502   .text.timer_write_chxval_register_config:0000000000000014 .L0 
C:\Users\stapi\AppData\Local\Temp\ccmnwr16.s:3504   .text.timer_write_chxval_register_config:0000000000000016 .L0 
C:\Users\stapi\AppData\Local\Temp\ccmnwr16.s:3505   .text.timer_write_chxval_register_config:0000000000000016 .L0 
C:\Users\stapi\AppData\Local\Temp\ccmnwr16.s:3508   .text.timer_write_chxval_register_config:000000000000001e .L0 
C:\Users\stapi\AppData\Local\Temp\ccmnwr16.s:3515   .text.timer_output_value_selection_config:0000000000000000 timer_output_value_selection_config
C:\Users\stapi\AppData\Local\Temp\ccmnwr16.s:3518   .text.timer_output_value_selection_config:0000000000000000 .L0 
C:\Users\stapi\AppData\Local\Temp\ccmnwr16.s:3520   .text.timer_output_value_selection_config:0000000000000000 .L0 
C:\Users\stapi\AppData\Local\Temp\ccmnwr16.s:3521   .text.timer_output_value_selection_config:0000000000000000 .L0 
C:\Users\stapi\AppData\Local\Temp\ccmnwr16.s:3522   .text.timer_output_value_selection_config:0000000000000000 .L0 
C:\Users\stapi\AppData\Local\Temp\ccmnwr16.s:3525   .text.timer_output_value_selection_config:0000000000000006 .L0 
C:\Users\stapi\AppData\Local\Temp\ccmnwr16.s:3526   .text.timer_output_value_selection_config:0000000000000006 .L0 
C:\Users\stapi\AppData\Local\Temp\ccmnwr16.s:3530   .text.timer_output_value_selection_config:000000000000000e .L0 
C:\Users\stapi\AppData\Local\Temp\ccmnwr16.s:3533   .text.timer_output_value_selection_config:0000000000000012 .L0 
C:\Users\stapi\AppData\Local\Temp\ccmnwr16.s:3534   .text.timer_output_value_selection_config:0000000000000012 .L0 
C:\Users\stapi\AppData\Local\Temp\ccmnwr16.s:3537   .text.timer_output_value_selection_config:0000000000000014 .L0 
C:\Users\stapi\AppData\Local\Temp\ccmnwr16.s:3538   .text.timer_output_value_selection_config:0000000000000014 .L0 
C:\Users\stapi\AppData\Local\Temp\ccmnwr16.s:3540   .text.timer_output_value_selection_config:0000000000000016 .L0 
C:\Users\stapi\AppData\Local\Temp\ccmnwr16.s:3541   .text.timer_output_value_selection_config:0000000000000016 .L0 
C:\Users\stapi\AppData\Local\Temp\ccmnwr16.s:3544   .text.timer_output_value_selection_config:000000000000001e .L0 
C:\Users\stapi\AppData\Local\Temp\ccmnwr16.s:3551   .text.timer_flag_get:0000000000000000 timer_flag_get
C:\Users\stapi\AppData\Local\Temp\ccmnwr16.s:3554   .text.timer_flag_get:0000000000000000 .L0 
C:\Users\stapi\AppData\Local\Temp\ccmnwr16.s:3556   .text.timer_flag_get:0000000000000000 .L0 
C:\Users\stapi\AppData\Local\Temp\ccmnwr16.s:3557   .text.timer_flag_get:0000000000000000 .L0 
C:\Users\stapi\AppData\Local\Temp\ccmnwr16.s:3558   .text.timer_flag_get:0000000000000000 .L0 
C:\Users\stapi\AppData\Local\Temp\ccmnwr16.s:3561   .text.timer_flag_get:0000000000000002 .L0 
C:\Users\stapi\AppData\Local\Temp\ccmnwr16.s:3563   .text.timer_flag_get:0000000000000004 .L0 
C:\Users\stapi\AppData\Local\Temp\ccmnwr16.s:3565   .text.timer_flag_get:000000000000000a .L0 
C:\Users\stapi\AppData\Local\Temp\ccmnwr16.s:3572   .text.timer_flag_clear:0000000000000000 timer_flag_clear
C:\Users\stapi\AppData\Local\Temp\ccmnwr16.s:3575   .text.timer_flag_clear:0000000000000000 .L0 
C:\Users\stapi\AppData\Local\Temp\ccmnwr16.s:3577   .text.timer_flag_clear:0000000000000000 .L0 
C:\Users\stapi\AppData\Local\Temp\ccmnwr16.s:3578   .text.timer_flag_clear:0000000000000000 .L0 
C:\Users\stapi\AppData\Local\Temp\ccmnwr16.s:3579   .text.timer_flag_clear:0000000000000000 .L0 
C:\Users\stapi\AppData\Local\Temp\ccmnwr16.s:3582   .text.timer_flag_clear:0000000000000004 .L0 
C:\Users\stapi\AppData\Local\Temp\ccmnwr16.s:3584   .text.timer_flag_clear:0000000000000006 .L0 
C:\Users\stapi\AppData\Local\Temp\ccmnwr16.s:3585   .text.timer_flag_clear:0000000000000008 .L0 
C:\Users\stapi\AppData\Local\Temp\ccmnwr16.s:3592   .text.timer_interrupt_enable:0000000000000000 timer_interrupt_enable
C:\Users\stapi\AppData\Local\Temp\ccmnwr16.s:3595   .text.timer_interrupt_enable:0000000000000000 .L0 
C:\Users\stapi\AppData\Local\Temp\ccmnwr16.s:3597   .text.timer_interrupt_enable:0000000000000000 .L0 
C:\Users\stapi\AppData\Local\Temp\ccmnwr16.s:3598   .text.timer_interrupt_enable:0000000000000000 .L0 
C:\Users\stapi\AppData\Local\Temp\ccmnwr16.s:3599   .text.timer_interrupt_enable:0000000000000000 .L0 
C:\Users\stapi\AppData\Local\Temp\ccmnwr16.s:3603   .text.timer_interrupt_enable:0000000000000006 .L0 
C:\Users\stapi\AppData\Local\Temp\ccmnwr16.s:3604   .text.timer_interrupt_enable:0000000000000008 .L0 
C:\Users\stapi\AppData\Local\Temp\ccmnwr16.s:3611   .text.timer_interrupt_disable:0000000000000000 timer_interrupt_disable
C:\Users\stapi\AppData\Local\Temp\ccmnwr16.s:3614   .text.timer_interrupt_disable:0000000000000000 .L0 
C:\Users\stapi\AppData\Local\Temp\ccmnwr16.s:3616   .text.timer_interrupt_disable:0000000000000000 .L0 
C:\Users\stapi\AppData\Local\Temp\ccmnwr16.s:3617   .text.timer_interrupt_disable:0000000000000000 .L0 
C:\Users\stapi\AppData\Local\Temp\ccmnwr16.s:3618   .text.timer_interrupt_disable:0000000000000000 .L0 
C:\Users\stapi\AppData\Local\Temp\ccmnwr16.s:3623   .text.timer_interrupt_disable:0000000000000008 .L0 
C:\Users\stapi\AppData\Local\Temp\ccmnwr16.s:3624   .text.timer_interrupt_disable:000000000000000a .L0 
C:\Users\stapi\AppData\Local\Temp\ccmnwr16.s:3631   .text.timer_interrupt_flag_get:0000000000000000 timer_interrupt_flag_get
C:\Users\stapi\AppData\Local\Temp\ccmnwr16.s:3634   .text.timer_interrupt_flag_get:0000000000000000 .L0 
C:\Users\stapi\AppData\Local\Temp\ccmnwr16.s:3636   .text.timer_interrupt_flag_get:0000000000000000 .L0 
C:\Users\stapi\AppData\Local\Temp\ccmnwr16.s:3637   .text.timer_interrupt_flag_get:0000000000000000 .L0 
C:\Users\stapi\AppData\Local\Temp\ccmnwr16.s:3638   .text.timer_interrupt_flag_get:0000000000000000 .L0 
C:\Users\stapi\AppData\Local\Temp\ccmnwr16.s:3639   .text.timer_interrupt_flag_get:0000000000000000 .L0 
C:\Users\stapi\AppData\Local\Temp\ccmnwr16.s:3642   .text.timer_interrupt_flag_get:0000000000000002 .L0 
C:\Users\stapi\AppData\Local\Temp\ccmnwr16.s:3643   .text.timer_interrupt_flag_get:0000000000000002 .L0 
C:\Users\stapi\AppData\Local\Temp\ccmnwr16.s:3646   .text.timer_interrupt_flag_get:0000000000000004 .L0 
C:\Users\stapi\AppData\Local\Temp\ccmnwr16.s:3648   .text.timer_interrupt_flag_get:0000000000000006 .L0 
C:\Users\stapi\AppData\Local\Temp\ccmnwr16.s:3650   .text.timer_interrupt_flag_get:0000000000000008 .L0 
C:\Users\stapi\AppData\Local\Temp\ccmnwr16.s:3653   .text.timer_interrupt_flag_get:000000000000000a .L0 
C:\Users\stapi\AppData\Local\Temp\ccmnwr16.s:3657   .text.timer_interrupt_flag_get:000000000000000e .L0 
C:\Users\stapi\AppData\Local\Temp\ccmnwr16.s:3658   .text.timer_interrupt_flag_get:0000000000000010 .L0 
C:\Users\stapi\AppData\Local\Temp\ccmnwr16.s:3665   .text.timer_interrupt_flag_clear:0000000000000000 timer_interrupt_flag_clear
C:\Users\stapi\AppData\Local\Temp\ccmnwr16.s:3667   .text.timer_interrupt_flag_clear:0000000000000000 .L0 
C:\Users\stapi\AppData\Local\Temp\ccmnwr16.s:3671   .text.timer_interrupt_flag_clear:0000000000000008 .L0 
C:\Users\stapi\AppData\Local\Temp\ccmnwr16.s:122    .text.timer_deinit:00000000000000c4 .L0 
C:\Users\stapi\AppData\Local\Temp\ccmnwr16.s:155    .text.timer_struct_para_init:0000000000000018 .L0 
C:\Users\stapi\AppData\Local\Temp\ccmnwr16.s:253    .text.timer_init:0000000000000082 .L0 
C:\Users\stapi\AppData\Local\Temp\ccmnwr16.s:272    .text.timer_enable:000000000000000a .L0 
C:\Users\stapi\AppData\Local\Temp\ccmnwr16.s:291    .text.timer_disable:0000000000000008 .L0 
C:\Users\stapi\AppData\Local\Temp\ccmnwr16.s:310    .text.timer_auto_reload_shadow_enable:000000000000000a .L0 
C:\Users\stapi\AppData\Local\Temp\ccmnwr16.s:329    .text.timer_auto_reload_shadow_disable:000000000000000a .L0 
C:\Users\stapi\AppData\Local\Temp\ccmnwr16.s:348    .text.timer_update_event_enable:0000000000000008 .L0 
C:\Users\stapi\AppData\Local\Temp\ccmnwr16.s:367    .text.timer_update_event_disable:000000000000000a .L0 
C:\Users\stapi\AppData\Local\Temp\ccmnwr16.s:392    .text.timer_counter_alignment:0000000000000010 .L0 
C:\Users\stapi\AppData\Local\Temp\ccmnwr16.s:411    .text.timer_counter_up_direction:0000000000000008 .L0 
C:\Users\stapi\AppData\Local\Temp\ccmnwr16.s:430    .text.timer_counter_down_direction:000000000000000a .L0 
C:\Users\stapi\AppData\Local\Temp\ccmnwr16.s:456    .text.timer_prescaler_config:000000000000000e .L0 
C:\Users\stapi\AppData\Local\Temp\ccmnwr16.s:473    .text.timer_repetition_value_config:0000000000000004 .L0 
C:\Users\stapi\AppData\Local\Temp\ccmnwr16.s:490    .text.timer_autoreload_value_config:0000000000000004 .L0 
C:\Users\stapi\AppData\Local\Temp\ccmnwr16.s:507    .text.timer_counter_value_config:0000000000000004 .L0 
C:\Users\stapi\AppData\Local\Temp\ccmnwr16.s:527    .text.timer_counter_read:0000000000000004 .L0 
C:\Users\stapi\AppData\Local\Temp\ccmnwr16.s:548    .text.timer_prescaler_read:0000000000000008 .L0 
C:\Users\stapi\AppData\Local\Temp\ccmnwr16.s:584    .text.timer_single_pulse_mode_config:0000000000000018 .L0 
C:\Users\stapi\AppData\Local\Temp\ccmnwr16.s:620    .text.timer_update_source_config:0000000000000018 .L0 
C:\Users\stapi\AppData\Local\Temp\ccmnwr16.s:640    .text.timer_dma_enable:0000000000000008 .L0 
C:\Users\stapi\AppData\Local\Temp\ccmnwr16.s:660    .text.timer_dma_disable:000000000000000a .L0 
C:\Users\stapi\AppData\Local\Temp\ccmnwr16.s:696    .text.timer_channel_dma_request_source_select:0000000000000018 .L0 
C:\Users\stapi\AppData\Local\Temp\ccmnwr16.s:726    .text.timer_dma_transfer_config:0000000000000016 .L0 
C:\Users\stapi\AppData\Local\Temp\ccmnwr16.s:746    .text.timer_event_software_generate:0000000000000008 .L0 
C:\Users\stapi\AppData\Local\Temp\ccmnwr16.s:777    .text.timer_break_struct_para_init:0000000000000016 .L0 
C:\Users\stapi\AppData\Local\Temp\ccmnwr16.s:814    .text.timer_break_config:0000000000000032 .L0 
C:\Users\stapi\AppData\Local\Temp\ccmnwr16.s:833    .text.timer_break_enable:000000000000000a .L0 
C:\Users\stapi\AppData\Local\Temp\ccmnwr16.s:852    .text.timer_break_disable:000000000000000a .L0 
C:\Users\stapi\AppData\Local\Temp\ccmnwr16.s:871    .text.timer_automatic_output_enable:000000000000000a .L0 
C:\Users\stapi\AppData\Local\Temp\ccmnwr16.s:890    .text.timer_automatic_output_disable:000000000000000a .L0 
C:\Users\stapi\AppData\Local\Temp\ccmnwr16.s:921    .text.timer_primary_output_config:0000000000000018 .L0 
C:\Users\stapi\AppData\Local\Temp\ccmnwr16.s:952    .text.timer_channel_control_shadow_config:0000000000000016 .L0 
C:\Users\stapi\AppData\Local\Temp\ccmnwr16.s:988    .text.timer_channel_control_shadow_update_config:0000000000000018 .L0 
C:\Users\stapi\AppData\Local\Temp\ccmnwr16.s:1016   .text.timer_channel_output_struct_para_init:0000000000000012 .L0 
C:\Users\stapi\AppData\Local\Temp\ccmnwr16.s:1378   .text.timer_channel_output_config:00000000000001de .L0 
C:\Users\stapi\AppData\Local\Temp\ccmnwr16.s:1465   .text.timer_channel_output_mode_config:0000000000000054 .L0 
C:\Users\stapi\AppData\Local\Temp\ccmnwr16.s:1511   .text.timer_channel_output_pulse_value_config:0000000000000024 .L0 
C:\Users\stapi\AppData\Local\Temp\ccmnwr16.s:1596   .text.timer_channel_output_shadow_config:000000000000004c .L0 
C:\Users\stapi\AppData\Local\Temp\ccmnwr16.s:1681   .text.timer_channel_output_fast_config:000000000000004c .L0 
C:\Users\stapi\AppData\Local\Temp\ccmnwr16.s:1766   .text.timer_channel_output_clear_config:0000000000000050 .L0 
C:\Users\stapi\AppData\Local\Temp\ccmnwr16.s:1849   .text.timer_channel_output_polarity_config:000000000000004c .L0 
C:\Users\stapi\AppData\Local\Temp\ccmnwr16.s:1914   .text.timer_channel_complementary_output_polarity_config:0000000000000038 .L0 
C:\Users\stapi\AppData\Local\Temp\ccmnwr16.s:1997   .text.timer_channel_output_state_config:000000000000004a .L0 
C:\Users\stapi\AppData\Local\Temp\ccmnwr16.s:2062   .text.timer_channel_complementary_output_state_config:0000000000000038 .L0 
C:\Users\stapi\AppData\Local\Temp\ccmnwr16.s:2090   .text.timer_channel_input_struct_para_init:0000000000000014 .L0 
C:\Users\stapi\AppData\Local\Temp\ccmnwr16.s:2177   .text.timer_channel_input_capture_prescaler_config:0000000000000054 .L0 
C:\Users\stapi\AppData\Local\Temp\ccmnwr16.s:2425   .text.timer_input_capture_config:000000000000015c .L0 
C:\Users\stapi\AppData\Local\Temp\ccmnwr16.s:2483   .text.timer_channel_capture_value_register_read:0000000000000026 .L0 
C:\Users\stapi\AppData\Local\Temp\ccmnwr16.s:2783   .text.timer_input_pwm_capture_config:0000000000000166 .L0 
C:\Users\stapi\AppData\Local\Temp\ccmnwr16.s:2819   .text.timer_hall_mode_config:000000000000001a .L0 
C:\Users\stapi\AppData\Local\Temp\ccmnwr16.s:2919   .text.timer_input_trigger_source_select:000000000000006c .L0 
C:\Users\stapi\AppData\Local\Temp\ccmnwr16.s:2943   .text.timer_master_output_trigger_source_select:0000000000000010 .L0 
C:\Users\stapi\AppData\Local\Temp\ccmnwr16.s:3047   .text.timer_slave_mode_select:000000000000007e .L0 
C:\Users\stapi\AppData\Local\Temp\ccmnwr16.s:3083   .text.timer_master_slave_mode_config:000000000000001a .L0 
C:\Users\stapi\AppData\Local\Temp\ccmnwr16.s:3121   .text.timer_external_trigger_config:000000000000001e .L0 
C:\Users\stapi\AppData\Local\Temp\ccmnwr16.s:3184   .text.timer_quadrature_decoder_mode_config:0000000000000048 .L0 
C:\Users\stapi\AppData\Local\Temp\ccmnwr16.s:3200   .text.timer_internal_clock_config:000000000000000a .L0 
C:\Users\stapi\AppData\Local\Temp\ccmnwr16.s:3239   .text.timer_internal_trigger_as_external_clock_config:000000000000002a .L0 
C:\Users\stapi\AppData\Local\Temp\ccmnwr16.s:3387   .text.timer_external_trigger_as_external_clock_config:00000000000000ac .L0 
C:\Users\stapi\AppData\Local\Temp\ccmnwr16.s:3424   .text.timer_external_clock_mode0_config:0000000000000032 .L0 
C:\Users\stapi\AppData\Local\Temp\ccmnwr16.s:3456   .text.timer_external_clock_mode1_config:0000000000000022 .L0 
C:\Users\stapi\AppData\Local\Temp\ccmnwr16.s:3475   .text.timer_external_clock_mode1_disable:000000000000000a .L0 
C:\Users\stapi\AppData\Local\Temp\ccmnwr16.s:3511   .text.timer_write_chxval_register_config:000000000000001e .L0 
C:\Users\stapi\AppData\Local\Temp\ccmnwr16.s:3547   .text.timer_output_value_selection_config:000000000000001e .L0 
C:\Users\stapi\AppData\Local\Temp\ccmnwr16.s:3568   .text.timer_flag_get:000000000000000a .L0 
C:\Users\stapi\AppData\Local\Temp\ccmnwr16.s:3588   .text.timer_flag_clear:0000000000000008 .L0 
C:\Users\stapi\AppData\Local\Temp\ccmnwr16.s:3607   .text.timer_interrupt_enable:0000000000000008 .L0 
C:\Users\stapi\AppData\Local\Temp\ccmnwr16.s:3627   .text.timer_interrupt_disable:000000000000000a .L0 
C:\Users\stapi\AppData\Local\Temp\ccmnwr16.s:3661   .text.timer_interrupt_flag_get:0000000000000010 .L0 
                     .debug_frame:0000000000000000 .L0 
C:\Users\stapi\AppData\Local\Temp\ccmnwr16.s:59     .text.timer_deinit:0000000000000058 .L2
C:\Users\stapi\AppData\Local\Temp\ccmnwr16.s:42     .text.timer_deinit:0000000000000034 .L3
C:\Users\stapi\AppData\Local\Temp\ccmnwr16.s:87     .text.timer_deinit:0000000000000088 .L4
C:\Users\stapi\AppData\Local\Temp\ccmnwr16.s:98     .text.timer_deinit:000000000000009c .L5
C:\Users\stapi\AppData\Local\Temp\ccmnwr16.s:76     .text.timer_deinit:0000000000000074 .L6
C:\Users\stapi\AppData\Local\Temp\ccmnwr16.s:109    .text.timer_deinit:00000000000000b0 .L8
C:\Users\stapi\AppData\Local\Temp\ccmnwr16.s:34     .text.timer_deinit:000000000000002c .L1
C:\Users\stapi\AppData\Local\Temp\ccmnwr16.s:68     .text.timer_deinit:000000000000006a .L11
C:\Users\stapi\AppData\Local\Temp\ccmnwr16.s:177    .text.timer_init:000000000000001a .L14
C:\Users\stapi\AppData\Local\Temp\ccmnwr16.s:203    .text.timer_init:000000000000003c .L15
C:\Users\stapi\AppData\Local\Temp\ccmnwr16.s:242    .text.timer_init:0000000000000078 .L17
C:\Users\stapi\AppData\Local\Temp\ccmnwr16.s:236    .text.timer_init:0000000000000072 .L18
C:\Users\stapi\AppData\Local\Temp\ccmnwr16.s:450    .text.timer_prescaler_config:000000000000000c .L29
C:\Users\stapi\AppData\Local\Temp\ccmnwr16.s:571    .text.timer_single_pulse_mode_config:000000000000000c .L37
C:\Users\stapi\AppData\Local\Temp\ccmnwr16.s:568    .text.timer_single_pulse_mode_config:000000000000000a .L36
C:\Users\stapi\AppData\Local\Temp\ccmnwr16.s:564    .text.timer_single_pulse_mode_config:0000000000000008 .L39
C:\Users\stapi\AppData\Local\Temp\ccmnwr16.s:607    .text.timer_update_source_config:000000000000000c .L41
C:\Users\stapi\AppData\Local\Temp\ccmnwr16.s:604    .text.timer_update_source_config:000000000000000a .L40
C:\Users\stapi\AppData\Local\Temp\ccmnwr16.s:600    .text.timer_update_source_config:0000000000000008 .L43
C:\Users\stapi\AppData\Local\Temp\ccmnwr16.s:683    .text.timer_channel_dma_request_source_select:000000000000000c .L47
C:\Users\stapi\AppData\Local\Temp\ccmnwr16.s:680    .text.timer_channel_dma_request_source_select:000000000000000a .L46
C:\Users\stapi\AppData\Local\Temp\ccmnwr16.s:676    .text.timer_channel_dma_request_source_select:0000000000000008 .L49
C:\Users\stapi\AppData\Local\Temp\ccmnwr16.s:912    .text.timer_primary_output_config:0000000000000010 .L59
C:\Users\stapi\AppData\Local\Temp\ccmnwr16.s:907    .text.timer_primary_output_config:000000000000000c .L61
C:\Users\stapi\AppData\Local\Temp\ccmnwr16.s:943    .text.timer_channel_control_shadow_config:0000000000000010 .L63
C:\Users\stapi\AppData\Local\Temp\ccmnwr16.s:938    .text.timer_channel_control_shadow_config:000000000000000c .L65
C:\Users\stapi\AppData\Local\Temp\ccmnwr16.s:975    .text.timer_channel_control_shadow_update_config:000000000000000a .L67
C:\Users\stapi\AppData\Local\Temp\ccmnwr16.s:972    .text.timer_channel_control_shadow_update_config:0000000000000008 .L66
C:\Users\stapi\AppData\Local\Temp\ccmnwr16.s:968    .text.timer_channel_control_shadow_update_config:0000000000000006 .L69
C:\Users\stapi\AppData\Local\Temp\ccmnwr16.s:1224   .text.timer_channel_output_config:0000000000000114 .L72
C:\Users\stapi\AppData\Local\Temp\ccmnwr16.s:1123   .text.timer_channel_output_config:000000000000008e .L73
C:\Users\stapi\AppData\Local\Temp\ccmnwr16.s:1128   .text.timer_channel_output_config:0000000000000096 .L80
C:\Users\stapi\AppData\Local\Temp\ccmnwr16.s:1066   .text.timer_channel_output_config:0000000000000048 .L78
C:\Users\stapi\AppData\Local\Temp\ccmnwr16.s:1120   .text.timer_channel_output_config:000000000000008c .L71
C:\Users\stapi\AppData\Local\Temp\ccmnwr16.s:1322   .text.timer_channel_output_config:0000000000000196 .L76
C:\Users\stapi\AppData\Local\Temp\ccmnwr16.s:1116   .text.timer_channel_output_config:0000000000000088 .L81
C:\Users\stapi\AppData\Local\Temp\ccmnwr16.s:1429   .text.timer_channel_output_mode_config:0000000000000034 .L83
C:\Users\stapi\AppData\Local\Temp\ccmnwr16.s:1408   .text.timer_channel_output_mode_config:000000000000001c .L84
C:\Users\stapi\AppData\Local\Temp\ccmnwr16.s:1413   .text.timer_channel_output_mode_config:0000000000000024 .L89
C:\Users\stapi\AppData\Local\Temp\ccmnwr16.s:1447   .text.timer_channel_output_mode_config:0000000000000044 .L87
C:\Users\stapi\AppData\Local\Temp\ccmnwr16.s:1401   .text.timer_channel_output_mode_config:0000000000000016 .L90
C:\Users\stapi\AppData\Local\Temp\ccmnwr16.s:1439   .text.timer_channel_output_mode_config:000000000000003e .L91
C:\Users\stapi\AppData\Local\Temp\ccmnwr16.s:1495   .text.timer_channel_output_pulse_value_config:000000000000001c .L93
C:\Users\stapi\AppData\Local\Temp\ccmnwr16.s:1484   .text.timer_channel_output_pulse_value_config:0000000000000010 .L94
C:\Users\stapi\AppData\Local\Temp\ccmnwr16.s:1489   .text.timer_channel_output_pulse_value_config:0000000000000018 .L99
C:\Users\stapi\AppData\Local\Temp\ccmnwr16.s:1501   .text.timer_channel_output_pulse_value_config:0000000000000020 .L97
C:\Users\stapi\AppData\Local\Temp\ccmnwr16.s:1561   .text.timer_channel_output_shadow_config:0000000000000030 .L101
C:\Users\stapi\AppData\Local\Temp\ccmnwr16.s:1541   .text.timer_channel_output_shadow_config:000000000000001a .L102
C:\Users\stapi\AppData\Local\Temp\ccmnwr16.s:1546   .text.timer_channel_output_shadow_config:0000000000000022 .L107
C:\Users\stapi\AppData\Local\Temp\ccmnwr16.s:1579   .text.timer_channel_output_shadow_config:000000000000003e .L105
C:\Users\stapi\AppData\Local\Temp\ccmnwr16.s:1534   .text.timer_channel_output_shadow_config:0000000000000014 .L108
C:\Users\stapi\AppData\Local\Temp\ccmnwr16.s:1571   .text.timer_channel_output_shadow_config:0000000000000038 .L109
C:\Users\stapi\AppData\Local\Temp\ccmnwr16.s:1646   .text.timer_channel_output_fast_config:0000000000000030 .L111
C:\Users\stapi\AppData\Local\Temp\ccmnwr16.s:1626   .text.timer_channel_output_fast_config:000000000000001a .L112
C:\Users\stapi\AppData\Local\Temp\ccmnwr16.s:1631   .text.timer_channel_output_fast_config:0000000000000022 .L117
C:\Users\stapi\AppData\Local\Temp\ccmnwr16.s:1664   .text.timer_channel_output_fast_config:000000000000003e .L115
C:\Users\stapi\AppData\Local\Temp\ccmnwr16.s:1619   .text.timer_channel_output_fast_config:0000000000000014 .L118
C:\Users\stapi\AppData\Local\Temp\ccmnwr16.s:1656   .text.timer_channel_output_fast_config:0000000000000038 .L119
C:\Users\stapi\AppData\Local\Temp\ccmnwr16.s:1731   .text.timer_channel_output_clear_config:0000000000000032 .L121
C:\Users\stapi\AppData\Local\Temp\ccmnwr16.s:1711   .text.timer_channel_output_clear_config:000000000000001c .L122
C:\Users\stapi\AppData\Local\Temp\ccmnwr16.s:1716   .text.timer_channel_output_clear_config:0000000000000024 .L127
C:\Users\stapi\AppData\Local\Temp\ccmnwr16.s:1749   .text.timer_channel_output_clear_config:0000000000000042 .L125
C:\Users\stapi\AppData\Local\Temp\ccmnwr16.s:1704   .text.timer_channel_output_clear_config:0000000000000016 .L128
C:\Users\stapi\AppData\Local\Temp\ccmnwr16.s:1741   .text.timer_channel_output_clear_config:000000000000003c .L129
C:\Users\stapi\AppData\Local\Temp\ccmnwr16.s:1817   .text.timer_channel_output_polarity_config:0000000000000030 .L131
C:\Users\stapi\AppData\Local\Temp\ccmnwr16.s:1797   .text.timer_channel_output_polarity_config:000000000000001a .L132
C:\Users\stapi\AppData\Local\Temp\ccmnwr16.s:1802   .text.timer_channel_output_polarity_config:0000000000000022 .L137
C:\Users\stapi\AppData\Local\Temp\ccmnwr16.s:1832   .text.timer_channel_output_polarity_config:000000000000003e .L135
C:\Users\stapi\AppData\Local\Temp\ccmnwr16.s:1789   .text.timer_channel_output_polarity_config:0000000000000014 .L138
C:\Users\stapi\AppData\Local\Temp\ccmnwr16.s:1882   .text.timer_channel_complementary_output_polarity_config:000000000000001c .L140
C:\Users\stapi\AppData\Local\Temp\ccmnwr16.s:1897   .text.timer_channel_complementary_output_polarity_config:000000000000002a .L141
C:\Users\stapi\AppData\Local\Temp\ccmnwr16.s:1878   .text.timer_channel_complementary_output_polarity_config:000000000000001a .L139
C:\Users\stapi\AppData\Local\Temp\ccmnwr16.s:1873   .text.timer_channel_complementary_output_polarity_config:0000000000000016 .L143
C:\Users\stapi\AppData\Local\Temp\ccmnwr16.s:1965   .text.timer_channel_output_state_config:000000000000002e .L145
C:\Users\stapi\AppData\Local\Temp\ccmnwr16.s:1945   .text.timer_channel_output_state_config:000000000000001a .L146
C:\Users\stapi\AppData\Local\Temp\ccmnwr16.s:1950   .text.timer_channel_output_state_config:0000000000000022 .L151
C:\Users\stapi\AppData\Local\Temp\ccmnwr16.s:1980   .text.timer_channel_output_state_config:000000000000003c .L149
C:\Users\stapi\AppData\Local\Temp\ccmnwr16.s:1937   .text.timer_channel_output_state_config:0000000000000014 .L152
C:\Users\stapi\AppData\Local\Temp\ccmnwr16.s:2030   .text.timer_channel_complementary_output_state_config:000000000000001c .L154
C:\Users\stapi\AppData\Local\Temp\ccmnwr16.s:2045   .text.timer_channel_complementary_output_state_config:000000000000002a .L155
C:\Users\stapi\AppData\Local\Temp\ccmnwr16.s:2026   .text.timer_channel_complementary_output_state_config:000000000000001a .L153
C:\Users\stapi\AppData\Local\Temp\ccmnwr16.s:2021   .text.timer_channel_complementary_output_state_config:0000000000000016 .L157
C:\Users\stapi\AppData\Local\Temp\ccmnwr16.s:2141   .text.timer_channel_input_capture_prescaler_config:0000000000000034 .L160
C:\Users\stapi\AppData\Local\Temp\ccmnwr16.s:2120   .text.timer_channel_input_capture_prescaler_config:000000000000001a .L161
C:\Users\stapi\AppData\Local\Temp\ccmnwr16.s:2125   .text.timer_channel_input_capture_prescaler_config:0000000000000022 .L166
C:\Users\stapi\AppData\Local\Temp\ccmnwr16.s:2159   .text.timer_channel_input_capture_prescaler_config:0000000000000042 .L164
C:\Users\stapi\AppData\Local\Temp\ccmnwr16.s:2113   .text.timer_channel_input_capture_prescaler_config:0000000000000014 .L167
C:\Users\stapi\AppData\Local\Temp\ccmnwr16.s:2151   .text.timer_channel_input_capture_prescaler_config:000000000000003c .L168
C:\Users\stapi\AppData\Local\Temp\ccmnwr16.s:2302   .text.timer_input_capture_config:00000000000000c0 .L170
C:\Users\stapi\AppData\Local\Temp\ccmnwr16.s:2241   .text.timer_input_capture_config:0000000000000060 .L171
C:\Users\stapi\AppData\Local\Temp\ccmnwr16.s:2251   .text.timer_input_capture_config:0000000000000072 .L176
C:\Users\stapi\AppData\Local\Temp\ccmnwr16.s:2245   .text.timer_input_capture_config:0000000000000066 .L175
C:\Users\stapi\AppData\Local\Temp\ccmnwr16.s:2360   .text.timer_input_capture_config:000000000000010c .L174
C:\Users\stapi\AppData\Local\Temp\ccmnwr16.s:2236   .text.timer_input_capture_config:000000000000005c .L178
C:\Users\stapi\AppData\Local\Temp\ccmnwr16.s:2463   .text.timer_channel_capture_value_register_read:000000000000001e .L180
C:\Users\stapi\AppData\Local\Temp\ccmnwr16.s:2447   .text.timer_channel_capture_value_register_read:0000000000000010 .L181
C:\Users\stapi\AppData\Local\Temp\ccmnwr16.s:2455   .text.timer_channel_capture_value_register_read:000000000000001a .L186
C:\Users\stapi\AppData\Local\Temp\ccmnwr16.s:2471   .text.timer_channel_capture_value_register_read:0000000000000022 .L184
C:\Users\stapi\AppData\Local\Temp\ccmnwr16.s:2524   .text.timer_input_pwm_capture_config:0000000000000024 .L189
C:\Users\stapi\AppData\Local\Temp\ccmnwr16.s:2665   .text.timer_input_pwm_capture_config:00000000000000d2 .L190
C:\Users\stapi\AppData\Local\Temp\ccmnwr16.s:2649   .text.timer_input_pwm_capture_config:00000000000000c0 .L196
C:\Users\stapi\AppData\Local\Temp\ccmnwr16.s:2806   .text.timer_hall_mode_config:000000000000000c .L198
C:\Users\stapi\AppData\Local\Temp\ccmnwr16.s:2803   .text.timer_hall_mode_config:000000000000000a .L197
C:\Users\stapi\AppData\Local\Temp\ccmnwr16.s:2799   .text.timer_hall_mode_config:0000000000000008 .L200
C:\Users\stapi\AppData\Local\Temp\ccmnwr16.s:2860   .text.timer_input_trigger_source_select:000000000000002a .L207
C:\Users\stapi\AppData\Local\Temp\ccmnwr16.s:2865   .text.timer_input_trigger_source_select:0000000000000034 .L208
C:\Users\stapi\AppData\Local\Temp\ccmnwr16.s:2910   .text.timer_input_trigger_source_select:0000000000000066 .L203
C:\Users\stapi\AppData\Local\Temp\ccmnwr16.s:2871   .text.timer_input_trigger_source_select:000000000000003e .L209
C:\Users\stapi\AppData\Local\Temp\ccmnwr16.s:2840   .text.timer_input_trigger_source_select:0000000000000020 .L202
C:\Users\stapi\AppData\Local\Temp\ccmnwr16.s:2898   .text.timer_input_trigger_source_select:000000000000005c .L206
C:\Users\stapi\AppData\Local\Temp\ccmnwr16.s:2878   .text.timer_input_trigger_source_select:0000000000000044 .L204
C:\Users\stapi\AppData\Local\Temp\ccmnwr16.s:2853   .text.timer_input_trigger_source_select:0000000000000026 .L205
C:\Users\stapi\AppData\Local\Temp\ccmnwr16.s:3028   .text.timer_slave_mode_select:0000000000000064 .L219
C:\Users\stapi\AppData\Local\Temp\ccmnwr16.s:3033   .text.timer_slave_mode_select:000000000000006e .L220
C:\Users\stapi\AppData\Local\Temp\ccmnwr16.s:3038   .text.timer_slave_mode_select:0000000000000078 .L215
C:\Users\stapi\AppData\Local\Temp\ccmnwr16.s:3016   .text.timer_slave_mode_select:000000000000005c .L224
C:\Users\stapi\AppData\Local\Temp\ccmnwr16.s:3005   .text.timer_slave_mode_select:000000000000004c .L218
C:\Users\stapi\AppData\Local\Temp\ccmnwr16.s:2985   .text.timer_slave_mode_select:0000000000000032 .L216
C:\Users\stapi\AppData\Local\Temp\ccmnwr16.s:2965   .text.timer_slave_mode_select:0000000000000020 .L214
C:\Users\stapi\AppData\Local\Temp\ccmnwr16.s:3070   .text.timer_master_slave_mode_config:000000000000000c .L226
C:\Users\stapi\AppData\Local\Temp\ccmnwr16.s:3067   .text.timer_master_slave_mode_config:000000000000000a .L225
C:\Users\stapi\AppData\Local\Temp\ccmnwr16.s:3063   .text.timer_master_slave_mode_config:0000000000000008 .L228
C:\Users\stapi\AppData\Local\Temp\ccmnwr16.s:3337   .text.timer_external_trigger_as_external_clock_config:0000000000000074 .L237
C:\Users\stapi\AppData\Local\Temp\ccmnwr16.s:3313   .text.timer_external_trigger_as_external_clock_config:0000000000000050 .L240
C:\Users\stapi\AppData\Local\Temp\ccmnwr16.s:3499   .text.timer_write_chxval_register_config:0000000000000014 .L247
C:\Users\stapi\AppData\Local\Temp\ccmnwr16.s:3496   .text.timer_write_chxval_register_config:0000000000000012 .L246
C:\Users\stapi\AppData\Local\Temp\ccmnwr16.s:3492   .text.timer_write_chxval_register_config:000000000000000e .L249
C:\Users\stapi\AppData\Local\Temp\ccmnwr16.s:3535   .text.timer_output_value_selection_config:0000000000000014 .L251
C:\Users\stapi\AppData\Local\Temp\ccmnwr16.s:3532   .text.timer_output_value_selection_config:0000000000000012 .L250
C:\Users\stapi\AppData\Local\Temp\ccmnwr16.s:3528   .text.timer_output_value_selection_config:000000000000000e .L253
C:\Users\stapi\AppData\Local\Temp\ccmnwr16.s:3655   .text.timer_interrupt_flag_get:000000000000000e .L258
C:\Users\stapi\AppData\Local\Temp\ccmnwr16.s:6452   .debug_abbrev:0000000000000000 .Ldebug_abbrev0
C:\Users\stapi\AppData\Local\Temp\ccmnwr16.s:9022   .debug_str:0000000000000523 .LASF198
C:\Users\stapi\AppData\Local\Temp\ccmnwr16.s:8972   .debug_str:000000000000032c .LASF199
C:\Users\stapi\AppData\Local\Temp\ccmnwr16.s:9262   .debug_str:0000000000000ea3 .LASF200
C:\Users\stapi\AppData\Local\Temp\ccmnwr16.s:8740   .debug_ranges:0000000000000000 .Ldebug_ranges0
C:\Users\stapi\AppData\Local\Temp\ccmnwr16.s:8884   .debug_line:0000000000000000 .Ldebug_line0
C:\Users\stapi\AppData\Local\Temp\ccmnwr16.s:9018   .debug_str:000000000000050a .LASF0
C:\Users\stapi\AppData\Local\Temp\ccmnwr16.s:8944   .debug_str:0000000000000222 .LASF1
C:\Users\stapi\AppData\Local\Temp\ccmnwr16.s:8910   .debug_str:00000000000000f7 .LASF4
C:\Users\stapi\AppData\Local\Temp\ccmnwr16.s:9146   .debug_str:0000000000000ab8 .LASF2
C:\Users\stapi\AppData\Local\Temp\ccmnwr16.s:9154   .debug_str:0000000000000ae9 .LASF3
C:\Users\stapi\AppData\Local\Temp\ccmnwr16.s:9202   .debug_str:0000000000000c57 .LASF5
C:\Users\stapi\AppData\Local\Temp\ccmnwr16.s:9226   .debug_str:0000000000000d5a .LASF6
C:\Users\stapi\AppData\Local\Temp\ccmnwr16.s:8966   .debug_str:00000000000002df .LASF7
C:\Users\stapi\AppData\Local\Temp\ccmnwr16.s:8998   .debug_str:0000000000000454 .LASF8
C:\Users\stapi\AppData\Local\Temp\ccmnwr16.s:9028   .debug_str:0000000000000647 .LASF9
C:\Users\stapi\AppData\Local\Temp\ccmnwr16.s:8942   .debug_str:0000000000000214 .LASF10
C:\Users\stapi\AppData\Local\Temp\ccmnwr16.s:8950   .debug_str:0000000000000248 .LASF11
C:\Users\stapi\AppData\Local\Temp\ccmnwr16.s:9192   .debug_str:0000000000000bfa .LASF12
C:\Users\stapi\AppData\Local\Temp\ccmnwr16.s:9256   .debug_str:0000000000000e5c .LASF13
C:\Users\stapi\AppData\Local\Temp\ccmnwr16.s:8976   .debug_str:00000000000003cd .LASF14
C:\Users\stapi\AppData\Local\Temp\ccmnwr16.s:8932   .debug_str:00000000000001cb .LASF15
C:\Users\stapi\AppData\Local\Temp\ccmnwr16.s:8920   .debug_str:0000000000000142 .LASF16
C:\Users\stapi\AppData\Local\Temp\ccmnwr16.s:8974   .debug_str:00000000000003c6 .LASF17
C:\Users\stapi\AppData\Local\Temp\ccmnwr16.s:8982   .debug_str:00000000000003f6 .LASF18
C:\Users\stapi\AppData\Local\Temp\ccmnwr16.s:9138   .debug_str:0000000000000a81 .LASF19
C:\Users\stapi\AppData\Local\Temp\ccmnwr16.s:8902   .debug_str:00000000000000ab .LASF20
C:\Users\stapi\AppData\Local\Temp\ccmnwr16.s:8992   .debug_str:000000000000042f .LASF21
C:\Users\stapi\AppData\Local\Temp\ccmnwr16.s:9036   .debug_str:00000000000006a7 .LASF22
C:\Users\stapi\AppData\Local\Temp\ccmnwr16.s:9106   .debug_str:0000000000000963 .LASF23
C:\Users\stapi\AppData\Local\Temp\ccmnwr16.s:9144   .debug_str:0000000000000aad .LASF24
C:\Users\stapi\AppData\Local\Temp\ccmnwr16.s:9272   .debug_str:0000000000000f76 .LASF25
C:\Users\stapi\AppData\Local\Temp\ccmnwr16.s:9230   .debug_str:0000000000000d76 .LASF26
C:\Users\stapi\AppData\Local\Temp\ccmnwr16.s:9104   .debug_str:0000000000000958 .LASF27
C:\Users\stapi\AppData\Local\Temp\ccmnwr16.s:9056   .debug_str:000000000000076c .LASF28
C:\Users\stapi\AppData\Local\Temp\ccmnwr16.s:9284   .debug_str:0000000000000fde .LASF29
C:\Users\stapi\AppData\Local\Temp\ccmnwr16.s:8958   .debug_str:000000000000028c .LASF30
C:\Users\stapi\AppData\Local\Temp\ccmnwr16.s:9152   .debug_str:0000000000000add .LASF31
C:\Users\stapi\AppData\Local\Temp\ccmnwr16.s:8994   .debug_str:000000000000043c .LASF32
C:\Users\stapi\AppData\Local\Temp\ccmnwr16.s:9240   .debug_str:0000000000000dc6 .LASF33
C:\Users\stapi\AppData\Local\Temp\ccmnwr16.s:9186   .debug_str:0000000000000bd2 .LASF34
C:\Users\stapi\AppData\Local\Temp\ccmnwr16.s:8940   .debug_str:0000000000000206 .LASF35
C:\Users\stapi\AppData\Local\Temp\ccmnwr16.s:8924   .debug_str:0000000000000174 .LASF36
C:\Users\stapi\AppData\Local\Temp\ccmnwr16.s:8894   .debug_str:0000000000000052 .LASF37
C:\Users\stapi\AppData\Local\Temp\ccmnwr16.s:8888   .debug_str:000000000000000e .LASF38
C:\Users\stapi\AppData\Local\Temp\ccmnwr16.s:9280   .debug_str:0000000000000fc2 .LASF39
C:\Users\stapi\AppData\Local\Temp\ccmnwr16.s:9048   .debug_str:000000000000072d .LASF40
C:\Users\stapi\AppData\Local\Temp\ccmnwr16.s:8996   .debug_str:0000000000000448 .LASF41
C:\Users\stapi\AppData\Local\Temp\ccmnwr16.s:9010   .debug_str:00000000000004c5 .LASF42
C:\Users\stapi\AppData\Local\Temp\ccmnwr16.s:9282   .debug_str:0000000000000fd0 .LASF43
C:\Users\stapi\AppData\Local\Temp\ccmnwr16.s:9254   .debug_str:0000000000000e4f .LASF44
C:\Users\stapi\AppData\Local\Temp\ccmnwr16.s:9004   .debug_str:000000000000048d .LASF45
C:\Users\stapi\AppData\Local\Temp\ccmnwr16.s:8956   .debug_str:0000000000000281 .LASF46
C:\Users\stapi\AppData\Local\Temp\ccmnwr16.s:8908   .debug_str:00000000000000e9 .LASF47
C:\Users\stapi\AppData\Local\Temp\ccmnwr16.s:9258   .debug_str:0000000000000e64 .LASF48
C:\Users\stapi\AppData\Local\Temp\ccmnwr16.s:9182   .debug_str:0000000000000bbe .LASF49
C:\Users\stapi\AppData\Local\Temp\ccmnwr16.s:9122   .debug_str:00000000000009ee .LASF50
C:\Users\stapi\AppData\Local\Temp\ccmnwr16.s:9126   .debug_str:0000000000000a01 .LASF51
C:\Users\stapi\AppData\Local\Temp\ccmnwr16.s:9096   .debug_str:0000000000000914 .LASF52
C:\Users\stapi\AppData\Local\Temp\ccmnwr16.s:9128   .debug_str:0000000000000a0b .LASF53
C:\Users\stapi\AppData\Local\Temp\ccmnwr16.s:8918   .debug_str:000000000000013b .LASF54
C:\Users\stapi\AppData\Local\Temp\ccmnwr16.s:8886   .debug_str:0000000000000000 .LASF55
C:\Users\stapi\AppData\Local\Temp\ccmnwr16.s:8912   .debug_str:0000000000000101 .LASF56
C:\Users\stapi\AppData\Local\Temp\ccmnwr16.s:9242   .debug_str:0000000000000dd4 .LASF57
C:\Users\stapi\AppData\Local\Temp\ccmnwr16.s:9008   .debug_str:00000000000004b9 .LASF58
C:\Users\stapi\AppData\Local\Temp\ccmnwr16.s:9066   .debug_str:00000000000007e0 .LASF59
C:\Users\stapi\AppData\Local\Temp\ccmnwr16.s:9206   .debug_str:0000000000000c6d .LASF60
C:\Users\stapi\AppData\Local\Temp\ccmnwr16.s:8980   .debug_str:00000000000003e8 .LASF61
C:\Users\stapi\AppData\Local\Temp\ccmnwr16.s:9078   .debug_str:000000000000083c .LASF62
C:\Users\stapi\AppData\Local\Temp\ccmnwr16.s:9266   .debug_str:0000000000000f51 .LASF63
C:\Users\stapi\AppData\Local\Temp\ccmnwr16.s:9098   .debug_str:0000000000000920 .LASF64
C:\Users\stapi\AppData\Local\Temp\ccmnwr16.s:9040   .debug_str:00000000000006d8 .LASF65
C:\Users\stapi\AppData\Local\Temp\ccmnwr16.s:9088   .debug_str:00000000000008cc .LASF66
C:\Users\stapi\AppData\Local\Temp\ccmnwr16.s:9118   .debug_str:00000000000009c9 .LASF67
C:\Users\stapi\AppData\Local\Temp\ccmnwr16.s:9148   .debug_str:0000000000000ac6 .LASF68
C:\Users\stapi\AppData\Local\Temp\ccmnwr16.s:8986   .debug_str:0000000000000410 .LASF69
C:\Users\stapi\AppData\Local\Temp\ccmnwr16.s:8938   .debug_str:00000000000001fa .LASF70
C:\Users\stapi\AppData\Local\Temp\ccmnwr16.s:9238   .debug_str:0000000000000db9 .LASF71
C:\Users\stapi\AppData\Local\Temp\ccmnwr16.s:8968   .debug_str:00000000000002e8 .LASF72
C:\Users\stapi\AppData\Local\Temp\ccmnwr16.s:9140   .debug_str:0000000000000a87 .LASF73
C:\Users\stapi\AppData\Local\Temp\ccmnwr16.s:8898   .debug_str:000000000000007c .LASF74
C:\Users\stapi\AppData\Local\Temp\ccmnwr16.s:9150   .debug_str:0000000000000ad1 .LASF75
C:\Users\stapi\AppData\Local\Temp\ccmnwr16.s:9076   .debug_str:0000000000000833 .LASF76
C:\Users\stapi\AppData\Local\Temp\ccmnwr16.s:9166   .debug_str:0000000000000b2d .LASF77
C:\Users\stapi\AppData\Local\Temp\ccmnwr16.s:8892   .debug_str:0000000000000037 .LASF201
C:\Users\stapi\AppData\Local\Temp\ccmnwr16.s:9092   .debug_str:00000000000008f7 .LASF78
C:\Users\stapi\AppData\Local\Temp\ccmnwr16.s:9228   .debug_str:0000000000000d6d .LASF79
C:\Users\stapi\AppData\Local\Temp\ccmnwr16.s:8916   .debug_str:0000000000000122 .LASF84
C:\Users\stapi\AppData\Local\Temp\ccmnwr16.s:3632   .text.timer_interrupt_flag_get:0000000000000000 .LFB434
C:\Users\stapi\AppData\Local\Temp\ccmnwr16.s:3659   .text.timer_interrupt_flag_get:0000000000000010 .LFE434
C:\Users\stapi\AppData\Local\Temp\ccmnwr16.s:7043   .debug_loc:0000000000000000 .LLST64
C:\Users\stapi\AppData\Local\Temp\ccmnwr16.s:7057   .debug_loc:0000000000000021 .LLST65
C:\Users\stapi\AppData\Local\Temp\ccmnwr16.s:7071   .debug_loc:0000000000000042 .LLST66
C:\Users\stapi\AppData\Local\Temp\ccmnwr16.s:9120   .debug_str:00000000000009d6 .LASF81
C:\Users\stapi\AppData\Local\Temp\ccmnwr16.s:3612   .text.timer_interrupt_disable:0000000000000000 .LFB433
C:\Users\stapi\AppData\Local\Temp\ccmnwr16.s:3625   .text.timer_interrupt_disable:000000000000000a .LFE433
C:\Users\stapi\AppData\Local\Temp\ccmnwr16.s:9232   .debug_str:0000000000000d81 .LASF80
C:\Users\stapi\AppData\Local\Temp\ccmnwr16.s:7097   .debug_loc:0000000000000076 .LLST63
C:\Users\stapi\AppData\Local\Temp\ccmnwr16.s:9288   .debug_str:0000000000000ff8 .LASF82
C:\Users\stapi\AppData\Local\Temp\ccmnwr16.s:3593   .text.timer_interrupt_enable:0000000000000000 .LFB432
C:\Users\stapi\AppData\Local\Temp\ccmnwr16.s:3605   .text.timer_interrupt_enable:0000000000000008 .LFE432
C:\Users\stapi\AppData\Local\Temp\ccmnwr16.s:8946   .debug_str:000000000000022e .LASF202
C:\Users\stapi\AppData\Local\Temp\ccmnwr16.s:9184   .debug_str:0000000000000bcd .LASF83
C:\Users\stapi\AppData\Local\Temp\ccmnwr16.s:9108   .debug_str:0000000000000970 .LASF85
C:\Users\stapi\AppData\Local\Temp\ccmnwr16.s:3552   .text.timer_flag_get:0000000000000000 .LFB430
C:\Users\stapi\AppData\Local\Temp\ccmnwr16.s:3566   .text.timer_flag_get:000000000000000a .LFE430
C:\Users\stapi\AppData\Local\Temp\ccmnwr16.s:7111   .debug_loc:0000000000000097 .LLST61
C:\Users\stapi\AppData\Local\Temp\ccmnwr16.s:9236   .debug_str:0000000000000d95 .LASF86
C:\Users\stapi\AppData\Local\Temp\ccmnwr16.s:3516   .text.timer_output_value_selection_config:0000000000000000 .LFB429
C:\Users\stapi\AppData\Local\Temp\ccmnwr16.s:3545   .text.timer_output_value_selection_config:000000000000001e .LFE429
C:\Users\stapi\AppData\Local\Temp\ccmnwr16.s:9164   .debug_str:0000000000000b26 .LASF87
C:\Users\stapi\AppData\Local\Temp\ccmnwr16.s:9080   .debug_str:000000000000084c .LASF88
C:\Users\stapi\AppData\Local\Temp\ccmnwr16.s:3480   .text.timer_write_chxval_register_config:0000000000000000 .LFB428
C:\Users\stapi\AppData\Local\Temp\ccmnwr16.s:3509   .text.timer_write_chxval_register_config:000000000000001e .LFE428
C:\Users\stapi\AppData\Local\Temp\ccmnwr16.s:9248   .debug_str:0000000000000e28 .LASF89
C:\Users\stapi\AppData\Local\Temp\ccmnwr16.s:8900   .debug_str:0000000000000088 .LASF90
C:\Users\stapi\AppData\Local\Temp\ccmnwr16.s:3461   .text.timer_external_clock_mode1_disable:0000000000000000 .LFB427
C:\Users\stapi\AppData\Local\Temp\ccmnwr16.s:3473   .text.timer_external_clock_mode1_disable:000000000000000a .LFE427
C:\Users\stapi\AppData\Local\Temp\ccmnwr16.s:9060   .debug_str:0000000000000784 .LASF91
C:\Users\stapi\AppData\Local\Temp\ccmnwr16.s:3429   .text.timer_external_clock_mode1_config:0000000000000000 .LFB426
C:\Users\stapi\AppData\Local\Temp\ccmnwr16.s:3454   .text.timer_external_clock_mode1_config:0000000000000022 .LFE426
C:\Users\stapi\AppData\Local\Temp\ccmnwr16.s:7125   .debug_loc:00000000000000b8 .LLST57
C:\Users\stapi\AppData\Local\Temp\ccmnwr16.s:9246   .debug_str:0000000000000e1b .LASF92
C:\Users\stapi\AppData\Local\Temp\ccmnwr16.s:7136   .debug_loc:00000000000000d6 .LLST58
C:\Users\stapi\AppData\Local\Temp\ccmnwr16.s:9020   .debug_str:0000000000000517 .LASF93
C:\Users\stapi\AppData\Local\Temp\ccmnwr16.s:7150   .debug_loc:00000000000000f7 .LLST59
C:\Users\stapi\AppData\Local\Temp\ccmnwr16.s:9210   .debug_str:0000000000000c8d .LASF94
C:\Users\stapi\AppData\Local\Temp\ccmnwr16.s:7164   .debug_loc:0000000000000118 .LLST60
C:\Users\stapi\AppData\Local\Temp\ccmnwr16.s:3442   .text.timer_external_clock_mode1_config:0000000000000012 .LVL220
C:\Users\stapi\AppData\Local\Temp\ccmnwr16.s:9178   .debug_str:0000000000000b85 .LASF95
C:\Users\stapi\AppData\Local\Temp\ccmnwr16.s:3392   .text.timer_external_clock_mode0_config:0000000000000000 .LFB425
C:\Users\stapi\AppData\Local\Temp\ccmnwr16.s:3422   .text.timer_external_clock_mode0_config:0000000000000032 .LFE425
C:\Users\stapi\AppData\Local\Temp\ccmnwr16.s:7178   .debug_loc:0000000000000139 .LLST53
C:\Users\stapi\AppData\Local\Temp\ccmnwr16.s:7189   .debug_loc:0000000000000157 .LLST54
C:\Users\stapi\AppData\Local\Temp\ccmnwr16.s:7203   .debug_loc:0000000000000178 .LLST55
C:\Users\stapi\AppData\Local\Temp\ccmnwr16.s:7217   .debug_loc:0000000000000199 .LLST56
C:\Users\stapi\AppData\Local\Temp\ccmnwr16.s:3405   .text.timer_external_clock_mode0_config:0000000000000012 .LVL216
C:\Users\stapi\AppData\Local\Temp\ccmnwr16.s:3410   .text.timer_external_clock_mode0_config:000000000000001e .LVL217
C:\Users\stapi\AppData\Local\Temp\ccmnwr16.s:3415   .text.timer_external_clock_mode0_config:000000000000002a .LVL218
C:\Users\stapi\AppData\Local\Temp\ccmnwr16.s:9244   .debug_str:0000000000000deb .LASF96
C:\Users\stapi\AppData\Local\Temp\ccmnwr16.s:3244   .text.timer_external_trigger_as_external_clock_config:0000000000000000 .LFB424
C:\Users\stapi\AppData\Local\Temp\ccmnwr16.s:3385   .text.timer_external_trigger_as_external_clock_config:00000000000000ac .LFE424
C:\Users\stapi\AppData\Local\Temp\ccmnwr16.s:7231   .debug_loc:00000000000001ba .LLST49
C:\Users\stapi\AppData\Local\Temp\ccmnwr16.s:9030   .debug_str:0000000000000659 .LASF97
C:\Users\stapi\AppData\Local\Temp\ccmnwr16.s:7252   .debug_loc:00000000000001f0 .LLST50
C:\Users\stapi\AppData\Local\Temp\ccmnwr16.s:7263   .debug_loc:000000000000020e .LLST51
C:\Users\stapi\AppData\Local\Temp\ccmnwr16.s:7288   .debug_loc:0000000000000248 .LLST52
C:\Users\stapi\AppData\Local\Temp\ccmnwr16.s:3321   .text.timer_external_trigger_as_external_clock_config:000000000000005e .LVL209
C:\Users\stapi\AppData\Local\Temp\ccmnwr16.s:3326   .text.timer_external_trigger_as_external_clock_config:000000000000006a .LVL210
C:\Users\stapi\AppData\Local\Temp\ccmnwr16.s:9264   .debug_str:0000000000000f21 .LASF98
C:\Users\stapi\AppData\Local\Temp\ccmnwr16.s:3205   .text.timer_internal_trigger_as_external_clock_config:0000000000000000 .LFB423
C:\Users\stapi\AppData\Local\Temp\ccmnwr16.s:3237   .text.timer_internal_trigger_as_external_clock_config:000000000000002a .LFE423
C:\Users\stapi\AppData\Local\Temp\ccmnwr16.s:7313   .debug_loc:0000000000000282 .LLST47
C:\Users\stapi\AppData\Local\Temp\ccmnwr16.s:9084   .debug_str:00000000000008a2 .LASF99
C:\Users\stapi\AppData\Local\Temp\ccmnwr16.s:7324   .debug_loc:00000000000002a0 .LLST48
C:\Users\stapi\AppData\Local\Temp\ccmnwr16.s:3224   .text.timer_internal_trigger_as_external_clock_config:0000000000000016 .LVL203
C:\Users\stapi\AppData\Local\Temp\ccmnwr16.s:3229   .text.timer_internal_trigger_as_external_clock_config:0000000000000022 .LVL204
C:\Users\stapi\AppData\Local\Temp\ccmnwr16.s:9196   .debug_str:0000000000000c1d .LASF100
C:\Users\stapi\AppData\Local\Temp\ccmnwr16.s:3189   .text.timer_internal_clock_config:0000000000000000 .LFB422
C:\Users\stapi\AppData\Local\Temp\ccmnwr16.s:3198   .text.timer_internal_clock_config:000000000000000a .LFE422
C:\Users\stapi\AppData\Local\Temp\ccmnwr16.s:7335   .debug_loc:00000000000002be .LLST46
C:\Users\stapi\AppData\Local\Temp\ccmnwr16.s:3196   .text.timer_internal_clock_config:000000000000000a .LVL200
C:\Users\stapi\AppData\Local\Temp\ccmnwr16.s:8904   .debug_str:00000000000000b6 .LASF101
C:\Users\stapi\AppData\Local\Temp\ccmnwr16.s:3126   .text.timer_quadrature_decoder_mode_config:0000000000000000 .LFB421
C:\Users\stapi\AppData\Local\Temp\ccmnwr16.s:3182   .text.timer_quadrature_decoder_mode_config:0000000000000048 .LFE421
C:\Users\stapi\AppData\Local\Temp\ccmnwr16.s:7349   .debug_loc:00000000000002df .LLST42
C:\Users\stapi\AppData\Local\Temp\ccmnwr16.s:8948   .debug_str:000000000000023f .LASF102
C:\Users\stapi\AppData\Local\Temp\ccmnwr16.s:7360   .debug_loc:00000000000002fd .LLST43
C:\Users\stapi\AppData\Local\Temp\ccmnwr16.s:9218   .debug_str:0000000000000cfe .LASF103
C:\Users\stapi\AppData\Local\Temp\ccmnwr16.s:7374   .debug_loc:000000000000031e .LLST44
C:\Users\stapi\AppData\Local\Temp\ccmnwr16.s:9270   .debug_str:0000000000000f6a .LASF104
C:\Users\stapi\AppData\Local\Temp\ccmnwr16.s:7388   .debug_loc:000000000000033f .LLST45
C:\Users\stapi\AppData\Local\Temp\ccmnwr16.s:3143   .text.timer_quadrature_decoder_mode_config:0000000000000016 .LVL198
C:\Users\stapi\AppData\Local\Temp\ccmnwr16.s:9116   .debug_str:00000000000009ab .LASF105
C:\Users\stapi\AppData\Local\Temp\ccmnwr16.s:3088   .text.timer_external_trigger_config:0000000000000000 .LFB420
C:\Users\stapi\AppData\Local\Temp\ccmnwr16.s:3119   .text.timer_external_trigger_config:000000000000001e .LFE420
C:\Users\stapi\AppData\Local\Temp\ccmnwr16.s:7402   .debug_loc:0000000000000360 .LLST40
C:\Users\stapi\AppData\Local\Temp\ccmnwr16.s:7416   .debug_loc:0000000000000381 .LLST41
C:\Users\stapi\AppData\Local\Temp\ccmnwr16.s:9090   .debug_str:00000000000008d8 .LASF106
C:\Users\stapi\AppData\Local\Temp\ccmnwr16.s:3052   .text.timer_master_slave_mode_config:0000000000000000 .LFB419
C:\Users\stapi\AppData\Local\Temp\ccmnwr16.s:3081   .text.timer_master_slave_mode_config:000000000000001a .LFE419
C:\Users\stapi\AppData\Local\Temp\ccmnwr16.s:9220   .debug_str:0000000000000d0a .LASF107
C:\Users\stapi\AppData\Local\Temp\ccmnwr16.s:9068   .debug_str:00000000000007ed .LASF108
C:\Users\stapi\AppData\Local\Temp\ccmnwr16.s:2948   .text.timer_slave_mode_select:0000000000000000 .LFB418
C:\Users\stapi\AppData\Local\Temp\ccmnwr16.s:3045   .text.timer_slave_mode_select:000000000000007e .LFE418
C:\Users\stapi\AppData\Local\Temp\ccmnwr16.s:7430   .debug_loc:00000000000003a2 .LLST34
C:\Users\stapi\AppData\Local\Temp\ccmnwr16.s:9052   .debug_str:000000000000075b .LASF109
C:\Users\stapi\AppData\Local\Temp\ccmnwr16.s:7448   .debug_loc:00000000000003ce .LLST35
C:\Users\stapi\AppData\Local\Temp\ccmnwr16.s:9286   .debug_str:0000000000000fe9 .LASF110
C:\Users\stapi\AppData\Local\Temp\ccmnwr16.s:7466   .debug_loc:00000000000003fa .LLST36
C:\Users\stapi\AppData\Local\Temp\ccmnwr16.s:8914   .debug_str:0000000000000113 .LASF111
C:\Users\stapi\AppData\Local\Temp\ccmnwr16.s:7487   .debug_loc:0000000000000430 .LLST37
C:\Users\stapi\AppData\Local\Temp\ccmnwr16.s:9042   .debug_str:00000000000006f5 .LASF112
C:\Users\stapi\AppData\Local\Temp\ccmnwr16.s:7504   .debug_loc:000000000000045b .LLST38
C:\Users\stapi\AppData\Local\Temp\ccmnwr16.s:7521   .debug_loc:0000000000000486 .LLST39
C:\Users\stapi\AppData\Local\Temp\ccmnwr16.s:8970   .debug_str:0000000000000302 .LASF113
C:\Users\stapi\AppData\Local\Temp\ccmnwr16.s:2924   .text.timer_master_output_trigger_source_select:0000000000000000 .LFB417
C:\Users\stapi\AppData\Local\Temp\ccmnwr16.s:2941   .text.timer_master_output_trigger_source_select:0000000000000010 .LFE417
C:\Users\stapi\AppData\Local\Temp\ccmnwr16.s:9074   .debug_str:0000000000000829 .LASF114
C:\Users\stapi\AppData\Local\Temp\ccmnwr16.s:9222   .debug_str:0000000000000d16 .LASF115
C:\Users\stapi\AppData\Local\Temp\ccmnwr16.s:2824   .text.timer_input_trigger_source_select:0000000000000000 .LFB416
C:\Users\stapi\AppData\Local\Temp\ccmnwr16.s:2917   .text.timer_input_trigger_source_select:000000000000006c .LFE416
C:\Users\stapi\AppData\Local\Temp\ccmnwr16.s:7550   .debug_loc:00000000000004cb .LLST29
C:\Users\stapi\AppData\Local\Temp\ccmnwr16.s:7579   .debug_loc:0000000000000510 .LLST30
C:\Users\stapi\AppData\Local\Temp\ccmnwr16.s:7608   .debug_loc:0000000000000555 .LLST31
C:\Users\stapi\AppData\Local\Temp\ccmnwr16.s:7642   .debug_loc:00000000000005ad .LLST32
C:\Users\stapi\AppData\Local\Temp\ccmnwr16.s:7668   .debug_loc:00000000000005ef .LLST33
C:\Users\stapi\AppData\Local\Temp\ccmnwr16.s:9208   .debug_str:0000000000000c76 .LASF116
C:\Users\stapi\AppData\Local\Temp\ccmnwr16.s:2788   .text.timer_hall_mode_config:0000000000000000 .LFB415
C:\Users\stapi\AppData\Local\Temp\ccmnwr16.s:2817   .text.timer_hall_mode_config:000000000000001a .LFE415
C:\Users\stapi\AppData\Local\Temp\ccmnwr16.s:9124   .debug_str:00000000000009f8 .LASF117
C:\Users\stapi\AppData\Local\Temp\ccmnwr16.s:8930   .debug_str:00000000000001ac .LASF118
C:\Users\stapi\AppData\Local\Temp\ccmnwr16.s:2488   .text.timer_input_pwm_capture_config:0000000000000000 .LFB414
C:\Users\stapi\AppData\Local\Temp\ccmnwr16.s:2781   .text.timer_input_pwm_capture_config:0000000000000166 .LFE414
C:\Users\stapi\AppData\Local\Temp\ccmnwr16.s:7702   .debug_loc:0000000000000640 .LLST24
C:\Users\stapi\AppData\Local\Temp\ccmnwr16.s:9170   .debug_str:0000000000000b64 .LASF119
C:\Users\stapi\AppData\Local\Temp\ccmnwr16.s:7728   .debug_loc:0000000000000682 .LLST25
C:\Users\stapi\AppData\Local\Temp\ccmnwr16.s:8952   .debug_str:000000000000025f .LASF120
C:\Users\stapi\AppData\Local\Temp\ccmnwr16.s:7753   .debug_loc:00000000000006bc .LLST26
C:\Users\stapi\AppData\Local\Temp\ccmnwr16.s:7764   .debug_loc:00000000000006da .LLST27
C:\Users\stapi\AppData\Local\Temp\ccmnwr16.s:7805   .debug_loc:000000000000072c .LLST28
C:\Users\stapi\AppData\Local\Temp\ccmnwr16.s:2593   .text.timer_input_pwm_capture_config:0000000000000074 .LVL155
C:\Users\stapi\AppData\Local\Temp\ccmnwr16.s:2652   .text.timer_input_pwm_capture_config:00000000000000c8 .LVL156
C:\Users\stapi\AppData\Local\Temp\ccmnwr16.s:2725   .text.timer_input_pwm_capture_config:000000000000011e .LVL160
C:\Users\stapi\AppData\Local\Temp\ccmnwr16.s:8922   .debug_str:000000000000014a .LASF121
C:\Users\stapi\AppData\Local\Temp\ccmnwr16.s:2430   .text.timer_channel_capture_value_register_read:0000000000000000 .LFB413
C:\Users\stapi\AppData\Local\Temp\ccmnwr16.s:2481   .text.timer_channel_capture_value_register_read:0000000000000026 .LFE413
C:\Users\stapi\AppData\Local\Temp\ccmnwr16.s:7821   .debug_loc:0000000000000756 .LLST22
C:\Users\stapi\AppData\Local\Temp\ccmnwr16.s:9176   .debug_str:0000000000000b79 .LASF122
C:\Users\stapi\AppData\Local\Temp\ccmnwr16.s:7879   .debug_loc:00000000000007db .LLST23
C:\Users\stapi\AppData\Local\Temp\ccmnwr16.s:9290   .debug_str:000000000000100f .LASF123
C:\Users\stapi\AppData\Local\Temp\ccmnwr16.s:2095   .text.timer_channel_input_capture_prescaler_config:0000000000000000 .LFB412
C:\Users\stapi\AppData\Local\Temp\ccmnwr16.s:2175   .text.timer_channel_input_capture_prescaler_config:0000000000000054 .LFE412
C:\Users\stapi\AppData\Local\Temp\ccmnwr16.s:7918   .debug_loc:000000000000083f .LLST18
C:\Users\stapi\AppData\Local\Temp\ccmnwr16.s:9276   .debug_str:0000000000000f9a .LASF124
C:\Users\stapi\AppData\Local\Temp\ccmnwr16.s:2182   .text.timer_input_capture_config:0000000000000000 .LFB411
C:\Users\stapi\AppData\Local\Temp\ccmnwr16.s:2423   .text.timer_input_capture_config:000000000000015c .LFE411
C:\Users\stapi\AppData\Local\Temp\ccmnwr16.s:7965   .debug_loc:00000000000008ab .LLST19
C:\Users\stapi\AppData\Local\Temp\ccmnwr16.s:7983   .debug_loc:00000000000008d7 .LLST20
C:\Users\stapi\AppData\Local\Temp\ccmnwr16.s:9054   .debug_str:0000000000000765 .LASF125
C:\Users\stapi\AppData\Local\Temp\ccmnwr16.s:8001   .debug_loc:0000000000000903 .LLST21
C:\Users\stapi\AppData\Local\Temp\ccmnwr16.s:2250   .text.timer_input_capture_config:0000000000000072 .LVL135
C:\Users\stapi\AppData\Local\Temp\ccmnwr16.s:9044   .debug_str:0000000000000702 .LASF126
C:\Users\stapi\AppData\Local\Temp\ccmnwr16.s:2067   .text.timer_channel_input_struct_para_init:0000000000000000 .LFB410
C:\Users\stapi\AppData\Local\Temp\ccmnwr16.s:2088   .text.timer_channel_input_struct_para_init:0000000000000014 .LFE410
C:\Users\stapi\AppData\Local\Temp\ccmnwr16.s:9260   .debug_str:0000000000000e73 .LASF127
C:\Users\stapi\AppData\Local\Temp\ccmnwr16.s:2002   .text.timer_channel_complementary_output_state_config:0000000000000000 .LFB409
C:\Users\stapi\AppData\Local\Temp\ccmnwr16.s:2060   .text.timer_channel_complementary_output_state_config:0000000000000038 .LFE409
C:\Users\stapi\AppData\Local\Temp\ccmnwr16.s:9014   .debug_str:00000000000004e7 .LASF128
C:\Users\stapi\AppData\Local\Temp\ccmnwr16.s:8019   .debug_loc:000000000000092f .LLST17
C:\Users\stapi\AppData\Local\Temp\ccmnwr16.s:9224   .debug_str:0000000000000d38 .LASF129
C:\Users\stapi\AppData\Local\Temp\ccmnwr16.s:1919   .text.timer_channel_output_state_config:0000000000000000 .LFB408
C:\Users\stapi\AppData\Local\Temp\ccmnwr16.s:1995   .text.timer_channel_output_state_config:000000000000004a .LFE408
C:\Users\stapi\AppData\Local\Temp\ccmnwr16.s:8962   .debug_str:00000000000002bf .LASF130
C:\Users\stapi\AppData\Local\Temp\ccmnwr16.s:8055   .debug_loc:0000000000000982 .LLST16
C:\Users\stapi\AppData\Local\Temp\ccmnwr16.s:9082   .debug_str:000000000000086f .LASF131
C:\Users\stapi\AppData\Local\Temp\ccmnwr16.s:1854   .text.timer_channel_complementary_output_polarity_config:0000000000000000 .LFB407
C:\Users\stapi\AppData\Local\Temp\ccmnwr16.s:1912   .text.timer_channel_complementary_output_polarity_config:0000000000000038 .LFE407
C:\Users\stapi\AppData\Local\Temp\ccmnwr16.s:8102   .debug_loc:00000000000009ee .LLST15
C:\Users\stapi\AppData\Local\Temp\ccmnwr16.s:9136   .debug_str:0000000000000a5c .LASF132
C:\Users\stapi\AppData\Local\Temp\ccmnwr16.s:1771   .text.timer_channel_output_polarity_config:0000000000000000 .LFB406
C:\Users\stapi\AppData\Local\Temp\ccmnwr16.s:1847   .text.timer_channel_output_polarity_config:000000000000004c .LFE406
C:\Users\stapi\AppData\Local\Temp\ccmnwr16.s:8138   .debug_loc:0000000000000a41 .LLST14
C:\Users\stapi\AppData\Local\Temp\ccmnwr16.s:9050   .debug_str:0000000000000739 .LASF133
C:\Users\stapi\AppData\Local\Temp\ccmnwr16.s:1686   .text.timer_channel_output_clear_config:0000000000000000 .LFB405
C:\Users\stapi\AppData\Local\Temp\ccmnwr16.s:1764   .text.timer_channel_output_clear_config:0000000000000050 .LFE405
C:\Users\stapi\AppData\Local\Temp\ccmnwr16.s:9112   .debug_str:0000000000000988 .LASF134
C:\Users\stapi\AppData\Local\Temp\ccmnwr16.s:8185   .debug_loc:0000000000000aad .LLST13
C:\Users\stapi\AppData\Local\Temp\ccmnwr16.s:8928   .debug_str:000000000000018b .LASF135
C:\Users\stapi\AppData\Local\Temp\ccmnwr16.s:1601   .text.timer_channel_output_fast_config:0000000000000000 .LFB404
C:\Users\stapi\AppData\Local\Temp\ccmnwr16.s:1679   .text.timer_channel_output_fast_config:000000000000004c .LFE404
C:\Users\stapi\AppData\Local\Temp\ccmnwr16.s:8936   .debug_str:00000000000001f3 .LASF136
C:\Users\stapi\AppData\Local\Temp\ccmnwr16.s:8232   .debug_loc:0000000000000b19 .LLST12
C:\Users\stapi\AppData\Local\Temp\ccmnwr16.s:9100   .debug_str:000000000000092b .LASF137
C:\Users\stapi\AppData\Local\Temp\ccmnwr16.s:1516   .text.timer_channel_output_shadow_config:0000000000000000 .LFB403
C:\Users\stapi\AppData\Local\Temp\ccmnwr16.s:1594   .text.timer_channel_output_shadow_config:000000000000004c .LFE403
C:\Users\stapi\AppData\Local\Temp\ccmnwr16.s:9110   .debug_str:000000000000097f .LASF138
C:\Users\stapi\AppData\Local\Temp\ccmnwr16.s:8279   .debug_loc:0000000000000b85 .LLST11
C:\Users\stapi\AppData\Local\Temp\ccmnwr16.s:9130   .debug_str:0000000000000a1c .LASF139
C:\Users\stapi\AppData\Local\Temp\ccmnwr16.s:1470   .text.timer_channel_output_pulse_value_config:0000000000000000 .LFB402
C:\Users\stapi\AppData\Local\Temp\ccmnwr16.s:1509   .text.timer_channel_output_pulse_value_config:0000000000000024 .LFE402
C:\Users\stapi\AppData\Local\Temp\ccmnwr16.s:9172   .debug_str:0000000000000b6c .LASF140
C:\Users\stapi\AppData\Local\Temp\ccmnwr16.s:9006   .debug_str:0000000000000498 .LASF141
C:\Users\stapi\AppData\Local\Temp\ccmnwr16.s:1383   .text.timer_channel_output_mode_config:0000000000000000 .LFB401
C:\Users\stapi\AppData\Local\Temp\ccmnwr16.s:1463   .text.timer_channel_output_mode_config:0000000000000054 .LFE401
C:\Users\stapi\AppData\Local\Temp\ccmnwr16.s:9174   .debug_str:0000000000000b72 .LASF142
C:\Users\stapi\AppData\Local\Temp\ccmnwr16.s:8326   .debug_loc:0000000000000bf1 .LLST10
C:\Users\stapi\AppData\Local\Temp\ccmnwr16.s:8954   .debug_str:0000000000000265 .LASF143
C:\Users\stapi\AppData\Local\Temp\ccmnwr16.s:1021   .text.timer_channel_output_config:0000000000000000 .LFB400
C:\Users\stapi\AppData\Local\Temp\ccmnwr16.s:1376   .text.timer_channel_output_config:00000000000001de .LFE400
C:\Users\stapi\AppData\Local\Temp\ccmnwr16.s:9190   .debug_str:0000000000000bf3 .LASF144
C:\Users\stapi\AppData\Local\Temp\ccmnwr16.s:9032   .debug_str:0000000000000663 .LASF145
C:\Users\stapi\AppData\Local\Temp\ccmnwr16.s:993    .text.timer_channel_output_struct_para_init:0000000000000000 .LFB399
C:\Users\stapi\AppData\Local\Temp\ccmnwr16.s:1014   .text.timer_channel_output_struct_para_init:0000000000000012 .LFE399
C:\Users\stapi\AppData\Local\Temp\ccmnwr16.s:9212   .debug_str:0000000000000c97 .LASF146
C:\Users\stapi\AppData\Local\Temp\ccmnwr16.s:957    .text.timer_channel_control_shadow_update_config:0000000000000000 .LFB398
C:\Users\stapi\AppData\Local\Temp\ccmnwr16.s:986    .text.timer_channel_control_shadow_update_config:0000000000000018 .LFE398
C:\Users\stapi\AppData\Local\Temp\ccmnwr16.s:9072   .debug_str:0000000000000822 .LASF147
C:\Users\stapi\AppData\Local\Temp\ccmnwr16.s:9038   .debug_str:00000000000006b4 .LASF148
C:\Users\stapi\AppData\Local\Temp\ccmnwr16.s:926    .text.timer_channel_control_shadow_config:0000000000000000 .LFB397
C:\Users\stapi\AppData\Local\Temp\ccmnwr16.s:950    .text.timer_channel_control_shadow_config:0000000000000016 .LFE397
C:\Users\stapi\AppData\Local\Temp\ccmnwr16.s:9198   .debug_str:0000000000000c39 .LASF149
C:\Users\stapi\AppData\Local\Temp\ccmnwr16.s:8890   .debug_str:000000000000001b .LASF150
C:\Users\stapi\AppData\Local\Temp\ccmnwr16.s:895    .text.timer_primary_output_config:0000000000000000 .LFB396
C:\Users\stapi\AppData\Local\Temp\ccmnwr16.s:919    .text.timer_primary_output_config:0000000000000018 .LFE396
C:\Users\stapi\AppData\Local\Temp\ccmnwr16.s:8934   .debug_str:00000000000001d4 .LASF151
C:\Users\stapi\AppData\Local\Temp\ccmnwr16.s:876    .text.timer_automatic_output_disable:0000000000000000 .LFB395
C:\Users\stapi\AppData\Local\Temp\ccmnwr16.s:888    .text.timer_automatic_output_disable:000000000000000a .LFE395
C:\Users\stapi\AppData\Local\Temp\ccmnwr16.s:9194   .debug_str:0000000000000bff .LASF152
C:\Users\stapi\AppData\Local\Temp\ccmnwr16.s:857    .text.timer_automatic_output_enable:0000000000000000 .LFB394
C:\Users\stapi\AppData\Local\Temp\ccmnwr16.s:869    .text.timer_automatic_output_enable:000000000000000a .LFE394
C:\Users\stapi\AppData\Local\Temp\ccmnwr16.s:9252   .debug_str:0000000000000e3b .LASF153
C:\Users\stapi\AppData\Local\Temp\ccmnwr16.s:838    .text.timer_break_disable:0000000000000000 .LFB393
C:\Users\stapi\AppData\Local\Temp\ccmnwr16.s:850    .text.timer_break_disable:000000000000000a .LFE393
C:\Users\stapi\AppData\Local\Temp\ccmnwr16.s:9188   .debug_str:0000000000000be0 .LASF154
C:\Users\stapi\AppData\Local\Temp\ccmnwr16.s:819    .text.timer_break_enable:0000000000000000 .LFB392
C:\Users\stapi\AppData\Local\Temp\ccmnwr16.s:831    .text.timer_break_enable:000000000000000a .LFE392
C:\Users\stapi\AppData\Local\Temp\ccmnwr16.s:9002   .debug_str:000000000000047a .LASF155
C:\Users\stapi\AppData\Local\Temp\ccmnwr16.s:782    .text.timer_break_config:0000000000000000 .LFB391
C:\Users\stapi\AppData\Local\Temp\ccmnwr16.s:812    .text.timer_break_config:0000000000000032 .LFE391
C:\Users\stapi\AppData\Local\Temp\ccmnwr16.s:9234   .debug_str:0000000000000d8b .LASF156
C:\Users\stapi\AppData\Local\Temp\ccmnwr16.s:9168   .debug_str:0000000000000b47 .LASF157
C:\Users\stapi\AppData\Local\Temp\ccmnwr16.s:751    .text.timer_break_struct_para_init:0000000000000000 .LFB390
C:\Users\stapi\AppData\Local\Temp\ccmnwr16.s:775    .text.timer_break_struct_para_init:0000000000000016 .LFE390
C:\Users\stapi\AppData\Local\Temp\ccmnwr16.s:9214   .debug_str:0000000000000cc2 .LASF158
C:\Users\stapi\AppData\Local\Temp\ccmnwr16.s:731    .text.timer_event_software_generate:0000000000000000 .LFB389
C:\Users\stapi\AppData\Local\Temp\ccmnwr16.s:744    .text.timer_event_software_generate:0000000000000008 .LFE389
C:\Users\stapi\AppData\Local\Temp\ccmnwr16.s:9046   .debug_str:0000000000000727 .LASF159
C:\Users\stapi\AppData\Local\Temp\ccmnwr16.s:8373   .debug_loc:0000000000000c5d .LLST9
C:\Users\stapi\AppData\Local\Temp\ccmnwr16.s:9016   .debug_str:00000000000004f0 .LASF160
C:\Users\stapi\AppData\Local\Temp\ccmnwr16.s:701    .text.timer_dma_transfer_config:0000000000000000 .LFB388
C:\Users\stapi\AppData\Local\Temp\ccmnwr16.s:724    .text.timer_dma_transfer_config:0000000000000016 .LFE388
C:\Users\stapi\AppData\Local\Temp\ccmnwr16.s:9250   .debug_str:0000000000000e2e .LASF161
C:\Users\stapi\AppData\Local\Temp\ccmnwr16.s:8387   .debug_loc:0000000000000c7e .LLST8
C:\Users\stapi\AppData\Local\Temp\ccmnwr16.s:9102   .debug_str:000000000000094e .LASF162
C:\Users\stapi\AppData\Local\Temp\ccmnwr16.s:8960   .debug_str:0000000000000297 .LASF163
C:\Users\stapi\AppData\Local\Temp\ccmnwr16.s:665    .text.timer_channel_dma_request_source_select:0000000000000000 .LFB387
C:\Users\stapi\AppData\Local\Temp\ccmnwr16.s:694    .text.timer_channel_dma_request_source_select:0000000000000018 .LFE387
C:\Users\stapi\AppData\Local\Temp\ccmnwr16.s:8984   .debug_str:0000000000000404 .LASF164
C:\Users\stapi\AppData\Local\Temp\ccmnwr16.s:8978   .debug_str:00000000000003d6 .LASF165
C:\Users\stapi\AppData\Local\Temp\ccmnwr16.s:645    .text.timer_dma_disable:0000000000000000 .LFB386
C:\Users\stapi\AppData\Local\Temp\ccmnwr16.s:658    .text.timer_dma_disable:000000000000000a .LFE386
C:\Users\stapi\AppData\Local\Temp\ccmnwr16.s:8401   .debug_loc:0000000000000c9f .LLST7
C:\Users\stapi\AppData\Local\Temp\ccmnwr16.s:9132   .debug_str:0000000000000a44 .LASF166
C:\Users\stapi\AppData\Local\Temp\ccmnwr16.s:625    .text.timer_dma_enable:0000000000000000 .LFB385
C:\Users\stapi\AppData\Local\Temp\ccmnwr16.s:638    .text.timer_dma_enable:0000000000000008 .LFE385
C:\Users\stapi\AppData\Local\Temp\ccmnwr16.s:8415   .debug_loc:0000000000000cc0 .LLST6
C:\Users\stapi\AppData\Local\Temp\ccmnwr16.s:9162   .debug_str:0000000000000b0b .LASF167
C:\Users\stapi\AppData\Local\Temp\ccmnwr16.s:589    .text.timer_update_source_config:0000000000000000 .LFB384
C:\Users\stapi\AppData\Local\Temp\ccmnwr16.s:618    .text.timer_update_source_config:0000000000000018 .LFE384
C:\Users\stapi\AppData\Local\Temp\ccmnwr16.s:9134   .debug_str:0000000000000a55 .LASF168
C:\Users\stapi\AppData\Local\Temp\ccmnwr16.s:8896   .debug_str:000000000000005d .LASF169
C:\Users\stapi\AppData\Local\Temp\ccmnwr16.s:553    .text.timer_single_pulse_mode_config:0000000000000000 .LFB383
C:\Users\stapi\AppData\Local\Temp\ccmnwr16.s:582    .text.timer_single_pulse_mode_config:0000000000000018 .LFE383
C:\Users\stapi\AppData\Local\Temp\ccmnwr16.s:9160   .debug_str:0000000000000b04 .LASF170
C:\Users\stapi\AppData\Local\Temp\ccmnwr16.s:9200   .debug_str:0000000000000c42 .LASF171
C:\Users\stapi\AppData\Local\Temp\ccmnwr16.s:532    .text.timer_prescaler_read:0000000000000000 .LFB382
C:\Users\stapi\AppData\Local\Temp\ccmnwr16.s:546    .text.timer_prescaler_read:0000000000000008 .LFE382
C:\Users\stapi\AppData\Local\Temp\ccmnwr16.s:8429   .debug_loc:0000000000000ce1 .LLST4
C:\Users\stapi\AppData\Local\Temp\ccmnwr16.s:9094   .debug_str:0000000000000904 .LASF172
C:\Users\stapi\AppData\Local\Temp\ccmnwr16.s:8443   .debug_loc:0000000000000d02 .LLST5
C:\Users\stapi\AppData\Local\Temp\ccmnwr16.s:9024   .debug_str:000000000000061c .LASF173
C:\Users\stapi\AppData\Local\Temp\ccmnwr16.s:512    .text.timer_counter_read:0000000000000000 .LFB381
C:\Users\stapi\AppData\Local\Temp\ccmnwr16.s:525    .text.timer_counter_read:0000000000000004 .LFE381
C:\Users\stapi\AppData\Local\Temp\ccmnwr16.s:8455   .debug_loc:0000000000000d21 .LLST2
C:\Users\stapi\AppData\Local\Temp\ccmnwr16.s:8469   .debug_loc:0000000000000d42 .LLST3
C:\Users\stapi\AppData\Local\Temp\ccmnwr16.s:9114   .debug_str:0000000000000990 .LASF174
C:\Users\stapi\AppData\Local\Temp\ccmnwr16.s:495    .text.timer_counter_value_config:0000000000000000 .LFB380
C:\Users\stapi\AppData\Local\Temp\ccmnwr16.s:505    .text.timer_counter_value_config:0000000000000004 .LFE380
C:\Users\stapi\AppData\Local\Temp\ccmnwr16.s:9156   .debug_str:0000000000000af3 .LASF175
C:\Users\stapi\AppData\Local\Temp\ccmnwr16.s:9216   .debug_str:0000000000000ce0 .LASF176
C:\Users\stapi\AppData\Local\Temp\ccmnwr16.s:478    .text.timer_autoreload_value_config:0000000000000000 .LFB379
C:\Users\stapi\AppData\Local\Temp\ccmnwr16.s:488    .text.timer_autoreload_value_config:0000000000000004 .LFE379
C:\Users\stapi\AppData\Local\Temp\ccmnwr16.s:8990   .debug_str:0000000000000424 .LASF177
C:\Users\stapi\AppData\Local\Temp\ccmnwr16.s:9034   .debug_str:0000000000000689 .LASF178
C:\Users\stapi\AppData\Local\Temp\ccmnwr16.s:461    .text.timer_repetition_value_config:0000000000000000 .LFB378
C:\Users\stapi\AppData\Local\Temp\ccmnwr16.s:471    .text.timer_repetition_value_config:0000000000000004 .LFE378
C:\Users\stapi\AppData\Local\Temp\ccmnwr16.s:9204   .debug_str:0000000000000c62 .LASF179
C:\Users\stapi\AppData\Local\Temp\ccmnwr16.s:9180   .debug_str:0000000000000ba7 .LASF180
C:\Users\stapi\AppData\Local\Temp\ccmnwr16.s:435    .text.timer_prescaler_config:0000000000000000 .LFB377
C:\Users\stapi\AppData\Local\Temp\ccmnwr16.s:454    .text.timer_prescaler_config:000000000000000e .LFE377
C:\Users\stapi\AppData\Local\Temp\ccmnwr16.s:8926   .debug_str:0000000000000181 .LASF181
C:\Users\stapi\AppData\Local\Temp\ccmnwr16.s:9070   .debug_str:0000000000000805 .LASF182
C:\Users\stapi\AppData\Local\Temp\ccmnwr16.s:416    .text.timer_counter_down_direction:0000000000000000 .LFB376
C:\Users\stapi\AppData\Local\Temp\ccmnwr16.s:428    .text.timer_counter_down_direction:000000000000000a .LFE376
C:\Users\stapi\AppData\Local\Temp\ccmnwr16.s:9142   .debug_str:0000000000000a92 .LASF183
C:\Users\stapi\AppData\Local\Temp\ccmnwr16.s:397    .text.timer_counter_up_direction:0000000000000000 .LFB375
C:\Users\stapi\AppData\Local\Temp\ccmnwr16.s:409    .text.timer_counter_up_direction:0000000000000008 .LFE375
C:\Users\stapi\AppData\Local\Temp\ccmnwr16.s:9026   .debug_str:000000000000062f .LASF184
C:\Users\stapi\AppData\Local\Temp\ccmnwr16.s:372    .text.timer_counter_alignment:0000000000000000 .LFB374
C:\Users\stapi\AppData\Local\Temp\ccmnwr16.s:390    .text.timer_counter_alignment:0000000000000010 .LFE374
C:\Users\stapi\AppData\Local\Temp\ccmnwr16.s:8988   .debug_str:000000000000041c .LASF185
C:\Users\stapi\AppData\Local\Temp\ccmnwr16.s:8481   .debug_loc:0000000000000d61 .LLST1
C:\Users\stapi\AppData\Local\Temp\ccmnwr16.s:9000   .debug_str:000000000000045f .LASF186
C:\Users\stapi\AppData\Local\Temp\ccmnwr16.s:353    .text.timer_update_event_disable:0000000000000000 .LFB373
C:\Users\stapi\AppData\Local\Temp\ccmnwr16.s:365    .text.timer_update_event_disable:000000000000000a .LFE373
C:\Users\stapi\AppData\Local\Temp\ccmnwr16.s:8964   .debug_str:00000000000002c5 .LASF187
C:\Users\stapi\AppData\Local\Temp\ccmnwr16.s:334    .text.timer_update_event_enable:0000000000000000 .LFB372
C:\Users\stapi\AppData\Local\Temp\ccmnwr16.s:346    .text.timer_update_event_enable:0000000000000008 .LFE372
C:\Users\stapi\AppData\Local\Temp\ccmnwr16.s:9062   .debug_str:00000000000007a6 .LASF188
C:\Users\stapi\AppData\Local\Temp\ccmnwr16.s:315    .text.timer_auto_reload_shadow_disable:0000000000000000 .LFB371
C:\Users\stapi\AppData\Local\Temp\ccmnwr16.s:327    .text.timer_auto_reload_shadow_disable:000000000000000a .LFE371
C:\Users\stapi\AppData\Local\Temp\ccmnwr16.s:9086   .debug_str:00000000000008ac .LASF189
C:\Users\stapi\AppData\Local\Temp\ccmnwr16.s:296    .text.timer_auto_reload_shadow_enable:0000000000000000 .LFB370
C:\Users\stapi\AppData\Local\Temp\ccmnwr16.s:308    .text.timer_auto_reload_shadow_enable:000000000000000a .LFE370
C:\Users\stapi\AppData\Local\Temp\ccmnwr16.s:8906   .debug_str:00000000000000db .LASF190
C:\Users\stapi\AppData\Local\Temp\ccmnwr16.s:277    .text.timer_disable:0000000000000000 .LFB369
C:\Users\stapi\AppData\Local\Temp\ccmnwr16.s:289    .text.timer_disable:0000000000000008 .LFE369
C:\Users\stapi\AppData\Local\Temp\ccmnwr16.s:9268   .debug_str:0000000000000f5d .LASF191
C:\Users\stapi\AppData\Local\Temp\ccmnwr16.s:258    .text.timer_enable:0000000000000000 .LFB368
C:\Users\stapi\AppData\Local\Temp\ccmnwr16.s:270    .text.timer_enable:000000000000000a .LFE368
C:\Users\stapi\AppData\Local\Temp\ccmnwr16.s:9058   .debug_str:0000000000000779 .LASF192
C:\Users\stapi\AppData\Local\Temp\ccmnwr16.s:160    .text.timer_init:0000000000000000 .LFB367
C:\Users\stapi\AppData\Local\Temp\ccmnwr16.s:251    .text.timer_init:0000000000000082 .LFE367
C:\Users\stapi\AppData\Local\Temp\ccmnwr16.s:9158   .debug_str:0000000000000afb .LASF193
C:\Users\stapi\AppData\Local\Temp\ccmnwr16.s:9012   .debug_str:00000000000004d0 .LASF194
C:\Users\stapi\AppData\Local\Temp\ccmnwr16.s:127    .text.timer_struct_para_init:0000000000000000 .LFB366
C:\Users\stapi\AppData\Local\Temp\ccmnwr16.s:153    .text.timer_struct_para_init:0000000000000018 .LFE366
C:\Users\stapi\AppData\Local\Temp\ccmnwr16.s:9278   .debug_str:0000000000000fb5 .LASF195
C:\Users\stapi\AppData\Local\Temp\ccmnwr16.s:14     .text.timer_deinit:0000000000000000 .LFB365
C:\Users\stapi\AppData\Local\Temp\ccmnwr16.s:120    .text.timer_deinit:00000000000000c4 .LFE365
C:\Users\stapi\AppData\Local\Temp\ccmnwr16.s:8495   .debug_loc:0000000000000d82 .LLST0
C:\Users\stapi\AppData\Local\Temp\ccmnwr16.s:54     .text.timer_deinit:0000000000000052 .LVL4
C:\Users\stapi\AppData\Local\Temp\ccmnwr16.s:65     .text.timer_deinit:0000000000000066 .LVL7
C:\Users\stapi\AppData\Local\Temp\ccmnwr16.s:71     .text.timer_deinit:0000000000000072 .LVL8
C:\Users\stapi\AppData\Local\Temp\ccmnwr16.s:82     .text.timer_deinit:0000000000000082 .LVL11
C:\Users\stapi\AppData\Local\Temp\ccmnwr16.s:93     .text.timer_deinit:0000000000000096 .LVL14
C:\Users\stapi\AppData\Local\Temp\ccmnwr16.s:104    .text.timer_deinit:00000000000000aa .LVL17
C:\Users\stapi\AppData\Local\Temp\ccmnwr16.s:115    .text.timer_deinit:00000000000000be .LVL20
C:\Users\stapi\AppData\Local\Temp\ccmnwr16.s:3573   .text.timer_flag_clear:0000000000000000 .LFB431
C:\Users\stapi\AppData\Local\Temp\ccmnwr16.s:3586   .text.timer_flag_clear:0000000000000008 .LFE431
C:\Users\stapi\AppData\Local\Temp\ccmnwr16.s:8575   .debug_loc:0000000000000e39 .LLST62
C:\Users\stapi\AppData\Local\Temp\ccmnwr16.s:9274   .debug_str:0000000000000f82 .LASF196
C:\Users\stapi\AppData\Local\Temp\ccmnwr16.s:9064   .debug_str:00000000000007c7 .LASF197
C:\Users\stapi\AppData\Local\Temp\ccmnwr16.s:3635   .text.timer_interrupt_flag_get:0000000000000000 .LVL231
C:\Users\stapi\AppData\Local\Temp\ccmnwr16.s:3644   .text.timer_interrupt_flag_get:0000000000000004 .LVL233
C:\Users\stapi\AppData\Local\Temp\ccmnwr16.s:3651   .text.timer_interrupt_flag_get:000000000000000a .LVL234
C:\Users\stapi\AppData\Local\Temp\ccmnwr16.s:3640   .text.timer_interrupt_flag_get:0000000000000002 .LVL232
C:\Users\stapi\AppData\Local\Temp\ccmnwr16.s:3654   .text.timer_interrupt_flag_get:000000000000000e .LVL235
C:\Users\stapi\AppData\Local\Temp\ccmnwr16.s:3615   .text.timer_interrupt_disable:0000000000000000 .LVL229
C:\Users\stapi\AppData\Local\Temp\ccmnwr16.s:3620   .text.timer_interrupt_disable:0000000000000006 .LVL230
C:\Users\stapi\AppData\Local\Temp\ccmnwr16.s:3555   .text.timer_flag_get:0000000000000000 .LVL224
C:\Users\stapi\AppData\Local\Temp\ccmnwr16.s:3559   .text.timer_flag_get:0000000000000002 .LVL225
C:\Users\stapi\AppData\Local\Temp\ccmnwr16.s:3432   .text.timer_external_clock_mode1_config:0000000000000000 .LVL219
C:\Users\stapi\AppData\Local\Temp\ccmnwr16.s:3395   .text.timer_external_clock_mode0_config:0000000000000000 .LVL215
C:\Users\stapi\AppData\Local\Temp\ccmnwr16.s:3247   .text.timer_external_trigger_as_external_clock_config:0000000000000000 .LVL205
C:\Users\stapi\AppData\Local\Temp\ccmnwr16.s:3331   .text.timer_external_trigger_as_external_clock_config:000000000000006c .LVL211
C:\Users\stapi\AppData\Local\Temp\ccmnwr16.s:3336   .text.timer_external_trigger_as_external_clock_config:0000000000000074 .LVL212
C:\Users\stapi\AppData\Local\Temp\ccmnwr16.s:3318   .text.timer_external_trigger_as_external_clock_config:0000000000000054 .LVL208
C:\Users\stapi\AppData\Local\Temp\ccmnwr16.s:3267   .text.timer_external_trigger_as_external_clock_config:0000000000000016 .LVL206
C:\Users\stapi\AppData\Local\Temp\ccmnwr16.s:3357   .text.timer_external_trigger_as_external_clock_config:0000000000000086 .LVL214
C:\Users\stapi\AppData\Local\Temp\ccmnwr16.s:3280   .text.timer_external_trigger_as_external_clock_config:0000000000000022 .LVL207
C:\Users\stapi\AppData\Local\Temp\ccmnwr16.s:3344   .text.timer_external_trigger_as_external_clock_config:0000000000000078 .LVL213
C:\Users\stapi\AppData\Local\Temp\ccmnwr16.s:3208   .text.timer_internal_trigger_as_external_clock_config:0000000000000000 .LVL201
C:\Users\stapi\AppData\Local\Temp\ccmnwr16.s:3219   .text.timer_internal_trigger_as_external_clock_config:000000000000000c .LVL202
C:\Users\stapi\AppData\Local\Temp\ccmnwr16.s:3192   .text.timer_internal_clock_config:0000000000000000 .LVL199
C:\Users\stapi\AppData\Local\Temp\ccmnwr16.s:3129   .text.timer_quadrature_decoder_mode_config:0000000000000000 .LVL197
C:\Users\stapi\AppData\Local\Temp\ccmnwr16.s:3091   .text.timer_external_trigger_config:0000000000000000 .LVL194
C:\Users\stapi\AppData\Local\Temp\ccmnwr16.s:3104   .text.timer_external_trigger_config:0000000000000010 .LVL195
C:\Users\stapi\AppData\Local\Temp\ccmnwr16.s:3107   .text.timer_external_trigger_config:0000000000000012 .LVL196
C:\Users\stapi\AppData\Local\Temp\ccmnwr16.s:2951   .text.timer_slave_mode_select:0000000000000000 .LVL180
C:\Users\stapi\AppData\Local\Temp\ccmnwr16.s:2984   .text.timer_slave_mode_select:0000000000000032 .LVL184
C:\Users\stapi\AppData\Local\Temp\ccmnwr16.s:3027   .text.timer_slave_mode_select:0000000000000064 .LVL191
C:\Users\stapi\AppData\Local\Temp\ccmnwr16.s:2974   .text.timer_slave_mode_select:0000000000000026 .LVL183
C:\Users\stapi\AppData\Local\Temp\ccmnwr16.s:2970   .text.timer_slave_mode_select:0000000000000024 .LVL182
C:\Users\stapi\AppData\Local\Temp\ccmnwr16.s:3021   .text.timer_slave_mode_select:0000000000000060 .LVL190
C:\Users\stapi\AppData\Local\Temp\ccmnwr16.s:3042   .text.timer_slave_mode_select:000000000000007c .LVL192
C:\Users\stapi\AppData\Local\Temp\ccmnwr16.s:2966   .text.timer_slave_mode_select:0000000000000020 .LVL181
C:\Users\stapi\AppData\Local\Temp\ccmnwr16.s:3017   .text.timer_slave_mode_select:000000000000005c .LVL189
C:\Users\stapi\AppData\Local\Temp\ccmnwr16.s:2992   .text.timer_slave_mode_select:0000000000000042 .LVL185
C:\Users\stapi\AppData\Local\Temp\ccmnwr16.s:2997   .text.timer_slave_mode_select:0000000000000044 .LVL186
C:\Users\stapi\AppData\Local\Temp\ccmnwr16.s:3001   .text.timer_slave_mode_select:0000000000000046 .LVL187
C:\Users\stapi\AppData\Local\Temp\ccmnwr16.s:3004   .text.timer_slave_mode_select:000000000000004c .LVL188
C:\Users\stapi\AppData\Local\Temp\ccmnwr16.s:2827   .text.timer_input_trigger_source_select:0000000000000000 .LVL164
C:\Users\stapi\AppData\Local\Temp\ccmnwr16.s:2845   .text.timer_input_trigger_source_select:0000000000000022 .LVL166
C:\Users\stapi\AppData\Local\Temp\ccmnwr16.s:2859   .text.timer_input_trigger_source_select:000000000000002a .LVL168
C:\Users\stapi\AppData\Local\Temp\ccmnwr16.s:2870   .text.timer_input_trigger_source_select:000000000000003e .LVL169
C:\Users\stapi\AppData\Local\Temp\ccmnwr16.s:2909   .text.timer_input_trigger_source_select:0000000000000066 .LVL177
C:\Users\stapi\AppData\Local\Temp\ccmnwr16.s:2852   .text.timer_input_trigger_source_select:0000000000000026 .LVL167
C:\Users\stapi\AppData\Local\Temp\ccmnwr16.s:2904   .text.timer_input_trigger_source_select:0000000000000060 .LVL175
C:\Users\stapi\AppData\Local\Temp\ccmnwr16.s:2907   .text.timer_input_trigger_source_select:0000000000000064 .LVL176
C:\Users\stapi\AppData\Local\Temp\ccmnwr16.s:2914   .text.timer_input_trigger_source_select:000000000000006a .LVL178
C:\Users\stapi\AppData\Local\Temp\ccmnwr16.s:2841   .text.timer_input_trigger_source_select:0000000000000020 .LVL165
C:\Users\stapi\AppData\Local\Temp\ccmnwr16.s:2877   .text.timer_input_trigger_source_select:0000000000000044 .LVL170
C:\Users\stapi\AppData\Local\Temp\ccmnwr16.s:2885   .text.timer_input_trigger_source_select:0000000000000052 .LVL171
C:\Users\stapi\AppData\Local\Temp\ccmnwr16.s:2890   .text.timer_input_trigger_source_select:0000000000000054 .LVL172
C:\Users\stapi\AppData\Local\Temp\ccmnwr16.s:2894   .text.timer_input_trigger_source_select:0000000000000056 .LVL173
C:\Users\stapi\AppData\Local\Temp\ccmnwr16.s:2897   .text.timer_input_trigger_source_select:000000000000005c .LVL174
C:\Users\stapi\AppData\Local\Temp\ccmnwr16.s:2491   .text.timer_input_pwm_capture_config:0000000000000000 .LVL146
C:\Users\stapi\AppData\Local\Temp\ccmnwr16.s:2657   .text.timer_input_pwm_capture_config:00000000000000ca .LVL157
C:\Users\stapi\AppData\Local\Temp\ccmnwr16.s:2664   .text.timer_input_pwm_capture_config:00000000000000d2 .LVL158
C:\Users\stapi\AppData\Local\Temp\ccmnwr16.s:2537   .text.timer_input_pwm_capture_config:0000000000000030 .LVL151
C:\Users\stapi\AppData\Local\Temp\ccmnwr16.s:2670   .text.timer_input_pwm_capture_config:00000000000000d4 .LVL159
C:\Users\stapi\AppData\Local\Temp\ccmnwr16.s:2531   .text.timer_input_pwm_capture_config:000000000000002c .LVL150
C:\Users\stapi\AppData\Local\Temp\ccmnwr16.s:2499   .text.timer_input_pwm_capture_config:0000000000000008 .LVL147
C:\Users\stapi\AppData\Local\Temp\ccmnwr16.s:2517   .text.timer_input_pwm_capture_config:000000000000001c .LVL148
C:\Users\stapi\AppData\Local\Temp\ccmnwr16.s:2550   .text.timer_input_pwm_capture_config:000000000000003c .LVL152
C:\Users\stapi\AppData\Local\Temp\ccmnwr16.s:2561   .text.timer_input_pwm_capture_config:0000000000000046 .LVL154
C:\Users\stapi\AppData\Local\Temp\ccmnwr16.s:2745   .text.timer_input_pwm_capture_config:0000000000000136 .LVL161
C:\Users\stapi\AppData\Local\Temp\ccmnwr16.s:2525   .text.timer_input_pwm_capture_config:0000000000000024 .LVL149
C:\Users\stapi\AppData\Local\Temp\ccmnwr16.s:2553   .text.timer_input_pwm_capture_config:000000000000003e .LVL153
C:\Users\stapi\AppData\Local\Temp\ccmnwr16.s:2756   .text.timer_input_pwm_capture_config:0000000000000144 .LVL162
C:\Users\stapi\AppData\Local\Temp\ccmnwr16.s:2433   .text.timer_channel_capture_value_register_read:0000000000000000 .LVL136
C:\Users\stapi\AppData\Local\Temp\ccmnwr16.s:2443   .text.timer_channel_capture_value_register_read:000000000000000e .LVL137
C:\Users\stapi\AppData\Local\Temp\ccmnwr16.s:2446   .text.timer_channel_capture_value_register_read:0000000000000010 .LVL138
C:\Users\stapi\AppData\Local\Temp\ccmnwr16.s:2452   .text.timer_channel_capture_value_register_read:0000000000000018 .LVL139
C:\Users\stapi\AppData\Local\Temp\ccmnwr16.s:2454   .text.timer_channel_capture_value_register_read:000000000000001a .LVL140
C:\Users\stapi\AppData\Local\Temp\ccmnwr16.s:2459   .text.timer_channel_capture_value_register_read:000000000000001c .LVL141
C:\Users\stapi\AppData\Local\Temp\ccmnwr16.s:2462   .text.timer_channel_capture_value_register_read:000000000000001e .LVL142
C:\Users\stapi\AppData\Local\Temp\ccmnwr16.s:2467   .text.timer_channel_capture_value_register_read:0000000000000020 .LVL143
C:\Users\stapi\AppData\Local\Temp\ccmnwr16.s:2470   .text.timer_channel_capture_value_register_read:0000000000000022 .LVL144
C:\Users\stapi\AppData\Local\Temp\ccmnwr16.s:2475   .text.timer_channel_capture_value_register_read:0000000000000024 .LVL145
C:\Users\stapi\AppData\Local\Temp\ccmnwr16.s:2098   .text.timer_channel_input_capture_prescaler_config:0000000000000000 .LVL125
C:\Users\stapi\AppData\Local\Temp\ccmnwr16.s:2112   .text.timer_channel_input_capture_prescaler_config:0000000000000014 .LVL126
C:\Users\stapi\AppData\Local\Temp\ccmnwr16.s:2119   .text.timer_channel_input_capture_prescaler_config:000000000000001a .LVL127
C:\Users\stapi\AppData\Local\Temp\ccmnwr16.s:2138   .text.timer_channel_input_capture_prescaler_config:0000000000000032 .LVL128
C:\Users\stapi\AppData\Local\Temp\ccmnwr16.s:2140   .text.timer_channel_input_capture_prescaler_config:0000000000000034 .LVL129
C:\Users\stapi\AppData\Local\Temp\ccmnwr16.s:2150   .text.timer_channel_input_capture_prescaler_config:000000000000003c .LVL130
C:\Users\stapi\AppData\Local\Temp\ccmnwr16.s:2158   .text.timer_channel_input_capture_prescaler_config:0000000000000042 .LVL131
C:\Users\stapi\AppData\Local\Temp\ccmnwr16.s:2172   .text.timer_channel_input_capture_prescaler_config:0000000000000052 .LVL132
C:\Users\stapi\AppData\Local\Temp\ccmnwr16.s:2185   .text.timer_input_capture_config:0000000000000000 .LVL133
C:\Users\stapi\AppData\Local\Temp\ccmnwr16.s:2248   .text.timer_input_capture_config:000000000000006a .LVL134
C:\Users\stapi\AppData\Local\Temp\ccmnwr16.s:2005   .text.timer_channel_complementary_output_state_config:0000000000000000 .LVL118
C:\Users\stapi\AppData\Local\Temp\ccmnwr16.s:2020   .text.timer_channel_complementary_output_state_config:0000000000000016 .LVL119
C:\Users\stapi\AppData\Local\Temp\ccmnwr16.s:2029   .text.timer_channel_complementary_output_state_config:000000000000001c .LVL120
C:\Users\stapi\AppData\Local\Temp\ccmnwr16.s:2036   .text.timer_channel_complementary_output_state_config:0000000000000020 .LVL121
C:\Users\stapi\AppData\Local\Temp\ccmnwr16.s:2044   .text.timer_channel_complementary_output_state_config:000000000000002a .LVL122
C:\Users\stapi\AppData\Local\Temp\ccmnwr16.s:2051   .text.timer_channel_complementary_output_state_config:000000000000002e .LVL123
C:\Users\stapi\AppData\Local\Temp\ccmnwr16.s:1922   .text.timer_channel_output_state_config:0000000000000000 .LVL110
C:\Users\stapi\AppData\Local\Temp\ccmnwr16.s:1936   .text.timer_channel_output_state_config:0000000000000014 .LVL111
C:\Users\stapi\AppData\Local\Temp\ccmnwr16.s:1944   .text.timer_channel_output_state_config:000000000000001a .LVL112
C:\Users\stapi\AppData\Local\Temp\ccmnwr16.s:1956   .text.timer_channel_output_state_config:0000000000000026 .LVL113
C:\Users\stapi\AppData\Local\Temp\ccmnwr16.s:1964   .text.timer_channel_output_state_config:000000000000002e .LVL114
C:\Users\stapi\AppData\Local\Temp\ccmnwr16.s:1971   .text.timer_channel_output_state_config:0000000000000032 .LVL115
C:\Users\stapi\AppData\Local\Temp\ccmnwr16.s:1979   .text.timer_channel_output_state_config:000000000000003c .LVL116
C:\Users\stapi\AppData\Local\Temp\ccmnwr16.s:1986   .text.timer_channel_output_state_config:0000000000000040 .LVL117
C:\Users\stapi\AppData\Local\Temp\ccmnwr16.s:1857   .text.timer_channel_complementary_output_polarity_config:0000000000000000 .LVL104
C:\Users\stapi\AppData\Local\Temp\ccmnwr16.s:1872   .text.timer_channel_complementary_output_polarity_config:0000000000000016 .LVL105
C:\Users\stapi\AppData\Local\Temp\ccmnwr16.s:1881   .text.timer_channel_complementary_output_polarity_config:000000000000001c .LVL106
C:\Users\stapi\AppData\Local\Temp\ccmnwr16.s:1888   .text.timer_channel_complementary_output_polarity_config:0000000000000020 .LVL107
C:\Users\stapi\AppData\Local\Temp\ccmnwr16.s:1896   .text.timer_channel_complementary_output_polarity_config:000000000000002a .LVL108
C:\Users\stapi\AppData\Local\Temp\ccmnwr16.s:1903   .text.timer_channel_complementary_output_polarity_config:000000000000002e .LVL109
C:\Users\stapi\AppData\Local\Temp\ccmnwr16.s:1774   .text.timer_channel_output_polarity_config:0000000000000000 .LVL96
C:\Users\stapi\AppData\Local\Temp\ccmnwr16.s:1788   .text.timer_channel_output_polarity_config:0000000000000014 .LVL97
C:\Users\stapi\AppData\Local\Temp\ccmnwr16.s:1796   .text.timer_channel_output_polarity_config:000000000000001a .LVL98
C:\Users\stapi\AppData\Local\Temp\ccmnwr16.s:1808   .text.timer_channel_output_polarity_config:0000000000000026 .LVL99
C:\Users\stapi\AppData\Local\Temp\ccmnwr16.s:1816   .text.timer_channel_output_polarity_config:0000000000000030 .LVL100
C:\Users\stapi\AppData\Local\Temp\ccmnwr16.s:1823   .text.timer_channel_output_polarity_config:0000000000000034 .LVL101
C:\Users\stapi\AppData\Local\Temp\ccmnwr16.s:1831   .text.timer_channel_output_polarity_config:000000000000003e .LVL102
C:\Users\stapi\AppData\Local\Temp\ccmnwr16.s:1838   .text.timer_channel_output_polarity_config:0000000000000042 .LVL103
C:\Users\stapi\AppData\Local\Temp\ccmnwr16.s:1689   .text.timer_channel_output_clear_config:0000000000000000 .LVL88
C:\Users\stapi\AppData\Local\Temp\ccmnwr16.s:1703   .text.timer_channel_output_clear_config:0000000000000016 .LVL89
C:\Users\stapi\AppData\Local\Temp\ccmnwr16.s:1710   .text.timer_channel_output_clear_config:000000000000001c .LVL90
C:\Users\stapi\AppData\Local\Temp\ccmnwr16.s:1722   .text.timer_channel_output_clear_config:0000000000000028 .LVL91
C:\Users\stapi\AppData\Local\Temp\ccmnwr16.s:1730   .text.timer_channel_output_clear_config:0000000000000032 .LVL92
C:\Users\stapi\AppData\Local\Temp\ccmnwr16.s:1740   .text.timer_channel_output_clear_config:000000000000003c .LVL93
C:\Users\stapi\AppData\Local\Temp\ccmnwr16.s:1748   .text.timer_channel_output_clear_config:0000000000000042 .LVL94
C:\Users\stapi\AppData\Local\Temp\ccmnwr16.s:1755   .text.timer_channel_output_clear_config:0000000000000046 .LVL95
C:\Users\stapi\AppData\Local\Temp\ccmnwr16.s:1604   .text.timer_channel_output_fast_config:0000000000000000 .LVL80
C:\Users\stapi\AppData\Local\Temp\ccmnwr16.s:1618   .text.timer_channel_output_fast_config:0000000000000014 .LVL81
C:\Users\stapi\AppData\Local\Temp\ccmnwr16.s:1625   .text.timer_channel_output_fast_config:000000000000001a .LVL82
C:\Users\stapi\AppData\Local\Temp\ccmnwr16.s:1637   .text.timer_channel_output_fast_config:0000000000000026 .LVL83
C:\Users\stapi\AppData\Local\Temp\ccmnwr16.s:1645   .text.timer_channel_output_fast_config:0000000000000030 .LVL84
C:\Users\stapi\AppData\Local\Temp\ccmnwr16.s:1655   .text.timer_channel_output_fast_config:0000000000000038 .LVL85
C:\Users\stapi\AppData\Local\Temp\ccmnwr16.s:1663   .text.timer_channel_output_fast_config:000000000000003e .LVL86
C:\Users\stapi\AppData\Local\Temp\ccmnwr16.s:1670   .text.timer_channel_output_fast_config:0000000000000042 .LVL87
C:\Users\stapi\AppData\Local\Temp\ccmnwr16.s:1519   .text.timer_channel_output_shadow_config:0000000000000000 .LVL72
C:\Users\stapi\AppData\Local\Temp\ccmnwr16.s:1533   .text.timer_channel_output_shadow_config:0000000000000014 .LVL73
C:\Users\stapi\AppData\Local\Temp\ccmnwr16.s:1540   .text.timer_channel_output_shadow_config:000000000000001a .LVL74
C:\Users\stapi\AppData\Local\Temp\ccmnwr16.s:1552   .text.timer_channel_output_shadow_config:0000000000000026 .LVL75
C:\Users\stapi\AppData\Local\Temp\ccmnwr16.s:1560   .text.timer_channel_output_shadow_config:0000000000000030 .LVL76
C:\Users\stapi\AppData\Local\Temp\ccmnwr16.s:1570   .text.timer_channel_output_shadow_config:0000000000000038 .LVL77
C:\Users\stapi\AppData\Local\Temp\ccmnwr16.s:1578   .text.timer_channel_output_shadow_config:000000000000003e .LVL78
C:\Users\stapi\AppData\Local\Temp\ccmnwr16.s:1585   .text.timer_channel_output_shadow_config:0000000000000042 .LVL79
C:\Users\stapi\AppData\Local\Temp\ccmnwr16.s:1386   .text.timer_channel_output_mode_config:0000000000000000 .LVL63
C:\Users\stapi\AppData\Local\Temp\ccmnwr16.s:1400   .text.timer_channel_output_mode_config:0000000000000016 .LVL64
C:\Users\stapi\AppData\Local\Temp\ccmnwr16.s:1407   .text.timer_channel_output_mode_config:000000000000001c .LVL65
C:\Users\stapi\AppData\Local\Temp\ccmnwr16.s:1426   .text.timer_channel_output_mode_config:0000000000000032 .LVL66
C:\Users\stapi\AppData\Local\Temp\ccmnwr16.s:1428   .text.timer_channel_output_mode_config:0000000000000034 .LVL67
C:\Users\stapi\AppData\Local\Temp\ccmnwr16.s:1438   .text.timer_channel_output_mode_config:000000000000003e .LVL68
C:\Users\stapi\AppData\Local\Temp\ccmnwr16.s:1446   .text.timer_channel_output_mode_config:0000000000000044 .LVL69
C:\Users\stapi\AppData\Local\Temp\ccmnwr16.s:1460   .text.timer_channel_output_mode_config:0000000000000052 .LVL70
C:\Users\stapi\AppData\Local\Temp\ccmnwr16.s:734    .text.timer_event_software_generate:0000000000000000 .LVL50
C:\Users\stapi\AppData\Local\Temp\ccmnwr16.s:739    .text.timer_event_software_generate:0000000000000004 .LVL51
C:\Users\stapi\AppData\Local\Temp\ccmnwr16.s:704    .text.timer_dma_transfer_config:0000000000000000 .LVL48
C:\Users\stapi\AppData\Local\Temp\ccmnwr16.s:717    .text.timer_dma_transfer_config:0000000000000010 .LVL49
C:\Users\stapi\AppData\Local\Temp\ccmnwr16.s:648    .text.timer_dma_disable:0000000000000000 .LVL45
C:\Users\stapi\AppData\Local\Temp\ccmnwr16.s:653    .text.timer_dma_disable:0000000000000006 .LVL46
C:\Users\stapi\AppData\Local\Temp\ccmnwr16.s:628    .text.timer_dma_enable:0000000000000000 .LVL43
C:\Users\stapi\AppData\Local\Temp\ccmnwr16.s:633    .text.timer_dma_enable:0000000000000004 .LVL44
C:\Users\stapi\AppData\Local\Temp\ccmnwr16.s:535    .text.timer_prescaler_read:0000000000000000 .LVL39
C:\Users\stapi\AppData\Local\Temp\ccmnwr16.s:540    .text.timer_prescaler_read:0000000000000002 .LVL40
C:\Users\stapi\AppData\Local\Temp\ccmnwr16.s:515    .text.timer_counter_read:0000000000000000 .LVL37
C:\Users\stapi\AppData\Local\Temp\ccmnwr16.s:520    .text.timer_counter_read:0000000000000002 .LVL38
C:\Users\stapi\AppData\Local\Temp\ccmnwr16.s:375    .text.timer_counter_alignment:0000000000000000 .LVL29
C:\Users\stapi\AppData\Local\Temp\ccmnwr16.s:385    .text.timer_counter_alignment:000000000000000c .LVL30
C:\Users\stapi\AppData\Local\Temp\ccmnwr16.s:18     .text.timer_deinit:0000000000000000 .LVL0
C:\Users\stapi\AppData\Local\Temp\ccmnwr16.s:33     .text.timer_deinit:000000000000002c .LVL1
C:\Users\stapi\AppData\Local\Temp\ccmnwr16.s:41     .text.timer_deinit:0000000000000034 .LVL2
C:\Users\stapi\AppData\Local\Temp\ccmnwr16.s:52     .text.timer_deinit:000000000000004a .LVL3
C:\Users\stapi\AppData\Local\Temp\ccmnwr16.s:58     .text.timer_deinit:0000000000000058 .LVL5
C:\Users\stapi\AppData\Local\Temp\ccmnwr16.s:63     .text.timer_deinit:000000000000005e .LVL6
C:\Users\stapi\AppData\Local\Temp\ccmnwr16.s:75     .text.timer_deinit:0000000000000074 .LVL9
C:\Users\stapi\AppData\Local\Temp\ccmnwr16.s:80     .text.timer_deinit:000000000000007a .LVL10
C:\Users\stapi\AppData\Local\Temp\ccmnwr16.s:86     .text.timer_deinit:0000000000000088 .LVL12
C:\Users\stapi\AppData\Local\Temp\ccmnwr16.s:91     .text.timer_deinit:000000000000008e .LVL13
C:\Users\stapi\AppData\Local\Temp\ccmnwr16.s:97     .text.timer_deinit:000000000000009c .LVL15
C:\Users\stapi\AppData\Local\Temp\ccmnwr16.s:102    .text.timer_deinit:00000000000000a2 .LVL16
C:\Users\stapi\AppData\Local\Temp\ccmnwr16.s:108    .text.timer_deinit:00000000000000b0 .LVL18
C:\Users\stapi\AppData\Local\Temp\ccmnwr16.s:113    .text.timer_deinit:00000000000000b6 .LVL19
C:\Users\stapi\AppData\Local\Temp\ccmnwr16.s:3576   .text.timer_flag_clear:0000000000000000 .LVL226
C:\Users\stapi\AppData\Local\Temp\ccmnwr16.s:3580   .text.timer_flag_clear:0000000000000004 .LVL227
C:\Users\stapi\AppData\Local\Temp\ccmnwr16.s:3682   .debug_info:0000000000000000 .Ldebug_info0

UNDEFINED SYMBOLS
__riscv_save_1
__riscv_restore_1
rcu_periph_reset_enable
rcu_periph_reset_disable
__riscv_save_3
__riscv_restore_3
__riscv_save_2
__riscv_restore_2
