   1              		.file	"gd32vw55x_dma.c"
   2              		.option nopic
   3              		.attribute arch, "rv32i2p0_m2p0_a2p0_f2p0_c2p0_b_p0p94"
   4              		.attribute unaligned_access, 0
   5              		.attribute stack_align, 16
   6              		.text
   7              	.Ltext0:
   8              		.cfi_sections	.debug_frame
   9              		.section	.text.dma_deinit,"ax",@progbits
  10              		.align	1
  11              		.globl	dma_deinit
  13              	dma_deinit:
  14              	.LFB365:
  15              		.file 1 "C:/Users/stapi/OneDrive/Desktop/GD32VW553/GD32VW55X_Wifi_BLE_SDK/GD32VW55x_RELEASE_V1.0.2
   1:C:/Users/stapi/OneDrive/Desktop/GD32VW553/GD32VW55X_Wifi_BLE_SDK/GD32VW55x_RELEASE_V1.0.2/MSDK/plf/GD32VW55x_standard_peripheral/Source\gd32vw55x_dma.c **** /*!
   2:C:/Users/stapi/OneDrive/Desktop/GD32VW553/GD32VW55X_Wifi_BLE_SDK/GD32VW55x_RELEASE_V1.0.2/MSDK/plf/GD32VW55x_standard_peripheral/Source\gd32vw55x_dma.c ****     \file    gd32vw55x_dma.c
   3:C:/Users/stapi/OneDrive/Desktop/GD32VW553/GD32VW55X_Wifi_BLE_SDK/GD32VW55x_RELEASE_V1.0.2/MSDK/plf/GD32VW55x_standard_peripheral/Source\gd32vw55x_dma.c ****     \brief   DMA driver
   4:C:/Users/stapi/OneDrive/Desktop/GD32VW553/GD32VW55X_Wifi_BLE_SDK/GD32VW55x_RELEASE_V1.0.2/MSDK/plf/GD32VW55x_standard_peripheral/Source\gd32vw55x_dma.c **** 
   5:C:/Users/stapi/OneDrive/Desktop/GD32VW553/GD32VW55X_Wifi_BLE_SDK/GD32VW55x_RELEASE_V1.0.2/MSDK/plf/GD32VW55x_standard_peripheral/Source\gd32vw55x_dma.c ****     \version 2023-07-20, V1.0.0, firmware for GD32VW55x
   6:C:/Users/stapi/OneDrive/Desktop/GD32VW553/GD32VW55X_Wifi_BLE_SDK/GD32VW55x_RELEASE_V1.0.2/MSDK/plf/GD32VW55x_standard_peripheral/Source\gd32vw55x_dma.c **** */
   7:C:/Users/stapi/OneDrive/Desktop/GD32VW553/GD32VW55X_Wifi_BLE_SDK/GD32VW55x_RELEASE_V1.0.2/MSDK/plf/GD32VW55x_standard_peripheral/Source\gd32vw55x_dma.c **** 
   8:C:/Users/stapi/OneDrive/Desktop/GD32VW553/GD32VW55X_Wifi_BLE_SDK/GD32VW55x_RELEASE_V1.0.2/MSDK/plf/GD32VW55x_standard_peripheral/Source\gd32vw55x_dma.c **** /*
   9:C:/Users/stapi/OneDrive/Desktop/GD32VW553/GD32VW55X_Wifi_BLE_SDK/GD32VW55x_RELEASE_V1.0.2/MSDK/plf/GD32VW55x_standard_peripheral/Source\gd32vw55x_dma.c ****     Copyright (c) 2023, GigaDevice Semiconductor Inc.
  10:C:/Users/stapi/OneDrive/Desktop/GD32VW553/GD32VW55X_Wifi_BLE_SDK/GD32VW55x_RELEASE_V1.0.2/MSDK/plf/GD32VW55x_standard_peripheral/Source\gd32vw55x_dma.c **** 
  11:C:/Users/stapi/OneDrive/Desktop/GD32VW553/GD32VW55X_Wifi_BLE_SDK/GD32VW55x_RELEASE_V1.0.2/MSDK/plf/GD32VW55x_standard_peripheral/Source\gd32vw55x_dma.c ****     Redistribution and use in source and binary forms, with or without modification,
  12:C:/Users/stapi/OneDrive/Desktop/GD32VW553/GD32VW55X_Wifi_BLE_SDK/GD32VW55x_RELEASE_V1.0.2/MSDK/plf/GD32VW55x_standard_peripheral/Source\gd32vw55x_dma.c **** are permitted provided that the following conditions are met:
  13:C:/Users/stapi/OneDrive/Desktop/GD32VW553/GD32VW55X_Wifi_BLE_SDK/GD32VW55x_RELEASE_V1.0.2/MSDK/plf/GD32VW55x_standard_peripheral/Source\gd32vw55x_dma.c **** 
  14:C:/Users/stapi/OneDrive/Desktop/GD32VW553/GD32VW55X_Wifi_BLE_SDK/GD32VW55x_RELEASE_V1.0.2/MSDK/plf/GD32VW55x_standard_peripheral/Source\gd32vw55x_dma.c ****     1. Redistributions of source code must retain the above copyright notice, this
  15:C:/Users/stapi/OneDrive/Desktop/GD32VW553/GD32VW55X_Wifi_BLE_SDK/GD32VW55x_RELEASE_V1.0.2/MSDK/plf/GD32VW55x_standard_peripheral/Source\gd32vw55x_dma.c ****        list of conditions and the following disclaimer.
  16:C:/Users/stapi/OneDrive/Desktop/GD32VW553/GD32VW55X_Wifi_BLE_SDK/GD32VW55x_RELEASE_V1.0.2/MSDK/plf/GD32VW55x_standard_peripheral/Source\gd32vw55x_dma.c ****     2. Redistributions in binary form must reproduce the above copyright notice,
  17:C:/Users/stapi/OneDrive/Desktop/GD32VW553/GD32VW55X_Wifi_BLE_SDK/GD32VW55x_RELEASE_V1.0.2/MSDK/plf/GD32VW55x_standard_peripheral/Source\gd32vw55x_dma.c ****        this list of conditions and the following disclaimer in the documentation
  18:C:/Users/stapi/OneDrive/Desktop/GD32VW553/GD32VW55X_Wifi_BLE_SDK/GD32VW55x_RELEASE_V1.0.2/MSDK/plf/GD32VW55x_standard_peripheral/Source\gd32vw55x_dma.c ****        and/or other materials provided with the distribution.
  19:C:/Users/stapi/OneDrive/Desktop/GD32VW553/GD32VW55X_Wifi_BLE_SDK/GD32VW55x_RELEASE_V1.0.2/MSDK/plf/GD32VW55x_standard_peripheral/Source\gd32vw55x_dma.c ****     3. Neither the name of the copyright holder nor the names of its contributors
  20:C:/Users/stapi/OneDrive/Desktop/GD32VW553/GD32VW55X_Wifi_BLE_SDK/GD32VW55x_RELEASE_V1.0.2/MSDK/plf/GD32VW55x_standard_peripheral/Source\gd32vw55x_dma.c ****        may be used to endorse or promote products derived from this software without
  21:C:/Users/stapi/OneDrive/Desktop/GD32VW553/GD32VW55X_Wifi_BLE_SDK/GD32VW55x_RELEASE_V1.0.2/MSDK/plf/GD32VW55x_standard_peripheral/Source\gd32vw55x_dma.c ****        specific prior written permission.
  22:C:/Users/stapi/OneDrive/Desktop/GD32VW553/GD32VW55X_Wifi_BLE_SDK/GD32VW55x_RELEASE_V1.0.2/MSDK/plf/GD32VW55x_standard_peripheral/Source\gd32vw55x_dma.c **** 
  23:C:/Users/stapi/OneDrive/Desktop/GD32VW553/GD32VW55X_Wifi_BLE_SDK/GD32VW55x_RELEASE_V1.0.2/MSDK/plf/GD32VW55x_standard_peripheral/Source\gd32vw55x_dma.c ****     THIS SOFTWARE IS PROVIDED BY THE COPYRIGHT HOLDERS AND CONTRIBUTORS "AS IS"
  24:C:/Users/stapi/OneDrive/Desktop/GD32VW553/GD32VW55X_Wifi_BLE_SDK/GD32VW55x_RELEASE_V1.0.2/MSDK/plf/GD32VW55x_standard_peripheral/Source\gd32vw55x_dma.c **** AND ANY EXPRESS OR IMPLIED WARRANTIES, INCLUDING, BUT NOT LIMITED TO, THE IMPLIED
  25:C:/Users/stapi/OneDrive/Desktop/GD32VW553/GD32VW55X_Wifi_BLE_SDK/GD32VW55x_RELEASE_V1.0.2/MSDK/plf/GD32VW55x_standard_peripheral/Source\gd32vw55x_dma.c **** WARRANTIES OF MERCHANTABILITY AND FITNESS FOR A PARTICULAR PURPOSE ARE DISCLAIMED.
  26:C:/Users/stapi/OneDrive/Desktop/GD32VW553/GD32VW55X_Wifi_BLE_SDK/GD32VW55x_RELEASE_V1.0.2/MSDK/plf/GD32VW55x_standard_peripheral/Source\gd32vw55x_dma.c **** IN NO EVENT SHALL THE COPYRIGHT HOLDER OR CONTRIBUTORS BE LIABLE FOR ANY DIRECT,
  27:C:/Users/stapi/OneDrive/Desktop/GD32VW553/GD32VW55X_Wifi_BLE_SDK/GD32VW55x_RELEASE_V1.0.2/MSDK/plf/GD32VW55x_standard_peripheral/Source\gd32vw55x_dma.c **** INDIRECT, INCIDENTAL, SPECIAL, EXEMPLARY, OR CONSEQUENTIAL DAMAGES (INCLUDING, BUT
  28:C:/Users/stapi/OneDrive/Desktop/GD32VW553/GD32VW55X_Wifi_BLE_SDK/GD32VW55x_RELEASE_V1.0.2/MSDK/plf/GD32VW55x_standard_peripheral/Source\gd32vw55x_dma.c **** NOT LIMITED TO, PROCUREMENT OF SUBSTITUTE GOODS OR SERVICES; LOSS OF USE, DATA, OR
  29:C:/Users/stapi/OneDrive/Desktop/GD32VW553/GD32VW55X_Wifi_BLE_SDK/GD32VW55x_RELEASE_V1.0.2/MSDK/plf/GD32VW55x_standard_peripheral/Source\gd32vw55x_dma.c **** PROFITS; OR BUSINESS INTERRUPTION) HOWEVER CAUSED AND ON ANY THEORY OF LIABILITY,
  30:C:/Users/stapi/OneDrive/Desktop/GD32VW553/GD32VW55X_Wifi_BLE_SDK/GD32VW55x_RELEASE_V1.0.2/MSDK/plf/GD32VW55x_standard_peripheral/Source\gd32vw55x_dma.c **** WHETHER IN CONTRACT, STRICT LIABILITY, OR TORT (INCLUDING NEGLIGENCE OR OTHERWISE)
  31:C:/Users/stapi/OneDrive/Desktop/GD32VW553/GD32VW55X_Wifi_BLE_SDK/GD32VW55x_RELEASE_V1.0.2/MSDK/plf/GD32VW55x_standard_peripheral/Source\gd32vw55x_dma.c **** ARISING IN ANY WAY OUT OF THE USE OF THIS SOFTWARE, EVEN IF ADVISED OF THE POSSIBILITY
  32:C:/Users/stapi/OneDrive/Desktop/GD32VW553/GD32VW55X_Wifi_BLE_SDK/GD32VW55x_RELEASE_V1.0.2/MSDK/plf/GD32VW55x_standard_peripheral/Source\gd32vw55x_dma.c **** OF SUCH DAMAGE.
  33:C:/Users/stapi/OneDrive/Desktop/GD32VW553/GD32VW55X_Wifi_BLE_SDK/GD32VW55x_RELEASE_V1.0.2/MSDK/plf/GD32VW55x_standard_peripheral/Source\gd32vw55x_dma.c **** */
  34:C:/Users/stapi/OneDrive/Desktop/GD32VW553/GD32VW55X_Wifi_BLE_SDK/GD32VW55x_RELEASE_V1.0.2/MSDK/plf/GD32VW55x_standard_peripheral/Source\gd32vw55x_dma.c **** 
  35:C:/Users/stapi/OneDrive/Desktop/GD32VW553/GD32VW55X_Wifi_BLE_SDK/GD32VW55x_RELEASE_V1.0.2/MSDK/plf/GD32VW55x_standard_peripheral/Source\gd32vw55x_dma.c **** #include "gd32vw55x_dma.h"
  36:C:/Users/stapi/OneDrive/Desktop/GD32VW553/GD32VW55X_Wifi_BLE_SDK/GD32VW55x_RELEASE_V1.0.2/MSDK/plf/GD32VW55x_standard_peripheral/Source\gd32vw55x_dma.c **** 
  37:C:/Users/stapi/OneDrive/Desktop/GD32VW553/GD32VW55X_Wifi_BLE_SDK/GD32VW55x_RELEASE_V1.0.2/MSDK/plf/GD32VW55x_standard_peripheral/Source\gd32vw55x_dma.c **** /*DMA register bit offset */
  38:C:/Users/stapi/OneDrive/Desktop/GD32VW553/GD32VW55X_Wifi_BLE_SDK/GD32VW55x_RELEASE_V1.0.2/MSDK/plf/GD32VW55x_standard_peripheral/Source\gd32vw55x_dma.c **** #define CHXCTL_PERIEN_OFFSET            ((uint32_t)25U)
  39:C:/Users/stapi/OneDrive/Desktop/GD32VW553/GD32VW55X_Wifi_BLE_SDK/GD32VW55x_RELEASE_V1.0.2/MSDK/plf/GD32VW55x_standard_peripheral/Source\gd32vw55x_dma.c **** 
  40:C:/Users/stapi/OneDrive/Desktop/GD32VW553/GD32VW55X_Wifi_BLE_SDK/GD32VW55x_RELEASE_V1.0.2/MSDK/plf/GD32VW55x_standard_peripheral/Source\gd32vw55x_dma.c **** /*!
  41:C:/Users/stapi/OneDrive/Desktop/GD32VW553/GD32VW55X_Wifi_BLE_SDK/GD32VW55x_RELEASE_V1.0.2/MSDK/plf/GD32VW55x_standard_peripheral/Source\gd32vw55x_dma.c ****     \brief      deinitialize DMA a channel registers
  42:C:/Users/stapi/OneDrive/Desktop/GD32VW553/GD32VW55X_Wifi_BLE_SDK/GD32VW55x_RELEASE_V1.0.2/MSDK/plf/GD32VW55x_standard_peripheral/Source\gd32vw55x_dma.c ****     \param[in]  channelx: specify which DMA channel is deinitialized
  43:C:/Users/stapi/OneDrive/Desktop/GD32VW553/GD32VW55X_Wifi_BLE_SDK/GD32VW55x_RELEASE_V1.0.2/MSDK/plf/GD32VW55x_standard_peripheral/Source\gd32vw55x_dma.c ****       \arg        DMA_CHx (x=0..7)
  44:C:/Users/stapi/OneDrive/Desktop/GD32VW553/GD32VW55X_Wifi_BLE_SDK/GD32VW55x_RELEASE_V1.0.2/MSDK/plf/GD32VW55x_standard_peripheral/Source\gd32vw55x_dma.c ****     \param[out] none
  45:C:/Users/stapi/OneDrive/Desktop/GD32VW553/GD32VW55X_Wifi_BLE_SDK/GD32VW55x_RELEASE_V1.0.2/MSDK/plf/GD32VW55x_standard_peripheral/Source\gd32vw55x_dma.c ****     \retval     none
  46:C:/Users/stapi/OneDrive/Desktop/GD32VW553/GD32VW55X_Wifi_BLE_SDK/GD32VW55x_RELEASE_V1.0.2/MSDK/plf/GD32VW55x_standard_peripheral/Source\gd32vw55x_dma.c **** */
  47:C:/Users/stapi/OneDrive/Desktop/GD32VW553/GD32VW55X_Wifi_BLE_SDK/GD32VW55x_RELEASE_V1.0.2/MSDK/plf/GD32VW55x_standard_peripheral/Source\gd32vw55x_dma.c **** void dma_deinit(dma_channel_enum channelx)
  48:C:/Users/stapi/OneDrive/Desktop/GD32VW553/GD32VW55X_Wifi_BLE_SDK/GD32VW55x_RELEASE_V1.0.2/MSDK/plf/GD32VW55x_standard_peripheral/Source\gd32vw55x_dma.c **** {
  16              		.loc 1 48 1
  17              		.cfi_startproc
  18              	.LVL0:
  49:C:/Users/stapi/OneDrive/Desktop/GD32VW553/GD32VW55X_Wifi_BLE_SDK/GD32VW55x_RELEASE_V1.0.2/MSDK/plf/GD32VW55x_standard_peripheral/Source\gd32vw55x_dma.c ****     /* disable DMA a channel */
  50:C:/Users/stapi/OneDrive/Desktop/GD32VW553/GD32VW55X_Wifi_BLE_SDK/GD32VW55x_RELEASE_V1.0.2/MSDK/plf/GD32VW55x_standard_peripheral/Source\gd32vw55x_dma.c ****     DMA_CHCTL(channelx) &= ~DMA_CHXCTL_CHEN;
  19              		.loc 1 50 5
  20              		.loc 1 50 25 is_stmt 0
  21 0000 6147     		li	a4,24
  22 0002 3307E502 		mul	a4,a0,a4
  23 0006 B7670240 		li	a5,1073897472
  24 000a 93860701 		addi	a3,a5,16
  25 000e BA96     		add	a3,a4,a3
  26 0010 9042     		lw	a2,0(a3)
  27 0012 799A     		andi	a2,a2,-2
  28 0014 90C2     		sw	a2,0(a3)
  51:C:/Users/stapi/OneDrive/Desktop/GD32VW553/GD32VW55X_Wifi_BLE_SDK/GD32VW55x_RELEASE_V1.0.2/MSDK/plf/GD32VW55x_standard_peripheral/Source\gd32vw55x_dma.c ****     /* reset DMA channel registers */
  52:C:/Users/stapi/OneDrive/Desktop/GD32VW553/GD32VW55X_Wifi_BLE_SDK/GD32VW55x_RELEASE_V1.0.2/MSDK/plf/GD32VW55x_standard_peripheral/Source\gd32vw55x_dma.c ****     DMA_CHCTL(channelx) = DMA_CHCTL_RESET_VALUE;
  29              		.loc 1 52 5 is_stmt 1
  30              		.loc 1 52 25 is_stmt 0
  31 0016 23A00600 		sw	zero,0(a3)
  53:C:/Users/stapi/OneDrive/Desktop/GD32VW553/GD32VW55X_Wifi_BLE_SDK/GD32VW55x_RELEASE_V1.0.2/MSDK/plf/GD32VW55x_standard_peripheral/Source\gd32vw55x_dma.c ****     DMA_CHCNT(channelx) = DMA_CHCNT_RESET_VALUE;
  32              		.loc 1 53 5 is_stmt 1
  33 001a 93864701 		addi	a3,a5,20
  34 001e BA96     		add	a3,a4,a3
  35              		.loc 1 53 25 is_stmt 0
  36 0020 23A00600 		sw	zero,0(a3)
  54:C:/Users/stapi/OneDrive/Desktop/GD32VW553/GD32VW55X_Wifi_BLE_SDK/GD32VW55x_RELEASE_V1.0.2/MSDK/plf/GD32VW55x_standard_peripheral/Source\gd32vw55x_dma.c ****     DMA_CHPADDR(channelx) = DMA_CHPADDR_RESET_VALUE;
  37              		.loc 1 54 5 is_stmt 1
  38 0024 93868701 		addi	a3,a5,24
  39 0028 BA96     		add	a3,a4,a3
  40              		.loc 1 54 27 is_stmt 0
  41 002a 23A00600 		sw	zero,0(a3)
  55:C:/Users/stapi/OneDrive/Desktop/GD32VW553/GD32VW55X_Wifi_BLE_SDK/GD32VW55x_RELEASE_V1.0.2/MSDK/plf/GD32VW55x_standard_peripheral/Source\gd32vw55x_dma.c ****     DMA_CHM0ADDR(channelx) = DMA_CHMADDR_RESET_VALUE;
  42              		.loc 1 55 5 is_stmt 1
  43 002e 9386C701 		addi	a3,a5,28
  44 0032 BA96     		add	a3,a4,a3
  45              		.loc 1 55 28 is_stmt 0
  46 0034 23A00600 		sw	zero,0(a3)
  56:C:/Users/stapi/OneDrive/Desktop/GD32VW553/GD32VW55X_Wifi_BLE_SDK/GD32VW55x_RELEASE_V1.0.2/MSDK/plf/GD32VW55x_standard_peripheral/Source\gd32vw55x_dma.c ****     DMA_CHM1ADDR(channelx) = DMA_CHMADDR_RESET_VALUE;
  47              		.loc 1 56 5 is_stmt 1
  48 0038 93860702 		addi	a3,a5,32
  49 003c BA96     		add	a3,a4,a3
  50              		.loc 1 56 28 is_stmt 0
  51 003e 23A00600 		sw	zero,0(a3)
  57:C:/Users/stapi/OneDrive/Desktop/GD32VW553/GD32VW55X_Wifi_BLE_SDK/GD32VW55x_RELEASE_V1.0.2/MSDK/plf/GD32VW55x_standard_peripheral/Source\gd32vw55x_dma.c ****     DMA_CHFCTL(channelx) = DMA_CHFCTL_RESET_VALUE;
  52              		.loc 1 57 5 is_stmt 1
  53 0042 93864702 		addi	a3,a5,36
  54 0046 3697     		add	a4,a4,a3
  55              		.loc 1 57 26 is_stmt 0
  56 0048 93061002 		li	a3,33
  57 004c 14C3     		sw	a3,0(a4)
  58:C:/Users/stapi/OneDrive/Desktop/GD32VW553/GD32VW55X_Wifi_BLE_SDK/GD32VW55x_RELEASE_V1.0.2/MSDK/plf/GD32VW55x_standard_peripheral/Source\gd32vw55x_dma.c ****     if(channelx < DMA_CH4){
  58              		.loc 1 58 5 is_stmt 1
  59              		.loc 1 58 7 is_stmt 0
  60 004e 0D47     		li	a4,3
  61 0050 6361A702 		bgtu	a0,a4,.L2
  59:C:/Users/stapi/OneDrive/Desktop/GD32VW553/GD32VW55X_Wifi_BLE_SDK/GD32VW55x_RELEASE_V1.0.2/MSDK/plf/GD32VW55x_standard_peripheral/Source\gd32vw55x_dma.c ****         DMA_INTC0 |= DMA_FLAG_ADD(DMA_CHINTF_RESET_VALUE, channelx);
  62              		.loc 1 59 9 is_stmt 1
  63              		.loc 1 59 22 is_stmt 0
  64 0054 1946     		li	a2,6
  65 0056 13571500 		srli	a4,a0,1
  66 005a 3305C502 		mul	a0,a0,a2
  67              	.LVL1:
  68              		.loc 1 59 19
  69 005e 9447     		lw	a3,8(a5)
  70              		.loc 1 59 22
  71 0060 3347A720 		sh2add	a4,a4,a0
  72 0064 1305D003 		li	a0,61
  73 0068 3315E500 		sll	a0,a0,a4
  74              		.loc 1 59 19
  75 006c 558D     		or	a0,a0,a3
  76 006e 88C7     		sw	a0,8(a5)
  77 0070 8280     		ret
  78              	.LVL2:
  79              	.L2:
  60:C:/Users/stapi/OneDrive/Desktop/GD32VW553/GD32VW55X_Wifi_BLE_SDK/GD32VW55x_RELEASE_V1.0.2/MSDK/plf/GD32VW55x_standard_peripheral/Source\gd32vw55x_dma.c ****     }else{
  61:C:/Users/stapi/OneDrive/Desktop/GD32VW553/GD32VW55X_Wifi_BLE_SDK/GD32VW55x_RELEASE_V1.0.2/MSDK/plf/GD32VW55x_standard_peripheral/Source\gd32vw55x_dma.c ****         channelx -= (dma_channel_enum)4;
  80              		.loc 1 61 9 is_stmt 1
  81              		.loc 1 61 18 is_stmt 0
  82 0072 1307C5FF 		addi	a4,a0,-4
  83              	.LVL3:
  62:C:/Users/stapi/OneDrive/Desktop/GD32VW553/GD32VW55X_Wifi_BLE_SDK/GD32VW55x_RELEASE_V1.0.2/MSDK/plf/GD32VW55x_standard_peripheral/Source\gd32vw55x_dma.c ****         DMA_INTC1 |= DMA_FLAG_ADD(DMA_CHINTF_RESET_VALUE, channelx);
  84              		.loc 1 62 9 is_stmt 1
  85              		.loc 1 62 22 is_stmt 0
  86 0076 1946     		li	a2,6
  87 0078 3307C702 		mul	a4,a4,a2
  88              	.LVL4:
  89              		.loc 1 62 19
  90 007c D447     		lw	a3,12(a5)
  91              		.loc 1 62 22
  92 007e 13551548 		bexti	a0,a0,1
  93              	.LVL5:
  94 0082 3345E520 		sh2add	a0,a0,a4
  95 0086 1307D003 		li	a4,61
  96 008a 3315A700 		sll	a0,a4,a0
  97              		.loc 1 62 19
  98 008e 558D     		or	a0,a0,a3
  99 0090 C8C7     		sw	a0,12(a5)
  63:C:/Users/stapi/OneDrive/Desktop/GD32VW553/GD32VW55X_Wifi_BLE_SDK/GD32VW55x_RELEASE_V1.0.2/MSDK/plf/GD32VW55x_standard_peripheral/Source\gd32vw55x_dma.c ****     }
  64:C:/Users/stapi/OneDrive/Desktop/GD32VW553/GD32VW55X_Wifi_BLE_SDK/GD32VW55x_RELEASE_V1.0.2/MSDK/plf/GD32VW55x_standard_peripheral/Source\gd32vw55x_dma.c **** }
 100              		.loc 1 64 1
 101 0092 8280     		ret
 102              		.cfi_endproc
 103              	.LFE365:
 105              		.section	.text.dma_single_data_para_struct_init,"ax",@progbits
 106              		.align	1
 107              		.globl	dma_single_data_para_struct_init
 109              	dma_single_data_para_struct_init:
 110              	.LFB366:
  65:C:/Users/stapi/OneDrive/Desktop/GD32VW553/GD32VW55X_Wifi_BLE_SDK/GD32VW55x_RELEASE_V1.0.2/MSDK/plf/GD32VW55x_standard_peripheral/Source\gd32vw55x_dma.c **** 
  66:C:/Users/stapi/OneDrive/Desktop/GD32VW553/GD32VW55X_Wifi_BLE_SDK/GD32VW55x_RELEASE_V1.0.2/MSDK/plf/GD32VW55x_standard_peripheral/Source\gd32vw55x_dma.c **** /*!
  67:C:/Users/stapi/OneDrive/Desktop/GD32VW553/GD32VW55X_Wifi_BLE_SDK/GD32VW55x_RELEASE_V1.0.2/MSDK/plf/GD32VW55x_standard_peripheral/Source\gd32vw55x_dma.c ****     \brief      initialize the DMA single data mode parameters struct with the default values
  68:C:/Users/stapi/OneDrive/Desktop/GD32VW553/GD32VW55X_Wifi_BLE_SDK/GD32VW55x_RELEASE_V1.0.2/MSDK/plf/GD32VW55x_standard_peripheral/Source\gd32vw55x_dma.c ****     \param[in]  none
  69:C:/Users/stapi/OneDrive/Desktop/GD32VW553/GD32VW55X_Wifi_BLE_SDK/GD32VW55x_RELEASE_V1.0.2/MSDK/plf/GD32VW55x_standard_peripheral/Source\gd32vw55x_dma.c ****     \param[out] init_struct: the initialization data needed to initialize DMA channel
  70:C:/Users/stapi/OneDrive/Desktop/GD32VW553/GD32VW55X_Wifi_BLE_SDK/GD32VW55x_RELEASE_V1.0.2/MSDK/plf/GD32VW55x_standard_peripheral/Source\gd32vw55x_dma.c ****     \retval     none
  71:C:/Users/stapi/OneDrive/Desktop/GD32VW553/GD32VW55X_Wifi_BLE_SDK/GD32VW55x_RELEASE_V1.0.2/MSDK/plf/GD32VW55x_standard_peripheral/Source\gd32vw55x_dma.c **** */
  72:C:/Users/stapi/OneDrive/Desktop/GD32VW553/GD32VW55X_Wifi_BLE_SDK/GD32VW55x_RELEASE_V1.0.2/MSDK/plf/GD32VW55x_standard_peripheral/Source\gd32vw55x_dma.c **** void dma_single_data_para_struct_init(dma_single_data_parameter_struct* init_struct)
  73:C:/Users/stapi/OneDrive/Desktop/GD32VW553/GD32VW55X_Wifi_BLE_SDK/GD32VW55x_RELEASE_V1.0.2/MSDK/plf/GD32VW55x_standard_peripheral/Source\gd32vw55x_dma.c **** {
 111              		.loc 1 73 1 is_stmt 1
 112              		.cfi_startproc
 113              	.LVL6:
  74:C:/Users/stapi/OneDrive/Desktop/GD32VW553/GD32VW55X_Wifi_BLE_SDK/GD32VW55x_RELEASE_V1.0.2/MSDK/plf/GD32VW55x_standard_peripheral/Source\gd32vw55x_dma.c ****     /* set the DMA struct with the default values */
  75:C:/Users/stapi/OneDrive/Desktop/GD32VW553/GD32VW55X_Wifi_BLE_SDK/GD32VW55x_RELEASE_V1.0.2/MSDK/plf/GD32VW55x_standard_peripheral/Source\gd32vw55x_dma.c ****     init_struct->periph_addr         = 0U;
 114              		.loc 1 75 5
  76:C:/Users/stapi/OneDrive/Desktop/GD32VW553/GD32VW55X_Wifi_BLE_SDK/GD32VW55x_RELEASE_V1.0.2/MSDK/plf/GD32VW55x_standard_peripheral/Source\gd32vw55x_dma.c ****     init_struct->periph_inc          = DMA_PERIPH_INCREASE_DISABLE;
 115              		.loc 1 76 38 is_stmt 0
 116 0000 8547     		li	a5,1
  75:C:/Users/stapi/OneDrive/Desktop/GD32VW553/GD32VW55X_Wifi_BLE_SDK/GD32VW55x_RELEASE_V1.0.2/MSDK/plf/GD32VW55x_standard_peripheral/Source\gd32vw55x_dma.c ****     init_struct->periph_inc          = DMA_PERIPH_INCREASE_DISABLE;
 117              		.loc 1 75 38
 118 0002 23200500 		sw	zero,0(a0)
 119              		.loc 1 76 5 is_stmt 1
 120              		.loc 1 76 38 is_stmt 0
 121 0006 5CC1     		sw	a5,4(a0)
  77:C:/Users/stapi/OneDrive/Desktop/GD32VW553/GD32VW55X_Wifi_BLE_SDK/GD32VW55x_RELEASE_V1.0.2/MSDK/plf/GD32VW55x_standard_peripheral/Source\gd32vw55x_dma.c ****     init_struct->memory0_addr        = 0U;
 122              		.loc 1 77 5 is_stmt 1
 123              		.loc 1 77 38 is_stmt 0
 124 0008 23240500 		sw	zero,8(a0)
  78:C:/Users/stapi/OneDrive/Desktop/GD32VW553/GD32VW55X_Wifi_BLE_SDK/GD32VW55x_RELEASE_V1.0.2/MSDK/plf/GD32VW55x_standard_peripheral/Source\gd32vw55x_dma.c ****     init_struct->memory_inc          = DMA_MEMORY_INCREASE_DISABLE;
 125              		.loc 1 78 5 is_stmt 1
 126              		.loc 1 78 38 is_stmt 0
 127 000c 5CC5     		sw	a5,12(a0)
  79:C:/Users/stapi/OneDrive/Desktop/GD32VW553/GD32VW55X_Wifi_BLE_SDK/GD32VW55x_RELEASE_V1.0.2/MSDK/plf/GD32VW55x_standard_peripheral/Source\gd32vw55x_dma.c ****     init_struct->periph_memory_width = 0U;
 128              		.loc 1 79 5 is_stmt 1
 129              		.loc 1 79 38 is_stmt 0
 130 000e 23280500 		sw	zero,16(a0)
  80:C:/Users/stapi/OneDrive/Desktop/GD32VW553/GD32VW55X_Wifi_BLE_SDK/GD32VW55x_RELEASE_V1.0.2/MSDK/plf/GD32VW55x_standard_peripheral/Source\gd32vw55x_dma.c ****     init_struct->circular_mode       = DMA_CIRCULAR_MODE_DISABLE;
 131              		.loc 1 80 5 is_stmt 1
 132              		.loc 1 80 38 is_stmt 0
 133 0012 232A0500 		sw	zero,20(a0)
  81:C:/Users/stapi/OneDrive/Desktop/GD32VW553/GD32VW55X_Wifi_BLE_SDK/GD32VW55x_RELEASE_V1.0.2/MSDK/plf/GD32VW55x_standard_peripheral/Source\gd32vw55x_dma.c ****     init_struct->direction           = DMA_PERIPH_TO_MEMORY;
 134              		.loc 1 81 5 is_stmt 1
 135              		.loc 1 81 38 is_stmt 0
 136 0016 232C0500 		sw	zero,24(a0)
  82:C:/Users/stapi/OneDrive/Desktop/GD32VW553/GD32VW55X_Wifi_BLE_SDK/GD32VW55x_RELEASE_V1.0.2/MSDK/plf/GD32VW55x_standard_peripheral/Source\gd32vw55x_dma.c ****     init_struct->number              = 0U;
 137              		.loc 1 82 5 is_stmt 1
 138              		.loc 1 82 38 is_stmt 0
 139 001a 232E0500 		sw	zero,28(a0)
  83:C:/Users/stapi/OneDrive/Desktop/GD32VW553/GD32VW55X_Wifi_BLE_SDK/GD32VW55x_RELEASE_V1.0.2/MSDK/plf/GD32VW55x_standard_peripheral/Source\gd32vw55x_dma.c ****     init_struct->priority            = DMA_PRIORITY_LOW;
 140              		.loc 1 83 5 is_stmt 1
 141              		.loc 1 83 38 is_stmt 0
 142 001e 23200502 		sw	zero,32(a0)
  84:C:/Users/stapi/OneDrive/Desktop/GD32VW553/GD32VW55X_Wifi_BLE_SDK/GD32VW55x_RELEASE_V1.0.2/MSDK/plf/GD32VW55x_standard_peripheral/Source\gd32vw55x_dma.c **** }
 143              		.loc 1 84 1
 144 0022 8280     		ret
 145              		.cfi_endproc
 146              	.LFE366:
 148              		.section	.text.dma_multi_data_para_struct_init,"ax",@progbits
 149              		.align	1
 150              		.globl	dma_multi_data_para_struct_init
 152              	dma_multi_data_para_struct_init:
 153              	.LFB367:
  85:C:/Users/stapi/OneDrive/Desktop/GD32VW553/GD32VW55X_Wifi_BLE_SDK/GD32VW55x_RELEASE_V1.0.2/MSDK/plf/GD32VW55x_standard_peripheral/Source\gd32vw55x_dma.c **** 
  86:C:/Users/stapi/OneDrive/Desktop/GD32VW553/GD32VW55X_Wifi_BLE_SDK/GD32VW55x_RELEASE_V1.0.2/MSDK/plf/GD32VW55x_standard_peripheral/Source\gd32vw55x_dma.c **** /*!
  87:C:/Users/stapi/OneDrive/Desktop/GD32VW553/GD32VW55X_Wifi_BLE_SDK/GD32VW55x_RELEASE_V1.0.2/MSDK/plf/GD32VW55x_standard_peripheral/Source\gd32vw55x_dma.c ****     \brief      initialize the DMA multi data mode parameters struct with the default values
  88:C:/Users/stapi/OneDrive/Desktop/GD32VW553/GD32VW55X_Wifi_BLE_SDK/GD32VW55x_RELEASE_V1.0.2/MSDK/plf/GD32VW55x_standard_peripheral/Source\gd32vw55x_dma.c ****     \param[in]  none
  89:C:/Users/stapi/OneDrive/Desktop/GD32VW553/GD32VW55X_Wifi_BLE_SDK/GD32VW55x_RELEASE_V1.0.2/MSDK/plf/GD32VW55x_standard_peripheral/Source\gd32vw55x_dma.c ****     \param[out] init_struct: the initialization data needed to initialize DMA channel
  90:C:/Users/stapi/OneDrive/Desktop/GD32VW553/GD32VW55X_Wifi_BLE_SDK/GD32VW55x_RELEASE_V1.0.2/MSDK/plf/GD32VW55x_standard_peripheral/Source\gd32vw55x_dma.c ****     \retval     none
  91:C:/Users/stapi/OneDrive/Desktop/GD32VW553/GD32VW55X_Wifi_BLE_SDK/GD32VW55x_RELEASE_V1.0.2/MSDK/plf/GD32VW55x_standard_peripheral/Source\gd32vw55x_dma.c **** */
  92:C:/Users/stapi/OneDrive/Desktop/GD32VW553/GD32VW55X_Wifi_BLE_SDK/GD32VW55x_RELEASE_V1.0.2/MSDK/plf/GD32VW55x_standard_peripheral/Source\gd32vw55x_dma.c **** void dma_multi_data_para_struct_init(dma_multi_data_parameter_struct* init_struct)
  93:C:/Users/stapi/OneDrive/Desktop/GD32VW553/GD32VW55X_Wifi_BLE_SDK/GD32VW55x_RELEASE_V1.0.2/MSDK/plf/GD32VW55x_standard_peripheral/Source\gd32vw55x_dma.c **** {
 154              		.loc 1 93 1 is_stmt 1
 155              		.cfi_startproc
 156              	.LVL7:
  94:C:/Users/stapi/OneDrive/Desktop/GD32VW553/GD32VW55X_Wifi_BLE_SDK/GD32VW55x_RELEASE_V1.0.2/MSDK/plf/GD32VW55x_standard_peripheral/Source\gd32vw55x_dma.c ****     /* set the DMA struct with the default values */
  95:C:/Users/stapi/OneDrive/Desktop/GD32VW553/GD32VW55X_Wifi_BLE_SDK/GD32VW55x_RELEASE_V1.0.2/MSDK/plf/GD32VW55x_standard_peripheral/Source\gd32vw55x_dma.c ****     init_struct->periph_addr         = 0U;
 157              		.loc 1 95 5
  96:C:/Users/stapi/OneDrive/Desktop/GD32VW553/GD32VW55X_Wifi_BLE_SDK/GD32VW55x_RELEASE_V1.0.2/MSDK/plf/GD32VW55x_standard_peripheral/Source\gd32vw55x_dma.c ****     init_struct->periph_width        = 0U;
  97:C:/Users/stapi/OneDrive/Desktop/GD32VW553/GD32VW55X_Wifi_BLE_SDK/GD32VW55x_RELEASE_V1.0.2/MSDK/plf/GD32VW55x_standard_peripheral/Source\gd32vw55x_dma.c ****     init_struct->periph_inc          = DMA_PERIPH_INCREASE_DISABLE;
 158              		.loc 1 97 38 is_stmt 0
 159 0000 8547     		li	a5,1
  95:C:/Users/stapi/OneDrive/Desktop/GD32VW553/GD32VW55X_Wifi_BLE_SDK/GD32VW55x_RELEASE_V1.0.2/MSDK/plf/GD32VW55x_standard_peripheral/Source\gd32vw55x_dma.c ****     init_struct->periph_width        = 0U;
 160              		.loc 1 95 38
 161 0002 23200500 		sw	zero,0(a0)
  96:C:/Users/stapi/OneDrive/Desktop/GD32VW553/GD32VW55X_Wifi_BLE_SDK/GD32VW55x_RELEASE_V1.0.2/MSDK/plf/GD32VW55x_standard_peripheral/Source\gd32vw55x_dma.c ****     init_struct->periph_width        = 0U;
 162              		.loc 1 96 5 is_stmt 1
  96:C:/Users/stapi/OneDrive/Desktop/GD32VW553/GD32VW55X_Wifi_BLE_SDK/GD32VW55x_RELEASE_V1.0.2/MSDK/plf/GD32VW55x_standard_peripheral/Source\gd32vw55x_dma.c ****     init_struct->periph_width        = 0U;
 163              		.loc 1 96 38 is_stmt 0
 164 0006 23220500 		sw	zero,4(a0)
 165              		.loc 1 97 5 is_stmt 1
 166              		.loc 1 97 38 is_stmt 0
 167 000a 1CC5     		sw	a5,8(a0)
  98:C:/Users/stapi/OneDrive/Desktop/GD32VW553/GD32VW55X_Wifi_BLE_SDK/GD32VW55x_RELEASE_V1.0.2/MSDK/plf/GD32VW55x_standard_peripheral/Source\gd32vw55x_dma.c ****     init_struct->memory0_addr        = 0U;
 168              		.loc 1 98 5 is_stmt 1
 169              		.loc 1 98 38 is_stmt 0
 170 000c 23260500 		sw	zero,12(a0)
  99:C:/Users/stapi/OneDrive/Desktop/GD32VW553/GD32VW55X_Wifi_BLE_SDK/GD32VW55x_RELEASE_V1.0.2/MSDK/plf/GD32VW55x_standard_peripheral/Source\gd32vw55x_dma.c ****     init_struct->memory_width        = 0U;
 171              		.loc 1 99 5 is_stmt 1
 172              		.loc 1 99 38 is_stmt 0
 173 0010 23280500 		sw	zero,16(a0)
 100:C:/Users/stapi/OneDrive/Desktop/GD32VW553/GD32VW55X_Wifi_BLE_SDK/GD32VW55x_RELEASE_V1.0.2/MSDK/plf/GD32VW55x_standard_peripheral/Source\gd32vw55x_dma.c ****     init_struct->memory_inc          = DMA_MEMORY_INCREASE_DISABLE;
 174              		.loc 1 100 5 is_stmt 1
 175              		.loc 1 100 38 is_stmt 0
 176 0014 5CC9     		sw	a5,20(a0)
 101:C:/Users/stapi/OneDrive/Desktop/GD32VW553/GD32VW55X_Wifi_BLE_SDK/GD32VW55x_RELEASE_V1.0.2/MSDK/plf/GD32VW55x_standard_peripheral/Source\gd32vw55x_dma.c ****     init_struct->memory_burst_width  = 0U;
 177              		.loc 1 101 5 is_stmt 1
 178              		.loc 1 101 38 is_stmt 0
 179 0016 232C0500 		sw	zero,24(a0)
 102:C:/Users/stapi/OneDrive/Desktop/GD32VW553/GD32VW55X_Wifi_BLE_SDK/GD32VW55x_RELEASE_V1.0.2/MSDK/plf/GD32VW55x_standard_peripheral/Source\gd32vw55x_dma.c ****     init_struct->periph_burst_width  = 0U;
 180              		.loc 1 102 5 is_stmt 1
 181              		.loc 1 102 38 is_stmt 0
 182 001a 232E0500 		sw	zero,28(a0)
 103:C:/Users/stapi/OneDrive/Desktop/GD32VW553/GD32VW55X_Wifi_BLE_SDK/GD32VW55x_RELEASE_V1.0.2/MSDK/plf/GD32VW55x_standard_peripheral/Source\gd32vw55x_dma.c ****     init_struct->circular_mode       = DMA_CIRCULAR_MODE_DISABLE;
 183              		.loc 1 103 5 is_stmt 1
 184              		.loc 1 103 38 is_stmt 0
 185 001e 23220502 		sw	zero,36(a0)
 104:C:/Users/stapi/OneDrive/Desktop/GD32VW553/GD32VW55X_Wifi_BLE_SDK/GD32VW55x_RELEASE_V1.0.2/MSDK/plf/GD32VW55x_standard_peripheral/Source\gd32vw55x_dma.c ****     init_struct->direction           = DMA_PERIPH_TO_MEMORY;
 186              		.loc 1 104 5 is_stmt 1
 187              		.loc 1 104 38 is_stmt 0
 188 0022 23240502 		sw	zero,40(a0)
 105:C:/Users/stapi/OneDrive/Desktop/GD32VW553/GD32VW55X_Wifi_BLE_SDK/GD32VW55x_RELEASE_V1.0.2/MSDK/plf/GD32VW55x_standard_peripheral/Source\gd32vw55x_dma.c ****     init_struct->number              = 0U;
 189              		.loc 1 105 5 is_stmt 1
 190              		.loc 1 105 38 is_stmt 0
 191 0026 23260502 		sw	zero,44(a0)
 106:C:/Users/stapi/OneDrive/Desktop/GD32VW553/GD32VW55X_Wifi_BLE_SDK/GD32VW55x_RELEASE_V1.0.2/MSDK/plf/GD32VW55x_standard_peripheral/Source\gd32vw55x_dma.c ****     init_struct->priority            = DMA_PRIORITY_LOW;
 192              		.loc 1 106 5 is_stmt 1
 193              		.loc 1 106 38 is_stmt 0
 194 002a 23280502 		sw	zero,48(a0)
 107:C:/Users/stapi/OneDrive/Desktop/GD32VW553/GD32VW55X_Wifi_BLE_SDK/GD32VW55x_RELEASE_V1.0.2/MSDK/plf/GD32VW55x_standard_peripheral/Source\gd32vw55x_dma.c **** }
 195              		.loc 1 107 1
 196 002e 8280     		ret
 197              		.cfi_endproc
 198              	.LFE367:
 200              		.section	.text.dma_single_data_mode_init,"ax",@progbits
 201              		.align	1
 202              		.globl	dma_single_data_mode_init
 204              	dma_single_data_mode_init:
 205              	.LFB368:
 108:C:/Users/stapi/OneDrive/Desktop/GD32VW553/GD32VW55X_Wifi_BLE_SDK/GD32VW55x_RELEASE_V1.0.2/MSDK/plf/GD32VW55x_standard_peripheral/Source\gd32vw55x_dma.c **** 
 109:C:/Users/stapi/OneDrive/Desktop/GD32VW553/GD32VW55X_Wifi_BLE_SDK/GD32VW55x_RELEASE_V1.0.2/MSDK/plf/GD32VW55x_standard_peripheral/Source\gd32vw55x_dma.c **** /*!
 110:C:/Users/stapi/OneDrive/Desktop/GD32VW553/GD32VW55X_Wifi_BLE_SDK/GD32VW55x_RELEASE_V1.0.2/MSDK/plf/GD32VW55x_standard_peripheral/Source\gd32vw55x_dma.c ****     \brief      initialize DMA single data mode
 111:C:/Users/stapi/OneDrive/Desktop/GD32VW553/GD32VW55X_Wifi_BLE_SDK/GD32VW55x_RELEASE_V1.0.2/MSDK/plf/GD32VW55x_standard_peripheral/Source\gd32vw55x_dma.c ****     \param[in]  channelx: specify which DMA channel is initialized
 112:C:/Users/stapi/OneDrive/Desktop/GD32VW553/GD32VW55X_Wifi_BLE_SDK/GD32VW55x_RELEASE_V1.0.2/MSDK/plf/GD32VW55x_standard_peripheral/Source\gd32vw55x_dma.c ****       \arg        DMA_CHx (x=0..7)
 113:C:/Users/stapi/OneDrive/Desktop/GD32VW553/GD32VW55X_Wifi_BLE_SDK/GD32VW55x_RELEASE_V1.0.2/MSDK/plf/GD32VW55x_standard_peripheral/Source\gd32vw55x_dma.c ****     \param[in]  init_struct: the data needed to initialize DMA single data mode
 114:C:/Users/stapi/OneDrive/Desktop/GD32VW553/GD32VW55X_Wifi_BLE_SDK/GD32VW55x_RELEASE_V1.0.2/MSDK/plf/GD32VW55x_standard_peripheral/Source\gd32vw55x_dma.c ****                   periph_addr: peripheral base address
 115:C:/Users/stapi/OneDrive/Desktop/GD32VW553/GD32VW55X_Wifi_BLE_SDK/GD32VW55x_RELEASE_V1.0.2/MSDK/plf/GD32VW55x_standard_peripheral/Source\gd32vw55x_dma.c ****                   periph_inc: DMA_PERIPH_INCREASE_ENABLE,DMA_PERIPH_INCREASE_DISABLE,DMA_PERIPH_INC
 116:C:/Users/stapi/OneDrive/Desktop/GD32VW553/GD32VW55X_Wifi_BLE_SDK/GD32VW55x_RELEASE_V1.0.2/MSDK/plf/GD32VW55x_standard_peripheral/Source\gd32vw55x_dma.c ****                   memory0_addr: memory base address
 117:C:/Users/stapi/OneDrive/Desktop/GD32VW553/GD32VW55X_Wifi_BLE_SDK/GD32VW55x_RELEASE_V1.0.2/MSDK/plf/GD32VW55x_standard_peripheral/Source\gd32vw55x_dma.c ****                   memory_inc:          DMA_MEMORY_INCREASE_ENABLE,
 118:C:/Users/stapi/OneDrive/Desktop/GD32VW553/GD32VW55X_Wifi_BLE_SDK/GD32VW55x_RELEASE_V1.0.2/MSDK/plf/GD32VW55x_standard_peripheral/Source\gd32vw55x_dma.c ****                                        DMA_MEMORY_INCREASE_DISABLE
 119:C:/Users/stapi/OneDrive/Desktop/GD32VW553/GD32VW55X_Wifi_BLE_SDK/GD32VW55x_RELEASE_V1.0.2/MSDK/plf/GD32VW55x_standard_peripheral/Source\gd32vw55x_dma.c ****                   periph_memory_width: DMA_PERIPH_WIDTH_8BIT,
 120:C:/Users/stapi/OneDrive/Desktop/GD32VW553/GD32VW55X_Wifi_BLE_SDK/GD32VW55x_RELEASE_V1.0.2/MSDK/plf/GD32VW55x_standard_peripheral/Source\gd32vw55x_dma.c ****                                        DMA_PERIPH_WIDTH_16BIT,
 121:C:/Users/stapi/OneDrive/Desktop/GD32VW553/GD32VW55X_Wifi_BLE_SDK/GD32VW55x_RELEASE_V1.0.2/MSDK/plf/GD32VW55x_standard_peripheral/Source\gd32vw55x_dma.c ****                                        DMA_PERIPH_WIDTH_32BIT
 122:C:/Users/stapi/OneDrive/Desktop/GD32VW553/GD32VW55X_Wifi_BLE_SDK/GD32VW55x_RELEASE_V1.0.2/MSDK/plf/GD32VW55x_standard_peripheral/Source\gd32vw55x_dma.c ****                   circular_mode:       DMA_CIRCULAR_MODE_ENABLE,
 123:C:/Users/stapi/OneDrive/Desktop/GD32VW553/GD32VW55X_Wifi_BLE_SDK/GD32VW55x_RELEASE_V1.0.2/MSDK/plf/GD32VW55x_standard_peripheral/Source\gd32vw55x_dma.c ****                                        DMA_CIRCULAR_MODE_DISABLE
 124:C:/Users/stapi/OneDrive/Desktop/GD32VW553/GD32VW55X_Wifi_BLE_SDK/GD32VW55x_RELEASE_V1.0.2/MSDK/plf/GD32VW55x_standard_peripheral/Source\gd32vw55x_dma.c ****                   direction:           DMA_PERIPH_TO_MEMORY,
 125:C:/Users/stapi/OneDrive/Desktop/GD32VW553/GD32VW55X_Wifi_BLE_SDK/GD32VW55x_RELEASE_V1.0.2/MSDK/plf/GD32VW55x_standard_peripheral/Source\gd32vw55x_dma.c ****                                        DMA_MEMORY_TO_PERIPH,
 126:C:/Users/stapi/OneDrive/Desktop/GD32VW553/GD32VW55X_Wifi_BLE_SDK/GD32VW55x_RELEASE_V1.0.2/MSDK/plf/GD32VW55x_standard_peripheral/Source\gd32vw55x_dma.c ****                                        DMA_MEMORY_TO_MEMORY
 127:C:/Users/stapi/OneDrive/Desktop/GD32VW553/GD32VW55X_Wifi_BLE_SDK/GD32VW55x_RELEASE_V1.0.2/MSDK/plf/GD32VW55x_standard_peripheral/Source\gd32vw55x_dma.c ****                   number: the number of remaining data to be transferred by the DMA
 128:C:/Users/stapi/OneDrive/Desktop/GD32VW553/GD32VW55X_Wifi_BLE_SDK/GD32VW55x_RELEASE_V1.0.2/MSDK/plf/GD32VW55x_standard_peripheral/Source\gd32vw55x_dma.c ****                   priority: DMA_PRIORITY_LOW,DMA_PRIORITY_MEDIUM,DMA_PRIORITY_HIGH,DMA_PRIORITY_ULT
 129:C:/Users/stapi/OneDrive/Desktop/GD32VW553/GD32VW55X_Wifi_BLE_SDK/GD32VW55x_RELEASE_V1.0.2/MSDK/plf/GD32VW55x_standard_peripheral/Source\gd32vw55x_dma.c ****     \param[out] none
 130:C:/Users/stapi/OneDrive/Desktop/GD32VW553/GD32VW55X_Wifi_BLE_SDK/GD32VW55x_RELEASE_V1.0.2/MSDK/plf/GD32VW55x_standard_peripheral/Source\gd32vw55x_dma.c ****     \retval     none
 131:C:/Users/stapi/OneDrive/Desktop/GD32VW553/GD32VW55X_Wifi_BLE_SDK/GD32VW55x_RELEASE_V1.0.2/MSDK/plf/GD32VW55x_standard_peripheral/Source\gd32vw55x_dma.c **** */
 132:C:/Users/stapi/OneDrive/Desktop/GD32VW553/GD32VW55X_Wifi_BLE_SDK/GD32VW55x_RELEASE_V1.0.2/MSDK/plf/GD32VW55x_standard_peripheral/Source\gd32vw55x_dma.c **** void dma_single_data_mode_init(dma_channel_enum channelx, dma_single_data_parameter_struct* init_st
 133:C:/Users/stapi/OneDrive/Desktop/GD32VW553/GD32VW55X_Wifi_BLE_SDK/GD32VW55x_RELEASE_V1.0.2/MSDK/plf/GD32VW55x_standard_peripheral/Source\gd32vw55x_dma.c **** {
 206              		.loc 1 133 1 is_stmt 1
 207              		.cfi_startproc
 208              	.LVL8:
 134:C:/Users/stapi/OneDrive/Desktop/GD32VW553/GD32VW55X_Wifi_BLE_SDK/GD32VW55x_RELEASE_V1.0.2/MSDK/plf/GD32VW55x_standard_peripheral/Source\gd32vw55x_dma.c ****     uint32_t ctl;
 209              		.loc 1 134 5
 135:C:/Users/stapi/OneDrive/Desktop/GD32VW553/GD32VW55X_Wifi_BLE_SDK/GD32VW55x_RELEASE_V1.0.2/MSDK/plf/GD32VW55x_standard_peripheral/Source\gd32vw55x_dma.c **** 
 136:C:/Users/stapi/OneDrive/Desktop/GD32VW553/GD32VW55X_Wifi_BLE_SDK/GD32VW55x_RELEASE_V1.0.2/MSDK/plf/GD32VW55x_standard_peripheral/Source\gd32vw55x_dma.c ****     /* select single data mode */
 137:C:/Users/stapi/OneDrive/Desktop/GD32VW553/GD32VW55X_Wifi_BLE_SDK/GD32VW55x_RELEASE_V1.0.2/MSDK/plf/GD32VW55x_standard_peripheral/Source\gd32vw55x_dma.c ****     DMA_CHFCTL(channelx) &= ~DMA_CHXFCTL_MDMEN;
 210              		.loc 1 137 5
 211              		.loc 1 137 26 is_stmt 0
 212 0000 E147     		li	a5,24
 213 0002 3305F502 		mul	a0,a0,a5
 214              	.LVL9:
 215 0006 B7670240 		li	a5,1073897472
 216 000a 13874702 		addi	a4,a5,36
 217 000e 2A97     		add	a4,a0,a4
 218 0010 1443     		lw	a3,0(a4)
 219 0012 ED9A     		andi	a3,a3,-5
 220 0014 14C3     		sw	a3,0(a4)
 138:C:/Users/stapi/OneDrive/Desktop/GD32VW553/GD32VW55X_Wifi_BLE_SDK/GD32VW55x_RELEASE_V1.0.2/MSDK/plf/GD32VW55x_standard_peripheral/Source\gd32vw55x_dma.c **** 
 139:C:/Users/stapi/OneDrive/Desktop/GD32VW553/GD32VW55X_Wifi_BLE_SDK/GD32VW55x_RELEASE_V1.0.2/MSDK/plf/GD32VW55x_standard_peripheral/Source\gd32vw55x_dma.c ****     /* configure peripheral base address */
 140:C:/Users/stapi/OneDrive/Desktop/GD32VW553/GD32VW55X_Wifi_BLE_SDK/GD32VW55x_RELEASE_V1.0.2/MSDK/plf/GD32VW55x_standard_peripheral/Source\gd32vw55x_dma.c ****     DMA_CHPADDR(channelx) = init_struct->periph_addr;
 221              		.loc 1 140 5 is_stmt 1
 222              		.loc 1 140 40 is_stmt 0
 223 0016 9441     		lw	a3,0(a1)
 224              		.loc 1 140 5
 225 0018 13878701 		addi	a4,a5,24
 226 001c 2A97     		add	a4,a0,a4
 227              		.loc 1 140 27
 228 001e 14C3     		sw	a3,0(a4)
 141:C:/Users/stapi/OneDrive/Desktop/GD32VW553/GD32VW55X_Wifi_BLE_SDK/GD32VW55x_RELEASE_V1.0.2/MSDK/plf/GD32VW55x_standard_peripheral/Source\gd32vw55x_dma.c **** 
 142:C:/Users/stapi/OneDrive/Desktop/GD32VW553/GD32VW55X_Wifi_BLE_SDK/GD32VW55x_RELEASE_V1.0.2/MSDK/plf/GD32VW55x_standard_peripheral/Source\gd32vw55x_dma.c ****     /* configure memory base address */
 143:C:/Users/stapi/OneDrive/Desktop/GD32VW553/GD32VW55X_Wifi_BLE_SDK/GD32VW55x_RELEASE_V1.0.2/MSDK/plf/GD32VW55x_standard_peripheral/Source\gd32vw55x_dma.c ****     DMA_CHM0ADDR(channelx) = init_struct->memory0_addr;
 229              		.loc 1 143 5 is_stmt 1
 230              		.loc 1 143 41 is_stmt 0
 231 0020 9445     		lw	a3,8(a1)
 232              		.loc 1 143 5
 233 0022 1387C701 		addi	a4,a5,28
 234 0026 2A97     		add	a4,a0,a4
 235              		.loc 1 143 28
 236 0028 14C3     		sw	a3,0(a4)
 144:C:/Users/stapi/OneDrive/Desktop/GD32VW553/GD32VW55X_Wifi_BLE_SDK/GD32VW55x_RELEASE_V1.0.2/MSDK/plf/GD32VW55x_standard_peripheral/Source\gd32vw55x_dma.c **** 
 145:C:/Users/stapi/OneDrive/Desktop/GD32VW553/GD32VW55X_Wifi_BLE_SDK/GD32VW55x_RELEASE_V1.0.2/MSDK/plf/GD32VW55x_standard_peripheral/Source\gd32vw55x_dma.c ****     /* configure the number of remaining data to be transferred */
 146:C:/Users/stapi/OneDrive/Desktop/GD32VW553/GD32VW55X_Wifi_BLE_SDK/GD32VW55x_RELEASE_V1.0.2/MSDK/plf/GD32VW55x_standard_peripheral/Source\gd32vw55x_dma.c ****     DMA_CHCNT(channelx) = init_struct->number;
 237              		.loc 1 146 5 is_stmt 1
 238              		.loc 1 146 38 is_stmt 0
 239 002a D44D     		lw	a3,28(a1)
 240              		.loc 1 146 5
 241 002c 13874701 		addi	a4,a5,20
 242 0030 2A97     		add	a4,a0,a4
 147:C:/Users/stapi/OneDrive/Desktop/GD32VW553/GD32VW55X_Wifi_BLE_SDK/GD32VW55x_RELEASE_V1.0.2/MSDK/plf/GD32VW55x_standard_peripheral/Source\gd32vw55x_dma.c **** 
 148:C:/Users/stapi/OneDrive/Desktop/GD32VW553/GD32VW55X_Wifi_BLE_SDK/GD32VW55x_RELEASE_V1.0.2/MSDK/plf/GD32VW55x_standard_peripheral/Source\gd32vw55x_dma.c ****     /* configure peripheral and memory transfer width,channel priority, transfer mode */
 149:C:/Users/stapi/OneDrive/Desktop/GD32VW553/GD32VW55X_Wifi_BLE_SDK/GD32VW55x_RELEASE_V1.0.2/MSDK/plf/GD32VW55x_standard_peripheral/Source\gd32vw55x_dma.c ****     ctl = DMA_CHCTL(channelx);
 243              		.loc 1 149 11
 244 0032 C107     		addi	a5,a5,16
 146:C:/Users/stapi/OneDrive/Desktop/GD32VW553/GD32VW55X_Wifi_BLE_SDK/GD32VW55x_RELEASE_V1.0.2/MSDK/plf/GD32VW55x_standard_peripheral/Source\gd32vw55x_dma.c **** 
 245              		.loc 1 146 25
 246 0034 14C3     		sw	a3,0(a4)
 247              		.loc 1 149 5 is_stmt 1
 248              		.loc 1 149 11 is_stmt 0
 249 0036 3E95     		add	a0,a0,a5
 250              		.loc 1 149 9
 251 0038 1C41     		lw	a5,0(a0)
 252              	.LVL10:
 150:C:/Users/stapi/OneDrive/Desktop/GD32VW553/GD32VW55X_Wifi_BLE_SDK/GD32VW55x_RELEASE_V1.0.2/MSDK/plf/GD32VW55x_standard_peripheral/Source\gd32vw55x_dma.c ****     ctl &= ~(DMA_CHXCTL_PWIDTH | DMA_CHXCTL_MWIDTH | DMA_CHXCTL_PRIO | DMA_CHXCTL_TM);
 253              		.loc 1 150 5 is_stmt 1
 254              		.loc 1 150 9 is_stmt 0
 255 003a B786FCFF 		li	a3,-229376
 256 003e 9386F673 		addi	a3,a3,1855
 151:C:/Users/stapi/OneDrive/Desktop/GD32VW553/GD32VW55X_Wifi_BLE_SDK/GD32VW55x_RELEASE_V1.0.2/MSDK/plf/GD32VW55x_standard_peripheral/Source\gd32vw55x_dma.c ****     ctl |= (init_struct->periph_memory_width | (init_struct->periph_memory_width << 2) | init_struc
 257              		.loc 1 151 24
 258 0042 9849     		lw	a4,16(a1)
 150:C:/Users/stapi/OneDrive/Desktop/GD32VW553/GD32VW55X_Wifi_BLE_SDK/GD32VW55x_RELEASE_V1.0.2/MSDK/plf/GD32VW55x_standard_peripheral/Source\gd32vw55x_dma.c ****     ctl &= ~(DMA_CHXCTL_PWIDTH | DMA_CHXCTL_MWIDTH | DMA_CHXCTL_PRIO | DMA_CHXCTL_TM);
 259              		.loc 1 150 9
 260 0044 FD8E     		and	a3,a5,a3
 261              	.LVL11:
 262              		.loc 1 151 5 is_stmt 1
 263              		.loc 1 151 112 is_stmt 0
 264 0046 9C51     		lw	a5,32(a1)
 265 0048 904D     		lw	a2,24(a1)
 266 004a D98F     		or	a5,a4,a5
 267 004c D18F     		or	a5,a5,a2
 268              		.loc 1 151 82
 269 004e 0A07     		slli	a4,a4,2
 270              		.loc 1 151 112
 271 0050 D98F     		or	a5,a5,a4
 272              		.loc 1 151 9
 273 0052 D58F     		or	a5,a5,a3
 274              	.LVL12:
 152:C:/Users/stapi/OneDrive/Desktop/GD32VW553/GD32VW55X_Wifi_BLE_SDK/GD32VW55x_RELEASE_V1.0.2/MSDK/plf/GD32VW55x_standard_peripheral/Source\gd32vw55x_dma.c ****     DMA_CHCTL(channelx) = ctl;
 275              		.loc 1 152 5 is_stmt 1
 276              		.loc 1 152 25 is_stmt 0
 277 0054 1CC1     		sw	a5,0(a0)
 153:C:/Users/stapi/OneDrive/Desktop/GD32VW553/GD32VW55X_Wifi_BLE_SDK/GD32VW55x_RELEASE_V1.0.2/MSDK/plf/GD32VW55x_standard_peripheral/Source\gd32vw55x_dma.c **** 
 154:C:/Users/stapi/OneDrive/Desktop/GD32VW553/GD32VW55X_Wifi_BLE_SDK/GD32VW55x_RELEASE_V1.0.2/MSDK/plf/GD32VW55x_standard_peripheral/Source\gd32vw55x_dma.c ****     /* configure peripheral increasing mode */
 155:C:/Users/stapi/OneDrive/Desktop/GD32VW553/GD32VW55X_Wifi_BLE_SDK/GD32VW55x_RELEASE_V1.0.2/MSDK/plf/GD32VW55x_standard_peripheral/Source\gd32vw55x_dma.c ****     if(DMA_PERIPH_INCREASE_ENABLE == init_struct->periph_inc){
 278              		.loc 1 155 5 is_stmt 1
 279              		.loc 1 155 49 is_stmt 0
 280 0056 DC41     		lw	a5,4(a1)
 281              	.LVL13:
 282              		.loc 1 155 7
 283 0058 85E7     		bne	a5,zero,.L7
 156:C:/Users/stapi/OneDrive/Desktop/GD32VW553/GD32VW55X_Wifi_BLE_SDK/GD32VW55x_RELEASE_V1.0.2/MSDK/plf/GD32VW55x_standard_peripheral/Source\gd32vw55x_dma.c ****         DMA_CHCTL(channelx) |= DMA_CHXCTL_PNAGA;
 284              		.loc 1 156 9 is_stmt 1
 285              		.loc 1 156 29 is_stmt 0
 286 005a 1C41     		lw	a5,0(a0)
 287 005c 93E70720 		ori	a5,a5,512
 288              	.L14:
 157:C:/Users/stapi/OneDrive/Desktop/GD32VW553/GD32VW55X_Wifi_BLE_SDK/GD32VW55x_RELEASE_V1.0.2/MSDK/plf/GD32VW55x_standard_peripheral/Source\gd32vw55x_dma.c ****     }else if(DMA_PERIPH_INCREASE_DISABLE == init_struct->periph_inc){
 158:C:/Users/stapi/OneDrive/Desktop/GD32VW553/GD32VW55X_Wifi_BLE_SDK/GD32VW55x_RELEASE_V1.0.2/MSDK/plf/GD32VW55x_standard_peripheral/Source\gd32vw55x_dma.c ****         DMA_CHCTL(channelx) &= ~DMA_CHXCTL_PNAGA;
 159:C:/Users/stapi/OneDrive/Desktop/GD32VW553/GD32VW55X_Wifi_BLE_SDK/GD32VW55x_RELEASE_V1.0.2/MSDK/plf/GD32VW55x_standard_peripheral/Source\gd32vw55x_dma.c ****     }else{
 160:C:/Users/stapi/OneDrive/Desktop/GD32VW553/GD32VW55X_Wifi_BLE_SDK/GD32VW55x_RELEASE_V1.0.2/MSDK/plf/GD32VW55x_standard_peripheral/Source\gd32vw55x_dma.c ****         DMA_CHCTL(channelx) |= DMA_CHXCTL_PAIF;
 289              		.loc 1 160 29
 290 0060 1CC1     		sw	a5,0(a0)
 291              	.LVL14:
 161:C:/Users/stapi/OneDrive/Desktop/GD32VW553/GD32VW55X_Wifi_BLE_SDK/GD32VW55x_RELEASE_V1.0.2/MSDK/plf/GD32VW55x_standard_peripheral/Source\gd32vw55x_dma.c ****     }
 162:C:/Users/stapi/OneDrive/Desktop/GD32VW553/GD32VW55X_Wifi_BLE_SDK/GD32VW55x_RELEASE_V1.0.2/MSDK/plf/GD32VW55x_standard_peripheral/Source\gd32vw55x_dma.c **** 
 163:C:/Users/stapi/OneDrive/Desktop/GD32VW553/GD32VW55X_Wifi_BLE_SDK/GD32VW55x_RELEASE_V1.0.2/MSDK/plf/GD32VW55x_standard_peripheral/Source\gd32vw55x_dma.c ****     /* configure memory increasing mode */
 164:C:/Users/stapi/OneDrive/Desktop/GD32VW553/GD32VW55X_Wifi_BLE_SDK/GD32VW55x_RELEASE_V1.0.2/MSDK/plf/GD32VW55x_standard_peripheral/Source\gd32vw55x_dma.c ****     if(DMA_MEMORY_INCREASE_ENABLE == init_struct->memory_inc){
 292              		.loc 1 164 5 is_stmt 1
 293              		.loc 1 164 7 is_stmt 0
 294 0062 DC45     		lw	a5,12(a1)
 295 0064 8DEB     		bne	a5,zero,.L10
 165:C:/Users/stapi/OneDrive/Desktop/GD32VW553/GD32VW55X_Wifi_BLE_SDK/GD32VW55x_RELEASE_V1.0.2/MSDK/plf/GD32VW55x_standard_peripheral/Source\gd32vw55x_dma.c ****         DMA_CHCTL(channelx) |= DMA_CHXCTL_MNAGA;
 296              		.loc 1 165 9 is_stmt 1
 297              		.loc 1 165 29 is_stmt 0
 298 0066 1C41     		lw	a5,0(a0)
 299 0068 93E70740 		ori	a5,a5,1024
 300              	.L15:
 166:C:/Users/stapi/OneDrive/Desktop/GD32VW553/GD32VW55X_Wifi_BLE_SDK/GD32VW55x_RELEASE_V1.0.2/MSDK/plf/GD32VW55x_standard_peripheral/Source\gd32vw55x_dma.c ****     }else{
 167:C:/Users/stapi/OneDrive/Desktop/GD32VW553/GD32VW55X_Wifi_BLE_SDK/GD32VW55x_RELEASE_V1.0.2/MSDK/plf/GD32VW55x_standard_peripheral/Source\gd32vw55x_dma.c ****         DMA_CHCTL(channelx) &= ~DMA_CHXCTL_MNAGA;
 301              		.loc 1 167 29
 302 006c 1CC1     		sw	a5,0(a0)
 168:C:/Users/stapi/OneDrive/Desktop/GD32VW553/GD32VW55X_Wifi_BLE_SDK/GD32VW55x_RELEASE_V1.0.2/MSDK/plf/GD32VW55x_standard_peripheral/Source\gd32vw55x_dma.c ****     }
 169:C:/Users/stapi/OneDrive/Desktop/GD32VW553/GD32VW55X_Wifi_BLE_SDK/GD32VW55x_RELEASE_V1.0.2/MSDK/plf/GD32VW55x_standard_peripheral/Source\gd32vw55x_dma.c **** 
 170:C:/Users/stapi/OneDrive/Desktop/GD32VW553/GD32VW55X_Wifi_BLE_SDK/GD32VW55x_RELEASE_V1.0.2/MSDK/plf/GD32VW55x_standard_peripheral/Source\gd32vw55x_dma.c ****     /* configure DMA circular mode */
 171:C:/Users/stapi/OneDrive/Desktop/GD32VW553/GD32VW55X_Wifi_BLE_SDK/GD32VW55x_RELEASE_V1.0.2/MSDK/plf/GD32VW55x_standard_peripheral/Source\gd32vw55x_dma.c ****     if(DMA_CIRCULAR_MODE_ENABLE == init_struct->circular_mode){
 303              		.loc 1 171 5 is_stmt 1
 304              		.loc 1 171 7 is_stmt 0
 305 006e D849     		lw	a4,20(a1)
 306 0070 8547     		li	a5,1
 307 0072 6316F702 		bne	a4,a5,.L12
 172:C:/Users/stapi/OneDrive/Desktop/GD32VW553/GD32VW55X_Wifi_BLE_SDK/GD32VW55x_RELEASE_V1.0.2/MSDK/plf/GD32VW55x_standard_peripheral/Source\gd32vw55x_dma.c ****         DMA_CHCTL(channelx) |= DMA_CHXCTL_CMEN;
 308              		.loc 1 172 9 is_stmt 1
 309              		.loc 1 172 29 is_stmt 0
 310 0076 1C41     		lw	a5,0(a0)
 311 0078 93E70710 		ori	a5,a5,256
 312              	.L16:
 173:C:/Users/stapi/OneDrive/Desktop/GD32VW553/GD32VW55X_Wifi_BLE_SDK/GD32VW55x_RELEASE_V1.0.2/MSDK/plf/GD32VW55x_standard_peripheral/Source\gd32vw55x_dma.c ****     }else{
 174:C:/Users/stapi/OneDrive/Desktop/GD32VW553/GD32VW55X_Wifi_BLE_SDK/GD32VW55x_RELEASE_V1.0.2/MSDK/plf/GD32VW55x_standard_peripheral/Source\gd32vw55x_dma.c ****         DMA_CHCTL(channelx) &= ~DMA_CHXCTL_CMEN;
 313              		.loc 1 174 29
 314 007c 1CC1     		sw	a5,0(a0)
 175:C:/Users/stapi/OneDrive/Desktop/GD32VW553/GD32VW55X_Wifi_BLE_SDK/GD32VW55x_RELEASE_V1.0.2/MSDK/plf/GD32VW55x_standard_peripheral/Source\gd32vw55x_dma.c ****     }
 176:C:/Users/stapi/OneDrive/Desktop/GD32VW553/GD32VW55X_Wifi_BLE_SDK/GD32VW55x_RELEASE_V1.0.2/MSDK/plf/GD32VW55x_standard_peripheral/Source\gd32vw55x_dma.c **** }
 315              		.loc 1 176 1
 316 007e 8280     		ret
 317              	.LVL15:
 318              	.L7:
 157:C:/Users/stapi/OneDrive/Desktop/GD32VW553/GD32VW55X_Wifi_BLE_SDK/GD32VW55x_RELEASE_V1.0.2/MSDK/plf/GD32VW55x_standard_peripheral/Source\gd32vw55x_dma.c ****         DMA_CHCTL(channelx) &= ~DMA_CHXCTL_PNAGA;
 319              		.loc 1 157 11 is_stmt 1
 157:C:/Users/stapi/OneDrive/Desktop/GD32VW553/GD32VW55X_Wifi_BLE_SDK/GD32VW55x_RELEASE_V1.0.2/MSDK/plf/GD32VW55x_standard_peripheral/Source\gd32vw55x_dma.c ****         DMA_CHCTL(channelx) &= ~DMA_CHXCTL_PNAGA;
 320              		.loc 1 157 13 is_stmt 0
 321 0080 0547     		li	a4,1
 322 0082 6396E700 		bne	a5,a4,.L9
 158:C:/Users/stapi/OneDrive/Desktop/GD32VW553/GD32VW55X_Wifi_BLE_SDK/GD32VW55x_RELEASE_V1.0.2/MSDK/plf/GD32VW55x_standard_peripheral/Source\gd32vw55x_dma.c ****     }else{
 323              		.loc 1 158 9 is_stmt 1
 158:C:/Users/stapi/OneDrive/Desktop/GD32VW553/GD32VW55X_Wifi_BLE_SDK/GD32VW55x_RELEASE_V1.0.2/MSDK/plf/GD32VW55x_standard_peripheral/Source\gd32vw55x_dma.c ****     }else{
 324              		.loc 1 158 29 is_stmt 0
 325 0086 1C41     		lw	a5,0(a0)
 326 0088 93F7F7DF 		andi	a5,a5,-513
 327 008c D1BF     		j	.L14
 328              	.L9:
 160:C:/Users/stapi/OneDrive/Desktop/GD32VW553/GD32VW55X_Wifi_BLE_SDK/GD32VW55x_RELEASE_V1.0.2/MSDK/plf/GD32VW55x_standard_peripheral/Source\gd32vw55x_dma.c ****     }
 329              		.loc 1 160 9 is_stmt 1
 160:C:/Users/stapi/OneDrive/Desktop/GD32VW553/GD32VW55X_Wifi_BLE_SDK/GD32VW55x_RELEASE_V1.0.2/MSDK/plf/GD32VW55x_standard_peripheral/Source\gd32vw55x_dma.c ****     }
 330              		.loc 1 160 29 is_stmt 0
 331 008e 1C41     		lw	a5,0(a0)
 332 0090 9397F728 		bseti	a5,a5,15
 333 0094 F1B7     		j	.L14
 334              	.LVL16:
 335              	.L10:
 167:C:/Users/stapi/OneDrive/Desktop/GD32VW553/GD32VW55X_Wifi_BLE_SDK/GD32VW55x_RELEASE_V1.0.2/MSDK/plf/GD32VW55x_standard_peripheral/Source\gd32vw55x_dma.c ****     }
 336              		.loc 1 167 9 is_stmt 1
 167:C:/Users/stapi/OneDrive/Desktop/GD32VW553/GD32VW55X_Wifi_BLE_SDK/GD32VW55x_RELEASE_V1.0.2/MSDK/plf/GD32VW55x_standard_peripheral/Source\gd32vw55x_dma.c ****     }
 337              		.loc 1 167 29 is_stmt 0
 338 0096 1C41     		lw	a5,0(a0)
 339 0098 93F7F7BF 		andi	a5,a5,-1025
 340 009c C1BF     		j	.L15
 341              	.L12:
 174:C:/Users/stapi/OneDrive/Desktop/GD32VW553/GD32VW55X_Wifi_BLE_SDK/GD32VW55x_RELEASE_V1.0.2/MSDK/plf/GD32VW55x_standard_peripheral/Source\gd32vw55x_dma.c ****     }
 342              		.loc 1 174 9 is_stmt 1
 174:C:/Users/stapi/OneDrive/Desktop/GD32VW553/GD32VW55X_Wifi_BLE_SDK/GD32VW55x_RELEASE_V1.0.2/MSDK/plf/GD32VW55x_standard_peripheral/Source\gd32vw55x_dma.c ****     }
 343              		.loc 1 174 29 is_stmt 0
 344 009e 1C41     		lw	a5,0(a0)
 345 00a0 93F7F7EF 		andi	a5,a5,-257
 346 00a4 E1BF     		j	.L16
 347              		.cfi_endproc
 348              	.LFE368:
 350              		.section	.text.dma_multi_data_mode_init,"ax",@progbits
 351              		.align	1
 352              		.globl	dma_multi_data_mode_init
 354              	dma_multi_data_mode_init:
 355              	.LFB369:
 177:C:/Users/stapi/OneDrive/Desktop/GD32VW553/GD32VW55X_Wifi_BLE_SDK/GD32VW55x_RELEASE_V1.0.2/MSDK/plf/GD32VW55x_standard_peripheral/Source\gd32vw55x_dma.c **** 
 178:C:/Users/stapi/OneDrive/Desktop/GD32VW553/GD32VW55X_Wifi_BLE_SDK/GD32VW55x_RELEASE_V1.0.2/MSDK/plf/GD32VW55x_standard_peripheral/Source\gd32vw55x_dma.c **** /*!
 179:C:/Users/stapi/OneDrive/Desktop/GD32VW553/GD32VW55X_Wifi_BLE_SDK/GD32VW55x_RELEASE_V1.0.2/MSDK/plf/GD32VW55x_standard_peripheral/Source\gd32vw55x_dma.c ****     \brief      initialize DMA multi data mode
 180:C:/Users/stapi/OneDrive/Desktop/GD32VW553/GD32VW55X_Wifi_BLE_SDK/GD32VW55x_RELEASE_V1.0.2/MSDK/plf/GD32VW55x_standard_peripheral/Source\gd32vw55x_dma.c ****     \param[in]  channelx: specify which DMA channel is initialized
 181:C:/Users/stapi/OneDrive/Desktop/GD32VW553/GD32VW55X_Wifi_BLE_SDK/GD32VW55x_RELEASE_V1.0.2/MSDK/plf/GD32VW55x_standard_peripheral/Source\gd32vw55x_dma.c ****       \arg        DMA_CHx (x=0..7)
 182:C:/Users/stapi/OneDrive/Desktop/GD32VW553/GD32VW55X_Wifi_BLE_SDK/GD32VW55x_RELEASE_V1.0.2/MSDK/plf/GD32VW55x_standard_peripheral/Source\gd32vw55x_dma.c ****     \param[in]  DMA_multi_data_parameter_struct: the data needed to initialize DMA multi data mode
 183:C:/Users/stapi/OneDrive/Desktop/GD32VW553/GD32VW55X_Wifi_BLE_SDK/GD32VW55x_RELEASE_V1.0.2/MSDK/plf/GD32VW55x_standard_peripheral/Source\gd32vw55x_dma.c ****                   periph_addr:        peripheral base address
 184:C:/Users/stapi/OneDrive/Desktop/GD32VW553/GD32VW55X_Wifi_BLE_SDK/GD32VW55x_RELEASE_V1.0.2/MSDK/plf/GD32VW55x_standard_peripheral/Source\gd32vw55x_dma.c ****                   periph_width:       DMA_PERIPH_WIDTH_8BIT,
 185:C:/Users/stapi/OneDrive/Desktop/GD32VW553/GD32VW55X_Wifi_BLE_SDK/GD32VW55x_RELEASE_V1.0.2/MSDK/plf/GD32VW55x_standard_peripheral/Source\gd32vw55x_dma.c ****                                       DMA_PERIPH_WIDTH_16BIT,
 186:C:/Users/stapi/OneDrive/Desktop/GD32VW553/GD32VW55X_Wifi_BLE_SDK/GD32VW55x_RELEASE_V1.0.2/MSDK/plf/GD32VW55x_standard_peripheral/Source\gd32vw55x_dma.c ****                                       DMA_PERIPH_WIDTH_32BIT
 187:C:/Users/stapi/OneDrive/Desktop/GD32VW553/GD32VW55X_Wifi_BLE_SDK/GD32VW55x_RELEASE_V1.0.2/MSDK/plf/GD32VW55x_standard_peripheral/Source\gd32vw55x_dma.c ****                   periph_inc:         DMA_PERIPH_INCREASE_ENABLE,
 188:C:/Users/stapi/OneDrive/Desktop/GD32VW553/GD32VW55X_Wifi_BLE_SDK/GD32VW55x_RELEASE_V1.0.2/MSDK/plf/GD32VW55x_standard_peripheral/Source\gd32vw55x_dma.c ****                                       DMA_PERIPH_INCREASE_DISABLE,
 189:C:/Users/stapi/OneDrive/Desktop/GD32VW553/GD32VW55X_Wifi_BLE_SDK/GD32VW55x_RELEASE_V1.0.2/MSDK/plf/GD32VW55x_standard_peripheral/Source\gd32vw55x_dma.c ****                                       DMA_PERIPH_INCREASE_FIX
 190:C:/Users/stapi/OneDrive/Desktop/GD32VW553/GD32VW55X_Wifi_BLE_SDK/GD32VW55x_RELEASE_V1.0.2/MSDK/plf/GD32VW55x_standard_peripheral/Source\gd32vw55x_dma.c ****                   memory0_addr:       memory0 base address
 191:C:/Users/stapi/OneDrive/Desktop/GD32VW553/GD32VW55X_Wifi_BLE_SDK/GD32VW55x_RELEASE_V1.0.2/MSDK/plf/GD32VW55x_standard_peripheral/Source\gd32vw55x_dma.c ****                   memory_width:       DMA_MEMORY_WIDTH_8BIT,
 192:C:/Users/stapi/OneDrive/Desktop/GD32VW553/GD32VW55X_Wifi_BLE_SDK/GD32VW55x_RELEASE_V1.0.2/MSDK/plf/GD32VW55x_standard_peripheral/Source\gd32vw55x_dma.c ****                                       DMA_MEMORY_WIDTH_16BIT,
 193:C:/Users/stapi/OneDrive/Desktop/GD32VW553/GD32VW55X_Wifi_BLE_SDK/GD32VW55x_RELEASE_V1.0.2/MSDK/plf/GD32VW55x_standard_peripheral/Source\gd32vw55x_dma.c ****                                       DMA_MEMORY_WIDTH_32BIT
 194:C:/Users/stapi/OneDrive/Desktop/GD32VW553/GD32VW55X_Wifi_BLE_SDK/GD32VW55x_RELEASE_V1.0.2/MSDK/plf/GD32VW55x_standard_peripheral/Source\gd32vw55x_dma.c ****                   memory_inc:         DMA_MEMORY_INCREASE_ENABLE,
 195:C:/Users/stapi/OneDrive/Desktop/GD32VW553/GD32VW55X_Wifi_BLE_SDK/GD32VW55x_RELEASE_V1.0.2/MSDK/plf/GD32VW55x_standard_peripheral/Source\gd32vw55x_dma.c ****                                       DMA_MEMORY_INCREASE_DISABLE
 196:C:/Users/stapi/OneDrive/Desktop/GD32VW553/GD32VW55X_Wifi_BLE_SDK/GD32VW55x_RELEASE_V1.0.2/MSDK/plf/GD32VW55x_standard_peripheral/Source\gd32vw55x_dma.c ****                   memory_burst_width: DMA_MEMORY_BURST_SINGLE,
 197:C:/Users/stapi/OneDrive/Desktop/GD32VW553/GD32VW55X_Wifi_BLE_SDK/GD32VW55x_RELEASE_V1.0.2/MSDK/plf/GD32VW55x_standard_peripheral/Source\gd32vw55x_dma.c ****                                       DMA_MEMORY_BURST_4_BEAT,
 198:C:/Users/stapi/OneDrive/Desktop/GD32VW553/GD32VW55X_Wifi_BLE_SDK/GD32VW55x_RELEASE_V1.0.2/MSDK/plf/GD32VW55x_standard_peripheral/Source\gd32vw55x_dma.c ****                                       DMA_MEMORY_BURST_8_BEAT,
 199:C:/Users/stapi/OneDrive/Desktop/GD32VW553/GD32VW55X_Wifi_BLE_SDK/GD32VW55x_RELEASE_V1.0.2/MSDK/plf/GD32VW55x_standard_peripheral/Source\gd32vw55x_dma.c ****                                       DMA_MEMORY_BURST_16_BEAT
 200:C:/Users/stapi/OneDrive/Desktop/GD32VW553/GD32VW55X_Wifi_BLE_SDK/GD32VW55x_RELEASE_V1.0.2/MSDK/plf/GD32VW55x_standard_peripheral/Source\gd32vw55x_dma.c ****                   periph_burst_width: DMA_PERIPH_BURST_SINGLE,
 201:C:/Users/stapi/OneDrive/Desktop/GD32VW553/GD32VW55X_Wifi_BLE_SDK/GD32VW55x_RELEASE_V1.0.2/MSDK/plf/GD32VW55x_standard_peripheral/Source\gd32vw55x_dma.c ****                                       DMA_PERIPH_BURST_4_BEAT,
 202:C:/Users/stapi/OneDrive/Desktop/GD32VW553/GD32VW55X_Wifi_BLE_SDK/GD32VW55x_RELEASE_V1.0.2/MSDK/plf/GD32VW55x_standard_peripheral/Source\gd32vw55x_dma.c ****                                       DMA_PERIPH_BURST_8_BEAT,
 203:C:/Users/stapi/OneDrive/Desktop/GD32VW553/GD32VW55X_Wifi_BLE_SDK/GD32VW55x_RELEASE_V1.0.2/MSDK/plf/GD32VW55x_standard_peripheral/Source\gd32vw55x_dma.c ****                                       DMA_PERIPH_BURST_16_BEAT
 204:C:/Users/stapi/OneDrive/Desktop/GD32VW553/GD32VW55X_Wifi_BLE_SDK/GD32VW55x_RELEASE_V1.0.2/MSDK/plf/GD32VW55x_standard_peripheral/Source\gd32vw55x_dma.c ****                   critical_value:     DMA_FIFO_1_WORD,
 205:C:/Users/stapi/OneDrive/Desktop/GD32VW553/GD32VW55X_Wifi_BLE_SDK/GD32VW55x_RELEASE_V1.0.2/MSDK/plf/GD32VW55x_standard_peripheral/Source\gd32vw55x_dma.c ****                                       DMA_FIFO_2_WORD,
 206:C:/Users/stapi/OneDrive/Desktop/GD32VW553/GD32VW55X_Wifi_BLE_SDK/GD32VW55x_RELEASE_V1.0.2/MSDK/plf/GD32VW55x_standard_peripheral/Source\gd32vw55x_dma.c ****                                       DMA_FIFO_3_WORD,
 207:C:/Users/stapi/OneDrive/Desktop/GD32VW553/GD32VW55X_Wifi_BLE_SDK/GD32VW55x_RELEASE_V1.0.2/MSDK/plf/GD32VW55x_standard_peripheral/Source\gd32vw55x_dma.c ****                                       DMA_FIFO_4_WORD
 208:C:/Users/stapi/OneDrive/Desktop/GD32VW553/GD32VW55X_Wifi_BLE_SDK/GD32VW55x_RELEASE_V1.0.2/MSDK/plf/GD32VW55x_standard_peripheral/Source\gd32vw55x_dma.c ****                   circular_mode:      DMA_CIRCULAR_MODE_ENABLE,
 209:C:/Users/stapi/OneDrive/Desktop/GD32VW553/GD32VW55X_Wifi_BLE_SDK/GD32VW55x_RELEASE_V1.0.2/MSDK/plf/GD32VW55x_standard_peripheral/Source\gd32vw55x_dma.c ****                                       DMA_CIRCULAR_MODE_DISABLE
 210:C:/Users/stapi/OneDrive/Desktop/GD32VW553/GD32VW55X_Wifi_BLE_SDK/GD32VW55x_RELEASE_V1.0.2/MSDK/plf/GD32VW55x_standard_peripheral/Source\gd32vw55x_dma.c ****                   direction:          DMA_PERIPH_TO_MEMORY,
 211:C:/Users/stapi/OneDrive/Desktop/GD32VW553/GD32VW55X_Wifi_BLE_SDK/GD32VW55x_RELEASE_V1.0.2/MSDK/plf/GD32VW55x_standard_peripheral/Source\gd32vw55x_dma.c ****                                       DMA_MEMORY_TO_PERIPH,
 212:C:/Users/stapi/OneDrive/Desktop/GD32VW553/GD32VW55X_Wifi_BLE_SDK/GD32VW55x_RELEASE_V1.0.2/MSDK/plf/GD32VW55x_standard_peripheral/Source\gd32vw55x_dma.c ****                                       DMA_MEMORY_TO_MEMORY
 213:C:/Users/stapi/OneDrive/Desktop/GD32VW553/GD32VW55X_Wifi_BLE_SDK/GD32VW55x_RELEASE_V1.0.2/MSDK/plf/GD32VW55x_standard_peripheral/Source\gd32vw55x_dma.c ****                   number:             the number of remaining data to be transferred by the DMA
 214:C:/Users/stapi/OneDrive/Desktop/GD32VW553/GD32VW55X_Wifi_BLE_SDK/GD32VW55x_RELEASE_V1.0.2/MSDK/plf/GD32VW55x_standard_peripheral/Source\gd32vw55x_dma.c ****                   priority:           DMA_PRIORITY_LOW,
 215:C:/Users/stapi/OneDrive/Desktop/GD32VW553/GD32VW55X_Wifi_BLE_SDK/GD32VW55x_RELEASE_V1.0.2/MSDK/plf/GD32VW55x_standard_peripheral/Source\gd32vw55x_dma.c ****                                       DMA_PRIORITY_MEDIUM,
 216:C:/Users/stapi/OneDrive/Desktop/GD32VW553/GD32VW55X_Wifi_BLE_SDK/GD32VW55x_RELEASE_V1.0.2/MSDK/plf/GD32VW55x_standard_peripheral/Source\gd32vw55x_dma.c ****                                       DMA_PRIORITY_HIGH,
 217:C:/Users/stapi/OneDrive/Desktop/GD32VW553/GD32VW55X_Wifi_BLE_SDK/GD32VW55x_RELEASE_V1.0.2/MSDK/plf/GD32VW55x_standard_peripheral/Source\gd32vw55x_dma.c ****                                       DMA_PRIORITY_ULTRA_HIGH
 218:C:/Users/stapi/OneDrive/Desktop/GD32VW553/GD32VW55X_Wifi_BLE_SDK/GD32VW55x_RELEASE_V1.0.2/MSDK/plf/GD32VW55x_standard_peripheral/Source\gd32vw55x_dma.c ****     \param[out] none
 219:C:/Users/stapi/OneDrive/Desktop/GD32VW553/GD32VW55X_Wifi_BLE_SDK/GD32VW55x_RELEASE_V1.0.2/MSDK/plf/GD32VW55x_standard_peripheral/Source\gd32vw55x_dma.c ****     \retval     none
 220:C:/Users/stapi/OneDrive/Desktop/GD32VW553/GD32VW55X_Wifi_BLE_SDK/GD32VW55x_RELEASE_V1.0.2/MSDK/plf/GD32VW55x_standard_peripheral/Source\gd32vw55x_dma.c **** */
 221:C:/Users/stapi/OneDrive/Desktop/GD32VW553/GD32VW55X_Wifi_BLE_SDK/GD32VW55x_RELEASE_V1.0.2/MSDK/plf/GD32VW55x_standard_peripheral/Source\gd32vw55x_dma.c **** void dma_multi_data_mode_init(dma_channel_enum channelx, dma_multi_data_parameter_struct* init_stru
 222:C:/Users/stapi/OneDrive/Desktop/GD32VW553/GD32VW55X_Wifi_BLE_SDK/GD32VW55x_RELEASE_V1.0.2/MSDK/plf/GD32VW55x_standard_peripheral/Source\gd32vw55x_dma.c **** {
 356              		.loc 1 222 1 is_stmt 1
 357              		.cfi_startproc
 358              	.LVL17:
 223:C:/Users/stapi/OneDrive/Desktop/GD32VW553/GD32VW55X_Wifi_BLE_SDK/GD32VW55x_RELEASE_V1.0.2/MSDK/plf/GD32VW55x_standard_peripheral/Source\gd32vw55x_dma.c ****     uint32_t ctl;
 359              		.loc 1 223 5
 224:C:/Users/stapi/OneDrive/Desktop/GD32VW553/GD32VW55X_Wifi_BLE_SDK/GD32VW55x_RELEASE_V1.0.2/MSDK/plf/GD32VW55x_standard_peripheral/Source\gd32vw55x_dma.c **** 
 225:C:/Users/stapi/OneDrive/Desktop/GD32VW553/GD32VW55X_Wifi_BLE_SDK/GD32VW55x_RELEASE_V1.0.2/MSDK/plf/GD32VW55x_standard_peripheral/Source\gd32vw55x_dma.c ****     DMA_CHFCTL(channelx) &= ~DMA_CHXFCTL_FCCV;
 360              		.loc 1 225 5
 361              		.loc 1 225 26 is_stmt 0
 362 0000 E147     		li	a5,24
 363 0002 3305F502 		mul	a0,a0,a5
 364              	.LVL18:
 365 0006 B7670240 		li	a5,1073897472
 366 000a 13874702 		addi	a4,a5,36
 367 000e 2A97     		add	a4,a0,a4
 368 0010 1443     		lw	a3,0(a4)
 369 0012 F19A     		andi	a3,a3,-4
 370 0014 14C3     		sw	a3,0(a4)
 226:C:/Users/stapi/OneDrive/Desktop/GD32VW553/GD32VW55X_Wifi_BLE_SDK/GD32VW55x_RELEASE_V1.0.2/MSDK/plf/GD32VW55x_standard_peripheral/Source\gd32vw55x_dma.c ****     /* select multi data mode and configure FIFO critical value */
 227:C:/Users/stapi/OneDrive/Desktop/GD32VW553/GD32VW55X_Wifi_BLE_SDK/GD32VW55x_RELEASE_V1.0.2/MSDK/plf/GD32VW55x_standard_peripheral/Source\gd32vw55x_dma.c ****     DMA_CHFCTL(channelx) |= (DMA_CHXFCTL_MDMEN | init_struct->critical_value);
 371              		.loc 1 227 5 is_stmt 1
 372              		.loc 1 227 26 is_stmt 0
 373 0016 1443     		lw	a3,0(a4)
 374 0018 9051     		lw	a2,32(a1)
 375 001a D18E     		or	a3,a3,a2
 376 001c 93E64600 		ori	a3,a3,4
 377 0020 14C3     		sw	a3,0(a4)
 228:C:/Users/stapi/OneDrive/Desktop/GD32VW553/GD32VW55X_Wifi_BLE_SDK/GD32VW55x_RELEASE_V1.0.2/MSDK/plf/GD32VW55x_standard_peripheral/Source\gd32vw55x_dma.c **** 
 229:C:/Users/stapi/OneDrive/Desktop/GD32VW553/GD32VW55X_Wifi_BLE_SDK/GD32VW55x_RELEASE_V1.0.2/MSDK/plf/GD32VW55x_standard_peripheral/Source\gd32vw55x_dma.c ****     /* configure peripheral base address */
 230:C:/Users/stapi/OneDrive/Desktop/GD32VW553/GD32VW55X_Wifi_BLE_SDK/GD32VW55x_RELEASE_V1.0.2/MSDK/plf/GD32VW55x_standard_peripheral/Source\gd32vw55x_dma.c ****     DMA_CHPADDR(channelx) = init_struct->periph_addr;
 378              		.loc 1 230 5 is_stmt 1
 379              		.loc 1 230 40 is_stmt 0
 380 0022 9441     		lw	a3,0(a1)
 381              		.loc 1 230 5
 382 0024 13878701 		addi	a4,a5,24
 383 0028 2A97     		add	a4,a0,a4
 384              		.loc 1 230 27
 385 002a 14C3     		sw	a3,0(a4)
 231:C:/Users/stapi/OneDrive/Desktop/GD32VW553/GD32VW55X_Wifi_BLE_SDK/GD32VW55x_RELEASE_V1.0.2/MSDK/plf/GD32VW55x_standard_peripheral/Source\gd32vw55x_dma.c **** 
 232:C:/Users/stapi/OneDrive/Desktop/GD32VW553/GD32VW55X_Wifi_BLE_SDK/GD32VW55x_RELEASE_V1.0.2/MSDK/plf/GD32VW55x_standard_peripheral/Source\gd32vw55x_dma.c ****     /* configure memory base address */
 233:C:/Users/stapi/OneDrive/Desktop/GD32VW553/GD32VW55X_Wifi_BLE_SDK/GD32VW55x_RELEASE_V1.0.2/MSDK/plf/GD32VW55x_standard_peripheral/Source\gd32vw55x_dma.c ****     DMA_CHM0ADDR(channelx) = init_struct->memory0_addr;
 386              		.loc 1 233 5 is_stmt 1
 387              		.loc 1 233 41 is_stmt 0
 388 002c D445     		lw	a3,12(a1)
 389              		.loc 1 233 5
 390 002e 1387C701 		addi	a4,a5,28
 391 0032 2A97     		add	a4,a0,a4
 392              		.loc 1 233 28
 393 0034 14C3     		sw	a3,0(a4)
 234:C:/Users/stapi/OneDrive/Desktop/GD32VW553/GD32VW55X_Wifi_BLE_SDK/GD32VW55x_RELEASE_V1.0.2/MSDK/plf/GD32VW55x_standard_peripheral/Source\gd32vw55x_dma.c **** 
 235:C:/Users/stapi/OneDrive/Desktop/GD32VW553/GD32VW55X_Wifi_BLE_SDK/GD32VW55x_RELEASE_V1.0.2/MSDK/plf/GD32VW55x_standard_peripheral/Source\gd32vw55x_dma.c ****     /* configure the number of remaining data to be transferred */
 236:C:/Users/stapi/OneDrive/Desktop/GD32VW553/GD32VW55X_Wifi_BLE_SDK/GD32VW55x_RELEASE_V1.0.2/MSDK/plf/GD32VW55x_standard_peripheral/Source\gd32vw55x_dma.c ****     DMA_CHCNT(channelx) = init_struct->number;
 394              		.loc 1 236 5 is_stmt 1
 395              		.loc 1 236 38 is_stmt 0
 396 0036 D455     		lw	a3,44(a1)
 397              		.loc 1 236 5
 398 0038 13874701 		addi	a4,a5,20
 399 003c 2A97     		add	a4,a0,a4
 237:C:/Users/stapi/OneDrive/Desktop/GD32VW553/GD32VW55X_Wifi_BLE_SDK/GD32VW55x_RELEASE_V1.0.2/MSDK/plf/GD32VW55x_standard_peripheral/Source\gd32vw55x_dma.c **** 
 238:C:/Users/stapi/OneDrive/Desktop/GD32VW553/GD32VW55X_Wifi_BLE_SDK/GD32VW55x_RELEASE_V1.0.2/MSDK/plf/GD32VW55x_standard_peripheral/Source\gd32vw55x_dma.c ****     /* configure peripheral and memory transfer width,channel priority
 239:C:/Users/stapi/OneDrive/Desktop/GD32VW553/GD32VW55X_Wifi_BLE_SDK/GD32VW55x_RELEASE_V1.0.2/MSDK/plf/GD32VW55x_standard_peripheral/Source\gd32vw55x_dma.c **** ,transfer mode,peripheral and memory burst transfer width */
 240:C:/Users/stapi/OneDrive/Desktop/GD32VW553/GD32VW55X_Wifi_BLE_SDK/GD32VW55x_RELEASE_V1.0.2/MSDK/plf/GD32VW55x_standard_peripheral/Source\gd32vw55x_dma.c ****     ctl = DMA_CHCTL(channelx);
 400              		.loc 1 240 11
 401 003e C107     		addi	a5,a5,16
 236:C:/Users/stapi/OneDrive/Desktop/GD32VW553/GD32VW55X_Wifi_BLE_SDK/GD32VW55x_RELEASE_V1.0.2/MSDK/plf/GD32VW55x_standard_peripheral/Source\gd32vw55x_dma.c **** 
 402              		.loc 1 236 25
 403 0040 14C3     		sw	a3,0(a4)
 404              		.loc 1 240 5 is_stmt 1
 405              		.loc 1 240 11 is_stmt 0
 406 0042 3E95     		add	a0,a0,a5
 407              		.loc 1 240 9
 408 0044 1C41     		lw	a5,0(a0)
 409              	.LVL19:
 241:C:/Users/stapi/OneDrive/Desktop/GD32VW553/GD32VW55X_Wifi_BLE_SDK/GD32VW55x_RELEASE_V1.0.2/MSDK/plf/GD32VW55x_standard_peripheral/Source\gd32vw55x_dma.c ****     ctl &= ~(DMA_CHXCTL_PWIDTH | DMA_CHXCTL_MWIDTH | DMA_CHXCTL_PRIO | DMA_CHXCTL_TM | DMA_CHXCTL_P
 410              		.loc 1 241 5 is_stmt 1
 411              		.loc 1 241 9 is_stmt 0
 412 0046 37871CFE 		li	a4,-31686656
 413 004a 1307F773 		addi	a4,a4,1855
 242:C:/Users/stapi/OneDrive/Desktop/GD32VW553/GD32VW55X_Wifi_BLE_SDK/GD32VW55x_RELEASE_V1.0.2/MSDK/plf/GD32VW55x_standard_peripheral/Source\gd32vw55x_dma.c ****     ctl |= (init_struct->periph_width | (init_struct->memory_width) | init_struct->priority | init_
 414              		.loc 1 242 39
 415 004e 9449     		lw	a3,16(a1)
 241:C:/Users/stapi/OneDrive/Desktop/GD32VW553/GD32VW55X_Wifi_BLE_SDK/GD32VW55x_RELEASE_V1.0.2/MSDK/plf/GD32VW55x_standard_peripheral/Source\gd32vw55x_dma.c ****     ctl &= ~(DMA_CHXCTL_PWIDTH | DMA_CHXCTL_MWIDTH | DMA_CHXCTL_PRIO | DMA_CHXCTL_TM | DMA_CHXCTL_P
 416              		.loc 1 241 9
 417 0050 7D8F     		and	a4,a5,a4
 418              	.LVL20:
 419              		.loc 1 242 5 is_stmt 1
 420              		.loc 1 242 39 is_stmt 0
 421 0052 DC41     		lw	a5,4(a1)
 422 0054 D58F     		or	a5,a5,a3
 423              		.loc 1 242 69
 424 0056 9459     		lw	a3,48(a1)
 425 0058 D58F     		or	a5,a5,a3
 426              		.loc 1 242 93
 427 005a 9455     		lw	a3,40(a1)
 428 005c D58F     		or	a5,a5,a3
 429              		.loc 1 242 118
 430 005e 944D     		lw	a3,24(a1)
 431 0060 D58F     		or	a5,a5,a3
 432              		.loc 1 242 152
 433 0062 D44D     		lw	a3,28(a1)
 434 0064 D58F     		or	a5,a5,a3
 435              		.loc 1 242 9
 436 0066 D98F     		or	a5,a5,a4
 437              	.LVL21:
 243:C:/Users/stapi/OneDrive/Desktop/GD32VW553/GD32VW55X_Wifi_BLE_SDK/GD32VW55x_RELEASE_V1.0.2/MSDK/plf/GD32VW55x_standard_peripheral/Source\gd32vw55x_dma.c ****     DMA_CHCTL(channelx) = ctl;
 438              		.loc 1 243 5 is_stmt 1
 439              		.loc 1 243 25 is_stmt 0
 440 0068 1CC1     		sw	a5,0(a0)
 244:C:/Users/stapi/OneDrive/Desktop/GD32VW553/GD32VW55X_Wifi_BLE_SDK/GD32VW55x_RELEASE_V1.0.2/MSDK/plf/GD32VW55x_standard_peripheral/Source\gd32vw55x_dma.c **** 
 245:C:/Users/stapi/OneDrive/Desktop/GD32VW553/GD32VW55X_Wifi_BLE_SDK/GD32VW55x_RELEASE_V1.0.2/MSDK/plf/GD32VW55x_standard_peripheral/Source\gd32vw55x_dma.c ****     /* configure peripheral increasing mode */
 246:C:/Users/stapi/OneDrive/Desktop/GD32VW553/GD32VW55X_Wifi_BLE_SDK/GD32VW55x_RELEASE_V1.0.2/MSDK/plf/GD32VW55x_standard_peripheral/Source\gd32vw55x_dma.c ****     if(DMA_PERIPH_INCREASE_ENABLE == init_struct->periph_inc){
 441              		.loc 1 246 5 is_stmt 1
 442              		.loc 1 246 49 is_stmt 0
 443 006a 9C45     		lw	a5,8(a1)
 444              	.LVL22:
 445              		.loc 1 246 7
 446 006c 85E7     		bne	a5,zero,.L18
 247:C:/Users/stapi/OneDrive/Desktop/GD32VW553/GD32VW55X_Wifi_BLE_SDK/GD32VW55x_RELEASE_V1.0.2/MSDK/plf/GD32VW55x_standard_peripheral/Source\gd32vw55x_dma.c ****         DMA_CHCTL(channelx) |= DMA_CHXCTL_PNAGA;
 447              		.loc 1 247 9 is_stmt 1
 448              		.loc 1 247 29 is_stmt 0
 449 006e 1C41     		lw	a5,0(a0)
 450 0070 93E70720 		ori	a5,a5,512
 451              	.L25:
 248:C:/Users/stapi/OneDrive/Desktop/GD32VW553/GD32VW55X_Wifi_BLE_SDK/GD32VW55x_RELEASE_V1.0.2/MSDK/plf/GD32VW55x_standard_peripheral/Source\gd32vw55x_dma.c ****     }else if(DMA_PERIPH_INCREASE_DISABLE == init_struct->periph_inc){
 249:C:/Users/stapi/OneDrive/Desktop/GD32VW553/GD32VW55X_Wifi_BLE_SDK/GD32VW55x_RELEASE_V1.0.2/MSDK/plf/GD32VW55x_standard_peripheral/Source\gd32vw55x_dma.c ****         DMA_CHCTL(channelx) &= ~DMA_CHXCTL_PNAGA;
 250:C:/Users/stapi/OneDrive/Desktop/GD32VW553/GD32VW55X_Wifi_BLE_SDK/GD32VW55x_RELEASE_V1.0.2/MSDK/plf/GD32VW55x_standard_peripheral/Source\gd32vw55x_dma.c ****     }else{
 251:C:/Users/stapi/OneDrive/Desktop/GD32VW553/GD32VW55X_Wifi_BLE_SDK/GD32VW55x_RELEASE_V1.0.2/MSDK/plf/GD32VW55x_standard_peripheral/Source\gd32vw55x_dma.c ****         DMA_CHCTL(channelx) |= DMA_CHXCTL_PAIF;
 452              		.loc 1 251 29
 453 0074 1CC1     		sw	a5,0(a0)
 454              	.LVL23:
 252:C:/Users/stapi/OneDrive/Desktop/GD32VW553/GD32VW55X_Wifi_BLE_SDK/GD32VW55x_RELEASE_V1.0.2/MSDK/plf/GD32VW55x_standard_peripheral/Source\gd32vw55x_dma.c ****     }
 253:C:/Users/stapi/OneDrive/Desktop/GD32VW553/GD32VW55X_Wifi_BLE_SDK/GD32VW55x_RELEASE_V1.0.2/MSDK/plf/GD32VW55x_standard_peripheral/Source\gd32vw55x_dma.c **** 
 254:C:/Users/stapi/OneDrive/Desktop/GD32VW553/GD32VW55X_Wifi_BLE_SDK/GD32VW55x_RELEASE_V1.0.2/MSDK/plf/GD32VW55x_standard_peripheral/Source\gd32vw55x_dma.c ****     /* configure memory increasing mode */
 255:C:/Users/stapi/OneDrive/Desktop/GD32VW553/GD32VW55X_Wifi_BLE_SDK/GD32VW55x_RELEASE_V1.0.2/MSDK/plf/GD32VW55x_standard_peripheral/Source\gd32vw55x_dma.c ****     if(DMA_MEMORY_INCREASE_ENABLE == init_struct->memory_inc){
 455              		.loc 1 255 5 is_stmt 1
 456              		.loc 1 255 7 is_stmt 0
 457 0076 DC49     		lw	a5,20(a1)
 458 0078 8DEB     		bne	a5,zero,.L21
 256:C:/Users/stapi/OneDrive/Desktop/GD32VW553/GD32VW55X_Wifi_BLE_SDK/GD32VW55x_RELEASE_V1.0.2/MSDK/plf/GD32VW55x_standard_peripheral/Source\gd32vw55x_dma.c ****         DMA_CHCTL(channelx) |= DMA_CHXCTL_MNAGA;
 459              		.loc 1 256 9 is_stmt 1
 460              		.loc 1 256 29 is_stmt 0
 461 007a 1C41     		lw	a5,0(a0)
 462 007c 93E70740 		ori	a5,a5,1024
 463              	.L26:
 257:C:/Users/stapi/OneDrive/Desktop/GD32VW553/GD32VW55X_Wifi_BLE_SDK/GD32VW55x_RELEASE_V1.0.2/MSDK/plf/GD32VW55x_standard_peripheral/Source\gd32vw55x_dma.c ****     }else{
 258:C:/Users/stapi/OneDrive/Desktop/GD32VW553/GD32VW55X_Wifi_BLE_SDK/GD32VW55x_RELEASE_V1.0.2/MSDK/plf/GD32VW55x_standard_peripheral/Source\gd32vw55x_dma.c ****         DMA_CHCTL(channelx) &= ~DMA_CHXCTL_MNAGA;
 464              		.loc 1 258 29
 465 0080 1CC1     		sw	a5,0(a0)
 259:C:/Users/stapi/OneDrive/Desktop/GD32VW553/GD32VW55X_Wifi_BLE_SDK/GD32VW55x_RELEASE_V1.0.2/MSDK/plf/GD32VW55x_standard_peripheral/Source\gd32vw55x_dma.c ****     }
 260:C:/Users/stapi/OneDrive/Desktop/GD32VW553/GD32VW55X_Wifi_BLE_SDK/GD32VW55x_RELEASE_V1.0.2/MSDK/plf/GD32VW55x_standard_peripheral/Source\gd32vw55x_dma.c **** 
 261:C:/Users/stapi/OneDrive/Desktop/GD32VW553/GD32VW55X_Wifi_BLE_SDK/GD32VW55x_RELEASE_V1.0.2/MSDK/plf/GD32VW55x_standard_peripheral/Source\gd32vw55x_dma.c ****     /* configure DMA circular mode */
 262:C:/Users/stapi/OneDrive/Desktop/GD32VW553/GD32VW55X_Wifi_BLE_SDK/GD32VW55x_RELEASE_V1.0.2/MSDK/plf/GD32VW55x_standard_peripheral/Source\gd32vw55x_dma.c ****     if(DMA_CIRCULAR_MODE_ENABLE == init_struct->circular_mode){
 466              		.loc 1 262 5 is_stmt 1
 467              		.loc 1 262 7 is_stmt 0
 468 0082 D851     		lw	a4,36(a1)
 469 0084 8547     		li	a5,1
 470 0086 6316F702 		bne	a4,a5,.L23
 263:C:/Users/stapi/OneDrive/Desktop/GD32VW553/GD32VW55X_Wifi_BLE_SDK/GD32VW55x_RELEASE_V1.0.2/MSDK/plf/GD32VW55x_standard_peripheral/Source\gd32vw55x_dma.c ****         DMA_CHCTL(channelx) |= DMA_CHXCTL_CMEN;
 471              		.loc 1 263 9 is_stmt 1
 472              		.loc 1 263 29 is_stmt 0
 473 008a 1C41     		lw	a5,0(a0)
 474 008c 93E70710 		ori	a5,a5,256
 475              	.L27:
 264:C:/Users/stapi/OneDrive/Desktop/GD32VW553/GD32VW55X_Wifi_BLE_SDK/GD32VW55x_RELEASE_V1.0.2/MSDK/plf/GD32VW55x_standard_peripheral/Source\gd32vw55x_dma.c ****     }else{
 265:C:/Users/stapi/OneDrive/Desktop/GD32VW553/GD32VW55X_Wifi_BLE_SDK/GD32VW55x_RELEASE_V1.0.2/MSDK/plf/GD32VW55x_standard_peripheral/Source\gd32vw55x_dma.c ****         DMA_CHCTL(channelx) &= ~DMA_CHXCTL_CMEN;
 476              		.loc 1 265 29
 477 0090 1CC1     		sw	a5,0(a0)
 266:C:/Users/stapi/OneDrive/Desktop/GD32VW553/GD32VW55X_Wifi_BLE_SDK/GD32VW55x_RELEASE_V1.0.2/MSDK/plf/GD32VW55x_standard_peripheral/Source\gd32vw55x_dma.c ****     }
 267:C:/Users/stapi/OneDrive/Desktop/GD32VW553/GD32VW55X_Wifi_BLE_SDK/GD32VW55x_RELEASE_V1.0.2/MSDK/plf/GD32VW55x_standard_peripheral/Source\gd32vw55x_dma.c **** }
 478              		.loc 1 267 1
 479 0092 8280     		ret
 480              	.LVL24:
 481              	.L18:
 248:C:/Users/stapi/OneDrive/Desktop/GD32VW553/GD32VW55X_Wifi_BLE_SDK/GD32VW55x_RELEASE_V1.0.2/MSDK/plf/GD32VW55x_standard_peripheral/Source\gd32vw55x_dma.c ****         DMA_CHCTL(channelx) &= ~DMA_CHXCTL_PNAGA;
 482              		.loc 1 248 11 is_stmt 1
 248:C:/Users/stapi/OneDrive/Desktop/GD32VW553/GD32VW55X_Wifi_BLE_SDK/GD32VW55x_RELEASE_V1.0.2/MSDK/plf/GD32VW55x_standard_peripheral/Source\gd32vw55x_dma.c ****         DMA_CHCTL(channelx) &= ~DMA_CHXCTL_PNAGA;
 483              		.loc 1 248 13 is_stmt 0
 484 0094 0547     		li	a4,1
 485 0096 6396E700 		bne	a5,a4,.L20
 249:C:/Users/stapi/OneDrive/Desktop/GD32VW553/GD32VW55X_Wifi_BLE_SDK/GD32VW55x_RELEASE_V1.0.2/MSDK/plf/GD32VW55x_standard_peripheral/Source\gd32vw55x_dma.c ****     }else{
 486              		.loc 1 249 9 is_stmt 1
 249:C:/Users/stapi/OneDrive/Desktop/GD32VW553/GD32VW55X_Wifi_BLE_SDK/GD32VW55x_RELEASE_V1.0.2/MSDK/plf/GD32VW55x_standard_peripheral/Source\gd32vw55x_dma.c ****     }else{
 487              		.loc 1 249 29 is_stmt 0
 488 009a 1C41     		lw	a5,0(a0)
 489 009c 93F7F7DF 		andi	a5,a5,-513
 490 00a0 D1BF     		j	.L25
 491              	.L20:
 251:C:/Users/stapi/OneDrive/Desktop/GD32VW553/GD32VW55X_Wifi_BLE_SDK/GD32VW55x_RELEASE_V1.0.2/MSDK/plf/GD32VW55x_standard_peripheral/Source\gd32vw55x_dma.c ****     }
 492              		.loc 1 251 9 is_stmt 1
 251:C:/Users/stapi/OneDrive/Desktop/GD32VW553/GD32VW55X_Wifi_BLE_SDK/GD32VW55x_RELEASE_V1.0.2/MSDK/plf/GD32VW55x_standard_peripheral/Source\gd32vw55x_dma.c ****     }
 493              		.loc 1 251 29 is_stmt 0
 494 00a2 1C41     		lw	a5,0(a0)
 495 00a4 9397F728 		bseti	a5,a5,15
 496 00a8 F1B7     		j	.L25
 497              	.LVL25:
 498              	.L21:
 258:C:/Users/stapi/OneDrive/Desktop/GD32VW553/GD32VW55X_Wifi_BLE_SDK/GD32VW55x_RELEASE_V1.0.2/MSDK/plf/GD32VW55x_standard_peripheral/Source\gd32vw55x_dma.c ****     }
 499              		.loc 1 258 9 is_stmt 1
 258:C:/Users/stapi/OneDrive/Desktop/GD32VW553/GD32VW55X_Wifi_BLE_SDK/GD32VW55x_RELEASE_V1.0.2/MSDK/plf/GD32VW55x_standard_peripheral/Source\gd32vw55x_dma.c ****     }
 500              		.loc 1 258 29 is_stmt 0
 501 00aa 1C41     		lw	a5,0(a0)
 502 00ac 93F7F7BF 		andi	a5,a5,-1025
 503 00b0 C1BF     		j	.L26
 504              	.L23:
 265:C:/Users/stapi/OneDrive/Desktop/GD32VW553/GD32VW55X_Wifi_BLE_SDK/GD32VW55x_RELEASE_V1.0.2/MSDK/plf/GD32VW55x_standard_peripheral/Source\gd32vw55x_dma.c ****     }
 505              		.loc 1 265 9 is_stmt 1
 265:C:/Users/stapi/OneDrive/Desktop/GD32VW553/GD32VW55X_Wifi_BLE_SDK/GD32VW55x_RELEASE_V1.0.2/MSDK/plf/GD32VW55x_standard_peripheral/Source\gd32vw55x_dma.c ****     }
 506              		.loc 1 265 29 is_stmt 0
 507 00b2 1C41     		lw	a5,0(a0)
 508 00b4 93F7F7EF 		andi	a5,a5,-257
 509 00b8 E1BF     		j	.L27
 510              		.cfi_endproc
 511              	.LFE369:
 513              		.section	.text.dma_periph_address_config,"ax",@progbits
 514              		.align	1
 515              		.globl	dma_periph_address_config
 517              	dma_periph_address_config:
 518              	.LFB370:
 268:C:/Users/stapi/OneDrive/Desktop/GD32VW553/GD32VW55X_Wifi_BLE_SDK/GD32VW55x_RELEASE_V1.0.2/MSDK/plf/GD32VW55x_standard_peripheral/Source\gd32vw55x_dma.c **** 
 269:C:/Users/stapi/OneDrive/Desktop/GD32VW553/GD32VW55X_Wifi_BLE_SDK/GD32VW55x_RELEASE_V1.0.2/MSDK/plf/GD32VW55x_standard_peripheral/Source\gd32vw55x_dma.c **** /*!
 270:C:/Users/stapi/OneDrive/Desktop/GD32VW553/GD32VW55X_Wifi_BLE_SDK/GD32VW55x_RELEASE_V1.0.2/MSDK/plf/GD32VW55x_standard_peripheral/Source\gd32vw55x_dma.c ****     \brief      set DMA peripheral base address
 271:C:/Users/stapi/OneDrive/Desktop/GD32VW553/GD32VW55X_Wifi_BLE_SDK/GD32VW55x_RELEASE_V1.0.2/MSDK/plf/GD32VW55x_standard_peripheral/Source\gd32vw55x_dma.c ****     \param[in]  channelx: specify which DMA channel to set peripheral base address
 272:C:/Users/stapi/OneDrive/Desktop/GD32VW553/GD32VW55X_Wifi_BLE_SDK/GD32VW55x_RELEASE_V1.0.2/MSDK/plf/GD32VW55x_standard_peripheral/Source\gd32vw55x_dma.c ****       \arg        DMA_CHx (x=0..7)
 273:C:/Users/stapi/OneDrive/Desktop/GD32VW553/GD32VW55X_Wifi_BLE_SDK/GD32VW55x_RELEASE_V1.0.2/MSDK/plf/GD32VW55x_standard_peripheral/Source\gd32vw55x_dma.c ****     \param[in]  address: peripheral base address
 274:C:/Users/stapi/OneDrive/Desktop/GD32VW553/GD32VW55X_Wifi_BLE_SDK/GD32VW55x_RELEASE_V1.0.2/MSDK/plf/GD32VW55x_standard_peripheral/Source\gd32vw55x_dma.c ****     \param[out] none
 275:C:/Users/stapi/OneDrive/Desktop/GD32VW553/GD32VW55X_Wifi_BLE_SDK/GD32VW55x_RELEASE_V1.0.2/MSDK/plf/GD32VW55x_standard_peripheral/Source\gd32vw55x_dma.c ****     \retval     none
 276:C:/Users/stapi/OneDrive/Desktop/GD32VW553/GD32VW55X_Wifi_BLE_SDK/GD32VW55x_RELEASE_V1.0.2/MSDK/plf/GD32VW55x_standard_peripheral/Source\gd32vw55x_dma.c **** */
 277:C:/Users/stapi/OneDrive/Desktop/GD32VW553/GD32VW55X_Wifi_BLE_SDK/GD32VW55x_RELEASE_V1.0.2/MSDK/plf/GD32VW55x_standard_peripheral/Source\gd32vw55x_dma.c **** void dma_periph_address_config(dma_channel_enum channelx, uint32_t address)
 278:C:/Users/stapi/OneDrive/Desktop/GD32VW553/GD32VW55X_Wifi_BLE_SDK/GD32VW55x_RELEASE_V1.0.2/MSDK/plf/GD32VW55x_standard_peripheral/Source\gd32vw55x_dma.c **** {
 519              		.loc 1 278 1 is_stmt 1
 520              		.cfi_startproc
 521              	.LVL26:
 279:C:/Users/stapi/OneDrive/Desktop/GD32VW553/GD32VW55X_Wifi_BLE_SDK/GD32VW55x_RELEASE_V1.0.2/MSDK/plf/GD32VW55x_standard_peripheral/Source\gd32vw55x_dma.c ****     DMA_CHPADDR(channelx) = address;
 522              		.loc 1 279 5
 523 0000 B7670240 		li	a5,1073897472
 524 0004 6147     		li	a4,24
 525 0006 E107     		addi	a5,a5,24
 526 0008 FF17E5C4 		maddr32	a5, a0, a4
 527              		.loc 1 279 27 is_stmt 0
 528 000c 8CC3     		sw	a1,0(a5)
 280:C:/Users/stapi/OneDrive/Desktop/GD32VW553/GD32VW55X_Wifi_BLE_SDK/GD32VW55x_RELEASE_V1.0.2/MSDK/plf/GD32VW55x_standard_peripheral/Source\gd32vw55x_dma.c **** }
 529              		.loc 1 280 1
 530 000e 8280     		ret
 531              		.cfi_endproc
 532              	.LFE370:
 534              		.section	.text.dma_memory_address_config,"ax",@progbits
 535              		.align	1
 536              		.globl	dma_memory_address_config
 538              	dma_memory_address_config:
 539              	.LFB371:
 281:C:/Users/stapi/OneDrive/Desktop/GD32VW553/GD32VW55X_Wifi_BLE_SDK/GD32VW55x_RELEASE_V1.0.2/MSDK/plf/GD32VW55x_standard_peripheral/Source\gd32vw55x_dma.c **** 
 282:C:/Users/stapi/OneDrive/Desktop/GD32VW553/GD32VW55X_Wifi_BLE_SDK/GD32VW55x_RELEASE_V1.0.2/MSDK/plf/GD32VW55x_standard_peripheral/Source\gd32vw55x_dma.c **** /*!
 283:C:/Users/stapi/OneDrive/Desktop/GD32VW553/GD32VW55X_Wifi_BLE_SDK/GD32VW55x_RELEASE_V1.0.2/MSDK/plf/GD32VW55x_standard_peripheral/Source\gd32vw55x_dma.c ****     \brief      set DMA memory0 base address
 284:C:/Users/stapi/OneDrive/Desktop/GD32VW553/GD32VW55X_Wifi_BLE_SDK/GD32VW55x_RELEASE_V1.0.2/MSDK/plf/GD32VW55x_standard_peripheral/Source\gd32vw55x_dma.c ****     \param[in]  channelx: specify which DMA channel to set Memory base address
 285:C:/Users/stapi/OneDrive/Desktop/GD32VW553/GD32VW55X_Wifi_BLE_SDK/GD32VW55x_RELEASE_V1.0.2/MSDK/plf/GD32VW55x_standard_peripheral/Source\gd32vw55x_dma.c ****       \arg        DMA_CHx (x=0..7)
 286:C:/Users/stapi/OneDrive/Desktop/GD32VW553/GD32VW55X_Wifi_BLE_SDK/GD32VW55x_RELEASE_V1.0.2/MSDK/plf/GD32VW55x_standard_peripheral/Source\gd32vw55x_dma.c ****     \param[in]  memory_flag: DMA_MEMORY_x (x=0,1)
 287:C:/Users/stapi/OneDrive/Desktop/GD32VW553/GD32VW55X_Wifi_BLE_SDK/GD32VW55x_RELEASE_V1.0.2/MSDK/plf/GD32VW55x_standard_peripheral/Source\gd32vw55x_dma.c ****     \param[in]  address: Memory base address
 288:C:/Users/stapi/OneDrive/Desktop/GD32VW553/GD32VW55X_Wifi_BLE_SDK/GD32VW55x_RELEASE_V1.0.2/MSDK/plf/GD32VW55x_standard_peripheral/Source\gd32vw55x_dma.c ****     \param[out] none
 289:C:/Users/stapi/OneDrive/Desktop/GD32VW553/GD32VW55X_Wifi_BLE_SDK/GD32VW55x_RELEASE_V1.0.2/MSDK/plf/GD32VW55x_standard_peripheral/Source\gd32vw55x_dma.c ****     \retval     none
 290:C:/Users/stapi/OneDrive/Desktop/GD32VW553/GD32VW55X_Wifi_BLE_SDK/GD32VW55x_RELEASE_V1.0.2/MSDK/plf/GD32VW55x_standard_peripheral/Source\gd32vw55x_dma.c **** */
 291:C:/Users/stapi/OneDrive/Desktop/GD32VW553/GD32VW55X_Wifi_BLE_SDK/GD32VW55x_RELEASE_V1.0.2/MSDK/plf/GD32VW55x_standard_peripheral/Source\gd32vw55x_dma.c **** void dma_memory_address_config(dma_channel_enum channelx, uint8_t memory_flag, uint32_t address)
 292:C:/Users/stapi/OneDrive/Desktop/GD32VW553/GD32VW55X_Wifi_BLE_SDK/GD32VW55x_RELEASE_V1.0.2/MSDK/plf/GD32VW55x_standard_peripheral/Source\gd32vw55x_dma.c **** {
 540              		.loc 1 292 1 is_stmt 1
 541              		.cfi_startproc
 542              	.LVL27:
 293:C:/Users/stapi/OneDrive/Desktop/GD32VW553/GD32VW55X_Wifi_BLE_SDK/GD32VW55x_RELEASE_V1.0.2/MSDK/plf/GD32VW55x_standard_peripheral/Source\gd32vw55x_dma.c ****     if(memory_flag){
 543              		.loc 1 293 5
 294:C:/Users/stapi/OneDrive/Desktop/GD32VW553/GD32VW55X_Wifi_BLE_SDK/GD32VW55x_RELEASE_V1.0.2/MSDK/plf/GD32VW55x_standard_peripheral/Source\gd32vw55x_dma.c ****         DMA_CHM1ADDR(channelx) = address;
 544              		.loc 1 294 9 is_stmt 0
 545 0000 E147     		li	a5,24
 546 0002 3305F502 		mul	a0,a0,a5
 547              	.LVL28:
 548 0006 B7670240 		li	a5,1073897472
 293:C:/Users/stapi/OneDrive/Desktop/GD32VW553/GD32VW55X_Wifi_BLE_SDK/GD32VW55x_RELEASE_V1.0.2/MSDK/plf/GD32VW55x_standard_peripheral/Source\gd32vw55x_dma.c ****     if(memory_flag){
 549              		.loc 1 293 7
 550 000a 91C5     		beq	a1,zero,.L30
 551              		.loc 1 294 9 is_stmt 1
 552 000c 93870702 		addi	a5,a5,32
 553              	.L32:
 295:C:/Users/stapi/OneDrive/Desktop/GD32VW553/GD32VW55X_Wifi_BLE_SDK/GD32VW55x_RELEASE_V1.0.2/MSDK/plf/GD32VW55x_standard_peripheral/Source\gd32vw55x_dma.c ****     }else{
 296:C:/Users/stapi/OneDrive/Desktop/GD32VW553/GD32VW55X_Wifi_BLE_SDK/GD32VW55x_RELEASE_V1.0.2/MSDK/plf/GD32VW55x_standard_peripheral/Source\gd32vw55x_dma.c ****         DMA_CHM0ADDR(channelx) = address;
 554              		.loc 1 296 9 is_stmt 0
 555 0010 3E95     		add	a0,a0,a5
 556              		.loc 1 296 32
 557 0012 10C1     		sw	a2,0(a0)
 297:C:/Users/stapi/OneDrive/Desktop/GD32VW553/GD32VW55X_Wifi_BLE_SDK/GD32VW55x_RELEASE_V1.0.2/MSDK/plf/GD32VW55x_standard_peripheral/Source\gd32vw55x_dma.c ****     }
 298:C:/Users/stapi/OneDrive/Desktop/GD32VW553/GD32VW55X_Wifi_BLE_SDK/GD32VW55x_RELEASE_V1.0.2/MSDK/plf/GD32VW55x_standard_peripheral/Source\gd32vw55x_dma.c **** }
 558              		.loc 1 298 1
 559 0014 8280     		ret
 560              	.L30:
 296:C:/Users/stapi/OneDrive/Desktop/GD32VW553/GD32VW55X_Wifi_BLE_SDK/GD32VW55x_RELEASE_V1.0.2/MSDK/plf/GD32VW55x_standard_peripheral/Source\gd32vw55x_dma.c ****     }
 561              		.loc 1 296 9 is_stmt 1
 562 0016 F107     		addi	a5,a5,28
 563 0018 E5BF     		j	.L32
 564              		.cfi_endproc
 565              	.LFE371:
 567              		.section	.text.dma_transfer_number_config,"ax",@progbits
 568              		.align	1
 569              		.globl	dma_transfer_number_config
 571              	dma_transfer_number_config:
 572              	.LFB372:
 299:C:/Users/stapi/OneDrive/Desktop/GD32VW553/GD32VW55X_Wifi_BLE_SDK/GD32VW55x_RELEASE_V1.0.2/MSDK/plf/GD32VW55x_standard_peripheral/Source\gd32vw55x_dma.c **** 
 300:C:/Users/stapi/OneDrive/Desktop/GD32VW553/GD32VW55X_Wifi_BLE_SDK/GD32VW55x_RELEASE_V1.0.2/MSDK/plf/GD32VW55x_standard_peripheral/Source\gd32vw55x_dma.c **** /*!
 301:C:/Users/stapi/OneDrive/Desktop/GD32VW553/GD32VW55X_Wifi_BLE_SDK/GD32VW55x_RELEASE_V1.0.2/MSDK/plf/GD32VW55x_standard_peripheral/Source\gd32vw55x_dma.c ****     \brief      set the number of remaining data to be transferred by the DMA
 302:C:/Users/stapi/OneDrive/Desktop/GD32VW553/GD32VW55X_Wifi_BLE_SDK/GD32VW55x_RELEASE_V1.0.2/MSDK/plf/GD32VW55x_standard_peripheral/Source\gd32vw55x_dma.c ****     \param[in]  channelx: specify which DMA channel to set number
 303:C:/Users/stapi/OneDrive/Desktop/GD32VW553/GD32VW55X_Wifi_BLE_SDK/GD32VW55x_RELEASE_V1.0.2/MSDK/plf/GD32VW55x_standard_peripheral/Source\gd32vw55x_dma.c ****       \arg        DMA_CHx (x=0..7)
 304:C:/Users/stapi/OneDrive/Desktop/GD32VW553/GD32VW55X_Wifi_BLE_SDK/GD32VW55x_RELEASE_V1.0.2/MSDK/plf/GD32VW55x_standard_peripheral/Source\gd32vw55x_dma.c ****     \param[in]  number: the number of remaining data to be transferred by the DMA
 305:C:/Users/stapi/OneDrive/Desktop/GD32VW553/GD32VW55X_Wifi_BLE_SDK/GD32VW55x_RELEASE_V1.0.2/MSDK/plf/GD32VW55x_standard_peripheral/Source\gd32vw55x_dma.c ****     \param[out] none
 306:C:/Users/stapi/OneDrive/Desktop/GD32VW553/GD32VW55X_Wifi_BLE_SDK/GD32VW55x_RELEASE_V1.0.2/MSDK/plf/GD32VW55x_standard_peripheral/Source\gd32vw55x_dma.c ****     \retval     none
 307:C:/Users/stapi/OneDrive/Desktop/GD32VW553/GD32VW55X_Wifi_BLE_SDK/GD32VW55x_RELEASE_V1.0.2/MSDK/plf/GD32VW55x_standard_peripheral/Source\gd32vw55x_dma.c **** */
 308:C:/Users/stapi/OneDrive/Desktop/GD32VW553/GD32VW55X_Wifi_BLE_SDK/GD32VW55x_RELEASE_V1.0.2/MSDK/plf/GD32VW55x_standard_peripheral/Source\gd32vw55x_dma.c **** void dma_transfer_number_config(dma_channel_enum channelx, uint32_t number)
 309:C:/Users/stapi/OneDrive/Desktop/GD32VW553/GD32VW55X_Wifi_BLE_SDK/GD32VW55x_RELEASE_V1.0.2/MSDK/plf/GD32VW55x_standard_peripheral/Source\gd32vw55x_dma.c **** {
 573              		.loc 1 309 1
 574              		.cfi_startproc
 575              	.LVL29:
 310:C:/Users/stapi/OneDrive/Desktop/GD32VW553/GD32VW55X_Wifi_BLE_SDK/GD32VW55x_RELEASE_V1.0.2/MSDK/plf/GD32VW55x_standard_peripheral/Source\gd32vw55x_dma.c ****     DMA_CHCNT(channelx) = number;
 576              		.loc 1 310 5
 577 0000 B7670240 		li	a5,1073897472
 578 0004 6147     		li	a4,24
 579 0006 D107     		addi	a5,a5,20
 580 0008 FF17E5C4 		maddr32	a5, a0, a4
 581              		.loc 1 310 25 is_stmt 0
 582 000c 8CC3     		sw	a1,0(a5)
 311:C:/Users/stapi/OneDrive/Desktop/GD32VW553/GD32VW55X_Wifi_BLE_SDK/GD32VW55x_RELEASE_V1.0.2/MSDK/plf/GD32VW55x_standard_peripheral/Source\gd32vw55x_dma.c **** }
 583              		.loc 1 311 1
 584 000e 8280     		ret
 585              		.cfi_endproc
 586              	.LFE372:
 588              		.section	.text.dma_transfer_number_get,"ax",@progbits
 589              		.align	1
 590              		.globl	dma_transfer_number_get
 592              	dma_transfer_number_get:
 593              	.LFB373:
 312:C:/Users/stapi/OneDrive/Desktop/GD32VW553/GD32VW55X_Wifi_BLE_SDK/GD32VW55x_RELEASE_V1.0.2/MSDK/plf/GD32VW55x_standard_peripheral/Source\gd32vw55x_dma.c **** 
 313:C:/Users/stapi/OneDrive/Desktop/GD32VW553/GD32VW55X_Wifi_BLE_SDK/GD32VW55x_RELEASE_V1.0.2/MSDK/plf/GD32VW55x_standard_peripheral/Source\gd32vw55x_dma.c **** /*!
 314:C:/Users/stapi/OneDrive/Desktop/GD32VW553/GD32VW55X_Wifi_BLE_SDK/GD32VW55x_RELEASE_V1.0.2/MSDK/plf/GD32VW55x_standard_peripheral/Source\gd32vw55x_dma.c ****     \brief      get the number of remaining data to be transferred by the DMA
 315:C:/Users/stapi/OneDrive/Desktop/GD32VW553/GD32VW55X_Wifi_BLE_SDK/GD32VW55x_RELEASE_V1.0.2/MSDK/plf/GD32VW55x_standard_peripheral/Source\gd32vw55x_dma.c ****     \param[in]  channelx: specify which DMA channel to set number
 316:C:/Users/stapi/OneDrive/Desktop/GD32VW553/GD32VW55X_Wifi_BLE_SDK/GD32VW55x_RELEASE_V1.0.2/MSDK/plf/GD32VW55x_standard_peripheral/Source\gd32vw55x_dma.c ****       \arg        DMA_CHx (x=0..7)
 317:C:/Users/stapi/OneDrive/Desktop/GD32VW553/GD32VW55X_Wifi_BLE_SDK/GD32VW55x_RELEASE_V1.0.2/MSDK/plf/GD32VW55x_standard_peripheral/Source\gd32vw55x_dma.c ****     \param[out] none
 318:C:/Users/stapi/OneDrive/Desktop/GD32VW553/GD32VW55X_Wifi_BLE_SDK/GD32VW55x_RELEASE_V1.0.2/MSDK/plf/GD32VW55x_standard_peripheral/Source\gd32vw55x_dma.c ****     \retval     uint32_t: the number of remaining data to be transferred by the DMA
 319:C:/Users/stapi/OneDrive/Desktop/GD32VW553/GD32VW55X_Wifi_BLE_SDK/GD32VW55x_RELEASE_V1.0.2/MSDK/plf/GD32VW55x_standard_peripheral/Source\gd32vw55x_dma.c **** */
 320:C:/Users/stapi/OneDrive/Desktop/GD32VW553/GD32VW55X_Wifi_BLE_SDK/GD32VW55x_RELEASE_V1.0.2/MSDK/plf/GD32VW55x_standard_peripheral/Source\gd32vw55x_dma.c **** uint32_t dma_transfer_number_get(dma_channel_enum channelx)
 321:C:/Users/stapi/OneDrive/Desktop/GD32VW553/GD32VW55X_Wifi_BLE_SDK/GD32VW55x_RELEASE_V1.0.2/MSDK/plf/GD32VW55x_standard_peripheral/Source\gd32vw55x_dma.c **** {
 594              		.loc 1 321 1 is_stmt 1
 595              		.cfi_startproc
 596              	.LVL30:
 322:C:/Users/stapi/OneDrive/Desktop/GD32VW553/GD32VW55X_Wifi_BLE_SDK/GD32VW55x_RELEASE_V1.0.2/MSDK/plf/GD32VW55x_standard_peripheral/Source\gd32vw55x_dma.c ****     return (uint32_t)DMA_CHCNT(channelx);
 597              		.loc 1 322 5
 598              		.loc 1 322 22 is_stmt 0
 599 0000 B7670240 		li	a5,1073897472
 600 0004 6147     		li	a4,24
 601 0006 D107     		addi	a5,a5,20
 602 0008 FF17E5C4 		maddr32	a5, a0, a4
 603              		.loc 1 322 12
 604 000c 8843     		lw	a0,0(a5)
 605              	.LVL31:
 323:C:/Users/stapi/OneDrive/Desktop/GD32VW553/GD32VW55X_Wifi_BLE_SDK/GD32VW55x_RELEASE_V1.0.2/MSDK/plf/GD32VW55x_standard_peripheral/Source\gd32vw55x_dma.c **** }
 606              		.loc 1 323 1
 607 000e 8280     		ret
 608              		.cfi_endproc
 609              	.LFE373:
 611              		.section	.text.dma_priority_config,"ax",@progbits
 612              		.align	1
 613              		.globl	dma_priority_config
 615              	dma_priority_config:
 616              	.LFB374:
 324:C:/Users/stapi/OneDrive/Desktop/GD32VW553/GD32VW55X_Wifi_BLE_SDK/GD32VW55x_RELEASE_V1.0.2/MSDK/plf/GD32VW55x_standard_peripheral/Source\gd32vw55x_dma.c **** 
 325:C:/Users/stapi/OneDrive/Desktop/GD32VW553/GD32VW55X_Wifi_BLE_SDK/GD32VW55x_RELEASE_V1.0.2/MSDK/plf/GD32VW55x_standard_peripheral/Source\gd32vw55x_dma.c **** /*!
 326:C:/Users/stapi/OneDrive/Desktop/GD32VW553/GD32VW55X_Wifi_BLE_SDK/GD32VW55x_RELEASE_V1.0.2/MSDK/plf/GD32VW55x_standard_peripheral/Source\gd32vw55x_dma.c ****     \brief      configure priority level of DMA channel
 327:C:/Users/stapi/OneDrive/Desktop/GD32VW553/GD32VW55X_Wifi_BLE_SDK/GD32VW55x_RELEASE_V1.0.2/MSDK/plf/GD32VW55x_standard_peripheral/Source\gd32vw55x_dma.c ****     \param[in]  channelx: specify which DMA channel
 328:C:/Users/stapi/OneDrive/Desktop/GD32VW553/GD32VW55X_Wifi_BLE_SDK/GD32VW55x_RELEASE_V1.0.2/MSDK/plf/GD32VW55x_standard_peripheral/Source\gd32vw55x_dma.c ****       \arg        DMA_CHx (x=0..7)
 329:C:/Users/stapi/OneDrive/Desktop/GD32VW553/GD32VW55X_Wifi_BLE_SDK/GD32VW55x_RELEASE_V1.0.2/MSDK/plf/GD32VW55x_standard_peripheral/Source\gd32vw55x_dma.c ****     \param[in]  priority: priority Level of this channel
 330:C:/Users/stapi/OneDrive/Desktop/GD32VW553/GD32VW55X_Wifi_BLE_SDK/GD32VW55x_RELEASE_V1.0.2/MSDK/plf/GD32VW55x_standard_peripheral/Source\gd32vw55x_dma.c ****                 only one parameter can be selected which is shown as below:
 331:C:/Users/stapi/OneDrive/Desktop/GD32VW553/GD32VW55X_Wifi_BLE_SDK/GD32VW55x_RELEASE_V1.0.2/MSDK/plf/GD32VW55x_standard_peripheral/Source\gd32vw55x_dma.c ****       \arg        DMA_PRIORITY_LOW: low priority
 332:C:/Users/stapi/OneDrive/Desktop/GD32VW553/GD32VW55X_Wifi_BLE_SDK/GD32VW55x_RELEASE_V1.0.2/MSDK/plf/GD32VW55x_standard_peripheral/Source\gd32vw55x_dma.c ****       \arg        DMA_PRIORITY_MEDIUM: medium priority
 333:C:/Users/stapi/OneDrive/Desktop/GD32VW553/GD32VW55X_Wifi_BLE_SDK/GD32VW55x_RELEASE_V1.0.2/MSDK/plf/GD32VW55x_standard_peripheral/Source\gd32vw55x_dma.c ****       \arg        DMA_PRIORITY_HIGH: high priority
 334:C:/Users/stapi/OneDrive/Desktop/GD32VW553/GD32VW55X_Wifi_BLE_SDK/GD32VW55x_RELEASE_V1.0.2/MSDK/plf/GD32VW55x_standard_peripheral/Source\gd32vw55x_dma.c ****       \arg        DMA_PRIORITY_ULTRA_HIGH: ultra high priority
 335:C:/Users/stapi/OneDrive/Desktop/GD32VW553/GD32VW55X_Wifi_BLE_SDK/GD32VW55x_RELEASE_V1.0.2/MSDK/plf/GD32VW55x_standard_peripheral/Source\gd32vw55x_dma.c ****     \param[out] none
 336:C:/Users/stapi/OneDrive/Desktop/GD32VW553/GD32VW55X_Wifi_BLE_SDK/GD32VW55x_RELEASE_V1.0.2/MSDK/plf/GD32VW55x_standard_peripheral/Source\gd32vw55x_dma.c ****     \retval     none
 337:C:/Users/stapi/OneDrive/Desktop/GD32VW553/GD32VW55X_Wifi_BLE_SDK/GD32VW55x_RELEASE_V1.0.2/MSDK/plf/GD32VW55x_standard_peripheral/Source\gd32vw55x_dma.c **** */
 338:C:/Users/stapi/OneDrive/Desktop/GD32VW553/GD32VW55X_Wifi_BLE_SDK/GD32VW55x_RELEASE_V1.0.2/MSDK/plf/GD32VW55x_standard_peripheral/Source\gd32vw55x_dma.c **** void dma_priority_config(dma_channel_enum channelx, uint32_t priority)
 339:C:/Users/stapi/OneDrive/Desktop/GD32VW553/GD32VW55X_Wifi_BLE_SDK/GD32VW55x_RELEASE_V1.0.2/MSDK/plf/GD32VW55x_standard_peripheral/Source\gd32vw55x_dma.c **** {
 617              		.loc 1 339 1 is_stmt 1
 618              		.cfi_startproc
 619              	.LVL32:
 340:C:/Users/stapi/OneDrive/Desktop/GD32VW553/GD32VW55X_Wifi_BLE_SDK/GD32VW55x_RELEASE_V1.0.2/MSDK/plf/GD32VW55x_standard_peripheral/Source\gd32vw55x_dma.c ****     uint32_t ctl;
 620              		.loc 1 340 5
 341:C:/Users/stapi/OneDrive/Desktop/GD32VW553/GD32VW55X_Wifi_BLE_SDK/GD32VW55x_RELEASE_V1.0.2/MSDK/plf/GD32VW55x_standard_peripheral/Source\gd32vw55x_dma.c ****     /* acquire DMA_CHxCTL register */
 342:C:/Users/stapi/OneDrive/Desktop/GD32VW553/GD32VW55X_Wifi_BLE_SDK/GD32VW55x_RELEASE_V1.0.2/MSDK/plf/GD32VW55x_standard_peripheral/Source\gd32vw55x_dma.c ****     ctl = DMA_CHCTL(channelx);
 621              		.loc 1 342 5
 622              		.loc 1 342 11 is_stmt 0
 623 0000 B7670240 		li	a5,1073897472
 624 0004 6147     		li	a4,24
 625 0006 C107     		addi	a5,a5,16
 626 0008 FF17E5C4 		maddr32	a5, a0, a4
 627              		.loc 1 342 9
 628 000c 9843     		lw	a4,0(a5)
 629              	.LVL33:
 343:C:/Users/stapi/OneDrive/Desktop/GD32VW553/GD32VW55X_Wifi_BLE_SDK/GD32VW55x_RELEASE_V1.0.2/MSDK/plf/GD32VW55x_standard_peripheral/Source\gd32vw55x_dma.c ****     /* assign registers */
 344:C:/Users/stapi/OneDrive/Desktop/GD32VW553/GD32VW55X_Wifi_BLE_SDK/GD32VW55x_RELEASE_V1.0.2/MSDK/plf/GD32VW55x_standard_peripheral/Source\gd32vw55x_dma.c ****     ctl &= ~DMA_CHXCTL_PRIO;
 630              		.loc 1 344 5 is_stmt 1
 631              		.loc 1 344 9 is_stmt 0
 632 000e B706FDFF 		li	a3,-196608
 633 0012 FD16     		addi	a3,a3,-1
 634 0014 758F     		and	a4,a4,a3
 635              	.LVL34:
 345:C:/Users/stapi/OneDrive/Desktop/GD32VW553/GD32VW55X_Wifi_BLE_SDK/GD32VW55x_RELEASE_V1.0.2/MSDK/plf/GD32VW55x_standard_peripheral/Source\gd32vw55x_dma.c ****     ctl |= priority;
 636              		.loc 1 345 5 is_stmt 1
 637              		.loc 1 345 9 is_stmt 0
 638 0016 4D8F     		or	a4,a4,a1
 639              	.LVL35:
 346:C:/Users/stapi/OneDrive/Desktop/GD32VW553/GD32VW55X_Wifi_BLE_SDK/GD32VW55x_RELEASE_V1.0.2/MSDK/plf/GD32VW55x_standard_peripheral/Source\gd32vw55x_dma.c ****     DMA_CHCTL(channelx) = ctl;
 640              		.loc 1 346 5 is_stmt 1
 641              		.loc 1 346 25 is_stmt 0
 642 0018 98C3     		sw	a4,0(a5)
 347:C:/Users/stapi/OneDrive/Desktop/GD32VW553/GD32VW55X_Wifi_BLE_SDK/GD32VW55x_RELEASE_V1.0.2/MSDK/plf/GD32VW55x_standard_peripheral/Source\gd32vw55x_dma.c **** }
 643              		.loc 1 347 1
 644 001a 8280     		ret
 645              		.cfi_endproc
 646              	.LFE374:
 648              		.section	.text.dma_memory_burst_beats_config,"ax",@progbits
 649              		.align	1
 650              		.globl	dma_memory_burst_beats_config
 652              	dma_memory_burst_beats_config:
 653              	.LFB375:
 348:C:/Users/stapi/OneDrive/Desktop/GD32VW553/GD32VW55X_Wifi_BLE_SDK/GD32VW55x_RELEASE_V1.0.2/MSDK/plf/GD32VW55x_standard_peripheral/Source\gd32vw55x_dma.c **** 
 349:C:/Users/stapi/OneDrive/Desktop/GD32VW553/GD32VW55X_Wifi_BLE_SDK/GD32VW55x_RELEASE_V1.0.2/MSDK/plf/GD32VW55x_standard_peripheral/Source\gd32vw55x_dma.c **** /*!
 350:C:/Users/stapi/OneDrive/Desktop/GD32VW553/GD32VW55X_Wifi_BLE_SDK/GD32VW55x_RELEASE_V1.0.2/MSDK/plf/GD32VW55x_standard_peripheral/Source\gd32vw55x_dma.c ****     \brief      configure transfer burst beats of memory
 351:C:/Users/stapi/OneDrive/Desktop/GD32VW553/GD32VW55X_Wifi_BLE_SDK/GD32VW55x_RELEASE_V1.0.2/MSDK/plf/GD32VW55x_standard_peripheral/Source\gd32vw55x_dma.c ****     \param[in]  channelx: specify which DMA channel
 352:C:/Users/stapi/OneDrive/Desktop/GD32VW553/GD32VW55X_Wifi_BLE_SDK/GD32VW55x_RELEASE_V1.0.2/MSDK/plf/GD32VW55x_standard_peripheral/Source\gd32vw55x_dma.c ****       \arg        DMA_CHx (x=0..7)
 353:C:/Users/stapi/OneDrive/Desktop/GD32VW553/GD32VW55X_Wifi_BLE_SDK/GD32VW55x_RELEASE_V1.0.2/MSDK/plf/GD32VW55x_standard_peripheral/Source\gd32vw55x_dma.c ****     \param[in]  mbeat: transfer burst beats
 354:C:/Users/stapi/OneDrive/Desktop/GD32VW553/GD32VW55X_Wifi_BLE_SDK/GD32VW55x_RELEASE_V1.0.2/MSDK/plf/GD32VW55x_standard_peripheral/Source\gd32vw55x_dma.c ****       \arg        DMA_MEMORY_BURST_SINGLE: memory transfer single burst
 355:C:/Users/stapi/OneDrive/Desktop/GD32VW553/GD32VW55X_Wifi_BLE_SDK/GD32VW55x_RELEASE_V1.0.2/MSDK/plf/GD32VW55x_standard_peripheral/Source\gd32vw55x_dma.c ****       \arg        DMA_MEMORY_BURST_4_BEAT: memory transfer 4-beat burst
 356:C:/Users/stapi/OneDrive/Desktop/GD32VW553/GD32VW55X_Wifi_BLE_SDK/GD32VW55x_RELEASE_V1.0.2/MSDK/plf/GD32VW55x_standard_peripheral/Source\gd32vw55x_dma.c ****       \arg        DMA_MEMORY_BURST_8_BEAT: memory transfer 8-beat burst
 357:C:/Users/stapi/OneDrive/Desktop/GD32VW553/GD32VW55X_Wifi_BLE_SDK/GD32VW55x_RELEASE_V1.0.2/MSDK/plf/GD32VW55x_standard_peripheral/Source\gd32vw55x_dma.c ****       \arg        DMA_MEMORY_BURST_16_BEAT: memory transfer 16-beat burst
 358:C:/Users/stapi/OneDrive/Desktop/GD32VW553/GD32VW55X_Wifi_BLE_SDK/GD32VW55x_RELEASE_V1.0.2/MSDK/plf/GD32VW55x_standard_peripheral/Source\gd32vw55x_dma.c ****     \param[out] none
 359:C:/Users/stapi/OneDrive/Desktop/GD32VW553/GD32VW55X_Wifi_BLE_SDK/GD32VW55x_RELEASE_V1.0.2/MSDK/plf/GD32VW55x_standard_peripheral/Source\gd32vw55x_dma.c ****     \retval     none
 360:C:/Users/stapi/OneDrive/Desktop/GD32VW553/GD32VW55X_Wifi_BLE_SDK/GD32VW55x_RELEASE_V1.0.2/MSDK/plf/GD32VW55x_standard_peripheral/Source\gd32vw55x_dma.c **** */
 361:C:/Users/stapi/OneDrive/Desktop/GD32VW553/GD32VW55X_Wifi_BLE_SDK/GD32VW55x_RELEASE_V1.0.2/MSDK/plf/GD32VW55x_standard_peripheral/Source\gd32vw55x_dma.c **** void dma_memory_burst_beats_config(dma_channel_enum channelx, uint32_t mbeat)
 362:C:/Users/stapi/OneDrive/Desktop/GD32VW553/GD32VW55X_Wifi_BLE_SDK/GD32VW55x_RELEASE_V1.0.2/MSDK/plf/GD32VW55x_standard_peripheral/Source\gd32vw55x_dma.c **** {
 654              		.loc 1 362 1 is_stmt 1
 655              		.cfi_startproc
 656              	.LVL36:
 363:C:/Users/stapi/OneDrive/Desktop/GD32VW553/GD32VW55X_Wifi_BLE_SDK/GD32VW55x_RELEASE_V1.0.2/MSDK/plf/GD32VW55x_standard_peripheral/Source\gd32vw55x_dma.c ****     uint32_t ctl;
 657              		.loc 1 363 5
 364:C:/Users/stapi/OneDrive/Desktop/GD32VW553/GD32VW55X_Wifi_BLE_SDK/GD32VW55x_RELEASE_V1.0.2/MSDK/plf/GD32VW55x_standard_peripheral/Source\gd32vw55x_dma.c ****     /* acquire DMA_CHxCTL register */
 365:C:/Users/stapi/OneDrive/Desktop/GD32VW553/GD32VW55X_Wifi_BLE_SDK/GD32VW55x_RELEASE_V1.0.2/MSDK/plf/GD32VW55x_standard_peripheral/Source\gd32vw55x_dma.c ****     ctl = DMA_CHCTL(channelx);
 658              		.loc 1 365 5
 659              		.loc 1 365 11 is_stmt 0
 660 0000 B7670240 		li	a5,1073897472
 661 0004 6147     		li	a4,24
 662 0006 C107     		addi	a5,a5,16
 663 0008 FF17E5C4 		maddr32	a5, a0, a4
 664              		.loc 1 365 9
 665 000c 9843     		lw	a4,0(a5)
 666              	.LVL37:
 366:C:/Users/stapi/OneDrive/Desktop/GD32VW553/GD32VW55X_Wifi_BLE_SDK/GD32VW55x_RELEASE_V1.0.2/MSDK/plf/GD32VW55x_standard_peripheral/Source\gd32vw55x_dma.c ****     /* assign registers */
 367:C:/Users/stapi/OneDrive/Desktop/GD32VW553/GD32VW55X_Wifi_BLE_SDK/GD32VW55x_RELEASE_V1.0.2/MSDK/plf/GD32VW55x_standard_peripheral/Source\gd32vw55x_dma.c ****     ctl &= ~DMA_CHXCTL_MBURST;
 667              		.loc 1 367 5 is_stmt 1
 668              		.loc 1 367 9 is_stmt 0
 669 000e B70680FE 		li	a3,-25165824
 670 0012 FD16     		addi	a3,a3,-1
 671 0014 758F     		and	a4,a4,a3
 672              	.LVL38:
 368:C:/Users/stapi/OneDrive/Desktop/GD32VW553/GD32VW55X_Wifi_BLE_SDK/GD32VW55x_RELEASE_V1.0.2/MSDK/plf/GD32VW55x_standard_peripheral/Source\gd32vw55x_dma.c ****     ctl |= mbeat;
 673              		.loc 1 368 5 is_stmt 1
 674              		.loc 1 368 9 is_stmt 0
 675 0016 4D8F     		or	a4,a4,a1
 676              	.LVL39:
 369:C:/Users/stapi/OneDrive/Desktop/GD32VW553/GD32VW55X_Wifi_BLE_SDK/GD32VW55x_RELEASE_V1.0.2/MSDK/plf/GD32VW55x_standard_peripheral/Source\gd32vw55x_dma.c ****     DMA_CHCTL(channelx) = ctl;
 677              		.loc 1 369 5 is_stmt 1
 678              		.loc 1 369 25 is_stmt 0
 679 0018 98C3     		sw	a4,0(a5)
 370:C:/Users/stapi/OneDrive/Desktop/GD32VW553/GD32VW55X_Wifi_BLE_SDK/GD32VW55x_RELEASE_V1.0.2/MSDK/plf/GD32VW55x_standard_peripheral/Source\gd32vw55x_dma.c **** }
 680              		.loc 1 370 1
 681 001a 8280     		ret
 682              		.cfi_endproc
 683              	.LFE375:
 685              		.section	.text.dma_periph_burst_beats_config,"ax",@progbits
 686              		.align	1
 687              		.globl	dma_periph_burst_beats_config
 689              	dma_periph_burst_beats_config:
 690              	.LFB376:
 371:C:/Users/stapi/OneDrive/Desktop/GD32VW553/GD32VW55X_Wifi_BLE_SDK/GD32VW55x_RELEASE_V1.0.2/MSDK/plf/GD32VW55x_standard_peripheral/Source\gd32vw55x_dma.c **** 
 372:C:/Users/stapi/OneDrive/Desktop/GD32VW553/GD32VW55X_Wifi_BLE_SDK/GD32VW55x_RELEASE_V1.0.2/MSDK/plf/GD32VW55x_standard_peripheral/Source\gd32vw55x_dma.c **** /*!
 373:C:/Users/stapi/OneDrive/Desktop/GD32VW553/GD32VW55X_Wifi_BLE_SDK/GD32VW55x_RELEASE_V1.0.2/MSDK/plf/GD32VW55x_standard_peripheral/Source\gd32vw55x_dma.c ****     \brief      configure transfer burst beats of peripheral
 374:C:/Users/stapi/OneDrive/Desktop/GD32VW553/GD32VW55X_Wifi_BLE_SDK/GD32VW55x_RELEASE_V1.0.2/MSDK/plf/GD32VW55x_standard_peripheral/Source\gd32vw55x_dma.c ****     \param[in]  channelx: specify which DMA channel
 375:C:/Users/stapi/OneDrive/Desktop/GD32VW553/GD32VW55X_Wifi_BLE_SDK/GD32VW55x_RELEASE_V1.0.2/MSDK/plf/GD32VW55x_standard_peripheral/Source\gd32vw55x_dma.c ****       \arg        DMA_CHx (x=0..7)
 376:C:/Users/stapi/OneDrive/Desktop/GD32VW553/GD32VW55X_Wifi_BLE_SDK/GD32VW55x_RELEASE_V1.0.2/MSDK/plf/GD32VW55x_standard_peripheral/Source\gd32vw55x_dma.c ****     \param[in]  pbeat: transfer burst beats
 377:C:/Users/stapi/OneDrive/Desktop/GD32VW553/GD32VW55X_Wifi_BLE_SDK/GD32VW55x_RELEASE_V1.0.2/MSDK/plf/GD32VW55x_standard_peripheral/Source\gd32vw55x_dma.c ****                 only one parameter can be selected which is shown as below:
 378:C:/Users/stapi/OneDrive/Desktop/GD32VW553/GD32VW55X_Wifi_BLE_SDK/GD32VW55x_RELEASE_V1.0.2/MSDK/plf/GD32VW55x_standard_peripheral/Source\gd32vw55x_dma.c ****       \arg        DMA_PERIPH_BURST_SINGLE: peripheral transfer single burst
 379:C:/Users/stapi/OneDrive/Desktop/GD32VW553/GD32VW55X_Wifi_BLE_SDK/GD32VW55x_RELEASE_V1.0.2/MSDK/plf/GD32VW55x_standard_peripheral/Source\gd32vw55x_dma.c ****       \arg        DMA_PERIPH_BURST_4_BEAT: peripheral transfer 4-beat burst
 380:C:/Users/stapi/OneDrive/Desktop/GD32VW553/GD32VW55X_Wifi_BLE_SDK/GD32VW55x_RELEASE_V1.0.2/MSDK/plf/GD32VW55x_standard_peripheral/Source\gd32vw55x_dma.c ****       \arg        DMA_PERIPH_BURST_8_BEAT: peripheral transfer 8-beat burst
 381:C:/Users/stapi/OneDrive/Desktop/GD32VW553/GD32VW55X_Wifi_BLE_SDK/GD32VW55x_RELEASE_V1.0.2/MSDK/plf/GD32VW55x_standard_peripheral/Source\gd32vw55x_dma.c ****       \arg        DMA_PERIPH_BURST_16_BEAT: peripheral transfer 16-beat burst
 382:C:/Users/stapi/OneDrive/Desktop/GD32VW553/GD32VW55X_Wifi_BLE_SDK/GD32VW55x_RELEASE_V1.0.2/MSDK/plf/GD32VW55x_standard_peripheral/Source\gd32vw55x_dma.c ****     \param[out] none
 383:C:/Users/stapi/OneDrive/Desktop/GD32VW553/GD32VW55X_Wifi_BLE_SDK/GD32VW55x_RELEASE_V1.0.2/MSDK/plf/GD32VW55x_standard_peripheral/Source\gd32vw55x_dma.c ****     \retval     none
 384:C:/Users/stapi/OneDrive/Desktop/GD32VW553/GD32VW55X_Wifi_BLE_SDK/GD32VW55x_RELEASE_V1.0.2/MSDK/plf/GD32VW55x_standard_peripheral/Source\gd32vw55x_dma.c **** */
 385:C:/Users/stapi/OneDrive/Desktop/GD32VW553/GD32VW55X_Wifi_BLE_SDK/GD32VW55x_RELEASE_V1.0.2/MSDK/plf/GD32VW55x_standard_peripheral/Source\gd32vw55x_dma.c **** void dma_periph_burst_beats_config (dma_channel_enum channelx, uint32_t pbeat)
 386:C:/Users/stapi/OneDrive/Desktop/GD32VW553/GD32VW55X_Wifi_BLE_SDK/GD32VW55x_RELEASE_V1.0.2/MSDK/plf/GD32VW55x_standard_peripheral/Source\gd32vw55x_dma.c **** {
 691              		.loc 1 386 1 is_stmt 1
 692              		.cfi_startproc
 693              	.LVL40:
 387:C:/Users/stapi/OneDrive/Desktop/GD32VW553/GD32VW55X_Wifi_BLE_SDK/GD32VW55x_RELEASE_V1.0.2/MSDK/plf/GD32VW55x_standard_peripheral/Source\gd32vw55x_dma.c ****     uint32_t ctl;
 694              		.loc 1 387 5
 388:C:/Users/stapi/OneDrive/Desktop/GD32VW553/GD32VW55X_Wifi_BLE_SDK/GD32VW55x_RELEASE_V1.0.2/MSDK/plf/GD32VW55x_standard_peripheral/Source\gd32vw55x_dma.c ****     /* acquire DMA_CHxCTL register */
 389:C:/Users/stapi/OneDrive/Desktop/GD32VW553/GD32VW55X_Wifi_BLE_SDK/GD32VW55x_RELEASE_V1.0.2/MSDK/plf/GD32VW55x_standard_peripheral/Source\gd32vw55x_dma.c ****     ctl = DMA_CHCTL(channelx);
 695              		.loc 1 389 5
 696              		.loc 1 389 11 is_stmt 0
 697 0000 B7670240 		li	a5,1073897472
 698 0004 6147     		li	a4,24
 699 0006 C107     		addi	a5,a5,16
 700 0008 FF17E5C4 		maddr32	a5, a0, a4
 701              		.loc 1 389 9
 702 000c 9843     		lw	a4,0(a5)
 703              	.LVL41:
 390:C:/Users/stapi/OneDrive/Desktop/GD32VW553/GD32VW55X_Wifi_BLE_SDK/GD32VW55x_RELEASE_V1.0.2/MSDK/plf/GD32VW55x_standard_peripheral/Source\gd32vw55x_dma.c ****     /* assign registers */
 391:C:/Users/stapi/OneDrive/Desktop/GD32VW553/GD32VW55X_Wifi_BLE_SDK/GD32VW55x_RELEASE_V1.0.2/MSDK/plf/GD32VW55x_standard_peripheral/Source\gd32vw55x_dma.c ****     ctl &= ~DMA_CHXCTL_PBURST;
 704              		.loc 1 391 5 is_stmt 1
 705              		.loc 1 391 9 is_stmt 0
 706 000e B706A0FF 		li	a3,-6291456
 707 0012 FD16     		addi	a3,a3,-1
 708 0014 758F     		and	a4,a4,a3
 709              	.LVL42:
 392:C:/Users/stapi/OneDrive/Desktop/GD32VW553/GD32VW55X_Wifi_BLE_SDK/GD32VW55x_RELEASE_V1.0.2/MSDK/plf/GD32VW55x_standard_peripheral/Source\gd32vw55x_dma.c ****     ctl |= pbeat;
 710              		.loc 1 392 5 is_stmt 1
 711              		.loc 1 392 9 is_stmt 0
 712 0016 4D8F     		or	a4,a4,a1
 713              	.LVL43:
 393:C:/Users/stapi/OneDrive/Desktop/GD32VW553/GD32VW55X_Wifi_BLE_SDK/GD32VW55x_RELEASE_V1.0.2/MSDK/plf/GD32VW55x_standard_peripheral/Source\gd32vw55x_dma.c ****     DMA_CHCTL(channelx) = ctl;
 714              		.loc 1 393 5 is_stmt 1
 715              		.loc 1 393 25 is_stmt 0
 716 0018 98C3     		sw	a4,0(a5)
 394:C:/Users/stapi/OneDrive/Desktop/GD32VW553/GD32VW55X_Wifi_BLE_SDK/GD32VW55x_RELEASE_V1.0.2/MSDK/plf/GD32VW55x_standard_peripheral/Source\gd32vw55x_dma.c **** }
 717              		.loc 1 394 1
 718 001a 8280     		ret
 719              		.cfi_endproc
 720              	.LFE376:
 722              		.section	.text.dma_memory_width_config,"ax",@progbits
 723              		.align	1
 724              		.globl	dma_memory_width_config
 726              	dma_memory_width_config:
 727              	.LFB377:
 395:C:/Users/stapi/OneDrive/Desktop/GD32VW553/GD32VW55X_Wifi_BLE_SDK/GD32VW55x_RELEASE_V1.0.2/MSDK/plf/GD32VW55x_standard_peripheral/Source\gd32vw55x_dma.c **** 
 396:C:/Users/stapi/OneDrive/Desktop/GD32VW553/GD32VW55X_Wifi_BLE_SDK/GD32VW55x_RELEASE_V1.0.2/MSDK/plf/GD32VW55x_standard_peripheral/Source\gd32vw55x_dma.c **** /*!
 397:C:/Users/stapi/OneDrive/Desktop/GD32VW553/GD32VW55X_Wifi_BLE_SDK/GD32VW55x_RELEASE_V1.0.2/MSDK/plf/GD32VW55x_standard_peripheral/Source\gd32vw55x_dma.c ****     \brief      configure transfer data size of memory
 398:C:/Users/stapi/OneDrive/Desktop/GD32VW553/GD32VW55X_Wifi_BLE_SDK/GD32VW55x_RELEASE_V1.0.2/MSDK/plf/GD32VW55x_standard_peripheral/Source\gd32vw55x_dma.c ****     \param[in]  channelx: specify which DMA channel
 399:C:/Users/stapi/OneDrive/Desktop/GD32VW553/GD32VW55X_Wifi_BLE_SDK/GD32VW55x_RELEASE_V1.0.2/MSDK/plf/GD32VW55x_standard_peripheral/Source\gd32vw55x_dma.c ****       \arg        DMA_CHx (x=0..7)
 400:C:/Users/stapi/OneDrive/Desktop/GD32VW553/GD32VW55X_Wifi_BLE_SDK/GD32VW55x_RELEASE_V1.0.2/MSDK/plf/GD32VW55x_standard_peripheral/Source\gd32vw55x_dma.c ****     \param[in]  msize: transfer data size of memory
 401:C:/Users/stapi/OneDrive/Desktop/GD32VW553/GD32VW55X_Wifi_BLE_SDK/GD32VW55x_RELEASE_V1.0.2/MSDK/plf/GD32VW55x_standard_peripheral/Source\gd32vw55x_dma.c ****                 only one parameter can be selected which is shown as below:
 402:C:/Users/stapi/OneDrive/Desktop/GD32VW553/GD32VW55X_Wifi_BLE_SDK/GD32VW55x_RELEASE_V1.0.2/MSDK/plf/GD32VW55x_standard_peripheral/Source\gd32vw55x_dma.c ****       \arg        DMA_MEMORY_WIDTH_8BIT: transfer data size of memory is 8-bit
 403:C:/Users/stapi/OneDrive/Desktop/GD32VW553/GD32VW55X_Wifi_BLE_SDK/GD32VW55x_RELEASE_V1.0.2/MSDK/plf/GD32VW55x_standard_peripheral/Source\gd32vw55x_dma.c ****       \arg        DMA_MEMORY_WIDTH_16BIT: transfer data size of memory is 16-bit
 404:C:/Users/stapi/OneDrive/Desktop/GD32VW553/GD32VW55X_Wifi_BLE_SDK/GD32VW55x_RELEASE_V1.0.2/MSDK/plf/GD32VW55x_standard_peripheral/Source\gd32vw55x_dma.c ****       \arg        DMA_MEMORY_WIDTH_32BIT: transfer data size of memory is 32-bit
 405:C:/Users/stapi/OneDrive/Desktop/GD32VW553/GD32VW55X_Wifi_BLE_SDK/GD32VW55x_RELEASE_V1.0.2/MSDK/plf/GD32VW55x_standard_peripheral/Source\gd32vw55x_dma.c ****     \param[out] none
 406:C:/Users/stapi/OneDrive/Desktop/GD32VW553/GD32VW55X_Wifi_BLE_SDK/GD32VW55x_RELEASE_V1.0.2/MSDK/plf/GD32VW55x_standard_peripheral/Source\gd32vw55x_dma.c ****     \retval     none
 407:C:/Users/stapi/OneDrive/Desktop/GD32VW553/GD32VW55X_Wifi_BLE_SDK/GD32VW55x_RELEASE_V1.0.2/MSDK/plf/GD32VW55x_standard_peripheral/Source\gd32vw55x_dma.c **** */
 408:C:/Users/stapi/OneDrive/Desktop/GD32VW553/GD32VW55X_Wifi_BLE_SDK/GD32VW55x_RELEASE_V1.0.2/MSDK/plf/GD32VW55x_standard_peripheral/Source\gd32vw55x_dma.c **** void dma_memory_width_config(dma_channel_enum channelx, uint32_t msize)
 409:C:/Users/stapi/OneDrive/Desktop/GD32VW553/GD32VW55X_Wifi_BLE_SDK/GD32VW55x_RELEASE_V1.0.2/MSDK/plf/GD32VW55x_standard_peripheral/Source\gd32vw55x_dma.c **** {
 728              		.loc 1 409 1 is_stmt 1
 729              		.cfi_startproc
 730              	.LVL44:
 410:C:/Users/stapi/OneDrive/Desktop/GD32VW553/GD32VW55X_Wifi_BLE_SDK/GD32VW55x_RELEASE_V1.0.2/MSDK/plf/GD32VW55x_standard_peripheral/Source\gd32vw55x_dma.c ****     uint32_t ctl;
 731              		.loc 1 410 5
 411:C:/Users/stapi/OneDrive/Desktop/GD32VW553/GD32VW55X_Wifi_BLE_SDK/GD32VW55x_RELEASE_V1.0.2/MSDK/plf/GD32VW55x_standard_peripheral/Source\gd32vw55x_dma.c ****     /* acquire DMA_CHxCTL register */
 412:C:/Users/stapi/OneDrive/Desktop/GD32VW553/GD32VW55X_Wifi_BLE_SDK/GD32VW55x_RELEASE_V1.0.2/MSDK/plf/GD32VW55x_standard_peripheral/Source\gd32vw55x_dma.c ****     ctl = DMA_CHCTL(channelx);
 732              		.loc 1 412 5
 733              		.loc 1 412 11 is_stmt 0
 734 0000 B7670240 		li	a5,1073897472
 735 0004 6147     		li	a4,24
 736 0006 C107     		addi	a5,a5,16
 737 0008 FF17E5C4 		maddr32	a5, a0, a4
 738              		.loc 1 412 9
 739 000c 9843     		lw	a4,0(a5)
 740              	.LVL45:
 413:C:/Users/stapi/OneDrive/Desktop/GD32VW553/GD32VW55X_Wifi_BLE_SDK/GD32VW55x_RELEASE_V1.0.2/MSDK/plf/GD32VW55x_standard_peripheral/Source\gd32vw55x_dma.c ****     /* assign registers */
 414:C:/Users/stapi/OneDrive/Desktop/GD32VW553/GD32VW55X_Wifi_BLE_SDK/GD32VW55x_RELEASE_V1.0.2/MSDK/plf/GD32VW55x_standard_peripheral/Source\gd32vw55x_dma.c ****     ctl &= ~DMA_CHXCTL_MWIDTH;
 741              		.loc 1 414 5 is_stmt 1
 742              		.loc 1 414 9 is_stmt 0
 743 000e E976     		li	a3,-24576
 744 0010 FD16     		addi	a3,a3,-1
 745 0012 758F     		and	a4,a4,a3
 746              	.LVL46:
 415:C:/Users/stapi/OneDrive/Desktop/GD32VW553/GD32VW55X_Wifi_BLE_SDK/GD32VW55x_RELEASE_V1.0.2/MSDK/plf/GD32VW55x_standard_peripheral/Source\gd32vw55x_dma.c ****     ctl |= msize;
 747              		.loc 1 415 5 is_stmt 1
 748              		.loc 1 415 9 is_stmt 0
 749 0014 4D8F     		or	a4,a4,a1
 750              	.LVL47:
 416:C:/Users/stapi/OneDrive/Desktop/GD32VW553/GD32VW55X_Wifi_BLE_SDK/GD32VW55x_RELEASE_V1.0.2/MSDK/plf/GD32VW55x_standard_peripheral/Source\gd32vw55x_dma.c ****     DMA_CHCTL(channelx) = ctl;
 751              		.loc 1 416 5 is_stmt 1
 752              		.loc 1 416 25 is_stmt 0
 753 0016 98C3     		sw	a4,0(a5)
 417:C:/Users/stapi/OneDrive/Desktop/GD32VW553/GD32VW55X_Wifi_BLE_SDK/GD32VW55x_RELEASE_V1.0.2/MSDK/plf/GD32VW55x_standard_peripheral/Source\gd32vw55x_dma.c **** }
 754              		.loc 1 417 1
 755 0018 8280     		ret
 756              		.cfi_endproc
 757              	.LFE377:
 759              		.section	.text.dma_periph_width_config,"ax",@progbits
 760              		.align	1
 761              		.globl	dma_periph_width_config
 763              	dma_periph_width_config:
 764              	.LFB378:
 418:C:/Users/stapi/OneDrive/Desktop/GD32VW553/GD32VW55X_Wifi_BLE_SDK/GD32VW55x_RELEASE_V1.0.2/MSDK/plf/GD32VW55x_standard_peripheral/Source\gd32vw55x_dma.c **** 
 419:C:/Users/stapi/OneDrive/Desktop/GD32VW553/GD32VW55X_Wifi_BLE_SDK/GD32VW55x_RELEASE_V1.0.2/MSDK/plf/GD32VW55x_standard_peripheral/Source\gd32vw55x_dma.c **** /*!
 420:C:/Users/stapi/OneDrive/Desktop/GD32VW553/GD32VW55X_Wifi_BLE_SDK/GD32VW55x_RELEASE_V1.0.2/MSDK/plf/GD32VW55x_standard_peripheral/Source\gd32vw55x_dma.c ****     \brief      configure transfer data size of peripheral
 421:C:/Users/stapi/OneDrive/Desktop/GD32VW553/GD32VW55X_Wifi_BLE_SDK/GD32VW55x_RELEASE_V1.0.2/MSDK/plf/GD32VW55x_standard_peripheral/Source\gd32vw55x_dma.c ****     \param[in]  channelx: specify which DMA channel
 422:C:/Users/stapi/OneDrive/Desktop/GD32VW553/GD32VW55X_Wifi_BLE_SDK/GD32VW55x_RELEASE_V1.0.2/MSDK/plf/GD32VW55x_standard_peripheral/Source\gd32vw55x_dma.c ****       \arg        DMA_CHx (x=0..7)
 423:C:/Users/stapi/OneDrive/Desktop/GD32VW553/GD32VW55X_Wifi_BLE_SDK/GD32VW55x_RELEASE_V1.0.2/MSDK/plf/GD32VW55x_standard_peripheral/Source\gd32vw55x_dma.c ****     \param[in]  msize: transfer data size of peripheral
 424:C:/Users/stapi/OneDrive/Desktop/GD32VW553/GD32VW55X_Wifi_BLE_SDK/GD32VW55x_RELEASE_V1.0.2/MSDK/plf/GD32VW55x_standard_peripheral/Source\gd32vw55x_dma.c ****                 only one parameter can be selected which is shown as below:
 425:C:/Users/stapi/OneDrive/Desktop/GD32VW553/GD32VW55X_Wifi_BLE_SDK/GD32VW55x_RELEASE_V1.0.2/MSDK/plf/GD32VW55x_standard_peripheral/Source\gd32vw55x_dma.c ****       \arg        DMA_PERIPHERAL_WIDTH_8BIT: transfer data size of peripheral is 8-bit
 426:C:/Users/stapi/OneDrive/Desktop/GD32VW553/GD32VW55X_Wifi_BLE_SDK/GD32VW55x_RELEASE_V1.0.2/MSDK/plf/GD32VW55x_standard_peripheral/Source\gd32vw55x_dma.c ****       \arg        DMA_PERIPHERAL_WIDTH_16BIT: transfer data size of peripheral is 16-bit
 427:C:/Users/stapi/OneDrive/Desktop/GD32VW553/GD32VW55X_Wifi_BLE_SDK/GD32VW55x_RELEASE_V1.0.2/MSDK/plf/GD32VW55x_standard_peripheral/Source\gd32vw55x_dma.c ****       \arg        DMA_PERIPHERAL_WIDTH_32BIT: transfer data size of peripheral is 32-bit
 428:C:/Users/stapi/OneDrive/Desktop/GD32VW553/GD32VW55X_Wifi_BLE_SDK/GD32VW55x_RELEASE_V1.0.2/MSDK/plf/GD32VW55x_standard_peripheral/Source\gd32vw55x_dma.c ****     \param[out] none
 429:C:/Users/stapi/OneDrive/Desktop/GD32VW553/GD32VW55X_Wifi_BLE_SDK/GD32VW55x_RELEASE_V1.0.2/MSDK/plf/GD32VW55x_standard_peripheral/Source\gd32vw55x_dma.c ****     \retval     none
 430:C:/Users/stapi/OneDrive/Desktop/GD32VW553/GD32VW55X_Wifi_BLE_SDK/GD32VW55x_RELEASE_V1.0.2/MSDK/plf/GD32VW55x_standard_peripheral/Source\gd32vw55x_dma.c **** */
 431:C:/Users/stapi/OneDrive/Desktop/GD32VW553/GD32VW55X_Wifi_BLE_SDK/GD32VW55x_RELEASE_V1.0.2/MSDK/plf/GD32VW55x_standard_peripheral/Source\gd32vw55x_dma.c **** void dma_periph_width_config (dma_channel_enum channelx, uint32_t psize)
 432:C:/Users/stapi/OneDrive/Desktop/GD32VW553/GD32VW55X_Wifi_BLE_SDK/GD32VW55x_RELEASE_V1.0.2/MSDK/plf/GD32VW55x_standard_peripheral/Source\gd32vw55x_dma.c **** {
 765              		.loc 1 432 1 is_stmt 1
 766              		.cfi_startproc
 767              	.LVL48:
 433:C:/Users/stapi/OneDrive/Desktop/GD32VW553/GD32VW55X_Wifi_BLE_SDK/GD32VW55x_RELEASE_V1.0.2/MSDK/plf/GD32VW55x_standard_peripheral/Source\gd32vw55x_dma.c ****     uint32_t ctl;
 768              		.loc 1 433 5
 434:C:/Users/stapi/OneDrive/Desktop/GD32VW553/GD32VW55X_Wifi_BLE_SDK/GD32VW55x_RELEASE_V1.0.2/MSDK/plf/GD32VW55x_standard_peripheral/Source\gd32vw55x_dma.c ****     /* acquire DMA_CHxCTL register */
 435:C:/Users/stapi/OneDrive/Desktop/GD32VW553/GD32VW55X_Wifi_BLE_SDK/GD32VW55x_RELEASE_V1.0.2/MSDK/plf/GD32VW55x_standard_peripheral/Source\gd32vw55x_dma.c ****     ctl = DMA_CHCTL(channelx);
 769              		.loc 1 435 5
 770              		.loc 1 435 11 is_stmt 0
 771 0000 B7670240 		li	a5,1073897472
 772 0004 6147     		li	a4,24
 773 0006 C107     		addi	a5,a5,16
 774 0008 FF17E5C4 		maddr32	a5, a0, a4
 775              		.loc 1 435 9
 776 000c 9843     		lw	a4,0(a5)
 777              	.LVL49:
 436:C:/Users/stapi/OneDrive/Desktop/GD32VW553/GD32VW55X_Wifi_BLE_SDK/GD32VW55x_RELEASE_V1.0.2/MSDK/plf/GD32VW55x_standard_peripheral/Source\gd32vw55x_dma.c ****     /* assign registers */
 437:C:/Users/stapi/OneDrive/Desktop/GD32VW553/GD32VW55X_Wifi_BLE_SDK/GD32VW55x_RELEASE_V1.0.2/MSDK/plf/GD32VW55x_standard_peripheral/Source\gd32vw55x_dma.c ****     ctl &= ~DMA_CHXCTL_PWIDTH;
 778              		.loc 1 437 5 is_stmt 1
 779              		.loc 1 437 9 is_stmt 0
 780 000e F976     		li	a3,-8192
 781 0010 9386F67F 		addi	a3,a3,2047
 782 0014 758F     		and	a4,a4,a3
 783              	.LVL50:
 438:C:/Users/stapi/OneDrive/Desktop/GD32VW553/GD32VW55X_Wifi_BLE_SDK/GD32VW55x_RELEASE_V1.0.2/MSDK/plf/GD32VW55x_standard_peripheral/Source\gd32vw55x_dma.c ****     ctl |= psize;
 784              		.loc 1 438 5 is_stmt 1
 785              		.loc 1 438 9 is_stmt 0
 786 0016 4D8F     		or	a4,a4,a1
 787              	.LVL51:
 439:C:/Users/stapi/OneDrive/Desktop/GD32VW553/GD32VW55X_Wifi_BLE_SDK/GD32VW55x_RELEASE_V1.0.2/MSDK/plf/GD32VW55x_standard_peripheral/Source\gd32vw55x_dma.c ****     DMA_CHCTL(channelx) = ctl;
 788              		.loc 1 439 5 is_stmt 1
 789              		.loc 1 439 25 is_stmt 0
 790 0018 98C3     		sw	a4,0(a5)
 440:C:/Users/stapi/OneDrive/Desktop/GD32VW553/GD32VW55X_Wifi_BLE_SDK/GD32VW55x_RELEASE_V1.0.2/MSDK/plf/GD32VW55x_standard_peripheral/Source\gd32vw55x_dma.c **** }
 791              		.loc 1 440 1
 792 001a 8280     		ret
 793              		.cfi_endproc
 794              	.LFE378:
 796              		.section	.text.dma_memory_address_generation_config,"ax",@progbits
 797              		.align	1
 798              		.globl	dma_memory_address_generation_config
 800              	dma_memory_address_generation_config:
 801              	.LFB379:
 441:C:/Users/stapi/OneDrive/Desktop/GD32VW553/GD32VW55X_Wifi_BLE_SDK/GD32VW55x_RELEASE_V1.0.2/MSDK/plf/GD32VW55x_standard_peripheral/Source\gd32vw55x_dma.c **** 
 442:C:/Users/stapi/OneDrive/Desktop/GD32VW553/GD32VW55X_Wifi_BLE_SDK/GD32VW55x_RELEASE_V1.0.2/MSDK/plf/GD32VW55x_standard_peripheral/Source\gd32vw55x_dma.c **** /*!
 443:C:/Users/stapi/OneDrive/Desktop/GD32VW553/GD32VW55X_Wifi_BLE_SDK/GD32VW55x_RELEASE_V1.0.2/MSDK/plf/GD32VW55x_standard_peripheral/Source\gd32vw55x_dma.c ****     \brief      configure memory address generation algorithm
 444:C:/Users/stapi/OneDrive/Desktop/GD32VW553/GD32VW55X_Wifi_BLE_SDK/GD32VW55x_RELEASE_V1.0.2/MSDK/plf/GD32VW55x_standard_peripheral/Source\gd32vw55x_dma.c ****     \param[in]  channelx: specify which DMA channel
 445:C:/Users/stapi/OneDrive/Desktop/GD32VW553/GD32VW55X_Wifi_BLE_SDK/GD32VW55x_RELEASE_V1.0.2/MSDK/plf/GD32VW55x_standard_peripheral/Source\gd32vw55x_dma.c ****       \arg        DMA_CHx (x=0..7)
 446:C:/Users/stapi/OneDrive/Desktop/GD32VW553/GD32VW55X_Wifi_BLE_SDK/GD32VW55x_RELEASE_V1.0.2/MSDK/plf/GD32VW55x_standard_peripheral/Source\gd32vw55x_dma.c ****     \param[in]  generation_algorithm: the address generation algorithm
 447:C:/Users/stapi/OneDrive/Desktop/GD32VW553/GD32VW55X_Wifi_BLE_SDK/GD32VW55x_RELEASE_V1.0.2/MSDK/plf/GD32VW55x_standard_peripheral/Source\gd32vw55x_dma.c ****                 only one parameter can be selected which is shown as below:
 448:C:/Users/stapi/OneDrive/Desktop/GD32VW553/GD32VW55X_Wifi_BLE_SDK/GD32VW55x_RELEASE_V1.0.2/MSDK/plf/GD32VW55x_standard_peripheral/Source\gd32vw55x_dma.c ****       \arg        DMA_MEMORY_INCREASE_ENABLE: next address of memory is increasing address mode
 449:C:/Users/stapi/OneDrive/Desktop/GD32VW553/GD32VW55X_Wifi_BLE_SDK/GD32VW55x_RELEASE_V1.0.2/MSDK/plf/GD32VW55x_standard_peripheral/Source\gd32vw55x_dma.c ****       \arg        DMA_MEMORY_INCREASE_DISABLE: next address of memory is fixed address mode
 450:C:/Users/stapi/OneDrive/Desktop/GD32VW553/GD32VW55X_Wifi_BLE_SDK/GD32VW55x_RELEASE_V1.0.2/MSDK/plf/GD32VW55x_standard_peripheral/Source\gd32vw55x_dma.c ****     \param[out] none
 451:C:/Users/stapi/OneDrive/Desktop/GD32VW553/GD32VW55X_Wifi_BLE_SDK/GD32VW55x_RELEASE_V1.0.2/MSDK/plf/GD32VW55x_standard_peripheral/Source\gd32vw55x_dma.c ****     \retval     none
 452:C:/Users/stapi/OneDrive/Desktop/GD32VW553/GD32VW55X_Wifi_BLE_SDK/GD32VW55x_RELEASE_V1.0.2/MSDK/plf/GD32VW55x_standard_peripheral/Source\gd32vw55x_dma.c **** */
 453:C:/Users/stapi/OneDrive/Desktop/GD32VW553/GD32VW55X_Wifi_BLE_SDK/GD32VW55x_RELEASE_V1.0.2/MSDK/plf/GD32VW55x_standard_peripheral/Source\gd32vw55x_dma.c **** void dma_memory_address_generation_config(dma_channel_enum channelx, uint8_t generation_algorithm)
 454:C:/Users/stapi/OneDrive/Desktop/GD32VW553/GD32VW55X_Wifi_BLE_SDK/GD32VW55x_RELEASE_V1.0.2/MSDK/plf/GD32VW55x_standard_peripheral/Source\gd32vw55x_dma.c **** {
 802              		.loc 1 454 1 is_stmt 1
 803              		.cfi_startproc
 804              	.LVL52:
 455:C:/Users/stapi/OneDrive/Desktop/GD32VW553/GD32VW55X_Wifi_BLE_SDK/GD32VW55x_RELEASE_V1.0.2/MSDK/plf/GD32VW55x_standard_peripheral/Source\gd32vw55x_dma.c ****     if(DMA_MEMORY_INCREASE_ENABLE == generation_algorithm){
 805              		.loc 1 455 5
 456:C:/Users/stapi/OneDrive/Desktop/GD32VW553/GD32VW55X_Wifi_BLE_SDK/GD32VW55x_RELEASE_V1.0.2/MSDK/plf/GD32VW55x_standard_peripheral/Source\gd32vw55x_dma.c ****         DMA_CHCTL(channelx) |= DMA_CHXCTL_MNAGA;
 806              		.loc 1 456 29 is_stmt 0
 807 0000 B7670240 		li	a5,1073897472
 808 0004 6147     		li	a4,24
 809 0006 C107     		addi	a5,a5,16
 810 0008 FF17E5C4 		maddr32	a5, a0, a4
 811 000c 9843     		lw	a4,0(a5)
 455:C:/Users/stapi/OneDrive/Desktop/GD32VW553/GD32VW55X_Wifi_BLE_SDK/GD32VW55x_RELEASE_V1.0.2/MSDK/plf/GD32VW55x_standard_peripheral/Source\gd32vw55x_dma.c ****     if(DMA_MEMORY_INCREASE_ENABLE == generation_algorithm){
 812              		.loc 1 455 7
 813 000e 89E5     		bne	a1,zero,.L41
 814              		.loc 1 456 9 is_stmt 1
 815              		.loc 1 456 29 is_stmt 0
 816 0010 13670740 		ori	a4,a4,1024
 817              	.L43:
 457:C:/Users/stapi/OneDrive/Desktop/GD32VW553/GD32VW55X_Wifi_BLE_SDK/GD32VW55x_RELEASE_V1.0.2/MSDK/plf/GD32VW55x_standard_peripheral/Source\gd32vw55x_dma.c ****     }else{
 458:C:/Users/stapi/OneDrive/Desktop/GD32VW553/GD32VW55X_Wifi_BLE_SDK/GD32VW55x_RELEASE_V1.0.2/MSDK/plf/GD32VW55x_standard_peripheral/Source\gd32vw55x_dma.c ****         DMA_CHCTL(channelx) &= ~DMA_CHXCTL_MNAGA;
 818              		.loc 1 458 29
 819 0014 98C3     		sw	a4,0(a5)
 459:C:/Users/stapi/OneDrive/Desktop/GD32VW553/GD32VW55X_Wifi_BLE_SDK/GD32VW55x_RELEASE_V1.0.2/MSDK/plf/GD32VW55x_standard_peripheral/Source\gd32vw55x_dma.c ****     }
 460:C:/Users/stapi/OneDrive/Desktop/GD32VW553/GD32VW55X_Wifi_BLE_SDK/GD32VW55x_RELEASE_V1.0.2/MSDK/plf/GD32VW55x_standard_peripheral/Source\gd32vw55x_dma.c **** }
 820              		.loc 1 460 1
 821 0016 8280     		ret
 822              	.L41:
 458:C:/Users/stapi/OneDrive/Desktop/GD32VW553/GD32VW55X_Wifi_BLE_SDK/GD32VW55x_RELEASE_V1.0.2/MSDK/plf/GD32VW55x_standard_peripheral/Source\gd32vw55x_dma.c ****     }
 823              		.loc 1 458 9 is_stmt 1
 458:C:/Users/stapi/OneDrive/Desktop/GD32VW553/GD32VW55X_Wifi_BLE_SDK/GD32VW55x_RELEASE_V1.0.2/MSDK/plf/GD32VW55x_standard_peripheral/Source\gd32vw55x_dma.c ****     }
 824              		.loc 1 458 29 is_stmt 0
 825 0018 1377F7BF 		andi	a4,a4,-1025
 826 001c E5BF     		j	.L43
 827              		.cfi_endproc
 828              	.LFE379:
 830              		.section	.text.dma_peripheral_address_generation_config,"ax",@progbits
 831              		.align	1
 832              		.globl	dma_peripheral_address_generation_config
 834              	dma_peripheral_address_generation_config:
 835              	.LFB380:
 461:C:/Users/stapi/OneDrive/Desktop/GD32VW553/GD32VW55X_Wifi_BLE_SDK/GD32VW55x_RELEASE_V1.0.2/MSDK/plf/GD32VW55x_standard_peripheral/Source\gd32vw55x_dma.c **** 
 462:C:/Users/stapi/OneDrive/Desktop/GD32VW553/GD32VW55X_Wifi_BLE_SDK/GD32VW55x_RELEASE_V1.0.2/MSDK/plf/GD32VW55x_standard_peripheral/Source\gd32vw55x_dma.c **** /*!
 463:C:/Users/stapi/OneDrive/Desktop/GD32VW553/GD32VW55X_Wifi_BLE_SDK/GD32VW55x_RELEASE_V1.0.2/MSDK/plf/GD32VW55x_standard_peripheral/Source\gd32vw55x_dma.c ****     \brief      configure peripheral address generation algorithm
 464:C:/Users/stapi/OneDrive/Desktop/GD32VW553/GD32VW55X_Wifi_BLE_SDK/GD32VW55x_RELEASE_V1.0.2/MSDK/plf/GD32VW55x_standard_peripheral/Source\gd32vw55x_dma.c ****     \param[in]  channelx: specify which DMA channel
 465:C:/Users/stapi/OneDrive/Desktop/GD32VW553/GD32VW55X_Wifi_BLE_SDK/GD32VW55x_RELEASE_V1.0.2/MSDK/plf/GD32VW55x_standard_peripheral/Source\gd32vw55x_dma.c ****       \arg        DMA_CHx (x=0..7)
 466:C:/Users/stapi/OneDrive/Desktop/GD32VW553/GD32VW55X_Wifi_BLE_SDK/GD32VW55x_RELEASE_V1.0.2/MSDK/plf/GD32VW55x_standard_peripheral/Source\gd32vw55x_dma.c ****     \param[in]  generation_algorithm: the address generation algorithm
 467:C:/Users/stapi/OneDrive/Desktop/GD32VW553/GD32VW55X_Wifi_BLE_SDK/GD32VW55x_RELEASE_V1.0.2/MSDK/plf/GD32VW55x_standard_peripheral/Source\gd32vw55x_dma.c ****                 only one parameter can be selected which is shown as below:
 468:C:/Users/stapi/OneDrive/Desktop/GD32VW553/GD32VW55X_Wifi_BLE_SDK/GD32VW55x_RELEASE_V1.0.2/MSDK/plf/GD32VW55x_standard_peripheral/Source\gd32vw55x_dma.c ****       \arg        DMA_PERIPH_INCREASE_ENABLE: next address of peripheral is increasing address mode
 469:C:/Users/stapi/OneDrive/Desktop/GD32VW553/GD32VW55X_Wifi_BLE_SDK/GD32VW55x_RELEASE_V1.0.2/MSDK/plf/GD32VW55x_standard_peripheral/Source\gd32vw55x_dma.c ****       \arg        DMA_PERIPH_INCREASE_DISABLE: next address of peripheral is fixed address mode
 470:C:/Users/stapi/OneDrive/Desktop/GD32VW553/GD32VW55X_Wifi_BLE_SDK/GD32VW55x_RELEASE_V1.0.2/MSDK/plf/GD32VW55x_standard_peripheral/Source\gd32vw55x_dma.c ****       \arg        DMA_PERIPH_INCREASE_FIX: increasing steps of peripheral address is fixed
 471:C:/Users/stapi/OneDrive/Desktop/GD32VW553/GD32VW55X_Wifi_BLE_SDK/GD32VW55x_RELEASE_V1.0.2/MSDK/plf/GD32VW55x_standard_peripheral/Source\gd32vw55x_dma.c ****     \param[out] none
 472:C:/Users/stapi/OneDrive/Desktop/GD32VW553/GD32VW55X_Wifi_BLE_SDK/GD32VW55x_RELEASE_V1.0.2/MSDK/plf/GD32VW55x_standard_peripheral/Source\gd32vw55x_dma.c ****     \retval     none
 473:C:/Users/stapi/OneDrive/Desktop/GD32VW553/GD32VW55X_Wifi_BLE_SDK/GD32VW55x_RELEASE_V1.0.2/MSDK/plf/GD32VW55x_standard_peripheral/Source\gd32vw55x_dma.c **** */
 474:C:/Users/stapi/OneDrive/Desktop/GD32VW553/GD32VW55X_Wifi_BLE_SDK/GD32VW55x_RELEASE_V1.0.2/MSDK/plf/GD32VW55x_standard_peripheral/Source\gd32vw55x_dma.c **** void dma_peripheral_address_generation_config(dma_channel_enum channelx, uint8_t generation_algorit
 475:C:/Users/stapi/OneDrive/Desktop/GD32VW553/GD32VW55X_Wifi_BLE_SDK/GD32VW55x_RELEASE_V1.0.2/MSDK/plf/GD32VW55x_standard_peripheral/Source\gd32vw55x_dma.c **** {
 836              		.loc 1 475 1 is_stmt 1
 837              		.cfi_startproc
 838              	.LVL53:
 476:C:/Users/stapi/OneDrive/Desktop/GD32VW553/GD32VW55X_Wifi_BLE_SDK/GD32VW55x_RELEASE_V1.0.2/MSDK/plf/GD32VW55x_standard_peripheral/Source\gd32vw55x_dma.c ****     if(DMA_PERIPH_INCREASE_ENABLE == generation_algorithm){
 839              		.loc 1 476 5
 477:C:/Users/stapi/OneDrive/Desktop/GD32VW553/GD32VW55X_Wifi_BLE_SDK/GD32VW55x_RELEASE_V1.0.2/MSDK/plf/GD32VW55x_standard_peripheral/Source\gd32vw55x_dma.c ****         DMA_CHCTL(channelx) |= DMA_CHXCTL_PNAGA;
 840              		.loc 1 477 29 is_stmt 0
 841 0000 B7670240 		li	a5,1073897472
 842 0004 6147     		li	a4,24
 843 0006 C107     		addi	a5,a5,16
 844 0008 FF17E5C4 		maddr32	a5, a0, a4
 476:C:/Users/stapi/OneDrive/Desktop/GD32VW553/GD32VW55X_Wifi_BLE_SDK/GD32VW55x_RELEASE_V1.0.2/MSDK/plf/GD32VW55x_standard_peripheral/Source\gd32vw55x_dma.c ****     if(DMA_PERIPH_INCREASE_ENABLE == generation_algorithm){
 845              		.loc 1 476 7
 846 000c 91E5     		bne	a1,zero,.L45
 847              		.loc 1 477 9 is_stmt 1
 848              		.loc 1 477 29 is_stmt 0
 849 000e 9843     		lw	a4,0(a5)
 850 0010 13670720 		ori	a4,a4,512
 851              	.L48:
 478:C:/Users/stapi/OneDrive/Desktop/GD32VW553/GD32VW55X_Wifi_BLE_SDK/GD32VW55x_RELEASE_V1.0.2/MSDK/plf/GD32VW55x_standard_peripheral/Source\gd32vw55x_dma.c ****     }else if(DMA_PERIPH_INCREASE_DISABLE == generation_algorithm){
 479:C:/Users/stapi/OneDrive/Desktop/GD32VW553/GD32VW55X_Wifi_BLE_SDK/GD32VW55x_RELEASE_V1.0.2/MSDK/plf/GD32VW55x_standard_peripheral/Source\gd32vw55x_dma.c ****         DMA_CHCTL(channelx) &= ~DMA_CHXCTL_PNAGA;
 480:C:/Users/stapi/OneDrive/Desktop/GD32VW553/GD32VW55X_Wifi_BLE_SDK/GD32VW55x_RELEASE_V1.0.2/MSDK/plf/GD32VW55x_standard_peripheral/Source\gd32vw55x_dma.c ****     }else{
 481:C:/Users/stapi/OneDrive/Desktop/GD32VW553/GD32VW55X_Wifi_BLE_SDK/GD32VW55x_RELEASE_V1.0.2/MSDK/plf/GD32VW55x_standard_peripheral/Source\gd32vw55x_dma.c ****         DMA_CHCTL(channelx) |= DMA_CHXCTL_PNAGA;
 482:C:/Users/stapi/OneDrive/Desktop/GD32VW553/GD32VW55X_Wifi_BLE_SDK/GD32VW55x_RELEASE_V1.0.2/MSDK/plf/GD32VW55x_standard_peripheral/Source\gd32vw55x_dma.c ****         DMA_CHCTL(channelx) |= DMA_CHXCTL_PAIF;
 852              		.loc 1 482 29
 853 0014 98C3     		sw	a4,0(a5)
 483:C:/Users/stapi/OneDrive/Desktop/GD32VW553/GD32VW55X_Wifi_BLE_SDK/GD32VW55x_RELEASE_V1.0.2/MSDK/plf/GD32VW55x_standard_peripheral/Source\gd32vw55x_dma.c ****     }
 484:C:/Users/stapi/OneDrive/Desktop/GD32VW553/GD32VW55X_Wifi_BLE_SDK/GD32VW55x_RELEASE_V1.0.2/MSDK/plf/GD32VW55x_standard_peripheral/Source\gd32vw55x_dma.c **** }
 854              		.loc 1 484 1
 855 0016 8280     		ret
 856              	.L45:
 478:C:/Users/stapi/OneDrive/Desktop/GD32VW553/GD32VW55X_Wifi_BLE_SDK/GD32VW55x_RELEASE_V1.0.2/MSDK/plf/GD32VW55x_standard_peripheral/Source\gd32vw55x_dma.c ****     }else if(DMA_PERIPH_INCREASE_DISABLE == generation_algorithm){
 857              		.loc 1 478 11 is_stmt 1
 478:C:/Users/stapi/OneDrive/Desktop/GD32VW553/GD32VW55X_Wifi_BLE_SDK/GD32VW55x_RELEASE_V1.0.2/MSDK/plf/GD32VW55x_standard_peripheral/Source\gd32vw55x_dma.c ****     }else if(DMA_PERIPH_INCREASE_DISABLE == generation_algorithm){
 858              		.loc 1 478 13 is_stmt 0
 859 0018 0547     		li	a4,1
 860 001a 6396E500 		bne	a1,a4,.L47
 479:C:/Users/stapi/OneDrive/Desktop/GD32VW553/GD32VW55X_Wifi_BLE_SDK/GD32VW55x_RELEASE_V1.0.2/MSDK/plf/GD32VW55x_standard_peripheral/Source\gd32vw55x_dma.c ****     }else{
 861              		.loc 1 479 9 is_stmt 1
 479:C:/Users/stapi/OneDrive/Desktop/GD32VW553/GD32VW55X_Wifi_BLE_SDK/GD32VW55x_RELEASE_V1.0.2/MSDK/plf/GD32VW55x_standard_peripheral/Source\gd32vw55x_dma.c ****     }else{
 862              		.loc 1 479 29 is_stmt 0
 863 001e 9843     		lw	a4,0(a5)
 864 0020 1377F7DF 		andi	a4,a4,-513
 865 0024 C5BF     		j	.L48
 866              	.L47:
 481:C:/Users/stapi/OneDrive/Desktop/GD32VW553/GD32VW55X_Wifi_BLE_SDK/GD32VW55x_RELEASE_V1.0.2/MSDK/plf/GD32VW55x_standard_peripheral/Source\gd32vw55x_dma.c ****         DMA_CHCTL(channelx) |= DMA_CHXCTL_PAIF;
 867              		.loc 1 481 9 is_stmt 1
 481:C:/Users/stapi/OneDrive/Desktop/GD32VW553/GD32VW55X_Wifi_BLE_SDK/GD32VW55x_RELEASE_V1.0.2/MSDK/plf/GD32VW55x_standard_peripheral/Source\gd32vw55x_dma.c ****         DMA_CHCTL(channelx) |= DMA_CHXCTL_PAIF;
 868              		.loc 1 481 29 is_stmt 0
 869 0026 9843     		lw	a4,0(a5)
 870 0028 13670720 		ori	a4,a4,512
 871 002c 98C3     		sw	a4,0(a5)
 482:C:/Users/stapi/OneDrive/Desktop/GD32VW553/GD32VW55X_Wifi_BLE_SDK/GD32VW55x_RELEASE_V1.0.2/MSDK/plf/GD32VW55x_standard_peripheral/Source\gd32vw55x_dma.c ****     }
 872              		.loc 1 482 9 is_stmt 1
 482:C:/Users/stapi/OneDrive/Desktop/GD32VW553/GD32VW55X_Wifi_BLE_SDK/GD32VW55x_RELEASE_V1.0.2/MSDK/plf/GD32VW55x_standard_peripheral/Source\gd32vw55x_dma.c ****     }
 873              		.loc 1 482 29 is_stmt 0
 874 002e 9843     		lw	a4,0(a5)
 875 0030 1317F728 		bseti	a4,a4,15
 876 0034 C5B7     		j	.L48
 877              		.cfi_endproc
 878              	.LFE380:
 880              		.section	.text.dma_circulation_enable,"ax",@progbits
 881              		.align	1
 882              		.globl	dma_circulation_enable
 884              	dma_circulation_enable:
 885              	.LFB381:
 485:C:/Users/stapi/OneDrive/Desktop/GD32VW553/GD32VW55X_Wifi_BLE_SDK/GD32VW55x_RELEASE_V1.0.2/MSDK/plf/GD32VW55x_standard_peripheral/Source\gd32vw55x_dma.c **** 
 486:C:/Users/stapi/OneDrive/Desktop/GD32VW553/GD32VW55X_Wifi_BLE_SDK/GD32VW55x_RELEASE_V1.0.2/MSDK/plf/GD32VW55x_standard_peripheral/Source\gd32vw55x_dma.c **** /*!
 487:C:/Users/stapi/OneDrive/Desktop/GD32VW553/GD32VW55X_Wifi_BLE_SDK/GD32VW55x_RELEASE_V1.0.2/MSDK/plf/GD32VW55x_standard_peripheral/Source\gd32vw55x_dma.c ****     \brief      enable DMA circulation mode
 488:C:/Users/stapi/OneDrive/Desktop/GD32VW553/GD32VW55X_Wifi_BLE_SDK/GD32VW55x_RELEASE_V1.0.2/MSDK/plf/GD32VW55x_standard_peripheral/Source\gd32vw55x_dma.c ****     \param[in]  channelx: specify which DMA channel
 489:C:/Users/stapi/OneDrive/Desktop/GD32VW553/GD32VW55X_Wifi_BLE_SDK/GD32VW55x_RELEASE_V1.0.2/MSDK/plf/GD32VW55x_standard_peripheral/Source\gd32vw55x_dma.c ****       \arg        DMA_CHx (x=0..7)
 490:C:/Users/stapi/OneDrive/Desktop/GD32VW553/GD32VW55X_Wifi_BLE_SDK/GD32VW55x_RELEASE_V1.0.2/MSDK/plf/GD32VW55x_standard_peripheral/Source\gd32vw55x_dma.c ****     \param[out] none
 491:C:/Users/stapi/OneDrive/Desktop/GD32VW553/GD32VW55X_Wifi_BLE_SDK/GD32VW55x_RELEASE_V1.0.2/MSDK/plf/GD32VW55x_standard_peripheral/Source\gd32vw55x_dma.c ****     \retval     none
 492:C:/Users/stapi/OneDrive/Desktop/GD32VW553/GD32VW55X_Wifi_BLE_SDK/GD32VW55x_RELEASE_V1.0.2/MSDK/plf/GD32VW55x_standard_peripheral/Source\gd32vw55x_dma.c **** */
 493:C:/Users/stapi/OneDrive/Desktop/GD32VW553/GD32VW55X_Wifi_BLE_SDK/GD32VW55x_RELEASE_V1.0.2/MSDK/plf/GD32VW55x_standard_peripheral/Source\gd32vw55x_dma.c **** void dma_circulation_enable(dma_channel_enum channelx)
 494:C:/Users/stapi/OneDrive/Desktop/GD32VW553/GD32VW55X_Wifi_BLE_SDK/GD32VW55x_RELEASE_V1.0.2/MSDK/plf/GD32VW55x_standard_peripheral/Source\gd32vw55x_dma.c **** {
 886              		.loc 1 494 1 is_stmt 1
 887              		.cfi_startproc
 888              	.LVL54:
 495:C:/Users/stapi/OneDrive/Desktop/GD32VW553/GD32VW55X_Wifi_BLE_SDK/GD32VW55x_RELEASE_V1.0.2/MSDK/plf/GD32VW55x_standard_peripheral/Source\gd32vw55x_dma.c ****     DMA_CHCTL(channelx) |= DMA_CHXCTL_CMEN;
 889              		.loc 1 495 5
 890              		.loc 1 495 25 is_stmt 0
 891 0000 B7670240 		li	a5,1073897472
 892 0004 6147     		li	a4,24
 893 0006 C107     		addi	a5,a5,16
 894 0008 FF17E5C4 		maddr32	a5, a0, a4
 895 000c 9843     		lw	a4,0(a5)
 896 000e 13670710 		ori	a4,a4,256
 897 0012 98C3     		sw	a4,0(a5)
 496:C:/Users/stapi/OneDrive/Desktop/GD32VW553/GD32VW55X_Wifi_BLE_SDK/GD32VW55x_RELEASE_V1.0.2/MSDK/plf/GD32VW55x_standard_peripheral/Source\gd32vw55x_dma.c **** }
 898              		.loc 1 496 1
 899 0014 8280     		ret
 900              		.cfi_endproc
 901              	.LFE381:
 903              		.section	.text.dma_circulation_disable,"ax",@progbits
 904              		.align	1
 905              		.globl	dma_circulation_disable
 907              	dma_circulation_disable:
 908              	.LFB382:
 497:C:/Users/stapi/OneDrive/Desktop/GD32VW553/GD32VW55X_Wifi_BLE_SDK/GD32VW55x_RELEASE_V1.0.2/MSDK/plf/GD32VW55x_standard_peripheral/Source\gd32vw55x_dma.c **** 
 498:C:/Users/stapi/OneDrive/Desktop/GD32VW553/GD32VW55X_Wifi_BLE_SDK/GD32VW55x_RELEASE_V1.0.2/MSDK/plf/GD32VW55x_standard_peripheral/Source\gd32vw55x_dma.c **** /*!
 499:C:/Users/stapi/OneDrive/Desktop/GD32VW553/GD32VW55X_Wifi_BLE_SDK/GD32VW55x_RELEASE_V1.0.2/MSDK/plf/GD32VW55x_standard_peripheral/Source\gd32vw55x_dma.c ****     \brief      disable DMA circulation mode
 500:C:/Users/stapi/OneDrive/Desktop/GD32VW553/GD32VW55X_Wifi_BLE_SDK/GD32VW55x_RELEASE_V1.0.2/MSDK/plf/GD32VW55x_standard_peripheral/Source\gd32vw55x_dma.c ****     \param[in]  channelx: specify which DMA channel
 501:C:/Users/stapi/OneDrive/Desktop/GD32VW553/GD32VW55X_Wifi_BLE_SDK/GD32VW55x_RELEASE_V1.0.2/MSDK/plf/GD32VW55x_standard_peripheral/Source\gd32vw55x_dma.c ****       \arg        DMA_CHx (x=0..7)
 502:C:/Users/stapi/OneDrive/Desktop/GD32VW553/GD32VW55X_Wifi_BLE_SDK/GD32VW55x_RELEASE_V1.0.2/MSDK/plf/GD32VW55x_standard_peripheral/Source\gd32vw55x_dma.c ****     \param[out] none
 503:C:/Users/stapi/OneDrive/Desktop/GD32VW553/GD32VW55X_Wifi_BLE_SDK/GD32VW55x_RELEASE_V1.0.2/MSDK/plf/GD32VW55x_standard_peripheral/Source\gd32vw55x_dma.c ****     \retval     none
 504:C:/Users/stapi/OneDrive/Desktop/GD32VW553/GD32VW55X_Wifi_BLE_SDK/GD32VW55x_RELEASE_V1.0.2/MSDK/plf/GD32VW55x_standard_peripheral/Source\gd32vw55x_dma.c **** */
 505:C:/Users/stapi/OneDrive/Desktop/GD32VW553/GD32VW55X_Wifi_BLE_SDK/GD32VW55x_RELEASE_V1.0.2/MSDK/plf/GD32VW55x_standard_peripheral/Source\gd32vw55x_dma.c **** void dma_circulation_disable(dma_channel_enum channelx)
 506:C:/Users/stapi/OneDrive/Desktop/GD32VW553/GD32VW55X_Wifi_BLE_SDK/GD32VW55x_RELEASE_V1.0.2/MSDK/plf/GD32VW55x_standard_peripheral/Source\gd32vw55x_dma.c **** {
 909              		.loc 1 506 1 is_stmt 1
 910              		.cfi_startproc
 911              	.LVL55:
 507:C:/Users/stapi/OneDrive/Desktop/GD32VW553/GD32VW55X_Wifi_BLE_SDK/GD32VW55x_RELEASE_V1.0.2/MSDK/plf/GD32VW55x_standard_peripheral/Source\gd32vw55x_dma.c ****     DMA_CHCTL(channelx) &= ~DMA_CHXCTL_CMEN;
 912              		.loc 1 507 5
 913              		.loc 1 507 25 is_stmt 0
 914 0000 B7670240 		li	a5,1073897472
 915 0004 6147     		li	a4,24
 916 0006 C107     		addi	a5,a5,16
 917 0008 FF17E5C4 		maddr32	a5, a0, a4
 918 000c 9843     		lw	a4,0(a5)
 919 000e 1377F7EF 		andi	a4,a4,-257
 920 0012 98C3     		sw	a4,0(a5)
 508:C:/Users/stapi/OneDrive/Desktop/GD32VW553/GD32VW55X_Wifi_BLE_SDK/GD32VW55x_RELEASE_V1.0.2/MSDK/plf/GD32VW55x_standard_peripheral/Source\gd32vw55x_dma.c **** }
 921              		.loc 1 508 1
 922 0014 8280     		ret
 923              		.cfi_endproc
 924              	.LFE382:
 926              		.section	.text.dma_channel_enable,"ax",@progbits
 927              		.align	1
 928              		.globl	dma_channel_enable
 930              	dma_channel_enable:
 931              	.LFB383:
 509:C:/Users/stapi/OneDrive/Desktop/GD32VW553/GD32VW55X_Wifi_BLE_SDK/GD32VW55x_RELEASE_V1.0.2/MSDK/plf/GD32VW55x_standard_peripheral/Source\gd32vw55x_dma.c **** 
 510:C:/Users/stapi/OneDrive/Desktop/GD32VW553/GD32VW55X_Wifi_BLE_SDK/GD32VW55x_RELEASE_V1.0.2/MSDK/plf/GD32VW55x_standard_peripheral/Source\gd32vw55x_dma.c **** /*!
 511:C:/Users/stapi/OneDrive/Desktop/GD32VW553/GD32VW55X_Wifi_BLE_SDK/GD32VW55x_RELEASE_V1.0.2/MSDK/plf/GD32VW55x_standard_peripheral/Source\gd32vw55x_dma.c ****     \brief      enable DMA channel
 512:C:/Users/stapi/OneDrive/Desktop/GD32VW553/GD32VW55X_Wifi_BLE_SDK/GD32VW55x_RELEASE_V1.0.2/MSDK/plf/GD32VW55x_standard_peripheral/Source\gd32vw55x_dma.c ****     \param[in]  channelx: specify which DMA channel
 513:C:/Users/stapi/OneDrive/Desktop/GD32VW553/GD32VW55X_Wifi_BLE_SDK/GD32VW55x_RELEASE_V1.0.2/MSDK/plf/GD32VW55x_standard_peripheral/Source\gd32vw55x_dma.c ****       \arg        DMA_CHx (x=0..7)
 514:C:/Users/stapi/OneDrive/Desktop/GD32VW553/GD32VW55X_Wifi_BLE_SDK/GD32VW55x_RELEASE_V1.0.2/MSDK/plf/GD32VW55x_standard_peripheral/Source\gd32vw55x_dma.c ****     \param[out] none
 515:C:/Users/stapi/OneDrive/Desktop/GD32VW553/GD32VW55X_Wifi_BLE_SDK/GD32VW55x_RELEASE_V1.0.2/MSDK/plf/GD32VW55x_standard_peripheral/Source\gd32vw55x_dma.c ****     \retval     none
 516:C:/Users/stapi/OneDrive/Desktop/GD32VW553/GD32VW55X_Wifi_BLE_SDK/GD32VW55x_RELEASE_V1.0.2/MSDK/plf/GD32VW55x_standard_peripheral/Source\gd32vw55x_dma.c **** */
 517:C:/Users/stapi/OneDrive/Desktop/GD32VW553/GD32VW55X_Wifi_BLE_SDK/GD32VW55x_RELEASE_V1.0.2/MSDK/plf/GD32VW55x_standard_peripheral/Source\gd32vw55x_dma.c **** void dma_channel_enable(dma_channel_enum channelx)
 518:C:/Users/stapi/OneDrive/Desktop/GD32VW553/GD32VW55X_Wifi_BLE_SDK/GD32VW55x_RELEASE_V1.0.2/MSDK/plf/GD32VW55x_standard_peripheral/Source\gd32vw55x_dma.c **** {
 932              		.loc 1 518 1 is_stmt 1
 933              		.cfi_startproc
 934              	.LVL56:
 519:C:/Users/stapi/OneDrive/Desktop/GD32VW553/GD32VW55X_Wifi_BLE_SDK/GD32VW55x_RELEASE_V1.0.2/MSDK/plf/GD32VW55x_standard_peripheral/Source\gd32vw55x_dma.c ****     DMA_CHCTL(channelx) |= DMA_CHXCTL_CHEN;
 935              		.loc 1 519 5
 936              		.loc 1 519 25 is_stmt 0
 937 0000 B7670240 		li	a5,1073897472
 938 0004 6147     		li	a4,24
 939 0006 C107     		addi	a5,a5,16
 940 0008 FF17E5C4 		maddr32	a5, a0, a4
 941 000c 9843     		lw	a4,0(a5)
 942 000e 13671700 		ori	a4,a4,1
 943 0012 98C3     		sw	a4,0(a5)
 520:C:/Users/stapi/OneDrive/Desktop/GD32VW553/GD32VW55X_Wifi_BLE_SDK/GD32VW55x_RELEASE_V1.0.2/MSDK/plf/GD32VW55x_standard_peripheral/Source\gd32vw55x_dma.c **** }
 944              		.loc 1 520 1
 945 0014 8280     		ret
 946              		.cfi_endproc
 947              	.LFE383:
 949              		.section	.text.dma_channel_disable,"ax",@progbits
 950              		.align	1
 951              		.globl	dma_channel_disable
 953              	dma_channel_disable:
 954              	.LFB384:
 521:C:/Users/stapi/OneDrive/Desktop/GD32VW553/GD32VW55X_Wifi_BLE_SDK/GD32VW55x_RELEASE_V1.0.2/MSDK/plf/GD32VW55x_standard_peripheral/Source\gd32vw55x_dma.c **** 
 522:C:/Users/stapi/OneDrive/Desktop/GD32VW553/GD32VW55X_Wifi_BLE_SDK/GD32VW55x_RELEASE_V1.0.2/MSDK/plf/GD32VW55x_standard_peripheral/Source\gd32vw55x_dma.c **** /*!
 523:C:/Users/stapi/OneDrive/Desktop/GD32VW553/GD32VW55X_Wifi_BLE_SDK/GD32VW55x_RELEASE_V1.0.2/MSDK/plf/GD32VW55x_standard_peripheral/Source\gd32vw55x_dma.c ****     \brief      disable DMA channel
 524:C:/Users/stapi/OneDrive/Desktop/GD32VW553/GD32VW55X_Wifi_BLE_SDK/GD32VW55x_RELEASE_V1.0.2/MSDK/plf/GD32VW55x_standard_peripheral/Source\gd32vw55x_dma.c ****     \param[in]  channelx: specify which DMA channel
 525:C:/Users/stapi/OneDrive/Desktop/GD32VW553/GD32VW55X_Wifi_BLE_SDK/GD32VW55x_RELEASE_V1.0.2/MSDK/plf/GD32VW55x_standard_peripheral/Source\gd32vw55x_dma.c ****       \arg        DMA_CHx (x=0..7)
 526:C:/Users/stapi/OneDrive/Desktop/GD32VW553/GD32VW55X_Wifi_BLE_SDK/GD32VW55x_RELEASE_V1.0.2/MSDK/plf/GD32VW55x_standard_peripheral/Source\gd32vw55x_dma.c ****     \param[out] none
 527:C:/Users/stapi/OneDrive/Desktop/GD32VW553/GD32VW55X_Wifi_BLE_SDK/GD32VW55x_RELEASE_V1.0.2/MSDK/plf/GD32VW55x_standard_peripheral/Source\gd32vw55x_dma.c ****     \retval     none
 528:C:/Users/stapi/OneDrive/Desktop/GD32VW553/GD32VW55X_Wifi_BLE_SDK/GD32VW55x_RELEASE_V1.0.2/MSDK/plf/GD32VW55x_standard_peripheral/Source\gd32vw55x_dma.c **** */
 529:C:/Users/stapi/OneDrive/Desktop/GD32VW553/GD32VW55X_Wifi_BLE_SDK/GD32VW55x_RELEASE_V1.0.2/MSDK/plf/GD32VW55x_standard_peripheral/Source\gd32vw55x_dma.c **** void dma_channel_disable(dma_channel_enum channelx)
 530:C:/Users/stapi/OneDrive/Desktop/GD32VW553/GD32VW55X_Wifi_BLE_SDK/GD32VW55x_RELEASE_V1.0.2/MSDK/plf/GD32VW55x_standard_peripheral/Source\gd32vw55x_dma.c **** {
 955              		.loc 1 530 1 is_stmt 1
 956              		.cfi_startproc
 957              	.LVL57:
 531:C:/Users/stapi/OneDrive/Desktop/GD32VW553/GD32VW55X_Wifi_BLE_SDK/GD32VW55x_RELEASE_V1.0.2/MSDK/plf/GD32VW55x_standard_peripheral/Source\gd32vw55x_dma.c ****     DMA_CHCTL(channelx) &= ~DMA_CHXCTL_CHEN;
 958              		.loc 1 531 5
 959              		.loc 1 531 25 is_stmt 0
 960 0000 B7670240 		li	a5,1073897472
 961 0004 6147     		li	a4,24
 962 0006 C107     		addi	a5,a5,16
 963 0008 FF17E5C4 		maddr32	a5, a0, a4
 964 000c 9843     		lw	a4,0(a5)
 965 000e 799B     		andi	a4,a4,-2
 966 0010 98C3     		sw	a4,0(a5)
 532:C:/Users/stapi/OneDrive/Desktop/GD32VW553/GD32VW55X_Wifi_BLE_SDK/GD32VW55x_RELEASE_V1.0.2/MSDK/plf/GD32VW55x_standard_peripheral/Source\gd32vw55x_dma.c **** }
 967              		.loc 1 532 1
 968 0012 8280     		ret
 969              		.cfi_endproc
 970              	.LFE384:
 972              		.section	.text.dma_transfer_direction_config,"ax",@progbits
 973              		.align	1
 974              		.globl	dma_transfer_direction_config
 976              	dma_transfer_direction_config:
 977              	.LFB385:
 533:C:/Users/stapi/OneDrive/Desktop/GD32VW553/GD32VW55X_Wifi_BLE_SDK/GD32VW55x_RELEASE_V1.0.2/MSDK/plf/GD32VW55x_standard_peripheral/Source\gd32vw55x_dma.c **** 
 534:C:/Users/stapi/OneDrive/Desktop/GD32VW553/GD32VW55X_Wifi_BLE_SDK/GD32VW55x_RELEASE_V1.0.2/MSDK/plf/GD32VW55x_standard_peripheral/Source\gd32vw55x_dma.c **** /*!
 535:C:/Users/stapi/OneDrive/Desktop/GD32VW553/GD32VW55X_Wifi_BLE_SDK/GD32VW55x_RELEASE_V1.0.2/MSDK/plf/GD32VW55x_standard_peripheral/Source\gd32vw55x_dma.c ****     \brief      configure the direction of data transfer on the channel
 536:C:/Users/stapi/OneDrive/Desktop/GD32VW553/GD32VW55X_Wifi_BLE_SDK/GD32VW55x_RELEASE_V1.0.2/MSDK/plf/GD32VW55x_standard_peripheral/Source\gd32vw55x_dma.c ****     \param[in]  channelx: specify which DMA channel
 537:C:/Users/stapi/OneDrive/Desktop/GD32VW553/GD32VW55X_Wifi_BLE_SDK/GD32VW55x_RELEASE_V1.0.2/MSDK/plf/GD32VW55x_standard_peripheral/Source\gd32vw55x_dma.c ****       \arg        DMA_CHx (x=0..7)
 538:C:/Users/stapi/OneDrive/Desktop/GD32VW553/GD32VW55X_Wifi_BLE_SDK/GD32VW55x_RELEASE_V1.0.2/MSDK/plf/GD32VW55x_standard_peripheral/Source\gd32vw55x_dma.c ****     \param[in]  direction: specify the direction of  data transfer
 539:C:/Users/stapi/OneDrive/Desktop/GD32VW553/GD32VW55X_Wifi_BLE_SDK/GD32VW55x_RELEASE_V1.0.2/MSDK/plf/GD32VW55x_standard_peripheral/Source\gd32vw55x_dma.c ****                 only one parameter can be selected which is shown as below:
 540:C:/Users/stapi/OneDrive/Desktop/GD32VW553/GD32VW55X_Wifi_BLE_SDK/GD32VW55x_RELEASE_V1.0.2/MSDK/plf/GD32VW55x_standard_peripheral/Source\gd32vw55x_dma.c ****       \arg        DMA_PERIPH_TO_MEMORY: read from peripheral and write to memory
 541:C:/Users/stapi/OneDrive/Desktop/GD32VW553/GD32VW55X_Wifi_BLE_SDK/GD32VW55x_RELEASE_V1.0.2/MSDK/plf/GD32VW55x_standard_peripheral/Source\gd32vw55x_dma.c ****       \arg        DMA_MEMORY_TO_PERIPH: read from memory and write to peripheral
 542:C:/Users/stapi/OneDrive/Desktop/GD32VW553/GD32VW55X_Wifi_BLE_SDK/GD32VW55x_RELEASE_V1.0.2/MSDK/plf/GD32VW55x_standard_peripheral/Source\gd32vw55x_dma.c ****       \arg        DMA_MEMORY_TO_MEMORY: read from memory and write to memory
 543:C:/Users/stapi/OneDrive/Desktop/GD32VW553/GD32VW55X_Wifi_BLE_SDK/GD32VW55x_RELEASE_V1.0.2/MSDK/plf/GD32VW55x_standard_peripheral/Source\gd32vw55x_dma.c ****     \param[out] none
 544:C:/Users/stapi/OneDrive/Desktop/GD32VW553/GD32VW55X_Wifi_BLE_SDK/GD32VW55x_RELEASE_V1.0.2/MSDK/plf/GD32VW55x_standard_peripheral/Source\gd32vw55x_dma.c ****     \retval     none
 545:C:/Users/stapi/OneDrive/Desktop/GD32VW553/GD32VW55X_Wifi_BLE_SDK/GD32VW55x_RELEASE_V1.0.2/MSDK/plf/GD32VW55x_standard_peripheral/Source\gd32vw55x_dma.c **** */
 546:C:/Users/stapi/OneDrive/Desktop/GD32VW553/GD32VW55X_Wifi_BLE_SDK/GD32VW55x_RELEASE_V1.0.2/MSDK/plf/GD32VW55x_standard_peripheral/Source\gd32vw55x_dma.c **** void dma_transfer_direction_config(dma_channel_enum channelx, uint8_t direction)
 547:C:/Users/stapi/OneDrive/Desktop/GD32VW553/GD32VW55X_Wifi_BLE_SDK/GD32VW55x_RELEASE_V1.0.2/MSDK/plf/GD32VW55x_standard_peripheral/Source\gd32vw55x_dma.c **** {
 978              		.loc 1 547 1 is_stmt 1
 979              		.cfi_startproc
 980              	.LVL58:
 548:C:/Users/stapi/OneDrive/Desktop/GD32VW553/GD32VW55X_Wifi_BLE_SDK/GD32VW55x_RELEASE_V1.0.2/MSDK/plf/GD32VW55x_standard_peripheral/Source\gd32vw55x_dma.c ****     uint32_t ctl;
 981              		.loc 1 548 5
 549:C:/Users/stapi/OneDrive/Desktop/GD32VW553/GD32VW55X_Wifi_BLE_SDK/GD32VW55x_RELEASE_V1.0.2/MSDK/plf/GD32VW55x_standard_peripheral/Source\gd32vw55x_dma.c ****     /* acquire DMA_CHxCTL register */
 550:C:/Users/stapi/OneDrive/Desktop/GD32VW553/GD32VW55X_Wifi_BLE_SDK/GD32VW55x_RELEASE_V1.0.2/MSDK/plf/GD32VW55x_standard_peripheral/Source\gd32vw55x_dma.c ****     ctl = DMA_CHCTL(channelx);
 982              		.loc 1 550 5
 983              		.loc 1 550 11 is_stmt 0
 984 0000 B7670240 		li	a5,1073897472
 985 0004 6147     		li	a4,24
 986 0006 C107     		addi	a5,a5,16
 987 0008 FF17E5C4 		maddr32	a5, a0, a4
 988              		.loc 1 550 9
 989 000c 9843     		lw	a4,0(a5)
 990              	.LVL59:
 551:C:/Users/stapi/OneDrive/Desktop/GD32VW553/GD32VW55X_Wifi_BLE_SDK/GD32VW55x_RELEASE_V1.0.2/MSDK/plf/GD32VW55x_standard_peripheral/Source\gd32vw55x_dma.c ****     /* assign registers */
 552:C:/Users/stapi/OneDrive/Desktop/GD32VW553/GD32VW55X_Wifi_BLE_SDK/GD32VW55x_RELEASE_V1.0.2/MSDK/plf/GD32VW55x_standard_peripheral/Source\gd32vw55x_dma.c ****     ctl &= ~DMA_CHXCTL_TM;
 991              		.loc 1 552 5 is_stmt 1
 992              		.loc 1 552 9 is_stmt 0
 993 000e 1377F7F3 		andi	a4,a4,-193
 994              	.LVL60:
 553:C:/Users/stapi/OneDrive/Desktop/GD32VW553/GD32VW55X_Wifi_BLE_SDK/GD32VW55x_RELEASE_V1.0.2/MSDK/plf/GD32VW55x_standard_peripheral/Source\gd32vw55x_dma.c ****     ctl |= direction;
 995              		.loc 1 553 5 is_stmt 1
 996              		.loc 1 553 9 is_stmt 0
 997 0012 D98D     		or	a1,a1,a4
 998              	.LVL61:
 554:C:/Users/stapi/OneDrive/Desktop/GD32VW553/GD32VW55X_Wifi_BLE_SDK/GD32VW55x_RELEASE_V1.0.2/MSDK/plf/GD32VW55x_standard_peripheral/Source\gd32vw55x_dma.c **** 
 555:C:/Users/stapi/OneDrive/Desktop/GD32VW553/GD32VW55X_Wifi_BLE_SDK/GD32VW55x_RELEASE_V1.0.2/MSDK/plf/GD32VW55x_standard_peripheral/Source\gd32vw55x_dma.c ****     DMA_CHCTL(channelx) = ctl;
 999              		.loc 1 555 5 is_stmt 1
 1000              		.loc 1 555 25 is_stmt 0
 1001 0014 8CC3     		sw	a1,0(a5)
 556:C:/Users/stapi/OneDrive/Desktop/GD32VW553/GD32VW55X_Wifi_BLE_SDK/GD32VW55x_RELEASE_V1.0.2/MSDK/plf/GD32VW55x_standard_peripheral/Source\gd32vw55x_dma.c **** }
 1002              		.loc 1 556 1
 1003 0016 8280     		ret
 1004              		.cfi_endproc
 1005              	.LFE385:
 1007              		.section	.text.dma_switch_buffer_mode_config,"ax",@progbits
 1008              		.align	1
 1009              		.globl	dma_switch_buffer_mode_config
 1011              	dma_switch_buffer_mode_config:
 1012              	.LFB386:
 557:C:/Users/stapi/OneDrive/Desktop/GD32VW553/GD32VW55X_Wifi_BLE_SDK/GD32VW55x_RELEASE_V1.0.2/MSDK/plf/GD32VW55x_standard_peripheral/Source\gd32vw55x_dma.c **** 
 558:C:/Users/stapi/OneDrive/Desktop/GD32VW553/GD32VW55X_Wifi_BLE_SDK/GD32VW55x_RELEASE_V1.0.2/MSDK/plf/GD32VW55x_standard_peripheral/Source\gd32vw55x_dma.c **** /*!
 559:C:/Users/stapi/OneDrive/Desktop/GD32VW553/GD32VW55X_Wifi_BLE_SDK/GD32VW55x_RELEASE_V1.0.2/MSDK/plf/GD32VW55x_standard_peripheral/Source\gd32vw55x_dma.c ****     \brief      configure DMA switch buffer mode
 560:C:/Users/stapi/OneDrive/Desktop/GD32VW553/GD32VW55X_Wifi_BLE_SDK/GD32VW55x_RELEASE_V1.0.2/MSDK/plf/GD32VW55x_standard_peripheral/Source\gd32vw55x_dma.c ****     \param[in]  channelx: specify which DMA channel
 561:C:/Users/stapi/OneDrive/Desktop/GD32VW553/GD32VW55X_Wifi_BLE_SDK/GD32VW55x_RELEASE_V1.0.2/MSDK/plf/GD32VW55x_standard_peripheral/Source\gd32vw55x_dma.c ****       \arg        DMA_CHx (x=0..7)
 562:C:/Users/stapi/OneDrive/Desktop/GD32VW553/GD32VW55X_Wifi_BLE_SDK/GD32VW55x_RELEASE_V1.0.2/MSDK/plf/GD32VW55x_standard_peripheral/Source\gd32vw55x_dma.c ****     \param[in]  memory1_addr: memory1 base address
 563:C:/Users/stapi/OneDrive/Desktop/GD32VW553/GD32VW55X_Wifi_BLE_SDK/GD32VW55x_RELEASE_V1.0.2/MSDK/plf/GD32VW55x_standard_peripheral/Source\gd32vw55x_dma.c ****     \param[in]  memory_select: select memory transfer area
 564:C:/Users/stapi/OneDrive/Desktop/GD32VW553/GD32VW55X_Wifi_BLE_SDK/GD32VW55x_RELEASE_V1.0.2/MSDK/plf/GD32VW55x_standard_peripheral/Source\gd32vw55x_dma.c ****       \arg        DMA_MEMORY_0: select memory0 as memory transfer area
 565:C:/Users/stapi/OneDrive/Desktop/GD32VW553/GD32VW55X_Wifi_BLE_SDK/GD32VW55x_RELEASE_V1.0.2/MSDK/plf/GD32VW55x_standard_peripheral/Source\gd32vw55x_dma.c ****       \arg        DMA_MEMORY_1: select memory1 as memory transfer area
 566:C:/Users/stapi/OneDrive/Desktop/GD32VW553/GD32VW55X_Wifi_BLE_SDK/GD32VW55x_RELEASE_V1.0.2/MSDK/plf/GD32VW55x_standard_peripheral/Source\gd32vw55x_dma.c ****     \param[out] none
 567:C:/Users/stapi/OneDrive/Desktop/GD32VW553/GD32VW55X_Wifi_BLE_SDK/GD32VW55x_RELEASE_V1.0.2/MSDK/plf/GD32VW55x_standard_peripheral/Source\gd32vw55x_dma.c ****     \retval     none
 568:C:/Users/stapi/OneDrive/Desktop/GD32VW553/GD32VW55X_Wifi_BLE_SDK/GD32VW55x_RELEASE_V1.0.2/MSDK/plf/GD32VW55x_standard_peripheral/Source\gd32vw55x_dma.c **** */
 569:C:/Users/stapi/OneDrive/Desktop/GD32VW553/GD32VW55X_Wifi_BLE_SDK/GD32VW55x_RELEASE_V1.0.2/MSDK/plf/GD32VW55x_standard_peripheral/Source\gd32vw55x_dma.c **** void dma_switch_buffer_mode_config(dma_channel_enum channelx, uint32_t memory1_addr, uint32_t memor
 570:C:/Users/stapi/OneDrive/Desktop/GD32VW553/GD32VW55X_Wifi_BLE_SDK/GD32VW55x_RELEASE_V1.0.2/MSDK/plf/GD32VW55x_standard_peripheral/Source\gd32vw55x_dma.c **** {
 1013              		.loc 1 570 1 is_stmt 1
 1014              		.cfi_startproc
 1015              	.LVL62:
 571:C:/Users/stapi/OneDrive/Desktop/GD32VW553/GD32VW55X_Wifi_BLE_SDK/GD32VW55x_RELEASE_V1.0.2/MSDK/plf/GD32VW55x_standard_peripheral/Source\gd32vw55x_dma.c ****     /* configure memory1 base address */
 572:C:/Users/stapi/OneDrive/Desktop/GD32VW553/GD32VW55X_Wifi_BLE_SDK/GD32VW55x_RELEASE_V1.0.2/MSDK/plf/GD32VW55x_standard_peripheral/Source\gd32vw55x_dma.c ****     DMA_CHM1ADDR(channelx) = memory1_addr;
 1016              		.loc 1 572 5
 1017 0000 E147     		li	a5,24
 1018 0002 3305F502 		mul	a0,a0,a5
 1019              	.LVL63:
 1020 0006 B7670240 		li	a5,1073897472
 1021 000a 13870702 		addi	a4,a5,32
 573:C:/Users/stapi/OneDrive/Desktop/GD32VW553/GD32VW55X_Wifi_BLE_SDK/GD32VW55x_RELEASE_V1.0.2/MSDK/plf/GD32VW55x_standard_peripheral/Source\gd32vw55x_dma.c **** 
 574:C:/Users/stapi/OneDrive/Desktop/GD32VW553/GD32VW55X_Wifi_BLE_SDK/GD32VW55x_RELEASE_V1.0.2/MSDK/plf/GD32VW55x_standard_peripheral/Source\gd32vw55x_dma.c ****     if(DMA_MEMORY_0 == memory_select){
 575:C:/Users/stapi/OneDrive/Desktop/GD32VW553/GD32VW55X_Wifi_BLE_SDK/GD32VW55x_RELEASE_V1.0.2/MSDK/plf/GD32VW55x_standard_peripheral/Source\gd32vw55x_dma.c ****         DMA_CHCTL(channelx) &= ~DMA_CHXCTL_MBS;
 1022              		.loc 1 575 29 is_stmt 0
 1023 000e C107     		addi	a5,a5,16
 572:C:/Users/stapi/OneDrive/Desktop/GD32VW553/GD32VW55X_Wifi_BLE_SDK/GD32VW55x_RELEASE_V1.0.2/MSDK/plf/GD32VW55x_standard_peripheral/Source\gd32vw55x_dma.c **** 
 1024              		.loc 1 572 5
 1025 0010 2A97     		add	a4,a0,a4
 572:C:/Users/stapi/OneDrive/Desktop/GD32VW553/GD32VW55X_Wifi_BLE_SDK/GD32VW55x_RELEASE_V1.0.2/MSDK/plf/GD32VW55x_standard_peripheral/Source\gd32vw55x_dma.c **** 
 1026              		.loc 1 572 28
 1027 0012 0CC3     		sw	a1,0(a4)
 574:C:/Users/stapi/OneDrive/Desktop/GD32VW553/GD32VW55X_Wifi_BLE_SDK/GD32VW55x_RELEASE_V1.0.2/MSDK/plf/GD32VW55x_standard_peripheral/Source\gd32vw55x_dma.c ****         DMA_CHCTL(channelx) &= ~DMA_CHXCTL_MBS;
 1028              		.loc 1 574 5 is_stmt 1
 1029              		.loc 1 575 29 is_stmt 0
 1030 0014 3E95     		add	a0,a0,a5
 1031 0016 1C41     		lw	a5,0(a0)
 574:C:/Users/stapi/OneDrive/Desktop/GD32VW553/GD32VW55X_Wifi_BLE_SDK/GD32VW55x_RELEASE_V1.0.2/MSDK/plf/GD32VW55x_standard_peripheral/Source\gd32vw55x_dma.c ****         DMA_CHCTL(channelx) &= ~DMA_CHXCTL_MBS;
 1032              		.loc 1 574 7
 1033 0018 09E6     		bne	a2,zero,.L55
 1034              		.loc 1 575 9 is_stmt 1
 1035              		.loc 1 575 29 is_stmt 0
 1036 001a 93973749 		bclri	a5,a5,19
 1037              	.L57:
 576:C:/Users/stapi/OneDrive/Desktop/GD32VW553/GD32VW55X_Wifi_BLE_SDK/GD32VW55x_RELEASE_V1.0.2/MSDK/plf/GD32VW55x_standard_peripheral/Source\gd32vw55x_dma.c ****     }else{
 577:C:/Users/stapi/OneDrive/Desktop/GD32VW553/GD32VW55X_Wifi_BLE_SDK/GD32VW55x_RELEASE_V1.0.2/MSDK/plf/GD32VW55x_standard_peripheral/Source\gd32vw55x_dma.c ****         DMA_CHCTL(channelx) |= DMA_CHXCTL_MBS;
 1038              		.loc 1 577 29
 1039 001e 1CC1     		sw	a5,0(a0)
 578:C:/Users/stapi/OneDrive/Desktop/GD32VW553/GD32VW55X_Wifi_BLE_SDK/GD32VW55x_RELEASE_V1.0.2/MSDK/plf/GD32VW55x_standard_peripheral/Source\gd32vw55x_dma.c ****     }
 579:C:/Users/stapi/OneDrive/Desktop/GD32VW553/GD32VW55X_Wifi_BLE_SDK/GD32VW55x_RELEASE_V1.0.2/MSDK/plf/GD32VW55x_standard_peripheral/Source\gd32vw55x_dma.c **** }
 1040              		.loc 1 579 1
 1041 0020 8280     		ret
 1042              	.L55:
 577:C:/Users/stapi/OneDrive/Desktop/GD32VW553/GD32VW55X_Wifi_BLE_SDK/GD32VW55x_RELEASE_V1.0.2/MSDK/plf/GD32VW55x_standard_peripheral/Source\gd32vw55x_dma.c ****     }
 1043              		.loc 1 577 9 is_stmt 1
 577:C:/Users/stapi/OneDrive/Desktop/GD32VW553/GD32VW55X_Wifi_BLE_SDK/GD32VW55x_RELEASE_V1.0.2/MSDK/plf/GD32VW55x_standard_peripheral/Source\gd32vw55x_dma.c ****     }
 1044              		.loc 1 577 29 is_stmt 0
 1045 0022 93973729 		bseti	a5,a5,19
 1046 0026 E5BF     		j	.L57
 1047              		.cfi_endproc
 1048              	.LFE386:
 1050              		.section	.text.dma_using_memory_get,"ax",@progbits
 1051              		.align	1
 1052              		.globl	dma_using_memory_get
 1054              	dma_using_memory_get:
 1055              	.LFB387:
 580:C:/Users/stapi/OneDrive/Desktop/GD32VW553/GD32VW55X_Wifi_BLE_SDK/GD32VW55x_RELEASE_V1.0.2/MSDK/plf/GD32VW55x_standard_peripheral/Source\gd32vw55x_dma.c **** 
 581:C:/Users/stapi/OneDrive/Desktop/GD32VW553/GD32VW55X_Wifi_BLE_SDK/GD32VW55x_RELEASE_V1.0.2/MSDK/plf/GD32VW55x_standard_peripheral/Source\gd32vw55x_dma.c **** /*!
 582:C:/Users/stapi/OneDrive/Desktop/GD32VW553/GD32VW55X_Wifi_BLE_SDK/GD32VW55x_RELEASE_V1.0.2/MSDK/plf/GD32VW55x_standard_peripheral/Source\gd32vw55x_dma.c ****     \brief      get the current buffer used by the DMA
 583:C:/Users/stapi/OneDrive/Desktop/GD32VW553/GD32VW55X_Wifi_BLE_SDK/GD32VW55x_RELEASE_V1.0.2/MSDK/plf/GD32VW55x_standard_peripheral/Source\gd32vw55x_dma.c ****     \param[in]  channelx: specify which DMA channel
 584:C:/Users/stapi/OneDrive/Desktop/GD32VW553/GD32VW55X_Wifi_BLE_SDK/GD32VW55x_RELEASE_V1.0.2/MSDK/plf/GD32VW55x_standard_peripheral/Source\gd32vw55x_dma.c ****       \arg        DMA_CHx (x=0..7)
 585:C:/Users/stapi/OneDrive/Desktop/GD32VW553/GD32VW55X_Wifi_BLE_SDK/GD32VW55x_RELEASE_V1.0.2/MSDK/plf/GD32VW55x_standard_peripheral/Source\gd32vw55x_dma.c ****     \param[out] none
 586:C:/Users/stapi/OneDrive/Desktop/GD32VW553/GD32VW55X_Wifi_BLE_SDK/GD32VW55x_RELEASE_V1.0.2/MSDK/plf/GD32VW55x_standard_peripheral/Source\gd32vw55x_dma.c ****     \retval     the using memory
 587:C:/Users/stapi/OneDrive/Desktop/GD32VW553/GD32VW55X_Wifi_BLE_SDK/GD32VW55x_RELEASE_V1.0.2/MSDK/plf/GD32VW55x_standard_peripheral/Source\gd32vw55x_dma.c **** */
 588:C:/Users/stapi/OneDrive/Desktop/GD32VW553/GD32VW55X_Wifi_BLE_SDK/GD32VW55x_RELEASE_V1.0.2/MSDK/plf/GD32VW55x_standard_peripheral/Source\gd32vw55x_dma.c **** uint32_t dma_using_memory_get(dma_channel_enum channelx)
 589:C:/Users/stapi/OneDrive/Desktop/GD32VW553/GD32VW55X_Wifi_BLE_SDK/GD32VW55x_RELEASE_V1.0.2/MSDK/plf/GD32VW55x_standard_peripheral/Source\gd32vw55x_dma.c **** {
 1056              		.loc 1 589 1 is_stmt 1
 1057              		.cfi_startproc
 1058              	.LVL64:
 590:C:/Users/stapi/OneDrive/Desktop/GD32VW553/GD32VW55X_Wifi_BLE_SDK/GD32VW55x_RELEASE_V1.0.2/MSDK/plf/GD32VW55x_standard_peripheral/Source\gd32vw55x_dma.c ****     if((DMA_CHCTL(channelx)) & DMA_CHXCTL_MBS){
 1059              		.loc 1 590 5
 1060              		.loc 1 590 9 is_stmt 0
 1061 0000 B7670240 		li	a5,1073897472
 1062 0004 6147     		li	a4,24
 1063 0006 C107     		addi	a5,a5,16
 1064 0008 FF17E5C4 		maddr32	a5, a0, a4
 1065 000c 8843     		lw	a0,0(a5)
 1066              	.LVL65:
 591:C:/Users/stapi/OneDrive/Desktop/GD32VW553/GD32VW55X_Wifi_BLE_SDK/GD32VW55x_RELEASE_V1.0.2/MSDK/plf/GD32VW55x_standard_peripheral/Source\gd32vw55x_dma.c ****         return DMA_MEMORY_1;
 592:C:/Users/stapi/OneDrive/Desktop/GD32VW553/GD32VW55X_Wifi_BLE_SDK/GD32VW55x_RELEASE_V1.0.2/MSDK/plf/GD32VW55x_standard_peripheral/Source\gd32vw55x_dma.c ****     }else{
 593:C:/Users/stapi/OneDrive/Desktop/GD32VW553/GD32VW55X_Wifi_BLE_SDK/GD32VW55x_RELEASE_V1.0.2/MSDK/plf/GD32VW55x_standard_peripheral/Source\gd32vw55x_dma.c ****         return DMA_MEMORY_0;
 594:C:/Users/stapi/OneDrive/Desktop/GD32VW553/GD32VW55X_Wifi_BLE_SDK/GD32VW55x_RELEASE_V1.0.2/MSDK/plf/GD32VW55x_standard_peripheral/Source\gd32vw55x_dma.c ****     }
 595:C:/Users/stapi/OneDrive/Desktop/GD32VW553/GD32VW55X_Wifi_BLE_SDK/GD32VW55x_RELEASE_V1.0.2/MSDK/plf/GD32VW55x_standard_peripheral/Source\gd32vw55x_dma.c **** }
 1067              		.loc 1 595 1
 1068 000e 13553549 		bexti	a0,a0,19
 1069 0012 8280     		ret
 1070              		.cfi_endproc
 1071              	.LFE387:
 1073              		.section	.text.dma_channel_subperipheral_select,"ax",@progbits
 1074              		.align	1
 1075              		.globl	dma_channel_subperipheral_select
 1077              	dma_channel_subperipheral_select:
 1078              	.LFB388:
 596:C:/Users/stapi/OneDrive/Desktop/GD32VW553/GD32VW55X_Wifi_BLE_SDK/GD32VW55x_RELEASE_V1.0.2/MSDK/plf/GD32VW55x_standard_peripheral/Source\gd32vw55x_dma.c **** 
 597:C:/Users/stapi/OneDrive/Desktop/GD32VW553/GD32VW55X_Wifi_BLE_SDK/GD32VW55x_RELEASE_V1.0.2/MSDK/plf/GD32VW55x_standard_peripheral/Source\gd32vw55x_dma.c **** /*!
 598:C:/Users/stapi/OneDrive/Desktop/GD32VW553/GD32VW55X_Wifi_BLE_SDK/GD32VW55x_RELEASE_V1.0.2/MSDK/plf/GD32VW55x_standard_peripheral/Source\gd32vw55x_dma.c ****     \brief      select DMA channel peripheral
 599:C:/Users/stapi/OneDrive/Desktop/GD32VW553/GD32VW55X_Wifi_BLE_SDK/GD32VW55x_RELEASE_V1.0.2/MSDK/plf/GD32VW55x_standard_peripheral/Source\gd32vw55x_dma.c ****     \param[in]  channelx: specify which DMA channel
 600:C:/Users/stapi/OneDrive/Desktop/GD32VW553/GD32VW55X_Wifi_BLE_SDK/GD32VW55x_RELEASE_V1.0.2/MSDK/plf/GD32VW55x_standard_peripheral/Source\gd32vw55x_dma.c ****       \arg        DMA_CHx (x=0..7)
 601:C:/Users/stapi/OneDrive/Desktop/GD32VW553/GD32VW55X_Wifi_BLE_SDK/GD32VW55x_RELEASE_V1.0.2/MSDK/plf/GD32VW55x_standard_peripheral/Source\gd32vw55x_dma.c ****     \param[in]  sub_periph: specify DMA channel peripheral
 602:C:/Users/stapi/OneDrive/Desktop/GD32VW553/GD32VW55X_Wifi_BLE_SDK/GD32VW55x_RELEASE_V1.0.2/MSDK/plf/GD32VW55x_standard_peripheral/Source\gd32vw55x_dma.c ****       \arg        DMA_SUBPERIx (x=0..7)
 603:C:/Users/stapi/OneDrive/Desktop/GD32VW553/GD32VW55X_Wifi_BLE_SDK/GD32VW55x_RELEASE_V1.0.2/MSDK/plf/GD32VW55x_standard_peripheral/Source\gd32vw55x_dma.c ****     \param[out] none
 604:C:/Users/stapi/OneDrive/Desktop/GD32VW553/GD32VW55X_Wifi_BLE_SDK/GD32VW55x_RELEASE_V1.0.2/MSDK/plf/GD32VW55x_standard_peripheral/Source\gd32vw55x_dma.c ****     \retval     none
 605:C:/Users/stapi/OneDrive/Desktop/GD32VW553/GD32VW55X_Wifi_BLE_SDK/GD32VW55x_RELEASE_V1.0.2/MSDK/plf/GD32VW55x_standard_peripheral/Source\gd32vw55x_dma.c **** */
 606:C:/Users/stapi/OneDrive/Desktop/GD32VW553/GD32VW55X_Wifi_BLE_SDK/GD32VW55x_RELEASE_V1.0.2/MSDK/plf/GD32VW55x_standard_peripheral/Source\gd32vw55x_dma.c **** void dma_channel_subperipheral_select(dma_channel_enum channelx, dma_subperipheral_enum sub_periph)
 607:C:/Users/stapi/OneDrive/Desktop/GD32VW553/GD32VW55X_Wifi_BLE_SDK/GD32VW55x_RELEASE_V1.0.2/MSDK/plf/GD32VW55x_standard_peripheral/Source\gd32vw55x_dma.c **** {
 1079              		.loc 1 607 1 is_stmt 1
 1080              		.cfi_startproc
 1081              	.LVL66:
 608:C:/Users/stapi/OneDrive/Desktop/GD32VW553/GD32VW55X_Wifi_BLE_SDK/GD32VW55x_RELEASE_V1.0.2/MSDK/plf/GD32VW55x_standard_peripheral/Source\gd32vw55x_dma.c ****     uint32_t ctl;
 1082              		.loc 1 608 5
 609:C:/Users/stapi/OneDrive/Desktop/GD32VW553/GD32VW55X_Wifi_BLE_SDK/GD32VW55x_RELEASE_V1.0.2/MSDK/plf/GD32VW55x_standard_peripheral/Source\gd32vw55x_dma.c ****     /* acquire DMA_CHxCTL register */
 610:C:/Users/stapi/OneDrive/Desktop/GD32VW553/GD32VW55X_Wifi_BLE_SDK/GD32VW55x_RELEASE_V1.0.2/MSDK/plf/GD32VW55x_standard_peripheral/Source\gd32vw55x_dma.c ****     ctl = DMA_CHCTL(channelx);
 1083              		.loc 1 610 5
 1084              		.loc 1 610 11 is_stmt 0
 1085 0000 B7670240 		li	a5,1073897472
 1086 0004 6147     		li	a4,24
 1087 0006 C107     		addi	a5,a5,16
 1088 0008 FF17E5C4 		maddr32	a5, a0, a4
 1089              		.loc 1 610 9
 1090 000c 9843     		lw	a4,0(a5)
 1091              	.LVL67:
 611:C:/Users/stapi/OneDrive/Desktop/GD32VW553/GD32VW55X_Wifi_BLE_SDK/GD32VW55x_RELEASE_V1.0.2/MSDK/plf/GD32VW55x_standard_peripheral/Source\gd32vw55x_dma.c ****     /* assign register */
 612:C:/Users/stapi/OneDrive/Desktop/GD32VW553/GD32VW55X_Wifi_BLE_SDK/GD32VW55x_RELEASE_V1.0.2/MSDK/plf/GD32VW55x_standard_peripheral/Source\gd32vw55x_dma.c ****     ctl &= ~DMA_CHXCTL_PERIEN;
 1092              		.loc 1 612 5 is_stmt 1
 1093              		.loc 1 612 9 is_stmt 0
 1094 000e B70600F2 		li	a3,-234881024
 1095 0012 FD16     		addi	a3,a3,-1
 1096 0014 758F     		and	a4,a4,a3
 1097              	.LVL68:
 613:C:/Users/stapi/OneDrive/Desktop/GD32VW553/GD32VW55X_Wifi_BLE_SDK/GD32VW55x_RELEASE_V1.0.2/MSDK/plf/GD32VW55x_standard_peripheral/Source\gd32vw55x_dma.c ****     ctl |= ((uint32_t)sub_periph << CHXCTL_PERIEN_OFFSET);
 1098              		.loc 1 613 5 is_stmt 1
 1099              		.loc 1 613 34 is_stmt 0
 1100 0016 E605     		slli	a1,a1,25
 1101              	.LVL69:
 1102              		.loc 1 613 9
 1103 0018 D98D     		or	a1,a1,a4
 1104              	.LVL70:
 614:C:/Users/stapi/OneDrive/Desktop/GD32VW553/GD32VW55X_Wifi_BLE_SDK/GD32VW55x_RELEASE_V1.0.2/MSDK/plf/GD32VW55x_standard_peripheral/Source\gd32vw55x_dma.c **** 
 615:C:/Users/stapi/OneDrive/Desktop/GD32VW553/GD32VW55X_Wifi_BLE_SDK/GD32VW55x_RELEASE_V1.0.2/MSDK/plf/GD32VW55x_standard_peripheral/Source\gd32vw55x_dma.c ****     DMA_CHCTL(channelx) = ctl;
 1105              		.loc 1 615 5 is_stmt 1
 1106              		.loc 1 615 25 is_stmt 0
 1107 001a 8CC3     		sw	a1,0(a5)
 616:C:/Users/stapi/OneDrive/Desktop/GD32VW553/GD32VW55X_Wifi_BLE_SDK/GD32VW55x_RELEASE_V1.0.2/MSDK/plf/GD32VW55x_standard_peripheral/Source\gd32vw55x_dma.c **** }
 1108              		.loc 1 616 1
 1109 001c 8280     		ret
 1110              		.cfi_endproc
 1111              	.LFE388:
 1113              		.section	.text.dma_flow_controller_config,"ax",@progbits
 1114              		.align	1
 1115              		.globl	dma_flow_controller_config
 1117              	dma_flow_controller_config:
 1118              	.LFB389:
 617:C:/Users/stapi/OneDrive/Desktop/GD32VW553/GD32VW55X_Wifi_BLE_SDK/GD32VW55x_RELEASE_V1.0.2/MSDK/plf/GD32VW55x_standard_peripheral/Source\gd32vw55x_dma.c **** 
 618:C:/Users/stapi/OneDrive/Desktop/GD32VW553/GD32VW55X_Wifi_BLE_SDK/GD32VW55x_RELEASE_V1.0.2/MSDK/plf/GD32VW55x_standard_peripheral/Source\gd32vw55x_dma.c **** /*!
 619:C:/Users/stapi/OneDrive/Desktop/GD32VW553/GD32VW55X_Wifi_BLE_SDK/GD32VW55x_RELEASE_V1.0.2/MSDK/plf/GD32VW55x_standard_peripheral/Source\gd32vw55x_dma.c ****     \brief      configure DMA flow controller
 620:C:/Users/stapi/OneDrive/Desktop/GD32VW553/GD32VW55X_Wifi_BLE_SDK/GD32VW55x_RELEASE_V1.0.2/MSDK/plf/GD32VW55x_standard_peripheral/Source\gd32vw55x_dma.c ****     \param[in]  channelx: specify which DMA channel
 621:C:/Users/stapi/OneDrive/Desktop/GD32VW553/GD32VW55X_Wifi_BLE_SDK/GD32VW55x_RELEASE_V1.0.2/MSDK/plf/GD32VW55x_standard_peripheral/Source\gd32vw55x_dma.c ****       \arg        DMA_CHx (x=0..7)
 622:C:/Users/stapi/OneDrive/Desktop/GD32VW553/GD32VW55X_Wifi_BLE_SDK/GD32VW55x_RELEASE_V1.0.2/MSDK/plf/GD32VW55x_standard_peripheral/Source\gd32vw55x_dma.c ****     \param[in]  controller: specify DMA flow controler
 623:C:/Users/stapi/OneDrive/Desktop/GD32VW553/GD32VW55X_Wifi_BLE_SDK/GD32VW55x_RELEASE_V1.0.2/MSDK/plf/GD32VW55x_standard_peripheral/Source\gd32vw55x_dma.c ****                 only one parameter can be selected which is shown as below:
 624:C:/Users/stapi/OneDrive/Desktop/GD32VW553/GD32VW55X_Wifi_BLE_SDK/GD32VW55x_RELEASE_V1.0.2/MSDK/plf/GD32VW55x_standard_peripheral/Source\gd32vw55x_dma.c ****       \arg        DMA_FLOW_CONTROLLER_DMA: DMA is the flow controller
 625:C:/Users/stapi/OneDrive/Desktop/GD32VW553/GD32VW55X_Wifi_BLE_SDK/GD32VW55x_RELEASE_V1.0.2/MSDK/plf/GD32VW55x_standard_peripheral/Source\gd32vw55x_dma.c ****       \arg        DMA_FLOW_CONTROLLER_PERI: peripheral is the flow controller
 626:C:/Users/stapi/OneDrive/Desktop/GD32VW553/GD32VW55X_Wifi_BLE_SDK/GD32VW55x_RELEASE_V1.0.2/MSDK/plf/GD32VW55x_standard_peripheral/Source\gd32vw55x_dma.c ****     \param[out] none
 627:C:/Users/stapi/OneDrive/Desktop/GD32VW553/GD32VW55X_Wifi_BLE_SDK/GD32VW55x_RELEASE_V1.0.2/MSDK/plf/GD32VW55x_standard_peripheral/Source\gd32vw55x_dma.c ****     \retval     none
 628:C:/Users/stapi/OneDrive/Desktop/GD32VW553/GD32VW55X_Wifi_BLE_SDK/GD32VW55x_RELEASE_V1.0.2/MSDK/plf/GD32VW55x_standard_peripheral/Source\gd32vw55x_dma.c **** */
 629:C:/Users/stapi/OneDrive/Desktop/GD32VW553/GD32VW55X_Wifi_BLE_SDK/GD32VW55x_RELEASE_V1.0.2/MSDK/plf/GD32VW55x_standard_peripheral/Source\gd32vw55x_dma.c **** void dma_flow_controller_config(dma_channel_enum channelx, uint32_t controller)
 630:C:/Users/stapi/OneDrive/Desktop/GD32VW553/GD32VW55X_Wifi_BLE_SDK/GD32VW55x_RELEASE_V1.0.2/MSDK/plf/GD32VW55x_standard_peripheral/Source\gd32vw55x_dma.c **** {
 1119              		.loc 1 630 1 is_stmt 1
 1120              		.cfi_startproc
 1121              	.LVL71:
 631:C:/Users/stapi/OneDrive/Desktop/GD32VW553/GD32VW55X_Wifi_BLE_SDK/GD32VW55x_RELEASE_V1.0.2/MSDK/plf/GD32VW55x_standard_peripheral/Source\gd32vw55x_dma.c ****     if(DMA_FLOW_CONTROLLER_DMA == controller){
 1122              		.loc 1 631 5
 632:C:/Users/stapi/OneDrive/Desktop/GD32VW553/GD32VW55X_Wifi_BLE_SDK/GD32VW55x_RELEASE_V1.0.2/MSDK/plf/GD32VW55x_standard_peripheral/Source\gd32vw55x_dma.c ****         DMA_CHCTL(channelx) &= ~DMA_CHXCTL_TFCS;
 1123              		.loc 1 632 29 is_stmt 0
 1124 0000 B7670240 		li	a5,1073897472
 1125 0004 6147     		li	a4,24
 1126 0006 C107     		addi	a5,a5,16
 1127 0008 FF17E5C4 		maddr32	a5, a0, a4
 1128 000c 9843     		lw	a4,0(a5)
 631:C:/Users/stapi/OneDrive/Desktop/GD32VW553/GD32VW55X_Wifi_BLE_SDK/GD32VW55x_RELEASE_V1.0.2/MSDK/plf/GD32VW55x_standard_peripheral/Source\gd32vw55x_dma.c ****     if(DMA_FLOW_CONTROLLER_DMA == controller){
 1129              		.loc 1 631 7
 1130 000e 89E5     		bne	a1,zero,.L61
 1131              		.loc 1 632 9 is_stmt 1
 1132              		.loc 1 632 29 is_stmt 0
 1133 0010 1377F7FD 		andi	a4,a4,-33
 1134              	.L63:
 633:C:/Users/stapi/OneDrive/Desktop/GD32VW553/GD32VW55X_Wifi_BLE_SDK/GD32VW55x_RELEASE_V1.0.2/MSDK/plf/GD32VW55x_standard_peripheral/Source\gd32vw55x_dma.c ****     }else{
 634:C:/Users/stapi/OneDrive/Desktop/GD32VW553/GD32VW55X_Wifi_BLE_SDK/GD32VW55x_RELEASE_V1.0.2/MSDK/plf/GD32VW55x_standard_peripheral/Source\gd32vw55x_dma.c ****         DMA_CHCTL(channelx) |= DMA_CHXCTL_TFCS;
 1135              		.loc 1 634 29
 1136 0014 98C3     		sw	a4,0(a5)
 635:C:/Users/stapi/OneDrive/Desktop/GD32VW553/GD32VW55X_Wifi_BLE_SDK/GD32VW55x_RELEASE_V1.0.2/MSDK/plf/GD32VW55x_standard_peripheral/Source\gd32vw55x_dma.c ****     }
 636:C:/Users/stapi/OneDrive/Desktop/GD32VW553/GD32VW55X_Wifi_BLE_SDK/GD32VW55x_RELEASE_V1.0.2/MSDK/plf/GD32VW55x_standard_peripheral/Source\gd32vw55x_dma.c **** }
 1137              		.loc 1 636 1
 1138 0016 8280     		ret
 1139              	.L61:
 634:C:/Users/stapi/OneDrive/Desktop/GD32VW553/GD32VW55X_Wifi_BLE_SDK/GD32VW55x_RELEASE_V1.0.2/MSDK/plf/GD32VW55x_standard_peripheral/Source\gd32vw55x_dma.c ****     }
 1140              		.loc 1 634 9 is_stmt 1
 634:C:/Users/stapi/OneDrive/Desktop/GD32VW553/GD32VW55X_Wifi_BLE_SDK/GD32VW55x_RELEASE_V1.0.2/MSDK/plf/GD32VW55x_standard_peripheral/Source\gd32vw55x_dma.c ****     }
 1141              		.loc 1 634 29 is_stmt 0
 1142 0018 13670702 		ori	a4,a4,32
 1143 001c E5BF     		j	.L63
 1144              		.cfi_endproc
 1145              	.LFE389:
 1147              		.section	.text.dma_switch_buffer_mode_enable,"ax",@progbits
 1148              		.align	1
 1149              		.globl	dma_switch_buffer_mode_enable
 1151              	dma_switch_buffer_mode_enable:
 1152              	.LFB390:
 637:C:/Users/stapi/OneDrive/Desktop/GD32VW553/GD32VW55X_Wifi_BLE_SDK/GD32VW55x_RELEASE_V1.0.2/MSDK/plf/GD32VW55x_standard_peripheral/Source\gd32vw55x_dma.c **** 
 638:C:/Users/stapi/OneDrive/Desktop/GD32VW553/GD32VW55X_Wifi_BLE_SDK/GD32VW55x_RELEASE_V1.0.2/MSDK/plf/GD32VW55x_standard_peripheral/Source\gd32vw55x_dma.c **** /*!
 639:C:/Users/stapi/OneDrive/Desktop/GD32VW553/GD32VW55X_Wifi_BLE_SDK/GD32VW55x_RELEASE_V1.0.2/MSDK/plf/GD32VW55x_standard_peripheral/Source\gd32vw55x_dma.c ****     \brief      enable DMA switch buffer mode
 640:C:/Users/stapi/OneDrive/Desktop/GD32VW553/GD32VW55X_Wifi_BLE_SDK/GD32VW55x_RELEASE_V1.0.2/MSDK/plf/GD32VW55x_standard_peripheral/Source\gd32vw55x_dma.c ****     \param[in]  channelx: specify which DMA channel
 641:C:/Users/stapi/OneDrive/Desktop/GD32VW553/GD32VW55X_Wifi_BLE_SDK/GD32VW55x_RELEASE_V1.0.2/MSDK/plf/GD32VW55x_standard_peripheral/Source\gd32vw55x_dma.c ****       \arg        DMA_CHx (x=0..7)
 642:C:/Users/stapi/OneDrive/Desktop/GD32VW553/GD32VW55X_Wifi_BLE_SDK/GD32VW55x_RELEASE_V1.0.2/MSDK/plf/GD32VW55x_standard_peripheral/Source\gd32vw55x_dma.c ****     \param[out] none
 643:C:/Users/stapi/OneDrive/Desktop/GD32VW553/GD32VW55X_Wifi_BLE_SDK/GD32VW55x_RELEASE_V1.0.2/MSDK/plf/GD32VW55x_standard_peripheral/Source\gd32vw55x_dma.c ****     \retval     none
 644:C:/Users/stapi/OneDrive/Desktop/GD32VW553/GD32VW55X_Wifi_BLE_SDK/GD32VW55x_RELEASE_V1.0.2/MSDK/plf/GD32VW55x_standard_peripheral/Source\gd32vw55x_dma.c **** */
 645:C:/Users/stapi/OneDrive/Desktop/GD32VW553/GD32VW55X_Wifi_BLE_SDK/GD32VW55x_RELEASE_V1.0.2/MSDK/plf/GD32VW55x_standard_peripheral/Source\gd32vw55x_dma.c **** void dma_switch_buffer_mode_enable(dma_channel_enum channelx)
 646:C:/Users/stapi/OneDrive/Desktop/GD32VW553/GD32VW55X_Wifi_BLE_SDK/GD32VW55x_RELEASE_V1.0.2/MSDK/plf/GD32VW55x_standard_peripheral/Source\gd32vw55x_dma.c **** {
 1153              		.loc 1 646 1 is_stmt 1
 1154              		.cfi_startproc
 1155              	.LVL72:
 647:C:/Users/stapi/OneDrive/Desktop/GD32VW553/GD32VW55X_Wifi_BLE_SDK/GD32VW55x_RELEASE_V1.0.2/MSDK/plf/GD32VW55x_standard_peripheral/Source\gd32vw55x_dma.c ****     /* switch buffer mode enable */
 648:C:/Users/stapi/OneDrive/Desktop/GD32VW553/GD32VW55X_Wifi_BLE_SDK/GD32VW55x_RELEASE_V1.0.2/MSDK/plf/GD32VW55x_standard_peripheral/Source\gd32vw55x_dma.c ****     DMA_CHCTL(channelx) |= DMA_CHXCTL_SBMEN;
 1156              		.loc 1 648 5
 1157              		.loc 1 648 25 is_stmt 0
 1158 0000 B7670240 		li	a5,1073897472
 1159 0004 6147     		li	a4,24
 1160 0006 C107     		addi	a5,a5,16
 1161 0008 FF17E5C4 		maddr32	a5, a0, a4
 1162 000c 9843     		lw	a4,0(a5)
 1163 000e 13172729 		bseti	a4,a4,18
 1164 0012 98C3     		sw	a4,0(a5)
 649:C:/Users/stapi/OneDrive/Desktop/GD32VW553/GD32VW55X_Wifi_BLE_SDK/GD32VW55x_RELEASE_V1.0.2/MSDK/plf/GD32VW55x_standard_peripheral/Source\gd32vw55x_dma.c **** }
 1165              		.loc 1 649 1
 1166 0014 8280     		ret
 1167              		.cfi_endproc
 1168              	.LFE390:
 1170              		.section	.text.dma_switch_buffer_mode_disable,"ax",@progbits
 1171              		.align	1
 1172              		.globl	dma_switch_buffer_mode_disable
 1174              	dma_switch_buffer_mode_disable:
 1175              	.LFB391:
 650:C:/Users/stapi/OneDrive/Desktop/GD32VW553/GD32VW55X_Wifi_BLE_SDK/GD32VW55x_RELEASE_V1.0.2/MSDK/plf/GD32VW55x_standard_peripheral/Source\gd32vw55x_dma.c **** 
 651:C:/Users/stapi/OneDrive/Desktop/GD32VW553/GD32VW55X_Wifi_BLE_SDK/GD32VW55x_RELEASE_V1.0.2/MSDK/plf/GD32VW55x_standard_peripheral/Source\gd32vw55x_dma.c **** /*!
 652:C:/Users/stapi/OneDrive/Desktop/GD32VW553/GD32VW55X_Wifi_BLE_SDK/GD32VW55x_RELEASE_V1.0.2/MSDK/plf/GD32VW55x_standard_peripheral/Source\gd32vw55x_dma.c ****     \brief      disable DMA switch buffer mode
 653:C:/Users/stapi/OneDrive/Desktop/GD32VW553/GD32VW55X_Wifi_BLE_SDK/GD32VW55x_RELEASE_V1.0.2/MSDK/plf/GD32VW55x_standard_peripheral/Source\gd32vw55x_dma.c ****     \param[in]  channelx: specify which DMA channel
 654:C:/Users/stapi/OneDrive/Desktop/GD32VW553/GD32VW55X_Wifi_BLE_SDK/GD32VW55x_RELEASE_V1.0.2/MSDK/plf/GD32VW55x_standard_peripheral/Source\gd32vw55x_dma.c ****       \arg        DMA_CHx (x=0..7)
 655:C:/Users/stapi/OneDrive/Desktop/GD32VW553/GD32VW55X_Wifi_BLE_SDK/GD32VW55x_RELEASE_V1.0.2/MSDK/plf/GD32VW55x_standard_peripheral/Source\gd32vw55x_dma.c ****     \param[out] none
 656:C:/Users/stapi/OneDrive/Desktop/GD32VW553/GD32VW55X_Wifi_BLE_SDK/GD32VW55x_RELEASE_V1.0.2/MSDK/plf/GD32VW55x_standard_peripheral/Source\gd32vw55x_dma.c ****     \retval     none
 657:C:/Users/stapi/OneDrive/Desktop/GD32VW553/GD32VW55X_Wifi_BLE_SDK/GD32VW55x_RELEASE_V1.0.2/MSDK/plf/GD32VW55x_standard_peripheral/Source\gd32vw55x_dma.c **** */
 658:C:/Users/stapi/OneDrive/Desktop/GD32VW553/GD32VW55X_Wifi_BLE_SDK/GD32VW55x_RELEASE_V1.0.2/MSDK/plf/GD32VW55x_standard_peripheral/Source\gd32vw55x_dma.c **** void dma_switch_buffer_mode_disable(dma_channel_enum channelx)
 659:C:/Users/stapi/OneDrive/Desktop/GD32VW553/GD32VW55X_Wifi_BLE_SDK/GD32VW55x_RELEASE_V1.0.2/MSDK/plf/GD32VW55x_standard_peripheral/Source\gd32vw55x_dma.c **** {
 1176              		.loc 1 659 1 is_stmt 1
 1177              		.cfi_startproc
 1178              	.LVL73:
 660:C:/Users/stapi/OneDrive/Desktop/GD32VW553/GD32VW55X_Wifi_BLE_SDK/GD32VW55x_RELEASE_V1.0.2/MSDK/plf/GD32VW55x_standard_peripheral/Source\gd32vw55x_dma.c ****     /* switch buffer mode disable */
 661:C:/Users/stapi/OneDrive/Desktop/GD32VW553/GD32VW55X_Wifi_BLE_SDK/GD32VW55x_RELEASE_V1.0.2/MSDK/plf/GD32VW55x_standard_peripheral/Source\gd32vw55x_dma.c ****     DMA_CHCTL(channelx) &= ~DMA_CHXCTL_SBMEN;
 1179              		.loc 1 661 5
 1180              		.loc 1 661 25 is_stmt 0
 1181 0000 B7670240 		li	a5,1073897472
 1182 0004 6147     		li	a4,24
 1183 0006 C107     		addi	a5,a5,16
 1184 0008 FF17E5C4 		maddr32	a5, a0, a4
 1185 000c 9843     		lw	a4,0(a5)
 1186 000e 13172749 		bclri	a4,a4,18
 1187 0012 98C3     		sw	a4,0(a5)
 662:C:/Users/stapi/OneDrive/Desktop/GD32VW553/GD32VW55X_Wifi_BLE_SDK/GD32VW55x_RELEASE_V1.0.2/MSDK/plf/GD32VW55x_standard_peripheral/Source\gd32vw55x_dma.c **** }
 1188              		.loc 1 662 1
 1189 0014 8280     		ret
 1190              		.cfi_endproc
 1191              	.LFE391:
 1193              		.section	.text.dma_fifo_status_get,"ax",@progbits
 1194              		.align	1
 1195              		.globl	dma_fifo_status_get
 1197              	dma_fifo_status_get:
 1198              	.LFB392:
 663:C:/Users/stapi/OneDrive/Desktop/GD32VW553/GD32VW55X_Wifi_BLE_SDK/GD32VW55x_RELEASE_V1.0.2/MSDK/plf/GD32VW55x_standard_peripheral/Source\gd32vw55x_dma.c **** 
 664:C:/Users/stapi/OneDrive/Desktop/GD32VW553/GD32VW55X_Wifi_BLE_SDK/GD32VW55x_RELEASE_V1.0.2/MSDK/plf/GD32VW55x_standard_peripheral/Source\gd32vw55x_dma.c **** /*!
 665:C:/Users/stapi/OneDrive/Desktop/GD32VW553/GD32VW55X_Wifi_BLE_SDK/GD32VW55x_RELEASE_V1.0.2/MSDK/plf/GD32VW55x_standard_peripheral/Source\gd32vw55x_dma.c ****     \brief      get DMA FIFO status
 666:C:/Users/stapi/OneDrive/Desktop/GD32VW553/GD32VW55X_Wifi_BLE_SDK/GD32VW55x_RELEASE_V1.0.2/MSDK/plf/GD32VW55x_standard_peripheral/Source\gd32vw55x_dma.c ****     \param[in]  channelx: specify which DMA channel
 667:C:/Users/stapi/OneDrive/Desktop/GD32VW553/GD32VW55X_Wifi_BLE_SDK/GD32VW55x_RELEASE_V1.0.2/MSDK/plf/GD32VW55x_standard_peripheral/Source\gd32vw55x_dma.c ****       \arg        DMA_CHx (x=0..7)
 668:C:/Users/stapi/OneDrive/Desktop/GD32VW553/GD32VW55X_Wifi_BLE_SDK/GD32VW55x_RELEASE_V1.0.2/MSDK/plf/GD32VW55x_standard_peripheral/Source\gd32vw55x_dma.c ****     \param[out] none
 669:C:/Users/stapi/OneDrive/Desktop/GD32VW553/GD32VW55X_Wifi_BLE_SDK/GD32VW55x_RELEASE_V1.0.2/MSDK/plf/GD32VW55x_standard_peripheral/Source\gd32vw55x_dma.c ****     \retval     the using memory
 670:C:/Users/stapi/OneDrive/Desktop/GD32VW553/GD32VW55X_Wifi_BLE_SDK/GD32VW55x_RELEASE_V1.0.2/MSDK/plf/GD32VW55x_standard_peripheral/Source\gd32vw55x_dma.c **** */
 671:C:/Users/stapi/OneDrive/Desktop/GD32VW553/GD32VW55X_Wifi_BLE_SDK/GD32VW55x_RELEASE_V1.0.2/MSDK/plf/GD32VW55x_standard_peripheral/Source\gd32vw55x_dma.c **** uint32_t dma_fifo_status_get(dma_channel_enum channelx)
 672:C:/Users/stapi/OneDrive/Desktop/GD32VW553/GD32VW55X_Wifi_BLE_SDK/GD32VW55x_RELEASE_V1.0.2/MSDK/plf/GD32VW55x_standard_peripheral/Source\gd32vw55x_dma.c **** {
 1199              		.loc 1 672 1 is_stmt 1
 1200              		.cfi_startproc
 1201              	.LVL74:
 673:C:/Users/stapi/OneDrive/Desktop/GD32VW553/GD32VW55X_Wifi_BLE_SDK/GD32VW55x_RELEASE_V1.0.2/MSDK/plf/GD32VW55x_standard_peripheral/Source\gd32vw55x_dma.c ****     return (DMA_CHFCTL(channelx) & DMA_CHXFCTL_FCNT);
 1202              		.loc 1 673 5
 1203              		.loc 1 673 13 is_stmt 0
 1204 0000 B7670240 		li	a5,1073897472
 1205 0004 6147     		li	a4,24
 1206 0006 93874702 		addi	a5,a5,36
 1207 000a FF17E5C4 		maddr32	a5, a0, a4
 1208              		.loc 1 673 34
 1209 000e 8843     		lw	a0,0(a5)
 1210              	.LVL75:
 674:C:/Users/stapi/OneDrive/Desktop/GD32VW553/GD32VW55X_Wifi_BLE_SDK/GD32VW55x_RELEASE_V1.0.2/MSDK/plf/GD32VW55x_standard_peripheral/Source\gd32vw55x_dma.c **** }
 1211              		.loc 1 674 1
 1212 0010 13758503 		andi	a0,a0,56
 1213 0014 8280     		ret
 1214              		.cfi_endproc
 1215              	.LFE392:
 1217              		.section	.text.dma_flag_get,"ax",@progbits
 1218              		.align	1
 1219              		.globl	dma_flag_get
 1221              	dma_flag_get:
 1222              	.LFB393:
 675:C:/Users/stapi/OneDrive/Desktop/GD32VW553/GD32VW55X_Wifi_BLE_SDK/GD32VW55x_RELEASE_V1.0.2/MSDK/plf/GD32VW55x_standard_peripheral/Source\gd32vw55x_dma.c **** 
 676:C:/Users/stapi/OneDrive/Desktop/GD32VW553/GD32VW55X_Wifi_BLE_SDK/GD32VW55x_RELEASE_V1.0.2/MSDK/plf/GD32VW55x_standard_peripheral/Source\gd32vw55x_dma.c **** /*!
 677:C:/Users/stapi/OneDrive/Desktop/GD32VW553/GD32VW55X_Wifi_BLE_SDK/GD32VW55x_RELEASE_V1.0.2/MSDK/plf/GD32VW55x_standard_peripheral/Source\gd32vw55x_dma.c ****     \brief      check the designated flag of a DMA channel is set or not
 678:C:/Users/stapi/OneDrive/Desktop/GD32VW553/GD32VW55X_Wifi_BLE_SDK/GD32VW55x_RELEASE_V1.0.2/MSDK/plf/GD32VW55x_standard_peripheral/Source\gd32vw55x_dma.c ****     \param[in]  channelx: specify which DMA channel to get flag
 679:C:/Users/stapi/OneDrive/Desktop/GD32VW553/GD32VW55X_Wifi_BLE_SDK/GD32VW55x_RELEASE_V1.0.2/MSDK/plf/GD32VW55x_standard_peripheral/Source\gd32vw55x_dma.c ****       \arg        DMA_CHx (x=0..7)
 680:C:/Users/stapi/OneDrive/Desktop/GD32VW553/GD32VW55X_Wifi_BLE_SDK/GD32VW55x_RELEASE_V1.0.2/MSDK/plf/GD32VW55x_standard_peripheral/Source\gd32vw55x_dma.c ****     \param[in]  flag: specify get which flag
 681:C:/Users/stapi/OneDrive/Desktop/GD32VW553/GD32VW55X_Wifi_BLE_SDK/GD32VW55x_RELEASE_V1.0.2/MSDK/plf/GD32VW55x_standard_peripheral/Source\gd32vw55x_dma.c ****                 only one parameter can be selected which is shown as below:
 682:C:/Users/stapi/OneDrive/Desktop/GD32VW553/GD32VW55X_Wifi_BLE_SDK/GD32VW55x_RELEASE_V1.0.2/MSDK/plf/GD32VW55x_standard_peripheral/Source\gd32vw55x_dma.c ****       \arg        DMA_FLAG_FEE: FIFO error and exception flag
 683:C:/Users/stapi/OneDrive/Desktop/GD32VW553/GD32VW55X_Wifi_BLE_SDK/GD32VW55x_RELEASE_V1.0.2/MSDK/plf/GD32VW55x_standard_peripheral/Source\gd32vw55x_dma.c ****       \arg        DMA_FLAG_SDE: single data mode exception flag
 684:C:/Users/stapi/OneDrive/Desktop/GD32VW553/GD32VW55X_Wifi_BLE_SDK/GD32VW55x_RELEASE_V1.0.2/MSDK/plf/GD32VW55x_standard_peripheral/Source\gd32vw55x_dma.c ****       \arg        DMA_FLAG_TAE: transfer access error flag
 685:C:/Users/stapi/OneDrive/Desktop/GD32VW553/GD32VW55X_Wifi_BLE_SDK/GD32VW55x_RELEASE_V1.0.2/MSDK/plf/GD32VW55x_standard_peripheral/Source\gd32vw55x_dma.c ****       \arg        DMA_FLAG_HTF: half transfer finish flag
 686:C:/Users/stapi/OneDrive/Desktop/GD32VW553/GD32VW55X_Wifi_BLE_SDK/GD32VW55x_RELEASE_V1.0.2/MSDK/plf/GD32VW55x_standard_peripheral/Source\gd32vw55x_dma.c ****       \arg        DMA_FLAG_FTF: full transfer finish flag
 687:C:/Users/stapi/OneDrive/Desktop/GD32VW553/GD32VW55X_Wifi_BLE_SDK/GD32VW55x_RELEASE_V1.0.2/MSDK/plf/GD32VW55x_standard_peripheral/Source\gd32vw55x_dma.c ****     \param[out] none
 688:C:/Users/stapi/OneDrive/Desktop/GD32VW553/GD32VW55X_Wifi_BLE_SDK/GD32VW55x_RELEASE_V1.0.2/MSDK/plf/GD32VW55x_standard_peripheral/Source\gd32vw55x_dma.c ****     \retval     FlagStatus: SET or RESET
 689:C:/Users/stapi/OneDrive/Desktop/GD32VW553/GD32VW55X_Wifi_BLE_SDK/GD32VW55x_RELEASE_V1.0.2/MSDK/plf/GD32VW55x_standard_peripheral/Source\gd32vw55x_dma.c **** */
 690:C:/Users/stapi/OneDrive/Desktop/GD32VW553/GD32VW55X_Wifi_BLE_SDK/GD32VW55x_RELEASE_V1.0.2/MSDK/plf/GD32VW55x_standard_peripheral/Source\gd32vw55x_dma.c **** FlagStatus dma_flag_get(dma_channel_enum channelx, uint32_t flag)
 691:C:/Users/stapi/OneDrive/Desktop/GD32VW553/GD32VW55X_Wifi_BLE_SDK/GD32VW55x_RELEASE_V1.0.2/MSDK/plf/GD32VW55x_standard_peripheral/Source\gd32vw55x_dma.c **** {
 1223              		.loc 1 691 1 is_stmt 1
 1224              		.cfi_startproc
 1225              	.LVL76:
 692:C:/Users/stapi/OneDrive/Desktop/GD32VW553/GD32VW55X_Wifi_BLE_SDK/GD32VW55x_RELEASE_V1.0.2/MSDK/plf/GD32VW55x_standard_peripheral/Source\gd32vw55x_dma.c ****     if(channelx < DMA_CH4){
 1226              		.loc 1 692 5
 1227              		.loc 1 692 7 is_stmt 0
 1228 0000 8D47     		li	a5,3
 1229 0002 63E2A702 		bgtu	a0,a5,.L68
 693:C:/Users/stapi/OneDrive/Desktop/GD32VW553/GD32VW55X_Wifi_BLE_SDK/GD32VW55x_RELEASE_V1.0.2/MSDK/plf/GD32VW55x_standard_peripheral/Source\gd32vw55x_dma.c ****         if(DMA_INTF0 & DMA_FLAG_ADD(flag, channelx)){
 1230              		.loc 1 693 9 is_stmt 1
 1231              		.loc 1 693 12 is_stmt 0
 1232 0006 B7670240 		li	a5,1073897472
 1233              		.loc 1 693 24
 1234 000a 9946     		li	a3,6
 1235              		.loc 1 693 12
 1236 000c 9843     		lw	a4,0(a5)
 1237              		.loc 1 693 24
 1238 000e 93571500 		srli	a5,a0,1
 1239 0012 3305D502 		mul	a0,a0,a3
 1240              	.LVL77:
 1241 0016 33C5A720 		sh2add	a0,a5,a0
 1242              	.LVL78:
 1243              	.L70:
 694:C:/Users/stapi/OneDrive/Desktop/GD32VW553/GD32VW55X_Wifi_BLE_SDK/GD32VW55x_RELEASE_V1.0.2/MSDK/plf/GD32VW55x_standard_peripheral/Source\gd32vw55x_dma.c ****             return SET;
 695:C:/Users/stapi/OneDrive/Desktop/GD32VW553/GD32VW55X_Wifi_BLE_SDK/GD32VW55x_RELEASE_V1.0.2/MSDK/plf/GD32VW55x_standard_peripheral/Source\gd32vw55x_dma.c ****         }else{
 696:C:/Users/stapi/OneDrive/Desktop/GD32VW553/GD32VW55X_Wifi_BLE_SDK/GD32VW55x_RELEASE_V1.0.2/MSDK/plf/GD32VW55x_standard_peripheral/Source\gd32vw55x_dma.c ****             return RESET;
 697:C:/Users/stapi/OneDrive/Desktop/GD32VW553/GD32VW55X_Wifi_BLE_SDK/GD32VW55x_RELEASE_V1.0.2/MSDK/plf/GD32VW55x_standard_peripheral/Source\gd32vw55x_dma.c ****         }
 698:C:/Users/stapi/OneDrive/Desktop/GD32VW553/GD32VW55X_Wifi_BLE_SDK/GD32VW55x_RELEASE_V1.0.2/MSDK/plf/GD32VW55x_standard_peripheral/Source\gd32vw55x_dma.c ****     }else{
 699:C:/Users/stapi/OneDrive/Desktop/GD32VW553/GD32VW55X_Wifi_BLE_SDK/GD32VW55x_RELEASE_V1.0.2/MSDK/plf/GD32VW55x_standard_peripheral/Source\gd32vw55x_dma.c ****         channelx -= (dma_channel_enum)4;
 700:C:/Users/stapi/OneDrive/Desktop/GD32VW553/GD32VW55X_Wifi_BLE_SDK/GD32VW55x_RELEASE_V1.0.2/MSDK/plf/GD32VW55x_standard_peripheral/Source\gd32vw55x_dma.c ****         if(DMA_INTF1 & DMA_FLAG_ADD(flag, channelx)){
 1244              		.loc 1 700 24
 1245 001a 3395A500 		sll	a0,a1,a0
 1246              		.loc 1 700 22
 1247 001e 798D     		and	a0,a0,a4
 1248              		.loc 1 700 11
 1249 0020 3335A000 		snez	a0,a0
 701:C:/Users/stapi/OneDrive/Desktop/GD32VW553/GD32VW55X_Wifi_BLE_SDK/GD32VW55x_RELEASE_V1.0.2/MSDK/plf/GD32VW55x_standard_peripheral/Source\gd32vw55x_dma.c ****             return SET;
 702:C:/Users/stapi/OneDrive/Desktop/GD32VW553/GD32VW55X_Wifi_BLE_SDK/GD32VW55x_RELEASE_V1.0.2/MSDK/plf/GD32VW55x_standard_peripheral/Source\gd32vw55x_dma.c ****         }else{
 703:C:/Users/stapi/OneDrive/Desktop/GD32VW553/GD32VW55X_Wifi_BLE_SDK/GD32VW55x_RELEASE_V1.0.2/MSDK/plf/GD32VW55x_standard_peripheral/Source\gd32vw55x_dma.c ****             return RESET;
 704:C:/Users/stapi/OneDrive/Desktop/GD32VW553/GD32VW55X_Wifi_BLE_SDK/GD32VW55x_RELEASE_V1.0.2/MSDK/plf/GD32VW55x_standard_peripheral/Source\gd32vw55x_dma.c ****         }
 705:C:/Users/stapi/OneDrive/Desktop/GD32VW553/GD32VW55X_Wifi_BLE_SDK/GD32VW55x_RELEASE_V1.0.2/MSDK/plf/GD32VW55x_standard_peripheral/Source\gd32vw55x_dma.c ****     }
 706:C:/Users/stapi/OneDrive/Desktop/GD32VW553/GD32VW55X_Wifi_BLE_SDK/GD32VW55x_RELEASE_V1.0.2/MSDK/plf/GD32VW55x_standard_peripheral/Source\gd32vw55x_dma.c **** }
 1250              		.loc 1 706 1
 1251 0024 8280     		ret
 1252              	.LVL79:
 1253              	.L68:
 699:C:/Users/stapi/OneDrive/Desktop/GD32VW553/GD32VW55X_Wifi_BLE_SDK/GD32VW55x_RELEASE_V1.0.2/MSDK/plf/GD32VW55x_standard_peripheral/Source\gd32vw55x_dma.c ****         if(DMA_INTF1 & DMA_FLAG_ADD(flag, channelx)){
 1254              		.loc 1 699 9 is_stmt 1
 699:C:/Users/stapi/OneDrive/Desktop/GD32VW553/GD32VW55X_Wifi_BLE_SDK/GD32VW55x_RELEASE_V1.0.2/MSDK/plf/GD32VW55x_standard_peripheral/Source\gd32vw55x_dma.c ****         if(DMA_INTF1 & DMA_FLAG_ADD(flag, channelx)){
 1255              		.loc 1 699 18 is_stmt 0
 1256 0026 9307C5FF 		addi	a5,a0,-4
 1257              	.LVL80:
 700:C:/Users/stapi/OneDrive/Desktop/GD32VW553/GD32VW55X_Wifi_BLE_SDK/GD32VW55x_RELEASE_V1.0.2/MSDK/plf/GD32VW55x_standard_peripheral/Source\gd32vw55x_dma.c ****             return SET;
 1258              		.loc 1 700 9 is_stmt 1
 700:C:/Users/stapi/OneDrive/Desktop/GD32VW553/GD32VW55X_Wifi_BLE_SDK/GD32VW55x_RELEASE_V1.0.2/MSDK/plf/GD32VW55x_standard_peripheral/Source\gd32vw55x_dma.c ****             return SET;
 1259              		.loc 1 700 24 is_stmt 0
 1260 002a 9946     		li	a3,6
 1261 002c B387D702 		mul	a5,a5,a3
 1262              	.LVL81:
 700:C:/Users/stapi/OneDrive/Desktop/GD32VW553/GD32VW55X_Wifi_BLE_SDK/GD32VW55x_RELEASE_V1.0.2/MSDK/plf/GD32VW55x_standard_peripheral/Source\gd32vw55x_dma.c ****             return SET;
 1263              		.loc 1 700 12
 1264 0030 37670240 		li	a4,1073897472
 700:C:/Users/stapi/OneDrive/Desktop/GD32VW553/GD32VW55X_Wifi_BLE_SDK/GD32VW55x_RELEASE_V1.0.2/MSDK/plf/GD32VW55x_standard_peripheral/Source\gd32vw55x_dma.c ****             return SET;
 1265              		.loc 1 700 24
 1266 0034 13551548 		bexti	a0,a0,1
 1267              	.LVL82:
 700:C:/Users/stapi/OneDrive/Desktop/GD32VW553/GD32VW55X_Wifi_BLE_SDK/GD32VW55x_RELEASE_V1.0.2/MSDK/plf/GD32VW55x_standard_peripheral/Source\gd32vw55x_dma.c ****             return SET;
 1268              		.loc 1 700 12
 1269 0038 5843     		lw	a4,4(a4)
 700:C:/Users/stapi/OneDrive/Desktop/GD32VW553/GD32VW55X_Wifi_BLE_SDK/GD32VW55x_RELEASE_V1.0.2/MSDK/plf/GD32VW55x_standard_peripheral/Source\gd32vw55x_dma.c ****             return SET;
 1270              		.loc 1 700 24
 1271 003a 3345F520 		sh2add	a0,a0,a5
 1272 003e F1BF     		j	.L70
 1273              		.cfi_endproc
 1274              	.LFE393:
 1276              		.section	.text.dma_flag_clear,"ax",@progbits
 1277              		.align	1
 1278              		.globl	dma_flag_clear
 1280              	dma_flag_clear:
 1281              	.LFB394:
 707:C:/Users/stapi/OneDrive/Desktop/GD32VW553/GD32VW55X_Wifi_BLE_SDK/GD32VW55x_RELEASE_V1.0.2/MSDK/plf/GD32VW55x_standard_peripheral/Source\gd32vw55x_dma.c **** 
 708:C:/Users/stapi/OneDrive/Desktop/GD32VW553/GD32VW55X_Wifi_BLE_SDK/GD32VW55x_RELEASE_V1.0.2/MSDK/plf/GD32VW55x_standard_peripheral/Source\gd32vw55x_dma.c **** /*!
 709:C:/Users/stapi/OneDrive/Desktop/GD32VW553/GD32VW55X_Wifi_BLE_SDK/GD32VW55x_RELEASE_V1.0.2/MSDK/plf/GD32VW55x_standard_peripheral/Source\gd32vw55x_dma.c ****     \brief      clear the designated flag of a DMA channel
 710:C:/Users/stapi/OneDrive/Desktop/GD32VW553/GD32VW55X_Wifi_BLE_SDK/GD32VW55x_RELEASE_V1.0.2/MSDK/plf/GD32VW55x_standard_peripheral/Source\gd32vw55x_dma.c ****     \param[in]  channelx: specify which DMA channel to get flag
 711:C:/Users/stapi/OneDrive/Desktop/GD32VW553/GD32VW55X_Wifi_BLE_SDK/GD32VW55x_RELEASE_V1.0.2/MSDK/plf/GD32VW55x_standard_peripheral/Source\gd32vw55x_dma.c ****       \arg        DMA_CHx (x=0..7)
 712:C:/Users/stapi/OneDrive/Desktop/GD32VW553/GD32VW55X_Wifi_BLE_SDK/GD32VW55x_RELEASE_V1.0.2/MSDK/plf/GD32VW55x_standard_peripheral/Source\gd32vw55x_dma.c ****     \param[in]  flag: specify get which flag
 713:C:/Users/stapi/OneDrive/Desktop/GD32VW553/GD32VW55X_Wifi_BLE_SDK/GD32VW55x_RELEASE_V1.0.2/MSDK/plf/GD32VW55x_standard_peripheral/Source\gd32vw55x_dma.c ****                 only one parameter can be selected which is shown as below:
 714:C:/Users/stapi/OneDrive/Desktop/GD32VW553/GD32VW55X_Wifi_BLE_SDK/GD32VW55x_RELEASE_V1.0.2/MSDK/plf/GD32VW55x_standard_peripheral/Source\gd32vw55x_dma.c ****       \arg        DMA_FLAG_FEE: FIFO error and exception flag
 715:C:/Users/stapi/OneDrive/Desktop/GD32VW553/GD32VW55X_Wifi_BLE_SDK/GD32VW55x_RELEASE_V1.0.2/MSDK/plf/GD32VW55x_standard_peripheral/Source\gd32vw55x_dma.c ****       \arg        DMA_FLAG_SDE: single data mode exception flag
 716:C:/Users/stapi/OneDrive/Desktop/GD32VW553/GD32VW55X_Wifi_BLE_SDK/GD32VW55x_RELEASE_V1.0.2/MSDK/plf/GD32VW55x_standard_peripheral/Source\gd32vw55x_dma.c ****       \arg        DMA_FLAG_TAE: transfer access error flag
 717:C:/Users/stapi/OneDrive/Desktop/GD32VW553/GD32VW55X_Wifi_BLE_SDK/GD32VW55x_RELEASE_V1.0.2/MSDK/plf/GD32VW55x_standard_peripheral/Source\gd32vw55x_dma.c ****       \arg        DMA_FLAG_HTF: half transfer finish flag
 718:C:/Users/stapi/OneDrive/Desktop/GD32VW553/GD32VW55X_Wifi_BLE_SDK/GD32VW55x_RELEASE_V1.0.2/MSDK/plf/GD32VW55x_standard_peripheral/Source\gd32vw55x_dma.c ****       \arg        DMA_FLAG_FTF: full transfer finish flag
 719:C:/Users/stapi/OneDrive/Desktop/GD32VW553/GD32VW55X_Wifi_BLE_SDK/GD32VW55x_RELEASE_V1.0.2/MSDK/plf/GD32VW55x_standard_peripheral/Source\gd32vw55x_dma.c ****     \param[out] none
 720:C:/Users/stapi/OneDrive/Desktop/GD32VW553/GD32VW55X_Wifi_BLE_SDK/GD32VW55x_RELEASE_V1.0.2/MSDK/plf/GD32VW55x_standard_peripheral/Source\gd32vw55x_dma.c ****     \retval     none
 721:C:/Users/stapi/OneDrive/Desktop/GD32VW553/GD32VW55X_Wifi_BLE_SDK/GD32VW55x_RELEASE_V1.0.2/MSDK/plf/GD32VW55x_standard_peripheral/Source\gd32vw55x_dma.c **** */
 722:C:/Users/stapi/OneDrive/Desktop/GD32VW553/GD32VW55X_Wifi_BLE_SDK/GD32VW55x_RELEASE_V1.0.2/MSDK/plf/GD32VW55x_standard_peripheral/Source\gd32vw55x_dma.c **** void dma_flag_clear(dma_channel_enum channelx, uint32_t flag)
 723:C:/Users/stapi/OneDrive/Desktop/GD32VW553/GD32VW55X_Wifi_BLE_SDK/GD32VW55x_RELEASE_V1.0.2/MSDK/plf/GD32VW55x_standard_peripheral/Source\gd32vw55x_dma.c **** {
 1282              		.loc 1 723 1 is_stmt 1
 1283              		.cfi_startproc
 1284              	.LVL83:
 724:C:/Users/stapi/OneDrive/Desktop/GD32VW553/GD32VW55X_Wifi_BLE_SDK/GD32VW55x_RELEASE_V1.0.2/MSDK/plf/GD32VW55x_standard_peripheral/Source\gd32vw55x_dma.c ****     if(channelx < DMA_CH4){
 1285              		.loc 1 724 5
 1286              		.loc 1 724 7 is_stmt 0
 1287 0000 8D47     		li	a5,3
 1288 0002 63E1A702 		bgtu	a0,a5,.L72
 725:C:/Users/stapi/OneDrive/Desktop/GD32VW553/GD32VW55X_Wifi_BLE_SDK/GD32VW55x_RELEASE_V1.0.2/MSDK/plf/GD32VW55x_standard_peripheral/Source\gd32vw55x_dma.c ****           DMA_INTC0 |= DMA_FLAG_ADD(flag, channelx);
 1289              		.loc 1 725 11 is_stmt 1
 1290              		.loc 1 725 24 is_stmt 0
 1291 0006 1946     		li	a2,6
 1292 0008 93571500 		srli	a5,a0,1
 1293 000c 3305C502 		mul	a0,a0,a2
 1294              	.LVL84:
 1295              		.loc 1 725 21
 1296 0010 37670240 		li	a4,1073897472
 1297 0014 1447     		lw	a3,8(a4)
 1298              		.loc 1 725 24
 1299 0016 33C5A720 		sh2add	a0,a5,a0
 1300 001a B395A500 		sll	a1,a1,a0
 1301              	.LVL85:
 1302              		.loc 1 725 21
 1303 001e D58D     		or	a1,a1,a3
 1304 0020 0CC7     		sw	a1,8(a4)
 1305 0022 8280     		ret
 1306              	.LVL86:
 1307              	.L72:
 726:C:/Users/stapi/OneDrive/Desktop/GD32VW553/GD32VW55X_Wifi_BLE_SDK/GD32VW55x_RELEASE_V1.0.2/MSDK/plf/GD32VW55x_standard_peripheral/Source\gd32vw55x_dma.c ****     }else{
 727:C:/Users/stapi/OneDrive/Desktop/GD32VW553/GD32VW55X_Wifi_BLE_SDK/GD32VW55x_RELEASE_V1.0.2/MSDK/plf/GD32VW55x_standard_peripheral/Source\gd32vw55x_dma.c ****           channelx -= (dma_channel_enum)4;
 1308              		.loc 1 727 11 is_stmt 1
 1309              		.loc 1 727 20 is_stmt 0
 1310 0024 9307C5FF 		addi	a5,a0,-4
 1311              	.LVL87:
 728:C:/Users/stapi/OneDrive/Desktop/GD32VW553/GD32VW55X_Wifi_BLE_SDK/GD32VW55x_RELEASE_V1.0.2/MSDK/plf/GD32VW55x_standard_peripheral/Source\gd32vw55x_dma.c ****           DMA_INTC1 |= DMA_FLAG_ADD(flag, channelx);
 1312              		.loc 1 728 11 is_stmt 1
 1313              		.loc 1 728 24 is_stmt 0
 1314 0028 1946     		li	a2,6
 1315 002a B387C702 		mul	a5,a5,a2
 1316              	.LVL88:
 1317              		.loc 1 728 21
 1318 002e 37670240 		li	a4,1073897472
 1319 0032 5447     		lw	a3,12(a4)
 1320              		.loc 1 728 24
 1321 0034 13551548 		bexti	a0,a0,1
 1322              	.LVL89:
 1323 0038 3345F520 		sh2add	a0,a0,a5
 1324 003c B395A500 		sll	a1,a1,a0
 1325              	.LVL90:
 1326              		.loc 1 728 21
 1327 0040 D58D     		or	a1,a1,a3
 1328 0042 4CC7     		sw	a1,12(a4)
 729:C:/Users/stapi/OneDrive/Desktop/GD32VW553/GD32VW55X_Wifi_BLE_SDK/GD32VW55x_RELEASE_V1.0.2/MSDK/plf/GD32VW55x_standard_peripheral/Source\gd32vw55x_dma.c ****     }
 730:C:/Users/stapi/OneDrive/Desktop/GD32VW553/GD32VW55X_Wifi_BLE_SDK/GD32VW55x_RELEASE_V1.0.2/MSDK/plf/GD32VW55x_standard_peripheral/Source\gd32vw55x_dma.c **** }
 1329              		.loc 1 730 1
 1330 0044 8280     		ret
 1331              		.cfi_endproc
 1332              	.LFE394:
 1334              		.section	.text.dma_interrupt_enable,"ax",@progbits
 1335              		.align	1
 1336              		.globl	dma_interrupt_enable
 1338              	dma_interrupt_enable:
 1339              	.LFB395:
 731:C:/Users/stapi/OneDrive/Desktop/GD32VW553/GD32VW55X_Wifi_BLE_SDK/GD32VW55x_RELEASE_V1.0.2/MSDK/plf/GD32VW55x_standard_peripheral/Source\gd32vw55x_dma.c **** 
 732:C:/Users/stapi/OneDrive/Desktop/GD32VW553/GD32VW55X_Wifi_BLE_SDK/GD32VW55x_RELEASE_V1.0.2/MSDK/plf/GD32VW55x_standard_peripheral/Source\gd32vw55x_dma.c **** /*!
 733:C:/Users/stapi/OneDrive/Desktop/GD32VW553/GD32VW55X_Wifi_BLE_SDK/GD32VW55x_RELEASE_V1.0.2/MSDK/plf/GD32VW55x_standard_peripheral/Source\gd32vw55x_dma.c ****     \brief      enable DMA interrupt
 734:C:/Users/stapi/OneDrive/Desktop/GD32VW553/GD32VW55X_Wifi_BLE_SDK/GD32VW55x_RELEASE_V1.0.2/MSDK/plf/GD32VW55x_standard_peripheral/Source\gd32vw55x_dma.c ****     \param[in]  channelx: specify which DMA channel
 735:C:/Users/stapi/OneDrive/Desktop/GD32VW553/GD32VW55X_Wifi_BLE_SDK/GD32VW55x_RELEASE_V1.0.2/MSDK/plf/GD32VW55x_standard_peripheral/Source\gd32vw55x_dma.c ****       \arg        DMA_CHx (x=0..7)
 736:C:/Users/stapi/OneDrive/Desktop/GD32VW553/GD32VW55X_Wifi_BLE_SDK/GD32VW55x_RELEASE_V1.0.2/MSDK/plf/GD32VW55x_standard_peripheral/Source\gd32vw55x_dma.c ****     \param[in]  interrupt: specify which interrupt to enable
 737:C:/Users/stapi/OneDrive/Desktop/GD32VW553/GD32VW55X_Wifi_BLE_SDK/GD32VW55x_RELEASE_V1.0.2/MSDK/plf/GD32VW55x_standard_peripheral/Source\gd32vw55x_dma.c ****                 one or more parameters can be selected which are shown as below:
 738:C:/Users/stapi/OneDrive/Desktop/GD32VW553/GD32VW55X_Wifi_BLE_SDK/GD32VW55x_RELEASE_V1.0.2/MSDK/plf/GD32VW55x_standard_peripheral/Source\gd32vw55x_dma.c ****       \arg        DMA_INT_SDE: single data mode exception interrupt enable
 739:C:/Users/stapi/OneDrive/Desktop/GD32VW553/GD32VW55X_Wifi_BLE_SDK/GD32VW55x_RELEASE_V1.0.2/MSDK/plf/GD32VW55x_standard_peripheral/Source\gd32vw55x_dma.c ****       \arg        DMA_INT_TAE: transfer access error interrupt enable
 740:C:/Users/stapi/OneDrive/Desktop/GD32VW553/GD32VW55X_Wifi_BLE_SDK/GD32VW55x_RELEASE_V1.0.2/MSDK/plf/GD32VW55x_standard_peripheral/Source\gd32vw55x_dma.c ****       \arg        DMA_INT_HTF: half transfer finish interrupt enable
 741:C:/Users/stapi/OneDrive/Desktop/GD32VW553/GD32VW55X_Wifi_BLE_SDK/GD32VW55x_RELEASE_V1.0.2/MSDK/plf/GD32VW55x_standard_peripheral/Source\gd32vw55x_dma.c ****       \arg        DMA_INT_FTF: full transfer finish interrupt enable
 742:C:/Users/stapi/OneDrive/Desktop/GD32VW553/GD32VW55X_Wifi_BLE_SDK/GD32VW55x_RELEASE_V1.0.2/MSDK/plf/GD32VW55x_standard_peripheral/Source\gd32vw55x_dma.c ****       \arg        DMA_INT_FEE: FIFO exception interrupt enable
 743:C:/Users/stapi/OneDrive/Desktop/GD32VW553/GD32VW55X_Wifi_BLE_SDK/GD32VW55x_RELEASE_V1.0.2/MSDK/plf/GD32VW55x_standard_peripheral/Source\gd32vw55x_dma.c ****     \param[out] none
 744:C:/Users/stapi/OneDrive/Desktop/GD32VW553/GD32VW55X_Wifi_BLE_SDK/GD32VW55x_RELEASE_V1.0.2/MSDK/plf/GD32VW55x_standard_peripheral/Source\gd32vw55x_dma.c ****     \retval     none
 745:C:/Users/stapi/OneDrive/Desktop/GD32VW553/GD32VW55X_Wifi_BLE_SDK/GD32VW55x_RELEASE_V1.0.2/MSDK/plf/GD32VW55x_standard_peripheral/Source\gd32vw55x_dma.c **** */
 746:C:/Users/stapi/OneDrive/Desktop/GD32VW553/GD32VW55X_Wifi_BLE_SDK/GD32VW55x_RELEASE_V1.0.2/MSDK/plf/GD32VW55x_standard_peripheral/Source\gd32vw55x_dma.c **** void dma_interrupt_enable(dma_channel_enum channelx, uint32_t interrupt)
 747:C:/Users/stapi/OneDrive/Desktop/GD32VW553/GD32VW55X_Wifi_BLE_SDK/GD32VW55x_RELEASE_V1.0.2/MSDK/plf/GD32VW55x_standard_peripheral/Source\gd32vw55x_dma.c **** {
 1340              		.loc 1 747 1 is_stmt 1
 1341              		.cfi_startproc
 1342              	.LVL91:
 748:C:/Users/stapi/OneDrive/Desktop/GD32VW553/GD32VW55X_Wifi_BLE_SDK/GD32VW55x_RELEASE_V1.0.2/MSDK/plf/GD32VW55x_standard_peripheral/Source\gd32vw55x_dma.c ****     if(DMA_CHXFCTL_FEEIE != interrupt){
 1343              		.loc 1 748 5
 749:C:/Users/stapi/OneDrive/Desktop/GD32VW553/GD32VW55X_Wifi_BLE_SDK/GD32VW55x_RELEASE_V1.0.2/MSDK/plf/GD32VW55x_standard_peripheral/Source\gd32vw55x_dma.c ****         DMA_CHCTL(channelx) |= interrupt;
 1344              		.loc 1 749 29 is_stmt 0
 1345 0000 E147     		li	a5,24
 1346 0002 3305F502 		mul	a0,a0,a5
 1347              	.LVL92:
 748:C:/Users/stapi/OneDrive/Desktop/GD32VW553/GD32VW55X_Wifi_BLE_SDK/GD32VW55x_RELEASE_V1.0.2/MSDK/plf/GD32VW55x_standard_peripheral/Source\gd32vw55x_dma.c ****     if(DMA_CHXFCTL_FEEIE != interrupt){
 1348              		.loc 1 748 7
 1349 0006 93070008 		li	a5,128
 1350 000a 638AF500 		beq	a1,a5,.L75
 1351              		.loc 1 749 9 is_stmt 1
 1352              		.loc 1 749 29 is_stmt 0
 1353 000e B7670240 		li	a5,1073897472
 1354 0012 C107     		addi	a5,a5,16
 1355 0014 3E95     		add	a0,a0,a5
 1356 0016 1C41     		lw	a5,0(a0)
 1357 0018 DD8D     		or	a1,a5,a1
 1358              	.LVL93:
 1359 001a 0CC1     		sw	a1,0(a0)
 1360 001c 8280     		ret
 1361              	.LVL94:
 1362              	.L75:
 750:C:/Users/stapi/OneDrive/Desktop/GD32VW553/GD32VW55X_Wifi_BLE_SDK/GD32VW55x_RELEASE_V1.0.2/MSDK/plf/GD32VW55x_standard_peripheral/Source\gd32vw55x_dma.c ****     }else{
 751:C:/Users/stapi/OneDrive/Desktop/GD32VW553/GD32VW55X_Wifi_BLE_SDK/GD32VW55x_RELEASE_V1.0.2/MSDK/plf/GD32VW55x_standard_peripheral/Source\gd32vw55x_dma.c ****         DMA_CHFCTL(channelx) |= interrupt;
 1363              		.loc 1 751 9 is_stmt 1
 1364              		.loc 1 751 30 is_stmt 0
 1365 001e B7670240 		li	a5,1073897472
 1366 0022 93874702 		addi	a5,a5,36
 1367 0026 3E95     		add	a0,a0,a5
 1368 0028 1C41     		lw	a5,0(a0)
 1369 002a 93E70708 		ori	a5,a5,128
 1370 002e 1CC1     		sw	a5,0(a0)
 752:C:/Users/stapi/OneDrive/Desktop/GD32VW553/GD32VW55X_Wifi_BLE_SDK/GD32VW55x_RELEASE_V1.0.2/MSDK/plf/GD32VW55x_standard_peripheral/Source\gd32vw55x_dma.c ****     }
 753:C:/Users/stapi/OneDrive/Desktop/GD32VW553/GD32VW55X_Wifi_BLE_SDK/GD32VW55x_RELEASE_V1.0.2/MSDK/plf/GD32VW55x_standard_peripheral/Source\gd32vw55x_dma.c **** }
 1371              		.loc 1 753 1
 1372 0030 8280     		ret
 1373              		.cfi_endproc
 1374              	.LFE395:
 1376              		.section	.text.dma_interrupt_disable,"ax",@progbits
 1377              		.align	1
 1378              		.globl	dma_interrupt_disable
 1380              	dma_interrupt_disable:
 1381              	.LFB396:
 754:C:/Users/stapi/OneDrive/Desktop/GD32VW553/GD32VW55X_Wifi_BLE_SDK/GD32VW55x_RELEASE_V1.0.2/MSDK/plf/GD32VW55x_standard_peripheral/Source\gd32vw55x_dma.c **** 
 755:C:/Users/stapi/OneDrive/Desktop/GD32VW553/GD32VW55X_Wifi_BLE_SDK/GD32VW55x_RELEASE_V1.0.2/MSDK/plf/GD32VW55x_standard_peripheral/Source\gd32vw55x_dma.c **** /*!
 756:C:/Users/stapi/OneDrive/Desktop/GD32VW553/GD32VW55X_Wifi_BLE_SDK/GD32VW55x_RELEASE_V1.0.2/MSDK/plf/GD32VW55x_standard_peripheral/Source\gd32vw55x_dma.c ****     \brief      disable DMA interrupt
 757:C:/Users/stapi/OneDrive/Desktop/GD32VW553/GD32VW55X_Wifi_BLE_SDK/GD32VW55x_RELEASE_V1.0.2/MSDK/plf/GD32VW55x_standard_peripheral/Source\gd32vw55x_dma.c ****     \param[in]  channelx: specify which DMA channel
 758:C:/Users/stapi/OneDrive/Desktop/GD32VW553/GD32VW55X_Wifi_BLE_SDK/GD32VW55x_RELEASE_V1.0.2/MSDK/plf/GD32VW55x_standard_peripheral/Source\gd32vw55x_dma.c ****       \arg        DMA_CHx (x=0..7)
 759:C:/Users/stapi/OneDrive/Desktop/GD32VW553/GD32VW55X_Wifi_BLE_SDK/GD32VW55x_RELEASE_V1.0.2/MSDK/plf/GD32VW55x_standard_peripheral/Source\gd32vw55x_dma.c ****     \param[in]  interrupt: specify which interrupt to disable
 760:C:/Users/stapi/OneDrive/Desktop/GD32VW553/GD32VW55X_Wifi_BLE_SDK/GD32VW55x_RELEASE_V1.0.2/MSDK/plf/GD32VW55x_standard_peripheral/Source\gd32vw55x_dma.c ****                 one or more parameters can be selected which are shown as below:
 761:C:/Users/stapi/OneDrive/Desktop/GD32VW553/GD32VW55X_Wifi_BLE_SDK/GD32VW55x_RELEASE_V1.0.2/MSDK/plf/GD32VW55x_standard_peripheral/Source\gd32vw55x_dma.c ****       \arg        DMA_INT_SDE: single data mode exception interrupt enable
 762:C:/Users/stapi/OneDrive/Desktop/GD32VW553/GD32VW55X_Wifi_BLE_SDK/GD32VW55x_RELEASE_V1.0.2/MSDK/plf/GD32VW55x_standard_peripheral/Source\gd32vw55x_dma.c ****       \arg        DMA_INT_TAE: transfer access error interrupt enable
 763:C:/Users/stapi/OneDrive/Desktop/GD32VW553/GD32VW55X_Wifi_BLE_SDK/GD32VW55x_RELEASE_V1.0.2/MSDK/plf/GD32VW55x_standard_peripheral/Source\gd32vw55x_dma.c ****       \arg        DMA_INT_HTF: half transfer finish interrupt enable
 764:C:/Users/stapi/OneDrive/Desktop/GD32VW553/GD32VW55X_Wifi_BLE_SDK/GD32VW55x_RELEASE_V1.0.2/MSDK/plf/GD32VW55x_standard_peripheral/Source\gd32vw55x_dma.c ****       \arg        DMA_INT_FTF: full transfer finish interrupt enable
 765:C:/Users/stapi/OneDrive/Desktop/GD32VW553/GD32VW55X_Wifi_BLE_SDK/GD32VW55x_RELEASE_V1.0.2/MSDK/plf/GD32VW55x_standard_peripheral/Source\gd32vw55x_dma.c ****       \arg        DMA_INT_FEE: FIFO exception interrupt enable
 766:C:/Users/stapi/OneDrive/Desktop/GD32VW553/GD32VW55X_Wifi_BLE_SDK/GD32VW55x_RELEASE_V1.0.2/MSDK/plf/GD32VW55x_standard_peripheral/Source\gd32vw55x_dma.c ****     \param[out] none
 767:C:/Users/stapi/OneDrive/Desktop/GD32VW553/GD32VW55X_Wifi_BLE_SDK/GD32VW55x_RELEASE_V1.0.2/MSDK/plf/GD32VW55x_standard_peripheral/Source\gd32vw55x_dma.c ****     \retval     none
 768:C:/Users/stapi/OneDrive/Desktop/GD32VW553/GD32VW55X_Wifi_BLE_SDK/GD32VW55x_RELEASE_V1.0.2/MSDK/plf/GD32VW55x_standard_peripheral/Source\gd32vw55x_dma.c **** */
 769:C:/Users/stapi/OneDrive/Desktop/GD32VW553/GD32VW55X_Wifi_BLE_SDK/GD32VW55x_RELEASE_V1.0.2/MSDK/plf/GD32VW55x_standard_peripheral/Source\gd32vw55x_dma.c **** void dma_interrupt_disable(dma_channel_enum channelx,uint32_t interrupt)
 770:C:/Users/stapi/OneDrive/Desktop/GD32VW553/GD32VW55X_Wifi_BLE_SDK/GD32VW55x_RELEASE_V1.0.2/MSDK/plf/GD32VW55x_standard_peripheral/Source\gd32vw55x_dma.c **** {
 1382              		.loc 1 770 1 is_stmt 1
 1383              		.cfi_startproc
 1384              	.LVL95:
 771:C:/Users/stapi/OneDrive/Desktop/GD32VW553/GD32VW55X_Wifi_BLE_SDK/GD32VW55x_RELEASE_V1.0.2/MSDK/plf/GD32VW55x_standard_peripheral/Source\gd32vw55x_dma.c ****     if(DMA_CHXFCTL_FEEIE != interrupt){
 1385              		.loc 1 771 5
 772:C:/Users/stapi/OneDrive/Desktop/GD32VW553/GD32VW55X_Wifi_BLE_SDK/GD32VW55x_RELEASE_V1.0.2/MSDK/plf/GD32VW55x_standard_peripheral/Source\gd32vw55x_dma.c ****         DMA_CHCTL(channelx) &= ~interrupt;
 1386              		.loc 1 772 29 is_stmt 0
 1387 0000 E147     		li	a5,24
 1388 0002 3305F502 		mul	a0,a0,a5
 1389              	.LVL96:
 771:C:/Users/stapi/OneDrive/Desktop/GD32VW553/GD32VW55X_Wifi_BLE_SDK/GD32VW55x_RELEASE_V1.0.2/MSDK/plf/GD32VW55x_standard_peripheral/Source\gd32vw55x_dma.c ****     if(DMA_CHXFCTL_FEEIE != interrupt){
 1390              		.loc 1 771 7
 1391 0006 93070008 		li	a5,128
 1392 000a 638BF500 		beq	a1,a5,.L78
 1393              		.loc 1 772 9 is_stmt 1
 1394              		.loc 1 772 29 is_stmt 0
 1395 000e B7670240 		li	a5,1073897472
 1396 0012 C107     		addi	a5,a5,16
 1397 0014 3E95     		add	a0,a0,a5
 1398 0016 1C41     		lw	a5,0(a0)
 1399 0018 B3F5B740 		andn	a1,a5,a1
 1400              	.LVL97:
 1401 001c 0CC1     		sw	a1,0(a0)
 1402 001e 8280     		ret
 1403              	.LVL98:
 1404              	.L78:
 773:C:/Users/stapi/OneDrive/Desktop/GD32VW553/GD32VW55X_Wifi_BLE_SDK/GD32VW55x_RELEASE_V1.0.2/MSDK/plf/GD32VW55x_standard_peripheral/Source\gd32vw55x_dma.c ****     }else{
 774:C:/Users/stapi/OneDrive/Desktop/GD32VW553/GD32VW55X_Wifi_BLE_SDK/GD32VW55x_RELEASE_V1.0.2/MSDK/plf/GD32VW55x_standard_peripheral/Source\gd32vw55x_dma.c ****         DMA_CHFCTL(channelx) &= ~interrupt;
 1405              		.loc 1 774 9 is_stmt 1
 1406              		.loc 1 774 30 is_stmt 0
 1407 0020 B7670240 		li	a5,1073897472
 1408 0024 93874702 		addi	a5,a5,36
 1409 0028 3E95     		add	a0,a0,a5
 1410 002a 1C41     		lw	a5,0(a0)
 1411 002c 93F7F7F7 		andi	a5,a5,-129
 1412 0030 1CC1     		sw	a5,0(a0)
 775:C:/Users/stapi/OneDrive/Desktop/GD32VW553/GD32VW55X_Wifi_BLE_SDK/GD32VW55x_RELEASE_V1.0.2/MSDK/plf/GD32VW55x_standard_peripheral/Source\gd32vw55x_dma.c ****     }
 776:C:/Users/stapi/OneDrive/Desktop/GD32VW553/GD32VW55X_Wifi_BLE_SDK/GD32VW55x_RELEASE_V1.0.2/MSDK/plf/GD32VW55x_standard_peripheral/Source\gd32vw55x_dma.c **** }
 1413              		.loc 1 776 1
 1414 0032 8280     		ret
 1415              		.cfi_endproc
 1416              	.LFE396:
 1418              		.section	.text.dma_interrupt_flag_get,"ax",@progbits
 1419              		.align	1
 1420              		.globl	dma_interrupt_flag_get
 1422              	dma_interrupt_flag_get:
 1423              	.LFB397:
 777:C:/Users/stapi/OneDrive/Desktop/GD32VW553/GD32VW55X_Wifi_BLE_SDK/GD32VW55x_RELEASE_V1.0.2/MSDK/plf/GD32VW55x_standard_peripheral/Source\gd32vw55x_dma.c **** 
 778:C:/Users/stapi/OneDrive/Desktop/GD32VW553/GD32VW55X_Wifi_BLE_SDK/GD32VW55x_RELEASE_V1.0.2/MSDK/plf/GD32VW55x_standard_peripheral/Source\gd32vw55x_dma.c **** /*!
 779:C:/Users/stapi/OneDrive/Desktop/GD32VW553/GD32VW55X_Wifi_BLE_SDK/GD32VW55x_RELEASE_V1.0.2/MSDK/plf/GD32VW55x_standard_peripheral/Source\gd32vw55x_dma.c ****     \brief      check DMA interrupt flag is set or not
 780:C:/Users/stapi/OneDrive/Desktop/GD32VW553/GD32VW55X_Wifi_BLE_SDK/GD32VW55x_RELEASE_V1.0.2/MSDK/plf/GD32VW55x_standard_peripheral/Source\gd32vw55x_dma.c ****     \param[in]  channelx: specify which DMA channel to get interrupt flag
 781:C:/Users/stapi/OneDrive/Desktop/GD32VW553/GD32VW55X_Wifi_BLE_SDK/GD32VW55x_RELEASE_V1.0.2/MSDK/plf/GD32VW55x_standard_peripheral/Source\gd32vw55x_dma.c ****       \arg        DMA_CHx (x=0..7)
 782:C:/Users/stapi/OneDrive/Desktop/GD32VW553/GD32VW55X_Wifi_BLE_SDK/GD32VW55x_RELEASE_V1.0.2/MSDK/plf/GD32VW55x_standard_peripheral/Source\gd32vw55x_dma.c ****     \param[in]  interrupt: specify get which flag
 783:C:/Users/stapi/OneDrive/Desktop/GD32VW553/GD32VW55X_Wifi_BLE_SDK/GD32VW55x_RELEASE_V1.0.2/MSDK/plf/GD32VW55x_standard_peripheral/Source\gd32vw55x_dma.c ****                 only one parameter can be selected which is shown as below:
 784:C:/Users/stapi/OneDrive/Desktop/GD32VW553/GD32VW55X_Wifi_BLE_SDK/GD32VW55x_RELEASE_V1.0.2/MSDK/plf/GD32VW55x_standard_peripheral/Source\gd32vw55x_dma.c ****       \arg        DMA_INT_FLAG_FEE: FIFO error and exception interrupt flag
 785:C:/Users/stapi/OneDrive/Desktop/GD32VW553/GD32VW55X_Wifi_BLE_SDK/GD32VW55x_RELEASE_V1.0.2/MSDK/plf/GD32VW55x_standard_peripheral/Source\gd32vw55x_dma.c ****       \arg        DMA_INT_FLAG_SDE: single data mode exception interrupt flag
 786:C:/Users/stapi/OneDrive/Desktop/GD32VW553/GD32VW55X_Wifi_BLE_SDK/GD32VW55x_RELEASE_V1.0.2/MSDK/plf/GD32VW55x_standard_peripheral/Source\gd32vw55x_dma.c ****       \arg        DMA_INT_FLAG_TAE: transfer access error interrupt flag
 787:C:/Users/stapi/OneDrive/Desktop/GD32VW553/GD32VW55X_Wifi_BLE_SDK/GD32VW55x_RELEASE_V1.0.2/MSDK/plf/GD32VW55x_standard_peripheral/Source\gd32vw55x_dma.c ****       \arg        DMA_INT_FLAG_HTF: half transfer finish interrupt flag
 788:C:/Users/stapi/OneDrive/Desktop/GD32VW553/GD32VW55X_Wifi_BLE_SDK/GD32VW55x_RELEASE_V1.0.2/MSDK/plf/GD32VW55x_standard_peripheral/Source\gd32vw55x_dma.c ****       \arg        DMA_INT_FLAG_FTF: full transfer finish interrupt flag
 789:C:/Users/stapi/OneDrive/Desktop/GD32VW553/GD32VW55X_Wifi_BLE_SDK/GD32VW55x_RELEASE_V1.0.2/MSDK/plf/GD32VW55x_standard_peripheral/Source\gd32vw55x_dma.c ****     \param[out] none
 790:C:/Users/stapi/OneDrive/Desktop/GD32VW553/GD32VW55X_Wifi_BLE_SDK/GD32VW55x_RELEASE_V1.0.2/MSDK/plf/GD32VW55x_standard_peripheral/Source\gd32vw55x_dma.c ****     \retval     FlagStatus: SET or RESET
 791:C:/Users/stapi/OneDrive/Desktop/GD32VW553/GD32VW55X_Wifi_BLE_SDK/GD32VW55x_RELEASE_V1.0.2/MSDK/plf/GD32VW55x_standard_peripheral/Source\gd32vw55x_dma.c **** */
 792:C:/Users/stapi/OneDrive/Desktop/GD32VW553/GD32VW55X_Wifi_BLE_SDK/GD32VW55x_RELEASE_V1.0.2/MSDK/plf/GD32VW55x_standard_peripheral/Source\gd32vw55x_dma.c **** FlagStatus dma_interrupt_flag_get(dma_channel_enum channelx, uint32_t int_flag)
 793:C:/Users/stapi/OneDrive/Desktop/GD32VW553/GD32VW55X_Wifi_BLE_SDK/GD32VW55x_RELEASE_V1.0.2/MSDK/plf/GD32VW55x_standard_peripheral/Source\gd32vw55x_dma.c **** {
 1424              		.loc 1 793 1 is_stmt 1
 1425              		.cfi_startproc
 1426              	.LVL99:
 794:C:/Users/stapi/OneDrive/Desktop/GD32VW553/GD32VW55X_Wifi_BLE_SDK/GD32VW55x_RELEASE_V1.0.2/MSDK/plf/GD32VW55x_standard_peripheral/Source\gd32vw55x_dma.c ****     uint32_t interrupt_enable = 0U,interrupt_flag = 0U;
 1427              		.loc 1 794 5
 795:C:/Users/stapi/OneDrive/Desktop/GD32VW553/GD32VW55X_Wifi_BLE_SDK/GD32VW55x_RELEASE_V1.0.2/MSDK/plf/GD32VW55x_standard_peripheral/Source\gd32vw55x_dma.c ****     dma_channel_enum channel_flag_offset = channelx;
 1428              		.loc 1 795 5
 796:C:/Users/stapi/OneDrive/Desktop/GD32VW553/GD32VW55X_Wifi_BLE_SDK/GD32VW55x_RELEASE_V1.0.2/MSDK/plf/GD32VW55x_standard_peripheral/Source\gd32vw55x_dma.c ****     if(channelx < DMA_CH4){
 1429              		.loc 1 796 5
 1430              		.loc 1 796 7 is_stmt 0
 1431 0000 0D47     		li	a4,3
 793:C:/Users/stapi/OneDrive/Desktop/GD32VW553/GD32VW55X_Wifi_BLE_SDK/GD32VW55x_RELEASE_V1.0.2/MSDK/plf/GD32VW55x_standard_peripheral/Source\gd32vw55x_dma.c ****     uint32_t interrupt_enable = 0U,interrupt_flag = 0U;
 1432              		.loc 1 793 1
 1433 0002 AA87     		mv	a5,a0
 1434              		.loc 1 796 7
 1435 0004 636FA70E 		bgtu	a0,a4,.L81
 797:C:/Users/stapi/OneDrive/Desktop/GD32VW553/GD32VW55X_Wifi_BLE_SDK/GD32VW55x_RELEASE_V1.0.2/MSDK/plf/GD32VW55x_standard_peripheral/Source\gd32vw55x_dma.c ****         switch(int_flag){
 1436              		.loc 1 797 9 is_stmt 1
 1437 0008 2147     		li	a4,8
 1438 000a 6384E50A 		beq	a1,a4,.L82
 1439 000e 636AB700 		bgtu	a1,a4,.L83
 1440 0012 0547     		li	a4,1
 1441 0014 6382E504 		beq	a1,a4,.L84
 1442 0018 1147     		li	a4,4
 1443 001a 6388E506 		beq	a1,a4,.L85
 1444              	.LVL100:
 1445              	.L105:
 798:C:/Users/stapi/OneDrive/Desktop/GD32VW553/GD32VW55X_Wifi_BLE_SDK/GD32VW55x_RELEASE_V1.0.2/MSDK/plf/GD32VW55x_standard_peripheral/Source\gd32vw55x_dma.c ****         case DMA_INTF_FEEIF:
 799:C:/Users/stapi/OneDrive/Desktop/GD32VW553/GD32VW55X_Wifi_BLE_SDK/GD32VW55x_RELEASE_V1.0.2/MSDK/plf/GD32VW55x_standard_peripheral/Source\gd32vw55x_dma.c ****             interrupt_flag = DMA_INTF0 & DMA_FLAG_ADD(int_flag, channelx);
 800:C:/Users/stapi/OneDrive/Desktop/GD32VW553/GD32VW55X_Wifi_BLE_SDK/GD32VW55x_RELEASE_V1.0.2/MSDK/plf/GD32VW55x_standard_peripheral/Source\gd32vw55x_dma.c ****             interrupt_enable = DMA_CHFCTL(channelx) & DMA_CHXFCTL_FEEIE;
 801:C:/Users/stapi/OneDrive/Desktop/GD32VW553/GD32VW55X_Wifi_BLE_SDK/GD32VW55x_RELEASE_V1.0.2/MSDK/plf/GD32VW55x_standard_peripheral/Source\gd32vw55x_dma.c ****             break;
 802:C:/Users/stapi/OneDrive/Desktop/GD32VW553/GD32VW55X_Wifi_BLE_SDK/GD32VW55x_RELEASE_V1.0.2/MSDK/plf/GD32VW55x_standard_peripheral/Source\gd32vw55x_dma.c ****         case DMA_INTF_SDEIF:
 803:C:/Users/stapi/OneDrive/Desktop/GD32VW553/GD32VW55X_Wifi_BLE_SDK/GD32VW55x_RELEASE_V1.0.2/MSDK/plf/GD32VW55x_standard_peripheral/Source\gd32vw55x_dma.c ****             interrupt_flag = DMA_INTF0 & DMA_FLAG_ADD(int_flag, channelx);
 804:C:/Users/stapi/OneDrive/Desktop/GD32VW553/GD32VW55X_Wifi_BLE_SDK/GD32VW55x_RELEASE_V1.0.2/MSDK/plf/GD32VW55x_standard_peripheral/Source\gd32vw55x_dma.c ****             interrupt_enable = DMA_CHCTL(channelx) & DMA_CHXCTL_SDEIE;
 805:C:/Users/stapi/OneDrive/Desktop/GD32VW553/GD32VW55X_Wifi_BLE_SDK/GD32VW55x_RELEASE_V1.0.2/MSDK/plf/GD32VW55x_standard_peripheral/Source\gd32vw55x_dma.c ****             break;
 806:C:/Users/stapi/OneDrive/Desktop/GD32VW553/GD32VW55X_Wifi_BLE_SDK/GD32VW55x_RELEASE_V1.0.2/MSDK/plf/GD32VW55x_standard_peripheral/Source\gd32vw55x_dma.c ****         case DMA_INTF_TAEIF:
 807:C:/Users/stapi/OneDrive/Desktop/GD32VW553/GD32VW55X_Wifi_BLE_SDK/GD32VW55x_RELEASE_V1.0.2/MSDK/plf/GD32VW55x_standard_peripheral/Source\gd32vw55x_dma.c ****             interrupt_flag = DMA_INTF0 & DMA_FLAG_ADD(int_flag, channelx);
 808:C:/Users/stapi/OneDrive/Desktop/GD32VW553/GD32VW55X_Wifi_BLE_SDK/GD32VW55x_RELEASE_V1.0.2/MSDK/plf/GD32VW55x_standard_peripheral/Source\gd32vw55x_dma.c ****             interrupt_enable = DMA_CHCTL(channelx) & DMA_CHXCTL_TAEIE;
 809:C:/Users/stapi/OneDrive/Desktop/GD32VW553/GD32VW55X_Wifi_BLE_SDK/GD32VW55x_RELEASE_V1.0.2/MSDK/plf/GD32VW55x_standard_peripheral/Source\gd32vw55x_dma.c ****             break;
 810:C:/Users/stapi/OneDrive/Desktop/GD32VW553/GD32VW55X_Wifi_BLE_SDK/GD32VW55x_RELEASE_V1.0.2/MSDK/plf/GD32VW55x_standard_peripheral/Source\gd32vw55x_dma.c ****         case DMA_INTF_HTFIF:
 811:C:/Users/stapi/OneDrive/Desktop/GD32VW553/GD32VW55X_Wifi_BLE_SDK/GD32VW55x_RELEASE_V1.0.2/MSDK/plf/GD32VW55x_standard_peripheral/Source\gd32vw55x_dma.c ****             interrupt_flag = DMA_INTF0 & DMA_FLAG_ADD(int_flag, channelx);
 812:C:/Users/stapi/OneDrive/Desktop/GD32VW553/GD32VW55X_Wifi_BLE_SDK/GD32VW55x_RELEASE_V1.0.2/MSDK/plf/GD32VW55x_standard_peripheral/Source\gd32vw55x_dma.c ****             interrupt_enable = DMA_CHCTL(channelx) & DMA_CHXCTL_HTFIE;
 813:C:/Users/stapi/OneDrive/Desktop/GD32VW553/GD32VW55X_Wifi_BLE_SDK/GD32VW55x_RELEASE_V1.0.2/MSDK/plf/GD32VW55x_standard_peripheral/Source\gd32vw55x_dma.c ****             break;
 814:C:/Users/stapi/OneDrive/Desktop/GD32VW553/GD32VW55X_Wifi_BLE_SDK/GD32VW55x_RELEASE_V1.0.2/MSDK/plf/GD32VW55x_standard_peripheral/Source\gd32vw55x_dma.c ****         case DMA_INTF_FTFIF:
 815:C:/Users/stapi/OneDrive/Desktop/GD32VW553/GD32VW55X_Wifi_BLE_SDK/GD32VW55x_RELEASE_V1.0.2/MSDK/plf/GD32VW55x_standard_peripheral/Source\gd32vw55x_dma.c ****             interrupt_flag = (DMA_INTF0 & DMA_FLAG_ADD(int_flag, channelx));
 816:C:/Users/stapi/OneDrive/Desktop/GD32VW553/GD32VW55X_Wifi_BLE_SDK/GD32VW55x_RELEASE_V1.0.2/MSDK/plf/GD32VW55x_standard_peripheral/Source\gd32vw55x_dma.c ****             interrupt_enable = (DMA_CHCTL(channelx) & DMA_CHXCTL_FTFIE);
 817:C:/Users/stapi/OneDrive/Desktop/GD32VW553/GD32VW55X_Wifi_BLE_SDK/GD32VW55x_RELEASE_V1.0.2/MSDK/plf/GD32VW55x_standard_peripheral/Source\gd32vw55x_dma.c ****             break;
 818:C:/Users/stapi/OneDrive/Desktop/GD32VW553/GD32VW55X_Wifi_BLE_SDK/GD32VW55x_RELEASE_V1.0.2/MSDK/plf/GD32VW55x_standard_peripheral/Source\gd32vw55x_dma.c ****         default:
 819:C:/Users/stapi/OneDrive/Desktop/GD32VW553/GD32VW55X_Wifi_BLE_SDK/GD32VW55x_RELEASE_V1.0.2/MSDK/plf/GD32VW55x_standard_peripheral/Source\gd32vw55x_dma.c ****             break;
 820:C:/Users/stapi/OneDrive/Desktop/GD32VW553/GD32VW55X_Wifi_BLE_SDK/GD32VW55x_RELEASE_V1.0.2/MSDK/plf/GD32VW55x_standard_peripheral/Source\gd32vw55x_dma.c ****         }
 821:C:/Users/stapi/OneDrive/Desktop/GD32VW553/GD32VW55X_Wifi_BLE_SDK/GD32VW55x_RELEASE_V1.0.2/MSDK/plf/GD32VW55x_standard_peripheral/Source\gd32vw55x_dma.c ****     }else{
 822:C:/Users/stapi/OneDrive/Desktop/GD32VW553/GD32VW55X_Wifi_BLE_SDK/GD32VW55x_RELEASE_V1.0.2/MSDK/plf/GD32VW55x_standard_peripheral/Source\gd32vw55x_dma.c ****         channel_flag_offset -= (dma_channel_enum)4;
 823:C:/Users/stapi/OneDrive/Desktop/GD32VW553/GD32VW55X_Wifi_BLE_SDK/GD32VW55x_RELEASE_V1.0.2/MSDK/plf/GD32VW55x_standard_peripheral/Source\gd32vw55x_dma.c ****         switch(int_flag){
 1446              		.loc 1 823 9 is_stmt 0
 1447 001e 0145     		li	a0,0
 1448              	.LVL101:
 1449 0020 8280     		ret
 1450              	.LVL102:
 1451              	.L83:
 797:C:/Users/stapi/OneDrive/Desktop/GD32VW553/GD32VW55X_Wifi_BLE_SDK/GD32VW55x_RELEASE_V1.0.2/MSDK/plf/GD32VW55x_standard_peripheral/Source\gd32vw55x_dma.c ****         switch(int_flag){
 1452              		.loc 1 797 9
 1453 0022 4147     		li	a4,16
 1454 0024 638BE50A 		beq	a1,a4,.L87
 1455 0028 13070002 		li	a4,32
 1456 002c E399E5FE 		bne	a1,a4,.L105
 815:C:/Users/stapi/OneDrive/Desktop/GD32VW553/GD32VW55X_Wifi_BLE_SDK/GD32VW55x_RELEASE_V1.0.2/MSDK/plf/GD32VW55x_standard_peripheral/Source\gd32vw55x_dma.c ****             interrupt_enable = (DMA_CHCTL(channelx) & DMA_CHXCTL_FTFIE);
 1457              		.loc 1 815 13 is_stmt 1
 815:C:/Users/stapi/OneDrive/Desktop/GD32VW553/GD32VW55X_Wifi_BLE_SDK/GD32VW55x_RELEASE_V1.0.2/MSDK/plf/GD32VW55x_standard_peripheral/Source\gd32vw55x_dma.c ****             interrupt_enable = (DMA_CHCTL(channelx) & DMA_CHXCTL_FTFIE);
 1458              		.loc 1 815 43 is_stmt 0
 1459 0030 9946     		li	a3,6
 1460 0032 B386D702 		mul	a3,a5,a3
 815:C:/Users/stapi/OneDrive/Desktop/GD32VW553/GD32VW55X_Wifi_BLE_SDK/GD32VW55x_RELEASE_V1.0.2/MSDK/plf/GD32VW55x_standard_peripheral/Source\gd32vw55x_dma.c ****             interrupt_enable = (DMA_CHCTL(channelx) & DMA_CHXCTL_FTFIE);
 1461              		.loc 1 815 31
 1462 0036 37670240 		li	a4,1073897472
 815:C:/Users/stapi/OneDrive/Desktop/GD32VW553/GD32VW55X_Wifi_BLE_SDK/GD32VW55x_RELEASE_V1.0.2/MSDK/plf/GD32VW55x_standard_peripheral/Source\gd32vw55x_dma.c ****             interrupt_enable = (DMA_CHCTL(channelx) & DMA_CHXCTL_FTFIE);
 1463              		.loc 1 815 43
 1464 003a 0581     		srli	a0,a0,1
 1465              	.LVL103:
 815:C:/Users/stapi/OneDrive/Desktop/GD32VW553/GD32VW55X_Wifi_BLE_SDK/GD32VW55x_RELEASE_V1.0.2/MSDK/plf/GD32VW55x_standard_peripheral/Source\gd32vw55x_dma.c ****             interrupt_enable = (DMA_CHCTL(channelx) & DMA_CHXCTL_FTFIE);
 1466              		.loc 1 815 31
 1467 003c 1043     		lw	a2,0(a4)
 816:C:/Users/stapi/OneDrive/Desktop/GD32VW553/GD32VW55X_Wifi_BLE_SDK/GD32VW55x_RELEASE_V1.0.2/MSDK/plf/GD32VW55x_standard_peripheral/Source\gd32vw55x_dma.c ****             break;
 1468              		.loc 1 816 33
 1469 003e 4107     		addi	a4,a4,16
 815:C:/Users/stapi/OneDrive/Desktop/GD32VW553/GD32VW55X_Wifi_BLE_SDK/GD32VW55x_RELEASE_V1.0.2/MSDK/plf/GD32VW55x_standard_peripheral/Source\gd32vw55x_dma.c ****             interrupt_enable = (DMA_CHCTL(channelx) & DMA_CHXCTL_FTFIE);
 1470              		.loc 1 815 43
 1471 0040 3345D520 		sh2add	a0,a0,a3
 816:C:/Users/stapi/OneDrive/Desktop/GD32VW553/GD32VW55X_Wifi_BLE_SDK/GD32VW55x_RELEASE_V1.0.2/MSDK/plf/GD32VW55x_standard_peripheral/Source\gd32vw55x_dma.c ****             break;
 1472              		.loc 1 816 33
 1473 0044 E146     		li	a3,24
 1474 0046 7F97D7C4 		maddr32	a4, a5, a3
 1475 004a 1C43     		lw	a5,0(a4)
 1476              	.LVL104:
 815:C:/Users/stapi/OneDrive/Desktop/GD32VW553/GD32VW55X_Wifi_BLE_SDK/GD32VW55x_RELEASE_V1.0.2/MSDK/plf/GD32VW55x_standard_peripheral/Source\gd32vw55x_dma.c ****             interrupt_enable = (DMA_CHCTL(channelx) & DMA_CHXCTL_FTFIE);
 1477              		.loc 1 815 43
 1478 004c B395A500 		sll	a1,a1,a0
 1479              	.LVL105:
 815:C:/Users/stapi/OneDrive/Desktop/GD32VW553/GD32VW55X_Wifi_BLE_SDK/GD32VW55x_RELEASE_V1.0.2/MSDK/plf/GD32VW55x_standard_peripheral/Source\gd32vw55x_dma.c ****             interrupt_enable = (DMA_CHCTL(channelx) & DMA_CHXCTL_FTFIE);
 1480              		.loc 1 815 28
 1481 0050 33F5C500 		and	a0,a1,a2
 1482              	.LVL106:
 816:C:/Users/stapi/OneDrive/Desktop/GD32VW553/GD32VW55X_Wifi_BLE_SDK/GD32VW55x_RELEASE_V1.0.2/MSDK/plf/GD32VW55x_standard_peripheral/Source\gd32vw55x_dma.c ****             break;
 1483              		.loc 1 816 13 is_stmt 1
 1484              	.L100:
 824:C:/Users/stapi/OneDrive/Desktop/GD32VW553/GD32VW55X_Wifi_BLE_SDK/GD32VW55x_RELEASE_V1.0.2/MSDK/plf/GD32VW55x_standard_peripheral/Source\gd32vw55x_dma.c ****         case DMA_INTF_FEEIF:
 825:C:/Users/stapi/OneDrive/Desktop/GD32VW553/GD32VW55X_Wifi_BLE_SDK/GD32VW55x_RELEASE_V1.0.2/MSDK/plf/GD32VW55x_standard_peripheral/Source\gd32vw55x_dma.c ****             interrupt_flag = DMA_INTF1 & DMA_FLAG_ADD(int_flag, channel_flag_offset);
 826:C:/Users/stapi/OneDrive/Desktop/GD32VW553/GD32VW55X_Wifi_BLE_SDK/GD32VW55x_RELEASE_V1.0.2/MSDK/plf/GD32VW55x_standard_peripheral/Source\gd32vw55x_dma.c ****             interrupt_enable = DMA_CHFCTL(channelx) & DMA_CHXFCTL_FEEIE;
 827:C:/Users/stapi/OneDrive/Desktop/GD32VW553/GD32VW55X_Wifi_BLE_SDK/GD32VW55x_RELEASE_V1.0.2/MSDK/plf/GD32VW55x_standard_peripheral/Source\gd32vw55x_dma.c ****             break;
 828:C:/Users/stapi/OneDrive/Desktop/GD32VW553/GD32VW55X_Wifi_BLE_SDK/GD32VW55x_RELEASE_V1.0.2/MSDK/plf/GD32VW55x_standard_peripheral/Source\gd32vw55x_dma.c ****         case DMA_INTF_SDEIF:
 829:C:/Users/stapi/OneDrive/Desktop/GD32VW553/GD32VW55X_Wifi_BLE_SDK/GD32VW55x_RELEASE_V1.0.2/MSDK/plf/GD32VW55x_standard_peripheral/Source\gd32vw55x_dma.c ****             interrupt_flag = DMA_INTF1 & DMA_FLAG_ADD(int_flag, channel_flag_offset);
 830:C:/Users/stapi/OneDrive/Desktop/GD32VW553/GD32VW55X_Wifi_BLE_SDK/GD32VW55x_RELEASE_V1.0.2/MSDK/plf/GD32VW55x_standard_peripheral/Source\gd32vw55x_dma.c ****             interrupt_enable = DMA_CHCTL(channelx) & DMA_CHXCTL_SDEIE;
 831:C:/Users/stapi/OneDrive/Desktop/GD32VW553/GD32VW55X_Wifi_BLE_SDK/GD32VW55x_RELEASE_V1.0.2/MSDK/plf/GD32VW55x_standard_peripheral/Source\gd32vw55x_dma.c ****             break;
 832:C:/Users/stapi/OneDrive/Desktop/GD32VW553/GD32VW55X_Wifi_BLE_SDK/GD32VW55x_RELEASE_V1.0.2/MSDK/plf/GD32VW55x_standard_peripheral/Source\gd32vw55x_dma.c ****         case DMA_INTF_TAEIF:
 833:C:/Users/stapi/OneDrive/Desktop/GD32VW553/GD32VW55X_Wifi_BLE_SDK/GD32VW55x_RELEASE_V1.0.2/MSDK/plf/GD32VW55x_standard_peripheral/Source\gd32vw55x_dma.c ****             interrupt_flag = DMA_INTF1 & DMA_FLAG_ADD(int_flag, channel_flag_offset);
 834:C:/Users/stapi/OneDrive/Desktop/GD32VW553/GD32VW55X_Wifi_BLE_SDK/GD32VW55x_RELEASE_V1.0.2/MSDK/plf/GD32VW55x_standard_peripheral/Source\gd32vw55x_dma.c ****             interrupt_enable = DMA_CHCTL(channelx) & DMA_CHXCTL_TAEIE;
 835:C:/Users/stapi/OneDrive/Desktop/GD32VW553/GD32VW55X_Wifi_BLE_SDK/GD32VW55x_RELEASE_V1.0.2/MSDK/plf/GD32VW55x_standard_peripheral/Source\gd32vw55x_dma.c ****             break;
 836:C:/Users/stapi/OneDrive/Desktop/GD32VW553/GD32VW55X_Wifi_BLE_SDK/GD32VW55x_RELEASE_V1.0.2/MSDK/plf/GD32VW55x_standard_peripheral/Source\gd32vw55x_dma.c ****         case DMA_INTF_HTFIF:
 837:C:/Users/stapi/OneDrive/Desktop/GD32VW553/GD32VW55X_Wifi_BLE_SDK/GD32VW55x_RELEASE_V1.0.2/MSDK/plf/GD32VW55x_standard_peripheral/Source\gd32vw55x_dma.c ****             interrupt_flag = DMA_INTF1 & DMA_FLAG_ADD(int_flag, channel_flag_offset);
 838:C:/Users/stapi/OneDrive/Desktop/GD32VW553/GD32VW55X_Wifi_BLE_SDK/GD32VW55x_RELEASE_V1.0.2/MSDK/plf/GD32VW55x_standard_peripheral/Source\gd32vw55x_dma.c ****             interrupt_enable = DMA_CHCTL(channelx) & DMA_CHXCTL_HTFIE;
 839:C:/Users/stapi/OneDrive/Desktop/GD32VW553/GD32VW55X_Wifi_BLE_SDK/GD32VW55x_RELEASE_V1.0.2/MSDK/plf/GD32VW55x_standard_peripheral/Source\gd32vw55x_dma.c ****             break;
 840:C:/Users/stapi/OneDrive/Desktop/GD32VW553/GD32VW55X_Wifi_BLE_SDK/GD32VW55x_RELEASE_V1.0.2/MSDK/plf/GD32VW55x_standard_peripheral/Source\gd32vw55x_dma.c ****         case DMA_INTF_FTFIF:
 841:C:/Users/stapi/OneDrive/Desktop/GD32VW553/GD32VW55X_Wifi_BLE_SDK/GD32VW55x_RELEASE_V1.0.2/MSDK/plf/GD32VW55x_standard_peripheral/Source\gd32vw55x_dma.c ****             interrupt_flag = DMA_INTF1 & DMA_FLAG_ADD(int_flag,channel_flag_offset);
 842:C:/Users/stapi/OneDrive/Desktop/GD32VW553/GD32VW55X_Wifi_BLE_SDK/GD32VW55x_RELEASE_V1.0.2/MSDK/plf/GD32VW55x_standard_peripheral/Source\gd32vw55x_dma.c ****             interrupt_enable = DMA_CHCTL(channelx) & DMA_CHXCTL_FTFIE;
 1485              		.loc 1 842 30 is_stmt 0
 1486 0054 C18B     		andi	a5,a5,16
 1487              	.LVL107:
 843:C:/Users/stapi/OneDrive/Desktop/GD32VW553/GD32VW55X_Wifi_BLE_SDK/GD32VW55x_RELEASE_V1.0.2/MSDK/plf/GD32VW55x_standard_peripheral/Source\gd32vw55x_dma.c ****             break;
 1488              		.loc 1 843 13 is_stmt 1
 1489 0056 35A0     		j	.L89
 1490              	.LVL108:
 1491              	.L84:
 799:C:/Users/stapi/OneDrive/Desktop/GD32VW553/GD32VW55X_Wifi_BLE_SDK/GD32VW55x_RELEASE_V1.0.2/MSDK/plf/GD32VW55x_standard_peripheral/Source\gd32vw55x_dma.c ****             interrupt_enable = DMA_CHFCTL(channelx) & DMA_CHXFCTL_FEEIE;
 1492              		.loc 1 799 13
 799:C:/Users/stapi/OneDrive/Desktop/GD32VW553/GD32VW55X_Wifi_BLE_SDK/GD32VW55x_RELEASE_V1.0.2/MSDK/plf/GD32VW55x_standard_peripheral/Source\gd32vw55x_dma.c ****             interrupt_enable = DMA_CHFCTL(channelx) & DMA_CHXFCTL_FEEIE;
 1493              		.loc 1 799 42 is_stmt 0
 1494 0058 9945     		li	a1,6
 1495              	.LVL109:
 1496 005a B385B702 		mul	a1,a5,a1
 799:C:/Users/stapi/OneDrive/Desktop/GD32VW553/GD32VW55X_Wifi_BLE_SDK/GD32VW55x_RELEASE_V1.0.2/MSDK/plf/GD32VW55x_standard_peripheral/Source\gd32vw55x_dma.c ****             interrupt_enable = DMA_CHFCTL(channelx) & DMA_CHXFCTL_FEEIE;
 1497              		.loc 1 799 30
 1498 005e 37670240 		li	a4,1073897472
 1499 0062 1443     		lw	a3,0(a4)
 799:C:/Users/stapi/OneDrive/Desktop/GD32VW553/GD32VW55X_Wifi_BLE_SDK/GD32VW55x_RELEASE_V1.0.2/MSDK/plf/GD32VW55x_standard_peripheral/Source\gd32vw55x_dma.c ****             interrupt_enable = DMA_CHFCTL(channelx) & DMA_CHXFCTL_FEEIE;
 1500              		.loc 1 799 42
 1501 0064 0581     		srli	a0,a0,1
 1502              	.LVL110:
 800:C:/Users/stapi/OneDrive/Desktop/GD32VW553/GD32VW55X_Wifi_BLE_SDK/GD32VW55x_RELEASE_V1.0.2/MSDK/plf/GD32VW55x_standard_peripheral/Source\gd32vw55x_dma.c ****             break;
 1503              		.loc 1 800 32
 1504 0066 13074702 		addi	a4,a4,36
 799:C:/Users/stapi/OneDrive/Desktop/GD32VW553/GD32VW55X_Wifi_BLE_SDK/GD32VW55x_RELEASE_V1.0.2/MSDK/plf/GD32VW55x_standard_peripheral/Source\gd32vw55x_dma.c ****             interrupt_enable = DMA_CHFCTL(channelx) & DMA_CHXFCTL_FEEIE;
 1505              		.loc 1 799 42
 1506 006a 3345B520 		sh2add	a0,a0,a1
 1507 006e B315A028 		bset	a1,x0,a0
 799:C:/Users/stapi/OneDrive/Desktop/GD32VW553/GD32VW55X_Wifi_BLE_SDK/GD32VW55x_RELEASE_V1.0.2/MSDK/plf/GD32VW55x_standard_peripheral/Source\gd32vw55x_dma.c ****             interrupt_enable = DMA_CHFCTL(channelx) & DMA_CHXFCTL_FEEIE;
 1508              		.loc 1 799 28
 1509 0072 33F5D500 		and	a0,a1,a3
 1510              	.LVL111:
 800:C:/Users/stapi/OneDrive/Desktop/GD32VW553/GD32VW55X_Wifi_BLE_SDK/GD32VW55x_RELEASE_V1.0.2/MSDK/plf/GD32VW55x_standard_peripheral/Source\gd32vw55x_dma.c ****             break;
 1511              		.loc 1 800 13 is_stmt 1
 800:C:/Users/stapi/OneDrive/Desktop/GD32VW553/GD32VW55X_Wifi_BLE_SDK/GD32VW55x_RELEASE_V1.0.2/MSDK/plf/GD32VW55x_standard_peripheral/Source\gd32vw55x_dma.c ****             break;
 1512              		.loc 1 800 32 is_stmt 0
 1513 0076 E146     		li	a3,24
 1514 0078 7F97D7C4 		maddr32	a4, a5, a3
 1515 007c 1C43     		lw	a5,0(a4)
 1516              	.LVL112:
 1517              	.L99:
 826:C:/Users/stapi/OneDrive/Desktop/GD32VW553/GD32VW55X_Wifi_BLE_SDK/GD32VW55x_RELEASE_V1.0.2/MSDK/plf/GD32VW55x_standard_peripheral/Source\gd32vw55x_dma.c ****             break;
 1518              		.loc 1 826 30
 1519 007e 93F70708 		andi	a5,a5,128
 1520              	.LVL113:
 827:C:/Users/stapi/OneDrive/Desktop/GD32VW553/GD32VW55X_Wifi_BLE_SDK/GD32VW55x_RELEASE_V1.0.2/MSDK/plf/GD32VW55x_standard_peripheral/Source\gd32vw55x_dma.c ****         case DMA_INTF_SDEIF:
 1521              		.loc 1 827 13 is_stmt 1
 1522              	.L89:
 844:C:/Users/stapi/OneDrive/Desktop/GD32VW553/GD32VW55X_Wifi_BLE_SDK/GD32VW55x_RELEASE_V1.0.2/MSDK/plf/GD32VW55x_standard_peripheral/Source\gd32vw55x_dma.c ****         default:
 845:C:/Users/stapi/OneDrive/Desktop/GD32VW553/GD32VW55X_Wifi_BLE_SDK/GD32VW55x_RELEASE_V1.0.2/MSDK/plf/GD32VW55x_standard_peripheral/Source\gd32vw55x_dma.c ****             break;
 846:C:/Users/stapi/OneDrive/Desktop/GD32VW553/GD32VW55X_Wifi_BLE_SDK/GD32VW55x_RELEASE_V1.0.2/MSDK/plf/GD32VW55x_standard_peripheral/Source\gd32vw55x_dma.c ****         }
 847:C:/Users/stapi/OneDrive/Desktop/GD32VW553/GD32VW55X_Wifi_BLE_SDK/GD32VW55x_RELEASE_V1.0.2/MSDK/plf/GD32VW55x_standard_peripheral/Source\gd32vw55x_dma.c ****     }
 848:C:/Users/stapi/OneDrive/Desktop/GD32VW553/GD32VW55X_Wifi_BLE_SDK/GD32VW55x_RELEASE_V1.0.2/MSDK/plf/GD32VW55x_standard_peripheral/Source\gd32vw55x_dma.c **** 
 849:C:/Users/stapi/OneDrive/Desktop/GD32VW553/GD32VW55X_Wifi_BLE_SDK/GD32VW55x_RELEASE_V1.0.2/MSDK/plf/GD32VW55x_standard_peripheral/Source\gd32vw55x_dma.c ****     if(interrupt_flag && interrupt_enable){
 1523              		.loc 1 849 5
 1524              		.loc 1 849 7 is_stmt 0
 1525 0082 19C1     		beq	a0,zero,.L80
 1526              		.loc 1 849 23 discriminator 1
 1527 0084 3335F000 		snez	a0,a5
 1528              	.LVL114:
 1529              	.L80:
 850:C:/Users/stapi/OneDrive/Desktop/GD32VW553/GD32VW55X_Wifi_BLE_SDK/GD32VW55x_RELEASE_V1.0.2/MSDK/plf/GD32VW55x_standard_peripheral/Source\gd32vw55x_dma.c ****         return SET;
 851:C:/Users/stapi/OneDrive/Desktop/GD32VW553/GD32VW55X_Wifi_BLE_SDK/GD32VW55x_RELEASE_V1.0.2/MSDK/plf/GD32VW55x_standard_peripheral/Source\gd32vw55x_dma.c ****     }else{
 852:C:/Users/stapi/OneDrive/Desktop/GD32VW553/GD32VW55X_Wifi_BLE_SDK/GD32VW55x_RELEASE_V1.0.2/MSDK/plf/GD32VW55x_standard_peripheral/Source\gd32vw55x_dma.c ****         return RESET;
 853:C:/Users/stapi/OneDrive/Desktop/GD32VW553/GD32VW55X_Wifi_BLE_SDK/GD32VW55x_RELEASE_V1.0.2/MSDK/plf/GD32VW55x_standard_peripheral/Source\gd32vw55x_dma.c ****     }
 854:C:/Users/stapi/OneDrive/Desktop/GD32VW553/GD32VW55X_Wifi_BLE_SDK/GD32VW55x_RELEASE_V1.0.2/MSDK/plf/GD32VW55x_standard_peripheral/Source\gd32vw55x_dma.c **** }
 1530              		.loc 1 854 1
 1531 0088 8280     		ret
 1532              	.LVL115:
 1533              	.L85:
 803:C:/Users/stapi/OneDrive/Desktop/GD32VW553/GD32VW55X_Wifi_BLE_SDK/GD32VW55x_RELEASE_V1.0.2/MSDK/plf/GD32VW55x_standard_peripheral/Source\gd32vw55x_dma.c ****             interrupt_enable = DMA_CHCTL(channelx) & DMA_CHXCTL_SDEIE;
 1534              		.loc 1 803 13 is_stmt 1
 803:C:/Users/stapi/OneDrive/Desktop/GD32VW553/GD32VW55X_Wifi_BLE_SDK/GD32VW55x_RELEASE_V1.0.2/MSDK/plf/GD32VW55x_standard_peripheral/Source\gd32vw55x_dma.c ****             interrupt_enable = DMA_CHCTL(channelx) & DMA_CHXCTL_SDEIE;
 1535              		.loc 1 803 42 is_stmt 0
 1536 008a 9946     		li	a3,6
 1537 008c B386D702 		mul	a3,a5,a3
 803:C:/Users/stapi/OneDrive/Desktop/GD32VW553/GD32VW55X_Wifi_BLE_SDK/GD32VW55x_RELEASE_V1.0.2/MSDK/plf/GD32VW55x_standard_peripheral/Source\gd32vw55x_dma.c ****             interrupt_enable = DMA_CHCTL(channelx) & DMA_CHXCTL_SDEIE;
 1538              		.loc 1 803 30
 1539 0090 37670240 		li	a4,1073897472
 803:C:/Users/stapi/OneDrive/Desktop/GD32VW553/GD32VW55X_Wifi_BLE_SDK/GD32VW55x_RELEASE_V1.0.2/MSDK/plf/GD32VW55x_standard_peripheral/Source\gd32vw55x_dma.c ****             interrupt_enable = DMA_CHCTL(channelx) & DMA_CHXCTL_SDEIE;
 1540              		.loc 1 803 42
 1541 0094 0581     		srli	a0,a0,1
 1542              	.LVL116:
 803:C:/Users/stapi/OneDrive/Desktop/GD32VW553/GD32VW55X_Wifi_BLE_SDK/GD32VW55x_RELEASE_V1.0.2/MSDK/plf/GD32VW55x_standard_peripheral/Source\gd32vw55x_dma.c ****             interrupt_enable = DMA_CHCTL(channelx) & DMA_CHXCTL_SDEIE;
 1543              		.loc 1 803 30
 1544 0096 1043     		lw	a2,0(a4)
 804:C:/Users/stapi/OneDrive/Desktop/GD32VW553/GD32VW55X_Wifi_BLE_SDK/GD32VW55x_RELEASE_V1.0.2/MSDK/plf/GD32VW55x_standard_peripheral/Source\gd32vw55x_dma.c ****             break;
 1545              		.loc 1 804 32
 1546 0098 4107     		addi	a4,a4,16
 803:C:/Users/stapi/OneDrive/Desktop/GD32VW553/GD32VW55X_Wifi_BLE_SDK/GD32VW55x_RELEASE_V1.0.2/MSDK/plf/GD32VW55x_standard_peripheral/Source\gd32vw55x_dma.c ****             interrupt_enable = DMA_CHCTL(channelx) & DMA_CHXCTL_SDEIE;
 1547              		.loc 1 803 42
 1548 009a 3345D520 		sh2add	a0,a0,a3
 804:C:/Users/stapi/OneDrive/Desktop/GD32VW553/GD32VW55X_Wifi_BLE_SDK/GD32VW55x_RELEASE_V1.0.2/MSDK/plf/GD32VW55x_standard_peripheral/Source\gd32vw55x_dma.c ****             break;
 1549              		.loc 1 804 32
 1550 009e E146     		li	a3,24
 1551 00a0 7F97D7C4 		maddr32	a4, a5, a3
 1552 00a4 1C43     		lw	a5,0(a4)
 1553              	.LVL117:
 803:C:/Users/stapi/OneDrive/Desktop/GD32VW553/GD32VW55X_Wifi_BLE_SDK/GD32VW55x_RELEASE_V1.0.2/MSDK/plf/GD32VW55x_standard_peripheral/Source\gd32vw55x_dma.c ****             interrupt_enable = DMA_CHCTL(channelx) & DMA_CHXCTL_SDEIE;
 1554              		.loc 1 803 42
 1555 00a6 B395A500 		sll	a1,a1,a0
 1556              	.LVL118:
 803:C:/Users/stapi/OneDrive/Desktop/GD32VW553/GD32VW55X_Wifi_BLE_SDK/GD32VW55x_RELEASE_V1.0.2/MSDK/plf/GD32VW55x_standard_peripheral/Source\gd32vw55x_dma.c ****             interrupt_enable = DMA_CHCTL(channelx) & DMA_CHXCTL_SDEIE;
 1557              		.loc 1 803 28
 1558 00aa 33F5C500 		and	a0,a1,a2
 1559              	.LVL119:
 804:C:/Users/stapi/OneDrive/Desktop/GD32VW553/GD32VW55X_Wifi_BLE_SDK/GD32VW55x_RELEASE_V1.0.2/MSDK/plf/GD32VW55x_standard_peripheral/Source\gd32vw55x_dma.c ****             break;
 1560              		.loc 1 804 13 is_stmt 1
 1561              	.L103:
 830:C:/Users/stapi/OneDrive/Desktop/GD32VW553/GD32VW55X_Wifi_BLE_SDK/GD32VW55x_RELEASE_V1.0.2/MSDK/plf/GD32VW55x_standard_peripheral/Source\gd32vw55x_dma.c ****             break;
 1562              		.loc 1 830 30 is_stmt 0
 1563 00ae 898B     		andi	a5,a5,2
 1564              	.LVL120:
 831:C:/Users/stapi/OneDrive/Desktop/GD32VW553/GD32VW55X_Wifi_BLE_SDK/GD32VW55x_RELEASE_V1.0.2/MSDK/plf/GD32VW55x_standard_peripheral/Source\gd32vw55x_dma.c ****         case DMA_INTF_TAEIF:
 1565              		.loc 1 831 13 is_stmt 1
 1566 00b0 C9BF     		j	.L89
 1567              	.LVL121:
 1568              	.L82:
 807:C:/Users/stapi/OneDrive/Desktop/GD32VW553/GD32VW55X_Wifi_BLE_SDK/GD32VW55x_RELEASE_V1.0.2/MSDK/plf/GD32VW55x_standard_peripheral/Source\gd32vw55x_dma.c ****             interrupt_enable = DMA_CHCTL(channelx) & DMA_CHXCTL_TAEIE;
 1569              		.loc 1 807 13
 807:C:/Users/stapi/OneDrive/Desktop/GD32VW553/GD32VW55X_Wifi_BLE_SDK/GD32VW55x_RELEASE_V1.0.2/MSDK/plf/GD32VW55x_standard_peripheral/Source\gd32vw55x_dma.c ****             interrupt_enable = DMA_CHCTL(channelx) & DMA_CHXCTL_TAEIE;
 1570              		.loc 1 807 42 is_stmt 0
 1571 00b2 9946     		li	a3,6
 1572 00b4 B386D702 		mul	a3,a5,a3
 807:C:/Users/stapi/OneDrive/Desktop/GD32VW553/GD32VW55X_Wifi_BLE_SDK/GD32VW55x_RELEASE_V1.0.2/MSDK/plf/GD32VW55x_standard_peripheral/Source\gd32vw55x_dma.c ****             interrupt_enable = DMA_CHCTL(channelx) & DMA_CHXCTL_TAEIE;
 1573              		.loc 1 807 30
 1574 00b8 37670240 		li	a4,1073897472
 807:C:/Users/stapi/OneDrive/Desktop/GD32VW553/GD32VW55X_Wifi_BLE_SDK/GD32VW55x_RELEASE_V1.0.2/MSDK/plf/GD32VW55x_standard_peripheral/Source\gd32vw55x_dma.c ****             interrupt_enable = DMA_CHCTL(channelx) & DMA_CHXCTL_TAEIE;
 1575              		.loc 1 807 42
 1576 00bc 0581     		srli	a0,a0,1
 1577              	.LVL122:
 807:C:/Users/stapi/OneDrive/Desktop/GD32VW553/GD32VW55X_Wifi_BLE_SDK/GD32VW55x_RELEASE_V1.0.2/MSDK/plf/GD32VW55x_standard_peripheral/Source\gd32vw55x_dma.c ****             interrupt_enable = DMA_CHCTL(channelx) & DMA_CHXCTL_TAEIE;
 1578              		.loc 1 807 30
 1579 00be 1043     		lw	a2,0(a4)
 808:C:/Users/stapi/OneDrive/Desktop/GD32VW553/GD32VW55X_Wifi_BLE_SDK/GD32VW55x_RELEASE_V1.0.2/MSDK/plf/GD32VW55x_standard_peripheral/Source\gd32vw55x_dma.c ****             break;
 1580              		.loc 1 808 32
 1581 00c0 4107     		addi	a4,a4,16
 807:C:/Users/stapi/OneDrive/Desktop/GD32VW553/GD32VW55X_Wifi_BLE_SDK/GD32VW55x_RELEASE_V1.0.2/MSDK/plf/GD32VW55x_standard_peripheral/Source\gd32vw55x_dma.c ****             interrupt_enable = DMA_CHCTL(channelx) & DMA_CHXCTL_TAEIE;
 1582              		.loc 1 807 42
 1583 00c2 3345D520 		sh2add	a0,a0,a3
 808:C:/Users/stapi/OneDrive/Desktop/GD32VW553/GD32VW55X_Wifi_BLE_SDK/GD32VW55x_RELEASE_V1.0.2/MSDK/plf/GD32VW55x_standard_peripheral/Source\gd32vw55x_dma.c ****             break;
 1584              		.loc 1 808 32
 1585 00c6 E146     		li	a3,24
 1586 00c8 7F97D7C4 		maddr32	a4, a5, a3
 1587 00cc 1C43     		lw	a5,0(a4)
 1588              	.LVL123:
 807:C:/Users/stapi/OneDrive/Desktop/GD32VW553/GD32VW55X_Wifi_BLE_SDK/GD32VW55x_RELEASE_V1.0.2/MSDK/plf/GD32VW55x_standard_peripheral/Source\gd32vw55x_dma.c ****             interrupt_enable = DMA_CHCTL(channelx) & DMA_CHXCTL_TAEIE;
 1589              		.loc 1 807 42
 1590 00ce B395A500 		sll	a1,a1,a0
 1591              	.LVL124:
 807:C:/Users/stapi/OneDrive/Desktop/GD32VW553/GD32VW55X_Wifi_BLE_SDK/GD32VW55x_RELEASE_V1.0.2/MSDK/plf/GD32VW55x_standard_peripheral/Source\gd32vw55x_dma.c ****             interrupt_enable = DMA_CHCTL(channelx) & DMA_CHXCTL_TAEIE;
 1592              		.loc 1 807 28
 1593 00d2 33F5C500 		and	a0,a1,a2
 1594              	.LVL125:
 808:C:/Users/stapi/OneDrive/Desktop/GD32VW553/GD32VW55X_Wifi_BLE_SDK/GD32VW55x_RELEASE_V1.0.2/MSDK/plf/GD32VW55x_standard_peripheral/Source\gd32vw55x_dma.c ****             break;
 1595              		.loc 1 808 13 is_stmt 1
 1596              	.L101:
 834:C:/Users/stapi/OneDrive/Desktop/GD32VW553/GD32VW55X_Wifi_BLE_SDK/GD32VW55x_RELEASE_V1.0.2/MSDK/plf/GD32VW55x_standard_peripheral/Source\gd32vw55x_dma.c ****             break;
 1597              		.loc 1 834 30 is_stmt 0
 1598 00d6 918B     		andi	a5,a5,4
 1599              	.LVL126:
 835:C:/Users/stapi/OneDrive/Desktop/GD32VW553/GD32VW55X_Wifi_BLE_SDK/GD32VW55x_RELEASE_V1.0.2/MSDK/plf/GD32VW55x_standard_peripheral/Source\gd32vw55x_dma.c ****         case DMA_INTF_HTFIF:
 1600              		.loc 1 835 13 is_stmt 1
 1601 00d8 6DB7     		j	.L89
 1602              	.LVL127:
 1603              	.L87:
 811:C:/Users/stapi/OneDrive/Desktop/GD32VW553/GD32VW55X_Wifi_BLE_SDK/GD32VW55x_RELEASE_V1.0.2/MSDK/plf/GD32VW55x_standard_peripheral/Source\gd32vw55x_dma.c ****             interrupt_enable = DMA_CHCTL(channelx) & DMA_CHXCTL_HTFIE;
 1604              		.loc 1 811 13
 811:C:/Users/stapi/OneDrive/Desktop/GD32VW553/GD32VW55X_Wifi_BLE_SDK/GD32VW55x_RELEASE_V1.0.2/MSDK/plf/GD32VW55x_standard_peripheral/Source\gd32vw55x_dma.c ****             interrupt_enable = DMA_CHCTL(channelx) & DMA_CHXCTL_HTFIE;
 1605              		.loc 1 811 42 is_stmt 0
 1606 00da 9946     		li	a3,6
 1607 00dc B386D702 		mul	a3,a5,a3
 811:C:/Users/stapi/OneDrive/Desktop/GD32VW553/GD32VW55X_Wifi_BLE_SDK/GD32VW55x_RELEASE_V1.0.2/MSDK/plf/GD32VW55x_standard_peripheral/Source\gd32vw55x_dma.c ****             interrupt_enable = DMA_CHCTL(channelx) & DMA_CHXCTL_HTFIE;
 1608              		.loc 1 811 30
 1609 00e0 37670240 		li	a4,1073897472
 811:C:/Users/stapi/OneDrive/Desktop/GD32VW553/GD32VW55X_Wifi_BLE_SDK/GD32VW55x_RELEASE_V1.0.2/MSDK/plf/GD32VW55x_standard_peripheral/Source\gd32vw55x_dma.c ****             interrupt_enable = DMA_CHCTL(channelx) & DMA_CHXCTL_HTFIE;
 1610              		.loc 1 811 42
 1611 00e4 0581     		srli	a0,a0,1
 1612              	.LVL128:
 811:C:/Users/stapi/OneDrive/Desktop/GD32VW553/GD32VW55X_Wifi_BLE_SDK/GD32VW55x_RELEASE_V1.0.2/MSDK/plf/GD32VW55x_standard_peripheral/Source\gd32vw55x_dma.c ****             interrupt_enable = DMA_CHCTL(channelx) & DMA_CHXCTL_HTFIE;
 1613              		.loc 1 811 30
 1614 00e6 1043     		lw	a2,0(a4)
 812:C:/Users/stapi/OneDrive/Desktop/GD32VW553/GD32VW55X_Wifi_BLE_SDK/GD32VW55x_RELEASE_V1.0.2/MSDK/plf/GD32VW55x_standard_peripheral/Source\gd32vw55x_dma.c ****             break;
 1615              		.loc 1 812 32
 1616 00e8 4107     		addi	a4,a4,16
 811:C:/Users/stapi/OneDrive/Desktop/GD32VW553/GD32VW55X_Wifi_BLE_SDK/GD32VW55x_RELEASE_V1.0.2/MSDK/plf/GD32VW55x_standard_peripheral/Source\gd32vw55x_dma.c ****             interrupt_enable = DMA_CHCTL(channelx) & DMA_CHXCTL_HTFIE;
 1617              		.loc 1 811 42
 1618 00ea 3345D520 		sh2add	a0,a0,a3
 812:C:/Users/stapi/OneDrive/Desktop/GD32VW553/GD32VW55X_Wifi_BLE_SDK/GD32VW55x_RELEASE_V1.0.2/MSDK/plf/GD32VW55x_standard_peripheral/Source\gd32vw55x_dma.c ****             break;
 1619              		.loc 1 812 32
 1620 00ee E146     		li	a3,24
 1621 00f0 7F97D7C4 		maddr32	a4, a5, a3
 1622 00f4 1C43     		lw	a5,0(a4)
 1623              	.LVL129:
 811:C:/Users/stapi/OneDrive/Desktop/GD32VW553/GD32VW55X_Wifi_BLE_SDK/GD32VW55x_RELEASE_V1.0.2/MSDK/plf/GD32VW55x_standard_peripheral/Source\gd32vw55x_dma.c ****             interrupt_enable = DMA_CHCTL(channelx) & DMA_CHXCTL_HTFIE;
 1624              		.loc 1 811 42
 1625 00f6 B395A500 		sll	a1,a1,a0
 1626              	.LVL130:
 811:C:/Users/stapi/OneDrive/Desktop/GD32VW553/GD32VW55X_Wifi_BLE_SDK/GD32VW55x_RELEASE_V1.0.2/MSDK/plf/GD32VW55x_standard_peripheral/Source\gd32vw55x_dma.c ****             interrupt_enable = DMA_CHCTL(channelx) & DMA_CHXCTL_HTFIE;
 1627              		.loc 1 811 28
 1628 00fa 33F5C500 		and	a0,a1,a2
 1629              	.LVL131:
 812:C:/Users/stapi/OneDrive/Desktop/GD32VW553/GD32VW55X_Wifi_BLE_SDK/GD32VW55x_RELEASE_V1.0.2/MSDK/plf/GD32VW55x_standard_peripheral/Source\gd32vw55x_dma.c ****             break;
 1630              		.loc 1 812 13 is_stmt 1
 1631              	.L102:
 838:C:/Users/stapi/OneDrive/Desktop/GD32VW553/GD32VW55X_Wifi_BLE_SDK/GD32VW55x_RELEASE_V1.0.2/MSDK/plf/GD32VW55x_standard_peripheral/Source\gd32vw55x_dma.c ****             break;
 1632              		.loc 1 838 30 is_stmt 0
 1633 00fe A18B     		andi	a5,a5,8
 1634              	.LVL132:
 839:C:/Users/stapi/OneDrive/Desktop/GD32VW553/GD32VW55X_Wifi_BLE_SDK/GD32VW55x_RELEASE_V1.0.2/MSDK/plf/GD32VW55x_standard_peripheral/Source\gd32vw55x_dma.c ****         case DMA_INTF_FTFIF:
 1635              		.loc 1 839 13 is_stmt 1
 1636 0100 49B7     		j	.L89
 1637              	.LVL133:
 1638              	.L81:
 822:C:/Users/stapi/OneDrive/Desktop/GD32VW553/GD32VW55X_Wifi_BLE_SDK/GD32VW55x_RELEASE_V1.0.2/MSDK/plf/GD32VW55x_standard_peripheral/Source\gd32vw55x_dma.c ****         switch(int_flag){
 1639              		.loc 1 822 9
 823:C:/Users/stapi/OneDrive/Desktop/GD32VW553/GD32VW55X_Wifi_BLE_SDK/GD32VW55x_RELEASE_V1.0.2/MSDK/plf/GD32VW55x_standard_peripheral/Source\gd32vw55x_dma.c ****         case DMA_INTF_FEEIF:
 1640              		.loc 1 823 9 is_stmt 0
 1641 0102 A146     		li	a3,8
 822:C:/Users/stapi/OneDrive/Desktop/GD32VW553/GD32VW55X_Wifi_BLE_SDK/GD32VW55x_RELEASE_V1.0.2/MSDK/plf/GD32VW55x_standard_peripheral/Source\gd32vw55x_dma.c ****         switch(int_flag){
 1642              		.loc 1 822 29
 1643 0104 1307C5FF 		addi	a4,a0,-4
 1644              	.LVL134:
 823:C:/Users/stapi/OneDrive/Desktop/GD32VW553/GD32VW55X_Wifi_BLE_SDK/GD32VW55x_RELEASE_V1.0.2/MSDK/plf/GD32VW55x_standard_peripheral/Source\gd32vw55x_dma.c ****         case DMA_INTF_FEEIF:
 1645              		.loc 1 823 9 is_stmt 1
 1646 0108 638FD508 		beq	a1,a3,.L90
 1647 010c 63EDB602 		bgtu	a1,a3,.L91
 1648 0110 8546     		li	a3,1
 1649 0112 6385D506 		beq	a1,a3,.L92
 1650 0116 9146     		li	a3,4
 1651 0118 E393D5F0 		bne	a1,a3,.L105
 829:C:/Users/stapi/OneDrive/Desktop/GD32VW553/GD32VW55X_Wifi_BLE_SDK/GD32VW55x_RELEASE_V1.0.2/MSDK/plf/GD32VW55x_standard_peripheral/Source\gd32vw55x_dma.c ****             interrupt_enable = DMA_CHCTL(channelx) & DMA_CHXCTL_SDEIE;
 1652              		.loc 1 829 13
 829:C:/Users/stapi/OneDrive/Desktop/GD32VW553/GD32VW55X_Wifi_BLE_SDK/GD32VW55x_RELEASE_V1.0.2/MSDK/plf/GD32VW55x_standard_peripheral/Source\gd32vw55x_dma.c ****             interrupt_enable = DMA_CHCTL(channelx) & DMA_CHXCTL_SDEIE;
 1653              		.loc 1 829 42 is_stmt 0
 1654 011c 1946     		li	a2,6
 1655 011e 13551748 		bexti	a0,a4,1
 1656              	.LVL135:
 1657 0122 3307C702 		mul	a4,a4,a2
 1658              	.LVL136:
 829:C:/Users/stapi/OneDrive/Desktop/GD32VW553/GD32VW55X_Wifi_BLE_SDK/GD32VW55x_RELEASE_V1.0.2/MSDK/plf/GD32VW55x_standard_peripheral/Source\gd32vw55x_dma.c ****             interrupt_enable = DMA_CHCTL(channelx) & DMA_CHXCTL_SDEIE;
 1659              		.loc 1 829 30
 1660 0126 B7660240 		li	a3,1073897472
 1661 012a 03A84600 		lw	a6,4(a3)
 830:C:/Users/stapi/OneDrive/Desktop/GD32VW553/GD32VW55X_Wifi_BLE_SDK/GD32VW55x_RELEASE_V1.0.2/MSDK/plf/GD32VW55x_standard_peripheral/Source\gd32vw55x_dma.c ****             break;
 1662              		.loc 1 830 32
 1663 012e C106     		addi	a3,a3,16
 829:C:/Users/stapi/OneDrive/Desktop/GD32VW553/GD32VW55X_Wifi_BLE_SDK/GD32VW55x_RELEASE_V1.0.2/MSDK/plf/GD32VW55x_standard_peripheral/Source\gd32vw55x_dma.c ****             interrupt_enable = DMA_CHCTL(channelx) & DMA_CHXCTL_SDEIE;
 1664              		.loc 1 829 42
 1665 0130 3345E520 		sh2add	a0,a0,a4
 830:C:/Users/stapi/OneDrive/Desktop/GD32VW553/GD32VW55X_Wifi_BLE_SDK/GD32VW55x_RELEASE_V1.0.2/MSDK/plf/GD32VW55x_standard_peripheral/Source\gd32vw55x_dma.c ****             break;
 1666              		.loc 1 830 32
 1667 0134 6147     		li	a4,24
 829:C:/Users/stapi/OneDrive/Desktop/GD32VW553/GD32VW55X_Wifi_BLE_SDK/GD32VW55x_RELEASE_V1.0.2/MSDK/plf/GD32VW55x_standard_peripheral/Source\gd32vw55x_dma.c ****             interrupt_enable = DMA_CHCTL(channelx) & DMA_CHXCTL_SDEIE;
 1668              		.loc 1 829 42
 1669 0136 B395A500 		sll	a1,a1,a0
 1670              	.LVL137:
 830:C:/Users/stapi/OneDrive/Desktop/GD32VW553/GD32VW55X_Wifi_BLE_SDK/GD32VW55x_RELEASE_V1.0.2/MSDK/plf/GD32VW55x_standard_peripheral/Source\gd32vw55x_dma.c ****             break;
 1671              		.loc 1 830 32
 1672 013a FF96E7C4 		maddr32	a3, a5, a4
 829:C:/Users/stapi/OneDrive/Desktop/GD32VW553/GD32VW55X_Wifi_BLE_SDK/GD32VW55x_RELEASE_V1.0.2/MSDK/plf/GD32VW55x_standard_peripheral/Source\gd32vw55x_dma.c ****             interrupt_enable = DMA_CHCTL(channelx) & DMA_CHXCTL_SDEIE;
 1673              		.loc 1 829 28
 1674 013e 33F50501 		and	a0,a1,a6
 1675              	.LVL138:
 830:C:/Users/stapi/OneDrive/Desktop/GD32VW553/GD32VW55X_Wifi_BLE_SDK/GD32VW55x_RELEASE_V1.0.2/MSDK/plf/GD32VW55x_standard_peripheral/Source\gd32vw55x_dma.c ****             break;
 1676              		.loc 1 830 13 is_stmt 1
 830:C:/Users/stapi/OneDrive/Desktop/GD32VW553/GD32VW55X_Wifi_BLE_SDK/GD32VW55x_RELEASE_V1.0.2/MSDK/plf/GD32VW55x_standard_peripheral/Source\gd32vw55x_dma.c ****             break;
 1677              		.loc 1 830 32 is_stmt 0
 1678 0142 9C42     		lw	a5,0(a3)
 1679              	.LVL139:
 1680 0144 ADB7     		j	.L103
 1681              	.LVL140:
 1682              	.L91:
 823:C:/Users/stapi/OneDrive/Desktop/GD32VW553/GD32VW55X_Wifi_BLE_SDK/GD32VW55x_RELEASE_V1.0.2/MSDK/plf/GD32VW55x_standard_peripheral/Source\gd32vw55x_dma.c ****         case DMA_INTF_FEEIF:
 1683              		.loc 1 823 9
 1684 0146 C146     		li	a3,16
 1685 0148 6384D508 		beq	a1,a3,.L94
 1686 014c 93060002 		li	a3,32
 1687 0150 E397D5EC 		bne	a1,a3,.L105
 841:C:/Users/stapi/OneDrive/Desktop/GD32VW553/GD32VW55X_Wifi_BLE_SDK/GD32VW55x_RELEASE_V1.0.2/MSDK/plf/GD32VW55x_standard_peripheral/Source\gd32vw55x_dma.c ****             interrupt_enable = DMA_CHCTL(channelx) & DMA_CHXCTL_FTFIE;
 1688              		.loc 1 841 13 is_stmt 1
 841:C:/Users/stapi/OneDrive/Desktop/GD32VW553/GD32VW55X_Wifi_BLE_SDK/GD32VW55x_RELEASE_V1.0.2/MSDK/plf/GD32VW55x_standard_peripheral/Source\gd32vw55x_dma.c ****             interrupt_enable = DMA_CHCTL(channelx) & DMA_CHXCTL_FTFIE;
 1689              		.loc 1 841 42 is_stmt 0
 1690 0154 1948     		li	a6,6
 1691 0156 13551748 		bexti	a0,a4,1
 1692              	.LVL141:
 1693 015a 33070703 		mul	a4,a4,a6
 1694              	.LVL142:
 841:C:/Users/stapi/OneDrive/Desktop/GD32VW553/GD32VW55X_Wifi_BLE_SDK/GD32VW55x_RELEASE_V1.0.2/MSDK/plf/GD32VW55x_standard_peripheral/Source\gd32vw55x_dma.c ****             interrupt_enable = DMA_CHCTL(channelx) & DMA_CHXCTL_FTFIE;
 1695              		.loc 1 841 30
 1696 015e B7660240 		li	a3,1073897472
 1697 0162 D042     		lw	a2,4(a3)
 842:C:/Users/stapi/OneDrive/Desktop/GD32VW553/GD32VW55X_Wifi_BLE_SDK/GD32VW55x_RELEASE_V1.0.2/MSDK/plf/GD32VW55x_standard_peripheral/Source\gd32vw55x_dma.c ****             break;
 1698              		.loc 1 842 32
 1699 0164 C106     		addi	a3,a3,16
 841:C:/Users/stapi/OneDrive/Desktop/GD32VW553/GD32VW55X_Wifi_BLE_SDK/GD32VW55x_RELEASE_V1.0.2/MSDK/plf/GD32VW55x_standard_peripheral/Source\gd32vw55x_dma.c ****             interrupt_enable = DMA_CHCTL(channelx) & DMA_CHXCTL_FTFIE;
 1700              		.loc 1 841 42
 1701 0166 3347E520 		sh2add	a4,a0,a4
 1702 016a B395E500 		sll	a1,a1,a4
 1703              	.LVL143:
 842:C:/Users/stapi/OneDrive/Desktop/GD32VW553/GD32VW55X_Wifi_BLE_SDK/GD32VW55x_RELEASE_V1.0.2/MSDK/plf/GD32VW55x_standard_peripheral/Source\gd32vw55x_dma.c ****             break;
 1704              		.loc 1 842 32
 1705 016e 6147     		li	a4,24
 1706 0170 FF96E7C4 		maddr32	a3, a5, a4
 841:C:/Users/stapi/OneDrive/Desktop/GD32VW553/GD32VW55X_Wifi_BLE_SDK/GD32VW55x_RELEASE_V1.0.2/MSDK/plf/GD32VW55x_standard_peripheral/Source\gd32vw55x_dma.c ****             interrupt_enable = DMA_CHCTL(channelx) & DMA_CHXCTL_FTFIE;
 1707              		.loc 1 841 28
 1708 0174 33F5C500 		and	a0,a1,a2
 1709              	.LVL144:
 842:C:/Users/stapi/OneDrive/Desktop/GD32VW553/GD32VW55X_Wifi_BLE_SDK/GD32VW55x_RELEASE_V1.0.2/MSDK/plf/GD32VW55x_standard_peripheral/Source\gd32vw55x_dma.c ****             break;
 1710              		.loc 1 842 13 is_stmt 1
 842:C:/Users/stapi/OneDrive/Desktop/GD32VW553/GD32VW55X_Wifi_BLE_SDK/GD32VW55x_RELEASE_V1.0.2/MSDK/plf/GD32VW55x_standard_peripheral/Source\gd32vw55x_dma.c ****             break;
 1711              		.loc 1 842 32 is_stmt 0
 1712 0178 9C42     		lw	a5,0(a3)
 1713              	.LVL145:
 1714 017a E9BD     		j	.L100
 1715              	.LVL146:
 1716              	.L92:
 825:C:/Users/stapi/OneDrive/Desktop/GD32VW553/GD32VW55X_Wifi_BLE_SDK/GD32VW55x_RELEASE_V1.0.2/MSDK/plf/GD32VW55x_standard_peripheral/Source\gd32vw55x_dma.c ****             interrupt_enable = DMA_CHFCTL(channelx) & DMA_CHXFCTL_FEEIE;
 1717              		.loc 1 825 13 is_stmt 1
 825:C:/Users/stapi/OneDrive/Desktop/GD32VW553/GD32VW55X_Wifi_BLE_SDK/GD32VW55x_RELEASE_V1.0.2/MSDK/plf/GD32VW55x_standard_peripheral/Source\gd32vw55x_dma.c ****             interrupt_enable = DMA_CHFCTL(channelx) & DMA_CHXFCTL_FEEIE;
 1718              		.loc 1 825 42 is_stmt 0
 1719 017c 9945     		li	a1,6
 1720              	.LVL147:
 1721 017e 13551748 		bexti	a0,a4,1
 1722              	.LVL148:
 1723 0182 3307B702 		mul	a4,a4,a1
 1724              	.LVL149:
 825:C:/Users/stapi/OneDrive/Desktop/GD32VW553/GD32VW55X_Wifi_BLE_SDK/GD32VW55x_RELEASE_V1.0.2/MSDK/plf/GD32VW55x_standard_peripheral/Source\gd32vw55x_dma.c ****             interrupt_enable = DMA_CHFCTL(channelx) & DMA_CHXFCTL_FEEIE;
 1725              		.loc 1 825 30
 1726 0186 B7660240 		li	a3,1073897472
 1727 018a D042     		lw	a2,4(a3)
 826:C:/Users/stapi/OneDrive/Desktop/GD32VW553/GD32VW55X_Wifi_BLE_SDK/GD32VW55x_RELEASE_V1.0.2/MSDK/plf/GD32VW55x_standard_peripheral/Source\gd32vw55x_dma.c ****             break;
 1728              		.loc 1 826 32
 1729 018c 93864602 		addi	a3,a3,36
 825:C:/Users/stapi/OneDrive/Desktop/GD32VW553/GD32VW55X_Wifi_BLE_SDK/GD32VW55x_RELEASE_V1.0.2/MSDK/plf/GD32VW55x_standard_peripheral/Source\gd32vw55x_dma.c ****             interrupt_enable = DMA_CHFCTL(channelx) & DMA_CHXFCTL_FEEIE;
 1730              		.loc 1 825 42
 1731 0190 3345E520 		sh2add	a0,a0,a4
 826:C:/Users/stapi/OneDrive/Desktop/GD32VW553/GD32VW55X_Wifi_BLE_SDK/GD32VW55x_RELEASE_V1.0.2/MSDK/plf/GD32VW55x_standard_peripheral/Source\gd32vw55x_dma.c ****             break;
 1732              		.loc 1 826 32
 1733 0194 6147     		li	a4,24
 825:C:/Users/stapi/OneDrive/Desktop/GD32VW553/GD32VW55X_Wifi_BLE_SDK/GD32VW55x_RELEASE_V1.0.2/MSDK/plf/GD32VW55x_standard_peripheral/Source\gd32vw55x_dma.c ****             interrupt_enable = DMA_CHFCTL(channelx) & DMA_CHXFCTL_FEEIE;
 1734              		.loc 1 825 42
 1735 0196 B315A028 		bset	a1,x0,a0
 826:C:/Users/stapi/OneDrive/Desktop/GD32VW553/GD32VW55X_Wifi_BLE_SDK/GD32VW55x_RELEASE_V1.0.2/MSDK/plf/GD32VW55x_standard_peripheral/Source\gd32vw55x_dma.c ****             break;
 1736              		.loc 1 826 32
 1737 019a FF96E7C4 		maddr32	a3, a5, a4
 825:C:/Users/stapi/OneDrive/Desktop/GD32VW553/GD32VW55X_Wifi_BLE_SDK/GD32VW55x_RELEASE_V1.0.2/MSDK/plf/GD32VW55x_standard_peripheral/Source\gd32vw55x_dma.c ****             interrupt_enable = DMA_CHFCTL(channelx) & DMA_CHXFCTL_FEEIE;
 1738              		.loc 1 825 28
 1739 019e 33F5C500 		and	a0,a1,a2
 1740              	.LVL150:
 826:C:/Users/stapi/OneDrive/Desktop/GD32VW553/GD32VW55X_Wifi_BLE_SDK/GD32VW55x_RELEASE_V1.0.2/MSDK/plf/GD32VW55x_standard_peripheral/Source\gd32vw55x_dma.c ****             break;
 1741              		.loc 1 826 13 is_stmt 1
 826:C:/Users/stapi/OneDrive/Desktop/GD32VW553/GD32VW55X_Wifi_BLE_SDK/GD32VW55x_RELEASE_V1.0.2/MSDK/plf/GD32VW55x_standard_peripheral/Source\gd32vw55x_dma.c ****             break;
 1742              		.loc 1 826 32 is_stmt 0
 1743 01a2 9C42     		lw	a5,0(a3)
 1744              	.LVL151:
 1745 01a4 E9BD     		j	.L99
 1746              	.LVL152:
 1747              	.L90:
 833:C:/Users/stapi/OneDrive/Desktop/GD32VW553/GD32VW55X_Wifi_BLE_SDK/GD32VW55x_RELEASE_V1.0.2/MSDK/plf/GD32VW55x_standard_peripheral/Source\gd32vw55x_dma.c ****             interrupt_enable = DMA_CHCTL(channelx) & DMA_CHXCTL_TAEIE;
 1748              		.loc 1 833 13 is_stmt 1
 833:C:/Users/stapi/OneDrive/Desktop/GD32VW553/GD32VW55X_Wifi_BLE_SDK/GD32VW55x_RELEASE_V1.0.2/MSDK/plf/GD32VW55x_standard_peripheral/Source\gd32vw55x_dma.c ****             interrupt_enable = DMA_CHCTL(channelx) & DMA_CHXCTL_TAEIE;
 1749              		.loc 1 833 42 is_stmt 0
 1750 01a6 1946     		li	a2,6
 1751 01a8 13551748 		bexti	a0,a4,1
 1752              	.LVL153:
 1753 01ac 3307C702 		mul	a4,a4,a2
 1754              	.LVL154:
 833:C:/Users/stapi/OneDrive/Desktop/GD32VW553/GD32VW55X_Wifi_BLE_SDK/GD32VW55x_RELEASE_V1.0.2/MSDK/plf/GD32VW55x_standard_peripheral/Source\gd32vw55x_dma.c ****             interrupt_enable = DMA_CHCTL(channelx) & DMA_CHXCTL_TAEIE;
 1755              		.loc 1 833 30
 1756 01b0 B7660240 		li	a3,1073897472
 1757 01b4 03A84600 		lw	a6,4(a3)
 834:C:/Users/stapi/OneDrive/Desktop/GD32VW553/GD32VW55X_Wifi_BLE_SDK/GD32VW55x_RELEASE_V1.0.2/MSDK/plf/GD32VW55x_standard_peripheral/Source\gd32vw55x_dma.c ****             break;
 1758              		.loc 1 834 32
 1759 01b8 C106     		addi	a3,a3,16
 833:C:/Users/stapi/OneDrive/Desktop/GD32VW553/GD32VW55X_Wifi_BLE_SDK/GD32VW55x_RELEASE_V1.0.2/MSDK/plf/GD32VW55x_standard_peripheral/Source\gd32vw55x_dma.c ****             interrupt_enable = DMA_CHCTL(channelx) & DMA_CHXCTL_TAEIE;
 1760              		.loc 1 833 42
 1761 01ba 3345E520 		sh2add	a0,a0,a4
 834:C:/Users/stapi/OneDrive/Desktop/GD32VW553/GD32VW55X_Wifi_BLE_SDK/GD32VW55x_RELEASE_V1.0.2/MSDK/plf/GD32VW55x_standard_peripheral/Source\gd32vw55x_dma.c ****             break;
 1762              		.loc 1 834 32
 1763 01be 6147     		li	a4,24
 833:C:/Users/stapi/OneDrive/Desktop/GD32VW553/GD32VW55X_Wifi_BLE_SDK/GD32VW55x_RELEASE_V1.0.2/MSDK/plf/GD32VW55x_standard_peripheral/Source\gd32vw55x_dma.c ****             interrupt_enable = DMA_CHCTL(channelx) & DMA_CHXCTL_TAEIE;
 1764              		.loc 1 833 42
 1765 01c0 B395A500 		sll	a1,a1,a0
 1766              	.LVL155:
 834:C:/Users/stapi/OneDrive/Desktop/GD32VW553/GD32VW55X_Wifi_BLE_SDK/GD32VW55x_RELEASE_V1.0.2/MSDK/plf/GD32VW55x_standard_peripheral/Source\gd32vw55x_dma.c ****             break;
 1767              		.loc 1 834 32
 1768 01c4 FF96E7C4 		maddr32	a3, a5, a4
 833:C:/Users/stapi/OneDrive/Desktop/GD32VW553/GD32VW55X_Wifi_BLE_SDK/GD32VW55x_RELEASE_V1.0.2/MSDK/plf/GD32VW55x_standard_peripheral/Source\gd32vw55x_dma.c ****             interrupt_enable = DMA_CHCTL(channelx) & DMA_CHXCTL_TAEIE;
 1769              		.loc 1 833 28
 1770 01c8 33F50501 		and	a0,a1,a6
 1771              	.LVL156:
 834:C:/Users/stapi/OneDrive/Desktop/GD32VW553/GD32VW55X_Wifi_BLE_SDK/GD32VW55x_RELEASE_V1.0.2/MSDK/plf/GD32VW55x_standard_peripheral/Source\gd32vw55x_dma.c ****             break;
 1772              		.loc 1 834 13 is_stmt 1
 834:C:/Users/stapi/OneDrive/Desktop/GD32VW553/GD32VW55X_Wifi_BLE_SDK/GD32VW55x_RELEASE_V1.0.2/MSDK/plf/GD32VW55x_standard_peripheral/Source\gd32vw55x_dma.c ****             break;
 1773              		.loc 1 834 32 is_stmt 0
 1774 01cc 9C42     		lw	a5,0(a3)
 1775              	.LVL157:
 1776 01ce 21B7     		j	.L101
 1777              	.LVL158:
 1778              	.L94:
 837:C:/Users/stapi/OneDrive/Desktop/GD32VW553/GD32VW55X_Wifi_BLE_SDK/GD32VW55x_RELEASE_V1.0.2/MSDK/plf/GD32VW55x_standard_peripheral/Source\gd32vw55x_dma.c ****             interrupt_enable = DMA_CHCTL(channelx) & DMA_CHXCTL_HTFIE;
 1779              		.loc 1 837 13 is_stmt 1
 837:C:/Users/stapi/OneDrive/Desktop/GD32VW553/GD32VW55X_Wifi_BLE_SDK/GD32VW55x_RELEASE_V1.0.2/MSDK/plf/GD32VW55x_standard_peripheral/Source\gd32vw55x_dma.c ****             interrupt_enable = DMA_CHCTL(channelx) & DMA_CHXCTL_HTFIE;
 1780              		.loc 1 837 42 is_stmt 0
 1781 01d0 1946     		li	a2,6
 1782 01d2 13551748 		bexti	a0,a4,1
 1783              	.LVL159:
 1784 01d6 3307C702 		mul	a4,a4,a2
 1785              	.LVL160:
 837:C:/Users/stapi/OneDrive/Desktop/GD32VW553/GD32VW55X_Wifi_BLE_SDK/GD32VW55x_RELEASE_V1.0.2/MSDK/plf/GD32VW55x_standard_peripheral/Source\gd32vw55x_dma.c ****             interrupt_enable = DMA_CHCTL(channelx) & DMA_CHXCTL_HTFIE;
 1786              		.loc 1 837 30
 1787 01da B7660240 		li	a3,1073897472
 1788 01de 03A84600 		lw	a6,4(a3)
 838:C:/Users/stapi/OneDrive/Desktop/GD32VW553/GD32VW55X_Wifi_BLE_SDK/GD32VW55x_RELEASE_V1.0.2/MSDK/plf/GD32VW55x_standard_peripheral/Source\gd32vw55x_dma.c ****             break;
 1789              		.loc 1 838 32
 1790 01e2 C106     		addi	a3,a3,16
 837:C:/Users/stapi/OneDrive/Desktop/GD32VW553/GD32VW55X_Wifi_BLE_SDK/GD32VW55x_RELEASE_V1.0.2/MSDK/plf/GD32VW55x_standard_peripheral/Source\gd32vw55x_dma.c ****             interrupt_enable = DMA_CHCTL(channelx) & DMA_CHXCTL_HTFIE;
 1791              		.loc 1 837 42
 1792 01e4 3345E520 		sh2add	a0,a0,a4
 838:C:/Users/stapi/OneDrive/Desktop/GD32VW553/GD32VW55X_Wifi_BLE_SDK/GD32VW55x_RELEASE_V1.0.2/MSDK/plf/GD32VW55x_standard_peripheral/Source\gd32vw55x_dma.c ****             break;
 1793              		.loc 1 838 32
 1794 01e8 6147     		li	a4,24
 837:C:/Users/stapi/OneDrive/Desktop/GD32VW553/GD32VW55X_Wifi_BLE_SDK/GD32VW55x_RELEASE_V1.0.2/MSDK/plf/GD32VW55x_standard_peripheral/Source\gd32vw55x_dma.c ****             interrupt_enable = DMA_CHCTL(channelx) & DMA_CHXCTL_HTFIE;
 1795              		.loc 1 837 42
 1796 01ea B395A500 		sll	a1,a1,a0
 1797              	.LVL161:
 838:C:/Users/stapi/OneDrive/Desktop/GD32VW553/GD32VW55X_Wifi_BLE_SDK/GD32VW55x_RELEASE_V1.0.2/MSDK/plf/GD32VW55x_standard_peripheral/Source\gd32vw55x_dma.c ****             break;
 1798              		.loc 1 838 32
 1799 01ee FF96E7C4 		maddr32	a3, a5, a4
 837:C:/Users/stapi/OneDrive/Desktop/GD32VW553/GD32VW55X_Wifi_BLE_SDK/GD32VW55x_RELEASE_V1.0.2/MSDK/plf/GD32VW55x_standard_peripheral/Source\gd32vw55x_dma.c ****             interrupt_enable = DMA_CHCTL(channelx) & DMA_CHXCTL_HTFIE;
 1800              		.loc 1 837 28
 1801 01f2 33F50501 		and	a0,a1,a6
 1802              	.LVL162:
 838:C:/Users/stapi/OneDrive/Desktop/GD32VW553/GD32VW55X_Wifi_BLE_SDK/GD32VW55x_RELEASE_V1.0.2/MSDK/plf/GD32VW55x_standard_peripheral/Source\gd32vw55x_dma.c ****             break;
 1803              		.loc 1 838 13 is_stmt 1
 838:C:/Users/stapi/OneDrive/Desktop/GD32VW553/GD32VW55X_Wifi_BLE_SDK/GD32VW55x_RELEASE_V1.0.2/MSDK/plf/GD32VW55x_standard_peripheral/Source\gd32vw55x_dma.c ****             break;
 1804              		.loc 1 838 32 is_stmt 0
 1805 01f6 9C42     		lw	a5,0(a3)
 1806              	.LVL163:
 1807 01f8 19B7     		j	.L102
 1808              		.cfi_endproc
 1809              	.LFE397:
 1811              		.section	.text.dma_interrupt_flag_clear,"ax",@progbits
 1812              		.align	1
 1813              		.globl	dma_interrupt_flag_clear
 1815              	dma_interrupt_flag_clear:
 1816              	.LFB400:
 1817              		.cfi_startproc
 1818 0000 17030000 		tail	dma_flag_clear
 1818      67000300 
 1819              		.cfi_endproc
 1820              	.LFE400:
 1822              		.text
 1823              	.Letext0:
 1824              		.file 2 "c:\\users\\stapi\\onedrive\\desktop\\gd32vw553\\embeddedbuilder_v1.4.7.26843\\tools\\nucl
 1825              		.file 3 "c:\\users\\stapi\\onedrive\\desktop\\gd32vw553\\embeddedbuilder_v1.4.7.26843\\tools\\nucl
 1826              		.file 4 "..\\..\\..\\..\\plf\\riscv\\gd32vw55x/gd32vw55x.h"
 1827              		.file 5 "..\\..\\..\\..\\plf\\GD32VW55x_standard_peripheral\\Include/gd32vw55x_dma.h"
DEFINED SYMBOLS
                            *ABS*:0000000000000000 gd32vw55x_dma.c
C:\Users\stapi\AppData\Local\Temp\ccrA76jW.s:13     .text.dma_deinit:0000000000000000 dma_deinit
C:\Users\stapi\AppData\Local\Temp\ccrA76jW.s:17     .text.dma_deinit:0000000000000000 .L0 
C:\Users\stapi\AppData\Local\Temp\ccrA76jW.s:19     .text.dma_deinit:0000000000000000 .L0 
C:\Users\stapi\AppData\Local\Temp\ccrA76jW.s:20     .text.dma_deinit:0000000000000000 .L0 
C:\Users\stapi\AppData\Local\Temp\ccrA76jW.s:21     .text.dma_deinit:0000000000000000 .L0 
C:\Users\stapi\AppData\Local\Temp\ccrA76jW.s:30     .text.dma_deinit:0000000000000016 .L0 
C:\Users\stapi\AppData\Local\Temp\ccrA76jW.s:31     .text.dma_deinit:0000000000000016 .L0 
C:\Users\stapi\AppData\Local\Temp\ccrA76jW.s:33     .text.dma_deinit:000000000000001a .L0 
C:\Users\stapi\AppData\Local\Temp\ccrA76jW.s:36     .text.dma_deinit:0000000000000020 .L0 
C:\Users\stapi\AppData\Local\Temp\ccrA76jW.s:38     .text.dma_deinit:0000000000000024 .L0 
C:\Users\stapi\AppData\Local\Temp\ccrA76jW.s:41     .text.dma_deinit:000000000000002a .L0 
C:\Users\stapi\AppData\Local\Temp\ccrA76jW.s:43     .text.dma_deinit:000000000000002e .L0 
C:\Users\stapi\AppData\Local\Temp\ccrA76jW.s:46     .text.dma_deinit:0000000000000034 .L0 
C:\Users\stapi\AppData\Local\Temp\ccrA76jW.s:48     .text.dma_deinit:0000000000000038 .L0 
C:\Users\stapi\AppData\Local\Temp\ccrA76jW.s:51     .text.dma_deinit:000000000000003e .L0 
C:\Users\stapi\AppData\Local\Temp\ccrA76jW.s:53     .text.dma_deinit:0000000000000042 .L0 
C:\Users\stapi\AppData\Local\Temp\ccrA76jW.s:56     .text.dma_deinit:0000000000000048 .L0 
C:\Users\stapi\AppData\Local\Temp\ccrA76jW.s:59     .text.dma_deinit:000000000000004e .L0 
C:\Users\stapi\AppData\Local\Temp\ccrA76jW.s:60     .text.dma_deinit:000000000000004e .L0 
C:\Users\stapi\AppData\Local\Temp\ccrA76jW.s:63     .text.dma_deinit:0000000000000054 .L0 
C:\Users\stapi\AppData\Local\Temp\ccrA76jW.s:64     .text.dma_deinit:0000000000000054 .L0 
C:\Users\stapi\AppData\Local\Temp\ccrA76jW.s:69     .text.dma_deinit:000000000000005e .L0 
C:\Users\stapi\AppData\Local\Temp\ccrA76jW.s:71     .text.dma_deinit:0000000000000060 .L0 
C:\Users\stapi\AppData\Local\Temp\ccrA76jW.s:75     .text.dma_deinit:000000000000006c .L0 
C:\Users\stapi\AppData\Local\Temp\ccrA76jW.s:81     .text.dma_deinit:0000000000000072 .L0 
C:\Users\stapi\AppData\Local\Temp\ccrA76jW.s:82     .text.dma_deinit:0000000000000072 .L0 
C:\Users\stapi\AppData\Local\Temp\ccrA76jW.s:85     .text.dma_deinit:0000000000000076 .L0 
C:\Users\stapi\AppData\Local\Temp\ccrA76jW.s:86     .text.dma_deinit:0000000000000076 .L0 
C:\Users\stapi\AppData\Local\Temp\ccrA76jW.s:90     .text.dma_deinit:000000000000007c .L0 
C:\Users\stapi\AppData\Local\Temp\ccrA76jW.s:92     .text.dma_deinit:000000000000007e .L0 
C:\Users\stapi\AppData\Local\Temp\ccrA76jW.s:98     .text.dma_deinit:000000000000008e .L0 
C:\Users\stapi\AppData\Local\Temp\ccrA76jW.s:101    .text.dma_deinit:0000000000000092 .L0 
C:\Users\stapi\AppData\Local\Temp\ccrA76jW.s:102    .text.dma_deinit:0000000000000094 .L0 
C:\Users\stapi\AppData\Local\Temp\ccrA76jW.s:109    .text.dma_single_data_para_struct_init:0000000000000000 dma_single_data_para_struct_init
C:\Users\stapi\AppData\Local\Temp\ccrA76jW.s:112    .text.dma_single_data_para_struct_init:0000000000000000 .L0 
C:\Users\stapi\AppData\Local\Temp\ccrA76jW.s:114    .text.dma_single_data_para_struct_init:0000000000000000 .L0 
C:\Users\stapi\AppData\Local\Temp\ccrA76jW.s:115    .text.dma_single_data_para_struct_init:0000000000000000 .L0 
C:\Users\stapi\AppData\Local\Temp\ccrA76jW.s:116    .text.dma_single_data_para_struct_init:0000000000000000 .L0 
C:\Users\stapi\AppData\Local\Temp\ccrA76jW.s:118    .text.dma_single_data_para_struct_init:0000000000000002 .L0 
C:\Users\stapi\AppData\Local\Temp\ccrA76jW.s:120    .text.dma_single_data_para_struct_init:0000000000000006 .L0 
C:\Users\stapi\AppData\Local\Temp\ccrA76jW.s:121    .text.dma_single_data_para_struct_init:0000000000000006 .L0 
C:\Users\stapi\AppData\Local\Temp\ccrA76jW.s:123    .text.dma_single_data_para_struct_init:0000000000000008 .L0 
C:\Users\stapi\AppData\Local\Temp\ccrA76jW.s:124    .text.dma_single_data_para_struct_init:0000000000000008 .L0 
C:\Users\stapi\AppData\Local\Temp\ccrA76jW.s:126    .text.dma_single_data_para_struct_init:000000000000000c .L0 
C:\Users\stapi\AppData\Local\Temp\ccrA76jW.s:127    .text.dma_single_data_para_struct_init:000000000000000c .L0 
C:\Users\stapi\AppData\Local\Temp\ccrA76jW.s:129    .text.dma_single_data_para_struct_init:000000000000000e .L0 
C:\Users\stapi\AppData\Local\Temp\ccrA76jW.s:130    .text.dma_single_data_para_struct_init:000000000000000e .L0 
C:\Users\stapi\AppData\Local\Temp\ccrA76jW.s:132    .text.dma_single_data_para_struct_init:0000000000000012 .L0 
C:\Users\stapi\AppData\Local\Temp\ccrA76jW.s:133    .text.dma_single_data_para_struct_init:0000000000000012 .L0 
C:\Users\stapi\AppData\Local\Temp\ccrA76jW.s:135    .text.dma_single_data_para_struct_init:0000000000000016 .L0 
C:\Users\stapi\AppData\Local\Temp\ccrA76jW.s:136    .text.dma_single_data_para_struct_init:0000000000000016 .L0 
C:\Users\stapi\AppData\Local\Temp\ccrA76jW.s:138    .text.dma_single_data_para_struct_init:000000000000001a .L0 
C:\Users\stapi\AppData\Local\Temp\ccrA76jW.s:139    .text.dma_single_data_para_struct_init:000000000000001a .L0 
C:\Users\stapi\AppData\Local\Temp\ccrA76jW.s:141    .text.dma_single_data_para_struct_init:000000000000001e .L0 
C:\Users\stapi\AppData\Local\Temp\ccrA76jW.s:142    .text.dma_single_data_para_struct_init:000000000000001e .L0 
C:\Users\stapi\AppData\Local\Temp\ccrA76jW.s:144    .text.dma_single_data_para_struct_init:0000000000000022 .L0 
C:\Users\stapi\AppData\Local\Temp\ccrA76jW.s:145    .text.dma_single_data_para_struct_init:0000000000000024 .L0 
C:\Users\stapi\AppData\Local\Temp\ccrA76jW.s:152    .text.dma_multi_data_para_struct_init:0000000000000000 dma_multi_data_para_struct_init
C:\Users\stapi\AppData\Local\Temp\ccrA76jW.s:155    .text.dma_multi_data_para_struct_init:0000000000000000 .L0 
C:\Users\stapi\AppData\Local\Temp\ccrA76jW.s:157    .text.dma_multi_data_para_struct_init:0000000000000000 .L0 
C:\Users\stapi\AppData\Local\Temp\ccrA76jW.s:158    .text.dma_multi_data_para_struct_init:0000000000000000 .L0 
C:\Users\stapi\AppData\Local\Temp\ccrA76jW.s:159    .text.dma_multi_data_para_struct_init:0000000000000000 .L0 
C:\Users\stapi\AppData\Local\Temp\ccrA76jW.s:161    .text.dma_multi_data_para_struct_init:0000000000000002 .L0 
C:\Users\stapi\AppData\Local\Temp\ccrA76jW.s:163    .text.dma_multi_data_para_struct_init:0000000000000006 .L0 
C:\Users\stapi\AppData\Local\Temp\ccrA76jW.s:164    .text.dma_multi_data_para_struct_init:0000000000000006 .L0 
C:\Users\stapi\AppData\Local\Temp\ccrA76jW.s:166    .text.dma_multi_data_para_struct_init:000000000000000a .L0 
C:\Users\stapi\AppData\Local\Temp\ccrA76jW.s:167    .text.dma_multi_data_para_struct_init:000000000000000a .L0 
C:\Users\stapi\AppData\Local\Temp\ccrA76jW.s:169    .text.dma_multi_data_para_struct_init:000000000000000c .L0 
C:\Users\stapi\AppData\Local\Temp\ccrA76jW.s:170    .text.dma_multi_data_para_struct_init:000000000000000c .L0 
C:\Users\stapi\AppData\Local\Temp\ccrA76jW.s:172    .text.dma_multi_data_para_struct_init:0000000000000010 .L0 
C:\Users\stapi\AppData\Local\Temp\ccrA76jW.s:173    .text.dma_multi_data_para_struct_init:0000000000000010 .L0 
C:\Users\stapi\AppData\Local\Temp\ccrA76jW.s:175    .text.dma_multi_data_para_struct_init:0000000000000014 .L0 
C:\Users\stapi\AppData\Local\Temp\ccrA76jW.s:176    .text.dma_multi_data_para_struct_init:0000000000000014 .L0 
C:\Users\stapi\AppData\Local\Temp\ccrA76jW.s:178    .text.dma_multi_data_para_struct_init:0000000000000016 .L0 
C:\Users\stapi\AppData\Local\Temp\ccrA76jW.s:179    .text.dma_multi_data_para_struct_init:0000000000000016 .L0 
C:\Users\stapi\AppData\Local\Temp\ccrA76jW.s:181    .text.dma_multi_data_para_struct_init:000000000000001a .L0 
C:\Users\stapi\AppData\Local\Temp\ccrA76jW.s:182    .text.dma_multi_data_para_struct_init:000000000000001a .L0 
C:\Users\stapi\AppData\Local\Temp\ccrA76jW.s:184    .text.dma_multi_data_para_struct_init:000000000000001e .L0 
C:\Users\stapi\AppData\Local\Temp\ccrA76jW.s:185    .text.dma_multi_data_para_struct_init:000000000000001e .L0 
C:\Users\stapi\AppData\Local\Temp\ccrA76jW.s:187    .text.dma_multi_data_para_struct_init:0000000000000022 .L0 
C:\Users\stapi\AppData\Local\Temp\ccrA76jW.s:188    .text.dma_multi_data_para_struct_init:0000000000000022 .L0 
C:\Users\stapi\AppData\Local\Temp\ccrA76jW.s:190    .text.dma_multi_data_para_struct_init:0000000000000026 .L0 
C:\Users\stapi\AppData\Local\Temp\ccrA76jW.s:191    .text.dma_multi_data_para_struct_init:0000000000000026 .L0 
C:\Users\stapi\AppData\Local\Temp\ccrA76jW.s:193    .text.dma_multi_data_para_struct_init:000000000000002a .L0 
C:\Users\stapi\AppData\Local\Temp\ccrA76jW.s:194    .text.dma_multi_data_para_struct_init:000000000000002a .L0 
C:\Users\stapi\AppData\Local\Temp\ccrA76jW.s:196    .text.dma_multi_data_para_struct_init:000000000000002e .L0 
C:\Users\stapi\AppData\Local\Temp\ccrA76jW.s:197    .text.dma_multi_data_para_struct_init:0000000000000030 .L0 
C:\Users\stapi\AppData\Local\Temp\ccrA76jW.s:204    .text.dma_single_data_mode_init:0000000000000000 dma_single_data_mode_init
C:\Users\stapi\AppData\Local\Temp\ccrA76jW.s:207    .text.dma_single_data_mode_init:0000000000000000 .L0 
C:\Users\stapi\AppData\Local\Temp\ccrA76jW.s:209    .text.dma_single_data_mode_init:0000000000000000 .L0 
C:\Users\stapi\AppData\Local\Temp\ccrA76jW.s:210    .text.dma_single_data_mode_init:0000000000000000 .L0 
C:\Users\stapi\AppData\Local\Temp\ccrA76jW.s:211    .text.dma_single_data_mode_init:0000000000000000 .L0 
C:\Users\stapi\AppData\Local\Temp\ccrA76jW.s:212    .text.dma_single_data_mode_init:0000000000000000 .L0 
C:\Users\stapi\AppData\Local\Temp\ccrA76jW.s:222    .text.dma_single_data_mode_init:0000000000000016 .L0 
C:\Users\stapi\AppData\Local\Temp\ccrA76jW.s:223    .text.dma_single_data_mode_init:0000000000000016 .L0 
C:\Users\stapi\AppData\Local\Temp\ccrA76jW.s:225    .text.dma_single_data_mode_init:0000000000000018 .L0 
C:\Users\stapi\AppData\Local\Temp\ccrA76jW.s:228    .text.dma_single_data_mode_init:000000000000001e .L0 
C:\Users\stapi\AppData\Local\Temp\ccrA76jW.s:230    .text.dma_single_data_mode_init:0000000000000020 .L0 
C:\Users\stapi\AppData\Local\Temp\ccrA76jW.s:231    .text.dma_single_data_mode_init:0000000000000020 .L0 
C:\Users\stapi\AppData\Local\Temp\ccrA76jW.s:233    .text.dma_single_data_mode_init:0000000000000022 .L0 
C:\Users\stapi\AppData\Local\Temp\ccrA76jW.s:236    .text.dma_single_data_mode_init:0000000000000028 .L0 
C:\Users\stapi\AppData\Local\Temp\ccrA76jW.s:238    .text.dma_single_data_mode_init:000000000000002a .L0 
C:\Users\stapi\AppData\Local\Temp\ccrA76jW.s:239    .text.dma_single_data_mode_init:000000000000002a .L0 
C:\Users\stapi\AppData\Local\Temp\ccrA76jW.s:241    .text.dma_single_data_mode_init:000000000000002c .L0 
C:\Users\stapi\AppData\Local\Temp\ccrA76jW.s:244    .text.dma_single_data_mode_init:0000000000000032 .L0 
C:\Users\stapi\AppData\Local\Temp\ccrA76jW.s:246    .text.dma_single_data_mode_init:0000000000000034 .L0 
C:\Users\stapi\AppData\Local\Temp\ccrA76jW.s:248    .text.dma_single_data_mode_init:0000000000000036 .L0 
C:\Users\stapi\AppData\Local\Temp\ccrA76jW.s:249    .text.dma_single_data_mode_init:0000000000000036 .L0 
C:\Users\stapi\AppData\Local\Temp\ccrA76jW.s:251    .text.dma_single_data_mode_init:0000000000000038 .L0 
C:\Users\stapi\AppData\Local\Temp\ccrA76jW.s:254    .text.dma_single_data_mode_init:000000000000003a .L0 
C:\Users\stapi\AppData\Local\Temp\ccrA76jW.s:255    .text.dma_single_data_mode_init:000000000000003a .L0 
C:\Users\stapi\AppData\Local\Temp\ccrA76jW.s:258    .text.dma_single_data_mode_init:0000000000000042 .L0 
C:\Users\stapi\AppData\Local\Temp\ccrA76jW.s:260    .text.dma_single_data_mode_init:0000000000000044 .L0 
C:\Users\stapi\AppData\Local\Temp\ccrA76jW.s:263    .text.dma_single_data_mode_init:0000000000000046 .L0 
C:\Users\stapi\AppData\Local\Temp\ccrA76jW.s:264    .text.dma_single_data_mode_init:0000000000000046 .L0 
C:\Users\stapi\AppData\Local\Temp\ccrA76jW.s:269    .text.dma_single_data_mode_init:000000000000004e .L0 
C:\Users\stapi\AppData\Local\Temp\ccrA76jW.s:271    .text.dma_single_data_mode_init:0000000000000050 .L0 
C:\Users\stapi\AppData\Local\Temp\ccrA76jW.s:273    .text.dma_single_data_mode_init:0000000000000052 .L0 
C:\Users\stapi\AppData\Local\Temp\ccrA76jW.s:276    .text.dma_single_data_mode_init:0000000000000054 .L0 
C:\Users\stapi\AppData\Local\Temp\ccrA76jW.s:277    .text.dma_single_data_mode_init:0000000000000054 .L0 
C:\Users\stapi\AppData\Local\Temp\ccrA76jW.s:279    .text.dma_single_data_mode_init:0000000000000056 .L0 
C:\Users\stapi\AppData\Local\Temp\ccrA76jW.s:280    .text.dma_single_data_mode_init:0000000000000056 .L0 
C:\Users\stapi\AppData\Local\Temp\ccrA76jW.s:283    .text.dma_single_data_mode_init:0000000000000058 .L0 
C:\Users\stapi\AppData\Local\Temp\ccrA76jW.s:285    .text.dma_single_data_mode_init:000000000000005a .L0 
C:\Users\stapi\AppData\Local\Temp\ccrA76jW.s:286    .text.dma_single_data_mode_init:000000000000005a .L0 
C:\Users\stapi\AppData\Local\Temp\ccrA76jW.s:290    .text.dma_single_data_mode_init:0000000000000060 .L0 
C:\Users\stapi\AppData\Local\Temp\ccrA76jW.s:293    .text.dma_single_data_mode_init:0000000000000062 .L0 
C:\Users\stapi\AppData\Local\Temp\ccrA76jW.s:294    .text.dma_single_data_mode_init:0000000000000062 .L0 
C:\Users\stapi\AppData\Local\Temp\ccrA76jW.s:297    .text.dma_single_data_mode_init:0000000000000066 .L0 
C:\Users\stapi\AppData\Local\Temp\ccrA76jW.s:298    .text.dma_single_data_mode_init:0000000000000066 .L0 
C:\Users\stapi\AppData\Local\Temp\ccrA76jW.s:302    .text.dma_single_data_mode_init:000000000000006c .L0 
C:\Users\stapi\AppData\Local\Temp\ccrA76jW.s:304    .text.dma_single_data_mode_init:000000000000006e .L0 
C:\Users\stapi\AppData\Local\Temp\ccrA76jW.s:305    .text.dma_single_data_mode_init:000000000000006e .L0 
C:\Users\stapi\AppData\Local\Temp\ccrA76jW.s:309    .text.dma_single_data_mode_init:0000000000000076 .L0 
C:\Users\stapi\AppData\Local\Temp\ccrA76jW.s:310    .text.dma_single_data_mode_init:0000000000000076 .L0 
C:\Users\stapi\AppData\Local\Temp\ccrA76jW.s:314    .text.dma_single_data_mode_init:000000000000007c .L0 
C:\Users\stapi\AppData\Local\Temp\ccrA76jW.s:316    .text.dma_single_data_mode_init:000000000000007e .L0 
C:\Users\stapi\AppData\Local\Temp\ccrA76jW.s:320    .text.dma_single_data_mode_init:0000000000000080 .L0 
C:\Users\stapi\AppData\Local\Temp\ccrA76jW.s:321    .text.dma_single_data_mode_init:0000000000000080 .L0 
C:\Users\stapi\AppData\Local\Temp\ccrA76jW.s:324    .text.dma_single_data_mode_init:0000000000000086 .L0 
C:\Users\stapi\AppData\Local\Temp\ccrA76jW.s:325    .text.dma_single_data_mode_init:0000000000000086 .L0 
C:\Users\stapi\AppData\Local\Temp\ccrA76jW.s:330    .text.dma_single_data_mode_init:000000000000008e .L0 
C:\Users\stapi\AppData\Local\Temp\ccrA76jW.s:331    .text.dma_single_data_mode_init:000000000000008e .L0 
C:\Users\stapi\AppData\Local\Temp\ccrA76jW.s:337    .text.dma_single_data_mode_init:0000000000000096 .L0 
C:\Users\stapi\AppData\Local\Temp\ccrA76jW.s:338    .text.dma_single_data_mode_init:0000000000000096 .L0 
C:\Users\stapi\AppData\Local\Temp\ccrA76jW.s:343    .text.dma_single_data_mode_init:000000000000009e .L0 
C:\Users\stapi\AppData\Local\Temp\ccrA76jW.s:344    .text.dma_single_data_mode_init:000000000000009e .L0 
C:\Users\stapi\AppData\Local\Temp\ccrA76jW.s:347    .text.dma_single_data_mode_init:00000000000000a6 .L0 
C:\Users\stapi\AppData\Local\Temp\ccrA76jW.s:354    .text.dma_multi_data_mode_init:0000000000000000 dma_multi_data_mode_init
C:\Users\stapi\AppData\Local\Temp\ccrA76jW.s:357    .text.dma_multi_data_mode_init:0000000000000000 .L0 
C:\Users\stapi\AppData\Local\Temp\ccrA76jW.s:359    .text.dma_multi_data_mode_init:0000000000000000 .L0 
C:\Users\stapi\AppData\Local\Temp\ccrA76jW.s:360    .text.dma_multi_data_mode_init:0000000000000000 .L0 
C:\Users\stapi\AppData\Local\Temp\ccrA76jW.s:361    .text.dma_multi_data_mode_init:0000000000000000 .L0 
C:\Users\stapi\AppData\Local\Temp\ccrA76jW.s:362    .text.dma_multi_data_mode_init:0000000000000000 .L0 
C:\Users\stapi\AppData\Local\Temp\ccrA76jW.s:372    .text.dma_multi_data_mode_init:0000000000000016 .L0 
C:\Users\stapi\AppData\Local\Temp\ccrA76jW.s:373    .text.dma_multi_data_mode_init:0000000000000016 .L0 
C:\Users\stapi\AppData\Local\Temp\ccrA76jW.s:379    .text.dma_multi_data_mode_init:0000000000000022 .L0 
C:\Users\stapi\AppData\Local\Temp\ccrA76jW.s:380    .text.dma_multi_data_mode_init:0000000000000022 .L0 
C:\Users\stapi\AppData\Local\Temp\ccrA76jW.s:382    .text.dma_multi_data_mode_init:0000000000000024 .L0 
C:\Users\stapi\AppData\Local\Temp\ccrA76jW.s:385    .text.dma_multi_data_mode_init:000000000000002a .L0 
C:\Users\stapi\AppData\Local\Temp\ccrA76jW.s:387    .text.dma_multi_data_mode_init:000000000000002c .L0 
C:\Users\stapi\AppData\Local\Temp\ccrA76jW.s:388    .text.dma_multi_data_mode_init:000000000000002c .L0 
C:\Users\stapi\AppData\Local\Temp\ccrA76jW.s:390    .text.dma_multi_data_mode_init:000000000000002e .L0 
C:\Users\stapi\AppData\Local\Temp\ccrA76jW.s:393    .text.dma_multi_data_mode_init:0000000000000034 .L0 
C:\Users\stapi\AppData\Local\Temp\ccrA76jW.s:395    .text.dma_multi_data_mode_init:0000000000000036 .L0 
C:\Users\stapi\AppData\Local\Temp\ccrA76jW.s:396    .text.dma_multi_data_mode_init:0000000000000036 .L0 
C:\Users\stapi\AppData\Local\Temp\ccrA76jW.s:398    .text.dma_multi_data_mode_init:0000000000000038 .L0 
C:\Users\stapi\AppData\Local\Temp\ccrA76jW.s:401    .text.dma_multi_data_mode_init:000000000000003e .L0 
C:\Users\stapi\AppData\Local\Temp\ccrA76jW.s:403    .text.dma_multi_data_mode_init:0000000000000040 .L0 
C:\Users\stapi\AppData\Local\Temp\ccrA76jW.s:405    .text.dma_multi_data_mode_init:0000000000000042 .L0 
C:\Users\stapi\AppData\Local\Temp\ccrA76jW.s:406    .text.dma_multi_data_mode_init:0000000000000042 .L0 
C:\Users\stapi\AppData\Local\Temp\ccrA76jW.s:408    .text.dma_multi_data_mode_init:0000000000000044 .L0 
C:\Users\stapi\AppData\Local\Temp\ccrA76jW.s:411    .text.dma_multi_data_mode_init:0000000000000046 .L0 
C:\Users\stapi\AppData\Local\Temp\ccrA76jW.s:412    .text.dma_multi_data_mode_init:0000000000000046 .L0 
C:\Users\stapi\AppData\Local\Temp\ccrA76jW.s:415    .text.dma_multi_data_mode_init:000000000000004e .L0 
C:\Users\stapi\AppData\Local\Temp\ccrA76jW.s:417    .text.dma_multi_data_mode_init:0000000000000050 .L0 
C:\Users\stapi\AppData\Local\Temp\ccrA76jW.s:420    .text.dma_multi_data_mode_init:0000000000000052 .L0 
C:\Users\stapi\AppData\Local\Temp\ccrA76jW.s:421    .text.dma_multi_data_mode_init:0000000000000052 .L0 
C:\Users\stapi\AppData\Local\Temp\ccrA76jW.s:424    .text.dma_multi_data_mode_init:0000000000000056 .L0 
C:\Users\stapi\AppData\Local\Temp\ccrA76jW.s:427    .text.dma_multi_data_mode_init:000000000000005a .L0 
C:\Users\stapi\AppData\Local\Temp\ccrA76jW.s:430    .text.dma_multi_data_mode_init:000000000000005e .L0 
C:\Users\stapi\AppData\Local\Temp\ccrA76jW.s:433    .text.dma_multi_data_mode_init:0000000000000062 .L0 
C:\Users\stapi\AppData\Local\Temp\ccrA76jW.s:436    .text.dma_multi_data_mode_init:0000000000000066 .L0 
C:\Users\stapi\AppData\Local\Temp\ccrA76jW.s:439    .text.dma_multi_data_mode_init:0000000000000068 .L0 
C:\Users\stapi\AppData\Local\Temp\ccrA76jW.s:440    .text.dma_multi_data_mode_init:0000000000000068 .L0 
C:\Users\stapi\AppData\Local\Temp\ccrA76jW.s:442    .text.dma_multi_data_mode_init:000000000000006a .L0 
C:\Users\stapi\AppData\Local\Temp\ccrA76jW.s:443    .text.dma_multi_data_mode_init:000000000000006a .L0 
C:\Users\stapi\AppData\Local\Temp\ccrA76jW.s:446    .text.dma_multi_data_mode_init:000000000000006c .L0 
C:\Users\stapi\AppData\Local\Temp\ccrA76jW.s:448    .text.dma_multi_data_mode_init:000000000000006e .L0 
C:\Users\stapi\AppData\Local\Temp\ccrA76jW.s:449    .text.dma_multi_data_mode_init:000000000000006e .L0 
C:\Users\stapi\AppData\Local\Temp\ccrA76jW.s:453    .text.dma_multi_data_mode_init:0000000000000074 .L0 
C:\Users\stapi\AppData\Local\Temp\ccrA76jW.s:456    .text.dma_multi_data_mode_init:0000000000000076 .L0 
C:\Users\stapi\AppData\Local\Temp\ccrA76jW.s:457    .text.dma_multi_data_mode_init:0000000000000076 .L0 
C:\Users\stapi\AppData\Local\Temp\ccrA76jW.s:460    .text.dma_multi_data_mode_init:000000000000007a .L0 
C:\Users\stapi\AppData\Local\Temp\ccrA76jW.s:461    .text.dma_multi_data_mode_init:000000000000007a .L0 
C:\Users\stapi\AppData\Local\Temp\ccrA76jW.s:465    .text.dma_multi_data_mode_init:0000000000000080 .L0 
C:\Users\stapi\AppData\Local\Temp\ccrA76jW.s:467    .text.dma_multi_data_mode_init:0000000000000082 .L0 
C:\Users\stapi\AppData\Local\Temp\ccrA76jW.s:468    .text.dma_multi_data_mode_init:0000000000000082 .L0 
C:\Users\stapi\AppData\Local\Temp\ccrA76jW.s:472    .text.dma_multi_data_mode_init:000000000000008a .L0 
C:\Users\stapi\AppData\Local\Temp\ccrA76jW.s:473    .text.dma_multi_data_mode_init:000000000000008a .L0 
C:\Users\stapi\AppData\Local\Temp\ccrA76jW.s:477    .text.dma_multi_data_mode_init:0000000000000090 .L0 
C:\Users\stapi\AppData\Local\Temp\ccrA76jW.s:479    .text.dma_multi_data_mode_init:0000000000000092 .L0 
C:\Users\stapi\AppData\Local\Temp\ccrA76jW.s:483    .text.dma_multi_data_mode_init:0000000000000094 .L0 
C:\Users\stapi\AppData\Local\Temp\ccrA76jW.s:484    .text.dma_multi_data_mode_init:0000000000000094 .L0 
C:\Users\stapi\AppData\Local\Temp\ccrA76jW.s:487    .text.dma_multi_data_mode_init:000000000000009a .L0 
C:\Users\stapi\AppData\Local\Temp\ccrA76jW.s:488    .text.dma_multi_data_mode_init:000000000000009a .L0 
C:\Users\stapi\AppData\Local\Temp\ccrA76jW.s:493    .text.dma_multi_data_mode_init:00000000000000a2 .L0 
C:\Users\stapi\AppData\Local\Temp\ccrA76jW.s:494    .text.dma_multi_data_mode_init:00000000000000a2 .L0 
C:\Users\stapi\AppData\Local\Temp\ccrA76jW.s:500    .text.dma_multi_data_mode_init:00000000000000aa .L0 
C:\Users\stapi\AppData\Local\Temp\ccrA76jW.s:501    .text.dma_multi_data_mode_init:00000000000000aa .L0 
C:\Users\stapi\AppData\Local\Temp\ccrA76jW.s:506    .text.dma_multi_data_mode_init:00000000000000b2 .L0 
C:\Users\stapi\AppData\Local\Temp\ccrA76jW.s:507    .text.dma_multi_data_mode_init:00000000000000b2 .L0 
C:\Users\stapi\AppData\Local\Temp\ccrA76jW.s:510    .text.dma_multi_data_mode_init:00000000000000ba .L0 
C:\Users\stapi\AppData\Local\Temp\ccrA76jW.s:517    .text.dma_periph_address_config:0000000000000000 dma_periph_address_config
C:\Users\stapi\AppData\Local\Temp\ccrA76jW.s:520    .text.dma_periph_address_config:0000000000000000 .L0 
C:\Users\stapi\AppData\Local\Temp\ccrA76jW.s:522    .text.dma_periph_address_config:0000000000000000 .L0 
C:\Users\stapi\AppData\Local\Temp\ccrA76jW.s:523    .text.dma_periph_address_config:0000000000000000 .L0 
C:\Users\stapi\AppData\Local\Temp\ccrA76jW.s:528    .text.dma_periph_address_config:000000000000000c .L0 
C:\Users\stapi\AppData\Local\Temp\ccrA76jW.s:530    .text.dma_periph_address_config:000000000000000e .L0 
C:\Users\stapi\AppData\Local\Temp\ccrA76jW.s:531    .text.dma_periph_address_config:0000000000000010 .L0 
C:\Users\stapi\AppData\Local\Temp\ccrA76jW.s:538    .text.dma_memory_address_config:0000000000000000 dma_memory_address_config
C:\Users\stapi\AppData\Local\Temp\ccrA76jW.s:541    .text.dma_memory_address_config:0000000000000000 .L0 
C:\Users\stapi\AppData\Local\Temp\ccrA76jW.s:543    .text.dma_memory_address_config:0000000000000000 .L0 
C:\Users\stapi\AppData\Local\Temp\ccrA76jW.s:544    .text.dma_memory_address_config:0000000000000000 .L0 
C:\Users\stapi\AppData\Local\Temp\ccrA76jW.s:545    .text.dma_memory_address_config:0000000000000000 .L0 
C:\Users\stapi\AppData\Local\Temp\ccrA76jW.s:550    .text.dma_memory_address_config:000000000000000a .L0 
C:\Users\stapi\AppData\Local\Temp\ccrA76jW.s:552    .text.dma_memory_address_config:000000000000000c .L0 
C:\Users\stapi\AppData\Local\Temp\ccrA76jW.s:555    .text.dma_memory_address_config:0000000000000010 .L0 
C:\Users\stapi\AppData\Local\Temp\ccrA76jW.s:557    .text.dma_memory_address_config:0000000000000012 .L0 
C:\Users\stapi\AppData\Local\Temp\ccrA76jW.s:559    .text.dma_memory_address_config:0000000000000014 .L0 
C:\Users\stapi\AppData\Local\Temp\ccrA76jW.s:562    .text.dma_memory_address_config:0000000000000016 .L0 
C:\Users\stapi\AppData\Local\Temp\ccrA76jW.s:564    .text.dma_memory_address_config:000000000000001a .L0 
C:\Users\stapi\AppData\Local\Temp\ccrA76jW.s:571    .text.dma_transfer_number_config:0000000000000000 dma_transfer_number_config
C:\Users\stapi\AppData\Local\Temp\ccrA76jW.s:574    .text.dma_transfer_number_config:0000000000000000 .L0 
C:\Users\stapi\AppData\Local\Temp\ccrA76jW.s:576    .text.dma_transfer_number_config:0000000000000000 .L0 
C:\Users\stapi\AppData\Local\Temp\ccrA76jW.s:577    .text.dma_transfer_number_config:0000000000000000 .L0 
C:\Users\stapi\AppData\Local\Temp\ccrA76jW.s:582    .text.dma_transfer_number_config:000000000000000c .L0 
C:\Users\stapi\AppData\Local\Temp\ccrA76jW.s:584    .text.dma_transfer_number_config:000000000000000e .L0 
C:\Users\stapi\AppData\Local\Temp\ccrA76jW.s:585    .text.dma_transfer_number_config:0000000000000010 .L0 
C:\Users\stapi\AppData\Local\Temp\ccrA76jW.s:592    .text.dma_transfer_number_get:0000000000000000 dma_transfer_number_get
C:\Users\stapi\AppData\Local\Temp\ccrA76jW.s:595    .text.dma_transfer_number_get:0000000000000000 .L0 
C:\Users\stapi\AppData\Local\Temp\ccrA76jW.s:597    .text.dma_transfer_number_get:0000000000000000 .L0 
C:\Users\stapi\AppData\Local\Temp\ccrA76jW.s:598    .text.dma_transfer_number_get:0000000000000000 .L0 
C:\Users\stapi\AppData\Local\Temp\ccrA76jW.s:599    .text.dma_transfer_number_get:0000000000000000 .L0 
C:\Users\stapi\AppData\Local\Temp\ccrA76jW.s:604    .text.dma_transfer_number_get:000000000000000c .L0 
C:\Users\stapi\AppData\Local\Temp\ccrA76jW.s:607    .text.dma_transfer_number_get:000000000000000e .L0 
C:\Users\stapi\AppData\Local\Temp\ccrA76jW.s:608    .text.dma_transfer_number_get:0000000000000010 .L0 
C:\Users\stapi\AppData\Local\Temp\ccrA76jW.s:615    .text.dma_priority_config:0000000000000000 dma_priority_config
C:\Users\stapi\AppData\Local\Temp\ccrA76jW.s:618    .text.dma_priority_config:0000000000000000 .L0 
C:\Users\stapi\AppData\Local\Temp\ccrA76jW.s:620    .text.dma_priority_config:0000000000000000 .L0 
C:\Users\stapi\AppData\Local\Temp\ccrA76jW.s:621    .text.dma_priority_config:0000000000000000 .L0 
C:\Users\stapi\AppData\Local\Temp\ccrA76jW.s:622    .text.dma_priority_config:0000000000000000 .L0 
C:\Users\stapi\AppData\Local\Temp\ccrA76jW.s:623    .text.dma_priority_config:0000000000000000 .L0 
C:\Users\stapi\AppData\Local\Temp\ccrA76jW.s:628    .text.dma_priority_config:000000000000000c .L0 
C:\Users\stapi\AppData\Local\Temp\ccrA76jW.s:631    .text.dma_priority_config:000000000000000e .L0 
C:\Users\stapi\AppData\Local\Temp\ccrA76jW.s:632    .text.dma_priority_config:000000000000000e .L0 
C:\Users\stapi\AppData\Local\Temp\ccrA76jW.s:637    .text.dma_priority_config:0000000000000016 .L0 
C:\Users\stapi\AppData\Local\Temp\ccrA76jW.s:638    .text.dma_priority_config:0000000000000016 .L0 
C:\Users\stapi\AppData\Local\Temp\ccrA76jW.s:641    .text.dma_priority_config:0000000000000018 .L0 
C:\Users\stapi\AppData\Local\Temp\ccrA76jW.s:642    .text.dma_priority_config:0000000000000018 .L0 
C:\Users\stapi\AppData\Local\Temp\ccrA76jW.s:644    .text.dma_priority_config:000000000000001a .L0 
C:\Users\stapi\AppData\Local\Temp\ccrA76jW.s:645    .text.dma_priority_config:000000000000001c .L0 
C:\Users\stapi\AppData\Local\Temp\ccrA76jW.s:652    .text.dma_memory_burst_beats_config:0000000000000000 dma_memory_burst_beats_config
C:\Users\stapi\AppData\Local\Temp\ccrA76jW.s:655    .text.dma_memory_burst_beats_config:0000000000000000 .L0 
C:\Users\stapi\AppData\Local\Temp\ccrA76jW.s:657    .text.dma_memory_burst_beats_config:0000000000000000 .L0 
C:\Users\stapi\AppData\Local\Temp\ccrA76jW.s:658    .text.dma_memory_burst_beats_config:0000000000000000 .L0 
C:\Users\stapi\AppData\Local\Temp\ccrA76jW.s:659    .text.dma_memory_burst_beats_config:0000000000000000 .L0 
C:\Users\stapi\AppData\Local\Temp\ccrA76jW.s:660    .text.dma_memory_burst_beats_config:0000000000000000 .L0 
C:\Users\stapi\AppData\Local\Temp\ccrA76jW.s:665    .text.dma_memory_burst_beats_config:000000000000000c .L0 
C:\Users\stapi\AppData\Local\Temp\ccrA76jW.s:668    .text.dma_memory_burst_beats_config:000000000000000e .L0 
C:\Users\stapi\AppData\Local\Temp\ccrA76jW.s:669    .text.dma_memory_burst_beats_config:000000000000000e .L0 
C:\Users\stapi\AppData\Local\Temp\ccrA76jW.s:674    .text.dma_memory_burst_beats_config:0000000000000016 .L0 
C:\Users\stapi\AppData\Local\Temp\ccrA76jW.s:675    .text.dma_memory_burst_beats_config:0000000000000016 .L0 
C:\Users\stapi\AppData\Local\Temp\ccrA76jW.s:678    .text.dma_memory_burst_beats_config:0000000000000018 .L0 
C:\Users\stapi\AppData\Local\Temp\ccrA76jW.s:679    .text.dma_memory_burst_beats_config:0000000000000018 .L0 
C:\Users\stapi\AppData\Local\Temp\ccrA76jW.s:681    .text.dma_memory_burst_beats_config:000000000000001a .L0 
C:\Users\stapi\AppData\Local\Temp\ccrA76jW.s:682    .text.dma_memory_burst_beats_config:000000000000001c .L0 
C:\Users\stapi\AppData\Local\Temp\ccrA76jW.s:689    .text.dma_periph_burst_beats_config:0000000000000000 dma_periph_burst_beats_config
C:\Users\stapi\AppData\Local\Temp\ccrA76jW.s:692    .text.dma_periph_burst_beats_config:0000000000000000 .L0 
C:\Users\stapi\AppData\Local\Temp\ccrA76jW.s:694    .text.dma_periph_burst_beats_config:0000000000000000 .L0 
C:\Users\stapi\AppData\Local\Temp\ccrA76jW.s:695    .text.dma_periph_burst_beats_config:0000000000000000 .L0 
C:\Users\stapi\AppData\Local\Temp\ccrA76jW.s:696    .text.dma_periph_burst_beats_config:0000000000000000 .L0 
C:\Users\stapi\AppData\Local\Temp\ccrA76jW.s:697    .text.dma_periph_burst_beats_config:0000000000000000 .L0 
C:\Users\stapi\AppData\Local\Temp\ccrA76jW.s:702    .text.dma_periph_burst_beats_config:000000000000000c .L0 
C:\Users\stapi\AppData\Local\Temp\ccrA76jW.s:705    .text.dma_periph_burst_beats_config:000000000000000e .L0 
C:\Users\stapi\AppData\Local\Temp\ccrA76jW.s:706    .text.dma_periph_burst_beats_config:000000000000000e .L0 
C:\Users\stapi\AppData\Local\Temp\ccrA76jW.s:711    .text.dma_periph_burst_beats_config:0000000000000016 .L0 
C:\Users\stapi\AppData\Local\Temp\ccrA76jW.s:712    .text.dma_periph_burst_beats_config:0000000000000016 .L0 
C:\Users\stapi\AppData\Local\Temp\ccrA76jW.s:715    .text.dma_periph_burst_beats_config:0000000000000018 .L0 
C:\Users\stapi\AppData\Local\Temp\ccrA76jW.s:716    .text.dma_periph_burst_beats_config:0000000000000018 .L0 
C:\Users\stapi\AppData\Local\Temp\ccrA76jW.s:718    .text.dma_periph_burst_beats_config:000000000000001a .L0 
C:\Users\stapi\AppData\Local\Temp\ccrA76jW.s:719    .text.dma_periph_burst_beats_config:000000000000001c .L0 
C:\Users\stapi\AppData\Local\Temp\ccrA76jW.s:726    .text.dma_memory_width_config:0000000000000000 dma_memory_width_config
C:\Users\stapi\AppData\Local\Temp\ccrA76jW.s:729    .text.dma_memory_width_config:0000000000000000 .L0 
C:\Users\stapi\AppData\Local\Temp\ccrA76jW.s:731    .text.dma_memory_width_config:0000000000000000 .L0 
C:\Users\stapi\AppData\Local\Temp\ccrA76jW.s:732    .text.dma_memory_width_config:0000000000000000 .L0 
C:\Users\stapi\AppData\Local\Temp\ccrA76jW.s:733    .text.dma_memory_width_config:0000000000000000 .L0 
C:\Users\stapi\AppData\Local\Temp\ccrA76jW.s:734    .text.dma_memory_width_config:0000000000000000 .L0 
C:\Users\stapi\AppData\Local\Temp\ccrA76jW.s:739    .text.dma_memory_width_config:000000000000000c .L0 
C:\Users\stapi\AppData\Local\Temp\ccrA76jW.s:742    .text.dma_memory_width_config:000000000000000e .L0 
C:\Users\stapi\AppData\Local\Temp\ccrA76jW.s:743    .text.dma_memory_width_config:000000000000000e .L0 
C:\Users\stapi\AppData\Local\Temp\ccrA76jW.s:748    .text.dma_memory_width_config:0000000000000014 .L0 
C:\Users\stapi\AppData\Local\Temp\ccrA76jW.s:749    .text.dma_memory_width_config:0000000000000014 .L0 
C:\Users\stapi\AppData\Local\Temp\ccrA76jW.s:752    .text.dma_memory_width_config:0000000000000016 .L0 
C:\Users\stapi\AppData\Local\Temp\ccrA76jW.s:753    .text.dma_memory_width_config:0000000000000016 .L0 
C:\Users\stapi\AppData\Local\Temp\ccrA76jW.s:755    .text.dma_memory_width_config:0000000000000018 .L0 
C:\Users\stapi\AppData\Local\Temp\ccrA76jW.s:756    .text.dma_memory_width_config:000000000000001a .L0 
C:\Users\stapi\AppData\Local\Temp\ccrA76jW.s:763    .text.dma_periph_width_config:0000000000000000 dma_periph_width_config
C:\Users\stapi\AppData\Local\Temp\ccrA76jW.s:766    .text.dma_periph_width_config:0000000000000000 .L0 
C:\Users\stapi\AppData\Local\Temp\ccrA76jW.s:768    .text.dma_periph_width_config:0000000000000000 .L0 
C:\Users\stapi\AppData\Local\Temp\ccrA76jW.s:769    .text.dma_periph_width_config:0000000000000000 .L0 
C:\Users\stapi\AppData\Local\Temp\ccrA76jW.s:770    .text.dma_periph_width_config:0000000000000000 .L0 
C:\Users\stapi\AppData\Local\Temp\ccrA76jW.s:771    .text.dma_periph_width_config:0000000000000000 .L0 
C:\Users\stapi\AppData\Local\Temp\ccrA76jW.s:776    .text.dma_periph_width_config:000000000000000c .L0 
C:\Users\stapi\AppData\Local\Temp\ccrA76jW.s:779    .text.dma_periph_width_config:000000000000000e .L0 
C:\Users\stapi\AppData\Local\Temp\ccrA76jW.s:780    .text.dma_periph_width_config:000000000000000e .L0 
C:\Users\stapi\AppData\Local\Temp\ccrA76jW.s:785    .text.dma_periph_width_config:0000000000000016 .L0 
C:\Users\stapi\AppData\Local\Temp\ccrA76jW.s:786    .text.dma_periph_width_config:0000000000000016 .L0 
C:\Users\stapi\AppData\Local\Temp\ccrA76jW.s:789    .text.dma_periph_width_config:0000000000000018 .L0 
C:\Users\stapi\AppData\Local\Temp\ccrA76jW.s:790    .text.dma_periph_width_config:0000000000000018 .L0 
C:\Users\stapi\AppData\Local\Temp\ccrA76jW.s:792    .text.dma_periph_width_config:000000000000001a .L0 
C:\Users\stapi\AppData\Local\Temp\ccrA76jW.s:793    .text.dma_periph_width_config:000000000000001c .L0 
C:\Users\stapi\AppData\Local\Temp\ccrA76jW.s:800    .text.dma_memory_address_generation_config:0000000000000000 dma_memory_address_generation_config
C:\Users\stapi\AppData\Local\Temp\ccrA76jW.s:803    .text.dma_memory_address_generation_config:0000000000000000 .L0 
C:\Users\stapi\AppData\Local\Temp\ccrA76jW.s:805    .text.dma_memory_address_generation_config:0000000000000000 .L0 
C:\Users\stapi\AppData\Local\Temp\ccrA76jW.s:806    .text.dma_memory_address_generation_config:0000000000000000 .L0 
C:\Users\stapi\AppData\Local\Temp\ccrA76jW.s:807    .text.dma_memory_address_generation_config:0000000000000000 .L0 
C:\Users\stapi\AppData\Local\Temp\ccrA76jW.s:813    .text.dma_memory_address_generation_config:000000000000000e .L0 
C:\Users\stapi\AppData\Local\Temp\ccrA76jW.s:815    .text.dma_memory_address_generation_config:0000000000000010 .L0 
C:\Users\stapi\AppData\Local\Temp\ccrA76jW.s:816    .text.dma_memory_address_generation_config:0000000000000010 .L0 
C:\Users\stapi\AppData\Local\Temp\ccrA76jW.s:819    .text.dma_memory_address_generation_config:0000000000000014 .L0 
C:\Users\stapi\AppData\Local\Temp\ccrA76jW.s:821    .text.dma_memory_address_generation_config:0000000000000016 .L0 
C:\Users\stapi\AppData\Local\Temp\ccrA76jW.s:824    .text.dma_memory_address_generation_config:0000000000000018 .L0 
C:\Users\stapi\AppData\Local\Temp\ccrA76jW.s:825    .text.dma_memory_address_generation_config:0000000000000018 .L0 
C:\Users\stapi\AppData\Local\Temp\ccrA76jW.s:827    .text.dma_memory_address_generation_config:000000000000001e .L0 
C:\Users\stapi\AppData\Local\Temp\ccrA76jW.s:834    .text.dma_peripheral_address_generation_config:0000000000000000 dma_peripheral_address_generation_config
C:\Users\stapi\AppData\Local\Temp\ccrA76jW.s:837    .text.dma_peripheral_address_generation_config:0000000000000000 .L0 
C:\Users\stapi\AppData\Local\Temp\ccrA76jW.s:839    .text.dma_peripheral_address_generation_config:0000000000000000 .L0 
C:\Users\stapi\AppData\Local\Temp\ccrA76jW.s:840    .text.dma_peripheral_address_generation_config:0000000000000000 .L0 
C:\Users\stapi\AppData\Local\Temp\ccrA76jW.s:841    .text.dma_peripheral_address_generation_config:0000000000000000 .L0 
C:\Users\stapi\AppData\Local\Temp\ccrA76jW.s:846    .text.dma_peripheral_address_generation_config:000000000000000c .L0 
C:\Users\stapi\AppData\Local\Temp\ccrA76jW.s:848    .text.dma_peripheral_address_generation_config:000000000000000e .L0 
C:\Users\stapi\AppData\Local\Temp\ccrA76jW.s:849    .text.dma_peripheral_address_generation_config:000000000000000e .L0 
C:\Users\stapi\AppData\Local\Temp\ccrA76jW.s:853    .text.dma_peripheral_address_generation_config:0000000000000014 .L0 
C:\Users\stapi\AppData\Local\Temp\ccrA76jW.s:855    .text.dma_peripheral_address_generation_config:0000000000000016 .L0 
C:\Users\stapi\AppData\Local\Temp\ccrA76jW.s:858    .text.dma_peripheral_address_generation_config:0000000000000018 .L0 
C:\Users\stapi\AppData\Local\Temp\ccrA76jW.s:859    .text.dma_peripheral_address_generation_config:0000000000000018 .L0 
C:\Users\stapi\AppData\Local\Temp\ccrA76jW.s:862    .text.dma_peripheral_address_generation_config:000000000000001e .L0 
C:\Users\stapi\AppData\Local\Temp\ccrA76jW.s:863    .text.dma_peripheral_address_generation_config:000000000000001e .L0 
C:\Users\stapi\AppData\Local\Temp\ccrA76jW.s:868    .text.dma_peripheral_address_generation_config:0000000000000026 .L0 
C:\Users\stapi\AppData\Local\Temp\ccrA76jW.s:869    .text.dma_peripheral_address_generation_config:0000000000000026 .L0 
C:\Users\stapi\AppData\Local\Temp\ccrA76jW.s:873    .text.dma_peripheral_address_generation_config:000000000000002e .L0 
C:\Users\stapi\AppData\Local\Temp\ccrA76jW.s:874    .text.dma_peripheral_address_generation_config:000000000000002e .L0 
C:\Users\stapi\AppData\Local\Temp\ccrA76jW.s:877    .text.dma_peripheral_address_generation_config:0000000000000036 .L0 
C:\Users\stapi\AppData\Local\Temp\ccrA76jW.s:884    .text.dma_circulation_enable:0000000000000000 dma_circulation_enable
C:\Users\stapi\AppData\Local\Temp\ccrA76jW.s:887    .text.dma_circulation_enable:0000000000000000 .L0 
C:\Users\stapi\AppData\Local\Temp\ccrA76jW.s:889    .text.dma_circulation_enable:0000000000000000 .L0 
C:\Users\stapi\AppData\Local\Temp\ccrA76jW.s:890    .text.dma_circulation_enable:0000000000000000 .L0 
C:\Users\stapi\AppData\Local\Temp\ccrA76jW.s:891    .text.dma_circulation_enable:0000000000000000 .L0 
C:\Users\stapi\AppData\Local\Temp\ccrA76jW.s:899    .text.dma_circulation_enable:0000000000000014 .L0 
C:\Users\stapi\AppData\Local\Temp\ccrA76jW.s:900    .text.dma_circulation_enable:0000000000000016 .L0 
C:\Users\stapi\AppData\Local\Temp\ccrA76jW.s:907    .text.dma_circulation_disable:0000000000000000 dma_circulation_disable
C:\Users\stapi\AppData\Local\Temp\ccrA76jW.s:910    .text.dma_circulation_disable:0000000000000000 .L0 
C:\Users\stapi\AppData\Local\Temp\ccrA76jW.s:912    .text.dma_circulation_disable:0000000000000000 .L0 
C:\Users\stapi\AppData\Local\Temp\ccrA76jW.s:913    .text.dma_circulation_disable:0000000000000000 .L0 
C:\Users\stapi\AppData\Local\Temp\ccrA76jW.s:914    .text.dma_circulation_disable:0000000000000000 .L0 
C:\Users\stapi\AppData\Local\Temp\ccrA76jW.s:922    .text.dma_circulation_disable:0000000000000014 .L0 
C:\Users\stapi\AppData\Local\Temp\ccrA76jW.s:923    .text.dma_circulation_disable:0000000000000016 .L0 
C:\Users\stapi\AppData\Local\Temp\ccrA76jW.s:930    .text.dma_channel_enable:0000000000000000 dma_channel_enable
C:\Users\stapi\AppData\Local\Temp\ccrA76jW.s:933    .text.dma_channel_enable:0000000000000000 .L0 
C:\Users\stapi\AppData\Local\Temp\ccrA76jW.s:935    .text.dma_channel_enable:0000000000000000 .L0 
C:\Users\stapi\AppData\Local\Temp\ccrA76jW.s:936    .text.dma_channel_enable:0000000000000000 .L0 
C:\Users\stapi\AppData\Local\Temp\ccrA76jW.s:937    .text.dma_channel_enable:0000000000000000 .L0 
C:\Users\stapi\AppData\Local\Temp\ccrA76jW.s:945    .text.dma_channel_enable:0000000000000014 .L0 
C:\Users\stapi\AppData\Local\Temp\ccrA76jW.s:946    .text.dma_channel_enable:0000000000000016 .L0 
C:\Users\stapi\AppData\Local\Temp\ccrA76jW.s:953    .text.dma_channel_disable:0000000000000000 dma_channel_disable
C:\Users\stapi\AppData\Local\Temp\ccrA76jW.s:956    .text.dma_channel_disable:0000000000000000 .L0 
C:\Users\stapi\AppData\Local\Temp\ccrA76jW.s:958    .text.dma_channel_disable:0000000000000000 .L0 
C:\Users\stapi\AppData\Local\Temp\ccrA76jW.s:959    .text.dma_channel_disable:0000000000000000 .L0 
C:\Users\stapi\AppData\Local\Temp\ccrA76jW.s:960    .text.dma_channel_disable:0000000000000000 .L0 
C:\Users\stapi\AppData\Local\Temp\ccrA76jW.s:968    .text.dma_channel_disable:0000000000000012 .L0 
C:\Users\stapi\AppData\Local\Temp\ccrA76jW.s:969    .text.dma_channel_disable:0000000000000014 .L0 
C:\Users\stapi\AppData\Local\Temp\ccrA76jW.s:976    .text.dma_transfer_direction_config:0000000000000000 dma_transfer_direction_config
C:\Users\stapi\AppData\Local\Temp\ccrA76jW.s:979    .text.dma_transfer_direction_config:0000000000000000 .L0 
C:\Users\stapi\AppData\Local\Temp\ccrA76jW.s:981    .text.dma_transfer_direction_config:0000000000000000 .L0 
C:\Users\stapi\AppData\Local\Temp\ccrA76jW.s:982    .text.dma_transfer_direction_config:0000000000000000 .L0 
C:\Users\stapi\AppData\Local\Temp\ccrA76jW.s:983    .text.dma_transfer_direction_config:0000000000000000 .L0 
C:\Users\stapi\AppData\Local\Temp\ccrA76jW.s:984    .text.dma_transfer_direction_config:0000000000000000 .L0 
C:\Users\stapi\AppData\Local\Temp\ccrA76jW.s:989    .text.dma_transfer_direction_config:000000000000000c .L0 
C:\Users\stapi\AppData\Local\Temp\ccrA76jW.s:992    .text.dma_transfer_direction_config:000000000000000e .L0 
C:\Users\stapi\AppData\Local\Temp\ccrA76jW.s:993    .text.dma_transfer_direction_config:000000000000000e .L0 
C:\Users\stapi\AppData\Local\Temp\ccrA76jW.s:996    .text.dma_transfer_direction_config:0000000000000012 .L0 
C:\Users\stapi\AppData\Local\Temp\ccrA76jW.s:997    .text.dma_transfer_direction_config:0000000000000012 .L0 
C:\Users\stapi\AppData\Local\Temp\ccrA76jW.s:1000   .text.dma_transfer_direction_config:0000000000000014 .L0 
C:\Users\stapi\AppData\Local\Temp\ccrA76jW.s:1001   .text.dma_transfer_direction_config:0000000000000014 .L0 
C:\Users\stapi\AppData\Local\Temp\ccrA76jW.s:1003   .text.dma_transfer_direction_config:0000000000000016 .L0 
C:\Users\stapi\AppData\Local\Temp\ccrA76jW.s:1004   .text.dma_transfer_direction_config:0000000000000018 .L0 
C:\Users\stapi\AppData\Local\Temp\ccrA76jW.s:1011   .text.dma_switch_buffer_mode_config:0000000000000000 dma_switch_buffer_mode_config
C:\Users\stapi\AppData\Local\Temp\ccrA76jW.s:1014   .text.dma_switch_buffer_mode_config:0000000000000000 .L0 
C:\Users\stapi\AppData\Local\Temp\ccrA76jW.s:1016   .text.dma_switch_buffer_mode_config:0000000000000000 .L0 
C:\Users\stapi\AppData\Local\Temp\ccrA76jW.s:1017   .text.dma_switch_buffer_mode_config:0000000000000000 .L0 
C:\Users\stapi\AppData\Local\Temp\ccrA76jW.s:1023   .text.dma_switch_buffer_mode_config:000000000000000e .L0 
C:\Users\stapi\AppData\Local\Temp\ccrA76jW.s:1025   .text.dma_switch_buffer_mode_config:0000000000000010 .L0 
C:\Users\stapi\AppData\Local\Temp\ccrA76jW.s:1027   .text.dma_switch_buffer_mode_config:0000000000000012 .L0 
C:\Users\stapi\AppData\Local\Temp\ccrA76jW.s:1029   .text.dma_switch_buffer_mode_config:0000000000000014 .L0 
C:\Users\stapi\AppData\Local\Temp\ccrA76jW.s:1030   .text.dma_switch_buffer_mode_config:0000000000000014 .L0 
C:\Users\stapi\AppData\Local\Temp\ccrA76jW.s:1033   .text.dma_switch_buffer_mode_config:0000000000000018 .L0 
C:\Users\stapi\AppData\Local\Temp\ccrA76jW.s:1035   .text.dma_switch_buffer_mode_config:000000000000001a .L0 
C:\Users\stapi\AppData\Local\Temp\ccrA76jW.s:1036   .text.dma_switch_buffer_mode_config:000000000000001a .L0 
C:\Users\stapi\AppData\Local\Temp\ccrA76jW.s:1039   .text.dma_switch_buffer_mode_config:000000000000001e .L0 
C:\Users\stapi\AppData\Local\Temp\ccrA76jW.s:1041   .text.dma_switch_buffer_mode_config:0000000000000020 .L0 
C:\Users\stapi\AppData\Local\Temp\ccrA76jW.s:1044   .text.dma_switch_buffer_mode_config:0000000000000022 .L0 
C:\Users\stapi\AppData\Local\Temp\ccrA76jW.s:1045   .text.dma_switch_buffer_mode_config:0000000000000022 .L0 
C:\Users\stapi\AppData\Local\Temp\ccrA76jW.s:1047   .text.dma_switch_buffer_mode_config:0000000000000028 .L0 
C:\Users\stapi\AppData\Local\Temp\ccrA76jW.s:1054   .text.dma_using_memory_get:0000000000000000 dma_using_memory_get
C:\Users\stapi\AppData\Local\Temp\ccrA76jW.s:1057   .text.dma_using_memory_get:0000000000000000 .L0 
C:\Users\stapi\AppData\Local\Temp\ccrA76jW.s:1059   .text.dma_using_memory_get:0000000000000000 .L0 
C:\Users\stapi\AppData\Local\Temp\ccrA76jW.s:1060   .text.dma_using_memory_get:0000000000000000 .L0 
C:\Users\stapi\AppData\Local\Temp\ccrA76jW.s:1061   .text.dma_using_memory_get:0000000000000000 .L0 
C:\Users\stapi\AppData\Local\Temp\ccrA76jW.s:1068   .text.dma_using_memory_get:000000000000000e .L0 
C:\Users\stapi\AppData\Local\Temp\ccrA76jW.s:1070   .text.dma_using_memory_get:0000000000000014 .L0 
C:\Users\stapi\AppData\Local\Temp\ccrA76jW.s:1077   .text.dma_channel_subperipheral_select:0000000000000000 dma_channel_subperipheral_select
C:\Users\stapi\AppData\Local\Temp\ccrA76jW.s:1080   .text.dma_channel_subperipheral_select:0000000000000000 .L0 
C:\Users\stapi\AppData\Local\Temp\ccrA76jW.s:1082   .text.dma_channel_subperipheral_select:0000000000000000 .L0 
C:\Users\stapi\AppData\Local\Temp\ccrA76jW.s:1083   .text.dma_channel_subperipheral_select:0000000000000000 .L0 
C:\Users\stapi\AppData\Local\Temp\ccrA76jW.s:1084   .text.dma_channel_subperipheral_select:0000000000000000 .L0 
C:\Users\stapi\AppData\Local\Temp\ccrA76jW.s:1085   .text.dma_channel_subperipheral_select:0000000000000000 .L0 
C:\Users\stapi\AppData\Local\Temp\ccrA76jW.s:1090   .text.dma_channel_subperipheral_select:000000000000000c .L0 
C:\Users\stapi\AppData\Local\Temp\ccrA76jW.s:1093   .text.dma_channel_subperipheral_select:000000000000000e .L0 
C:\Users\stapi\AppData\Local\Temp\ccrA76jW.s:1094   .text.dma_channel_subperipheral_select:000000000000000e .L0 
C:\Users\stapi\AppData\Local\Temp\ccrA76jW.s:1099   .text.dma_channel_subperipheral_select:0000000000000016 .L0 
C:\Users\stapi\AppData\Local\Temp\ccrA76jW.s:1100   .text.dma_channel_subperipheral_select:0000000000000016 .L0 
C:\Users\stapi\AppData\Local\Temp\ccrA76jW.s:1103   .text.dma_channel_subperipheral_select:0000000000000018 .L0 
C:\Users\stapi\AppData\Local\Temp\ccrA76jW.s:1106   .text.dma_channel_subperipheral_select:000000000000001a .L0 
C:\Users\stapi\AppData\Local\Temp\ccrA76jW.s:1107   .text.dma_channel_subperipheral_select:000000000000001a .L0 
C:\Users\stapi\AppData\Local\Temp\ccrA76jW.s:1109   .text.dma_channel_subperipheral_select:000000000000001c .L0 
C:\Users\stapi\AppData\Local\Temp\ccrA76jW.s:1110   .text.dma_channel_subperipheral_select:000000000000001e .L0 
C:\Users\stapi\AppData\Local\Temp\ccrA76jW.s:1117   .text.dma_flow_controller_config:0000000000000000 dma_flow_controller_config
C:\Users\stapi\AppData\Local\Temp\ccrA76jW.s:1120   .text.dma_flow_controller_config:0000000000000000 .L0 
C:\Users\stapi\AppData\Local\Temp\ccrA76jW.s:1122   .text.dma_flow_controller_config:0000000000000000 .L0 
C:\Users\stapi\AppData\Local\Temp\ccrA76jW.s:1123   .text.dma_flow_controller_config:0000000000000000 .L0 
C:\Users\stapi\AppData\Local\Temp\ccrA76jW.s:1124   .text.dma_flow_controller_config:0000000000000000 .L0 
C:\Users\stapi\AppData\Local\Temp\ccrA76jW.s:1130   .text.dma_flow_controller_config:000000000000000e .L0 
C:\Users\stapi\AppData\Local\Temp\ccrA76jW.s:1132   .text.dma_flow_controller_config:0000000000000010 .L0 
C:\Users\stapi\AppData\Local\Temp\ccrA76jW.s:1133   .text.dma_flow_controller_config:0000000000000010 .L0 
C:\Users\stapi\AppData\Local\Temp\ccrA76jW.s:1136   .text.dma_flow_controller_config:0000000000000014 .L0 
C:\Users\stapi\AppData\Local\Temp\ccrA76jW.s:1138   .text.dma_flow_controller_config:0000000000000016 .L0 
C:\Users\stapi\AppData\Local\Temp\ccrA76jW.s:1141   .text.dma_flow_controller_config:0000000000000018 .L0 
C:\Users\stapi\AppData\Local\Temp\ccrA76jW.s:1142   .text.dma_flow_controller_config:0000000000000018 .L0 
C:\Users\stapi\AppData\Local\Temp\ccrA76jW.s:1144   .text.dma_flow_controller_config:000000000000001e .L0 
C:\Users\stapi\AppData\Local\Temp\ccrA76jW.s:1151   .text.dma_switch_buffer_mode_enable:0000000000000000 dma_switch_buffer_mode_enable
C:\Users\stapi\AppData\Local\Temp\ccrA76jW.s:1154   .text.dma_switch_buffer_mode_enable:0000000000000000 .L0 
C:\Users\stapi\AppData\Local\Temp\ccrA76jW.s:1156   .text.dma_switch_buffer_mode_enable:0000000000000000 .L0 
C:\Users\stapi\AppData\Local\Temp\ccrA76jW.s:1157   .text.dma_switch_buffer_mode_enable:0000000000000000 .L0 
C:\Users\stapi\AppData\Local\Temp\ccrA76jW.s:1158   .text.dma_switch_buffer_mode_enable:0000000000000000 .L0 
C:\Users\stapi\AppData\Local\Temp\ccrA76jW.s:1166   .text.dma_switch_buffer_mode_enable:0000000000000014 .L0 
C:\Users\stapi\AppData\Local\Temp\ccrA76jW.s:1167   .text.dma_switch_buffer_mode_enable:0000000000000016 .L0 
C:\Users\stapi\AppData\Local\Temp\ccrA76jW.s:1174   .text.dma_switch_buffer_mode_disable:0000000000000000 dma_switch_buffer_mode_disable
C:\Users\stapi\AppData\Local\Temp\ccrA76jW.s:1177   .text.dma_switch_buffer_mode_disable:0000000000000000 .L0 
C:\Users\stapi\AppData\Local\Temp\ccrA76jW.s:1179   .text.dma_switch_buffer_mode_disable:0000000000000000 .L0 
C:\Users\stapi\AppData\Local\Temp\ccrA76jW.s:1180   .text.dma_switch_buffer_mode_disable:0000000000000000 .L0 
C:\Users\stapi\AppData\Local\Temp\ccrA76jW.s:1181   .text.dma_switch_buffer_mode_disable:0000000000000000 .L0 
C:\Users\stapi\AppData\Local\Temp\ccrA76jW.s:1189   .text.dma_switch_buffer_mode_disable:0000000000000014 .L0 
C:\Users\stapi\AppData\Local\Temp\ccrA76jW.s:1190   .text.dma_switch_buffer_mode_disable:0000000000000016 .L0 
C:\Users\stapi\AppData\Local\Temp\ccrA76jW.s:1197   .text.dma_fifo_status_get:0000000000000000 dma_fifo_status_get
C:\Users\stapi\AppData\Local\Temp\ccrA76jW.s:1200   .text.dma_fifo_status_get:0000000000000000 .L0 
C:\Users\stapi\AppData\Local\Temp\ccrA76jW.s:1202   .text.dma_fifo_status_get:0000000000000000 .L0 
C:\Users\stapi\AppData\Local\Temp\ccrA76jW.s:1203   .text.dma_fifo_status_get:0000000000000000 .L0 
C:\Users\stapi\AppData\Local\Temp\ccrA76jW.s:1204   .text.dma_fifo_status_get:0000000000000000 .L0 
C:\Users\stapi\AppData\Local\Temp\ccrA76jW.s:1209   .text.dma_fifo_status_get:000000000000000e .L0 
C:\Users\stapi\AppData\Local\Temp\ccrA76jW.s:1212   .text.dma_fifo_status_get:0000000000000010 .L0 
C:\Users\stapi\AppData\Local\Temp\ccrA76jW.s:1214   .text.dma_fifo_status_get:0000000000000016 .L0 
C:\Users\stapi\AppData\Local\Temp\ccrA76jW.s:1221   .text.dma_flag_get:0000000000000000 dma_flag_get
C:\Users\stapi\AppData\Local\Temp\ccrA76jW.s:1224   .text.dma_flag_get:0000000000000000 .L0 
C:\Users\stapi\AppData\Local\Temp\ccrA76jW.s:1226   .text.dma_flag_get:0000000000000000 .L0 
C:\Users\stapi\AppData\Local\Temp\ccrA76jW.s:1227   .text.dma_flag_get:0000000000000000 .L0 
C:\Users\stapi\AppData\Local\Temp\ccrA76jW.s:1228   .text.dma_flag_get:0000000000000000 .L0 
C:\Users\stapi\AppData\Local\Temp\ccrA76jW.s:1231   .text.dma_flag_get:0000000000000006 .L0 
C:\Users\stapi\AppData\Local\Temp\ccrA76jW.s:1232   .text.dma_flag_get:0000000000000006 .L0 
C:\Users\stapi\AppData\Local\Temp\ccrA76jW.s:1234   .text.dma_flag_get:000000000000000a .L0 
C:\Users\stapi\AppData\Local\Temp\ccrA76jW.s:1236   .text.dma_flag_get:000000000000000c .L0 
C:\Users\stapi\AppData\Local\Temp\ccrA76jW.s:1238   .text.dma_flag_get:000000000000000e .L0 
C:\Users\stapi\AppData\Local\Temp\ccrA76jW.s:1245   .text.dma_flag_get:000000000000001a .L0 
C:\Users\stapi\AppData\Local\Temp\ccrA76jW.s:1247   .text.dma_flag_get:000000000000001e .L0 
C:\Users\stapi\AppData\Local\Temp\ccrA76jW.s:1249   .text.dma_flag_get:0000000000000020 .L0 
C:\Users\stapi\AppData\Local\Temp\ccrA76jW.s:1251   .text.dma_flag_get:0000000000000024 .L0 
C:\Users\stapi\AppData\Local\Temp\ccrA76jW.s:1255   .text.dma_flag_get:0000000000000026 .L0 
C:\Users\stapi\AppData\Local\Temp\ccrA76jW.s:1256   .text.dma_flag_get:0000000000000026 .L0 
C:\Users\stapi\AppData\Local\Temp\ccrA76jW.s:1259   .text.dma_flag_get:000000000000002a .L0 
C:\Users\stapi\AppData\Local\Temp\ccrA76jW.s:1260   .text.dma_flag_get:000000000000002a .L0 
C:\Users\stapi\AppData\Local\Temp\ccrA76jW.s:1264   .text.dma_flag_get:0000000000000030 .L0 
C:\Users\stapi\AppData\Local\Temp\ccrA76jW.s:1266   .text.dma_flag_get:0000000000000034 .L0 
C:\Users\stapi\AppData\Local\Temp\ccrA76jW.s:1269   .text.dma_flag_get:0000000000000038 .L0 
C:\Users\stapi\AppData\Local\Temp\ccrA76jW.s:1271   .text.dma_flag_get:000000000000003a .L0 
C:\Users\stapi\AppData\Local\Temp\ccrA76jW.s:1273   .text.dma_flag_get:0000000000000040 .L0 
C:\Users\stapi\AppData\Local\Temp\ccrA76jW.s:1280   .text.dma_flag_clear:0000000000000000 dma_flag_clear
C:\Users\stapi\AppData\Local\Temp\ccrA76jW.s:1283   .text.dma_flag_clear:0000000000000000 .L0 
C:\Users\stapi\AppData\Local\Temp\ccrA76jW.s:1285   .text.dma_flag_clear:0000000000000000 .L0 
C:\Users\stapi\AppData\Local\Temp\ccrA76jW.s:1286   .text.dma_flag_clear:0000000000000000 .L0 
C:\Users\stapi\AppData\Local\Temp\ccrA76jW.s:1287   .text.dma_flag_clear:0000000000000000 .L0 
C:\Users\stapi\AppData\Local\Temp\ccrA76jW.s:1290   .text.dma_flag_clear:0000000000000006 .L0 
C:\Users\stapi\AppData\Local\Temp\ccrA76jW.s:1291   .text.dma_flag_clear:0000000000000006 .L0 
C:\Users\stapi\AppData\Local\Temp\ccrA76jW.s:1296   .text.dma_flag_clear:0000000000000010 .L0 
C:\Users\stapi\AppData\Local\Temp\ccrA76jW.s:1299   .text.dma_flag_clear:0000000000000016 .L0 
C:\Users\stapi\AppData\Local\Temp\ccrA76jW.s:1303   .text.dma_flag_clear:000000000000001e .L0 
C:\Users\stapi\AppData\Local\Temp\ccrA76jW.s:1309   .text.dma_flag_clear:0000000000000024 .L0 
C:\Users\stapi\AppData\Local\Temp\ccrA76jW.s:1310   .text.dma_flag_clear:0000000000000024 .L0 
C:\Users\stapi\AppData\Local\Temp\ccrA76jW.s:1313   .text.dma_flag_clear:0000000000000028 .L0 
C:\Users\stapi\AppData\Local\Temp\ccrA76jW.s:1314   .text.dma_flag_clear:0000000000000028 .L0 
C:\Users\stapi\AppData\Local\Temp\ccrA76jW.s:1318   .text.dma_flag_clear:000000000000002e .L0 
C:\Users\stapi\AppData\Local\Temp\ccrA76jW.s:1321   .text.dma_flag_clear:0000000000000034 .L0 
C:\Users\stapi\AppData\Local\Temp\ccrA76jW.s:1327   .text.dma_flag_clear:0000000000000040 .L0 
C:\Users\stapi\AppData\Local\Temp\ccrA76jW.s:1330   .text.dma_flag_clear:0000000000000044 .L0 
C:\Users\stapi\AppData\Local\Temp\ccrA76jW.s:1331   .text.dma_flag_clear:0000000000000046 .L0 
C:\Users\stapi\AppData\Local\Temp\ccrA76jW.s:1338   .text.dma_interrupt_enable:0000000000000000 dma_interrupt_enable
C:\Users\stapi\AppData\Local\Temp\ccrA76jW.s:1341   .text.dma_interrupt_enable:0000000000000000 .L0 
C:\Users\stapi\AppData\Local\Temp\ccrA76jW.s:1343   .text.dma_interrupt_enable:0000000000000000 .L0 
C:\Users\stapi\AppData\Local\Temp\ccrA76jW.s:1344   .text.dma_interrupt_enable:0000000000000000 .L0 
C:\Users\stapi\AppData\Local\Temp\ccrA76jW.s:1345   .text.dma_interrupt_enable:0000000000000000 .L0 
C:\Users\stapi\AppData\Local\Temp\ccrA76jW.s:1349   .text.dma_interrupt_enable:0000000000000006 .L0 
C:\Users\stapi\AppData\Local\Temp\ccrA76jW.s:1352   .text.dma_interrupt_enable:000000000000000e .L0 
C:\Users\stapi\AppData\Local\Temp\ccrA76jW.s:1353   .text.dma_interrupt_enable:000000000000000e .L0 
C:\Users\stapi\AppData\Local\Temp\ccrA76jW.s:1364   .text.dma_interrupt_enable:000000000000001e .L0 
C:\Users\stapi\AppData\Local\Temp\ccrA76jW.s:1365   .text.dma_interrupt_enable:000000000000001e .L0 
C:\Users\stapi\AppData\Local\Temp\ccrA76jW.s:1372   .text.dma_interrupt_enable:0000000000000030 .L0 
C:\Users\stapi\AppData\Local\Temp\ccrA76jW.s:1373   .text.dma_interrupt_enable:0000000000000032 .L0 
C:\Users\stapi\AppData\Local\Temp\ccrA76jW.s:1380   .text.dma_interrupt_disable:0000000000000000 dma_interrupt_disable
C:\Users\stapi\AppData\Local\Temp\ccrA76jW.s:1383   .text.dma_interrupt_disable:0000000000000000 .L0 
C:\Users\stapi\AppData\Local\Temp\ccrA76jW.s:1385   .text.dma_interrupt_disable:0000000000000000 .L0 
C:\Users\stapi\AppData\Local\Temp\ccrA76jW.s:1386   .text.dma_interrupt_disable:0000000000000000 .L0 
C:\Users\stapi\AppData\Local\Temp\ccrA76jW.s:1387   .text.dma_interrupt_disable:0000000000000000 .L0 
C:\Users\stapi\AppData\Local\Temp\ccrA76jW.s:1391   .text.dma_interrupt_disable:0000000000000006 .L0 
C:\Users\stapi\AppData\Local\Temp\ccrA76jW.s:1394   .text.dma_interrupt_disable:000000000000000e .L0 
C:\Users\stapi\AppData\Local\Temp\ccrA76jW.s:1395   .text.dma_interrupt_disable:000000000000000e .L0 
C:\Users\stapi\AppData\Local\Temp\ccrA76jW.s:1406   .text.dma_interrupt_disable:0000000000000020 .L0 
C:\Users\stapi\AppData\Local\Temp\ccrA76jW.s:1407   .text.dma_interrupt_disable:0000000000000020 .L0 
C:\Users\stapi\AppData\Local\Temp\ccrA76jW.s:1414   .text.dma_interrupt_disable:0000000000000032 .L0 
C:\Users\stapi\AppData\Local\Temp\ccrA76jW.s:1415   .text.dma_interrupt_disable:0000000000000034 .L0 
C:\Users\stapi\AppData\Local\Temp\ccrA76jW.s:1422   .text.dma_interrupt_flag_get:0000000000000000 dma_interrupt_flag_get
C:\Users\stapi\AppData\Local\Temp\ccrA76jW.s:1425   .text.dma_interrupt_flag_get:0000000000000000 .L0 
C:\Users\stapi\AppData\Local\Temp\ccrA76jW.s:1427   .text.dma_interrupt_flag_get:0000000000000000 .L0 
C:\Users\stapi\AppData\Local\Temp\ccrA76jW.s:1428   .text.dma_interrupt_flag_get:0000000000000000 .L0 
C:\Users\stapi\AppData\Local\Temp\ccrA76jW.s:1429   .text.dma_interrupt_flag_get:0000000000000000 .L0 
C:\Users\stapi\AppData\Local\Temp\ccrA76jW.s:1430   .text.dma_interrupt_flag_get:0000000000000000 .L0 
C:\Users\stapi\AppData\Local\Temp\ccrA76jW.s:1431   .text.dma_interrupt_flag_get:0000000000000000 .L0 
C:\Users\stapi\AppData\Local\Temp\ccrA76jW.s:1433   .text.dma_interrupt_flag_get:0000000000000002 .L0 
C:\Users\stapi\AppData\Local\Temp\ccrA76jW.s:1435   .text.dma_interrupt_flag_get:0000000000000004 .L0 
C:\Users\stapi\AppData\Local\Temp\ccrA76jW.s:1437   .text.dma_interrupt_flag_get:0000000000000008 .L0 
C:\Users\stapi\AppData\Local\Temp\ccrA76jW.s:1447   .text.dma_interrupt_flag_get:000000000000001e .L0 
C:\Users\stapi\AppData\Local\Temp\ccrA76jW.s:1453   .text.dma_interrupt_flag_get:0000000000000022 .L0 
C:\Users\stapi\AppData\Local\Temp\ccrA76jW.s:1458   .text.dma_interrupt_flag_get:0000000000000030 .L0 
C:\Users\stapi\AppData\Local\Temp\ccrA76jW.s:1459   .text.dma_interrupt_flag_get:0000000000000030 .L0 
C:\Users\stapi\AppData\Local\Temp\ccrA76jW.s:1462   .text.dma_interrupt_flag_get:0000000000000036 .L0 
C:\Users\stapi\AppData\Local\Temp\ccrA76jW.s:1464   .text.dma_interrupt_flag_get:000000000000003a .L0 
C:\Users\stapi\AppData\Local\Temp\ccrA76jW.s:1467   .text.dma_interrupt_flag_get:000000000000003c .L0 
C:\Users\stapi\AppData\Local\Temp\ccrA76jW.s:1469   .text.dma_interrupt_flag_get:000000000000003e .L0 
C:\Users\stapi\AppData\Local\Temp\ccrA76jW.s:1471   .text.dma_interrupt_flag_get:0000000000000040 .L0 
C:\Users\stapi\AppData\Local\Temp\ccrA76jW.s:1473   .text.dma_interrupt_flag_get:0000000000000044 .L0 
C:\Users\stapi\AppData\Local\Temp\ccrA76jW.s:1478   .text.dma_interrupt_flag_get:000000000000004c .L0 
C:\Users\stapi\AppData\Local\Temp\ccrA76jW.s:1481   .text.dma_interrupt_flag_get:0000000000000050 .L0 
C:\Users\stapi\AppData\Local\Temp\ccrA76jW.s:1485   .text.dma_interrupt_flag_get:0000000000000054 .L0 
C:\Users\stapi\AppData\Local\Temp\ccrA76jW.s:1486   .text.dma_interrupt_flag_get:0000000000000054 .L0 
C:\Users\stapi\AppData\Local\Temp\ccrA76jW.s:1489   .text.dma_interrupt_flag_get:0000000000000056 .L0 
C:\Users\stapi\AppData\Local\Temp\ccrA76jW.s:1493   .text.dma_interrupt_flag_get:0000000000000058 .L0 
C:\Users\stapi\AppData\Local\Temp\ccrA76jW.s:1494   .text.dma_interrupt_flag_get:0000000000000058 .L0 
C:\Users\stapi\AppData\Local\Temp\ccrA76jW.s:1498   .text.dma_interrupt_flag_get:000000000000005e .L0 
C:\Users\stapi\AppData\Local\Temp\ccrA76jW.s:1501   .text.dma_interrupt_flag_get:0000000000000064 .L0 
C:\Users\stapi\AppData\Local\Temp\ccrA76jW.s:1504   .text.dma_interrupt_flag_get:0000000000000066 .L0 
C:\Users\stapi\AppData\Local\Temp\ccrA76jW.s:1506   .text.dma_interrupt_flag_get:000000000000006a .L0 
C:\Users\stapi\AppData\Local\Temp\ccrA76jW.s:1509   .text.dma_interrupt_flag_get:0000000000000072 .L0 
C:\Users\stapi\AppData\Local\Temp\ccrA76jW.s:1512   .text.dma_interrupt_flag_get:0000000000000076 .L0 
C:\Users\stapi\AppData\Local\Temp\ccrA76jW.s:1513   .text.dma_interrupt_flag_get:0000000000000076 .L0 
C:\Users\stapi\AppData\Local\Temp\ccrA76jW.s:1519   .text.dma_interrupt_flag_get:000000000000007e .L0 
C:\Users\stapi\AppData\Local\Temp\ccrA76jW.s:1523   .text.dma_interrupt_flag_get:0000000000000082 .L0 
C:\Users\stapi\AppData\Local\Temp\ccrA76jW.s:1524   .text.dma_interrupt_flag_get:0000000000000082 .L0 
C:\Users\stapi\AppData\Local\Temp\ccrA76jW.s:1525   .text.dma_interrupt_flag_get:0000000000000082 .L0 
C:\Users\stapi\AppData\Local\Temp\ccrA76jW.s:1527   .text.dma_interrupt_flag_get:0000000000000084 .L0 
C:\Users\stapi\AppData\Local\Temp\ccrA76jW.s:1531   .text.dma_interrupt_flag_get:0000000000000088 .L0 
C:\Users\stapi\AppData\Local\Temp\ccrA76jW.s:1535   .text.dma_interrupt_flag_get:000000000000008a .L0 
C:\Users\stapi\AppData\Local\Temp\ccrA76jW.s:1536   .text.dma_interrupt_flag_get:000000000000008a .L0 
C:\Users\stapi\AppData\Local\Temp\ccrA76jW.s:1539   .text.dma_interrupt_flag_get:0000000000000090 .L0 
C:\Users\stapi\AppData\Local\Temp\ccrA76jW.s:1541   .text.dma_interrupt_flag_get:0000000000000094 .L0 
C:\Users\stapi\AppData\Local\Temp\ccrA76jW.s:1544   .text.dma_interrupt_flag_get:0000000000000096 .L0 
C:\Users\stapi\AppData\Local\Temp\ccrA76jW.s:1546   .text.dma_interrupt_flag_get:0000000000000098 .L0 
C:\Users\stapi\AppData\Local\Temp\ccrA76jW.s:1548   .text.dma_interrupt_flag_get:000000000000009a .L0 
C:\Users\stapi\AppData\Local\Temp\ccrA76jW.s:1550   .text.dma_interrupt_flag_get:000000000000009e .L0 
C:\Users\stapi\AppData\Local\Temp\ccrA76jW.s:1555   .text.dma_interrupt_flag_get:00000000000000a6 .L0 
C:\Users\stapi\AppData\Local\Temp\ccrA76jW.s:1558   .text.dma_interrupt_flag_get:00000000000000aa .L0 
C:\Users\stapi\AppData\Local\Temp\ccrA76jW.s:1562   .text.dma_interrupt_flag_get:00000000000000ae .L0 
C:\Users\stapi\AppData\Local\Temp\ccrA76jW.s:1563   .text.dma_interrupt_flag_get:00000000000000ae .L0 
C:\Users\stapi\AppData\Local\Temp\ccrA76jW.s:1566   .text.dma_interrupt_flag_get:00000000000000b0 .L0 
C:\Users\stapi\AppData\Local\Temp\ccrA76jW.s:1570   .text.dma_interrupt_flag_get:00000000000000b2 .L0 
C:\Users\stapi\AppData\Local\Temp\ccrA76jW.s:1571   .text.dma_interrupt_flag_get:00000000000000b2 .L0 
C:\Users\stapi\AppData\Local\Temp\ccrA76jW.s:1574   .text.dma_interrupt_flag_get:00000000000000b8 .L0 
C:\Users\stapi\AppData\Local\Temp\ccrA76jW.s:1576   .text.dma_interrupt_flag_get:00000000000000bc .L0 
C:\Users\stapi\AppData\Local\Temp\ccrA76jW.s:1579   .text.dma_interrupt_flag_get:00000000000000be .L0 
C:\Users\stapi\AppData\Local\Temp\ccrA76jW.s:1581   .text.dma_interrupt_flag_get:00000000000000c0 .L0 
C:\Users\stapi\AppData\Local\Temp\ccrA76jW.s:1583   .text.dma_interrupt_flag_get:00000000000000c2 .L0 
C:\Users\stapi\AppData\Local\Temp\ccrA76jW.s:1585   .text.dma_interrupt_flag_get:00000000000000c6 .L0 
C:\Users\stapi\AppData\Local\Temp\ccrA76jW.s:1590   .text.dma_interrupt_flag_get:00000000000000ce .L0 
C:\Users\stapi\AppData\Local\Temp\ccrA76jW.s:1593   .text.dma_interrupt_flag_get:00000000000000d2 .L0 
C:\Users\stapi\AppData\Local\Temp\ccrA76jW.s:1597   .text.dma_interrupt_flag_get:00000000000000d6 .L0 
C:\Users\stapi\AppData\Local\Temp\ccrA76jW.s:1598   .text.dma_interrupt_flag_get:00000000000000d6 .L0 
C:\Users\stapi\AppData\Local\Temp\ccrA76jW.s:1601   .text.dma_interrupt_flag_get:00000000000000d8 .L0 
C:\Users\stapi\AppData\Local\Temp\ccrA76jW.s:1605   .text.dma_interrupt_flag_get:00000000000000da .L0 
C:\Users\stapi\AppData\Local\Temp\ccrA76jW.s:1606   .text.dma_interrupt_flag_get:00000000000000da .L0 
C:\Users\stapi\AppData\Local\Temp\ccrA76jW.s:1609   .text.dma_interrupt_flag_get:00000000000000e0 .L0 
C:\Users\stapi\AppData\Local\Temp\ccrA76jW.s:1611   .text.dma_interrupt_flag_get:00000000000000e4 .L0 
C:\Users\stapi\AppData\Local\Temp\ccrA76jW.s:1614   .text.dma_interrupt_flag_get:00000000000000e6 .L0 
C:\Users\stapi\AppData\Local\Temp\ccrA76jW.s:1616   .text.dma_interrupt_flag_get:00000000000000e8 .L0 
C:\Users\stapi\AppData\Local\Temp\ccrA76jW.s:1618   .text.dma_interrupt_flag_get:00000000000000ea .L0 
C:\Users\stapi\AppData\Local\Temp\ccrA76jW.s:1620   .text.dma_interrupt_flag_get:00000000000000ee .L0 
C:\Users\stapi\AppData\Local\Temp\ccrA76jW.s:1625   .text.dma_interrupt_flag_get:00000000000000f6 .L0 
C:\Users\stapi\AppData\Local\Temp\ccrA76jW.s:1628   .text.dma_interrupt_flag_get:00000000000000fa .L0 
C:\Users\stapi\AppData\Local\Temp\ccrA76jW.s:1632   .text.dma_interrupt_flag_get:00000000000000fe .L0 
C:\Users\stapi\AppData\Local\Temp\ccrA76jW.s:1633   .text.dma_interrupt_flag_get:00000000000000fe .L0 
C:\Users\stapi\AppData\Local\Temp\ccrA76jW.s:1636   .text.dma_interrupt_flag_get:0000000000000100 .L0 
C:\Users\stapi\AppData\Local\Temp\ccrA76jW.s:1640   .text.dma_interrupt_flag_get:0000000000000102 .L0 
C:\Users\stapi\AppData\Local\Temp\ccrA76jW.s:1641   .text.dma_interrupt_flag_get:0000000000000102 .L0 
C:\Users\stapi\AppData\Local\Temp\ccrA76jW.s:1643   .text.dma_interrupt_flag_get:0000000000000104 .L0 
C:\Users\stapi\AppData\Local\Temp\ccrA76jW.s:1646   .text.dma_interrupt_flag_get:0000000000000108 .L0 
C:\Users\stapi\AppData\Local\Temp\ccrA76jW.s:1653   .text.dma_interrupt_flag_get:000000000000011c .L0 
C:\Users\stapi\AppData\Local\Temp\ccrA76jW.s:1654   .text.dma_interrupt_flag_get:000000000000011c .L0 
C:\Users\stapi\AppData\Local\Temp\ccrA76jW.s:1660   .text.dma_interrupt_flag_get:0000000000000126 .L0 
C:\Users\stapi\AppData\Local\Temp\ccrA76jW.s:1663   .text.dma_interrupt_flag_get:000000000000012e .L0 
C:\Users\stapi\AppData\Local\Temp\ccrA76jW.s:1665   .text.dma_interrupt_flag_get:0000000000000130 .L0 
C:\Users\stapi\AppData\Local\Temp\ccrA76jW.s:1667   .text.dma_interrupt_flag_get:0000000000000134 .L0 
C:\Users\stapi\AppData\Local\Temp\ccrA76jW.s:1669   .text.dma_interrupt_flag_get:0000000000000136 .L0 
C:\Users\stapi\AppData\Local\Temp\ccrA76jW.s:1672   .text.dma_interrupt_flag_get:000000000000013a .L0 
C:\Users\stapi\AppData\Local\Temp\ccrA76jW.s:1674   .text.dma_interrupt_flag_get:000000000000013e .L0 
C:\Users\stapi\AppData\Local\Temp\ccrA76jW.s:1677   .text.dma_interrupt_flag_get:0000000000000142 .L0 
C:\Users\stapi\AppData\Local\Temp\ccrA76jW.s:1678   .text.dma_interrupt_flag_get:0000000000000142 .L0 
C:\Users\stapi\AppData\Local\Temp\ccrA76jW.s:1684   .text.dma_interrupt_flag_get:0000000000000146 .L0 
C:\Users\stapi\AppData\Local\Temp\ccrA76jW.s:1689   .text.dma_interrupt_flag_get:0000000000000154 .L0 
C:\Users\stapi\AppData\Local\Temp\ccrA76jW.s:1690   .text.dma_interrupt_flag_get:0000000000000154 .L0 
C:\Users\stapi\AppData\Local\Temp\ccrA76jW.s:1696   .text.dma_interrupt_flag_get:000000000000015e .L0 
C:\Users\stapi\AppData\Local\Temp\ccrA76jW.s:1699   .text.dma_interrupt_flag_get:0000000000000164 .L0 
C:\Users\stapi\AppData\Local\Temp\ccrA76jW.s:1701   .text.dma_interrupt_flag_get:0000000000000166 .L0 
C:\Users\stapi\AppData\Local\Temp\ccrA76jW.s:1705   .text.dma_interrupt_flag_get:000000000000016e .L0 
C:\Users\stapi\AppData\Local\Temp\ccrA76jW.s:1708   .text.dma_interrupt_flag_get:0000000000000174 .L0 
C:\Users\stapi\AppData\Local\Temp\ccrA76jW.s:1711   .text.dma_interrupt_flag_get:0000000000000178 .L0 
C:\Users\stapi\AppData\Local\Temp\ccrA76jW.s:1712   .text.dma_interrupt_flag_get:0000000000000178 .L0 
C:\Users\stapi\AppData\Local\Temp\ccrA76jW.s:1718   .text.dma_interrupt_flag_get:000000000000017c .L0 
C:\Users\stapi\AppData\Local\Temp\ccrA76jW.s:1719   .text.dma_interrupt_flag_get:000000000000017c .L0 
C:\Users\stapi\AppData\Local\Temp\ccrA76jW.s:1726   .text.dma_interrupt_flag_get:0000000000000186 .L0 
C:\Users\stapi\AppData\Local\Temp\ccrA76jW.s:1729   .text.dma_interrupt_flag_get:000000000000018c .L0 
C:\Users\stapi\AppData\Local\Temp\ccrA76jW.s:1731   .text.dma_interrupt_flag_get:0000000000000190 .L0 
C:\Users\stapi\AppData\Local\Temp\ccrA76jW.s:1733   .text.dma_interrupt_flag_get:0000000000000194 .L0 
C:\Users\stapi\AppData\Local\Temp\ccrA76jW.s:1735   .text.dma_interrupt_flag_get:0000000000000196 .L0 
C:\Users\stapi\AppData\Local\Temp\ccrA76jW.s:1737   .text.dma_interrupt_flag_get:000000000000019a .L0 
C:\Users\stapi\AppData\Local\Temp\ccrA76jW.s:1739   .text.dma_interrupt_flag_get:000000000000019e .L0 
C:\Users\stapi\AppData\Local\Temp\ccrA76jW.s:1742   .text.dma_interrupt_flag_get:00000000000001a2 .L0 
C:\Users\stapi\AppData\Local\Temp\ccrA76jW.s:1743   .text.dma_interrupt_flag_get:00000000000001a2 .L0 
C:\Users\stapi\AppData\Local\Temp\ccrA76jW.s:1749   .text.dma_interrupt_flag_get:00000000000001a6 .L0 
C:\Users\stapi\AppData\Local\Temp\ccrA76jW.s:1750   .text.dma_interrupt_flag_get:00000000000001a6 .L0 
C:\Users\stapi\AppData\Local\Temp\ccrA76jW.s:1756   .text.dma_interrupt_flag_get:00000000000001b0 .L0 
C:\Users\stapi\AppData\Local\Temp\ccrA76jW.s:1759   .text.dma_interrupt_flag_get:00000000000001b8 .L0 
C:\Users\stapi\AppData\Local\Temp\ccrA76jW.s:1761   .text.dma_interrupt_flag_get:00000000000001ba .L0 
C:\Users\stapi\AppData\Local\Temp\ccrA76jW.s:1763   .text.dma_interrupt_flag_get:00000000000001be .L0 
C:\Users\stapi\AppData\Local\Temp\ccrA76jW.s:1765   .text.dma_interrupt_flag_get:00000000000001c0 .L0 
C:\Users\stapi\AppData\Local\Temp\ccrA76jW.s:1768   .text.dma_interrupt_flag_get:00000000000001c4 .L0 
C:\Users\stapi\AppData\Local\Temp\ccrA76jW.s:1770   .text.dma_interrupt_flag_get:00000000000001c8 .L0 
C:\Users\stapi\AppData\Local\Temp\ccrA76jW.s:1773   .text.dma_interrupt_flag_get:00000000000001cc .L0 
C:\Users\stapi\AppData\Local\Temp\ccrA76jW.s:1774   .text.dma_interrupt_flag_get:00000000000001cc .L0 
C:\Users\stapi\AppData\Local\Temp\ccrA76jW.s:1780   .text.dma_interrupt_flag_get:00000000000001d0 .L0 
C:\Users\stapi\AppData\Local\Temp\ccrA76jW.s:1781   .text.dma_interrupt_flag_get:00000000000001d0 .L0 
C:\Users\stapi\AppData\Local\Temp\ccrA76jW.s:1787   .text.dma_interrupt_flag_get:00000000000001da .L0 
C:\Users\stapi\AppData\Local\Temp\ccrA76jW.s:1790   .text.dma_interrupt_flag_get:00000000000001e2 .L0 
C:\Users\stapi\AppData\Local\Temp\ccrA76jW.s:1792   .text.dma_interrupt_flag_get:00000000000001e4 .L0 
C:\Users\stapi\AppData\Local\Temp\ccrA76jW.s:1794   .text.dma_interrupt_flag_get:00000000000001e8 .L0 
C:\Users\stapi\AppData\Local\Temp\ccrA76jW.s:1796   .text.dma_interrupt_flag_get:00000000000001ea .L0 
C:\Users\stapi\AppData\Local\Temp\ccrA76jW.s:1799   .text.dma_interrupt_flag_get:00000000000001ee .L0 
C:\Users\stapi\AppData\Local\Temp\ccrA76jW.s:1801   .text.dma_interrupt_flag_get:00000000000001f2 .L0 
C:\Users\stapi\AppData\Local\Temp\ccrA76jW.s:1804   .text.dma_interrupt_flag_get:00000000000001f6 .L0 
C:\Users\stapi\AppData\Local\Temp\ccrA76jW.s:1805   .text.dma_interrupt_flag_get:00000000000001f6 .L0 
C:\Users\stapi\AppData\Local\Temp\ccrA76jW.s:1808   .text.dma_interrupt_flag_get:00000000000001fa .L0 
C:\Users\stapi\AppData\Local\Temp\ccrA76jW.s:1815   .text.dma_interrupt_flag_clear:0000000000000000 dma_interrupt_flag_clear
C:\Users\stapi\AppData\Local\Temp\ccrA76jW.s:1817   .text.dma_interrupt_flag_clear:0000000000000000 .L0 
C:\Users\stapi\AppData\Local\Temp\ccrA76jW.s:1819   .text.dma_interrupt_flag_clear:0000000000000008 .L0 
C:\Users\stapi\AppData\Local\Temp\ccrA76jW.s:105    .text.dma_deinit:0000000000000094 .L0 
C:\Users\stapi\AppData\Local\Temp\ccrA76jW.s:148    .text.dma_single_data_para_struct_init:0000000000000024 .L0 
C:\Users\stapi\AppData\Local\Temp\ccrA76jW.s:200    .text.dma_multi_data_para_struct_init:0000000000000030 .L0 
C:\Users\stapi\AppData\Local\Temp\ccrA76jW.s:350    .text.dma_single_data_mode_init:00000000000000a6 .L0 
C:\Users\stapi\AppData\Local\Temp\ccrA76jW.s:513    .text.dma_multi_data_mode_init:00000000000000ba .L0 
C:\Users\stapi\AppData\Local\Temp\ccrA76jW.s:534    .text.dma_periph_address_config:0000000000000010 .L0 
C:\Users\stapi\AppData\Local\Temp\ccrA76jW.s:567    .text.dma_memory_address_config:000000000000001a .L0 
C:\Users\stapi\AppData\Local\Temp\ccrA76jW.s:588    .text.dma_transfer_number_config:0000000000000010 .L0 
C:\Users\stapi\AppData\Local\Temp\ccrA76jW.s:611    .text.dma_transfer_number_get:0000000000000010 .L0 
C:\Users\stapi\AppData\Local\Temp\ccrA76jW.s:648    .text.dma_priority_config:000000000000001c .L0 
C:\Users\stapi\AppData\Local\Temp\ccrA76jW.s:685    .text.dma_memory_burst_beats_config:000000000000001c .L0 
C:\Users\stapi\AppData\Local\Temp\ccrA76jW.s:722    .text.dma_periph_burst_beats_config:000000000000001c .L0 
C:\Users\stapi\AppData\Local\Temp\ccrA76jW.s:759    .text.dma_memory_width_config:000000000000001a .L0 
C:\Users\stapi\AppData\Local\Temp\ccrA76jW.s:796    .text.dma_periph_width_config:000000000000001c .L0 
C:\Users\stapi\AppData\Local\Temp\ccrA76jW.s:830    .text.dma_memory_address_generation_config:000000000000001e .L0 
C:\Users\stapi\AppData\Local\Temp\ccrA76jW.s:880    .text.dma_peripheral_address_generation_config:0000000000000036 .L0 
C:\Users\stapi\AppData\Local\Temp\ccrA76jW.s:903    .text.dma_circulation_enable:0000000000000016 .L0 
C:\Users\stapi\AppData\Local\Temp\ccrA76jW.s:926    .text.dma_circulation_disable:0000000000000016 .L0 
C:\Users\stapi\AppData\Local\Temp\ccrA76jW.s:949    .text.dma_channel_enable:0000000000000016 .L0 
C:\Users\stapi\AppData\Local\Temp\ccrA76jW.s:972    .text.dma_channel_disable:0000000000000014 .L0 
C:\Users\stapi\AppData\Local\Temp\ccrA76jW.s:1007   .text.dma_transfer_direction_config:0000000000000018 .L0 
C:\Users\stapi\AppData\Local\Temp\ccrA76jW.s:1050   .text.dma_switch_buffer_mode_config:0000000000000028 .L0 
C:\Users\stapi\AppData\Local\Temp\ccrA76jW.s:1073   .text.dma_using_memory_get:0000000000000014 .L0 
C:\Users\stapi\AppData\Local\Temp\ccrA76jW.s:1113   .text.dma_channel_subperipheral_select:000000000000001e .L0 
C:\Users\stapi\AppData\Local\Temp\ccrA76jW.s:1147   .text.dma_flow_controller_config:000000000000001e .L0 
C:\Users\stapi\AppData\Local\Temp\ccrA76jW.s:1170   .text.dma_switch_buffer_mode_enable:0000000000000016 .L0 
C:\Users\stapi\AppData\Local\Temp\ccrA76jW.s:1193   .text.dma_switch_buffer_mode_disable:0000000000000016 .L0 
C:\Users\stapi\AppData\Local\Temp\ccrA76jW.s:1217   .text.dma_fifo_status_get:0000000000000016 .L0 
C:\Users\stapi\AppData\Local\Temp\ccrA76jW.s:1276   .text.dma_flag_get:0000000000000040 .L0 
C:\Users\stapi\AppData\Local\Temp\ccrA76jW.s:1334   .text.dma_flag_clear:0000000000000046 .L0 
C:\Users\stapi\AppData\Local\Temp\ccrA76jW.s:1376   .text.dma_interrupt_enable:0000000000000032 .L0 
C:\Users\stapi\AppData\Local\Temp\ccrA76jW.s:1418   .text.dma_interrupt_disable:0000000000000034 .L0 
C:\Users\stapi\AppData\Local\Temp\ccrA76jW.s:1811   .text.dma_interrupt_flag_get:00000000000001fa .L0 
                     .debug_frame:0000000000000000 .L0 
C:\Users\stapi\AppData\Local\Temp\ccrA76jW.s:79     .text.dma_deinit:0000000000000072 .L2
C:\Users\stapi\AppData\Local\Temp\ccrA76jW.s:318    .text.dma_single_data_mode_init:0000000000000080 .L7
C:\Users\stapi\AppData\Local\Temp\ccrA76jW.s:335    .text.dma_single_data_mode_init:0000000000000096 .L10
C:\Users\stapi\AppData\Local\Temp\ccrA76jW.s:341    .text.dma_single_data_mode_init:000000000000009e .L12
C:\Users\stapi\AppData\Local\Temp\ccrA76jW.s:328    .text.dma_single_data_mode_init:000000000000008e .L9
C:\Users\stapi\AppData\Local\Temp\ccrA76jW.s:288    .text.dma_single_data_mode_init:0000000000000060 .L14
C:\Users\stapi\AppData\Local\Temp\ccrA76jW.s:300    .text.dma_single_data_mode_init:000000000000006c .L15
C:\Users\stapi\AppData\Local\Temp\ccrA76jW.s:312    .text.dma_single_data_mode_init:000000000000007c .L16
C:\Users\stapi\AppData\Local\Temp\ccrA76jW.s:481    .text.dma_multi_data_mode_init:0000000000000094 .L18
C:\Users\stapi\AppData\Local\Temp\ccrA76jW.s:498    .text.dma_multi_data_mode_init:00000000000000aa .L21
C:\Users\stapi\AppData\Local\Temp\ccrA76jW.s:504    .text.dma_multi_data_mode_init:00000000000000b2 .L23
C:\Users\stapi\AppData\Local\Temp\ccrA76jW.s:491    .text.dma_multi_data_mode_init:00000000000000a2 .L20
C:\Users\stapi\AppData\Local\Temp\ccrA76jW.s:451    .text.dma_multi_data_mode_init:0000000000000074 .L25
C:\Users\stapi\AppData\Local\Temp\ccrA76jW.s:463    .text.dma_multi_data_mode_init:0000000000000080 .L26
C:\Users\stapi\AppData\Local\Temp\ccrA76jW.s:475    .text.dma_multi_data_mode_init:0000000000000090 .L27
C:\Users\stapi\AppData\Local\Temp\ccrA76jW.s:560    .text.dma_memory_address_config:0000000000000016 .L30
C:\Users\stapi\AppData\Local\Temp\ccrA76jW.s:553    .text.dma_memory_address_config:0000000000000010 .L32
C:\Users\stapi\AppData\Local\Temp\ccrA76jW.s:822    .text.dma_memory_address_generation_config:0000000000000018 .L41
C:\Users\stapi\AppData\Local\Temp\ccrA76jW.s:817    .text.dma_memory_address_generation_config:0000000000000014 .L43
C:\Users\stapi\AppData\Local\Temp\ccrA76jW.s:856    .text.dma_peripheral_address_generation_config:0000000000000018 .L45
C:\Users\stapi\AppData\Local\Temp\ccrA76jW.s:866    .text.dma_peripheral_address_generation_config:0000000000000026 .L47
C:\Users\stapi\AppData\Local\Temp\ccrA76jW.s:851    .text.dma_peripheral_address_generation_config:0000000000000014 .L48
C:\Users\stapi\AppData\Local\Temp\ccrA76jW.s:1042   .text.dma_switch_buffer_mode_config:0000000000000022 .L55
C:\Users\stapi\AppData\Local\Temp\ccrA76jW.s:1037   .text.dma_switch_buffer_mode_config:000000000000001e .L57
C:\Users\stapi\AppData\Local\Temp\ccrA76jW.s:1139   .text.dma_flow_controller_config:0000000000000018 .L61
C:\Users\stapi\AppData\Local\Temp\ccrA76jW.s:1134   .text.dma_flow_controller_config:0000000000000014 .L63
C:\Users\stapi\AppData\Local\Temp\ccrA76jW.s:1253   .text.dma_flag_get:0000000000000026 .L68
C:\Users\stapi\AppData\Local\Temp\ccrA76jW.s:1243   .text.dma_flag_get:000000000000001a .L70
C:\Users\stapi\AppData\Local\Temp\ccrA76jW.s:1307   .text.dma_flag_clear:0000000000000024 .L72
C:\Users\stapi\AppData\Local\Temp\ccrA76jW.s:1362   .text.dma_interrupt_enable:000000000000001e .L75
C:\Users\stapi\AppData\Local\Temp\ccrA76jW.s:1404   .text.dma_interrupt_disable:0000000000000020 .L78
C:\Users\stapi\AppData\Local\Temp\ccrA76jW.s:1638   .text.dma_interrupt_flag_get:0000000000000102 .L81
C:\Users\stapi\AppData\Local\Temp\ccrA76jW.s:1568   .text.dma_interrupt_flag_get:00000000000000b2 .L82
C:\Users\stapi\AppData\Local\Temp\ccrA76jW.s:1451   .text.dma_interrupt_flag_get:0000000000000022 .L83
C:\Users\stapi\AppData\Local\Temp\ccrA76jW.s:1491   .text.dma_interrupt_flag_get:0000000000000058 .L84
C:\Users\stapi\AppData\Local\Temp\ccrA76jW.s:1533   .text.dma_interrupt_flag_get:000000000000008a .L85
C:\Users\stapi\AppData\Local\Temp\ccrA76jW.s:1603   .text.dma_interrupt_flag_get:00000000000000da .L87
C:\Users\stapi\AppData\Local\Temp\ccrA76jW.s:1445   .text.dma_interrupt_flag_get:000000000000001e .L105
C:\Users\stapi\AppData\Local\Temp\ccrA76jW.s:1522   .text.dma_interrupt_flag_get:0000000000000082 .L89
C:\Users\stapi\AppData\Local\Temp\ccrA76jW.s:1529   .text.dma_interrupt_flag_get:0000000000000088 .L80
C:\Users\stapi\AppData\Local\Temp\ccrA76jW.s:1747   .text.dma_interrupt_flag_get:00000000000001a6 .L90
C:\Users\stapi\AppData\Local\Temp\ccrA76jW.s:1682   .text.dma_interrupt_flag_get:0000000000000146 .L91
C:\Users\stapi\AppData\Local\Temp\ccrA76jW.s:1716   .text.dma_interrupt_flag_get:000000000000017c .L92
C:\Users\stapi\AppData\Local\Temp\ccrA76jW.s:1561   .text.dma_interrupt_flag_get:00000000000000ae .L103
C:\Users\stapi\AppData\Local\Temp\ccrA76jW.s:1778   .text.dma_interrupt_flag_get:00000000000001d0 .L94
C:\Users\stapi\AppData\Local\Temp\ccrA76jW.s:1484   .text.dma_interrupt_flag_get:0000000000000054 .L100
C:\Users\stapi\AppData\Local\Temp\ccrA76jW.s:1517   .text.dma_interrupt_flag_get:000000000000007e .L99
C:\Users\stapi\AppData\Local\Temp\ccrA76jW.s:1596   .text.dma_interrupt_flag_get:00000000000000d6 .L101
C:\Users\stapi\AppData\Local\Temp\ccrA76jW.s:1631   .text.dma_interrupt_flag_get:00000000000000fe .L102
C:\Users\stapi\AppData\Local\Temp\ccrA76jW.s:3101   .debug_abbrev:0000000000000000 .Ldebug_abbrev0
C:\Users\stapi\AppData\Local\Temp\ccrA76jW.s:4724   .debug_str:00000000000002aa .LASF101
C:\Users\stapi\AppData\Local\Temp\ccrA76jW.s:4660   .debug_str:0000000000000014 .LASF102
C:\Users\stapi\AppData\Local\Temp\ccrA76jW.s:4814   .debug_str:0000000000000696 .LASF103
C:\Users\stapi\AppData\Local\Temp\ccrA76jW.s:4586   .debug_ranges:0000000000000000 .Ldebug_ranges0
C:\Users\stapi\AppData\Local\Temp\ccrA76jW.s:4656   .debug_line:0000000000000000 .Ldebug_line0
C:\Users\stapi\AppData\Local\Temp\ccrA76jW.s:4774   .debug_str:0000000000000516 .LASF0
C:\Users\stapi\AppData\Local\Temp\ccrA76jW.s:4760   .debug_str:00000000000004af .LASF1
C:\Users\stapi\AppData\Local\Temp\ccrA76jW.s:4742   .debug_str:0000000000000419 .LASF6
C:\Users\stapi\AppData\Local\Temp\ccrA76jW.s:4754   .debug_str:0000000000000476 .LASF2
C:\Users\stapi\AppData\Local\Temp\ccrA76jW.s:4718   .debug_str:0000000000000281 .LASF3
C:\Users\stapi\AppData\Local\Temp\ccrA76jW.s:4784   .debug_str:000000000000057a .LASF4
C:\Users\stapi\AppData\Local\Temp\ccrA76jW.s:4730   .debug_str:00000000000003ce .LASF5
C:\Users\stapi\AppData\Local\Temp\ccrA76jW.s:4684   .debug_str:0000000000000180 .LASF7
C:\Users\stapi\AppData\Local\Temp\ccrA76jW.s:4780   .debug_str:000000000000054f .LASF8
C:\Users\stapi\AppData\Local\Temp\ccrA76jW.s:4868   .debug_str:00000000000008be .LASF9
C:\Users\stapi\AppData\Local\Temp\ccrA76jW.s:4728   .debug_str:00000000000003b7 .LASF10
C:\Users\stapi\AppData\Local\Temp\ccrA76jW.s:4792   .debug_str:00000000000005d4 .LASF11
C:\Users\stapi\AppData\Local\Temp\ccrA76jW.s:4702   .debug_str:0000000000000212 .LASF12
C:\Users\stapi\AppData\Local\Temp\ccrA76jW.s:4708   .debug_str:0000000000000241 .LASF13
C:\Users\stapi\AppData\Local\Temp\ccrA76jW.s:4830   .debug_str:00000000000007a4 .LASF14
C:\Users\stapi\AppData\Local\Temp\ccrA76jW.s:4690   .debug_str:00000000000001b6 .LASF15
C:\Users\stapi\AppData\Local\Temp\ccrA76jW.s:4852   .debug_str:0000000000000877 .LASF16
C:\Users\stapi\AppData\Local\Temp\ccrA76jW.s:4854   .debug_str:000000000000087f .LASF17
C:\Users\stapi\AppData\Local\Temp\ccrA76jW.s:4856   .debug_str:0000000000000887 .LASF18
C:\Users\stapi\AppData\Local\Temp\ccrA76jW.s:4858   .debug_str:000000000000088f .LASF19
C:\Users\stapi\AppData\Local\Temp\ccrA76jW.s:4860   .debug_str:0000000000000897 .LASF20
C:\Users\stapi\AppData\Local\Temp\ccrA76jW.s:4862   .debug_str:000000000000089f .LASF21
C:\Users\stapi\AppData\Local\Temp\ccrA76jW.s:4864   .debug_str:00000000000008a7 .LASF22
C:\Users\stapi\AppData\Local\Temp\ccrA76jW.s:4720   .debug_str:000000000000028b .LASF23
C:\Users\stapi\AppData\Local\Temp\ccrA76jW.s:4686   .debug_str:000000000000018b .LASF24
C:\Users\stapi\AppData\Local\Temp\ccrA76jW.s:4806   .debug_str:0000000000000655 .LASF25
C:\Users\stapi\AppData\Local\Temp\ccrA76jW.s:4762   .debug_str:00000000000004bb .LASF26
C:\Users\stapi\AppData\Local\Temp\ccrA76jW.s:4810   .debug_str:000000000000067c .LASF27
C:\Users\stapi\AppData\Local\Temp\ccrA76jW.s:4766   .debug_str:00000000000004db .LASF28
C:\Users\stapi\AppData\Local\Temp\ccrA76jW.s:4816   .debug_str:0000000000000714 .LASF29
C:\Users\stapi\AppData\Local\Temp\ccrA76jW.s:4818   .debug_str:0000000000000721 .LASF30
C:\Users\stapi\AppData\Local\Temp\ccrA76jW.s:4772   .debug_str:0000000000000509 .LASF31
C:\Users\stapi\AppData\Local\Temp\ccrA76jW.s:4694   .debug_str:00000000000001d9 .LASF32
C:\Users\stapi\AppData\Local\Temp\ccrA76jW.s:4748   .debug_str:0000000000000443 .LASF33
C:\Users\stapi\AppData\Local\Temp\ccrA76jW.s:4682   .debug_str:0000000000000174 .LASF34
C:\Users\stapi\AppData\Local\Temp\ccrA76jW.s:4812   .debug_str:0000000000000689 .LASF35
C:\Users\stapi\AppData\Local\Temp\ccrA76jW.s:4746   .debug_str:0000000000000438 .LASF36
C:\Users\stapi\AppData\Local\Temp\ccrA76jW.s:4664   .debug_str:00000000000000c1 .LASF37
C:\Users\stapi\AppData\Local\Temp\ccrA76jW.s:4750   .debug_str:000000000000045a .LASF38
C:\Users\stapi\AppData\Local\Temp\ccrA76jW.s:4698   .debug_str:00000000000001f1 .LASF39
C:\Users\stapi\AppData\Local\Temp\ccrA76jW.s:4756   .debug_str:0000000000000484 .LASF40
C:\Users\stapi\AppData\Local\Temp\ccrA76jW.s:4764   .debug_str:00000000000004c8 .LASF41
C:\Users\stapi\AppData\Local\Temp\ccrA76jW.s:4678   .debug_str:000000000000015b .LASF42
C:\Users\stapi\AppData\Local\Temp\ccrA76jW.s:4836   .debug_str:00000000000007e3 .LASF43
C:\Users\stapi\AppData\Local\Temp\ccrA76jW.s:4680   .debug_str:000000000000016a .LASF44
C:\Users\stapi\AppData\Local\Temp\ccrA76jW.s:4844   .debug_str:000000000000082e .LASF45
C:\Users\stapi\AppData\Local\Temp\ccrA76jW.s:4668   .debug_str:00000000000000d7 .LASF46
C:\Users\stapi\AppData\Local\Temp\ccrA76jW.s:4796   .debug_str:00000000000005e5 .LASF47
C:\Users\stapi\AppData\Local\Temp\ccrA76jW.s:4658   .debug_str:0000000000000000 .LASF48
C:\Users\stapi\AppData\Local\Temp\ccrA76jW.s:4804   .debug_str:0000000000000634 .LASF49
C:\Users\stapi\AppData\Local\Temp\ccrA76jW.s:4676   .debug_str:0000000000000142 .LASF104
C:\Users\stapi\AppData\Local\Temp\ccrA76jW.s:4800   .debug_str:000000000000060b .LASF50
C:\Users\stapi\AppData\Local\Temp\ccrA76jW.s:4666   .debug_str:00000000000000ce .LASF51
C:\Users\stapi\AppData\Local\Temp\ccrA76jW.s:4722   .debug_str:0000000000000293 .LASF60
C:\Users\stapi\AppData\Local\Temp\ccrA76jW.s:1423   .text.dma_interrupt_flag_get:0000000000000000 .LFB397
C:\Users\stapi\AppData\Local\Temp\ccrA76jW.s:1809   .text.dma_interrupt_flag_get:00000000000001fa .LFE397
C:\Users\stapi\AppData\Local\Temp\ccrA76jW.s:3517   .debug_loc:0000000000000000 .LLST21
C:\Users\stapi\AppData\Local\Temp\ccrA76jW.s:3678   .debug_loc:0000000000000186 .LLST22
C:\Users\stapi\AppData\Local\Temp\ccrA76jW.s:4738   .debug_str:00000000000003fd .LASF52
C:\Users\stapi\AppData\Local\Temp\ccrA76jW.s:3791   .debug_loc:0000000000000288 .LLST23
C:\Users\stapi\AppData\Local\Temp\ccrA76jW.s:4866   .debug_str:00000000000008af .LASF53
C:\Users\stapi\AppData\Local\Temp\ccrA76jW.s:3844   .debug_loc:000000000000030f .LLST24
C:\Users\stapi\AppData\Local\Temp\ccrA76jW.s:4790   .debug_str:00000000000005c0 .LASF54
C:\Users\stapi\AppData\Local\Temp\ccrA76jW.s:3937   .debug_loc:00000000000003fd .LLST25
C:\Users\stapi\AppData\Local\Temp\ccrA76jW.s:4700   .debug_str:00000000000001fc .LASF56
C:\Users\stapi\AppData\Local\Temp\ccrA76jW.s:1381   .text.dma_interrupt_disable:0000000000000000 .LFB396
C:\Users\stapi\AppData\Local\Temp\ccrA76jW.s:1416   .text.dma_interrupt_disable:0000000000000034 .LFE396
C:\Users\stapi\AppData\Local\Temp\ccrA76jW.s:4111   .debug_loc:0000000000000589 .LLST19
C:\Users\stapi\AppData\Local\Temp\ccrA76jW.s:4712   .debug_str:0000000000000255 .LASF55
C:\Users\stapi\AppData\Local\Temp\ccrA76jW.s:4125   .debug_loc:00000000000005aa .LLST20
C:\Users\stapi\AppData\Local\Temp\ccrA76jW.s:4744   .debug_str:0000000000000423 .LASF57
C:\Users\stapi\AppData\Local\Temp\ccrA76jW.s:1339   .text.dma_interrupt_enable:0000000000000000 .LFB395
C:\Users\stapi\AppData\Local\Temp\ccrA76jW.s:1374   .text.dma_interrupt_enable:0000000000000032 .LFE395
C:\Users\stapi\AppData\Local\Temp\ccrA76jW.s:4143   .debug_loc:00000000000005d6 .LLST17
C:\Users\stapi\AppData\Local\Temp\ccrA76jW.s:4157   .debug_loc:00000000000005f7 .LLST18
C:\Users\stapi\AppData\Local\Temp\ccrA76jW.s:4752   .debug_str:0000000000000467 .LASF58
C:\Users\stapi\AppData\Local\Temp\ccrA76jW.s:1281   .text.dma_flag_clear:0000000000000000 .LFB394
C:\Users\stapi\AppData\Local\Temp\ccrA76jW.s:1332   .text.dma_flag_clear:0000000000000046 .LFE394
C:\Users\stapi\AppData\Local\Temp\ccrA76jW.s:4175   .debug_loc:0000000000000623 .LLST15
C:\Users\stapi\AppData\Local\Temp\ccrA76jW.s:4842   .debug_str:0000000000000829 .LASF59
C:\Users\stapi\AppData\Local\Temp\ccrA76jW.s:4212   .debug_loc:0000000000000677 .LLST16
C:\Users\stapi\AppData\Local\Temp\ccrA76jW.s:4714   .debug_str:000000000000025f .LASF61
C:\Users\stapi\AppData\Local\Temp\ccrA76jW.s:1222   .text.dma_flag_get:0000000000000000 .LFB393
C:\Users\stapi\AppData\Local\Temp\ccrA76jW.s:1274   .text.dma_flag_get:0000000000000040 .LFE393
C:\Users\stapi\AppData\Local\Temp\ccrA76jW.s:4237   .debug_loc:00000000000006b1 .LLST14
C:\Users\stapi\AppData\Local\Temp\ccrA76jW.s:4770   .debug_str:00000000000004f5 .LASF62
C:\Users\stapi\AppData\Local\Temp\ccrA76jW.s:1198   .text.dma_fifo_status_get:0000000000000000 .LFB392
C:\Users\stapi\AppData\Local\Temp\ccrA76jW.s:1215   .text.dma_fifo_status_get:0000000000000016 .LFE392
C:\Users\stapi\AppData\Local\Temp\ccrA76jW.s:4274   .debug_loc:0000000000000705 .LLST13
C:\Users\stapi\AppData\Local\Temp\ccrA76jW.s:4672   .debug_str:0000000000000105 .LASF63
C:\Users\stapi\AppData\Local\Temp\ccrA76jW.s:1175   .text.dma_switch_buffer_mode_disable:0000000000000000 .LFB391
C:\Users\stapi\AppData\Local\Temp\ccrA76jW.s:1191   .text.dma_switch_buffer_mode_disable:0000000000000016 .LFE391
C:\Users\stapi\AppData\Local\Temp\ccrA76jW.s:4674   .debug_str:0000000000000124 .LASF64
C:\Users\stapi\AppData\Local\Temp\ccrA76jW.s:1152   .text.dma_switch_buffer_mode_enable:0000000000000000 .LFB390
C:\Users\stapi\AppData\Local\Temp\ccrA76jW.s:1168   .text.dma_switch_buffer_mode_enable:0000000000000016 .LFE390
C:\Users\stapi\AppData\Local\Temp\ccrA76jW.s:4786   .debug_str:000000000000058d .LASF65
C:\Users\stapi\AppData\Local\Temp\ccrA76jW.s:1118   .text.dma_flow_controller_config:0000000000000000 .LFB389
C:\Users\stapi\AppData\Local\Temp\ccrA76jW.s:1145   .text.dma_flow_controller_config:000000000000001e .LFE389
C:\Users\stapi\AppData\Local\Temp\ccrA76jW.s:4710   .debug_str:000000000000024a .LASF66
C:\Users\stapi\AppData\Local\Temp\ccrA76jW.s:4704   .debug_str:000000000000021a .LASF67
C:\Users\stapi\AppData\Local\Temp\ccrA76jW.s:1078   .text.dma_channel_subperipheral_select:0000000000000000 .LFB388
C:\Users\stapi\AppData\Local\Temp\ccrA76jW.s:1111   .text.dma_channel_subperipheral_select:000000000000001e .LFE388
C:\Users\stapi\AppData\Local\Temp\ccrA76jW.s:4696   .debug_str:00000000000001e6 .LASF68
C:\Users\stapi\AppData\Local\Temp\ccrA76jW.s:4288   .debug_loc:0000000000000726 .LLST11
C:\Users\stapi\AppData\Local\Temp\ccrA76jW.s:4302   .debug_loc:0000000000000747 .LLST12
C:\Users\stapi\AppData\Local\Temp\ccrA76jW.s:4716   .debug_str:000000000000026c .LASF69
C:\Users\stapi\AppData\Local\Temp\ccrA76jW.s:1055   .text.dma_using_memory_get:0000000000000000 .LFB387
C:\Users\stapi\AppData\Local\Temp\ccrA76jW.s:1071   .text.dma_using_memory_get:0000000000000014 .LFE387
C:\Users\stapi\AppData\Local\Temp\ccrA76jW.s:4313   .debug_loc:0000000000000765 .LLST10
C:\Users\stapi\AppData\Local\Temp\ccrA76jW.s:4778   .debug_str:0000000000000531 .LASF70
C:\Users\stapi\AppData\Local\Temp\ccrA76jW.s:1012   .text.dma_switch_buffer_mode_config:0000000000000000 .LFB386
C:\Users\stapi\AppData\Local\Temp\ccrA76jW.s:1048   .text.dma_switch_buffer_mode_config:0000000000000028 .LFE386
C:\Users\stapi\AppData\Local\Temp\ccrA76jW.s:4327   .debug_loc:0000000000000786 .LLST9
C:\Users\stapi\AppData\Local\Temp\ccrA76jW.s:4768   .debug_str:00000000000004e8 .LASF71
C:\Users\stapi\AppData\Local\Temp\ccrA76jW.s:4776   .debug_str:0000000000000523 .LASF72
C:\Users\stapi\AppData\Local\Temp\ccrA76jW.s:4838   .debug_str:00000000000007f1 .LASF73
C:\Users\stapi\AppData\Local\Temp\ccrA76jW.s:977    .text.dma_transfer_direction_config:0000000000000000 .LFB385
C:\Users\stapi\AppData\Local\Temp\ccrA76jW.s:1005   .text.dma_transfer_direction_config:0000000000000018 .LFE385
C:\Users\stapi\AppData\Local\Temp\ccrA76jW.s:4341   .debug_loc:00000000000007a7 .LLST7
C:\Users\stapi\AppData\Local\Temp\ccrA76jW.s:4355   .debug_loc:00000000000007c8 .LLST8
C:\Users\stapi\AppData\Local\Temp\ccrA76jW.s:4826   .debug_str:0000000000000784 .LASF74
C:\Users\stapi\AppData\Local\Temp\ccrA76jW.s:954    .text.dma_channel_disable:0000000000000000 .LFB384
C:\Users\stapi\AppData\Local\Temp\ccrA76jW.s:970    .text.dma_channel_disable:0000000000000014 .LFE384
C:\Users\stapi\AppData\Local\Temp\ccrA76jW.s:4850   .debug_str:0000000000000864 .LASF75
C:\Users\stapi\AppData\Local\Temp\ccrA76jW.s:931    .text.dma_channel_enable:0000000000000000 .LFB383
C:\Users\stapi\AppData\Local\Temp\ccrA76jW.s:947    .text.dma_channel_enable:0000000000000016 .LFE383
C:\Users\stapi\AppData\Local\Temp\ccrA76jW.s:4788   .debug_str:00000000000005a8 .LASF76
C:\Users\stapi\AppData\Local\Temp\ccrA76jW.s:908    .text.dma_circulation_disable:0000000000000000 .LFB382
C:\Users\stapi\AppData\Local\Temp\ccrA76jW.s:924    .text.dma_circulation_disable:0000000000000016 .LFE382
C:\Users\stapi\AppData\Local\Temp\ccrA76jW.s:4824   .debug_str:000000000000076d .LASF77
C:\Users\stapi\AppData\Local\Temp\ccrA76jW.s:885    .text.dma_circulation_enable:0000000000000000 .LFB381
C:\Users\stapi\AppData\Local\Temp\ccrA76jW.s:901    .text.dma_circulation_enable:0000000000000016 .LFE381
C:\Users\stapi\AppData\Local\Temp\ccrA76jW.s:4846   .debug_str:0000000000000835 .LASF78
C:\Users\stapi\AppData\Local\Temp\ccrA76jW.s:835    .text.dma_peripheral_address_generation_config:0000000000000000 .LFB380
C:\Users\stapi\AppData\Local\Temp\ccrA76jW.s:878    .text.dma_peripheral_address_generation_config:0000000000000036 .LFE380
C:\Users\stapi\AppData\Local\Temp\ccrA76jW.s:4662   .debug_str:00000000000000ac .LASF79
C:\Users\stapi\AppData\Local\Temp\ccrA76jW.s:4670   .debug_str:00000000000000e0 .LASF80
C:\Users\stapi\AppData\Local\Temp\ccrA76jW.s:801    .text.dma_memory_address_generation_config:0000000000000000 .LFB379
C:\Users\stapi\AppData\Local\Temp\ccrA76jW.s:828    .text.dma_memory_address_generation_config:000000000000001e .LFE379
C:\Users\stapi\AppData\Local\Temp\ccrA76jW.s:4758   .debug_str:0000000000000497 .LASF81
C:\Users\stapi\AppData\Local\Temp\ccrA76jW.s:764    .text.dma_periph_width_config:0000000000000000 .LFB378
C:\Users\stapi\AppData\Local\Temp\ccrA76jW.s:794    .text.dma_periph_width_config:000000000000001c .LFE378
C:\Users\stapi\AppData\Local\Temp\ccrA76jW.s:4848   .debug_str:000000000000085e .LASF82
C:\Users\stapi\AppData\Local\Temp\ccrA76jW.s:4692   .debug_str:00000000000001c1 .LASF83
C:\Users\stapi\AppData\Local\Temp\ccrA76jW.s:727    .text.dma_memory_width_config:0000000000000000 .LFB377
C:\Users\stapi\AppData\Local\Temp\ccrA76jW.s:757    .text.dma_memory_width_config:000000000000001a .LFE377
C:\Users\stapi\AppData\Local\Temp\ccrA76jW.s:4798   .debug_str:0000000000000605 .LASF84
C:\Users\stapi\AppData\Local\Temp\ccrA76jW.s:4822   .debug_str:000000000000074f .LASF85
C:\Users\stapi\AppData\Local\Temp\ccrA76jW.s:690    .text.dma_periph_burst_beats_config:0000000000000000 .LFB376
C:\Users\stapi\AppData\Local\Temp\ccrA76jW.s:720    .text.dma_periph_burst_beats_config:000000000000001c .LFE376
C:\Users\stapi\AppData\Local\Temp\ccrA76jW.s:4736   .debug_str:00000000000003f7 .LASF86
C:\Users\stapi\AppData\Local\Temp\ccrA76jW.s:4832   .debug_str:00000000000007aa .LASF87
C:\Users\stapi\AppData\Local\Temp\ccrA76jW.s:653    .text.dma_memory_burst_beats_config:0000000000000000 .LFB375
C:\Users\stapi\AppData\Local\Temp\ccrA76jW.s:683    .text.dma_memory_burst_beats_config:000000000000001c .LFE375
C:\Users\stapi\AppData\Local\Temp\ccrA76jW.s:4706   .debug_str:000000000000023b .LASF88
C:\Users\stapi\AppData\Local\Temp\ccrA76jW.s:4726   .debug_str:00000000000003a3 .LASF89
C:\Users\stapi\AppData\Local\Temp\ccrA76jW.s:616    .text.dma_priority_config:0000000000000000 .LFB374
C:\Users\stapi\AppData\Local\Temp\ccrA76jW.s:646    .text.dma_priority_config:000000000000001c .LFE374
C:\Users\stapi\AppData\Local\Temp\ccrA76jW.s:4732   .debug_str:00000000000003d7 .LASF90
C:\Users\stapi\AppData\Local\Temp\ccrA76jW.s:593    .text.dma_transfer_number_get:0000000000000000 .LFB373
C:\Users\stapi\AppData\Local\Temp\ccrA76jW.s:609    .text.dma_transfer_number_get:0000000000000010 .LFE373
C:\Users\stapi\AppData\Local\Temp\ccrA76jW.s:4366   .debug_loc:00000000000007e6 .LLST6
C:\Users\stapi\AppData\Local\Temp\ccrA76jW.s:4834   .debug_str:00000000000007c8 .LASF91
C:\Users\stapi\AppData\Local\Temp\ccrA76jW.s:572    .text.dma_transfer_number_config:0000000000000000 .LFB372
C:\Users\stapi\AppData\Local\Temp\ccrA76jW.s:586    .text.dma_transfer_number_config:0000000000000010 .LFE372
C:\Users\stapi\AppData\Local\Temp\ccrA76jW.s:4840   .debug_str:000000000000080f .LASF92
C:\Users\stapi\AppData\Local\Temp\ccrA76jW.s:539    .text.dma_memory_address_config:0000000000000000 .LFB371
C:\Users\stapi\AppData\Local\Temp\ccrA76jW.s:565    .text.dma_memory_address_config:000000000000001a .LFE371
C:\Users\stapi\AppData\Local\Temp\ccrA76jW.s:4380   .debug_loc:0000000000000807 .LLST5
C:\Users\stapi\AppData\Local\Temp\ccrA76jW.s:4794   .debug_str:00000000000005d9 .LASF93
C:\Users\stapi\AppData\Local\Temp\ccrA76jW.s:4734   .debug_str:00000000000003ef .LASF94
C:\Users\stapi\AppData\Local\Temp\ccrA76jW.s:4688   .debug_str:000000000000019c .LASF95
C:\Users\stapi\AppData\Local\Temp\ccrA76jW.s:518    .text.dma_periph_address_config:0000000000000000 .LFB370
C:\Users\stapi\AppData\Local\Temp\ccrA76jW.s:532    .text.dma_periph_address_config:0000000000000010 .LFE370
C:\Users\stapi\AppData\Local\Temp\ccrA76jW.s:4782   .debug_str:0000000000000561 .LASF96
C:\Users\stapi\AppData\Local\Temp\ccrA76jW.s:355    .text.dma_multi_data_mode_init:0000000000000000 .LFB369
C:\Users\stapi\AppData\Local\Temp\ccrA76jW.s:511    .text.dma_multi_data_mode_init:00000000000000ba .LFE369
C:\Users\stapi\AppData\Local\Temp\ccrA76jW.s:4394   .debug_loc:0000000000000828 .LLST3
C:\Users\stapi\AppData\Local\Temp\ccrA76jW.s:4828   .debug_str:0000000000000798 .LASF97
C:\Users\stapi\AppData\Local\Temp\ccrA76jW.s:4408   .debug_loc:0000000000000849 .LLST4
C:\Users\stapi\AppData\Local\Temp\ccrA76jW.s:4808   .debug_str:0000000000000662 .LASF98
C:\Users\stapi\AppData\Local\Temp\ccrA76jW.s:205    .text.dma_single_data_mode_init:0000000000000000 .LFB368
C:\Users\stapi\AppData\Local\Temp\ccrA76jW.s:348    .text.dma_single_data_mode_init:00000000000000a6 .LFE368
C:\Users\stapi\AppData\Local\Temp\ccrA76jW.s:4433   .debug_loc:000000000000088a .LLST1
C:\Users\stapi\AppData\Local\Temp\ccrA76jW.s:4447   .debug_loc:00000000000008ab .LLST2
C:\Users\stapi\AppData\Local\Temp\ccrA76jW.s:4802   .debug_str:0000000000000614 .LASF99
C:\Users\stapi\AppData\Local\Temp\ccrA76jW.s:153    .text.dma_multi_data_para_struct_init:0000000000000000 .LFB367
C:\Users\stapi\AppData\Local\Temp\ccrA76jW.s:198    .text.dma_multi_data_para_struct_init:0000000000000030 .LFE367
C:\Users\stapi\AppData\Local\Temp\ccrA76jW.s:4820   .debug_str:000000000000072e .LASF100
C:\Users\stapi\AppData\Local\Temp\ccrA76jW.s:110    .text.dma_single_data_para_struct_init:0000000000000000 .LFB366
C:\Users\stapi\AppData\Local\Temp\ccrA76jW.s:146    .text.dma_single_data_para_struct_init:0000000000000024 .LFE366
C:\Users\stapi\AppData\Local\Temp\ccrA76jW.s:4740   .debug_str:000000000000040e .LASF105
C:\Users\stapi\AppData\Local\Temp\ccrA76jW.s:14     .text.dma_deinit:0000000000000000 .LFB365
C:\Users\stapi\AppData\Local\Temp\ccrA76jW.s:103    .text.dma_deinit:0000000000000094 .LFE365
C:\Users\stapi\AppData\Local\Temp\ccrA76jW.s:4472   .debug_loc:00000000000008ec .LLST0
C:\Users\stapi\AppData\Local\Temp\ccrA76jW.s:1426   .text.dma_interrupt_flag_get:0000000000000000 .LVL99
C:\Users\stapi\AppData\Local\Temp\ccrA76jW.s:1448   .text.dma_interrupt_flag_get:0000000000000020 .LVL101
C:\Users\stapi\AppData\Local\Temp\ccrA76jW.s:1450   .text.dma_interrupt_flag_get:0000000000000022 .LVL102
C:\Users\stapi\AppData\Local\Temp\ccrA76jW.s:1465   .text.dma_interrupt_flag_get:000000000000003c .LVL103
C:\Users\stapi\AppData\Local\Temp\ccrA76jW.s:1476   .text.dma_interrupt_flag_get:000000000000004c .LVL104
C:\Users\stapi\AppData\Local\Temp\ccrA76jW.s:1490   .text.dma_interrupt_flag_get:0000000000000058 .LVL108
C:\Users\stapi\AppData\Local\Temp\ccrA76jW.s:1502   .text.dma_interrupt_flag_get:0000000000000066 .LVL110
C:\Users\stapi\AppData\Local\Temp\ccrA76jW.s:1516   .text.dma_interrupt_flag_get:000000000000007e .LVL112
C:\Users\stapi\AppData\Local\Temp\ccrA76jW.s:1532   .text.dma_interrupt_flag_get:000000000000008a .LVL115
C:\Users\stapi\AppData\Local\Temp\ccrA76jW.s:1542   .text.dma_interrupt_flag_get:0000000000000096 .LVL116
C:\Users\stapi\AppData\Local\Temp\ccrA76jW.s:1553   .text.dma_interrupt_flag_get:00000000000000a6 .LVL117
C:\Users\stapi\AppData\Local\Temp\ccrA76jW.s:1567   .text.dma_interrupt_flag_get:00000000000000b2 .LVL121
C:\Users\stapi\AppData\Local\Temp\ccrA76jW.s:1577   .text.dma_interrupt_flag_get:00000000000000be .LVL122
C:\Users\stapi\AppData\Local\Temp\ccrA76jW.s:1588   .text.dma_interrupt_flag_get:00000000000000ce .LVL123
C:\Users\stapi\AppData\Local\Temp\ccrA76jW.s:1602   .text.dma_interrupt_flag_get:00000000000000da .LVL127
C:\Users\stapi\AppData\Local\Temp\ccrA76jW.s:1612   .text.dma_interrupt_flag_get:00000000000000e6 .LVL128
C:\Users\stapi\AppData\Local\Temp\ccrA76jW.s:1623   .text.dma_interrupt_flag_get:00000000000000f6 .LVL129
C:\Users\stapi\AppData\Local\Temp\ccrA76jW.s:1637   .text.dma_interrupt_flag_get:0000000000000102 .LVL133
C:\Users\stapi\AppData\Local\Temp\ccrA76jW.s:1656   .text.dma_interrupt_flag_get:0000000000000122 .LVL135
C:\Users\stapi\AppData\Local\Temp\ccrA76jW.s:1679   .text.dma_interrupt_flag_get:0000000000000144 .LVL139
C:\Users\stapi\AppData\Local\Temp\ccrA76jW.s:1681   .text.dma_interrupt_flag_get:0000000000000146 .LVL140
C:\Users\stapi\AppData\Local\Temp\ccrA76jW.s:1692   .text.dma_interrupt_flag_get:000000000000015a .LVL141
C:\Users\stapi\AppData\Local\Temp\ccrA76jW.s:1713   .text.dma_interrupt_flag_get:000000000000017a .LVL145
C:\Users\stapi\AppData\Local\Temp\ccrA76jW.s:1715   .text.dma_interrupt_flag_get:000000000000017c .LVL146
C:\Users\stapi\AppData\Local\Temp\ccrA76jW.s:1722   .text.dma_interrupt_flag_get:0000000000000182 .LVL148
C:\Users\stapi\AppData\Local\Temp\ccrA76jW.s:1744   .text.dma_interrupt_flag_get:00000000000001a4 .LVL151
C:\Users\stapi\AppData\Local\Temp\ccrA76jW.s:1746   .text.dma_interrupt_flag_get:00000000000001a6 .LVL152
C:\Users\stapi\AppData\Local\Temp\ccrA76jW.s:1752   .text.dma_interrupt_flag_get:00000000000001ac .LVL153
C:\Users\stapi\AppData\Local\Temp\ccrA76jW.s:1775   .text.dma_interrupt_flag_get:00000000000001ce .LVL157
C:\Users\stapi\AppData\Local\Temp\ccrA76jW.s:1777   .text.dma_interrupt_flag_get:00000000000001d0 .LVL158
C:\Users\stapi\AppData\Local\Temp\ccrA76jW.s:1783   .text.dma_interrupt_flag_get:00000000000001d6 .LVL159
C:\Users\stapi\AppData\Local\Temp\ccrA76jW.s:1806   .text.dma_interrupt_flag_get:00000000000001f8 .LVL163
C:\Users\stapi\AppData\Local\Temp\ccrA76jW.s:1479   .text.dma_interrupt_flag_get:0000000000000050 .LVL105
C:\Users\stapi\AppData\Local\Temp\ccrA76jW.s:1495   .text.dma_interrupt_flag_get:000000000000005a .LVL109
C:\Users\stapi\AppData\Local\Temp\ccrA76jW.s:1556   .text.dma_interrupt_flag_get:00000000000000aa .LVL118
C:\Users\stapi\AppData\Local\Temp\ccrA76jW.s:1591   .text.dma_interrupt_flag_get:00000000000000d2 .LVL124
C:\Users\stapi\AppData\Local\Temp\ccrA76jW.s:1626   .text.dma_interrupt_flag_get:00000000000000fa .LVL130
C:\Users\stapi\AppData\Local\Temp\ccrA76jW.s:1670   .text.dma_interrupt_flag_get:000000000000013a .LVL137
C:\Users\stapi\AppData\Local\Temp\ccrA76jW.s:1703   .text.dma_interrupt_flag_get:000000000000016e .LVL143
C:\Users\stapi\AppData\Local\Temp\ccrA76jW.s:1720   .text.dma_interrupt_flag_get:000000000000017e .LVL147
C:\Users\stapi\AppData\Local\Temp\ccrA76jW.s:1766   .text.dma_interrupt_flag_get:00000000000001c4 .LVL155
C:\Users\stapi\AppData\Local\Temp\ccrA76jW.s:1797   .text.dma_interrupt_flag_get:00000000000001ee .LVL161
C:\Users\stapi\AppData\Local\Temp\ccrA76jW.s:1487   .text.dma_interrupt_flag_get:0000000000000056 .LVL107
C:\Users\stapi\AppData\Local\Temp\ccrA76jW.s:1520   .text.dma_interrupt_flag_get:0000000000000082 .LVL113
C:\Users\stapi\AppData\Local\Temp\ccrA76jW.s:1528   .text.dma_interrupt_flag_get:0000000000000088 .LVL114
C:\Users\stapi\AppData\Local\Temp\ccrA76jW.s:1564   .text.dma_interrupt_flag_get:00000000000000b0 .LVL120
C:\Users\stapi\AppData\Local\Temp\ccrA76jW.s:1599   .text.dma_interrupt_flag_get:00000000000000d8 .LVL126
C:\Users\stapi\AppData\Local\Temp\ccrA76jW.s:1634   .text.dma_interrupt_flag_get:0000000000000100 .LVL132
C:\Users\stapi\AppData\Local\Temp\ccrA76jW.s:1482   .text.dma_interrupt_flag_get:0000000000000054 .LVL106
C:\Users\stapi\AppData\Local\Temp\ccrA76jW.s:1510   .text.dma_interrupt_flag_get:0000000000000076 .LVL111
C:\Users\stapi\AppData\Local\Temp\ccrA76jW.s:1559   .text.dma_interrupt_flag_get:00000000000000ae .LVL119
C:\Users\stapi\AppData\Local\Temp\ccrA76jW.s:1594   .text.dma_interrupt_flag_get:00000000000000d6 .LVL125
C:\Users\stapi\AppData\Local\Temp\ccrA76jW.s:1629   .text.dma_interrupt_flag_get:00000000000000fe .LVL131
C:\Users\stapi\AppData\Local\Temp\ccrA76jW.s:1675   .text.dma_interrupt_flag_get:0000000000000142 .LVL138
C:\Users\stapi\AppData\Local\Temp\ccrA76jW.s:1709   .text.dma_interrupt_flag_get:0000000000000178 .LVL144
C:\Users\stapi\AppData\Local\Temp\ccrA76jW.s:1740   .text.dma_interrupt_flag_get:00000000000001a2 .LVL150
C:\Users\stapi\AppData\Local\Temp\ccrA76jW.s:1771   .text.dma_interrupt_flag_get:00000000000001cc .LVL156
C:\Users\stapi\AppData\Local\Temp\ccrA76jW.s:1802   .text.dma_interrupt_flag_get:00000000000001f6 .LVL162
C:\Users\stapi\AppData\Local\Temp\ccrA76jW.s:1444   .text.dma_interrupt_flag_get:000000000000001e .LVL100
C:\Users\stapi\AppData\Local\Temp\ccrA76jW.s:1644   .text.dma_interrupt_flag_get:0000000000000108 .LVL134
C:\Users\stapi\AppData\Local\Temp\ccrA76jW.s:1658   .text.dma_interrupt_flag_get:0000000000000126 .LVL136
C:\Users\stapi\AppData\Local\Temp\ccrA76jW.s:1694   .text.dma_interrupt_flag_get:000000000000015e .LVL142
C:\Users\stapi\AppData\Local\Temp\ccrA76jW.s:1724   .text.dma_interrupt_flag_get:0000000000000186 .LVL149
C:\Users\stapi\AppData\Local\Temp\ccrA76jW.s:1754   .text.dma_interrupt_flag_get:00000000000001b0 .LVL154
C:\Users\stapi\AppData\Local\Temp\ccrA76jW.s:1785   .text.dma_interrupt_flag_get:00000000000001da .LVL160
C:\Users\stapi\AppData\Local\Temp\ccrA76jW.s:1384   .text.dma_interrupt_disable:0000000000000000 .LVL95
C:\Users\stapi\AppData\Local\Temp\ccrA76jW.s:1389   .text.dma_interrupt_disable:0000000000000006 .LVL96
C:\Users\stapi\AppData\Local\Temp\ccrA76jW.s:1400   .text.dma_interrupt_disable:000000000000001c .LVL97
C:\Users\stapi\AppData\Local\Temp\ccrA76jW.s:1403   .text.dma_interrupt_disable:0000000000000020 .LVL98
C:\Users\stapi\AppData\Local\Temp\ccrA76jW.s:1342   .text.dma_interrupt_enable:0000000000000000 .LVL91
C:\Users\stapi\AppData\Local\Temp\ccrA76jW.s:1347   .text.dma_interrupt_enable:0000000000000006 .LVL92
C:\Users\stapi\AppData\Local\Temp\ccrA76jW.s:1358   .text.dma_interrupt_enable:000000000000001a .LVL93
C:\Users\stapi\AppData\Local\Temp\ccrA76jW.s:1361   .text.dma_interrupt_enable:000000000000001e .LVL94
C:\Users\stapi\AppData\Local\Temp\ccrA76jW.s:1284   .text.dma_flag_clear:0000000000000000 .LVL83
C:\Users\stapi\AppData\Local\Temp\ccrA76jW.s:1294   .text.dma_flag_clear:0000000000000010 .LVL84
C:\Users\stapi\AppData\Local\Temp\ccrA76jW.s:1306   .text.dma_flag_clear:0000000000000024 .LVL86
C:\Users\stapi\AppData\Local\Temp\ccrA76jW.s:1311   .text.dma_flag_clear:0000000000000028 .LVL87
C:\Users\stapi\AppData\Local\Temp\ccrA76jW.s:1316   .text.dma_flag_clear:000000000000002e .LVL88
C:\Users\stapi\AppData\Local\Temp\ccrA76jW.s:1322   .text.dma_flag_clear:0000000000000038 .LVL89
C:\Users\stapi\AppData\Local\Temp\ccrA76jW.s:1301   .text.dma_flag_clear:000000000000001e .LVL85
C:\Users\stapi\AppData\Local\Temp\ccrA76jW.s:1325   .text.dma_flag_clear:0000000000000040 .LVL90
C:\Users\stapi\AppData\Local\Temp\ccrA76jW.s:1225   .text.dma_flag_get:0000000000000000 .LVL76
C:\Users\stapi\AppData\Local\Temp\ccrA76jW.s:1240   .text.dma_flag_get:0000000000000016 .LVL77
C:\Users\stapi\AppData\Local\Temp\ccrA76jW.s:1242   .text.dma_flag_get:000000000000001a .LVL78
C:\Users\stapi\AppData\Local\Temp\ccrA76jW.s:1252   .text.dma_flag_get:0000000000000026 .LVL79
C:\Users\stapi\AppData\Local\Temp\ccrA76jW.s:1257   .text.dma_flag_get:000000000000002a .LVL80
C:\Users\stapi\AppData\Local\Temp\ccrA76jW.s:1262   .text.dma_flag_get:0000000000000030 .LVL81
C:\Users\stapi\AppData\Local\Temp\ccrA76jW.s:1267   .text.dma_flag_get:0000000000000038 .LVL82
C:\Users\stapi\AppData\Local\Temp\ccrA76jW.s:1201   .text.dma_fifo_status_get:0000000000000000 .LVL74
C:\Users\stapi\AppData\Local\Temp\ccrA76jW.s:1210   .text.dma_fifo_status_get:0000000000000010 .LVL75
C:\Users\stapi\AppData\Local\Temp\ccrA76jW.s:1081   .text.dma_channel_subperipheral_select:0000000000000000 .LVL66
C:\Users\stapi\AppData\Local\Temp\ccrA76jW.s:1101   .text.dma_channel_subperipheral_select:0000000000000018 .LVL69
C:\Users\stapi\AppData\Local\Temp\ccrA76jW.s:1091   .text.dma_channel_subperipheral_select:000000000000000e .LVL67
C:\Users\stapi\AppData\Local\Temp\ccrA76jW.s:1104   .text.dma_channel_subperipheral_select:000000000000001a .LVL70
C:\Users\stapi\AppData\Local\Temp\ccrA76jW.s:1058   .text.dma_using_memory_get:0000000000000000 .LVL64
C:\Users\stapi\AppData\Local\Temp\ccrA76jW.s:1066   .text.dma_using_memory_get:000000000000000e .LVL65
C:\Users\stapi\AppData\Local\Temp\ccrA76jW.s:1015   .text.dma_switch_buffer_mode_config:0000000000000000 .LVL62
C:\Users\stapi\AppData\Local\Temp\ccrA76jW.s:1019   .text.dma_switch_buffer_mode_config:0000000000000006 .LVL63
C:\Users\stapi\AppData\Local\Temp\ccrA76jW.s:980    .text.dma_transfer_direction_config:0000000000000000 .LVL58
C:\Users\stapi\AppData\Local\Temp\ccrA76jW.s:998    .text.dma_transfer_direction_config:0000000000000014 .LVL61
C:\Users\stapi\AppData\Local\Temp\ccrA76jW.s:990    .text.dma_transfer_direction_config:000000000000000e .LVL59
C:\Users\stapi\AppData\Local\Temp\ccrA76jW.s:596    .text.dma_transfer_number_get:0000000000000000 .LVL30
C:\Users\stapi\AppData\Local\Temp\ccrA76jW.s:605    .text.dma_transfer_number_get:000000000000000e .LVL31
C:\Users\stapi\AppData\Local\Temp\ccrA76jW.s:542    .text.dma_memory_address_config:0000000000000000 .LVL27
C:\Users\stapi\AppData\Local\Temp\ccrA76jW.s:547    .text.dma_memory_address_config:0000000000000006 .LVL28
C:\Users\stapi\AppData\Local\Temp\ccrA76jW.s:358    .text.dma_multi_data_mode_init:0000000000000000 .LVL17
C:\Users\stapi\AppData\Local\Temp\ccrA76jW.s:364    .text.dma_multi_data_mode_init:0000000000000006 .LVL18
C:\Users\stapi\AppData\Local\Temp\ccrA76jW.s:409    .text.dma_multi_data_mode_init:0000000000000046 .LVL19
C:\Users\stapi\AppData\Local\Temp\ccrA76jW.s:418    .text.dma_multi_data_mode_init:0000000000000052 .LVL20
C:\Users\stapi\AppData\Local\Temp\ccrA76jW.s:437    .text.dma_multi_data_mode_init:0000000000000068 .LVL21
C:\Users\stapi\AppData\Local\Temp\ccrA76jW.s:444    .text.dma_multi_data_mode_init:000000000000006c .LVL22
C:\Users\stapi\AppData\Local\Temp\ccrA76jW.s:454    .text.dma_multi_data_mode_init:0000000000000076 .LVL23
C:\Users\stapi\AppData\Local\Temp\ccrA76jW.s:480    .text.dma_multi_data_mode_init:0000000000000094 .LVL24
C:\Users\stapi\AppData\Local\Temp\ccrA76jW.s:497    .text.dma_multi_data_mode_init:00000000000000aa .LVL25
C:\Users\stapi\AppData\Local\Temp\ccrA76jW.s:208    .text.dma_single_data_mode_init:0000000000000000 .LVL8
C:\Users\stapi\AppData\Local\Temp\ccrA76jW.s:214    .text.dma_single_data_mode_init:0000000000000006 .LVL9
C:\Users\stapi\AppData\Local\Temp\ccrA76jW.s:252    .text.dma_single_data_mode_init:000000000000003a .LVL10
C:\Users\stapi\AppData\Local\Temp\ccrA76jW.s:261    .text.dma_single_data_mode_init:0000000000000046 .LVL11
C:\Users\stapi\AppData\Local\Temp\ccrA76jW.s:274    .text.dma_single_data_mode_init:0000000000000054 .LVL12
C:\Users\stapi\AppData\Local\Temp\ccrA76jW.s:281    .text.dma_single_data_mode_init:0000000000000058 .LVL13
C:\Users\stapi\AppData\Local\Temp\ccrA76jW.s:291    .text.dma_single_data_mode_init:0000000000000062 .LVL14
C:\Users\stapi\AppData\Local\Temp\ccrA76jW.s:317    .text.dma_single_data_mode_init:0000000000000080 .LVL15
C:\Users\stapi\AppData\Local\Temp\ccrA76jW.s:334    .text.dma_single_data_mode_init:0000000000000096 .LVL16
C:\Users\stapi\AppData\Local\Temp\ccrA76jW.s:18     .text.dma_deinit:0000000000000000 .LVL0
C:\Users\stapi\AppData\Local\Temp\ccrA76jW.s:67     .text.dma_deinit:000000000000005e .LVL1
C:\Users\stapi\AppData\Local\Temp\ccrA76jW.s:78     .text.dma_deinit:0000000000000072 .LVL2
C:\Users\stapi\AppData\Local\Temp\ccrA76jW.s:83     .text.dma_deinit:0000000000000076 .LVL3
C:\Users\stapi\AppData\Local\Temp\ccrA76jW.s:88     .text.dma_deinit:000000000000007c .LVL4
C:\Users\stapi\AppData\Local\Temp\ccrA76jW.s:93     .text.dma_deinit:0000000000000082 .LVL5
C:\Users\stapi\AppData\Local\Temp\ccrA76jW.s:1829   .debug_info:0000000000000000 .Ldebug_info0

NO UNDEFINED SYMBOLS
