   1              		.file	"gd32vw55x_rtc.c"
   2              		.option nopic
   3              		.attribute arch, "rv32i2p0_m2p0_a2p0_f2p0_c2p0_b_p0p94"
   4              		.attribute unaligned_access, 0
   5              		.attribute stack_align, 16
   6              		.text
   7              	.Ltext0:
   8              		.cfi_sections	.debug_frame
   9              		.section	.text.rtc_init_mode_enter,"ax",@progbits
  10              		.align	1
  11              		.globl	rtc_init_mode_enter
  13              	rtc_init_mode_enter:
  14              	.LFB367:
  15              		.file 1 "C:/Users/stapi/OneDrive/Desktop/GD32VW553/GD32VW55X_Wifi_BLE_SDK/GD32VW55x_RELEASE_V1.0.2
   1:C:/Users/stapi/OneDrive/Desktop/GD32VW553/GD32VW55X_Wifi_BLE_SDK/GD32VW55x_RELEASE_V1.0.2/MSDK/plf/GD32VW55x_standard_peripheral/Source\gd32vw55x_rtc.c **** /*!
   2:C:/Users/stapi/OneDrive/Desktop/GD32VW553/GD32VW55X_Wifi_BLE_SDK/GD32VW55x_RELEASE_V1.0.2/MSDK/plf/GD32VW55x_standard_peripheral/Source\gd32vw55x_rtc.c ****     \file    gd32vw55x_rtc.c
   3:C:/Users/stapi/OneDrive/Desktop/GD32VW553/GD32VW55X_Wifi_BLE_SDK/GD32VW55x_RELEASE_V1.0.2/MSDK/plf/GD32VW55x_standard_peripheral/Source\gd32vw55x_rtc.c ****     \brief   RTC driver
   4:C:/Users/stapi/OneDrive/Desktop/GD32VW553/GD32VW55X_Wifi_BLE_SDK/GD32VW55x_RELEASE_V1.0.2/MSDK/plf/GD32VW55x_standard_peripheral/Source\gd32vw55x_rtc.c **** 
   5:C:/Users/stapi/OneDrive/Desktop/GD32VW553/GD32VW55X_Wifi_BLE_SDK/GD32VW55x_RELEASE_V1.0.2/MSDK/plf/GD32VW55x_standard_peripheral/Source\gd32vw55x_rtc.c ****     \version 2023-07-20, V1.0.0, firmware for GD32VW55x
   6:C:/Users/stapi/OneDrive/Desktop/GD32VW553/GD32VW55X_Wifi_BLE_SDK/GD32VW55x_RELEASE_V1.0.2/MSDK/plf/GD32VW55x_standard_peripheral/Source\gd32vw55x_rtc.c **** */
   7:C:/Users/stapi/OneDrive/Desktop/GD32VW553/GD32VW55X_Wifi_BLE_SDK/GD32VW55x_RELEASE_V1.0.2/MSDK/plf/GD32VW55x_standard_peripheral/Source\gd32vw55x_rtc.c **** 
   8:C:/Users/stapi/OneDrive/Desktop/GD32VW553/GD32VW55X_Wifi_BLE_SDK/GD32VW55x_RELEASE_V1.0.2/MSDK/plf/GD32VW55x_standard_peripheral/Source\gd32vw55x_rtc.c **** /*
   9:C:/Users/stapi/OneDrive/Desktop/GD32VW553/GD32VW55X_Wifi_BLE_SDK/GD32VW55x_RELEASE_V1.0.2/MSDK/plf/GD32VW55x_standard_peripheral/Source\gd32vw55x_rtc.c ****     Copyright (c) 2023, GigaDevice Semiconductor Inc.
  10:C:/Users/stapi/OneDrive/Desktop/GD32VW553/GD32VW55X_Wifi_BLE_SDK/GD32VW55x_RELEASE_V1.0.2/MSDK/plf/GD32VW55x_standard_peripheral/Source\gd32vw55x_rtc.c **** 
  11:C:/Users/stapi/OneDrive/Desktop/GD32VW553/GD32VW55X_Wifi_BLE_SDK/GD32VW55x_RELEASE_V1.0.2/MSDK/plf/GD32VW55x_standard_peripheral/Source\gd32vw55x_rtc.c ****     Redistribution and use in source and binary forms, with or without modification,
  12:C:/Users/stapi/OneDrive/Desktop/GD32VW553/GD32VW55X_Wifi_BLE_SDK/GD32VW55x_RELEASE_V1.0.2/MSDK/plf/GD32VW55x_standard_peripheral/Source\gd32vw55x_rtc.c **** are permitted provided that the following conditions are met:
  13:C:/Users/stapi/OneDrive/Desktop/GD32VW553/GD32VW55X_Wifi_BLE_SDK/GD32VW55x_RELEASE_V1.0.2/MSDK/plf/GD32VW55x_standard_peripheral/Source\gd32vw55x_rtc.c **** 
  14:C:/Users/stapi/OneDrive/Desktop/GD32VW553/GD32VW55X_Wifi_BLE_SDK/GD32VW55x_RELEASE_V1.0.2/MSDK/plf/GD32VW55x_standard_peripheral/Source\gd32vw55x_rtc.c ****     1. Redistributions of source code must retain the above copyright notice, this
  15:C:/Users/stapi/OneDrive/Desktop/GD32VW553/GD32VW55X_Wifi_BLE_SDK/GD32VW55x_RELEASE_V1.0.2/MSDK/plf/GD32VW55x_standard_peripheral/Source\gd32vw55x_rtc.c ****        list of conditions and the following disclaimer.
  16:C:/Users/stapi/OneDrive/Desktop/GD32VW553/GD32VW55X_Wifi_BLE_SDK/GD32VW55x_RELEASE_V1.0.2/MSDK/plf/GD32VW55x_standard_peripheral/Source\gd32vw55x_rtc.c ****     2. Redistributions in binary form must reproduce the above copyright notice,
  17:C:/Users/stapi/OneDrive/Desktop/GD32VW553/GD32VW55X_Wifi_BLE_SDK/GD32VW55x_RELEASE_V1.0.2/MSDK/plf/GD32VW55x_standard_peripheral/Source\gd32vw55x_rtc.c ****        this list of conditions and the following disclaimer in the documentation
  18:C:/Users/stapi/OneDrive/Desktop/GD32VW553/GD32VW55X_Wifi_BLE_SDK/GD32VW55x_RELEASE_V1.0.2/MSDK/plf/GD32VW55x_standard_peripheral/Source\gd32vw55x_rtc.c ****        and/or other materials provided with the distribution.
  19:C:/Users/stapi/OneDrive/Desktop/GD32VW553/GD32VW55X_Wifi_BLE_SDK/GD32VW55x_RELEASE_V1.0.2/MSDK/plf/GD32VW55x_standard_peripheral/Source\gd32vw55x_rtc.c ****     3. Neither the name of the copyright holder nor the names of its contributors
  20:C:/Users/stapi/OneDrive/Desktop/GD32VW553/GD32VW55X_Wifi_BLE_SDK/GD32VW55x_RELEASE_V1.0.2/MSDK/plf/GD32VW55x_standard_peripheral/Source\gd32vw55x_rtc.c ****        may be used to endorse or promote products derived from this software without
  21:C:/Users/stapi/OneDrive/Desktop/GD32VW553/GD32VW55X_Wifi_BLE_SDK/GD32VW55x_RELEASE_V1.0.2/MSDK/plf/GD32VW55x_standard_peripheral/Source\gd32vw55x_rtc.c ****        specific prior written permission.
  22:C:/Users/stapi/OneDrive/Desktop/GD32VW553/GD32VW55X_Wifi_BLE_SDK/GD32VW55x_RELEASE_V1.0.2/MSDK/plf/GD32VW55x_standard_peripheral/Source\gd32vw55x_rtc.c **** 
  23:C:/Users/stapi/OneDrive/Desktop/GD32VW553/GD32VW55X_Wifi_BLE_SDK/GD32VW55x_RELEASE_V1.0.2/MSDK/plf/GD32VW55x_standard_peripheral/Source\gd32vw55x_rtc.c ****     THIS SOFTWARE IS PROVIDED BY THE COPYRIGHT HOLDERS AND CONTRIBUTORS "AS IS"
  24:C:/Users/stapi/OneDrive/Desktop/GD32VW553/GD32VW55X_Wifi_BLE_SDK/GD32VW55x_RELEASE_V1.0.2/MSDK/plf/GD32VW55x_standard_peripheral/Source\gd32vw55x_rtc.c **** AND ANY EXPRESS OR IMPLIED WARRANTIES, INCLUDING, BUT NOT LIMITED TO, THE IMPLIED
  25:C:/Users/stapi/OneDrive/Desktop/GD32VW553/GD32VW55X_Wifi_BLE_SDK/GD32VW55x_RELEASE_V1.0.2/MSDK/plf/GD32VW55x_standard_peripheral/Source\gd32vw55x_rtc.c **** WARRANTIES OF MERCHANTABILITY AND FITNESS FOR A PARTICULAR PURPOSE ARE DISCLAIMED.
  26:C:/Users/stapi/OneDrive/Desktop/GD32VW553/GD32VW55X_Wifi_BLE_SDK/GD32VW55x_RELEASE_V1.0.2/MSDK/plf/GD32VW55x_standard_peripheral/Source\gd32vw55x_rtc.c **** IN NO EVENT SHALL THE COPYRIGHT HOLDER OR CONTRIBUTORS BE LIABLE FOR ANY DIRECT,
  27:C:/Users/stapi/OneDrive/Desktop/GD32VW553/GD32VW55X_Wifi_BLE_SDK/GD32VW55x_RELEASE_V1.0.2/MSDK/plf/GD32VW55x_standard_peripheral/Source\gd32vw55x_rtc.c **** INDIRECT, INCIDENTAL, SPECIAL, EXEMPLARY, OR CONSEQUENTIAL DAMAGES (INCLUDING, BUT
  28:C:/Users/stapi/OneDrive/Desktop/GD32VW553/GD32VW55X_Wifi_BLE_SDK/GD32VW55x_RELEASE_V1.0.2/MSDK/plf/GD32VW55x_standard_peripheral/Source\gd32vw55x_rtc.c **** NOT LIMITED TO, PROCUREMENT OF SUBSTITUTE GOODS OR SERVICES; LOSS OF USE, DATA, OR
  29:C:/Users/stapi/OneDrive/Desktop/GD32VW553/GD32VW55X_Wifi_BLE_SDK/GD32VW55x_RELEASE_V1.0.2/MSDK/plf/GD32VW55x_standard_peripheral/Source\gd32vw55x_rtc.c **** PROFITS; OR BUSINESS INTERRUPTION) HOWEVER CAUSED AND ON ANY THEORY OF LIABILITY,
  30:C:/Users/stapi/OneDrive/Desktop/GD32VW553/GD32VW55X_Wifi_BLE_SDK/GD32VW55x_RELEASE_V1.0.2/MSDK/plf/GD32VW55x_standard_peripheral/Source\gd32vw55x_rtc.c **** WHETHER IN CONTRACT, STRICT LIABILITY, OR TORT (INCLUDING NEGLIGENCE OR OTHERWISE)
  31:C:/Users/stapi/OneDrive/Desktop/GD32VW553/GD32VW55X_Wifi_BLE_SDK/GD32VW55x_RELEASE_V1.0.2/MSDK/plf/GD32VW55x_standard_peripheral/Source\gd32vw55x_rtc.c **** ARISING IN ANY WAY OUT OF THE USE OF THIS SOFTWARE, EVEN IF ADVISED OF THE POSSIBILITY
  32:C:/Users/stapi/OneDrive/Desktop/GD32VW553/GD32VW55X_Wifi_BLE_SDK/GD32VW55x_RELEASE_V1.0.2/MSDK/plf/GD32VW55x_standard_peripheral/Source\gd32vw55x_rtc.c **** OF SUCH DAMAGE.
  33:C:/Users/stapi/OneDrive/Desktop/GD32VW553/GD32VW55X_Wifi_BLE_SDK/GD32VW55x_RELEASE_V1.0.2/MSDK/plf/GD32VW55x_standard_peripheral/Source\gd32vw55x_rtc.c **** */
  34:C:/Users/stapi/OneDrive/Desktop/GD32VW553/GD32VW55X_Wifi_BLE_SDK/GD32VW55x_RELEASE_V1.0.2/MSDK/plf/GD32VW55x_standard_peripheral/Source\gd32vw55x_rtc.c **** 
  35:C:/Users/stapi/OneDrive/Desktop/GD32VW553/GD32VW55X_Wifi_BLE_SDK/GD32VW55x_RELEASE_V1.0.2/MSDK/plf/GD32VW55x_standard_peripheral/Source\gd32vw55x_rtc.c **** #include "gd32vw55x_rtc.h"
  36:C:/Users/stapi/OneDrive/Desktop/GD32VW553/GD32VW55X_Wifi_BLE_SDK/GD32VW55x_RELEASE_V1.0.2/MSDK/plf/GD32VW55x_standard_peripheral/Source\gd32vw55x_rtc.c **** 
  37:C:/Users/stapi/OneDrive/Desktop/GD32VW553/GD32VW55X_Wifi_BLE_SDK/GD32VW55x_RELEASE_V1.0.2/MSDK/plf/GD32VW55x_standard_peripheral/Source\gd32vw55x_rtc.c **** /* RTC timeout value */
  38:C:/Users/stapi/OneDrive/Desktop/GD32VW553/GD32VW55X_Wifi_BLE_SDK/GD32VW55x_RELEASE_V1.0.2/MSDK/plf/GD32VW55x_standard_peripheral/Source\gd32vw55x_rtc.c **** #define RTC_WTWF_TIMEOUT                   ((uint32_t)0x00004000U)                    /*!< wakeup t
  39:C:/Users/stapi/OneDrive/Desktop/GD32VW553/GD32VW55X_Wifi_BLE_SDK/GD32VW55x_RELEASE_V1.0.2/MSDK/plf/GD32VW55x_standard_peripheral/Source\gd32vw55x_rtc.c **** #define RTC_INITM_TIMEOUT                  ((uint32_t)0x00008000U)                    /*!< initiali
  40:C:/Users/stapi/OneDrive/Desktop/GD32VW553/GD32VW55X_Wifi_BLE_SDK/GD32VW55x_RELEASE_V1.0.2/MSDK/plf/GD32VW55x_standard_peripheral/Source\gd32vw55x_rtc.c **** #define RTC_RSYNF_TIMEOUT                  ((uint32_t)0x00008000U)                    /*!< register
  41:C:/Users/stapi/OneDrive/Desktop/GD32VW553/GD32VW55X_Wifi_BLE_SDK/GD32VW55x_RELEASE_V1.0.2/MSDK/plf/GD32VW55x_standard_peripheral/Source\gd32vw55x_rtc.c **** #define RTC_HRFC_TIMEOUT                   ((uint32_t)0x20000000U)                    /*!< recalibr
  42:C:/Users/stapi/OneDrive/Desktop/GD32VW553/GD32VW55X_Wifi_BLE_SDK/GD32VW55x_RELEASE_V1.0.2/MSDK/plf/GD32VW55x_standard_peripheral/Source\gd32vw55x_rtc.c **** #define RTC_SHIFTCTL_TIMEOUT               ((uint32_t)0x00001000U)                    /*!< shift fu
  43:C:/Users/stapi/OneDrive/Desktop/GD32VW553/GD32VW55X_Wifi_BLE_SDK/GD32VW55x_RELEASE_V1.0.2/MSDK/plf/GD32VW55x_standard_peripheral/Source\gd32vw55x_rtc.c **** #define RTC_ALRMXWF_TIMEOUT                ((uint32_t)0x00008000U)                    /*!< alarm co
  44:C:/Users/stapi/OneDrive/Desktop/GD32VW553/GD32VW55X_Wifi_BLE_SDK/GD32VW55x_RELEASE_V1.0.2/MSDK/plf/GD32VW55x_standard_peripheral/Source\gd32vw55x_rtc.c **** 
  45:C:/Users/stapi/OneDrive/Desktop/GD32VW553/GD32VW55X_Wifi_BLE_SDK/GD32VW55x_RELEASE_V1.0.2/MSDK/plf/GD32VW55x_standard_peripheral/Source\gd32vw55x_rtc.c **** /*!
  46:C:/Users/stapi/OneDrive/Desktop/GD32VW553/GD32VW55X_Wifi_BLE_SDK/GD32VW55x_RELEASE_V1.0.2/MSDK/plf/GD32VW55x_standard_peripheral/Source\gd32vw55x_rtc.c ****     \brief      reset most of the RTC registers
  47:C:/Users/stapi/OneDrive/Desktop/GD32VW553/GD32VW55X_Wifi_BLE_SDK/GD32VW55x_RELEASE_V1.0.2/MSDK/plf/GD32VW55x_standard_peripheral/Source\gd32vw55x_rtc.c ****     \param[in]  none
  48:C:/Users/stapi/OneDrive/Desktop/GD32VW553/GD32VW55X_Wifi_BLE_SDK/GD32VW55x_RELEASE_V1.0.2/MSDK/plf/GD32VW55x_standard_peripheral/Source\gd32vw55x_rtc.c ****     \param[out] none
  49:C:/Users/stapi/OneDrive/Desktop/GD32VW553/GD32VW55X_Wifi_BLE_SDK/GD32VW55x_RELEASE_V1.0.2/MSDK/plf/GD32VW55x_standard_peripheral/Source\gd32vw55x_rtc.c ****     \retval     ErrStatus: ERROR or SUCCESS
  50:C:/Users/stapi/OneDrive/Desktop/GD32VW553/GD32VW55X_Wifi_BLE_SDK/GD32VW55x_RELEASE_V1.0.2/MSDK/plf/GD32VW55x_standard_peripheral/Source\gd32vw55x_rtc.c **** */
  51:C:/Users/stapi/OneDrive/Desktop/GD32VW553/GD32VW55X_Wifi_BLE_SDK/GD32VW55x_RELEASE_V1.0.2/MSDK/plf/GD32VW55x_standard_peripheral/Source\gd32vw55x_rtc.c **** ErrStatus rtc_deinit(void)
  52:C:/Users/stapi/OneDrive/Desktop/GD32VW553/GD32VW55X_Wifi_BLE_SDK/GD32VW55x_RELEASE_V1.0.2/MSDK/plf/GD32VW55x_standard_peripheral/Source\gd32vw55x_rtc.c **** {
  53:C:/Users/stapi/OneDrive/Desktop/GD32VW553/GD32VW55X_Wifi_BLE_SDK/GD32VW55x_RELEASE_V1.0.2/MSDK/plf/GD32VW55x_standard_peripheral/Source\gd32vw55x_rtc.c ****     /* After Backup domain reset, some of the RTC registers are write-protected: RTC_TIME, RTC_DATE
  54:C:/Users/stapi/OneDrive/Desktop/GD32VW553/GD32VW55X_Wifi_BLE_SDK/GD32VW55x_RELEASE_V1.0.2/MSDK/plf/GD32VW55x_standard_peripheral/Source\gd32vw55x_rtc.c ****      RTC_HRFC, RTC_COSC, RTC_SHIFTCTL, the bit INITM in RTC_ICS and the bits CS, S1H, A1H, REFEN in
  55:C:/Users/stapi/OneDrive/Desktop/GD32VW553/GD32VW55X_Wifi_BLE_SDK/GD32VW55x_RELEASE_V1.0.2/MSDK/plf/GD32VW55x_standard_peripheral/Source\gd32vw55x_rtc.c ****     ErrStatus error_status = ERROR;
  56:C:/Users/stapi/OneDrive/Desktop/GD32VW553/GD32VW55X_Wifi_BLE_SDK/GD32VW55x_RELEASE_V1.0.2/MSDK/plf/GD32VW55x_standard_peripheral/Source\gd32vw55x_rtc.c ****     volatile uint32_t time_index = RTC_WTWF_TIMEOUT;
  57:C:/Users/stapi/OneDrive/Desktop/GD32VW553/GD32VW55X_Wifi_BLE_SDK/GD32VW55x_RELEASE_V1.0.2/MSDK/plf/GD32VW55x_standard_peripheral/Source\gd32vw55x_rtc.c ****     uint32_t flag_status = RESET;
  58:C:/Users/stapi/OneDrive/Desktop/GD32VW553/GD32VW55X_Wifi_BLE_SDK/GD32VW55x_RELEASE_V1.0.2/MSDK/plf/GD32VW55x_standard_peripheral/Source\gd32vw55x_rtc.c ****     /* RTC_TAMP register is not under write protection */
  59:C:/Users/stapi/OneDrive/Desktop/GD32VW553/GD32VW55X_Wifi_BLE_SDK/GD32VW55x_RELEASE_V1.0.2/MSDK/plf/GD32VW55x_standard_peripheral/Source\gd32vw55x_rtc.c ****     RTC_TAMP = RTC_REGISTER_RESET;
  60:C:/Users/stapi/OneDrive/Desktop/GD32VW553/GD32VW55X_Wifi_BLE_SDK/GD32VW55x_RELEASE_V1.0.2/MSDK/plf/GD32VW55x_standard_peripheral/Source\gd32vw55x_rtc.c **** 
  61:C:/Users/stapi/OneDrive/Desktop/GD32VW553/GD32VW55X_Wifi_BLE_SDK/GD32VW55x_RELEASE_V1.0.2/MSDK/plf/GD32VW55x_standard_peripheral/Source\gd32vw55x_rtc.c ****     /* rtc alarmx related registers are not under the protection of RTC_WPK, different from former 
  62:C:/Users/stapi/OneDrive/Desktop/GD32VW553/GD32VW55X_Wifi_BLE_SDK/GD32VW55x_RELEASE_V1.0.2/MSDK/plf/GD32VW55x_standard_peripheral/Source\gd32vw55x_rtc.c ****     RTC_CTL &= ((uint32_t)~(RTC_CTL_ALRM0EN | RTC_CTL_ALRM1EN));
  63:C:/Users/stapi/OneDrive/Desktop/GD32VW553/GD32VW55X_Wifi_BLE_SDK/GD32VW55x_RELEASE_V1.0.2/MSDK/plf/GD32VW55x_standard_peripheral/Source\gd32vw55x_rtc.c ****     /* to write RTC_ALRMxTD and RTC_ALRMxSS register, 1  ALRMxEN bit in RTC_CTL register should be 
  64:C:/Users/stapi/OneDrive/Desktop/GD32VW553/GD32VW55X_Wifi_BLE_SDK/GD32VW55x_RELEASE_V1.0.2/MSDK/plf/GD32VW55x_standard_peripheral/Source\gd32vw55x_rtc.c ****       2 or in INIT mode */
  65:C:/Users/stapi/OneDrive/Desktop/GD32VW553/GD32VW55X_Wifi_BLE_SDK/GD32VW55x_RELEASE_V1.0.2/MSDK/plf/GD32VW55x_standard_peripheral/Source\gd32vw55x_rtc.c ****     RTC_ALRM0TD = RTC_REGISTER_RESET;
  66:C:/Users/stapi/OneDrive/Desktop/GD32VW553/GD32VW55X_Wifi_BLE_SDK/GD32VW55x_RELEASE_V1.0.2/MSDK/plf/GD32VW55x_standard_peripheral/Source\gd32vw55x_rtc.c ****     RTC_ALRM1TD = RTC_REGISTER_RESET;
  67:C:/Users/stapi/OneDrive/Desktop/GD32VW553/GD32VW55X_Wifi_BLE_SDK/GD32VW55x_RELEASE_V1.0.2/MSDK/plf/GD32VW55x_standard_peripheral/Source\gd32vw55x_rtc.c ****     RTC_ALRM0SS = RTC_REGISTER_RESET;
  68:C:/Users/stapi/OneDrive/Desktop/GD32VW553/GD32VW55X_Wifi_BLE_SDK/GD32VW55x_RELEASE_V1.0.2/MSDK/plf/GD32VW55x_standard_peripheral/Source\gd32vw55x_rtc.c ****     RTC_ALRM1SS = RTC_REGISTER_RESET;
  69:C:/Users/stapi/OneDrive/Desktop/GD32VW553/GD32VW55X_Wifi_BLE_SDK/GD32VW55x_RELEASE_V1.0.2/MSDK/plf/GD32VW55x_standard_peripheral/Source\gd32vw55x_rtc.c **** 
  70:C:/Users/stapi/OneDrive/Desktop/GD32VW553/GD32VW55X_Wifi_BLE_SDK/GD32VW55x_RELEASE_V1.0.2/MSDK/plf/GD32VW55x_standard_peripheral/Source\gd32vw55x_rtc.c ****     /* 1 only when RTC_CTL_WTEN=0 and RTC_ICS_WTWF=1 can write RTC_CTL[2:0]
  71:C:/Users/stapi/OneDrive/Desktop/GD32VW553/GD32VW55X_Wifi_BLE_SDK/GD32VW55x_RELEASE_V1.0.2/MSDK/plf/GD32VW55x_standard_peripheral/Source\gd32vw55x_rtc.c ****        2 or configure the wakeup timer in INIT mode*/
  72:C:/Users/stapi/OneDrive/Desktop/GD32VW553/GD32VW55X_Wifi_BLE_SDK/GD32VW55x_RELEASE_V1.0.2/MSDK/plf/GD32VW55x_standard_peripheral/Source\gd32vw55x_rtc.c ****     RTC_CTL &= ((uint32_t)~RTC_CTL_WTEN);
  73:C:/Users/stapi/OneDrive/Desktop/GD32VW553/GD32VW55X_Wifi_BLE_SDK/GD32VW55x_RELEASE_V1.0.2/MSDK/plf/GD32VW55x_standard_peripheral/Source\gd32vw55x_rtc.c ****     /* wait until the WTWF flag to be set */
  74:C:/Users/stapi/OneDrive/Desktop/GD32VW553/GD32VW55X_Wifi_BLE_SDK/GD32VW55x_RELEASE_V1.0.2/MSDK/plf/GD32VW55x_standard_peripheral/Source\gd32vw55x_rtc.c ****     do {
  75:C:/Users/stapi/OneDrive/Desktop/GD32VW553/GD32VW55X_Wifi_BLE_SDK/GD32VW55x_RELEASE_V1.0.2/MSDK/plf/GD32VW55x_standard_peripheral/Source\gd32vw55x_rtc.c ****         flag_status = RTC_STAT & RTC_STAT_WTWF;
  76:C:/Users/stapi/OneDrive/Desktop/GD32VW553/GD32VW55X_Wifi_BLE_SDK/GD32VW55x_RELEASE_V1.0.2/MSDK/plf/GD32VW55x_standard_peripheral/Source\gd32vw55x_rtc.c ****     } while((--time_index > 0U) && ((uint32_t)RESET == flag_status));
  77:C:/Users/stapi/OneDrive/Desktop/GD32VW553/GD32VW55X_Wifi_BLE_SDK/GD32VW55x_RELEASE_V1.0.2/MSDK/plf/GD32VW55x_standard_peripheral/Source\gd32vw55x_rtc.c **** 
  78:C:/Users/stapi/OneDrive/Desktop/GD32VW553/GD32VW55X_Wifi_BLE_SDK/GD32VW55x_RELEASE_V1.0.2/MSDK/plf/GD32VW55x_standard_peripheral/Source\gd32vw55x_rtc.c ****     if((uint32_t)RESET == flag_status) {
  79:C:/Users/stapi/OneDrive/Desktop/GD32VW553/GD32VW55X_Wifi_BLE_SDK/GD32VW55x_RELEASE_V1.0.2/MSDK/plf/GD32VW55x_standard_peripheral/Source\gd32vw55x_rtc.c ****         error_status = ERROR;
  80:C:/Users/stapi/OneDrive/Desktop/GD32VW553/GD32VW55X_Wifi_BLE_SDK/GD32VW55x_RELEASE_V1.0.2/MSDK/plf/GD32VW55x_standard_peripheral/Source\gd32vw55x_rtc.c ****     } else {
  81:C:/Users/stapi/OneDrive/Desktop/GD32VW553/GD32VW55X_Wifi_BLE_SDK/GD32VW55x_RELEASE_V1.0.2/MSDK/plf/GD32VW55x_standard_peripheral/Source\gd32vw55x_rtc.c ****         RTC_CTL &= ((uint32_t)~RTC_CTL_WTCS);
  82:C:/Users/stapi/OneDrive/Desktop/GD32VW553/GD32VW55X_Wifi_BLE_SDK/GD32VW55x_RELEASE_V1.0.2/MSDK/plf/GD32VW55x_standard_peripheral/Source\gd32vw55x_rtc.c ****         RTC_WUT = RTC_WUT_RESET;
  83:C:/Users/stapi/OneDrive/Desktop/GD32VW553/GD32VW55X_Wifi_BLE_SDK/GD32VW55x_RELEASE_V1.0.2/MSDK/plf/GD32VW55x_standard_peripheral/Source\gd32vw55x_rtc.c **** 
  84:C:/Users/stapi/OneDrive/Desktop/GD32VW553/GD32VW55X_Wifi_BLE_SDK/GD32VW55x_RELEASE_V1.0.2/MSDK/plf/GD32VW55x_standard_peripheral/Source\gd32vw55x_rtc.c ****         /* disable the write protection */
  85:C:/Users/stapi/OneDrive/Desktop/GD32VW553/GD32VW55X_Wifi_BLE_SDK/GD32VW55x_RELEASE_V1.0.2/MSDK/plf/GD32VW55x_standard_peripheral/Source\gd32vw55x_rtc.c ****         RTC_WPK = RTC_UNLOCK_KEY1;
  86:C:/Users/stapi/OneDrive/Desktop/GD32VW553/GD32VW55X_Wifi_BLE_SDK/GD32VW55x_RELEASE_V1.0.2/MSDK/plf/GD32VW55x_standard_peripheral/Source\gd32vw55x_rtc.c ****         RTC_WPK = RTC_UNLOCK_KEY2;
  87:C:/Users/stapi/OneDrive/Desktop/GD32VW553/GD32VW55X_Wifi_BLE_SDK/GD32VW55x_RELEASE_V1.0.2/MSDK/plf/GD32VW55x_standard_peripheral/Source\gd32vw55x_rtc.c **** 
  88:C:/Users/stapi/OneDrive/Desktop/GD32VW553/GD32VW55X_Wifi_BLE_SDK/GD32VW55x_RELEASE_V1.0.2/MSDK/plf/GD32VW55x_standard_peripheral/Source\gd32vw55x_rtc.c ****         /* enter init mode */
  89:C:/Users/stapi/OneDrive/Desktop/GD32VW553/GD32VW55X_Wifi_BLE_SDK/GD32VW55x_RELEASE_V1.0.2/MSDK/plf/GD32VW55x_standard_peripheral/Source\gd32vw55x_rtc.c ****         error_status = rtc_init_mode_enter();
  90:C:/Users/stapi/OneDrive/Desktop/GD32VW553/GD32VW55X_Wifi_BLE_SDK/GD32VW55x_RELEASE_V1.0.2/MSDK/plf/GD32VW55x_standard_peripheral/Source\gd32vw55x_rtc.c ****         /* RTC_TIME, RTC_DATE, RTC_PSC registers, plus INITM in RTC_ICS, plus CS control bits in RT
  91:C:/Users/stapi/OneDrive/Desktop/GD32VW553/GD32VW55X_Wifi_BLE_SDK/GD32VW55x_RELEASE_V1.0.2/MSDK/plf/GD32VW55x_standard_peripheral/Source\gd32vw55x_rtc.c ****         RTC_CTL = RTC_REGISTER_RESET;
  92:C:/Users/stapi/OneDrive/Desktop/GD32VW553/GD32VW55X_Wifi_BLE_SDK/GD32VW55x_RELEASE_V1.0.2/MSDK/plf/GD32VW55x_standard_peripheral/Source\gd32vw55x_rtc.c **** 
  93:C:/Users/stapi/OneDrive/Desktop/GD32VW553/GD32VW55X_Wifi_BLE_SDK/GD32VW55x_RELEASE_V1.0.2/MSDK/plf/GD32VW55x_standard_peripheral/Source\gd32vw55x_rtc.c ****         /* before reset RTC_TIME and RTC_DATE, BPSHAD bit in RTC_CTL should be reset as the conditi
  94:C:/Users/stapi/OneDrive/Desktop/GD32VW553/GD32VW55X_Wifi_BLE_SDK/GD32VW55x_RELEASE_V1.0.2/MSDK/plf/GD32VW55x_standard_peripheral/Source\gd32vw55x_rtc.c ****            in order to read calendar from shadow register, not the real registers being reset */
  95:C:/Users/stapi/OneDrive/Desktop/GD32VW553/GD32VW55X_Wifi_BLE_SDK/GD32VW55x_RELEASE_V1.0.2/MSDK/plf/GD32VW55x_standard_peripheral/Source\gd32vw55x_rtc.c ****         RTC_TIME = RTC_REGISTER_RESET;
  96:C:/Users/stapi/OneDrive/Desktop/GD32VW553/GD32VW55X_Wifi_BLE_SDK/GD32VW55x_RELEASE_V1.0.2/MSDK/plf/GD32VW55x_standard_peripheral/Source\gd32vw55x_rtc.c ****         RTC_DATE = RTC_DATE_RESET;
  97:C:/Users/stapi/OneDrive/Desktop/GD32VW553/GD32VW55X_Wifi_BLE_SDK/GD32VW55x_RELEASE_V1.0.2/MSDK/plf/GD32VW55x_standard_peripheral/Source\gd32vw55x_rtc.c ****         RTC_PSC = RTC_PSC_RESET;
  98:C:/Users/stapi/OneDrive/Desktop/GD32VW553/GD32VW55X_Wifi_BLE_SDK/GD32VW55x_RELEASE_V1.0.2/MSDK/plf/GD32VW55x_standard_peripheral/Source\gd32vw55x_rtc.c ****         /* write protected and can only be written in initialization state */
  99:C:/Users/stapi/OneDrive/Desktop/GD32VW553/GD32VW55X_Wifi_BLE_SDK/GD32VW55x_RELEASE_V1.0.2/MSDK/plf/GD32VW55x_standard_peripheral/Source\gd32vw55x_rtc.c ****         RTC_COSC = RTC_REGISTER_RESET;
 100:C:/Users/stapi/OneDrive/Desktop/GD32VW553/GD32VW55X_Wifi_BLE_SDK/GD32VW55x_RELEASE_V1.0.2/MSDK/plf/GD32VW55x_standard_peripheral/Source\gd32vw55x_rtc.c ****         /* reset RTC_ICS register, also exit init mode.
 101:C:/Users/stapi/OneDrive/Desktop/GD32VW553/GD32VW55X_Wifi_BLE_SDK/GD32VW55x_RELEASE_V1.0.2/MSDK/plf/GD32VW55x_standard_peripheral/Source\gd32vw55x_rtc.c ****            at the same time, RTC_ICS_SOPF bit is reset, as the condition to reset RTC_SHIFTCTL regi
 102:C:/Users/stapi/OneDrive/Desktop/GD32VW553/GD32VW55X_Wifi_BLE_SDK/GD32VW55x_RELEASE_V1.0.2/MSDK/plf/GD32VW55x_standard_peripheral/Source\gd32vw55x_rtc.c ****         RTC_STAT = RTC_STAT_RESET;
 103:C:/Users/stapi/OneDrive/Desktop/GD32VW553/GD32VW55X_Wifi_BLE_SDK/GD32VW55x_RELEASE_V1.0.2/MSDK/plf/GD32VW55x_standard_peripheral/Source\gd32vw55x_rtc.c ****         /* reset RTC_SHIFTCTL and RTC_HRFC register, and the bits S1H, A1H, REFEN in RTC_CTL, these
 104:C:/Users/stapi/OneDrive/Desktop/GD32VW553/GD32VW55X_Wifi_BLE_SDK/GD32VW55x_RELEASE_V1.0.2/MSDK/plf/GD32VW55x_standard_peripheral/Source\gd32vw55x_rtc.c ****         RTC_SHIFTCTL = RTC_REGISTER_RESET;
 105:C:/Users/stapi/OneDrive/Desktop/GD32VW553/GD32VW55X_Wifi_BLE_SDK/GD32VW55x_RELEASE_V1.0.2/MSDK/plf/GD32VW55x_standard_peripheral/Source\gd32vw55x_rtc.c ****         RTC_HRFC = RTC_REGISTER_RESET;
 106:C:/Users/stapi/OneDrive/Desktop/GD32VW553/GD32VW55X_Wifi_BLE_SDK/GD32VW55x_RELEASE_V1.0.2/MSDK/plf/GD32VW55x_standard_peripheral/Source\gd32vw55x_rtc.c **** 
 107:C:/Users/stapi/OneDrive/Desktop/GD32VW553/GD32VW55X_Wifi_BLE_SDK/GD32VW55x_RELEASE_V1.0.2/MSDK/plf/GD32VW55x_standard_peripheral/Source\gd32vw55x_rtc.c ****         error_status = rtc_register_sync_wait();
 108:C:/Users/stapi/OneDrive/Desktop/GD32VW553/GD32VW55X_Wifi_BLE_SDK/GD32VW55x_RELEASE_V1.0.2/MSDK/plf/GD32VW55x_standard_peripheral/Source\gd32vw55x_rtc.c **** 
 109:C:/Users/stapi/OneDrive/Desktop/GD32VW553/GD32VW55X_Wifi_BLE_SDK/GD32VW55x_RELEASE_V1.0.2/MSDK/plf/GD32VW55x_standard_peripheral/Source\gd32vw55x_rtc.c ****         /* enable the write protection */
 110:C:/Users/stapi/OneDrive/Desktop/GD32VW553/GD32VW55X_Wifi_BLE_SDK/GD32VW55x_RELEASE_V1.0.2/MSDK/plf/GD32VW55x_standard_peripheral/Source\gd32vw55x_rtc.c ****         RTC_WPK = RTC_LOCK_KEY;
 111:C:/Users/stapi/OneDrive/Desktop/GD32VW553/GD32VW55X_Wifi_BLE_SDK/GD32VW55x_RELEASE_V1.0.2/MSDK/plf/GD32VW55x_standard_peripheral/Source\gd32vw55x_rtc.c **** 
 112:C:/Users/stapi/OneDrive/Desktop/GD32VW553/GD32VW55X_Wifi_BLE_SDK/GD32VW55x_RELEASE_V1.0.2/MSDK/plf/GD32VW55x_standard_peripheral/Source\gd32vw55x_rtc.c ****     }
 113:C:/Users/stapi/OneDrive/Desktop/GD32VW553/GD32VW55X_Wifi_BLE_SDK/GD32VW55x_RELEASE_V1.0.2/MSDK/plf/GD32VW55x_standard_peripheral/Source\gd32vw55x_rtc.c ****     return error_status;
 114:C:/Users/stapi/OneDrive/Desktop/GD32VW553/GD32VW55X_Wifi_BLE_SDK/GD32VW55x_RELEASE_V1.0.2/MSDK/plf/GD32VW55x_standard_peripheral/Source\gd32vw55x_rtc.c **** }
 115:C:/Users/stapi/OneDrive/Desktop/GD32VW553/GD32VW55X_Wifi_BLE_SDK/GD32VW55x_RELEASE_V1.0.2/MSDK/plf/GD32VW55x_standard_peripheral/Source\gd32vw55x_rtc.c **** 
 116:C:/Users/stapi/OneDrive/Desktop/GD32VW553/GD32VW55X_Wifi_BLE_SDK/GD32VW55x_RELEASE_V1.0.2/MSDK/plf/GD32VW55x_standard_peripheral/Source\gd32vw55x_rtc.c **** /*!
 117:C:/Users/stapi/OneDrive/Desktop/GD32VW553/GD32VW55X_Wifi_BLE_SDK/GD32VW55x_RELEASE_V1.0.2/MSDK/plf/GD32VW55x_standard_peripheral/Source\gd32vw55x_rtc.c ****     \brief      initialize RTC registers
 118:C:/Users/stapi/OneDrive/Desktop/GD32VW553/GD32VW55X_Wifi_BLE_SDK/GD32VW55x_RELEASE_V1.0.2/MSDK/plf/GD32VW55x_standard_peripheral/Source\gd32vw55x_rtc.c ****     \param[in]  rtc_initpara_struct: pointer to a rtc_parameter_struct structure which contains
 119:C:/Users/stapi/OneDrive/Desktop/GD32VW553/GD32VW55X_Wifi_BLE_SDK/GD32VW55x_RELEASE_V1.0.2/MSDK/plf/GD32VW55x_standard_peripheral/Source\gd32vw55x_rtc.c ****                 parameters for initialization of the rtc peripheral
 120:C:/Users/stapi/OneDrive/Desktop/GD32VW553/GD32VW55X_Wifi_BLE_SDK/GD32VW55x_RELEASE_V1.0.2/MSDK/plf/GD32VW55x_standard_peripheral/Source\gd32vw55x_rtc.c ****                 members of the structure and the member values are shown as below:
 121:C:/Users/stapi/OneDrive/Desktop/GD32VW553/GD32VW55X_Wifi_BLE_SDK/GD32VW55x_RELEASE_V1.0.2/MSDK/plf/GD32VW55x_standard_peripheral/Source\gd32vw55x_rtc.c ****                   year: 0x0 - 0x99(BCD format)
 122:C:/Users/stapi/OneDrive/Desktop/GD32VW553/GD32VW55X_Wifi_BLE_SDK/GD32VW55x_RELEASE_V1.0.2/MSDK/plf/GD32VW55x_standard_peripheral/Source\gd32vw55x_rtc.c ****                   month: RTC_JAN, RTC_FEB, RTC_MAR, RTC_APR, RTC_MAY, RTC_JUN,
 123:C:/Users/stapi/OneDrive/Desktop/GD32VW553/GD32VW55X_Wifi_BLE_SDK/GD32VW55x_RELEASE_V1.0.2/MSDK/plf/GD32VW55x_standard_peripheral/Source\gd32vw55x_rtc.c ****                              RTC_JUL, RTC_AUG, RTC_SEP, RTC_OCT, RTC_NOV, RTC_DEC
 124:C:/Users/stapi/OneDrive/Desktop/GD32VW553/GD32VW55X_Wifi_BLE_SDK/GD32VW55x_RELEASE_V1.0.2/MSDK/plf/GD32VW55x_standard_peripheral/Source\gd32vw55x_rtc.c ****                   date: 0x1 - 0x31(BCD format)
 125:C:/Users/stapi/OneDrive/Desktop/GD32VW553/GD32VW55X_Wifi_BLE_SDK/GD32VW55x_RELEASE_V1.0.2/MSDK/plf/GD32VW55x_standard_peripheral/Source\gd32vw55x_rtc.c ****                   day_of_week: RTC_MONDAY, RTC_TUESDAY, RTC_WEDNESDAY, RTC_THURSDAY
 126:C:/Users/stapi/OneDrive/Desktop/GD32VW553/GD32VW55X_Wifi_BLE_SDK/GD32VW55x_RELEASE_V1.0.2/MSDK/plf/GD32VW55x_standard_peripheral/Source\gd32vw55x_rtc.c ****                                    RTC_FRIDAY, RTC_SATURDAY, RTC_SUNDAY
 127:C:/Users/stapi/OneDrive/Desktop/GD32VW553/GD32VW55X_Wifi_BLE_SDK/GD32VW55x_RELEASE_V1.0.2/MSDK/plf/GD32VW55x_standard_peripheral/Source\gd32vw55x_rtc.c ****                   hour: 0x0 - 0x12(BCD format) or 0x0 - 0x23(BCD format) depending on the rtc displ
 128:C:/Users/stapi/OneDrive/Desktop/GD32VW553/GD32VW55X_Wifi_BLE_SDK/GD32VW55x_RELEASE_V1.0.2/MSDK/plf/GD32VW55x_standard_peripheral/Source\gd32vw55x_rtc.c ****                   minute: 0x0 - 0x59(BCD format)
 129:C:/Users/stapi/OneDrive/Desktop/GD32VW553/GD32VW55X_Wifi_BLE_SDK/GD32VW55x_RELEASE_V1.0.2/MSDK/plf/GD32VW55x_standard_peripheral/Source\gd32vw55x_rtc.c ****                   second: 0x0 - 0x59(BCD format)
 130:C:/Users/stapi/OneDrive/Desktop/GD32VW553/GD32VW55X_Wifi_BLE_SDK/GD32VW55x_RELEASE_V1.0.2/MSDK/plf/GD32VW55x_standard_peripheral/Source\gd32vw55x_rtc.c ****                   factor_asyn: 0x0 - 0x7F
 131:C:/Users/stapi/OneDrive/Desktop/GD32VW553/GD32VW55X_Wifi_BLE_SDK/GD32VW55x_RELEASE_V1.0.2/MSDK/plf/GD32VW55x_standard_peripheral/Source\gd32vw55x_rtc.c ****                   factor_syn: 0x0 - 0x7FFF
 132:C:/Users/stapi/OneDrive/Desktop/GD32VW553/GD32VW55X_Wifi_BLE_SDK/GD32VW55x_RELEASE_V1.0.2/MSDK/plf/GD32VW55x_standard_peripheral/Source\gd32vw55x_rtc.c ****                   am_pm: RTC_AM, RTC_PM
 133:C:/Users/stapi/OneDrive/Desktop/GD32VW553/GD32VW55X_Wifi_BLE_SDK/GD32VW55x_RELEASE_V1.0.2/MSDK/plf/GD32VW55x_standard_peripheral/Source\gd32vw55x_rtc.c ****                   display_format: RTC_24HOUR, RTC_12HOUR
 134:C:/Users/stapi/OneDrive/Desktop/GD32VW553/GD32VW55X_Wifi_BLE_SDK/GD32VW55x_RELEASE_V1.0.2/MSDK/plf/GD32VW55x_standard_peripheral/Source\gd32vw55x_rtc.c ****     \param[out] none
 135:C:/Users/stapi/OneDrive/Desktop/GD32VW553/GD32VW55X_Wifi_BLE_SDK/GD32VW55x_RELEASE_V1.0.2/MSDK/plf/GD32VW55x_standard_peripheral/Source\gd32vw55x_rtc.c ****     \retval     ErrStatus: ERROR or SUCCESS
 136:C:/Users/stapi/OneDrive/Desktop/GD32VW553/GD32VW55X_Wifi_BLE_SDK/GD32VW55x_RELEASE_V1.0.2/MSDK/plf/GD32VW55x_standard_peripheral/Source\gd32vw55x_rtc.c **** */
 137:C:/Users/stapi/OneDrive/Desktop/GD32VW553/GD32VW55X_Wifi_BLE_SDK/GD32VW55x_RELEASE_V1.0.2/MSDK/plf/GD32VW55x_standard_peripheral/Source\gd32vw55x_rtc.c **** ErrStatus rtc_init(rtc_parameter_struct *rtc_initpara_struct)
 138:C:/Users/stapi/OneDrive/Desktop/GD32VW553/GD32VW55X_Wifi_BLE_SDK/GD32VW55x_RELEASE_V1.0.2/MSDK/plf/GD32VW55x_standard_peripheral/Source\gd32vw55x_rtc.c **** {
 139:C:/Users/stapi/OneDrive/Desktop/GD32VW553/GD32VW55X_Wifi_BLE_SDK/GD32VW55x_RELEASE_V1.0.2/MSDK/plf/GD32VW55x_standard_peripheral/Source\gd32vw55x_rtc.c ****     ErrStatus error_status = ERROR;
 140:C:/Users/stapi/OneDrive/Desktop/GD32VW553/GD32VW55X_Wifi_BLE_SDK/GD32VW55x_RELEASE_V1.0.2/MSDK/plf/GD32VW55x_standard_peripheral/Source\gd32vw55x_rtc.c ****     uint32_t reg_time = 0U, reg_date = 0U;
 141:C:/Users/stapi/OneDrive/Desktop/GD32VW553/GD32VW55X_Wifi_BLE_SDK/GD32VW55x_RELEASE_V1.0.2/MSDK/plf/GD32VW55x_standard_peripheral/Source\gd32vw55x_rtc.c **** 
 142:C:/Users/stapi/OneDrive/Desktop/GD32VW553/GD32VW55X_Wifi_BLE_SDK/GD32VW55x_RELEASE_V1.0.2/MSDK/plf/GD32VW55x_standard_peripheral/Source\gd32vw55x_rtc.c ****     reg_date = (DATE_YR(rtc_initpara_struct->year) | \
 143:C:/Users/stapi/OneDrive/Desktop/GD32VW553/GD32VW55X_Wifi_BLE_SDK/GD32VW55x_RELEASE_V1.0.2/MSDK/plf/GD32VW55x_standard_peripheral/Source\gd32vw55x_rtc.c ****                 DATE_DOW(rtc_initpara_struct->day_of_week) | \
 144:C:/Users/stapi/OneDrive/Desktop/GD32VW553/GD32VW55X_Wifi_BLE_SDK/GD32VW55x_RELEASE_V1.0.2/MSDK/plf/GD32VW55x_standard_peripheral/Source\gd32vw55x_rtc.c ****                 DATE_MON(rtc_initpara_struct->month) | \
 145:C:/Users/stapi/OneDrive/Desktop/GD32VW553/GD32VW55X_Wifi_BLE_SDK/GD32VW55x_RELEASE_V1.0.2/MSDK/plf/GD32VW55x_standard_peripheral/Source\gd32vw55x_rtc.c ****                 DATE_DAY(rtc_initpara_struct->date));
 146:C:/Users/stapi/OneDrive/Desktop/GD32VW553/GD32VW55X_Wifi_BLE_SDK/GD32VW55x_RELEASE_V1.0.2/MSDK/plf/GD32VW55x_standard_peripheral/Source\gd32vw55x_rtc.c **** 
 147:C:/Users/stapi/OneDrive/Desktop/GD32VW553/GD32VW55X_Wifi_BLE_SDK/GD32VW55x_RELEASE_V1.0.2/MSDK/plf/GD32VW55x_standard_peripheral/Source\gd32vw55x_rtc.c ****     reg_time = (rtc_initpara_struct->am_pm | \
 148:C:/Users/stapi/OneDrive/Desktop/GD32VW553/GD32VW55X_Wifi_BLE_SDK/GD32VW55x_RELEASE_V1.0.2/MSDK/plf/GD32VW55x_standard_peripheral/Source\gd32vw55x_rtc.c ****                 TIME_HR(rtc_initpara_struct->hour)  | \
 149:C:/Users/stapi/OneDrive/Desktop/GD32VW553/GD32VW55X_Wifi_BLE_SDK/GD32VW55x_RELEASE_V1.0.2/MSDK/plf/GD32VW55x_standard_peripheral/Source\gd32vw55x_rtc.c ****                 TIME_MN(rtc_initpara_struct->minute) | \
 150:C:/Users/stapi/OneDrive/Desktop/GD32VW553/GD32VW55X_Wifi_BLE_SDK/GD32VW55x_RELEASE_V1.0.2/MSDK/plf/GD32VW55x_standard_peripheral/Source\gd32vw55x_rtc.c ****                 TIME_SC(rtc_initpara_struct->second));
 151:C:/Users/stapi/OneDrive/Desktop/GD32VW553/GD32VW55X_Wifi_BLE_SDK/GD32VW55x_RELEASE_V1.0.2/MSDK/plf/GD32VW55x_standard_peripheral/Source\gd32vw55x_rtc.c **** 
 152:C:/Users/stapi/OneDrive/Desktop/GD32VW553/GD32VW55X_Wifi_BLE_SDK/GD32VW55x_RELEASE_V1.0.2/MSDK/plf/GD32VW55x_standard_peripheral/Source\gd32vw55x_rtc.c ****     /* 1st: disable the write protection */
 153:C:/Users/stapi/OneDrive/Desktop/GD32VW553/GD32VW55X_Wifi_BLE_SDK/GD32VW55x_RELEASE_V1.0.2/MSDK/plf/GD32VW55x_standard_peripheral/Source\gd32vw55x_rtc.c ****     RTC_WPK = RTC_UNLOCK_KEY1;
 154:C:/Users/stapi/OneDrive/Desktop/GD32VW553/GD32VW55X_Wifi_BLE_SDK/GD32VW55x_RELEASE_V1.0.2/MSDK/plf/GD32VW55x_standard_peripheral/Source\gd32vw55x_rtc.c ****     RTC_WPK = RTC_UNLOCK_KEY2;
 155:C:/Users/stapi/OneDrive/Desktop/GD32VW553/GD32VW55X_Wifi_BLE_SDK/GD32VW55x_RELEASE_V1.0.2/MSDK/plf/GD32VW55x_standard_peripheral/Source\gd32vw55x_rtc.c **** 
 156:C:/Users/stapi/OneDrive/Desktop/GD32VW553/GD32VW55X_Wifi_BLE_SDK/GD32VW55x_RELEASE_V1.0.2/MSDK/plf/GD32VW55x_standard_peripheral/Source\gd32vw55x_rtc.c ****     /* 2nd: enter init mode */
 157:C:/Users/stapi/OneDrive/Desktop/GD32VW553/GD32VW55X_Wifi_BLE_SDK/GD32VW55x_RELEASE_V1.0.2/MSDK/plf/GD32VW55x_standard_peripheral/Source\gd32vw55x_rtc.c ****     error_status = rtc_init_mode_enter();
 158:C:/Users/stapi/OneDrive/Desktop/GD32VW553/GD32VW55X_Wifi_BLE_SDK/GD32VW55x_RELEASE_V1.0.2/MSDK/plf/GD32VW55x_standard_peripheral/Source\gd32vw55x_rtc.c **** 
 159:C:/Users/stapi/OneDrive/Desktop/GD32VW553/GD32VW55X_Wifi_BLE_SDK/GD32VW55x_RELEASE_V1.0.2/MSDK/plf/GD32VW55x_standard_peripheral/Source\gd32vw55x_rtc.c ****     if(ERROR != error_status) {
 160:C:/Users/stapi/OneDrive/Desktop/GD32VW553/GD32VW55X_Wifi_BLE_SDK/GD32VW55x_RELEASE_V1.0.2/MSDK/plf/GD32VW55x_standard_peripheral/Source\gd32vw55x_rtc.c ****         RTC_PSC = (uint32_t)(PSC_FACTOR_A(rtc_initpara_struct->factor_asyn) | \
 161:C:/Users/stapi/OneDrive/Desktop/GD32VW553/GD32VW55X_Wifi_BLE_SDK/GD32VW55x_RELEASE_V1.0.2/MSDK/plf/GD32VW55x_standard_peripheral/Source\gd32vw55x_rtc.c ****                              PSC_FACTOR_S(rtc_initpara_struct->factor_syn));
 162:C:/Users/stapi/OneDrive/Desktop/GD32VW553/GD32VW55X_Wifi_BLE_SDK/GD32VW55x_RELEASE_V1.0.2/MSDK/plf/GD32VW55x_standard_peripheral/Source\gd32vw55x_rtc.c **** 
 163:C:/Users/stapi/OneDrive/Desktop/GD32VW553/GD32VW55X_Wifi_BLE_SDK/GD32VW55x_RELEASE_V1.0.2/MSDK/plf/GD32VW55x_standard_peripheral/Source\gd32vw55x_rtc.c ****         RTC_TIME = (uint32_t)reg_time;
 164:C:/Users/stapi/OneDrive/Desktop/GD32VW553/GD32VW55X_Wifi_BLE_SDK/GD32VW55x_RELEASE_V1.0.2/MSDK/plf/GD32VW55x_standard_peripheral/Source\gd32vw55x_rtc.c ****         RTC_DATE = (uint32_t)reg_date;
 165:C:/Users/stapi/OneDrive/Desktop/GD32VW553/GD32VW55X_Wifi_BLE_SDK/GD32VW55x_RELEASE_V1.0.2/MSDK/plf/GD32VW55x_standard_peripheral/Source\gd32vw55x_rtc.c **** 
 166:C:/Users/stapi/OneDrive/Desktop/GD32VW553/GD32VW55X_Wifi_BLE_SDK/GD32VW55x_RELEASE_V1.0.2/MSDK/plf/GD32VW55x_standard_peripheral/Source\gd32vw55x_rtc.c ****         RTC_CTL &= (uint32_t)(~RTC_CTL_CS);
 167:C:/Users/stapi/OneDrive/Desktop/GD32VW553/GD32VW55X_Wifi_BLE_SDK/GD32VW55x_RELEASE_V1.0.2/MSDK/plf/GD32VW55x_standard_peripheral/Source\gd32vw55x_rtc.c ****         RTC_CTL |=  rtc_initpara_struct->display_format;
 168:C:/Users/stapi/OneDrive/Desktop/GD32VW553/GD32VW55X_Wifi_BLE_SDK/GD32VW55x_RELEASE_V1.0.2/MSDK/plf/GD32VW55x_standard_peripheral/Source\gd32vw55x_rtc.c **** 
 169:C:/Users/stapi/OneDrive/Desktop/GD32VW553/GD32VW55X_Wifi_BLE_SDK/GD32VW55x_RELEASE_V1.0.2/MSDK/plf/GD32VW55x_standard_peripheral/Source\gd32vw55x_rtc.c ****         /* 3rd: exit init mode */
 170:C:/Users/stapi/OneDrive/Desktop/GD32VW553/GD32VW55X_Wifi_BLE_SDK/GD32VW55x_RELEASE_V1.0.2/MSDK/plf/GD32VW55x_standard_peripheral/Source\gd32vw55x_rtc.c ****         rtc_init_mode_exit();
 171:C:/Users/stapi/OneDrive/Desktop/GD32VW553/GD32VW55X_Wifi_BLE_SDK/GD32VW55x_RELEASE_V1.0.2/MSDK/plf/GD32VW55x_standard_peripheral/Source\gd32vw55x_rtc.c **** 
 172:C:/Users/stapi/OneDrive/Desktop/GD32VW553/GD32VW55X_Wifi_BLE_SDK/GD32VW55x_RELEASE_V1.0.2/MSDK/plf/GD32VW55x_standard_peripheral/Source\gd32vw55x_rtc.c ****         /* 4th: wait the RSYNF flag to set */
 173:C:/Users/stapi/OneDrive/Desktop/GD32VW553/GD32VW55X_Wifi_BLE_SDK/GD32VW55x_RELEASE_V1.0.2/MSDK/plf/GD32VW55x_standard_peripheral/Source\gd32vw55x_rtc.c ****         error_status = rtc_register_sync_wait();
 174:C:/Users/stapi/OneDrive/Desktop/GD32VW553/GD32VW55X_Wifi_BLE_SDK/GD32VW55x_RELEASE_V1.0.2/MSDK/plf/GD32VW55x_standard_peripheral/Source\gd32vw55x_rtc.c ****     }
 175:C:/Users/stapi/OneDrive/Desktop/GD32VW553/GD32VW55X_Wifi_BLE_SDK/GD32VW55x_RELEASE_V1.0.2/MSDK/plf/GD32VW55x_standard_peripheral/Source\gd32vw55x_rtc.c **** 
 176:C:/Users/stapi/OneDrive/Desktop/GD32VW553/GD32VW55X_Wifi_BLE_SDK/GD32VW55x_RELEASE_V1.0.2/MSDK/plf/GD32VW55x_standard_peripheral/Source\gd32vw55x_rtc.c ****     /* 5th:  enable the write protection */
 177:C:/Users/stapi/OneDrive/Desktop/GD32VW553/GD32VW55X_Wifi_BLE_SDK/GD32VW55x_RELEASE_V1.0.2/MSDK/plf/GD32VW55x_standard_peripheral/Source\gd32vw55x_rtc.c ****     RTC_WPK = RTC_LOCK_KEY;
 178:C:/Users/stapi/OneDrive/Desktop/GD32VW553/GD32VW55X_Wifi_BLE_SDK/GD32VW55x_RELEASE_V1.0.2/MSDK/plf/GD32VW55x_standard_peripheral/Source\gd32vw55x_rtc.c **** 
 179:C:/Users/stapi/OneDrive/Desktop/GD32VW553/GD32VW55X_Wifi_BLE_SDK/GD32VW55x_RELEASE_V1.0.2/MSDK/plf/GD32VW55x_standard_peripheral/Source\gd32vw55x_rtc.c ****     return error_status;
 180:C:/Users/stapi/OneDrive/Desktop/GD32VW553/GD32VW55X_Wifi_BLE_SDK/GD32VW55x_RELEASE_V1.0.2/MSDK/plf/GD32VW55x_standard_peripheral/Source\gd32vw55x_rtc.c **** }
 181:C:/Users/stapi/OneDrive/Desktop/GD32VW553/GD32VW55X_Wifi_BLE_SDK/GD32VW55x_RELEASE_V1.0.2/MSDK/plf/GD32VW55x_standard_peripheral/Source\gd32vw55x_rtc.c **** 
 182:C:/Users/stapi/OneDrive/Desktop/GD32VW553/GD32VW55X_Wifi_BLE_SDK/GD32VW55x_RELEASE_V1.0.2/MSDK/plf/GD32VW55x_standard_peripheral/Source\gd32vw55x_rtc.c **** /*!
 183:C:/Users/stapi/OneDrive/Desktop/GD32VW553/GD32VW55X_Wifi_BLE_SDK/GD32VW55x_RELEASE_V1.0.2/MSDK/plf/GD32VW55x_standard_peripheral/Source\gd32vw55x_rtc.c ****     \brief      enter RTC init mode
 184:C:/Users/stapi/OneDrive/Desktop/GD32VW553/GD32VW55X_Wifi_BLE_SDK/GD32VW55x_RELEASE_V1.0.2/MSDK/plf/GD32VW55x_standard_peripheral/Source\gd32vw55x_rtc.c ****     \param[in]  none
 185:C:/Users/stapi/OneDrive/Desktop/GD32VW553/GD32VW55X_Wifi_BLE_SDK/GD32VW55x_RELEASE_V1.0.2/MSDK/plf/GD32VW55x_standard_peripheral/Source\gd32vw55x_rtc.c ****     \param[out] none
 186:C:/Users/stapi/OneDrive/Desktop/GD32VW553/GD32VW55X_Wifi_BLE_SDK/GD32VW55x_RELEASE_V1.0.2/MSDK/plf/GD32VW55x_standard_peripheral/Source\gd32vw55x_rtc.c ****     \retval     ErrStatus: ERROR or SUCCESS
 187:C:/Users/stapi/OneDrive/Desktop/GD32VW553/GD32VW55X_Wifi_BLE_SDK/GD32VW55x_RELEASE_V1.0.2/MSDK/plf/GD32VW55x_standard_peripheral/Source\gd32vw55x_rtc.c **** */
 188:C:/Users/stapi/OneDrive/Desktop/GD32VW553/GD32VW55X_Wifi_BLE_SDK/GD32VW55x_RELEASE_V1.0.2/MSDK/plf/GD32VW55x_standard_peripheral/Source\gd32vw55x_rtc.c **** ErrStatus rtc_init_mode_enter(void)
 189:C:/Users/stapi/OneDrive/Desktop/GD32VW553/GD32VW55X_Wifi_BLE_SDK/GD32VW55x_RELEASE_V1.0.2/MSDK/plf/GD32VW55x_standard_peripheral/Source\gd32vw55x_rtc.c **** {
  16              		.loc 1 189 1
  17              		.cfi_startproc
 190:C:/Users/stapi/OneDrive/Desktop/GD32VW553/GD32VW55X_Wifi_BLE_SDK/GD32VW55x_RELEASE_V1.0.2/MSDK/plf/GD32VW55x_standard_peripheral/Source\gd32vw55x_rtc.c ****     volatile uint32_t time_index = RTC_INITM_TIMEOUT;
  18              		.loc 1 190 5
  19              		.loc 1 190 23 is_stmt 0
  20 0000 A167     		li	a5,32768
 189:C:/Users/stapi/OneDrive/Desktop/GD32VW553/GD32VW55X_Wifi_BLE_SDK/GD32VW55x_RELEASE_V1.0.2/MSDK/plf/GD32VW55x_standard_peripheral/Source\gd32vw55x_rtc.c ****     volatile uint32_t time_index = RTC_INITM_TIMEOUT;
  21              		.loc 1 189 1
  22 0002 4111     		addi	sp,sp,-16
  23              		.cfi_def_cfa_offset 16
  24              		.loc 1 190 23
  25 0004 3EC6     		sw	a5,12(sp)
 191:C:/Users/stapi/OneDrive/Desktop/GD32VW553/GD32VW55X_Wifi_BLE_SDK/GD32VW55x_RELEASE_V1.0.2/MSDK/plf/GD32VW55x_standard_peripheral/Source\gd32vw55x_rtc.c ****     uint32_t flag_status = RESET;
  26              		.loc 1 191 5 is_stmt 1
  27              	.LVL0:
 192:C:/Users/stapi/OneDrive/Desktop/GD32VW553/GD32VW55X_Wifi_BLE_SDK/GD32VW55x_RELEASE_V1.0.2/MSDK/plf/GD32VW55x_standard_peripheral/Source\gd32vw55x_rtc.c ****     ErrStatus error_status = ERROR;
  28              		.loc 1 192 5
 193:C:/Users/stapi/OneDrive/Desktop/GD32VW553/GD32VW55X_Wifi_BLE_SDK/GD32VW55x_RELEASE_V1.0.2/MSDK/plf/GD32VW55x_standard_peripheral/Source\gd32vw55x_rtc.c **** 
 194:C:/Users/stapi/OneDrive/Desktop/GD32VW553/GD32VW55X_Wifi_BLE_SDK/GD32VW55x_RELEASE_V1.0.2/MSDK/plf/GD32VW55x_standard_peripheral/Source\gd32vw55x_rtc.c ****     /* check whether it has been in init mode */
 195:C:/Users/stapi/OneDrive/Desktop/GD32VW553/GD32VW55X_Wifi_BLE_SDK/GD32VW55x_RELEASE_V1.0.2/MSDK/plf/GD32VW55x_standard_peripheral/Source\gd32vw55x_rtc.c ****     if((uint32_t)RESET == (RTC_STAT & RTC_STAT_INITF)) {
  29              		.loc 1 195 5
  30              		.loc 1 195 28 is_stmt 0
  31 0006 B7370040 		li	a5,1073754112
  32 000a 03A7C780 		lw	a4,-2036(a5)
  33              		.loc 1 195 37
  34 000e 13770704 		andi	a4,a4,64
  35              		.loc 1 195 7
  36 0012 01C7     		beq	a4,zero,.L2
  37              	.LVL1:
  38              	.L6:
 196:C:/Users/stapi/OneDrive/Desktop/GD32VW553/GD32VW55X_Wifi_BLE_SDK/GD32VW55x_RELEASE_V1.0.2/MSDK/plf/GD32VW55x_standard_peripheral/Source\gd32vw55x_rtc.c ****         RTC_STAT |= RTC_STAT_INITM;
 197:C:/Users/stapi/OneDrive/Desktop/GD32VW553/GD32VW55X_Wifi_BLE_SDK/GD32VW55x_RELEASE_V1.0.2/MSDK/plf/GD32VW55x_standard_peripheral/Source\gd32vw55x_rtc.c **** 
 198:C:/Users/stapi/OneDrive/Desktop/GD32VW553/GD32VW55X_Wifi_BLE_SDK/GD32VW55x_RELEASE_V1.0.2/MSDK/plf/GD32VW55x_standard_peripheral/Source\gd32vw55x_rtc.c ****         /* wait until the INITF flag to be set */
 199:C:/Users/stapi/OneDrive/Desktop/GD32VW553/GD32VW55X_Wifi_BLE_SDK/GD32VW55x_RELEASE_V1.0.2/MSDK/plf/GD32VW55x_standard_peripheral/Source\gd32vw55x_rtc.c ****         do {
 200:C:/Users/stapi/OneDrive/Desktop/GD32VW553/GD32VW55X_Wifi_BLE_SDK/GD32VW55x_RELEASE_V1.0.2/MSDK/plf/GD32VW55x_standard_peripheral/Source\gd32vw55x_rtc.c ****             flag_status = RTC_STAT & RTC_STAT_INITF;
 201:C:/Users/stapi/OneDrive/Desktop/GD32VW553/GD32VW55X_Wifi_BLE_SDK/GD32VW55x_RELEASE_V1.0.2/MSDK/plf/GD32VW55x_standard_peripheral/Source\gd32vw55x_rtc.c ****         } while((--time_index > 0U) && ((uint32_t)RESET == flag_status));
 202:C:/Users/stapi/OneDrive/Desktop/GD32VW553/GD32VW55X_Wifi_BLE_SDK/GD32VW55x_RELEASE_V1.0.2/MSDK/plf/GD32VW55x_standard_peripheral/Source\gd32vw55x_rtc.c **** 
 203:C:/Users/stapi/OneDrive/Desktop/GD32VW553/GD32VW55X_Wifi_BLE_SDK/GD32VW55x_RELEASE_V1.0.2/MSDK/plf/GD32VW55x_standard_peripheral/Source\gd32vw55x_rtc.c ****         if((uint32_t)RESET != flag_status) {
 204:C:/Users/stapi/OneDrive/Desktop/GD32VW553/GD32VW55X_Wifi_BLE_SDK/GD32VW55x_RELEASE_V1.0.2/MSDK/plf/GD32VW55x_standard_peripheral/Source\gd32vw55x_rtc.c ****             error_status = SUCCESS;
 205:C:/Users/stapi/OneDrive/Desktop/GD32VW553/GD32VW55X_Wifi_BLE_SDK/GD32VW55x_RELEASE_V1.0.2/MSDK/plf/GD32VW55x_standard_peripheral/Source\gd32vw55x_rtc.c ****         }
 206:C:/Users/stapi/OneDrive/Desktop/GD32VW553/GD32VW55X_Wifi_BLE_SDK/GD32VW55x_RELEASE_V1.0.2/MSDK/plf/GD32VW55x_standard_peripheral/Source\gd32vw55x_rtc.c ****     } else {
 207:C:/Users/stapi/OneDrive/Desktop/GD32VW553/GD32VW55X_Wifi_BLE_SDK/GD32VW55x_RELEASE_V1.0.2/MSDK/plf/GD32VW55x_standard_peripheral/Source\gd32vw55x_rtc.c ****         error_status = SUCCESS;
  39              		.loc 1 207 22
  40 0014 0545     		li	a0,1
  41              	.LVL2:
  42              	.L1:
 208:C:/Users/stapi/OneDrive/Desktop/GD32VW553/GD32VW55X_Wifi_BLE_SDK/GD32VW55x_RELEASE_V1.0.2/MSDK/plf/GD32VW55x_standard_peripheral/Source\gd32vw55x_rtc.c ****     }
 209:C:/Users/stapi/OneDrive/Desktop/GD32VW553/GD32VW55X_Wifi_BLE_SDK/GD32VW55x_RELEASE_V1.0.2/MSDK/plf/GD32VW55x_standard_peripheral/Source\gd32vw55x_rtc.c ****     return error_status;
 210:C:/Users/stapi/OneDrive/Desktop/GD32VW553/GD32VW55X_Wifi_BLE_SDK/GD32VW55x_RELEASE_V1.0.2/MSDK/plf/GD32VW55x_standard_peripheral/Source\gd32vw55x_rtc.c **** }
  43              		.loc 1 210 1
  44 0016 4101     		addi	sp,sp,16
  45              		.cfi_remember_state
  46              		.cfi_def_cfa_offset 0
  47 0018 8280     		jr	ra
  48              	.LVL3:
  49              	.L2:
  50              		.cfi_restore_state
 196:C:/Users/stapi/OneDrive/Desktop/GD32VW553/GD32VW55X_Wifi_BLE_SDK/GD32VW55x_RELEASE_V1.0.2/MSDK/plf/GD32VW55x_standard_peripheral/Source\gd32vw55x_rtc.c ****         RTC_STAT |= RTC_STAT_INITM;
  51              		.loc 1 196 9 is_stmt 1
 196:C:/Users/stapi/OneDrive/Desktop/GD32VW553/GD32VW55X_Wifi_BLE_SDK/GD32VW55x_RELEASE_V1.0.2/MSDK/plf/GD32VW55x_standard_peripheral/Source\gd32vw55x_rtc.c ****         RTC_STAT |= RTC_STAT_INITM;
  52              		.loc 1 196 18 is_stmt 0
  53 001a 03A7C780 		lw	a4,-2036(a5)
  54 001e 13670708 		ori	a4,a4,128
  55 0022 23A6E780 		sw	a4,-2036(a5)
 200:C:/Users/stapi/OneDrive/Desktop/GD32VW553/GD32VW55X_Wifi_BLE_SDK/GD32VW55x_RELEASE_V1.0.2/MSDK/plf/GD32VW55x_standard_peripheral/Source\gd32vw55x_rtc.c ****         } while((--time_index > 0U) && ((uint32_t)RESET == flag_status));
  56              		.loc 1 200 27
  57 0026 37370040 		li	a4,1073754112
  58              	.LVL4:
  59              	.L5:
 199:C:/Users/stapi/OneDrive/Desktop/GD32VW553/GD32VW55X_Wifi_BLE_SDK/GD32VW55x_RELEASE_V1.0.2/MSDK/plf/GD32VW55x_standard_peripheral/Source\gd32vw55x_rtc.c ****             flag_status = RTC_STAT & RTC_STAT_INITF;
  60              		.loc 1 199 9 is_stmt 1 discriminator 2
 200:C:/Users/stapi/OneDrive/Desktop/GD32VW553/GD32VW55X_Wifi_BLE_SDK/GD32VW55x_RELEASE_V1.0.2/MSDK/plf/GD32VW55x_standard_peripheral/Source\gd32vw55x_rtc.c ****         } while((--time_index > 0U) && ((uint32_t)RESET == flag_status));
  61              		.loc 1 200 13 discriminator 2
 200:C:/Users/stapi/OneDrive/Desktop/GD32VW553/GD32VW55X_Wifi_BLE_SDK/GD32VW55x_RELEASE_V1.0.2/MSDK/plf/GD32VW55x_standard_peripheral/Source\gd32vw55x_rtc.c ****         } while((--time_index > 0U) && ((uint32_t)RESET == flag_status));
  62              		.loc 1 200 27 is_stmt 0 discriminator 2
  63 002a 0325C780 		lw	a0,-2036(a4)
 201:C:/Users/stapi/OneDrive/Desktop/GD32VW553/GD32VW55X_Wifi_BLE_SDK/GD32VW55x_RELEASE_V1.0.2/MSDK/plf/GD32VW55x_standard_peripheral/Source\gd32vw55x_rtc.c **** 
  64              		.loc 1 201 18 discriminator 2
  65 002e B247     		lw	a5,12(sp)
 200:C:/Users/stapi/OneDrive/Desktop/GD32VW553/GD32VW55X_Wifi_BLE_SDK/GD32VW55x_RELEASE_V1.0.2/MSDK/plf/GD32VW55x_standard_peripheral/Source\gd32vw55x_rtc.c ****         } while((--time_index > 0U) && ((uint32_t)RESET == flag_status));
  66              		.loc 1 200 25 discriminator 2
  67 0030 13750504 		andi	a0,a0,64
  68              	.LVL5:
 201:C:/Users/stapi/OneDrive/Desktop/GD32VW553/GD32VW55X_Wifi_BLE_SDK/GD32VW55x_RELEASE_V1.0.2/MSDK/plf/GD32VW55x_standard_peripheral/Source\gd32vw55x_rtc.c **** 
  69              		.loc 1 201 16 is_stmt 1 discriminator 2
 201:C:/Users/stapi/OneDrive/Desktop/GD32VW553/GD32VW55X_Wifi_BLE_SDK/GD32VW55x_RELEASE_V1.0.2/MSDK/plf/GD32VW55x_standard_peripheral/Source\gd32vw55x_rtc.c **** 
  70              		.loc 1 201 18 is_stmt 0 discriminator 2
  71 0034 FD17     		addi	a5,a5,-1
 201:C:/Users/stapi/OneDrive/Desktop/GD32VW553/GD32VW55X_Wifi_BLE_SDK/GD32VW55x_RELEASE_V1.0.2/MSDK/plf/GD32VW55x_standard_peripheral/Source\gd32vw55x_rtc.c **** 
  72              		.loc 1 201 9 discriminator 2
  73 0036 3EC6     		sw	a5,12(sp)
  74 0038 99C3     		beq	a5,zero,.L4
 201:C:/Users/stapi/OneDrive/Desktop/GD32VW553/GD32VW55X_Wifi_BLE_SDK/GD32VW55x_RELEASE_V1.0.2/MSDK/plf/GD32VW55x_standard_peripheral/Source\gd32vw55x_rtc.c **** 
  75              		.loc 1 201 37 discriminator 1
  76 003a 65D9     		beq	a0,zero,.L5
  77 003c E1BF     		j	.L6
  78              	.L4:
 203:C:/Users/stapi/OneDrive/Desktop/GD32VW553/GD32VW55X_Wifi_BLE_SDK/GD32VW55x_RELEASE_V1.0.2/MSDK/plf/GD32VW55x_standard_peripheral/Source\gd32vw55x_rtc.c ****             error_status = SUCCESS;
  79              		.loc 1 203 9 is_stmt 1
 203:C:/Users/stapi/OneDrive/Desktop/GD32VW553/GD32VW55X_Wifi_BLE_SDK/GD32VW55x_RELEASE_V1.0.2/MSDK/plf/GD32VW55x_standard_peripheral/Source\gd32vw55x_rtc.c ****             error_status = SUCCESS;
  80              		.loc 1 203 11 is_stmt 0
  81 003e 3335A000 		snez	a0,a0
  82              	.LVL6:
 209:C:/Users/stapi/OneDrive/Desktop/GD32VW553/GD32VW55X_Wifi_BLE_SDK/GD32VW55x_RELEASE_V1.0.2/MSDK/plf/GD32VW55x_standard_peripheral/Source\gd32vw55x_rtc.c **** }
  83              		.loc 1 209 5 is_stmt 1
 209:C:/Users/stapi/OneDrive/Desktop/GD32VW553/GD32VW55X_Wifi_BLE_SDK/GD32VW55x_RELEASE_V1.0.2/MSDK/plf/GD32VW55x_standard_peripheral/Source\gd32vw55x_rtc.c **** }
  84              		.loc 1 209 12 is_stmt 0
  85 0042 D1BF     		j	.L1
  86              		.cfi_endproc
  87              	.LFE367:
  89              		.section	.text.rtc_init_mode_exit,"ax",@progbits
  90              		.align	1
  91              		.globl	rtc_init_mode_exit
  93              	rtc_init_mode_exit:
  94              	.LFB368:
 211:C:/Users/stapi/OneDrive/Desktop/GD32VW553/GD32VW55X_Wifi_BLE_SDK/GD32VW55x_RELEASE_V1.0.2/MSDK/plf/GD32VW55x_standard_peripheral/Source\gd32vw55x_rtc.c **** 
 212:C:/Users/stapi/OneDrive/Desktop/GD32VW553/GD32VW55X_Wifi_BLE_SDK/GD32VW55x_RELEASE_V1.0.2/MSDK/plf/GD32VW55x_standard_peripheral/Source\gd32vw55x_rtc.c **** /*!
 213:C:/Users/stapi/OneDrive/Desktop/GD32VW553/GD32VW55X_Wifi_BLE_SDK/GD32VW55x_RELEASE_V1.0.2/MSDK/plf/GD32VW55x_standard_peripheral/Source\gd32vw55x_rtc.c ****     \brief      exit RTC init mode
 214:C:/Users/stapi/OneDrive/Desktop/GD32VW553/GD32VW55X_Wifi_BLE_SDK/GD32VW55x_RELEASE_V1.0.2/MSDK/plf/GD32VW55x_standard_peripheral/Source\gd32vw55x_rtc.c ****     \param[in]  none
 215:C:/Users/stapi/OneDrive/Desktop/GD32VW553/GD32VW55X_Wifi_BLE_SDK/GD32VW55x_RELEASE_V1.0.2/MSDK/plf/GD32VW55x_standard_peripheral/Source\gd32vw55x_rtc.c ****     \param[out] none
 216:C:/Users/stapi/OneDrive/Desktop/GD32VW553/GD32VW55X_Wifi_BLE_SDK/GD32VW55x_RELEASE_V1.0.2/MSDK/plf/GD32VW55x_standard_peripheral/Source\gd32vw55x_rtc.c ****     \retval     none
 217:C:/Users/stapi/OneDrive/Desktop/GD32VW553/GD32VW55X_Wifi_BLE_SDK/GD32VW55x_RELEASE_V1.0.2/MSDK/plf/GD32VW55x_standard_peripheral/Source\gd32vw55x_rtc.c **** */
 218:C:/Users/stapi/OneDrive/Desktop/GD32VW553/GD32VW55X_Wifi_BLE_SDK/GD32VW55x_RELEASE_V1.0.2/MSDK/plf/GD32VW55x_standard_peripheral/Source\gd32vw55x_rtc.c **** void rtc_init_mode_exit(void)
 219:C:/Users/stapi/OneDrive/Desktop/GD32VW553/GD32VW55X_Wifi_BLE_SDK/GD32VW55x_RELEASE_V1.0.2/MSDK/plf/GD32VW55x_standard_peripheral/Source\gd32vw55x_rtc.c **** {
  95              		.loc 1 219 1 is_stmt 1
  96              		.cfi_startproc
 220:C:/Users/stapi/OneDrive/Desktop/GD32VW553/GD32VW55X_Wifi_BLE_SDK/GD32VW55x_RELEASE_V1.0.2/MSDK/plf/GD32VW55x_standard_peripheral/Source\gd32vw55x_rtc.c ****     RTC_STAT &= (uint32_t)(~RTC_STAT_INITM);
  97              		.loc 1 220 5
  98              		.loc 1 220 14 is_stmt 0
  99 0000 37370040 		li	a4,1073754112
 100 0004 8327C780 		lw	a5,-2036(a4)
 101 0008 93F7F7F7 		andi	a5,a5,-129
 102 000c 2326F780 		sw	a5,-2036(a4)
 221:C:/Users/stapi/OneDrive/Desktop/GD32VW553/GD32VW55X_Wifi_BLE_SDK/GD32VW55x_RELEASE_V1.0.2/MSDK/plf/GD32VW55x_standard_peripheral/Source\gd32vw55x_rtc.c **** }
 103              		.loc 1 221 1
 104 0010 8280     		ret
 105              		.cfi_endproc
 106              	.LFE368:
 108              		.section	.text.rtc_register_sync_wait,"ax",@progbits
 109              		.align	1
 110              		.globl	rtc_register_sync_wait
 112              	rtc_register_sync_wait:
 113              	.LFB369:
 222:C:/Users/stapi/OneDrive/Desktop/GD32VW553/GD32VW55X_Wifi_BLE_SDK/GD32VW55x_RELEASE_V1.0.2/MSDK/plf/GD32VW55x_standard_peripheral/Source\gd32vw55x_rtc.c **** 
 223:C:/Users/stapi/OneDrive/Desktop/GD32VW553/GD32VW55X_Wifi_BLE_SDK/GD32VW55x_RELEASE_V1.0.2/MSDK/plf/GD32VW55x_standard_peripheral/Source\gd32vw55x_rtc.c **** /*!
 224:C:/Users/stapi/OneDrive/Desktop/GD32VW553/GD32VW55X_Wifi_BLE_SDK/GD32VW55x_RELEASE_V1.0.2/MSDK/plf/GD32VW55x_standard_peripheral/Source\gd32vw55x_rtc.c ****     \brief      wait until RTC_TIME and RTC_DATE registers are synchronized with APB clock, and the
 225:C:/Users/stapi/OneDrive/Desktop/GD32VW553/GD32VW55X_Wifi_BLE_SDK/GD32VW55x_RELEASE_V1.0.2/MSDK/plf/GD32VW55x_standard_peripheral/Source\gd32vw55x_rtc.c ****                 registers are updated
 226:C:/Users/stapi/OneDrive/Desktop/GD32VW553/GD32VW55X_Wifi_BLE_SDK/GD32VW55x_RELEASE_V1.0.2/MSDK/plf/GD32VW55x_standard_peripheral/Source\gd32vw55x_rtc.c ****     \param[in]  none
 227:C:/Users/stapi/OneDrive/Desktop/GD32VW553/GD32VW55X_Wifi_BLE_SDK/GD32VW55x_RELEASE_V1.0.2/MSDK/plf/GD32VW55x_standard_peripheral/Source\gd32vw55x_rtc.c ****     \param[out] none
 228:C:/Users/stapi/OneDrive/Desktop/GD32VW553/GD32VW55X_Wifi_BLE_SDK/GD32VW55x_RELEASE_V1.0.2/MSDK/plf/GD32VW55x_standard_peripheral/Source\gd32vw55x_rtc.c ****     \retval     ErrStatus: ERROR or SUCCESS
 229:C:/Users/stapi/OneDrive/Desktop/GD32VW553/GD32VW55X_Wifi_BLE_SDK/GD32VW55x_RELEASE_V1.0.2/MSDK/plf/GD32VW55x_standard_peripheral/Source\gd32vw55x_rtc.c **** */
 230:C:/Users/stapi/OneDrive/Desktop/GD32VW553/GD32VW55X_Wifi_BLE_SDK/GD32VW55x_RELEASE_V1.0.2/MSDK/plf/GD32VW55x_standard_peripheral/Source\gd32vw55x_rtc.c **** ErrStatus rtc_register_sync_wait(void)
 231:C:/Users/stapi/OneDrive/Desktop/GD32VW553/GD32VW55X_Wifi_BLE_SDK/GD32VW55x_RELEASE_V1.0.2/MSDK/plf/GD32VW55x_standard_peripheral/Source\gd32vw55x_rtc.c **** {
 114              		.loc 1 231 1 is_stmt 1
 115              		.cfi_startproc
 232:C:/Users/stapi/OneDrive/Desktop/GD32VW553/GD32VW55X_Wifi_BLE_SDK/GD32VW55x_RELEASE_V1.0.2/MSDK/plf/GD32VW55x_standard_peripheral/Source\gd32vw55x_rtc.c ****     volatile uint32_t time_index = RTC_RSYNF_TIMEOUT;
 116              		.loc 1 232 5
 117              		.loc 1 232 23 is_stmt 0
 118 0000 A167     		li	a5,32768
 231:C:/Users/stapi/OneDrive/Desktop/GD32VW553/GD32VW55X_Wifi_BLE_SDK/GD32VW55x_RELEASE_V1.0.2/MSDK/plf/GD32VW55x_standard_peripheral/Source\gd32vw55x_rtc.c ****     volatile uint32_t time_index = RTC_RSYNF_TIMEOUT;
 119              		.loc 1 231 1
 120 0002 4111     		addi	sp,sp,-16
 121              		.cfi_def_cfa_offset 16
 122              		.loc 1 232 23
 123 0004 3EC6     		sw	a5,12(sp)
 233:C:/Users/stapi/OneDrive/Desktop/GD32VW553/GD32VW55X_Wifi_BLE_SDK/GD32VW55x_RELEASE_V1.0.2/MSDK/plf/GD32VW55x_standard_peripheral/Source\gd32vw55x_rtc.c ****     uint32_t flag_status = RESET;
 124              		.loc 1 233 5 is_stmt 1
 125              	.LVL7:
 234:C:/Users/stapi/OneDrive/Desktop/GD32VW553/GD32VW55X_Wifi_BLE_SDK/GD32VW55x_RELEASE_V1.0.2/MSDK/plf/GD32VW55x_standard_peripheral/Source\gd32vw55x_rtc.c ****     ErrStatus error_status = ERROR;
 126              		.loc 1 234 5
 235:C:/Users/stapi/OneDrive/Desktop/GD32VW553/GD32VW55X_Wifi_BLE_SDK/GD32VW55x_RELEASE_V1.0.2/MSDK/plf/GD32VW55x_standard_peripheral/Source\gd32vw55x_rtc.c **** 
 236:C:/Users/stapi/OneDrive/Desktop/GD32VW553/GD32VW55X_Wifi_BLE_SDK/GD32VW55x_RELEASE_V1.0.2/MSDK/plf/GD32VW55x_standard_peripheral/Source\gd32vw55x_rtc.c ****     if((uint32_t)RESET == (RTC_CTL & RTC_CTL_BPSHAD)) {
 127              		.loc 1 236 5
 128              		.loc 1 236 28 is_stmt 0
 129 0006 B7370040 		li	a5,1073754112
 130 000a 03A78780 		lw	a4,-2040(a5)
 131 000e 0545     		li	a0,1
 132              		.loc 1 236 36
 133 0010 13770702 		andi	a4,a4,32
 134              		.loc 1 236 7
 135 0014 1DEF     		bne	a4,zero,.L11
 237:C:/Users/stapi/OneDrive/Desktop/GD32VW553/GD32VW55X_Wifi_BLE_SDK/GD32VW55x_RELEASE_V1.0.2/MSDK/plf/GD32VW55x_standard_peripheral/Source\gd32vw55x_rtc.c ****         /* disable the write protection */
 238:C:/Users/stapi/OneDrive/Desktop/GD32VW553/GD32VW55X_Wifi_BLE_SDK/GD32VW55x_RELEASE_V1.0.2/MSDK/plf/GD32VW55x_standard_peripheral/Source\gd32vw55x_rtc.c ****         RTC_WPK = RTC_UNLOCK_KEY1;
 136              		.loc 1 238 9 is_stmt 1
 137              		.loc 1 238 17 is_stmt 0
 138 0016 93870780 		addi	a5,a5,-2048
 139 001a 1307A00C 		li	a4,202
 140 001e D8D3     		sw	a4,36(a5)
 239:C:/Users/stapi/OneDrive/Desktop/GD32VW553/GD32VW55X_Wifi_BLE_SDK/GD32VW55x_RELEASE_V1.0.2/MSDK/plf/GD32VW55x_standard_peripheral/Source\gd32vw55x_rtc.c ****         RTC_WPK = RTC_UNLOCK_KEY2;
 141              		.loc 1 239 9 is_stmt 1
 142              		.loc 1 239 17 is_stmt 0
 143 0020 13073005 		li	a4,83
 144 0024 D8D3     		sw	a4,36(a5)
 240:C:/Users/stapi/OneDrive/Desktop/GD32VW553/GD32VW55X_Wifi_BLE_SDK/GD32VW55x_RELEASE_V1.0.2/MSDK/plf/GD32VW55x_standard_peripheral/Source\gd32vw55x_rtc.c **** 
 241:C:/Users/stapi/OneDrive/Desktop/GD32VW553/GD32VW55X_Wifi_BLE_SDK/GD32VW55x_RELEASE_V1.0.2/MSDK/plf/GD32VW55x_standard_peripheral/Source\gd32vw55x_rtc.c ****         /* firstly clear RSYNF flag */
 242:C:/Users/stapi/OneDrive/Desktop/GD32VW553/GD32VW55X_Wifi_BLE_SDK/GD32VW55x_RELEASE_V1.0.2/MSDK/plf/GD32VW55x_standard_peripheral/Source\gd32vw55x_rtc.c ****         RTC_STAT &= (uint32_t)(~RTC_STAT_RSYNF);
 145              		.loc 1 242 9 is_stmt 1
 146              		.loc 1 242 18 is_stmt 0
 147 0026 D847     		lw	a4,12(a5)
 148 0028 1377F7FD 		andi	a4,a4,-33
 149 002c D8C7     		sw	a4,12(a5)
 243:C:/Users/stapi/OneDrive/Desktop/GD32VW553/GD32VW55X_Wifi_BLE_SDK/GD32VW55x_RELEASE_V1.0.2/MSDK/plf/GD32VW55x_standard_peripheral/Source\gd32vw55x_rtc.c **** 
 244:C:/Users/stapi/OneDrive/Desktop/GD32VW553/GD32VW55X_Wifi_BLE_SDK/GD32VW55x_RELEASE_V1.0.2/MSDK/plf/GD32VW55x_standard_peripheral/Source\gd32vw55x_rtc.c ****         /* wait until RSYNF flag to be set */
 245:C:/Users/stapi/OneDrive/Desktop/GD32VW553/GD32VW55X_Wifi_BLE_SDK/GD32VW55x_RELEASE_V1.0.2/MSDK/plf/GD32VW55x_standard_peripheral/Source\gd32vw55x_rtc.c ****         do {
 246:C:/Users/stapi/OneDrive/Desktop/GD32VW553/GD32VW55X_Wifi_BLE_SDK/GD32VW55x_RELEASE_V1.0.2/MSDK/plf/GD32VW55x_standard_peripheral/Source\gd32vw55x_rtc.c ****             flag_status = RTC_STAT & RTC_STAT_RSYNF;
 150              		.loc 1 246 27
 151 002e 37370040 		li	a4,1073754112
 152              	.LVL8:
 153              	.L14:
 245:C:/Users/stapi/OneDrive/Desktop/GD32VW553/GD32VW55X_Wifi_BLE_SDK/GD32VW55x_RELEASE_V1.0.2/MSDK/plf/GD32VW55x_standard_peripheral/Source\gd32vw55x_rtc.c ****             flag_status = RTC_STAT & RTC_STAT_RSYNF;
 154              		.loc 1 245 9 is_stmt 1 discriminator 2
 155              		.loc 1 246 13 discriminator 2
 156              		.loc 1 246 27 is_stmt 0 discriminator 2
 157 0032 0325C780 		lw	a0,-2036(a4)
 247:C:/Users/stapi/OneDrive/Desktop/GD32VW553/GD32VW55X_Wifi_BLE_SDK/GD32VW55x_RELEASE_V1.0.2/MSDK/plf/GD32VW55x_standard_peripheral/Source\gd32vw55x_rtc.c ****         } while((--time_index > 0U) && ((uint32_t)RESET == flag_status));
 158              		.loc 1 247 18 discriminator 2
 159 0036 B247     		lw	a5,12(sp)
 246:C:/Users/stapi/OneDrive/Desktop/GD32VW553/GD32VW55X_Wifi_BLE_SDK/GD32VW55x_RELEASE_V1.0.2/MSDK/plf/GD32VW55x_standard_peripheral/Source\gd32vw55x_rtc.c ****         } while((--time_index > 0U) && ((uint32_t)RESET == flag_status));
 160              		.loc 1 246 25 discriminator 2
 161 0038 13750502 		andi	a0,a0,32
 162              	.LVL9:
 163              		.loc 1 247 16 is_stmt 1 discriminator 2
 164              		.loc 1 247 18 is_stmt 0 discriminator 2
 165 003c FD17     		addi	a5,a5,-1
 166              		.loc 1 247 9 discriminator 2
 167 003e 3EC6     		sw	a5,12(sp)
 168 0040 99CB     		beq	a5,zero,.L13
 169              		.loc 1 247 37 discriminator 1
 170 0042 65D9     		beq	a0,zero,.L14
 248:C:/Users/stapi/OneDrive/Desktop/GD32VW553/GD32VW55X_Wifi_BLE_SDK/GD32VW55x_RELEASE_V1.0.2/MSDK/plf/GD32VW55x_standard_peripheral/Source\gd32vw55x_rtc.c **** 
 249:C:/Users/stapi/OneDrive/Desktop/GD32VW553/GD32VW55X_Wifi_BLE_SDK/GD32VW55x_RELEASE_V1.0.2/MSDK/plf/GD32VW55x_standard_peripheral/Source\gd32vw55x_rtc.c ****         if((uint32_t)RESET != flag_status) {
 250:C:/Users/stapi/OneDrive/Desktop/GD32VW553/GD32VW55X_Wifi_BLE_SDK/GD32VW55x_RELEASE_V1.0.2/MSDK/plf/GD32VW55x_standard_peripheral/Source\gd32vw55x_rtc.c ****             error_status = SUCCESS;
 171              		.loc 1 250 26
 172 0044 0545     		li	a0,1
 173              	.LVL10:
 174              	.L15:
 251:C:/Users/stapi/OneDrive/Desktop/GD32VW553/GD32VW55X_Wifi_BLE_SDK/GD32VW55x_RELEASE_V1.0.2/MSDK/plf/GD32VW55x_standard_peripheral/Source\gd32vw55x_rtc.c ****         }
 252:C:/Users/stapi/OneDrive/Desktop/GD32VW553/GD32VW55X_Wifi_BLE_SDK/GD32VW55x_RELEASE_V1.0.2/MSDK/plf/GD32VW55x_standard_peripheral/Source\gd32vw55x_rtc.c **** 
 253:C:/Users/stapi/OneDrive/Desktop/GD32VW553/GD32VW55X_Wifi_BLE_SDK/GD32VW55x_RELEASE_V1.0.2/MSDK/plf/GD32VW55x_standard_peripheral/Source\gd32vw55x_rtc.c ****         /* enable the write protection */
 254:C:/Users/stapi/OneDrive/Desktop/GD32VW553/GD32VW55X_Wifi_BLE_SDK/GD32VW55x_RELEASE_V1.0.2/MSDK/plf/GD32VW55x_standard_peripheral/Source\gd32vw55x_rtc.c ****         RTC_WPK = RTC_LOCK_KEY;
 175              		.loc 1 254 9 is_stmt 1
 176              		.loc 1 254 17 is_stmt 0
 177 0046 B7370040 		li	a5,1073754112
 178 004a 1307F00F 		li	a4,255
 179 004e 23A2E782 		sw	a4,-2012(a5)
 180              	.LVL11:
 181              	.L11:
 255:C:/Users/stapi/OneDrive/Desktop/GD32VW553/GD32VW55X_Wifi_BLE_SDK/GD32VW55x_RELEASE_V1.0.2/MSDK/plf/GD32VW55x_standard_peripheral/Source\gd32vw55x_rtc.c ****     } else {
 256:C:/Users/stapi/OneDrive/Desktop/GD32VW553/GD32VW55X_Wifi_BLE_SDK/GD32VW55x_RELEASE_V1.0.2/MSDK/plf/GD32VW55x_standard_peripheral/Source\gd32vw55x_rtc.c ****         error_status = SUCCESS;
 257:C:/Users/stapi/OneDrive/Desktop/GD32VW553/GD32VW55X_Wifi_BLE_SDK/GD32VW55x_RELEASE_V1.0.2/MSDK/plf/GD32VW55x_standard_peripheral/Source\gd32vw55x_rtc.c ****     }
 258:C:/Users/stapi/OneDrive/Desktop/GD32VW553/GD32VW55X_Wifi_BLE_SDK/GD32VW55x_RELEASE_V1.0.2/MSDK/plf/GD32VW55x_standard_peripheral/Source\gd32vw55x_rtc.c **** 
 259:C:/Users/stapi/OneDrive/Desktop/GD32VW553/GD32VW55X_Wifi_BLE_SDK/GD32VW55x_RELEASE_V1.0.2/MSDK/plf/GD32VW55x_standard_peripheral/Source\gd32vw55x_rtc.c ****     return error_status;
 260:C:/Users/stapi/OneDrive/Desktop/GD32VW553/GD32VW55X_Wifi_BLE_SDK/GD32VW55x_RELEASE_V1.0.2/MSDK/plf/GD32VW55x_standard_peripheral/Source\gd32vw55x_rtc.c **** }
 182              		.loc 1 260 1
 183 0052 4101     		addi	sp,sp,16
 184              		.cfi_remember_state
 185              		.cfi_def_cfa_offset 0
 186 0054 8280     		jr	ra
 187              	.LVL12:
 188              	.L13:
 189              		.cfi_restore_state
 249:C:/Users/stapi/OneDrive/Desktop/GD32VW553/GD32VW55X_Wifi_BLE_SDK/GD32VW55x_RELEASE_V1.0.2/MSDK/plf/GD32VW55x_standard_peripheral/Source\gd32vw55x_rtc.c ****             error_status = SUCCESS;
 190              		.loc 1 249 9 is_stmt 1
 249:C:/Users/stapi/OneDrive/Desktop/GD32VW553/GD32VW55X_Wifi_BLE_SDK/GD32VW55x_RELEASE_V1.0.2/MSDK/plf/GD32VW55x_standard_peripheral/Source\gd32vw55x_rtc.c ****             error_status = SUCCESS;
 191              		.loc 1 249 11 is_stmt 0
 192 0056 3335A000 		snez	a0,a0
 193              	.LVL13:
 194 005a F5B7     		j	.L15
 195              		.cfi_endproc
 196              	.LFE369:
 198              		.section	.text.rtc_deinit,"ax",@progbits
 199              		.align	1
 200              		.globl	rtc_deinit
 202              	rtc_deinit:
 203              	.LFB365:
  52:C:/Users/stapi/OneDrive/Desktop/GD32VW553/GD32VW55X_Wifi_BLE_SDK/GD32VW55x_RELEASE_V1.0.2/MSDK/plf/GD32VW55x_standard_peripheral/Source\gd32vw55x_rtc.c ****     /* After Backup domain reset, some of the RTC registers are write-protected: RTC_TIME, RTC_DATE
 204              		.loc 1 52 1 is_stmt 1
 205              		.cfi_startproc
 206 0000 17030000 		call	t0,__riscv_save_2
 206      E7020300 
 207              		.cfi_offset 9, -12
 208              		.cfi_offset 8, -8
 209              		.cfi_offset 1, -4
 210              		.cfi_def_cfa_offset 16
  55:C:/Users/stapi/OneDrive/Desktop/GD32VW553/GD32VW55X_Wifi_BLE_SDK/GD32VW55x_RELEASE_V1.0.2/MSDK/plf/GD32VW55x_standard_peripheral/Source\gd32vw55x_rtc.c ****     volatile uint32_t time_index = RTC_WTWF_TIMEOUT;
 211              		.loc 1 55 5
 212              	.LVL14:
  56:C:/Users/stapi/OneDrive/Desktop/GD32VW553/GD32VW55X_Wifi_BLE_SDK/GD32VW55x_RELEASE_V1.0.2/MSDK/plf/GD32VW55x_standard_peripheral/Source\gd32vw55x_rtc.c ****     uint32_t flag_status = RESET;
 213              		.loc 1 56 5
  56:C:/Users/stapi/OneDrive/Desktop/GD32VW553/GD32VW55X_Wifi_BLE_SDK/GD32VW55x_RELEASE_V1.0.2/MSDK/plf/GD32VW55x_standard_peripheral/Source\gd32vw55x_rtc.c ****     uint32_t flag_status = RESET;
 214              		.loc 1 56 23 is_stmt 0
 215 0008 9167     		li	a5,16384
  52:C:/Users/stapi/OneDrive/Desktop/GD32VW553/GD32VW55X_Wifi_BLE_SDK/GD32VW55x_RELEASE_V1.0.2/MSDK/plf/GD32VW55x_standard_peripheral/Source\gd32vw55x_rtc.c ****     /* After Backup domain reset, some of the RTC registers are write-protected: RTC_TIME, RTC_DATE
 216              		.loc 1 52 1
 217 000a 4111     		addi	sp,sp,-16
 218              		.cfi_def_cfa_offset 32
  56:C:/Users/stapi/OneDrive/Desktop/GD32VW553/GD32VW55X_Wifi_BLE_SDK/GD32VW55x_RELEASE_V1.0.2/MSDK/plf/GD32VW55x_standard_peripheral/Source\gd32vw55x_rtc.c ****     uint32_t flag_status = RESET;
 219              		.loc 1 56 23
 220 000c 3EC6     		sw	a5,12(sp)
  57:C:/Users/stapi/OneDrive/Desktop/GD32VW553/GD32VW55X_Wifi_BLE_SDK/GD32VW55x_RELEASE_V1.0.2/MSDK/plf/GD32VW55x_standard_peripheral/Source\gd32vw55x_rtc.c ****     /* RTC_TAMP register is not under write protection */
 221              		.loc 1 57 5 is_stmt 1
 222              	.LVL15:
  59:C:/Users/stapi/OneDrive/Desktop/GD32VW553/GD32VW55X_Wifi_BLE_SDK/GD32VW55x_RELEASE_V1.0.2/MSDK/plf/GD32VW55x_standard_peripheral/Source\gd32vw55x_rtc.c **** 
 223              		.loc 1 59 5
  59:C:/Users/stapi/OneDrive/Desktop/GD32VW553/GD32VW55X_Wifi_BLE_SDK/GD32VW55x_RELEASE_V1.0.2/MSDK/plf/GD32VW55x_standard_peripheral/Source\gd32vw55x_rtc.c **** 
 224              		.loc 1 59 14 is_stmt 0
 225 000e B7370040 		li	a5,1073754112
 226 0012 23A00784 		sw	zero,-1984(a5)
  62:C:/Users/stapi/OneDrive/Desktop/GD32VW553/GD32VW55X_Wifi_BLE_SDK/GD32VW55x_RELEASE_V1.0.2/MSDK/plf/GD32VW55x_standard_peripheral/Source\gd32vw55x_rtc.c ****     /* to write RTC_ALRMxTD and RTC_ALRMxSS register, 1  ALRMxEN bit in RTC_CTL register should be 
 227              		.loc 1 62 5 is_stmt 1
  62:C:/Users/stapi/OneDrive/Desktop/GD32VW553/GD32VW55X_Wifi_BLE_SDK/GD32VW55x_RELEASE_V1.0.2/MSDK/plf/GD32VW55x_standard_peripheral/Source\gd32vw55x_rtc.c ****     /* to write RTC_ALRMxTD and RTC_ALRMxSS register, 1  ALRMxEN bit in RTC_CTL register should be 
 228              		.loc 1 62 13 is_stmt 0
 229 0016 13870780 		addi	a4,a5,-2048
 230 001a 1447     		lw	a3,8(a4)
 231 001c 93F6F6CF 		andi	a3,a3,-769
 232 0020 14C7     		sw	a3,8(a4)
  65:C:/Users/stapi/OneDrive/Desktop/GD32VW553/GD32VW55X_Wifi_BLE_SDK/GD32VW55x_RELEASE_V1.0.2/MSDK/plf/GD32VW55x_standard_peripheral/Source\gd32vw55x_rtc.c ****     RTC_ALRM1TD = RTC_REGISTER_RESET;
 233              		.loc 1 65 5 is_stmt 1
  65:C:/Users/stapi/OneDrive/Desktop/GD32VW553/GD32VW55X_Wifi_BLE_SDK/GD32VW55x_RELEASE_V1.0.2/MSDK/plf/GD32VW55x_standard_peripheral/Source\gd32vw55x_rtc.c ****     RTC_ALRM1TD = RTC_REGISTER_RESET;
 234              		.loc 1 65 17 is_stmt 0
 235 0022 23AE0780 		sw	zero,-2020(a5)
  66:C:/Users/stapi/OneDrive/Desktop/GD32VW553/GD32VW55X_Wifi_BLE_SDK/GD32VW55x_RELEASE_V1.0.2/MSDK/plf/GD32VW55x_standard_peripheral/Source\gd32vw55x_rtc.c ****     RTC_ALRM0SS = RTC_REGISTER_RESET;
 236              		.loc 1 66 5 is_stmt 1
  66:C:/Users/stapi/OneDrive/Desktop/GD32VW553/GD32VW55X_Wifi_BLE_SDK/GD32VW55x_RELEASE_V1.0.2/MSDK/plf/GD32VW55x_standard_peripheral/Source\gd32vw55x_rtc.c ****     RTC_ALRM0SS = RTC_REGISTER_RESET;
 237              		.loc 1 66 17 is_stmt 0
 238 0026 23A00782 		sw	zero,-2016(a5)
  67:C:/Users/stapi/OneDrive/Desktop/GD32VW553/GD32VW55X_Wifi_BLE_SDK/GD32VW55x_RELEASE_V1.0.2/MSDK/plf/GD32VW55x_standard_peripheral/Source\gd32vw55x_rtc.c ****     RTC_ALRM1SS = RTC_REGISTER_RESET;
 239              		.loc 1 67 5 is_stmt 1
  67:C:/Users/stapi/OneDrive/Desktop/GD32VW553/GD32VW55X_Wifi_BLE_SDK/GD32VW55x_RELEASE_V1.0.2/MSDK/plf/GD32VW55x_standard_peripheral/Source\gd32vw55x_rtc.c ****     RTC_ALRM1SS = RTC_REGISTER_RESET;
 240              		.loc 1 67 17 is_stmt 0
 241 002a 23A20784 		sw	zero,-1980(a5)
  68:C:/Users/stapi/OneDrive/Desktop/GD32VW553/GD32VW55X_Wifi_BLE_SDK/GD32VW55x_RELEASE_V1.0.2/MSDK/plf/GD32VW55x_standard_peripheral/Source\gd32vw55x_rtc.c **** 
 242              		.loc 1 68 5 is_stmt 1
  68:C:/Users/stapi/OneDrive/Desktop/GD32VW553/GD32VW55X_Wifi_BLE_SDK/GD32VW55x_RELEASE_V1.0.2/MSDK/plf/GD32VW55x_standard_peripheral/Source\gd32vw55x_rtc.c **** 
 243              		.loc 1 68 17 is_stmt 0
 244 002e 23A40784 		sw	zero,-1976(a5)
  72:C:/Users/stapi/OneDrive/Desktop/GD32VW553/GD32VW55X_Wifi_BLE_SDK/GD32VW55x_RELEASE_V1.0.2/MSDK/plf/GD32VW55x_standard_peripheral/Source\gd32vw55x_rtc.c ****     /* wait until the WTWF flag to be set */
 245              		.loc 1 72 5 is_stmt 1
  72:C:/Users/stapi/OneDrive/Desktop/GD32VW553/GD32VW55X_Wifi_BLE_SDK/GD32VW55x_RELEASE_V1.0.2/MSDK/plf/GD32VW55x_standard_peripheral/Source\gd32vw55x_rtc.c ****     /* wait until the WTWF flag to be set */
 246              		.loc 1 72 13 is_stmt 0
 247 0032 1C47     		lw	a5,8(a4)
 248 0034 93F7F7BF 		andi	a5,a5,-1025
 249 0038 1CC7     		sw	a5,8(a4)
  75:C:/Users/stapi/OneDrive/Desktop/GD32VW553/GD32VW55X_Wifi_BLE_SDK/GD32VW55x_RELEASE_V1.0.2/MSDK/plf/GD32VW55x_standard_peripheral/Source\gd32vw55x_rtc.c ****     } while((--time_index > 0U) && ((uint32_t)RESET == flag_status));
 250              		.loc 1 75 23
 251 003a 37370040 		li	a4,1073754112
 252              	.LVL16:
 253              	.L23:
  74:C:/Users/stapi/OneDrive/Desktop/GD32VW553/GD32VW55X_Wifi_BLE_SDK/GD32VW55x_RELEASE_V1.0.2/MSDK/plf/GD32VW55x_standard_peripheral/Source\gd32vw55x_rtc.c ****         flag_status = RTC_STAT & RTC_STAT_WTWF;
 254              		.loc 1 74 5 is_stmt 1 discriminator 2
  75:C:/Users/stapi/OneDrive/Desktop/GD32VW553/GD32VW55X_Wifi_BLE_SDK/GD32VW55x_RELEASE_V1.0.2/MSDK/plf/GD32VW55x_standard_peripheral/Source\gd32vw55x_rtc.c ****     } while((--time_index > 0U) && ((uint32_t)RESET == flag_status));
 255              		.loc 1 75 9 discriminator 2
  75:C:/Users/stapi/OneDrive/Desktop/GD32VW553/GD32VW55X_Wifi_BLE_SDK/GD32VW55x_RELEASE_V1.0.2/MSDK/plf/GD32VW55x_standard_peripheral/Source\gd32vw55x_rtc.c ****     } while((--time_index > 0U) && ((uint32_t)RESET == flag_status));
 256              		.loc 1 75 23 is_stmt 0 discriminator 2
 257 003e 0325C780 		lw	a0,-2036(a4)
  76:C:/Users/stapi/OneDrive/Desktop/GD32VW553/GD32VW55X_Wifi_BLE_SDK/GD32VW55x_RELEASE_V1.0.2/MSDK/plf/GD32VW55x_standard_peripheral/Source\gd32vw55x_rtc.c **** 
 258              		.loc 1 76 14 discriminator 2
 259 0042 B247     		lw	a5,12(sp)
  75:C:/Users/stapi/OneDrive/Desktop/GD32VW553/GD32VW55X_Wifi_BLE_SDK/GD32VW55x_RELEASE_V1.0.2/MSDK/plf/GD32VW55x_standard_peripheral/Source\gd32vw55x_rtc.c ****     } while((--time_index > 0U) && ((uint32_t)RESET == flag_status));
 260              		.loc 1 75 21 discriminator 2
 261 0044 1189     		andi	a0,a0,4
 262              	.LVL17:
  76:C:/Users/stapi/OneDrive/Desktop/GD32VW553/GD32VW55X_Wifi_BLE_SDK/GD32VW55x_RELEASE_V1.0.2/MSDK/plf/GD32VW55x_standard_peripheral/Source\gd32vw55x_rtc.c **** 
 263              		.loc 1 76 12 is_stmt 1 discriminator 2
  76:C:/Users/stapi/OneDrive/Desktop/GD32VW553/GD32VW55X_Wifi_BLE_SDK/GD32VW55x_RELEASE_V1.0.2/MSDK/plf/GD32VW55x_standard_peripheral/Source\gd32vw55x_rtc.c **** 
 264              		.loc 1 76 14 is_stmt 0 discriminator 2
 265 0046 FD17     		addi	a5,a5,-1
  76:C:/Users/stapi/OneDrive/Desktop/GD32VW553/GD32VW55X_Wifi_BLE_SDK/GD32VW55x_RELEASE_V1.0.2/MSDK/plf/GD32VW55x_standard_peripheral/Source\gd32vw55x_rtc.c **** 
 266              		.loc 1 76 5 discriminator 2
 267 0048 3EC6     		sw	a5,12(sp)
 268 004a BDC3     		beq	a5,zero,.L22
  76:C:/Users/stapi/OneDrive/Desktop/GD32VW553/GD32VW55X_Wifi_BLE_SDK/GD32VW55x_RELEASE_V1.0.2/MSDK/plf/GD32VW55x_standard_peripheral/Source\gd32vw55x_rtc.c **** 
 269              		.loc 1 76 33 discriminator 1
 270 004c 6DD9     		beq	a0,zero,.L23
 271              	.L24:
  81:C:/Users/stapi/OneDrive/Desktop/GD32VW553/GD32VW55X_Wifi_BLE_SDK/GD32VW55x_RELEASE_V1.0.2/MSDK/plf/GD32VW55x_standard_peripheral/Source\gd32vw55x_rtc.c ****         RTC_WUT = RTC_WUT_RESET;
 272              		.loc 1 81 9 is_stmt 1
  81:C:/Users/stapi/OneDrive/Desktop/GD32VW553/GD32VW55X_Wifi_BLE_SDK/GD32VW55x_RELEASE_V1.0.2/MSDK/plf/GD32VW55x_standard_peripheral/Source\gd32vw55x_rtc.c ****         RTC_WUT = RTC_WUT_RESET;
 273              		.loc 1 81 17 is_stmt 0
 274 004e B7340040 		li	s1,1073754112
 275 0052 13840480 		addi	s0,s1,-2048
 276 0056 1C44     		lw	a5,8(s0)
 277 0058 E19B     		andi	a5,a5,-8
 278 005a 1CC4     		sw	a5,8(s0)
  82:C:/Users/stapi/OneDrive/Desktop/GD32VW553/GD32VW55X_Wifi_BLE_SDK/GD32VW55x_RELEASE_V1.0.2/MSDK/plf/GD32VW55x_standard_peripheral/Source\gd32vw55x_rtc.c **** 
 279              		.loc 1 82 9 is_stmt 1
  82:C:/Users/stapi/OneDrive/Desktop/GD32VW553/GD32VW55X_Wifi_BLE_SDK/GD32VW55x_RELEASE_V1.0.2/MSDK/plf/GD32VW55x_standard_peripheral/Source\gd32vw55x_rtc.c **** 
 280              		.loc 1 82 17 is_stmt 0
 281 005c C167     		li	a5,65536
 282 005e FD17     		addi	a5,a5,-1
 283 0060 5CC8     		sw	a5,20(s0)
  85:C:/Users/stapi/OneDrive/Desktop/GD32VW553/GD32VW55X_Wifi_BLE_SDK/GD32VW55x_RELEASE_V1.0.2/MSDK/plf/GD32VW55x_standard_peripheral/Source\gd32vw55x_rtc.c ****         RTC_WPK = RTC_UNLOCK_KEY2;
 284              		.loc 1 85 9 is_stmt 1
  85:C:/Users/stapi/OneDrive/Desktop/GD32VW553/GD32VW55X_Wifi_BLE_SDK/GD32VW55x_RELEASE_V1.0.2/MSDK/plf/GD32VW55x_standard_peripheral/Source\gd32vw55x_rtc.c ****         RTC_WPK = RTC_UNLOCK_KEY2;
 285              		.loc 1 85 17 is_stmt 0
 286 0062 9307A00C 		li	a5,202
 287 0066 5CD0     		sw	a5,36(s0)
  86:C:/Users/stapi/OneDrive/Desktop/GD32VW553/GD32VW55X_Wifi_BLE_SDK/GD32VW55x_RELEASE_V1.0.2/MSDK/plf/GD32VW55x_standard_peripheral/Source\gd32vw55x_rtc.c **** 
 288              		.loc 1 86 9 is_stmt 1
  86:C:/Users/stapi/OneDrive/Desktop/GD32VW553/GD32VW55X_Wifi_BLE_SDK/GD32VW55x_RELEASE_V1.0.2/MSDK/plf/GD32VW55x_standard_peripheral/Source\gd32vw55x_rtc.c **** 
 289              		.loc 1 86 17 is_stmt 0
 290 0068 93073005 		li	a5,83
 291 006c 5CD0     		sw	a5,36(s0)
  89:C:/Users/stapi/OneDrive/Desktop/GD32VW553/GD32VW55X_Wifi_BLE_SDK/GD32VW55x_RELEASE_V1.0.2/MSDK/plf/GD32VW55x_standard_peripheral/Source\gd32vw55x_rtc.c ****         /* RTC_TIME, RTC_DATE, RTC_PSC registers, plus INITM in RTC_ICS, plus CS control bits in RT
 292              		.loc 1 89 9 is_stmt 1
  89:C:/Users/stapi/OneDrive/Desktop/GD32VW553/GD32VW55X_Wifi_BLE_SDK/GD32VW55x_RELEASE_V1.0.2/MSDK/plf/GD32VW55x_standard_peripheral/Source\gd32vw55x_rtc.c ****         /* RTC_TIME, RTC_DATE, RTC_PSC registers, plus INITM in RTC_ICS, plus CS control bits in RT
 293              		.loc 1 89 24 is_stmt 0
 294 006e 97000000 		call	rtc_init_mode_enter
 294      E7800000 
 295              	.LVL18:
  91:C:/Users/stapi/OneDrive/Desktop/GD32VW553/GD32VW55X_Wifi_BLE_SDK/GD32VW55x_RELEASE_V1.0.2/MSDK/plf/GD32VW55x_standard_peripheral/Source\gd32vw55x_rtc.c **** 
 296              		.loc 1 91 9 is_stmt 1
  96:C:/Users/stapi/OneDrive/Desktop/GD32VW553/GD32VW55X_Wifi_BLE_SDK/GD32VW55x_RELEASE_V1.0.2/MSDK/plf/GD32VW55x_standard_peripheral/Source\gd32vw55x_rtc.c ****         RTC_PSC = RTC_PSC_RESET;
 297              		.loc 1 96 18 is_stmt 0
 298 0076 8967     		li	a5,8192
  91:C:/Users/stapi/OneDrive/Desktop/GD32VW553/GD32VW55X_Wifi_BLE_SDK/GD32VW55x_RELEASE_V1.0.2/MSDK/plf/GD32VW55x_standard_peripheral/Source\gd32vw55x_rtc.c **** 
 299              		.loc 1 91 17
 300 0078 23A40480 		sw	zero,-2040(s1)
  95:C:/Users/stapi/OneDrive/Desktop/GD32VW553/GD32VW55X_Wifi_BLE_SDK/GD32VW55x_RELEASE_V1.0.2/MSDK/plf/GD32VW55x_standard_peripheral/Source\gd32vw55x_rtc.c ****         RTC_DATE = RTC_DATE_RESET;
 301              		.loc 1 95 9 is_stmt 1
  95:C:/Users/stapi/OneDrive/Desktop/GD32VW553/GD32VW55X_Wifi_BLE_SDK/GD32VW55x_RELEASE_V1.0.2/MSDK/plf/GD32VW55x_standard_peripheral/Source\gd32vw55x_rtc.c ****         RTC_DATE = RTC_DATE_RESET;
 302              		.loc 1 95 18 is_stmt 0
 303 007c 23A00480 		sw	zero,-2048(s1)
  96:C:/Users/stapi/OneDrive/Desktop/GD32VW553/GD32VW55X_Wifi_BLE_SDK/GD32VW55x_RELEASE_V1.0.2/MSDK/plf/GD32VW55x_standard_peripheral/Source\gd32vw55x_rtc.c ****         RTC_PSC = RTC_PSC_RESET;
 304              		.loc 1 96 9 is_stmt 1
  96:C:/Users/stapi/OneDrive/Desktop/GD32VW553/GD32VW55X_Wifi_BLE_SDK/GD32VW55x_RELEASE_V1.0.2/MSDK/plf/GD32VW55x_standard_peripheral/Source\gd32vw55x_rtc.c ****         RTC_PSC = RTC_PSC_RESET;
 305              		.loc 1 96 18 is_stmt 0
 306 0080 93871710 		addi	a5,a5,257
 307 0084 5CC0     		sw	a5,4(s0)
  97:C:/Users/stapi/OneDrive/Desktop/GD32VW553/GD32VW55X_Wifi_BLE_SDK/GD32VW55x_RELEASE_V1.0.2/MSDK/plf/GD32VW55x_standard_peripheral/Source\gd32vw55x_rtc.c ****         /* write protected and can only be written in initialization state */
 308              		.loc 1 97 9 is_stmt 1
  97:C:/Users/stapi/OneDrive/Desktop/GD32VW553/GD32VW55X_Wifi_BLE_SDK/GD32VW55x_RELEASE_V1.0.2/MSDK/plf/GD32VW55x_standard_peripheral/Source\gd32vw55x_rtc.c ****         /* write protected and can only be written in initialization state */
 309              		.loc 1 97 17 is_stmt 0
 310 0086 B7077F00 		li	a5,8323072
 311 008a 9387F70F 		addi	a5,a5,255
 312 008e 1CC8     		sw	a5,16(s0)
  99:C:/Users/stapi/OneDrive/Desktop/GD32VW553/GD32VW55X_Wifi_BLE_SDK/GD32VW55x_RELEASE_V1.0.2/MSDK/plf/GD32VW55x_standard_peripheral/Source\gd32vw55x_rtc.c ****         /* reset RTC_ICS register, also exit init mode.
 313              		.loc 1 99 9 is_stmt 1
  99:C:/Users/stapi/OneDrive/Desktop/GD32VW553/GD32VW55X_Wifi_BLE_SDK/GD32VW55x_RELEASE_V1.0.2/MSDK/plf/GD32VW55x_standard_peripheral/Source\gd32vw55x_rtc.c ****         /* reset RTC_ICS register, also exit init mode.
 314              		.loc 1 99 18 is_stmt 0
 315 0090 23AC0480 		sw	zero,-2024(s1)
 102:C:/Users/stapi/OneDrive/Desktop/GD32VW553/GD32VW55X_Wifi_BLE_SDK/GD32VW55x_RELEASE_V1.0.2/MSDK/plf/GD32VW55x_standard_peripheral/Source\gd32vw55x_rtc.c ****         /* reset RTC_SHIFTCTL and RTC_HRFC register, and the bits S1H, A1H, REFEN in RTC_CTL, these
 316              		.loc 1 102 9 is_stmt 1
 102:C:/Users/stapi/OneDrive/Desktop/GD32VW553/GD32VW55X_Wifi_BLE_SDK/GD32VW55x_RELEASE_V1.0.2/MSDK/plf/GD32VW55x_standard_peripheral/Source\gd32vw55x_rtc.c ****         /* reset RTC_SHIFTCTL and RTC_HRFC register, and the bits S1H, A1H, REFEN in RTC_CTL, these
 317              		.loc 1 102 18 is_stmt 0
 318 0094 23A60480 		sw	zero,-2036(s1)
 104:C:/Users/stapi/OneDrive/Desktop/GD32VW553/GD32VW55X_Wifi_BLE_SDK/GD32VW55x_RELEASE_V1.0.2/MSDK/plf/GD32VW55x_standard_peripheral/Source\gd32vw55x_rtc.c ****         RTC_HRFC = RTC_REGISTER_RESET;
 319              		.loc 1 104 9 is_stmt 1
 104:C:/Users/stapi/OneDrive/Desktop/GD32VW553/GD32VW55X_Wifi_BLE_SDK/GD32VW55x_RELEASE_V1.0.2/MSDK/plf/GD32VW55x_standard_peripheral/Source\gd32vw55x_rtc.c ****         RTC_HRFC = RTC_REGISTER_RESET;
 320              		.loc 1 104 22 is_stmt 0
 321 0098 23A60482 		sw	zero,-2004(s1)
 105:C:/Users/stapi/OneDrive/Desktop/GD32VW553/GD32VW55X_Wifi_BLE_SDK/GD32VW55x_RELEASE_V1.0.2/MSDK/plf/GD32VW55x_standard_peripheral/Source\gd32vw55x_rtc.c **** 
 322              		.loc 1 105 9 is_stmt 1
 105:C:/Users/stapi/OneDrive/Desktop/GD32VW553/GD32VW55X_Wifi_BLE_SDK/GD32VW55x_RELEASE_V1.0.2/MSDK/plf/GD32VW55x_standard_peripheral/Source\gd32vw55x_rtc.c **** 
 323              		.loc 1 105 18 is_stmt 0
 324 009c 23AE0482 		sw	zero,-1988(s1)
 107:C:/Users/stapi/OneDrive/Desktop/GD32VW553/GD32VW55X_Wifi_BLE_SDK/GD32VW55x_RELEASE_V1.0.2/MSDK/plf/GD32VW55x_standard_peripheral/Source\gd32vw55x_rtc.c **** 
 325              		.loc 1 107 9 is_stmt 1
 107:C:/Users/stapi/OneDrive/Desktop/GD32VW553/GD32VW55X_Wifi_BLE_SDK/GD32VW55x_RELEASE_V1.0.2/MSDK/plf/GD32VW55x_standard_peripheral/Source\gd32vw55x_rtc.c **** 
 326              		.loc 1 107 24 is_stmt 0
 327 00a0 97000000 		call	rtc_register_sync_wait
 327      E7800000 
 328              	.LVL19:
 110:C:/Users/stapi/OneDrive/Desktop/GD32VW553/GD32VW55X_Wifi_BLE_SDK/GD32VW55x_RELEASE_V1.0.2/MSDK/plf/GD32VW55x_standard_peripheral/Source\gd32vw55x_rtc.c **** 
 329              		.loc 1 110 9 is_stmt 1
 110:C:/Users/stapi/OneDrive/Desktop/GD32VW553/GD32VW55X_Wifi_BLE_SDK/GD32VW55x_RELEASE_V1.0.2/MSDK/plf/GD32VW55x_standard_peripheral/Source\gd32vw55x_rtc.c **** 
 330              		.loc 1 110 17 is_stmt 0
 331 00a8 9307F00F 		li	a5,255
 332 00ac 5CD0     		sw	a5,36(s0)
 113:C:/Users/stapi/OneDrive/Desktop/GD32VW553/GD32VW55X_Wifi_BLE_SDK/GD32VW55x_RELEASE_V1.0.2/MSDK/plf/GD32VW55x_standard_peripheral/Source\gd32vw55x_rtc.c **** }
 333              		.loc 1 113 5 is_stmt 1
 113:C:/Users/stapi/OneDrive/Desktop/GD32VW553/GD32VW55X_Wifi_BLE_SDK/GD32VW55x_RELEASE_V1.0.2/MSDK/plf/GD32VW55x_standard_peripheral/Source\gd32vw55x_rtc.c **** }
 334              		.loc 1 113 12 is_stmt 0
 335 00ae 11A0     		j	.L21
 336              	.LVL20:
 337              	.L22:
  78:C:/Users/stapi/OneDrive/Desktop/GD32VW553/GD32VW55X_Wifi_BLE_SDK/GD32VW55x_RELEASE_V1.0.2/MSDK/plf/GD32VW55x_standard_peripheral/Source\gd32vw55x_rtc.c ****         error_status = ERROR;
 338              		.loc 1 78 5 is_stmt 1
  78:C:/Users/stapi/OneDrive/Desktop/GD32VW553/GD32VW55X_Wifi_BLE_SDK/GD32VW55x_RELEASE_V1.0.2/MSDK/plf/GD32VW55x_standard_peripheral/Source\gd32vw55x_rtc.c ****         error_status = ERROR;
 339              		.loc 1 78 7 is_stmt 0
 340 00b0 59FD     		bne	a0,zero,.L24
 341              	.LVL21:
 342              	.L21:
 114:C:/Users/stapi/OneDrive/Desktop/GD32VW553/GD32VW55X_Wifi_BLE_SDK/GD32VW55x_RELEASE_V1.0.2/MSDK/plf/GD32VW55x_standard_peripheral/Source\gd32vw55x_rtc.c **** 
 343              		.loc 1 114 1
 344 00b2 4101     		addi	sp,sp,16
 345              		.cfi_def_cfa_offset 0
 346 00b4 17030000 		tail	__riscv_restore_2
 346      67000300 
 347              		.cfi_restore 9
 348              		.cfi_restore 8
 349              		.cfi_restore 1
 350              		.cfi_def_cfa_offset -16
 351              		.cfi_endproc
 352              	.LFE365:
 354              		.section	.text.rtc_init,"ax",@progbits
 355              		.align	1
 356              		.globl	rtc_init
 358              	rtc_init:
 359              	.LFB366:
 138:C:/Users/stapi/OneDrive/Desktop/GD32VW553/GD32VW55X_Wifi_BLE_SDK/GD32VW55x_RELEASE_V1.0.2/MSDK/plf/GD32VW55x_standard_peripheral/Source\gd32vw55x_rtc.c ****     ErrStatus error_status = ERROR;
 360              		.loc 1 138 1 is_stmt 1
 361              		.cfi_startproc
 362              	.LVL22:
 363 0000 17030000 		call	t0,__riscv_save_10
 363      E7020300 
 364              		.cfi_offset 25, -44
 365              		.cfi_offset 24, -40
 366              		.cfi_offset 23, -36
 367              		.cfi_offset 22, -32
 368              		.cfi_offset 21, -28
 369              		.cfi_offset 20, -24
 370              		.cfi_offset 19, -20
 371              		.cfi_offset 18, -16
 372              		.cfi_offset 9, -12
 373              		.cfi_offset 8, -8
 374              		.cfi_offset 1, -4
 375              		.cfi_def_cfa_offset 48
 139:C:/Users/stapi/OneDrive/Desktop/GD32VW553/GD32VW55X_Wifi_BLE_SDK/GD32VW55x_RELEASE_V1.0.2/MSDK/plf/GD32VW55x_standard_peripheral/Source\gd32vw55x_rtc.c ****     uint32_t reg_time = 0U, reg_date = 0U;
 376              		.loc 1 139 5
 377              	.LVL23:
 140:C:/Users/stapi/OneDrive/Desktop/GD32VW553/GD32VW55X_Wifi_BLE_SDK/GD32VW55x_RELEASE_V1.0.2/MSDK/plf/GD32VW55x_standard_peripheral/Source\gd32vw55x_rtc.c **** 
 378              		.loc 1 140 5
 142:C:/Users/stapi/OneDrive/Desktop/GD32VW553/GD32VW55X_Wifi_BLE_SDK/GD32VW55x_RELEASE_V1.0.2/MSDK/plf/GD32VW55x_standard_peripheral/Source\gd32vw55x_rtc.c ****                 DATE_DOW(rtc_initpara_struct->day_of_week) | \
 379              		.loc 1 142 5
 153:C:/Users/stapi/OneDrive/Desktop/GD32VW553/GD32VW55X_Wifi_BLE_SDK/GD32VW55x_RELEASE_V1.0.2/MSDK/plf/GD32VW55x_standard_peripheral/Source\gd32vw55x_rtc.c ****     RTC_WPK = RTC_UNLOCK_KEY2;
 380              		.loc 1 153 13 is_stmt 0
 381 0008 373C0040 		li	s8,1073754112
 382 000c 9307A00C 		li	a5,202
 142:C:/Users/stapi/OneDrive/Desktop/GD32VW553/GD32VW55X_Wifi_BLE_SDK/GD32VW55x_RELEASE_V1.0.2/MSDK/plf/GD32VW55x_standard_peripheral/Source\gd32vw55x_rtc.c ****                 DATE_DOW(rtc_initpara_struct->day_of_week) | \
 383              		.loc 1 142 17
 384 0010 83440500 		lbu	s1,0(a0)
 143:C:/Users/stapi/OneDrive/Desktop/GD32VW553/GD32VW55X_Wifi_BLE_SDK/GD32VW55x_RELEASE_V1.0.2/MSDK/plf/GD32VW55x_standard_peripheral/Source\gd32vw55x_rtc.c ****                 DATE_MON(rtc_initpara_struct->month) | \
 385              		.loc 1 143 17
 386 0014 034A3500 		lbu	s4,3(a0)
 144:C:/Users/stapi/OneDrive/Desktop/GD32VW553/GD32VW55X_Wifi_BLE_SDK/GD32VW55x_RELEASE_V1.0.2/MSDK/plf/GD32VW55x_standard_peripheral/Source\gd32vw55x_rtc.c ****                 DATE_DAY(rtc_initpara_struct->date));
 387              		.loc 1 144 17
 388 0018 83491500 		lbu	s3,1(a0)
 145:C:/Users/stapi/OneDrive/Desktop/GD32VW553/GD32VW55X_Wifi_BLE_SDK/GD32VW55x_RELEASE_V1.0.2/MSDK/plf/GD32VW55x_standard_peripheral/Source\gd32vw55x_rtc.c **** 
 389              		.loc 1 145 17
 390 001c 834B2500 		lbu	s7,2(a0)
 391              	.LVL24:
 147:C:/Users/stapi/OneDrive/Desktop/GD32VW553/GD32VW55X_Wifi_BLE_SDK/GD32VW55x_RELEASE_V1.0.2/MSDK/plf/GD32VW55x_standard_peripheral/Source\gd32vw55x_rtc.c ****                 TIME_HR(rtc_initpara_struct->hour)  | \
 392              		.loc 1 147 5 is_stmt 1
 147:C:/Users/stapi/OneDrive/Desktop/GD32VW553/GD32VW55X_Wifi_BLE_SDK/GD32VW55x_RELEASE_V1.0.2/MSDK/plf/GD32VW55x_standard_peripheral/Source\gd32vw55x_rtc.c ****                 TIME_HR(rtc_initpara_struct->hour)  | \
 393              		.loc 1 147 36 is_stmt 0
 394 0020 832CC500 		lw	s9,12(a0)
 148:C:/Users/stapi/OneDrive/Desktop/GD32VW553/GD32VW55X_Wifi_BLE_SDK/GD32VW55x_RELEASE_V1.0.2/MSDK/plf/GD32VW55x_standard_peripheral/Source\gd32vw55x_rtc.c ****                 TIME_MN(rtc_initpara_struct->minute) | \
 395              		.loc 1 148 17
 396 0024 03494500 		lbu	s2,4(a0)
 149:C:/Users/stapi/OneDrive/Desktop/GD32VW553/GD32VW55X_Wifi_BLE_SDK/GD32VW55x_RELEASE_V1.0.2/MSDK/plf/GD32VW55x_standard_peripheral/Source\gd32vw55x_rtc.c ****                 TIME_SC(rtc_initpara_struct->second));
 397              		.loc 1 149 17
 398 0028 834A5500 		lbu	s5,5(a0)
 150:C:/Users/stapi/OneDrive/Desktop/GD32VW553/GD32VW55X_Wifi_BLE_SDK/GD32VW55x_RELEASE_V1.0.2/MSDK/plf/GD32VW55x_standard_peripheral/Source\gd32vw55x_rtc.c **** 
 399              		.loc 1 150 17
 400 002c 034B6500 		lbu	s6,6(a0)
 401              	.LVL25:
 153:C:/Users/stapi/OneDrive/Desktop/GD32VW553/GD32VW55X_Wifi_BLE_SDK/GD32VW55x_RELEASE_V1.0.2/MSDK/plf/GD32VW55x_standard_peripheral/Source\gd32vw55x_rtc.c ****     RTC_WPK = RTC_UNLOCK_KEY2;
 402              		.loc 1 153 5 is_stmt 1
 153:C:/Users/stapi/OneDrive/Desktop/GD32VW553/GD32VW55X_Wifi_BLE_SDK/GD32VW55x_RELEASE_V1.0.2/MSDK/plf/GD32VW55x_standard_peripheral/Source\gd32vw55x_rtc.c ****     RTC_WPK = RTC_UNLOCK_KEY2;
 403              		.loc 1 153 13 is_stmt 0
 404 0030 2322FC82 		sw	a5,-2012(s8)
 154:C:/Users/stapi/OneDrive/Desktop/GD32VW553/GD32VW55X_Wifi_BLE_SDK/GD32VW55x_RELEASE_V1.0.2/MSDK/plf/GD32VW55x_standard_peripheral/Source\gd32vw55x_rtc.c **** 
 405              		.loc 1 154 5 is_stmt 1
 154:C:/Users/stapi/OneDrive/Desktop/GD32VW553/GD32VW55X_Wifi_BLE_SDK/GD32VW55x_RELEASE_V1.0.2/MSDK/plf/GD32VW55x_standard_peripheral/Source\gd32vw55x_rtc.c **** 
 406              		.loc 1 154 13 is_stmt 0
 407 0034 93073005 		li	a5,83
 408 0038 2322FC82 		sw	a5,-2012(s8)
 157:C:/Users/stapi/OneDrive/Desktop/GD32VW553/GD32VW55X_Wifi_BLE_SDK/GD32VW55x_RELEASE_V1.0.2/MSDK/plf/GD32VW55x_standard_peripheral/Source\gd32vw55x_rtc.c **** 
 409              		.loc 1 157 5 is_stmt 1
 138:C:/Users/stapi/OneDrive/Desktop/GD32VW553/GD32VW55X_Wifi_BLE_SDK/GD32VW55x_RELEASE_V1.0.2/MSDK/plf/GD32VW55x_standard_peripheral/Source\gd32vw55x_rtc.c ****     ErrStatus error_status = ERROR;
 410              		.loc 1 138 1 is_stmt 0
 411 003c 2A84     		mv	s0,a0
 157:C:/Users/stapi/OneDrive/Desktop/GD32VW553/GD32VW55X_Wifi_BLE_SDK/GD32VW55x_RELEASE_V1.0.2/MSDK/plf/GD32VW55x_standard_peripheral/Source\gd32vw55x_rtc.c **** 
 412              		.loc 1 157 20
 413 003e 97000000 		call	rtc_init_mode_enter
 413      E7800000 
 414              	.LVL26:
 159:C:/Users/stapi/OneDrive/Desktop/GD32VW553/GD32VW55X_Wifi_BLE_SDK/GD32VW55x_RELEASE_V1.0.2/MSDK/plf/GD32VW55x_standard_peripheral/Source\gd32vw55x_rtc.c ****         RTC_PSC = (uint32_t)(PSC_FACTOR_A(rtc_initpara_struct->factor_asyn) | \
 415              		.loc 1 159 5 is_stmt 1
 159:C:/Users/stapi/OneDrive/Desktop/GD32VW553/GD32VW55X_Wifi_BLE_SDK/GD32VW55x_RELEASE_V1.0.2/MSDK/plf/GD32VW55x_standard_peripheral/Source\gd32vw55x_rtc.c ****         RTC_PSC = (uint32_t)(PSC_FACTOR_A(rtc_initpara_struct->factor_asyn) | \
 416              		.loc 1 159 7 is_stmt 0
 417 0046 49C9     		beq	a0,zero,.L33
 160:C:/Users/stapi/OneDrive/Desktop/GD32VW553/GD32VW55X_Wifi_BLE_SDK/GD32VW55x_RELEASE_V1.0.2/MSDK/plf/GD32VW55x_standard_peripheral/Source\gd32vw55x_rtc.c ****                              PSC_FACTOR_S(rtc_initpara_struct->factor_syn));
 418              		.loc 1 160 9 is_stmt 1
 160:C:/Users/stapi/OneDrive/Desktop/GD32VW553/GD32VW55X_Wifi_BLE_SDK/GD32VW55x_RELEASE_V1.0.2/MSDK/plf/GD32VW55x_standard_peripheral/Source\gd32vw55x_rtc.c ****                              PSC_FACTOR_S(rtc_initpara_struct->factor_syn));
 419              		.loc 1 160 30 is_stmt 0
 420 0048 03578400 		lhu	a4,8(s0)
 161:C:/Users/stapi/OneDrive/Desktop/GD32VW553/GD32VW55X_Wifi_BLE_SDK/GD32VW55x_RELEASE_V1.0.2/MSDK/plf/GD32VW55x_standard_peripheral/Source\gd32vw55x_rtc.c **** 
 421              		.loc 1 161 30
 422 004c 0356A400 		lhu	a2,10(s0)
 160:C:/Users/stapi/OneDrive/Desktop/GD32VW553/GD32VW55X_Wifi_BLE_SDK/GD32VW55x_RELEASE_V1.0.2/MSDK/plf/GD32VW55x_standard_peripheral/Source\gd32vw55x_rtc.c ****                              PSC_FACTOR_S(rtc_initpara_struct->factor_syn));
 423              		.loc 1 160 30
 424 0050 B7077F00 		li	a5,8323072
 161:C:/Users/stapi/OneDrive/Desktop/GD32VW553/GD32VW55X_Wifi_BLE_SDK/GD32VW55x_RELEASE_V1.0.2/MSDK/plf/GD32VW55x_standard_peripheral/Source\gd32vw55x_rtc.c **** 
 425              		.loc 1 161 30
 426 0054 A166     		li	a3,32768
 160:C:/Users/stapi/OneDrive/Desktop/GD32VW553/GD32VW55X_Wifi_BLE_SDK/GD32VW55x_RELEASE_V1.0.2/MSDK/plf/GD32VW55x_standard_peripheral/Source\gd32vw55x_rtc.c ****                              PSC_FACTOR_S(rtc_initpara_struct->factor_syn));
 427              		.loc 1 160 30
 428 0056 4207     		slli	a4,a4,16
 429 0058 7D8F     		and	a4,a4,a5
 161:C:/Users/stapi/OneDrive/Desktop/GD32VW553/GD32VW55X_Wifi_BLE_SDK/GD32VW55x_RELEASE_V1.0.2/MSDK/plf/GD32VW55x_standard_peripheral/Source\gd32vw55x_rtc.c **** 
 430              		.loc 1 161 30
 431 005a 9387F6FF 		addi	a5,a3,-1
 432 005e F18F     		and	a5,a5,a2
 160:C:/Users/stapi/OneDrive/Desktop/GD32VW553/GD32VW55X_Wifi_BLE_SDK/GD32VW55x_RELEASE_V1.0.2/MSDK/plf/GD32VW55x_standard_peripheral/Source\gd32vw55x_rtc.c ****                              PSC_FACTOR_S(rtc_initpara_struct->factor_syn));
 433              		.loc 1 160 19
 434 0060 5D8F     		or	a4,a4,a5
 160:C:/Users/stapi/OneDrive/Desktop/GD32VW553/GD32VW55X_Wifi_BLE_SDK/GD32VW55x_RELEASE_V1.0.2/MSDK/plf/GD32VW55x_standard_peripheral/Source\gd32vw55x_rtc.c ****                              PSC_FACTOR_S(rtc_initpara_struct->factor_syn));
 435              		.loc 1 160 17
 436 0062 93070C80 		addi	a5,s8,-2048
 437 0066 98CB     		sw	a4,16(a5)
 163:C:/Users/stapi/OneDrive/Desktop/GD32VW553/GD32VW55X_Wifi_BLE_SDK/GD32VW55x_RELEASE_V1.0.2/MSDK/plf/GD32VW55x_standard_peripheral/Source\gd32vw55x_rtc.c ****         RTC_DATE = (uint32_t)reg_date;
 438              		.loc 1 163 9 is_stmt 1
 148:C:/Users/stapi/OneDrive/Desktop/GD32VW553/GD32VW55X_Wifi_BLE_SDK/GD32VW55x_RELEASE_V1.0.2/MSDK/plf/GD32VW55x_standard_peripheral/Source\gd32vw55x_rtc.c ****                 TIME_MN(rtc_initpara_struct->minute) | \
 439              		.loc 1 148 17 is_stmt 0
 440 0068 4209     		slli	s2,s2,16
 441              	.LVL27:
 442 006a 37073F00 		li	a4,4128768
 443 006e 3379E900 		and	s2,s2,a4
 150:C:/Users/stapi/OneDrive/Desktop/GD32VW553/GD32VW55X_Wifi_BLE_SDK/GD32VW55x_RELEASE_V1.0.2/MSDK/plf/GD32VW55x_standard_peripheral/Source\gd32vw55x_rtc.c **** 
 444              		.loc 1 150 17
 445 0072 137BFB07 		andi	s6,s6,127
 143:C:/Users/stapi/OneDrive/Desktop/GD32VW553/GD32VW55X_Wifi_BLE_SDK/GD32VW55x_RELEASE_V1.0.2/MSDK/plf/GD32VW55x_standard_peripheral/Source\gd32vw55x_rtc.c ****                 DATE_MON(rtc_initpara_struct->month) | \
 446              		.loc 1 143 17
 447 0076 3967     		li	a4,57344
 448 0078 360A     		slli	s4,s4,13
 449              	.LVL28:
 149:C:/Users/stapi/OneDrive/Desktop/GD32VW553/GD32VW55X_Wifi_BLE_SDK/GD32VW55x_RELEASE_V1.0.2/MSDK/plf/GD32VW55x_standard_peripheral/Source\gd32vw55x_rtc.c ****                 TIME_SC(rtc_initpara_struct->second));
 450              		.loc 1 149 17
 451 007a 938606F0 		addi	a3,a3,-256
 143:C:/Users/stapi/OneDrive/Desktop/GD32VW553/GD32VW55X_Wifi_BLE_SDK/GD32VW55x_RELEASE_V1.0.2/MSDK/plf/GD32VW55x_standard_peripheral/Source\gd32vw55x_rtc.c ****                 DATE_MON(rtc_initpara_struct->month) | \
 452              		.loc 1 143 17
 453 007e 337AEA00 		and	s4,s4,a4
 147:C:/Users/stapi/OneDrive/Desktop/GD32VW553/GD32VW55X_Wifi_BLE_SDK/GD32VW55x_RELEASE_V1.0.2/MSDK/plf/GD32VW55x_standard_peripheral/Source\gd32vw55x_rtc.c ****                 TIME_HR(rtc_initpara_struct->hour)  | \
 454              		.loc 1 147 14
 455 0082 336B9B01 		or	s6,s6,s9
 149:C:/Users/stapi/OneDrive/Desktop/GD32VW553/GD32VW55X_Wifi_BLE_SDK/GD32VW55x_RELEASE_V1.0.2/MSDK/plf/GD32VW55x_standard_peripheral/Source\gd32vw55x_rtc.c ****                 TIME_SC(rtc_initpara_struct->second));
 456              		.loc 1 149 17
 457 0086 A20A     		slli	s5,s5,8
 142:C:/Users/stapi/OneDrive/Desktop/GD32VW553/GD32VW55X_Wifi_BLE_SDK/GD32VW55x_RELEASE_V1.0.2/MSDK/plf/GD32VW55x_standard_peripheral/Source\gd32vw55x_rtc.c ****                 DATE_DOW(rtc_initpara_struct->day_of_week) | \
 458              		.loc 1 142 17
 459 0088 C204     		slli	s1,s1,16
 145:C:/Users/stapi/OneDrive/Desktop/GD32VW553/GD32VW55X_Wifi_BLE_SDK/GD32VW55x_RELEASE_V1.0.2/MSDK/plf/GD32VW55x_standard_peripheral/Source\gd32vw55x_rtc.c **** 
 460              		.loc 1 145 17
 461 008a 93FBFB03 		andi	s7,s7,63
 144:C:/Users/stapi/OneDrive/Desktop/GD32VW553/GD32VW55X_Wifi_BLE_SDK/GD32VW55x_RELEASE_V1.0.2/MSDK/plf/GD32VW55x_standard_peripheral/Source\gd32vw55x_rtc.c ****                 DATE_DAY(rtc_initpara_struct->date));
 462              		.loc 1 144 17
 463 008e 0967     		li	a4,8192
 149:C:/Users/stapi/OneDrive/Desktop/GD32VW553/GD32VW55X_Wifi_BLE_SDK/GD32VW55x_RELEASE_V1.0.2/MSDK/plf/GD32VW55x_standard_peripheral/Source\gd32vw55x_rtc.c ****                 TIME_SC(rtc_initpara_struct->second));
 464              		.loc 1 149 17
 465 0090 B3FADA00 		and	s5,s5,a3
 144:C:/Users/stapi/OneDrive/Desktop/GD32VW553/GD32VW55X_Wifi_BLE_SDK/GD32VW55x_RELEASE_V1.0.2/MSDK/plf/GD32VW55x_standard_peripheral/Source\gd32vw55x_rtc.c ****                 DATE_DAY(rtc_initpara_struct->date));
 466              		.loc 1 144 17
 467 0094 130707F0 		addi	a4,a4,-256
 147:C:/Users/stapi/OneDrive/Desktop/GD32VW553/GD32VW55X_Wifi_BLE_SDK/GD32VW55x_RELEASE_V1.0.2/MSDK/plf/GD32VW55x_standard_peripheral/Source\gd32vw55x_rtc.c ****                 TIME_HR(rtc_initpara_struct->hour)  | \
 468              		.loc 1 147 14
 469 0098 33696901 		or	s2,s2,s6
 142:C:/Users/stapi/OneDrive/Desktop/GD32VW553/GD32VW55X_Wifi_BLE_SDK/GD32VW55x_RELEASE_V1.0.2/MSDK/plf/GD32VW55x_standard_peripheral/Source\gd32vw55x_rtc.c ****                 DATE_DOW(rtc_initpara_struct->day_of_week) | \
 470              		.loc 1 142 14
 471 009c B3E47401 		or	s1,s1,s7
 144:C:/Users/stapi/OneDrive/Desktop/GD32VW553/GD32VW55X_Wifi_BLE_SDK/GD32VW55x_RELEASE_V1.0.2/MSDK/plf/GD32VW55x_standard_peripheral/Source\gd32vw55x_rtc.c ****                 DATE_DAY(rtc_initpara_struct->date));
 472              		.loc 1 144 17
 473 00a0 A209     		slli	s3,s3,8
 474 00a2 B3F9E900 		and	s3,s3,a4
 147:C:/Users/stapi/OneDrive/Desktop/GD32VW553/GD32VW55X_Wifi_BLE_SDK/GD32VW55x_RELEASE_V1.0.2/MSDK/plf/GD32VW55x_standard_peripheral/Source\gd32vw55x_rtc.c ****                 TIME_HR(rtc_initpara_struct->hour)  | \
 475              		.loc 1 147 14
 476 00a6 33695901 		or	s2,s2,s5
 142:C:/Users/stapi/OneDrive/Desktop/GD32VW553/GD32VW55X_Wifi_BLE_SDK/GD32VW55x_RELEASE_V1.0.2/MSDK/plf/GD32VW55x_standard_peripheral/Source\gd32vw55x_rtc.c ****                 DATE_DOW(rtc_initpara_struct->day_of_week) | \
 477              		.loc 1 142 14
 478 00aa B3E44401 		or	s1,s1,s4
 163:C:/Users/stapi/OneDrive/Desktop/GD32VW553/GD32VW55X_Wifi_BLE_SDK/GD32VW55x_RELEASE_V1.0.2/MSDK/plf/GD32VW55x_standard_peripheral/Source\gd32vw55x_rtc.c ****         RTC_DATE = (uint32_t)reg_date;
 479              		.loc 1 163 18
 480 00ae 23A02701 		sw	s2,0(a5)
 164:C:/Users/stapi/OneDrive/Desktop/GD32VW553/GD32VW55X_Wifi_BLE_SDK/GD32VW55x_RELEASE_V1.0.2/MSDK/plf/GD32VW55x_standard_peripheral/Source\gd32vw55x_rtc.c **** 
 481              		.loc 1 164 9 is_stmt 1
 142:C:/Users/stapi/OneDrive/Desktop/GD32VW553/GD32VW55X_Wifi_BLE_SDK/GD32VW55x_RELEASE_V1.0.2/MSDK/plf/GD32VW55x_standard_peripheral/Source\gd32vw55x_rtc.c ****                 DATE_DOW(rtc_initpara_struct->day_of_week) | \
 482              		.loc 1 142 14 is_stmt 0
 483 00b2 B3E43401 		or	s1,s1,s3
 164:C:/Users/stapi/OneDrive/Desktop/GD32VW553/GD32VW55X_Wifi_BLE_SDK/GD32VW55x_RELEASE_V1.0.2/MSDK/plf/GD32VW55x_standard_peripheral/Source\gd32vw55x_rtc.c **** 
 484              		.loc 1 164 18
 485 00b6 C4C3     		sw	s1,4(a5)
 166:C:/Users/stapi/OneDrive/Desktop/GD32VW553/GD32VW55X_Wifi_BLE_SDK/GD32VW55x_RELEASE_V1.0.2/MSDK/plf/GD32VW55x_standard_peripheral/Source\gd32vw55x_rtc.c ****         RTC_CTL |=  rtc_initpara_struct->display_format;
 486              		.loc 1 166 9 is_stmt 1
 166:C:/Users/stapi/OneDrive/Desktop/GD32VW553/GD32VW55X_Wifi_BLE_SDK/GD32VW55x_RELEASE_V1.0.2/MSDK/plf/GD32VW55x_standard_peripheral/Source\gd32vw55x_rtc.c ****         RTC_CTL |=  rtc_initpara_struct->display_format;
 487              		.loc 1 166 17 is_stmt 0
 488 00b8 9847     		lw	a4,8(a5)
 489 00ba 1377F7FB 		andi	a4,a4,-65
 490 00be 98C7     		sw	a4,8(a5)
 167:C:/Users/stapi/OneDrive/Desktop/GD32VW553/GD32VW55X_Wifi_BLE_SDK/GD32VW55x_RELEASE_V1.0.2/MSDK/plf/GD32VW55x_standard_peripheral/Source\gd32vw55x_rtc.c **** 
 491              		.loc 1 167 9 is_stmt 1
 167:C:/Users/stapi/OneDrive/Desktop/GD32VW553/GD32VW55X_Wifi_BLE_SDK/GD32VW55x_RELEASE_V1.0.2/MSDK/plf/GD32VW55x_standard_peripheral/Source\gd32vw55x_rtc.c **** 
 492              		.loc 1 167 17 is_stmt 0
 493 00c0 9847     		lw	a4,8(a5)
 494 00c2 1448     		lw	a3,16(s0)
 495 00c4 558F     		or	a4,a4,a3
 496 00c6 98C7     		sw	a4,8(a5)
 170:C:/Users/stapi/OneDrive/Desktop/GD32VW553/GD32VW55X_Wifi_BLE_SDK/GD32VW55x_RELEASE_V1.0.2/MSDK/plf/GD32VW55x_standard_peripheral/Source\gd32vw55x_rtc.c **** 
 497              		.loc 1 170 9 is_stmt 1
 498 00c8 97000000 		call	rtc_init_mode_exit
 498      E7800000 
 499              	.LVL29:
 173:C:/Users/stapi/OneDrive/Desktop/GD32VW553/GD32VW55X_Wifi_BLE_SDK/GD32VW55x_RELEASE_V1.0.2/MSDK/plf/GD32VW55x_standard_peripheral/Source\gd32vw55x_rtc.c ****     }
 500              		.loc 1 173 9
 173:C:/Users/stapi/OneDrive/Desktop/GD32VW553/GD32VW55X_Wifi_BLE_SDK/GD32VW55x_RELEASE_V1.0.2/MSDK/plf/GD32VW55x_standard_peripheral/Source\gd32vw55x_rtc.c ****     }
 501              		.loc 1 173 24 is_stmt 0
 502 00d0 97000000 		call	rtc_register_sync_wait
 502      E7800000 
 503              	.LVL30:
 504              	.L33:
 177:C:/Users/stapi/OneDrive/Desktop/GD32VW553/GD32VW55X_Wifi_BLE_SDK/GD32VW55x_RELEASE_V1.0.2/MSDK/plf/GD32VW55x_standard_peripheral/Source\gd32vw55x_rtc.c **** 
 505              		.loc 1 177 5 is_stmt 1
 177:C:/Users/stapi/OneDrive/Desktop/GD32VW553/GD32VW55X_Wifi_BLE_SDK/GD32VW55x_RELEASE_V1.0.2/MSDK/plf/GD32VW55x_standard_peripheral/Source\gd32vw55x_rtc.c **** 
 506              		.loc 1 177 13 is_stmt 0
 507 00d8 B7370040 		li	a5,1073754112
 508 00dc 1307F00F 		li	a4,255
 509 00e0 23A2E782 		sw	a4,-2012(a5)
 179:C:/Users/stapi/OneDrive/Desktop/GD32VW553/GD32VW55X_Wifi_BLE_SDK/GD32VW55x_RELEASE_V1.0.2/MSDK/plf/GD32VW55x_standard_peripheral/Source\gd32vw55x_rtc.c **** }
 510              		.loc 1 179 5 is_stmt 1
 180:C:/Users/stapi/OneDrive/Desktop/GD32VW553/GD32VW55X_Wifi_BLE_SDK/GD32VW55x_RELEASE_V1.0.2/MSDK/plf/GD32VW55x_standard_peripheral/Source\gd32vw55x_rtc.c **** 
 511              		.loc 1 180 1 is_stmt 0
 512 00e4 17030000 		tail	__riscv_restore_10
 512      67000300 
 513              		.cfi_restore 25
 514              		.cfi_restore 24
 515              		.cfi_restore 23
 516              		.cfi_restore 22
 517              		.cfi_restore 21
 518              		.cfi_restore 20
 519              		.cfi_restore 19
 520              		.cfi_restore 18
 521              		.cfi_restore 9
 522              		.cfi_restore 8
 523              		.cfi_restore 1
 524              		.cfi_def_cfa_offset 0
 525              		.cfi_endproc
 526              	.LFE366:
 528              		.section	.text.rtc_current_time_get,"ax",@progbits
 529              		.align	1
 530              		.globl	rtc_current_time_get
 532              	rtc_current_time_get:
 533              	.LFB370:
 261:C:/Users/stapi/OneDrive/Desktop/GD32VW553/GD32VW55X_Wifi_BLE_SDK/GD32VW55x_RELEASE_V1.0.2/MSDK/plf/GD32VW55x_standard_peripheral/Source\gd32vw55x_rtc.c **** 
 262:C:/Users/stapi/OneDrive/Desktop/GD32VW553/GD32VW55X_Wifi_BLE_SDK/GD32VW55x_RELEASE_V1.0.2/MSDK/plf/GD32VW55x_standard_peripheral/Source\gd32vw55x_rtc.c **** /*!
 263:C:/Users/stapi/OneDrive/Desktop/GD32VW553/GD32VW55X_Wifi_BLE_SDK/GD32VW55x_RELEASE_V1.0.2/MSDK/plf/GD32VW55x_standard_peripheral/Source\gd32vw55x_rtc.c ****     \brief      get current time and date
 264:C:/Users/stapi/OneDrive/Desktop/GD32VW553/GD32VW55X_Wifi_BLE_SDK/GD32VW55x_RELEASE_V1.0.2/MSDK/plf/GD32VW55x_standard_peripheral/Source\gd32vw55x_rtc.c ****     \param[in]  none
 265:C:/Users/stapi/OneDrive/Desktop/GD32VW553/GD32VW55X_Wifi_BLE_SDK/GD32VW55x_RELEASE_V1.0.2/MSDK/plf/GD32VW55x_standard_peripheral/Source\gd32vw55x_rtc.c ****     \param[out] rtc_initpara_struct: pointer to a rtc_parameter_struct structure which contains
 266:C:/Users/stapi/OneDrive/Desktop/GD32VW553/GD32VW55X_Wifi_BLE_SDK/GD32VW55x_RELEASE_V1.0.2/MSDK/plf/GD32VW55x_standard_peripheral/Source\gd32vw55x_rtc.c ****                 parameters for initialization of the rtc peripheral
 267:C:/Users/stapi/OneDrive/Desktop/GD32VW553/GD32VW55X_Wifi_BLE_SDK/GD32VW55x_RELEASE_V1.0.2/MSDK/plf/GD32VW55x_standard_peripheral/Source\gd32vw55x_rtc.c ****                 members of the structure and the member values are shown as below:
 268:C:/Users/stapi/OneDrive/Desktop/GD32VW553/GD32VW55X_Wifi_BLE_SDK/GD32VW55x_RELEASE_V1.0.2/MSDK/plf/GD32VW55x_standard_peripheral/Source\gd32vw55x_rtc.c ****                   year: 0x0 - 0x99(BCD format)
 269:C:/Users/stapi/OneDrive/Desktop/GD32VW553/GD32VW55X_Wifi_BLE_SDK/GD32VW55x_RELEASE_V1.0.2/MSDK/plf/GD32VW55x_standard_peripheral/Source\gd32vw55x_rtc.c ****                   month: RTC_JAN, RTC_FEB, RTC_MAR, RTC_APR, RTC_MAY, RTC_JUN,
 270:C:/Users/stapi/OneDrive/Desktop/GD32VW553/GD32VW55X_Wifi_BLE_SDK/GD32VW55x_RELEASE_V1.0.2/MSDK/plf/GD32VW55x_standard_peripheral/Source\gd32vw55x_rtc.c ****                              RTC_JUL, RTC_AUG, RTC_SEP, RTC_OCT, RTC_NOV, RTC_DEC
 271:C:/Users/stapi/OneDrive/Desktop/GD32VW553/GD32VW55X_Wifi_BLE_SDK/GD32VW55x_RELEASE_V1.0.2/MSDK/plf/GD32VW55x_standard_peripheral/Source\gd32vw55x_rtc.c ****                   date: 0x1 - 0x31(BCD format)
 272:C:/Users/stapi/OneDrive/Desktop/GD32VW553/GD32VW55X_Wifi_BLE_SDK/GD32VW55x_RELEASE_V1.0.2/MSDK/plf/GD32VW55x_standard_peripheral/Source\gd32vw55x_rtc.c ****                   day_of_week: RTC_MONDAY, RTC_TUESDAY, RTC_WEDNESDAY, RTC_THURSDAY
 273:C:/Users/stapi/OneDrive/Desktop/GD32VW553/GD32VW55X_Wifi_BLE_SDK/GD32VW55x_RELEASE_V1.0.2/MSDK/plf/GD32VW55x_standard_peripheral/Source\gd32vw55x_rtc.c ****                                    RTC_FRIDAY, RTC_SATURDAY, RTC_SUNDAY
 274:C:/Users/stapi/OneDrive/Desktop/GD32VW553/GD32VW55X_Wifi_BLE_SDK/GD32VW55x_RELEASE_V1.0.2/MSDK/plf/GD32VW55x_standard_peripheral/Source\gd32vw55x_rtc.c ****                   hour: 0x0 - 0x12(BCD format) or 0x0 - 0x23(BCD format) depending on the rtc displ
 275:C:/Users/stapi/OneDrive/Desktop/GD32VW553/GD32VW55X_Wifi_BLE_SDK/GD32VW55x_RELEASE_V1.0.2/MSDK/plf/GD32VW55x_standard_peripheral/Source\gd32vw55x_rtc.c ****                   minute: 0x0 - 0x59(BCD format)
 276:C:/Users/stapi/OneDrive/Desktop/GD32VW553/GD32VW55X_Wifi_BLE_SDK/GD32VW55x_RELEASE_V1.0.2/MSDK/plf/GD32VW55x_standard_peripheral/Source\gd32vw55x_rtc.c ****                   second: 0x0 - 0x59(BCD format)
 277:C:/Users/stapi/OneDrive/Desktop/GD32VW553/GD32VW55X_Wifi_BLE_SDK/GD32VW55x_RELEASE_V1.0.2/MSDK/plf/GD32VW55x_standard_peripheral/Source\gd32vw55x_rtc.c ****                   factor_asyn: 0x0 - 0x7F
 278:C:/Users/stapi/OneDrive/Desktop/GD32VW553/GD32VW55X_Wifi_BLE_SDK/GD32VW55x_RELEASE_V1.0.2/MSDK/plf/GD32VW55x_standard_peripheral/Source\gd32vw55x_rtc.c ****                   factor_syn: 0x0 - 0x7FFF
 279:C:/Users/stapi/OneDrive/Desktop/GD32VW553/GD32VW55X_Wifi_BLE_SDK/GD32VW55x_RELEASE_V1.0.2/MSDK/plf/GD32VW55x_standard_peripheral/Source\gd32vw55x_rtc.c ****                   am_pm: RTC_AM, RTC_PM
 280:C:/Users/stapi/OneDrive/Desktop/GD32VW553/GD32VW55X_Wifi_BLE_SDK/GD32VW55x_RELEASE_V1.0.2/MSDK/plf/GD32VW55x_standard_peripheral/Source\gd32vw55x_rtc.c ****                   display_format: RTC_24HOUR, RTC_12HOUR
 281:C:/Users/stapi/OneDrive/Desktop/GD32VW553/GD32VW55X_Wifi_BLE_SDK/GD32VW55x_RELEASE_V1.0.2/MSDK/plf/GD32VW55x_standard_peripheral/Source\gd32vw55x_rtc.c ****     \retval     none
 282:C:/Users/stapi/OneDrive/Desktop/GD32VW553/GD32VW55X_Wifi_BLE_SDK/GD32VW55x_RELEASE_V1.0.2/MSDK/plf/GD32VW55x_standard_peripheral/Source\gd32vw55x_rtc.c **** */
 283:C:/Users/stapi/OneDrive/Desktop/GD32VW553/GD32VW55X_Wifi_BLE_SDK/GD32VW55x_RELEASE_V1.0.2/MSDK/plf/GD32VW55x_standard_peripheral/Source\gd32vw55x_rtc.c **** void rtc_current_time_get(rtc_parameter_struct *rtc_initpara_struct)
 284:C:/Users/stapi/OneDrive/Desktop/GD32VW553/GD32VW55X_Wifi_BLE_SDK/GD32VW55x_RELEASE_V1.0.2/MSDK/plf/GD32VW55x_standard_peripheral/Source\gd32vw55x_rtc.c **** {
 534              		.loc 1 284 1 is_stmt 1
 535              		.cfi_startproc
 536              	.LVL31:
 285:C:/Users/stapi/OneDrive/Desktop/GD32VW553/GD32VW55X_Wifi_BLE_SDK/GD32VW55x_RELEASE_V1.0.2/MSDK/plf/GD32VW55x_standard_peripheral/Source\gd32vw55x_rtc.c ****     uint32_t temp_tr = 0U, temp_dr = 0U, temp_pscr = 0U, temp_ctlr = 0U;
 537              		.loc 1 285 5
 286:C:/Users/stapi/OneDrive/Desktop/GD32VW553/GD32VW55X_Wifi_BLE_SDK/GD32VW55x_RELEASE_V1.0.2/MSDK/plf/GD32VW55x_standard_peripheral/Source\gd32vw55x_rtc.c **** 
 287:C:/Users/stapi/OneDrive/Desktop/GD32VW553/GD32VW55X_Wifi_BLE_SDK/GD32VW55x_RELEASE_V1.0.2/MSDK/plf/GD32VW55x_standard_peripheral/Source\gd32vw55x_rtc.c ****     temp_tr = (uint32_t)RTC_TIME;
 538              		.loc 1 287 5
 539              		.loc 1 287 13 is_stmt 0
 540 0000 37360040 		li	a2,1073754112
 541 0004 13060680 		addi	a2,a2,-2048
 542 0008 1842     		lw	a4,0(a2)
 543              	.LVL32:
 288:C:/Users/stapi/OneDrive/Desktop/GD32VW553/GD32VW55X_Wifi_BLE_SDK/GD32VW55x_RELEASE_V1.0.2/MSDK/plf/GD32VW55x_standard_peripheral/Source\gd32vw55x_rtc.c ****     temp_dr = (uint32_t)RTC_DATE;
 544              		.loc 1 288 5 is_stmt 1
 545              		.loc 1 288 13 is_stmt 0
 546 000a 5C42     		lw	a5,4(a2)
 547              	.LVL33:
 289:C:/Users/stapi/OneDrive/Desktop/GD32VW553/GD32VW55X_Wifi_BLE_SDK/GD32VW55x_RELEASE_V1.0.2/MSDK/plf/GD32VW55x_standard_peripheral/Source\gd32vw55x_rtc.c ****     temp_pscr = (uint32_t)RTC_PSC;
 548              		.loc 1 289 5 is_stmt 1
 549              		.loc 1 289 15 is_stmt 0
 550 000c 144A     		lw	a3,16(a2)
 551              	.LVL34:
 290:C:/Users/stapi/OneDrive/Desktop/GD32VW553/GD32VW55X_Wifi_BLE_SDK/GD32VW55x_RELEASE_V1.0.2/MSDK/plf/GD32VW55x_standard_peripheral/Source\gd32vw55x_rtc.c ****     temp_ctlr = (uint32_t)RTC_CTL;
 552              		.loc 1 290 5 is_stmt 1
 553              		.loc 1 290 15 is_stmt 0
 554 000e 1046     		lw	a2,8(a2)
 555              	.LVL35:
 291:C:/Users/stapi/OneDrive/Desktop/GD32VW553/GD32VW55X_Wifi_BLE_SDK/GD32VW55x_RELEASE_V1.0.2/MSDK/plf/GD32VW55x_standard_peripheral/Source\gd32vw55x_rtc.c **** 
 292:C:/Users/stapi/OneDrive/Desktop/GD32VW553/GD32VW55X_Wifi_BLE_SDK/GD32VW55x_RELEASE_V1.0.2/MSDK/plf/GD32VW55x_standard_peripheral/Source\gd32vw55x_rtc.c ****     /* get current time and construct rtc_parameter_struct structure */
 293:C:/Users/stapi/OneDrive/Desktop/GD32VW553/GD32VW55X_Wifi_BLE_SDK/GD32VW55x_RELEASE_V1.0.2/MSDK/plf/GD32VW55x_standard_peripheral/Source\gd32vw55x_rtc.c ****     rtc_initpara_struct->year = (uint8_t)GET_DATE_YR(temp_dr);
 556              		.loc 1 293 5 is_stmt 1
 557              		.loc 1 293 42 is_stmt 0
 558 0010 93D50701 		srli	a1,a5,16
 559              		.loc 1 293 33
 560 0014 2300B500 		sb	a1,0(a0)
 294:C:/Users/stapi/OneDrive/Desktop/GD32VW553/GD32VW55X_Wifi_BLE_SDK/GD32VW55x_RELEASE_V1.0.2/MSDK/plf/GD32VW55x_standard_peripheral/Source\gd32vw55x_rtc.c ****     rtc_initpara_struct->month = (uint8_t)GET_DATE_MON(temp_dr);
 561              		.loc 1 294 5 is_stmt 1
 562              		.loc 1 294 43 is_stmt 0
 563 0018 93D58700 		srli	a1,a5,8
 564              		.loc 1 294 34
 565 001c FD89     		andi	a1,a1,31
 566              		.loc 1 294 32
 567 001e A300B500 		sb	a1,1(a0)
 295:C:/Users/stapi/OneDrive/Desktop/GD32VW553/GD32VW55X_Wifi_BLE_SDK/GD32VW55x_RELEASE_V1.0.2/MSDK/plf/GD32VW55x_standard_peripheral/Source\gd32vw55x_rtc.c ****     rtc_initpara_struct->date = (uint8_t)GET_DATE_DAY(temp_dr);
 568              		.loc 1 295 5 is_stmt 1
 569              		.loc 1 295 33 is_stmt 0
 570 0022 93F5F703 		andi	a1,a5,63
 296:C:/Users/stapi/OneDrive/Desktop/GD32VW553/GD32VW55X_Wifi_BLE_SDK/GD32VW55x_RELEASE_V1.0.2/MSDK/plf/GD32VW55x_standard_peripheral/Source\gd32vw55x_rtc.c ****     rtc_initpara_struct->day_of_week = (uint8_t)GET_DATE_DOW(temp_dr);
 571              		.loc 1 296 49
 572 0026 B583     		srli	a5,a5,13
 573              	.LVL36:
 574              		.loc 1 296 40
 575 0028 9D8B     		andi	a5,a5,7
 576              		.loc 1 296 38
 577 002a A301F500 		sb	a5,3(a0)
 297:C:/Users/stapi/OneDrive/Desktop/GD32VW553/GD32VW55X_Wifi_BLE_SDK/GD32VW55x_RELEASE_V1.0.2/MSDK/plf/GD32VW55x_standard_peripheral/Source\gd32vw55x_rtc.c ****     rtc_initpara_struct->hour = (uint8_t)GET_TIME_HR(temp_tr);
 578              		.loc 1 297 42
 579 002e 93570701 		srli	a5,a4,16
 580              		.loc 1 297 33
 581 0032 93F7F703 		andi	a5,a5,63
 582              		.loc 1 297 31
 583 0036 2302F500 		sb	a5,4(a0)
 298:C:/Users/stapi/OneDrive/Desktop/GD32VW553/GD32VW55X_Wifi_BLE_SDK/GD32VW55x_RELEASE_V1.0.2/MSDK/plf/GD32VW55x_standard_peripheral/Source\gd32vw55x_rtc.c ****     rtc_initpara_struct->minute = (uint8_t)GET_TIME_MN(temp_tr);
 584              		.loc 1 298 44
 585 003a 93578700 		srli	a5,a4,8
 586              		.loc 1 298 35
 587 003e 93F7F707 		andi	a5,a5,127
 588              		.loc 1 298 33
 589 0042 A302F500 		sb	a5,5(a0)
 299:C:/Users/stapi/OneDrive/Desktop/GD32VW553/GD32VW55X_Wifi_BLE_SDK/GD32VW55x_RELEASE_V1.0.2/MSDK/plf/GD32VW55x_standard_peripheral/Source\gd32vw55x_rtc.c ****     rtc_initpara_struct->second = (uint8_t)GET_TIME_SC(temp_tr);
 590              		.loc 1 299 35
 591 0046 9377F707 		andi	a5,a4,127
 592              		.loc 1 299 33
 593 004a 2303F500 		sb	a5,6(a0)
 300:C:/Users/stapi/OneDrive/Desktop/GD32VW553/GD32VW55X_Wifi_BLE_SDK/GD32VW55x_RELEASE_V1.0.2/MSDK/plf/GD32VW55x_standard_peripheral/Source\gd32vw55x_rtc.c ****     rtc_initpara_struct->factor_asyn = (uint16_t)GET_PSC_FACTOR_A(temp_pscr);
 594              		.loc 1 300 50
 595 004e 93D70601 		srli	a5,a3,16
 596              		.loc 1 300 40
 597 0052 93F7F707 		andi	a5,a5,127
 598              		.loc 1 300 38
 599 0056 2314F500 		sh	a5,8(a0)
 301:C:/Users/stapi/OneDrive/Desktop/GD32VW553/GD32VW55X_Wifi_BLE_SDK/GD32VW55x_RELEASE_V1.0.2/MSDK/plf/GD32VW55x_standard_peripheral/Source\gd32vw55x_rtc.c ****     rtc_initpara_struct->factor_syn = (uint16_t)GET_PSC_FACTOR_S(temp_pscr);
 600              		.loc 1 301 39
 601 005a C606     		slli	a3,a3,17
 602              	.LVL37:
 302:C:/Users/stapi/OneDrive/Desktop/GD32VW553/GD32VW55X_Wifi_BLE_SDK/GD32VW55x_RELEASE_V1.0.2/MSDK/plf/GD32VW55x_standard_peripheral/Source\gd32vw55x_rtc.c ****     rtc_initpara_struct->am_pm = (uint32_t)(temp_tr & RTC_TIME_PM);
 603              		.loc 1 302 34
 604 005c B7074000 		li	a5,4194304
 605 0060 7D8F     		and	a4,a4,a5
 606              	.LVL38:
 301:C:/Users/stapi/OneDrive/Desktop/GD32VW553/GD32VW55X_Wifi_BLE_SDK/GD32VW55x_RELEASE_V1.0.2/MSDK/plf/GD32VW55x_standard_peripheral/Source\gd32vw55x_rtc.c ****     rtc_initpara_struct->factor_syn = (uint16_t)GET_PSC_FACTOR_S(temp_pscr);
 607              		.loc 1 301 39
 608 0062 C582     		srli	a3,a3,17
 303:C:/Users/stapi/OneDrive/Desktop/GD32VW553/GD32VW55X_Wifi_BLE_SDK/GD32VW55x_RELEASE_V1.0.2/MSDK/plf/GD32VW55x_standard_peripheral/Source\gd32vw55x_rtc.c ****     rtc_initpara_struct->display_format = (uint32_t)(temp_ctlr & RTC_CTL_CS);
 609              		.loc 1 303 43
 610 0064 93770604 		andi	a5,a2,64
 295:C:/Users/stapi/OneDrive/Desktop/GD32VW553/GD32VW55X_Wifi_BLE_SDK/GD32VW55x_RELEASE_V1.0.2/MSDK/plf/GD32VW55x_standard_peripheral/Source\gd32vw55x_rtc.c ****     rtc_initpara_struct->day_of_week = (uint8_t)GET_DATE_DOW(temp_dr);
 611              		.loc 1 295 31
 612 0068 2301B500 		sb	a1,2(a0)
 296:C:/Users/stapi/OneDrive/Desktop/GD32VW553/GD32VW55X_Wifi_BLE_SDK/GD32VW55x_RELEASE_V1.0.2/MSDK/plf/GD32VW55x_standard_peripheral/Source\gd32vw55x_rtc.c ****     rtc_initpara_struct->hour = (uint8_t)GET_TIME_HR(temp_tr);
 613              		.loc 1 296 5 is_stmt 1
 297:C:/Users/stapi/OneDrive/Desktop/GD32VW553/GD32VW55X_Wifi_BLE_SDK/GD32VW55x_RELEASE_V1.0.2/MSDK/plf/GD32VW55x_standard_peripheral/Source\gd32vw55x_rtc.c ****     rtc_initpara_struct->minute = (uint8_t)GET_TIME_MN(temp_tr);
 614              		.loc 1 297 5
 298:C:/Users/stapi/OneDrive/Desktop/GD32VW553/GD32VW55X_Wifi_BLE_SDK/GD32VW55x_RELEASE_V1.0.2/MSDK/plf/GD32VW55x_standard_peripheral/Source\gd32vw55x_rtc.c ****     rtc_initpara_struct->second = (uint8_t)GET_TIME_SC(temp_tr);
 615              		.loc 1 298 5
 299:C:/Users/stapi/OneDrive/Desktop/GD32VW553/GD32VW55X_Wifi_BLE_SDK/GD32VW55x_RELEASE_V1.0.2/MSDK/plf/GD32VW55x_standard_peripheral/Source\gd32vw55x_rtc.c ****     rtc_initpara_struct->factor_asyn = (uint16_t)GET_PSC_FACTOR_A(temp_pscr);
 616              		.loc 1 299 5
 300:C:/Users/stapi/OneDrive/Desktop/GD32VW553/GD32VW55X_Wifi_BLE_SDK/GD32VW55x_RELEASE_V1.0.2/MSDK/plf/GD32VW55x_standard_peripheral/Source\gd32vw55x_rtc.c ****     rtc_initpara_struct->factor_syn = (uint16_t)GET_PSC_FACTOR_S(temp_pscr);
 617              		.loc 1 300 5
 301:C:/Users/stapi/OneDrive/Desktop/GD32VW553/GD32VW55X_Wifi_BLE_SDK/GD32VW55x_RELEASE_V1.0.2/MSDK/plf/GD32VW55x_standard_peripheral/Source\gd32vw55x_rtc.c ****     rtc_initpara_struct->am_pm = (uint32_t)(temp_tr & RTC_TIME_PM);
 618              		.loc 1 301 5
 301:C:/Users/stapi/OneDrive/Desktop/GD32VW553/GD32VW55X_Wifi_BLE_SDK/GD32VW55x_RELEASE_V1.0.2/MSDK/plf/GD32VW55x_standard_peripheral/Source\gd32vw55x_rtc.c ****     rtc_initpara_struct->am_pm = (uint32_t)(temp_tr & RTC_TIME_PM);
 619              		.loc 1 301 37 is_stmt 0
 620 006c 2315D500 		sh	a3,10(a0)
 302:C:/Users/stapi/OneDrive/Desktop/GD32VW553/GD32VW55X_Wifi_BLE_SDK/GD32VW55x_RELEASE_V1.0.2/MSDK/plf/GD32VW55x_standard_peripheral/Source\gd32vw55x_rtc.c ****     rtc_initpara_struct->display_format = (uint32_t)(temp_ctlr & RTC_CTL_CS);
 621              		.loc 1 302 5 is_stmt 1
 302:C:/Users/stapi/OneDrive/Desktop/GD32VW553/GD32VW55X_Wifi_BLE_SDK/GD32VW55x_RELEASE_V1.0.2/MSDK/plf/GD32VW55x_standard_peripheral/Source\gd32vw55x_rtc.c ****     rtc_initpara_struct->display_format = (uint32_t)(temp_ctlr & RTC_CTL_CS);
 622              		.loc 1 302 32 is_stmt 0
 623 0070 58C5     		sw	a4,12(a0)
 624              		.loc 1 303 5 is_stmt 1
 625              		.loc 1 303 41 is_stmt 0
 626 0072 1CC9     		sw	a5,16(a0)
 304:C:/Users/stapi/OneDrive/Desktop/GD32VW553/GD32VW55X_Wifi_BLE_SDK/GD32VW55x_RELEASE_V1.0.2/MSDK/plf/GD32VW55x_standard_peripheral/Source\gd32vw55x_rtc.c **** }
 627              		.loc 1 304 1
 628 0074 8280     		ret
 629              		.cfi_endproc
 630              	.LFE370:
 632              		.section	.text.rtc_subsecond_get,"ax",@progbits
 633              		.align	1
 634              		.globl	rtc_subsecond_get
 636              	rtc_subsecond_get:
 637              	.LFB371:
 305:C:/Users/stapi/OneDrive/Desktop/GD32VW553/GD32VW55X_Wifi_BLE_SDK/GD32VW55x_RELEASE_V1.0.2/MSDK/plf/GD32VW55x_standard_peripheral/Source\gd32vw55x_rtc.c **** 
 306:C:/Users/stapi/OneDrive/Desktop/GD32VW553/GD32VW55X_Wifi_BLE_SDK/GD32VW55x_RELEASE_V1.0.2/MSDK/plf/GD32VW55x_standard_peripheral/Source\gd32vw55x_rtc.c **** /*!
 307:C:/Users/stapi/OneDrive/Desktop/GD32VW553/GD32VW55X_Wifi_BLE_SDK/GD32VW55x_RELEASE_V1.0.2/MSDK/plf/GD32VW55x_standard_peripheral/Source\gd32vw55x_rtc.c ****     \brief      get current subsecond value
 308:C:/Users/stapi/OneDrive/Desktop/GD32VW553/GD32VW55X_Wifi_BLE_SDK/GD32VW55x_RELEASE_V1.0.2/MSDK/plf/GD32VW55x_standard_peripheral/Source\gd32vw55x_rtc.c ****     \param[in]  none
 309:C:/Users/stapi/OneDrive/Desktop/GD32VW553/GD32VW55X_Wifi_BLE_SDK/GD32VW55x_RELEASE_V1.0.2/MSDK/plf/GD32VW55x_standard_peripheral/Source\gd32vw55x_rtc.c ****     \param[out] none
 310:C:/Users/stapi/OneDrive/Desktop/GD32VW553/GD32VW55X_Wifi_BLE_SDK/GD32VW55x_RELEASE_V1.0.2/MSDK/plf/GD32VW55x_standard_peripheral/Source\gd32vw55x_rtc.c ****     \retval     current subsecond value
 311:C:/Users/stapi/OneDrive/Desktop/GD32VW553/GD32VW55X_Wifi_BLE_SDK/GD32VW55x_RELEASE_V1.0.2/MSDK/plf/GD32VW55x_standard_peripheral/Source\gd32vw55x_rtc.c **** */
 312:C:/Users/stapi/OneDrive/Desktop/GD32VW553/GD32VW55X_Wifi_BLE_SDK/GD32VW55x_RELEASE_V1.0.2/MSDK/plf/GD32VW55x_standard_peripheral/Source\gd32vw55x_rtc.c **** uint32_t rtc_subsecond_get(void)
 313:C:/Users/stapi/OneDrive/Desktop/GD32VW553/GD32VW55X_Wifi_BLE_SDK/GD32VW55x_RELEASE_V1.0.2/MSDK/plf/GD32VW55x_standard_peripheral/Source\gd32vw55x_rtc.c **** {
 638              		.loc 1 313 1 is_stmt 1
 639              		.cfi_startproc
 314:C:/Users/stapi/OneDrive/Desktop/GD32VW553/GD32VW55X_Wifi_BLE_SDK/GD32VW55x_RELEASE_V1.0.2/MSDK/plf/GD32VW55x_standard_peripheral/Source\gd32vw55x_rtc.c ****     uint32_t reg = 0U;
 640              		.loc 1 314 5
 641              	.LVL39:
 315:C:/Users/stapi/OneDrive/Desktop/GD32VW553/GD32VW55X_Wifi_BLE_SDK/GD32VW55x_RELEASE_V1.0.2/MSDK/plf/GD32VW55x_standard_peripheral/Source\gd32vw55x_rtc.c ****     /* if BPSHAD bit is reset, reading RTC_SS will lock RTC_TIME and RTC_DATE automatically */
 316:C:/Users/stapi/OneDrive/Desktop/GD32VW553/GD32VW55X_Wifi_BLE_SDK/GD32VW55x_RELEASE_V1.0.2/MSDK/plf/GD32VW55x_standard_peripheral/Source\gd32vw55x_rtc.c ****     reg = (uint32_t)RTC_SS;
 642              		.loc 1 316 5
 643              		.loc 1 316 9 is_stmt 0
 644 0000 B7370040 		li	a5,1073754112
 645 0004 03A58782 		lw	a0,-2008(a5)
 646              	.LVL40:
 317:C:/Users/stapi/OneDrive/Desktop/GD32VW553/GD32VW55X_Wifi_BLE_SDK/GD32VW55x_RELEASE_V1.0.2/MSDK/plf/GD32VW55x_standard_peripheral/Source\gd32vw55x_rtc.c ****     /* read RTC_DATE to unlock the 3 shadow registers */
 318:C:/Users/stapi/OneDrive/Desktop/GD32VW553/GD32VW55X_Wifi_BLE_SDK/GD32VW55x_RELEASE_V1.0.2/MSDK/plf/GD32VW55x_standard_peripheral/Source\gd32vw55x_rtc.c ****     (void)(RTC_DATE);
 647              		.loc 1 318 5 is_stmt 1
 648 0008 83A74780 		lw	a5,-2044(a5)
 319:C:/Users/stapi/OneDrive/Desktop/GD32VW553/GD32VW55X_Wifi_BLE_SDK/GD32VW55x_RELEASE_V1.0.2/MSDK/plf/GD32VW55x_standard_peripheral/Source\gd32vw55x_rtc.c **** 
 320:C:/Users/stapi/OneDrive/Desktop/GD32VW553/GD32VW55X_Wifi_BLE_SDK/GD32VW55x_RELEASE_V1.0.2/MSDK/plf/GD32VW55x_standard_peripheral/Source\gd32vw55x_rtc.c ****     return reg;
 649              		.loc 1 320 5
 321:C:/Users/stapi/OneDrive/Desktop/GD32VW553/GD32VW55X_Wifi_BLE_SDK/GD32VW55x_RELEASE_V1.0.2/MSDK/plf/GD32VW55x_standard_peripheral/Source\gd32vw55x_rtc.c **** }
 650              		.loc 1 321 1 is_stmt 0
 651 000c 8280     		ret
 652              		.cfi_endproc
 653              	.LFE371:
 655              		.section	.text.rtc_alarm_config,"ax",@progbits
 656              		.align	1
 657              		.globl	rtc_alarm_config
 659              	rtc_alarm_config:
 660              	.LFB372:
 322:C:/Users/stapi/OneDrive/Desktop/GD32VW553/GD32VW55X_Wifi_BLE_SDK/GD32VW55x_RELEASE_V1.0.2/MSDK/plf/GD32VW55x_standard_peripheral/Source\gd32vw55x_rtc.c **** 
 323:C:/Users/stapi/OneDrive/Desktop/GD32VW553/GD32VW55X_Wifi_BLE_SDK/GD32VW55x_RELEASE_V1.0.2/MSDK/plf/GD32VW55x_standard_peripheral/Source\gd32vw55x_rtc.c **** /*!
 324:C:/Users/stapi/OneDrive/Desktop/GD32VW553/GD32VW55X_Wifi_BLE_SDK/GD32VW55x_RELEASE_V1.0.2/MSDK/plf/GD32VW55x_standard_peripheral/Source\gd32vw55x_rtc.c ****     \brief      configure RTC alarm
 325:C:/Users/stapi/OneDrive/Desktop/GD32VW553/GD32VW55X_Wifi_BLE_SDK/GD32VW55x_RELEASE_V1.0.2/MSDK/plf/GD32VW55x_standard_peripheral/Source\gd32vw55x_rtc.c ****     \param[in]  rtc_alarm: RTC_ALARM0 or RTC_ALARM1
 326:C:/Users/stapi/OneDrive/Desktop/GD32VW553/GD32VW55X_Wifi_BLE_SDK/GD32VW55x_RELEASE_V1.0.2/MSDK/plf/GD32VW55x_standard_peripheral/Source\gd32vw55x_rtc.c ****     \param[in]  rtc_alarm_time: pointer to a rtc_alarm_struct structure which contains
 327:C:/Users/stapi/OneDrive/Desktop/GD32VW553/GD32VW55X_Wifi_BLE_SDK/GD32VW55x_RELEASE_V1.0.2/MSDK/plf/GD32VW55x_standard_peripheral/Source\gd32vw55x_rtc.c ****                 parameters for RTC alarm configuration
 328:C:/Users/stapi/OneDrive/Desktop/GD32VW553/GD32VW55X_Wifi_BLE_SDK/GD32VW55x_RELEASE_V1.0.2/MSDK/plf/GD32VW55x_standard_peripheral/Source\gd32vw55x_rtc.c ****                 members of the structure and the member values are shown as below:
 329:C:/Users/stapi/OneDrive/Desktop/GD32VW553/GD32VW55X_Wifi_BLE_SDK/GD32VW55x_RELEASE_V1.0.2/MSDK/plf/GD32VW55x_standard_peripheral/Source\gd32vw55x_rtc.c ****                   alarm_mask: RTC_ALARM_NONE_MASK, RTC_ALARM_DATE_MASK, RTC_ALARM_HOUR_MASK
 330:C:/Users/stapi/OneDrive/Desktop/GD32VW553/GD32VW55X_Wifi_BLE_SDK/GD32VW55x_RELEASE_V1.0.2/MSDK/plf/GD32VW55x_standard_peripheral/Source\gd32vw55x_rtc.c ****                                   RTC_ALARM_MINUTE_MASK, RTC_ALARM_SECOND_MASK, RTC_ALARM_ALL_MASK
 331:C:/Users/stapi/OneDrive/Desktop/GD32VW553/GD32VW55X_Wifi_BLE_SDK/GD32VW55x_RELEASE_V1.0.2/MSDK/plf/GD32VW55x_standard_peripheral/Source\gd32vw55x_rtc.c ****                   weekday_or_date: RTC_ALARM_DATE_SELECTED, RTC_ALARM_WEEKDAY_SELECTED
 332:C:/Users/stapi/OneDrive/Desktop/GD32VW553/GD32VW55X_Wifi_BLE_SDK/GD32VW55x_RELEASE_V1.0.2/MSDK/plf/GD32VW55x_standard_peripheral/Source\gd32vw55x_rtc.c ****                   alarm_day: 1) 0x1 - 0x31(BCD format) if RTC_ALARM_DATE_SELECTED is set
 333:C:/Users/stapi/OneDrive/Desktop/GD32VW553/GD32VW55X_Wifi_BLE_SDK/GD32VW55x_RELEASE_V1.0.2/MSDK/plf/GD32VW55x_standard_peripheral/Source\gd32vw55x_rtc.c ****                                  2) RTC_MONDAY, RTC_TUESDAY, RTC_WEDNESDAY, RTC_THURSDAY, RTC_FRIDA
 334:C:/Users/stapi/OneDrive/Desktop/GD32VW553/GD32VW55X_Wifi_BLE_SDK/GD32VW55x_RELEASE_V1.0.2/MSDK/plf/GD32VW55x_standard_peripheral/Source\gd32vw55x_rtc.c ****                                     RTC_SATURDAY, RTC_SUNDAY if RTC_ALARM_WEEKDAY_SELECTED is set
 335:C:/Users/stapi/OneDrive/Desktop/GD32VW553/GD32VW55X_Wifi_BLE_SDK/GD32VW55x_RELEASE_V1.0.2/MSDK/plf/GD32VW55x_standard_peripheral/Source\gd32vw55x_rtc.c ****                   alarm_hour: 0x0 - 0x12(BCD format) or 0x0 - 0x23(BCD format) depending on the rtc
 336:C:/Users/stapi/OneDrive/Desktop/GD32VW553/GD32VW55X_Wifi_BLE_SDK/GD32VW55x_RELEASE_V1.0.2/MSDK/plf/GD32VW55x_standard_peripheral/Source\gd32vw55x_rtc.c ****                   alarm_minute: 0x0 - 0x59(BCD format)
 337:C:/Users/stapi/OneDrive/Desktop/GD32VW553/GD32VW55X_Wifi_BLE_SDK/GD32VW55x_RELEASE_V1.0.2/MSDK/plf/GD32VW55x_standard_peripheral/Source\gd32vw55x_rtc.c ****                   alarm_second: 0x0 - 0x59(BCD format)
 338:C:/Users/stapi/OneDrive/Desktop/GD32VW553/GD32VW55X_Wifi_BLE_SDK/GD32VW55x_RELEASE_V1.0.2/MSDK/plf/GD32VW55x_standard_peripheral/Source\gd32vw55x_rtc.c ****                   am_pm: RTC_AM, RTC_PM
 339:C:/Users/stapi/OneDrive/Desktop/GD32VW553/GD32VW55X_Wifi_BLE_SDK/GD32VW55x_RELEASE_V1.0.2/MSDK/plf/GD32VW55x_standard_peripheral/Source\gd32vw55x_rtc.c ****     \param[out] none
 340:C:/Users/stapi/OneDrive/Desktop/GD32VW553/GD32VW55X_Wifi_BLE_SDK/GD32VW55x_RELEASE_V1.0.2/MSDK/plf/GD32VW55x_standard_peripheral/Source\gd32vw55x_rtc.c ****     \retval     none
 341:C:/Users/stapi/OneDrive/Desktop/GD32VW553/GD32VW55X_Wifi_BLE_SDK/GD32VW55x_RELEASE_V1.0.2/MSDK/plf/GD32VW55x_standard_peripheral/Source\gd32vw55x_rtc.c **** */
 342:C:/Users/stapi/OneDrive/Desktop/GD32VW553/GD32VW55X_Wifi_BLE_SDK/GD32VW55x_RELEASE_V1.0.2/MSDK/plf/GD32VW55x_standard_peripheral/Source\gd32vw55x_rtc.c **** void rtc_alarm_config(uint8_t rtc_alarm, rtc_alarm_struct *rtc_alarm_time)
 343:C:/Users/stapi/OneDrive/Desktop/GD32VW553/GD32VW55X_Wifi_BLE_SDK/GD32VW55x_RELEASE_V1.0.2/MSDK/plf/GD32VW55x_standard_peripheral/Source\gd32vw55x_rtc.c **** {
 661              		.loc 1 343 1 is_stmt 1
 662              		.cfi_startproc
 663              	.LVL41:
 344:C:/Users/stapi/OneDrive/Desktop/GD32VW553/GD32VW55X_Wifi_BLE_SDK/GD32VW55x_RELEASE_V1.0.2/MSDK/plf/GD32VW55x_standard_peripheral/Source\gd32vw55x_rtc.c ****     uint32_t reg_alrmtd = 0U;
 664              		.loc 1 344 5
 345:C:/Users/stapi/OneDrive/Desktop/GD32VW553/GD32VW55X_Wifi_BLE_SDK/GD32VW55x_RELEASE_V1.0.2/MSDK/plf/GD32VW55x_standard_peripheral/Source\gd32vw55x_rtc.c **** 
 346:C:/Users/stapi/OneDrive/Desktop/GD32VW553/GD32VW55X_Wifi_BLE_SDK/GD32VW55x_RELEASE_V1.0.2/MSDK/plf/GD32VW55x_standard_peripheral/Source\gd32vw55x_rtc.c ****     /* disable the write protection */
 347:C:/Users/stapi/OneDrive/Desktop/GD32VW553/GD32VW55X_Wifi_BLE_SDK/GD32VW55x_RELEASE_V1.0.2/MSDK/plf/GD32VW55x_standard_peripheral/Source\gd32vw55x_rtc.c ****     RTC_WPK = RTC_UNLOCK_KEY1;
 665              		.loc 1 347 5
 666              		.loc 1 347 13 is_stmt 0
 667 0000 B7360040 		li	a3,1073754112
 668 0004 9307A00C 		li	a5,202
 669 0008 23A2F682 		sw	a5,-2012(a3)
 348:C:/Users/stapi/OneDrive/Desktop/GD32VW553/GD32VW55X_Wifi_BLE_SDK/GD32VW55x_RELEASE_V1.0.2/MSDK/plf/GD32VW55x_standard_peripheral/Source\gd32vw55x_rtc.c ****     RTC_WPK = RTC_UNLOCK_KEY2;
 670              		.loc 1 348 5 is_stmt 1
 671              		.loc 1 348 13 is_stmt 0
 672 000c 93073005 		li	a5,83
 673 0010 23A2F682 		sw	a5,-2012(a3)
 349:C:/Users/stapi/OneDrive/Desktop/GD32VW553/GD32VW55X_Wifi_BLE_SDK/GD32VW55x_RELEASE_V1.0.2/MSDK/plf/GD32VW55x_standard_peripheral/Source\gd32vw55x_rtc.c **** 
 350:C:/Users/stapi/OneDrive/Desktop/GD32VW553/GD32VW55X_Wifi_BLE_SDK/GD32VW55x_RELEASE_V1.0.2/MSDK/plf/GD32VW55x_standard_peripheral/Source\gd32vw55x_rtc.c ****     reg_alrmtd = (rtc_alarm_time->alarm_mask | \
 674              		.loc 1 350 5 is_stmt 1
 675              		.loc 1 350 16 is_stmt 0
 676 0014 D841     		lw	a4,4(a1)
 677 0016 9C41     		lw	a5,0(a1)
 351:C:/Users/stapi/OneDrive/Desktop/GD32VW553/GD32VW55X_Wifi_BLE_SDK/GD32VW55x_RELEASE_V1.0.2/MSDK/plf/GD32VW55x_standard_peripheral/Source\gd32vw55x_rtc.c ****                   rtc_alarm_time->weekday_or_date | \
 352:C:/Users/stapi/OneDrive/Desktop/GD32VW553/GD32VW55X_Wifi_BLE_SDK/GD32VW55x_RELEASE_V1.0.2/MSDK/plf/GD32VW55x_standard_peripheral/Source\gd32vw55x_rtc.c ****                   rtc_alarm_time->am_pm | \
 353:C:/Users/stapi/OneDrive/Desktop/GD32VW553/GD32VW55X_Wifi_BLE_SDK/GD32VW55x_RELEASE_V1.0.2/MSDK/plf/GD32VW55x_standard_peripheral/Source\gd32vw55x_rtc.c ****                   ALRMTD_DAY(rtc_alarm_time->alarm_day) | \
 678              		.loc 1 353 19
 679 0018 3706003F 		li	a2,1056964608
 350:C:/Users/stapi/OneDrive/Desktop/GD32VW553/GD32VW55X_Wifi_BLE_SDK/GD32VW55x_RELEASE_V1.0.2/MSDK/plf/GD32VW55x_standard_peripheral/Source\gd32vw55x_rtc.c ****                   rtc_alarm_time->weekday_or_date | \
 680              		.loc 1 350 16
 681 001c D98F     		or	a5,a5,a4
 682 001e D845     		lw	a4,12(a1)
 683 0020 D98F     		or	a5,a5,a4
 354:C:/Users/stapi/OneDrive/Desktop/GD32VW553/GD32VW55X_Wifi_BLE_SDK/GD32VW55x_RELEASE_V1.0.2/MSDK/plf/GD32VW55x_standard_peripheral/Source\gd32vw55x_rtc.c ****                   ALRMTD_HR(rtc_alarm_time->alarm_hour) | \
 355:C:/Users/stapi/OneDrive/Desktop/GD32VW553/GD32VW55X_Wifi_BLE_SDK/GD32VW55x_RELEASE_V1.0.2/MSDK/plf/GD32VW55x_standard_peripheral/Source\gd32vw55x_rtc.c ****                   ALRMTD_MN(rtc_alarm_time->alarm_minute) | \
 356:C:/Users/stapi/OneDrive/Desktop/GD32VW553/GD32VW55X_Wifi_BLE_SDK/GD32VW55x_RELEASE_V1.0.2/MSDK/plf/GD32VW55x_standard_peripheral/Source\gd32vw55x_rtc.c ****                   ALRMTD_SC(rtc_alarm_time->alarm_second));
 684              		.loc 1 356 19
 685 0022 03C7B500 		lbu	a4,11(a1)
 686 0026 1377F707 		andi	a4,a4,127
 350:C:/Users/stapi/OneDrive/Desktop/GD32VW553/GD32VW55X_Wifi_BLE_SDK/GD32VW55x_RELEASE_V1.0.2/MSDK/plf/GD32VW55x_standard_peripheral/Source\gd32vw55x_rtc.c ****                   rtc_alarm_time->weekday_or_date | \
 687              		.loc 1 350 16
 688 002a D98F     		or	a5,a5,a4
 353:C:/Users/stapi/OneDrive/Desktop/GD32VW553/GD32VW55X_Wifi_BLE_SDK/GD32VW55x_RELEASE_V1.0.2/MSDK/plf/GD32VW55x_standard_peripheral/Source\gd32vw55x_rtc.c ****                   ALRMTD_HR(rtc_alarm_time->alarm_hour) | \
 689              		.loc 1 353 19
 690 002c 03C78500 		lbu	a4,8(a1)
 691 0030 6207     		slli	a4,a4,24
 692 0032 718F     		and	a4,a4,a2
 350:C:/Users/stapi/OneDrive/Desktop/GD32VW553/GD32VW55X_Wifi_BLE_SDK/GD32VW55x_RELEASE_V1.0.2/MSDK/plf/GD32VW55x_standard_peripheral/Source\gd32vw55x_rtc.c ****                   rtc_alarm_time->weekday_or_date | \
 693              		.loc 1 350 16
 694 0034 D98F     		or	a5,a5,a4
 354:C:/Users/stapi/OneDrive/Desktop/GD32VW553/GD32VW55X_Wifi_BLE_SDK/GD32VW55x_RELEASE_V1.0.2/MSDK/plf/GD32VW55x_standard_peripheral/Source\gd32vw55x_rtc.c ****                   ALRMTD_HR(rtc_alarm_time->alarm_hour) | \
 695              		.loc 1 354 19
 696 0036 03C79500 		lbu	a4,9(a1)
 697 003a 37063F00 		li	a2,4128768
 698 003e 4207     		slli	a4,a4,16
 699 0040 718F     		and	a4,a4,a2
 350:C:/Users/stapi/OneDrive/Desktop/GD32VW553/GD32VW55X_Wifi_BLE_SDK/GD32VW55x_RELEASE_V1.0.2/MSDK/plf/GD32VW55x_standard_peripheral/Source\gd32vw55x_rtc.c ****                   rtc_alarm_time->weekday_or_date | \
 700              		.loc 1 350 16
 701 0042 D98F     		or	a5,a5,a4
 355:C:/Users/stapi/OneDrive/Desktop/GD32VW553/GD32VW55X_Wifi_BLE_SDK/GD32VW55x_RELEASE_V1.0.2/MSDK/plf/GD32VW55x_standard_peripheral/Source\gd32vw55x_rtc.c ****                   ALRMTD_SC(rtc_alarm_time->alarm_second));
 702              		.loc 1 355 19
 703 0044 03C7A500 		lbu	a4,10(a1)
 704 0048 2166     		li	a2,32768
 705 004a 130606F0 		addi	a2,a2,-256
 706 004e 2207     		slli	a4,a4,8
 707 0050 718F     		and	a4,a4,a2
 350:C:/Users/stapi/OneDrive/Desktop/GD32VW553/GD32VW55X_Wifi_BLE_SDK/GD32VW55x_RELEASE_V1.0.2/MSDK/plf/GD32VW55x_standard_peripheral/Source\gd32vw55x_rtc.c ****                   rtc_alarm_time->weekday_or_date | \
 708              		.loc 1 350 16
 709 0052 D98F     		or	a5,a5,a4
 710              	.LVL42:
 357:C:/Users/stapi/OneDrive/Desktop/GD32VW553/GD32VW55X_Wifi_BLE_SDK/GD32VW55x_RELEASE_V1.0.2/MSDK/plf/GD32VW55x_standard_peripheral/Source\gd32vw55x_rtc.c **** 
 358:C:/Users/stapi/OneDrive/Desktop/GD32VW553/GD32VW55X_Wifi_BLE_SDK/GD32VW55x_RELEASE_V1.0.2/MSDK/plf/GD32VW55x_standard_peripheral/Source\gd32vw55x_rtc.c ****     if(RTC_ALARM0 == rtc_alarm) {
 711              		.loc 1 358 5 is_stmt 1
 712              		.loc 1 358 7 is_stmt 0
 713 0054 0547     		li	a4,1
 714 0056 631BE500 		bne	a0,a4,.L41
 359:C:/Users/stapi/OneDrive/Desktop/GD32VW553/GD32VW55X_Wifi_BLE_SDK/GD32VW55x_RELEASE_V1.0.2/MSDK/plf/GD32VW55x_standard_peripheral/Source\gd32vw55x_rtc.c ****         RTC_ALRM0TD = (uint32_t)reg_alrmtd;
 715              		.loc 1 359 9 is_stmt 1
 716              		.loc 1 359 21 is_stmt 0
 717 005a 23AEF680 		sw	a5,-2020(a3)
 718              	.L42:
 360:C:/Users/stapi/OneDrive/Desktop/GD32VW553/GD32VW55X_Wifi_BLE_SDK/GD32VW55x_RELEASE_V1.0.2/MSDK/plf/GD32VW55x_standard_peripheral/Source\gd32vw55x_rtc.c **** 
 361:C:/Users/stapi/OneDrive/Desktop/GD32VW553/GD32VW55X_Wifi_BLE_SDK/GD32VW55x_RELEASE_V1.0.2/MSDK/plf/GD32VW55x_standard_peripheral/Source\gd32vw55x_rtc.c ****     } else {
 362:C:/Users/stapi/OneDrive/Desktop/GD32VW553/GD32VW55X_Wifi_BLE_SDK/GD32VW55x_RELEASE_V1.0.2/MSDK/plf/GD32VW55x_standard_peripheral/Source\gd32vw55x_rtc.c ****         RTC_ALRM1TD = (uint32_t)reg_alrmtd;
 363:C:/Users/stapi/OneDrive/Desktop/GD32VW553/GD32VW55X_Wifi_BLE_SDK/GD32VW55x_RELEASE_V1.0.2/MSDK/plf/GD32VW55x_standard_peripheral/Source\gd32vw55x_rtc.c ****     }
 364:C:/Users/stapi/OneDrive/Desktop/GD32VW553/GD32VW55X_Wifi_BLE_SDK/GD32VW55x_RELEASE_V1.0.2/MSDK/plf/GD32VW55x_standard_peripheral/Source\gd32vw55x_rtc.c **** 
 365:C:/Users/stapi/OneDrive/Desktop/GD32VW553/GD32VW55X_Wifi_BLE_SDK/GD32VW55x_RELEASE_V1.0.2/MSDK/plf/GD32VW55x_standard_peripheral/Source\gd32vw55x_rtc.c ****     /* enable the write protection */
 366:C:/Users/stapi/OneDrive/Desktop/GD32VW553/GD32VW55X_Wifi_BLE_SDK/GD32VW55x_RELEASE_V1.0.2/MSDK/plf/GD32VW55x_standard_peripheral/Source\gd32vw55x_rtc.c ****     RTC_WPK = RTC_LOCK_KEY;
 719              		.loc 1 366 5 is_stmt 1
 720              		.loc 1 366 13 is_stmt 0
 721 005e B7370040 		li	a5,1073754112
 722              	.LVL43:
 723 0062 1307F00F 		li	a4,255
 724 0066 23A2E782 		sw	a4,-2012(a5)
 367:C:/Users/stapi/OneDrive/Desktop/GD32VW553/GD32VW55X_Wifi_BLE_SDK/GD32VW55x_RELEASE_V1.0.2/MSDK/plf/GD32VW55x_standard_peripheral/Source\gd32vw55x_rtc.c **** }
 725              		.loc 1 367 1
 726 006a 8280     		ret
 727              	.LVL44:
 728              	.L41:
 362:C:/Users/stapi/OneDrive/Desktop/GD32VW553/GD32VW55X_Wifi_BLE_SDK/GD32VW55x_RELEASE_V1.0.2/MSDK/plf/GD32VW55x_standard_peripheral/Source\gd32vw55x_rtc.c ****     }
 729              		.loc 1 362 9 is_stmt 1
 362:C:/Users/stapi/OneDrive/Desktop/GD32VW553/GD32VW55X_Wifi_BLE_SDK/GD32VW55x_RELEASE_V1.0.2/MSDK/plf/GD32VW55x_standard_peripheral/Source\gd32vw55x_rtc.c ****     }
 730              		.loc 1 362 21 is_stmt 0
 731 006c 23A0F682 		sw	a5,-2016(a3)
 732 0070 FDB7     		j	.L42
 733              		.cfi_endproc
 734              	.LFE372:
 736              		.section	.text.rtc_alarm_subsecond_config,"ax",@progbits
 737              		.align	1
 738              		.globl	rtc_alarm_subsecond_config
 740              	rtc_alarm_subsecond_config:
 741              	.LFB373:
 368:C:/Users/stapi/OneDrive/Desktop/GD32VW553/GD32VW55X_Wifi_BLE_SDK/GD32VW55x_RELEASE_V1.0.2/MSDK/plf/GD32VW55x_standard_peripheral/Source\gd32vw55x_rtc.c **** 
 369:C:/Users/stapi/OneDrive/Desktop/GD32VW553/GD32VW55X_Wifi_BLE_SDK/GD32VW55x_RELEASE_V1.0.2/MSDK/plf/GD32VW55x_standard_peripheral/Source\gd32vw55x_rtc.c **** /*!
 370:C:/Users/stapi/OneDrive/Desktop/GD32VW553/GD32VW55X_Wifi_BLE_SDK/GD32VW55x_RELEASE_V1.0.2/MSDK/plf/GD32VW55x_standard_peripheral/Source\gd32vw55x_rtc.c ****     \brief      configure subsecond of RTC alarm
 371:C:/Users/stapi/OneDrive/Desktop/GD32VW553/GD32VW55X_Wifi_BLE_SDK/GD32VW55x_RELEASE_V1.0.2/MSDK/plf/GD32VW55x_standard_peripheral/Source\gd32vw55x_rtc.c ****     \param[in]  rtc_alarm: RTC_ALARM0 or RTC_ALARM1
 372:C:/Users/stapi/OneDrive/Desktop/GD32VW553/GD32VW55X_Wifi_BLE_SDK/GD32VW55x_RELEASE_V1.0.2/MSDK/plf/GD32VW55x_standard_peripheral/Source\gd32vw55x_rtc.c ****     \param[in]  mask_subsecond: alarm subsecond mask
 373:C:/Users/stapi/OneDrive/Desktop/GD32VW553/GD32VW55X_Wifi_BLE_SDK/GD32VW55x_RELEASE_V1.0.2/MSDK/plf/GD32VW55x_standard_peripheral/Source\gd32vw55x_rtc.c ****       \arg        RTC_MSKSSC_0_14: mask alarm subsecond configuration
 374:C:/Users/stapi/OneDrive/Desktop/GD32VW553/GD32VW55X_Wifi_BLE_SDK/GD32VW55x_RELEASE_V1.0.2/MSDK/plf/GD32VW55x_standard_peripheral/Source\gd32vw55x_rtc.c ****       \arg        RTC_MSKSSC_1_14: mask RTC_ALRMXSS_SSC[14:1], and RTC_ALRMXSS_SSC[0] is to be comp
 375:C:/Users/stapi/OneDrive/Desktop/GD32VW553/GD32VW55X_Wifi_BLE_SDK/GD32VW55x_RELEASE_V1.0.2/MSDK/plf/GD32VW55x_standard_peripheral/Source\gd32vw55x_rtc.c ****       \arg        RTC_MSKSSC_2_14: mask RTC_ALRMXSS_SSC[14:2], and RTC_ALRMXSS_SSC[1:0] is to be co
 376:C:/Users/stapi/OneDrive/Desktop/GD32VW553/GD32VW55X_Wifi_BLE_SDK/GD32VW55x_RELEASE_V1.0.2/MSDK/plf/GD32VW55x_standard_peripheral/Source\gd32vw55x_rtc.c ****       \arg        RTC_MSKSSC_3_14: mask RTC_ALRMXSS_SSC[14:3], and RTC_ALRMXSS_SSC[2:0] is to be co
 377:C:/Users/stapi/OneDrive/Desktop/GD32VW553/GD32VW55X_Wifi_BLE_SDK/GD32VW55x_RELEASE_V1.0.2/MSDK/plf/GD32VW55x_standard_peripheral/Source\gd32vw55x_rtc.c ****       \arg        RTC_MSKSSC_4_14: mask RTC_ALRMXSS_SSC[14:4]], and RTC_ALRMXSS_SSC[3:0] is to be c
 378:C:/Users/stapi/OneDrive/Desktop/GD32VW553/GD32VW55X_Wifi_BLE_SDK/GD32VW55x_RELEASE_V1.0.2/MSDK/plf/GD32VW55x_standard_peripheral/Source\gd32vw55x_rtc.c ****       \arg        RTC_MSKSSC_5_14: mask RTC_ALRMXSS_SSC[14:5], and RTC_ALRMXSS_SSC[4:0] is to be co
 379:C:/Users/stapi/OneDrive/Desktop/GD32VW553/GD32VW55X_Wifi_BLE_SDK/GD32VW55x_RELEASE_V1.0.2/MSDK/plf/GD32VW55x_standard_peripheral/Source\gd32vw55x_rtc.c ****       \arg        RTC_MSKSSC_6_14: mask RTC_ALRMXSS_SSC[14:6], and RTC_ALRMXSS_SSC[5:0] is to be co
 380:C:/Users/stapi/OneDrive/Desktop/GD32VW553/GD32VW55X_Wifi_BLE_SDK/GD32VW55x_RELEASE_V1.0.2/MSDK/plf/GD32VW55x_standard_peripheral/Source\gd32vw55x_rtc.c ****       \arg        RTC_MSKSSC_7_14: mask RTC_ALRMXSS_SSC[14:7], and RTC_ALRMXSS_SSC[6:0] is to be co
 381:C:/Users/stapi/OneDrive/Desktop/GD32VW553/GD32VW55X_Wifi_BLE_SDK/GD32VW55x_RELEASE_V1.0.2/MSDK/plf/GD32VW55x_standard_peripheral/Source\gd32vw55x_rtc.c ****       \arg        RTC_MSKSSC_8_14: mask RTC_ALRMXSS_SSC[14:8], and RTC_ALRMXSS_SSC[7:0] is to be co
 382:C:/Users/stapi/OneDrive/Desktop/GD32VW553/GD32VW55X_Wifi_BLE_SDK/GD32VW55x_RELEASE_V1.0.2/MSDK/plf/GD32VW55x_standard_peripheral/Source\gd32vw55x_rtc.c ****       \arg        RTC_MSKSSC_9_14: mask RTC_ALRMXSS_SSC[14:9], and RTC_ALRMXSS_SSC[8:0] is to be co
 383:C:/Users/stapi/OneDrive/Desktop/GD32VW553/GD32VW55X_Wifi_BLE_SDK/GD32VW55x_RELEASE_V1.0.2/MSDK/plf/GD32VW55x_standard_peripheral/Source\gd32vw55x_rtc.c ****       \arg        RTC_MSKSSC_10_14: mask RTC_ALRMXSS_SSC[14:10], and RTC_ALRMXSS_SSC[9:0] is to be 
 384:C:/Users/stapi/OneDrive/Desktop/GD32VW553/GD32VW55X_Wifi_BLE_SDK/GD32VW55x_RELEASE_V1.0.2/MSDK/plf/GD32VW55x_standard_peripheral/Source\gd32vw55x_rtc.c ****       \arg        RTC_MSKSSC_11_14: mask RTC_ALRMXSS_SSC[14:11], and RTC_ALRMXSS_SSC[10:0] is to be
 385:C:/Users/stapi/OneDrive/Desktop/GD32VW553/GD32VW55X_Wifi_BLE_SDK/GD32VW55x_RELEASE_V1.0.2/MSDK/plf/GD32VW55x_standard_peripheral/Source\gd32vw55x_rtc.c ****       \arg        RTC_MSKSSC_12_14: mask RTC_ALRMXSS_SSC[14:12], and RTC_ALRMXSS_SSC[11:0] is to be
 386:C:/Users/stapi/OneDrive/Desktop/GD32VW553/GD32VW55X_Wifi_BLE_SDK/GD32VW55x_RELEASE_V1.0.2/MSDK/plf/GD32VW55x_standard_peripheral/Source\gd32vw55x_rtc.c ****       \arg        RTC_MSKSSC_13_14: mask RTC_ALRMXSS_SSC[14:13], and RTC_ALRMXSS_SSC[12:0] is to be
 387:C:/Users/stapi/OneDrive/Desktop/GD32VW553/GD32VW55X_Wifi_BLE_SDK/GD32VW55x_RELEASE_V1.0.2/MSDK/plf/GD32VW55x_standard_peripheral/Source\gd32vw55x_rtc.c ****       \arg        RTC_MSKSSC_14: mask RTC_ALRMXSS_SSC[14], and RTC_ALRMXSS_SSC[13:0] is to be compa
 388:C:/Users/stapi/OneDrive/Desktop/GD32VW553/GD32VW55X_Wifi_BLE_SDK/GD32VW55x_RELEASE_V1.0.2/MSDK/plf/GD32VW55x_standard_peripheral/Source\gd32vw55x_rtc.c ****       \arg        RTC_MSKSSC_NONE: mask none, and RTC_ALRMXSS_SSC[14:0] is to be compared
 389:C:/Users/stapi/OneDrive/Desktop/GD32VW553/GD32VW55X_Wifi_BLE_SDK/GD32VW55x_RELEASE_V1.0.2/MSDK/plf/GD32VW55x_standard_peripheral/Source\gd32vw55x_rtc.c ****     \param[in]  subsecond: alarm subsecond value(0x000 - 0x7FFF)
 390:C:/Users/stapi/OneDrive/Desktop/GD32VW553/GD32VW55X_Wifi_BLE_SDK/GD32VW55x_RELEASE_V1.0.2/MSDK/plf/GD32VW55x_standard_peripheral/Source\gd32vw55x_rtc.c ****     \param[out] none
 391:C:/Users/stapi/OneDrive/Desktop/GD32VW553/GD32VW55X_Wifi_BLE_SDK/GD32VW55x_RELEASE_V1.0.2/MSDK/plf/GD32VW55x_standard_peripheral/Source\gd32vw55x_rtc.c ****     \retval     none
 392:C:/Users/stapi/OneDrive/Desktop/GD32VW553/GD32VW55X_Wifi_BLE_SDK/GD32VW55x_RELEASE_V1.0.2/MSDK/plf/GD32VW55x_standard_peripheral/Source\gd32vw55x_rtc.c **** */
 393:C:/Users/stapi/OneDrive/Desktop/GD32VW553/GD32VW55X_Wifi_BLE_SDK/GD32VW55x_RELEASE_V1.0.2/MSDK/plf/GD32VW55x_standard_peripheral/Source\gd32vw55x_rtc.c **** void rtc_alarm_subsecond_config(uint8_t rtc_alarm, uint32_t mask_subsecond, uint32_t subsecond)
 394:C:/Users/stapi/OneDrive/Desktop/GD32VW553/GD32VW55X_Wifi_BLE_SDK/GD32VW55x_RELEASE_V1.0.2/MSDK/plf/GD32VW55x_standard_peripheral/Source\gd32vw55x_rtc.c **** {
 742              		.loc 1 394 1 is_stmt 1
 743              		.cfi_startproc
 744              	.LVL45:
 395:C:/Users/stapi/OneDrive/Desktop/GD32VW553/GD32VW55X_Wifi_BLE_SDK/GD32VW55x_RELEASE_V1.0.2/MSDK/plf/GD32VW55x_standard_peripheral/Source\gd32vw55x_rtc.c ****     /* disable the write protection */
 396:C:/Users/stapi/OneDrive/Desktop/GD32VW553/GD32VW55X_Wifi_BLE_SDK/GD32VW55x_RELEASE_V1.0.2/MSDK/plf/GD32VW55x_standard_peripheral/Source\gd32vw55x_rtc.c ****     RTC_WPK = RTC_UNLOCK_KEY1;
 745              		.loc 1 396 5
 746              		.loc 1 396 13 is_stmt 0
 747 0000 B7370040 		li	a5,1073754112
 748 0004 1307A00C 		li	a4,202
 749 0008 23A2E782 		sw	a4,-2012(a5)
 397:C:/Users/stapi/OneDrive/Desktop/GD32VW553/GD32VW55X_Wifi_BLE_SDK/GD32VW55x_RELEASE_V1.0.2/MSDK/plf/GD32VW55x_standard_peripheral/Source\gd32vw55x_rtc.c ****     RTC_WPK = RTC_UNLOCK_KEY2;
 750              		.loc 1 397 5 is_stmt 1
 751              		.loc 1 397 13 is_stmt 0
 752 000c 13073005 		li	a4,83
 753 0010 23A2E782 		sw	a4,-2012(a5)
 398:C:/Users/stapi/OneDrive/Desktop/GD32VW553/GD32VW55X_Wifi_BLE_SDK/GD32VW55x_RELEASE_V1.0.2/MSDK/plf/GD32VW55x_standard_peripheral/Source\gd32vw55x_rtc.c **** 
 399:C:/Users/stapi/OneDrive/Desktop/GD32VW553/GD32VW55X_Wifi_BLE_SDK/GD32VW55x_RELEASE_V1.0.2/MSDK/plf/GD32VW55x_standard_peripheral/Source\gd32vw55x_rtc.c ****     if(RTC_ALARM0 == rtc_alarm) {
 754              		.loc 1 399 5 is_stmt 1
 755              		.loc 1 399 7 is_stmt 0
 756 0014 0547     		li	a4,1
 400:C:/Users/stapi/OneDrive/Desktop/GD32VW553/GD32VW55X_Wifi_BLE_SDK/GD32VW55x_RELEASE_V1.0.2/MSDK/plf/GD32VW55x_standard_peripheral/Source\gd32vw55x_rtc.c ****         RTC_ALRM0SS = mask_subsecond | subsecond;
 757              		.loc 1 400 38
 758 0016 4D8E     		or	a2,a1,a2
 759              	.LVL46:
 399:C:/Users/stapi/OneDrive/Desktop/GD32VW553/GD32VW55X_Wifi_BLE_SDK/GD32VW55x_RELEASE_V1.0.2/MSDK/plf/GD32VW55x_standard_peripheral/Source\gd32vw55x_rtc.c ****         RTC_ALRM0SS = mask_subsecond | subsecond;
 760              		.loc 1 399 7
 761 0018 631BE500 		bne	a0,a4,.L44
 762              		.loc 1 400 9 is_stmt 1
 763              		.loc 1 400 21 is_stmt 0
 764 001c 23A2C784 		sw	a2,-1980(a5)
 765              	.L45:
 401:C:/Users/stapi/OneDrive/Desktop/GD32VW553/GD32VW55X_Wifi_BLE_SDK/GD32VW55x_RELEASE_V1.0.2/MSDK/plf/GD32VW55x_standard_peripheral/Source\gd32vw55x_rtc.c ****     } else {
 402:C:/Users/stapi/OneDrive/Desktop/GD32VW553/GD32VW55X_Wifi_BLE_SDK/GD32VW55x_RELEASE_V1.0.2/MSDK/plf/GD32VW55x_standard_peripheral/Source\gd32vw55x_rtc.c ****         RTC_ALRM1SS = mask_subsecond | subsecond;
 403:C:/Users/stapi/OneDrive/Desktop/GD32VW553/GD32VW55X_Wifi_BLE_SDK/GD32VW55x_RELEASE_V1.0.2/MSDK/plf/GD32VW55x_standard_peripheral/Source\gd32vw55x_rtc.c ****     }
 404:C:/Users/stapi/OneDrive/Desktop/GD32VW553/GD32VW55X_Wifi_BLE_SDK/GD32VW55x_RELEASE_V1.0.2/MSDK/plf/GD32VW55x_standard_peripheral/Source\gd32vw55x_rtc.c **** 
 405:C:/Users/stapi/OneDrive/Desktop/GD32VW553/GD32VW55X_Wifi_BLE_SDK/GD32VW55x_RELEASE_V1.0.2/MSDK/plf/GD32VW55x_standard_peripheral/Source\gd32vw55x_rtc.c ****     /* enable the write protection */
 406:C:/Users/stapi/OneDrive/Desktop/GD32VW553/GD32VW55X_Wifi_BLE_SDK/GD32VW55x_RELEASE_V1.0.2/MSDK/plf/GD32VW55x_standard_peripheral/Source\gd32vw55x_rtc.c ****     RTC_WPK = RTC_LOCK_KEY;
 766              		.loc 1 406 5 is_stmt 1
 767              		.loc 1 406 13 is_stmt 0
 768 0020 B7370040 		li	a5,1073754112
 769 0024 1307F00F 		li	a4,255
 770 0028 23A2E782 		sw	a4,-2012(a5)
 407:C:/Users/stapi/OneDrive/Desktop/GD32VW553/GD32VW55X_Wifi_BLE_SDK/GD32VW55x_RELEASE_V1.0.2/MSDK/plf/GD32VW55x_standard_peripheral/Source\gd32vw55x_rtc.c **** }
 771              		.loc 1 407 1
 772 002c 8280     		ret
 773              	.L44:
 402:C:/Users/stapi/OneDrive/Desktop/GD32VW553/GD32VW55X_Wifi_BLE_SDK/GD32VW55x_RELEASE_V1.0.2/MSDK/plf/GD32VW55x_standard_peripheral/Source\gd32vw55x_rtc.c ****     }
 774              		.loc 1 402 9 is_stmt 1
 402:C:/Users/stapi/OneDrive/Desktop/GD32VW553/GD32VW55X_Wifi_BLE_SDK/GD32VW55x_RELEASE_V1.0.2/MSDK/plf/GD32VW55x_standard_peripheral/Source\gd32vw55x_rtc.c ****     }
 775              		.loc 1 402 21 is_stmt 0
 776 002e 23A4C784 		sw	a2,-1976(a5)
 777 0032 FDB7     		j	.L45
 778              		.cfi_endproc
 779              	.LFE373:
 781              		.section	.text.rtc_alarm_get,"ax",@progbits
 782              		.align	1
 783              		.globl	rtc_alarm_get
 785              	rtc_alarm_get:
 786              	.LFB374:
 408:C:/Users/stapi/OneDrive/Desktop/GD32VW553/GD32VW55X_Wifi_BLE_SDK/GD32VW55x_RELEASE_V1.0.2/MSDK/plf/GD32VW55x_standard_peripheral/Source\gd32vw55x_rtc.c **** 
 409:C:/Users/stapi/OneDrive/Desktop/GD32VW553/GD32VW55X_Wifi_BLE_SDK/GD32VW55x_RELEASE_V1.0.2/MSDK/plf/GD32VW55x_standard_peripheral/Source\gd32vw55x_rtc.c **** /*!
 410:C:/Users/stapi/OneDrive/Desktop/GD32VW553/GD32VW55X_Wifi_BLE_SDK/GD32VW55x_RELEASE_V1.0.2/MSDK/plf/GD32VW55x_standard_peripheral/Source\gd32vw55x_rtc.c ****     \brief      get RTC alarm
 411:C:/Users/stapi/OneDrive/Desktop/GD32VW553/GD32VW55X_Wifi_BLE_SDK/GD32VW55x_RELEASE_V1.0.2/MSDK/plf/GD32VW55x_standard_peripheral/Source\gd32vw55x_rtc.c ****     \param[in]  rtc_alarm: RTC_ALARM0 or RTC_ALARM1
 412:C:/Users/stapi/OneDrive/Desktop/GD32VW553/GD32VW55X_Wifi_BLE_SDK/GD32VW55x_RELEASE_V1.0.2/MSDK/plf/GD32VW55x_standard_peripheral/Source\gd32vw55x_rtc.c ****     \param[out] rtc_alarm_time: pointer to a rtc_alarm_struct structure which contains
 413:C:/Users/stapi/OneDrive/Desktop/GD32VW553/GD32VW55X_Wifi_BLE_SDK/GD32VW55x_RELEASE_V1.0.2/MSDK/plf/GD32VW55x_standard_peripheral/Source\gd32vw55x_rtc.c ****                 parameters for RTC alarm configuration
 414:C:/Users/stapi/OneDrive/Desktop/GD32VW553/GD32VW55X_Wifi_BLE_SDK/GD32VW55x_RELEASE_V1.0.2/MSDK/plf/GD32VW55x_standard_peripheral/Source\gd32vw55x_rtc.c ****                 members of the structure and the member values are shown as below:
 415:C:/Users/stapi/OneDrive/Desktop/GD32VW553/GD32VW55X_Wifi_BLE_SDK/GD32VW55x_RELEASE_V1.0.2/MSDK/plf/GD32VW55x_standard_peripheral/Source\gd32vw55x_rtc.c ****                   alarm_mask: RTC_ALARM_NONE_MASK, RTC_ALARM_DATE_MASK, RTC_ALARM_HOUR_MASK
 416:C:/Users/stapi/OneDrive/Desktop/GD32VW553/GD32VW55X_Wifi_BLE_SDK/GD32VW55x_RELEASE_V1.0.2/MSDK/plf/GD32VW55x_standard_peripheral/Source\gd32vw55x_rtc.c ****                                   RTC_ALARM_MINUTE_MASK, RTC_ALARM_SECOND_MASK, RTC_ALARM_ALL_MASK
 417:C:/Users/stapi/OneDrive/Desktop/GD32VW553/GD32VW55X_Wifi_BLE_SDK/GD32VW55x_RELEASE_V1.0.2/MSDK/plf/GD32VW55x_standard_peripheral/Source\gd32vw55x_rtc.c ****                   weekday_or_date: RTC_ALARM_DATE_SELECTED, RTC_ALARM_WEEKDAY_SELECTED
 418:C:/Users/stapi/OneDrive/Desktop/GD32VW553/GD32VW55X_Wifi_BLE_SDK/GD32VW55x_RELEASE_V1.0.2/MSDK/plf/GD32VW55x_standard_peripheral/Source\gd32vw55x_rtc.c ****                   alarm_day: 1) 0x1 - 0x31(BCD format) if RTC_ALARM_DATE_SELECTED is set
 419:C:/Users/stapi/OneDrive/Desktop/GD32VW553/GD32VW55X_Wifi_BLE_SDK/GD32VW55x_RELEASE_V1.0.2/MSDK/plf/GD32VW55x_standard_peripheral/Source\gd32vw55x_rtc.c ****                                  2) RTC_MONDAY, RTC_TUESDAY, RTC_WEDNESDAY, RTC_THURSDAY, RTC_FRIDA
 420:C:/Users/stapi/OneDrive/Desktop/GD32VW553/GD32VW55X_Wifi_BLE_SDK/GD32VW55x_RELEASE_V1.0.2/MSDK/plf/GD32VW55x_standard_peripheral/Source\gd32vw55x_rtc.c ****                                     RTC_SATURDAY, RTC_SUNDAY if RTC_ALARM_WEEKDAY_SELECTED is set
 421:C:/Users/stapi/OneDrive/Desktop/GD32VW553/GD32VW55X_Wifi_BLE_SDK/GD32VW55x_RELEASE_V1.0.2/MSDK/plf/GD32VW55x_standard_peripheral/Source\gd32vw55x_rtc.c ****                   alarm_hour: 0x0 - 0x12(BCD format) or 0x0 - 0x23(BCD format) depending on the rtc
 422:C:/Users/stapi/OneDrive/Desktop/GD32VW553/GD32VW55X_Wifi_BLE_SDK/GD32VW55x_RELEASE_V1.0.2/MSDK/plf/GD32VW55x_standard_peripheral/Source\gd32vw55x_rtc.c ****                   alarm_minute: 0x0 - 0x59(BCD format)
 423:C:/Users/stapi/OneDrive/Desktop/GD32VW553/GD32VW55X_Wifi_BLE_SDK/GD32VW55x_RELEASE_V1.0.2/MSDK/plf/GD32VW55x_standard_peripheral/Source\gd32vw55x_rtc.c ****                   alarm_second: 0x0 - 0x59(BCD format)
 424:C:/Users/stapi/OneDrive/Desktop/GD32VW553/GD32VW55X_Wifi_BLE_SDK/GD32VW55x_RELEASE_V1.0.2/MSDK/plf/GD32VW55x_standard_peripheral/Source\gd32vw55x_rtc.c ****                   am_pm: RTC_AM, RTC_PM
 425:C:/Users/stapi/OneDrive/Desktop/GD32VW553/GD32VW55X_Wifi_BLE_SDK/GD32VW55x_RELEASE_V1.0.2/MSDK/plf/GD32VW55x_standard_peripheral/Source\gd32vw55x_rtc.c ****     \retval     none
 426:C:/Users/stapi/OneDrive/Desktop/GD32VW553/GD32VW55X_Wifi_BLE_SDK/GD32VW55x_RELEASE_V1.0.2/MSDK/plf/GD32VW55x_standard_peripheral/Source\gd32vw55x_rtc.c **** */
 427:C:/Users/stapi/OneDrive/Desktop/GD32VW553/GD32VW55X_Wifi_BLE_SDK/GD32VW55x_RELEASE_V1.0.2/MSDK/plf/GD32VW55x_standard_peripheral/Source\gd32vw55x_rtc.c **** void rtc_alarm_get(uint8_t rtc_alarm, rtc_alarm_struct *rtc_alarm_time)
 428:C:/Users/stapi/OneDrive/Desktop/GD32VW553/GD32VW55X_Wifi_BLE_SDK/GD32VW55x_RELEASE_V1.0.2/MSDK/plf/GD32VW55x_standard_peripheral/Source\gd32vw55x_rtc.c **** {
 787              		.loc 1 428 1 is_stmt 1
 788              		.cfi_startproc
 789              	.LVL47:
 429:C:/Users/stapi/OneDrive/Desktop/GD32VW553/GD32VW55X_Wifi_BLE_SDK/GD32VW55x_RELEASE_V1.0.2/MSDK/plf/GD32VW55x_standard_peripheral/Source\gd32vw55x_rtc.c ****     uint32_t reg_alrmtd = 0U;
 790              		.loc 1 429 5
 430:C:/Users/stapi/OneDrive/Desktop/GD32VW553/GD32VW55X_Wifi_BLE_SDK/GD32VW55x_RELEASE_V1.0.2/MSDK/plf/GD32VW55x_standard_peripheral/Source\gd32vw55x_rtc.c **** 
 431:C:/Users/stapi/OneDrive/Desktop/GD32VW553/GD32VW55X_Wifi_BLE_SDK/GD32VW55x_RELEASE_V1.0.2/MSDK/plf/GD32VW55x_standard_peripheral/Source\gd32vw55x_rtc.c ****     /* get the value of RTC_ALRM0TD register */
 432:C:/Users/stapi/OneDrive/Desktop/GD32VW553/GD32VW55X_Wifi_BLE_SDK/GD32VW55x_RELEASE_V1.0.2/MSDK/plf/GD32VW55x_standard_peripheral/Source\gd32vw55x_rtc.c ****     if(RTC_ALARM0 == rtc_alarm) {
 791              		.loc 1 432 5
 792              		.loc 1 432 7 is_stmt 0
 793 0000 8547     		li	a5,1
 794 0002 631BF504 		bne	a0,a5,.L47
 433:C:/Users/stapi/OneDrive/Desktop/GD32VW553/GD32VW55X_Wifi_BLE_SDK/GD32VW55x_RELEASE_V1.0.2/MSDK/plf/GD32VW55x_standard_peripheral/Source\gd32vw55x_rtc.c ****         reg_alrmtd = RTC_ALRM0TD;
 795              		.loc 1 433 9 is_stmt 1
 796              		.loc 1 433 20 is_stmt 0
 797 0006 B7370040 		li	a5,1073754112
 798 000a 83A7C781 		lw	a5,-2020(a5)
 799              	.LVL48:
 800              	.L48:
 434:C:/Users/stapi/OneDrive/Desktop/GD32VW553/GD32VW55X_Wifi_BLE_SDK/GD32VW55x_RELEASE_V1.0.2/MSDK/plf/GD32VW55x_standard_peripheral/Source\gd32vw55x_rtc.c ****     } else {
 435:C:/Users/stapi/OneDrive/Desktop/GD32VW553/GD32VW55X_Wifi_BLE_SDK/GD32VW55x_RELEASE_V1.0.2/MSDK/plf/GD32VW55x_standard_peripheral/Source\gd32vw55x_rtc.c ****         reg_alrmtd = RTC_ALRM1TD;
 436:C:/Users/stapi/OneDrive/Desktop/GD32VW553/GD32VW55X_Wifi_BLE_SDK/GD32VW55x_RELEASE_V1.0.2/MSDK/plf/GD32VW55x_standard_peripheral/Source\gd32vw55x_rtc.c ****     }
 437:C:/Users/stapi/OneDrive/Desktop/GD32VW553/GD32VW55X_Wifi_BLE_SDK/GD32VW55x_RELEASE_V1.0.2/MSDK/plf/GD32VW55x_standard_peripheral/Source\gd32vw55x_rtc.c ****     /* get alarm parameters and construct the rtc_alarm_struct structure */
 438:C:/Users/stapi/OneDrive/Desktop/GD32VW553/GD32VW55X_Wifi_BLE_SDK/GD32VW55x_RELEASE_V1.0.2/MSDK/plf/GD32VW55x_standard_peripheral/Source\gd32vw55x_rtc.c ****     rtc_alarm_time->alarm_mask = reg_alrmtd & RTC_ALARM_ALL_MASK;
 801              		.loc 1 438 5 is_stmt 1
 802              		.loc 1 438 45 is_stmt 0
 803 000e 37878080 		li	a4,-2139062272
 804 0012 13070708 		addi	a4,a4,128
 805 0016 7D8F     		and	a4,a5,a4
 806              		.loc 1 438 32
 807 0018 98C1     		sw	a4,0(a1)
 439:C:/Users/stapi/OneDrive/Desktop/GD32VW553/GD32VW55X_Wifi_BLE_SDK/GD32VW55x_RELEASE_V1.0.2/MSDK/plf/GD32VW55x_standard_peripheral/Source\gd32vw55x_rtc.c ****     rtc_alarm_time->am_pm = (uint32_t)(reg_alrmtd & RTC_ALRMXTD_PM);
 808              		.loc 1 439 5 is_stmt 1
 809              		.loc 1 439 29 is_stmt 0
 810 001a 37074000 		li	a4,4194304
 811 001e 7D8F     		and	a4,a5,a4
 812              		.loc 1 439 27
 813 0020 D8C5     		sw	a4,12(a1)
 440:C:/Users/stapi/OneDrive/Desktop/GD32VW553/GD32VW55X_Wifi_BLE_SDK/GD32VW55x_RELEASE_V1.0.2/MSDK/plf/GD32VW55x_standard_peripheral/Source\gd32vw55x_rtc.c ****     rtc_alarm_time->weekday_or_date = (uint32_t)(reg_alrmtd & RTC_ALRMXTD_DOWS);
 814              		.loc 1 440 5 is_stmt 1
 815              		.loc 1 440 39 is_stmt 0
 816 0022 37070040 		li	a4,1073741824
 817 0026 7D8F     		and	a4,a5,a4
 818              		.loc 1 440 37
 819 0028 D8C1     		sw	a4,4(a1)
 441:C:/Users/stapi/OneDrive/Desktop/GD32VW553/GD32VW55X_Wifi_BLE_SDK/GD32VW55x_RELEASE_V1.0.2/MSDK/plf/GD32VW55x_standard_peripheral/Source\gd32vw55x_rtc.c ****     rtc_alarm_time->alarm_day = (uint8_t)GET_ALRMTD_DAY(reg_alrmtd);
 820              		.loc 1 441 5 is_stmt 1
 821              		.loc 1 441 42 is_stmt 0
 822 002a 13D78701 		srli	a4,a5,24
 823              		.loc 1 441 33
 824 002e 1377F703 		andi	a4,a4,63
 825              		.loc 1 441 31
 826 0032 2384E500 		sb	a4,8(a1)
 442:C:/Users/stapi/OneDrive/Desktop/GD32VW553/GD32VW55X_Wifi_BLE_SDK/GD32VW55x_RELEASE_V1.0.2/MSDK/plf/GD32VW55x_standard_peripheral/Source\gd32vw55x_rtc.c ****     rtc_alarm_time->alarm_hour = (uint8_t)GET_ALRMTD_HR(reg_alrmtd);
 827              		.loc 1 442 5 is_stmt 1
 828              		.loc 1 442 43 is_stmt 0
 829 0036 13D70701 		srli	a4,a5,16
 830              		.loc 1 442 34
 831 003a 1377F703 		andi	a4,a4,63
 832              		.loc 1 442 32
 833 003e A384E500 		sb	a4,9(a1)
 443:C:/Users/stapi/OneDrive/Desktop/GD32VW553/GD32VW55X_Wifi_BLE_SDK/GD32VW55x_RELEASE_V1.0.2/MSDK/plf/GD32VW55x_standard_peripheral/Source\gd32vw55x_rtc.c ****     rtc_alarm_time->alarm_minute = (uint8_t)GET_ALRMTD_MN(reg_alrmtd);
 834              		.loc 1 443 5 is_stmt 1
 835              		.loc 1 443 45 is_stmt 0
 836 0042 13D78700 		srli	a4,a5,8
 837              		.loc 1 443 36
 838 0046 1377F707 		andi	a4,a4,127
 444:C:/Users/stapi/OneDrive/Desktop/GD32VW553/GD32VW55X_Wifi_BLE_SDK/GD32VW55x_RELEASE_V1.0.2/MSDK/plf/GD32VW55x_standard_peripheral/Source\gd32vw55x_rtc.c ****     rtc_alarm_time->alarm_second = (uint8_t)GET_ALRMTD_SC(reg_alrmtd);
 839              		.loc 1 444 36
 840 004a 93F7F707 		andi	a5,a5,127
 841              	.LVL49:
 443:C:/Users/stapi/OneDrive/Desktop/GD32VW553/GD32VW55X_Wifi_BLE_SDK/GD32VW55x_RELEASE_V1.0.2/MSDK/plf/GD32VW55x_standard_peripheral/Source\gd32vw55x_rtc.c ****     rtc_alarm_time->alarm_minute = (uint8_t)GET_ALRMTD_MN(reg_alrmtd);
 842              		.loc 1 443 34
 843 004e 2385E500 		sb	a4,10(a1)
 844              		.loc 1 444 5 is_stmt 1
 845              		.loc 1 444 34 is_stmt 0
 846 0052 A385F500 		sb	a5,11(a1)
 445:C:/Users/stapi/OneDrive/Desktop/GD32VW553/GD32VW55X_Wifi_BLE_SDK/GD32VW55x_RELEASE_V1.0.2/MSDK/plf/GD32VW55x_standard_peripheral/Source\gd32vw55x_rtc.c **** }
 847              		.loc 1 445 1
 848 0056 8280     		ret
 849              	.LVL50:
 850              	.L47:
 435:C:/Users/stapi/OneDrive/Desktop/GD32VW553/GD32VW55X_Wifi_BLE_SDK/GD32VW55x_RELEASE_V1.0.2/MSDK/plf/GD32VW55x_standard_peripheral/Source\gd32vw55x_rtc.c ****     }
 851              		.loc 1 435 9 is_stmt 1
 435:C:/Users/stapi/OneDrive/Desktop/GD32VW553/GD32VW55X_Wifi_BLE_SDK/GD32VW55x_RELEASE_V1.0.2/MSDK/plf/GD32VW55x_standard_peripheral/Source\gd32vw55x_rtc.c ****     }
 852              		.loc 1 435 20 is_stmt 0
 853 0058 B7370040 		li	a5,1073754112
 854 005c 83A70782 		lw	a5,-2016(a5)
 855              	.LVL51:
 856 0060 7DB7     		j	.L48
 857              		.cfi_endproc
 858              	.LFE374:
 860              		.section	.text.rtc_alarm_subsecond_get,"ax",@progbits
 861              		.align	1
 862              		.globl	rtc_alarm_subsecond_get
 864              	rtc_alarm_subsecond_get:
 865              	.LFB375:
 446:C:/Users/stapi/OneDrive/Desktop/GD32VW553/GD32VW55X_Wifi_BLE_SDK/GD32VW55x_RELEASE_V1.0.2/MSDK/plf/GD32VW55x_standard_peripheral/Source\gd32vw55x_rtc.c **** 
 447:C:/Users/stapi/OneDrive/Desktop/GD32VW553/GD32VW55X_Wifi_BLE_SDK/GD32VW55x_RELEASE_V1.0.2/MSDK/plf/GD32VW55x_standard_peripheral/Source\gd32vw55x_rtc.c **** /*!
 448:C:/Users/stapi/OneDrive/Desktop/GD32VW553/GD32VW55X_Wifi_BLE_SDK/GD32VW55x_RELEASE_V1.0.2/MSDK/plf/GD32VW55x_standard_peripheral/Source\gd32vw55x_rtc.c ****     \brief      get RTC alarm subsecond
 449:C:/Users/stapi/OneDrive/Desktop/GD32VW553/GD32VW55X_Wifi_BLE_SDK/GD32VW55x_RELEASE_V1.0.2/MSDK/plf/GD32VW55x_standard_peripheral/Source\gd32vw55x_rtc.c ****     \param[in]  rtc_alarm: RTC_ALARM0 or RTC_ALARM1
 450:C:/Users/stapi/OneDrive/Desktop/GD32VW553/GD32VW55X_Wifi_BLE_SDK/GD32VW55x_RELEASE_V1.0.2/MSDK/plf/GD32VW55x_standard_peripheral/Source\gd32vw55x_rtc.c ****     \param[out] none
 451:C:/Users/stapi/OneDrive/Desktop/GD32VW553/GD32VW55X_Wifi_BLE_SDK/GD32VW55x_RELEASE_V1.0.2/MSDK/plf/GD32VW55x_standard_peripheral/Source\gd32vw55x_rtc.c ****     \retval     RTC alarm subsecond value
 452:C:/Users/stapi/OneDrive/Desktop/GD32VW553/GD32VW55X_Wifi_BLE_SDK/GD32VW55x_RELEASE_V1.0.2/MSDK/plf/GD32VW55x_standard_peripheral/Source\gd32vw55x_rtc.c **** */
 453:C:/Users/stapi/OneDrive/Desktop/GD32VW553/GD32VW55X_Wifi_BLE_SDK/GD32VW55x_RELEASE_V1.0.2/MSDK/plf/GD32VW55x_standard_peripheral/Source\gd32vw55x_rtc.c **** uint32_t rtc_alarm_subsecond_get(uint8_t rtc_alarm)
 454:C:/Users/stapi/OneDrive/Desktop/GD32VW553/GD32VW55X_Wifi_BLE_SDK/GD32VW55x_RELEASE_V1.0.2/MSDK/plf/GD32VW55x_standard_peripheral/Source\gd32vw55x_rtc.c **** {
 866              		.loc 1 454 1 is_stmt 1
 867              		.cfi_startproc
 868              	.LVL52:
 455:C:/Users/stapi/OneDrive/Desktop/GD32VW553/GD32VW55X_Wifi_BLE_SDK/GD32VW55x_RELEASE_V1.0.2/MSDK/plf/GD32VW55x_standard_peripheral/Source\gd32vw55x_rtc.c ****     if(RTC_ALARM0 == rtc_alarm) {
 869              		.loc 1 455 5
 870 0000 A167     		li	a5,32768
 871              		.loc 1 455 7 is_stmt 0
 872 0002 0547     		li	a4,1
 873 0004 FD17     		addi	a5,a5,-1
 874 0006 6318E500 		bne	a0,a4,.L50
 456:C:/Users/stapi/OneDrive/Desktop/GD32VW553/GD32VW55X_Wifi_BLE_SDK/GD32VW55x_RELEASE_V1.0.2/MSDK/plf/GD32VW55x_standard_peripheral/Source\gd32vw55x_rtc.c ****         return ((uint32_t)(RTC_ALRM0SS & RTC_ALRMXSS_SSC));
 875              		.loc 1 456 9 is_stmt 1
 876              		.loc 1 456 17 is_stmt 0
 877 000a 37370040 		li	a4,1073754112
 878 000e 03254784 		lw	a0,-1980(a4)
 879              	.LVL53:
 880              	.L52:
 457:C:/Users/stapi/OneDrive/Desktop/GD32VW553/GD32VW55X_Wifi_BLE_SDK/GD32VW55x_RELEASE_V1.0.2/MSDK/plf/GD32VW55x_standard_peripheral/Source\gd32vw55x_rtc.c ****     } else {
 458:C:/Users/stapi/OneDrive/Desktop/GD32VW553/GD32VW55X_Wifi_BLE_SDK/GD32VW55x_RELEASE_V1.0.2/MSDK/plf/GD32VW55x_standard_peripheral/Source\gd32vw55x_rtc.c ****         return ((uint32_t)(RTC_ALRM1SS & RTC_ALRMXSS_SSC));
 881              		.loc 1 458 17
 882 0012 7D8D     		and	a0,a0,a5
 459:C:/Users/stapi/OneDrive/Desktop/GD32VW553/GD32VW55X_Wifi_BLE_SDK/GD32VW55x_RELEASE_V1.0.2/MSDK/plf/GD32VW55x_standard_peripheral/Source\gd32vw55x_rtc.c ****     }
 460:C:/Users/stapi/OneDrive/Desktop/GD32VW553/GD32VW55X_Wifi_BLE_SDK/GD32VW55x_RELEASE_V1.0.2/MSDK/plf/GD32VW55x_standard_peripheral/Source\gd32vw55x_rtc.c **** }
 883              		.loc 1 460 1
 884 0014 8280     		ret
 885              	.LVL54:
 886              	.L50:
 458:C:/Users/stapi/OneDrive/Desktop/GD32VW553/GD32VW55X_Wifi_BLE_SDK/GD32VW55x_RELEASE_V1.0.2/MSDK/plf/GD32VW55x_standard_peripheral/Source\gd32vw55x_rtc.c ****     }
 887              		.loc 1 458 9 is_stmt 1
 458:C:/Users/stapi/OneDrive/Desktop/GD32VW553/GD32VW55X_Wifi_BLE_SDK/GD32VW55x_RELEASE_V1.0.2/MSDK/plf/GD32VW55x_standard_peripheral/Source\gd32vw55x_rtc.c ****     }
 888              		.loc 1 458 17 is_stmt 0
 889 0016 37370040 		li	a4,1073754112
 890 001a 03258784 		lw	a0,-1976(a4)
 891              	.LVL55:
 892 001e D5BF     		j	.L52
 893              		.cfi_endproc
 894              	.LFE375:
 896              		.section	.text.rtc_alarm_enable,"ax",@progbits
 897              		.align	1
 898              		.globl	rtc_alarm_enable
 900              	rtc_alarm_enable:
 901              	.LFB376:
 461:C:/Users/stapi/OneDrive/Desktop/GD32VW553/GD32VW55X_Wifi_BLE_SDK/GD32VW55x_RELEASE_V1.0.2/MSDK/plf/GD32VW55x_standard_peripheral/Source\gd32vw55x_rtc.c **** 
 462:C:/Users/stapi/OneDrive/Desktop/GD32VW553/GD32VW55X_Wifi_BLE_SDK/GD32VW55x_RELEASE_V1.0.2/MSDK/plf/GD32VW55x_standard_peripheral/Source\gd32vw55x_rtc.c **** /*!
 463:C:/Users/stapi/OneDrive/Desktop/GD32VW553/GD32VW55X_Wifi_BLE_SDK/GD32VW55x_RELEASE_V1.0.2/MSDK/plf/GD32VW55x_standard_peripheral/Source\gd32vw55x_rtc.c ****     \brief      enable RTC alarm
 464:C:/Users/stapi/OneDrive/Desktop/GD32VW553/GD32VW55X_Wifi_BLE_SDK/GD32VW55x_RELEASE_V1.0.2/MSDK/plf/GD32VW55x_standard_peripheral/Source\gd32vw55x_rtc.c ****     \param[in]  rtc_alarm: RTC_ALARM0 or RTC_ALARM1
 465:C:/Users/stapi/OneDrive/Desktop/GD32VW553/GD32VW55X_Wifi_BLE_SDK/GD32VW55x_RELEASE_V1.0.2/MSDK/plf/GD32VW55x_standard_peripheral/Source\gd32vw55x_rtc.c ****     \param[out] none
 466:C:/Users/stapi/OneDrive/Desktop/GD32VW553/GD32VW55X_Wifi_BLE_SDK/GD32VW55x_RELEASE_V1.0.2/MSDK/plf/GD32VW55x_standard_peripheral/Source\gd32vw55x_rtc.c ****     \retval     none
 467:C:/Users/stapi/OneDrive/Desktop/GD32VW553/GD32VW55X_Wifi_BLE_SDK/GD32VW55x_RELEASE_V1.0.2/MSDK/plf/GD32VW55x_standard_peripheral/Source\gd32vw55x_rtc.c **** */
 468:C:/Users/stapi/OneDrive/Desktop/GD32VW553/GD32VW55X_Wifi_BLE_SDK/GD32VW55x_RELEASE_V1.0.2/MSDK/plf/GD32VW55x_standard_peripheral/Source\gd32vw55x_rtc.c **** void rtc_alarm_enable(uint8_t rtc_alarm)
 469:C:/Users/stapi/OneDrive/Desktop/GD32VW553/GD32VW55X_Wifi_BLE_SDK/GD32VW55x_RELEASE_V1.0.2/MSDK/plf/GD32VW55x_standard_peripheral/Source\gd32vw55x_rtc.c **** {
 902              		.loc 1 469 1 is_stmt 1
 903              		.cfi_startproc
 904              	.LVL56:
 470:C:/Users/stapi/OneDrive/Desktop/GD32VW553/GD32VW55X_Wifi_BLE_SDK/GD32VW55x_RELEASE_V1.0.2/MSDK/plf/GD32VW55x_standard_peripheral/Source\gd32vw55x_rtc.c ****     /* disable the write protection */
 471:C:/Users/stapi/OneDrive/Desktop/GD32VW553/GD32VW55X_Wifi_BLE_SDK/GD32VW55x_RELEASE_V1.0.2/MSDK/plf/GD32VW55x_standard_peripheral/Source\gd32vw55x_rtc.c ****     RTC_WPK = RTC_UNLOCK_KEY1;
 905              		.loc 1 471 5
 906              		.loc 1 471 13 is_stmt 0
 907 0000 B7370040 		li	a5,1073754112
 908 0004 1307A00C 		li	a4,202
 909 0008 23A2E782 		sw	a4,-2012(a5)
 472:C:/Users/stapi/OneDrive/Desktop/GD32VW553/GD32VW55X_Wifi_BLE_SDK/GD32VW55x_RELEASE_V1.0.2/MSDK/plf/GD32VW55x_standard_peripheral/Source\gd32vw55x_rtc.c ****     RTC_WPK = RTC_UNLOCK_KEY2;
 910              		.loc 1 472 5 is_stmt 1
 911              		.loc 1 472 13 is_stmt 0
 912 000c 13073005 		li	a4,83
 913 0010 23A2E782 		sw	a4,-2012(a5)
 473:C:/Users/stapi/OneDrive/Desktop/GD32VW553/GD32VW55X_Wifi_BLE_SDK/GD32VW55x_RELEASE_V1.0.2/MSDK/plf/GD32VW55x_standard_peripheral/Source\gd32vw55x_rtc.c **** 
 474:C:/Users/stapi/OneDrive/Desktop/GD32VW553/GD32VW55X_Wifi_BLE_SDK/GD32VW55x_RELEASE_V1.0.2/MSDK/plf/GD32VW55x_standard_peripheral/Source\gd32vw55x_rtc.c ****     if(RTC_ALARM0 == rtc_alarm) {
 914              		.loc 1 474 5 is_stmt 1
 915              		.loc 1 474 7 is_stmt 0
 916 0014 0547     		li	a4,1
 917 0016 631FE500 		bne	a0,a4,.L54
 475:C:/Users/stapi/OneDrive/Desktop/GD32VW553/GD32VW55X_Wifi_BLE_SDK/GD32VW55x_RELEASE_V1.0.2/MSDK/plf/GD32VW55x_standard_peripheral/Source\gd32vw55x_rtc.c ****         RTC_CTL |= RTC_CTL_ALRM0EN;
 918              		.loc 1 475 9 is_stmt 1
 919              		.loc 1 475 17 is_stmt 0
 920 001a 03A78780 		lw	a4,-2040(a5)
 921 001e 13670710 		ori	a4,a4,256
 922              	.L56:
 476:C:/Users/stapi/OneDrive/Desktop/GD32VW553/GD32VW55X_Wifi_BLE_SDK/GD32VW55x_RELEASE_V1.0.2/MSDK/plf/GD32VW55x_standard_peripheral/Source\gd32vw55x_rtc.c ****     } else {
 477:C:/Users/stapi/OneDrive/Desktop/GD32VW553/GD32VW55X_Wifi_BLE_SDK/GD32VW55x_RELEASE_V1.0.2/MSDK/plf/GD32VW55x_standard_peripheral/Source\gd32vw55x_rtc.c ****         RTC_CTL |= RTC_CTL_ALRM1EN;
 923              		.loc 1 477 17
 924 0022 23A4E780 		sw	a4,-2040(a5)
 478:C:/Users/stapi/OneDrive/Desktop/GD32VW553/GD32VW55X_Wifi_BLE_SDK/GD32VW55x_RELEASE_V1.0.2/MSDK/plf/GD32VW55x_standard_peripheral/Source\gd32vw55x_rtc.c ****     }
 479:C:/Users/stapi/OneDrive/Desktop/GD32VW553/GD32VW55X_Wifi_BLE_SDK/GD32VW55x_RELEASE_V1.0.2/MSDK/plf/GD32VW55x_standard_peripheral/Source\gd32vw55x_rtc.c **** 
 480:C:/Users/stapi/OneDrive/Desktop/GD32VW553/GD32VW55X_Wifi_BLE_SDK/GD32VW55x_RELEASE_V1.0.2/MSDK/plf/GD32VW55x_standard_peripheral/Source\gd32vw55x_rtc.c ****     /* enable the write protection */
 481:C:/Users/stapi/OneDrive/Desktop/GD32VW553/GD32VW55X_Wifi_BLE_SDK/GD32VW55x_RELEASE_V1.0.2/MSDK/plf/GD32VW55x_standard_peripheral/Source\gd32vw55x_rtc.c ****     RTC_WPK = RTC_LOCK_KEY;
 925              		.loc 1 481 5 is_stmt 1
 926              		.loc 1 481 13 is_stmt 0
 927 0026 B7370040 		li	a5,1073754112
 928 002a 1307F00F 		li	a4,255
 929 002e 23A2E782 		sw	a4,-2012(a5)
 482:C:/Users/stapi/OneDrive/Desktop/GD32VW553/GD32VW55X_Wifi_BLE_SDK/GD32VW55x_RELEASE_V1.0.2/MSDK/plf/GD32VW55x_standard_peripheral/Source\gd32vw55x_rtc.c **** }
 930              		.loc 1 482 1
 931 0032 8280     		ret
 932              	.L54:
 477:C:/Users/stapi/OneDrive/Desktop/GD32VW553/GD32VW55X_Wifi_BLE_SDK/GD32VW55x_RELEASE_V1.0.2/MSDK/plf/GD32VW55x_standard_peripheral/Source\gd32vw55x_rtc.c ****     }
 933              		.loc 1 477 9 is_stmt 1
 477:C:/Users/stapi/OneDrive/Desktop/GD32VW553/GD32VW55X_Wifi_BLE_SDK/GD32VW55x_RELEASE_V1.0.2/MSDK/plf/GD32VW55x_standard_peripheral/Source\gd32vw55x_rtc.c ****     }
 934              		.loc 1 477 17 is_stmt 0
 935 0034 03A78780 		lw	a4,-2040(a5)
 936 0038 13670720 		ori	a4,a4,512
 937 003c DDB7     		j	.L56
 938              		.cfi_endproc
 939              	.LFE376:
 941              		.section	.text.rtc_alarm_disable,"ax",@progbits
 942              		.align	1
 943              		.globl	rtc_alarm_disable
 945              	rtc_alarm_disable:
 946              	.LFB377:
 483:C:/Users/stapi/OneDrive/Desktop/GD32VW553/GD32VW55X_Wifi_BLE_SDK/GD32VW55x_RELEASE_V1.0.2/MSDK/plf/GD32VW55x_standard_peripheral/Source\gd32vw55x_rtc.c **** 
 484:C:/Users/stapi/OneDrive/Desktop/GD32VW553/GD32VW55X_Wifi_BLE_SDK/GD32VW55x_RELEASE_V1.0.2/MSDK/plf/GD32VW55x_standard_peripheral/Source\gd32vw55x_rtc.c **** /*!
 485:C:/Users/stapi/OneDrive/Desktop/GD32VW553/GD32VW55X_Wifi_BLE_SDK/GD32VW55x_RELEASE_V1.0.2/MSDK/plf/GD32VW55x_standard_peripheral/Source\gd32vw55x_rtc.c ****     \brief      disable RTC alarm
 486:C:/Users/stapi/OneDrive/Desktop/GD32VW553/GD32VW55X_Wifi_BLE_SDK/GD32VW55x_RELEASE_V1.0.2/MSDK/plf/GD32VW55x_standard_peripheral/Source\gd32vw55x_rtc.c ****     \param[in]  rtc_alarm: RTC_ALARM0 or RTC_ALARM1
 487:C:/Users/stapi/OneDrive/Desktop/GD32VW553/GD32VW55X_Wifi_BLE_SDK/GD32VW55x_RELEASE_V1.0.2/MSDK/plf/GD32VW55x_standard_peripheral/Source\gd32vw55x_rtc.c ****     \param[out] none
 488:C:/Users/stapi/OneDrive/Desktop/GD32VW553/GD32VW55X_Wifi_BLE_SDK/GD32VW55x_RELEASE_V1.0.2/MSDK/plf/GD32VW55x_standard_peripheral/Source\gd32vw55x_rtc.c ****     \retval     ErrStatus: ERROR or SUCCESS
 489:C:/Users/stapi/OneDrive/Desktop/GD32VW553/GD32VW55X_Wifi_BLE_SDK/GD32VW55x_RELEASE_V1.0.2/MSDK/plf/GD32VW55x_standard_peripheral/Source\gd32vw55x_rtc.c **** */
 490:C:/Users/stapi/OneDrive/Desktop/GD32VW553/GD32VW55X_Wifi_BLE_SDK/GD32VW55x_RELEASE_V1.0.2/MSDK/plf/GD32VW55x_standard_peripheral/Source\gd32vw55x_rtc.c **** ErrStatus rtc_alarm_disable(uint8_t rtc_alarm)
 491:C:/Users/stapi/OneDrive/Desktop/GD32VW553/GD32VW55X_Wifi_BLE_SDK/GD32VW55x_RELEASE_V1.0.2/MSDK/plf/GD32VW55x_standard_peripheral/Source\gd32vw55x_rtc.c **** {
 947              		.loc 1 491 1 is_stmt 1
 948              		.cfi_startproc
 949              	.LVL57:
 492:C:/Users/stapi/OneDrive/Desktop/GD32VW553/GD32VW55X_Wifi_BLE_SDK/GD32VW55x_RELEASE_V1.0.2/MSDK/plf/GD32VW55x_standard_peripheral/Source\gd32vw55x_rtc.c ****     volatile uint32_t time_index = RTC_ALRMXWF_TIMEOUT;
 950              		.loc 1 492 5
 951              		.loc 1 492 23 is_stmt 0
 952 0000 A167     		li	a5,32768
 491:C:/Users/stapi/OneDrive/Desktop/GD32VW553/GD32VW55X_Wifi_BLE_SDK/GD32VW55x_RELEASE_V1.0.2/MSDK/plf/GD32VW55x_standard_peripheral/Source\gd32vw55x_rtc.c ****     volatile uint32_t time_index = RTC_ALRMXWF_TIMEOUT;
 953              		.loc 1 491 1
 954 0002 4111     		addi	sp,sp,-16
 955              		.cfi_def_cfa_offset 16
 956              		.loc 1 492 23
 957 0004 3EC6     		sw	a5,12(sp)
 493:C:/Users/stapi/OneDrive/Desktop/GD32VW553/GD32VW55X_Wifi_BLE_SDK/GD32VW55x_RELEASE_V1.0.2/MSDK/plf/GD32VW55x_standard_peripheral/Source\gd32vw55x_rtc.c ****     ErrStatus error_status = ERROR;
 958              		.loc 1 493 5 is_stmt 1
 959              	.LVL58:
 494:C:/Users/stapi/OneDrive/Desktop/GD32VW553/GD32VW55X_Wifi_BLE_SDK/GD32VW55x_RELEASE_V1.0.2/MSDK/plf/GD32VW55x_standard_peripheral/Source\gd32vw55x_rtc.c ****     uint32_t flag_status = RESET;
 960              		.loc 1 494 5
 495:C:/Users/stapi/OneDrive/Desktop/GD32VW553/GD32VW55X_Wifi_BLE_SDK/GD32VW55x_RELEASE_V1.0.2/MSDK/plf/GD32VW55x_standard_peripheral/Source\gd32vw55x_rtc.c **** 
 496:C:/Users/stapi/OneDrive/Desktop/GD32VW553/GD32VW55X_Wifi_BLE_SDK/GD32VW55x_RELEASE_V1.0.2/MSDK/plf/GD32VW55x_standard_peripheral/Source\gd32vw55x_rtc.c ****     /* disable the write protection */
 497:C:/Users/stapi/OneDrive/Desktop/GD32VW553/GD32VW55X_Wifi_BLE_SDK/GD32VW55x_RELEASE_V1.0.2/MSDK/plf/GD32VW55x_standard_peripheral/Source\gd32vw55x_rtc.c ****     RTC_WPK = RTC_UNLOCK_KEY1;
 961              		.loc 1 497 5
 962              		.loc 1 497 13 is_stmt 0
 963 0006 1307A00C 		li	a4,202
 964 000a B7370040 		li	a5,1073754112
 965 000e 23A2E782 		sw	a4,-2012(a5)
 498:C:/Users/stapi/OneDrive/Desktop/GD32VW553/GD32VW55X_Wifi_BLE_SDK/GD32VW55x_RELEASE_V1.0.2/MSDK/plf/GD32VW55x_standard_peripheral/Source\gd32vw55x_rtc.c ****     RTC_WPK = RTC_UNLOCK_KEY2;
 966              		.loc 1 498 5 is_stmt 1
 967              		.loc 1 498 13 is_stmt 0
 968 0012 13073005 		li	a4,83
 969 0016 23A2E782 		sw	a4,-2012(a5)
 499:C:/Users/stapi/OneDrive/Desktop/GD32VW553/GD32VW55X_Wifi_BLE_SDK/GD32VW55x_RELEASE_V1.0.2/MSDK/plf/GD32VW55x_standard_peripheral/Source\gd32vw55x_rtc.c **** 
 500:C:/Users/stapi/OneDrive/Desktop/GD32VW553/GD32VW55X_Wifi_BLE_SDK/GD32VW55x_RELEASE_V1.0.2/MSDK/plf/GD32VW55x_standard_peripheral/Source\gd32vw55x_rtc.c ****     /* clear the state of alarm */
 501:C:/Users/stapi/OneDrive/Desktop/GD32VW553/GD32VW55X_Wifi_BLE_SDK/GD32VW55x_RELEASE_V1.0.2/MSDK/plf/GD32VW55x_standard_peripheral/Source\gd32vw55x_rtc.c ****     if(RTC_ALARM0 == rtc_alarm) {
 970              		.loc 1 501 5 is_stmt 1
 971              		.loc 1 501 7 is_stmt 0
 972 001a 0547     		li	a4,1
 973 001c 631BE502 		bne	a0,a4,.L58
 502:C:/Users/stapi/OneDrive/Desktop/GD32VW553/GD32VW55X_Wifi_BLE_SDK/GD32VW55x_RELEASE_V1.0.2/MSDK/plf/GD32VW55x_standard_peripheral/Source\gd32vw55x_rtc.c ****         RTC_CTL &= (uint32_t)(~RTC_CTL_ALRM0EN);
 974              		.loc 1 502 9 is_stmt 1
 975              		.loc 1 502 17 is_stmt 0
 976 0020 03A78780 		lw	a4,-2040(a5)
 977 0024 1377F7EF 		andi	a4,a4,-257
 978 0028 23A4E780 		sw	a4,-2040(a5)
 503:C:/Users/stapi/OneDrive/Desktop/GD32VW553/GD32VW55X_Wifi_BLE_SDK/GD32VW55x_RELEASE_V1.0.2/MSDK/plf/GD32VW55x_standard_peripheral/Source\gd32vw55x_rtc.c ****         /* wait until ALRM0WF flag to be set after the alarm is disabled */
 504:C:/Users/stapi/OneDrive/Desktop/GD32VW553/GD32VW55X_Wifi_BLE_SDK/GD32VW55x_RELEASE_V1.0.2/MSDK/plf/GD32VW55x_standard_peripheral/Source\gd32vw55x_rtc.c ****         do {
 505:C:/Users/stapi/OneDrive/Desktop/GD32VW553/GD32VW55X_Wifi_BLE_SDK/GD32VW55x_RELEASE_V1.0.2/MSDK/plf/GD32VW55x_standard_peripheral/Source\gd32vw55x_rtc.c ****             flag_status = RTC_STAT & RTC_STAT_ALRM0WF;
 979              		.loc 1 505 27
 980 002c 37370040 		li	a4,1073754112
 981              	.LVL59:
 982              	.L60:
 504:C:/Users/stapi/OneDrive/Desktop/GD32VW553/GD32VW55X_Wifi_BLE_SDK/GD32VW55x_RELEASE_V1.0.2/MSDK/plf/GD32VW55x_standard_peripheral/Source\gd32vw55x_rtc.c ****             flag_status = RTC_STAT & RTC_STAT_ALRM0WF;
 983              		.loc 1 504 9 is_stmt 1 discriminator 2
 984              		.loc 1 505 13 discriminator 2
 985              		.loc 1 505 27 is_stmt 0 discriminator 2
 986 0030 0325C780 		lw	a0,-2036(a4)
 506:C:/Users/stapi/OneDrive/Desktop/GD32VW553/GD32VW55X_Wifi_BLE_SDK/GD32VW55x_RELEASE_V1.0.2/MSDK/plf/GD32VW55x_standard_peripheral/Source\gd32vw55x_rtc.c ****         } while((--time_index > 0U) && ((uint32_t)RESET == flag_status));
 987              		.loc 1 506 18 discriminator 2
 988 0034 B247     		lw	a5,12(sp)
 505:C:/Users/stapi/OneDrive/Desktop/GD32VW553/GD32VW55X_Wifi_BLE_SDK/GD32VW55x_RELEASE_V1.0.2/MSDK/plf/GD32VW55x_standard_peripheral/Source\gd32vw55x_rtc.c ****         } while((--time_index > 0U) && ((uint32_t)RESET == flag_status));
 989              		.loc 1 505 25 discriminator 2
 990 0036 0589     		andi	a0,a0,1
 991              	.LVL60:
 992              		.loc 1 506 16 is_stmt 1 discriminator 2
 993              		.loc 1 506 18 is_stmt 0 discriminator 2
 994 0038 FD17     		addi	a5,a5,-1
 995              		.loc 1 506 9 discriminator 2
 996 003a 3EC6     		sw	a5,12(sp)
 997 003c 85CF     		beq	a5,zero,.L59
 998              		.loc 1 506 37 discriminator 1
 999 003e 6DD9     		beq	a0,zero,.L60
 1000              	.L63:
 507:C:/Users/stapi/OneDrive/Desktop/GD32VW553/GD32VW55X_Wifi_BLE_SDK/GD32VW55x_RELEASE_V1.0.2/MSDK/plf/GD32VW55x_standard_peripheral/Source\gd32vw55x_rtc.c ****     } else {
 508:C:/Users/stapi/OneDrive/Desktop/GD32VW553/GD32VW55X_Wifi_BLE_SDK/GD32VW55x_RELEASE_V1.0.2/MSDK/plf/GD32VW55x_standard_peripheral/Source\gd32vw55x_rtc.c ****         RTC_CTL &= (uint32_t)(~RTC_CTL_ALRM1EN);
 509:C:/Users/stapi/OneDrive/Desktop/GD32VW553/GD32VW55X_Wifi_BLE_SDK/GD32VW55x_RELEASE_V1.0.2/MSDK/plf/GD32VW55x_standard_peripheral/Source\gd32vw55x_rtc.c ****         /* wait until ALRM1WF flag to be set after the alarm is disabled */
 510:C:/Users/stapi/OneDrive/Desktop/GD32VW553/GD32VW55X_Wifi_BLE_SDK/GD32VW55x_RELEASE_V1.0.2/MSDK/plf/GD32VW55x_standard_peripheral/Source\gd32vw55x_rtc.c ****         do {
 511:C:/Users/stapi/OneDrive/Desktop/GD32VW553/GD32VW55X_Wifi_BLE_SDK/GD32VW55x_RELEASE_V1.0.2/MSDK/plf/GD32VW55x_standard_peripheral/Source\gd32vw55x_rtc.c ****             flag_status = RTC_STAT & RTC_STAT_ALRM1WF;
 512:C:/Users/stapi/OneDrive/Desktop/GD32VW553/GD32VW55X_Wifi_BLE_SDK/GD32VW55x_RELEASE_V1.0.2/MSDK/plf/GD32VW55x_standard_peripheral/Source\gd32vw55x_rtc.c ****         } while((--time_index > 0U) && ((uint32_t)RESET == flag_status));
 513:C:/Users/stapi/OneDrive/Desktop/GD32VW553/GD32VW55X_Wifi_BLE_SDK/GD32VW55x_RELEASE_V1.0.2/MSDK/plf/GD32VW55x_standard_peripheral/Source\gd32vw55x_rtc.c ****     }
 514:C:/Users/stapi/OneDrive/Desktop/GD32VW553/GD32VW55X_Wifi_BLE_SDK/GD32VW55x_RELEASE_V1.0.2/MSDK/plf/GD32VW55x_standard_peripheral/Source\gd32vw55x_rtc.c **** 
 515:C:/Users/stapi/OneDrive/Desktop/GD32VW553/GD32VW55X_Wifi_BLE_SDK/GD32VW55x_RELEASE_V1.0.2/MSDK/plf/GD32VW55x_standard_peripheral/Source\gd32vw55x_rtc.c ****     if((uint32_t)RESET != flag_status) {
 516:C:/Users/stapi/OneDrive/Desktop/GD32VW553/GD32VW55X_Wifi_BLE_SDK/GD32VW55x_RELEASE_V1.0.2/MSDK/plf/GD32VW55x_standard_peripheral/Source\gd32vw55x_rtc.c ****         error_status = SUCCESS;
 1001              		.loc 1 516 22
 1002 0040 0545     		li	a0,1
 1003              	.LVL61:
 1004              	.L61:
 517:C:/Users/stapi/OneDrive/Desktop/GD32VW553/GD32VW55X_Wifi_BLE_SDK/GD32VW55x_RELEASE_V1.0.2/MSDK/plf/GD32VW55x_standard_peripheral/Source\gd32vw55x_rtc.c ****     }
 518:C:/Users/stapi/OneDrive/Desktop/GD32VW553/GD32VW55X_Wifi_BLE_SDK/GD32VW55x_RELEASE_V1.0.2/MSDK/plf/GD32VW55x_standard_peripheral/Source\gd32vw55x_rtc.c **** 
 519:C:/Users/stapi/OneDrive/Desktop/GD32VW553/GD32VW55X_Wifi_BLE_SDK/GD32VW55x_RELEASE_V1.0.2/MSDK/plf/GD32VW55x_standard_peripheral/Source\gd32vw55x_rtc.c ****     /* enable the write protection */
 520:C:/Users/stapi/OneDrive/Desktop/GD32VW553/GD32VW55X_Wifi_BLE_SDK/GD32VW55x_RELEASE_V1.0.2/MSDK/plf/GD32VW55x_standard_peripheral/Source\gd32vw55x_rtc.c ****     RTC_WPK = RTC_LOCK_KEY;
 1005              		.loc 1 520 5 is_stmt 1
 1006              		.loc 1 520 13 is_stmt 0
 1007 0042 B7370040 		li	a5,1073754112
 1008 0046 1307F00F 		li	a4,255
 1009 004a 23A2E782 		sw	a4,-2012(a5)
 521:C:/Users/stapi/OneDrive/Desktop/GD32VW553/GD32VW55X_Wifi_BLE_SDK/GD32VW55x_RELEASE_V1.0.2/MSDK/plf/GD32VW55x_standard_peripheral/Source\gd32vw55x_rtc.c **** 
 522:C:/Users/stapi/OneDrive/Desktop/GD32VW553/GD32VW55X_Wifi_BLE_SDK/GD32VW55x_RELEASE_V1.0.2/MSDK/plf/GD32VW55x_standard_peripheral/Source\gd32vw55x_rtc.c ****     return error_status;
 1010              		.loc 1 522 5 is_stmt 1
 523:C:/Users/stapi/OneDrive/Desktop/GD32VW553/GD32VW55X_Wifi_BLE_SDK/GD32VW55x_RELEASE_V1.0.2/MSDK/plf/GD32VW55x_standard_peripheral/Source\gd32vw55x_rtc.c **** }
 1011              		.loc 1 523 1 is_stmt 0
 1012 004e 4101     		addi	sp,sp,16
 1013              		.cfi_remember_state
 1014              		.cfi_def_cfa_offset 0
 1015 0050 8280     		jr	ra
 1016              	.LVL62:
 1017              	.L58:
 1018              		.cfi_restore_state
 508:C:/Users/stapi/OneDrive/Desktop/GD32VW553/GD32VW55X_Wifi_BLE_SDK/GD32VW55x_RELEASE_V1.0.2/MSDK/plf/GD32VW55x_standard_peripheral/Source\gd32vw55x_rtc.c ****         /* wait until ALRM1WF flag to be set after the alarm is disabled */
 1019              		.loc 1 508 9 is_stmt 1
 508:C:/Users/stapi/OneDrive/Desktop/GD32VW553/GD32VW55X_Wifi_BLE_SDK/GD32VW55x_RELEASE_V1.0.2/MSDK/plf/GD32VW55x_standard_peripheral/Source\gd32vw55x_rtc.c ****         /* wait until ALRM1WF flag to be set after the alarm is disabled */
 1020              		.loc 1 508 17 is_stmt 0
 1021 0052 03A78780 		lw	a4,-2040(a5)
 1022 0056 1377F7DF 		andi	a4,a4,-513
 1023 005a 23A4E780 		sw	a4,-2040(a5)
 511:C:/Users/stapi/OneDrive/Desktop/GD32VW553/GD32VW55X_Wifi_BLE_SDK/GD32VW55x_RELEASE_V1.0.2/MSDK/plf/GD32VW55x_standard_peripheral/Source\gd32vw55x_rtc.c ****         } while((--time_index > 0U) && ((uint32_t)RESET == flag_status));
 1024              		.loc 1 511 27
 1025 005e 37370040 		li	a4,1073754112
 1026              	.LVL63:
 1027              	.L62:
 510:C:/Users/stapi/OneDrive/Desktop/GD32VW553/GD32VW55X_Wifi_BLE_SDK/GD32VW55x_RELEASE_V1.0.2/MSDK/plf/GD32VW55x_standard_peripheral/Source\gd32vw55x_rtc.c ****             flag_status = RTC_STAT & RTC_STAT_ALRM1WF;
 1028              		.loc 1 510 9 is_stmt 1 discriminator 2
 511:C:/Users/stapi/OneDrive/Desktop/GD32VW553/GD32VW55X_Wifi_BLE_SDK/GD32VW55x_RELEASE_V1.0.2/MSDK/plf/GD32VW55x_standard_peripheral/Source\gd32vw55x_rtc.c ****         } while((--time_index > 0U) && ((uint32_t)RESET == flag_status));
 1029              		.loc 1 511 13 discriminator 2
 511:C:/Users/stapi/OneDrive/Desktop/GD32VW553/GD32VW55X_Wifi_BLE_SDK/GD32VW55x_RELEASE_V1.0.2/MSDK/plf/GD32VW55x_standard_peripheral/Source\gd32vw55x_rtc.c ****         } while((--time_index > 0U) && ((uint32_t)RESET == flag_status));
 1030              		.loc 1 511 27 is_stmt 0 discriminator 2
 1031 0062 0325C780 		lw	a0,-2036(a4)
 512:C:/Users/stapi/OneDrive/Desktop/GD32VW553/GD32VW55X_Wifi_BLE_SDK/GD32VW55x_RELEASE_V1.0.2/MSDK/plf/GD32VW55x_standard_peripheral/Source\gd32vw55x_rtc.c ****     }
 1032              		.loc 1 512 18 discriminator 2
 1033 0066 B247     		lw	a5,12(sp)
 511:C:/Users/stapi/OneDrive/Desktop/GD32VW553/GD32VW55X_Wifi_BLE_SDK/GD32VW55x_RELEASE_V1.0.2/MSDK/plf/GD32VW55x_standard_peripheral/Source\gd32vw55x_rtc.c ****         } while((--time_index > 0U) && ((uint32_t)RESET == flag_status));
 1034              		.loc 1 511 25 discriminator 2
 1035 0068 0989     		andi	a0,a0,2
 1036              	.LVL64:
 512:C:/Users/stapi/OneDrive/Desktop/GD32VW553/GD32VW55X_Wifi_BLE_SDK/GD32VW55x_RELEASE_V1.0.2/MSDK/plf/GD32VW55x_standard_peripheral/Source\gd32vw55x_rtc.c ****     }
 1037              		.loc 1 512 16 is_stmt 1 discriminator 2
 512:C:/Users/stapi/OneDrive/Desktop/GD32VW553/GD32VW55X_Wifi_BLE_SDK/GD32VW55x_RELEASE_V1.0.2/MSDK/plf/GD32VW55x_standard_peripheral/Source\gd32vw55x_rtc.c ****     }
 1038              		.loc 1 512 18 is_stmt 0 discriminator 2
 1039 006a FD17     		addi	a5,a5,-1
 512:C:/Users/stapi/OneDrive/Desktop/GD32VW553/GD32VW55X_Wifi_BLE_SDK/GD32VW55x_RELEASE_V1.0.2/MSDK/plf/GD32VW55x_standard_peripheral/Source\gd32vw55x_rtc.c ****     }
 1040              		.loc 1 512 9 discriminator 2
 1041 006c 3EC6     		sw	a5,12(sp)
 1042 006e 99C3     		beq	a5,zero,.L59
 512:C:/Users/stapi/OneDrive/Desktop/GD32VW553/GD32VW55X_Wifi_BLE_SDK/GD32VW55x_RELEASE_V1.0.2/MSDK/plf/GD32VW55x_standard_peripheral/Source\gd32vw55x_rtc.c ****     }
 1043              		.loc 1 512 37 discriminator 1
 1044 0070 6DD9     		beq	a0,zero,.L62
 1045 0072 F9B7     		j	.L63
 1046              	.L59:
 515:C:/Users/stapi/OneDrive/Desktop/GD32VW553/GD32VW55X_Wifi_BLE_SDK/GD32VW55x_RELEASE_V1.0.2/MSDK/plf/GD32VW55x_standard_peripheral/Source\gd32vw55x_rtc.c ****         error_status = SUCCESS;
 1047              		.loc 1 515 5 is_stmt 1
 515:C:/Users/stapi/OneDrive/Desktop/GD32VW553/GD32VW55X_Wifi_BLE_SDK/GD32VW55x_RELEASE_V1.0.2/MSDK/plf/GD32VW55x_standard_peripheral/Source\gd32vw55x_rtc.c ****         error_status = SUCCESS;
 1048              		.loc 1 515 7 is_stmt 0
 1049 0074 3335A000 		snez	a0,a0
 1050              	.LVL65:
 1051 0078 E9B7     		j	.L61
 1052              		.cfi_endproc
 1053              	.LFE377:
 1055              		.section	.text.rtc_timestamp_enable,"ax",@progbits
 1056              		.align	1
 1057              		.globl	rtc_timestamp_enable
 1059              	rtc_timestamp_enable:
 1060              	.LFB378:
 524:C:/Users/stapi/OneDrive/Desktop/GD32VW553/GD32VW55X_Wifi_BLE_SDK/GD32VW55x_RELEASE_V1.0.2/MSDK/plf/GD32VW55x_standard_peripheral/Source\gd32vw55x_rtc.c **** 
 525:C:/Users/stapi/OneDrive/Desktop/GD32VW553/GD32VW55X_Wifi_BLE_SDK/GD32VW55x_RELEASE_V1.0.2/MSDK/plf/GD32VW55x_standard_peripheral/Source\gd32vw55x_rtc.c **** /*!
 526:C:/Users/stapi/OneDrive/Desktop/GD32VW553/GD32VW55X_Wifi_BLE_SDK/GD32VW55x_RELEASE_V1.0.2/MSDK/plf/GD32VW55x_standard_peripheral/Source\gd32vw55x_rtc.c ****     \brief      enable RTC time-stamp
 527:C:/Users/stapi/OneDrive/Desktop/GD32VW553/GD32VW55X_Wifi_BLE_SDK/GD32VW55x_RELEASE_V1.0.2/MSDK/plf/GD32VW55x_standard_peripheral/Source\gd32vw55x_rtc.c ****     \param[in]  edge: specify which edge to detect of time-stamp
 528:C:/Users/stapi/OneDrive/Desktop/GD32VW553/GD32VW55X_Wifi_BLE_SDK/GD32VW55x_RELEASE_V1.0.2/MSDK/plf/GD32VW55x_standard_peripheral/Source\gd32vw55x_rtc.c ****       \arg        RTC_TIMESTAMP_RISING_EDGE: rising edge is valid event edge for timestamp event
 529:C:/Users/stapi/OneDrive/Desktop/GD32VW553/GD32VW55X_Wifi_BLE_SDK/GD32VW55x_RELEASE_V1.0.2/MSDK/plf/GD32VW55x_standard_peripheral/Source\gd32vw55x_rtc.c ****       \arg        RTC_TIMESTAMP_FALLING_EDGE: falling edge is valid event edge for timestamp event
 530:C:/Users/stapi/OneDrive/Desktop/GD32VW553/GD32VW55X_Wifi_BLE_SDK/GD32VW55x_RELEASE_V1.0.2/MSDK/plf/GD32VW55x_standard_peripheral/Source\gd32vw55x_rtc.c ****     \param[out] none
 531:C:/Users/stapi/OneDrive/Desktop/GD32VW553/GD32VW55X_Wifi_BLE_SDK/GD32VW55x_RELEASE_V1.0.2/MSDK/plf/GD32VW55x_standard_peripheral/Source\gd32vw55x_rtc.c ****     \retval     none
 532:C:/Users/stapi/OneDrive/Desktop/GD32VW553/GD32VW55X_Wifi_BLE_SDK/GD32VW55x_RELEASE_V1.0.2/MSDK/plf/GD32VW55x_standard_peripheral/Source\gd32vw55x_rtc.c **** */
 533:C:/Users/stapi/OneDrive/Desktop/GD32VW553/GD32VW55X_Wifi_BLE_SDK/GD32VW55x_RELEASE_V1.0.2/MSDK/plf/GD32VW55x_standard_peripheral/Source\gd32vw55x_rtc.c **** void rtc_timestamp_enable(uint32_t edge)
 534:C:/Users/stapi/OneDrive/Desktop/GD32VW553/GD32VW55X_Wifi_BLE_SDK/GD32VW55x_RELEASE_V1.0.2/MSDK/plf/GD32VW55x_standard_peripheral/Source\gd32vw55x_rtc.c **** {
 1061              		.loc 1 534 1 is_stmt 1
 1062              		.cfi_startproc
 1063              	.LVL66:
 535:C:/Users/stapi/OneDrive/Desktop/GD32VW553/GD32VW55X_Wifi_BLE_SDK/GD32VW55x_RELEASE_V1.0.2/MSDK/plf/GD32VW55x_standard_peripheral/Source\gd32vw55x_rtc.c ****     uint32_t reg_ctl = 0U;
 1064              		.loc 1 535 5
 536:C:/Users/stapi/OneDrive/Desktop/GD32VW553/GD32VW55X_Wifi_BLE_SDK/GD32VW55x_RELEASE_V1.0.2/MSDK/plf/GD32VW55x_standard_peripheral/Source\gd32vw55x_rtc.c **** 
 537:C:/Users/stapi/OneDrive/Desktop/GD32VW553/GD32VW55X_Wifi_BLE_SDK/GD32VW55x_RELEASE_V1.0.2/MSDK/plf/GD32VW55x_standard_peripheral/Source\gd32vw55x_rtc.c ****     /* disable the write protection */
 538:C:/Users/stapi/OneDrive/Desktop/GD32VW553/GD32VW55X_Wifi_BLE_SDK/GD32VW55x_RELEASE_V1.0.2/MSDK/plf/GD32VW55x_standard_peripheral/Source\gd32vw55x_rtc.c ****     RTC_WPK = RTC_UNLOCK_KEY1;
 1065              		.loc 1 538 5
 1066              		.loc 1 538 13 is_stmt 0
 1067 0000 B7370040 		li	a5,1073754112
 1068 0004 93870780 		addi	a5,a5,-2048
 1069 0008 1307A00C 		li	a4,202
 1070 000c D8D3     		sw	a4,36(a5)
 539:C:/Users/stapi/OneDrive/Desktop/GD32VW553/GD32VW55X_Wifi_BLE_SDK/GD32VW55x_RELEASE_V1.0.2/MSDK/plf/GD32VW55x_standard_peripheral/Source\gd32vw55x_rtc.c ****     RTC_WPK = RTC_UNLOCK_KEY2;
 1071              		.loc 1 539 5 is_stmt 1
 1072              		.loc 1 539 13 is_stmt 0
 1073 000e 13073005 		li	a4,83
 1074 0012 D8D3     		sw	a4,36(a5)
 540:C:/Users/stapi/OneDrive/Desktop/GD32VW553/GD32VW55X_Wifi_BLE_SDK/GD32VW55x_RELEASE_V1.0.2/MSDK/plf/GD32VW55x_standard_peripheral/Source\gd32vw55x_rtc.c **** 
 541:C:/Users/stapi/OneDrive/Desktop/GD32VW553/GD32VW55X_Wifi_BLE_SDK/GD32VW55x_RELEASE_V1.0.2/MSDK/plf/GD32VW55x_standard_peripheral/Source\gd32vw55x_rtc.c ****     /* clear the bits to be configured in RTC_CTL */
 542:C:/Users/stapi/OneDrive/Desktop/GD32VW553/GD32VW55X_Wifi_BLE_SDK/GD32VW55x_RELEASE_V1.0.2/MSDK/plf/GD32VW55x_standard_peripheral/Source\gd32vw55x_rtc.c ****     reg_ctl = (uint32_t)(RTC_CTL & (uint32_t)(~(RTC_CTL_TSEG | RTC_CTL_TSEN)));
 1075              		.loc 1 542 5 is_stmt 1
 1076              		.loc 1 542 26 is_stmt 0
 1077 0014 9847     		lw	a4,8(a5)
 1078              	.LVL67:
 543:C:/Users/stapi/OneDrive/Desktop/GD32VW553/GD32VW55X_Wifi_BLE_SDK/GD32VW55x_RELEASE_V1.0.2/MSDK/plf/GD32VW55x_standard_peripheral/Source\gd32vw55x_rtc.c **** 
 544:C:/Users/stapi/OneDrive/Desktop/GD32VW553/GD32VW55X_Wifi_BLE_SDK/GD32VW55x_RELEASE_V1.0.2/MSDK/plf/GD32VW55x_standard_peripheral/Source\gd32vw55x_rtc.c ****     /* new configuration */
 545:C:/Users/stapi/OneDrive/Desktop/GD32VW553/GD32VW55X_Wifi_BLE_SDK/GD32VW55x_RELEASE_V1.0.2/MSDK/plf/GD32VW55x_standard_peripheral/Source\gd32vw55x_rtc.c ****     reg_ctl |= (uint32_t)(edge | RTC_CTL_TSEN);
 1079              		.loc 1 545 5 is_stmt 1
 542:C:/Users/stapi/OneDrive/Desktop/GD32VW553/GD32VW55X_Wifi_BLE_SDK/GD32VW55x_RELEASE_V1.0.2/MSDK/plf/GD32VW55x_standard_peripheral/Source\gd32vw55x_rtc.c **** 
 1080              		.loc 1 542 13 is_stmt 0
 1081 0016 FD76     		li	a3,-4096
 1082 0018 9386767F 		addi	a3,a3,2039
 1083 001c 758F     		and	a4,a4,a3
 1084              	.LVL68:
 1085              		.loc 1 545 13
 1086 001e 498F     		or	a4,a4,a0
 1087 0020 1317B728 		bseti	a4,a4,11
 1088              	.LVL69:
 546:C:/Users/stapi/OneDrive/Desktop/GD32VW553/GD32VW55X_Wifi_BLE_SDK/GD32VW55x_RELEASE_V1.0.2/MSDK/plf/GD32VW55x_standard_peripheral/Source\gd32vw55x_rtc.c **** 
 547:C:/Users/stapi/OneDrive/Desktop/GD32VW553/GD32VW55X_Wifi_BLE_SDK/GD32VW55x_RELEASE_V1.0.2/MSDK/plf/GD32VW55x_standard_peripheral/Source\gd32vw55x_rtc.c ****     RTC_CTL = (uint32_t)reg_ctl;
 1089              		.loc 1 547 5 is_stmt 1
 1090              		.loc 1 547 13 is_stmt 0
 1091 0024 98C7     		sw	a4,8(a5)
 548:C:/Users/stapi/OneDrive/Desktop/GD32VW553/GD32VW55X_Wifi_BLE_SDK/GD32VW55x_RELEASE_V1.0.2/MSDK/plf/GD32VW55x_standard_peripheral/Source\gd32vw55x_rtc.c ****     /* enable the write protection */
 549:C:/Users/stapi/OneDrive/Desktop/GD32VW553/GD32VW55X_Wifi_BLE_SDK/GD32VW55x_RELEASE_V1.0.2/MSDK/plf/GD32VW55x_standard_peripheral/Source\gd32vw55x_rtc.c ****     RTC_WPK = RTC_LOCK_KEY;
 1092              		.loc 1 549 5 is_stmt 1
 1093              		.loc 1 549 13 is_stmt 0
 1094 0026 1307F00F 		li	a4,255
 1095              	.LVL70:
 1096 002a D8D3     		sw	a4,36(a5)
 1097              	.LVL71:
 550:C:/Users/stapi/OneDrive/Desktop/GD32VW553/GD32VW55X_Wifi_BLE_SDK/GD32VW55x_RELEASE_V1.0.2/MSDK/plf/GD32VW55x_standard_peripheral/Source\gd32vw55x_rtc.c **** }
 1098              		.loc 1 550 1
 1099 002c 8280     		ret
 1100              		.cfi_endproc
 1101              	.LFE378:
 1103              		.section	.text.rtc_timestamp_disable,"ax",@progbits
 1104              		.align	1
 1105              		.globl	rtc_timestamp_disable
 1107              	rtc_timestamp_disable:
 1108              	.LFB379:
 551:C:/Users/stapi/OneDrive/Desktop/GD32VW553/GD32VW55X_Wifi_BLE_SDK/GD32VW55x_RELEASE_V1.0.2/MSDK/plf/GD32VW55x_standard_peripheral/Source\gd32vw55x_rtc.c **** 
 552:C:/Users/stapi/OneDrive/Desktop/GD32VW553/GD32VW55X_Wifi_BLE_SDK/GD32VW55x_RELEASE_V1.0.2/MSDK/plf/GD32VW55x_standard_peripheral/Source\gd32vw55x_rtc.c **** /*!
 553:C:/Users/stapi/OneDrive/Desktop/GD32VW553/GD32VW55X_Wifi_BLE_SDK/GD32VW55x_RELEASE_V1.0.2/MSDK/plf/GD32VW55x_standard_peripheral/Source\gd32vw55x_rtc.c ****     \brief      disable RTC time-stamp
 554:C:/Users/stapi/OneDrive/Desktop/GD32VW553/GD32VW55X_Wifi_BLE_SDK/GD32VW55x_RELEASE_V1.0.2/MSDK/plf/GD32VW55x_standard_peripheral/Source\gd32vw55x_rtc.c ****     \param[in]  none
 555:C:/Users/stapi/OneDrive/Desktop/GD32VW553/GD32VW55X_Wifi_BLE_SDK/GD32VW55x_RELEASE_V1.0.2/MSDK/plf/GD32VW55x_standard_peripheral/Source\gd32vw55x_rtc.c ****     \param[out] none
 556:C:/Users/stapi/OneDrive/Desktop/GD32VW553/GD32VW55X_Wifi_BLE_SDK/GD32VW55x_RELEASE_V1.0.2/MSDK/plf/GD32VW55x_standard_peripheral/Source\gd32vw55x_rtc.c ****     \retval     none
 557:C:/Users/stapi/OneDrive/Desktop/GD32VW553/GD32VW55X_Wifi_BLE_SDK/GD32VW55x_RELEASE_V1.0.2/MSDK/plf/GD32VW55x_standard_peripheral/Source\gd32vw55x_rtc.c **** */
 558:C:/Users/stapi/OneDrive/Desktop/GD32VW553/GD32VW55X_Wifi_BLE_SDK/GD32VW55x_RELEASE_V1.0.2/MSDK/plf/GD32VW55x_standard_peripheral/Source\gd32vw55x_rtc.c **** void rtc_timestamp_disable(void)
 559:C:/Users/stapi/OneDrive/Desktop/GD32VW553/GD32VW55X_Wifi_BLE_SDK/GD32VW55x_RELEASE_V1.0.2/MSDK/plf/GD32VW55x_standard_peripheral/Source\gd32vw55x_rtc.c **** {
 1109              		.loc 1 559 1 is_stmt 1
 1110              		.cfi_startproc
 560:C:/Users/stapi/OneDrive/Desktop/GD32VW553/GD32VW55X_Wifi_BLE_SDK/GD32VW55x_RELEASE_V1.0.2/MSDK/plf/GD32VW55x_standard_peripheral/Source\gd32vw55x_rtc.c ****     /* disable the write protection */
 561:C:/Users/stapi/OneDrive/Desktop/GD32VW553/GD32VW55X_Wifi_BLE_SDK/GD32VW55x_RELEASE_V1.0.2/MSDK/plf/GD32VW55x_standard_peripheral/Source\gd32vw55x_rtc.c ****     RTC_WPK = RTC_UNLOCK_KEY1;
 1111              		.loc 1 561 5
 1112              		.loc 1 561 13 is_stmt 0
 1113 0000 B7370040 		li	a5,1073754112
 1114 0004 93870780 		addi	a5,a5,-2048
 1115 0008 1307A00C 		li	a4,202
 1116 000c D8D3     		sw	a4,36(a5)
 562:C:/Users/stapi/OneDrive/Desktop/GD32VW553/GD32VW55X_Wifi_BLE_SDK/GD32VW55x_RELEASE_V1.0.2/MSDK/plf/GD32VW55x_standard_peripheral/Source\gd32vw55x_rtc.c ****     RTC_WPK = RTC_UNLOCK_KEY2;
 1117              		.loc 1 562 5 is_stmt 1
 1118              		.loc 1 562 13 is_stmt 0
 1119 000e 13073005 		li	a4,83
 1120 0012 D8D3     		sw	a4,36(a5)
 563:C:/Users/stapi/OneDrive/Desktop/GD32VW553/GD32VW55X_Wifi_BLE_SDK/GD32VW55x_RELEASE_V1.0.2/MSDK/plf/GD32VW55x_standard_peripheral/Source\gd32vw55x_rtc.c **** 
 564:C:/Users/stapi/OneDrive/Desktop/GD32VW553/GD32VW55X_Wifi_BLE_SDK/GD32VW55x_RELEASE_V1.0.2/MSDK/plf/GD32VW55x_standard_peripheral/Source\gd32vw55x_rtc.c ****     /* clear the TSEN bit */
 565:C:/Users/stapi/OneDrive/Desktop/GD32VW553/GD32VW55X_Wifi_BLE_SDK/GD32VW55x_RELEASE_V1.0.2/MSDK/plf/GD32VW55x_standard_peripheral/Source\gd32vw55x_rtc.c ****     RTC_CTL &= (uint32_t)(~ RTC_CTL_TSEN);
 1121              		.loc 1 565 5 is_stmt 1
 1122              		.loc 1 565 13 is_stmt 0
 1123 0014 9847     		lw	a4,8(a5)
 1124 0016 1317B748 		bclri	a4,a4,11
 1125 001a 98C7     		sw	a4,8(a5)
 566:C:/Users/stapi/OneDrive/Desktop/GD32VW553/GD32VW55X_Wifi_BLE_SDK/GD32VW55x_RELEASE_V1.0.2/MSDK/plf/GD32VW55x_standard_peripheral/Source\gd32vw55x_rtc.c **** 
 567:C:/Users/stapi/OneDrive/Desktop/GD32VW553/GD32VW55X_Wifi_BLE_SDK/GD32VW55x_RELEASE_V1.0.2/MSDK/plf/GD32VW55x_standard_peripheral/Source\gd32vw55x_rtc.c ****     /* enable the write protection */
 568:C:/Users/stapi/OneDrive/Desktop/GD32VW553/GD32VW55X_Wifi_BLE_SDK/GD32VW55x_RELEASE_V1.0.2/MSDK/plf/GD32VW55x_standard_peripheral/Source\gd32vw55x_rtc.c ****     RTC_WPK = RTC_LOCK_KEY;
 1126              		.loc 1 568 5 is_stmt 1
 1127              		.loc 1 568 13 is_stmt 0
 1128 001c 1307F00F 		li	a4,255
 1129 0020 D8D3     		sw	a4,36(a5)
 569:C:/Users/stapi/OneDrive/Desktop/GD32VW553/GD32VW55X_Wifi_BLE_SDK/GD32VW55x_RELEASE_V1.0.2/MSDK/plf/GD32VW55x_standard_peripheral/Source\gd32vw55x_rtc.c **** }
 1130              		.loc 1 569 1
 1131 0022 8280     		ret
 1132              		.cfi_endproc
 1133              	.LFE379:
 1135              		.section	.text.rtc_timestamp_get,"ax",@progbits
 1136              		.align	1
 1137              		.globl	rtc_timestamp_get
 1139              	rtc_timestamp_get:
 1140              	.LFB380:
 570:C:/Users/stapi/OneDrive/Desktop/GD32VW553/GD32VW55X_Wifi_BLE_SDK/GD32VW55x_RELEASE_V1.0.2/MSDK/plf/GD32VW55x_standard_peripheral/Source\gd32vw55x_rtc.c **** 
 571:C:/Users/stapi/OneDrive/Desktop/GD32VW553/GD32VW55X_Wifi_BLE_SDK/GD32VW55x_RELEASE_V1.0.2/MSDK/plf/GD32VW55x_standard_peripheral/Source\gd32vw55x_rtc.c **** /*!
 572:C:/Users/stapi/OneDrive/Desktop/GD32VW553/GD32VW55X_Wifi_BLE_SDK/GD32VW55x_RELEASE_V1.0.2/MSDK/plf/GD32VW55x_standard_peripheral/Source\gd32vw55x_rtc.c ****     \brief      get RTC timestamp time and date
 573:C:/Users/stapi/OneDrive/Desktop/GD32VW553/GD32VW55X_Wifi_BLE_SDK/GD32VW55x_RELEASE_V1.0.2/MSDK/plf/GD32VW55x_standard_peripheral/Source\gd32vw55x_rtc.c ****     \param[in]  none
 574:C:/Users/stapi/OneDrive/Desktop/GD32VW553/GD32VW55X_Wifi_BLE_SDK/GD32VW55x_RELEASE_V1.0.2/MSDK/plf/GD32VW55x_standard_peripheral/Source\gd32vw55x_rtc.c ****     \param[out] rtc_timestamp: pointer to a rtc_timestamp_struct structure which contains
 575:C:/Users/stapi/OneDrive/Desktop/GD32VW553/GD32VW55X_Wifi_BLE_SDK/GD32VW55x_RELEASE_V1.0.2/MSDK/plf/GD32VW55x_standard_peripheral/Source\gd32vw55x_rtc.c ****                 parameters for RTC time-stamp configuration
 576:C:/Users/stapi/OneDrive/Desktop/GD32VW553/GD32VW55X_Wifi_BLE_SDK/GD32VW55x_RELEASE_V1.0.2/MSDK/plf/GD32VW55x_standard_peripheral/Source\gd32vw55x_rtc.c ****                 members of the structure and the member values are shown as below:
 577:C:/Users/stapi/OneDrive/Desktop/GD32VW553/GD32VW55X_Wifi_BLE_SDK/GD32VW55x_RELEASE_V1.0.2/MSDK/plf/GD32VW55x_standard_peripheral/Source\gd32vw55x_rtc.c ****                   timestamp_month: RTC_JAN, RTC_FEB, RTC_MAR, RTC_APR, RTC_MAY, RTC_JUN,
 578:C:/Users/stapi/OneDrive/Desktop/GD32VW553/GD32VW55X_Wifi_BLE_SDK/GD32VW55x_RELEASE_V1.0.2/MSDK/plf/GD32VW55x_standard_peripheral/Source\gd32vw55x_rtc.c ****                                        RTC_JUL, RTC_AUG, RTC_SEP, RTC_OCT, RTC_NOV, RTC_DEC
 579:C:/Users/stapi/OneDrive/Desktop/GD32VW553/GD32VW55X_Wifi_BLE_SDK/GD32VW55x_RELEASE_V1.0.2/MSDK/plf/GD32VW55x_standard_peripheral/Source\gd32vw55x_rtc.c ****                   timestamp_date: 0x1 - 0x31(BCD format)
 580:C:/Users/stapi/OneDrive/Desktop/GD32VW553/GD32VW55X_Wifi_BLE_SDK/GD32VW55x_RELEASE_V1.0.2/MSDK/plf/GD32VW55x_standard_peripheral/Source\gd32vw55x_rtc.c ****                   timestamp_day: RTC_MONDAY, RTC_TUESDAY, RTC_WEDNESDAY, RTC_THURSDAY, RTC_FRIDAY,
 581:C:/Users/stapi/OneDrive/Desktop/GD32VW553/GD32VW55X_Wifi_BLE_SDK/GD32VW55x_RELEASE_V1.0.2/MSDK/plf/GD32VW55x_standard_peripheral/Source\gd32vw55x_rtc.c ****                                      RTC_SATURDAY, RTC_SUNDAY
 582:C:/Users/stapi/OneDrive/Desktop/GD32VW553/GD32VW55X_Wifi_BLE_SDK/GD32VW55x_RELEASE_V1.0.2/MSDK/plf/GD32VW55x_standard_peripheral/Source\gd32vw55x_rtc.c ****                   timestamp_hour: 0x0 - 0x12(BCD format) or 0x0 - 0x23(BCD format) depending on the
 583:C:/Users/stapi/OneDrive/Desktop/GD32VW553/GD32VW55X_Wifi_BLE_SDK/GD32VW55x_RELEASE_V1.0.2/MSDK/plf/GD32VW55x_standard_peripheral/Source\gd32vw55x_rtc.c ****                   timestamp_minute: 0x0 - 0x59(BCD format)
 584:C:/Users/stapi/OneDrive/Desktop/GD32VW553/GD32VW55X_Wifi_BLE_SDK/GD32VW55x_RELEASE_V1.0.2/MSDK/plf/GD32VW55x_standard_peripheral/Source\gd32vw55x_rtc.c ****                   timestamp_second: 0x0 - 0x59(BCD format)
 585:C:/Users/stapi/OneDrive/Desktop/GD32VW553/GD32VW55X_Wifi_BLE_SDK/GD32VW55x_RELEASE_V1.0.2/MSDK/plf/GD32VW55x_standard_peripheral/Source\gd32vw55x_rtc.c ****                   am_pm: RTC_AM, RTC_PM
 586:C:/Users/stapi/OneDrive/Desktop/GD32VW553/GD32VW55X_Wifi_BLE_SDK/GD32VW55x_RELEASE_V1.0.2/MSDK/plf/GD32VW55x_standard_peripheral/Source\gd32vw55x_rtc.c ****     \retval     none
 587:C:/Users/stapi/OneDrive/Desktop/GD32VW553/GD32VW55X_Wifi_BLE_SDK/GD32VW55x_RELEASE_V1.0.2/MSDK/plf/GD32VW55x_standard_peripheral/Source\gd32vw55x_rtc.c **** */
 588:C:/Users/stapi/OneDrive/Desktop/GD32VW553/GD32VW55X_Wifi_BLE_SDK/GD32VW55x_RELEASE_V1.0.2/MSDK/plf/GD32VW55x_standard_peripheral/Source\gd32vw55x_rtc.c **** void rtc_timestamp_get(rtc_timestamp_struct *rtc_timestamp)
 589:C:/Users/stapi/OneDrive/Desktop/GD32VW553/GD32VW55X_Wifi_BLE_SDK/GD32VW55x_RELEASE_V1.0.2/MSDK/plf/GD32VW55x_standard_peripheral/Source\gd32vw55x_rtc.c **** {
 1141              		.loc 1 589 1 is_stmt 1
 1142              		.cfi_startproc
 1143              	.LVL72:
 590:C:/Users/stapi/OneDrive/Desktop/GD32VW553/GD32VW55X_Wifi_BLE_SDK/GD32VW55x_RELEASE_V1.0.2/MSDK/plf/GD32VW55x_standard_peripheral/Source\gd32vw55x_rtc.c ****     uint32_t temp_tts = 0U, temp_dts = 0U;
 1144              		.loc 1 590 5
 591:C:/Users/stapi/OneDrive/Desktop/GD32VW553/GD32VW55X_Wifi_BLE_SDK/GD32VW55x_RELEASE_V1.0.2/MSDK/plf/GD32VW55x_standard_peripheral/Source\gd32vw55x_rtc.c **** 
 592:C:/Users/stapi/OneDrive/Desktop/GD32VW553/GD32VW55X_Wifi_BLE_SDK/GD32VW55x_RELEASE_V1.0.2/MSDK/plf/GD32VW55x_standard_peripheral/Source\gd32vw55x_rtc.c ****     /* get the value of time_stamp registers */
 593:C:/Users/stapi/OneDrive/Desktop/GD32VW553/GD32VW55X_Wifi_BLE_SDK/GD32VW55x_RELEASE_V1.0.2/MSDK/plf/GD32VW55x_standard_peripheral/Source\gd32vw55x_rtc.c ****     temp_tts = (uint32_t)RTC_TTS;
 1145              		.loc 1 593 5
 1146              		.loc 1 593 14 is_stmt 0
 1147 0000 B7370040 		li	a5,1073754112
 1148 0004 03A70783 		lw	a4,-2000(a5)
 1149              	.LVL73:
 594:C:/Users/stapi/OneDrive/Desktop/GD32VW553/GD32VW55X_Wifi_BLE_SDK/GD32VW55x_RELEASE_V1.0.2/MSDK/plf/GD32VW55x_standard_peripheral/Source\gd32vw55x_rtc.c ****     temp_dts = (uint32_t)RTC_DTS;
 1150              		.loc 1 594 5 is_stmt 1
 1151              		.loc 1 594 14 is_stmt 0
 1152 0008 83A74783 		lw	a5,-1996(a5)
 1153              	.LVL74:
 595:C:/Users/stapi/OneDrive/Desktop/GD32VW553/GD32VW55X_Wifi_BLE_SDK/GD32VW55x_RELEASE_V1.0.2/MSDK/plf/GD32VW55x_standard_peripheral/Source\gd32vw55x_rtc.c **** 
 596:C:/Users/stapi/OneDrive/Desktop/GD32VW553/GD32VW55X_Wifi_BLE_SDK/GD32VW55x_RELEASE_V1.0.2/MSDK/plf/GD32VW55x_standard_peripheral/Source\gd32vw55x_rtc.c ****     /* get timestamp time and construct the rtc_timestamp_struct structure */
 597:C:/Users/stapi/OneDrive/Desktop/GD32VW553/GD32VW55X_Wifi_BLE_SDK/GD32VW55x_RELEASE_V1.0.2/MSDK/plf/GD32VW55x_standard_peripheral/Source\gd32vw55x_rtc.c ****     rtc_timestamp->am_pm = (uint32_t)(temp_tts & RTC_TTS_PM);
 1154              		.loc 1 597 5 is_stmt 1
 1155              		.loc 1 597 28 is_stmt 0
 1156 000c B7064000 		li	a3,4194304
 1157 0010 F98E     		and	a3,a4,a3
 1158              		.loc 1 597 26
 1159 0012 14C5     		sw	a3,8(a0)
 598:C:/Users/stapi/OneDrive/Desktop/GD32VW553/GD32VW55X_Wifi_BLE_SDK/GD32VW55x_RELEASE_V1.0.2/MSDK/plf/GD32VW55x_standard_peripheral/Source\gd32vw55x_rtc.c ****     rtc_timestamp->timestamp_month = (uint8_t)GET_DTS_MON(temp_dts);
 1160              		.loc 1 598 5 is_stmt 1
 1161              		.loc 1 598 47 is_stmt 0
 1162 0014 93D68700 		srli	a3,a5,8
 1163              		.loc 1 598 38
 1164 0018 FD8A     		andi	a3,a3,31
 1165              		.loc 1 598 36
 1166 001a 2300D500 		sb	a3,0(a0)
 599:C:/Users/stapi/OneDrive/Desktop/GD32VW553/GD32VW55X_Wifi_BLE_SDK/GD32VW55x_RELEASE_V1.0.2/MSDK/plf/GD32VW55x_standard_peripheral/Source\gd32vw55x_rtc.c ****     rtc_timestamp->timestamp_date = (uint8_t)GET_DTS_DAY(temp_dts);
 1167              		.loc 1 599 5 is_stmt 1
 1168              		.loc 1 599 37 is_stmt 0
 1169 001e 93F6F703 		andi	a3,a5,63
 600:C:/Users/stapi/OneDrive/Desktop/GD32VW553/GD32VW55X_Wifi_BLE_SDK/GD32VW55x_RELEASE_V1.0.2/MSDK/plf/GD32VW55x_standard_peripheral/Source\gd32vw55x_rtc.c ****     rtc_timestamp->timestamp_day = (uint8_t)GET_DTS_DOW(temp_dts);
 1170              		.loc 1 600 45
 1171 0022 B583     		srli	a5,a5,13
 1172              	.LVL75:
 1173              		.loc 1 600 36
 1174 0024 9D8B     		andi	a5,a5,7
 1175              		.loc 1 600 34
 1176 0026 2301F500 		sb	a5,2(a0)
 601:C:/Users/stapi/OneDrive/Desktop/GD32VW553/GD32VW55X_Wifi_BLE_SDK/GD32VW55x_RELEASE_V1.0.2/MSDK/plf/GD32VW55x_standard_peripheral/Source\gd32vw55x_rtc.c ****     rtc_timestamp->timestamp_hour = (uint8_t)GET_TTS_HR(temp_tts);
 1177              		.loc 1 601 46
 1178 002a 93570701 		srli	a5,a4,16
 1179              		.loc 1 601 37
 1180 002e 93F7F703 		andi	a5,a5,63
 1181              		.loc 1 601 35
 1182 0032 A301F500 		sb	a5,3(a0)
 602:C:/Users/stapi/OneDrive/Desktop/GD32VW553/GD32VW55X_Wifi_BLE_SDK/GD32VW55x_RELEASE_V1.0.2/MSDK/plf/GD32VW55x_standard_peripheral/Source\gd32vw55x_rtc.c ****     rtc_timestamp->timestamp_minute = (uint8_t)GET_TTS_MN(temp_tts);
 1183              		.loc 1 602 48
 1184 0036 93578700 		srli	a5,a4,8
 1185              		.loc 1 602 39
 1186 003a 93F7F707 		andi	a5,a5,127
 603:C:/Users/stapi/OneDrive/Desktop/GD32VW553/GD32VW55X_Wifi_BLE_SDK/GD32VW55x_RELEASE_V1.0.2/MSDK/plf/GD32VW55x_standard_peripheral/Source\gd32vw55x_rtc.c ****     rtc_timestamp->timestamp_second = (uint8_t)GET_TTS_SC(temp_tts);
 1187              		.loc 1 603 39
 1188 003e 1377F707 		andi	a4,a4,127
 1189              	.LVL76:
 599:C:/Users/stapi/OneDrive/Desktop/GD32VW553/GD32VW55X_Wifi_BLE_SDK/GD32VW55x_RELEASE_V1.0.2/MSDK/plf/GD32VW55x_standard_peripheral/Source\gd32vw55x_rtc.c ****     rtc_timestamp->timestamp_day = (uint8_t)GET_DTS_DOW(temp_dts);
 1190              		.loc 1 599 35
 1191 0042 A300D500 		sb	a3,1(a0)
 600:C:/Users/stapi/OneDrive/Desktop/GD32VW553/GD32VW55X_Wifi_BLE_SDK/GD32VW55x_RELEASE_V1.0.2/MSDK/plf/GD32VW55x_standard_peripheral/Source\gd32vw55x_rtc.c ****     rtc_timestamp->timestamp_hour = (uint8_t)GET_TTS_HR(temp_tts);
 1192              		.loc 1 600 5 is_stmt 1
 601:C:/Users/stapi/OneDrive/Desktop/GD32VW553/GD32VW55X_Wifi_BLE_SDK/GD32VW55x_RELEASE_V1.0.2/MSDK/plf/GD32VW55x_standard_peripheral/Source\gd32vw55x_rtc.c ****     rtc_timestamp->timestamp_minute = (uint8_t)GET_TTS_MN(temp_tts);
 1193              		.loc 1 601 5
 602:C:/Users/stapi/OneDrive/Desktop/GD32VW553/GD32VW55X_Wifi_BLE_SDK/GD32VW55x_RELEASE_V1.0.2/MSDK/plf/GD32VW55x_standard_peripheral/Source\gd32vw55x_rtc.c ****     rtc_timestamp->timestamp_second = (uint8_t)GET_TTS_SC(temp_tts);
 1194              		.loc 1 602 5
 602:C:/Users/stapi/OneDrive/Desktop/GD32VW553/GD32VW55X_Wifi_BLE_SDK/GD32VW55x_RELEASE_V1.0.2/MSDK/plf/GD32VW55x_standard_peripheral/Source\gd32vw55x_rtc.c ****     rtc_timestamp->timestamp_second = (uint8_t)GET_TTS_SC(temp_tts);
 1195              		.loc 1 602 37 is_stmt 0
 1196 0046 2302F500 		sb	a5,4(a0)
 1197              		.loc 1 603 5 is_stmt 1
 1198              		.loc 1 603 37 is_stmt 0
 1199 004a A302E500 		sb	a4,5(a0)
 604:C:/Users/stapi/OneDrive/Desktop/GD32VW553/GD32VW55X_Wifi_BLE_SDK/GD32VW55x_RELEASE_V1.0.2/MSDK/plf/GD32VW55x_standard_peripheral/Source\gd32vw55x_rtc.c **** }
 1200              		.loc 1 604 1
 1201 004e 8280     		ret
 1202              		.cfi_endproc
 1203              	.LFE380:
 1205              		.section	.text.rtc_timestamp_subsecond_get,"ax",@progbits
 1206              		.align	1
 1207              		.globl	rtc_timestamp_subsecond_get
 1209              	rtc_timestamp_subsecond_get:
 1210              	.LFB381:
 605:C:/Users/stapi/OneDrive/Desktop/GD32VW553/GD32VW55X_Wifi_BLE_SDK/GD32VW55x_RELEASE_V1.0.2/MSDK/plf/GD32VW55x_standard_peripheral/Source\gd32vw55x_rtc.c **** 
 606:C:/Users/stapi/OneDrive/Desktop/GD32VW553/GD32VW55X_Wifi_BLE_SDK/GD32VW55x_RELEASE_V1.0.2/MSDK/plf/GD32VW55x_standard_peripheral/Source\gd32vw55x_rtc.c **** /*!
 607:C:/Users/stapi/OneDrive/Desktop/GD32VW553/GD32VW55X_Wifi_BLE_SDK/GD32VW55x_RELEASE_V1.0.2/MSDK/plf/GD32VW55x_standard_peripheral/Source\gd32vw55x_rtc.c ****     \brief      get RTC time-stamp subsecond
 608:C:/Users/stapi/OneDrive/Desktop/GD32VW553/GD32VW55X_Wifi_BLE_SDK/GD32VW55x_RELEASE_V1.0.2/MSDK/plf/GD32VW55x_standard_peripheral/Source\gd32vw55x_rtc.c ****     \param[in]  none
 609:C:/Users/stapi/OneDrive/Desktop/GD32VW553/GD32VW55X_Wifi_BLE_SDK/GD32VW55x_RELEASE_V1.0.2/MSDK/plf/GD32VW55x_standard_peripheral/Source\gd32vw55x_rtc.c ****     \param[out] none
 610:C:/Users/stapi/OneDrive/Desktop/GD32VW553/GD32VW55X_Wifi_BLE_SDK/GD32VW55x_RELEASE_V1.0.2/MSDK/plf/GD32VW55x_standard_peripheral/Source\gd32vw55x_rtc.c ****     \retval     RTC time-stamp subsecond value
 611:C:/Users/stapi/OneDrive/Desktop/GD32VW553/GD32VW55X_Wifi_BLE_SDK/GD32VW55x_RELEASE_V1.0.2/MSDK/plf/GD32VW55x_standard_peripheral/Source\gd32vw55x_rtc.c **** */
 612:C:/Users/stapi/OneDrive/Desktop/GD32VW553/GD32VW55X_Wifi_BLE_SDK/GD32VW55x_RELEASE_V1.0.2/MSDK/plf/GD32VW55x_standard_peripheral/Source\gd32vw55x_rtc.c **** uint32_t rtc_timestamp_subsecond_get(void)
 613:C:/Users/stapi/OneDrive/Desktop/GD32VW553/GD32VW55X_Wifi_BLE_SDK/GD32VW55x_RELEASE_V1.0.2/MSDK/plf/GD32VW55x_standard_peripheral/Source\gd32vw55x_rtc.c **** {
 1211              		.loc 1 613 1 is_stmt 1
 1212              		.cfi_startproc
 614:C:/Users/stapi/OneDrive/Desktop/GD32VW553/GD32VW55X_Wifi_BLE_SDK/GD32VW55x_RELEASE_V1.0.2/MSDK/plf/GD32VW55x_standard_peripheral/Source\gd32vw55x_rtc.c ****     return ((uint32_t)RTC_SSTS);
 1213              		.loc 1 614 5
 1214              		.loc 1 614 13 is_stmt 0
 1215 0000 B7370040 		li	a5,1073754112
 1216 0004 03A58783 		lw	a0,-1992(a5)
 615:C:/Users/stapi/OneDrive/Desktop/GD32VW553/GD32VW55X_Wifi_BLE_SDK/GD32VW55x_RELEASE_V1.0.2/MSDK/plf/GD32VW55x_standard_peripheral/Source\gd32vw55x_rtc.c **** }
 1217              		.loc 1 615 1
 1218 0008 8280     		ret
 1219              		.cfi_endproc
 1220              	.LFE381:
 1222              		.section	.text.rtc_tamper_enable,"ax",@progbits
 1223              		.align	1
 1224              		.globl	rtc_tamper_enable
 1226              	rtc_tamper_enable:
 1227              	.LFB382:
 616:C:/Users/stapi/OneDrive/Desktop/GD32VW553/GD32VW55X_Wifi_BLE_SDK/GD32VW55x_RELEASE_V1.0.2/MSDK/plf/GD32VW55x_standard_peripheral/Source\gd32vw55x_rtc.c **** 
 617:C:/Users/stapi/OneDrive/Desktop/GD32VW553/GD32VW55X_Wifi_BLE_SDK/GD32VW55x_RELEASE_V1.0.2/MSDK/plf/GD32VW55x_standard_peripheral/Source\gd32vw55x_rtc.c **** /*!
 618:C:/Users/stapi/OneDrive/Desktop/GD32VW553/GD32VW55X_Wifi_BLE_SDK/GD32VW55x_RELEASE_V1.0.2/MSDK/plf/GD32VW55x_standard_peripheral/Source\gd32vw55x_rtc.c ****     \brief      enable RTC tamper
 619:C:/Users/stapi/OneDrive/Desktop/GD32VW553/GD32VW55X_Wifi_BLE_SDK/GD32VW55x_RELEASE_V1.0.2/MSDK/plf/GD32VW55x_standard_peripheral/Source\gd32vw55x_rtc.c ****     \param[in]  rtc_tamper: pointer to a rtc_tamper_struct structure which contains
 620:C:/Users/stapi/OneDrive/Desktop/GD32VW553/GD32VW55X_Wifi_BLE_SDK/GD32VW55x_RELEASE_V1.0.2/MSDK/plf/GD32VW55x_standard_peripheral/Source\gd32vw55x_rtc.c ****                 parameters for RTC tamper configuration
 621:C:/Users/stapi/OneDrive/Desktop/GD32VW553/GD32VW55X_Wifi_BLE_SDK/GD32VW55x_RELEASE_V1.0.2/MSDK/plf/GD32VW55x_standard_peripheral/Source\gd32vw55x_rtc.c ****                 members of the structure and the member values are shown as below:
 622:C:/Users/stapi/OneDrive/Desktop/GD32VW553/GD32VW55X_Wifi_BLE_SDK/GD32VW55x_RELEASE_V1.0.2/MSDK/plf/GD32VW55x_standard_peripheral/Source\gd32vw55x_rtc.c ****                   detecting tamper event can using edge mode or level mode
 623:C:/Users/stapi/OneDrive/Desktop/GD32VW553/GD32VW55X_Wifi_BLE_SDK/GD32VW55x_RELEASE_V1.0.2/MSDK/plf/GD32VW55x_standard_peripheral/Source\gd32vw55x_rtc.c ****                   (1) using edge mode configuration:
 624:C:/Users/stapi/OneDrive/Desktop/GD32VW553/GD32VW55X_Wifi_BLE_SDK/GD32VW55x_RELEASE_V1.0.2/MSDK/plf/GD32VW55x_standard_peripheral/Source\gd32vw55x_rtc.c ****                   tamper_source: RTC_TAMPER0, RTC_TAMPER1
 625:C:/Users/stapi/OneDrive/Desktop/GD32VW553/GD32VW55X_Wifi_BLE_SDK/GD32VW55x_RELEASE_V1.0.2/MSDK/plf/GD32VW55x_standard_peripheral/Source\gd32vw55x_rtc.c ****                   tamper_trigger: RTC_TAMPER_TRIGGER_EDGE_RISING, RTC_TAMPER_TRIGGER_EDGE_FALLING
 626:C:/Users/stapi/OneDrive/Desktop/GD32VW553/GD32VW55X_Wifi_BLE_SDK/GD32VW55x_RELEASE_V1.0.2/MSDK/plf/GD32VW55x_standard_peripheral/Source\gd32vw55x_rtc.c ****                   tamper_filter: RTC_FLT_EDGE
 627:C:/Users/stapi/OneDrive/Desktop/GD32VW553/GD32VW55X_Wifi_BLE_SDK/GD32VW55x_RELEASE_V1.0.2/MSDK/plf/GD32VW55x_standard_peripheral/Source\gd32vw55x_rtc.c ****                   tamper_with_timestamp: DISABLE, ENABLE
 628:C:/Users/stapi/OneDrive/Desktop/GD32VW553/GD32VW55X_Wifi_BLE_SDK/GD32VW55x_RELEASE_V1.0.2/MSDK/plf/GD32VW55x_standard_peripheral/Source\gd32vw55x_rtc.c ****                   (2) using level mode configuration:
 629:C:/Users/stapi/OneDrive/Desktop/GD32VW553/GD32VW55X_Wifi_BLE_SDK/GD32VW55x_RELEASE_V1.0.2/MSDK/plf/GD32VW55x_standard_peripheral/Source\gd32vw55x_rtc.c ****                   tamper_source: RTC_TAMPER0, RTC_TAMPER1
 630:C:/Users/stapi/OneDrive/Desktop/GD32VW553/GD32VW55X_Wifi_BLE_SDK/GD32VW55x_RELEASE_V1.0.2/MSDK/plf/GD32VW55x_standard_peripheral/Source\gd32vw55x_rtc.c ****                   tamper_trigger:RTC_TAMPER_TRIGGER_LEVEL_LOW, RTC_TAMPER_TRIGGER_LEVEL_HIGH
 631:C:/Users/stapi/OneDrive/Desktop/GD32VW553/GD32VW55X_Wifi_BLE_SDK/GD32VW55x_RELEASE_V1.0.2/MSDK/plf/GD32VW55x_standard_peripheral/Source\gd32vw55x_rtc.c ****                   tamper_filter: RTC_FLT_2S, RTC_FLT_4S, RTC_FLT_8S
 632:C:/Users/stapi/OneDrive/Desktop/GD32VW553/GD32VW55X_Wifi_BLE_SDK/GD32VW55x_RELEASE_V1.0.2/MSDK/plf/GD32VW55x_standard_peripheral/Source\gd32vw55x_rtc.c ****                   tamper_sample_frequency: RTC_FREQ_DIV32768, RTC_FREQ_DIV16384, RTC_FREQ_DIV8192,
 633:C:/Users/stapi/OneDrive/Desktop/GD32VW553/GD32VW55X_Wifi_BLE_SDK/GD32VW55x_RELEASE_V1.0.2/MSDK/plf/GD32VW55x_standard_peripheral/Source\gd32vw55x_rtc.c ****                                                RTC_FREQ_DIV4096, RTC_FREQ_DIV2048, RTC_FREQ_DIV1024
 634:C:/Users/stapi/OneDrive/Desktop/GD32VW553/GD32VW55X_Wifi_BLE_SDK/GD32VW55x_RELEASE_V1.0.2/MSDK/plf/GD32VW55x_standard_peripheral/Source\gd32vw55x_rtc.c ****                                                RTC_FREQ_DIV512, RTC_FREQ_DIV256
 635:C:/Users/stapi/OneDrive/Desktop/GD32VW553/GD32VW55X_Wifi_BLE_SDK/GD32VW55x_RELEASE_V1.0.2/MSDK/plf/GD32VW55x_standard_peripheral/Source\gd32vw55x_rtc.c ****                   tamper_precharge_enable: DISABLE, ENABLE
 636:C:/Users/stapi/OneDrive/Desktop/GD32VW553/GD32VW55X_Wifi_BLE_SDK/GD32VW55x_RELEASE_V1.0.2/MSDK/plf/GD32VW55x_standard_peripheral/Source\gd32vw55x_rtc.c ****                   tamper_precharge_time: RTC_PRCH_1C, RTC_PRCH_2C, RTC_PRCH_4C, RTC_PRCH_8C
 637:C:/Users/stapi/OneDrive/Desktop/GD32VW553/GD32VW55X_Wifi_BLE_SDK/GD32VW55x_RELEASE_V1.0.2/MSDK/plf/GD32VW55x_standard_peripheral/Source\gd32vw55x_rtc.c ****                   tamper_with_timestamp: DISABLE, ENABLE
 638:C:/Users/stapi/OneDrive/Desktop/GD32VW553/GD32VW55X_Wifi_BLE_SDK/GD32VW55x_RELEASE_V1.0.2/MSDK/plf/GD32VW55x_standard_peripheral/Source\gd32vw55x_rtc.c ****     \param[out] none
 639:C:/Users/stapi/OneDrive/Desktop/GD32VW553/GD32VW55X_Wifi_BLE_SDK/GD32VW55x_RELEASE_V1.0.2/MSDK/plf/GD32VW55x_standard_peripheral/Source\gd32vw55x_rtc.c ****     \retval     none
 640:C:/Users/stapi/OneDrive/Desktop/GD32VW553/GD32VW55X_Wifi_BLE_SDK/GD32VW55x_RELEASE_V1.0.2/MSDK/plf/GD32VW55x_standard_peripheral/Source\gd32vw55x_rtc.c **** */
 641:C:/Users/stapi/OneDrive/Desktop/GD32VW553/GD32VW55X_Wifi_BLE_SDK/GD32VW55x_RELEASE_V1.0.2/MSDK/plf/GD32VW55x_standard_peripheral/Source\gd32vw55x_rtc.c **** void rtc_tamper_enable(rtc_tamper_struct *rtc_tamper)
 642:C:/Users/stapi/OneDrive/Desktop/GD32VW553/GD32VW55X_Wifi_BLE_SDK/GD32VW55x_RELEASE_V1.0.2/MSDK/plf/GD32VW55x_standard_peripheral/Source\gd32vw55x_rtc.c **** {
 1228              		.loc 1 642 1 is_stmt 1
 1229              		.cfi_startproc
 1230              	.LVL77:
 643:C:/Users/stapi/OneDrive/Desktop/GD32VW553/GD32VW55X_Wifi_BLE_SDK/GD32VW55x_RELEASE_V1.0.2/MSDK/plf/GD32VW55x_standard_peripheral/Source\gd32vw55x_rtc.c ****     /* disable tamper */
 644:C:/Users/stapi/OneDrive/Desktop/GD32VW553/GD32VW55X_Wifi_BLE_SDK/GD32VW55x_RELEASE_V1.0.2/MSDK/plf/GD32VW55x_standard_peripheral/Source\gd32vw55x_rtc.c ****     RTC_TAMP &= (uint32_t)~(rtc_tamper->tamper_source);
 1231              		.loc 1 644 5
 1232              		.loc 1 644 14 is_stmt 0
 1233 0000 B7370040 		li	a5,1073754112
 1234 0004 13870780 		addi	a4,a5,-2048
 1235 0008 3043     		lw	a2,64(a4)
 1236              		.loc 1 644 27
 1237 000a 1441     		lw	a3,0(a0)
 1238              		.loc 1 644 14
 1239 000c B376D640 		andn	a3,a2,a3
 1240 0010 34C3     		sw	a3,64(a4)
 645:C:/Users/stapi/OneDrive/Desktop/GD32VW553/GD32VW55X_Wifi_BLE_SDK/GD32VW55x_RELEASE_V1.0.2/MSDK/plf/GD32VW55x_standard_peripheral/Source\gd32vw55x_rtc.c **** 
 646:C:/Users/stapi/OneDrive/Desktop/GD32VW553/GD32VW55X_Wifi_BLE_SDK/GD32VW55x_RELEASE_V1.0.2/MSDK/plf/GD32VW55x_standard_peripheral/Source\gd32vw55x_rtc.c ****     /* tamper filter must be used when the tamper source is voltage level detection */
 647:C:/Users/stapi/OneDrive/Desktop/GD32VW553/GD32VW55X_Wifi_BLE_SDK/GD32VW55x_RELEASE_V1.0.2/MSDK/plf/GD32VW55x_standard_peripheral/Source\gd32vw55x_rtc.c ****     RTC_TAMP &= (uint32_t)~RTC_TAMP_FLT;
 1241              		.loc 1 647 5 is_stmt 1
 1242              		.loc 1 647 14 is_stmt 0
 1243 0012 3443     		lw	a3,64(a4)
 1244 0014 7976     		li	a2,-8192
 1245 0016 1306F67F 		addi	a2,a2,2047
 1246 001a F18E     		and	a3,a3,a2
 1247 001c 34C3     		sw	a3,64(a4)
 648:C:/Users/stapi/OneDrive/Desktop/GD32VW553/GD32VW55X_Wifi_BLE_SDK/GD32VW55x_RELEASE_V1.0.2/MSDK/plf/GD32VW55x_standard_peripheral/Source\gd32vw55x_rtc.c **** 
 649:C:/Users/stapi/OneDrive/Desktop/GD32VW553/GD32VW55X_Wifi_BLE_SDK/GD32VW55x_RELEASE_V1.0.2/MSDK/plf/GD32VW55x_standard_peripheral/Source\gd32vw55x_rtc.c ****     /* the tamper source is voltage level detection */
 650:C:/Users/stapi/OneDrive/Desktop/GD32VW553/GD32VW55X_Wifi_BLE_SDK/GD32VW55x_RELEASE_V1.0.2/MSDK/plf/GD32VW55x_standard_peripheral/Source\gd32vw55x_rtc.c ****     if((uint32_t)(rtc_tamper->tamper_filter) != RTC_FLT_EDGE) {
 1248              		.loc 1 650 5 is_stmt 1
 1249              		.loc 1 650 7 is_stmt 0
 1250 001e 1845     		lw	a4,8(a0)
 1251 0020 51CB     		beq	a4,zero,.L80
 651:C:/Users/stapi/OneDrive/Desktop/GD32VW553/GD32VW55X_Wifi_BLE_SDK/GD32VW55x_RELEASE_V1.0.2/MSDK/plf/GD32VW55x_standard_peripheral/Source\gd32vw55x_rtc.c ****         RTC_TAMP &= (uint32_t)~(RTC_TAMP_DISPU | RTC_TAMP_PRCH | RTC_TAMP_FREQ | RTC_TAMP_FLT);
 1252              		.loc 1 651 9 is_stmt 1
 1253              		.loc 1 651 18 is_stmt 0
 1254 0022 03A70784 		lw	a4,-1984(a5)
 1255 0026 C176     		li	a3,-65536
 1256 0028 9386F60F 		addi	a3,a3,255
 1257 002c 758F     		and	a4,a4,a3
 1258 002e 23A0E784 		sw	a4,-1984(a5)
 652:C:/Users/stapi/OneDrive/Desktop/GD32VW553/GD32VW55X_Wifi_BLE_SDK/GD32VW55x_RELEASE_V1.0.2/MSDK/plf/GD32VW55x_standard_peripheral/Source\gd32vw55x_rtc.c **** 
 653:C:/Users/stapi/OneDrive/Desktop/GD32VW553/GD32VW55X_Wifi_BLE_SDK/GD32VW55x_RELEASE_V1.0.2/MSDK/plf/GD32VW55x_standard_peripheral/Source\gd32vw55x_rtc.c ****         /* check if the tamper pin need precharge, if need, then configure the precharge time */
 654:C:/Users/stapi/OneDrive/Desktop/GD32VW553/GD32VW55X_Wifi_BLE_SDK/GD32VW55x_RELEASE_V1.0.2/MSDK/plf/GD32VW55x_standard_peripheral/Source\gd32vw55x_rtc.c ****         if(DISABLE == rtc_tamper->tamper_precharge_enable) {
 1259              		.loc 1 654 9 is_stmt 1
 1260              		.loc 1 654 11 is_stmt 0
 1261 0032 1849     		lw	a4,16(a0)
 1262 0034 3DEB     		bne	a4,zero,.L81
 655:C:/Users/stapi/OneDrive/Desktop/GD32VW553/GD32VW55X_Wifi_BLE_SDK/GD32VW55x_RELEASE_V1.0.2/MSDK/plf/GD32VW55x_standard_peripheral/Source\gd32vw55x_rtc.c ****             RTC_TAMP |= (uint32_t)RTC_TAMP_DISPU;
 1263              		.loc 1 655 13 is_stmt 1
 1264              		.loc 1 655 22 is_stmt 0
 1265 0036 03A70784 		lw	a4,-1984(a5)
 1266 003a 1317F728 		bseti	a4,a4,15
 1267              	.L93:
 656:C:/Users/stapi/OneDrive/Desktop/GD32VW553/GD32VW55X_Wifi_BLE_SDK/GD32VW55x_RELEASE_V1.0.2/MSDK/plf/GD32VW55x_standard_peripheral/Source\gd32vw55x_rtc.c ****         } else {
 657:C:/Users/stapi/OneDrive/Desktop/GD32VW553/GD32VW55X_Wifi_BLE_SDK/GD32VW55x_RELEASE_V1.0.2/MSDK/plf/GD32VW55x_standard_peripheral/Source\gd32vw55x_rtc.c ****             RTC_TAMP |= (uint32_t)(rtc_tamper->tamper_precharge_time);
 658:C:/Users/stapi/OneDrive/Desktop/GD32VW553/GD32VW55X_Wifi_BLE_SDK/GD32VW55x_RELEASE_V1.0.2/MSDK/plf/GD32VW55x_standard_peripheral/Source\gd32vw55x_rtc.c ****         }
 659:C:/Users/stapi/OneDrive/Desktop/GD32VW553/GD32VW55X_Wifi_BLE_SDK/GD32VW55x_RELEASE_V1.0.2/MSDK/plf/GD32VW55x_standard_peripheral/Source\gd32vw55x_rtc.c **** 
 660:C:/Users/stapi/OneDrive/Desktop/GD32VW553/GD32VW55X_Wifi_BLE_SDK/GD32VW55x_RELEASE_V1.0.2/MSDK/plf/GD32VW55x_standard_peripheral/Source\gd32vw55x_rtc.c ****         RTC_TAMP |= (uint32_t)(rtc_tamper->tamper_sample_frequency);
 1268              		.loc 1 660 18
 1269 003e B7360040 		li	a3,1073754112
 657:C:/Users/stapi/OneDrive/Desktop/GD32VW553/GD32VW55X_Wifi_BLE_SDK/GD32VW55x_RELEASE_V1.0.2/MSDK/plf/GD32VW55x_standard_peripheral/Source\gd32vw55x_rtc.c ****         }
 1270              		.loc 1 657 22
 1271 0042 23A0E784 		sw	a4,-1984(a5)
 1272              		.loc 1 660 9 is_stmt 1
 1273              		.loc 1 660 18 is_stmt 0
 1274 0046 93870680 		addi	a5,a3,-2048
 1275 004a B843     		lw	a4,64(a5)
 1276 004c 5045     		lw	a2,12(a0)
 1277 004e 518F     		or	a4,a4,a2
 1278 0050 B8C3     		sw	a4,64(a5)
 661:C:/Users/stapi/OneDrive/Desktop/GD32VW553/GD32VW55X_Wifi_BLE_SDK/GD32VW55x_RELEASE_V1.0.2/MSDK/plf/GD32VW55x_standard_peripheral/Source\gd32vw55x_rtc.c ****         RTC_TAMP |= (uint32_t)(rtc_tamper->tamper_filter);
 1279              		.loc 1 661 9 is_stmt 1
 1280              		.loc 1 661 18 is_stmt 0
 1281 0052 B843     		lw	a4,64(a5)
 1282 0054 1045     		lw	a2,8(a0)
 1283 0056 518F     		or	a4,a4,a2
 1284 0058 B8C3     		sw	a4,64(a5)
 662:C:/Users/stapi/OneDrive/Desktop/GD32VW553/GD32VW55X_Wifi_BLE_SDK/GD32VW55x_RELEASE_V1.0.2/MSDK/plf/GD32VW55x_standard_peripheral/Source\gd32vw55x_rtc.c **** 
 663:C:/Users/stapi/OneDrive/Desktop/GD32VW553/GD32VW55X_Wifi_BLE_SDK/GD32VW55x_RELEASE_V1.0.2/MSDK/plf/GD32VW55x_standard_peripheral/Source\gd32vw55x_rtc.c ****         /* configure the tamper trigger */
 664:C:/Users/stapi/OneDrive/Desktop/GD32VW553/GD32VW55X_Wifi_BLE_SDK/GD32VW55x_RELEASE_V1.0.2/MSDK/plf/GD32VW55x_standard_peripheral/Source\gd32vw55x_rtc.c ****         RTC_TAMP &= ((uint32_t)~((rtc_tamper->tamper_source) << RTC_TAMPER_TRIGGER_POS));
 1285              		.loc 1 664 9 is_stmt 1
 1286              		.loc 1 664 62 is_stmt 0
 1287 005a 1841     		lw	a4,0(a0)
 1288              		.loc 1 664 18
 1289 005c B043     		lw	a2,64(a5)
 1290              		.loc 1 664 62
 1291 005e 0607     		slli	a4,a4,1
 1292              		.loc 1 664 18
 1293 0060 3377E640 		andn	a4,a2,a4
 1294 0064 B8C3     		sw	a4,64(a5)
 665:C:/Users/stapi/OneDrive/Desktop/GD32VW553/GD32VW55X_Wifi_BLE_SDK/GD32VW55x_RELEASE_V1.0.2/MSDK/plf/GD32VW55x_standard_peripheral/Source\gd32vw55x_rtc.c ****         if(RTC_TAMPER_TRIGGER_LEVEL_LOW != rtc_tamper->tamper_trigger) {
 1295              		.loc 1 665 9 is_stmt 1
 1296              		.loc 1 665 11 is_stmt 0
 1297 0066 5C41     		lw	a5,4(a0)
 1298 0068 81CB     		beq	a5,zero,.L84
 666:C:/Users/stapi/OneDrive/Desktop/GD32VW553/GD32VW55X_Wifi_BLE_SDK/GD32VW55x_RELEASE_V1.0.2/MSDK/plf/GD32VW55x_standard_peripheral/Source\gd32vw55x_rtc.c ****             RTC_TAMP |= (uint32_t)((rtc_tamper->tamper_source) << RTC_TAMPER_TRIGGER_POS);
 1299              		.loc 1 666 13 is_stmt 1
 1300              		.loc 1 666 64 is_stmt 0
 1301 006a 1C41     		lw	a5,0(a0)
 1302              		.loc 1 666 22
 1303 006c 03A70684 		lw	a4,-1984(a3)
 1304              		.loc 1 666 64
 1305 0070 8607     		slli	a5,a5,1
 1306              		.loc 1 666 22
 1307 0072 D98F     		or	a5,a5,a4
 1308 0074 23A0F684 		sw	a5,-1984(a3)
 1309              	.L84:
 667:C:/Users/stapi/OneDrive/Desktop/GD32VW553/GD32VW55X_Wifi_BLE_SDK/GD32VW55x_RELEASE_V1.0.2/MSDK/plf/GD32VW55x_standard_peripheral/Source\gd32vw55x_rtc.c ****         }
 668:C:/Users/stapi/OneDrive/Desktop/GD32VW553/GD32VW55X_Wifi_BLE_SDK/GD32VW55x_RELEASE_V1.0.2/MSDK/plf/GD32VW55x_standard_peripheral/Source\gd32vw55x_rtc.c ****     } else {
 669:C:/Users/stapi/OneDrive/Desktop/GD32VW553/GD32VW55X_Wifi_BLE_SDK/GD32VW55x_RELEASE_V1.0.2/MSDK/plf/GD32VW55x_standard_peripheral/Source\gd32vw55x_rtc.c ****         /* configure the tamper trigger */
 670:C:/Users/stapi/OneDrive/Desktop/GD32VW553/GD32VW55X_Wifi_BLE_SDK/GD32VW55x_RELEASE_V1.0.2/MSDK/plf/GD32VW55x_standard_peripheral/Source\gd32vw55x_rtc.c ****         RTC_TAMP &= ((uint32_t)~((rtc_tamper->tamper_source) << RTC_TAMPER_TRIGGER_POS));
 671:C:/Users/stapi/OneDrive/Desktop/GD32VW553/GD32VW55X_Wifi_BLE_SDK/GD32VW55x_RELEASE_V1.0.2/MSDK/plf/GD32VW55x_standard_peripheral/Source\gd32vw55x_rtc.c ****         if(RTC_TAMPER_TRIGGER_EDGE_RISING != rtc_tamper->tamper_trigger) {
 672:C:/Users/stapi/OneDrive/Desktop/GD32VW553/GD32VW55X_Wifi_BLE_SDK/GD32VW55x_RELEASE_V1.0.2/MSDK/plf/GD32VW55x_standard_peripheral/Source\gd32vw55x_rtc.c ****             RTC_TAMP |= (uint32_t)((rtc_tamper->tamper_source) << RTC_TAMPER_TRIGGER_POS);
 673:C:/Users/stapi/OneDrive/Desktop/GD32VW553/GD32VW55X_Wifi_BLE_SDK/GD32VW55x_RELEASE_V1.0.2/MSDK/plf/GD32VW55x_standard_peripheral/Source\gd32vw55x_rtc.c ****         }
 674:C:/Users/stapi/OneDrive/Desktop/GD32VW553/GD32VW55X_Wifi_BLE_SDK/GD32VW55x_RELEASE_V1.0.2/MSDK/plf/GD32VW55x_standard_peripheral/Source\gd32vw55x_rtc.c ****     }
 675:C:/Users/stapi/OneDrive/Desktop/GD32VW553/GD32VW55X_Wifi_BLE_SDK/GD32VW55x_RELEASE_V1.0.2/MSDK/plf/GD32VW55x_standard_peripheral/Source\gd32vw55x_rtc.c ****     RTC_TAMP &= (uint32_t)~RTC_TAMP_TPTS;
 1310              		.loc 1 675 5 is_stmt 1
 1311              		.loc 1 675 14 is_stmt 0
 1312 0078 B7370040 		li	a5,1073754112
 1313 007c 03A70784 		lw	a4,-1984(a5)
 1314 0080 1377F7F7 		andi	a4,a4,-129
 1315 0084 23A0E784 		sw	a4,-1984(a5)
 676:C:/Users/stapi/OneDrive/Desktop/GD32VW553/GD32VW55X_Wifi_BLE_SDK/GD32VW55x_RELEASE_V1.0.2/MSDK/plf/GD32VW55x_standard_peripheral/Source\gd32vw55x_rtc.c ****     if(DISABLE != rtc_tamper->tamper_with_timestamp) {
 1316              		.loc 1 676 5 is_stmt 1
 1317              		.loc 1 676 7 is_stmt 0
 1318 0088 184D     		lw	a4,24(a0)
 1319 008a 19C7     		beq	a4,zero,.L86
 677:C:/Users/stapi/OneDrive/Desktop/GD32VW553/GD32VW55X_Wifi_BLE_SDK/GD32VW55x_RELEASE_V1.0.2/MSDK/plf/GD32VW55x_standard_peripheral/Source\gd32vw55x_rtc.c ****         /* the tamper event also cause a time-stamp event */
 678:C:/Users/stapi/OneDrive/Desktop/GD32VW553/GD32VW55X_Wifi_BLE_SDK/GD32VW55x_RELEASE_V1.0.2/MSDK/plf/GD32VW55x_standard_peripheral/Source\gd32vw55x_rtc.c ****         RTC_TAMP |= (uint32_t)RTC_TAMP_TPTS;
 1320              		.loc 1 678 9 is_stmt 1
 1321              		.loc 1 678 18 is_stmt 0
 1322 008c 03A70784 		lw	a4,-1984(a5)
 1323 0090 13670708 		ori	a4,a4,128
 1324 0094 23A0E784 		sw	a4,-1984(a5)
 1325              	.L86:
 679:C:/Users/stapi/OneDrive/Desktop/GD32VW553/GD32VW55X_Wifi_BLE_SDK/GD32VW55x_RELEASE_V1.0.2/MSDK/plf/GD32VW55x_standard_peripheral/Source\gd32vw55x_rtc.c ****     }
 680:C:/Users/stapi/OneDrive/Desktop/GD32VW553/GD32VW55X_Wifi_BLE_SDK/GD32VW55x_RELEASE_V1.0.2/MSDK/plf/GD32VW55x_standard_peripheral/Source\gd32vw55x_rtc.c ****     /* enable tamper */
 681:C:/Users/stapi/OneDrive/Desktop/GD32VW553/GD32VW55X_Wifi_BLE_SDK/GD32VW55x_RELEASE_V1.0.2/MSDK/plf/GD32VW55x_standard_peripheral/Source\gd32vw55x_rtc.c ****     RTC_TAMP |= (uint32_t)(rtc_tamper->tamper_source);
 1326              		.loc 1 681 5 is_stmt 1
 1327              		.loc 1 681 14 is_stmt 0
 1328 0098 37370040 		li	a4,1073754112
 1329 009c 83270784 		lw	a5,-1984(a4)
 1330 00a0 1441     		lw	a3,0(a0)
 1331 00a2 D58F     		or	a5,a5,a3
 1332 00a4 2320F784 		sw	a5,-1984(a4)
 682:C:/Users/stapi/OneDrive/Desktop/GD32VW553/GD32VW55X_Wifi_BLE_SDK/GD32VW55x_RELEASE_V1.0.2/MSDK/plf/GD32VW55x_standard_peripheral/Source\gd32vw55x_rtc.c **** }
 1333              		.loc 1 682 1
 1334 00a8 8280     		ret
 1335              	.L81:
 657:C:/Users/stapi/OneDrive/Desktop/GD32VW553/GD32VW55X_Wifi_BLE_SDK/GD32VW55x_RELEASE_V1.0.2/MSDK/plf/GD32VW55x_standard_peripheral/Source\gd32vw55x_rtc.c ****         }
 1336              		.loc 1 657 13 is_stmt 1
 657:C:/Users/stapi/OneDrive/Desktop/GD32VW553/GD32VW55X_Wifi_BLE_SDK/GD32VW55x_RELEASE_V1.0.2/MSDK/plf/GD32VW55x_standard_peripheral/Source\gd32vw55x_rtc.c ****         }
 1337              		.loc 1 657 22 is_stmt 0
 1338 00aa 03A70784 		lw	a4,-1984(a5)
 1339 00ae 5449     		lw	a3,20(a0)
 1340 00b0 558F     		or	a4,a4,a3
 1341 00b2 71B7     		j	.L93
 1342              	.L80:
 670:C:/Users/stapi/OneDrive/Desktop/GD32VW553/GD32VW55X_Wifi_BLE_SDK/GD32VW55x_RELEASE_V1.0.2/MSDK/plf/GD32VW55x_standard_peripheral/Source\gd32vw55x_rtc.c ****         if(RTC_TAMPER_TRIGGER_EDGE_RISING != rtc_tamper->tamper_trigger) {
 1343              		.loc 1 670 9 is_stmt 1
 670:C:/Users/stapi/OneDrive/Desktop/GD32VW553/GD32VW55X_Wifi_BLE_SDK/GD32VW55x_RELEASE_V1.0.2/MSDK/plf/GD32VW55x_standard_peripheral/Source\gd32vw55x_rtc.c ****         if(RTC_TAMPER_TRIGGER_EDGE_RISING != rtc_tamper->tamper_trigger) {
 1344              		.loc 1 670 62 is_stmt 0
 1345 00b4 1841     		lw	a4,0(a0)
 670:C:/Users/stapi/OneDrive/Desktop/GD32VW553/GD32VW55X_Wifi_BLE_SDK/GD32VW55x_RELEASE_V1.0.2/MSDK/plf/GD32VW55x_standard_peripheral/Source\gd32vw55x_rtc.c ****         if(RTC_TAMPER_TRIGGER_EDGE_RISING != rtc_tamper->tamper_trigger) {
 1346              		.loc 1 670 18
 1347 00b6 83A60784 		lw	a3,-1984(a5)
 670:C:/Users/stapi/OneDrive/Desktop/GD32VW553/GD32VW55X_Wifi_BLE_SDK/GD32VW55x_RELEASE_V1.0.2/MSDK/plf/GD32VW55x_standard_peripheral/Source\gd32vw55x_rtc.c ****         if(RTC_TAMPER_TRIGGER_EDGE_RISING != rtc_tamper->tamper_trigger) {
 1348              		.loc 1 670 62
 1349 00ba 0607     		slli	a4,a4,1
 670:C:/Users/stapi/OneDrive/Desktop/GD32VW553/GD32VW55X_Wifi_BLE_SDK/GD32VW55x_RELEASE_V1.0.2/MSDK/plf/GD32VW55x_standard_peripheral/Source\gd32vw55x_rtc.c ****         if(RTC_TAMPER_TRIGGER_EDGE_RISING != rtc_tamper->tamper_trigger) {
 1350              		.loc 1 670 18
 1351 00bc 33F7E640 		andn	a4,a3,a4
 1352 00c0 23A0E784 		sw	a4,-1984(a5)
 671:C:/Users/stapi/OneDrive/Desktop/GD32VW553/GD32VW55X_Wifi_BLE_SDK/GD32VW55x_RELEASE_V1.0.2/MSDK/plf/GD32VW55x_standard_peripheral/Source\gd32vw55x_rtc.c ****             RTC_TAMP |= (uint32_t)((rtc_tamper->tamper_source) << RTC_TAMPER_TRIGGER_POS);
 1353              		.loc 1 671 9 is_stmt 1
 671:C:/Users/stapi/OneDrive/Desktop/GD32VW553/GD32VW55X_Wifi_BLE_SDK/GD32VW55x_RELEASE_V1.0.2/MSDK/plf/GD32VW55x_standard_peripheral/Source\gd32vw55x_rtc.c ****             RTC_TAMP |= (uint32_t)((rtc_tamper->tamper_source) << RTC_TAMPER_TRIGGER_POS);
 1354              		.loc 1 671 11 is_stmt 0
 1355 00c4 5841     		lw	a4,4(a0)
 1356 00c6 4DDB     		beq	a4,zero,.L84
 672:C:/Users/stapi/OneDrive/Desktop/GD32VW553/GD32VW55X_Wifi_BLE_SDK/GD32VW55x_RELEASE_V1.0.2/MSDK/plf/GD32VW55x_standard_peripheral/Source\gd32vw55x_rtc.c ****         }
 1357              		.loc 1 672 13 is_stmt 1
 672:C:/Users/stapi/OneDrive/Desktop/GD32VW553/GD32VW55X_Wifi_BLE_SDK/GD32VW55x_RELEASE_V1.0.2/MSDK/plf/GD32VW55x_standard_peripheral/Source\gd32vw55x_rtc.c ****         }
 1358              		.loc 1 672 64 is_stmt 0
 1359 00c8 1841     		lw	a4,0(a0)
 672:C:/Users/stapi/OneDrive/Desktop/GD32VW553/GD32VW55X_Wifi_BLE_SDK/GD32VW55x_RELEASE_V1.0.2/MSDK/plf/GD32VW55x_standard_peripheral/Source\gd32vw55x_rtc.c ****         }
 1360              		.loc 1 672 22
 1361 00ca 83A60784 		lw	a3,-1984(a5)
 672:C:/Users/stapi/OneDrive/Desktop/GD32VW553/GD32VW55X_Wifi_BLE_SDK/GD32VW55x_RELEASE_V1.0.2/MSDK/plf/GD32VW55x_standard_peripheral/Source\gd32vw55x_rtc.c ****         }
 1362              		.loc 1 672 64
 1363 00ce 0607     		slli	a4,a4,1
 672:C:/Users/stapi/OneDrive/Desktop/GD32VW553/GD32VW55X_Wifi_BLE_SDK/GD32VW55x_RELEASE_V1.0.2/MSDK/plf/GD32VW55x_standard_peripheral/Source\gd32vw55x_rtc.c ****         }
 1364              		.loc 1 672 22
 1365 00d0 558F     		or	a4,a4,a3
 1366 00d2 23A0E784 		sw	a4,-1984(a5)
 1367 00d6 4DB7     		j	.L84
 1368              		.cfi_endproc
 1369              	.LFE382:
 1371              		.section	.text.rtc_tamper_disable,"ax",@progbits
 1372              		.align	1
 1373              		.globl	rtc_tamper_disable
 1375              	rtc_tamper_disable:
 1376              	.LFB383:
 683:C:/Users/stapi/OneDrive/Desktop/GD32VW553/GD32VW55X_Wifi_BLE_SDK/GD32VW55x_RELEASE_V1.0.2/MSDK/plf/GD32VW55x_standard_peripheral/Source\gd32vw55x_rtc.c **** 
 684:C:/Users/stapi/OneDrive/Desktop/GD32VW553/GD32VW55X_Wifi_BLE_SDK/GD32VW55x_RELEASE_V1.0.2/MSDK/plf/GD32VW55x_standard_peripheral/Source\gd32vw55x_rtc.c **** /*!
 685:C:/Users/stapi/OneDrive/Desktop/GD32VW553/GD32VW55X_Wifi_BLE_SDK/GD32VW55x_RELEASE_V1.0.2/MSDK/plf/GD32VW55x_standard_peripheral/Source\gd32vw55x_rtc.c ****     \brief      disable RTC tamper
 686:C:/Users/stapi/OneDrive/Desktop/GD32VW553/GD32VW55X_Wifi_BLE_SDK/GD32VW55x_RELEASE_V1.0.2/MSDK/plf/GD32VW55x_standard_peripheral/Source\gd32vw55x_rtc.c ****     \param[in]  source: specify which tamper source to be disabled
 687:C:/Users/stapi/OneDrive/Desktop/GD32VW553/GD32VW55X_Wifi_BLE_SDK/GD32VW55x_RELEASE_V1.0.2/MSDK/plf/GD32VW55x_standard_peripheral/Source\gd32vw55x_rtc.c ****       \arg        RTC_TAMPER0
 688:C:/Users/stapi/OneDrive/Desktop/GD32VW553/GD32VW55X_Wifi_BLE_SDK/GD32VW55x_RELEASE_V1.0.2/MSDK/plf/GD32VW55x_standard_peripheral/Source\gd32vw55x_rtc.c ****       \arg        RTC_TAMPER1
 689:C:/Users/stapi/OneDrive/Desktop/GD32VW553/GD32VW55X_Wifi_BLE_SDK/GD32VW55x_RELEASE_V1.0.2/MSDK/plf/GD32VW55x_standard_peripheral/Source\gd32vw55x_rtc.c ****     \param[out] none
 690:C:/Users/stapi/OneDrive/Desktop/GD32VW553/GD32VW55X_Wifi_BLE_SDK/GD32VW55x_RELEASE_V1.0.2/MSDK/plf/GD32VW55x_standard_peripheral/Source\gd32vw55x_rtc.c ****     \retval     none
 691:C:/Users/stapi/OneDrive/Desktop/GD32VW553/GD32VW55X_Wifi_BLE_SDK/GD32VW55x_RELEASE_V1.0.2/MSDK/plf/GD32VW55x_standard_peripheral/Source\gd32vw55x_rtc.c **** */
 692:C:/Users/stapi/OneDrive/Desktop/GD32VW553/GD32VW55X_Wifi_BLE_SDK/GD32VW55x_RELEASE_V1.0.2/MSDK/plf/GD32VW55x_standard_peripheral/Source\gd32vw55x_rtc.c **** void rtc_tamper_disable(uint32_t source)
 693:C:/Users/stapi/OneDrive/Desktop/GD32VW553/GD32VW55X_Wifi_BLE_SDK/GD32VW55x_RELEASE_V1.0.2/MSDK/plf/GD32VW55x_standard_peripheral/Source\gd32vw55x_rtc.c **** {
 1377              		.loc 1 693 1 is_stmt 1
 1378              		.cfi_startproc
 1379              	.LVL78:
 694:C:/Users/stapi/OneDrive/Desktop/GD32VW553/GD32VW55X_Wifi_BLE_SDK/GD32VW55x_RELEASE_V1.0.2/MSDK/plf/GD32VW55x_standard_peripheral/Source\gd32vw55x_rtc.c ****     /* disable tamper */
 695:C:/Users/stapi/OneDrive/Desktop/GD32VW553/GD32VW55X_Wifi_BLE_SDK/GD32VW55x_RELEASE_V1.0.2/MSDK/plf/GD32VW55x_standard_peripheral/Source\gd32vw55x_rtc.c ****     RTC_TAMP &= (uint32_t)~source;
 1380              		.loc 1 695 5
 1381              		.loc 1 695 14 is_stmt 0
 1382 0000 B7370040 		li	a5,1073754112
 1383 0004 03A70784 		lw	a4,-1984(a5)
 1384 0008 3375A740 		andn	a0,a4,a0
 1385              	.LVL79:
 1386 000c 23A0A784 		sw	a0,-1984(a5)
 696:C:/Users/stapi/OneDrive/Desktop/GD32VW553/GD32VW55X_Wifi_BLE_SDK/GD32VW55x_RELEASE_V1.0.2/MSDK/plf/GD32VW55x_standard_peripheral/Source\gd32vw55x_rtc.c **** }
 1387              		.loc 1 696 1
 1388 0010 8280     		ret
 1389              		.cfi_endproc
 1390              	.LFE383:
 1392              		.section	.text.rtc_software_bkp_reset,"ax",@progbits
 1393              		.align	1
 1394              		.globl	rtc_software_bkp_reset
 1396              	rtc_software_bkp_reset:
 1397              	.LFB384:
 697:C:/Users/stapi/OneDrive/Desktop/GD32VW553/GD32VW55X_Wifi_BLE_SDK/GD32VW55x_RELEASE_V1.0.2/MSDK/plf/GD32VW55x_standard_peripheral/Source\gd32vw55x_rtc.c **** 
 698:C:/Users/stapi/OneDrive/Desktop/GD32VW553/GD32VW55X_Wifi_BLE_SDK/GD32VW55x_RELEASE_V1.0.2/MSDK/plf/GD32VW55x_standard_peripheral/Source\gd32vw55x_rtc.c **** /*!
 699:C:/Users/stapi/OneDrive/Desktop/GD32VW553/GD32VW55X_Wifi_BLE_SDK/GD32VW55x_RELEASE_V1.0.2/MSDK/plf/GD32VW55x_standard_peripheral/Source\gd32vw55x_rtc.c ****     \brief      reset the RTC_BKP registers by sofware
 700:C:/Users/stapi/OneDrive/Desktop/GD32VW553/GD32VW55X_Wifi_BLE_SDK/GD32VW55x_RELEASE_V1.0.2/MSDK/plf/GD32VW55x_standard_peripheral/Source\gd32vw55x_rtc.c ****     \param[in]  none
 701:C:/Users/stapi/OneDrive/Desktop/GD32VW553/GD32VW55X_Wifi_BLE_SDK/GD32VW55x_RELEASE_V1.0.2/MSDK/plf/GD32VW55x_standard_peripheral/Source\gd32vw55x_rtc.c ****     \param[out] none
 702:C:/Users/stapi/OneDrive/Desktop/GD32VW553/GD32VW55X_Wifi_BLE_SDK/GD32VW55x_RELEASE_V1.0.2/MSDK/plf/GD32VW55x_standard_peripheral/Source\gd32vw55x_rtc.c ****     \retval     none
 703:C:/Users/stapi/OneDrive/Desktop/GD32VW553/GD32VW55X_Wifi_BLE_SDK/GD32VW55x_RELEASE_V1.0.2/MSDK/plf/GD32VW55x_standard_peripheral/Source\gd32vw55x_rtc.c **** */
 704:C:/Users/stapi/OneDrive/Desktop/GD32VW553/GD32VW55X_Wifi_BLE_SDK/GD32VW55x_RELEASE_V1.0.2/MSDK/plf/GD32VW55x_standard_peripheral/Source\gd32vw55x_rtc.c **** void rtc_software_bkp_reset(void)
 705:C:/Users/stapi/OneDrive/Desktop/GD32VW553/GD32VW55X_Wifi_BLE_SDK/GD32VW55x_RELEASE_V1.0.2/MSDK/plf/GD32VW55x_standard_peripheral/Source\gd32vw55x_rtc.c **** {
 1398              		.loc 1 705 1 is_stmt 1
 1399              		.cfi_startproc
 706:C:/Users/stapi/OneDrive/Desktop/GD32VW553/GD32VW55X_Wifi_BLE_SDK/GD32VW55x_RELEASE_V1.0.2/MSDK/plf/GD32VW55x_standard_peripheral/Source\gd32vw55x_rtc.c ****     RTC_TAMP |= RTC_TAMP_BKERASE;
 1400              		.loc 1 706 5
 1401              		.loc 1 706 14 is_stmt 0
 1402 0000 37370040 		li	a4,1073754112
 1403 0004 83270784 		lw	a5,-1984(a4)
 1404 0008 B7060080 		li	a3,-2147483648
 1405 000c D58F     		or	a5,a5,a3
 1406 000e 2320F784 		sw	a5,-1984(a4)
 707:C:/Users/stapi/OneDrive/Desktop/GD32VW553/GD32VW55X_Wifi_BLE_SDK/GD32VW55x_RELEASE_V1.0.2/MSDK/plf/GD32VW55x_standard_peripheral/Source\gd32vw55x_rtc.c **** }
 1407              		.loc 1 707 1
 1408 0012 8280     		ret
 1409              		.cfi_endproc
 1410              	.LFE384:
 1412              		.section	.text.rtc_tamper_without_bkp_reset,"ax",@progbits
 1413              		.align	1
 1414              		.globl	rtc_tamper_without_bkp_reset
 1416              	rtc_tamper_without_bkp_reset:
 1417              	.LFB385:
 708:C:/Users/stapi/OneDrive/Desktop/GD32VW553/GD32VW55X_Wifi_BLE_SDK/GD32VW55x_RELEASE_V1.0.2/MSDK/plf/GD32VW55x_standard_peripheral/Source\gd32vw55x_rtc.c **** 
 709:C:/Users/stapi/OneDrive/Desktop/GD32VW553/GD32VW55X_Wifi_BLE_SDK/GD32VW55x_RELEASE_V1.0.2/MSDK/plf/GD32VW55x_standard_peripheral/Source\gd32vw55x_rtc.c **** /*!
 710:C:/Users/stapi/OneDrive/Desktop/GD32VW553/GD32VW55X_Wifi_BLE_SDK/GD32VW55x_RELEASE_V1.0.2/MSDK/plf/GD32VW55x_standard_peripheral/Source\gd32vw55x_rtc.c ****     \brief      tamperx event does not erase the RTC_BKP registers
 711:C:/Users/stapi/OneDrive/Desktop/GD32VW553/GD32VW55X_Wifi_BLE_SDK/GD32VW55x_RELEASE_V1.0.2/MSDK/plf/GD32VW55x_standard_peripheral/Source\gd32vw55x_rtc.c ****     \param[in]  ne_source: specify which tamper source will not trigger the RTC_BKP registers reset
 712:C:/Users/stapi/OneDrive/Desktop/GD32VW553/GD32VW55X_Wifi_BLE_SDK/GD32VW55x_RELEASE_V1.0.2/MSDK/plf/GD32VW55x_standard_peripheral/Source\gd32vw55x_rtc.c ****       \arg        RTC_TAMPXNOER_NONE: both tamper0 and tamper1 event will trigger RTC_BKP registers
 713:C:/Users/stapi/OneDrive/Desktop/GD32VW553/GD32VW55X_Wifi_BLE_SDK/GD32VW55x_RELEASE_V1.0.2/MSDK/plf/GD32VW55x_standard_peripheral/Source\gd32vw55x_rtc.c ****       \arg        RTC_TAMPXNOER_TP0: tamper0 event will not trigger RTC_BKP registers reset
 714:C:/Users/stapi/OneDrive/Desktop/GD32VW553/GD32VW55X_Wifi_BLE_SDK/GD32VW55x_RELEASE_V1.0.2/MSDK/plf/GD32VW55x_standard_peripheral/Source\gd32vw55x_rtc.c ****       \arg        RTC_TAMPXNOER_TP1: tamper1 event will not trigger RTC_BKP registers reset
 715:C:/Users/stapi/OneDrive/Desktop/GD32VW553/GD32VW55X_Wifi_BLE_SDK/GD32VW55x_RELEASE_V1.0.2/MSDK/plf/GD32VW55x_standard_peripheral/Source\gd32vw55x_rtc.c ****       \arg        RTC_TAMPXNOER_TP0_TP1: Neither tamper0 nor tamepr1 event will trigger RTC_BKP reg
 716:C:/Users/stapi/OneDrive/Desktop/GD32VW553/GD32VW55X_Wifi_BLE_SDK/GD32VW55x_RELEASE_V1.0.2/MSDK/plf/GD32VW55x_standard_peripheral/Source\gd32vw55x_rtc.c ****     \param[out] none
 717:C:/Users/stapi/OneDrive/Desktop/GD32VW553/GD32VW55X_Wifi_BLE_SDK/GD32VW55x_RELEASE_V1.0.2/MSDK/plf/GD32VW55x_standard_peripheral/Source\gd32vw55x_rtc.c ****     \retval     none
 718:C:/Users/stapi/OneDrive/Desktop/GD32VW553/GD32VW55X_Wifi_BLE_SDK/GD32VW55x_RELEASE_V1.0.2/MSDK/plf/GD32VW55x_standard_peripheral/Source\gd32vw55x_rtc.c **** */
 719:C:/Users/stapi/OneDrive/Desktop/GD32VW553/GD32VW55X_Wifi_BLE_SDK/GD32VW55x_RELEASE_V1.0.2/MSDK/plf/GD32VW55x_standard_peripheral/Source\gd32vw55x_rtc.c **** void rtc_tamper_without_bkp_reset(uint32_t tamper_source)
 720:C:/Users/stapi/OneDrive/Desktop/GD32VW553/GD32VW55X_Wifi_BLE_SDK/GD32VW55x_RELEASE_V1.0.2/MSDK/plf/GD32VW55x_standard_peripheral/Source\gd32vw55x_rtc.c **** {
 1418              		.loc 1 720 1 is_stmt 1
 1419              		.cfi_startproc
 1420              	.LVL80:
 721:C:/Users/stapi/OneDrive/Desktop/GD32VW553/GD32VW55X_Wifi_BLE_SDK/GD32VW55x_RELEASE_V1.0.2/MSDK/plf/GD32VW55x_standard_peripheral/Source\gd32vw55x_rtc.c ****     RTC_TAMP &= (uint32_t)~(RTC_TAMP_TP0NOER | RTC_TAMP_TP1NOER);
 1421              		.loc 1 721 5
 1422              		.loc 1 721 14 is_stmt 0
 1423 0000 B7370040 		li	a5,1073754112
 1424 0004 93870780 		addi	a5,a5,-2048
 1425 0008 B443     		lw	a3,64(a5)
 1426 000a 3706E8FF 		li	a2,-1572864
 1427 000e 7D16     		addi	a2,a2,-1
 1428 0010 F18E     		and	a3,a3,a2
 1429 0012 B4C3     		sw	a3,64(a5)
 722:C:/Users/stapi/OneDrive/Desktop/GD32VW553/GD32VW55X_Wifi_BLE_SDK/GD32VW55x_RELEASE_V1.0.2/MSDK/plf/GD32VW55x_standard_peripheral/Source\gd32vw55x_rtc.c ****     RTC_TAMP |= tamper_source;
 1430              		.loc 1 722 5 is_stmt 1
 1431              		.loc 1 722 14 is_stmt 0
 1432 0014 B843     		lw	a4,64(a5)
 1433 0016 498F     		or	a4,a4,a0
 1434 0018 B8C3     		sw	a4,64(a5)
 723:C:/Users/stapi/OneDrive/Desktop/GD32VW553/GD32VW55X_Wifi_BLE_SDK/GD32VW55x_RELEASE_V1.0.2/MSDK/plf/GD32VW55x_standard_peripheral/Source\gd32vw55x_rtc.c **** }
 1435              		.loc 1 723 1
 1436 001a 8280     		ret
 1437              		.cfi_endproc
 1438              	.LFE385:
 1440              		.section	.text.rtc_output_pin_select,"ax",@progbits
 1441              		.align	1
 1442              		.globl	rtc_output_pin_select
 1444              	rtc_output_pin_select:
 1445              	.LFB386:
 724:C:/Users/stapi/OneDrive/Desktop/GD32VW553/GD32VW55X_Wifi_BLE_SDK/GD32VW55x_RELEASE_V1.0.2/MSDK/plf/GD32VW55x_standard_peripheral/Source\gd32vw55x_rtc.c **** 
 725:C:/Users/stapi/OneDrive/Desktop/GD32VW553/GD32VW55X_Wifi_BLE_SDK/GD32VW55x_RELEASE_V1.0.2/MSDK/plf/GD32VW55x_standard_peripheral/Source\gd32vw55x_rtc.c **** /*!
 726:C:/Users/stapi/OneDrive/Desktop/GD32VW553/GD32VW55X_Wifi_BLE_SDK/GD32VW55x_RELEASE_V1.0.2/MSDK/plf/GD32VW55x_standard_peripheral/Source\gd32vw55x_rtc.c ****     \brief      select the RTC output pin
 727:C:/Users/stapi/OneDrive/Desktop/GD32VW553/GD32VW55X_Wifi_BLE_SDK/GD32VW55x_RELEASE_V1.0.2/MSDK/plf/GD32VW55x_standard_peripheral/Source\gd32vw55x_rtc.c ****     \param[in]  pin: specify the rtc output pin is PC15 or not
 728:C:/Users/stapi/OneDrive/Desktop/GD32VW553/GD32VW55X_Wifi_BLE_SDK/GD32VW55x_RELEASE_V1.0.2/MSDK/plf/GD32VW55x_standard_peripheral/Source\gd32vw55x_rtc.c ****       \arg        RTC_OUT_PC15: the rtc output pin is PC15
 729:C:/Users/stapi/OneDrive/Desktop/GD32VW553/GD32VW55X_Wifi_BLE_SDK/GD32VW55x_RELEASE_V1.0.2/MSDK/plf/GD32VW55x_standard_peripheral/Source\gd32vw55x_rtc.c ****       \arg        RTC_OUT_PA3_PA8: the rtc output pin is PA3 or PA8 according to the AFIO configura
 730:C:/Users/stapi/OneDrive/Desktop/GD32VW553/GD32VW55X_Wifi_BLE_SDK/GD32VW55x_RELEASE_V1.0.2/MSDK/plf/GD32VW55x_standard_peripheral/Source\gd32vw55x_rtc.c ****     \param[out] none
 731:C:/Users/stapi/OneDrive/Desktop/GD32VW553/GD32VW55X_Wifi_BLE_SDK/GD32VW55x_RELEASE_V1.0.2/MSDK/plf/GD32VW55x_standard_peripheral/Source\gd32vw55x_rtc.c ****     \retval     none
 732:C:/Users/stapi/OneDrive/Desktop/GD32VW553/GD32VW55X_Wifi_BLE_SDK/GD32VW55x_RELEASE_V1.0.2/MSDK/plf/GD32VW55x_standard_peripheral/Source\gd32vw55x_rtc.c **** */
 733:C:/Users/stapi/OneDrive/Desktop/GD32VW553/GD32VW55X_Wifi_BLE_SDK/GD32VW55x_RELEASE_V1.0.2/MSDK/plf/GD32VW55x_standard_peripheral/Source\gd32vw55x_rtc.c **** void rtc_output_pin_select(uint32_t pin)
 734:C:/Users/stapi/OneDrive/Desktop/GD32VW553/GD32VW55X_Wifi_BLE_SDK/GD32VW55x_RELEASE_V1.0.2/MSDK/plf/GD32VW55x_standard_peripheral/Source\gd32vw55x_rtc.c **** {
 1446              		.loc 1 734 1 is_stmt 1
 1447              		.cfi_startproc
 1448              	.LVL81:
 735:C:/Users/stapi/OneDrive/Desktop/GD32VW553/GD32VW55X_Wifi_BLE_SDK/GD32VW55x_RELEASE_V1.0.2/MSDK/plf/GD32VW55x_standard_peripheral/Source\gd32vw55x_rtc.c ****     /* disable the write protection */
 736:C:/Users/stapi/OneDrive/Desktop/GD32VW553/GD32VW55X_Wifi_BLE_SDK/GD32VW55x_RELEASE_V1.0.2/MSDK/plf/GD32VW55x_standard_peripheral/Source\gd32vw55x_rtc.c ****     RTC_WPK = RTC_UNLOCK_KEY1;
 1449              		.loc 1 736 5
 1450              		.loc 1 736 13 is_stmt 0
 1451 0000 B7370040 		li	a5,1073754112
 1452 0004 93870780 		addi	a5,a5,-2048
 1453 0008 1307A00C 		li	a4,202
 1454 000c D8D3     		sw	a4,36(a5)
 737:C:/Users/stapi/OneDrive/Desktop/GD32VW553/GD32VW55X_Wifi_BLE_SDK/GD32VW55x_RELEASE_V1.0.2/MSDK/plf/GD32VW55x_standard_peripheral/Source\gd32vw55x_rtc.c ****     RTC_WPK = RTC_UNLOCK_KEY2;
 1455              		.loc 1 737 5 is_stmt 1
 1456              		.loc 1 737 13 is_stmt 0
 1457 000e 13073005 		li	a4,83
 1458 0012 D8D3     		sw	a4,36(a5)
 738:C:/Users/stapi/OneDrive/Desktop/GD32VW553/GD32VW55X_Wifi_BLE_SDK/GD32VW55x_RELEASE_V1.0.2/MSDK/plf/GD32VW55x_standard_peripheral/Source\gd32vw55x_rtc.c **** 
 739:C:/Users/stapi/OneDrive/Desktop/GD32VW553/GD32VW55X_Wifi_BLE_SDK/GD32VW55x_RELEASE_V1.0.2/MSDK/plf/GD32VW55x_standard_peripheral/Source\gd32vw55x_rtc.c ****     RTC_CTL &= (uint32_t)~(RTC_CTL_OUT2EN);
 1459              		.loc 1 739 5 is_stmt 1
 1460              		.loc 1 739 13 is_stmt 0
 1461 0014 9847     		lw	a4,8(a5)
 1462 0016 B7060080 		li	a3,-2147483648
 1463 001a B376D740 		andn	a3,a4,a3
 1464 001e 94C7     		sw	a3,8(a5)
 740:C:/Users/stapi/OneDrive/Desktop/GD32VW553/GD32VW55X_Wifi_BLE_SDK/GD32VW55x_RELEASE_V1.0.2/MSDK/plf/GD32VW55x_standard_peripheral/Source\gd32vw55x_rtc.c ****     RTC_CTL |= (uint32_t)(pin);
 1465              		.loc 1 740 5 is_stmt 1
 1466              		.loc 1 740 13 is_stmt 0
 1467 0020 9847     		lw	a4,8(a5)
 1468 0022 498F     		or	a4,a4,a0
 1469 0024 98C7     		sw	a4,8(a5)
 741:C:/Users/stapi/OneDrive/Desktop/GD32VW553/GD32VW55X_Wifi_BLE_SDK/GD32VW55x_RELEASE_V1.0.2/MSDK/plf/GD32VW55x_standard_peripheral/Source\gd32vw55x_rtc.c **** 
 742:C:/Users/stapi/OneDrive/Desktop/GD32VW553/GD32VW55X_Wifi_BLE_SDK/GD32VW55x_RELEASE_V1.0.2/MSDK/plf/GD32VW55x_standard_peripheral/Source\gd32vw55x_rtc.c ****     /* enable the write protection */
 743:C:/Users/stapi/OneDrive/Desktop/GD32VW553/GD32VW55X_Wifi_BLE_SDK/GD32VW55x_RELEASE_V1.0.2/MSDK/plf/GD32VW55x_standard_peripheral/Source\gd32vw55x_rtc.c ****     RTC_WPK = RTC_LOCK_KEY;
 1470              		.loc 1 743 5 is_stmt 1
 1471              		.loc 1 743 13 is_stmt 0
 1472 0026 1307F00F 		li	a4,255
 1473 002a D8D3     		sw	a4,36(a5)
 744:C:/Users/stapi/OneDrive/Desktop/GD32VW553/GD32VW55X_Wifi_BLE_SDK/GD32VW55x_RELEASE_V1.0.2/MSDK/plf/GD32VW55x_standard_peripheral/Source\gd32vw55x_rtc.c **** }
 1474              		.loc 1 744 1
 1475 002c 8280     		ret
 1476              		.cfi_endproc
 1477              	.LFE386:
 1479              		.section	.text.rtc_alarm_output_config,"ax",@progbits
 1480              		.align	1
 1481              		.globl	rtc_alarm_output_config
 1483              	rtc_alarm_output_config:
 1484              	.LFB387:
 745:C:/Users/stapi/OneDrive/Desktop/GD32VW553/GD32VW55X_Wifi_BLE_SDK/GD32VW55x_RELEASE_V1.0.2/MSDK/plf/GD32VW55x_standard_peripheral/Source\gd32vw55x_rtc.c **** 
 746:C:/Users/stapi/OneDrive/Desktop/GD32VW553/GD32VW55X_Wifi_BLE_SDK/GD32VW55x_RELEASE_V1.0.2/MSDK/plf/GD32VW55x_standard_peripheral/Source\gd32vw55x_rtc.c **** /*!
 747:C:/Users/stapi/OneDrive/Desktop/GD32VW553/GD32VW55X_Wifi_BLE_SDK/GD32VW55x_RELEASE_V1.0.2/MSDK/plf/GD32VW55x_standard_peripheral/Source\gd32vw55x_rtc.c ****     \brief      configure rtc alarm output source
 748:C:/Users/stapi/OneDrive/Desktop/GD32VW553/GD32VW55X_Wifi_BLE_SDK/GD32VW55x_RELEASE_V1.0.2/MSDK/plf/GD32VW55x_standard_peripheral/Source\gd32vw55x_rtc.c ****     \param[in]  source: specify signal to output
 749:C:/Users/stapi/OneDrive/Desktop/GD32VW553/GD32VW55X_Wifi_BLE_SDK/GD32VW55x_RELEASE_V1.0.2/MSDK/plf/GD32VW55x_standard_peripheral/Source\gd32vw55x_rtc.c ****       \arg        RTC_ALARM0_HIGH: when the alarm0 flag is set, the output pin is high
 750:C:/Users/stapi/OneDrive/Desktop/GD32VW553/GD32VW55X_Wifi_BLE_SDK/GD32VW55x_RELEASE_V1.0.2/MSDK/plf/GD32VW55x_standard_peripheral/Source\gd32vw55x_rtc.c ****       \arg        RTC_ALARM0_LOW: when the alarm0 flag is set, the output pin is low
 751:C:/Users/stapi/OneDrive/Desktop/GD32VW553/GD32VW55X_Wifi_BLE_SDK/GD32VW55x_RELEASE_V1.0.2/MSDK/plf/GD32VW55x_standard_peripheral/Source\gd32vw55x_rtc.c ****       \arg        RTC_ALARM1_HIGH: when the alarm1 flag is set, the output pin is high
 752:C:/Users/stapi/OneDrive/Desktop/GD32VW553/GD32VW55X_Wifi_BLE_SDK/GD32VW55x_RELEASE_V1.0.2/MSDK/plf/GD32VW55x_standard_peripheral/Source\gd32vw55x_rtc.c ****       \arg        RTC_ALARM1_LOW: when the alarm1 flag is set, the output pin is low
 753:C:/Users/stapi/OneDrive/Desktop/GD32VW553/GD32VW55X_Wifi_BLE_SDK/GD32VW55x_RELEASE_V1.0.2/MSDK/plf/GD32VW55x_standard_peripheral/Source\gd32vw55x_rtc.c ****       \arg        RTC_WAKEUP_HIGH: when the wakeup flag is set, the output pin is high
 754:C:/Users/stapi/OneDrive/Desktop/GD32VW553/GD32VW55X_Wifi_BLE_SDK/GD32VW55x_RELEASE_V1.0.2/MSDK/plf/GD32VW55x_standard_peripheral/Source\gd32vw55x_rtc.c ****       \arg        RTC_WAKEUP_LOW: when the wakeup flag is set, the output pin is low
 755:C:/Users/stapi/OneDrive/Desktop/GD32VW553/GD32VW55X_Wifi_BLE_SDK/GD32VW55x_RELEASE_V1.0.2/MSDK/plf/GD32VW55x_standard_peripheral/Source\gd32vw55x_rtc.c ****     \param[in]  mode: specify the output pin mode when output alarm signal or auto wakeup signal
 756:C:/Users/stapi/OneDrive/Desktop/GD32VW553/GD32VW55X_Wifi_BLE_SDK/GD32VW55x_RELEASE_V1.0.2/MSDK/plf/GD32VW55x_standard_peripheral/Source\gd32vw55x_rtc.c ****       \arg        RTC_ALARM_OUTPUT_OD: open drain mode
 757:C:/Users/stapi/OneDrive/Desktop/GD32VW553/GD32VW55X_Wifi_BLE_SDK/GD32VW55x_RELEASE_V1.0.2/MSDK/plf/GD32VW55x_standard_peripheral/Source\gd32vw55x_rtc.c ****       \arg        RTC_ALARM_OUTPUT_PP: push pull mode
 758:C:/Users/stapi/OneDrive/Desktop/GD32VW553/GD32VW55X_Wifi_BLE_SDK/GD32VW55x_RELEASE_V1.0.2/MSDK/plf/GD32VW55x_standard_peripheral/Source\gd32vw55x_rtc.c ****     \param[out] none
 759:C:/Users/stapi/OneDrive/Desktop/GD32VW553/GD32VW55X_Wifi_BLE_SDK/GD32VW55x_RELEASE_V1.0.2/MSDK/plf/GD32VW55x_standard_peripheral/Source\gd32vw55x_rtc.c ****     \retval     none
 760:C:/Users/stapi/OneDrive/Desktop/GD32VW553/GD32VW55X_Wifi_BLE_SDK/GD32VW55x_RELEASE_V1.0.2/MSDK/plf/GD32VW55x_standard_peripheral/Source\gd32vw55x_rtc.c **** */
 761:C:/Users/stapi/OneDrive/Desktop/GD32VW553/GD32VW55X_Wifi_BLE_SDK/GD32VW55x_RELEASE_V1.0.2/MSDK/plf/GD32VW55x_standard_peripheral/Source\gd32vw55x_rtc.c **** void rtc_alarm_output_config(uint32_t source, uint32_t mode)
 762:C:/Users/stapi/OneDrive/Desktop/GD32VW553/GD32VW55X_Wifi_BLE_SDK/GD32VW55x_RELEASE_V1.0.2/MSDK/plf/GD32VW55x_standard_peripheral/Source\gd32vw55x_rtc.c **** {
 1485              		.loc 1 762 1 is_stmt 1
 1486              		.cfi_startproc
 1487              	.LVL82:
 763:C:/Users/stapi/OneDrive/Desktop/GD32VW553/GD32VW55X_Wifi_BLE_SDK/GD32VW55x_RELEASE_V1.0.2/MSDK/plf/GD32VW55x_standard_peripheral/Source\gd32vw55x_rtc.c ****     /* disable the write protection */
 764:C:/Users/stapi/OneDrive/Desktop/GD32VW553/GD32VW55X_Wifi_BLE_SDK/GD32VW55x_RELEASE_V1.0.2/MSDK/plf/GD32VW55x_standard_peripheral/Source\gd32vw55x_rtc.c ****     RTC_WPK = RTC_UNLOCK_KEY1;
 1488              		.loc 1 764 5
 1489              		.loc 1 764 13 is_stmt 0
 1490 0000 B7370040 		li	a5,1073754112
 1491 0004 93870780 		addi	a5,a5,-2048
 1492 0008 1307A00C 		li	a4,202
 1493 000c D8D3     		sw	a4,36(a5)
 765:C:/Users/stapi/OneDrive/Desktop/GD32VW553/GD32VW55X_Wifi_BLE_SDK/GD32VW55x_RELEASE_V1.0.2/MSDK/plf/GD32VW55x_standard_peripheral/Source\gd32vw55x_rtc.c ****     RTC_WPK = RTC_UNLOCK_KEY2;
 1494              		.loc 1 765 5 is_stmt 1
 1495              		.loc 1 765 13 is_stmt 0
 1496 000e 13073005 		li	a4,83
 1497 0012 D8D3     		sw	a4,36(a5)
 766:C:/Users/stapi/OneDrive/Desktop/GD32VW553/GD32VW55X_Wifi_BLE_SDK/GD32VW55x_RELEASE_V1.0.2/MSDK/plf/GD32VW55x_standard_peripheral/Source\gd32vw55x_rtc.c **** 
 767:C:/Users/stapi/OneDrive/Desktop/GD32VW553/GD32VW55X_Wifi_BLE_SDK/GD32VW55x_RELEASE_V1.0.2/MSDK/plf/GD32VW55x_standard_peripheral/Source\gd32vw55x_rtc.c ****     RTC_CTL &= ~(RTC_CTL_OS | RTC_CTL_OPOL);
 1498              		.loc 1 767 5 is_stmt 1
 1499              		.loc 1 767 13 is_stmt 0
 1500 0014 9047     		lw	a2,8(a5)
 1501 0016 370890FF 		li	a6,-7340032
 1502 001a 7D18     		addi	a6,a6,-1
 1503 001c 33760601 		and	a2,a2,a6
 1504 0020 90C7     		sw	a2,8(a5)
 768:C:/Users/stapi/OneDrive/Desktop/GD32VW553/GD32VW55X_Wifi_BLE_SDK/GD32VW55x_RELEASE_V1.0.2/MSDK/plf/GD32VW55x_standard_peripheral/Source\gd32vw55x_rtc.c ****     RTC_TAMP &= ~RTC_TAMP_AOT;
 1505              		.loc 1 768 5 is_stmt 1
 1506              		.loc 1 768 14 is_stmt 0
 1507 0022 B043     		lw	a2,64(a5)
 1508 0024 13162649 		bclri	a2,a2,18
 1509 0028 B0C3     		sw	a2,64(a5)
 769:C:/Users/stapi/OneDrive/Desktop/GD32VW553/GD32VW55X_Wifi_BLE_SDK/GD32VW55x_RELEASE_V1.0.2/MSDK/plf/GD32VW55x_standard_peripheral/Source\gd32vw55x_rtc.c **** 
 770:C:/Users/stapi/OneDrive/Desktop/GD32VW553/GD32VW55X_Wifi_BLE_SDK/GD32VW55x_RELEASE_V1.0.2/MSDK/plf/GD32VW55x_standard_peripheral/Source\gd32vw55x_rtc.c ****     RTC_CTL |= (uint32_t)(source);
 1510              		.loc 1 770 5 is_stmt 1
 1511              		.loc 1 770 13 is_stmt 0
 1512 002a 9447     		lw	a3,8(a5)
 1513 002c C98E     		or	a3,a3,a0
 1514 002e 94C7     		sw	a3,8(a5)
 771:C:/Users/stapi/OneDrive/Desktop/GD32VW553/GD32VW55X_Wifi_BLE_SDK/GD32VW55x_RELEASE_V1.0.2/MSDK/plf/GD32VW55x_standard_peripheral/Source\gd32vw55x_rtc.c ****     /* alarm output */
 772:C:/Users/stapi/OneDrive/Desktop/GD32VW553/GD32VW55X_Wifi_BLE_SDK/GD32VW55x_RELEASE_V1.0.2/MSDK/plf/GD32VW55x_standard_peripheral/Source\gd32vw55x_rtc.c ****     RTC_TAMP |= (uint32_t)(mode);
 1515              		.loc 1 772 5 is_stmt 1
 1516              		.loc 1 772 14 is_stmt 0
 1517 0030 B843     		lw	a4,64(a5)
 1518 0032 4D8F     		or	a4,a4,a1
 1519 0034 B8C3     		sw	a4,64(a5)
 773:C:/Users/stapi/OneDrive/Desktop/GD32VW553/GD32VW55X_Wifi_BLE_SDK/GD32VW55x_RELEASE_V1.0.2/MSDK/plf/GD32VW55x_standard_peripheral/Source\gd32vw55x_rtc.c ****     /* enable the write protection */
 774:C:/Users/stapi/OneDrive/Desktop/GD32VW553/GD32VW55X_Wifi_BLE_SDK/GD32VW55x_RELEASE_V1.0.2/MSDK/plf/GD32VW55x_standard_peripheral/Source\gd32vw55x_rtc.c ****     RTC_WPK = RTC_LOCK_KEY;
 1520              		.loc 1 774 5 is_stmt 1
 1521              		.loc 1 774 13 is_stmt 0
 1522 0036 1307F00F 		li	a4,255
 1523 003a D8D3     		sw	a4,36(a5)
 775:C:/Users/stapi/OneDrive/Desktop/GD32VW553/GD32VW55X_Wifi_BLE_SDK/GD32VW55x_RELEASE_V1.0.2/MSDK/plf/GD32VW55x_standard_peripheral/Source\gd32vw55x_rtc.c **** }
 1524              		.loc 1 775 1
 1525 003c 8280     		ret
 1526              		.cfi_endproc
 1527              	.LFE387:
 1529              		.section	.text.rtc_calibration_output_config,"ax",@progbits
 1530              		.align	1
 1531              		.globl	rtc_calibration_output_config
 1533              	rtc_calibration_output_config:
 1534              	.LFB388:
 776:C:/Users/stapi/OneDrive/Desktop/GD32VW553/GD32VW55X_Wifi_BLE_SDK/GD32VW55x_RELEASE_V1.0.2/MSDK/plf/GD32VW55x_standard_peripheral/Source\gd32vw55x_rtc.c **** 
 777:C:/Users/stapi/OneDrive/Desktop/GD32VW553/GD32VW55X_Wifi_BLE_SDK/GD32VW55x_RELEASE_V1.0.2/MSDK/plf/GD32VW55x_standard_peripheral/Source\gd32vw55x_rtc.c **** /*!
 778:C:/Users/stapi/OneDrive/Desktop/GD32VW553/GD32VW55X_Wifi_BLE_SDK/GD32VW55x_RELEASE_V1.0.2/MSDK/plf/GD32VW55x_standard_peripheral/Source\gd32vw55x_rtc.c ****     \brief      configure rtc calibration output source
 779:C:/Users/stapi/OneDrive/Desktop/GD32VW553/GD32VW55X_Wifi_BLE_SDK/GD32VW55x_RELEASE_V1.0.2/MSDK/plf/GD32VW55x_standard_peripheral/Source\gd32vw55x_rtc.c ****     \param[in]  source: specify signal to output
 780:C:/Users/stapi/OneDrive/Desktop/GD32VW553/GD32VW55X_Wifi_BLE_SDK/GD32VW55x_RELEASE_V1.0.2/MSDK/plf/GD32VW55x_standard_peripheral/Source\gd32vw55x_rtc.c ****       \arg        RTC_CALIBRATION_512HZ: when the LSE freqency is 32768Hz and the RTC_PSC
 781:C:/Users/stapi/OneDrive/Desktop/GD32VW553/GD32VW55X_Wifi_BLE_SDK/GD32VW55x_RELEASE_V1.0.2/MSDK/plf/GD32VW55x_standard_peripheral/Source\gd32vw55x_rtc.c ****                                          is the default value, output 512Hz signal
 782:C:/Users/stapi/OneDrive/Desktop/GD32VW553/GD32VW55X_Wifi_BLE_SDK/GD32VW55x_RELEASE_V1.0.2/MSDK/plf/GD32VW55x_standard_peripheral/Source\gd32vw55x_rtc.c ****       \arg        RTC_CALIBRATION_1HZ: when the LSE freqency is 32768Hz and the RTC_PSC
 783:C:/Users/stapi/OneDrive/Desktop/GD32VW553/GD32VW55X_Wifi_BLE_SDK/GD32VW55x_RELEASE_V1.0.2/MSDK/plf/GD32VW55x_standard_peripheral/Source\gd32vw55x_rtc.c ****                                        is the default value, output 1Hz signal
 784:C:/Users/stapi/OneDrive/Desktop/GD32VW553/GD32VW55X_Wifi_BLE_SDK/GD32VW55x_RELEASE_V1.0.2/MSDK/plf/GD32VW55x_standard_peripheral/Source\gd32vw55x_rtc.c ****     \param[out] none
 785:C:/Users/stapi/OneDrive/Desktop/GD32VW553/GD32VW55X_Wifi_BLE_SDK/GD32VW55x_RELEASE_V1.0.2/MSDK/plf/GD32VW55x_standard_peripheral/Source\gd32vw55x_rtc.c ****     \retval     none
 786:C:/Users/stapi/OneDrive/Desktop/GD32VW553/GD32VW55X_Wifi_BLE_SDK/GD32VW55x_RELEASE_V1.0.2/MSDK/plf/GD32VW55x_standard_peripheral/Source\gd32vw55x_rtc.c **** */
 787:C:/Users/stapi/OneDrive/Desktop/GD32VW553/GD32VW55X_Wifi_BLE_SDK/GD32VW55x_RELEASE_V1.0.2/MSDK/plf/GD32VW55x_standard_peripheral/Source\gd32vw55x_rtc.c **** void rtc_calibration_output_config(uint32_t source)
 788:C:/Users/stapi/OneDrive/Desktop/GD32VW553/GD32VW55X_Wifi_BLE_SDK/GD32VW55x_RELEASE_V1.0.2/MSDK/plf/GD32VW55x_standard_peripheral/Source\gd32vw55x_rtc.c **** {
 1535              		.loc 1 788 1 is_stmt 1
 1536              		.cfi_startproc
 1537              	.LVL83:
 789:C:/Users/stapi/OneDrive/Desktop/GD32VW553/GD32VW55X_Wifi_BLE_SDK/GD32VW55x_RELEASE_V1.0.2/MSDK/plf/GD32VW55x_standard_peripheral/Source\gd32vw55x_rtc.c ****     /* disable the write protection */
 790:C:/Users/stapi/OneDrive/Desktop/GD32VW553/GD32VW55X_Wifi_BLE_SDK/GD32VW55x_RELEASE_V1.0.2/MSDK/plf/GD32VW55x_standard_peripheral/Source\gd32vw55x_rtc.c ****     RTC_WPK = RTC_UNLOCK_KEY1;
 1538              		.loc 1 790 5
 1539              		.loc 1 790 13 is_stmt 0
 1540 0000 B7370040 		li	a5,1073754112
 1541 0004 93870780 		addi	a5,a5,-2048
 1542 0008 1307A00C 		li	a4,202
 1543 000c D8D3     		sw	a4,36(a5)
 791:C:/Users/stapi/OneDrive/Desktop/GD32VW553/GD32VW55X_Wifi_BLE_SDK/GD32VW55x_RELEASE_V1.0.2/MSDK/plf/GD32VW55x_standard_peripheral/Source\gd32vw55x_rtc.c ****     RTC_WPK = RTC_UNLOCK_KEY2;
 1544              		.loc 1 791 5 is_stmt 1
 1545              		.loc 1 791 13 is_stmt 0
 1546 000e 13073005 		li	a4,83
 1547 0012 D8D3     		sw	a4,36(a5)
 792:C:/Users/stapi/OneDrive/Desktop/GD32VW553/GD32VW55X_Wifi_BLE_SDK/GD32VW55x_RELEASE_V1.0.2/MSDK/plf/GD32VW55x_standard_peripheral/Source\gd32vw55x_rtc.c **** 
 793:C:/Users/stapi/OneDrive/Desktop/GD32VW553/GD32VW55X_Wifi_BLE_SDK/GD32VW55x_RELEASE_V1.0.2/MSDK/plf/GD32VW55x_standard_peripheral/Source\gd32vw55x_rtc.c ****     RTC_CTL &= (uint32_t)~(RTC_CTL_COEN | RTC_CTL_COS);
 1548              		.loc 1 793 5 is_stmt 1
 1549              		.loc 1 793 13 is_stmt 0
 1550 0014 9447     		lw	a3,8(a5)
 1551 0016 370678FF 		li	a2,-8912896
 1552 001a 7D16     		addi	a2,a2,-1
 1553 001c F18E     		and	a3,a3,a2
 1554 001e 94C7     		sw	a3,8(a5)
 794:C:/Users/stapi/OneDrive/Desktop/GD32VW553/GD32VW55X_Wifi_BLE_SDK/GD32VW55x_RELEASE_V1.0.2/MSDK/plf/GD32VW55x_standard_peripheral/Source\gd32vw55x_rtc.c **** 
 795:C:/Users/stapi/OneDrive/Desktop/GD32VW553/GD32VW55X_Wifi_BLE_SDK/GD32VW55x_RELEASE_V1.0.2/MSDK/plf/GD32VW55x_standard_peripheral/Source\gd32vw55x_rtc.c ****     RTC_CTL |= (uint32_t)(source);
 1555              		.loc 1 795 5 is_stmt 1
 1556              		.loc 1 795 13 is_stmt 0
 1557 0020 9847     		lw	a4,8(a5)
 1558 0022 498F     		or	a4,a4,a0
 1559 0024 98C7     		sw	a4,8(a5)
 796:C:/Users/stapi/OneDrive/Desktop/GD32VW553/GD32VW55X_Wifi_BLE_SDK/GD32VW55x_RELEASE_V1.0.2/MSDK/plf/GD32VW55x_standard_peripheral/Source\gd32vw55x_rtc.c ****     /* enable the write protection */
 797:C:/Users/stapi/OneDrive/Desktop/GD32VW553/GD32VW55X_Wifi_BLE_SDK/GD32VW55x_RELEASE_V1.0.2/MSDK/plf/GD32VW55x_standard_peripheral/Source\gd32vw55x_rtc.c ****     RTC_WPK = RTC_LOCK_KEY;
 1560              		.loc 1 797 5 is_stmt 1
 1561              		.loc 1 797 13 is_stmt 0
 1562 0026 1307F00F 		li	a4,255
 1563 002a D8D3     		sw	a4,36(a5)
 798:C:/Users/stapi/OneDrive/Desktop/GD32VW553/GD32VW55X_Wifi_BLE_SDK/GD32VW55x_RELEASE_V1.0.2/MSDK/plf/GD32VW55x_standard_peripheral/Source\gd32vw55x_rtc.c **** }
 1564              		.loc 1 798 1
 1565 002c 8280     		ret
 1566              		.cfi_endproc
 1567              	.LFE388:
 1569              		.section	.text.rtc_hour_adjust,"ax",@progbits
 1570              		.align	1
 1571              		.globl	rtc_hour_adjust
 1573              	rtc_hour_adjust:
 1574              	.LFB389:
 799:C:/Users/stapi/OneDrive/Desktop/GD32VW553/GD32VW55X_Wifi_BLE_SDK/GD32VW55x_RELEASE_V1.0.2/MSDK/plf/GD32VW55x_standard_peripheral/Source\gd32vw55x_rtc.c **** 
 800:C:/Users/stapi/OneDrive/Desktop/GD32VW553/GD32VW55X_Wifi_BLE_SDK/GD32VW55x_RELEASE_V1.0.2/MSDK/plf/GD32VW55x_standard_peripheral/Source\gd32vw55x_rtc.c **** /*!
 801:C:/Users/stapi/OneDrive/Desktop/GD32VW553/GD32VW55X_Wifi_BLE_SDK/GD32VW55x_RELEASE_V1.0.2/MSDK/plf/GD32VW55x_standard_peripheral/Source\gd32vw55x_rtc.c ****     \brief      adjust the daylight saving time by adding or substracting one hour from the current
 802:C:/Users/stapi/OneDrive/Desktop/GD32VW553/GD32VW55X_Wifi_BLE_SDK/GD32VW55x_RELEASE_V1.0.2/MSDK/plf/GD32VW55x_standard_peripheral/Source\gd32vw55x_rtc.c ****     \param[in]  operation: hour adjustment operation
 803:C:/Users/stapi/OneDrive/Desktop/GD32VW553/GD32VW55X_Wifi_BLE_SDK/GD32VW55x_RELEASE_V1.0.2/MSDK/plf/GD32VW55x_standard_peripheral/Source\gd32vw55x_rtc.c ****       \arg        RTC_CTL_A1H: add one hour
 804:C:/Users/stapi/OneDrive/Desktop/GD32VW553/GD32VW55X_Wifi_BLE_SDK/GD32VW55x_RELEASE_V1.0.2/MSDK/plf/GD32VW55x_standard_peripheral/Source\gd32vw55x_rtc.c ****       \arg        RTC_CTL_S1H: substract one hour
 805:C:/Users/stapi/OneDrive/Desktop/GD32VW553/GD32VW55X_Wifi_BLE_SDK/GD32VW55x_RELEASE_V1.0.2/MSDK/plf/GD32VW55x_standard_peripheral/Source\gd32vw55x_rtc.c ****     \param[out] none
 806:C:/Users/stapi/OneDrive/Desktop/GD32VW553/GD32VW55X_Wifi_BLE_SDK/GD32VW55x_RELEASE_V1.0.2/MSDK/plf/GD32VW55x_standard_peripheral/Source\gd32vw55x_rtc.c ****     \retval     none
 807:C:/Users/stapi/OneDrive/Desktop/GD32VW553/GD32VW55X_Wifi_BLE_SDK/GD32VW55x_RELEASE_V1.0.2/MSDK/plf/GD32VW55x_standard_peripheral/Source\gd32vw55x_rtc.c **** */
 808:C:/Users/stapi/OneDrive/Desktop/GD32VW553/GD32VW55X_Wifi_BLE_SDK/GD32VW55x_RELEASE_V1.0.2/MSDK/plf/GD32VW55x_standard_peripheral/Source\gd32vw55x_rtc.c **** void rtc_hour_adjust(uint32_t operation)
 809:C:/Users/stapi/OneDrive/Desktop/GD32VW553/GD32VW55X_Wifi_BLE_SDK/GD32VW55x_RELEASE_V1.0.2/MSDK/plf/GD32VW55x_standard_peripheral/Source\gd32vw55x_rtc.c **** {
 1575              		.loc 1 809 1 is_stmt 1
 1576              		.cfi_startproc
 1577              	.LVL84:
 810:C:/Users/stapi/OneDrive/Desktop/GD32VW553/GD32VW55X_Wifi_BLE_SDK/GD32VW55x_RELEASE_V1.0.2/MSDK/plf/GD32VW55x_standard_peripheral/Source\gd32vw55x_rtc.c ****     /* disable the write protection */
 811:C:/Users/stapi/OneDrive/Desktop/GD32VW553/GD32VW55X_Wifi_BLE_SDK/GD32VW55x_RELEASE_V1.0.2/MSDK/plf/GD32VW55x_standard_peripheral/Source\gd32vw55x_rtc.c ****     RTC_WPK = RTC_UNLOCK_KEY1;
 1578              		.loc 1 811 5
 1579              		.loc 1 811 13 is_stmt 0
 1580 0000 B7370040 		li	a5,1073754112
 1581 0004 93870780 		addi	a5,a5,-2048
 1582 0008 1307A00C 		li	a4,202
 1583 000c D8D3     		sw	a4,36(a5)
 812:C:/Users/stapi/OneDrive/Desktop/GD32VW553/GD32VW55X_Wifi_BLE_SDK/GD32VW55x_RELEASE_V1.0.2/MSDK/plf/GD32VW55x_standard_peripheral/Source\gd32vw55x_rtc.c ****     RTC_WPK = RTC_UNLOCK_KEY2;
 1584              		.loc 1 812 5 is_stmt 1
 1585              		.loc 1 812 13 is_stmt 0
 1586 000e 13073005 		li	a4,83
 1587 0012 D8D3     		sw	a4,36(a5)
 813:C:/Users/stapi/OneDrive/Desktop/GD32VW553/GD32VW55X_Wifi_BLE_SDK/GD32VW55x_RELEASE_V1.0.2/MSDK/plf/GD32VW55x_standard_peripheral/Source\gd32vw55x_rtc.c **** 
 814:C:/Users/stapi/OneDrive/Desktop/GD32VW553/GD32VW55X_Wifi_BLE_SDK/GD32VW55x_RELEASE_V1.0.2/MSDK/plf/GD32VW55x_standard_peripheral/Source\gd32vw55x_rtc.c ****     RTC_CTL |= (uint32_t)(operation);
 1588              		.loc 1 814 5 is_stmt 1
 1589              		.loc 1 814 13 is_stmt 0
 1590 0014 9847     		lw	a4,8(a5)
 1591 0016 498F     		or	a4,a4,a0
 1592 0018 98C7     		sw	a4,8(a5)
 815:C:/Users/stapi/OneDrive/Desktop/GD32VW553/GD32VW55X_Wifi_BLE_SDK/GD32VW55x_RELEASE_V1.0.2/MSDK/plf/GD32VW55x_standard_peripheral/Source\gd32vw55x_rtc.c **** 
 816:C:/Users/stapi/OneDrive/Desktop/GD32VW553/GD32VW55X_Wifi_BLE_SDK/GD32VW55x_RELEASE_V1.0.2/MSDK/plf/GD32VW55x_standard_peripheral/Source\gd32vw55x_rtc.c ****     /* enable the write protection */
 817:C:/Users/stapi/OneDrive/Desktop/GD32VW553/GD32VW55X_Wifi_BLE_SDK/GD32VW55x_RELEASE_V1.0.2/MSDK/plf/GD32VW55x_standard_peripheral/Source\gd32vw55x_rtc.c ****     RTC_WPK = RTC_LOCK_KEY;
 1593              		.loc 1 817 5 is_stmt 1
 1594              		.loc 1 817 13 is_stmt 0
 1595 001a 1307F00F 		li	a4,255
 1596 001e D8D3     		sw	a4,36(a5)
 818:C:/Users/stapi/OneDrive/Desktop/GD32VW553/GD32VW55X_Wifi_BLE_SDK/GD32VW55x_RELEASE_V1.0.2/MSDK/plf/GD32VW55x_standard_peripheral/Source\gd32vw55x_rtc.c **** }
 1597              		.loc 1 818 1
 1598 0020 8280     		ret
 1599              		.cfi_endproc
 1600              	.LFE389:
 1602              		.section	.text.rtc_second_adjust,"ax",@progbits
 1603              		.align	1
 1604              		.globl	rtc_second_adjust
 1606              	rtc_second_adjust:
 1607              	.LFB390:
 819:C:/Users/stapi/OneDrive/Desktop/GD32VW553/GD32VW55X_Wifi_BLE_SDK/GD32VW55x_RELEASE_V1.0.2/MSDK/plf/GD32VW55x_standard_peripheral/Source\gd32vw55x_rtc.c **** 
 820:C:/Users/stapi/OneDrive/Desktop/GD32VW553/GD32VW55X_Wifi_BLE_SDK/GD32VW55x_RELEASE_V1.0.2/MSDK/plf/GD32VW55x_standard_peripheral/Source\gd32vw55x_rtc.c **** /*!
 821:C:/Users/stapi/OneDrive/Desktop/GD32VW553/GD32VW55X_Wifi_BLE_SDK/GD32VW55x_RELEASE_V1.0.2/MSDK/plf/GD32VW55x_standard_peripheral/Source\gd32vw55x_rtc.c ****     \brief      adjust RTC second or subsecond value of current time
 822:C:/Users/stapi/OneDrive/Desktop/GD32VW553/GD32VW55X_Wifi_BLE_SDK/GD32VW55x_RELEASE_V1.0.2/MSDK/plf/GD32VW55x_standard_peripheral/Source\gd32vw55x_rtc.c ****     \param[in]  add: add 1s to current time or not
 823:C:/Users/stapi/OneDrive/Desktop/GD32VW553/GD32VW55X_Wifi_BLE_SDK/GD32VW55x_RELEASE_V1.0.2/MSDK/plf/GD32VW55x_standard_peripheral/Source\gd32vw55x_rtc.c ****       \arg        RTC_SHIFT_ADD1S_RESET: no effect
 824:C:/Users/stapi/OneDrive/Desktop/GD32VW553/GD32VW55X_Wifi_BLE_SDK/GD32VW55x_RELEASE_V1.0.2/MSDK/plf/GD32VW55x_standard_peripheral/Source\gd32vw55x_rtc.c ****       \arg        RTC_SHIFT_ADD1S_SET: add 1s to current time
 825:C:/Users/stapi/OneDrive/Desktop/GD32VW553/GD32VW55X_Wifi_BLE_SDK/GD32VW55x_RELEASE_V1.0.2/MSDK/plf/GD32VW55x_standard_peripheral/Source\gd32vw55x_rtc.c ****     \param[in]  minus: number of subsecond to minus from current time(0x0 - 0x7FFF)
 826:C:/Users/stapi/OneDrive/Desktop/GD32VW553/GD32VW55X_Wifi_BLE_SDK/GD32VW55x_RELEASE_V1.0.2/MSDK/plf/GD32VW55x_standard_peripheral/Source\gd32vw55x_rtc.c ****     \param[out] none
 827:C:/Users/stapi/OneDrive/Desktop/GD32VW553/GD32VW55X_Wifi_BLE_SDK/GD32VW55x_RELEASE_V1.0.2/MSDK/plf/GD32VW55x_standard_peripheral/Source\gd32vw55x_rtc.c ****     \retval     ErrStatus: ERROR or SUCCESS
 828:C:/Users/stapi/OneDrive/Desktop/GD32VW553/GD32VW55X_Wifi_BLE_SDK/GD32VW55x_RELEASE_V1.0.2/MSDK/plf/GD32VW55x_standard_peripheral/Source\gd32vw55x_rtc.c **** */
 829:C:/Users/stapi/OneDrive/Desktop/GD32VW553/GD32VW55X_Wifi_BLE_SDK/GD32VW55x_RELEASE_V1.0.2/MSDK/plf/GD32VW55x_standard_peripheral/Source\gd32vw55x_rtc.c **** ErrStatus rtc_second_adjust(uint32_t add, uint32_t minus)
 830:C:/Users/stapi/OneDrive/Desktop/GD32VW553/GD32VW55X_Wifi_BLE_SDK/GD32VW55x_RELEASE_V1.0.2/MSDK/plf/GD32VW55x_standard_peripheral/Source\gd32vw55x_rtc.c **** {
 1608              		.loc 1 830 1 is_stmt 1
 1609              		.cfi_startproc
 1610              	.LVL85:
 1611 0000 17030000 		call	t0,__riscv_save_0
 1611      E7020300 
 1612              		.cfi_offset 1, -4
 1613              		.cfi_def_cfa_offset 16
 831:C:/Users/stapi/OneDrive/Desktop/GD32VW553/GD32VW55X_Wifi_BLE_SDK/GD32VW55x_RELEASE_V1.0.2/MSDK/plf/GD32VW55x_standard_peripheral/Source\gd32vw55x_rtc.c ****     volatile uint32_t time_index = RTC_SHIFTCTL_TIMEOUT;
 1614              		.loc 1 831 5
 1615              		.loc 1 831 23 is_stmt 0
 1616 0008 8567     		li	a5,4096
 830:C:/Users/stapi/OneDrive/Desktop/GD32VW553/GD32VW55X_Wifi_BLE_SDK/GD32VW55x_RELEASE_V1.0.2/MSDK/plf/GD32VW55x_standard_peripheral/Source\gd32vw55x_rtc.c ****     volatile uint32_t time_index = RTC_SHIFTCTL_TIMEOUT;
 1617              		.loc 1 830 1
 1618 000a 4111     		addi	sp,sp,-16
 1619              		.cfi_def_cfa_offset 32
 1620              		.loc 1 831 23
 1621 000c 3EC6     		sw	a5,12(sp)
 832:C:/Users/stapi/OneDrive/Desktop/GD32VW553/GD32VW55X_Wifi_BLE_SDK/GD32VW55x_RELEASE_V1.0.2/MSDK/plf/GD32VW55x_standard_peripheral/Source\gd32vw55x_rtc.c ****     ErrStatus error_status = ERROR;
 1622              		.loc 1 832 5 is_stmt 1
 1623              	.LVL86:
 833:C:/Users/stapi/OneDrive/Desktop/GD32VW553/GD32VW55X_Wifi_BLE_SDK/GD32VW55x_RELEASE_V1.0.2/MSDK/plf/GD32VW55x_standard_peripheral/Source\gd32vw55x_rtc.c ****     uint32_t flag_status = RESET;
 1624              		.loc 1 833 5
 834:C:/Users/stapi/OneDrive/Desktop/GD32VW553/GD32VW55X_Wifi_BLE_SDK/GD32VW55x_RELEASE_V1.0.2/MSDK/plf/GD32VW55x_standard_peripheral/Source\gd32vw55x_rtc.c ****     uint32_t temp = 0U;
 1625              		.loc 1 834 5
 835:C:/Users/stapi/OneDrive/Desktop/GD32VW553/GD32VW55X_Wifi_BLE_SDK/GD32VW55x_RELEASE_V1.0.2/MSDK/plf/GD32VW55x_standard_peripheral/Source\gd32vw55x_rtc.c ****     /* disable the write protection */
 836:C:/Users/stapi/OneDrive/Desktop/GD32VW553/GD32VW55X_Wifi_BLE_SDK/GD32VW55x_RELEASE_V1.0.2/MSDK/plf/GD32VW55x_standard_peripheral/Source\gd32vw55x_rtc.c ****     RTC_WPK = RTC_UNLOCK_KEY1;
 1626              		.loc 1 836 5
 1627              		.loc 1 836 13 is_stmt 0
 1628 000e 1307A00C 		li	a4,202
 1629 0012 B7370040 		li	a5,1073754112
 1630 0016 23A2E782 		sw	a4,-2012(a5)
 837:C:/Users/stapi/OneDrive/Desktop/GD32VW553/GD32VW55X_Wifi_BLE_SDK/GD32VW55x_RELEASE_V1.0.2/MSDK/plf/GD32VW55x_standard_peripheral/Source\gd32vw55x_rtc.c ****     RTC_WPK = RTC_UNLOCK_KEY2;
 1631              		.loc 1 837 5 is_stmt 1
 1632              		.loc 1 837 13 is_stmt 0
 1633 001a 13073005 		li	a4,83
 830:C:/Users/stapi/OneDrive/Desktop/GD32VW553/GD32VW55X_Wifi_BLE_SDK/GD32VW55x_RELEASE_V1.0.2/MSDK/plf/GD32VW55x_standard_peripheral/Source\gd32vw55x_rtc.c ****     volatile uint32_t time_index = RTC_SHIFTCTL_TIMEOUT;
 1634              		.loc 1 830 1
 1635 001e AA86     		mv	a3,a0
 1636              		.loc 1 837 13
 1637 0020 23A2E782 		sw	a4,-2012(a5)
 838:C:/Users/stapi/OneDrive/Desktop/GD32VW553/GD32VW55X_Wifi_BLE_SDK/GD32VW55x_RELEASE_V1.0.2/MSDK/plf/GD32VW55x_standard_peripheral/Source\gd32vw55x_rtc.c **** 
 839:C:/Users/stapi/OneDrive/Desktop/GD32VW553/GD32VW55X_Wifi_BLE_SDK/GD32VW55x_RELEASE_V1.0.2/MSDK/plf/GD32VW55x_standard_peripheral/Source\gd32vw55x_rtc.c ****     /* check if a shift operation is ongoing */
 840:C:/Users/stapi/OneDrive/Desktop/GD32VW553/GD32VW55X_Wifi_BLE_SDK/GD32VW55x_RELEASE_V1.0.2/MSDK/plf/GD32VW55x_standard_peripheral/Source\gd32vw55x_rtc.c ****     do {
 841:C:/Users/stapi/OneDrive/Desktop/GD32VW553/GD32VW55X_Wifi_BLE_SDK/GD32VW55x_RELEASE_V1.0.2/MSDK/plf/GD32VW55x_standard_peripheral/Source\gd32vw55x_rtc.c ****         flag_status = RTC_STAT & RTC_STAT_SOPF;
 1638              		.loc 1 841 23
 1639 0024 37360040 		li	a2,1073754112
 1640              	.LVL87:
 1641              	.L103:
 840:C:/Users/stapi/OneDrive/Desktop/GD32VW553/GD32VW55X_Wifi_BLE_SDK/GD32VW55x_RELEASE_V1.0.2/MSDK/plf/GD32VW55x_standard_peripheral/Source\gd32vw55x_rtc.c ****         flag_status = RTC_STAT & RTC_STAT_SOPF;
 1642              		.loc 1 840 5 is_stmt 1 discriminator 2
 1643              		.loc 1 841 9 discriminator 2
 1644              		.loc 1 841 23 is_stmt 0 discriminator 2
 1645 0028 8327C680 		lw	a5,-2036(a2)
 1646              		.loc 1 841 21 discriminator 2
 1647 002c 13F78700 		andi	a4,a5,8
 1648              	.LVL88:
 842:C:/Users/stapi/OneDrive/Desktop/GD32VW553/GD32VW55X_Wifi_BLE_SDK/GD32VW55x_RELEASE_V1.0.2/MSDK/plf/GD32VW55x_standard_peripheral/Source\gd32vw55x_rtc.c ****     } while((--time_index > 0U) && ((uint32_t)RESET != flag_status));
 1649              		.loc 1 842 12 is_stmt 1 discriminator 2
 1650              		.loc 1 842 14 is_stmt 0 discriminator 2
 1651 0030 B247     		lw	a5,12(sp)
 1652 0032 FD17     		addi	a5,a5,-1
 1653              		.loc 1 842 5 discriminator 2
 1654 0034 3EC6     		sw	a5,12(sp)
 1655 0036 91C3     		beq	a5,zero,.L102
 1656              		.loc 1 842 33 discriminator 1
 1657 0038 65FB     		bne	a4,zero,.L103
 1658              	.L102:
 843:C:/Users/stapi/OneDrive/Desktop/GD32VW553/GD32VW55X_Wifi_BLE_SDK/GD32VW55x_RELEASE_V1.0.2/MSDK/plf/GD32VW55x_standard_peripheral/Source\gd32vw55x_rtc.c **** 
 844:C:/Users/stapi/OneDrive/Desktop/GD32VW553/GD32VW55X_Wifi_BLE_SDK/GD32VW55x_RELEASE_V1.0.2/MSDK/plf/GD32VW55x_standard_peripheral/Source\gd32vw55x_rtc.c ****     /* check if the function of reference clock detection is disabled */
 845:C:/Users/stapi/OneDrive/Desktop/GD32VW553/GD32VW55X_Wifi_BLE_SDK/GD32VW55x_RELEASE_V1.0.2/MSDK/plf/GD32VW55x_standard_peripheral/Source\gd32vw55x_rtc.c ****     temp = RTC_CTL & RTC_CTL_REFEN;
 1659              		.loc 1 845 5 is_stmt 1
 1660              		.loc 1 845 12 is_stmt 0
 1661 003a 37360040 		li	a2,1073754112
 1662 003e 83278680 		lw	a5,-2040(a2)
 1663              	.LVL89:
 846:C:/Users/stapi/OneDrive/Desktop/GD32VW553/GD32VW55X_Wifi_BLE_SDK/GD32VW55x_RELEASE_V1.0.2/MSDK/plf/GD32VW55x_standard_peripheral/Source\gd32vw55x_rtc.c ****     if((RESET == flag_status) && (RESET == temp)) {
 1664              		.loc 1 846 5 is_stmt 1
 832:C:/Users/stapi/OneDrive/Desktop/GD32VW553/GD32VW55X_Wifi_BLE_SDK/GD32VW55x_RELEASE_V1.0.2/MSDK/plf/GD32VW55x_standard_peripheral/Source\gd32vw55x_rtc.c ****     uint32_t flag_status = RESET;
 1665              		.loc 1 832 15 is_stmt 0
 1666 0042 0145     		li	a0,0
 1667              	.LVL90:
 845:C:/Users/stapi/OneDrive/Desktop/GD32VW553/GD32VW55X_Wifi_BLE_SDK/GD32VW55x_RELEASE_V1.0.2/MSDK/plf/GD32VW55x_standard_peripheral/Source\gd32vw55x_rtc.c ****     if((RESET == flag_status) && (RESET == temp)) {
 1668              		.loc 1 845 10
 1669 0044 C18B     		andi	a5,a5,16
 1670              	.LVL91:
 1671              		.loc 1 846 31
 1672 0046 D98F     		or	a5,a5,a4
 1673              	.LVL92:
 1674 0048 91EB     		bne	a5,zero,.L104
 847:C:/Users/stapi/OneDrive/Desktop/GD32VW553/GD32VW55X_Wifi_BLE_SDK/GD32VW55x_RELEASE_V1.0.2/MSDK/plf/GD32VW55x_standard_peripheral/Source\gd32vw55x_rtc.c ****         RTC_SHIFTCTL = (uint32_t)(add | SHIFTCTL_SFS(minus));
 1675              		.loc 1 847 9 is_stmt 1
 1676              		.loc 1 847 41 is_stmt 0
 1677 004a C605     		slli	a1,a1,17
 1678              	.LVL93:
 1679 004c C581     		srli	a1,a1,17
 1680              		.loc 1 847 24
 1681 004e D58D     		or	a1,a1,a3
 1682              		.loc 1 847 22
 1683 0050 2326B682 		sw	a1,-2004(a2)
 848:C:/Users/stapi/OneDrive/Desktop/GD32VW553/GD32VW55X_Wifi_BLE_SDK/GD32VW55x_RELEASE_V1.0.2/MSDK/plf/GD32VW55x_standard_peripheral/Source\gd32vw55x_rtc.c ****         error_status = rtc_register_sync_wait();
 1684              		.loc 1 848 9 is_stmt 1
 1685              		.loc 1 848 24 is_stmt 0
 1686 0054 97000000 		call	rtc_register_sync_wait
 1686      E7800000 
 1687              	.LVL94:
 1688              	.L104:
 849:C:/Users/stapi/OneDrive/Desktop/GD32VW553/GD32VW55X_Wifi_BLE_SDK/GD32VW55x_RELEASE_V1.0.2/MSDK/plf/GD32VW55x_standard_peripheral/Source\gd32vw55x_rtc.c ****     }
 850:C:/Users/stapi/OneDrive/Desktop/GD32VW553/GD32VW55X_Wifi_BLE_SDK/GD32VW55x_RELEASE_V1.0.2/MSDK/plf/GD32VW55x_standard_peripheral/Source\gd32vw55x_rtc.c ****     /* enable the write protection */
 851:C:/Users/stapi/OneDrive/Desktop/GD32VW553/GD32VW55X_Wifi_BLE_SDK/GD32VW55x_RELEASE_V1.0.2/MSDK/plf/GD32VW55x_standard_peripheral/Source\gd32vw55x_rtc.c ****     RTC_WPK = RTC_LOCK_KEY;
 1689              		.loc 1 851 5 is_stmt 1
 1690              		.loc 1 851 13 is_stmt 0
 1691 005c B7370040 		li	a5,1073754112
 1692 0060 1307F00F 		li	a4,255
 1693 0064 23A2E782 		sw	a4,-2012(a5)
 852:C:/Users/stapi/OneDrive/Desktop/GD32VW553/GD32VW55X_Wifi_BLE_SDK/GD32VW55x_RELEASE_V1.0.2/MSDK/plf/GD32VW55x_standard_peripheral/Source\gd32vw55x_rtc.c ****     return error_status;
 1694              		.loc 1 852 5 is_stmt 1
 853:C:/Users/stapi/OneDrive/Desktop/GD32VW553/GD32VW55X_Wifi_BLE_SDK/GD32VW55x_RELEASE_V1.0.2/MSDK/plf/GD32VW55x_standard_peripheral/Source\gd32vw55x_rtc.c **** }
 1695              		.loc 1 853 1 is_stmt 0
 1696 0068 4101     		addi	sp,sp,16
 1697              		.cfi_def_cfa_offset 0
 1698 006a 17030000 		tail	__riscv_restore_0
 1698      67000300 
 1699              		.cfi_restore 1
 1700              		.cfi_def_cfa_offset -16
 1701              		.cfi_endproc
 1702              	.LFE390:
 1704              		.section	.text.rtc_bypass_shadow_enable,"ax",@progbits
 1705              		.align	1
 1706              		.globl	rtc_bypass_shadow_enable
 1708              	rtc_bypass_shadow_enable:
 1709              	.LFB391:
 854:C:/Users/stapi/OneDrive/Desktop/GD32VW553/GD32VW55X_Wifi_BLE_SDK/GD32VW55x_RELEASE_V1.0.2/MSDK/plf/GD32VW55x_standard_peripheral/Source\gd32vw55x_rtc.c **** 
 855:C:/Users/stapi/OneDrive/Desktop/GD32VW553/GD32VW55X_Wifi_BLE_SDK/GD32VW55x_RELEASE_V1.0.2/MSDK/plf/GD32VW55x_standard_peripheral/Source\gd32vw55x_rtc.c **** /*!
 856:C:/Users/stapi/OneDrive/Desktop/GD32VW553/GD32VW55X_Wifi_BLE_SDK/GD32VW55x_RELEASE_V1.0.2/MSDK/plf/GD32VW55x_standard_peripheral/Source\gd32vw55x_rtc.c ****     \brief      enable RTC bypass shadow registers function
 857:C:/Users/stapi/OneDrive/Desktop/GD32VW553/GD32VW55X_Wifi_BLE_SDK/GD32VW55x_RELEASE_V1.0.2/MSDK/plf/GD32VW55x_standard_peripheral/Source\gd32vw55x_rtc.c ****     \param[in]  none
 858:C:/Users/stapi/OneDrive/Desktop/GD32VW553/GD32VW55X_Wifi_BLE_SDK/GD32VW55x_RELEASE_V1.0.2/MSDK/plf/GD32VW55x_standard_peripheral/Source\gd32vw55x_rtc.c ****     \param[out] none
 859:C:/Users/stapi/OneDrive/Desktop/GD32VW553/GD32VW55X_Wifi_BLE_SDK/GD32VW55x_RELEASE_V1.0.2/MSDK/plf/GD32VW55x_standard_peripheral/Source\gd32vw55x_rtc.c ****     \retval     none
 860:C:/Users/stapi/OneDrive/Desktop/GD32VW553/GD32VW55X_Wifi_BLE_SDK/GD32VW55x_RELEASE_V1.0.2/MSDK/plf/GD32VW55x_standard_peripheral/Source\gd32vw55x_rtc.c **** */
 861:C:/Users/stapi/OneDrive/Desktop/GD32VW553/GD32VW55X_Wifi_BLE_SDK/GD32VW55x_RELEASE_V1.0.2/MSDK/plf/GD32VW55x_standard_peripheral/Source\gd32vw55x_rtc.c **** void rtc_bypass_shadow_enable(void)
 862:C:/Users/stapi/OneDrive/Desktop/GD32VW553/GD32VW55X_Wifi_BLE_SDK/GD32VW55x_RELEASE_V1.0.2/MSDK/plf/GD32VW55x_standard_peripheral/Source\gd32vw55x_rtc.c **** {
 1710              		.loc 1 862 1 is_stmt 1
 1711              		.cfi_startproc
 863:C:/Users/stapi/OneDrive/Desktop/GD32VW553/GD32VW55X_Wifi_BLE_SDK/GD32VW55x_RELEASE_V1.0.2/MSDK/plf/GD32VW55x_standard_peripheral/Source\gd32vw55x_rtc.c ****     /* disable the write protection */
 864:C:/Users/stapi/OneDrive/Desktop/GD32VW553/GD32VW55X_Wifi_BLE_SDK/GD32VW55x_RELEASE_V1.0.2/MSDK/plf/GD32VW55x_standard_peripheral/Source\gd32vw55x_rtc.c ****     RTC_WPK = RTC_UNLOCK_KEY1;
 1712              		.loc 1 864 5
 1713              		.loc 1 864 13 is_stmt 0
 1714 0000 B7370040 		li	a5,1073754112
 1715 0004 93870780 		addi	a5,a5,-2048
 1716 0008 1307A00C 		li	a4,202
 1717 000c D8D3     		sw	a4,36(a5)
 865:C:/Users/stapi/OneDrive/Desktop/GD32VW553/GD32VW55X_Wifi_BLE_SDK/GD32VW55x_RELEASE_V1.0.2/MSDK/plf/GD32VW55x_standard_peripheral/Source\gd32vw55x_rtc.c ****     RTC_WPK = RTC_UNLOCK_KEY2;
 1718              		.loc 1 865 5 is_stmt 1
 1719              		.loc 1 865 13 is_stmt 0
 1720 000e 13073005 		li	a4,83
 1721 0012 D8D3     		sw	a4,36(a5)
 866:C:/Users/stapi/OneDrive/Desktop/GD32VW553/GD32VW55X_Wifi_BLE_SDK/GD32VW55x_RELEASE_V1.0.2/MSDK/plf/GD32VW55x_standard_peripheral/Source\gd32vw55x_rtc.c **** 
 867:C:/Users/stapi/OneDrive/Desktop/GD32VW553/GD32VW55X_Wifi_BLE_SDK/GD32VW55x_RELEASE_V1.0.2/MSDK/plf/GD32VW55x_standard_peripheral/Source\gd32vw55x_rtc.c ****     RTC_CTL |= RTC_CTL_BPSHAD;
 1722              		.loc 1 867 5 is_stmt 1
 1723              		.loc 1 867 13 is_stmt 0
 1724 0014 9847     		lw	a4,8(a5)
 1725 0016 13670702 		ori	a4,a4,32
 1726 001a 98C7     		sw	a4,8(a5)
 868:C:/Users/stapi/OneDrive/Desktop/GD32VW553/GD32VW55X_Wifi_BLE_SDK/GD32VW55x_RELEASE_V1.0.2/MSDK/plf/GD32VW55x_standard_peripheral/Source\gd32vw55x_rtc.c **** 
 869:C:/Users/stapi/OneDrive/Desktop/GD32VW553/GD32VW55X_Wifi_BLE_SDK/GD32VW55x_RELEASE_V1.0.2/MSDK/plf/GD32VW55x_standard_peripheral/Source\gd32vw55x_rtc.c ****     /* enable the write protection */
 870:C:/Users/stapi/OneDrive/Desktop/GD32VW553/GD32VW55X_Wifi_BLE_SDK/GD32VW55x_RELEASE_V1.0.2/MSDK/plf/GD32VW55x_standard_peripheral/Source\gd32vw55x_rtc.c ****     RTC_WPK = RTC_LOCK_KEY;
 1727              		.loc 1 870 5 is_stmt 1
 1728              		.loc 1 870 13 is_stmt 0
 1729 001c 1307F00F 		li	a4,255
 1730 0020 D8D3     		sw	a4,36(a5)
 871:C:/Users/stapi/OneDrive/Desktop/GD32VW553/GD32VW55X_Wifi_BLE_SDK/GD32VW55x_RELEASE_V1.0.2/MSDK/plf/GD32VW55x_standard_peripheral/Source\gd32vw55x_rtc.c **** }
 1731              		.loc 1 871 1
 1732 0022 8280     		ret
 1733              		.cfi_endproc
 1734              	.LFE391:
 1736              		.section	.text.rtc_bypass_shadow_disable,"ax",@progbits
 1737              		.align	1
 1738              		.globl	rtc_bypass_shadow_disable
 1740              	rtc_bypass_shadow_disable:
 1741              	.LFB392:
 872:C:/Users/stapi/OneDrive/Desktop/GD32VW553/GD32VW55X_Wifi_BLE_SDK/GD32VW55x_RELEASE_V1.0.2/MSDK/plf/GD32VW55x_standard_peripheral/Source\gd32vw55x_rtc.c **** 
 873:C:/Users/stapi/OneDrive/Desktop/GD32VW553/GD32VW55X_Wifi_BLE_SDK/GD32VW55x_RELEASE_V1.0.2/MSDK/plf/GD32VW55x_standard_peripheral/Source\gd32vw55x_rtc.c **** /*!
 874:C:/Users/stapi/OneDrive/Desktop/GD32VW553/GD32VW55X_Wifi_BLE_SDK/GD32VW55x_RELEASE_V1.0.2/MSDK/plf/GD32VW55x_standard_peripheral/Source\gd32vw55x_rtc.c ****     \brief      disable RTC bypass shadow registers function
 875:C:/Users/stapi/OneDrive/Desktop/GD32VW553/GD32VW55X_Wifi_BLE_SDK/GD32VW55x_RELEASE_V1.0.2/MSDK/plf/GD32VW55x_standard_peripheral/Source\gd32vw55x_rtc.c ****     \param[in]  none
 876:C:/Users/stapi/OneDrive/Desktop/GD32VW553/GD32VW55X_Wifi_BLE_SDK/GD32VW55x_RELEASE_V1.0.2/MSDK/plf/GD32VW55x_standard_peripheral/Source\gd32vw55x_rtc.c ****     \param[out] none
 877:C:/Users/stapi/OneDrive/Desktop/GD32VW553/GD32VW55X_Wifi_BLE_SDK/GD32VW55x_RELEASE_V1.0.2/MSDK/plf/GD32VW55x_standard_peripheral/Source\gd32vw55x_rtc.c ****     \retval     none
 878:C:/Users/stapi/OneDrive/Desktop/GD32VW553/GD32VW55X_Wifi_BLE_SDK/GD32VW55x_RELEASE_V1.0.2/MSDK/plf/GD32VW55x_standard_peripheral/Source\gd32vw55x_rtc.c **** */
 879:C:/Users/stapi/OneDrive/Desktop/GD32VW553/GD32VW55X_Wifi_BLE_SDK/GD32VW55x_RELEASE_V1.0.2/MSDK/plf/GD32VW55x_standard_peripheral/Source\gd32vw55x_rtc.c **** void rtc_bypass_shadow_disable(void)
 880:C:/Users/stapi/OneDrive/Desktop/GD32VW553/GD32VW55X_Wifi_BLE_SDK/GD32VW55x_RELEASE_V1.0.2/MSDK/plf/GD32VW55x_standard_peripheral/Source\gd32vw55x_rtc.c **** {
 1742              		.loc 1 880 1 is_stmt 1
 1743              		.cfi_startproc
 881:C:/Users/stapi/OneDrive/Desktop/GD32VW553/GD32VW55X_Wifi_BLE_SDK/GD32VW55x_RELEASE_V1.0.2/MSDK/plf/GD32VW55x_standard_peripheral/Source\gd32vw55x_rtc.c ****     /* disable the write protection */
 882:C:/Users/stapi/OneDrive/Desktop/GD32VW553/GD32VW55X_Wifi_BLE_SDK/GD32VW55x_RELEASE_V1.0.2/MSDK/plf/GD32VW55x_standard_peripheral/Source\gd32vw55x_rtc.c ****     RTC_WPK = RTC_UNLOCK_KEY1;
 1744              		.loc 1 882 5
 1745              		.loc 1 882 13 is_stmt 0
 1746 0000 B7370040 		li	a5,1073754112
 1747 0004 93870780 		addi	a5,a5,-2048
 1748 0008 1307A00C 		li	a4,202
 1749 000c D8D3     		sw	a4,36(a5)
 883:C:/Users/stapi/OneDrive/Desktop/GD32VW553/GD32VW55X_Wifi_BLE_SDK/GD32VW55x_RELEASE_V1.0.2/MSDK/plf/GD32VW55x_standard_peripheral/Source\gd32vw55x_rtc.c ****     RTC_WPK = RTC_UNLOCK_KEY2;
 1750              		.loc 1 883 5 is_stmt 1
 1751              		.loc 1 883 13 is_stmt 0
 1752 000e 13073005 		li	a4,83
 1753 0012 D8D3     		sw	a4,36(a5)
 884:C:/Users/stapi/OneDrive/Desktop/GD32VW553/GD32VW55X_Wifi_BLE_SDK/GD32VW55x_RELEASE_V1.0.2/MSDK/plf/GD32VW55x_standard_peripheral/Source\gd32vw55x_rtc.c **** 
 885:C:/Users/stapi/OneDrive/Desktop/GD32VW553/GD32VW55X_Wifi_BLE_SDK/GD32VW55x_RELEASE_V1.0.2/MSDK/plf/GD32VW55x_standard_peripheral/Source\gd32vw55x_rtc.c ****     RTC_CTL &= ~RTC_CTL_BPSHAD;
 1754              		.loc 1 885 5 is_stmt 1
 1755              		.loc 1 885 13 is_stmt 0
 1756 0014 9847     		lw	a4,8(a5)
 1757 0016 1377F7FD 		andi	a4,a4,-33
 1758 001a 98C7     		sw	a4,8(a5)
 886:C:/Users/stapi/OneDrive/Desktop/GD32VW553/GD32VW55X_Wifi_BLE_SDK/GD32VW55x_RELEASE_V1.0.2/MSDK/plf/GD32VW55x_standard_peripheral/Source\gd32vw55x_rtc.c **** 
 887:C:/Users/stapi/OneDrive/Desktop/GD32VW553/GD32VW55X_Wifi_BLE_SDK/GD32VW55x_RELEASE_V1.0.2/MSDK/plf/GD32VW55x_standard_peripheral/Source\gd32vw55x_rtc.c ****     /* enable the write protection */
 888:C:/Users/stapi/OneDrive/Desktop/GD32VW553/GD32VW55X_Wifi_BLE_SDK/GD32VW55x_RELEASE_V1.0.2/MSDK/plf/GD32VW55x_standard_peripheral/Source\gd32vw55x_rtc.c ****     RTC_WPK = RTC_LOCK_KEY;
 1759              		.loc 1 888 5 is_stmt 1
 1760              		.loc 1 888 13 is_stmt 0
 1761 001c 1307F00F 		li	a4,255
 1762 0020 D8D3     		sw	a4,36(a5)
 889:C:/Users/stapi/OneDrive/Desktop/GD32VW553/GD32VW55X_Wifi_BLE_SDK/GD32VW55x_RELEASE_V1.0.2/MSDK/plf/GD32VW55x_standard_peripheral/Source\gd32vw55x_rtc.c **** }
 1763              		.loc 1 889 1
 1764 0022 8280     		ret
 1765              		.cfi_endproc
 1766              	.LFE392:
 1768              		.section	.text.rtc_refclock_detection_enable,"ax",@progbits
 1769              		.align	1
 1770              		.globl	rtc_refclock_detection_enable
 1772              	rtc_refclock_detection_enable:
 1773              	.LFB393:
 890:C:/Users/stapi/OneDrive/Desktop/GD32VW553/GD32VW55X_Wifi_BLE_SDK/GD32VW55x_RELEASE_V1.0.2/MSDK/plf/GD32VW55x_standard_peripheral/Source\gd32vw55x_rtc.c **** 
 891:C:/Users/stapi/OneDrive/Desktop/GD32VW553/GD32VW55X_Wifi_BLE_SDK/GD32VW55x_RELEASE_V1.0.2/MSDK/plf/GD32VW55x_standard_peripheral/Source\gd32vw55x_rtc.c **** /*!
 892:C:/Users/stapi/OneDrive/Desktop/GD32VW553/GD32VW55X_Wifi_BLE_SDK/GD32VW55x_RELEASE_V1.0.2/MSDK/plf/GD32VW55x_standard_peripheral/Source\gd32vw55x_rtc.c ****     \brief      enable RTC reference clock detection function
 893:C:/Users/stapi/OneDrive/Desktop/GD32VW553/GD32VW55X_Wifi_BLE_SDK/GD32VW55x_RELEASE_V1.0.2/MSDK/plf/GD32VW55x_standard_peripheral/Source\gd32vw55x_rtc.c ****     \param[in]  none
 894:C:/Users/stapi/OneDrive/Desktop/GD32VW553/GD32VW55X_Wifi_BLE_SDK/GD32VW55x_RELEASE_V1.0.2/MSDK/plf/GD32VW55x_standard_peripheral/Source\gd32vw55x_rtc.c ****     \param[out] none
 895:C:/Users/stapi/OneDrive/Desktop/GD32VW553/GD32VW55X_Wifi_BLE_SDK/GD32VW55x_RELEASE_V1.0.2/MSDK/plf/GD32VW55x_standard_peripheral/Source\gd32vw55x_rtc.c ****     \retval     ErrStatus: ERROR or SUCCESS
 896:C:/Users/stapi/OneDrive/Desktop/GD32VW553/GD32VW55X_Wifi_BLE_SDK/GD32VW55x_RELEASE_V1.0.2/MSDK/plf/GD32VW55x_standard_peripheral/Source\gd32vw55x_rtc.c **** */
 897:C:/Users/stapi/OneDrive/Desktop/GD32VW553/GD32VW55X_Wifi_BLE_SDK/GD32VW55x_RELEASE_V1.0.2/MSDK/plf/GD32VW55x_standard_peripheral/Source\gd32vw55x_rtc.c **** ErrStatus rtc_refclock_detection_enable(void)
 898:C:/Users/stapi/OneDrive/Desktop/GD32VW553/GD32VW55X_Wifi_BLE_SDK/GD32VW55x_RELEASE_V1.0.2/MSDK/plf/GD32VW55x_standard_peripheral/Source\gd32vw55x_rtc.c **** {
 1774              		.loc 1 898 1 is_stmt 1
 1775              		.cfi_startproc
 1776 0000 17030000 		call	t0,__riscv_save_1
 1776      E7020300 
 1777              		.cfi_offset 8, -8
 1778              		.cfi_offset 1, -4
 1779              		.cfi_def_cfa_offset 16
 899:C:/Users/stapi/OneDrive/Desktop/GD32VW553/GD32VW55X_Wifi_BLE_SDK/GD32VW55x_RELEASE_V1.0.2/MSDK/plf/GD32VW55x_standard_peripheral/Source\gd32vw55x_rtc.c ****     ErrStatus error_status = ERROR;
 1780              		.loc 1 899 5
 1781              	.LVL95:
 900:C:/Users/stapi/OneDrive/Desktop/GD32VW553/GD32VW55X_Wifi_BLE_SDK/GD32VW55x_RELEASE_V1.0.2/MSDK/plf/GD32VW55x_standard_peripheral/Source\gd32vw55x_rtc.c **** 
 901:C:/Users/stapi/OneDrive/Desktop/GD32VW553/GD32VW55X_Wifi_BLE_SDK/GD32VW55x_RELEASE_V1.0.2/MSDK/plf/GD32VW55x_standard_peripheral/Source\gd32vw55x_rtc.c ****     /* disable the write protection */
 902:C:/Users/stapi/OneDrive/Desktop/GD32VW553/GD32VW55X_Wifi_BLE_SDK/GD32VW55x_RELEASE_V1.0.2/MSDK/plf/GD32VW55x_standard_peripheral/Source\gd32vw55x_rtc.c ****     RTC_WPK = RTC_UNLOCK_KEY1;
 1782              		.loc 1 902 5
 1783              		.loc 1 902 13 is_stmt 0
 1784 0008 37340040 		li	s0,1073754112
 1785 000c 9307A00C 		li	a5,202
 1786 0010 2322F482 		sw	a5,-2012(s0)
 903:C:/Users/stapi/OneDrive/Desktop/GD32VW553/GD32VW55X_Wifi_BLE_SDK/GD32VW55x_RELEASE_V1.0.2/MSDK/plf/GD32VW55x_standard_peripheral/Source\gd32vw55x_rtc.c ****     RTC_WPK = RTC_UNLOCK_KEY2;
 1787              		.loc 1 903 5 is_stmt 1
 1788              		.loc 1 903 13 is_stmt 0
 1789 0014 93073005 		li	a5,83
 898:C:/Users/stapi/OneDrive/Desktop/GD32VW553/GD32VW55X_Wifi_BLE_SDK/GD32VW55x_RELEASE_V1.0.2/MSDK/plf/GD32VW55x_standard_peripheral/Source\gd32vw55x_rtc.c ****     ErrStatus error_status = ERROR;
 1790              		.loc 1 898 1
 1791 0018 4111     		addi	sp,sp,-16
 1792              		.cfi_def_cfa_offset 32
 1793              		.loc 1 903 13
 1794 001a 2322F482 		sw	a5,-2012(s0)
 904:C:/Users/stapi/OneDrive/Desktop/GD32VW553/GD32VW55X_Wifi_BLE_SDK/GD32VW55x_RELEASE_V1.0.2/MSDK/plf/GD32VW55x_standard_peripheral/Source\gd32vw55x_rtc.c **** 
 905:C:/Users/stapi/OneDrive/Desktop/GD32VW553/GD32VW55X_Wifi_BLE_SDK/GD32VW55x_RELEASE_V1.0.2/MSDK/plf/GD32VW55x_standard_peripheral/Source\gd32vw55x_rtc.c ****     /* enter init mode */
 906:C:/Users/stapi/OneDrive/Desktop/GD32VW553/GD32VW55X_Wifi_BLE_SDK/GD32VW55x_RELEASE_V1.0.2/MSDK/plf/GD32VW55x_standard_peripheral/Source\gd32vw55x_rtc.c ****     error_status = rtc_init_mode_enter();
 1795              		.loc 1 906 5 is_stmt 1
 1796              		.loc 1 906 20 is_stmt 0
 1797 001e 97000000 		call	rtc_init_mode_enter
 1797      E7800000 
 1798              	.LVL96:
 907:C:/Users/stapi/OneDrive/Desktop/GD32VW553/GD32VW55X_Wifi_BLE_SDK/GD32VW55x_RELEASE_V1.0.2/MSDK/plf/GD32VW55x_standard_peripheral/Source\gd32vw55x_rtc.c **** 
 908:C:/Users/stapi/OneDrive/Desktop/GD32VW553/GD32VW55X_Wifi_BLE_SDK/GD32VW55x_RELEASE_V1.0.2/MSDK/plf/GD32VW55x_standard_peripheral/Source\gd32vw55x_rtc.c ****     if(ERROR != error_status) {
 1799              		.loc 1 908 5 is_stmt 1
 1800              		.loc 1 908 7 is_stmt 0
 1801 0026 09CD     		beq	a0,zero,.L114
 909:C:/Users/stapi/OneDrive/Desktop/GD32VW553/GD32VW55X_Wifi_BLE_SDK/GD32VW55x_RELEASE_V1.0.2/MSDK/plf/GD32VW55x_standard_peripheral/Source\gd32vw55x_rtc.c ****         RTC_CTL |= (uint32_t)RTC_CTL_REFEN;
 1802              		.loc 1 909 17
 1803 0028 83278480 		lw	a5,-2040(s0)
 1804 002c 2AC6     		sw	a0,12(sp)
 1805              		.loc 1 909 9 is_stmt 1
 1806              		.loc 1 909 17 is_stmt 0
 1807 002e 93E70701 		ori	a5,a5,16
 1808 0032 2324F480 		sw	a5,-2040(s0)
 910:C:/Users/stapi/OneDrive/Desktop/GD32VW553/GD32VW55X_Wifi_BLE_SDK/GD32VW55x_RELEASE_V1.0.2/MSDK/plf/GD32VW55x_standard_peripheral/Source\gd32vw55x_rtc.c ****         /* exit init mode */
 911:C:/Users/stapi/OneDrive/Desktop/GD32VW553/GD32VW55X_Wifi_BLE_SDK/GD32VW55x_RELEASE_V1.0.2/MSDK/plf/GD32VW55x_standard_peripheral/Source\gd32vw55x_rtc.c ****         rtc_init_mode_exit();
 1809              		.loc 1 911 9 is_stmt 1
 1810 0036 97000000 		call	rtc_init_mode_exit
 1810      E7800000 
 1811              	.LVL97:
 1812 003e 3245     		lw	a0,12(sp)
 1813              	.LVL98:
 1814              	.L114:
 912:C:/Users/stapi/OneDrive/Desktop/GD32VW553/GD32VW55X_Wifi_BLE_SDK/GD32VW55x_RELEASE_V1.0.2/MSDK/plf/GD32VW55x_standard_peripheral/Source\gd32vw55x_rtc.c ****     }
 913:C:/Users/stapi/OneDrive/Desktop/GD32VW553/GD32VW55X_Wifi_BLE_SDK/GD32VW55x_RELEASE_V1.0.2/MSDK/plf/GD32VW55x_standard_peripheral/Source\gd32vw55x_rtc.c ****     /* enable the write protection */
 914:C:/Users/stapi/OneDrive/Desktop/GD32VW553/GD32VW55X_Wifi_BLE_SDK/GD32VW55x_RELEASE_V1.0.2/MSDK/plf/GD32VW55x_standard_peripheral/Source\gd32vw55x_rtc.c ****     RTC_WPK = RTC_LOCK_KEY;
 1815              		.loc 1 914 5
 1816              		.loc 1 914 13 is_stmt 0
 1817 0040 B7370040 		li	a5,1073754112
 1818 0044 1307F00F 		li	a4,255
 1819 0048 23A2E782 		sw	a4,-2012(a5)
 915:C:/Users/stapi/OneDrive/Desktop/GD32VW553/GD32VW55X_Wifi_BLE_SDK/GD32VW55x_RELEASE_V1.0.2/MSDK/plf/GD32VW55x_standard_peripheral/Source\gd32vw55x_rtc.c ****     return error_status;
 1820              		.loc 1 915 5 is_stmt 1
 916:C:/Users/stapi/OneDrive/Desktop/GD32VW553/GD32VW55X_Wifi_BLE_SDK/GD32VW55x_RELEASE_V1.0.2/MSDK/plf/GD32VW55x_standard_peripheral/Source\gd32vw55x_rtc.c **** }
 1821              		.loc 1 916 1 is_stmt 0
 1822 004c 4101     		addi	sp,sp,16
 1823              		.cfi_def_cfa_offset 0
 1824 004e 17030000 		tail	__riscv_restore_1
 1824      67000300 
 1825              		.cfi_restore 8
 1826              		.cfi_restore 1
 1827              		.cfi_def_cfa_offset -16
 1828              		.cfi_endproc
 1829              	.LFE393:
 1831              		.section	.text.rtc_refclock_detection_disable,"ax",@progbits
 1832              		.align	1
 1833              		.globl	rtc_refclock_detection_disable
 1835              	rtc_refclock_detection_disable:
 1836              	.LFB394:
 917:C:/Users/stapi/OneDrive/Desktop/GD32VW553/GD32VW55X_Wifi_BLE_SDK/GD32VW55x_RELEASE_V1.0.2/MSDK/plf/GD32VW55x_standard_peripheral/Source\gd32vw55x_rtc.c **** 
 918:C:/Users/stapi/OneDrive/Desktop/GD32VW553/GD32VW55X_Wifi_BLE_SDK/GD32VW55x_RELEASE_V1.0.2/MSDK/plf/GD32VW55x_standard_peripheral/Source\gd32vw55x_rtc.c **** /*!
 919:C:/Users/stapi/OneDrive/Desktop/GD32VW553/GD32VW55X_Wifi_BLE_SDK/GD32VW55x_RELEASE_V1.0.2/MSDK/plf/GD32VW55x_standard_peripheral/Source\gd32vw55x_rtc.c ****     \brief      disable RTC reference clock detection function
 920:C:/Users/stapi/OneDrive/Desktop/GD32VW553/GD32VW55X_Wifi_BLE_SDK/GD32VW55x_RELEASE_V1.0.2/MSDK/plf/GD32VW55x_standard_peripheral/Source\gd32vw55x_rtc.c ****     \param[in]  none
 921:C:/Users/stapi/OneDrive/Desktop/GD32VW553/GD32VW55X_Wifi_BLE_SDK/GD32VW55x_RELEASE_V1.0.2/MSDK/plf/GD32VW55x_standard_peripheral/Source\gd32vw55x_rtc.c ****     \param[out] none
 922:C:/Users/stapi/OneDrive/Desktop/GD32VW553/GD32VW55X_Wifi_BLE_SDK/GD32VW55x_RELEASE_V1.0.2/MSDK/plf/GD32VW55x_standard_peripheral/Source\gd32vw55x_rtc.c ****     \retval     ErrStatus: ERROR or SUCCESS
 923:C:/Users/stapi/OneDrive/Desktop/GD32VW553/GD32VW55X_Wifi_BLE_SDK/GD32VW55x_RELEASE_V1.0.2/MSDK/plf/GD32VW55x_standard_peripheral/Source\gd32vw55x_rtc.c **** */
 924:C:/Users/stapi/OneDrive/Desktop/GD32VW553/GD32VW55X_Wifi_BLE_SDK/GD32VW55x_RELEASE_V1.0.2/MSDK/plf/GD32VW55x_standard_peripheral/Source\gd32vw55x_rtc.c **** ErrStatus rtc_refclock_detection_disable(void)
 925:C:/Users/stapi/OneDrive/Desktop/GD32VW553/GD32VW55X_Wifi_BLE_SDK/GD32VW55x_RELEASE_V1.0.2/MSDK/plf/GD32VW55x_standard_peripheral/Source\gd32vw55x_rtc.c **** {
 1837              		.loc 1 925 1 is_stmt 1
 1838              		.cfi_startproc
 1839 0000 17030000 		call	t0,__riscv_save_1
 1839      E7020300 
 1840              		.cfi_offset 8, -8
 1841              		.cfi_offset 1, -4
 1842              		.cfi_def_cfa_offset 16
 926:C:/Users/stapi/OneDrive/Desktop/GD32VW553/GD32VW55X_Wifi_BLE_SDK/GD32VW55x_RELEASE_V1.0.2/MSDK/plf/GD32VW55x_standard_peripheral/Source\gd32vw55x_rtc.c ****     ErrStatus error_status = ERROR;
 1843              		.loc 1 926 5
 1844              	.LVL99:
 927:C:/Users/stapi/OneDrive/Desktop/GD32VW553/GD32VW55X_Wifi_BLE_SDK/GD32VW55x_RELEASE_V1.0.2/MSDK/plf/GD32VW55x_standard_peripheral/Source\gd32vw55x_rtc.c **** 
 928:C:/Users/stapi/OneDrive/Desktop/GD32VW553/GD32VW55X_Wifi_BLE_SDK/GD32VW55x_RELEASE_V1.0.2/MSDK/plf/GD32VW55x_standard_peripheral/Source\gd32vw55x_rtc.c ****     /* disable the write protection */
 929:C:/Users/stapi/OneDrive/Desktop/GD32VW553/GD32VW55X_Wifi_BLE_SDK/GD32VW55x_RELEASE_V1.0.2/MSDK/plf/GD32VW55x_standard_peripheral/Source\gd32vw55x_rtc.c ****     RTC_WPK = RTC_UNLOCK_KEY1;
 1845              		.loc 1 929 5
 1846              		.loc 1 929 13 is_stmt 0
 1847 0008 37340040 		li	s0,1073754112
 1848 000c 9307A00C 		li	a5,202
 1849 0010 2322F482 		sw	a5,-2012(s0)
 930:C:/Users/stapi/OneDrive/Desktop/GD32VW553/GD32VW55X_Wifi_BLE_SDK/GD32VW55x_RELEASE_V1.0.2/MSDK/plf/GD32VW55x_standard_peripheral/Source\gd32vw55x_rtc.c ****     RTC_WPK = RTC_UNLOCK_KEY2;
 1850              		.loc 1 930 5 is_stmt 1
 1851              		.loc 1 930 13 is_stmt 0
 1852 0014 93073005 		li	a5,83
 925:C:/Users/stapi/OneDrive/Desktop/GD32VW553/GD32VW55X_Wifi_BLE_SDK/GD32VW55x_RELEASE_V1.0.2/MSDK/plf/GD32VW55x_standard_peripheral/Source\gd32vw55x_rtc.c ****     ErrStatus error_status = ERROR;
 1853              		.loc 1 925 1
 1854 0018 4111     		addi	sp,sp,-16
 1855              		.cfi_def_cfa_offset 32
 1856              		.loc 1 930 13
 1857 001a 2322F482 		sw	a5,-2012(s0)
 931:C:/Users/stapi/OneDrive/Desktop/GD32VW553/GD32VW55X_Wifi_BLE_SDK/GD32VW55x_RELEASE_V1.0.2/MSDK/plf/GD32VW55x_standard_peripheral/Source\gd32vw55x_rtc.c **** 
 932:C:/Users/stapi/OneDrive/Desktop/GD32VW553/GD32VW55X_Wifi_BLE_SDK/GD32VW55x_RELEASE_V1.0.2/MSDK/plf/GD32VW55x_standard_peripheral/Source\gd32vw55x_rtc.c ****     /* enter init mode */
 933:C:/Users/stapi/OneDrive/Desktop/GD32VW553/GD32VW55X_Wifi_BLE_SDK/GD32VW55x_RELEASE_V1.0.2/MSDK/plf/GD32VW55x_standard_peripheral/Source\gd32vw55x_rtc.c ****     error_status = rtc_init_mode_enter();
 1858              		.loc 1 933 5 is_stmt 1
 1859              		.loc 1 933 20 is_stmt 0
 1860 001e 97000000 		call	rtc_init_mode_enter
 1860      E7800000 
 1861              	.LVL100:
 934:C:/Users/stapi/OneDrive/Desktop/GD32VW553/GD32VW55X_Wifi_BLE_SDK/GD32VW55x_RELEASE_V1.0.2/MSDK/plf/GD32VW55x_standard_peripheral/Source\gd32vw55x_rtc.c **** 
 935:C:/Users/stapi/OneDrive/Desktop/GD32VW553/GD32VW55X_Wifi_BLE_SDK/GD32VW55x_RELEASE_V1.0.2/MSDK/plf/GD32VW55x_standard_peripheral/Source\gd32vw55x_rtc.c ****     if(ERROR != error_status) {
 1862              		.loc 1 935 5 is_stmt 1
 1863              		.loc 1 935 7 is_stmt 0
 1864 0026 01CD     		beq	a0,zero,.L120
 936:C:/Users/stapi/OneDrive/Desktop/GD32VW553/GD32VW55X_Wifi_BLE_SDK/GD32VW55x_RELEASE_V1.0.2/MSDK/plf/GD32VW55x_standard_peripheral/Source\gd32vw55x_rtc.c ****         RTC_CTL &= (uint32_t)~RTC_CTL_REFEN;
 1865              		.loc 1 936 17
 1866 0028 83278480 		lw	a5,-2040(s0)
 1867 002c 2AC6     		sw	a0,12(sp)
 1868              		.loc 1 936 9 is_stmt 1
 1869              		.loc 1 936 17 is_stmt 0
 1870 002e BD9B     		andi	a5,a5,-17
 1871 0030 2324F480 		sw	a5,-2040(s0)
 937:C:/Users/stapi/OneDrive/Desktop/GD32VW553/GD32VW55X_Wifi_BLE_SDK/GD32VW55x_RELEASE_V1.0.2/MSDK/plf/GD32VW55x_standard_peripheral/Source\gd32vw55x_rtc.c ****         /* exit init mode */
 938:C:/Users/stapi/OneDrive/Desktop/GD32VW553/GD32VW55X_Wifi_BLE_SDK/GD32VW55x_RELEASE_V1.0.2/MSDK/plf/GD32VW55x_standard_peripheral/Source\gd32vw55x_rtc.c ****         rtc_init_mode_exit();
 1872              		.loc 1 938 9 is_stmt 1
 1873 0034 97000000 		call	rtc_init_mode_exit
 1873      E7800000 
 1874              	.LVL101:
 1875 003c 3245     		lw	a0,12(sp)
 1876              	.LVL102:
 1877              	.L120:
 939:C:/Users/stapi/OneDrive/Desktop/GD32VW553/GD32VW55X_Wifi_BLE_SDK/GD32VW55x_RELEASE_V1.0.2/MSDK/plf/GD32VW55x_standard_peripheral/Source\gd32vw55x_rtc.c ****     }
 940:C:/Users/stapi/OneDrive/Desktop/GD32VW553/GD32VW55X_Wifi_BLE_SDK/GD32VW55x_RELEASE_V1.0.2/MSDK/plf/GD32VW55x_standard_peripheral/Source\gd32vw55x_rtc.c **** 
 941:C:/Users/stapi/OneDrive/Desktop/GD32VW553/GD32VW55X_Wifi_BLE_SDK/GD32VW55x_RELEASE_V1.0.2/MSDK/plf/GD32VW55x_standard_peripheral/Source\gd32vw55x_rtc.c ****     /* enable the write protection */
 942:C:/Users/stapi/OneDrive/Desktop/GD32VW553/GD32VW55X_Wifi_BLE_SDK/GD32VW55x_RELEASE_V1.0.2/MSDK/plf/GD32VW55x_standard_peripheral/Source\gd32vw55x_rtc.c ****     RTC_WPK = RTC_LOCK_KEY;
 1878              		.loc 1 942 5
 1879              		.loc 1 942 13 is_stmt 0
 1880 003e B7370040 		li	a5,1073754112
 1881 0042 1307F00F 		li	a4,255
 1882 0046 23A2E782 		sw	a4,-2012(a5)
 943:C:/Users/stapi/OneDrive/Desktop/GD32VW553/GD32VW55X_Wifi_BLE_SDK/GD32VW55x_RELEASE_V1.0.2/MSDK/plf/GD32VW55x_standard_peripheral/Source\gd32vw55x_rtc.c **** 
 944:C:/Users/stapi/OneDrive/Desktop/GD32VW553/GD32VW55X_Wifi_BLE_SDK/GD32VW55x_RELEASE_V1.0.2/MSDK/plf/GD32VW55x_standard_peripheral/Source\gd32vw55x_rtc.c ****     return error_status;
 1883              		.loc 1 944 5 is_stmt 1
 945:C:/Users/stapi/OneDrive/Desktop/GD32VW553/GD32VW55X_Wifi_BLE_SDK/GD32VW55x_RELEASE_V1.0.2/MSDK/plf/GD32VW55x_standard_peripheral/Source\gd32vw55x_rtc.c **** }
 1884              		.loc 1 945 1 is_stmt 0
 1885 004a 4101     		addi	sp,sp,16
 1886              		.cfi_def_cfa_offset 0
 1887 004c 17030000 		tail	__riscv_restore_1
 1887      67000300 
 1888              		.cfi_restore 8
 1889              		.cfi_restore 1
 1890              		.cfi_def_cfa_offset -16
 1891              		.cfi_endproc
 1892              	.LFE394:
 1894              		.section	.text.rtc_wakeup_enable,"ax",@progbits
 1895              		.align	1
 1896              		.globl	rtc_wakeup_enable
 1898              	rtc_wakeup_enable:
 1899              	.LFB395:
 946:C:/Users/stapi/OneDrive/Desktop/GD32VW553/GD32VW55X_Wifi_BLE_SDK/GD32VW55x_RELEASE_V1.0.2/MSDK/plf/GD32VW55x_standard_peripheral/Source\gd32vw55x_rtc.c **** 
 947:C:/Users/stapi/OneDrive/Desktop/GD32VW553/GD32VW55X_Wifi_BLE_SDK/GD32VW55x_RELEASE_V1.0.2/MSDK/plf/GD32VW55x_standard_peripheral/Source\gd32vw55x_rtc.c **** /*!
 948:C:/Users/stapi/OneDrive/Desktop/GD32VW553/GD32VW55X_Wifi_BLE_SDK/GD32VW55x_RELEASE_V1.0.2/MSDK/plf/GD32VW55x_standard_peripheral/Source\gd32vw55x_rtc.c ****     \brief      enable RTC auto wakeup function
 949:C:/Users/stapi/OneDrive/Desktop/GD32VW553/GD32VW55X_Wifi_BLE_SDK/GD32VW55x_RELEASE_V1.0.2/MSDK/plf/GD32VW55x_standard_peripheral/Source\gd32vw55x_rtc.c ****     \param[in]  none
 950:C:/Users/stapi/OneDrive/Desktop/GD32VW553/GD32VW55X_Wifi_BLE_SDK/GD32VW55x_RELEASE_V1.0.2/MSDK/plf/GD32VW55x_standard_peripheral/Source\gd32vw55x_rtc.c ****     \param[out] none
 951:C:/Users/stapi/OneDrive/Desktop/GD32VW553/GD32VW55X_Wifi_BLE_SDK/GD32VW55x_RELEASE_V1.0.2/MSDK/plf/GD32VW55x_standard_peripheral/Source\gd32vw55x_rtc.c ****     \retval     none
 952:C:/Users/stapi/OneDrive/Desktop/GD32VW553/GD32VW55X_Wifi_BLE_SDK/GD32VW55x_RELEASE_V1.0.2/MSDK/plf/GD32VW55x_standard_peripheral/Source\gd32vw55x_rtc.c **** */
 953:C:/Users/stapi/OneDrive/Desktop/GD32VW553/GD32VW55X_Wifi_BLE_SDK/GD32VW55x_RELEASE_V1.0.2/MSDK/plf/GD32VW55x_standard_peripheral/Source\gd32vw55x_rtc.c **** void rtc_wakeup_enable(void)
 954:C:/Users/stapi/OneDrive/Desktop/GD32VW553/GD32VW55X_Wifi_BLE_SDK/GD32VW55x_RELEASE_V1.0.2/MSDK/plf/GD32VW55x_standard_peripheral/Source\gd32vw55x_rtc.c **** {
 1900              		.loc 1 954 1 is_stmt 1
 1901              		.cfi_startproc
 955:C:/Users/stapi/OneDrive/Desktop/GD32VW553/GD32VW55X_Wifi_BLE_SDK/GD32VW55x_RELEASE_V1.0.2/MSDK/plf/GD32VW55x_standard_peripheral/Source\gd32vw55x_rtc.c ****     /* disable the write protection */
 956:C:/Users/stapi/OneDrive/Desktop/GD32VW553/GD32VW55X_Wifi_BLE_SDK/GD32VW55x_RELEASE_V1.0.2/MSDK/plf/GD32VW55x_standard_peripheral/Source\gd32vw55x_rtc.c ****     RTC_WPK = RTC_UNLOCK_KEY1;
 1902              		.loc 1 956 5
 1903              		.loc 1 956 13 is_stmt 0
 1904 0000 B7370040 		li	a5,1073754112
 1905 0004 93870780 		addi	a5,a5,-2048
 1906 0008 1307A00C 		li	a4,202
 1907 000c D8D3     		sw	a4,36(a5)
 957:C:/Users/stapi/OneDrive/Desktop/GD32VW553/GD32VW55X_Wifi_BLE_SDK/GD32VW55x_RELEASE_V1.0.2/MSDK/plf/GD32VW55x_standard_peripheral/Source\gd32vw55x_rtc.c ****     RTC_WPK = RTC_UNLOCK_KEY2;
 1908              		.loc 1 957 5 is_stmt 1
 1909              		.loc 1 957 13 is_stmt 0
 1910 000e 13073005 		li	a4,83
 1911 0012 D8D3     		sw	a4,36(a5)
 958:C:/Users/stapi/OneDrive/Desktop/GD32VW553/GD32VW55X_Wifi_BLE_SDK/GD32VW55x_RELEASE_V1.0.2/MSDK/plf/GD32VW55x_standard_peripheral/Source\gd32vw55x_rtc.c **** 
 959:C:/Users/stapi/OneDrive/Desktop/GD32VW553/GD32VW55X_Wifi_BLE_SDK/GD32VW55x_RELEASE_V1.0.2/MSDK/plf/GD32VW55x_standard_peripheral/Source\gd32vw55x_rtc.c ****     RTC_CTL |= RTC_CTL_WTEN;
 1912              		.loc 1 959 5 is_stmt 1
 1913              		.loc 1 959 13 is_stmt 0
 1914 0014 9847     		lw	a4,8(a5)
 1915 0016 13670740 		ori	a4,a4,1024
 1916 001a 98C7     		sw	a4,8(a5)
 960:C:/Users/stapi/OneDrive/Desktop/GD32VW553/GD32VW55X_Wifi_BLE_SDK/GD32VW55x_RELEASE_V1.0.2/MSDK/plf/GD32VW55x_standard_peripheral/Source\gd32vw55x_rtc.c **** 
 961:C:/Users/stapi/OneDrive/Desktop/GD32VW553/GD32VW55X_Wifi_BLE_SDK/GD32VW55x_RELEASE_V1.0.2/MSDK/plf/GD32VW55x_standard_peripheral/Source\gd32vw55x_rtc.c ****     /* enable the write protection */
 962:C:/Users/stapi/OneDrive/Desktop/GD32VW553/GD32VW55X_Wifi_BLE_SDK/GD32VW55x_RELEASE_V1.0.2/MSDK/plf/GD32VW55x_standard_peripheral/Source\gd32vw55x_rtc.c ****     RTC_WPK = RTC_LOCK_KEY;
 1917              		.loc 1 962 5 is_stmt 1
 1918              		.loc 1 962 13 is_stmt 0
 1919 001c 1307F00F 		li	a4,255
 1920 0020 D8D3     		sw	a4,36(a5)
 963:C:/Users/stapi/OneDrive/Desktop/GD32VW553/GD32VW55X_Wifi_BLE_SDK/GD32VW55x_RELEASE_V1.0.2/MSDK/plf/GD32VW55x_standard_peripheral/Source\gd32vw55x_rtc.c **** }
 1921              		.loc 1 963 1
 1922 0022 8280     		ret
 1923              		.cfi_endproc
 1924              	.LFE395:
 1926              		.section	.text.rtc_wakeup_disable,"ax",@progbits
 1927              		.align	1
 1928              		.globl	rtc_wakeup_disable
 1930              	rtc_wakeup_disable:
 1931              	.LFB396:
 964:C:/Users/stapi/OneDrive/Desktop/GD32VW553/GD32VW55X_Wifi_BLE_SDK/GD32VW55x_RELEASE_V1.0.2/MSDK/plf/GD32VW55x_standard_peripheral/Source\gd32vw55x_rtc.c **** 
 965:C:/Users/stapi/OneDrive/Desktop/GD32VW553/GD32VW55X_Wifi_BLE_SDK/GD32VW55x_RELEASE_V1.0.2/MSDK/plf/GD32VW55x_standard_peripheral/Source\gd32vw55x_rtc.c **** /*!
 966:C:/Users/stapi/OneDrive/Desktop/GD32VW553/GD32VW55X_Wifi_BLE_SDK/GD32VW55x_RELEASE_V1.0.2/MSDK/plf/GD32VW55x_standard_peripheral/Source\gd32vw55x_rtc.c ****     \brief      disable RTC auto wakeup function
 967:C:/Users/stapi/OneDrive/Desktop/GD32VW553/GD32VW55X_Wifi_BLE_SDK/GD32VW55x_RELEASE_V1.0.2/MSDK/plf/GD32VW55x_standard_peripheral/Source\gd32vw55x_rtc.c ****     \param[in]  none
 968:C:/Users/stapi/OneDrive/Desktop/GD32VW553/GD32VW55X_Wifi_BLE_SDK/GD32VW55x_RELEASE_V1.0.2/MSDK/plf/GD32VW55x_standard_peripheral/Source\gd32vw55x_rtc.c ****     \param[out] none
 969:C:/Users/stapi/OneDrive/Desktop/GD32VW553/GD32VW55X_Wifi_BLE_SDK/GD32VW55x_RELEASE_V1.0.2/MSDK/plf/GD32VW55x_standard_peripheral/Source\gd32vw55x_rtc.c ****     \retval     ErrStatus: ERROR or SUCCESS
 970:C:/Users/stapi/OneDrive/Desktop/GD32VW553/GD32VW55X_Wifi_BLE_SDK/GD32VW55x_RELEASE_V1.0.2/MSDK/plf/GD32VW55x_standard_peripheral/Source\gd32vw55x_rtc.c **** */
 971:C:/Users/stapi/OneDrive/Desktop/GD32VW553/GD32VW55X_Wifi_BLE_SDK/GD32VW55x_RELEASE_V1.0.2/MSDK/plf/GD32VW55x_standard_peripheral/Source\gd32vw55x_rtc.c **** ErrStatus rtc_wakeup_disable(void)
 972:C:/Users/stapi/OneDrive/Desktop/GD32VW553/GD32VW55X_Wifi_BLE_SDK/GD32VW55x_RELEASE_V1.0.2/MSDK/plf/GD32VW55x_standard_peripheral/Source\gd32vw55x_rtc.c **** {
 1932              		.loc 1 972 1 is_stmt 1
 1933              		.cfi_startproc
 973:C:/Users/stapi/OneDrive/Desktop/GD32VW553/GD32VW55X_Wifi_BLE_SDK/GD32VW55x_RELEASE_V1.0.2/MSDK/plf/GD32VW55x_standard_peripheral/Source\gd32vw55x_rtc.c ****     ErrStatus error_status = ERROR;
 1934              		.loc 1 973 5
 1935              	.LVL103:
 974:C:/Users/stapi/OneDrive/Desktop/GD32VW553/GD32VW55X_Wifi_BLE_SDK/GD32VW55x_RELEASE_V1.0.2/MSDK/plf/GD32VW55x_standard_peripheral/Source\gd32vw55x_rtc.c ****     volatile uint32_t time_index = RTC_WTWF_TIMEOUT;
 1936              		.loc 1 974 5
 1937              		.loc 1 974 23 is_stmt 0
 1938 0000 9167     		li	a5,16384
 972:C:/Users/stapi/OneDrive/Desktop/GD32VW553/GD32VW55X_Wifi_BLE_SDK/GD32VW55x_RELEASE_V1.0.2/MSDK/plf/GD32VW55x_standard_peripheral/Source\gd32vw55x_rtc.c ****     ErrStatus error_status = ERROR;
 1939              		.loc 1 972 1
 1940 0002 4111     		addi	sp,sp,-16
 1941              		.cfi_def_cfa_offset 16
 1942              		.loc 1 974 23
 1943 0004 3EC6     		sw	a5,12(sp)
 975:C:/Users/stapi/OneDrive/Desktop/GD32VW553/GD32VW55X_Wifi_BLE_SDK/GD32VW55x_RELEASE_V1.0.2/MSDK/plf/GD32VW55x_standard_peripheral/Source\gd32vw55x_rtc.c ****     uint32_t flag_status = RESET;
 1944              		.loc 1 975 5 is_stmt 1
 1945              	.LVL104:
 976:C:/Users/stapi/OneDrive/Desktop/GD32VW553/GD32VW55X_Wifi_BLE_SDK/GD32VW55x_RELEASE_V1.0.2/MSDK/plf/GD32VW55x_standard_peripheral/Source\gd32vw55x_rtc.c **** 
 977:C:/Users/stapi/OneDrive/Desktop/GD32VW553/GD32VW55X_Wifi_BLE_SDK/GD32VW55x_RELEASE_V1.0.2/MSDK/plf/GD32VW55x_standard_peripheral/Source\gd32vw55x_rtc.c ****     /* disable the write protection */
 978:C:/Users/stapi/OneDrive/Desktop/GD32VW553/GD32VW55X_Wifi_BLE_SDK/GD32VW55x_RELEASE_V1.0.2/MSDK/plf/GD32VW55x_standard_peripheral/Source\gd32vw55x_rtc.c ****     RTC_WPK = RTC_UNLOCK_KEY1;
 1946              		.loc 1 978 5
 1947              		.loc 1 978 13 is_stmt 0
 1948 0006 B7370040 		li	a5,1073754112
 1949 000a 93870780 		addi	a5,a5,-2048
 1950 000e 1307A00C 		li	a4,202
 1951 0012 D8D3     		sw	a4,36(a5)
 979:C:/Users/stapi/OneDrive/Desktop/GD32VW553/GD32VW55X_Wifi_BLE_SDK/GD32VW55x_RELEASE_V1.0.2/MSDK/plf/GD32VW55x_standard_peripheral/Source\gd32vw55x_rtc.c ****     RTC_WPK = RTC_UNLOCK_KEY2;
 1952              		.loc 1 979 5 is_stmt 1
 1953              		.loc 1 979 13 is_stmt 0
 1954 0014 13073005 		li	a4,83
 1955 0018 D8D3     		sw	a4,36(a5)
 980:C:/Users/stapi/OneDrive/Desktop/GD32VW553/GD32VW55X_Wifi_BLE_SDK/GD32VW55x_RELEASE_V1.0.2/MSDK/plf/GD32VW55x_standard_peripheral/Source\gd32vw55x_rtc.c **** 
 981:C:/Users/stapi/OneDrive/Desktop/GD32VW553/GD32VW55X_Wifi_BLE_SDK/GD32VW55x_RELEASE_V1.0.2/MSDK/plf/GD32VW55x_standard_peripheral/Source\gd32vw55x_rtc.c ****     RTC_CTL &= ~RTC_CTL_WTEN;
 1956              		.loc 1 981 5 is_stmt 1
 1957              		.loc 1 981 13 is_stmt 0
 1958 001a 9847     		lw	a4,8(a5)
 1959 001c 1377F7BF 		andi	a4,a4,-1025
 1960 0020 98C7     		sw	a4,8(a5)
 982:C:/Users/stapi/OneDrive/Desktop/GD32VW553/GD32VW55X_Wifi_BLE_SDK/GD32VW55x_RELEASE_V1.0.2/MSDK/plf/GD32VW55x_standard_peripheral/Source\gd32vw55x_rtc.c ****     /* wait until the WTWF flag to be set */
 983:C:/Users/stapi/OneDrive/Desktop/GD32VW553/GD32VW55X_Wifi_BLE_SDK/GD32VW55x_RELEASE_V1.0.2/MSDK/plf/GD32VW55x_standard_peripheral/Source\gd32vw55x_rtc.c ****     do {
 984:C:/Users/stapi/OneDrive/Desktop/GD32VW553/GD32VW55X_Wifi_BLE_SDK/GD32VW55x_RELEASE_V1.0.2/MSDK/plf/GD32VW55x_standard_peripheral/Source\gd32vw55x_rtc.c ****         flag_status = RTC_STAT & RTC_STAT_WTWF;
 1961              		.loc 1 984 23
 1962 0022 37370040 		li	a4,1073754112
 1963              	.LVL105:
 1964              	.L128:
 983:C:/Users/stapi/OneDrive/Desktop/GD32VW553/GD32VW55X_Wifi_BLE_SDK/GD32VW55x_RELEASE_V1.0.2/MSDK/plf/GD32VW55x_standard_peripheral/Source\gd32vw55x_rtc.c ****         flag_status = RTC_STAT & RTC_STAT_WTWF;
 1965              		.loc 1 983 5 is_stmt 1 discriminator 2
 1966              		.loc 1 984 9 discriminator 2
 1967              		.loc 1 984 23 is_stmt 0 discriminator 2
 1968 0026 0325C780 		lw	a0,-2036(a4)
 985:C:/Users/stapi/OneDrive/Desktop/GD32VW553/GD32VW55X_Wifi_BLE_SDK/GD32VW55x_RELEASE_V1.0.2/MSDK/plf/GD32VW55x_standard_peripheral/Source\gd32vw55x_rtc.c ****     } while((--time_index > 0U) && ((uint32_t)RESET == flag_status));
 1969              		.loc 1 985 14 discriminator 2
 1970 002a B247     		lw	a5,12(sp)
 984:C:/Users/stapi/OneDrive/Desktop/GD32VW553/GD32VW55X_Wifi_BLE_SDK/GD32VW55x_RELEASE_V1.0.2/MSDK/plf/GD32VW55x_standard_peripheral/Source\gd32vw55x_rtc.c ****     } while((--time_index > 0U) && ((uint32_t)RESET == flag_status));
 1971              		.loc 1 984 21 discriminator 2
 1972 002c 1189     		andi	a0,a0,4
 1973              	.LVL106:
 1974              		.loc 1 985 12 is_stmt 1 discriminator 2
 1975              		.loc 1 985 14 is_stmt 0 discriminator 2
 1976 002e FD17     		addi	a5,a5,-1
 1977              		.loc 1 985 5 discriminator 2
 1978 0030 3EC6     		sw	a5,12(sp)
 1979 0032 99CB     		beq	a5,zero,.L127
 1980              		.loc 1 985 33 discriminator 1
 1981 0034 6DD9     		beq	a0,zero,.L128
 986:C:/Users/stapi/OneDrive/Desktop/GD32VW553/GD32VW55X_Wifi_BLE_SDK/GD32VW55x_RELEASE_V1.0.2/MSDK/plf/GD32VW55x_standard_peripheral/Source\gd32vw55x_rtc.c **** 
 987:C:/Users/stapi/OneDrive/Desktop/GD32VW553/GD32VW55X_Wifi_BLE_SDK/GD32VW55x_RELEASE_V1.0.2/MSDK/plf/GD32VW55x_standard_peripheral/Source\gd32vw55x_rtc.c ****     if((uint32_t)RESET == flag_status) {
 988:C:/Users/stapi/OneDrive/Desktop/GD32VW553/GD32VW55X_Wifi_BLE_SDK/GD32VW55x_RELEASE_V1.0.2/MSDK/plf/GD32VW55x_standard_peripheral/Source\gd32vw55x_rtc.c ****         error_status = ERROR;
 989:C:/Users/stapi/OneDrive/Desktop/GD32VW553/GD32VW55X_Wifi_BLE_SDK/GD32VW55x_RELEASE_V1.0.2/MSDK/plf/GD32VW55x_standard_peripheral/Source\gd32vw55x_rtc.c ****     } else {
 990:C:/Users/stapi/OneDrive/Desktop/GD32VW553/GD32VW55X_Wifi_BLE_SDK/GD32VW55x_RELEASE_V1.0.2/MSDK/plf/GD32VW55x_standard_peripheral/Source\gd32vw55x_rtc.c ****         error_status = SUCCESS;
 1982              		.loc 1 990 22
 1983 0036 0545     		li	a0,1
 1984              	.LVL107:
 1985              	.L129:
 991:C:/Users/stapi/OneDrive/Desktop/GD32VW553/GD32VW55X_Wifi_BLE_SDK/GD32VW55x_RELEASE_V1.0.2/MSDK/plf/GD32VW55x_standard_peripheral/Source\gd32vw55x_rtc.c ****     }
 992:C:/Users/stapi/OneDrive/Desktop/GD32VW553/GD32VW55X_Wifi_BLE_SDK/GD32VW55x_RELEASE_V1.0.2/MSDK/plf/GD32VW55x_standard_peripheral/Source\gd32vw55x_rtc.c **** 
 993:C:/Users/stapi/OneDrive/Desktop/GD32VW553/GD32VW55X_Wifi_BLE_SDK/GD32VW55x_RELEASE_V1.0.2/MSDK/plf/GD32VW55x_standard_peripheral/Source\gd32vw55x_rtc.c ****     /* enable the write protection */
 994:C:/Users/stapi/OneDrive/Desktop/GD32VW553/GD32VW55X_Wifi_BLE_SDK/GD32VW55x_RELEASE_V1.0.2/MSDK/plf/GD32VW55x_standard_peripheral/Source\gd32vw55x_rtc.c ****     RTC_WPK = RTC_LOCK_KEY;
 1986              		.loc 1 994 5 is_stmt 1
 1987              		.loc 1 994 13 is_stmt 0
 1988 0038 B7370040 		li	a5,1073754112
 1989 003c 1307F00F 		li	a4,255
 1990 0040 23A2E782 		sw	a4,-2012(a5)
 995:C:/Users/stapi/OneDrive/Desktop/GD32VW553/GD32VW55X_Wifi_BLE_SDK/GD32VW55x_RELEASE_V1.0.2/MSDK/plf/GD32VW55x_standard_peripheral/Source\gd32vw55x_rtc.c **** 
 996:C:/Users/stapi/OneDrive/Desktop/GD32VW553/GD32VW55X_Wifi_BLE_SDK/GD32VW55x_RELEASE_V1.0.2/MSDK/plf/GD32VW55x_standard_peripheral/Source\gd32vw55x_rtc.c ****     return error_status;
 1991              		.loc 1 996 5 is_stmt 1
 997:C:/Users/stapi/OneDrive/Desktop/GD32VW553/GD32VW55X_Wifi_BLE_SDK/GD32VW55x_RELEASE_V1.0.2/MSDK/plf/GD32VW55x_standard_peripheral/Source\gd32vw55x_rtc.c **** }
 1992              		.loc 1 997 1 is_stmt 0
 1993 0044 4101     		addi	sp,sp,16
 1994              		.cfi_remember_state
 1995              		.cfi_def_cfa_offset 0
 1996 0046 8280     		jr	ra
 1997              	.LVL108:
 1998              	.L127:
 1999              		.cfi_restore_state
 987:C:/Users/stapi/OneDrive/Desktop/GD32VW553/GD32VW55X_Wifi_BLE_SDK/GD32VW55x_RELEASE_V1.0.2/MSDK/plf/GD32VW55x_standard_peripheral/Source\gd32vw55x_rtc.c ****         error_status = ERROR;
 2000              		.loc 1 987 5 is_stmt 1
 987:C:/Users/stapi/OneDrive/Desktop/GD32VW553/GD32VW55X_Wifi_BLE_SDK/GD32VW55x_RELEASE_V1.0.2/MSDK/plf/GD32VW55x_standard_peripheral/Source\gd32vw55x_rtc.c ****         error_status = ERROR;
 2001              		.loc 1 987 7 is_stmt 0
 2002 0048 3335A000 		snez	a0,a0
 2003              	.LVL109:
 2004 004c F5B7     		j	.L129
 2005              		.cfi_endproc
 2006              	.LFE396:
 2008              		.section	.text.rtc_wakeup_clock_set,"ax",@progbits
 2009              		.align	1
 2010              		.globl	rtc_wakeup_clock_set
 2012              	rtc_wakeup_clock_set:
 2013              	.LFB397:
 998:C:/Users/stapi/OneDrive/Desktop/GD32VW553/GD32VW55X_Wifi_BLE_SDK/GD32VW55x_RELEASE_V1.0.2/MSDK/plf/GD32VW55x_standard_peripheral/Source\gd32vw55x_rtc.c **** 
 999:C:/Users/stapi/OneDrive/Desktop/GD32VW553/GD32VW55X_Wifi_BLE_SDK/GD32VW55x_RELEASE_V1.0.2/MSDK/plf/GD32VW55x_standard_peripheral/Source\gd32vw55x_rtc.c **** /*!
1000:C:/Users/stapi/OneDrive/Desktop/GD32VW553/GD32VW55X_Wifi_BLE_SDK/GD32VW55x_RELEASE_V1.0.2/MSDK/plf/GD32VW55x_standard_peripheral/Source\gd32vw55x_rtc.c ****     \brief      set RTC auto wakeup timer clock
1001:C:/Users/stapi/OneDrive/Desktop/GD32VW553/GD32VW55X_Wifi_BLE_SDK/GD32VW55x_RELEASE_V1.0.2/MSDK/plf/GD32VW55x_standard_peripheral/Source\gd32vw55x_rtc.c ****     \param[in]  wakeup_clock:
1002:C:/Users/stapi/OneDrive/Desktop/GD32VW553/GD32VW55X_Wifi_BLE_SDK/GD32VW55x_RELEASE_V1.0.2/MSDK/plf/GD32VW55x_standard_peripheral/Source\gd32vw55x_rtc.c ****       \arg        WAKEUP_RTCCK_DIV16: RTC auto wakeup timer clock is RTC clock divided by 16
1003:C:/Users/stapi/OneDrive/Desktop/GD32VW553/GD32VW55X_Wifi_BLE_SDK/GD32VW55x_RELEASE_V1.0.2/MSDK/plf/GD32VW55x_standard_peripheral/Source\gd32vw55x_rtc.c ****       \arg        WAKEUP_RTCCK_DIV8: RTC auto wakeup timer clock is RTC clock divided by 8
1004:C:/Users/stapi/OneDrive/Desktop/GD32VW553/GD32VW55X_Wifi_BLE_SDK/GD32VW55x_RELEASE_V1.0.2/MSDK/plf/GD32VW55x_standard_peripheral/Source\gd32vw55x_rtc.c ****       \arg        WAKEUP_RTCCK_DIV4: RTC auto wakeup timer clock is RTC clock divided by 4
1005:C:/Users/stapi/OneDrive/Desktop/GD32VW553/GD32VW55X_Wifi_BLE_SDK/GD32VW55x_RELEASE_V1.0.2/MSDK/plf/GD32VW55x_standard_peripheral/Source\gd32vw55x_rtc.c ****       \arg        WAKEUP_RTCCK_DIV2: RTC auto wakeup timer clock is RTC clock divided by 2
1006:C:/Users/stapi/OneDrive/Desktop/GD32VW553/GD32VW55X_Wifi_BLE_SDK/GD32VW55x_RELEASE_V1.0.2/MSDK/plf/GD32VW55x_standard_peripheral/Source\gd32vw55x_rtc.c ****       \arg        WAKEUP_CKSPRE: RTC auto wakeup timer clock is ckspre
1007:C:/Users/stapi/OneDrive/Desktop/GD32VW553/GD32VW55X_Wifi_BLE_SDK/GD32VW55x_RELEASE_V1.0.2/MSDK/plf/GD32VW55x_standard_peripheral/Source\gd32vw55x_rtc.c ****       \arg        WAKEUP_CKSPRE_2EXP16: RTC auto wakeup timer clock is ckspre and wakeup timer add 
1008:C:/Users/stapi/OneDrive/Desktop/GD32VW553/GD32VW55X_Wifi_BLE_SDK/GD32VW55x_RELEASE_V1.0.2/MSDK/plf/GD32VW55x_standard_peripheral/Source\gd32vw55x_rtc.c ****     \param[out] none
1009:C:/Users/stapi/OneDrive/Desktop/GD32VW553/GD32VW55X_Wifi_BLE_SDK/GD32VW55x_RELEASE_V1.0.2/MSDK/plf/GD32VW55x_standard_peripheral/Source\gd32vw55x_rtc.c ****     \retval     ErrStatus: ERROR or SUCCESS
1010:C:/Users/stapi/OneDrive/Desktop/GD32VW553/GD32VW55X_Wifi_BLE_SDK/GD32VW55x_RELEASE_V1.0.2/MSDK/plf/GD32VW55x_standard_peripheral/Source\gd32vw55x_rtc.c **** */
1011:C:/Users/stapi/OneDrive/Desktop/GD32VW553/GD32VW55X_Wifi_BLE_SDK/GD32VW55x_RELEASE_V1.0.2/MSDK/plf/GD32VW55x_standard_peripheral/Source\gd32vw55x_rtc.c **** ErrStatus rtc_wakeup_clock_set(uint8_t wakeup_clock)
1012:C:/Users/stapi/OneDrive/Desktop/GD32VW553/GD32VW55X_Wifi_BLE_SDK/GD32VW55x_RELEASE_V1.0.2/MSDK/plf/GD32VW55x_standard_peripheral/Source\gd32vw55x_rtc.c **** {
 2014              		.loc 1 1012 1 is_stmt 1
 2015              		.cfi_startproc
 2016              	.LVL110:
1013:C:/Users/stapi/OneDrive/Desktop/GD32VW553/GD32VW55X_Wifi_BLE_SDK/GD32VW55x_RELEASE_V1.0.2/MSDK/plf/GD32VW55x_standard_peripheral/Source\gd32vw55x_rtc.c ****     ErrStatus error_status = ERROR;
 2017              		.loc 1 1013 5
1014:C:/Users/stapi/OneDrive/Desktop/GD32VW553/GD32VW55X_Wifi_BLE_SDK/GD32VW55x_RELEASE_V1.0.2/MSDK/plf/GD32VW55x_standard_peripheral/Source\gd32vw55x_rtc.c ****     volatile uint32_t time_index = RTC_WTWF_TIMEOUT;
 2018              		.loc 1 1014 5
 2019              		.loc 1 1014 23 is_stmt 0
 2020 0000 9167     		li	a5,16384
1012:C:/Users/stapi/OneDrive/Desktop/GD32VW553/GD32VW55X_Wifi_BLE_SDK/GD32VW55x_RELEASE_V1.0.2/MSDK/plf/GD32VW55x_standard_peripheral/Source\gd32vw55x_rtc.c ****     ErrStatus error_status = ERROR;
 2021              		.loc 1 1012 1
 2022 0002 4111     		addi	sp,sp,-16
 2023              		.cfi_def_cfa_offset 16
 2024              		.loc 1 1014 23
 2025 0004 3EC6     		sw	a5,12(sp)
1015:C:/Users/stapi/OneDrive/Desktop/GD32VW553/GD32VW55X_Wifi_BLE_SDK/GD32VW55x_RELEASE_V1.0.2/MSDK/plf/GD32VW55x_standard_peripheral/Source\gd32vw55x_rtc.c ****     uint32_t flag_status = RESET;
 2026              		.loc 1 1015 5 is_stmt 1
 2027              	.LVL111:
1016:C:/Users/stapi/OneDrive/Desktop/GD32VW553/GD32VW55X_Wifi_BLE_SDK/GD32VW55x_RELEASE_V1.0.2/MSDK/plf/GD32VW55x_standard_peripheral/Source\gd32vw55x_rtc.c **** 
1017:C:/Users/stapi/OneDrive/Desktop/GD32VW553/GD32VW55X_Wifi_BLE_SDK/GD32VW55x_RELEASE_V1.0.2/MSDK/plf/GD32VW55x_standard_peripheral/Source\gd32vw55x_rtc.c ****     /* disable the write protection */
1018:C:/Users/stapi/OneDrive/Desktop/GD32VW553/GD32VW55X_Wifi_BLE_SDK/GD32VW55x_RELEASE_V1.0.2/MSDK/plf/GD32VW55x_standard_peripheral/Source\gd32vw55x_rtc.c ****     RTC_WPK = RTC_UNLOCK_KEY1;
 2028              		.loc 1 1018 5
 2029              		.loc 1 1018 13 is_stmt 0
 2030 0006 9306A00C 		li	a3,202
 2031 000a B7370040 		li	a5,1073754112
 2032 000e 23A2D782 		sw	a3,-2012(a5)
1019:C:/Users/stapi/OneDrive/Desktop/GD32VW553/GD32VW55X_Wifi_BLE_SDK/GD32VW55x_RELEASE_V1.0.2/MSDK/plf/GD32VW55x_standard_peripheral/Source\gd32vw55x_rtc.c ****     RTC_WPK = RTC_UNLOCK_KEY2;
 2033              		.loc 1 1019 5 is_stmt 1
 2034              		.loc 1 1019 13 is_stmt 0
 2035 0012 93063005 		li	a3,83
 2036 0016 23A2D782 		sw	a3,-2012(a5)
1012:C:/Users/stapi/OneDrive/Desktop/GD32VW553/GD32VW55X_Wifi_BLE_SDK/GD32VW55x_RELEASE_V1.0.2/MSDK/plf/GD32VW55x_standard_peripheral/Source\gd32vw55x_rtc.c ****     ErrStatus error_status = ERROR;
 2037              		.loc 1 1012 1
 2038 001a 2A87     		mv	a4,a0
1020:C:/Users/stapi/OneDrive/Desktop/GD32VW553/GD32VW55X_Wifi_BLE_SDK/GD32VW55x_RELEASE_V1.0.2/MSDK/plf/GD32VW55x_standard_peripheral/Source\gd32vw55x_rtc.c **** 
1021:C:/Users/stapi/OneDrive/Desktop/GD32VW553/GD32VW55X_Wifi_BLE_SDK/GD32VW55x_RELEASE_V1.0.2/MSDK/plf/GD32VW55x_standard_peripheral/Source\gd32vw55x_rtc.c ****     /* only when RTC_CTL_WTEN=0 and RTC_ICS_WTWF=1 can write RTC_CTL[2:0] */
1022:C:/Users/stapi/OneDrive/Desktop/GD32VW553/GD32VW55X_Wifi_BLE_SDK/GD32VW55x_RELEASE_V1.0.2/MSDK/plf/GD32VW55x_standard_peripheral/Source\gd32vw55x_rtc.c ****     /* wait until the WTWF flag to be set */
1023:C:/Users/stapi/OneDrive/Desktop/GD32VW553/GD32VW55X_Wifi_BLE_SDK/GD32VW55x_RELEASE_V1.0.2/MSDK/plf/GD32VW55x_standard_peripheral/Source\gd32vw55x_rtc.c ****     do {
1024:C:/Users/stapi/OneDrive/Desktop/GD32VW553/GD32VW55X_Wifi_BLE_SDK/GD32VW55x_RELEASE_V1.0.2/MSDK/plf/GD32VW55x_standard_peripheral/Source\gd32vw55x_rtc.c ****         flag_status = RTC_STAT & RTC_STAT_WTWF;
 2039              		.loc 1 1024 23
 2040 001c B7360040 		li	a3,1073754112
 2041              	.LVL112:
 2042              	.L135:
1023:C:/Users/stapi/OneDrive/Desktop/GD32VW553/GD32VW55X_Wifi_BLE_SDK/GD32VW55x_RELEASE_V1.0.2/MSDK/plf/GD32VW55x_standard_peripheral/Source\gd32vw55x_rtc.c ****         flag_status = RTC_STAT & RTC_STAT_WTWF;
 2043              		.loc 1 1023 5 is_stmt 1 discriminator 2
 2044              		.loc 1 1024 9 discriminator 2
 2045              		.loc 1 1024 23 is_stmt 0 discriminator 2
 2046 0020 83A7C680 		lw	a5,-2036(a3)
 2047              		.loc 1 1024 21 discriminator 2
 2048 0024 13F54700 		andi	a0,a5,4
 2049              	.LVL113:
1025:C:/Users/stapi/OneDrive/Desktop/GD32VW553/GD32VW55X_Wifi_BLE_SDK/GD32VW55x_RELEASE_V1.0.2/MSDK/plf/GD32VW55x_standard_peripheral/Source\gd32vw55x_rtc.c ****     } while((--time_index > 0U) && ((uint32_t)RESET == flag_status));
 2050              		.loc 1 1025 12 is_stmt 1 discriminator 2
 2051              		.loc 1 1025 14 is_stmt 0 discriminator 2
 2052 0028 B247     		lw	a5,12(sp)
 2053 002a FD17     		addi	a5,a5,-1
 2054              		.loc 1 1025 5 discriminator 2
 2055 002c 3EC6     		sw	a5,12(sp)
 2056 002e 91CF     		beq	a5,zero,.L134
 2057              		.loc 1 1025 33 discriminator 1
 2058 0030 65D9     		beq	a0,zero,.L135
 2059              	.L136:
1026:C:/Users/stapi/OneDrive/Desktop/GD32VW553/GD32VW55X_Wifi_BLE_SDK/GD32VW55x_RELEASE_V1.0.2/MSDK/plf/GD32VW55x_standard_peripheral/Source\gd32vw55x_rtc.c **** 
1027:C:/Users/stapi/OneDrive/Desktop/GD32VW553/GD32VW55X_Wifi_BLE_SDK/GD32VW55x_RELEASE_V1.0.2/MSDK/plf/GD32VW55x_standard_peripheral/Source\gd32vw55x_rtc.c ****     if((uint32_t)RESET == flag_status) {
1028:C:/Users/stapi/OneDrive/Desktop/GD32VW553/GD32VW55X_Wifi_BLE_SDK/GD32VW55x_RELEASE_V1.0.2/MSDK/plf/GD32VW55x_standard_peripheral/Source\gd32vw55x_rtc.c ****         error_status = ERROR;
1029:C:/Users/stapi/OneDrive/Desktop/GD32VW553/GD32VW55X_Wifi_BLE_SDK/GD32VW55x_RELEASE_V1.0.2/MSDK/plf/GD32VW55x_standard_peripheral/Source\gd32vw55x_rtc.c ****     } else {
1030:C:/Users/stapi/OneDrive/Desktop/GD32VW553/GD32VW55X_Wifi_BLE_SDK/GD32VW55x_RELEASE_V1.0.2/MSDK/plf/GD32VW55x_standard_peripheral/Source\gd32vw55x_rtc.c ****         RTC_CTL &= (uint32_t)~ RTC_CTL_WTCS;
 2060              		.loc 1 1030 9 is_stmt 1
 2061              		.loc 1 1030 17 is_stmt 0
 2062 0032 B7370040 		li	a5,1073754112
 2063 0036 93870780 		addi	a5,a5,-2048
 2064 003a 9447     		lw	a3,8(a5)
 2065 003c E19A     		andi	a3,a3,-8
 2066 003e 94C7     		sw	a3,8(a5)
1031:C:/Users/stapi/OneDrive/Desktop/GD32VW553/GD32VW55X_Wifi_BLE_SDK/GD32VW55x_RELEASE_V1.0.2/MSDK/plf/GD32VW55x_standard_peripheral/Source\gd32vw55x_rtc.c ****         RTC_CTL |= (uint32_t)wakeup_clock;
 2067              		.loc 1 1031 9 is_stmt 1
 2068              		.loc 1 1031 17 is_stmt 0
 2069 0040 8847     		lw	a0,8(a5)
 2070              	.LVL114:
 2071 0042 498F     		or	a4,a4,a0
 2072 0044 98C7     		sw	a4,8(a5)
1032:C:/Users/stapi/OneDrive/Desktop/GD32VW553/GD32VW55X_Wifi_BLE_SDK/GD32VW55x_RELEASE_V1.0.2/MSDK/plf/GD32VW55x_standard_peripheral/Source\gd32vw55x_rtc.c ****         error_status = SUCCESS;
 2073              		.loc 1 1032 9 is_stmt 1
 2074              	.LVL115:
 2075              		.loc 1 1032 22 is_stmt 0
 2076 0046 0545     		li	a0,1
 2077 0048 11A0     		j	.L137
 2078              	.LVL116:
 2079              	.L134:
1027:C:/Users/stapi/OneDrive/Desktop/GD32VW553/GD32VW55X_Wifi_BLE_SDK/GD32VW55x_RELEASE_V1.0.2/MSDK/plf/GD32VW55x_standard_peripheral/Source\gd32vw55x_rtc.c ****         error_status = ERROR;
 2080              		.loc 1 1027 5 is_stmt 1
1027:C:/Users/stapi/OneDrive/Desktop/GD32VW553/GD32VW55X_Wifi_BLE_SDK/GD32VW55x_RELEASE_V1.0.2/MSDK/plf/GD32VW55x_standard_peripheral/Source\gd32vw55x_rtc.c ****         error_status = ERROR;
 2081              		.loc 1 1027 7 is_stmt 0
 2082 004a 65F5     		bne	a0,zero,.L136
 2083              	.LVL117:
 2084              	.L137:
1033:C:/Users/stapi/OneDrive/Desktop/GD32VW553/GD32VW55X_Wifi_BLE_SDK/GD32VW55x_RELEASE_V1.0.2/MSDK/plf/GD32VW55x_standard_peripheral/Source\gd32vw55x_rtc.c ****     }
1034:C:/Users/stapi/OneDrive/Desktop/GD32VW553/GD32VW55X_Wifi_BLE_SDK/GD32VW55x_RELEASE_V1.0.2/MSDK/plf/GD32VW55x_standard_peripheral/Source\gd32vw55x_rtc.c **** 
1035:C:/Users/stapi/OneDrive/Desktop/GD32VW553/GD32VW55X_Wifi_BLE_SDK/GD32VW55x_RELEASE_V1.0.2/MSDK/plf/GD32VW55x_standard_peripheral/Source\gd32vw55x_rtc.c ****     /* enable the write protection */
1036:C:/Users/stapi/OneDrive/Desktop/GD32VW553/GD32VW55X_Wifi_BLE_SDK/GD32VW55x_RELEASE_V1.0.2/MSDK/plf/GD32VW55x_standard_peripheral/Source\gd32vw55x_rtc.c ****     RTC_WPK = RTC_LOCK_KEY;
 2085              		.loc 1 1036 5 is_stmt 1
 2086              		.loc 1 1036 13 is_stmt 0
 2087 004c B7370040 		li	a5,1073754112
 2088 0050 1307F00F 		li	a4,255
 2089 0054 23A2E782 		sw	a4,-2012(a5)
1037:C:/Users/stapi/OneDrive/Desktop/GD32VW553/GD32VW55X_Wifi_BLE_SDK/GD32VW55x_RELEASE_V1.0.2/MSDK/plf/GD32VW55x_standard_peripheral/Source\gd32vw55x_rtc.c **** 
1038:C:/Users/stapi/OneDrive/Desktop/GD32VW553/GD32VW55X_Wifi_BLE_SDK/GD32VW55x_RELEASE_V1.0.2/MSDK/plf/GD32VW55x_standard_peripheral/Source\gd32vw55x_rtc.c ****     return error_status;
 2090              		.loc 1 1038 5 is_stmt 1
1039:C:/Users/stapi/OneDrive/Desktop/GD32VW553/GD32VW55X_Wifi_BLE_SDK/GD32VW55x_RELEASE_V1.0.2/MSDK/plf/GD32VW55x_standard_peripheral/Source\gd32vw55x_rtc.c **** }
 2091              		.loc 1 1039 1 is_stmt 0
 2092 0058 4101     		addi	sp,sp,16
 2093              		.cfi_def_cfa_offset 0
 2094 005a 8280     		jr	ra
 2095              		.cfi_endproc
 2096              	.LFE397:
 2098              		.section	.text.rtc_wakeup_timer_set,"ax",@progbits
 2099              		.align	1
 2100              		.globl	rtc_wakeup_timer_set
 2102              	rtc_wakeup_timer_set:
 2103              	.LFB398:
1040:C:/Users/stapi/OneDrive/Desktop/GD32VW553/GD32VW55X_Wifi_BLE_SDK/GD32VW55x_RELEASE_V1.0.2/MSDK/plf/GD32VW55x_standard_peripheral/Source\gd32vw55x_rtc.c **** 
1041:C:/Users/stapi/OneDrive/Desktop/GD32VW553/GD32VW55X_Wifi_BLE_SDK/GD32VW55x_RELEASE_V1.0.2/MSDK/plf/GD32VW55x_standard_peripheral/Source\gd32vw55x_rtc.c **** /*!
1042:C:/Users/stapi/OneDrive/Desktop/GD32VW553/GD32VW55X_Wifi_BLE_SDK/GD32VW55x_RELEASE_V1.0.2/MSDK/plf/GD32VW55x_standard_peripheral/Source\gd32vw55x_rtc.c ****     \brief      set wakeup timer value
1043:C:/Users/stapi/OneDrive/Desktop/GD32VW553/GD32VW55X_Wifi_BLE_SDK/GD32VW55x_RELEASE_V1.0.2/MSDK/plf/GD32VW55x_standard_peripheral/Source\gd32vw55x_rtc.c ****     \param[in]  wakeup_timer: 0x0000-0xffff
1044:C:/Users/stapi/OneDrive/Desktop/GD32VW553/GD32VW55X_Wifi_BLE_SDK/GD32VW55x_RELEASE_V1.0.2/MSDK/plf/GD32VW55x_standard_peripheral/Source\gd32vw55x_rtc.c ****     \param[out] none
1045:C:/Users/stapi/OneDrive/Desktop/GD32VW553/GD32VW55X_Wifi_BLE_SDK/GD32VW55x_RELEASE_V1.0.2/MSDK/plf/GD32VW55x_standard_peripheral/Source\gd32vw55x_rtc.c ****     \retval     ErrStatus: ERROR or SUCCESS
1046:C:/Users/stapi/OneDrive/Desktop/GD32VW553/GD32VW55X_Wifi_BLE_SDK/GD32VW55x_RELEASE_V1.0.2/MSDK/plf/GD32VW55x_standard_peripheral/Source\gd32vw55x_rtc.c **** */
1047:C:/Users/stapi/OneDrive/Desktop/GD32VW553/GD32VW55X_Wifi_BLE_SDK/GD32VW55x_RELEASE_V1.0.2/MSDK/plf/GD32VW55x_standard_peripheral/Source\gd32vw55x_rtc.c **** ErrStatus rtc_wakeup_timer_set(uint16_t wakeup_timer)
1048:C:/Users/stapi/OneDrive/Desktop/GD32VW553/GD32VW55X_Wifi_BLE_SDK/GD32VW55x_RELEASE_V1.0.2/MSDK/plf/GD32VW55x_standard_peripheral/Source\gd32vw55x_rtc.c **** {
 2104              		.loc 1 1048 1 is_stmt 1
 2105              		.cfi_startproc
 2106              	.LVL118:
1049:C:/Users/stapi/OneDrive/Desktop/GD32VW553/GD32VW55X_Wifi_BLE_SDK/GD32VW55x_RELEASE_V1.0.2/MSDK/plf/GD32VW55x_standard_peripheral/Source\gd32vw55x_rtc.c ****     ErrStatus error_status = ERROR;
 2107              		.loc 1 1049 5
1050:C:/Users/stapi/OneDrive/Desktop/GD32VW553/GD32VW55X_Wifi_BLE_SDK/GD32VW55x_RELEASE_V1.0.2/MSDK/plf/GD32VW55x_standard_peripheral/Source\gd32vw55x_rtc.c ****     volatile uint32_t time_index = RTC_WTWF_TIMEOUT;
 2108              		.loc 1 1050 5
 2109              		.loc 1 1050 23 is_stmt 0
 2110 0000 9167     		li	a5,16384
1048:C:/Users/stapi/OneDrive/Desktop/GD32VW553/GD32VW55X_Wifi_BLE_SDK/GD32VW55x_RELEASE_V1.0.2/MSDK/plf/GD32VW55x_standard_peripheral/Source\gd32vw55x_rtc.c ****     ErrStatus error_status = ERROR;
 2111              		.loc 1 1048 1
 2112 0002 4111     		addi	sp,sp,-16
 2113              		.cfi_def_cfa_offset 16
 2114              		.loc 1 1050 23
 2115 0004 3EC6     		sw	a5,12(sp)
1051:C:/Users/stapi/OneDrive/Desktop/GD32VW553/GD32VW55X_Wifi_BLE_SDK/GD32VW55x_RELEASE_V1.0.2/MSDK/plf/GD32VW55x_standard_peripheral/Source\gd32vw55x_rtc.c ****     uint32_t flag_status = RESET;
 2116              		.loc 1 1051 5 is_stmt 1
 2117              	.LVL119:
1052:C:/Users/stapi/OneDrive/Desktop/GD32VW553/GD32VW55X_Wifi_BLE_SDK/GD32VW55x_RELEASE_V1.0.2/MSDK/plf/GD32VW55x_standard_peripheral/Source\gd32vw55x_rtc.c **** 
1053:C:/Users/stapi/OneDrive/Desktop/GD32VW553/GD32VW55X_Wifi_BLE_SDK/GD32VW55x_RELEASE_V1.0.2/MSDK/plf/GD32VW55x_standard_peripheral/Source\gd32vw55x_rtc.c ****     /* disable the write protection */
1054:C:/Users/stapi/OneDrive/Desktop/GD32VW553/GD32VW55X_Wifi_BLE_SDK/GD32VW55x_RELEASE_V1.0.2/MSDK/plf/GD32VW55x_standard_peripheral/Source\gd32vw55x_rtc.c ****     RTC_WPK = RTC_UNLOCK_KEY1;
 2118              		.loc 1 1054 5
 2119              		.loc 1 1054 13 is_stmt 0
 2120 0006 9306A00C 		li	a3,202
 2121 000a B7370040 		li	a5,1073754112
 2122 000e 23A2D782 		sw	a3,-2012(a5)
1055:C:/Users/stapi/OneDrive/Desktop/GD32VW553/GD32VW55X_Wifi_BLE_SDK/GD32VW55x_RELEASE_V1.0.2/MSDK/plf/GD32VW55x_standard_peripheral/Source\gd32vw55x_rtc.c ****     RTC_WPK = RTC_UNLOCK_KEY2;
 2123              		.loc 1 1055 5 is_stmt 1
 2124              		.loc 1 1055 13 is_stmt 0
 2125 0012 93063005 		li	a3,83
 2126 0016 23A2D782 		sw	a3,-2012(a5)
1048:C:/Users/stapi/OneDrive/Desktop/GD32VW553/GD32VW55X_Wifi_BLE_SDK/GD32VW55x_RELEASE_V1.0.2/MSDK/plf/GD32VW55x_standard_peripheral/Source\gd32vw55x_rtc.c ****     ErrStatus error_status = ERROR;
 2127              		.loc 1 1048 1
 2128 001a 2A87     		mv	a4,a0
1056:C:/Users/stapi/OneDrive/Desktop/GD32VW553/GD32VW55X_Wifi_BLE_SDK/GD32VW55x_RELEASE_V1.0.2/MSDK/plf/GD32VW55x_standard_peripheral/Source\gd32vw55x_rtc.c **** 
1057:C:/Users/stapi/OneDrive/Desktop/GD32VW553/GD32VW55X_Wifi_BLE_SDK/GD32VW55x_RELEASE_V1.0.2/MSDK/plf/GD32VW55x_standard_peripheral/Source\gd32vw55x_rtc.c ****     /* wait until the WTWF flag to be set */
1058:C:/Users/stapi/OneDrive/Desktop/GD32VW553/GD32VW55X_Wifi_BLE_SDK/GD32VW55x_RELEASE_V1.0.2/MSDK/plf/GD32VW55x_standard_peripheral/Source\gd32vw55x_rtc.c ****     do {
1059:C:/Users/stapi/OneDrive/Desktop/GD32VW553/GD32VW55X_Wifi_BLE_SDK/GD32VW55x_RELEASE_V1.0.2/MSDK/plf/GD32VW55x_standard_peripheral/Source\gd32vw55x_rtc.c ****         flag_status = RTC_STAT & RTC_STAT_WTWF;
 2129              		.loc 1 1059 23
 2130 001c B7360040 		li	a3,1073754112
 2131              	.LVL120:
 2132              	.L146:
1058:C:/Users/stapi/OneDrive/Desktop/GD32VW553/GD32VW55X_Wifi_BLE_SDK/GD32VW55x_RELEASE_V1.0.2/MSDK/plf/GD32VW55x_standard_peripheral/Source\gd32vw55x_rtc.c ****         flag_status = RTC_STAT & RTC_STAT_WTWF;
 2133              		.loc 1 1058 5 is_stmt 1 discriminator 2
 2134              		.loc 1 1059 9 discriminator 2
 2135              		.loc 1 1059 23 is_stmt 0 discriminator 2
 2136 0020 83A7C680 		lw	a5,-2036(a3)
 2137              		.loc 1 1059 21 discriminator 2
 2138 0024 13F54700 		andi	a0,a5,4
 2139              	.LVL121:
1060:C:/Users/stapi/OneDrive/Desktop/GD32VW553/GD32VW55X_Wifi_BLE_SDK/GD32VW55x_RELEASE_V1.0.2/MSDK/plf/GD32VW55x_standard_peripheral/Source\gd32vw55x_rtc.c ****     } while((--time_index > 0U) && ((uint32_t)RESET == flag_status));
 2140              		.loc 1 1060 12 is_stmt 1 discriminator 2
 2141              		.loc 1 1060 14 is_stmt 0 discriminator 2
 2142 0028 B247     		lw	a5,12(sp)
 2143 002a FD17     		addi	a5,a5,-1
 2144              		.loc 1 1060 5 discriminator 2
 2145 002c 3EC6     		sw	a5,12(sp)
 2146 002e 81CB     		beq	a5,zero,.L145
 2147              		.loc 1 1060 33 discriminator 1
 2148 0030 65D9     		beq	a0,zero,.L146
 2149              	.L147:
1061:C:/Users/stapi/OneDrive/Desktop/GD32VW553/GD32VW55X_Wifi_BLE_SDK/GD32VW55x_RELEASE_V1.0.2/MSDK/plf/GD32VW55x_standard_peripheral/Source\gd32vw55x_rtc.c **** 
1062:C:/Users/stapi/OneDrive/Desktop/GD32VW553/GD32VW55X_Wifi_BLE_SDK/GD32VW55x_RELEASE_V1.0.2/MSDK/plf/GD32VW55x_standard_peripheral/Source\gd32vw55x_rtc.c ****     if((uint32_t)RESET == flag_status) {
1063:C:/Users/stapi/OneDrive/Desktop/GD32VW553/GD32VW55X_Wifi_BLE_SDK/GD32VW55x_RELEASE_V1.0.2/MSDK/plf/GD32VW55x_standard_peripheral/Source\gd32vw55x_rtc.c ****         error_status = ERROR;
1064:C:/Users/stapi/OneDrive/Desktop/GD32VW553/GD32VW55X_Wifi_BLE_SDK/GD32VW55x_RELEASE_V1.0.2/MSDK/plf/GD32VW55x_standard_peripheral/Source\gd32vw55x_rtc.c ****     } else {
1065:C:/Users/stapi/OneDrive/Desktop/GD32VW553/GD32VW55X_Wifi_BLE_SDK/GD32VW55x_RELEASE_V1.0.2/MSDK/plf/GD32VW55x_standard_peripheral/Source\gd32vw55x_rtc.c ****         RTC_WUT = (uint32_t)wakeup_timer;
 2150              		.loc 1 1065 9 is_stmt 1
 2151              		.loc 1 1065 17 is_stmt 0
 2152 0032 B7370040 		li	a5,1073754112
 2153 0036 23AAE780 		sw	a4,-2028(a5)
1066:C:/Users/stapi/OneDrive/Desktop/GD32VW553/GD32VW55X_Wifi_BLE_SDK/GD32VW55x_RELEASE_V1.0.2/MSDK/plf/GD32VW55x_standard_peripheral/Source\gd32vw55x_rtc.c ****         error_status = SUCCESS;
 2154              		.loc 1 1066 9 is_stmt 1
 2155              	.LVL122:
 2156              		.loc 1 1066 22 is_stmt 0
 2157 003a 0545     		li	a0,1
 2158              	.LVL123:
 2159 003c 11A0     		j	.L148
 2160              	.LVL124:
 2161              	.L145:
1062:C:/Users/stapi/OneDrive/Desktop/GD32VW553/GD32VW55X_Wifi_BLE_SDK/GD32VW55x_RELEASE_V1.0.2/MSDK/plf/GD32VW55x_standard_peripheral/Source\gd32vw55x_rtc.c ****         error_status = ERROR;
 2162              		.loc 1 1062 5 is_stmt 1
1062:C:/Users/stapi/OneDrive/Desktop/GD32VW553/GD32VW55X_Wifi_BLE_SDK/GD32VW55x_RELEASE_V1.0.2/MSDK/plf/GD32VW55x_standard_peripheral/Source\gd32vw55x_rtc.c ****         error_status = ERROR;
 2163              		.loc 1 1062 7 is_stmt 0
 2164 003e 75F9     		bne	a0,zero,.L147
 2165              	.LVL125:
 2166              	.L148:
1067:C:/Users/stapi/OneDrive/Desktop/GD32VW553/GD32VW55X_Wifi_BLE_SDK/GD32VW55x_RELEASE_V1.0.2/MSDK/plf/GD32VW55x_standard_peripheral/Source\gd32vw55x_rtc.c ****     }
1068:C:/Users/stapi/OneDrive/Desktop/GD32VW553/GD32VW55X_Wifi_BLE_SDK/GD32VW55x_RELEASE_V1.0.2/MSDK/plf/GD32VW55x_standard_peripheral/Source\gd32vw55x_rtc.c **** 
1069:C:/Users/stapi/OneDrive/Desktop/GD32VW553/GD32VW55X_Wifi_BLE_SDK/GD32VW55x_RELEASE_V1.0.2/MSDK/plf/GD32VW55x_standard_peripheral/Source\gd32vw55x_rtc.c ****     /* enable the write protection */
1070:C:/Users/stapi/OneDrive/Desktop/GD32VW553/GD32VW55X_Wifi_BLE_SDK/GD32VW55x_RELEASE_V1.0.2/MSDK/plf/GD32VW55x_standard_peripheral/Source\gd32vw55x_rtc.c ****     RTC_WPK = RTC_LOCK_KEY;
 2167              		.loc 1 1070 5 is_stmt 1
 2168              		.loc 1 1070 13 is_stmt 0
 2169 0040 B7370040 		li	a5,1073754112
 2170 0044 1307F00F 		li	a4,255
 2171 0048 23A2E782 		sw	a4,-2012(a5)
1071:C:/Users/stapi/OneDrive/Desktop/GD32VW553/GD32VW55X_Wifi_BLE_SDK/GD32VW55x_RELEASE_V1.0.2/MSDK/plf/GD32VW55x_standard_peripheral/Source\gd32vw55x_rtc.c **** 
1072:C:/Users/stapi/OneDrive/Desktop/GD32VW553/GD32VW55X_Wifi_BLE_SDK/GD32VW55x_RELEASE_V1.0.2/MSDK/plf/GD32VW55x_standard_peripheral/Source\gd32vw55x_rtc.c ****     return error_status;
 2172              		.loc 1 1072 5 is_stmt 1
1073:C:/Users/stapi/OneDrive/Desktop/GD32VW553/GD32VW55X_Wifi_BLE_SDK/GD32VW55x_RELEASE_V1.0.2/MSDK/plf/GD32VW55x_standard_peripheral/Source\gd32vw55x_rtc.c **** }
 2173              		.loc 1 1073 1 is_stmt 0
 2174 004c 4101     		addi	sp,sp,16
 2175              		.cfi_def_cfa_offset 0
 2176 004e 8280     		jr	ra
 2177              		.cfi_endproc
 2178              	.LFE398:
 2180              		.section	.text.rtc_wakeup_timer_get,"ax",@progbits
 2181              		.align	1
 2182              		.globl	rtc_wakeup_timer_get
 2184              	rtc_wakeup_timer_get:
 2185              	.LFB399:
1074:C:/Users/stapi/OneDrive/Desktop/GD32VW553/GD32VW55X_Wifi_BLE_SDK/GD32VW55x_RELEASE_V1.0.2/MSDK/plf/GD32VW55x_standard_peripheral/Source\gd32vw55x_rtc.c **** 
1075:C:/Users/stapi/OneDrive/Desktop/GD32VW553/GD32VW55X_Wifi_BLE_SDK/GD32VW55x_RELEASE_V1.0.2/MSDK/plf/GD32VW55x_standard_peripheral/Source\gd32vw55x_rtc.c **** /*!
1076:C:/Users/stapi/OneDrive/Desktop/GD32VW553/GD32VW55X_Wifi_BLE_SDK/GD32VW55x_RELEASE_V1.0.2/MSDK/plf/GD32VW55x_standard_peripheral/Source\gd32vw55x_rtc.c ****     \brief      get wakeup timer value
1077:C:/Users/stapi/OneDrive/Desktop/GD32VW553/GD32VW55X_Wifi_BLE_SDK/GD32VW55x_RELEASE_V1.0.2/MSDK/plf/GD32VW55x_standard_peripheral/Source\gd32vw55x_rtc.c ****     \param[in]  none
1078:C:/Users/stapi/OneDrive/Desktop/GD32VW553/GD32VW55X_Wifi_BLE_SDK/GD32VW55x_RELEASE_V1.0.2/MSDK/plf/GD32VW55x_standard_peripheral/Source\gd32vw55x_rtc.c ****     \param[out] none
1079:C:/Users/stapi/OneDrive/Desktop/GD32VW553/GD32VW55X_Wifi_BLE_SDK/GD32VW55x_RELEASE_V1.0.2/MSDK/plf/GD32VW55x_standard_peripheral/Source\gd32vw55x_rtc.c ****     \retval     wakeup timer value
1080:C:/Users/stapi/OneDrive/Desktop/GD32VW553/GD32VW55X_Wifi_BLE_SDK/GD32VW55x_RELEASE_V1.0.2/MSDK/plf/GD32VW55x_standard_peripheral/Source\gd32vw55x_rtc.c **** */
1081:C:/Users/stapi/OneDrive/Desktop/GD32VW553/GD32VW55X_Wifi_BLE_SDK/GD32VW55x_RELEASE_V1.0.2/MSDK/plf/GD32VW55x_standard_peripheral/Source\gd32vw55x_rtc.c **** uint16_t rtc_wakeup_timer_get(void)
1082:C:/Users/stapi/OneDrive/Desktop/GD32VW553/GD32VW55X_Wifi_BLE_SDK/GD32VW55x_RELEASE_V1.0.2/MSDK/plf/GD32VW55x_standard_peripheral/Source\gd32vw55x_rtc.c **** {
 2186              		.loc 1 1082 1 is_stmt 1
 2187              		.cfi_startproc
1083:C:/Users/stapi/OneDrive/Desktop/GD32VW553/GD32VW55X_Wifi_BLE_SDK/GD32VW55x_RELEASE_V1.0.2/MSDK/plf/GD32VW55x_standard_peripheral/Source\gd32vw55x_rtc.c ****     return (uint16_t)RTC_WUT;
 2188              		.loc 1 1083 5
 2189              		.loc 1 1083 22 is_stmt 0
 2190 0000 B7370040 		li	a5,1073754112
 2191 0004 03A54781 		lw	a0,-2028(a5)
1084:C:/Users/stapi/OneDrive/Desktop/GD32VW553/GD32VW55X_Wifi_BLE_SDK/GD32VW55x_RELEASE_V1.0.2/MSDK/plf/GD32VW55x_standard_peripheral/Source\gd32vw55x_rtc.c **** }
 2192              		.loc 1 1084 1
 2193 0008 33450508 		zext.h	a0,a0
 2194 000c 8280     		ret
 2195              		.cfi_endproc
 2196              	.LFE399:
 2198              		.section	.text.rtc_smooth_calibration_config,"ax",@progbits
 2199              		.align	1
 2200              		.globl	rtc_smooth_calibration_config
 2202              	rtc_smooth_calibration_config:
 2203              	.LFB400:
1085:C:/Users/stapi/OneDrive/Desktop/GD32VW553/GD32VW55X_Wifi_BLE_SDK/GD32VW55x_RELEASE_V1.0.2/MSDK/plf/GD32VW55x_standard_peripheral/Source\gd32vw55x_rtc.c **** 
1086:C:/Users/stapi/OneDrive/Desktop/GD32VW553/GD32VW55X_Wifi_BLE_SDK/GD32VW55x_RELEASE_V1.0.2/MSDK/plf/GD32VW55x_standard_peripheral/Source\gd32vw55x_rtc.c **** /*!
1087:C:/Users/stapi/OneDrive/Desktop/GD32VW553/GD32VW55X_Wifi_BLE_SDK/GD32VW55x_RELEASE_V1.0.2/MSDK/plf/GD32VW55x_standard_peripheral/Source\gd32vw55x_rtc.c ****     \brief      configure RTC smooth calibration
1088:C:/Users/stapi/OneDrive/Desktop/GD32VW553/GD32VW55X_Wifi_BLE_SDK/GD32VW55x_RELEASE_V1.0.2/MSDK/plf/GD32VW55x_standard_peripheral/Source\gd32vw55x_rtc.c ****     \param[in]  window: select calibration window
1089:C:/Users/stapi/OneDrive/Desktop/GD32VW553/GD32VW55X_Wifi_BLE_SDK/GD32VW55x_RELEASE_V1.0.2/MSDK/plf/GD32VW55x_standard_peripheral/Source\gd32vw55x_rtc.c ****       \arg        RTC_CALIBRATION_WINDOW_32S: 2exp20 RTCCLK cycles, 32s if RTCCLK = 32768 Hz
1090:C:/Users/stapi/OneDrive/Desktop/GD32VW553/GD32VW55X_Wifi_BLE_SDK/GD32VW55x_RELEASE_V1.0.2/MSDK/plf/GD32VW55x_standard_peripheral/Source\gd32vw55x_rtc.c ****       \arg        RTC_CALIBRATION_WINDOW_16S: 2exp19 RTCCLK cycles, 16s if RTCCLK = 32768 Hz
1091:C:/Users/stapi/OneDrive/Desktop/GD32VW553/GD32VW55X_Wifi_BLE_SDK/GD32VW55x_RELEASE_V1.0.2/MSDK/plf/GD32VW55x_standard_peripheral/Source\gd32vw55x_rtc.c ****       \arg        RTC_CALIBRATION_WINDOW_8S: 2exp18 RTCCLK cycles, 8s if RTCCLK = 32768 Hz
1092:C:/Users/stapi/OneDrive/Desktop/GD32VW553/GD32VW55X_Wifi_BLE_SDK/GD32VW55x_RELEASE_V1.0.2/MSDK/plf/GD32VW55x_standard_peripheral/Source\gd32vw55x_rtc.c ****     \param[in]  plus: add RTC clock or not
1093:C:/Users/stapi/OneDrive/Desktop/GD32VW553/GD32VW55X_Wifi_BLE_SDK/GD32VW55x_RELEASE_V1.0.2/MSDK/plf/GD32VW55x_standard_peripheral/Source\gd32vw55x_rtc.c ****       \arg        RTC_CALIBRATION_PLUS_SET: add one RTC clock every 2048 rtc clock
1094:C:/Users/stapi/OneDrive/Desktop/GD32VW553/GD32VW55X_Wifi_BLE_SDK/GD32VW55x_RELEASE_V1.0.2/MSDK/plf/GD32VW55x_standard_peripheral/Source\gd32vw55x_rtc.c ****       \arg        RTC_CALIBRATION_PLUS_RESET: no effect
1095:C:/Users/stapi/OneDrive/Desktop/GD32VW553/GD32VW55X_Wifi_BLE_SDK/GD32VW55x_RELEASE_V1.0.2/MSDK/plf/GD32VW55x_standard_peripheral/Source\gd32vw55x_rtc.c ****     \param[in]  minus: the RTC clock to minus during the calibration window(0x0 - 0x1FF)
1096:C:/Users/stapi/OneDrive/Desktop/GD32VW553/GD32VW55X_Wifi_BLE_SDK/GD32VW55x_RELEASE_V1.0.2/MSDK/plf/GD32VW55x_standard_peripheral/Source\gd32vw55x_rtc.c ****     \param[out] none
1097:C:/Users/stapi/OneDrive/Desktop/GD32VW553/GD32VW55X_Wifi_BLE_SDK/GD32VW55x_RELEASE_V1.0.2/MSDK/plf/GD32VW55x_standard_peripheral/Source\gd32vw55x_rtc.c ****     \retval     ErrStatus: ERROR or SUCCESS
1098:C:/Users/stapi/OneDrive/Desktop/GD32VW553/GD32VW55X_Wifi_BLE_SDK/GD32VW55x_RELEASE_V1.0.2/MSDK/plf/GD32VW55x_standard_peripheral/Source\gd32vw55x_rtc.c **** */
1099:C:/Users/stapi/OneDrive/Desktop/GD32VW553/GD32VW55X_Wifi_BLE_SDK/GD32VW55x_RELEASE_V1.0.2/MSDK/plf/GD32VW55x_standard_peripheral/Source\gd32vw55x_rtc.c **** ErrStatus rtc_smooth_calibration_config(uint32_t window, uint32_t plus, uint32_t minus)
1100:C:/Users/stapi/OneDrive/Desktop/GD32VW553/GD32VW55X_Wifi_BLE_SDK/GD32VW55x_RELEASE_V1.0.2/MSDK/plf/GD32VW55x_standard_peripheral/Source\gd32vw55x_rtc.c **** {
 2204              		.loc 1 1100 1 is_stmt 1
 2205              		.cfi_startproc
 2206              	.LVL126:
1101:C:/Users/stapi/OneDrive/Desktop/GD32VW553/GD32VW55X_Wifi_BLE_SDK/GD32VW55x_RELEASE_V1.0.2/MSDK/plf/GD32VW55x_standard_peripheral/Source\gd32vw55x_rtc.c ****     volatile uint32_t time_index = RTC_HRFC_TIMEOUT;
 2207              		.loc 1 1101 5
 2208              		.loc 1 1101 23 is_stmt 0
 2209 0000 B7070020 		li	a5,536870912
1100:C:/Users/stapi/OneDrive/Desktop/GD32VW553/GD32VW55X_Wifi_BLE_SDK/GD32VW55x_RELEASE_V1.0.2/MSDK/plf/GD32VW55x_standard_peripheral/Source\gd32vw55x_rtc.c ****     volatile uint32_t time_index = RTC_HRFC_TIMEOUT;
 2210              		.loc 1 1100 1
 2211 0004 4111     		addi	sp,sp,-16
 2212              		.cfi_def_cfa_offset 16
 2213              		.loc 1 1101 23
 2214 0006 3EC6     		sw	a5,12(sp)
1102:C:/Users/stapi/OneDrive/Desktop/GD32VW553/GD32VW55X_Wifi_BLE_SDK/GD32VW55x_RELEASE_V1.0.2/MSDK/plf/GD32VW55x_standard_peripheral/Source\gd32vw55x_rtc.c ****     ErrStatus error_status = ERROR;
 2215              		.loc 1 1102 5 is_stmt 1
 2216              	.LVL127:
1103:C:/Users/stapi/OneDrive/Desktop/GD32VW553/GD32VW55X_Wifi_BLE_SDK/GD32VW55x_RELEASE_V1.0.2/MSDK/plf/GD32VW55x_standard_peripheral/Source\gd32vw55x_rtc.c ****     uint32_t flag_status = RESET;
 2217              		.loc 1 1103 5
1104:C:/Users/stapi/OneDrive/Desktop/GD32VW553/GD32VW55X_Wifi_BLE_SDK/GD32VW55x_RELEASE_V1.0.2/MSDK/plf/GD32VW55x_standard_peripheral/Source\gd32vw55x_rtc.c **** 
1105:C:/Users/stapi/OneDrive/Desktop/GD32VW553/GD32VW55X_Wifi_BLE_SDK/GD32VW55x_RELEASE_V1.0.2/MSDK/plf/GD32VW55x_standard_peripheral/Source\gd32vw55x_rtc.c ****     /* disable the write protection */
1106:C:/Users/stapi/OneDrive/Desktop/GD32VW553/GD32VW55X_Wifi_BLE_SDK/GD32VW55x_RELEASE_V1.0.2/MSDK/plf/GD32VW55x_standard_peripheral/Source\gd32vw55x_rtc.c ****     RTC_WPK = RTC_UNLOCK_KEY1;
 2218              		.loc 1 1106 5
 2219              		.loc 1 1106 13 is_stmt 0
 2220 0008 1307A00C 		li	a4,202
 2221 000c B7370040 		li	a5,1073754112
 2222 0010 23A2E782 		sw	a4,-2012(a5)
1107:C:/Users/stapi/OneDrive/Desktop/GD32VW553/GD32VW55X_Wifi_BLE_SDK/GD32VW55x_RELEASE_V1.0.2/MSDK/plf/GD32VW55x_standard_peripheral/Source\gd32vw55x_rtc.c ****     RTC_WPK = RTC_UNLOCK_KEY2;
 2223              		.loc 1 1107 5 is_stmt 1
 2224              		.loc 1 1107 13 is_stmt 0
 2225 0014 13073005 		li	a4,83
1100:C:/Users/stapi/OneDrive/Desktop/GD32VW553/GD32VW55X_Wifi_BLE_SDK/GD32VW55x_RELEASE_V1.0.2/MSDK/plf/GD32VW55x_standard_peripheral/Source\gd32vw55x_rtc.c ****     volatile uint32_t time_index = RTC_HRFC_TIMEOUT;
 2226              		.loc 1 1100 1
 2227 0018 AA86     		mv	a3,a0
 2228              		.loc 1 1107 13
 2229 001a 23A2E782 		sw	a4,-2012(a5)
1108:C:/Users/stapi/OneDrive/Desktop/GD32VW553/GD32VW55X_Wifi_BLE_SDK/GD32VW55x_RELEASE_V1.0.2/MSDK/plf/GD32VW55x_standard_peripheral/Source\gd32vw55x_rtc.c **** 
1109:C:/Users/stapi/OneDrive/Desktop/GD32VW553/GD32VW55X_Wifi_BLE_SDK/GD32VW55x_RELEASE_V1.0.2/MSDK/plf/GD32VW55x_standard_peripheral/Source\gd32vw55x_rtc.c ****     /* check if a smooth calibration operation is ongoing */
1110:C:/Users/stapi/OneDrive/Desktop/GD32VW553/GD32VW55X_Wifi_BLE_SDK/GD32VW55x_RELEASE_V1.0.2/MSDK/plf/GD32VW55x_standard_peripheral/Source\gd32vw55x_rtc.c ****     do {
1111:C:/Users/stapi/OneDrive/Desktop/GD32VW553/GD32VW55X_Wifi_BLE_SDK/GD32VW55x_RELEASE_V1.0.2/MSDK/plf/GD32VW55x_standard_peripheral/Source\gd32vw55x_rtc.c ****         flag_status = RTC_STAT & RTC_STAT_SCPF;
 2230              		.loc 1 1111 23
 2231 001e 37380040 		li	a6,1073754112
 2232              		.loc 1 1111 21
 2233 0022 C168     		li	a7,65536
 2234              	.LVL128:
 2235              	.L158:
1110:C:/Users/stapi/OneDrive/Desktop/GD32VW553/GD32VW55X_Wifi_BLE_SDK/GD32VW55x_RELEASE_V1.0.2/MSDK/plf/GD32VW55x_standard_peripheral/Source\gd32vw55x_rtc.c ****         flag_status = RTC_STAT & RTC_STAT_SCPF;
 2236              		.loc 1 1110 5 is_stmt 1 discriminator 2
 2237              		.loc 1 1111 9 discriminator 2
 2238              		.loc 1 1111 23 is_stmt 0 discriminator 2
 2239 0024 0327C880 		lw	a4,-2036(a6)
1112:C:/Users/stapi/OneDrive/Desktop/GD32VW553/GD32VW55X_Wifi_BLE_SDK/GD32VW55x_RELEASE_V1.0.2/MSDK/plf/GD32VW55x_standard_peripheral/Source\gd32vw55x_rtc.c ****     } while((--time_index > 0U) && ((uint32_t)RESET != flag_status));
 2240              		.loc 1 1112 14 discriminator 2
 2241 0028 B247     		lw	a5,12(sp)
1111:C:/Users/stapi/OneDrive/Desktop/GD32VW553/GD32VW55X_Wifi_BLE_SDK/GD32VW55x_RELEASE_V1.0.2/MSDK/plf/GD32VW55x_standard_peripheral/Source\gd32vw55x_rtc.c ****     } while((--time_index > 0U) && ((uint32_t)RESET != flag_status));
 2242              		.loc 1 1111 21 discriminator 2
 2243 002a 33771701 		and	a4,a4,a7
 2244              	.LVL129:
 2245              		.loc 1 1112 12 is_stmt 1 discriminator 2
 2246              		.loc 1 1112 14 is_stmt 0 discriminator 2
 2247 002e 1385F7FF 		addi	a0,a5,-1
 2248              		.loc 1 1112 5 discriminator 2
 2249 0032 2AC6     		sw	a0,12(sp)
 2250 0034 01CD     		beq	a0,zero,.L157
 2251              		.loc 1 1112 33 discriminator 1
 2252 0036 7DF7     		bne	a4,zero,.L158
 2253              	.L159:
1113:C:/Users/stapi/OneDrive/Desktop/GD32VW553/GD32VW55X_Wifi_BLE_SDK/GD32VW55x_RELEASE_V1.0.2/MSDK/plf/GD32VW55x_standard_peripheral/Source\gd32vw55x_rtc.c **** 
1114:C:/Users/stapi/OneDrive/Desktop/GD32VW553/GD32VW55X_Wifi_BLE_SDK/GD32VW55x_RELEASE_V1.0.2/MSDK/plf/GD32VW55x_standard_peripheral/Source\gd32vw55x_rtc.c ****     if((uint32_t)RESET == flag_status) {
1115:C:/Users/stapi/OneDrive/Desktop/GD32VW553/GD32VW55X_Wifi_BLE_SDK/GD32VW55x_RELEASE_V1.0.2/MSDK/plf/GD32VW55x_standard_peripheral/Source\gd32vw55x_rtc.c ****         RTC_HRFC = (uint32_t)(window | plus | HRFC_CMSK(minus));
 2254              		.loc 1 1115 9 is_stmt 1
 2255              		.loc 1 1115 47 is_stmt 0
 2256 0038 1376F61F 		andi	a2,a2,511
 2257              	.LVL130:
 2258              		.loc 1 1115 20
 2259 003c 4D8E     		or	a2,a2,a1
 2260 003e 558E     		or	a2,a2,a3
 2261              		.loc 1 1115 18
 2262 0040 B7370040 		li	a5,1073754112
 2263 0044 23AEC782 		sw	a2,-1988(a5)
1116:C:/Users/stapi/OneDrive/Desktop/GD32VW553/GD32VW55X_Wifi_BLE_SDK/GD32VW55x_RELEASE_V1.0.2/MSDK/plf/GD32VW55x_standard_peripheral/Source\gd32vw55x_rtc.c ****         error_status = SUCCESS;
 2264              		.loc 1 1116 9 is_stmt 1
 2265              	.LVL131:
 2266              		.loc 1 1116 22 is_stmt 0
 2267 0048 0545     		li	a0,1
 2268 004a 11A0     		j	.L160
 2269              	.LVL132:
 2270              	.L157:
1114:C:/Users/stapi/OneDrive/Desktop/GD32VW553/GD32VW55X_Wifi_BLE_SDK/GD32VW55x_RELEASE_V1.0.2/MSDK/plf/GD32VW55x_standard_peripheral/Source\gd32vw55x_rtc.c ****         RTC_HRFC = (uint32_t)(window | plus | HRFC_CMSK(minus));
 2271              		.loc 1 1114 5 is_stmt 1
1114:C:/Users/stapi/OneDrive/Desktop/GD32VW553/GD32VW55X_Wifi_BLE_SDK/GD32VW55x_RELEASE_V1.0.2/MSDK/plf/GD32VW55x_standard_peripheral/Source\gd32vw55x_rtc.c ****         RTC_HRFC = (uint32_t)(window | plus | HRFC_CMSK(minus));
 2272              		.loc 1 1114 7 is_stmt 0
 2273 004c 75D7     		beq	a4,zero,.L159
 2274              	.LVL133:
 2275              	.L160:
1117:C:/Users/stapi/OneDrive/Desktop/GD32VW553/GD32VW55X_Wifi_BLE_SDK/GD32VW55x_RELEASE_V1.0.2/MSDK/plf/GD32VW55x_standard_peripheral/Source\gd32vw55x_rtc.c ****     }
1118:C:/Users/stapi/OneDrive/Desktop/GD32VW553/GD32VW55X_Wifi_BLE_SDK/GD32VW55x_RELEASE_V1.0.2/MSDK/plf/GD32VW55x_standard_peripheral/Source\gd32vw55x_rtc.c **** 
1119:C:/Users/stapi/OneDrive/Desktop/GD32VW553/GD32VW55X_Wifi_BLE_SDK/GD32VW55x_RELEASE_V1.0.2/MSDK/plf/GD32VW55x_standard_peripheral/Source\gd32vw55x_rtc.c ****     /* enable the write protection */
1120:C:/Users/stapi/OneDrive/Desktop/GD32VW553/GD32VW55X_Wifi_BLE_SDK/GD32VW55x_RELEASE_V1.0.2/MSDK/plf/GD32VW55x_standard_peripheral/Source\gd32vw55x_rtc.c ****     RTC_WPK = RTC_LOCK_KEY;
 2276              		.loc 1 1120 5 is_stmt 1
 2277              		.loc 1 1120 13 is_stmt 0
 2278 004e B7370040 		li	a5,1073754112
 2279 0052 1307F00F 		li	a4,255
 2280              	.LVL134:
 2281 0056 23A2E782 		sw	a4,-2012(a5)
1121:C:/Users/stapi/OneDrive/Desktop/GD32VW553/GD32VW55X_Wifi_BLE_SDK/GD32VW55x_RELEASE_V1.0.2/MSDK/plf/GD32VW55x_standard_peripheral/Source\gd32vw55x_rtc.c **** 
1122:C:/Users/stapi/OneDrive/Desktop/GD32VW553/GD32VW55X_Wifi_BLE_SDK/GD32VW55x_RELEASE_V1.0.2/MSDK/plf/GD32VW55x_standard_peripheral/Source\gd32vw55x_rtc.c ****     return error_status;
 2282              		.loc 1 1122 5 is_stmt 1
1123:C:/Users/stapi/OneDrive/Desktop/GD32VW553/GD32VW55X_Wifi_BLE_SDK/GD32VW55x_RELEASE_V1.0.2/MSDK/plf/GD32VW55x_standard_peripheral/Source\gd32vw55x_rtc.c **** }
 2283              		.loc 1 1123 1 is_stmt 0
 2284 005a 4101     		addi	sp,sp,16
 2285              		.cfi_def_cfa_offset 0
 2286 005c 8280     		jr	ra
 2287              		.cfi_endproc
 2288              	.LFE400:
 2290              		.section	.text.rtc_coarse_calibration_enable,"ax",@progbits
 2291              		.align	1
 2292              		.globl	rtc_coarse_calibration_enable
 2294              	rtc_coarse_calibration_enable:
 2295              	.LFB401:
1124:C:/Users/stapi/OneDrive/Desktop/GD32VW553/GD32VW55X_Wifi_BLE_SDK/GD32VW55x_RELEASE_V1.0.2/MSDK/plf/GD32VW55x_standard_peripheral/Source\gd32vw55x_rtc.c **** 
1125:C:/Users/stapi/OneDrive/Desktop/GD32VW553/GD32VW55X_Wifi_BLE_SDK/GD32VW55x_RELEASE_V1.0.2/MSDK/plf/GD32VW55x_standard_peripheral/Source\gd32vw55x_rtc.c **** /*!
1126:C:/Users/stapi/OneDrive/Desktop/GD32VW553/GD32VW55X_Wifi_BLE_SDK/GD32VW55x_RELEASE_V1.0.2/MSDK/plf/GD32VW55x_standard_peripheral/Source\gd32vw55x_rtc.c ****     \brief      enable RTC coarse calibration
1127:C:/Users/stapi/OneDrive/Desktop/GD32VW553/GD32VW55X_Wifi_BLE_SDK/GD32VW55x_RELEASE_V1.0.2/MSDK/plf/GD32VW55x_standard_peripheral/Source\gd32vw55x_rtc.c ****     \param[in]  none
1128:C:/Users/stapi/OneDrive/Desktop/GD32VW553/GD32VW55X_Wifi_BLE_SDK/GD32VW55x_RELEASE_V1.0.2/MSDK/plf/GD32VW55x_standard_peripheral/Source\gd32vw55x_rtc.c ****     \param[out] none
1129:C:/Users/stapi/OneDrive/Desktop/GD32VW553/GD32VW55X_Wifi_BLE_SDK/GD32VW55x_RELEASE_V1.0.2/MSDK/plf/GD32VW55x_standard_peripheral/Source\gd32vw55x_rtc.c ****     \retval     ErrStatus: ERROR or SUCCESS
1130:C:/Users/stapi/OneDrive/Desktop/GD32VW553/GD32VW55X_Wifi_BLE_SDK/GD32VW55x_RELEASE_V1.0.2/MSDK/plf/GD32VW55x_standard_peripheral/Source\gd32vw55x_rtc.c **** */
1131:C:/Users/stapi/OneDrive/Desktop/GD32VW553/GD32VW55X_Wifi_BLE_SDK/GD32VW55x_RELEASE_V1.0.2/MSDK/plf/GD32VW55x_standard_peripheral/Source\gd32vw55x_rtc.c **** ErrStatus rtc_coarse_calibration_enable(void)
1132:C:/Users/stapi/OneDrive/Desktop/GD32VW553/GD32VW55X_Wifi_BLE_SDK/GD32VW55x_RELEASE_V1.0.2/MSDK/plf/GD32VW55x_standard_peripheral/Source\gd32vw55x_rtc.c **** {
 2296              		.loc 1 1132 1 is_stmt 1
 2297              		.cfi_startproc
 2298 0000 17030000 		call	t0,__riscv_save_1
 2298      E7020300 
 2299              		.cfi_offset 8, -8
 2300              		.cfi_offset 1, -4
 2301              		.cfi_def_cfa_offset 16
1133:C:/Users/stapi/OneDrive/Desktop/GD32VW553/GD32VW55X_Wifi_BLE_SDK/GD32VW55x_RELEASE_V1.0.2/MSDK/plf/GD32VW55x_standard_peripheral/Source\gd32vw55x_rtc.c ****     ErrStatus error_status = ERROR;
 2302              		.loc 1 1133 5
 2303              	.LVL135:
1134:C:/Users/stapi/OneDrive/Desktop/GD32VW553/GD32VW55X_Wifi_BLE_SDK/GD32VW55x_RELEASE_V1.0.2/MSDK/plf/GD32VW55x_standard_peripheral/Source\gd32vw55x_rtc.c ****     /* disable the write protection */
1135:C:/Users/stapi/OneDrive/Desktop/GD32VW553/GD32VW55X_Wifi_BLE_SDK/GD32VW55x_RELEASE_V1.0.2/MSDK/plf/GD32VW55x_standard_peripheral/Source\gd32vw55x_rtc.c ****     RTC_WPK = RTC_UNLOCK_KEY1;
 2304              		.loc 1 1135 5
 2305              		.loc 1 1135 13 is_stmt 0
 2306 0008 37340040 		li	s0,1073754112
 2307 000c 9307A00C 		li	a5,202
 2308 0010 2322F482 		sw	a5,-2012(s0)
1136:C:/Users/stapi/OneDrive/Desktop/GD32VW553/GD32VW55X_Wifi_BLE_SDK/GD32VW55x_RELEASE_V1.0.2/MSDK/plf/GD32VW55x_standard_peripheral/Source\gd32vw55x_rtc.c ****     RTC_WPK = RTC_UNLOCK_KEY2;
 2309              		.loc 1 1136 5 is_stmt 1
 2310              		.loc 1 1136 13 is_stmt 0
 2311 0014 93073005 		li	a5,83
1132:C:/Users/stapi/OneDrive/Desktop/GD32VW553/GD32VW55X_Wifi_BLE_SDK/GD32VW55x_RELEASE_V1.0.2/MSDK/plf/GD32VW55x_standard_peripheral/Source\gd32vw55x_rtc.c ****     ErrStatus error_status = ERROR;
 2312              		.loc 1 1132 1
 2313 0018 4111     		addi	sp,sp,-16
 2314              		.cfi_def_cfa_offset 32
 2315              		.loc 1 1136 13
 2316 001a 2322F482 		sw	a5,-2012(s0)
1137:C:/Users/stapi/OneDrive/Desktop/GD32VW553/GD32VW55X_Wifi_BLE_SDK/GD32VW55x_RELEASE_V1.0.2/MSDK/plf/GD32VW55x_standard_peripheral/Source\gd32vw55x_rtc.c ****     /* enter init mode */
1138:C:/Users/stapi/OneDrive/Desktop/GD32VW553/GD32VW55X_Wifi_BLE_SDK/GD32VW55x_RELEASE_V1.0.2/MSDK/plf/GD32VW55x_standard_peripheral/Source\gd32vw55x_rtc.c ****     error_status = rtc_init_mode_enter();
 2317              		.loc 1 1138 5 is_stmt 1
 2318              		.loc 1 1138 20 is_stmt 0
 2319 001e 97000000 		call	rtc_init_mode_enter
 2319      E7800000 
 2320              	.LVL136:
1139:C:/Users/stapi/OneDrive/Desktop/GD32VW553/GD32VW55X_Wifi_BLE_SDK/GD32VW55x_RELEASE_V1.0.2/MSDK/plf/GD32VW55x_standard_peripheral/Source\gd32vw55x_rtc.c **** 
1140:C:/Users/stapi/OneDrive/Desktop/GD32VW553/GD32VW55X_Wifi_BLE_SDK/GD32VW55x_RELEASE_V1.0.2/MSDK/plf/GD32VW55x_standard_peripheral/Source\gd32vw55x_rtc.c ****     if(ERROR != error_status) {
 2321              		.loc 1 1140 5 is_stmt 1
 2322              		.loc 1 1140 7 is_stmt 0
 2323 0026 09CD     		beq	a0,zero,.L164
1141:C:/Users/stapi/OneDrive/Desktop/GD32VW553/GD32VW55X_Wifi_BLE_SDK/GD32VW55x_RELEASE_V1.0.2/MSDK/plf/GD32VW55x_standard_peripheral/Source\gd32vw55x_rtc.c ****         RTC_CTL |= (uint32_t)RTC_CTL_CCEN;
 2324              		.loc 1 1141 17
 2325 0028 83278480 		lw	a5,-2040(s0)
 2326 002c 2AC6     		sw	a0,12(sp)
 2327              		.loc 1 1141 9 is_stmt 1
 2328              		.loc 1 1141 17 is_stmt 0
 2329 002e 93E70708 		ori	a5,a5,128
 2330 0032 2324F480 		sw	a5,-2040(s0)
1142:C:/Users/stapi/OneDrive/Desktop/GD32VW553/GD32VW55X_Wifi_BLE_SDK/GD32VW55x_RELEASE_V1.0.2/MSDK/plf/GD32VW55x_standard_peripheral/Source\gd32vw55x_rtc.c ****         /* exit init mode */
1143:C:/Users/stapi/OneDrive/Desktop/GD32VW553/GD32VW55X_Wifi_BLE_SDK/GD32VW55x_RELEASE_V1.0.2/MSDK/plf/GD32VW55x_standard_peripheral/Source\gd32vw55x_rtc.c ****         rtc_init_mode_exit();
 2331              		.loc 1 1143 9 is_stmt 1
 2332 0036 97000000 		call	rtc_init_mode_exit
 2332      E7800000 
 2333              	.LVL137:
 2334 003e 3245     		lw	a0,12(sp)
 2335              	.LVL138:
 2336              	.L164:
1144:C:/Users/stapi/OneDrive/Desktop/GD32VW553/GD32VW55X_Wifi_BLE_SDK/GD32VW55x_RELEASE_V1.0.2/MSDK/plf/GD32VW55x_standard_peripheral/Source\gd32vw55x_rtc.c ****     }
1145:C:/Users/stapi/OneDrive/Desktop/GD32VW553/GD32VW55X_Wifi_BLE_SDK/GD32VW55x_RELEASE_V1.0.2/MSDK/plf/GD32VW55x_standard_peripheral/Source\gd32vw55x_rtc.c ****     /* enable the write protection */
1146:C:/Users/stapi/OneDrive/Desktop/GD32VW553/GD32VW55X_Wifi_BLE_SDK/GD32VW55x_RELEASE_V1.0.2/MSDK/plf/GD32VW55x_standard_peripheral/Source\gd32vw55x_rtc.c ****     RTC_WPK = RTC_LOCK_KEY;
 2337              		.loc 1 1146 5
 2338              		.loc 1 1146 13 is_stmt 0
 2339 0040 B7370040 		li	a5,1073754112
 2340 0044 1307F00F 		li	a4,255
 2341 0048 23A2E782 		sw	a4,-2012(a5)
1147:C:/Users/stapi/OneDrive/Desktop/GD32VW553/GD32VW55X_Wifi_BLE_SDK/GD32VW55x_RELEASE_V1.0.2/MSDK/plf/GD32VW55x_standard_peripheral/Source\gd32vw55x_rtc.c ****     return error_status;
 2342              		.loc 1 1147 5 is_stmt 1
1148:C:/Users/stapi/OneDrive/Desktop/GD32VW553/GD32VW55X_Wifi_BLE_SDK/GD32VW55x_RELEASE_V1.0.2/MSDK/plf/GD32VW55x_standard_peripheral/Source\gd32vw55x_rtc.c **** }
 2343              		.loc 1 1148 1 is_stmt 0
 2344 004c 4101     		addi	sp,sp,16
 2345              		.cfi_def_cfa_offset 0
 2346 004e 17030000 		tail	__riscv_restore_1
 2346      67000300 
 2347              		.cfi_restore 8
 2348              		.cfi_restore 1
 2349              		.cfi_def_cfa_offset -16
 2350              		.cfi_endproc
 2351              	.LFE401:
 2353              		.section	.text.rtc_coarse_calibration_disable,"ax",@progbits
 2354              		.align	1
 2355              		.globl	rtc_coarse_calibration_disable
 2357              	rtc_coarse_calibration_disable:
 2358              	.LFB402:
1149:C:/Users/stapi/OneDrive/Desktop/GD32VW553/GD32VW55X_Wifi_BLE_SDK/GD32VW55x_RELEASE_V1.0.2/MSDK/plf/GD32VW55x_standard_peripheral/Source\gd32vw55x_rtc.c **** 
1150:C:/Users/stapi/OneDrive/Desktop/GD32VW553/GD32VW55X_Wifi_BLE_SDK/GD32VW55x_RELEASE_V1.0.2/MSDK/plf/GD32VW55x_standard_peripheral/Source\gd32vw55x_rtc.c **** /*!
1151:C:/Users/stapi/OneDrive/Desktop/GD32VW553/GD32VW55X_Wifi_BLE_SDK/GD32VW55x_RELEASE_V1.0.2/MSDK/plf/GD32VW55x_standard_peripheral/Source\gd32vw55x_rtc.c ****     \brief      disable RTC coarse calibration
1152:C:/Users/stapi/OneDrive/Desktop/GD32VW553/GD32VW55X_Wifi_BLE_SDK/GD32VW55x_RELEASE_V1.0.2/MSDK/plf/GD32VW55x_standard_peripheral/Source\gd32vw55x_rtc.c ****     \param[in]  none
1153:C:/Users/stapi/OneDrive/Desktop/GD32VW553/GD32VW55X_Wifi_BLE_SDK/GD32VW55x_RELEASE_V1.0.2/MSDK/plf/GD32VW55x_standard_peripheral/Source\gd32vw55x_rtc.c ****     \param[out] none
1154:C:/Users/stapi/OneDrive/Desktop/GD32VW553/GD32VW55X_Wifi_BLE_SDK/GD32VW55x_RELEASE_V1.0.2/MSDK/plf/GD32VW55x_standard_peripheral/Source\gd32vw55x_rtc.c ****     \retval     ErrStatus: ERROR or SUCCESS
1155:C:/Users/stapi/OneDrive/Desktop/GD32VW553/GD32VW55X_Wifi_BLE_SDK/GD32VW55x_RELEASE_V1.0.2/MSDK/plf/GD32VW55x_standard_peripheral/Source\gd32vw55x_rtc.c **** */
1156:C:/Users/stapi/OneDrive/Desktop/GD32VW553/GD32VW55X_Wifi_BLE_SDK/GD32VW55x_RELEASE_V1.0.2/MSDK/plf/GD32VW55x_standard_peripheral/Source\gd32vw55x_rtc.c **** ErrStatus rtc_coarse_calibration_disable(void)
1157:C:/Users/stapi/OneDrive/Desktop/GD32VW553/GD32VW55X_Wifi_BLE_SDK/GD32VW55x_RELEASE_V1.0.2/MSDK/plf/GD32VW55x_standard_peripheral/Source\gd32vw55x_rtc.c **** {
 2359              		.loc 1 1157 1 is_stmt 1
 2360              		.cfi_startproc
 2361 0000 17030000 		call	t0,__riscv_save_1
 2361      E7020300 
 2362              		.cfi_offset 8, -8
 2363              		.cfi_offset 1, -4
 2364              		.cfi_def_cfa_offset 16
1158:C:/Users/stapi/OneDrive/Desktop/GD32VW553/GD32VW55X_Wifi_BLE_SDK/GD32VW55x_RELEASE_V1.0.2/MSDK/plf/GD32VW55x_standard_peripheral/Source\gd32vw55x_rtc.c ****     ErrStatus error_status = ERROR;
 2365              		.loc 1 1158 5
 2366              	.LVL139:
1159:C:/Users/stapi/OneDrive/Desktop/GD32VW553/GD32VW55X_Wifi_BLE_SDK/GD32VW55x_RELEASE_V1.0.2/MSDK/plf/GD32VW55x_standard_peripheral/Source\gd32vw55x_rtc.c ****     /* disable the write protection */
1160:C:/Users/stapi/OneDrive/Desktop/GD32VW553/GD32VW55X_Wifi_BLE_SDK/GD32VW55x_RELEASE_V1.0.2/MSDK/plf/GD32VW55x_standard_peripheral/Source\gd32vw55x_rtc.c ****     RTC_WPK = RTC_UNLOCK_KEY1;
 2367              		.loc 1 1160 5
 2368              		.loc 1 1160 13 is_stmt 0
 2369 0008 37340040 		li	s0,1073754112
 2370 000c 9307A00C 		li	a5,202
 2371 0010 2322F482 		sw	a5,-2012(s0)
1161:C:/Users/stapi/OneDrive/Desktop/GD32VW553/GD32VW55X_Wifi_BLE_SDK/GD32VW55x_RELEASE_V1.0.2/MSDK/plf/GD32VW55x_standard_peripheral/Source\gd32vw55x_rtc.c ****     RTC_WPK = RTC_UNLOCK_KEY2;
 2372              		.loc 1 1161 5 is_stmt 1
 2373              		.loc 1 1161 13 is_stmt 0
 2374 0014 93073005 		li	a5,83
1157:C:/Users/stapi/OneDrive/Desktop/GD32VW553/GD32VW55X_Wifi_BLE_SDK/GD32VW55x_RELEASE_V1.0.2/MSDK/plf/GD32VW55x_standard_peripheral/Source\gd32vw55x_rtc.c ****     ErrStatus error_status = ERROR;
 2375              		.loc 1 1157 1
 2376 0018 4111     		addi	sp,sp,-16
 2377              		.cfi_def_cfa_offset 32
 2378              		.loc 1 1161 13
 2379 001a 2322F482 		sw	a5,-2012(s0)
1162:C:/Users/stapi/OneDrive/Desktop/GD32VW553/GD32VW55X_Wifi_BLE_SDK/GD32VW55x_RELEASE_V1.0.2/MSDK/plf/GD32VW55x_standard_peripheral/Source\gd32vw55x_rtc.c ****     /* enter init mode */
1163:C:/Users/stapi/OneDrive/Desktop/GD32VW553/GD32VW55X_Wifi_BLE_SDK/GD32VW55x_RELEASE_V1.0.2/MSDK/plf/GD32VW55x_standard_peripheral/Source\gd32vw55x_rtc.c ****     error_status = rtc_init_mode_enter();
 2380              		.loc 1 1163 5 is_stmt 1
 2381              		.loc 1 1163 20 is_stmt 0
 2382 001e 97000000 		call	rtc_init_mode_enter
 2382      E7800000 
 2383              	.LVL140:
1164:C:/Users/stapi/OneDrive/Desktop/GD32VW553/GD32VW55X_Wifi_BLE_SDK/GD32VW55x_RELEASE_V1.0.2/MSDK/plf/GD32VW55x_standard_peripheral/Source\gd32vw55x_rtc.c **** 
1165:C:/Users/stapi/OneDrive/Desktop/GD32VW553/GD32VW55X_Wifi_BLE_SDK/GD32VW55x_RELEASE_V1.0.2/MSDK/plf/GD32VW55x_standard_peripheral/Source\gd32vw55x_rtc.c ****     if(ERROR != error_status) {
 2384              		.loc 1 1165 5 is_stmt 1
 2385              		.loc 1 1165 7 is_stmt 0
 2386 0026 09CD     		beq	a0,zero,.L170
1166:C:/Users/stapi/OneDrive/Desktop/GD32VW553/GD32VW55X_Wifi_BLE_SDK/GD32VW55x_RELEASE_V1.0.2/MSDK/plf/GD32VW55x_standard_peripheral/Source\gd32vw55x_rtc.c ****         RTC_CTL &= (uint32_t)~RTC_CTL_CCEN;
 2387              		.loc 1 1166 17
 2388 0028 83278480 		lw	a5,-2040(s0)
 2389 002c 2AC6     		sw	a0,12(sp)
 2390              		.loc 1 1166 9 is_stmt 1
 2391              		.loc 1 1166 17 is_stmt 0
 2392 002e 93F7F7F7 		andi	a5,a5,-129
 2393 0032 2324F480 		sw	a5,-2040(s0)
1167:C:/Users/stapi/OneDrive/Desktop/GD32VW553/GD32VW55X_Wifi_BLE_SDK/GD32VW55x_RELEASE_V1.0.2/MSDK/plf/GD32VW55x_standard_peripheral/Source\gd32vw55x_rtc.c ****         /* exit init mode */
1168:C:/Users/stapi/OneDrive/Desktop/GD32VW553/GD32VW55X_Wifi_BLE_SDK/GD32VW55x_RELEASE_V1.0.2/MSDK/plf/GD32VW55x_standard_peripheral/Source\gd32vw55x_rtc.c ****         rtc_init_mode_exit();
 2394              		.loc 1 1168 9 is_stmt 1
 2395 0036 97000000 		call	rtc_init_mode_exit
 2395      E7800000 
 2396              	.LVL141:
 2397 003e 3245     		lw	a0,12(sp)
 2398              	.LVL142:
 2399              	.L170:
1169:C:/Users/stapi/OneDrive/Desktop/GD32VW553/GD32VW55X_Wifi_BLE_SDK/GD32VW55x_RELEASE_V1.0.2/MSDK/plf/GD32VW55x_standard_peripheral/Source\gd32vw55x_rtc.c ****     }
1170:C:/Users/stapi/OneDrive/Desktop/GD32VW553/GD32VW55X_Wifi_BLE_SDK/GD32VW55x_RELEASE_V1.0.2/MSDK/plf/GD32VW55x_standard_peripheral/Source\gd32vw55x_rtc.c **** 
1171:C:/Users/stapi/OneDrive/Desktop/GD32VW553/GD32VW55X_Wifi_BLE_SDK/GD32VW55x_RELEASE_V1.0.2/MSDK/plf/GD32VW55x_standard_peripheral/Source\gd32vw55x_rtc.c ****     /* enable the write protection */
1172:C:/Users/stapi/OneDrive/Desktop/GD32VW553/GD32VW55X_Wifi_BLE_SDK/GD32VW55x_RELEASE_V1.0.2/MSDK/plf/GD32VW55x_standard_peripheral/Source\gd32vw55x_rtc.c ****     RTC_WPK = RTC_LOCK_KEY;
 2400              		.loc 1 1172 5
 2401              		.loc 1 1172 13 is_stmt 0
 2402 0040 B7370040 		li	a5,1073754112
 2403 0044 1307F00F 		li	a4,255
 2404 0048 23A2E782 		sw	a4,-2012(a5)
1173:C:/Users/stapi/OneDrive/Desktop/GD32VW553/GD32VW55X_Wifi_BLE_SDK/GD32VW55x_RELEASE_V1.0.2/MSDK/plf/GD32VW55x_standard_peripheral/Source\gd32vw55x_rtc.c ****     return error_status;
 2405              		.loc 1 1173 5 is_stmt 1
1174:C:/Users/stapi/OneDrive/Desktop/GD32VW553/GD32VW55X_Wifi_BLE_SDK/GD32VW55x_RELEASE_V1.0.2/MSDK/plf/GD32VW55x_standard_peripheral/Source\gd32vw55x_rtc.c **** }
 2406              		.loc 1 1174 1 is_stmt 0
 2407 004c 4101     		addi	sp,sp,16
 2408              		.cfi_def_cfa_offset 0
 2409 004e 17030000 		tail	__riscv_restore_1
 2409      67000300 
 2410              		.cfi_restore 8
 2411              		.cfi_restore 1
 2412              		.cfi_def_cfa_offset -16
 2413              		.cfi_endproc
 2414              	.LFE402:
 2416              		.section	.text.rtc_coarse_calibration_config,"ax",@progbits
 2417              		.align	1
 2418              		.globl	rtc_coarse_calibration_config
 2420              	rtc_coarse_calibration_config:
 2421              	.LFB403:
1175:C:/Users/stapi/OneDrive/Desktop/GD32VW553/GD32VW55X_Wifi_BLE_SDK/GD32VW55x_RELEASE_V1.0.2/MSDK/plf/GD32VW55x_standard_peripheral/Source\gd32vw55x_rtc.c **** 
1176:C:/Users/stapi/OneDrive/Desktop/GD32VW553/GD32VW55X_Wifi_BLE_SDK/GD32VW55x_RELEASE_V1.0.2/MSDK/plf/GD32VW55x_standard_peripheral/Source\gd32vw55x_rtc.c **** /*!
1177:C:/Users/stapi/OneDrive/Desktop/GD32VW553/GD32VW55X_Wifi_BLE_SDK/GD32VW55x_RELEASE_V1.0.2/MSDK/plf/GD32VW55x_standard_peripheral/Source\gd32vw55x_rtc.c ****     \brief      config coarse calibration direction and step
1178:C:/Users/stapi/OneDrive/Desktop/GD32VW553/GD32VW55X_Wifi_BLE_SDK/GD32VW55x_RELEASE_V1.0.2/MSDK/plf/GD32VW55x_standard_peripheral/Source\gd32vw55x_rtc.c ****     \param[in]  direction: CALIB_INCREASE or CALIB_DECREASE
1179:C:/Users/stapi/OneDrive/Desktop/GD32VW553/GD32VW55X_Wifi_BLE_SDK/GD32VW55x_RELEASE_V1.0.2/MSDK/plf/GD32VW55x_standard_peripheral/Source\gd32vw55x_rtc.c ****     \param[in]  step: 0x00-0x1F
1180:C:/Users/stapi/OneDrive/Desktop/GD32VW553/GD32VW55X_Wifi_BLE_SDK/GD32VW55x_RELEASE_V1.0.2/MSDK/plf/GD32VW55x_standard_peripheral/Source\gd32vw55x_rtc.c ****                 COSD=0:
1181:C:/Users/stapi/OneDrive/Desktop/GD32VW553/GD32VW55X_Wifi_BLE_SDK/GD32VW55x_RELEASE_V1.0.2/MSDK/plf/GD32VW55x_standard_peripheral/Source\gd32vw55x_rtc.c ****                   0x00:+0 PPM
1182:C:/Users/stapi/OneDrive/Desktop/GD32VW553/GD32VW55X_Wifi_BLE_SDK/GD32VW55x_RELEASE_V1.0.2/MSDK/plf/GD32VW55x_standard_peripheral/Source\gd32vw55x_rtc.c ****                   0x01:+4 PPM
1183:C:/Users/stapi/OneDrive/Desktop/GD32VW553/GD32VW55X_Wifi_BLE_SDK/GD32VW55x_RELEASE_V1.0.2/MSDK/plf/GD32VW55x_standard_peripheral/Source\gd32vw55x_rtc.c ****                   0x02:+8 PPM
1184:C:/Users/stapi/OneDrive/Desktop/GD32VW553/GD32VW55X_Wifi_BLE_SDK/GD32VW55x_RELEASE_V1.0.2/MSDK/plf/GD32VW55x_standard_peripheral/Source\gd32vw55x_rtc.c ****                   ....
1185:C:/Users/stapi/OneDrive/Desktop/GD32VW553/GD32VW55X_Wifi_BLE_SDK/GD32VW55x_RELEASE_V1.0.2/MSDK/plf/GD32VW55x_standard_peripheral/Source\gd32vw55x_rtc.c ****                   0x1F:+126 PPM
1186:C:/Users/stapi/OneDrive/Desktop/GD32VW553/GD32VW55X_Wifi_BLE_SDK/GD32VW55x_RELEASE_V1.0.2/MSDK/plf/GD32VW55x_standard_peripheral/Source\gd32vw55x_rtc.c ****                 COSD=1:
1187:C:/Users/stapi/OneDrive/Desktop/GD32VW553/GD32VW55X_Wifi_BLE_SDK/GD32VW55x_RELEASE_V1.0.2/MSDK/plf/GD32VW55x_standard_peripheral/Source\gd32vw55x_rtc.c ****                   0x00:-0 PPM
1188:C:/Users/stapi/OneDrive/Desktop/GD32VW553/GD32VW55X_Wifi_BLE_SDK/GD32VW55x_RELEASE_V1.0.2/MSDK/plf/GD32VW55x_standard_peripheral/Source\gd32vw55x_rtc.c ****                   0x01:-2 PPM
1189:C:/Users/stapi/OneDrive/Desktop/GD32VW553/GD32VW55X_Wifi_BLE_SDK/GD32VW55x_RELEASE_V1.0.2/MSDK/plf/GD32VW55x_standard_peripheral/Source\gd32vw55x_rtc.c ****                   0x02:-4 PPM
1190:C:/Users/stapi/OneDrive/Desktop/GD32VW553/GD32VW55X_Wifi_BLE_SDK/GD32VW55x_RELEASE_V1.0.2/MSDK/plf/GD32VW55x_standard_peripheral/Source\gd32vw55x_rtc.c ****                   ....
1191:C:/Users/stapi/OneDrive/Desktop/GD32VW553/GD32VW55X_Wifi_BLE_SDK/GD32VW55x_RELEASE_V1.0.2/MSDK/plf/GD32VW55x_standard_peripheral/Source\gd32vw55x_rtc.c ****                   0x1F:-63 PPM
1192:C:/Users/stapi/OneDrive/Desktop/GD32VW553/GD32VW55X_Wifi_BLE_SDK/GD32VW55x_RELEASE_V1.0.2/MSDK/plf/GD32VW55x_standard_peripheral/Source\gd32vw55x_rtc.c ****     \param[out] none
1193:C:/Users/stapi/OneDrive/Desktop/GD32VW553/GD32VW55X_Wifi_BLE_SDK/GD32VW55x_RELEASE_V1.0.2/MSDK/plf/GD32VW55x_standard_peripheral/Source\gd32vw55x_rtc.c ****     \retval     ErrStatus: ERROR or SUCCESS
1194:C:/Users/stapi/OneDrive/Desktop/GD32VW553/GD32VW55X_Wifi_BLE_SDK/GD32VW55x_RELEASE_V1.0.2/MSDK/plf/GD32VW55x_standard_peripheral/Source\gd32vw55x_rtc.c **** */
1195:C:/Users/stapi/OneDrive/Desktop/GD32VW553/GD32VW55X_Wifi_BLE_SDK/GD32VW55x_RELEASE_V1.0.2/MSDK/plf/GD32VW55x_standard_peripheral/Source\gd32vw55x_rtc.c **** ErrStatus rtc_coarse_calibration_config(uint8_t direction, uint8_t step)
1196:C:/Users/stapi/OneDrive/Desktop/GD32VW553/GD32VW55X_Wifi_BLE_SDK/GD32VW55x_RELEASE_V1.0.2/MSDK/plf/GD32VW55x_standard_peripheral/Source\gd32vw55x_rtc.c **** {
 2422              		.loc 1 1196 1 is_stmt 1
 2423              		.cfi_startproc
 2424              	.LVL143:
 2425 0000 17030000 		call	t0,__riscv_save_3
 2425      E7020300 
 2426              		.cfi_offset 18, -16
 2427              		.cfi_offset 9, -12
 2428              		.cfi_offset 8, -8
 2429              		.cfi_offset 1, -4
 2430              		.cfi_def_cfa_offset 16
1197:C:/Users/stapi/OneDrive/Desktop/GD32VW553/GD32VW55X_Wifi_BLE_SDK/GD32VW55x_RELEASE_V1.0.2/MSDK/plf/GD32VW55x_standard_peripheral/Source\gd32vw55x_rtc.c ****     ErrStatus error_status = ERROR;
 2431              		.loc 1 1197 5
 2432              	.LVL144:
1198:C:/Users/stapi/OneDrive/Desktop/GD32VW553/GD32VW55X_Wifi_BLE_SDK/GD32VW55x_RELEASE_V1.0.2/MSDK/plf/GD32VW55x_standard_peripheral/Source\gd32vw55x_rtc.c ****     /* disable the write protection */
1199:C:/Users/stapi/OneDrive/Desktop/GD32VW553/GD32VW55X_Wifi_BLE_SDK/GD32VW55x_RELEASE_V1.0.2/MSDK/plf/GD32VW55x_standard_peripheral/Source\gd32vw55x_rtc.c ****     RTC_WPK = RTC_UNLOCK_KEY1;
 2433              		.loc 1 1199 5
 2434              		.loc 1 1199 13 is_stmt 0
 2435 0008 B7340040 		li	s1,1073754112
 2436 000c 9307A00C 		li	a5,202
 2437 0010 23A2F482 		sw	a5,-2012(s1)
1200:C:/Users/stapi/OneDrive/Desktop/GD32VW553/GD32VW55X_Wifi_BLE_SDK/GD32VW55x_RELEASE_V1.0.2/MSDK/plf/GD32VW55x_standard_peripheral/Source\gd32vw55x_rtc.c ****     RTC_WPK = RTC_UNLOCK_KEY2;
 2438              		.loc 1 1200 5 is_stmt 1
 2439              		.loc 1 1200 13 is_stmt 0
 2440 0014 93073005 		li	a5,83
1196:C:/Users/stapi/OneDrive/Desktop/GD32VW553/GD32VW55X_Wifi_BLE_SDK/GD32VW55x_RELEASE_V1.0.2/MSDK/plf/GD32VW55x_standard_peripheral/Source\gd32vw55x_rtc.c ****     ErrStatus error_status = ERROR;
 2441              		.loc 1 1196 1
 2442 0018 4111     		addi	sp,sp,-16
 2443              		.cfi_def_cfa_offset 32
 2444              		.loc 1 1200 13
 2445 001a 23A2F482 		sw	a5,-2012(s1)
1201:C:/Users/stapi/OneDrive/Desktop/GD32VW553/GD32VW55X_Wifi_BLE_SDK/GD32VW55x_RELEASE_V1.0.2/MSDK/plf/GD32VW55x_standard_peripheral/Source\gd32vw55x_rtc.c **** 
1202:C:/Users/stapi/OneDrive/Desktop/GD32VW553/GD32VW55X_Wifi_BLE_SDK/GD32VW55x_RELEASE_V1.0.2/MSDK/plf/GD32VW55x_standard_peripheral/Source\gd32vw55x_rtc.c ****     /* enter init mode */
1203:C:/Users/stapi/OneDrive/Desktop/GD32VW553/GD32VW55X_Wifi_BLE_SDK/GD32VW55x_RELEASE_V1.0.2/MSDK/plf/GD32VW55x_standard_peripheral/Source\gd32vw55x_rtc.c ****     error_status = rtc_init_mode_enter();
 2446              		.loc 1 1203 5 is_stmt 1
1196:C:/Users/stapi/OneDrive/Desktop/GD32VW553/GD32VW55X_Wifi_BLE_SDK/GD32VW55x_RELEASE_V1.0.2/MSDK/plf/GD32VW55x_standard_peripheral/Source\gd32vw55x_rtc.c ****     ErrStatus error_status = ERROR;
 2447              		.loc 1 1196 1 is_stmt 0
 2448 001e 2A89     		mv	s2,a0
 2449 0020 2E84     		mv	s0,a1
 2450              		.loc 1 1203 20
 2451 0022 97000000 		call	rtc_init_mode_enter
 2451      E7800000 
 2452              	.LVL145:
1204:C:/Users/stapi/OneDrive/Desktop/GD32VW553/GD32VW55X_Wifi_BLE_SDK/GD32VW55x_RELEASE_V1.0.2/MSDK/plf/GD32VW55x_standard_peripheral/Source\gd32vw55x_rtc.c **** 
1205:C:/Users/stapi/OneDrive/Desktop/GD32VW553/GD32VW55X_Wifi_BLE_SDK/GD32VW55x_RELEASE_V1.0.2/MSDK/plf/GD32VW55x_standard_peripheral/Source\gd32vw55x_rtc.c ****     if(ERROR != error_status) {
 2453              		.loc 1 1205 5 is_stmt 1
 2454              		.loc 1 1205 7 is_stmt 0
 2455 002a 1DC9     		beq	a0,zero,.L176
1206:C:/Users/stapi/OneDrive/Desktop/GD32VW553/GD32VW55X_Wifi_BLE_SDK/GD32VW55x_RELEASE_V1.0.2/MSDK/plf/GD32VW55x_standard_peripheral/Source\gd32vw55x_rtc.c ****         if(CALIB_DECREASE == direction) {
 2456              		.loc 1 1206 9 is_stmt 1
 2457              		.loc 1 1206 11 is_stmt 0
 2458 002c 8947     		li	a5,2
 2459 002e 6314F904 		bne	s2,a5,.L177
1207:C:/Users/stapi/OneDrive/Desktop/GD32VW553/GD32VW55X_Wifi_BLE_SDK/GD32VW55x_RELEASE_V1.0.2/MSDK/plf/GD32VW55x_standard_peripheral/Source\gd32vw55x_rtc.c ****             RTC_COSC |= (uint32_t)RTC_COSC_COSD;
 2460              		.loc 1 1207 13 is_stmt 1
 2461              		.loc 1 1207 22 is_stmt 0
 2462 0032 83A78481 		lw	a5,-2024(s1)
 2463 0036 93E70708 		ori	a5,a5,128
 2464              	.L183:
1208:C:/Users/stapi/OneDrive/Desktop/GD32VW553/GD32VW55X_Wifi_BLE_SDK/GD32VW55x_RELEASE_V1.0.2/MSDK/plf/GD32VW55x_standard_peripheral/Source\gd32vw55x_rtc.c ****         } else {
1209:C:/Users/stapi/OneDrive/Desktop/GD32VW553/GD32VW55X_Wifi_BLE_SDK/GD32VW55x_RELEASE_V1.0.2/MSDK/plf/GD32VW55x_standard_peripheral/Source\gd32vw55x_rtc.c ****             RTC_COSC &= (uint32_t)~RTC_COSC_COSD;
 2465              		.loc 1 1209 22
 2466 003a 23ACF480 		sw	a5,-2024(s1)
1210:C:/Users/stapi/OneDrive/Desktop/GD32VW553/GD32VW55X_Wifi_BLE_SDK/GD32VW55x_RELEASE_V1.0.2/MSDK/plf/GD32VW55x_standard_peripheral/Source\gd32vw55x_rtc.c ****         }
1211:C:/Users/stapi/OneDrive/Desktop/GD32VW553/GD32VW55X_Wifi_BLE_SDK/GD32VW55x_RELEASE_V1.0.2/MSDK/plf/GD32VW55x_standard_peripheral/Source\gd32vw55x_rtc.c ****         RTC_COSC &= ~RTC_COSC_COSS;
 2467              		.loc 1 1211 18
 2468 003e B7370040 		li	a5,1073754112
 2469 0042 93870780 		addi	a5,a5,-2048
 2470 0046 984F     		lw	a4,24(a5)
 2471 0048 2AC6     		sw	a0,12(sp)
 2472              		.loc 1 1211 9 is_stmt 1
1212:C:/Users/stapi/OneDrive/Desktop/GD32VW553/GD32VW55X_Wifi_BLE_SDK/GD32VW55x_RELEASE_V1.0.2/MSDK/plf/GD32VW55x_standard_peripheral/Source\gd32vw55x_rtc.c ****         RTC_COSC |= (uint32_t)((uint32_t)step & 0x1FU);
 2473              		.loc 1 1212 21 is_stmt 0
 2474 004a 7D88     		andi	s0,s0,31
1211:C:/Users/stapi/OneDrive/Desktop/GD32VW553/GD32VW55X_Wifi_BLE_SDK/GD32VW55x_RELEASE_V1.0.2/MSDK/plf/GD32VW55x_standard_peripheral/Source\gd32vw55x_rtc.c ****         RTC_COSC |= (uint32_t)((uint32_t)step & 0x1FU);
 2475              		.loc 1 1211 18
 2476 004c 019B     		andi	a4,a4,-32
 2477 004e 98CF     		sw	a4,24(a5)
 2478              		.loc 1 1212 9 is_stmt 1
 2479              		.loc 1 1212 18 is_stmt 0
 2480 0050 8C4F     		lw	a1,24(a5)
 2481 0052 4D8C     		or	s0,s0,a1
 2482 0054 80CF     		sw	s0,24(a5)
1213:C:/Users/stapi/OneDrive/Desktop/GD32VW553/GD32VW55X_Wifi_BLE_SDK/GD32VW55x_RELEASE_V1.0.2/MSDK/plf/GD32VW55x_standard_peripheral/Source\gd32vw55x_rtc.c ****         /* exit init mode */
1214:C:/Users/stapi/OneDrive/Desktop/GD32VW553/GD32VW55X_Wifi_BLE_SDK/GD32VW55x_RELEASE_V1.0.2/MSDK/plf/GD32VW55x_standard_peripheral/Source\gd32vw55x_rtc.c ****         rtc_init_mode_exit();
 2483              		.loc 1 1214 9 is_stmt 1
 2484 0056 97000000 		call	rtc_init_mode_exit
 2484      E7800000 
 2485              	.LVL146:
 2486 005e 3245     		lw	a0,12(sp)
 2487              	.LVL147:
 2488              	.L176:
1215:C:/Users/stapi/OneDrive/Desktop/GD32VW553/GD32VW55X_Wifi_BLE_SDK/GD32VW55x_RELEASE_V1.0.2/MSDK/plf/GD32VW55x_standard_peripheral/Source\gd32vw55x_rtc.c ****     }
1216:C:/Users/stapi/OneDrive/Desktop/GD32VW553/GD32VW55X_Wifi_BLE_SDK/GD32VW55x_RELEASE_V1.0.2/MSDK/plf/GD32VW55x_standard_peripheral/Source\gd32vw55x_rtc.c ****     /* enable the write protection */
1217:C:/Users/stapi/OneDrive/Desktop/GD32VW553/GD32VW55X_Wifi_BLE_SDK/GD32VW55x_RELEASE_V1.0.2/MSDK/plf/GD32VW55x_standard_peripheral/Source\gd32vw55x_rtc.c ****     RTC_WPK = RTC_LOCK_KEY;
 2489              		.loc 1 1217 5
 2490              		.loc 1 1217 13 is_stmt 0
 2491 0060 B7370040 		li	a5,1073754112
 2492 0064 1307F00F 		li	a4,255
 2493 0068 23A2E782 		sw	a4,-2012(a5)
1218:C:/Users/stapi/OneDrive/Desktop/GD32VW553/GD32VW55X_Wifi_BLE_SDK/GD32VW55x_RELEASE_V1.0.2/MSDK/plf/GD32VW55x_standard_peripheral/Source\gd32vw55x_rtc.c ****     return error_status;
 2494              		.loc 1 1218 5 is_stmt 1
1219:C:/Users/stapi/OneDrive/Desktop/GD32VW553/GD32VW55X_Wifi_BLE_SDK/GD32VW55x_RELEASE_V1.0.2/MSDK/plf/GD32VW55x_standard_peripheral/Source\gd32vw55x_rtc.c **** }
 2495              		.loc 1 1219 1 is_stmt 0
 2496 006c 4101     		addi	sp,sp,16
 2497              		.cfi_remember_state
 2498              		.cfi_def_cfa_offset 0
 2499 006e 17030000 		tail	__riscv_restore_3
 2499      67000300 
 2500              		.cfi_restore 18
 2501              		.cfi_restore 9
 2502              		.cfi_restore 8
 2503              		.cfi_restore 1
 2504              		.cfi_def_cfa_offset -16
 2505              	.LVL148:
 2506              	.L177:
 2507              		.cfi_restore_state
1209:C:/Users/stapi/OneDrive/Desktop/GD32VW553/GD32VW55X_Wifi_BLE_SDK/GD32VW55x_RELEASE_V1.0.2/MSDK/plf/GD32VW55x_standard_peripheral/Source\gd32vw55x_rtc.c ****         }
 2508              		.loc 1 1209 13 is_stmt 1
1209:C:/Users/stapi/OneDrive/Desktop/GD32VW553/GD32VW55X_Wifi_BLE_SDK/GD32VW55x_RELEASE_V1.0.2/MSDK/plf/GD32VW55x_standard_peripheral/Source\gd32vw55x_rtc.c ****         }
 2509              		.loc 1 1209 22 is_stmt 0
 2510 0076 83A78481 		lw	a5,-2024(s1)
 2511 007a 93F7F7F7 		andi	a5,a5,-129
 2512 007e 75BF     		j	.L183
 2513              		.cfi_endproc
 2514              	.LFE403:
 2516              		.section	.text.rtc_flag_get,"ax",@progbits
 2517              		.align	1
 2518              		.globl	rtc_flag_get
 2520              	rtc_flag_get:
 2521              	.LFB404:
1220:C:/Users/stapi/OneDrive/Desktop/GD32VW553/GD32VW55X_Wifi_BLE_SDK/GD32VW55x_RELEASE_V1.0.2/MSDK/plf/GD32VW55x_standard_peripheral/Source\gd32vw55x_rtc.c **** 
1221:C:/Users/stapi/OneDrive/Desktop/GD32VW553/GD32VW55X_Wifi_BLE_SDK/GD32VW55x_RELEASE_V1.0.2/MSDK/plf/GD32VW55x_standard_peripheral/Source\gd32vw55x_rtc.c **** /*!
1222:C:/Users/stapi/OneDrive/Desktop/GD32VW553/GD32VW55X_Wifi_BLE_SDK/GD32VW55x_RELEASE_V1.0.2/MSDK/plf/GD32VW55x_standard_peripheral/Source\gd32vw55x_rtc.c ****     \brief      check specified flag
1223:C:/Users/stapi/OneDrive/Desktop/GD32VW553/GD32VW55X_Wifi_BLE_SDK/GD32VW55x_RELEASE_V1.0.2/MSDK/plf/GD32VW55x_standard_peripheral/Source\gd32vw55x_rtc.c ****     \param[in]  flag: specify which flag to check
1224:C:/Users/stapi/OneDrive/Desktop/GD32VW553/GD32VW55X_Wifi_BLE_SDK/GD32VW55x_RELEASE_V1.0.2/MSDK/plf/GD32VW55x_standard_peripheral/Source\gd32vw55x_rtc.c ****       \arg        RTC_FLAG_SCP: smooth calibration pending flag
1225:C:/Users/stapi/OneDrive/Desktop/GD32VW553/GD32VW55X_Wifi_BLE_SDK/GD32VW55x_RELEASE_V1.0.2/MSDK/plf/GD32VW55x_standard_peripheral/Source\gd32vw55x_rtc.c ****       \arg        RTC_FLAG_TP1: RTC tamper 1 detected flag
1226:C:/Users/stapi/OneDrive/Desktop/GD32VW553/GD32VW55X_Wifi_BLE_SDK/GD32VW55x_RELEASE_V1.0.2/MSDK/plf/GD32VW55x_standard_peripheral/Source\gd32vw55x_rtc.c ****       \arg        RTC_FLAG_TP0: RTC tamper 0 detected flag
1227:C:/Users/stapi/OneDrive/Desktop/GD32VW553/GD32VW55X_Wifi_BLE_SDK/GD32VW55x_RELEASE_V1.0.2/MSDK/plf/GD32VW55x_standard_peripheral/Source\gd32vw55x_rtc.c ****       \arg        RTC_FLAG_TSOVR: time-stamp overflow flag
1228:C:/Users/stapi/OneDrive/Desktop/GD32VW553/GD32VW55X_Wifi_BLE_SDK/GD32VW55x_RELEASE_V1.0.2/MSDK/plf/GD32VW55x_standard_peripheral/Source\gd32vw55x_rtc.c ****       \arg        RTC_FLAG_TS: time-stamp flag
1229:C:/Users/stapi/OneDrive/Desktop/GD32VW553/GD32VW55X_Wifi_BLE_SDK/GD32VW55x_RELEASE_V1.0.2/MSDK/plf/GD32VW55x_standard_peripheral/Source\gd32vw55x_rtc.c ****       \arg        RTC_FLAG_ALARM0: alarm0 occurs flag
1230:C:/Users/stapi/OneDrive/Desktop/GD32VW553/GD32VW55X_Wifi_BLE_SDK/GD32VW55x_RELEASE_V1.0.2/MSDK/plf/GD32VW55x_standard_peripheral/Source\gd32vw55x_rtc.c ****       \arg        RTC_FLAG_ALARM1: alarm1 occurs flag
1231:C:/Users/stapi/OneDrive/Desktop/GD32VW553/GD32VW55X_Wifi_BLE_SDK/GD32VW55x_RELEASE_V1.0.2/MSDK/plf/GD32VW55x_standard_peripheral/Source\gd32vw55x_rtc.c ****       \arg        RTC_FLAG_WT: wakeup timer occurs flag
1232:C:/Users/stapi/OneDrive/Desktop/GD32VW553/GD32VW55X_Wifi_BLE_SDK/GD32VW55x_RELEASE_V1.0.2/MSDK/plf/GD32VW55x_standard_peripheral/Source\gd32vw55x_rtc.c ****       \arg        RTC_FLAG_INIT: initialization state flag
1233:C:/Users/stapi/OneDrive/Desktop/GD32VW553/GD32VW55X_Wifi_BLE_SDK/GD32VW55x_RELEASE_V1.0.2/MSDK/plf/GD32VW55x_standard_peripheral/Source\gd32vw55x_rtc.c ****       \arg        RTC_FLAG_RSYN: register synchronization flag
1234:C:/Users/stapi/OneDrive/Desktop/GD32VW553/GD32VW55X_Wifi_BLE_SDK/GD32VW55x_RELEASE_V1.0.2/MSDK/plf/GD32VW55x_standard_peripheral/Source\gd32vw55x_rtc.c ****       \arg        RTC_FLAG_YCM: year configuration mark status flag
1235:C:/Users/stapi/OneDrive/Desktop/GD32VW553/GD32VW55X_Wifi_BLE_SDK/GD32VW55x_RELEASE_V1.0.2/MSDK/plf/GD32VW55x_standard_peripheral/Source\gd32vw55x_rtc.c ****       \arg        RTC_FLAG_SOP: shift function operation pending flag
1236:C:/Users/stapi/OneDrive/Desktop/GD32VW553/GD32VW55X_Wifi_BLE_SDK/GD32VW55x_RELEASE_V1.0.2/MSDK/plf/GD32VW55x_standard_peripheral/Source\gd32vw55x_rtc.c ****       \arg        RTC_FLAG_ALARM0W: alarm0 configuration can be written flag
1237:C:/Users/stapi/OneDrive/Desktop/GD32VW553/GD32VW55X_Wifi_BLE_SDK/GD32VW55x_RELEASE_V1.0.2/MSDK/plf/GD32VW55x_standard_peripheral/Source\gd32vw55x_rtc.c ****       \arg        RTC_FLAG_ALARM1W: alarm1 configuration can be written flag
1238:C:/Users/stapi/OneDrive/Desktop/GD32VW553/GD32VW55X_Wifi_BLE_SDK/GD32VW55x_RELEASE_V1.0.2/MSDK/plf/GD32VW55x_standard_peripheral/Source\gd32vw55x_rtc.c ****       \arg        RTC_FLAG_WTW: wakeup timer can be written flag
1239:C:/Users/stapi/OneDrive/Desktop/GD32VW553/GD32VW55X_Wifi_BLE_SDK/GD32VW55x_RELEASE_V1.0.2/MSDK/plf/GD32VW55x_standard_peripheral/Source\gd32vw55x_rtc.c ****     \param[out] none
1240:C:/Users/stapi/OneDrive/Desktop/GD32VW553/GD32VW55X_Wifi_BLE_SDK/GD32VW55x_RELEASE_V1.0.2/MSDK/plf/GD32VW55x_standard_peripheral/Source\gd32vw55x_rtc.c ****     \retval     FlagStatus: SET or RESET
1241:C:/Users/stapi/OneDrive/Desktop/GD32VW553/GD32VW55X_Wifi_BLE_SDK/GD32VW55x_RELEASE_V1.0.2/MSDK/plf/GD32VW55x_standard_peripheral/Source\gd32vw55x_rtc.c **** */
1242:C:/Users/stapi/OneDrive/Desktop/GD32VW553/GD32VW55X_Wifi_BLE_SDK/GD32VW55x_RELEASE_V1.0.2/MSDK/plf/GD32VW55x_standard_peripheral/Source\gd32vw55x_rtc.c **** FlagStatus rtc_flag_get(uint32_t flag)
1243:C:/Users/stapi/OneDrive/Desktop/GD32VW553/GD32VW55X_Wifi_BLE_SDK/GD32VW55x_RELEASE_V1.0.2/MSDK/plf/GD32VW55x_standard_peripheral/Source\gd32vw55x_rtc.c **** {
 2522              		.loc 1 1243 1 is_stmt 1
 2523              		.cfi_startproc
 2524              	.LVL149:
1244:C:/Users/stapi/OneDrive/Desktop/GD32VW553/GD32VW55X_Wifi_BLE_SDK/GD32VW55x_RELEASE_V1.0.2/MSDK/plf/GD32VW55x_standard_peripheral/Source\gd32vw55x_rtc.c ****     FlagStatus flag_state = RESET;
 2525              		.loc 1 1244 5
1245:C:/Users/stapi/OneDrive/Desktop/GD32VW553/GD32VW55X_Wifi_BLE_SDK/GD32VW55x_RELEASE_V1.0.2/MSDK/plf/GD32VW55x_standard_peripheral/Source\gd32vw55x_rtc.c **** 
1246:C:/Users/stapi/OneDrive/Desktop/GD32VW553/GD32VW55X_Wifi_BLE_SDK/GD32VW55x_RELEASE_V1.0.2/MSDK/plf/GD32VW55x_standard_peripheral/Source\gd32vw55x_rtc.c ****     if((uint32_t)RESET != (RTC_STAT & flag)) {
 2526              		.loc 1 1246 5
 2527              		.loc 1 1246 28 is_stmt 0
 2528 0000 B7370040 		li	a5,1073754112
 2529 0004 83A7C780 		lw	a5,-2036(a5)
 2530              	.LVL150:
1247:C:/Users/stapi/OneDrive/Desktop/GD32VW553/GD32VW55X_Wifi_BLE_SDK/GD32VW55x_RELEASE_V1.0.2/MSDK/plf/GD32VW55x_standard_peripheral/Source\gd32vw55x_rtc.c ****         flag_state = SET;
1248:C:/Users/stapi/OneDrive/Desktop/GD32VW553/GD32VW55X_Wifi_BLE_SDK/GD32VW55x_RELEASE_V1.0.2/MSDK/plf/GD32VW55x_standard_peripheral/Source\gd32vw55x_rtc.c ****     }
1249:C:/Users/stapi/OneDrive/Desktop/GD32VW553/GD32VW55X_Wifi_BLE_SDK/GD32VW55x_RELEASE_V1.0.2/MSDK/plf/GD32VW55x_standard_peripheral/Source\gd32vw55x_rtc.c ****     return flag_state;
 2531              		.loc 1 1249 5 is_stmt 1
1246:C:/Users/stapi/OneDrive/Desktop/GD32VW553/GD32VW55X_Wifi_BLE_SDK/GD32VW55x_RELEASE_V1.0.2/MSDK/plf/GD32VW55x_standard_peripheral/Source\gd32vw55x_rtc.c ****         flag_state = SET;
 2532              		.loc 1 1246 37 is_stmt 0
 2533 0008 7D8D     		and	a0,a5,a0
 2534              	.LVL151:
1250:C:/Users/stapi/OneDrive/Desktop/GD32VW553/GD32VW55X_Wifi_BLE_SDK/GD32VW55x_RELEASE_V1.0.2/MSDK/plf/GD32VW55x_standard_peripheral/Source\gd32vw55x_rtc.c **** }
 2535              		.loc 1 1250 1
 2536 000a 3335A000 		snez	a0,a0
 2537 000e 8280     		ret
 2538              		.cfi_endproc
 2539              	.LFE404:
 2541              		.section	.text.rtc_flag_clear,"ax",@progbits
 2542              		.align	1
 2543              		.globl	rtc_flag_clear
 2545              	rtc_flag_clear:
 2546              	.LFB405:
1251:C:/Users/stapi/OneDrive/Desktop/GD32VW553/GD32VW55X_Wifi_BLE_SDK/GD32VW55x_RELEASE_V1.0.2/MSDK/plf/GD32VW55x_standard_peripheral/Source\gd32vw55x_rtc.c **** 
1252:C:/Users/stapi/OneDrive/Desktop/GD32VW553/GD32VW55X_Wifi_BLE_SDK/GD32VW55x_RELEASE_V1.0.2/MSDK/plf/GD32VW55x_standard_peripheral/Source\gd32vw55x_rtc.c **** /*!
1253:C:/Users/stapi/OneDrive/Desktop/GD32VW553/GD32VW55X_Wifi_BLE_SDK/GD32VW55x_RELEASE_V1.0.2/MSDK/plf/GD32VW55x_standard_peripheral/Source\gd32vw55x_rtc.c ****     \brief      clear specified flag
1254:C:/Users/stapi/OneDrive/Desktop/GD32VW553/GD32VW55X_Wifi_BLE_SDK/GD32VW55x_RELEASE_V1.0.2/MSDK/plf/GD32VW55x_standard_peripheral/Source\gd32vw55x_rtc.c ****     \param[in]  flag: specify which flag to clear
1255:C:/Users/stapi/OneDrive/Desktop/GD32VW553/GD32VW55X_Wifi_BLE_SDK/GD32VW55x_RELEASE_V1.0.2/MSDK/plf/GD32VW55x_standard_peripheral/Source\gd32vw55x_rtc.c ****       \arg        RTC_FLAG_TP1: RTC tamper 1 detected flag
1256:C:/Users/stapi/OneDrive/Desktop/GD32VW553/GD32VW55X_Wifi_BLE_SDK/GD32VW55x_RELEASE_V1.0.2/MSDK/plf/GD32VW55x_standard_peripheral/Source\gd32vw55x_rtc.c ****       \arg        RTC_FLAG_TP0: RTC tamper 0 detected flag
1257:C:/Users/stapi/OneDrive/Desktop/GD32VW553/GD32VW55X_Wifi_BLE_SDK/GD32VW55x_RELEASE_V1.0.2/MSDK/plf/GD32VW55x_standard_peripheral/Source\gd32vw55x_rtc.c ****       \arg        RTC_FLAG_TSOVR: time-stamp overflow flag
1258:C:/Users/stapi/OneDrive/Desktop/GD32VW553/GD32VW55X_Wifi_BLE_SDK/GD32VW55x_RELEASE_V1.0.2/MSDK/plf/GD32VW55x_standard_peripheral/Source\gd32vw55x_rtc.c ****       \arg        RTC_FLAG_TS: time-stamp flag
1259:C:/Users/stapi/OneDrive/Desktop/GD32VW553/GD32VW55X_Wifi_BLE_SDK/GD32VW55x_RELEASE_V1.0.2/MSDK/plf/GD32VW55x_standard_peripheral/Source\gd32vw55x_rtc.c ****       \arg        RTC_FLAG_WT: wakeup timer occurs flag
1260:C:/Users/stapi/OneDrive/Desktop/GD32VW553/GD32VW55X_Wifi_BLE_SDK/GD32VW55x_RELEASE_V1.0.2/MSDK/plf/GD32VW55x_standard_peripheral/Source\gd32vw55x_rtc.c ****       \arg        RTC_FLAG_ALARM0: alarm0 occurs flag
1261:C:/Users/stapi/OneDrive/Desktop/GD32VW553/GD32VW55X_Wifi_BLE_SDK/GD32VW55x_RELEASE_V1.0.2/MSDK/plf/GD32VW55x_standard_peripheral/Source\gd32vw55x_rtc.c ****       \arg        RTC_FLAG_ALARM1: alarm1 occurs flag
1262:C:/Users/stapi/OneDrive/Desktop/GD32VW553/GD32VW55X_Wifi_BLE_SDK/GD32VW55x_RELEASE_V1.0.2/MSDK/plf/GD32VW55x_standard_peripheral/Source\gd32vw55x_rtc.c ****       \arg        RTC_FLAG_RSYN: register synchronization flag
1263:C:/Users/stapi/OneDrive/Desktop/GD32VW553/GD32VW55X_Wifi_BLE_SDK/GD32VW55x_RELEASE_V1.0.2/MSDK/plf/GD32VW55x_standard_peripheral/Source\gd32vw55x_rtc.c ****     \param[out] none
1264:C:/Users/stapi/OneDrive/Desktop/GD32VW553/GD32VW55X_Wifi_BLE_SDK/GD32VW55x_RELEASE_V1.0.2/MSDK/plf/GD32VW55x_standard_peripheral/Source\gd32vw55x_rtc.c ****     \retval     none
1265:C:/Users/stapi/OneDrive/Desktop/GD32VW553/GD32VW55X_Wifi_BLE_SDK/GD32VW55x_RELEASE_V1.0.2/MSDK/plf/GD32VW55x_standard_peripheral/Source\gd32vw55x_rtc.c **** */
1266:C:/Users/stapi/OneDrive/Desktop/GD32VW553/GD32VW55X_Wifi_BLE_SDK/GD32VW55x_RELEASE_V1.0.2/MSDK/plf/GD32VW55x_standard_peripheral/Source\gd32vw55x_rtc.c **** void rtc_flag_clear(uint32_t flag)
1267:C:/Users/stapi/OneDrive/Desktop/GD32VW553/GD32VW55X_Wifi_BLE_SDK/GD32VW55x_RELEASE_V1.0.2/MSDK/plf/GD32VW55x_standard_peripheral/Source\gd32vw55x_rtc.c **** {
 2547              		.loc 1 1267 1 is_stmt 1
 2548              		.cfi_startproc
 2549              	.LVL152:
1268:C:/Users/stapi/OneDrive/Desktop/GD32VW553/GD32VW55X_Wifi_BLE_SDK/GD32VW55x_RELEASE_V1.0.2/MSDK/plf/GD32VW55x_standard_peripheral/Source\gd32vw55x_rtc.c ****     /* disable the write protection */
1269:C:/Users/stapi/OneDrive/Desktop/GD32VW553/GD32VW55X_Wifi_BLE_SDK/GD32VW55x_RELEASE_V1.0.2/MSDK/plf/GD32VW55x_standard_peripheral/Source\gd32vw55x_rtc.c ****     RTC_WPK = RTC_UNLOCK_KEY1;
 2550              		.loc 1 1269 5
 2551              		.loc 1 1269 13 is_stmt 0
 2552 0000 B7370040 		li	a5,1073754112
 2553 0004 93870780 		addi	a5,a5,-2048
 2554 0008 1307A00C 		li	a4,202
 2555 000c D8D3     		sw	a4,36(a5)
1270:C:/Users/stapi/OneDrive/Desktop/GD32VW553/GD32VW55X_Wifi_BLE_SDK/GD32VW55x_RELEASE_V1.0.2/MSDK/plf/GD32VW55x_standard_peripheral/Source\gd32vw55x_rtc.c ****     RTC_WPK = RTC_UNLOCK_KEY2;
 2556              		.loc 1 1270 5 is_stmt 1
 2557              		.loc 1 1270 13 is_stmt 0
 2558 000e 13073005 		li	a4,83
 2559 0012 D8D3     		sw	a4,36(a5)
1271:C:/Users/stapi/OneDrive/Desktop/GD32VW553/GD32VW55X_Wifi_BLE_SDK/GD32VW55x_RELEASE_V1.0.2/MSDK/plf/GD32VW55x_standard_peripheral/Source\gd32vw55x_rtc.c **** 
1272:C:/Users/stapi/OneDrive/Desktop/GD32VW553/GD32VW55X_Wifi_BLE_SDK/GD32VW55x_RELEASE_V1.0.2/MSDK/plf/GD32VW55x_standard_peripheral/Source\gd32vw55x_rtc.c ****     RTC_STAT &= (uint32_t)(~flag);
 2560              		.loc 1 1272 5 is_stmt 1
 2561              		.loc 1 1272 14 is_stmt 0
 2562 0014 D847     		lw	a4,12(a5)
 2563 0016 3375A740 		andn	a0,a4,a0
 2564              	.LVL153:
1273:C:/Users/stapi/OneDrive/Desktop/GD32VW553/GD32VW55X_Wifi_BLE_SDK/GD32VW55x_RELEASE_V1.0.2/MSDK/plf/GD32VW55x_standard_peripheral/Source\gd32vw55x_rtc.c **** 
1274:C:/Users/stapi/OneDrive/Desktop/GD32VW553/GD32VW55X_Wifi_BLE_SDK/GD32VW55x_RELEASE_V1.0.2/MSDK/plf/GD32VW55x_standard_peripheral/Source\gd32vw55x_rtc.c ****     /* enable the write protection */
1275:C:/Users/stapi/OneDrive/Desktop/GD32VW553/GD32VW55X_Wifi_BLE_SDK/GD32VW55x_RELEASE_V1.0.2/MSDK/plf/GD32VW55x_standard_peripheral/Source\gd32vw55x_rtc.c ****     RTC_WPK = RTC_LOCK_KEY;
 2565              		.loc 1 1275 13
 2566 001a 1307F00F 		li	a4,255
1272:C:/Users/stapi/OneDrive/Desktop/GD32VW553/GD32VW55X_Wifi_BLE_SDK/GD32VW55x_RELEASE_V1.0.2/MSDK/plf/GD32VW55x_standard_peripheral/Source\gd32vw55x_rtc.c **** 
 2567              		.loc 1 1272 14
 2568 001e C8C7     		sw	a0,12(a5)
 2569              		.loc 1 1275 5 is_stmt 1
 2570              		.loc 1 1275 13 is_stmt 0
 2571 0020 D8D3     		sw	a4,36(a5)
1276:C:/Users/stapi/OneDrive/Desktop/GD32VW553/GD32VW55X_Wifi_BLE_SDK/GD32VW55x_RELEASE_V1.0.2/MSDK/plf/GD32VW55x_standard_peripheral/Source\gd32vw55x_rtc.c **** }
 2572              		.loc 1 1276 1
 2573 0022 8280     		ret
 2574              		.cfi_endproc
 2575              	.LFE405:
 2577              		.section	.text.rtc_interrupt_enable,"ax",@progbits
 2578              		.align	1
 2579              		.globl	rtc_interrupt_enable
 2581              	rtc_interrupt_enable:
 2582              	.LFB406:
1277:C:/Users/stapi/OneDrive/Desktop/GD32VW553/GD32VW55X_Wifi_BLE_SDK/GD32VW55x_RELEASE_V1.0.2/MSDK/plf/GD32VW55x_standard_peripheral/Source\gd32vw55x_rtc.c **** 
1278:C:/Users/stapi/OneDrive/Desktop/GD32VW553/GD32VW55X_Wifi_BLE_SDK/GD32VW55x_RELEASE_V1.0.2/MSDK/plf/GD32VW55x_standard_peripheral/Source\gd32vw55x_rtc.c **** /*!
1279:C:/Users/stapi/OneDrive/Desktop/GD32VW553/GD32VW55X_Wifi_BLE_SDK/GD32VW55x_RELEASE_V1.0.2/MSDK/plf/GD32VW55x_standard_peripheral/Source\gd32vw55x_rtc.c ****     \brief      enable specified RTC interrupt
1280:C:/Users/stapi/OneDrive/Desktop/GD32VW553/GD32VW55X_Wifi_BLE_SDK/GD32VW55x_RELEASE_V1.0.2/MSDK/plf/GD32VW55x_standard_peripheral/Source\gd32vw55x_rtc.c ****     \param[in]  interrupt: specify which interrupt source to be enabled
1281:C:/Users/stapi/OneDrive/Desktop/GD32VW553/GD32VW55X_Wifi_BLE_SDK/GD32VW55x_RELEASE_V1.0.2/MSDK/plf/GD32VW55x_standard_peripheral/Source\gd32vw55x_rtc.c ****       \arg        RTC_INT_TIMESTAMP: timestamp interrupt
1282:C:/Users/stapi/OneDrive/Desktop/GD32VW553/GD32VW55X_Wifi_BLE_SDK/GD32VW55x_RELEASE_V1.0.2/MSDK/plf/GD32VW55x_standard_peripheral/Source\gd32vw55x_rtc.c ****       \arg        RTC_INT_ALARM0: alarm0 interrupt
1283:C:/Users/stapi/OneDrive/Desktop/GD32VW553/GD32VW55X_Wifi_BLE_SDK/GD32VW55x_RELEASE_V1.0.2/MSDK/plf/GD32VW55x_standard_peripheral/Source\gd32vw55x_rtc.c ****       \arg        RTC_INT_ALARM1: alarm1 interrupt
1284:C:/Users/stapi/OneDrive/Desktop/GD32VW553/GD32VW55X_Wifi_BLE_SDK/GD32VW55x_RELEASE_V1.0.2/MSDK/plf/GD32VW55x_standard_peripheral/Source\gd32vw55x_rtc.c ****       \arg        RTC_INT_TAMP: tamper detection interrupt
1285:C:/Users/stapi/OneDrive/Desktop/GD32VW553/GD32VW55X_Wifi_BLE_SDK/GD32VW55x_RELEASE_V1.0.2/MSDK/plf/GD32VW55x_standard_peripheral/Source\gd32vw55x_rtc.c ****       \arg        RTC_INT_WAKEUP: wakeup timer interrupt
1286:C:/Users/stapi/OneDrive/Desktop/GD32VW553/GD32VW55X_Wifi_BLE_SDK/GD32VW55x_RELEASE_V1.0.2/MSDK/plf/GD32VW55x_standard_peripheral/Source\gd32vw55x_rtc.c ****     \param[out] none
1287:C:/Users/stapi/OneDrive/Desktop/GD32VW553/GD32VW55X_Wifi_BLE_SDK/GD32VW55x_RELEASE_V1.0.2/MSDK/plf/GD32VW55x_standard_peripheral/Source\gd32vw55x_rtc.c ****     \retval     none
1288:C:/Users/stapi/OneDrive/Desktop/GD32VW553/GD32VW55X_Wifi_BLE_SDK/GD32VW55x_RELEASE_V1.0.2/MSDK/plf/GD32VW55x_standard_peripheral/Source\gd32vw55x_rtc.c **** */
1289:C:/Users/stapi/OneDrive/Desktop/GD32VW553/GD32VW55X_Wifi_BLE_SDK/GD32VW55x_RELEASE_V1.0.2/MSDK/plf/GD32VW55x_standard_peripheral/Source\gd32vw55x_rtc.c **** void rtc_interrupt_enable(uint32_t interrupt)
1290:C:/Users/stapi/OneDrive/Desktop/GD32VW553/GD32VW55X_Wifi_BLE_SDK/GD32VW55x_RELEASE_V1.0.2/MSDK/plf/GD32VW55x_standard_peripheral/Source\gd32vw55x_rtc.c **** {
 2583              		.loc 1 1290 1 is_stmt 1
 2584              		.cfi_startproc
 2585              	.LVL154:
1291:C:/Users/stapi/OneDrive/Desktop/GD32VW553/GD32VW55X_Wifi_BLE_SDK/GD32VW55x_RELEASE_V1.0.2/MSDK/plf/GD32VW55x_standard_peripheral/Source\gd32vw55x_rtc.c ****     if(RTC_INT_TAMP == interrupt) {
 2586              		.loc 1 1291 5
 2587              		.loc 1 1291 7 is_stmt 0
 2588 0000 9147     		li	a5,4
 2589 0002 631BF500 		bne	a0,a5,.L187
1292:C:/Users/stapi/OneDrive/Desktop/GD32VW553/GD32VW55X_Wifi_BLE_SDK/GD32VW55x_RELEASE_V1.0.2/MSDK/plf/GD32VW55x_standard_peripheral/Source\gd32vw55x_rtc.c ****         /* enable the interrupts in RTC_TAMP register */
1293:C:/Users/stapi/OneDrive/Desktop/GD32VW553/GD32VW55X_Wifi_BLE_SDK/GD32VW55x_RELEASE_V1.0.2/MSDK/plf/GD32VW55x_standard_peripheral/Source\gd32vw55x_rtc.c ****         RTC_TAMP |= (uint32_t)(interrupt);
 2590              		.loc 1 1293 9 is_stmt 1
 2591              		.loc 1 1293 18 is_stmt 0
 2592 0006 37370040 		li	a4,1073754112
 2593 000a 83270784 		lw	a5,-1984(a4)
 2594 000e 93E74700 		ori	a5,a5,4
 2595 0012 2320F784 		sw	a5,-1984(a4)
 2596 0016 8280     		ret
 2597              	.L187:
1294:C:/Users/stapi/OneDrive/Desktop/GD32VW553/GD32VW55X_Wifi_BLE_SDK/GD32VW55x_RELEASE_V1.0.2/MSDK/plf/GD32VW55x_standard_peripheral/Source\gd32vw55x_rtc.c ****     } else {
1295:C:/Users/stapi/OneDrive/Desktop/GD32VW553/GD32VW55X_Wifi_BLE_SDK/GD32VW55x_RELEASE_V1.0.2/MSDK/plf/GD32VW55x_standard_peripheral/Source\gd32vw55x_rtc.c ****         /* disable the write protection */
1296:C:/Users/stapi/OneDrive/Desktop/GD32VW553/GD32VW55X_Wifi_BLE_SDK/GD32VW55x_RELEASE_V1.0.2/MSDK/plf/GD32VW55x_standard_peripheral/Source\gd32vw55x_rtc.c ****         RTC_WPK = RTC_UNLOCK_KEY1;
 2598              		.loc 1 1296 9 is_stmt 1
 2599              		.loc 1 1296 17 is_stmt 0
 2600 0018 B7370040 		li	a5,1073754112
 2601 001c 93870780 		addi	a5,a5,-2048
 2602 0020 1307A00C 		li	a4,202
 2603 0024 D8D3     		sw	a4,36(a5)
1297:C:/Users/stapi/OneDrive/Desktop/GD32VW553/GD32VW55X_Wifi_BLE_SDK/GD32VW55x_RELEASE_V1.0.2/MSDK/plf/GD32VW55x_standard_peripheral/Source\gd32vw55x_rtc.c ****         RTC_WPK = RTC_UNLOCK_KEY2;
 2604              		.loc 1 1297 9 is_stmt 1
 2605              		.loc 1 1297 17 is_stmt 0
 2606 0026 13073005 		li	a4,83
 2607 002a D8D3     		sw	a4,36(a5)
1298:C:/Users/stapi/OneDrive/Desktop/GD32VW553/GD32VW55X_Wifi_BLE_SDK/GD32VW55x_RELEASE_V1.0.2/MSDK/plf/GD32VW55x_standard_peripheral/Source\gd32vw55x_rtc.c ****         /* enable the interrupts in RTC_CTL register */
1299:C:/Users/stapi/OneDrive/Desktop/GD32VW553/GD32VW55X_Wifi_BLE_SDK/GD32VW55x_RELEASE_V1.0.2/MSDK/plf/GD32VW55x_standard_peripheral/Source\gd32vw55x_rtc.c ****         RTC_CTL |= (uint32_t)(interrupt);
 2608              		.loc 1 1299 9 is_stmt 1
 2609              		.loc 1 1299 17 is_stmt 0
 2610 002c 9847     		lw	a4,8(a5)
 2611 002e 598D     		or	a0,a4,a0
 2612              	.LVL155:
 2613 0030 88C7     		sw	a0,8(a5)
1300:C:/Users/stapi/OneDrive/Desktop/GD32VW553/GD32VW55X_Wifi_BLE_SDK/GD32VW55x_RELEASE_V1.0.2/MSDK/plf/GD32VW55x_standard_peripheral/Source\gd32vw55x_rtc.c ****         /* enable the write protection */
1301:C:/Users/stapi/OneDrive/Desktop/GD32VW553/GD32VW55X_Wifi_BLE_SDK/GD32VW55x_RELEASE_V1.0.2/MSDK/plf/GD32VW55x_standard_peripheral/Source\gd32vw55x_rtc.c ****         RTC_WPK = RTC_LOCK_KEY;
 2614              		.loc 1 1301 9 is_stmt 1
 2615              		.loc 1 1301 17 is_stmt 0
 2616 0032 1307F00F 		li	a4,255
 2617 0036 D8D3     		sw	a4,36(a5)
1302:C:/Users/stapi/OneDrive/Desktop/GD32VW553/GD32VW55X_Wifi_BLE_SDK/GD32VW55x_RELEASE_V1.0.2/MSDK/plf/GD32VW55x_standard_peripheral/Source\gd32vw55x_rtc.c ****     }
1303:C:/Users/stapi/OneDrive/Desktop/GD32VW553/GD32VW55X_Wifi_BLE_SDK/GD32VW55x_RELEASE_V1.0.2/MSDK/plf/GD32VW55x_standard_peripheral/Source\gd32vw55x_rtc.c **** }
 2618              		.loc 1 1303 1
 2619 0038 8280     		ret
 2620              		.cfi_endproc
 2621              	.LFE406:
 2623              		.section	.text.rtc_interrupt_disable,"ax",@progbits
 2624              		.align	1
 2625              		.globl	rtc_interrupt_disable
 2627              	rtc_interrupt_disable:
 2628              	.LFB407:
1304:C:/Users/stapi/OneDrive/Desktop/GD32VW553/GD32VW55X_Wifi_BLE_SDK/GD32VW55x_RELEASE_V1.0.2/MSDK/plf/GD32VW55x_standard_peripheral/Source\gd32vw55x_rtc.c **** 
1305:C:/Users/stapi/OneDrive/Desktop/GD32VW553/GD32VW55X_Wifi_BLE_SDK/GD32VW55x_RELEASE_V1.0.2/MSDK/plf/GD32VW55x_standard_peripheral/Source\gd32vw55x_rtc.c **** /*!
1306:C:/Users/stapi/OneDrive/Desktop/GD32VW553/GD32VW55X_Wifi_BLE_SDK/GD32VW55x_RELEASE_V1.0.2/MSDK/plf/GD32VW55x_standard_peripheral/Source\gd32vw55x_rtc.c ****     \brief      disble specified RTC interrupt
1307:C:/Users/stapi/OneDrive/Desktop/GD32VW553/GD32VW55X_Wifi_BLE_SDK/GD32VW55x_RELEASE_V1.0.2/MSDK/plf/GD32VW55x_standard_peripheral/Source\gd32vw55x_rtc.c ****     \param[in]  interrupt: specify which interrupt source to be disabled
1308:C:/Users/stapi/OneDrive/Desktop/GD32VW553/GD32VW55X_Wifi_BLE_SDK/GD32VW55x_RELEASE_V1.0.2/MSDK/plf/GD32VW55x_standard_peripheral/Source\gd32vw55x_rtc.c ****       \arg        RTC_INT_TIMESTAMP: timestamp interrupt
1309:C:/Users/stapi/OneDrive/Desktop/GD32VW553/GD32VW55X_Wifi_BLE_SDK/GD32VW55x_RELEASE_V1.0.2/MSDK/plf/GD32VW55x_standard_peripheral/Source\gd32vw55x_rtc.c ****       \arg        RTC_INT_ALARM0: alarm0 interrupt
1310:C:/Users/stapi/OneDrive/Desktop/GD32VW553/GD32VW55X_Wifi_BLE_SDK/GD32VW55x_RELEASE_V1.0.2/MSDK/plf/GD32VW55x_standard_peripheral/Source\gd32vw55x_rtc.c ****       \arg        RTC_INT_ALARM1: alarm1 interrupt
1311:C:/Users/stapi/OneDrive/Desktop/GD32VW553/GD32VW55X_Wifi_BLE_SDK/GD32VW55x_RELEASE_V1.0.2/MSDK/plf/GD32VW55x_standard_peripheral/Source\gd32vw55x_rtc.c ****       \arg        RTC_INT_TAMP: tamper detection interrupt
1312:C:/Users/stapi/OneDrive/Desktop/GD32VW553/GD32VW55X_Wifi_BLE_SDK/GD32VW55x_RELEASE_V1.0.2/MSDK/plf/GD32VW55x_standard_peripheral/Source\gd32vw55x_rtc.c ****       \arg        RTC_INT_WAKEUP: wakeup timer interrupt
1313:C:/Users/stapi/OneDrive/Desktop/GD32VW553/GD32VW55X_Wifi_BLE_SDK/GD32VW55x_RELEASE_V1.0.2/MSDK/plf/GD32VW55x_standard_peripheral/Source\gd32vw55x_rtc.c ****     \param[out] none
1314:C:/Users/stapi/OneDrive/Desktop/GD32VW553/GD32VW55X_Wifi_BLE_SDK/GD32VW55x_RELEASE_V1.0.2/MSDK/plf/GD32VW55x_standard_peripheral/Source\gd32vw55x_rtc.c ****     \retval     none
1315:C:/Users/stapi/OneDrive/Desktop/GD32VW553/GD32VW55X_Wifi_BLE_SDK/GD32VW55x_RELEASE_V1.0.2/MSDK/plf/GD32VW55x_standard_peripheral/Source\gd32vw55x_rtc.c **** */
1316:C:/Users/stapi/OneDrive/Desktop/GD32VW553/GD32VW55X_Wifi_BLE_SDK/GD32VW55x_RELEASE_V1.0.2/MSDK/plf/GD32VW55x_standard_peripheral/Source\gd32vw55x_rtc.c **** void rtc_interrupt_disable(uint32_t interrupt)
1317:C:/Users/stapi/OneDrive/Desktop/GD32VW553/GD32VW55X_Wifi_BLE_SDK/GD32VW55x_RELEASE_V1.0.2/MSDK/plf/GD32VW55x_standard_peripheral/Source\gd32vw55x_rtc.c **** {
 2629              		.loc 1 1317 1 is_stmt 1
 2630              		.cfi_startproc
 2631              	.LVL156:
1318:C:/Users/stapi/OneDrive/Desktop/GD32VW553/GD32VW55X_Wifi_BLE_SDK/GD32VW55x_RELEASE_V1.0.2/MSDK/plf/GD32VW55x_standard_peripheral/Source\gd32vw55x_rtc.c ****     if(RTC_INT_TAMP == interrupt) {
 2632              		.loc 1 1318 5
 2633              		.loc 1 1318 7 is_stmt 0
 2634 0000 9147     		li	a5,4
 2635 0002 631AF500 		bne	a0,a5,.L190
1319:C:/Users/stapi/OneDrive/Desktop/GD32VW553/GD32VW55X_Wifi_BLE_SDK/GD32VW55x_RELEASE_V1.0.2/MSDK/plf/GD32VW55x_standard_peripheral/Source\gd32vw55x_rtc.c ****         /* disable the interrupts in RTC_TAMP register */
1320:C:/Users/stapi/OneDrive/Desktop/GD32VW553/GD32VW55X_Wifi_BLE_SDK/GD32VW55x_RELEASE_V1.0.2/MSDK/plf/GD32VW55x_standard_peripheral/Source\gd32vw55x_rtc.c ****         RTC_TAMP &= (uint32_t)~(interrupt);
 2636              		.loc 1 1320 9 is_stmt 1
 2637              		.loc 1 1320 18 is_stmt 0
 2638 0006 37370040 		li	a4,1073754112
 2639 000a 83270784 		lw	a5,-1984(a4)
 2640 000e ED9B     		andi	a5,a5,-5
 2641 0010 2320F784 		sw	a5,-1984(a4)
 2642 0014 8280     		ret
 2643              	.L190:
1321:C:/Users/stapi/OneDrive/Desktop/GD32VW553/GD32VW55X_Wifi_BLE_SDK/GD32VW55x_RELEASE_V1.0.2/MSDK/plf/GD32VW55x_standard_peripheral/Source\gd32vw55x_rtc.c ****     } else {
1322:C:/Users/stapi/OneDrive/Desktop/GD32VW553/GD32VW55X_Wifi_BLE_SDK/GD32VW55x_RELEASE_V1.0.2/MSDK/plf/GD32VW55x_standard_peripheral/Source\gd32vw55x_rtc.c ****         /* disable the write protection */
1323:C:/Users/stapi/OneDrive/Desktop/GD32VW553/GD32VW55X_Wifi_BLE_SDK/GD32VW55x_RELEASE_V1.0.2/MSDK/plf/GD32VW55x_standard_peripheral/Source\gd32vw55x_rtc.c ****         RTC_WPK = RTC_UNLOCK_KEY1;
 2644              		.loc 1 1323 9 is_stmt 1
 2645              		.loc 1 1323 17 is_stmt 0
 2646 0016 B7370040 		li	a5,1073754112
 2647 001a 93870780 		addi	a5,a5,-2048
 2648 001e 1307A00C 		li	a4,202
 2649 0022 D8D3     		sw	a4,36(a5)
1324:C:/Users/stapi/OneDrive/Desktop/GD32VW553/GD32VW55X_Wifi_BLE_SDK/GD32VW55x_RELEASE_V1.0.2/MSDK/plf/GD32VW55x_standard_peripheral/Source\gd32vw55x_rtc.c ****         RTC_WPK = RTC_UNLOCK_KEY2;
 2650              		.loc 1 1324 9 is_stmt 1
 2651              		.loc 1 1324 17 is_stmt 0
 2652 0024 13073005 		li	a4,83
 2653 0028 D8D3     		sw	a4,36(a5)
1325:C:/Users/stapi/OneDrive/Desktop/GD32VW553/GD32VW55X_Wifi_BLE_SDK/GD32VW55x_RELEASE_V1.0.2/MSDK/plf/GD32VW55x_standard_peripheral/Source\gd32vw55x_rtc.c ****         /* disable the interrupts in RTC_CTL register */
1326:C:/Users/stapi/OneDrive/Desktop/GD32VW553/GD32VW55X_Wifi_BLE_SDK/GD32VW55x_RELEASE_V1.0.2/MSDK/plf/GD32VW55x_standard_peripheral/Source\gd32vw55x_rtc.c ****         RTC_CTL &= (uint32_t)~(interrupt);
 2654              		.loc 1 1326 9 is_stmt 1
 2655              		.loc 1 1326 17 is_stmt 0
 2656 002a 9847     		lw	a4,8(a5)
 2657 002c 3375A740 		andn	a0,a4,a0
 2658              	.LVL157:
1327:C:/Users/stapi/OneDrive/Desktop/GD32VW553/GD32VW55X_Wifi_BLE_SDK/GD32VW55x_RELEASE_V1.0.2/MSDK/plf/GD32VW55x_standard_peripheral/Source\gd32vw55x_rtc.c ****         /* enable the write protection */
1328:C:/Users/stapi/OneDrive/Desktop/GD32VW553/GD32VW55X_Wifi_BLE_SDK/GD32VW55x_RELEASE_V1.0.2/MSDK/plf/GD32VW55x_standard_peripheral/Source\gd32vw55x_rtc.c ****         RTC_WPK = RTC_LOCK_KEY;
 2659              		.loc 1 1328 17
 2660 0030 1307F00F 		li	a4,255
1326:C:/Users/stapi/OneDrive/Desktop/GD32VW553/GD32VW55X_Wifi_BLE_SDK/GD32VW55x_RELEASE_V1.0.2/MSDK/plf/GD32VW55x_standard_peripheral/Source\gd32vw55x_rtc.c ****         /* enable the write protection */
 2661              		.loc 1 1326 17
 2662 0034 88C7     		sw	a0,8(a5)
 2663              		.loc 1 1328 9 is_stmt 1
 2664              		.loc 1 1328 17 is_stmt 0
 2665 0036 D8D3     		sw	a4,36(a5)
1329:C:/Users/stapi/OneDrive/Desktop/GD32VW553/GD32VW55X_Wifi_BLE_SDK/GD32VW55x_RELEASE_V1.0.2/MSDK/plf/GD32VW55x_standard_peripheral/Source\gd32vw55x_rtc.c ****     }
1330:C:/Users/stapi/OneDrive/Desktop/GD32VW553/GD32VW55X_Wifi_BLE_SDK/GD32VW55x_RELEASE_V1.0.2/MSDK/plf/GD32VW55x_standard_peripheral/Source\gd32vw55x_rtc.c **** }
 2666              		.loc 1 1330 1
 2667 0038 8280     		ret
 2668              		.cfi_endproc
 2669              	.LFE407:
 2671              		.text
 2672              	.Letext0:
 2673              		.file 2 "c:\\users\\stapi\\onedrive\\desktop\\gd32vw553\\embeddedbuilder_v1.4.7.26843\\tools\\nucl
 2674              		.file 3 "c:\\users\\stapi\\onedrive\\desktop\\gd32vw553\\embeddedbuilder_v1.4.7.26843\\tools\\nucl
 2675              		.file 4 "..\\..\\..\\..\\plf\\riscv\\gd32vw55x/gd32vw55x.h"
 2676              		.file 5 "..\\..\\..\\..\\plf\\GD32VW55x_standard_peripheral\\Include/gd32vw55x_rtc.h"
DEFINED SYMBOLS
                            *ABS*:0000000000000000 gd32vw55x_rtc.c
C:\Users\stapi\AppData\Local\Temp\ccW1j2pN.s:13     .text.rtc_init_mode_enter:0000000000000000 rtc_init_mode_enter
C:\Users\stapi\AppData\Local\Temp\ccW1j2pN.s:17     .text.rtc_init_mode_enter:0000000000000000 .L0 
C:\Users\stapi\AppData\Local\Temp\ccW1j2pN.s:18     .text.rtc_init_mode_enter:0000000000000000 .L0 
C:\Users\stapi\AppData\Local\Temp\ccW1j2pN.s:19     .text.rtc_init_mode_enter:0000000000000000 .L0 
C:\Users\stapi\AppData\Local\Temp\ccW1j2pN.s:20     .text.rtc_init_mode_enter:0000000000000000 .L0 
C:\Users\stapi\AppData\Local\Temp\ccW1j2pN.s:22     .text.rtc_init_mode_enter:0000000000000002 .L0 
C:\Users\stapi\AppData\Local\Temp\ccW1j2pN.s:23     .text.rtc_init_mode_enter:0000000000000004 .L0 
C:\Users\stapi\AppData\Local\Temp\ccW1j2pN.s:25     .text.rtc_init_mode_enter:0000000000000004 .L0 
C:\Users\stapi\AppData\Local\Temp\ccW1j2pN.s:28     .text.rtc_init_mode_enter:0000000000000006 .L0 
C:\Users\stapi\AppData\Local\Temp\ccW1j2pN.s:29     .text.rtc_init_mode_enter:0000000000000006 .L0 
C:\Users\stapi\AppData\Local\Temp\ccW1j2pN.s:30     .text.rtc_init_mode_enter:0000000000000006 .L0 
C:\Users\stapi\AppData\Local\Temp\ccW1j2pN.s:31     .text.rtc_init_mode_enter:0000000000000006 .L0 
C:\Users\stapi\AppData\Local\Temp\ccW1j2pN.s:34     .text.rtc_init_mode_enter:000000000000000e .L0 
C:\Users\stapi\AppData\Local\Temp\ccW1j2pN.s:36     .text.rtc_init_mode_enter:0000000000000012 .L0 
C:\Users\stapi\AppData\Local\Temp\ccW1j2pN.s:40     .text.rtc_init_mode_enter:0000000000000014 .L0 
C:\Users\stapi\AppData\Local\Temp\ccW1j2pN.s:44     .text.rtc_init_mode_enter:0000000000000016 .L0 
C:\Users\stapi\AppData\Local\Temp\ccW1j2pN.s:45     .text.rtc_init_mode_enter:0000000000000018 .L0 
C:\Users\stapi\AppData\Local\Temp\ccW1j2pN.s:46     .text.rtc_init_mode_enter:0000000000000018 .L0 
C:\Users\stapi\AppData\Local\Temp\ccW1j2pN.s:50     .text.rtc_init_mode_enter:000000000000001a .L0 
C:\Users\stapi\AppData\Local\Temp\ccW1j2pN.s:52     .text.rtc_init_mode_enter:000000000000001a .L0 
C:\Users\stapi\AppData\Local\Temp\ccW1j2pN.s:53     .text.rtc_init_mode_enter:000000000000001a .L0 
C:\Users\stapi\AppData\Local\Temp\ccW1j2pN.s:57     .text.rtc_init_mode_enter:0000000000000026 .L0 
C:\Users\stapi\AppData\Local\Temp\ccW1j2pN.s:61     .text.rtc_init_mode_enter:000000000000002a .L0 
C:\Users\stapi\AppData\Local\Temp\ccW1j2pN.s:62     .text.rtc_init_mode_enter:000000000000002a .L0 
C:\Users\stapi\AppData\Local\Temp\ccW1j2pN.s:63     .text.rtc_init_mode_enter:000000000000002a .L0 
C:\Users\stapi\AppData\Local\Temp\ccW1j2pN.s:65     .text.rtc_init_mode_enter:000000000000002e .L0 
C:\Users\stapi\AppData\Local\Temp\ccW1j2pN.s:67     .text.rtc_init_mode_enter:0000000000000030 .L0 
C:\Users\stapi\AppData\Local\Temp\ccW1j2pN.s:70     .text.rtc_init_mode_enter:0000000000000034 .L0 
C:\Users\stapi\AppData\Local\Temp\ccW1j2pN.s:71     .text.rtc_init_mode_enter:0000000000000034 .L0 
C:\Users\stapi\AppData\Local\Temp\ccW1j2pN.s:73     .text.rtc_init_mode_enter:0000000000000036 .L0 
C:\Users\stapi\AppData\Local\Temp\ccW1j2pN.s:76     .text.rtc_init_mode_enter:000000000000003a .L0 
C:\Users\stapi\AppData\Local\Temp\ccW1j2pN.s:80     .text.rtc_init_mode_enter:000000000000003e .L0 
C:\Users\stapi\AppData\Local\Temp\ccW1j2pN.s:81     .text.rtc_init_mode_enter:000000000000003e .L0 
C:\Users\stapi\AppData\Local\Temp\ccW1j2pN.s:84     .text.rtc_init_mode_enter:0000000000000042 .L0 
C:\Users\stapi\AppData\Local\Temp\ccW1j2pN.s:85     .text.rtc_init_mode_enter:0000000000000042 .L0 
C:\Users\stapi\AppData\Local\Temp\ccW1j2pN.s:86     .text.rtc_init_mode_enter:0000000000000044 .L0 
C:\Users\stapi\AppData\Local\Temp\ccW1j2pN.s:93     .text.rtc_init_mode_exit:0000000000000000 rtc_init_mode_exit
C:\Users\stapi\AppData\Local\Temp\ccW1j2pN.s:96     .text.rtc_init_mode_exit:0000000000000000 .L0 
C:\Users\stapi\AppData\Local\Temp\ccW1j2pN.s:97     .text.rtc_init_mode_exit:0000000000000000 .L0 
C:\Users\stapi\AppData\Local\Temp\ccW1j2pN.s:98     .text.rtc_init_mode_exit:0000000000000000 .L0 
C:\Users\stapi\AppData\Local\Temp\ccW1j2pN.s:99     .text.rtc_init_mode_exit:0000000000000000 .L0 
C:\Users\stapi\AppData\Local\Temp\ccW1j2pN.s:104    .text.rtc_init_mode_exit:0000000000000010 .L0 
C:\Users\stapi\AppData\Local\Temp\ccW1j2pN.s:105    .text.rtc_init_mode_exit:0000000000000012 .L0 
C:\Users\stapi\AppData\Local\Temp\ccW1j2pN.s:112    .text.rtc_register_sync_wait:0000000000000000 rtc_register_sync_wait
C:\Users\stapi\AppData\Local\Temp\ccW1j2pN.s:115    .text.rtc_register_sync_wait:0000000000000000 .L0 
C:\Users\stapi\AppData\Local\Temp\ccW1j2pN.s:116    .text.rtc_register_sync_wait:0000000000000000 .L0 
C:\Users\stapi\AppData\Local\Temp\ccW1j2pN.s:117    .text.rtc_register_sync_wait:0000000000000000 .L0 
C:\Users\stapi\AppData\Local\Temp\ccW1j2pN.s:118    .text.rtc_register_sync_wait:0000000000000000 .L0 
C:\Users\stapi\AppData\Local\Temp\ccW1j2pN.s:120    .text.rtc_register_sync_wait:0000000000000002 .L0 
C:\Users\stapi\AppData\Local\Temp\ccW1j2pN.s:121    .text.rtc_register_sync_wait:0000000000000004 .L0 
C:\Users\stapi\AppData\Local\Temp\ccW1j2pN.s:123    .text.rtc_register_sync_wait:0000000000000004 .L0 
C:\Users\stapi\AppData\Local\Temp\ccW1j2pN.s:126    .text.rtc_register_sync_wait:0000000000000006 .L0 
C:\Users\stapi\AppData\Local\Temp\ccW1j2pN.s:127    .text.rtc_register_sync_wait:0000000000000006 .L0 
C:\Users\stapi\AppData\Local\Temp\ccW1j2pN.s:128    .text.rtc_register_sync_wait:0000000000000006 .L0 
C:\Users\stapi\AppData\Local\Temp\ccW1j2pN.s:129    .text.rtc_register_sync_wait:0000000000000006 .L0 
C:\Users\stapi\AppData\Local\Temp\ccW1j2pN.s:133    .text.rtc_register_sync_wait:0000000000000010 .L0 
C:\Users\stapi\AppData\Local\Temp\ccW1j2pN.s:135    .text.rtc_register_sync_wait:0000000000000014 .L0 
C:\Users\stapi\AppData\Local\Temp\ccW1j2pN.s:137    .text.rtc_register_sync_wait:0000000000000016 .L0 
C:\Users\stapi\AppData\Local\Temp\ccW1j2pN.s:138    .text.rtc_register_sync_wait:0000000000000016 .L0 
C:\Users\stapi\AppData\Local\Temp\ccW1j2pN.s:142    .text.rtc_register_sync_wait:0000000000000020 .L0 
C:\Users\stapi\AppData\Local\Temp\ccW1j2pN.s:143    .text.rtc_register_sync_wait:0000000000000020 .L0 
C:\Users\stapi\AppData\Local\Temp\ccW1j2pN.s:146    .text.rtc_register_sync_wait:0000000000000026 .L0 
C:\Users\stapi\AppData\Local\Temp\ccW1j2pN.s:147    .text.rtc_register_sync_wait:0000000000000026 .L0 
C:\Users\stapi\AppData\Local\Temp\ccW1j2pN.s:151    .text.rtc_register_sync_wait:000000000000002e .L0 
C:\Users\stapi\AppData\Local\Temp\ccW1j2pN.s:155    .text.rtc_register_sync_wait:0000000000000032 .L0 
C:\Users\stapi\AppData\Local\Temp\ccW1j2pN.s:156    .text.rtc_register_sync_wait:0000000000000032 .L0 
C:\Users\stapi\AppData\Local\Temp\ccW1j2pN.s:157    .text.rtc_register_sync_wait:0000000000000032 .L0 
C:\Users\stapi\AppData\Local\Temp\ccW1j2pN.s:159    .text.rtc_register_sync_wait:0000000000000036 .L0 
C:\Users\stapi\AppData\Local\Temp\ccW1j2pN.s:161    .text.rtc_register_sync_wait:0000000000000038 .L0 
C:\Users\stapi\AppData\Local\Temp\ccW1j2pN.s:164    .text.rtc_register_sync_wait:000000000000003c .L0 
C:\Users\stapi\AppData\Local\Temp\ccW1j2pN.s:165    .text.rtc_register_sync_wait:000000000000003c .L0 
C:\Users\stapi\AppData\Local\Temp\ccW1j2pN.s:167    .text.rtc_register_sync_wait:000000000000003e .L0 
C:\Users\stapi\AppData\Local\Temp\ccW1j2pN.s:170    .text.rtc_register_sync_wait:0000000000000042 .L0 
C:\Users\stapi\AppData\Local\Temp\ccW1j2pN.s:172    .text.rtc_register_sync_wait:0000000000000044 .L0 
C:\Users\stapi\AppData\Local\Temp\ccW1j2pN.s:176    .text.rtc_register_sync_wait:0000000000000046 .L0 
C:\Users\stapi\AppData\Local\Temp\ccW1j2pN.s:177    .text.rtc_register_sync_wait:0000000000000046 .L0 
C:\Users\stapi\AppData\Local\Temp\ccW1j2pN.s:183    .text.rtc_register_sync_wait:0000000000000052 .L0 
C:\Users\stapi\AppData\Local\Temp\ccW1j2pN.s:184    .text.rtc_register_sync_wait:0000000000000054 .L0 
C:\Users\stapi\AppData\Local\Temp\ccW1j2pN.s:185    .text.rtc_register_sync_wait:0000000000000054 .L0 
C:\Users\stapi\AppData\Local\Temp\ccW1j2pN.s:189    .text.rtc_register_sync_wait:0000000000000056 .L0 
C:\Users\stapi\AppData\Local\Temp\ccW1j2pN.s:191    .text.rtc_register_sync_wait:0000000000000056 .L0 
C:\Users\stapi\AppData\Local\Temp\ccW1j2pN.s:192    .text.rtc_register_sync_wait:0000000000000056 .L0 
C:\Users\stapi\AppData\Local\Temp\ccW1j2pN.s:195    .text.rtc_register_sync_wait:000000000000005c .L0 
C:\Users\stapi\AppData\Local\Temp\ccW1j2pN.s:202    .text.rtc_deinit:0000000000000000 rtc_deinit
C:\Users\stapi\AppData\Local\Temp\ccW1j2pN.s:205    .text.rtc_deinit:0000000000000000 .L0 
C:\Users\stapi\AppData\Local\Temp\ccW1j2pN.s:206    .text.rtc_deinit:0000000000000000 .L0 
C:\Users\stapi\AppData\Local\Temp\ccW1j2pN.s:207    .text.rtc_deinit:0000000000000008 .L0 
C:\Users\stapi\AppData\Local\Temp\ccW1j2pN.s:208    .text.rtc_deinit:0000000000000008 .L0 
C:\Users\stapi\AppData\Local\Temp\ccW1j2pN.s:209    .text.rtc_deinit:0000000000000008 .L0 
C:\Users\stapi\AppData\Local\Temp\ccW1j2pN.s:210    .text.rtc_deinit:0000000000000008 .L0 
C:\Users\stapi\AppData\Local\Temp\ccW1j2pN.s:213    .text.rtc_deinit:0000000000000008 .L0 
C:\Users\stapi\AppData\Local\Temp\ccW1j2pN.s:214    .text.rtc_deinit:0000000000000008 .L0 
C:\Users\stapi\AppData\Local\Temp\ccW1j2pN.s:215    .text.rtc_deinit:0000000000000008 .L0 
C:\Users\stapi\AppData\Local\Temp\ccW1j2pN.s:217    .text.rtc_deinit:000000000000000a .L0 
C:\Users\stapi\AppData\Local\Temp\ccW1j2pN.s:218    .text.rtc_deinit:000000000000000c .L0 
C:\Users\stapi\AppData\Local\Temp\ccW1j2pN.s:220    .text.rtc_deinit:000000000000000c .L0 
C:\Users\stapi\AppData\Local\Temp\ccW1j2pN.s:223    .text.rtc_deinit:000000000000000e .L0 
C:\Users\stapi\AppData\Local\Temp\ccW1j2pN.s:224    .text.rtc_deinit:000000000000000e .L0 
C:\Users\stapi\AppData\Local\Temp\ccW1j2pN.s:225    .text.rtc_deinit:000000000000000e .L0 
C:\Users\stapi\AppData\Local\Temp\ccW1j2pN.s:228    .text.rtc_deinit:0000000000000016 .L0 
C:\Users\stapi\AppData\Local\Temp\ccW1j2pN.s:229    .text.rtc_deinit:0000000000000016 .L0 
C:\Users\stapi\AppData\Local\Temp\ccW1j2pN.s:234    .text.rtc_deinit:0000000000000022 .L0 
C:\Users\stapi\AppData\Local\Temp\ccW1j2pN.s:235    .text.rtc_deinit:0000000000000022 .L0 
C:\Users\stapi\AppData\Local\Temp\ccW1j2pN.s:237    .text.rtc_deinit:0000000000000026 .L0 
C:\Users\stapi\AppData\Local\Temp\ccW1j2pN.s:238    .text.rtc_deinit:0000000000000026 .L0 
C:\Users\stapi\AppData\Local\Temp\ccW1j2pN.s:240    .text.rtc_deinit:000000000000002a .L0 
C:\Users\stapi\AppData\Local\Temp\ccW1j2pN.s:241    .text.rtc_deinit:000000000000002a .L0 
C:\Users\stapi\AppData\Local\Temp\ccW1j2pN.s:243    .text.rtc_deinit:000000000000002e .L0 
C:\Users\stapi\AppData\Local\Temp\ccW1j2pN.s:244    .text.rtc_deinit:000000000000002e .L0 
C:\Users\stapi\AppData\Local\Temp\ccW1j2pN.s:246    .text.rtc_deinit:0000000000000032 .L0 
C:\Users\stapi\AppData\Local\Temp\ccW1j2pN.s:247    .text.rtc_deinit:0000000000000032 .L0 
C:\Users\stapi\AppData\Local\Temp\ccW1j2pN.s:251    .text.rtc_deinit:000000000000003a .L0 
C:\Users\stapi\AppData\Local\Temp\ccW1j2pN.s:255    .text.rtc_deinit:000000000000003e .L0 
C:\Users\stapi\AppData\Local\Temp\ccW1j2pN.s:256    .text.rtc_deinit:000000000000003e .L0 
C:\Users\stapi\AppData\Local\Temp\ccW1j2pN.s:257    .text.rtc_deinit:000000000000003e .L0 
C:\Users\stapi\AppData\Local\Temp\ccW1j2pN.s:259    .text.rtc_deinit:0000000000000042 .L0 
C:\Users\stapi\AppData\Local\Temp\ccW1j2pN.s:261    .text.rtc_deinit:0000000000000044 .L0 
C:\Users\stapi\AppData\Local\Temp\ccW1j2pN.s:264    .text.rtc_deinit:0000000000000046 .L0 
C:\Users\stapi\AppData\Local\Temp\ccW1j2pN.s:265    .text.rtc_deinit:0000000000000046 .L0 
C:\Users\stapi\AppData\Local\Temp\ccW1j2pN.s:267    .text.rtc_deinit:0000000000000048 .L0 
C:\Users\stapi\AppData\Local\Temp\ccW1j2pN.s:270    .text.rtc_deinit:000000000000004c .L0 
C:\Users\stapi\AppData\Local\Temp\ccW1j2pN.s:273    .text.rtc_deinit:000000000000004e .L0 
C:\Users\stapi\AppData\Local\Temp\ccW1j2pN.s:274    .text.rtc_deinit:000000000000004e .L0 
C:\Users\stapi\AppData\Local\Temp\ccW1j2pN.s:280    .text.rtc_deinit:000000000000005c .L0 
C:\Users\stapi\AppData\Local\Temp\ccW1j2pN.s:281    .text.rtc_deinit:000000000000005c .L0 
C:\Users\stapi\AppData\Local\Temp\ccW1j2pN.s:285    .text.rtc_deinit:0000000000000062 .L0 
C:\Users\stapi\AppData\Local\Temp\ccW1j2pN.s:286    .text.rtc_deinit:0000000000000062 .L0 
C:\Users\stapi\AppData\Local\Temp\ccW1j2pN.s:289    .text.rtc_deinit:0000000000000068 .L0 
C:\Users\stapi\AppData\Local\Temp\ccW1j2pN.s:290    .text.rtc_deinit:0000000000000068 .L0 
C:\Users\stapi\AppData\Local\Temp\ccW1j2pN.s:293    .text.rtc_deinit:000000000000006e .L0 
C:\Users\stapi\AppData\Local\Temp\ccW1j2pN.s:294    .text.rtc_deinit:000000000000006e .L0 
C:\Users\stapi\AppData\Local\Temp\ccW1j2pN.s:297    .text.rtc_deinit:0000000000000076 .L0 
C:\Users\stapi\AppData\Local\Temp\ccW1j2pN.s:298    .text.rtc_deinit:0000000000000076 .L0 
C:\Users\stapi\AppData\Local\Temp\ccW1j2pN.s:300    .text.rtc_deinit:0000000000000078 .L0 
C:\Users\stapi\AppData\Local\Temp\ccW1j2pN.s:302    .text.rtc_deinit:000000000000007c .L0 
C:\Users\stapi\AppData\Local\Temp\ccW1j2pN.s:303    .text.rtc_deinit:000000000000007c .L0 
C:\Users\stapi\AppData\Local\Temp\ccW1j2pN.s:305    .text.rtc_deinit:0000000000000080 .L0 
C:\Users\stapi\AppData\Local\Temp\ccW1j2pN.s:306    .text.rtc_deinit:0000000000000080 .L0 
C:\Users\stapi\AppData\Local\Temp\ccW1j2pN.s:309    .text.rtc_deinit:0000000000000086 .L0 
C:\Users\stapi\AppData\Local\Temp\ccW1j2pN.s:310    .text.rtc_deinit:0000000000000086 .L0 
C:\Users\stapi\AppData\Local\Temp\ccW1j2pN.s:314    .text.rtc_deinit:0000000000000090 .L0 
C:\Users\stapi\AppData\Local\Temp\ccW1j2pN.s:315    .text.rtc_deinit:0000000000000090 .L0 
C:\Users\stapi\AppData\Local\Temp\ccW1j2pN.s:317    .text.rtc_deinit:0000000000000094 .L0 
C:\Users\stapi\AppData\Local\Temp\ccW1j2pN.s:318    .text.rtc_deinit:0000000000000094 .L0 
C:\Users\stapi\AppData\Local\Temp\ccW1j2pN.s:320    .text.rtc_deinit:0000000000000098 .L0 
C:\Users\stapi\AppData\Local\Temp\ccW1j2pN.s:321    .text.rtc_deinit:0000000000000098 .L0 
C:\Users\stapi\AppData\Local\Temp\ccW1j2pN.s:323    .text.rtc_deinit:000000000000009c .L0 
C:\Users\stapi\AppData\Local\Temp\ccW1j2pN.s:324    .text.rtc_deinit:000000000000009c .L0 
C:\Users\stapi\AppData\Local\Temp\ccW1j2pN.s:326    .text.rtc_deinit:00000000000000a0 .L0 
C:\Users\stapi\AppData\Local\Temp\ccW1j2pN.s:327    .text.rtc_deinit:00000000000000a0 .L0 
C:\Users\stapi\AppData\Local\Temp\ccW1j2pN.s:330    .text.rtc_deinit:00000000000000a8 .L0 
C:\Users\stapi\AppData\Local\Temp\ccW1j2pN.s:331    .text.rtc_deinit:00000000000000a8 .L0 
C:\Users\stapi\AppData\Local\Temp\ccW1j2pN.s:334    .text.rtc_deinit:00000000000000ae .L0 
C:\Users\stapi\AppData\Local\Temp\ccW1j2pN.s:335    .text.rtc_deinit:00000000000000ae .L0 
C:\Users\stapi\AppData\Local\Temp\ccW1j2pN.s:339    .text.rtc_deinit:00000000000000b0 .L0 
C:\Users\stapi\AppData\Local\Temp\ccW1j2pN.s:340    .text.rtc_deinit:00000000000000b0 .L0 
C:\Users\stapi\AppData\Local\Temp\ccW1j2pN.s:344    .text.rtc_deinit:00000000000000b2 .L0 
C:\Users\stapi\AppData\Local\Temp\ccW1j2pN.s:345    .text.rtc_deinit:00000000000000b4 .L0 
C:\Users\stapi\AppData\Local\Temp\ccW1j2pN.s:347    .text.rtc_deinit:00000000000000bc .L0 
C:\Users\stapi\AppData\Local\Temp\ccW1j2pN.s:348    .text.rtc_deinit:00000000000000bc .L0 
C:\Users\stapi\AppData\Local\Temp\ccW1j2pN.s:349    .text.rtc_deinit:00000000000000bc .L0 
C:\Users\stapi\AppData\Local\Temp\ccW1j2pN.s:350    .text.rtc_deinit:00000000000000bc .L0 
C:\Users\stapi\AppData\Local\Temp\ccW1j2pN.s:351    .text.rtc_deinit:00000000000000bc .L0 
C:\Users\stapi\AppData\Local\Temp\ccW1j2pN.s:358    .text.rtc_init:0000000000000000 rtc_init
C:\Users\stapi\AppData\Local\Temp\ccW1j2pN.s:361    .text.rtc_init:0000000000000000 .L0 
C:\Users\stapi\AppData\Local\Temp\ccW1j2pN.s:363    .text.rtc_init:0000000000000000 .L0 
C:\Users\stapi\AppData\Local\Temp\ccW1j2pN.s:364    .text.rtc_init:0000000000000008 .L0 
C:\Users\stapi\AppData\Local\Temp\ccW1j2pN.s:365    .text.rtc_init:0000000000000008 .L0 
C:\Users\stapi\AppData\Local\Temp\ccW1j2pN.s:366    .text.rtc_init:0000000000000008 .L0 
C:\Users\stapi\AppData\Local\Temp\ccW1j2pN.s:367    .text.rtc_init:0000000000000008 .L0 
C:\Users\stapi\AppData\Local\Temp\ccW1j2pN.s:368    .text.rtc_init:0000000000000008 .L0 
C:\Users\stapi\AppData\Local\Temp\ccW1j2pN.s:369    .text.rtc_init:0000000000000008 .L0 
C:\Users\stapi\AppData\Local\Temp\ccW1j2pN.s:370    .text.rtc_init:0000000000000008 .L0 
C:\Users\stapi\AppData\Local\Temp\ccW1j2pN.s:371    .text.rtc_init:0000000000000008 .L0 
C:\Users\stapi\AppData\Local\Temp\ccW1j2pN.s:372    .text.rtc_init:0000000000000008 .L0 
C:\Users\stapi\AppData\Local\Temp\ccW1j2pN.s:373    .text.rtc_init:0000000000000008 .L0 
C:\Users\stapi\AppData\Local\Temp\ccW1j2pN.s:374    .text.rtc_init:0000000000000008 .L0 
C:\Users\stapi\AppData\Local\Temp\ccW1j2pN.s:375    .text.rtc_init:0000000000000008 .L0 
C:\Users\stapi\AppData\Local\Temp\ccW1j2pN.s:378    .text.rtc_init:0000000000000008 .L0 
C:\Users\stapi\AppData\Local\Temp\ccW1j2pN.s:379    .text.rtc_init:0000000000000008 .L0 
C:\Users\stapi\AppData\Local\Temp\ccW1j2pN.s:380    .text.rtc_init:0000000000000008 .L0 
C:\Users\stapi\AppData\Local\Temp\ccW1j2pN.s:381    .text.rtc_init:0000000000000008 .L0 
C:\Users\stapi\AppData\Local\Temp\ccW1j2pN.s:384    .text.rtc_init:0000000000000010 .L0 
C:\Users\stapi\AppData\Local\Temp\ccW1j2pN.s:386    .text.rtc_init:0000000000000014 .L0 
C:\Users\stapi\AppData\Local\Temp\ccW1j2pN.s:388    .text.rtc_init:0000000000000018 .L0 
C:\Users\stapi\AppData\Local\Temp\ccW1j2pN.s:390    .text.rtc_init:000000000000001c .L0 
C:\Users\stapi\AppData\Local\Temp\ccW1j2pN.s:393    .text.rtc_init:0000000000000020 .L0 
C:\Users\stapi\AppData\Local\Temp\ccW1j2pN.s:394    .text.rtc_init:0000000000000020 .L0 
C:\Users\stapi\AppData\Local\Temp\ccW1j2pN.s:396    .text.rtc_init:0000000000000024 .L0 
C:\Users\stapi\AppData\Local\Temp\ccW1j2pN.s:398    .text.rtc_init:0000000000000028 .L0 
C:\Users\stapi\AppData\Local\Temp\ccW1j2pN.s:400    .text.rtc_init:000000000000002c .L0 
C:\Users\stapi\AppData\Local\Temp\ccW1j2pN.s:403    .text.rtc_init:0000000000000030 .L0 
C:\Users\stapi\AppData\Local\Temp\ccW1j2pN.s:404    .text.rtc_init:0000000000000030 .L0 
C:\Users\stapi\AppData\Local\Temp\ccW1j2pN.s:406    .text.rtc_init:0000000000000034 .L0 
C:\Users\stapi\AppData\Local\Temp\ccW1j2pN.s:407    .text.rtc_init:0000000000000034 .L0 
C:\Users\stapi\AppData\Local\Temp\ccW1j2pN.s:410    .text.rtc_init:000000000000003c .L0 
C:\Users\stapi\AppData\Local\Temp\ccW1j2pN.s:411    .text.rtc_init:000000000000003c .L0 
C:\Users\stapi\AppData\Local\Temp\ccW1j2pN.s:413    .text.rtc_init:000000000000003e .L0 
C:\Users\stapi\AppData\Local\Temp\ccW1j2pN.s:416    .text.rtc_init:0000000000000046 .L0 
C:\Users\stapi\AppData\Local\Temp\ccW1j2pN.s:417    .text.rtc_init:0000000000000046 .L0 
C:\Users\stapi\AppData\Local\Temp\ccW1j2pN.s:419    .text.rtc_init:0000000000000048 .L0 
C:\Users\stapi\AppData\Local\Temp\ccW1j2pN.s:420    .text.rtc_init:0000000000000048 .L0 
C:\Users\stapi\AppData\Local\Temp\ccW1j2pN.s:422    .text.rtc_init:000000000000004c .L0 
C:\Users\stapi\AppData\Local\Temp\ccW1j2pN.s:424    .text.rtc_init:0000000000000050 .L0 
C:\Users\stapi\AppData\Local\Temp\ccW1j2pN.s:426    .text.rtc_init:0000000000000054 .L0 
C:\Users\stapi\AppData\Local\Temp\ccW1j2pN.s:428    .text.rtc_init:0000000000000056 .L0 
C:\Users\stapi\AppData\Local\Temp\ccW1j2pN.s:431    .text.rtc_init:000000000000005a .L0 
C:\Users\stapi\AppData\Local\Temp\ccW1j2pN.s:434    .text.rtc_init:0000000000000060 .L0 
C:\Users\stapi\AppData\Local\Temp\ccW1j2pN.s:436    .text.rtc_init:0000000000000062 .L0 
C:\Users\stapi\AppData\Local\Temp\ccW1j2pN.s:439    .text.rtc_init:0000000000000068 .L0 
C:\Users\stapi\AppData\Local\Temp\ccW1j2pN.s:440    .text.rtc_init:0000000000000068 .L0 
C:\Users\stapi\AppData\Local\Temp\ccW1j2pN.s:445    .text.rtc_init:0000000000000072 .L0 
C:\Users\stapi\AppData\Local\Temp\ccW1j2pN.s:447    .text.rtc_init:0000000000000076 .L0 
C:\Users\stapi\AppData\Local\Temp\ccW1j2pN.s:451    .text.rtc_init:000000000000007a .L0 
C:\Users\stapi\AppData\Local\Temp\ccW1j2pN.s:453    .text.rtc_init:000000000000007e .L0 
C:\Users\stapi\AppData\Local\Temp\ccW1j2pN.s:455    .text.rtc_init:0000000000000082 .L0 
C:\Users\stapi\AppData\Local\Temp\ccW1j2pN.s:457    .text.rtc_init:0000000000000086 .L0 
C:\Users\stapi\AppData\Local\Temp\ccW1j2pN.s:459    .text.rtc_init:0000000000000088 .L0 
C:\Users\stapi\AppData\Local\Temp\ccW1j2pN.s:461    .text.rtc_init:000000000000008a .L0 
C:\Users\stapi\AppData\Local\Temp\ccW1j2pN.s:463    .text.rtc_init:000000000000008e .L0 
C:\Users\stapi\AppData\Local\Temp\ccW1j2pN.s:465    .text.rtc_init:0000000000000090 .L0 
C:\Users\stapi\AppData\Local\Temp\ccW1j2pN.s:467    .text.rtc_init:0000000000000094 .L0 
C:\Users\stapi\AppData\Local\Temp\ccW1j2pN.s:469    .text.rtc_init:0000000000000098 .L0 
C:\Users\stapi\AppData\Local\Temp\ccW1j2pN.s:471    .text.rtc_init:000000000000009c .L0 
C:\Users\stapi\AppData\Local\Temp\ccW1j2pN.s:473    .text.rtc_init:00000000000000a0 .L0 
C:\Users\stapi\AppData\Local\Temp\ccW1j2pN.s:476    .text.rtc_init:00000000000000a6 .L0 
C:\Users\stapi\AppData\Local\Temp\ccW1j2pN.s:478    .text.rtc_init:00000000000000aa .L0 
C:\Users\stapi\AppData\Local\Temp\ccW1j2pN.s:480    .text.rtc_init:00000000000000ae .L0 
C:\Users\stapi\AppData\Local\Temp\ccW1j2pN.s:482    .text.rtc_init:00000000000000b2 .L0 
C:\Users\stapi\AppData\Local\Temp\ccW1j2pN.s:483    .text.rtc_init:00000000000000b2 .L0 
C:\Users\stapi\AppData\Local\Temp\ccW1j2pN.s:485    .text.rtc_init:00000000000000b6 .L0 
C:\Users\stapi\AppData\Local\Temp\ccW1j2pN.s:487    .text.rtc_init:00000000000000b8 .L0 
C:\Users\stapi\AppData\Local\Temp\ccW1j2pN.s:488    .text.rtc_init:00000000000000b8 .L0 
C:\Users\stapi\AppData\Local\Temp\ccW1j2pN.s:492    .text.rtc_init:00000000000000c0 .L0 
C:\Users\stapi\AppData\Local\Temp\ccW1j2pN.s:493    .text.rtc_init:00000000000000c0 .L0 
C:\Users\stapi\AppData\Local\Temp\ccW1j2pN.s:498    .text.rtc_init:00000000000000c8 .L0 
C:\Users\stapi\AppData\Local\Temp\ccW1j2pN.s:501    .text.rtc_init:00000000000000d0 .L0 
C:\Users\stapi\AppData\Local\Temp\ccW1j2pN.s:502    .text.rtc_init:00000000000000d0 .L0 
C:\Users\stapi\AppData\Local\Temp\ccW1j2pN.s:506    .text.rtc_init:00000000000000d8 .L0 
C:\Users\stapi\AppData\Local\Temp\ccW1j2pN.s:507    .text.rtc_init:00000000000000d8 .L0 
C:\Users\stapi\AppData\Local\Temp\ccW1j2pN.s:511    .text.rtc_init:00000000000000e4 .L0 
C:\Users\stapi\AppData\Local\Temp\ccW1j2pN.s:512    .text.rtc_init:00000000000000e4 .L0 
C:\Users\stapi\AppData\Local\Temp\ccW1j2pN.s:513    .text.rtc_init:00000000000000ec .L0 
C:\Users\stapi\AppData\Local\Temp\ccW1j2pN.s:514    .text.rtc_init:00000000000000ec .L0 
C:\Users\stapi\AppData\Local\Temp\ccW1j2pN.s:515    .text.rtc_init:00000000000000ec .L0 
C:\Users\stapi\AppData\Local\Temp\ccW1j2pN.s:516    .text.rtc_init:00000000000000ec .L0 
C:\Users\stapi\AppData\Local\Temp\ccW1j2pN.s:517    .text.rtc_init:00000000000000ec .L0 
C:\Users\stapi\AppData\Local\Temp\ccW1j2pN.s:518    .text.rtc_init:00000000000000ec .L0 
C:\Users\stapi\AppData\Local\Temp\ccW1j2pN.s:519    .text.rtc_init:00000000000000ec .L0 
C:\Users\stapi\AppData\Local\Temp\ccW1j2pN.s:520    .text.rtc_init:00000000000000ec .L0 
C:\Users\stapi\AppData\Local\Temp\ccW1j2pN.s:521    .text.rtc_init:00000000000000ec .L0 
C:\Users\stapi\AppData\Local\Temp\ccW1j2pN.s:522    .text.rtc_init:00000000000000ec .L0 
C:\Users\stapi\AppData\Local\Temp\ccW1j2pN.s:523    .text.rtc_init:00000000000000ec .L0 
C:\Users\stapi\AppData\Local\Temp\ccW1j2pN.s:524    .text.rtc_init:00000000000000ec .L0 
C:\Users\stapi\AppData\Local\Temp\ccW1j2pN.s:525    .text.rtc_init:00000000000000ec .L0 
C:\Users\stapi\AppData\Local\Temp\ccW1j2pN.s:532    .text.rtc_current_time_get:0000000000000000 rtc_current_time_get
C:\Users\stapi\AppData\Local\Temp\ccW1j2pN.s:535    .text.rtc_current_time_get:0000000000000000 .L0 
C:\Users\stapi\AppData\Local\Temp\ccW1j2pN.s:537    .text.rtc_current_time_get:0000000000000000 .L0 
C:\Users\stapi\AppData\Local\Temp\ccW1j2pN.s:538    .text.rtc_current_time_get:0000000000000000 .L0 
C:\Users\stapi\AppData\Local\Temp\ccW1j2pN.s:539    .text.rtc_current_time_get:0000000000000000 .L0 
C:\Users\stapi\AppData\Local\Temp\ccW1j2pN.s:540    .text.rtc_current_time_get:0000000000000000 .L0 
C:\Users\stapi\AppData\Local\Temp\ccW1j2pN.s:545    .text.rtc_current_time_get:000000000000000a .L0 
C:\Users\stapi\AppData\Local\Temp\ccW1j2pN.s:546    .text.rtc_current_time_get:000000000000000a .L0 
C:\Users\stapi\AppData\Local\Temp\ccW1j2pN.s:549    .text.rtc_current_time_get:000000000000000c .L0 
C:\Users\stapi\AppData\Local\Temp\ccW1j2pN.s:550    .text.rtc_current_time_get:000000000000000c .L0 
C:\Users\stapi\AppData\Local\Temp\ccW1j2pN.s:553    .text.rtc_current_time_get:000000000000000e .L0 
C:\Users\stapi\AppData\Local\Temp\ccW1j2pN.s:554    .text.rtc_current_time_get:000000000000000e .L0 
C:\Users\stapi\AppData\Local\Temp\ccW1j2pN.s:557    .text.rtc_current_time_get:0000000000000010 .L0 
C:\Users\stapi\AppData\Local\Temp\ccW1j2pN.s:558    .text.rtc_current_time_get:0000000000000010 .L0 
C:\Users\stapi\AppData\Local\Temp\ccW1j2pN.s:560    .text.rtc_current_time_get:0000000000000014 .L0 
C:\Users\stapi\AppData\Local\Temp\ccW1j2pN.s:562    .text.rtc_current_time_get:0000000000000018 .L0 
C:\Users\stapi\AppData\Local\Temp\ccW1j2pN.s:563    .text.rtc_current_time_get:0000000000000018 .L0 
C:\Users\stapi\AppData\Local\Temp\ccW1j2pN.s:565    .text.rtc_current_time_get:000000000000001c .L0 
C:\Users\stapi\AppData\Local\Temp\ccW1j2pN.s:567    .text.rtc_current_time_get:000000000000001e .L0 
C:\Users\stapi\AppData\Local\Temp\ccW1j2pN.s:569    .text.rtc_current_time_get:0000000000000022 .L0 
C:\Users\stapi\AppData\Local\Temp\ccW1j2pN.s:570    .text.rtc_current_time_get:0000000000000022 .L0 
C:\Users\stapi\AppData\Local\Temp\ccW1j2pN.s:572    .text.rtc_current_time_get:0000000000000026 .L0 
C:\Users\stapi\AppData\Local\Temp\ccW1j2pN.s:575    .text.rtc_current_time_get:0000000000000028 .L0 
C:\Users\stapi\AppData\Local\Temp\ccW1j2pN.s:577    .text.rtc_current_time_get:000000000000002a .L0 
C:\Users\stapi\AppData\Local\Temp\ccW1j2pN.s:579    .text.rtc_current_time_get:000000000000002e .L0 
C:\Users\stapi\AppData\Local\Temp\ccW1j2pN.s:581    .text.rtc_current_time_get:0000000000000032 .L0 
C:\Users\stapi\AppData\Local\Temp\ccW1j2pN.s:583    .text.rtc_current_time_get:0000000000000036 .L0 
C:\Users\stapi\AppData\Local\Temp\ccW1j2pN.s:585    .text.rtc_current_time_get:000000000000003a .L0 
C:\Users\stapi\AppData\Local\Temp\ccW1j2pN.s:587    .text.rtc_current_time_get:000000000000003e .L0 
C:\Users\stapi\AppData\Local\Temp\ccW1j2pN.s:589    .text.rtc_current_time_get:0000000000000042 .L0 
C:\Users\stapi\AppData\Local\Temp\ccW1j2pN.s:591    .text.rtc_current_time_get:0000000000000046 .L0 
C:\Users\stapi\AppData\Local\Temp\ccW1j2pN.s:593    .text.rtc_current_time_get:000000000000004a .L0 
C:\Users\stapi\AppData\Local\Temp\ccW1j2pN.s:595    .text.rtc_current_time_get:000000000000004e .L0 
C:\Users\stapi\AppData\Local\Temp\ccW1j2pN.s:597    .text.rtc_current_time_get:0000000000000052 .L0 
C:\Users\stapi\AppData\Local\Temp\ccW1j2pN.s:599    .text.rtc_current_time_get:0000000000000056 .L0 
C:\Users\stapi\AppData\Local\Temp\ccW1j2pN.s:601    .text.rtc_current_time_get:000000000000005a .L0 
C:\Users\stapi\AppData\Local\Temp\ccW1j2pN.s:604    .text.rtc_current_time_get:000000000000005c .L0 
C:\Users\stapi\AppData\Local\Temp\ccW1j2pN.s:608    .text.rtc_current_time_get:0000000000000062 .L0 
C:\Users\stapi\AppData\Local\Temp\ccW1j2pN.s:610    .text.rtc_current_time_get:0000000000000064 .L0 
C:\Users\stapi\AppData\Local\Temp\ccW1j2pN.s:612    .text.rtc_current_time_get:0000000000000068 .L0 
C:\Users\stapi\AppData\Local\Temp\ccW1j2pN.s:614    .text.rtc_current_time_get:000000000000006c .L0 
C:\Users\stapi\AppData\Local\Temp\ccW1j2pN.s:615    .text.rtc_current_time_get:000000000000006c .L0 
C:\Users\stapi\AppData\Local\Temp\ccW1j2pN.s:616    .text.rtc_current_time_get:000000000000006c .L0 
C:\Users\stapi\AppData\Local\Temp\ccW1j2pN.s:617    .text.rtc_current_time_get:000000000000006c .L0 
C:\Users\stapi\AppData\Local\Temp\ccW1j2pN.s:618    .text.rtc_current_time_get:000000000000006c .L0 
C:\Users\stapi\AppData\Local\Temp\ccW1j2pN.s:619    .text.rtc_current_time_get:000000000000006c .L0 
C:\Users\stapi\AppData\Local\Temp\ccW1j2pN.s:620    .text.rtc_current_time_get:000000000000006c .L0 
C:\Users\stapi\AppData\Local\Temp\ccW1j2pN.s:622    .text.rtc_current_time_get:0000000000000070 .L0 
C:\Users\stapi\AppData\Local\Temp\ccW1j2pN.s:623    .text.rtc_current_time_get:0000000000000070 .L0 
C:\Users\stapi\AppData\Local\Temp\ccW1j2pN.s:625    .text.rtc_current_time_get:0000000000000072 .L0 
C:\Users\stapi\AppData\Local\Temp\ccW1j2pN.s:626    .text.rtc_current_time_get:0000000000000072 .L0 
C:\Users\stapi\AppData\Local\Temp\ccW1j2pN.s:628    .text.rtc_current_time_get:0000000000000074 .L0 
C:\Users\stapi\AppData\Local\Temp\ccW1j2pN.s:629    .text.rtc_current_time_get:0000000000000076 .L0 
C:\Users\stapi\AppData\Local\Temp\ccW1j2pN.s:636    .text.rtc_subsecond_get:0000000000000000 rtc_subsecond_get
C:\Users\stapi\AppData\Local\Temp\ccW1j2pN.s:639    .text.rtc_subsecond_get:0000000000000000 .L0 
C:\Users\stapi\AppData\Local\Temp\ccW1j2pN.s:640    .text.rtc_subsecond_get:0000000000000000 .L0 
C:\Users\stapi\AppData\Local\Temp\ccW1j2pN.s:642    .text.rtc_subsecond_get:0000000000000000 .L0 
C:\Users\stapi\AppData\Local\Temp\ccW1j2pN.s:643    .text.rtc_subsecond_get:0000000000000000 .L0 
C:\Users\stapi\AppData\Local\Temp\ccW1j2pN.s:644    .text.rtc_subsecond_get:0000000000000000 .L0 
C:\Users\stapi\AppData\Local\Temp\ccW1j2pN.s:648    .text.rtc_subsecond_get:0000000000000008 .L0 
C:\Users\stapi\AppData\Local\Temp\ccW1j2pN.s:650    .text.rtc_subsecond_get:000000000000000c .L0 
C:\Users\stapi\AppData\Local\Temp\ccW1j2pN.s:651    .text.rtc_subsecond_get:000000000000000c .L0 
C:\Users\stapi\AppData\Local\Temp\ccW1j2pN.s:652    .text.rtc_subsecond_get:000000000000000e .L0 
C:\Users\stapi\AppData\Local\Temp\ccW1j2pN.s:659    .text.rtc_alarm_config:0000000000000000 rtc_alarm_config
C:\Users\stapi\AppData\Local\Temp\ccW1j2pN.s:662    .text.rtc_alarm_config:0000000000000000 .L0 
C:\Users\stapi\AppData\Local\Temp\ccW1j2pN.s:664    .text.rtc_alarm_config:0000000000000000 .L0 
C:\Users\stapi\AppData\Local\Temp\ccW1j2pN.s:665    .text.rtc_alarm_config:0000000000000000 .L0 
C:\Users\stapi\AppData\Local\Temp\ccW1j2pN.s:666    .text.rtc_alarm_config:0000000000000000 .L0 
C:\Users\stapi\AppData\Local\Temp\ccW1j2pN.s:667    .text.rtc_alarm_config:0000000000000000 .L0 
C:\Users\stapi\AppData\Local\Temp\ccW1j2pN.s:671    .text.rtc_alarm_config:000000000000000c .L0 
C:\Users\stapi\AppData\Local\Temp\ccW1j2pN.s:672    .text.rtc_alarm_config:000000000000000c .L0 
C:\Users\stapi\AppData\Local\Temp\ccW1j2pN.s:675    .text.rtc_alarm_config:0000000000000014 .L0 
C:\Users\stapi\AppData\Local\Temp\ccW1j2pN.s:676    .text.rtc_alarm_config:0000000000000014 .L0 
C:\Users\stapi\AppData\Local\Temp\ccW1j2pN.s:679    .text.rtc_alarm_config:0000000000000018 .L0 
C:\Users\stapi\AppData\Local\Temp\ccW1j2pN.s:681    .text.rtc_alarm_config:000000000000001c .L0 
C:\Users\stapi\AppData\Local\Temp\ccW1j2pN.s:685    .text.rtc_alarm_config:0000000000000022 .L0 
C:\Users\stapi\AppData\Local\Temp\ccW1j2pN.s:688    .text.rtc_alarm_config:000000000000002a .L0 
C:\Users\stapi\AppData\Local\Temp\ccW1j2pN.s:690    .text.rtc_alarm_config:000000000000002c .L0 
C:\Users\stapi\AppData\Local\Temp\ccW1j2pN.s:694    .text.rtc_alarm_config:0000000000000034 .L0 
C:\Users\stapi\AppData\Local\Temp\ccW1j2pN.s:696    .text.rtc_alarm_config:0000000000000036 .L0 
C:\Users\stapi\AppData\Local\Temp\ccW1j2pN.s:701    .text.rtc_alarm_config:0000000000000042 .L0 
C:\Users\stapi\AppData\Local\Temp\ccW1j2pN.s:703    .text.rtc_alarm_config:0000000000000044 .L0 
C:\Users\stapi\AppData\Local\Temp\ccW1j2pN.s:709    .text.rtc_alarm_config:0000000000000052 .L0 
C:\Users\stapi\AppData\Local\Temp\ccW1j2pN.s:712    .text.rtc_alarm_config:0000000000000054 .L0 
C:\Users\stapi\AppData\Local\Temp\ccW1j2pN.s:713    .text.rtc_alarm_config:0000000000000054 .L0 
C:\Users\stapi\AppData\Local\Temp\ccW1j2pN.s:716    .text.rtc_alarm_config:000000000000005a .L0 
C:\Users\stapi\AppData\Local\Temp\ccW1j2pN.s:717    .text.rtc_alarm_config:000000000000005a .L0 
C:\Users\stapi\AppData\Local\Temp\ccW1j2pN.s:720    .text.rtc_alarm_config:000000000000005e .L0 
C:\Users\stapi\AppData\Local\Temp\ccW1j2pN.s:721    .text.rtc_alarm_config:000000000000005e .L0 
C:\Users\stapi\AppData\Local\Temp\ccW1j2pN.s:726    .text.rtc_alarm_config:000000000000006a .L0 
C:\Users\stapi\AppData\Local\Temp\ccW1j2pN.s:730    .text.rtc_alarm_config:000000000000006c .L0 
C:\Users\stapi\AppData\Local\Temp\ccW1j2pN.s:731    .text.rtc_alarm_config:000000000000006c .L0 
C:\Users\stapi\AppData\Local\Temp\ccW1j2pN.s:733    .text.rtc_alarm_config:0000000000000072 .L0 
C:\Users\stapi\AppData\Local\Temp\ccW1j2pN.s:740    .text.rtc_alarm_subsecond_config:0000000000000000 rtc_alarm_subsecond_config
C:\Users\stapi\AppData\Local\Temp\ccW1j2pN.s:743    .text.rtc_alarm_subsecond_config:0000000000000000 .L0 
C:\Users\stapi\AppData\Local\Temp\ccW1j2pN.s:745    .text.rtc_alarm_subsecond_config:0000000000000000 .L0 
C:\Users\stapi\AppData\Local\Temp\ccW1j2pN.s:746    .text.rtc_alarm_subsecond_config:0000000000000000 .L0 
C:\Users\stapi\AppData\Local\Temp\ccW1j2pN.s:747    .text.rtc_alarm_subsecond_config:0000000000000000 .L0 
C:\Users\stapi\AppData\Local\Temp\ccW1j2pN.s:751    .text.rtc_alarm_subsecond_config:000000000000000c .L0 
C:\Users\stapi\AppData\Local\Temp\ccW1j2pN.s:752    .text.rtc_alarm_subsecond_config:000000000000000c .L0 
C:\Users\stapi\AppData\Local\Temp\ccW1j2pN.s:755    .text.rtc_alarm_subsecond_config:0000000000000014 .L0 
C:\Users\stapi\AppData\Local\Temp\ccW1j2pN.s:756    .text.rtc_alarm_subsecond_config:0000000000000014 .L0 
C:\Users\stapi\AppData\Local\Temp\ccW1j2pN.s:758    .text.rtc_alarm_subsecond_config:0000000000000016 .L0 
C:\Users\stapi\AppData\Local\Temp\ccW1j2pN.s:761    .text.rtc_alarm_subsecond_config:0000000000000018 .L0 
C:\Users\stapi\AppData\Local\Temp\ccW1j2pN.s:763    .text.rtc_alarm_subsecond_config:000000000000001c .L0 
C:\Users\stapi\AppData\Local\Temp\ccW1j2pN.s:764    .text.rtc_alarm_subsecond_config:000000000000001c .L0 
C:\Users\stapi\AppData\Local\Temp\ccW1j2pN.s:767    .text.rtc_alarm_subsecond_config:0000000000000020 .L0 
C:\Users\stapi\AppData\Local\Temp\ccW1j2pN.s:768    .text.rtc_alarm_subsecond_config:0000000000000020 .L0 
C:\Users\stapi\AppData\Local\Temp\ccW1j2pN.s:772    .text.rtc_alarm_subsecond_config:000000000000002c .L0 
C:\Users\stapi\AppData\Local\Temp\ccW1j2pN.s:775    .text.rtc_alarm_subsecond_config:000000000000002e .L0 
C:\Users\stapi\AppData\Local\Temp\ccW1j2pN.s:776    .text.rtc_alarm_subsecond_config:000000000000002e .L0 
C:\Users\stapi\AppData\Local\Temp\ccW1j2pN.s:778    .text.rtc_alarm_subsecond_config:0000000000000034 .L0 
C:\Users\stapi\AppData\Local\Temp\ccW1j2pN.s:785    .text.rtc_alarm_get:0000000000000000 rtc_alarm_get
C:\Users\stapi\AppData\Local\Temp\ccW1j2pN.s:788    .text.rtc_alarm_get:0000000000000000 .L0 
C:\Users\stapi\AppData\Local\Temp\ccW1j2pN.s:790    .text.rtc_alarm_get:0000000000000000 .L0 
C:\Users\stapi\AppData\Local\Temp\ccW1j2pN.s:791    .text.rtc_alarm_get:0000000000000000 .L0 
C:\Users\stapi\AppData\Local\Temp\ccW1j2pN.s:792    .text.rtc_alarm_get:0000000000000000 .L0 
C:\Users\stapi\AppData\Local\Temp\ccW1j2pN.s:793    .text.rtc_alarm_get:0000000000000000 .L0 
C:\Users\stapi\AppData\Local\Temp\ccW1j2pN.s:796    .text.rtc_alarm_get:0000000000000006 .L0 
C:\Users\stapi\AppData\Local\Temp\ccW1j2pN.s:797    .text.rtc_alarm_get:0000000000000006 .L0 
C:\Users\stapi\AppData\Local\Temp\ccW1j2pN.s:802    .text.rtc_alarm_get:000000000000000e .L0 
C:\Users\stapi\AppData\Local\Temp\ccW1j2pN.s:803    .text.rtc_alarm_get:000000000000000e .L0 
C:\Users\stapi\AppData\Local\Temp\ccW1j2pN.s:807    .text.rtc_alarm_get:0000000000000018 .L0 
C:\Users\stapi\AppData\Local\Temp\ccW1j2pN.s:809    .text.rtc_alarm_get:000000000000001a .L0 
C:\Users\stapi\AppData\Local\Temp\ccW1j2pN.s:810    .text.rtc_alarm_get:000000000000001a .L0 
C:\Users\stapi\AppData\Local\Temp\ccW1j2pN.s:813    .text.rtc_alarm_get:0000000000000020 .L0 
C:\Users\stapi\AppData\Local\Temp\ccW1j2pN.s:815    .text.rtc_alarm_get:0000000000000022 .L0 
C:\Users\stapi\AppData\Local\Temp\ccW1j2pN.s:816    .text.rtc_alarm_get:0000000000000022 .L0 
C:\Users\stapi\AppData\Local\Temp\ccW1j2pN.s:819    .text.rtc_alarm_get:0000000000000028 .L0 
C:\Users\stapi\AppData\Local\Temp\ccW1j2pN.s:821    .text.rtc_alarm_get:000000000000002a .L0 
C:\Users\stapi\AppData\Local\Temp\ccW1j2pN.s:822    .text.rtc_alarm_get:000000000000002a .L0 
C:\Users\stapi\AppData\Local\Temp\ccW1j2pN.s:824    .text.rtc_alarm_get:000000000000002e .L0 
C:\Users\stapi\AppData\Local\Temp\ccW1j2pN.s:826    .text.rtc_alarm_get:0000000000000032 .L0 
C:\Users\stapi\AppData\Local\Temp\ccW1j2pN.s:828    .text.rtc_alarm_get:0000000000000036 .L0 
C:\Users\stapi\AppData\Local\Temp\ccW1j2pN.s:829    .text.rtc_alarm_get:0000000000000036 .L0 
C:\Users\stapi\AppData\Local\Temp\ccW1j2pN.s:831    .text.rtc_alarm_get:000000000000003a .L0 
C:\Users\stapi\AppData\Local\Temp\ccW1j2pN.s:833    .text.rtc_alarm_get:000000000000003e .L0 
C:\Users\stapi\AppData\Local\Temp\ccW1j2pN.s:835    .text.rtc_alarm_get:0000000000000042 .L0 
C:\Users\stapi\AppData\Local\Temp\ccW1j2pN.s:836    .text.rtc_alarm_get:0000000000000042 .L0 
C:\Users\stapi\AppData\Local\Temp\ccW1j2pN.s:838    .text.rtc_alarm_get:0000000000000046 .L0 
C:\Users\stapi\AppData\Local\Temp\ccW1j2pN.s:840    .text.rtc_alarm_get:000000000000004a .L0 
C:\Users\stapi\AppData\Local\Temp\ccW1j2pN.s:843    .text.rtc_alarm_get:000000000000004e .L0 
C:\Users\stapi\AppData\Local\Temp\ccW1j2pN.s:845    .text.rtc_alarm_get:0000000000000052 .L0 
C:\Users\stapi\AppData\Local\Temp\ccW1j2pN.s:846    .text.rtc_alarm_get:0000000000000052 .L0 
C:\Users\stapi\AppData\Local\Temp\ccW1j2pN.s:848    .text.rtc_alarm_get:0000000000000056 .L0 
C:\Users\stapi\AppData\Local\Temp\ccW1j2pN.s:852    .text.rtc_alarm_get:0000000000000058 .L0 
C:\Users\stapi\AppData\Local\Temp\ccW1j2pN.s:853    .text.rtc_alarm_get:0000000000000058 .L0 
C:\Users\stapi\AppData\Local\Temp\ccW1j2pN.s:857    .text.rtc_alarm_get:0000000000000062 .L0 
C:\Users\stapi\AppData\Local\Temp\ccW1j2pN.s:864    .text.rtc_alarm_subsecond_get:0000000000000000 rtc_alarm_subsecond_get
C:\Users\stapi\AppData\Local\Temp\ccW1j2pN.s:867    .text.rtc_alarm_subsecond_get:0000000000000000 .L0 
C:\Users\stapi\AppData\Local\Temp\ccW1j2pN.s:869    .text.rtc_alarm_subsecond_get:0000000000000000 .L0 
C:\Users\stapi\AppData\Local\Temp\ccW1j2pN.s:870    .text.rtc_alarm_subsecond_get:0000000000000000 .L0 
C:\Users\stapi\AppData\Local\Temp\ccW1j2pN.s:872    .text.rtc_alarm_subsecond_get:0000000000000002 .L0 
C:\Users\stapi\AppData\Local\Temp\ccW1j2pN.s:876    .text.rtc_alarm_subsecond_get:000000000000000a .L0 
C:\Users\stapi\AppData\Local\Temp\ccW1j2pN.s:877    .text.rtc_alarm_subsecond_get:000000000000000a .L0 
C:\Users\stapi\AppData\Local\Temp\ccW1j2pN.s:882    .text.rtc_alarm_subsecond_get:0000000000000012 .L0 
C:\Users\stapi\AppData\Local\Temp\ccW1j2pN.s:884    .text.rtc_alarm_subsecond_get:0000000000000014 .L0 
C:\Users\stapi\AppData\Local\Temp\ccW1j2pN.s:888    .text.rtc_alarm_subsecond_get:0000000000000016 .L0 
C:\Users\stapi\AppData\Local\Temp\ccW1j2pN.s:889    .text.rtc_alarm_subsecond_get:0000000000000016 .L0 
C:\Users\stapi\AppData\Local\Temp\ccW1j2pN.s:893    .text.rtc_alarm_subsecond_get:0000000000000020 .L0 
C:\Users\stapi\AppData\Local\Temp\ccW1j2pN.s:900    .text.rtc_alarm_enable:0000000000000000 rtc_alarm_enable
C:\Users\stapi\AppData\Local\Temp\ccW1j2pN.s:903    .text.rtc_alarm_enable:0000000000000000 .L0 
C:\Users\stapi\AppData\Local\Temp\ccW1j2pN.s:905    .text.rtc_alarm_enable:0000000000000000 .L0 
C:\Users\stapi\AppData\Local\Temp\ccW1j2pN.s:906    .text.rtc_alarm_enable:0000000000000000 .L0 
C:\Users\stapi\AppData\Local\Temp\ccW1j2pN.s:907    .text.rtc_alarm_enable:0000000000000000 .L0 
C:\Users\stapi\AppData\Local\Temp\ccW1j2pN.s:911    .text.rtc_alarm_enable:000000000000000c .L0 
C:\Users\stapi\AppData\Local\Temp\ccW1j2pN.s:912    .text.rtc_alarm_enable:000000000000000c .L0 
C:\Users\stapi\AppData\Local\Temp\ccW1j2pN.s:915    .text.rtc_alarm_enable:0000000000000014 .L0 
C:\Users\stapi\AppData\Local\Temp\ccW1j2pN.s:916    .text.rtc_alarm_enable:0000000000000014 .L0 
C:\Users\stapi\AppData\Local\Temp\ccW1j2pN.s:919    .text.rtc_alarm_enable:000000000000001a .L0 
C:\Users\stapi\AppData\Local\Temp\ccW1j2pN.s:920    .text.rtc_alarm_enable:000000000000001a .L0 
C:\Users\stapi\AppData\Local\Temp\ccW1j2pN.s:924    .text.rtc_alarm_enable:0000000000000022 .L0 
C:\Users\stapi\AppData\Local\Temp\ccW1j2pN.s:926    .text.rtc_alarm_enable:0000000000000026 .L0 
C:\Users\stapi\AppData\Local\Temp\ccW1j2pN.s:927    .text.rtc_alarm_enable:0000000000000026 .L0 
C:\Users\stapi\AppData\Local\Temp\ccW1j2pN.s:931    .text.rtc_alarm_enable:0000000000000032 .L0 
C:\Users\stapi\AppData\Local\Temp\ccW1j2pN.s:934    .text.rtc_alarm_enable:0000000000000034 .L0 
C:\Users\stapi\AppData\Local\Temp\ccW1j2pN.s:935    .text.rtc_alarm_enable:0000000000000034 .L0 
C:\Users\stapi\AppData\Local\Temp\ccW1j2pN.s:938    .text.rtc_alarm_enable:000000000000003e .L0 
C:\Users\stapi\AppData\Local\Temp\ccW1j2pN.s:945    .text.rtc_alarm_disable:0000000000000000 rtc_alarm_disable
C:\Users\stapi\AppData\Local\Temp\ccW1j2pN.s:948    .text.rtc_alarm_disable:0000000000000000 .L0 
C:\Users\stapi\AppData\Local\Temp\ccW1j2pN.s:950    .text.rtc_alarm_disable:0000000000000000 .L0 
C:\Users\stapi\AppData\Local\Temp\ccW1j2pN.s:951    .text.rtc_alarm_disable:0000000000000000 .L0 
C:\Users\stapi\AppData\Local\Temp\ccW1j2pN.s:952    .text.rtc_alarm_disable:0000000000000000 .L0 
C:\Users\stapi\AppData\Local\Temp\ccW1j2pN.s:954    .text.rtc_alarm_disable:0000000000000002 .L0 
C:\Users\stapi\AppData\Local\Temp\ccW1j2pN.s:955    .text.rtc_alarm_disable:0000000000000004 .L0 
C:\Users\stapi\AppData\Local\Temp\ccW1j2pN.s:957    .text.rtc_alarm_disable:0000000000000004 .L0 
C:\Users\stapi\AppData\Local\Temp\ccW1j2pN.s:960    .text.rtc_alarm_disable:0000000000000006 .L0 
C:\Users\stapi\AppData\Local\Temp\ccW1j2pN.s:961    .text.rtc_alarm_disable:0000000000000006 .L0 
C:\Users\stapi\AppData\Local\Temp\ccW1j2pN.s:962    .text.rtc_alarm_disable:0000000000000006 .L0 
C:\Users\stapi\AppData\Local\Temp\ccW1j2pN.s:963    .text.rtc_alarm_disable:0000000000000006 .L0 
C:\Users\stapi\AppData\Local\Temp\ccW1j2pN.s:967    .text.rtc_alarm_disable:0000000000000012 .L0 
C:\Users\stapi\AppData\Local\Temp\ccW1j2pN.s:968    .text.rtc_alarm_disable:0000000000000012 .L0 
C:\Users\stapi\AppData\Local\Temp\ccW1j2pN.s:971    .text.rtc_alarm_disable:000000000000001a .L0 
C:\Users\stapi\AppData\Local\Temp\ccW1j2pN.s:972    .text.rtc_alarm_disable:000000000000001a .L0 
C:\Users\stapi\AppData\Local\Temp\ccW1j2pN.s:975    .text.rtc_alarm_disable:0000000000000020 .L0 
C:\Users\stapi\AppData\Local\Temp\ccW1j2pN.s:976    .text.rtc_alarm_disable:0000000000000020 .L0 
C:\Users\stapi\AppData\Local\Temp\ccW1j2pN.s:980    .text.rtc_alarm_disable:000000000000002c .L0 
C:\Users\stapi\AppData\Local\Temp\ccW1j2pN.s:984    .text.rtc_alarm_disable:0000000000000030 .L0 
C:\Users\stapi\AppData\Local\Temp\ccW1j2pN.s:985    .text.rtc_alarm_disable:0000000000000030 .L0 
C:\Users\stapi\AppData\Local\Temp\ccW1j2pN.s:986    .text.rtc_alarm_disable:0000000000000030 .L0 
C:\Users\stapi\AppData\Local\Temp\ccW1j2pN.s:988    .text.rtc_alarm_disable:0000000000000034 .L0 
C:\Users\stapi\AppData\Local\Temp\ccW1j2pN.s:990    .text.rtc_alarm_disable:0000000000000036 .L0 
C:\Users\stapi\AppData\Local\Temp\ccW1j2pN.s:993    .text.rtc_alarm_disable:0000000000000038 .L0 
C:\Users\stapi\AppData\Local\Temp\ccW1j2pN.s:994    .text.rtc_alarm_disable:0000000000000038 .L0 
C:\Users\stapi\AppData\Local\Temp\ccW1j2pN.s:996    .text.rtc_alarm_disable:000000000000003a .L0 
C:\Users\stapi\AppData\Local\Temp\ccW1j2pN.s:999    .text.rtc_alarm_disable:000000000000003e .L0 
C:\Users\stapi\AppData\Local\Temp\ccW1j2pN.s:1002   .text.rtc_alarm_disable:0000000000000040 .L0 
C:\Users\stapi\AppData\Local\Temp\ccW1j2pN.s:1006   .text.rtc_alarm_disable:0000000000000042 .L0 
C:\Users\stapi\AppData\Local\Temp\ccW1j2pN.s:1007   .text.rtc_alarm_disable:0000000000000042 .L0 
C:\Users\stapi\AppData\Local\Temp\ccW1j2pN.s:1011   .text.rtc_alarm_disable:000000000000004e .L0 
C:\Users\stapi\AppData\Local\Temp\ccW1j2pN.s:1012   .text.rtc_alarm_disable:000000000000004e .L0 
C:\Users\stapi\AppData\Local\Temp\ccW1j2pN.s:1013   .text.rtc_alarm_disable:0000000000000050 .L0 
C:\Users\stapi\AppData\Local\Temp\ccW1j2pN.s:1014   .text.rtc_alarm_disable:0000000000000050 .L0 
C:\Users\stapi\AppData\Local\Temp\ccW1j2pN.s:1018   .text.rtc_alarm_disable:0000000000000052 .L0 
C:\Users\stapi\AppData\Local\Temp\ccW1j2pN.s:1020   .text.rtc_alarm_disable:0000000000000052 .L0 
C:\Users\stapi\AppData\Local\Temp\ccW1j2pN.s:1021   .text.rtc_alarm_disable:0000000000000052 .L0 
C:\Users\stapi\AppData\Local\Temp\ccW1j2pN.s:1025   .text.rtc_alarm_disable:000000000000005e .L0 
C:\Users\stapi\AppData\Local\Temp\ccW1j2pN.s:1029   .text.rtc_alarm_disable:0000000000000062 .L0 
C:\Users\stapi\AppData\Local\Temp\ccW1j2pN.s:1030   .text.rtc_alarm_disable:0000000000000062 .L0 
C:\Users\stapi\AppData\Local\Temp\ccW1j2pN.s:1031   .text.rtc_alarm_disable:0000000000000062 .L0 
C:\Users\stapi\AppData\Local\Temp\ccW1j2pN.s:1033   .text.rtc_alarm_disable:0000000000000066 .L0 
C:\Users\stapi\AppData\Local\Temp\ccW1j2pN.s:1035   .text.rtc_alarm_disable:0000000000000068 .L0 
C:\Users\stapi\AppData\Local\Temp\ccW1j2pN.s:1038   .text.rtc_alarm_disable:000000000000006a .L0 
C:\Users\stapi\AppData\Local\Temp\ccW1j2pN.s:1039   .text.rtc_alarm_disable:000000000000006a .L0 
C:\Users\stapi\AppData\Local\Temp\ccW1j2pN.s:1041   .text.rtc_alarm_disable:000000000000006c .L0 
C:\Users\stapi\AppData\Local\Temp\ccW1j2pN.s:1044   .text.rtc_alarm_disable:0000000000000070 .L0 
C:\Users\stapi\AppData\Local\Temp\ccW1j2pN.s:1048   .text.rtc_alarm_disable:0000000000000074 .L0 
C:\Users\stapi\AppData\Local\Temp\ccW1j2pN.s:1049   .text.rtc_alarm_disable:0000000000000074 .L0 
C:\Users\stapi\AppData\Local\Temp\ccW1j2pN.s:1052   .text.rtc_alarm_disable:000000000000007a .L0 
C:\Users\stapi\AppData\Local\Temp\ccW1j2pN.s:1059   .text.rtc_timestamp_enable:0000000000000000 rtc_timestamp_enable
C:\Users\stapi\AppData\Local\Temp\ccW1j2pN.s:1062   .text.rtc_timestamp_enable:0000000000000000 .L0 
C:\Users\stapi\AppData\Local\Temp\ccW1j2pN.s:1064   .text.rtc_timestamp_enable:0000000000000000 .L0 
C:\Users\stapi\AppData\Local\Temp\ccW1j2pN.s:1065   .text.rtc_timestamp_enable:0000000000000000 .L0 
C:\Users\stapi\AppData\Local\Temp\ccW1j2pN.s:1066   .text.rtc_timestamp_enable:0000000000000000 .L0 
C:\Users\stapi\AppData\Local\Temp\ccW1j2pN.s:1067   .text.rtc_timestamp_enable:0000000000000000 .L0 
C:\Users\stapi\AppData\Local\Temp\ccW1j2pN.s:1072   .text.rtc_timestamp_enable:000000000000000e .L0 
C:\Users\stapi\AppData\Local\Temp\ccW1j2pN.s:1073   .text.rtc_timestamp_enable:000000000000000e .L0 
C:\Users\stapi\AppData\Local\Temp\ccW1j2pN.s:1076   .text.rtc_timestamp_enable:0000000000000014 .L0 
C:\Users\stapi\AppData\Local\Temp\ccW1j2pN.s:1077   .text.rtc_timestamp_enable:0000000000000014 .L0 
C:\Users\stapi\AppData\Local\Temp\ccW1j2pN.s:1080   .text.rtc_timestamp_enable:0000000000000016 .L0 
C:\Users\stapi\AppData\Local\Temp\ccW1j2pN.s:1081   .text.rtc_timestamp_enable:0000000000000016 .L0 
C:\Users\stapi\AppData\Local\Temp\ccW1j2pN.s:1086   .text.rtc_timestamp_enable:000000000000001e .L0 
C:\Users\stapi\AppData\Local\Temp\ccW1j2pN.s:1090   .text.rtc_timestamp_enable:0000000000000024 .L0 
C:\Users\stapi\AppData\Local\Temp\ccW1j2pN.s:1091   .text.rtc_timestamp_enable:0000000000000024 .L0 
C:\Users\stapi\AppData\Local\Temp\ccW1j2pN.s:1093   .text.rtc_timestamp_enable:0000000000000026 .L0 
C:\Users\stapi\AppData\Local\Temp\ccW1j2pN.s:1094   .text.rtc_timestamp_enable:0000000000000026 .L0 
C:\Users\stapi\AppData\Local\Temp\ccW1j2pN.s:1099   .text.rtc_timestamp_enable:000000000000002c .L0 
C:\Users\stapi\AppData\Local\Temp\ccW1j2pN.s:1100   .text.rtc_timestamp_enable:000000000000002e .L0 
C:\Users\stapi\AppData\Local\Temp\ccW1j2pN.s:1107   .text.rtc_timestamp_disable:0000000000000000 rtc_timestamp_disable
C:\Users\stapi\AppData\Local\Temp\ccW1j2pN.s:1110   .text.rtc_timestamp_disable:0000000000000000 .L0 
C:\Users\stapi\AppData\Local\Temp\ccW1j2pN.s:1111   .text.rtc_timestamp_disable:0000000000000000 .L0 
C:\Users\stapi\AppData\Local\Temp\ccW1j2pN.s:1112   .text.rtc_timestamp_disable:0000000000000000 .L0 
C:\Users\stapi\AppData\Local\Temp\ccW1j2pN.s:1113   .text.rtc_timestamp_disable:0000000000000000 .L0 
C:\Users\stapi\AppData\Local\Temp\ccW1j2pN.s:1118   .text.rtc_timestamp_disable:000000000000000e .L0 
C:\Users\stapi\AppData\Local\Temp\ccW1j2pN.s:1119   .text.rtc_timestamp_disable:000000000000000e .L0 
C:\Users\stapi\AppData\Local\Temp\ccW1j2pN.s:1122   .text.rtc_timestamp_disable:0000000000000014 .L0 
C:\Users\stapi\AppData\Local\Temp\ccW1j2pN.s:1123   .text.rtc_timestamp_disable:0000000000000014 .L0 
C:\Users\stapi\AppData\Local\Temp\ccW1j2pN.s:1127   .text.rtc_timestamp_disable:000000000000001c .L0 
C:\Users\stapi\AppData\Local\Temp\ccW1j2pN.s:1128   .text.rtc_timestamp_disable:000000000000001c .L0 
C:\Users\stapi\AppData\Local\Temp\ccW1j2pN.s:1131   .text.rtc_timestamp_disable:0000000000000022 .L0 
C:\Users\stapi\AppData\Local\Temp\ccW1j2pN.s:1132   .text.rtc_timestamp_disable:0000000000000024 .L0 
C:\Users\stapi\AppData\Local\Temp\ccW1j2pN.s:1139   .text.rtc_timestamp_get:0000000000000000 rtc_timestamp_get
C:\Users\stapi\AppData\Local\Temp\ccW1j2pN.s:1142   .text.rtc_timestamp_get:0000000000000000 .L0 
C:\Users\stapi\AppData\Local\Temp\ccW1j2pN.s:1144   .text.rtc_timestamp_get:0000000000000000 .L0 
C:\Users\stapi\AppData\Local\Temp\ccW1j2pN.s:1145   .text.rtc_timestamp_get:0000000000000000 .L0 
C:\Users\stapi\AppData\Local\Temp\ccW1j2pN.s:1146   .text.rtc_timestamp_get:0000000000000000 .L0 
C:\Users\stapi\AppData\Local\Temp\ccW1j2pN.s:1147   .text.rtc_timestamp_get:0000000000000000 .L0 
C:\Users\stapi\AppData\Local\Temp\ccW1j2pN.s:1151   .text.rtc_timestamp_get:0000000000000008 .L0 
C:\Users\stapi\AppData\Local\Temp\ccW1j2pN.s:1152   .text.rtc_timestamp_get:0000000000000008 .L0 
C:\Users\stapi\AppData\Local\Temp\ccW1j2pN.s:1155   .text.rtc_timestamp_get:000000000000000c .L0 
C:\Users\stapi\AppData\Local\Temp\ccW1j2pN.s:1156   .text.rtc_timestamp_get:000000000000000c .L0 
C:\Users\stapi\AppData\Local\Temp\ccW1j2pN.s:1159   .text.rtc_timestamp_get:0000000000000012 .L0 
C:\Users\stapi\AppData\Local\Temp\ccW1j2pN.s:1161   .text.rtc_timestamp_get:0000000000000014 .L0 
C:\Users\stapi\AppData\Local\Temp\ccW1j2pN.s:1162   .text.rtc_timestamp_get:0000000000000014 .L0 
C:\Users\stapi\AppData\Local\Temp\ccW1j2pN.s:1164   .text.rtc_timestamp_get:0000000000000018 .L0 
C:\Users\stapi\AppData\Local\Temp\ccW1j2pN.s:1166   .text.rtc_timestamp_get:000000000000001a .L0 
C:\Users\stapi\AppData\Local\Temp\ccW1j2pN.s:1168   .text.rtc_timestamp_get:000000000000001e .L0 
C:\Users\stapi\AppData\Local\Temp\ccW1j2pN.s:1169   .text.rtc_timestamp_get:000000000000001e .L0 
C:\Users\stapi\AppData\Local\Temp\ccW1j2pN.s:1171   .text.rtc_timestamp_get:0000000000000022 .L0 
C:\Users\stapi\AppData\Local\Temp\ccW1j2pN.s:1174   .text.rtc_timestamp_get:0000000000000024 .L0 
C:\Users\stapi\AppData\Local\Temp\ccW1j2pN.s:1176   .text.rtc_timestamp_get:0000000000000026 .L0 
C:\Users\stapi\AppData\Local\Temp\ccW1j2pN.s:1178   .text.rtc_timestamp_get:000000000000002a .L0 
C:\Users\stapi\AppData\Local\Temp\ccW1j2pN.s:1180   .text.rtc_timestamp_get:000000000000002e .L0 
C:\Users\stapi\AppData\Local\Temp\ccW1j2pN.s:1182   .text.rtc_timestamp_get:0000000000000032 .L0 
C:\Users\stapi\AppData\Local\Temp\ccW1j2pN.s:1184   .text.rtc_timestamp_get:0000000000000036 .L0 
C:\Users\stapi\AppData\Local\Temp\ccW1j2pN.s:1186   .text.rtc_timestamp_get:000000000000003a .L0 
C:\Users\stapi\AppData\Local\Temp\ccW1j2pN.s:1188   .text.rtc_timestamp_get:000000000000003e .L0 
C:\Users\stapi\AppData\Local\Temp\ccW1j2pN.s:1191   .text.rtc_timestamp_get:0000000000000042 .L0 
C:\Users\stapi\AppData\Local\Temp\ccW1j2pN.s:1193   .text.rtc_timestamp_get:0000000000000046 .L0 
C:\Users\stapi\AppData\Local\Temp\ccW1j2pN.s:1194   .text.rtc_timestamp_get:0000000000000046 .L0 
C:\Users\stapi\AppData\Local\Temp\ccW1j2pN.s:1195   .text.rtc_timestamp_get:0000000000000046 .L0 
C:\Users\stapi\AppData\Local\Temp\ccW1j2pN.s:1196   .text.rtc_timestamp_get:0000000000000046 .L0 
C:\Users\stapi\AppData\Local\Temp\ccW1j2pN.s:1198   .text.rtc_timestamp_get:000000000000004a .L0 
C:\Users\stapi\AppData\Local\Temp\ccW1j2pN.s:1199   .text.rtc_timestamp_get:000000000000004a .L0 
C:\Users\stapi\AppData\Local\Temp\ccW1j2pN.s:1201   .text.rtc_timestamp_get:000000000000004e .L0 
C:\Users\stapi\AppData\Local\Temp\ccW1j2pN.s:1202   .text.rtc_timestamp_get:0000000000000050 .L0 
C:\Users\stapi\AppData\Local\Temp\ccW1j2pN.s:1209   .text.rtc_timestamp_subsecond_get:0000000000000000 rtc_timestamp_subsecond_get
C:\Users\stapi\AppData\Local\Temp\ccW1j2pN.s:1212   .text.rtc_timestamp_subsecond_get:0000000000000000 .L0 
C:\Users\stapi\AppData\Local\Temp\ccW1j2pN.s:1213   .text.rtc_timestamp_subsecond_get:0000000000000000 .L0 
C:\Users\stapi\AppData\Local\Temp\ccW1j2pN.s:1214   .text.rtc_timestamp_subsecond_get:0000000000000000 .L0 
C:\Users\stapi\AppData\Local\Temp\ccW1j2pN.s:1215   .text.rtc_timestamp_subsecond_get:0000000000000000 .L0 
C:\Users\stapi\AppData\Local\Temp\ccW1j2pN.s:1218   .text.rtc_timestamp_subsecond_get:0000000000000008 .L0 
C:\Users\stapi\AppData\Local\Temp\ccW1j2pN.s:1219   .text.rtc_timestamp_subsecond_get:000000000000000a .L0 
C:\Users\stapi\AppData\Local\Temp\ccW1j2pN.s:1226   .text.rtc_tamper_enable:0000000000000000 rtc_tamper_enable
C:\Users\stapi\AppData\Local\Temp\ccW1j2pN.s:1229   .text.rtc_tamper_enable:0000000000000000 .L0 
C:\Users\stapi\AppData\Local\Temp\ccW1j2pN.s:1231   .text.rtc_tamper_enable:0000000000000000 .L0 
C:\Users\stapi\AppData\Local\Temp\ccW1j2pN.s:1232   .text.rtc_tamper_enable:0000000000000000 .L0 
C:\Users\stapi\AppData\Local\Temp\ccW1j2pN.s:1233   .text.rtc_tamper_enable:0000000000000000 .L0 
C:\Users\stapi\AppData\Local\Temp\ccW1j2pN.s:1237   .text.rtc_tamper_enable:000000000000000a .L0 
C:\Users\stapi\AppData\Local\Temp\ccW1j2pN.s:1239   .text.rtc_tamper_enable:000000000000000c .L0 
C:\Users\stapi\AppData\Local\Temp\ccW1j2pN.s:1242   .text.rtc_tamper_enable:0000000000000012 .L0 
C:\Users\stapi\AppData\Local\Temp\ccW1j2pN.s:1243   .text.rtc_tamper_enable:0000000000000012 .L0 
C:\Users\stapi\AppData\Local\Temp\ccW1j2pN.s:1249   .text.rtc_tamper_enable:000000000000001e .L0 
C:\Users\stapi\AppData\Local\Temp\ccW1j2pN.s:1250   .text.rtc_tamper_enable:000000000000001e .L0 
C:\Users\stapi\AppData\Local\Temp\ccW1j2pN.s:1253   .text.rtc_tamper_enable:0000000000000022 .L0 
C:\Users\stapi\AppData\Local\Temp\ccW1j2pN.s:1254   .text.rtc_tamper_enable:0000000000000022 .L0 
C:\Users\stapi\AppData\Local\Temp\ccW1j2pN.s:1260   .text.rtc_tamper_enable:0000000000000032 .L0 
C:\Users\stapi\AppData\Local\Temp\ccW1j2pN.s:1261   .text.rtc_tamper_enable:0000000000000032 .L0 
C:\Users\stapi\AppData\Local\Temp\ccW1j2pN.s:1264   .text.rtc_tamper_enable:0000000000000036 .L0 
C:\Users\stapi\AppData\Local\Temp\ccW1j2pN.s:1265   .text.rtc_tamper_enable:0000000000000036 .L0 
C:\Users\stapi\AppData\Local\Temp\ccW1j2pN.s:1269   .text.rtc_tamper_enable:000000000000003e .L0 
C:\Users\stapi\AppData\Local\Temp\ccW1j2pN.s:1271   .text.rtc_tamper_enable:0000000000000042 .L0 
C:\Users\stapi\AppData\Local\Temp\ccW1j2pN.s:1273   .text.rtc_tamper_enable:0000000000000046 .L0 
C:\Users\stapi\AppData\Local\Temp\ccW1j2pN.s:1274   .text.rtc_tamper_enable:0000000000000046 .L0 
C:\Users\stapi\AppData\Local\Temp\ccW1j2pN.s:1280   .text.rtc_tamper_enable:0000000000000052 .L0 
C:\Users\stapi\AppData\Local\Temp\ccW1j2pN.s:1281   .text.rtc_tamper_enable:0000000000000052 .L0 
C:\Users\stapi\AppData\Local\Temp\ccW1j2pN.s:1286   .text.rtc_tamper_enable:000000000000005a .L0 
C:\Users\stapi\AppData\Local\Temp\ccW1j2pN.s:1287   .text.rtc_tamper_enable:000000000000005a .L0 
C:\Users\stapi\AppData\Local\Temp\ccW1j2pN.s:1289   .text.rtc_tamper_enable:000000000000005c .L0 
C:\Users\stapi\AppData\Local\Temp\ccW1j2pN.s:1291   .text.rtc_tamper_enable:000000000000005e .L0 
C:\Users\stapi\AppData\Local\Temp\ccW1j2pN.s:1293   .text.rtc_tamper_enable:0000000000000060 .L0 
C:\Users\stapi\AppData\Local\Temp\ccW1j2pN.s:1296   .text.rtc_tamper_enable:0000000000000066 .L0 
C:\Users\stapi\AppData\Local\Temp\ccW1j2pN.s:1297   .text.rtc_tamper_enable:0000000000000066 .L0 
C:\Users\stapi\AppData\Local\Temp\ccW1j2pN.s:1300   .text.rtc_tamper_enable:000000000000006a .L0 
C:\Users\stapi\AppData\Local\Temp\ccW1j2pN.s:1301   .text.rtc_tamper_enable:000000000000006a .L0 
C:\Users\stapi\AppData\Local\Temp\ccW1j2pN.s:1303   .text.rtc_tamper_enable:000000000000006c .L0 
C:\Users\stapi\AppData\Local\Temp\ccW1j2pN.s:1305   .text.rtc_tamper_enable:0000000000000070 .L0 
C:\Users\stapi\AppData\Local\Temp\ccW1j2pN.s:1307   .text.rtc_tamper_enable:0000000000000072 .L0 
C:\Users\stapi\AppData\Local\Temp\ccW1j2pN.s:1311   .text.rtc_tamper_enable:0000000000000078 .L0 
C:\Users\stapi\AppData\Local\Temp\ccW1j2pN.s:1312   .text.rtc_tamper_enable:0000000000000078 .L0 
C:\Users\stapi\AppData\Local\Temp\ccW1j2pN.s:1317   .text.rtc_tamper_enable:0000000000000088 .L0 
C:\Users\stapi\AppData\Local\Temp\ccW1j2pN.s:1318   .text.rtc_tamper_enable:0000000000000088 .L0 
C:\Users\stapi\AppData\Local\Temp\ccW1j2pN.s:1321   .text.rtc_tamper_enable:000000000000008c .L0 
C:\Users\stapi\AppData\Local\Temp\ccW1j2pN.s:1322   .text.rtc_tamper_enable:000000000000008c .L0 
C:\Users\stapi\AppData\Local\Temp\ccW1j2pN.s:1327   .text.rtc_tamper_enable:0000000000000098 .L0 
C:\Users\stapi\AppData\Local\Temp\ccW1j2pN.s:1328   .text.rtc_tamper_enable:0000000000000098 .L0 
C:\Users\stapi\AppData\Local\Temp\ccW1j2pN.s:1334   .text.rtc_tamper_enable:00000000000000a8 .L0 
C:\Users\stapi\AppData\Local\Temp\ccW1j2pN.s:1337   .text.rtc_tamper_enable:00000000000000aa .L0 
C:\Users\stapi\AppData\Local\Temp\ccW1j2pN.s:1338   .text.rtc_tamper_enable:00000000000000aa .L0 
C:\Users\stapi\AppData\Local\Temp\ccW1j2pN.s:1344   .text.rtc_tamper_enable:00000000000000b4 .L0 
C:\Users\stapi\AppData\Local\Temp\ccW1j2pN.s:1345   .text.rtc_tamper_enable:00000000000000b4 .L0 
C:\Users\stapi\AppData\Local\Temp\ccW1j2pN.s:1347   .text.rtc_tamper_enable:00000000000000b6 .L0 
C:\Users\stapi\AppData\Local\Temp\ccW1j2pN.s:1349   .text.rtc_tamper_enable:00000000000000ba .L0 
C:\Users\stapi\AppData\Local\Temp\ccW1j2pN.s:1351   .text.rtc_tamper_enable:00000000000000bc .L0 
C:\Users\stapi\AppData\Local\Temp\ccW1j2pN.s:1354   .text.rtc_tamper_enable:00000000000000c4 .L0 
C:\Users\stapi\AppData\Local\Temp\ccW1j2pN.s:1355   .text.rtc_tamper_enable:00000000000000c4 .L0 
C:\Users\stapi\AppData\Local\Temp\ccW1j2pN.s:1358   .text.rtc_tamper_enable:00000000000000c8 .L0 
C:\Users\stapi\AppData\Local\Temp\ccW1j2pN.s:1359   .text.rtc_tamper_enable:00000000000000c8 .L0 
C:\Users\stapi\AppData\Local\Temp\ccW1j2pN.s:1361   .text.rtc_tamper_enable:00000000000000ca .L0 
C:\Users\stapi\AppData\Local\Temp\ccW1j2pN.s:1363   .text.rtc_tamper_enable:00000000000000ce .L0 
C:\Users\stapi\AppData\Local\Temp\ccW1j2pN.s:1365   .text.rtc_tamper_enable:00000000000000d0 .L0 
C:\Users\stapi\AppData\Local\Temp\ccW1j2pN.s:1368   .text.rtc_tamper_enable:00000000000000d8 .L0 
C:\Users\stapi\AppData\Local\Temp\ccW1j2pN.s:1375   .text.rtc_tamper_disable:0000000000000000 rtc_tamper_disable
C:\Users\stapi\AppData\Local\Temp\ccW1j2pN.s:1378   .text.rtc_tamper_disable:0000000000000000 .L0 
C:\Users\stapi\AppData\Local\Temp\ccW1j2pN.s:1380   .text.rtc_tamper_disable:0000000000000000 .L0 
C:\Users\stapi\AppData\Local\Temp\ccW1j2pN.s:1381   .text.rtc_tamper_disable:0000000000000000 .L0 
C:\Users\stapi\AppData\Local\Temp\ccW1j2pN.s:1382   .text.rtc_tamper_disable:0000000000000000 .L0 
C:\Users\stapi\AppData\Local\Temp\ccW1j2pN.s:1388   .text.rtc_tamper_disable:0000000000000010 .L0 
C:\Users\stapi\AppData\Local\Temp\ccW1j2pN.s:1389   .text.rtc_tamper_disable:0000000000000012 .L0 
C:\Users\stapi\AppData\Local\Temp\ccW1j2pN.s:1396   .text.rtc_software_bkp_reset:0000000000000000 rtc_software_bkp_reset
C:\Users\stapi\AppData\Local\Temp\ccW1j2pN.s:1399   .text.rtc_software_bkp_reset:0000000000000000 .L0 
C:\Users\stapi\AppData\Local\Temp\ccW1j2pN.s:1400   .text.rtc_software_bkp_reset:0000000000000000 .L0 
C:\Users\stapi\AppData\Local\Temp\ccW1j2pN.s:1401   .text.rtc_software_bkp_reset:0000000000000000 .L0 
C:\Users\stapi\AppData\Local\Temp\ccW1j2pN.s:1402   .text.rtc_software_bkp_reset:0000000000000000 .L0 
C:\Users\stapi\AppData\Local\Temp\ccW1j2pN.s:1408   .text.rtc_software_bkp_reset:0000000000000012 .L0 
C:\Users\stapi\AppData\Local\Temp\ccW1j2pN.s:1409   .text.rtc_software_bkp_reset:0000000000000014 .L0 
C:\Users\stapi\AppData\Local\Temp\ccW1j2pN.s:1416   .text.rtc_tamper_without_bkp_reset:0000000000000000 rtc_tamper_without_bkp_reset
C:\Users\stapi\AppData\Local\Temp\ccW1j2pN.s:1419   .text.rtc_tamper_without_bkp_reset:0000000000000000 .L0 
C:\Users\stapi\AppData\Local\Temp\ccW1j2pN.s:1421   .text.rtc_tamper_without_bkp_reset:0000000000000000 .L0 
C:\Users\stapi\AppData\Local\Temp\ccW1j2pN.s:1422   .text.rtc_tamper_without_bkp_reset:0000000000000000 .L0 
C:\Users\stapi\AppData\Local\Temp\ccW1j2pN.s:1423   .text.rtc_tamper_without_bkp_reset:0000000000000000 .L0 
C:\Users\stapi\AppData\Local\Temp\ccW1j2pN.s:1431   .text.rtc_tamper_without_bkp_reset:0000000000000014 .L0 
C:\Users\stapi\AppData\Local\Temp\ccW1j2pN.s:1432   .text.rtc_tamper_without_bkp_reset:0000000000000014 .L0 
C:\Users\stapi\AppData\Local\Temp\ccW1j2pN.s:1436   .text.rtc_tamper_without_bkp_reset:000000000000001a .L0 
C:\Users\stapi\AppData\Local\Temp\ccW1j2pN.s:1437   .text.rtc_tamper_without_bkp_reset:000000000000001c .L0 
C:\Users\stapi\AppData\Local\Temp\ccW1j2pN.s:1444   .text.rtc_output_pin_select:0000000000000000 rtc_output_pin_select
C:\Users\stapi\AppData\Local\Temp\ccW1j2pN.s:1447   .text.rtc_output_pin_select:0000000000000000 .L0 
C:\Users\stapi\AppData\Local\Temp\ccW1j2pN.s:1449   .text.rtc_output_pin_select:0000000000000000 .L0 
C:\Users\stapi\AppData\Local\Temp\ccW1j2pN.s:1450   .text.rtc_output_pin_select:0000000000000000 .L0 
C:\Users\stapi\AppData\Local\Temp\ccW1j2pN.s:1451   .text.rtc_output_pin_select:0000000000000000 .L0 
C:\Users\stapi\AppData\Local\Temp\ccW1j2pN.s:1456   .text.rtc_output_pin_select:000000000000000e .L0 
C:\Users\stapi\AppData\Local\Temp\ccW1j2pN.s:1457   .text.rtc_output_pin_select:000000000000000e .L0 
C:\Users\stapi\AppData\Local\Temp\ccW1j2pN.s:1460   .text.rtc_output_pin_select:0000000000000014 .L0 
C:\Users\stapi\AppData\Local\Temp\ccW1j2pN.s:1461   .text.rtc_output_pin_select:0000000000000014 .L0 
C:\Users\stapi\AppData\Local\Temp\ccW1j2pN.s:1466   .text.rtc_output_pin_select:0000000000000020 .L0 
C:\Users\stapi\AppData\Local\Temp\ccW1j2pN.s:1467   .text.rtc_output_pin_select:0000000000000020 .L0 
C:\Users\stapi\AppData\Local\Temp\ccW1j2pN.s:1471   .text.rtc_output_pin_select:0000000000000026 .L0 
C:\Users\stapi\AppData\Local\Temp\ccW1j2pN.s:1472   .text.rtc_output_pin_select:0000000000000026 .L0 
C:\Users\stapi\AppData\Local\Temp\ccW1j2pN.s:1475   .text.rtc_output_pin_select:000000000000002c .L0 
C:\Users\stapi\AppData\Local\Temp\ccW1j2pN.s:1476   .text.rtc_output_pin_select:000000000000002e .L0 
C:\Users\stapi\AppData\Local\Temp\ccW1j2pN.s:1483   .text.rtc_alarm_output_config:0000000000000000 rtc_alarm_output_config
C:\Users\stapi\AppData\Local\Temp\ccW1j2pN.s:1486   .text.rtc_alarm_output_config:0000000000000000 .L0 
C:\Users\stapi\AppData\Local\Temp\ccW1j2pN.s:1488   .text.rtc_alarm_output_config:0000000000000000 .L0 
C:\Users\stapi\AppData\Local\Temp\ccW1j2pN.s:1489   .text.rtc_alarm_output_config:0000000000000000 .L0 
C:\Users\stapi\AppData\Local\Temp\ccW1j2pN.s:1490   .text.rtc_alarm_output_config:0000000000000000 .L0 
C:\Users\stapi\AppData\Local\Temp\ccW1j2pN.s:1495   .text.rtc_alarm_output_config:000000000000000e .L0 
C:\Users\stapi\AppData\Local\Temp\ccW1j2pN.s:1496   .text.rtc_alarm_output_config:000000000000000e .L0 
C:\Users\stapi\AppData\Local\Temp\ccW1j2pN.s:1499   .text.rtc_alarm_output_config:0000000000000014 .L0 
C:\Users\stapi\AppData\Local\Temp\ccW1j2pN.s:1500   .text.rtc_alarm_output_config:0000000000000014 .L0 
C:\Users\stapi\AppData\Local\Temp\ccW1j2pN.s:1506   .text.rtc_alarm_output_config:0000000000000022 .L0 
C:\Users\stapi\AppData\Local\Temp\ccW1j2pN.s:1507   .text.rtc_alarm_output_config:0000000000000022 .L0 
C:\Users\stapi\AppData\Local\Temp\ccW1j2pN.s:1511   .text.rtc_alarm_output_config:000000000000002a .L0 
C:\Users\stapi\AppData\Local\Temp\ccW1j2pN.s:1512   .text.rtc_alarm_output_config:000000000000002a .L0 
C:\Users\stapi\AppData\Local\Temp\ccW1j2pN.s:1516   .text.rtc_alarm_output_config:0000000000000030 .L0 
C:\Users\stapi\AppData\Local\Temp\ccW1j2pN.s:1517   .text.rtc_alarm_output_config:0000000000000030 .L0 
C:\Users\stapi\AppData\Local\Temp\ccW1j2pN.s:1521   .text.rtc_alarm_output_config:0000000000000036 .L0 
C:\Users\stapi\AppData\Local\Temp\ccW1j2pN.s:1522   .text.rtc_alarm_output_config:0000000000000036 .L0 
C:\Users\stapi\AppData\Local\Temp\ccW1j2pN.s:1525   .text.rtc_alarm_output_config:000000000000003c .L0 
C:\Users\stapi\AppData\Local\Temp\ccW1j2pN.s:1526   .text.rtc_alarm_output_config:000000000000003e .L0 
C:\Users\stapi\AppData\Local\Temp\ccW1j2pN.s:1533   .text.rtc_calibration_output_config:0000000000000000 rtc_calibration_output_config
C:\Users\stapi\AppData\Local\Temp\ccW1j2pN.s:1536   .text.rtc_calibration_output_config:0000000000000000 .L0 
C:\Users\stapi\AppData\Local\Temp\ccW1j2pN.s:1538   .text.rtc_calibration_output_config:0000000000000000 .L0 
C:\Users\stapi\AppData\Local\Temp\ccW1j2pN.s:1539   .text.rtc_calibration_output_config:0000000000000000 .L0 
C:\Users\stapi\AppData\Local\Temp\ccW1j2pN.s:1540   .text.rtc_calibration_output_config:0000000000000000 .L0 
C:\Users\stapi\AppData\Local\Temp\ccW1j2pN.s:1545   .text.rtc_calibration_output_config:000000000000000e .L0 
C:\Users\stapi\AppData\Local\Temp\ccW1j2pN.s:1546   .text.rtc_calibration_output_config:000000000000000e .L0 
C:\Users\stapi\AppData\Local\Temp\ccW1j2pN.s:1549   .text.rtc_calibration_output_config:0000000000000014 .L0 
C:\Users\stapi\AppData\Local\Temp\ccW1j2pN.s:1550   .text.rtc_calibration_output_config:0000000000000014 .L0 
C:\Users\stapi\AppData\Local\Temp\ccW1j2pN.s:1556   .text.rtc_calibration_output_config:0000000000000020 .L0 
C:\Users\stapi\AppData\Local\Temp\ccW1j2pN.s:1557   .text.rtc_calibration_output_config:0000000000000020 .L0 
C:\Users\stapi\AppData\Local\Temp\ccW1j2pN.s:1561   .text.rtc_calibration_output_config:0000000000000026 .L0 
C:\Users\stapi\AppData\Local\Temp\ccW1j2pN.s:1562   .text.rtc_calibration_output_config:0000000000000026 .L0 
C:\Users\stapi\AppData\Local\Temp\ccW1j2pN.s:1565   .text.rtc_calibration_output_config:000000000000002c .L0 
C:\Users\stapi\AppData\Local\Temp\ccW1j2pN.s:1566   .text.rtc_calibration_output_config:000000000000002e .L0 
C:\Users\stapi\AppData\Local\Temp\ccW1j2pN.s:1573   .text.rtc_hour_adjust:0000000000000000 rtc_hour_adjust
C:\Users\stapi\AppData\Local\Temp\ccW1j2pN.s:1576   .text.rtc_hour_adjust:0000000000000000 .L0 
C:\Users\stapi\AppData\Local\Temp\ccW1j2pN.s:1578   .text.rtc_hour_adjust:0000000000000000 .L0 
C:\Users\stapi\AppData\Local\Temp\ccW1j2pN.s:1579   .text.rtc_hour_adjust:0000000000000000 .L0 
C:\Users\stapi\AppData\Local\Temp\ccW1j2pN.s:1580   .text.rtc_hour_adjust:0000000000000000 .L0 
C:\Users\stapi\AppData\Local\Temp\ccW1j2pN.s:1585   .text.rtc_hour_adjust:000000000000000e .L0 
C:\Users\stapi\AppData\Local\Temp\ccW1j2pN.s:1586   .text.rtc_hour_adjust:000000000000000e .L0 
C:\Users\stapi\AppData\Local\Temp\ccW1j2pN.s:1589   .text.rtc_hour_adjust:0000000000000014 .L0 
C:\Users\stapi\AppData\Local\Temp\ccW1j2pN.s:1590   .text.rtc_hour_adjust:0000000000000014 .L0 
C:\Users\stapi\AppData\Local\Temp\ccW1j2pN.s:1594   .text.rtc_hour_adjust:000000000000001a .L0 
C:\Users\stapi\AppData\Local\Temp\ccW1j2pN.s:1595   .text.rtc_hour_adjust:000000000000001a .L0 
C:\Users\stapi\AppData\Local\Temp\ccW1j2pN.s:1598   .text.rtc_hour_adjust:0000000000000020 .L0 
C:\Users\stapi\AppData\Local\Temp\ccW1j2pN.s:1599   .text.rtc_hour_adjust:0000000000000022 .L0 
C:\Users\stapi\AppData\Local\Temp\ccW1j2pN.s:1606   .text.rtc_second_adjust:0000000000000000 rtc_second_adjust
C:\Users\stapi\AppData\Local\Temp\ccW1j2pN.s:1609   .text.rtc_second_adjust:0000000000000000 .L0 
C:\Users\stapi\AppData\Local\Temp\ccW1j2pN.s:1611   .text.rtc_second_adjust:0000000000000000 .L0 
C:\Users\stapi\AppData\Local\Temp\ccW1j2pN.s:1612   .text.rtc_second_adjust:0000000000000008 .L0 
C:\Users\stapi\AppData\Local\Temp\ccW1j2pN.s:1613   .text.rtc_second_adjust:0000000000000008 .L0 
C:\Users\stapi\AppData\Local\Temp\ccW1j2pN.s:1615   .text.rtc_second_adjust:0000000000000008 .L0 
C:\Users\stapi\AppData\Local\Temp\ccW1j2pN.s:1616   .text.rtc_second_adjust:0000000000000008 .L0 
C:\Users\stapi\AppData\Local\Temp\ccW1j2pN.s:1618   .text.rtc_second_adjust:000000000000000a .L0 
C:\Users\stapi\AppData\Local\Temp\ccW1j2pN.s:1619   .text.rtc_second_adjust:000000000000000c .L0 
C:\Users\stapi\AppData\Local\Temp\ccW1j2pN.s:1621   .text.rtc_second_adjust:000000000000000c .L0 
C:\Users\stapi\AppData\Local\Temp\ccW1j2pN.s:1624   .text.rtc_second_adjust:000000000000000e .L0 
C:\Users\stapi\AppData\Local\Temp\ccW1j2pN.s:1625   .text.rtc_second_adjust:000000000000000e .L0 
C:\Users\stapi\AppData\Local\Temp\ccW1j2pN.s:1626   .text.rtc_second_adjust:000000000000000e .L0 
C:\Users\stapi\AppData\Local\Temp\ccW1j2pN.s:1627   .text.rtc_second_adjust:000000000000000e .L0 
C:\Users\stapi\AppData\Local\Temp\ccW1j2pN.s:1628   .text.rtc_second_adjust:000000000000000e .L0 
C:\Users\stapi\AppData\Local\Temp\ccW1j2pN.s:1632   .text.rtc_second_adjust:000000000000001a .L0 
C:\Users\stapi\AppData\Local\Temp\ccW1j2pN.s:1633   .text.rtc_second_adjust:000000000000001a .L0 
C:\Users\stapi\AppData\Local\Temp\ccW1j2pN.s:1635   .text.rtc_second_adjust:000000000000001e .L0 
C:\Users\stapi\AppData\Local\Temp\ccW1j2pN.s:1637   .text.rtc_second_adjust:0000000000000020 .L0 
C:\Users\stapi\AppData\Local\Temp\ccW1j2pN.s:1639   .text.rtc_second_adjust:0000000000000024 .L0 
C:\Users\stapi\AppData\Local\Temp\ccW1j2pN.s:1643   .text.rtc_second_adjust:0000000000000028 .L0 
C:\Users\stapi\AppData\Local\Temp\ccW1j2pN.s:1644   .text.rtc_second_adjust:0000000000000028 .L0 
C:\Users\stapi\AppData\Local\Temp\ccW1j2pN.s:1645   .text.rtc_second_adjust:0000000000000028 .L0 
C:\Users\stapi\AppData\Local\Temp\ccW1j2pN.s:1647   .text.rtc_second_adjust:000000000000002c .L0 
C:\Users\stapi\AppData\Local\Temp\ccW1j2pN.s:1650   .text.rtc_second_adjust:0000000000000030 .L0 
C:\Users\stapi\AppData\Local\Temp\ccW1j2pN.s:1651   .text.rtc_second_adjust:0000000000000030 .L0 
C:\Users\stapi\AppData\Local\Temp\ccW1j2pN.s:1654   .text.rtc_second_adjust:0000000000000034 .L0 
C:\Users\stapi\AppData\Local\Temp\ccW1j2pN.s:1657   .text.rtc_second_adjust:0000000000000038 .L0 
C:\Users\stapi\AppData\Local\Temp\ccW1j2pN.s:1660   .text.rtc_second_adjust:000000000000003a .L0 
C:\Users\stapi\AppData\Local\Temp\ccW1j2pN.s:1661   .text.rtc_second_adjust:000000000000003a .L0 
C:\Users\stapi\AppData\Local\Temp\ccW1j2pN.s:1665   .text.rtc_second_adjust:0000000000000042 .L0 
C:\Users\stapi\AppData\Local\Temp\ccW1j2pN.s:1666   .text.rtc_second_adjust:0000000000000042 .L0 
C:\Users\stapi\AppData\Local\Temp\ccW1j2pN.s:1669   .text.rtc_second_adjust:0000000000000044 .L0 
C:\Users\stapi\AppData\Local\Temp\ccW1j2pN.s:1672   .text.rtc_second_adjust:0000000000000046 .L0 
C:\Users\stapi\AppData\Local\Temp\ccW1j2pN.s:1676   .text.rtc_second_adjust:000000000000004a .L0 
C:\Users\stapi\AppData\Local\Temp\ccW1j2pN.s:1677   .text.rtc_second_adjust:000000000000004a .L0 
C:\Users\stapi\AppData\Local\Temp\ccW1j2pN.s:1681   .text.rtc_second_adjust:000000000000004e .L0 
C:\Users\stapi\AppData\Local\Temp\ccW1j2pN.s:1683   .text.rtc_second_adjust:0000000000000050 .L0 
C:\Users\stapi\AppData\Local\Temp\ccW1j2pN.s:1685   .text.rtc_second_adjust:0000000000000054 .L0 
C:\Users\stapi\AppData\Local\Temp\ccW1j2pN.s:1686   .text.rtc_second_adjust:0000000000000054 .L0 
C:\Users\stapi\AppData\Local\Temp\ccW1j2pN.s:1690   .text.rtc_second_adjust:000000000000005c .L0 
C:\Users\stapi\AppData\Local\Temp\ccW1j2pN.s:1691   .text.rtc_second_adjust:000000000000005c .L0 
C:\Users\stapi\AppData\Local\Temp\ccW1j2pN.s:1695   .text.rtc_second_adjust:0000000000000068 .L0 
C:\Users\stapi\AppData\Local\Temp\ccW1j2pN.s:1696   .text.rtc_second_adjust:0000000000000068 .L0 
C:\Users\stapi\AppData\Local\Temp\ccW1j2pN.s:1697   .text.rtc_second_adjust:000000000000006a .L0 
C:\Users\stapi\AppData\Local\Temp\ccW1j2pN.s:1699   .text.rtc_second_adjust:0000000000000072 .L0 
C:\Users\stapi\AppData\Local\Temp\ccW1j2pN.s:1700   .text.rtc_second_adjust:0000000000000072 .L0 
C:\Users\stapi\AppData\Local\Temp\ccW1j2pN.s:1701   .text.rtc_second_adjust:0000000000000072 .L0 
C:\Users\stapi\AppData\Local\Temp\ccW1j2pN.s:1708   .text.rtc_bypass_shadow_enable:0000000000000000 rtc_bypass_shadow_enable
C:\Users\stapi\AppData\Local\Temp\ccW1j2pN.s:1711   .text.rtc_bypass_shadow_enable:0000000000000000 .L0 
C:\Users\stapi\AppData\Local\Temp\ccW1j2pN.s:1712   .text.rtc_bypass_shadow_enable:0000000000000000 .L0 
C:\Users\stapi\AppData\Local\Temp\ccW1j2pN.s:1713   .text.rtc_bypass_shadow_enable:0000000000000000 .L0 
C:\Users\stapi\AppData\Local\Temp\ccW1j2pN.s:1714   .text.rtc_bypass_shadow_enable:0000000000000000 .L0 
C:\Users\stapi\AppData\Local\Temp\ccW1j2pN.s:1719   .text.rtc_bypass_shadow_enable:000000000000000e .L0 
C:\Users\stapi\AppData\Local\Temp\ccW1j2pN.s:1720   .text.rtc_bypass_shadow_enable:000000000000000e .L0 
C:\Users\stapi\AppData\Local\Temp\ccW1j2pN.s:1723   .text.rtc_bypass_shadow_enable:0000000000000014 .L0 
C:\Users\stapi\AppData\Local\Temp\ccW1j2pN.s:1724   .text.rtc_bypass_shadow_enable:0000000000000014 .L0 
C:\Users\stapi\AppData\Local\Temp\ccW1j2pN.s:1728   .text.rtc_bypass_shadow_enable:000000000000001c .L0 
C:\Users\stapi\AppData\Local\Temp\ccW1j2pN.s:1729   .text.rtc_bypass_shadow_enable:000000000000001c .L0 
C:\Users\stapi\AppData\Local\Temp\ccW1j2pN.s:1732   .text.rtc_bypass_shadow_enable:0000000000000022 .L0 
C:\Users\stapi\AppData\Local\Temp\ccW1j2pN.s:1733   .text.rtc_bypass_shadow_enable:0000000000000024 .L0 
C:\Users\stapi\AppData\Local\Temp\ccW1j2pN.s:1740   .text.rtc_bypass_shadow_disable:0000000000000000 rtc_bypass_shadow_disable
C:\Users\stapi\AppData\Local\Temp\ccW1j2pN.s:1743   .text.rtc_bypass_shadow_disable:0000000000000000 .L0 
C:\Users\stapi\AppData\Local\Temp\ccW1j2pN.s:1744   .text.rtc_bypass_shadow_disable:0000000000000000 .L0 
C:\Users\stapi\AppData\Local\Temp\ccW1j2pN.s:1745   .text.rtc_bypass_shadow_disable:0000000000000000 .L0 
C:\Users\stapi\AppData\Local\Temp\ccW1j2pN.s:1746   .text.rtc_bypass_shadow_disable:0000000000000000 .L0 
C:\Users\stapi\AppData\Local\Temp\ccW1j2pN.s:1751   .text.rtc_bypass_shadow_disable:000000000000000e .L0 
C:\Users\stapi\AppData\Local\Temp\ccW1j2pN.s:1752   .text.rtc_bypass_shadow_disable:000000000000000e .L0 
C:\Users\stapi\AppData\Local\Temp\ccW1j2pN.s:1755   .text.rtc_bypass_shadow_disable:0000000000000014 .L0 
C:\Users\stapi\AppData\Local\Temp\ccW1j2pN.s:1756   .text.rtc_bypass_shadow_disable:0000000000000014 .L0 
C:\Users\stapi\AppData\Local\Temp\ccW1j2pN.s:1760   .text.rtc_bypass_shadow_disable:000000000000001c .L0 
C:\Users\stapi\AppData\Local\Temp\ccW1j2pN.s:1761   .text.rtc_bypass_shadow_disable:000000000000001c .L0 
C:\Users\stapi\AppData\Local\Temp\ccW1j2pN.s:1764   .text.rtc_bypass_shadow_disable:0000000000000022 .L0 
C:\Users\stapi\AppData\Local\Temp\ccW1j2pN.s:1765   .text.rtc_bypass_shadow_disable:0000000000000024 .L0 
C:\Users\stapi\AppData\Local\Temp\ccW1j2pN.s:1772   .text.rtc_refclock_detection_enable:0000000000000000 rtc_refclock_detection_enable
C:\Users\stapi\AppData\Local\Temp\ccW1j2pN.s:1775   .text.rtc_refclock_detection_enable:0000000000000000 .L0 
C:\Users\stapi\AppData\Local\Temp\ccW1j2pN.s:1776   .text.rtc_refclock_detection_enable:0000000000000000 .L0 
C:\Users\stapi\AppData\Local\Temp\ccW1j2pN.s:1777   .text.rtc_refclock_detection_enable:0000000000000008 .L0 
C:\Users\stapi\AppData\Local\Temp\ccW1j2pN.s:1778   .text.rtc_refclock_detection_enable:0000000000000008 .L0 
C:\Users\stapi\AppData\Local\Temp\ccW1j2pN.s:1779   .text.rtc_refclock_detection_enable:0000000000000008 .L0 
C:\Users\stapi\AppData\Local\Temp\ccW1j2pN.s:1782   .text.rtc_refclock_detection_enable:0000000000000008 .L0 
C:\Users\stapi\AppData\Local\Temp\ccW1j2pN.s:1783   .text.rtc_refclock_detection_enable:0000000000000008 .L0 
C:\Users\stapi\AppData\Local\Temp\ccW1j2pN.s:1784   .text.rtc_refclock_detection_enable:0000000000000008 .L0 
C:\Users\stapi\AppData\Local\Temp\ccW1j2pN.s:1788   .text.rtc_refclock_detection_enable:0000000000000014 .L0 
C:\Users\stapi\AppData\Local\Temp\ccW1j2pN.s:1789   .text.rtc_refclock_detection_enable:0000000000000014 .L0 
C:\Users\stapi\AppData\Local\Temp\ccW1j2pN.s:1791   .text.rtc_refclock_detection_enable:0000000000000018 .L0 
C:\Users\stapi\AppData\Local\Temp\ccW1j2pN.s:1792   .text.rtc_refclock_detection_enable:000000000000001a .L0 
C:\Users\stapi\AppData\Local\Temp\ccW1j2pN.s:1794   .text.rtc_refclock_detection_enable:000000000000001a .L0 
C:\Users\stapi\AppData\Local\Temp\ccW1j2pN.s:1796   .text.rtc_refclock_detection_enable:000000000000001e .L0 
C:\Users\stapi\AppData\Local\Temp\ccW1j2pN.s:1797   .text.rtc_refclock_detection_enable:000000000000001e .L0 
C:\Users\stapi\AppData\Local\Temp\ccW1j2pN.s:1800   .text.rtc_refclock_detection_enable:0000000000000026 .L0 
C:\Users\stapi\AppData\Local\Temp\ccW1j2pN.s:1801   .text.rtc_refclock_detection_enable:0000000000000026 .L0 
C:\Users\stapi\AppData\Local\Temp\ccW1j2pN.s:1803   .text.rtc_refclock_detection_enable:0000000000000028 .L0 
C:\Users\stapi\AppData\Local\Temp\ccW1j2pN.s:1806   .text.rtc_refclock_detection_enable:000000000000002e .L0 
C:\Users\stapi\AppData\Local\Temp\ccW1j2pN.s:1807   .text.rtc_refclock_detection_enable:000000000000002e .L0 
C:\Users\stapi\AppData\Local\Temp\ccW1j2pN.s:1810   .text.rtc_refclock_detection_enable:0000000000000036 .L0 
C:\Users\stapi\AppData\Local\Temp\ccW1j2pN.s:1816   .text.rtc_refclock_detection_enable:0000000000000040 .L0 
C:\Users\stapi\AppData\Local\Temp\ccW1j2pN.s:1817   .text.rtc_refclock_detection_enable:0000000000000040 .L0 
C:\Users\stapi\AppData\Local\Temp\ccW1j2pN.s:1821   .text.rtc_refclock_detection_enable:000000000000004c .L0 
C:\Users\stapi\AppData\Local\Temp\ccW1j2pN.s:1822   .text.rtc_refclock_detection_enable:000000000000004c .L0 
C:\Users\stapi\AppData\Local\Temp\ccW1j2pN.s:1823   .text.rtc_refclock_detection_enable:000000000000004e .L0 
C:\Users\stapi\AppData\Local\Temp\ccW1j2pN.s:1825   .text.rtc_refclock_detection_enable:0000000000000056 .L0 
C:\Users\stapi\AppData\Local\Temp\ccW1j2pN.s:1826   .text.rtc_refclock_detection_enable:0000000000000056 .L0 
C:\Users\stapi\AppData\Local\Temp\ccW1j2pN.s:1827   .text.rtc_refclock_detection_enable:0000000000000056 .L0 
C:\Users\stapi\AppData\Local\Temp\ccW1j2pN.s:1828   .text.rtc_refclock_detection_enable:0000000000000056 .L0 
C:\Users\stapi\AppData\Local\Temp\ccW1j2pN.s:1835   .text.rtc_refclock_detection_disable:0000000000000000 rtc_refclock_detection_disable
C:\Users\stapi\AppData\Local\Temp\ccW1j2pN.s:1838   .text.rtc_refclock_detection_disable:0000000000000000 .L0 
C:\Users\stapi\AppData\Local\Temp\ccW1j2pN.s:1839   .text.rtc_refclock_detection_disable:0000000000000000 .L0 
C:\Users\stapi\AppData\Local\Temp\ccW1j2pN.s:1840   .text.rtc_refclock_detection_disable:0000000000000008 .L0 
C:\Users\stapi\AppData\Local\Temp\ccW1j2pN.s:1841   .text.rtc_refclock_detection_disable:0000000000000008 .L0 
C:\Users\stapi\AppData\Local\Temp\ccW1j2pN.s:1842   .text.rtc_refclock_detection_disable:0000000000000008 .L0 
C:\Users\stapi\AppData\Local\Temp\ccW1j2pN.s:1845   .text.rtc_refclock_detection_disable:0000000000000008 .L0 
C:\Users\stapi\AppData\Local\Temp\ccW1j2pN.s:1846   .text.rtc_refclock_detection_disable:0000000000000008 .L0 
C:\Users\stapi\AppData\Local\Temp\ccW1j2pN.s:1847   .text.rtc_refclock_detection_disable:0000000000000008 .L0 
C:\Users\stapi\AppData\Local\Temp\ccW1j2pN.s:1851   .text.rtc_refclock_detection_disable:0000000000000014 .L0 
C:\Users\stapi\AppData\Local\Temp\ccW1j2pN.s:1852   .text.rtc_refclock_detection_disable:0000000000000014 .L0 
C:\Users\stapi\AppData\Local\Temp\ccW1j2pN.s:1854   .text.rtc_refclock_detection_disable:0000000000000018 .L0 
C:\Users\stapi\AppData\Local\Temp\ccW1j2pN.s:1855   .text.rtc_refclock_detection_disable:000000000000001a .L0 
C:\Users\stapi\AppData\Local\Temp\ccW1j2pN.s:1857   .text.rtc_refclock_detection_disable:000000000000001a .L0 
C:\Users\stapi\AppData\Local\Temp\ccW1j2pN.s:1859   .text.rtc_refclock_detection_disable:000000000000001e .L0 
C:\Users\stapi\AppData\Local\Temp\ccW1j2pN.s:1860   .text.rtc_refclock_detection_disable:000000000000001e .L0 
C:\Users\stapi\AppData\Local\Temp\ccW1j2pN.s:1863   .text.rtc_refclock_detection_disable:0000000000000026 .L0 
C:\Users\stapi\AppData\Local\Temp\ccW1j2pN.s:1864   .text.rtc_refclock_detection_disable:0000000000000026 .L0 
C:\Users\stapi\AppData\Local\Temp\ccW1j2pN.s:1866   .text.rtc_refclock_detection_disable:0000000000000028 .L0 
C:\Users\stapi\AppData\Local\Temp\ccW1j2pN.s:1869   .text.rtc_refclock_detection_disable:000000000000002e .L0 
C:\Users\stapi\AppData\Local\Temp\ccW1j2pN.s:1870   .text.rtc_refclock_detection_disable:000000000000002e .L0 
C:\Users\stapi\AppData\Local\Temp\ccW1j2pN.s:1873   .text.rtc_refclock_detection_disable:0000000000000034 .L0 
C:\Users\stapi\AppData\Local\Temp\ccW1j2pN.s:1879   .text.rtc_refclock_detection_disable:000000000000003e .L0 
C:\Users\stapi\AppData\Local\Temp\ccW1j2pN.s:1880   .text.rtc_refclock_detection_disable:000000000000003e .L0 
C:\Users\stapi\AppData\Local\Temp\ccW1j2pN.s:1884   .text.rtc_refclock_detection_disable:000000000000004a .L0 
C:\Users\stapi\AppData\Local\Temp\ccW1j2pN.s:1885   .text.rtc_refclock_detection_disable:000000000000004a .L0 
C:\Users\stapi\AppData\Local\Temp\ccW1j2pN.s:1886   .text.rtc_refclock_detection_disable:000000000000004c .L0 
C:\Users\stapi\AppData\Local\Temp\ccW1j2pN.s:1888   .text.rtc_refclock_detection_disable:0000000000000054 .L0 
C:\Users\stapi\AppData\Local\Temp\ccW1j2pN.s:1889   .text.rtc_refclock_detection_disable:0000000000000054 .L0 
C:\Users\stapi\AppData\Local\Temp\ccW1j2pN.s:1890   .text.rtc_refclock_detection_disable:0000000000000054 .L0 
C:\Users\stapi\AppData\Local\Temp\ccW1j2pN.s:1891   .text.rtc_refclock_detection_disable:0000000000000054 .L0 
C:\Users\stapi\AppData\Local\Temp\ccW1j2pN.s:1898   .text.rtc_wakeup_enable:0000000000000000 rtc_wakeup_enable
C:\Users\stapi\AppData\Local\Temp\ccW1j2pN.s:1901   .text.rtc_wakeup_enable:0000000000000000 .L0 
C:\Users\stapi\AppData\Local\Temp\ccW1j2pN.s:1902   .text.rtc_wakeup_enable:0000000000000000 .L0 
C:\Users\stapi\AppData\Local\Temp\ccW1j2pN.s:1903   .text.rtc_wakeup_enable:0000000000000000 .L0 
C:\Users\stapi\AppData\Local\Temp\ccW1j2pN.s:1904   .text.rtc_wakeup_enable:0000000000000000 .L0 
C:\Users\stapi\AppData\Local\Temp\ccW1j2pN.s:1909   .text.rtc_wakeup_enable:000000000000000e .L0 
C:\Users\stapi\AppData\Local\Temp\ccW1j2pN.s:1910   .text.rtc_wakeup_enable:000000000000000e .L0 
C:\Users\stapi\AppData\Local\Temp\ccW1j2pN.s:1913   .text.rtc_wakeup_enable:0000000000000014 .L0 
C:\Users\stapi\AppData\Local\Temp\ccW1j2pN.s:1914   .text.rtc_wakeup_enable:0000000000000014 .L0 
C:\Users\stapi\AppData\Local\Temp\ccW1j2pN.s:1918   .text.rtc_wakeup_enable:000000000000001c .L0 
C:\Users\stapi\AppData\Local\Temp\ccW1j2pN.s:1919   .text.rtc_wakeup_enable:000000000000001c .L0 
C:\Users\stapi\AppData\Local\Temp\ccW1j2pN.s:1922   .text.rtc_wakeup_enable:0000000000000022 .L0 
C:\Users\stapi\AppData\Local\Temp\ccW1j2pN.s:1923   .text.rtc_wakeup_enable:0000000000000024 .L0 
C:\Users\stapi\AppData\Local\Temp\ccW1j2pN.s:1930   .text.rtc_wakeup_disable:0000000000000000 rtc_wakeup_disable
C:\Users\stapi\AppData\Local\Temp\ccW1j2pN.s:1933   .text.rtc_wakeup_disable:0000000000000000 .L0 
C:\Users\stapi\AppData\Local\Temp\ccW1j2pN.s:1934   .text.rtc_wakeup_disable:0000000000000000 .L0 
C:\Users\stapi\AppData\Local\Temp\ccW1j2pN.s:1936   .text.rtc_wakeup_disable:0000000000000000 .L0 
C:\Users\stapi\AppData\Local\Temp\ccW1j2pN.s:1937   .text.rtc_wakeup_disable:0000000000000000 .L0 
C:\Users\stapi\AppData\Local\Temp\ccW1j2pN.s:1938   .text.rtc_wakeup_disable:0000000000000000 .L0 
C:\Users\stapi\AppData\Local\Temp\ccW1j2pN.s:1940   .text.rtc_wakeup_disable:0000000000000002 .L0 
C:\Users\stapi\AppData\Local\Temp\ccW1j2pN.s:1941   .text.rtc_wakeup_disable:0000000000000004 .L0 
C:\Users\stapi\AppData\Local\Temp\ccW1j2pN.s:1943   .text.rtc_wakeup_disable:0000000000000004 .L0 
C:\Users\stapi\AppData\Local\Temp\ccW1j2pN.s:1946   .text.rtc_wakeup_disable:0000000000000006 .L0 
C:\Users\stapi\AppData\Local\Temp\ccW1j2pN.s:1947   .text.rtc_wakeup_disable:0000000000000006 .L0 
C:\Users\stapi\AppData\Local\Temp\ccW1j2pN.s:1948   .text.rtc_wakeup_disable:0000000000000006 .L0 
C:\Users\stapi\AppData\Local\Temp\ccW1j2pN.s:1953   .text.rtc_wakeup_disable:0000000000000014 .L0 
C:\Users\stapi\AppData\Local\Temp\ccW1j2pN.s:1954   .text.rtc_wakeup_disable:0000000000000014 .L0 
C:\Users\stapi\AppData\Local\Temp\ccW1j2pN.s:1957   .text.rtc_wakeup_disable:000000000000001a .L0 
C:\Users\stapi\AppData\Local\Temp\ccW1j2pN.s:1958   .text.rtc_wakeup_disable:000000000000001a .L0 
C:\Users\stapi\AppData\Local\Temp\ccW1j2pN.s:1962   .text.rtc_wakeup_disable:0000000000000022 .L0 
C:\Users\stapi\AppData\Local\Temp\ccW1j2pN.s:1966   .text.rtc_wakeup_disable:0000000000000026 .L0 
C:\Users\stapi\AppData\Local\Temp\ccW1j2pN.s:1967   .text.rtc_wakeup_disable:0000000000000026 .L0 
C:\Users\stapi\AppData\Local\Temp\ccW1j2pN.s:1968   .text.rtc_wakeup_disable:0000000000000026 .L0 
C:\Users\stapi\AppData\Local\Temp\ccW1j2pN.s:1970   .text.rtc_wakeup_disable:000000000000002a .L0 
C:\Users\stapi\AppData\Local\Temp\ccW1j2pN.s:1972   .text.rtc_wakeup_disable:000000000000002c .L0 
C:\Users\stapi\AppData\Local\Temp\ccW1j2pN.s:1975   .text.rtc_wakeup_disable:000000000000002e .L0 
C:\Users\stapi\AppData\Local\Temp\ccW1j2pN.s:1976   .text.rtc_wakeup_disable:000000000000002e .L0 
C:\Users\stapi\AppData\Local\Temp\ccW1j2pN.s:1978   .text.rtc_wakeup_disable:0000000000000030 .L0 
C:\Users\stapi\AppData\Local\Temp\ccW1j2pN.s:1981   .text.rtc_wakeup_disable:0000000000000034 .L0 
C:\Users\stapi\AppData\Local\Temp\ccW1j2pN.s:1983   .text.rtc_wakeup_disable:0000000000000036 .L0 
C:\Users\stapi\AppData\Local\Temp\ccW1j2pN.s:1987   .text.rtc_wakeup_disable:0000000000000038 .L0 
C:\Users\stapi\AppData\Local\Temp\ccW1j2pN.s:1988   .text.rtc_wakeup_disable:0000000000000038 .L0 
C:\Users\stapi\AppData\Local\Temp\ccW1j2pN.s:1992   .text.rtc_wakeup_disable:0000000000000044 .L0 
C:\Users\stapi\AppData\Local\Temp\ccW1j2pN.s:1993   .text.rtc_wakeup_disable:0000000000000044 .L0 
C:\Users\stapi\AppData\Local\Temp\ccW1j2pN.s:1994   .text.rtc_wakeup_disable:0000000000000046 .L0 
C:\Users\stapi\AppData\Local\Temp\ccW1j2pN.s:1995   .text.rtc_wakeup_disable:0000000000000046 .L0 
C:\Users\stapi\AppData\Local\Temp\ccW1j2pN.s:1999   .text.rtc_wakeup_disable:0000000000000048 .L0 
C:\Users\stapi\AppData\Local\Temp\ccW1j2pN.s:2001   .text.rtc_wakeup_disable:0000000000000048 .L0 
C:\Users\stapi\AppData\Local\Temp\ccW1j2pN.s:2002   .text.rtc_wakeup_disable:0000000000000048 .L0 
C:\Users\stapi\AppData\Local\Temp\ccW1j2pN.s:2005   .text.rtc_wakeup_disable:000000000000004e .L0 
C:\Users\stapi\AppData\Local\Temp\ccW1j2pN.s:2012   .text.rtc_wakeup_clock_set:0000000000000000 rtc_wakeup_clock_set
C:\Users\stapi\AppData\Local\Temp\ccW1j2pN.s:2015   .text.rtc_wakeup_clock_set:0000000000000000 .L0 
C:\Users\stapi\AppData\Local\Temp\ccW1j2pN.s:2017   .text.rtc_wakeup_clock_set:0000000000000000 .L0 
C:\Users\stapi\AppData\Local\Temp\ccW1j2pN.s:2018   .text.rtc_wakeup_clock_set:0000000000000000 .L0 
C:\Users\stapi\AppData\Local\Temp\ccW1j2pN.s:2019   .text.rtc_wakeup_clock_set:0000000000000000 .L0 
C:\Users\stapi\AppData\Local\Temp\ccW1j2pN.s:2020   .text.rtc_wakeup_clock_set:0000000000000000 .L0 
C:\Users\stapi\AppData\Local\Temp\ccW1j2pN.s:2022   .text.rtc_wakeup_clock_set:0000000000000002 .L0 
C:\Users\stapi\AppData\Local\Temp\ccW1j2pN.s:2023   .text.rtc_wakeup_clock_set:0000000000000004 .L0 
C:\Users\stapi\AppData\Local\Temp\ccW1j2pN.s:2025   .text.rtc_wakeup_clock_set:0000000000000004 .L0 
C:\Users\stapi\AppData\Local\Temp\ccW1j2pN.s:2028   .text.rtc_wakeup_clock_set:0000000000000006 .L0 
C:\Users\stapi\AppData\Local\Temp\ccW1j2pN.s:2029   .text.rtc_wakeup_clock_set:0000000000000006 .L0 
C:\Users\stapi\AppData\Local\Temp\ccW1j2pN.s:2030   .text.rtc_wakeup_clock_set:0000000000000006 .L0 
C:\Users\stapi\AppData\Local\Temp\ccW1j2pN.s:2034   .text.rtc_wakeup_clock_set:0000000000000012 .L0 
C:\Users\stapi\AppData\Local\Temp\ccW1j2pN.s:2035   .text.rtc_wakeup_clock_set:0000000000000012 .L0 
C:\Users\stapi\AppData\Local\Temp\ccW1j2pN.s:2038   .text.rtc_wakeup_clock_set:000000000000001a .L0 
C:\Users\stapi\AppData\Local\Temp\ccW1j2pN.s:2040   .text.rtc_wakeup_clock_set:000000000000001c .L0 
C:\Users\stapi\AppData\Local\Temp\ccW1j2pN.s:2044   .text.rtc_wakeup_clock_set:0000000000000020 .L0 
C:\Users\stapi\AppData\Local\Temp\ccW1j2pN.s:2045   .text.rtc_wakeup_clock_set:0000000000000020 .L0 
C:\Users\stapi\AppData\Local\Temp\ccW1j2pN.s:2046   .text.rtc_wakeup_clock_set:0000000000000020 .L0 
C:\Users\stapi\AppData\Local\Temp\ccW1j2pN.s:2048   .text.rtc_wakeup_clock_set:0000000000000024 .L0 
C:\Users\stapi\AppData\Local\Temp\ccW1j2pN.s:2051   .text.rtc_wakeup_clock_set:0000000000000028 .L0 
C:\Users\stapi\AppData\Local\Temp\ccW1j2pN.s:2052   .text.rtc_wakeup_clock_set:0000000000000028 .L0 
C:\Users\stapi\AppData\Local\Temp\ccW1j2pN.s:2055   .text.rtc_wakeup_clock_set:000000000000002c .L0 
C:\Users\stapi\AppData\Local\Temp\ccW1j2pN.s:2058   .text.rtc_wakeup_clock_set:0000000000000030 .L0 
C:\Users\stapi\AppData\Local\Temp\ccW1j2pN.s:2061   .text.rtc_wakeup_clock_set:0000000000000032 .L0 
C:\Users\stapi\AppData\Local\Temp\ccW1j2pN.s:2062   .text.rtc_wakeup_clock_set:0000000000000032 .L0 
C:\Users\stapi\AppData\Local\Temp\ccW1j2pN.s:2068   .text.rtc_wakeup_clock_set:0000000000000040 .L0 
C:\Users\stapi\AppData\Local\Temp\ccW1j2pN.s:2069   .text.rtc_wakeup_clock_set:0000000000000040 .L0 
C:\Users\stapi\AppData\Local\Temp\ccW1j2pN.s:2075   .text.rtc_wakeup_clock_set:0000000000000046 .L0 
C:\Users\stapi\AppData\Local\Temp\ccW1j2pN.s:2076   .text.rtc_wakeup_clock_set:0000000000000046 .L0 
C:\Users\stapi\AppData\Local\Temp\ccW1j2pN.s:2081   .text.rtc_wakeup_clock_set:000000000000004a .L0 
C:\Users\stapi\AppData\Local\Temp\ccW1j2pN.s:2082   .text.rtc_wakeup_clock_set:000000000000004a .L0 
C:\Users\stapi\AppData\Local\Temp\ccW1j2pN.s:2086   .text.rtc_wakeup_clock_set:000000000000004c .L0 
C:\Users\stapi\AppData\Local\Temp\ccW1j2pN.s:2087   .text.rtc_wakeup_clock_set:000000000000004c .L0 
C:\Users\stapi\AppData\Local\Temp\ccW1j2pN.s:2091   .text.rtc_wakeup_clock_set:0000000000000058 .L0 
C:\Users\stapi\AppData\Local\Temp\ccW1j2pN.s:2092   .text.rtc_wakeup_clock_set:0000000000000058 .L0 
C:\Users\stapi\AppData\Local\Temp\ccW1j2pN.s:2093   .text.rtc_wakeup_clock_set:000000000000005a .L0 
C:\Users\stapi\AppData\Local\Temp\ccW1j2pN.s:2095   .text.rtc_wakeup_clock_set:000000000000005c .L0 
C:\Users\stapi\AppData\Local\Temp\ccW1j2pN.s:2102   .text.rtc_wakeup_timer_set:0000000000000000 rtc_wakeup_timer_set
C:\Users\stapi\AppData\Local\Temp\ccW1j2pN.s:2105   .text.rtc_wakeup_timer_set:0000000000000000 .L0 
C:\Users\stapi\AppData\Local\Temp\ccW1j2pN.s:2107   .text.rtc_wakeup_timer_set:0000000000000000 .L0 
C:\Users\stapi\AppData\Local\Temp\ccW1j2pN.s:2108   .text.rtc_wakeup_timer_set:0000000000000000 .L0 
C:\Users\stapi\AppData\Local\Temp\ccW1j2pN.s:2109   .text.rtc_wakeup_timer_set:0000000000000000 .L0 
C:\Users\stapi\AppData\Local\Temp\ccW1j2pN.s:2110   .text.rtc_wakeup_timer_set:0000000000000000 .L0 
C:\Users\stapi\AppData\Local\Temp\ccW1j2pN.s:2112   .text.rtc_wakeup_timer_set:0000000000000002 .L0 
C:\Users\stapi\AppData\Local\Temp\ccW1j2pN.s:2113   .text.rtc_wakeup_timer_set:0000000000000004 .L0 
C:\Users\stapi\AppData\Local\Temp\ccW1j2pN.s:2115   .text.rtc_wakeup_timer_set:0000000000000004 .L0 
C:\Users\stapi\AppData\Local\Temp\ccW1j2pN.s:2118   .text.rtc_wakeup_timer_set:0000000000000006 .L0 
C:\Users\stapi\AppData\Local\Temp\ccW1j2pN.s:2119   .text.rtc_wakeup_timer_set:0000000000000006 .L0 
C:\Users\stapi\AppData\Local\Temp\ccW1j2pN.s:2120   .text.rtc_wakeup_timer_set:0000000000000006 .L0 
C:\Users\stapi\AppData\Local\Temp\ccW1j2pN.s:2124   .text.rtc_wakeup_timer_set:0000000000000012 .L0 
C:\Users\stapi\AppData\Local\Temp\ccW1j2pN.s:2125   .text.rtc_wakeup_timer_set:0000000000000012 .L0 
C:\Users\stapi\AppData\Local\Temp\ccW1j2pN.s:2128   .text.rtc_wakeup_timer_set:000000000000001a .L0 
C:\Users\stapi\AppData\Local\Temp\ccW1j2pN.s:2130   .text.rtc_wakeup_timer_set:000000000000001c .L0 
C:\Users\stapi\AppData\Local\Temp\ccW1j2pN.s:2134   .text.rtc_wakeup_timer_set:0000000000000020 .L0 
C:\Users\stapi\AppData\Local\Temp\ccW1j2pN.s:2135   .text.rtc_wakeup_timer_set:0000000000000020 .L0 
C:\Users\stapi\AppData\Local\Temp\ccW1j2pN.s:2136   .text.rtc_wakeup_timer_set:0000000000000020 .L0 
C:\Users\stapi\AppData\Local\Temp\ccW1j2pN.s:2138   .text.rtc_wakeup_timer_set:0000000000000024 .L0 
C:\Users\stapi\AppData\Local\Temp\ccW1j2pN.s:2141   .text.rtc_wakeup_timer_set:0000000000000028 .L0 
C:\Users\stapi\AppData\Local\Temp\ccW1j2pN.s:2142   .text.rtc_wakeup_timer_set:0000000000000028 .L0 
C:\Users\stapi\AppData\Local\Temp\ccW1j2pN.s:2145   .text.rtc_wakeup_timer_set:000000000000002c .L0 
C:\Users\stapi\AppData\Local\Temp\ccW1j2pN.s:2148   .text.rtc_wakeup_timer_set:0000000000000030 .L0 
C:\Users\stapi\AppData\Local\Temp\ccW1j2pN.s:2151   .text.rtc_wakeup_timer_set:0000000000000032 .L0 
C:\Users\stapi\AppData\Local\Temp\ccW1j2pN.s:2152   .text.rtc_wakeup_timer_set:0000000000000032 .L0 
C:\Users\stapi\AppData\Local\Temp\ccW1j2pN.s:2156   .text.rtc_wakeup_timer_set:000000000000003a .L0 
C:\Users\stapi\AppData\Local\Temp\ccW1j2pN.s:2157   .text.rtc_wakeup_timer_set:000000000000003a .L0 
C:\Users\stapi\AppData\Local\Temp\ccW1j2pN.s:2163   .text.rtc_wakeup_timer_set:000000000000003e .L0 
C:\Users\stapi\AppData\Local\Temp\ccW1j2pN.s:2164   .text.rtc_wakeup_timer_set:000000000000003e .L0 
C:\Users\stapi\AppData\Local\Temp\ccW1j2pN.s:2168   .text.rtc_wakeup_timer_set:0000000000000040 .L0 
C:\Users\stapi\AppData\Local\Temp\ccW1j2pN.s:2169   .text.rtc_wakeup_timer_set:0000000000000040 .L0 
C:\Users\stapi\AppData\Local\Temp\ccW1j2pN.s:2173   .text.rtc_wakeup_timer_set:000000000000004c .L0 
C:\Users\stapi\AppData\Local\Temp\ccW1j2pN.s:2174   .text.rtc_wakeup_timer_set:000000000000004c .L0 
C:\Users\stapi\AppData\Local\Temp\ccW1j2pN.s:2175   .text.rtc_wakeup_timer_set:000000000000004e .L0 
C:\Users\stapi\AppData\Local\Temp\ccW1j2pN.s:2177   .text.rtc_wakeup_timer_set:0000000000000050 .L0 
C:\Users\stapi\AppData\Local\Temp\ccW1j2pN.s:2184   .text.rtc_wakeup_timer_get:0000000000000000 rtc_wakeup_timer_get
C:\Users\stapi\AppData\Local\Temp\ccW1j2pN.s:2187   .text.rtc_wakeup_timer_get:0000000000000000 .L0 
C:\Users\stapi\AppData\Local\Temp\ccW1j2pN.s:2188   .text.rtc_wakeup_timer_get:0000000000000000 .L0 
C:\Users\stapi\AppData\Local\Temp\ccW1j2pN.s:2189   .text.rtc_wakeup_timer_get:0000000000000000 .L0 
C:\Users\stapi\AppData\Local\Temp\ccW1j2pN.s:2190   .text.rtc_wakeup_timer_get:0000000000000000 .L0 
C:\Users\stapi\AppData\Local\Temp\ccW1j2pN.s:2193   .text.rtc_wakeup_timer_get:0000000000000008 .L0 
C:\Users\stapi\AppData\Local\Temp\ccW1j2pN.s:2195   .text.rtc_wakeup_timer_get:000000000000000e .L0 
C:\Users\stapi\AppData\Local\Temp\ccW1j2pN.s:2202   .text.rtc_smooth_calibration_config:0000000000000000 rtc_smooth_calibration_config
C:\Users\stapi\AppData\Local\Temp\ccW1j2pN.s:2205   .text.rtc_smooth_calibration_config:0000000000000000 .L0 
C:\Users\stapi\AppData\Local\Temp\ccW1j2pN.s:2207   .text.rtc_smooth_calibration_config:0000000000000000 .L0 
C:\Users\stapi\AppData\Local\Temp\ccW1j2pN.s:2208   .text.rtc_smooth_calibration_config:0000000000000000 .L0 
C:\Users\stapi\AppData\Local\Temp\ccW1j2pN.s:2209   .text.rtc_smooth_calibration_config:0000000000000000 .L0 
C:\Users\stapi\AppData\Local\Temp\ccW1j2pN.s:2211   .text.rtc_smooth_calibration_config:0000000000000004 .L0 
C:\Users\stapi\AppData\Local\Temp\ccW1j2pN.s:2212   .text.rtc_smooth_calibration_config:0000000000000006 .L0 
C:\Users\stapi\AppData\Local\Temp\ccW1j2pN.s:2214   .text.rtc_smooth_calibration_config:0000000000000006 .L0 
C:\Users\stapi\AppData\Local\Temp\ccW1j2pN.s:2217   .text.rtc_smooth_calibration_config:0000000000000008 .L0 
C:\Users\stapi\AppData\Local\Temp\ccW1j2pN.s:2218   .text.rtc_smooth_calibration_config:0000000000000008 .L0 
C:\Users\stapi\AppData\Local\Temp\ccW1j2pN.s:2219   .text.rtc_smooth_calibration_config:0000000000000008 .L0 
C:\Users\stapi\AppData\Local\Temp\ccW1j2pN.s:2220   .text.rtc_smooth_calibration_config:0000000000000008 .L0 
C:\Users\stapi\AppData\Local\Temp\ccW1j2pN.s:2224   .text.rtc_smooth_calibration_config:0000000000000014 .L0 
C:\Users\stapi\AppData\Local\Temp\ccW1j2pN.s:2225   .text.rtc_smooth_calibration_config:0000000000000014 .L0 
C:\Users\stapi\AppData\Local\Temp\ccW1j2pN.s:2227   .text.rtc_smooth_calibration_config:0000000000000018 .L0 
C:\Users\stapi\AppData\Local\Temp\ccW1j2pN.s:2229   .text.rtc_smooth_calibration_config:000000000000001a .L0 
C:\Users\stapi\AppData\Local\Temp\ccW1j2pN.s:2231   .text.rtc_smooth_calibration_config:000000000000001e .L0 
C:\Users\stapi\AppData\Local\Temp\ccW1j2pN.s:2233   .text.rtc_smooth_calibration_config:0000000000000022 .L0 
C:\Users\stapi\AppData\Local\Temp\ccW1j2pN.s:2237   .text.rtc_smooth_calibration_config:0000000000000024 .L0 
C:\Users\stapi\AppData\Local\Temp\ccW1j2pN.s:2238   .text.rtc_smooth_calibration_config:0000000000000024 .L0 
C:\Users\stapi\AppData\Local\Temp\ccW1j2pN.s:2239   .text.rtc_smooth_calibration_config:0000000000000024 .L0 
C:\Users\stapi\AppData\Local\Temp\ccW1j2pN.s:2241   .text.rtc_smooth_calibration_config:0000000000000028 .L0 
C:\Users\stapi\AppData\Local\Temp\ccW1j2pN.s:2243   .text.rtc_smooth_calibration_config:000000000000002a .L0 
C:\Users\stapi\AppData\Local\Temp\ccW1j2pN.s:2246   .text.rtc_smooth_calibration_config:000000000000002e .L0 
C:\Users\stapi\AppData\Local\Temp\ccW1j2pN.s:2247   .text.rtc_smooth_calibration_config:000000000000002e .L0 
C:\Users\stapi\AppData\Local\Temp\ccW1j2pN.s:2249   .text.rtc_smooth_calibration_config:0000000000000032 .L0 
C:\Users\stapi\AppData\Local\Temp\ccW1j2pN.s:2252   .text.rtc_smooth_calibration_config:0000000000000036 .L0 
C:\Users\stapi\AppData\Local\Temp\ccW1j2pN.s:2255   .text.rtc_smooth_calibration_config:0000000000000038 .L0 
C:\Users\stapi\AppData\Local\Temp\ccW1j2pN.s:2256   .text.rtc_smooth_calibration_config:0000000000000038 .L0 
C:\Users\stapi\AppData\Local\Temp\ccW1j2pN.s:2259   .text.rtc_smooth_calibration_config:000000000000003c .L0 
C:\Users\stapi\AppData\Local\Temp\ccW1j2pN.s:2262   .text.rtc_smooth_calibration_config:0000000000000040 .L0 
C:\Users\stapi\AppData\Local\Temp\ccW1j2pN.s:2266   .text.rtc_smooth_calibration_config:0000000000000048 .L0 
C:\Users\stapi\AppData\Local\Temp\ccW1j2pN.s:2267   .text.rtc_smooth_calibration_config:0000000000000048 .L0 
C:\Users\stapi\AppData\Local\Temp\ccW1j2pN.s:2272   .text.rtc_smooth_calibration_config:000000000000004c .L0 
C:\Users\stapi\AppData\Local\Temp\ccW1j2pN.s:2273   .text.rtc_smooth_calibration_config:000000000000004c .L0 
C:\Users\stapi\AppData\Local\Temp\ccW1j2pN.s:2277   .text.rtc_smooth_calibration_config:000000000000004e .L0 
C:\Users\stapi\AppData\Local\Temp\ccW1j2pN.s:2278   .text.rtc_smooth_calibration_config:000000000000004e .L0 
C:\Users\stapi\AppData\Local\Temp\ccW1j2pN.s:2283   .text.rtc_smooth_calibration_config:000000000000005a .L0 
C:\Users\stapi\AppData\Local\Temp\ccW1j2pN.s:2284   .text.rtc_smooth_calibration_config:000000000000005a .L0 
C:\Users\stapi\AppData\Local\Temp\ccW1j2pN.s:2285   .text.rtc_smooth_calibration_config:000000000000005c .L0 
C:\Users\stapi\AppData\Local\Temp\ccW1j2pN.s:2287   .text.rtc_smooth_calibration_config:000000000000005e .L0 
C:\Users\stapi\AppData\Local\Temp\ccW1j2pN.s:2294   .text.rtc_coarse_calibration_enable:0000000000000000 rtc_coarse_calibration_enable
C:\Users\stapi\AppData\Local\Temp\ccW1j2pN.s:2297   .text.rtc_coarse_calibration_enable:0000000000000000 .L0 
C:\Users\stapi\AppData\Local\Temp\ccW1j2pN.s:2298   .text.rtc_coarse_calibration_enable:0000000000000000 .L0 
C:\Users\stapi\AppData\Local\Temp\ccW1j2pN.s:2299   .text.rtc_coarse_calibration_enable:0000000000000008 .L0 
C:\Users\stapi\AppData\Local\Temp\ccW1j2pN.s:2300   .text.rtc_coarse_calibration_enable:0000000000000008 .L0 
C:\Users\stapi\AppData\Local\Temp\ccW1j2pN.s:2301   .text.rtc_coarse_calibration_enable:0000000000000008 .L0 
C:\Users\stapi\AppData\Local\Temp\ccW1j2pN.s:2304   .text.rtc_coarse_calibration_enable:0000000000000008 .L0 
C:\Users\stapi\AppData\Local\Temp\ccW1j2pN.s:2305   .text.rtc_coarse_calibration_enable:0000000000000008 .L0 
C:\Users\stapi\AppData\Local\Temp\ccW1j2pN.s:2306   .text.rtc_coarse_calibration_enable:0000000000000008 .L0 
C:\Users\stapi\AppData\Local\Temp\ccW1j2pN.s:2310   .text.rtc_coarse_calibration_enable:0000000000000014 .L0 
C:\Users\stapi\AppData\Local\Temp\ccW1j2pN.s:2311   .text.rtc_coarse_calibration_enable:0000000000000014 .L0 
C:\Users\stapi\AppData\Local\Temp\ccW1j2pN.s:2313   .text.rtc_coarse_calibration_enable:0000000000000018 .L0 
C:\Users\stapi\AppData\Local\Temp\ccW1j2pN.s:2314   .text.rtc_coarse_calibration_enable:000000000000001a .L0 
C:\Users\stapi\AppData\Local\Temp\ccW1j2pN.s:2316   .text.rtc_coarse_calibration_enable:000000000000001a .L0 
C:\Users\stapi\AppData\Local\Temp\ccW1j2pN.s:2318   .text.rtc_coarse_calibration_enable:000000000000001e .L0 
C:\Users\stapi\AppData\Local\Temp\ccW1j2pN.s:2319   .text.rtc_coarse_calibration_enable:000000000000001e .L0 
C:\Users\stapi\AppData\Local\Temp\ccW1j2pN.s:2322   .text.rtc_coarse_calibration_enable:0000000000000026 .L0 
C:\Users\stapi\AppData\Local\Temp\ccW1j2pN.s:2323   .text.rtc_coarse_calibration_enable:0000000000000026 .L0 
C:\Users\stapi\AppData\Local\Temp\ccW1j2pN.s:2325   .text.rtc_coarse_calibration_enable:0000000000000028 .L0 
C:\Users\stapi\AppData\Local\Temp\ccW1j2pN.s:2328   .text.rtc_coarse_calibration_enable:000000000000002e .L0 
C:\Users\stapi\AppData\Local\Temp\ccW1j2pN.s:2329   .text.rtc_coarse_calibration_enable:000000000000002e .L0 
C:\Users\stapi\AppData\Local\Temp\ccW1j2pN.s:2332   .text.rtc_coarse_calibration_enable:0000000000000036 .L0 
C:\Users\stapi\AppData\Local\Temp\ccW1j2pN.s:2338   .text.rtc_coarse_calibration_enable:0000000000000040 .L0 
C:\Users\stapi\AppData\Local\Temp\ccW1j2pN.s:2339   .text.rtc_coarse_calibration_enable:0000000000000040 .L0 
C:\Users\stapi\AppData\Local\Temp\ccW1j2pN.s:2343   .text.rtc_coarse_calibration_enable:000000000000004c .L0 
C:\Users\stapi\AppData\Local\Temp\ccW1j2pN.s:2344   .text.rtc_coarse_calibration_enable:000000000000004c .L0 
C:\Users\stapi\AppData\Local\Temp\ccW1j2pN.s:2345   .text.rtc_coarse_calibration_enable:000000000000004e .L0 
C:\Users\stapi\AppData\Local\Temp\ccW1j2pN.s:2347   .text.rtc_coarse_calibration_enable:0000000000000056 .L0 
C:\Users\stapi\AppData\Local\Temp\ccW1j2pN.s:2348   .text.rtc_coarse_calibration_enable:0000000000000056 .L0 
C:\Users\stapi\AppData\Local\Temp\ccW1j2pN.s:2349   .text.rtc_coarse_calibration_enable:0000000000000056 .L0 
C:\Users\stapi\AppData\Local\Temp\ccW1j2pN.s:2350   .text.rtc_coarse_calibration_enable:0000000000000056 .L0 
C:\Users\stapi\AppData\Local\Temp\ccW1j2pN.s:2357   .text.rtc_coarse_calibration_disable:0000000000000000 rtc_coarse_calibration_disable
C:\Users\stapi\AppData\Local\Temp\ccW1j2pN.s:2360   .text.rtc_coarse_calibration_disable:0000000000000000 .L0 
C:\Users\stapi\AppData\Local\Temp\ccW1j2pN.s:2361   .text.rtc_coarse_calibration_disable:0000000000000000 .L0 
C:\Users\stapi\AppData\Local\Temp\ccW1j2pN.s:2362   .text.rtc_coarse_calibration_disable:0000000000000008 .L0 
C:\Users\stapi\AppData\Local\Temp\ccW1j2pN.s:2363   .text.rtc_coarse_calibration_disable:0000000000000008 .L0 
C:\Users\stapi\AppData\Local\Temp\ccW1j2pN.s:2364   .text.rtc_coarse_calibration_disable:0000000000000008 .L0 
C:\Users\stapi\AppData\Local\Temp\ccW1j2pN.s:2367   .text.rtc_coarse_calibration_disable:0000000000000008 .L0 
C:\Users\stapi\AppData\Local\Temp\ccW1j2pN.s:2368   .text.rtc_coarse_calibration_disable:0000000000000008 .L0 
C:\Users\stapi\AppData\Local\Temp\ccW1j2pN.s:2369   .text.rtc_coarse_calibration_disable:0000000000000008 .L0 
C:\Users\stapi\AppData\Local\Temp\ccW1j2pN.s:2373   .text.rtc_coarse_calibration_disable:0000000000000014 .L0 
C:\Users\stapi\AppData\Local\Temp\ccW1j2pN.s:2374   .text.rtc_coarse_calibration_disable:0000000000000014 .L0 
C:\Users\stapi\AppData\Local\Temp\ccW1j2pN.s:2376   .text.rtc_coarse_calibration_disable:0000000000000018 .L0 
C:\Users\stapi\AppData\Local\Temp\ccW1j2pN.s:2377   .text.rtc_coarse_calibration_disable:000000000000001a .L0 
C:\Users\stapi\AppData\Local\Temp\ccW1j2pN.s:2379   .text.rtc_coarse_calibration_disable:000000000000001a .L0 
C:\Users\stapi\AppData\Local\Temp\ccW1j2pN.s:2381   .text.rtc_coarse_calibration_disable:000000000000001e .L0 
C:\Users\stapi\AppData\Local\Temp\ccW1j2pN.s:2382   .text.rtc_coarse_calibration_disable:000000000000001e .L0 
C:\Users\stapi\AppData\Local\Temp\ccW1j2pN.s:2385   .text.rtc_coarse_calibration_disable:0000000000000026 .L0 
C:\Users\stapi\AppData\Local\Temp\ccW1j2pN.s:2386   .text.rtc_coarse_calibration_disable:0000000000000026 .L0 
C:\Users\stapi\AppData\Local\Temp\ccW1j2pN.s:2388   .text.rtc_coarse_calibration_disable:0000000000000028 .L0 
C:\Users\stapi\AppData\Local\Temp\ccW1j2pN.s:2391   .text.rtc_coarse_calibration_disable:000000000000002e .L0 
C:\Users\stapi\AppData\Local\Temp\ccW1j2pN.s:2392   .text.rtc_coarse_calibration_disable:000000000000002e .L0 
C:\Users\stapi\AppData\Local\Temp\ccW1j2pN.s:2395   .text.rtc_coarse_calibration_disable:0000000000000036 .L0 
C:\Users\stapi\AppData\Local\Temp\ccW1j2pN.s:2401   .text.rtc_coarse_calibration_disable:0000000000000040 .L0 
C:\Users\stapi\AppData\Local\Temp\ccW1j2pN.s:2402   .text.rtc_coarse_calibration_disable:0000000000000040 .L0 
C:\Users\stapi\AppData\Local\Temp\ccW1j2pN.s:2406   .text.rtc_coarse_calibration_disable:000000000000004c .L0 
C:\Users\stapi\AppData\Local\Temp\ccW1j2pN.s:2407   .text.rtc_coarse_calibration_disable:000000000000004c .L0 
C:\Users\stapi\AppData\Local\Temp\ccW1j2pN.s:2408   .text.rtc_coarse_calibration_disable:000000000000004e .L0 
C:\Users\stapi\AppData\Local\Temp\ccW1j2pN.s:2410   .text.rtc_coarse_calibration_disable:0000000000000056 .L0 
C:\Users\stapi\AppData\Local\Temp\ccW1j2pN.s:2411   .text.rtc_coarse_calibration_disable:0000000000000056 .L0 
C:\Users\stapi\AppData\Local\Temp\ccW1j2pN.s:2412   .text.rtc_coarse_calibration_disable:0000000000000056 .L0 
C:\Users\stapi\AppData\Local\Temp\ccW1j2pN.s:2413   .text.rtc_coarse_calibration_disable:0000000000000056 .L0 
C:\Users\stapi\AppData\Local\Temp\ccW1j2pN.s:2420   .text.rtc_coarse_calibration_config:0000000000000000 rtc_coarse_calibration_config
C:\Users\stapi\AppData\Local\Temp\ccW1j2pN.s:2423   .text.rtc_coarse_calibration_config:0000000000000000 .L0 
C:\Users\stapi\AppData\Local\Temp\ccW1j2pN.s:2425   .text.rtc_coarse_calibration_config:0000000000000000 .L0 
C:\Users\stapi\AppData\Local\Temp\ccW1j2pN.s:2426   .text.rtc_coarse_calibration_config:0000000000000008 .L0 
C:\Users\stapi\AppData\Local\Temp\ccW1j2pN.s:2427   .text.rtc_coarse_calibration_config:0000000000000008 .L0 
C:\Users\stapi\AppData\Local\Temp\ccW1j2pN.s:2428   .text.rtc_coarse_calibration_config:0000000000000008 .L0 
C:\Users\stapi\AppData\Local\Temp\ccW1j2pN.s:2429   .text.rtc_coarse_calibration_config:0000000000000008 .L0 
C:\Users\stapi\AppData\Local\Temp\ccW1j2pN.s:2430   .text.rtc_coarse_calibration_config:0000000000000008 .L0 
C:\Users\stapi\AppData\Local\Temp\ccW1j2pN.s:2433   .text.rtc_coarse_calibration_config:0000000000000008 .L0 
C:\Users\stapi\AppData\Local\Temp\ccW1j2pN.s:2434   .text.rtc_coarse_calibration_config:0000000000000008 .L0 
C:\Users\stapi\AppData\Local\Temp\ccW1j2pN.s:2435   .text.rtc_coarse_calibration_config:0000000000000008 .L0 
C:\Users\stapi\AppData\Local\Temp\ccW1j2pN.s:2439   .text.rtc_coarse_calibration_config:0000000000000014 .L0 
C:\Users\stapi\AppData\Local\Temp\ccW1j2pN.s:2440   .text.rtc_coarse_calibration_config:0000000000000014 .L0 
C:\Users\stapi\AppData\Local\Temp\ccW1j2pN.s:2442   .text.rtc_coarse_calibration_config:0000000000000018 .L0 
C:\Users\stapi\AppData\Local\Temp\ccW1j2pN.s:2443   .text.rtc_coarse_calibration_config:000000000000001a .L0 
C:\Users\stapi\AppData\Local\Temp\ccW1j2pN.s:2445   .text.rtc_coarse_calibration_config:000000000000001a .L0 
C:\Users\stapi\AppData\Local\Temp\ccW1j2pN.s:2447   .text.rtc_coarse_calibration_config:000000000000001e .L0 
C:\Users\stapi\AppData\Local\Temp\ccW1j2pN.s:2448   .text.rtc_coarse_calibration_config:000000000000001e .L0 
C:\Users\stapi\AppData\Local\Temp\ccW1j2pN.s:2451   .text.rtc_coarse_calibration_config:0000000000000022 .L0 
C:\Users\stapi\AppData\Local\Temp\ccW1j2pN.s:2454   .text.rtc_coarse_calibration_config:000000000000002a .L0 
C:\Users\stapi\AppData\Local\Temp\ccW1j2pN.s:2455   .text.rtc_coarse_calibration_config:000000000000002a .L0 
C:\Users\stapi\AppData\Local\Temp\ccW1j2pN.s:2457   .text.rtc_coarse_calibration_config:000000000000002c .L0 
C:\Users\stapi\AppData\Local\Temp\ccW1j2pN.s:2458   .text.rtc_coarse_calibration_config:000000000000002c .L0 
C:\Users\stapi\AppData\Local\Temp\ccW1j2pN.s:2461   .text.rtc_coarse_calibration_config:0000000000000032 .L0 
C:\Users\stapi\AppData\Local\Temp\ccW1j2pN.s:2462   .text.rtc_coarse_calibration_config:0000000000000032 .L0 
C:\Users\stapi\AppData\Local\Temp\ccW1j2pN.s:2466   .text.rtc_coarse_calibration_config:000000000000003a .L0 
C:\Users\stapi\AppData\Local\Temp\ccW1j2pN.s:2468   .text.rtc_coarse_calibration_config:000000000000003e .L0 
C:\Users\stapi\AppData\Local\Temp\ccW1j2pN.s:2473   .text.rtc_coarse_calibration_config:000000000000004a .L0 
C:\Users\stapi\AppData\Local\Temp\ccW1j2pN.s:2474   .text.rtc_coarse_calibration_config:000000000000004a .L0 
C:\Users\stapi\AppData\Local\Temp\ccW1j2pN.s:2476   .text.rtc_coarse_calibration_config:000000000000004c .L0 
C:\Users\stapi\AppData\Local\Temp\ccW1j2pN.s:2479   .text.rtc_coarse_calibration_config:0000000000000050 .L0 
C:\Users\stapi\AppData\Local\Temp\ccW1j2pN.s:2480   .text.rtc_coarse_calibration_config:0000000000000050 .L0 
C:\Users\stapi\AppData\Local\Temp\ccW1j2pN.s:2484   .text.rtc_coarse_calibration_config:0000000000000056 .L0 
C:\Users\stapi\AppData\Local\Temp\ccW1j2pN.s:2490   .text.rtc_coarse_calibration_config:0000000000000060 .L0 
C:\Users\stapi\AppData\Local\Temp\ccW1j2pN.s:2491   .text.rtc_coarse_calibration_config:0000000000000060 .L0 
C:\Users\stapi\AppData\Local\Temp\ccW1j2pN.s:2495   .text.rtc_coarse_calibration_config:000000000000006c .L0 
C:\Users\stapi\AppData\Local\Temp\ccW1j2pN.s:2496   .text.rtc_coarse_calibration_config:000000000000006c .L0 
C:\Users\stapi\AppData\Local\Temp\ccW1j2pN.s:2497   .text.rtc_coarse_calibration_config:000000000000006e .L0 
C:\Users\stapi\AppData\Local\Temp\ccW1j2pN.s:2498   .text.rtc_coarse_calibration_config:000000000000006e .L0 
C:\Users\stapi\AppData\Local\Temp\ccW1j2pN.s:2500   .text.rtc_coarse_calibration_config:0000000000000076 .L0 
C:\Users\stapi\AppData\Local\Temp\ccW1j2pN.s:2501   .text.rtc_coarse_calibration_config:0000000000000076 .L0 
C:\Users\stapi\AppData\Local\Temp\ccW1j2pN.s:2502   .text.rtc_coarse_calibration_config:0000000000000076 .L0 
C:\Users\stapi\AppData\Local\Temp\ccW1j2pN.s:2503   .text.rtc_coarse_calibration_config:0000000000000076 .L0 
C:\Users\stapi\AppData\Local\Temp\ccW1j2pN.s:2504   .text.rtc_coarse_calibration_config:0000000000000076 .L0 
C:\Users\stapi\AppData\Local\Temp\ccW1j2pN.s:2507   .text.rtc_coarse_calibration_config:0000000000000076 .L0 
C:\Users\stapi\AppData\Local\Temp\ccW1j2pN.s:2509   .text.rtc_coarse_calibration_config:0000000000000076 .L0 
C:\Users\stapi\AppData\Local\Temp\ccW1j2pN.s:2510   .text.rtc_coarse_calibration_config:0000000000000076 .L0 
C:\Users\stapi\AppData\Local\Temp\ccW1j2pN.s:2513   .text.rtc_coarse_calibration_config:0000000000000080 .L0 
C:\Users\stapi\AppData\Local\Temp\ccW1j2pN.s:2520   .text.rtc_flag_get:0000000000000000 rtc_flag_get
C:\Users\stapi\AppData\Local\Temp\ccW1j2pN.s:2523   .text.rtc_flag_get:0000000000000000 .L0 
C:\Users\stapi\AppData\Local\Temp\ccW1j2pN.s:2525   .text.rtc_flag_get:0000000000000000 .L0 
C:\Users\stapi\AppData\Local\Temp\ccW1j2pN.s:2526   .text.rtc_flag_get:0000000000000000 .L0 
C:\Users\stapi\AppData\Local\Temp\ccW1j2pN.s:2527   .text.rtc_flag_get:0000000000000000 .L0 
C:\Users\stapi\AppData\Local\Temp\ccW1j2pN.s:2528   .text.rtc_flag_get:0000000000000000 .L0 
C:\Users\stapi\AppData\Local\Temp\ccW1j2pN.s:2532   .text.rtc_flag_get:0000000000000008 .L0 
C:\Users\stapi\AppData\Local\Temp\ccW1j2pN.s:2533   .text.rtc_flag_get:0000000000000008 .L0 
C:\Users\stapi\AppData\Local\Temp\ccW1j2pN.s:2536   .text.rtc_flag_get:000000000000000a .L0 
C:\Users\stapi\AppData\Local\Temp\ccW1j2pN.s:2538   .text.rtc_flag_get:0000000000000010 .L0 
C:\Users\stapi\AppData\Local\Temp\ccW1j2pN.s:2545   .text.rtc_flag_clear:0000000000000000 rtc_flag_clear
C:\Users\stapi\AppData\Local\Temp\ccW1j2pN.s:2548   .text.rtc_flag_clear:0000000000000000 .L0 
C:\Users\stapi\AppData\Local\Temp\ccW1j2pN.s:2550   .text.rtc_flag_clear:0000000000000000 .L0 
C:\Users\stapi\AppData\Local\Temp\ccW1j2pN.s:2551   .text.rtc_flag_clear:0000000000000000 .L0 
C:\Users\stapi\AppData\Local\Temp\ccW1j2pN.s:2552   .text.rtc_flag_clear:0000000000000000 .L0 
C:\Users\stapi\AppData\Local\Temp\ccW1j2pN.s:2557   .text.rtc_flag_clear:000000000000000e .L0 
C:\Users\stapi\AppData\Local\Temp\ccW1j2pN.s:2558   .text.rtc_flag_clear:000000000000000e .L0 
C:\Users\stapi\AppData\Local\Temp\ccW1j2pN.s:2561   .text.rtc_flag_clear:0000000000000014 .L0 
C:\Users\stapi\AppData\Local\Temp\ccW1j2pN.s:2562   .text.rtc_flag_clear:0000000000000014 .L0 
C:\Users\stapi\AppData\Local\Temp\ccW1j2pN.s:2566   .text.rtc_flag_clear:000000000000001a .L0 
C:\Users\stapi\AppData\Local\Temp\ccW1j2pN.s:2568   .text.rtc_flag_clear:000000000000001e .L0 
C:\Users\stapi\AppData\Local\Temp\ccW1j2pN.s:2570   .text.rtc_flag_clear:0000000000000020 .L0 
C:\Users\stapi\AppData\Local\Temp\ccW1j2pN.s:2571   .text.rtc_flag_clear:0000000000000020 .L0 
C:\Users\stapi\AppData\Local\Temp\ccW1j2pN.s:2573   .text.rtc_flag_clear:0000000000000022 .L0 
C:\Users\stapi\AppData\Local\Temp\ccW1j2pN.s:2574   .text.rtc_flag_clear:0000000000000024 .L0 
C:\Users\stapi\AppData\Local\Temp\ccW1j2pN.s:2581   .text.rtc_interrupt_enable:0000000000000000 rtc_interrupt_enable
C:\Users\stapi\AppData\Local\Temp\ccW1j2pN.s:2584   .text.rtc_interrupt_enable:0000000000000000 .L0 
C:\Users\stapi\AppData\Local\Temp\ccW1j2pN.s:2586   .text.rtc_interrupt_enable:0000000000000000 .L0 
C:\Users\stapi\AppData\Local\Temp\ccW1j2pN.s:2587   .text.rtc_interrupt_enable:0000000000000000 .L0 
C:\Users\stapi\AppData\Local\Temp\ccW1j2pN.s:2588   .text.rtc_interrupt_enable:0000000000000000 .L0 
C:\Users\stapi\AppData\Local\Temp\ccW1j2pN.s:2591   .text.rtc_interrupt_enable:0000000000000006 .L0 
C:\Users\stapi\AppData\Local\Temp\ccW1j2pN.s:2592   .text.rtc_interrupt_enable:0000000000000006 .L0 
C:\Users\stapi\AppData\Local\Temp\ccW1j2pN.s:2599   .text.rtc_interrupt_enable:0000000000000018 .L0 
C:\Users\stapi\AppData\Local\Temp\ccW1j2pN.s:2600   .text.rtc_interrupt_enable:0000000000000018 .L0 
C:\Users\stapi\AppData\Local\Temp\ccW1j2pN.s:2605   .text.rtc_interrupt_enable:0000000000000026 .L0 
C:\Users\stapi\AppData\Local\Temp\ccW1j2pN.s:2606   .text.rtc_interrupt_enable:0000000000000026 .L0 
C:\Users\stapi\AppData\Local\Temp\ccW1j2pN.s:2609   .text.rtc_interrupt_enable:000000000000002c .L0 
C:\Users\stapi\AppData\Local\Temp\ccW1j2pN.s:2610   .text.rtc_interrupt_enable:000000000000002c .L0 
C:\Users\stapi\AppData\Local\Temp\ccW1j2pN.s:2615   .text.rtc_interrupt_enable:0000000000000032 .L0 
C:\Users\stapi\AppData\Local\Temp\ccW1j2pN.s:2616   .text.rtc_interrupt_enable:0000000000000032 .L0 
C:\Users\stapi\AppData\Local\Temp\ccW1j2pN.s:2619   .text.rtc_interrupt_enable:0000000000000038 .L0 
C:\Users\stapi\AppData\Local\Temp\ccW1j2pN.s:2620   .text.rtc_interrupt_enable:000000000000003a .L0 
C:\Users\stapi\AppData\Local\Temp\ccW1j2pN.s:2627   .text.rtc_interrupt_disable:0000000000000000 rtc_interrupt_disable
C:\Users\stapi\AppData\Local\Temp\ccW1j2pN.s:2630   .text.rtc_interrupt_disable:0000000000000000 .L0 
C:\Users\stapi\AppData\Local\Temp\ccW1j2pN.s:2632   .text.rtc_interrupt_disable:0000000000000000 .L0 
C:\Users\stapi\AppData\Local\Temp\ccW1j2pN.s:2633   .text.rtc_interrupt_disable:0000000000000000 .L0 
C:\Users\stapi\AppData\Local\Temp\ccW1j2pN.s:2634   .text.rtc_interrupt_disable:0000000000000000 .L0 
C:\Users\stapi\AppData\Local\Temp\ccW1j2pN.s:2637   .text.rtc_interrupt_disable:0000000000000006 .L0 
C:\Users\stapi\AppData\Local\Temp\ccW1j2pN.s:2638   .text.rtc_interrupt_disable:0000000000000006 .L0 
C:\Users\stapi\AppData\Local\Temp\ccW1j2pN.s:2645   .text.rtc_interrupt_disable:0000000000000016 .L0 
C:\Users\stapi\AppData\Local\Temp\ccW1j2pN.s:2646   .text.rtc_interrupt_disable:0000000000000016 .L0 
C:\Users\stapi\AppData\Local\Temp\ccW1j2pN.s:2651   .text.rtc_interrupt_disable:0000000000000024 .L0 
C:\Users\stapi\AppData\Local\Temp\ccW1j2pN.s:2652   .text.rtc_interrupt_disable:0000000000000024 .L0 
C:\Users\stapi\AppData\Local\Temp\ccW1j2pN.s:2655   .text.rtc_interrupt_disable:000000000000002a .L0 
C:\Users\stapi\AppData\Local\Temp\ccW1j2pN.s:2656   .text.rtc_interrupt_disable:000000000000002a .L0 
C:\Users\stapi\AppData\Local\Temp\ccW1j2pN.s:2660   .text.rtc_interrupt_disable:0000000000000030 .L0 
C:\Users\stapi\AppData\Local\Temp\ccW1j2pN.s:2662   .text.rtc_interrupt_disable:0000000000000034 .L0 
C:\Users\stapi\AppData\Local\Temp\ccW1j2pN.s:2664   .text.rtc_interrupt_disable:0000000000000036 .L0 
C:\Users\stapi\AppData\Local\Temp\ccW1j2pN.s:2665   .text.rtc_interrupt_disable:0000000000000036 .L0 
C:\Users\stapi\AppData\Local\Temp\ccW1j2pN.s:2667   .text.rtc_interrupt_disable:0000000000000038 .L0 
C:\Users\stapi\AppData\Local\Temp\ccW1j2pN.s:2668   .text.rtc_interrupt_disable:000000000000003a .L0 
C:\Users\stapi\AppData\Local\Temp\ccW1j2pN.s:89     .text.rtc_init_mode_enter:0000000000000044 .L0 
C:\Users\stapi\AppData\Local\Temp\ccW1j2pN.s:108    .text.rtc_init_mode_exit:0000000000000012 .L0 
C:\Users\stapi\AppData\Local\Temp\ccW1j2pN.s:198    .text.rtc_register_sync_wait:000000000000005c .L0 
C:\Users\stapi\AppData\Local\Temp\ccW1j2pN.s:354    .text.rtc_deinit:00000000000000bc .L0 
C:\Users\stapi\AppData\Local\Temp\ccW1j2pN.s:528    .text.rtc_init:00000000000000ec .L0 
C:\Users\stapi\AppData\Local\Temp\ccW1j2pN.s:632    .text.rtc_current_time_get:0000000000000076 .L0 
C:\Users\stapi\AppData\Local\Temp\ccW1j2pN.s:655    .text.rtc_subsecond_get:000000000000000e .L0 
C:\Users\stapi\AppData\Local\Temp\ccW1j2pN.s:736    .text.rtc_alarm_config:0000000000000072 .L0 
C:\Users\stapi\AppData\Local\Temp\ccW1j2pN.s:781    .text.rtc_alarm_subsecond_config:0000000000000034 .L0 
C:\Users\stapi\AppData\Local\Temp\ccW1j2pN.s:860    .text.rtc_alarm_get:0000000000000062 .L0 
C:\Users\stapi\AppData\Local\Temp\ccW1j2pN.s:896    .text.rtc_alarm_subsecond_get:0000000000000020 .L0 
C:\Users\stapi\AppData\Local\Temp\ccW1j2pN.s:941    .text.rtc_alarm_enable:000000000000003e .L0 
C:\Users\stapi\AppData\Local\Temp\ccW1j2pN.s:1055   .text.rtc_alarm_disable:000000000000007a .L0 
C:\Users\stapi\AppData\Local\Temp\ccW1j2pN.s:1103   .text.rtc_timestamp_enable:000000000000002e .L0 
C:\Users\stapi\AppData\Local\Temp\ccW1j2pN.s:1135   .text.rtc_timestamp_disable:0000000000000024 .L0 
C:\Users\stapi\AppData\Local\Temp\ccW1j2pN.s:1205   .text.rtc_timestamp_get:0000000000000050 .L0 
C:\Users\stapi\AppData\Local\Temp\ccW1j2pN.s:1222   .text.rtc_timestamp_subsecond_get:000000000000000a .L0 
C:\Users\stapi\AppData\Local\Temp\ccW1j2pN.s:1371   .text.rtc_tamper_enable:00000000000000d8 .L0 
C:\Users\stapi\AppData\Local\Temp\ccW1j2pN.s:1392   .text.rtc_tamper_disable:0000000000000012 .L0 
C:\Users\stapi\AppData\Local\Temp\ccW1j2pN.s:1412   .text.rtc_software_bkp_reset:0000000000000014 .L0 
C:\Users\stapi\AppData\Local\Temp\ccW1j2pN.s:1440   .text.rtc_tamper_without_bkp_reset:000000000000001c .L0 
C:\Users\stapi\AppData\Local\Temp\ccW1j2pN.s:1479   .text.rtc_output_pin_select:000000000000002e .L0 
C:\Users\stapi\AppData\Local\Temp\ccW1j2pN.s:1529   .text.rtc_alarm_output_config:000000000000003e .L0 
C:\Users\stapi\AppData\Local\Temp\ccW1j2pN.s:1569   .text.rtc_calibration_output_config:000000000000002e .L0 
C:\Users\stapi\AppData\Local\Temp\ccW1j2pN.s:1602   .text.rtc_hour_adjust:0000000000000022 .L0 
C:\Users\stapi\AppData\Local\Temp\ccW1j2pN.s:1704   .text.rtc_second_adjust:0000000000000072 .L0 
C:\Users\stapi\AppData\Local\Temp\ccW1j2pN.s:1736   .text.rtc_bypass_shadow_enable:0000000000000024 .L0 
C:\Users\stapi\AppData\Local\Temp\ccW1j2pN.s:1768   .text.rtc_bypass_shadow_disable:0000000000000024 .L0 
C:\Users\stapi\AppData\Local\Temp\ccW1j2pN.s:1831   .text.rtc_refclock_detection_enable:0000000000000056 .L0 
C:\Users\stapi\AppData\Local\Temp\ccW1j2pN.s:1894   .text.rtc_refclock_detection_disable:0000000000000054 .L0 
C:\Users\stapi\AppData\Local\Temp\ccW1j2pN.s:1926   .text.rtc_wakeup_enable:0000000000000024 .L0 
C:\Users\stapi\AppData\Local\Temp\ccW1j2pN.s:2008   .text.rtc_wakeup_disable:000000000000004e .L0 
C:\Users\stapi\AppData\Local\Temp\ccW1j2pN.s:2098   .text.rtc_wakeup_clock_set:000000000000005c .L0 
C:\Users\stapi\AppData\Local\Temp\ccW1j2pN.s:2180   .text.rtc_wakeup_timer_set:0000000000000050 .L0 
C:\Users\stapi\AppData\Local\Temp\ccW1j2pN.s:2198   .text.rtc_wakeup_timer_get:000000000000000e .L0 
C:\Users\stapi\AppData\Local\Temp\ccW1j2pN.s:2290   .text.rtc_smooth_calibration_config:000000000000005e .L0 
C:\Users\stapi\AppData\Local\Temp\ccW1j2pN.s:2353   .text.rtc_coarse_calibration_enable:0000000000000056 .L0 
C:\Users\stapi\AppData\Local\Temp\ccW1j2pN.s:2416   .text.rtc_coarse_calibration_disable:0000000000000056 .L0 
C:\Users\stapi\AppData\Local\Temp\ccW1j2pN.s:2516   .text.rtc_coarse_calibration_config:0000000000000080 .L0 
C:\Users\stapi\AppData\Local\Temp\ccW1j2pN.s:2541   .text.rtc_flag_get:0000000000000010 .L0 
C:\Users\stapi\AppData\Local\Temp\ccW1j2pN.s:2577   .text.rtc_flag_clear:0000000000000024 .L0 
C:\Users\stapi\AppData\Local\Temp\ccW1j2pN.s:2623   .text.rtc_interrupt_enable:000000000000003a .L0 
C:\Users\stapi\AppData\Local\Temp\ccW1j2pN.s:2671   .text.rtc_interrupt_disable:000000000000003a .L0 
                     .debug_frame:0000000000000000 .L0 
C:\Users\stapi\AppData\Local\Temp\ccW1j2pN.s:49     .text.rtc_init_mode_enter:000000000000001a .L2
C:\Users\stapi\AppData\Local\Temp\ccW1j2pN.s:78     .text.rtc_init_mode_enter:000000000000003e .L4
C:\Users\stapi\AppData\Local\Temp\ccW1j2pN.s:59     .text.rtc_init_mode_enter:000000000000002a .L5
C:\Users\stapi\AppData\Local\Temp\ccW1j2pN.s:38     .text.rtc_init_mode_enter:0000000000000014 .L6
C:\Users\stapi\AppData\Local\Temp\ccW1j2pN.s:42     .text.rtc_init_mode_enter:0000000000000016 .L1
C:\Users\stapi\AppData\Local\Temp\ccW1j2pN.s:181    .text.rtc_register_sync_wait:0000000000000052 .L11
C:\Users\stapi\AppData\Local\Temp\ccW1j2pN.s:188    .text.rtc_register_sync_wait:0000000000000056 .L13
C:\Users\stapi\AppData\Local\Temp\ccW1j2pN.s:153    .text.rtc_register_sync_wait:0000000000000032 .L14
C:\Users\stapi\AppData\Local\Temp\ccW1j2pN.s:174    .text.rtc_register_sync_wait:0000000000000046 .L15
C:\Users\stapi\AppData\Local\Temp\ccW1j2pN.s:337    .text.rtc_deinit:00000000000000b0 .L22
C:\Users\stapi\AppData\Local\Temp\ccW1j2pN.s:253    .text.rtc_deinit:000000000000003e .L23
C:\Users\stapi\AppData\Local\Temp\ccW1j2pN.s:342    .text.rtc_deinit:00000000000000b2 .L21
C:\Users\stapi\AppData\Local\Temp\ccW1j2pN.s:271    .text.rtc_deinit:000000000000004e .L24
C:\Users\stapi\AppData\Local\Temp\ccW1j2pN.s:504    .text.rtc_init:00000000000000d8 .L33
C:\Users\stapi\AppData\Local\Temp\ccW1j2pN.s:728    .text.rtc_alarm_config:000000000000006c .L41
C:\Users\stapi\AppData\Local\Temp\ccW1j2pN.s:718    .text.rtc_alarm_config:000000000000005e .L42
C:\Users\stapi\AppData\Local\Temp\ccW1j2pN.s:773    .text.rtc_alarm_subsecond_config:000000000000002e .L44
C:\Users\stapi\AppData\Local\Temp\ccW1j2pN.s:765    .text.rtc_alarm_subsecond_config:0000000000000020 .L45
C:\Users\stapi\AppData\Local\Temp\ccW1j2pN.s:850    .text.rtc_alarm_get:0000000000000058 .L47
C:\Users\stapi\AppData\Local\Temp\ccW1j2pN.s:800    .text.rtc_alarm_get:000000000000000e .L48
C:\Users\stapi\AppData\Local\Temp\ccW1j2pN.s:886    .text.rtc_alarm_subsecond_get:0000000000000016 .L50
C:\Users\stapi\AppData\Local\Temp\ccW1j2pN.s:880    .text.rtc_alarm_subsecond_get:0000000000000012 .L52
C:\Users\stapi\AppData\Local\Temp\ccW1j2pN.s:932    .text.rtc_alarm_enable:0000000000000034 .L54
C:\Users\stapi\AppData\Local\Temp\ccW1j2pN.s:922    .text.rtc_alarm_enable:0000000000000022 .L56
C:\Users\stapi\AppData\Local\Temp\ccW1j2pN.s:1017   .text.rtc_alarm_disable:0000000000000052 .L58
C:\Users\stapi\AppData\Local\Temp\ccW1j2pN.s:1046   .text.rtc_alarm_disable:0000000000000074 .L59
C:\Users\stapi\AppData\Local\Temp\ccW1j2pN.s:982    .text.rtc_alarm_disable:0000000000000030 .L60
C:\Users\stapi\AppData\Local\Temp\ccW1j2pN.s:1027   .text.rtc_alarm_disable:0000000000000062 .L62
C:\Users\stapi\AppData\Local\Temp\ccW1j2pN.s:1000   .text.rtc_alarm_disable:0000000000000040 .L63
C:\Users\stapi\AppData\Local\Temp\ccW1j2pN.s:1004   .text.rtc_alarm_disable:0000000000000042 .L61
C:\Users\stapi\AppData\Local\Temp\ccW1j2pN.s:1342   .text.rtc_tamper_enable:00000000000000b4 .L80
C:\Users\stapi\AppData\Local\Temp\ccW1j2pN.s:1335   .text.rtc_tamper_enable:00000000000000aa .L81
C:\Users\stapi\AppData\Local\Temp\ccW1j2pN.s:1309   .text.rtc_tamper_enable:0000000000000078 .L84
C:\Users\stapi\AppData\Local\Temp\ccW1j2pN.s:1325   .text.rtc_tamper_enable:0000000000000098 .L86
C:\Users\stapi\AppData\Local\Temp\ccW1j2pN.s:1267   .text.rtc_tamper_enable:000000000000003e .L93
C:\Users\stapi\AppData\Local\Temp\ccW1j2pN.s:1658   .text.rtc_second_adjust:000000000000003a .L102
C:\Users\stapi\AppData\Local\Temp\ccW1j2pN.s:1641   .text.rtc_second_adjust:0000000000000028 .L103
C:\Users\stapi\AppData\Local\Temp\ccW1j2pN.s:1688   .text.rtc_second_adjust:000000000000005c .L104
C:\Users\stapi\AppData\Local\Temp\ccW1j2pN.s:1814   .text.rtc_refclock_detection_enable:0000000000000040 .L114
C:\Users\stapi\AppData\Local\Temp\ccW1j2pN.s:1877   .text.rtc_refclock_detection_disable:000000000000003e .L120
C:\Users\stapi\AppData\Local\Temp\ccW1j2pN.s:1998   .text.rtc_wakeup_disable:0000000000000048 .L127
C:\Users\stapi\AppData\Local\Temp\ccW1j2pN.s:1964   .text.rtc_wakeup_disable:0000000000000026 .L128
C:\Users\stapi\AppData\Local\Temp\ccW1j2pN.s:1985   .text.rtc_wakeup_disable:0000000000000038 .L129
C:\Users\stapi\AppData\Local\Temp\ccW1j2pN.s:2079   .text.rtc_wakeup_clock_set:000000000000004a .L134
C:\Users\stapi\AppData\Local\Temp\ccW1j2pN.s:2042   .text.rtc_wakeup_clock_set:0000000000000020 .L135
C:\Users\stapi\AppData\Local\Temp\ccW1j2pN.s:2084   .text.rtc_wakeup_clock_set:000000000000004c .L137
C:\Users\stapi\AppData\Local\Temp\ccW1j2pN.s:2059   .text.rtc_wakeup_clock_set:0000000000000032 .L136
C:\Users\stapi\AppData\Local\Temp\ccW1j2pN.s:2161   .text.rtc_wakeup_timer_set:000000000000003e .L145
C:\Users\stapi\AppData\Local\Temp\ccW1j2pN.s:2132   .text.rtc_wakeup_timer_set:0000000000000020 .L146
C:\Users\stapi\AppData\Local\Temp\ccW1j2pN.s:2166   .text.rtc_wakeup_timer_set:0000000000000040 .L148
C:\Users\stapi\AppData\Local\Temp\ccW1j2pN.s:2149   .text.rtc_wakeup_timer_set:0000000000000032 .L147
C:\Users\stapi\AppData\Local\Temp\ccW1j2pN.s:2270   .text.rtc_smooth_calibration_config:000000000000004c .L157
C:\Users\stapi\AppData\Local\Temp\ccW1j2pN.s:2235   .text.rtc_smooth_calibration_config:0000000000000024 .L158
C:\Users\stapi\AppData\Local\Temp\ccW1j2pN.s:2275   .text.rtc_smooth_calibration_config:000000000000004e .L160
C:\Users\stapi\AppData\Local\Temp\ccW1j2pN.s:2253   .text.rtc_smooth_calibration_config:0000000000000038 .L159
C:\Users\stapi\AppData\Local\Temp\ccW1j2pN.s:2336   .text.rtc_coarse_calibration_enable:0000000000000040 .L164
C:\Users\stapi\AppData\Local\Temp\ccW1j2pN.s:2399   .text.rtc_coarse_calibration_disable:0000000000000040 .L170
C:\Users\stapi\AppData\Local\Temp\ccW1j2pN.s:2488   .text.rtc_coarse_calibration_config:0000000000000060 .L176
C:\Users\stapi\AppData\Local\Temp\ccW1j2pN.s:2506   .text.rtc_coarse_calibration_config:0000000000000076 .L177
C:\Users\stapi\AppData\Local\Temp\ccW1j2pN.s:2464   .text.rtc_coarse_calibration_config:000000000000003a .L183
C:\Users\stapi\AppData\Local\Temp\ccW1j2pN.s:2597   .text.rtc_interrupt_enable:0000000000000018 .L187
C:\Users\stapi\AppData\Local\Temp\ccW1j2pN.s:2643   .text.rtc_interrupt_disable:0000000000000016 .L190
C:\Users\stapi\AppData\Local\Temp\ccW1j2pN.s:4260   .debug_abbrev:0000000000000000 .Ldebug_abbrev0
C:\Users\stapi\AppData\Local\Temp\ccW1j2pN.s:6059   .debug_str:0000000000000316 .LASF136
C:\Users\stapi\AppData\Local\Temp\ccW1j2pN.s:5981   .debug_str:000000000000008b .LASF137
C:\Users\stapi\AppData\Local\Temp\ccW1j2pN.s:6165   .debug_str:000000000000071c .LASF138
C:\Users\stapi\AppData\Local\Temp\ccW1j2pN.s:5865   .debug_ranges:0000000000000000 .Ldebug_ranges0
C:\Users\stapi\AppData\Local\Temp\ccW1j2pN.s:5955   .debug_line:0000000000000000 .Ldebug_line0
C:\Users\stapi\AppData\Local\Temp\ccW1j2pN.s:6057   .debug_str:0000000000000309 .LASF0
C:\Users\stapi\AppData\Local\Temp\ccW1j2pN.s:5997   .debug_str:0000000000000190 .LASF1
C:\Users\stapi\AppData\Local\Temp\ccW1j2pN.s:5971   .debug_str:000000000000004e .LASF4
C:\Users\stapi\AppData\Local\Temp\ccW1j2pN.s:6147   .debug_str:00000000000006a2 .LASF2
C:\Users\stapi\AppData\Local\Temp\ccW1j2pN.s:6153   .debug_str:00000000000006cb .LASF3
C:\Users\stapi\AppData\Local\Temp\ccW1j2pN.s:6179   .debug_str:00000000000007d9 .LASF5
C:\Users\stapi\AppData\Local\Temp\ccW1j2pN.s:6081   .debug_str:00000000000004b0 .LASF6
C:\Users\stapi\AppData\Local\Temp\ccW1j2pN.s:6023   .debug_str:000000000000023a .LASF7
C:\Users\stapi\AppData\Local\Temp\ccW1j2pN.s:6047   .debug_str:00000000000002cf .LASF8
C:\Users\stapi\AppData\Local\Temp\ccW1j2pN.s:6065   .debug_str:000000000000042f .LASF9
C:\Users\stapi\AppData\Local\Temp\ccW1j2pN.s:5995   .debug_str:0000000000000182 .LASF10
C:\Users\stapi\AppData\Local\Temp\ccW1j2pN.s:5983   .debug_str:0000000000000123 .LASF11
C:\Users\stapi\AppData\Local\Temp\ccW1j2pN.s:6175   .debug_str:00000000000007cf .LASF12
C:\Users\stapi\AppData\Local\Temp\ccW1j2pN.s:6213   .debug_str:000000000000092e .LASF13
C:\Users\stapi\AppData\Local\Temp\ccW1j2pN.s:6033   .debug_str:0000000000000284 .LASF14
C:\Users\stapi\AppData\Local\Temp\ccW1j2pN.s:6171   .debug_str:00000000000007b2 .LASF15
C:\Users\stapi\AppData\Local\Temp\ccW1j2pN.s:6163   .debug_str:0000000000000714 .LASF16
C:\Users\stapi\AppData\Local\Temp\ccW1j2pN.s:6007   .debug_str:00000000000001df .LASF17
C:\Users\stapi\AppData\Local\Temp\ccW1j2pN.s:6035   .debug_str:000000000000028d .LASF18
C:\Users\stapi\AppData\Local\Temp\ccW1j2pN.s:6141   .debug_str:0000000000000678 .LASF19
C:\Users\stapi\AppData\Local\Temp\ccW1j2pN.s:5967   .debug_str:000000000000002b .LASF20
C:\Users\stapi\AppData\Local\Temp\ccW1j2pN.s:6115   .debug_str:00000000000005a6 .LASF21
C:\Users\stapi\AppData\Local\Temp\ccW1j2pN.s:6215   .debug_str:0000000000000936 .LASF22
C:\Users\stapi\AppData\Local\Temp\ccW1j2pN.s:6135   .debug_str:000000000000064d .LASF23
C:\Users\stapi\AppData\Local\Temp\ccW1j2pN.s:6013   .debug_str:00000000000001fe .LASF24
C:\Users\stapi\AppData\Local\Temp\ccW1j2pN.s:6079   .debug_str:00000000000004aa .LASF25
C:\Users\stapi\AppData\Local\Temp\ccW1j2pN.s:6083   .debug_str:00000000000004c3 .LASF26
C:\Users\stapi\AppData\Local\Temp\ccW1j2pN.s:6045   .debug_str:00000000000002c3 .LASF27
C:\Users\stapi\AppData\Local\Temp\ccW1j2pN.s:6131   .debug_str:000000000000063e .LASF28
C:\Users\stapi\AppData\Local\Temp\ccW1j2pN.s:6205   .debug_str:00000000000008e7 .LASF29
C:\Users\stapi\AppData\Local\Temp\ccW1j2pN.s:6011   .debug_str:00000000000001f7 .LASF30
C:\Users\stapi\AppData\Local\Temp\ccW1j2pN.s:6143   .debug_str:000000000000067e .LASF31
C:\Users\stapi\AppData\Local\Temp\ccW1j2pN.s:6185   .debug_str:0000000000000806 .LASF32
C:\Users\stapi\AppData\Local\Temp\ccW1j2pN.s:6021   .debug_str:0000000000000234 .LASF33
C:\Users\stapi\AppData\Local\Temp\ccW1j2pN.s:6137   .debug_str:0000000000000657 .LASF34
C:\Users\stapi\AppData\Local\Temp\ccW1j2pN.s:6155   .debug_str:00000000000006d5 .LASF35
C:\Users\stapi\AppData\Local\Temp\ccW1j2pN.s:6167   .debug_str:000000000000079a .LASF36
C:\Users\stapi\AppData\Local\Temp\ccW1j2pN.s:6233   .debug_str:00000000000009d4 .LASF37
C:\Users\stapi\AppData\Local\Temp\ccW1j2pN.s:5989   .debug_str:0000000000000154 .LASF38
C:\Users\stapi\AppData\Local\Temp\ccW1j2pN.s:5961   .debug_str:0000000000000012 .LASF39
C:\Users\stapi\AppData\Local\Temp\ccW1j2pN.s:6089   .debug_str:00000000000004f2 .LASF40
C:\Users\stapi\AppData\Local\Temp\ccW1j2pN.s:6169   .debug_str:00000000000007a5 .LASF41
C:\Users\stapi\AppData\Local\Temp\ccW1j2pN.s:5973   .debug_str:0000000000000058 .LASF42
C:\Users\stapi\AppData\Local\Temp\ccW1j2pN.s:6077   .debug_str:000000000000049a .LASF43
C:\Users\stapi\AppData\Local\Temp\ccW1j2pN.s:6019   .debug_str:0000000000000225 .LASF44
C:\Users\stapi\AppData\Local\Temp\ccW1j2pN.s:6043   .debug_str:00000000000002b5 .LASF45
C:\Users\stapi\AppData\Local\Temp\ccW1j2pN.s:6075   .debug_str:000000000000048b .LASF46
C:\Users\stapi\AppData\Local\Temp\ccW1j2pN.s:6009   .debug_str:00000000000001e6 .LASF47
C:\Users\stapi\AppData\Local\Temp\ccW1j2pN.s:6029   .debug_str:000000000000025f .LASF48
C:\Users\stapi\AppData\Local\Temp\ccW1j2pN.s:6207   .debug_str:00000000000008ee .LASF49
C:\Users\stapi\AppData\Local\Temp\ccW1j2pN.s:6201   .debug_str:00000000000008c9 .LASF50
C:\Users\stapi\AppData\Local\Temp\ccW1j2pN.s:5977   .debug_str:0000000000000073 .LASF51
C:\Users\stapi\AppData\Local\Temp\ccW1j2pN.s:6025   .debug_str:0000000000000243 .LASF52
C:\Users\stapi\AppData\Local\Temp\ccW1j2pN.s:6145   .debug_str:000000000000068a .LASF53
C:\Users\stapi\AppData\Local\Temp\ccW1j2pN.s:5969   .debug_str:0000000000000036 .LASF54
C:\Users\stapi\AppData\Local\Temp\ccW1j2pN.s:6117   .debug_str:00000000000005ac .LASF55
C:\Users\stapi\AppData\Local\Temp\ccW1j2pN.s:6181   .debug_str:00000000000007e4 .LASF56
C:\Users\stapi\AppData\Local\Temp\ccW1j2pN.s:6159   .debug_str:00000000000006ef .LASF57
C:\Users\stapi\AppData\Local\Temp\ccW1j2pN.s:6099   .debug_str:0000000000000530 .LASF58
C:\Users\stapi\AppData\Local\Temp\ccW1j2pN.s:2628   .text.rtc_interrupt_disable:0000000000000000 .LFB407
C:\Users\stapi\AppData\Local\Temp\ccW1j2pN.s:2669   .text.rtc_interrupt_disable:000000000000003a .LFE407
C:\Users\stapi\AppData\Local\Temp\ccW1j2pN.s:6041   .debug_str:00000000000002ab .LASF60
C:\Users\stapi\AppData\Local\Temp\ccW1j2pN.s:4788   .debug_loc:0000000000000000 .LLST54
C:\Users\stapi\AppData\Local\Temp\ccW1j2pN.s:6191   .debug_str:0000000000000842 .LASF59
C:\Users\stapi\AppData\Local\Temp\ccW1j2pN.s:2582   .text.rtc_interrupt_enable:0000000000000000 .LFB406
C:\Users\stapi\AppData\Local\Temp\ccW1j2pN.s:2621   .text.rtc_interrupt_enable:000000000000003a .LFE406
C:\Users\stapi\AppData\Local\Temp\ccW1j2pN.s:4802   .debug_loc:0000000000000021 .LLST53
C:\Users\stapi\AppData\Local\Temp\ccW1j2pN.s:6217   .debug_str:000000000000093e .LASF61
C:\Users\stapi\AppData\Local\Temp\ccW1j2pN.s:2546   .text.rtc_flag_clear:0000000000000000 .LFB405
C:\Users\stapi\AppData\Local\Temp\ccW1j2pN.s:2575   .text.rtc_flag_clear:0000000000000024 .LFE405
C:\Users\stapi\AppData\Local\Temp\ccW1j2pN.s:6157   .debug_str:00000000000006ea .LASF62
C:\Users\stapi\AppData\Local\Temp\ccW1j2pN.s:4816   .debug_loc:0000000000000042 .LLST52
C:\Users\stapi\AppData\Local\Temp\ccW1j2pN.s:6015   .debug_str:0000000000000203 .LASF63
C:\Users\stapi\AppData\Local\Temp\ccW1j2pN.s:2521   .text.rtc_flag_get:0000000000000000 .LFB404
C:\Users\stapi\AppData\Local\Temp\ccW1j2pN.s:2539   .text.rtc_flag_get:0000000000000010 .LFE404
C:\Users\stapi\AppData\Local\Temp\ccW1j2pN.s:4830   .debug_loc:0000000000000063 .LLST50
C:\Users\stapi\AppData\Local\Temp\ccW1j2pN.s:6107   .debug_str:0000000000000569 .LASF67
C:\Users\stapi\AppData\Local\Temp\ccW1j2pN.s:4844   .debug_loc:0000000000000084 .LLST51
C:\Users\stapi\AppData\Local\Temp\ccW1j2pN.s:6193   .debug_str:0000000000000857 .LASF64
C:\Users\stapi\AppData\Local\Temp\ccW1j2pN.s:2421   .text.rtc_coarse_calibration_config:0000000000000000 .LFB403
C:\Users\stapi\AppData\Local\Temp\ccW1j2pN.s:2514   .text.rtc_coarse_calibration_config:0000000000000080 .LFE403
C:\Users\stapi\AppData\Local\Temp\ccW1j2pN.s:5975   .debug_str:0000000000000069 .LASF65
C:\Users\stapi\AppData\Local\Temp\ccW1j2pN.s:4881   .debug_loc:00000000000000c3 .LLST47
C:\Users\stapi\AppData\Local\Temp\ccW1j2pN.s:6151   .debug_str:00000000000006c6 .LASF66
C:\Users\stapi\AppData\Local\Temp\ccW1j2pN.s:4895   .debug_loc:00000000000000e4 .LLST48
C:\Users\stapi\AppData\Local\Temp\ccW1j2pN.s:6051   .debug_str:00000000000002df .LASF68
C:\Users\stapi\AppData\Local\Temp\ccW1j2pN.s:4909   .debug_loc:0000000000000105 .LLST49
C:\Users\stapi\AppData\Local\Temp\ccW1j2pN.s:2452   .text.rtc_coarse_calibration_config:000000000000002a .LVL145
C:\Users\stapi\AppData\Local\Temp\ccW1j2pN.s:2485   .text.rtc_coarse_calibration_config:000000000000005e .LVL146
C:\Users\stapi\AppData\Local\Temp\ccW1j2pN.s:6189   .debug_str:0000000000000823 .LASF69
C:\Users\stapi\AppData\Local\Temp\ccW1j2pN.s:2358   .text.rtc_coarse_calibration_disable:0000000000000000 .LFB402
C:\Users\stapi\AppData\Local\Temp\ccW1j2pN.s:2414   .text.rtc_coarse_calibration_disable:0000000000000056 .LFE402
C:\Users\stapi\AppData\Local\Temp\ccW1j2pN.s:4930   .debug_loc:000000000000013b .LLST46
C:\Users\stapi\AppData\Local\Temp\ccW1j2pN.s:2383   .text.rtc_coarse_calibration_disable:0000000000000026 .LVL140
C:\Users\stapi\AppData\Local\Temp\ccW1j2pN.s:2396   .text.rtc_coarse_calibration_disable:000000000000003e .LVL141
C:\Users\stapi\AppData\Local\Temp\ccW1j2pN.s:5991   .debug_str:000000000000015e .LASF70
C:\Users\stapi\AppData\Local\Temp\ccW1j2pN.s:2295   .text.rtc_coarse_calibration_enable:0000000000000000 .LFB401
C:\Users\stapi\AppData\Local\Temp\ccW1j2pN.s:2351   .text.rtc_coarse_calibration_enable:0000000000000056 .LFE401
C:\Users\stapi\AppData\Local\Temp\ccW1j2pN.s:4947   .debug_loc:0000000000000166 .LLST45
C:\Users\stapi\AppData\Local\Temp\ccW1j2pN.s:2320   .text.rtc_coarse_calibration_enable:0000000000000026 .LVL136
C:\Users\stapi\AppData\Local\Temp\ccW1j2pN.s:2333   .text.rtc_coarse_calibration_enable:000000000000003e .LVL137
C:\Users\stapi\AppData\Local\Temp\ccW1j2pN.s:6227   .debug_str:0000000000000987 .LASF71
C:\Users\stapi\AppData\Local\Temp\ccW1j2pN.s:2203   .text.rtc_smooth_calibration_config:0000000000000000 .LFB400
C:\Users\stapi\AppData\Local\Temp\ccW1j2pN.s:2288   .text.rtc_smooth_calibration_config:000000000000005e .LFE400
C:\Users\stapi\AppData\Local\Temp\ccW1j2pN.s:6093   .debug_str:0000000000000514 .LASF72
C:\Users\stapi\AppData\Local\Temp\ccW1j2pN.s:4964   .debug_loc:0000000000000191 .LLST41
C:\Users\stapi\AppData\Local\Temp\ccW1j2pN.s:6037   .debug_str:000000000000029b .LASF73
C:\Users\stapi\AppData\Local\Temp\ccW1j2pN.s:5993   .debug_str:000000000000017c .LASF74
C:\Users\stapi\AppData\Local\Temp\ccW1j2pN.s:4975   .debug_loc:00000000000001af .LLST42
C:\Users\stapi\AppData\Local\Temp\ccW1j2pN.s:6055   .debug_str:00000000000002fe .LASF75
C:\Users\stapi\AppData\Local\Temp\ccW1j2pN.s:5000   .debug_loc:00000000000001e9 .LLST43
C:\Users\stapi\AppData\Local\Temp\ccW1j2pN.s:6183   .debug_str:00000000000007fa .LASF76
C:\Users\stapi\AppData\Local\Temp\ccW1j2pN.s:5022   .debug_loc:0000000000000220 .LLST44
C:\Users\stapi\AppData\Local\Temp\ccW1j2pN.s:6091   .debug_str:00000000000004ff .LASF101
C:\Users\stapi\AppData\Local\Temp\ccW1j2pN.s:2185   .text.rtc_wakeup_timer_get:0000000000000000 .LFB399
C:\Users\stapi\AppData\Local\Temp\ccW1j2pN.s:2196   .text.rtc_wakeup_timer_get:000000000000000e .LFE399
C:\Users\stapi\AppData\Local\Temp\ccW1j2pN.s:6127   .debug_str:000000000000060b .LASF77
C:\Users\stapi\AppData\Local\Temp\ccW1j2pN.s:2103   .text.rtc_wakeup_timer_set:0000000000000000 .LFB398
C:\Users\stapi\AppData\Local\Temp\ccW1j2pN.s:2178   .text.rtc_wakeup_timer_set:0000000000000050 .LFE398
C:\Users\stapi\AppData\Local\Temp\ccW1j2pN.s:6209   .debug_str:0000000000000903 .LASF78
C:\Users\stapi\AppData\Local\Temp\ccW1j2pN.s:5034   .debug_loc:000000000000023f .LLST38
C:\Users\stapi\AppData\Local\Temp\ccW1j2pN.s:5048   .debug_loc:0000000000000260 .LLST39
C:\Users\stapi\AppData\Local\Temp\ccW1j2pN.s:5070   .debug_loc:0000000000000297 .LLST40
C:\Users\stapi\AppData\Local\Temp\ccW1j2pN.s:6017   .debug_str:0000000000000210 .LASF79
C:\Users\stapi\AppData\Local\Temp\ccW1j2pN.s:2013   .text.rtc_wakeup_clock_set:0000000000000000 .LFB397
C:\Users\stapi\AppData\Local\Temp\ccW1j2pN.s:2096   .text.rtc_wakeup_clock_set:000000000000005c .LFE397
C:\Users\stapi\AppData\Local\Temp\ccW1j2pN.s:5999   .debug_str:000000000000019c .LASF80
C:\Users\stapi\AppData\Local\Temp\ccW1j2pN.s:5086   .debug_loc:00000000000002c1 .LLST35
C:\Users\stapi\AppData\Local\Temp\ccW1j2pN.s:5100   .debug_loc:00000000000002e2 .LLST36
C:\Users\stapi\AppData\Local\Temp\ccW1j2pN.s:5122   .debug_loc:0000000000000319 .LLST37
C:\Users\stapi\AppData\Local\Temp\ccW1j2pN.s:6161   .debug_str:0000000000000701 .LASF81
C:\Users\stapi\AppData\Local\Temp\ccW1j2pN.s:1931   .text.rtc_wakeup_disable:0000000000000000 .LFB396
C:\Users\stapi\AppData\Local\Temp\ccW1j2pN.s:2006   .text.rtc_wakeup_disable:000000000000004e .LFE396
C:\Users\stapi\AppData\Local\Temp\ccW1j2pN.s:5138   .debug_loc:0000000000000343 .LLST33
C:\Users\stapi\AppData\Local\Temp\ccW1j2pN.s:5155   .debug_loc:000000000000036e .LLST34
C:\Users\stapi\AppData\Local\Temp\ccW1j2pN.s:6139   .debug_str:0000000000000666 .LASF84
C:\Users\stapi\AppData\Local\Temp\ccW1j2pN.s:1899   .text.rtc_wakeup_enable:0000000000000000 .LFB395
C:\Users\stapi\AppData\Local\Temp\ccW1j2pN.s:1924   .text.rtc_wakeup_enable:0000000000000024 .LFE395
C:\Users\stapi\AppData\Local\Temp\ccW1j2pN.s:6199   .debug_str:00000000000008aa .LASF82
C:\Users\stapi\AppData\Local\Temp\ccW1j2pN.s:1836   .text.rtc_refclock_detection_disable:0000000000000000 .LFB394
C:\Users\stapi\AppData\Local\Temp\ccW1j2pN.s:1892   .text.rtc_refclock_detection_disable:0000000000000054 .LFE394
C:\Users\stapi\AppData\Local\Temp\ccW1j2pN.s:5171   .debug_loc:0000000000000398 .LLST32
C:\Users\stapi\AppData\Local\Temp\ccW1j2pN.s:1861   .text.rtc_refclock_detection_disable:0000000000000026 .LVL100
C:\Users\stapi\AppData\Local\Temp\ccW1j2pN.s:1874   .text.rtc_refclock_detection_disable:000000000000003c .LVL101
C:\Users\stapi\AppData\Local\Temp\ccW1j2pN.s:6211   .debug_str:0000000000000910 .LASF83
C:\Users\stapi\AppData\Local\Temp\ccW1j2pN.s:1773   .text.rtc_refclock_detection_enable:0000000000000000 .LFB393
C:\Users\stapi\AppData\Local\Temp\ccW1j2pN.s:1829   .text.rtc_refclock_detection_enable:0000000000000056 .LFE393
C:\Users\stapi\AppData\Local\Temp\ccW1j2pN.s:5188   .debug_loc:00000000000003c3 .LLST31
C:\Users\stapi\AppData\Local\Temp\ccW1j2pN.s:1798   .text.rtc_refclock_detection_enable:0000000000000026 .LVL96
C:\Users\stapi\AppData\Local\Temp\ccW1j2pN.s:1811   .text.rtc_refclock_detection_enable:000000000000003e .LVL97
C:\Users\stapi\AppData\Local\Temp\ccW1j2pN.s:6229   .debug_str:00000000000009a5 .LASF85
C:\Users\stapi\AppData\Local\Temp\ccW1j2pN.s:1741   .text.rtc_bypass_shadow_disable:0000000000000000 .LFB392
C:\Users\stapi\AppData\Local\Temp\ccW1j2pN.s:1766   .text.rtc_bypass_shadow_disable:0000000000000024 .LFE392
C:\Users\stapi\AppData\Local\Temp\ccW1j2pN.s:6223   .debug_str:0000000000000965 .LASF86
C:\Users\stapi\AppData\Local\Temp\ccW1j2pN.s:1709   .text.rtc_bypass_shadow_enable:0000000000000000 .LFB391
C:\Users\stapi\AppData\Local\Temp\ccW1j2pN.s:1734   .text.rtc_bypass_shadow_enable:0000000000000024 .LFE391
C:\Users\stapi\AppData\Local\Temp\ccW1j2pN.s:6087   .debug_str:00000000000004e0 .LASF87
C:\Users\stapi\AppData\Local\Temp\ccW1j2pN.s:1607   .text.rtc_second_adjust:0000000000000000 .LFB390
C:\Users\stapi\AppData\Local\Temp\ccW1j2pN.s:1702   .text.rtc_second_adjust:0000000000000072 .LFE390
C:\Users\stapi\AppData\Local\Temp\ccW1j2pN.s:5205   .debug_loc:00000000000003ee .LLST26
C:\Users\stapi\AppData\Local\Temp\ccW1j2pN.s:5223   .debug_loc:000000000000041a .LLST27
C:\Users\stapi\AppData\Local\Temp\ccW1j2pN.s:5237   .debug_loc:000000000000043b .LLST28
C:\Users\stapi\AppData\Local\Temp\ccW1j2pN.s:5249   .debug_loc:000000000000045a .LLST29
C:\Users\stapi\AppData\Local\Temp\ccW1j2pN.s:6049   .debug_str:00000000000002da .LASF88
C:\Users\stapi\AppData\Local\Temp\ccW1j2pN.s:5261   .debug_loc:0000000000000479 .LLST30
C:\Users\stapi\AppData\Local\Temp\ccW1j2pN.s:1687   .text.rtc_second_adjust:000000000000005c .LVL94
C:\Users\stapi\AppData\Local\Temp\ccW1j2pN.s:6203   .debug_str:00000000000008d7 .LASF89
C:\Users\stapi\AppData\Local\Temp\ccW1j2pN.s:1574   .text.rtc_hour_adjust:0000000000000000 .LFB389
C:\Users\stapi\AppData\Local\Temp\ccW1j2pN.s:1600   .text.rtc_hour_adjust:0000000000000022 .LFE389
C:\Users\stapi\AppData\Local\Temp\ccW1j2pN.s:6095   .debug_str:000000000000051b .LASF90
C:\Users\stapi\AppData\Local\Temp\ccW1j2pN.s:6129   .debug_str:0000000000000620 .LASF91
C:\Users\stapi\AppData\Local\Temp\ccW1j2pN.s:1534   .text.rtc_calibration_output_config:0000000000000000 .LFB388
C:\Users\stapi\AppData\Local\Temp\ccW1j2pN.s:1567   .text.rtc_calibration_output_config:000000000000002e .LFE388
C:\Users\stapi\AppData\Local\Temp\ccW1j2pN.s:6111   .debug_str:0000000000000590 .LASF92
C:\Users\stapi\AppData\Local\Temp\ccW1j2pN.s:6085   .debug_str:00000000000004c8 .LASF93
C:\Users\stapi\AppData\Local\Temp\ccW1j2pN.s:1484   .text.rtc_alarm_output_config:0000000000000000 .LFB387
C:\Users\stapi\AppData\Local\Temp\ccW1j2pN.s:1527   .text.rtc_alarm_output_config:000000000000003e .LFE387
C:\Users\stapi\AppData\Local\Temp\ccW1j2pN.s:6177   .debug_str:00000000000007d4 .LASF94
C:\Users\stapi\AppData\Local\Temp\ccW1j2pN.s:6149   .debug_str:00000000000006b0 .LASF95
C:\Users\stapi\AppData\Local\Temp\ccW1j2pN.s:1445   .text.rtc_output_pin_select:0000000000000000 .LFB386
C:\Users\stapi\AppData\Local\Temp\ccW1j2pN.s:1477   .text.rtc_output_pin_select:000000000000002e .LFE386
C:\Users\stapi\AppData\Local\Temp\ccW1j2pN.s:6197   .debug_str:000000000000088d .LASF96
C:\Users\stapi\AppData\Local\Temp\ccW1j2pN.s:1417   .text.rtc_tamper_without_bkp_reset:0000000000000000 .LFB385
C:\Users\stapi\AppData\Local\Temp\ccW1j2pN.s:1438   .text.rtc_tamper_without_bkp_reset:000000000000001c .LFE385
C:\Users\stapi\AppData\Local\Temp\ccW1j2pN.s:6069   .debug_str:0000000000000450 .LASF97
C:\Users\stapi\AppData\Local\Temp\ccW1j2pN.s:1397   .text.rtc_software_bkp_reset:0000000000000000 .LFB384
C:\Users\stapi\AppData\Local\Temp\ccW1j2pN.s:1410   .text.rtc_software_bkp_reset:0000000000000014 .LFE384
C:\Users\stapi\AppData\Local\Temp\ccW1j2pN.s:6125   .debug_str:00000000000005f8 .LASF98
C:\Users\stapi\AppData\Local\Temp\ccW1j2pN.s:1376   .text.rtc_tamper_disable:0000000000000000 .LFB383
C:\Users\stapi\AppData\Local\Temp\ccW1j2pN.s:1390   .text.rtc_tamper_disable:0000000000000012 .LFE383
C:\Users\stapi\AppData\Local\Temp\ccW1j2pN.s:5281   .debug_loc:00000000000004a7 .LLST25
C:\Users\stapi\AppData\Local\Temp\ccW1j2pN.s:6103   .debug_str:000000000000054e .LASF99
C:\Users\stapi\AppData\Local\Temp\ccW1j2pN.s:1227   .text.rtc_tamper_enable:0000000000000000 .LFB382
C:\Users\stapi\AppData\Local\Temp\ccW1j2pN.s:1369   .text.rtc_tamper_enable:00000000000000d8 .LFE382
C:\Users\stapi\AppData\Local\Temp\ccW1j2pN.s:6003   .debug_str:00000000000001bf .LASF100
C:\Users\stapi\AppData\Local\Temp\ccW1j2pN.s:6109   .debug_str:0000000000000574 .LASF102
C:\Users\stapi\AppData\Local\Temp\ccW1j2pN.s:1210   .text.rtc_timestamp_subsecond_get:0000000000000000 .LFB381
C:\Users\stapi\AppData\Local\Temp\ccW1j2pN.s:1220   .text.rtc_timestamp_subsecond_get:000000000000000a .LFE381
C:\Users\stapi\AppData\Local\Temp\ccW1j2pN.s:5985   .debug_str:000000000000013a .LASF103
C:\Users\stapi\AppData\Local\Temp\ccW1j2pN.s:1140   .text.rtc_timestamp_get:0000000000000000 .LFB380
C:\Users\stapi\AppData\Local\Temp\ccW1j2pN.s:1203   .text.rtc_timestamp_get:0000000000000050 .LFE380
C:\Users\stapi\AppData\Local\Temp\ccW1j2pN.s:6221   .debug_str:0000000000000957 .LASF104
C:\Users\stapi\AppData\Local\Temp\ccW1j2pN.s:5965   .debug_str:0000000000000022 .LASF105
C:\Users\stapi\AppData\Local\Temp\ccW1j2pN.s:5295   .debug_loc:00000000000004c8 .LLST23
C:\Users\stapi\AppData\Local\Temp\ccW1j2pN.s:6225   .debug_str:000000000000097e .LASF106
C:\Users\stapi\AppData\Local\Temp\ccW1j2pN.s:5307   .debug_loc:00000000000004e7 .LLST24
C:\Users\stapi\AppData\Local\Temp\ccW1j2pN.s:6001   .debug_str:00000000000001a9 .LASF107
C:\Users\stapi\AppData\Local\Temp\ccW1j2pN.s:1108   .text.rtc_timestamp_disable:0000000000000000 .LFB379
C:\Users\stapi\AppData\Local\Temp\ccW1j2pN.s:1133   .text.rtc_timestamp_disable:0000000000000024 .LFE379
C:\Users\stapi\AppData\Local\Temp\ccW1j2pN.s:6231   .debug_str:00000000000009bf .LASF108
C:\Users\stapi\AppData\Local\Temp\ccW1j2pN.s:1060   .text.rtc_timestamp_enable:0000000000000000 .LFB378
C:\Users\stapi\AppData\Local\Temp\ccW1j2pN.s:1101   .text.rtc_timestamp_enable:000000000000002e .LFE378
C:\Users\stapi\AppData\Local\Temp\ccW1j2pN.s:5963   .debug_str:000000000000001d .LASF109
C:\Users\stapi\AppData\Local\Temp\ccW1j2pN.s:6101   .debug_str:0000000000000546 .LASF110
C:\Users\stapi\AppData\Local\Temp\ccW1j2pN.s:5319   .debug_loc:0000000000000506 .LLST22
C:\Users\stapi\AppData\Local\Temp\ccW1j2pN.s:6053   .debug_str:00000000000002ec .LASF111
C:\Users\stapi\AppData\Local\Temp\ccW1j2pN.s:946    .text.rtc_alarm_disable:0000000000000000 .LFB377
C:\Users\stapi\AppData\Local\Temp\ccW1j2pN.s:1053   .text.rtc_alarm_disable:000000000000007a .LFE377
C:\Users\stapi\AppData\Local\Temp\ccW1j2pN.s:6219   .debug_str:000000000000094d .LASF112
C:\Users\stapi\AppData\Local\Temp\ccW1j2pN.s:5345   .debug_loc:0000000000000542 .LLST19
C:\Users\stapi\AppData\Local\Temp\ccW1j2pN.s:5370   .debug_loc:000000000000057c .LLST20
C:\Users\stapi\AppData\Local\Temp\ccW1j2pN.s:5387   .debug_loc:00000000000005a7 .LLST21
C:\Users\stapi\AppData\Local\Temp\ccW1j2pN.s:6119   .debug_str:00000000000005c2 .LASF113
C:\Users\stapi\AppData\Local\Temp\ccW1j2pN.s:901    .text.rtc_alarm_enable:0000000000000000 .LFB376
C:\Users\stapi\AppData\Local\Temp\ccW1j2pN.s:939    .text.rtc_alarm_enable:000000000000003e .LFE376
C:\Users\stapi\AppData\Local\Temp\ccW1j2pN.s:6195   .debug_str:0000000000000875 .LASF114
C:\Users\stapi\AppData\Local\Temp\ccW1j2pN.s:865    .text.rtc_alarm_subsecond_get:0000000000000000 .LFB375
C:\Users\stapi\AppData\Local\Temp\ccW1j2pN.s:894    .text.rtc_alarm_subsecond_get:0000000000000020 .LFE375
C:\Users\stapi\AppData\Local\Temp\ccW1j2pN.s:5408   .debug_loc:00000000000005dd .LLST18
C:\Users\stapi\AppData\Local\Temp\ccW1j2pN.s:6027   .debug_str:0000000000000251 .LASF115
C:\Users\stapi\AppData\Local\Temp\ccW1j2pN.s:786    .text.rtc_alarm_get:0000000000000000 .LFB374
C:\Users\stapi\AppData\Local\Temp\ccW1j2pN.s:858    .text.rtc_alarm_get:0000000000000062 .LFE374
C:\Users\stapi\AppData\Local\Temp\ccW1j2pN.s:6113   .debug_str:0000000000000597 .LASF116
C:\Users\stapi\AppData\Local\Temp\ccW1j2pN.s:6097   .debug_str:0000000000000525 .LASF117
C:\Users\stapi\AppData\Local\Temp\ccW1j2pN.s:5433   .debug_loc:0000000000000617 .LLST17
C:\Users\stapi\AppData\Local\Temp\ccW1j2pN.s:6121   .debug_str:00000000000005d3 .LASF118
C:\Users\stapi\AppData\Local\Temp\ccW1j2pN.s:741    .text.rtc_alarm_subsecond_config:0000000000000000 .LFB373
C:\Users\stapi\AppData\Local\Temp\ccW1j2pN.s:779    .text.rtc_alarm_subsecond_config:0000000000000034 .LFE373
C:\Users\stapi\AppData\Local\Temp\ccW1j2pN.s:6067   .debug_str:0000000000000441 .LASF119
C:\Users\stapi\AppData\Local\Temp\ccW1j2pN.s:6123   .debug_str:00000000000005ee .LASF120
C:\Users\stapi\AppData\Local\Temp\ccW1j2pN.s:5454   .debug_loc:000000000000064d .LLST16
C:\Users\stapi\AppData\Local\Temp\ccW1j2pN.s:6073   .debug_str:000000000000047a .LASF121
C:\Users\stapi\AppData\Local\Temp\ccW1j2pN.s:660    .text.rtc_alarm_config:0000000000000000 .LFB372
C:\Users\stapi\AppData\Local\Temp\ccW1j2pN.s:734    .text.rtc_alarm_config:0000000000000072 .LFE372
C:\Users\stapi\AppData\Local\Temp\ccW1j2pN.s:5468   .debug_loc:000000000000066e .LLST15
C:\Users\stapi\AppData\Local\Temp\ccW1j2pN.s:6187   .debug_str:0000000000000811 .LASF122
C:\Users\stapi\AppData\Local\Temp\ccW1j2pN.s:637    .text.rtc_subsecond_get:0000000000000000 .LFB371
C:\Users\stapi\AppData\Local\Temp\ccW1j2pN.s:653    .text.rtc_subsecond_get:000000000000000e .LFE371
C:\Users\stapi\AppData\Local\Temp\ccW1j2pN.s:5484   .debug_loc:0000000000000698 .LLST14
C:\Users\stapi\AppData\Local\Temp\ccW1j2pN.s:6005   .debug_str:00000000000001ca .LASF123
C:\Users\stapi\AppData\Local\Temp\ccW1j2pN.s:533    .text.rtc_current_time_get:0000000000000000 .LFB370
C:\Users\stapi\AppData\Local\Temp\ccW1j2pN.s:630    .text.rtc_current_time_get:0000000000000076 .LFE370
C:\Users\stapi\AppData\Local\Temp\ccW1j2pN.s:6031   .debug_str:0000000000000270 .LASF124
C:\Users\stapi\AppData\Local\Temp\ccW1j2pN.s:5987   .debug_str:000000000000014c .LASF125
C:\Users\stapi\AppData\Local\Temp\ccW1j2pN.s:5496   .debug_loc:00000000000006b7 .LLST10
C:\Users\stapi\AppData\Local\Temp\ccW1j2pN.s:5957   .debug_str:0000000000000000 .LASF126
C:\Users\stapi\AppData\Local\Temp\ccW1j2pN.s:5508   .debug_loc:00000000000006d6 .LLST11
C:\Users\stapi\AppData\Local\Temp\ccW1j2pN.s:6133   .debug_str:0000000000000643 .LASF127
C:\Users\stapi\AppData\Local\Temp\ccW1j2pN.s:5520   .debug_loc:00000000000006f5 .LLST12
C:\Users\stapi\AppData\Local\Temp\ccW1j2pN.s:5959   .debug_str:0000000000000008 .LASF128
C:\Users\stapi\AppData\Local\Temp\ccW1j2pN.s:5532   .debug_loc:0000000000000714 .LLST13
C:\Users\stapi\AppData\Local\Temp\ccW1j2pN.s:6063   .debug_str:0000000000000418 .LASF129
C:\Users\stapi\AppData\Local\Temp\ccW1j2pN.s:113    .text.rtc_register_sync_wait:0000000000000000 .LFB369
C:\Users\stapi\AppData\Local\Temp\ccW1j2pN.s:196    .text.rtc_register_sync_wait:000000000000005c .LFE369
C:\Users\stapi\AppData\Local\Temp\ccW1j2pN.s:5544   .debug_loc:0000000000000733 .LLST2
C:\Users\stapi\AppData\Local\Temp\ccW1j2pN.s:5560   .debug_loc:000000000000075d .LLST3
C:\Users\stapi\AppData\Local\Temp\ccW1j2pN.s:6071   .debug_str:0000000000000467 .LASF130
C:\Users\stapi\AppData\Local\Temp\ccW1j2pN.s:94     .text.rtc_init_mode_exit:0000000000000000 .LFB368
C:\Users\stapi\AppData\Local\Temp\ccW1j2pN.s:106    .text.rtc_init_mode_exit:0000000000000012 .LFE368
C:\Users\stapi\AppData\Local\Temp\ccW1j2pN.s:6173   .debug_str:00000000000007bb .LASF131
C:\Users\stapi\AppData\Local\Temp\ccW1j2pN.s:14     .text.rtc_init_mode_enter:0000000000000000 .LFB367
C:\Users\stapi\AppData\Local\Temp\ccW1j2pN.s:87     .text.rtc_init_mode_enter:0000000000000044 .LFE367
C:\Users\stapi\AppData\Local\Temp\ccW1j2pN.s:5577   .debug_loc:0000000000000788 .LLST0
C:\Users\stapi\AppData\Local\Temp\ccW1j2pN.s:5594   .debug_loc:00000000000007b3 .LLST1
C:\Users\stapi\AppData\Local\Temp\ccW1j2pN.s:5979   .debug_str:0000000000000082 .LASF132
C:\Users\stapi\AppData\Local\Temp\ccW1j2pN.s:359    .text.rtc_init:0000000000000000 .LFB366
C:\Users\stapi\AppData\Local\Temp\ccW1j2pN.s:526    .text.rtc_init:00000000000000ec .LFE366
C:\Users\stapi\AppData\Local\Temp\ccW1j2pN.s:5611   .debug_loc:00000000000007de .LLST6
C:\Users\stapi\AppData\Local\Temp\ccW1j2pN.s:5622   .debug_loc:00000000000007fc .LLST7
C:\Users\stapi\AppData\Local\Temp\ccW1j2pN.s:6061   .debug_str:000000000000040f .LASF133
C:\Users\stapi\AppData\Local\Temp\ccW1j2pN.s:5638   .debug_loc:0000000000000826 .LLST8
C:\Users\stapi\AppData\Local\Temp\ccW1j2pN.s:6105   .debug_str:0000000000000560 .LASF134
C:\Users\stapi\AppData\Local\Temp\ccW1j2pN.s:5685   .debug_loc:0000000000000869 .LLST9
C:\Users\stapi\AppData\Local\Temp\ccW1j2pN.s:414    .text.rtc_init:0000000000000046 .LVL26
C:\Users\stapi\AppData\Local\Temp\ccW1j2pN.s:499    .text.rtc_init:00000000000000d0 .LVL29
C:\Users\stapi\AppData\Local\Temp\ccW1j2pN.s:503    .text.rtc_init:00000000000000d8 .LVL30
C:\Users\stapi\AppData\Local\Temp\ccW1j2pN.s:6039   .debug_str:00000000000002a0 .LASF135
C:\Users\stapi\AppData\Local\Temp\ccW1j2pN.s:203    .text.rtc_deinit:0000000000000000 .LFB365
C:\Users\stapi\AppData\Local\Temp\ccW1j2pN.s:352    .text.rtc_deinit:00000000000000bc .LFE365
C:\Users\stapi\AppData\Local\Temp\ccW1j2pN.s:5735   .debug_loc:00000000000008b0 .LLST4
C:\Users\stapi\AppData\Local\Temp\ccW1j2pN.s:5752   .debug_loc:00000000000008db .LLST5
C:\Users\stapi\AppData\Local\Temp\ccW1j2pN.s:295    .text.rtc_deinit:0000000000000076 .LVL18
C:\Users\stapi\AppData\Local\Temp\ccW1j2pN.s:328    .text.rtc_deinit:00000000000000a8 .LVL19
C:\Users\stapi\AppData\Local\Temp\ccW1j2pN.s:2631   .text.rtc_interrupt_disable:0000000000000000 .LVL156
C:\Users\stapi\AppData\Local\Temp\ccW1j2pN.s:2658   .text.rtc_interrupt_disable:0000000000000030 .LVL157
C:\Users\stapi\AppData\Local\Temp\ccW1j2pN.s:2585   .text.rtc_interrupt_enable:0000000000000000 .LVL154
C:\Users\stapi\AppData\Local\Temp\ccW1j2pN.s:2612   .text.rtc_interrupt_enable:0000000000000030 .LVL155
C:\Users\stapi\AppData\Local\Temp\ccW1j2pN.s:2549   .text.rtc_flag_clear:0000000000000000 .LVL152
C:\Users\stapi\AppData\Local\Temp\ccW1j2pN.s:2564   .text.rtc_flag_clear:000000000000001a .LVL153
C:\Users\stapi\AppData\Local\Temp\ccW1j2pN.s:2524   .text.rtc_flag_get:0000000000000000 .LVL149
C:\Users\stapi\AppData\Local\Temp\ccW1j2pN.s:2534   .text.rtc_flag_get:000000000000000a .LVL151
C:\Users\stapi\AppData\Local\Temp\ccW1j2pN.s:2530   .text.rtc_flag_get:0000000000000008 .LVL150
C:\Users\stapi\AppData\Local\Temp\ccW1j2pN.s:2424   .text.rtc_coarse_calibration_config:0000000000000000 .LVL143
C:\Users\stapi\AppData\Local\Temp\ccW1j2pN.s:2432   .text.rtc_coarse_calibration_config:0000000000000008 .LVL144
C:\Users\stapi\AppData\Local\Temp\ccW1j2pN.s:2487   .text.rtc_coarse_calibration_config:0000000000000060 .LVL147
C:\Users\stapi\AppData\Local\Temp\ccW1j2pN.s:2505   .text.rtc_coarse_calibration_config:0000000000000076 .LVL148
C:\Users\stapi\AppData\Local\Temp\ccW1j2pN.s:2366   .text.rtc_coarse_calibration_disable:0000000000000008 .LVL139
C:\Users\stapi\AppData\Local\Temp\ccW1j2pN.s:2398   .text.rtc_coarse_calibration_disable:0000000000000040 .LVL142
C:\Users\stapi\AppData\Local\Temp\ccW1j2pN.s:2303   .text.rtc_coarse_calibration_enable:0000000000000008 .LVL135
C:\Users\stapi\AppData\Local\Temp\ccW1j2pN.s:2335   .text.rtc_coarse_calibration_enable:0000000000000040 .LVL138
C:\Users\stapi\AppData\Local\Temp\ccW1j2pN.s:2206   .text.rtc_smooth_calibration_config:0000000000000000 .LVL126
C:\Users\stapi\AppData\Local\Temp\ccW1j2pN.s:2234   .text.rtc_smooth_calibration_config:0000000000000024 .LVL128
C:\Users\stapi\AppData\Local\Temp\ccW1j2pN.s:2257   .text.rtc_smooth_calibration_config:000000000000003c .LVL130
C:\Users\stapi\AppData\Local\Temp\ccW1j2pN.s:2269   .text.rtc_smooth_calibration_config:000000000000004c .LVL132
C:\Users\stapi\AppData\Local\Temp\ccW1j2pN.s:2274   .text.rtc_smooth_calibration_config:000000000000004e .LVL133
C:\Users\stapi\AppData\Local\Temp\ccW1j2pN.s:2216   .text.rtc_smooth_calibration_config:0000000000000008 .LVL127
C:\Users\stapi\AppData\Local\Temp\ccW1j2pN.s:2265   .text.rtc_smooth_calibration_config:0000000000000048 .LVL131
C:\Users\stapi\AppData\Local\Temp\ccW1j2pN.s:2244   .text.rtc_smooth_calibration_config:000000000000002e .LVL129
C:\Users\stapi\AppData\Local\Temp\ccW1j2pN.s:2280   .text.rtc_smooth_calibration_config:0000000000000056 .LVL134
C:\Users\stapi\AppData\Local\Temp\ccW1j2pN.s:2106   .text.rtc_wakeup_timer_set:0000000000000000 .LVL118
C:\Users\stapi\AppData\Local\Temp\ccW1j2pN.s:2131   .text.rtc_wakeup_timer_set:0000000000000020 .LVL120
C:\Users\stapi\AppData\Local\Temp\ccW1j2pN.s:2155   .text.rtc_wakeup_timer_set:000000000000003a .LVL122
C:\Users\stapi\AppData\Local\Temp\ccW1j2pN.s:2160   .text.rtc_wakeup_timer_set:000000000000003e .LVL124
C:\Users\stapi\AppData\Local\Temp\ccW1j2pN.s:2165   .text.rtc_wakeup_timer_set:0000000000000040 .LVL125
C:\Users\stapi\AppData\Local\Temp\ccW1j2pN.s:2117   .text.rtc_wakeup_timer_set:0000000000000006 .LVL119
C:\Users\stapi\AppData\Local\Temp\ccW1j2pN.s:2139   .text.rtc_wakeup_timer_set:0000000000000028 .LVL121
C:\Users\stapi\AppData\Local\Temp\ccW1j2pN.s:2158   .text.rtc_wakeup_timer_set:000000000000003c .LVL123
C:\Users\stapi\AppData\Local\Temp\ccW1j2pN.s:2016   .text.rtc_wakeup_clock_set:0000000000000000 .LVL110
C:\Users\stapi\AppData\Local\Temp\ccW1j2pN.s:2041   .text.rtc_wakeup_clock_set:0000000000000020 .LVL112
C:\Users\stapi\AppData\Local\Temp\ccW1j2pN.s:2074   .text.rtc_wakeup_clock_set:0000000000000046 .LVL115
C:\Users\stapi\AppData\Local\Temp\ccW1j2pN.s:2078   .text.rtc_wakeup_clock_set:000000000000004a .LVL116
C:\Users\stapi\AppData\Local\Temp\ccW1j2pN.s:2083   .text.rtc_wakeup_clock_set:000000000000004c .LVL117
C:\Users\stapi\AppData\Local\Temp\ccW1j2pN.s:2027   .text.rtc_wakeup_clock_set:0000000000000006 .LVL111
C:\Users\stapi\AppData\Local\Temp\ccW1j2pN.s:2049   .text.rtc_wakeup_clock_set:0000000000000028 .LVL113
C:\Users\stapi\AppData\Local\Temp\ccW1j2pN.s:2070   .text.rtc_wakeup_clock_set:0000000000000042 .LVL114
C:\Users\stapi\AppData\Local\Temp\ccW1j2pN.s:1935   .text.rtc_wakeup_disable:0000000000000000 .LVL103
C:\Users\stapi\AppData\Local\Temp\ccW1j2pN.s:1984   .text.rtc_wakeup_disable:0000000000000038 .LVL107
C:\Users\stapi\AppData\Local\Temp\ccW1j2pN.s:1997   .text.rtc_wakeup_disable:0000000000000048 .LVL108
C:\Users\stapi\AppData\Local\Temp\ccW1j2pN.s:1945   .text.rtc_wakeup_disable:0000000000000006 .LVL104
C:\Users\stapi\AppData\Local\Temp\ccW1j2pN.s:1963   .text.rtc_wakeup_disable:0000000000000026 .LVL105
C:\Users\stapi\AppData\Local\Temp\ccW1j2pN.s:1973   .text.rtc_wakeup_disable:000000000000002e .LVL106
C:\Users\stapi\AppData\Local\Temp\ccW1j2pN.s:2003   .text.rtc_wakeup_disable:000000000000004c .LVL109
C:\Users\stapi\AppData\Local\Temp\ccW1j2pN.s:1844   .text.rtc_refclock_detection_disable:0000000000000008 .LVL99
C:\Users\stapi\AppData\Local\Temp\ccW1j2pN.s:1876   .text.rtc_refclock_detection_disable:000000000000003e .LVL102
C:\Users\stapi\AppData\Local\Temp\ccW1j2pN.s:1781   .text.rtc_refclock_detection_enable:0000000000000008 .LVL95
C:\Users\stapi\AppData\Local\Temp\ccW1j2pN.s:1813   .text.rtc_refclock_detection_enable:0000000000000040 .LVL98
C:\Users\stapi\AppData\Local\Temp\ccW1j2pN.s:1610   .text.rtc_second_adjust:0000000000000000 .LVL85
C:\Users\stapi\AppData\Local\Temp\ccW1j2pN.s:1667   .text.rtc_second_adjust:0000000000000044 .LVL90
C:\Users\stapi\AppData\Local\Temp\ccW1j2pN.s:1678   .text.rtc_second_adjust:000000000000004c .LVL93
C:\Users\stapi\AppData\Local\Temp\ccW1j2pN.s:1623   .text.rtc_second_adjust:000000000000000e .LVL86
C:\Users\stapi\AppData\Local\Temp\ccW1j2pN.s:1640   .text.rtc_second_adjust:0000000000000028 .LVL87
C:\Users\stapi\AppData\Local\Temp\ccW1j2pN.s:1648   .text.rtc_second_adjust:0000000000000030 .LVL88
C:\Users\stapi\AppData\Local\Temp\ccW1j2pN.s:1663   .text.rtc_second_adjust:0000000000000042 .LVL89
C:\Users\stapi\AppData\Local\Temp\ccW1j2pN.s:1670   .text.rtc_second_adjust:0000000000000046 .LVL91
C:\Users\stapi\AppData\Local\Temp\ccW1j2pN.s:1673   .text.rtc_second_adjust:0000000000000048 .LVL92
C:\Users\stapi\AppData\Local\Temp\ccW1j2pN.s:1379   .text.rtc_tamper_disable:0000000000000000 .LVL78
C:\Users\stapi\AppData\Local\Temp\ccW1j2pN.s:1385   .text.rtc_tamper_disable:000000000000000c .LVL79
C:\Users\stapi\AppData\Local\Temp\ccW1j2pN.s:1143   .text.rtc_timestamp_get:0000000000000000 .LVL72
C:\Users\stapi\AppData\Local\Temp\ccW1j2pN.s:1149   .text.rtc_timestamp_get:0000000000000008 .LVL73
C:\Users\stapi\AppData\Local\Temp\ccW1j2pN.s:1189   .text.rtc_timestamp_get:0000000000000042 .LVL76
C:\Users\stapi\AppData\Local\Temp\ccW1j2pN.s:1153   .text.rtc_timestamp_get:000000000000000c .LVL74
C:\Users\stapi\AppData\Local\Temp\ccW1j2pN.s:1172   .text.rtc_timestamp_get:0000000000000024 .LVL75
C:\Users\stapi\AppData\Local\Temp\ccW1j2pN.s:1063   .text.rtc_timestamp_enable:0000000000000000 .LVL66
C:\Users\stapi\AppData\Local\Temp\ccW1j2pN.s:1078   .text.rtc_timestamp_enable:0000000000000016 .LVL67
C:\Users\stapi\AppData\Local\Temp\ccW1j2pN.s:1084   .text.rtc_timestamp_enable:000000000000001e .LVL68
C:\Users\stapi\AppData\Local\Temp\ccW1j2pN.s:1088   .text.rtc_timestamp_enable:0000000000000024 .LVL69
C:\Users\stapi\AppData\Local\Temp\ccW1j2pN.s:1095   .text.rtc_timestamp_enable:000000000000002a .LVL70
C:\Users\stapi\AppData\Local\Temp\ccW1j2pN.s:1097   .text.rtc_timestamp_enable:000000000000002c .LVL71
C:\Users\stapi\AppData\Local\Temp\ccW1j2pN.s:949    .text.rtc_alarm_disable:0000000000000000 .LVL57
C:\Users\stapi\AppData\Local\Temp\ccW1j2pN.s:981    .text.rtc_alarm_disable:0000000000000030 .LVL59
C:\Users\stapi\AppData\Local\Temp\ccW1j2pN.s:1016   .text.rtc_alarm_disable:0000000000000052 .LVL62
C:\Users\stapi\AppData\Local\Temp\ccW1j2pN.s:1026   .text.rtc_alarm_disable:0000000000000062 .LVL63
C:\Users\stapi\AppData\Local\Temp\ccW1j2pN.s:959    .text.rtc_alarm_disable:0000000000000006 .LVL58
C:\Users\stapi\AppData\Local\Temp\ccW1j2pN.s:1003   .text.rtc_alarm_disable:0000000000000042 .LVL61
C:\Users\stapi\AppData\Local\Temp\ccW1j2pN.s:991    .text.rtc_alarm_disable:0000000000000038 .LVL60
C:\Users\stapi\AppData\Local\Temp\ccW1j2pN.s:1036   .text.rtc_alarm_disable:000000000000006a .LVL64
C:\Users\stapi\AppData\Local\Temp\ccW1j2pN.s:1050   .text.rtc_alarm_disable:0000000000000078 .LVL65
C:\Users\stapi\AppData\Local\Temp\ccW1j2pN.s:868    .text.rtc_alarm_subsecond_get:0000000000000000 .LVL52
C:\Users\stapi\AppData\Local\Temp\ccW1j2pN.s:879    .text.rtc_alarm_subsecond_get:0000000000000012 .LVL53
C:\Users\stapi\AppData\Local\Temp\ccW1j2pN.s:885    .text.rtc_alarm_subsecond_get:0000000000000016 .LVL54
C:\Users\stapi\AppData\Local\Temp\ccW1j2pN.s:891    .text.rtc_alarm_subsecond_get:000000000000001e .LVL55
C:\Users\stapi\AppData\Local\Temp\ccW1j2pN.s:789    .text.rtc_alarm_get:0000000000000000 .LVL47
C:\Users\stapi\AppData\Local\Temp\ccW1j2pN.s:799    .text.rtc_alarm_get:000000000000000e .LVL48
C:\Users\stapi\AppData\Local\Temp\ccW1j2pN.s:841    .text.rtc_alarm_get:000000000000004e .LVL49
C:\Users\stapi\AppData\Local\Temp\ccW1j2pN.s:849    .text.rtc_alarm_get:0000000000000058 .LVL50
C:\Users\stapi\AppData\Local\Temp\ccW1j2pN.s:855    .text.rtc_alarm_get:0000000000000060 .LVL51
C:\Users\stapi\AppData\Local\Temp\ccW1j2pN.s:744    .text.rtc_alarm_subsecond_config:0000000000000000 .LVL45
C:\Users\stapi\AppData\Local\Temp\ccW1j2pN.s:759    .text.rtc_alarm_subsecond_config:0000000000000018 .LVL46
C:\Users\stapi\AppData\Local\Temp\ccW1j2pN.s:663    .text.rtc_alarm_config:0000000000000000 .LVL41
C:\Users\stapi\AppData\Local\Temp\ccW1j2pN.s:710    .text.rtc_alarm_config:0000000000000054 .LVL42
C:\Users\stapi\AppData\Local\Temp\ccW1j2pN.s:722    .text.rtc_alarm_config:0000000000000062 .LVL43
C:\Users\stapi\AppData\Local\Temp\ccW1j2pN.s:727    .text.rtc_alarm_config:000000000000006c .LVL44
C:\Users\stapi\AppData\Local\Temp\ccW1j2pN.s:641    .text.rtc_subsecond_get:0000000000000000 .LVL39
C:\Users\stapi\AppData\Local\Temp\ccW1j2pN.s:646    .text.rtc_subsecond_get:0000000000000008 .LVL40
C:\Users\stapi\AppData\Local\Temp\ccW1j2pN.s:536    .text.rtc_current_time_get:0000000000000000 .LVL31
C:\Users\stapi\AppData\Local\Temp\ccW1j2pN.s:543    .text.rtc_current_time_get:000000000000000a .LVL32
C:\Users\stapi\AppData\Local\Temp\ccW1j2pN.s:606    .text.rtc_current_time_get:0000000000000062 .LVL38
C:\Users\stapi\AppData\Local\Temp\ccW1j2pN.s:547    .text.rtc_current_time_get:000000000000000c .LVL33
C:\Users\stapi\AppData\Local\Temp\ccW1j2pN.s:573    .text.rtc_current_time_get:0000000000000028 .LVL36
C:\Users\stapi\AppData\Local\Temp\ccW1j2pN.s:551    .text.rtc_current_time_get:000000000000000e .LVL34
C:\Users\stapi\AppData\Local\Temp\ccW1j2pN.s:602    .text.rtc_current_time_get:000000000000005c .LVL37
C:\Users\stapi\AppData\Local\Temp\ccW1j2pN.s:555    .text.rtc_current_time_get:0000000000000010 .LVL35
C:\Users\stapi\AppData\Local\Temp\ccW1j2pN.s:125    .text.rtc_register_sync_wait:0000000000000006 .LVL7
C:\Users\stapi\AppData\Local\Temp\ccW1j2pN.s:152    .text.rtc_register_sync_wait:0000000000000032 .LVL8
C:\Users\stapi\AppData\Local\Temp\ccW1j2pN.s:162    .text.rtc_register_sync_wait:000000000000003c .LVL9
C:\Users\stapi\AppData\Local\Temp\ccW1j2pN.s:173    .text.rtc_register_sync_wait:0000000000000046 .LVL10
C:\Users\stapi\AppData\Local\Temp\ccW1j2pN.s:187    .text.rtc_register_sync_wait:0000000000000056 .LVL12
C:\Users\stapi\AppData\Local\Temp\ccW1j2pN.s:193    .text.rtc_register_sync_wait:000000000000005a .LVL13
C:\Users\stapi\AppData\Local\Temp\ccW1j2pN.s:180    .text.rtc_register_sync_wait:0000000000000052 .LVL11
C:\Users\stapi\AppData\Local\Temp\ccW1j2pN.s:27     .text.rtc_init_mode_enter:0000000000000006 .LVL0
C:\Users\stapi\AppData\Local\Temp\ccW1j2pN.s:37     .text.rtc_init_mode_enter:0000000000000014 .LVL1
C:\Users\stapi\AppData\Local\Temp\ccW1j2pN.s:48     .text.rtc_init_mode_enter:000000000000001a .LVL3
C:\Users\stapi\AppData\Local\Temp\ccW1j2pN.s:58     .text.rtc_init_mode_enter:000000000000002a .LVL4
C:\Users\stapi\AppData\Local\Temp\ccW1j2pN.s:68     .text.rtc_init_mode_enter:0000000000000034 .LVL5
C:\Users\stapi\AppData\Local\Temp\ccW1j2pN.s:82     .text.rtc_init_mode_enter:0000000000000042 .LVL6
C:\Users\stapi\AppData\Local\Temp\ccW1j2pN.s:41     .text.rtc_init_mode_enter:0000000000000016 .LVL2
C:\Users\stapi\AppData\Local\Temp\ccW1j2pN.s:362    .text.rtc_init:0000000000000000 .LVL22
C:\Users\stapi\AppData\Local\Temp\ccW1j2pN.s:377    .text.rtc_init:0000000000000008 .LVL23
C:\Users\stapi\AppData\Local\Temp\ccW1j2pN.s:401    .text.rtc_init:0000000000000030 .LVL25
C:\Users\stapi\AppData\Local\Temp\ccW1j2pN.s:441    .text.rtc_init:000000000000006a .LVL27
C:\Users\stapi\AppData\Local\Temp\ccW1j2pN.s:391    .text.rtc_init:0000000000000020 .LVL24
C:\Users\stapi\AppData\Local\Temp\ccW1j2pN.s:449    .text.rtc_init:000000000000007a .LVL28
C:\Users\stapi\AppData\Local\Temp\ccW1j2pN.s:212    .text.rtc_deinit:0000000000000008 .LVL14
C:\Users\stapi\AppData\Local\Temp\ccW1j2pN.s:336    .text.rtc_deinit:00000000000000b0 .LVL20
C:\Users\stapi\AppData\Local\Temp\ccW1j2pN.s:341    .text.rtc_deinit:00000000000000b2 .LVL21
C:\Users\stapi\AppData\Local\Temp\ccW1j2pN.s:222    .text.rtc_deinit:000000000000000e .LVL15
C:\Users\stapi\AppData\Local\Temp\ccW1j2pN.s:252    .text.rtc_deinit:000000000000003e .LVL16
C:\Users\stapi\AppData\Local\Temp\ccW1j2pN.s:262    .text.rtc_deinit:0000000000000046 .LVL17
C:\Users\stapi\AppData\Local\Temp\ccW1j2pN.s:2678   .debug_info:0000000000000000 .Ldebug_info0

UNDEFINED SYMBOLS
__riscv_save_2
__riscv_restore_2
__riscv_save_10
__riscv_restore_10
__riscv_save_0
__riscv_restore_0
__riscv_save_1
__riscv_restore_1
__riscv_save_3
__riscv_restore_3
