   1              		.file	"gd32vw55x_cau_des.c"
   2              		.option nopic
   3              		.attribute arch, "rv32i2p0_m2p0_a2p0_f2p0_c2p0_b_p0p94"
   4              		.attribute unaligned_access, 0
   5              		.attribute stack_align, 16
   6              		.text
   7              	.Ltext0:
   8              		.cfi_sections	.debug_frame
   9              		.section	.text.cau_des_calculate,"ax",@progbits
  10              		.align	1
  12              	cau_des_calculate:
  13              	.LFB367:
  14              		.file 1 "C:/Users/stapi/OneDrive/Desktop/GD32VW553/V1_MQTT_OK/GD32VW55X_Wifi_BLE_SDK/GD32VW55x_REL
   1:C:/Users/stapi/OneDrive/Desktop/GD32VW553/V1_MQTT_OK/GD32VW55X_Wifi_BLE_SDK/GD32VW55x_RELEASE_V1.0.2/MSDK/plf/GD32VW55x_standard_peripheral/Source\gd32vw55x_cau_des.c **** /*!
   2:C:/Users/stapi/OneDrive/Desktop/GD32VW553/V1_MQTT_OK/GD32VW55X_Wifi_BLE_SDK/GD32VW55x_RELEASE_V1.0.2/MSDK/plf/GD32VW55x_standard_peripheral/Source\gd32vw55x_cau_des.c ****     \file    gd32vw55x_cau_des.c
   3:C:/Users/stapi/OneDrive/Desktop/GD32VW553/V1_MQTT_OK/GD32VW55X_Wifi_BLE_SDK/GD32VW55x_RELEASE_V1.0.2/MSDK/plf/GD32VW55x_standard_peripheral/Source\gd32vw55x_cau_des.c ****     \brief   CAU DES driver
   4:C:/Users/stapi/OneDrive/Desktop/GD32VW553/V1_MQTT_OK/GD32VW55X_Wifi_BLE_SDK/GD32VW55x_RELEASE_V1.0.2/MSDK/plf/GD32VW55x_standard_peripheral/Source\gd32vw55x_cau_des.c **** 
   5:C:/Users/stapi/OneDrive/Desktop/GD32VW553/V1_MQTT_OK/GD32VW55X_Wifi_BLE_SDK/GD32VW55x_RELEASE_V1.0.2/MSDK/plf/GD32VW55x_standard_peripheral/Source\gd32vw55x_cau_des.c ****     \version 2023-07-20, V1.0.0, firmware for GD32VW55x
   6:C:/Users/stapi/OneDrive/Desktop/GD32VW553/V1_MQTT_OK/GD32VW55X_Wifi_BLE_SDK/GD32VW55x_RELEASE_V1.0.2/MSDK/plf/GD32VW55x_standard_peripheral/Source\gd32vw55x_cau_des.c **** */
   7:C:/Users/stapi/OneDrive/Desktop/GD32VW553/V1_MQTT_OK/GD32VW55X_Wifi_BLE_SDK/GD32VW55x_RELEASE_V1.0.2/MSDK/plf/GD32VW55x_standard_peripheral/Source\gd32vw55x_cau_des.c **** 
   8:C:/Users/stapi/OneDrive/Desktop/GD32VW553/V1_MQTT_OK/GD32VW55X_Wifi_BLE_SDK/GD32VW55x_RELEASE_V1.0.2/MSDK/plf/GD32VW55x_standard_peripheral/Source\gd32vw55x_cau_des.c **** /*
   9:C:/Users/stapi/OneDrive/Desktop/GD32VW553/V1_MQTT_OK/GD32VW55X_Wifi_BLE_SDK/GD32VW55x_RELEASE_V1.0.2/MSDK/plf/GD32VW55x_standard_peripheral/Source\gd32vw55x_cau_des.c ****     Copyright (c) 2023, GigaDevice Semiconductor Inc.
  10:C:/Users/stapi/OneDrive/Desktop/GD32VW553/V1_MQTT_OK/GD32VW55X_Wifi_BLE_SDK/GD32VW55x_RELEASE_V1.0.2/MSDK/plf/GD32VW55x_standard_peripheral/Source\gd32vw55x_cau_des.c **** 
  11:C:/Users/stapi/OneDrive/Desktop/GD32VW553/V1_MQTT_OK/GD32VW55X_Wifi_BLE_SDK/GD32VW55x_RELEASE_V1.0.2/MSDK/plf/GD32VW55x_standard_peripheral/Source\gd32vw55x_cau_des.c ****     Redistribution and use in source and binary forms, with or without modification,
  12:C:/Users/stapi/OneDrive/Desktop/GD32VW553/V1_MQTT_OK/GD32VW55X_Wifi_BLE_SDK/GD32VW55x_RELEASE_V1.0.2/MSDK/plf/GD32VW55x_standard_peripheral/Source\gd32vw55x_cau_des.c **** are permitted provided that the following conditions are met:
  13:C:/Users/stapi/OneDrive/Desktop/GD32VW553/V1_MQTT_OK/GD32VW55X_Wifi_BLE_SDK/GD32VW55x_RELEASE_V1.0.2/MSDK/plf/GD32VW55x_standard_peripheral/Source\gd32vw55x_cau_des.c **** 
  14:C:/Users/stapi/OneDrive/Desktop/GD32VW553/V1_MQTT_OK/GD32VW55X_Wifi_BLE_SDK/GD32VW55x_RELEASE_V1.0.2/MSDK/plf/GD32VW55x_standard_peripheral/Source\gd32vw55x_cau_des.c ****     1. Redistributions of source code must retain the above copyright notice, this
  15:C:/Users/stapi/OneDrive/Desktop/GD32VW553/V1_MQTT_OK/GD32VW55X_Wifi_BLE_SDK/GD32VW55x_RELEASE_V1.0.2/MSDK/plf/GD32VW55x_standard_peripheral/Source\gd32vw55x_cau_des.c ****        list of conditions and the following disclaimer.
  16:C:/Users/stapi/OneDrive/Desktop/GD32VW553/V1_MQTT_OK/GD32VW55X_Wifi_BLE_SDK/GD32VW55x_RELEASE_V1.0.2/MSDK/plf/GD32VW55x_standard_peripheral/Source\gd32vw55x_cau_des.c ****     2. Redistributions in binary form must reproduce the above copyright notice,
  17:C:/Users/stapi/OneDrive/Desktop/GD32VW553/V1_MQTT_OK/GD32VW55X_Wifi_BLE_SDK/GD32VW55x_RELEASE_V1.0.2/MSDK/plf/GD32VW55x_standard_peripheral/Source\gd32vw55x_cau_des.c ****        this list of conditions and the following disclaimer in the documentation
  18:C:/Users/stapi/OneDrive/Desktop/GD32VW553/V1_MQTT_OK/GD32VW55X_Wifi_BLE_SDK/GD32VW55x_RELEASE_V1.0.2/MSDK/plf/GD32VW55x_standard_peripheral/Source\gd32vw55x_cau_des.c ****        and/or other materials provided with the distribution.
  19:C:/Users/stapi/OneDrive/Desktop/GD32VW553/V1_MQTT_OK/GD32VW55X_Wifi_BLE_SDK/GD32VW55x_RELEASE_V1.0.2/MSDK/plf/GD32VW55x_standard_peripheral/Source\gd32vw55x_cau_des.c ****     3. Neither the name of the copyright holder nor the names of its contributors
  20:C:/Users/stapi/OneDrive/Desktop/GD32VW553/V1_MQTT_OK/GD32VW55X_Wifi_BLE_SDK/GD32VW55x_RELEASE_V1.0.2/MSDK/plf/GD32VW55x_standard_peripheral/Source\gd32vw55x_cau_des.c ****        may be used to endorse or promote products derived from this software without
  21:C:/Users/stapi/OneDrive/Desktop/GD32VW553/V1_MQTT_OK/GD32VW55X_Wifi_BLE_SDK/GD32VW55x_RELEASE_V1.0.2/MSDK/plf/GD32VW55x_standard_peripheral/Source\gd32vw55x_cau_des.c ****        specific prior written permission.
  22:C:/Users/stapi/OneDrive/Desktop/GD32VW553/V1_MQTT_OK/GD32VW55X_Wifi_BLE_SDK/GD32VW55x_RELEASE_V1.0.2/MSDK/plf/GD32VW55x_standard_peripheral/Source\gd32vw55x_cau_des.c **** 
  23:C:/Users/stapi/OneDrive/Desktop/GD32VW553/V1_MQTT_OK/GD32VW55X_Wifi_BLE_SDK/GD32VW55x_RELEASE_V1.0.2/MSDK/plf/GD32VW55x_standard_peripheral/Source\gd32vw55x_cau_des.c ****     THIS SOFTWARE IS PROVIDED BY THE COPYRIGHT HOLDERS AND CONTRIBUTORS "AS IS"
  24:C:/Users/stapi/OneDrive/Desktop/GD32VW553/V1_MQTT_OK/GD32VW55X_Wifi_BLE_SDK/GD32VW55x_RELEASE_V1.0.2/MSDK/plf/GD32VW55x_standard_peripheral/Source\gd32vw55x_cau_des.c **** AND ANY EXPRESS OR IMPLIED WARRANTIES, INCLUDING, BUT NOT LIMITED TO, THE IMPLIED
  25:C:/Users/stapi/OneDrive/Desktop/GD32VW553/V1_MQTT_OK/GD32VW55X_Wifi_BLE_SDK/GD32VW55x_RELEASE_V1.0.2/MSDK/plf/GD32VW55x_standard_peripheral/Source\gd32vw55x_cau_des.c **** WARRANTIES OF MERCHANTABILITY AND FITNESS FOR A PARTICULAR PURPOSE ARE DISCLAIMED.
  26:C:/Users/stapi/OneDrive/Desktop/GD32VW553/V1_MQTT_OK/GD32VW55X_Wifi_BLE_SDK/GD32VW55x_RELEASE_V1.0.2/MSDK/plf/GD32VW55x_standard_peripheral/Source\gd32vw55x_cau_des.c **** IN NO EVENT SHALL THE COPYRIGHT HOLDER OR CONTRIBUTORS BE LIABLE FOR ANY DIRECT,
  27:C:/Users/stapi/OneDrive/Desktop/GD32VW553/V1_MQTT_OK/GD32VW55X_Wifi_BLE_SDK/GD32VW55x_RELEASE_V1.0.2/MSDK/plf/GD32VW55x_standard_peripheral/Source\gd32vw55x_cau_des.c **** INDIRECT, INCIDENTAL, SPECIAL, EXEMPLARY, OR CONSEQUENTIAL DAMAGES (INCLUDING, BUT
  28:C:/Users/stapi/OneDrive/Desktop/GD32VW553/V1_MQTT_OK/GD32VW55X_Wifi_BLE_SDK/GD32VW55x_RELEASE_V1.0.2/MSDK/plf/GD32VW55x_standard_peripheral/Source\gd32vw55x_cau_des.c **** NOT LIMITED TO, PROCUREMENT OF SUBSTITUTE GOODS OR SERVICES; LOSS OF USE, DATA, OR
  29:C:/Users/stapi/OneDrive/Desktop/GD32VW553/V1_MQTT_OK/GD32VW55X_Wifi_BLE_SDK/GD32VW55x_RELEASE_V1.0.2/MSDK/plf/GD32VW55x_standard_peripheral/Source\gd32vw55x_cau_des.c **** PROFITS; OR BUSINESS INTERRUPTION) HOWEVER CAUSED AND ON ANY THEORY OF LIABILITY,
  30:C:/Users/stapi/OneDrive/Desktop/GD32VW553/V1_MQTT_OK/GD32VW55X_Wifi_BLE_SDK/GD32VW55x_RELEASE_V1.0.2/MSDK/plf/GD32VW55x_standard_peripheral/Source\gd32vw55x_cau_des.c **** WHETHER IN CONTRACT, STRICT LIABILITY, OR TORT (INCLUDING NEGLIGENCE OR OTHERWISE)
  31:C:/Users/stapi/OneDrive/Desktop/GD32VW553/V1_MQTT_OK/GD32VW55X_Wifi_BLE_SDK/GD32VW55x_RELEASE_V1.0.2/MSDK/plf/GD32VW55x_standard_peripheral/Source\gd32vw55x_cau_des.c **** ARISING IN ANY WAY OUT OF THE USE OF THIS SOFTWARE, EVEN IF ADVISED OF THE POSSIBILITY
  32:C:/Users/stapi/OneDrive/Desktop/GD32VW553/V1_MQTT_OK/GD32VW55X_Wifi_BLE_SDK/GD32VW55x_RELEASE_V1.0.2/MSDK/plf/GD32VW55x_standard_peripheral/Source\gd32vw55x_cau_des.c **** OF SUCH DAMAGE.
  33:C:/Users/stapi/OneDrive/Desktop/GD32VW553/V1_MQTT_OK/GD32VW55X_Wifi_BLE_SDK/GD32VW55x_RELEASE_V1.0.2/MSDK/plf/GD32VW55x_standard_peripheral/Source\gd32vw55x_cau_des.c **** */
  34:C:/Users/stapi/OneDrive/Desktop/GD32VW553/V1_MQTT_OK/GD32VW55X_Wifi_BLE_SDK/GD32VW55x_RELEASE_V1.0.2/MSDK/plf/GD32VW55x_standard_peripheral/Source\gd32vw55x_cau_des.c **** 
  35:C:/Users/stapi/OneDrive/Desktop/GD32VW553/V1_MQTT_OK/GD32VW55X_Wifi_BLE_SDK/GD32VW55x_RELEASE_V1.0.2/MSDK/plf/GD32VW55x_standard_peripheral/Source\gd32vw55x_cau_des.c **** #include "gd32vw55x_cau.h"
  36:C:/Users/stapi/OneDrive/Desktop/GD32VW553/V1_MQTT_OK/GD32VW55X_Wifi_BLE_SDK/GD32VW55x_RELEASE_V1.0.2/MSDK/plf/GD32VW55x_standard_peripheral/Source\gd32vw55x_cau_des.c **** 
  37:C:/Users/stapi/OneDrive/Desktop/GD32VW553/V1_MQTT_OK/GD32VW55X_Wifi_BLE_SDK/GD32VW55x_RELEASE_V1.0.2/MSDK/plf/GD32VW55x_standard_peripheral/Source\gd32vw55x_cau_des.c **** #define DESBUSY_TIMEOUT    ((uint32_t)0x00010000U)
  38:C:/Users/stapi/OneDrive/Desktop/GD32VW553/V1_MQTT_OK/GD32VW55X_Wifi_BLE_SDK/GD32VW55x_RELEASE_V1.0.2/MSDK/plf/GD32VW55x_standard_peripheral/Source\gd32vw55x_cau_des.c **** 
  39:C:/Users/stapi/OneDrive/Desktop/GD32VW553/V1_MQTT_OK/GD32VW55X_Wifi_BLE_SDK/GD32VW55x_RELEASE_V1.0.2/MSDK/plf/GD32VW55x_standard_peripheral/Source\gd32vw55x_cau_des.c **** /* DES calculate process */
  40:C:/Users/stapi/OneDrive/Desktop/GD32VW553/V1_MQTT_OK/GD32VW55X_Wifi_BLE_SDK/GD32VW55x_RELEASE_V1.0.2/MSDK/plf/GD32VW55x_standard_peripheral/Source\gd32vw55x_cau_des.c **** static ErrStatus cau_des_calculate(uint8_t *input, uint32_t in_length, uint8_t *output);
  41:C:/Users/stapi/OneDrive/Desktop/GD32VW553/V1_MQTT_OK/GD32VW55X_Wifi_BLE_SDK/GD32VW55x_RELEASE_V1.0.2/MSDK/plf/GD32VW55x_standard_peripheral/Source\gd32vw55x_cau_des.c **** 
  42:C:/Users/stapi/OneDrive/Desktop/GD32VW553/V1_MQTT_OK/GD32VW55X_Wifi_BLE_SDK/GD32VW55x_RELEASE_V1.0.2/MSDK/plf/GD32VW55x_standard_peripheral/Source\gd32vw55x_cau_des.c **** /*!
  43:C:/Users/stapi/OneDrive/Desktop/GD32VW553/V1_MQTT_OK/GD32VW55X_Wifi_BLE_SDK/GD32VW55x_RELEASE_V1.0.2/MSDK/plf/GD32VW55x_standard_peripheral/Source\gd32vw55x_cau_des.c ****     \brief      encrypt and decrypt using DES in ECB mode
  44:C:/Users/stapi/OneDrive/Desktop/GD32VW553/V1_MQTT_OK/GD32VW55X_Wifi_BLE_SDK/GD32VW55x_RELEASE_V1.0.2/MSDK/plf/GD32VW55x_standard_peripheral/Source\gd32vw55x_cau_des.c ****     \param[in]  cau_parameter: pointer to the input structure
  45:C:/Users/stapi/OneDrive/Desktop/GD32VW553/V1_MQTT_OK/GD32VW55X_Wifi_BLE_SDK/GD32VW55x_RELEASE_V1.0.2/MSDK/plf/GD32VW55x_standard_peripheral/Source\gd32vw55x_cau_des.c ****                   alg_dir: algorithm direction
  46:C:/Users/stapi/OneDrive/Desktop/GD32VW553/V1_MQTT_OK/GD32VW55X_Wifi_BLE_SDK/GD32VW55x_RELEASE_V1.0.2/MSDK/plf/GD32VW55x_standard_peripheral/Source\gd32vw55x_cau_des.c ****                     CAU_ENCRYPT, CAU_DECRYPT
  47:C:/Users/stapi/OneDrive/Desktop/GD32VW553/V1_MQTT_OK/GD32VW55X_Wifi_BLE_SDK/GD32VW55x_RELEASE_V1.0.2/MSDK/plf/GD32VW55x_standard_peripheral/Source\gd32vw55x_cau_des.c ****                   key: key, 8 bytes
  48:C:/Users/stapi/OneDrive/Desktop/GD32VW553/V1_MQTT_OK/GD32VW55X_Wifi_BLE_SDK/GD32VW55x_RELEASE_V1.0.2/MSDK/plf/GD32VW55x_standard_peripheral/Source\gd32vw55x_cau_des.c ****                   input: input data
  49:C:/Users/stapi/OneDrive/Desktop/GD32VW553/V1_MQTT_OK/GD32VW55X_Wifi_BLE_SDK/GD32VW55x_RELEASE_V1.0.2/MSDK/plf/GD32VW55x_standard_peripheral/Source\gd32vw55x_cau_des.c ****                   in_length: input data length in bytes, must be a multiple of 8 bytes
  50:C:/Users/stapi/OneDrive/Desktop/GD32VW553/V1_MQTT_OK/GD32VW55X_Wifi_BLE_SDK/GD32VW55x_RELEASE_V1.0.2/MSDK/plf/GD32VW55x_standard_peripheral/Source\gd32vw55x_cau_des.c ****     \param[out] output: pointer to the output buffer
  51:C:/Users/stapi/OneDrive/Desktop/GD32VW553/V1_MQTT_OK/GD32VW55X_Wifi_BLE_SDK/GD32VW55x_RELEASE_V1.0.2/MSDK/plf/GD32VW55x_standard_peripheral/Source\gd32vw55x_cau_des.c ****     \retval     ErrStatus: SUCCESS or ERROR
  52:C:/Users/stapi/OneDrive/Desktop/GD32VW553/V1_MQTT_OK/GD32VW55X_Wifi_BLE_SDK/GD32VW55x_RELEASE_V1.0.2/MSDK/plf/GD32VW55x_standard_peripheral/Source\gd32vw55x_cau_des.c **** */
  53:C:/Users/stapi/OneDrive/Desktop/GD32VW553/V1_MQTT_OK/GD32VW55X_Wifi_BLE_SDK/GD32VW55x_RELEASE_V1.0.2/MSDK/plf/GD32VW55x_standard_peripheral/Source\gd32vw55x_cau_des.c **** ErrStatus cau_des_ecb(cau_parameter_struct *cau_parameter, uint8_t *output)
  54:C:/Users/stapi/OneDrive/Desktop/GD32VW553/V1_MQTT_OK/GD32VW55X_Wifi_BLE_SDK/GD32VW55x_RELEASE_V1.0.2/MSDK/plf/GD32VW55x_standard_peripheral/Source\gd32vw55x_cau_des.c **** {
  55:C:/Users/stapi/OneDrive/Desktop/GD32VW553/V1_MQTT_OK/GD32VW55X_Wifi_BLE_SDK/GD32VW55x_RELEASE_V1.0.2/MSDK/plf/GD32VW55x_standard_peripheral/Source\gd32vw55x_cau_des.c ****     ErrStatus ret = ERROR;
  56:C:/Users/stapi/OneDrive/Desktop/GD32VW553/V1_MQTT_OK/GD32VW55X_Wifi_BLE_SDK/GD32VW55x_RELEASE_V1.0.2/MSDK/plf/GD32VW55x_standard_peripheral/Source\gd32vw55x_cau_des.c ****     cau_key_parameter_struct key_initpara;
  57:C:/Users/stapi/OneDrive/Desktop/GD32VW553/V1_MQTT_OK/GD32VW55X_Wifi_BLE_SDK/GD32VW55x_RELEASE_V1.0.2/MSDK/plf/GD32VW55x_standard_peripheral/Source\gd32vw55x_cau_des.c ****     uint32_t keyaddr    = (uint32_t)(cau_parameter->key);
  58:C:/Users/stapi/OneDrive/Desktop/GD32VW553/V1_MQTT_OK/GD32VW55X_Wifi_BLE_SDK/GD32VW55x_RELEASE_V1.0.2/MSDK/plf/GD32VW55x_standard_peripheral/Source\gd32vw55x_cau_des.c ****     uint32_t inputaddr  = (uint32_t)(cau_parameter->input);
  59:C:/Users/stapi/OneDrive/Desktop/GD32VW553/V1_MQTT_OK/GD32VW55X_Wifi_BLE_SDK/GD32VW55x_RELEASE_V1.0.2/MSDK/plf/GD32VW55x_standard_peripheral/Source\gd32vw55x_cau_des.c ****     uint32_t outputaddr = (uint32_t)output;
  60:C:/Users/stapi/OneDrive/Desktop/GD32VW553/V1_MQTT_OK/GD32VW55X_Wifi_BLE_SDK/GD32VW55x_RELEASE_V1.0.2/MSDK/plf/GD32VW55x_standard_peripheral/Source\gd32vw55x_cau_des.c **** 
  61:C:/Users/stapi/OneDrive/Desktop/GD32VW553/V1_MQTT_OK/GD32VW55X_Wifi_BLE_SDK/GD32VW55x_RELEASE_V1.0.2/MSDK/plf/GD32VW55x_standard_peripheral/Source\gd32vw55x_cau_des.c ****     /* key structure initialization */
  62:C:/Users/stapi/OneDrive/Desktop/GD32VW553/V1_MQTT_OK/GD32VW55X_Wifi_BLE_SDK/GD32VW55x_RELEASE_V1.0.2/MSDK/plf/GD32VW55x_standard_peripheral/Source\gd32vw55x_cau_des.c ****     cau_key_struct_para_init(&key_initpara);
  63:C:/Users/stapi/OneDrive/Desktop/GD32VW553/V1_MQTT_OK/GD32VW55X_Wifi_BLE_SDK/GD32VW55x_RELEASE_V1.0.2/MSDK/plf/GD32VW55x_standard_peripheral/Source\gd32vw55x_cau_des.c ****     /* initialize the CAU peripheral */
  64:C:/Users/stapi/OneDrive/Desktop/GD32VW553/V1_MQTT_OK/GD32VW55X_Wifi_BLE_SDK/GD32VW55x_RELEASE_V1.0.2/MSDK/plf/GD32VW55x_standard_peripheral/Source\gd32vw55x_cau_des.c ****     cau_init(cau_parameter->alg_dir, CAU_MODE_DES_ECB, CAU_SWAPPING_8BIT);
  65:C:/Users/stapi/OneDrive/Desktop/GD32VW553/V1_MQTT_OK/GD32VW55X_Wifi_BLE_SDK/GD32VW55x_RELEASE_V1.0.2/MSDK/plf/GD32VW55x_standard_peripheral/Source\gd32vw55x_cau_des.c **** 
  66:C:/Users/stapi/OneDrive/Desktop/GD32VW553/V1_MQTT_OK/GD32VW55X_Wifi_BLE_SDK/GD32VW55x_RELEASE_V1.0.2/MSDK/plf/GD32VW55x_standard_peripheral/Source\gd32vw55x_cau_des.c ****     /* key initialisation */
  67:C:/Users/stapi/OneDrive/Desktop/GD32VW553/V1_MQTT_OK/GD32VW55X_Wifi_BLE_SDK/GD32VW55x_RELEASE_V1.0.2/MSDK/plf/GD32VW55x_standard_peripheral/Source\gd32vw55x_cau_des.c ****     key_initpara.key_1_high = __REV(*(uint32_t *)(keyaddr));
  68:C:/Users/stapi/OneDrive/Desktop/GD32VW553/V1_MQTT_OK/GD32VW55X_Wifi_BLE_SDK/GD32VW55x_RELEASE_V1.0.2/MSDK/plf/GD32VW55x_standard_peripheral/Source\gd32vw55x_cau_des.c ****     keyaddr += 4U;
  69:C:/Users/stapi/OneDrive/Desktop/GD32VW553/V1_MQTT_OK/GD32VW55X_Wifi_BLE_SDK/GD32VW55x_RELEASE_V1.0.2/MSDK/plf/GD32VW55x_standard_peripheral/Source\gd32vw55x_cau_des.c ****     key_initpara.key_1_low = __REV(*(uint32_t *)(keyaddr));
  70:C:/Users/stapi/OneDrive/Desktop/GD32VW553/V1_MQTT_OK/GD32VW55X_Wifi_BLE_SDK/GD32VW55x_RELEASE_V1.0.2/MSDK/plf/GD32VW55x_standard_peripheral/Source\gd32vw55x_cau_des.c ****     cau_key_init(&key_initpara);
  71:C:/Users/stapi/OneDrive/Desktop/GD32VW553/V1_MQTT_OK/GD32VW55X_Wifi_BLE_SDK/GD32VW55x_RELEASE_V1.0.2/MSDK/plf/GD32VW55x_standard_peripheral/Source\gd32vw55x_cau_des.c **** 
  72:C:/Users/stapi/OneDrive/Desktop/GD32VW553/V1_MQTT_OK/GD32VW55X_Wifi_BLE_SDK/GD32VW55x_RELEASE_V1.0.2/MSDK/plf/GD32VW55x_standard_peripheral/Source\gd32vw55x_cau_des.c ****     /* flush the IN and OUT FIFOs */
  73:C:/Users/stapi/OneDrive/Desktop/GD32VW553/V1_MQTT_OK/GD32VW55X_Wifi_BLE_SDK/GD32VW55x_RELEASE_V1.0.2/MSDK/plf/GD32VW55x_standard_peripheral/Source\gd32vw55x_cau_des.c ****     cau_fifo_flush();
  74:C:/Users/stapi/OneDrive/Desktop/GD32VW553/V1_MQTT_OK/GD32VW55X_Wifi_BLE_SDK/GD32VW55x_RELEASE_V1.0.2/MSDK/plf/GD32VW55x_standard_peripheral/Source\gd32vw55x_cau_des.c ****     /* enable the CAU peripheral */
  75:C:/Users/stapi/OneDrive/Desktop/GD32VW553/V1_MQTT_OK/GD32VW55X_Wifi_BLE_SDK/GD32VW55x_RELEASE_V1.0.2/MSDK/plf/GD32VW55x_standard_peripheral/Source\gd32vw55x_cau_des.c ****     cau_enable();
  76:C:/Users/stapi/OneDrive/Desktop/GD32VW553/V1_MQTT_OK/GD32VW55X_Wifi_BLE_SDK/GD32VW55x_RELEASE_V1.0.2/MSDK/plf/GD32VW55x_standard_peripheral/Source\gd32vw55x_cau_des.c ****     /* DES calculate process */
  77:C:/Users/stapi/OneDrive/Desktop/GD32VW553/V1_MQTT_OK/GD32VW55X_Wifi_BLE_SDK/GD32VW55x_RELEASE_V1.0.2/MSDK/plf/GD32VW55x_standard_peripheral/Source\gd32vw55x_cau_des.c ****     ret = cau_des_calculate((uint8_t *)inputaddr, cau_parameter->in_length, (uint8_t *)outputaddr);
  78:C:/Users/stapi/OneDrive/Desktop/GD32VW553/V1_MQTT_OK/GD32VW55X_Wifi_BLE_SDK/GD32VW55x_RELEASE_V1.0.2/MSDK/plf/GD32VW55x_standard_peripheral/Source\gd32vw55x_cau_des.c ****     /* disable the CAU peripheral */
  79:C:/Users/stapi/OneDrive/Desktop/GD32VW553/V1_MQTT_OK/GD32VW55X_Wifi_BLE_SDK/GD32VW55x_RELEASE_V1.0.2/MSDK/plf/GD32VW55x_standard_peripheral/Source\gd32vw55x_cau_des.c ****     cau_disable();
  80:C:/Users/stapi/OneDrive/Desktop/GD32VW553/V1_MQTT_OK/GD32VW55X_Wifi_BLE_SDK/GD32VW55x_RELEASE_V1.0.2/MSDK/plf/GD32VW55x_standard_peripheral/Source\gd32vw55x_cau_des.c **** 
  81:C:/Users/stapi/OneDrive/Desktop/GD32VW553/V1_MQTT_OK/GD32VW55X_Wifi_BLE_SDK/GD32VW55x_RELEASE_V1.0.2/MSDK/plf/GD32VW55x_standard_peripheral/Source\gd32vw55x_cau_des.c ****     return ret;
  82:C:/Users/stapi/OneDrive/Desktop/GD32VW553/V1_MQTT_OK/GD32VW55X_Wifi_BLE_SDK/GD32VW55x_RELEASE_V1.0.2/MSDK/plf/GD32VW55x_standard_peripheral/Source\gd32vw55x_cau_des.c **** }
  83:C:/Users/stapi/OneDrive/Desktop/GD32VW553/V1_MQTT_OK/GD32VW55X_Wifi_BLE_SDK/GD32VW55x_RELEASE_V1.0.2/MSDK/plf/GD32VW55x_standard_peripheral/Source\gd32vw55x_cau_des.c **** 
  84:C:/Users/stapi/OneDrive/Desktop/GD32VW553/V1_MQTT_OK/GD32VW55X_Wifi_BLE_SDK/GD32VW55x_RELEASE_V1.0.2/MSDK/plf/GD32VW55x_standard_peripheral/Source\gd32vw55x_cau_des.c **** /*!
  85:C:/Users/stapi/OneDrive/Desktop/GD32VW553/V1_MQTT_OK/GD32VW55X_Wifi_BLE_SDK/GD32VW55x_RELEASE_V1.0.2/MSDK/plf/GD32VW55x_standard_peripheral/Source\gd32vw55x_cau_des.c ****     \brief      encrypt and decrypt using DES in CBC mode
  86:C:/Users/stapi/OneDrive/Desktop/GD32VW553/V1_MQTT_OK/GD32VW55X_Wifi_BLE_SDK/GD32VW55x_RELEASE_V1.0.2/MSDK/plf/GD32VW55x_standard_peripheral/Source\gd32vw55x_cau_des.c ****     \param[in]  cau_parameter: pointer to the input structure
  87:C:/Users/stapi/OneDrive/Desktop/GD32VW553/V1_MQTT_OK/GD32VW55X_Wifi_BLE_SDK/GD32VW55x_RELEASE_V1.0.2/MSDK/plf/GD32VW55x_standard_peripheral/Source\gd32vw55x_cau_des.c ****                   alg_dir: algorithm direction
  88:C:/Users/stapi/OneDrive/Desktop/GD32VW553/V1_MQTT_OK/GD32VW55X_Wifi_BLE_SDK/GD32VW55x_RELEASE_V1.0.2/MSDK/plf/GD32VW55x_standard_peripheral/Source\gd32vw55x_cau_des.c ****                     CAU_ENCRYPT, CAU_DECRYPT
  89:C:/Users/stapi/OneDrive/Desktop/GD32VW553/V1_MQTT_OK/GD32VW55X_Wifi_BLE_SDK/GD32VW55x_RELEASE_V1.0.2/MSDK/plf/GD32VW55x_standard_peripheral/Source\gd32vw55x_cau_des.c ****                   key: key, 8 bytes
  90:C:/Users/stapi/OneDrive/Desktop/GD32VW553/V1_MQTT_OK/GD32VW55X_Wifi_BLE_SDK/GD32VW55x_RELEASE_V1.0.2/MSDK/plf/GD32VW55x_standard_peripheral/Source\gd32vw55x_cau_des.c ****                   iv: initialization vector, 8 bytes
  91:C:/Users/stapi/OneDrive/Desktop/GD32VW553/V1_MQTT_OK/GD32VW55X_Wifi_BLE_SDK/GD32VW55x_RELEASE_V1.0.2/MSDK/plf/GD32VW55x_standard_peripheral/Source\gd32vw55x_cau_des.c ****                   input: input data
  92:C:/Users/stapi/OneDrive/Desktop/GD32VW553/V1_MQTT_OK/GD32VW55X_Wifi_BLE_SDK/GD32VW55x_RELEASE_V1.0.2/MSDK/plf/GD32VW55x_standard_peripheral/Source\gd32vw55x_cau_des.c ****                   in_length: input data length in bytes, must be a multiple of 8 bytes
  93:C:/Users/stapi/OneDrive/Desktop/GD32VW553/V1_MQTT_OK/GD32VW55X_Wifi_BLE_SDK/GD32VW55x_RELEASE_V1.0.2/MSDK/plf/GD32VW55x_standard_peripheral/Source\gd32vw55x_cau_des.c ****     \param[out] output: pointer to the output structure
  94:C:/Users/stapi/OneDrive/Desktop/GD32VW553/V1_MQTT_OK/GD32VW55X_Wifi_BLE_SDK/GD32VW55x_RELEASE_V1.0.2/MSDK/plf/GD32VW55x_standard_peripheral/Source\gd32vw55x_cau_des.c ****     \retval     ErrStatus: SUCCESS or ERROR
  95:C:/Users/stapi/OneDrive/Desktop/GD32VW553/V1_MQTT_OK/GD32VW55X_Wifi_BLE_SDK/GD32VW55x_RELEASE_V1.0.2/MSDK/plf/GD32VW55x_standard_peripheral/Source\gd32vw55x_cau_des.c **** */
  96:C:/Users/stapi/OneDrive/Desktop/GD32VW553/V1_MQTT_OK/GD32VW55X_Wifi_BLE_SDK/GD32VW55x_RELEASE_V1.0.2/MSDK/plf/GD32VW55x_standard_peripheral/Source\gd32vw55x_cau_des.c **** ErrStatus cau_des_cbc(cau_parameter_struct *cau_parameter, uint8_t *output)
  97:C:/Users/stapi/OneDrive/Desktop/GD32VW553/V1_MQTT_OK/GD32VW55X_Wifi_BLE_SDK/GD32VW55x_RELEASE_V1.0.2/MSDK/plf/GD32VW55x_standard_peripheral/Source\gd32vw55x_cau_des.c **** {
  98:C:/Users/stapi/OneDrive/Desktop/GD32VW553/V1_MQTT_OK/GD32VW55X_Wifi_BLE_SDK/GD32VW55x_RELEASE_V1.0.2/MSDK/plf/GD32VW55x_standard_peripheral/Source\gd32vw55x_cau_des.c ****     ErrStatus ret = ERROR;
  99:C:/Users/stapi/OneDrive/Desktop/GD32VW553/V1_MQTT_OK/GD32VW55X_Wifi_BLE_SDK/GD32VW55x_RELEASE_V1.0.2/MSDK/plf/GD32VW55x_standard_peripheral/Source\gd32vw55x_cau_des.c ****     cau_key_parameter_struct key_initpara;
 100:C:/Users/stapi/OneDrive/Desktop/GD32VW553/V1_MQTT_OK/GD32VW55X_Wifi_BLE_SDK/GD32VW55x_RELEASE_V1.0.2/MSDK/plf/GD32VW55x_standard_peripheral/Source\gd32vw55x_cau_des.c ****     cau_iv_parameter_struct iv_initpara;
 101:C:/Users/stapi/OneDrive/Desktop/GD32VW553/V1_MQTT_OK/GD32VW55X_Wifi_BLE_SDK/GD32VW55x_RELEASE_V1.0.2/MSDK/plf/GD32VW55x_standard_peripheral/Source\gd32vw55x_cau_des.c ****     uint32_t keyaddr    = (uint32_t)(cau_parameter->key);
 102:C:/Users/stapi/OneDrive/Desktop/GD32VW553/V1_MQTT_OK/GD32VW55X_Wifi_BLE_SDK/GD32VW55x_RELEASE_V1.0.2/MSDK/plf/GD32VW55x_standard_peripheral/Source\gd32vw55x_cau_des.c ****     uint32_t inputaddr  = (uint32_t)(cau_parameter->input);
 103:C:/Users/stapi/OneDrive/Desktop/GD32VW553/V1_MQTT_OK/GD32VW55X_Wifi_BLE_SDK/GD32VW55x_RELEASE_V1.0.2/MSDK/plf/GD32VW55x_standard_peripheral/Source\gd32vw55x_cau_des.c ****     uint32_t outputaddr = (uint32_t)output;
 104:C:/Users/stapi/OneDrive/Desktop/GD32VW553/V1_MQTT_OK/GD32VW55X_Wifi_BLE_SDK/GD32VW55x_RELEASE_V1.0.2/MSDK/plf/GD32VW55x_standard_peripheral/Source\gd32vw55x_cau_des.c ****     uint32_t ivaddr     = (uint32_t)(cau_parameter->iv);
 105:C:/Users/stapi/OneDrive/Desktop/GD32VW553/V1_MQTT_OK/GD32VW55X_Wifi_BLE_SDK/GD32VW55x_RELEASE_V1.0.2/MSDK/plf/GD32VW55x_standard_peripheral/Source\gd32vw55x_cau_des.c **** 
 106:C:/Users/stapi/OneDrive/Desktop/GD32VW553/V1_MQTT_OK/GD32VW55X_Wifi_BLE_SDK/GD32VW55x_RELEASE_V1.0.2/MSDK/plf/GD32VW55x_standard_peripheral/Source\gd32vw55x_cau_des.c ****     /* key structure initialization */
 107:C:/Users/stapi/OneDrive/Desktop/GD32VW553/V1_MQTT_OK/GD32VW55X_Wifi_BLE_SDK/GD32VW55x_RELEASE_V1.0.2/MSDK/plf/GD32VW55x_standard_peripheral/Source\gd32vw55x_cau_des.c ****     cau_key_struct_para_init(&key_initpara);
 108:C:/Users/stapi/OneDrive/Desktop/GD32VW553/V1_MQTT_OK/GD32VW55X_Wifi_BLE_SDK/GD32VW55x_RELEASE_V1.0.2/MSDK/plf/GD32VW55x_standard_peripheral/Source\gd32vw55x_cau_des.c ****     /* initialize the CAU peripheral */
 109:C:/Users/stapi/OneDrive/Desktop/GD32VW553/V1_MQTT_OK/GD32VW55X_Wifi_BLE_SDK/GD32VW55x_RELEASE_V1.0.2/MSDK/plf/GD32VW55x_standard_peripheral/Source\gd32vw55x_cau_des.c ****     cau_init(cau_parameter->alg_dir, CAU_MODE_DES_CBC, CAU_SWAPPING_8BIT);
 110:C:/Users/stapi/OneDrive/Desktop/GD32VW553/V1_MQTT_OK/GD32VW55X_Wifi_BLE_SDK/GD32VW55x_RELEASE_V1.0.2/MSDK/plf/GD32VW55x_standard_peripheral/Source\gd32vw55x_cau_des.c **** 
 111:C:/Users/stapi/OneDrive/Desktop/GD32VW553/V1_MQTT_OK/GD32VW55X_Wifi_BLE_SDK/GD32VW55x_RELEASE_V1.0.2/MSDK/plf/GD32VW55x_standard_peripheral/Source\gd32vw55x_cau_des.c ****     /* key initialisation */
 112:C:/Users/stapi/OneDrive/Desktop/GD32VW553/V1_MQTT_OK/GD32VW55X_Wifi_BLE_SDK/GD32VW55x_RELEASE_V1.0.2/MSDK/plf/GD32VW55x_standard_peripheral/Source\gd32vw55x_cau_des.c ****     key_initpara.key_1_high = __REV(*(uint32_t *)(keyaddr));
 113:C:/Users/stapi/OneDrive/Desktop/GD32VW553/V1_MQTT_OK/GD32VW55X_Wifi_BLE_SDK/GD32VW55x_RELEASE_V1.0.2/MSDK/plf/GD32VW55x_standard_peripheral/Source\gd32vw55x_cau_des.c ****     keyaddr += 4U;
 114:C:/Users/stapi/OneDrive/Desktop/GD32VW553/V1_MQTT_OK/GD32VW55X_Wifi_BLE_SDK/GD32VW55x_RELEASE_V1.0.2/MSDK/plf/GD32VW55x_standard_peripheral/Source\gd32vw55x_cau_des.c ****     key_initpara.key_1_low = __REV(*(uint32_t *)(keyaddr));
 115:C:/Users/stapi/OneDrive/Desktop/GD32VW553/V1_MQTT_OK/GD32VW55X_Wifi_BLE_SDK/GD32VW55x_RELEASE_V1.0.2/MSDK/plf/GD32VW55x_standard_peripheral/Source\gd32vw55x_cau_des.c ****     cau_key_init(&key_initpara);
 116:C:/Users/stapi/OneDrive/Desktop/GD32VW553/V1_MQTT_OK/GD32VW55X_Wifi_BLE_SDK/GD32VW55x_RELEASE_V1.0.2/MSDK/plf/GD32VW55x_standard_peripheral/Source\gd32vw55x_cau_des.c **** 
 117:C:/Users/stapi/OneDrive/Desktop/GD32VW553/V1_MQTT_OK/GD32VW55X_Wifi_BLE_SDK/GD32VW55x_RELEASE_V1.0.2/MSDK/plf/GD32VW55x_standard_peripheral/Source\gd32vw55x_cau_des.c ****     /* vectors initialization */
 118:C:/Users/stapi/OneDrive/Desktop/GD32VW553/V1_MQTT_OK/GD32VW55X_Wifi_BLE_SDK/GD32VW55x_RELEASE_V1.0.2/MSDK/plf/GD32VW55x_standard_peripheral/Source\gd32vw55x_cau_des.c ****     iv_initpara.iv_0_high = __REV(*(uint32_t *)(ivaddr));
 119:C:/Users/stapi/OneDrive/Desktop/GD32VW553/V1_MQTT_OK/GD32VW55X_Wifi_BLE_SDK/GD32VW55x_RELEASE_V1.0.2/MSDK/plf/GD32VW55x_standard_peripheral/Source\gd32vw55x_cau_des.c ****     ivaddr += 4U;
 120:C:/Users/stapi/OneDrive/Desktop/GD32VW553/V1_MQTT_OK/GD32VW55X_Wifi_BLE_SDK/GD32VW55x_RELEASE_V1.0.2/MSDK/plf/GD32VW55x_standard_peripheral/Source\gd32vw55x_cau_des.c ****     iv_initpara.iv_0_low = __REV(*(uint32_t *)(ivaddr));
 121:C:/Users/stapi/OneDrive/Desktop/GD32VW553/V1_MQTT_OK/GD32VW55X_Wifi_BLE_SDK/GD32VW55x_RELEASE_V1.0.2/MSDK/plf/GD32VW55x_standard_peripheral/Source\gd32vw55x_cau_des.c ****     cau_iv_init(&iv_initpara);
 122:C:/Users/stapi/OneDrive/Desktop/GD32VW553/V1_MQTT_OK/GD32VW55X_Wifi_BLE_SDK/GD32VW55x_RELEASE_V1.0.2/MSDK/plf/GD32VW55x_standard_peripheral/Source\gd32vw55x_cau_des.c **** 
 123:C:/Users/stapi/OneDrive/Desktop/GD32VW553/V1_MQTT_OK/GD32VW55X_Wifi_BLE_SDK/GD32VW55x_RELEASE_V1.0.2/MSDK/plf/GD32VW55x_standard_peripheral/Source\gd32vw55x_cau_des.c ****     /* flush the IN and OUT FIFOs */
 124:C:/Users/stapi/OneDrive/Desktop/GD32VW553/V1_MQTT_OK/GD32VW55X_Wifi_BLE_SDK/GD32VW55x_RELEASE_V1.0.2/MSDK/plf/GD32VW55x_standard_peripheral/Source\gd32vw55x_cau_des.c ****     cau_fifo_flush();
 125:C:/Users/stapi/OneDrive/Desktop/GD32VW553/V1_MQTT_OK/GD32VW55X_Wifi_BLE_SDK/GD32VW55x_RELEASE_V1.0.2/MSDK/plf/GD32VW55x_standard_peripheral/Source\gd32vw55x_cau_des.c **** 
 126:C:/Users/stapi/OneDrive/Desktop/GD32VW553/V1_MQTT_OK/GD32VW55X_Wifi_BLE_SDK/GD32VW55x_RELEASE_V1.0.2/MSDK/plf/GD32VW55x_standard_peripheral/Source\gd32vw55x_cau_des.c ****     /* enable the CAU peripheral */
 127:C:/Users/stapi/OneDrive/Desktop/GD32VW553/V1_MQTT_OK/GD32VW55X_Wifi_BLE_SDK/GD32VW55x_RELEASE_V1.0.2/MSDK/plf/GD32VW55x_standard_peripheral/Source\gd32vw55x_cau_des.c ****     cau_enable();
 128:C:/Users/stapi/OneDrive/Desktop/GD32VW553/V1_MQTT_OK/GD32VW55X_Wifi_BLE_SDK/GD32VW55x_RELEASE_V1.0.2/MSDK/plf/GD32VW55x_standard_peripheral/Source\gd32vw55x_cau_des.c ****     /* DES calculate process */
 129:C:/Users/stapi/OneDrive/Desktop/GD32VW553/V1_MQTT_OK/GD32VW55X_Wifi_BLE_SDK/GD32VW55x_RELEASE_V1.0.2/MSDK/plf/GD32VW55x_standard_peripheral/Source\gd32vw55x_cau_des.c ****     ret = cau_des_calculate((uint8_t *)inputaddr, cau_parameter->in_length, (uint8_t *)outputaddr);
 130:C:/Users/stapi/OneDrive/Desktop/GD32VW553/V1_MQTT_OK/GD32VW55X_Wifi_BLE_SDK/GD32VW55x_RELEASE_V1.0.2/MSDK/plf/GD32VW55x_standard_peripheral/Source\gd32vw55x_cau_des.c ****     /* disable the CAU peripheral */
 131:C:/Users/stapi/OneDrive/Desktop/GD32VW553/V1_MQTT_OK/GD32VW55X_Wifi_BLE_SDK/GD32VW55x_RELEASE_V1.0.2/MSDK/plf/GD32VW55x_standard_peripheral/Source\gd32vw55x_cau_des.c ****     cau_disable();
 132:C:/Users/stapi/OneDrive/Desktop/GD32VW553/V1_MQTT_OK/GD32VW55X_Wifi_BLE_SDK/GD32VW55x_RELEASE_V1.0.2/MSDK/plf/GD32VW55x_standard_peripheral/Source\gd32vw55x_cau_des.c **** 
 133:C:/Users/stapi/OneDrive/Desktop/GD32VW553/V1_MQTT_OK/GD32VW55X_Wifi_BLE_SDK/GD32VW55x_RELEASE_V1.0.2/MSDK/plf/GD32VW55x_standard_peripheral/Source\gd32vw55x_cau_des.c ****     return ret;
 134:C:/Users/stapi/OneDrive/Desktop/GD32VW553/V1_MQTT_OK/GD32VW55X_Wifi_BLE_SDK/GD32VW55x_RELEASE_V1.0.2/MSDK/plf/GD32VW55x_standard_peripheral/Source\gd32vw55x_cau_des.c **** }
 135:C:/Users/stapi/OneDrive/Desktop/GD32VW553/V1_MQTT_OK/GD32VW55X_Wifi_BLE_SDK/GD32VW55x_RELEASE_V1.0.2/MSDK/plf/GD32VW55x_standard_peripheral/Source\gd32vw55x_cau_des.c **** 
 136:C:/Users/stapi/OneDrive/Desktop/GD32VW553/V1_MQTT_OK/GD32VW55X_Wifi_BLE_SDK/GD32VW55x_RELEASE_V1.0.2/MSDK/plf/GD32VW55x_standard_peripheral/Source\gd32vw55x_cau_des.c **** /*!
 137:C:/Users/stapi/OneDrive/Desktop/GD32VW553/V1_MQTT_OK/GD32VW55X_Wifi_BLE_SDK/GD32VW55x_RELEASE_V1.0.2/MSDK/plf/GD32VW55x_standard_peripheral/Source\gd32vw55x_cau_des.c ****     \brief      DES calculate process
 138:C:/Users/stapi/OneDrive/Desktop/GD32VW553/V1_MQTT_OK/GD32VW55X_Wifi_BLE_SDK/GD32VW55x_RELEASE_V1.0.2/MSDK/plf/GD32VW55x_standard_peripheral/Source\gd32vw55x_cau_des.c ****     \param[in]  input: pointer to the input buffer
 139:C:/Users/stapi/OneDrive/Desktop/GD32VW553/V1_MQTT_OK/GD32VW55X_Wifi_BLE_SDK/GD32VW55x_RELEASE_V1.0.2/MSDK/plf/GD32VW55x_standard_peripheral/Source\gd32vw55x_cau_des.c ****     \param[in]  in_length: length of the input buffer in bytes, must be a multiple of 8 bytes
 140:C:/Users/stapi/OneDrive/Desktop/GD32VW553/V1_MQTT_OK/GD32VW55X_Wifi_BLE_SDK/GD32VW55x_RELEASE_V1.0.2/MSDK/plf/GD32VW55x_standard_peripheral/Source\gd32vw55x_cau_des.c ****     \param[in]  output: pointer to the returned buffer
 141:C:/Users/stapi/OneDrive/Desktop/GD32VW553/V1_MQTT_OK/GD32VW55X_Wifi_BLE_SDK/GD32VW55x_RELEASE_V1.0.2/MSDK/plf/GD32VW55x_standard_peripheral/Source\gd32vw55x_cau_des.c ****     \param[out] none
 142:C:/Users/stapi/OneDrive/Desktop/GD32VW553/V1_MQTT_OK/GD32VW55X_Wifi_BLE_SDK/GD32VW55x_RELEASE_V1.0.2/MSDK/plf/GD32VW55x_standard_peripheral/Source\gd32vw55x_cau_des.c ****     \retval     ErrStatus: SUCCESS or ERROR
 143:C:/Users/stapi/OneDrive/Desktop/GD32VW553/V1_MQTT_OK/GD32VW55X_Wifi_BLE_SDK/GD32VW55x_RELEASE_V1.0.2/MSDK/plf/GD32VW55x_standard_peripheral/Source\gd32vw55x_cau_des.c **** */
 144:C:/Users/stapi/OneDrive/Desktop/GD32VW553/V1_MQTT_OK/GD32VW55X_Wifi_BLE_SDK/GD32VW55x_RELEASE_V1.0.2/MSDK/plf/GD32VW55x_standard_peripheral/Source\gd32vw55x_cau_des.c **** static ErrStatus cau_des_calculate(uint8_t *input, uint32_t in_length, uint8_t *output)
 145:C:/Users/stapi/OneDrive/Desktop/GD32VW553/V1_MQTT_OK/GD32VW55X_Wifi_BLE_SDK/GD32VW55x_RELEASE_V1.0.2/MSDK/plf/GD32VW55x_standard_peripheral/Source\gd32vw55x_cau_des.c **** {
  15              		.loc 1 145 1
  16              		.cfi_startproc
  17              	.LVL0:
  18 0000 17030000 		call	t0,__riscv_save_5
  18      E7020300 
  19              		.cfi_offset 20, -24
  20              		.cfi_offset 19, -20
  21              		.cfi_offset 18, -16
  22              		.cfi_offset 9, -12
  23              		.cfi_offset 8, -8
  24              		.cfi_offset 1, -4
  25              		.cfi_def_cfa_offset 32
  26 0008 4111     		addi	sp,sp,-16
  27              		.cfi_def_cfa_offset 48
  28              		.loc 1 145 1 is_stmt 0
  29 000a 2A89     		mv	s2,a0
  30 000c AE89     		mv	s3,a1
 146:C:/Users/stapi/OneDrive/Desktop/GD32VW553/V1_MQTT_OK/GD32VW55X_Wifi_BLE_SDK/GD32VW55x_RELEASE_V1.0.2/MSDK/plf/GD32VW55x_standard_peripheral/Source\gd32vw55x_cau_des.c ****     uint32_t inputaddr  = (uint32_t)input;
  31              		.loc 1 146 5 is_stmt 1
  32              	.LVL1:
 147:C:/Users/stapi/OneDrive/Desktop/GD32VW553/V1_MQTT_OK/GD32VW55X_Wifi_BLE_SDK/GD32VW55x_RELEASE_V1.0.2/MSDK/plf/GD32VW55x_standard_peripheral/Source\gd32vw55x_cau_des.c ****     uint32_t outputaddr = (uint32_t)output;
  33              		.loc 1 147 5
 148:C:/Users/stapi/OneDrive/Desktop/GD32VW553/V1_MQTT_OK/GD32VW55X_Wifi_BLE_SDK/GD32VW55x_RELEASE_V1.0.2/MSDK/plf/GD32VW55x_standard_peripheral/Source\gd32vw55x_cau_des.c ****     uint32_t i = 0U;
  34              		.loc 1 148 5
 149:C:/Users/stapi/OneDrive/Desktop/GD32VW553/V1_MQTT_OK/GD32VW55X_Wifi_BLE_SDK/GD32VW55x_RELEASE_V1.0.2/MSDK/plf/GD32VW55x_standard_peripheral/Source\gd32vw55x_cau_des.c ****     __IO uint32_t counter = 0U;
  35              		.loc 1 149 5
 145:C:/Users/stapi/OneDrive/Desktop/GD32VW553/V1_MQTT_OK/GD32VW55X_Wifi_BLE_SDK/GD32VW55x_RELEASE_V1.0.2/MSDK/plf/GD32VW55x_standard_peripheral/Source\gd32vw55x_cau_des.c ****     uint32_t inputaddr  = (uint32_t)input;
  36              		.loc 1 145 1 is_stmt 0
  37 000e 3284     		mv	s0,a2
  38              		.loc 1 149 19
  39 0010 02C6     		sw	zero,12(sp)
 150:C:/Users/stapi/OneDrive/Desktop/GD32VW553/V1_MQTT_OK/GD32VW55X_Wifi_BLE_SDK/GD32VW55x_RELEASE_V1.0.2/MSDK/plf/GD32VW55x_standard_peripheral/Source\gd32vw55x_cau_des.c ****     uint32_t busystatus = 0U;
  40              		.loc 1 150 5 is_stmt 1
  41              	.LVL2:
 151:C:/Users/stapi/OneDrive/Desktop/GD32VW553/V1_MQTT_OK/GD32VW55X_Wifi_BLE_SDK/GD32VW55x_RELEASE_V1.0.2/MSDK/plf/GD32VW55x_standard_peripheral/Source\gd32vw55x_cau_des.c **** 
 152:C:/Users/stapi/OneDrive/Desktop/GD32VW553/V1_MQTT_OK/GD32VW55X_Wifi_BLE_SDK/GD32VW55x_RELEASE_V1.0.2/MSDK/plf/GD32VW55x_standard_peripheral/Source\gd32vw55x_cau_des.c ****     /* the clock is not enabled or there is no embeded CAU peripheral */
 153:C:/Users/stapi/OneDrive/Desktop/GD32VW553/V1_MQTT_OK/GD32VW55X_Wifi_BLE_SDK/GD32VW55x_RELEASE_V1.0.2/MSDK/plf/GD32VW55x_standard_peripheral/Source\gd32vw55x_cau_des.c ****     if(DISABLE == cau_enable_state_get()) {
  42              		.loc 1 153 5
  43              		.loc 1 153 19 is_stmt 0
  44 0012 97000000 		call	cau_enable_state_get
  44      E7800000 
  45              	.LVL3:
  46              		.loc 1 153 7
  47 001a 19E5     		bne	a0,zero,.L2
  48              	.LVL4:
  49              	.L8:
 154:C:/Users/stapi/OneDrive/Desktop/GD32VW553/V1_MQTT_OK/GD32VW55X_Wifi_BLE_SDK/GD32VW55x_RELEASE_V1.0.2/MSDK/plf/GD32VW55x_standard_peripheral/Source\gd32vw55x_cau_des.c ****         return ERROR;
  50              		.loc 1 154 16
  51 001c 0145     		li	a0,0
  52              	.L1:
 155:C:/Users/stapi/OneDrive/Desktop/GD32VW553/V1_MQTT_OK/GD32VW55X_Wifi_BLE_SDK/GD32VW55x_RELEASE_V1.0.2/MSDK/plf/GD32VW55x_standard_peripheral/Source\gd32vw55x_cau_des.c ****     }
 156:C:/Users/stapi/OneDrive/Desktop/GD32VW553/V1_MQTT_OK/GD32VW55X_Wifi_BLE_SDK/GD32VW55x_RELEASE_V1.0.2/MSDK/plf/GD32VW55x_standard_peripheral/Source\gd32vw55x_cau_des.c **** 
 157:C:/Users/stapi/OneDrive/Desktop/GD32VW553/V1_MQTT_OK/GD32VW55X_Wifi_BLE_SDK/GD32VW55x_RELEASE_V1.0.2/MSDK/plf/GD32VW55x_standard_peripheral/Source\gd32vw55x_cau_des.c ****     for(i = 0U; i < in_length; i += 8U) {
 158:C:/Users/stapi/OneDrive/Desktop/GD32VW553/V1_MQTT_OK/GD32VW55X_Wifi_BLE_SDK/GD32VW55x_RELEASE_V1.0.2/MSDK/plf/GD32VW55x_standard_peripheral/Source\gd32vw55x_cau_des.c ****         /* write data to the IN FIFO */
 159:C:/Users/stapi/OneDrive/Desktop/GD32VW553/V1_MQTT_OK/GD32VW55X_Wifi_BLE_SDK/GD32VW55x_RELEASE_V1.0.2/MSDK/plf/GD32VW55x_standard_peripheral/Source\gd32vw55x_cau_des.c ****         cau_data_write(*(uint32_t *)(inputaddr));
 160:C:/Users/stapi/OneDrive/Desktop/GD32VW553/V1_MQTT_OK/GD32VW55X_Wifi_BLE_SDK/GD32VW55x_RELEASE_V1.0.2/MSDK/plf/GD32VW55x_standard_peripheral/Source\gd32vw55x_cau_des.c ****         inputaddr += 4U;
 161:C:/Users/stapi/OneDrive/Desktop/GD32VW553/V1_MQTT_OK/GD32VW55X_Wifi_BLE_SDK/GD32VW55x_RELEASE_V1.0.2/MSDK/plf/GD32VW55x_standard_peripheral/Source\gd32vw55x_cau_des.c ****         cau_data_write(*(uint32_t *)(inputaddr));
 162:C:/Users/stapi/OneDrive/Desktop/GD32VW553/V1_MQTT_OK/GD32VW55X_Wifi_BLE_SDK/GD32VW55x_RELEASE_V1.0.2/MSDK/plf/GD32VW55x_standard_peripheral/Source\gd32vw55x_cau_des.c ****         inputaddr += 4U;
 163:C:/Users/stapi/OneDrive/Desktop/GD32VW553/V1_MQTT_OK/GD32VW55X_Wifi_BLE_SDK/GD32VW55x_RELEASE_V1.0.2/MSDK/plf/GD32VW55x_standard_peripheral/Source\gd32vw55x_cau_des.c **** 
 164:C:/Users/stapi/OneDrive/Desktop/GD32VW553/V1_MQTT_OK/GD32VW55X_Wifi_BLE_SDK/GD32VW55x_RELEASE_V1.0.2/MSDK/plf/GD32VW55x_standard_peripheral/Source\gd32vw55x_cau_des.c ****         /* wait until the complete message has been processed */
 165:C:/Users/stapi/OneDrive/Desktop/GD32VW553/V1_MQTT_OK/GD32VW55X_Wifi_BLE_SDK/GD32VW55x_RELEASE_V1.0.2/MSDK/plf/GD32VW55x_standard_peripheral/Source\gd32vw55x_cau_des.c ****         counter = 0U;
 166:C:/Users/stapi/OneDrive/Desktop/GD32VW553/V1_MQTT_OK/GD32VW55X_Wifi_BLE_SDK/GD32VW55x_RELEASE_V1.0.2/MSDK/plf/GD32VW55x_standard_peripheral/Source\gd32vw55x_cau_des.c ****         do {
 167:C:/Users/stapi/OneDrive/Desktop/GD32VW553/V1_MQTT_OK/GD32VW55X_Wifi_BLE_SDK/GD32VW55x_RELEASE_V1.0.2/MSDK/plf/GD32VW55x_standard_peripheral/Source\gd32vw55x_cau_des.c ****             busystatus = cau_flag_get(CAU_FLAG_BUSY);
 168:C:/Users/stapi/OneDrive/Desktop/GD32VW553/V1_MQTT_OK/GD32VW55X_Wifi_BLE_SDK/GD32VW55x_RELEASE_V1.0.2/MSDK/plf/GD32VW55x_standard_peripheral/Source\gd32vw55x_cau_des.c ****             counter++;
 169:C:/Users/stapi/OneDrive/Desktop/GD32VW553/V1_MQTT_OK/GD32VW55X_Wifi_BLE_SDK/GD32VW55x_RELEASE_V1.0.2/MSDK/plf/GD32VW55x_standard_peripheral/Source\gd32vw55x_cau_des.c ****         } while((DESBUSY_TIMEOUT != counter) && (RESET != busystatus));
 170:C:/Users/stapi/OneDrive/Desktop/GD32VW553/V1_MQTT_OK/GD32VW55X_Wifi_BLE_SDK/GD32VW55x_RELEASE_V1.0.2/MSDK/plf/GD32VW55x_standard_peripheral/Source\gd32vw55x_cau_des.c **** 
 171:C:/Users/stapi/OneDrive/Desktop/GD32VW553/V1_MQTT_OK/GD32VW55X_Wifi_BLE_SDK/GD32VW55x_RELEASE_V1.0.2/MSDK/plf/GD32VW55x_standard_peripheral/Source\gd32vw55x_cau_des.c ****         if(RESET != busystatus) {
 172:C:/Users/stapi/OneDrive/Desktop/GD32VW553/V1_MQTT_OK/GD32VW55X_Wifi_BLE_SDK/GD32VW55x_RELEASE_V1.0.2/MSDK/plf/GD32VW55x_standard_peripheral/Source\gd32vw55x_cau_des.c ****             return ERROR;
 173:C:/Users/stapi/OneDrive/Desktop/GD32VW553/V1_MQTT_OK/GD32VW55X_Wifi_BLE_SDK/GD32VW55x_RELEASE_V1.0.2/MSDK/plf/GD32VW55x_standard_peripheral/Source\gd32vw55x_cau_des.c ****         } else {
 174:C:/Users/stapi/OneDrive/Desktop/GD32VW553/V1_MQTT_OK/GD32VW55X_Wifi_BLE_SDK/GD32VW55x_RELEASE_V1.0.2/MSDK/plf/GD32VW55x_standard_peripheral/Source\gd32vw55x_cau_des.c ****             /* read the output block from the output FIFO */
 175:C:/Users/stapi/OneDrive/Desktop/GD32VW553/V1_MQTT_OK/GD32VW55X_Wifi_BLE_SDK/GD32VW55x_RELEASE_V1.0.2/MSDK/plf/GD32VW55x_standard_peripheral/Source\gd32vw55x_cau_des.c ****             *(uint32_t *)(outputaddr) = cau_data_read();
 176:C:/Users/stapi/OneDrive/Desktop/GD32VW553/V1_MQTT_OK/GD32VW55X_Wifi_BLE_SDK/GD32VW55x_RELEASE_V1.0.2/MSDK/plf/GD32VW55x_standard_peripheral/Source\gd32vw55x_cau_des.c ****             outputaddr += 4U;
 177:C:/Users/stapi/OneDrive/Desktop/GD32VW553/V1_MQTT_OK/GD32VW55X_Wifi_BLE_SDK/GD32VW55x_RELEASE_V1.0.2/MSDK/plf/GD32VW55x_standard_peripheral/Source\gd32vw55x_cau_des.c ****             *(uint32_t *)(outputaddr) = cau_data_read();
 178:C:/Users/stapi/OneDrive/Desktop/GD32VW553/V1_MQTT_OK/GD32VW55X_Wifi_BLE_SDK/GD32VW55x_RELEASE_V1.0.2/MSDK/plf/GD32VW55x_standard_peripheral/Source\gd32vw55x_cau_des.c ****             outputaddr += 4U;
 179:C:/Users/stapi/OneDrive/Desktop/GD32VW553/V1_MQTT_OK/GD32VW55X_Wifi_BLE_SDK/GD32VW55x_RELEASE_V1.0.2/MSDK/plf/GD32VW55x_standard_peripheral/Source\gd32vw55x_cau_des.c ****         }
 180:C:/Users/stapi/OneDrive/Desktop/GD32VW553/V1_MQTT_OK/GD32VW55X_Wifi_BLE_SDK/GD32VW55x_RELEASE_V1.0.2/MSDK/plf/GD32VW55x_standard_peripheral/Source\gd32vw55x_cau_des.c ****     }
 181:C:/Users/stapi/OneDrive/Desktop/GD32VW553/V1_MQTT_OK/GD32VW55X_Wifi_BLE_SDK/GD32VW55x_RELEASE_V1.0.2/MSDK/plf/GD32VW55x_standard_peripheral/Source\gd32vw55x_cau_des.c **** 
 182:C:/Users/stapi/OneDrive/Desktop/GD32VW553/V1_MQTT_OK/GD32VW55X_Wifi_BLE_SDK/GD32VW55x_RELEASE_V1.0.2/MSDK/plf/GD32VW55x_standard_peripheral/Source\gd32vw55x_cau_des.c ****     return SUCCESS;
 183:C:/Users/stapi/OneDrive/Desktop/GD32VW553/V1_MQTT_OK/GD32VW55X_Wifi_BLE_SDK/GD32VW55x_RELEASE_V1.0.2/MSDK/plf/GD32VW55x_standard_peripheral/Source\gd32vw55x_cau_des.c **** }
  53              		.loc 1 183 1
  54 001e 4101     		addi	sp,sp,16
  55              		.cfi_remember_state
  56              		.cfi_def_cfa_offset 0
  57 0020 17030000 		tail	__riscv_restore_5
  57      67000300 
  58              		.cfi_restore 20
  59              		.cfi_restore 19
  60              		.cfi_restore 18
  61              		.cfi_restore 9
  62              		.cfi_restore 8
  63              		.cfi_restore 1
  64              		.cfi_def_cfa_offset -32
  65              	.LVL5:
  66              	.L2:
  67              		.cfi_restore_state
 146:C:/Users/stapi/OneDrive/Desktop/GD32VW553/V1_MQTT_OK/GD32VW55X_Wifi_BLE_SDK/GD32VW55x_RELEASE_V1.0.2/MSDK/plf/GD32VW55x_standard_peripheral/Source\gd32vw55x_cau_des.c ****     uint32_t outputaddr = (uint32_t)output;
  68              		.loc 1 146 14
  69 0028 CA84     		mv	s1,s2
 169:C:/Users/stapi/OneDrive/Desktop/GD32VW553/V1_MQTT_OK/GD32VW55X_Wifi_BLE_SDK/GD32VW55x_RELEASE_V1.0.2/MSDK/plf/GD32VW55x_standard_peripheral/Source\gd32vw55x_cau_des.c **** 
  70              		.loc 1 169 9
  71 002a 416A     		li	s4,65536
  72              	.LVL6:
  73              	.L4:
 157:C:/Users/stapi/OneDrive/Desktop/GD32VW553/V1_MQTT_OK/GD32VW55X_Wifi_BLE_SDK/GD32VW55x_RELEASE_V1.0.2/MSDK/plf/GD32VW55x_standard_peripheral/Source\gd32vw55x_cau_des.c ****         /* write data to the IN FIFO */
  74              		.loc 1 157 17 is_stmt 1 discriminator 1
 157:C:/Users/stapi/OneDrive/Desktop/GD32VW553/V1_MQTT_OK/GD32VW55X_Wifi_BLE_SDK/GD32VW55x_RELEASE_V1.0.2/MSDK/plf/GD32VW55x_standard_peripheral/Source\gd32vw55x_cau_des.c ****         /* write data to the IN FIFO */
  75              		.loc 1 157 5 is_stmt 0 discriminator 1
  76 002c B3872441 		sub	a5,s1,s2
  77 0030 63E43701 		bgtu	s3,a5,.L9
 182:C:/Users/stapi/OneDrive/Desktop/GD32VW553/V1_MQTT_OK/GD32VW55X_Wifi_BLE_SDK/GD32VW55x_RELEASE_V1.0.2/MSDK/plf/GD32VW55x_standard_peripheral/Source\gd32vw55x_cau_des.c **** }
  78              		.loc 1 182 12
  79 0034 0545     		li	a0,1
  80 0036 E5B7     		j	.L1
  81              	.L9:
 159:C:/Users/stapi/OneDrive/Desktop/GD32VW553/V1_MQTT_OK/GD32VW55X_Wifi_BLE_SDK/GD32VW55x_RELEASE_V1.0.2/MSDK/plf/GD32VW55x_standard_peripheral/Source\gd32vw55x_cau_des.c ****         inputaddr += 4U;
  82              		.loc 1 159 9 is_stmt 1
  83 0038 8840     		lw	a0,0(s1)
  84 003a 97000000 		call	cau_data_write
  84      E7800000 
  85              	.LVL7:
 160:C:/Users/stapi/OneDrive/Desktop/GD32VW553/V1_MQTT_OK/GD32VW55X_Wifi_BLE_SDK/GD32VW55x_RELEASE_V1.0.2/MSDK/plf/GD32VW55x_standard_peripheral/Source\gd32vw55x_cau_des.c ****         cau_data_write(*(uint32_t *)(inputaddr));
  86              		.loc 1 160 9
 161:C:/Users/stapi/OneDrive/Desktop/GD32VW553/V1_MQTT_OK/GD32VW55X_Wifi_BLE_SDK/GD32VW55x_RELEASE_V1.0.2/MSDK/plf/GD32VW55x_standard_peripheral/Source\gd32vw55x_cau_des.c ****         inputaddr += 4U;
  87              		.loc 1 161 9
  88 0042 C840     		lw	a0,4(s1)
 162:C:/Users/stapi/OneDrive/Desktop/GD32VW553/V1_MQTT_OK/GD32VW55X_Wifi_BLE_SDK/GD32VW55x_RELEASE_V1.0.2/MSDK/plf/GD32VW55x_standard_peripheral/Source\gd32vw55x_cau_des.c **** 
  89              		.loc 1 162 19 is_stmt 0
  90 0044 A104     		addi	s1,s1,8
  91              	.LVL8:
 161:C:/Users/stapi/OneDrive/Desktop/GD32VW553/V1_MQTT_OK/GD32VW55X_Wifi_BLE_SDK/GD32VW55x_RELEASE_V1.0.2/MSDK/plf/GD32VW55x_standard_peripheral/Source\gd32vw55x_cau_des.c ****         inputaddr += 4U;
  92              		.loc 1 161 9
  93 0046 97000000 		call	cau_data_write
  93      E7800000 
  94              	.LVL9:
 162:C:/Users/stapi/OneDrive/Desktop/GD32VW553/V1_MQTT_OK/GD32VW55X_Wifi_BLE_SDK/GD32VW55x_RELEASE_V1.0.2/MSDK/plf/GD32VW55x_standard_peripheral/Source\gd32vw55x_cau_des.c **** 
  95              		.loc 1 162 9 is_stmt 1
 165:C:/Users/stapi/OneDrive/Desktop/GD32VW553/V1_MQTT_OK/GD32VW55X_Wifi_BLE_SDK/GD32VW55x_RELEASE_V1.0.2/MSDK/plf/GD32VW55x_standard_peripheral/Source\gd32vw55x_cau_des.c ****         do {
  96              		.loc 1 165 9
 165:C:/Users/stapi/OneDrive/Desktop/GD32VW553/V1_MQTT_OK/GD32VW55X_Wifi_BLE_SDK/GD32VW55x_RELEASE_V1.0.2/MSDK/plf/GD32VW55x_standard_peripheral/Source\gd32vw55x_cau_des.c ****         do {
  97              		.loc 1 165 17 is_stmt 0
  98 004e 02C6     		sw	zero,12(sp)
  99              	.L6:
 166:C:/Users/stapi/OneDrive/Desktop/GD32VW553/V1_MQTT_OK/GD32VW55X_Wifi_BLE_SDK/GD32VW55x_RELEASE_V1.0.2/MSDK/plf/GD32VW55x_standard_peripheral/Source\gd32vw55x_cau_des.c ****             busystatus = cau_flag_get(CAU_FLAG_BUSY);
 100              		.loc 1 166 9 is_stmt 1 discriminator 2
 167:C:/Users/stapi/OneDrive/Desktop/GD32VW553/V1_MQTT_OK/GD32VW55X_Wifi_BLE_SDK/GD32VW55x_RELEASE_V1.0.2/MSDK/plf/GD32VW55x_standard_peripheral/Source\gd32vw55x_cau_des.c ****             counter++;
 101              		.loc 1 167 13 discriminator 2
 167:C:/Users/stapi/OneDrive/Desktop/GD32VW553/V1_MQTT_OK/GD32VW55X_Wifi_BLE_SDK/GD32VW55x_RELEASE_V1.0.2/MSDK/plf/GD32VW55x_standard_peripheral/Source\gd32vw55x_cau_des.c ****             counter++;
 102              		.loc 1 167 26 is_stmt 0 discriminator 2
 103 0050 4145     		li	a0,16
 104 0052 97000000 		call	cau_flag_get
 104      E7800000 
 105              	.LVL10:
 168:C:/Users/stapi/OneDrive/Desktop/GD32VW553/V1_MQTT_OK/GD32VW55X_Wifi_BLE_SDK/GD32VW55x_RELEASE_V1.0.2/MSDK/plf/GD32VW55x_standard_peripheral/Source\gd32vw55x_cau_des.c ****         } while((DESBUSY_TIMEOUT != counter) && (RESET != busystatus));
 106              		.loc 1 168 13 is_stmt 1 discriminator 2
 168:C:/Users/stapi/OneDrive/Desktop/GD32VW553/V1_MQTT_OK/GD32VW55X_Wifi_BLE_SDK/GD32VW55x_RELEASE_V1.0.2/MSDK/plf/GD32VW55x_standard_peripheral/Source\gd32vw55x_cau_des.c ****         } while((DESBUSY_TIMEOUT != counter) && (RESET != busystatus));
 107              		.loc 1 168 20 is_stmt 0 discriminator 2
 108 005a B247     		lw	a5,12(sp)
 109 005c 8507     		addi	a5,a5,1
 110 005e 3EC6     		sw	a5,12(sp)
 169:C:/Users/stapi/OneDrive/Desktop/GD32VW553/V1_MQTT_OK/GD32VW55X_Wifi_BLE_SDK/GD32VW55x_RELEASE_V1.0.2/MSDK/plf/GD32VW55x_standard_peripheral/Source\gd32vw55x_cau_des.c **** 
 111              		.loc 1 169 16 is_stmt 1 discriminator 2
 169:C:/Users/stapi/OneDrive/Desktop/GD32VW553/V1_MQTT_OK/GD32VW55X_Wifi_BLE_SDK/GD32VW55x_RELEASE_V1.0.2/MSDK/plf/GD32VW55x_standard_peripheral/Source\gd32vw55x_cau_des.c **** 
 112              		.loc 1 169 34 is_stmt 0 discriminator 2
 113 0060 B247     		lw	a5,12(sp)
 169:C:/Users/stapi/OneDrive/Desktop/GD32VW553/V1_MQTT_OK/GD32VW55X_Wifi_BLE_SDK/GD32VW55x_RELEASE_V1.0.2/MSDK/plf/GD32VW55x_standard_peripheral/Source\gd32vw55x_cau_des.c **** 
 114              		.loc 1 169 9 discriminator 2
 115 0062 638F4701 		beq	a5,s4,.L5
 169:C:/Users/stapi/OneDrive/Desktop/GD32VW553/V1_MQTT_OK/GD32VW55X_Wifi_BLE_SDK/GD32VW55x_RELEASE_V1.0.2/MSDK/plf/GD32VW55x_standard_peripheral/Source\gd32vw55x_cau_des.c **** 
 116              		.loc 1 169 46 discriminator 1
 117 0066 6DF5     		bne	a0,zero,.L6
 118              	.L7:
 175:C:/Users/stapi/OneDrive/Desktop/GD32VW553/V1_MQTT_OK/GD32VW55X_Wifi_BLE_SDK/GD32VW55x_RELEASE_V1.0.2/MSDK/plf/GD32VW55x_standard_peripheral/Source\gd32vw55x_cau_des.c ****             outputaddr += 4U;
 119              		.loc 1 175 13 is_stmt 1 discriminator 2
 175:C:/Users/stapi/OneDrive/Desktop/GD32VW553/V1_MQTT_OK/GD32VW55X_Wifi_BLE_SDK/GD32VW55x_RELEASE_V1.0.2/MSDK/plf/GD32VW55x_standard_peripheral/Source\gd32vw55x_cau_des.c ****             outputaddr += 4U;
 120              		.loc 1 175 41 is_stmt 0 discriminator 2
 121 0068 97000000 		call	cau_data_read
 121      E7800000 
 122              	.LVL11:
 175:C:/Users/stapi/OneDrive/Desktop/GD32VW553/V1_MQTT_OK/GD32VW55X_Wifi_BLE_SDK/GD32VW55x_RELEASE_V1.0.2/MSDK/plf/GD32VW55x_standard_peripheral/Source\gd32vw55x_cau_des.c ****             outputaddr += 4U;
 123              		.loc 1 175 39 discriminator 2
 124 0070 08C0     		sw	a0,0(s0)
 176:C:/Users/stapi/OneDrive/Desktop/GD32VW553/V1_MQTT_OK/GD32VW55X_Wifi_BLE_SDK/GD32VW55x_RELEASE_V1.0.2/MSDK/plf/GD32VW55x_standard_peripheral/Source\gd32vw55x_cau_des.c ****             *(uint32_t *)(outputaddr) = cau_data_read();
 125              		.loc 1 176 13 is_stmt 1 discriminator 2
 126              	.LVL12:
 177:C:/Users/stapi/OneDrive/Desktop/GD32VW553/V1_MQTT_OK/GD32VW55X_Wifi_BLE_SDK/GD32VW55x_RELEASE_V1.0.2/MSDK/plf/GD32VW55x_standard_peripheral/Source\gd32vw55x_cau_des.c ****             outputaddr += 4U;
 127              		.loc 1 177 13 discriminator 2
 177:C:/Users/stapi/OneDrive/Desktop/GD32VW553/V1_MQTT_OK/GD32VW55X_Wifi_BLE_SDK/GD32VW55x_RELEASE_V1.0.2/MSDK/plf/GD32VW55x_standard_peripheral/Source\gd32vw55x_cau_des.c ****             outputaddr += 4U;
 128              		.loc 1 177 41 is_stmt 0 discriminator 2
 129 0072 97000000 		call	cau_data_read
 129      E7800000 
 130              	.LVL13:
 177:C:/Users/stapi/OneDrive/Desktop/GD32VW553/V1_MQTT_OK/GD32VW55X_Wifi_BLE_SDK/GD32VW55x_RELEASE_V1.0.2/MSDK/plf/GD32VW55x_standard_peripheral/Source\gd32vw55x_cau_des.c ****             outputaddr += 4U;
 131              		.loc 1 177 39 discriminator 2
 132 007a 48C0     		sw	a0,4(s0)
 178:C:/Users/stapi/OneDrive/Desktop/GD32VW553/V1_MQTT_OK/GD32VW55X_Wifi_BLE_SDK/GD32VW55x_RELEASE_V1.0.2/MSDK/plf/GD32VW55x_standard_peripheral/Source\gd32vw55x_cau_des.c ****         }
 133              		.loc 1 178 13 is_stmt 1 discriminator 2
 178:C:/Users/stapi/OneDrive/Desktop/GD32VW553/V1_MQTT_OK/GD32VW55X_Wifi_BLE_SDK/GD32VW55x_RELEASE_V1.0.2/MSDK/plf/GD32VW55x_standard_peripheral/Source\gd32vw55x_cau_des.c ****         }
 134              		.loc 1 178 24 is_stmt 0 discriminator 2
 135 007c 2104     		addi	s0,s0,8
 136              	.LVL14:
 157:C:/Users/stapi/OneDrive/Desktop/GD32VW553/V1_MQTT_OK/GD32VW55X_Wifi_BLE_SDK/GD32VW55x_RELEASE_V1.0.2/MSDK/plf/GD32VW55x_standard_peripheral/Source\gd32vw55x_cau_des.c ****         /* write data to the IN FIFO */
 137              		.loc 1 157 32 is_stmt 1 discriminator 2
 138 007e 7DB7     		j	.L4
 139              	.LVL15:
 140              	.L5:
 171:C:/Users/stapi/OneDrive/Desktop/GD32VW553/V1_MQTT_OK/GD32VW55X_Wifi_BLE_SDK/GD32VW55x_RELEASE_V1.0.2/MSDK/plf/GD32VW55x_standard_peripheral/Source\gd32vw55x_cau_des.c ****             return ERROR;
 141              		.loc 1 171 9
 171:C:/Users/stapi/OneDrive/Desktop/GD32VW553/V1_MQTT_OK/GD32VW55X_Wifi_BLE_SDK/GD32VW55x_RELEASE_V1.0.2/MSDK/plf/GD32VW55x_standard_peripheral/Source\gd32vw55x_cau_des.c ****             return ERROR;
 142              		.loc 1 171 11 is_stmt 0
 143 0080 65D5     		beq	a0,zero,.L7
 144 0082 69BF     		j	.L8
 145              		.cfi_endproc
 146              	.LFE367:
 148              		.section	.text.cau_des_ecb,"ax",@progbits
 149              		.align	1
 150              		.globl	cau_des_ecb
 152              	cau_des_ecb:
 153              	.LFB365:
  54:C:/Users/stapi/OneDrive/Desktop/GD32VW553/V1_MQTT_OK/GD32VW55X_Wifi_BLE_SDK/GD32VW55x_RELEASE_V1.0.2/MSDK/plf/GD32VW55x_standard_peripheral/Source\gd32vw55x_cau_des.c ****     ErrStatus ret = ERROR;
 154              		.loc 1 54 1 is_stmt 1
 155              		.cfi_startproc
 156              	.LVL16:
 157 0000 17030000 		call	t0,__riscv_save_4
 157      E7020300 
 158              		.cfi_offset 19, -20
 159              		.cfi_offset 18, -16
 160              		.cfi_offset 9, -12
 161              		.cfi_offset 8, -8
 162              		.cfi_offset 1, -4
 163              		.cfi_def_cfa_offset 32
  55:C:/Users/stapi/OneDrive/Desktop/GD32VW553/V1_MQTT_OK/GD32VW55X_Wifi_BLE_SDK/GD32VW55x_RELEASE_V1.0.2/MSDK/plf/GD32VW55x_standard_peripheral/Source\gd32vw55x_cau_des.c ****     cau_key_parameter_struct key_initpara;
 164              		.loc 1 55 5
 165              	.LVL17:
  56:C:/Users/stapi/OneDrive/Desktop/GD32VW553/V1_MQTT_OK/GD32VW55X_Wifi_BLE_SDK/GD32VW55x_RELEASE_V1.0.2/MSDK/plf/GD32VW55x_standard_peripheral/Source\gd32vw55x_cau_des.c ****     uint32_t keyaddr    = (uint32_t)(cau_parameter->key);
 166              		.loc 1 56 5
  57:C:/Users/stapi/OneDrive/Desktop/GD32VW553/V1_MQTT_OK/GD32VW55X_Wifi_BLE_SDK/GD32VW55x_RELEASE_V1.0.2/MSDK/plf/GD32VW55x_standard_peripheral/Source\gd32vw55x_cau_des.c ****     uint32_t inputaddr  = (uint32_t)(cau_parameter->input);
 167              		.loc 1 57 5
  54:C:/Users/stapi/OneDrive/Desktop/GD32VW553/V1_MQTT_OK/GD32VW55X_Wifi_BLE_SDK/GD32VW55x_RELEASE_V1.0.2/MSDK/plf/GD32VW55x_standard_peripheral/Source\gd32vw55x_cau_des.c ****     ErrStatus ret = ERROR;
 168              		.loc 1 54 1 is_stmt 0
 169 0008 7971     		addi	sp,sp,-48
 170              		.cfi_def_cfa_offset 80
  57:C:/Users/stapi/OneDrive/Desktop/GD32VW553/V1_MQTT_OK/GD32VW55X_Wifi_BLE_SDK/GD32VW55x_RELEASE_V1.0.2/MSDK/plf/GD32VW55x_standard_peripheral/Source\gd32vw55x_cau_des.c ****     uint32_t inputaddr  = (uint32_t)(cau_parameter->input);
 171              		.loc 1 57 51
 172 000a 03294500 		lw	s2,4(a0)
 173              	.LVL18:
  58:C:/Users/stapi/OneDrive/Desktop/GD32VW553/V1_MQTT_OK/GD32VW55X_Wifi_BLE_SDK/GD32VW55x_RELEASE_V1.0.2/MSDK/plf/GD32VW55x_standard_peripheral/Source\gd32vw55x_cau_des.c ****     uint32_t outputaddr = (uint32_t)output;
 174              		.loc 1 58 5 is_stmt 1
  54:C:/Users/stapi/OneDrive/Desktop/GD32VW553/V1_MQTT_OK/GD32VW55X_Wifi_BLE_SDK/GD32VW55x_RELEASE_V1.0.2/MSDK/plf/GD32VW55x_standard_peripheral/Source\gd32vw55x_cau_des.c ****     ErrStatus ret = ERROR;
 175              		.loc 1 54 1 is_stmt 0
 176 000e 2A84     		mv	s0,a0
  58:C:/Users/stapi/OneDrive/Desktop/GD32VW553/V1_MQTT_OK/GD32VW55X_Wifi_BLE_SDK/GD32VW55x_RELEASE_V1.0.2/MSDK/plf/GD32VW55x_standard_peripheral/Source\gd32vw55x_cau_des.c ****     uint32_t outputaddr = (uint32_t)output;
 177              		.loc 1 58 51
 178 0010 83294501 		lw	s3,20(a0)
 179              	.LVL19:
  59:C:/Users/stapi/OneDrive/Desktop/GD32VW553/V1_MQTT_OK/GD32VW55X_Wifi_BLE_SDK/GD32VW55x_RELEASE_V1.0.2/MSDK/plf/GD32VW55x_standard_peripheral/Source\gd32vw55x_cau_des.c **** 
 180              		.loc 1 59 5 is_stmt 1
  62:C:/Users/stapi/OneDrive/Desktop/GD32VW553/V1_MQTT_OK/GD32VW55X_Wifi_BLE_SDK/GD32VW55x_RELEASE_V1.0.2/MSDK/plf/GD32VW55x_standard_peripheral/Source\gd32vw55x_cau_des.c ****     /* initialize the CAU peripheral */
 181              		.loc 1 62 5 is_stmt 0
 182 0014 0808     		addi	a0,sp,16
 183              	.LVL20:
  54:C:/Users/stapi/OneDrive/Desktop/GD32VW553/V1_MQTT_OK/GD32VW55X_Wifi_BLE_SDK/GD32VW55x_RELEASE_V1.0.2/MSDK/plf/GD32VW55x_standard_peripheral/Source\gd32vw55x_cau_des.c ****     ErrStatus ret = ERROR;
 184              		.loc 1 54 1
 185 0016 AE84     		mv	s1,a1
 186              	.LVL21:
  62:C:/Users/stapi/OneDrive/Desktop/GD32VW553/V1_MQTT_OK/GD32VW55X_Wifi_BLE_SDK/GD32VW55x_RELEASE_V1.0.2/MSDK/plf/GD32VW55x_standard_peripheral/Source\gd32vw55x_cau_des.c ****     /* initialize the CAU peripheral */
 187              		.loc 1 62 5 is_stmt 1
 188 0018 97000000 		call	cau_key_struct_para_init
 188      E7800000 
 189              	.LVL22:
  64:C:/Users/stapi/OneDrive/Desktop/GD32VW553/V1_MQTT_OK/GD32VW55X_Wifi_BLE_SDK/GD32VW55x_RELEASE_V1.0.2/MSDK/plf/GD32VW55x_standard_peripheral/Source\gd32vw55x_cau_des.c **** 
 190              		.loc 1 64 5
 191 0020 0840     		lw	a0,0(s0)
 192 0022 13060008 		li	a2,128
 193 0026 C145     		li	a1,16
 194 0028 97000000 		call	cau_init
 194      E7800000 
 195              	.LVL23:
  67:C:/Users/stapi/OneDrive/Desktop/GD32VW553/V1_MQTT_OK/GD32VW55X_Wifi_BLE_SDK/GD32VW55x_RELEASE_V1.0.2/MSDK/plf/GD32VW55x_standard_peripheral/Source\gd32vw55x_cau_des.c ****     keyaddr += 4U;
 196              		.loc 1 67 5
 197 0030 83270900 		lw	a5,0(s2)
  70:C:/Users/stapi/OneDrive/Desktop/GD32VW553/V1_MQTT_OK/GD32VW55X_Wifi_BLE_SDK/GD32VW55x_RELEASE_V1.0.2/MSDK/plf/GD32VW55x_standard_peripheral/Source\gd32vw55x_cau_des.c **** 
 198              		.loc 1 70 5 is_stmt 0
 199 0034 0808     		addi	a0,sp,16
 200 0036 93D78769 		rev8	a5,a5
 201              	.LVL24:
 202              	.LBB14:
 203              	.LBB15:
 204              		.file 2 "..\\..\\..\\..\\plf\\riscv\\NMSIS\\Core\\Include/core_compatiable.h"
   1:..\..\..\..\plf\riscv\NMSIS\Core\Include/core_compatiable.h **** /*
   2:..\..\..\..\plf\riscv\NMSIS\Core\Include/core_compatiable.h ****  * Copyright (c) 2019 Nuclei Limited. All rights reserved.
   3:..\..\..\..\plf\riscv\NMSIS\Core\Include/core_compatiable.h ****  *
   4:..\..\..\..\plf\riscv\NMSIS\Core\Include/core_compatiable.h ****  * SPDX-License-Identifier: Apache-2.0
   5:..\..\..\..\plf\riscv\NMSIS\Core\Include/core_compatiable.h ****  *
   6:..\..\..\..\plf\riscv\NMSIS\Core\Include/core_compatiable.h ****  * Licensed under the Apache License, Version 2.0 (the License); you may
   7:..\..\..\..\plf\riscv\NMSIS\Core\Include/core_compatiable.h ****  * not use this file except in compliance with the License.
   8:..\..\..\..\plf\riscv\NMSIS\Core\Include/core_compatiable.h ****  * You may obtain a copy of the License at
   9:..\..\..\..\plf\riscv\NMSIS\Core\Include/core_compatiable.h ****  *
  10:..\..\..\..\plf\riscv\NMSIS\Core\Include/core_compatiable.h ****  * www.apache.org/licenses/LICENSE-2.0
  11:..\..\..\..\plf\riscv\NMSIS\Core\Include/core_compatiable.h ****  *
  12:..\..\..\..\plf\riscv\NMSIS\Core\Include/core_compatiable.h ****  * Unless required by applicable law or agreed to in writing, software
  13:..\..\..\..\plf\riscv\NMSIS\Core\Include/core_compatiable.h ****  * distributed under the License is distributed on an AS IS BASIS, WITHOUT
  14:..\..\..\..\plf\riscv\NMSIS\Core\Include/core_compatiable.h ****  * WARRANTIES OR CONDITIONS OF ANY KIND, either express or implied.
  15:..\..\..\..\plf\riscv\NMSIS\Core\Include/core_compatiable.h ****  * See the License for the specific language governing permissions and
  16:..\..\..\..\plf\riscv\NMSIS\Core\Include/core_compatiable.h ****  * limitations under the License.
  17:..\..\..\..\plf\riscv\NMSIS\Core\Include/core_compatiable.h ****  */
  18:..\..\..\..\plf\riscv\NMSIS\Core\Include/core_compatiable.h **** #ifndef __CORE_COMPATIABLE_H__
  19:..\..\..\..\plf\riscv\NMSIS\Core\Include/core_compatiable.h **** #define __CORE_COMPATIABLE_H__
  20:..\..\..\..\plf\riscv\NMSIS\Core\Include/core_compatiable.h **** /*!
  21:..\..\..\..\plf\riscv\NMSIS\Core\Include/core_compatiable.h ****  * @file     core_compatiable.h
  22:..\..\..\..\plf\riscv\NMSIS\Core\Include/core_compatiable.h ****  * @brief    ARM compatiable function definitions header file
  23:..\..\..\..\plf\riscv\NMSIS\Core\Include/core_compatiable.h ****  */
  24:..\..\..\..\plf\riscv\NMSIS\Core\Include/core_compatiable.h **** #ifdef __cplusplus
  25:..\..\..\..\plf\riscv\NMSIS\Core\Include/core_compatiable.h ****  extern "C" {
  26:..\..\..\..\plf\riscv\NMSIS\Core\Include/core_compatiable.h **** #endif
  27:..\..\..\..\plf\riscv\NMSIS\Core\Include/core_compatiable.h **** 
  28:..\..\..\..\plf\riscv\NMSIS\Core\Include/core_compatiable.h **** /* ===== ARM Compatiable Functions ===== */
  29:..\..\..\..\plf\riscv\NMSIS\Core\Include/core_compatiable.h **** /**
  30:..\..\..\..\plf\riscv\NMSIS\Core\Include/core_compatiable.h ****  * \defgroup NMSIS_Core_ARMCompatiable_Functions   ARM Compatiable Functions
  31:..\..\..\..\plf\riscv\NMSIS\Core\Include/core_compatiable.h ****  * \ingroup  NMSIS_Core
  32:..\..\..\..\plf\riscv\NMSIS\Core\Include/core_compatiable.h ****  * \brief    A few functions that compatiable with ARM CMSIS-Core.
  33:..\..\..\..\plf\riscv\NMSIS\Core\Include/core_compatiable.h ****  * \details
  34:..\..\..\..\plf\riscv\NMSIS\Core\Include/core_compatiable.h ****  *
  35:..\..\..\..\plf\riscv\NMSIS\Core\Include/core_compatiable.h ****  * Here we provided a few functions that compatiable with ARM CMSIS-Core,
  36:..\..\..\..\plf\riscv\NMSIS\Core\Include/core_compatiable.h ****  * mostly used in the DSP and NN library.
  37:..\..\..\..\plf\riscv\NMSIS\Core\Include/core_compatiable.h ****  * @{
  38:..\..\..\..\plf\riscv\NMSIS\Core\Include/core_compatiable.h ****  */
  39:..\..\..\..\plf\riscv\NMSIS\Core\Include/core_compatiable.h **** /** \brief Instruction Synchronization Barrier, compatiable with ARM */
  40:..\..\..\..\plf\riscv\NMSIS\Core\Include/core_compatiable.h **** #define __ISB()                             __RWMB()
  41:..\..\..\..\plf\riscv\NMSIS\Core\Include/core_compatiable.h **** 
  42:..\..\..\..\plf\riscv\NMSIS\Core\Include/core_compatiable.h **** /** \brief Data Synchronization Barrier, compatiable with ARM */
  43:..\..\..\..\plf\riscv\NMSIS\Core\Include/core_compatiable.h **** #define __DSB()                             __RWMB()
  44:..\..\..\..\plf\riscv\NMSIS\Core\Include/core_compatiable.h **** 
  45:..\..\..\..\plf\riscv\NMSIS\Core\Include/core_compatiable.h **** /** \brief Data Memory Barrier, compatiable with ARM */
  46:..\..\..\..\plf\riscv\NMSIS\Core\Include/core_compatiable.h **** #define __DMB()                             __RWMB()
  47:..\..\..\..\plf\riscv\NMSIS\Core\Include/core_compatiable.h **** 
  48:..\..\..\..\plf\riscv\NMSIS\Core\Include/core_compatiable.h **** /** \brief LDRT Unprivileged (8 bit), ARM Compatiable */
  49:..\..\..\..\plf\riscv\NMSIS\Core\Include/core_compatiable.h **** #define __LDRBT(ptr)                        __LB((ptr))
  50:..\..\..\..\plf\riscv\NMSIS\Core\Include/core_compatiable.h **** /** \brief LDRT Unprivileged (16 bit), ARM Compatiable */
  51:..\..\..\..\plf\riscv\NMSIS\Core\Include/core_compatiable.h **** #define __LDRHT(ptr)                        __LH((ptr))
  52:..\..\..\..\plf\riscv\NMSIS\Core\Include/core_compatiable.h **** /** \brief LDRT Unprivileged (32 bit), ARM Compatiable */
  53:..\..\..\..\plf\riscv\NMSIS\Core\Include/core_compatiable.h **** #define __LDRT(ptr)                         __LW((ptr))
  54:..\..\..\..\plf\riscv\NMSIS\Core\Include/core_compatiable.h **** 
  55:..\..\..\..\plf\riscv\NMSIS\Core\Include/core_compatiable.h **** /** \brief STRT Unprivileged (8 bit), ARM Compatiable */
  56:..\..\..\..\plf\riscv\NMSIS\Core\Include/core_compatiable.h **** #define __STRBT(val, ptr)                   __SB((ptr), (val))
  57:..\..\..\..\plf\riscv\NMSIS\Core\Include/core_compatiable.h **** /** \brief STRT Unprivileged (16 bit), ARM Compatiable */
  58:..\..\..\..\plf\riscv\NMSIS\Core\Include/core_compatiable.h **** #define __STRHT(val, ptr)                   __SH((ptr), (val))
  59:..\..\..\..\plf\riscv\NMSIS\Core\Include/core_compatiable.h **** /** \brief STRT Unprivileged (32 bit), ARM Compatiable */
  60:..\..\..\..\plf\riscv\NMSIS\Core\Include/core_compatiable.h **** #define __STRT(val, ptr)                    __SW((ptr), (val))
  61:..\..\..\..\plf\riscv\NMSIS\Core\Include/core_compatiable.h **** 
  62:..\..\..\..\plf\riscv\NMSIS\Core\Include/core_compatiable.h **** /* ===== Saturation Operations ===== */
  63:..\..\..\..\plf\riscv\NMSIS\Core\Include/core_compatiable.h **** /**
  64:..\..\..\..\plf\riscv\NMSIS\Core\Include/core_compatiable.h ****  * \brief   Signed Saturate
  65:..\..\..\..\plf\riscv\NMSIS\Core\Include/core_compatiable.h ****  * \details Saturates a signed value.
  66:..\..\..\..\plf\riscv\NMSIS\Core\Include/core_compatiable.h ****  * \param [in]  value  Value to be saturated
  67:..\..\..\..\plf\riscv\NMSIS\Core\Include/core_compatiable.h ****  * \param [in]    sat  Bit position to saturate to (1..32)
  68:..\..\..\..\plf\riscv\NMSIS\Core\Include/core_compatiable.h ****  * \return             Saturated value
  69:..\..\..\..\plf\riscv\NMSIS\Core\Include/core_compatiable.h ****  */
  70:..\..\..\..\plf\riscv\NMSIS\Core\Include/core_compatiable.h **** #if defined(__DSP_PRESENT) && (__DSP_PRESENT == 1)
  71:..\..\..\..\plf\riscv\NMSIS\Core\Include/core_compatiable.h **** #define __SSAT(val, sat)          __RV_SCLIP32((val), (sat-1))
  72:..\..\..\..\plf\riscv\NMSIS\Core\Include/core_compatiable.h **** #else
  73:..\..\..\..\plf\riscv\NMSIS\Core\Include/core_compatiable.h **** __STATIC_FORCEINLINE int32_t __SSAT(int32_t val, uint32_t sat)
  74:..\..\..\..\plf\riscv\NMSIS\Core\Include/core_compatiable.h **** {
  75:..\..\..\..\plf\riscv\NMSIS\Core\Include/core_compatiable.h ****     if ((sat >= 1U) && (sat <= 32U)) {
  76:..\..\..\..\plf\riscv\NMSIS\Core\Include/core_compatiable.h ****         const int32_t max = (int32_t)((1U << (sat - 1U)) - 1U);
  77:..\..\..\..\plf\riscv\NMSIS\Core\Include/core_compatiable.h ****         const int32_t min = -1 - max ;
  78:..\..\..\..\plf\riscv\NMSIS\Core\Include/core_compatiable.h ****         if (val > max) {
  79:..\..\..\..\plf\riscv\NMSIS\Core\Include/core_compatiable.h ****             return max;
  80:..\..\..\..\plf\riscv\NMSIS\Core\Include/core_compatiable.h ****         } else if (val < min) {
  81:..\..\..\..\plf\riscv\NMSIS\Core\Include/core_compatiable.h ****             return min;
  82:..\..\..\..\plf\riscv\NMSIS\Core\Include/core_compatiable.h ****         }
  83:..\..\..\..\plf\riscv\NMSIS\Core\Include/core_compatiable.h ****     }
  84:..\..\..\..\plf\riscv\NMSIS\Core\Include/core_compatiable.h ****     return val;
  85:..\..\..\..\plf\riscv\NMSIS\Core\Include/core_compatiable.h **** }
  86:..\..\..\..\plf\riscv\NMSIS\Core\Include/core_compatiable.h **** #endif
  87:..\..\..\..\plf\riscv\NMSIS\Core\Include/core_compatiable.h **** 
  88:..\..\..\..\plf\riscv\NMSIS\Core\Include/core_compatiable.h **** /**
  89:..\..\..\..\plf\riscv\NMSIS\Core\Include/core_compatiable.h ****  * \brief   Unsigned Saturate
  90:..\..\..\..\plf\riscv\NMSIS\Core\Include/core_compatiable.h ****  * \details Saturates an unsigned value.
  91:..\..\..\..\plf\riscv\NMSIS\Core\Include/core_compatiable.h ****  * \param [in]  value  Value to be saturated
  92:..\..\..\..\plf\riscv\NMSIS\Core\Include/core_compatiable.h ****  * \param [in]    sat  Bit position to saturate to (0..31)
  93:..\..\..\..\plf\riscv\NMSIS\Core\Include/core_compatiable.h ****  * \return             Saturated value
  94:..\..\..\..\plf\riscv\NMSIS\Core\Include/core_compatiable.h ****  */
  95:..\..\..\..\plf\riscv\NMSIS\Core\Include/core_compatiable.h **** #if defined(__DSP_PRESENT) && (__DSP_PRESENT == 1)
  96:..\..\..\..\plf\riscv\NMSIS\Core\Include/core_compatiable.h **** #define __USAT(val, sat)        __RV_UCLIP32((val), (sat))
  97:..\..\..\..\plf\riscv\NMSIS\Core\Include/core_compatiable.h **** #else
  98:..\..\..\..\plf\riscv\NMSIS\Core\Include/core_compatiable.h **** __STATIC_FORCEINLINE uint32_t __USAT(int32_t val, uint32_t sat)
  99:..\..\..\..\plf\riscv\NMSIS\Core\Include/core_compatiable.h **** {
 100:..\..\..\..\plf\riscv\NMSIS\Core\Include/core_compatiable.h ****     if (sat <= 31U) {
 101:..\..\..\..\plf\riscv\NMSIS\Core\Include/core_compatiable.h ****         const uint32_t max = ((1U << sat) - 1U);
 102:..\..\..\..\plf\riscv\NMSIS\Core\Include/core_compatiable.h ****         if (val > (int32_t)max) {
 103:..\..\..\..\plf\riscv\NMSIS\Core\Include/core_compatiable.h ****             return max;
 104:..\..\..\..\plf\riscv\NMSIS\Core\Include/core_compatiable.h ****         } else if (val < 0) {
 105:..\..\..\..\plf\riscv\NMSIS\Core\Include/core_compatiable.h ****             return 0U;
 106:..\..\..\..\plf\riscv\NMSIS\Core\Include/core_compatiable.h ****         }
 107:..\..\..\..\plf\riscv\NMSIS\Core\Include/core_compatiable.h ****     }
 108:..\..\..\..\plf\riscv\NMSIS\Core\Include/core_compatiable.h ****     return (uint32_t)val;
 109:..\..\..\..\plf\riscv\NMSIS\Core\Include/core_compatiable.h **** }
 110:..\..\..\..\plf\riscv\NMSIS\Core\Include/core_compatiable.h **** #endif
 111:..\..\..\..\plf\riscv\NMSIS\Core\Include/core_compatiable.h **** 
 112:..\..\..\..\plf\riscv\NMSIS\Core\Include/core_compatiable.h **** /* ===== Data Processing Operations ===== */
 113:..\..\..\..\plf\riscv\NMSIS\Core\Include/core_compatiable.h **** /**
 114:..\..\..\..\plf\riscv\NMSIS\Core\Include/core_compatiable.h ****  * \brief   Reverse byte order (32 bit)
 115:..\..\..\..\plf\riscv\NMSIS\Core\Include/core_compatiable.h ****  * \details Reverses the byte order in unsigned integer value.
 116:..\..\..\..\plf\riscv\NMSIS\Core\Include/core_compatiable.h ****  * For example, 0x12345678 becomes 0x78563412.
 117:..\..\..\..\plf\riscv\NMSIS\Core\Include/core_compatiable.h ****  * \param [in]    value  Value to reverse
 118:..\..\..\..\plf\riscv\NMSIS\Core\Include/core_compatiable.h ****  * \return               Reversed value
 119:..\..\..\..\plf\riscv\NMSIS\Core\Include/core_compatiable.h ****  */
 120:..\..\..\..\plf\riscv\NMSIS\Core\Include/core_compatiable.h **** __STATIC_FORCEINLINE uint32_t __REV(uint32_t value)
 121:..\..\..\..\plf\riscv\NMSIS\Core\Include/core_compatiable.h **** {
 122:..\..\..\..\plf\riscv\NMSIS\Core\Include/core_compatiable.h ****     uint32_t result;
 205              		.loc 2 122 5 is_stmt 1
 123:..\..\..\..\plf\riscv\NMSIS\Core\Include/core_compatiable.h **** 
 124:..\..\..\..\plf\riscv\NMSIS\Core\Include/core_compatiable.h ****     result =  ((value & 0xff000000) >> 24)
 206              		.loc 2 124 5
 125:..\..\..\..\plf\riscv\NMSIS\Core\Include/core_compatiable.h ****         | ((value & 0x00ff0000) >> 8 )
 126:..\..\..\..\plf\riscv\NMSIS\Core\Include/core_compatiable.h ****         | ((value & 0x0000ff00) << 8 )
 127:..\..\..\..\plf\riscv\NMSIS\Core\Include/core_compatiable.h ****         | ((value & 0x000000ff) << 24);
 128:..\..\..\..\plf\riscv\NMSIS\Core\Include/core_compatiable.h ****     return result;
 207              		.loc 2 128 5
 208              	.LBE15:
 209              	.LBE14:
  67:C:/Users/stapi/OneDrive/Desktop/GD32VW553/V1_MQTT_OK/GD32VW55X_Wifi_BLE_SDK/GD32VW55x_RELEASE_V1.0.2/MSDK/plf/GD32VW55x_standard_peripheral/Source\gd32vw55x_cau_des.c ****     keyaddr += 4U;
 210              		.loc 1 67 29 is_stmt 0
 211 003a 3ECC     		sw	a5,24(sp)
  68:C:/Users/stapi/OneDrive/Desktop/GD32VW553/V1_MQTT_OK/GD32VW55X_Wifi_BLE_SDK/GD32VW55x_RELEASE_V1.0.2/MSDK/plf/GD32VW55x_standard_peripheral/Source\gd32vw55x_cau_des.c ****     key_initpara.key_1_low = __REV(*(uint32_t *)(keyaddr));
 212              		.loc 1 68 5 is_stmt 1
 213              	.LVL25:
  69:C:/Users/stapi/OneDrive/Desktop/GD32VW553/V1_MQTT_OK/GD32VW55X_Wifi_BLE_SDK/GD32VW55x_RELEASE_V1.0.2/MSDK/plf/GD32VW55x_standard_peripheral/Source\gd32vw55x_cau_des.c ****     cau_key_init(&key_initpara);
 214              		.loc 1 69 5
 215 003c 83274900 		lw	a5,4(s2)
 216 0040 93D78769 		rev8	a5,a5
 217              	.LVL26:
 218              	.LBB16:
 219              	.LBB17:
 122:..\..\..\..\plf\riscv\NMSIS\Core\Include/core_compatiable.h **** 
 220              		.loc 2 122 5
 124:..\..\..\..\plf\riscv\NMSIS\Core\Include/core_compatiable.h ****         | ((value & 0x00ff0000) >> 8 )
 221              		.loc 2 124 5
 222              		.loc 2 128 5
 223              	.LBE17:
 224              	.LBE16:
  69:C:/Users/stapi/OneDrive/Desktop/GD32VW553/V1_MQTT_OK/GD32VW55X_Wifi_BLE_SDK/GD32VW55x_RELEASE_V1.0.2/MSDK/plf/GD32VW55x_standard_peripheral/Source\gd32vw55x_cau_des.c ****     cau_key_init(&key_initpara);
 225              		.loc 1 69 28 is_stmt 0
 226 0044 3ECE     		sw	a5,28(sp)
  70:C:/Users/stapi/OneDrive/Desktop/GD32VW553/V1_MQTT_OK/GD32VW55X_Wifi_BLE_SDK/GD32VW55x_RELEASE_V1.0.2/MSDK/plf/GD32VW55x_standard_peripheral/Source\gd32vw55x_cau_des.c **** 
 227              		.loc 1 70 5 is_stmt 1
 228 0046 97000000 		call	cau_key_init
 228      E7800000 
 229              	.LVL27:
  73:C:/Users/stapi/OneDrive/Desktop/GD32VW553/V1_MQTT_OK/GD32VW55X_Wifi_BLE_SDK/GD32VW55x_RELEASE_V1.0.2/MSDK/plf/GD32VW55x_standard_peripheral/Source\gd32vw55x_cau_des.c ****     /* enable the CAU peripheral */
 230              		.loc 1 73 5
 231 004e 97000000 		call	cau_fifo_flush
 231      E7800000 
 232              	.LVL28:
  75:C:/Users/stapi/OneDrive/Desktop/GD32VW553/V1_MQTT_OK/GD32VW55X_Wifi_BLE_SDK/GD32VW55x_RELEASE_V1.0.2/MSDK/plf/GD32VW55x_standard_peripheral/Source\gd32vw55x_cau_des.c ****     /* DES calculate process */
 233              		.loc 1 75 5
 234 0056 97000000 		call	cau_enable
 234      E7800000 
 235              	.LVL29:
  77:C:/Users/stapi/OneDrive/Desktop/GD32VW553/V1_MQTT_OK/GD32VW55X_Wifi_BLE_SDK/GD32VW55x_RELEASE_V1.0.2/MSDK/plf/GD32VW55x_standard_peripheral/Source\gd32vw55x_cau_des.c ****     /* disable the CAU peripheral */
 236              		.loc 1 77 5
  77:C:/Users/stapi/OneDrive/Desktop/GD32VW553/V1_MQTT_OK/GD32VW55X_Wifi_BLE_SDK/GD32VW55x_RELEASE_V1.0.2/MSDK/plf/GD32VW55x_standard_peripheral/Source\gd32vw55x_cau_des.c ****     /* disable the CAU peripheral */
 237              		.loc 1 77 11 is_stmt 0
 238 005e 0C4C     		lw	a1,24(s0)
 239 0060 2686     		mv	a2,s1
 240 0062 4E85     		mv	a0,s3
 241 0064 97000000 		call	cau_des_calculate
 241      E7800000 
 242              	.LVL30:
 243 006c 2AC6     		sw	a0,12(sp)
 244              	.LVL31:
  79:C:/Users/stapi/OneDrive/Desktop/GD32VW553/V1_MQTT_OK/GD32VW55X_Wifi_BLE_SDK/GD32VW55x_RELEASE_V1.0.2/MSDK/plf/GD32VW55x_standard_peripheral/Source\gd32vw55x_cau_des.c **** 
 245              		.loc 1 79 5 is_stmt 1
 246 006e 97000000 		call	cau_disable
 246      E7800000 
 247              	.LVL32:
  81:C:/Users/stapi/OneDrive/Desktop/GD32VW553/V1_MQTT_OK/GD32VW55X_Wifi_BLE_SDK/GD32VW55x_RELEASE_V1.0.2/MSDK/plf/GD32VW55x_standard_peripheral/Source\gd32vw55x_cau_des.c **** }
 248              		.loc 1 81 5
  82:C:/Users/stapi/OneDrive/Desktop/GD32VW553/V1_MQTT_OK/GD32VW55X_Wifi_BLE_SDK/GD32VW55x_RELEASE_V1.0.2/MSDK/plf/GD32VW55x_standard_peripheral/Source\gd32vw55x_cau_des.c **** 
 249              		.loc 1 82 1 is_stmt 0
 250 0076 3245     		lw	a0,12(sp)
 251 0078 4561     		addi	sp,sp,48
 252              		.cfi_def_cfa_offset 0
 253              	.LVL33:
 254 007a 17030000 		tail	__riscv_restore_4
 254      67000300 
 255              		.cfi_restore 19
 256              		.cfi_restore 18
 257              		.cfi_restore 9
 258              		.cfi_restore 8
 259              		.cfi_restore 1
 260              		.cfi_def_cfa_offset -32
 261              		.cfi_endproc
 262              	.LFE365:
 264              		.section	.text.cau_des_cbc,"ax",@progbits
 265              		.align	1
 266              		.globl	cau_des_cbc
 268              	cau_des_cbc:
 269              	.LFB366:
  97:C:/Users/stapi/OneDrive/Desktop/GD32VW553/V1_MQTT_OK/GD32VW55X_Wifi_BLE_SDK/GD32VW55x_RELEASE_V1.0.2/MSDK/plf/GD32VW55x_standard_peripheral/Source\gd32vw55x_cau_des.c ****     ErrStatus ret = ERROR;
 270              		.loc 1 97 1 is_stmt 1
 271              		.cfi_startproc
 272              	.LVL34:
 273 0000 17030000 		call	t0,__riscv_save_5
 273      E7020300 
 274              		.cfi_offset 20, -24
 275              		.cfi_offset 19, -20
 276              		.cfi_offset 18, -16
 277              		.cfi_offset 9, -12
 278              		.cfi_offset 8, -8
 279              		.cfi_offset 1, -4
 280              		.cfi_def_cfa_offset 32
  98:C:/Users/stapi/OneDrive/Desktop/GD32VW553/V1_MQTT_OK/GD32VW55X_Wifi_BLE_SDK/GD32VW55x_RELEASE_V1.0.2/MSDK/plf/GD32VW55x_standard_peripheral/Source\gd32vw55x_cau_des.c ****     cau_key_parameter_struct key_initpara;
 281              		.loc 1 98 5
 282              	.LVL35:
  99:C:/Users/stapi/OneDrive/Desktop/GD32VW553/V1_MQTT_OK/GD32VW55X_Wifi_BLE_SDK/GD32VW55x_RELEASE_V1.0.2/MSDK/plf/GD32VW55x_standard_peripheral/Source\gd32vw55x_cau_des.c ****     cau_iv_parameter_struct iv_initpara;
 283              		.loc 1 99 5
 100:C:/Users/stapi/OneDrive/Desktop/GD32VW553/V1_MQTT_OK/GD32VW55X_Wifi_BLE_SDK/GD32VW55x_RELEASE_V1.0.2/MSDK/plf/GD32VW55x_standard_peripheral/Source\gd32vw55x_cau_des.c ****     uint32_t keyaddr    = (uint32_t)(cau_parameter->key);
 284              		.loc 1 100 5
 101:C:/Users/stapi/OneDrive/Desktop/GD32VW553/V1_MQTT_OK/GD32VW55X_Wifi_BLE_SDK/GD32VW55x_RELEASE_V1.0.2/MSDK/plf/GD32VW55x_standard_peripheral/Source\gd32vw55x_cau_des.c ****     uint32_t inputaddr  = (uint32_t)(cau_parameter->input);
 285              		.loc 1 101 5
  97:C:/Users/stapi/OneDrive/Desktop/GD32VW553/V1_MQTT_OK/GD32VW55X_Wifi_BLE_SDK/GD32VW55x_RELEASE_V1.0.2/MSDK/plf/GD32VW55x_standard_peripheral/Source\gd32vw55x_cau_des.c ****     ErrStatus ret = ERROR;
 286              		.loc 1 97 1 is_stmt 0
 287 0008 3971     		addi	sp,sp,-64
 288              		.cfi_def_cfa_offset 96
 101:C:/Users/stapi/OneDrive/Desktop/GD32VW553/V1_MQTT_OK/GD32VW55X_Wifi_BLE_SDK/GD32VW55x_RELEASE_V1.0.2/MSDK/plf/GD32VW55x_standard_peripheral/Source\gd32vw55x_cau_des.c ****     uint32_t inputaddr  = (uint32_t)(cau_parameter->input);
 289              		.loc 1 101 51
 290 000a 83294500 		lw	s3,4(a0)
 291              	.LVL36:
 102:C:/Users/stapi/OneDrive/Desktop/GD32VW553/V1_MQTT_OK/GD32VW55X_Wifi_BLE_SDK/GD32VW55x_RELEASE_V1.0.2/MSDK/plf/GD32VW55x_standard_peripheral/Source\gd32vw55x_cau_des.c ****     uint32_t outputaddr = (uint32_t)output;
 292              		.loc 1 102 5 is_stmt 1
 104:C:/Users/stapi/OneDrive/Desktop/GD32VW553/V1_MQTT_OK/GD32VW55X_Wifi_BLE_SDK/GD32VW55x_RELEASE_V1.0.2/MSDK/plf/GD32VW55x_standard_peripheral/Source\gd32vw55x_cau_des.c **** 
 293              		.loc 1 104 51 is_stmt 0
 294 000e 0329C500 		lw	s2,12(a0)
  97:C:/Users/stapi/OneDrive/Desktop/GD32VW553/V1_MQTT_OK/GD32VW55X_Wifi_BLE_SDK/GD32VW55x_RELEASE_V1.0.2/MSDK/plf/GD32VW55x_standard_peripheral/Source\gd32vw55x_cau_des.c ****     ErrStatus ret = ERROR;
 295              		.loc 1 97 1
 296 0012 2A84     		mv	s0,a0
 102:C:/Users/stapi/OneDrive/Desktop/GD32VW553/V1_MQTT_OK/GD32VW55X_Wifi_BLE_SDK/GD32VW55x_RELEASE_V1.0.2/MSDK/plf/GD32VW55x_standard_peripheral/Source\gd32vw55x_cau_des.c ****     uint32_t outputaddr = (uint32_t)output;
 297              		.loc 1 102 51
 298 0014 032A4501 		lw	s4,20(a0)
 299              	.LVL37:
 103:C:/Users/stapi/OneDrive/Desktop/GD32VW553/V1_MQTT_OK/GD32VW55X_Wifi_BLE_SDK/GD32VW55x_RELEASE_V1.0.2/MSDK/plf/GD32VW55x_standard_peripheral/Source\gd32vw55x_cau_des.c ****     uint32_t ivaddr     = (uint32_t)(cau_parameter->iv);
 300              		.loc 1 103 5 is_stmt 1
 107:C:/Users/stapi/OneDrive/Desktop/GD32VW553/V1_MQTT_OK/GD32VW55X_Wifi_BLE_SDK/GD32VW55x_RELEASE_V1.0.2/MSDK/plf/GD32VW55x_standard_peripheral/Source\gd32vw55x_cau_des.c ****     /* initialize the CAU peripheral */
 301              		.loc 1 107 5 is_stmt 0
 302 0018 0810     		addi	a0,sp,32
 303              	.LVL38:
  97:C:/Users/stapi/OneDrive/Desktop/GD32VW553/V1_MQTT_OK/GD32VW55X_Wifi_BLE_SDK/GD32VW55x_RELEASE_V1.0.2/MSDK/plf/GD32VW55x_standard_peripheral/Source\gd32vw55x_cau_des.c ****     ErrStatus ret = ERROR;
 304              		.loc 1 97 1
 305 001a AE84     		mv	s1,a1
 306              	.LVL39:
 104:C:/Users/stapi/OneDrive/Desktop/GD32VW553/V1_MQTT_OK/GD32VW55X_Wifi_BLE_SDK/GD32VW55x_RELEASE_V1.0.2/MSDK/plf/GD32VW55x_standard_peripheral/Source\gd32vw55x_cau_des.c **** 
 307              		.loc 1 104 5 is_stmt 1
 107:C:/Users/stapi/OneDrive/Desktop/GD32VW553/V1_MQTT_OK/GD32VW55X_Wifi_BLE_SDK/GD32VW55x_RELEASE_V1.0.2/MSDK/plf/GD32VW55x_standard_peripheral/Source\gd32vw55x_cau_des.c ****     /* initialize the CAU peripheral */
 308              		.loc 1 107 5
 309 001c 97000000 		call	cau_key_struct_para_init
 309      E7800000 
 310              	.LVL40:
 109:C:/Users/stapi/OneDrive/Desktop/GD32VW553/V1_MQTT_OK/GD32VW55X_Wifi_BLE_SDK/GD32VW55x_RELEASE_V1.0.2/MSDK/plf/GD32VW55x_standard_peripheral/Source\gd32vw55x_cau_des.c **** 
 311              		.loc 1 109 5
 312 0024 0840     		lw	a0,0(s0)
 313 0026 13060008 		li	a2,128
 314 002a E145     		li	a1,24
 315 002c 97000000 		call	cau_init
 315      E7800000 
 316              	.LVL41:
 112:C:/Users/stapi/OneDrive/Desktop/GD32VW553/V1_MQTT_OK/GD32VW55X_Wifi_BLE_SDK/GD32VW55x_RELEASE_V1.0.2/MSDK/plf/GD32VW55x_standard_peripheral/Source\gd32vw55x_cau_des.c ****     keyaddr += 4U;
 317              		.loc 1 112 5
 318 0034 83A70900 		lw	a5,0(s3)
 115:C:/Users/stapi/OneDrive/Desktop/GD32VW553/V1_MQTT_OK/GD32VW55X_Wifi_BLE_SDK/GD32VW55x_RELEASE_V1.0.2/MSDK/plf/GD32VW55x_standard_peripheral/Source\gd32vw55x_cau_des.c **** 
 319              		.loc 1 115 5 is_stmt 0
 320 0038 0810     		addi	a0,sp,32
 321 003a 93D78769 		rev8	a5,a5
 322              	.LVL42:
 323              	.LBB18:
 324              	.LBB19:
 122:..\..\..\..\plf\riscv\NMSIS\Core\Include/core_compatiable.h **** 
 325              		.loc 2 122 5 is_stmt 1
 124:..\..\..\..\plf\riscv\NMSIS\Core\Include/core_compatiable.h ****         | ((value & 0x00ff0000) >> 8 )
 326              		.loc 2 124 5
 327              		.loc 2 128 5
 328              	.LBE19:
 329              	.LBE18:
 112:C:/Users/stapi/OneDrive/Desktop/GD32VW553/V1_MQTT_OK/GD32VW55X_Wifi_BLE_SDK/GD32VW55x_RELEASE_V1.0.2/MSDK/plf/GD32VW55x_standard_peripheral/Source\gd32vw55x_cau_des.c ****     keyaddr += 4U;
 330              		.loc 1 112 29 is_stmt 0
 331 003e 3ED4     		sw	a5,40(sp)
 113:C:/Users/stapi/OneDrive/Desktop/GD32VW553/V1_MQTT_OK/GD32VW55X_Wifi_BLE_SDK/GD32VW55x_RELEASE_V1.0.2/MSDK/plf/GD32VW55x_standard_peripheral/Source\gd32vw55x_cau_des.c ****     key_initpara.key_1_low = __REV(*(uint32_t *)(keyaddr));
 332              		.loc 1 113 5 is_stmt 1
 333              	.LVL43:
 114:C:/Users/stapi/OneDrive/Desktop/GD32VW553/V1_MQTT_OK/GD32VW55X_Wifi_BLE_SDK/GD32VW55x_RELEASE_V1.0.2/MSDK/plf/GD32VW55x_standard_peripheral/Source\gd32vw55x_cau_des.c ****     cau_key_init(&key_initpara);
 334              		.loc 1 114 5
 335 0040 83A74900 		lw	a5,4(s3)
 336 0044 93D78769 		rev8	a5,a5
 337              	.LVL44:
 338              	.LBB20:
 339              	.LBB21:
 122:..\..\..\..\plf\riscv\NMSIS\Core\Include/core_compatiable.h **** 
 340              		.loc 2 122 5
 124:..\..\..\..\plf\riscv\NMSIS\Core\Include/core_compatiable.h ****         | ((value & 0x00ff0000) >> 8 )
 341              		.loc 2 124 5
 342              		.loc 2 128 5
 343              	.LBE21:
 344              	.LBE20:
 114:C:/Users/stapi/OneDrive/Desktop/GD32VW553/V1_MQTT_OK/GD32VW55X_Wifi_BLE_SDK/GD32VW55x_RELEASE_V1.0.2/MSDK/plf/GD32VW55x_standard_peripheral/Source\gd32vw55x_cau_des.c ****     cau_key_init(&key_initpara);
 345              		.loc 1 114 28 is_stmt 0
 346 0048 3ED6     		sw	a5,44(sp)
 115:C:/Users/stapi/OneDrive/Desktop/GD32VW553/V1_MQTT_OK/GD32VW55X_Wifi_BLE_SDK/GD32VW55x_RELEASE_V1.0.2/MSDK/plf/GD32VW55x_standard_peripheral/Source\gd32vw55x_cau_des.c **** 
 347              		.loc 1 115 5 is_stmt 1
 348 004a 97000000 		call	cau_key_init
 348      E7800000 
 349              	.LVL45:
 118:C:/Users/stapi/OneDrive/Desktop/GD32VW553/V1_MQTT_OK/GD32VW55X_Wifi_BLE_SDK/GD32VW55x_RELEASE_V1.0.2/MSDK/plf/GD32VW55x_standard_peripheral/Source\gd32vw55x_cau_des.c ****     ivaddr += 4U;
 350              		.loc 1 118 5
 351 0052 83270900 		lw	a5,0(s2)
 121:C:/Users/stapi/OneDrive/Desktop/GD32VW553/V1_MQTT_OK/GD32VW55X_Wifi_BLE_SDK/GD32VW55x_RELEASE_V1.0.2/MSDK/plf/GD32VW55x_standard_peripheral/Source\gd32vw55x_cau_des.c **** 
 352              		.loc 1 121 5 is_stmt 0
 353 0056 0808     		addi	a0,sp,16
 354 0058 93D78769 		rev8	a5,a5
 355              	.LVL46:
 356              	.LBB22:
 357              	.LBB23:
 122:..\..\..\..\plf\riscv\NMSIS\Core\Include/core_compatiable.h **** 
 358              		.loc 2 122 5 is_stmt 1
 124:..\..\..\..\plf\riscv\NMSIS\Core\Include/core_compatiable.h ****         | ((value & 0x00ff0000) >> 8 )
 359              		.loc 2 124 5
 360              		.loc 2 128 5
 361              	.LBE23:
 362              	.LBE22:
 118:C:/Users/stapi/OneDrive/Desktop/GD32VW553/V1_MQTT_OK/GD32VW55X_Wifi_BLE_SDK/GD32VW55x_RELEASE_V1.0.2/MSDK/plf/GD32VW55x_standard_peripheral/Source\gd32vw55x_cau_des.c ****     ivaddr += 4U;
 363              		.loc 1 118 27 is_stmt 0
 364 005c 3EC8     		sw	a5,16(sp)
 119:C:/Users/stapi/OneDrive/Desktop/GD32VW553/V1_MQTT_OK/GD32VW55X_Wifi_BLE_SDK/GD32VW55x_RELEASE_V1.0.2/MSDK/plf/GD32VW55x_standard_peripheral/Source\gd32vw55x_cau_des.c ****     iv_initpara.iv_0_low = __REV(*(uint32_t *)(ivaddr));
 365              		.loc 1 119 5 is_stmt 1
 366              	.LVL47:
 120:C:/Users/stapi/OneDrive/Desktop/GD32VW553/V1_MQTT_OK/GD32VW55X_Wifi_BLE_SDK/GD32VW55x_RELEASE_V1.0.2/MSDK/plf/GD32VW55x_standard_peripheral/Source\gd32vw55x_cau_des.c ****     cau_iv_init(&iv_initpara);
 367              		.loc 1 120 5
 368 005e 83274900 		lw	a5,4(s2)
 369 0062 93D78769 		rev8	a5,a5
 370              	.LVL48:
 371              	.LBB24:
 372              	.LBB25:
 122:..\..\..\..\plf\riscv\NMSIS\Core\Include/core_compatiable.h **** 
 373              		.loc 2 122 5
 124:..\..\..\..\plf\riscv\NMSIS\Core\Include/core_compatiable.h ****         | ((value & 0x00ff0000) >> 8 )
 374              		.loc 2 124 5
 375              		.loc 2 128 5
 376              	.LBE25:
 377              	.LBE24:
 120:C:/Users/stapi/OneDrive/Desktop/GD32VW553/V1_MQTT_OK/GD32VW55X_Wifi_BLE_SDK/GD32VW55x_RELEASE_V1.0.2/MSDK/plf/GD32VW55x_standard_peripheral/Source\gd32vw55x_cau_des.c ****     cau_iv_init(&iv_initpara);
 378              		.loc 1 120 26 is_stmt 0
 379 0066 3ECA     		sw	a5,20(sp)
 121:C:/Users/stapi/OneDrive/Desktop/GD32VW553/V1_MQTT_OK/GD32VW55X_Wifi_BLE_SDK/GD32VW55x_RELEASE_V1.0.2/MSDK/plf/GD32VW55x_standard_peripheral/Source\gd32vw55x_cau_des.c **** 
 380              		.loc 1 121 5 is_stmt 1
 381 0068 97000000 		call	cau_iv_init
 381      E7800000 
 382              	.LVL49:
 124:C:/Users/stapi/OneDrive/Desktop/GD32VW553/V1_MQTT_OK/GD32VW55X_Wifi_BLE_SDK/GD32VW55x_RELEASE_V1.0.2/MSDK/plf/GD32VW55x_standard_peripheral/Source\gd32vw55x_cau_des.c **** 
 383              		.loc 1 124 5
 384 0070 97000000 		call	cau_fifo_flush
 384      E7800000 
 385              	.LVL50:
 127:C:/Users/stapi/OneDrive/Desktop/GD32VW553/V1_MQTT_OK/GD32VW55X_Wifi_BLE_SDK/GD32VW55x_RELEASE_V1.0.2/MSDK/plf/GD32VW55x_standard_peripheral/Source\gd32vw55x_cau_des.c ****     /* DES calculate process */
 386              		.loc 1 127 5
 387 0078 97000000 		call	cau_enable
 387      E7800000 
 388              	.LVL51:
 129:C:/Users/stapi/OneDrive/Desktop/GD32VW553/V1_MQTT_OK/GD32VW55X_Wifi_BLE_SDK/GD32VW55x_RELEASE_V1.0.2/MSDK/plf/GD32VW55x_standard_peripheral/Source\gd32vw55x_cau_des.c ****     /* disable the CAU peripheral */
 389              		.loc 1 129 5
 129:C:/Users/stapi/OneDrive/Desktop/GD32VW553/V1_MQTT_OK/GD32VW55X_Wifi_BLE_SDK/GD32VW55x_RELEASE_V1.0.2/MSDK/plf/GD32VW55x_standard_peripheral/Source\gd32vw55x_cau_des.c ****     /* disable the CAU peripheral */
 390              		.loc 1 129 11 is_stmt 0
 391 0080 0C4C     		lw	a1,24(s0)
 392 0082 2686     		mv	a2,s1
 393 0084 5285     		mv	a0,s4
 394 0086 97000000 		call	cau_des_calculate
 394      E7800000 
 395              	.LVL52:
 396 008e 2AC6     		sw	a0,12(sp)
 397              	.LVL53:
 131:C:/Users/stapi/OneDrive/Desktop/GD32VW553/V1_MQTT_OK/GD32VW55X_Wifi_BLE_SDK/GD32VW55x_RELEASE_V1.0.2/MSDK/plf/GD32VW55x_standard_peripheral/Source\gd32vw55x_cau_des.c **** 
 398              		.loc 1 131 5 is_stmt 1
 399 0090 97000000 		call	cau_disable
 399      E7800000 
 400              	.LVL54:
 133:C:/Users/stapi/OneDrive/Desktop/GD32VW553/V1_MQTT_OK/GD32VW55X_Wifi_BLE_SDK/GD32VW55x_RELEASE_V1.0.2/MSDK/plf/GD32VW55x_standard_peripheral/Source\gd32vw55x_cau_des.c **** }
 401              		.loc 1 133 5
 134:C:/Users/stapi/OneDrive/Desktop/GD32VW553/V1_MQTT_OK/GD32VW55X_Wifi_BLE_SDK/GD32VW55x_RELEASE_V1.0.2/MSDK/plf/GD32VW55x_standard_peripheral/Source\gd32vw55x_cau_des.c **** 
 402              		.loc 1 134 1 is_stmt 0
 403 0098 3245     		lw	a0,12(sp)
 404 009a 2161     		addi	sp,sp,64
 405              		.cfi_def_cfa_offset 0
 406              	.LVL55:
 407 009c 17030000 		tail	__riscv_restore_5
 407      67000300 
 408              		.cfi_restore 20
 409              		.cfi_restore 19
 410              		.cfi_restore 18
 411              		.cfi_restore 9
 412              		.cfi_restore 8
 413              		.cfi_restore 1
 414              		.cfi_def_cfa_offset -32
 415              		.cfi_endproc
 416              	.LFE366:
 418              		.text
 419              	.Letext0:
 420              		.file 3 "c:\\users\\stapi\\onedrive\\desktop\\gd32vw553\\embeddedbuilder_v1.4.7.26843\\tools\\nucl
 421              		.file 4 "c:\\users\\stapi\\onedrive\\desktop\\gd32vw553\\embeddedbuilder_v1.4.7.26843\\tools\\nucl
 422              		.file 5 "..\\..\\..\\..\\plf\\riscv\\gd32vw55x/gd32vw55x.h"
 423              		.file 6 "..\\..\\..\\..\\plf\\GD32VW55x_standard_peripheral\\Include/gd32vw55x_cau.h"
DEFINED SYMBOLS
                            *ABS*:0000000000000000 gd32vw55x_cau_des.c
C:\Users\stapi\AppData\Local\Temp\ccnBFHhc.s:12     .text.cau_des_calculate:0000000000000000 cau_des_calculate
C:\Users\stapi\AppData\Local\Temp\ccnBFHhc.s:16     .text.cau_des_calculate:0000000000000000 .L0 
C:\Users\stapi\AppData\Local\Temp\ccnBFHhc.s:18     .text.cau_des_calculate:0000000000000000 .L0 
C:\Users\stapi\AppData\Local\Temp\ccnBFHhc.s:19     .text.cau_des_calculate:0000000000000008 .L0 
C:\Users\stapi\AppData\Local\Temp\ccnBFHhc.s:20     .text.cau_des_calculate:0000000000000008 .L0 
C:\Users\stapi\AppData\Local\Temp\ccnBFHhc.s:21     .text.cau_des_calculate:0000000000000008 .L0 
C:\Users\stapi\AppData\Local\Temp\ccnBFHhc.s:22     .text.cau_des_calculate:0000000000000008 .L0 
C:\Users\stapi\AppData\Local\Temp\ccnBFHhc.s:23     .text.cau_des_calculate:0000000000000008 .L0 
C:\Users\stapi\AppData\Local\Temp\ccnBFHhc.s:24     .text.cau_des_calculate:0000000000000008 .L0 
C:\Users\stapi\AppData\Local\Temp\ccnBFHhc.s:25     .text.cau_des_calculate:0000000000000008 .L0 
C:\Users\stapi\AppData\Local\Temp\ccnBFHhc.s:27     .text.cau_des_calculate:000000000000000a .L0 
C:\Users\stapi\AppData\Local\Temp\ccnBFHhc.s:29     .text.cau_des_calculate:000000000000000a .L0 
C:\Users\stapi\AppData\Local\Temp\ccnBFHhc.s:33     .text.cau_des_calculate:000000000000000e .L0 
C:\Users\stapi\AppData\Local\Temp\ccnBFHhc.s:34     .text.cau_des_calculate:000000000000000e .L0 
C:\Users\stapi\AppData\Local\Temp\ccnBFHhc.s:35     .text.cau_des_calculate:000000000000000e .L0 
C:\Users\stapi\AppData\Local\Temp\ccnBFHhc.s:36     .text.cau_des_calculate:000000000000000e .L0 
C:\Users\stapi\AppData\Local\Temp\ccnBFHhc.s:37     .text.cau_des_calculate:000000000000000e .L0 
C:\Users\stapi\AppData\Local\Temp\ccnBFHhc.s:39     .text.cau_des_calculate:0000000000000010 .L0 
C:\Users\stapi\AppData\Local\Temp\ccnBFHhc.s:42     .text.cau_des_calculate:0000000000000012 .L0 
C:\Users\stapi\AppData\Local\Temp\ccnBFHhc.s:43     .text.cau_des_calculate:0000000000000012 .L0 
C:\Users\stapi\AppData\Local\Temp\ccnBFHhc.s:44     .text.cau_des_calculate:0000000000000012 .L0 
C:\Users\stapi\AppData\Local\Temp\ccnBFHhc.s:47     .text.cau_des_calculate:000000000000001a .L0 
C:\Users\stapi\AppData\Local\Temp\ccnBFHhc.s:51     .text.cau_des_calculate:000000000000001c .L0 
C:\Users\stapi\AppData\Local\Temp\ccnBFHhc.s:54     .text.cau_des_calculate:000000000000001e .L0 
C:\Users\stapi\AppData\Local\Temp\ccnBFHhc.s:55     .text.cau_des_calculate:0000000000000020 .L0 
C:\Users\stapi\AppData\Local\Temp\ccnBFHhc.s:56     .text.cau_des_calculate:0000000000000020 .L0 
C:\Users\stapi\AppData\Local\Temp\ccnBFHhc.s:58     .text.cau_des_calculate:0000000000000028 .L0 
C:\Users\stapi\AppData\Local\Temp\ccnBFHhc.s:59     .text.cau_des_calculate:0000000000000028 .L0 
C:\Users\stapi\AppData\Local\Temp\ccnBFHhc.s:60     .text.cau_des_calculate:0000000000000028 .L0 
C:\Users\stapi\AppData\Local\Temp\ccnBFHhc.s:61     .text.cau_des_calculate:0000000000000028 .L0 
C:\Users\stapi\AppData\Local\Temp\ccnBFHhc.s:62     .text.cau_des_calculate:0000000000000028 .L0 
C:\Users\stapi\AppData\Local\Temp\ccnBFHhc.s:63     .text.cau_des_calculate:0000000000000028 .L0 
C:\Users\stapi\AppData\Local\Temp\ccnBFHhc.s:64     .text.cau_des_calculate:0000000000000028 .L0 
C:\Users\stapi\AppData\Local\Temp\ccnBFHhc.s:67     .text.cau_des_calculate:0000000000000028 .L0 
C:\Users\stapi\AppData\Local\Temp\ccnBFHhc.s:69     .text.cau_des_calculate:0000000000000028 .L0 
C:\Users\stapi\AppData\Local\Temp\ccnBFHhc.s:71     .text.cau_des_calculate:000000000000002a .L0 
C:\Users\stapi\AppData\Local\Temp\ccnBFHhc.s:75     .text.cau_des_calculate:000000000000002c .L0 
C:\Users\stapi\AppData\Local\Temp\ccnBFHhc.s:76     .text.cau_des_calculate:000000000000002c .L0 
C:\Users\stapi\AppData\Local\Temp\ccnBFHhc.s:79     .text.cau_des_calculate:0000000000000034 .L0 
C:\Users\stapi\AppData\Local\Temp\ccnBFHhc.s:83     .text.cau_des_calculate:0000000000000038 .L0 
C:\Users\stapi\AppData\Local\Temp\ccnBFHhc.s:87     .text.cau_des_calculate:0000000000000042 .L0 
C:\Users\stapi\AppData\Local\Temp\ccnBFHhc.s:88     .text.cau_des_calculate:0000000000000042 .L0 
C:\Users\stapi\AppData\Local\Temp\ccnBFHhc.s:90     .text.cau_des_calculate:0000000000000044 .L0 
C:\Users\stapi\AppData\Local\Temp\ccnBFHhc.s:93     .text.cau_des_calculate:0000000000000046 .L0 
C:\Users\stapi\AppData\Local\Temp\ccnBFHhc.s:96     .text.cau_des_calculate:000000000000004e .L0 
C:\Users\stapi\AppData\Local\Temp\ccnBFHhc.s:97     .text.cau_des_calculate:000000000000004e .L0 
C:\Users\stapi\AppData\Local\Temp\ccnBFHhc.s:98     .text.cau_des_calculate:000000000000004e .L0 
C:\Users\stapi\AppData\Local\Temp\ccnBFHhc.s:101    .text.cau_des_calculate:0000000000000050 .L0 
C:\Users\stapi\AppData\Local\Temp\ccnBFHhc.s:102    .text.cau_des_calculate:0000000000000050 .L0 
C:\Users\stapi\AppData\Local\Temp\ccnBFHhc.s:103    .text.cau_des_calculate:0000000000000050 .L0 
C:\Users\stapi\AppData\Local\Temp\ccnBFHhc.s:107    .text.cau_des_calculate:000000000000005a .L0 
C:\Users\stapi\AppData\Local\Temp\ccnBFHhc.s:108    .text.cau_des_calculate:000000000000005a .L0 
C:\Users\stapi\AppData\Local\Temp\ccnBFHhc.s:112    .text.cau_des_calculate:0000000000000060 .L0 
C:\Users\stapi\AppData\Local\Temp\ccnBFHhc.s:113    .text.cau_des_calculate:0000000000000060 .L0 
C:\Users\stapi\AppData\Local\Temp\ccnBFHhc.s:115    .text.cau_des_calculate:0000000000000062 .L0 
C:\Users\stapi\AppData\Local\Temp\ccnBFHhc.s:117    .text.cau_des_calculate:0000000000000066 .L0 
C:\Users\stapi\AppData\Local\Temp\ccnBFHhc.s:120    .text.cau_des_calculate:0000000000000068 .L0 
C:\Users\stapi\AppData\Local\Temp\ccnBFHhc.s:121    .text.cau_des_calculate:0000000000000068 .L0 
C:\Users\stapi\AppData\Local\Temp\ccnBFHhc.s:124    .text.cau_des_calculate:0000000000000070 .L0 
C:\Users\stapi\AppData\Local\Temp\ccnBFHhc.s:127    .text.cau_des_calculate:0000000000000072 .L0 
C:\Users\stapi\AppData\Local\Temp\ccnBFHhc.s:128    .text.cau_des_calculate:0000000000000072 .L0 
C:\Users\stapi\AppData\Local\Temp\ccnBFHhc.s:129    .text.cau_des_calculate:0000000000000072 .L0 
C:\Users\stapi\AppData\Local\Temp\ccnBFHhc.s:132    .text.cau_des_calculate:000000000000007a .L0 
C:\Users\stapi\AppData\Local\Temp\ccnBFHhc.s:134    .text.cau_des_calculate:000000000000007c .L0 
C:\Users\stapi\AppData\Local\Temp\ccnBFHhc.s:135    .text.cau_des_calculate:000000000000007c .L0 
C:\Users\stapi\AppData\Local\Temp\ccnBFHhc.s:138    .text.cau_des_calculate:000000000000007e .L0 
C:\Users\stapi\AppData\Local\Temp\ccnBFHhc.s:142    .text.cau_des_calculate:0000000000000080 .L0 
C:\Users\stapi\AppData\Local\Temp\ccnBFHhc.s:143    .text.cau_des_calculate:0000000000000080 .L0 
C:\Users\stapi\AppData\Local\Temp\ccnBFHhc.s:145    .text.cau_des_calculate:0000000000000084 .L0 
C:\Users\stapi\AppData\Local\Temp\ccnBFHhc.s:152    .text.cau_des_ecb:0000000000000000 cau_des_ecb
C:\Users\stapi\AppData\Local\Temp\ccnBFHhc.s:155    .text.cau_des_ecb:0000000000000000 .L0 
C:\Users\stapi\AppData\Local\Temp\ccnBFHhc.s:157    .text.cau_des_ecb:0000000000000000 .L0 
C:\Users\stapi\AppData\Local\Temp\ccnBFHhc.s:158    .text.cau_des_ecb:0000000000000008 .L0 
C:\Users\stapi\AppData\Local\Temp\ccnBFHhc.s:159    .text.cau_des_ecb:0000000000000008 .L0 
C:\Users\stapi\AppData\Local\Temp\ccnBFHhc.s:160    .text.cau_des_ecb:0000000000000008 .L0 
C:\Users\stapi\AppData\Local\Temp\ccnBFHhc.s:161    .text.cau_des_ecb:0000000000000008 .L0 
C:\Users\stapi\AppData\Local\Temp\ccnBFHhc.s:162    .text.cau_des_ecb:0000000000000008 .L0 
C:\Users\stapi\AppData\Local\Temp\ccnBFHhc.s:163    .text.cau_des_ecb:0000000000000008 .L0 
C:\Users\stapi\AppData\Local\Temp\ccnBFHhc.s:166    .text.cau_des_ecb:0000000000000008 .L0 
C:\Users\stapi\AppData\Local\Temp\ccnBFHhc.s:167    .text.cau_des_ecb:0000000000000008 .L0 
C:\Users\stapi\AppData\Local\Temp\ccnBFHhc.s:168    .text.cau_des_ecb:0000000000000008 .L0 
C:\Users\stapi\AppData\Local\Temp\ccnBFHhc.s:169    .text.cau_des_ecb:0000000000000008 .L0 
C:\Users\stapi\AppData\Local\Temp\ccnBFHhc.s:170    .text.cau_des_ecb:000000000000000a .L0 
C:\Users\stapi\AppData\Local\Temp\ccnBFHhc.s:172    .text.cau_des_ecb:000000000000000a .L0 
C:\Users\stapi\AppData\Local\Temp\ccnBFHhc.s:175    .text.cau_des_ecb:000000000000000e .L0 
C:\Users\stapi\AppData\Local\Temp\ccnBFHhc.s:176    .text.cau_des_ecb:000000000000000e .L0 
C:\Users\stapi\AppData\Local\Temp\ccnBFHhc.s:178    .text.cau_des_ecb:0000000000000010 .L0 
C:\Users\stapi\AppData\Local\Temp\ccnBFHhc.s:181    .text.cau_des_ecb:0000000000000014 .L0 
C:\Users\stapi\AppData\Local\Temp\ccnBFHhc.s:182    .text.cau_des_ecb:0000000000000014 .L0 
C:\Users\stapi\AppData\Local\Temp\ccnBFHhc.s:185    .text.cau_des_ecb:0000000000000016 .L0 
C:\Users\stapi\AppData\Local\Temp\ccnBFHhc.s:188    .text.cau_des_ecb:0000000000000018 .L0 
C:\Users\stapi\AppData\Local\Temp\ccnBFHhc.s:191    .text.cau_des_ecb:0000000000000020 .L0 
C:\Users\stapi\AppData\Local\Temp\ccnBFHhc.s:197    .text.cau_des_ecb:0000000000000030 .L0 
C:\Users\stapi\AppData\Local\Temp\ccnBFHhc.s:199    .text.cau_des_ecb:0000000000000034 .L0 
C:\Users\stapi\AppData\Local\Temp\ccnBFHhc.s:206    .text.cau_des_ecb:000000000000003a .L0 
C:\Users\stapi\AppData\Local\Temp\ccnBFHhc.s:207    .text.cau_des_ecb:000000000000003a .L0 
C:\Users\stapi\AppData\Local\Temp\ccnBFHhc.s:210    .text.cau_des_ecb:000000000000003a .L0 
C:\Users\stapi\AppData\Local\Temp\ccnBFHhc.s:211    .text.cau_des_ecb:000000000000003a .L0 
C:\Users\stapi\AppData\Local\Temp\ccnBFHhc.s:214    .text.cau_des_ecb:000000000000003c .L0 
C:\Users\stapi\AppData\Local\Temp\ccnBFHhc.s:215    .text.cau_des_ecb:000000000000003c .L0 
C:\Users\stapi\AppData\Local\Temp\ccnBFHhc.s:221    .text.cau_des_ecb:0000000000000044 .L0 
C:\Users\stapi\AppData\Local\Temp\ccnBFHhc.s:222    .text.cau_des_ecb:0000000000000044 .L0 
C:\Users\stapi\AppData\Local\Temp\ccnBFHhc.s:225    .text.cau_des_ecb:0000000000000044 .L0 
C:\Users\stapi\AppData\Local\Temp\ccnBFHhc.s:226    .text.cau_des_ecb:0000000000000044 .L0 
C:\Users\stapi\AppData\Local\Temp\ccnBFHhc.s:228    .text.cau_des_ecb:0000000000000046 .L0 
C:\Users\stapi\AppData\Local\Temp\ccnBFHhc.s:231    .text.cau_des_ecb:000000000000004e .L0 
C:\Users\stapi\AppData\Local\Temp\ccnBFHhc.s:234    .text.cau_des_ecb:0000000000000056 .L0 
C:\Users\stapi\AppData\Local\Temp\ccnBFHhc.s:237    .text.cau_des_ecb:000000000000005e .L0 
C:\Users\stapi\AppData\Local\Temp\ccnBFHhc.s:238    .text.cau_des_ecb:000000000000005e .L0 
C:\Users\stapi\AppData\Local\Temp\ccnBFHhc.s:246    .text.cau_des_ecb:000000000000006e .L0 
C:\Users\stapi\AppData\Local\Temp\ccnBFHhc.s:249    .text.cau_des_ecb:0000000000000076 .L0 
C:\Users\stapi\AppData\Local\Temp\ccnBFHhc.s:250    .text.cau_des_ecb:0000000000000076 .L0 
C:\Users\stapi\AppData\Local\Temp\ccnBFHhc.s:252    .text.cau_des_ecb:000000000000007a .L0 
C:\Users\stapi\AppData\Local\Temp\ccnBFHhc.s:255    .text.cau_des_ecb:0000000000000082 .L0 
C:\Users\stapi\AppData\Local\Temp\ccnBFHhc.s:256    .text.cau_des_ecb:0000000000000082 .L0 
C:\Users\stapi\AppData\Local\Temp\ccnBFHhc.s:257    .text.cau_des_ecb:0000000000000082 .L0 
C:\Users\stapi\AppData\Local\Temp\ccnBFHhc.s:258    .text.cau_des_ecb:0000000000000082 .L0 
C:\Users\stapi\AppData\Local\Temp\ccnBFHhc.s:259    .text.cau_des_ecb:0000000000000082 .L0 
C:\Users\stapi\AppData\Local\Temp\ccnBFHhc.s:260    .text.cau_des_ecb:0000000000000082 .L0 
C:\Users\stapi\AppData\Local\Temp\ccnBFHhc.s:261    .text.cau_des_ecb:0000000000000082 .L0 
C:\Users\stapi\AppData\Local\Temp\ccnBFHhc.s:268    .text.cau_des_cbc:0000000000000000 cau_des_cbc
C:\Users\stapi\AppData\Local\Temp\ccnBFHhc.s:271    .text.cau_des_cbc:0000000000000000 .L0 
C:\Users\stapi\AppData\Local\Temp\ccnBFHhc.s:273    .text.cau_des_cbc:0000000000000000 .L0 
C:\Users\stapi\AppData\Local\Temp\ccnBFHhc.s:274    .text.cau_des_cbc:0000000000000008 .L0 
C:\Users\stapi\AppData\Local\Temp\ccnBFHhc.s:275    .text.cau_des_cbc:0000000000000008 .L0 
C:\Users\stapi\AppData\Local\Temp\ccnBFHhc.s:276    .text.cau_des_cbc:0000000000000008 .L0 
C:\Users\stapi\AppData\Local\Temp\ccnBFHhc.s:277    .text.cau_des_cbc:0000000000000008 .L0 
C:\Users\stapi\AppData\Local\Temp\ccnBFHhc.s:278    .text.cau_des_cbc:0000000000000008 .L0 
C:\Users\stapi\AppData\Local\Temp\ccnBFHhc.s:279    .text.cau_des_cbc:0000000000000008 .L0 
C:\Users\stapi\AppData\Local\Temp\ccnBFHhc.s:280    .text.cau_des_cbc:0000000000000008 .L0 
C:\Users\stapi\AppData\Local\Temp\ccnBFHhc.s:283    .text.cau_des_cbc:0000000000000008 .L0 
C:\Users\stapi\AppData\Local\Temp\ccnBFHhc.s:284    .text.cau_des_cbc:0000000000000008 .L0 
C:\Users\stapi\AppData\Local\Temp\ccnBFHhc.s:285    .text.cau_des_cbc:0000000000000008 .L0 
C:\Users\stapi\AppData\Local\Temp\ccnBFHhc.s:286    .text.cau_des_cbc:0000000000000008 .L0 
C:\Users\stapi\AppData\Local\Temp\ccnBFHhc.s:287    .text.cau_des_cbc:0000000000000008 .L0 
C:\Users\stapi\AppData\Local\Temp\ccnBFHhc.s:288    .text.cau_des_cbc:000000000000000a .L0 
C:\Users\stapi\AppData\Local\Temp\ccnBFHhc.s:290    .text.cau_des_cbc:000000000000000a .L0 
C:\Users\stapi\AppData\Local\Temp\ccnBFHhc.s:293    .text.cau_des_cbc:000000000000000e .L0 
C:\Users\stapi\AppData\Local\Temp\ccnBFHhc.s:294    .text.cau_des_cbc:000000000000000e .L0 
C:\Users\stapi\AppData\Local\Temp\ccnBFHhc.s:296    .text.cau_des_cbc:0000000000000012 .L0 
C:\Users\stapi\AppData\Local\Temp\ccnBFHhc.s:298    .text.cau_des_cbc:0000000000000014 .L0 
C:\Users\stapi\AppData\Local\Temp\ccnBFHhc.s:301    .text.cau_des_cbc:0000000000000018 .L0 
C:\Users\stapi\AppData\Local\Temp\ccnBFHhc.s:302    .text.cau_des_cbc:0000000000000018 .L0 
C:\Users\stapi\AppData\Local\Temp\ccnBFHhc.s:305    .text.cau_des_cbc:000000000000001a .L0 
C:\Users\stapi\AppData\Local\Temp\ccnBFHhc.s:308    .text.cau_des_cbc:000000000000001c .L0 
C:\Users\stapi\AppData\Local\Temp\ccnBFHhc.s:309    .text.cau_des_cbc:000000000000001c .L0 
C:\Users\stapi\AppData\Local\Temp\ccnBFHhc.s:312    .text.cau_des_cbc:0000000000000024 .L0 
C:\Users\stapi\AppData\Local\Temp\ccnBFHhc.s:318    .text.cau_des_cbc:0000000000000034 .L0 
C:\Users\stapi\AppData\Local\Temp\ccnBFHhc.s:320    .text.cau_des_cbc:0000000000000038 .L0 
C:\Users\stapi\AppData\Local\Temp\ccnBFHhc.s:326    .text.cau_des_cbc:000000000000003e .L0 
C:\Users\stapi\AppData\Local\Temp\ccnBFHhc.s:327    .text.cau_des_cbc:000000000000003e .L0 
C:\Users\stapi\AppData\Local\Temp\ccnBFHhc.s:330    .text.cau_des_cbc:000000000000003e .L0 
C:\Users\stapi\AppData\Local\Temp\ccnBFHhc.s:331    .text.cau_des_cbc:000000000000003e .L0 
C:\Users\stapi\AppData\Local\Temp\ccnBFHhc.s:334    .text.cau_des_cbc:0000000000000040 .L0 
C:\Users\stapi\AppData\Local\Temp\ccnBFHhc.s:335    .text.cau_des_cbc:0000000000000040 .L0 
C:\Users\stapi\AppData\Local\Temp\ccnBFHhc.s:341    .text.cau_des_cbc:0000000000000048 .L0 
C:\Users\stapi\AppData\Local\Temp\ccnBFHhc.s:342    .text.cau_des_cbc:0000000000000048 .L0 
C:\Users\stapi\AppData\Local\Temp\ccnBFHhc.s:345    .text.cau_des_cbc:0000000000000048 .L0 
C:\Users\stapi\AppData\Local\Temp\ccnBFHhc.s:346    .text.cau_des_cbc:0000000000000048 .L0 
C:\Users\stapi\AppData\Local\Temp\ccnBFHhc.s:348    .text.cau_des_cbc:000000000000004a .L0 
C:\Users\stapi\AppData\Local\Temp\ccnBFHhc.s:351    .text.cau_des_cbc:0000000000000052 .L0 
C:\Users\stapi\AppData\Local\Temp\ccnBFHhc.s:353    .text.cau_des_cbc:0000000000000056 .L0 
C:\Users\stapi\AppData\Local\Temp\ccnBFHhc.s:359    .text.cau_des_cbc:000000000000005c .L0 
C:\Users\stapi\AppData\Local\Temp\ccnBFHhc.s:360    .text.cau_des_cbc:000000000000005c .L0 
C:\Users\stapi\AppData\Local\Temp\ccnBFHhc.s:363    .text.cau_des_cbc:000000000000005c .L0 
C:\Users\stapi\AppData\Local\Temp\ccnBFHhc.s:364    .text.cau_des_cbc:000000000000005c .L0 
C:\Users\stapi\AppData\Local\Temp\ccnBFHhc.s:367    .text.cau_des_cbc:000000000000005e .L0 
C:\Users\stapi\AppData\Local\Temp\ccnBFHhc.s:368    .text.cau_des_cbc:000000000000005e .L0 
C:\Users\stapi\AppData\Local\Temp\ccnBFHhc.s:374    .text.cau_des_cbc:0000000000000066 .L0 
C:\Users\stapi\AppData\Local\Temp\ccnBFHhc.s:375    .text.cau_des_cbc:0000000000000066 .L0 
C:\Users\stapi\AppData\Local\Temp\ccnBFHhc.s:378    .text.cau_des_cbc:0000000000000066 .L0 
C:\Users\stapi\AppData\Local\Temp\ccnBFHhc.s:379    .text.cau_des_cbc:0000000000000066 .L0 
C:\Users\stapi\AppData\Local\Temp\ccnBFHhc.s:381    .text.cau_des_cbc:0000000000000068 .L0 
C:\Users\stapi\AppData\Local\Temp\ccnBFHhc.s:384    .text.cau_des_cbc:0000000000000070 .L0 
C:\Users\stapi\AppData\Local\Temp\ccnBFHhc.s:387    .text.cau_des_cbc:0000000000000078 .L0 
C:\Users\stapi\AppData\Local\Temp\ccnBFHhc.s:390    .text.cau_des_cbc:0000000000000080 .L0 
C:\Users\stapi\AppData\Local\Temp\ccnBFHhc.s:391    .text.cau_des_cbc:0000000000000080 .L0 
C:\Users\stapi\AppData\Local\Temp\ccnBFHhc.s:399    .text.cau_des_cbc:0000000000000090 .L0 
C:\Users\stapi\AppData\Local\Temp\ccnBFHhc.s:402    .text.cau_des_cbc:0000000000000098 .L0 
C:\Users\stapi\AppData\Local\Temp\ccnBFHhc.s:403    .text.cau_des_cbc:0000000000000098 .L0 
C:\Users\stapi\AppData\Local\Temp\ccnBFHhc.s:405    .text.cau_des_cbc:000000000000009c .L0 
C:\Users\stapi\AppData\Local\Temp\ccnBFHhc.s:408    .text.cau_des_cbc:00000000000000a4 .L0 
C:\Users\stapi\AppData\Local\Temp\ccnBFHhc.s:409    .text.cau_des_cbc:00000000000000a4 .L0 
C:\Users\stapi\AppData\Local\Temp\ccnBFHhc.s:410    .text.cau_des_cbc:00000000000000a4 .L0 
C:\Users\stapi\AppData\Local\Temp\ccnBFHhc.s:411    .text.cau_des_cbc:00000000000000a4 .L0 
C:\Users\stapi\AppData\Local\Temp\ccnBFHhc.s:412    .text.cau_des_cbc:00000000000000a4 .L0 
C:\Users\stapi\AppData\Local\Temp\ccnBFHhc.s:413    .text.cau_des_cbc:00000000000000a4 .L0 
C:\Users\stapi\AppData\Local\Temp\ccnBFHhc.s:414    .text.cau_des_cbc:00000000000000a4 .L0 
C:\Users\stapi\AppData\Local\Temp\ccnBFHhc.s:415    .text.cau_des_cbc:00000000000000a4 .L0 
C:\Users\stapi\AppData\Local\Temp\ccnBFHhc.s:148    .text.cau_des_calculate:0000000000000084 .L0 
C:\Users\stapi\AppData\Local\Temp\ccnBFHhc.s:264    .text.cau_des_ecb:0000000000000082 .L0 
C:\Users\stapi\AppData\Local\Temp\ccnBFHhc.s:418    .text.cau_des_cbc:00000000000000a4 .L0 
                     .debug_frame:0000000000000000 .L0 
C:\Users\stapi\AppData\Local\Temp\ccnBFHhc.s:66     .text.cau_des_calculate:0000000000000028 .L2
C:\Users\stapi\AppData\Local\Temp\ccnBFHhc.s:81     .text.cau_des_calculate:0000000000000038 .L9
C:\Users\stapi\AppData\Local\Temp\ccnBFHhc.s:52     .text.cau_des_calculate:000000000000001e .L1
C:\Users\stapi\AppData\Local\Temp\ccnBFHhc.s:140    .text.cau_des_calculate:0000000000000080 .L5
C:\Users\stapi\AppData\Local\Temp\ccnBFHhc.s:99     .text.cau_des_calculate:0000000000000050 .L6
C:\Users\stapi\AppData\Local\Temp\ccnBFHhc.s:73     .text.cau_des_calculate:000000000000002c .L4
C:\Users\stapi\AppData\Local\Temp\ccnBFHhc.s:118    .text.cau_des_calculate:0000000000000068 .L7
C:\Users\stapi\AppData\Local\Temp\ccnBFHhc.s:49     .text.cau_des_calculate:000000000000001c .L8
C:\Users\stapi\AppData\Local\Temp\ccnBFHhc.s:1296   .debug_abbrev:0000000000000000 .Ldebug_abbrev0
C:\Users\stapi\AppData\Local\Temp\ccnBFHhc.s:2153   .debug_str:0000000000000111 .LASF64
C:\Users\stapi\AppData\Local\Temp\ccnBFHhc.s:2199   .debug_str:0000000000000309 .LASF65
C:\Users\stapi\AppData\Local\Temp\ccnBFHhc.s:2225   .debug_str:000000000000043f .LASF66
C:\Users\stapi\AppData\Local\Temp\ccnBFHhc.s:2093   .debug_ranges:0000000000000000 .Ldebug_ranges0
C:\Users\stapi\AppData\Local\Temp\ccnBFHhc.s:2103   .debug_line:0000000000000000 .Ldebug_line0
C:\Users\stapi\AppData\Local\Temp\ccnBFHhc.s:2195   .debug_str:00000000000002f4 .LASF0
C:\Users\stapi\AppData\Local\Temp\ccnBFHhc.s:2185   .debug_str:00000000000002b2 .LASF1
C:\Users\stapi\AppData\Local\Temp\ccnBFHhc.s:2167   .debug_str:0000000000000255 .LASF6
C:\Users\stapi\AppData\Local\Temp\ccnBFHhc.s:2179   .debug_str:0000000000000290 .LASF2
C:\Users\stapi\AppData\Local\Temp\ccnBFHhc.s:2149   .debug_str:00000000000000fe .LASF3
C:\Users\stapi\AppData\Local\Temp\ccnBFHhc.s:2207   .debug_str:00000000000003ca .LASF4
C:\Users\stapi\AppData\Local\Temp\ccnBFHhc.s:2161   .debug_str:0000000000000230 .LASF5
C:\Users\stapi\AppData\Local\Temp\ccnBFHhc.s:2227   .debug_str:00000000000004c8 .LASF7
C:\Users\stapi\AppData\Local\Temp\ccnBFHhc.s:2219   .debug_str:0000000000000419 .LASF8
C:\Users\stapi\AppData\Local\Temp\ccnBFHhc.s:2157   .debug_str:0000000000000216 .LASF9
C:\Users\stapi\AppData\Local\Temp\ccnBFHhc.s:2187   .debug_str:00000000000002be .LASF10
C:\Users\stapi\AppData\Local\Temp\ccnBFHhc.s:2209   .debug_str:00000000000003dd .LASF11
C:\Users\stapi\AppData\Local\Temp\ccnBFHhc.s:2139   .debug_str:00000000000000d1 .LASF12
C:\Users\stapi\AppData\Local\Temp\ccnBFHhc.s:2189   .debug_str:00000000000002d5 .LASF13
C:\Users\stapi\AppData\Local\Temp\ccnBFHhc.s:2215   .debug_str:00000000000003f8 .LASF14
C:\Users\stapi\AppData\Local\Temp\ccnBFHhc.s:2245   .debug_str:0000000000000532 .LASF15
C:\Users\stapi\AppData\Local\Temp\ccnBFHhc.s:2231   .debug_str:00000000000004dc .LASF16
C:\Users\stapi\AppData\Local\Temp\ccnBFHhc.s:2171   .debug_str:0000000000000269 .LASF17
C:\Users\stapi\AppData\Local\Temp\ccnBFHhc.s:2203   .debug_str:00000000000003ba .LASF18
C:\Users\stapi\AppData\Local\Temp\ccnBFHhc.s:2121   .debug_str:000000000000006c .LASF19
C:\Users\stapi\AppData\Local\Temp\ccnBFHhc.s:2177   .debug_str:0000000000000285 .LASF20
C:\Users\stapi\AppData\Local\Temp\ccnBFHhc.s:2243   .debug_str:0000000000000528 .LASF21
C:\Users\stapi\AppData\Local\Temp\ccnBFHhc.s:2125   .debug_str:0000000000000082 .LASF22
C:\Users\stapi\AppData\Local\Temp\ccnBFHhc.s:2201   .debug_str:00000000000003b0 .LASF23
C:\Users\stapi\AppData\Local\Temp\ccnBFHhc.s:2213   .debug_str:00000000000003ed .LASF24
C:\Users\stapi\AppData\Local\Temp\ccnBFHhc.s:2239   .debug_str:0000000000000506 .LASF25
C:\Users\stapi\AppData\Local\Temp\ccnBFHhc.s:2119   .debug_str:0000000000000061 .LASF26
C:\Users\stapi\AppData\Local\Temp\ccnBFHhc.s:2131   .debug_str:00000000000000a5 .LASF27
C:\Users\stapi\AppData\Local\Temp\ccnBFHhc.s:2217   .debug_str:0000000000000400 .LASF28
C:\Users\stapi\AppData\Local\Temp\ccnBFHhc.s:2169   .debug_str:000000000000025f .LASF29
C:\Users\stapi\AppData\Local\Temp\ccnBFHhc.s:2173   .debug_str:000000000000026f .LASF30
C:\Users\stapi\AppData\Local\Temp\ccnBFHhc.s:2129   .debug_str:000000000000009b .LASF31
C:\Users\stapi\AppData\Local\Temp\ccnBFHhc.s:2193   .debug_str:00000000000002eb .LASF32
C:\Users\stapi\AppData\Local\Temp\ccnBFHhc.s:2241   .debug_str:0000000000000510 .LASF33
C:\Users\stapi\AppData\Local\Temp\ccnBFHhc.s:2197   .debug_str:0000000000000301 .LASF34
C:\Users\stapi\AppData\Local\Temp\ccnBFHhc.s:2229   .debug_str:00000000000004d3 .LASF35
C:\Users\stapi\AppData\Local\Temp\ccnBFHhc.s:2205   .debug_str:00000000000003c2 .LASF36
C:\Users\stapi\AppData\Local\Temp\ccnBFHhc.s:2117   .debug_str:000000000000005b .LASF37
C:\Users\stapi\AppData\Local\Temp\ccnBFHhc.s:2165   .debug_str:000000000000024b .LASF38
C:\Users\stapi\AppData\Local\Temp\ccnBFHhc.s:2223   .debug_str:0000000000000436 .LASF39
C:\Users\stapi\AppData\Local\Temp\ccnBFHhc.s:2133   .debug_str:00000000000000af .LASF40
C:\Users\stapi\AppData\Local\Temp\ccnBFHhc.s:2163   .debug_str:0000000000000239 .LASF67
C:\Users\stapi\AppData\Local\Temp\ccnBFHhc.s:13     .text.cau_des_calculate:0000000000000000 .LFB367
C:\Users\stapi\AppData\Local\Temp\ccnBFHhc.s:146    .text.cau_des_calculate:0000000000000084 .LFE367
C:\Users\stapi\AppData\Local\Temp\ccnBFHhc.s:1733   .debug_loc:0000000000000000 .LLST0
C:\Users\stapi\AppData\Local\Temp\ccnBFHhc.s:1744   .debug_loc:000000000000001e .LLST1
C:\Users\stapi\AppData\Local\Temp\ccnBFHhc.s:2235   .debug_str:00000000000004f1 .LASF41
C:\Users\stapi\AppData\Local\Temp\ccnBFHhc.s:1755   .debug_loc:000000000000003c .LLST2
C:\Users\stapi\AppData\Local\Temp\ccnBFHhc.s:2109   .debug_str:000000000000001c .LASF42
C:\Users\stapi\AppData\Local\Temp\ccnBFHhc.s:1784   .debug_loc:0000000000000081 .LLST3
C:\Users\stapi\AppData\Local\Temp\ccnBFHhc.s:2141   .debug_str:00000000000000d9 .LASF43
C:\Users\stapi\AppData\Local\Temp\ccnBFHhc.s:1819   .debug_loc:00000000000000da .LLST4
C:\Users\stapi\AppData\Local\Temp\ccnBFHhc.s:1853   .debug_loc:0000000000000124 .LLST5
C:\Users\stapi\AppData\Local\Temp\ccnBFHhc.s:2181   .debug_str:000000000000029e .LASF44
C:\Users\stapi\AppData\Local\Temp\ccnBFHhc.s:2221   .debug_str:000000000000042b .LASF45
C:\Users\stapi\AppData\Local\Temp\ccnBFHhc.s:1906   .debug_loc:0000000000000188 .LLST6
C:\Users\stapi\AppData\Local\Temp\ccnBFHhc.s:45     .text.cau_des_calculate:000000000000001a .LVL3
C:\Users\stapi\AppData\Local\Temp\ccnBFHhc.s:85     .text.cau_des_calculate:0000000000000042 .LVL7
C:\Users\stapi\AppData\Local\Temp\ccnBFHhc.s:94     .text.cau_des_calculate:000000000000004e .LVL9
C:\Users\stapi\AppData\Local\Temp\ccnBFHhc.s:105    .text.cau_des_calculate:000000000000005a .LVL10
C:\Users\stapi\AppData\Local\Temp\ccnBFHhc.s:122    .text.cau_des_calculate:0000000000000070 .LVL11
C:\Users\stapi\AppData\Local\Temp\ccnBFHhc.s:130    .text.cau_des_calculate:000000000000007a .LVL13
C:\Users\stapi\AppData\Local\Temp\ccnBFHhc.s:2183   .debug_str:00000000000002a6 .LASF51
C:\Users\stapi\AppData\Local\Temp\ccnBFHhc.s:269    .text.cau_des_cbc:0000000000000000 .LFB366
C:\Users\stapi\AppData\Local\Temp\ccnBFHhc.s:416    .text.cau_des_cbc:00000000000000a4 .LFE366
C:\Users\stapi\AppData\Local\Temp\ccnBFHhc.s:2127   .debug_str:000000000000008d .LASF46
C:\Users\stapi\AppData\Local\Temp\ccnBFHhc.s:1927   .debug_loc:00000000000001be .LLST12
C:\Users\stapi\AppData\Local\Temp\ccnBFHhc.s:1938   .debug_loc:00000000000001dc .LLST13
C:\Users\stapi\AppData\Local\Temp\ccnBFHhc.s:1949   .debug_loc:00000000000001fa .LLST14
C:\Users\stapi\AppData\Local\Temp\ccnBFHhc.s:2191   .debug_str:00000000000002de .LASF47
C:\Users\stapi\AppData\Local\Temp\ccnBFHhc.s:2123   .debug_str:0000000000000076 .LASF48
C:\Users\stapi\AppData\Local\Temp\ccnBFHhc.s:2147   .debug_str:00000000000000f6 .LASF49
C:\Users\stapi\AppData\Local\Temp\ccnBFHhc.s:1971   .debug_loc:0000000000000231 .LLST15
C:\Users\stapi\AppData\Local\Temp\ccnBFHhc.s:1984   .debug_loc:0000000000000251 .LLST16
C:\Users\stapi\AppData\Local\Temp\ccnBFHhc.s:2135   .debug_str:00000000000000c4 .LASF50
C:\Users\stapi\AppData\Local\Temp\ccnBFHhc.s:1995   .debug_loc:000000000000026f .LLST17
C:\Users\stapi\AppData\Local\Temp\ccnBFHhc.s:323    .text.cau_des_cbc:000000000000003e .LBB18
C:\Users\stapi\AppData\Local\Temp\ccnBFHhc.s:329    .text.cau_des_cbc:000000000000003e .LBE18
C:\Users\stapi\AppData\Local\Temp\ccnBFHhc.s:338    .text.cau_des_cbc:0000000000000048 .LBB20
C:\Users\stapi\AppData\Local\Temp\ccnBFHhc.s:344    .text.cau_des_cbc:0000000000000048 .LBE20
C:\Users\stapi\AppData\Local\Temp\ccnBFHhc.s:356    .text.cau_des_cbc:000000000000005c .LBB22
C:\Users\stapi\AppData\Local\Temp\ccnBFHhc.s:362    .text.cau_des_cbc:000000000000005c .LBE22
C:\Users\stapi\AppData\Local\Temp\ccnBFHhc.s:371    .text.cau_des_cbc:0000000000000066 .LBB24
C:\Users\stapi\AppData\Local\Temp\ccnBFHhc.s:377    .text.cau_des_cbc:0000000000000066 .LBE24
C:\Users\stapi\AppData\Local\Temp\ccnBFHhc.s:310    .text.cau_des_cbc:0000000000000024 .LVL40
C:\Users\stapi\AppData\Local\Temp\ccnBFHhc.s:316    .text.cau_des_cbc:0000000000000034 .LVL41
C:\Users\stapi\AppData\Local\Temp\ccnBFHhc.s:349    .text.cau_des_cbc:0000000000000052 .LVL45
C:\Users\stapi\AppData\Local\Temp\ccnBFHhc.s:382    .text.cau_des_cbc:0000000000000070 .LVL49
C:\Users\stapi\AppData\Local\Temp\ccnBFHhc.s:385    .text.cau_des_cbc:0000000000000078 .LVL50
C:\Users\stapi\AppData\Local\Temp\ccnBFHhc.s:388    .text.cau_des_cbc:0000000000000080 .LVL51
C:\Users\stapi\AppData\Local\Temp\ccnBFHhc.s:395    .text.cau_des_cbc:000000000000008e .LVL52
C:\Users\stapi\AppData\Local\Temp\ccnBFHhc.s:400    .text.cau_des_cbc:0000000000000098 .LVL54
C:\Users\stapi\AppData\Local\Temp\ccnBFHhc.s:2155   .debug_str:000000000000020a .LASF52
C:\Users\stapi\AppData\Local\Temp\ccnBFHhc.s:153    .text.cau_des_ecb:0000000000000000 .LFB365
C:\Users\stapi\AppData\Local\Temp\ccnBFHhc.s:262    .text.cau_des_ecb:0000000000000082 .LFE365
C:\Users\stapi\AppData\Local\Temp\ccnBFHhc.s:2008   .debug_loc:000000000000028f .LLST7
C:\Users\stapi\AppData\Local\Temp\ccnBFHhc.s:2019   .debug_loc:00000000000002ad .LLST8
C:\Users\stapi\AppData\Local\Temp\ccnBFHhc.s:2030   .debug_loc:00000000000002cb .LLST9
C:\Users\stapi\AppData\Local\Temp\ccnBFHhc.s:2052   .debug_loc:0000000000000302 .LLST10
C:\Users\stapi\AppData\Local\Temp\ccnBFHhc.s:2065   .debug_loc:0000000000000322 .LLST11
C:\Users\stapi\AppData\Local\Temp\ccnBFHhc.s:202    .text.cau_des_ecb:000000000000003a .LBB14
C:\Users\stapi\AppData\Local\Temp\ccnBFHhc.s:209    .text.cau_des_ecb:000000000000003a .LBE14
C:\Users\stapi\AppData\Local\Temp\ccnBFHhc.s:218    .text.cau_des_ecb:0000000000000044 .LBB16
C:\Users\stapi\AppData\Local\Temp\ccnBFHhc.s:224    .text.cau_des_ecb:0000000000000044 .LBE16
C:\Users\stapi\AppData\Local\Temp\ccnBFHhc.s:189    .text.cau_des_ecb:0000000000000020 .LVL22
C:\Users\stapi\AppData\Local\Temp\ccnBFHhc.s:195    .text.cau_des_ecb:0000000000000030 .LVL23
C:\Users\stapi\AppData\Local\Temp\ccnBFHhc.s:229    .text.cau_des_ecb:000000000000004e .LVL27
C:\Users\stapi\AppData\Local\Temp\ccnBFHhc.s:232    .text.cau_des_ecb:0000000000000056 .LVL28
C:\Users\stapi\AppData\Local\Temp\ccnBFHhc.s:235    .text.cau_des_ecb:000000000000005e .LVL29
C:\Users\stapi\AppData\Local\Temp\ccnBFHhc.s:242    .text.cau_des_ecb:000000000000006c .LVL30
C:\Users\stapi\AppData\Local\Temp\ccnBFHhc.s:247    .text.cau_des_ecb:0000000000000076 .LVL32
C:\Users\stapi\AppData\Local\Temp\ccnBFHhc.s:2143   .debug_str:00000000000000e4 .LASF68
C:\Users\stapi\AppData\Local\Temp\ccnBFHhc.s:2137   .debug_str:00000000000000cb .LASF69
C:\Users\stapi\AppData\Local\Temp\ccnBFHhc.s:2105   .debug_str:0000000000000000 .LASF70
C:\Users\stapi\AppData\Local\Temp\ccnBFHhc.s:2107   .debug_str:0000000000000007 .LASF53
C:\Users\stapi\AppData\Local\Temp\ccnBFHhc.s:2233   .debug_str:00000000000004e2 .LASF54
C:\Users\stapi\AppData\Local\Temp\ccnBFHhc.s:2175   .debug_str:0000000000000278 .LASF55
C:\Users\stapi\AppData\Local\Temp\ccnBFHhc.s:2237   .debug_str:00000000000004f8 .LASF56
C:\Users\stapi\AppData\Local\Temp\ccnBFHhc.s:2115   .debug_str:0000000000000042 .LASF57
C:\Users\stapi\AppData\Local\Temp\ccnBFHhc.s:2151   .debug_str:0000000000000108 .LASF58
C:\Users\stapi\AppData\Local\Temp\ccnBFHhc.s:2111   .debug_str:0000000000000026 .LASF59
C:\Users\stapi\AppData\Local\Temp\ccnBFHhc.s:2159   .debug_str:0000000000000224 .LASF60
C:\Users\stapi\AppData\Local\Temp\ccnBFHhc.s:2113   .debug_str:0000000000000033 .LASF61
C:\Users\stapi\AppData\Local\Temp\ccnBFHhc.s:2211   .debug_str:00000000000003e2 .LASF62
C:\Users\stapi\AppData\Local\Temp\ccnBFHhc.s:2145   .debug_str:00000000000000ea .LASF63
C:\Users\stapi\AppData\Local\Temp\ccnBFHhc.s:17     .text.cau_des_calculate:0000000000000000 .LVL0
C:\Users\stapi\AppData\Local\Temp\ccnBFHhc.s:48     .text.cau_des_calculate:000000000000001c .LVL4
C:\Users\stapi\AppData\Local\Temp\ccnBFHhc.s:65     .text.cau_des_calculate:0000000000000028 .LVL5
C:\Users\stapi\AppData\Local\Temp\ccnBFHhc.s:72     .text.cau_des_calculate:000000000000002c .LVL6
C:\Users\stapi\AppData\Local\Temp\ccnBFHhc.s:32     .text.cau_des_calculate:000000000000000e .LVL1
C:\Users\stapi\AppData\Local\Temp\ccnBFHhc.s:91     .text.cau_des_calculate:0000000000000046 .LVL8
C:\Users\stapi\AppData\Local\Temp\ccnBFHhc.s:126    .text.cau_des_calculate:0000000000000072 .LVL12
C:\Users\stapi\AppData\Local\Temp\ccnBFHhc.s:136    .text.cau_des_calculate:000000000000007e .LVL14
C:\Users\stapi\AppData\Local\Temp\ccnBFHhc.s:139    .text.cau_des_calculate:0000000000000080 .LVL15
C:\Users\stapi\AppData\Local\Temp\ccnBFHhc.s:41     .text.cau_des_calculate:0000000000000012 .LVL2
C:\Users\stapi\AppData\Local\Temp\ccnBFHhc.s:272    .text.cau_des_cbc:0000000000000000 .LVL34
C:\Users\stapi\AppData\Local\Temp\ccnBFHhc.s:303    .text.cau_des_cbc:000000000000001a .LVL38
C:\Users\stapi\AppData\Local\Temp\ccnBFHhc.s:282    .text.cau_des_cbc:0000000000000008 .LVL35
C:\Users\stapi\AppData\Local\Temp\ccnBFHhc.s:397    .text.cau_des_cbc:0000000000000090 .LVL53
C:\Users\stapi\AppData\Local\Temp\ccnBFHhc.s:406    .text.cau_des_cbc:000000000000009c .LVL55
C:\Users\stapi\AppData\Local\Temp\ccnBFHhc.s:291    .text.cau_des_cbc:000000000000000e .LVL36
C:\Users\stapi\AppData\Local\Temp\ccnBFHhc.s:333    .text.cau_des_cbc:0000000000000040 .LVL43
C:\Users\stapi\AppData\Local\Temp\ccnBFHhc.s:306    .text.cau_des_cbc:000000000000001c .LVL39
C:\Users\stapi\AppData\Local\Temp\ccnBFHhc.s:366    .text.cau_des_cbc:000000000000005e .LVL47
C:\Users\stapi\AppData\Local\Temp\ccnBFHhc.s:156    .text.cau_des_ecb:0000000000000000 .LVL16
C:\Users\stapi\AppData\Local\Temp\ccnBFHhc.s:183    .text.cau_des_ecb:0000000000000016 .LVL20
C:\Users\stapi\AppData\Local\Temp\ccnBFHhc.s:165    .text.cau_des_ecb:0000000000000008 .LVL17
C:\Users\stapi\AppData\Local\Temp\ccnBFHhc.s:244    .text.cau_des_ecb:000000000000006e .LVL31
C:\Users\stapi\AppData\Local\Temp\ccnBFHhc.s:253    .text.cau_des_ecb:000000000000007a .LVL33
C:\Users\stapi\AppData\Local\Temp\ccnBFHhc.s:173    .text.cau_des_ecb:000000000000000e .LVL18
C:\Users\stapi\AppData\Local\Temp\ccnBFHhc.s:213    .text.cau_des_ecb:000000000000003c .LVL25
C:\Users\stapi\AppData\Local\Temp\ccnBFHhc.s:186    .text.cau_des_ecb:0000000000000018 .LVL21
C:\Users\stapi\AppData\Local\Temp\ccnBFHhc.s:425    .debug_info:0000000000000000 .Ldebug_info0

UNDEFINED SYMBOLS
__riscv_save_5
cau_enable_state_get
__riscv_restore_5
cau_data_write
cau_flag_get
cau_data_read
__riscv_save_4
cau_key_struct_para_init
cau_init
cau_key_init
cau_fifo_flush
cau_enable
cau_disable
__riscv_restore_4
cau_iv_init
