   1              		.file	"gd32vw55x_syscfg.c"
   2              		.option nopic
   3              		.attribute arch, "rv32i2p0_m2p0_a2p0_f2p0_c2p0_b_p0p94"
   4              		.attribute unaligned_access, 0
   5              		.attribute stack_align, 16
   6              		.text
   7              	.Ltext0:
   8              		.cfi_sections	.debug_frame
   9              		.section	.text.syscfg_deinit,"ax",@progbits
  10              		.align	1
  11              		.globl	syscfg_deinit
  13              	syscfg_deinit:
  14              	.LFB365:
  15              		.file 1 "C:/Users/stapi/OneDrive/Desktop/GD32VW553/V1_MQTT_OK/GD32VW55X_Wifi_BLE_SDK/GD32VW55x_REL
   1:C:/Users/stapi/OneDrive/Desktop/GD32VW553/V1_MQTT_OK/GD32VW55X_Wifi_BLE_SDK/GD32VW55x_RELEASE_V1.0.2/MSDK/plf/GD32VW55x_standard_peripheral/Source\gd32vw55x_syscfg.c **** /*!
   2:C:/Users/stapi/OneDrive/Desktop/GD32VW553/V1_MQTT_OK/GD32VW55X_Wifi_BLE_SDK/GD32VW55x_RELEASE_V1.0.2/MSDK/plf/GD32VW55x_standard_peripheral/Source\gd32vw55x_syscfg.c ****     \file    gd32vw55x_syscfg.c
   3:C:/Users/stapi/OneDrive/Desktop/GD32VW553/V1_MQTT_OK/GD32VW55X_Wifi_BLE_SDK/GD32VW55x_RELEASE_V1.0.2/MSDK/plf/GD32VW55x_standard_peripheral/Source\gd32vw55x_syscfg.c ****     \brief   SYSCFG driver
   4:C:/Users/stapi/OneDrive/Desktop/GD32VW553/V1_MQTT_OK/GD32VW55X_Wifi_BLE_SDK/GD32VW55x_RELEASE_V1.0.2/MSDK/plf/GD32VW55x_standard_peripheral/Source\gd32vw55x_syscfg.c **** 
   5:C:/Users/stapi/OneDrive/Desktop/GD32VW553/V1_MQTT_OK/GD32VW55X_Wifi_BLE_SDK/GD32VW55x_RELEASE_V1.0.2/MSDK/plf/GD32VW55x_standard_peripheral/Source\gd32vw55x_syscfg.c ****     \version 2023-07-20, V1.0.0, firmware for GD32VW55x
   6:C:/Users/stapi/OneDrive/Desktop/GD32VW553/V1_MQTT_OK/GD32VW55X_Wifi_BLE_SDK/GD32VW55x_RELEASE_V1.0.2/MSDK/plf/GD32VW55x_standard_peripheral/Source\gd32vw55x_syscfg.c **** */
   7:C:/Users/stapi/OneDrive/Desktop/GD32VW553/V1_MQTT_OK/GD32VW55X_Wifi_BLE_SDK/GD32VW55x_RELEASE_V1.0.2/MSDK/plf/GD32VW55x_standard_peripheral/Source\gd32vw55x_syscfg.c **** 
   8:C:/Users/stapi/OneDrive/Desktop/GD32VW553/V1_MQTT_OK/GD32VW55X_Wifi_BLE_SDK/GD32VW55x_RELEASE_V1.0.2/MSDK/plf/GD32VW55x_standard_peripheral/Source\gd32vw55x_syscfg.c **** /*
   9:C:/Users/stapi/OneDrive/Desktop/GD32VW553/V1_MQTT_OK/GD32VW55X_Wifi_BLE_SDK/GD32VW55x_RELEASE_V1.0.2/MSDK/plf/GD32VW55x_standard_peripheral/Source\gd32vw55x_syscfg.c ****     Copyright (c) 2023, GigaDevice Semiconductor Inc.
  10:C:/Users/stapi/OneDrive/Desktop/GD32VW553/V1_MQTT_OK/GD32VW55X_Wifi_BLE_SDK/GD32VW55x_RELEASE_V1.0.2/MSDK/plf/GD32VW55x_standard_peripheral/Source\gd32vw55x_syscfg.c **** 
  11:C:/Users/stapi/OneDrive/Desktop/GD32VW553/V1_MQTT_OK/GD32VW55X_Wifi_BLE_SDK/GD32VW55x_RELEASE_V1.0.2/MSDK/plf/GD32VW55x_standard_peripheral/Source\gd32vw55x_syscfg.c ****     Redistribution and use in source and binary forms, with or without modification,
  12:C:/Users/stapi/OneDrive/Desktop/GD32VW553/V1_MQTT_OK/GD32VW55X_Wifi_BLE_SDK/GD32VW55x_RELEASE_V1.0.2/MSDK/plf/GD32VW55x_standard_peripheral/Source\gd32vw55x_syscfg.c **** are permitted provided that the following conditions are met:
  13:C:/Users/stapi/OneDrive/Desktop/GD32VW553/V1_MQTT_OK/GD32VW55X_Wifi_BLE_SDK/GD32VW55x_RELEASE_V1.0.2/MSDK/plf/GD32VW55x_standard_peripheral/Source\gd32vw55x_syscfg.c **** 
  14:C:/Users/stapi/OneDrive/Desktop/GD32VW553/V1_MQTT_OK/GD32VW55X_Wifi_BLE_SDK/GD32VW55x_RELEASE_V1.0.2/MSDK/plf/GD32VW55x_standard_peripheral/Source\gd32vw55x_syscfg.c ****     1. Redistributions of source code must retain the above copyright notice, this
  15:C:/Users/stapi/OneDrive/Desktop/GD32VW553/V1_MQTT_OK/GD32VW55X_Wifi_BLE_SDK/GD32VW55x_RELEASE_V1.0.2/MSDK/plf/GD32VW55x_standard_peripheral/Source\gd32vw55x_syscfg.c ****        list of conditions and the following disclaimer.
  16:C:/Users/stapi/OneDrive/Desktop/GD32VW553/V1_MQTT_OK/GD32VW55X_Wifi_BLE_SDK/GD32VW55x_RELEASE_V1.0.2/MSDK/plf/GD32VW55x_standard_peripheral/Source\gd32vw55x_syscfg.c ****     2. Redistributions in binary form must reproduce the above copyright notice,
  17:C:/Users/stapi/OneDrive/Desktop/GD32VW553/V1_MQTT_OK/GD32VW55X_Wifi_BLE_SDK/GD32VW55x_RELEASE_V1.0.2/MSDK/plf/GD32VW55x_standard_peripheral/Source\gd32vw55x_syscfg.c ****        this list of conditions and the following disclaimer in the documentation
  18:C:/Users/stapi/OneDrive/Desktop/GD32VW553/V1_MQTT_OK/GD32VW55X_Wifi_BLE_SDK/GD32VW55x_RELEASE_V1.0.2/MSDK/plf/GD32VW55x_standard_peripheral/Source\gd32vw55x_syscfg.c ****        and/or other materials provided with the distribution.
  19:C:/Users/stapi/OneDrive/Desktop/GD32VW553/V1_MQTT_OK/GD32VW55X_Wifi_BLE_SDK/GD32VW55x_RELEASE_V1.0.2/MSDK/plf/GD32VW55x_standard_peripheral/Source\gd32vw55x_syscfg.c ****     3. Neither the name of the copyright holder nor the names of its contributors
  20:C:/Users/stapi/OneDrive/Desktop/GD32VW553/V1_MQTT_OK/GD32VW55X_Wifi_BLE_SDK/GD32VW55x_RELEASE_V1.0.2/MSDK/plf/GD32VW55x_standard_peripheral/Source\gd32vw55x_syscfg.c ****        may be used to endorse or promote products derived from this software without
  21:C:/Users/stapi/OneDrive/Desktop/GD32VW553/V1_MQTT_OK/GD32VW55X_Wifi_BLE_SDK/GD32VW55x_RELEASE_V1.0.2/MSDK/plf/GD32VW55x_standard_peripheral/Source\gd32vw55x_syscfg.c ****        specific prior written permission.
  22:C:/Users/stapi/OneDrive/Desktop/GD32VW553/V1_MQTT_OK/GD32VW55X_Wifi_BLE_SDK/GD32VW55x_RELEASE_V1.0.2/MSDK/plf/GD32VW55x_standard_peripheral/Source\gd32vw55x_syscfg.c **** 
  23:C:/Users/stapi/OneDrive/Desktop/GD32VW553/V1_MQTT_OK/GD32VW55X_Wifi_BLE_SDK/GD32VW55x_RELEASE_V1.0.2/MSDK/plf/GD32VW55x_standard_peripheral/Source\gd32vw55x_syscfg.c ****     THIS SOFTWARE IS PROVIDED BY THE COPYRIGHT HOLDERS AND CONTRIBUTORS "AS IS"
  24:C:/Users/stapi/OneDrive/Desktop/GD32VW553/V1_MQTT_OK/GD32VW55X_Wifi_BLE_SDK/GD32VW55x_RELEASE_V1.0.2/MSDK/plf/GD32VW55x_standard_peripheral/Source\gd32vw55x_syscfg.c **** AND ANY EXPRESS OR IMPLIED WARRANTIES, INCLUDING, BUT NOT LIMITED TO, THE IMPLIED
  25:C:/Users/stapi/OneDrive/Desktop/GD32VW553/V1_MQTT_OK/GD32VW55X_Wifi_BLE_SDK/GD32VW55x_RELEASE_V1.0.2/MSDK/plf/GD32VW55x_standard_peripheral/Source\gd32vw55x_syscfg.c **** WARRANTIES OF MERCHANTABILITY AND FITNESS FOR A PARTICULAR PURPOSE ARE DISCLAIMED.
  26:C:/Users/stapi/OneDrive/Desktop/GD32VW553/V1_MQTT_OK/GD32VW55X_Wifi_BLE_SDK/GD32VW55x_RELEASE_V1.0.2/MSDK/plf/GD32VW55x_standard_peripheral/Source\gd32vw55x_syscfg.c **** IN NO EVENT SHALL THE COPYRIGHT HOLDER OR CONTRIBUTORS BE LIABLE FOR ANY DIRECT,
  27:C:/Users/stapi/OneDrive/Desktop/GD32VW553/V1_MQTT_OK/GD32VW55X_Wifi_BLE_SDK/GD32VW55x_RELEASE_V1.0.2/MSDK/plf/GD32VW55x_standard_peripheral/Source\gd32vw55x_syscfg.c **** INDIRECT, INCIDENTAL, SPECIAL, EXEMPLARY, OR CONSEQUENTIAL DAMAGES (INCLUDING, BUT
  28:C:/Users/stapi/OneDrive/Desktop/GD32VW553/V1_MQTT_OK/GD32VW55X_Wifi_BLE_SDK/GD32VW55x_RELEASE_V1.0.2/MSDK/plf/GD32VW55x_standard_peripheral/Source\gd32vw55x_syscfg.c **** NOT LIMITED TO, PROCUREMENT OF SUBSTITUTE GOODS OR SERVICES; LOSS OF USE, DATA, OR
  29:C:/Users/stapi/OneDrive/Desktop/GD32VW553/V1_MQTT_OK/GD32VW55X_Wifi_BLE_SDK/GD32VW55x_RELEASE_V1.0.2/MSDK/plf/GD32VW55x_standard_peripheral/Source\gd32vw55x_syscfg.c **** PROFITS; OR BUSINESS INTERRUPTION) HOWEVER CAUSED AND ON ANY THEORY OF LIABILITY,
  30:C:/Users/stapi/OneDrive/Desktop/GD32VW553/V1_MQTT_OK/GD32VW55X_Wifi_BLE_SDK/GD32VW55x_RELEASE_V1.0.2/MSDK/plf/GD32VW55x_standard_peripheral/Source\gd32vw55x_syscfg.c **** WHETHER IN CONTRACT, STRICT LIABILITY, OR TORT (INCLUDING NEGLIGENCE OR OTHERWISE)
  31:C:/Users/stapi/OneDrive/Desktop/GD32VW553/V1_MQTT_OK/GD32VW55X_Wifi_BLE_SDK/GD32VW55x_RELEASE_V1.0.2/MSDK/plf/GD32VW55x_standard_peripheral/Source\gd32vw55x_syscfg.c **** ARISING IN ANY WAY OUT OF THE USE OF THIS SOFTWARE, EVEN IF ADVISED OF THE POSSIBILITY
  32:C:/Users/stapi/OneDrive/Desktop/GD32VW553/V1_MQTT_OK/GD32VW55X_Wifi_BLE_SDK/GD32VW55x_RELEASE_V1.0.2/MSDK/plf/GD32VW55x_standard_peripheral/Source\gd32vw55x_syscfg.c **** OF SUCH DAMAGE.
  33:C:/Users/stapi/OneDrive/Desktop/GD32VW553/V1_MQTT_OK/GD32VW55X_Wifi_BLE_SDK/GD32VW55x_RELEASE_V1.0.2/MSDK/plf/GD32VW55x_standard_peripheral/Source\gd32vw55x_syscfg.c **** */
  34:C:/Users/stapi/OneDrive/Desktop/GD32VW553/V1_MQTT_OK/GD32VW55X_Wifi_BLE_SDK/GD32VW55x_RELEASE_V1.0.2/MSDK/plf/GD32VW55x_standard_peripheral/Source\gd32vw55x_syscfg.c **** 
  35:C:/Users/stapi/OneDrive/Desktop/GD32VW553/V1_MQTT_OK/GD32VW55X_Wifi_BLE_SDK/GD32VW55x_RELEASE_V1.0.2/MSDK/plf/GD32VW55x_standard_peripheral/Source\gd32vw55x_syscfg.c **** #include "gd32vw55x_syscfg.h"
  36:C:/Users/stapi/OneDrive/Desktop/GD32VW553/V1_MQTT_OK/GD32VW55X_Wifi_BLE_SDK/GD32VW55x_RELEASE_V1.0.2/MSDK/plf/GD32VW55x_standard_peripheral/Source\gd32vw55x_syscfg.c **** 
  37:C:/Users/stapi/OneDrive/Desktop/GD32VW553/V1_MQTT_OK/GD32VW55X_Wifi_BLE_SDK/GD32VW55x_RELEASE_V1.0.2/MSDK/plf/GD32VW55x_standard_peripheral/Source\gd32vw55x_syscfg.c **** /* SYSCFG_TIMERxCFG bit 0..27 mask */
  38:C:/Users/stapi/OneDrive/Desktop/GD32VW553/V1_MQTT_OK/GD32VW55X_Wifi_BLE_SDK/GD32VW55x_RELEASE_V1.0.2/MSDK/plf/GD32VW55x_standard_peripheral/Source\gd32vw55x_syscfg.c **** #define SYSCFG_TIMERCFG_BIT0_27_MASK        0xFFFFFFFU
  39:C:/Users/stapi/OneDrive/Desktop/GD32VW553/V1_MQTT_OK/GD32VW55X_Wifi_BLE_SDK/GD32VW55x_RELEASE_V1.0.2/MSDK/plf/GD32VW55x_standard_peripheral/Source\gd32vw55x_syscfg.c **** 
  40:C:/Users/stapi/OneDrive/Desktop/GD32VW553/V1_MQTT_OK/GD32VW55X_Wifi_BLE_SDK/GD32VW55x_RELEASE_V1.0.2/MSDK/plf/GD32VW55x_standard_peripheral/Source\gd32vw55x_syscfg.c **** /*!
  41:C:/Users/stapi/OneDrive/Desktop/GD32VW553/V1_MQTT_OK/GD32VW55X_Wifi_BLE_SDK/GD32VW55x_RELEASE_V1.0.2/MSDK/plf/GD32VW55x_standard_peripheral/Source\gd32vw55x_syscfg.c ****     \brief      reset the SYSCFG registers
  42:C:/Users/stapi/OneDrive/Desktop/GD32VW553/V1_MQTT_OK/GD32VW55X_Wifi_BLE_SDK/GD32VW55x_RELEASE_V1.0.2/MSDK/plf/GD32VW55x_standard_peripheral/Source\gd32vw55x_syscfg.c ****     \param[in]  none
  43:C:/Users/stapi/OneDrive/Desktop/GD32VW553/V1_MQTT_OK/GD32VW55X_Wifi_BLE_SDK/GD32VW55x_RELEASE_V1.0.2/MSDK/plf/GD32VW55x_standard_peripheral/Source\gd32vw55x_syscfg.c ****     \param[out] none
  44:C:/Users/stapi/OneDrive/Desktop/GD32VW553/V1_MQTT_OK/GD32VW55X_Wifi_BLE_SDK/GD32VW55x_RELEASE_V1.0.2/MSDK/plf/GD32VW55x_standard_peripheral/Source\gd32vw55x_syscfg.c ****     \retval     none
  45:C:/Users/stapi/OneDrive/Desktop/GD32VW553/V1_MQTT_OK/GD32VW55X_Wifi_BLE_SDK/GD32VW55x_RELEASE_V1.0.2/MSDK/plf/GD32VW55x_standard_peripheral/Source\gd32vw55x_syscfg.c **** */
  46:C:/Users/stapi/OneDrive/Desktop/GD32VW553/V1_MQTT_OK/GD32VW55X_Wifi_BLE_SDK/GD32VW55x_RELEASE_V1.0.2/MSDK/plf/GD32VW55x_standard_peripheral/Source\gd32vw55x_syscfg.c **** void syscfg_deinit(void)
  47:C:/Users/stapi/OneDrive/Desktop/GD32VW553/V1_MQTT_OK/GD32VW55X_Wifi_BLE_SDK/GD32VW55x_RELEASE_V1.0.2/MSDK/plf/GD32VW55x_standard_peripheral/Source\gd32vw55x_syscfg.c **** {
  16              		.loc 1 47 1
  17              		.cfi_startproc
  18 0000 17030000 		call	t0,__riscv_save_1
  18      E7020300 
  19              		.cfi_offset 8, -8
  20              		.cfi_offset 1, -4
  21              		.cfi_def_cfa_offset 16
  48:C:/Users/stapi/OneDrive/Desktop/GD32VW553/V1_MQTT_OK/GD32VW55X_Wifi_BLE_SDK/GD32VW55x_RELEASE_V1.0.2/MSDK/plf/GD32VW55x_standard_peripheral/Source\gd32vw55x_syscfg.c ****     rcu_periph_reset_enable(RCU_SYSCFGRST);
  22              		.loc 1 48 5
  23 0008 0564     		li	s0,4096
  24 000a 1305E490 		addi	a0,s0,-1778
  25 000e 97000000 		call	rcu_periph_reset_enable
  25      E7800000 
  26              	.LVL0:
  49:C:/Users/stapi/OneDrive/Desktop/GD32VW553/V1_MQTT_OK/GD32VW55X_Wifi_BLE_SDK/GD32VW55x_RELEASE_V1.0.2/MSDK/plf/GD32VW55x_standard_peripheral/Source\gd32vw55x_syscfg.c ****     rcu_periph_reset_disable(RCU_SYSCFGRST);
  27              		.loc 1 49 5
  28 0016 1305E490 		addi	a0,s0,-1778
  29 001a 97000000 		call	rcu_periph_reset_disable
  29      E7800000 
  30              	.LVL1:
  50:C:/Users/stapi/OneDrive/Desktop/GD32VW553/V1_MQTT_OK/GD32VW55X_Wifi_BLE_SDK/GD32VW55x_RELEASE_V1.0.2/MSDK/plf/GD32VW55x_standard_peripheral/Source\gd32vw55x_syscfg.c **** }
  31              		.loc 1 50 1 is_stmt 0
  32 0022 17030000 		tail	__riscv_restore_1
  32      67000300 
  33              		.cfi_restore 8
  34              		.cfi_restore 1
  35              		.cfi_def_cfa_offset 0
  36              		.cfi_endproc
  37              	.LFE365:
  39              		.section	.text.syscfg_exti_line_config,"ax",@progbits
  40              		.align	1
  41              		.globl	syscfg_exti_line_config
  43              	syscfg_exti_line_config:
  44              	.LFB366:
  51:C:/Users/stapi/OneDrive/Desktop/GD32VW553/V1_MQTT_OK/GD32VW55X_Wifi_BLE_SDK/GD32VW55x_RELEASE_V1.0.2/MSDK/plf/GD32VW55x_standard_peripheral/Source\gd32vw55x_syscfg.c **** 
  52:C:/Users/stapi/OneDrive/Desktop/GD32VW553/V1_MQTT_OK/GD32VW55X_Wifi_BLE_SDK/GD32VW55x_RELEASE_V1.0.2/MSDK/plf/GD32VW55x_standard_peripheral/Source\gd32vw55x_syscfg.c **** /*!
  53:C:/Users/stapi/OneDrive/Desktop/GD32VW553/V1_MQTT_OK/GD32VW55X_Wifi_BLE_SDK/GD32VW55x_RELEASE_V1.0.2/MSDK/plf/GD32VW55x_standard_peripheral/Source\gd32vw55x_syscfg.c ****     \brief      configure the GPIO pin as EXTI Line
  54:C:/Users/stapi/OneDrive/Desktop/GD32VW553/V1_MQTT_OK/GD32VW55X_Wifi_BLE_SDK/GD32VW55x_RELEASE_V1.0.2/MSDK/plf/GD32VW55x_standard_peripheral/Source\gd32vw55x_syscfg.c ****     \param[in]  exti_port: specify the GPIO port used in EXTI
  55:C:/Users/stapi/OneDrive/Desktop/GD32VW553/V1_MQTT_OK/GD32VW55X_Wifi_BLE_SDK/GD32VW55x_RELEASE_V1.0.2/MSDK/plf/GD32VW55x_standard_peripheral/Source\gd32vw55x_syscfg.c ****                 only one parameter can be selected which is shown as below:
  56:C:/Users/stapi/OneDrive/Desktop/GD32VW553/V1_MQTT_OK/GD32VW55X_Wifi_BLE_SDK/GD32VW55x_RELEASE_V1.0.2/MSDK/plf/GD32VW55x_standard_peripheral/Source\gd32vw55x_syscfg.c ****       \arg          EXTI_SOURCE_GPIOx(x = A,B,C): EXTI GPIO port
  57:C:/Users/stapi/OneDrive/Desktop/GD32VW553/V1_MQTT_OK/GD32VW55X_Wifi_BLE_SDK/GD32VW55x_RELEASE_V1.0.2/MSDK/plf/GD32VW55x_standard_peripheral/Source\gd32vw55x_syscfg.c ****     \param[in]  exti_pin: specify the EXTI line
  58:C:/Users/stapi/OneDrive/Desktop/GD32VW553/V1_MQTT_OK/GD32VW55X_Wifi_BLE_SDK/GD32VW55x_RELEASE_V1.0.2/MSDK/plf/GD32VW55x_standard_peripheral/Source\gd32vw55x_syscfg.c ****                 only one parameter can be selected which is shown as below:
  59:C:/Users/stapi/OneDrive/Desktop/GD32VW553/V1_MQTT_OK/GD32VW55X_Wifi_BLE_SDK/GD32VW55x_RELEASE_V1.0.2/MSDK/plf/GD32VW55x_standard_peripheral/Source\gd32vw55x_syscfg.c ****       \arg          EXTI_SOURCE_PINx(GPIOA x = 0..15, GPIOB x = 0..4,11,12,13,15, GPIOC x = 8,13,14
  60:C:/Users/stapi/OneDrive/Desktop/GD32VW553/V1_MQTT_OK/GD32VW55X_Wifi_BLE_SDK/GD32VW55x_RELEASE_V1.0.2/MSDK/plf/GD32VW55x_standard_peripheral/Source\gd32vw55x_syscfg.c ****     \param[out] none
  61:C:/Users/stapi/OneDrive/Desktop/GD32VW553/V1_MQTT_OK/GD32VW55X_Wifi_BLE_SDK/GD32VW55x_RELEASE_V1.0.2/MSDK/plf/GD32VW55x_standard_peripheral/Source\gd32vw55x_syscfg.c ****     \retval     none
  62:C:/Users/stapi/OneDrive/Desktop/GD32VW553/V1_MQTT_OK/GD32VW55X_Wifi_BLE_SDK/GD32VW55x_RELEASE_V1.0.2/MSDK/plf/GD32VW55x_standard_peripheral/Source\gd32vw55x_syscfg.c **** */
  63:C:/Users/stapi/OneDrive/Desktop/GD32VW553/V1_MQTT_OK/GD32VW55X_Wifi_BLE_SDK/GD32VW55x_RELEASE_V1.0.2/MSDK/plf/GD32VW55x_standard_peripheral/Source\gd32vw55x_syscfg.c **** void syscfg_exti_line_config(uint8_t exti_port, uint8_t exti_pin)
  64:C:/Users/stapi/OneDrive/Desktop/GD32VW553/V1_MQTT_OK/GD32VW55X_Wifi_BLE_SDK/GD32VW55x_RELEASE_V1.0.2/MSDK/plf/GD32VW55x_standard_peripheral/Source\gd32vw55x_syscfg.c **** {
  45              		.loc 1 64 1 is_stmt 1
  46              		.cfi_startproc
  47              	.LVL2:
  65:C:/Users/stapi/OneDrive/Desktop/GD32VW553/V1_MQTT_OK/GD32VW55X_Wifi_BLE_SDK/GD32VW55x_RELEASE_V1.0.2/MSDK/plf/GD32VW55x_standard_peripheral/Source\gd32vw55x_syscfg.c ****     uint32_t clear_exti_mask = ~((uint32_t)EXTI_SS_MASK << (EXTI_SS_MSTEP(exti_pin)));
  48              		.loc 1 65 5
  49              		.loc 1 65 61 is_stmt 0
  50 0000 13F73500 		andi	a4,a1,3
  51 0004 0A07     		slli	a4,a4,2
  52              		.loc 1 65 57
  53 0006 BD47     		li	a5,15
  54 0008 B397E700 		sll	a5,a5,a4
  66:C:/Users/stapi/OneDrive/Desktop/GD32VW553/V1_MQTT_OK/GD32VW55X_Wifi_BLE_SDK/GD32VW55x_RELEASE_V1.0.2/MSDK/plf/GD32VW55x_standard_peripheral/Source\gd32vw55x_syscfg.c ****     uint32_t config_exti_mask = ((uint32_t)exti_port) << (EXTI_SS_MSTEP(exti_pin));
  55              		.loc 1 66 14
  56 000c 3315E500 		sll	a0,a0,a4
  57              	.LVL3:
  67:C:/Users/stapi/OneDrive/Desktop/GD32VW553/V1_MQTT_OK/GD32VW55X_Wifi_BLE_SDK/GD32VW55x_RELEASE_V1.0.2/MSDK/plf/GD32VW55x_standard_peripheral/Source\gd32vw55x_syscfg.c **** 
  68:C:/Users/stapi/OneDrive/Desktop/GD32VW553/V1_MQTT_OK/GD32VW55X_Wifi_BLE_SDK/GD32VW55x_RELEASE_V1.0.2/MSDK/plf/GD32VW55x_standard_peripheral/Source\gd32vw55x_syscfg.c ****     switch (exti_pin / EXTI_SS_JSTEP){
  58              		.loc 1 68 22
  59 0010 8981     		srli	a1,a1,2
  60              	.LVL4:
  61              		.loc 1 68 5
  62 0012 0947     		li	a4,2
  65:C:/Users/stapi/OneDrive/Desktop/GD32VW553/V1_MQTT_OK/GD32VW55X_Wifi_BLE_SDK/GD32VW55x_RELEASE_V1.0.2/MSDK/plf/GD32VW55x_standard_peripheral/Source\gd32vw55x_syscfg.c ****     uint32_t config_exti_mask = ((uint32_t)exti_port) << (EXTI_SS_MSTEP(exti_pin));
  63              		.loc 1 65 14
  64 0014 93C7F7FF 		not	a5,a5
  65              	.LVL5:
  66:C:/Users/stapi/OneDrive/Desktop/GD32VW553/V1_MQTT_OK/GD32VW55X_Wifi_BLE_SDK/GD32VW55x_RELEASE_V1.0.2/MSDK/plf/GD32VW55x_standard_peripheral/Source\gd32vw55x_syscfg.c ****     uint32_t config_exti_mask = ((uint32_t)exti_port) << (EXTI_SS_MSTEP(exti_pin));
  66              		.loc 1 66 5 is_stmt 1
  67              		.loc 1 68 5
  68 0018 6383E504 		beq	a1,a4,.L4
  69 001c 6367B700 		bgtu	a1,a4,.L5
  70 0020 89C9     		beq	a1,zero,.L6
  71 0022 0547     		li	a4,1
  72 0024 6382E502 		beq	a1,a4,.L7
  73 0028 8280     		ret
  74              	.L5:
  75 002a 0D47     		li	a4,3
  76 002c 6384E504 		beq	a1,a4,.L9
  77 0030 8280     		ret
  78              	.L6:
  69:C:/Users/stapi/OneDrive/Desktop/GD32VW553/V1_MQTT_OK/GD32VW55X_Wifi_BLE_SDK/GD32VW55x_RELEASE_V1.0.2/MSDK/plf/GD32VW55x_standard_peripheral/Source\gd32vw55x_syscfg.c ****     case EXTISS0:
  70:C:/Users/stapi/OneDrive/Desktop/GD32VW553/V1_MQTT_OK/GD32VW55X_Wifi_BLE_SDK/GD32VW55x_RELEASE_V1.0.2/MSDK/plf/GD32VW55x_standard_peripheral/Source\gd32vw55x_syscfg.c ****         /* clear EXTI source line(0..3) */
  71:C:/Users/stapi/OneDrive/Desktop/GD32VW553/V1_MQTT_OK/GD32VW55X_Wifi_BLE_SDK/GD32VW55x_RELEASE_V1.0.2/MSDK/plf/GD32VW55x_standard_peripheral/Source\gd32vw55x_syscfg.c ****         SYSCFG_EXTISS0 &= clear_exti_mask;
  79              		.loc 1 71 9
  80              		.loc 1 71 24 is_stmt 0
  81 0032 37470140 		li	a4,1073823744
  82 0036 13070780 		addi	a4,a4,-2048
  83 003a 1447     		lw	a3,8(a4)
  84 003c F58F     		and	a5,a3,a5
  85              	.LVL6:
  86 003e 1CC7     		sw	a5,8(a4)
  72:C:/Users/stapi/OneDrive/Desktop/GD32VW553/V1_MQTT_OK/GD32VW55X_Wifi_BLE_SDK/GD32VW55x_RELEASE_V1.0.2/MSDK/plf/GD32VW55x_standard_peripheral/Source\gd32vw55x_syscfg.c ****         /* configure EXTI source line(0..3) */
  73:C:/Users/stapi/OneDrive/Desktop/GD32VW553/V1_MQTT_OK/GD32VW55X_Wifi_BLE_SDK/GD32VW55x_RELEASE_V1.0.2/MSDK/plf/GD32VW55x_standard_peripheral/Source\gd32vw55x_syscfg.c ****         SYSCFG_EXTISS0 |= config_exti_mask;
  87              		.loc 1 73 9 is_stmt 1
  88              		.loc 1 73 24 is_stmt 0
  89 0040 1C47     		lw	a5,8(a4)
  90 0042 5D8D     		or	a0,a5,a0
  91              	.LVL7:
  92 0044 08C7     		sw	a0,8(a4)
  74:C:/Users/stapi/OneDrive/Desktop/GD32VW553/V1_MQTT_OK/GD32VW55X_Wifi_BLE_SDK/GD32VW55x_RELEASE_V1.0.2/MSDK/plf/GD32VW55x_standard_peripheral/Source\gd32vw55x_syscfg.c ****         break;
  93              		.loc 1 74 9 is_stmt 1
  94 0046 8280     		ret
  95              	.LVL8:
  96              	.L7:
  75:C:/Users/stapi/OneDrive/Desktop/GD32VW553/V1_MQTT_OK/GD32VW55X_Wifi_BLE_SDK/GD32VW55x_RELEASE_V1.0.2/MSDK/plf/GD32VW55x_standard_peripheral/Source\gd32vw55x_syscfg.c ****     case EXTISS1:
  76:C:/Users/stapi/OneDrive/Desktop/GD32VW553/V1_MQTT_OK/GD32VW55X_Wifi_BLE_SDK/GD32VW55x_RELEASE_V1.0.2/MSDK/plf/GD32VW55x_standard_peripheral/Source\gd32vw55x_syscfg.c ****         /* clear EXTI source line(4..7) */
  77:C:/Users/stapi/OneDrive/Desktop/GD32VW553/V1_MQTT_OK/GD32VW55X_Wifi_BLE_SDK/GD32VW55x_RELEASE_V1.0.2/MSDK/plf/GD32VW55x_standard_peripheral/Source\gd32vw55x_syscfg.c ****         SYSCFG_EXTISS1 &= clear_exti_mask;
  97              		.loc 1 77 9
  98              		.loc 1 77 24 is_stmt 0
  99 0048 37470140 		li	a4,1073823744
 100 004c 13070780 		addi	a4,a4,-2048
 101 0050 5447     		lw	a3,12(a4)
 102 0052 F58F     		and	a5,a3,a5
 103              	.LVL9:
 104 0054 5CC7     		sw	a5,12(a4)
  78:C:/Users/stapi/OneDrive/Desktop/GD32VW553/V1_MQTT_OK/GD32VW55X_Wifi_BLE_SDK/GD32VW55x_RELEASE_V1.0.2/MSDK/plf/GD32VW55x_standard_peripheral/Source\gd32vw55x_syscfg.c ****         /* configure EXTI source line(4..7) */
  79:C:/Users/stapi/OneDrive/Desktop/GD32VW553/V1_MQTT_OK/GD32VW55X_Wifi_BLE_SDK/GD32VW55x_RELEASE_V1.0.2/MSDK/plf/GD32VW55x_standard_peripheral/Source\gd32vw55x_syscfg.c ****         SYSCFG_EXTISS1 |= config_exti_mask;
 105              		.loc 1 79 9 is_stmt 1
 106              		.loc 1 79 24 is_stmt 0
 107 0056 5C47     		lw	a5,12(a4)
 108 0058 5D8D     		or	a0,a5,a0
 109              	.LVL10:
 110 005a 48C7     		sw	a0,12(a4)
  80:C:/Users/stapi/OneDrive/Desktop/GD32VW553/V1_MQTT_OK/GD32VW55X_Wifi_BLE_SDK/GD32VW55x_RELEASE_V1.0.2/MSDK/plf/GD32VW55x_standard_peripheral/Source\gd32vw55x_syscfg.c ****         break;
 111              		.loc 1 80 9 is_stmt 1
 112 005c 8280     		ret
 113              	.LVL11:
 114              	.L4:
  81:C:/Users/stapi/OneDrive/Desktop/GD32VW553/V1_MQTT_OK/GD32VW55X_Wifi_BLE_SDK/GD32VW55x_RELEASE_V1.0.2/MSDK/plf/GD32VW55x_standard_peripheral/Source\gd32vw55x_syscfg.c ****     case EXTISS2:
  82:C:/Users/stapi/OneDrive/Desktop/GD32VW553/V1_MQTT_OK/GD32VW55X_Wifi_BLE_SDK/GD32VW55x_RELEASE_V1.0.2/MSDK/plf/GD32VW55x_standard_peripheral/Source\gd32vw55x_syscfg.c ****         /* clear EXTI source line(8..11) */
  83:C:/Users/stapi/OneDrive/Desktop/GD32VW553/V1_MQTT_OK/GD32VW55X_Wifi_BLE_SDK/GD32VW55x_RELEASE_V1.0.2/MSDK/plf/GD32VW55x_standard_peripheral/Source\gd32vw55x_syscfg.c ****         SYSCFG_EXTISS2 &= clear_exti_mask;
 115              		.loc 1 83 9
 116              		.loc 1 83 24 is_stmt 0
 117 005e 37470140 		li	a4,1073823744
 118 0062 13070780 		addi	a4,a4,-2048
 119 0066 144B     		lw	a3,16(a4)
 120 0068 F58F     		and	a5,a3,a5
 121              	.LVL12:
 122 006a 1CCB     		sw	a5,16(a4)
  84:C:/Users/stapi/OneDrive/Desktop/GD32VW553/V1_MQTT_OK/GD32VW55X_Wifi_BLE_SDK/GD32VW55x_RELEASE_V1.0.2/MSDK/plf/GD32VW55x_standard_peripheral/Source\gd32vw55x_syscfg.c ****         /* configure EXTI source line(8..11) */
  85:C:/Users/stapi/OneDrive/Desktop/GD32VW553/V1_MQTT_OK/GD32VW55X_Wifi_BLE_SDK/GD32VW55x_RELEASE_V1.0.2/MSDK/plf/GD32VW55x_standard_peripheral/Source\gd32vw55x_syscfg.c ****         SYSCFG_EXTISS2 |= config_exti_mask;
 123              		.loc 1 85 9 is_stmt 1
 124              		.loc 1 85 24 is_stmt 0
 125 006c 1C4B     		lw	a5,16(a4)
 126 006e 5D8D     		or	a0,a5,a0
 127              	.LVL13:
 128 0070 08CB     		sw	a0,16(a4)
  86:C:/Users/stapi/OneDrive/Desktop/GD32VW553/V1_MQTT_OK/GD32VW55X_Wifi_BLE_SDK/GD32VW55x_RELEASE_V1.0.2/MSDK/plf/GD32VW55x_standard_peripheral/Source\gd32vw55x_syscfg.c ****         break;
 129              		.loc 1 86 9 is_stmt 1
 130 0072 8280     		ret
 131              	.LVL14:
 132              	.L9:
  87:C:/Users/stapi/OneDrive/Desktop/GD32VW553/V1_MQTT_OK/GD32VW55X_Wifi_BLE_SDK/GD32VW55x_RELEASE_V1.0.2/MSDK/plf/GD32VW55x_standard_peripheral/Source\gd32vw55x_syscfg.c ****     case EXTISS3:
  88:C:/Users/stapi/OneDrive/Desktop/GD32VW553/V1_MQTT_OK/GD32VW55X_Wifi_BLE_SDK/GD32VW55x_RELEASE_V1.0.2/MSDK/plf/GD32VW55x_standard_peripheral/Source\gd32vw55x_syscfg.c ****         /* clear EXTI source line(12..15) */
  89:C:/Users/stapi/OneDrive/Desktop/GD32VW553/V1_MQTT_OK/GD32VW55X_Wifi_BLE_SDK/GD32VW55x_RELEASE_V1.0.2/MSDK/plf/GD32VW55x_standard_peripheral/Source\gd32vw55x_syscfg.c ****         SYSCFG_EXTISS3 &= clear_exti_mask;
 133              		.loc 1 89 9
 134              		.loc 1 89 24 is_stmt 0
 135 0074 37470140 		li	a4,1073823744
 136 0078 13070780 		addi	a4,a4,-2048
 137 007c 544B     		lw	a3,20(a4)
 138 007e F58F     		and	a5,a3,a5
 139              	.LVL15:
 140 0080 5CCB     		sw	a5,20(a4)
  90:C:/Users/stapi/OneDrive/Desktop/GD32VW553/V1_MQTT_OK/GD32VW55X_Wifi_BLE_SDK/GD32VW55x_RELEASE_V1.0.2/MSDK/plf/GD32VW55x_standard_peripheral/Source\gd32vw55x_syscfg.c ****         /* configure EXTI source line(12..15) */
  91:C:/Users/stapi/OneDrive/Desktop/GD32VW553/V1_MQTT_OK/GD32VW55X_Wifi_BLE_SDK/GD32VW55x_RELEASE_V1.0.2/MSDK/plf/GD32VW55x_standard_peripheral/Source\gd32vw55x_syscfg.c ****         SYSCFG_EXTISS3 |= config_exti_mask;
 141              		.loc 1 91 9 is_stmt 1
 142              		.loc 1 91 24 is_stmt 0
 143 0082 5C4B     		lw	a5,20(a4)
 144 0084 5D8D     		or	a0,a5,a0
 145              	.LVL16:
 146 0086 48CB     		sw	a0,20(a4)
  92:C:/Users/stapi/OneDrive/Desktop/GD32VW553/V1_MQTT_OK/GD32VW55X_Wifi_BLE_SDK/GD32VW55x_RELEASE_V1.0.2/MSDK/plf/GD32VW55x_standard_peripheral/Source\gd32vw55x_syscfg.c ****         break;
 147              		.loc 1 92 9 is_stmt 1
  93:C:/Users/stapi/OneDrive/Desktop/GD32VW553/V1_MQTT_OK/GD32VW55X_Wifi_BLE_SDK/GD32VW55x_RELEASE_V1.0.2/MSDK/plf/GD32VW55x_standard_peripheral/Source\gd32vw55x_syscfg.c ****     default:
  94:C:/Users/stapi/OneDrive/Desktop/GD32VW553/V1_MQTT_OK/GD32VW55X_Wifi_BLE_SDK/GD32VW55x_RELEASE_V1.0.2/MSDK/plf/GD32VW55x_standard_peripheral/Source\gd32vw55x_syscfg.c ****         break;
  95:C:/Users/stapi/OneDrive/Desktop/GD32VW553/V1_MQTT_OK/GD32VW55X_Wifi_BLE_SDK/GD32VW55x_RELEASE_V1.0.2/MSDK/plf/GD32VW55x_standard_peripheral/Source\gd32vw55x_syscfg.c ****     }
  96:C:/Users/stapi/OneDrive/Desktop/GD32VW553/V1_MQTT_OK/GD32VW55X_Wifi_BLE_SDK/GD32VW55x_RELEASE_V1.0.2/MSDK/plf/GD32VW55x_standard_peripheral/Source\gd32vw55x_syscfg.c **** }
 148              		.loc 1 96 1 is_stmt 0
 149 0088 8280     		ret
 150              		.cfi_endproc
 151              	.LFE366:
 153              		.section	.text.syscfg_io_compensation_enable,"ax",@progbits
 154              		.align	1
 155              		.globl	syscfg_io_compensation_enable
 157              	syscfg_io_compensation_enable:
 158              	.LFB367:
  97:C:/Users/stapi/OneDrive/Desktop/GD32VW553/V1_MQTT_OK/GD32VW55X_Wifi_BLE_SDK/GD32VW55x_RELEASE_V1.0.2/MSDK/plf/GD32VW55x_standard_peripheral/Source\gd32vw55x_syscfg.c **** 
  98:C:/Users/stapi/OneDrive/Desktop/GD32VW553/V1_MQTT_OK/GD32VW55X_Wifi_BLE_SDK/GD32VW55x_RELEASE_V1.0.2/MSDK/plf/GD32VW55x_standard_peripheral/Source\gd32vw55x_syscfg.c **** /*!
  99:C:/Users/stapi/OneDrive/Desktop/GD32VW553/V1_MQTT_OK/GD32VW55X_Wifi_BLE_SDK/GD32VW55x_RELEASE_V1.0.2/MSDK/plf/GD32VW55x_standard_peripheral/Source\gd32vw55x_syscfg.c ****     \brief      enable I/O compensation cell
 100:C:/Users/stapi/OneDrive/Desktop/GD32VW553/V1_MQTT_OK/GD32VW55X_Wifi_BLE_SDK/GD32VW55x_RELEASE_V1.0.2/MSDK/plf/GD32VW55x_standard_peripheral/Source\gd32vw55x_syscfg.c ****     \param[in]  none
 101:C:/Users/stapi/OneDrive/Desktop/GD32VW553/V1_MQTT_OK/GD32VW55X_Wifi_BLE_SDK/GD32VW55x_RELEASE_V1.0.2/MSDK/plf/GD32VW55x_standard_peripheral/Source\gd32vw55x_syscfg.c ****     \param[out] none
 102:C:/Users/stapi/OneDrive/Desktop/GD32VW553/V1_MQTT_OK/GD32VW55X_Wifi_BLE_SDK/GD32VW55x_RELEASE_V1.0.2/MSDK/plf/GD32VW55x_standard_peripheral/Source\gd32vw55x_syscfg.c ****     \retval     none
 103:C:/Users/stapi/OneDrive/Desktop/GD32VW553/V1_MQTT_OK/GD32VW55X_Wifi_BLE_SDK/GD32VW55x_RELEASE_V1.0.2/MSDK/plf/GD32VW55x_standard_peripheral/Source\gd32vw55x_syscfg.c **** */
 104:C:/Users/stapi/OneDrive/Desktop/GD32VW553/V1_MQTT_OK/GD32VW55X_Wifi_BLE_SDK/GD32VW55x_RELEASE_V1.0.2/MSDK/plf/GD32VW55x_standard_peripheral/Source\gd32vw55x_syscfg.c **** void syscfg_io_compensation_enable(void)
 105:C:/Users/stapi/OneDrive/Desktop/GD32VW553/V1_MQTT_OK/GD32VW55X_Wifi_BLE_SDK/GD32VW55x_RELEASE_V1.0.2/MSDK/plf/GD32VW55x_standard_peripheral/Source\gd32vw55x_syscfg.c **** {
 159              		.loc 1 105 1 is_stmt 1
 160              		.cfi_startproc
 106:C:/Users/stapi/OneDrive/Desktop/GD32VW553/V1_MQTT_OK/GD32VW55X_Wifi_BLE_SDK/GD32VW55x_RELEASE_V1.0.2/MSDK/plf/GD32VW55x_standard_peripheral/Source\gd32vw55x_syscfg.c ****     SYSCFG_CPSCTL |= SYSCFG_CPSCTL_CPS_EN;
 161              		.loc 1 106 5
 162              		.loc 1 106 19 is_stmt 0
 163 0000 37470140 		li	a4,1073823744
 164 0004 83270782 		lw	a5,-2016(a4)
 165 0008 93E71700 		ori	a5,a5,1
 166 000c 2320F782 		sw	a5,-2016(a4)
 107:C:/Users/stapi/OneDrive/Desktop/GD32VW553/V1_MQTT_OK/GD32VW55X_Wifi_BLE_SDK/GD32VW55x_RELEASE_V1.0.2/MSDK/plf/GD32VW55x_standard_peripheral/Source\gd32vw55x_syscfg.c **** }
 167              		.loc 1 107 1
 168 0010 8280     		ret
 169              		.cfi_endproc
 170              	.LFE367:
 172              		.section	.text.syscfg_io_compensation_disable,"ax",@progbits
 173              		.align	1
 174              		.globl	syscfg_io_compensation_disable
 176              	syscfg_io_compensation_disable:
 177              	.LFB368:
 108:C:/Users/stapi/OneDrive/Desktop/GD32VW553/V1_MQTT_OK/GD32VW55X_Wifi_BLE_SDK/GD32VW55x_RELEASE_V1.0.2/MSDK/plf/GD32VW55x_standard_peripheral/Source\gd32vw55x_syscfg.c **** 
 109:C:/Users/stapi/OneDrive/Desktop/GD32VW553/V1_MQTT_OK/GD32VW55X_Wifi_BLE_SDK/GD32VW55x_RELEASE_V1.0.2/MSDK/plf/GD32VW55x_standard_peripheral/Source\gd32vw55x_syscfg.c **** /*!
 110:C:/Users/stapi/OneDrive/Desktop/GD32VW553/V1_MQTT_OK/GD32VW55X_Wifi_BLE_SDK/GD32VW55x_RELEASE_V1.0.2/MSDK/plf/GD32VW55x_standard_peripheral/Source\gd32vw55x_syscfg.c ****     \brief      disable I/O compensation cell
 111:C:/Users/stapi/OneDrive/Desktop/GD32VW553/V1_MQTT_OK/GD32VW55X_Wifi_BLE_SDK/GD32VW55x_RELEASE_V1.0.2/MSDK/plf/GD32VW55x_standard_peripheral/Source\gd32vw55x_syscfg.c ****     \param[in]  none
 112:C:/Users/stapi/OneDrive/Desktop/GD32VW553/V1_MQTT_OK/GD32VW55X_Wifi_BLE_SDK/GD32VW55x_RELEASE_V1.0.2/MSDK/plf/GD32VW55x_standard_peripheral/Source\gd32vw55x_syscfg.c ****     \param[out] none
 113:C:/Users/stapi/OneDrive/Desktop/GD32VW553/V1_MQTT_OK/GD32VW55X_Wifi_BLE_SDK/GD32VW55x_RELEASE_V1.0.2/MSDK/plf/GD32VW55x_standard_peripheral/Source\gd32vw55x_syscfg.c ****     \retval     none
 114:C:/Users/stapi/OneDrive/Desktop/GD32VW553/V1_MQTT_OK/GD32VW55X_Wifi_BLE_SDK/GD32VW55x_RELEASE_V1.0.2/MSDK/plf/GD32VW55x_standard_peripheral/Source\gd32vw55x_syscfg.c **** */
 115:C:/Users/stapi/OneDrive/Desktop/GD32VW553/V1_MQTT_OK/GD32VW55X_Wifi_BLE_SDK/GD32VW55x_RELEASE_V1.0.2/MSDK/plf/GD32VW55x_standard_peripheral/Source\gd32vw55x_syscfg.c **** void syscfg_io_compensation_disable(void)
 116:C:/Users/stapi/OneDrive/Desktop/GD32VW553/V1_MQTT_OK/GD32VW55X_Wifi_BLE_SDK/GD32VW55x_RELEASE_V1.0.2/MSDK/plf/GD32VW55x_standard_peripheral/Source\gd32vw55x_syscfg.c **** {
 178              		.loc 1 116 1 is_stmt 1
 179              		.cfi_startproc
 117:C:/Users/stapi/OneDrive/Desktop/GD32VW553/V1_MQTT_OK/GD32VW55X_Wifi_BLE_SDK/GD32VW55x_RELEASE_V1.0.2/MSDK/plf/GD32VW55x_standard_peripheral/Source\gd32vw55x_syscfg.c ****     SYSCFG_CPSCTL &= ~(SYSCFG_CPSCTL_CPS_EN);
 180              		.loc 1 117 5
 181              		.loc 1 117 19 is_stmt 0
 182 0000 37470140 		li	a4,1073823744
 183 0004 83270782 		lw	a5,-2016(a4)
 184 0008 F99B     		andi	a5,a5,-2
 185 000a 2320F782 		sw	a5,-2016(a4)
 118:C:/Users/stapi/OneDrive/Desktop/GD32VW553/V1_MQTT_OK/GD32VW55X_Wifi_BLE_SDK/GD32VW55x_RELEASE_V1.0.2/MSDK/plf/GD32VW55x_standard_peripheral/Source\gd32vw55x_syscfg.c **** }
 186              		.loc 1 118 1
 187 000e 8280     		ret
 188              		.cfi_endproc
 189              	.LFE368:
 191              		.section	.text.syscfg_lock_config,"ax",@progbits
 192              		.align	1
 193              		.globl	syscfg_lock_config
 195              	syscfg_lock_config:
 196              	.LFB369:
 119:C:/Users/stapi/OneDrive/Desktop/GD32VW553/V1_MQTT_OK/GD32VW55X_Wifi_BLE_SDK/GD32VW55x_RELEASE_V1.0.2/MSDK/plf/GD32VW55x_standard_peripheral/Source\gd32vw55x_syscfg.c **** 
 120:C:/Users/stapi/OneDrive/Desktop/GD32VW553/V1_MQTT_OK/GD32VW55X_Wifi_BLE_SDK/GD32VW55x_RELEASE_V1.0.2/MSDK/plf/GD32VW55x_standard_peripheral/Source\gd32vw55x_syscfg.c **** /*!
 121:C:/Users/stapi/OneDrive/Desktop/GD32VW553/V1_MQTT_OK/GD32VW55X_Wifi_BLE_SDK/GD32VW55x_RELEASE_V1.0.2/MSDK/plf/GD32VW55x_standard_peripheral/Source\gd32vw55x_syscfg.c ****     \brief      connect TIMER0/15/16 break input to the selected parameter
 122:C:/Users/stapi/OneDrive/Desktop/GD32VW553/V1_MQTT_OK/GD32VW55X_Wifi_BLE_SDK/GD32VW55x_RELEASE_V1.0.2/MSDK/plf/GD32VW55x_standard_peripheral/Source\gd32vw55x_syscfg.c ****     \param[in]  none
 123:C:/Users/stapi/OneDrive/Desktop/GD32VW553/V1_MQTT_OK/GD32VW55X_Wifi_BLE_SDK/GD32VW55x_RELEASE_V1.0.2/MSDK/plf/GD32VW55x_standard_peripheral/Source\gd32vw55x_syscfg.c ****     \param[out] none
 124:C:/Users/stapi/OneDrive/Desktop/GD32VW553/V1_MQTT_OK/GD32VW55X_Wifi_BLE_SDK/GD32VW55x_RELEASE_V1.0.2/MSDK/plf/GD32VW55x_standard_peripheral/Source\gd32vw55x_syscfg.c ****     \retval     none
 125:C:/Users/stapi/OneDrive/Desktop/GD32VW553/V1_MQTT_OK/GD32VW55X_Wifi_BLE_SDK/GD32VW55x_RELEASE_V1.0.2/MSDK/plf/GD32VW55x_standard_peripheral/Source\gd32vw55x_syscfg.c **** */
 126:C:/Users/stapi/OneDrive/Desktop/GD32VW553/V1_MQTT_OK/GD32VW55X_Wifi_BLE_SDK/GD32VW55x_RELEASE_V1.0.2/MSDK/plf/GD32VW55x_standard_peripheral/Source\gd32vw55x_syscfg.c **** void syscfg_lock_config(void)
 127:C:/Users/stapi/OneDrive/Desktop/GD32VW553/V1_MQTT_OK/GD32VW55X_Wifi_BLE_SDK/GD32VW55x_RELEASE_V1.0.2/MSDK/plf/GD32VW55x_standard_peripheral/Source\gd32vw55x_syscfg.c **** {
 197              		.loc 1 127 1 is_stmt 1
 198              		.cfi_startproc
 128:C:/Users/stapi/OneDrive/Desktop/GD32VW553/V1_MQTT_OK/GD32VW55X_Wifi_BLE_SDK/GD32VW55x_RELEASE_V1.0.2/MSDK/plf/GD32VW55x_standard_peripheral/Source\gd32vw55x_syscfg.c ****     SYSCFG_CFG1 |= SYSCFG_LOCK_LVD;
 199              		.loc 1 128 5
 200              		.loc 1 128 17 is_stmt 0
 201 0000 37470140 		li	a4,1073823744
 202 0004 83274785 		lw	a5,-1964(a4)
 203 0008 93E74700 		ori	a5,a5,4
 204 000c 232AF784 		sw	a5,-1964(a4)
 129:C:/Users/stapi/OneDrive/Desktop/GD32VW553/V1_MQTT_OK/GD32VW55X_Wifi_BLE_SDK/GD32VW55x_RELEASE_V1.0.2/MSDK/plf/GD32VW55x_standard_peripheral/Source\gd32vw55x_syscfg.c **** }
 205              		.loc 1 129 1
 206 0010 8280     		ret
 207              		.cfi_endproc
 208              	.LFE369:
 210              		.section	.text.syscfg_io_compensation_ready_flag_get,"ax",@progbits
 211              		.align	1
 212              		.globl	syscfg_io_compensation_ready_flag_get
 214              	syscfg_io_compensation_ready_flag_get:
 215              	.LFB370:
 130:C:/Users/stapi/OneDrive/Desktop/GD32VW553/V1_MQTT_OK/GD32VW55X_Wifi_BLE_SDK/GD32VW55x_RELEASE_V1.0.2/MSDK/plf/GD32VW55x_standard_peripheral/Source\gd32vw55x_syscfg.c **** 
 131:C:/Users/stapi/OneDrive/Desktop/GD32VW553/V1_MQTT_OK/GD32VW55X_Wifi_BLE_SDK/GD32VW55x_RELEASE_V1.0.2/MSDK/plf/GD32VW55x_standard_peripheral/Source\gd32vw55x_syscfg.c **** /*!
 132:C:/Users/stapi/OneDrive/Desktop/GD32VW553/V1_MQTT_OK/GD32VW55X_Wifi_BLE_SDK/GD32VW55x_RELEASE_V1.0.2/MSDK/plf/GD32VW55x_standard_peripheral/Source\gd32vw55x_syscfg.c ****     \brief      get the compensation ready flag
 133:C:/Users/stapi/OneDrive/Desktop/GD32VW553/V1_MQTT_OK/GD32VW55X_Wifi_BLE_SDK/GD32VW55x_RELEASE_V1.0.2/MSDK/plf/GD32VW55x_standard_peripheral/Source\gd32vw55x_syscfg.c ****     \param[in]  none
 134:C:/Users/stapi/OneDrive/Desktop/GD32VW553/V1_MQTT_OK/GD32VW55X_Wifi_BLE_SDK/GD32VW55x_RELEASE_V1.0.2/MSDK/plf/GD32VW55x_standard_peripheral/Source\gd32vw55x_syscfg.c ****     \param[out] none
 135:C:/Users/stapi/OneDrive/Desktop/GD32VW553/V1_MQTT_OK/GD32VW55X_Wifi_BLE_SDK/GD32VW55x_RELEASE_V1.0.2/MSDK/plf/GD32VW55x_standard_peripheral/Source\gd32vw55x_syscfg.c ****     \retval     FlagStatus: status of flag (RESET or SET)
 136:C:/Users/stapi/OneDrive/Desktop/GD32VW553/V1_MQTT_OK/GD32VW55X_Wifi_BLE_SDK/GD32VW55x_RELEASE_V1.0.2/MSDK/plf/GD32VW55x_standard_peripheral/Source\gd32vw55x_syscfg.c **** */
 137:C:/Users/stapi/OneDrive/Desktop/GD32VW553/V1_MQTT_OK/GD32VW55X_Wifi_BLE_SDK/GD32VW55x_RELEASE_V1.0.2/MSDK/plf/GD32VW55x_standard_peripheral/Source\gd32vw55x_syscfg.c **** FlagStatus syscfg_io_compensation_ready_flag_get(void)
 138:C:/Users/stapi/OneDrive/Desktop/GD32VW553/V1_MQTT_OK/GD32VW55X_Wifi_BLE_SDK/GD32VW55x_RELEASE_V1.0.2/MSDK/plf/GD32VW55x_standard_peripheral/Source\gd32vw55x_syscfg.c **** {
 216              		.loc 1 138 1 is_stmt 1
 217              		.cfi_startproc
 139:C:/Users/stapi/OneDrive/Desktop/GD32VW553/V1_MQTT_OK/GD32VW55X_Wifi_BLE_SDK/GD32VW55x_RELEASE_V1.0.2/MSDK/plf/GD32VW55x_standard_peripheral/Source\gd32vw55x_syscfg.c ****     if(RESET != (SYSCFG_CPSCTL & SYSCFG_CPSCTL_CPS_RDY)){
 218              		.loc 1 139 5
 219              		.loc 1 139 18 is_stmt 0
 220 0000 B7470140 		li	a5,1073823744
 221 0004 03A50782 		lw	a0,-2016(a5)
 140:C:/Users/stapi/OneDrive/Desktop/GD32VW553/V1_MQTT_OK/GD32VW55X_Wifi_BLE_SDK/GD32VW55x_RELEASE_V1.0.2/MSDK/plf/GD32VW55x_standard_peripheral/Source\gd32vw55x_syscfg.c ****         return SET;
 141:C:/Users/stapi/OneDrive/Desktop/GD32VW553/V1_MQTT_OK/GD32VW55X_Wifi_BLE_SDK/GD32VW55x_RELEASE_V1.0.2/MSDK/plf/GD32VW55x_standard_peripheral/Source\gd32vw55x_syscfg.c ****     }
 142:C:/Users/stapi/OneDrive/Desktop/GD32VW553/V1_MQTT_OK/GD32VW55X_Wifi_BLE_SDK/GD32VW55x_RELEASE_V1.0.2/MSDK/plf/GD32VW55x_standard_peripheral/Source\gd32vw55x_syscfg.c ****     return RESET;
 143:C:/Users/stapi/OneDrive/Desktop/GD32VW553/V1_MQTT_OK/GD32VW55X_Wifi_BLE_SDK/GD32VW55x_RELEASE_V1.0.2/MSDK/plf/GD32VW55x_standard_peripheral/Source\gd32vw55x_syscfg.c **** }
 222              		.loc 1 143 1
 223 0008 13558548 		bexti	a0,a0,8
 224 000c 8280     		ret
 225              		.cfi_endproc
 226              	.LFE370:
 228              		.section	.text.syscfg_sram_ownership_config,"ax",@progbits
 229              		.align	1
 230              		.globl	syscfg_sram_ownership_config
 232              	syscfg_sram_ownership_config:
 233              	.LFB371:
 144:C:/Users/stapi/OneDrive/Desktop/GD32VW553/V1_MQTT_OK/GD32VW55X_Wifi_BLE_SDK/GD32VW55x_RELEASE_V1.0.2/MSDK/plf/GD32VW55x_standard_peripheral/Source\gd32vw55x_syscfg.c **** 
 145:C:/Users/stapi/OneDrive/Desktop/GD32VW553/V1_MQTT_OK/GD32VW55X_Wifi_BLE_SDK/GD32VW55x_RELEASE_V1.0.2/MSDK/plf/GD32VW55x_standard_peripheral/Source\gd32vw55x_syscfg.c **** /*!
 146:C:/Users/stapi/OneDrive/Desktop/GD32VW553/V1_MQTT_OK/GD32VW55X_Wifi_BLE_SDK/GD32VW55x_RELEASE_V1.0.2/MSDK/plf/GD32VW55x_standard_peripheral/Source\gd32vw55x_syscfg.c ****     \brief      configure the ownership of the shared 32k SRAM
 147:C:/Users/stapi/OneDrive/Desktop/GD32VW553/V1_MQTT_OK/GD32VW55X_Wifi_BLE_SDK/GD32VW55x_RELEASE_V1.0.2/MSDK/plf/GD32VW55x_standard_peripheral/Source\gd32vw55x_syscfg.c ****     \param[in]  sram_owner: the ownership of the shared SRAM
 148:C:/Users/stapi/OneDrive/Desktop/GD32VW553/V1_MQTT_OK/GD32VW55X_Wifi_BLE_SDK/GD32VW55x_RELEASE_V1.0.2/MSDK/plf/GD32VW55x_standard_peripheral/Source\gd32vw55x_syscfg.c ****                 only one parameter can be selected which is shown as below:
 149:C:/Users/stapi/OneDrive/Desktop/GD32VW553/V1_MQTT_OK/GD32VW55X_Wifi_BLE_SDK/GD32VW55x_RELEASE_V1.0.2/MSDK/plf/GD32VW55x_standard_peripheral/Source\gd32vw55x_syscfg.c ****       \arg        SRAMEN_WIRELESS: wireless
 150:C:/Users/stapi/OneDrive/Desktop/GD32VW553/V1_MQTT_OK/GD32VW55X_Wifi_BLE_SDK/GD32VW55x_RELEASE_V1.0.2/MSDK/plf/GD32VW55x_standard_peripheral/Source\gd32vw55x_syscfg.c ****       \arg        SRAMEN_CORE: core
 151:C:/Users/stapi/OneDrive/Desktop/GD32VW553/V1_MQTT_OK/GD32VW55X_Wifi_BLE_SDK/GD32VW55x_RELEASE_V1.0.2/MSDK/plf/GD32VW55x_standard_peripheral/Source\gd32vw55x_syscfg.c ****     \param[out] none
 152:C:/Users/stapi/OneDrive/Desktop/GD32VW553/V1_MQTT_OK/GD32VW55X_Wifi_BLE_SDK/GD32VW55x_RELEASE_V1.0.2/MSDK/plf/GD32VW55x_standard_peripheral/Source\gd32vw55x_syscfg.c ****     \retval     none
 153:C:/Users/stapi/OneDrive/Desktop/GD32VW553/V1_MQTT_OK/GD32VW55X_Wifi_BLE_SDK/GD32VW55x_RELEASE_V1.0.2/MSDK/plf/GD32VW55x_standard_peripheral/Source\gd32vw55x_syscfg.c **** */
 154:C:/Users/stapi/OneDrive/Desktop/GD32VW553/V1_MQTT_OK/GD32VW55X_Wifi_BLE_SDK/GD32VW55x_RELEASE_V1.0.2/MSDK/plf/GD32VW55x_standard_peripheral/Source\gd32vw55x_syscfg.c **** void syscfg_sram_ownership_config(uint32_t sram_owner)
 155:C:/Users/stapi/OneDrive/Desktop/GD32VW553/V1_MQTT_OK/GD32VW55X_Wifi_BLE_SDK/GD32VW55x_RELEASE_V1.0.2/MSDK/plf/GD32VW55x_standard_peripheral/Source\gd32vw55x_syscfg.c **** {
 234              		.loc 1 155 1 is_stmt 1
 235              		.cfi_startproc
 236              	.LVL17:
 156:C:/Users/stapi/OneDrive/Desktop/GD32VW553/V1_MQTT_OK/GD32VW55X_Wifi_BLE_SDK/GD32VW55x_RELEASE_V1.0.2/MSDK/plf/GD32VW55x_standard_peripheral/Source\gd32vw55x_syscfg.c ****     if(SRAMEN_WIRELESS == sram_owner){
 237              		.loc 1 156 5
 157:C:/Users/stapi/OneDrive/Desktop/GD32VW553/V1_MQTT_OK/GD32VW55X_Wifi_BLE_SDK/GD32VW55x_RELEASE_V1.0.2/MSDK/plf/GD32VW55x_standard_peripheral/Source\gd32vw55x_syscfg.c ****         SYSCFG_SCFG &= ~SYSCFG_SCFG_SOWNSEL;
 238              		.loc 1 157 21 is_stmt 0
 239 0000 37470140 		li	a4,1073823744
 240 0004 83278786 		lw	a5,-1944(a4)
 156:C:/Users/stapi/OneDrive/Desktop/GD32VW553/V1_MQTT_OK/GD32VW55X_Wifi_BLE_SDK/GD32VW55x_RELEASE_V1.0.2/MSDK/plf/GD32VW55x_standard_peripheral/Source\gd32vw55x_syscfg.c ****     if(SRAMEN_WIRELESS == sram_owner){
 241              		.loc 1 156 7
 242 0008 09E5     		bne	a0,zero,.L15
 243              		.loc 1 157 9 is_stmt 1
 244              		.loc 1 157 21 is_stmt 0
 245 000a F99B     		andi	a5,a5,-2
 246              	.L17:
 158:C:/Users/stapi/OneDrive/Desktop/GD32VW553/V1_MQTT_OK/GD32VW55X_Wifi_BLE_SDK/GD32VW55x_RELEASE_V1.0.2/MSDK/plf/GD32VW55x_standard_peripheral/Source\gd32vw55x_syscfg.c ****     }else{
 159:C:/Users/stapi/OneDrive/Desktop/GD32VW553/V1_MQTT_OK/GD32VW55X_Wifi_BLE_SDK/GD32VW55x_RELEASE_V1.0.2/MSDK/plf/GD32VW55x_standard_peripheral/Source\gd32vw55x_syscfg.c ****         SYSCFG_SCFG |= SRAMEN_CORE;
 247              		.loc 1 159 21
 248 000c 2324F786 		sw	a5,-1944(a4)
 160:C:/Users/stapi/OneDrive/Desktop/GD32VW553/V1_MQTT_OK/GD32VW55X_Wifi_BLE_SDK/GD32VW55x_RELEASE_V1.0.2/MSDK/plf/GD32VW55x_standard_peripheral/Source\gd32vw55x_syscfg.c ****     }
 161:C:/Users/stapi/OneDrive/Desktop/GD32VW553/V1_MQTT_OK/GD32VW55X_Wifi_BLE_SDK/GD32VW55x_RELEASE_V1.0.2/MSDK/plf/GD32VW55x_standard_peripheral/Source\gd32vw55x_syscfg.c **** }
 249              		.loc 1 161 1
 250 0010 8280     		ret
 251              	.L15:
 159:C:/Users/stapi/OneDrive/Desktop/GD32VW553/V1_MQTT_OK/GD32VW55X_Wifi_BLE_SDK/GD32VW55x_RELEASE_V1.0.2/MSDK/plf/GD32VW55x_standard_peripheral/Source\gd32vw55x_syscfg.c ****     }
 252              		.loc 1 159 9 is_stmt 1
 159:C:/Users/stapi/OneDrive/Desktop/GD32VW553/V1_MQTT_OK/GD32VW55X_Wifi_BLE_SDK/GD32VW55x_RELEASE_V1.0.2/MSDK/plf/GD32VW55x_standard_peripheral/Source\gd32vw55x_syscfg.c ****     }
 253              		.loc 1 159 21 is_stmt 0
 254 0012 93E71700 		ori	a5,a5,1
 255 0016 DDBF     		j	.L17
 256              		.cfi_endproc
 257              	.LFE371:
 259              		.section	.text.syscfg_boot_mode_get,"ax",@progbits
 260              		.align	1
 261              		.globl	syscfg_boot_mode_get
 263              	syscfg_boot_mode_get:
 264              	.LFB372:
 162:C:/Users/stapi/OneDrive/Desktop/GD32VW553/V1_MQTT_OK/GD32VW55X_Wifi_BLE_SDK/GD32VW55x_RELEASE_V1.0.2/MSDK/plf/GD32VW55x_standard_peripheral/Source\gd32vw55x_syscfg.c **** 
 163:C:/Users/stapi/OneDrive/Desktop/GD32VW553/V1_MQTT_OK/GD32VW55X_Wifi_BLE_SDK/GD32VW55x_RELEASE_V1.0.2/MSDK/plf/GD32VW55x_standard_peripheral/Source\gd32vw55x_syscfg.c **** /*!
 164:C:/Users/stapi/OneDrive/Desktop/GD32VW553/V1_MQTT_OK/GD32VW55X_Wifi_BLE_SDK/GD32VW55x_RELEASE_V1.0.2/MSDK/plf/GD32VW55x_standard_peripheral/Source\gd32vw55x_syscfg.c ****     \brief      get code start mode
 165:C:/Users/stapi/OneDrive/Desktop/GD32VW553/V1_MQTT_OK/GD32VW55X_Wifi_BLE_SDK/GD32VW55x_RELEASE_V1.0.2/MSDK/plf/GD32VW55x_standard_peripheral/Source\gd32vw55x_syscfg.c ****     \param[in]  none
 166:C:/Users/stapi/OneDrive/Desktop/GD32VW553/V1_MQTT_OK/GD32VW55X_Wifi_BLE_SDK/GD32VW55x_RELEASE_V1.0.2/MSDK/plf/GD32VW55x_standard_peripheral/Source\gd32vw55x_syscfg.c ****     \param[out] none
 167:C:/Users/stapi/OneDrive/Desktop/GD32VW553/V1_MQTT_OK/GD32VW55X_Wifi_BLE_SDK/GD32VW55x_RELEASE_V1.0.2/MSDK/plf/GD32VW55x_standard_peripheral/Source\gd32vw55x_syscfg.c ****     \retval     syscfg_code_start_enum: code start mode (FLASH_START or SRAM_START or SYSTEM_START)
 168:C:/Users/stapi/OneDrive/Desktop/GD32VW553/V1_MQTT_OK/GD32VW55X_Wifi_BLE_SDK/GD32VW55x_RELEASE_V1.0.2/MSDK/plf/GD32VW55x_standard_peripheral/Source\gd32vw55x_syscfg.c **** */
 169:C:/Users/stapi/OneDrive/Desktop/GD32VW553/V1_MQTT_OK/GD32VW55X_Wifi_BLE_SDK/GD32VW55x_RELEASE_V1.0.2/MSDK/plf/GD32VW55x_standard_peripheral/Source\gd32vw55x_syscfg.c **** syscfg_code_start_enum syscfg_boot_mode_get(void)
 170:C:/Users/stapi/OneDrive/Desktop/GD32VW553/V1_MQTT_OK/GD32VW55X_Wifi_BLE_SDK/GD32VW55x_RELEASE_V1.0.2/MSDK/plf/GD32VW55x_standard_peripheral/Source\gd32vw55x_syscfg.c **** {
 265              		.loc 1 170 1 is_stmt 1
 266              		.cfi_startproc
 171:C:/Users/stapi/OneDrive/Desktop/GD32VW553/V1_MQTT_OK/GD32VW55X_Wifi_BLE_SDK/GD32VW55x_RELEASE_V1.0.2/MSDK/plf/GD32VW55x_standard_peripheral/Source\gd32vw55x_syscfg.c ****     syscfg_code_start_enum mode;
 267              		.loc 1 171 5
 172:C:/Users/stapi/OneDrive/Desktop/GD32VW553/V1_MQTT_OK/GD32VW55X_Wifi_BLE_SDK/GD32VW55x_RELEASE_V1.0.2/MSDK/plf/GD32VW55x_standard_peripheral/Source\gd32vw55x_syscfg.c ****     if(0x03U == SYSCFG_CFG0){
 268              		.loc 1 172 5
 269              		.loc 1 172 17 is_stmt 0
 270 0000 B7470140 		li	a5,1073823744
 271 0004 83A60780 		lw	a3,-2048(a5)
 272              		.loc 1 172 7
 273 0008 0D47     		li	a4,3
 173:C:/Users/stapi/OneDrive/Desktop/GD32VW553/V1_MQTT_OK/GD32VW55X_Wifi_BLE_SDK/GD32VW55x_RELEASE_V1.0.2/MSDK/plf/GD32VW55x_standard_peripheral/Source\gd32vw55x_syscfg.c ****         mode = SRAM_START;
 274              		.loc 1 173 14
 275 000a 0545     		li	a0,1
 172:C:/Users/stapi/OneDrive/Desktop/GD32VW553/V1_MQTT_OK/GD32VW55X_Wifi_BLE_SDK/GD32VW55x_RELEASE_V1.0.2/MSDK/plf/GD32VW55x_standard_peripheral/Source\gd32vw55x_syscfg.c ****     if(0x03U == SYSCFG_CFG0){
 276              		.loc 1 172 7
 277 000c 6389E600 		beq	a3,a4,.L18
 174:C:/Users/stapi/OneDrive/Desktop/GD32VW553/V1_MQTT_OK/GD32VW55X_Wifi_BLE_SDK/GD32VW55x_RELEASE_V1.0.2/MSDK/plf/GD32VW55x_standard_peripheral/Source\gd32vw55x_syscfg.c ****     }else if(0x01==SYSCFG_CFG0){
 278              		.loc 1 174 11 is_stmt 1
 279              		.loc 1 174 20 is_stmt 0
 280 0010 03A70780 		lw	a4,-2048(a5)
 281              		.loc 1 174 13
 282 0014 8547     		li	a5,1
 175:C:/Users/stapi/OneDrive/Desktop/GD32VW553/V1_MQTT_OK/GD32VW55X_Wifi_BLE_SDK/GD32VW55x_RELEASE_V1.0.2/MSDK/plf/GD32VW55x_standard_peripheral/Source\gd32vw55x_syscfg.c ****         mode = SYSTEM_START;
 283              		.loc 1 175 14
 284 0016 0945     		li	a0,2
 174:C:/Users/stapi/OneDrive/Desktop/GD32VW553/V1_MQTT_OK/GD32VW55X_Wifi_BLE_SDK/GD32VW55x_RELEASE_V1.0.2/MSDK/plf/GD32VW55x_standard_peripheral/Source\gd32vw55x_syscfg.c ****     }else if(0x01==SYSCFG_CFG0){
 285              		.loc 1 174 13
 286 0018 6303F700 		beq	a4,a5,.L18
 176:C:/Users/stapi/OneDrive/Desktop/GD32VW553/V1_MQTT_OK/GD32VW55X_Wifi_BLE_SDK/GD32VW55x_RELEASE_V1.0.2/MSDK/plf/GD32VW55x_standard_peripheral/Source\gd32vw55x_syscfg.c ****     }else{
 177:C:/Users/stapi/OneDrive/Desktop/GD32VW553/V1_MQTT_OK/GD32VW55X_Wifi_BLE_SDK/GD32VW55x_RELEASE_V1.0.2/MSDK/plf/GD32VW55x_standard_peripheral/Source\gd32vw55x_syscfg.c ****         mode = FLASH_START;
 287              		.loc 1 177 14
 288 001c 0145     		li	a0,0
 289              	.L18:
 178:C:/Users/stapi/OneDrive/Desktop/GD32VW553/V1_MQTT_OK/GD32VW55X_Wifi_BLE_SDK/GD32VW55x_RELEASE_V1.0.2/MSDK/plf/GD32VW55x_standard_peripheral/Source\gd32vw55x_syscfg.c ****     }
 179:C:/Users/stapi/OneDrive/Desktop/GD32VW553/V1_MQTT_OK/GD32VW55X_Wifi_BLE_SDK/GD32VW55x_RELEASE_V1.0.2/MSDK/plf/GD32VW55x_standard_peripheral/Source\gd32vw55x_syscfg.c ****     return mode;
 180:C:/Users/stapi/OneDrive/Desktop/GD32VW553/V1_MQTT_OK/GD32VW55X_Wifi_BLE_SDK/GD32VW55x_RELEASE_V1.0.2/MSDK/plf/GD32VW55x_standard_peripheral/Source\gd32vw55x_syscfg.c **** }
 290              		.loc 1 180 1
 291 001e 8280     		ret
 292              		.cfi_endproc
 293              	.LFE372:
 295              		.text
 296              	.Letext0:
 297              		.file 2 "c:\\users\\stapi\\onedrive\\desktop\\gd32vw553\\embeddedbuilder_v1.4.7.26843\\tools\\nucl
 298              		.file 3 "c:\\users\\stapi\\onedrive\\desktop\\gd32vw553\\embeddedbuilder_v1.4.7.26843\\tools\\nucl
 299              		.file 4 "..\\..\\..\\..\\plf\\riscv\\gd32vw55x/gd32vw55x.h"
 300              		.file 5 "..\\..\\..\\..\\plf\\GD32VW55x_standard_peripheral\\Include/gd32vw55x_rcu.h"
 301              		.file 6 "..\\..\\..\\..\\plf\\GD32VW55x_standard_peripheral\\Include/gd32vw55x_syscfg.h"
DEFINED SYMBOLS
                            *ABS*:0000000000000000 gd32vw55x_syscfg.c
C:\Users\stapi\AppData\Local\Temp\ccdpfwM2.s:13     .text.syscfg_deinit:0000000000000000 syscfg_deinit
C:\Users\stapi\AppData\Local\Temp\ccdpfwM2.s:17     .text.syscfg_deinit:0000000000000000 .L0 
C:\Users\stapi\AppData\Local\Temp\ccdpfwM2.s:18     .text.syscfg_deinit:0000000000000000 .L0 
C:\Users\stapi\AppData\Local\Temp\ccdpfwM2.s:19     .text.syscfg_deinit:0000000000000008 .L0 
C:\Users\stapi\AppData\Local\Temp\ccdpfwM2.s:20     .text.syscfg_deinit:0000000000000008 .L0 
C:\Users\stapi\AppData\Local\Temp\ccdpfwM2.s:21     .text.syscfg_deinit:0000000000000008 .L0 
C:\Users\stapi\AppData\Local\Temp\ccdpfwM2.s:23     .text.syscfg_deinit:0000000000000008 .L0 
C:\Users\stapi\AppData\Local\Temp\ccdpfwM2.s:28     .text.syscfg_deinit:0000000000000016 .L0 
C:\Users\stapi\AppData\Local\Temp\ccdpfwM2.s:32     .text.syscfg_deinit:0000000000000022 .L0 
C:\Users\stapi\AppData\Local\Temp\ccdpfwM2.s:33     .text.syscfg_deinit:000000000000002a .L0 
C:\Users\stapi\AppData\Local\Temp\ccdpfwM2.s:34     .text.syscfg_deinit:000000000000002a .L0 
C:\Users\stapi\AppData\Local\Temp\ccdpfwM2.s:35     .text.syscfg_deinit:000000000000002a .L0 
C:\Users\stapi\AppData\Local\Temp\ccdpfwM2.s:36     .text.syscfg_deinit:000000000000002a .L0 
C:\Users\stapi\AppData\Local\Temp\ccdpfwM2.s:43     .text.syscfg_exti_line_config:0000000000000000 syscfg_exti_line_config
C:\Users\stapi\AppData\Local\Temp\ccdpfwM2.s:46     .text.syscfg_exti_line_config:0000000000000000 .L0 
C:\Users\stapi\AppData\Local\Temp\ccdpfwM2.s:48     .text.syscfg_exti_line_config:0000000000000000 .L0 
C:\Users\stapi\AppData\Local\Temp\ccdpfwM2.s:49     .text.syscfg_exti_line_config:0000000000000000 .L0 
C:\Users\stapi\AppData\Local\Temp\ccdpfwM2.s:50     .text.syscfg_exti_line_config:0000000000000000 .L0 
C:\Users\stapi\AppData\Local\Temp\ccdpfwM2.s:53     .text.syscfg_exti_line_config:0000000000000006 .L0 
C:\Users\stapi\AppData\Local\Temp\ccdpfwM2.s:56     .text.syscfg_exti_line_config:000000000000000c .L0 
C:\Users\stapi\AppData\Local\Temp\ccdpfwM2.s:59     .text.syscfg_exti_line_config:0000000000000010 .L0 
C:\Users\stapi\AppData\Local\Temp\ccdpfwM2.s:62     .text.syscfg_exti_line_config:0000000000000012 .L0 
C:\Users\stapi\AppData\Local\Temp\ccdpfwM2.s:64     .text.syscfg_exti_line_config:0000000000000014 .L0 
C:\Users\stapi\AppData\Local\Temp\ccdpfwM2.s:67     .text.syscfg_exti_line_config:0000000000000018 .L0 
C:\Users\stapi\AppData\Local\Temp\ccdpfwM2.s:68     .text.syscfg_exti_line_config:0000000000000018 .L0 
C:\Users\stapi\AppData\Local\Temp\ccdpfwM2.s:80     .text.syscfg_exti_line_config:0000000000000032 .L0 
C:\Users\stapi\AppData\Local\Temp\ccdpfwM2.s:81     .text.syscfg_exti_line_config:0000000000000032 .L0 
C:\Users\stapi\AppData\Local\Temp\ccdpfwM2.s:88     .text.syscfg_exti_line_config:0000000000000040 .L0 
C:\Users\stapi\AppData\Local\Temp\ccdpfwM2.s:89     .text.syscfg_exti_line_config:0000000000000040 .L0 
C:\Users\stapi\AppData\Local\Temp\ccdpfwM2.s:94     .text.syscfg_exti_line_config:0000000000000046 .L0 
C:\Users\stapi\AppData\Local\Temp\ccdpfwM2.s:98     .text.syscfg_exti_line_config:0000000000000048 .L0 
C:\Users\stapi\AppData\Local\Temp\ccdpfwM2.s:99     .text.syscfg_exti_line_config:0000000000000048 .L0 
C:\Users\stapi\AppData\Local\Temp\ccdpfwM2.s:106    .text.syscfg_exti_line_config:0000000000000056 .L0 
C:\Users\stapi\AppData\Local\Temp\ccdpfwM2.s:107    .text.syscfg_exti_line_config:0000000000000056 .L0 
C:\Users\stapi\AppData\Local\Temp\ccdpfwM2.s:112    .text.syscfg_exti_line_config:000000000000005c .L0 
C:\Users\stapi\AppData\Local\Temp\ccdpfwM2.s:116    .text.syscfg_exti_line_config:000000000000005e .L0 
C:\Users\stapi\AppData\Local\Temp\ccdpfwM2.s:117    .text.syscfg_exti_line_config:000000000000005e .L0 
C:\Users\stapi\AppData\Local\Temp\ccdpfwM2.s:124    .text.syscfg_exti_line_config:000000000000006c .L0 
C:\Users\stapi\AppData\Local\Temp\ccdpfwM2.s:125    .text.syscfg_exti_line_config:000000000000006c .L0 
C:\Users\stapi\AppData\Local\Temp\ccdpfwM2.s:130    .text.syscfg_exti_line_config:0000000000000072 .L0 
C:\Users\stapi\AppData\Local\Temp\ccdpfwM2.s:134    .text.syscfg_exti_line_config:0000000000000074 .L0 
C:\Users\stapi\AppData\Local\Temp\ccdpfwM2.s:135    .text.syscfg_exti_line_config:0000000000000074 .L0 
C:\Users\stapi\AppData\Local\Temp\ccdpfwM2.s:142    .text.syscfg_exti_line_config:0000000000000082 .L0 
C:\Users\stapi\AppData\Local\Temp\ccdpfwM2.s:143    .text.syscfg_exti_line_config:0000000000000082 .L0 
C:\Users\stapi\AppData\Local\Temp\ccdpfwM2.s:148    .text.syscfg_exti_line_config:0000000000000088 .L0 
C:\Users\stapi\AppData\Local\Temp\ccdpfwM2.s:149    .text.syscfg_exti_line_config:0000000000000088 .L0 
C:\Users\stapi\AppData\Local\Temp\ccdpfwM2.s:150    .text.syscfg_exti_line_config:000000000000008a .L0 
C:\Users\stapi\AppData\Local\Temp\ccdpfwM2.s:157    .text.syscfg_io_compensation_enable:0000000000000000 syscfg_io_compensation_enable
C:\Users\stapi\AppData\Local\Temp\ccdpfwM2.s:160    .text.syscfg_io_compensation_enable:0000000000000000 .L0 
C:\Users\stapi\AppData\Local\Temp\ccdpfwM2.s:161    .text.syscfg_io_compensation_enable:0000000000000000 .L0 
C:\Users\stapi\AppData\Local\Temp\ccdpfwM2.s:162    .text.syscfg_io_compensation_enable:0000000000000000 .L0 
C:\Users\stapi\AppData\Local\Temp\ccdpfwM2.s:163    .text.syscfg_io_compensation_enable:0000000000000000 .L0 
C:\Users\stapi\AppData\Local\Temp\ccdpfwM2.s:168    .text.syscfg_io_compensation_enable:0000000000000010 .L0 
C:\Users\stapi\AppData\Local\Temp\ccdpfwM2.s:169    .text.syscfg_io_compensation_enable:0000000000000012 .L0 
C:\Users\stapi\AppData\Local\Temp\ccdpfwM2.s:176    .text.syscfg_io_compensation_disable:0000000000000000 syscfg_io_compensation_disable
C:\Users\stapi\AppData\Local\Temp\ccdpfwM2.s:179    .text.syscfg_io_compensation_disable:0000000000000000 .L0 
C:\Users\stapi\AppData\Local\Temp\ccdpfwM2.s:180    .text.syscfg_io_compensation_disable:0000000000000000 .L0 
C:\Users\stapi\AppData\Local\Temp\ccdpfwM2.s:181    .text.syscfg_io_compensation_disable:0000000000000000 .L0 
C:\Users\stapi\AppData\Local\Temp\ccdpfwM2.s:182    .text.syscfg_io_compensation_disable:0000000000000000 .L0 
C:\Users\stapi\AppData\Local\Temp\ccdpfwM2.s:187    .text.syscfg_io_compensation_disable:000000000000000e .L0 
C:\Users\stapi\AppData\Local\Temp\ccdpfwM2.s:188    .text.syscfg_io_compensation_disable:0000000000000010 .L0 
C:\Users\stapi\AppData\Local\Temp\ccdpfwM2.s:195    .text.syscfg_lock_config:0000000000000000 syscfg_lock_config
C:\Users\stapi\AppData\Local\Temp\ccdpfwM2.s:198    .text.syscfg_lock_config:0000000000000000 .L0 
C:\Users\stapi\AppData\Local\Temp\ccdpfwM2.s:199    .text.syscfg_lock_config:0000000000000000 .L0 
C:\Users\stapi\AppData\Local\Temp\ccdpfwM2.s:200    .text.syscfg_lock_config:0000000000000000 .L0 
C:\Users\stapi\AppData\Local\Temp\ccdpfwM2.s:201    .text.syscfg_lock_config:0000000000000000 .L0 
C:\Users\stapi\AppData\Local\Temp\ccdpfwM2.s:206    .text.syscfg_lock_config:0000000000000010 .L0 
C:\Users\stapi\AppData\Local\Temp\ccdpfwM2.s:207    .text.syscfg_lock_config:0000000000000012 .L0 
C:\Users\stapi\AppData\Local\Temp\ccdpfwM2.s:214    .text.syscfg_io_compensation_ready_flag_get:0000000000000000 syscfg_io_compensation_ready_flag_get
C:\Users\stapi\AppData\Local\Temp\ccdpfwM2.s:217    .text.syscfg_io_compensation_ready_flag_get:0000000000000000 .L0 
C:\Users\stapi\AppData\Local\Temp\ccdpfwM2.s:218    .text.syscfg_io_compensation_ready_flag_get:0000000000000000 .L0 
C:\Users\stapi\AppData\Local\Temp\ccdpfwM2.s:219    .text.syscfg_io_compensation_ready_flag_get:0000000000000000 .L0 
C:\Users\stapi\AppData\Local\Temp\ccdpfwM2.s:220    .text.syscfg_io_compensation_ready_flag_get:0000000000000000 .L0 
C:\Users\stapi\AppData\Local\Temp\ccdpfwM2.s:223    .text.syscfg_io_compensation_ready_flag_get:0000000000000008 .L0 
C:\Users\stapi\AppData\Local\Temp\ccdpfwM2.s:225    .text.syscfg_io_compensation_ready_flag_get:000000000000000e .L0 
C:\Users\stapi\AppData\Local\Temp\ccdpfwM2.s:232    .text.syscfg_sram_ownership_config:0000000000000000 syscfg_sram_ownership_config
C:\Users\stapi\AppData\Local\Temp\ccdpfwM2.s:235    .text.syscfg_sram_ownership_config:0000000000000000 .L0 
C:\Users\stapi\AppData\Local\Temp\ccdpfwM2.s:237    .text.syscfg_sram_ownership_config:0000000000000000 .L0 
C:\Users\stapi\AppData\Local\Temp\ccdpfwM2.s:238    .text.syscfg_sram_ownership_config:0000000000000000 .L0 
C:\Users\stapi\AppData\Local\Temp\ccdpfwM2.s:239    .text.syscfg_sram_ownership_config:0000000000000000 .L0 
C:\Users\stapi\AppData\Local\Temp\ccdpfwM2.s:242    .text.syscfg_sram_ownership_config:0000000000000008 .L0 
C:\Users\stapi\AppData\Local\Temp\ccdpfwM2.s:244    .text.syscfg_sram_ownership_config:000000000000000a .L0 
C:\Users\stapi\AppData\Local\Temp\ccdpfwM2.s:245    .text.syscfg_sram_ownership_config:000000000000000a .L0 
C:\Users\stapi\AppData\Local\Temp\ccdpfwM2.s:248    .text.syscfg_sram_ownership_config:000000000000000c .L0 
C:\Users\stapi\AppData\Local\Temp\ccdpfwM2.s:250    .text.syscfg_sram_ownership_config:0000000000000010 .L0 
C:\Users\stapi\AppData\Local\Temp\ccdpfwM2.s:253    .text.syscfg_sram_ownership_config:0000000000000012 .L0 
C:\Users\stapi\AppData\Local\Temp\ccdpfwM2.s:254    .text.syscfg_sram_ownership_config:0000000000000012 .L0 
C:\Users\stapi\AppData\Local\Temp\ccdpfwM2.s:256    .text.syscfg_sram_ownership_config:0000000000000018 .L0 
C:\Users\stapi\AppData\Local\Temp\ccdpfwM2.s:263    .text.syscfg_boot_mode_get:0000000000000000 syscfg_boot_mode_get
C:\Users\stapi\AppData\Local\Temp\ccdpfwM2.s:266    .text.syscfg_boot_mode_get:0000000000000000 .L0 
C:\Users\stapi\AppData\Local\Temp\ccdpfwM2.s:267    .text.syscfg_boot_mode_get:0000000000000000 .L0 
C:\Users\stapi\AppData\Local\Temp\ccdpfwM2.s:268    .text.syscfg_boot_mode_get:0000000000000000 .L0 
C:\Users\stapi\AppData\Local\Temp\ccdpfwM2.s:269    .text.syscfg_boot_mode_get:0000000000000000 .L0 
C:\Users\stapi\AppData\Local\Temp\ccdpfwM2.s:270    .text.syscfg_boot_mode_get:0000000000000000 .L0 
C:\Users\stapi\AppData\Local\Temp\ccdpfwM2.s:273    .text.syscfg_boot_mode_get:0000000000000008 .L0 
C:\Users\stapi\AppData\Local\Temp\ccdpfwM2.s:275    .text.syscfg_boot_mode_get:000000000000000a .L0 
C:\Users\stapi\AppData\Local\Temp\ccdpfwM2.s:277    .text.syscfg_boot_mode_get:000000000000000c .L0 
C:\Users\stapi\AppData\Local\Temp\ccdpfwM2.s:279    .text.syscfg_boot_mode_get:0000000000000010 .L0 
C:\Users\stapi\AppData\Local\Temp\ccdpfwM2.s:280    .text.syscfg_boot_mode_get:0000000000000010 .L0 
C:\Users\stapi\AppData\Local\Temp\ccdpfwM2.s:282    .text.syscfg_boot_mode_get:0000000000000014 .L0 
C:\Users\stapi\AppData\Local\Temp\ccdpfwM2.s:284    .text.syscfg_boot_mode_get:0000000000000016 .L0 
C:\Users\stapi\AppData\Local\Temp\ccdpfwM2.s:286    .text.syscfg_boot_mode_get:0000000000000018 .L0 
C:\Users\stapi\AppData\Local\Temp\ccdpfwM2.s:288    .text.syscfg_boot_mode_get:000000000000001c .L0 
C:\Users\stapi\AppData\Local\Temp\ccdpfwM2.s:291    .text.syscfg_boot_mode_get:000000000000001e .L0 
C:\Users\stapi\AppData\Local\Temp\ccdpfwM2.s:292    .text.syscfg_boot_mode_get:0000000000000020 .L0 
C:\Users\stapi\AppData\Local\Temp\ccdpfwM2.s:39     .text.syscfg_deinit:000000000000002a .L0 
C:\Users\stapi\AppData\Local\Temp\ccdpfwM2.s:153    .text.syscfg_exti_line_config:000000000000008a .L0 
C:\Users\stapi\AppData\Local\Temp\ccdpfwM2.s:172    .text.syscfg_io_compensation_enable:0000000000000012 .L0 
C:\Users\stapi\AppData\Local\Temp\ccdpfwM2.s:191    .text.syscfg_io_compensation_disable:0000000000000010 .L0 
C:\Users\stapi\AppData\Local\Temp\ccdpfwM2.s:210    .text.syscfg_lock_config:0000000000000012 .L0 
C:\Users\stapi\AppData\Local\Temp\ccdpfwM2.s:228    .text.syscfg_io_compensation_ready_flag_get:000000000000000e .L0 
C:\Users\stapi\AppData\Local\Temp\ccdpfwM2.s:259    .text.syscfg_sram_ownership_config:0000000000000018 .L0 
C:\Users\stapi\AppData\Local\Temp\ccdpfwM2.s:295    .text.syscfg_boot_mode_get:0000000000000020 .L0 
                     .debug_frame:0000000000000000 .L0 
C:\Users\stapi\AppData\Local\Temp\ccdpfwM2.s:114    .text.syscfg_exti_line_config:000000000000005e .L4
C:\Users\stapi\AppData\Local\Temp\ccdpfwM2.s:74     .text.syscfg_exti_line_config:000000000000002a .L5
C:\Users\stapi\AppData\Local\Temp\ccdpfwM2.s:78     .text.syscfg_exti_line_config:0000000000000032 .L6
C:\Users\stapi\AppData\Local\Temp\ccdpfwM2.s:96     .text.syscfg_exti_line_config:0000000000000048 .L7
C:\Users\stapi\AppData\Local\Temp\ccdpfwM2.s:132    .text.syscfg_exti_line_config:0000000000000074 .L9
C:\Users\stapi\AppData\Local\Temp\ccdpfwM2.s:251    .text.syscfg_sram_ownership_config:0000000000000012 .L15
C:\Users\stapi\AppData\Local\Temp\ccdpfwM2.s:246    .text.syscfg_sram_ownership_config:000000000000000c .L17
C:\Users\stapi\AppData\Local\Temp\ccdpfwM2.s:289    .text.syscfg_boot_mode_get:000000000000001e .L18
C:\Users\stapi\AppData\Local\Temp\ccdpfwM2.s:689    .debug_abbrev:0000000000000000 .Ldebug_abbrev0
C:\Users\stapi\AppData\Local\Temp\ccdpfwM2.s:1195   .debug_str:0000000000000123 .LASF64
C:\Users\stapi\AppData\Local\Temp\ccdpfwM2.s:1235   .debug_str:0000000000000330 .LASF65
C:\Users\stapi\AppData\Local\Temp\ccdpfwM2.s:1263   .debug_str:00000000000004a4 .LASF66
C:\Users\stapi\AppData\Local\Temp\ccdpfwM2.s:1131   .debug_ranges:0000000000000000 .Ldebug_ranges0
C:\Users\stapi\AppData\Local\Temp\ccdpfwM2.s:1151   .debug_line:0000000000000000 .Ldebug_line0
C:\Users\stapi\AppData\Local\Temp\ccdpfwM2.s:1279   .debug_str:000000000000058a .LASF0
C:\Users\stapi\AppData\Local\Temp\ccdpfwM2.s:1215   .debug_str:00000000000002a8 .LASF1
C:\Users\stapi\AppData\Local\Temp\ccdpfwM2.s:1209   .debug_str:0000000000000282 .LASF6
C:\Users\stapi\AppData\Local\Temp\ccdpfwM2.s:1213   .debug_str:000000000000029a .LASF2
C:\Users\stapi\AppData\Local\Temp\ccdpfwM2.s:1175   .debug_str:00000000000000a1 .LASF3
C:\Users\stapi\AppData\Local\Temp\ccdpfwM2.s:1229   .debug_str:0000000000000302 .LASF4
C:\Users\stapi\AppData\Local\Temp\ccdpfwM2.s:1237   .debug_str:00000000000003d6 .LASF5
C:\Users\stapi\AppData\Local\Temp\ccdpfwM2.s:1169   .debug_str:000000000000007e .LASF7
C:\Users\stapi\AppData\Local\Temp\ccdpfwM2.s:1259   .debug_str:0000000000000482 .LASF8
C:\Users\stapi\AppData\Local\Temp\ccdpfwM2.s:1197   .debug_str:000000000000021c .LASF9
C:\Users\stapi\AppData\Local\Temp\ccdpfwM2.s:1217   .debug_str:00000000000002b4 .LASF10
C:\Users\stapi\AppData\Local\Temp\ccdpfwM2.s:1199   .debug_str:000000000000022a .LASF11
C:\Users\stapi\AppData\Local\Temp\ccdpfwM2.s:1179   .debug_str:00000000000000b6 .LASF12
C:\Users\stapi\AppData\Local\Temp\ccdpfwM2.s:1221   .debug_str:00000000000002d8 .LASF13
C:\Users\stapi\AppData\Local\Temp\ccdpfwM2.s:1273   .debug_str:0000000000000568 .LASF14
C:\Users\stapi\AppData\Local\Temp\ccdpfwM2.s:1285   .debug_str:00000000000005b9 .LASF15
C:\Users\stapi\AppData\Local\Temp\ccdpfwM2.s:1219   .debug_str:00000000000002cb .LASF16
C:\Users\stapi\AppData\Local\Temp\ccdpfwM2.s:1265   .debug_str:000000000000052d .LASF17
C:\Users\stapi\AppData\Local\Temp\ccdpfwM2.s:1173   .debug_str:0000000000000094 .LASF18
C:\Users\stapi\AppData\Local\Temp\ccdpfwM2.s:1289   .debug_str:00000000000005d1 .LASF19
C:\Users\stapi\AppData\Local\Temp\ccdpfwM2.s:1155   .debug_str:000000000000000b .LASF20
C:\Users\stapi\AppData\Local\Temp\ccdpfwM2.s:1177   .debug_str:00000000000000ab .LASF21
C:\Users\stapi\AppData\Local\Temp\ccdpfwM2.s:1161   .debug_str:000000000000003a .LASF22
C:\Users\stapi\AppData\Local\Temp\ccdpfwM2.s:1255   .debug_str:0000000000000462 .LASF23
C:\Users\stapi\AppData\Local\Temp\ccdpfwM2.s:1153   .debug_str:0000000000000000 .LASF24
C:\Users\stapi\AppData\Local\Temp\ccdpfwM2.s:1171   .debug_str:0000000000000089 .LASF25
C:\Users\stapi\AppData\Local\Temp\ccdpfwM2.s:1231   .debug_str:0000000000000315 .LASF26
C:\Users\stapi\AppData\Local\Temp\ccdpfwM2.s:1249   .debug_str:000000000000042d .LASF27
C:\Users\stapi\AppData\Local\Temp\ccdpfwM2.s:1243   .debug_str:000000000000040c .LASF28
C:\Users\stapi\AppData\Local\Temp\ccdpfwM2.s:1275   .debug_str:000000000000056e .LASF29
C:\Users\stapi\AppData\Local\Temp\ccdpfwM2.s:1247   .debug_str:000000000000041f .LASF30
C:\Users\stapi\AppData\Local\Temp\ccdpfwM2.s:1287   .debug_str:00000000000005c4 .LASF31
C:\Users\stapi\AppData\Local\Temp\ccdpfwM2.s:1183   .debug_str:00000000000000c9 .LASF32
C:\Users\stapi\AppData\Local\Temp\ccdpfwM2.s:1187   .debug_str:00000000000000f3 .LASF33
C:\Users\stapi\AppData\Local\Temp\ccdpfwM2.s:1211   .debug_str:000000000000028c .LASF34
C:\Users\stapi\AppData\Local\Temp\ccdpfwM2.s:1223   .debug_str:00000000000002e1 .LASF35
C:\Users\stapi\AppData\Local\Temp\ccdpfwM2.s:1269   .debug_str:0000000000000547 .LASF36
C:\Users\stapi\AppData\Local\Temp\ccdpfwM2.s:1193   .debug_str:0000000000000118 .LASF37
C:\Users\stapi\AppData\Local\Temp\ccdpfwM2.s:1207   .debug_str:0000000000000274 .LASF38
C:\Users\stapi\AppData\Local\Temp\ccdpfwM2.s:1267   .debug_str:000000000000053a .LASF39
C:\Users\stapi\AppData\Local\Temp\ccdpfwM2.s:1227   .debug_str:00000000000002f7 .LASF40
C:\Users\stapi\AppData\Local\Temp\ccdpfwM2.s:1181   .debug_str:00000000000000be .LASF41
C:\Users\stapi\AppData\Local\Temp\ccdpfwM2.s:1203   .debug_str:0000000000000240 .LASF42
C:\Users\stapi\AppData\Local\Temp\ccdpfwM2.s:1233   .debug_str:0000000000000321 .LASF43
C:\Users\stapi\AppData\Local\Temp\ccdpfwM2.s:1241   .debug_str:00000000000003fd .LASF44
C:\Users\stapi\AppData\Local\Temp\ccdpfwM2.s:1283   .debug_str:00000000000005af .LASF45
C:\Users\stapi\AppData\Local\Temp\ccdpfwM2.s:1253   .debug_str:0000000000000456 .LASF46
C:\Users\stapi\AppData\Local\Temp\ccdpfwM2.s:1159   .debug_str:000000000000002f .LASF47
C:\Users\stapi\AppData\Local\Temp\ccdpfwM2.s:1191   .debug_str:000000000000010b .LASF48
C:\Users\stapi\AppData\Local\Temp\ccdpfwM2.s:1167   .debug_str:0000000000000067 .LASF49
C:\Users\stapi\AppData\Local\Temp\ccdpfwM2.s:1271   .debug_str:0000000000000553 .LASF67
C:\Users\stapi\AppData\Local\Temp\ccdpfwM2.s:264    .text.syscfg_boot_mode_get:0000000000000000 .LFB372
C:\Users\stapi\AppData\Local\Temp\ccdpfwM2.s:293    .text.syscfg_boot_mode_get:0000000000000020 .LFE372
C:\Users\stapi\AppData\Local\Temp\ccdpfwM2.s:1245   .debug_str:000000000000041a .LASF58
C:\Users\stapi\AppData\Local\Temp\ccdpfwM2.s:1251   .debug_str:0000000000000439 .LASF53
C:\Users\stapi\AppData\Local\Temp\ccdpfwM2.s:233    .text.syscfg_sram_ownership_config:0000000000000000 .LFB371
C:\Users\stapi\AppData\Local\Temp\ccdpfwM2.s:257    .text.syscfg_sram_ownership_config:0000000000000018 .LFE371
C:\Users\stapi\AppData\Local\Temp\ccdpfwM2.s:1189   .debug_str:0000000000000100 .LASF55
C:\Users\stapi\AppData\Local\Temp\ccdpfwM2.s:1205   .debug_str:000000000000024e .LASF68
C:\Users\stapi\AppData\Local\Temp\ccdpfwM2.s:215    .text.syscfg_io_compensation_ready_flag_get:0000000000000000 .LFB370
C:\Users\stapi\AppData\Local\Temp\ccdpfwM2.s:226    .text.syscfg_io_compensation_ready_flag_get:000000000000000e .LFE370
C:\Users\stapi\AppData\Local\Temp\ccdpfwM2.s:1257   .debug_str:000000000000046f .LASF50
C:\Users\stapi\AppData\Local\Temp\ccdpfwM2.s:196    .text.syscfg_lock_config:0000000000000000 .LFB369
C:\Users\stapi\AppData\Local\Temp\ccdpfwM2.s:208    .text.syscfg_lock_config:0000000000000012 .LFE369
C:\Users\stapi\AppData\Local\Temp\ccdpfwM2.s:1185   .debug_str:00000000000000d4 .LASF51
C:\Users\stapi\AppData\Local\Temp\ccdpfwM2.s:177    .text.syscfg_io_compensation_disable:0000000000000000 .LFB368
C:\Users\stapi\AppData\Local\Temp\ccdpfwM2.s:189    .text.syscfg_io_compensation_disable:0000000000000010 .LFE368
C:\Users\stapi\AppData\Local\Temp\ccdpfwM2.s:1239   .debug_str:00000000000003df .LASF52
C:\Users\stapi\AppData\Local\Temp\ccdpfwM2.s:158    .text.syscfg_io_compensation_enable:0000000000000000 .LFB367
C:\Users\stapi\AppData\Local\Temp\ccdpfwM2.s:170    .text.syscfg_io_compensation_enable:0000000000000012 .LFE367
C:\Users\stapi\AppData\Local\Temp\ccdpfwM2.s:1157   .debug_str:0000000000000017 .LASF54
C:\Users\stapi\AppData\Local\Temp\ccdpfwM2.s:44     .text.syscfg_exti_line_config:0000000000000000 .LFB366
C:\Users\stapi\AppData\Local\Temp\ccdpfwM2.s:151    .text.syscfg_exti_line_config:000000000000008a .LFE366
C:\Users\stapi\AppData\Local\Temp\ccdpfwM2.s:1225   .debug_str:00000000000002ed .LASF56
C:\Users\stapi\AppData\Local\Temp\ccdpfwM2.s:1038   .debug_loc:0000000000000000 .LLST0
C:\Users\stapi\AppData\Local\Temp\ccdpfwM2.s:1165   .debug_str:000000000000005e .LASF57
C:\Users\stapi\AppData\Local\Temp\ccdpfwM2.s:1052   .debug_loc:0000000000000021 .LLST1
C:\Users\stapi\AppData\Local\Temp\ccdpfwM2.s:1261   .debug_str:0000000000000494 .LASF59
C:\Users\stapi\AppData\Local\Temp\ccdpfwM2.s:1066   .debug_loc:0000000000000042 .LLST2
C:\Users\stapi\AppData\Local\Temp\ccdpfwM2.s:1201   .debug_str:000000000000022f .LASF60
C:\Users\stapi\AppData\Local\Temp\ccdpfwM2.s:1085   .debug_loc:0000000000000076 .LLST3
C:\Users\stapi\AppData\Local\Temp\ccdpfwM2.s:1277   .debug_str:000000000000057c .LASF61
C:\Users\stapi\AppData\Local\Temp\ccdpfwM2.s:14     .text.syscfg_deinit:0000000000000000 .LFB365
C:\Users\stapi\AppData\Local\Temp\ccdpfwM2.s:37     .text.syscfg_deinit:000000000000002a .LFE365
C:\Users\stapi\AppData\Local\Temp\ccdpfwM2.s:26     .text.syscfg_deinit:0000000000000016 .LVL0
C:\Users\stapi\AppData\Local\Temp\ccdpfwM2.s:30     .text.syscfg_deinit:0000000000000022 .LVL1
C:\Users\stapi\AppData\Local\Temp\ccdpfwM2.s:1281   .debug_str:0000000000000597 .LASF62
C:\Users\stapi\AppData\Local\Temp\ccdpfwM2.s:1163   .debug_str:0000000000000045 .LASF63
C:\Users\stapi\AppData\Local\Temp\ccdpfwM2.s:47     .text.syscfg_exti_line_config:0000000000000000 .LVL2
C:\Users\stapi\AppData\Local\Temp\ccdpfwM2.s:57     .text.syscfg_exti_line_config:0000000000000010 .LVL3
C:\Users\stapi\AppData\Local\Temp\ccdpfwM2.s:60     .text.syscfg_exti_line_config:0000000000000012 .LVL4
C:\Users\stapi\AppData\Local\Temp\ccdpfwM2.s:65     .text.syscfg_exti_line_config:0000000000000018 .LVL5
C:\Users\stapi\AppData\Local\Temp\ccdpfwM2.s:85     .text.syscfg_exti_line_config:000000000000003e .LVL6
C:\Users\stapi\AppData\Local\Temp\ccdpfwM2.s:95     .text.syscfg_exti_line_config:0000000000000048 .LVL8
C:\Users\stapi\AppData\Local\Temp\ccdpfwM2.s:103    .text.syscfg_exti_line_config:0000000000000054 .LVL9
C:\Users\stapi\AppData\Local\Temp\ccdpfwM2.s:113    .text.syscfg_exti_line_config:000000000000005e .LVL11
C:\Users\stapi\AppData\Local\Temp\ccdpfwM2.s:121    .text.syscfg_exti_line_config:000000000000006a .LVL12
C:\Users\stapi\AppData\Local\Temp\ccdpfwM2.s:131    .text.syscfg_exti_line_config:0000000000000074 .LVL14
C:\Users\stapi\AppData\Local\Temp\ccdpfwM2.s:139    .text.syscfg_exti_line_config:0000000000000080 .LVL15
C:\Users\stapi\AppData\Local\Temp\ccdpfwM2.s:91     .text.syscfg_exti_line_config:0000000000000044 .LVL7
C:\Users\stapi\AppData\Local\Temp\ccdpfwM2.s:109    .text.syscfg_exti_line_config:000000000000005a .LVL10
C:\Users\stapi\AppData\Local\Temp\ccdpfwM2.s:127    .text.syscfg_exti_line_config:0000000000000070 .LVL13
C:\Users\stapi\AppData\Local\Temp\ccdpfwM2.s:145    .text.syscfg_exti_line_config:0000000000000086 .LVL16
C:\Users\stapi\AppData\Local\Temp\ccdpfwM2.s:303    .debug_info:0000000000000000 .Ldebug_info0

UNDEFINED SYMBOLS
__riscv_save_1
rcu_periph_reset_enable
rcu_periph_reset_disable
__riscv_restore_1
