   1              		.file	"gd32vw55x_rcu.c"
   2              		.option nopic
   3              		.attribute arch, "rv32i2p0_m2p0_a2p0_f2p0_c2p0_b_p0p94"
   4              		.attribute unaligned_access, 0
   5              		.attribute stack_align, 16
   6              		.text
   7              	.Ltext0:
   8              		.cfi_sections	.debug_frame
   9              		.section	.text.rcu_irc16m_dfs_to_rf_enable,"ax",@progbits
  10              		.align	1
  11              		.globl	rcu_irc16m_dfs_to_rf_enable
  13              	rcu_irc16m_dfs_to_rf_enable:
  14              	.LFB366:
  15              		.file 1 "C:/Users/stapi/OneDrive/Desktop/GD32VW553/GD32VW55X_Wifi_BLE_SDK/GD32VW55x_RELEASE_V1.0.2
   1:C:/Users/stapi/OneDrive/Desktop/GD32VW553/GD32VW55X_Wifi_BLE_SDK/GD32VW55x_RELEASE_V1.0.2/MSDK/plf/GD32VW55x_standard_peripheral/Source\gd32vw55x_rcu.c **** /*!
   2:C:/Users/stapi/OneDrive/Desktop/GD32VW553/GD32VW55X_Wifi_BLE_SDK/GD32VW55x_RELEASE_V1.0.2/MSDK/plf/GD32VW55x_standard_peripheral/Source\gd32vw55x_rcu.c ****     \file    gd32vw55x_rcu.c
   3:C:/Users/stapi/OneDrive/Desktop/GD32VW553/GD32VW55X_Wifi_BLE_SDK/GD32VW55x_RELEASE_V1.0.2/MSDK/plf/GD32VW55x_standard_peripheral/Source\gd32vw55x_rcu.c ****     \brief   RCU driver
   4:C:/Users/stapi/OneDrive/Desktop/GD32VW553/GD32VW55X_Wifi_BLE_SDK/GD32VW55x_RELEASE_V1.0.2/MSDK/plf/GD32VW55x_standard_peripheral/Source\gd32vw55x_rcu.c **** 
   5:C:/Users/stapi/OneDrive/Desktop/GD32VW553/GD32VW55X_Wifi_BLE_SDK/GD32VW55x_RELEASE_V1.0.2/MSDK/plf/GD32VW55x_standard_peripheral/Source\gd32vw55x_rcu.c ****     \version 2023-07-20, V1.0.0, firmware for GD32VW55x
   6:C:/Users/stapi/OneDrive/Desktop/GD32VW553/GD32VW55X_Wifi_BLE_SDK/GD32VW55x_RELEASE_V1.0.2/MSDK/plf/GD32VW55x_standard_peripheral/Source\gd32vw55x_rcu.c **** */
   7:C:/Users/stapi/OneDrive/Desktop/GD32VW553/GD32VW55X_Wifi_BLE_SDK/GD32VW55x_RELEASE_V1.0.2/MSDK/plf/GD32VW55x_standard_peripheral/Source\gd32vw55x_rcu.c **** 
   8:C:/Users/stapi/OneDrive/Desktop/GD32VW553/GD32VW55X_Wifi_BLE_SDK/GD32VW55x_RELEASE_V1.0.2/MSDK/plf/GD32VW55x_standard_peripheral/Source\gd32vw55x_rcu.c **** /*
   9:C:/Users/stapi/OneDrive/Desktop/GD32VW553/GD32VW55X_Wifi_BLE_SDK/GD32VW55x_RELEASE_V1.0.2/MSDK/plf/GD32VW55x_standard_peripheral/Source\gd32vw55x_rcu.c ****     Copyright (c) 2023, GigaDevice Semiconductor Inc.
  10:C:/Users/stapi/OneDrive/Desktop/GD32VW553/GD32VW55X_Wifi_BLE_SDK/GD32VW55x_RELEASE_V1.0.2/MSDK/plf/GD32VW55x_standard_peripheral/Source\gd32vw55x_rcu.c **** 
  11:C:/Users/stapi/OneDrive/Desktop/GD32VW553/GD32VW55X_Wifi_BLE_SDK/GD32VW55x_RELEASE_V1.0.2/MSDK/plf/GD32VW55x_standard_peripheral/Source\gd32vw55x_rcu.c ****     Redistribution and use in source and binary forms, with or without modification,
  12:C:/Users/stapi/OneDrive/Desktop/GD32VW553/GD32VW55X_Wifi_BLE_SDK/GD32VW55x_RELEASE_V1.0.2/MSDK/plf/GD32VW55x_standard_peripheral/Source\gd32vw55x_rcu.c **** are permitted provided that the following conditions are met:
  13:C:/Users/stapi/OneDrive/Desktop/GD32VW553/GD32VW55X_Wifi_BLE_SDK/GD32VW55x_RELEASE_V1.0.2/MSDK/plf/GD32VW55x_standard_peripheral/Source\gd32vw55x_rcu.c **** 
  14:C:/Users/stapi/OneDrive/Desktop/GD32VW553/GD32VW55X_Wifi_BLE_SDK/GD32VW55x_RELEASE_V1.0.2/MSDK/plf/GD32VW55x_standard_peripheral/Source\gd32vw55x_rcu.c ****     1. Redistributions of source code must retain the above copyright notice, this
  15:C:/Users/stapi/OneDrive/Desktop/GD32VW553/GD32VW55X_Wifi_BLE_SDK/GD32VW55x_RELEASE_V1.0.2/MSDK/plf/GD32VW55x_standard_peripheral/Source\gd32vw55x_rcu.c ****        list of conditions and the following disclaimer.
  16:C:/Users/stapi/OneDrive/Desktop/GD32VW553/GD32VW55X_Wifi_BLE_SDK/GD32VW55x_RELEASE_V1.0.2/MSDK/plf/GD32VW55x_standard_peripheral/Source\gd32vw55x_rcu.c ****     2. Redistributions in binary form must reproduce the above copyright notice,
  17:C:/Users/stapi/OneDrive/Desktop/GD32VW553/GD32VW55X_Wifi_BLE_SDK/GD32VW55x_RELEASE_V1.0.2/MSDK/plf/GD32VW55x_standard_peripheral/Source\gd32vw55x_rcu.c ****        this list of conditions and the following disclaimer in the documentation
  18:C:/Users/stapi/OneDrive/Desktop/GD32VW553/GD32VW55X_Wifi_BLE_SDK/GD32VW55x_RELEASE_V1.0.2/MSDK/plf/GD32VW55x_standard_peripheral/Source\gd32vw55x_rcu.c ****        and/or other materials provided with the distribution.
  19:C:/Users/stapi/OneDrive/Desktop/GD32VW553/GD32VW55X_Wifi_BLE_SDK/GD32VW55x_RELEASE_V1.0.2/MSDK/plf/GD32VW55x_standard_peripheral/Source\gd32vw55x_rcu.c ****     3. Neither the name of the copyright holder nor the names of its contributors
  20:C:/Users/stapi/OneDrive/Desktop/GD32VW553/GD32VW55X_Wifi_BLE_SDK/GD32VW55x_RELEASE_V1.0.2/MSDK/plf/GD32VW55x_standard_peripheral/Source\gd32vw55x_rcu.c ****        may be used to endorse or promote products derived from this software without
  21:C:/Users/stapi/OneDrive/Desktop/GD32VW553/GD32VW55X_Wifi_BLE_SDK/GD32VW55x_RELEASE_V1.0.2/MSDK/plf/GD32VW55x_standard_peripheral/Source\gd32vw55x_rcu.c ****        specific prior written permission.
  22:C:/Users/stapi/OneDrive/Desktop/GD32VW553/GD32VW55X_Wifi_BLE_SDK/GD32VW55x_RELEASE_V1.0.2/MSDK/plf/GD32VW55x_standard_peripheral/Source\gd32vw55x_rcu.c **** 
  23:C:/Users/stapi/OneDrive/Desktop/GD32VW553/GD32VW55X_Wifi_BLE_SDK/GD32VW55x_RELEASE_V1.0.2/MSDK/plf/GD32VW55x_standard_peripheral/Source\gd32vw55x_rcu.c ****     THIS SOFTWARE IS PROVIDED BY THE COPYRIGHT HOLDERS AND CONTRIBUTORS "AS IS"
  24:C:/Users/stapi/OneDrive/Desktop/GD32VW553/GD32VW55X_Wifi_BLE_SDK/GD32VW55x_RELEASE_V1.0.2/MSDK/plf/GD32VW55x_standard_peripheral/Source\gd32vw55x_rcu.c **** AND ANY EXPRESS OR IMPLIED WARRANTIES, INCLUDING, BUT NOT LIMITED TO, THE IMPLIED
  25:C:/Users/stapi/OneDrive/Desktop/GD32VW553/GD32VW55X_Wifi_BLE_SDK/GD32VW55x_RELEASE_V1.0.2/MSDK/plf/GD32VW55x_standard_peripheral/Source\gd32vw55x_rcu.c **** WARRANTIES OF MERCHANTABILITY AND FITNESS FOR A PARTICULAR PURPOSE ARE DISCLAIMED.
  26:C:/Users/stapi/OneDrive/Desktop/GD32VW553/GD32VW55X_Wifi_BLE_SDK/GD32VW55x_RELEASE_V1.0.2/MSDK/plf/GD32VW55x_standard_peripheral/Source\gd32vw55x_rcu.c **** IN NO EVENT SHALL THE COPYRIGHT HOLDER OR CONTRIBUTORS BE LIABLE FOR ANY DIRECT,
  27:C:/Users/stapi/OneDrive/Desktop/GD32VW553/GD32VW55X_Wifi_BLE_SDK/GD32VW55x_RELEASE_V1.0.2/MSDK/plf/GD32VW55x_standard_peripheral/Source\gd32vw55x_rcu.c **** INDIRECT, INCIDENTAL, SPECIAL, EXEMPLARY, OR CONSEQUENTIAL DAMAGES (INCLUDING, BUT
  28:C:/Users/stapi/OneDrive/Desktop/GD32VW553/GD32VW55X_Wifi_BLE_SDK/GD32VW55x_RELEASE_V1.0.2/MSDK/plf/GD32VW55x_standard_peripheral/Source\gd32vw55x_rcu.c **** NOT LIMITED TO, PROCUREMENT OF SUBSTITUTE GOODS OR SERVICES; LOSS OF USE, DATA, OR
  29:C:/Users/stapi/OneDrive/Desktop/GD32VW553/GD32VW55X_Wifi_BLE_SDK/GD32VW55x_RELEASE_V1.0.2/MSDK/plf/GD32VW55x_standard_peripheral/Source\gd32vw55x_rcu.c **** PROFITS; OR BUSINESS INTERRUPTION) HOWEVER CAUSED AND ON ANY THEORY OF LIABILITY,
  30:C:/Users/stapi/OneDrive/Desktop/GD32VW553/GD32VW55X_Wifi_BLE_SDK/GD32VW55x_RELEASE_V1.0.2/MSDK/plf/GD32VW55x_standard_peripheral/Source\gd32vw55x_rcu.c **** WHETHER IN CONTRACT, STRICT LIABILITY, OR TORT (INCLUDING NEGLIGENCE OR OTHERWISE)
  31:C:/Users/stapi/OneDrive/Desktop/GD32VW553/GD32VW55X_Wifi_BLE_SDK/GD32VW55x_RELEASE_V1.0.2/MSDK/plf/GD32VW55x_standard_peripheral/Source\gd32vw55x_rcu.c **** ARISING IN ANY WAY OUT OF THE USE OF THIS SOFTWARE, EVEN IF ADVISED OF THE POSSIBILITY
  32:C:/Users/stapi/OneDrive/Desktop/GD32VW553/GD32VW55X_Wifi_BLE_SDK/GD32VW55x_RELEASE_V1.0.2/MSDK/plf/GD32VW55x_standard_peripheral/Source\gd32vw55x_rcu.c **** OF SUCH DAMAGE.
  33:C:/Users/stapi/OneDrive/Desktop/GD32VW553/GD32VW55X_Wifi_BLE_SDK/GD32VW55x_RELEASE_V1.0.2/MSDK/plf/GD32VW55x_standard_peripheral/Source\gd32vw55x_rcu.c **** */
  34:C:/Users/stapi/OneDrive/Desktop/GD32VW553/GD32VW55X_Wifi_BLE_SDK/GD32VW55x_RELEASE_V1.0.2/MSDK/plf/GD32VW55x_standard_peripheral/Source\gd32vw55x_rcu.c **** 
  35:C:/Users/stapi/OneDrive/Desktop/GD32VW553/GD32VW55X_Wifi_BLE_SDK/GD32VW55x_RELEASE_V1.0.2/MSDK/plf/GD32VW55x_standard_peripheral/Source\gd32vw55x_rcu.c **** #include "gd32vw55x_rcu.h"
  36:C:/Users/stapi/OneDrive/Desktop/GD32VW553/GD32VW55X_Wifi_BLE_SDK/GD32VW55x_RELEASE_V1.0.2/MSDK/plf/GD32VW55x_standard_peripheral/Source\gd32vw55x_rcu.c **** 
  37:C:/Users/stapi/OneDrive/Desktop/GD32VW553/GD32VW55X_Wifi_BLE_SDK/GD32VW55x_RELEASE_V1.0.2/MSDK/plf/GD32VW55x_standard_peripheral/Source\gd32vw55x_rcu.c **** /* define clock source */
  38:C:/Users/stapi/OneDrive/Desktop/GD32VW553/GD32VW55X_Wifi_BLE_SDK/GD32VW55x_RELEASE_V1.0.2/MSDK/plf/GD32VW55x_standard_peripheral/Source\gd32vw55x_rcu.c **** #define SEL_IRC16M                  0x00U                            /* IRC16M is selected as CK_SY
  39:C:/Users/stapi/OneDrive/Desktop/GD32VW553/GD32VW55X_Wifi_BLE_SDK/GD32VW55x_RELEASE_V1.0.2/MSDK/plf/GD32VW55x_standard_peripheral/Source\gd32vw55x_rcu.c **** #define SEL_HXTAL                   0x01U                            /* HXTAL is selected as CK_SYS
  40:C:/Users/stapi/OneDrive/Desktop/GD32VW553/GD32VW55X_Wifi_BLE_SDK/GD32VW55x_RELEASE_V1.0.2/MSDK/plf/GD32VW55x_standard_peripheral/Source\gd32vw55x_rcu.c **** #define SEL_PLLDIG                  0x02U                            /* PLLDIG is selected as CK_SY
  41:C:/Users/stapi/OneDrive/Desktop/GD32VW553/GD32VW55X_Wifi_BLE_SDK/GD32VW55x_RELEASE_V1.0.2/MSDK/plf/GD32VW55x_standard_peripheral/Source\gd32vw55x_rcu.c **** 
  42:C:/Users/stapi/OneDrive/Desktop/GD32VW553/GD32VW55X_Wifi_BLE_SDK/GD32VW55x_RELEASE_V1.0.2/MSDK/plf/GD32VW55x_standard_peripheral/Source\gd32vw55x_rcu.c **** /* define startup timeout count */
  43:C:/Users/stapi/OneDrive/Desktop/GD32VW553/GD32VW55X_Wifi_BLE_SDK/GD32VW55x_RELEASE_V1.0.2/MSDK/plf/GD32VW55x_standard_peripheral/Source\gd32vw55x_rcu.c **** #define OSC_STARTUP_TIMEOUT         ((uint32_t)0x000FFFFFU)
  44:C:/Users/stapi/OneDrive/Desktop/GD32VW553/GD32VW55X_Wifi_BLE_SDK/GD32VW55x_RELEASE_V1.0.2/MSDK/plf/GD32VW55x_standard_peripheral/Source\gd32vw55x_rcu.c **** #define LXTAL_STARTUP_TIMEOUT       ((uint32_t)0x0FFFFFFFU)
  45:C:/Users/stapi/OneDrive/Desktop/GD32VW553/GD32VW55X_Wifi_BLE_SDK/GD32VW55x_RELEASE_V1.0.2/MSDK/plf/GD32VW55x_standard_peripheral/Source\gd32vw55x_rcu.c **** 
  46:C:/Users/stapi/OneDrive/Desktop/GD32VW553/GD32VW55X_Wifi_BLE_SDK/GD32VW55x_RELEASE_V1.0.2/MSDK/plf/GD32VW55x_standard_peripheral/Source\gd32vw55x_rcu.c **** /* RCU IRC16M adjust value mask and offset */
  47:C:/Users/stapi/OneDrive/Desktop/GD32VW553/GD32VW55X_Wifi_BLE_SDK/GD32VW55x_RELEASE_V1.0.2/MSDK/plf/GD32VW55x_standard_peripheral/Source\gd32vw55x_rcu.c **** #define RCU_IRC16M_ADJUST_MASK      ((uint32_t)0x0000001FU)
  48:C:/Users/stapi/OneDrive/Desktop/GD32VW553/GD32VW55X_Wifi_BLE_SDK/GD32VW55x_RELEASE_V1.0.2/MSDK/plf/GD32VW55x_standard_peripheral/Source\gd32vw55x_rcu.c **** #define RCU_IRC16M_ADJUST_OFFSET    ((uint32_t)0x00000003U)
  49:C:/Users/stapi/OneDrive/Desktop/GD32VW553/GD32VW55X_Wifi_BLE_SDK/GD32VW55x_RELEASE_V1.0.2/MSDK/plf/GD32VW55x_standard_peripheral/Source\gd32vw55x_rcu.c **** 
  50:C:/Users/stapi/OneDrive/Desktop/GD32VW553/GD32VW55X_Wifi_BLE_SDK/GD32VW55x_RELEASE_V1.0.2/MSDK/plf/GD32VW55x_standard_peripheral/Source\gd32vw55x_rcu.c **** /*!
  51:C:/Users/stapi/OneDrive/Desktop/GD32VW553/GD32VW55X_Wifi_BLE_SDK/GD32VW55x_RELEASE_V1.0.2/MSDK/plf/GD32VW55x_standard_peripheral/Source\gd32vw55x_rcu.c ****     \brief      deinitialize the RCU
  52:C:/Users/stapi/OneDrive/Desktop/GD32VW553/GD32VW55X_Wifi_BLE_SDK/GD32VW55x_RELEASE_V1.0.2/MSDK/plf/GD32VW55x_standard_peripheral/Source\gd32vw55x_rcu.c ****     \param[in]  none
  53:C:/Users/stapi/OneDrive/Desktop/GD32VW553/GD32VW55X_Wifi_BLE_SDK/GD32VW55x_RELEASE_V1.0.2/MSDK/plf/GD32VW55x_standard_peripheral/Source\gd32vw55x_rcu.c ****     \param[out] none
  54:C:/Users/stapi/OneDrive/Desktop/GD32VW553/GD32VW55X_Wifi_BLE_SDK/GD32VW55x_RELEASE_V1.0.2/MSDK/plf/GD32VW55x_standard_peripheral/Source\gd32vw55x_rcu.c ****     \retval     none
  55:C:/Users/stapi/OneDrive/Desktop/GD32VW553/GD32VW55X_Wifi_BLE_SDK/GD32VW55x_RELEASE_V1.0.2/MSDK/plf/GD32VW55x_standard_peripheral/Source\gd32vw55x_rcu.c **** */
  56:C:/Users/stapi/OneDrive/Desktop/GD32VW553/GD32VW55X_Wifi_BLE_SDK/GD32VW55x_RELEASE_V1.0.2/MSDK/plf/GD32VW55x_standard_peripheral/Source\gd32vw55x_rcu.c **** void rcu_deinit(void)
  57:C:/Users/stapi/OneDrive/Desktop/GD32VW553/GD32VW55X_Wifi_BLE_SDK/GD32VW55x_RELEASE_V1.0.2/MSDK/plf/GD32VW55x_standard_peripheral/Source\gd32vw55x_rcu.c **** {
  58:C:/Users/stapi/OneDrive/Desktop/GD32VW553/GD32VW55X_Wifi_BLE_SDK/GD32VW55x_RELEASE_V1.0.2/MSDK/plf/GD32VW55x_standard_peripheral/Source\gd32vw55x_rcu.c ****     /* enable IRC16M */
  59:C:/Users/stapi/OneDrive/Desktop/GD32VW553/GD32VW55X_Wifi_BLE_SDK/GD32VW55x_RELEASE_V1.0.2/MSDK/plf/GD32VW55x_standard_peripheral/Source\gd32vw55x_rcu.c ****     RCU_CTL |= RCU_CTL_IRC16MEN;
  60:C:/Users/stapi/OneDrive/Desktop/GD32VW553/GD32VW55X_Wifi_BLE_SDK/GD32VW55x_RELEASE_V1.0.2/MSDK/plf/GD32VW55x_standard_peripheral/Source\gd32vw55x_rcu.c ****     rcu_osci_stab_wait(RCU_IRC16M);
  61:C:/Users/stapi/OneDrive/Desktop/GD32VW553/GD32VW55X_Wifi_BLE_SDK/GD32VW55x_RELEASE_V1.0.2/MSDK/plf/GD32VW55x_standard_peripheral/Source\gd32vw55x_rcu.c ****     RCU_CFG0 &= ~RCU_CFG0_SCS;
  62:C:/Users/stapi/OneDrive/Desktop/GD32VW553/GD32VW55X_Wifi_BLE_SDK/GD32VW55x_RELEASE_V1.0.2/MSDK/plf/GD32VW55x_standard_peripheral/Source\gd32vw55x_rcu.c ****     /* reset CFG0 register */
  63:C:/Users/stapi/OneDrive/Desktop/GD32VW553/GD32VW55X_Wifi_BLE_SDK/GD32VW55x_RELEASE_V1.0.2/MSDK/plf/GD32VW55x_standard_peripheral/Source\gd32vw55x_rcu.c ****     RCU_CFG0 &= ~(RCU_CFG0_SCS | RCU_CFG0_AHBPSC | RCU_CFG0_APB1PSC | RCU_CFG0_APB2PSC |
  64:C:/Users/stapi/OneDrive/Desktop/GD32VW553/GD32VW55X_Wifi_BLE_SDK/GD32VW55x_RELEASE_V1.0.2/MSDK/plf/GD32VW55x_standard_peripheral/Source\gd32vw55x_rcu.c ****                   RCU_CFG0_RTCDIV | RCU_CFG0_CKOUT0SEL  | RCU_CFG0_CKOUT0DIV);
  65:C:/Users/stapi/OneDrive/Desktop/GD32VW553/GD32VW55X_Wifi_BLE_SDK/GD32VW55x_RELEASE_V1.0.2/MSDK/plf/GD32VW55x_standard_peripheral/Source\gd32vw55x_rcu.c ****     /* reset CTL register */
  66:C:/Users/stapi/OneDrive/Desktop/GD32VW553/GD32VW55X_Wifi_BLE_SDK/GD32VW55x_RELEASE_V1.0.2/MSDK/plf/GD32VW55x_standard_peripheral/Source\gd32vw55x_rcu.c ****     RCU_CTL &= ~(RCU_CTL_HXTALREADY | RCU_CTL_HXTALEN | RCU_CTL_PLLDIGEN |
  67:C:/Users/stapi/OneDrive/Desktop/GD32VW553/GD32VW55X_Wifi_BLE_SDK/GD32VW55x_RELEASE_V1.0.2/MSDK/plf/GD32VW55x_standard_peripheral/Source\gd32vw55x_rcu.c ****                  RCU_CTL_HXTALPU | RCU_CTL_PLLDIGPU | RCU_CTL_RFCKMEN);
  68:C:/Users/stapi/OneDrive/Desktop/GD32VW553/GD32VW55X_Wifi_BLE_SDK/GD32VW55x_RELEASE_V1.0.2/MSDK/plf/GD32VW55x_standard_peripheral/Source\gd32vw55x_rcu.c ****     /* reset CFG1 register */
  69:C:/Users/stapi/OneDrive/Desktop/GD32VW553/GD32VW55X_Wifi_BLE_SDK/GD32VW55x_RELEASE_V1.0.2/MSDK/plf/GD32VW55x_standard_peripheral/Source\gd32vw55x_rcu.c ****     RCU_CFG1 = 0x00000000U;
  70:C:/Users/stapi/OneDrive/Desktop/GD32VW553/GD32VW55X_Wifi_BLE_SDK/GD32VW55x_RELEASE_V1.0.2/MSDK/plf/GD32VW55x_standard_peripheral/Source\gd32vw55x_rcu.c ****     /* reset ADDCTL register */
  71:C:/Users/stapi/OneDrive/Desktop/GD32VW553/GD32VW55X_Wifi_BLE_SDK/GD32VW55x_RELEASE_V1.0.2/MSDK/plf/GD32VW55x_standard_peripheral/Source\gd32vw55x_rcu.c ****     RCU_ADDCTL = 0x00000000U;
  72:C:/Users/stapi/OneDrive/Desktop/GD32VW553/GD32VW55X_Wifi_BLE_SDK/GD32VW55x_RELEASE_V1.0.2/MSDK/plf/GD32VW55x_standard_peripheral/Source\gd32vw55x_rcu.c ****     /* reset PLL register */
  73:C:/Users/stapi/OneDrive/Desktop/GD32VW553/GD32VW55X_Wifi_BLE_SDK/GD32VW55x_RELEASE_V1.0.2/MSDK/plf/GD32VW55x_standard_peripheral/Source\gd32vw55x_rcu.c ****     RCU_PLL = 0x00000000U;
  74:C:/Users/stapi/OneDrive/Desktop/GD32VW553/GD32VW55X_Wifi_BLE_SDK/GD32VW55x_RELEASE_V1.0.2/MSDK/plf/GD32VW55x_standard_peripheral/Source\gd32vw55x_rcu.c ****     /* reset PLLDIGCFG0 register */
  75:C:/Users/stapi/OneDrive/Desktop/GD32VW553/GD32VW55X_Wifi_BLE_SDK/GD32VW55x_RELEASE_V1.0.2/MSDK/plf/GD32VW55x_standard_peripheral/Source\gd32vw55x_rcu.c ****     RCU_PLLDIGCFG0 = 0x00000000U;
  76:C:/Users/stapi/OneDrive/Desktop/GD32VW553/GD32VW55X_Wifi_BLE_SDK/GD32VW55x_RELEASE_V1.0.2/MSDK/plf/GD32VW55x_standard_peripheral/Source\gd32vw55x_rcu.c ****     /* reset PLLDIGCFG1 register */
  77:C:/Users/stapi/OneDrive/Desktop/GD32VW553/GD32VW55X_Wifi_BLE_SDK/GD32VW55x_RELEASE_V1.0.2/MSDK/plf/GD32VW55x_standard_peripheral/Source\gd32vw55x_rcu.c ****     RCU_PLLDIGCFG1 = 0x00000000U;
  78:C:/Users/stapi/OneDrive/Desktop/GD32VW553/GD32VW55X_Wifi_BLE_SDK/GD32VW55x_RELEASE_V1.0.2/MSDK/plf/GD32VW55x_standard_peripheral/Source\gd32vw55x_rcu.c ****     /* reset INT register */
  79:C:/Users/stapi/OneDrive/Desktop/GD32VW553/GD32VW55X_Wifi_BLE_SDK/GD32VW55x_RELEASE_V1.0.2/MSDK/plf/GD32VW55x_standard_peripheral/Source\gd32vw55x_rcu.c ****     RCU_INT = 0x00000000U;
  80:C:/Users/stapi/OneDrive/Desktop/GD32VW553/GD32VW55X_Wifi_BLE_SDK/GD32VW55x_RELEASE_V1.0.2/MSDK/plf/GD32VW55x_standard_peripheral/Source\gd32vw55x_rcu.c **** }
  81:C:/Users/stapi/OneDrive/Desktop/GD32VW553/GD32VW55X_Wifi_BLE_SDK/GD32VW55x_RELEASE_V1.0.2/MSDK/plf/GD32VW55x_standard_peripheral/Source\gd32vw55x_rcu.c **** 
  82:C:/Users/stapi/OneDrive/Desktop/GD32VW553/GD32VW55X_Wifi_BLE_SDK/GD32VW55x_RELEASE_V1.0.2/MSDK/plf/GD32VW55x_standard_peripheral/Source\gd32vw55x_rcu.c **** /*!
  83:C:/Users/stapi/OneDrive/Desktop/GD32VW553/GD32VW55X_Wifi_BLE_SDK/GD32VW55x_RELEASE_V1.0.2/MSDK/plf/GD32VW55x_standard_peripheral/Source\gd32vw55x_rcu.c ****     \brief      enable differential signal of IRC16M to RF module
  84:C:/Users/stapi/OneDrive/Desktop/GD32VW553/GD32VW55X_Wifi_BLE_SDK/GD32VW55x_RELEASE_V1.0.2/MSDK/plf/GD32VW55x_standard_peripheral/Source\gd32vw55x_rcu.c ****     \param[in]  none
  85:C:/Users/stapi/OneDrive/Desktop/GD32VW553/GD32VW55X_Wifi_BLE_SDK/GD32VW55x_RELEASE_V1.0.2/MSDK/plf/GD32VW55x_standard_peripheral/Source\gd32vw55x_rcu.c ****     \param[out] none
  86:C:/Users/stapi/OneDrive/Desktop/GD32VW553/GD32VW55X_Wifi_BLE_SDK/GD32VW55x_RELEASE_V1.0.2/MSDK/plf/GD32VW55x_standard_peripheral/Source\gd32vw55x_rcu.c ****     \retval     none
  87:C:/Users/stapi/OneDrive/Desktop/GD32VW553/GD32VW55X_Wifi_BLE_SDK/GD32VW55x_RELEASE_V1.0.2/MSDK/plf/GD32VW55x_standard_peripheral/Source\gd32vw55x_rcu.c **** */
  88:C:/Users/stapi/OneDrive/Desktop/GD32VW553/GD32VW55X_Wifi_BLE_SDK/GD32VW55x_RELEASE_V1.0.2/MSDK/plf/GD32VW55x_standard_peripheral/Source\gd32vw55x_rcu.c **** void rcu_irc16m_dfs_to_rf_enable(void)
  89:C:/Users/stapi/OneDrive/Desktop/GD32VW553/GD32VW55X_Wifi_BLE_SDK/GD32VW55x_RELEASE_V1.0.2/MSDK/plf/GD32VW55x_standard_peripheral/Source\gd32vw55x_rcu.c **** {
  16              		.loc 1 89 1
  17              		.cfi_startproc
  90:C:/Users/stapi/OneDrive/Desktop/GD32VW553/GD32VW55X_Wifi_BLE_SDK/GD32VW55x_RELEASE_V1.0.2/MSDK/plf/GD32VW55x_standard_peripheral/Source\gd32vw55x_rcu.c ****     RCU_CTL |= RCU_CTL_IRC16MRFON;
  18              		.loc 1 90 5
  19              		.loc 1 90 13 is_stmt 0
  20 0000 37470240 		li	a4,1073889280
  21 0004 83270780 		lw	a5,-2048(a4)
  22 0008 93E74700 		ori	a5,a5,4
  23 000c 2320F780 		sw	a5,-2048(a4)
  91:C:/Users/stapi/OneDrive/Desktop/GD32VW553/GD32VW55X_Wifi_BLE_SDK/GD32VW55x_RELEASE_V1.0.2/MSDK/plf/GD32VW55x_standard_peripheral/Source\gd32vw55x_rcu.c **** }
  24              		.loc 1 91 1
  25 0010 8280     		ret
  26              		.cfi_endproc
  27              	.LFE366:
  29              		.section	.text.rcu_irc16m_dfs_to_rf_disable,"ax",@progbits
  30              		.align	1
  31              		.globl	rcu_irc16m_dfs_to_rf_disable
  33              	rcu_irc16m_dfs_to_rf_disable:
  34              	.LFB367:
  92:C:/Users/stapi/OneDrive/Desktop/GD32VW553/GD32VW55X_Wifi_BLE_SDK/GD32VW55x_RELEASE_V1.0.2/MSDK/plf/GD32VW55x_standard_peripheral/Source\gd32vw55x_rcu.c **** 
  93:C:/Users/stapi/OneDrive/Desktop/GD32VW553/GD32VW55X_Wifi_BLE_SDK/GD32VW55x_RELEASE_V1.0.2/MSDK/plf/GD32VW55x_standard_peripheral/Source\gd32vw55x_rcu.c **** /*!
  94:C:/Users/stapi/OneDrive/Desktop/GD32VW553/GD32VW55X_Wifi_BLE_SDK/GD32VW55x_RELEASE_V1.0.2/MSDK/plf/GD32VW55x_standard_peripheral/Source\gd32vw55x_rcu.c ****     \brief      disable differential signal of IRC16M to RF module
  95:C:/Users/stapi/OneDrive/Desktop/GD32VW553/GD32VW55X_Wifi_BLE_SDK/GD32VW55x_RELEASE_V1.0.2/MSDK/plf/GD32VW55x_standard_peripheral/Source\gd32vw55x_rcu.c ****     \param[in]  none
  96:C:/Users/stapi/OneDrive/Desktop/GD32VW553/GD32VW55X_Wifi_BLE_SDK/GD32VW55x_RELEASE_V1.0.2/MSDK/plf/GD32VW55x_standard_peripheral/Source\gd32vw55x_rcu.c ****     \param[out] none
  97:C:/Users/stapi/OneDrive/Desktop/GD32VW553/GD32VW55X_Wifi_BLE_SDK/GD32VW55x_RELEASE_V1.0.2/MSDK/plf/GD32VW55x_standard_peripheral/Source\gd32vw55x_rcu.c ****     \retval     none
  98:C:/Users/stapi/OneDrive/Desktop/GD32VW553/GD32VW55X_Wifi_BLE_SDK/GD32VW55x_RELEASE_V1.0.2/MSDK/plf/GD32VW55x_standard_peripheral/Source\gd32vw55x_rcu.c **** */
  99:C:/Users/stapi/OneDrive/Desktop/GD32VW553/GD32VW55X_Wifi_BLE_SDK/GD32VW55x_RELEASE_V1.0.2/MSDK/plf/GD32VW55x_standard_peripheral/Source\gd32vw55x_rcu.c **** void rcu_irc16m_dfs_to_rf_disable(void)
 100:C:/Users/stapi/OneDrive/Desktop/GD32VW553/GD32VW55X_Wifi_BLE_SDK/GD32VW55x_RELEASE_V1.0.2/MSDK/plf/GD32VW55x_standard_peripheral/Source\gd32vw55x_rcu.c **** {
  35              		.loc 1 100 1 is_stmt 1
  36              		.cfi_startproc
 101:C:/Users/stapi/OneDrive/Desktop/GD32VW553/GD32VW55X_Wifi_BLE_SDK/GD32VW55x_RELEASE_V1.0.2/MSDK/plf/GD32VW55x_standard_peripheral/Source\gd32vw55x_rcu.c ****     RCU_CTL &= ~RCU_CTL_IRC16MRFON;
  37              		.loc 1 101 5
  38              		.loc 1 101 13 is_stmt 0
  39 0000 37470240 		li	a4,1073889280
  40 0004 83270780 		lw	a5,-2048(a4)
  41 0008 ED9B     		andi	a5,a5,-5
  42 000a 2320F780 		sw	a5,-2048(a4)
 102:C:/Users/stapi/OneDrive/Desktop/GD32VW553/GD32VW55X_Wifi_BLE_SDK/GD32VW55x_RELEASE_V1.0.2/MSDK/plf/GD32VW55x_standard_peripheral/Source\gd32vw55x_rcu.c **** }
  43              		.loc 1 102 1
  44 000e 8280     		ret
  45              		.cfi_endproc
  46              	.LFE367:
  48              		.section	.text.rcu_periph_clock_enable,"ax",@progbits
  49              		.align	1
  50              		.globl	rcu_periph_clock_enable
  52              	rcu_periph_clock_enable:
  53              	.LFB368:
 103:C:/Users/stapi/OneDrive/Desktop/GD32VW553/GD32VW55X_Wifi_BLE_SDK/GD32VW55x_RELEASE_V1.0.2/MSDK/plf/GD32VW55x_standard_peripheral/Source\gd32vw55x_rcu.c **** 
 104:C:/Users/stapi/OneDrive/Desktop/GD32VW553/GD32VW55X_Wifi_BLE_SDK/GD32VW55x_RELEASE_V1.0.2/MSDK/plf/GD32VW55x_standard_peripheral/Source\gd32vw55x_rcu.c **** /*!
 105:C:/Users/stapi/OneDrive/Desktop/GD32VW553/GD32VW55X_Wifi_BLE_SDK/GD32VW55x_RELEASE_V1.0.2/MSDK/plf/GD32VW55x_standard_peripheral/Source\gd32vw55x_rcu.c ****     \brief      enable the peripherals clock
 106:C:/Users/stapi/OneDrive/Desktop/GD32VW553/GD32VW55X_Wifi_BLE_SDK/GD32VW55x_RELEASE_V1.0.2/MSDK/plf/GD32VW55x_standard_peripheral/Source\gd32vw55x_rcu.c ****     \param[in]  periph: RCU peripherals, refer to rcu_periph_enum
 107:C:/Users/stapi/OneDrive/Desktop/GD32VW553/GD32VW55X_Wifi_BLE_SDK/GD32VW55x_RELEASE_V1.0.2/MSDK/plf/GD32VW55x_standard_peripheral/Source\gd32vw55x_rcu.c ****                 only one parameter can be selected which is shown as below:
 108:C:/Users/stapi/OneDrive/Desktop/GD32VW553/GD32VW55X_Wifi_BLE_SDK/GD32VW55x_RELEASE_V1.0.2/MSDK/plf/GD32VW55x_standard_peripheral/Source\gd32vw55x_rcu.c ****       \arg        RCU_GPIOx (x=A,B,C): GPIO ports clock
 109:C:/Users/stapi/OneDrive/Desktop/GD32VW553/GD32VW55X_Wifi_BLE_SDK/GD32VW55x_RELEASE_V1.0.2/MSDK/plf/GD32VW55x_standard_peripheral/Source\gd32vw55x_rcu.c ****       \arg        RCU_CRC: CRC clock
 110:C:/Users/stapi/OneDrive/Desktop/GD32VW553/GD32VW55X_Wifi_BLE_SDK/GD32VW55x_RELEASE_V1.0.2/MSDK/plf/GD32VW55x_standard_peripheral/Source\gd32vw55x_rcu.c ****       \arg        RCU_WIFI: WIFI clock
 111:C:/Users/stapi/OneDrive/Desktop/GD32VW553/GD32VW55X_Wifi_BLE_SDK/GD32VW55x_RELEASE_V1.0.2/MSDK/plf/GD32VW55x_standard_peripheral/Source\gd32vw55x_rcu.c ****       \arg        RCU_WIFIRUN: WIFIRUN clock
 112:C:/Users/stapi/OneDrive/Desktop/GD32VW553/GD32VW55X_Wifi_BLE_SDK/GD32VW55x_RELEASE_V1.0.2/MSDK/plf/GD32VW55x_standard_peripheral/Source\gd32vw55x_rcu.c ****       \arg        RCU_SRAMx: (x=0,1,2,3):SRAM clock
 113:C:/Users/stapi/OneDrive/Desktop/GD32VW553/GD32VW55X_Wifi_BLE_SDK/GD32VW55x_RELEASE_V1.0.2/MSDK/plf/GD32VW55x_standard_peripheral/Source\gd32vw55x_rcu.c ****       \arg        RCU_DMA: DMA clock
 114:C:/Users/stapi/OneDrive/Desktop/GD32VW553/GD32VW55X_Wifi_BLE_SDK/GD32VW55x_RELEASE_V1.0.2/MSDK/plf/GD32VW55x_standard_peripheral/Source\gd32vw55x_rcu.c ****       \arg        RCU_BLE: Blue tooth clock
 115:C:/Users/stapi/OneDrive/Desktop/GD32VW553/GD32VW55X_Wifi_BLE_SDK/GD32VW55x_RELEASE_V1.0.2/MSDK/plf/GD32VW55x_standard_peripheral/Source\gd32vw55x_rcu.c ****       \arg        RCU_PKCAU: PKCAU clock
 116:C:/Users/stapi/OneDrive/Desktop/GD32VW553/GD32VW55X_Wifi_BLE_SDK/GD32VW55x_RELEASE_V1.0.2/MSDK/plf/GD32VW55x_standard_peripheral/Source\gd32vw55x_rcu.c ****       \arg        RCU_CAU: CAU clock
 117:C:/Users/stapi/OneDrive/Desktop/GD32VW553/GD32VW55X_Wifi_BLE_SDK/GD32VW55x_RELEASE_V1.0.2/MSDK/plf/GD32VW55x_standard_peripheral/Source\gd32vw55x_rcu.c ****       \arg        RCU_HAU: HAU clock
 118:C:/Users/stapi/OneDrive/Desktop/GD32VW553/GD32VW55X_Wifi_BLE_SDK/GD32VW55x_RELEASE_V1.0.2/MSDK/plf/GD32VW55x_standard_peripheral/Source\gd32vw55x_rcu.c ****       \arg        RCU_TRNG: TRNG clock
 119:C:/Users/stapi/OneDrive/Desktop/GD32VW553/GD32VW55X_Wifi_BLE_SDK/GD32VW55x_RELEASE_V1.0.2/MSDK/plf/GD32VW55x_standard_peripheral/Source\gd32vw55x_rcu.c ****       \arg        RCU_QSPI: QSPI clock
 120:C:/Users/stapi/OneDrive/Desktop/GD32VW553/GD32VW55X_Wifi_BLE_SDK/GD32VW55x_RELEASE_V1.0.2/MSDK/plf/GD32VW55x_standard_peripheral/Source\gd32vw55x_rcu.c ****       \arg        RCU_TIMERx (x=0,1,2,5,15,16): TIMER clock
 121:C:/Users/stapi/OneDrive/Desktop/GD32VW553/GD32VW55X_Wifi_BLE_SDK/GD32VW55x_RELEASE_V1.0.2/MSDK/plf/GD32VW55x_standard_peripheral/Source\gd32vw55x_rcu.c ****       \arg        RCU_WWDGT: WWDGT clock
 122:C:/Users/stapi/OneDrive/Desktop/GD32VW553/GD32VW55X_Wifi_BLE_SDK/GD32VW55x_RELEASE_V1.0.2/MSDK/plf/GD32VW55x_standard_peripheral/Source\gd32vw55x_rcu.c ****       \arg        RCU_SPI: SPI clock
 123:C:/Users/stapi/OneDrive/Desktop/GD32VW553/GD32VW55X_Wifi_BLE_SDK/GD32VW55x_RELEASE_V1.0.2/MSDK/plf/GD32VW55x_standard_peripheral/Source\gd32vw55x_rcu.c ****       \arg        RFI: RFI clock
 124:C:/Users/stapi/OneDrive/Desktop/GD32VW553/GD32VW55X_Wifi_BLE_SDK/GD32VW55x_RELEASE_V1.0.2/MSDK/plf/GD32VW55x_standard_peripheral/Source\gd32vw55x_rcu.c ****       \arg        RCU_USART0: USART clock
 125:C:/Users/stapi/OneDrive/Desktop/GD32VW553/GD32VW55X_Wifi_BLE_SDK/GD32VW55x_RELEASE_V1.0.2/MSDK/plf/GD32VW55x_standard_peripheral/Source\gd32vw55x_rcu.c ****       \arg        RCU_UARTx (x=1,2): UART clock
 126:C:/Users/stapi/OneDrive/Desktop/GD32VW553/GD32VW55X_Wifi_BLE_SDK/GD32VW55x_RELEASE_V1.0.2/MSDK/plf/GD32VW55x_standard_peripheral/Source\gd32vw55x_rcu.c ****       \arg        RCU_I2Cx (x=0,1): I2C clock
 127:C:/Users/stapi/OneDrive/Desktop/GD32VW553/GD32VW55X_Wifi_BLE_SDK/GD32VW55x_RELEASE_V1.0.2/MSDK/plf/GD32VW55x_standard_peripheral/Source\gd32vw55x_rcu.c ****       \arg        RCU_PMU: PMU clock
 128:C:/Users/stapi/OneDrive/Desktop/GD32VW553/GD32VW55X_Wifi_BLE_SDK/GD32VW55x_RELEASE_V1.0.2/MSDK/plf/GD32VW55x_standard_peripheral/Source\gd32vw55x_rcu.c ****       \arg        RCU_RTC: RTC clock
 129:C:/Users/stapi/OneDrive/Desktop/GD32VW553/GD32VW55X_Wifi_BLE_SDK/GD32VW55x_RELEASE_V1.0.2/MSDK/plf/GD32VW55x_standard_peripheral/Source\gd32vw55x_rcu.c ****       \arg        RCU_ADC : ADC clock
 130:C:/Users/stapi/OneDrive/Desktop/GD32VW553/GD32VW55X_Wifi_BLE_SDK/GD32VW55x_RELEASE_V1.0.2/MSDK/plf/GD32VW55x_standard_peripheral/Source\gd32vw55x_rcu.c ****       \arg        RCU_SYSCFG: SYSCFG clock
 131:C:/Users/stapi/OneDrive/Desktop/GD32VW553/GD32VW55X_Wifi_BLE_SDK/GD32VW55x_RELEASE_V1.0.2/MSDK/plf/GD32VW55x_standard_peripheral/Source\gd32vw55x_rcu.c ****       \arg        RCU_RF: RF clock
 132:C:/Users/stapi/OneDrive/Desktop/GD32VW553/GD32VW55X_Wifi_BLE_SDK/GD32VW55x_RELEASE_V1.0.2/MSDK/plf/GD32VW55x_standard_peripheral/Source\gd32vw55x_rcu.c ****     \param[out] none
 133:C:/Users/stapi/OneDrive/Desktop/GD32VW553/GD32VW55X_Wifi_BLE_SDK/GD32VW55x_RELEASE_V1.0.2/MSDK/plf/GD32VW55x_standard_peripheral/Source\gd32vw55x_rcu.c ****     \retval     none
 134:C:/Users/stapi/OneDrive/Desktop/GD32VW553/GD32VW55X_Wifi_BLE_SDK/GD32VW55x_RELEASE_V1.0.2/MSDK/plf/GD32VW55x_standard_peripheral/Source\gd32vw55x_rcu.c **** */
 135:C:/Users/stapi/OneDrive/Desktop/GD32VW553/GD32VW55X_Wifi_BLE_SDK/GD32VW55x_RELEASE_V1.0.2/MSDK/plf/GD32VW55x_standard_peripheral/Source\gd32vw55x_rcu.c **** void rcu_periph_clock_enable(rcu_periph_enum periph)
 136:C:/Users/stapi/OneDrive/Desktop/GD32VW553/GD32VW55X_Wifi_BLE_SDK/GD32VW55x_RELEASE_V1.0.2/MSDK/plf/GD32VW55x_standard_peripheral/Source\gd32vw55x_rcu.c **** {
  54              		.loc 1 136 1 is_stmt 1
  55              		.cfi_startproc
  56              	.LVL0:
 137:C:/Users/stapi/OneDrive/Desktop/GD32VW553/GD32VW55X_Wifi_BLE_SDK/GD32VW55x_RELEASE_V1.0.2/MSDK/plf/GD32VW55x_standard_peripheral/Source\gd32vw55x_rcu.c ****     RCU_REG_VAL(periph) |= BIT(RCU_BIT_POS(periph));
  57              		.loc 1 137 5
  58              		.loc 1 137 25 is_stmt 0
  59 0000 37470240 		li	a4,1073889280
  60 0004 93576500 		srli	a5,a0,6
  61 0008 13070780 		addi	a4,a4,-2048
  62 000c BA97     		add	a5,a5,a4
  63 000e 9843     		lw	a4,0(a5)
  64 0010 3315A728 		bset	a0,a4,a0
  65              	.LVL1:
  66 0014 88C3     		sw	a0,0(a5)
 138:C:/Users/stapi/OneDrive/Desktop/GD32VW553/GD32VW55X_Wifi_BLE_SDK/GD32VW55x_RELEASE_V1.0.2/MSDK/plf/GD32VW55x_standard_peripheral/Source\gd32vw55x_rcu.c **** }
  67              		.loc 1 138 1
  68 0016 8280     		ret
  69              		.cfi_endproc
  70              	.LFE368:
  72              		.section	.text.rcu_periph_clock_disable,"ax",@progbits
  73              		.align	1
  74              		.globl	rcu_periph_clock_disable
  76              	rcu_periph_clock_disable:
  77              	.LFB369:
 139:C:/Users/stapi/OneDrive/Desktop/GD32VW553/GD32VW55X_Wifi_BLE_SDK/GD32VW55x_RELEASE_V1.0.2/MSDK/plf/GD32VW55x_standard_peripheral/Source\gd32vw55x_rcu.c **** 
 140:C:/Users/stapi/OneDrive/Desktop/GD32VW553/GD32VW55X_Wifi_BLE_SDK/GD32VW55x_RELEASE_V1.0.2/MSDK/plf/GD32VW55x_standard_peripheral/Source\gd32vw55x_rcu.c **** /*!
 141:C:/Users/stapi/OneDrive/Desktop/GD32VW553/GD32VW55X_Wifi_BLE_SDK/GD32VW55x_RELEASE_V1.0.2/MSDK/plf/GD32VW55x_standard_peripheral/Source\gd32vw55x_rcu.c ****     \brief      disable the peripherals clock
 142:C:/Users/stapi/OneDrive/Desktop/GD32VW553/GD32VW55X_Wifi_BLE_SDK/GD32VW55x_RELEASE_V1.0.2/MSDK/plf/GD32VW55x_standard_peripheral/Source\gd32vw55x_rcu.c ****     \param[in]  periph: RCU peripherals, refer to rcu_periph_enum
 143:C:/Users/stapi/OneDrive/Desktop/GD32VW553/GD32VW55X_Wifi_BLE_SDK/GD32VW55x_RELEASE_V1.0.2/MSDK/plf/GD32VW55x_standard_peripheral/Source\gd32vw55x_rcu.c ****                 only one parameter can be selected which is shown as below:
 144:C:/Users/stapi/OneDrive/Desktop/GD32VW553/GD32VW55X_Wifi_BLE_SDK/GD32VW55x_RELEASE_V1.0.2/MSDK/plf/GD32VW55x_standard_peripheral/Source\gd32vw55x_rcu.c ****       \arg        RCU_GPIOx (x=A,B,C): GPIO ports clock
 145:C:/Users/stapi/OneDrive/Desktop/GD32VW553/GD32VW55X_Wifi_BLE_SDK/GD32VW55x_RELEASE_V1.0.2/MSDK/plf/GD32VW55x_standard_peripheral/Source\gd32vw55x_rcu.c ****       \arg        RCU_CRC: CRC clock
 146:C:/Users/stapi/OneDrive/Desktop/GD32VW553/GD32VW55X_Wifi_BLE_SDK/GD32VW55x_RELEASE_V1.0.2/MSDK/plf/GD32VW55x_standard_peripheral/Source\gd32vw55x_rcu.c ****       \arg        RCU_WIFI: WIFI clock
 147:C:/Users/stapi/OneDrive/Desktop/GD32VW553/GD32VW55X_Wifi_BLE_SDK/GD32VW55x_RELEASE_V1.0.2/MSDK/plf/GD32VW55x_standard_peripheral/Source\gd32vw55x_rcu.c ****       \arg        RCU_WIFIRUN: WIFIRUN clock
 148:C:/Users/stapi/OneDrive/Desktop/GD32VW553/GD32VW55X_Wifi_BLE_SDK/GD32VW55x_RELEASE_V1.0.2/MSDK/plf/GD32VW55x_standard_peripheral/Source\gd32vw55x_rcu.c ****       \arg        RCU_SRAMx: (x=0,1,2):SRAM clock
 149:C:/Users/stapi/OneDrive/Desktop/GD32VW553/GD32VW55X_Wifi_BLE_SDK/GD32VW55x_RELEASE_V1.0.2/MSDK/plf/GD32VW55x_standard_peripheral/Source\gd32vw55x_rcu.c ****       \arg        RCU_DMA: DMA clock
 150:C:/Users/stapi/OneDrive/Desktop/GD32VW553/GD32VW55X_Wifi_BLE_SDK/GD32VW55x_RELEASE_V1.0.2/MSDK/plf/GD32VW55x_standard_peripheral/Source\gd32vw55x_rcu.c ****       \arg        RCU_BLE: Blue tooth clock
 151:C:/Users/stapi/OneDrive/Desktop/GD32VW553/GD32VW55X_Wifi_BLE_SDK/GD32VW55x_RELEASE_V1.0.2/MSDK/plf/GD32VW55x_standard_peripheral/Source\gd32vw55x_rcu.c ****       \arg        RCU_PKCAU: PKCAU clock
 152:C:/Users/stapi/OneDrive/Desktop/GD32VW553/GD32VW55X_Wifi_BLE_SDK/GD32VW55x_RELEASE_V1.0.2/MSDK/plf/GD32VW55x_standard_peripheral/Source\gd32vw55x_rcu.c ****       \arg        RCU_CAU: CAU clock
 153:C:/Users/stapi/OneDrive/Desktop/GD32VW553/GD32VW55X_Wifi_BLE_SDK/GD32VW55x_RELEASE_V1.0.2/MSDK/plf/GD32VW55x_standard_peripheral/Source\gd32vw55x_rcu.c ****       \arg        RCU_HAU: HAU clock
 154:C:/Users/stapi/OneDrive/Desktop/GD32VW553/GD32VW55X_Wifi_BLE_SDK/GD32VW55x_RELEASE_V1.0.2/MSDK/plf/GD32VW55x_standard_peripheral/Source\gd32vw55x_rcu.c ****       \arg        RCU_TRNG: TRNG clock
 155:C:/Users/stapi/OneDrive/Desktop/GD32VW553/GD32VW55X_Wifi_BLE_SDK/GD32VW55x_RELEASE_V1.0.2/MSDK/plf/GD32VW55x_standard_peripheral/Source\gd32vw55x_rcu.c ****       \arg        RCU_QSPI: QSPI clock
 156:C:/Users/stapi/OneDrive/Desktop/GD32VW553/GD32VW55X_Wifi_BLE_SDK/GD32VW55x_RELEASE_V1.0.2/MSDK/plf/GD32VW55x_standard_peripheral/Source\gd32vw55x_rcu.c ****       \arg        RCU_TIMERx (x=0,1,2,5,15,16): TIMER clock
 157:C:/Users/stapi/OneDrive/Desktop/GD32VW553/GD32VW55X_Wifi_BLE_SDK/GD32VW55x_RELEASE_V1.0.2/MSDK/plf/GD32VW55x_standard_peripheral/Source\gd32vw55x_rcu.c ****       \arg        RCU_WWDGT: WWDGT clock
 158:C:/Users/stapi/OneDrive/Desktop/GD32VW553/GD32VW55X_Wifi_BLE_SDK/GD32VW55x_RELEASE_V1.0.2/MSDK/plf/GD32VW55x_standard_peripheral/Source\gd32vw55x_rcu.c ****       \arg        RCU_SPI: SPI clock
 159:C:/Users/stapi/OneDrive/Desktop/GD32VW553/GD32VW55X_Wifi_BLE_SDK/GD32VW55x_RELEASE_V1.0.2/MSDK/plf/GD32VW55x_standard_peripheral/Source\gd32vw55x_rcu.c ****       \arg        RFI: RFI clock
 160:C:/Users/stapi/OneDrive/Desktop/GD32VW553/GD32VW55X_Wifi_BLE_SDK/GD32VW55x_RELEASE_V1.0.2/MSDK/plf/GD32VW55x_standard_peripheral/Source\gd32vw55x_rcu.c ****       \arg        RCU_USART0 : USART clock
 161:C:/Users/stapi/OneDrive/Desktop/GD32VW553/GD32VW55X_Wifi_BLE_SDK/GD32VW55x_RELEASE_V1.0.2/MSDK/plf/GD32VW55x_standard_peripheral/Source\gd32vw55x_rcu.c ****       \arg        RCU_UARTx (x=1,2): UART clock
 162:C:/Users/stapi/OneDrive/Desktop/GD32VW553/GD32VW55X_Wifi_BLE_SDK/GD32VW55x_RELEASE_V1.0.2/MSDK/plf/GD32VW55x_standard_peripheral/Source\gd32vw55x_rcu.c ****       \arg        RCU_I2Cx (x=0,1): I2C clock
 163:C:/Users/stapi/OneDrive/Desktop/GD32VW553/GD32VW55X_Wifi_BLE_SDK/GD32VW55x_RELEASE_V1.0.2/MSDK/plf/GD32VW55x_standard_peripheral/Source\gd32vw55x_rcu.c ****       \arg        RCU_PMU: PMU clock
 164:C:/Users/stapi/OneDrive/Desktop/GD32VW553/GD32VW55X_Wifi_BLE_SDK/GD32VW55x_RELEASE_V1.0.2/MSDK/plf/GD32VW55x_standard_peripheral/Source\gd32vw55x_rcu.c ****       \arg        RCU_RTC: RTC clock
 165:C:/Users/stapi/OneDrive/Desktop/GD32VW553/GD32VW55X_Wifi_BLE_SDK/GD32VW55x_RELEASE_V1.0.2/MSDK/plf/GD32VW55x_standard_peripheral/Source\gd32vw55x_rcu.c ****       \arg        RCU_ADC: ADC clock
 166:C:/Users/stapi/OneDrive/Desktop/GD32VW553/GD32VW55X_Wifi_BLE_SDK/GD32VW55x_RELEASE_V1.0.2/MSDK/plf/GD32VW55x_standard_peripheral/Source\gd32vw55x_rcu.c ****       \arg        RCU_SYSCFG: SYSCFG clock
 167:C:/Users/stapi/OneDrive/Desktop/GD32VW553/GD32VW55X_Wifi_BLE_SDK/GD32VW55x_RELEASE_V1.0.2/MSDK/plf/GD32VW55x_standard_peripheral/Source\gd32vw55x_rcu.c ****       \arg        RCU_RF: RF clock
 168:C:/Users/stapi/OneDrive/Desktop/GD32VW553/GD32VW55X_Wifi_BLE_SDK/GD32VW55x_RELEASE_V1.0.2/MSDK/plf/GD32VW55x_standard_peripheral/Source\gd32vw55x_rcu.c ****     \param[out] none
 169:C:/Users/stapi/OneDrive/Desktop/GD32VW553/GD32VW55X_Wifi_BLE_SDK/GD32VW55x_RELEASE_V1.0.2/MSDK/plf/GD32VW55x_standard_peripheral/Source\gd32vw55x_rcu.c ****     \retval     none
 170:C:/Users/stapi/OneDrive/Desktop/GD32VW553/GD32VW55X_Wifi_BLE_SDK/GD32VW55x_RELEASE_V1.0.2/MSDK/plf/GD32VW55x_standard_peripheral/Source\gd32vw55x_rcu.c **** */
 171:C:/Users/stapi/OneDrive/Desktop/GD32VW553/GD32VW55X_Wifi_BLE_SDK/GD32VW55x_RELEASE_V1.0.2/MSDK/plf/GD32VW55x_standard_peripheral/Source\gd32vw55x_rcu.c **** void rcu_periph_clock_disable(rcu_periph_enum periph)
 172:C:/Users/stapi/OneDrive/Desktop/GD32VW553/GD32VW55X_Wifi_BLE_SDK/GD32VW55x_RELEASE_V1.0.2/MSDK/plf/GD32VW55x_standard_peripheral/Source\gd32vw55x_rcu.c **** {
  78              		.loc 1 172 1 is_stmt 1
  79              		.cfi_startproc
  80              	.LVL2:
 173:C:/Users/stapi/OneDrive/Desktop/GD32VW553/GD32VW55X_Wifi_BLE_SDK/GD32VW55x_RELEASE_V1.0.2/MSDK/plf/GD32VW55x_standard_peripheral/Source\gd32vw55x_rcu.c ****     RCU_REG_VAL(periph) &= ~BIT(RCU_BIT_POS(periph));
  81              		.loc 1 173 5
  82              		.loc 1 173 25 is_stmt 0
  83 0000 37470240 		li	a4,1073889280
  84 0004 93576500 		srli	a5,a0,6
  85 0008 13070780 		addi	a4,a4,-2048
  86 000c BA97     		add	a5,a5,a4
  87 000e 9843     		lw	a4,0(a5)
  88              		.loc 1 173 29
  89 0010 3315A028 		bset	a0,x0,a0
  90              	.LVL3:
  91              		.loc 1 173 25
  92 0014 3375A740 		andn	a0,a4,a0
  93 0018 88C3     		sw	a0,0(a5)
 174:C:/Users/stapi/OneDrive/Desktop/GD32VW553/GD32VW55X_Wifi_BLE_SDK/GD32VW55x_RELEASE_V1.0.2/MSDK/plf/GD32VW55x_standard_peripheral/Source\gd32vw55x_rcu.c **** }
  94              		.loc 1 174 1
  95 001a 8280     		ret
  96              		.cfi_endproc
  97              	.LFE369:
  99              		.section	.text.rcu_fmc_clock_sleep_enable,"ax",@progbits
 100              		.align	1
 101              		.globl	rcu_fmc_clock_sleep_enable
 103              	rcu_fmc_clock_sleep_enable:
 104              	.LFB370:
 175:C:/Users/stapi/OneDrive/Desktop/GD32VW553/GD32VW55X_Wifi_BLE_SDK/GD32VW55x_RELEASE_V1.0.2/MSDK/plf/GD32VW55x_standard_peripheral/Source\gd32vw55x_rcu.c **** 
 176:C:/Users/stapi/OneDrive/Desktop/GD32VW553/GD32VW55X_Wifi_BLE_SDK/GD32VW55x_RELEASE_V1.0.2/MSDK/plf/GD32VW55x_standard_peripheral/Source\gd32vw55x_rcu.c **** /*!
 177:C:/Users/stapi/OneDrive/Desktop/GD32VW553/GD32VW55X_Wifi_BLE_SDK/GD32VW55x_RELEASE_V1.0.2/MSDK/plf/GD32VW55x_standard_peripheral/Source\gd32vw55x_rcu.c ****     \brief      enabled FMC clock when sleep mode
 178:C:/Users/stapi/OneDrive/Desktop/GD32VW553/GD32VW55X_Wifi_BLE_SDK/GD32VW55x_RELEASE_V1.0.2/MSDK/plf/GD32VW55x_standard_peripheral/Source\gd32vw55x_rcu.c ****     \param[in]  none
 179:C:/Users/stapi/OneDrive/Desktop/GD32VW553/GD32VW55X_Wifi_BLE_SDK/GD32VW55x_RELEASE_V1.0.2/MSDK/plf/GD32VW55x_standard_peripheral/Source\gd32vw55x_rcu.c ****     \param[out] none
 180:C:/Users/stapi/OneDrive/Desktop/GD32VW553/GD32VW55X_Wifi_BLE_SDK/GD32VW55x_RELEASE_V1.0.2/MSDK/plf/GD32VW55x_standard_peripheral/Source\gd32vw55x_rcu.c ****     \retval     none
 181:C:/Users/stapi/OneDrive/Desktop/GD32VW553/GD32VW55X_Wifi_BLE_SDK/GD32VW55x_RELEASE_V1.0.2/MSDK/plf/GD32VW55x_standard_peripheral/Source\gd32vw55x_rcu.c **** */
 182:C:/Users/stapi/OneDrive/Desktop/GD32VW553/GD32VW55X_Wifi_BLE_SDK/GD32VW55x_RELEASE_V1.0.2/MSDK/plf/GD32VW55x_standard_peripheral/Source\gd32vw55x_rcu.c **** void rcu_fmc_clock_sleep_enable(void)
 183:C:/Users/stapi/OneDrive/Desktop/GD32VW553/GD32VW55X_Wifi_BLE_SDK/GD32VW55x_RELEASE_V1.0.2/MSDK/plf/GD32VW55x_standard_peripheral/Source\gd32vw55x_rcu.c **** {
 105              		.loc 1 183 1 is_stmt 1
 106              		.cfi_startproc
 184:C:/Users/stapi/OneDrive/Desktop/GD32VW553/GD32VW55X_Wifi_BLE_SDK/GD32VW55x_RELEASE_V1.0.2/MSDK/plf/GD32VW55x_standard_peripheral/Source\gd32vw55x_rcu.c ****     RCU_AHB1SPEN |= RCU_AHB1SPEN_FMCSPEN;
 107              		.loc 1 184 5
 108              		.loc 1 184 18 is_stmt 0
 109 0000 37470240 		li	a4,1073889280
 110 0004 83270785 		lw	a5,-1968(a4)
 111 0008 9397F728 		bseti	a5,a5,15
 112 000c 2328F784 		sw	a5,-1968(a4)
 185:C:/Users/stapi/OneDrive/Desktop/GD32VW553/GD32VW55X_Wifi_BLE_SDK/GD32VW55x_RELEASE_V1.0.2/MSDK/plf/GD32VW55x_standard_peripheral/Source\gd32vw55x_rcu.c **** }
 113              		.loc 1 185 1
 114 0010 8280     		ret
 115              		.cfi_endproc
 116              	.LFE370:
 118              		.section	.text.rcu_fmc_clock_sleep_disable,"ax",@progbits
 119              		.align	1
 120              		.globl	rcu_fmc_clock_sleep_disable
 122              	rcu_fmc_clock_sleep_disable:
 123              	.LFB371:
 186:C:/Users/stapi/OneDrive/Desktop/GD32VW553/GD32VW55X_Wifi_BLE_SDK/GD32VW55x_RELEASE_V1.0.2/MSDK/plf/GD32VW55x_standard_peripheral/Source\gd32vw55x_rcu.c **** 
 187:C:/Users/stapi/OneDrive/Desktop/GD32VW553/GD32VW55X_Wifi_BLE_SDK/GD32VW55x_RELEASE_V1.0.2/MSDK/plf/GD32VW55x_standard_peripheral/Source\gd32vw55x_rcu.c **** /*!
 188:C:/Users/stapi/OneDrive/Desktop/GD32VW553/GD32VW55X_Wifi_BLE_SDK/GD32VW55x_RELEASE_V1.0.2/MSDK/plf/GD32VW55x_standard_peripheral/Source\gd32vw55x_rcu.c ****     \brief      disabled FMC clock when sleep mode
 189:C:/Users/stapi/OneDrive/Desktop/GD32VW553/GD32VW55X_Wifi_BLE_SDK/GD32VW55x_RELEASE_V1.0.2/MSDK/plf/GD32VW55x_standard_peripheral/Source\gd32vw55x_rcu.c ****     \param[in]  none
 190:C:/Users/stapi/OneDrive/Desktop/GD32VW553/GD32VW55X_Wifi_BLE_SDK/GD32VW55x_RELEASE_V1.0.2/MSDK/plf/GD32VW55x_standard_peripheral/Source\gd32vw55x_rcu.c ****     \param[out] none
 191:C:/Users/stapi/OneDrive/Desktop/GD32VW553/GD32VW55X_Wifi_BLE_SDK/GD32VW55x_RELEASE_V1.0.2/MSDK/plf/GD32VW55x_standard_peripheral/Source\gd32vw55x_rcu.c ****     \retval     none
 192:C:/Users/stapi/OneDrive/Desktop/GD32VW553/GD32VW55X_Wifi_BLE_SDK/GD32VW55x_RELEASE_V1.0.2/MSDK/plf/GD32VW55x_standard_peripheral/Source\gd32vw55x_rcu.c **** */
 193:C:/Users/stapi/OneDrive/Desktop/GD32VW553/GD32VW55X_Wifi_BLE_SDK/GD32VW55x_RELEASE_V1.0.2/MSDK/plf/GD32VW55x_standard_peripheral/Source\gd32vw55x_rcu.c **** void rcu_fmc_clock_sleep_disable(void)
 194:C:/Users/stapi/OneDrive/Desktop/GD32VW553/GD32VW55X_Wifi_BLE_SDK/GD32VW55x_RELEASE_V1.0.2/MSDK/plf/GD32VW55x_standard_peripheral/Source\gd32vw55x_rcu.c **** {
 124              		.loc 1 194 1 is_stmt 1
 125              		.cfi_startproc
 195:C:/Users/stapi/OneDrive/Desktop/GD32VW553/GD32VW55X_Wifi_BLE_SDK/GD32VW55x_RELEASE_V1.0.2/MSDK/plf/GD32VW55x_standard_peripheral/Source\gd32vw55x_rcu.c ****     RCU_AHB1SPEN &= ~RCU_AHB1SPEN_FMCSPEN;
 126              		.loc 1 195 5
 127              		.loc 1 195 18 is_stmt 0
 128 0000 37470240 		li	a4,1073889280
 129 0004 83270785 		lw	a5,-1968(a4)
 130 0008 9397F748 		bclri	a5,a5,15
 131 000c 2328F784 		sw	a5,-1968(a4)
 196:C:/Users/stapi/OneDrive/Desktop/GD32VW553/GD32VW55X_Wifi_BLE_SDK/GD32VW55x_RELEASE_V1.0.2/MSDK/plf/GD32VW55x_standard_peripheral/Source\gd32vw55x_rcu.c **** }
 132              		.loc 1 196 1
 133 0010 8280     		ret
 134              		.cfi_endproc
 135              	.LFE371:
 137              		.section	.text.rcu_periph_reset_enable,"ax",@progbits
 138              		.align	1
 139              		.globl	rcu_periph_reset_enable
 141              	rcu_periph_reset_enable:
 142              	.LFB415:
 143              		.cfi_startproc
 144 0000 17030000 		tail	rcu_periph_clock_enable
 144      67000300 
 145              		.cfi_endproc
 146              	.LFE415:
 148              		.section	.text.rcu_periph_reset_disable,"ax",@progbits
 149              		.align	1
 150              		.globl	rcu_periph_reset_disable
 152              	rcu_periph_reset_disable:
 153              	.LFB425:
 154              		.cfi_startproc
 155 0000 17030000 		tail	rcu_periph_clock_disable
 155      67000300 
 156              		.cfi_endproc
 157              	.LFE425:
 159              		.section	.text.rcu_bkp_reset_enable,"ax",@progbits
 160              		.align	1
 161              		.globl	rcu_bkp_reset_enable
 163              	rcu_bkp_reset_enable:
 164              	.LFB374:
 197:C:/Users/stapi/OneDrive/Desktop/GD32VW553/GD32VW55X_Wifi_BLE_SDK/GD32VW55x_RELEASE_V1.0.2/MSDK/plf/GD32VW55x_standard_peripheral/Source\gd32vw55x_rcu.c **** 
 198:C:/Users/stapi/OneDrive/Desktop/GD32VW553/GD32VW55X_Wifi_BLE_SDK/GD32VW55x_RELEASE_V1.0.2/MSDK/plf/GD32VW55x_standard_peripheral/Source\gd32vw55x_rcu.c **** /*!
 199:C:/Users/stapi/OneDrive/Desktop/GD32VW553/GD32VW55X_Wifi_BLE_SDK/GD32VW55x_RELEASE_V1.0.2/MSDK/plf/GD32VW55x_standard_peripheral/Source\gd32vw55x_rcu.c ****     \brief      reset the peripherals
 200:C:/Users/stapi/OneDrive/Desktop/GD32VW553/GD32VW55X_Wifi_BLE_SDK/GD32VW55x_RELEASE_V1.0.2/MSDK/plf/GD32VW55x_standard_peripheral/Source\gd32vw55x_rcu.c ****     \param[in]  periph_reset: RCU peripherals reset, refer to rcu_periph_reset_enum
 201:C:/Users/stapi/OneDrive/Desktop/GD32VW553/GD32VW55X_Wifi_BLE_SDK/GD32VW55x_RELEASE_V1.0.2/MSDK/plf/GD32VW55x_standard_peripheral/Source\gd32vw55x_rcu.c ****                 only one parameter can be selected which is shown as below:
 202:C:/Users/stapi/OneDrive/Desktop/GD32VW553/GD32VW55X_Wifi_BLE_SDK/GD32VW55x_RELEASE_V1.0.2/MSDK/plf/GD32VW55x_standard_peripheral/Source\gd32vw55x_rcu.c ****       \arg        RCU_GPIOxRST (x=A,B,C): reset GPIO ports
 203:C:/Users/stapi/OneDrive/Desktop/GD32VW553/GD32VW55X_Wifi_BLE_SDK/GD32VW55x_RELEASE_V1.0.2/MSDK/plf/GD32VW55x_standard_peripheral/Source\gd32vw55x_rcu.c ****       \arg        RCU_CRCRST: reset CRC
 204:C:/Users/stapi/OneDrive/Desktop/GD32VW553/GD32VW55X_Wifi_BLE_SDK/GD32VW55x_RELEASE_V1.0.2/MSDK/plf/GD32VW55x_standard_peripheral/Source\gd32vw55x_rcu.c ****       \arg        RCU_WIFIRST: reset WIFI
 205:C:/Users/stapi/OneDrive/Desktop/GD32VW553/GD32VW55X_Wifi_BLE_SDK/GD32VW55x_RELEASE_V1.0.2/MSDK/plf/GD32VW55x_standard_peripheral/Source\gd32vw55x_rcu.c ****       \arg        RCU_DMARST: reset DMA
 206:C:/Users/stapi/OneDrive/Desktop/GD32VW553/GD32VW55X_Wifi_BLE_SDK/GD32VW55x_RELEASE_V1.0.2/MSDK/plf/GD32VW55x_standard_peripheral/Source\gd32vw55x_rcu.c ****       \arg        RCU_BLERST:reset Blue tooth
 207:C:/Users/stapi/OneDrive/Desktop/GD32VW553/GD32VW55X_Wifi_BLE_SDK/GD32VW55x_RELEASE_V1.0.2/MSDK/plf/GD32VW55x_standard_peripheral/Source\gd32vw55x_rcu.c ****       \arg        RCU_PKCAURST: reset PKCAU
 208:C:/Users/stapi/OneDrive/Desktop/GD32VW553/GD32VW55X_Wifi_BLE_SDK/GD32VW55x_RELEASE_V1.0.2/MSDK/plf/GD32VW55x_standard_peripheral/Source\gd32vw55x_rcu.c ****       \arg        RCU_CAURST: reset CAU
 209:C:/Users/stapi/OneDrive/Desktop/GD32VW553/GD32VW55X_Wifi_BLE_SDK/GD32VW55x_RELEASE_V1.0.2/MSDK/plf/GD32VW55x_standard_peripheral/Source\gd32vw55x_rcu.c ****       \arg        RCU_HAURST: reset HAU
 210:C:/Users/stapi/OneDrive/Desktop/GD32VW553/GD32VW55X_Wifi_BLE_SDK/GD32VW55x_RELEASE_V1.0.2/MSDK/plf/GD32VW55x_standard_peripheral/Source\gd32vw55x_rcu.c ****       \arg        RCU_TRNGRST: reset TRNG
 211:C:/Users/stapi/OneDrive/Desktop/GD32VW553/GD32VW55X_Wifi_BLE_SDK/GD32VW55x_RELEASE_V1.0.2/MSDK/plf/GD32VW55x_standard_peripheral/Source\gd32vw55x_rcu.c ****       \arg        RCU_QSPIRST: reset QSPI
 212:C:/Users/stapi/OneDrive/Desktop/GD32VW553/GD32VW55X_Wifi_BLE_SDK/GD32VW55x_RELEASE_V1.0.2/MSDK/plf/GD32VW55x_standard_peripheral/Source\gd32vw55x_rcu.c ****       \arg        RCU_TIMERxRST (x=0,1,2,5,15,16): reset TIMER
 213:C:/Users/stapi/OneDrive/Desktop/GD32VW553/GD32VW55X_Wifi_BLE_SDK/GD32VW55x_RELEASE_V1.0.2/MSDK/plf/GD32VW55x_standard_peripheral/Source\gd32vw55x_rcu.c ****       \arg        RCU_WWDGTRST: reset WWDGT
 214:C:/Users/stapi/OneDrive/Desktop/GD32VW553/GD32VW55X_Wifi_BLE_SDK/GD32VW55x_RELEASE_V1.0.2/MSDK/plf/GD32VW55x_standard_peripheral/Source\gd32vw55x_rcu.c ****       \arg        RCU_SPIRST: reset SPI
 215:C:/Users/stapi/OneDrive/Desktop/GD32VW553/GD32VW55X_Wifi_BLE_SDK/GD32VW55x_RELEASE_V1.0.2/MSDK/plf/GD32VW55x_standard_peripheral/Source\gd32vw55x_rcu.c ****       \arg        RCU_RFIRST: reset RFI
 216:C:/Users/stapi/OneDrive/Desktop/GD32VW553/GD32VW55X_Wifi_BLE_SDK/GD32VW55x_RELEASE_V1.0.2/MSDK/plf/GD32VW55x_standard_peripheral/Source\gd32vw55x_rcu.c ****       \arg        RCU_USART0RST : reset USART
 217:C:/Users/stapi/OneDrive/Desktop/GD32VW553/GD32VW55X_Wifi_BLE_SDK/GD32VW55x_RELEASE_V1.0.2/MSDK/plf/GD32VW55x_standard_peripheral/Source\gd32vw55x_rcu.c ****       \arg        RCU_UARTxRST (x=1,2): reset UART
 218:C:/Users/stapi/OneDrive/Desktop/GD32VW553/GD32VW55X_Wifi_BLE_SDK/GD32VW55x_RELEASE_V1.0.2/MSDK/plf/GD32VW55x_standard_peripheral/Source\gd32vw55x_rcu.c ****       \arg        RCU_I2CxRST (x=0,1): reset I2C
 219:C:/Users/stapi/OneDrive/Desktop/GD32VW553/GD32VW55X_Wifi_BLE_SDK/GD32VW55x_RELEASE_V1.0.2/MSDK/plf/GD32VW55x_standard_peripheral/Source\gd32vw55x_rcu.c ****       \arg        RCU_PMURST: reset PMU
 220:C:/Users/stapi/OneDrive/Desktop/GD32VW553/GD32VW55X_Wifi_BLE_SDK/GD32VW55x_RELEASE_V1.0.2/MSDK/plf/GD32VW55x_standard_peripheral/Source\gd32vw55x_rcu.c ****       \arg        RCU_ADCRST : reset ADC
 221:C:/Users/stapi/OneDrive/Desktop/GD32VW553/GD32VW55X_Wifi_BLE_SDK/GD32VW55x_RELEASE_V1.0.2/MSDK/plf/GD32VW55x_standard_peripheral/Source\gd32vw55x_rcu.c ****       \arg        RCU_SYSCFGRST: reset SYSCFG
 222:C:/Users/stapi/OneDrive/Desktop/GD32VW553/GD32VW55X_Wifi_BLE_SDK/GD32VW55x_RELEASE_V1.0.2/MSDK/plf/GD32VW55x_standard_peripheral/Source\gd32vw55x_rcu.c ****       \arg        RCU_RFRST: reset RF
 223:C:/Users/stapi/OneDrive/Desktop/GD32VW553/GD32VW55X_Wifi_BLE_SDK/GD32VW55x_RELEASE_V1.0.2/MSDK/plf/GD32VW55x_standard_peripheral/Source\gd32vw55x_rcu.c ****     \param[out] none
 224:C:/Users/stapi/OneDrive/Desktop/GD32VW553/GD32VW55X_Wifi_BLE_SDK/GD32VW55x_RELEASE_V1.0.2/MSDK/plf/GD32VW55x_standard_peripheral/Source\gd32vw55x_rcu.c ****     \retval     none
 225:C:/Users/stapi/OneDrive/Desktop/GD32VW553/GD32VW55X_Wifi_BLE_SDK/GD32VW55x_RELEASE_V1.0.2/MSDK/plf/GD32VW55x_standard_peripheral/Source\gd32vw55x_rcu.c **** */
 226:C:/Users/stapi/OneDrive/Desktop/GD32VW553/GD32VW55X_Wifi_BLE_SDK/GD32VW55x_RELEASE_V1.0.2/MSDK/plf/GD32VW55x_standard_peripheral/Source\gd32vw55x_rcu.c **** void rcu_periph_reset_enable(rcu_periph_reset_enum periph_reset)
 227:C:/Users/stapi/OneDrive/Desktop/GD32VW553/GD32VW55X_Wifi_BLE_SDK/GD32VW55x_RELEASE_V1.0.2/MSDK/plf/GD32VW55x_standard_peripheral/Source\gd32vw55x_rcu.c **** {
 228:C:/Users/stapi/OneDrive/Desktop/GD32VW553/GD32VW55X_Wifi_BLE_SDK/GD32VW55x_RELEASE_V1.0.2/MSDK/plf/GD32VW55x_standard_peripheral/Source\gd32vw55x_rcu.c ****     RCU_REG_VAL(periph_reset) |= BIT(RCU_BIT_POS(periph_reset));
 229:C:/Users/stapi/OneDrive/Desktop/GD32VW553/GD32VW55X_Wifi_BLE_SDK/GD32VW55x_RELEASE_V1.0.2/MSDK/plf/GD32VW55x_standard_peripheral/Source\gd32vw55x_rcu.c **** }
 230:C:/Users/stapi/OneDrive/Desktop/GD32VW553/GD32VW55X_Wifi_BLE_SDK/GD32VW55x_RELEASE_V1.0.2/MSDK/plf/GD32VW55x_standard_peripheral/Source\gd32vw55x_rcu.c **** 
 231:C:/Users/stapi/OneDrive/Desktop/GD32VW553/GD32VW55X_Wifi_BLE_SDK/GD32VW55x_RELEASE_V1.0.2/MSDK/plf/GD32VW55x_standard_peripheral/Source\gd32vw55x_rcu.c **** /*!
 232:C:/Users/stapi/OneDrive/Desktop/GD32VW553/GD32VW55X_Wifi_BLE_SDK/GD32VW55x_RELEASE_V1.0.2/MSDK/plf/GD32VW55x_standard_peripheral/Source\gd32vw55x_rcu.c ****     \brief      disable reset the peripheral
 233:C:/Users/stapi/OneDrive/Desktop/GD32VW553/GD32VW55X_Wifi_BLE_SDK/GD32VW55x_RELEASE_V1.0.2/MSDK/plf/GD32VW55x_standard_peripheral/Source\gd32vw55x_rcu.c ****     \param[in]  periph_reset: RCU peripherals reset, refer to rcu_periph_reset_enum
 234:C:/Users/stapi/OneDrive/Desktop/GD32VW553/GD32VW55X_Wifi_BLE_SDK/GD32VW55x_RELEASE_V1.0.2/MSDK/plf/GD32VW55x_standard_peripheral/Source\gd32vw55x_rcu.c ****                 only one parameter can be selected which is shown as below:
 235:C:/Users/stapi/OneDrive/Desktop/GD32VW553/GD32VW55X_Wifi_BLE_SDK/GD32VW55x_RELEASE_V1.0.2/MSDK/plf/GD32VW55x_standard_peripheral/Source\gd32vw55x_rcu.c ****       \arg        RCU_GPIOxRST (x=A,B,C): reset GPIO ports
 236:C:/Users/stapi/OneDrive/Desktop/GD32VW553/GD32VW55X_Wifi_BLE_SDK/GD32VW55x_RELEASE_V1.0.2/MSDK/plf/GD32VW55x_standard_peripheral/Source\gd32vw55x_rcu.c ****       \arg        RCU_CRCRST: reset CRC
 237:C:/Users/stapi/OneDrive/Desktop/GD32VW553/GD32VW55X_Wifi_BLE_SDK/GD32VW55x_RELEASE_V1.0.2/MSDK/plf/GD32VW55x_standard_peripheral/Source\gd32vw55x_rcu.c ****       \arg        RCU_WIFIRST: reset WIFI
 238:C:/Users/stapi/OneDrive/Desktop/GD32VW553/GD32VW55X_Wifi_BLE_SDK/GD32VW55x_RELEASE_V1.0.2/MSDK/plf/GD32VW55x_standard_peripheral/Source\gd32vw55x_rcu.c ****       \arg        RCU_DMARST: reset DMA
 239:C:/Users/stapi/OneDrive/Desktop/GD32VW553/GD32VW55X_Wifi_BLE_SDK/GD32VW55x_RELEASE_V1.0.2/MSDK/plf/GD32VW55x_standard_peripheral/Source\gd32vw55x_rcu.c ****       \arg        RCU_BLERST:reset Blue tooth
 240:C:/Users/stapi/OneDrive/Desktop/GD32VW553/GD32VW55X_Wifi_BLE_SDK/GD32VW55x_RELEASE_V1.0.2/MSDK/plf/GD32VW55x_standard_peripheral/Source\gd32vw55x_rcu.c ****       \arg        RCU_PKCAURST: reset PKCAU
 241:C:/Users/stapi/OneDrive/Desktop/GD32VW553/GD32VW55X_Wifi_BLE_SDK/GD32VW55x_RELEASE_V1.0.2/MSDK/plf/GD32VW55x_standard_peripheral/Source\gd32vw55x_rcu.c ****       \arg        RCU_CAURST: reset CAU
 242:C:/Users/stapi/OneDrive/Desktop/GD32VW553/GD32VW55X_Wifi_BLE_SDK/GD32VW55x_RELEASE_V1.0.2/MSDK/plf/GD32VW55x_standard_peripheral/Source\gd32vw55x_rcu.c ****       \arg        RCU_HAURST: reset HAU
 243:C:/Users/stapi/OneDrive/Desktop/GD32VW553/GD32VW55X_Wifi_BLE_SDK/GD32VW55x_RELEASE_V1.0.2/MSDK/plf/GD32VW55x_standard_peripheral/Source\gd32vw55x_rcu.c ****       \arg        RCU_TRNGRST: reset TRNG
 244:C:/Users/stapi/OneDrive/Desktop/GD32VW553/GD32VW55X_Wifi_BLE_SDK/GD32VW55x_RELEASE_V1.0.2/MSDK/plf/GD32VW55x_standard_peripheral/Source\gd32vw55x_rcu.c ****       \arg        RCU_QSPIRST: reset QSPI
 245:C:/Users/stapi/OneDrive/Desktop/GD32VW553/GD32VW55X_Wifi_BLE_SDK/GD32VW55x_RELEASE_V1.0.2/MSDK/plf/GD32VW55x_standard_peripheral/Source\gd32vw55x_rcu.c ****       \arg        RCU_TIMERxRST (x=0,1,2,5,15,16): reset TIMER
 246:C:/Users/stapi/OneDrive/Desktop/GD32VW553/GD32VW55X_Wifi_BLE_SDK/GD32VW55x_RELEASE_V1.0.2/MSDK/plf/GD32VW55x_standard_peripheral/Source\gd32vw55x_rcu.c ****       \arg        RCU_WWDGTRST: reset WWDGT
 247:C:/Users/stapi/OneDrive/Desktop/GD32VW553/GD32VW55X_Wifi_BLE_SDK/GD32VW55x_RELEASE_V1.0.2/MSDK/plf/GD32VW55x_standard_peripheral/Source\gd32vw55x_rcu.c ****       \arg        RCU_SPIRST: reset SPI
 248:C:/Users/stapi/OneDrive/Desktop/GD32VW553/GD32VW55X_Wifi_BLE_SDK/GD32VW55x_RELEASE_V1.0.2/MSDK/plf/GD32VW55x_standard_peripheral/Source\gd32vw55x_rcu.c ****       \arg        RCU_RFIRST: reset RFI
 249:C:/Users/stapi/OneDrive/Desktop/GD32VW553/GD32VW55X_Wifi_BLE_SDK/GD32VW55x_RELEASE_V1.0.2/MSDK/plf/GD32VW55x_standard_peripheral/Source\gd32vw55x_rcu.c ****       \arg        RCU_USART0RST: reset USART
 250:C:/Users/stapi/OneDrive/Desktop/GD32VW553/GD32VW55X_Wifi_BLE_SDK/GD32VW55x_RELEASE_V1.0.2/MSDK/plf/GD32VW55x_standard_peripheral/Source\gd32vw55x_rcu.c ****       \arg        RCU_UARTxRST (x=1,2): reset UART
 251:C:/Users/stapi/OneDrive/Desktop/GD32VW553/GD32VW55X_Wifi_BLE_SDK/GD32VW55x_RELEASE_V1.0.2/MSDK/plf/GD32VW55x_standard_peripheral/Source\gd32vw55x_rcu.c ****       \arg        RCU_I2CxRST (x=0,1): reset I2C
 252:C:/Users/stapi/OneDrive/Desktop/GD32VW553/GD32VW55X_Wifi_BLE_SDK/GD32VW55x_RELEASE_V1.0.2/MSDK/plf/GD32VW55x_standard_peripheral/Source\gd32vw55x_rcu.c ****       \arg        RCU_PMURST: reset PMU
 253:C:/Users/stapi/OneDrive/Desktop/GD32VW553/GD32VW55X_Wifi_BLE_SDK/GD32VW55x_RELEASE_V1.0.2/MSDK/plf/GD32VW55x_standard_peripheral/Source\gd32vw55x_rcu.c ****       \arg        RCU_ADCRST : reset ADC
 254:C:/Users/stapi/OneDrive/Desktop/GD32VW553/GD32VW55X_Wifi_BLE_SDK/GD32VW55x_RELEASE_V1.0.2/MSDK/plf/GD32VW55x_standard_peripheral/Source\gd32vw55x_rcu.c ****       \arg        RCU_SYSCFGRST: reset SYSCFG
 255:C:/Users/stapi/OneDrive/Desktop/GD32VW553/GD32VW55X_Wifi_BLE_SDK/GD32VW55x_RELEASE_V1.0.2/MSDK/plf/GD32VW55x_standard_peripheral/Source\gd32vw55x_rcu.c ****       \arg        RCU_RFRST: reset RF
 256:C:/Users/stapi/OneDrive/Desktop/GD32VW553/GD32VW55X_Wifi_BLE_SDK/GD32VW55x_RELEASE_V1.0.2/MSDK/plf/GD32VW55x_standard_peripheral/Source\gd32vw55x_rcu.c ****     \param[out] none
 257:C:/Users/stapi/OneDrive/Desktop/GD32VW553/GD32VW55X_Wifi_BLE_SDK/GD32VW55x_RELEASE_V1.0.2/MSDK/plf/GD32VW55x_standard_peripheral/Source\gd32vw55x_rcu.c ****     \retval     none
 258:C:/Users/stapi/OneDrive/Desktop/GD32VW553/GD32VW55X_Wifi_BLE_SDK/GD32VW55x_RELEASE_V1.0.2/MSDK/plf/GD32VW55x_standard_peripheral/Source\gd32vw55x_rcu.c **** */
 259:C:/Users/stapi/OneDrive/Desktop/GD32VW553/GD32VW55X_Wifi_BLE_SDK/GD32VW55x_RELEASE_V1.0.2/MSDK/plf/GD32VW55x_standard_peripheral/Source\gd32vw55x_rcu.c **** void rcu_periph_reset_disable(rcu_periph_reset_enum periph_reset)
 260:C:/Users/stapi/OneDrive/Desktop/GD32VW553/GD32VW55X_Wifi_BLE_SDK/GD32VW55x_RELEASE_V1.0.2/MSDK/plf/GD32VW55x_standard_peripheral/Source\gd32vw55x_rcu.c **** {
 261:C:/Users/stapi/OneDrive/Desktop/GD32VW553/GD32VW55X_Wifi_BLE_SDK/GD32VW55x_RELEASE_V1.0.2/MSDK/plf/GD32VW55x_standard_peripheral/Source\gd32vw55x_rcu.c ****     RCU_REG_VAL(periph_reset) &= ~BIT(RCU_BIT_POS(periph_reset));
 262:C:/Users/stapi/OneDrive/Desktop/GD32VW553/GD32VW55X_Wifi_BLE_SDK/GD32VW55x_RELEASE_V1.0.2/MSDK/plf/GD32VW55x_standard_peripheral/Source\gd32vw55x_rcu.c **** }
 263:C:/Users/stapi/OneDrive/Desktop/GD32VW553/GD32VW55X_Wifi_BLE_SDK/GD32VW55x_RELEASE_V1.0.2/MSDK/plf/GD32VW55x_standard_peripheral/Source\gd32vw55x_rcu.c **** 
 264:C:/Users/stapi/OneDrive/Desktop/GD32VW553/GD32VW55X_Wifi_BLE_SDK/GD32VW55x_RELEASE_V1.0.2/MSDK/plf/GD32VW55x_standard_peripheral/Source\gd32vw55x_rcu.c **** /*!
 265:C:/Users/stapi/OneDrive/Desktop/GD32VW553/GD32VW55X_Wifi_BLE_SDK/GD32VW55x_RELEASE_V1.0.2/MSDK/plf/GD32VW55x_standard_peripheral/Source\gd32vw55x_rcu.c ****     \brief      reset the BKP
 266:C:/Users/stapi/OneDrive/Desktop/GD32VW553/GD32VW55X_Wifi_BLE_SDK/GD32VW55x_RELEASE_V1.0.2/MSDK/plf/GD32VW55x_standard_peripheral/Source\gd32vw55x_rcu.c ****     \param[in]  none
 267:C:/Users/stapi/OneDrive/Desktop/GD32VW553/GD32VW55X_Wifi_BLE_SDK/GD32VW55x_RELEASE_V1.0.2/MSDK/plf/GD32VW55x_standard_peripheral/Source\gd32vw55x_rcu.c ****     \param[out] none
 268:C:/Users/stapi/OneDrive/Desktop/GD32VW553/GD32VW55X_Wifi_BLE_SDK/GD32VW55x_RELEASE_V1.0.2/MSDK/plf/GD32VW55x_standard_peripheral/Source\gd32vw55x_rcu.c ****     \retval     none
 269:C:/Users/stapi/OneDrive/Desktop/GD32VW553/GD32VW55X_Wifi_BLE_SDK/GD32VW55x_RELEASE_V1.0.2/MSDK/plf/GD32VW55x_standard_peripheral/Source\gd32vw55x_rcu.c **** */
 270:C:/Users/stapi/OneDrive/Desktop/GD32VW553/GD32VW55X_Wifi_BLE_SDK/GD32VW55x_RELEASE_V1.0.2/MSDK/plf/GD32VW55x_standard_peripheral/Source\gd32vw55x_rcu.c **** void rcu_bkp_reset_enable(void)
 271:C:/Users/stapi/OneDrive/Desktop/GD32VW553/GD32VW55X_Wifi_BLE_SDK/GD32VW55x_RELEASE_V1.0.2/MSDK/plf/GD32VW55x_standard_peripheral/Source\gd32vw55x_rcu.c **** {
 165              		.loc 1 271 1 is_stmt 1
 166              		.cfi_startproc
 272:C:/Users/stapi/OneDrive/Desktop/GD32VW553/GD32VW55X_Wifi_BLE_SDK/GD32VW55x_RELEASE_V1.0.2/MSDK/plf/GD32VW55x_standard_peripheral/Source\gd32vw55x_rcu.c ****     RCU_BDCTL |= RCU_BDCTL_BKPRST;
 167              		.loc 1 272 5
 168              		.loc 1 272 15 is_stmt 0
 169 0000 37470240 		li	a4,1073889280
 170 0004 83270787 		lw	a5,-1936(a4)
 171 0008 93970729 		bseti	a5,a5,16
 172 000c 2328F786 		sw	a5,-1936(a4)
 273:C:/Users/stapi/OneDrive/Desktop/GD32VW553/GD32VW55X_Wifi_BLE_SDK/GD32VW55x_RELEASE_V1.0.2/MSDK/plf/GD32VW55x_standard_peripheral/Source\gd32vw55x_rcu.c **** }
 173              		.loc 1 273 1
 174 0010 8280     		ret
 175              		.cfi_endproc
 176              	.LFE374:
 178              		.section	.text.rcu_bkp_reset_disable,"ax",@progbits
 179              		.align	1
 180              		.globl	rcu_bkp_reset_disable
 182              	rcu_bkp_reset_disable:
 183              	.LFB375:
 274:C:/Users/stapi/OneDrive/Desktop/GD32VW553/GD32VW55X_Wifi_BLE_SDK/GD32VW55x_RELEASE_V1.0.2/MSDK/plf/GD32VW55x_standard_peripheral/Source\gd32vw55x_rcu.c **** 
 275:C:/Users/stapi/OneDrive/Desktop/GD32VW553/GD32VW55X_Wifi_BLE_SDK/GD32VW55x_RELEASE_V1.0.2/MSDK/plf/GD32VW55x_standard_peripheral/Source\gd32vw55x_rcu.c **** /*!
 276:C:/Users/stapi/OneDrive/Desktop/GD32VW553/GD32VW55X_Wifi_BLE_SDK/GD32VW55x_RELEASE_V1.0.2/MSDK/plf/GD32VW55x_standard_peripheral/Source\gd32vw55x_rcu.c ****     \brief      disable the BKP reset
 277:C:/Users/stapi/OneDrive/Desktop/GD32VW553/GD32VW55X_Wifi_BLE_SDK/GD32VW55x_RELEASE_V1.0.2/MSDK/plf/GD32VW55x_standard_peripheral/Source\gd32vw55x_rcu.c ****     \param[in]  none
 278:C:/Users/stapi/OneDrive/Desktop/GD32VW553/GD32VW55X_Wifi_BLE_SDK/GD32VW55x_RELEASE_V1.0.2/MSDK/plf/GD32VW55x_standard_peripheral/Source\gd32vw55x_rcu.c ****     \param[out] none
 279:C:/Users/stapi/OneDrive/Desktop/GD32VW553/GD32VW55X_Wifi_BLE_SDK/GD32VW55x_RELEASE_V1.0.2/MSDK/plf/GD32VW55x_standard_peripheral/Source\gd32vw55x_rcu.c ****     \retval     none
 280:C:/Users/stapi/OneDrive/Desktop/GD32VW553/GD32VW55X_Wifi_BLE_SDK/GD32VW55x_RELEASE_V1.0.2/MSDK/plf/GD32VW55x_standard_peripheral/Source\gd32vw55x_rcu.c **** */
 281:C:/Users/stapi/OneDrive/Desktop/GD32VW553/GD32VW55X_Wifi_BLE_SDK/GD32VW55x_RELEASE_V1.0.2/MSDK/plf/GD32VW55x_standard_peripheral/Source\gd32vw55x_rcu.c **** void rcu_bkp_reset_disable(void)
 282:C:/Users/stapi/OneDrive/Desktop/GD32VW553/GD32VW55X_Wifi_BLE_SDK/GD32VW55x_RELEASE_V1.0.2/MSDK/plf/GD32VW55x_standard_peripheral/Source\gd32vw55x_rcu.c **** {
 184              		.loc 1 282 1 is_stmt 1
 185              		.cfi_startproc
 283:C:/Users/stapi/OneDrive/Desktop/GD32VW553/GD32VW55X_Wifi_BLE_SDK/GD32VW55x_RELEASE_V1.0.2/MSDK/plf/GD32VW55x_standard_peripheral/Source\gd32vw55x_rcu.c ****     RCU_BDCTL &= ~RCU_BDCTL_BKPRST;
 186              		.loc 1 283 5
 187              		.loc 1 283 15 is_stmt 0
 188 0000 37470240 		li	a4,1073889280
 189 0004 83270787 		lw	a5,-1936(a4)
 190 0008 93970749 		bclri	a5,a5,16
 191 000c 2328F786 		sw	a5,-1936(a4)
 284:C:/Users/stapi/OneDrive/Desktop/GD32VW553/GD32VW55X_Wifi_BLE_SDK/GD32VW55x_RELEASE_V1.0.2/MSDK/plf/GD32VW55x_standard_peripheral/Source\gd32vw55x_rcu.c **** }
 192              		.loc 1 284 1
 193 0010 8280     		ret
 194              		.cfi_endproc
 195              	.LFE375:
 197              		.section	.text.rcu_rfpll_cal_enable,"ax",@progbits
 198              		.align	1
 199              		.globl	rcu_rfpll_cal_enable
 201              	rcu_rfpll_cal_enable:
 202              	.LFB376:
 285:C:/Users/stapi/OneDrive/Desktop/GD32VW553/GD32VW55X_Wifi_BLE_SDK/GD32VW55x_RELEASE_V1.0.2/MSDK/plf/GD32VW55x_standard_peripheral/Source\gd32vw55x_rcu.c **** 
 286:C:/Users/stapi/OneDrive/Desktop/GD32VW553/GD32VW55X_Wifi_BLE_SDK/GD32VW55x_RELEASE_V1.0.2/MSDK/plf/GD32VW55x_standard_peripheral/Source\gd32vw55x_rcu.c **** /*!
 287:C:/Users/stapi/OneDrive/Desktop/GD32VW553/GD32VW55X_Wifi_BLE_SDK/GD32VW55x_RELEASE_V1.0.2/MSDK/plf/GD32VW55x_standard_peripheral/Source\gd32vw55x_rcu.c ****     \brief      enable the RF PLL calculation
 288:C:/Users/stapi/OneDrive/Desktop/GD32VW553/GD32VW55X_Wifi_BLE_SDK/GD32VW55x_RELEASE_V1.0.2/MSDK/plf/GD32VW55x_standard_peripheral/Source\gd32vw55x_rcu.c ****     \param[in]  none
 289:C:/Users/stapi/OneDrive/Desktop/GD32VW553/GD32VW55X_Wifi_BLE_SDK/GD32VW55x_RELEASE_V1.0.2/MSDK/plf/GD32VW55x_standard_peripheral/Source\gd32vw55x_rcu.c ****     \param[out] none
 290:C:/Users/stapi/OneDrive/Desktop/GD32VW553/GD32VW55X_Wifi_BLE_SDK/GD32VW55x_RELEASE_V1.0.2/MSDK/plf/GD32VW55x_standard_peripheral/Source\gd32vw55x_rcu.c ****     \retval     none
 291:C:/Users/stapi/OneDrive/Desktop/GD32VW553/GD32VW55X_Wifi_BLE_SDK/GD32VW55x_RELEASE_V1.0.2/MSDK/plf/GD32VW55x_standard_peripheral/Source\gd32vw55x_rcu.c **** */
 292:C:/Users/stapi/OneDrive/Desktop/GD32VW553/GD32VW55X_Wifi_BLE_SDK/GD32VW55x_RELEASE_V1.0.2/MSDK/plf/GD32VW55x_standard_peripheral/Source\gd32vw55x_rcu.c **** void rcu_rfpll_cal_enable(void)
 293:C:/Users/stapi/OneDrive/Desktop/GD32VW553/GD32VW55X_Wifi_BLE_SDK/GD32VW55x_RELEASE_V1.0.2/MSDK/plf/GD32VW55x_standard_peripheral/Source\gd32vw55x_rcu.c **** {
 203              		.loc 1 293 1 is_stmt 1
 204              		.cfi_startproc
 294:C:/Users/stapi/OneDrive/Desktop/GD32VW553/GD32VW55X_Wifi_BLE_SDK/GD32VW55x_RELEASE_V1.0.2/MSDK/plf/GD32VW55x_standard_peripheral/Source\gd32vw55x_rcu.c ****     RCU_CFG1 |= RCU_CFG1_RFPLLCALEN;
 205              		.loc 1 294 5
 206              		.loc 1 294 14 is_stmt 0
 207 0000 37470240 		li	a4,1073889280
 208 0004 8327C788 		lw	a5,-1908(a4)
 209 0008 9397E728 		bseti	a5,a5,14
 210 000c 2326F788 		sw	a5,-1908(a4)
 295:C:/Users/stapi/OneDrive/Desktop/GD32VW553/GD32VW55X_Wifi_BLE_SDK/GD32VW55x_RELEASE_V1.0.2/MSDK/plf/GD32VW55x_standard_peripheral/Source\gd32vw55x_rcu.c **** }
 211              		.loc 1 295 1
 212 0010 8280     		ret
 213              		.cfi_endproc
 214              	.LFE376:
 216              		.section	.text.rcu_rfpll_cal_disable,"ax",@progbits
 217              		.align	1
 218              		.globl	rcu_rfpll_cal_disable
 220              	rcu_rfpll_cal_disable:
 221              	.LFB377:
 296:C:/Users/stapi/OneDrive/Desktop/GD32VW553/GD32VW55X_Wifi_BLE_SDK/GD32VW55x_RELEASE_V1.0.2/MSDK/plf/GD32VW55x_standard_peripheral/Source\gd32vw55x_rcu.c **** 
 297:C:/Users/stapi/OneDrive/Desktop/GD32VW553/GD32VW55X_Wifi_BLE_SDK/GD32VW55x_RELEASE_V1.0.2/MSDK/plf/GD32VW55x_standard_peripheral/Source\gd32vw55x_rcu.c **** /*!
 298:C:/Users/stapi/OneDrive/Desktop/GD32VW553/GD32VW55X_Wifi_BLE_SDK/GD32VW55x_RELEASE_V1.0.2/MSDK/plf/GD32VW55x_standard_peripheral/Source\gd32vw55x_rcu.c ****     \brief      disable the RF PLL calculation
 299:C:/Users/stapi/OneDrive/Desktop/GD32VW553/GD32VW55X_Wifi_BLE_SDK/GD32VW55x_RELEASE_V1.0.2/MSDK/plf/GD32VW55x_standard_peripheral/Source\gd32vw55x_rcu.c ****     \param[in]  none
 300:C:/Users/stapi/OneDrive/Desktop/GD32VW553/GD32VW55X_Wifi_BLE_SDK/GD32VW55x_RELEASE_V1.0.2/MSDK/plf/GD32VW55x_standard_peripheral/Source\gd32vw55x_rcu.c ****     \param[out] none
 301:C:/Users/stapi/OneDrive/Desktop/GD32VW553/GD32VW55X_Wifi_BLE_SDK/GD32VW55x_RELEASE_V1.0.2/MSDK/plf/GD32VW55x_standard_peripheral/Source\gd32vw55x_rcu.c ****     \retval     none
 302:C:/Users/stapi/OneDrive/Desktop/GD32VW553/GD32VW55X_Wifi_BLE_SDK/GD32VW55x_RELEASE_V1.0.2/MSDK/plf/GD32VW55x_standard_peripheral/Source\gd32vw55x_rcu.c **** */
 303:C:/Users/stapi/OneDrive/Desktop/GD32VW553/GD32VW55X_Wifi_BLE_SDK/GD32VW55x_RELEASE_V1.0.2/MSDK/plf/GD32VW55x_standard_peripheral/Source\gd32vw55x_rcu.c **** void rcu_rfpll_cal_disable(void)
 304:C:/Users/stapi/OneDrive/Desktop/GD32VW553/GD32VW55X_Wifi_BLE_SDK/GD32VW55x_RELEASE_V1.0.2/MSDK/plf/GD32VW55x_standard_peripheral/Source\gd32vw55x_rcu.c **** {
 222              		.loc 1 304 1 is_stmt 1
 223              		.cfi_startproc
 305:C:/Users/stapi/OneDrive/Desktop/GD32VW553/GD32VW55X_Wifi_BLE_SDK/GD32VW55x_RELEASE_V1.0.2/MSDK/plf/GD32VW55x_standard_peripheral/Source\gd32vw55x_rcu.c ****     RCU_CFG1 &= ~RCU_CFG1_RFPLLCALEN;
 224              		.loc 1 305 5
 225              		.loc 1 305 14 is_stmt 0
 226 0000 37470240 		li	a4,1073889280
 227 0004 8327C788 		lw	a5,-1908(a4)
 228 0008 9397E748 		bclri	a5,a5,14
 229 000c 2326F788 		sw	a5,-1908(a4)
 306:C:/Users/stapi/OneDrive/Desktop/GD32VW553/GD32VW55X_Wifi_BLE_SDK/GD32VW55x_RELEASE_V1.0.2/MSDK/plf/GD32VW55x_standard_peripheral/Source\gd32vw55x_rcu.c **** }
 230              		.loc 1 306 1
 231 0010 8280     		ret
 232              		.cfi_endproc
 233              	.LFE377:
 235              		.section	.text.rcu_control_unit_powerup,"ax",@progbits
 236              		.align	1
 237              		.globl	rcu_control_unit_powerup
 239              	rcu_control_unit_powerup:
 240              	.LFB417:
 241              		.cfi_startproc
 242 0000 17030000 		tail	rcu_periph_clock_enable
 242      67000300 
 243              		.cfi_endproc
 244              	.LFE417:
 246              		.section	.text.rcu_control_unit_powerdown,"ax",@progbits
 247              		.align	1
 248              		.globl	rcu_control_unit_powerdown
 250              	rcu_control_unit_powerdown:
 251              	.LFB427:
 252              		.cfi_startproc
 253 0000 17030000 		tail	rcu_periph_clock_disable
 253      67000300 
 254              		.cfi_endproc
 255              	.LFE427:
 257              		.section	.text.rcu_system_clock_source_config,"ax",@progbits
 258              		.align	1
 259              		.globl	rcu_system_clock_source_config
 261              	rcu_system_clock_source_config:
 262              	.LFB380:
 307:C:/Users/stapi/OneDrive/Desktop/GD32VW553/GD32VW55X_Wifi_BLE_SDK/GD32VW55x_RELEASE_V1.0.2/MSDK/plf/GD32VW55x_standard_peripheral/Source\gd32vw55x_rcu.c **** 
 308:C:/Users/stapi/OneDrive/Desktop/GD32VW553/GD32VW55X_Wifi_BLE_SDK/GD32VW55x_RELEASE_V1.0.2/MSDK/plf/GD32VW55x_standard_peripheral/Source\gd32vw55x_rcu.c **** /*!
 309:C:/Users/stapi/OneDrive/Desktop/GD32VW553/GD32VW55X_Wifi_BLE_SDK/GD32VW55x_RELEASE_V1.0.2/MSDK/plf/GD32VW55x_standard_peripheral/Source\gd32vw55x_rcu.c ****     \brief      power up rcu control unit
 310:C:/Users/stapi/OneDrive/Desktop/GD32VW553/GD32VW55X_Wifi_BLE_SDK/GD32VW55x_RELEASE_V1.0.2/MSDK/plf/GD32VW55x_standard_peripheral/Source\gd32vw55x_rcu.c ****     \param[in]  rcu_unit: rcu power up control unit select
 311:C:/Users/stapi/OneDrive/Desktop/GD32VW553/GD32VW55X_Wifi_BLE_SDK/GD32VW55x_RELEASE_V1.0.2/MSDK/plf/GD32VW55x_standard_peripheral/Source\gd32vw55x_rcu.c ****                 only one parameter can be selected which is shown as below:
 312:C:/Users/stapi/OneDrive/Desktop/GD32VW553/GD32VW55X_Wifi_BLE_SDK/GD32VW55x_RELEASE_V1.0.2/MSDK/plf/GD32VW55x_standard_peripheral/Source\gd32vw55x_rcu.c ****       \arg        RCU_UNIT_HXTAL: HXTAL
 313:C:/Users/stapi/OneDrive/Desktop/GD32VW553/GD32VW55X_Wifi_BLE_SDK/GD32VW55x_RELEASE_V1.0.2/MSDK/plf/GD32VW55x_standard_peripheral/Source\gd32vw55x_rcu.c ****       \arg        RCU_UNIT_PLLDIG: PLLDIG
 314:C:/Users/stapi/OneDrive/Desktop/GD32VW553/GD32VW55X_Wifi_BLE_SDK/GD32VW55x_RELEASE_V1.0.2/MSDK/plf/GD32VW55x_standard_peripheral/Source\gd32vw55x_rcu.c ****       \arg        RCU_UNIT_RFPLL: RFPLL
 315:C:/Users/stapi/OneDrive/Desktop/GD32VW553/GD32VW55X_Wifi_BLE_SDK/GD32VW55x_RELEASE_V1.0.2/MSDK/plf/GD32VW55x_standard_peripheral/Source\gd32vw55x_rcu.c ****       \arg        RCU_UNIT_LDOANA: LDOANA
 316:C:/Users/stapi/OneDrive/Desktop/GD32VW553/GD32VW55X_Wifi_BLE_SDK/GD32VW55x_RELEASE_V1.0.2/MSDK/plf/GD32VW55x_standard_peripheral/Source\gd32vw55x_rcu.c ****       \arg        RCU_UNIT_LDOCLK: LDOCLK
 317:C:/Users/stapi/OneDrive/Desktop/GD32VW553/GD32VW55X_Wifi_BLE_SDK/GD32VW55x_RELEASE_V1.0.2/MSDK/plf/GD32VW55x_standard_peripheral/Source\gd32vw55x_rcu.c ****       \arg        RCU_UNIT_BANDGAP: BANDGAP
 318:C:/Users/stapi/OneDrive/Desktop/GD32VW553/GD32VW55X_Wifi_BLE_SDK/GD32VW55x_RELEASE_V1.0.2/MSDK/plf/GD32VW55x_standard_peripheral/Source\gd32vw55x_rcu.c ****     \param[out] none
 319:C:/Users/stapi/OneDrive/Desktop/GD32VW553/GD32VW55X_Wifi_BLE_SDK/GD32VW55x_RELEASE_V1.0.2/MSDK/plf/GD32VW55x_standard_peripheral/Source\gd32vw55x_rcu.c ****     \retval     none
 320:C:/Users/stapi/OneDrive/Desktop/GD32VW553/GD32VW55X_Wifi_BLE_SDK/GD32VW55x_RELEASE_V1.0.2/MSDK/plf/GD32VW55x_standard_peripheral/Source\gd32vw55x_rcu.c **** */
 321:C:/Users/stapi/OneDrive/Desktop/GD32VW553/GD32VW55X_Wifi_BLE_SDK/GD32VW55x_RELEASE_V1.0.2/MSDK/plf/GD32VW55x_standard_peripheral/Source\gd32vw55x_rcu.c **** void rcu_control_unit_powerup(rcu_unit_enum rcu_unit)
 322:C:/Users/stapi/OneDrive/Desktop/GD32VW553/GD32VW55X_Wifi_BLE_SDK/GD32VW55x_RELEASE_V1.0.2/MSDK/plf/GD32VW55x_standard_peripheral/Source\gd32vw55x_rcu.c **** {
 323:C:/Users/stapi/OneDrive/Desktop/GD32VW553/GD32VW55X_Wifi_BLE_SDK/GD32VW55x_RELEASE_V1.0.2/MSDK/plf/GD32VW55x_standard_peripheral/Source\gd32vw55x_rcu.c ****     RCU_REG_VAL(rcu_unit) |= BIT(RCU_BIT_POS(rcu_unit));
 324:C:/Users/stapi/OneDrive/Desktop/GD32VW553/GD32VW55X_Wifi_BLE_SDK/GD32VW55x_RELEASE_V1.0.2/MSDK/plf/GD32VW55x_standard_peripheral/Source\gd32vw55x_rcu.c **** }
 325:C:/Users/stapi/OneDrive/Desktop/GD32VW553/GD32VW55X_Wifi_BLE_SDK/GD32VW55x_RELEASE_V1.0.2/MSDK/plf/GD32VW55x_standard_peripheral/Source\gd32vw55x_rcu.c **** 
 326:C:/Users/stapi/OneDrive/Desktop/GD32VW553/GD32VW55X_Wifi_BLE_SDK/GD32VW55x_RELEASE_V1.0.2/MSDK/plf/GD32VW55x_standard_peripheral/Source\gd32vw55x_rcu.c **** /*!
 327:C:/Users/stapi/OneDrive/Desktop/GD32VW553/GD32VW55X_Wifi_BLE_SDK/GD32VW55x_RELEASE_V1.0.2/MSDK/plf/GD32VW55x_standard_peripheral/Source\gd32vw55x_rcu.c ****     \brief      power down rcu control unit
 328:C:/Users/stapi/OneDrive/Desktop/GD32VW553/GD32VW55X_Wifi_BLE_SDK/GD32VW55x_RELEASE_V1.0.2/MSDK/plf/GD32VW55x_standard_peripheral/Source\gd32vw55x_rcu.c ****     \param[in]  rcu_unit: rcu power down control unit select
 329:C:/Users/stapi/OneDrive/Desktop/GD32VW553/GD32VW55X_Wifi_BLE_SDK/GD32VW55x_RELEASE_V1.0.2/MSDK/plf/GD32VW55x_standard_peripheral/Source\gd32vw55x_rcu.c ****                 only one parameter can be selected which is shown as below:
 330:C:/Users/stapi/OneDrive/Desktop/GD32VW553/GD32VW55X_Wifi_BLE_SDK/GD32VW55x_RELEASE_V1.0.2/MSDK/plf/GD32VW55x_standard_peripheral/Source\gd32vw55x_rcu.c ****       \arg        RCU_UNIT_HXTAL: HXTAL
 331:C:/Users/stapi/OneDrive/Desktop/GD32VW553/GD32VW55X_Wifi_BLE_SDK/GD32VW55x_RELEASE_V1.0.2/MSDK/plf/GD32VW55x_standard_peripheral/Source\gd32vw55x_rcu.c ****       \arg        RCU_UNIT_PLLDIG: PLLDIG
 332:C:/Users/stapi/OneDrive/Desktop/GD32VW553/GD32VW55X_Wifi_BLE_SDK/GD32VW55x_RELEASE_V1.0.2/MSDK/plf/GD32VW55x_standard_peripheral/Source\gd32vw55x_rcu.c ****       \arg        RCU_UNIT_RFPLL: RFPLL
 333:C:/Users/stapi/OneDrive/Desktop/GD32VW553/GD32VW55X_Wifi_BLE_SDK/GD32VW55x_RELEASE_V1.0.2/MSDK/plf/GD32VW55x_standard_peripheral/Source\gd32vw55x_rcu.c ****       \arg        RCU_UNIT_LDOANA: LDOANA
 334:C:/Users/stapi/OneDrive/Desktop/GD32VW553/GD32VW55X_Wifi_BLE_SDK/GD32VW55x_RELEASE_V1.0.2/MSDK/plf/GD32VW55x_standard_peripheral/Source\gd32vw55x_rcu.c ****       \arg        RCU_UNIT_LDOCLK: LDOCLK
 335:C:/Users/stapi/OneDrive/Desktop/GD32VW553/GD32VW55X_Wifi_BLE_SDK/GD32VW55x_RELEASE_V1.0.2/MSDK/plf/GD32VW55x_standard_peripheral/Source\gd32vw55x_rcu.c ****       \arg        RCU_UNIT_BANDGAP: BANDGAP
 336:C:/Users/stapi/OneDrive/Desktop/GD32VW553/GD32VW55X_Wifi_BLE_SDK/GD32VW55x_RELEASE_V1.0.2/MSDK/plf/GD32VW55x_standard_peripheral/Source\gd32vw55x_rcu.c ****     \param[out] none
 337:C:/Users/stapi/OneDrive/Desktop/GD32VW553/GD32VW55X_Wifi_BLE_SDK/GD32VW55x_RELEASE_V1.0.2/MSDK/plf/GD32VW55x_standard_peripheral/Source\gd32vw55x_rcu.c ****     \retval     none
 338:C:/Users/stapi/OneDrive/Desktop/GD32VW553/GD32VW55X_Wifi_BLE_SDK/GD32VW55x_RELEASE_V1.0.2/MSDK/plf/GD32VW55x_standard_peripheral/Source\gd32vw55x_rcu.c **** */
 339:C:/Users/stapi/OneDrive/Desktop/GD32VW553/GD32VW55X_Wifi_BLE_SDK/GD32VW55x_RELEASE_V1.0.2/MSDK/plf/GD32VW55x_standard_peripheral/Source\gd32vw55x_rcu.c **** void rcu_control_unit_powerdown(rcu_unit_enum rcu_unit)
 340:C:/Users/stapi/OneDrive/Desktop/GD32VW553/GD32VW55X_Wifi_BLE_SDK/GD32VW55x_RELEASE_V1.0.2/MSDK/plf/GD32VW55x_standard_peripheral/Source\gd32vw55x_rcu.c **** {
 341:C:/Users/stapi/OneDrive/Desktop/GD32VW553/GD32VW55X_Wifi_BLE_SDK/GD32VW55x_RELEASE_V1.0.2/MSDK/plf/GD32VW55x_standard_peripheral/Source\gd32vw55x_rcu.c ****     RCU_REG_VAL(rcu_unit) &= ~BIT(RCU_BIT_POS(rcu_unit));
 342:C:/Users/stapi/OneDrive/Desktop/GD32VW553/GD32VW55X_Wifi_BLE_SDK/GD32VW55x_RELEASE_V1.0.2/MSDK/plf/GD32VW55x_standard_peripheral/Source\gd32vw55x_rcu.c **** }
 343:C:/Users/stapi/OneDrive/Desktop/GD32VW553/GD32VW55X_Wifi_BLE_SDK/GD32VW55x_RELEASE_V1.0.2/MSDK/plf/GD32VW55x_standard_peripheral/Source\gd32vw55x_rcu.c **** 
 344:C:/Users/stapi/OneDrive/Desktop/GD32VW553/GD32VW55X_Wifi_BLE_SDK/GD32VW55x_RELEASE_V1.0.2/MSDK/plf/GD32VW55x_standard_peripheral/Source\gd32vw55x_rcu.c **** /*!
 345:C:/Users/stapi/OneDrive/Desktop/GD32VW553/GD32VW55X_Wifi_BLE_SDK/GD32VW55x_RELEASE_V1.0.2/MSDK/plf/GD32VW55x_standard_peripheral/Source\gd32vw55x_rcu.c ****     \brief      configure the system clock source
 346:C:/Users/stapi/OneDrive/Desktop/GD32VW553/GD32VW55X_Wifi_BLE_SDK/GD32VW55x_RELEASE_V1.0.2/MSDK/plf/GD32VW55x_standard_peripheral/Source\gd32vw55x_rcu.c ****     \param[in]  ck_sys: system clock source select
 347:C:/Users/stapi/OneDrive/Desktop/GD32VW553/GD32VW55X_Wifi_BLE_SDK/GD32VW55x_RELEASE_V1.0.2/MSDK/plf/GD32VW55x_standard_peripheral/Source\gd32vw55x_rcu.c ****                 only one parameter can be selected which is shown as below:
 348:C:/Users/stapi/OneDrive/Desktop/GD32VW553/GD32VW55X_Wifi_BLE_SDK/GD32VW55x_RELEASE_V1.0.2/MSDK/plf/GD32VW55x_standard_peripheral/Source\gd32vw55x_rcu.c ****       \arg        RCU_CKSYSSRC_IRC16M: select CK_IRC16M as the CK_SYS source
 349:C:/Users/stapi/OneDrive/Desktop/GD32VW553/GD32VW55X_Wifi_BLE_SDK/GD32VW55x_RELEASE_V1.0.2/MSDK/plf/GD32VW55x_standard_peripheral/Source\gd32vw55x_rcu.c ****       \arg        RCU_CKSYSSRC_HXTAL: select CK_HXTAL as the CK_SYS source
 350:C:/Users/stapi/OneDrive/Desktop/GD32VW553/GD32VW55X_Wifi_BLE_SDK/GD32VW55x_RELEASE_V1.0.2/MSDK/plf/GD32VW55x_standard_peripheral/Source\gd32vw55x_rcu.c ****       \arg        RCU_CKSYSSRC_PLLDIG: select CK_PLLDIG as the CK_SYS source
 351:C:/Users/stapi/OneDrive/Desktop/GD32VW553/GD32VW55X_Wifi_BLE_SDK/GD32VW55x_RELEASE_V1.0.2/MSDK/plf/GD32VW55x_standard_peripheral/Source\gd32vw55x_rcu.c ****     \param[out] none
 352:C:/Users/stapi/OneDrive/Desktop/GD32VW553/GD32VW55X_Wifi_BLE_SDK/GD32VW55x_RELEASE_V1.0.2/MSDK/plf/GD32VW55x_standard_peripheral/Source\gd32vw55x_rcu.c ****     \retval     none
 353:C:/Users/stapi/OneDrive/Desktop/GD32VW553/GD32VW55X_Wifi_BLE_SDK/GD32VW55x_RELEASE_V1.0.2/MSDK/plf/GD32VW55x_standard_peripheral/Source\gd32vw55x_rcu.c **** */
 354:C:/Users/stapi/OneDrive/Desktop/GD32VW553/GD32VW55X_Wifi_BLE_SDK/GD32VW55x_RELEASE_V1.0.2/MSDK/plf/GD32VW55x_standard_peripheral/Source\gd32vw55x_rcu.c **** void rcu_system_clock_source_config(uint32_t ck_sys)
 355:C:/Users/stapi/OneDrive/Desktop/GD32VW553/GD32VW55X_Wifi_BLE_SDK/GD32VW55x_RELEASE_V1.0.2/MSDK/plf/GD32VW55x_standard_peripheral/Source\gd32vw55x_rcu.c **** {
 263              		.loc 1 355 1 is_stmt 1
 264              		.cfi_startproc
 265              	.LVL4:
 356:C:/Users/stapi/OneDrive/Desktop/GD32VW553/GD32VW55X_Wifi_BLE_SDK/GD32VW55x_RELEASE_V1.0.2/MSDK/plf/GD32VW55x_standard_peripheral/Source\gd32vw55x_rcu.c ****     uint32_t reg;
 266              		.loc 1 356 5
 357:C:/Users/stapi/OneDrive/Desktop/GD32VW553/GD32VW55X_Wifi_BLE_SDK/GD32VW55x_RELEASE_V1.0.2/MSDK/plf/GD32VW55x_standard_peripheral/Source\gd32vw55x_rcu.c **** 
 358:C:/Users/stapi/OneDrive/Desktop/GD32VW553/GD32VW55X_Wifi_BLE_SDK/GD32VW55x_RELEASE_V1.0.2/MSDK/plf/GD32VW55x_standard_peripheral/Source\gd32vw55x_rcu.c ****     reg = RCU_CFG0;
 267              		.loc 1 358 5
 268              		.loc 1 358 9 is_stmt 0
 269 0000 37470240 		li	a4,1073889280
 270 0004 83278780 		lw	a5,-2040(a4)
 271              	.LVL5:
 359:C:/Users/stapi/OneDrive/Desktop/GD32VW553/GD32VW55X_Wifi_BLE_SDK/GD32VW55x_RELEASE_V1.0.2/MSDK/plf/GD32VW55x_standard_peripheral/Source\gd32vw55x_rcu.c ****     /* reset the SCS bits and set according to ck_sys */
 360:C:/Users/stapi/OneDrive/Desktop/GD32VW553/GD32VW55X_Wifi_BLE_SDK/GD32VW55x_RELEASE_V1.0.2/MSDK/plf/GD32VW55x_standard_peripheral/Source\gd32vw55x_rcu.c ****     reg &= ~RCU_CFG0_SCS;
 272              		.loc 1 360 5 is_stmt 1
 361:C:/Users/stapi/OneDrive/Desktop/GD32VW553/GD32VW55X_Wifi_BLE_SDK/GD32VW55x_RELEASE_V1.0.2/MSDK/plf/GD32VW55x_standard_peripheral/Source\gd32vw55x_rcu.c ****     RCU_CFG0 = (reg | ck_sys);
 273              		.loc 1 361 5
 360:C:/Users/stapi/OneDrive/Desktop/GD32VW553/GD32VW55X_Wifi_BLE_SDK/GD32VW55x_RELEASE_V1.0.2/MSDK/plf/GD32VW55x_standard_peripheral/Source\gd32vw55x_rcu.c ****     RCU_CFG0 = (reg | ck_sys);
 274              		.loc 1 360 9 is_stmt 0
 275 0008 F19B     		andi	a5,a5,-4
 276              	.LVL6:
 277              		.loc 1 361 21
 278 000a C98F     		or	a5,a5,a0
 279              	.LVL7:
 280              		.loc 1 361 14
 281 000c 2324F780 		sw	a5,-2040(a4)
 362:C:/Users/stapi/OneDrive/Desktop/GD32VW553/GD32VW55X_Wifi_BLE_SDK/GD32VW55x_RELEASE_V1.0.2/MSDK/plf/GD32VW55x_standard_peripheral/Source\gd32vw55x_rcu.c **** }
 282              		.loc 1 362 1
 283 0010 8280     		ret
 284              		.cfi_endproc
 285              	.LFE380:
 287              		.section	.text.rcu_system_clock_source_get,"ax",@progbits
 288              		.align	1
 289              		.globl	rcu_system_clock_source_get
 291              	rcu_system_clock_source_get:
 292              	.LFB381:
 363:C:/Users/stapi/OneDrive/Desktop/GD32VW553/GD32VW55X_Wifi_BLE_SDK/GD32VW55x_RELEASE_V1.0.2/MSDK/plf/GD32VW55x_standard_peripheral/Source\gd32vw55x_rcu.c **** 
 364:C:/Users/stapi/OneDrive/Desktop/GD32VW553/GD32VW55X_Wifi_BLE_SDK/GD32VW55x_RELEASE_V1.0.2/MSDK/plf/GD32VW55x_standard_peripheral/Source\gd32vw55x_rcu.c **** /*!
 365:C:/Users/stapi/OneDrive/Desktop/GD32VW553/GD32VW55X_Wifi_BLE_SDK/GD32VW55x_RELEASE_V1.0.2/MSDK/plf/GD32VW55x_standard_peripheral/Source\gd32vw55x_rcu.c ****     \brief      get the system clock source
 366:C:/Users/stapi/OneDrive/Desktop/GD32VW553/GD32VW55X_Wifi_BLE_SDK/GD32VW55x_RELEASE_V1.0.2/MSDK/plf/GD32VW55x_standard_peripheral/Source\gd32vw55x_rcu.c ****     \param[in]  none
 367:C:/Users/stapi/OneDrive/Desktop/GD32VW553/GD32VW55X_Wifi_BLE_SDK/GD32VW55x_RELEASE_V1.0.2/MSDK/plf/GD32VW55x_standard_peripheral/Source\gd32vw55x_rcu.c ****     \param[out] none
 368:C:/Users/stapi/OneDrive/Desktop/GD32VW553/GD32VW55X_Wifi_BLE_SDK/GD32VW55x_RELEASE_V1.0.2/MSDK/plf/GD32VW55x_standard_peripheral/Source\gd32vw55x_rcu.c ****     \retval     which clock is selected as CK_SYS source
 369:C:/Users/stapi/OneDrive/Desktop/GD32VW553/GD32VW55X_Wifi_BLE_SDK/GD32VW55x_RELEASE_V1.0.2/MSDK/plf/GD32VW55x_standard_peripheral/Source\gd32vw55x_rcu.c ****       \arg        RCU_SCSS_IRC16M: CK_IRC16M is selected as the CK_SYS source
 370:C:/Users/stapi/OneDrive/Desktop/GD32VW553/GD32VW55X_Wifi_BLE_SDK/GD32VW55x_RELEASE_V1.0.2/MSDK/plf/GD32VW55x_standard_peripheral/Source\gd32vw55x_rcu.c ****       \arg        RCU_SCSS_HXTAL: CK_HXTAL is selected as the CK_SYS source
 371:C:/Users/stapi/OneDrive/Desktop/GD32VW553/GD32VW55X_Wifi_BLE_SDK/GD32VW55x_RELEASE_V1.0.2/MSDK/plf/GD32VW55x_standard_peripheral/Source\gd32vw55x_rcu.c ****       \arg        RCU_CKSYSSRC_PLLDIG: CK_PLLDIG is selected as the CK_SYS source
 372:C:/Users/stapi/OneDrive/Desktop/GD32VW553/GD32VW55X_Wifi_BLE_SDK/GD32VW55x_RELEASE_V1.0.2/MSDK/plf/GD32VW55x_standard_peripheral/Source\gd32vw55x_rcu.c **** */
 373:C:/Users/stapi/OneDrive/Desktop/GD32VW553/GD32VW55X_Wifi_BLE_SDK/GD32VW55x_RELEASE_V1.0.2/MSDK/plf/GD32VW55x_standard_peripheral/Source\gd32vw55x_rcu.c **** uint32_t rcu_system_clock_source_get(void)
 374:C:/Users/stapi/OneDrive/Desktop/GD32VW553/GD32VW55X_Wifi_BLE_SDK/GD32VW55x_RELEASE_V1.0.2/MSDK/plf/GD32VW55x_standard_peripheral/Source\gd32vw55x_rcu.c **** {
 293              		.loc 1 374 1 is_stmt 1
 294              		.cfi_startproc
 375:C:/Users/stapi/OneDrive/Desktop/GD32VW553/GD32VW55X_Wifi_BLE_SDK/GD32VW55x_RELEASE_V1.0.2/MSDK/plf/GD32VW55x_standard_peripheral/Source\gd32vw55x_rcu.c ****     return (RCU_CFG0 & RCU_CFG0_SCSS);
 295              		.loc 1 375 5
 296              		.loc 1 375 22 is_stmt 0
 297 0000 B7470240 		li	a5,1073889280
 298 0004 03A58780 		lw	a0,-2040(a5)
 376:C:/Users/stapi/OneDrive/Desktop/GD32VW553/GD32VW55X_Wifi_BLE_SDK/GD32VW55x_RELEASE_V1.0.2/MSDK/plf/GD32VW55x_standard_peripheral/Source\gd32vw55x_rcu.c **** }
 299              		.loc 1 376 1
 300 0008 3189     		andi	a0,a0,12
 301 000a 8280     		ret
 302              		.cfi_endproc
 303              	.LFE381:
 305              		.section	.text.rcu_ahb_clock_config,"ax",@progbits
 306              		.align	1
 307              		.globl	rcu_ahb_clock_config
 309              	rcu_ahb_clock_config:
 310              	.LFB382:
 377:C:/Users/stapi/OneDrive/Desktop/GD32VW553/GD32VW55X_Wifi_BLE_SDK/GD32VW55x_RELEASE_V1.0.2/MSDK/plf/GD32VW55x_standard_peripheral/Source\gd32vw55x_rcu.c **** 
 378:C:/Users/stapi/OneDrive/Desktop/GD32VW553/GD32VW55X_Wifi_BLE_SDK/GD32VW55x_RELEASE_V1.0.2/MSDK/plf/GD32VW55x_standard_peripheral/Source\gd32vw55x_rcu.c **** /*!
 379:C:/Users/stapi/OneDrive/Desktop/GD32VW553/GD32VW55X_Wifi_BLE_SDK/GD32VW55x_RELEASE_V1.0.2/MSDK/plf/GD32VW55x_standard_peripheral/Source\gd32vw55x_rcu.c ****     \brief      configure the AHB clock prescaler selection
 380:C:/Users/stapi/OneDrive/Desktop/GD32VW553/GD32VW55X_Wifi_BLE_SDK/GD32VW55x_RELEASE_V1.0.2/MSDK/plf/GD32VW55x_standard_peripheral/Source\gd32vw55x_rcu.c ****     \param[in]  ck_ahb: AHB clock prescaler selection
 381:C:/Users/stapi/OneDrive/Desktop/GD32VW553/GD32VW55X_Wifi_BLE_SDK/GD32VW55x_RELEASE_V1.0.2/MSDK/plf/GD32VW55x_standard_peripheral/Source\gd32vw55x_rcu.c ****                 only one parameter can be selected which is shown as below:
 382:C:/Users/stapi/OneDrive/Desktop/GD32VW553/GD32VW55X_Wifi_BLE_SDK/GD32VW55x_RELEASE_V1.0.2/MSDK/plf/GD32VW55x_standard_peripheral/Source\gd32vw55x_rcu.c ****       \arg        RCU_AHB_CKSYS_DIVx, x=1, 2, 4, 8, 16, 64, 128, 256, 512
 383:C:/Users/stapi/OneDrive/Desktop/GD32VW553/GD32VW55X_Wifi_BLE_SDK/GD32VW55x_RELEASE_V1.0.2/MSDK/plf/GD32VW55x_standard_peripheral/Source\gd32vw55x_rcu.c ****     \param[out] none
 384:C:/Users/stapi/OneDrive/Desktop/GD32VW553/GD32VW55X_Wifi_BLE_SDK/GD32VW55x_RELEASE_V1.0.2/MSDK/plf/GD32VW55x_standard_peripheral/Source\gd32vw55x_rcu.c ****     \retval     none
 385:C:/Users/stapi/OneDrive/Desktop/GD32VW553/GD32VW55X_Wifi_BLE_SDK/GD32VW55x_RELEASE_V1.0.2/MSDK/plf/GD32VW55x_standard_peripheral/Source\gd32vw55x_rcu.c **** */
 386:C:/Users/stapi/OneDrive/Desktop/GD32VW553/GD32VW55X_Wifi_BLE_SDK/GD32VW55x_RELEASE_V1.0.2/MSDK/plf/GD32VW55x_standard_peripheral/Source\gd32vw55x_rcu.c **** void rcu_ahb_clock_config(uint32_t ck_ahb)
 387:C:/Users/stapi/OneDrive/Desktop/GD32VW553/GD32VW55X_Wifi_BLE_SDK/GD32VW55x_RELEASE_V1.0.2/MSDK/plf/GD32VW55x_standard_peripheral/Source\gd32vw55x_rcu.c **** {
 311              		.loc 1 387 1 is_stmt 1
 312              		.cfi_startproc
 313              	.LVL8:
 388:C:/Users/stapi/OneDrive/Desktop/GD32VW553/GD32VW55X_Wifi_BLE_SDK/GD32VW55x_RELEASE_V1.0.2/MSDK/plf/GD32VW55x_standard_peripheral/Source\gd32vw55x_rcu.c ****     uint32_t reg;
 314              		.loc 1 388 5
 389:C:/Users/stapi/OneDrive/Desktop/GD32VW553/GD32VW55X_Wifi_BLE_SDK/GD32VW55x_RELEASE_V1.0.2/MSDK/plf/GD32VW55x_standard_peripheral/Source\gd32vw55x_rcu.c **** 
 390:C:/Users/stapi/OneDrive/Desktop/GD32VW553/GD32VW55X_Wifi_BLE_SDK/GD32VW55x_RELEASE_V1.0.2/MSDK/plf/GD32VW55x_standard_peripheral/Source\gd32vw55x_rcu.c ****     reg = RCU_CFG0;
 315              		.loc 1 390 5
 316              		.loc 1 390 9 is_stmt 0
 317 0000 37470240 		li	a4,1073889280
 318 0004 83278780 		lw	a5,-2040(a4)
 319              	.LVL9:
 391:C:/Users/stapi/OneDrive/Desktop/GD32VW553/GD32VW55X_Wifi_BLE_SDK/GD32VW55x_RELEASE_V1.0.2/MSDK/plf/GD32VW55x_standard_peripheral/Source\gd32vw55x_rcu.c ****     /* reset the AHBPSC bits and set according to ck_ahb */
 392:C:/Users/stapi/OneDrive/Desktop/GD32VW553/GD32VW55X_Wifi_BLE_SDK/GD32VW55x_RELEASE_V1.0.2/MSDK/plf/GD32VW55x_standard_peripheral/Source\gd32vw55x_rcu.c ****     reg &= ~RCU_CFG0_AHBPSC;
 320              		.loc 1 392 5 is_stmt 1
 393:C:/Users/stapi/OneDrive/Desktop/GD32VW553/GD32VW55X_Wifi_BLE_SDK/GD32VW55x_RELEASE_V1.0.2/MSDK/plf/GD32VW55x_standard_peripheral/Source\gd32vw55x_rcu.c ****     RCU_CFG0 = (reg | ck_ahb);
 321              		.loc 1 393 5
 392:C:/Users/stapi/OneDrive/Desktop/GD32VW553/GD32VW55X_Wifi_BLE_SDK/GD32VW55x_RELEASE_V1.0.2/MSDK/plf/GD32VW55x_standard_peripheral/Source\gd32vw55x_rcu.c ****     RCU_CFG0 = (reg | ck_ahb);
 322              		.loc 1 392 9 is_stmt 0
 323 0008 93F7F7F0 		andi	a5,a5,-241
 324              	.LVL10:
 325              		.loc 1 393 21
 326 000c C98F     		or	a5,a5,a0
 327              	.LVL11:
 328              		.loc 1 393 14
 329 000e 2324F780 		sw	a5,-2040(a4)
 394:C:/Users/stapi/OneDrive/Desktop/GD32VW553/GD32VW55X_Wifi_BLE_SDK/GD32VW55x_RELEASE_V1.0.2/MSDK/plf/GD32VW55x_standard_peripheral/Source\gd32vw55x_rcu.c **** }
 330              		.loc 1 394 1
 331 0012 8280     		ret
 332              		.cfi_endproc
 333              	.LFE382:
 335              		.section	.text.rcu_apb1_clock_config,"ax",@progbits
 336              		.align	1
 337              		.globl	rcu_apb1_clock_config
 339              	rcu_apb1_clock_config:
 340              	.LFB383:
 395:C:/Users/stapi/OneDrive/Desktop/GD32VW553/GD32VW55X_Wifi_BLE_SDK/GD32VW55x_RELEASE_V1.0.2/MSDK/plf/GD32VW55x_standard_peripheral/Source\gd32vw55x_rcu.c **** 
 396:C:/Users/stapi/OneDrive/Desktop/GD32VW553/GD32VW55X_Wifi_BLE_SDK/GD32VW55x_RELEASE_V1.0.2/MSDK/plf/GD32VW55x_standard_peripheral/Source\gd32vw55x_rcu.c **** /*!
 397:C:/Users/stapi/OneDrive/Desktop/GD32VW553/GD32VW55X_Wifi_BLE_SDK/GD32VW55x_RELEASE_V1.0.2/MSDK/plf/GD32VW55x_standard_peripheral/Source\gd32vw55x_rcu.c ****     \brief      configure the APB1 clock prescaler selection
 398:C:/Users/stapi/OneDrive/Desktop/GD32VW553/GD32VW55X_Wifi_BLE_SDK/GD32VW55x_RELEASE_V1.0.2/MSDK/plf/GD32VW55x_standard_peripheral/Source\gd32vw55x_rcu.c ****     \param[in]  ck_apb1: APB1 clock prescaler selection
 399:C:/Users/stapi/OneDrive/Desktop/GD32VW553/GD32VW55X_Wifi_BLE_SDK/GD32VW55x_RELEASE_V1.0.2/MSDK/plf/GD32VW55x_standard_peripheral/Source\gd32vw55x_rcu.c ****                 only one parameter can be selected which is shown as below:
 400:C:/Users/stapi/OneDrive/Desktop/GD32VW553/GD32VW55X_Wifi_BLE_SDK/GD32VW55x_RELEASE_V1.0.2/MSDK/plf/GD32VW55x_standard_peripheral/Source\gd32vw55x_rcu.c ****       \arg        RCU_APB1_CKAHB_DIV1: select CK_AHB as CK_APB1
 401:C:/Users/stapi/OneDrive/Desktop/GD32VW553/GD32VW55X_Wifi_BLE_SDK/GD32VW55x_RELEASE_V1.0.2/MSDK/plf/GD32VW55x_standard_peripheral/Source\gd32vw55x_rcu.c ****       \arg        RCU_APB1_CKAHB_DIV2: select CK_AHB/2 as CK_APB1
 402:C:/Users/stapi/OneDrive/Desktop/GD32VW553/GD32VW55X_Wifi_BLE_SDK/GD32VW55x_RELEASE_V1.0.2/MSDK/plf/GD32VW55x_standard_peripheral/Source\gd32vw55x_rcu.c ****       \arg        RCU_APB1_CKAHB_DIV4: select CK_AHB/4 as CK_APB1
 403:C:/Users/stapi/OneDrive/Desktop/GD32VW553/GD32VW55X_Wifi_BLE_SDK/GD32VW55x_RELEASE_V1.0.2/MSDK/plf/GD32VW55x_standard_peripheral/Source\gd32vw55x_rcu.c ****       \arg        RCU_APB1_CKAHB_DIV8: select CK_AHB/8 as CK_APB1
 404:C:/Users/stapi/OneDrive/Desktop/GD32VW553/GD32VW55X_Wifi_BLE_SDK/GD32VW55x_RELEASE_V1.0.2/MSDK/plf/GD32VW55x_standard_peripheral/Source\gd32vw55x_rcu.c ****       \arg        RCU_APB1_CKAHB_DIV16: select CK_AHB/16 as CK_APB1
 405:C:/Users/stapi/OneDrive/Desktop/GD32VW553/GD32VW55X_Wifi_BLE_SDK/GD32VW55x_RELEASE_V1.0.2/MSDK/plf/GD32VW55x_standard_peripheral/Source\gd32vw55x_rcu.c ****     \param[out] none
 406:C:/Users/stapi/OneDrive/Desktop/GD32VW553/GD32VW55X_Wifi_BLE_SDK/GD32VW55x_RELEASE_V1.0.2/MSDK/plf/GD32VW55x_standard_peripheral/Source\gd32vw55x_rcu.c ****     \retval     none
 407:C:/Users/stapi/OneDrive/Desktop/GD32VW553/GD32VW55X_Wifi_BLE_SDK/GD32VW55x_RELEASE_V1.0.2/MSDK/plf/GD32VW55x_standard_peripheral/Source\gd32vw55x_rcu.c **** */
 408:C:/Users/stapi/OneDrive/Desktop/GD32VW553/GD32VW55X_Wifi_BLE_SDK/GD32VW55x_RELEASE_V1.0.2/MSDK/plf/GD32VW55x_standard_peripheral/Source\gd32vw55x_rcu.c **** void rcu_apb1_clock_config(uint32_t ck_apb1)
 409:C:/Users/stapi/OneDrive/Desktop/GD32VW553/GD32VW55X_Wifi_BLE_SDK/GD32VW55x_RELEASE_V1.0.2/MSDK/plf/GD32VW55x_standard_peripheral/Source\gd32vw55x_rcu.c **** {
 341              		.loc 1 409 1 is_stmt 1
 342              		.cfi_startproc
 343              	.LVL12:
 410:C:/Users/stapi/OneDrive/Desktop/GD32VW553/GD32VW55X_Wifi_BLE_SDK/GD32VW55x_RELEASE_V1.0.2/MSDK/plf/GD32VW55x_standard_peripheral/Source\gd32vw55x_rcu.c ****     uint32_t reg;
 344              		.loc 1 410 5
 411:C:/Users/stapi/OneDrive/Desktop/GD32VW553/GD32VW55X_Wifi_BLE_SDK/GD32VW55x_RELEASE_V1.0.2/MSDK/plf/GD32VW55x_standard_peripheral/Source\gd32vw55x_rcu.c **** 
 412:C:/Users/stapi/OneDrive/Desktop/GD32VW553/GD32VW55X_Wifi_BLE_SDK/GD32VW55x_RELEASE_V1.0.2/MSDK/plf/GD32VW55x_standard_peripheral/Source\gd32vw55x_rcu.c ****     reg = RCU_CFG0;
 345              		.loc 1 412 5
 346              		.loc 1 412 9 is_stmt 0
 347 0000 B7460240 		li	a3,1073889280
 348 0004 83A78680 		lw	a5,-2040(a3)
 349              	.LVL13:
 413:C:/Users/stapi/OneDrive/Desktop/GD32VW553/GD32VW55X_Wifi_BLE_SDK/GD32VW55x_RELEASE_V1.0.2/MSDK/plf/GD32VW55x_standard_peripheral/Source\gd32vw55x_rcu.c ****     /* reset the APB1PSC and set according to ck_apb1 */
 414:C:/Users/stapi/OneDrive/Desktop/GD32VW553/GD32VW55X_Wifi_BLE_SDK/GD32VW55x_RELEASE_V1.0.2/MSDK/plf/GD32VW55x_standard_peripheral/Source\gd32vw55x_rcu.c ****     reg &= ~RCU_CFG0_APB1PSC;
 350              		.loc 1 414 5 is_stmt 1
 415:C:/Users/stapi/OneDrive/Desktop/GD32VW553/GD32VW55X_Wifi_BLE_SDK/GD32VW55x_RELEASE_V1.0.2/MSDK/plf/GD32VW55x_standard_peripheral/Source\gd32vw55x_rcu.c ****     RCU_CFG0 = (reg | ck_apb1);
 351              		.loc 1 415 5
 414:C:/Users/stapi/OneDrive/Desktop/GD32VW553/GD32VW55X_Wifi_BLE_SDK/GD32VW55x_RELEASE_V1.0.2/MSDK/plf/GD32VW55x_standard_peripheral/Source\gd32vw55x_rcu.c ****     RCU_CFG0 = (reg | ck_apb1);
 352              		.loc 1 414 9 is_stmt 0
 353 0008 7977     		li	a4,-8192
 354 000a 1307F73F 		addi	a4,a4,1023
 355 000e F98F     		and	a5,a5,a4
 356              	.LVL14:
 357              		.loc 1 415 21
 358 0010 C98F     		or	a5,a5,a0
 359              		.loc 1 415 14
 360 0012 23A4F680 		sw	a5,-2040(a3)
 416:C:/Users/stapi/OneDrive/Desktop/GD32VW553/GD32VW55X_Wifi_BLE_SDK/GD32VW55x_RELEASE_V1.0.2/MSDK/plf/GD32VW55x_standard_peripheral/Source\gd32vw55x_rcu.c **** }
 361              		.loc 1 416 1
 362 0016 8280     		ret
 363              		.cfi_endproc
 364              	.LFE383:
 366              		.section	.text.rcu_apb2_clock_config,"ax",@progbits
 367              		.align	1
 368              		.globl	rcu_apb2_clock_config
 370              	rcu_apb2_clock_config:
 371              	.LFB384:
 417:C:/Users/stapi/OneDrive/Desktop/GD32VW553/GD32VW55X_Wifi_BLE_SDK/GD32VW55x_RELEASE_V1.0.2/MSDK/plf/GD32VW55x_standard_peripheral/Source\gd32vw55x_rcu.c **** 
 418:C:/Users/stapi/OneDrive/Desktop/GD32VW553/GD32VW55X_Wifi_BLE_SDK/GD32VW55x_RELEASE_V1.0.2/MSDK/plf/GD32VW55x_standard_peripheral/Source\gd32vw55x_rcu.c **** /*!
 419:C:/Users/stapi/OneDrive/Desktop/GD32VW553/GD32VW55X_Wifi_BLE_SDK/GD32VW55x_RELEASE_V1.0.2/MSDK/plf/GD32VW55x_standard_peripheral/Source\gd32vw55x_rcu.c ****     \brief      configure the APB2 clock prescaler selection
 420:C:/Users/stapi/OneDrive/Desktop/GD32VW553/GD32VW55X_Wifi_BLE_SDK/GD32VW55x_RELEASE_V1.0.2/MSDK/plf/GD32VW55x_standard_peripheral/Source\gd32vw55x_rcu.c ****     \param[in]  ck_apb2: APB2 clock prescaler selection
 421:C:/Users/stapi/OneDrive/Desktop/GD32VW553/GD32VW55X_Wifi_BLE_SDK/GD32VW55x_RELEASE_V1.0.2/MSDK/plf/GD32VW55x_standard_peripheral/Source\gd32vw55x_rcu.c ****                 only one parameter can be selected which is shown as below:
 422:C:/Users/stapi/OneDrive/Desktop/GD32VW553/GD32VW55X_Wifi_BLE_SDK/GD32VW55x_RELEASE_V1.0.2/MSDK/plf/GD32VW55x_standard_peripheral/Source\gd32vw55x_rcu.c ****       \arg        RCU_APB2_CKAHB_DIV1: select CK_AHB as CK_APB2
 423:C:/Users/stapi/OneDrive/Desktop/GD32VW553/GD32VW55X_Wifi_BLE_SDK/GD32VW55x_RELEASE_V1.0.2/MSDK/plf/GD32VW55x_standard_peripheral/Source\gd32vw55x_rcu.c ****       \arg        RCU_APB2_CKAHB_DIV2: select CK_AHB/2 as CK_APB2
 424:C:/Users/stapi/OneDrive/Desktop/GD32VW553/GD32VW55X_Wifi_BLE_SDK/GD32VW55x_RELEASE_V1.0.2/MSDK/plf/GD32VW55x_standard_peripheral/Source\gd32vw55x_rcu.c ****       \arg        RCU_APB2_CKAHB_DIV4: select CK_AHB/4 as CK_APB2
 425:C:/Users/stapi/OneDrive/Desktop/GD32VW553/GD32VW55X_Wifi_BLE_SDK/GD32VW55x_RELEASE_V1.0.2/MSDK/plf/GD32VW55x_standard_peripheral/Source\gd32vw55x_rcu.c ****       \arg        RCU_APB2_CKAHB_DIV8: select CK_AHB/8 as CK_APB2
 426:C:/Users/stapi/OneDrive/Desktop/GD32VW553/GD32VW55X_Wifi_BLE_SDK/GD32VW55x_RELEASE_V1.0.2/MSDK/plf/GD32VW55x_standard_peripheral/Source\gd32vw55x_rcu.c ****       \arg        RCU_APB2_CKAHB_DIV16: select CK_AHB/16 as CK_APB2
 427:C:/Users/stapi/OneDrive/Desktop/GD32VW553/GD32VW55X_Wifi_BLE_SDK/GD32VW55x_RELEASE_V1.0.2/MSDK/plf/GD32VW55x_standard_peripheral/Source\gd32vw55x_rcu.c ****     \param[out] none
 428:C:/Users/stapi/OneDrive/Desktop/GD32VW553/GD32VW55X_Wifi_BLE_SDK/GD32VW55x_RELEASE_V1.0.2/MSDK/plf/GD32VW55x_standard_peripheral/Source\gd32vw55x_rcu.c ****     \retval     none
 429:C:/Users/stapi/OneDrive/Desktop/GD32VW553/GD32VW55X_Wifi_BLE_SDK/GD32VW55x_RELEASE_V1.0.2/MSDK/plf/GD32VW55x_standard_peripheral/Source\gd32vw55x_rcu.c **** */
 430:C:/Users/stapi/OneDrive/Desktop/GD32VW553/GD32VW55X_Wifi_BLE_SDK/GD32VW55x_RELEASE_V1.0.2/MSDK/plf/GD32VW55x_standard_peripheral/Source\gd32vw55x_rcu.c **** void rcu_apb2_clock_config(uint32_t ck_apb2)
 431:C:/Users/stapi/OneDrive/Desktop/GD32VW553/GD32VW55X_Wifi_BLE_SDK/GD32VW55x_RELEASE_V1.0.2/MSDK/plf/GD32VW55x_standard_peripheral/Source\gd32vw55x_rcu.c **** {
 372              		.loc 1 431 1 is_stmt 1
 373              		.cfi_startproc
 374              	.LVL15:
 432:C:/Users/stapi/OneDrive/Desktop/GD32VW553/GD32VW55X_Wifi_BLE_SDK/GD32VW55x_RELEASE_V1.0.2/MSDK/plf/GD32VW55x_standard_peripheral/Source\gd32vw55x_rcu.c ****     uint32_t reg;
 375              		.loc 1 432 5
 433:C:/Users/stapi/OneDrive/Desktop/GD32VW553/GD32VW55X_Wifi_BLE_SDK/GD32VW55x_RELEASE_V1.0.2/MSDK/plf/GD32VW55x_standard_peripheral/Source\gd32vw55x_rcu.c **** 
 434:C:/Users/stapi/OneDrive/Desktop/GD32VW553/GD32VW55X_Wifi_BLE_SDK/GD32VW55x_RELEASE_V1.0.2/MSDK/plf/GD32VW55x_standard_peripheral/Source\gd32vw55x_rcu.c ****     reg = RCU_CFG0;
 376              		.loc 1 434 5
 377              		.loc 1 434 9 is_stmt 0
 378 0000 B7460240 		li	a3,1073889280
 379 0004 83A78680 		lw	a5,-2040(a3)
 380              	.LVL16:
 435:C:/Users/stapi/OneDrive/Desktop/GD32VW553/GD32VW55X_Wifi_BLE_SDK/GD32VW55x_RELEASE_V1.0.2/MSDK/plf/GD32VW55x_standard_peripheral/Source\gd32vw55x_rcu.c ****     /* reset the APB2PSC and set according to ck_apb2 */
 436:C:/Users/stapi/OneDrive/Desktop/GD32VW553/GD32VW55X_Wifi_BLE_SDK/GD32VW55x_RELEASE_V1.0.2/MSDK/plf/GD32VW55x_standard_peripheral/Source\gd32vw55x_rcu.c ****     reg &= ~RCU_CFG0_APB2PSC;
 381              		.loc 1 436 5 is_stmt 1
 437:C:/Users/stapi/OneDrive/Desktop/GD32VW553/GD32VW55X_Wifi_BLE_SDK/GD32VW55x_RELEASE_V1.0.2/MSDK/plf/GD32VW55x_standard_peripheral/Source\gd32vw55x_rcu.c ****     RCU_CFG0 = (reg | ck_apb2);
 382              		.loc 1 437 5
 436:C:/Users/stapi/OneDrive/Desktop/GD32VW553/GD32VW55X_Wifi_BLE_SDK/GD32VW55x_RELEASE_V1.0.2/MSDK/plf/GD32VW55x_standard_peripheral/Source\gd32vw55x_rcu.c ****     RCU_CFG0 = (reg | ck_apb2);
 383              		.loc 1 436 9 is_stmt 0
 384 0008 4977     		li	a4,-57344
 385 000a 7D17     		addi	a4,a4,-1
 386 000c F98F     		and	a5,a5,a4
 387              	.LVL17:
 388              		.loc 1 437 21
 389 000e C98F     		or	a5,a5,a0
 390              		.loc 1 437 14
 391 0010 23A4F680 		sw	a5,-2040(a3)
 438:C:/Users/stapi/OneDrive/Desktop/GD32VW553/GD32VW55X_Wifi_BLE_SDK/GD32VW55x_RELEASE_V1.0.2/MSDK/plf/GD32VW55x_standard_peripheral/Source\gd32vw55x_rcu.c **** }
 392              		.loc 1 438 1
 393 0014 8280     		ret
 394              		.cfi_endproc
 395              	.LFE384:
 397              		.section	.text.rcu_ckout0_config,"ax",@progbits
 398              		.align	1
 399              		.globl	rcu_ckout0_config
 401              	rcu_ckout0_config:
 402              	.LFB385:
 439:C:/Users/stapi/OneDrive/Desktop/GD32VW553/GD32VW55X_Wifi_BLE_SDK/GD32VW55x_RELEASE_V1.0.2/MSDK/plf/GD32VW55x_standard_peripheral/Source\gd32vw55x_rcu.c **** 
 440:C:/Users/stapi/OneDrive/Desktop/GD32VW553/GD32VW55X_Wifi_BLE_SDK/GD32VW55x_RELEASE_V1.0.2/MSDK/plf/GD32VW55x_standard_peripheral/Source\gd32vw55x_rcu.c **** /*!
 441:C:/Users/stapi/OneDrive/Desktop/GD32VW553/GD32VW55X_Wifi_BLE_SDK/GD32VW55x_RELEASE_V1.0.2/MSDK/plf/GD32VW55x_standard_peripheral/Source\gd32vw55x_rcu.c ****     \brief      configure the CK_OUT0 clock source and divider
 442:C:/Users/stapi/OneDrive/Desktop/GD32VW553/GD32VW55X_Wifi_BLE_SDK/GD32VW55x_RELEASE_V1.0.2/MSDK/plf/GD32VW55x_standard_peripheral/Source\gd32vw55x_rcu.c ****     \param[in]  ckout0_src: CK_OUT0 clock source selection
 443:C:/Users/stapi/OneDrive/Desktop/GD32VW553/GD32VW55X_Wifi_BLE_SDK/GD32VW55x_RELEASE_V1.0.2/MSDK/plf/GD32VW55x_standard_peripheral/Source\gd32vw55x_rcu.c ****                 only one parameter can be selected which is shown as below:
 444:C:/Users/stapi/OneDrive/Desktop/GD32VW553/GD32VW55X_Wifi_BLE_SDK/GD32VW55x_RELEASE_V1.0.2/MSDK/plf/GD32VW55x_standard_peripheral/Source\gd32vw55x_rcu.c ****       \arg        RCU_CKOUT0SRC_IRC16M: IRC16M selected
 445:C:/Users/stapi/OneDrive/Desktop/GD32VW553/GD32VW55X_Wifi_BLE_SDK/GD32VW55x_RELEASE_V1.0.2/MSDK/plf/GD32VW55x_standard_peripheral/Source\gd32vw55x_rcu.c ****       \arg        RCU_CKOUT0SRC_LXTAL: LXTAL selected
 446:C:/Users/stapi/OneDrive/Desktop/GD32VW553/GD32VW55X_Wifi_BLE_SDK/GD32VW55x_RELEASE_V1.0.2/MSDK/plf/GD32VW55x_standard_peripheral/Source\gd32vw55x_rcu.c ****       \arg        RCU_CKOUT0SRC_HXTAL: HXTAL selected
 447:C:/Users/stapi/OneDrive/Desktop/GD32VW553/GD32VW55X_Wifi_BLE_SDK/GD32VW55x_RELEASE_V1.0.2/MSDK/plf/GD32VW55x_standard_peripheral/Source\gd32vw55x_rcu.c ****       \arg        RCU_CKOUT0SRC_PLLDIG: CK_PLLDIG selected
 448:C:/Users/stapi/OneDrive/Desktop/GD32VW553/GD32VW55X_Wifi_BLE_SDK/GD32VW55x_RELEASE_V1.0.2/MSDK/plf/GD32VW55x_standard_peripheral/Source\gd32vw55x_rcu.c ****       \arg        RCU_CKOUT0SRC_IRC32K: IRC32K selected
 449:C:/Users/stapi/OneDrive/Desktop/GD32VW553/GD32VW55X_Wifi_BLE_SDK/GD32VW55x_RELEASE_V1.0.2/MSDK/plf/GD32VW55x_standard_peripheral/Source\gd32vw55x_rcu.c ****       \arg        RCU_CKOUT0SRC_CKSYS: system clock selected
 450:C:/Users/stapi/OneDrive/Desktop/GD32VW553/GD32VW55X_Wifi_BLE_SDK/GD32VW55x_RELEASE_V1.0.2/MSDK/plf/GD32VW55x_standard_peripheral/Source\gd32vw55x_rcu.c ****     \param[in]  ckout0_div: CK_OUT0 divider
 451:C:/Users/stapi/OneDrive/Desktop/GD32VW553/GD32VW55X_Wifi_BLE_SDK/GD32VW55x_RELEASE_V1.0.2/MSDK/plf/GD32VW55x_standard_peripheral/Source\gd32vw55x_rcu.c ****       \arg        RCU_CKOUT0_DIVx(x=1,2,3,4,5): CK_OUT0 is divided by x
 452:C:/Users/stapi/OneDrive/Desktop/GD32VW553/GD32VW55X_Wifi_BLE_SDK/GD32VW55x_RELEASE_V1.0.2/MSDK/plf/GD32VW55x_standard_peripheral/Source\gd32vw55x_rcu.c ****     \param[out] none
 453:C:/Users/stapi/OneDrive/Desktop/GD32VW553/GD32VW55X_Wifi_BLE_SDK/GD32VW55x_RELEASE_V1.0.2/MSDK/plf/GD32VW55x_standard_peripheral/Source\gd32vw55x_rcu.c ****     \retval     none
 454:C:/Users/stapi/OneDrive/Desktop/GD32VW553/GD32VW55X_Wifi_BLE_SDK/GD32VW55x_RELEASE_V1.0.2/MSDK/plf/GD32VW55x_standard_peripheral/Source\gd32vw55x_rcu.c **** */
 455:C:/Users/stapi/OneDrive/Desktop/GD32VW553/GD32VW55X_Wifi_BLE_SDK/GD32VW55x_RELEASE_V1.0.2/MSDK/plf/GD32VW55x_standard_peripheral/Source\gd32vw55x_rcu.c **** void rcu_ckout0_config(uint32_t ckout0_src, uint32_t ckout0_div)
 456:C:/Users/stapi/OneDrive/Desktop/GD32VW553/GD32VW55X_Wifi_BLE_SDK/GD32VW55x_RELEASE_V1.0.2/MSDK/plf/GD32VW55x_standard_peripheral/Source\gd32vw55x_rcu.c **** {
 403              		.loc 1 456 1 is_stmt 1
 404              		.cfi_startproc
 405              	.LVL18:
 457:C:/Users/stapi/OneDrive/Desktop/GD32VW553/GD32VW55X_Wifi_BLE_SDK/GD32VW55x_RELEASE_V1.0.2/MSDK/plf/GD32VW55x_standard_peripheral/Source\gd32vw55x_rcu.c ****     uint32_t reg;
 406              		.loc 1 457 5
 458:C:/Users/stapi/OneDrive/Desktop/GD32VW553/GD32VW55X_Wifi_BLE_SDK/GD32VW55x_RELEASE_V1.0.2/MSDK/plf/GD32VW55x_standard_peripheral/Source\gd32vw55x_rcu.c **** 
 459:C:/Users/stapi/OneDrive/Desktop/GD32VW553/GD32VW55X_Wifi_BLE_SDK/GD32VW55x_RELEASE_V1.0.2/MSDK/plf/GD32VW55x_standard_peripheral/Source\gd32vw55x_rcu.c ****     reg = RCU_CFG0;
 407              		.loc 1 459 5
 408              		.loc 1 459 9 is_stmt 0
 409 0000 B7460240 		li	a3,1073889280
 410 0004 83A78680 		lw	a5,-2040(a3)
 411              	.LVL19:
 460:C:/Users/stapi/OneDrive/Desktop/GD32VW553/GD32VW55X_Wifi_BLE_SDK/GD32VW55x_RELEASE_V1.0.2/MSDK/plf/GD32VW55x_standard_peripheral/Source\gd32vw55x_rcu.c ****     /* reset the CKOUT0SRC, CKOUT0DIV and set according to ckout0_src and ckout0_div */
 461:C:/Users/stapi/OneDrive/Desktop/GD32VW553/GD32VW55X_Wifi_BLE_SDK/GD32VW55x_RELEASE_V1.0.2/MSDK/plf/GD32VW55x_standard_peripheral/Source\gd32vw55x_rcu.c ****     reg &= ~(RCU_CFG0_CKOUT0SEL | RCU_CFG0_CKOUT0DIV );
 412              		.loc 1 461 5 is_stmt 1
 462:C:/Users/stapi/OneDrive/Desktop/GD32VW553/GD32VW55X_Wifi_BLE_SDK/GD32VW55x_RELEASE_V1.0.2/MSDK/plf/GD32VW55x_standard_peripheral/Source\gd32vw55x_rcu.c ****     RCU_CFG0 = (reg | ckout0_src | ckout0_div);
 413              		.loc 1 462 5
 461:C:/Users/stapi/OneDrive/Desktop/GD32VW553/GD32VW55X_Wifi_BLE_SDK/GD32VW55x_RELEASE_V1.0.2/MSDK/plf/GD32VW55x_standard_peripheral/Source\gd32vw55x_rcu.c ****     RCU_CFG0 = (reg | ckout0_src | ckout0_div);
 414              		.loc 1 461 9 is_stmt 0
 415 0008 370720F8 		li	a4,-132120576
 416 000c 7D17     		addi	a4,a4,-1
 417 000e F98F     		and	a5,a5,a4
 418              	.LVL20:
 419              		.loc 1 462 34
 420 0010 CD8F     		or	a5,a5,a1
 421 0012 C98F     		or	a5,a5,a0
 422              		.loc 1 462 14
 423 0014 23A4F680 		sw	a5,-2040(a3)
 463:C:/Users/stapi/OneDrive/Desktop/GD32VW553/GD32VW55X_Wifi_BLE_SDK/GD32VW55x_RELEASE_V1.0.2/MSDK/plf/GD32VW55x_standard_peripheral/Source\gd32vw55x_rcu.c **** }
 424              		.loc 1 463 1
 425 0018 8280     		ret
 426              		.cfi_endproc
 427              	.LFE385:
 429              		.section	.text.rcu_ckout1_config,"ax",@progbits
 430              		.align	1
 431              		.globl	rcu_ckout1_config
 433              	rcu_ckout1_config:
 434              	.LFB386:
 464:C:/Users/stapi/OneDrive/Desktop/GD32VW553/GD32VW55X_Wifi_BLE_SDK/GD32VW55x_RELEASE_V1.0.2/MSDK/plf/GD32VW55x_standard_peripheral/Source\gd32vw55x_rcu.c **** 
 465:C:/Users/stapi/OneDrive/Desktop/GD32VW553/GD32VW55X_Wifi_BLE_SDK/GD32VW55x_RELEASE_V1.0.2/MSDK/plf/GD32VW55x_standard_peripheral/Source\gd32vw55x_rcu.c **** /*!
 466:C:/Users/stapi/OneDrive/Desktop/GD32VW553/GD32VW55X_Wifi_BLE_SDK/GD32VW55x_RELEASE_V1.0.2/MSDK/plf/GD32VW55x_standard_peripheral/Source\gd32vw55x_rcu.c ****     \brief      configure the CK_OUT1 clock source and divider
 467:C:/Users/stapi/OneDrive/Desktop/GD32VW553/GD32VW55X_Wifi_BLE_SDK/GD32VW55x_RELEASE_V1.0.2/MSDK/plf/GD32VW55x_standard_peripheral/Source\gd32vw55x_rcu.c ****     \param[in]  ckout1_src: CK_OUT1 clock source selection
 468:C:/Users/stapi/OneDrive/Desktop/GD32VW553/GD32VW55X_Wifi_BLE_SDK/GD32VW55x_RELEASE_V1.0.2/MSDK/plf/GD32VW55x_standard_peripheral/Source\gd32vw55x_rcu.c ****                 only one parameter can be selected which is shown as below:
 469:C:/Users/stapi/OneDrive/Desktop/GD32VW553/GD32VW55X_Wifi_BLE_SDK/GD32VW55x_RELEASE_V1.0.2/MSDK/plf/GD32VW55x_standard_peripheral/Source\gd32vw55x_rcu.c ****       \arg        RCU_CKOUT1SRC_CKSYS: system clock selected
 470:C:/Users/stapi/OneDrive/Desktop/GD32VW553/GD32VW55X_Wifi_BLE_SDK/GD32VW55x_RELEASE_V1.0.2/MSDK/plf/GD32VW55x_standard_peripheral/Source\gd32vw55x_rcu.c ****       \arg        RCU_CKOUT1SRC_IRC16M: IRC16M selected
 471:C:/Users/stapi/OneDrive/Desktop/GD32VW553/GD32VW55X_Wifi_BLE_SDK/GD32VW55x_RELEASE_V1.0.2/MSDK/plf/GD32VW55x_standard_peripheral/Source\gd32vw55x_rcu.c ****       \arg        RCU_CKOUT1SRC_HXTAL: HXTAL selected
 472:C:/Users/stapi/OneDrive/Desktop/GD32VW553/GD32VW55X_Wifi_BLE_SDK/GD32VW55x_RELEASE_V1.0.2/MSDK/plf/GD32VW55x_standard_peripheral/Source\gd32vw55x_rcu.c ****       \arg        RCU_CKOUT1SRC_PLLDIG: PLLDIG selected
 473:C:/Users/stapi/OneDrive/Desktop/GD32VW553/GD32VW55X_Wifi_BLE_SDK/GD32VW55x_RELEASE_V1.0.2/MSDK/plf/GD32VW55x_standard_peripheral/Source\gd32vw55x_rcu.c ****     \param[in]  ckout1_div: CK_OUT1 divider
 474:C:/Users/stapi/OneDrive/Desktop/GD32VW553/GD32VW55X_Wifi_BLE_SDK/GD32VW55x_RELEASE_V1.0.2/MSDK/plf/GD32VW55x_standard_peripheral/Source\gd32vw55x_rcu.c ****       \arg        RCU_CKOUT1_DIVx(x=1,2,3,4,5): CK_OUT1 is divided by x
 475:C:/Users/stapi/OneDrive/Desktop/GD32VW553/GD32VW55X_Wifi_BLE_SDK/GD32VW55x_RELEASE_V1.0.2/MSDK/plf/GD32VW55x_standard_peripheral/Source\gd32vw55x_rcu.c ****     \param[out] none
 476:C:/Users/stapi/OneDrive/Desktop/GD32VW553/GD32VW55X_Wifi_BLE_SDK/GD32VW55x_RELEASE_V1.0.2/MSDK/plf/GD32VW55x_standard_peripheral/Source\gd32vw55x_rcu.c ****     \retval     none
 477:C:/Users/stapi/OneDrive/Desktop/GD32VW553/GD32VW55X_Wifi_BLE_SDK/GD32VW55x_RELEASE_V1.0.2/MSDK/plf/GD32VW55x_standard_peripheral/Source\gd32vw55x_rcu.c **** */
 478:C:/Users/stapi/OneDrive/Desktop/GD32VW553/GD32VW55X_Wifi_BLE_SDK/GD32VW55x_RELEASE_V1.0.2/MSDK/plf/GD32VW55x_standard_peripheral/Source\gd32vw55x_rcu.c **** void rcu_ckout1_config(uint32_t ckout1_src, uint32_t ckout1_div)
 479:C:/Users/stapi/OneDrive/Desktop/GD32VW553/GD32VW55X_Wifi_BLE_SDK/GD32VW55x_RELEASE_V1.0.2/MSDK/plf/GD32VW55x_standard_peripheral/Source\gd32vw55x_rcu.c **** {
 435              		.loc 1 479 1 is_stmt 1
 436              		.cfi_startproc
 437              	.LVL21:
 480:C:/Users/stapi/OneDrive/Desktop/GD32VW553/GD32VW55X_Wifi_BLE_SDK/GD32VW55x_RELEASE_V1.0.2/MSDK/plf/GD32VW55x_standard_peripheral/Source\gd32vw55x_rcu.c ****     uint32_t reg;
 438              		.loc 1 480 5
 481:C:/Users/stapi/OneDrive/Desktop/GD32VW553/GD32VW55X_Wifi_BLE_SDK/GD32VW55x_RELEASE_V1.0.2/MSDK/plf/GD32VW55x_standard_peripheral/Source\gd32vw55x_rcu.c **** 
 482:C:/Users/stapi/OneDrive/Desktop/GD32VW553/GD32VW55X_Wifi_BLE_SDK/GD32VW55x_RELEASE_V1.0.2/MSDK/plf/GD32VW55x_standard_peripheral/Source\gd32vw55x_rcu.c ****     reg = RCU_CFG0;
 439              		.loc 1 482 5
 440              		.loc 1 482 9 is_stmt 0
 441 0000 37470240 		li	a4,1073889280
 442 0004 83278780 		lw	a5,-2040(a4)
 443              	.LVL22:
 483:C:/Users/stapi/OneDrive/Desktop/GD32VW553/GD32VW55X_Wifi_BLE_SDK/GD32VW55x_RELEASE_V1.0.2/MSDK/plf/GD32VW55x_standard_peripheral/Source\gd32vw55x_rcu.c ****     /* reset the CKOUT1SRC, CKOUT1DIV and set according to ckout1_src and ckout1_div */
 484:C:/Users/stapi/OneDrive/Desktop/GD32VW553/GD32VW55X_Wifi_BLE_SDK/GD32VW55x_RELEASE_V1.0.2/MSDK/plf/GD32VW55x_standard_peripheral/Source\gd32vw55x_rcu.c ****     reg &= ~(RCU_CFG0_CKOUT1SEL | RCU_CFG0_CKOUT1DIV);
 444              		.loc 1 484 5 is_stmt 1
 485:C:/Users/stapi/OneDrive/Desktop/GD32VW553/GD32VW55X_Wifi_BLE_SDK/GD32VW55x_RELEASE_V1.0.2/MSDK/plf/GD32VW55x_standard_peripheral/Source\gd32vw55x_rcu.c ****     RCU_CFG0 = (reg | ckout1_src | ckout1_div);
 445              		.loc 1 485 5
 484:C:/Users/stapi/OneDrive/Desktop/GD32VW553/GD32VW55X_Wifi_BLE_SDK/GD32VW55x_RELEASE_V1.0.2/MSDK/plf/GD32VW55x_standard_peripheral/Source\gd32vw55x_rcu.c ****     RCU_CFG0 = (reg | ckout1_src | ckout1_div);
 446              		.loc 1 484 9 is_stmt 0
 447 0008 9607     		slli	a5,a5,5
 448              	.LVL23:
 449 000a 9583     		srli	a5,a5,5
 450              		.loc 1 485 34
 451 000c CD8F     		or	a5,a5,a1
 452 000e C98F     		or	a5,a5,a0
 453              		.loc 1 485 14
 454 0010 2324F780 		sw	a5,-2040(a4)
 486:C:/Users/stapi/OneDrive/Desktop/GD32VW553/GD32VW55X_Wifi_BLE_SDK/GD32VW55x_RELEASE_V1.0.2/MSDK/plf/GD32VW55x_standard_peripheral/Source\gd32vw55x_rcu.c **** }
 455              		.loc 1 486 1
 456 0014 8280     		ret
 457              		.cfi_endproc
 458              	.LFE386:
 460              		.section	.text.rcu_plldig_config,"ax",@progbits
 461              		.align	1
 462              		.globl	rcu_plldig_config
 464              	rcu_plldig_config:
 465              	.LFB387:
 487:C:/Users/stapi/OneDrive/Desktop/GD32VW553/GD32VW55X_Wifi_BLE_SDK/GD32VW55x_RELEASE_V1.0.2/MSDK/plf/GD32VW55x_standard_peripheral/Source\gd32vw55x_rcu.c **** 
 488:C:/Users/stapi/OneDrive/Desktop/GD32VW553/GD32VW55X_Wifi_BLE_SDK/GD32VW55x_RELEASE_V1.0.2/MSDK/plf/GD32VW55x_standard_peripheral/Source\gd32vw55x_rcu.c **** /*!
 489:C:/Users/stapi/OneDrive/Desktop/GD32VW553/GD32VW55X_Wifi_BLE_SDK/GD32VW55x_RELEASE_V1.0.2/MSDK/plf/GD32VW55x_standard_peripheral/Source\gd32vw55x_rcu.c ****     \brief      configure the PLLDIG output clock frequency
 490:C:/Users/stapi/OneDrive/Desktop/GD32VW553/GD32VW55X_Wifi_BLE_SDK/GD32VW55x_RELEASE_V1.0.2/MSDK/plf/GD32VW55x_standard_peripheral/Source\gd32vw55x_rcu.c ****     \param[in]  plldig_clk: the PLLDIG VCO clock this parameter sselection
 491:C:/Users/stapi/OneDrive/Desktop/GD32VW553/GD32VW55X_Wifi_BLE_SDK/GD32VW55x_RELEASE_V1.0.2/MSDK/plf/GD32VW55x_standard_peripheral/Source\gd32vw55x_rcu.c ****                 only one parameter can be selected which is shown as below:
 492:C:/Users/stapi/OneDrive/Desktop/GD32VW553/GD32VW55X_Wifi_BLE_SDK/GD32VW55x_RELEASE_V1.0.2/MSDK/plf/GD32VW55x_standard_peripheral/Source\gd32vw55x_rcu.c ****       \arg        RCU_PLLDIG_192M: selected 192Mhz as PLLDIG output frequency
 493:C:/Users/stapi/OneDrive/Desktop/GD32VW553/GD32VW55X_Wifi_BLE_SDK/GD32VW55x_RELEASE_V1.0.2/MSDK/plf/GD32VW55x_standard_peripheral/Source\gd32vw55x_rcu.c ****       \arg        RCU_PLLDIG_240M: selected 240Mhz as PLLDIG output frequency
 494:C:/Users/stapi/OneDrive/Desktop/GD32VW553/GD32VW55X_Wifi_BLE_SDK/GD32VW55x_RELEASE_V1.0.2/MSDK/plf/GD32VW55x_standard_peripheral/Source\gd32vw55x_rcu.c ****       \arg        RCU_PLLDIG_320M: selected 320Mhz as PLLDIG output frequency
 495:C:/Users/stapi/OneDrive/Desktop/GD32VW553/GD32VW55X_Wifi_BLE_SDK/GD32VW55x_RELEASE_V1.0.2/MSDK/plf/GD32VW55x_standard_peripheral/Source\gd32vw55x_rcu.c ****       \arg        RCU_PLLDIG_480M: selected 480Mhz as PLLDIG output frequency
 496:C:/Users/stapi/OneDrive/Desktop/GD32VW553/GD32VW55X_Wifi_BLE_SDK/GD32VW55x_RELEASE_V1.0.2/MSDK/plf/GD32VW55x_standard_peripheral/Source\gd32vw55x_rcu.c ****     \param[out] none
 497:C:/Users/stapi/OneDrive/Desktop/GD32VW553/GD32VW55X_Wifi_BLE_SDK/GD32VW55x_RELEASE_V1.0.2/MSDK/plf/GD32VW55x_standard_peripheral/Source\gd32vw55x_rcu.c ****     \retval     none
 498:C:/Users/stapi/OneDrive/Desktop/GD32VW553/GD32VW55X_Wifi_BLE_SDK/GD32VW55x_RELEASE_V1.0.2/MSDK/plf/GD32VW55x_standard_peripheral/Source\gd32vw55x_rcu.c **** */
 499:C:/Users/stapi/OneDrive/Desktop/GD32VW553/GD32VW55X_Wifi_BLE_SDK/GD32VW55x_RELEASE_V1.0.2/MSDK/plf/GD32VW55x_standard_peripheral/Source\gd32vw55x_rcu.c **** void rcu_plldig_config(uint32_t plldig_clk)
 500:C:/Users/stapi/OneDrive/Desktop/GD32VW553/GD32VW55X_Wifi_BLE_SDK/GD32VW55x_RELEASE_V1.0.2/MSDK/plf/GD32VW55x_standard_peripheral/Source\gd32vw55x_rcu.c **** {
 466              		.loc 1 500 1 is_stmt 1
 467              		.cfi_startproc
 468              	.LVL24:
 501:C:/Users/stapi/OneDrive/Desktop/GD32VW553/GD32VW55X_Wifi_BLE_SDK/GD32VW55x_RELEASE_V1.0.2/MSDK/plf/GD32VW55x_standard_peripheral/Source\gd32vw55x_rcu.c ****        RCU_PLLDIGCFG0 &= ~(RCU_PLLDIGCFG0_PLLDIGOSEL);
 469              		.loc 1 501 8
 470              		.loc 1 501 23 is_stmt 0
 471 0000 B7470240 		li	a5,1073889280
 472 0004 93870788 		addi	a5,a5,-1920
 473 0008 D443     		lw	a3,4(a5)
 474 000a 370600FD 		li	a2,-50331648
 475 000e 7D16     		addi	a2,a2,-1
 476 0010 F18E     		and	a3,a3,a2
 477 0012 D4C3     		sw	a3,4(a5)
 502:C:/Users/stapi/OneDrive/Desktop/GD32VW553/GD32VW55X_Wifi_BLE_SDK/GD32VW55x_RELEASE_V1.0.2/MSDK/plf/GD32VW55x_standard_peripheral/Source\gd32vw55x_rcu.c ****        RCU_PLLDIGCFG0 |= plldig_clk;
 478              		.loc 1 502 8 is_stmt 1
 479              		.loc 1 502 23 is_stmt 0
 480 0014 D843     		lw	a4,4(a5)
 481 0016 498F     		or	a4,a4,a0
 482 0018 D8C3     		sw	a4,4(a5)
 503:C:/Users/stapi/OneDrive/Desktop/GD32VW553/GD32VW55X_Wifi_BLE_SDK/GD32VW55x_RELEASE_V1.0.2/MSDK/plf/GD32VW55x_standard_peripheral/Source\gd32vw55x_rcu.c **** }
 483              		.loc 1 503 1
 484 001a 8280     		ret
 485              		.cfi_endproc
 486              	.LFE387:
 488              		.section	.text.rcu_plldigdiv_sys_config,"ax",@progbits
 489              		.align	1
 490              		.globl	rcu_plldigdiv_sys_config
 492              	rcu_plldigdiv_sys_config:
 493              	.LFB388:
 504:C:/Users/stapi/OneDrive/Desktop/GD32VW553/GD32VW55X_Wifi_BLE_SDK/GD32VW55x_RELEASE_V1.0.2/MSDK/plf/GD32VW55x_standard_peripheral/Source\gd32vw55x_rcu.c **** 
 505:C:/Users/stapi/OneDrive/Desktop/GD32VW553/GD32VW55X_Wifi_BLE_SDK/GD32VW55x_RELEASE_V1.0.2/MSDK/plf/GD32VW55x_standard_peripheral/Source\gd32vw55x_rcu.c **** /*!
 506:C:/Users/stapi/OneDrive/Desktop/GD32VW553/GD32VW55X_Wifi_BLE_SDK/GD32VW55x_RELEASE_V1.0.2/MSDK/plf/GD32VW55x_standard_peripheral/Source\gd32vw55x_rcu.c ****     \brief      configure PLLDIG clock divider factor for system clock
 507:C:/Users/stapi/OneDrive/Desktop/GD32VW553/GD32VW55X_Wifi_BLE_SDK/GD32VW55x_RELEASE_V1.0.2/MSDK/plf/GD32VW55x_standard_peripheral/Source\gd32vw55x_rcu.c ****     \param[in]  plldigdiv_sys: PLLDIG clock divider factor for system clock
 508:C:/Users/stapi/OneDrive/Desktop/GD32VW553/GD32VW55X_Wifi_BLE_SDK/GD32VW55x_RELEASE_V1.0.2/MSDK/plf/GD32VW55x_standard_peripheral/Source\gd32vw55x_rcu.c ****                 only one parameter can be selected which is shown as below:
 509:C:/Users/stapi/OneDrive/Desktop/GD32VW553/GD32VW55X_Wifi_BLE_SDK/GD32VW55x_RELEASE_V1.0.2/MSDK/plf/GD32VW55x_standard_peripheral/Source\gd32vw55x_rcu.c ****       \arg        RCU_PLLDIG_SYS_DIVx(x=1,2,3,...,64): PLLDIG clock divided by x for system clock
 510:C:/Users/stapi/OneDrive/Desktop/GD32VW553/GD32VW55X_Wifi_BLE_SDK/GD32VW55x_RELEASE_V1.0.2/MSDK/plf/GD32VW55x_standard_peripheral/Source\gd32vw55x_rcu.c ****     \param[out] none
 511:C:/Users/stapi/OneDrive/Desktop/GD32VW553/GD32VW55X_Wifi_BLE_SDK/GD32VW55x_RELEASE_V1.0.2/MSDK/plf/GD32VW55x_standard_peripheral/Source\gd32vw55x_rcu.c ****     \retval     none
 512:C:/Users/stapi/OneDrive/Desktop/GD32VW553/GD32VW55X_Wifi_BLE_SDK/GD32VW55x_RELEASE_V1.0.2/MSDK/plf/GD32VW55x_standard_peripheral/Source\gd32vw55x_rcu.c **** */
 513:C:/Users/stapi/OneDrive/Desktop/GD32VW553/GD32VW55X_Wifi_BLE_SDK/GD32VW55x_RELEASE_V1.0.2/MSDK/plf/GD32VW55x_standard_peripheral/Source\gd32vw55x_rcu.c **** void rcu_plldigdiv_sys_config(uint32_t plldigdiv_sys)
 514:C:/Users/stapi/OneDrive/Desktop/GD32VW553/GD32VW55X_Wifi_BLE_SDK/GD32VW55x_RELEASE_V1.0.2/MSDK/plf/GD32VW55x_standard_peripheral/Source\gd32vw55x_rcu.c **** {
 494              		.loc 1 514 1 is_stmt 1
 495              		.cfi_startproc
 496              	.LVL25:
 515:C:/Users/stapi/OneDrive/Desktop/GD32VW553/GD32VW55X_Wifi_BLE_SDK/GD32VW55x_RELEASE_V1.0.2/MSDK/plf/GD32VW55x_standard_peripheral/Source\gd32vw55x_rcu.c ****     uint32_t reg;
 497              		.loc 1 515 5
 516:C:/Users/stapi/OneDrive/Desktop/GD32VW553/GD32VW55X_Wifi_BLE_SDK/GD32VW55x_RELEASE_V1.0.2/MSDK/plf/GD32VW55x_standard_peripheral/Source\gd32vw55x_rcu.c **** 
 517:C:/Users/stapi/OneDrive/Desktop/GD32VW553/GD32VW55X_Wifi_BLE_SDK/GD32VW55x_RELEASE_V1.0.2/MSDK/plf/GD32VW55x_standard_peripheral/Source\gd32vw55x_rcu.c ****     reg = RCU_PLLDIGCFG0;
 498              		.loc 1 517 5
 499              		.loc 1 517 9 is_stmt 0
 500 0000 37470240 		li	a4,1073889280
 501 0004 83274788 		lw	a5,-1916(a4)
 502              	.LVL26:
 518:C:/Users/stapi/OneDrive/Desktop/GD32VW553/GD32VW55X_Wifi_BLE_SDK/GD32VW55x_RELEASE_V1.0.2/MSDK/plf/GD32VW55x_standard_peripheral/Source\gd32vw55x_rcu.c ****     /* reset the PLLDIGDIV_SYS bits and set according to plldigdiv_sys */
 519:C:/Users/stapi/OneDrive/Desktop/GD32VW553/GD32VW55X_Wifi_BLE_SDK/GD32VW55x_RELEASE_V1.0.2/MSDK/plf/GD32VW55x_standard_peripheral/Source\gd32vw55x_rcu.c ****     reg &= ~RCU_PLLDIGCFG0_PLLDIGDIV_SYS;
 503              		.loc 1 519 5 is_stmt 1
 520:C:/Users/stapi/OneDrive/Desktop/GD32VW553/GD32VW55X_Wifi_BLE_SDK/GD32VW55x_RELEASE_V1.0.2/MSDK/plf/GD32VW55x_standard_peripheral/Source\gd32vw55x_rcu.c ****     RCU_PLLDIGCFG0 = (reg | plldigdiv_sys);
 504              		.loc 1 520 5
 519:C:/Users/stapi/OneDrive/Desktop/GD32VW553/GD32VW55X_Wifi_BLE_SDK/GD32VW55x_RELEASE_V1.0.2/MSDK/plf/GD32VW55x_standard_peripheral/Source\gd32vw55x_rcu.c ****     RCU_PLLDIGCFG0 = (reg | plldigdiv_sys);
 505              		.loc 1 519 9 is_stmt 0
 506 0008 9A07     		slli	a5,a5,6
 507              	.LVL27:
 508 000a 9983     		srli	a5,a5,6
 509              		.loc 1 520 27
 510 000c C98F     		or	a5,a5,a0
 511              		.loc 1 520 20
 512 000e 2322F788 		sw	a5,-1916(a4)
 521:C:/Users/stapi/OneDrive/Desktop/GD32VW553/GD32VW55X_Wifi_BLE_SDK/GD32VW55x_RELEASE_V1.0.2/MSDK/plf/GD32VW55x_standard_peripheral/Source\gd32vw55x_rcu.c **** }
 513              		.loc 1 521 1
 514 0012 8280     		ret
 515              		.cfi_endproc
 516              	.LFE388:
 518              		.section	.text.rcu_rtc_clock_config,"ax",@progbits
 519              		.align	1
 520              		.globl	rcu_rtc_clock_config
 522              	rcu_rtc_clock_config:
 523              	.LFB389:
 522:C:/Users/stapi/OneDrive/Desktop/GD32VW553/GD32VW55X_Wifi_BLE_SDK/GD32VW55x_RELEASE_V1.0.2/MSDK/plf/GD32VW55x_standard_peripheral/Source\gd32vw55x_rcu.c **** 
 523:C:/Users/stapi/OneDrive/Desktop/GD32VW553/GD32VW55X_Wifi_BLE_SDK/GD32VW55x_RELEASE_V1.0.2/MSDK/plf/GD32VW55x_standard_peripheral/Source\gd32vw55x_rcu.c **** /*!
 524:C:/Users/stapi/OneDrive/Desktop/GD32VW553/GD32VW55X_Wifi_BLE_SDK/GD32VW55x_RELEASE_V1.0.2/MSDK/plf/GD32VW55x_standard_peripheral/Source\gd32vw55x_rcu.c ****     \brief      configure the RTC clock source selection
 525:C:/Users/stapi/OneDrive/Desktop/GD32VW553/GD32VW55X_Wifi_BLE_SDK/GD32VW55x_RELEASE_V1.0.2/MSDK/plf/GD32VW55x_standard_peripheral/Source\gd32vw55x_rcu.c ****     \param[in]  rtc_clock_source: RTC clock source selection
 526:C:/Users/stapi/OneDrive/Desktop/GD32VW553/GD32VW55X_Wifi_BLE_SDK/GD32VW55x_RELEASE_V1.0.2/MSDK/plf/GD32VW55x_standard_peripheral/Source\gd32vw55x_rcu.c ****                 only one parameter can be selected which is shown as below:
 527:C:/Users/stapi/OneDrive/Desktop/GD32VW553/GD32VW55X_Wifi_BLE_SDK/GD32VW55x_RELEASE_V1.0.2/MSDK/plf/GD32VW55x_standard_peripheral/Source\gd32vw55x_rcu.c ****       \arg        RCU_RTCSRC_NONE: no clock selected
 528:C:/Users/stapi/OneDrive/Desktop/GD32VW553/GD32VW55X_Wifi_BLE_SDK/GD32VW55x_RELEASE_V1.0.2/MSDK/plf/GD32VW55x_standard_peripheral/Source\gd32vw55x_rcu.c ****       \arg        RCU_RTCSRC_LXTAL: CK_LXTAL selected as RTC source clock
 529:C:/Users/stapi/OneDrive/Desktop/GD32VW553/GD32VW55X_Wifi_BLE_SDK/GD32VW55x_RELEASE_V1.0.2/MSDK/plf/GD32VW55x_standard_peripheral/Source\gd32vw55x_rcu.c ****       \arg        RCU_RTCSRC_IRC32K: CK_IRC32K selected as RTC source clock
 530:C:/Users/stapi/OneDrive/Desktop/GD32VW553/GD32VW55X_Wifi_BLE_SDK/GD32VW55x_RELEASE_V1.0.2/MSDK/plf/GD32VW55x_standard_peripheral/Source\gd32vw55x_rcu.c ****       \arg        RCU_RTCSRC_HXTAL_DIV_RTCDIV: CK_HXTAL/RTCDIV selected as RTC source clock
 531:C:/Users/stapi/OneDrive/Desktop/GD32VW553/GD32VW55X_Wifi_BLE_SDK/GD32VW55x_RELEASE_V1.0.2/MSDK/plf/GD32VW55x_standard_peripheral/Source\gd32vw55x_rcu.c ****     \param[out] none
 532:C:/Users/stapi/OneDrive/Desktop/GD32VW553/GD32VW55X_Wifi_BLE_SDK/GD32VW55x_RELEASE_V1.0.2/MSDK/plf/GD32VW55x_standard_peripheral/Source\gd32vw55x_rcu.c ****     \retval     none
 533:C:/Users/stapi/OneDrive/Desktop/GD32VW553/GD32VW55X_Wifi_BLE_SDK/GD32VW55x_RELEASE_V1.0.2/MSDK/plf/GD32VW55x_standard_peripheral/Source\gd32vw55x_rcu.c **** */
 534:C:/Users/stapi/OneDrive/Desktop/GD32VW553/GD32VW55X_Wifi_BLE_SDK/GD32VW55x_RELEASE_V1.0.2/MSDK/plf/GD32VW55x_standard_peripheral/Source\gd32vw55x_rcu.c **** void rcu_rtc_clock_config(uint32_t rtc_clock_source)
 535:C:/Users/stapi/OneDrive/Desktop/GD32VW553/GD32VW55X_Wifi_BLE_SDK/GD32VW55x_RELEASE_V1.0.2/MSDK/plf/GD32VW55x_standard_peripheral/Source\gd32vw55x_rcu.c **** {
 524              		.loc 1 535 1 is_stmt 1
 525              		.cfi_startproc
 526              	.LVL28:
 536:C:/Users/stapi/OneDrive/Desktop/GD32VW553/GD32VW55X_Wifi_BLE_SDK/GD32VW55x_RELEASE_V1.0.2/MSDK/plf/GD32VW55x_standard_peripheral/Source\gd32vw55x_rcu.c ****     uint32_t reg;
 527              		.loc 1 536 5
 537:C:/Users/stapi/OneDrive/Desktop/GD32VW553/GD32VW55X_Wifi_BLE_SDK/GD32VW55x_RELEASE_V1.0.2/MSDK/plf/GD32VW55x_standard_peripheral/Source\gd32vw55x_rcu.c **** 
 538:C:/Users/stapi/OneDrive/Desktop/GD32VW553/GD32VW55X_Wifi_BLE_SDK/GD32VW55x_RELEASE_V1.0.2/MSDK/plf/GD32VW55x_standard_peripheral/Source\gd32vw55x_rcu.c ****     reg = RCU_BDCTL;
 528              		.loc 1 538 5
 529              		.loc 1 538 9 is_stmt 0
 530 0000 37470240 		li	a4,1073889280
 531 0004 83270787 		lw	a5,-1936(a4)
 532              	.LVL29:
 539:C:/Users/stapi/OneDrive/Desktop/GD32VW553/GD32VW55X_Wifi_BLE_SDK/GD32VW55x_RELEASE_V1.0.2/MSDK/plf/GD32VW55x_standard_peripheral/Source\gd32vw55x_rcu.c ****     /* reset the RTCSRC bits and set according to rtc_clock_source */
 540:C:/Users/stapi/OneDrive/Desktop/GD32VW553/GD32VW55X_Wifi_BLE_SDK/GD32VW55x_RELEASE_V1.0.2/MSDK/plf/GD32VW55x_standard_peripheral/Source\gd32vw55x_rcu.c ****     reg &= ~RCU_BDCTL_RTCSRC;
 533              		.loc 1 540 5 is_stmt 1
 541:C:/Users/stapi/OneDrive/Desktop/GD32VW553/GD32VW55X_Wifi_BLE_SDK/GD32VW55x_RELEASE_V1.0.2/MSDK/plf/GD32VW55x_standard_peripheral/Source\gd32vw55x_rcu.c ****     RCU_BDCTL = (reg | rtc_clock_source);
 534              		.loc 1 541 5
 540:C:/Users/stapi/OneDrive/Desktop/GD32VW553/GD32VW55X_Wifi_BLE_SDK/GD32VW55x_RELEASE_V1.0.2/MSDK/plf/GD32VW55x_standard_peripheral/Source\gd32vw55x_rcu.c ****     RCU_BDCTL = (reg | rtc_clock_source);
 535              		.loc 1 540 9 is_stmt 0
 536 0008 93F7F7CF 		andi	a5,a5,-769
 537              	.LVL30:
 538              		.loc 1 541 22
 539 000c C98F     		or	a5,a5,a0
 540              	.LVL31:
 541              		.loc 1 541 15
 542 000e 2328F786 		sw	a5,-1936(a4)
 542:C:/Users/stapi/OneDrive/Desktop/GD32VW553/GD32VW55X_Wifi_BLE_SDK/GD32VW55x_RELEASE_V1.0.2/MSDK/plf/GD32VW55x_standard_peripheral/Source\gd32vw55x_rcu.c **** }
 543              		.loc 1 542 1
 544 0012 8280     		ret
 545              		.cfi_endproc
 546              	.LFE389:
 548              		.section	.text.rcu_rtc_div_config,"ax",@progbits
 549              		.align	1
 550              		.globl	rcu_rtc_div_config
 552              	rcu_rtc_div_config:
 553              	.LFB390:
 543:C:/Users/stapi/OneDrive/Desktop/GD32VW553/GD32VW55X_Wifi_BLE_SDK/GD32VW55x_RELEASE_V1.0.2/MSDK/plf/GD32VW55x_standard_peripheral/Source\gd32vw55x_rcu.c **** 
 544:C:/Users/stapi/OneDrive/Desktop/GD32VW553/GD32VW55X_Wifi_BLE_SDK/GD32VW55x_RELEASE_V1.0.2/MSDK/plf/GD32VW55x_standard_peripheral/Source\gd32vw55x_rcu.c **** /*!
 545:C:/Users/stapi/OneDrive/Desktop/GD32VW553/GD32VW55X_Wifi_BLE_SDK/GD32VW55x_RELEASE_V1.0.2/MSDK/plf/GD32VW55x_standard_peripheral/Source\gd32vw55x_rcu.c ****     \brief      configure the frequency division of RTC clock when HXTAL was selected as its clock 
 546:C:/Users/stapi/OneDrive/Desktop/GD32VW553/GD32VW55X_Wifi_BLE_SDK/GD32VW55x_RELEASE_V1.0.2/MSDK/plf/GD32VW55x_standard_peripheral/Source\gd32vw55x_rcu.c ****     \param[in]  rtc_div: RTC clock frequency division
 547:C:/Users/stapi/OneDrive/Desktop/GD32VW553/GD32VW55X_Wifi_BLE_SDK/GD32VW55x_RELEASE_V1.0.2/MSDK/plf/GD32VW55x_standard_peripheral/Source\gd32vw55x_rcu.c ****                 only one parameter can be selected which is shown as below:
 548:C:/Users/stapi/OneDrive/Desktop/GD32VW553/GD32VW55X_Wifi_BLE_SDK/GD32VW55x_RELEASE_V1.0.2/MSDK/plf/GD32VW55x_standard_peripheral/Source\gd32vw55x_rcu.c ****       \arg        RCU_RTC_HXTAL_DIVx: RTCDIV clock select CK_HXTAL/x, x = 1 2....31
 549:C:/Users/stapi/OneDrive/Desktop/GD32VW553/GD32VW55X_Wifi_BLE_SDK/GD32VW55x_RELEASE_V1.0.2/MSDK/plf/GD32VW55x_standard_peripheral/Source\gd32vw55x_rcu.c ****     \param[out] none
 550:C:/Users/stapi/OneDrive/Desktop/GD32VW553/GD32VW55X_Wifi_BLE_SDK/GD32VW55x_RELEASE_V1.0.2/MSDK/plf/GD32VW55x_standard_peripheral/Source\gd32vw55x_rcu.c ****     \retval     none
 551:C:/Users/stapi/OneDrive/Desktop/GD32VW553/GD32VW55X_Wifi_BLE_SDK/GD32VW55x_RELEASE_V1.0.2/MSDK/plf/GD32VW55x_standard_peripheral/Source\gd32vw55x_rcu.c **** */
 552:C:/Users/stapi/OneDrive/Desktop/GD32VW553/GD32VW55X_Wifi_BLE_SDK/GD32VW55x_RELEASE_V1.0.2/MSDK/plf/GD32VW55x_standard_peripheral/Source\gd32vw55x_rcu.c **** void rcu_rtc_div_config(uint32_t rtc_div)
 553:C:/Users/stapi/OneDrive/Desktop/GD32VW553/GD32VW55X_Wifi_BLE_SDK/GD32VW55x_RELEASE_V1.0.2/MSDK/plf/GD32VW55x_standard_peripheral/Source\gd32vw55x_rcu.c **** {
 554              		.loc 1 553 1 is_stmt 1
 555              		.cfi_startproc
 556              	.LVL32:
 554:C:/Users/stapi/OneDrive/Desktop/GD32VW553/GD32VW55X_Wifi_BLE_SDK/GD32VW55x_RELEASE_V1.0.2/MSDK/plf/GD32VW55x_standard_peripheral/Source\gd32vw55x_rcu.c ****     uint32_t reg;
 557              		.loc 1 554 5
 555:C:/Users/stapi/OneDrive/Desktop/GD32VW553/GD32VW55X_Wifi_BLE_SDK/GD32VW55x_RELEASE_V1.0.2/MSDK/plf/GD32VW55x_standard_peripheral/Source\gd32vw55x_rcu.c ****     reg = RCU_CFG0;
 558              		.loc 1 555 5
 559              		.loc 1 555 9 is_stmt 0
 560 0000 B7460240 		li	a3,1073889280
 561 0004 83A78680 		lw	a5,-2040(a3)
 562              	.LVL33:
 556:C:/Users/stapi/OneDrive/Desktop/GD32VW553/GD32VW55X_Wifi_BLE_SDK/GD32VW55x_RELEASE_V1.0.2/MSDK/plf/GD32VW55x_standard_peripheral/Source\gd32vw55x_rcu.c ****     /* reset the RTCDIV bits and set according to rtc_div value */
 557:C:/Users/stapi/OneDrive/Desktop/GD32VW553/GD32VW55X_Wifi_BLE_SDK/GD32VW55x_RELEASE_V1.0.2/MSDK/plf/GD32VW55x_standard_peripheral/Source\gd32vw55x_rcu.c ****     reg &= ~RCU_CFG0_RTCDIV;
 563              		.loc 1 557 5 is_stmt 1
 558:C:/Users/stapi/OneDrive/Desktop/GD32VW553/GD32VW55X_Wifi_BLE_SDK/GD32VW55x_RELEASE_V1.0.2/MSDK/plf/GD32VW55x_standard_peripheral/Source\gd32vw55x_rcu.c ****     RCU_CFG0 = (reg | rtc_div);
 564              		.loc 1 558 5
 557:C:/Users/stapi/OneDrive/Desktop/GD32VW553/GD32VW55X_Wifi_BLE_SDK/GD32VW55x_RELEASE_V1.0.2/MSDK/plf/GD32VW55x_standard_peripheral/Source\gd32vw55x_rcu.c ****     RCU_CFG0 = (reg | rtc_div);
 565              		.loc 1 557 9 is_stmt 0
 566 0008 3707E1FF 		li	a4,-2031616
 567 000c 7D17     		addi	a4,a4,-1
 568 000e F98F     		and	a5,a5,a4
 569              	.LVL34:
 570              		.loc 1 558 21
 571 0010 C98F     		or	a5,a5,a0
 572              		.loc 1 558 14
 573 0012 23A4F680 		sw	a5,-2040(a3)
 559:C:/Users/stapi/OneDrive/Desktop/GD32VW553/GD32VW55X_Wifi_BLE_SDK/GD32VW55x_RELEASE_V1.0.2/MSDK/plf/GD32VW55x_standard_peripheral/Source\gd32vw55x_rcu.c **** }
 574              		.loc 1 559 1
 575 0016 8280     		ret
 576              		.cfi_endproc
 577              	.LFE390:
 579              		.section	.text.rcu_trng_div_config,"ax",@progbits
 580              		.align	1
 581              		.globl	rcu_trng_div_config
 583              	rcu_trng_div_config:
 584              	.LFB391:
 560:C:/Users/stapi/OneDrive/Desktop/GD32VW553/GD32VW55X_Wifi_BLE_SDK/GD32VW55x_RELEASE_V1.0.2/MSDK/plf/GD32VW55x_standard_peripheral/Source\gd32vw55x_rcu.c **** 
 561:C:/Users/stapi/OneDrive/Desktop/GD32VW553/GD32VW55X_Wifi_BLE_SDK/GD32VW55x_RELEASE_V1.0.2/MSDK/plf/GD32VW55x_standard_peripheral/Source\gd32vw55x_rcu.c **** /*!
 562:C:/Users/stapi/OneDrive/Desktop/GD32VW553/GD32VW55X_Wifi_BLE_SDK/GD32VW55x_RELEASE_V1.0.2/MSDK/plf/GD32VW55x_standard_peripheral/Source\gd32vw55x_rcu.c ****     \brief      configure the frequency division of the TRNG source clock
 563:C:/Users/stapi/OneDrive/Desktop/GD32VW553/GD32VW55X_Wifi_BLE_SDK/GD32VW55x_RELEASE_V1.0.2/MSDK/plf/GD32VW55x_standard_peripheral/Source\gd32vw55x_rcu.c ****     \param[in]  trng_div: TRNG clock frequency division
 564:C:/Users/stapi/OneDrive/Desktop/GD32VW553/GD32VW55X_Wifi_BLE_SDK/GD32VW55x_RELEASE_V1.0.2/MSDK/plf/GD32VW55x_standard_peripheral/Source\gd32vw55x_rcu.c ****                 only one parameter can be selected which is shown as below:
 565:C:/Users/stapi/OneDrive/Desktop/GD32VW553/GD32VW55X_Wifi_BLE_SDK/GD32VW55x_RELEASE_V1.0.2/MSDK/plf/GD32VW55x_standard_peripheral/Source\gd32vw55x_rcu.c ****       \arg        RCU_TRNG_DIVx: TRNG clock select x, x = 1....32
 566:C:/Users/stapi/OneDrive/Desktop/GD32VW553/GD32VW55X_Wifi_BLE_SDK/GD32VW55x_RELEASE_V1.0.2/MSDK/plf/GD32VW55x_standard_peripheral/Source\gd32vw55x_rcu.c ****     \param[out] none
 567:C:/Users/stapi/OneDrive/Desktop/GD32VW553/GD32VW55X_Wifi_BLE_SDK/GD32VW55x_RELEASE_V1.0.2/MSDK/plf/GD32VW55x_standard_peripheral/Source\gd32vw55x_rcu.c ****     \retval     none
 568:C:/Users/stapi/OneDrive/Desktop/GD32VW553/GD32VW55X_Wifi_BLE_SDK/GD32VW55x_RELEASE_V1.0.2/MSDK/plf/GD32VW55x_standard_peripheral/Source\gd32vw55x_rcu.c **** */
 569:C:/Users/stapi/OneDrive/Desktop/GD32VW553/GD32VW55X_Wifi_BLE_SDK/GD32VW55x_RELEASE_V1.0.2/MSDK/plf/GD32VW55x_standard_peripheral/Source\gd32vw55x_rcu.c **** void rcu_trng_div_config(uint32_t trng_div)
 570:C:/Users/stapi/OneDrive/Desktop/GD32VW553/GD32VW55X_Wifi_BLE_SDK/GD32VW55x_RELEASE_V1.0.2/MSDK/plf/GD32VW55x_standard_peripheral/Source\gd32vw55x_rcu.c **** {
 585              		.loc 1 570 1 is_stmt 1
 586              		.cfi_startproc
 587              	.LVL35:
 571:C:/Users/stapi/OneDrive/Desktop/GD32VW553/GD32VW55X_Wifi_BLE_SDK/GD32VW55x_RELEASE_V1.0.2/MSDK/plf/GD32VW55x_standard_peripheral/Source\gd32vw55x_rcu.c ****     uint32_t reg;
 588              		.loc 1 571 5
 572:C:/Users/stapi/OneDrive/Desktop/GD32VW553/GD32VW55X_Wifi_BLE_SDK/GD32VW55x_RELEASE_V1.0.2/MSDK/plf/GD32VW55x_standard_peripheral/Source\gd32vw55x_rcu.c ****     reg = RCU_ADDCTL;
 589              		.loc 1 572 5
 590              		.loc 1 572 9 is_stmt 0
 591 0000 37470240 		li	a4,1073889280
 592 0004 83270789 		lw	a5,-1904(a4)
 593              	.LVL36:
 573:C:/Users/stapi/OneDrive/Desktop/GD32VW553/GD32VW55X_Wifi_BLE_SDK/GD32VW55x_RELEASE_V1.0.2/MSDK/plf/GD32VW55x_standard_peripheral/Source\gd32vw55x_rcu.c ****     /* reset the TRNGCKDIV bits and set according to trng_div value */
 574:C:/Users/stapi/OneDrive/Desktop/GD32VW553/GD32VW55X_Wifi_BLE_SDK/GD32VW55x_RELEASE_V1.0.2/MSDK/plf/GD32VW55x_standard_peripheral/Source\gd32vw55x_rcu.c ****     reg &= ~RCU_ADDCTL_TRNGCKDIV;
 594              		.loc 1 574 5 is_stmt 1
 575:C:/Users/stapi/OneDrive/Desktop/GD32VW553/GD32VW55X_Wifi_BLE_SDK/GD32VW55x_RELEASE_V1.0.2/MSDK/plf/GD32VW55x_standard_peripheral/Source\gd32vw55x_rcu.c ****     RCU_ADDCTL = (reg | trng_div);
 595              		.loc 1 575 5
 574:C:/Users/stapi/OneDrive/Desktop/GD32VW553/GD32VW55X_Wifi_BLE_SDK/GD32VW55x_RELEASE_V1.0.2/MSDK/plf/GD32VW55x_standard_peripheral/Source\gd32vw55x_rcu.c ****     RCU_ADDCTL = (reg | trng_div);
 596              		.loc 1 574 9 is_stmt 0
 597 0008 93F717FC 		andi	a5,a5,-63
 598              	.LVL37:
 599              		.loc 1 575 23
 600 000c C98F     		or	a5,a5,a0
 601              	.LVL38:
 602              		.loc 1 575 16
 603 000e 2328F788 		sw	a5,-1904(a4)
 576:C:/Users/stapi/OneDrive/Desktop/GD32VW553/GD32VW55X_Wifi_BLE_SDK/GD32VW55x_RELEASE_V1.0.2/MSDK/plf/GD32VW55x_standard_peripheral/Source\gd32vw55x_rcu.c **** }
 604              		.loc 1 576 1
 605 0012 8280     		ret
 606              		.cfi_endproc
 607              	.LFE391:
 609              		.section	.text.rcu_i2c0_clock_config,"ax",@progbits
 610              		.align	1
 611              		.globl	rcu_i2c0_clock_config
 613              	rcu_i2c0_clock_config:
 614              	.LFB392:
 577:C:/Users/stapi/OneDrive/Desktop/GD32VW553/GD32VW55X_Wifi_BLE_SDK/GD32VW55x_RELEASE_V1.0.2/MSDK/plf/GD32VW55x_standard_peripheral/Source\gd32vw55x_rcu.c **** 
 578:C:/Users/stapi/OneDrive/Desktop/GD32VW553/GD32VW55X_Wifi_BLE_SDK/GD32VW55x_RELEASE_V1.0.2/MSDK/plf/GD32VW55x_standard_peripheral/Source\gd32vw55x_rcu.c **** /*!
 579:C:/Users/stapi/OneDrive/Desktop/GD32VW553/GD32VW55X_Wifi_BLE_SDK/GD32VW55x_RELEASE_V1.0.2/MSDK/plf/GD32VW55x_standard_peripheral/Source\gd32vw55x_rcu.c ****     \brief      configure the I2C0 clock source selection
 580:C:/Users/stapi/OneDrive/Desktop/GD32VW553/GD32VW55X_Wifi_BLE_SDK/GD32VW55x_RELEASE_V1.0.2/MSDK/plf/GD32VW55x_standard_peripheral/Source\gd32vw55x_rcu.c ****     \param[in]  i2c0_clock_source: I2C0 clock source selection
 581:C:/Users/stapi/OneDrive/Desktop/GD32VW553/GD32VW55X_Wifi_BLE_SDK/GD32VW55x_RELEASE_V1.0.2/MSDK/plf/GD32VW55x_standard_peripheral/Source\gd32vw55x_rcu.c ****                 only one parameter can be selected which is shown as below:
 582:C:/Users/stapi/OneDrive/Desktop/GD32VW553/GD32VW55X_Wifi_BLE_SDK/GD32VW55x_RELEASE_V1.0.2/MSDK/plf/GD32VW55x_standard_peripheral/Source\gd32vw55x_rcu.c ****       \arg        RCU_I2C0SRC_CKAPB1: CK_APB1 selected as I2C0 source clock
 583:C:/Users/stapi/OneDrive/Desktop/GD32VW553/GD32VW55X_Wifi_BLE_SDK/GD32VW55x_RELEASE_V1.0.2/MSDK/plf/GD32VW55x_standard_peripheral/Source\gd32vw55x_rcu.c ****       \arg        RCU_I2C0SRC_CKSYS: CK_SYS selected as I2C0 source clock
 584:C:/Users/stapi/OneDrive/Desktop/GD32VW553/GD32VW55X_Wifi_BLE_SDK/GD32VW55x_RELEASE_V1.0.2/MSDK/plf/GD32VW55x_standard_peripheral/Source\gd32vw55x_rcu.c ****       \arg        RCU_I2C0SRC_IRC16M: CK_IRC16M selected as I2C0 source clock
 585:C:/Users/stapi/OneDrive/Desktop/GD32VW553/GD32VW55X_Wifi_BLE_SDK/GD32VW55x_RELEASE_V1.0.2/MSDK/plf/GD32VW55x_standard_peripheral/Source\gd32vw55x_rcu.c ****     \param[out] none
 586:C:/Users/stapi/OneDrive/Desktop/GD32VW553/GD32VW55X_Wifi_BLE_SDK/GD32VW55x_RELEASE_V1.0.2/MSDK/plf/GD32VW55x_standard_peripheral/Source\gd32vw55x_rcu.c ****     \retval     none
 587:C:/Users/stapi/OneDrive/Desktop/GD32VW553/GD32VW55X_Wifi_BLE_SDK/GD32VW55x_RELEASE_V1.0.2/MSDK/plf/GD32VW55x_standard_peripheral/Source\gd32vw55x_rcu.c **** */
 588:C:/Users/stapi/OneDrive/Desktop/GD32VW553/GD32VW55X_Wifi_BLE_SDK/GD32VW55x_RELEASE_V1.0.2/MSDK/plf/GD32VW55x_standard_peripheral/Source\gd32vw55x_rcu.c **** void rcu_i2c0_clock_config(uint32_t i2c0_clock_source)
 589:C:/Users/stapi/OneDrive/Desktop/GD32VW553/GD32VW55X_Wifi_BLE_SDK/GD32VW55x_RELEASE_V1.0.2/MSDK/plf/GD32VW55x_standard_peripheral/Source\gd32vw55x_rcu.c **** {
 615              		.loc 1 589 1 is_stmt 1
 616              		.cfi_startproc
 617              	.LVL39:
 590:C:/Users/stapi/OneDrive/Desktop/GD32VW553/GD32VW55X_Wifi_BLE_SDK/GD32VW55x_RELEASE_V1.0.2/MSDK/plf/GD32VW55x_standard_peripheral/Source\gd32vw55x_rcu.c ****     uint32_t reg;
 618              		.loc 1 590 5
 591:C:/Users/stapi/OneDrive/Desktop/GD32VW553/GD32VW55X_Wifi_BLE_SDK/GD32VW55x_RELEASE_V1.0.2/MSDK/plf/GD32VW55x_standard_peripheral/Source\gd32vw55x_rcu.c **** 
 592:C:/Users/stapi/OneDrive/Desktop/GD32VW553/GD32VW55X_Wifi_BLE_SDK/GD32VW55x_RELEASE_V1.0.2/MSDK/plf/GD32VW55x_standard_peripheral/Source\gd32vw55x_rcu.c ****     reg = RCU_CFG1;
 619              		.loc 1 592 5
 620              		.loc 1 592 9 is_stmt 0
 621 0000 B7460240 		li	a3,1073889280
 622 0004 83A7C688 		lw	a5,-1908(a3)
 623              	.LVL40:
 593:C:/Users/stapi/OneDrive/Desktop/GD32VW553/GD32VW55X_Wifi_BLE_SDK/GD32VW55x_RELEASE_V1.0.2/MSDK/plf/GD32VW55x_standard_peripheral/Source\gd32vw55x_rcu.c ****     /* reset the I2C0SEL bit and set according to i2c0_clock_source */
 594:C:/Users/stapi/OneDrive/Desktop/GD32VW553/GD32VW55X_Wifi_BLE_SDK/GD32VW55x_RELEASE_V1.0.2/MSDK/plf/GD32VW55x_standard_peripheral/Source\gd32vw55x_rcu.c ****     reg &= ~RCU_CFG1_I2C0SEL;
 624              		.loc 1 594 5 is_stmt 1
 595:C:/Users/stapi/OneDrive/Desktop/GD32VW553/GD32VW55X_Wifi_BLE_SDK/GD32VW55x_RELEASE_V1.0.2/MSDK/plf/GD32VW55x_standard_peripheral/Source\gd32vw55x_rcu.c ****     RCU_CFG1 = (reg | i2c0_clock_source);
 625              		.loc 1 595 5
 594:C:/Users/stapi/OneDrive/Desktop/GD32VW553/GD32VW55X_Wifi_BLE_SDK/GD32VW55x_RELEASE_V1.0.2/MSDK/plf/GD32VW55x_standard_peripheral/Source\gd32vw55x_rcu.c ****     RCU_CFG1 = (reg | i2c0_clock_source);
 626              		.loc 1 594 9 is_stmt 0
 627 0008 370700F4 		li	a4,-201326592
 628 000c 7D17     		addi	a4,a4,-1
 629 000e F98F     		and	a5,a5,a4
 630              	.LVL41:
 631              		.loc 1 595 21
 632 0010 C98F     		or	a5,a5,a0
 633              		.loc 1 595 14
 634 0012 23A6F688 		sw	a5,-1908(a3)
 596:C:/Users/stapi/OneDrive/Desktop/GD32VW553/GD32VW55X_Wifi_BLE_SDK/GD32VW55x_RELEASE_V1.0.2/MSDK/plf/GD32VW55x_standard_peripheral/Source\gd32vw55x_rcu.c **** }
 635              		.loc 1 596 1
 636 0016 8280     		ret
 637              		.cfi_endproc
 638              	.LFE392:
 640              		.section	.text.rcu_usart0_clock_config,"ax",@progbits
 641              		.align	1
 642              		.globl	rcu_usart0_clock_config
 644              	rcu_usart0_clock_config:
 645              	.LFB393:
 597:C:/Users/stapi/OneDrive/Desktop/GD32VW553/GD32VW55X_Wifi_BLE_SDK/GD32VW55x_RELEASE_V1.0.2/MSDK/plf/GD32VW55x_standard_peripheral/Source\gd32vw55x_rcu.c **** 
 598:C:/Users/stapi/OneDrive/Desktop/GD32VW553/GD32VW55X_Wifi_BLE_SDK/GD32VW55x_RELEASE_V1.0.2/MSDK/plf/GD32VW55x_standard_peripheral/Source\gd32vw55x_rcu.c **** /*!
 599:C:/Users/stapi/OneDrive/Desktop/GD32VW553/GD32VW55X_Wifi_BLE_SDK/GD32VW55x_RELEASE_V1.0.2/MSDK/plf/GD32VW55x_standard_peripheral/Source\gd32vw55x_rcu.c ****     \brief      configure the USART0 clock source selection
 600:C:/Users/stapi/OneDrive/Desktop/GD32VW553/GD32VW55X_Wifi_BLE_SDK/GD32VW55x_RELEASE_V1.0.2/MSDK/plf/GD32VW55x_standard_peripheral/Source\gd32vw55x_rcu.c ****     \param[in]  usart0_clock_source: USART0 clock source selection
 601:C:/Users/stapi/OneDrive/Desktop/GD32VW553/GD32VW55X_Wifi_BLE_SDK/GD32VW55x_RELEASE_V1.0.2/MSDK/plf/GD32VW55x_standard_peripheral/Source\gd32vw55x_rcu.c ****                 only one parameter can be selected which is shown as below:
 602:C:/Users/stapi/OneDrive/Desktop/GD32VW553/GD32VW55X_Wifi_BLE_SDK/GD32VW55x_RELEASE_V1.0.2/MSDK/plf/GD32VW55x_standard_peripheral/Source\gd32vw55x_rcu.c ****       \arg        RCU_USART0SRC_CKAPB1: CK_APB1 selected as USART0 source clock
 603:C:/Users/stapi/OneDrive/Desktop/GD32VW553/GD32VW55X_Wifi_BLE_SDK/GD32VW55x_RELEASE_V1.0.2/MSDK/plf/GD32VW55x_standard_peripheral/Source\gd32vw55x_rcu.c ****       \arg        RCU_USART0SRC_CKSYS: CK_SYS selected as USART0 source clock
 604:C:/Users/stapi/OneDrive/Desktop/GD32VW553/GD32VW55X_Wifi_BLE_SDK/GD32VW55x_RELEASE_V1.0.2/MSDK/plf/GD32VW55x_standard_peripheral/Source\gd32vw55x_rcu.c ****       \arg        RCU_USART0SRC_LXTAL: CK_LXTAL selected as USART0 source clock
 605:C:/Users/stapi/OneDrive/Desktop/GD32VW553/GD32VW55X_Wifi_BLE_SDK/GD32VW55x_RELEASE_V1.0.2/MSDK/plf/GD32VW55x_standard_peripheral/Source\gd32vw55x_rcu.c ****       \arg        RCU_USART0SRC_IRC16M: CK_IRC16M selected as USART0 source clock
 606:C:/Users/stapi/OneDrive/Desktop/GD32VW553/GD32VW55X_Wifi_BLE_SDK/GD32VW55x_RELEASE_V1.0.2/MSDK/plf/GD32VW55x_standard_peripheral/Source\gd32vw55x_rcu.c ****     \param[out] none
 607:C:/Users/stapi/OneDrive/Desktop/GD32VW553/GD32VW55X_Wifi_BLE_SDK/GD32VW55x_RELEASE_V1.0.2/MSDK/plf/GD32VW55x_standard_peripheral/Source\gd32vw55x_rcu.c ****     \retval     none
 608:C:/Users/stapi/OneDrive/Desktop/GD32VW553/GD32VW55X_Wifi_BLE_SDK/GD32VW55x_RELEASE_V1.0.2/MSDK/plf/GD32VW55x_standard_peripheral/Source\gd32vw55x_rcu.c **** */
 609:C:/Users/stapi/OneDrive/Desktop/GD32VW553/GD32VW55X_Wifi_BLE_SDK/GD32VW55x_RELEASE_V1.0.2/MSDK/plf/GD32VW55x_standard_peripheral/Source\gd32vw55x_rcu.c **** void rcu_usart0_clock_config(uint32_t usart0_clock_source)
 610:C:/Users/stapi/OneDrive/Desktop/GD32VW553/GD32VW55X_Wifi_BLE_SDK/GD32VW55x_RELEASE_V1.0.2/MSDK/plf/GD32VW55x_standard_peripheral/Source\gd32vw55x_rcu.c **** {
 646              		.loc 1 610 1 is_stmt 1
 647              		.cfi_startproc
 648              	.LVL42:
 611:C:/Users/stapi/OneDrive/Desktop/GD32VW553/GD32VW55X_Wifi_BLE_SDK/GD32VW55x_RELEASE_V1.0.2/MSDK/plf/GD32VW55x_standard_peripheral/Source\gd32vw55x_rcu.c ****     uint32_t reg;
 649              		.loc 1 611 5
 612:C:/Users/stapi/OneDrive/Desktop/GD32VW553/GD32VW55X_Wifi_BLE_SDK/GD32VW55x_RELEASE_V1.0.2/MSDK/plf/GD32VW55x_standard_peripheral/Source\gd32vw55x_rcu.c **** 
 613:C:/Users/stapi/OneDrive/Desktop/GD32VW553/GD32VW55X_Wifi_BLE_SDK/GD32VW55x_RELEASE_V1.0.2/MSDK/plf/GD32VW55x_standard_peripheral/Source\gd32vw55x_rcu.c ****     reg = RCU_CFG1;
 650              		.loc 1 613 5
 651              		.loc 1 613 9 is_stmt 0
 652 0000 37470240 		li	a4,1073889280
 653 0004 8327C788 		lw	a5,-1908(a4)
 654              	.LVL43:
 614:C:/Users/stapi/OneDrive/Desktop/GD32VW553/GD32VW55X_Wifi_BLE_SDK/GD32VW55x_RELEASE_V1.0.2/MSDK/plf/GD32VW55x_standard_peripheral/Source\gd32vw55x_rcu.c ****     /* reset the USART0SEL bit and set according to usart0_clock_source */
 615:C:/Users/stapi/OneDrive/Desktop/GD32VW553/GD32VW55X_Wifi_BLE_SDK/GD32VW55x_RELEASE_V1.0.2/MSDK/plf/GD32VW55x_standard_peripheral/Source\gd32vw55x_rcu.c ****     reg &= ~RCU_CFG1_USART0SEL;
 655              		.loc 1 615 5 is_stmt 1
 616:C:/Users/stapi/OneDrive/Desktop/GD32VW553/GD32VW55X_Wifi_BLE_SDK/GD32VW55x_RELEASE_V1.0.2/MSDK/plf/GD32VW55x_standard_peripheral/Source\gd32vw55x_rcu.c ****     RCU_CFG1 = (reg | usart0_clock_source);
 656              		.loc 1 616 5
 615:C:/Users/stapi/OneDrive/Desktop/GD32VW553/GD32VW55X_Wifi_BLE_SDK/GD32VW55x_RELEASE_V1.0.2/MSDK/plf/GD32VW55x_standard_peripheral/Source\gd32vw55x_rcu.c ****     RCU_CFG1 = (reg | usart0_clock_source);
 657              		.loc 1 615 9 is_stmt 0
 658 0008 8A07     		slli	a5,a5,2
 659              	.LVL44:
 660 000a 8983     		srli	a5,a5,2
 661              		.loc 1 616 21
 662 000c C98F     		or	a5,a5,a0
 663              		.loc 1 616 14
 664 000e 2326F788 		sw	a5,-1908(a4)
 617:C:/Users/stapi/OneDrive/Desktop/GD32VW553/GD32VW55X_Wifi_BLE_SDK/GD32VW55x_RELEASE_V1.0.2/MSDK/plf/GD32VW55x_standard_peripheral/Source\gd32vw55x_rcu.c **** }
 665              		.loc 1 617 1
 666 0012 8280     		ret
 667              		.cfi_endproc
 668              	.LFE393:
 670              		.section	.text.rcu_irc16m_div_config,"ax",@progbits
 671              		.align	1
 672              		.globl	rcu_irc16m_div_config
 674              	rcu_irc16m_div_config:
 675              	.LFB394:
 618:C:/Users/stapi/OneDrive/Desktop/GD32VW553/GD32VW55X_Wifi_BLE_SDK/GD32VW55x_RELEASE_V1.0.2/MSDK/plf/GD32VW55x_standard_peripheral/Source\gd32vw55x_rcu.c **** 
 619:C:/Users/stapi/OneDrive/Desktop/GD32VW553/GD32VW55X_Wifi_BLE_SDK/GD32VW55x_RELEASE_V1.0.2/MSDK/plf/GD32VW55x_standard_peripheral/Source\gd32vw55x_rcu.c **** /* configure IRC16M clock divider factor for system clock */
 620:C:/Users/stapi/OneDrive/Desktop/GD32VW553/GD32VW55X_Wifi_BLE_SDK/GD32VW55x_RELEASE_V1.0.2/MSDK/plf/GD32VW55x_standard_peripheral/Source\gd32vw55x_rcu.c **** /*!
 621:C:/Users/stapi/OneDrive/Desktop/GD32VW553/GD32VW55X_Wifi_BLE_SDK/GD32VW55x_RELEASE_V1.0.2/MSDK/plf/GD32VW55x_standard_peripheral/Source\gd32vw55x_rcu.c ****     \brief      configure IRC16M clock divider factor for system clock
 622:C:/Users/stapi/OneDrive/Desktop/GD32VW553/GD32VW55X_Wifi_BLE_SDK/GD32VW55x_RELEASE_V1.0.2/MSDK/plf/GD32VW55x_standard_peripheral/Source\gd32vw55x_rcu.c ****     \param[in]  irc16m_div: IRC16M clock divider factor for system clock
 623:C:/Users/stapi/OneDrive/Desktop/GD32VW553/GD32VW55X_Wifi_BLE_SDK/GD32VW55x_RELEASE_V1.0.2/MSDK/plf/GD32VW55x_standard_peripheral/Source\gd32vw55x_rcu.c ****                 only one parameter can be selected which is shown as below:
 624:C:/Users/stapi/OneDrive/Desktop/GD32VW553/GD32VW55X_Wifi_BLE_SDK/GD32VW55x_RELEASE_V1.0.2/MSDK/plf/GD32VW55x_standard_peripheral/Source\gd32vw55x_rcu.c ****       \arg        RCU_IRC16M_DIVx(x=1,2,3,...,512): IRC16M clock divided by x for system clock
 625:C:/Users/stapi/OneDrive/Desktop/GD32VW553/GD32VW55X_Wifi_BLE_SDK/GD32VW55x_RELEASE_V1.0.2/MSDK/plf/GD32VW55x_standard_peripheral/Source\gd32vw55x_rcu.c ****     \param[out] none
 626:C:/Users/stapi/OneDrive/Desktop/GD32VW553/GD32VW55X_Wifi_BLE_SDK/GD32VW55x_RELEASE_V1.0.2/MSDK/plf/GD32VW55x_standard_peripheral/Source\gd32vw55x_rcu.c ****     \retval     none
 627:C:/Users/stapi/OneDrive/Desktop/GD32VW553/GD32VW55X_Wifi_BLE_SDK/GD32VW55x_RELEASE_V1.0.2/MSDK/plf/GD32VW55x_standard_peripheral/Source\gd32vw55x_rcu.c **** */
 628:C:/Users/stapi/OneDrive/Desktop/GD32VW553/GD32VW55X_Wifi_BLE_SDK/GD32VW55x_RELEASE_V1.0.2/MSDK/plf/GD32VW55x_standard_peripheral/Source\gd32vw55x_rcu.c **** void rcu_irc16m_div_config(uint32_t irc16m_div)
 629:C:/Users/stapi/OneDrive/Desktop/GD32VW553/GD32VW55X_Wifi_BLE_SDK/GD32VW55x_RELEASE_V1.0.2/MSDK/plf/GD32VW55x_standard_peripheral/Source\gd32vw55x_rcu.c **** {
 676              		.loc 1 629 1 is_stmt 1
 677              		.cfi_startproc
 678              	.LVL45:
 630:C:/Users/stapi/OneDrive/Desktop/GD32VW553/GD32VW55X_Wifi_BLE_SDK/GD32VW55x_RELEASE_V1.0.2/MSDK/plf/GD32VW55x_standard_peripheral/Source\gd32vw55x_rcu.c ****     uint32_t reg;
 679              		.loc 1 630 5
 631:C:/Users/stapi/OneDrive/Desktop/GD32VW553/GD32VW55X_Wifi_BLE_SDK/GD32VW55x_RELEASE_V1.0.2/MSDK/plf/GD32VW55x_standard_peripheral/Source\gd32vw55x_rcu.c ****     reg = RCU_CFG1;
 680              		.loc 1 631 5
 681              		.loc 1 631 9 is_stmt 0
 682 0000 37470240 		li	a4,1073889280
 683 0004 8327C788 		lw	a5,-1908(a4)
 684              	.LVL46:
 632:C:/Users/stapi/OneDrive/Desktop/GD32VW553/GD32VW55X_Wifi_BLE_SDK/GD32VW55x_RELEASE_V1.0.2/MSDK/plf/GD32VW55x_standard_peripheral/Source\gd32vw55x_rcu.c ****     /* reset the IRC16MDIV bits and set according to irc16m_div */
 633:C:/Users/stapi/OneDrive/Desktop/GD32VW553/GD32VW55X_Wifi_BLE_SDK/GD32VW55x_RELEASE_V1.0.2/MSDK/plf/GD32VW55x_standard_peripheral/Source\gd32vw55x_rcu.c ****     reg &= ~RCU_CFG1_IRC16MDIV;
 685              		.loc 1 633 5 is_stmt 1
 634:C:/Users/stapi/OneDrive/Desktop/GD32VW553/GD32VW55X_Wifi_BLE_SDK/GD32VW55x_RELEASE_V1.0.2/MSDK/plf/GD32VW55x_standard_peripheral/Source\gd32vw55x_rcu.c ****     RCU_CFG1 = (reg | irc16m_div);
 686              		.loc 1 634 5
 633:C:/Users/stapi/OneDrive/Desktop/GD32VW553/GD32VW55X_Wifi_BLE_SDK/GD32VW55x_RELEASE_V1.0.2/MSDK/plf/GD32VW55x_standard_peripheral/Source\gd32vw55x_rcu.c ****     RCU_CFG1 = (reg | irc16m_div);
 687              		.loc 1 633 9 is_stmt 0
 688 0008 93F707E0 		andi	a5,a5,-512
 689              	.LVL47:
 690              		.loc 1 634 21
 691 000c C98F     		or	a5,a5,a0
 692              	.LVL48:
 693              		.loc 1 634 14
 694 000e 2326F788 		sw	a5,-1908(a4)
 635:C:/Users/stapi/OneDrive/Desktop/GD32VW553/GD32VW55X_Wifi_BLE_SDK/GD32VW55x_RELEASE_V1.0.2/MSDK/plf/GD32VW55x_standard_peripheral/Source\gd32vw55x_rcu.c **** }
 695              		.loc 1 635 1
 696 0012 8280     		ret
 697              		.cfi_endproc
 698              	.LFE394:
 700              		.section	.text.rcu_timer_clock_prescaler_config,"ax",@progbits
 701              		.align	1
 702              		.globl	rcu_timer_clock_prescaler_config
 704              	rcu_timer_clock_prescaler_config:
 705              	.LFB395:
 636:C:/Users/stapi/OneDrive/Desktop/GD32VW553/GD32VW55X_Wifi_BLE_SDK/GD32VW55x_RELEASE_V1.0.2/MSDK/plf/GD32VW55x_standard_peripheral/Source\gd32vw55x_rcu.c **** 
 637:C:/Users/stapi/OneDrive/Desktop/GD32VW553/GD32VW55X_Wifi_BLE_SDK/GD32VW55x_RELEASE_V1.0.2/MSDK/plf/GD32VW55x_standard_peripheral/Source\gd32vw55x_rcu.c **** /*!
 638:C:/Users/stapi/OneDrive/Desktop/GD32VW553/GD32VW55X_Wifi_BLE_SDK/GD32VW55x_RELEASE_V1.0.2/MSDK/plf/GD32VW55x_standard_peripheral/Source\gd32vw55x_rcu.c ****     \brief      configure the TIMER clock prescaler selection
 639:C:/Users/stapi/OneDrive/Desktop/GD32VW553/GD32VW55X_Wifi_BLE_SDK/GD32VW55x_RELEASE_V1.0.2/MSDK/plf/GD32VW55x_standard_peripheral/Source\gd32vw55x_rcu.c ****     \param[in]  timer_clock_prescaler: TIMER clock selection
 640:C:/Users/stapi/OneDrive/Desktop/GD32VW553/GD32VW55X_Wifi_BLE_SDK/GD32VW55x_RELEASE_V1.0.2/MSDK/plf/GD32VW55x_standard_peripheral/Source\gd32vw55x_rcu.c ****                 only one parameter can be selected which is shown as below:
 641:C:/Users/stapi/OneDrive/Desktop/GD32VW553/GD32VW55X_Wifi_BLE_SDK/GD32VW55x_RELEASE_V1.0.2/MSDK/plf/GD32VW55x_standard_peripheral/Source\gd32vw55x_rcu.c ****       \arg        RCU_TIMER_PSC_MUL2: if APB1PSC/APB2PSC in RCU_CFG0 register is 0b0xx(CK_APBx = CK
 642:C:/Users/stapi/OneDrive/Desktop/GD32VW553/GD32VW55X_Wifi_BLE_SDK/GD32VW55x_RELEASE_V1.0.2/MSDK/plf/GD32VW55x_standard_peripheral/Source\gd32vw55x_rcu.c ****                                       or 0b100(CK_APBx = CK_AHB/2), the TIMER clock is equal to CK_
 643:C:/Users/stapi/OneDrive/Desktop/GD32VW553/GD32VW55X_Wifi_BLE_SDK/GD32VW55x_RELEASE_V1.0.2/MSDK/plf/GD32VW55x_standard_peripheral/Source\gd32vw55x_rcu.c ****                                       or else, the TIMER clock is twice the corresponding APB clock
 644:C:/Users/stapi/OneDrive/Desktop/GD32VW553/GD32VW55X_Wifi_BLE_SDK/GD32VW55x_RELEASE_V1.0.2/MSDK/plf/GD32VW55x_standard_peripheral/Source\gd32vw55x_rcu.c ****                                       TIMER in APB2 domain: CK_TIMERx = 2 x CK_APB2)
 645:C:/Users/stapi/OneDrive/Desktop/GD32VW553/GD32VW55X_Wifi_BLE_SDK/GD32VW55x_RELEASE_V1.0.2/MSDK/plf/GD32VW55x_standard_peripheral/Source\gd32vw55x_rcu.c ****       \arg        RCU_TIMER_PSC_MUL4: if APB1PSC/APB2PSC in RCU_CFG0 register is 0b0xx(CK_APBx = CK
 646:C:/Users/stapi/OneDrive/Desktop/GD32VW553/GD32VW55X_Wifi_BLE_SDK/GD32VW55x_RELEASE_V1.0.2/MSDK/plf/GD32VW55x_standard_peripheral/Source\gd32vw55x_rcu.c ****                                       0b100(CK_APBx = CK_AHB/2), or 0b101(CK_APBx = CK_AHB/4), the 
 647:C:/Users/stapi/OneDrive/Desktop/GD32VW553/GD32VW55X_Wifi_BLE_SDK/GD32VW55x_RELEASE_V1.0.2/MSDK/plf/GD32VW55x_standard_peripheral/Source\gd32vw55x_rcu.c ****                                       or else, the TIMER clock is four timers the corresponding APB
 648:C:/Users/stapi/OneDrive/Desktop/GD32VW553/GD32VW55X_Wifi_BLE_SDK/GD32VW55x_RELEASE_V1.0.2/MSDK/plf/GD32VW55x_standard_peripheral/Source\gd32vw55x_rcu.c ****                                       TIMER in APB2 domain: CK_TIMERx = 4 x CK_APB2)
 649:C:/Users/stapi/OneDrive/Desktop/GD32VW553/GD32VW55X_Wifi_BLE_SDK/GD32VW55x_RELEASE_V1.0.2/MSDK/plf/GD32VW55x_standard_peripheral/Source\gd32vw55x_rcu.c ****     \param[out] none
 650:C:/Users/stapi/OneDrive/Desktop/GD32VW553/GD32VW55X_Wifi_BLE_SDK/GD32VW55x_RELEASE_V1.0.2/MSDK/plf/GD32VW55x_standard_peripheral/Source\gd32vw55x_rcu.c ****     \retval     none
 651:C:/Users/stapi/OneDrive/Desktop/GD32VW553/GD32VW55X_Wifi_BLE_SDK/GD32VW55x_RELEASE_V1.0.2/MSDK/plf/GD32VW55x_standard_peripheral/Source\gd32vw55x_rcu.c **** */
 652:C:/Users/stapi/OneDrive/Desktop/GD32VW553/GD32VW55X_Wifi_BLE_SDK/GD32VW55x_RELEASE_V1.0.2/MSDK/plf/GD32VW55x_standard_peripheral/Source\gd32vw55x_rcu.c **** void rcu_timer_clock_prescaler_config(uint32_t timer_clock_prescaler)
 653:C:/Users/stapi/OneDrive/Desktop/GD32VW553/GD32VW55X_Wifi_BLE_SDK/GD32VW55x_RELEASE_V1.0.2/MSDK/plf/GD32VW55x_standard_peripheral/Source\gd32vw55x_rcu.c **** {
 706              		.loc 1 653 1 is_stmt 1
 707              		.cfi_startproc
 708              	.LVL49:
 654:C:/Users/stapi/OneDrive/Desktop/GD32VW553/GD32VW55X_Wifi_BLE_SDK/GD32VW55x_RELEASE_V1.0.2/MSDK/plf/GD32VW55x_standard_peripheral/Source\gd32vw55x_rcu.c ****     /* configure the TIMERSEL bit and select the TIMER clock prescaler */
 655:C:/Users/stapi/OneDrive/Desktop/GD32VW553/GD32VW55X_Wifi_BLE_SDK/GD32VW55x_RELEASE_V1.0.2/MSDK/plf/GD32VW55x_standard_peripheral/Source\gd32vw55x_rcu.c ****     if(timer_clock_prescaler == RCU_TIMER_PSC_MUL2){
 709              		.loc 1 655 5
 710              		.loc 1 655 7 is_stmt 0
 711 0000 B70700FF 		li	a5,-16777216
 712 0004 FD17     		addi	a5,a5,-1
 656:C:/Users/stapi/OneDrive/Desktop/GD32VW553/GD32VW55X_Wifi_BLE_SDK/GD32VW55x_RELEASE_V1.0.2/MSDK/plf/GD32VW55x_standard_peripheral/Source\gd32vw55x_rcu.c ****         RCU_CFG1 &= timer_clock_prescaler;
 713              		.loc 1 656 18
 714 0006 37470240 		li	a4,1073889280
 655:C:/Users/stapi/OneDrive/Desktop/GD32VW553/GD32VW55X_Wifi_BLE_SDK/GD32VW55x_RELEASE_V1.0.2/MSDK/plf/GD32VW55x_standard_peripheral/Source\gd32vw55x_rcu.c ****         RCU_CFG1 &= timer_clock_prescaler;
 715              		.loc 1 655 7
 716 000a 6318F500 		bne	a0,a5,.L35
 717              		.loc 1 656 9 is_stmt 1
 718              		.loc 1 656 18 is_stmt 0
 719 000e 8327C788 		lw	a5,-1908(a4)
 720 0012 7D8D     		and	a0,a5,a0
 721              	.LVL50:
 722              	.L37:
 657:C:/Users/stapi/OneDrive/Desktop/GD32VW553/GD32VW55X_Wifi_BLE_SDK/GD32VW55x_RELEASE_V1.0.2/MSDK/plf/GD32VW55x_standard_peripheral/Source\gd32vw55x_rcu.c ****     }else{
 658:C:/Users/stapi/OneDrive/Desktop/GD32VW553/GD32VW55X_Wifi_BLE_SDK/GD32VW55x_RELEASE_V1.0.2/MSDK/plf/GD32VW55x_standard_peripheral/Source\gd32vw55x_rcu.c ****         RCU_CFG1 |= timer_clock_prescaler;
 723              		.loc 1 658 18
 724 0014 2326A788 		sw	a0,-1908(a4)
 659:C:/Users/stapi/OneDrive/Desktop/GD32VW553/GD32VW55X_Wifi_BLE_SDK/GD32VW55x_RELEASE_V1.0.2/MSDK/plf/GD32VW55x_standard_peripheral/Source\gd32vw55x_rcu.c ****     }
 660:C:/Users/stapi/OneDrive/Desktop/GD32VW553/GD32VW55X_Wifi_BLE_SDK/GD32VW55x_RELEASE_V1.0.2/MSDK/plf/GD32VW55x_standard_peripheral/Source\gd32vw55x_rcu.c **** }
 725              		.loc 1 660 1
 726 0018 8280     		ret
 727              	.LVL51:
 728              	.L35:
 658:C:/Users/stapi/OneDrive/Desktop/GD32VW553/GD32VW55X_Wifi_BLE_SDK/GD32VW55x_RELEASE_V1.0.2/MSDK/plf/GD32VW55x_standard_peripheral/Source\gd32vw55x_rcu.c ****     }
 729              		.loc 1 658 9 is_stmt 1
 658:C:/Users/stapi/OneDrive/Desktop/GD32VW553/GD32VW55X_Wifi_BLE_SDK/GD32VW55x_RELEASE_V1.0.2/MSDK/plf/GD32VW55x_standard_peripheral/Source\gd32vw55x_rcu.c ****     }
 730              		.loc 1 658 18 is_stmt 0
 731 001a 8327C788 		lw	a5,-1908(a4)
 732 001e 5D8D     		or	a0,a5,a0
 733              	.LVL52:
 734 0020 D5BF     		j	.L37
 735              		.cfi_endproc
 736              	.LFE395:
 738              		.section	.text.rcu_flag_get,"ax",@progbits
 739              		.align	1
 740              		.globl	rcu_flag_get
 742              	rcu_flag_get:
 743              	.LFB396:
 661:C:/Users/stapi/OneDrive/Desktop/GD32VW553/GD32VW55X_Wifi_BLE_SDK/GD32VW55x_RELEASE_V1.0.2/MSDK/plf/GD32VW55x_standard_peripheral/Source\gd32vw55x_rcu.c **** 
 662:C:/Users/stapi/OneDrive/Desktop/GD32VW553/GD32VW55X_Wifi_BLE_SDK/GD32VW55x_RELEASE_V1.0.2/MSDK/plf/GD32VW55x_standard_peripheral/Source\gd32vw55x_rcu.c **** /*!
 663:C:/Users/stapi/OneDrive/Desktop/GD32VW553/GD32VW55X_Wifi_BLE_SDK/GD32VW55x_RELEASE_V1.0.2/MSDK/plf/GD32VW55x_standard_peripheral/Source\gd32vw55x_rcu.c ****     \brief      get the clock stabilization and periphral reset flags
 664:C:/Users/stapi/OneDrive/Desktop/GD32VW553/GD32VW55X_Wifi_BLE_SDK/GD32VW55x_RELEASE_V1.0.2/MSDK/plf/GD32VW55x_standard_peripheral/Source\gd32vw55x_rcu.c ****     \param[in]  flag: the clock stabilization and periphral reset flags, refer to rcu_flag_enum
 665:C:/Users/stapi/OneDrive/Desktop/GD32VW553/GD32VW55X_Wifi_BLE_SDK/GD32VW55x_RELEASE_V1.0.2/MSDK/plf/GD32VW55x_standard_peripheral/Source\gd32vw55x_rcu.c ****                 only one parameter can be selected which is shown as below:
 666:C:/Users/stapi/OneDrive/Desktop/GD32VW553/GD32VW55X_Wifi_BLE_SDK/GD32VW55x_RELEASE_V1.0.2/MSDK/plf/GD32VW55x_standard_peripheral/Source\gd32vw55x_rcu.c ****       \arg        RCU_FLAG_IRC16MSTB: IRC16M stabilization flag
 667:C:/Users/stapi/OneDrive/Desktop/GD32VW553/GD32VW55X_Wifi_BLE_SDK/GD32VW55x_RELEASE_V1.0.2/MSDK/plf/GD32VW55x_standard_peripheral/Source\gd32vw55x_rcu.c ****       \arg        RCU_FLAG_HXTALSTB: HXTAL stabilization flag
 668:C:/Users/stapi/OneDrive/Desktop/GD32VW553/GD32VW55X_Wifi_BLE_SDK/GD32VW55x_RELEASE_V1.0.2/MSDK/plf/GD32VW55x_standard_peripheral/Source\gd32vw55x_rcu.c ****       \arg        RCU_FLAG_PLLDIGSTB: PLLDIG stabilization flag
 669:C:/Users/stapi/OneDrive/Desktop/GD32VW553/GD32VW55X_Wifi_BLE_SDK/GD32VW55x_RELEASE_V1.0.2/MSDK/plf/GD32VW55x_standard_peripheral/Source\gd32vw55x_rcu.c ****       \arg        RCU_FLAG_LXTALSTB: LXTAL stabilization flag
 670:C:/Users/stapi/OneDrive/Desktop/GD32VW553/GD32VW55X_Wifi_BLE_SDK/GD32VW55x_RELEASE_V1.0.2/MSDK/plf/GD32VW55x_standard_peripheral/Source\gd32vw55x_rcu.c ****       \arg        RCU_FLAG_IRC32KSTB: IRC32K stabilization flag
 671:C:/Users/stapi/OneDrive/Desktop/GD32VW553/GD32VW55X_Wifi_BLE_SDK/GD32VW55x_RELEASE_V1.0.2/MSDK/plf/GD32VW55x_standard_peripheral/Source\gd32vw55x_rcu.c ****       \arg        RCU_FLAG_EPRST: external PIN reset flag
 672:C:/Users/stapi/OneDrive/Desktop/GD32VW553/GD32VW55X_Wifi_BLE_SDK/GD32VW55x_RELEASE_V1.0.2/MSDK/plf/GD32VW55x_standard_peripheral/Source\gd32vw55x_rcu.c ****       \arg        RCU_FLAG_PORRST: power reset flag
 673:C:/Users/stapi/OneDrive/Desktop/GD32VW553/GD32VW55X_Wifi_BLE_SDK/GD32VW55x_RELEASE_V1.0.2/MSDK/plf/GD32VW55x_standard_peripheral/Source\gd32vw55x_rcu.c ****       \arg        RCU_FLAG_SWRST: software reset flag
 674:C:/Users/stapi/OneDrive/Desktop/GD32VW553/GD32VW55X_Wifi_BLE_SDK/GD32VW55x_RELEASE_V1.0.2/MSDK/plf/GD32VW55x_standard_peripheral/Source\gd32vw55x_rcu.c ****       \arg        RCU_FLAG_FWDGTRST: free watchdog timer reset flag
 675:C:/Users/stapi/OneDrive/Desktop/GD32VW553/GD32VW55X_Wifi_BLE_SDK/GD32VW55x_RELEASE_V1.0.2/MSDK/plf/GD32VW55x_standard_peripheral/Source\gd32vw55x_rcu.c ****       \arg        RCU_FLAG_WWDGTRST: window watchdog timer reset flag
 676:C:/Users/stapi/OneDrive/Desktop/GD32VW553/GD32VW55X_Wifi_BLE_SDK/GD32VW55x_RELEASE_V1.0.2/MSDK/plf/GD32VW55x_standard_peripheral/Source\gd32vw55x_rcu.c ****       \arg        RCU_FLAG_LPRST: low-power reset flag
 677:C:/Users/stapi/OneDrive/Desktop/GD32VW553/GD32VW55X_Wifi_BLE_SDK/GD32VW55x_RELEASE_V1.0.2/MSDK/plf/GD32VW55x_standard_peripheral/Source\gd32vw55x_rcu.c ****     \param[out] none
 678:C:/Users/stapi/OneDrive/Desktop/GD32VW553/GD32VW55X_Wifi_BLE_SDK/GD32VW55x_RELEASE_V1.0.2/MSDK/plf/GD32VW55x_standard_peripheral/Source\gd32vw55x_rcu.c ****     \retval     none
 679:C:/Users/stapi/OneDrive/Desktop/GD32VW553/GD32VW55X_Wifi_BLE_SDK/GD32VW55x_RELEASE_V1.0.2/MSDK/plf/GD32VW55x_standard_peripheral/Source\gd32vw55x_rcu.c **** */
 680:C:/Users/stapi/OneDrive/Desktop/GD32VW553/GD32VW55X_Wifi_BLE_SDK/GD32VW55x_RELEASE_V1.0.2/MSDK/plf/GD32VW55x_standard_peripheral/Source\gd32vw55x_rcu.c **** FlagStatus rcu_flag_get(rcu_flag_enum flag)
 681:C:/Users/stapi/OneDrive/Desktop/GD32VW553/GD32VW55X_Wifi_BLE_SDK/GD32VW55x_RELEASE_V1.0.2/MSDK/plf/GD32VW55x_standard_peripheral/Source\gd32vw55x_rcu.c **** {
 744              		.loc 1 681 1 is_stmt 1
 745              		.cfi_startproc
 746              	.LVL53:
 682:C:/Users/stapi/OneDrive/Desktop/GD32VW553/GD32VW55X_Wifi_BLE_SDK/GD32VW55x_RELEASE_V1.0.2/MSDK/plf/GD32VW55x_standard_peripheral/Source\gd32vw55x_rcu.c ****     /* get the rcu flag */
 683:C:/Users/stapi/OneDrive/Desktop/GD32VW553/GD32VW55X_Wifi_BLE_SDK/GD32VW55x_RELEASE_V1.0.2/MSDK/plf/GD32VW55x_standard_peripheral/Source\gd32vw55x_rcu.c ****     if(RESET != (RCU_REG_VAL(flag) & BIT(RCU_BIT_POS(flag)))){
 747              		.loc 1 683 5
 748              		.loc 1 683 18 is_stmt 0
 749 0000 37470240 		li	a4,1073889280
 750 0004 93576500 		srli	a5,a0,6
 751 0008 13070780 		addi	a4,a4,-2048
 752 000c BA97     		add	a5,a5,a4
 753 000e 9C43     		lw	a5,0(a5)
 754              		.loc 1 683 14
 755 0010 33D5A700 		srl	a0,a5,a0
 756              	.LVL54:
 684:C:/Users/stapi/OneDrive/Desktop/GD32VW553/GD32VW55X_Wifi_BLE_SDK/GD32VW55x_RELEASE_V1.0.2/MSDK/plf/GD32VW55x_standard_peripheral/Source\gd32vw55x_rcu.c ****         return SET;
 685:C:/Users/stapi/OneDrive/Desktop/GD32VW553/GD32VW55X_Wifi_BLE_SDK/GD32VW55x_RELEASE_V1.0.2/MSDK/plf/GD32VW55x_standard_peripheral/Source\gd32vw55x_rcu.c ****     }else{
 686:C:/Users/stapi/OneDrive/Desktop/GD32VW553/GD32VW55X_Wifi_BLE_SDK/GD32VW55x_RELEASE_V1.0.2/MSDK/plf/GD32VW55x_standard_peripheral/Source\gd32vw55x_rcu.c ****         return RESET;
 687:C:/Users/stapi/OneDrive/Desktop/GD32VW553/GD32VW55X_Wifi_BLE_SDK/GD32VW55x_RELEASE_V1.0.2/MSDK/plf/GD32VW55x_standard_peripheral/Source\gd32vw55x_rcu.c ****     }
 688:C:/Users/stapi/OneDrive/Desktop/GD32VW553/GD32VW55X_Wifi_BLE_SDK/GD32VW55x_RELEASE_V1.0.2/MSDK/plf/GD32VW55x_standard_peripheral/Source\gd32vw55x_rcu.c **** }
 757              		.loc 1 688 1
 758 0014 0589     		andi	a0,a0,1
 759 0016 8280     		ret
 760              		.cfi_endproc
 761              	.LFE396:
 763              		.section	.text.rcu_all_reset_flag_clear,"ax",@progbits
 764              		.align	1
 765              		.globl	rcu_all_reset_flag_clear
 767              	rcu_all_reset_flag_clear:
 768              	.LFB397:
 689:C:/Users/stapi/OneDrive/Desktop/GD32VW553/GD32VW55X_Wifi_BLE_SDK/GD32VW55x_RELEASE_V1.0.2/MSDK/plf/GD32VW55x_standard_peripheral/Source\gd32vw55x_rcu.c **** 
 690:C:/Users/stapi/OneDrive/Desktop/GD32VW553/GD32VW55X_Wifi_BLE_SDK/GD32VW55x_RELEASE_V1.0.2/MSDK/plf/GD32VW55x_standard_peripheral/Source\gd32vw55x_rcu.c **** /*!
 691:C:/Users/stapi/OneDrive/Desktop/GD32VW553/GD32VW55X_Wifi_BLE_SDK/GD32VW55x_RELEASE_V1.0.2/MSDK/plf/GD32VW55x_standard_peripheral/Source\gd32vw55x_rcu.c ****     \brief      clear all the reset flag
 692:C:/Users/stapi/OneDrive/Desktop/GD32VW553/GD32VW55X_Wifi_BLE_SDK/GD32VW55x_RELEASE_V1.0.2/MSDK/plf/GD32VW55x_standard_peripheral/Source\gd32vw55x_rcu.c ****     \param[in]  none
 693:C:/Users/stapi/OneDrive/Desktop/GD32VW553/GD32VW55X_Wifi_BLE_SDK/GD32VW55x_RELEASE_V1.0.2/MSDK/plf/GD32VW55x_standard_peripheral/Source\gd32vw55x_rcu.c ****     \param[out] none
 694:C:/Users/stapi/OneDrive/Desktop/GD32VW553/GD32VW55X_Wifi_BLE_SDK/GD32VW55x_RELEASE_V1.0.2/MSDK/plf/GD32VW55x_standard_peripheral/Source\gd32vw55x_rcu.c ****     \retval     none
 695:C:/Users/stapi/OneDrive/Desktop/GD32VW553/GD32VW55X_Wifi_BLE_SDK/GD32VW55x_RELEASE_V1.0.2/MSDK/plf/GD32VW55x_standard_peripheral/Source\gd32vw55x_rcu.c **** */
 696:C:/Users/stapi/OneDrive/Desktop/GD32VW553/GD32VW55X_Wifi_BLE_SDK/GD32VW55x_RELEASE_V1.0.2/MSDK/plf/GD32VW55x_standard_peripheral/Source\gd32vw55x_rcu.c **** void rcu_all_reset_flag_clear(void)
 697:C:/Users/stapi/OneDrive/Desktop/GD32VW553/GD32VW55X_Wifi_BLE_SDK/GD32VW55x_RELEASE_V1.0.2/MSDK/plf/GD32VW55x_standard_peripheral/Source\gd32vw55x_rcu.c **** {
 769              		.loc 1 697 1 is_stmt 1
 770              		.cfi_startproc
 698:C:/Users/stapi/OneDrive/Desktop/GD32VW553/GD32VW55X_Wifi_BLE_SDK/GD32VW55x_RELEASE_V1.0.2/MSDK/plf/GD32VW55x_standard_peripheral/Source\gd32vw55x_rcu.c ****     RCU_RSTSCK |= RCU_RSTSCK_RSTFC;
 771              		.loc 1 698 5
 772              		.loc 1 698 16 is_stmt 0
 773 0000 37470240 		li	a4,1073889280
 774 0004 83274787 		lw	a5,-1932(a4)
 775 0008 93978729 		bseti	a5,a5,24
 776 000c 232AF786 		sw	a5,-1932(a4)
 699:C:/Users/stapi/OneDrive/Desktop/GD32VW553/GD32VW55X_Wifi_BLE_SDK/GD32VW55x_RELEASE_V1.0.2/MSDK/plf/GD32VW55x_standard_peripheral/Source\gd32vw55x_rcu.c **** }
 777              		.loc 1 699 1
 778 0010 8280     		ret
 779              		.cfi_endproc
 780              	.LFE397:
 782              		.section	.text.rcu_interrupt_flag_get,"ax",@progbits
 783              		.align	1
 784              		.globl	rcu_interrupt_flag_get
 786              	rcu_interrupt_flag_get:
 787              	.LFB433:
 788              		.cfi_startproc
 789 0000 17030000 		tail	rcu_flag_get
 789      67000300 
 790              		.cfi_endproc
 791              	.LFE433:
 793              		.section	.text.rcu_interrupt_flag_clear,"ax",@progbits
 794              		.align	1
 795              		.globl	rcu_interrupt_flag_clear
 797              	rcu_interrupt_flag_clear:
 798              	.LFB419:
 799              		.cfi_startproc
 800 0000 17030000 		tail	rcu_periph_clock_enable
 800      67000300 
 801              		.cfi_endproc
 802              	.LFE419:
 804              		.section	.text.rcu_interrupt_enable,"ax",@progbits
 805              		.align	1
 806              		.globl	rcu_interrupt_enable
 808              	rcu_interrupt_enable:
 809              	.LFB421:
 810              		.cfi_startproc
 811 0000 17030000 		tail	rcu_periph_clock_enable
 811      67000300 
 812              		.cfi_endproc
 813              	.LFE421:
 815              		.section	.text.rcu_interrupt_disable,"ax",@progbits
 816              		.align	1
 817              		.globl	rcu_interrupt_disable
 819              	rcu_interrupt_disable:
 820              	.LFB429:
 821              		.cfi_startproc
 822 0000 17030000 		tail	rcu_periph_clock_disable
 822      67000300 
 823              		.cfi_endproc
 824              	.LFE429:
 826              		.section	.text.rcu_lxtal_drive_capability_config,"ax",@progbits
 827              		.align	1
 828              		.globl	rcu_lxtal_drive_capability_config
 830              	rcu_lxtal_drive_capability_config:
 831              	.LFB402:
 700:C:/Users/stapi/OneDrive/Desktop/GD32VW553/GD32VW55X_Wifi_BLE_SDK/GD32VW55x_RELEASE_V1.0.2/MSDK/plf/GD32VW55x_standard_peripheral/Source\gd32vw55x_rcu.c **** 
 701:C:/Users/stapi/OneDrive/Desktop/GD32VW553/GD32VW55X_Wifi_BLE_SDK/GD32VW55x_RELEASE_V1.0.2/MSDK/plf/GD32VW55x_standard_peripheral/Source\gd32vw55x_rcu.c **** /*!
 702:C:/Users/stapi/OneDrive/Desktop/GD32VW553/GD32VW55X_Wifi_BLE_SDK/GD32VW55x_RELEASE_V1.0.2/MSDK/plf/GD32VW55x_standard_peripheral/Source\gd32vw55x_rcu.c ****     \brief      get the clock stabilization interrupt and ckm flags
 703:C:/Users/stapi/OneDrive/Desktop/GD32VW553/GD32VW55X_Wifi_BLE_SDK/GD32VW55x_RELEASE_V1.0.2/MSDK/plf/GD32VW55x_standard_peripheral/Source\gd32vw55x_rcu.c ****     \param[in]  int_flag: interrupt and ckm flags, refer to rcu_int_flag_enum
 704:C:/Users/stapi/OneDrive/Desktop/GD32VW553/GD32VW55X_Wifi_BLE_SDK/GD32VW55x_RELEASE_V1.0.2/MSDK/plf/GD32VW55x_standard_peripheral/Source\gd32vw55x_rcu.c ****                 only one parameter can be selected which is shown as below:
 705:C:/Users/stapi/OneDrive/Desktop/GD32VW553/GD32VW55X_Wifi_BLE_SDK/GD32VW55x_RELEASE_V1.0.2/MSDK/plf/GD32VW55x_standard_peripheral/Source\gd32vw55x_rcu.c ****       \arg        RCU_INT_FLAG_IRC32KSTB: IRC32K stabilization interrupt flag
 706:C:/Users/stapi/OneDrive/Desktop/GD32VW553/GD32VW55X_Wifi_BLE_SDK/GD32VW55x_RELEASE_V1.0.2/MSDK/plf/GD32VW55x_standard_peripheral/Source\gd32vw55x_rcu.c ****       \arg        RCU_INT_FLAG_LXTALSTB: LXTAL stabilization interrupt flag
 707:C:/Users/stapi/OneDrive/Desktop/GD32VW553/GD32VW55X_Wifi_BLE_SDK/GD32VW55x_RELEASE_V1.0.2/MSDK/plf/GD32VW55x_standard_peripheral/Source\gd32vw55x_rcu.c ****       \arg        RCU_INT_FLAG_IRC16MSTB: IRC16M stabilization interrupt flag
 708:C:/Users/stapi/OneDrive/Desktop/GD32VW553/GD32VW55X_Wifi_BLE_SDK/GD32VW55x_RELEASE_V1.0.2/MSDK/plf/GD32VW55x_standard_peripheral/Source\gd32vw55x_rcu.c ****       \arg        RCU_INT_FLAG_HXTALSTB: HXTAL stabilization interrupt flag
 709:C:/Users/stapi/OneDrive/Desktop/GD32VW553/GD32VW55X_Wifi_BLE_SDK/GD32VW55x_RELEASE_V1.0.2/MSDK/plf/GD32VW55x_standard_peripheral/Source\gd32vw55x_rcu.c ****       \arg        RCU_INT_FLAG_PLLDIGSTB: PLLDIG stabilization interrupt flag
 710:C:/Users/stapi/OneDrive/Desktop/GD32VW553/GD32VW55X_Wifi_BLE_SDK/GD32VW55x_RELEASE_V1.0.2/MSDK/plf/GD32VW55x_standard_peripheral/Source\gd32vw55x_rcu.c ****       \arg        RCU_INT_FLAG_CKM: HXTAL clock stuck interrupt flag
 711:C:/Users/stapi/OneDrive/Desktop/GD32VW553/GD32VW55X_Wifi_BLE_SDK/GD32VW55x_RELEASE_V1.0.2/MSDK/plf/GD32VW55x_standard_peripheral/Source\gd32vw55x_rcu.c ****     \param[out] none
 712:C:/Users/stapi/OneDrive/Desktop/GD32VW553/GD32VW55X_Wifi_BLE_SDK/GD32VW55x_RELEASE_V1.0.2/MSDK/plf/GD32VW55x_standard_peripheral/Source\gd32vw55x_rcu.c ****     \retval     FlagStatus: SET or RESET
 713:C:/Users/stapi/OneDrive/Desktop/GD32VW553/GD32VW55X_Wifi_BLE_SDK/GD32VW55x_RELEASE_V1.0.2/MSDK/plf/GD32VW55x_standard_peripheral/Source\gd32vw55x_rcu.c **** */
 714:C:/Users/stapi/OneDrive/Desktop/GD32VW553/GD32VW55X_Wifi_BLE_SDK/GD32VW55x_RELEASE_V1.0.2/MSDK/plf/GD32VW55x_standard_peripheral/Source\gd32vw55x_rcu.c **** FlagStatus rcu_interrupt_flag_get(rcu_int_flag_enum int_flag)
 715:C:/Users/stapi/OneDrive/Desktop/GD32VW553/GD32VW55X_Wifi_BLE_SDK/GD32VW55x_RELEASE_V1.0.2/MSDK/plf/GD32VW55x_standard_peripheral/Source\gd32vw55x_rcu.c **** {
 716:C:/Users/stapi/OneDrive/Desktop/GD32VW553/GD32VW55X_Wifi_BLE_SDK/GD32VW55x_RELEASE_V1.0.2/MSDK/plf/GD32VW55x_standard_peripheral/Source\gd32vw55x_rcu.c ****     /* get the rcu interrupt flag */
 717:C:/Users/stapi/OneDrive/Desktop/GD32VW553/GD32VW55X_Wifi_BLE_SDK/GD32VW55x_RELEASE_V1.0.2/MSDK/plf/GD32VW55x_standard_peripheral/Source\gd32vw55x_rcu.c ****     if(RESET != (RCU_REG_VAL(int_flag) & BIT(RCU_BIT_POS(int_flag)))){
 718:C:/Users/stapi/OneDrive/Desktop/GD32VW553/GD32VW55X_Wifi_BLE_SDK/GD32VW55x_RELEASE_V1.0.2/MSDK/plf/GD32VW55x_standard_peripheral/Source\gd32vw55x_rcu.c ****         return SET;
 719:C:/Users/stapi/OneDrive/Desktop/GD32VW553/GD32VW55X_Wifi_BLE_SDK/GD32VW55x_RELEASE_V1.0.2/MSDK/plf/GD32VW55x_standard_peripheral/Source\gd32vw55x_rcu.c ****     }else{
 720:C:/Users/stapi/OneDrive/Desktop/GD32VW553/GD32VW55X_Wifi_BLE_SDK/GD32VW55x_RELEASE_V1.0.2/MSDK/plf/GD32VW55x_standard_peripheral/Source\gd32vw55x_rcu.c ****         return RESET;
 721:C:/Users/stapi/OneDrive/Desktop/GD32VW553/GD32VW55X_Wifi_BLE_SDK/GD32VW55x_RELEASE_V1.0.2/MSDK/plf/GD32VW55x_standard_peripheral/Source\gd32vw55x_rcu.c ****     }
 722:C:/Users/stapi/OneDrive/Desktop/GD32VW553/GD32VW55X_Wifi_BLE_SDK/GD32VW55x_RELEASE_V1.0.2/MSDK/plf/GD32VW55x_standard_peripheral/Source\gd32vw55x_rcu.c **** }
 723:C:/Users/stapi/OneDrive/Desktop/GD32VW553/GD32VW55X_Wifi_BLE_SDK/GD32VW55x_RELEASE_V1.0.2/MSDK/plf/GD32VW55x_standard_peripheral/Source\gd32vw55x_rcu.c **** 
 724:C:/Users/stapi/OneDrive/Desktop/GD32VW553/GD32VW55X_Wifi_BLE_SDK/GD32VW55x_RELEASE_V1.0.2/MSDK/plf/GD32VW55x_standard_peripheral/Source\gd32vw55x_rcu.c **** /*!
 725:C:/Users/stapi/OneDrive/Desktop/GD32VW553/GD32VW55X_Wifi_BLE_SDK/GD32VW55x_RELEASE_V1.0.2/MSDK/plf/GD32VW55x_standard_peripheral/Source\gd32vw55x_rcu.c ****     \brief      clear the interrupt flags
 726:C:/Users/stapi/OneDrive/Desktop/GD32VW553/GD32VW55X_Wifi_BLE_SDK/GD32VW55x_RELEASE_V1.0.2/MSDK/plf/GD32VW55x_standard_peripheral/Source\gd32vw55x_rcu.c ****     \param[in]  int_flag: clock stabilization and stuck interrupt flags clear, refer to rcu_int_fla
 727:C:/Users/stapi/OneDrive/Desktop/GD32VW553/GD32VW55X_Wifi_BLE_SDK/GD32VW55x_RELEASE_V1.0.2/MSDK/plf/GD32VW55x_standard_peripheral/Source\gd32vw55x_rcu.c ****                 only one parameter can be selected which is shown as below:
 728:C:/Users/stapi/OneDrive/Desktop/GD32VW553/GD32VW55X_Wifi_BLE_SDK/GD32VW55x_RELEASE_V1.0.2/MSDK/plf/GD32VW55x_standard_peripheral/Source\gd32vw55x_rcu.c ****       \arg        RCU_INT_FLAG_IRC32KSTB_CLR: IRC32K stabilization interrupt flag clear
 729:C:/Users/stapi/OneDrive/Desktop/GD32VW553/GD32VW55X_Wifi_BLE_SDK/GD32VW55x_RELEASE_V1.0.2/MSDK/plf/GD32VW55x_standard_peripheral/Source\gd32vw55x_rcu.c ****       \arg        RCU_INT_FLAG_LXTALSTB_CLR: LXTAL stabilization interrupt flag clear
 730:C:/Users/stapi/OneDrive/Desktop/GD32VW553/GD32VW55X_Wifi_BLE_SDK/GD32VW55x_RELEASE_V1.0.2/MSDK/plf/GD32VW55x_standard_peripheral/Source\gd32vw55x_rcu.c ****       \arg        RCU_INT_FLAG_IRC16MSTB_CLR: IRC16M stabilization interrupt flag clear
 731:C:/Users/stapi/OneDrive/Desktop/GD32VW553/GD32VW55X_Wifi_BLE_SDK/GD32VW55x_RELEASE_V1.0.2/MSDK/plf/GD32VW55x_standard_peripheral/Source\gd32vw55x_rcu.c ****       \arg        RCU_INT_FLAG_HXTALSTB_CLR: HXTAL stabilization interrupt flag clear
 732:C:/Users/stapi/OneDrive/Desktop/GD32VW553/GD32VW55X_Wifi_BLE_SDK/GD32VW55x_RELEASE_V1.0.2/MSDK/plf/GD32VW55x_standard_peripheral/Source\gd32vw55x_rcu.c ****       \arg        RCU_INT_FLAG_PLLDIGSTB_CLR: PLLDIG stabilization interrupt flag clear
 733:C:/Users/stapi/OneDrive/Desktop/GD32VW553/GD32VW55X_Wifi_BLE_SDK/GD32VW55x_RELEASE_V1.0.2/MSDK/plf/GD32VW55x_standard_peripheral/Source\gd32vw55x_rcu.c ****       \arg        RCU_INT_FLAG_CKM_CLR: clock stuck interrupt flag clear
 734:C:/Users/stapi/OneDrive/Desktop/GD32VW553/GD32VW55X_Wifi_BLE_SDK/GD32VW55x_RELEASE_V1.0.2/MSDK/plf/GD32VW55x_standard_peripheral/Source\gd32vw55x_rcu.c ****     \param[out] none
 735:C:/Users/stapi/OneDrive/Desktop/GD32VW553/GD32VW55X_Wifi_BLE_SDK/GD32VW55x_RELEASE_V1.0.2/MSDK/plf/GD32VW55x_standard_peripheral/Source\gd32vw55x_rcu.c ****     \retval     none
 736:C:/Users/stapi/OneDrive/Desktop/GD32VW553/GD32VW55X_Wifi_BLE_SDK/GD32VW55x_RELEASE_V1.0.2/MSDK/plf/GD32VW55x_standard_peripheral/Source\gd32vw55x_rcu.c **** */
 737:C:/Users/stapi/OneDrive/Desktop/GD32VW553/GD32VW55X_Wifi_BLE_SDK/GD32VW55x_RELEASE_V1.0.2/MSDK/plf/GD32VW55x_standard_peripheral/Source\gd32vw55x_rcu.c **** void rcu_interrupt_flag_clear(rcu_int_flag_clear_enum int_flag)
 738:C:/Users/stapi/OneDrive/Desktop/GD32VW553/GD32VW55X_Wifi_BLE_SDK/GD32VW55x_RELEASE_V1.0.2/MSDK/plf/GD32VW55x_standard_peripheral/Source\gd32vw55x_rcu.c **** {
 739:C:/Users/stapi/OneDrive/Desktop/GD32VW553/GD32VW55X_Wifi_BLE_SDK/GD32VW55x_RELEASE_V1.0.2/MSDK/plf/GD32VW55x_standard_peripheral/Source\gd32vw55x_rcu.c ****     RCU_REG_VAL(int_flag) |= BIT(RCU_BIT_POS(int_flag));
 740:C:/Users/stapi/OneDrive/Desktop/GD32VW553/GD32VW55X_Wifi_BLE_SDK/GD32VW55x_RELEASE_V1.0.2/MSDK/plf/GD32VW55x_standard_peripheral/Source\gd32vw55x_rcu.c **** }
 741:C:/Users/stapi/OneDrive/Desktop/GD32VW553/GD32VW55X_Wifi_BLE_SDK/GD32VW55x_RELEASE_V1.0.2/MSDK/plf/GD32VW55x_standard_peripheral/Source\gd32vw55x_rcu.c **** 
 742:C:/Users/stapi/OneDrive/Desktop/GD32VW553/GD32VW55X_Wifi_BLE_SDK/GD32VW55x_RELEASE_V1.0.2/MSDK/plf/GD32VW55x_standard_peripheral/Source\gd32vw55x_rcu.c **** /*!
 743:C:/Users/stapi/OneDrive/Desktop/GD32VW553/GD32VW55X_Wifi_BLE_SDK/GD32VW55x_RELEASE_V1.0.2/MSDK/plf/GD32VW55x_standard_peripheral/Source\gd32vw55x_rcu.c ****     \brief      enable the stabilization interrupt
 744:C:/Users/stapi/OneDrive/Desktop/GD32VW553/GD32VW55X_Wifi_BLE_SDK/GD32VW55x_RELEASE_V1.0.2/MSDK/plf/GD32VW55x_standard_peripheral/Source\gd32vw55x_rcu.c ****     \param[in]  interrupt: clock stabilization interrupt, refer to rcu_int_enum
 745:C:/Users/stapi/OneDrive/Desktop/GD32VW553/GD32VW55X_Wifi_BLE_SDK/GD32VW55x_RELEASE_V1.0.2/MSDK/plf/GD32VW55x_standard_peripheral/Source\gd32vw55x_rcu.c ****                 Only one parameter can be selected which is shown as below:
 746:C:/Users/stapi/OneDrive/Desktop/GD32VW553/GD32VW55X_Wifi_BLE_SDK/GD32VW55x_RELEASE_V1.0.2/MSDK/plf/GD32VW55x_standard_peripheral/Source\gd32vw55x_rcu.c ****       \arg        RCU_INT_IRC32KSTB: IRC32K stabilization interrupt enable
 747:C:/Users/stapi/OneDrive/Desktop/GD32VW553/GD32VW55X_Wifi_BLE_SDK/GD32VW55x_RELEASE_V1.0.2/MSDK/plf/GD32VW55x_standard_peripheral/Source\gd32vw55x_rcu.c ****       \arg        RCU_INT_LXTALSTB: LXTAL stabilization interrupt enable
 748:C:/Users/stapi/OneDrive/Desktop/GD32VW553/GD32VW55X_Wifi_BLE_SDK/GD32VW55x_RELEASE_V1.0.2/MSDK/plf/GD32VW55x_standard_peripheral/Source\gd32vw55x_rcu.c ****       \arg        RCU_INT_IRC16MSTB: IRC16M stabilization interrupt enable
 749:C:/Users/stapi/OneDrive/Desktop/GD32VW553/GD32VW55X_Wifi_BLE_SDK/GD32VW55x_RELEASE_V1.0.2/MSDK/plf/GD32VW55x_standard_peripheral/Source\gd32vw55x_rcu.c ****       \arg        RCU_INT_HXTALSTB: HXTAL stabilization interrupt enable
 750:C:/Users/stapi/OneDrive/Desktop/GD32VW553/GD32VW55X_Wifi_BLE_SDK/GD32VW55x_RELEASE_V1.0.2/MSDK/plf/GD32VW55x_standard_peripheral/Source\gd32vw55x_rcu.c ****       \arg        RCU_INT_PLLDIGSTB: PLLDIG stabilization interrupt enable
 751:C:/Users/stapi/OneDrive/Desktop/GD32VW553/GD32VW55X_Wifi_BLE_SDK/GD32VW55x_RELEASE_V1.0.2/MSDK/plf/GD32VW55x_standard_peripheral/Source\gd32vw55x_rcu.c ****     \param[out] none
 752:C:/Users/stapi/OneDrive/Desktop/GD32VW553/GD32VW55X_Wifi_BLE_SDK/GD32VW55x_RELEASE_V1.0.2/MSDK/plf/GD32VW55x_standard_peripheral/Source\gd32vw55x_rcu.c ****     \retval     none
 753:C:/Users/stapi/OneDrive/Desktop/GD32VW553/GD32VW55X_Wifi_BLE_SDK/GD32VW55x_RELEASE_V1.0.2/MSDK/plf/GD32VW55x_standard_peripheral/Source\gd32vw55x_rcu.c **** */
 754:C:/Users/stapi/OneDrive/Desktop/GD32VW553/GD32VW55X_Wifi_BLE_SDK/GD32VW55x_RELEASE_V1.0.2/MSDK/plf/GD32VW55x_standard_peripheral/Source\gd32vw55x_rcu.c **** void rcu_interrupt_enable(rcu_int_enum interrupt)
 755:C:/Users/stapi/OneDrive/Desktop/GD32VW553/GD32VW55X_Wifi_BLE_SDK/GD32VW55x_RELEASE_V1.0.2/MSDK/plf/GD32VW55x_standard_peripheral/Source\gd32vw55x_rcu.c **** {
 756:C:/Users/stapi/OneDrive/Desktop/GD32VW553/GD32VW55X_Wifi_BLE_SDK/GD32VW55x_RELEASE_V1.0.2/MSDK/plf/GD32VW55x_standard_peripheral/Source\gd32vw55x_rcu.c ****     RCU_REG_VAL(interrupt) |= BIT(RCU_BIT_POS(interrupt));
 757:C:/Users/stapi/OneDrive/Desktop/GD32VW553/GD32VW55X_Wifi_BLE_SDK/GD32VW55x_RELEASE_V1.0.2/MSDK/plf/GD32VW55x_standard_peripheral/Source\gd32vw55x_rcu.c **** }
 758:C:/Users/stapi/OneDrive/Desktop/GD32VW553/GD32VW55X_Wifi_BLE_SDK/GD32VW55x_RELEASE_V1.0.2/MSDK/plf/GD32VW55x_standard_peripheral/Source\gd32vw55x_rcu.c **** 
 759:C:/Users/stapi/OneDrive/Desktop/GD32VW553/GD32VW55X_Wifi_BLE_SDK/GD32VW55x_RELEASE_V1.0.2/MSDK/plf/GD32VW55x_standard_peripheral/Source\gd32vw55x_rcu.c **** /*!
 760:C:/Users/stapi/OneDrive/Desktop/GD32VW553/GD32VW55X_Wifi_BLE_SDK/GD32VW55x_RELEASE_V1.0.2/MSDK/plf/GD32VW55x_standard_peripheral/Source\gd32vw55x_rcu.c ****     \brief      disable the stabilization interrupt
 761:C:/Users/stapi/OneDrive/Desktop/GD32VW553/GD32VW55X_Wifi_BLE_SDK/GD32VW55x_RELEASE_V1.0.2/MSDK/plf/GD32VW55x_standard_peripheral/Source\gd32vw55x_rcu.c ****     \param[in]  interrupt: clock stabilization interrupt, refer to rcu_int_enum
 762:C:/Users/stapi/OneDrive/Desktop/GD32VW553/GD32VW55X_Wifi_BLE_SDK/GD32VW55x_RELEASE_V1.0.2/MSDK/plf/GD32VW55x_standard_peripheral/Source\gd32vw55x_rcu.c ****                 only one parameter can be selected which is shown as below:
 763:C:/Users/stapi/OneDrive/Desktop/GD32VW553/GD32VW55X_Wifi_BLE_SDK/GD32VW55x_RELEASE_V1.0.2/MSDK/plf/GD32VW55x_standard_peripheral/Source\gd32vw55x_rcu.c ****       \arg        RCU_INT_IRC32KSTB: IRC32K stabilization interrupt disable
 764:C:/Users/stapi/OneDrive/Desktop/GD32VW553/GD32VW55X_Wifi_BLE_SDK/GD32VW55x_RELEASE_V1.0.2/MSDK/plf/GD32VW55x_standard_peripheral/Source\gd32vw55x_rcu.c ****       \arg        RCU_INT_LXTALSTB: LXTAL stabilization interrupt disable
 765:C:/Users/stapi/OneDrive/Desktop/GD32VW553/GD32VW55X_Wifi_BLE_SDK/GD32VW55x_RELEASE_V1.0.2/MSDK/plf/GD32VW55x_standard_peripheral/Source\gd32vw55x_rcu.c ****       \arg        RCU_INT_IRC16MSTB: IRC16M stabilization interrupt disable
 766:C:/Users/stapi/OneDrive/Desktop/GD32VW553/GD32VW55X_Wifi_BLE_SDK/GD32VW55x_RELEASE_V1.0.2/MSDK/plf/GD32VW55x_standard_peripheral/Source\gd32vw55x_rcu.c ****       \arg        RCU_INT_HXTALSTB: HXTAL stabilization interrupt disable
 767:C:/Users/stapi/OneDrive/Desktop/GD32VW553/GD32VW55X_Wifi_BLE_SDK/GD32VW55x_RELEASE_V1.0.2/MSDK/plf/GD32VW55x_standard_peripheral/Source\gd32vw55x_rcu.c ****       \arg        RCU_INT_PLLDIGSTB: PLLDIG stabilization interrupt disable
 768:C:/Users/stapi/OneDrive/Desktop/GD32VW553/GD32VW55X_Wifi_BLE_SDK/GD32VW55x_RELEASE_V1.0.2/MSDK/plf/GD32VW55x_standard_peripheral/Source\gd32vw55x_rcu.c ****     \param[out] none
 769:C:/Users/stapi/OneDrive/Desktop/GD32VW553/GD32VW55X_Wifi_BLE_SDK/GD32VW55x_RELEASE_V1.0.2/MSDK/plf/GD32VW55x_standard_peripheral/Source\gd32vw55x_rcu.c ****     \retval     none
 770:C:/Users/stapi/OneDrive/Desktop/GD32VW553/GD32VW55X_Wifi_BLE_SDK/GD32VW55x_RELEASE_V1.0.2/MSDK/plf/GD32VW55x_standard_peripheral/Source\gd32vw55x_rcu.c **** */
 771:C:/Users/stapi/OneDrive/Desktop/GD32VW553/GD32VW55X_Wifi_BLE_SDK/GD32VW55x_RELEASE_V1.0.2/MSDK/plf/GD32VW55x_standard_peripheral/Source\gd32vw55x_rcu.c **** void rcu_interrupt_disable(rcu_int_enum interrupt)
 772:C:/Users/stapi/OneDrive/Desktop/GD32VW553/GD32VW55X_Wifi_BLE_SDK/GD32VW55x_RELEASE_V1.0.2/MSDK/plf/GD32VW55x_standard_peripheral/Source\gd32vw55x_rcu.c **** {
 773:C:/Users/stapi/OneDrive/Desktop/GD32VW553/GD32VW55X_Wifi_BLE_SDK/GD32VW55x_RELEASE_V1.0.2/MSDK/plf/GD32VW55x_standard_peripheral/Source\gd32vw55x_rcu.c ****     RCU_REG_VAL(interrupt) &= ~BIT(RCU_BIT_POS(interrupt));
 774:C:/Users/stapi/OneDrive/Desktop/GD32VW553/GD32VW55X_Wifi_BLE_SDK/GD32VW55x_RELEASE_V1.0.2/MSDK/plf/GD32VW55x_standard_peripheral/Source\gd32vw55x_rcu.c **** }
 775:C:/Users/stapi/OneDrive/Desktop/GD32VW553/GD32VW55X_Wifi_BLE_SDK/GD32VW55x_RELEASE_V1.0.2/MSDK/plf/GD32VW55x_standard_peripheral/Source\gd32vw55x_rcu.c **** 
 776:C:/Users/stapi/OneDrive/Desktop/GD32VW553/GD32VW55X_Wifi_BLE_SDK/GD32VW55x_RELEASE_V1.0.2/MSDK/plf/GD32VW55x_standard_peripheral/Source\gd32vw55x_rcu.c **** /*!
 777:C:/Users/stapi/OneDrive/Desktop/GD32VW553/GD32VW55X_Wifi_BLE_SDK/GD32VW55x_RELEASE_V1.0.2/MSDK/plf/GD32VW55x_standard_peripheral/Source\gd32vw55x_rcu.c ****     \brief      configure the LXTAL drive capability
 778:C:/Users/stapi/OneDrive/Desktop/GD32VW553/GD32VW55X_Wifi_BLE_SDK/GD32VW55x_RELEASE_V1.0.2/MSDK/plf/GD32VW55x_standard_peripheral/Source\gd32vw55x_rcu.c ****     \param[in]  lxtal_dricap: drive capability of LXTAL
 779:C:/Users/stapi/OneDrive/Desktop/GD32VW553/GD32VW55X_Wifi_BLE_SDK/GD32VW55x_RELEASE_V1.0.2/MSDK/plf/GD32VW55x_standard_peripheral/Source\gd32vw55x_rcu.c ****                 only one parameter can be selected which is shown as below:
 780:C:/Users/stapi/OneDrive/Desktop/GD32VW553/GD32VW55X_Wifi_BLE_SDK/GD32VW55x_RELEASE_V1.0.2/MSDK/plf/GD32VW55x_standard_peripheral/Source\gd32vw55x_rcu.c ****       \arg        RCU_LXTALDRI_LOWER_DRIVE: lower driving capability
 781:C:/Users/stapi/OneDrive/Desktop/GD32VW553/GD32VW55X_Wifi_BLE_SDK/GD32VW55x_RELEASE_V1.0.2/MSDK/plf/GD32VW55x_standard_peripheral/Source\gd32vw55x_rcu.c ****       \arg        RCU_LXTALDRI_HIGH_DRIVE: high driving capability
 782:C:/Users/stapi/OneDrive/Desktop/GD32VW553/GD32VW55X_Wifi_BLE_SDK/GD32VW55x_RELEASE_V1.0.2/MSDK/plf/GD32VW55x_standard_peripheral/Source\gd32vw55x_rcu.c ****       \arg        RCU_LXTALDRI_HIGHER_DRIVE: higher driving capability
 783:C:/Users/stapi/OneDrive/Desktop/GD32VW553/GD32VW55X_Wifi_BLE_SDK/GD32VW55x_RELEASE_V1.0.2/MSDK/plf/GD32VW55x_standard_peripheral/Source\gd32vw55x_rcu.c ****       \arg        RCU_LXTALDRI_HIGHEST_DRIVE: highest driving capability
 784:C:/Users/stapi/OneDrive/Desktop/GD32VW553/GD32VW55X_Wifi_BLE_SDK/GD32VW55x_RELEASE_V1.0.2/MSDK/plf/GD32VW55x_standard_peripheral/Source\gd32vw55x_rcu.c ****     \param[out] none
 785:C:/Users/stapi/OneDrive/Desktop/GD32VW553/GD32VW55X_Wifi_BLE_SDK/GD32VW55x_RELEASE_V1.0.2/MSDK/plf/GD32VW55x_standard_peripheral/Source\gd32vw55x_rcu.c ****     \retval     none
 786:C:/Users/stapi/OneDrive/Desktop/GD32VW553/GD32VW55X_Wifi_BLE_SDK/GD32VW55x_RELEASE_V1.0.2/MSDK/plf/GD32VW55x_standard_peripheral/Source\gd32vw55x_rcu.c **** */
 787:C:/Users/stapi/OneDrive/Desktop/GD32VW553/GD32VW55X_Wifi_BLE_SDK/GD32VW55x_RELEASE_V1.0.2/MSDK/plf/GD32VW55x_standard_peripheral/Source\gd32vw55x_rcu.c **** void rcu_lxtal_drive_capability_config(uint32_t lxtal_dricap)
 788:C:/Users/stapi/OneDrive/Desktop/GD32VW553/GD32VW55X_Wifi_BLE_SDK/GD32VW55x_RELEASE_V1.0.2/MSDK/plf/GD32VW55x_standard_peripheral/Source\gd32vw55x_rcu.c **** {
 832              		.loc 1 788 1 is_stmt 1
 833              		.cfi_startproc
 834              	.LVL55:
 789:C:/Users/stapi/OneDrive/Desktop/GD32VW553/GD32VW55X_Wifi_BLE_SDK/GD32VW55x_RELEASE_V1.0.2/MSDK/plf/GD32VW55x_standard_peripheral/Source\gd32vw55x_rcu.c ****     uint32_t reg;
 835              		.loc 1 789 5
 790:C:/Users/stapi/OneDrive/Desktop/GD32VW553/GD32VW55X_Wifi_BLE_SDK/GD32VW55x_RELEASE_V1.0.2/MSDK/plf/GD32VW55x_standard_peripheral/Source\gd32vw55x_rcu.c **** 
 791:C:/Users/stapi/OneDrive/Desktop/GD32VW553/GD32VW55X_Wifi_BLE_SDK/GD32VW55x_RELEASE_V1.0.2/MSDK/plf/GD32VW55x_standard_peripheral/Source\gd32vw55x_rcu.c ****     reg = RCU_BDCTL;
 836              		.loc 1 791 5
 837              		.loc 1 791 9 is_stmt 0
 838 0000 37470240 		li	a4,1073889280
 839 0004 83270787 		lw	a5,-1936(a4)
 840              	.LVL56:
 792:C:/Users/stapi/OneDrive/Desktop/GD32VW553/GD32VW55X_Wifi_BLE_SDK/GD32VW55x_RELEASE_V1.0.2/MSDK/plf/GD32VW55x_standard_peripheral/Source\gd32vw55x_rcu.c **** 
 793:C:/Users/stapi/OneDrive/Desktop/GD32VW553/GD32VW55X_Wifi_BLE_SDK/GD32VW55x_RELEASE_V1.0.2/MSDK/plf/GD32VW55x_standard_peripheral/Source\gd32vw55x_rcu.c ****     /* reset the LXTALDRI bits and set according to lxtal_dricap */
 794:C:/Users/stapi/OneDrive/Desktop/GD32VW553/GD32VW55X_Wifi_BLE_SDK/GD32VW55x_RELEASE_V1.0.2/MSDK/plf/GD32VW55x_standard_peripheral/Source\gd32vw55x_rcu.c ****     reg &= ~RCU_BDCTL_LXTALDRI;
 841              		.loc 1 794 5 is_stmt 1
 795:C:/Users/stapi/OneDrive/Desktop/GD32VW553/GD32VW55X_Wifi_BLE_SDK/GD32VW55x_RELEASE_V1.0.2/MSDK/plf/GD32VW55x_standard_peripheral/Source\gd32vw55x_rcu.c ****     RCU_BDCTL = (reg | lxtal_dricap);
 842              		.loc 1 795 5
 794:C:/Users/stapi/OneDrive/Desktop/GD32VW553/GD32VW55X_Wifi_BLE_SDK/GD32VW55x_RELEASE_V1.0.2/MSDK/plf/GD32VW55x_standard_peripheral/Source\gd32vw55x_rcu.c ****     RCU_BDCTL = (reg | lxtal_dricap);
 843              		.loc 1 794 9 is_stmt 0
 844 0008 9D9B     		andi	a5,a5,-25
 845              	.LVL57:
 846              		.loc 1 795 22
 847 000a C98F     		or	a5,a5,a0
 848              	.LVL58:
 849              		.loc 1 795 15
 850 000c 2328F786 		sw	a5,-1936(a4)
 796:C:/Users/stapi/OneDrive/Desktop/GD32VW553/GD32VW55X_Wifi_BLE_SDK/GD32VW55x_RELEASE_V1.0.2/MSDK/plf/GD32VW55x_standard_peripheral/Source\gd32vw55x_rcu.c **** }
 851              		.loc 1 796 1
 852 0010 8280     		ret
 853              		.cfi_endproc
 854              	.LFE402:
 856              		.section	.text.rcu_osci_stab_wait,"ax",@progbits
 857              		.align	1
 858              		.globl	rcu_osci_stab_wait
 860              	rcu_osci_stab_wait:
 861              	.LFB403:
 797:C:/Users/stapi/OneDrive/Desktop/GD32VW553/GD32VW55X_Wifi_BLE_SDK/GD32VW55x_RELEASE_V1.0.2/MSDK/plf/GD32VW55x_standard_peripheral/Source\gd32vw55x_rcu.c **** 
 798:C:/Users/stapi/OneDrive/Desktop/GD32VW553/GD32VW55X_Wifi_BLE_SDK/GD32VW55x_RELEASE_V1.0.2/MSDK/plf/GD32VW55x_standard_peripheral/Source\gd32vw55x_rcu.c **** /*!
 799:C:/Users/stapi/OneDrive/Desktop/GD32VW553/GD32VW55X_Wifi_BLE_SDK/GD32VW55x_RELEASE_V1.0.2/MSDK/plf/GD32VW55x_standard_peripheral/Source\gd32vw55x_rcu.c ****     \brief      wait for oscillator stabilization flags is SET or oscillator startup is timeout
 800:C:/Users/stapi/OneDrive/Desktop/GD32VW553/GD32VW55X_Wifi_BLE_SDK/GD32VW55x_RELEASE_V1.0.2/MSDK/plf/GD32VW55x_standard_peripheral/Source\gd32vw55x_rcu.c ****     \param[in]  osci: oscillator types, refer to rcu_osci_type_enum
 801:C:/Users/stapi/OneDrive/Desktop/GD32VW553/GD32VW55X_Wifi_BLE_SDK/GD32VW55x_RELEASE_V1.0.2/MSDK/plf/GD32VW55x_standard_peripheral/Source\gd32vw55x_rcu.c ****                 only one parameter can be selected which is shown as below:
 802:C:/Users/stapi/OneDrive/Desktop/GD32VW553/GD32VW55X_Wifi_BLE_SDK/GD32VW55x_RELEASE_V1.0.2/MSDK/plf/GD32VW55x_standard_peripheral/Source\gd32vw55x_rcu.c ****       \arg        RCU_HXTAL: HXTAL
 803:C:/Users/stapi/OneDrive/Desktop/GD32VW553/GD32VW55X_Wifi_BLE_SDK/GD32VW55x_RELEASE_V1.0.2/MSDK/plf/GD32VW55x_standard_peripheral/Source\gd32vw55x_rcu.c ****       \arg        RCU_LXTAL: LXTAL
 804:C:/Users/stapi/OneDrive/Desktop/GD32VW553/GD32VW55X_Wifi_BLE_SDK/GD32VW55x_RELEASE_V1.0.2/MSDK/plf/GD32VW55x_standard_peripheral/Source\gd32vw55x_rcu.c ****       \arg        RCU_IRC16M: IRC16M
 805:C:/Users/stapi/OneDrive/Desktop/GD32VW553/GD32VW55X_Wifi_BLE_SDK/GD32VW55x_RELEASE_V1.0.2/MSDK/plf/GD32VW55x_standard_peripheral/Source\gd32vw55x_rcu.c ****       \arg        RCU_IRC32K: IRC32K
 806:C:/Users/stapi/OneDrive/Desktop/GD32VW553/GD32VW55X_Wifi_BLE_SDK/GD32VW55x_RELEASE_V1.0.2/MSDK/plf/GD32VW55x_standard_peripheral/Source\gd32vw55x_rcu.c ****       \arg        RCU_PLLDIG_CK: PLLDIG
 807:C:/Users/stapi/OneDrive/Desktop/GD32VW553/GD32VW55X_Wifi_BLE_SDK/GD32VW55x_RELEASE_V1.0.2/MSDK/plf/GD32VW55x_standard_peripheral/Source\gd32vw55x_rcu.c ****     \param[out] none
 808:C:/Users/stapi/OneDrive/Desktop/GD32VW553/GD32VW55X_Wifi_BLE_SDK/GD32VW55x_RELEASE_V1.0.2/MSDK/plf/GD32VW55x_standard_peripheral/Source\gd32vw55x_rcu.c ****     \retval     ErrStatus: SUCCESS or ERROR
 809:C:/Users/stapi/OneDrive/Desktop/GD32VW553/GD32VW55X_Wifi_BLE_SDK/GD32VW55x_RELEASE_V1.0.2/MSDK/plf/GD32VW55x_standard_peripheral/Source\gd32vw55x_rcu.c **** */
 810:C:/Users/stapi/OneDrive/Desktop/GD32VW553/GD32VW55X_Wifi_BLE_SDK/GD32VW55x_RELEASE_V1.0.2/MSDK/plf/GD32VW55x_standard_peripheral/Source\gd32vw55x_rcu.c **** ErrStatus rcu_osci_stab_wait(rcu_osci_type_enum osci)
 811:C:/Users/stapi/OneDrive/Desktop/GD32VW553/GD32VW55X_Wifi_BLE_SDK/GD32VW55x_RELEASE_V1.0.2/MSDK/plf/GD32VW55x_standard_peripheral/Source\gd32vw55x_rcu.c **** {
 862              		.loc 1 811 1 is_stmt 1
 863              		.cfi_startproc
 864              	.LVL59:
 865 0000 17030000 		call	t0,__riscv_save_2
 865      E7020300 
 866              		.cfi_offset 9, -12
 867              		.cfi_offset 8, -8
 868              		.cfi_offset 1, -4
 869              		.cfi_def_cfa_offset 16
 812:C:/Users/stapi/OneDrive/Desktop/GD32VW553/GD32VW55X_Wifi_BLE_SDK/GD32VW55x_RELEASE_V1.0.2/MSDK/plf/GD32VW55x_standard_peripheral/Source\gd32vw55x_rcu.c ****     uint32_t stb_cnt = 0U;
 870              		.loc 1 812 5
 871              	.LVL60:
 813:C:/Users/stapi/OneDrive/Desktop/GD32VW553/GD32VW55X_Wifi_BLE_SDK/GD32VW55x_RELEASE_V1.0.2/MSDK/plf/GD32VW55x_standard_peripheral/Source\gd32vw55x_rcu.c ****     ErrStatus reval = ERROR;
 872              		.loc 1 813 5
 814:C:/Users/stapi/OneDrive/Desktop/GD32VW553/GD32VW55X_Wifi_BLE_SDK/GD32VW55x_RELEASE_V1.0.2/MSDK/plf/GD32VW55x_standard_peripheral/Source\gd32vw55x_rcu.c ****     FlagStatus osci_stat = RESET;
 873              		.loc 1 814 5
 815:C:/Users/stapi/OneDrive/Desktop/GD32VW553/GD32VW55X_Wifi_BLE_SDK/GD32VW55x_RELEASE_V1.0.2/MSDK/plf/GD32VW55x_standard_peripheral/Source\gd32vw55x_rcu.c **** 
 816:C:/Users/stapi/OneDrive/Desktop/GD32VW553/GD32VW55X_Wifi_BLE_SDK/GD32VW55x_RELEASE_V1.0.2/MSDK/plf/GD32VW55x_standard_peripheral/Source\gd32vw55x_rcu.c ****     switch(osci){
 874              		.loc 1 816 5
 875 0008 D547     		li	a5,21
 876 000a 6306F50A 		beq	a0,a5,.L62
 877 000e 63EDA700 		bgtu	a0,a5,.L51
 878 0012 51C5     		beq	a0,zero,.L63
 879 0014 4164     		li	s0,65536
 880 0016 C147     		li	a5,16
 881 0018 7D14     		addi	s0,s0,-1
 882 001a 6301F504 		beq	a0,a5,.L53
 883              	.L76:
 884 001e 0145     		li	a0,0
 885              	.LVL61:
 886              	.L49:
 817:C:/Users/stapi/OneDrive/Desktop/GD32VW553/GD32VW55X_Wifi_BLE_SDK/GD32VW55x_RELEASE_V1.0.2/MSDK/plf/GD32VW55x_standard_peripheral/Source\gd32vw55x_rcu.c ****     /* wait HXTAL stable */
 818:C:/Users/stapi/OneDrive/Desktop/GD32VW553/GD32VW55X_Wifi_BLE_SDK/GD32VW55x_RELEASE_V1.0.2/MSDK/plf/GD32VW55x_standard_peripheral/Source\gd32vw55x_rcu.c ****     case RCU_HXTAL:
 819:C:/Users/stapi/OneDrive/Desktop/GD32VW553/GD32VW55X_Wifi_BLE_SDK/GD32VW55x_RELEASE_V1.0.2/MSDK/plf/GD32VW55x_standard_peripheral/Source\gd32vw55x_rcu.c ****         while((RESET == osci_stat) && (HXTAL_STARTUP_TIMEOUT != stb_cnt)){
 820:C:/Users/stapi/OneDrive/Desktop/GD32VW553/GD32VW55X_Wifi_BLE_SDK/GD32VW55x_RELEASE_V1.0.2/MSDK/plf/GD32VW55x_standard_peripheral/Source\gd32vw55x_rcu.c ****             osci_stat = rcu_flag_get(RCU_FLAG_HXTALSTB);
 821:C:/Users/stapi/OneDrive/Desktop/GD32VW553/GD32VW55X_Wifi_BLE_SDK/GD32VW55x_RELEASE_V1.0.2/MSDK/plf/GD32VW55x_standard_peripheral/Source\gd32vw55x_rcu.c ****             stb_cnt++;
 822:C:/Users/stapi/OneDrive/Desktop/GD32VW553/GD32VW55X_Wifi_BLE_SDK/GD32VW55x_RELEASE_V1.0.2/MSDK/plf/GD32VW55x_standard_peripheral/Source\gd32vw55x_rcu.c ****         }
 823:C:/Users/stapi/OneDrive/Desktop/GD32VW553/GD32VW55X_Wifi_BLE_SDK/GD32VW55x_RELEASE_V1.0.2/MSDK/plf/GD32VW55x_standard_peripheral/Source\gd32vw55x_rcu.c **** 
 824:C:/Users/stapi/OneDrive/Desktop/GD32VW553/GD32VW55X_Wifi_BLE_SDK/GD32VW55x_RELEASE_V1.0.2/MSDK/plf/GD32VW55x_standard_peripheral/Source\gd32vw55x_rcu.c ****         /* check whether flag is set */
 825:C:/Users/stapi/OneDrive/Desktop/GD32VW553/GD32VW55X_Wifi_BLE_SDK/GD32VW55x_RELEASE_V1.0.2/MSDK/plf/GD32VW55x_standard_peripheral/Source\gd32vw55x_rcu.c ****         if(RESET != rcu_flag_get(RCU_FLAG_HXTALSTB)){
 826:C:/Users/stapi/OneDrive/Desktop/GD32VW553/GD32VW55X_Wifi_BLE_SDK/GD32VW55x_RELEASE_V1.0.2/MSDK/plf/GD32VW55x_standard_peripheral/Source\gd32vw55x_rcu.c ****             reval = SUCCESS;
 827:C:/Users/stapi/OneDrive/Desktop/GD32VW553/GD32VW55X_Wifi_BLE_SDK/GD32VW55x_RELEASE_V1.0.2/MSDK/plf/GD32VW55x_standard_peripheral/Source\gd32vw55x_rcu.c ****         }
 828:C:/Users/stapi/OneDrive/Desktop/GD32VW553/GD32VW55X_Wifi_BLE_SDK/GD32VW55x_RELEASE_V1.0.2/MSDK/plf/GD32VW55x_standard_peripheral/Source\gd32vw55x_rcu.c ****         break;
 829:C:/Users/stapi/OneDrive/Desktop/GD32VW553/GD32VW55X_Wifi_BLE_SDK/GD32VW55x_RELEASE_V1.0.2/MSDK/plf/GD32VW55x_standard_peripheral/Source\gd32vw55x_rcu.c ****     /* wait LXTAL stable */
 830:C:/Users/stapi/OneDrive/Desktop/GD32VW553/GD32VW55X_Wifi_BLE_SDK/GD32VW55x_RELEASE_V1.0.2/MSDK/plf/GD32VW55x_standard_peripheral/Source\gd32vw55x_rcu.c ****     case RCU_LXTAL:
 831:C:/Users/stapi/OneDrive/Desktop/GD32VW553/GD32VW55X_Wifi_BLE_SDK/GD32VW55x_RELEASE_V1.0.2/MSDK/plf/GD32VW55x_standard_peripheral/Source\gd32vw55x_rcu.c ****         while((RESET == osci_stat) && (LXTAL_STARTUP_TIMEOUT != stb_cnt)){
 832:C:/Users/stapi/OneDrive/Desktop/GD32VW553/GD32VW55X_Wifi_BLE_SDK/GD32VW55x_RELEASE_V1.0.2/MSDK/plf/GD32VW55x_standard_peripheral/Source\gd32vw55x_rcu.c ****             osci_stat = rcu_flag_get(RCU_FLAG_LXTALSTB);
 833:C:/Users/stapi/OneDrive/Desktop/GD32VW553/GD32VW55X_Wifi_BLE_SDK/GD32VW55x_RELEASE_V1.0.2/MSDK/plf/GD32VW55x_standard_peripheral/Source\gd32vw55x_rcu.c ****             stb_cnt++;
 834:C:/Users/stapi/OneDrive/Desktop/GD32VW553/GD32VW55X_Wifi_BLE_SDK/GD32VW55x_RELEASE_V1.0.2/MSDK/plf/GD32VW55x_standard_peripheral/Source\gd32vw55x_rcu.c ****         }
 835:C:/Users/stapi/OneDrive/Desktop/GD32VW553/GD32VW55X_Wifi_BLE_SDK/GD32VW55x_RELEASE_V1.0.2/MSDK/plf/GD32VW55x_standard_peripheral/Source\gd32vw55x_rcu.c **** 
 836:C:/Users/stapi/OneDrive/Desktop/GD32VW553/GD32VW55X_Wifi_BLE_SDK/GD32VW55x_RELEASE_V1.0.2/MSDK/plf/GD32VW55x_standard_peripheral/Source\gd32vw55x_rcu.c ****         /* check whether flag is set */
 837:C:/Users/stapi/OneDrive/Desktop/GD32VW553/GD32VW55X_Wifi_BLE_SDK/GD32VW55x_RELEASE_V1.0.2/MSDK/plf/GD32VW55x_standard_peripheral/Source\gd32vw55x_rcu.c ****         if(RESET != rcu_flag_get(RCU_FLAG_LXTALSTB)){
 838:C:/Users/stapi/OneDrive/Desktop/GD32VW553/GD32VW55X_Wifi_BLE_SDK/GD32VW55x_RELEASE_V1.0.2/MSDK/plf/GD32VW55x_standard_peripheral/Source\gd32vw55x_rcu.c ****             reval = SUCCESS;
 839:C:/Users/stapi/OneDrive/Desktop/GD32VW553/GD32VW55X_Wifi_BLE_SDK/GD32VW55x_RELEASE_V1.0.2/MSDK/plf/GD32VW55x_standard_peripheral/Source\gd32vw55x_rcu.c ****         }
 840:C:/Users/stapi/OneDrive/Desktop/GD32VW553/GD32VW55X_Wifi_BLE_SDK/GD32VW55x_RELEASE_V1.0.2/MSDK/plf/GD32VW55x_standard_peripheral/Source\gd32vw55x_rcu.c ****         break;
 841:C:/Users/stapi/OneDrive/Desktop/GD32VW553/GD32VW55X_Wifi_BLE_SDK/GD32VW55x_RELEASE_V1.0.2/MSDK/plf/GD32VW55x_standard_peripheral/Source\gd32vw55x_rcu.c ****     /* wait IRC16M stable */
 842:C:/Users/stapi/OneDrive/Desktop/GD32VW553/GD32VW55X_Wifi_BLE_SDK/GD32VW55x_RELEASE_V1.0.2/MSDK/plf/GD32VW55x_standard_peripheral/Source\gd32vw55x_rcu.c ****     case RCU_IRC16M:
 843:C:/Users/stapi/OneDrive/Desktop/GD32VW553/GD32VW55X_Wifi_BLE_SDK/GD32VW55x_RELEASE_V1.0.2/MSDK/plf/GD32VW55x_standard_peripheral/Source\gd32vw55x_rcu.c ****         while((RESET == osci_stat) && (IRC16M_STARTUP_TIMEOUT != stb_cnt)){
 844:C:/Users/stapi/OneDrive/Desktop/GD32VW553/GD32VW55X_Wifi_BLE_SDK/GD32VW55x_RELEASE_V1.0.2/MSDK/plf/GD32VW55x_standard_peripheral/Source\gd32vw55x_rcu.c ****             osci_stat = rcu_flag_get(RCU_FLAG_IRC16MSTB);
 845:C:/Users/stapi/OneDrive/Desktop/GD32VW553/GD32VW55X_Wifi_BLE_SDK/GD32VW55x_RELEASE_V1.0.2/MSDK/plf/GD32VW55x_standard_peripheral/Source\gd32vw55x_rcu.c ****             stb_cnt++;
 846:C:/Users/stapi/OneDrive/Desktop/GD32VW553/GD32VW55X_Wifi_BLE_SDK/GD32VW55x_RELEASE_V1.0.2/MSDK/plf/GD32VW55x_standard_peripheral/Source\gd32vw55x_rcu.c ****         }
 847:C:/Users/stapi/OneDrive/Desktop/GD32VW553/GD32VW55X_Wifi_BLE_SDK/GD32VW55x_RELEASE_V1.0.2/MSDK/plf/GD32VW55x_standard_peripheral/Source\gd32vw55x_rcu.c **** 
 848:C:/Users/stapi/OneDrive/Desktop/GD32VW553/GD32VW55X_Wifi_BLE_SDK/GD32VW55x_RELEASE_V1.0.2/MSDK/plf/GD32VW55x_standard_peripheral/Source\gd32vw55x_rcu.c ****         /* check whether flag is set */
 849:C:/Users/stapi/OneDrive/Desktop/GD32VW553/GD32VW55X_Wifi_BLE_SDK/GD32VW55x_RELEASE_V1.0.2/MSDK/plf/GD32VW55x_standard_peripheral/Source\gd32vw55x_rcu.c ****         if(RESET != rcu_flag_get(RCU_FLAG_IRC16MSTB)){
 850:C:/Users/stapi/OneDrive/Desktop/GD32VW553/GD32VW55X_Wifi_BLE_SDK/GD32VW55x_RELEASE_V1.0.2/MSDK/plf/GD32VW55x_standard_peripheral/Source\gd32vw55x_rcu.c ****             reval = SUCCESS;
 851:C:/Users/stapi/OneDrive/Desktop/GD32VW553/GD32VW55X_Wifi_BLE_SDK/GD32VW55x_RELEASE_V1.0.2/MSDK/plf/GD32VW55x_standard_peripheral/Source\gd32vw55x_rcu.c ****         }
 852:C:/Users/stapi/OneDrive/Desktop/GD32VW553/GD32VW55X_Wifi_BLE_SDK/GD32VW55x_RELEASE_V1.0.2/MSDK/plf/GD32VW55x_standard_peripheral/Source\gd32vw55x_rcu.c ****         break;
 853:C:/Users/stapi/OneDrive/Desktop/GD32VW553/GD32VW55X_Wifi_BLE_SDK/GD32VW55x_RELEASE_V1.0.2/MSDK/plf/GD32VW55x_standard_peripheral/Source\gd32vw55x_rcu.c ****     /* wait IRC32K stable */
 854:C:/Users/stapi/OneDrive/Desktop/GD32VW553/GD32VW55X_Wifi_BLE_SDK/GD32VW55x_RELEASE_V1.0.2/MSDK/plf/GD32VW55x_standard_peripheral/Source\gd32vw55x_rcu.c ****     case RCU_IRC32K:
 855:C:/Users/stapi/OneDrive/Desktop/GD32VW553/GD32VW55X_Wifi_BLE_SDK/GD32VW55x_RELEASE_V1.0.2/MSDK/plf/GD32VW55x_standard_peripheral/Source\gd32vw55x_rcu.c ****         while((RESET == osci_stat) && (OSC_STARTUP_TIMEOUT != stb_cnt)){
 856:C:/Users/stapi/OneDrive/Desktop/GD32VW553/GD32VW55X_Wifi_BLE_SDK/GD32VW55x_RELEASE_V1.0.2/MSDK/plf/GD32VW55x_standard_peripheral/Source\gd32vw55x_rcu.c ****             osci_stat = rcu_flag_get(RCU_FLAG_IRC32KSTB);
 857:C:/Users/stapi/OneDrive/Desktop/GD32VW553/GD32VW55X_Wifi_BLE_SDK/GD32VW55x_RELEASE_V1.0.2/MSDK/plf/GD32VW55x_standard_peripheral/Source\gd32vw55x_rcu.c ****             stb_cnt++;
 858:C:/Users/stapi/OneDrive/Desktop/GD32VW553/GD32VW55X_Wifi_BLE_SDK/GD32VW55x_RELEASE_V1.0.2/MSDK/plf/GD32VW55x_standard_peripheral/Source\gd32vw55x_rcu.c ****         }
 859:C:/Users/stapi/OneDrive/Desktop/GD32VW553/GD32VW55X_Wifi_BLE_SDK/GD32VW55x_RELEASE_V1.0.2/MSDK/plf/GD32VW55x_standard_peripheral/Source\gd32vw55x_rcu.c **** 
 860:C:/Users/stapi/OneDrive/Desktop/GD32VW553/GD32VW55X_Wifi_BLE_SDK/GD32VW55x_RELEASE_V1.0.2/MSDK/plf/GD32VW55x_standard_peripheral/Source\gd32vw55x_rcu.c ****         /* check whether flag is set */
 861:C:/Users/stapi/OneDrive/Desktop/GD32VW553/GD32VW55X_Wifi_BLE_SDK/GD32VW55x_RELEASE_V1.0.2/MSDK/plf/GD32VW55x_standard_peripheral/Source\gd32vw55x_rcu.c ****         if(RESET != rcu_flag_get(RCU_FLAG_IRC32KSTB)){
 862:C:/Users/stapi/OneDrive/Desktop/GD32VW553/GD32VW55X_Wifi_BLE_SDK/GD32VW55x_RELEASE_V1.0.2/MSDK/plf/GD32VW55x_standard_peripheral/Source\gd32vw55x_rcu.c ****             reval = SUCCESS;
 863:C:/Users/stapi/OneDrive/Desktop/GD32VW553/GD32VW55X_Wifi_BLE_SDK/GD32VW55x_RELEASE_V1.0.2/MSDK/plf/GD32VW55x_standard_peripheral/Source\gd32vw55x_rcu.c ****         }
 864:C:/Users/stapi/OneDrive/Desktop/GD32VW553/GD32VW55X_Wifi_BLE_SDK/GD32VW55x_RELEASE_V1.0.2/MSDK/plf/GD32VW55x_standard_peripheral/Source\gd32vw55x_rcu.c ****         break;
 865:C:/Users/stapi/OneDrive/Desktop/GD32VW553/GD32VW55X_Wifi_BLE_SDK/GD32VW55x_RELEASE_V1.0.2/MSDK/plf/GD32VW55x_standard_peripheral/Source\gd32vw55x_rcu.c ****     /* wait PLLDIG stable */
 866:C:/Users/stapi/OneDrive/Desktop/GD32VW553/GD32VW55X_Wifi_BLE_SDK/GD32VW55x_RELEASE_V1.0.2/MSDK/plf/GD32VW55x_standard_peripheral/Source\gd32vw55x_rcu.c ****     case RCU_PLLDIG_CK:
 867:C:/Users/stapi/OneDrive/Desktop/GD32VW553/GD32VW55X_Wifi_BLE_SDK/GD32VW55x_RELEASE_V1.0.2/MSDK/plf/GD32VW55x_standard_peripheral/Source\gd32vw55x_rcu.c ****         while((RESET == osci_stat) && (OSC_STARTUP_TIMEOUT != stb_cnt)){
 868:C:/Users/stapi/OneDrive/Desktop/GD32VW553/GD32VW55X_Wifi_BLE_SDK/GD32VW55x_RELEASE_V1.0.2/MSDK/plf/GD32VW55x_standard_peripheral/Source\gd32vw55x_rcu.c ****             osci_stat = rcu_flag_get(RCU_FLAG_PLLDIGSTB);
 869:C:/Users/stapi/OneDrive/Desktop/GD32VW553/GD32VW55X_Wifi_BLE_SDK/GD32VW55x_RELEASE_V1.0.2/MSDK/plf/GD32VW55x_standard_peripheral/Source\gd32vw55x_rcu.c ****             stb_cnt++;
 870:C:/Users/stapi/OneDrive/Desktop/GD32VW553/GD32VW55X_Wifi_BLE_SDK/GD32VW55x_RELEASE_V1.0.2/MSDK/plf/GD32VW55x_standard_peripheral/Source\gd32vw55x_rcu.c ****         }
 871:C:/Users/stapi/OneDrive/Desktop/GD32VW553/GD32VW55X_Wifi_BLE_SDK/GD32VW55x_RELEASE_V1.0.2/MSDK/plf/GD32VW55x_standard_peripheral/Source\gd32vw55x_rcu.c **** 
 872:C:/Users/stapi/OneDrive/Desktop/GD32VW553/GD32VW55X_Wifi_BLE_SDK/GD32VW55x_RELEASE_V1.0.2/MSDK/plf/GD32VW55x_standard_peripheral/Source\gd32vw55x_rcu.c ****         /* check whether flag is set */
 873:C:/Users/stapi/OneDrive/Desktop/GD32VW553/GD32VW55X_Wifi_BLE_SDK/GD32VW55x_RELEASE_V1.0.2/MSDK/plf/GD32VW55x_standard_peripheral/Source\gd32vw55x_rcu.c ****         if(RESET != rcu_flag_get(RCU_FLAG_PLLDIGSTB)){
 874:C:/Users/stapi/OneDrive/Desktop/GD32VW553/GD32VW55X_Wifi_BLE_SDK/GD32VW55x_RELEASE_V1.0.2/MSDK/plf/GD32VW55x_standard_peripheral/Source\gd32vw55x_rcu.c ****             reval = SUCCESS;
 875:C:/Users/stapi/OneDrive/Desktop/GD32VW553/GD32VW55X_Wifi_BLE_SDK/GD32VW55x_RELEASE_V1.0.2/MSDK/plf/GD32VW55x_standard_peripheral/Source\gd32vw55x_rcu.c ****         }
 876:C:/Users/stapi/OneDrive/Desktop/GD32VW553/GD32VW55X_Wifi_BLE_SDK/GD32VW55x_RELEASE_V1.0.2/MSDK/plf/GD32VW55x_standard_peripheral/Source\gd32vw55x_rcu.c ****         break;
 877:C:/Users/stapi/OneDrive/Desktop/GD32VW553/GD32VW55X_Wifi_BLE_SDK/GD32VW55x_RELEASE_V1.0.2/MSDK/plf/GD32VW55x_standard_peripheral/Source\gd32vw55x_rcu.c ****     default:
 878:C:/Users/stapi/OneDrive/Desktop/GD32VW553/GD32VW55X_Wifi_BLE_SDK/GD32VW55x_RELEASE_V1.0.2/MSDK/plf/GD32VW55x_standard_peripheral/Source\gd32vw55x_rcu.c ****         break;
 879:C:/Users/stapi/OneDrive/Desktop/GD32VW553/GD32VW55X_Wifi_BLE_SDK/GD32VW55x_RELEASE_V1.0.2/MSDK/plf/GD32VW55x_standard_peripheral/Source\gd32vw55x_rcu.c ****     }
 880:C:/Users/stapi/OneDrive/Desktop/GD32VW553/GD32VW55X_Wifi_BLE_SDK/GD32VW55x_RELEASE_V1.0.2/MSDK/plf/GD32VW55x_standard_peripheral/Source\gd32vw55x_rcu.c **** 
 881:C:/Users/stapi/OneDrive/Desktop/GD32VW553/GD32VW55X_Wifi_BLE_SDK/GD32VW55x_RELEASE_V1.0.2/MSDK/plf/GD32VW55x_standard_peripheral/Source\gd32vw55x_rcu.c ****     /* return value */
 882:C:/Users/stapi/OneDrive/Desktop/GD32VW553/GD32VW55X_Wifi_BLE_SDK/GD32VW55x_RELEASE_V1.0.2/MSDK/plf/GD32VW55x_standard_peripheral/Source\gd32vw55x_rcu.c ****     return reval;
 883:C:/Users/stapi/OneDrive/Desktop/GD32VW553/GD32VW55X_Wifi_BLE_SDK/GD32VW55x_RELEASE_V1.0.2/MSDK/plf/GD32VW55x_standard_peripheral/Source\gd32vw55x_rcu.c **** }
 887              		.loc 1 883 1 is_stmt 0
 888 0020 17030000 		tail	__riscv_restore_2
 888      67000300 
 889              		.cfi_remember_state
 890              		.cfi_restore 9
 891              		.cfi_restore 8
 892              		.cfi_restore 1
 893              		.cfi_def_cfa_offset 0
 894              	.LVL62:
 895              	.L51:
 896              		.cfi_restore_state
 816:C:/Users/stapi/OneDrive/Desktop/GD32VW553/GD32VW55X_Wifi_BLE_SDK/GD32VW55x_RELEASE_V1.0.2/MSDK/plf/GD32VW55x_standard_peripheral/Source\gd32vw55x_rcu.c ****     /* wait HXTAL stable */
 897              		.loc 1 816 5
 898 0028 8967     		li	a5,8192
 899 002a 138707C0 		addi	a4,a5,-1024
 900 002e 6307E504 		beq	a0,a4,.L65
 901 0032 B7041000 		li	s1,1048576
 902 0036 138707D0 		addi	a4,a5,-768
 903 003a FD14     		addi	s1,s1,-1
 856:C:/Users/stapi/OneDrive/Desktop/GD32VW553/GD32VW55X_Wifi_BLE_SDK/GD32VW55x_RELEASE_V1.0.2/MSDK/plf/GD32VW55x_standard_peripheral/Source\gd32vw55x_rcu.c ****             stb_cnt++;
 904              		.loc 1 856 25
 905 003c 138417D0 		addi	s0,a5,-767
 816:C:/Users/stapi/OneDrive/Desktop/GD32VW553/GD32VW55X_Wifi_BLE_SDK/GD32VW55x_RELEASE_V1.0.2/MSDK/plf/GD32VW55x_standard_peripheral/Source\gd32vw55x_rcu.c ****     /* wait HXTAL stable */
 906              		.loc 1 816 5
 907 0040 E31FE5FC 		bne	a0,a4,.L76
 908              	.LVL63:
 909              	.L56:
 856:C:/Users/stapi/OneDrive/Desktop/GD32VW553/GD32VW55X_Wifi_BLE_SDK/GD32VW55x_RELEASE_V1.0.2/MSDK/plf/GD32VW55x_standard_peripheral/Source\gd32vw55x_rcu.c ****             stb_cnt++;
 910              		.loc 1 856 13 is_stmt 1
 856:C:/Users/stapi/OneDrive/Desktop/GD32VW553/GD32VW55X_Wifi_BLE_SDK/GD32VW55x_RELEASE_V1.0.2/MSDK/plf/GD32VW55x_standard_peripheral/Source\gd32vw55x_rcu.c ****             stb_cnt++;
 911              		.loc 1 856 25 is_stmt 0
 912 0044 2285     		mv	a0,s0
 913 0046 97000000 		call	rcu_flag_get
 913      E7800000 
 914              	.LVL64:
 857:C:/Users/stapi/OneDrive/Desktop/GD32VW553/GD32VW55X_Wifi_BLE_SDK/GD32VW55x_RELEASE_V1.0.2/MSDK/plf/GD32VW55x_standard_peripheral/Source\gd32vw55x_rcu.c ****         }
 915              		.loc 1 857 13 is_stmt 1
 855:C:/Users/stapi/OneDrive/Desktop/GD32VW553/GD32VW55X_Wifi_BLE_SDK/GD32VW55x_RELEASE_V1.0.2/MSDK/plf/GD32VW55x_standard_peripheral/Source\gd32vw55x_rcu.c ****             osci_stat = rcu_flag_get(RCU_FLAG_IRC32KSTB);
 916              		.loc 1 855 14
 917 004e 19E1     		bne	a0,zero,.L60
 855:C:/Users/stapi/OneDrive/Desktop/GD32VW553/GD32VW55X_Wifi_BLE_SDK/GD32VW55x_RELEASE_V1.0.2/MSDK/plf/GD32VW55x_standard_peripheral/Source\gd32vw55x_rcu.c ****             osci_stat = rcu_flag_get(RCU_FLAG_IRC32KSTB);
 918              		.loc 1 855 36 is_stmt 0 discriminator 1
 919 0050 FD14     		addi	s1,s1,-1
 920              	.LVL65:
 921 0052 EDF8     		bne	s1,zero,.L56
 922              	.LVL66:
 923              	.L60:
 861:C:/Users/stapi/OneDrive/Desktop/GD32VW553/GD32VW55X_Wifi_BLE_SDK/GD32VW55x_RELEASE_V1.0.2/MSDK/plf/GD32VW55x_standard_peripheral/Source\gd32vw55x_rcu.c ****             reval = SUCCESS;
 924              		.loc 1 861 9 is_stmt 1
 861:C:/Users/stapi/OneDrive/Desktop/GD32VW553/GD32VW55X_Wifi_BLE_SDK/GD32VW55x_RELEASE_V1.0.2/MSDK/plf/GD32VW55x_standard_peripheral/Source\gd32vw55x_rcu.c ****             reval = SUCCESS;
 925              		.loc 1 861 21 is_stmt 0
 926 0054 0965     		li	a0,8192
 927              	.LVL67:
 928 0056 130515D0 		addi	a0,a0,-767
 929 005a 11A8     		j	.L75
 930              	.L53:
 931              	.LVL68:
 820:C:/Users/stapi/OneDrive/Desktop/GD32VW553/GD32VW55X_Wifi_BLE_SDK/GD32VW55x_RELEASE_V1.0.2/MSDK/plf/GD32VW55x_standard_peripheral/Source\gd32vw55x_rcu.c ****             stb_cnt++;
 932              		.loc 1 820 13 is_stmt 1
 820:C:/Users/stapi/OneDrive/Desktop/GD32VW553/GD32VW55X_Wifi_BLE_SDK/GD32VW55x_RELEASE_V1.0.2/MSDK/plf/GD32VW55x_standard_peripheral/Source\gd32vw55x_rcu.c ****             stb_cnt++;
 933              		.loc 1 820 25 is_stmt 0
 934 005c 4545     		li	a0,17
 935 005e 97000000 		call	rcu_flag_get
 935      E7800000 
 936              	.LVL69:
 821:C:/Users/stapi/OneDrive/Desktop/GD32VW553/GD32VW55X_Wifi_BLE_SDK/GD32VW55x_RELEASE_V1.0.2/MSDK/plf/GD32VW55x_standard_peripheral/Source\gd32vw55x_rcu.c ****         }
 937              		.loc 1 821 13 is_stmt 1
 819:C:/Users/stapi/OneDrive/Desktop/GD32VW553/GD32VW55X_Wifi_BLE_SDK/GD32VW55x_RELEASE_V1.0.2/MSDK/plf/GD32VW55x_standard_peripheral/Source\gd32vw55x_rcu.c ****             osci_stat = rcu_flag_get(RCU_FLAG_HXTALSTB);
 938              		.loc 1 819 14
 939 0066 19E1     		bne	a0,zero,.L57
 819:C:/Users/stapi/OneDrive/Desktop/GD32VW553/GD32VW55X_Wifi_BLE_SDK/GD32VW55x_RELEASE_V1.0.2/MSDK/plf/GD32VW55x_standard_peripheral/Source\gd32vw55x_rcu.c ****             osci_stat = rcu_flag_get(RCU_FLAG_HXTALSTB);
 940              		.loc 1 819 36 is_stmt 0 discriminator 1
 941 0068 7D14     		addi	s0,s0,-1
 942              	.LVL70:
 943 006a 6DF8     		bne	s0,zero,.L53
 944              	.LVL71:
 945              	.L57:
 825:C:/Users/stapi/OneDrive/Desktop/GD32VW553/GD32VW55X_Wifi_BLE_SDK/GD32VW55x_RELEASE_V1.0.2/MSDK/plf/GD32VW55x_standard_peripheral/Source\gd32vw55x_rcu.c ****             reval = SUCCESS;
 946              		.loc 1 825 9 is_stmt 1
 825:C:/Users/stapi/OneDrive/Desktop/GD32VW553/GD32VW55X_Wifi_BLE_SDK/GD32VW55x_RELEASE_V1.0.2/MSDK/plf/GD32VW55x_standard_peripheral/Source\gd32vw55x_rcu.c ****             reval = SUCCESS;
 947              		.loc 1 825 21 is_stmt 0
 948 006c 4545     		li	a0,17
 949              	.LVL72:
 950              	.L75:
 873:C:/Users/stapi/OneDrive/Desktop/GD32VW553/GD32VW55X_Wifi_BLE_SDK/GD32VW55x_RELEASE_V1.0.2/MSDK/plf/GD32VW55x_standard_peripheral/Source\gd32vw55x_rcu.c ****             reval = SUCCESS;
 951              		.loc 1 873 21
 952 006e 97000000 		call	rcu_flag_get
 952      E7800000 
 953              	.LVL73:
 873:C:/Users/stapi/OneDrive/Desktop/GD32VW553/GD32VW55X_Wifi_BLE_SDK/GD32VW55x_RELEASE_V1.0.2/MSDK/plf/GD32VW55x_standard_peripheral/Source\gd32vw55x_rcu.c ****             reval = SUCCESS;
 954              		.loc 1 873 11
 955 0076 3335A000 		snez	a0,a0
 956              	.LVL74:
 882:C:/Users/stapi/OneDrive/Desktop/GD32VW553/GD32VW55X_Wifi_BLE_SDK/GD32VW55x_RELEASE_V1.0.2/MSDK/plf/GD32VW55x_standard_peripheral/Source\gd32vw55x_rcu.c **** }
 957              		.loc 1 882 5 is_stmt 1
 882:C:/Users/stapi/OneDrive/Desktop/GD32VW553/GD32VW55X_Wifi_BLE_SDK/GD32VW55x_RELEASE_V1.0.2/MSDK/plf/GD32VW55x_standard_peripheral/Source\gd32vw55x_rcu.c **** }
 958              		.loc 1 882 12 is_stmt 0
 959 007a 5DB7     		j	.L49
 960              	.LVL75:
 961              	.L65:
 816:C:/Users/stapi/OneDrive/Desktop/GD32VW553/GD32VW55X_Wifi_BLE_SDK/GD32VW55x_RELEASE_V1.0.2/MSDK/plf/GD32VW55x_standard_peripheral/Source\gd32vw55x_rcu.c ****     /* wait HXTAL stable */
 962              		.loc 1 816 5
 963 007c B7040010 		li	s1,268435456
 964 0080 FD14     		addi	s1,s1,-1
 832:C:/Users/stapi/OneDrive/Desktop/GD32VW553/GD32VW55X_Wifi_BLE_SDK/GD32VW55x_RELEASE_V1.0.2/MSDK/plf/GD32VW55x_standard_peripheral/Source\gd32vw55x_rcu.c ****             stb_cnt++;
 965              		.loc 1 832 25
 966 0082 138417C0 		addi	s0,a5,-1023
 967              	.LVL76:
 968              	.L55:
 832:C:/Users/stapi/OneDrive/Desktop/GD32VW553/GD32VW55X_Wifi_BLE_SDK/GD32VW55x_RELEASE_V1.0.2/MSDK/plf/GD32VW55x_standard_peripheral/Source\gd32vw55x_rcu.c ****             stb_cnt++;
 969              		.loc 1 832 13 is_stmt 1
 832:C:/Users/stapi/OneDrive/Desktop/GD32VW553/GD32VW55X_Wifi_BLE_SDK/GD32VW55x_RELEASE_V1.0.2/MSDK/plf/GD32VW55x_standard_peripheral/Source\gd32vw55x_rcu.c ****             stb_cnt++;
 970              		.loc 1 832 25 is_stmt 0
 971 0086 2285     		mv	a0,s0
 972 0088 97000000 		call	rcu_flag_get
 972      E7800000 
 973              	.LVL77:
 833:C:/Users/stapi/OneDrive/Desktop/GD32VW553/GD32VW55X_Wifi_BLE_SDK/GD32VW55x_RELEASE_V1.0.2/MSDK/plf/GD32VW55x_standard_peripheral/Source\gd32vw55x_rcu.c ****         }
 974              		.loc 1 833 13 is_stmt 1
 831:C:/Users/stapi/OneDrive/Desktop/GD32VW553/GD32VW55X_Wifi_BLE_SDK/GD32VW55x_RELEASE_V1.0.2/MSDK/plf/GD32VW55x_standard_peripheral/Source\gd32vw55x_rcu.c ****             osci_stat = rcu_flag_get(RCU_FLAG_LXTALSTB);
 975              		.loc 1 831 14
 976 0090 19E1     		bne	a0,zero,.L58
 831:C:/Users/stapi/OneDrive/Desktop/GD32VW553/GD32VW55X_Wifi_BLE_SDK/GD32VW55x_RELEASE_V1.0.2/MSDK/plf/GD32VW55x_standard_peripheral/Source\gd32vw55x_rcu.c ****             osci_stat = rcu_flag_get(RCU_FLAG_LXTALSTB);
 977              		.loc 1 831 36 is_stmt 0 discriminator 1
 978 0092 FD14     		addi	s1,s1,-1
 979              	.LVL78:
 980 0094 EDF8     		bne	s1,zero,.L55
 981              	.LVL79:
 982              	.L58:
 837:C:/Users/stapi/OneDrive/Desktop/GD32VW553/GD32VW55X_Wifi_BLE_SDK/GD32VW55x_RELEASE_V1.0.2/MSDK/plf/GD32VW55x_standard_peripheral/Source\gd32vw55x_rcu.c ****             reval = SUCCESS;
 983              		.loc 1 837 9 is_stmt 1
 837:C:/Users/stapi/OneDrive/Desktop/GD32VW553/GD32VW55X_Wifi_BLE_SDK/GD32VW55x_RELEASE_V1.0.2/MSDK/plf/GD32VW55x_standard_peripheral/Source\gd32vw55x_rcu.c ****             reval = SUCCESS;
 984              		.loc 1 837 21 is_stmt 0
 985 0096 0965     		li	a0,8192
 986              	.LVL80:
 987 0098 130515C0 		addi	a0,a0,-1023
 988 009c C9BF     		j	.L75
 989              	.LVL81:
 990              	.L63:
 816:C:/Users/stapi/OneDrive/Desktop/GD32VW553/GD32VW55X_Wifi_BLE_SDK/GD32VW55x_RELEASE_V1.0.2/MSDK/plf/GD32VW55x_standard_peripheral/Source\gd32vw55x_rcu.c ****     /* wait HXTAL stable */
 991              		.loc 1 816 5
 992 009e 13040050 		li	s0,1280
 993              	.LVL82:
 994              	.L52:
 844:C:/Users/stapi/OneDrive/Desktop/GD32VW553/GD32VW55X_Wifi_BLE_SDK/GD32VW55x_RELEASE_V1.0.2/MSDK/plf/GD32VW55x_standard_peripheral/Source\gd32vw55x_rcu.c ****             stb_cnt++;
 995              		.loc 1 844 13 is_stmt 1
 844:C:/Users/stapi/OneDrive/Desktop/GD32VW553/GD32VW55X_Wifi_BLE_SDK/GD32VW55x_RELEASE_V1.0.2/MSDK/plf/GD32VW55x_standard_peripheral/Source\gd32vw55x_rcu.c ****             stb_cnt++;
 996              		.loc 1 844 25 is_stmt 0
 997 00a2 0545     		li	a0,1
 998 00a4 97000000 		call	rcu_flag_get
 998      E7800000 
 999              	.LVL83:
 845:C:/Users/stapi/OneDrive/Desktop/GD32VW553/GD32VW55X_Wifi_BLE_SDK/GD32VW55x_RELEASE_V1.0.2/MSDK/plf/GD32VW55x_standard_peripheral/Source\gd32vw55x_rcu.c ****         }
 1000              		.loc 1 845 13 is_stmt 1
 843:C:/Users/stapi/OneDrive/Desktop/GD32VW553/GD32VW55X_Wifi_BLE_SDK/GD32VW55x_RELEASE_V1.0.2/MSDK/plf/GD32VW55x_standard_peripheral/Source\gd32vw55x_rcu.c ****             osci_stat = rcu_flag_get(RCU_FLAG_IRC16MSTB);
 1001              		.loc 1 843 14
 1002 00ac 19E1     		bne	a0,zero,.L59
 843:C:/Users/stapi/OneDrive/Desktop/GD32VW553/GD32VW55X_Wifi_BLE_SDK/GD32VW55x_RELEASE_V1.0.2/MSDK/plf/GD32VW55x_standard_peripheral/Source\gd32vw55x_rcu.c ****             osci_stat = rcu_flag_get(RCU_FLAG_IRC16MSTB);
 1003              		.loc 1 843 36 is_stmt 0 discriminator 1
 1004 00ae 7D14     		addi	s0,s0,-1
 1005              	.LVL84:
 1006 00b0 6DF8     		bne	s0,zero,.L52
 1007              	.LVL85:
 1008              	.L59:
 849:C:/Users/stapi/OneDrive/Desktop/GD32VW553/GD32VW55X_Wifi_BLE_SDK/GD32VW55x_RELEASE_V1.0.2/MSDK/plf/GD32VW55x_standard_peripheral/Source\gd32vw55x_rcu.c ****             reval = SUCCESS;
 1009              		.loc 1 849 9 is_stmt 1
 849:C:/Users/stapi/OneDrive/Desktop/GD32VW553/GD32VW55X_Wifi_BLE_SDK/GD32VW55x_RELEASE_V1.0.2/MSDK/plf/GD32VW55x_standard_peripheral/Source\gd32vw55x_rcu.c ****             reval = SUCCESS;
 1010              		.loc 1 849 21 is_stmt 0
 1011 00b2 0545     		li	a0,1
 1012              	.LVL86:
 1013 00b4 6DBF     		j	.L75
 1014              	.LVL87:
 1015              	.L62:
 816:C:/Users/stapi/OneDrive/Desktop/GD32VW553/GD32VW55X_Wifi_BLE_SDK/GD32VW55x_RELEASE_V1.0.2/MSDK/plf/GD32VW55x_standard_peripheral/Source\gd32vw55x_rcu.c ****     /* wait HXTAL stable */
 1016              		.loc 1 816 5
 1017 00b6 37041000 		li	s0,1048576
 1018 00ba 7D14     		addi	s0,s0,-1
 1019              	.LVL88:
 1020              	.L50:
 868:C:/Users/stapi/OneDrive/Desktop/GD32VW553/GD32VW55X_Wifi_BLE_SDK/GD32VW55x_RELEASE_V1.0.2/MSDK/plf/GD32VW55x_standard_peripheral/Source\gd32vw55x_rcu.c ****             stb_cnt++;
 1021              		.loc 1 868 13 is_stmt 1
 868:C:/Users/stapi/OneDrive/Desktop/GD32VW553/GD32VW55X_Wifi_BLE_SDK/GD32VW55x_RELEASE_V1.0.2/MSDK/plf/GD32VW55x_standard_peripheral/Source\gd32vw55x_rcu.c ****             stb_cnt++;
 1022              		.loc 1 868 25 is_stmt 0
 1023 00bc 5D45     		li	a0,23
 1024 00be 97000000 		call	rcu_flag_get
 1024      E7800000 
 1025              	.LVL89:
 869:C:/Users/stapi/OneDrive/Desktop/GD32VW553/GD32VW55X_Wifi_BLE_SDK/GD32VW55x_RELEASE_V1.0.2/MSDK/plf/GD32VW55x_standard_peripheral/Source\gd32vw55x_rcu.c ****         }
 1026              		.loc 1 869 13 is_stmt 1
 867:C:/Users/stapi/OneDrive/Desktop/GD32VW553/GD32VW55X_Wifi_BLE_SDK/GD32VW55x_RELEASE_V1.0.2/MSDK/plf/GD32VW55x_standard_peripheral/Source\gd32vw55x_rcu.c ****             osci_stat = rcu_flag_get(RCU_FLAG_PLLDIGSTB);
 1027              		.loc 1 867 14
 1028 00c6 19E1     		bne	a0,zero,.L61
 867:C:/Users/stapi/OneDrive/Desktop/GD32VW553/GD32VW55X_Wifi_BLE_SDK/GD32VW55x_RELEASE_V1.0.2/MSDK/plf/GD32VW55x_standard_peripheral/Source\gd32vw55x_rcu.c ****             osci_stat = rcu_flag_get(RCU_FLAG_PLLDIGSTB);
 1029              		.loc 1 867 36 is_stmt 0 discriminator 1
 1030 00c8 7D14     		addi	s0,s0,-1
 1031              	.LVL90:
 1032 00ca 6DF8     		bne	s0,zero,.L50
 1033              	.LVL91:
 1034              	.L61:
 873:C:/Users/stapi/OneDrive/Desktop/GD32VW553/GD32VW55X_Wifi_BLE_SDK/GD32VW55x_RELEASE_V1.0.2/MSDK/plf/GD32VW55x_standard_peripheral/Source\gd32vw55x_rcu.c ****             reval = SUCCESS;
 1035              		.loc 1 873 9 is_stmt 1
 873:C:/Users/stapi/OneDrive/Desktop/GD32VW553/GD32VW55X_Wifi_BLE_SDK/GD32VW55x_RELEASE_V1.0.2/MSDK/plf/GD32VW55x_standard_peripheral/Source\gd32vw55x_rcu.c ****             reval = SUCCESS;
 1036              		.loc 1 873 21 is_stmt 0
 1037 00cc 5D45     		li	a0,23
 1038              	.LVL92:
 1039 00ce 45B7     		j	.L75
 1040              		.cfi_endproc
 1041              	.LFE403:
 1043              		.section	.text.rcu_deinit,"ax",@progbits
 1044              		.align	1
 1045              		.globl	rcu_deinit
 1047              	rcu_deinit:
 1048              	.LFB365:
  57:C:/Users/stapi/OneDrive/Desktop/GD32VW553/GD32VW55X_Wifi_BLE_SDK/GD32VW55x_RELEASE_V1.0.2/MSDK/plf/GD32VW55x_standard_peripheral/Source\gd32vw55x_rcu.c ****     /* enable IRC16M */
 1049              		.loc 1 57 1 is_stmt 1
 1050              		.cfi_startproc
 1051 0000 17030000 		call	t0,__riscv_save_2
 1051      E7020300 
 1052              		.cfi_offset 9, -12
 1053              		.cfi_offset 8, -8
 1054              		.cfi_offset 1, -4
 1055              		.cfi_def_cfa_offset 16
  59:C:/Users/stapi/OneDrive/Desktop/GD32VW553/GD32VW55X_Wifi_BLE_SDK/GD32VW55x_RELEASE_V1.0.2/MSDK/plf/GD32VW55x_standard_peripheral/Source\gd32vw55x_rcu.c ****     rcu_osci_stab_wait(RCU_IRC16M);
 1056              		.loc 1 59 5
  59:C:/Users/stapi/OneDrive/Desktop/GD32VW553/GD32VW55X_Wifi_BLE_SDK/GD32VW55x_RELEASE_V1.0.2/MSDK/plf/GD32VW55x_standard_peripheral/Source\gd32vw55x_rcu.c ****     rcu_osci_stab_wait(RCU_IRC16M);
 1057              		.loc 1 59 13 is_stmt 0
 1058 0008 B7440240 		li	s1,1073889280
 1059 000c 13840480 		addi	s0,s1,-2048
 1060 0010 1C40     		lw	a5,0(s0)
  60:C:/Users/stapi/OneDrive/Desktop/GD32VW553/GD32VW55X_Wifi_BLE_SDK/GD32VW55x_RELEASE_V1.0.2/MSDK/plf/GD32VW55x_standard_peripheral/Source\gd32vw55x_rcu.c ****     RCU_CFG0 &= ~RCU_CFG0_SCS;
 1061              		.loc 1 60 5
 1062 0012 0145     		li	a0,0
  59:C:/Users/stapi/OneDrive/Desktop/GD32VW553/GD32VW55X_Wifi_BLE_SDK/GD32VW55x_RELEASE_V1.0.2/MSDK/plf/GD32VW55x_standard_peripheral/Source\gd32vw55x_rcu.c ****     rcu_osci_stab_wait(RCU_IRC16M);
 1063              		.loc 1 59 13
 1064 0014 93E71700 		ori	a5,a5,1
 1065 0018 1CC0     		sw	a5,0(s0)
  60:C:/Users/stapi/OneDrive/Desktop/GD32VW553/GD32VW55X_Wifi_BLE_SDK/GD32VW55x_RELEASE_V1.0.2/MSDK/plf/GD32VW55x_standard_peripheral/Source\gd32vw55x_rcu.c ****     RCU_CFG0 &= ~RCU_CFG0_SCS;
 1066              		.loc 1 60 5 is_stmt 1
 1067 001a 97000000 		call	rcu_osci_stab_wait
 1067      E7800000 
 1068              	.LVL93:
  61:C:/Users/stapi/OneDrive/Desktop/GD32VW553/GD32VW55X_Wifi_BLE_SDK/GD32VW55x_RELEASE_V1.0.2/MSDK/plf/GD32VW55x_standard_peripheral/Source\gd32vw55x_rcu.c ****     /* reset CFG0 register */
 1069              		.loc 1 61 5
  61:C:/Users/stapi/OneDrive/Desktop/GD32VW553/GD32VW55X_Wifi_BLE_SDK/GD32VW55x_RELEASE_V1.0.2/MSDK/plf/GD32VW55x_standard_peripheral/Source\gd32vw55x_rcu.c ****     /* reset CFG0 register */
 1070              		.loc 1 61 14 is_stmt 0
 1071 0022 1C44     		lw	a5,8(s0)
  63:C:/Users/stapi/OneDrive/Desktop/GD32VW553/GD32VW55X_Wifi_BLE_SDK/GD32VW55x_RELEASE_V1.0.2/MSDK/plf/GD32VW55x_standard_peripheral/Source\gd32vw55x_rcu.c ****                   RCU_CFG0_RTCDIV | RCU_CFG0_CKOUT0SEL  | RCU_CFG0_CKOUT0DIV);
 1072              		.loc 1 63 14
 1073 0024 370700F8 		li	a4,-134217728
 1074 0028 1307C730 		addi	a4,a4,780
  61:C:/Users/stapi/OneDrive/Desktop/GD32VW553/GD32VW55X_Wifi_BLE_SDK/GD32VW55x_RELEASE_V1.0.2/MSDK/plf/GD32VW55x_standard_peripheral/Source\gd32vw55x_rcu.c ****     /* reset CFG0 register */
 1075              		.loc 1 61 14
 1076 002c F19B     		andi	a5,a5,-4
 1077 002e 1CC4     		sw	a5,8(s0)
  63:C:/Users/stapi/OneDrive/Desktop/GD32VW553/GD32VW55X_Wifi_BLE_SDK/GD32VW55x_RELEASE_V1.0.2/MSDK/plf/GD32VW55x_standard_peripheral/Source\gd32vw55x_rcu.c ****                   RCU_CFG0_RTCDIV | RCU_CFG0_CKOUT0SEL  | RCU_CFG0_CKOUT0DIV);
 1078              		.loc 1 63 5 is_stmt 1
  63:C:/Users/stapi/OneDrive/Desktop/GD32VW553/GD32VW55X_Wifi_BLE_SDK/GD32VW55x_RELEASE_V1.0.2/MSDK/plf/GD32VW55x_standard_peripheral/Source\gd32vw55x_rcu.c ****                   RCU_CFG0_RTCDIV | RCU_CFG0_CKOUT0SEL  | RCU_CFG0_CKOUT0DIV);
 1079              		.loc 1 63 14 is_stmt 0
 1080 0030 1C44     		lw	a5,8(s0)
 1081 0032 F98F     		and	a5,a5,a4
 1082 0034 1CC4     		sw	a5,8(s0)
  66:C:/Users/stapi/OneDrive/Desktop/GD32VW553/GD32VW55X_Wifi_BLE_SDK/GD32VW55x_RELEASE_V1.0.2/MSDK/plf/GD32VW55x_standard_peripheral/Source\gd32vw55x_rcu.c ****                  RCU_CTL_HXTALPU | RCU_CTL_PLLDIGPU | RCU_CTL_RFCKMEN);
 1083              		.loc 1 66 5 is_stmt 1
  66:C:/Users/stapi/OneDrive/Desktop/GD32VW553/GD32VW55X_Wifi_BLE_SDK/GD32VW55x_RELEASE_V1.0.2/MSDK/plf/GD32VW55x_standard_peripheral/Source\gd32vw55x_rcu.c ****                  RCU_CTL_HXTALPU | RCU_CTL_PLLDIGPU | RCU_CTL_RFCKMEN);
 1084              		.loc 1 66 13 is_stmt 0
 1085 0036 1C40     		lw	a5,0(s0)
 1086 0038 37078F6F 		li	a4,1871642624
 1087 003c 7D17     		addi	a4,a4,-1
 1088 003e F98F     		and	a5,a5,a4
 1089 0040 1CC0     		sw	a5,0(s0)
  69:C:/Users/stapi/OneDrive/Desktop/GD32VW553/GD32VW55X_Wifi_BLE_SDK/GD32VW55x_RELEASE_V1.0.2/MSDK/plf/GD32VW55x_standard_peripheral/Source\gd32vw55x_rcu.c ****     /* reset ADDCTL register */
 1090              		.loc 1 69 5 is_stmt 1
  69:C:/Users/stapi/OneDrive/Desktop/GD32VW553/GD32VW55X_Wifi_BLE_SDK/GD32VW55x_RELEASE_V1.0.2/MSDK/plf/GD32VW55x_standard_peripheral/Source\gd32vw55x_rcu.c ****     /* reset ADDCTL register */
 1091              		.loc 1 69 14 is_stmt 0
 1092 0042 23A60488 		sw	zero,-1908(s1)
  71:C:/Users/stapi/OneDrive/Desktop/GD32VW553/GD32VW55X_Wifi_BLE_SDK/GD32VW55x_RELEASE_V1.0.2/MSDK/plf/GD32VW55x_standard_peripheral/Source\gd32vw55x_rcu.c ****     /* reset PLL register */
 1093              		.loc 1 71 5 is_stmt 1
  71:C:/Users/stapi/OneDrive/Desktop/GD32VW553/GD32VW55X_Wifi_BLE_SDK/GD32VW55x_RELEASE_V1.0.2/MSDK/plf/GD32VW55x_standard_peripheral/Source\gd32vw55x_rcu.c ****     /* reset PLL register */
 1094              		.loc 1 71 16 is_stmt 0
 1095 0046 23A80488 		sw	zero,-1904(s1)
  73:C:/Users/stapi/OneDrive/Desktop/GD32VW553/GD32VW55X_Wifi_BLE_SDK/GD32VW55x_RELEASE_V1.0.2/MSDK/plf/GD32VW55x_standard_peripheral/Source\gd32vw55x_rcu.c ****     /* reset PLLDIGCFG0 register */
 1096              		.loc 1 73 5 is_stmt 1
  73:C:/Users/stapi/OneDrive/Desktop/GD32VW553/GD32VW55X_Wifi_BLE_SDK/GD32VW55x_RELEASE_V1.0.2/MSDK/plf/GD32VW55x_standard_peripheral/Source\gd32vw55x_rcu.c ****     /* reset PLLDIGCFG0 register */
 1097              		.loc 1 73 13 is_stmt 0
 1098 004a 23A20480 		sw	zero,-2044(s1)
  75:C:/Users/stapi/OneDrive/Desktop/GD32VW553/GD32VW55X_Wifi_BLE_SDK/GD32VW55x_RELEASE_V1.0.2/MSDK/plf/GD32VW55x_standard_peripheral/Source\gd32vw55x_rcu.c ****     /* reset PLLDIGCFG1 register */
 1099              		.loc 1 75 5 is_stmt 1
  75:C:/Users/stapi/OneDrive/Desktop/GD32VW553/GD32VW55X_Wifi_BLE_SDK/GD32VW55x_RELEASE_V1.0.2/MSDK/plf/GD32VW55x_standard_peripheral/Source\gd32vw55x_rcu.c ****     /* reset PLLDIGCFG1 register */
 1100              		.loc 1 75 20 is_stmt 0
 1101 004e 23A20488 		sw	zero,-1916(s1)
  77:C:/Users/stapi/OneDrive/Desktop/GD32VW553/GD32VW55X_Wifi_BLE_SDK/GD32VW55x_RELEASE_V1.0.2/MSDK/plf/GD32VW55x_standard_peripheral/Source\gd32vw55x_rcu.c ****     /* reset INT register */
 1102              		.loc 1 77 5 is_stmt 1
  77:C:/Users/stapi/OneDrive/Desktop/GD32VW553/GD32VW55X_Wifi_BLE_SDK/GD32VW55x_RELEASE_V1.0.2/MSDK/plf/GD32VW55x_standard_peripheral/Source\gd32vw55x_rcu.c ****     /* reset INT register */
 1103              		.loc 1 77 20 is_stmt 0
 1104 0052 23AA0488 		sw	zero,-1900(s1)
  79:C:/Users/stapi/OneDrive/Desktop/GD32VW553/GD32VW55X_Wifi_BLE_SDK/GD32VW55x_RELEASE_V1.0.2/MSDK/plf/GD32VW55x_standard_peripheral/Source\gd32vw55x_rcu.c **** }
 1105              		.loc 1 79 5 is_stmt 1
  79:C:/Users/stapi/OneDrive/Desktop/GD32VW553/GD32VW55X_Wifi_BLE_SDK/GD32VW55x_RELEASE_V1.0.2/MSDK/plf/GD32VW55x_standard_peripheral/Source\gd32vw55x_rcu.c **** }
 1106              		.loc 1 79 13 is_stmt 0
 1107 0056 23A60480 		sw	zero,-2036(s1)
  80:C:/Users/stapi/OneDrive/Desktop/GD32VW553/GD32VW55X_Wifi_BLE_SDK/GD32VW55x_RELEASE_V1.0.2/MSDK/plf/GD32VW55x_standard_peripheral/Source\gd32vw55x_rcu.c **** 
 1108              		.loc 1 80 1
 1109 005a 17030000 		tail	__riscv_restore_2
 1109      67000300 
 1110              		.cfi_restore 9
 1111              		.cfi_restore 8
 1112              		.cfi_restore 1
 1113              		.cfi_def_cfa_offset 0
 1114              		.cfi_endproc
 1115              	.LFE365:
 1117              		.section	.text.rcu_osci_on,"ax",@progbits
 1118              		.align	1
 1119              		.globl	rcu_osci_on
 1121              	rcu_osci_on:
 1122              	.LFB423:
 1123              		.cfi_startproc
 1124 0000 17030000 		tail	rcu_periph_clock_enable
 1124      67000300 
 1125              		.cfi_endproc
 1126              	.LFE423:
 1128              		.section	.text.rcu_osci_off,"ax",@progbits
 1129              		.align	1
 1130              		.globl	rcu_osci_off
 1132              	rcu_osci_off:
 1133              	.LFB431:
 1134              		.cfi_startproc
 1135 0000 17030000 		tail	rcu_periph_clock_disable
 1135      67000300 
 1136              		.cfi_endproc
 1137              	.LFE431:
 1139              		.section	.text.rcu_osci_bypass_mode_enable,"ax",@progbits
 1140              		.align	1
 1141              		.globl	rcu_osci_bypass_mode_enable
 1143              	rcu_osci_bypass_mode_enable:
 1144              	.LFB406:
 884:C:/Users/stapi/OneDrive/Desktop/GD32VW553/GD32VW55X_Wifi_BLE_SDK/GD32VW55x_RELEASE_V1.0.2/MSDK/plf/GD32VW55x_standard_peripheral/Source\gd32vw55x_rcu.c **** 
 885:C:/Users/stapi/OneDrive/Desktop/GD32VW553/GD32VW55X_Wifi_BLE_SDK/GD32VW55x_RELEASE_V1.0.2/MSDK/plf/GD32VW55x_standard_peripheral/Source\gd32vw55x_rcu.c **** /*!
 886:C:/Users/stapi/OneDrive/Desktop/GD32VW553/GD32VW55X_Wifi_BLE_SDK/GD32VW55x_RELEASE_V1.0.2/MSDK/plf/GD32VW55x_standard_peripheral/Source\gd32vw55x_rcu.c ****     \brief      turn on the oscillator
 887:C:/Users/stapi/OneDrive/Desktop/GD32VW553/GD32VW55X_Wifi_BLE_SDK/GD32VW55x_RELEASE_V1.0.2/MSDK/plf/GD32VW55x_standard_peripheral/Source\gd32vw55x_rcu.c ****     \param[in]  osci: oscillator types, refer to rcu_osci_type_enum
 888:C:/Users/stapi/OneDrive/Desktop/GD32VW553/GD32VW55X_Wifi_BLE_SDK/GD32VW55x_RELEASE_V1.0.2/MSDK/plf/GD32VW55x_standard_peripheral/Source\gd32vw55x_rcu.c ****                 only one parameter can be selected which is shown as below:
 889:C:/Users/stapi/OneDrive/Desktop/GD32VW553/GD32VW55X_Wifi_BLE_SDK/GD32VW55x_RELEASE_V1.0.2/MSDK/plf/GD32VW55x_standard_peripheral/Source\gd32vw55x_rcu.c ****       \arg        RCU_HXTAL: HXTAL
 890:C:/Users/stapi/OneDrive/Desktop/GD32VW553/GD32VW55X_Wifi_BLE_SDK/GD32VW55x_RELEASE_V1.0.2/MSDK/plf/GD32VW55x_standard_peripheral/Source\gd32vw55x_rcu.c ****       \arg        RCU_LXTAL: LXTAL
 891:C:/Users/stapi/OneDrive/Desktop/GD32VW553/GD32VW55X_Wifi_BLE_SDK/GD32VW55x_RELEASE_V1.0.2/MSDK/plf/GD32VW55x_standard_peripheral/Source\gd32vw55x_rcu.c ****       \arg        RCU_IRC16M: IRC16M
 892:C:/Users/stapi/OneDrive/Desktop/GD32VW553/GD32VW55X_Wifi_BLE_SDK/GD32VW55x_RELEASE_V1.0.2/MSDK/plf/GD32VW55x_standard_peripheral/Source\gd32vw55x_rcu.c ****       \arg        RCU_IRC32K: IRC32K
 893:C:/Users/stapi/OneDrive/Desktop/GD32VW553/GD32VW55X_Wifi_BLE_SDK/GD32VW55x_RELEASE_V1.0.2/MSDK/plf/GD32VW55x_standard_peripheral/Source\gd32vw55x_rcu.c ****       \arg        RCU_PLLDIG_CK: PLLDIG
 894:C:/Users/stapi/OneDrive/Desktop/GD32VW553/GD32VW55X_Wifi_BLE_SDK/GD32VW55x_RELEASE_V1.0.2/MSDK/plf/GD32VW55x_standard_peripheral/Source\gd32vw55x_rcu.c ****     \param[out] none
 895:C:/Users/stapi/OneDrive/Desktop/GD32VW553/GD32VW55X_Wifi_BLE_SDK/GD32VW55x_RELEASE_V1.0.2/MSDK/plf/GD32VW55x_standard_peripheral/Source\gd32vw55x_rcu.c ****     \retval     none
 896:C:/Users/stapi/OneDrive/Desktop/GD32VW553/GD32VW55X_Wifi_BLE_SDK/GD32VW55x_RELEASE_V1.0.2/MSDK/plf/GD32VW55x_standard_peripheral/Source\gd32vw55x_rcu.c **** */
 897:C:/Users/stapi/OneDrive/Desktop/GD32VW553/GD32VW55X_Wifi_BLE_SDK/GD32VW55x_RELEASE_V1.0.2/MSDK/plf/GD32VW55x_standard_peripheral/Source\gd32vw55x_rcu.c **** void rcu_osci_on(rcu_osci_type_enum osci)
 898:C:/Users/stapi/OneDrive/Desktop/GD32VW553/GD32VW55X_Wifi_BLE_SDK/GD32VW55x_RELEASE_V1.0.2/MSDK/plf/GD32VW55x_standard_peripheral/Source\gd32vw55x_rcu.c **** {
 899:C:/Users/stapi/OneDrive/Desktop/GD32VW553/GD32VW55X_Wifi_BLE_SDK/GD32VW55x_RELEASE_V1.0.2/MSDK/plf/GD32VW55x_standard_peripheral/Source\gd32vw55x_rcu.c ****     RCU_REG_VAL(osci) |= BIT(RCU_BIT_POS(osci));
 900:C:/Users/stapi/OneDrive/Desktop/GD32VW553/GD32VW55X_Wifi_BLE_SDK/GD32VW55x_RELEASE_V1.0.2/MSDK/plf/GD32VW55x_standard_peripheral/Source\gd32vw55x_rcu.c **** }
 901:C:/Users/stapi/OneDrive/Desktop/GD32VW553/GD32VW55X_Wifi_BLE_SDK/GD32VW55x_RELEASE_V1.0.2/MSDK/plf/GD32VW55x_standard_peripheral/Source\gd32vw55x_rcu.c **** 
 902:C:/Users/stapi/OneDrive/Desktop/GD32VW553/GD32VW55X_Wifi_BLE_SDK/GD32VW55x_RELEASE_V1.0.2/MSDK/plf/GD32VW55x_standard_peripheral/Source\gd32vw55x_rcu.c **** /*!
 903:C:/Users/stapi/OneDrive/Desktop/GD32VW553/GD32VW55X_Wifi_BLE_SDK/GD32VW55x_RELEASE_V1.0.2/MSDK/plf/GD32VW55x_standard_peripheral/Source\gd32vw55x_rcu.c ****     \brief      turn off the oscillator
 904:C:/Users/stapi/OneDrive/Desktop/GD32VW553/GD32VW55X_Wifi_BLE_SDK/GD32VW55x_RELEASE_V1.0.2/MSDK/plf/GD32VW55x_standard_peripheral/Source\gd32vw55x_rcu.c ****     \param[in]  osci: oscillator types, refer to rcu_osci_type_enum
 905:C:/Users/stapi/OneDrive/Desktop/GD32VW553/GD32VW55X_Wifi_BLE_SDK/GD32VW55x_RELEASE_V1.0.2/MSDK/plf/GD32VW55x_standard_peripheral/Source\gd32vw55x_rcu.c ****                 only one parameter can be selected which is shown as below:
 906:C:/Users/stapi/OneDrive/Desktop/GD32VW553/GD32VW55X_Wifi_BLE_SDK/GD32VW55x_RELEASE_V1.0.2/MSDK/plf/GD32VW55x_standard_peripheral/Source\gd32vw55x_rcu.c ****       \arg        RCU_HXTAL: HXTAL
 907:C:/Users/stapi/OneDrive/Desktop/GD32VW553/GD32VW55X_Wifi_BLE_SDK/GD32VW55x_RELEASE_V1.0.2/MSDK/plf/GD32VW55x_standard_peripheral/Source\gd32vw55x_rcu.c ****       \arg        RCU_LXTAL: LXTAL
 908:C:/Users/stapi/OneDrive/Desktop/GD32VW553/GD32VW55X_Wifi_BLE_SDK/GD32VW55x_RELEASE_V1.0.2/MSDK/plf/GD32VW55x_standard_peripheral/Source\gd32vw55x_rcu.c ****       \arg        RCU_IRC16M: IRC16M
 909:C:/Users/stapi/OneDrive/Desktop/GD32VW553/GD32VW55X_Wifi_BLE_SDK/GD32VW55x_RELEASE_V1.0.2/MSDK/plf/GD32VW55x_standard_peripheral/Source\gd32vw55x_rcu.c ****       \arg        RCU_IRC32K: IRC32K
 910:C:/Users/stapi/OneDrive/Desktop/GD32VW553/GD32VW55X_Wifi_BLE_SDK/GD32VW55x_RELEASE_V1.0.2/MSDK/plf/GD32VW55x_standard_peripheral/Source\gd32vw55x_rcu.c ****       \arg        RCU_PLLDIG_CK: PLLDIG
 911:C:/Users/stapi/OneDrive/Desktop/GD32VW553/GD32VW55X_Wifi_BLE_SDK/GD32VW55x_RELEASE_V1.0.2/MSDK/plf/GD32VW55x_standard_peripheral/Source\gd32vw55x_rcu.c ****     \param[out] none
 912:C:/Users/stapi/OneDrive/Desktop/GD32VW553/GD32VW55X_Wifi_BLE_SDK/GD32VW55x_RELEASE_V1.0.2/MSDK/plf/GD32VW55x_standard_peripheral/Source\gd32vw55x_rcu.c ****     \retval     none
 913:C:/Users/stapi/OneDrive/Desktop/GD32VW553/GD32VW55X_Wifi_BLE_SDK/GD32VW55x_RELEASE_V1.0.2/MSDK/plf/GD32VW55x_standard_peripheral/Source\gd32vw55x_rcu.c **** */
 914:C:/Users/stapi/OneDrive/Desktop/GD32VW553/GD32VW55X_Wifi_BLE_SDK/GD32VW55x_RELEASE_V1.0.2/MSDK/plf/GD32VW55x_standard_peripheral/Source\gd32vw55x_rcu.c **** void rcu_osci_off(rcu_osci_type_enum osci)
 915:C:/Users/stapi/OneDrive/Desktop/GD32VW553/GD32VW55X_Wifi_BLE_SDK/GD32VW55x_RELEASE_V1.0.2/MSDK/plf/GD32VW55x_standard_peripheral/Source\gd32vw55x_rcu.c **** {
 916:C:/Users/stapi/OneDrive/Desktop/GD32VW553/GD32VW55X_Wifi_BLE_SDK/GD32VW55x_RELEASE_V1.0.2/MSDK/plf/GD32VW55x_standard_peripheral/Source\gd32vw55x_rcu.c ****     RCU_REG_VAL(osci) &= ~BIT(RCU_BIT_POS(osci));
 917:C:/Users/stapi/OneDrive/Desktop/GD32VW553/GD32VW55X_Wifi_BLE_SDK/GD32VW55x_RELEASE_V1.0.2/MSDK/plf/GD32VW55x_standard_peripheral/Source\gd32vw55x_rcu.c **** }
 918:C:/Users/stapi/OneDrive/Desktop/GD32VW553/GD32VW55X_Wifi_BLE_SDK/GD32VW55x_RELEASE_V1.0.2/MSDK/plf/GD32VW55x_standard_peripheral/Source\gd32vw55x_rcu.c **** 
 919:C:/Users/stapi/OneDrive/Desktop/GD32VW553/GD32VW55X_Wifi_BLE_SDK/GD32VW55x_RELEASE_V1.0.2/MSDK/plf/GD32VW55x_standard_peripheral/Source\gd32vw55x_rcu.c **** /*!
 920:C:/Users/stapi/OneDrive/Desktop/GD32VW553/GD32VW55X_Wifi_BLE_SDK/GD32VW55x_RELEASE_V1.0.2/MSDK/plf/GD32VW55x_standard_peripheral/Source\gd32vw55x_rcu.c ****     \brief      enable the oscillator bypass mode, HXTALEN or LXTALEN must be reset before it
 921:C:/Users/stapi/OneDrive/Desktop/GD32VW553/GD32VW55X_Wifi_BLE_SDK/GD32VW55x_RELEASE_V1.0.2/MSDK/plf/GD32VW55x_standard_peripheral/Source\gd32vw55x_rcu.c ****     \param[in]  osci: oscillator types, refer to rcu_osci_type_enum
 922:C:/Users/stapi/OneDrive/Desktop/GD32VW553/GD32VW55X_Wifi_BLE_SDK/GD32VW55x_RELEASE_V1.0.2/MSDK/plf/GD32VW55x_standard_peripheral/Source\gd32vw55x_rcu.c ****                 only one parameter can be selected which is shown as below:
 923:C:/Users/stapi/OneDrive/Desktop/GD32VW553/GD32VW55X_Wifi_BLE_SDK/GD32VW55x_RELEASE_V1.0.2/MSDK/plf/GD32VW55x_standard_peripheral/Source\gd32vw55x_rcu.c ****       \arg        RCU_HXTAL: high speed crystal oscillator(HXTAL)
 924:C:/Users/stapi/OneDrive/Desktop/GD32VW553/GD32VW55X_Wifi_BLE_SDK/GD32VW55x_RELEASE_V1.0.2/MSDK/plf/GD32VW55x_standard_peripheral/Source\gd32vw55x_rcu.c ****       \arg        RCU_LXTAL: low speed crystal oscillator(LXTAL)
 925:C:/Users/stapi/OneDrive/Desktop/GD32VW553/GD32VW55X_Wifi_BLE_SDK/GD32VW55x_RELEASE_V1.0.2/MSDK/plf/GD32VW55x_standard_peripheral/Source\gd32vw55x_rcu.c ****     \param[out] none
 926:C:/Users/stapi/OneDrive/Desktop/GD32VW553/GD32VW55X_Wifi_BLE_SDK/GD32VW55x_RELEASE_V1.0.2/MSDK/plf/GD32VW55x_standard_peripheral/Source\gd32vw55x_rcu.c ****     \retval     none
 927:C:/Users/stapi/OneDrive/Desktop/GD32VW553/GD32VW55X_Wifi_BLE_SDK/GD32VW55x_RELEASE_V1.0.2/MSDK/plf/GD32VW55x_standard_peripheral/Source\gd32vw55x_rcu.c **** */
 928:C:/Users/stapi/OneDrive/Desktop/GD32VW553/GD32VW55X_Wifi_BLE_SDK/GD32VW55x_RELEASE_V1.0.2/MSDK/plf/GD32VW55x_standard_peripheral/Source\gd32vw55x_rcu.c **** void rcu_osci_bypass_mode_enable(rcu_osci_type_enum osci)
 929:C:/Users/stapi/OneDrive/Desktop/GD32VW553/GD32VW55X_Wifi_BLE_SDK/GD32VW55x_RELEASE_V1.0.2/MSDK/plf/GD32VW55x_standard_peripheral/Source\gd32vw55x_rcu.c **** {
 1145              		.loc 1 929 1 is_stmt 1
 1146              		.cfi_startproc
 1147              	.LVL94:
 930:C:/Users/stapi/OneDrive/Desktop/GD32VW553/GD32VW55X_Wifi_BLE_SDK/GD32VW55x_RELEASE_V1.0.2/MSDK/plf/GD32VW55x_standard_peripheral/Source\gd32vw55x_rcu.c ****     uint32_t reg;
 1148              		.loc 1 930 5
 931:C:/Users/stapi/OneDrive/Desktop/GD32VW553/GD32VW55X_Wifi_BLE_SDK/GD32VW55x_RELEASE_V1.0.2/MSDK/plf/GD32VW55x_standard_peripheral/Source\gd32vw55x_rcu.c **** 
 932:C:/Users/stapi/OneDrive/Desktop/GD32VW553/GD32VW55X_Wifi_BLE_SDK/GD32VW55x_RELEASE_V1.0.2/MSDK/plf/GD32VW55x_standard_peripheral/Source\gd32vw55x_rcu.c ****     switch(osci){
 1149              		.loc 1 932 5
 1150 0000 C147     		li	a5,16
 1151 0002 6308F500 		beq	a0,a5,.L84
 1152 0006 8967     		li	a5,8192
 1153 0008 938707C0 		addi	a5,a5,-1024
 1154 000c 6300F502 		beq	a0,a5,.L85
 1155 0010 8280     		ret
 1156              	.L84:
 933:C:/Users/stapi/OneDrive/Desktop/GD32VW553/GD32VW55X_Wifi_BLE_SDK/GD32VW55x_RELEASE_V1.0.2/MSDK/plf/GD32VW55x_standard_peripheral/Source\gd32vw55x_rcu.c ****     /* enable HXTAL to bypass mode */
 934:C:/Users/stapi/OneDrive/Desktop/GD32VW553/GD32VW55X_Wifi_BLE_SDK/GD32VW55x_RELEASE_V1.0.2/MSDK/plf/GD32VW55x_standard_peripheral/Source\gd32vw55x_rcu.c ****     case RCU_HXTAL:
 935:C:/Users/stapi/OneDrive/Desktop/GD32VW553/GD32VW55X_Wifi_BLE_SDK/GD32VW55x_RELEASE_V1.0.2/MSDK/plf/GD32VW55x_standard_peripheral/Source\gd32vw55x_rcu.c ****         reg = RCU_CTL;
 1157              		.loc 1 935 9
 1158              		.loc 1 935 13 is_stmt 0
 1159 0012 B7470240 		li	a5,1073889280
 1160 0016 93870780 		addi	a5,a5,-2048
 1161 001a 9843     		lw	a4,0(a5)
 1162              	.LVL95:
 936:C:/Users/stapi/OneDrive/Desktop/GD32VW553/GD32VW55X_Wifi_BLE_SDK/GD32VW55x_RELEASE_V1.0.2/MSDK/plf/GD32VW55x_standard_peripheral/Source\gd32vw55x_rcu.c ****         RCU_CTL &= ~RCU_CTL_HXTALEN;
 1163              		.loc 1 936 9 is_stmt 1
 1164              		.loc 1 936 17 is_stmt 0
 1165 001c 9443     		lw	a3,0(a5)
 937:C:/Users/stapi/OneDrive/Desktop/GD32VW553/GD32VW55X_Wifi_BLE_SDK/GD32VW55x_RELEASE_V1.0.2/MSDK/plf/GD32VW55x_standard_peripheral/Source\gd32vw55x_rcu.c ****         RCU_CTL = (reg | RCU_CTL_HXTALBPS);
 1166              		.loc 1 937 24
 1167 001e 13172729 		bseti	a4,a4,18
 1168              	.LVL96:
 936:C:/Users/stapi/OneDrive/Desktop/GD32VW553/GD32VW55X_Wifi_BLE_SDK/GD32VW55x_RELEASE_V1.0.2/MSDK/plf/GD32VW55x_standard_peripheral/Source\gd32vw55x_rcu.c ****         RCU_CTL &= ~RCU_CTL_HXTALEN;
 1169              		.loc 1 936 17
 1170 0022 93960649 		bclri	a3,a3,16
 1171 0026 94C3     		sw	a3,0(a5)
 1172              		.loc 1 937 9 is_stmt 1
 1173              		.loc 1 937 17 is_stmt 0
 1174 0028 98C3     		sw	a4,0(a5)
 938:C:/Users/stapi/OneDrive/Desktop/GD32VW553/GD32VW55X_Wifi_BLE_SDK/GD32VW55x_RELEASE_V1.0.2/MSDK/plf/GD32VW55x_standard_peripheral/Source\gd32vw55x_rcu.c ****         break;
 1175              		.loc 1 938 9 is_stmt 1
 1176 002a 8280     		ret
 1177              	.L85:
 939:C:/Users/stapi/OneDrive/Desktop/GD32VW553/GD32VW55X_Wifi_BLE_SDK/GD32VW55x_RELEASE_V1.0.2/MSDK/plf/GD32VW55x_standard_peripheral/Source\gd32vw55x_rcu.c ****     /* enable LXTAL to bypass mode */
 940:C:/Users/stapi/OneDrive/Desktop/GD32VW553/GD32VW55X_Wifi_BLE_SDK/GD32VW55x_RELEASE_V1.0.2/MSDK/plf/GD32VW55x_standard_peripheral/Source\gd32vw55x_rcu.c ****     case RCU_LXTAL:
 941:C:/Users/stapi/OneDrive/Desktop/GD32VW553/GD32VW55X_Wifi_BLE_SDK/GD32VW55x_RELEASE_V1.0.2/MSDK/plf/GD32VW55x_standard_peripheral/Source\gd32vw55x_rcu.c ****         reg = RCU_BDCTL;
 1178              		.loc 1 941 9
 1179              		.loc 1 941 13 is_stmt 0
 1180 002c B7470240 		li	a5,1073889280
 1181 0030 93870780 		addi	a5,a5,-2048
 1182 0034 B85B     		lw	a4,112(a5)
 1183              	.LVL97:
 942:C:/Users/stapi/OneDrive/Desktop/GD32VW553/GD32VW55X_Wifi_BLE_SDK/GD32VW55x_RELEASE_V1.0.2/MSDK/plf/GD32VW55x_standard_peripheral/Source\gd32vw55x_rcu.c ****         RCU_BDCTL &= ~RCU_BDCTL_LXTALEN;
 1184              		.loc 1 942 9 is_stmt 1
 1185              		.loc 1 942 19 is_stmt 0
 1186 0036 B45B     		lw	a3,112(a5)
 943:C:/Users/stapi/OneDrive/Desktop/GD32VW553/GD32VW55X_Wifi_BLE_SDK/GD32VW55x_RELEASE_V1.0.2/MSDK/plf/GD32VW55x_standard_peripheral/Source\gd32vw55x_rcu.c ****         RCU_BDCTL = (reg | RCU_BDCTL_LXTALBPS);
 1187              		.loc 1 943 26
 1188 0038 13674700 		ori	a4,a4,4
 1189              	.LVL98:
 942:C:/Users/stapi/OneDrive/Desktop/GD32VW553/GD32VW55X_Wifi_BLE_SDK/GD32VW55x_RELEASE_V1.0.2/MSDK/plf/GD32VW55x_standard_peripheral/Source\gd32vw55x_rcu.c ****         RCU_BDCTL &= ~RCU_BDCTL_LXTALEN;
 1190              		.loc 1 942 19
 1191 003c F99A     		andi	a3,a3,-2
 1192 003e B4DB     		sw	a3,112(a5)
 1193              		.loc 1 943 9 is_stmt 1
 1194              		.loc 1 943 19 is_stmt 0
 1195 0040 B8DB     		sw	a4,112(a5)
 944:C:/Users/stapi/OneDrive/Desktop/GD32VW553/GD32VW55X_Wifi_BLE_SDK/GD32VW55x_RELEASE_V1.0.2/MSDK/plf/GD32VW55x_standard_peripheral/Source\gd32vw55x_rcu.c ****         break;
 1196              		.loc 1 944 9 is_stmt 1
 945:C:/Users/stapi/OneDrive/Desktop/GD32VW553/GD32VW55X_Wifi_BLE_SDK/GD32VW55x_RELEASE_V1.0.2/MSDK/plf/GD32VW55x_standard_peripheral/Source\gd32vw55x_rcu.c ****     default:
 946:C:/Users/stapi/OneDrive/Desktop/GD32VW553/GD32VW55X_Wifi_BLE_SDK/GD32VW55x_RELEASE_V1.0.2/MSDK/plf/GD32VW55x_standard_peripheral/Source\gd32vw55x_rcu.c ****         break;
 947:C:/Users/stapi/OneDrive/Desktop/GD32VW553/GD32VW55X_Wifi_BLE_SDK/GD32VW55x_RELEASE_V1.0.2/MSDK/plf/GD32VW55x_standard_peripheral/Source\gd32vw55x_rcu.c ****     }
 948:C:/Users/stapi/OneDrive/Desktop/GD32VW553/GD32VW55X_Wifi_BLE_SDK/GD32VW55x_RELEASE_V1.0.2/MSDK/plf/GD32VW55x_standard_peripheral/Source\gd32vw55x_rcu.c **** }
 1197              		.loc 1 948 1 is_stmt 0
 1198 0042 8280     		ret
 1199              		.cfi_endproc
 1200              	.LFE406:
 1202              		.section	.text.rcu_osci_bypass_mode_disable,"ax",@progbits
 1203              		.align	1
 1204              		.globl	rcu_osci_bypass_mode_disable
 1206              	rcu_osci_bypass_mode_disable:
 1207              	.LFB407:
 949:C:/Users/stapi/OneDrive/Desktop/GD32VW553/GD32VW55X_Wifi_BLE_SDK/GD32VW55x_RELEASE_V1.0.2/MSDK/plf/GD32VW55x_standard_peripheral/Source\gd32vw55x_rcu.c **** 
 950:C:/Users/stapi/OneDrive/Desktop/GD32VW553/GD32VW55X_Wifi_BLE_SDK/GD32VW55x_RELEASE_V1.0.2/MSDK/plf/GD32VW55x_standard_peripheral/Source\gd32vw55x_rcu.c **** /*!
 951:C:/Users/stapi/OneDrive/Desktop/GD32VW553/GD32VW55X_Wifi_BLE_SDK/GD32VW55x_RELEASE_V1.0.2/MSDK/plf/GD32VW55x_standard_peripheral/Source\gd32vw55x_rcu.c ****     \brief      disable the oscillator bypass mode, HXTALEN or LXTALEN must be reset before it
 952:C:/Users/stapi/OneDrive/Desktop/GD32VW553/GD32VW55X_Wifi_BLE_SDK/GD32VW55x_RELEASE_V1.0.2/MSDK/plf/GD32VW55x_standard_peripheral/Source\gd32vw55x_rcu.c ****     \param[in]  osci: oscillator types, refer to rcu_osci_type_enum
 953:C:/Users/stapi/OneDrive/Desktop/GD32VW553/GD32VW55X_Wifi_BLE_SDK/GD32VW55x_RELEASE_V1.0.2/MSDK/plf/GD32VW55x_standard_peripheral/Source\gd32vw55x_rcu.c ****                 only one parameter can be selected which is shown as below:
 954:C:/Users/stapi/OneDrive/Desktop/GD32VW553/GD32VW55X_Wifi_BLE_SDK/GD32VW55x_RELEASE_V1.0.2/MSDK/plf/GD32VW55x_standard_peripheral/Source\gd32vw55x_rcu.c ****       \arg        RCU_HXTAL: high speed crystal oscillator(HXTAL)
 955:C:/Users/stapi/OneDrive/Desktop/GD32VW553/GD32VW55X_Wifi_BLE_SDK/GD32VW55x_RELEASE_V1.0.2/MSDK/plf/GD32VW55x_standard_peripheral/Source\gd32vw55x_rcu.c ****       \arg        RCU_LXTAL: low speed crystal oscillator(LXTAL)
 956:C:/Users/stapi/OneDrive/Desktop/GD32VW553/GD32VW55X_Wifi_BLE_SDK/GD32VW55x_RELEASE_V1.0.2/MSDK/plf/GD32VW55x_standard_peripheral/Source\gd32vw55x_rcu.c ****     \param[out] none
 957:C:/Users/stapi/OneDrive/Desktop/GD32VW553/GD32VW55X_Wifi_BLE_SDK/GD32VW55x_RELEASE_V1.0.2/MSDK/plf/GD32VW55x_standard_peripheral/Source\gd32vw55x_rcu.c ****     \retval     none
 958:C:/Users/stapi/OneDrive/Desktop/GD32VW553/GD32VW55X_Wifi_BLE_SDK/GD32VW55x_RELEASE_V1.0.2/MSDK/plf/GD32VW55x_standard_peripheral/Source\gd32vw55x_rcu.c **** */
 959:C:/Users/stapi/OneDrive/Desktop/GD32VW553/GD32VW55X_Wifi_BLE_SDK/GD32VW55x_RELEASE_V1.0.2/MSDK/plf/GD32VW55x_standard_peripheral/Source\gd32vw55x_rcu.c **** void rcu_osci_bypass_mode_disable(rcu_osci_type_enum osci)
 960:C:/Users/stapi/OneDrive/Desktop/GD32VW553/GD32VW55X_Wifi_BLE_SDK/GD32VW55x_RELEASE_V1.0.2/MSDK/plf/GD32VW55x_standard_peripheral/Source\gd32vw55x_rcu.c **** {
 1208              		.loc 1 960 1 is_stmt 1
 1209              		.cfi_startproc
 1210              	.LVL99:
 961:C:/Users/stapi/OneDrive/Desktop/GD32VW553/GD32VW55X_Wifi_BLE_SDK/GD32VW55x_RELEASE_V1.0.2/MSDK/plf/GD32VW55x_standard_peripheral/Source\gd32vw55x_rcu.c ****     uint32_t reg;
 1211              		.loc 1 961 5
 962:C:/Users/stapi/OneDrive/Desktop/GD32VW553/GD32VW55X_Wifi_BLE_SDK/GD32VW55x_RELEASE_V1.0.2/MSDK/plf/GD32VW55x_standard_peripheral/Source\gd32vw55x_rcu.c **** 
 963:C:/Users/stapi/OneDrive/Desktop/GD32VW553/GD32VW55X_Wifi_BLE_SDK/GD32VW55x_RELEASE_V1.0.2/MSDK/plf/GD32VW55x_standard_peripheral/Source\gd32vw55x_rcu.c ****     switch(osci){
 1212              		.loc 1 963 5
 1213 0000 C147     		li	a5,16
 1214 0002 6308F500 		beq	a0,a5,.L88
 1215 0006 8967     		li	a5,8192
 1216 0008 938707C0 		addi	a5,a5,-1024
 1217 000c 6300F502 		beq	a0,a5,.L89
 1218 0010 8280     		ret
 1219              	.L88:
 964:C:/Users/stapi/OneDrive/Desktop/GD32VW553/GD32VW55X_Wifi_BLE_SDK/GD32VW55x_RELEASE_V1.0.2/MSDK/plf/GD32VW55x_standard_peripheral/Source\gd32vw55x_rcu.c ****     /* disable HXTAL to bypass mode */
 965:C:/Users/stapi/OneDrive/Desktop/GD32VW553/GD32VW55X_Wifi_BLE_SDK/GD32VW55x_RELEASE_V1.0.2/MSDK/plf/GD32VW55x_standard_peripheral/Source\gd32vw55x_rcu.c ****     case RCU_HXTAL:
 966:C:/Users/stapi/OneDrive/Desktop/GD32VW553/GD32VW55X_Wifi_BLE_SDK/GD32VW55x_RELEASE_V1.0.2/MSDK/plf/GD32VW55x_standard_peripheral/Source\gd32vw55x_rcu.c ****         reg = RCU_CTL;
 1220              		.loc 1 966 9
 1221              		.loc 1 966 13 is_stmt 0
 1222 0012 B7470240 		li	a5,1073889280
 1223 0016 93870780 		addi	a5,a5,-2048
 1224 001a 9843     		lw	a4,0(a5)
 1225              	.LVL100:
 967:C:/Users/stapi/OneDrive/Desktop/GD32VW553/GD32VW55X_Wifi_BLE_SDK/GD32VW55x_RELEASE_V1.0.2/MSDK/plf/GD32VW55x_standard_peripheral/Source\gd32vw55x_rcu.c ****         RCU_CTL &= ~RCU_CTL_HXTALEN;
 1226              		.loc 1 967 9 is_stmt 1
 1227              		.loc 1 967 17 is_stmt 0
 1228 001c 9443     		lw	a3,0(a5)
 968:C:/Users/stapi/OneDrive/Desktop/GD32VW553/GD32VW55X_Wifi_BLE_SDK/GD32VW55x_RELEASE_V1.0.2/MSDK/plf/GD32VW55x_standard_peripheral/Source\gd32vw55x_rcu.c ****         RCU_CTL = (reg & ~RCU_CTL_HXTALBPS);
 1229              		.loc 1 968 24
 1230 001e 13172749 		bclri	a4,a4,18
 1231              	.LVL101:
 967:C:/Users/stapi/OneDrive/Desktop/GD32VW553/GD32VW55X_Wifi_BLE_SDK/GD32VW55x_RELEASE_V1.0.2/MSDK/plf/GD32VW55x_standard_peripheral/Source\gd32vw55x_rcu.c ****         RCU_CTL &= ~RCU_CTL_HXTALEN;
 1232              		.loc 1 967 17
 1233 0022 93960649 		bclri	a3,a3,16
 1234 0026 94C3     		sw	a3,0(a5)
 1235              		.loc 1 968 9 is_stmt 1
 1236              		.loc 1 968 17 is_stmt 0
 1237 0028 98C3     		sw	a4,0(a5)
 969:C:/Users/stapi/OneDrive/Desktop/GD32VW553/GD32VW55X_Wifi_BLE_SDK/GD32VW55x_RELEASE_V1.0.2/MSDK/plf/GD32VW55x_standard_peripheral/Source\gd32vw55x_rcu.c ****         break;
 1238              		.loc 1 969 9 is_stmt 1
 1239 002a 8280     		ret
 1240              	.L89:
 970:C:/Users/stapi/OneDrive/Desktop/GD32VW553/GD32VW55X_Wifi_BLE_SDK/GD32VW55x_RELEASE_V1.0.2/MSDK/plf/GD32VW55x_standard_peripheral/Source\gd32vw55x_rcu.c ****     /* disable LXTAL to bypass mode */
 971:C:/Users/stapi/OneDrive/Desktop/GD32VW553/GD32VW55X_Wifi_BLE_SDK/GD32VW55x_RELEASE_V1.0.2/MSDK/plf/GD32VW55x_standard_peripheral/Source\gd32vw55x_rcu.c ****     case RCU_LXTAL:
 972:C:/Users/stapi/OneDrive/Desktop/GD32VW553/GD32VW55X_Wifi_BLE_SDK/GD32VW55x_RELEASE_V1.0.2/MSDK/plf/GD32VW55x_standard_peripheral/Source\gd32vw55x_rcu.c ****         reg = RCU_BDCTL;
 1241              		.loc 1 972 9
 1242              		.loc 1 972 13 is_stmt 0
 1243 002c B7470240 		li	a5,1073889280
 1244 0030 93870780 		addi	a5,a5,-2048
 1245 0034 B85B     		lw	a4,112(a5)
 1246              	.LVL102:
 973:C:/Users/stapi/OneDrive/Desktop/GD32VW553/GD32VW55X_Wifi_BLE_SDK/GD32VW55x_RELEASE_V1.0.2/MSDK/plf/GD32VW55x_standard_peripheral/Source\gd32vw55x_rcu.c ****         RCU_BDCTL &= ~RCU_BDCTL_LXTALEN;
 1247              		.loc 1 973 9 is_stmt 1
 1248              		.loc 1 973 19 is_stmt 0
 1249 0036 B45B     		lw	a3,112(a5)
 974:C:/Users/stapi/OneDrive/Desktop/GD32VW553/GD32VW55X_Wifi_BLE_SDK/GD32VW55x_RELEASE_V1.0.2/MSDK/plf/GD32VW55x_standard_peripheral/Source\gd32vw55x_rcu.c ****         RCU_BDCTL = (reg & ~RCU_BDCTL_LXTALBPS);
 1250              		.loc 1 974 26
 1251 0038 6D9B     		andi	a4,a4,-5
 1252              	.LVL103:
 973:C:/Users/stapi/OneDrive/Desktop/GD32VW553/GD32VW55X_Wifi_BLE_SDK/GD32VW55x_RELEASE_V1.0.2/MSDK/plf/GD32VW55x_standard_peripheral/Source\gd32vw55x_rcu.c ****         RCU_BDCTL &= ~RCU_BDCTL_LXTALEN;
 1253              		.loc 1 973 19
 1254 003a F99A     		andi	a3,a3,-2
 1255 003c B4DB     		sw	a3,112(a5)
 1256              		.loc 1 974 9 is_stmt 1
 1257              		.loc 1 974 19 is_stmt 0
 1258 003e B8DB     		sw	a4,112(a5)
 975:C:/Users/stapi/OneDrive/Desktop/GD32VW553/GD32VW55X_Wifi_BLE_SDK/GD32VW55x_RELEASE_V1.0.2/MSDK/plf/GD32VW55x_standard_peripheral/Source\gd32vw55x_rcu.c ****         break;
 1259              		.loc 1 975 9 is_stmt 1
 976:C:/Users/stapi/OneDrive/Desktop/GD32VW553/GD32VW55X_Wifi_BLE_SDK/GD32VW55x_RELEASE_V1.0.2/MSDK/plf/GD32VW55x_standard_peripheral/Source\gd32vw55x_rcu.c ****     default:
 977:C:/Users/stapi/OneDrive/Desktop/GD32VW553/GD32VW55X_Wifi_BLE_SDK/GD32VW55x_RELEASE_V1.0.2/MSDK/plf/GD32VW55x_standard_peripheral/Source\gd32vw55x_rcu.c ****         break;
 978:C:/Users/stapi/OneDrive/Desktop/GD32VW553/GD32VW55X_Wifi_BLE_SDK/GD32VW55x_RELEASE_V1.0.2/MSDK/plf/GD32VW55x_standard_peripheral/Source\gd32vw55x_rcu.c ****     }
 979:C:/Users/stapi/OneDrive/Desktop/GD32VW553/GD32VW55X_Wifi_BLE_SDK/GD32VW55x_RELEASE_V1.0.2/MSDK/plf/GD32VW55x_standard_peripheral/Source\gd32vw55x_rcu.c **** }
 1260              		.loc 1 979 1 is_stmt 0
 1261 0040 8280     		ret
 1262              		.cfi_endproc
 1263              	.LFE407:
 1265              		.section	.text.rcu_rf_hxtal_clock_monitor_enable,"ax",@progbits
 1266              		.align	1
 1267              		.globl	rcu_rf_hxtal_clock_monitor_enable
 1269              	rcu_rf_hxtal_clock_monitor_enable:
 1270              	.LFB408:
 980:C:/Users/stapi/OneDrive/Desktop/GD32VW553/GD32VW55X_Wifi_BLE_SDK/GD32VW55x_RELEASE_V1.0.2/MSDK/plf/GD32VW55x_standard_peripheral/Source\gd32vw55x_rcu.c **** 
 981:C:/Users/stapi/OneDrive/Desktop/GD32VW553/GD32VW55X_Wifi_BLE_SDK/GD32VW55x_RELEASE_V1.0.2/MSDK/plf/GD32VW55x_standard_peripheral/Source\gd32vw55x_rcu.c **** /*!
 982:C:/Users/stapi/OneDrive/Desktop/GD32VW553/GD32VW55X_Wifi_BLE_SDK/GD32VW55x_RELEASE_V1.0.2/MSDK/plf/GD32VW55x_standard_peripheral/Source\gd32vw55x_rcu.c ****     \brief      enable the RF HXTAL clock monitor
 983:C:/Users/stapi/OneDrive/Desktop/GD32VW553/GD32VW55X_Wifi_BLE_SDK/GD32VW55x_RELEASE_V1.0.2/MSDK/plf/GD32VW55x_standard_peripheral/Source\gd32vw55x_rcu.c ****     \param[in]  none
 984:C:/Users/stapi/OneDrive/Desktop/GD32VW553/GD32VW55X_Wifi_BLE_SDK/GD32VW55x_RELEASE_V1.0.2/MSDK/plf/GD32VW55x_standard_peripheral/Source\gd32vw55x_rcu.c ****     \param[out] none
 985:C:/Users/stapi/OneDrive/Desktop/GD32VW553/GD32VW55X_Wifi_BLE_SDK/GD32VW55x_RELEASE_V1.0.2/MSDK/plf/GD32VW55x_standard_peripheral/Source\gd32vw55x_rcu.c ****     \retval     none
 986:C:/Users/stapi/OneDrive/Desktop/GD32VW553/GD32VW55X_Wifi_BLE_SDK/GD32VW55x_RELEASE_V1.0.2/MSDK/plf/GD32VW55x_standard_peripheral/Source\gd32vw55x_rcu.c **** */
 987:C:/Users/stapi/OneDrive/Desktop/GD32VW553/GD32VW55X_Wifi_BLE_SDK/GD32VW55x_RELEASE_V1.0.2/MSDK/plf/GD32VW55x_standard_peripheral/Source\gd32vw55x_rcu.c **** void rcu_rf_hxtal_clock_monitor_enable(void)
 988:C:/Users/stapi/OneDrive/Desktop/GD32VW553/GD32VW55X_Wifi_BLE_SDK/GD32VW55x_RELEASE_V1.0.2/MSDK/plf/GD32VW55x_standard_peripheral/Source\gd32vw55x_rcu.c **** {
 1271              		.loc 1 988 1 is_stmt 1
 1272              		.cfi_startproc
 989:C:/Users/stapi/OneDrive/Desktop/GD32VW553/GD32VW55X_Wifi_BLE_SDK/GD32VW55x_RELEASE_V1.0.2/MSDK/plf/GD32VW55x_standard_peripheral/Source\gd32vw55x_rcu.c ****     RCU_CTL |= RCU_CTL_RFCKMEN;
 1273              		.loc 1 989 5
 1274              		.loc 1 989 13 is_stmt 0
 1275 0000 37470240 		li	a4,1073889280
 1276 0004 83270780 		lw	a5,-2048(a4)
 1277 0008 93976729 		bseti	a5,a5,22
 1278 000c 2320F780 		sw	a5,-2048(a4)
 990:C:/Users/stapi/OneDrive/Desktop/GD32VW553/GD32VW55X_Wifi_BLE_SDK/GD32VW55x_RELEASE_V1.0.2/MSDK/plf/GD32VW55x_standard_peripheral/Source\gd32vw55x_rcu.c **** }
 1279              		.loc 1 990 1
 1280 0010 8280     		ret
 1281              		.cfi_endproc
 1282              	.LFE408:
 1284              		.section	.text.rcu_rf_hxtal_clock_monitor_disable,"ax",@progbits
 1285              		.align	1
 1286              		.globl	rcu_rf_hxtal_clock_monitor_disable
 1288              	rcu_rf_hxtal_clock_monitor_disable:
 1289              	.LFB409:
 991:C:/Users/stapi/OneDrive/Desktop/GD32VW553/GD32VW55X_Wifi_BLE_SDK/GD32VW55x_RELEASE_V1.0.2/MSDK/plf/GD32VW55x_standard_peripheral/Source\gd32vw55x_rcu.c **** 
 992:C:/Users/stapi/OneDrive/Desktop/GD32VW553/GD32VW55X_Wifi_BLE_SDK/GD32VW55x_RELEASE_V1.0.2/MSDK/plf/GD32VW55x_standard_peripheral/Source\gd32vw55x_rcu.c **** /*!
 993:C:/Users/stapi/OneDrive/Desktop/GD32VW553/GD32VW55X_Wifi_BLE_SDK/GD32VW55x_RELEASE_V1.0.2/MSDK/plf/GD32VW55x_standard_peripheral/Source\gd32vw55x_rcu.c ****     \brief      disable the RF HXTAL clock monitor
 994:C:/Users/stapi/OneDrive/Desktop/GD32VW553/GD32VW55X_Wifi_BLE_SDK/GD32VW55x_RELEASE_V1.0.2/MSDK/plf/GD32VW55x_standard_peripheral/Source\gd32vw55x_rcu.c ****     \param[in]  none
 995:C:/Users/stapi/OneDrive/Desktop/GD32VW553/GD32VW55X_Wifi_BLE_SDK/GD32VW55x_RELEASE_V1.0.2/MSDK/plf/GD32VW55x_standard_peripheral/Source\gd32vw55x_rcu.c ****     \param[out] none
 996:C:/Users/stapi/OneDrive/Desktop/GD32VW553/GD32VW55X_Wifi_BLE_SDK/GD32VW55x_RELEASE_V1.0.2/MSDK/plf/GD32VW55x_standard_peripheral/Source\gd32vw55x_rcu.c ****     \retval     none
 997:C:/Users/stapi/OneDrive/Desktop/GD32VW553/GD32VW55X_Wifi_BLE_SDK/GD32VW55x_RELEASE_V1.0.2/MSDK/plf/GD32VW55x_standard_peripheral/Source\gd32vw55x_rcu.c **** */
 998:C:/Users/stapi/OneDrive/Desktop/GD32VW553/GD32VW55X_Wifi_BLE_SDK/GD32VW55x_RELEASE_V1.0.2/MSDK/plf/GD32VW55x_standard_peripheral/Source\gd32vw55x_rcu.c **** void rcu_rf_hxtal_clock_monitor_disable(void)
 999:C:/Users/stapi/OneDrive/Desktop/GD32VW553/GD32VW55X_Wifi_BLE_SDK/GD32VW55x_RELEASE_V1.0.2/MSDK/plf/GD32VW55x_standard_peripheral/Source\gd32vw55x_rcu.c **** {
 1290              		.loc 1 999 1 is_stmt 1
 1291              		.cfi_startproc
1000:C:/Users/stapi/OneDrive/Desktop/GD32VW553/GD32VW55X_Wifi_BLE_SDK/GD32VW55x_RELEASE_V1.0.2/MSDK/plf/GD32VW55x_standard_peripheral/Source\gd32vw55x_rcu.c ****     RCU_CTL &= ~RCU_CTL_RFCKMEN;
 1292              		.loc 1 1000 5
 1293              		.loc 1 1000 13 is_stmt 0
 1294 0000 37470240 		li	a4,1073889280
 1295 0004 83270780 		lw	a5,-2048(a4)
 1296 0008 93976749 		bclri	a5,a5,22
 1297 000c 2320F780 		sw	a5,-2048(a4)
1001:C:/Users/stapi/OneDrive/Desktop/GD32VW553/GD32VW55X_Wifi_BLE_SDK/GD32VW55x_RELEASE_V1.0.2/MSDK/plf/GD32VW55x_standard_peripheral/Source\gd32vw55x_rcu.c **** }
 1298              		.loc 1 1001 1
 1299 0010 8280     		ret
 1300              		.cfi_endproc
 1301              	.LFE409:
 1303              		.section	.text.rcu_irc16m_adjust_value_set,"ax",@progbits
 1304              		.align	1
 1305              		.globl	rcu_irc16m_adjust_value_set
 1307              	rcu_irc16m_adjust_value_set:
 1308              	.LFB410:
1002:C:/Users/stapi/OneDrive/Desktop/GD32VW553/GD32VW55X_Wifi_BLE_SDK/GD32VW55x_RELEASE_V1.0.2/MSDK/plf/GD32VW55x_standard_peripheral/Source\gd32vw55x_rcu.c **** 
1003:C:/Users/stapi/OneDrive/Desktop/GD32VW553/GD32VW55X_Wifi_BLE_SDK/GD32VW55x_RELEASE_V1.0.2/MSDK/plf/GD32VW55x_standard_peripheral/Source\gd32vw55x_rcu.c **** /*!
1004:C:/Users/stapi/OneDrive/Desktop/GD32VW553/GD32VW55X_Wifi_BLE_SDK/GD32VW55x_RELEASE_V1.0.2/MSDK/plf/GD32VW55x_standard_peripheral/Source\gd32vw55x_rcu.c ****     \brief      set the IRC16M adjust value
1005:C:/Users/stapi/OneDrive/Desktop/GD32VW553/GD32VW55X_Wifi_BLE_SDK/GD32VW55x_RELEASE_V1.0.2/MSDK/plf/GD32VW55x_standard_peripheral/Source\gd32vw55x_rcu.c ****     \param[in]  irc16m_adjval: IRC16M adjust value, must be between 0 and 0x1F
1006:C:/Users/stapi/OneDrive/Desktop/GD32VW553/GD32VW55X_Wifi_BLE_SDK/GD32VW55x_RELEASE_V1.0.2/MSDK/plf/GD32VW55x_standard_peripheral/Source\gd32vw55x_rcu.c ****       \arg        0x00 - 0x1F
1007:C:/Users/stapi/OneDrive/Desktop/GD32VW553/GD32VW55X_Wifi_BLE_SDK/GD32VW55x_RELEASE_V1.0.2/MSDK/plf/GD32VW55x_standard_peripheral/Source\gd32vw55x_rcu.c ****     \param[out] none
1008:C:/Users/stapi/OneDrive/Desktop/GD32VW553/GD32VW55X_Wifi_BLE_SDK/GD32VW55x_RELEASE_V1.0.2/MSDK/plf/GD32VW55x_standard_peripheral/Source\gd32vw55x_rcu.c ****     \retval     none
1009:C:/Users/stapi/OneDrive/Desktop/GD32VW553/GD32VW55X_Wifi_BLE_SDK/GD32VW55x_RELEASE_V1.0.2/MSDK/plf/GD32VW55x_standard_peripheral/Source\gd32vw55x_rcu.c **** */
1010:C:/Users/stapi/OneDrive/Desktop/GD32VW553/GD32VW55X_Wifi_BLE_SDK/GD32VW55x_RELEASE_V1.0.2/MSDK/plf/GD32VW55x_standard_peripheral/Source\gd32vw55x_rcu.c **** void rcu_irc16m_adjust_value_set(uint32_t irc16m_adjval)
1011:C:/Users/stapi/OneDrive/Desktop/GD32VW553/GD32VW55X_Wifi_BLE_SDK/GD32VW55x_RELEASE_V1.0.2/MSDK/plf/GD32VW55x_standard_peripheral/Source\gd32vw55x_rcu.c **** {
 1309              		.loc 1 1011 1 is_stmt 1
 1310              		.cfi_startproc
 1311              	.LVL104:
1012:C:/Users/stapi/OneDrive/Desktop/GD32VW553/GD32VW55X_Wifi_BLE_SDK/GD32VW55x_RELEASE_V1.0.2/MSDK/plf/GD32VW55x_standard_peripheral/Source\gd32vw55x_rcu.c ****     uint32_t reg;
 1312              		.loc 1 1012 5
1013:C:/Users/stapi/OneDrive/Desktop/GD32VW553/GD32VW55X_Wifi_BLE_SDK/GD32VW55x_RELEASE_V1.0.2/MSDK/plf/GD32VW55x_standard_peripheral/Source\gd32vw55x_rcu.c **** 
1014:C:/Users/stapi/OneDrive/Desktop/GD32VW553/GD32VW55X_Wifi_BLE_SDK/GD32VW55x_RELEASE_V1.0.2/MSDK/plf/GD32VW55x_standard_peripheral/Source\gd32vw55x_rcu.c ****     reg = RCU_CTL;
 1313              		.loc 1 1014 5
 1314              		.loc 1 1014 9 is_stmt 0
 1315 0000 37470240 		li	a4,1073889280
 1316 0004 83270780 		lw	a5,-2048(a4)
 1317              	.LVL105:
1015:C:/Users/stapi/OneDrive/Desktop/GD32VW553/GD32VW55X_Wifi_BLE_SDK/GD32VW55x_RELEASE_V1.0.2/MSDK/plf/GD32VW55x_standard_peripheral/Source\gd32vw55x_rcu.c ****     /* reset the IRC16MADJ bits and set according to irc16m_adjval */
1016:C:/Users/stapi/OneDrive/Desktop/GD32VW553/GD32VW55X_Wifi_BLE_SDK/GD32VW55x_RELEASE_V1.0.2/MSDK/plf/GD32VW55x_standard_peripheral/Source\gd32vw55x_rcu.c ****     reg &= ~RCU_CTL_IRC16MADJ;
 1318              		.loc 1 1016 5 is_stmt 1
1017:C:/Users/stapi/OneDrive/Desktop/GD32VW553/GD32VW55X_Wifi_BLE_SDK/GD32VW55x_RELEASE_V1.0.2/MSDK/plf/GD32VW55x_standard_peripheral/Source\gd32vw55x_rcu.c ****     RCU_CTL = (reg | ((irc16m_adjval & RCU_IRC16M_ADJUST_MASK) << RCU_IRC16M_ADJUST_OFFSET));
 1319              		.loc 1 1017 5
 1320              		.loc 1 1017 64 is_stmt 0
 1321 0008 0E05     		slli	a0,a0,3
 1322              	.LVL106:
 1323 000a 1375F50F 		andi	a0,a0,255
1016:C:/Users/stapi/OneDrive/Desktop/GD32VW553/GD32VW55X_Wifi_BLE_SDK/GD32VW55x_RELEASE_V1.0.2/MSDK/plf/GD32VW55x_standard_peripheral/Source\gd32vw55x_rcu.c ****     RCU_CTL = (reg | ((irc16m_adjval & RCU_IRC16M_ADJUST_MASK) << RCU_IRC16M_ADJUST_OFFSET));
 1324              		.loc 1 1016 9
 1325 000e 93F777F0 		andi	a5,a5,-249
 1326              	.LVL107:
 1327              		.loc 1 1017 20
 1328 0012 5D8D     		or	a0,a0,a5
 1329              		.loc 1 1017 13
 1330 0014 2320A780 		sw	a0,-2048(a4)
1018:C:/Users/stapi/OneDrive/Desktop/GD32VW553/GD32VW55X_Wifi_BLE_SDK/GD32VW55x_RELEASE_V1.0.2/MSDK/plf/GD32VW55x_standard_peripheral/Source\gd32vw55x_rcu.c **** }
 1331              		.loc 1 1018 1
 1332 0018 8280     		ret
 1333              		.cfi_endproc
 1334              	.LFE410:
 1336              		.section	.text.rcu_voltage_key_unlock,"ax",@progbits
 1337              		.align	1
 1338              		.globl	rcu_voltage_key_unlock
 1340              	rcu_voltage_key_unlock:
 1341              	.LFB411:
1019:C:/Users/stapi/OneDrive/Desktop/GD32VW553/GD32VW55X_Wifi_BLE_SDK/GD32VW55x_RELEASE_V1.0.2/MSDK/plf/GD32VW55x_standard_peripheral/Source\gd32vw55x_rcu.c **** 
1020:C:/Users/stapi/OneDrive/Desktop/GD32VW553/GD32VW55X_Wifi_BLE_SDK/GD32VW55x_RELEASE_V1.0.2/MSDK/plf/GD32VW55x_standard_peripheral/Source\gd32vw55x_rcu.c **** /*!
1021:C:/Users/stapi/OneDrive/Desktop/GD32VW553/GD32VW55X_Wifi_BLE_SDK/GD32VW55x_RELEASE_V1.0.2/MSDK/plf/GD32VW55x_standard_peripheral/Source\gd32vw55x_rcu.c ****     \brief      unlock the voltage key
1022:C:/Users/stapi/OneDrive/Desktop/GD32VW553/GD32VW55X_Wifi_BLE_SDK/GD32VW55x_RELEASE_V1.0.2/MSDK/plf/GD32VW55x_standard_peripheral/Source\gd32vw55x_rcu.c ****     \param[in]  none
1023:C:/Users/stapi/OneDrive/Desktop/GD32VW553/GD32VW55X_Wifi_BLE_SDK/GD32VW55x_RELEASE_V1.0.2/MSDK/plf/GD32VW55x_standard_peripheral/Source\gd32vw55x_rcu.c ****     \param[out] none
1024:C:/Users/stapi/OneDrive/Desktop/GD32VW553/GD32VW55X_Wifi_BLE_SDK/GD32VW55x_RELEASE_V1.0.2/MSDK/plf/GD32VW55x_standard_peripheral/Source\gd32vw55x_rcu.c ****     \retval     none
1025:C:/Users/stapi/OneDrive/Desktop/GD32VW553/GD32VW55X_Wifi_BLE_SDK/GD32VW55x_RELEASE_V1.0.2/MSDK/plf/GD32VW55x_standard_peripheral/Source\gd32vw55x_rcu.c **** */
1026:C:/Users/stapi/OneDrive/Desktop/GD32VW553/GD32VW55X_Wifi_BLE_SDK/GD32VW55x_RELEASE_V1.0.2/MSDK/plf/GD32VW55x_standard_peripheral/Source\gd32vw55x_rcu.c **** void rcu_voltage_key_unlock(void)
1027:C:/Users/stapi/OneDrive/Desktop/GD32VW553/GD32VW55X_Wifi_BLE_SDK/GD32VW55x_RELEASE_V1.0.2/MSDK/plf/GD32VW55x_standard_peripheral/Source\gd32vw55x_rcu.c **** {
 1342              		.loc 1 1027 1 is_stmt 1
 1343              		.cfi_startproc
1028:C:/Users/stapi/OneDrive/Desktop/GD32VW553/GD32VW55X_Wifi_BLE_SDK/GD32VW55x_RELEASE_V1.0.2/MSDK/plf/GD32VW55x_standard_peripheral/Source\gd32vw55x_rcu.c ****     RCU_VKEY = RCU_VKEY_UNLOCK;
 1344              		.loc 1 1028 5
 1345              		.loc 1 1028 14 is_stmt 0
 1346 0000 B7472B1A 		li	a5,439042048
 1347 0004 37470240 		li	a4,1073889280
 1348 0008 9387D7C4 		addi	a5,a5,-947
 1349 000c 2320F790 		sw	a5,-1792(a4)
1029:C:/Users/stapi/OneDrive/Desktop/GD32VW553/GD32VW55X_Wifi_BLE_SDK/GD32VW55x_RELEASE_V1.0.2/MSDK/plf/GD32VW55x_standard_peripheral/Source\gd32vw55x_rcu.c **** }
 1350              		.loc 1 1029 1
 1351 0010 8280     		ret
 1352              		.cfi_endproc
 1353              	.LFE411:
 1355              		.section	.text.rcu_deepsleep_voltage_set,"ax",@progbits
 1356              		.align	1
 1357              		.globl	rcu_deepsleep_voltage_set
 1359              	rcu_deepsleep_voltage_set:
 1360              	.LFB412:
1030:C:/Users/stapi/OneDrive/Desktop/GD32VW553/GD32VW55X_Wifi_BLE_SDK/GD32VW55x_RELEASE_V1.0.2/MSDK/plf/GD32VW55x_standard_peripheral/Source\gd32vw55x_rcu.c **** 
1031:C:/Users/stapi/OneDrive/Desktop/GD32VW553/GD32VW55X_Wifi_BLE_SDK/GD32VW55x_RELEASE_V1.0.2/MSDK/plf/GD32VW55x_standard_peripheral/Source\gd32vw55x_rcu.c **** /*!
1032:C:/Users/stapi/OneDrive/Desktop/GD32VW553/GD32VW55X_Wifi_BLE_SDK/GD32VW55x_RELEASE_V1.0.2/MSDK/plf/GD32VW55x_standard_peripheral/Source\gd32vw55x_rcu.c ****     \brief      deep-sleep mode voltage select
1033:C:/Users/stapi/OneDrive/Desktop/GD32VW553/GD32VW55X_Wifi_BLE_SDK/GD32VW55x_RELEASE_V1.0.2/MSDK/plf/GD32VW55x_standard_peripheral/Source\gd32vw55x_rcu.c ****     \param[in]  dsvol: deep sleep mode voltage
1034:C:/Users/stapi/OneDrive/Desktop/GD32VW553/GD32VW55X_Wifi_BLE_SDK/GD32VW55x_RELEASE_V1.0.2/MSDK/plf/GD32VW55x_standard_peripheral/Source\gd32vw55x_rcu.c ****                 only one parameter can be selected which is shown as below:
1035:C:/Users/stapi/OneDrive/Desktop/GD32VW553/GD32VW55X_Wifi_BLE_SDK/GD32VW55x_RELEASE_V1.0.2/MSDK/plf/GD32VW55x_standard_peripheral/Source\gd32vw55x_rcu.c ****       \arg        RCU_DEEPSLEEP_V_1_1: the core voltage is 1.1V
1036:C:/Users/stapi/OneDrive/Desktop/GD32VW553/GD32VW55X_Wifi_BLE_SDK/GD32VW55x_RELEASE_V1.0.2/MSDK/plf/GD32VW55x_standard_peripheral/Source\gd32vw55x_rcu.c ****       \arg        RCU_DEEPSLEEP_V_1_0: the core voltage is 1.0V
1037:C:/Users/stapi/OneDrive/Desktop/GD32VW553/GD32VW55X_Wifi_BLE_SDK/GD32VW55x_RELEASE_V1.0.2/MSDK/plf/GD32VW55x_standard_peripheral/Source\gd32vw55x_rcu.c ****       \arg        RCU_DEEPSLEEP_V_0_9: the core voltage is 0.9V
1038:C:/Users/stapi/OneDrive/Desktop/GD32VW553/GD32VW55X_Wifi_BLE_SDK/GD32VW55x_RELEASE_V1.0.2/MSDK/plf/GD32VW55x_standard_peripheral/Source\gd32vw55x_rcu.c ****     \param[out] none
1039:C:/Users/stapi/OneDrive/Desktop/GD32VW553/GD32VW55X_Wifi_BLE_SDK/GD32VW55x_RELEASE_V1.0.2/MSDK/plf/GD32VW55x_standard_peripheral/Source\gd32vw55x_rcu.c ****     \retval     none
1040:C:/Users/stapi/OneDrive/Desktop/GD32VW553/GD32VW55X_Wifi_BLE_SDK/GD32VW55x_RELEASE_V1.0.2/MSDK/plf/GD32VW55x_standard_peripheral/Source\gd32vw55x_rcu.c **** */
1041:C:/Users/stapi/OneDrive/Desktop/GD32VW553/GD32VW55X_Wifi_BLE_SDK/GD32VW55x_RELEASE_V1.0.2/MSDK/plf/GD32VW55x_standard_peripheral/Source\gd32vw55x_rcu.c **** void rcu_deepsleep_voltage_set(uint32_t dsvol)
1042:C:/Users/stapi/OneDrive/Desktop/GD32VW553/GD32VW55X_Wifi_BLE_SDK/GD32VW55x_RELEASE_V1.0.2/MSDK/plf/GD32VW55x_standard_peripheral/Source\gd32vw55x_rcu.c **** {
 1361              		.loc 1 1042 1 is_stmt 1
 1362              		.cfi_startproc
 1363              	.LVL108:
1043:C:/Users/stapi/OneDrive/Desktop/GD32VW553/GD32VW55X_Wifi_BLE_SDK/GD32VW55x_RELEASE_V1.0.2/MSDK/plf/GD32VW55x_standard_peripheral/Source\gd32vw55x_rcu.c ****     dsvol &= RCU_DSV_DSLPVS;
 1364              		.loc 1 1043 5
 1365              		.loc 1 1043 11 is_stmt 0
 1366 0000 0D89     		andi	a0,a0,3
 1367              	.LVL109:
1044:C:/Users/stapi/OneDrive/Desktop/GD32VW553/GD32VW55X_Wifi_BLE_SDK/GD32VW55x_RELEASE_V1.0.2/MSDK/plf/GD32VW55x_standard_peripheral/Source\gd32vw55x_rcu.c ****     RCU_DSV = dsvol;
 1368              		.loc 1 1044 5 is_stmt 1
 1369              		.loc 1 1044 13 is_stmt 0
 1370 0002 B7470240 		li	a5,1073889280
 1371 0006 23AAA792 		sw	a0,-1740(a5)
1045:C:/Users/stapi/OneDrive/Desktop/GD32VW553/GD32VW55X_Wifi_BLE_SDK/GD32VW55x_RELEASE_V1.0.2/MSDK/plf/GD32VW55x_standard_peripheral/Source\gd32vw55x_rcu.c **** }
 1372              		.loc 1 1045 1
 1373 000a 8280     		ret
 1374              		.cfi_endproc
 1375              	.LFE412:
 1377              		.section	.text.rcu_clock_freq_get,"ax",@progbits
 1378              		.align	1
 1379              		.globl	rcu_clock_freq_get
 1381              	rcu_clock_freq_get:
 1382              	.LFB413:
1046:C:/Users/stapi/OneDrive/Desktop/GD32VW553/GD32VW55X_Wifi_BLE_SDK/GD32VW55x_RELEASE_V1.0.2/MSDK/plf/GD32VW55x_standard_peripheral/Source\gd32vw55x_rcu.c **** 
1047:C:/Users/stapi/OneDrive/Desktop/GD32VW553/GD32VW55X_Wifi_BLE_SDK/GD32VW55x_RELEASE_V1.0.2/MSDK/plf/GD32VW55x_standard_peripheral/Source\gd32vw55x_rcu.c **** /*!
1048:C:/Users/stapi/OneDrive/Desktop/GD32VW553/GD32VW55X_Wifi_BLE_SDK/GD32VW55x_RELEASE_V1.0.2/MSDK/plf/GD32VW55x_standard_peripheral/Source\gd32vw55x_rcu.c ****     \brief      get the system clock, bus and peripheral clock frequency
1049:C:/Users/stapi/OneDrive/Desktop/GD32VW553/GD32VW55X_Wifi_BLE_SDK/GD32VW55x_RELEASE_V1.0.2/MSDK/plf/GD32VW55x_standard_peripheral/Source\gd32vw55x_rcu.c ****     \param[in]  clock: the clock frequency which to get
1050:C:/Users/stapi/OneDrive/Desktop/GD32VW553/GD32VW55X_Wifi_BLE_SDK/GD32VW55x_RELEASE_V1.0.2/MSDK/plf/GD32VW55x_standard_peripheral/Source\gd32vw55x_rcu.c ****                 only one parameter can be selected which is shown as below:
1051:C:/Users/stapi/OneDrive/Desktop/GD32VW553/GD32VW55X_Wifi_BLE_SDK/GD32VW55x_RELEASE_V1.0.2/MSDK/plf/GD32VW55x_standard_peripheral/Source\gd32vw55x_rcu.c ****       \arg        CK_SYS: system clock frequency
1052:C:/Users/stapi/OneDrive/Desktop/GD32VW553/GD32VW55X_Wifi_BLE_SDK/GD32VW55x_RELEASE_V1.0.2/MSDK/plf/GD32VW55x_standard_peripheral/Source\gd32vw55x_rcu.c ****       \arg        CK_AHB: AHB clock frequency
1053:C:/Users/stapi/OneDrive/Desktop/GD32VW553/GD32VW55X_Wifi_BLE_SDK/GD32VW55x_RELEASE_V1.0.2/MSDK/plf/GD32VW55x_standard_peripheral/Source\gd32vw55x_rcu.c ****       \arg        CK_APB1: APB1 clock frequency
1054:C:/Users/stapi/OneDrive/Desktop/GD32VW553/GD32VW55X_Wifi_BLE_SDK/GD32VW55x_RELEASE_V1.0.2/MSDK/plf/GD32VW55x_standard_peripheral/Source\gd32vw55x_rcu.c ****       \arg        CK_APB2: APB2 clock frequency
1055:C:/Users/stapi/OneDrive/Desktop/GD32VW553/GD32VW55X_Wifi_BLE_SDK/GD32VW55x_RELEASE_V1.0.2/MSDK/plf/GD32VW55x_standard_peripheral/Source\gd32vw55x_rcu.c ****       \arg        CK_USART0: USART0 clock frequency
1056:C:/Users/stapi/OneDrive/Desktop/GD32VW553/GD32VW55X_Wifi_BLE_SDK/GD32VW55x_RELEASE_V1.0.2/MSDK/plf/GD32VW55x_standard_peripheral/Source\gd32vw55x_rcu.c ****       \arg        CK_I2C0: I2C0 clock frequency
1057:C:/Users/stapi/OneDrive/Desktop/GD32VW553/GD32VW55X_Wifi_BLE_SDK/GD32VW55x_RELEASE_V1.0.2/MSDK/plf/GD32VW55x_standard_peripheral/Source\gd32vw55x_rcu.c ****     \param[out] none
1058:C:/Users/stapi/OneDrive/Desktop/GD32VW553/GD32VW55X_Wifi_BLE_SDK/GD32VW55x_RELEASE_V1.0.2/MSDK/plf/GD32VW55x_standard_peripheral/Source\gd32vw55x_rcu.c ****     \retval     clock frequency of system, AHB, APB1, APB2
1059:C:/Users/stapi/OneDrive/Desktop/GD32VW553/GD32VW55X_Wifi_BLE_SDK/GD32VW55x_RELEASE_V1.0.2/MSDK/plf/GD32VW55x_standard_peripheral/Source\gd32vw55x_rcu.c **** */
1060:C:/Users/stapi/OneDrive/Desktop/GD32VW553/GD32VW55X_Wifi_BLE_SDK/GD32VW55x_RELEASE_V1.0.2/MSDK/plf/GD32VW55x_standard_peripheral/Source\gd32vw55x_rcu.c **** uint32_t rcu_clock_freq_get(rcu_clock_freq_enum clock)
1061:C:/Users/stapi/OneDrive/Desktop/GD32VW553/GD32VW55X_Wifi_BLE_SDK/GD32VW55x_RELEASE_V1.0.2/MSDK/plf/GD32VW55x_standard_peripheral/Source\gd32vw55x_rcu.c **** {
 1383              		.loc 1 1061 1 is_stmt 1
 1384              		.cfi_startproc
 1385              	.LVL110:
 1386 0000 17030000 		call	t0,__riscv_save_2
 1386      E7020300 
 1387              		.cfi_offset 9, -12
 1388              		.cfi_offset 8, -8
 1389              		.cfi_offset 1, -4
 1390              		.cfi_def_cfa_offset 16
1062:C:/Users/stapi/OneDrive/Desktop/GD32VW553/GD32VW55X_Wifi_BLE_SDK/GD32VW55x_RELEASE_V1.0.2/MSDK/plf/GD32VW55x_standard_peripheral/Source\gd32vw55x_rcu.c ****     uint32_t sws, ck_freq = 0U;
 1391              		.loc 1 1062 5
 1392              	.LVL111:
1063:C:/Users/stapi/OneDrive/Desktop/GD32VW553/GD32VW55X_Wifi_BLE_SDK/GD32VW55x_RELEASE_V1.0.2/MSDK/plf/GD32VW55x_standard_peripheral/Source\gd32vw55x_rcu.c ****     uint32_t cksys_freq, ahb_freq, apb1_freq, apb2_freq;
 1393              		.loc 1 1063 5
1064:C:/Users/stapi/OneDrive/Desktop/GD32VW553/GD32VW55X_Wifi_BLE_SDK/GD32VW55x_RELEASE_V1.0.2/MSDK/plf/GD32VW55x_standard_peripheral/Source\gd32vw55x_rcu.c ****     uint32_t usart0_freq = 0U,i2c0_freq = 0U;
 1394              		.loc 1 1064 5
1065:C:/Users/stapi/OneDrive/Desktop/GD32VW553/GD32VW55X_Wifi_BLE_SDK/GD32VW55x_RELEASE_V1.0.2/MSDK/plf/GD32VW55x_standard_peripheral/Source\gd32vw55x_rcu.c ****     uint32_t idx, clk_exp;
 1395              		.loc 1 1065 5
1066:C:/Users/stapi/OneDrive/Desktop/GD32VW553/GD32VW55X_Wifi_BLE_SDK/GD32VW55x_RELEASE_V1.0.2/MSDK/plf/GD32VW55x_standard_peripheral/Source\gd32vw55x_rcu.c **** 
1067:C:/Users/stapi/OneDrive/Desktop/GD32VW553/GD32VW55X_Wifi_BLE_SDK/GD32VW55x_RELEASE_V1.0.2/MSDK/plf/GD32VW55x_standard_peripheral/Source\gd32vw55x_rcu.c ****     /* exponent of AHB, APB1 and APB2 clock divider */
1068:C:/Users/stapi/OneDrive/Desktop/GD32VW553/GD32VW55X_Wifi_BLE_SDK/GD32VW55x_RELEASE_V1.0.2/MSDK/plf/GD32VW55x_standard_peripheral/Source\gd32vw55x_rcu.c ****     const uint8_t ahb_exp[16] = {0, 0, 0, 0, 0, 0, 0, 0, 1, 2, 3, 4, 6, 7, 8, 9};
 1396              		.loc 1 1068 5
1061:C:/Users/stapi/OneDrive/Desktop/GD32VW553/GD32VW55X_Wifi_BLE_SDK/GD32VW55x_RELEASE_V1.0.2/MSDK/plf/GD32VW55x_standard_peripheral/Source\gd32vw55x_rcu.c ****     uint32_t sws, ck_freq = 0U;
 1397              		.loc 1 1061 1 is_stmt 0
 1398 0008 7971     		addi	sp,sp,-48
 1399              		.cfi_def_cfa_offset 64
 1400              		.loc 1 1068 19
 1401 000a B7050000 		lui	a1,%hi(.LANCHOR0)
 1402 000e 93840500 		addi	s1,a1,%lo(.LANCHOR0)
 1403 0012 4146     		li	a2,16
 1404 0014 93850500 		addi	a1,a1,%lo(.LANCHOR0)
1061:C:/Users/stapi/OneDrive/Desktop/GD32VW553/GD32VW55X_Wifi_BLE_SDK/GD32VW55x_RELEASE_V1.0.2/MSDK/plf/GD32VW55x_standard_peripheral/Source\gd32vw55x_rcu.c ****     uint32_t sws, ck_freq = 0U;
 1405              		.loc 1 1061 1
 1406 0018 2A84     		mv	s0,a0
 1407              		.loc 1 1068 19
 1408 001a 0808     		addi	a0,sp,16
 1409              	.LVL112:
 1410 001c 97000000 		call	memcpy
 1410      E7800000 
 1411              	.LVL113:
1069:C:/Users/stapi/OneDrive/Desktop/GD32VW553/GD32VW55X_Wifi_BLE_SDK/GD32VW55x_RELEASE_V1.0.2/MSDK/plf/GD32VW55x_standard_peripheral/Source\gd32vw55x_rcu.c ****     const uint8_t apb1_exp[8] = {0, 0, 0, 0, 1, 2, 3, 4};
 1412              		.loc 1 1069 5 is_stmt 1
 1413              		.loc 1 1069 19 is_stmt 0
 1414 0024 B7070304 		li	a5,67305472
 1415 0028 93871720 		addi	a5,a5,513
1070:C:/Users/stapi/OneDrive/Desktop/GD32VW553/GD32VW55X_Wifi_BLE_SDK/GD32VW55x_RELEASE_V1.0.2/MSDK/plf/GD32VW55x_standard_peripheral/Source\gd32vw55x_rcu.c ****     const uint8_t apb2_exp[8] = {0, 0, 0, 0, 1, 2, 3, 4};
1071:C:/Users/stapi/OneDrive/Desktop/GD32VW553/GD32VW55X_Wifi_BLE_SDK/GD32VW55x_RELEASE_V1.0.2/MSDK/plf/GD32VW55x_standard_peripheral/Source\gd32vw55x_rcu.c **** 
1072:C:/Users/stapi/OneDrive/Desktop/GD32VW553/GD32VW55X_Wifi_BLE_SDK/GD32VW55x_RELEASE_V1.0.2/MSDK/plf/GD32VW55x_standard_peripheral/Source\gd32vw55x_rcu.c ****     #ifndef CONFIG_PLATFORM_FPGA
1073:C:/Users/stapi/OneDrive/Desktop/GD32VW553/GD32VW55X_Wifi_BLE_SDK/GD32VW55x_RELEASE_V1.0.2/MSDK/plf/GD32VW55x_standard_peripheral/Source\gd32vw55x_rcu.c ****     uint32_t plldigpsc;
1074:C:/Users/stapi/OneDrive/Desktop/GD32VW553/GD32VW55X_Wifi_BLE_SDK/GD32VW55x_RELEASE_V1.0.2/MSDK/plf/GD32VW55x_standard_peripheral/Source\gd32vw55x_rcu.c ****     const uint32_t plldig_oclk[4] = {192000000, 240000000, 320000000, 480000000};
 1416              		.loc 1 1074 20
 1417 002c 4146     		li	a2,16
 1418 002e 93850401 		addi	a1,s1,16
 1419 0032 0810     		addi	a0,sp,32
1069:C:/Users/stapi/OneDrive/Desktop/GD32VW553/GD32VW55X_Wifi_BLE_SDK/GD32VW55x_RELEASE_V1.0.2/MSDK/plf/GD32VW55x_standard_peripheral/Source\gd32vw55x_rcu.c ****     const uint8_t apb1_exp[8] = {0, 0, 0, 0, 1, 2, 3, 4};
 1420              		.loc 1 1069 19
 1421 0034 3EC2     		sw	a5,4(sp)
1070:C:/Users/stapi/OneDrive/Desktop/GD32VW553/GD32VW55X_Wifi_BLE_SDK/GD32VW55x_RELEASE_V1.0.2/MSDK/plf/GD32VW55x_standard_peripheral/Source\gd32vw55x_rcu.c ****     const uint8_t apb2_exp[8] = {0, 0, 0, 0, 1, 2, 3, 4};
 1422              		.loc 1 1070 5 is_stmt 1
1070:C:/Users/stapi/OneDrive/Desktop/GD32VW553/GD32VW55X_Wifi_BLE_SDK/GD32VW55x_RELEASE_V1.0.2/MSDK/plf/GD32VW55x_standard_peripheral/Source\gd32vw55x_rcu.c ****     const uint8_t apb2_exp[8] = {0, 0, 0, 0, 1, 2, 3, 4};
 1423              		.loc 1 1070 19 is_stmt 0
 1424 0036 3EC6     		sw	a5,12(sp)
1073:C:/Users/stapi/OneDrive/Desktop/GD32VW553/GD32VW55X_Wifi_BLE_SDK/GD32VW55x_RELEASE_V1.0.2/MSDK/plf/GD32VW55x_standard_peripheral/Source\gd32vw55x_rcu.c ****     const uint32_t plldig_oclk[4] = {192000000, 240000000, 320000000, 480000000};
 1425              		.loc 1 1073 5 is_stmt 1
 1426              		.loc 1 1074 5
1069:C:/Users/stapi/OneDrive/Desktop/GD32VW553/GD32VW55X_Wifi_BLE_SDK/GD32VW55x_RELEASE_V1.0.2/MSDK/plf/GD32VW55x_standard_peripheral/Source\gd32vw55x_rcu.c ****     const uint8_t apb1_exp[8] = {0, 0, 0, 0, 1, 2, 3, 4};
 1427              		.loc 1 1069 19 is_stmt 0
 1428 0038 02C0     		sw	zero,0(sp)
1070:C:/Users/stapi/OneDrive/Desktop/GD32VW553/GD32VW55X_Wifi_BLE_SDK/GD32VW55x_RELEASE_V1.0.2/MSDK/plf/GD32VW55x_standard_peripheral/Source\gd32vw55x_rcu.c ****     const uint8_t apb2_exp[8] = {0, 0, 0, 0, 1, 2, 3, 4};
 1429              		.loc 1 1070 19
 1430 003a 02C4     		sw	zero,8(sp)
 1431              		.loc 1 1074 20
 1432 003c 97000000 		call	memcpy
 1432      E7800000 
 1433              	.LVL114:
1075:C:/Users/stapi/OneDrive/Desktop/GD32VW553/GD32VW55X_Wifi_BLE_SDK/GD32VW55x_RELEASE_V1.0.2/MSDK/plf/GD32VW55x_standard_peripheral/Source\gd32vw55x_rcu.c ****     #endif
1076:C:/Users/stapi/OneDrive/Desktop/GD32VW553/GD32VW55X_Wifi_BLE_SDK/GD32VW55x_RELEASE_V1.0.2/MSDK/plf/GD32VW55x_standard_peripheral/Source\gd32vw55x_rcu.c **** 
1077:C:/Users/stapi/OneDrive/Desktop/GD32VW553/GD32VW55X_Wifi_BLE_SDK/GD32VW55x_RELEASE_V1.0.2/MSDK/plf/GD32VW55x_standard_peripheral/Source\gd32vw55x_rcu.c ****     sws = GET_BITS(RCU_CFG0, 2, 3);
 1434              		.loc 1 1077 5 is_stmt 1
 1435              		.loc 1 1077 11 is_stmt 0
 1436 0044 B7460240 		li	a3,1073889280
 1437 0048 83A78680 		lw	a5,-2040(a3)
1078:C:/Users/stapi/OneDrive/Desktop/GD32VW553/GD32VW55X_Wifi_BLE_SDK/GD32VW55x_RELEASE_V1.0.2/MSDK/plf/GD32VW55x_standard_peripheral/Source\gd32vw55x_rcu.c ****     switch(sws){
 1438              		.loc 1 1078 5
 1439 004c 0547     		li	a4,1
1077:C:/Users/stapi/OneDrive/Desktop/GD32VW553/GD32VW55X_Wifi_BLE_SDK/GD32VW55x_RELEASE_V1.0.2/MSDK/plf/GD32VW55x_standard_peripheral/Source\gd32vw55x_rcu.c ****     switch(sws){
 1440              		.loc 1 1077 11
 1441 004e 8983     		srli	a5,a5,2
1077:C:/Users/stapi/OneDrive/Desktop/GD32VW553/GD32VW55X_Wifi_BLE_SDK/GD32VW55x_RELEASE_V1.0.2/MSDK/plf/GD32VW55x_standard_peripheral/Source\gd32vw55x_rcu.c ****     switch(sws){
 1442              		.loc 1 1077 9
 1443 0050 8D8B     		andi	a5,a5,3
 1444              	.LVL115:
 1445              		.loc 1 1078 5 is_stmt 1
 1446 0052 638BE706 		beq	a5,a4,.L106
 1447 0056 0947     		li	a4,2
 1448 0058 639DE706 		bne	a5,a4,.L107
1079:C:/Users/stapi/OneDrive/Desktop/GD32VW553/GD32VW55X_Wifi_BLE_SDK/GD32VW55x_RELEASE_V1.0.2/MSDK/plf/GD32VW55x_standard_peripheral/Source\gd32vw55x_rcu.c ****     /* IRC16M is selected as CK_SYS */
1080:C:/Users/stapi/OneDrive/Desktop/GD32VW553/GD32VW55X_Wifi_BLE_SDK/GD32VW55x_RELEASE_V1.0.2/MSDK/plf/GD32VW55x_standard_peripheral/Source\gd32vw55x_rcu.c ****     case SEL_IRC16M:
1081:C:/Users/stapi/OneDrive/Desktop/GD32VW553/GD32VW55X_Wifi_BLE_SDK/GD32VW55x_RELEASE_V1.0.2/MSDK/plf/GD32VW55x_standard_peripheral/Source\gd32vw55x_rcu.c ****         cksys_freq = IRC16M_VALUE;
1082:C:/Users/stapi/OneDrive/Desktop/GD32VW553/GD32VW55X_Wifi_BLE_SDK/GD32VW55x_RELEASE_V1.0.2/MSDK/plf/GD32VW55x_standard_peripheral/Source\gd32vw55x_rcu.c ****         break;
1083:C:/Users/stapi/OneDrive/Desktop/GD32VW553/GD32VW55X_Wifi_BLE_SDK/GD32VW55x_RELEASE_V1.0.2/MSDK/plf/GD32VW55x_standard_peripheral/Source\gd32vw55x_rcu.c ****     /* HXTAL is selected as CK_SYS */
1084:C:/Users/stapi/OneDrive/Desktop/GD32VW553/GD32VW55X_Wifi_BLE_SDK/GD32VW55x_RELEASE_V1.0.2/MSDK/plf/GD32VW55x_standard_peripheral/Source\gd32vw55x_rcu.c ****     case SEL_HXTAL:
1085:C:/Users/stapi/OneDrive/Desktop/GD32VW553/GD32VW55X_Wifi_BLE_SDK/GD32VW55x_RELEASE_V1.0.2/MSDK/plf/GD32VW55x_standard_peripheral/Source\gd32vw55x_rcu.c ****         cksys_freq = HXTAL_VALUE;
1086:C:/Users/stapi/OneDrive/Desktop/GD32VW553/GD32VW55X_Wifi_BLE_SDK/GD32VW55x_RELEASE_V1.0.2/MSDK/plf/GD32VW55x_standard_peripheral/Source\gd32vw55x_rcu.c ****         break;
1087:C:/Users/stapi/OneDrive/Desktop/GD32VW553/GD32VW55X_Wifi_BLE_SDK/GD32VW55x_RELEASE_V1.0.2/MSDK/plf/GD32VW55x_standard_peripheral/Source\gd32vw55x_rcu.c ****     /* PLLP is selected as CK_SYS */
1088:C:/Users/stapi/OneDrive/Desktop/GD32VW553/GD32VW55X_Wifi_BLE_SDK/GD32VW55x_RELEASE_V1.0.2/MSDK/plf/GD32VW55x_standard_peripheral/Source\gd32vw55x_rcu.c ****     case SEL_PLLDIG:
1089:C:/Users/stapi/OneDrive/Desktop/GD32VW553/GD32VW55X_Wifi_BLE_SDK/GD32VW55x_RELEASE_V1.0.2/MSDK/plf/GD32VW55x_standard_peripheral/Source\gd32vw55x_rcu.c ****     #ifdef CONFIG_PLATFORM_FPGA
1090:C:/Users/stapi/OneDrive/Desktop/GD32VW553/GD32VW55X_Wifi_BLE_SDK/GD32VW55x_RELEASE_V1.0.2/MSDK/plf/GD32VW55x_standard_peripheral/Source\gd32vw55x_rcu.c ****         /* For FPGA platform, PLLDIG clock is fixed at HXTAL_VALUE */
1091:C:/Users/stapi/OneDrive/Desktop/GD32VW553/GD32VW55X_Wifi_BLE_SDK/GD32VW55x_RELEASE_V1.0.2/MSDK/plf/GD32VW55x_standard_peripheral/Source\gd32vw55x_rcu.c ****         cksys_freq = HXTAL_VALUE;
1092:C:/Users/stapi/OneDrive/Desktop/GD32VW553/GD32VW55X_Wifi_BLE_SDK/GD32VW55x_RELEASE_V1.0.2/MSDK/plf/GD32VW55x_standard_peripheral/Source\gd32vw55x_rcu.c ****     #else
1093:C:/Users/stapi/OneDrive/Desktop/GD32VW553/GD32VW55X_Wifi_BLE_SDK/GD32VW55x_RELEASE_V1.0.2/MSDK/plf/GD32VW55x_standard_peripheral/Source\gd32vw55x_rcu.c ****         idx = GET_BITS(RCU_PLLDIGCFG0, 24, 25);
 1449              		.loc 1 1093 9
 1450              		.loc 1 1093 15 is_stmt 0
 1451 005c 03A74688 		lw	a4,-1916(a3)
 1452              	.LVL116:
1094:C:/Users/stapi/OneDrive/Desktop/GD32VW553/GD32VW55X_Wifi_BLE_SDK/GD32VW55x_RELEASE_V1.0.2/MSDK/plf/GD32VW55x_standard_peripheral/Source\gd32vw55x_rcu.c ****         plldigpsc = GET_BITS(RCU_PLLDIGCFG0, 26U, 31U) + 1;
 1453              		.loc 1 1094 9 is_stmt 1
 1454              		.loc 1 1094 21 is_stmt 0
 1455 0060 83A74688 		lw	a5,-1916(a3)
 1456              	.LVL117:
1095:C:/Users/stapi/OneDrive/Desktop/GD32VW553/GD32VW55X_Wifi_BLE_SDK/GD32VW55x_RELEASE_V1.0.2/MSDK/plf/GD32VW55x_standard_peripheral/Source\gd32vw55x_rcu.c ****         cksys_freq = plldig_oclk[idx] / plldigpsc;
 1457              		.loc 1 1095 9 is_stmt 1
 1458              		.loc 1 1095 33 is_stmt 0
 1459 0064 1418     		addi	a3,sp,48
1093:C:/Users/stapi/OneDrive/Desktop/GD32VW553/GD32VW55X_Wifi_BLE_SDK/GD32VW55x_RELEASE_V1.0.2/MSDK/plf/GD32VW55x_standard_peripheral/Source\gd32vw55x_rcu.c ****         plldigpsc = GET_BITS(RCU_PLLDIGCFG0, 26U, 31U) + 1;
 1460              		.loc 1 1093 13
 1461 0066 5983     		srli	a4,a4,22
 1462              	.LVL118:
 1463              		.loc 1 1095 33
 1464 0068 318B     		andi	a4,a4,12
 1465 006a 3697     		add	a4,a3,a4
 1466              		.loc 1 1095 20
 1467 006c 032707FF 		lw	a4,-16(a4)
1094:C:/Users/stapi/OneDrive/Desktop/GD32VW553/GD32VW55X_Wifi_BLE_SDK/GD32VW55x_RELEASE_V1.0.2/MSDK/plf/GD32VW55x_standard_peripheral/Source\gd32vw55x_rcu.c ****         plldigpsc = GET_BITS(RCU_PLLDIGCFG0, 26U, 31U) + 1;
 1468              		.loc 1 1094 21
 1469 0070 E983     		srli	a5,a5,26
 1470              	.LVL119:
1094:C:/Users/stapi/OneDrive/Desktop/GD32VW553/GD32VW55X_Wifi_BLE_SDK/GD32VW55x_RELEASE_V1.0.2/MSDK/plf/GD32VW55x_standard_peripheral/Source\gd32vw55x_rcu.c ****         plldigpsc = GET_BITS(RCU_PLLDIGCFG0, 26U, 31U) + 1;
 1471              		.loc 1 1094 19
 1472 0072 8507     		addi	a5,a5,1
 1473              	.LVL120:
 1474              		.loc 1 1095 20
 1475 0074 B357F702 		divu	a5,a4,a5
 1476              	.LVL121:
1096:C:/Users/stapi/OneDrive/Desktop/GD32VW553/GD32VW55X_Wifi_BLE_SDK/GD32VW55x_RELEASE_V1.0.2/MSDK/plf/GD32VW55x_standard_peripheral/Source\gd32vw55x_rcu.c ****     #endif
1097:C:/Users/stapi/OneDrive/Desktop/GD32VW553/GD32VW55X_Wifi_BLE_SDK/GD32VW55x_RELEASE_V1.0.2/MSDK/plf/GD32VW55x_standard_peripheral/Source\gd32vw55x_rcu.c ****         break;
 1477              		.loc 1 1097 9 is_stmt 1
 1478              	.L97:
1098:C:/Users/stapi/OneDrive/Desktop/GD32VW553/GD32VW55X_Wifi_BLE_SDK/GD32VW55x_RELEASE_V1.0.2/MSDK/plf/GD32VW55x_standard_peripheral/Source\gd32vw55x_rcu.c ****     /* IRC16M is selected as CK_SYS */
1099:C:/Users/stapi/OneDrive/Desktop/GD32VW553/GD32VW55X_Wifi_BLE_SDK/GD32VW55x_RELEASE_V1.0.2/MSDK/plf/GD32VW55x_standard_peripheral/Source\gd32vw55x_rcu.c ****     default:
1100:C:/Users/stapi/OneDrive/Desktop/GD32VW553/GD32VW55X_Wifi_BLE_SDK/GD32VW55x_RELEASE_V1.0.2/MSDK/plf/GD32VW55x_standard_peripheral/Source\gd32vw55x_rcu.c ****         cksys_freq = IRC16M_VALUE;
1101:C:/Users/stapi/OneDrive/Desktop/GD32VW553/GD32VW55X_Wifi_BLE_SDK/GD32VW55x_RELEASE_V1.0.2/MSDK/plf/GD32VW55x_standard_peripheral/Source\gd32vw55x_rcu.c ****         break;
1102:C:/Users/stapi/OneDrive/Desktop/GD32VW553/GD32VW55X_Wifi_BLE_SDK/GD32VW55x_RELEASE_V1.0.2/MSDK/plf/GD32VW55x_standard_peripheral/Source\gd32vw55x_rcu.c ****     }
1103:C:/Users/stapi/OneDrive/Desktop/GD32VW553/GD32VW55X_Wifi_BLE_SDK/GD32VW55x_RELEASE_V1.0.2/MSDK/plf/GD32VW55x_standard_peripheral/Source\gd32vw55x_rcu.c ****     /* calculate AHB clock frequency */
1104:C:/Users/stapi/OneDrive/Desktop/GD32VW553/GD32VW55X_Wifi_BLE_SDK/GD32VW55x_RELEASE_V1.0.2/MSDK/plf/GD32VW55x_standard_peripheral/Source\gd32vw55x_rcu.c ****     idx = GET_BITS(RCU_CFG0, 4, 7);
 1479              		.loc 1 1104 5
 1480              		.loc 1 1104 11 is_stmt 0
 1481 0078 37460240 		li	a2,1073889280
 1482 007c 03278680 		lw	a4,-2040(a2)
 1483              	.LVL122:
1105:C:/Users/stapi/OneDrive/Desktop/GD32VW553/GD32VW55X_Wifi_BLE_SDK/GD32VW55x_RELEASE_V1.0.2/MSDK/plf/GD32VW55x_standard_peripheral/Source\gd32vw55x_rcu.c ****     clk_exp = ahb_exp[idx];
 1484              		.loc 1 1105 5 is_stmt 1
1106:C:/Users/stapi/OneDrive/Desktop/GD32VW553/GD32VW55X_Wifi_BLE_SDK/GD32VW55x_RELEASE_V1.0.2/MSDK/plf/GD32VW55x_standard_peripheral/Source\gd32vw55x_rcu.c ****     ahb_freq = cksys_freq >> clk_exp;
 1485              		.loc 1 1106 5
1105:C:/Users/stapi/OneDrive/Desktop/GD32VW553/GD32VW55X_Wifi_BLE_SDK/GD32VW55x_RELEASE_V1.0.2/MSDK/plf/GD32VW55x_standard_peripheral/Source\gd32vw55x_rcu.c ****     clk_exp = ahb_exp[idx];
 1486              		.loc 1 1105 22 is_stmt 0
 1487 0080 1418     		addi	a3,sp,48
 1488              	.LVL123:
1107:C:/Users/stapi/OneDrive/Desktop/GD32VW553/GD32VW55X_Wifi_BLE_SDK/GD32VW55x_RELEASE_V1.0.2/MSDK/plf/GD32VW55x_standard_peripheral/Source\gd32vw55x_rcu.c **** 
1108:C:/Users/stapi/OneDrive/Desktop/GD32VW553/GD32VW55X_Wifi_BLE_SDK/GD32VW55x_RELEASE_V1.0.2/MSDK/plf/GD32VW55x_standard_peripheral/Source\gd32vw55x_rcu.c ****     /* calculate APB1 clock frequency */
1109:C:/Users/stapi/OneDrive/Desktop/GD32VW553/GD32VW55X_Wifi_BLE_SDK/GD32VW55x_RELEASE_V1.0.2/MSDK/plf/GD32VW55x_standard_peripheral/Source\gd32vw55x_rcu.c ****     idx = GET_BITS(RCU_CFG0, 10, 12);
1110:C:/Users/stapi/OneDrive/Desktop/GD32VW553/GD32VW55X_Wifi_BLE_SDK/GD32VW55x_RELEASE_V1.0.2/MSDK/plf/GD32VW55x_standard_peripheral/Source\gd32vw55x_rcu.c ****     clk_exp = apb1_exp[idx];
 1489              		.loc 1 1110 23
 1490 0082 0C18     		addi	a1,sp,48
1104:C:/Users/stapi/OneDrive/Desktop/GD32VW553/GD32VW55X_Wifi_BLE_SDK/GD32VW55x_RELEASE_V1.0.2/MSDK/plf/GD32VW55x_standard_peripheral/Source\gd32vw55x_rcu.c ****     clk_exp = ahb_exp[idx];
 1491              		.loc 1 1104 11
 1492 0084 1183     		srli	a4,a4,4
 1493              	.LVL124:
1104:C:/Users/stapi/OneDrive/Desktop/GD32VW553/GD32VW55X_Wifi_BLE_SDK/GD32VW55x_RELEASE_V1.0.2/MSDK/plf/GD32VW55x_standard_peripheral/Source\gd32vw55x_rcu.c ****     clk_exp = ahb_exp[idx];
 1494              		.loc 1 1104 9
 1495 0086 3D8B     		andi	a4,a4,15
 1496              	.LVL125:
1105:C:/Users/stapi/OneDrive/Desktop/GD32VW553/GD32VW55X_Wifi_BLE_SDK/GD32VW55x_RELEASE_V1.0.2/MSDK/plf/GD32VW55x_standard_peripheral/Source\gd32vw55x_rcu.c ****     ahb_freq = cksys_freq >> clk_exp;
 1497              		.loc 1 1105 22
 1498 0088 3697     		add	a4,a3,a4
 1499              	.LVL126:
1105:C:/Users/stapi/OneDrive/Desktop/GD32VW553/GD32VW55X_Wifi_BLE_SDK/GD32VW55x_RELEASE_V1.0.2/MSDK/plf/GD32VW55x_standard_peripheral/Source\gd32vw55x_rcu.c ****     ahb_freq = cksys_freq >> clk_exp;
 1500              		.loc 1 1105 13
 1501 008a 834607FE 		lbu	a3,-32(a4)
1109:C:/Users/stapi/OneDrive/Desktop/GD32VW553/GD32VW55X_Wifi_BLE_SDK/GD32VW55x_RELEASE_V1.0.2/MSDK/plf/GD32VW55x_standard_peripheral/Source\gd32vw55x_rcu.c ****     clk_exp = apb1_exp[idx];
 1502              		.loc 1 1109 11
 1503 008e 03278680 		lw	a4,-2040(a2)
1106:C:/Users/stapi/OneDrive/Desktop/GD32VW553/GD32VW55X_Wifi_BLE_SDK/GD32VW55x_RELEASE_V1.0.2/MSDK/plf/GD32VW55x_standard_peripheral/Source\gd32vw55x_rcu.c **** 
 1504              		.loc 1 1106 14
 1505 0092 B3D6D700 		srl	a3,a5,a3
 1506              	.LVL127:
1109:C:/Users/stapi/OneDrive/Desktop/GD32VW553/GD32VW55X_Wifi_BLE_SDK/GD32VW55x_RELEASE_V1.0.2/MSDK/plf/GD32VW55x_standard_peripheral/Source\gd32vw55x_rcu.c ****     clk_exp = apb1_exp[idx];
 1507              		.loc 1 1109 5 is_stmt 1
 1508              		.loc 1 1110 5
1111:C:/Users/stapi/OneDrive/Desktop/GD32VW553/GD32VW55X_Wifi_BLE_SDK/GD32VW55x_RELEASE_V1.0.2/MSDK/plf/GD32VW55x_standard_peripheral/Source\gd32vw55x_rcu.c ****     apb1_freq = ahb_freq >> clk_exp;
 1509              		.loc 1 1111 5
1109:C:/Users/stapi/OneDrive/Desktop/GD32VW553/GD32VW55X_Wifi_BLE_SDK/GD32VW55x_RELEASE_V1.0.2/MSDK/plf/GD32VW55x_standard_peripheral/Source\gd32vw55x_rcu.c ****     clk_exp = apb1_exp[idx];
 1510              		.loc 1 1109 11 is_stmt 0
 1511 0096 2983     		srli	a4,a4,10
 1512              	.LVL128:
1109:C:/Users/stapi/OneDrive/Desktop/GD32VW553/GD32VW55X_Wifi_BLE_SDK/GD32VW55x_RELEASE_V1.0.2/MSDK/plf/GD32VW55x_standard_peripheral/Source\gd32vw55x_rcu.c ****     clk_exp = apb1_exp[idx];
 1513              		.loc 1 1109 9
 1514 0098 1D8B     		andi	a4,a4,7
 1515              	.LVL129:
1110:C:/Users/stapi/OneDrive/Desktop/GD32VW553/GD32VW55X_Wifi_BLE_SDK/GD32VW55x_RELEASE_V1.0.2/MSDK/plf/GD32VW55x_standard_peripheral/Source\gd32vw55x_rcu.c ****     apb1_freq = ahb_freq >> clk_exp;
 1516              		.loc 1 1110 23
 1517 009a 2E97     		add	a4,a1,a4
 1518              	.LVL130:
1110:C:/Users/stapi/OneDrive/Desktop/GD32VW553/GD32VW55X_Wifi_BLE_SDK/GD32VW55x_RELEASE_V1.0.2/MSDK/plf/GD32VW55x_standard_peripheral/Source\gd32vw55x_rcu.c ****     apb1_freq = ahb_freq >> clk_exp;
 1519              		.loc 1 1110 13
 1520 009c 034507FD 		lbu	a0,-48(a4)
1112:C:/Users/stapi/OneDrive/Desktop/GD32VW553/GD32VW55X_Wifi_BLE_SDK/GD32VW55x_RELEASE_V1.0.2/MSDK/plf/GD32VW55x_standard_peripheral/Source\gd32vw55x_rcu.c **** 
1113:C:/Users/stapi/OneDrive/Desktop/GD32VW553/GD32VW55X_Wifi_BLE_SDK/GD32VW55x_RELEASE_V1.0.2/MSDK/plf/GD32VW55x_standard_peripheral/Source\gd32vw55x_rcu.c ****     /* calculate APB2 clock frequency */
1114:C:/Users/stapi/OneDrive/Desktop/GD32VW553/GD32VW55X_Wifi_BLE_SDK/GD32VW55x_RELEASE_V1.0.2/MSDK/plf/GD32VW55x_standard_peripheral/Source\gd32vw55x_rcu.c ****     idx = GET_BITS(RCU_CFG0, 13, 15);
 1521              		.loc 1 1114 11
 1522 00a0 03278680 		lw	a4,-2040(a2)
1111:C:/Users/stapi/OneDrive/Desktop/GD32VW553/GD32VW55X_Wifi_BLE_SDK/GD32VW55x_RELEASE_V1.0.2/MSDK/plf/GD32VW55x_standard_peripheral/Source\gd32vw55x_rcu.c **** 
 1523              		.loc 1 1111 15
 1524 00a4 33D5A600 		srl	a0,a3,a0
 1525              	.LVL131:
 1526              		.loc 1 1114 5 is_stmt 1
1115:C:/Users/stapi/OneDrive/Desktop/GD32VW553/GD32VW55X_Wifi_BLE_SDK/GD32VW55x_RELEASE_V1.0.2/MSDK/plf/GD32VW55x_standard_peripheral/Source\gd32vw55x_rcu.c ****     clk_exp = apb2_exp[idx];
 1527              		.loc 1 1115 5
1114:C:/Users/stapi/OneDrive/Desktop/GD32VW553/GD32VW55X_Wifi_BLE_SDK/GD32VW55x_RELEASE_V1.0.2/MSDK/plf/GD32VW55x_standard_peripheral/Source\gd32vw55x_rcu.c ****     clk_exp = apb2_exp[idx];
 1528              		.loc 1 1114 11 is_stmt 0
 1529 00a8 3583     		srli	a4,a4,13
 1530              	.LVL132:
1114:C:/Users/stapi/OneDrive/Desktop/GD32VW553/GD32VW55X_Wifi_BLE_SDK/GD32VW55x_RELEASE_V1.0.2/MSDK/plf/GD32VW55x_standard_peripheral/Source\gd32vw55x_rcu.c ****     clk_exp = apb2_exp[idx];
 1531              		.loc 1 1114 9
 1532 00aa 1D8B     		andi	a4,a4,7
 1533              	.LVL133:
 1534              		.loc 1 1115 23
 1535 00ac 2E97     		add	a4,a1,a4
 1536              	.LVL134:
 1537 00ae 034687FD 		lbu	a2,-40(a4)
 1538              	.LVL135:
1116:C:/Users/stapi/OneDrive/Desktop/GD32VW553/GD32VW55X_Wifi_BLE_SDK/GD32VW55x_RELEASE_V1.0.2/MSDK/plf/GD32VW55x_standard_peripheral/Source\gd32vw55x_rcu.c ****     apb2_freq = ahb_freq >> clk_exp;
 1539              		.loc 1 1116 5 is_stmt 1
1117:C:/Users/stapi/OneDrive/Desktop/GD32VW553/GD32VW55X_Wifi_BLE_SDK/GD32VW55x_RELEASE_V1.0.2/MSDK/plf/GD32VW55x_standard_peripheral/Source\gd32vw55x_rcu.c **** 
1118:C:/Users/stapi/OneDrive/Desktop/GD32VW553/GD32VW55X_Wifi_BLE_SDK/GD32VW55x_RELEASE_V1.0.2/MSDK/plf/GD32VW55x_standard_peripheral/Source\gd32vw55x_rcu.c **** #ifdef CONFIG_PLATFORM_FPGA
1119:C:/Users/stapi/OneDrive/Desktop/GD32VW553/GD32VW55X_Wifi_BLE_SDK/GD32VW55x_RELEASE_V1.0.2/MSDK/plf/GD32VW55x_standard_peripheral/Source\gd32vw55x_rcu.c ****     apb1_freq = apb2_freq;
1120:C:/Users/stapi/OneDrive/Desktop/GD32VW553/GD32VW55X_Wifi_BLE_SDK/GD32VW55x_RELEASE_V1.0.2/MSDK/plf/GD32VW55x_standard_peripheral/Source\gd32vw55x_rcu.c **** #endif
1121:C:/Users/stapi/OneDrive/Desktop/GD32VW553/GD32VW55X_Wifi_BLE_SDK/GD32VW55x_RELEASE_V1.0.2/MSDK/plf/GD32VW55x_standard_peripheral/Source\gd32vw55x_rcu.c **** 
1122:C:/Users/stapi/OneDrive/Desktop/GD32VW553/GD32VW55X_Wifi_BLE_SDK/GD32VW55x_RELEASE_V1.0.2/MSDK/plf/GD32VW55x_standard_peripheral/Source\gd32vw55x_rcu.c ****     /* return the clocks frequency */
1123:C:/Users/stapi/OneDrive/Desktop/GD32VW553/GD32VW55X_Wifi_BLE_SDK/GD32VW55x_RELEASE_V1.0.2/MSDK/plf/GD32VW55x_standard_peripheral/Source\gd32vw55x_rcu.c ****     switch(clock){
 1540              		.loc 1 1123 5
 1541 00b2 1547     		li	a4,5
 1542 00b4 6368870A 		bgtu	s0,a4,.L108
 1543 00b8 37070000 		lui	a4,%hi(.L100)
 1544 00bc 13070700 		addi	a4,a4,%lo(.L100)
 1545 00c0 3344E420 		sh2add	s0,s0,a4
 1546              	.LVL136:
 1547 00c4 1840     		lw	a4,0(s0)
 1548 00c6 0287     		jr	a4
 1549              		.section	.rodata.rcu_clock_freq_get,"a",@progbits
 1550              		.align	2
 1551              		.align	2
 1552              	.L100:
 1553 0000 00000000 		.word	.L105
 1554 0004 00000000 		.word	.L104
 1555 0008 00000000 		.word	.L96
 1556 000c 00000000 		.word	.L102
 1557 0010 00000000 		.word	.L101
 1558 0014 00000000 		.word	.L99
 1559              		.section	.text.rcu_clock_freq_get
 1560              	.LVL137:
 1561              	.L106:
1078:C:/Users/stapi/OneDrive/Desktop/GD32VW553/GD32VW55X_Wifi_BLE_SDK/GD32VW55x_RELEASE_V1.0.2/MSDK/plf/GD32VW55x_standard_peripheral/Source\gd32vw55x_rcu.c ****     /* IRC16M is selected as CK_SYS */
 1562              		.loc 1 1078 5 is_stmt 0
 1563 00c8 B7676202 		li	a5,40001536
 1564              	.LVL138:
 1565 00cc 938707A0 		addi	a5,a5,-1536
 1566 00d0 65B7     		j	.L97
 1567              	.LVL139:
 1568              	.L107:
1081:C:/Users/stapi/OneDrive/Desktop/GD32VW553/GD32VW55X_Wifi_BLE_SDK/GD32VW55x_RELEASE_V1.0.2/MSDK/plf/GD32VW55x_standard_peripheral/Source\gd32vw55x_rcu.c ****         break;
 1569              		.loc 1 1081 20
 1570 00d2 B727F400 		li	a5,15998976
 1571              	.LVL140:
 1572 00d6 93870740 		addi	a5,a5,1024
 1573 00da 79BF     		j	.L97
 1574              	.LVL141:
 1575              	.L105:
1115:C:/Users/stapi/OneDrive/Desktop/GD32VW553/GD32VW55X_Wifi_BLE_SDK/GD32VW55x_RELEASE_V1.0.2/MSDK/plf/GD32VW55x_standard_peripheral/Source\gd32vw55x_rcu.c ****     apb2_freq = ahb_freq >> clk_exp;
 1576              		.loc 1 1115 23
 1577 00dc 3E85     		mv	a0,a5
 1578              	.LVL142:
 1579              	.L96:
1124:C:/Users/stapi/OneDrive/Desktop/GD32VW553/GD32VW55X_Wifi_BLE_SDK/GD32VW55x_RELEASE_V1.0.2/MSDK/plf/GD32VW55x_standard_peripheral/Source\gd32vw55x_rcu.c ****     case CK_SYS:
1125:C:/Users/stapi/OneDrive/Desktop/GD32VW553/GD32VW55X_Wifi_BLE_SDK/GD32VW55x_RELEASE_V1.0.2/MSDK/plf/GD32VW55x_standard_peripheral/Source\gd32vw55x_rcu.c ****         ck_freq = cksys_freq;
1126:C:/Users/stapi/OneDrive/Desktop/GD32VW553/GD32VW55X_Wifi_BLE_SDK/GD32VW55x_RELEASE_V1.0.2/MSDK/plf/GD32VW55x_standard_peripheral/Source\gd32vw55x_rcu.c ****         break;
1127:C:/Users/stapi/OneDrive/Desktop/GD32VW553/GD32VW55X_Wifi_BLE_SDK/GD32VW55x_RELEASE_V1.0.2/MSDK/plf/GD32VW55x_standard_peripheral/Source\gd32vw55x_rcu.c ****     case CK_AHB:
1128:C:/Users/stapi/OneDrive/Desktop/GD32VW553/GD32VW55X_Wifi_BLE_SDK/GD32VW55x_RELEASE_V1.0.2/MSDK/plf/GD32VW55x_standard_peripheral/Source\gd32vw55x_rcu.c ****         ck_freq = ahb_freq;
1129:C:/Users/stapi/OneDrive/Desktop/GD32VW553/GD32VW55X_Wifi_BLE_SDK/GD32VW55x_RELEASE_V1.0.2/MSDK/plf/GD32VW55x_standard_peripheral/Source\gd32vw55x_rcu.c ****         break;
1130:C:/Users/stapi/OneDrive/Desktop/GD32VW553/GD32VW55X_Wifi_BLE_SDK/GD32VW55x_RELEASE_V1.0.2/MSDK/plf/GD32VW55x_standard_peripheral/Source\gd32vw55x_rcu.c ****     case CK_APB1:
1131:C:/Users/stapi/OneDrive/Desktop/GD32VW553/GD32VW55X_Wifi_BLE_SDK/GD32VW55x_RELEASE_V1.0.2/MSDK/plf/GD32VW55x_standard_peripheral/Source\gd32vw55x_rcu.c ****         ck_freq = apb1_freq;
1132:C:/Users/stapi/OneDrive/Desktop/GD32VW553/GD32VW55X_Wifi_BLE_SDK/GD32VW55x_RELEASE_V1.0.2/MSDK/plf/GD32VW55x_standard_peripheral/Source\gd32vw55x_rcu.c ****         break;
1133:C:/Users/stapi/OneDrive/Desktop/GD32VW553/GD32VW55X_Wifi_BLE_SDK/GD32VW55x_RELEASE_V1.0.2/MSDK/plf/GD32VW55x_standard_peripheral/Source\gd32vw55x_rcu.c ****     case CK_APB2:
1134:C:/Users/stapi/OneDrive/Desktop/GD32VW553/GD32VW55X_Wifi_BLE_SDK/GD32VW55x_RELEASE_V1.0.2/MSDK/plf/GD32VW55x_standard_peripheral/Source\gd32vw55x_rcu.c ****         ck_freq = apb2_freq;
1135:C:/Users/stapi/OneDrive/Desktop/GD32VW553/GD32VW55X_Wifi_BLE_SDK/GD32VW55x_RELEASE_V1.0.2/MSDK/plf/GD32VW55x_standard_peripheral/Source\gd32vw55x_rcu.c ****         break;
1136:C:/Users/stapi/OneDrive/Desktop/GD32VW553/GD32VW55X_Wifi_BLE_SDK/GD32VW55x_RELEASE_V1.0.2/MSDK/plf/GD32VW55x_standard_peripheral/Source\gd32vw55x_rcu.c ****     case CK_USART0:
1137:C:/Users/stapi/OneDrive/Desktop/GD32VW553/GD32VW55X_Wifi_BLE_SDK/GD32VW55x_RELEASE_V1.0.2/MSDK/plf/GD32VW55x_standard_peripheral/Source\gd32vw55x_rcu.c ****         /* calculate USART0 clock frequency */
1138:C:/Users/stapi/OneDrive/Desktop/GD32VW553/GD32VW55X_Wifi_BLE_SDK/GD32VW55x_RELEASE_V1.0.2/MSDK/plf/GD32VW55x_standard_peripheral/Source\gd32vw55x_rcu.c ****         if(RCU_USART0SRC_CKAPB1 == (RCU_CFG1 & RCU_CFG1_USART0SEL)){
1139:C:/Users/stapi/OneDrive/Desktop/GD32VW553/GD32VW55X_Wifi_BLE_SDK/GD32VW55x_RELEASE_V1.0.2/MSDK/plf/GD32VW55x_standard_peripheral/Source\gd32vw55x_rcu.c ****             usart0_freq = apb1_freq;
1140:C:/Users/stapi/OneDrive/Desktop/GD32VW553/GD32VW55X_Wifi_BLE_SDK/GD32VW55x_RELEASE_V1.0.2/MSDK/plf/GD32VW55x_standard_peripheral/Source\gd32vw55x_rcu.c ****         }else if(RCU_USART0SRC_CKSYS == (RCU_CFG1 & RCU_CFG1_USART0SEL)){
1141:C:/Users/stapi/OneDrive/Desktop/GD32VW553/GD32VW55X_Wifi_BLE_SDK/GD32VW55x_RELEASE_V1.0.2/MSDK/plf/GD32VW55x_standard_peripheral/Source\gd32vw55x_rcu.c ****             usart0_freq = cksys_freq;
1142:C:/Users/stapi/OneDrive/Desktop/GD32VW553/GD32VW55X_Wifi_BLE_SDK/GD32VW55x_RELEASE_V1.0.2/MSDK/plf/GD32VW55x_standard_peripheral/Source\gd32vw55x_rcu.c ****         }else if(RCU_USART0SRC_LXTAL == (RCU_CFG1 & RCU_CFG1_USART0SEL)){
1143:C:/Users/stapi/OneDrive/Desktop/GD32VW553/GD32VW55X_Wifi_BLE_SDK/GD32VW55x_RELEASE_V1.0.2/MSDK/plf/GD32VW55x_standard_peripheral/Source\gd32vw55x_rcu.c ****             usart0_freq = LXTAL_VALUE;
1144:C:/Users/stapi/OneDrive/Desktop/GD32VW553/GD32VW55X_Wifi_BLE_SDK/GD32VW55x_RELEASE_V1.0.2/MSDK/plf/GD32VW55x_standard_peripheral/Source\gd32vw55x_rcu.c ****         }else if(RCU_USART0SRC_IRC16M == (RCU_CFG1 & RCU_CFG1_USART0SEL)){
1145:C:/Users/stapi/OneDrive/Desktop/GD32VW553/GD32VW55X_Wifi_BLE_SDK/GD32VW55x_RELEASE_V1.0.2/MSDK/plf/GD32VW55x_standard_peripheral/Source\gd32vw55x_rcu.c ****             usart0_freq = IRC16M_VALUE;
1146:C:/Users/stapi/OneDrive/Desktop/GD32VW553/GD32VW55X_Wifi_BLE_SDK/GD32VW55x_RELEASE_V1.0.2/MSDK/plf/GD32VW55x_standard_peripheral/Source\gd32vw55x_rcu.c ****         }else{
1147:C:/Users/stapi/OneDrive/Desktop/GD32VW553/GD32VW55X_Wifi_BLE_SDK/GD32VW55x_RELEASE_V1.0.2/MSDK/plf/GD32VW55x_standard_peripheral/Source\gd32vw55x_rcu.c ****         }
1148:C:/Users/stapi/OneDrive/Desktop/GD32VW553/GD32VW55X_Wifi_BLE_SDK/GD32VW55x_RELEASE_V1.0.2/MSDK/plf/GD32VW55x_standard_peripheral/Source\gd32vw55x_rcu.c ****         ck_freq = usart0_freq;
1149:C:/Users/stapi/OneDrive/Desktop/GD32VW553/GD32VW55X_Wifi_BLE_SDK/GD32VW55x_RELEASE_V1.0.2/MSDK/plf/GD32VW55x_standard_peripheral/Source\gd32vw55x_rcu.c ****         break;
1150:C:/Users/stapi/OneDrive/Desktop/GD32VW553/GD32VW55X_Wifi_BLE_SDK/GD32VW55x_RELEASE_V1.0.2/MSDK/plf/GD32VW55x_standard_peripheral/Source\gd32vw55x_rcu.c ****     case CK_I2C0:
1151:C:/Users/stapi/OneDrive/Desktop/GD32VW553/GD32VW55X_Wifi_BLE_SDK/GD32VW55x_RELEASE_V1.0.2/MSDK/plf/GD32VW55x_standard_peripheral/Source\gd32vw55x_rcu.c ****         /* calculate I2C0 clock frequency */
1152:C:/Users/stapi/OneDrive/Desktop/GD32VW553/GD32VW55X_Wifi_BLE_SDK/GD32VW55x_RELEASE_V1.0.2/MSDK/plf/GD32VW55x_standard_peripheral/Source\gd32vw55x_rcu.c ****         if(RCU_I2C0SRC_CKAPB1 == (RCU_CFG1 & RCU_CFG1_I2C0SEL)){
1153:C:/Users/stapi/OneDrive/Desktop/GD32VW553/GD32VW55X_Wifi_BLE_SDK/GD32VW55x_RELEASE_V1.0.2/MSDK/plf/GD32VW55x_standard_peripheral/Source\gd32vw55x_rcu.c ****             i2c0_freq = apb1_freq;
1154:C:/Users/stapi/OneDrive/Desktop/GD32VW553/GD32VW55X_Wifi_BLE_SDK/GD32VW55x_RELEASE_V1.0.2/MSDK/plf/GD32VW55x_standard_peripheral/Source\gd32vw55x_rcu.c ****         }else if(RCU_I2C0SRC_CKSYS == (RCU_CFG1 & RCU_CFG1_I2C0SEL)){
1155:C:/Users/stapi/OneDrive/Desktop/GD32VW553/GD32VW55X_Wifi_BLE_SDK/GD32VW55x_RELEASE_V1.0.2/MSDK/plf/GD32VW55x_standard_peripheral/Source\gd32vw55x_rcu.c ****             i2c0_freq = cksys_freq;
1156:C:/Users/stapi/OneDrive/Desktop/GD32VW553/GD32VW55X_Wifi_BLE_SDK/GD32VW55x_RELEASE_V1.0.2/MSDK/plf/GD32VW55x_standard_peripheral/Source\gd32vw55x_rcu.c ****         }else if(RCU_I2C0SRC_IRC16M == (RCU_CFG1 & RCU_CFG1_I2C0SEL)){
1157:C:/Users/stapi/OneDrive/Desktop/GD32VW553/GD32VW55X_Wifi_BLE_SDK/GD32VW55x_RELEASE_V1.0.2/MSDK/plf/GD32VW55x_standard_peripheral/Source\gd32vw55x_rcu.c ****             i2c0_freq = IRC16M_VALUE;
1158:C:/Users/stapi/OneDrive/Desktop/GD32VW553/GD32VW55X_Wifi_BLE_SDK/GD32VW55x_RELEASE_V1.0.2/MSDK/plf/GD32VW55x_standard_peripheral/Source\gd32vw55x_rcu.c ****         }else{
1159:C:/Users/stapi/OneDrive/Desktop/GD32VW553/GD32VW55X_Wifi_BLE_SDK/GD32VW55x_RELEASE_V1.0.2/MSDK/plf/GD32VW55x_standard_peripheral/Source\gd32vw55x_rcu.c ****         }
1160:C:/Users/stapi/OneDrive/Desktop/GD32VW553/GD32VW55X_Wifi_BLE_SDK/GD32VW55x_RELEASE_V1.0.2/MSDK/plf/GD32VW55x_standard_peripheral/Source\gd32vw55x_rcu.c ****         ck_freq = i2c0_freq;
1161:C:/Users/stapi/OneDrive/Desktop/GD32VW553/GD32VW55X_Wifi_BLE_SDK/GD32VW55x_RELEASE_V1.0.2/MSDK/plf/GD32VW55x_standard_peripheral/Source\gd32vw55x_rcu.c ****         break;
1162:C:/Users/stapi/OneDrive/Desktop/GD32VW553/GD32VW55X_Wifi_BLE_SDK/GD32VW55x_RELEASE_V1.0.2/MSDK/plf/GD32VW55x_standard_peripheral/Source\gd32vw55x_rcu.c ****     default:
1163:C:/Users/stapi/OneDrive/Desktop/GD32VW553/GD32VW55X_Wifi_BLE_SDK/GD32VW55x_RELEASE_V1.0.2/MSDK/plf/GD32VW55x_standard_peripheral/Source\gd32vw55x_rcu.c ****         break;
1164:C:/Users/stapi/OneDrive/Desktop/GD32VW553/GD32VW55X_Wifi_BLE_SDK/GD32VW55x_RELEASE_V1.0.2/MSDK/plf/GD32VW55x_standard_peripheral/Source\gd32vw55x_rcu.c ****     }
1165:C:/Users/stapi/OneDrive/Desktop/GD32VW553/GD32VW55X_Wifi_BLE_SDK/GD32VW55x_RELEASE_V1.0.2/MSDK/plf/GD32VW55x_standard_peripheral/Source\gd32vw55x_rcu.c ****     return ck_freq;
1166:C:/Users/stapi/OneDrive/Desktop/GD32VW553/GD32VW55X_Wifi_BLE_SDK/GD32VW55x_RELEASE_V1.0.2/MSDK/plf/GD32VW55x_standard_peripheral/Source\gd32vw55x_rcu.c **** }
 1580              		.loc 1 1166 1
 1581 00de 4561     		addi	sp,sp,48
 1582              		.cfi_remember_state
 1583              		.cfi_def_cfa_offset 0
 1584 00e0 17030000 		tail	__riscv_restore_2
 1584      67000300 
 1585              		.cfi_restore 9
 1586              		.cfi_restore 8
 1587              		.cfi_restore 1
 1588              		.cfi_def_cfa_offset -16
 1589              	.LVL143:
 1590              	.L104:
 1591              		.cfi_restore_state
1128:C:/Users/stapi/OneDrive/Desktop/GD32VW553/GD32VW55X_Wifi_BLE_SDK/GD32VW55x_RELEASE_V1.0.2/MSDK/plf/GD32VW55x_standard_peripheral/Source\gd32vw55x_rcu.c ****         break;
 1592              		.loc 1 1128 9 is_stmt 1
1129:C:/Users/stapi/OneDrive/Desktop/GD32VW553/GD32VW55X_Wifi_BLE_SDK/GD32VW55x_RELEASE_V1.0.2/MSDK/plf/GD32VW55x_standard_peripheral/Source\gd32vw55x_rcu.c ****     case CK_APB1:
 1593              		.loc 1 1129 9
1128:C:/Users/stapi/OneDrive/Desktop/GD32VW553/GD32VW55X_Wifi_BLE_SDK/GD32VW55x_RELEASE_V1.0.2/MSDK/plf/GD32VW55x_standard_peripheral/Source\gd32vw55x_rcu.c ****         break;
 1594              		.loc 1 1128 17 is_stmt 0
 1595 00e8 3685     		mv	a0,a3
 1596              	.LVL144:
1129:C:/Users/stapi/OneDrive/Desktop/GD32VW553/GD32VW55X_Wifi_BLE_SDK/GD32VW55x_RELEASE_V1.0.2/MSDK/plf/GD32VW55x_standard_peripheral/Source\gd32vw55x_rcu.c ****     case CK_APB1:
 1597              		.loc 1 1129 9
 1598 00ea D5BF     		j	.L96
 1599              	.LVL145:
 1600              	.L102:
1116:C:/Users/stapi/OneDrive/Desktop/GD32VW553/GD32VW55X_Wifi_BLE_SDK/GD32VW55x_RELEASE_V1.0.2/MSDK/plf/GD32VW55x_standard_peripheral/Source\gd32vw55x_rcu.c **** 
 1601              		.loc 1 1116 15
 1602 00ec 33D5C600 		srl	a0,a3,a2
 1603              	.LVL146:
1134:C:/Users/stapi/OneDrive/Desktop/GD32VW553/GD32VW55X_Wifi_BLE_SDK/GD32VW55x_RELEASE_V1.0.2/MSDK/plf/GD32VW55x_standard_peripheral/Source\gd32vw55x_rcu.c ****         break;
 1604              		.loc 1 1134 9 is_stmt 1
1135:C:/Users/stapi/OneDrive/Desktop/GD32VW553/GD32VW55X_Wifi_BLE_SDK/GD32VW55x_RELEASE_V1.0.2/MSDK/plf/GD32VW55x_standard_peripheral/Source\gd32vw55x_rcu.c ****     case CK_USART0:
 1605              		.loc 1 1135 9
 1606 00f0 FDB7     		j	.L96
 1607              	.LVL147:
 1608              	.L101:
1138:C:/Users/stapi/OneDrive/Desktop/GD32VW553/GD32VW55X_Wifi_BLE_SDK/GD32VW55x_RELEASE_V1.0.2/MSDK/plf/GD32VW55x_standard_peripheral/Source\gd32vw55x_rcu.c ****             usart0_freq = apb1_freq;
 1609              		.loc 1 1138 9
1138:C:/Users/stapi/OneDrive/Desktop/GD32VW553/GD32VW55X_Wifi_BLE_SDK/GD32VW55x_RELEASE_V1.0.2/MSDK/plf/GD32VW55x_standard_peripheral/Source\gd32vw55x_rcu.c ****             usart0_freq = apb1_freq;
 1610              		.loc 1 1138 37 is_stmt 0
 1611 00f2 B7460240 		li	a3,1073889280
 1612              	.LVL148:
 1613 00f6 03A6C688 		lw	a2,-1908(a3)
 1614              	.LVL149:
1138:C:/Users/stapi/OneDrive/Desktop/GD32VW553/GD32VW55X_Wifi_BLE_SDK/GD32VW55x_RELEASE_V1.0.2/MSDK/plf/GD32VW55x_standard_peripheral/Source\gd32vw55x_rcu.c ****             usart0_freq = apb1_freq;
 1615              		.loc 1 1138 46
 1616 00fa 370700C0 		li	a4,-1073741824
 1617 00fe 798E     		and	a2,a2,a4
1138:C:/Users/stapi/OneDrive/Desktop/GD32VW553/GD32VW55X_Wifi_BLE_SDK/GD32VW55x_RELEASE_V1.0.2/MSDK/plf/GD32VW55x_standard_peripheral/Source\gd32vw55x_rcu.c ****             usart0_freq = apb1_freq;
 1618              		.loc 1 1138 11
 1619 0100 79DE     		beq	a2,zero,.L96
1140:C:/Users/stapi/OneDrive/Desktop/GD32VW553/GD32VW55X_Wifi_BLE_SDK/GD32VW55x_RELEASE_V1.0.2/MSDK/plf/GD32VW55x_standard_peripheral/Source\gd32vw55x_rcu.c ****             usart0_freq = cksys_freq;
 1620              		.loc 1 1140 15 is_stmt 1
1140:C:/Users/stapi/OneDrive/Desktop/GD32VW553/GD32VW55X_Wifi_BLE_SDK/GD32VW55x_RELEASE_V1.0.2/MSDK/plf/GD32VW55x_standard_peripheral/Source\gd32vw55x_rcu.c ****             usart0_freq = cksys_freq;
 1621              		.loc 1 1140 42 is_stmt 0
 1622 0102 03A6C688 		lw	a2,-1908(a3)
1140:C:/Users/stapi/OneDrive/Desktop/GD32VW553/GD32VW55X_Wifi_BLE_SDK/GD32VW55x_RELEASE_V1.0.2/MSDK/plf/GD32VW55x_standard_peripheral/Source\gd32vw55x_rcu.c ****             usart0_freq = cksys_freq;
 1623              		.loc 1 1140 17
 1624 0106 B7050040 		li	a1,1073741824
1141:C:/Users/stapi/OneDrive/Desktop/GD32VW553/GD32VW55X_Wifi_BLE_SDK/GD32VW55x_RELEASE_V1.0.2/MSDK/plf/GD32VW55x_standard_peripheral/Source\gd32vw55x_rcu.c ****         }else if(RCU_USART0SRC_LXTAL == (RCU_CFG1 & RCU_CFG1_USART0SEL)){
 1625              		.loc 1 1141 25
 1626 010a 3E85     		mv	a0,a5
 1627              	.LVL150:
1140:C:/Users/stapi/OneDrive/Desktop/GD32VW553/GD32VW55X_Wifi_BLE_SDK/GD32VW55x_RELEASE_V1.0.2/MSDK/plf/GD32VW55x_standard_peripheral/Source\gd32vw55x_rcu.c ****             usart0_freq = cksys_freq;
 1628              		.loc 1 1140 51
 1629 010c 798E     		and	a2,a2,a4
1140:C:/Users/stapi/OneDrive/Desktop/GD32VW553/GD32VW55X_Wifi_BLE_SDK/GD32VW55x_RELEASE_V1.0.2/MSDK/plf/GD32VW55x_standard_peripheral/Source\gd32vw55x_rcu.c ****             usart0_freq = cksys_freq;
 1630              		.loc 1 1140 17
 1631 010e E308B6FC 		beq	a2,a1,.L96
 1632              	.LVL151:
1142:C:/Users/stapi/OneDrive/Desktop/GD32VW553/GD32VW55X_Wifi_BLE_SDK/GD32VW55x_RELEASE_V1.0.2/MSDK/plf/GD32VW55x_standard_peripheral/Source\gd32vw55x_rcu.c ****             usart0_freq = LXTAL_VALUE;
 1633              		.loc 1 1142 15 is_stmt 1
1142:C:/Users/stapi/OneDrive/Desktop/GD32VW553/GD32VW55X_Wifi_BLE_SDK/GD32VW55x_RELEASE_V1.0.2/MSDK/plf/GD32VW55x_standard_peripheral/Source\gd32vw55x_rcu.c ****             usart0_freq = LXTAL_VALUE;
 1634              		.loc 1 1142 42 is_stmt 0
 1635 0112 83A7C688 		lw	a5,-1908(a3)
1142:C:/Users/stapi/OneDrive/Desktop/GD32VW553/GD32VW55X_Wifi_BLE_SDK/GD32VW55x_RELEASE_V1.0.2/MSDK/plf/GD32VW55x_standard_peripheral/Source\gd32vw55x_rcu.c ****             usart0_freq = LXTAL_VALUE;
 1636              		.loc 1 1142 17
 1637 0116 37060080 		li	a2,-2147483648
1143:C:/Users/stapi/OneDrive/Desktop/GD32VW553/GD32VW55X_Wifi_BLE_SDK/GD32VW55x_RELEASE_V1.0.2/MSDK/plf/GD32VW55x_standard_peripheral/Source\gd32vw55x_rcu.c ****         }else if(RCU_USART0SRC_IRC16M == (RCU_CFG1 & RCU_CFG1_USART0SEL)){
 1638              		.loc 1 1143 25
 1639 011a 2165     		li	a0,32768
 1640              	.LVL152:
1142:C:/Users/stapi/OneDrive/Desktop/GD32VW553/GD32VW55X_Wifi_BLE_SDK/GD32VW55x_RELEASE_V1.0.2/MSDK/plf/GD32VW55x_standard_peripheral/Source\gd32vw55x_rcu.c ****             usart0_freq = LXTAL_VALUE;
 1641              		.loc 1 1142 51
 1642 011c F98F     		and	a5,a5,a4
1142:C:/Users/stapi/OneDrive/Desktop/GD32VW553/GD32VW55X_Wifi_BLE_SDK/GD32VW55x_RELEASE_V1.0.2/MSDK/plf/GD32VW55x_standard_peripheral/Source\gd32vw55x_rcu.c ****             usart0_freq = LXTAL_VALUE;
 1643              		.loc 1 1142 17
 1644 011e E380C7FC 		beq	a5,a2,.L96
1144:C:/Users/stapi/OneDrive/Desktop/GD32VW553/GD32VW55X_Wifi_BLE_SDK/GD32VW55x_RELEASE_V1.0.2/MSDK/plf/GD32VW55x_standard_peripheral/Source\gd32vw55x_rcu.c ****             usart0_freq = IRC16M_VALUE;
 1645              		.loc 1 1144 15 is_stmt 1
1144:C:/Users/stapi/OneDrive/Desktop/GD32VW553/GD32VW55X_Wifi_BLE_SDK/GD32VW55x_RELEASE_V1.0.2/MSDK/plf/GD32VW55x_standard_peripheral/Source\gd32vw55x_rcu.c ****             usart0_freq = IRC16M_VALUE;
 1646              		.loc 1 1144 43 is_stmt 0
 1647 0122 83A7C688 		lw	a5,-1908(a3)
1144:C:/Users/stapi/OneDrive/Desktop/GD32VW553/GD32VW55X_Wifi_BLE_SDK/GD32VW55x_RELEASE_V1.0.2/MSDK/plf/GD32VW55x_standard_peripheral/Source\gd32vw55x_rcu.c ****             usart0_freq = IRC16M_VALUE;
 1648              		.loc 1 1144 52
 1649 0126 F98F     		and	a5,a5,a4
 1650              	.L123:
1064:C:/Users/stapi/OneDrive/Desktop/GD32VW553/GD32VW55X_Wifi_BLE_SDK/GD32VW55x_RELEASE_V1.0.2/MSDK/plf/GD32VW55x_standard_peripheral/Source\gd32vw55x_rcu.c ****     uint32_t idx, clk_exp;
 1651              		.loc 1 1064 14
 1652 0128 0145     		li	a0,0
1156:C:/Users/stapi/OneDrive/Desktop/GD32VW553/GD32VW55X_Wifi_BLE_SDK/GD32VW55x_RELEASE_V1.0.2/MSDK/plf/GD32VW55x_standard_peripheral/Source\gd32vw55x_rcu.c ****             i2c0_freq = IRC16M_VALUE;
 1653              		.loc 1 1156 17
 1654 012a E39AE7FA 		bne	a5,a4,.L96
1145:C:/Users/stapi/OneDrive/Desktop/GD32VW553/GD32VW55X_Wifi_BLE_SDK/GD32VW55x_RELEASE_V1.0.2/MSDK/plf/GD32VW55x_standard_peripheral/Source\gd32vw55x_rcu.c ****         }else{
 1655              		.loc 1 1145 25
 1656 012e 3725F400 		li	a0,15998976
 1657 0132 13050540 		addi	a0,a0,1024
 1658 0136 65B7     		j	.L96
 1659              	.LVL153:
 1660              	.L99:
1152:C:/Users/stapi/OneDrive/Desktop/GD32VW553/GD32VW55X_Wifi_BLE_SDK/GD32VW55x_RELEASE_V1.0.2/MSDK/plf/GD32VW55x_standard_peripheral/Source\gd32vw55x_rcu.c ****             i2c0_freq = apb1_freq;
 1661              		.loc 1 1152 9 is_stmt 1
1152:C:/Users/stapi/OneDrive/Desktop/GD32VW553/GD32VW55X_Wifi_BLE_SDK/GD32VW55x_RELEASE_V1.0.2/MSDK/plf/GD32VW55x_standard_peripheral/Source\gd32vw55x_rcu.c ****             i2c0_freq = apb1_freq;
 1662              		.loc 1 1152 35 is_stmt 0
 1663 0138 B7460240 		li	a3,1073889280
 1664              	.LVL154:
 1665 013c 03A6C688 		lw	a2,-1908(a3)
 1666              	.LVL155:
1152:C:/Users/stapi/OneDrive/Desktop/GD32VW553/GD32VW55X_Wifi_BLE_SDK/GD32VW55x_RELEASE_V1.0.2/MSDK/plf/GD32VW55x_standard_peripheral/Source\gd32vw55x_rcu.c ****             i2c0_freq = apb1_freq;
 1667              		.loc 1 1152 44
 1668 0140 3707000C 		li	a4,201326592
 1669 0144 798E     		and	a2,a2,a4
1152:C:/Users/stapi/OneDrive/Desktop/GD32VW553/GD32VW55X_Wifi_BLE_SDK/GD32VW55x_RELEASE_V1.0.2/MSDK/plf/GD32VW55x_standard_peripheral/Source\gd32vw55x_rcu.c ****             i2c0_freq = apb1_freq;
 1670              		.loc 1 1152 11
 1671 0146 41DE     		beq	a2,zero,.L96
1154:C:/Users/stapi/OneDrive/Desktop/GD32VW553/GD32VW55X_Wifi_BLE_SDK/GD32VW55x_RELEASE_V1.0.2/MSDK/plf/GD32VW55x_standard_peripheral/Source\gd32vw55x_rcu.c ****             i2c0_freq = cksys_freq;
 1672              		.loc 1 1154 15 is_stmt 1
1154:C:/Users/stapi/OneDrive/Desktop/GD32VW553/GD32VW55X_Wifi_BLE_SDK/GD32VW55x_RELEASE_V1.0.2/MSDK/plf/GD32VW55x_standard_peripheral/Source\gd32vw55x_rcu.c ****             i2c0_freq = cksys_freq;
 1673              		.loc 1 1154 40 is_stmt 0
 1674 0148 03A6C688 		lw	a2,-1908(a3)
1154:C:/Users/stapi/OneDrive/Desktop/GD32VW553/GD32VW55X_Wifi_BLE_SDK/GD32VW55x_RELEASE_V1.0.2/MSDK/plf/GD32VW55x_standard_peripheral/Source\gd32vw55x_rcu.c ****             i2c0_freq = cksys_freq;
 1675              		.loc 1 1154 17
 1676 014c B7050004 		li	a1,67108864
1155:C:/Users/stapi/OneDrive/Desktop/GD32VW553/GD32VW55X_Wifi_BLE_SDK/GD32VW55x_RELEASE_V1.0.2/MSDK/plf/GD32VW55x_standard_peripheral/Source\gd32vw55x_rcu.c ****         }else if(RCU_I2C0SRC_IRC16M == (RCU_CFG1 & RCU_CFG1_I2C0SEL)){
 1677              		.loc 1 1155 23
 1678 0150 3E85     		mv	a0,a5
 1679              	.LVL156:
1154:C:/Users/stapi/OneDrive/Desktop/GD32VW553/GD32VW55X_Wifi_BLE_SDK/GD32VW55x_RELEASE_V1.0.2/MSDK/plf/GD32VW55x_standard_peripheral/Source\gd32vw55x_rcu.c ****             i2c0_freq = cksys_freq;
 1680              		.loc 1 1154 49
 1681 0152 798E     		and	a2,a2,a4
1154:C:/Users/stapi/OneDrive/Desktop/GD32VW553/GD32VW55X_Wifi_BLE_SDK/GD32VW55x_RELEASE_V1.0.2/MSDK/plf/GD32VW55x_standard_peripheral/Source\gd32vw55x_rcu.c ****             i2c0_freq = cksys_freq;
 1682              		.loc 1 1154 17
 1683 0154 E305B6F8 		beq	a2,a1,.L96
 1684              	.LVL157:
1156:C:/Users/stapi/OneDrive/Desktop/GD32VW553/GD32VW55X_Wifi_BLE_SDK/GD32VW55x_RELEASE_V1.0.2/MSDK/plf/GD32VW55x_standard_peripheral/Source\gd32vw55x_rcu.c ****             i2c0_freq = IRC16M_VALUE;
 1685              		.loc 1 1156 15 is_stmt 1
1156:C:/Users/stapi/OneDrive/Desktop/GD32VW553/GD32VW55X_Wifi_BLE_SDK/GD32VW55x_RELEASE_V1.0.2/MSDK/plf/GD32VW55x_standard_peripheral/Source\gd32vw55x_rcu.c ****             i2c0_freq = IRC16M_VALUE;
 1686              		.loc 1 1156 41 is_stmt 0
 1687 0158 83A7C688 		lw	a5,-1908(a3)
1156:C:/Users/stapi/OneDrive/Desktop/GD32VW553/GD32VW55X_Wifi_BLE_SDK/GD32VW55x_RELEASE_V1.0.2/MSDK/plf/GD32VW55x_standard_peripheral/Source\gd32vw55x_rcu.c ****             i2c0_freq = IRC16M_VALUE;
 1688              		.loc 1 1156 50
 1689 015c F98F     		and	a5,a5,a4
1156:C:/Users/stapi/OneDrive/Desktop/GD32VW553/GD32VW55X_Wifi_BLE_SDK/GD32VW55x_RELEASE_V1.0.2/MSDK/plf/GD32VW55x_standard_peripheral/Source\gd32vw55x_rcu.c ****             i2c0_freq = IRC16M_VALUE;
 1690              		.loc 1 1156 17
 1691 015e 37070008 		li	a4,134217728
 1692 0162 D9B7     		j	.L123
 1693              	.LVL158:
 1694              	.L108:
1062:C:/Users/stapi/OneDrive/Desktop/GD32VW553/GD32VW55X_Wifi_BLE_SDK/GD32VW55x_RELEASE_V1.0.2/MSDK/plf/GD32VW55x_standard_peripheral/Source\gd32vw55x_rcu.c ****     uint32_t cksys_freq, ahb_freq, apb1_freq, apb2_freq;
 1695              		.loc 1 1062 19
 1696 0164 0145     		li	a0,0
 1697              	.LVL159:
 1698 0166 A5BF     		j	.L96
 1699              		.cfi_endproc
 1700              	.LFE413:
 1702              		.section	.rodata
 1703              		.align	2
 1704              		.set	.LANCHOR0,. + 0
 1705              	.LC1:
 1706 0000 00       		.string	""
 1707 0001 00       		.string	""
 1708 0002 00       		.string	""
 1709 0003 00       		.string	""
 1710 0004 00       		.string	""
 1711 0005 00       		.string	""
 1712 0006 00       		.string	""
 1713 0007 00       		.string	""
 1714 0008 01020304 		.ascii	"\001\002\003\004\006\007\b\t"
 1714      06070809 
 1715              	.LC0:
 1716 0010 00B0710B 		.word	192000000
 1717 0014 001C4E0E 		.word	240000000
 1718 0018 00D01213 		.word	320000000
 1719 001c 00389C1C 		.word	480000000
 1720              		.text
 1721              	.Letext0:
 1722              		.file 2 "c:\\users\\stapi\\onedrive\\desktop\\gd32vw553\\embeddedbuilder_v1.4.7.26843\\tools\\nucl
 1723              		.file 3 "c:\\users\\stapi\\onedrive\\desktop\\gd32vw553\\embeddedbuilder_v1.4.7.26843\\tools\\nucl
 1724              		.file 4 "..\\..\\..\\..\\plf\\riscv\\gd32vw55x/gd32vw55x.h"
 1725              		.file 5 "..\\..\\..\\..\\plf\\GD32VW55x_standard_peripheral\\Include/gd32vw55x_rcu.h"
 1726              		.file 6 "<built-in>"
DEFINED SYMBOLS
                            *ABS*:0000000000000000 gd32vw55x_rcu.c
C:\Users\stapi\AppData\Local\Temp\cc07N9HF.s:13     .text.rcu_irc16m_dfs_to_rf_enable:0000000000000000 rcu_irc16m_dfs_to_rf_enable
C:\Users\stapi\AppData\Local\Temp\cc07N9HF.s:17     .text.rcu_irc16m_dfs_to_rf_enable:0000000000000000 .L0 
C:\Users\stapi\AppData\Local\Temp\cc07N9HF.s:18     .text.rcu_irc16m_dfs_to_rf_enable:0000000000000000 .L0 
C:\Users\stapi\AppData\Local\Temp\cc07N9HF.s:19     .text.rcu_irc16m_dfs_to_rf_enable:0000000000000000 .L0 
C:\Users\stapi\AppData\Local\Temp\cc07N9HF.s:20     .text.rcu_irc16m_dfs_to_rf_enable:0000000000000000 .L0 
C:\Users\stapi\AppData\Local\Temp\cc07N9HF.s:25     .text.rcu_irc16m_dfs_to_rf_enable:0000000000000010 .L0 
C:\Users\stapi\AppData\Local\Temp\cc07N9HF.s:26     .text.rcu_irc16m_dfs_to_rf_enable:0000000000000012 .L0 
C:\Users\stapi\AppData\Local\Temp\cc07N9HF.s:33     .text.rcu_irc16m_dfs_to_rf_disable:0000000000000000 rcu_irc16m_dfs_to_rf_disable
C:\Users\stapi\AppData\Local\Temp\cc07N9HF.s:36     .text.rcu_irc16m_dfs_to_rf_disable:0000000000000000 .L0 
C:\Users\stapi\AppData\Local\Temp\cc07N9HF.s:37     .text.rcu_irc16m_dfs_to_rf_disable:0000000000000000 .L0 
C:\Users\stapi\AppData\Local\Temp\cc07N9HF.s:38     .text.rcu_irc16m_dfs_to_rf_disable:0000000000000000 .L0 
C:\Users\stapi\AppData\Local\Temp\cc07N9HF.s:39     .text.rcu_irc16m_dfs_to_rf_disable:0000000000000000 .L0 
C:\Users\stapi\AppData\Local\Temp\cc07N9HF.s:44     .text.rcu_irc16m_dfs_to_rf_disable:000000000000000e .L0 
C:\Users\stapi\AppData\Local\Temp\cc07N9HF.s:45     .text.rcu_irc16m_dfs_to_rf_disable:0000000000000010 .L0 
C:\Users\stapi\AppData\Local\Temp\cc07N9HF.s:52     .text.rcu_periph_clock_enable:0000000000000000 rcu_periph_clock_enable
C:\Users\stapi\AppData\Local\Temp\cc07N9HF.s:55     .text.rcu_periph_clock_enable:0000000000000000 .L0 
C:\Users\stapi\AppData\Local\Temp\cc07N9HF.s:57     .text.rcu_periph_clock_enable:0000000000000000 .L0 
C:\Users\stapi\AppData\Local\Temp\cc07N9HF.s:58     .text.rcu_periph_clock_enable:0000000000000000 .L0 
C:\Users\stapi\AppData\Local\Temp\cc07N9HF.s:59     .text.rcu_periph_clock_enable:0000000000000000 .L0 
C:\Users\stapi\AppData\Local\Temp\cc07N9HF.s:68     .text.rcu_periph_clock_enable:0000000000000016 .L0 
C:\Users\stapi\AppData\Local\Temp\cc07N9HF.s:69     .text.rcu_periph_clock_enable:0000000000000018 .L0 
C:\Users\stapi\AppData\Local\Temp\cc07N9HF.s:76     .text.rcu_periph_clock_disable:0000000000000000 rcu_periph_clock_disable
C:\Users\stapi\AppData\Local\Temp\cc07N9HF.s:79     .text.rcu_periph_clock_disable:0000000000000000 .L0 
C:\Users\stapi\AppData\Local\Temp\cc07N9HF.s:81     .text.rcu_periph_clock_disable:0000000000000000 .L0 
C:\Users\stapi\AppData\Local\Temp\cc07N9HF.s:82     .text.rcu_periph_clock_disable:0000000000000000 .L0 
C:\Users\stapi\AppData\Local\Temp\cc07N9HF.s:83     .text.rcu_periph_clock_disable:0000000000000000 .L0 
C:\Users\stapi\AppData\Local\Temp\cc07N9HF.s:89     .text.rcu_periph_clock_disable:0000000000000010 .L0 
C:\Users\stapi\AppData\Local\Temp\cc07N9HF.s:92     .text.rcu_periph_clock_disable:0000000000000014 .L0 
C:\Users\stapi\AppData\Local\Temp\cc07N9HF.s:95     .text.rcu_periph_clock_disable:000000000000001a .L0 
C:\Users\stapi\AppData\Local\Temp\cc07N9HF.s:96     .text.rcu_periph_clock_disable:000000000000001c .L0 
C:\Users\stapi\AppData\Local\Temp\cc07N9HF.s:103    .text.rcu_fmc_clock_sleep_enable:0000000000000000 rcu_fmc_clock_sleep_enable
C:\Users\stapi\AppData\Local\Temp\cc07N9HF.s:106    .text.rcu_fmc_clock_sleep_enable:0000000000000000 .L0 
C:\Users\stapi\AppData\Local\Temp\cc07N9HF.s:107    .text.rcu_fmc_clock_sleep_enable:0000000000000000 .L0 
C:\Users\stapi\AppData\Local\Temp\cc07N9HF.s:108    .text.rcu_fmc_clock_sleep_enable:0000000000000000 .L0 
C:\Users\stapi\AppData\Local\Temp\cc07N9HF.s:109    .text.rcu_fmc_clock_sleep_enable:0000000000000000 .L0 
C:\Users\stapi\AppData\Local\Temp\cc07N9HF.s:114    .text.rcu_fmc_clock_sleep_enable:0000000000000010 .L0 
C:\Users\stapi\AppData\Local\Temp\cc07N9HF.s:115    .text.rcu_fmc_clock_sleep_enable:0000000000000012 .L0 
C:\Users\stapi\AppData\Local\Temp\cc07N9HF.s:122    .text.rcu_fmc_clock_sleep_disable:0000000000000000 rcu_fmc_clock_sleep_disable
C:\Users\stapi\AppData\Local\Temp\cc07N9HF.s:125    .text.rcu_fmc_clock_sleep_disable:0000000000000000 .L0 
C:\Users\stapi\AppData\Local\Temp\cc07N9HF.s:126    .text.rcu_fmc_clock_sleep_disable:0000000000000000 .L0 
C:\Users\stapi\AppData\Local\Temp\cc07N9HF.s:127    .text.rcu_fmc_clock_sleep_disable:0000000000000000 .L0 
C:\Users\stapi\AppData\Local\Temp\cc07N9HF.s:128    .text.rcu_fmc_clock_sleep_disable:0000000000000000 .L0 
C:\Users\stapi\AppData\Local\Temp\cc07N9HF.s:133    .text.rcu_fmc_clock_sleep_disable:0000000000000010 .L0 
C:\Users\stapi\AppData\Local\Temp\cc07N9HF.s:134    .text.rcu_fmc_clock_sleep_disable:0000000000000012 .L0 
C:\Users\stapi\AppData\Local\Temp\cc07N9HF.s:141    .text.rcu_periph_reset_enable:0000000000000000 rcu_periph_reset_enable
C:\Users\stapi\AppData\Local\Temp\cc07N9HF.s:143    .text.rcu_periph_reset_enable:0000000000000000 .L0 
C:\Users\stapi\AppData\Local\Temp\cc07N9HF.s:145    .text.rcu_periph_reset_enable:0000000000000008 .L0 
C:\Users\stapi\AppData\Local\Temp\cc07N9HF.s:152    .text.rcu_periph_reset_disable:0000000000000000 rcu_periph_reset_disable
C:\Users\stapi\AppData\Local\Temp\cc07N9HF.s:154    .text.rcu_periph_reset_disable:0000000000000000 .L0 
C:\Users\stapi\AppData\Local\Temp\cc07N9HF.s:156    .text.rcu_periph_reset_disable:0000000000000008 .L0 
C:\Users\stapi\AppData\Local\Temp\cc07N9HF.s:163    .text.rcu_bkp_reset_enable:0000000000000000 rcu_bkp_reset_enable
C:\Users\stapi\AppData\Local\Temp\cc07N9HF.s:166    .text.rcu_bkp_reset_enable:0000000000000000 .L0 
C:\Users\stapi\AppData\Local\Temp\cc07N9HF.s:167    .text.rcu_bkp_reset_enable:0000000000000000 .L0 
C:\Users\stapi\AppData\Local\Temp\cc07N9HF.s:168    .text.rcu_bkp_reset_enable:0000000000000000 .L0 
C:\Users\stapi\AppData\Local\Temp\cc07N9HF.s:169    .text.rcu_bkp_reset_enable:0000000000000000 .L0 
C:\Users\stapi\AppData\Local\Temp\cc07N9HF.s:174    .text.rcu_bkp_reset_enable:0000000000000010 .L0 
C:\Users\stapi\AppData\Local\Temp\cc07N9HF.s:175    .text.rcu_bkp_reset_enable:0000000000000012 .L0 
C:\Users\stapi\AppData\Local\Temp\cc07N9HF.s:182    .text.rcu_bkp_reset_disable:0000000000000000 rcu_bkp_reset_disable
C:\Users\stapi\AppData\Local\Temp\cc07N9HF.s:185    .text.rcu_bkp_reset_disable:0000000000000000 .L0 
C:\Users\stapi\AppData\Local\Temp\cc07N9HF.s:186    .text.rcu_bkp_reset_disable:0000000000000000 .L0 
C:\Users\stapi\AppData\Local\Temp\cc07N9HF.s:187    .text.rcu_bkp_reset_disable:0000000000000000 .L0 
C:\Users\stapi\AppData\Local\Temp\cc07N9HF.s:188    .text.rcu_bkp_reset_disable:0000000000000000 .L0 
C:\Users\stapi\AppData\Local\Temp\cc07N9HF.s:193    .text.rcu_bkp_reset_disable:0000000000000010 .L0 
C:\Users\stapi\AppData\Local\Temp\cc07N9HF.s:194    .text.rcu_bkp_reset_disable:0000000000000012 .L0 
C:\Users\stapi\AppData\Local\Temp\cc07N9HF.s:201    .text.rcu_rfpll_cal_enable:0000000000000000 rcu_rfpll_cal_enable
C:\Users\stapi\AppData\Local\Temp\cc07N9HF.s:204    .text.rcu_rfpll_cal_enable:0000000000000000 .L0 
C:\Users\stapi\AppData\Local\Temp\cc07N9HF.s:205    .text.rcu_rfpll_cal_enable:0000000000000000 .L0 
C:\Users\stapi\AppData\Local\Temp\cc07N9HF.s:206    .text.rcu_rfpll_cal_enable:0000000000000000 .L0 
C:\Users\stapi\AppData\Local\Temp\cc07N9HF.s:207    .text.rcu_rfpll_cal_enable:0000000000000000 .L0 
C:\Users\stapi\AppData\Local\Temp\cc07N9HF.s:212    .text.rcu_rfpll_cal_enable:0000000000000010 .L0 
C:\Users\stapi\AppData\Local\Temp\cc07N9HF.s:213    .text.rcu_rfpll_cal_enable:0000000000000012 .L0 
C:\Users\stapi\AppData\Local\Temp\cc07N9HF.s:220    .text.rcu_rfpll_cal_disable:0000000000000000 rcu_rfpll_cal_disable
C:\Users\stapi\AppData\Local\Temp\cc07N9HF.s:223    .text.rcu_rfpll_cal_disable:0000000000000000 .L0 
C:\Users\stapi\AppData\Local\Temp\cc07N9HF.s:224    .text.rcu_rfpll_cal_disable:0000000000000000 .L0 
C:\Users\stapi\AppData\Local\Temp\cc07N9HF.s:225    .text.rcu_rfpll_cal_disable:0000000000000000 .L0 
C:\Users\stapi\AppData\Local\Temp\cc07N9HF.s:226    .text.rcu_rfpll_cal_disable:0000000000000000 .L0 
C:\Users\stapi\AppData\Local\Temp\cc07N9HF.s:231    .text.rcu_rfpll_cal_disable:0000000000000010 .L0 
C:\Users\stapi\AppData\Local\Temp\cc07N9HF.s:232    .text.rcu_rfpll_cal_disable:0000000000000012 .L0 
C:\Users\stapi\AppData\Local\Temp\cc07N9HF.s:239    .text.rcu_control_unit_powerup:0000000000000000 rcu_control_unit_powerup
C:\Users\stapi\AppData\Local\Temp\cc07N9HF.s:241    .text.rcu_control_unit_powerup:0000000000000000 .L0 
C:\Users\stapi\AppData\Local\Temp\cc07N9HF.s:243    .text.rcu_control_unit_powerup:0000000000000008 .L0 
C:\Users\stapi\AppData\Local\Temp\cc07N9HF.s:250    .text.rcu_control_unit_powerdown:0000000000000000 rcu_control_unit_powerdown
C:\Users\stapi\AppData\Local\Temp\cc07N9HF.s:252    .text.rcu_control_unit_powerdown:0000000000000000 .L0 
C:\Users\stapi\AppData\Local\Temp\cc07N9HF.s:254    .text.rcu_control_unit_powerdown:0000000000000008 .L0 
C:\Users\stapi\AppData\Local\Temp\cc07N9HF.s:261    .text.rcu_system_clock_source_config:0000000000000000 rcu_system_clock_source_config
C:\Users\stapi\AppData\Local\Temp\cc07N9HF.s:264    .text.rcu_system_clock_source_config:0000000000000000 .L0 
C:\Users\stapi\AppData\Local\Temp\cc07N9HF.s:266    .text.rcu_system_clock_source_config:0000000000000000 .L0 
C:\Users\stapi\AppData\Local\Temp\cc07N9HF.s:267    .text.rcu_system_clock_source_config:0000000000000000 .L0 
C:\Users\stapi\AppData\Local\Temp\cc07N9HF.s:268    .text.rcu_system_clock_source_config:0000000000000000 .L0 
C:\Users\stapi\AppData\Local\Temp\cc07N9HF.s:269    .text.rcu_system_clock_source_config:0000000000000000 .L0 
C:\Users\stapi\AppData\Local\Temp\cc07N9HF.s:273    .text.rcu_system_clock_source_config:0000000000000008 .L0 
C:\Users\stapi\AppData\Local\Temp\cc07N9HF.s:274    .text.rcu_system_clock_source_config:0000000000000008 .L0 
C:\Users\stapi\AppData\Local\Temp\cc07N9HF.s:275    .text.rcu_system_clock_source_config:0000000000000008 .L0 
C:\Users\stapi\AppData\Local\Temp\cc07N9HF.s:278    .text.rcu_system_clock_source_config:000000000000000a .L0 
C:\Users\stapi\AppData\Local\Temp\cc07N9HF.s:281    .text.rcu_system_clock_source_config:000000000000000c .L0 
C:\Users\stapi\AppData\Local\Temp\cc07N9HF.s:283    .text.rcu_system_clock_source_config:0000000000000010 .L0 
C:\Users\stapi\AppData\Local\Temp\cc07N9HF.s:284    .text.rcu_system_clock_source_config:0000000000000012 .L0 
C:\Users\stapi\AppData\Local\Temp\cc07N9HF.s:291    .text.rcu_system_clock_source_get:0000000000000000 rcu_system_clock_source_get
C:\Users\stapi\AppData\Local\Temp\cc07N9HF.s:294    .text.rcu_system_clock_source_get:0000000000000000 .L0 
C:\Users\stapi\AppData\Local\Temp\cc07N9HF.s:295    .text.rcu_system_clock_source_get:0000000000000000 .L0 
C:\Users\stapi\AppData\Local\Temp\cc07N9HF.s:296    .text.rcu_system_clock_source_get:0000000000000000 .L0 
C:\Users\stapi\AppData\Local\Temp\cc07N9HF.s:297    .text.rcu_system_clock_source_get:0000000000000000 .L0 
C:\Users\stapi\AppData\Local\Temp\cc07N9HF.s:300    .text.rcu_system_clock_source_get:0000000000000008 .L0 
C:\Users\stapi\AppData\Local\Temp\cc07N9HF.s:302    .text.rcu_system_clock_source_get:000000000000000c .L0 
C:\Users\stapi\AppData\Local\Temp\cc07N9HF.s:309    .text.rcu_ahb_clock_config:0000000000000000 rcu_ahb_clock_config
C:\Users\stapi\AppData\Local\Temp\cc07N9HF.s:312    .text.rcu_ahb_clock_config:0000000000000000 .L0 
C:\Users\stapi\AppData\Local\Temp\cc07N9HF.s:314    .text.rcu_ahb_clock_config:0000000000000000 .L0 
C:\Users\stapi\AppData\Local\Temp\cc07N9HF.s:315    .text.rcu_ahb_clock_config:0000000000000000 .L0 
C:\Users\stapi\AppData\Local\Temp\cc07N9HF.s:316    .text.rcu_ahb_clock_config:0000000000000000 .L0 
C:\Users\stapi\AppData\Local\Temp\cc07N9HF.s:317    .text.rcu_ahb_clock_config:0000000000000000 .L0 
C:\Users\stapi\AppData\Local\Temp\cc07N9HF.s:321    .text.rcu_ahb_clock_config:0000000000000008 .L0 
C:\Users\stapi\AppData\Local\Temp\cc07N9HF.s:322    .text.rcu_ahb_clock_config:0000000000000008 .L0 
C:\Users\stapi\AppData\Local\Temp\cc07N9HF.s:323    .text.rcu_ahb_clock_config:0000000000000008 .L0 
C:\Users\stapi\AppData\Local\Temp\cc07N9HF.s:326    .text.rcu_ahb_clock_config:000000000000000c .L0 
C:\Users\stapi\AppData\Local\Temp\cc07N9HF.s:329    .text.rcu_ahb_clock_config:000000000000000e .L0 
C:\Users\stapi\AppData\Local\Temp\cc07N9HF.s:331    .text.rcu_ahb_clock_config:0000000000000012 .L0 
C:\Users\stapi\AppData\Local\Temp\cc07N9HF.s:332    .text.rcu_ahb_clock_config:0000000000000014 .L0 
C:\Users\stapi\AppData\Local\Temp\cc07N9HF.s:339    .text.rcu_apb1_clock_config:0000000000000000 rcu_apb1_clock_config
C:\Users\stapi\AppData\Local\Temp\cc07N9HF.s:342    .text.rcu_apb1_clock_config:0000000000000000 .L0 
C:\Users\stapi\AppData\Local\Temp\cc07N9HF.s:344    .text.rcu_apb1_clock_config:0000000000000000 .L0 
C:\Users\stapi\AppData\Local\Temp\cc07N9HF.s:345    .text.rcu_apb1_clock_config:0000000000000000 .L0 
C:\Users\stapi\AppData\Local\Temp\cc07N9HF.s:346    .text.rcu_apb1_clock_config:0000000000000000 .L0 
C:\Users\stapi\AppData\Local\Temp\cc07N9HF.s:347    .text.rcu_apb1_clock_config:0000000000000000 .L0 
C:\Users\stapi\AppData\Local\Temp\cc07N9HF.s:351    .text.rcu_apb1_clock_config:0000000000000008 .L0 
C:\Users\stapi\AppData\Local\Temp\cc07N9HF.s:352    .text.rcu_apb1_clock_config:0000000000000008 .L0 
C:\Users\stapi\AppData\Local\Temp\cc07N9HF.s:353    .text.rcu_apb1_clock_config:0000000000000008 .L0 
C:\Users\stapi\AppData\Local\Temp\cc07N9HF.s:358    .text.rcu_apb1_clock_config:0000000000000010 .L0 
C:\Users\stapi\AppData\Local\Temp\cc07N9HF.s:360    .text.rcu_apb1_clock_config:0000000000000012 .L0 
C:\Users\stapi\AppData\Local\Temp\cc07N9HF.s:362    .text.rcu_apb1_clock_config:0000000000000016 .L0 
C:\Users\stapi\AppData\Local\Temp\cc07N9HF.s:363    .text.rcu_apb1_clock_config:0000000000000018 .L0 
C:\Users\stapi\AppData\Local\Temp\cc07N9HF.s:370    .text.rcu_apb2_clock_config:0000000000000000 rcu_apb2_clock_config
C:\Users\stapi\AppData\Local\Temp\cc07N9HF.s:373    .text.rcu_apb2_clock_config:0000000000000000 .L0 
C:\Users\stapi\AppData\Local\Temp\cc07N9HF.s:375    .text.rcu_apb2_clock_config:0000000000000000 .L0 
C:\Users\stapi\AppData\Local\Temp\cc07N9HF.s:376    .text.rcu_apb2_clock_config:0000000000000000 .L0 
C:\Users\stapi\AppData\Local\Temp\cc07N9HF.s:377    .text.rcu_apb2_clock_config:0000000000000000 .L0 
C:\Users\stapi\AppData\Local\Temp\cc07N9HF.s:378    .text.rcu_apb2_clock_config:0000000000000000 .L0 
C:\Users\stapi\AppData\Local\Temp\cc07N9HF.s:382    .text.rcu_apb2_clock_config:0000000000000008 .L0 
C:\Users\stapi\AppData\Local\Temp\cc07N9HF.s:383    .text.rcu_apb2_clock_config:0000000000000008 .L0 
C:\Users\stapi\AppData\Local\Temp\cc07N9HF.s:384    .text.rcu_apb2_clock_config:0000000000000008 .L0 
C:\Users\stapi\AppData\Local\Temp\cc07N9HF.s:389    .text.rcu_apb2_clock_config:000000000000000e .L0 
C:\Users\stapi\AppData\Local\Temp\cc07N9HF.s:391    .text.rcu_apb2_clock_config:0000000000000010 .L0 
C:\Users\stapi\AppData\Local\Temp\cc07N9HF.s:393    .text.rcu_apb2_clock_config:0000000000000014 .L0 
C:\Users\stapi\AppData\Local\Temp\cc07N9HF.s:394    .text.rcu_apb2_clock_config:0000000000000016 .L0 
C:\Users\stapi\AppData\Local\Temp\cc07N9HF.s:401    .text.rcu_ckout0_config:0000000000000000 rcu_ckout0_config
C:\Users\stapi\AppData\Local\Temp\cc07N9HF.s:404    .text.rcu_ckout0_config:0000000000000000 .L0 
C:\Users\stapi\AppData\Local\Temp\cc07N9HF.s:406    .text.rcu_ckout0_config:0000000000000000 .L0 
C:\Users\stapi\AppData\Local\Temp\cc07N9HF.s:407    .text.rcu_ckout0_config:0000000000000000 .L0 
C:\Users\stapi\AppData\Local\Temp\cc07N9HF.s:408    .text.rcu_ckout0_config:0000000000000000 .L0 
C:\Users\stapi\AppData\Local\Temp\cc07N9HF.s:409    .text.rcu_ckout0_config:0000000000000000 .L0 
C:\Users\stapi\AppData\Local\Temp\cc07N9HF.s:413    .text.rcu_ckout0_config:0000000000000008 .L0 
C:\Users\stapi\AppData\Local\Temp\cc07N9HF.s:414    .text.rcu_ckout0_config:0000000000000008 .L0 
C:\Users\stapi\AppData\Local\Temp\cc07N9HF.s:415    .text.rcu_ckout0_config:0000000000000008 .L0 
C:\Users\stapi\AppData\Local\Temp\cc07N9HF.s:420    .text.rcu_ckout0_config:0000000000000010 .L0 
C:\Users\stapi\AppData\Local\Temp\cc07N9HF.s:423    .text.rcu_ckout0_config:0000000000000014 .L0 
C:\Users\stapi\AppData\Local\Temp\cc07N9HF.s:425    .text.rcu_ckout0_config:0000000000000018 .L0 
C:\Users\stapi\AppData\Local\Temp\cc07N9HF.s:426    .text.rcu_ckout0_config:000000000000001a .L0 
C:\Users\stapi\AppData\Local\Temp\cc07N9HF.s:433    .text.rcu_ckout1_config:0000000000000000 rcu_ckout1_config
C:\Users\stapi\AppData\Local\Temp\cc07N9HF.s:436    .text.rcu_ckout1_config:0000000000000000 .L0 
C:\Users\stapi\AppData\Local\Temp\cc07N9HF.s:438    .text.rcu_ckout1_config:0000000000000000 .L0 
C:\Users\stapi\AppData\Local\Temp\cc07N9HF.s:439    .text.rcu_ckout1_config:0000000000000000 .L0 
C:\Users\stapi\AppData\Local\Temp\cc07N9HF.s:440    .text.rcu_ckout1_config:0000000000000000 .L0 
C:\Users\stapi\AppData\Local\Temp\cc07N9HF.s:441    .text.rcu_ckout1_config:0000000000000000 .L0 
C:\Users\stapi\AppData\Local\Temp\cc07N9HF.s:445    .text.rcu_ckout1_config:0000000000000008 .L0 
C:\Users\stapi\AppData\Local\Temp\cc07N9HF.s:446    .text.rcu_ckout1_config:0000000000000008 .L0 
C:\Users\stapi\AppData\Local\Temp\cc07N9HF.s:447    .text.rcu_ckout1_config:0000000000000008 .L0 
C:\Users\stapi\AppData\Local\Temp\cc07N9HF.s:451    .text.rcu_ckout1_config:000000000000000c .L0 
C:\Users\stapi\AppData\Local\Temp\cc07N9HF.s:454    .text.rcu_ckout1_config:0000000000000010 .L0 
C:\Users\stapi\AppData\Local\Temp\cc07N9HF.s:456    .text.rcu_ckout1_config:0000000000000014 .L0 
C:\Users\stapi\AppData\Local\Temp\cc07N9HF.s:457    .text.rcu_ckout1_config:0000000000000016 .L0 
C:\Users\stapi\AppData\Local\Temp\cc07N9HF.s:464    .text.rcu_plldig_config:0000000000000000 rcu_plldig_config
C:\Users\stapi\AppData\Local\Temp\cc07N9HF.s:467    .text.rcu_plldig_config:0000000000000000 .L0 
C:\Users\stapi\AppData\Local\Temp\cc07N9HF.s:469    .text.rcu_plldig_config:0000000000000000 .L0 
C:\Users\stapi\AppData\Local\Temp\cc07N9HF.s:470    .text.rcu_plldig_config:0000000000000000 .L0 
C:\Users\stapi\AppData\Local\Temp\cc07N9HF.s:471    .text.rcu_plldig_config:0000000000000000 .L0 
C:\Users\stapi\AppData\Local\Temp\cc07N9HF.s:479    .text.rcu_plldig_config:0000000000000014 .L0 
C:\Users\stapi\AppData\Local\Temp\cc07N9HF.s:480    .text.rcu_plldig_config:0000000000000014 .L0 
C:\Users\stapi\AppData\Local\Temp\cc07N9HF.s:484    .text.rcu_plldig_config:000000000000001a .L0 
C:\Users\stapi\AppData\Local\Temp\cc07N9HF.s:485    .text.rcu_plldig_config:000000000000001c .L0 
C:\Users\stapi\AppData\Local\Temp\cc07N9HF.s:492    .text.rcu_plldigdiv_sys_config:0000000000000000 rcu_plldigdiv_sys_config
C:\Users\stapi\AppData\Local\Temp\cc07N9HF.s:495    .text.rcu_plldigdiv_sys_config:0000000000000000 .L0 
C:\Users\stapi\AppData\Local\Temp\cc07N9HF.s:497    .text.rcu_plldigdiv_sys_config:0000000000000000 .L0 
C:\Users\stapi\AppData\Local\Temp\cc07N9HF.s:498    .text.rcu_plldigdiv_sys_config:0000000000000000 .L0 
C:\Users\stapi\AppData\Local\Temp\cc07N9HF.s:499    .text.rcu_plldigdiv_sys_config:0000000000000000 .L0 
C:\Users\stapi\AppData\Local\Temp\cc07N9HF.s:500    .text.rcu_plldigdiv_sys_config:0000000000000000 .L0 
C:\Users\stapi\AppData\Local\Temp\cc07N9HF.s:504    .text.rcu_plldigdiv_sys_config:0000000000000008 .L0 
C:\Users\stapi\AppData\Local\Temp\cc07N9HF.s:505    .text.rcu_plldigdiv_sys_config:0000000000000008 .L0 
C:\Users\stapi\AppData\Local\Temp\cc07N9HF.s:506    .text.rcu_plldigdiv_sys_config:0000000000000008 .L0 
C:\Users\stapi\AppData\Local\Temp\cc07N9HF.s:510    .text.rcu_plldigdiv_sys_config:000000000000000c .L0 
C:\Users\stapi\AppData\Local\Temp\cc07N9HF.s:512    .text.rcu_plldigdiv_sys_config:000000000000000e .L0 
C:\Users\stapi\AppData\Local\Temp\cc07N9HF.s:514    .text.rcu_plldigdiv_sys_config:0000000000000012 .L0 
C:\Users\stapi\AppData\Local\Temp\cc07N9HF.s:515    .text.rcu_plldigdiv_sys_config:0000000000000014 .L0 
C:\Users\stapi\AppData\Local\Temp\cc07N9HF.s:522    .text.rcu_rtc_clock_config:0000000000000000 rcu_rtc_clock_config
C:\Users\stapi\AppData\Local\Temp\cc07N9HF.s:525    .text.rcu_rtc_clock_config:0000000000000000 .L0 
C:\Users\stapi\AppData\Local\Temp\cc07N9HF.s:527    .text.rcu_rtc_clock_config:0000000000000000 .L0 
C:\Users\stapi\AppData\Local\Temp\cc07N9HF.s:528    .text.rcu_rtc_clock_config:0000000000000000 .L0 
C:\Users\stapi\AppData\Local\Temp\cc07N9HF.s:529    .text.rcu_rtc_clock_config:0000000000000000 .L0 
C:\Users\stapi\AppData\Local\Temp\cc07N9HF.s:530    .text.rcu_rtc_clock_config:0000000000000000 .L0 
C:\Users\stapi\AppData\Local\Temp\cc07N9HF.s:534    .text.rcu_rtc_clock_config:0000000000000008 .L0 
C:\Users\stapi\AppData\Local\Temp\cc07N9HF.s:535    .text.rcu_rtc_clock_config:0000000000000008 .L0 
C:\Users\stapi\AppData\Local\Temp\cc07N9HF.s:536    .text.rcu_rtc_clock_config:0000000000000008 .L0 
C:\Users\stapi\AppData\Local\Temp\cc07N9HF.s:539    .text.rcu_rtc_clock_config:000000000000000c .L0 
C:\Users\stapi\AppData\Local\Temp\cc07N9HF.s:542    .text.rcu_rtc_clock_config:000000000000000e .L0 
C:\Users\stapi\AppData\Local\Temp\cc07N9HF.s:544    .text.rcu_rtc_clock_config:0000000000000012 .L0 
C:\Users\stapi\AppData\Local\Temp\cc07N9HF.s:545    .text.rcu_rtc_clock_config:0000000000000014 .L0 
C:\Users\stapi\AppData\Local\Temp\cc07N9HF.s:552    .text.rcu_rtc_div_config:0000000000000000 rcu_rtc_div_config
C:\Users\stapi\AppData\Local\Temp\cc07N9HF.s:555    .text.rcu_rtc_div_config:0000000000000000 .L0 
C:\Users\stapi\AppData\Local\Temp\cc07N9HF.s:557    .text.rcu_rtc_div_config:0000000000000000 .L0 
C:\Users\stapi\AppData\Local\Temp\cc07N9HF.s:558    .text.rcu_rtc_div_config:0000000000000000 .L0 
C:\Users\stapi\AppData\Local\Temp\cc07N9HF.s:559    .text.rcu_rtc_div_config:0000000000000000 .L0 
C:\Users\stapi\AppData\Local\Temp\cc07N9HF.s:560    .text.rcu_rtc_div_config:0000000000000000 .L0 
C:\Users\stapi\AppData\Local\Temp\cc07N9HF.s:564    .text.rcu_rtc_div_config:0000000000000008 .L0 
C:\Users\stapi\AppData\Local\Temp\cc07N9HF.s:565    .text.rcu_rtc_div_config:0000000000000008 .L0 
C:\Users\stapi\AppData\Local\Temp\cc07N9HF.s:566    .text.rcu_rtc_div_config:0000000000000008 .L0 
C:\Users\stapi\AppData\Local\Temp\cc07N9HF.s:571    .text.rcu_rtc_div_config:0000000000000010 .L0 
C:\Users\stapi\AppData\Local\Temp\cc07N9HF.s:573    .text.rcu_rtc_div_config:0000000000000012 .L0 
C:\Users\stapi\AppData\Local\Temp\cc07N9HF.s:575    .text.rcu_rtc_div_config:0000000000000016 .L0 
C:\Users\stapi\AppData\Local\Temp\cc07N9HF.s:576    .text.rcu_rtc_div_config:0000000000000018 .L0 
C:\Users\stapi\AppData\Local\Temp\cc07N9HF.s:583    .text.rcu_trng_div_config:0000000000000000 rcu_trng_div_config
C:\Users\stapi\AppData\Local\Temp\cc07N9HF.s:586    .text.rcu_trng_div_config:0000000000000000 .L0 
C:\Users\stapi\AppData\Local\Temp\cc07N9HF.s:588    .text.rcu_trng_div_config:0000000000000000 .L0 
C:\Users\stapi\AppData\Local\Temp\cc07N9HF.s:589    .text.rcu_trng_div_config:0000000000000000 .L0 
C:\Users\stapi\AppData\Local\Temp\cc07N9HF.s:590    .text.rcu_trng_div_config:0000000000000000 .L0 
C:\Users\stapi\AppData\Local\Temp\cc07N9HF.s:591    .text.rcu_trng_div_config:0000000000000000 .L0 
C:\Users\stapi\AppData\Local\Temp\cc07N9HF.s:595    .text.rcu_trng_div_config:0000000000000008 .L0 
C:\Users\stapi\AppData\Local\Temp\cc07N9HF.s:596    .text.rcu_trng_div_config:0000000000000008 .L0 
C:\Users\stapi\AppData\Local\Temp\cc07N9HF.s:597    .text.rcu_trng_div_config:0000000000000008 .L0 
C:\Users\stapi\AppData\Local\Temp\cc07N9HF.s:600    .text.rcu_trng_div_config:000000000000000c .L0 
C:\Users\stapi\AppData\Local\Temp\cc07N9HF.s:603    .text.rcu_trng_div_config:000000000000000e .L0 
C:\Users\stapi\AppData\Local\Temp\cc07N9HF.s:605    .text.rcu_trng_div_config:0000000000000012 .L0 
C:\Users\stapi\AppData\Local\Temp\cc07N9HF.s:606    .text.rcu_trng_div_config:0000000000000014 .L0 
C:\Users\stapi\AppData\Local\Temp\cc07N9HF.s:613    .text.rcu_i2c0_clock_config:0000000000000000 rcu_i2c0_clock_config
C:\Users\stapi\AppData\Local\Temp\cc07N9HF.s:616    .text.rcu_i2c0_clock_config:0000000000000000 .L0 
C:\Users\stapi\AppData\Local\Temp\cc07N9HF.s:618    .text.rcu_i2c0_clock_config:0000000000000000 .L0 
C:\Users\stapi\AppData\Local\Temp\cc07N9HF.s:619    .text.rcu_i2c0_clock_config:0000000000000000 .L0 
C:\Users\stapi\AppData\Local\Temp\cc07N9HF.s:620    .text.rcu_i2c0_clock_config:0000000000000000 .L0 
C:\Users\stapi\AppData\Local\Temp\cc07N9HF.s:621    .text.rcu_i2c0_clock_config:0000000000000000 .L0 
C:\Users\stapi\AppData\Local\Temp\cc07N9HF.s:625    .text.rcu_i2c0_clock_config:0000000000000008 .L0 
C:\Users\stapi\AppData\Local\Temp\cc07N9HF.s:626    .text.rcu_i2c0_clock_config:0000000000000008 .L0 
C:\Users\stapi\AppData\Local\Temp\cc07N9HF.s:627    .text.rcu_i2c0_clock_config:0000000000000008 .L0 
C:\Users\stapi\AppData\Local\Temp\cc07N9HF.s:632    .text.rcu_i2c0_clock_config:0000000000000010 .L0 
C:\Users\stapi\AppData\Local\Temp\cc07N9HF.s:634    .text.rcu_i2c0_clock_config:0000000000000012 .L0 
C:\Users\stapi\AppData\Local\Temp\cc07N9HF.s:636    .text.rcu_i2c0_clock_config:0000000000000016 .L0 
C:\Users\stapi\AppData\Local\Temp\cc07N9HF.s:637    .text.rcu_i2c0_clock_config:0000000000000018 .L0 
C:\Users\stapi\AppData\Local\Temp\cc07N9HF.s:644    .text.rcu_usart0_clock_config:0000000000000000 rcu_usart0_clock_config
C:\Users\stapi\AppData\Local\Temp\cc07N9HF.s:647    .text.rcu_usart0_clock_config:0000000000000000 .L0 
C:\Users\stapi\AppData\Local\Temp\cc07N9HF.s:649    .text.rcu_usart0_clock_config:0000000000000000 .L0 
C:\Users\stapi\AppData\Local\Temp\cc07N9HF.s:650    .text.rcu_usart0_clock_config:0000000000000000 .L0 
C:\Users\stapi\AppData\Local\Temp\cc07N9HF.s:651    .text.rcu_usart0_clock_config:0000000000000000 .L0 
C:\Users\stapi\AppData\Local\Temp\cc07N9HF.s:652    .text.rcu_usart0_clock_config:0000000000000000 .L0 
C:\Users\stapi\AppData\Local\Temp\cc07N9HF.s:656    .text.rcu_usart0_clock_config:0000000000000008 .L0 
C:\Users\stapi\AppData\Local\Temp\cc07N9HF.s:657    .text.rcu_usart0_clock_config:0000000000000008 .L0 
C:\Users\stapi\AppData\Local\Temp\cc07N9HF.s:658    .text.rcu_usart0_clock_config:0000000000000008 .L0 
C:\Users\stapi\AppData\Local\Temp\cc07N9HF.s:662    .text.rcu_usart0_clock_config:000000000000000c .L0 
C:\Users\stapi\AppData\Local\Temp\cc07N9HF.s:664    .text.rcu_usart0_clock_config:000000000000000e .L0 
C:\Users\stapi\AppData\Local\Temp\cc07N9HF.s:666    .text.rcu_usart0_clock_config:0000000000000012 .L0 
C:\Users\stapi\AppData\Local\Temp\cc07N9HF.s:667    .text.rcu_usart0_clock_config:0000000000000014 .L0 
C:\Users\stapi\AppData\Local\Temp\cc07N9HF.s:674    .text.rcu_irc16m_div_config:0000000000000000 rcu_irc16m_div_config
C:\Users\stapi\AppData\Local\Temp\cc07N9HF.s:677    .text.rcu_irc16m_div_config:0000000000000000 .L0 
C:\Users\stapi\AppData\Local\Temp\cc07N9HF.s:679    .text.rcu_irc16m_div_config:0000000000000000 .L0 
C:\Users\stapi\AppData\Local\Temp\cc07N9HF.s:680    .text.rcu_irc16m_div_config:0000000000000000 .L0 
C:\Users\stapi\AppData\Local\Temp\cc07N9HF.s:681    .text.rcu_irc16m_div_config:0000000000000000 .L0 
C:\Users\stapi\AppData\Local\Temp\cc07N9HF.s:682    .text.rcu_irc16m_div_config:0000000000000000 .L0 
C:\Users\stapi\AppData\Local\Temp\cc07N9HF.s:686    .text.rcu_irc16m_div_config:0000000000000008 .L0 
C:\Users\stapi\AppData\Local\Temp\cc07N9HF.s:687    .text.rcu_irc16m_div_config:0000000000000008 .L0 
C:\Users\stapi\AppData\Local\Temp\cc07N9HF.s:688    .text.rcu_irc16m_div_config:0000000000000008 .L0 
C:\Users\stapi\AppData\Local\Temp\cc07N9HF.s:691    .text.rcu_irc16m_div_config:000000000000000c .L0 
C:\Users\stapi\AppData\Local\Temp\cc07N9HF.s:694    .text.rcu_irc16m_div_config:000000000000000e .L0 
C:\Users\stapi\AppData\Local\Temp\cc07N9HF.s:696    .text.rcu_irc16m_div_config:0000000000000012 .L0 
C:\Users\stapi\AppData\Local\Temp\cc07N9HF.s:697    .text.rcu_irc16m_div_config:0000000000000014 .L0 
C:\Users\stapi\AppData\Local\Temp\cc07N9HF.s:704    .text.rcu_timer_clock_prescaler_config:0000000000000000 rcu_timer_clock_prescaler_config
C:\Users\stapi\AppData\Local\Temp\cc07N9HF.s:707    .text.rcu_timer_clock_prescaler_config:0000000000000000 .L0 
C:\Users\stapi\AppData\Local\Temp\cc07N9HF.s:709    .text.rcu_timer_clock_prescaler_config:0000000000000000 .L0 
C:\Users\stapi\AppData\Local\Temp\cc07N9HF.s:710    .text.rcu_timer_clock_prescaler_config:0000000000000000 .L0 
C:\Users\stapi\AppData\Local\Temp\cc07N9HF.s:711    .text.rcu_timer_clock_prescaler_config:0000000000000000 .L0 
C:\Users\stapi\AppData\Local\Temp\cc07N9HF.s:714    .text.rcu_timer_clock_prescaler_config:0000000000000006 .L0 
C:\Users\stapi\AppData\Local\Temp\cc07N9HF.s:716    .text.rcu_timer_clock_prescaler_config:000000000000000a .L0 
C:\Users\stapi\AppData\Local\Temp\cc07N9HF.s:718    .text.rcu_timer_clock_prescaler_config:000000000000000e .L0 
C:\Users\stapi\AppData\Local\Temp\cc07N9HF.s:719    .text.rcu_timer_clock_prescaler_config:000000000000000e .L0 
C:\Users\stapi\AppData\Local\Temp\cc07N9HF.s:724    .text.rcu_timer_clock_prescaler_config:0000000000000014 .L0 
C:\Users\stapi\AppData\Local\Temp\cc07N9HF.s:726    .text.rcu_timer_clock_prescaler_config:0000000000000018 .L0 
C:\Users\stapi\AppData\Local\Temp\cc07N9HF.s:730    .text.rcu_timer_clock_prescaler_config:000000000000001a .L0 
C:\Users\stapi\AppData\Local\Temp\cc07N9HF.s:731    .text.rcu_timer_clock_prescaler_config:000000000000001a .L0 
C:\Users\stapi\AppData\Local\Temp\cc07N9HF.s:735    .text.rcu_timer_clock_prescaler_config:0000000000000022 .L0 
C:\Users\stapi\AppData\Local\Temp\cc07N9HF.s:742    .text.rcu_flag_get:0000000000000000 rcu_flag_get
C:\Users\stapi\AppData\Local\Temp\cc07N9HF.s:745    .text.rcu_flag_get:0000000000000000 .L0 
C:\Users\stapi\AppData\Local\Temp\cc07N9HF.s:747    .text.rcu_flag_get:0000000000000000 .L0 
C:\Users\stapi\AppData\Local\Temp\cc07N9HF.s:748    .text.rcu_flag_get:0000000000000000 .L0 
C:\Users\stapi\AppData\Local\Temp\cc07N9HF.s:749    .text.rcu_flag_get:0000000000000000 .L0 
C:\Users\stapi\AppData\Local\Temp\cc07N9HF.s:755    .text.rcu_flag_get:0000000000000010 .L0 
C:\Users\stapi\AppData\Local\Temp\cc07N9HF.s:758    .text.rcu_flag_get:0000000000000014 .L0 
C:\Users\stapi\AppData\Local\Temp\cc07N9HF.s:760    .text.rcu_flag_get:0000000000000018 .L0 
C:\Users\stapi\AppData\Local\Temp\cc07N9HF.s:767    .text.rcu_all_reset_flag_clear:0000000000000000 rcu_all_reset_flag_clear
C:\Users\stapi\AppData\Local\Temp\cc07N9HF.s:770    .text.rcu_all_reset_flag_clear:0000000000000000 .L0 
C:\Users\stapi\AppData\Local\Temp\cc07N9HF.s:771    .text.rcu_all_reset_flag_clear:0000000000000000 .L0 
C:\Users\stapi\AppData\Local\Temp\cc07N9HF.s:772    .text.rcu_all_reset_flag_clear:0000000000000000 .L0 
C:\Users\stapi\AppData\Local\Temp\cc07N9HF.s:773    .text.rcu_all_reset_flag_clear:0000000000000000 .L0 
C:\Users\stapi\AppData\Local\Temp\cc07N9HF.s:778    .text.rcu_all_reset_flag_clear:0000000000000010 .L0 
C:\Users\stapi\AppData\Local\Temp\cc07N9HF.s:779    .text.rcu_all_reset_flag_clear:0000000000000012 .L0 
C:\Users\stapi\AppData\Local\Temp\cc07N9HF.s:786    .text.rcu_interrupt_flag_get:0000000000000000 rcu_interrupt_flag_get
C:\Users\stapi\AppData\Local\Temp\cc07N9HF.s:788    .text.rcu_interrupt_flag_get:0000000000000000 .L0 
C:\Users\stapi\AppData\Local\Temp\cc07N9HF.s:790    .text.rcu_interrupt_flag_get:0000000000000008 .L0 
C:\Users\stapi\AppData\Local\Temp\cc07N9HF.s:797    .text.rcu_interrupt_flag_clear:0000000000000000 rcu_interrupt_flag_clear
C:\Users\stapi\AppData\Local\Temp\cc07N9HF.s:799    .text.rcu_interrupt_flag_clear:0000000000000000 .L0 
C:\Users\stapi\AppData\Local\Temp\cc07N9HF.s:801    .text.rcu_interrupt_flag_clear:0000000000000008 .L0 
C:\Users\stapi\AppData\Local\Temp\cc07N9HF.s:808    .text.rcu_interrupt_enable:0000000000000000 rcu_interrupt_enable
C:\Users\stapi\AppData\Local\Temp\cc07N9HF.s:810    .text.rcu_interrupt_enable:0000000000000000 .L0 
C:\Users\stapi\AppData\Local\Temp\cc07N9HF.s:812    .text.rcu_interrupt_enable:0000000000000008 .L0 
C:\Users\stapi\AppData\Local\Temp\cc07N9HF.s:819    .text.rcu_interrupt_disable:0000000000000000 rcu_interrupt_disable
C:\Users\stapi\AppData\Local\Temp\cc07N9HF.s:821    .text.rcu_interrupt_disable:0000000000000000 .L0 
C:\Users\stapi\AppData\Local\Temp\cc07N9HF.s:823    .text.rcu_interrupt_disable:0000000000000008 .L0 
C:\Users\stapi\AppData\Local\Temp\cc07N9HF.s:830    .text.rcu_lxtal_drive_capability_config:0000000000000000 rcu_lxtal_drive_capability_config
C:\Users\stapi\AppData\Local\Temp\cc07N9HF.s:833    .text.rcu_lxtal_drive_capability_config:0000000000000000 .L0 
C:\Users\stapi\AppData\Local\Temp\cc07N9HF.s:835    .text.rcu_lxtal_drive_capability_config:0000000000000000 .L0 
C:\Users\stapi\AppData\Local\Temp\cc07N9HF.s:836    .text.rcu_lxtal_drive_capability_config:0000000000000000 .L0 
C:\Users\stapi\AppData\Local\Temp\cc07N9HF.s:837    .text.rcu_lxtal_drive_capability_config:0000000000000000 .L0 
C:\Users\stapi\AppData\Local\Temp\cc07N9HF.s:838    .text.rcu_lxtal_drive_capability_config:0000000000000000 .L0 
C:\Users\stapi\AppData\Local\Temp\cc07N9HF.s:842    .text.rcu_lxtal_drive_capability_config:0000000000000008 .L0 
C:\Users\stapi\AppData\Local\Temp\cc07N9HF.s:843    .text.rcu_lxtal_drive_capability_config:0000000000000008 .L0 
C:\Users\stapi\AppData\Local\Temp\cc07N9HF.s:844    .text.rcu_lxtal_drive_capability_config:0000000000000008 .L0 
C:\Users\stapi\AppData\Local\Temp\cc07N9HF.s:847    .text.rcu_lxtal_drive_capability_config:000000000000000a .L0 
C:\Users\stapi\AppData\Local\Temp\cc07N9HF.s:850    .text.rcu_lxtal_drive_capability_config:000000000000000c .L0 
C:\Users\stapi\AppData\Local\Temp\cc07N9HF.s:852    .text.rcu_lxtal_drive_capability_config:0000000000000010 .L0 
C:\Users\stapi\AppData\Local\Temp\cc07N9HF.s:853    .text.rcu_lxtal_drive_capability_config:0000000000000012 .L0 
C:\Users\stapi\AppData\Local\Temp\cc07N9HF.s:860    .text.rcu_osci_stab_wait:0000000000000000 rcu_osci_stab_wait
C:\Users\stapi\AppData\Local\Temp\cc07N9HF.s:863    .text.rcu_osci_stab_wait:0000000000000000 .L0 
C:\Users\stapi\AppData\Local\Temp\cc07N9HF.s:865    .text.rcu_osci_stab_wait:0000000000000000 .L0 
C:\Users\stapi\AppData\Local\Temp\cc07N9HF.s:866    .text.rcu_osci_stab_wait:0000000000000008 .L0 
C:\Users\stapi\AppData\Local\Temp\cc07N9HF.s:867    .text.rcu_osci_stab_wait:0000000000000008 .L0 
C:\Users\stapi\AppData\Local\Temp\cc07N9HF.s:868    .text.rcu_osci_stab_wait:0000000000000008 .L0 
C:\Users\stapi\AppData\Local\Temp\cc07N9HF.s:869    .text.rcu_osci_stab_wait:0000000000000008 .L0 
C:\Users\stapi\AppData\Local\Temp\cc07N9HF.s:872    .text.rcu_osci_stab_wait:0000000000000008 .L0 
C:\Users\stapi\AppData\Local\Temp\cc07N9HF.s:873    .text.rcu_osci_stab_wait:0000000000000008 .L0 
C:\Users\stapi\AppData\Local\Temp\cc07N9HF.s:874    .text.rcu_osci_stab_wait:0000000000000008 .L0 
C:\Users\stapi\AppData\Local\Temp\cc07N9HF.s:875    .text.rcu_osci_stab_wait:0000000000000008 .L0 
C:\Users\stapi\AppData\Local\Temp\cc07N9HF.s:888    .text.rcu_osci_stab_wait:0000000000000020 .L0 
C:\Users\stapi\AppData\Local\Temp\cc07N9HF.s:889    .text.rcu_osci_stab_wait:0000000000000028 .L0 
C:\Users\stapi\AppData\Local\Temp\cc07N9HF.s:890    .text.rcu_osci_stab_wait:0000000000000028 .L0 
C:\Users\stapi\AppData\Local\Temp\cc07N9HF.s:891    .text.rcu_osci_stab_wait:0000000000000028 .L0 
C:\Users\stapi\AppData\Local\Temp\cc07N9HF.s:892    .text.rcu_osci_stab_wait:0000000000000028 .L0 
C:\Users\stapi\AppData\Local\Temp\cc07N9HF.s:893    .text.rcu_osci_stab_wait:0000000000000028 .L0 
C:\Users\stapi\AppData\Local\Temp\cc07N9HF.s:896    .text.rcu_osci_stab_wait:0000000000000028 .L0 
C:\Users\stapi\AppData\Local\Temp\cc07N9HF.s:898    .text.rcu_osci_stab_wait:0000000000000028 .L0 
C:\Users\stapi\AppData\Local\Temp\cc07N9HF.s:905    .text.rcu_osci_stab_wait:000000000000003c .L0 
C:\Users\stapi\AppData\Local\Temp\cc07N9HF.s:907    .text.rcu_osci_stab_wait:0000000000000040 .L0 
C:\Users\stapi\AppData\Local\Temp\cc07N9HF.s:911    .text.rcu_osci_stab_wait:0000000000000044 .L0 
C:\Users\stapi\AppData\Local\Temp\cc07N9HF.s:912    .text.rcu_osci_stab_wait:0000000000000044 .L0 
C:\Users\stapi\AppData\Local\Temp\cc07N9HF.s:916    .text.rcu_osci_stab_wait:000000000000004e .L0 
C:\Users\stapi\AppData\Local\Temp\cc07N9HF.s:917    .text.rcu_osci_stab_wait:000000000000004e .L0 
C:\Users\stapi\AppData\Local\Temp\cc07N9HF.s:919    .text.rcu_osci_stab_wait:0000000000000050 .L0 
C:\Users\stapi\AppData\Local\Temp\cc07N9HF.s:925    .text.rcu_osci_stab_wait:0000000000000054 .L0 
C:\Users\stapi\AppData\Local\Temp\cc07N9HF.s:926    .text.rcu_osci_stab_wait:0000000000000054 .L0 
C:\Users\stapi\AppData\Local\Temp\cc07N9HF.s:933    .text.rcu_osci_stab_wait:000000000000005c .L0 
C:\Users\stapi\AppData\Local\Temp\cc07N9HF.s:934    .text.rcu_osci_stab_wait:000000000000005c .L0 
C:\Users\stapi\AppData\Local\Temp\cc07N9HF.s:938    .text.rcu_osci_stab_wait:0000000000000066 .L0 
C:\Users\stapi\AppData\Local\Temp\cc07N9HF.s:939    .text.rcu_osci_stab_wait:0000000000000066 .L0 
C:\Users\stapi\AppData\Local\Temp\cc07N9HF.s:941    .text.rcu_osci_stab_wait:0000000000000068 .L0 
C:\Users\stapi\AppData\Local\Temp\cc07N9HF.s:947    .text.rcu_osci_stab_wait:000000000000006c .L0 
C:\Users\stapi\AppData\Local\Temp\cc07N9HF.s:948    .text.rcu_osci_stab_wait:000000000000006c .L0 
C:\Users\stapi\AppData\Local\Temp\cc07N9HF.s:952    .text.rcu_osci_stab_wait:000000000000006e .L0 
C:\Users\stapi\AppData\Local\Temp\cc07N9HF.s:955    .text.rcu_osci_stab_wait:0000000000000076 .L0 
C:\Users\stapi\AppData\Local\Temp\cc07N9HF.s:958    .text.rcu_osci_stab_wait:000000000000007a .L0 
C:\Users\stapi\AppData\Local\Temp\cc07N9HF.s:959    .text.rcu_osci_stab_wait:000000000000007a .L0 
C:\Users\stapi\AppData\Local\Temp\cc07N9HF.s:963    .text.rcu_osci_stab_wait:000000000000007c .L0 
C:\Users\stapi\AppData\Local\Temp\cc07N9HF.s:966    .text.rcu_osci_stab_wait:0000000000000082 .L0 
C:\Users\stapi\AppData\Local\Temp\cc07N9HF.s:970    .text.rcu_osci_stab_wait:0000000000000086 .L0 
C:\Users\stapi\AppData\Local\Temp\cc07N9HF.s:971    .text.rcu_osci_stab_wait:0000000000000086 .L0 
C:\Users\stapi\AppData\Local\Temp\cc07N9HF.s:975    .text.rcu_osci_stab_wait:0000000000000090 .L0 
C:\Users\stapi\AppData\Local\Temp\cc07N9HF.s:976    .text.rcu_osci_stab_wait:0000000000000090 .L0 
C:\Users\stapi\AppData\Local\Temp\cc07N9HF.s:978    .text.rcu_osci_stab_wait:0000000000000092 .L0 
C:\Users\stapi\AppData\Local\Temp\cc07N9HF.s:984    .text.rcu_osci_stab_wait:0000000000000096 .L0 
C:\Users\stapi\AppData\Local\Temp\cc07N9HF.s:985    .text.rcu_osci_stab_wait:0000000000000096 .L0 
C:\Users\stapi\AppData\Local\Temp\cc07N9HF.s:992    .text.rcu_osci_stab_wait:000000000000009e .L0 
C:\Users\stapi\AppData\Local\Temp\cc07N9HF.s:996    .text.rcu_osci_stab_wait:00000000000000a2 .L0 
C:\Users\stapi\AppData\Local\Temp\cc07N9HF.s:997    .text.rcu_osci_stab_wait:00000000000000a2 .L0 
C:\Users\stapi\AppData\Local\Temp\cc07N9HF.s:1001   .text.rcu_osci_stab_wait:00000000000000ac .L0 
C:\Users\stapi\AppData\Local\Temp\cc07N9HF.s:1002   .text.rcu_osci_stab_wait:00000000000000ac .L0 
C:\Users\stapi\AppData\Local\Temp\cc07N9HF.s:1004   .text.rcu_osci_stab_wait:00000000000000ae .L0 
C:\Users\stapi\AppData\Local\Temp\cc07N9HF.s:1010   .text.rcu_osci_stab_wait:00000000000000b2 .L0 
C:\Users\stapi\AppData\Local\Temp\cc07N9HF.s:1011   .text.rcu_osci_stab_wait:00000000000000b2 .L0 
C:\Users\stapi\AppData\Local\Temp\cc07N9HF.s:1017   .text.rcu_osci_stab_wait:00000000000000b6 .L0 
C:\Users\stapi\AppData\Local\Temp\cc07N9HF.s:1022   .text.rcu_osci_stab_wait:00000000000000bc .L0 
C:\Users\stapi\AppData\Local\Temp\cc07N9HF.s:1023   .text.rcu_osci_stab_wait:00000000000000bc .L0 
C:\Users\stapi\AppData\Local\Temp\cc07N9HF.s:1027   .text.rcu_osci_stab_wait:00000000000000c6 .L0 
C:\Users\stapi\AppData\Local\Temp\cc07N9HF.s:1028   .text.rcu_osci_stab_wait:00000000000000c6 .L0 
C:\Users\stapi\AppData\Local\Temp\cc07N9HF.s:1030   .text.rcu_osci_stab_wait:00000000000000c8 .L0 
C:\Users\stapi\AppData\Local\Temp\cc07N9HF.s:1036   .text.rcu_osci_stab_wait:00000000000000cc .L0 
C:\Users\stapi\AppData\Local\Temp\cc07N9HF.s:1037   .text.rcu_osci_stab_wait:00000000000000cc .L0 
C:\Users\stapi\AppData\Local\Temp\cc07N9HF.s:1040   .text.rcu_osci_stab_wait:00000000000000d0 .L0 
C:\Users\stapi\AppData\Local\Temp\cc07N9HF.s:1047   .text.rcu_deinit:0000000000000000 rcu_deinit
C:\Users\stapi\AppData\Local\Temp\cc07N9HF.s:1050   .text.rcu_deinit:0000000000000000 .L0 
C:\Users\stapi\AppData\Local\Temp\cc07N9HF.s:1051   .text.rcu_deinit:0000000000000000 .L0 
C:\Users\stapi\AppData\Local\Temp\cc07N9HF.s:1052   .text.rcu_deinit:0000000000000008 .L0 
C:\Users\stapi\AppData\Local\Temp\cc07N9HF.s:1053   .text.rcu_deinit:0000000000000008 .L0 
C:\Users\stapi\AppData\Local\Temp\cc07N9HF.s:1054   .text.rcu_deinit:0000000000000008 .L0 
C:\Users\stapi\AppData\Local\Temp\cc07N9HF.s:1055   .text.rcu_deinit:0000000000000008 .L0 
C:\Users\stapi\AppData\Local\Temp\cc07N9HF.s:1057   .text.rcu_deinit:0000000000000008 .L0 
C:\Users\stapi\AppData\Local\Temp\cc07N9HF.s:1058   .text.rcu_deinit:0000000000000008 .L0 
C:\Users\stapi\AppData\Local\Temp\cc07N9HF.s:1062   .text.rcu_deinit:0000000000000012 .L0 
C:\Users\stapi\AppData\Local\Temp\cc07N9HF.s:1064   .text.rcu_deinit:0000000000000014 .L0 
C:\Users\stapi\AppData\Local\Temp\cc07N9HF.s:1067   .text.rcu_deinit:000000000000001a .L0 
C:\Users\stapi\AppData\Local\Temp\cc07N9HF.s:1070   .text.rcu_deinit:0000000000000022 .L0 
C:\Users\stapi\AppData\Local\Temp\cc07N9HF.s:1071   .text.rcu_deinit:0000000000000022 .L0 
C:\Users\stapi\AppData\Local\Temp\cc07N9HF.s:1073   .text.rcu_deinit:0000000000000024 .L0 
C:\Users\stapi\AppData\Local\Temp\cc07N9HF.s:1076   .text.rcu_deinit:000000000000002c .L0 
C:\Users\stapi\AppData\Local\Temp\cc07N9HF.s:1079   .text.rcu_deinit:0000000000000030 .L0 
C:\Users\stapi\AppData\Local\Temp\cc07N9HF.s:1080   .text.rcu_deinit:0000000000000030 .L0 
C:\Users\stapi\AppData\Local\Temp\cc07N9HF.s:1084   .text.rcu_deinit:0000000000000036 .L0 
C:\Users\stapi\AppData\Local\Temp\cc07N9HF.s:1085   .text.rcu_deinit:0000000000000036 .L0 
C:\Users\stapi\AppData\Local\Temp\cc07N9HF.s:1091   .text.rcu_deinit:0000000000000042 .L0 
C:\Users\stapi\AppData\Local\Temp\cc07N9HF.s:1092   .text.rcu_deinit:0000000000000042 .L0 
C:\Users\stapi\AppData\Local\Temp\cc07N9HF.s:1094   .text.rcu_deinit:0000000000000046 .L0 
C:\Users\stapi\AppData\Local\Temp\cc07N9HF.s:1095   .text.rcu_deinit:0000000000000046 .L0 
C:\Users\stapi\AppData\Local\Temp\cc07N9HF.s:1097   .text.rcu_deinit:000000000000004a .L0 
C:\Users\stapi\AppData\Local\Temp\cc07N9HF.s:1098   .text.rcu_deinit:000000000000004a .L0 
C:\Users\stapi\AppData\Local\Temp\cc07N9HF.s:1100   .text.rcu_deinit:000000000000004e .L0 
C:\Users\stapi\AppData\Local\Temp\cc07N9HF.s:1101   .text.rcu_deinit:000000000000004e .L0 
C:\Users\stapi\AppData\Local\Temp\cc07N9HF.s:1103   .text.rcu_deinit:0000000000000052 .L0 
C:\Users\stapi\AppData\Local\Temp\cc07N9HF.s:1104   .text.rcu_deinit:0000000000000052 .L0 
C:\Users\stapi\AppData\Local\Temp\cc07N9HF.s:1106   .text.rcu_deinit:0000000000000056 .L0 
C:\Users\stapi\AppData\Local\Temp\cc07N9HF.s:1107   .text.rcu_deinit:0000000000000056 .L0 
C:\Users\stapi\AppData\Local\Temp\cc07N9HF.s:1109   .text.rcu_deinit:000000000000005a .L0 
C:\Users\stapi\AppData\Local\Temp\cc07N9HF.s:1110   .text.rcu_deinit:0000000000000062 .L0 
C:\Users\stapi\AppData\Local\Temp\cc07N9HF.s:1111   .text.rcu_deinit:0000000000000062 .L0 
C:\Users\stapi\AppData\Local\Temp\cc07N9HF.s:1112   .text.rcu_deinit:0000000000000062 .L0 
C:\Users\stapi\AppData\Local\Temp\cc07N9HF.s:1113   .text.rcu_deinit:0000000000000062 .L0 
C:\Users\stapi\AppData\Local\Temp\cc07N9HF.s:1114   .text.rcu_deinit:0000000000000062 .L0 
C:\Users\stapi\AppData\Local\Temp\cc07N9HF.s:1121   .text.rcu_osci_on:0000000000000000 rcu_osci_on
C:\Users\stapi\AppData\Local\Temp\cc07N9HF.s:1123   .text.rcu_osci_on:0000000000000000 .L0 
C:\Users\stapi\AppData\Local\Temp\cc07N9HF.s:1125   .text.rcu_osci_on:0000000000000008 .L0 
C:\Users\stapi\AppData\Local\Temp\cc07N9HF.s:1132   .text.rcu_osci_off:0000000000000000 rcu_osci_off
C:\Users\stapi\AppData\Local\Temp\cc07N9HF.s:1134   .text.rcu_osci_off:0000000000000000 .L0 
C:\Users\stapi\AppData\Local\Temp\cc07N9HF.s:1136   .text.rcu_osci_off:0000000000000008 .L0 
C:\Users\stapi\AppData\Local\Temp\cc07N9HF.s:1143   .text.rcu_osci_bypass_mode_enable:0000000000000000 rcu_osci_bypass_mode_enable
C:\Users\stapi\AppData\Local\Temp\cc07N9HF.s:1146   .text.rcu_osci_bypass_mode_enable:0000000000000000 .L0 
C:\Users\stapi\AppData\Local\Temp\cc07N9HF.s:1148   .text.rcu_osci_bypass_mode_enable:0000000000000000 .L0 
C:\Users\stapi\AppData\Local\Temp\cc07N9HF.s:1149   .text.rcu_osci_bypass_mode_enable:0000000000000000 .L0 
C:\Users\stapi\AppData\Local\Temp\cc07N9HF.s:1150   .text.rcu_osci_bypass_mode_enable:0000000000000000 .L0 
C:\Users\stapi\AppData\Local\Temp\cc07N9HF.s:1158   .text.rcu_osci_bypass_mode_enable:0000000000000012 .L0 
C:\Users\stapi\AppData\Local\Temp\cc07N9HF.s:1159   .text.rcu_osci_bypass_mode_enable:0000000000000012 .L0 
C:\Users\stapi\AppData\Local\Temp\cc07N9HF.s:1164   .text.rcu_osci_bypass_mode_enable:000000000000001c .L0 
C:\Users\stapi\AppData\Local\Temp\cc07N9HF.s:1165   .text.rcu_osci_bypass_mode_enable:000000000000001c .L0 
C:\Users\stapi\AppData\Local\Temp\cc07N9HF.s:1167   .text.rcu_osci_bypass_mode_enable:000000000000001e .L0 
C:\Users\stapi\AppData\Local\Temp\cc07N9HF.s:1170   .text.rcu_osci_bypass_mode_enable:0000000000000022 .L0 
C:\Users\stapi\AppData\Local\Temp\cc07N9HF.s:1173   .text.rcu_osci_bypass_mode_enable:0000000000000028 .L0 
C:\Users\stapi\AppData\Local\Temp\cc07N9HF.s:1174   .text.rcu_osci_bypass_mode_enable:0000000000000028 .L0 
C:\Users\stapi\AppData\Local\Temp\cc07N9HF.s:1176   .text.rcu_osci_bypass_mode_enable:000000000000002a .L0 
C:\Users\stapi\AppData\Local\Temp\cc07N9HF.s:1179   .text.rcu_osci_bypass_mode_enable:000000000000002c .L0 
C:\Users\stapi\AppData\Local\Temp\cc07N9HF.s:1180   .text.rcu_osci_bypass_mode_enable:000000000000002c .L0 
C:\Users\stapi\AppData\Local\Temp\cc07N9HF.s:1185   .text.rcu_osci_bypass_mode_enable:0000000000000036 .L0 
C:\Users\stapi\AppData\Local\Temp\cc07N9HF.s:1186   .text.rcu_osci_bypass_mode_enable:0000000000000036 .L0 
C:\Users\stapi\AppData\Local\Temp\cc07N9HF.s:1188   .text.rcu_osci_bypass_mode_enable:0000000000000038 .L0 
C:\Users\stapi\AppData\Local\Temp\cc07N9HF.s:1191   .text.rcu_osci_bypass_mode_enable:000000000000003c .L0 
C:\Users\stapi\AppData\Local\Temp\cc07N9HF.s:1194   .text.rcu_osci_bypass_mode_enable:0000000000000040 .L0 
C:\Users\stapi\AppData\Local\Temp\cc07N9HF.s:1195   .text.rcu_osci_bypass_mode_enable:0000000000000040 .L0 
C:\Users\stapi\AppData\Local\Temp\cc07N9HF.s:1197   .text.rcu_osci_bypass_mode_enable:0000000000000042 .L0 
C:\Users\stapi\AppData\Local\Temp\cc07N9HF.s:1198   .text.rcu_osci_bypass_mode_enable:0000000000000042 .L0 
C:\Users\stapi\AppData\Local\Temp\cc07N9HF.s:1199   .text.rcu_osci_bypass_mode_enable:0000000000000044 .L0 
C:\Users\stapi\AppData\Local\Temp\cc07N9HF.s:1206   .text.rcu_osci_bypass_mode_disable:0000000000000000 rcu_osci_bypass_mode_disable
C:\Users\stapi\AppData\Local\Temp\cc07N9HF.s:1209   .text.rcu_osci_bypass_mode_disable:0000000000000000 .L0 
C:\Users\stapi\AppData\Local\Temp\cc07N9HF.s:1211   .text.rcu_osci_bypass_mode_disable:0000000000000000 .L0 
C:\Users\stapi\AppData\Local\Temp\cc07N9HF.s:1212   .text.rcu_osci_bypass_mode_disable:0000000000000000 .L0 
C:\Users\stapi\AppData\Local\Temp\cc07N9HF.s:1213   .text.rcu_osci_bypass_mode_disable:0000000000000000 .L0 
C:\Users\stapi\AppData\Local\Temp\cc07N9HF.s:1221   .text.rcu_osci_bypass_mode_disable:0000000000000012 .L0 
C:\Users\stapi\AppData\Local\Temp\cc07N9HF.s:1222   .text.rcu_osci_bypass_mode_disable:0000000000000012 .L0 
C:\Users\stapi\AppData\Local\Temp\cc07N9HF.s:1227   .text.rcu_osci_bypass_mode_disable:000000000000001c .L0 
C:\Users\stapi\AppData\Local\Temp\cc07N9HF.s:1228   .text.rcu_osci_bypass_mode_disable:000000000000001c .L0 
C:\Users\stapi\AppData\Local\Temp\cc07N9HF.s:1230   .text.rcu_osci_bypass_mode_disable:000000000000001e .L0 
C:\Users\stapi\AppData\Local\Temp\cc07N9HF.s:1233   .text.rcu_osci_bypass_mode_disable:0000000000000022 .L0 
C:\Users\stapi\AppData\Local\Temp\cc07N9HF.s:1236   .text.rcu_osci_bypass_mode_disable:0000000000000028 .L0 
C:\Users\stapi\AppData\Local\Temp\cc07N9HF.s:1237   .text.rcu_osci_bypass_mode_disable:0000000000000028 .L0 
C:\Users\stapi\AppData\Local\Temp\cc07N9HF.s:1239   .text.rcu_osci_bypass_mode_disable:000000000000002a .L0 
C:\Users\stapi\AppData\Local\Temp\cc07N9HF.s:1242   .text.rcu_osci_bypass_mode_disable:000000000000002c .L0 
C:\Users\stapi\AppData\Local\Temp\cc07N9HF.s:1243   .text.rcu_osci_bypass_mode_disable:000000000000002c .L0 
C:\Users\stapi\AppData\Local\Temp\cc07N9HF.s:1248   .text.rcu_osci_bypass_mode_disable:0000000000000036 .L0 
C:\Users\stapi\AppData\Local\Temp\cc07N9HF.s:1249   .text.rcu_osci_bypass_mode_disable:0000000000000036 .L0 
C:\Users\stapi\AppData\Local\Temp\cc07N9HF.s:1251   .text.rcu_osci_bypass_mode_disable:0000000000000038 .L0 
C:\Users\stapi\AppData\Local\Temp\cc07N9HF.s:1254   .text.rcu_osci_bypass_mode_disable:000000000000003a .L0 
C:\Users\stapi\AppData\Local\Temp\cc07N9HF.s:1257   .text.rcu_osci_bypass_mode_disable:000000000000003e .L0 
C:\Users\stapi\AppData\Local\Temp\cc07N9HF.s:1258   .text.rcu_osci_bypass_mode_disable:000000000000003e .L0 
C:\Users\stapi\AppData\Local\Temp\cc07N9HF.s:1260   .text.rcu_osci_bypass_mode_disable:0000000000000040 .L0 
C:\Users\stapi\AppData\Local\Temp\cc07N9HF.s:1261   .text.rcu_osci_bypass_mode_disable:0000000000000040 .L0 
C:\Users\stapi\AppData\Local\Temp\cc07N9HF.s:1262   .text.rcu_osci_bypass_mode_disable:0000000000000042 .L0 
C:\Users\stapi\AppData\Local\Temp\cc07N9HF.s:1269   .text.rcu_rf_hxtal_clock_monitor_enable:0000000000000000 rcu_rf_hxtal_clock_monitor_enable
C:\Users\stapi\AppData\Local\Temp\cc07N9HF.s:1272   .text.rcu_rf_hxtal_clock_monitor_enable:0000000000000000 .L0 
C:\Users\stapi\AppData\Local\Temp\cc07N9HF.s:1273   .text.rcu_rf_hxtal_clock_monitor_enable:0000000000000000 .L0 
C:\Users\stapi\AppData\Local\Temp\cc07N9HF.s:1274   .text.rcu_rf_hxtal_clock_monitor_enable:0000000000000000 .L0 
C:\Users\stapi\AppData\Local\Temp\cc07N9HF.s:1275   .text.rcu_rf_hxtal_clock_monitor_enable:0000000000000000 .L0 
C:\Users\stapi\AppData\Local\Temp\cc07N9HF.s:1280   .text.rcu_rf_hxtal_clock_monitor_enable:0000000000000010 .L0 
C:\Users\stapi\AppData\Local\Temp\cc07N9HF.s:1281   .text.rcu_rf_hxtal_clock_monitor_enable:0000000000000012 .L0 
C:\Users\stapi\AppData\Local\Temp\cc07N9HF.s:1288   .text.rcu_rf_hxtal_clock_monitor_disable:0000000000000000 rcu_rf_hxtal_clock_monitor_disable
C:\Users\stapi\AppData\Local\Temp\cc07N9HF.s:1291   .text.rcu_rf_hxtal_clock_monitor_disable:0000000000000000 .L0 
C:\Users\stapi\AppData\Local\Temp\cc07N9HF.s:1292   .text.rcu_rf_hxtal_clock_monitor_disable:0000000000000000 .L0 
C:\Users\stapi\AppData\Local\Temp\cc07N9HF.s:1293   .text.rcu_rf_hxtal_clock_monitor_disable:0000000000000000 .L0 
C:\Users\stapi\AppData\Local\Temp\cc07N9HF.s:1294   .text.rcu_rf_hxtal_clock_monitor_disable:0000000000000000 .L0 
C:\Users\stapi\AppData\Local\Temp\cc07N9HF.s:1299   .text.rcu_rf_hxtal_clock_monitor_disable:0000000000000010 .L0 
C:\Users\stapi\AppData\Local\Temp\cc07N9HF.s:1300   .text.rcu_rf_hxtal_clock_monitor_disable:0000000000000012 .L0 
C:\Users\stapi\AppData\Local\Temp\cc07N9HF.s:1307   .text.rcu_irc16m_adjust_value_set:0000000000000000 rcu_irc16m_adjust_value_set
C:\Users\stapi\AppData\Local\Temp\cc07N9HF.s:1310   .text.rcu_irc16m_adjust_value_set:0000000000000000 .L0 
C:\Users\stapi\AppData\Local\Temp\cc07N9HF.s:1312   .text.rcu_irc16m_adjust_value_set:0000000000000000 .L0 
C:\Users\stapi\AppData\Local\Temp\cc07N9HF.s:1313   .text.rcu_irc16m_adjust_value_set:0000000000000000 .L0 
C:\Users\stapi\AppData\Local\Temp\cc07N9HF.s:1314   .text.rcu_irc16m_adjust_value_set:0000000000000000 .L0 
C:\Users\stapi\AppData\Local\Temp\cc07N9HF.s:1315   .text.rcu_irc16m_adjust_value_set:0000000000000000 .L0 
C:\Users\stapi\AppData\Local\Temp\cc07N9HF.s:1319   .text.rcu_irc16m_adjust_value_set:0000000000000008 .L0 
C:\Users\stapi\AppData\Local\Temp\cc07N9HF.s:1320   .text.rcu_irc16m_adjust_value_set:0000000000000008 .L0 
C:\Users\stapi\AppData\Local\Temp\cc07N9HF.s:1321   .text.rcu_irc16m_adjust_value_set:0000000000000008 .L0 
C:\Users\stapi\AppData\Local\Temp\cc07N9HF.s:1325   .text.rcu_irc16m_adjust_value_set:000000000000000e .L0 
C:\Users\stapi\AppData\Local\Temp\cc07N9HF.s:1328   .text.rcu_irc16m_adjust_value_set:0000000000000012 .L0 
C:\Users\stapi\AppData\Local\Temp\cc07N9HF.s:1330   .text.rcu_irc16m_adjust_value_set:0000000000000014 .L0 
C:\Users\stapi\AppData\Local\Temp\cc07N9HF.s:1332   .text.rcu_irc16m_adjust_value_set:0000000000000018 .L0 
C:\Users\stapi\AppData\Local\Temp\cc07N9HF.s:1333   .text.rcu_irc16m_adjust_value_set:000000000000001a .L0 
C:\Users\stapi\AppData\Local\Temp\cc07N9HF.s:1340   .text.rcu_voltage_key_unlock:0000000000000000 rcu_voltage_key_unlock
C:\Users\stapi\AppData\Local\Temp\cc07N9HF.s:1343   .text.rcu_voltage_key_unlock:0000000000000000 .L0 
C:\Users\stapi\AppData\Local\Temp\cc07N9HF.s:1344   .text.rcu_voltage_key_unlock:0000000000000000 .L0 
C:\Users\stapi\AppData\Local\Temp\cc07N9HF.s:1345   .text.rcu_voltage_key_unlock:0000000000000000 .L0 
C:\Users\stapi\AppData\Local\Temp\cc07N9HF.s:1346   .text.rcu_voltage_key_unlock:0000000000000000 .L0 
C:\Users\stapi\AppData\Local\Temp\cc07N9HF.s:1351   .text.rcu_voltage_key_unlock:0000000000000010 .L0 
C:\Users\stapi\AppData\Local\Temp\cc07N9HF.s:1352   .text.rcu_voltage_key_unlock:0000000000000012 .L0 
C:\Users\stapi\AppData\Local\Temp\cc07N9HF.s:1359   .text.rcu_deepsleep_voltage_set:0000000000000000 rcu_deepsleep_voltage_set
C:\Users\stapi\AppData\Local\Temp\cc07N9HF.s:1362   .text.rcu_deepsleep_voltage_set:0000000000000000 .L0 
C:\Users\stapi\AppData\Local\Temp\cc07N9HF.s:1364   .text.rcu_deepsleep_voltage_set:0000000000000000 .L0 
C:\Users\stapi\AppData\Local\Temp\cc07N9HF.s:1365   .text.rcu_deepsleep_voltage_set:0000000000000000 .L0 
C:\Users\stapi\AppData\Local\Temp\cc07N9HF.s:1366   .text.rcu_deepsleep_voltage_set:0000000000000000 .L0 
C:\Users\stapi\AppData\Local\Temp\cc07N9HF.s:1369   .text.rcu_deepsleep_voltage_set:0000000000000002 .L0 
C:\Users\stapi\AppData\Local\Temp\cc07N9HF.s:1370   .text.rcu_deepsleep_voltage_set:0000000000000002 .L0 
C:\Users\stapi\AppData\Local\Temp\cc07N9HF.s:1373   .text.rcu_deepsleep_voltage_set:000000000000000a .L0 
C:\Users\stapi\AppData\Local\Temp\cc07N9HF.s:1374   .text.rcu_deepsleep_voltage_set:000000000000000c .L0 
C:\Users\stapi\AppData\Local\Temp\cc07N9HF.s:1381   .text.rcu_clock_freq_get:0000000000000000 rcu_clock_freq_get
C:\Users\stapi\AppData\Local\Temp\cc07N9HF.s:1384   .text.rcu_clock_freq_get:0000000000000000 .L0 
C:\Users\stapi\AppData\Local\Temp\cc07N9HF.s:1386   .text.rcu_clock_freq_get:0000000000000000 .L0 
C:\Users\stapi\AppData\Local\Temp\cc07N9HF.s:1387   .text.rcu_clock_freq_get:0000000000000008 .L0 
C:\Users\stapi\AppData\Local\Temp\cc07N9HF.s:1388   .text.rcu_clock_freq_get:0000000000000008 .L0 
C:\Users\stapi\AppData\Local\Temp\cc07N9HF.s:1389   .text.rcu_clock_freq_get:0000000000000008 .L0 
C:\Users\stapi\AppData\Local\Temp\cc07N9HF.s:1390   .text.rcu_clock_freq_get:0000000000000008 .L0 
C:\Users\stapi\AppData\Local\Temp\cc07N9HF.s:1393   .text.rcu_clock_freq_get:0000000000000008 .L0 
C:\Users\stapi\AppData\Local\Temp\cc07N9HF.s:1394   .text.rcu_clock_freq_get:0000000000000008 .L0 
C:\Users\stapi\AppData\Local\Temp\cc07N9HF.s:1395   .text.rcu_clock_freq_get:0000000000000008 .L0 
C:\Users\stapi\AppData\Local\Temp\cc07N9HF.s:1396   .text.rcu_clock_freq_get:0000000000000008 .L0 
C:\Users\stapi\AppData\Local\Temp\cc07N9HF.s:1397   .text.rcu_clock_freq_get:0000000000000008 .L0 
C:\Users\stapi\AppData\Local\Temp\cc07N9HF.s:1398   .text.rcu_clock_freq_get:0000000000000008 .L0 
C:\Users\stapi\AppData\Local\Temp\cc07N9HF.s:1399   .text.rcu_clock_freq_get:000000000000000a .L0 
C:\Users\stapi\AppData\Local\Temp\cc07N9HF.s:1401   .text.rcu_clock_freq_get:000000000000000a .L0 
C:\Users\stapi\AppData\Local\Temp\cc07N9HF.s:1406   .text.rcu_clock_freq_get:0000000000000018 .L0 
C:\Users\stapi\AppData\Local\Temp\cc07N9HF.s:1408   .text.rcu_clock_freq_get:000000000000001a .L0 
C:\Users\stapi\AppData\Local\Temp\cc07N9HF.s:1413   .text.rcu_clock_freq_get:0000000000000024 .L0 
C:\Users\stapi\AppData\Local\Temp\cc07N9HF.s:1414   .text.rcu_clock_freq_get:0000000000000024 .L0 
C:\Users\stapi\AppData\Local\Temp\cc07N9HF.s:1417   .text.rcu_clock_freq_get:000000000000002c .L0 
C:\Users\stapi\AppData\Local\Temp\cc07N9HF.s:1421   .text.rcu_clock_freq_get:0000000000000034 .L0 
C:\Users\stapi\AppData\Local\Temp\cc07N9HF.s:1423   .text.rcu_clock_freq_get:0000000000000036 .L0 
C:\Users\stapi\AppData\Local\Temp\cc07N9HF.s:1424   .text.rcu_clock_freq_get:0000000000000036 .L0 
C:\Users\stapi\AppData\Local\Temp\cc07N9HF.s:1426   .text.rcu_clock_freq_get:0000000000000038 .L0 
C:\Users\stapi\AppData\Local\Temp\cc07N9HF.s:1427   .text.rcu_clock_freq_get:0000000000000038 .L0 
C:\Users\stapi\AppData\Local\Temp\cc07N9HF.s:1428   .text.rcu_clock_freq_get:0000000000000038 .L0 
C:\Users\stapi\AppData\Local\Temp\cc07N9HF.s:1430   .text.rcu_clock_freq_get:000000000000003a .L0 
C:\Users\stapi\AppData\Local\Temp\cc07N9HF.s:1432   .text.rcu_clock_freq_get:000000000000003c .L0 
C:\Users\stapi\AppData\Local\Temp\cc07N9HF.s:1435   .text.rcu_clock_freq_get:0000000000000044 .L0 
C:\Users\stapi\AppData\Local\Temp\cc07N9HF.s:1436   .text.rcu_clock_freq_get:0000000000000044 .L0 
C:\Users\stapi\AppData\Local\Temp\cc07N9HF.s:1439   .text.rcu_clock_freq_get:000000000000004c .L0 
C:\Users\stapi\AppData\Local\Temp\cc07N9HF.s:1441   .text.rcu_clock_freq_get:000000000000004e .L0 
C:\Users\stapi\AppData\Local\Temp\cc07N9HF.s:1443   .text.rcu_clock_freq_get:0000000000000050 .L0 
C:\Users\stapi\AppData\Local\Temp\cc07N9HF.s:1446   .text.rcu_clock_freq_get:0000000000000052 .L0 
C:\Users\stapi\AppData\Local\Temp\cc07N9HF.s:1450   .text.rcu_clock_freq_get:000000000000005c .L0 
C:\Users\stapi\AppData\Local\Temp\cc07N9HF.s:1451   .text.rcu_clock_freq_get:000000000000005c .L0 
C:\Users\stapi\AppData\Local\Temp\cc07N9HF.s:1454   .text.rcu_clock_freq_get:0000000000000060 .L0 
C:\Users\stapi\AppData\Local\Temp\cc07N9HF.s:1455   .text.rcu_clock_freq_get:0000000000000060 .L0 
C:\Users\stapi\AppData\Local\Temp\cc07N9HF.s:1458   .text.rcu_clock_freq_get:0000000000000064 .L0 
C:\Users\stapi\AppData\Local\Temp\cc07N9HF.s:1459   .text.rcu_clock_freq_get:0000000000000064 .L0 
C:\Users\stapi\AppData\Local\Temp\cc07N9HF.s:1461   .text.rcu_clock_freq_get:0000000000000066 .L0 
C:\Users\stapi\AppData\Local\Temp\cc07N9HF.s:1464   .text.rcu_clock_freq_get:0000000000000068 .L0 
C:\Users\stapi\AppData\Local\Temp\cc07N9HF.s:1467   .text.rcu_clock_freq_get:000000000000006c .L0 
C:\Users\stapi\AppData\Local\Temp\cc07N9HF.s:1469   .text.rcu_clock_freq_get:0000000000000070 .L0 
C:\Users\stapi\AppData\Local\Temp\cc07N9HF.s:1472   .text.rcu_clock_freq_get:0000000000000072 .L0 
C:\Users\stapi\AppData\Local\Temp\cc07N9HF.s:1475   .text.rcu_clock_freq_get:0000000000000074 .L0 
C:\Users\stapi\AppData\Local\Temp\cc07N9HF.s:1479   .text.rcu_clock_freq_get:0000000000000078 .L0 
C:\Users\stapi\AppData\Local\Temp\cc07N9HF.s:1480   .text.rcu_clock_freq_get:0000000000000078 .L0 
C:\Users\stapi\AppData\Local\Temp\cc07N9HF.s:1481   .text.rcu_clock_freq_get:0000000000000078 .L0 
C:\Users\stapi\AppData\Local\Temp\cc07N9HF.s:1485   .text.rcu_clock_freq_get:0000000000000080 .L0 
C:\Users\stapi\AppData\Local\Temp\cc07N9HF.s:1486   .text.rcu_clock_freq_get:0000000000000080 .L0 
C:\Users\stapi\AppData\Local\Temp\cc07N9HF.s:1487   .text.rcu_clock_freq_get:0000000000000080 .L0 
C:\Users\stapi\AppData\Local\Temp\cc07N9HF.s:1490   .text.rcu_clock_freq_get:0000000000000082 .L0 
C:\Users\stapi\AppData\Local\Temp\cc07N9HF.s:1492   .text.rcu_clock_freq_get:0000000000000084 .L0 
C:\Users\stapi\AppData\Local\Temp\cc07N9HF.s:1495   .text.rcu_clock_freq_get:0000000000000086 .L0 
C:\Users\stapi\AppData\Local\Temp\cc07N9HF.s:1498   .text.rcu_clock_freq_get:0000000000000088 .L0 
C:\Users\stapi\AppData\Local\Temp\cc07N9HF.s:1501   .text.rcu_clock_freq_get:000000000000008a .L0 
C:\Users\stapi\AppData\Local\Temp\cc07N9HF.s:1503   .text.rcu_clock_freq_get:000000000000008e .L0 
C:\Users\stapi\AppData\Local\Temp\cc07N9HF.s:1505   .text.rcu_clock_freq_get:0000000000000092 .L0 
C:\Users\stapi\AppData\Local\Temp\cc07N9HF.s:1508   .text.rcu_clock_freq_get:0000000000000096 .L0 
C:\Users\stapi\AppData\Local\Temp\cc07N9HF.s:1509   .text.rcu_clock_freq_get:0000000000000096 .L0 
C:\Users\stapi\AppData\Local\Temp\cc07N9HF.s:1510   .text.rcu_clock_freq_get:0000000000000096 .L0 
C:\Users\stapi\AppData\Local\Temp\cc07N9HF.s:1511   .text.rcu_clock_freq_get:0000000000000096 .L0 
C:\Users\stapi\AppData\Local\Temp\cc07N9HF.s:1514   .text.rcu_clock_freq_get:0000000000000098 .L0 
C:\Users\stapi\AppData\Local\Temp\cc07N9HF.s:1517   .text.rcu_clock_freq_get:000000000000009a .L0 
C:\Users\stapi\AppData\Local\Temp\cc07N9HF.s:1520   .text.rcu_clock_freq_get:000000000000009c .L0 
C:\Users\stapi\AppData\Local\Temp\cc07N9HF.s:1522   .text.rcu_clock_freq_get:00000000000000a0 .L0 
C:\Users\stapi\AppData\Local\Temp\cc07N9HF.s:1524   .text.rcu_clock_freq_get:00000000000000a4 .L0 
C:\Users\stapi\AppData\Local\Temp\cc07N9HF.s:1527   .text.rcu_clock_freq_get:00000000000000a8 .L0 
C:\Users\stapi\AppData\Local\Temp\cc07N9HF.s:1528   .text.rcu_clock_freq_get:00000000000000a8 .L0 
C:\Users\stapi\AppData\Local\Temp\cc07N9HF.s:1529   .text.rcu_clock_freq_get:00000000000000a8 .L0 
C:\Users\stapi\AppData\Local\Temp\cc07N9HF.s:1532   .text.rcu_clock_freq_get:00000000000000aa .L0 
C:\Users\stapi\AppData\Local\Temp\cc07N9HF.s:1535   .text.rcu_clock_freq_get:00000000000000ac .L0 
C:\Users\stapi\AppData\Local\Temp\cc07N9HF.s:1540   .text.rcu_clock_freq_get:00000000000000b2 .L0 
C:\Users\stapi\AppData\Local\Temp\cc07N9HF.s:1541   .text.rcu_clock_freq_get:00000000000000b2 .L0 
C:\Users\stapi\AppData\Local\Temp\cc07N9HF.s:1563   .text.rcu_clock_freq_get:00000000000000c8 .L0 
C:\Users\stapi\AppData\Local\Temp\cc07N9HF.s:1570   .text.rcu_clock_freq_get:00000000000000d2 .L0 
C:\Users\stapi\AppData\Local\Temp\cc07N9HF.s:1577   .text.rcu_clock_freq_get:00000000000000dc .L0 
C:\Users\stapi\AppData\Local\Temp\cc07N9HF.s:1581   .text.rcu_clock_freq_get:00000000000000de .L0 
C:\Users\stapi\AppData\Local\Temp\cc07N9HF.s:1582   .text.rcu_clock_freq_get:00000000000000e0 .L0 
C:\Users\stapi\AppData\Local\Temp\cc07N9HF.s:1583   .text.rcu_clock_freq_get:00000000000000e0 .L0 
C:\Users\stapi\AppData\Local\Temp\cc07N9HF.s:1585   .text.rcu_clock_freq_get:00000000000000e8 .L0 
C:\Users\stapi\AppData\Local\Temp\cc07N9HF.s:1586   .text.rcu_clock_freq_get:00000000000000e8 .L0 
C:\Users\stapi\AppData\Local\Temp\cc07N9HF.s:1587   .text.rcu_clock_freq_get:00000000000000e8 .L0 
C:\Users\stapi\AppData\Local\Temp\cc07N9HF.s:1588   .text.rcu_clock_freq_get:00000000000000e8 .L0 
C:\Users\stapi\AppData\Local\Temp\cc07N9HF.s:1591   .text.rcu_clock_freq_get:00000000000000e8 .L0 
C:\Users\stapi\AppData\Local\Temp\cc07N9HF.s:1593   .text.rcu_clock_freq_get:00000000000000e8 .L0 
C:\Users\stapi\AppData\Local\Temp\cc07N9HF.s:1594   .text.rcu_clock_freq_get:00000000000000e8 .L0 
C:\Users\stapi\AppData\Local\Temp\cc07N9HF.s:1595   .text.rcu_clock_freq_get:00000000000000e8 .L0 
C:\Users\stapi\AppData\Local\Temp\cc07N9HF.s:1598   .text.rcu_clock_freq_get:00000000000000ea .L0 
C:\Users\stapi\AppData\Local\Temp\cc07N9HF.s:1602   .text.rcu_clock_freq_get:00000000000000ec .L0 
C:\Users\stapi\AppData\Local\Temp\cc07N9HF.s:1605   .text.rcu_clock_freq_get:00000000000000f0 .L0 
C:\Users\stapi\AppData\Local\Temp\cc07N9HF.s:1606   .text.rcu_clock_freq_get:00000000000000f0 .L0 
C:\Users\stapi\AppData\Local\Temp\cc07N9HF.s:1610   .text.rcu_clock_freq_get:00000000000000f2 .L0 
C:\Users\stapi\AppData\Local\Temp\cc07N9HF.s:1611   .text.rcu_clock_freq_get:00000000000000f2 .L0 
C:\Users\stapi\AppData\Local\Temp\cc07N9HF.s:1616   .text.rcu_clock_freq_get:00000000000000fa .L0 
C:\Users\stapi\AppData\Local\Temp\cc07N9HF.s:1619   .text.rcu_clock_freq_get:0000000000000100 .L0 
C:\Users\stapi\AppData\Local\Temp\cc07N9HF.s:1621   .text.rcu_clock_freq_get:0000000000000102 .L0 
C:\Users\stapi\AppData\Local\Temp\cc07N9HF.s:1622   .text.rcu_clock_freq_get:0000000000000102 .L0 
C:\Users\stapi\AppData\Local\Temp\cc07N9HF.s:1624   .text.rcu_clock_freq_get:0000000000000106 .L0 
C:\Users\stapi\AppData\Local\Temp\cc07N9HF.s:1626   .text.rcu_clock_freq_get:000000000000010a .L0 
C:\Users\stapi\AppData\Local\Temp\cc07N9HF.s:1629   .text.rcu_clock_freq_get:000000000000010c .L0 
C:\Users\stapi\AppData\Local\Temp\cc07N9HF.s:1631   .text.rcu_clock_freq_get:000000000000010e .L0 
C:\Users\stapi\AppData\Local\Temp\cc07N9HF.s:1634   .text.rcu_clock_freq_get:0000000000000112 .L0 
C:\Users\stapi\AppData\Local\Temp\cc07N9HF.s:1635   .text.rcu_clock_freq_get:0000000000000112 .L0 
C:\Users\stapi\AppData\Local\Temp\cc07N9HF.s:1637   .text.rcu_clock_freq_get:0000000000000116 .L0 
C:\Users\stapi\AppData\Local\Temp\cc07N9HF.s:1639   .text.rcu_clock_freq_get:000000000000011a .L0 
C:\Users\stapi\AppData\Local\Temp\cc07N9HF.s:1642   .text.rcu_clock_freq_get:000000000000011c .L0 
C:\Users\stapi\AppData\Local\Temp\cc07N9HF.s:1644   .text.rcu_clock_freq_get:000000000000011e .L0 
C:\Users\stapi\AppData\Local\Temp\cc07N9HF.s:1646   .text.rcu_clock_freq_get:0000000000000122 .L0 
C:\Users\stapi\AppData\Local\Temp\cc07N9HF.s:1647   .text.rcu_clock_freq_get:0000000000000122 .L0 
C:\Users\stapi\AppData\Local\Temp\cc07N9HF.s:1649   .text.rcu_clock_freq_get:0000000000000126 .L0 
C:\Users\stapi\AppData\Local\Temp\cc07N9HF.s:1652   .text.rcu_clock_freq_get:0000000000000128 .L0 
C:\Users\stapi\AppData\Local\Temp\cc07N9HF.s:1654   .text.rcu_clock_freq_get:000000000000012a .L0 
C:\Users\stapi\AppData\Local\Temp\cc07N9HF.s:1656   .text.rcu_clock_freq_get:000000000000012e .L0 
C:\Users\stapi\AppData\Local\Temp\cc07N9HF.s:1662   .text.rcu_clock_freq_get:0000000000000138 .L0 
C:\Users\stapi\AppData\Local\Temp\cc07N9HF.s:1663   .text.rcu_clock_freq_get:0000000000000138 .L0 
C:\Users\stapi\AppData\Local\Temp\cc07N9HF.s:1668   .text.rcu_clock_freq_get:0000000000000140 .L0 
C:\Users\stapi\AppData\Local\Temp\cc07N9HF.s:1671   .text.rcu_clock_freq_get:0000000000000146 .L0 
C:\Users\stapi\AppData\Local\Temp\cc07N9HF.s:1673   .text.rcu_clock_freq_get:0000000000000148 .L0 
C:\Users\stapi\AppData\Local\Temp\cc07N9HF.s:1674   .text.rcu_clock_freq_get:0000000000000148 .L0 
C:\Users\stapi\AppData\Local\Temp\cc07N9HF.s:1676   .text.rcu_clock_freq_get:000000000000014c .L0 
C:\Users\stapi\AppData\Local\Temp\cc07N9HF.s:1678   .text.rcu_clock_freq_get:0000000000000150 .L0 
C:\Users\stapi\AppData\Local\Temp\cc07N9HF.s:1681   .text.rcu_clock_freq_get:0000000000000152 .L0 
C:\Users\stapi\AppData\Local\Temp\cc07N9HF.s:1683   .text.rcu_clock_freq_get:0000000000000154 .L0 
C:\Users\stapi\AppData\Local\Temp\cc07N9HF.s:1686   .text.rcu_clock_freq_get:0000000000000158 .L0 
C:\Users\stapi\AppData\Local\Temp\cc07N9HF.s:1687   .text.rcu_clock_freq_get:0000000000000158 .L0 
C:\Users\stapi\AppData\Local\Temp\cc07N9HF.s:1689   .text.rcu_clock_freq_get:000000000000015c .L0 
C:\Users\stapi\AppData\Local\Temp\cc07N9HF.s:1691   .text.rcu_clock_freq_get:000000000000015e .L0 
C:\Users\stapi\AppData\Local\Temp\cc07N9HF.s:1696   .text.rcu_clock_freq_get:0000000000000164 .L0 
C:\Users\stapi\AppData\Local\Temp\cc07N9HF.s:1699   .text.rcu_clock_freq_get:0000000000000168 .L0 
C:\Users\stapi\AppData\Local\Temp\cc07N9HF.s:1704   .rodata:0000000000000000 .LANCHOR0
C:\Users\stapi\AppData\Local\Temp\cc07N9HF.s:29     .text.rcu_irc16m_dfs_to_rf_enable:0000000000000012 .L0 
C:\Users\stapi\AppData\Local\Temp\cc07N9HF.s:48     .text.rcu_irc16m_dfs_to_rf_disable:0000000000000010 .L0 
C:\Users\stapi\AppData\Local\Temp\cc07N9HF.s:72     .text.rcu_periph_clock_enable:0000000000000018 .L0 
C:\Users\stapi\AppData\Local\Temp\cc07N9HF.s:99     .text.rcu_periph_clock_disable:000000000000001c .L0 
C:\Users\stapi\AppData\Local\Temp\cc07N9HF.s:118    .text.rcu_fmc_clock_sleep_enable:0000000000000012 .L0 
C:\Users\stapi\AppData\Local\Temp\cc07N9HF.s:137    .text.rcu_fmc_clock_sleep_disable:0000000000000012 .L0 
C:\Users\stapi\AppData\Local\Temp\cc07N9HF.s:178    .text.rcu_bkp_reset_enable:0000000000000012 .L0 
C:\Users\stapi\AppData\Local\Temp\cc07N9HF.s:197    .text.rcu_bkp_reset_disable:0000000000000012 .L0 
C:\Users\stapi\AppData\Local\Temp\cc07N9HF.s:216    .text.rcu_rfpll_cal_enable:0000000000000012 .L0 
C:\Users\stapi\AppData\Local\Temp\cc07N9HF.s:235    .text.rcu_rfpll_cal_disable:0000000000000012 .L0 
C:\Users\stapi\AppData\Local\Temp\cc07N9HF.s:287    .text.rcu_system_clock_source_config:0000000000000012 .L0 
C:\Users\stapi\AppData\Local\Temp\cc07N9HF.s:305    .text.rcu_system_clock_source_get:000000000000000c .L0 
C:\Users\stapi\AppData\Local\Temp\cc07N9HF.s:335    .text.rcu_ahb_clock_config:0000000000000014 .L0 
C:\Users\stapi\AppData\Local\Temp\cc07N9HF.s:366    .text.rcu_apb1_clock_config:0000000000000018 .L0 
C:\Users\stapi\AppData\Local\Temp\cc07N9HF.s:397    .text.rcu_apb2_clock_config:0000000000000016 .L0 
C:\Users\stapi\AppData\Local\Temp\cc07N9HF.s:429    .text.rcu_ckout0_config:000000000000001a .L0 
C:\Users\stapi\AppData\Local\Temp\cc07N9HF.s:460    .text.rcu_ckout1_config:0000000000000016 .L0 
C:\Users\stapi\AppData\Local\Temp\cc07N9HF.s:488    .text.rcu_plldig_config:000000000000001c .L0 
C:\Users\stapi\AppData\Local\Temp\cc07N9HF.s:518    .text.rcu_plldigdiv_sys_config:0000000000000014 .L0 
C:\Users\stapi\AppData\Local\Temp\cc07N9HF.s:548    .text.rcu_rtc_clock_config:0000000000000014 .L0 
C:\Users\stapi\AppData\Local\Temp\cc07N9HF.s:579    .text.rcu_rtc_div_config:0000000000000018 .L0 
C:\Users\stapi\AppData\Local\Temp\cc07N9HF.s:609    .text.rcu_trng_div_config:0000000000000014 .L0 
C:\Users\stapi\AppData\Local\Temp\cc07N9HF.s:640    .text.rcu_i2c0_clock_config:0000000000000018 .L0 
C:\Users\stapi\AppData\Local\Temp\cc07N9HF.s:670    .text.rcu_usart0_clock_config:0000000000000014 .L0 
C:\Users\stapi\AppData\Local\Temp\cc07N9HF.s:700    .text.rcu_irc16m_div_config:0000000000000014 .L0 
C:\Users\stapi\AppData\Local\Temp\cc07N9HF.s:738    .text.rcu_timer_clock_prescaler_config:0000000000000022 .L0 
C:\Users\stapi\AppData\Local\Temp\cc07N9HF.s:763    .text.rcu_flag_get:0000000000000018 .L0 
C:\Users\stapi\AppData\Local\Temp\cc07N9HF.s:782    .text.rcu_all_reset_flag_clear:0000000000000012 .L0 
C:\Users\stapi\AppData\Local\Temp\cc07N9HF.s:856    .text.rcu_lxtal_drive_capability_config:0000000000000012 .L0 
C:\Users\stapi\AppData\Local\Temp\cc07N9HF.s:1043   .text.rcu_osci_stab_wait:00000000000000d0 .L0 
C:\Users\stapi\AppData\Local\Temp\cc07N9HF.s:1117   .text.rcu_deinit:0000000000000062 .L0 
C:\Users\stapi\AppData\Local\Temp\cc07N9HF.s:1202   .text.rcu_osci_bypass_mode_enable:0000000000000044 .L0 
C:\Users\stapi\AppData\Local\Temp\cc07N9HF.s:1265   .text.rcu_osci_bypass_mode_disable:0000000000000042 .L0 
C:\Users\stapi\AppData\Local\Temp\cc07N9HF.s:1284   .text.rcu_rf_hxtal_clock_monitor_enable:0000000000000012 .L0 
C:\Users\stapi\AppData\Local\Temp\cc07N9HF.s:1303   .text.rcu_rf_hxtal_clock_monitor_disable:0000000000000012 .L0 
C:\Users\stapi\AppData\Local\Temp\cc07N9HF.s:1336   .text.rcu_irc16m_adjust_value_set:000000000000001a .L0 
C:\Users\stapi\AppData\Local\Temp\cc07N9HF.s:1355   .text.rcu_voltage_key_unlock:0000000000000012 .L0 
C:\Users\stapi\AppData\Local\Temp\cc07N9HF.s:1377   .text.rcu_deepsleep_voltage_set:000000000000000c .L0 
C:\Users\stapi\AppData\Local\Temp\cc07N9HF.s:1702   .text.rcu_clock_freq_get:0000000000000168 .L0 
                     .debug_frame:0000000000000000 .L0 
C:\Users\stapi\AppData\Local\Temp\cc07N9HF.s:728    .text.rcu_timer_clock_prescaler_config:000000000000001a .L35
C:\Users\stapi\AppData\Local\Temp\cc07N9HF.s:722    .text.rcu_timer_clock_prescaler_config:0000000000000014 .L37
C:\Users\stapi\AppData\Local\Temp\cc07N9HF.s:1015   .text.rcu_osci_stab_wait:00000000000000b6 .L62
C:\Users\stapi\AppData\Local\Temp\cc07N9HF.s:895    .text.rcu_osci_stab_wait:0000000000000028 .L51
C:\Users\stapi\AppData\Local\Temp\cc07N9HF.s:990    .text.rcu_osci_stab_wait:000000000000009e .L63
C:\Users\stapi\AppData\Local\Temp\cc07N9HF.s:930    .text.rcu_osci_stab_wait:000000000000005c .L53
C:\Users\stapi\AppData\Local\Temp\cc07N9HF.s:961    .text.rcu_osci_stab_wait:000000000000007c .L65
C:\Users\stapi\AppData\Local\Temp\cc07N9HF.s:883    .text.rcu_osci_stab_wait:000000000000001e .L76
C:\Users\stapi\AppData\Local\Temp\cc07N9HF.s:923    .text.rcu_osci_stab_wait:0000000000000054 .L60
C:\Users\stapi\AppData\Local\Temp\cc07N9HF.s:909    .text.rcu_osci_stab_wait:0000000000000044 .L56
C:\Users\stapi\AppData\Local\Temp\cc07N9HF.s:950    .text.rcu_osci_stab_wait:000000000000006e .L75
C:\Users\stapi\AppData\Local\Temp\cc07N9HF.s:945    .text.rcu_osci_stab_wait:000000000000006c .L57
C:\Users\stapi\AppData\Local\Temp\cc07N9HF.s:886    .text.rcu_osci_stab_wait:0000000000000020 .L49
C:\Users\stapi\AppData\Local\Temp\cc07N9HF.s:982    .text.rcu_osci_stab_wait:0000000000000096 .L58
C:\Users\stapi\AppData\Local\Temp\cc07N9HF.s:968    .text.rcu_osci_stab_wait:0000000000000086 .L55
C:\Users\stapi\AppData\Local\Temp\cc07N9HF.s:1008   .text.rcu_osci_stab_wait:00000000000000b2 .L59
C:\Users\stapi\AppData\Local\Temp\cc07N9HF.s:994    .text.rcu_osci_stab_wait:00000000000000a2 .L52
C:\Users\stapi\AppData\Local\Temp\cc07N9HF.s:1034   .text.rcu_osci_stab_wait:00000000000000cc .L61
C:\Users\stapi\AppData\Local\Temp\cc07N9HF.s:1020   .text.rcu_osci_stab_wait:00000000000000bc .L50
C:\Users\stapi\AppData\Local\Temp\cc07N9HF.s:1156   .text.rcu_osci_bypass_mode_enable:0000000000000012 .L84
C:\Users\stapi\AppData\Local\Temp\cc07N9HF.s:1177   .text.rcu_osci_bypass_mode_enable:000000000000002c .L85
C:\Users\stapi\AppData\Local\Temp\cc07N9HF.s:1219   .text.rcu_osci_bypass_mode_disable:0000000000000012 .L88
C:\Users\stapi\AppData\Local\Temp\cc07N9HF.s:1240   .text.rcu_osci_bypass_mode_disable:000000000000002c .L89
C:\Users\stapi\AppData\Local\Temp\cc07N9HF.s:1552   .rodata.rcu_clock_freq_get:0000000000000000 .L100
C:\Users\stapi\AppData\Local\Temp\cc07N9HF.s:1561   .text.rcu_clock_freq_get:00000000000000c8 .L106
C:\Users\stapi\AppData\Local\Temp\cc07N9HF.s:1568   .text.rcu_clock_freq_get:00000000000000d2 .L107
C:\Users\stapi\AppData\Local\Temp\cc07N9HF.s:1694   .text.rcu_clock_freq_get:0000000000000164 .L108
C:\Users\stapi\AppData\Local\Temp\cc07N9HF.s:1478   .text.rcu_clock_freq_get:0000000000000078 .L97
C:\Users\stapi\AppData\Local\Temp\cc07N9HF.s:1579   .text.rcu_clock_freq_get:00000000000000de .L96
C:\Users\stapi\AppData\Local\Temp\cc07N9HF.s:1650   .text.rcu_clock_freq_get:0000000000000128 .L123
C:\Users\stapi\AppData\Local\Temp\cc07N9HF.s:1575   .text.rcu_clock_freq_get:00000000000000dc .L105
C:\Users\stapi\AppData\Local\Temp\cc07N9HF.s:1590   .text.rcu_clock_freq_get:00000000000000e8 .L104
C:\Users\stapi\AppData\Local\Temp\cc07N9HF.s:1600   .text.rcu_clock_freq_get:00000000000000ec .L102
C:\Users\stapi\AppData\Local\Temp\cc07N9HF.s:1608   .text.rcu_clock_freq_get:00000000000000f2 .L101
C:\Users\stapi\AppData\Local\Temp\cc07N9HF.s:1660   .text.rcu_clock_freq_get:0000000000000138 .L99
C:\Users\stapi\AppData\Local\Temp\cc07N9HF.s:3474   .debug_abbrev:0000000000000000 .Ldebug_abbrev0
C:\Users\stapi\AppData\Local\Temp\cc07N9HF.s:5466   .debug_str:00000000000004a6 .LASF232
C:\Users\stapi\AppData\Local\Temp\cc07N9HF.s:5634   .debug_str:0000000000000a90 .LASF233
C:\Users\stapi\AppData\Local\Temp\cc07N9HF.s:5744   .debug_str:0000000000000e5d .LASF234
C:\Users\stapi\AppData\Local\Temp\cc07N9HF.s:5220   .debug_ranges:0000000000000000 .Ldebug_ranges0
C:\Users\stapi\AppData\Local\Temp\cc07N9HF.s:5302   .debug_line:0000000000000000 .Ldebug_line0
C:\Users\stapi\AppData\Local\Temp\cc07N9HF.s:5456   .debug_str:0000000000000468 .LASF0
C:\Users\stapi\AppData\Local\Temp\cc07N9HF.s:5374   .debug_str:000000000000020f .LASF1
C:\Users\stapi\AppData\Local\Temp\cc07N9HF.s:5324   .debug_str:00000000000000bb .LASF4
C:\Users\stapi\AppData\Local\Temp\cc07N9HF.s:5600   .debug_str:00000000000009b0 .LASF2
C:\Users\stapi\AppData\Local\Temp\cc07N9HF.s:5610   .debug_str:0000000000000a0a .LASF3
C:\Users\stapi\AppData\Local\Temp\cc07N9HF.s:5430   .debug_str:0000000000000399 .LASF5
C:\Users\stapi\AppData\Local\Temp\cc07N9HF.s:5482   .debug_str:0000000000000603 .LASF6
C:\Users\stapi\AppData\Local\Temp\cc07N9HF.s:5396   .debug_str:00000000000002ba .LASF7
C:\Users\stapi\AppData\Local\Temp\cc07N9HF.s:5438   .debug_str:00000000000003d4 .LASF8
C:\Users\stapi\AppData\Local\Temp\cc07N9HF.s:5468   .debug_str:000000000000059f .LASF9
C:\Users\stapi\AppData\Local\Temp\cc07N9HF.s:5412   .debug_str:0000000000000318 .LASF10
C:\Users\stapi\AppData\Local\Temp\cc07N9HF.s:5380   .debug_str:0000000000000237 .LASF11
C:\Users\stapi\AppData\Local\Temp\cc07N9HF.s:5672   .debug_str:0000000000000c49 .LASF12
C:\Users\stapi\AppData\Local\Temp\cc07N9HF.s:5688   .debug_str:0000000000000cb5 .LASF13
C:\Users\stapi\AppData\Local\Temp\cc07N9HF.s:5414   .debug_str:0000000000000326 .LASF14
C:\Users\stapi\AppData\Local\Temp\cc07N9HF.s:5776   .debug_str:0000000000000f8e .LASF15
C:\Users\stapi\AppData\Local\Temp\cc07N9HF.s:5590   .debug_str:0000000000000966 .LASF16
C:\Users\stapi\AppData\Local\Temp\cc07N9HF.s:5316   .debug_str:000000000000006f .LASF17
C:\Users\stapi\AppData\Local\Temp\cc07N9HF.s:5540   .debug_str:0000000000000804 .LASF18
C:\Users\stapi\AppData\Local\Temp\cc07N9HF.s:5772   .debug_str:0000000000000f7f .LASF19
C:\Users\stapi\AppData\Local\Temp\cc07N9HF.s:5576   .debug_str:0000000000000910 .LASF20
C:\Users\stapi\AppData\Local\Temp\cc07N9HF.s:5426   .debug_str:0000000000000382 .LASF21
C:\Users\stapi\AppData\Local\Temp\cc07N9HF.s:5474   .debug_str:00000000000005cb .LASF22
C:\Users\stapi\AppData\Local\Temp\cc07N9HF.s:5528   .debug_str:00000000000007b8 .LASF23
C:\Users\stapi\AppData\Local\Temp\cc07N9HF.s:5596   .debug_str:0000000000000994 .LASF24
C:\Users\stapi\AppData\Local\Temp\cc07N9HF.s:5754   .debug_str:0000000000000f0a .LASF25
C:\Users\stapi\AppData\Local\Temp\cc07N9HF.s:5708   .debug_str:0000000000000d48 .LASF26
C:\Users\stapi\AppData\Local\Temp\cc07N9HF.s:5628   .debug_str:0000000000000a5f .LASF27
C:\Users\stapi\AppData\Local\Temp\cc07N9HF.s:5498   .debug_str:00000000000006ac .LASF28
C:\Users\stapi\AppData\Local\Temp\cc07N9HF.s:5768   .debug_str:0000000000000f6c .LASF29
C:\Users\stapi\AppData\Local\Temp\cc07N9HF.s:5418   .debug_str:0000000000000338 .LASF30
C:\Users\stapi\AppData\Local\Temp\cc07N9HF.s:5620   .debug_str:0000000000000a3e .LASF31
C:\Users\stapi\AppData\Local\Temp\cc07N9HF.s:5462   .debug_str:0000000000000490 .LASF32
C:\Users\stapi\AppData\Local\Temp\cc07N9HF.s:5716   .debug_str:0000000000000d73 .LASF33
C:\Users\stapi\AppData\Local\Temp\cc07N9HF.s:5668   .debug_str:0000000000000c1e .LASF34
C:\Users\stapi\AppData\Local\Temp\cc07N9HF.s:5562   .debug_str:00000000000008bb .LASF35
C:\Users\stapi\AppData\Local\Temp\cc07N9HF.s:5520   .debug_str:0000000000000761 .LASF36
C:\Users\stapi\AppData\Local\Temp\cc07N9HF.s:5422   .debug_str:000000000000035b .LASF37
C:\Users\stapi\AppData\Local\Temp\cc07N9HF.s:5306   .debug_str:0000000000000012 .LASF38
C:\Users\stapi\AppData\Local\Temp\cc07N9HF.s:5764   .debug_str:0000000000000f50 .LASF39
C:\Users\stapi\AppData\Local\Temp\cc07N9HF.s:5480   .debug_str:00000000000005f7 .LASF40
C:\Users\stapi\AppData\Local\Temp\cc07N9HF.s:5434   .debug_str:00000000000003ae .LASF41
C:\Users\stapi\AppData\Local\Temp\cc07N9HF.s:5452   .debug_str:0000000000000444 .LASF42
C:\Users\stapi\AppData\Local\Temp\cc07N9HF.s:5766   .debug_str:0000000000000f5e .LASF43
C:\Users\stapi\AppData\Local\Temp\cc07N9HF.s:5730   .debug_str:0000000000000de1 .LASF44
C:\Users\stapi\AppData\Local\Temp\cc07N9HF.s:5444   .debug_str:0000000000000402 .LASF45
C:\Users\stapi\AppData\Local\Temp\cc07N9HF.s:5390   .debug_str:0000000000000286 .LASF46
C:\Users\stapi\AppData\Local\Temp\cc07N9HF.s:5322   .debug_str:00000000000000ad .LASF47
C:\Users\stapi\AppData\Local\Temp\cc07N9HF.s:5714   .debug_str:0000000000000d64 .LASF48
C:\Users\stapi\AppData\Local\Temp\cc07N9HF.s:5660   .debug_str:0000000000000bd9 .LASF49
C:\Users\stapi\AppData\Local\Temp\cc07N9HF.s:5572   .debug_str:00000000000008fc .LASF50
C:\Users\stapi\AppData\Local\Temp\cc07N9HF.s:5676   .debug_str:0000000000000c58 .LASF51
C:\Users\stapi\AppData\Local\Temp\cc07N9HF.s:5724   .debug_str:0000000000000dba .LASF52
C:\Users\stapi\AppData\Local\Temp\cc07N9HF.s:5464   .debug_str:000000000000049c .LASF53
C:\Users\stapi\AppData\Local\Temp\cc07N9HF.s:5354   .debug_str:000000000000018a .LASF54
C:\Users\stapi\AppData\Local\Temp\cc07N9HF.s:5370   .debug_str:00000000000001fc .LASF55
C:\Users\stapi\AppData\Local\Temp\cc07N9HF.s:5530   .debug_str:00000000000007c5 .LASF56
C:\Users\stapi\AppData\Local\Temp\cc07N9HF.s:5398   .debug_str:00000000000002c3 .LASF57
C:\Users\stapi\AppData\Local\Temp\cc07N9HF.s:5352   .debug_str:0000000000000180 .LASF58
C:\Users\stapi\AppData\Local\Temp\cc07N9HF.s:5740   .debug_str:0000000000000e3e .LASF59
C:\Users\stapi\AppData\Local\Temp\cc07N9HF.s:5356   .debug_str:0000000000000194 .LASF60
C:\Users\stapi\AppData\Local\Temp\cc07N9HF.s:5358   .debug_str:000000000000019e .LASF61
C:\Users\stapi\AppData\Local\Temp\cc07N9HF.s:5770   .debug_str:0000000000000f77 .LASF62
C:\Users\stapi\AppData\Local\Temp\cc07N9HF.s:5402   .debug_str:00000000000002e5 .LASF63
C:\Users\stapi\AppData\Local\Temp\cc07N9HF.s:5360   .debug_str:00000000000001a8 .LASF64
C:\Users\stapi\AppData\Local\Temp\cc07N9HF.s:5584   .debug_str:0000000000000946 .LASF65
C:\Users\stapi\AppData\Local\Temp\cc07N9HF.s:5640   .debug_str:0000000000000b47 .LASF66
C:\Users\stapi\AppData\Local\Temp\cc07N9HF.s:5416   .debug_str:000000000000032f .LASF67
C:\Users\stapi\AppData\Local\Temp\cc07N9HF.s:5602   .debug_str:00000000000009be .LASF68
C:\Users\stapi\AppData\Local\Temp\cc07N9HF.s:5582   .debug_str:000000000000093b .LASF69
C:\Users\stapi\AppData\Local\Temp\cc07N9HF.s:5372   .debug_str:0000000000000204 .LASF70
C:\Users\stapi\AppData\Local\Temp\cc07N9HF.s:5588   .debug_str:000000000000095b .LASF71
C:\Users\stapi\AppData\Local\Temp\cc07N9HF.s:5694   .debug_str:0000000000000cdb .LASF72
C:\Users\stapi\AppData\Local\Temp\cc07N9HF.s:5552   .debug_str:0000000000000870 .LASF73
C:\Users\stapi\AppData\Local\Temp\cc07N9HF.s:5332   .debug_str:0000000000000103 .LASF74
C:\Users\stapi\AppData\Local\Temp\cc07N9HF.s:5560   .debug_str:00000000000008b0 .LASF75
C:\Users\stapi\AppData\Local\Temp\cc07N9HF.s:5614   .debug_str:0000000000000a1b .LASF76
C:\Users\stapi\AppData\Local\Temp\cc07N9HF.s:5662   .debug_str:0000000000000be8 .LASF77
C:\Users\stapi\AppData\Local\Temp\cc07N9HF.s:5712   .debug_str:0000000000000d5c .LASF78
C:\Users\stapi\AppData\Local\Temp\cc07N9HF.s:5476   .debug_str:00000000000005d8 .LASF79
C:\Users\stapi\AppData\Local\Temp\cc07N9HF.s:5580   .debug_str:0000000000000930 .LASF80
C:\Users\stapi\AppData\Local\Temp\cc07N9HF.s:5334   .debug_str:000000000000010d .LASF81
C:\Users\stapi\AppData\Local\Temp\cc07N9HF.s:5342   .debug_str:0000000000000138 .LASF82
C:\Users\stapi\AppData\Local\Temp\cc07N9HF.s:5616   .debug_str:0000000000000a24 .LASF83
C:\Users\stapi\AppData\Local\Temp\cc07N9HF.s:5642   .debug_str:0000000000000b4f .LASF84
C:\Users\stapi\AppData\Local\Temp\cc07N9HF.s:5638   .debug_str:0000000000000b3b .LASF85
C:\Users\stapi\AppData\Local\Temp\cc07N9HF.s:5652   .debug_str:0000000000000b97 .LASF86
C:\Users\stapi\AppData\Local\Temp\cc07N9HF.s:5516   .debug_str:0000000000000750 .LASF87
C:\Users\stapi\AppData\Local\Temp\cc07N9HF.s:5308   .debug_str:000000000000001f .LASF88
C:\Users\stapi\AppData\Local\Temp\cc07N9HF.s:5718   .debug_str:0000000000000d81 .LASF89
C:\Users\stapi\AppData\Local\Temp\cc07N9HF.s:5658   .debug_str:0000000000000bc7 .LASF90
C:\Users\stapi\AppData\Local\Temp\cc07N9HF.s:5446   .debug_str:000000000000040d .LASF91
C:\Users\stapi\AppData\Local\Temp\cc07N9HF.s:5312   .debug_str:000000000000004b .LASF92
C:\Users\stapi\AppData\Local\Temp\cc07N9HF.s:5692   .debug_str:0000000000000cc8 .LASF93
C:\Users\stapi\AppData\Local\Temp\cc07N9HF.s:5448   .debug_str:0000000000000420 .LASF94
C:\Users\stapi\AppData\Local\Temp\cc07N9HF.s:5494   .debug_str:000000000000067b .LASF95
C:\Users\stapi\AppData\Local\Temp\cc07N9HF.s:5458   .debug_str:0000000000000475 .LASF96
C:\Users\stapi\AppData\Local\Temp\cc07N9HF.s:5544   .debug_str:0000000000000817 .LASF97
C:\Users\stapi\AppData\Local\Temp\cc07N9HF.s:5778   .debug_str:0000000000000f97 .LASF98
C:\Users\stapi\AppData\Local\Temp\cc07N9HF.s:5632   .debug_str:0000000000000a81 .LASF99
C:\Users\stapi\AppData\Local\Temp\cc07N9HF.s:5594   .debug_str:0000000000000986 .LASF100
C:\Users\stapi\AppData\Local\Temp\cc07N9HF.s:5504   .debug_str:00000000000006ee .LASF101
C:\Users\stapi\AppData\Local\Temp\cc07N9HF.s:5578   .debug_str:000000000000091a .LASF102
C:\Users\stapi\AppData\Local\Temp\cc07N9HF.s:5526   .debug_str:00000000000007a1 .LASF103
C:\Users\stapi\AppData\Local\Temp\cc07N9HF.s:5696   .debug_str:0000000000000ce5 .LASF104
C:\Users\stapi\AppData\Local\Temp\cc07N9HF.s:5490   .debug_str:0000000000000658 .LASF105
C:\Users\stapi\AppData\Local\Temp\cc07N9HF.s:5752   .debug_str:0000000000000ef9 .LASF106
C:\Users\stapi\AppData\Local\Temp\cc07N9HF.s:5618   .debug_str:0000000000000a2c .LASF107
C:\Users\stapi\AppData\Local\Temp\cc07N9HF.s:5686   .debug_str:0000000000000c9a .LASF108
C:\Users\stapi\AppData\Local\Temp\cc07N9HF.s:5592   .debug_str:000000000000096c .LASF109
C:\Users\stapi\AppData\Local\Temp\cc07N9HF.s:5328   .debug_str:00000000000000e0 .LASF110
C:\Users\stapi\AppData\Local\Temp\cc07N9HF.s:5436   .debug_str:00000000000003ba .LASF111
C:\Users\stapi\AppData\Local\Temp\cc07N9HF.s:5720   .debug_str:0000000000000d94 .LASF112
C:\Users\stapi\AppData\Local\Temp\cc07N9HF.s:5450   .debug_str:000000000000042f .LASF113
C:\Users\stapi\AppData\Local\Temp\cc07N9HF.s:5666   .debug_str:0000000000000c06 .LASF114
C:\Users\stapi\AppData\Local\Temp\cc07N9HF.s:5314   .debug_str:000000000000005d .LASF115
C:\Users\stapi\AppData\Local\Temp\cc07N9HF.s:5364   .debug_str:00000000000001ce .LASF116
C:\Users\stapi\AppData\Local\Temp\cc07N9HF.s:5682   .debug_str:0000000000000c7e .LASF117
C:\Users\stapi\AppData\Local\Temp\cc07N9HF.s:5554   .debug_str:0000000000000878 .LASF118
C:\Users\stapi\AppData\Local\Temp\cc07N9HF.s:5304   .debug_str:0000000000000000 .LASF119
C:\Users\stapi\AppData\Local\Temp\cc07N9HF.s:5738   .debug_str:0000000000000e31 .LASF120
C:\Users\stapi\AppData\Local\Temp\cc07N9HF.s:5532   .debug_str:00000000000007ce .LASF121
C:\Users\stapi\AppData\Local\Temp\cc07N9HF.s:5392   .debug_str:0000000000000291 .LASF122
C:\Users\stapi\AppData\Local\Temp\cc07N9HF.s:5746   .debug_str:0000000000000edb .LASF123
C:\Users\stapi\AppData\Local\Temp\cc07N9HF.s:5410   .debug_str:0000000000000308 .LASF124
C:\Users\stapi\AppData\Local\Temp\cc07N9HF.s:5340   .debug_str:0000000000000128 .LASF125
C:\Users\stapi\AppData\Local\Temp\cc07N9HF.s:5570   .debug_str:00000000000008eb .LASF126
C:\Users\stapi\AppData\Local\Temp\cc07N9HF.s:5702   .debug_str:0000000000000d0e .LASF127
C:\Users\stapi\AppData\Local\Temp\cc07N9HF.s:5432   .debug_str:00000000000003a4 .LASF128
C:\Users\stapi\AppData\Local\Temp\cc07N9HF.s:5684   .debug_str:0000000000000c90 .LASF129
C:\Users\stapi\AppData\Local\Temp\cc07N9HF.s:5484   .debug_str:0000000000000616 .LASF130
C:\Users\stapi\AppData\Local\Temp\cc07N9HF.s:5406   .debug_str:00000000000002f6 .LASF131
C:\Users\stapi\AppData\Local\Temp\cc07N9HF.s:5382   .debug_str:000000000000024e .LASF132
C:\Users\stapi\AppData\Local\Temp\cc07N9HF.s:5606   .debug_str:00000000000009dd .LASF133
C:\Users\stapi\AppData\Local\Temp\cc07N9HF.s:5376   .debug_str:000000000000021b .LASF134
C:\Users\stapi\AppData\Local\Temp\cc07N9HF.s:5366   .debug_str:00000000000001df .LASF135
C:\Users\stapi\AppData\Local\Temp\cc07N9HF.s:5678   .debug_str:0000000000000c6e .LASF136
C:\Users\stapi\AppData\Local\Temp\cc07N9HF.s:5680   .debug_str:0000000000000c76 .LASF137
C:\Users\stapi\AppData\Local\Temp\cc07N9HF.s:5534   .debug_str:00000000000007dd .LASF138
C:\Users\stapi\AppData\Local\Temp\cc07N9HF.s:5512   .debug_str:0000000000000734 .LASF139
C:\Users\stapi\AppData\Local\Temp\cc07N9HF.s:5514   .debug_str:000000000000073c .LASF140
C:\Users\stapi\AppData\Local\Temp\cc07N9HF.s:5728   .debug_str:0000000000000dce .LASF167
C:\Users\stapi\AppData\Local\Temp\cc07N9HF.s:1382   .text.rcu_clock_freq_get:0000000000000000 .LFB413
C:\Users\stapi\AppData\Local\Temp\cc07N9HF.s:1700   .text.rcu_clock_freq_get:0000000000000168 .LFE413
C:\Users\stapi\AppData\Local\Temp\cc07N9HF.s:5758   .debug_str:0000000000000f2c .LASF154
C:\Users\stapi\AppData\Local\Temp\cc07N9HF.s:4062   .debug_loc:0000000000000000 .LLST27
C:\Users\stapi\AppData\Local\Temp\cc07N9HF.s:4095   .debug_loc:0000000000000050 .LLST28
C:\Users\stapi\AppData\Local\Temp\cc07N9HF.s:5442   .debug_str:00000000000003fa .LASF141
C:\Users\stapi\AppData\Local\Temp\cc07N9HF.s:4110   .debug_loc:0000000000000079 .LLST29
C:\Users\stapi\AppData\Local\Temp\cc07N9HF.s:5556   .debug_str:0000000000000889 .LASF142
C:\Users\stapi\AppData\Local\Temp\cc07N9HF.s:4144   .debug_loc:00000000000000c3 .LLST30
C:\Users\stapi\AppData\Local\Temp\cc07N9HF.s:5336   .debug_str:0000000000000117 .LASF143
C:\Users\stapi\AppData\Local\Temp\cc07N9HF.s:4175   .debug_loc:0000000000000118 .LLST31
C:\Users\stapi\AppData\Local\Temp\cc07N9HF.s:5428   .debug_str:000000000000038f .LASF144
C:\Users\stapi\AppData\Local\Temp\cc07N9HF.s:4198   .debug_loc:0000000000000157 .LLST32
C:\Users\stapi\AppData\Local\Temp\cc07N9HF.s:5518   .debug_str:0000000000000757 .LASF145
C:\Users\stapi\AppData\Local\Temp\cc07N9HF.s:4229   .debug_loc:00000000000001ac .LLST33
C:\Users\stapi\AppData\Local\Temp\cc07N9HF.s:5698   .debug_str:0000000000000cfb .LASF146
C:\Users\stapi\AppData\Local\Temp\cc07N9HF.s:5344   .debug_str:0000000000000140 .LASF147
C:\Users\stapi\AppData\Local\Temp\cc07N9HF.s:4292   .debug_loc:0000000000000213 .LLST34
C:\Users\stapi\AppData\Local\Temp\cc07N9HF.s:5568   .debug_str:00000000000008e3 .LASF148
C:\Users\stapi\AppData\Local\Temp\cc07N9HF.s:4347   .debug_loc:0000000000000280 .LLST35
C:\Users\stapi\AppData\Local\Temp\cc07N9HF.s:5338   .debug_str:0000000000000120 .LASF149
C:\Users\stapi\AppData\Local\Temp\cc07N9HF.s:5404   .debug_str:00000000000002ed .LASF150
C:\Users\stapi\AppData\Local\Temp\cc07N9HF.s:5710   .debug_str:0000000000000d53 .LASF151
C:\Users\stapi\AppData\Local\Temp\cc07N9HF.s:5726   .debug_str:0000000000000dc4 .LASF152
C:\Users\stapi\AppData\Local\Temp\cc07N9HF.s:4492   .debug_loc:000000000000035c .LLST36
C:\Users\stapi\AppData\Local\Temp\cc07N9HF.s:5460   .debug_str:0000000000000484 .LASF153
C:\Users\stapi\AppData\Local\Temp\cc07N9HF.s:1411   .text.rcu_clock_freq_get:0000000000000024 .LVL113
C:\Users\stapi\AppData\Local\Temp\cc07N9HF.s:1433   .text.rcu_clock_freq_get:0000000000000044 .LVL114
C:\Users\stapi\AppData\Local\Temp\cc07N9HF.s:5608   .debug_str:00000000000009f0 .LASF156
C:\Users\stapi\AppData\Local\Temp\cc07N9HF.s:1360   .text.rcu_deepsleep_voltage_set:0000000000000000 .LFB412
C:\Users\stapi\AppData\Local\Temp\cc07N9HF.s:1375   .text.rcu_deepsleep_voltage_set:000000000000000c .LFE412
C:\Users\stapi\AppData\Local\Temp\cc07N9HF.s:5762   .debug_str:0000000000000f4a .LASF155
C:\Users\stapi\AppData\Local\Temp\cc07N9HF.s:4509   .debug_loc:0000000000000380 .LLST26
C:\Users\stapi\AppData\Local\Temp\cc07N9HF.s:5630   .debug_str:0000000000000a6a .LASF159
C:\Users\stapi\AppData\Local\Temp\cc07N9HF.s:1341   .text.rcu_voltage_key_unlock:0000000000000000 .LFB411
C:\Users\stapi\AppData\Local\Temp\cc07N9HF.s:1353   .text.rcu_voltage_key_unlock:0000000000000012 .LFE411
C:\Users\stapi\AppData\Local\Temp\cc07N9HF.s:5500   .debug_str:00000000000006b9 .LASF157
C:\Users\stapi\AppData\Local\Temp\cc07N9HF.s:1308   .text.rcu_irc16m_adjust_value_set:0000000000000000 .LFB410
C:\Users\stapi\AppData\Local\Temp\cc07N9HF.s:1334   .text.rcu_irc16m_adjust_value_set:000000000000001a .LFE410
C:\Users\stapi\AppData\Local\Temp\cc07N9HF.s:5734   .debug_str:0000000000000e04 .LASF158
C:\Users\stapi\AppData\Local\Temp\cc07N9HF.s:4520   .debug_loc:000000000000039e .LLST24
C:\Users\stapi\AppData\Local\Temp\cc07N9HF.s:4534   .debug_loc:00000000000003bf .LLST25
C:\Users\stapi\AppData\Local\Temp\cc07N9HF.s:5488   .debug_str:0000000000000635 .LASF160
C:\Users\stapi\AppData\Local\Temp\cc07N9HF.s:1289   .text.rcu_rf_hxtal_clock_monitor_disable:0000000000000000 .LFB409
C:\Users\stapi\AppData\Local\Temp\cc07N9HF.s:1301   .text.rcu_rf_hxtal_clock_monitor_disable:0000000000000012 .LFE409
C:\Users\stapi\AppData\Local\Temp\cc07N9HF.s:5320   .debug_str:000000000000008b .LASF161
C:\Users\stapi\AppData\Local\Temp\cc07N9HF.s:1270   .text.rcu_rf_hxtal_clock_monitor_enable:0000000000000000 .LFB408
C:\Users\stapi\AppData\Local\Temp\cc07N9HF.s:1282   .text.rcu_rf_hxtal_clock_monitor_enable:0000000000000012 .LFE408
C:\Users\stapi\AppData\Local\Temp\cc07N9HF.s:5670   .debug_str:0000000000000c2c .LASF162
C:\Users\stapi\AppData\Local\Temp\cc07N9HF.s:1207   .text.rcu_osci_bypass_mode_disable:0000000000000000 .LFB407
C:\Users\stapi\AppData\Local\Temp\cc07N9HF.s:1263   .text.rcu_osci_bypass_mode_disable:0000000000000042 .LFE407
C:\Users\stapi\AppData\Local\Temp\cc07N9HF.s:5566   .debug_str:00000000000008de .LASF163
C:\Users\stapi\AppData\Local\Temp\cc07N9HF.s:4550   .debug_loc:00000000000003e3 .LLST23
C:\Users\stapi\AppData\Local\Temp\cc07N9HF.s:5424   .debug_str:0000000000000366 .LASF164
C:\Users\stapi\AppData\Local\Temp\cc07N9HF.s:1144   .text.rcu_osci_bypass_mode_enable:0000000000000000 .LFB406
C:\Users\stapi\AppData\Local\Temp\cc07N9HF.s:1200   .text.rcu_osci_bypass_mode_enable:0000000000000044 .LFE406
C:\Users\stapi\AppData\Local\Temp\cc07N9HF.s:4561   .debug_loc:0000000000000401 .LLST22
C:\Users\stapi\AppData\Local\Temp\cc07N9HF.s:5384   .debug_str:000000000000025c .LASF165
C:\Users\stapi\AppData\Local\Temp\cc07N9HF.s:5492   .debug_str:000000000000066f .LASF166
C:\Users\stapi\AppData\Local\Temp\cc07N9HF.s:5706   .debug_str:0000000000000d35 .LASF168
C:\Users\stapi\AppData\Local\Temp\cc07N9HF.s:861    .text.rcu_osci_stab_wait:0000000000000000 .LFB403
C:\Users\stapi\AppData\Local\Temp\cc07N9HF.s:1041   .text.rcu_osci_stab_wait:00000000000000d0 .LFE403
C:\Users\stapi\AppData\Local\Temp\cc07N9HF.s:4572   .debug_loc:000000000000041f .LLST18
C:\Users\stapi\AppData\Local\Temp\cc07N9HF.s:5330   .debug_str:00000000000000fb .LASF169
C:\Users\stapi\AppData\Local\Temp\cc07N9HF.s:4630   .debug_loc:00000000000004a4 .LLST19
C:\Users\stapi\AppData\Local\Temp\cc07N9HF.s:5748   .debug_str:0000000000000eea .LASF170
C:\Users\stapi\AppData\Local\Temp\cc07N9HF.s:4797   .debug_loc:00000000000005f3 .LLST20
C:\Users\stapi\AppData\Local\Temp\cc07N9HF.s:5674   .debug_str:0000000000000c4e .LASF171
C:\Users\stapi\AppData\Local\Temp\cc07N9HF.s:4819   .debug_loc:000000000000062a .LLST21
C:\Users\stapi\AppData\Local\Temp\cc07N9HF.s:914    .text.rcu_osci_stab_wait:000000000000004e .LVL64
C:\Users\stapi\AppData\Local\Temp\cc07N9HF.s:936    .text.rcu_osci_stab_wait:0000000000000066 .LVL69
C:\Users\stapi\AppData\Local\Temp\cc07N9HF.s:953    .text.rcu_osci_stab_wait:0000000000000076 .LVL73
C:\Users\stapi\AppData\Local\Temp\cc07N9HF.s:973    .text.rcu_osci_stab_wait:0000000000000090 .LVL77
C:\Users\stapi\AppData\Local\Temp\cc07N9HF.s:999    .text.rcu_osci_stab_wait:00000000000000ac .LVL83
C:\Users\stapi\AppData\Local\Temp\cc07N9HF.s:1025   .text.rcu_osci_stab_wait:00000000000000c6 .LVL89
C:\Users\stapi\AppData\Local\Temp\cc07N9HF.s:5546   .debug_str:0000000000000829 .LASF172
C:\Users\stapi\AppData\Local\Temp\cc07N9HF.s:831    .text.rcu_lxtal_drive_capability_config:0000000000000000 .LFB402
C:\Users\stapi\AppData\Local\Temp\cc07N9HF.s:854    .text.rcu_lxtal_drive_capability_config:0000000000000012 .LFE402
C:\Users\stapi\AppData\Local\Temp\cc07N9HF.s:5586   .debug_str:000000000000094e .LASF173
C:\Users\stapi\AppData\Local\Temp\cc07N9HF.s:4872   .debug_loc:00000000000006b1 .LLST17
C:\Users\stapi\AppData\Local\Temp\cc07N9HF.s:5604   .debug_str:00000000000009c7 .LASF174
C:\Users\stapi\AppData\Local\Temp\cc07N9HF.s:5574   .debug_str:0000000000000906 .LASF175
C:\Users\stapi\AppData\Local\Temp\cc07N9HF.s:5650   .debug_str:0000000000000b82 .LASF176
C:\Users\stapi\AppData\Local\Temp\cc07N9HF.s:5454   .debug_str:000000000000044f .LASF177
C:\Users\stapi\AppData\Local\Temp\cc07N9HF.s:5648   .debug_str:0000000000000b79 .LASF178
C:\Users\stapi\AppData\Local\Temp\cc07N9HF.s:5478   .debug_str:00000000000005e0 .LASF235
C:\Users\stapi\AppData\Local\Temp\cc07N9HF.s:5704   .debug_str:0000000000000d1c .LASF179
C:\Users\stapi\AppData\Local\Temp\cc07N9HF.s:768    .text.rcu_all_reset_flag_clear:0000000000000000 .LFB397
C:\Users\stapi\AppData\Local\Temp\cc07N9HF.s:780    .text.rcu_all_reset_flag_clear:0000000000000012 .LFE397
C:\Users\stapi\AppData\Local\Temp\cc07N9HF.s:5542   .debug_str:000000000000080a .LASF180
C:\Users\stapi\AppData\Local\Temp\cc07N9HF.s:743    .text.rcu_flag_get:0000000000000000 .LFB396
C:\Users\stapi\AppData\Local\Temp\cc07N9HF.s:761    .text.rcu_flag_get:0000000000000018 .LFE396
C:\Users\stapi\AppData\Local\Temp\cc07N9HF.s:5626   .debug_str:0000000000000a5a .LASF181
C:\Users\stapi\AppData\Local\Temp\cc07N9HF.s:4888   .debug_loc:00000000000006d4 .LLST16
C:\Users\stapi\AppData\Local\Temp\cc07N9HF.s:5496   .debug_str:000000000000068b .LASF182
C:\Users\stapi\AppData\Local\Temp\cc07N9HF.s:705    .text.rcu_timer_clock_prescaler_config:0000000000000000 .LFB395
C:\Users\stapi\AppData\Local\Temp\cc07N9HF.s:736    .text.rcu_timer_clock_prescaler_config:0000000000000022 .LFE395
C:\Users\stapi\AppData\Local\Temp\cc07N9HF.s:5646   .debug_str:0000000000000b63 .LASF183
C:\Users\stapi\AppData\Local\Temp\cc07N9HF.s:4902   .debug_loc:00000000000006f5 .LLST15
C:\Users\stapi\AppData\Local\Temp\cc07N9HF.s:5522   .debug_str:000000000000076e .LASF184
C:\Users\stapi\AppData\Local\Temp\cc07N9HF.s:675    .text.rcu_irc16m_div_config:0000000000000000 .LFB394
C:\Users\stapi\AppData\Local\Temp\cc07N9HF.s:698    .text.rcu_irc16m_div_config:0000000000000014 .LFE394
C:\Users\stapi\AppData\Local\Temp\cc07N9HF.s:5656   .debug_str:0000000000000bbc .LASF185
C:\Users\stapi\AppData\Local\Temp\cc07N9HF.s:4927   .debug_loc:000000000000072f .LLST14
C:\Users\stapi\AppData\Local\Temp\cc07N9HF.s:5420   .debug_str:0000000000000343 .LASF186
C:\Users\stapi\AppData\Local\Temp\cc07N9HF.s:645    .text.rcu_usart0_clock_config:0000000000000000 .LFB393
C:\Users\stapi\AppData\Local\Temp\cc07N9HF.s:668    .text.rcu_usart0_clock_config:0000000000000014 .LFE393
C:\Users\stapi\AppData\Local\Temp\cc07N9HF.s:5486   .debug_str:0000000000000621 .LASF187
C:\Users\stapi\AppData\Local\Temp\cc07N9HF.s:4943   .debug_loc:0000000000000753 .LLST13
C:\Users\stapi\AppData\Local\Temp\cc07N9HF.s:5400   .debug_str:00000000000002cf .LASF188
C:\Users\stapi\AppData\Local\Temp\cc07N9HF.s:614    .text.rcu_i2c0_clock_config:0000000000000000 .LFB392
C:\Users\stapi\AppData\Local\Temp\cc07N9HF.s:638    .text.rcu_i2c0_clock_config:0000000000000018 .LFE392
C:\Users\stapi\AppData\Local\Temp\cc07N9HF.s:5350   .debug_str:000000000000016e .LASF189
C:\Users\stapi\AppData\Local\Temp\cc07N9HF.s:4955   .debug_loc:000000000000076e .LLST12
C:\Users\stapi\AppData\Local\Temp\cc07N9HF.s:5780   .debug_str:0000000000000fa9 .LASF190
C:\Users\stapi\AppData\Local\Temp\cc07N9HF.s:584    .text.rcu_trng_div_config:0000000000000000 .LFB391
C:\Users\stapi\AppData\Local\Temp\cc07N9HF.s:607    .text.rcu_trng_div_config:0000000000000014 .LFE391
C:\Users\stapi\AppData\Local\Temp\cc07N9HF.s:5750   .debug_str:0000000000000ef0 .LASF191
C:\Users\stapi\AppData\Local\Temp\cc07N9HF.s:4967   .debug_loc:000000000000078a .LLST11
C:\Users\stapi\AppData\Local\Temp\cc07N9HF.s:5636   .debug_str:0000000000000b28 .LASF192
C:\Users\stapi\AppData\Local\Temp\cc07N9HF.s:553    .text.rcu_rtc_div_config:0000000000000000 .LFB390
C:\Users\stapi\AppData\Local\Temp\cc07N9HF.s:577    .text.rcu_rtc_div_config:0000000000000018 .LFE390
C:\Users\stapi\AppData\Local\Temp\cc07N9HF.s:5472   .debug_str:00000000000005c3 .LASF193
C:\Users\stapi\AppData\Local\Temp\cc07N9HF.s:4983   .debug_loc:00000000000007ad .LLST10
C:\Users\stapi\AppData\Local\Temp\cc07N9HF.s:5742   .debug_str:0000000000000e48 .LASF194
C:\Users\stapi\AppData\Local\Temp\cc07N9HF.s:523    .text.rcu_rtc_clock_config:0000000000000000 .LFB389
C:\Users\stapi\AppData\Local\Temp\cc07N9HF.s:546    .text.rcu_rtc_clock_config:0000000000000014 .LFE389
C:\Users\stapi\AppData\Local\Temp\cc07N9HF.s:5598   .debug_str:000000000000099f .LASF195
C:\Users\stapi\AppData\Local\Temp\cc07N9HF.s:4995   .debug_loc:00000000000007c8 .LLST9
C:\Users\stapi\AppData\Local\Temp\cc07N9HF.s:5394   .debug_str:00000000000002a1 .LASF196
C:\Users\stapi\AppData\Local\Temp\cc07N9HF.s:493    .text.rcu_plldigdiv_sys_config:0000000000000000 .LFB388
C:\Users\stapi\AppData\Local\Temp\cc07N9HF.s:516    .text.rcu_plldigdiv_sys_config:0000000000000014 .LFE388
C:\Users\stapi\AppData\Local\Temp\cc07N9HF.s:5348   .debug_str:0000000000000160 .LASF197
C:\Users\stapi\AppData\Local\Temp\cc07N9HF.s:5011   .debug_loc:00000000000007ec .LLST8
C:\Users\stapi\AppData\Local\Temp\cc07N9HF.s:5388   .debug_str:0000000000000274 .LASF198
C:\Users\stapi\AppData\Local\Temp\cc07N9HF.s:465    .text.rcu_plldig_config:0000000000000000 .LFB387
C:\Users\stapi\AppData\Local\Temp\cc07N9HF.s:486    .text.rcu_plldig_config:000000000000001c .LFE387
C:\Users\stapi\AppData\Local\Temp\cc07N9HF.s:5510   .debug_str:0000000000000729 .LASF199
C:\Users\stapi\AppData\Local\Temp\cc07N9HF.s:5470   .debug_str:00000000000005b1 .LASF200
C:\Users\stapi\AppData\Local\Temp\cc07N9HF.s:434    .text.rcu_ckout1_config:0000000000000000 .LFB386
C:\Users\stapi\AppData\Local\Temp\cc07N9HF.s:458    .text.rcu_ckout1_config:0000000000000016 .LFE386
C:\Users\stapi\AppData\Local\Temp\cc07N9HF.s:5722   .debug_str:0000000000000daf .LASF201
C:\Users\stapi\AppData\Local\Temp\cc07N9HF.s:5506   .debug_str:0000000000000705 .LASF202
C:\Users\stapi\AppData\Local\Temp\cc07N9HF.s:5023   .debug_loc:0000000000000807 .LLST7
C:\Users\stapi\AppData\Local\Temp\cc07N9HF.s:5536   .debug_str:00000000000007e7 .LASF203
C:\Users\stapi\AppData\Local\Temp\cc07N9HF.s:402    .text.rcu_ckout0_config:0000000000000000 .LFB385
C:\Users\stapi\AppData\Local\Temp\cc07N9HF.s:427    .text.rcu_ckout0_config:000000000000001a .LFE385
C:\Users\stapi\AppData\Local\Temp\cc07N9HF.s:5538   .debug_str:00000000000007f9 .LASF204
C:\Users\stapi\AppData\Local\Temp\cc07N9HF.s:5690   .debug_str:0000000000000cbd .LASF205
C:\Users\stapi\AppData\Local\Temp\cc07N9HF.s:5035   .debug_loc:0000000000000822 .LLST6
C:\Users\stapi\AppData\Local\Temp\cc07N9HF.s:5756   .debug_str:0000000000000f16 .LASF206
C:\Users\stapi\AppData\Local\Temp\cc07N9HF.s:371    .text.rcu_apb2_clock_config:0000000000000000 .LFB384
C:\Users\stapi\AppData\Local\Temp\cc07N9HF.s:395    .text.rcu_apb2_clock_config:0000000000000016 .LFE384
C:\Users\stapi\AppData\Local\Temp\cc07N9HF.s:5624   .debug_str:0000000000000a52 .LASF207
C:\Users\stapi\AppData\Local\Temp\cc07N9HF.s:5047   .debug_loc:000000000000083d .LLST5
C:\Users\stapi\AppData\Local\Temp\cc07N9HF.s:5346   .debug_str:000000000000014a .LASF208
C:\Users\stapi\AppData\Local\Temp\cc07N9HF.s:340    .text.rcu_apb1_clock_config:0000000000000000 .LFB383
C:\Users\stapi\AppData\Local\Temp\cc07N9HF.s:364    .text.rcu_apb1_clock_config:0000000000000018 .LFE383
C:\Users\stapi\AppData\Local\Temp\cc07N9HF.s:5622   .debug_str:0000000000000a4a .LASF209
C:\Users\stapi\AppData\Local\Temp\cc07N9HF.s:5059   .debug_loc:0000000000000857 .LLST4
C:\Users\stapi\AppData\Local\Temp\cc07N9HF.s:5378   .debug_str:0000000000000222 .LASF210
C:\Users\stapi\AppData\Local\Temp\cc07N9HF.s:310    .text.rcu_ahb_clock_config:0000000000000000 .LFB382
C:\Users\stapi\AppData\Local\Temp\cc07N9HF.s:333    .text.rcu_ahb_clock_config:0000000000000014 .LFE382
C:\Users\stapi\AppData\Local\Temp\cc07N9HF.s:5612   .debug_str:0000000000000a14 .LASF211
C:\Users\stapi\AppData\Local\Temp\cc07N9HF.s:5071   .debug_loc:0000000000000870 .LLST3
C:\Users\stapi\AppData\Local\Temp\cc07N9HF.s:5362   .debug_str:00000000000001b2 .LASF236
C:\Users\stapi\AppData\Local\Temp\cc07N9HF.s:292    .text.rcu_system_clock_source_get:0000000000000000 .LFB381
C:\Users\stapi\AppData\Local\Temp\cc07N9HF.s:303    .text.rcu_system_clock_source_get:000000000000000c .LFE381
C:\Users\stapi\AppData\Local\Temp\cc07N9HF.s:5736   .debug_str:0000000000000e12 .LASF212
C:\Users\stapi\AppData\Local\Temp\cc07N9HF.s:262    .text.rcu_system_clock_source_config:0000000000000000 .LFB380
C:\Users\stapi\AppData\Local\Temp\cc07N9HF.s:285    .text.rcu_system_clock_source_config:0000000000000012 .LFE380
C:\Users\stapi\AppData\Local\Temp\cc07N9HF.s:5774   .debug_str:0000000000000f87 .LASF213
C:\Users\stapi\AppData\Local\Temp\cc07N9HF.s:5087   .debug_loc:0000000000000894 .LLST2
C:\Users\stapi\AppData\Local\Temp\cc07N9HF.s:5326   .debug_str:00000000000000c5 .LASF214
C:\Users\stapi\AppData\Local\Temp\cc07N9HF.s:5644   .debug_str:0000000000000b5a .LASF215
C:\Users\stapi\AppData\Local\Temp\cc07N9HF.s:5502   .debug_str:00000000000006d5 .LASF216
C:\Users\stapi\AppData\Local\Temp\cc07N9HF.s:5368   .debug_str:00000000000001e6 .LASF217
C:\Users\stapi\AppData\Local\Temp\cc07N9HF.s:221    .text.rcu_rfpll_cal_disable:0000000000000000 .LFB377
C:\Users\stapi\AppData\Local\Temp\cc07N9HF.s:233    .text.rcu_rfpll_cal_disable:0000000000000012 .LFE377
C:\Users\stapi\AppData\Local\Temp\cc07N9HF.s:5664   .debug_str:0000000000000bf1 .LASF218
C:\Users\stapi\AppData\Local\Temp\cc07N9HF.s:202    .text.rcu_rfpll_cal_enable:0000000000000000 .LFB376
C:\Users\stapi\AppData\Local\Temp\cc07N9HF.s:214    .text.rcu_rfpll_cal_enable:0000000000000012 .LFE376
C:\Users\stapi\AppData\Local\Temp\cc07N9HF.s:5732   .debug_str:0000000000000dee .LASF219
C:\Users\stapi\AppData\Local\Temp\cc07N9HF.s:183    .text.rcu_bkp_reset_disable:0000000000000000 .LFB375
C:\Users\stapi\AppData\Local\Temp\cc07N9HF.s:195    .text.rcu_bkp_reset_disable:0000000000000012 .LFE375
C:\Users\stapi\AppData\Local\Temp\cc07N9HF.s:5564   .debug_str:00000000000008c9 .LASF220
C:\Users\stapi\AppData\Local\Temp\cc07N9HF.s:164    .text.rcu_bkp_reset_enable:0000000000000000 .LFB374
C:\Users\stapi\AppData\Local\Temp\cc07N9HF.s:176    .text.rcu_bkp_reset_enable:0000000000000012 .LFE374
C:\Users\stapi\AppData\Local\Temp\cc07N9HF.s:5508   .debug_str:0000000000000710 .LASF221
C:\Users\stapi\AppData\Local\Temp\cc07N9HF.s:5550   .debug_str:0000000000000863 .LASF222
C:\Users\stapi\AppData\Local\Temp\cc07N9HF.s:5760   .debug_str:0000000000000f32 .LASF223
C:\Users\stapi\AppData\Local\Temp\cc07N9HF.s:5310   .debug_str:000000000000002f .LASF224
C:\Users\stapi\AppData\Local\Temp\cc07N9HF.s:123    .text.rcu_fmc_clock_sleep_disable:0000000000000000 .LFB371
C:\Users\stapi\AppData\Local\Temp\cc07N9HF.s:135    .text.rcu_fmc_clock_sleep_disable:0000000000000012 .LFE371
C:\Users\stapi\AppData\Local\Temp\cc07N9HF.s:5440   .debug_str:00000000000003df .LASF225
C:\Users\stapi\AppData\Local\Temp\cc07N9HF.s:104    .text.rcu_fmc_clock_sleep_enable:0000000000000000 .LFB370
C:\Users\stapi\AppData\Local\Temp\cc07N9HF.s:116    .text.rcu_fmc_clock_sleep_enable:0000000000000012 .LFE370
C:\Users\stapi\AppData\Local\Temp\cc07N9HF.s:5654   .debug_str:0000000000000ba3 .LASF226
C:\Users\stapi\AppData\Local\Temp\cc07N9HF.s:77     .text.rcu_periph_clock_disable:0000000000000000 .LFB369
C:\Users\stapi\AppData\Local\Temp\cc07N9HF.s:97     .text.rcu_periph_clock_disable:000000000000001c .LFE369
C:\Users\stapi\AppData\Local\Temp\cc07N9HF.s:5408   .debug_str:0000000000000301 .LASF227
C:\Users\stapi\AppData\Local\Temp\cc07N9HF.s:5103   .debug_loc:00000000000008b7 .LLST1
C:\Users\stapi\AppData\Local\Temp\cc07N9HF.s:5548   .debug_str:000000000000084b .LASF228
C:\Users\stapi\AppData\Local\Temp\cc07N9HF.s:53     .text.rcu_periph_clock_enable:0000000000000000 .LFB368
C:\Users\stapi\AppData\Local\Temp\cc07N9HF.s:70     .text.rcu_periph_clock_enable:0000000000000018 .LFE368
C:\Users\stapi\AppData\Local\Temp\cc07N9HF.s:5117   .debug_loc:00000000000008d8 .LLST0
C:\Users\stapi\AppData\Local\Temp\cc07N9HF.s:5524   .debug_str:0000000000000784 .LASF229
C:\Users\stapi\AppData\Local\Temp\cc07N9HF.s:34     .text.rcu_irc16m_dfs_to_rf_disable:0000000000000000 .LFB367
C:\Users\stapi\AppData\Local\Temp\cc07N9HF.s:46     .text.rcu_irc16m_dfs_to_rf_disable:0000000000000010 .LFE367
C:\Users\stapi\AppData\Local\Temp\cc07N9HF.s:5558   .debug_str:0000000000000894 .LASF230
C:\Users\stapi\AppData\Local\Temp\cc07N9HF.s:14     .text.rcu_irc16m_dfs_to_rf_enable:0000000000000000 .LFB366
C:\Users\stapi\AppData\Local\Temp\cc07N9HF.s:27     .text.rcu_irc16m_dfs_to_rf_enable:0000000000000012 .LFE366
C:\Users\stapi\AppData\Local\Temp\cc07N9HF.s:5386   .debug_str:0000000000000269 .LASF231
C:\Users\stapi\AppData\Local\Temp\cc07N9HF.s:1048   .text.rcu_deinit:0000000000000000 .LFB365
C:\Users\stapi\AppData\Local\Temp\cc07N9HF.s:1115   .text.rcu_deinit:0000000000000062 .LFE365
C:\Users\stapi\AppData\Local\Temp\cc07N9HF.s:1068   .text.rcu_deinit:0000000000000022 .LVL93
C:\Users\stapi\AppData\Local\Temp\cc07N9HF.s:5700   .debug_str:0000000000000d07 .LASF237
C:\Users\stapi\AppData\Local\Temp\cc07N9HF.s:5318   .debug_str:000000000000007a .LASF238
C:\Users\stapi\AppData\Local\Temp\cc07N9HF.s:1385   .text.rcu_clock_freq_get:0000000000000000 .LVL110
C:\Users\stapi\AppData\Local\Temp\cc07N9HF.s:1409   .text.rcu_clock_freq_get:000000000000001c .LVL112
C:\Users\stapi\AppData\Local\Temp\cc07N9HF.s:1546   .text.rcu_clock_freq_get:00000000000000c4 .LVL136
C:\Users\stapi\AppData\Local\Temp\cc07N9HF.s:1560   .text.rcu_clock_freq_get:00000000000000c8 .LVL137
C:\Users\stapi\AppData\Local\Temp\cc07N9HF.s:1574   .text.rcu_clock_freq_get:00000000000000dc .LVL141
C:\Users\stapi\AppData\Local\Temp\cc07N9HF.s:1693   .text.rcu_clock_freq_get:0000000000000164 .LVL158
C:\Users\stapi\AppData\Local\Temp\cc07N9HF.s:1444   .text.rcu_clock_freq_get:0000000000000052 .LVL115
C:\Users\stapi\AppData\Local\Temp\cc07N9HF.s:1456   .text.rcu_clock_freq_get:0000000000000064 .LVL117
C:\Users\stapi\AppData\Local\Temp\cc07N9HF.s:1564   .text.rcu_clock_freq_get:00000000000000cc .LVL138
C:\Users\stapi\AppData\Local\Temp\cc07N9HF.s:1567   .text.rcu_clock_freq_get:00000000000000d2 .LVL139
C:\Users\stapi\AppData\Local\Temp\cc07N9HF.s:1571   .text.rcu_clock_freq_get:00000000000000d6 .LVL140
C:\Users\stapi\AppData\Local\Temp\cc07N9HF.s:1392   .text.rcu_clock_freq_get:0000000000000008 .LVL111
C:\Users\stapi\AppData\Local\Temp\cc07N9HF.s:1578   .text.rcu_clock_freq_get:00000000000000de .LVL142
C:\Users\stapi\AppData\Local\Temp\cc07N9HF.s:1589   .text.rcu_clock_freq_get:00000000000000e8 .LVL143
C:\Users\stapi\AppData\Local\Temp\cc07N9HF.s:1599   .text.rcu_clock_freq_get:00000000000000ec .LVL145
C:\Users\stapi\AppData\Local\Temp\cc07N9HF.s:1603   .text.rcu_clock_freq_get:00000000000000f0 .LVL146
C:\Users\stapi\AppData\Local\Temp\cc07N9HF.s:1607   .text.rcu_clock_freq_get:00000000000000f2 .LVL147
C:\Users\stapi\AppData\Local\Temp\cc07N9HF.s:1476   .text.rcu_clock_freq_get:0000000000000078 .LVL121
C:\Users\stapi\AppData\Local\Temp\cc07N9HF.s:1632   .text.rcu_clock_freq_get:0000000000000112 .LVL151
C:\Users\stapi\AppData\Local\Temp\cc07N9HF.s:1640   .text.rcu_clock_freq_get:000000000000011c .LVL152
C:\Users\stapi\AppData\Local\Temp\cc07N9HF.s:1659   .text.rcu_clock_freq_get:0000000000000138 .LVL153
C:\Users\stapi\AppData\Local\Temp\cc07N9HF.s:1684   .text.rcu_clock_freq_get:0000000000000158 .LVL157
C:\Users\stapi\AppData\Local\Temp\cc07N9HF.s:1506   .text.rcu_clock_freq_get:0000000000000096 .LVL127
C:\Users\stapi\AppData\Local\Temp\cc07N9HF.s:1612   .text.rcu_clock_freq_get:00000000000000f6 .LVL148
C:\Users\stapi\AppData\Local\Temp\cc07N9HF.s:1664   .text.rcu_clock_freq_get:000000000000013c .LVL154
C:\Users\stapi\AppData\Local\Temp\cc07N9HF.s:1525   .text.rcu_clock_freq_get:00000000000000a8 .LVL131
C:\Users\stapi\AppData\Local\Temp\cc07N9HF.s:1596   .text.rcu_clock_freq_get:00000000000000ea .LVL144
C:\Users\stapi\AppData\Local\Temp\cc07N9HF.s:1627   .text.rcu_clock_freq_get:000000000000010c .LVL150
C:\Users\stapi\AppData\Local\Temp\cc07N9HF.s:1679   .text.rcu_clock_freq_get:0000000000000152 .LVL156
C:\Users\stapi\AppData\Local\Temp\cc07N9HF.s:1697   .text.rcu_clock_freq_get:0000000000000166 .LVL159
C:\Users\stapi\AppData\Local\Temp\cc07N9HF.s:1538   .text.rcu_clock_freq_get:00000000000000b2 .LVL135
C:\Users\stapi\AppData\Local\Temp\cc07N9HF.s:1452   .text.rcu_clock_freq_get:0000000000000060 .LVL116
C:\Users\stapi\AppData\Local\Temp\cc07N9HF.s:1462   .text.rcu_clock_freq_get:0000000000000068 .LVL118
C:\Users\stapi\AppData\Local\Temp\cc07N9HF.s:1483   .text.rcu_clock_freq_get:0000000000000080 .LVL122
C:\Users\stapi\AppData\Local\Temp\cc07N9HF.s:1493   .text.rcu_clock_freq_get:0000000000000086 .LVL124
C:\Users\stapi\AppData\Local\Temp\cc07N9HF.s:1496   .text.rcu_clock_freq_get:0000000000000088 .LVL125
C:\Users\stapi\AppData\Local\Temp\cc07N9HF.s:1499   .text.rcu_clock_freq_get:000000000000008a .LVL126
C:\Users\stapi\AppData\Local\Temp\cc07N9HF.s:1512   .text.rcu_clock_freq_get:0000000000000098 .LVL128
C:\Users\stapi\AppData\Local\Temp\cc07N9HF.s:1515   .text.rcu_clock_freq_get:000000000000009a .LVL129
C:\Users\stapi\AppData\Local\Temp\cc07N9HF.s:1518   .text.rcu_clock_freq_get:000000000000009c .LVL130
C:\Users\stapi\AppData\Local\Temp\cc07N9HF.s:1530   .text.rcu_clock_freq_get:00000000000000aa .LVL132
C:\Users\stapi\AppData\Local\Temp\cc07N9HF.s:1533   .text.rcu_clock_freq_get:00000000000000ac .LVL133
C:\Users\stapi\AppData\Local\Temp\cc07N9HF.s:1536   .text.rcu_clock_freq_get:00000000000000ae .LVL134
C:\Users\stapi\AppData\Local\Temp\cc07N9HF.s:1488   .text.rcu_clock_freq_get:0000000000000082 .LVL123
C:\Users\stapi\AppData\Local\Temp\cc07N9HF.s:1614   .text.rcu_clock_freq_get:00000000000000fa .LVL149
C:\Users\stapi\AppData\Local\Temp\cc07N9HF.s:1666   .text.rcu_clock_freq_get:0000000000000140 .LVL155
C:\Users\stapi\AppData\Local\Temp\cc07N9HF.s:1470   .text.rcu_clock_freq_get:0000000000000072 .LVL119
C:\Users\stapi\AppData\Local\Temp\cc07N9HF.s:1473   .text.rcu_clock_freq_get:0000000000000074 .LVL120
C:\Users\stapi\AppData\Local\Temp\cc07N9HF.s:1363   .text.rcu_deepsleep_voltage_set:0000000000000000 .LVL108
C:\Users\stapi\AppData\Local\Temp\cc07N9HF.s:1367   .text.rcu_deepsleep_voltage_set:0000000000000002 .LVL109
C:\Users\stapi\AppData\Local\Temp\cc07N9HF.s:1311   .text.rcu_irc16m_adjust_value_set:0000000000000000 .LVL104
C:\Users\stapi\AppData\Local\Temp\cc07N9HF.s:1322   .text.rcu_irc16m_adjust_value_set:000000000000000a .LVL106
C:\Users\stapi\AppData\Local\Temp\cc07N9HF.s:1317   .text.rcu_irc16m_adjust_value_set:0000000000000008 .LVL105
C:\Users\stapi\AppData\Local\Temp\cc07N9HF.s:1326   .text.rcu_irc16m_adjust_value_set:0000000000000012 .LVL107
C:\Users\stapi\AppData\Local\Temp\cc07N9HF.s:1225   .text.rcu_osci_bypass_mode_disable:000000000000001c .LVL100
C:\Users\stapi\AppData\Local\Temp\cc07N9HF.s:1231   .text.rcu_osci_bypass_mode_disable:0000000000000022 .LVL101
C:\Users\stapi\AppData\Local\Temp\cc07N9HF.s:1246   .text.rcu_osci_bypass_mode_disable:0000000000000036 .LVL102
C:\Users\stapi\AppData\Local\Temp\cc07N9HF.s:1252   .text.rcu_osci_bypass_mode_disable:000000000000003a .LVL103
C:\Users\stapi\AppData\Local\Temp\cc07N9HF.s:1162   .text.rcu_osci_bypass_mode_enable:000000000000001c .LVL95
C:\Users\stapi\AppData\Local\Temp\cc07N9HF.s:1168   .text.rcu_osci_bypass_mode_enable:0000000000000022 .LVL96
C:\Users\stapi\AppData\Local\Temp\cc07N9HF.s:1183   .text.rcu_osci_bypass_mode_enable:0000000000000036 .LVL97
C:\Users\stapi\AppData\Local\Temp\cc07N9HF.s:1189   .text.rcu_osci_bypass_mode_enable:000000000000003c .LVL98
C:\Users\stapi\AppData\Local\Temp\cc07N9HF.s:864    .text.rcu_osci_stab_wait:0000000000000000 .LVL59
C:\Users\stapi\AppData\Local\Temp\cc07N9HF.s:885    .text.rcu_osci_stab_wait:0000000000000020 .LVL61
C:\Users\stapi\AppData\Local\Temp\cc07N9HF.s:894    .text.rcu_osci_stab_wait:0000000000000028 .LVL62
C:\Users\stapi\AppData\Local\Temp\cc07N9HF.s:908    .text.rcu_osci_stab_wait:0000000000000044 .LVL63
C:\Users\stapi\AppData\Local\Temp\cc07N9HF.s:960    .text.rcu_osci_stab_wait:000000000000007c .LVL75
C:\Users\stapi\AppData\Local\Temp\cc07N9HF.s:967    .text.rcu_osci_stab_wait:0000000000000086 .LVL76
C:\Users\stapi\AppData\Local\Temp\cc07N9HF.s:989    .text.rcu_osci_stab_wait:000000000000009e .LVL81
C:\Users\stapi\AppData\Local\Temp\cc07N9HF.s:993    .text.rcu_osci_stab_wait:00000000000000a2 .LVL82
C:\Users\stapi\AppData\Local\Temp\cc07N9HF.s:1014   .text.rcu_osci_stab_wait:00000000000000b6 .LVL87
C:\Users\stapi\AppData\Local\Temp\cc07N9HF.s:1019   .text.rcu_osci_stab_wait:00000000000000bc .LVL88
C:\Users\stapi\AppData\Local\Temp\cc07N9HF.s:871    .text.rcu_osci_stab_wait:0000000000000008 .LVL60
C:\Users\stapi\AppData\Local\Temp\cc07N9HF.s:920    .text.rcu_osci_stab_wait:0000000000000052 .LVL65
C:\Users\stapi\AppData\Local\Temp\cc07N9HF.s:922    .text.rcu_osci_stab_wait:0000000000000054 .LVL66
C:\Users\stapi\AppData\Local\Temp\cc07N9HF.s:931    .text.rcu_osci_stab_wait:000000000000005c .LVL68
C:\Users\stapi\AppData\Local\Temp\cc07N9HF.s:942    .text.rcu_osci_stab_wait:000000000000006a .LVL70
C:\Users\stapi\AppData\Local\Temp\cc07N9HF.s:944    .text.rcu_osci_stab_wait:000000000000006c .LVL71
C:\Users\stapi\AppData\Local\Temp\cc07N9HF.s:979    .text.rcu_osci_stab_wait:0000000000000094 .LVL78
C:\Users\stapi\AppData\Local\Temp\cc07N9HF.s:981    .text.rcu_osci_stab_wait:0000000000000096 .LVL79
C:\Users\stapi\AppData\Local\Temp\cc07N9HF.s:1005   .text.rcu_osci_stab_wait:00000000000000b0 .LVL84
C:\Users\stapi\AppData\Local\Temp\cc07N9HF.s:1007   .text.rcu_osci_stab_wait:00000000000000b2 .LVL85
C:\Users\stapi\AppData\Local\Temp\cc07N9HF.s:1031   .text.rcu_osci_stab_wait:00000000000000ca .LVL90
C:\Users\stapi\AppData\Local\Temp\cc07N9HF.s:1033   .text.rcu_osci_stab_wait:00000000000000cc .LVL91
C:\Users\stapi\AppData\Local\Temp\cc07N9HF.s:956    .text.rcu_osci_stab_wait:000000000000007a .LVL74
C:\Users\stapi\AppData\Local\Temp\cc07N9HF.s:927    .text.rcu_osci_stab_wait:0000000000000056 .LVL67
C:\Users\stapi\AppData\Local\Temp\cc07N9HF.s:949    .text.rcu_osci_stab_wait:000000000000006e .LVL72
C:\Users\stapi\AppData\Local\Temp\cc07N9HF.s:986    .text.rcu_osci_stab_wait:0000000000000098 .LVL80
C:\Users\stapi\AppData\Local\Temp\cc07N9HF.s:1012   .text.rcu_osci_stab_wait:00000000000000b4 .LVL86
C:\Users\stapi\AppData\Local\Temp\cc07N9HF.s:1038   .text.rcu_osci_stab_wait:00000000000000ce .LVL92
C:\Users\stapi\AppData\Local\Temp\cc07N9HF.s:840    .text.rcu_lxtal_drive_capability_config:0000000000000008 .LVL56
C:\Users\stapi\AppData\Local\Temp\cc07N9HF.s:845    .text.rcu_lxtal_drive_capability_config:000000000000000a .LVL57
C:\Users\stapi\AppData\Local\Temp\cc07N9HF.s:848    .text.rcu_lxtal_drive_capability_config:000000000000000c .LVL58
C:\Users\stapi\AppData\Local\Temp\cc07N9HF.s:746    .text.rcu_flag_get:0000000000000000 .LVL53
C:\Users\stapi\AppData\Local\Temp\cc07N9HF.s:756    .text.rcu_flag_get:0000000000000014 .LVL54
C:\Users\stapi\AppData\Local\Temp\cc07N9HF.s:708    .text.rcu_timer_clock_prescaler_config:0000000000000000 .LVL49
C:\Users\stapi\AppData\Local\Temp\cc07N9HF.s:721    .text.rcu_timer_clock_prescaler_config:0000000000000014 .LVL50
C:\Users\stapi\AppData\Local\Temp\cc07N9HF.s:727    .text.rcu_timer_clock_prescaler_config:000000000000001a .LVL51
C:\Users\stapi\AppData\Local\Temp\cc07N9HF.s:733    .text.rcu_timer_clock_prescaler_config:0000000000000020 .LVL52
C:\Users\stapi\AppData\Local\Temp\cc07N9HF.s:684    .text.rcu_irc16m_div_config:0000000000000008 .LVL46
C:\Users\stapi\AppData\Local\Temp\cc07N9HF.s:689    .text.rcu_irc16m_div_config:000000000000000c .LVL47
C:\Users\stapi\AppData\Local\Temp\cc07N9HF.s:692    .text.rcu_irc16m_div_config:000000000000000e .LVL48
C:\Users\stapi\AppData\Local\Temp\cc07N9HF.s:654    .text.rcu_usart0_clock_config:0000000000000008 .LVL43
C:\Users\stapi\AppData\Local\Temp\cc07N9HF.s:659    .text.rcu_usart0_clock_config:000000000000000a .LVL44
C:\Users\stapi\AppData\Local\Temp\cc07N9HF.s:623    .text.rcu_i2c0_clock_config:0000000000000008 .LVL40
C:\Users\stapi\AppData\Local\Temp\cc07N9HF.s:630    .text.rcu_i2c0_clock_config:0000000000000010 .LVL41
C:\Users\stapi\AppData\Local\Temp\cc07N9HF.s:593    .text.rcu_trng_div_config:0000000000000008 .LVL36
C:\Users\stapi\AppData\Local\Temp\cc07N9HF.s:598    .text.rcu_trng_div_config:000000000000000c .LVL37
C:\Users\stapi\AppData\Local\Temp\cc07N9HF.s:601    .text.rcu_trng_div_config:000000000000000e .LVL38
C:\Users\stapi\AppData\Local\Temp\cc07N9HF.s:562    .text.rcu_rtc_div_config:0000000000000008 .LVL33
C:\Users\stapi\AppData\Local\Temp\cc07N9HF.s:569    .text.rcu_rtc_div_config:0000000000000010 .LVL34
C:\Users\stapi\AppData\Local\Temp\cc07N9HF.s:532    .text.rcu_rtc_clock_config:0000000000000008 .LVL29
C:\Users\stapi\AppData\Local\Temp\cc07N9HF.s:537    .text.rcu_rtc_clock_config:000000000000000c .LVL30
C:\Users\stapi\AppData\Local\Temp\cc07N9HF.s:540    .text.rcu_rtc_clock_config:000000000000000e .LVL31
C:\Users\stapi\AppData\Local\Temp\cc07N9HF.s:502    .text.rcu_plldigdiv_sys_config:0000000000000008 .LVL26
C:\Users\stapi\AppData\Local\Temp\cc07N9HF.s:507    .text.rcu_plldigdiv_sys_config:000000000000000a .LVL27
C:\Users\stapi\AppData\Local\Temp\cc07N9HF.s:443    .text.rcu_ckout1_config:0000000000000008 .LVL22
C:\Users\stapi\AppData\Local\Temp\cc07N9HF.s:448    .text.rcu_ckout1_config:000000000000000a .LVL23
C:\Users\stapi\AppData\Local\Temp\cc07N9HF.s:411    .text.rcu_ckout0_config:0000000000000008 .LVL19
C:\Users\stapi\AppData\Local\Temp\cc07N9HF.s:418    .text.rcu_ckout0_config:0000000000000010 .LVL20
C:\Users\stapi\AppData\Local\Temp\cc07N9HF.s:380    .text.rcu_apb2_clock_config:0000000000000008 .LVL16
C:\Users\stapi\AppData\Local\Temp\cc07N9HF.s:387    .text.rcu_apb2_clock_config:000000000000000e .LVL17
C:\Users\stapi\AppData\Local\Temp\cc07N9HF.s:349    .text.rcu_apb1_clock_config:0000000000000008 .LVL13
C:\Users\stapi\AppData\Local\Temp\cc07N9HF.s:356    .text.rcu_apb1_clock_config:0000000000000010 .LVL14
C:\Users\stapi\AppData\Local\Temp\cc07N9HF.s:319    .text.rcu_ahb_clock_config:0000000000000008 .LVL9
C:\Users\stapi\AppData\Local\Temp\cc07N9HF.s:324    .text.rcu_ahb_clock_config:000000000000000c .LVL10
C:\Users\stapi\AppData\Local\Temp\cc07N9HF.s:327    .text.rcu_ahb_clock_config:000000000000000e .LVL11
C:\Users\stapi\AppData\Local\Temp\cc07N9HF.s:271    .text.rcu_system_clock_source_config:0000000000000008 .LVL5
C:\Users\stapi\AppData\Local\Temp\cc07N9HF.s:276    .text.rcu_system_clock_source_config:000000000000000a .LVL6
C:\Users\stapi\AppData\Local\Temp\cc07N9HF.s:279    .text.rcu_system_clock_source_config:000000000000000c .LVL7
C:\Users\stapi\AppData\Local\Temp\cc07N9HF.s:80     .text.rcu_periph_clock_disable:0000000000000000 .LVL2
C:\Users\stapi\AppData\Local\Temp\cc07N9HF.s:90     .text.rcu_periph_clock_disable:0000000000000014 .LVL3
C:\Users\stapi\AppData\Local\Temp\cc07N9HF.s:56     .text.rcu_periph_clock_enable:0000000000000000 .LVL0
C:\Users\stapi\AppData\Local\Temp\cc07N9HF.s:65     .text.rcu_periph_clock_enable:0000000000000014 .LVL1
C:\Users\stapi\AppData\Local\Temp\cc07N9HF.s:1728   .debug_info:0000000000000000 .Ldebug_info0

UNDEFINED SYMBOLS
__riscv_save_2
__riscv_restore_2
memcpy
