   1              		.file	"gd32vw55x_i2c.c"
   2              		.option nopic
   3              		.attribute arch, "rv32i2p0_m2p0_a2p0_f2p0_c2p0_b_p0p94"
   4              		.attribute unaligned_access, 0
   5              		.attribute stack_align, 16
   6              		.text
   7              	.Ltext0:
   8              		.cfi_sections	.debug_frame
   9              		.section	.text.i2c_deinit,"ax",@progbits
  10              		.align	1
  11              		.globl	i2c_deinit
  13              	i2c_deinit:
  14              	.LFB365:
  15              		.file 1 "C:/Users/stapi/OneDrive/Desktop/GD32VW553/GD32VW55X_Wifi_BLE_SDK/GD32VW55x_RELEASE_V1.0.2
   1:C:/Users/stapi/OneDrive/Desktop/GD32VW553/GD32VW55X_Wifi_BLE_SDK/GD32VW55x_RELEASE_V1.0.2/MSDK/plf/GD32VW55x_standard_peripheral/Source\gd32vw55x_i2c.c **** /*!
   2:C:/Users/stapi/OneDrive/Desktop/GD32VW553/GD32VW55X_Wifi_BLE_SDK/GD32VW55x_RELEASE_V1.0.2/MSDK/plf/GD32VW55x_standard_peripheral/Source\gd32vw55x_i2c.c ****     \file    gd32vw55x_i2c.c
   3:C:/Users/stapi/OneDrive/Desktop/GD32VW553/GD32VW55X_Wifi_BLE_SDK/GD32VW55x_RELEASE_V1.0.2/MSDK/plf/GD32VW55x_standard_peripheral/Source\gd32vw55x_i2c.c ****     \brief   I2C driver
   4:C:/Users/stapi/OneDrive/Desktop/GD32VW553/GD32VW55X_Wifi_BLE_SDK/GD32VW55x_RELEASE_V1.0.2/MSDK/plf/GD32VW55x_standard_peripheral/Source\gd32vw55x_i2c.c **** 
   5:C:/Users/stapi/OneDrive/Desktop/GD32VW553/GD32VW55X_Wifi_BLE_SDK/GD32VW55x_RELEASE_V1.0.2/MSDK/plf/GD32VW55x_standard_peripheral/Source\gd32vw55x_i2c.c ****     \version 2023-07-20, V1.0.0, firmware for GD32VW55x
   6:C:/Users/stapi/OneDrive/Desktop/GD32VW553/GD32VW55X_Wifi_BLE_SDK/GD32VW55x_RELEASE_V1.0.2/MSDK/plf/GD32VW55x_standard_peripheral/Source\gd32vw55x_i2c.c **** */
   7:C:/Users/stapi/OneDrive/Desktop/GD32VW553/GD32VW55X_Wifi_BLE_SDK/GD32VW55x_RELEASE_V1.0.2/MSDK/plf/GD32VW55x_standard_peripheral/Source\gd32vw55x_i2c.c **** 
   8:C:/Users/stapi/OneDrive/Desktop/GD32VW553/GD32VW55X_Wifi_BLE_SDK/GD32VW55x_RELEASE_V1.0.2/MSDK/plf/GD32VW55x_standard_peripheral/Source\gd32vw55x_i2c.c **** /*
   9:C:/Users/stapi/OneDrive/Desktop/GD32VW553/GD32VW55X_Wifi_BLE_SDK/GD32VW55x_RELEASE_V1.0.2/MSDK/plf/GD32VW55x_standard_peripheral/Source\gd32vw55x_i2c.c ****     Copyright (c) 2023, GigaDevice Semiconductor Inc.
  10:C:/Users/stapi/OneDrive/Desktop/GD32VW553/GD32VW55X_Wifi_BLE_SDK/GD32VW55x_RELEASE_V1.0.2/MSDK/plf/GD32VW55x_standard_peripheral/Source\gd32vw55x_i2c.c **** 
  11:C:/Users/stapi/OneDrive/Desktop/GD32VW553/GD32VW55X_Wifi_BLE_SDK/GD32VW55x_RELEASE_V1.0.2/MSDK/plf/GD32VW55x_standard_peripheral/Source\gd32vw55x_i2c.c ****     Redistribution and use in source and binary forms, with or without modification,
  12:C:/Users/stapi/OneDrive/Desktop/GD32VW553/GD32VW55X_Wifi_BLE_SDK/GD32VW55x_RELEASE_V1.0.2/MSDK/plf/GD32VW55x_standard_peripheral/Source\gd32vw55x_i2c.c **** are permitted provided that the following conditions are met:
  13:C:/Users/stapi/OneDrive/Desktop/GD32VW553/GD32VW55X_Wifi_BLE_SDK/GD32VW55x_RELEASE_V1.0.2/MSDK/plf/GD32VW55x_standard_peripheral/Source\gd32vw55x_i2c.c **** 
  14:C:/Users/stapi/OneDrive/Desktop/GD32VW553/GD32VW55X_Wifi_BLE_SDK/GD32VW55x_RELEASE_V1.0.2/MSDK/plf/GD32VW55x_standard_peripheral/Source\gd32vw55x_i2c.c ****     1. Redistributions of source code must retain the above copyright notice, this
  15:C:/Users/stapi/OneDrive/Desktop/GD32VW553/GD32VW55X_Wifi_BLE_SDK/GD32VW55x_RELEASE_V1.0.2/MSDK/plf/GD32VW55x_standard_peripheral/Source\gd32vw55x_i2c.c ****        list of conditions and the following disclaimer.
  16:C:/Users/stapi/OneDrive/Desktop/GD32VW553/GD32VW55X_Wifi_BLE_SDK/GD32VW55x_RELEASE_V1.0.2/MSDK/plf/GD32VW55x_standard_peripheral/Source\gd32vw55x_i2c.c ****     2. Redistributions in binary form must reproduce the above copyright notice,
  17:C:/Users/stapi/OneDrive/Desktop/GD32VW553/GD32VW55X_Wifi_BLE_SDK/GD32VW55x_RELEASE_V1.0.2/MSDK/plf/GD32VW55x_standard_peripheral/Source\gd32vw55x_i2c.c ****        this list of conditions and the following disclaimer in the documentation
  18:C:/Users/stapi/OneDrive/Desktop/GD32VW553/GD32VW55X_Wifi_BLE_SDK/GD32VW55x_RELEASE_V1.0.2/MSDK/plf/GD32VW55x_standard_peripheral/Source\gd32vw55x_i2c.c ****        and/or other materials provided with the distribution.
  19:C:/Users/stapi/OneDrive/Desktop/GD32VW553/GD32VW55X_Wifi_BLE_SDK/GD32VW55x_RELEASE_V1.0.2/MSDK/plf/GD32VW55x_standard_peripheral/Source\gd32vw55x_i2c.c ****     3. Neither the name of the copyright holder nor the names of its contributors
  20:C:/Users/stapi/OneDrive/Desktop/GD32VW553/GD32VW55X_Wifi_BLE_SDK/GD32VW55x_RELEASE_V1.0.2/MSDK/plf/GD32VW55x_standard_peripheral/Source\gd32vw55x_i2c.c ****        may be used to endorse or promote products derived from this software without
  21:C:/Users/stapi/OneDrive/Desktop/GD32VW553/GD32VW55X_Wifi_BLE_SDK/GD32VW55x_RELEASE_V1.0.2/MSDK/plf/GD32VW55x_standard_peripheral/Source\gd32vw55x_i2c.c ****        specific prior written permission.
  22:C:/Users/stapi/OneDrive/Desktop/GD32VW553/GD32VW55X_Wifi_BLE_SDK/GD32VW55x_RELEASE_V1.0.2/MSDK/plf/GD32VW55x_standard_peripheral/Source\gd32vw55x_i2c.c **** 
  23:C:/Users/stapi/OneDrive/Desktop/GD32VW553/GD32VW55X_Wifi_BLE_SDK/GD32VW55x_RELEASE_V1.0.2/MSDK/plf/GD32VW55x_standard_peripheral/Source\gd32vw55x_i2c.c ****     THIS SOFTWARE IS PROVIDED BY THE COPYRIGHT HOLDERS AND CONTRIBUTORS "AS IS"
  24:C:/Users/stapi/OneDrive/Desktop/GD32VW553/GD32VW55X_Wifi_BLE_SDK/GD32VW55x_RELEASE_V1.0.2/MSDK/plf/GD32VW55x_standard_peripheral/Source\gd32vw55x_i2c.c **** AND ANY EXPRESS OR IMPLIED WARRANTIES, INCLUDING, BUT NOT LIMITED TO, THE IMPLIED
  25:C:/Users/stapi/OneDrive/Desktop/GD32VW553/GD32VW55X_Wifi_BLE_SDK/GD32VW55x_RELEASE_V1.0.2/MSDK/plf/GD32VW55x_standard_peripheral/Source\gd32vw55x_i2c.c **** WARRANTIES OF MERCHANTABILITY AND FITNESS FOR A PARTICULAR PURPOSE ARE DISCLAIMED.
  26:C:/Users/stapi/OneDrive/Desktop/GD32VW553/GD32VW55X_Wifi_BLE_SDK/GD32VW55x_RELEASE_V1.0.2/MSDK/plf/GD32VW55x_standard_peripheral/Source\gd32vw55x_i2c.c **** IN NO EVENT SHALL THE COPYRIGHT HOLDER OR CONTRIBUTORS BE LIABLE FOR ANY DIRECT,
  27:C:/Users/stapi/OneDrive/Desktop/GD32VW553/GD32VW55X_Wifi_BLE_SDK/GD32VW55x_RELEASE_V1.0.2/MSDK/plf/GD32VW55x_standard_peripheral/Source\gd32vw55x_i2c.c **** INDIRECT, INCIDENTAL, SPECIAL, EXEMPLARY, OR CONSEQUENTIAL DAMAGES (INCLUDING, BUT
  28:C:/Users/stapi/OneDrive/Desktop/GD32VW553/GD32VW55X_Wifi_BLE_SDK/GD32VW55x_RELEASE_V1.0.2/MSDK/plf/GD32VW55x_standard_peripheral/Source\gd32vw55x_i2c.c **** NOT LIMITED TO, PROCUREMENT OF SUBSTITUTE GOODS OR SERVICES; LOSS OF USE, DATA, OR
  29:C:/Users/stapi/OneDrive/Desktop/GD32VW553/GD32VW55X_Wifi_BLE_SDK/GD32VW55x_RELEASE_V1.0.2/MSDK/plf/GD32VW55x_standard_peripheral/Source\gd32vw55x_i2c.c **** PROFITS; OR BUSINESS INTERRUPTION) HOWEVER CAUSED AND ON ANY THEORY OF LIABILITY,
  30:C:/Users/stapi/OneDrive/Desktop/GD32VW553/GD32VW55X_Wifi_BLE_SDK/GD32VW55x_RELEASE_V1.0.2/MSDK/plf/GD32VW55x_standard_peripheral/Source\gd32vw55x_i2c.c **** WHETHER IN CONTRACT, STRICT LIABILITY, OR TORT (INCLUDING NEGLIGENCE OR OTHERWISE)
  31:C:/Users/stapi/OneDrive/Desktop/GD32VW553/GD32VW55X_Wifi_BLE_SDK/GD32VW55x_RELEASE_V1.0.2/MSDK/plf/GD32VW55x_standard_peripheral/Source\gd32vw55x_i2c.c **** ARISING IN ANY WAY OUT OF THE USE OF THIS SOFTWARE, EVEN IF ADVISED OF THE POSSIBILITY
  32:C:/Users/stapi/OneDrive/Desktop/GD32VW553/GD32VW55X_Wifi_BLE_SDK/GD32VW55x_RELEASE_V1.0.2/MSDK/plf/GD32VW55x_standard_peripheral/Source\gd32vw55x_i2c.c **** OF SUCH DAMAGE.
  33:C:/Users/stapi/OneDrive/Desktop/GD32VW553/GD32VW55X_Wifi_BLE_SDK/GD32VW55x_RELEASE_V1.0.2/MSDK/plf/GD32VW55x_standard_peripheral/Source\gd32vw55x_i2c.c **** */
  34:C:/Users/stapi/OneDrive/Desktop/GD32VW553/GD32VW55X_Wifi_BLE_SDK/GD32VW55x_RELEASE_V1.0.2/MSDK/plf/GD32VW55x_standard_peripheral/Source\gd32vw55x_i2c.c **** 
  35:C:/Users/stapi/OneDrive/Desktop/GD32VW553/GD32VW55X_Wifi_BLE_SDK/GD32VW55x_RELEASE_V1.0.2/MSDK/plf/GD32VW55x_standard_peripheral/Source\gd32vw55x_i2c.c **** #include "gd32vw55x_i2c.h"
  36:C:/Users/stapi/OneDrive/Desktop/GD32VW553/GD32VW55X_Wifi_BLE_SDK/GD32VW55x_RELEASE_V1.0.2/MSDK/plf/GD32VW55x_standard_peripheral/Source\gd32vw55x_i2c.c **** 
  37:C:/Users/stapi/OneDrive/Desktop/GD32VW553/GD32VW55X_Wifi_BLE_SDK/GD32VW55x_RELEASE_V1.0.2/MSDK/plf/GD32VW55x_standard_peripheral/Source\gd32vw55x_i2c.c **** /* I2C register bit mask */
  38:C:/Users/stapi/OneDrive/Desktop/GD32VW553/GD32VW55X_Wifi_BLE_SDK/GD32VW55x_RELEASE_V1.0.2/MSDK/plf/GD32VW55x_standard_peripheral/Source\gd32vw55x_i2c.c **** #define I2C_ADDRESS_MASK              ((uint32_t)0x000003FFU)               /*!< i2c address mask *
  39:C:/Users/stapi/OneDrive/Desktop/GD32VW553/GD32VW55X_Wifi_BLE_SDK/GD32VW55x_RELEASE_V1.0.2/MSDK/plf/GD32VW55x_standard_peripheral/Source\gd32vw55x_i2c.c **** #define I2C_ADDRESS2_MASK             ((uint32_t)0x000000FEU)               /*!< the second i2c add
  40:C:/Users/stapi/OneDrive/Desktop/GD32VW553/GD32VW55X_Wifi_BLE_SDK/GD32VW55x_RELEASE_V1.0.2/MSDK/plf/GD32VW55x_standard_peripheral/Source\gd32vw55x_i2c.c **** 
  41:C:/Users/stapi/OneDrive/Desktop/GD32VW553/GD32VW55X_Wifi_BLE_SDK/GD32VW55x_RELEASE_V1.0.2/MSDK/plf/GD32VW55x_standard_peripheral/Source\gd32vw55x_i2c.c **** /* I2C register bit offset */
  42:C:/Users/stapi/OneDrive/Desktop/GD32VW553/GD32VW55X_Wifi_BLE_SDK/GD32VW55x_RELEASE_V1.0.2/MSDK/plf/GD32VW55x_standard_peripheral/Source\gd32vw55x_i2c.c **** #define CTL0_DNF_OFFSET               ((uint32_t)0x00000008U)               /*!< bit offset of DNF 
  43:C:/Users/stapi/OneDrive/Desktop/GD32VW553/GD32VW55X_Wifi_BLE_SDK/GD32VW55x_RELEASE_V1.0.2/MSDK/plf/GD32VW55x_standard_peripheral/Source\gd32vw55x_i2c.c **** #define CTL1_BYTENUM_OFFSET           ((uint32_t)0x00000010U)               /*!< bit offset of BYTE
  44:C:/Users/stapi/OneDrive/Desktop/GD32VW553/GD32VW55X_Wifi_BLE_SDK/GD32VW55x_RELEASE_V1.0.2/MSDK/plf/GD32VW55x_standard_peripheral/Source\gd32vw55x_i2c.c **** #define STAT_READDR_OFFSET            ((uint32_t)0x00000011U)               /*!< bit offset of READ
  45:C:/Users/stapi/OneDrive/Desktop/GD32VW553/GD32VW55X_Wifi_BLE_SDK/GD32VW55x_RELEASE_V1.0.2/MSDK/plf/GD32VW55x_standard_peripheral/Source\gd32vw55x_i2c.c **** #define TIMING_SCLL_OFFSET            ((uint32_t)0x00000000U)               /*!< bit offset of SCLL
  46:C:/Users/stapi/OneDrive/Desktop/GD32VW553/GD32VW55X_Wifi_BLE_SDK/GD32VW55x_RELEASE_V1.0.2/MSDK/plf/GD32VW55x_standard_peripheral/Source\gd32vw55x_i2c.c **** #define TIMING_SCLH_OFFSET            ((uint32_t)0x00000008U)               /*!< bit offset of SCLH
  47:C:/Users/stapi/OneDrive/Desktop/GD32VW553/GD32VW55X_Wifi_BLE_SDK/GD32VW55x_RELEASE_V1.0.2/MSDK/plf/GD32VW55x_standard_peripheral/Source\gd32vw55x_i2c.c **** #define TIMING_SDADELY_OFFSET         ((uint32_t)0x00000010U)               /*!< bit offset of SDAD
  48:C:/Users/stapi/OneDrive/Desktop/GD32VW553/GD32VW55X_Wifi_BLE_SDK/GD32VW55x_RELEASE_V1.0.2/MSDK/plf/GD32VW55x_standard_peripheral/Source\gd32vw55x_i2c.c **** #define TIMING_SCLDELY_OFFSET         ((uint32_t)0x00000014U)               /*!< bit offset of SCLD
  49:C:/Users/stapi/OneDrive/Desktop/GD32VW553/GD32VW55X_Wifi_BLE_SDK/GD32VW55x_RELEASE_V1.0.2/MSDK/plf/GD32VW55x_standard_peripheral/Source\gd32vw55x_i2c.c **** #define TIMING_PSC_OFFSET             ((uint32_t)0x0000001CU)               /*!< bit offset of PSC 
  50:C:/Users/stapi/OneDrive/Desktop/GD32VW553/GD32VW55X_Wifi_BLE_SDK/GD32VW55x_RELEASE_V1.0.2/MSDK/plf/GD32VW55x_standard_peripheral/Source\gd32vw55x_i2c.c **** #define SADDR1_ADDMSK_OFFSET          ((uint32_t)0x00000008U)               /*!< bit offset of ADDM
  51:C:/Users/stapi/OneDrive/Desktop/GD32VW553/GD32VW55X_Wifi_BLE_SDK/GD32VW55x_RELEASE_V1.0.2/MSDK/plf/GD32VW55x_standard_peripheral/Source\gd32vw55x_i2c.c **** #define TIMEOUT_BUSTOB_OFFSET         ((uint32_t)0x00000010U)               /*!< bit offset of BUST
  52:C:/Users/stapi/OneDrive/Desktop/GD32VW553/GD32VW55X_Wifi_BLE_SDK/GD32VW55x_RELEASE_V1.0.2/MSDK/plf/GD32VW55x_standard_peripheral/Source\gd32vw55x_i2c.c **** 
  53:C:/Users/stapi/OneDrive/Desktop/GD32VW553/GD32VW55X_Wifi_BLE_SDK/GD32VW55x_RELEASE_V1.0.2/MSDK/plf/GD32VW55x_standard_peripheral/Source\gd32vw55x_i2c.c **** /*!
  54:C:/Users/stapi/OneDrive/Desktop/GD32VW553/GD32VW55X_Wifi_BLE_SDK/GD32VW55x_RELEASE_V1.0.2/MSDK/plf/GD32VW55x_standard_peripheral/Source\gd32vw55x_i2c.c ****     \brief      reset I2C
  55:C:/Users/stapi/OneDrive/Desktop/GD32VW553/GD32VW55X_Wifi_BLE_SDK/GD32VW55x_RELEASE_V1.0.2/MSDK/plf/GD32VW55x_standard_peripheral/Source\gd32vw55x_i2c.c ****     \param[in]  i2c_periph: I2Cx(x=0,1)
  56:C:/Users/stapi/OneDrive/Desktop/GD32VW553/GD32VW55X_Wifi_BLE_SDK/GD32VW55x_RELEASE_V1.0.2/MSDK/plf/GD32VW55x_standard_peripheral/Source\gd32vw55x_i2c.c ****     \param[out] none
  57:C:/Users/stapi/OneDrive/Desktop/GD32VW553/GD32VW55X_Wifi_BLE_SDK/GD32VW55x_RELEASE_V1.0.2/MSDK/plf/GD32VW55x_standard_peripheral/Source\gd32vw55x_i2c.c ****     \retval     none
  58:C:/Users/stapi/OneDrive/Desktop/GD32VW553/GD32VW55X_Wifi_BLE_SDK/GD32VW55x_RELEASE_V1.0.2/MSDK/plf/GD32VW55x_standard_peripheral/Source\gd32vw55x_i2c.c **** */
  59:C:/Users/stapi/OneDrive/Desktop/GD32VW553/GD32VW55X_Wifi_BLE_SDK/GD32VW55x_RELEASE_V1.0.2/MSDK/plf/GD32VW55x_standard_peripheral/Source\gd32vw55x_i2c.c **** void i2c_deinit(uint32_t i2c_periph)
  60:C:/Users/stapi/OneDrive/Desktop/GD32VW553/GD32VW55X_Wifi_BLE_SDK/GD32VW55x_RELEASE_V1.0.2/MSDK/plf/GD32VW55x_standard_peripheral/Source\gd32vw55x_i2c.c **** {
  16              		.loc 1 60 1
  17              		.cfi_startproc
  18              	.LVL0:
  19 0000 17030000 		call	t0,__riscv_save_1
  19      E7020300 
  20              		.cfi_offset 8, -8
  21              		.cfi_offset 1, -4
  22              		.cfi_def_cfa_offset 16
  61:C:/Users/stapi/OneDrive/Desktop/GD32VW553/GD32VW55X_Wifi_BLE_SDK/GD32VW55x_RELEASE_V1.0.2/MSDK/plf/GD32VW55x_standard_peripheral/Source\gd32vw55x_i2c.c ****     switch(i2c_periph){
  23              		.loc 1 61 5
  24 0008 B7570040 		li	a5,1073762304
  25 000c 93870740 		addi	a5,a5,1024
  26 0010 630CF500 		beq	a0,a5,.L2
  27 0014 B7670040 		li	a5,1073766400
  28 0018 93870780 		addi	a5,a5,-2048
  29 001c 6304F502 		beq	a0,a5,.L3
  30              	.LVL1:
  31              	.L1:
  62:C:/Users/stapi/OneDrive/Desktop/GD32VW553/GD32VW55X_Wifi_BLE_SDK/GD32VW55x_RELEASE_V1.0.2/MSDK/plf/GD32VW55x_standard_peripheral/Source\gd32vw55x_i2c.c ****     case I2C0:
  63:C:/Users/stapi/OneDrive/Desktop/GD32VW553/GD32VW55X_Wifi_BLE_SDK/GD32VW55x_RELEASE_V1.0.2/MSDK/plf/GD32VW55x_standard_peripheral/Source\gd32vw55x_i2c.c ****         /* reset I2C0 */
  64:C:/Users/stapi/OneDrive/Desktop/GD32VW553/GD32VW55X_Wifi_BLE_SDK/GD32VW55x_RELEASE_V1.0.2/MSDK/plf/GD32VW55x_standard_peripheral/Source\gd32vw55x_i2c.c ****         rcu_periph_reset_enable(RCU_I2C0RST);
  65:C:/Users/stapi/OneDrive/Desktop/GD32VW553/GD32VW55X_Wifi_BLE_SDK/GD32VW55x_RELEASE_V1.0.2/MSDK/plf/GD32VW55x_standard_peripheral/Source\gd32vw55x_i2c.c ****         rcu_periph_reset_disable(RCU_I2C0RST);
  66:C:/Users/stapi/OneDrive/Desktop/GD32VW553/GD32VW55X_Wifi_BLE_SDK/GD32VW55x_RELEASE_V1.0.2/MSDK/plf/GD32VW55x_standard_peripheral/Source\gd32vw55x_i2c.c ****         break;
  67:C:/Users/stapi/OneDrive/Desktop/GD32VW553/GD32VW55X_Wifi_BLE_SDK/GD32VW55x_RELEASE_V1.0.2/MSDK/plf/GD32VW55x_standard_peripheral/Source\gd32vw55x_i2c.c ****     case I2C1:
  68:C:/Users/stapi/OneDrive/Desktop/GD32VW553/GD32VW55X_Wifi_BLE_SDK/GD32VW55x_RELEASE_V1.0.2/MSDK/plf/GD32VW55x_standard_peripheral/Source\gd32vw55x_i2c.c ****         /* reset I2C1 */
  69:C:/Users/stapi/OneDrive/Desktop/GD32VW553/GD32VW55X_Wifi_BLE_SDK/GD32VW55x_RELEASE_V1.0.2/MSDK/plf/GD32VW55x_standard_peripheral/Source\gd32vw55x_i2c.c ****         rcu_periph_reset_enable(RCU_I2C1RST);
  70:C:/Users/stapi/OneDrive/Desktop/GD32VW553/GD32VW55X_Wifi_BLE_SDK/GD32VW55x_RELEASE_V1.0.2/MSDK/plf/GD32VW55x_standard_peripheral/Source\gd32vw55x_i2c.c ****         rcu_periph_reset_disable(RCU_I2C1RST);
  71:C:/Users/stapi/OneDrive/Desktop/GD32VW553/GD32VW55X_Wifi_BLE_SDK/GD32VW55x_RELEASE_V1.0.2/MSDK/plf/GD32VW55x_standard_peripheral/Source\gd32vw55x_i2c.c ****         break;
  72:C:/Users/stapi/OneDrive/Desktop/GD32VW553/GD32VW55X_Wifi_BLE_SDK/GD32VW55x_RELEASE_V1.0.2/MSDK/plf/GD32VW55x_standard_peripheral/Source\gd32vw55x_i2c.c ****     default:
  73:C:/Users/stapi/OneDrive/Desktop/GD32VW553/GD32VW55X_Wifi_BLE_SDK/GD32VW55x_RELEASE_V1.0.2/MSDK/plf/GD32VW55x_standard_peripheral/Source\gd32vw55x_i2c.c ****         break;
  74:C:/Users/stapi/OneDrive/Desktop/GD32VW553/GD32VW55X_Wifi_BLE_SDK/GD32VW55x_RELEASE_V1.0.2/MSDK/plf/GD32VW55x_standard_peripheral/Source\gd32vw55x_i2c.c ****     }
  75:C:/Users/stapi/OneDrive/Desktop/GD32VW553/GD32VW55X_Wifi_BLE_SDK/GD32VW55x_RELEASE_V1.0.2/MSDK/plf/GD32VW55x_standard_peripheral/Source\gd32vw55x_i2c.c **** }
  32              		.loc 1 75 1 is_stmt 0
  33 0020 17030000 		tail	__riscv_restore_1
  33      67000300 
  34              		.cfi_remember_state
  35              		.cfi_restore 8
  36              		.cfi_restore 1
  37              		.cfi_def_cfa_offset 0
  38              	.LVL2:
  39              	.L2:
  40              		.cfi_restore_state
  64:C:/Users/stapi/OneDrive/Desktop/GD32VW553/GD32VW55X_Wifi_BLE_SDK/GD32VW55x_RELEASE_V1.0.2/MSDK/plf/GD32VW55x_standard_peripheral/Source\gd32vw55x_i2c.c ****         rcu_periph_reset_disable(RCU_I2C0RST);
  41              		.loc 1 64 9 is_stmt 1
  42 0028 0564     		li	s0,4096
  43 002a 13055481 		addi	a0,s0,-2027
  44              	.LVL3:
  45 002e 97000000 		call	rcu_periph_reset_enable
  45      E7800000 
  46              	.LVL4:
  65:C:/Users/stapi/OneDrive/Desktop/GD32VW553/GD32VW55X_Wifi_BLE_SDK/GD32VW55x_RELEASE_V1.0.2/MSDK/plf/GD32VW55x_standard_peripheral/Source\gd32vw55x_i2c.c ****         break;
  47              		.loc 1 65 9
  48 0036 13055481 		addi	a0,s0,-2027
  49              	.L6:
  70:C:/Users/stapi/OneDrive/Desktop/GD32VW553/GD32VW55X_Wifi_BLE_SDK/GD32VW55x_RELEASE_V1.0.2/MSDK/plf/GD32VW55x_standard_peripheral/Source\gd32vw55x_i2c.c ****         break;
  50              		.loc 1 70 9 is_stmt 0
  51 003a 97000000 		call	rcu_periph_reset_disable
  51      E7800000 
  52              	.LVL5:
  71:C:/Users/stapi/OneDrive/Desktop/GD32VW553/GD32VW55X_Wifi_BLE_SDK/GD32VW55x_RELEASE_V1.0.2/MSDK/plf/GD32VW55x_standard_peripheral/Source\gd32vw55x_i2c.c ****     default:
  53              		.loc 1 71 9 is_stmt 1
  54              		.loc 1 75 1 is_stmt 0
  55 0042 F9BF     		j	.L1
  56              	.LVL6:
  57              	.L3:
  69:C:/Users/stapi/OneDrive/Desktop/GD32VW553/GD32VW55X_Wifi_BLE_SDK/GD32VW55x_RELEASE_V1.0.2/MSDK/plf/GD32VW55x_standard_peripheral/Source\gd32vw55x_i2c.c ****         rcu_periph_reset_disable(RCU_I2C1RST);
  58              		.loc 1 69 9 is_stmt 1
  59 0044 0564     		li	s0,4096
  60 0046 13056481 		addi	a0,s0,-2026
  61              	.LVL7:
  62 004a 97000000 		call	rcu_periph_reset_enable
  62      E7800000 
  63              	.LVL8:
  70:C:/Users/stapi/OneDrive/Desktop/GD32VW553/GD32VW55X_Wifi_BLE_SDK/GD32VW55x_RELEASE_V1.0.2/MSDK/plf/GD32VW55x_standard_peripheral/Source\gd32vw55x_i2c.c ****         break;
  64              		.loc 1 70 9
  65 0052 13056481 		addi	a0,s0,-2026
  66 0056 D5B7     		j	.L6
  67              		.cfi_endproc
  68              	.LFE365:
  70              		.section	.text.i2c_timing_config,"ax",@progbits
  71              		.align	1
  72              		.globl	i2c_timing_config
  74              	i2c_timing_config:
  75              	.LFB366:
  76:C:/Users/stapi/OneDrive/Desktop/GD32VW553/GD32VW55X_Wifi_BLE_SDK/GD32VW55x_RELEASE_V1.0.2/MSDK/plf/GD32VW55x_standard_peripheral/Source\gd32vw55x_i2c.c **** 
  77:C:/Users/stapi/OneDrive/Desktop/GD32VW553/GD32VW55X_Wifi_BLE_SDK/GD32VW55x_RELEASE_V1.0.2/MSDK/plf/GD32VW55x_standard_peripheral/Source\gd32vw55x_i2c.c **** /*!
  78:C:/Users/stapi/OneDrive/Desktop/GD32VW553/GD32VW55X_Wifi_BLE_SDK/GD32VW55x_RELEASE_V1.0.2/MSDK/plf/GD32VW55x_standard_peripheral/Source\gd32vw55x_i2c.c ****     \brief      configure the timing parameters
  79:C:/Users/stapi/OneDrive/Desktop/GD32VW553/GD32VW55X_Wifi_BLE_SDK/GD32VW55x_RELEASE_V1.0.2/MSDK/plf/GD32VW55x_standard_peripheral/Source\gd32vw55x_i2c.c ****     \param[in]  i2c_periph: I2Cx(x=0,1)
  80:C:/Users/stapi/OneDrive/Desktop/GD32VW553/GD32VW55X_Wifi_BLE_SDK/GD32VW55x_RELEASE_V1.0.2/MSDK/plf/GD32VW55x_standard_peripheral/Source\gd32vw55x_i2c.c ****     \param[in]  psc: 0-0x0000000F, timing prescaler
  81:C:/Users/stapi/OneDrive/Desktop/GD32VW553/GD32VW55X_Wifi_BLE_SDK/GD32VW55x_RELEASE_V1.0.2/MSDK/plf/GD32VW55x_standard_peripheral/Source\gd32vw55x_i2c.c ****     \param[in]  scl_dely: 0-0x0000000F, data setup time
  82:C:/Users/stapi/OneDrive/Desktop/GD32VW553/GD32VW55X_Wifi_BLE_SDK/GD32VW55x_RELEASE_V1.0.2/MSDK/plf/GD32VW55x_standard_peripheral/Source\gd32vw55x_i2c.c ****     \param[in]  sda_dely: 0-0x0000000F, data hold time
  83:C:/Users/stapi/OneDrive/Desktop/GD32VW553/GD32VW55X_Wifi_BLE_SDK/GD32VW55x_RELEASE_V1.0.2/MSDK/plf/GD32VW55x_standard_peripheral/Source\gd32vw55x_i2c.c ****     \param[out] none
  84:C:/Users/stapi/OneDrive/Desktop/GD32VW553/GD32VW55X_Wifi_BLE_SDK/GD32VW55x_RELEASE_V1.0.2/MSDK/plf/GD32VW55x_standard_peripheral/Source\gd32vw55x_i2c.c ****     \retval     none
  85:C:/Users/stapi/OneDrive/Desktop/GD32VW553/GD32VW55X_Wifi_BLE_SDK/GD32VW55x_RELEASE_V1.0.2/MSDK/plf/GD32VW55x_standard_peripheral/Source\gd32vw55x_i2c.c **** */
  86:C:/Users/stapi/OneDrive/Desktop/GD32VW553/GD32VW55X_Wifi_BLE_SDK/GD32VW55x_RELEASE_V1.0.2/MSDK/plf/GD32VW55x_standard_peripheral/Source\gd32vw55x_i2c.c **** void i2c_timing_config(uint32_t i2c_periph, uint32_t psc, uint32_t scl_dely, uint32_t sda_dely)
  87:C:/Users/stapi/OneDrive/Desktop/GD32VW553/GD32VW55X_Wifi_BLE_SDK/GD32VW55x_RELEASE_V1.0.2/MSDK/plf/GD32VW55x_standard_peripheral/Source\gd32vw55x_i2c.c **** {
  76              		.loc 1 87 1
  77              		.cfi_startproc
  78              	.LVL9:
  88:C:/Users/stapi/OneDrive/Desktop/GD32VW553/GD32VW55X_Wifi_BLE_SDK/GD32VW55x_RELEASE_V1.0.2/MSDK/plf/GD32VW55x_standard_peripheral/Source\gd32vw55x_i2c.c ****     /* clear PSC, SCLDELY, SDADELY bits in I2C_TIMING register */
  89:C:/Users/stapi/OneDrive/Desktop/GD32VW553/GD32VW55X_Wifi_BLE_SDK/GD32VW55x_RELEASE_V1.0.2/MSDK/plf/GD32VW55x_standard_peripheral/Source\gd32vw55x_i2c.c ****     I2C_TIMING(i2c_periph) &= ~I2C_TIMING_PSC;
  79              		.loc 1 89 5
  80              		.loc 1 89 28 is_stmt 0
  81 0000 1C49     		lw	a5,16(a0)
  90:C:/Users/stapi/OneDrive/Desktop/GD32VW553/GD32VW55X_Wifi_BLE_SDK/GD32VW55x_RELEASE_V1.0.2/MSDK/plf/GD32VW55x_standard_peripheral/Source\gd32vw55x_i2c.c ****     I2C_TIMING(i2c_periph) &= ~I2C_TIMING_SCLDELY;
  82              		.loc 1 90 28
  83 0002 370710FF 		li	a4,-15728640
  84 0006 7D17     		addi	a4,a4,-1
  89:C:/Users/stapi/OneDrive/Desktop/GD32VW553/GD32VW55X_Wifi_BLE_SDK/GD32VW55x_RELEASE_V1.0.2/MSDK/plf/GD32VW55x_standard_peripheral/Source\gd32vw55x_i2c.c ****     I2C_TIMING(i2c_periph) &= ~I2C_TIMING_SCLDELY;
  85              		.loc 1 89 28
  86 0008 9207     		slli	a5,a5,4
  87 000a 9183     		srli	a5,a5,4
  88 000c 1CC9     		sw	a5,16(a0)
  89              		.loc 1 90 5 is_stmt 1
  90              		.loc 1 90 28 is_stmt 0
  91 000e 1C49     		lw	a5,16(a0)
  91:C:/Users/stapi/OneDrive/Desktop/GD32VW553/GD32VW55X_Wifi_BLE_SDK/GD32VW55x_RELEASE_V1.0.2/MSDK/plf/GD32VW55x_standard_peripheral/Source\gd32vw55x_i2c.c ****     I2C_TIMING(i2c_periph) &= ~I2C_TIMING_SDADELY;
  92:C:/Users/stapi/OneDrive/Desktop/GD32VW553/GD32VW55X_Wifi_BLE_SDK/GD32VW55x_RELEASE_V1.0.2/MSDK/plf/GD32VW55x_standard_peripheral/Source\gd32vw55x_i2c.c ****     /* mask PSC, SCLDELY, SDADELY bits in I2C_TIMING register */
  93:C:/Users/stapi/OneDrive/Desktop/GD32VW553/GD32VW55X_Wifi_BLE_SDK/GD32VW55x_RELEASE_V1.0.2/MSDK/plf/GD32VW55x_standard_peripheral/Source\gd32vw55x_i2c.c ****     psc = (uint32_t)(psc << TIMING_PSC_OFFSET) & I2C_TIMING_PSC;
  94:C:/Users/stapi/OneDrive/Desktop/GD32VW553/GD32VW55X_Wifi_BLE_SDK/GD32VW55x_RELEASE_V1.0.2/MSDK/plf/GD32VW55x_standard_peripheral/Source\gd32vw55x_i2c.c ****     scl_dely = (uint32_t)(scl_dely << TIMING_SCLDELY_OFFSET) & I2C_TIMING_SCLDELY;
  92              		.loc 1 94 36
  93 0010 5206     		slli	a2,a2,20
  94              	.LVL10:
  95:C:/Users/stapi/OneDrive/Desktop/GD32VW553/GD32VW55X_Wifi_BLE_SDK/GD32VW55x_RELEASE_V1.0.2/MSDK/plf/GD32VW55x_standard_peripheral/Source\gd32vw55x_i2c.c ****     sda_dely = (uint32_t)(sda_dely << TIMING_SDADELY_OFFSET) & I2C_TIMING_SDADELY;
  95              		.loc 1 95 36
  96 0012 C206     		slli	a3,a3,16
  97              	.LVL11:
  90:C:/Users/stapi/OneDrive/Desktop/GD32VW553/GD32VW55X_Wifi_BLE_SDK/GD32VW55x_RELEASE_V1.0.2/MSDK/plf/GD32VW55x_standard_peripheral/Source\gd32vw55x_i2c.c ****     I2C_TIMING(i2c_periph) &= ~I2C_TIMING_SDADELY;
  98              		.loc 1 90 28
  99 0014 F98F     		and	a5,a5,a4
 100 0016 1CC9     		sw	a5,16(a0)
  91:C:/Users/stapi/OneDrive/Desktop/GD32VW553/GD32VW55X_Wifi_BLE_SDK/GD32VW55x_RELEASE_V1.0.2/MSDK/plf/GD32VW55x_standard_peripheral/Source\gd32vw55x_i2c.c ****     I2C_TIMING(i2c_periph) &= ~I2C_TIMING_SDADELY;
 101              		.loc 1 91 5 is_stmt 1
  91:C:/Users/stapi/OneDrive/Desktop/GD32VW553/GD32VW55X_Wifi_BLE_SDK/GD32VW55x_RELEASE_V1.0.2/MSDK/plf/GD32VW55x_standard_peripheral/Source\gd32vw55x_i2c.c ****     I2C_TIMING(i2c_periph) &= ~I2C_TIMING_SDADELY;
 102              		.loc 1 91 28 is_stmt 0
 103 0018 1C49     		lw	a5,16(a0)
 104 001a 3707F1FF 		li	a4,-983040
 105 001e 7D17     		addi	a4,a4,-1
 106 0020 F98F     		and	a5,a5,a4
 107 0022 1CC9     		sw	a5,16(a0)
  93:C:/Users/stapi/OneDrive/Desktop/GD32VW553/GD32VW55X_Wifi_BLE_SDK/GD32VW55x_RELEASE_V1.0.2/MSDK/plf/GD32VW55x_standard_peripheral/Source\gd32vw55x_i2c.c ****     scl_dely = (uint32_t)(scl_dely << TIMING_SCLDELY_OFFSET) & I2C_TIMING_SCLDELY;
 108              		.loc 1 93 5 is_stmt 1
 109              	.LVL12:
  94:C:/Users/stapi/OneDrive/Desktop/GD32VW553/GD32VW55X_Wifi_BLE_SDK/GD32VW55x_RELEASE_V1.0.2/MSDK/plf/GD32VW55x_standard_peripheral/Source\gd32vw55x_i2c.c ****     sda_dely = (uint32_t)(sda_dely << TIMING_SDADELY_OFFSET) & I2C_TIMING_SDADELY;
 110              		.loc 1 94 5
 111              		.loc 1 95 5
  96:C:/Users/stapi/OneDrive/Desktop/GD32VW553/GD32VW55X_Wifi_BLE_SDK/GD32VW55x_RELEASE_V1.0.2/MSDK/plf/GD32VW55x_standard_peripheral/Source\gd32vw55x_i2c.c ****     /* write PSC, SCLDELY, SDADELY bits in I2C_TIMING register */
  97:C:/Users/stapi/OneDrive/Desktop/GD32VW553/GD32VW55X_Wifi_BLE_SDK/GD32VW55x_RELEASE_V1.0.2/MSDK/plf/GD32VW55x_standard_peripheral/Source\gd32vw55x_i2c.c ****     I2C_TIMING(i2c_periph) |= (psc | scl_dely |sda_dely);
 112              		.loc 1 97 5
  94:C:/Users/stapi/OneDrive/Desktop/GD32VW553/GD32VW55X_Wifi_BLE_SDK/GD32VW55x_RELEASE_V1.0.2/MSDK/plf/GD32VW55x_standard_peripheral/Source\gd32vw55x_i2c.c ****     sda_dely = (uint32_t)(sda_dely << TIMING_SDADELY_OFFSET) & I2C_TIMING_SDADELY;
 113              		.loc 1 94 14 is_stmt 0
 114 0024 3707F000 		li	a4,15728640
 115              		.loc 1 97 28
 116 0028 1C49     		lw	a5,16(a0)
  94:C:/Users/stapi/OneDrive/Desktop/GD32VW553/GD32VW55X_Wifi_BLE_SDK/GD32VW55x_RELEASE_V1.0.2/MSDK/plf/GD32VW55x_standard_peripheral/Source\gd32vw55x_i2c.c ****     sda_dely = (uint32_t)(sda_dely << TIMING_SDADELY_OFFSET) & I2C_TIMING_SDADELY;
 117              		.loc 1 94 14
 118 002a 798E     		and	a2,a2,a4
 119              	.LVL13:
  93:C:/Users/stapi/OneDrive/Desktop/GD32VW553/GD32VW55X_Wifi_BLE_SDK/GD32VW55x_RELEASE_V1.0.2/MSDK/plf/GD32VW55x_standard_peripheral/Source\gd32vw55x_i2c.c ****     scl_dely = (uint32_t)(scl_dely << TIMING_SCLDELY_OFFSET) & I2C_TIMING_SCLDELY;
 120              		.loc 1 93 9
 121 002c F205     		slli	a1,a1,28
 122              	.LVL14:
  95:C:/Users/stapi/OneDrive/Desktop/GD32VW553/GD32VW55X_Wifi_BLE_SDK/GD32VW55x_RELEASE_V1.0.2/MSDK/plf/GD32VW55x_standard_peripheral/Source\gd32vw55x_i2c.c ****     /* write PSC, SCLDELY, SDADELY bits in I2C_TIMING register */
 123              		.loc 1 95 14
 124 002e 37070F00 		li	a4,983040
 125              		.loc 1 97 36
 126 0032 D18D     		or	a1,a1,a2
 127              	.LVL15:
  95:C:/Users/stapi/OneDrive/Desktop/GD32VW553/GD32VW55X_Wifi_BLE_SDK/GD32VW55x_RELEASE_V1.0.2/MSDK/plf/GD32VW55x_standard_peripheral/Source\gd32vw55x_i2c.c ****     /* write PSC, SCLDELY, SDADELY bits in I2C_TIMING register */
 128              		.loc 1 95 14
 129 0034 F98E     		and	a3,a3,a4
 130              	.LVL16:
 131              		.loc 1 97 47
 132 0036 D58D     		or	a1,a1,a3
 133              		.loc 1 97 28
 134 0038 DD8D     		or	a1,a1,a5
 135 003a 0CC9     		sw	a1,16(a0)
  98:C:/Users/stapi/OneDrive/Desktop/GD32VW553/GD32VW55X_Wifi_BLE_SDK/GD32VW55x_RELEASE_V1.0.2/MSDK/plf/GD32VW55x_standard_peripheral/Source\gd32vw55x_i2c.c **** }
 136              		.loc 1 98 1
 137 003c 8280     		ret
 138              		.cfi_endproc
 139              	.LFE366:
 141              		.section	.text.i2c_digital_noise_filter_config,"ax",@progbits
 142              		.align	1
 143              		.globl	i2c_digital_noise_filter_config
 145              	i2c_digital_noise_filter_config:
 146              	.LFB367:
  99:C:/Users/stapi/OneDrive/Desktop/GD32VW553/GD32VW55X_Wifi_BLE_SDK/GD32VW55x_RELEASE_V1.0.2/MSDK/plf/GD32VW55x_standard_peripheral/Source\gd32vw55x_i2c.c **** 
 100:C:/Users/stapi/OneDrive/Desktop/GD32VW553/GD32VW55X_Wifi_BLE_SDK/GD32VW55x_RELEASE_V1.0.2/MSDK/plf/GD32VW55x_standard_peripheral/Source\gd32vw55x_i2c.c **** /*!
 101:C:/Users/stapi/OneDrive/Desktop/GD32VW553/GD32VW55X_Wifi_BLE_SDK/GD32VW55x_RELEASE_V1.0.2/MSDK/plf/GD32VW55x_standard_peripheral/Source\gd32vw55x_i2c.c ****     \brief      configure digital noise filter
 102:C:/Users/stapi/OneDrive/Desktop/GD32VW553/GD32VW55X_Wifi_BLE_SDK/GD32VW55x_RELEASE_V1.0.2/MSDK/plf/GD32VW55x_standard_peripheral/Source\gd32vw55x_i2c.c ****     \param[in]  i2c_periph: I2Cx(x=0,1)
 103:C:/Users/stapi/OneDrive/Desktop/GD32VW553/GD32VW55X_Wifi_BLE_SDK/GD32VW55x_RELEASE_V1.0.2/MSDK/plf/GD32VW55x_standard_peripheral/Source\gd32vw55x_i2c.c ****     \param[in]  filter_length: the length of filter spikes
 104:C:/Users/stapi/OneDrive/Desktop/GD32VW553/GD32VW55X_Wifi_BLE_SDK/GD32VW55x_RELEASE_V1.0.2/MSDK/plf/GD32VW55x_standard_peripheral/Source\gd32vw55x_i2c.c ****                 only one parameter can be selected which is shown as below:
 105:C:/Users/stapi/OneDrive/Desktop/GD32VW553/GD32VW55X_Wifi_BLE_SDK/GD32VW55x_RELEASE_V1.0.2/MSDK/plf/GD32VW55x_standard_peripheral/Source\gd32vw55x_i2c.c ****       \arg        FILTER_DISABLE: digital filter is disabled
 106:C:/Users/stapi/OneDrive/Desktop/GD32VW553/GD32VW55X_Wifi_BLE_SDK/GD32VW55x_RELEASE_V1.0.2/MSDK/plf/GD32VW55x_standard_peripheral/Source\gd32vw55x_i2c.c ****       \arg        FILTER_LENGTH_1: digital filter is enabled and filter spikes with a length of up 
 107:C:/Users/stapi/OneDrive/Desktop/GD32VW553/GD32VW55X_Wifi_BLE_SDK/GD32VW55x_RELEASE_V1.0.2/MSDK/plf/GD32VW55x_standard_peripheral/Source\gd32vw55x_i2c.c ****       \arg        FILTER_LENGTH_2: digital filter is enabled and filter spikes with a length of up 
 108:C:/Users/stapi/OneDrive/Desktop/GD32VW553/GD32VW55X_Wifi_BLE_SDK/GD32VW55x_RELEASE_V1.0.2/MSDK/plf/GD32VW55x_standard_peripheral/Source\gd32vw55x_i2c.c ****       \arg        FILTER_LENGTH_3: digital filter is enabled and filter spikes with a length of up 
 109:C:/Users/stapi/OneDrive/Desktop/GD32VW553/GD32VW55X_Wifi_BLE_SDK/GD32VW55x_RELEASE_V1.0.2/MSDK/plf/GD32VW55x_standard_peripheral/Source\gd32vw55x_i2c.c ****       \arg        FILTER_LENGTH_4: digital filter is enabled and filter spikes with a length of up 
 110:C:/Users/stapi/OneDrive/Desktop/GD32VW553/GD32VW55X_Wifi_BLE_SDK/GD32VW55x_RELEASE_V1.0.2/MSDK/plf/GD32VW55x_standard_peripheral/Source\gd32vw55x_i2c.c ****       \arg        FILTER_LENGTH_5: digital filter is enabled and filter spikes with a length of up 
 111:C:/Users/stapi/OneDrive/Desktop/GD32VW553/GD32VW55X_Wifi_BLE_SDK/GD32VW55x_RELEASE_V1.0.2/MSDK/plf/GD32VW55x_standard_peripheral/Source\gd32vw55x_i2c.c ****       \arg        FILTER_LENGTH_6: digital filter is enabled and filter spikes with a length of up 
 112:C:/Users/stapi/OneDrive/Desktop/GD32VW553/GD32VW55X_Wifi_BLE_SDK/GD32VW55x_RELEASE_V1.0.2/MSDK/plf/GD32VW55x_standard_peripheral/Source\gd32vw55x_i2c.c ****       \arg        FILTER_LENGTH_7: digital filter is enabled and filter spikes with a length of up 
 113:C:/Users/stapi/OneDrive/Desktop/GD32VW553/GD32VW55X_Wifi_BLE_SDK/GD32VW55x_RELEASE_V1.0.2/MSDK/plf/GD32VW55x_standard_peripheral/Source\gd32vw55x_i2c.c ****       \arg        FILTER_LENGTH_8: digital filter is enabled and filter spikes with a length of up 
 114:C:/Users/stapi/OneDrive/Desktop/GD32VW553/GD32VW55X_Wifi_BLE_SDK/GD32VW55x_RELEASE_V1.0.2/MSDK/plf/GD32VW55x_standard_peripheral/Source\gd32vw55x_i2c.c ****       \arg        FILTER_LENGTH_9: digital filter is enabled and filter spikes with a length of up 
 115:C:/Users/stapi/OneDrive/Desktop/GD32VW553/GD32VW55X_Wifi_BLE_SDK/GD32VW55x_RELEASE_V1.0.2/MSDK/plf/GD32VW55x_standard_peripheral/Source\gd32vw55x_i2c.c ****       \arg        FILTER_LENGTH_10: digital filter is enabled and filter spikes with a length of up
 116:C:/Users/stapi/OneDrive/Desktop/GD32VW553/GD32VW55X_Wifi_BLE_SDK/GD32VW55x_RELEASE_V1.0.2/MSDK/plf/GD32VW55x_standard_peripheral/Source\gd32vw55x_i2c.c ****       \arg        FILTER_LENGTH_11: digital filter is enabled and filter spikes with a length of up
 117:C:/Users/stapi/OneDrive/Desktop/GD32VW553/GD32VW55X_Wifi_BLE_SDK/GD32VW55x_RELEASE_V1.0.2/MSDK/plf/GD32VW55x_standard_peripheral/Source\gd32vw55x_i2c.c ****       \arg        FILTER_LENGTH_12: digital filter is enabled and filter spikes with a length of up
 118:C:/Users/stapi/OneDrive/Desktop/GD32VW553/GD32VW55X_Wifi_BLE_SDK/GD32VW55x_RELEASE_V1.0.2/MSDK/plf/GD32VW55x_standard_peripheral/Source\gd32vw55x_i2c.c ****       \arg        FILTER_LENGTH_13: digital filter is enabled and filter spikes with a length of up
 119:C:/Users/stapi/OneDrive/Desktop/GD32VW553/GD32VW55X_Wifi_BLE_SDK/GD32VW55x_RELEASE_V1.0.2/MSDK/plf/GD32VW55x_standard_peripheral/Source\gd32vw55x_i2c.c ****       \arg        FILTER_LENGTH_14: digital filter is enabled and filter spikes with a length of up
 120:C:/Users/stapi/OneDrive/Desktop/GD32VW553/GD32VW55X_Wifi_BLE_SDK/GD32VW55x_RELEASE_V1.0.2/MSDK/plf/GD32VW55x_standard_peripheral/Source\gd32vw55x_i2c.c ****       \arg        FILTER_LENGTH_15: digital filter is enabled and filter spikes with a length of up
 121:C:/Users/stapi/OneDrive/Desktop/GD32VW553/GD32VW55X_Wifi_BLE_SDK/GD32VW55x_RELEASE_V1.0.2/MSDK/plf/GD32VW55x_standard_peripheral/Source\gd32vw55x_i2c.c ****     \param[out] none
 122:C:/Users/stapi/OneDrive/Desktop/GD32VW553/GD32VW55X_Wifi_BLE_SDK/GD32VW55x_RELEASE_V1.0.2/MSDK/plf/GD32VW55x_standard_peripheral/Source\gd32vw55x_i2c.c ****     \retval     none
 123:C:/Users/stapi/OneDrive/Desktop/GD32VW553/GD32VW55X_Wifi_BLE_SDK/GD32VW55x_RELEASE_V1.0.2/MSDK/plf/GD32VW55x_standard_peripheral/Source\gd32vw55x_i2c.c **** */
 124:C:/Users/stapi/OneDrive/Desktop/GD32VW553/GD32VW55X_Wifi_BLE_SDK/GD32VW55x_RELEASE_V1.0.2/MSDK/plf/GD32VW55x_standard_peripheral/Source\gd32vw55x_i2c.c **** void i2c_digital_noise_filter_config(uint32_t i2c_periph, uint32_t filter_length)
 125:C:/Users/stapi/OneDrive/Desktop/GD32VW553/GD32VW55X_Wifi_BLE_SDK/GD32VW55x_RELEASE_V1.0.2/MSDK/plf/GD32VW55x_standard_peripheral/Source\gd32vw55x_i2c.c **** {
 147              		.loc 1 125 1 is_stmt 1
 148              		.cfi_startproc
 149              	.LVL17:
 126:C:/Users/stapi/OneDrive/Desktop/GD32VW553/GD32VW55X_Wifi_BLE_SDK/GD32VW55x_RELEASE_V1.0.2/MSDK/plf/GD32VW55x_standard_peripheral/Source\gd32vw55x_i2c.c ****     I2C_CTL0(i2c_periph) &= (uint32_t)(~I2C_CTL0_DNF);
 150              		.loc 1 126 5
 151              		.loc 1 126 26 is_stmt 0
 152 0000 1C41     		lw	a5,0(a0)
 153 0002 7D77     		li	a4,-4096
 154 0004 1307F70F 		addi	a4,a4,255
 155 0008 F98F     		and	a5,a5,a4
 156 000a 1CC1     		sw	a5,0(a0)
 127:C:/Users/stapi/OneDrive/Desktop/GD32VW553/GD32VW55X_Wifi_BLE_SDK/GD32VW55x_RELEASE_V1.0.2/MSDK/plf/GD32VW55x_standard_peripheral/Source\gd32vw55x_i2c.c ****     I2C_CTL0(i2c_periph) |= (uint32_t)(filter_length << CTL0_DNF_OFFSET);
 157              		.loc 1 127 5 is_stmt 1
 158              		.loc 1 127 26 is_stmt 0
 159 000c 1C41     		lw	a5,0(a0)
 160              		.loc 1 127 54
 161 000e A205     		slli	a1,a1,8
 162              	.LVL18:
 163              		.loc 1 127 26
 164 0010 DD8D     		or	a1,a1,a5
 165 0012 0CC1     		sw	a1,0(a0)
 128:C:/Users/stapi/OneDrive/Desktop/GD32VW553/GD32VW55X_Wifi_BLE_SDK/GD32VW55x_RELEASE_V1.0.2/MSDK/plf/GD32VW55x_standard_peripheral/Source\gd32vw55x_i2c.c **** }
 166              		.loc 1 128 1
 167 0014 8280     		ret
 168              		.cfi_endproc
 169              	.LFE367:
 171              		.section	.text.i2c_analog_noise_filter_enable,"ax",@progbits
 172              		.align	1
 173              		.globl	i2c_analog_noise_filter_enable
 175              	i2c_analog_noise_filter_enable:
 176              	.LFB368:
 129:C:/Users/stapi/OneDrive/Desktop/GD32VW553/GD32VW55X_Wifi_BLE_SDK/GD32VW55x_RELEASE_V1.0.2/MSDK/plf/GD32VW55x_standard_peripheral/Source\gd32vw55x_i2c.c **** 
 130:C:/Users/stapi/OneDrive/Desktop/GD32VW553/GD32VW55X_Wifi_BLE_SDK/GD32VW55x_RELEASE_V1.0.2/MSDK/plf/GD32VW55x_standard_peripheral/Source\gd32vw55x_i2c.c **** /*!
 131:C:/Users/stapi/OneDrive/Desktop/GD32VW553/GD32VW55X_Wifi_BLE_SDK/GD32VW55x_RELEASE_V1.0.2/MSDK/plf/GD32VW55x_standard_peripheral/Source\gd32vw55x_i2c.c ****     \brief      enable analog noise filter
 132:C:/Users/stapi/OneDrive/Desktop/GD32VW553/GD32VW55X_Wifi_BLE_SDK/GD32VW55x_RELEASE_V1.0.2/MSDK/plf/GD32VW55x_standard_peripheral/Source\gd32vw55x_i2c.c ****     \param[in]  i2c_periph: I2Cx(x=0,1)
 133:C:/Users/stapi/OneDrive/Desktop/GD32VW553/GD32VW55X_Wifi_BLE_SDK/GD32VW55x_RELEASE_V1.0.2/MSDK/plf/GD32VW55x_standard_peripheral/Source\gd32vw55x_i2c.c ****     \param[out] none
 134:C:/Users/stapi/OneDrive/Desktop/GD32VW553/GD32VW55X_Wifi_BLE_SDK/GD32VW55x_RELEASE_V1.0.2/MSDK/plf/GD32VW55x_standard_peripheral/Source\gd32vw55x_i2c.c ****     \retval     none
 135:C:/Users/stapi/OneDrive/Desktop/GD32VW553/GD32VW55X_Wifi_BLE_SDK/GD32VW55x_RELEASE_V1.0.2/MSDK/plf/GD32VW55x_standard_peripheral/Source\gd32vw55x_i2c.c **** */
 136:C:/Users/stapi/OneDrive/Desktop/GD32VW553/GD32VW55X_Wifi_BLE_SDK/GD32VW55x_RELEASE_V1.0.2/MSDK/plf/GD32VW55x_standard_peripheral/Source\gd32vw55x_i2c.c **** void i2c_analog_noise_filter_enable(uint32_t i2c_periph)
 137:C:/Users/stapi/OneDrive/Desktop/GD32VW553/GD32VW55X_Wifi_BLE_SDK/GD32VW55x_RELEASE_V1.0.2/MSDK/plf/GD32VW55x_standard_peripheral/Source\gd32vw55x_i2c.c **** {
 177              		.loc 1 137 1 is_stmt 1
 178              		.cfi_startproc
 179              	.LVL19:
 138:C:/Users/stapi/OneDrive/Desktop/GD32VW553/GD32VW55X_Wifi_BLE_SDK/GD32VW55x_RELEASE_V1.0.2/MSDK/plf/GD32VW55x_standard_peripheral/Source\gd32vw55x_i2c.c ****     I2C_CTL0(i2c_periph) &= ~I2C_CTL0_ANOFF;
 180              		.loc 1 138 5
 181              		.loc 1 138 26 is_stmt 0
 182 0000 1C41     		lw	a5,0(a0)
 183 0002 9397C748 		bclri	a5,a5,12
 184 0006 1CC1     		sw	a5,0(a0)
 139:C:/Users/stapi/OneDrive/Desktop/GD32VW553/GD32VW55X_Wifi_BLE_SDK/GD32VW55x_RELEASE_V1.0.2/MSDK/plf/GD32VW55x_standard_peripheral/Source\gd32vw55x_i2c.c **** }
 185              		.loc 1 139 1
 186 0008 8280     		ret
 187              		.cfi_endproc
 188              	.LFE368:
 190              		.section	.text.i2c_analog_noise_filter_disable,"ax",@progbits
 191              		.align	1
 192              		.globl	i2c_analog_noise_filter_disable
 194              	i2c_analog_noise_filter_disable:
 195              	.LFB369:
 140:C:/Users/stapi/OneDrive/Desktop/GD32VW553/GD32VW55X_Wifi_BLE_SDK/GD32VW55x_RELEASE_V1.0.2/MSDK/plf/GD32VW55x_standard_peripheral/Source\gd32vw55x_i2c.c **** 
 141:C:/Users/stapi/OneDrive/Desktop/GD32VW553/GD32VW55X_Wifi_BLE_SDK/GD32VW55x_RELEASE_V1.0.2/MSDK/plf/GD32VW55x_standard_peripheral/Source\gd32vw55x_i2c.c **** /*!
 142:C:/Users/stapi/OneDrive/Desktop/GD32VW553/GD32VW55X_Wifi_BLE_SDK/GD32VW55x_RELEASE_V1.0.2/MSDK/plf/GD32VW55x_standard_peripheral/Source\gd32vw55x_i2c.c ****     \brief      disable analog noise filter
 143:C:/Users/stapi/OneDrive/Desktop/GD32VW553/GD32VW55X_Wifi_BLE_SDK/GD32VW55x_RELEASE_V1.0.2/MSDK/plf/GD32VW55x_standard_peripheral/Source\gd32vw55x_i2c.c ****     \param[in]  i2c_periph: I2Cx(x=0,1)
 144:C:/Users/stapi/OneDrive/Desktop/GD32VW553/GD32VW55X_Wifi_BLE_SDK/GD32VW55x_RELEASE_V1.0.2/MSDK/plf/GD32VW55x_standard_peripheral/Source\gd32vw55x_i2c.c ****     \param[out] none
 145:C:/Users/stapi/OneDrive/Desktop/GD32VW553/GD32VW55X_Wifi_BLE_SDK/GD32VW55x_RELEASE_V1.0.2/MSDK/plf/GD32VW55x_standard_peripheral/Source\gd32vw55x_i2c.c ****     \retval     none
 146:C:/Users/stapi/OneDrive/Desktop/GD32VW553/GD32VW55X_Wifi_BLE_SDK/GD32VW55x_RELEASE_V1.0.2/MSDK/plf/GD32VW55x_standard_peripheral/Source\gd32vw55x_i2c.c **** */
 147:C:/Users/stapi/OneDrive/Desktop/GD32VW553/GD32VW55X_Wifi_BLE_SDK/GD32VW55x_RELEASE_V1.0.2/MSDK/plf/GD32VW55x_standard_peripheral/Source\gd32vw55x_i2c.c **** void i2c_analog_noise_filter_disable(uint32_t i2c_periph)
 148:C:/Users/stapi/OneDrive/Desktop/GD32VW553/GD32VW55X_Wifi_BLE_SDK/GD32VW55x_RELEASE_V1.0.2/MSDK/plf/GD32VW55x_standard_peripheral/Source\gd32vw55x_i2c.c **** {
 196              		.loc 1 148 1 is_stmt 1
 197              		.cfi_startproc
 198              	.LVL20:
 149:C:/Users/stapi/OneDrive/Desktop/GD32VW553/GD32VW55X_Wifi_BLE_SDK/GD32VW55x_RELEASE_V1.0.2/MSDK/plf/GD32VW55x_standard_peripheral/Source\gd32vw55x_i2c.c ****     I2C_CTL0(i2c_periph) |= I2C_CTL0_ANOFF;
 199              		.loc 1 149 5
 200              		.loc 1 149 26 is_stmt 0
 201 0000 1C41     		lw	a5,0(a0)
 202 0002 9397C728 		bseti	a5,a5,12
 203 0006 1CC1     		sw	a5,0(a0)
 150:C:/Users/stapi/OneDrive/Desktop/GD32VW553/GD32VW55X_Wifi_BLE_SDK/GD32VW55x_RELEASE_V1.0.2/MSDK/plf/GD32VW55x_standard_peripheral/Source\gd32vw55x_i2c.c **** }
 204              		.loc 1 150 1
 205 0008 8280     		ret
 206              		.cfi_endproc
 207              	.LFE369:
 209              		.section	.text.i2c_master_clock_config,"ax",@progbits
 210              		.align	1
 211              		.globl	i2c_master_clock_config
 213              	i2c_master_clock_config:
 214              	.LFB370:
 151:C:/Users/stapi/OneDrive/Desktop/GD32VW553/GD32VW55X_Wifi_BLE_SDK/GD32VW55x_RELEASE_V1.0.2/MSDK/plf/GD32VW55x_standard_peripheral/Source\gd32vw55x_i2c.c **** 
 152:C:/Users/stapi/OneDrive/Desktop/GD32VW553/GD32VW55X_Wifi_BLE_SDK/GD32VW55x_RELEASE_V1.0.2/MSDK/plf/GD32VW55x_standard_peripheral/Source\gd32vw55x_i2c.c **** /*!
 153:C:/Users/stapi/OneDrive/Desktop/GD32VW553/GD32VW55X_Wifi_BLE_SDK/GD32VW55x_RELEASE_V1.0.2/MSDK/plf/GD32VW55x_standard_peripheral/Source\gd32vw55x_i2c.c ****     \brief      configure the SCL high and low period of clock in master mode
 154:C:/Users/stapi/OneDrive/Desktop/GD32VW553/GD32VW55X_Wifi_BLE_SDK/GD32VW55x_RELEASE_V1.0.2/MSDK/plf/GD32VW55x_standard_peripheral/Source\gd32vw55x_i2c.c ****     \param[in]  i2c_periph: I2Cx(x=0,1)
 155:C:/Users/stapi/OneDrive/Desktop/GD32VW553/GD32VW55X_Wifi_BLE_SDK/GD32VW55x_RELEASE_V1.0.2/MSDK/plf/GD32VW55x_standard_peripheral/Source\gd32vw55x_i2c.c ****     \param[in]  sclh: 0-0x000000FF, SCL high period
 156:C:/Users/stapi/OneDrive/Desktop/GD32VW553/GD32VW55X_Wifi_BLE_SDK/GD32VW55x_RELEASE_V1.0.2/MSDK/plf/GD32VW55x_standard_peripheral/Source\gd32vw55x_i2c.c ****     \param[in]  scll: 0-0x000000FF, SCL low period
 157:C:/Users/stapi/OneDrive/Desktop/GD32VW553/GD32VW55X_Wifi_BLE_SDK/GD32VW55x_RELEASE_V1.0.2/MSDK/plf/GD32VW55x_standard_peripheral/Source\gd32vw55x_i2c.c ****     \param[out] none
 158:C:/Users/stapi/OneDrive/Desktop/GD32VW553/GD32VW55X_Wifi_BLE_SDK/GD32VW55x_RELEASE_V1.0.2/MSDK/plf/GD32VW55x_standard_peripheral/Source\gd32vw55x_i2c.c ****     \retval     none
 159:C:/Users/stapi/OneDrive/Desktop/GD32VW553/GD32VW55X_Wifi_BLE_SDK/GD32VW55x_RELEASE_V1.0.2/MSDK/plf/GD32VW55x_standard_peripheral/Source\gd32vw55x_i2c.c **** */
 160:C:/Users/stapi/OneDrive/Desktop/GD32VW553/GD32VW55X_Wifi_BLE_SDK/GD32VW55x_RELEASE_V1.0.2/MSDK/plf/GD32VW55x_standard_peripheral/Source\gd32vw55x_i2c.c **** void i2c_master_clock_config(uint32_t i2c_periph, uint32_t sclh, uint32_t scll)
 161:C:/Users/stapi/OneDrive/Desktop/GD32VW553/GD32VW55X_Wifi_BLE_SDK/GD32VW55x_RELEASE_V1.0.2/MSDK/plf/GD32VW55x_standard_peripheral/Source\gd32vw55x_i2c.c **** {
 215              		.loc 1 161 1 is_stmt 1
 216              		.cfi_startproc
 217              	.LVL21:
 162:C:/Users/stapi/OneDrive/Desktop/GD32VW553/GD32VW55X_Wifi_BLE_SDK/GD32VW55x_RELEASE_V1.0.2/MSDK/plf/GD32VW55x_standard_peripheral/Source\gd32vw55x_i2c.c ****     /* clear SCLH, SCLL bits in I2C_TIMING register */
 163:C:/Users/stapi/OneDrive/Desktop/GD32VW553/GD32VW55X_Wifi_BLE_SDK/GD32VW55x_RELEASE_V1.0.2/MSDK/plf/GD32VW55x_standard_peripheral/Source\gd32vw55x_i2c.c ****     I2C_TIMING(i2c_periph) &= ~I2C_TIMING_SCLH;
 218              		.loc 1 163 5
 219              		.loc 1 163 28 is_stmt 0
 220 0000 1C49     		lw	a5,16(a0)
 221 0002 4177     		li	a4,-65536
 222 0004 1307F70F 		addi	a4,a4,255
 223 0008 F98F     		and	a5,a5,a4
 224 000a 1CC9     		sw	a5,16(a0)
 164:C:/Users/stapi/OneDrive/Desktop/GD32VW553/GD32VW55X_Wifi_BLE_SDK/GD32VW55x_RELEASE_V1.0.2/MSDK/plf/GD32VW55x_standard_peripheral/Source\gd32vw55x_i2c.c ****     I2C_TIMING(i2c_periph) &= ~I2C_TIMING_SCLL;
 225              		.loc 1 164 5 is_stmt 1
 226              		.loc 1 164 28 is_stmt 0
 227 000c 1C49     		lw	a5,16(a0)
 165:C:/Users/stapi/OneDrive/Desktop/GD32VW553/GD32VW55X_Wifi_BLE_SDK/GD32VW55x_RELEASE_V1.0.2/MSDK/plf/GD32VW55x_standard_peripheral/Source\gd32vw55x_i2c.c ****     /* mask SCLH, SCLL bits in I2C_TIMING register */
 166:C:/Users/stapi/OneDrive/Desktop/GD32VW553/GD32VW55X_Wifi_BLE_SDK/GD32VW55x_RELEASE_V1.0.2/MSDK/plf/GD32VW55x_standard_peripheral/Source\gd32vw55x_i2c.c ****     sclh = (uint32_t)(sclh << TIMING_SCLH_OFFSET) & I2C_TIMING_SCLH;
 228              		.loc 1 166 28
 229 000e A205     		slli	a1,a1,8
 230              	.LVL22:
 167:C:/Users/stapi/OneDrive/Desktop/GD32VW553/GD32VW55X_Wifi_BLE_SDK/GD32VW55x_RELEASE_V1.0.2/MSDK/plf/GD32VW55x_standard_peripheral/Source\gd32vw55x_i2c.c ****     scll = (uint32_t)(scll << TIMING_SCLL_OFFSET) & I2C_TIMING_SCLL;
 231              		.loc 1 167 10
 232 0010 1376F60F 		andi	a2,a2,0xff
 233              	.LVL23:
 164:C:/Users/stapi/OneDrive/Desktop/GD32VW553/GD32VW55X_Wifi_BLE_SDK/GD32VW55x_RELEASE_V1.0.2/MSDK/plf/GD32VW55x_standard_peripheral/Source\gd32vw55x_i2c.c ****     I2C_TIMING(i2c_periph) &= ~I2C_TIMING_SCLL;
 234              		.loc 1 164 28
 235 0014 93F707F0 		andi	a5,a5,-256
 236 0018 1CC9     		sw	a5,16(a0)
 166:C:/Users/stapi/OneDrive/Desktop/GD32VW553/GD32VW55X_Wifi_BLE_SDK/GD32VW55x_RELEASE_V1.0.2/MSDK/plf/GD32VW55x_standard_peripheral/Source\gd32vw55x_i2c.c ****     scll = (uint32_t)(scll << TIMING_SCLL_OFFSET) & I2C_TIMING_SCLL;
 237              		.loc 1 166 5 is_stmt 1
 238              	.LVL24:
 239              		.loc 1 167 5
 168:C:/Users/stapi/OneDrive/Desktop/GD32VW553/GD32VW55X_Wifi_BLE_SDK/GD32VW55x_RELEASE_V1.0.2/MSDK/plf/GD32VW55x_standard_peripheral/Source\gd32vw55x_i2c.c ****     /* write SCLH, SCLL bits in I2C_TIMING register */
 169:C:/Users/stapi/OneDrive/Desktop/GD32VW553/GD32VW55X_Wifi_BLE_SDK/GD32VW55x_RELEASE_V1.0.2/MSDK/plf/GD32VW55x_standard_peripheral/Source\gd32vw55x_i2c.c ****     I2C_TIMING(i2c_periph) |= (sclh | scll);
 240              		.loc 1 169 5
 166:C:/Users/stapi/OneDrive/Desktop/GD32VW553/GD32VW55X_Wifi_BLE_SDK/GD32VW55x_RELEASE_V1.0.2/MSDK/plf/GD32VW55x_standard_peripheral/Source\gd32vw55x_i2c.c ****     scll = (uint32_t)(scll << TIMING_SCLL_OFFSET) & I2C_TIMING_SCLL;
 241              		.loc 1 166 10 is_stmt 0
 242 001a C167     		li	a5,65536
 243              		.loc 1 169 28
 244 001c 1849     		lw	a4,16(a0)
 166:C:/Users/stapi/OneDrive/Desktop/GD32VW553/GD32VW55X_Wifi_BLE_SDK/GD32VW55x_RELEASE_V1.0.2/MSDK/plf/GD32VW55x_standard_peripheral/Source\gd32vw55x_i2c.c ****     scll = (uint32_t)(scll << TIMING_SCLL_OFFSET) & I2C_TIMING_SCLL;
 245              		.loc 1 166 10
 246 001e FD17     		addi	a5,a5,-1
 247 0020 FD8D     		and	a1,a1,a5
 248              	.LVL25:
 249              		.loc 1 169 37
 250 0022 D18D     		or	a1,a1,a2
 251              		.loc 1 169 28
 252 0024 D98D     		or	a1,a1,a4
 253 0026 0CC9     		sw	a1,16(a0)
 170:C:/Users/stapi/OneDrive/Desktop/GD32VW553/GD32VW55X_Wifi_BLE_SDK/GD32VW55x_RELEASE_V1.0.2/MSDK/plf/GD32VW55x_standard_peripheral/Source\gd32vw55x_i2c.c **** }
 254              		.loc 1 170 1
 255 0028 8280     		ret
 256              		.cfi_endproc
 257              	.LFE370:
 259              		.section	.text.i2c_master_addressing,"ax",@progbits
 260              		.align	1
 261              		.globl	i2c_master_addressing
 263              	i2c_master_addressing:
 264              	.LFB371:
 171:C:/Users/stapi/OneDrive/Desktop/GD32VW553/GD32VW55X_Wifi_BLE_SDK/GD32VW55x_RELEASE_V1.0.2/MSDK/plf/GD32VW55x_standard_peripheral/Source\gd32vw55x_i2c.c **** 
 172:C:/Users/stapi/OneDrive/Desktop/GD32VW553/GD32VW55X_Wifi_BLE_SDK/GD32VW55x_RELEASE_V1.0.2/MSDK/plf/GD32VW55x_standard_peripheral/Source\gd32vw55x_i2c.c **** /*!
 173:C:/Users/stapi/OneDrive/Desktop/GD32VW553/GD32VW55X_Wifi_BLE_SDK/GD32VW55x_RELEASE_V1.0.2/MSDK/plf/GD32VW55x_standard_peripheral/Source\gd32vw55x_i2c.c ****     \brief      configure I2C slave address and transfer direction in master mode
 174:C:/Users/stapi/OneDrive/Desktop/GD32VW553/GD32VW55X_Wifi_BLE_SDK/GD32VW55x_RELEASE_V1.0.2/MSDK/plf/GD32VW55x_standard_peripheral/Source\gd32vw55x_i2c.c ****     \param[in]  i2c_periph: I2Cx(x=0,1)
 175:C:/Users/stapi/OneDrive/Desktop/GD32VW553/GD32VW55X_Wifi_BLE_SDK/GD32VW55x_RELEASE_V1.0.2/MSDK/plf/GD32VW55x_standard_peripheral/Source\gd32vw55x_i2c.c ****     \param[in]  address: 0-0x3FF except reserved address, I2C slave address to be sent
 176:C:/Users/stapi/OneDrive/Desktop/GD32VW553/GD32VW55X_Wifi_BLE_SDK/GD32VW55x_RELEASE_V1.0.2/MSDK/plf/GD32VW55x_standard_peripheral/Source\gd32vw55x_i2c.c ****     \param[in]  trans_direction: I2C transfer direction in master mode
 177:C:/Users/stapi/OneDrive/Desktop/GD32VW553/GD32VW55X_Wifi_BLE_SDK/GD32VW55x_RELEASE_V1.0.2/MSDK/plf/GD32VW55x_standard_peripheral/Source\gd32vw55x_i2c.c ****                 only one parameter can be selected which is shown as below:
 178:C:/Users/stapi/OneDrive/Desktop/GD32VW553/GD32VW55X_Wifi_BLE_SDK/GD32VW55x_RELEASE_V1.0.2/MSDK/plf/GD32VW55x_standard_peripheral/Source\gd32vw55x_i2c.c ****       \arg        I2C_MASTER_TRANSMIT: master transmit
 179:C:/Users/stapi/OneDrive/Desktop/GD32VW553/GD32VW55X_Wifi_BLE_SDK/GD32VW55x_RELEASE_V1.0.2/MSDK/plf/GD32VW55x_standard_peripheral/Source\gd32vw55x_i2c.c ****       \arg        I2C_MASTER_RECEIVE: master receive
 180:C:/Users/stapi/OneDrive/Desktop/GD32VW553/GD32VW55X_Wifi_BLE_SDK/GD32VW55x_RELEASE_V1.0.2/MSDK/plf/GD32VW55x_standard_peripheral/Source\gd32vw55x_i2c.c ****     \param[out] none
 181:C:/Users/stapi/OneDrive/Desktop/GD32VW553/GD32VW55X_Wifi_BLE_SDK/GD32VW55x_RELEASE_V1.0.2/MSDK/plf/GD32VW55x_standard_peripheral/Source\gd32vw55x_i2c.c ****     \retval     none
 182:C:/Users/stapi/OneDrive/Desktop/GD32VW553/GD32VW55X_Wifi_BLE_SDK/GD32VW55x_RELEASE_V1.0.2/MSDK/plf/GD32VW55x_standard_peripheral/Source\gd32vw55x_i2c.c **** */
 183:C:/Users/stapi/OneDrive/Desktop/GD32VW553/GD32VW55X_Wifi_BLE_SDK/GD32VW55x_RELEASE_V1.0.2/MSDK/plf/GD32VW55x_standard_peripheral/Source\gd32vw55x_i2c.c **** void i2c_master_addressing(uint32_t i2c_periph, uint32_t address, uint32_t trans_direction)
 184:C:/Users/stapi/OneDrive/Desktop/GD32VW553/GD32VW55X_Wifi_BLE_SDK/GD32VW55x_RELEASE_V1.0.2/MSDK/plf/GD32VW55x_standard_peripheral/Source\gd32vw55x_i2c.c **** {
 265              		.loc 1 184 1 is_stmt 1
 266              		.cfi_startproc
 267              	.LVL26:
 185:C:/Users/stapi/OneDrive/Desktop/GD32VW553/GD32VW55X_Wifi_BLE_SDK/GD32VW55x_RELEASE_V1.0.2/MSDK/plf/GD32VW55x_standard_peripheral/Source\gd32vw55x_i2c.c ****     /* configure slave address */
 186:C:/Users/stapi/OneDrive/Desktop/GD32VW553/GD32VW55X_Wifi_BLE_SDK/GD32VW55x_RELEASE_V1.0.2/MSDK/plf/GD32VW55x_standard_peripheral/Source\gd32vw55x_i2c.c ****     I2C_CTL1(i2c_periph) &= ~I2C_CTL1_SADDRESS;
 268              		.loc 1 186 5
 269              		.loc 1 186 26 is_stmt 0
 270 0000 5441     		lw	a3,4(a0)
 271 0002 93F606C0 		andi	a3,a3,-1024
 272 0006 54C1     		sw	a3,4(a0)
 187:C:/Users/stapi/OneDrive/Desktop/GD32VW553/GD32VW55X_Wifi_BLE_SDK/GD32VW55x_RELEASE_V1.0.2/MSDK/plf/GD32VW55x_standard_peripheral/Source\gd32vw55x_i2c.c ****     I2C_CTL1(i2c_periph) |= address;
 273              		.loc 1 187 5 is_stmt 1
 274              		.loc 1 187 26 is_stmt 0
 275 0008 5841     		lw	a4,4(a0)
 276 000a 4D8F     		or	a4,a4,a1
 277 000c 58C1     		sw	a4,4(a0)
 188:C:/Users/stapi/OneDrive/Desktop/GD32VW553/GD32VW55X_Wifi_BLE_SDK/GD32VW55x_RELEASE_V1.0.2/MSDK/plf/GD32VW55x_standard_peripheral/Source\gd32vw55x_i2c.c ****     /* configure transfer direction */
 189:C:/Users/stapi/OneDrive/Desktop/GD32VW553/GD32VW55X_Wifi_BLE_SDK/GD32VW55x_RELEASE_V1.0.2/MSDK/plf/GD32VW55x_standard_peripheral/Source\gd32vw55x_i2c.c ****     I2C_CTL1(i2c_periph) &= ~I2C_CTL1_TRDIR;
 278              		.loc 1 189 5 is_stmt 1
 279              		.loc 1 189 26 is_stmt 0
 280 000e 5841     		lw	a4,4(a0)
 281 0010 1377F7BF 		andi	a4,a4,-1025
 282 0014 58C1     		sw	a4,4(a0)
 190:C:/Users/stapi/OneDrive/Desktop/GD32VW553/GD32VW55X_Wifi_BLE_SDK/GD32VW55x_RELEASE_V1.0.2/MSDK/plf/GD32VW55x_standard_peripheral/Source\gd32vw55x_i2c.c ****     I2C_CTL1(i2c_periph) |= trans_direction;
 283              		.loc 1 190 5 is_stmt 1
 284              		.loc 1 190 26 is_stmt 0
 285 0016 5C41     		lw	a5,4(a0)
 286 0018 D18F     		or	a5,a5,a2
 287 001a 5CC1     		sw	a5,4(a0)
 191:C:/Users/stapi/OneDrive/Desktop/GD32VW553/GD32VW55X_Wifi_BLE_SDK/GD32VW55x_RELEASE_V1.0.2/MSDK/plf/GD32VW55x_standard_peripheral/Source\gd32vw55x_i2c.c **** }
 288              		.loc 1 191 1
 289 001c 8280     		ret
 290              		.cfi_endproc
 291              	.LFE371:
 293              		.section	.text.i2c_address10_header_enable,"ax",@progbits
 294              		.align	1
 295              		.globl	i2c_address10_header_enable
 297              	i2c_address10_header_enable:
 298              	.LFB372:
 192:C:/Users/stapi/OneDrive/Desktop/GD32VW553/GD32VW55X_Wifi_BLE_SDK/GD32VW55x_RELEASE_V1.0.2/MSDK/plf/GD32VW55x_standard_peripheral/Source\gd32vw55x_i2c.c **** 
 193:C:/Users/stapi/OneDrive/Desktop/GD32VW553/GD32VW55X_Wifi_BLE_SDK/GD32VW55x_RELEASE_V1.0.2/MSDK/plf/GD32VW55x_standard_peripheral/Source\gd32vw55x_i2c.c **** /*!
 194:C:/Users/stapi/OneDrive/Desktop/GD32VW553/GD32VW55X_Wifi_BLE_SDK/GD32VW55x_RELEASE_V1.0.2/MSDK/plf/GD32VW55x_standard_peripheral/Source\gd32vw55x_i2c.c ****     \brief      10-bit address header executes read direction only in master receive mode
 195:C:/Users/stapi/OneDrive/Desktop/GD32VW553/GD32VW55X_Wifi_BLE_SDK/GD32VW55x_RELEASE_V1.0.2/MSDK/plf/GD32VW55x_standard_peripheral/Source\gd32vw55x_i2c.c ****     \param[in]  i2c_periph: I2Cx(x=0,1)
 196:C:/Users/stapi/OneDrive/Desktop/GD32VW553/GD32VW55X_Wifi_BLE_SDK/GD32VW55x_RELEASE_V1.0.2/MSDK/plf/GD32VW55x_standard_peripheral/Source\gd32vw55x_i2c.c ****     \param[out] none
 197:C:/Users/stapi/OneDrive/Desktop/GD32VW553/GD32VW55X_Wifi_BLE_SDK/GD32VW55x_RELEASE_V1.0.2/MSDK/plf/GD32VW55x_standard_peripheral/Source\gd32vw55x_i2c.c ****     \retval     none
 198:C:/Users/stapi/OneDrive/Desktop/GD32VW553/GD32VW55X_Wifi_BLE_SDK/GD32VW55x_RELEASE_V1.0.2/MSDK/plf/GD32VW55x_standard_peripheral/Source\gd32vw55x_i2c.c **** */
 199:C:/Users/stapi/OneDrive/Desktop/GD32VW553/GD32VW55X_Wifi_BLE_SDK/GD32VW55x_RELEASE_V1.0.2/MSDK/plf/GD32VW55x_standard_peripheral/Source\gd32vw55x_i2c.c **** void i2c_address10_header_enable(uint32_t i2c_periph)
 200:C:/Users/stapi/OneDrive/Desktop/GD32VW553/GD32VW55X_Wifi_BLE_SDK/GD32VW55x_RELEASE_V1.0.2/MSDK/plf/GD32VW55x_standard_peripheral/Source\gd32vw55x_i2c.c **** {
 299              		.loc 1 200 1 is_stmt 1
 300              		.cfi_startproc
 301              	.LVL27:
 201:C:/Users/stapi/OneDrive/Desktop/GD32VW553/GD32VW55X_Wifi_BLE_SDK/GD32VW55x_RELEASE_V1.0.2/MSDK/plf/GD32VW55x_standard_peripheral/Source\gd32vw55x_i2c.c ****     I2C_CTL1(i2c_periph) |= I2C_CTL1_HEAD10R;
 302              		.loc 1 201 5
 303              		.loc 1 201 26 is_stmt 0
 304 0000 5C41     		lw	a5,4(a0)
 305 0002 9397C728 		bseti	a5,a5,12
 306 0006 5CC1     		sw	a5,4(a0)
 202:C:/Users/stapi/OneDrive/Desktop/GD32VW553/GD32VW55X_Wifi_BLE_SDK/GD32VW55x_RELEASE_V1.0.2/MSDK/plf/GD32VW55x_standard_peripheral/Source\gd32vw55x_i2c.c **** }
 307              		.loc 1 202 1
 308 0008 8280     		ret
 309              		.cfi_endproc
 310              	.LFE372:
 312              		.section	.text.i2c_address10_header_disable,"ax",@progbits
 313              		.align	1
 314              		.globl	i2c_address10_header_disable
 316              	i2c_address10_header_disable:
 317              	.LFB373:
 203:C:/Users/stapi/OneDrive/Desktop/GD32VW553/GD32VW55X_Wifi_BLE_SDK/GD32VW55x_RELEASE_V1.0.2/MSDK/plf/GD32VW55x_standard_peripheral/Source\gd32vw55x_i2c.c **** 
 204:C:/Users/stapi/OneDrive/Desktop/GD32VW553/GD32VW55X_Wifi_BLE_SDK/GD32VW55x_RELEASE_V1.0.2/MSDK/plf/GD32VW55x_standard_peripheral/Source\gd32vw55x_i2c.c **** /*!
 205:C:/Users/stapi/OneDrive/Desktop/GD32VW553/GD32VW55X_Wifi_BLE_SDK/GD32VW55x_RELEASE_V1.0.2/MSDK/plf/GD32VW55x_standard_peripheral/Source\gd32vw55x_i2c.c ****     \brief      10-bit address header executes complete sequence in master receive mode
 206:C:/Users/stapi/OneDrive/Desktop/GD32VW553/GD32VW55X_Wifi_BLE_SDK/GD32VW55x_RELEASE_V1.0.2/MSDK/plf/GD32VW55x_standard_peripheral/Source\gd32vw55x_i2c.c ****     \param[in]  i2c_periph: I2Cx(x=0,1)
 207:C:/Users/stapi/OneDrive/Desktop/GD32VW553/GD32VW55X_Wifi_BLE_SDK/GD32VW55x_RELEASE_V1.0.2/MSDK/plf/GD32VW55x_standard_peripheral/Source\gd32vw55x_i2c.c ****     \param[out] none
 208:C:/Users/stapi/OneDrive/Desktop/GD32VW553/GD32VW55X_Wifi_BLE_SDK/GD32VW55x_RELEASE_V1.0.2/MSDK/plf/GD32VW55x_standard_peripheral/Source\gd32vw55x_i2c.c ****     \retval     none
 209:C:/Users/stapi/OneDrive/Desktop/GD32VW553/GD32VW55X_Wifi_BLE_SDK/GD32VW55x_RELEASE_V1.0.2/MSDK/plf/GD32VW55x_standard_peripheral/Source\gd32vw55x_i2c.c **** */
 210:C:/Users/stapi/OneDrive/Desktop/GD32VW553/GD32VW55X_Wifi_BLE_SDK/GD32VW55x_RELEASE_V1.0.2/MSDK/plf/GD32VW55x_standard_peripheral/Source\gd32vw55x_i2c.c **** void i2c_address10_header_disable(uint32_t i2c_periph)
 211:C:/Users/stapi/OneDrive/Desktop/GD32VW553/GD32VW55X_Wifi_BLE_SDK/GD32VW55x_RELEASE_V1.0.2/MSDK/plf/GD32VW55x_standard_peripheral/Source\gd32vw55x_i2c.c **** {
 318              		.loc 1 211 1 is_stmt 1
 319              		.cfi_startproc
 320              	.LVL28:
 212:C:/Users/stapi/OneDrive/Desktop/GD32VW553/GD32VW55X_Wifi_BLE_SDK/GD32VW55x_RELEASE_V1.0.2/MSDK/plf/GD32VW55x_standard_peripheral/Source\gd32vw55x_i2c.c ****     I2C_CTL1(i2c_periph) &= ~I2C_CTL1_HEAD10R;
 321              		.loc 1 212 5
 322              		.loc 1 212 26 is_stmt 0
 323 0000 5C41     		lw	a5,4(a0)
 324 0002 9397C748 		bclri	a5,a5,12
 325 0006 5CC1     		sw	a5,4(a0)
 213:C:/Users/stapi/OneDrive/Desktop/GD32VW553/GD32VW55X_Wifi_BLE_SDK/GD32VW55x_RELEASE_V1.0.2/MSDK/plf/GD32VW55x_standard_peripheral/Source\gd32vw55x_i2c.c **** }
 326              		.loc 1 213 1
 327 0008 8280     		ret
 328              		.cfi_endproc
 329              	.LFE373:
 331              		.section	.text.i2c_address10_enable,"ax",@progbits
 332              		.align	1
 333              		.globl	i2c_address10_enable
 335              	i2c_address10_enable:
 336              	.LFB374:
 214:C:/Users/stapi/OneDrive/Desktop/GD32VW553/GD32VW55X_Wifi_BLE_SDK/GD32VW55x_RELEASE_V1.0.2/MSDK/plf/GD32VW55x_standard_peripheral/Source\gd32vw55x_i2c.c **** 
 215:C:/Users/stapi/OneDrive/Desktop/GD32VW553/GD32VW55X_Wifi_BLE_SDK/GD32VW55x_RELEASE_V1.0.2/MSDK/plf/GD32VW55x_standard_peripheral/Source\gd32vw55x_i2c.c **** /*!
 216:C:/Users/stapi/OneDrive/Desktop/GD32VW553/GD32VW55X_Wifi_BLE_SDK/GD32VW55x_RELEASE_V1.0.2/MSDK/plf/GD32VW55x_standard_peripheral/Source\gd32vw55x_i2c.c ****     \brief      enable 10-bit addressing mode in master mode
 217:C:/Users/stapi/OneDrive/Desktop/GD32VW553/GD32VW55X_Wifi_BLE_SDK/GD32VW55x_RELEASE_V1.0.2/MSDK/plf/GD32VW55x_standard_peripheral/Source\gd32vw55x_i2c.c ****     \param[in]  i2c_periph: I2Cx(x=0,1)
 218:C:/Users/stapi/OneDrive/Desktop/GD32VW553/GD32VW55X_Wifi_BLE_SDK/GD32VW55x_RELEASE_V1.0.2/MSDK/plf/GD32VW55x_standard_peripheral/Source\gd32vw55x_i2c.c ****     \param[out] none
 219:C:/Users/stapi/OneDrive/Desktop/GD32VW553/GD32VW55X_Wifi_BLE_SDK/GD32VW55x_RELEASE_V1.0.2/MSDK/plf/GD32VW55x_standard_peripheral/Source\gd32vw55x_i2c.c ****     \retval     none
 220:C:/Users/stapi/OneDrive/Desktop/GD32VW553/GD32VW55X_Wifi_BLE_SDK/GD32VW55x_RELEASE_V1.0.2/MSDK/plf/GD32VW55x_standard_peripheral/Source\gd32vw55x_i2c.c **** */
 221:C:/Users/stapi/OneDrive/Desktop/GD32VW553/GD32VW55X_Wifi_BLE_SDK/GD32VW55x_RELEASE_V1.0.2/MSDK/plf/GD32VW55x_standard_peripheral/Source\gd32vw55x_i2c.c **** void i2c_address10_enable(uint32_t i2c_periph)
 222:C:/Users/stapi/OneDrive/Desktop/GD32VW553/GD32VW55X_Wifi_BLE_SDK/GD32VW55x_RELEASE_V1.0.2/MSDK/plf/GD32VW55x_standard_peripheral/Source\gd32vw55x_i2c.c **** {
 337              		.loc 1 222 1 is_stmt 1
 338              		.cfi_startproc
 339              	.LVL29:
 223:C:/Users/stapi/OneDrive/Desktop/GD32VW553/GD32VW55X_Wifi_BLE_SDK/GD32VW55x_RELEASE_V1.0.2/MSDK/plf/GD32VW55x_standard_peripheral/Source\gd32vw55x_i2c.c ****     I2C_CTL1(i2c_periph) |= I2C_CTL1_ADD10EN;
 340              		.loc 1 223 5
 341              		.loc 1 223 26 is_stmt 0
 342 0000 5C41     		lw	a5,4(a0)
 343 0002 9397B728 		bseti	a5,a5,11
 344 0006 5CC1     		sw	a5,4(a0)
 224:C:/Users/stapi/OneDrive/Desktop/GD32VW553/GD32VW55X_Wifi_BLE_SDK/GD32VW55x_RELEASE_V1.0.2/MSDK/plf/GD32VW55x_standard_peripheral/Source\gd32vw55x_i2c.c **** }
 345              		.loc 1 224 1
 346 0008 8280     		ret
 347              		.cfi_endproc
 348              	.LFE374:
 350              		.section	.text.i2c_address10_disable,"ax",@progbits
 351              		.align	1
 352              		.globl	i2c_address10_disable
 354              	i2c_address10_disable:
 355              	.LFB375:
 225:C:/Users/stapi/OneDrive/Desktop/GD32VW553/GD32VW55X_Wifi_BLE_SDK/GD32VW55x_RELEASE_V1.0.2/MSDK/plf/GD32VW55x_standard_peripheral/Source\gd32vw55x_i2c.c **** 
 226:C:/Users/stapi/OneDrive/Desktop/GD32VW553/GD32VW55X_Wifi_BLE_SDK/GD32VW55x_RELEASE_V1.0.2/MSDK/plf/GD32VW55x_standard_peripheral/Source\gd32vw55x_i2c.c **** /*!
 227:C:/Users/stapi/OneDrive/Desktop/GD32VW553/GD32VW55X_Wifi_BLE_SDK/GD32VW55x_RELEASE_V1.0.2/MSDK/plf/GD32VW55x_standard_peripheral/Source\gd32vw55x_i2c.c ****     \brief      disable 10-bit addressing mode in master mode
 228:C:/Users/stapi/OneDrive/Desktop/GD32VW553/GD32VW55X_Wifi_BLE_SDK/GD32VW55x_RELEASE_V1.0.2/MSDK/plf/GD32VW55x_standard_peripheral/Source\gd32vw55x_i2c.c ****     \param[in]  i2c_periph: I2Cx(x=0,1)
 229:C:/Users/stapi/OneDrive/Desktop/GD32VW553/GD32VW55X_Wifi_BLE_SDK/GD32VW55x_RELEASE_V1.0.2/MSDK/plf/GD32VW55x_standard_peripheral/Source\gd32vw55x_i2c.c ****     \param[out] none
 230:C:/Users/stapi/OneDrive/Desktop/GD32VW553/GD32VW55X_Wifi_BLE_SDK/GD32VW55x_RELEASE_V1.0.2/MSDK/plf/GD32VW55x_standard_peripheral/Source\gd32vw55x_i2c.c ****     \retval     none
 231:C:/Users/stapi/OneDrive/Desktop/GD32VW553/GD32VW55X_Wifi_BLE_SDK/GD32VW55x_RELEASE_V1.0.2/MSDK/plf/GD32VW55x_standard_peripheral/Source\gd32vw55x_i2c.c **** */
 232:C:/Users/stapi/OneDrive/Desktop/GD32VW553/GD32VW55X_Wifi_BLE_SDK/GD32VW55x_RELEASE_V1.0.2/MSDK/plf/GD32VW55x_standard_peripheral/Source\gd32vw55x_i2c.c **** void i2c_address10_disable(uint32_t i2c_periph)
 233:C:/Users/stapi/OneDrive/Desktop/GD32VW553/GD32VW55X_Wifi_BLE_SDK/GD32VW55x_RELEASE_V1.0.2/MSDK/plf/GD32VW55x_standard_peripheral/Source\gd32vw55x_i2c.c **** {
 356              		.loc 1 233 1 is_stmt 1
 357              		.cfi_startproc
 358              	.LVL30:
 234:C:/Users/stapi/OneDrive/Desktop/GD32VW553/GD32VW55X_Wifi_BLE_SDK/GD32VW55x_RELEASE_V1.0.2/MSDK/plf/GD32VW55x_standard_peripheral/Source\gd32vw55x_i2c.c ****     I2C_CTL1(i2c_periph) &= ~I2C_CTL1_ADD10EN;
 359              		.loc 1 234 5
 360              		.loc 1 234 26 is_stmt 0
 361 0000 5C41     		lw	a5,4(a0)
 362 0002 9397B748 		bclri	a5,a5,11
 363 0006 5CC1     		sw	a5,4(a0)
 235:C:/Users/stapi/OneDrive/Desktop/GD32VW553/GD32VW55X_Wifi_BLE_SDK/GD32VW55x_RELEASE_V1.0.2/MSDK/plf/GD32VW55x_standard_peripheral/Source\gd32vw55x_i2c.c **** }
 364              		.loc 1 235 1
 365 0008 8280     		ret
 366              		.cfi_endproc
 367              	.LFE375:
 369              		.section	.text.i2c_automatic_end_enable,"ax",@progbits
 370              		.align	1
 371              		.globl	i2c_automatic_end_enable
 373              	i2c_automatic_end_enable:
 374              	.LFB376:
 236:C:/Users/stapi/OneDrive/Desktop/GD32VW553/GD32VW55X_Wifi_BLE_SDK/GD32VW55x_RELEASE_V1.0.2/MSDK/plf/GD32VW55x_standard_peripheral/Source\gd32vw55x_i2c.c **** 
 237:C:/Users/stapi/OneDrive/Desktop/GD32VW553/GD32VW55X_Wifi_BLE_SDK/GD32VW55x_RELEASE_V1.0.2/MSDK/plf/GD32VW55x_standard_peripheral/Source\gd32vw55x_i2c.c **** /*!
 238:C:/Users/stapi/OneDrive/Desktop/GD32VW553/GD32VW55X_Wifi_BLE_SDK/GD32VW55x_RELEASE_V1.0.2/MSDK/plf/GD32VW55x_standard_peripheral/Source\gd32vw55x_i2c.c ****     \brief      enable I2C automatic end mode in master mode
 239:C:/Users/stapi/OneDrive/Desktop/GD32VW553/GD32VW55X_Wifi_BLE_SDK/GD32VW55x_RELEASE_V1.0.2/MSDK/plf/GD32VW55x_standard_peripheral/Source\gd32vw55x_i2c.c ****     \param[in]  i2c_periph: I2Cx(x=0,1)
 240:C:/Users/stapi/OneDrive/Desktop/GD32VW553/GD32VW55X_Wifi_BLE_SDK/GD32VW55x_RELEASE_V1.0.2/MSDK/plf/GD32VW55x_standard_peripheral/Source\gd32vw55x_i2c.c ****     \param[out] none
 241:C:/Users/stapi/OneDrive/Desktop/GD32VW553/GD32VW55X_Wifi_BLE_SDK/GD32VW55x_RELEASE_V1.0.2/MSDK/plf/GD32VW55x_standard_peripheral/Source\gd32vw55x_i2c.c ****     \retval     none
 242:C:/Users/stapi/OneDrive/Desktop/GD32VW553/GD32VW55X_Wifi_BLE_SDK/GD32VW55x_RELEASE_V1.0.2/MSDK/plf/GD32VW55x_standard_peripheral/Source\gd32vw55x_i2c.c **** */
 243:C:/Users/stapi/OneDrive/Desktop/GD32VW553/GD32VW55X_Wifi_BLE_SDK/GD32VW55x_RELEASE_V1.0.2/MSDK/plf/GD32VW55x_standard_peripheral/Source\gd32vw55x_i2c.c **** void i2c_automatic_end_enable(uint32_t i2c_periph)
 244:C:/Users/stapi/OneDrive/Desktop/GD32VW553/GD32VW55X_Wifi_BLE_SDK/GD32VW55x_RELEASE_V1.0.2/MSDK/plf/GD32VW55x_standard_peripheral/Source\gd32vw55x_i2c.c **** {
 375              		.loc 1 244 1 is_stmt 1
 376              		.cfi_startproc
 377              	.LVL31:
 245:C:/Users/stapi/OneDrive/Desktop/GD32VW553/GD32VW55X_Wifi_BLE_SDK/GD32VW55x_RELEASE_V1.0.2/MSDK/plf/GD32VW55x_standard_peripheral/Source\gd32vw55x_i2c.c ****     I2C_CTL1(i2c_periph) |= I2C_CTL1_AUTOEND;
 378              		.loc 1 245 5
 379              		.loc 1 245 26 is_stmt 0
 380 0000 5C41     		lw	a5,4(a0)
 381 0002 93979729 		bseti	a5,a5,25
 382 0006 5CC1     		sw	a5,4(a0)
 246:C:/Users/stapi/OneDrive/Desktop/GD32VW553/GD32VW55X_Wifi_BLE_SDK/GD32VW55x_RELEASE_V1.0.2/MSDK/plf/GD32VW55x_standard_peripheral/Source\gd32vw55x_i2c.c **** }
 383              		.loc 1 246 1
 384 0008 8280     		ret
 385              		.cfi_endproc
 386              	.LFE376:
 388              		.section	.text.i2c_automatic_end_disable,"ax",@progbits
 389              		.align	1
 390              		.globl	i2c_automatic_end_disable
 392              	i2c_automatic_end_disable:
 393              	.LFB377:
 247:C:/Users/stapi/OneDrive/Desktop/GD32VW553/GD32VW55X_Wifi_BLE_SDK/GD32VW55x_RELEASE_V1.0.2/MSDK/plf/GD32VW55x_standard_peripheral/Source\gd32vw55x_i2c.c **** 
 248:C:/Users/stapi/OneDrive/Desktop/GD32VW553/GD32VW55X_Wifi_BLE_SDK/GD32VW55x_RELEASE_V1.0.2/MSDK/plf/GD32VW55x_standard_peripheral/Source\gd32vw55x_i2c.c **** /*!
 249:C:/Users/stapi/OneDrive/Desktop/GD32VW553/GD32VW55X_Wifi_BLE_SDK/GD32VW55x_RELEASE_V1.0.2/MSDK/plf/GD32VW55x_standard_peripheral/Source\gd32vw55x_i2c.c ****     \brief      disable I2C automatic end mode in master mode
 250:C:/Users/stapi/OneDrive/Desktop/GD32VW553/GD32VW55X_Wifi_BLE_SDK/GD32VW55x_RELEASE_V1.0.2/MSDK/plf/GD32VW55x_standard_peripheral/Source\gd32vw55x_i2c.c ****     \param[in]  i2c_periph: I2Cx(x=0,1)
 251:C:/Users/stapi/OneDrive/Desktop/GD32VW553/GD32VW55X_Wifi_BLE_SDK/GD32VW55x_RELEASE_V1.0.2/MSDK/plf/GD32VW55x_standard_peripheral/Source\gd32vw55x_i2c.c ****     \param[out] none
 252:C:/Users/stapi/OneDrive/Desktop/GD32VW553/GD32VW55X_Wifi_BLE_SDK/GD32VW55x_RELEASE_V1.0.2/MSDK/plf/GD32VW55x_standard_peripheral/Source\gd32vw55x_i2c.c ****     \retval     none
 253:C:/Users/stapi/OneDrive/Desktop/GD32VW553/GD32VW55X_Wifi_BLE_SDK/GD32VW55x_RELEASE_V1.0.2/MSDK/plf/GD32VW55x_standard_peripheral/Source\gd32vw55x_i2c.c **** */
 254:C:/Users/stapi/OneDrive/Desktop/GD32VW553/GD32VW55X_Wifi_BLE_SDK/GD32VW55x_RELEASE_V1.0.2/MSDK/plf/GD32VW55x_standard_peripheral/Source\gd32vw55x_i2c.c **** void i2c_automatic_end_disable(uint32_t i2c_periph)
 255:C:/Users/stapi/OneDrive/Desktop/GD32VW553/GD32VW55X_Wifi_BLE_SDK/GD32VW55x_RELEASE_V1.0.2/MSDK/plf/GD32VW55x_standard_peripheral/Source\gd32vw55x_i2c.c **** {
 394              		.loc 1 255 1 is_stmt 1
 395              		.cfi_startproc
 396              	.LVL32:
 256:C:/Users/stapi/OneDrive/Desktop/GD32VW553/GD32VW55X_Wifi_BLE_SDK/GD32VW55x_RELEASE_V1.0.2/MSDK/plf/GD32VW55x_standard_peripheral/Source\gd32vw55x_i2c.c ****     I2C_CTL1(i2c_periph) &= ~I2C_CTL1_AUTOEND;
 397              		.loc 1 256 5
 398              		.loc 1 256 26 is_stmt 0
 399 0000 5C41     		lw	a5,4(a0)
 400 0002 93979749 		bclri	a5,a5,25
 401 0006 5CC1     		sw	a5,4(a0)
 257:C:/Users/stapi/OneDrive/Desktop/GD32VW553/GD32VW55X_Wifi_BLE_SDK/GD32VW55x_RELEASE_V1.0.2/MSDK/plf/GD32VW55x_standard_peripheral/Source\gd32vw55x_i2c.c **** }
 402              		.loc 1 257 1
 403 0008 8280     		ret
 404              		.cfi_endproc
 405              	.LFE377:
 407              		.section	.text.i2c_slave_response_to_gcall_enable,"ax",@progbits
 408              		.align	1
 409              		.globl	i2c_slave_response_to_gcall_enable
 411              	i2c_slave_response_to_gcall_enable:
 412              	.LFB378:
 258:C:/Users/stapi/OneDrive/Desktop/GD32VW553/GD32VW55X_Wifi_BLE_SDK/GD32VW55x_RELEASE_V1.0.2/MSDK/plf/GD32VW55x_standard_peripheral/Source\gd32vw55x_i2c.c **** 
 259:C:/Users/stapi/OneDrive/Desktop/GD32VW553/GD32VW55X_Wifi_BLE_SDK/GD32VW55x_RELEASE_V1.0.2/MSDK/plf/GD32VW55x_standard_peripheral/Source\gd32vw55x_i2c.c **** /*!
 260:C:/Users/stapi/OneDrive/Desktop/GD32VW553/GD32VW55X_Wifi_BLE_SDK/GD32VW55x_RELEASE_V1.0.2/MSDK/plf/GD32VW55x_standard_peripheral/Source\gd32vw55x_i2c.c ****     \brief      enable the response to a general call
 261:C:/Users/stapi/OneDrive/Desktop/GD32VW553/GD32VW55X_Wifi_BLE_SDK/GD32VW55x_RELEASE_V1.0.2/MSDK/plf/GD32VW55x_standard_peripheral/Source\gd32vw55x_i2c.c ****     \param[in]  i2c_periph: I2Cx(x=0,1)
 262:C:/Users/stapi/OneDrive/Desktop/GD32VW553/GD32VW55X_Wifi_BLE_SDK/GD32VW55x_RELEASE_V1.0.2/MSDK/plf/GD32VW55x_standard_peripheral/Source\gd32vw55x_i2c.c ****     \param[out] none
 263:C:/Users/stapi/OneDrive/Desktop/GD32VW553/GD32VW55X_Wifi_BLE_SDK/GD32VW55x_RELEASE_V1.0.2/MSDK/plf/GD32VW55x_standard_peripheral/Source\gd32vw55x_i2c.c ****     \retval     none
 264:C:/Users/stapi/OneDrive/Desktop/GD32VW553/GD32VW55X_Wifi_BLE_SDK/GD32VW55x_RELEASE_V1.0.2/MSDK/plf/GD32VW55x_standard_peripheral/Source\gd32vw55x_i2c.c **** */
 265:C:/Users/stapi/OneDrive/Desktop/GD32VW553/GD32VW55X_Wifi_BLE_SDK/GD32VW55x_RELEASE_V1.0.2/MSDK/plf/GD32VW55x_standard_peripheral/Source\gd32vw55x_i2c.c **** void i2c_slave_response_to_gcall_enable(uint32_t i2c_periph)
 266:C:/Users/stapi/OneDrive/Desktop/GD32VW553/GD32VW55X_Wifi_BLE_SDK/GD32VW55x_RELEASE_V1.0.2/MSDK/plf/GD32VW55x_standard_peripheral/Source\gd32vw55x_i2c.c **** {
 413              		.loc 1 266 1 is_stmt 1
 414              		.cfi_startproc
 415              	.LVL33:
 267:C:/Users/stapi/OneDrive/Desktop/GD32VW553/GD32VW55X_Wifi_BLE_SDK/GD32VW55x_RELEASE_V1.0.2/MSDK/plf/GD32VW55x_standard_peripheral/Source\gd32vw55x_i2c.c ****     I2C_CTL0(i2c_periph) |= I2C_CTL0_GCEN;
 416              		.loc 1 267 5
 417              		.loc 1 267 26 is_stmt 0
 418 0000 1C41     		lw	a5,0(a0)
 419 0002 93973729 		bseti	a5,a5,19
 420 0006 1CC1     		sw	a5,0(a0)
 268:C:/Users/stapi/OneDrive/Desktop/GD32VW553/GD32VW55X_Wifi_BLE_SDK/GD32VW55x_RELEASE_V1.0.2/MSDK/plf/GD32VW55x_standard_peripheral/Source\gd32vw55x_i2c.c **** }
 421              		.loc 1 268 1
 422 0008 8280     		ret
 423              		.cfi_endproc
 424              	.LFE378:
 426              		.section	.text.i2c_slave_response_to_gcall_disable,"ax",@progbits
 427              		.align	1
 428              		.globl	i2c_slave_response_to_gcall_disable
 430              	i2c_slave_response_to_gcall_disable:
 431              	.LFB379:
 269:C:/Users/stapi/OneDrive/Desktop/GD32VW553/GD32VW55X_Wifi_BLE_SDK/GD32VW55x_RELEASE_V1.0.2/MSDK/plf/GD32VW55x_standard_peripheral/Source\gd32vw55x_i2c.c **** 
 270:C:/Users/stapi/OneDrive/Desktop/GD32VW553/GD32VW55X_Wifi_BLE_SDK/GD32VW55x_RELEASE_V1.0.2/MSDK/plf/GD32VW55x_standard_peripheral/Source\gd32vw55x_i2c.c **** /*!
 271:C:/Users/stapi/OneDrive/Desktop/GD32VW553/GD32VW55X_Wifi_BLE_SDK/GD32VW55x_RELEASE_V1.0.2/MSDK/plf/GD32VW55x_standard_peripheral/Source\gd32vw55x_i2c.c ****     \brief      disable the response to a general call
 272:C:/Users/stapi/OneDrive/Desktop/GD32VW553/GD32VW55X_Wifi_BLE_SDK/GD32VW55x_RELEASE_V1.0.2/MSDK/plf/GD32VW55x_standard_peripheral/Source\gd32vw55x_i2c.c ****     \param[in]  i2c_periph: I2Cx(x=0,1)
 273:C:/Users/stapi/OneDrive/Desktop/GD32VW553/GD32VW55X_Wifi_BLE_SDK/GD32VW55x_RELEASE_V1.0.2/MSDK/plf/GD32VW55x_standard_peripheral/Source\gd32vw55x_i2c.c ****     \param[out] none
 274:C:/Users/stapi/OneDrive/Desktop/GD32VW553/GD32VW55X_Wifi_BLE_SDK/GD32VW55x_RELEASE_V1.0.2/MSDK/plf/GD32VW55x_standard_peripheral/Source\gd32vw55x_i2c.c ****     \retval     none
 275:C:/Users/stapi/OneDrive/Desktop/GD32VW553/GD32VW55X_Wifi_BLE_SDK/GD32VW55x_RELEASE_V1.0.2/MSDK/plf/GD32VW55x_standard_peripheral/Source\gd32vw55x_i2c.c **** */
 276:C:/Users/stapi/OneDrive/Desktop/GD32VW553/GD32VW55X_Wifi_BLE_SDK/GD32VW55x_RELEASE_V1.0.2/MSDK/plf/GD32VW55x_standard_peripheral/Source\gd32vw55x_i2c.c **** void i2c_slave_response_to_gcall_disable(uint32_t i2c_periph)
 277:C:/Users/stapi/OneDrive/Desktop/GD32VW553/GD32VW55X_Wifi_BLE_SDK/GD32VW55x_RELEASE_V1.0.2/MSDK/plf/GD32VW55x_standard_peripheral/Source\gd32vw55x_i2c.c **** {
 432              		.loc 1 277 1 is_stmt 1
 433              		.cfi_startproc
 434              	.LVL34:
 278:C:/Users/stapi/OneDrive/Desktop/GD32VW553/GD32VW55X_Wifi_BLE_SDK/GD32VW55x_RELEASE_V1.0.2/MSDK/plf/GD32VW55x_standard_peripheral/Source\gd32vw55x_i2c.c ****     I2C_CTL0(i2c_periph) &= ~I2C_CTL0_GCEN;
 435              		.loc 1 278 5
 436              		.loc 1 278 26 is_stmt 0
 437 0000 1C41     		lw	a5,0(a0)
 438 0002 93973749 		bclri	a5,a5,19
 439 0006 1CC1     		sw	a5,0(a0)
 279:C:/Users/stapi/OneDrive/Desktop/GD32VW553/GD32VW55X_Wifi_BLE_SDK/GD32VW55x_RELEASE_V1.0.2/MSDK/plf/GD32VW55x_standard_peripheral/Source\gd32vw55x_i2c.c **** }
 440              		.loc 1 279 1
 441 0008 8280     		ret
 442              		.cfi_endproc
 443              	.LFE379:
 445              		.section	.text.i2c_stretch_scl_low_enable,"ax",@progbits
 446              		.align	1
 447              		.globl	i2c_stretch_scl_low_enable
 449              	i2c_stretch_scl_low_enable:
 450              	.LFB380:
 280:C:/Users/stapi/OneDrive/Desktop/GD32VW553/GD32VW55X_Wifi_BLE_SDK/GD32VW55x_RELEASE_V1.0.2/MSDK/plf/GD32VW55x_standard_peripheral/Source\gd32vw55x_i2c.c **** 
 281:C:/Users/stapi/OneDrive/Desktop/GD32VW553/GD32VW55X_Wifi_BLE_SDK/GD32VW55x_RELEASE_V1.0.2/MSDK/plf/GD32VW55x_standard_peripheral/Source\gd32vw55x_i2c.c **** /*!
 282:C:/Users/stapi/OneDrive/Desktop/GD32VW553/GD32VW55X_Wifi_BLE_SDK/GD32VW55x_RELEASE_V1.0.2/MSDK/plf/GD32VW55x_standard_peripheral/Source\gd32vw55x_i2c.c ****     \brief      enable to stretch SCL low when data is not ready in slave mode
 283:C:/Users/stapi/OneDrive/Desktop/GD32VW553/GD32VW55X_Wifi_BLE_SDK/GD32VW55x_RELEASE_V1.0.2/MSDK/plf/GD32VW55x_standard_peripheral/Source\gd32vw55x_i2c.c ****     \param[in]  i2c_periph: I2Cx(x=0,1)
 284:C:/Users/stapi/OneDrive/Desktop/GD32VW553/GD32VW55X_Wifi_BLE_SDK/GD32VW55x_RELEASE_V1.0.2/MSDK/plf/GD32VW55x_standard_peripheral/Source\gd32vw55x_i2c.c ****     \param[out] none
 285:C:/Users/stapi/OneDrive/Desktop/GD32VW553/GD32VW55X_Wifi_BLE_SDK/GD32VW55x_RELEASE_V1.0.2/MSDK/plf/GD32VW55x_standard_peripheral/Source\gd32vw55x_i2c.c ****     \retval     none
 286:C:/Users/stapi/OneDrive/Desktop/GD32VW553/GD32VW55X_Wifi_BLE_SDK/GD32VW55x_RELEASE_V1.0.2/MSDK/plf/GD32VW55x_standard_peripheral/Source\gd32vw55x_i2c.c **** */
 287:C:/Users/stapi/OneDrive/Desktop/GD32VW553/GD32VW55X_Wifi_BLE_SDK/GD32VW55x_RELEASE_V1.0.2/MSDK/plf/GD32VW55x_standard_peripheral/Source\gd32vw55x_i2c.c **** void i2c_stretch_scl_low_enable(uint32_t i2c_periph)
 288:C:/Users/stapi/OneDrive/Desktop/GD32VW553/GD32VW55X_Wifi_BLE_SDK/GD32VW55x_RELEASE_V1.0.2/MSDK/plf/GD32VW55x_standard_peripheral/Source\gd32vw55x_i2c.c **** {
 451              		.loc 1 288 1 is_stmt 1
 452              		.cfi_startproc
 453              	.LVL35:
 289:C:/Users/stapi/OneDrive/Desktop/GD32VW553/GD32VW55X_Wifi_BLE_SDK/GD32VW55x_RELEASE_V1.0.2/MSDK/plf/GD32VW55x_standard_peripheral/Source\gd32vw55x_i2c.c ****     I2C_CTL0(i2c_periph) &= ~I2C_CTL0_SS;
 454              		.loc 1 289 5
 455              		.loc 1 289 26 is_stmt 0
 456 0000 1C41     		lw	a5,0(a0)
 457 0002 93971749 		bclri	a5,a5,17
 458 0006 1CC1     		sw	a5,0(a0)
 290:C:/Users/stapi/OneDrive/Desktop/GD32VW553/GD32VW55X_Wifi_BLE_SDK/GD32VW55x_RELEASE_V1.0.2/MSDK/plf/GD32VW55x_standard_peripheral/Source\gd32vw55x_i2c.c **** }
 459              		.loc 1 290 1
 460 0008 8280     		ret
 461              		.cfi_endproc
 462              	.LFE380:
 464              		.section	.text.i2c_stretch_scl_low_disable,"ax",@progbits
 465              		.align	1
 466              		.globl	i2c_stretch_scl_low_disable
 468              	i2c_stretch_scl_low_disable:
 469              	.LFB381:
 291:C:/Users/stapi/OneDrive/Desktop/GD32VW553/GD32VW55X_Wifi_BLE_SDK/GD32VW55x_RELEASE_V1.0.2/MSDK/plf/GD32VW55x_standard_peripheral/Source\gd32vw55x_i2c.c **** 
 292:C:/Users/stapi/OneDrive/Desktop/GD32VW553/GD32VW55X_Wifi_BLE_SDK/GD32VW55x_RELEASE_V1.0.2/MSDK/plf/GD32VW55x_standard_peripheral/Source\gd32vw55x_i2c.c **** /*!
 293:C:/Users/stapi/OneDrive/Desktop/GD32VW553/GD32VW55X_Wifi_BLE_SDK/GD32VW55x_RELEASE_V1.0.2/MSDK/plf/GD32VW55x_standard_peripheral/Source\gd32vw55x_i2c.c ****     \brief      disable to stretch SCL low when data is not ready in slave mode
 294:C:/Users/stapi/OneDrive/Desktop/GD32VW553/GD32VW55X_Wifi_BLE_SDK/GD32VW55x_RELEASE_V1.0.2/MSDK/plf/GD32VW55x_standard_peripheral/Source\gd32vw55x_i2c.c ****     \param[in]  i2c_periph: I2Cx(x=0,1)
 295:C:/Users/stapi/OneDrive/Desktop/GD32VW553/GD32VW55X_Wifi_BLE_SDK/GD32VW55x_RELEASE_V1.0.2/MSDK/plf/GD32VW55x_standard_peripheral/Source\gd32vw55x_i2c.c ****     \param[out] none
 296:C:/Users/stapi/OneDrive/Desktop/GD32VW553/GD32VW55X_Wifi_BLE_SDK/GD32VW55x_RELEASE_V1.0.2/MSDK/plf/GD32VW55x_standard_peripheral/Source\gd32vw55x_i2c.c ****     \retval     none
 297:C:/Users/stapi/OneDrive/Desktop/GD32VW553/GD32VW55X_Wifi_BLE_SDK/GD32VW55x_RELEASE_V1.0.2/MSDK/plf/GD32VW55x_standard_peripheral/Source\gd32vw55x_i2c.c **** */
 298:C:/Users/stapi/OneDrive/Desktop/GD32VW553/GD32VW55X_Wifi_BLE_SDK/GD32VW55x_RELEASE_V1.0.2/MSDK/plf/GD32VW55x_standard_peripheral/Source\gd32vw55x_i2c.c **** void i2c_stretch_scl_low_disable(uint32_t i2c_periph)
 299:C:/Users/stapi/OneDrive/Desktop/GD32VW553/GD32VW55X_Wifi_BLE_SDK/GD32VW55x_RELEASE_V1.0.2/MSDK/plf/GD32VW55x_standard_peripheral/Source\gd32vw55x_i2c.c **** {
 470              		.loc 1 299 1 is_stmt 1
 471              		.cfi_startproc
 472              	.LVL36:
 300:C:/Users/stapi/OneDrive/Desktop/GD32VW553/GD32VW55X_Wifi_BLE_SDK/GD32VW55x_RELEASE_V1.0.2/MSDK/plf/GD32VW55x_standard_peripheral/Source\gd32vw55x_i2c.c ****     I2C_CTL0(i2c_periph) |= I2C_CTL0_SS;
 473              		.loc 1 300 5
 474              		.loc 1 300 26 is_stmt 0
 475 0000 1C41     		lw	a5,0(a0)
 476 0002 93971729 		bseti	a5,a5,17
 477 0006 1CC1     		sw	a5,0(a0)
 301:C:/Users/stapi/OneDrive/Desktop/GD32VW553/GD32VW55X_Wifi_BLE_SDK/GD32VW55x_RELEASE_V1.0.2/MSDK/plf/GD32VW55x_standard_peripheral/Source\gd32vw55x_i2c.c **** }
 478              		.loc 1 301 1
 479 0008 8280     		ret
 480              		.cfi_endproc
 481              	.LFE381:
 483              		.section	.text.i2c_address_config,"ax",@progbits
 484              		.align	1
 485              		.globl	i2c_address_config
 487              	i2c_address_config:
 488              	.LFB382:
 302:C:/Users/stapi/OneDrive/Desktop/GD32VW553/GD32VW55X_Wifi_BLE_SDK/GD32VW55x_RELEASE_V1.0.2/MSDK/plf/GD32VW55x_standard_peripheral/Source\gd32vw55x_i2c.c **** 
 303:C:/Users/stapi/OneDrive/Desktop/GD32VW553/GD32VW55X_Wifi_BLE_SDK/GD32VW55x_RELEASE_V1.0.2/MSDK/plf/GD32VW55x_standard_peripheral/Source\gd32vw55x_i2c.c **** /*!
 304:C:/Users/stapi/OneDrive/Desktop/GD32VW553/GD32VW55X_Wifi_BLE_SDK/GD32VW55x_RELEASE_V1.0.2/MSDK/plf/GD32VW55x_standard_peripheral/Source\gd32vw55x_i2c.c ****     \brief      configure I2C slave address
 305:C:/Users/stapi/OneDrive/Desktop/GD32VW553/GD32VW55X_Wifi_BLE_SDK/GD32VW55x_RELEASE_V1.0.2/MSDK/plf/GD32VW55x_standard_peripheral/Source\gd32vw55x_i2c.c ****     \param[in]  i2c_periph: I2Cx(x=0,1)
 306:C:/Users/stapi/OneDrive/Desktop/GD32VW553/GD32VW55X_Wifi_BLE_SDK/GD32VW55x_RELEASE_V1.0.2/MSDK/plf/GD32VW55x_standard_peripheral/Source\gd32vw55x_i2c.c ****     \param[in]  address: I2C address
 307:C:/Users/stapi/OneDrive/Desktop/GD32VW553/GD32VW55X_Wifi_BLE_SDK/GD32VW55x_RELEASE_V1.0.2/MSDK/plf/GD32VW55x_standard_peripheral/Source\gd32vw55x_i2c.c ****     \param[in]  addr_format: 7bits or 10bits
 308:C:/Users/stapi/OneDrive/Desktop/GD32VW553/GD32VW55X_Wifi_BLE_SDK/GD32VW55x_RELEASE_V1.0.2/MSDK/plf/GD32VW55x_standard_peripheral/Source\gd32vw55x_i2c.c ****                 only one parameter can be selected which is shown as below:
 309:C:/Users/stapi/OneDrive/Desktop/GD32VW553/GD32VW55X_Wifi_BLE_SDK/GD32VW55x_RELEASE_V1.0.2/MSDK/plf/GD32VW55x_standard_peripheral/Source\gd32vw55x_i2c.c ****       \arg        I2C_ADDFORMAT_7BITS: address format is 7 bits
 310:C:/Users/stapi/OneDrive/Desktop/GD32VW553/GD32VW55X_Wifi_BLE_SDK/GD32VW55x_RELEASE_V1.0.2/MSDK/plf/GD32VW55x_standard_peripheral/Source\gd32vw55x_i2c.c ****       \arg        I2C_ADDFORMAT_10BITS: address format is 10 bits
 311:C:/Users/stapi/OneDrive/Desktop/GD32VW553/GD32VW55X_Wifi_BLE_SDK/GD32VW55x_RELEASE_V1.0.2/MSDK/plf/GD32VW55x_standard_peripheral/Source\gd32vw55x_i2c.c ****     \param[out] none
 312:C:/Users/stapi/OneDrive/Desktop/GD32VW553/GD32VW55X_Wifi_BLE_SDK/GD32VW55x_RELEASE_V1.0.2/MSDK/plf/GD32VW55x_standard_peripheral/Source\gd32vw55x_i2c.c ****     \retval     none
 313:C:/Users/stapi/OneDrive/Desktop/GD32VW553/GD32VW55X_Wifi_BLE_SDK/GD32VW55x_RELEASE_V1.0.2/MSDK/plf/GD32VW55x_standard_peripheral/Source\gd32vw55x_i2c.c **** */
 314:C:/Users/stapi/OneDrive/Desktop/GD32VW553/GD32VW55X_Wifi_BLE_SDK/GD32VW55x_RELEASE_V1.0.2/MSDK/plf/GD32VW55x_standard_peripheral/Source\gd32vw55x_i2c.c **** void i2c_address_config(uint32_t i2c_periph, uint32_t address, uint32_t addr_format)
 315:C:/Users/stapi/OneDrive/Desktop/GD32VW553/GD32VW55X_Wifi_BLE_SDK/GD32VW55x_RELEASE_V1.0.2/MSDK/plf/GD32VW55x_standard_peripheral/Source\gd32vw55x_i2c.c **** {
 489              		.loc 1 315 1 is_stmt 1
 490              		.cfi_startproc
 491              	.LVL37:
 316:C:/Users/stapi/OneDrive/Desktop/GD32VW553/GD32VW55X_Wifi_BLE_SDK/GD32VW55x_RELEASE_V1.0.2/MSDK/plf/GD32VW55x_standard_peripheral/Source\gd32vw55x_i2c.c ****     /* configure ADDRESS[7:1] and address format */
 317:C:/Users/stapi/OneDrive/Desktop/GD32VW553/GD32VW55X_Wifi_BLE_SDK/GD32VW55x_RELEASE_V1.0.2/MSDK/plf/GD32VW55x_standard_peripheral/Source\gd32vw55x_i2c.c ****     address = address & I2C_ADDRESS_MASK;
 492              		.loc 1 317 5
 318:C:/Users/stapi/OneDrive/Desktop/GD32VW553/GD32VW55X_Wifi_BLE_SDK/GD32VW55x_RELEASE_V1.0.2/MSDK/plf/GD32VW55x_standard_peripheral/Source\gd32vw55x_i2c.c ****     I2C_SADDR0(i2c_periph) = (addr_format | address);
 493              		.loc 1 318 5
 317:C:/Users/stapi/OneDrive/Desktop/GD32VW553/GD32VW55X_Wifi_BLE_SDK/GD32VW55x_RELEASE_V1.0.2/MSDK/plf/GD32VW55x_standard_peripheral/Source\gd32vw55x_i2c.c ****     I2C_SADDR0(i2c_periph) = (addr_format | address);
 494              		.loc 1 317 13 is_stmt 0
 495 0000 93F5F53F 		andi	a1,a1,1023
 496              	.LVL38:
 497              		.loc 1 318 43
 498 0004 D18D     		or	a1,a1,a2
 499              	.LVL39:
 500              		.loc 1 318 28
 501 0006 0CC5     		sw	a1,8(a0)
 319:C:/Users/stapi/OneDrive/Desktop/GD32VW553/GD32VW55X_Wifi_BLE_SDK/GD32VW55x_RELEASE_V1.0.2/MSDK/plf/GD32VW55x_standard_peripheral/Source\gd32vw55x_i2c.c ****     /* enable I2C address in slave mode */
 320:C:/Users/stapi/OneDrive/Desktop/GD32VW553/GD32VW55X_Wifi_BLE_SDK/GD32VW55x_RELEASE_V1.0.2/MSDK/plf/GD32VW55x_standard_peripheral/Source\gd32vw55x_i2c.c ****     I2C_SADDR0(i2c_periph) |= I2C_SADDR0_ADDRESSEN;
 502              		.loc 1 320 5 is_stmt 1
 503              		.loc 1 320 28 is_stmt 0
 504 0008 1C45     		lw	a5,8(a0)
 505 000a 9397F728 		bseti	a5,a5,15
 506 000e 1CC5     		sw	a5,8(a0)
 321:C:/Users/stapi/OneDrive/Desktop/GD32VW553/GD32VW55X_Wifi_BLE_SDK/GD32VW55x_RELEASE_V1.0.2/MSDK/plf/GD32VW55x_standard_peripheral/Source\gd32vw55x_i2c.c **** }
 507              		.loc 1 321 1
 508 0010 8280     		ret
 509              		.cfi_endproc
 510              	.LFE382:
 512              		.section	.text.i2c_address_bit_compare_config,"ax",@progbits
 513              		.align	1
 514              		.globl	i2c_address_bit_compare_config
 516              	i2c_address_bit_compare_config:
 517              	.LFB383:
 322:C:/Users/stapi/OneDrive/Desktop/GD32VW553/GD32VW55X_Wifi_BLE_SDK/GD32VW55x_RELEASE_V1.0.2/MSDK/plf/GD32VW55x_standard_peripheral/Source\gd32vw55x_i2c.c **** 
 323:C:/Users/stapi/OneDrive/Desktop/GD32VW553/GD32VW55X_Wifi_BLE_SDK/GD32VW55x_RELEASE_V1.0.2/MSDK/plf/GD32VW55x_standard_peripheral/Source\gd32vw55x_i2c.c **** /*!
 324:C:/Users/stapi/OneDrive/Desktop/GD32VW553/GD32VW55X_Wifi_BLE_SDK/GD32VW55x_RELEASE_V1.0.2/MSDK/plf/GD32VW55x_standard_peripheral/Source\gd32vw55x_i2c.c ****     \brief      define which bits of ADDRESS[7:1] need to compare with the incoming address byte
 325:C:/Users/stapi/OneDrive/Desktop/GD32VW553/GD32VW55X_Wifi_BLE_SDK/GD32VW55x_RELEASE_V1.0.2/MSDK/plf/GD32VW55x_standard_peripheral/Source\gd32vw55x_i2c.c ****     \param[in]  i2c_periph: I2Cx(x=0,1)
 326:C:/Users/stapi/OneDrive/Desktop/GD32VW553/GD32VW55X_Wifi_BLE_SDK/GD32VW55x_RELEASE_V1.0.2/MSDK/plf/GD32VW55x_standard_peripheral/Source\gd32vw55x_i2c.c ****     \param[in]  compare_bits: the bits need to compare
 327:C:/Users/stapi/OneDrive/Desktop/GD32VW553/GD32VW55X_Wifi_BLE_SDK/GD32VW55x_RELEASE_V1.0.2/MSDK/plf/GD32VW55x_standard_peripheral/Source\gd32vw55x_i2c.c ****                 one or more parameters can be selected which are shown as below:
 328:C:/Users/stapi/OneDrive/Desktop/GD32VW553/GD32VW55X_Wifi_BLE_SDK/GD32VW55x_RELEASE_V1.0.2/MSDK/plf/GD32VW55x_standard_peripheral/Source\gd32vw55x_i2c.c ****                 ADDRESS_NO_BIT_COMPARE: all the address bits are masked
 329:C:/Users/stapi/OneDrive/Desktop/GD32VW553/GD32VW55X_Wifi_BLE_SDK/GD32VW55x_RELEASE_V1.0.2/MSDK/plf/GD32VW55x_standard_peripheral/Source\gd32vw55x_i2c.c ****                 ADDRESS_BIT1_COMPARE: address bit1 needs compare
 330:C:/Users/stapi/OneDrive/Desktop/GD32VW553/GD32VW55X_Wifi_BLE_SDK/GD32VW55x_RELEASE_V1.0.2/MSDK/plf/GD32VW55x_standard_peripheral/Source\gd32vw55x_i2c.c ****                 ADDRESS_BIT2_COMPARE: address bit2 needs compare
 331:C:/Users/stapi/OneDrive/Desktop/GD32VW553/GD32VW55X_Wifi_BLE_SDK/GD32VW55x_RELEASE_V1.0.2/MSDK/plf/GD32VW55x_standard_peripheral/Source\gd32vw55x_i2c.c ****                 ADDRESS_BIT3_COMPARE: address bit3 needs compare
 332:C:/Users/stapi/OneDrive/Desktop/GD32VW553/GD32VW55X_Wifi_BLE_SDK/GD32VW55x_RELEASE_V1.0.2/MSDK/plf/GD32VW55x_standard_peripheral/Source\gd32vw55x_i2c.c ****                 ADDRESS_BIT4_COMPARE: address bit4 needs compare
 333:C:/Users/stapi/OneDrive/Desktop/GD32VW553/GD32VW55X_Wifi_BLE_SDK/GD32VW55x_RELEASE_V1.0.2/MSDK/plf/GD32VW55x_standard_peripheral/Source\gd32vw55x_i2c.c ****                 ADDRESS_BIT5_COMPARE: address bit5 needs compare
 334:C:/Users/stapi/OneDrive/Desktop/GD32VW553/GD32VW55X_Wifi_BLE_SDK/GD32VW55x_RELEASE_V1.0.2/MSDK/plf/GD32VW55x_standard_peripheral/Source\gd32vw55x_i2c.c ****                 ADDRESS_BIT6_COMPARE: address bit6 needs compare
 335:C:/Users/stapi/OneDrive/Desktop/GD32VW553/GD32VW55X_Wifi_BLE_SDK/GD32VW55x_RELEASE_V1.0.2/MSDK/plf/GD32VW55x_standard_peripheral/Source\gd32vw55x_i2c.c ****                 ADDRESS_BIT7_COMPARE: address bit7 needs compare
 336:C:/Users/stapi/OneDrive/Desktop/GD32VW553/GD32VW55X_Wifi_BLE_SDK/GD32VW55x_RELEASE_V1.0.2/MSDK/plf/GD32VW55x_standard_peripheral/Source\gd32vw55x_i2c.c ****                 ADDRESS_ALL_BITS_COMPARE: all the bits must be compared
 337:C:/Users/stapi/OneDrive/Desktop/GD32VW553/GD32VW55X_Wifi_BLE_SDK/GD32VW55x_RELEASE_V1.0.2/MSDK/plf/GD32VW55x_standard_peripheral/Source\gd32vw55x_i2c.c ****     \param[out] none
 338:C:/Users/stapi/OneDrive/Desktop/GD32VW553/GD32VW55X_Wifi_BLE_SDK/GD32VW55x_RELEASE_V1.0.2/MSDK/plf/GD32VW55x_standard_peripheral/Source\gd32vw55x_i2c.c ****     \retval     none
 339:C:/Users/stapi/OneDrive/Desktop/GD32VW553/GD32VW55X_Wifi_BLE_SDK/GD32VW55x_RELEASE_V1.0.2/MSDK/plf/GD32VW55x_standard_peripheral/Source\gd32vw55x_i2c.c **** */
 340:C:/Users/stapi/OneDrive/Desktop/GD32VW553/GD32VW55X_Wifi_BLE_SDK/GD32VW55x_RELEASE_V1.0.2/MSDK/plf/GD32VW55x_standard_peripheral/Source\gd32vw55x_i2c.c **** void i2c_address_bit_compare_config(uint32_t i2c_periph, uint32_t compare_bits)
 341:C:/Users/stapi/OneDrive/Desktop/GD32VW553/GD32VW55X_Wifi_BLE_SDK/GD32VW55x_RELEASE_V1.0.2/MSDK/plf/GD32VW55x_standard_peripheral/Source\gd32vw55x_i2c.c **** {
 518              		.loc 1 341 1 is_stmt 1
 519              		.cfi_startproc
 520              	.LVL40:
 342:C:/Users/stapi/OneDrive/Desktop/GD32VW553/GD32VW55X_Wifi_BLE_SDK/GD32VW55x_RELEASE_V1.0.2/MSDK/plf/GD32VW55x_standard_peripheral/Source\gd32vw55x_i2c.c ****     I2C_CTL2(i2c_periph) &= ~I2C_CTL2_ADDM;
 521              		.loc 1 342 5
 522              		.loc 1 342 26 is_stmt 0
 523 0000 13050508 		addi	a0,a0,128
 524              	.LVL41:
 525 0004 1849     		lw	a4,16(a0)
 526 0006 C176     		li	a3,-65536
 527 0008 9386F61F 		addi	a3,a3,511
 528 000c 758F     		and	a4,a4,a3
 529 000e 18C9     		sw	a4,16(a0)
 343:C:/Users/stapi/OneDrive/Desktop/GD32VW553/GD32VW55X_Wifi_BLE_SDK/GD32VW55x_RELEASE_V1.0.2/MSDK/plf/GD32VW55x_standard_peripheral/Source\gd32vw55x_i2c.c ****     I2C_CTL2(i2c_periph) |= compare_bits;
 530              		.loc 1 343 5 is_stmt 1
 531              		.loc 1 343 26 is_stmt 0
 532 0010 1C49     		lw	a5,16(a0)
 533 0012 CD8F     		or	a5,a5,a1
 534 0014 1CC9     		sw	a5,16(a0)
 344:C:/Users/stapi/OneDrive/Desktop/GD32VW553/GD32VW55X_Wifi_BLE_SDK/GD32VW55x_RELEASE_V1.0.2/MSDK/plf/GD32VW55x_standard_peripheral/Source\gd32vw55x_i2c.c **** }
 535              		.loc 1 344 1
 536 0016 8280     		ret
 537              		.cfi_endproc
 538              	.LFE383:
 540              		.section	.text.i2c_address_disable,"ax",@progbits
 541              		.align	1
 542              		.globl	i2c_address_disable
 544              	i2c_address_disable:
 545              	.LFB384:
 345:C:/Users/stapi/OneDrive/Desktop/GD32VW553/GD32VW55X_Wifi_BLE_SDK/GD32VW55x_RELEASE_V1.0.2/MSDK/plf/GD32VW55x_standard_peripheral/Source\gd32vw55x_i2c.c **** 
 346:C:/Users/stapi/OneDrive/Desktop/GD32VW553/GD32VW55X_Wifi_BLE_SDK/GD32VW55x_RELEASE_V1.0.2/MSDK/plf/GD32VW55x_standard_peripheral/Source\gd32vw55x_i2c.c **** /*!
 347:C:/Users/stapi/OneDrive/Desktop/GD32VW553/GD32VW55X_Wifi_BLE_SDK/GD32VW55x_RELEASE_V1.0.2/MSDK/plf/GD32VW55x_standard_peripheral/Source\gd32vw55x_i2c.c ****     \brief      disable I2C address in slave mode
 348:C:/Users/stapi/OneDrive/Desktop/GD32VW553/GD32VW55X_Wifi_BLE_SDK/GD32VW55x_RELEASE_V1.0.2/MSDK/plf/GD32VW55x_standard_peripheral/Source\gd32vw55x_i2c.c ****     \param[in]  i2c_periph: I2Cx(x=0,1)
 349:C:/Users/stapi/OneDrive/Desktop/GD32VW553/GD32VW55X_Wifi_BLE_SDK/GD32VW55x_RELEASE_V1.0.2/MSDK/plf/GD32VW55x_standard_peripheral/Source\gd32vw55x_i2c.c ****     \param[out] none
 350:C:/Users/stapi/OneDrive/Desktop/GD32VW553/GD32VW55X_Wifi_BLE_SDK/GD32VW55x_RELEASE_V1.0.2/MSDK/plf/GD32VW55x_standard_peripheral/Source\gd32vw55x_i2c.c ****     \retval     none
 351:C:/Users/stapi/OneDrive/Desktop/GD32VW553/GD32VW55X_Wifi_BLE_SDK/GD32VW55x_RELEASE_V1.0.2/MSDK/plf/GD32VW55x_standard_peripheral/Source\gd32vw55x_i2c.c **** */
 352:C:/Users/stapi/OneDrive/Desktop/GD32VW553/GD32VW55X_Wifi_BLE_SDK/GD32VW55x_RELEASE_V1.0.2/MSDK/plf/GD32VW55x_standard_peripheral/Source\gd32vw55x_i2c.c **** void i2c_address_disable(uint32_t i2c_periph)
 353:C:/Users/stapi/OneDrive/Desktop/GD32VW553/GD32VW55X_Wifi_BLE_SDK/GD32VW55x_RELEASE_V1.0.2/MSDK/plf/GD32VW55x_standard_peripheral/Source\gd32vw55x_i2c.c **** {
 546              		.loc 1 353 1 is_stmt 1
 547              		.cfi_startproc
 548              	.LVL42:
 354:C:/Users/stapi/OneDrive/Desktop/GD32VW553/GD32VW55X_Wifi_BLE_SDK/GD32VW55x_RELEASE_V1.0.2/MSDK/plf/GD32VW55x_standard_peripheral/Source\gd32vw55x_i2c.c ****     I2C_SADDR0(i2c_periph) &= ~I2C_SADDR0_ADDRESSEN;
 549              		.loc 1 354 5
 550              		.loc 1 354 28 is_stmt 0
 551 0000 1C45     		lw	a5,8(a0)
 552 0002 9397F748 		bclri	a5,a5,15
 553 0006 1CC5     		sw	a5,8(a0)
 355:C:/Users/stapi/OneDrive/Desktop/GD32VW553/GD32VW55X_Wifi_BLE_SDK/GD32VW55x_RELEASE_V1.0.2/MSDK/plf/GD32VW55x_standard_peripheral/Source\gd32vw55x_i2c.c **** }
 554              		.loc 1 355 1
 555 0008 8280     		ret
 556              		.cfi_endproc
 557              	.LFE384:
 559              		.section	.text.i2c_second_address_config,"ax",@progbits
 560              		.align	1
 561              		.globl	i2c_second_address_config
 563              	i2c_second_address_config:
 564              	.LFB385:
 356:C:/Users/stapi/OneDrive/Desktop/GD32VW553/GD32VW55X_Wifi_BLE_SDK/GD32VW55x_RELEASE_V1.0.2/MSDK/plf/GD32VW55x_standard_peripheral/Source\gd32vw55x_i2c.c **** 
 357:C:/Users/stapi/OneDrive/Desktop/GD32VW553/GD32VW55X_Wifi_BLE_SDK/GD32VW55x_RELEASE_V1.0.2/MSDK/plf/GD32VW55x_standard_peripheral/Source\gd32vw55x_i2c.c **** /*!
 358:C:/Users/stapi/OneDrive/Desktop/GD32VW553/GD32VW55X_Wifi_BLE_SDK/GD32VW55x_RELEASE_V1.0.2/MSDK/plf/GD32VW55x_standard_peripheral/Source\gd32vw55x_i2c.c ****     \brief      configure I2C second slave address
 359:C:/Users/stapi/OneDrive/Desktop/GD32VW553/GD32VW55X_Wifi_BLE_SDK/GD32VW55x_RELEASE_V1.0.2/MSDK/plf/GD32VW55x_standard_peripheral/Source\gd32vw55x_i2c.c ****     \param[in]  i2c_periph: I2Cx(x=0,1)
 360:C:/Users/stapi/OneDrive/Desktop/GD32VW553/GD32VW55X_Wifi_BLE_SDK/GD32VW55x_RELEASE_V1.0.2/MSDK/plf/GD32VW55x_standard_peripheral/Source\gd32vw55x_i2c.c ****     \param[in]  address: I2C address
 361:C:/Users/stapi/OneDrive/Desktop/GD32VW553/GD32VW55X_Wifi_BLE_SDK/GD32VW55x_RELEASE_V1.0.2/MSDK/plf/GD32VW55x_standard_peripheral/Source\gd32vw55x_i2c.c ****     \param[in]  addr_mask: the bits not need to compare
 362:C:/Users/stapi/OneDrive/Desktop/GD32VW553/GD32VW55X_Wifi_BLE_SDK/GD32VW55x_RELEASE_V1.0.2/MSDK/plf/GD32VW55x_standard_peripheral/Source\gd32vw55x_i2c.c ****                 one or more parameters can be selected which are shown as below:
 363:C:/Users/stapi/OneDrive/Desktop/GD32VW553/GD32VW55X_Wifi_BLE_SDK/GD32VW55x_RELEASE_V1.0.2/MSDK/plf/GD32VW55x_standard_peripheral/Source\gd32vw55x_i2c.c ****       \arg        ADDRESS2_NO_MASK: no mask, all the bits must be compared
 364:C:/Users/stapi/OneDrive/Desktop/GD32VW553/GD32VW55X_Wifi_BLE_SDK/GD32VW55x_RELEASE_V1.0.2/MSDK/plf/GD32VW55x_standard_peripheral/Source\gd32vw55x_i2c.c ****       \arg        ADDRESS2_MASK_BIT1: ADDRESS2[1] is masked, only ADDRESS2[7:2] are compared
 365:C:/Users/stapi/OneDrive/Desktop/GD32VW553/GD32VW55X_Wifi_BLE_SDK/GD32VW55x_RELEASE_V1.0.2/MSDK/plf/GD32VW55x_standard_peripheral/Source\gd32vw55x_i2c.c ****       \arg        ADDRESS2_MASK_BIT1_2: ADDRESS2[2:1] is masked, only ADDRESS2[7:3] are compared
 366:C:/Users/stapi/OneDrive/Desktop/GD32VW553/GD32VW55X_Wifi_BLE_SDK/GD32VW55x_RELEASE_V1.0.2/MSDK/plf/GD32VW55x_standard_peripheral/Source\gd32vw55x_i2c.c ****       \arg        ADDRESS2_MASK_BIT1_3: ADDRESS2[3:1] is masked, only ADDRESS2[7:4] are compared
 367:C:/Users/stapi/OneDrive/Desktop/GD32VW553/GD32VW55X_Wifi_BLE_SDK/GD32VW55x_RELEASE_V1.0.2/MSDK/plf/GD32VW55x_standard_peripheral/Source\gd32vw55x_i2c.c ****       \arg        ADDRESS2_MASK_BIT1_4: ADDRESS2[4:1] is masked, only ADDRESS2[7:5] are compared
 368:C:/Users/stapi/OneDrive/Desktop/GD32VW553/GD32VW55X_Wifi_BLE_SDK/GD32VW55x_RELEASE_V1.0.2/MSDK/plf/GD32VW55x_standard_peripheral/Source\gd32vw55x_i2c.c ****       \arg        ADDRESS2_MASK_BIT1_5: ADDRESS2[5:1] is masked, only ADDRESS2[7:6] are compared
 369:C:/Users/stapi/OneDrive/Desktop/GD32VW553/GD32VW55X_Wifi_BLE_SDK/GD32VW55x_RELEASE_V1.0.2/MSDK/plf/GD32VW55x_standard_peripheral/Source\gd32vw55x_i2c.c ****       \arg        ADDRESS2_MASK_BIT1_6: ADDRESS2[6:1] is masked, only ADDRESS2[7] are compared
 370:C:/Users/stapi/OneDrive/Desktop/GD32VW553/GD32VW55X_Wifi_BLE_SDK/GD32VW55x_RELEASE_V1.0.2/MSDK/plf/GD32VW55x_standard_peripheral/Source\gd32vw55x_i2c.c ****       \arg        ADDRESS2_MASK_ALL: all the ADDRESS2[7:1] bits are masked
 371:C:/Users/stapi/OneDrive/Desktop/GD32VW553/GD32VW55X_Wifi_BLE_SDK/GD32VW55x_RELEASE_V1.0.2/MSDK/plf/GD32VW55x_standard_peripheral/Source\gd32vw55x_i2c.c ****     \param[out] none
 372:C:/Users/stapi/OneDrive/Desktop/GD32VW553/GD32VW55X_Wifi_BLE_SDK/GD32VW55x_RELEASE_V1.0.2/MSDK/plf/GD32VW55x_standard_peripheral/Source\gd32vw55x_i2c.c ****     \retval     none
 373:C:/Users/stapi/OneDrive/Desktop/GD32VW553/GD32VW55X_Wifi_BLE_SDK/GD32VW55x_RELEASE_V1.0.2/MSDK/plf/GD32VW55x_standard_peripheral/Source\gd32vw55x_i2c.c **** */
 374:C:/Users/stapi/OneDrive/Desktop/GD32VW553/GD32VW55X_Wifi_BLE_SDK/GD32VW55x_RELEASE_V1.0.2/MSDK/plf/GD32VW55x_standard_peripheral/Source\gd32vw55x_i2c.c **** void i2c_second_address_config(uint32_t i2c_periph, uint32_t address, uint32_t addr_mask)
 375:C:/Users/stapi/OneDrive/Desktop/GD32VW553/GD32VW55X_Wifi_BLE_SDK/GD32VW55x_RELEASE_V1.0.2/MSDK/plf/GD32VW55x_standard_peripheral/Source\gd32vw55x_i2c.c **** {
 565              		.loc 1 375 1 is_stmt 1
 566              		.cfi_startproc
 567              	.LVL43:
 376:C:/Users/stapi/OneDrive/Desktop/GD32VW553/GD32VW55X_Wifi_BLE_SDK/GD32VW55x_RELEASE_V1.0.2/MSDK/plf/GD32VW55x_standard_peripheral/Source\gd32vw55x_i2c.c ****     /* configure ADDRESS2[7:1] */
 377:C:/Users/stapi/OneDrive/Desktop/GD32VW553/GD32VW55X_Wifi_BLE_SDK/GD32VW55x_RELEASE_V1.0.2/MSDK/plf/GD32VW55x_standard_peripheral/Source\gd32vw55x_i2c.c ****     address = address & I2C_ADDRESS2_MASK;
 568              		.loc 1 377 5
 378:C:/Users/stapi/OneDrive/Desktop/GD32VW553/GD32VW55X_Wifi_BLE_SDK/GD32VW55x_RELEASE_V1.0.2/MSDK/plf/GD32VW55x_standard_peripheral/Source\gd32vw55x_i2c.c ****     I2C_SADDR1(i2c_periph) |= address;
 569              		.loc 1 378 5
 570              		.loc 1 378 28 is_stmt 0
 571 0000 5C45     		lw	a5,12(a0)
 377:C:/Users/stapi/OneDrive/Desktop/GD32VW553/GD32VW55X_Wifi_BLE_SDK/GD32VW55x_RELEASE_V1.0.2/MSDK/plf/GD32VW55x_standard_peripheral/Source\gd32vw55x_i2c.c ****     I2C_SADDR1(i2c_periph) |= address;
 572              		.loc 1 377 13
 573 0002 93F5E50F 		andi	a1,a1,254
 574              	.LVL44:
 379:C:/Users/stapi/OneDrive/Desktop/GD32VW553/GD32VW55X_Wifi_BLE_SDK/GD32VW55x_RELEASE_V1.0.2/MSDK/plf/GD32VW55x_standard_peripheral/Source\gd32vw55x_i2c.c ****     /* configure ADDRESS2[7:1] mask */
 380:C:/Users/stapi/OneDrive/Desktop/GD32VW553/GD32VW55X_Wifi_BLE_SDK/GD32VW55x_RELEASE_V1.0.2/MSDK/plf/GD32VW55x_standard_peripheral/Source\gd32vw55x_i2c.c ****     I2C_SADDR1(i2c_periph) &= ~I2C_SADDR1_ADDMSK2;
 381:C:/Users/stapi/OneDrive/Desktop/GD32VW553/GD32VW55X_Wifi_BLE_SDK/GD32VW55x_RELEASE_V1.0.2/MSDK/plf/GD32VW55x_standard_peripheral/Source\gd32vw55x_i2c.c ****     I2C_SADDR1(i2c_periph) |= (uint32_t)(addr_mask << SADDR1_ADDMSK_OFFSET);
 575              		.loc 1 381 52
 576 0006 2206     		slli	a2,a2,8
 577              	.LVL45:
 378:C:/Users/stapi/OneDrive/Desktop/GD32VW553/GD32VW55X_Wifi_BLE_SDK/GD32VW55x_RELEASE_V1.0.2/MSDK/plf/GD32VW55x_standard_peripheral/Source\gd32vw55x_i2c.c ****     /* configure ADDRESS2[7:1] mask */
 578              		.loc 1 378 28
 579 0008 DD8D     		or	a1,a1,a5
 580              	.LVL46:
 581 000a 4CC5     		sw	a1,12(a0)
 380:C:/Users/stapi/OneDrive/Desktop/GD32VW553/GD32VW55X_Wifi_BLE_SDK/GD32VW55x_RELEASE_V1.0.2/MSDK/plf/GD32VW55x_standard_peripheral/Source\gd32vw55x_i2c.c ****     I2C_SADDR1(i2c_periph) |= (uint32_t)(addr_mask << SADDR1_ADDMSK_OFFSET);
 582              		.loc 1 380 5 is_stmt 1
 380:C:/Users/stapi/OneDrive/Desktop/GD32VW553/GD32VW55X_Wifi_BLE_SDK/GD32VW55x_RELEASE_V1.0.2/MSDK/plf/GD32VW55x_standard_peripheral/Source\gd32vw55x_i2c.c ****     I2C_SADDR1(i2c_periph) |= (uint32_t)(addr_mask << SADDR1_ADDMSK_OFFSET);
 583              		.loc 1 380 28 is_stmt 0
 584 000c 5C45     		lw	a5,12(a0)
 585 000e 93F7F78F 		andi	a5,a5,-1793
 586 0012 5CC5     		sw	a5,12(a0)
 587              		.loc 1 381 5 is_stmt 1
 588              		.loc 1 381 28 is_stmt 0
 589 0014 5C45     		lw	a5,12(a0)
 590 0016 5D8E     		or	a2,a2,a5
 591 0018 50C5     		sw	a2,12(a0)
 382:C:/Users/stapi/OneDrive/Desktop/GD32VW553/GD32VW55X_Wifi_BLE_SDK/GD32VW55x_RELEASE_V1.0.2/MSDK/plf/GD32VW55x_standard_peripheral/Source\gd32vw55x_i2c.c ****     /* enable i2c second address in slave mode */
 383:C:/Users/stapi/OneDrive/Desktop/GD32VW553/GD32VW55X_Wifi_BLE_SDK/GD32VW55x_RELEASE_V1.0.2/MSDK/plf/GD32VW55x_standard_peripheral/Source\gd32vw55x_i2c.c ****     I2C_SADDR1(i2c_periph) |= I2C_SADDR1_ADDRESS2EN;
 592              		.loc 1 383 5 is_stmt 1
 593              		.loc 1 383 28 is_stmt 0
 594 001a 5C45     		lw	a5,12(a0)
 595 001c 9397F728 		bseti	a5,a5,15
 596 0020 5CC5     		sw	a5,12(a0)
 384:C:/Users/stapi/OneDrive/Desktop/GD32VW553/GD32VW55X_Wifi_BLE_SDK/GD32VW55x_RELEASE_V1.0.2/MSDK/plf/GD32VW55x_standard_peripheral/Source\gd32vw55x_i2c.c **** }
 597              		.loc 1 384 1
 598 0022 8280     		ret
 599              		.cfi_endproc
 600              	.LFE385:
 602              		.section	.text.i2c_second_address_disable,"ax",@progbits
 603              		.align	1
 604              		.globl	i2c_second_address_disable
 606              	i2c_second_address_disable:
 607              	.LFB386:
 385:C:/Users/stapi/OneDrive/Desktop/GD32VW553/GD32VW55X_Wifi_BLE_SDK/GD32VW55x_RELEASE_V1.0.2/MSDK/plf/GD32VW55x_standard_peripheral/Source\gd32vw55x_i2c.c **** 
 386:C:/Users/stapi/OneDrive/Desktop/GD32VW553/GD32VW55X_Wifi_BLE_SDK/GD32VW55x_RELEASE_V1.0.2/MSDK/plf/GD32VW55x_standard_peripheral/Source\gd32vw55x_i2c.c **** /*!
 387:C:/Users/stapi/OneDrive/Desktop/GD32VW553/GD32VW55X_Wifi_BLE_SDK/GD32VW55x_RELEASE_V1.0.2/MSDK/plf/GD32VW55x_standard_peripheral/Source\gd32vw55x_i2c.c ****     \brief      disable I2C second address in slave mode
 388:C:/Users/stapi/OneDrive/Desktop/GD32VW553/GD32VW55X_Wifi_BLE_SDK/GD32VW55x_RELEASE_V1.0.2/MSDK/plf/GD32VW55x_standard_peripheral/Source\gd32vw55x_i2c.c ****     \param[in]  i2c_periph: I2Cx(x=0,1)
 389:C:/Users/stapi/OneDrive/Desktop/GD32VW553/GD32VW55X_Wifi_BLE_SDK/GD32VW55x_RELEASE_V1.0.2/MSDK/plf/GD32VW55x_standard_peripheral/Source\gd32vw55x_i2c.c ****     \param[out] none
 390:C:/Users/stapi/OneDrive/Desktop/GD32VW553/GD32VW55X_Wifi_BLE_SDK/GD32VW55x_RELEASE_V1.0.2/MSDK/plf/GD32VW55x_standard_peripheral/Source\gd32vw55x_i2c.c ****     \retval     none
 391:C:/Users/stapi/OneDrive/Desktop/GD32VW553/GD32VW55X_Wifi_BLE_SDK/GD32VW55x_RELEASE_V1.0.2/MSDK/plf/GD32VW55x_standard_peripheral/Source\gd32vw55x_i2c.c **** */
 392:C:/Users/stapi/OneDrive/Desktop/GD32VW553/GD32VW55X_Wifi_BLE_SDK/GD32VW55x_RELEASE_V1.0.2/MSDK/plf/GD32VW55x_standard_peripheral/Source\gd32vw55x_i2c.c **** void i2c_second_address_disable(uint32_t i2c_periph)
 393:C:/Users/stapi/OneDrive/Desktop/GD32VW553/GD32VW55X_Wifi_BLE_SDK/GD32VW55x_RELEASE_V1.0.2/MSDK/plf/GD32VW55x_standard_peripheral/Source\gd32vw55x_i2c.c **** {
 608              		.loc 1 393 1 is_stmt 1
 609              		.cfi_startproc
 610              	.LVL47:
 394:C:/Users/stapi/OneDrive/Desktop/GD32VW553/GD32VW55X_Wifi_BLE_SDK/GD32VW55x_RELEASE_V1.0.2/MSDK/plf/GD32VW55x_standard_peripheral/Source\gd32vw55x_i2c.c ****     I2C_SADDR1(i2c_periph) &= ~I2C_SADDR1_ADDRESS2EN;
 611              		.loc 1 394 5
 612              		.loc 1 394 28 is_stmt 0
 613 0000 5C45     		lw	a5,12(a0)
 614 0002 9397F748 		bclri	a5,a5,15
 615 0006 5CC5     		sw	a5,12(a0)
 395:C:/Users/stapi/OneDrive/Desktop/GD32VW553/GD32VW55X_Wifi_BLE_SDK/GD32VW55x_RELEASE_V1.0.2/MSDK/plf/GD32VW55x_standard_peripheral/Source\gd32vw55x_i2c.c **** }
 616              		.loc 1 395 1
 617 0008 8280     		ret
 618              		.cfi_endproc
 619              	.LFE386:
 621              		.section	.text.i2c_recevied_address_get,"ax",@progbits
 622              		.align	1
 623              		.globl	i2c_recevied_address_get
 625              	i2c_recevied_address_get:
 626              	.LFB387:
 396:C:/Users/stapi/OneDrive/Desktop/GD32VW553/GD32VW55X_Wifi_BLE_SDK/GD32VW55x_RELEASE_V1.0.2/MSDK/plf/GD32VW55x_standard_peripheral/Source\gd32vw55x_i2c.c **** 
 397:C:/Users/stapi/OneDrive/Desktop/GD32VW553/GD32VW55X_Wifi_BLE_SDK/GD32VW55x_RELEASE_V1.0.2/MSDK/plf/GD32VW55x_standard_peripheral/Source\gd32vw55x_i2c.c **** /*!
 398:C:/Users/stapi/OneDrive/Desktop/GD32VW553/GD32VW55X_Wifi_BLE_SDK/GD32VW55x_RELEASE_V1.0.2/MSDK/plf/GD32VW55x_standard_peripheral/Source\gd32vw55x_i2c.c ****     \brief      get received match address in slave mode
 399:C:/Users/stapi/OneDrive/Desktop/GD32VW553/GD32VW55X_Wifi_BLE_SDK/GD32VW55x_RELEASE_V1.0.2/MSDK/plf/GD32VW55x_standard_peripheral/Source\gd32vw55x_i2c.c ****     \param[in]  i2c_periph: I2Cx(x=0,1)
 400:C:/Users/stapi/OneDrive/Desktop/GD32VW553/GD32VW55X_Wifi_BLE_SDK/GD32VW55x_RELEASE_V1.0.2/MSDK/plf/GD32VW55x_standard_peripheral/Source\gd32vw55x_i2c.c ****     \param[out] none
 401:C:/Users/stapi/OneDrive/Desktop/GD32VW553/GD32VW55X_Wifi_BLE_SDK/GD32VW55x_RELEASE_V1.0.2/MSDK/plf/GD32VW55x_standard_peripheral/Source\gd32vw55x_i2c.c ****     \retval     received match address
 402:C:/Users/stapi/OneDrive/Desktop/GD32VW553/GD32VW55X_Wifi_BLE_SDK/GD32VW55x_RELEASE_V1.0.2/MSDK/plf/GD32VW55x_standard_peripheral/Source\gd32vw55x_i2c.c **** */
 403:C:/Users/stapi/OneDrive/Desktop/GD32VW553/GD32VW55X_Wifi_BLE_SDK/GD32VW55x_RELEASE_V1.0.2/MSDK/plf/GD32VW55x_standard_peripheral/Source\gd32vw55x_i2c.c **** uint32_t i2c_recevied_address_get(uint32_t i2c_periph)
 404:C:/Users/stapi/OneDrive/Desktop/GD32VW553/GD32VW55X_Wifi_BLE_SDK/GD32VW55x_RELEASE_V1.0.2/MSDK/plf/GD32VW55x_standard_peripheral/Source\gd32vw55x_i2c.c **** {
 627              		.loc 1 404 1 is_stmt 1
 628              		.cfi_startproc
 629              	.LVL48:
 405:C:/Users/stapi/OneDrive/Desktop/GD32VW553/GD32VW55X_Wifi_BLE_SDK/GD32VW55x_RELEASE_V1.0.2/MSDK/plf/GD32VW55x_standard_peripheral/Source\gd32vw55x_i2c.c ****     return (uint32_t)((I2C_STAT(i2c_periph) & I2C_STAT_READDR) >> STAT_READDR_OFFSET);
 630              		.loc 1 405 5
 631              		.loc 1 405 24 is_stmt 0
 632 0000 084D     		lw	a0,24(a0)
 633              	.LVL49:
 634              		.loc 1 405 12
 635 0002 4581     		srli	a0,a0,17
 406:C:/Users/stapi/OneDrive/Desktop/GD32VW553/GD32VW55X_Wifi_BLE_SDK/GD32VW55x_RELEASE_V1.0.2/MSDK/plf/GD32VW55x_standard_peripheral/Source\gd32vw55x_i2c.c **** }
 636              		.loc 1 406 1
 637 0004 1375F507 		andi	a0,a0,127
 638 0008 8280     		ret
 639              		.cfi_endproc
 640              	.LFE387:
 642              		.section	.text.i2c_slave_byte_control_enable,"ax",@progbits
 643              		.align	1
 644              		.globl	i2c_slave_byte_control_enable
 646              	i2c_slave_byte_control_enable:
 647              	.LFB388:
 407:C:/Users/stapi/OneDrive/Desktop/GD32VW553/GD32VW55X_Wifi_BLE_SDK/GD32VW55x_RELEASE_V1.0.2/MSDK/plf/GD32VW55x_standard_peripheral/Source\gd32vw55x_i2c.c **** 
 408:C:/Users/stapi/OneDrive/Desktop/GD32VW553/GD32VW55X_Wifi_BLE_SDK/GD32VW55x_RELEASE_V1.0.2/MSDK/plf/GD32VW55x_standard_peripheral/Source\gd32vw55x_i2c.c **** /*!
 409:C:/Users/stapi/OneDrive/Desktop/GD32VW553/GD32VW55X_Wifi_BLE_SDK/GD32VW55x_RELEASE_V1.0.2/MSDK/plf/GD32VW55x_standard_peripheral/Source\gd32vw55x_i2c.c ****     \brief      enable slave byte control
 410:C:/Users/stapi/OneDrive/Desktop/GD32VW553/GD32VW55X_Wifi_BLE_SDK/GD32VW55x_RELEASE_V1.0.2/MSDK/plf/GD32VW55x_standard_peripheral/Source\gd32vw55x_i2c.c ****     \param[in]  i2c_periph: I2Cx(x=0,1)
 411:C:/Users/stapi/OneDrive/Desktop/GD32VW553/GD32VW55X_Wifi_BLE_SDK/GD32VW55x_RELEASE_V1.0.2/MSDK/plf/GD32VW55x_standard_peripheral/Source\gd32vw55x_i2c.c ****     \param[out] none
 412:C:/Users/stapi/OneDrive/Desktop/GD32VW553/GD32VW55X_Wifi_BLE_SDK/GD32VW55x_RELEASE_V1.0.2/MSDK/plf/GD32VW55x_standard_peripheral/Source\gd32vw55x_i2c.c ****     \retval     none
 413:C:/Users/stapi/OneDrive/Desktop/GD32VW553/GD32VW55X_Wifi_BLE_SDK/GD32VW55x_RELEASE_V1.0.2/MSDK/plf/GD32VW55x_standard_peripheral/Source\gd32vw55x_i2c.c **** */
 414:C:/Users/stapi/OneDrive/Desktop/GD32VW553/GD32VW55X_Wifi_BLE_SDK/GD32VW55x_RELEASE_V1.0.2/MSDK/plf/GD32VW55x_standard_peripheral/Source\gd32vw55x_i2c.c **** void i2c_slave_byte_control_enable(uint32_t i2c_periph)
 415:C:/Users/stapi/OneDrive/Desktop/GD32VW553/GD32VW55X_Wifi_BLE_SDK/GD32VW55x_RELEASE_V1.0.2/MSDK/plf/GD32VW55x_standard_peripheral/Source\gd32vw55x_i2c.c **** {
 648              		.loc 1 415 1 is_stmt 1
 649              		.cfi_startproc
 650              	.LVL50:
 416:C:/Users/stapi/OneDrive/Desktop/GD32VW553/GD32VW55X_Wifi_BLE_SDK/GD32VW55x_RELEASE_V1.0.2/MSDK/plf/GD32VW55x_standard_peripheral/Source\gd32vw55x_i2c.c ****     I2C_CTL0(i2c_periph) |= I2C_CTL0_SBCTL;
 651              		.loc 1 416 5
 652              		.loc 1 416 26 is_stmt 0
 653 0000 1C41     		lw	a5,0(a0)
 654 0002 93970729 		bseti	a5,a5,16
 655 0006 1CC1     		sw	a5,0(a0)
 417:C:/Users/stapi/OneDrive/Desktop/GD32VW553/GD32VW55X_Wifi_BLE_SDK/GD32VW55x_RELEASE_V1.0.2/MSDK/plf/GD32VW55x_standard_peripheral/Source\gd32vw55x_i2c.c **** }
 656              		.loc 1 417 1
 657 0008 8280     		ret
 658              		.cfi_endproc
 659              	.LFE388:
 661              		.section	.text.i2c_slave_byte_control_disable,"ax",@progbits
 662              		.align	1
 663              		.globl	i2c_slave_byte_control_disable
 665              	i2c_slave_byte_control_disable:
 666              	.LFB389:
 418:C:/Users/stapi/OneDrive/Desktop/GD32VW553/GD32VW55X_Wifi_BLE_SDK/GD32VW55x_RELEASE_V1.0.2/MSDK/plf/GD32VW55x_standard_peripheral/Source\gd32vw55x_i2c.c **** 
 419:C:/Users/stapi/OneDrive/Desktop/GD32VW553/GD32VW55X_Wifi_BLE_SDK/GD32VW55x_RELEASE_V1.0.2/MSDK/plf/GD32VW55x_standard_peripheral/Source\gd32vw55x_i2c.c **** /*!
 420:C:/Users/stapi/OneDrive/Desktop/GD32VW553/GD32VW55X_Wifi_BLE_SDK/GD32VW55x_RELEASE_V1.0.2/MSDK/plf/GD32VW55x_standard_peripheral/Source\gd32vw55x_i2c.c ****     \brief      disable slave byte control
 421:C:/Users/stapi/OneDrive/Desktop/GD32VW553/GD32VW55X_Wifi_BLE_SDK/GD32VW55x_RELEASE_V1.0.2/MSDK/plf/GD32VW55x_standard_peripheral/Source\gd32vw55x_i2c.c ****     \param[in]  i2c_periph: I2Cx(x=0,1)
 422:C:/Users/stapi/OneDrive/Desktop/GD32VW553/GD32VW55X_Wifi_BLE_SDK/GD32VW55x_RELEASE_V1.0.2/MSDK/plf/GD32VW55x_standard_peripheral/Source\gd32vw55x_i2c.c ****     \param[out] none
 423:C:/Users/stapi/OneDrive/Desktop/GD32VW553/GD32VW55X_Wifi_BLE_SDK/GD32VW55x_RELEASE_V1.0.2/MSDK/plf/GD32VW55x_standard_peripheral/Source\gd32vw55x_i2c.c ****     \retval     none
 424:C:/Users/stapi/OneDrive/Desktop/GD32VW553/GD32VW55X_Wifi_BLE_SDK/GD32VW55x_RELEASE_V1.0.2/MSDK/plf/GD32VW55x_standard_peripheral/Source\gd32vw55x_i2c.c **** */
 425:C:/Users/stapi/OneDrive/Desktop/GD32VW553/GD32VW55X_Wifi_BLE_SDK/GD32VW55x_RELEASE_V1.0.2/MSDK/plf/GD32VW55x_standard_peripheral/Source\gd32vw55x_i2c.c **** void i2c_slave_byte_control_disable(uint32_t i2c_periph)
 426:C:/Users/stapi/OneDrive/Desktop/GD32VW553/GD32VW55X_Wifi_BLE_SDK/GD32VW55x_RELEASE_V1.0.2/MSDK/plf/GD32VW55x_standard_peripheral/Source\gd32vw55x_i2c.c **** {
 667              		.loc 1 426 1 is_stmt 1
 668              		.cfi_startproc
 669              	.LVL51:
 427:C:/Users/stapi/OneDrive/Desktop/GD32VW553/GD32VW55X_Wifi_BLE_SDK/GD32VW55x_RELEASE_V1.0.2/MSDK/plf/GD32VW55x_standard_peripheral/Source\gd32vw55x_i2c.c ****     I2C_CTL0(i2c_periph) &= ~I2C_CTL0_SBCTL;
 670              		.loc 1 427 5
 671              		.loc 1 427 26 is_stmt 0
 672 0000 1C41     		lw	a5,0(a0)
 673 0002 93970749 		bclri	a5,a5,16
 674 0006 1CC1     		sw	a5,0(a0)
 428:C:/Users/stapi/OneDrive/Desktop/GD32VW553/GD32VW55X_Wifi_BLE_SDK/GD32VW55x_RELEASE_V1.0.2/MSDK/plf/GD32VW55x_standard_peripheral/Source\gd32vw55x_i2c.c **** }
 675              		.loc 1 428 1
 676 0008 8280     		ret
 677              		.cfi_endproc
 678              	.LFE389:
 680              		.section	.text.i2c_nack_enable,"ax",@progbits
 681              		.align	1
 682              		.globl	i2c_nack_enable
 684              	i2c_nack_enable:
 685              	.LFB390:
 429:C:/Users/stapi/OneDrive/Desktop/GD32VW553/GD32VW55X_Wifi_BLE_SDK/GD32VW55x_RELEASE_V1.0.2/MSDK/plf/GD32VW55x_standard_peripheral/Source\gd32vw55x_i2c.c **** 
 430:C:/Users/stapi/OneDrive/Desktop/GD32VW553/GD32VW55X_Wifi_BLE_SDK/GD32VW55x_RELEASE_V1.0.2/MSDK/plf/GD32VW55x_standard_peripheral/Source\gd32vw55x_i2c.c **** /*!
 431:C:/Users/stapi/OneDrive/Desktop/GD32VW553/GD32VW55X_Wifi_BLE_SDK/GD32VW55x_RELEASE_V1.0.2/MSDK/plf/GD32VW55x_standard_peripheral/Source\gd32vw55x_i2c.c ****     \brief      generate a NACK in slave mode
 432:C:/Users/stapi/OneDrive/Desktop/GD32VW553/GD32VW55X_Wifi_BLE_SDK/GD32VW55x_RELEASE_V1.0.2/MSDK/plf/GD32VW55x_standard_peripheral/Source\gd32vw55x_i2c.c ****     \param[in]  i2c_periph: I2Cx(x=0,1)
 433:C:/Users/stapi/OneDrive/Desktop/GD32VW553/GD32VW55X_Wifi_BLE_SDK/GD32VW55x_RELEASE_V1.0.2/MSDK/plf/GD32VW55x_standard_peripheral/Source\gd32vw55x_i2c.c ****     \param[out] none
 434:C:/Users/stapi/OneDrive/Desktop/GD32VW553/GD32VW55X_Wifi_BLE_SDK/GD32VW55x_RELEASE_V1.0.2/MSDK/plf/GD32VW55x_standard_peripheral/Source\gd32vw55x_i2c.c ****     \retval     none
 435:C:/Users/stapi/OneDrive/Desktop/GD32VW553/GD32VW55X_Wifi_BLE_SDK/GD32VW55x_RELEASE_V1.0.2/MSDK/plf/GD32VW55x_standard_peripheral/Source\gd32vw55x_i2c.c **** */
 436:C:/Users/stapi/OneDrive/Desktop/GD32VW553/GD32VW55X_Wifi_BLE_SDK/GD32VW55x_RELEASE_V1.0.2/MSDK/plf/GD32VW55x_standard_peripheral/Source\gd32vw55x_i2c.c **** void i2c_nack_enable(uint32_t i2c_periph)
 437:C:/Users/stapi/OneDrive/Desktop/GD32VW553/GD32VW55X_Wifi_BLE_SDK/GD32VW55x_RELEASE_V1.0.2/MSDK/plf/GD32VW55x_standard_peripheral/Source\gd32vw55x_i2c.c **** {
 686              		.loc 1 437 1 is_stmt 1
 687              		.cfi_startproc
 688              	.LVL52:
 438:C:/Users/stapi/OneDrive/Desktop/GD32VW553/GD32VW55X_Wifi_BLE_SDK/GD32VW55x_RELEASE_V1.0.2/MSDK/plf/GD32VW55x_standard_peripheral/Source\gd32vw55x_i2c.c ****     I2C_CTL1(i2c_periph) |= I2C_CTL1_NACKEN;
 689              		.loc 1 438 5
 690              		.loc 1 438 26 is_stmt 0
 691 0000 5C41     		lw	a5,4(a0)
 692 0002 9397F728 		bseti	a5,a5,15
 693 0006 5CC1     		sw	a5,4(a0)
 439:C:/Users/stapi/OneDrive/Desktop/GD32VW553/GD32VW55X_Wifi_BLE_SDK/GD32VW55x_RELEASE_V1.0.2/MSDK/plf/GD32VW55x_standard_peripheral/Source\gd32vw55x_i2c.c **** }
 694              		.loc 1 439 1
 695 0008 8280     		ret
 696              		.cfi_endproc
 697              	.LFE390:
 699              		.section	.text.i2c_nack_disable,"ax",@progbits
 700              		.align	1
 701              		.globl	i2c_nack_disable
 703              	i2c_nack_disable:
 704              	.LFB391:
 440:C:/Users/stapi/OneDrive/Desktop/GD32VW553/GD32VW55X_Wifi_BLE_SDK/GD32VW55x_RELEASE_V1.0.2/MSDK/plf/GD32VW55x_standard_peripheral/Source\gd32vw55x_i2c.c **** 
 441:C:/Users/stapi/OneDrive/Desktop/GD32VW553/GD32VW55X_Wifi_BLE_SDK/GD32VW55x_RELEASE_V1.0.2/MSDK/plf/GD32VW55x_standard_peripheral/Source\gd32vw55x_i2c.c **** /*!
 442:C:/Users/stapi/OneDrive/Desktop/GD32VW553/GD32VW55X_Wifi_BLE_SDK/GD32VW55x_RELEASE_V1.0.2/MSDK/plf/GD32VW55x_standard_peripheral/Source\gd32vw55x_i2c.c ****     \brief      generate an ACK in slave mode
 443:C:/Users/stapi/OneDrive/Desktop/GD32VW553/GD32VW55X_Wifi_BLE_SDK/GD32VW55x_RELEASE_V1.0.2/MSDK/plf/GD32VW55x_standard_peripheral/Source\gd32vw55x_i2c.c ****     \param[in]  i2c_periph: I2Cx(x=0,1)
 444:C:/Users/stapi/OneDrive/Desktop/GD32VW553/GD32VW55X_Wifi_BLE_SDK/GD32VW55x_RELEASE_V1.0.2/MSDK/plf/GD32VW55x_standard_peripheral/Source\gd32vw55x_i2c.c ****     \param[out] none
 445:C:/Users/stapi/OneDrive/Desktop/GD32VW553/GD32VW55X_Wifi_BLE_SDK/GD32VW55x_RELEASE_V1.0.2/MSDK/plf/GD32VW55x_standard_peripheral/Source\gd32vw55x_i2c.c ****     \retval     none
 446:C:/Users/stapi/OneDrive/Desktop/GD32VW553/GD32VW55X_Wifi_BLE_SDK/GD32VW55x_RELEASE_V1.0.2/MSDK/plf/GD32VW55x_standard_peripheral/Source\gd32vw55x_i2c.c **** */
 447:C:/Users/stapi/OneDrive/Desktop/GD32VW553/GD32VW55X_Wifi_BLE_SDK/GD32VW55x_RELEASE_V1.0.2/MSDK/plf/GD32VW55x_standard_peripheral/Source\gd32vw55x_i2c.c **** void i2c_nack_disable(uint32_t i2c_periph)
 448:C:/Users/stapi/OneDrive/Desktop/GD32VW553/GD32VW55X_Wifi_BLE_SDK/GD32VW55x_RELEASE_V1.0.2/MSDK/plf/GD32VW55x_standard_peripheral/Source\gd32vw55x_i2c.c **** {
 705              		.loc 1 448 1 is_stmt 1
 706              		.cfi_startproc
 707              	.LVL53:
 449:C:/Users/stapi/OneDrive/Desktop/GD32VW553/GD32VW55X_Wifi_BLE_SDK/GD32VW55x_RELEASE_V1.0.2/MSDK/plf/GD32VW55x_standard_peripheral/Source\gd32vw55x_i2c.c ****     I2C_CTL1(i2c_periph) &= ~I2C_CTL1_NACKEN;
 708              		.loc 1 449 5
 709              		.loc 1 449 26 is_stmt 0
 710 0000 5C41     		lw	a5,4(a0)
 711 0002 9397F748 		bclri	a5,a5,15
 712 0006 5CC1     		sw	a5,4(a0)
 450:C:/Users/stapi/OneDrive/Desktop/GD32VW553/GD32VW55X_Wifi_BLE_SDK/GD32VW55x_RELEASE_V1.0.2/MSDK/plf/GD32VW55x_standard_peripheral/Source\gd32vw55x_i2c.c **** }
 713              		.loc 1 450 1
 714 0008 8280     		ret
 715              		.cfi_endproc
 716              	.LFE391:
 718              		.section	.text.i2c_wakeup_from_deepsleep_enable,"ax",@progbits
 719              		.align	1
 720              		.globl	i2c_wakeup_from_deepsleep_enable
 722              	i2c_wakeup_from_deepsleep_enable:
 723              	.LFB392:
 451:C:/Users/stapi/OneDrive/Desktop/GD32VW553/GD32VW55X_Wifi_BLE_SDK/GD32VW55x_RELEASE_V1.0.2/MSDK/plf/GD32VW55x_standard_peripheral/Source\gd32vw55x_i2c.c **** 
 452:C:/Users/stapi/OneDrive/Desktop/GD32VW553/GD32VW55X_Wifi_BLE_SDK/GD32VW55x_RELEASE_V1.0.2/MSDK/plf/GD32VW55x_standard_peripheral/Source\gd32vw55x_i2c.c **** /*!
 453:C:/Users/stapi/OneDrive/Desktop/GD32VW553/GD32VW55X_Wifi_BLE_SDK/GD32VW55x_RELEASE_V1.0.2/MSDK/plf/GD32VW55x_standard_peripheral/Source\gd32vw55x_i2c.c ****     \brief      enable wakeup from deep-sleep mode
 454:C:/Users/stapi/OneDrive/Desktop/GD32VW553/GD32VW55X_Wifi_BLE_SDK/GD32VW55x_RELEASE_V1.0.2/MSDK/plf/GD32VW55x_standard_peripheral/Source\gd32vw55x_i2c.c ****     \param[in]  i2c_periph: I2Cx(x=0)
 455:C:/Users/stapi/OneDrive/Desktop/GD32VW553/GD32VW55X_Wifi_BLE_SDK/GD32VW55x_RELEASE_V1.0.2/MSDK/plf/GD32VW55x_standard_peripheral/Source\gd32vw55x_i2c.c ****     \param[out] none
 456:C:/Users/stapi/OneDrive/Desktop/GD32VW553/GD32VW55X_Wifi_BLE_SDK/GD32VW55x_RELEASE_V1.0.2/MSDK/plf/GD32VW55x_standard_peripheral/Source\gd32vw55x_i2c.c ****     \retval     none
 457:C:/Users/stapi/OneDrive/Desktop/GD32VW553/GD32VW55X_Wifi_BLE_SDK/GD32VW55x_RELEASE_V1.0.2/MSDK/plf/GD32VW55x_standard_peripheral/Source\gd32vw55x_i2c.c **** */
 458:C:/Users/stapi/OneDrive/Desktop/GD32VW553/GD32VW55X_Wifi_BLE_SDK/GD32VW55x_RELEASE_V1.0.2/MSDK/plf/GD32VW55x_standard_peripheral/Source\gd32vw55x_i2c.c **** void i2c_wakeup_from_deepsleep_enable(uint32_t i2c_periph)
 459:C:/Users/stapi/OneDrive/Desktop/GD32VW553/GD32VW55X_Wifi_BLE_SDK/GD32VW55x_RELEASE_V1.0.2/MSDK/plf/GD32VW55x_standard_peripheral/Source\gd32vw55x_i2c.c **** {
 724              		.loc 1 459 1 is_stmt 1
 725              		.cfi_startproc
 726              	.LVL54:
 460:C:/Users/stapi/OneDrive/Desktop/GD32VW553/GD32VW55X_Wifi_BLE_SDK/GD32VW55x_RELEASE_V1.0.2/MSDK/plf/GD32VW55x_standard_peripheral/Source\gd32vw55x_i2c.c ****     I2C_CTL0(i2c_periph) |= I2C_CTL0_WUEN;
 727              		.loc 1 460 5
 728              		.loc 1 460 26 is_stmt 0
 729 0000 1C41     		lw	a5,0(a0)
 730 0002 93972729 		bseti	a5,a5,18
 731 0006 1CC1     		sw	a5,0(a0)
 461:C:/Users/stapi/OneDrive/Desktop/GD32VW553/GD32VW55X_Wifi_BLE_SDK/GD32VW55x_RELEASE_V1.0.2/MSDK/plf/GD32VW55x_standard_peripheral/Source\gd32vw55x_i2c.c **** }
 732              		.loc 1 461 1
 733 0008 8280     		ret
 734              		.cfi_endproc
 735              	.LFE392:
 737              		.section	.text.i2c_wakeup_from_deepsleep_disable,"ax",@progbits
 738              		.align	1
 739              		.globl	i2c_wakeup_from_deepsleep_disable
 741              	i2c_wakeup_from_deepsleep_disable:
 742              	.LFB393:
 462:C:/Users/stapi/OneDrive/Desktop/GD32VW553/GD32VW55X_Wifi_BLE_SDK/GD32VW55x_RELEASE_V1.0.2/MSDK/plf/GD32VW55x_standard_peripheral/Source\gd32vw55x_i2c.c **** 
 463:C:/Users/stapi/OneDrive/Desktop/GD32VW553/GD32VW55X_Wifi_BLE_SDK/GD32VW55x_RELEASE_V1.0.2/MSDK/plf/GD32VW55x_standard_peripheral/Source\gd32vw55x_i2c.c **** /*!
 464:C:/Users/stapi/OneDrive/Desktop/GD32VW553/GD32VW55X_Wifi_BLE_SDK/GD32VW55x_RELEASE_V1.0.2/MSDK/plf/GD32VW55x_standard_peripheral/Source\gd32vw55x_i2c.c ****     \brief      disable wakeup from deep-sleep mode
 465:C:/Users/stapi/OneDrive/Desktop/GD32VW553/GD32VW55X_Wifi_BLE_SDK/GD32VW55x_RELEASE_V1.0.2/MSDK/plf/GD32VW55x_standard_peripheral/Source\gd32vw55x_i2c.c ****     \param[in]  i2c_periph: I2Cx(x=0)
 466:C:/Users/stapi/OneDrive/Desktop/GD32VW553/GD32VW55X_Wifi_BLE_SDK/GD32VW55x_RELEASE_V1.0.2/MSDK/plf/GD32VW55x_standard_peripheral/Source\gd32vw55x_i2c.c ****     \param[out] none
 467:C:/Users/stapi/OneDrive/Desktop/GD32VW553/GD32VW55X_Wifi_BLE_SDK/GD32VW55x_RELEASE_V1.0.2/MSDK/plf/GD32VW55x_standard_peripheral/Source\gd32vw55x_i2c.c ****     \retval     none
 468:C:/Users/stapi/OneDrive/Desktop/GD32VW553/GD32VW55X_Wifi_BLE_SDK/GD32VW55x_RELEASE_V1.0.2/MSDK/plf/GD32VW55x_standard_peripheral/Source\gd32vw55x_i2c.c **** */
 469:C:/Users/stapi/OneDrive/Desktop/GD32VW553/GD32VW55X_Wifi_BLE_SDK/GD32VW55x_RELEASE_V1.0.2/MSDK/plf/GD32VW55x_standard_peripheral/Source\gd32vw55x_i2c.c **** void i2c_wakeup_from_deepsleep_disable(uint32_t i2c_periph)
 470:C:/Users/stapi/OneDrive/Desktop/GD32VW553/GD32VW55X_Wifi_BLE_SDK/GD32VW55x_RELEASE_V1.0.2/MSDK/plf/GD32VW55x_standard_peripheral/Source\gd32vw55x_i2c.c **** {
 743              		.loc 1 470 1 is_stmt 1
 744              		.cfi_startproc
 745              	.LVL55:
 471:C:/Users/stapi/OneDrive/Desktop/GD32VW553/GD32VW55X_Wifi_BLE_SDK/GD32VW55x_RELEASE_V1.0.2/MSDK/plf/GD32VW55x_standard_peripheral/Source\gd32vw55x_i2c.c ****     I2C_CTL0(i2c_periph) &= ~I2C_CTL0_WUEN;
 746              		.loc 1 471 5
 747              		.loc 1 471 26 is_stmt 0
 748 0000 1C41     		lw	a5,0(a0)
 749 0002 93972749 		bclri	a5,a5,18
 750 0006 1CC1     		sw	a5,0(a0)
 472:C:/Users/stapi/OneDrive/Desktop/GD32VW553/GD32VW55X_Wifi_BLE_SDK/GD32VW55x_RELEASE_V1.0.2/MSDK/plf/GD32VW55x_standard_peripheral/Source\gd32vw55x_i2c.c **** }
 751              		.loc 1 472 1
 752 0008 8280     		ret
 753              		.cfi_endproc
 754              	.LFE393:
 756              		.section	.text.i2c_enable,"ax",@progbits
 757              		.align	1
 758              		.globl	i2c_enable
 760              	i2c_enable:
 761              	.LFB394:
 473:C:/Users/stapi/OneDrive/Desktop/GD32VW553/GD32VW55X_Wifi_BLE_SDK/GD32VW55x_RELEASE_V1.0.2/MSDK/plf/GD32VW55x_standard_peripheral/Source\gd32vw55x_i2c.c **** 
 474:C:/Users/stapi/OneDrive/Desktop/GD32VW553/GD32VW55X_Wifi_BLE_SDK/GD32VW55x_RELEASE_V1.0.2/MSDK/plf/GD32VW55x_standard_peripheral/Source\gd32vw55x_i2c.c **** /*!
 475:C:/Users/stapi/OneDrive/Desktop/GD32VW553/GD32VW55X_Wifi_BLE_SDK/GD32VW55x_RELEASE_V1.0.2/MSDK/plf/GD32VW55x_standard_peripheral/Source\gd32vw55x_i2c.c ****     \brief      enable I2C
 476:C:/Users/stapi/OneDrive/Desktop/GD32VW553/GD32VW55X_Wifi_BLE_SDK/GD32VW55x_RELEASE_V1.0.2/MSDK/plf/GD32VW55x_standard_peripheral/Source\gd32vw55x_i2c.c ****     \param[in]  i2c_periph: I2Cx(x=0,1)
 477:C:/Users/stapi/OneDrive/Desktop/GD32VW553/GD32VW55X_Wifi_BLE_SDK/GD32VW55x_RELEASE_V1.0.2/MSDK/plf/GD32VW55x_standard_peripheral/Source\gd32vw55x_i2c.c ****     \param[out] none
 478:C:/Users/stapi/OneDrive/Desktop/GD32VW553/GD32VW55X_Wifi_BLE_SDK/GD32VW55x_RELEASE_V1.0.2/MSDK/plf/GD32VW55x_standard_peripheral/Source\gd32vw55x_i2c.c ****     \retval     none
 479:C:/Users/stapi/OneDrive/Desktop/GD32VW553/GD32VW55X_Wifi_BLE_SDK/GD32VW55x_RELEASE_V1.0.2/MSDK/plf/GD32VW55x_standard_peripheral/Source\gd32vw55x_i2c.c **** */
 480:C:/Users/stapi/OneDrive/Desktop/GD32VW553/GD32VW55X_Wifi_BLE_SDK/GD32VW55x_RELEASE_V1.0.2/MSDK/plf/GD32VW55x_standard_peripheral/Source\gd32vw55x_i2c.c **** void i2c_enable(uint32_t i2c_periph)
 481:C:/Users/stapi/OneDrive/Desktop/GD32VW553/GD32VW55X_Wifi_BLE_SDK/GD32VW55x_RELEASE_V1.0.2/MSDK/plf/GD32VW55x_standard_peripheral/Source\gd32vw55x_i2c.c **** {
 762              		.loc 1 481 1 is_stmt 1
 763              		.cfi_startproc
 764              	.LVL56:
 482:C:/Users/stapi/OneDrive/Desktop/GD32VW553/GD32VW55X_Wifi_BLE_SDK/GD32VW55x_RELEASE_V1.0.2/MSDK/plf/GD32VW55x_standard_peripheral/Source\gd32vw55x_i2c.c ****     I2C_CTL0(i2c_periph) |= I2C_CTL0_I2CEN;
 765              		.loc 1 482 5
 766              		.loc 1 482 26 is_stmt 0
 767 0000 1C41     		lw	a5,0(a0)
 768 0002 93E71700 		ori	a5,a5,1
 769 0006 1CC1     		sw	a5,0(a0)
 483:C:/Users/stapi/OneDrive/Desktop/GD32VW553/GD32VW55X_Wifi_BLE_SDK/GD32VW55x_RELEASE_V1.0.2/MSDK/plf/GD32VW55x_standard_peripheral/Source\gd32vw55x_i2c.c **** }
 770              		.loc 1 483 1
 771 0008 8280     		ret
 772              		.cfi_endproc
 773              	.LFE394:
 775              		.section	.text.i2c_disable,"ax",@progbits
 776              		.align	1
 777              		.globl	i2c_disable
 779              	i2c_disable:
 780              	.LFB395:
 484:C:/Users/stapi/OneDrive/Desktop/GD32VW553/GD32VW55X_Wifi_BLE_SDK/GD32VW55x_RELEASE_V1.0.2/MSDK/plf/GD32VW55x_standard_peripheral/Source\gd32vw55x_i2c.c **** 
 485:C:/Users/stapi/OneDrive/Desktop/GD32VW553/GD32VW55X_Wifi_BLE_SDK/GD32VW55x_RELEASE_V1.0.2/MSDK/plf/GD32VW55x_standard_peripheral/Source\gd32vw55x_i2c.c **** /*!
 486:C:/Users/stapi/OneDrive/Desktop/GD32VW553/GD32VW55X_Wifi_BLE_SDK/GD32VW55x_RELEASE_V1.0.2/MSDK/plf/GD32VW55x_standard_peripheral/Source\gd32vw55x_i2c.c ****     \brief      disable I2C
 487:C:/Users/stapi/OneDrive/Desktop/GD32VW553/GD32VW55X_Wifi_BLE_SDK/GD32VW55x_RELEASE_V1.0.2/MSDK/plf/GD32VW55x_standard_peripheral/Source\gd32vw55x_i2c.c ****     \param[in]  i2c_periph: I2Cx(x=0,1)
 488:C:/Users/stapi/OneDrive/Desktop/GD32VW553/GD32VW55X_Wifi_BLE_SDK/GD32VW55x_RELEASE_V1.0.2/MSDK/plf/GD32VW55x_standard_peripheral/Source\gd32vw55x_i2c.c ****     \param[out] none
 489:C:/Users/stapi/OneDrive/Desktop/GD32VW553/GD32VW55X_Wifi_BLE_SDK/GD32VW55x_RELEASE_V1.0.2/MSDK/plf/GD32VW55x_standard_peripheral/Source\gd32vw55x_i2c.c ****     \retval     none
 490:C:/Users/stapi/OneDrive/Desktop/GD32VW553/GD32VW55X_Wifi_BLE_SDK/GD32VW55x_RELEASE_V1.0.2/MSDK/plf/GD32VW55x_standard_peripheral/Source\gd32vw55x_i2c.c **** */
 491:C:/Users/stapi/OneDrive/Desktop/GD32VW553/GD32VW55X_Wifi_BLE_SDK/GD32VW55x_RELEASE_V1.0.2/MSDK/plf/GD32VW55x_standard_peripheral/Source\gd32vw55x_i2c.c **** void i2c_disable(uint32_t i2c_periph)
 492:C:/Users/stapi/OneDrive/Desktop/GD32VW553/GD32VW55X_Wifi_BLE_SDK/GD32VW55x_RELEASE_V1.0.2/MSDK/plf/GD32VW55x_standard_peripheral/Source\gd32vw55x_i2c.c **** {
 781              		.loc 1 492 1 is_stmt 1
 782              		.cfi_startproc
 783              	.LVL57:
 493:C:/Users/stapi/OneDrive/Desktop/GD32VW553/GD32VW55X_Wifi_BLE_SDK/GD32VW55x_RELEASE_V1.0.2/MSDK/plf/GD32VW55x_standard_peripheral/Source\gd32vw55x_i2c.c ****     I2C_CTL0(i2c_periph) &= ~I2C_CTL0_I2CEN;
 784              		.loc 1 493 5
 785              		.loc 1 493 26 is_stmt 0
 786 0000 1C41     		lw	a5,0(a0)
 787 0002 F99B     		andi	a5,a5,-2
 788 0004 1CC1     		sw	a5,0(a0)
 494:C:/Users/stapi/OneDrive/Desktop/GD32VW553/GD32VW55X_Wifi_BLE_SDK/GD32VW55x_RELEASE_V1.0.2/MSDK/plf/GD32VW55x_standard_peripheral/Source\gd32vw55x_i2c.c **** }
 789              		.loc 1 494 1
 790 0006 8280     		ret
 791              		.cfi_endproc
 792              	.LFE395:
 794              		.section	.text.i2c_start_on_bus,"ax",@progbits
 795              		.align	1
 796              		.globl	i2c_start_on_bus
 798              	i2c_start_on_bus:
 799              	.LFB396:
 495:C:/Users/stapi/OneDrive/Desktop/GD32VW553/GD32VW55X_Wifi_BLE_SDK/GD32VW55x_RELEASE_V1.0.2/MSDK/plf/GD32VW55x_standard_peripheral/Source\gd32vw55x_i2c.c **** 
 496:C:/Users/stapi/OneDrive/Desktop/GD32VW553/GD32VW55X_Wifi_BLE_SDK/GD32VW55x_RELEASE_V1.0.2/MSDK/plf/GD32VW55x_standard_peripheral/Source\gd32vw55x_i2c.c **** /*!
 497:C:/Users/stapi/OneDrive/Desktop/GD32VW553/GD32VW55X_Wifi_BLE_SDK/GD32VW55x_RELEASE_V1.0.2/MSDK/plf/GD32VW55x_standard_peripheral/Source\gd32vw55x_i2c.c ****     \brief      generate a START condition on I2C bus
 498:C:/Users/stapi/OneDrive/Desktop/GD32VW553/GD32VW55X_Wifi_BLE_SDK/GD32VW55x_RELEASE_V1.0.2/MSDK/plf/GD32VW55x_standard_peripheral/Source\gd32vw55x_i2c.c ****     \param[in]  i2c_periph: I2Cx(x=0,1)
 499:C:/Users/stapi/OneDrive/Desktop/GD32VW553/GD32VW55X_Wifi_BLE_SDK/GD32VW55x_RELEASE_V1.0.2/MSDK/plf/GD32VW55x_standard_peripheral/Source\gd32vw55x_i2c.c ****     \param[out] none
 500:C:/Users/stapi/OneDrive/Desktop/GD32VW553/GD32VW55X_Wifi_BLE_SDK/GD32VW55x_RELEASE_V1.0.2/MSDK/plf/GD32VW55x_standard_peripheral/Source\gd32vw55x_i2c.c ****     \retval     none
 501:C:/Users/stapi/OneDrive/Desktop/GD32VW553/GD32VW55X_Wifi_BLE_SDK/GD32VW55x_RELEASE_V1.0.2/MSDK/plf/GD32VW55x_standard_peripheral/Source\gd32vw55x_i2c.c **** */
 502:C:/Users/stapi/OneDrive/Desktop/GD32VW553/GD32VW55X_Wifi_BLE_SDK/GD32VW55x_RELEASE_V1.0.2/MSDK/plf/GD32VW55x_standard_peripheral/Source\gd32vw55x_i2c.c **** void i2c_start_on_bus(uint32_t i2c_periph)
 503:C:/Users/stapi/OneDrive/Desktop/GD32VW553/GD32VW55X_Wifi_BLE_SDK/GD32VW55x_RELEASE_V1.0.2/MSDK/plf/GD32VW55x_standard_peripheral/Source\gd32vw55x_i2c.c **** {
 800              		.loc 1 503 1 is_stmt 1
 801              		.cfi_startproc
 802              	.LVL58:
 504:C:/Users/stapi/OneDrive/Desktop/GD32VW553/GD32VW55X_Wifi_BLE_SDK/GD32VW55x_RELEASE_V1.0.2/MSDK/plf/GD32VW55x_standard_peripheral/Source\gd32vw55x_i2c.c ****     I2C_CTL1(i2c_periph) |= I2C_CTL1_START;
 803              		.loc 1 504 5
 804              		.loc 1 504 26 is_stmt 0
 805 0000 5C41     		lw	a5,4(a0)
 806 0002 9397D728 		bseti	a5,a5,13
 807 0006 5CC1     		sw	a5,4(a0)
 505:C:/Users/stapi/OneDrive/Desktop/GD32VW553/GD32VW55X_Wifi_BLE_SDK/GD32VW55x_RELEASE_V1.0.2/MSDK/plf/GD32VW55x_standard_peripheral/Source\gd32vw55x_i2c.c **** }
 808              		.loc 1 505 1
 809 0008 8280     		ret
 810              		.cfi_endproc
 811              	.LFE396:
 813              		.section	.text.i2c_stop_on_bus,"ax",@progbits
 814              		.align	1
 815              		.globl	i2c_stop_on_bus
 817              	i2c_stop_on_bus:
 818              	.LFB397:
 506:C:/Users/stapi/OneDrive/Desktop/GD32VW553/GD32VW55X_Wifi_BLE_SDK/GD32VW55x_RELEASE_V1.0.2/MSDK/plf/GD32VW55x_standard_peripheral/Source\gd32vw55x_i2c.c **** 
 507:C:/Users/stapi/OneDrive/Desktop/GD32VW553/GD32VW55X_Wifi_BLE_SDK/GD32VW55x_RELEASE_V1.0.2/MSDK/plf/GD32VW55x_standard_peripheral/Source\gd32vw55x_i2c.c **** /*!
 508:C:/Users/stapi/OneDrive/Desktop/GD32VW553/GD32VW55X_Wifi_BLE_SDK/GD32VW55x_RELEASE_V1.0.2/MSDK/plf/GD32VW55x_standard_peripheral/Source\gd32vw55x_i2c.c ****     \brief      generate a STOP condition on I2C bus
 509:C:/Users/stapi/OneDrive/Desktop/GD32VW553/GD32VW55X_Wifi_BLE_SDK/GD32VW55x_RELEASE_V1.0.2/MSDK/plf/GD32VW55x_standard_peripheral/Source\gd32vw55x_i2c.c ****     \param[in]  i2c_periph: I2Cx(x=0,1)
 510:C:/Users/stapi/OneDrive/Desktop/GD32VW553/GD32VW55X_Wifi_BLE_SDK/GD32VW55x_RELEASE_V1.0.2/MSDK/plf/GD32VW55x_standard_peripheral/Source\gd32vw55x_i2c.c ****     \param[out] none
 511:C:/Users/stapi/OneDrive/Desktop/GD32VW553/GD32VW55X_Wifi_BLE_SDK/GD32VW55x_RELEASE_V1.0.2/MSDK/plf/GD32VW55x_standard_peripheral/Source\gd32vw55x_i2c.c ****     \retval     none
 512:C:/Users/stapi/OneDrive/Desktop/GD32VW553/GD32VW55X_Wifi_BLE_SDK/GD32VW55x_RELEASE_V1.0.2/MSDK/plf/GD32VW55x_standard_peripheral/Source\gd32vw55x_i2c.c **** */
 513:C:/Users/stapi/OneDrive/Desktop/GD32VW553/GD32VW55X_Wifi_BLE_SDK/GD32VW55x_RELEASE_V1.0.2/MSDK/plf/GD32VW55x_standard_peripheral/Source\gd32vw55x_i2c.c **** void i2c_stop_on_bus(uint32_t i2c_periph)
 514:C:/Users/stapi/OneDrive/Desktop/GD32VW553/GD32VW55X_Wifi_BLE_SDK/GD32VW55x_RELEASE_V1.0.2/MSDK/plf/GD32VW55x_standard_peripheral/Source\gd32vw55x_i2c.c **** {
 819              		.loc 1 514 1 is_stmt 1
 820              		.cfi_startproc
 821              	.LVL59:
 515:C:/Users/stapi/OneDrive/Desktop/GD32VW553/GD32VW55X_Wifi_BLE_SDK/GD32VW55x_RELEASE_V1.0.2/MSDK/plf/GD32VW55x_standard_peripheral/Source\gd32vw55x_i2c.c ****     I2C_CTL1(i2c_periph) |= I2C_CTL1_STOP;
 822              		.loc 1 515 5
 823              		.loc 1 515 26 is_stmt 0
 824 0000 5C41     		lw	a5,4(a0)
 825 0002 9397E728 		bseti	a5,a5,14
 826 0006 5CC1     		sw	a5,4(a0)
 516:C:/Users/stapi/OneDrive/Desktop/GD32VW553/GD32VW55X_Wifi_BLE_SDK/GD32VW55x_RELEASE_V1.0.2/MSDK/plf/GD32VW55x_standard_peripheral/Source\gd32vw55x_i2c.c **** }
 827              		.loc 1 516 1
 828 0008 8280     		ret
 829              		.cfi_endproc
 830              	.LFE397:
 832              		.section	.text.i2c_data_transmit,"ax",@progbits
 833              		.align	1
 834              		.globl	i2c_data_transmit
 836              	i2c_data_transmit:
 837              	.LFB398:
 517:C:/Users/stapi/OneDrive/Desktop/GD32VW553/GD32VW55X_Wifi_BLE_SDK/GD32VW55x_RELEASE_V1.0.2/MSDK/plf/GD32VW55x_standard_peripheral/Source\gd32vw55x_i2c.c **** 
 518:C:/Users/stapi/OneDrive/Desktop/GD32VW553/GD32VW55X_Wifi_BLE_SDK/GD32VW55x_RELEASE_V1.0.2/MSDK/plf/GD32VW55x_standard_peripheral/Source\gd32vw55x_i2c.c **** /*!
 519:C:/Users/stapi/OneDrive/Desktop/GD32VW553/GD32VW55X_Wifi_BLE_SDK/GD32VW55x_RELEASE_V1.0.2/MSDK/plf/GD32VW55x_standard_peripheral/Source\gd32vw55x_i2c.c ****     \brief      I2C transmit data
 520:C:/Users/stapi/OneDrive/Desktop/GD32VW553/GD32VW55X_Wifi_BLE_SDK/GD32VW55x_RELEASE_V1.0.2/MSDK/plf/GD32VW55x_standard_peripheral/Source\gd32vw55x_i2c.c ****     \param[in]  i2c_periph: I2Cx(x=0,1)
 521:C:/Users/stapi/OneDrive/Desktop/GD32VW553/GD32VW55X_Wifi_BLE_SDK/GD32VW55x_RELEASE_V1.0.2/MSDK/plf/GD32VW55x_standard_peripheral/Source\gd32vw55x_i2c.c ****     \param[in]  data: data to be transmitted
 522:C:/Users/stapi/OneDrive/Desktop/GD32VW553/GD32VW55X_Wifi_BLE_SDK/GD32VW55x_RELEASE_V1.0.2/MSDK/plf/GD32VW55x_standard_peripheral/Source\gd32vw55x_i2c.c ****     \param[out] none
 523:C:/Users/stapi/OneDrive/Desktop/GD32VW553/GD32VW55X_Wifi_BLE_SDK/GD32VW55x_RELEASE_V1.0.2/MSDK/plf/GD32VW55x_standard_peripheral/Source\gd32vw55x_i2c.c ****     \retval     none
 524:C:/Users/stapi/OneDrive/Desktop/GD32VW553/GD32VW55X_Wifi_BLE_SDK/GD32VW55x_RELEASE_V1.0.2/MSDK/plf/GD32VW55x_standard_peripheral/Source\gd32vw55x_i2c.c **** */
 525:C:/Users/stapi/OneDrive/Desktop/GD32VW553/GD32VW55X_Wifi_BLE_SDK/GD32VW55x_RELEASE_V1.0.2/MSDK/plf/GD32VW55x_standard_peripheral/Source\gd32vw55x_i2c.c **** void i2c_data_transmit(uint32_t i2c_periph, uint32_t data)
 526:C:/Users/stapi/OneDrive/Desktop/GD32VW553/GD32VW55X_Wifi_BLE_SDK/GD32VW55x_RELEASE_V1.0.2/MSDK/plf/GD32VW55x_standard_peripheral/Source\gd32vw55x_i2c.c **** {
 838              		.loc 1 526 1 is_stmt 1
 839              		.cfi_startproc
 840              	.LVL60:
 527:C:/Users/stapi/OneDrive/Desktop/GD32VW553/GD32VW55X_Wifi_BLE_SDK/GD32VW55x_RELEASE_V1.0.2/MSDK/plf/GD32VW55x_standard_peripheral/Source\gd32vw55x_i2c.c ****     I2C_TDATA(i2c_periph) = (I2C_TDATA_TDATA & data);
 841              		.loc 1 527 5
 842              		.loc 1 527 46 is_stmt 0
 843 0000 93F5F50F 		andi	a1,a1,0xff
 844              	.LVL61:
 845              		.loc 1 527 27
 846 0004 0CD5     		sw	a1,40(a0)
 528:C:/Users/stapi/OneDrive/Desktop/GD32VW553/GD32VW55X_Wifi_BLE_SDK/GD32VW55x_RELEASE_V1.0.2/MSDK/plf/GD32VW55x_standard_peripheral/Source\gd32vw55x_i2c.c **** }
 847              		.loc 1 528 1
 848 0006 8280     		ret
 849              		.cfi_endproc
 850              	.LFE398:
 852              		.section	.text.i2c_data_receive,"ax",@progbits
 853              		.align	1
 854              		.globl	i2c_data_receive
 856              	i2c_data_receive:
 857              	.LFB399:
 529:C:/Users/stapi/OneDrive/Desktop/GD32VW553/GD32VW55X_Wifi_BLE_SDK/GD32VW55x_RELEASE_V1.0.2/MSDK/plf/GD32VW55x_standard_peripheral/Source\gd32vw55x_i2c.c **** 
 530:C:/Users/stapi/OneDrive/Desktop/GD32VW553/GD32VW55X_Wifi_BLE_SDK/GD32VW55x_RELEASE_V1.0.2/MSDK/plf/GD32VW55x_standard_peripheral/Source\gd32vw55x_i2c.c **** /*!
 531:C:/Users/stapi/OneDrive/Desktop/GD32VW553/GD32VW55X_Wifi_BLE_SDK/GD32VW55x_RELEASE_V1.0.2/MSDK/plf/GD32VW55x_standard_peripheral/Source\gd32vw55x_i2c.c ****     \brief      I2C receive data
 532:C:/Users/stapi/OneDrive/Desktop/GD32VW553/GD32VW55X_Wifi_BLE_SDK/GD32VW55x_RELEASE_V1.0.2/MSDK/plf/GD32VW55x_standard_peripheral/Source\gd32vw55x_i2c.c ****     \param[in]  i2c_periph: I2Cx(x=0,1)
 533:C:/Users/stapi/OneDrive/Desktop/GD32VW553/GD32VW55X_Wifi_BLE_SDK/GD32VW55x_RELEASE_V1.0.2/MSDK/plf/GD32VW55x_standard_peripheral/Source\gd32vw55x_i2c.c ****     \param[out] none
 534:C:/Users/stapi/OneDrive/Desktop/GD32VW553/GD32VW55X_Wifi_BLE_SDK/GD32VW55x_RELEASE_V1.0.2/MSDK/plf/GD32VW55x_standard_peripheral/Source\gd32vw55x_i2c.c ****     \retval     received data
 535:C:/Users/stapi/OneDrive/Desktop/GD32VW553/GD32VW55X_Wifi_BLE_SDK/GD32VW55x_RELEASE_V1.0.2/MSDK/plf/GD32VW55x_standard_peripheral/Source\gd32vw55x_i2c.c **** */
 536:C:/Users/stapi/OneDrive/Desktop/GD32VW553/GD32VW55X_Wifi_BLE_SDK/GD32VW55x_RELEASE_V1.0.2/MSDK/plf/GD32VW55x_standard_peripheral/Source\gd32vw55x_i2c.c **** uint32_t i2c_data_receive(uint32_t i2c_periph)
 537:C:/Users/stapi/OneDrive/Desktop/GD32VW553/GD32VW55X_Wifi_BLE_SDK/GD32VW55x_RELEASE_V1.0.2/MSDK/plf/GD32VW55x_standard_peripheral/Source\gd32vw55x_i2c.c **** {
 858              		.loc 1 537 1 is_stmt 1
 859              		.cfi_startproc
 860              	.LVL62:
 538:C:/Users/stapi/OneDrive/Desktop/GD32VW553/GD32VW55X_Wifi_BLE_SDK/GD32VW55x_RELEASE_V1.0.2/MSDK/plf/GD32VW55x_standard_peripheral/Source\gd32vw55x_i2c.c ****     return (I2C_RDATA(i2c_periph) & I2C_RDATA_RDATA);
 861              		.loc 1 538 5
 862              		.loc 1 538 35 is_stmt 0
 863 0000 4851     		lw	a0,36(a0)
 864              	.LVL63:
 539:C:/Users/stapi/OneDrive/Desktop/GD32VW553/GD32VW55X_Wifi_BLE_SDK/GD32VW55x_RELEASE_V1.0.2/MSDK/plf/GD32VW55x_standard_peripheral/Source\gd32vw55x_i2c.c **** }
 865              		.loc 1 539 1
 866 0002 1375F50F 		andi	a0,a0,0xff
 867 0006 8280     		ret
 868              		.cfi_endproc
 869              	.LFE399:
 871              		.section	.text.i2c_reload_enable,"ax",@progbits
 872              		.align	1
 873              		.globl	i2c_reload_enable
 875              	i2c_reload_enable:
 876              	.LFB400:
 540:C:/Users/stapi/OneDrive/Desktop/GD32VW553/GD32VW55X_Wifi_BLE_SDK/GD32VW55x_RELEASE_V1.0.2/MSDK/plf/GD32VW55x_standard_peripheral/Source\gd32vw55x_i2c.c **** 
 541:C:/Users/stapi/OneDrive/Desktop/GD32VW553/GD32VW55X_Wifi_BLE_SDK/GD32VW55x_RELEASE_V1.0.2/MSDK/plf/GD32VW55x_standard_peripheral/Source\gd32vw55x_i2c.c **** /*!
 542:C:/Users/stapi/OneDrive/Desktop/GD32VW553/GD32VW55X_Wifi_BLE_SDK/GD32VW55x_RELEASE_V1.0.2/MSDK/plf/GD32VW55x_standard_peripheral/Source\gd32vw55x_i2c.c ****     \brief      enable I2C reload mode
 543:C:/Users/stapi/OneDrive/Desktop/GD32VW553/GD32VW55X_Wifi_BLE_SDK/GD32VW55x_RELEASE_V1.0.2/MSDK/plf/GD32VW55x_standard_peripheral/Source\gd32vw55x_i2c.c ****     \param[in]  i2c_periph: I2Cx(x=0,1)
 544:C:/Users/stapi/OneDrive/Desktop/GD32VW553/GD32VW55X_Wifi_BLE_SDK/GD32VW55x_RELEASE_V1.0.2/MSDK/plf/GD32VW55x_standard_peripheral/Source\gd32vw55x_i2c.c ****     \param[out] none
 545:C:/Users/stapi/OneDrive/Desktop/GD32VW553/GD32VW55X_Wifi_BLE_SDK/GD32VW55x_RELEASE_V1.0.2/MSDK/plf/GD32VW55x_standard_peripheral/Source\gd32vw55x_i2c.c ****     \retval     none
 546:C:/Users/stapi/OneDrive/Desktop/GD32VW553/GD32VW55X_Wifi_BLE_SDK/GD32VW55x_RELEASE_V1.0.2/MSDK/plf/GD32VW55x_standard_peripheral/Source\gd32vw55x_i2c.c **** */
 547:C:/Users/stapi/OneDrive/Desktop/GD32VW553/GD32VW55X_Wifi_BLE_SDK/GD32VW55x_RELEASE_V1.0.2/MSDK/plf/GD32VW55x_standard_peripheral/Source\gd32vw55x_i2c.c **** void i2c_reload_enable(uint32_t i2c_periph)
 548:C:/Users/stapi/OneDrive/Desktop/GD32VW553/GD32VW55X_Wifi_BLE_SDK/GD32VW55x_RELEASE_V1.0.2/MSDK/plf/GD32VW55x_standard_peripheral/Source\gd32vw55x_i2c.c **** {
 877              		.loc 1 548 1 is_stmt 1
 878              		.cfi_startproc
 879              	.LVL64:
 549:C:/Users/stapi/OneDrive/Desktop/GD32VW553/GD32VW55X_Wifi_BLE_SDK/GD32VW55x_RELEASE_V1.0.2/MSDK/plf/GD32VW55x_standard_peripheral/Source\gd32vw55x_i2c.c ****     I2C_CTL1(i2c_periph) |= I2C_CTL1_RELOAD;
 880              		.loc 1 549 5
 881              		.loc 1 549 26 is_stmt 0
 882 0000 5C41     		lw	a5,4(a0)
 883 0002 93978729 		bseti	a5,a5,24
 884 0006 5CC1     		sw	a5,4(a0)
 550:C:/Users/stapi/OneDrive/Desktop/GD32VW553/GD32VW55X_Wifi_BLE_SDK/GD32VW55x_RELEASE_V1.0.2/MSDK/plf/GD32VW55x_standard_peripheral/Source\gd32vw55x_i2c.c **** }
 885              		.loc 1 550 1
 886 0008 8280     		ret
 887              		.cfi_endproc
 888              	.LFE400:
 890              		.section	.text.i2c_reload_disable,"ax",@progbits
 891              		.align	1
 892              		.globl	i2c_reload_disable
 894              	i2c_reload_disable:
 895              	.LFB401:
 551:C:/Users/stapi/OneDrive/Desktop/GD32VW553/GD32VW55X_Wifi_BLE_SDK/GD32VW55x_RELEASE_V1.0.2/MSDK/plf/GD32VW55x_standard_peripheral/Source\gd32vw55x_i2c.c **** 
 552:C:/Users/stapi/OneDrive/Desktop/GD32VW553/GD32VW55X_Wifi_BLE_SDK/GD32VW55x_RELEASE_V1.0.2/MSDK/plf/GD32VW55x_standard_peripheral/Source\gd32vw55x_i2c.c **** /*!
 553:C:/Users/stapi/OneDrive/Desktop/GD32VW553/GD32VW55X_Wifi_BLE_SDK/GD32VW55x_RELEASE_V1.0.2/MSDK/plf/GD32VW55x_standard_peripheral/Source\gd32vw55x_i2c.c ****     \brief      disable I2C reload mode
 554:C:/Users/stapi/OneDrive/Desktop/GD32VW553/GD32VW55X_Wifi_BLE_SDK/GD32VW55x_RELEASE_V1.0.2/MSDK/plf/GD32VW55x_standard_peripheral/Source\gd32vw55x_i2c.c ****     \param[in]  i2c_periph: I2Cx(x=0,1)
 555:C:/Users/stapi/OneDrive/Desktop/GD32VW553/GD32VW55X_Wifi_BLE_SDK/GD32VW55x_RELEASE_V1.0.2/MSDK/plf/GD32VW55x_standard_peripheral/Source\gd32vw55x_i2c.c ****     \param[out] none
 556:C:/Users/stapi/OneDrive/Desktop/GD32VW553/GD32VW55X_Wifi_BLE_SDK/GD32VW55x_RELEASE_V1.0.2/MSDK/plf/GD32VW55x_standard_peripheral/Source\gd32vw55x_i2c.c ****     \retval     none
 557:C:/Users/stapi/OneDrive/Desktop/GD32VW553/GD32VW55X_Wifi_BLE_SDK/GD32VW55x_RELEASE_V1.0.2/MSDK/plf/GD32VW55x_standard_peripheral/Source\gd32vw55x_i2c.c **** */
 558:C:/Users/stapi/OneDrive/Desktop/GD32VW553/GD32VW55X_Wifi_BLE_SDK/GD32VW55x_RELEASE_V1.0.2/MSDK/plf/GD32VW55x_standard_peripheral/Source\gd32vw55x_i2c.c **** void i2c_reload_disable(uint32_t i2c_periph)
 559:C:/Users/stapi/OneDrive/Desktop/GD32VW553/GD32VW55X_Wifi_BLE_SDK/GD32VW55x_RELEASE_V1.0.2/MSDK/plf/GD32VW55x_standard_peripheral/Source\gd32vw55x_i2c.c **** {
 896              		.loc 1 559 1 is_stmt 1
 897              		.cfi_startproc
 898              	.LVL65:
 560:C:/Users/stapi/OneDrive/Desktop/GD32VW553/GD32VW55X_Wifi_BLE_SDK/GD32VW55x_RELEASE_V1.0.2/MSDK/plf/GD32VW55x_standard_peripheral/Source\gd32vw55x_i2c.c ****     I2C_CTL1(i2c_periph) &= ~I2C_CTL1_RELOAD;
 899              		.loc 1 560 5
 900              		.loc 1 560 26 is_stmt 0
 901 0000 5C41     		lw	a5,4(a0)
 902 0002 93978749 		bclri	a5,a5,24
 903 0006 5CC1     		sw	a5,4(a0)
 561:C:/Users/stapi/OneDrive/Desktop/GD32VW553/GD32VW55X_Wifi_BLE_SDK/GD32VW55x_RELEASE_V1.0.2/MSDK/plf/GD32VW55x_standard_peripheral/Source\gd32vw55x_i2c.c **** }
 904              		.loc 1 561 1
 905 0008 8280     		ret
 906              		.cfi_endproc
 907              	.LFE401:
 909              		.section	.text.i2c_transfer_byte_number_config,"ax",@progbits
 910              		.align	1
 911              		.globl	i2c_transfer_byte_number_config
 913              	i2c_transfer_byte_number_config:
 914              	.LFB402:
 562:C:/Users/stapi/OneDrive/Desktop/GD32VW553/GD32VW55X_Wifi_BLE_SDK/GD32VW55x_RELEASE_V1.0.2/MSDK/plf/GD32VW55x_standard_peripheral/Source\gd32vw55x_i2c.c **** 
 563:C:/Users/stapi/OneDrive/Desktop/GD32VW553/GD32VW55X_Wifi_BLE_SDK/GD32VW55x_RELEASE_V1.0.2/MSDK/plf/GD32VW55x_standard_peripheral/Source\gd32vw55x_i2c.c **** /*!
 564:C:/Users/stapi/OneDrive/Desktop/GD32VW553/GD32VW55X_Wifi_BLE_SDK/GD32VW55x_RELEASE_V1.0.2/MSDK/plf/GD32VW55x_standard_peripheral/Source\gd32vw55x_i2c.c ****     \brief      configure number of bytes to be transferred
 565:C:/Users/stapi/OneDrive/Desktop/GD32VW553/GD32VW55X_Wifi_BLE_SDK/GD32VW55x_RELEASE_V1.0.2/MSDK/plf/GD32VW55x_standard_peripheral/Source\gd32vw55x_i2c.c ****     \param[in]  i2c_periph: I2Cx(x=0,1)
 566:C:/Users/stapi/OneDrive/Desktop/GD32VW553/GD32VW55X_Wifi_BLE_SDK/GD32VW55x_RELEASE_V1.0.2/MSDK/plf/GD32VW55x_standard_peripheral/Source\gd32vw55x_i2c.c ****     \param[in]  byte_number: 0x0-0xFF, number of bytes to be transferred
 567:C:/Users/stapi/OneDrive/Desktop/GD32VW553/GD32VW55X_Wifi_BLE_SDK/GD32VW55x_RELEASE_V1.0.2/MSDK/plf/GD32VW55x_standard_peripheral/Source\gd32vw55x_i2c.c ****     \param[out] none
 568:C:/Users/stapi/OneDrive/Desktop/GD32VW553/GD32VW55X_Wifi_BLE_SDK/GD32VW55x_RELEASE_V1.0.2/MSDK/plf/GD32VW55x_standard_peripheral/Source\gd32vw55x_i2c.c ****     \retval     none
 569:C:/Users/stapi/OneDrive/Desktop/GD32VW553/GD32VW55X_Wifi_BLE_SDK/GD32VW55x_RELEASE_V1.0.2/MSDK/plf/GD32VW55x_standard_peripheral/Source\gd32vw55x_i2c.c **** */
 570:C:/Users/stapi/OneDrive/Desktop/GD32VW553/GD32VW55X_Wifi_BLE_SDK/GD32VW55x_RELEASE_V1.0.2/MSDK/plf/GD32VW55x_standard_peripheral/Source\gd32vw55x_i2c.c **** void i2c_transfer_byte_number_config(uint32_t i2c_periph, uint32_t byte_number)
 571:C:/Users/stapi/OneDrive/Desktop/GD32VW553/GD32VW55X_Wifi_BLE_SDK/GD32VW55x_RELEASE_V1.0.2/MSDK/plf/GD32VW55x_standard_peripheral/Source\gd32vw55x_i2c.c **** {
 915              		.loc 1 571 1 is_stmt 1
 916              		.cfi_startproc
 917              	.LVL66:
 572:C:/Users/stapi/OneDrive/Desktop/GD32VW553/GD32VW55X_Wifi_BLE_SDK/GD32VW55x_RELEASE_V1.0.2/MSDK/plf/GD32VW55x_standard_peripheral/Source\gd32vw55x_i2c.c ****     I2C_CTL1(i2c_periph) &= (uint32_t)(~I2C_CTL1_BYTENUM);
 918              		.loc 1 572 5
 919              		.loc 1 572 26 is_stmt 0
 920 0000 5C41     		lw	a5,4(a0)
 921 0002 370701FF 		li	a4,-16711680
 922 0006 7D17     		addi	a4,a4,-1
 923 0008 F98F     		and	a5,a5,a4
 924 000a 5CC1     		sw	a5,4(a0)
 573:C:/Users/stapi/OneDrive/Desktop/GD32VW553/GD32VW55X_Wifi_BLE_SDK/GD32VW55x_RELEASE_V1.0.2/MSDK/plf/GD32VW55x_standard_peripheral/Source\gd32vw55x_i2c.c ****     I2C_CTL1(i2c_periph) |= (uint32_t)(byte_number << CTL1_BYTENUM_OFFSET);
 925              		.loc 1 573 5 is_stmt 1
 926              		.loc 1 573 26 is_stmt 0
 927 000c 5C41     		lw	a5,4(a0)
 928              		.loc 1 573 52
 929 000e C205     		slli	a1,a1,16
 930              	.LVL67:
 931              		.loc 1 573 26
 932 0010 DD8D     		or	a1,a1,a5
 933 0012 4CC1     		sw	a1,4(a0)
 574:C:/Users/stapi/OneDrive/Desktop/GD32VW553/GD32VW55X_Wifi_BLE_SDK/GD32VW55x_RELEASE_V1.0.2/MSDK/plf/GD32VW55x_standard_peripheral/Source\gd32vw55x_i2c.c **** }
 934              		.loc 1 574 1
 935 0014 8280     		ret
 936              		.cfi_endproc
 937              	.LFE402:
 939              		.section	.text.i2c_dma_enable,"ax",@progbits
 940              		.align	1
 941              		.globl	i2c_dma_enable
 943              	i2c_dma_enable:
 944              	.LFB403:
 575:C:/Users/stapi/OneDrive/Desktop/GD32VW553/GD32VW55X_Wifi_BLE_SDK/GD32VW55x_RELEASE_V1.0.2/MSDK/plf/GD32VW55x_standard_peripheral/Source\gd32vw55x_i2c.c **** 
 576:C:/Users/stapi/OneDrive/Desktop/GD32VW553/GD32VW55X_Wifi_BLE_SDK/GD32VW55x_RELEASE_V1.0.2/MSDK/plf/GD32VW55x_standard_peripheral/Source\gd32vw55x_i2c.c **** /*!
 577:C:/Users/stapi/OneDrive/Desktop/GD32VW553/GD32VW55X_Wifi_BLE_SDK/GD32VW55x_RELEASE_V1.0.2/MSDK/plf/GD32VW55x_standard_peripheral/Source\gd32vw55x_i2c.c ****     \brief      enable I2C DMA for transmission or reception
 578:C:/Users/stapi/OneDrive/Desktop/GD32VW553/GD32VW55X_Wifi_BLE_SDK/GD32VW55x_RELEASE_V1.0.2/MSDK/plf/GD32VW55x_standard_peripheral/Source\gd32vw55x_i2c.c ****     \param[in]  i2c_periph: I2Cx(x=0,1)
 579:C:/Users/stapi/OneDrive/Desktop/GD32VW553/GD32VW55X_Wifi_BLE_SDK/GD32VW55x_RELEASE_V1.0.2/MSDK/plf/GD32VW55x_standard_peripheral/Source\gd32vw55x_i2c.c ****     \param[in]  dma: I2C DMA
 580:C:/Users/stapi/OneDrive/Desktop/GD32VW553/GD32VW55X_Wifi_BLE_SDK/GD32VW55x_RELEASE_V1.0.2/MSDK/plf/GD32VW55x_standard_peripheral/Source\gd32vw55x_i2c.c ****                 only one parameter can be selected which is shown as below:
 581:C:/Users/stapi/OneDrive/Desktop/GD32VW553/GD32VW55X_Wifi_BLE_SDK/GD32VW55x_RELEASE_V1.0.2/MSDK/plf/GD32VW55x_standard_peripheral/Source\gd32vw55x_i2c.c ****       \arg        I2C_DMA_TRANSMIT: transmit data using DMA
 582:C:/Users/stapi/OneDrive/Desktop/GD32VW553/GD32VW55X_Wifi_BLE_SDK/GD32VW55x_RELEASE_V1.0.2/MSDK/plf/GD32VW55x_standard_peripheral/Source\gd32vw55x_i2c.c ****       \arg        I2C_DMA_RECEIVE: receive data using DMA
 583:C:/Users/stapi/OneDrive/Desktop/GD32VW553/GD32VW55X_Wifi_BLE_SDK/GD32VW55x_RELEASE_V1.0.2/MSDK/plf/GD32VW55x_standard_peripheral/Source\gd32vw55x_i2c.c ****     \param[out] none
 584:C:/Users/stapi/OneDrive/Desktop/GD32VW553/GD32VW55X_Wifi_BLE_SDK/GD32VW55x_RELEASE_V1.0.2/MSDK/plf/GD32VW55x_standard_peripheral/Source\gd32vw55x_i2c.c ****     \retval     none
 585:C:/Users/stapi/OneDrive/Desktop/GD32VW553/GD32VW55X_Wifi_BLE_SDK/GD32VW55x_RELEASE_V1.0.2/MSDK/plf/GD32VW55x_standard_peripheral/Source\gd32vw55x_i2c.c **** */
 586:C:/Users/stapi/OneDrive/Desktop/GD32VW553/GD32VW55X_Wifi_BLE_SDK/GD32VW55x_RELEASE_V1.0.2/MSDK/plf/GD32VW55x_standard_peripheral/Source\gd32vw55x_i2c.c **** void i2c_dma_enable(uint32_t i2c_periph, uint8_t dma)
 587:C:/Users/stapi/OneDrive/Desktop/GD32VW553/GD32VW55X_Wifi_BLE_SDK/GD32VW55x_RELEASE_V1.0.2/MSDK/plf/GD32VW55x_standard_peripheral/Source\gd32vw55x_i2c.c **** {
 945              		.loc 1 587 1 is_stmt 1
 946              		.cfi_startproc
 947              	.LVL68:
 588:C:/Users/stapi/OneDrive/Desktop/GD32VW553/GD32VW55X_Wifi_BLE_SDK/GD32VW55x_RELEASE_V1.0.2/MSDK/plf/GD32VW55x_standard_peripheral/Source\gd32vw55x_i2c.c ****     if(I2C_DMA_TRANSMIT == dma){
 948              		.loc 1 588 5
 589:C:/Users/stapi/OneDrive/Desktop/GD32VW553/GD32VW55X_Wifi_BLE_SDK/GD32VW55x_RELEASE_V1.0.2/MSDK/plf/GD32VW55x_standard_peripheral/Source\gd32vw55x_i2c.c ****         I2C_CTL0(i2c_periph) |= I2C_CTL0_DENT;
 949              		.loc 1 589 30 is_stmt 0
 950 0000 1C41     		lw	a5,0(a0)
 588:C:/Users/stapi/OneDrive/Desktop/GD32VW553/GD32VW55X_Wifi_BLE_SDK/GD32VW55x_RELEASE_V1.0.2/MSDK/plf/GD32VW55x_standard_peripheral/Source\gd32vw55x_i2c.c ****     if(I2C_DMA_TRANSMIT == dma){
 951              		.loc 1 588 7
 952 0002 89E5     		bne	a1,zero,.L45
 953              		.loc 1 589 9 is_stmt 1
 954              		.loc 1 589 30 is_stmt 0
 955 0004 9397E728 		bseti	a5,a5,14
 956              	.L47:
 590:C:/Users/stapi/OneDrive/Desktop/GD32VW553/GD32VW55X_Wifi_BLE_SDK/GD32VW55x_RELEASE_V1.0.2/MSDK/plf/GD32VW55x_standard_peripheral/Source\gd32vw55x_i2c.c ****     }else{
 591:C:/Users/stapi/OneDrive/Desktop/GD32VW553/GD32VW55X_Wifi_BLE_SDK/GD32VW55x_RELEASE_V1.0.2/MSDK/plf/GD32VW55x_standard_peripheral/Source\gd32vw55x_i2c.c ****         I2C_CTL0(i2c_periph) |= I2C_CTL0_DENR;
 957              		.loc 1 591 30
 958 0008 1CC1     		sw	a5,0(a0)
 592:C:/Users/stapi/OneDrive/Desktop/GD32VW553/GD32VW55X_Wifi_BLE_SDK/GD32VW55x_RELEASE_V1.0.2/MSDK/plf/GD32VW55x_standard_peripheral/Source\gd32vw55x_i2c.c ****     }
 593:C:/Users/stapi/OneDrive/Desktop/GD32VW553/GD32VW55X_Wifi_BLE_SDK/GD32VW55x_RELEASE_V1.0.2/MSDK/plf/GD32VW55x_standard_peripheral/Source\gd32vw55x_i2c.c **** }
 959              		.loc 1 593 1
 960 000a 8280     		ret
 961              	.L45:
 591:C:/Users/stapi/OneDrive/Desktop/GD32VW553/GD32VW55X_Wifi_BLE_SDK/GD32VW55x_RELEASE_V1.0.2/MSDK/plf/GD32VW55x_standard_peripheral/Source\gd32vw55x_i2c.c ****     }
 962              		.loc 1 591 9 is_stmt 1
 591:C:/Users/stapi/OneDrive/Desktop/GD32VW553/GD32VW55X_Wifi_BLE_SDK/GD32VW55x_RELEASE_V1.0.2/MSDK/plf/GD32VW55x_standard_peripheral/Source\gd32vw55x_i2c.c ****     }
 963              		.loc 1 591 30 is_stmt 0
 964 000c 9397F728 		bseti	a5,a5,15
 965 0010 E5BF     		j	.L47
 966              		.cfi_endproc
 967              	.LFE403:
 969              		.section	.text.i2c_dma_disable,"ax",@progbits
 970              		.align	1
 971              		.globl	i2c_dma_disable
 973              	i2c_dma_disable:
 974              	.LFB404:
 594:C:/Users/stapi/OneDrive/Desktop/GD32VW553/GD32VW55X_Wifi_BLE_SDK/GD32VW55x_RELEASE_V1.0.2/MSDK/plf/GD32VW55x_standard_peripheral/Source\gd32vw55x_i2c.c **** 
 595:C:/Users/stapi/OneDrive/Desktop/GD32VW553/GD32VW55X_Wifi_BLE_SDK/GD32VW55x_RELEASE_V1.0.2/MSDK/plf/GD32VW55x_standard_peripheral/Source\gd32vw55x_i2c.c **** /*!
 596:C:/Users/stapi/OneDrive/Desktop/GD32VW553/GD32VW55X_Wifi_BLE_SDK/GD32VW55x_RELEASE_V1.0.2/MSDK/plf/GD32VW55x_standard_peripheral/Source\gd32vw55x_i2c.c ****     \brief      disable I2C DMA for transmission or reception
 597:C:/Users/stapi/OneDrive/Desktop/GD32VW553/GD32VW55X_Wifi_BLE_SDK/GD32VW55x_RELEASE_V1.0.2/MSDK/plf/GD32VW55x_standard_peripheral/Source\gd32vw55x_i2c.c ****     \param[in]  i2c_periph: I2Cx(x=0,1)
 598:C:/Users/stapi/OneDrive/Desktop/GD32VW553/GD32VW55X_Wifi_BLE_SDK/GD32VW55x_RELEASE_V1.0.2/MSDK/plf/GD32VW55x_standard_peripheral/Source\gd32vw55x_i2c.c ****     \param[in]  dma: I2C DMA
 599:C:/Users/stapi/OneDrive/Desktop/GD32VW553/GD32VW55X_Wifi_BLE_SDK/GD32VW55x_RELEASE_V1.0.2/MSDK/plf/GD32VW55x_standard_peripheral/Source\gd32vw55x_i2c.c ****                 only one parameter can be selected which is shown as below:
 600:C:/Users/stapi/OneDrive/Desktop/GD32VW553/GD32VW55X_Wifi_BLE_SDK/GD32VW55x_RELEASE_V1.0.2/MSDK/plf/GD32VW55x_standard_peripheral/Source\gd32vw55x_i2c.c ****       \arg        I2C_DMA_TRANSMIT: transmit data using DMA
 601:C:/Users/stapi/OneDrive/Desktop/GD32VW553/GD32VW55X_Wifi_BLE_SDK/GD32VW55x_RELEASE_V1.0.2/MSDK/plf/GD32VW55x_standard_peripheral/Source\gd32vw55x_i2c.c ****       \arg        I2C_DMA_RECEIVE: receive data using DMA
 602:C:/Users/stapi/OneDrive/Desktop/GD32VW553/GD32VW55X_Wifi_BLE_SDK/GD32VW55x_RELEASE_V1.0.2/MSDK/plf/GD32VW55x_standard_peripheral/Source\gd32vw55x_i2c.c ****     \param[out] none
 603:C:/Users/stapi/OneDrive/Desktop/GD32VW553/GD32VW55X_Wifi_BLE_SDK/GD32VW55x_RELEASE_V1.0.2/MSDK/plf/GD32VW55x_standard_peripheral/Source\gd32vw55x_i2c.c ****     \retval     none
 604:C:/Users/stapi/OneDrive/Desktop/GD32VW553/GD32VW55X_Wifi_BLE_SDK/GD32VW55x_RELEASE_V1.0.2/MSDK/plf/GD32VW55x_standard_peripheral/Source\gd32vw55x_i2c.c **** */
 605:C:/Users/stapi/OneDrive/Desktop/GD32VW553/GD32VW55X_Wifi_BLE_SDK/GD32VW55x_RELEASE_V1.0.2/MSDK/plf/GD32VW55x_standard_peripheral/Source\gd32vw55x_i2c.c **** void i2c_dma_disable(uint32_t i2c_periph, uint8_t dma)
 606:C:/Users/stapi/OneDrive/Desktop/GD32VW553/GD32VW55X_Wifi_BLE_SDK/GD32VW55x_RELEASE_V1.0.2/MSDK/plf/GD32VW55x_standard_peripheral/Source\gd32vw55x_i2c.c **** {
 975              		.loc 1 606 1 is_stmt 1
 976              		.cfi_startproc
 977              	.LVL69:
 607:C:/Users/stapi/OneDrive/Desktop/GD32VW553/GD32VW55X_Wifi_BLE_SDK/GD32VW55x_RELEASE_V1.0.2/MSDK/plf/GD32VW55x_standard_peripheral/Source\gd32vw55x_i2c.c ****     if(I2C_DMA_TRANSMIT == dma){
 978              		.loc 1 607 5
 608:C:/Users/stapi/OneDrive/Desktop/GD32VW553/GD32VW55X_Wifi_BLE_SDK/GD32VW55x_RELEASE_V1.0.2/MSDK/plf/GD32VW55x_standard_peripheral/Source\gd32vw55x_i2c.c ****         I2C_CTL0(i2c_periph) &= ~I2C_CTL0_DENT;
 979              		.loc 1 608 30 is_stmt 0
 980 0000 1C41     		lw	a5,0(a0)
 607:C:/Users/stapi/OneDrive/Desktop/GD32VW553/GD32VW55X_Wifi_BLE_SDK/GD32VW55x_RELEASE_V1.0.2/MSDK/plf/GD32VW55x_standard_peripheral/Source\gd32vw55x_i2c.c ****     if(I2C_DMA_TRANSMIT == dma){
 981              		.loc 1 607 7
 982 0002 89E5     		bne	a1,zero,.L49
 983              		.loc 1 608 9 is_stmt 1
 984              		.loc 1 608 30 is_stmt 0
 985 0004 9397E748 		bclri	a5,a5,14
 986              	.L51:
 609:C:/Users/stapi/OneDrive/Desktop/GD32VW553/GD32VW55X_Wifi_BLE_SDK/GD32VW55x_RELEASE_V1.0.2/MSDK/plf/GD32VW55x_standard_peripheral/Source\gd32vw55x_i2c.c ****     }else{
 610:C:/Users/stapi/OneDrive/Desktop/GD32VW553/GD32VW55X_Wifi_BLE_SDK/GD32VW55x_RELEASE_V1.0.2/MSDK/plf/GD32VW55x_standard_peripheral/Source\gd32vw55x_i2c.c ****         I2C_CTL0(i2c_periph) &= ~I2C_CTL0_DENR;
 987              		.loc 1 610 30
 988 0008 1CC1     		sw	a5,0(a0)
 611:C:/Users/stapi/OneDrive/Desktop/GD32VW553/GD32VW55X_Wifi_BLE_SDK/GD32VW55x_RELEASE_V1.0.2/MSDK/plf/GD32VW55x_standard_peripheral/Source\gd32vw55x_i2c.c ****     }
 612:C:/Users/stapi/OneDrive/Desktop/GD32VW553/GD32VW55X_Wifi_BLE_SDK/GD32VW55x_RELEASE_V1.0.2/MSDK/plf/GD32VW55x_standard_peripheral/Source\gd32vw55x_i2c.c **** }
 989              		.loc 1 612 1
 990 000a 8280     		ret
 991              	.L49:
 610:C:/Users/stapi/OneDrive/Desktop/GD32VW553/GD32VW55X_Wifi_BLE_SDK/GD32VW55x_RELEASE_V1.0.2/MSDK/plf/GD32VW55x_standard_peripheral/Source\gd32vw55x_i2c.c ****     }
 992              		.loc 1 610 9 is_stmt 1
 610:C:/Users/stapi/OneDrive/Desktop/GD32VW553/GD32VW55X_Wifi_BLE_SDK/GD32VW55x_RELEASE_V1.0.2/MSDK/plf/GD32VW55x_standard_peripheral/Source\gd32vw55x_i2c.c ****     }
 993              		.loc 1 610 30 is_stmt 0
 994 000c 9397F748 		bclri	a5,a5,15
 995 0010 E5BF     		j	.L51
 996              		.cfi_endproc
 997              	.LFE404:
 999              		.section	.text.i2c_pec_transfer,"ax",@progbits
 1000              		.align	1
 1001              		.globl	i2c_pec_transfer
 1003              	i2c_pec_transfer:
 1004              	.LFB405:
 613:C:/Users/stapi/OneDrive/Desktop/GD32VW553/GD32VW55X_Wifi_BLE_SDK/GD32VW55x_RELEASE_V1.0.2/MSDK/plf/GD32VW55x_standard_peripheral/Source\gd32vw55x_i2c.c **** 
 614:C:/Users/stapi/OneDrive/Desktop/GD32VW553/GD32VW55X_Wifi_BLE_SDK/GD32VW55x_RELEASE_V1.0.2/MSDK/plf/GD32VW55x_standard_peripheral/Source\gd32vw55x_i2c.c **** /*!
 615:C:/Users/stapi/OneDrive/Desktop/GD32VW553/GD32VW55X_Wifi_BLE_SDK/GD32VW55x_RELEASE_V1.0.2/MSDK/plf/GD32VW55x_standard_peripheral/Source\gd32vw55x_i2c.c ****     \brief      I2C transfers PEC value
 616:C:/Users/stapi/OneDrive/Desktop/GD32VW553/GD32VW55X_Wifi_BLE_SDK/GD32VW55x_RELEASE_V1.0.2/MSDK/plf/GD32VW55x_standard_peripheral/Source\gd32vw55x_i2c.c ****     \param[in]  i2c_periph: I2Cx(x=0,1)
 617:C:/Users/stapi/OneDrive/Desktop/GD32VW553/GD32VW55X_Wifi_BLE_SDK/GD32VW55x_RELEASE_V1.0.2/MSDK/plf/GD32VW55x_standard_peripheral/Source\gd32vw55x_i2c.c ****     \param[out] none
 618:C:/Users/stapi/OneDrive/Desktop/GD32VW553/GD32VW55X_Wifi_BLE_SDK/GD32VW55x_RELEASE_V1.0.2/MSDK/plf/GD32VW55x_standard_peripheral/Source\gd32vw55x_i2c.c ****     \retval     none
 619:C:/Users/stapi/OneDrive/Desktop/GD32VW553/GD32VW55X_Wifi_BLE_SDK/GD32VW55x_RELEASE_V1.0.2/MSDK/plf/GD32VW55x_standard_peripheral/Source\gd32vw55x_i2c.c **** */
 620:C:/Users/stapi/OneDrive/Desktop/GD32VW553/GD32VW55X_Wifi_BLE_SDK/GD32VW55x_RELEASE_V1.0.2/MSDK/plf/GD32VW55x_standard_peripheral/Source\gd32vw55x_i2c.c **** void i2c_pec_transfer(uint32_t i2c_periph)
 621:C:/Users/stapi/OneDrive/Desktop/GD32VW553/GD32VW55X_Wifi_BLE_SDK/GD32VW55x_RELEASE_V1.0.2/MSDK/plf/GD32VW55x_standard_peripheral/Source\gd32vw55x_i2c.c **** {
 1005              		.loc 1 621 1 is_stmt 1
 1006              		.cfi_startproc
 1007              	.LVL70:
 622:C:/Users/stapi/OneDrive/Desktop/GD32VW553/GD32VW55X_Wifi_BLE_SDK/GD32VW55x_RELEASE_V1.0.2/MSDK/plf/GD32VW55x_standard_peripheral/Source\gd32vw55x_i2c.c ****     I2C_CTL1(i2c_periph) |= I2C_CTL1_PECTRANS;
 1008              		.loc 1 622 5
 1009              		.loc 1 622 26 is_stmt 0
 1010 0000 5C41     		lw	a5,4(a0)
 1011 0002 9397A729 		bseti	a5,a5,26
 1012 0006 5CC1     		sw	a5,4(a0)
 623:C:/Users/stapi/OneDrive/Desktop/GD32VW553/GD32VW55X_Wifi_BLE_SDK/GD32VW55x_RELEASE_V1.0.2/MSDK/plf/GD32VW55x_standard_peripheral/Source\gd32vw55x_i2c.c **** }
 1013              		.loc 1 623 1
 1014 0008 8280     		ret
 1015              		.cfi_endproc
 1016              	.LFE405:
 1018              		.section	.text.i2c_pec_enable,"ax",@progbits
 1019              		.align	1
 1020              		.globl	i2c_pec_enable
 1022              	i2c_pec_enable:
 1023              	.LFB406:
 624:C:/Users/stapi/OneDrive/Desktop/GD32VW553/GD32VW55X_Wifi_BLE_SDK/GD32VW55x_RELEASE_V1.0.2/MSDK/plf/GD32VW55x_standard_peripheral/Source\gd32vw55x_i2c.c **** 
 625:C:/Users/stapi/OneDrive/Desktop/GD32VW553/GD32VW55X_Wifi_BLE_SDK/GD32VW55x_RELEASE_V1.0.2/MSDK/plf/GD32VW55x_standard_peripheral/Source\gd32vw55x_i2c.c **** /*!
 626:C:/Users/stapi/OneDrive/Desktop/GD32VW553/GD32VW55X_Wifi_BLE_SDK/GD32VW55x_RELEASE_V1.0.2/MSDK/plf/GD32VW55x_standard_peripheral/Source\gd32vw55x_i2c.c ****     \brief      enable I2C PEC calculation
 627:C:/Users/stapi/OneDrive/Desktop/GD32VW553/GD32VW55X_Wifi_BLE_SDK/GD32VW55x_RELEASE_V1.0.2/MSDK/plf/GD32VW55x_standard_peripheral/Source\gd32vw55x_i2c.c ****     \param[in]  i2c_periph: I2Cx(x=0,1)
 628:C:/Users/stapi/OneDrive/Desktop/GD32VW553/GD32VW55X_Wifi_BLE_SDK/GD32VW55x_RELEASE_V1.0.2/MSDK/plf/GD32VW55x_standard_peripheral/Source\gd32vw55x_i2c.c ****     \param[out] none
 629:C:/Users/stapi/OneDrive/Desktop/GD32VW553/GD32VW55X_Wifi_BLE_SDK/GD32VW55x_RELEASE_V1.0.2/MSDK/plf/GD32VW55x_standard_peripheral/Source\gd32vw55x_i2c.c ****     \retval     none
 630:C:/Users/stapi/OneDrive/Desktop/GD32VW553/GD32VW55X_Wifi_BLE_SDK/GD32VW55x_RELEASE_V1.0.2/MSDK/plf/GD32VW55x_standard_peripheral/Source\gd32vw55x_i2c.c **** */
 631:C:/Users/stapi/OneDrive/Desktop/GD32VW553/GD32VW55X_Wifi_BLE_SDK/GD32VW55x_RELEASE_V1.0.2/MSDK/plf/GD32VW55x_standard_peripheral/Source\gd32vw55x_i2c.c **** void i2c_pec_enable(uint32_t i2c_periph)
 632:C:/Users/stapi/OneDrive/Desktop/GD32VW553/GD32VW55X_Wifi_BLE_SDK/GD32VW55x_RELEASE_V1.0.2/MSDK/plf/GD32VW55x_standard_peripheral/Source\gd32vw55x_i2c.c **** {
 1024              		.loc 1 632 1 is_stmt 1
 1025              		.cfi_startproc
 1026              	.LVL71:
 633:C:/Users/stapi/OneDrive/Desktop/GD32VW553/GD32VW55X_Wifi_BLE_SDK/GD32VW55x_RELEASE_V1.0.2/MSDK/plf/GD32VW55x_standard_peripheral/Source\gd32vw55x_i2c.c ****     I2C_CTL0(i2c_periph) |= I2C_CTL0_PECEN;
 1027              		.loc 1 633 5
 1028              		.loc 1 633 26 is_stmt 0
 1029 0000 1C41     		lw	a5,0(a0)
 1030 0002 93977729 		bseti	a5,a5,23
 1031 0006 1CC1     		sw	a5,0(a0)
 634:C:/Users/stapi/OneDrive/Desktop/GD32VW553/GD32VW55X_Wifi_BLE_SDK/GD32VW55x_RELEASE_V1.0.2/MSDK/plf/GD32VW55x_standard_peripheral/Source\gd32vw55x_i2c.c **** }
 1032              		.loc 1 634 1
 1033 0008 8280     		ret
 1034              		.cfi_endproc
 1035              	.LFE406:
 1037              		.section	.text.i2c_pec_disable,"ax",@progbits
 1038              		.align	1
 1039              		.globl	i2c_pec_disable
 1041              	i2c_pec_disable:
 1042              	.LFB407:
 635:C:/Users/stapi/OneDrive/Desktop/GD32VW553/GD32VW55X_Wifi_BLE_SDK/GD32VW55x_RELEASE_V1.0.2/MSDK/plf/GD32VW55x_standard_peripheral/Source\gd32vw55x_i2c.c **** 
 636:C:/Users/stapi/OneDrive/Desktop/GD32VW553/GD32VW55X_Wifi_BLE_SDK/GD32VW55x_RELEASE_V1.0.2/MSDK/plf/GD32VW55x_standard_peripheral/Source\gd32vw55x_i2c.c **** /*!
 637:C:/Users/stapi/OneDrive/Desktop/GD32VW553/GD32VW55X_Wifi_BLE_SDK/GD32VW55x_RELEASE_V1.0.2/MSDK/plf/GD32VW55x_standard_peripheral/Source\gd32vw55x_i2c.c ****     \brief      disable I2C PEC calculation
 638:C:/Users/stapi/OneDrive/Desktop/GD32VW553/GD32VW55X_Wifi_BLE_SDK/GD32VW55x_RELEASE_V1.0.2/MSDK/plf/GD32VW55x_standard_peripheral/Source\gd32vw55x_i2c.c ****     \param[in]  i2c_periph: I2Cx(x=0,1)
 639:C:/Users/stapi/OneDrive/Desktop/GD32VW553/GD32VW55X_Wifi_BLE_SDK/GD32VW55x_RELEASE_V1.0.2/MSDK/plf/GD32VW55x_standard_peripheral/Source\gd32vw55x_i2c.c ****     \param[out] none
 640:C:/Users/stapi/OneDrive/Desktop/GD32VW553/GD32VW55X_Wifi_BLE_SDK/GD32VW55x_RELEASE_V1.0.2/MSDK/plf/GD32VW55x_standard_peripheral/Source\gd32vw55x_i2c.c ****     \retval     none
 641:C:/Users/stapi/OneDrive/Desktop/GD32VW553/GD32VW55X_Wifi_BLE_SDK/GD32VW55x_RELEASE_V1.0.2/MSDK/plf/GD32VW55x_standard_peripheral/Source\gd32vw55x_i2c.c **** */
 642:C:/Users/stapi/OneDrive/Desktop/GD32VW553/GD32VW55X_Wifi_BLE_SDK/GD32VW55x_RELEASE_V1.0.2/MSDK/plf/GD32VW55x_standard_peripheral/Source\gd32vw55x_i2c.c **** void i2c_pec_disable(uint32_t i2c_periph)
 643:C:/Users/stapi/OneDrive/Desktop/GD32VW553/GD32VW55X_Wifi_BLE_SDK/GD32VW55x_RELEASE_V1.0.2/MSDK/plf/GD32VW55x_standard_peripheral/Source\gd32vw55x_i2c.c **** {
 1043              		.loc 1 643 1 is_stmt 1
 1044              		.cfi_startproc
 1045              	.LVL72:
 644:C:/Users/stapi/OneDrive/Desktop/GD32VW553/GD32VW55X_Wifi_BLE_SDK/GD32VW55x_RELEASE_V1.0.2/MSDK/plf/GD32VW55x_standard_peripheral/Source\gd32vw55x_i2c.c ****     I2C_CTL0(i2c_periph) &= ~I2C_CTL0_PECEN;
 1046              		.loc 1 644 5
 1047              		.loc 1 644 26 is_stmt 0
 1048 0000 1C41     		lw	a5,0(a0)
 1049 0002 93977749 		bclri	a5,a5,23
 1050 0006 1CC1     		sw	a5,0(a0)
 645:C:/Users/stapi/OneDrive/Desktop/GD32VW553/GD32VW55X_Wifi_BLE_SDK/GD32VW55x_RELEASE_V1.0.2/MSDK/plf/GD32VW55x_standard_peripheral/Source\gd32vw55x_i2c.c **** }
 1051              		.loc 1 645 1
 1052 0008 8280     		ret
 1053              		.cfi_endproc
 1054              	.LFE407:
 1056              		.section	.text.i2c_pec_value_get,"ax",@progbits
 1057              		.align	1
 1058              		.globl	i2c_pec_value_get
 1060              	i2c_pec_value_get:
 1061              	.LFB408:
 646:C:/Users/stapi/OneDrive/Desktop/GD32VW553/GD32VW55X_Wifi_BLE_SDK/GD32VW55x_RELEASE_V1.0.2/MSDK/plf/GD32VW55x_standard_peripheral/Source\gd32vw55x_i2c.c **** 
 647:C:/Users/stapi/OneDrive/Desktop/GD32VW553/GD32VW55X_Wifi_BLE_SDK/GD32VW55x_RELEASE_V1.0.2/MSDK/plf/GD32VW55x_standard_peripheral/Source\gd32vw55x_i2c.c **** /*!
 648:C:/Users/stapi/OneDrive/Desktop/GD32VW553/GD32VW55X_Wifi_BLE_SDK/GD32VW55x_RELEASE_V1.0.2/MSDK/plf/GD32VW55x_standard_peripheral/Source\gd32vw55x_i2c.c ****     \brief      get packet error checking value
 649:C:/Users/stapi/OneDrive/Desktop/GD32VW553/GD32VW55X_Wifi_BLE_SDK/GD32VW55x_RELEASE_V1.0.2/MSDK/plf/GD32VW55x_standard_peripheral/Source\gd32vw55x_i2c.c ****     \param[in]  i2c_periph: I2Cx(x=0,1)
 650:C:/Users/stapi/OneDrive/Desktop/GD32VW553/GD32VW55X_Wifi_BLE_SDK/GD32VW55x_RELEASE_V1.0.2/MSDK/plf/GD32VW55x_standard_peripheral/Source\gd32vw55x_i2c.c ****     \param[out] none
 651:C:/Users/stapi/OneDrive/Desktop/GD32VW553/GD32VW55X_Wifi_BLE_SDK/GD32VW55x_RELEASE_V1.0.2/MSDK/plf/GD32VW55x_standard_peripheral/Source\gd32vw55x_i2c.c ****     \retval     PEC value
 652:C:/Users/stapi/OneDrive/Desktop/GD32VW553/GD32VW55X_Wifi_BLE_SDK/GD32VW55x_RELEASE_V1.0.2/MSDK/plf/GD32VW55x_standard_peripheral/Source\gd32vw55x_i2c.c **** */
 653:C:/Users/stapi/OneDrive/Desktop/GD32VW553/GD32VW55X_Wifi_BLE_SDK/GD32VW55x_RELEASE_V1.0.2/MSDK/plf/GD32VW55x_standard_peripheral/Source\gd32vw55x_i2c.c **** uint32_t i2c_pec_value_get(uint32_t i2c_periph)
 654:C:/Users/stapi/OneDrive/Desktop/GD32VW553/GD32VW55X_Wifi_BLE_SDK/GD32VW55x_RELEASE_V1.0.2/MSDK/plf/GD32VW55x_standard_peripheral/Source\gd32vw55x_i2c.c **** {
 1062              		.loc 1 654 1 is_stmt 1
 1063              		.cfi_startproc
 1064              	.LVL73:
 655:C:/Users/stapi/OneDrive/Desktop/GD32VW553/GD32VW55X_Wifi_BLE_SDK/GD32VW55x_RELEASE_V1.0.2/MSDK/plf/GD32VW55x_standard_peripheral/Source\gd32vw55x_i2c.c ****     return (I2C_PEC(i2c_periph) & I2C_PEC_PECV);
 1065              		.loc 1 655 5
 1066              		.loc 1 655 33 is_stmt 0
 1067 0000 0851     		lw	a0,32(a0)
 1068              	.LVL74:
 656:C:/Users/stapi/OneDrive/Desktop/GD32VW553/GD32VW55X_Wifi_BLE_SDK/GD32VW55x_RELEASE_V1.0.2/MSDK/plf/GD32VW55x_standard_peripheral/Source\gd32vw55x_i2c.c **** }
 1069              		.loc 1 656 1
 1070 0002 1375F50F 		andi	a0,a0,0xff
 1071 0006 8280     		ret
 1072              		.cfi_endproc
 1073              	.LFE408:
 1075              		.section	.text.i2c_smbus_alert_enable,"ax",@progbits
 1076              		.align	1
 1077              		.globl	i2c_smbus_alert_enable
 1079              	i2c_smbus_alert_enable:
 1080              	.LFB409:
 657:C:/Users/stapi/OneDrive/Desktop/GD32VW553/GD32VW55X_Wifi_BLE_SDK/GD32VW55x_RELEASE_V1.0.2/MSDK/plf/GD32VW55x_standard_peripheral/Source\gd32vw55x_i2c.c **** 
 658:C:/Users/stapi/OneDrive/Desktop/GD32VW553/GD32VW55X_Wifi_BLE_SDK/GD32VW55x_RELEASE_V1.0.2/MSDK/plf/GD32VW55x_standard_peripheral/Source\gd32vw55x_i2c.c **** /*!
 659:C:/Users/stapi/OneDrive/Desktop/GD32VW553/GD32VW55X_Wifi_BLE_SDK/GD32VW55x_RELEASE_V1.0.2/MSDK/plf/GD32VW55x_standard_peripheral/Source\gd32vw55x_i2c.c ****     \brief      enable SMBus alert
 660:C:/Users/stapi/OneDrive/Desktop/GD32VW553/GD32VW55X_Wifi_BLE_SDK/GD32VW55x_RELEASE_V1.0.2/MSDK/plf/GD32VW55x_standard_peripheral/Source\gd32vw55x_i2c.c ****     \param[in]  i2c_periph: I2Cx(x=0,1)
 661:C:/Users/stapi/OneDrive/Desktop/GD32VW553/GD32VW55X_Wifi_BLE_SDK/GD32VW55x_RELEASE_V1.0.2/MSDK/plf/GD32VW55x_standard_peripheral/Source\gd32vw55x_i2c.c ****     \param[out] none
 662:C:/Users/stapi/OneDrive/Desktop/GD32VW553/GD32VW55X_Wifi_BLE_SDK/GD32VW55x_RELEASE_V1.0.2/MSDK/plf/GD32VW55x_standard_peripheral/Source\gd32vw55x_i2c.c ****     \retval     none
 663:C:/Users/stapi/OneDrive/Desktop/GD32VW553/GD32VW55X_Wifi_BLE_SDK/GD32VW55x_RELEASE_V1.0.2/MSDK/plf/GD32VW55x_standard_peripheral/Source\gd32vw55x_i2c.c **** */
 664:C:/Users/stapi/OneDrive/Desktop/GD32VW553/GD32VW55X_Wifi_BLE_SDK/GD32VW55x_RELEASE_V1.0.2/MSDK/plf/GD32VW55x_standard_peripheral/Source\gd32vw55x_i2c.c **** void i2c_smbus_alert_enable(uint32_t i2c_periph)
 665:C:/Users/stapi/OneDrive/Desktop/GD32VW553/GD32VW55X_Wifi_BLE_SDK/GD32VW55x_RELEASE_V1.0.2/MSDK/plf/GD32VW55x_standard_peripheral/Source\gd32vw55x_i2c.c **** {
 1081              		.loc 1 665 1 is_stmt 1
 1082              		.cfi_startproc
 1083              	.LVL75:
 666:C:/Users/stapi/OneDrive/Desktop/GD32VW553/GD32VW55X_Wifi_BLE_SDK/GD32VW55x_RELEASE_V1.0.2/MSDK/plf/GD32VW55x_standard_peripheral/Source\gd32vw55x_i2c.c ****     I2C_CTL0(i2c_periph) |= I2C_CTL0_SMBALTEN;
 1084              		.loc 1 666 5
 1085              		.loc 1 666 26 is_stmt 0
 1086 0000 1C41     		lw	a5,0(a0)
 1087 0002 93976729 		bseti	a5,a5,22
 1088 0006 1CC1     		sw	a5,0(a0)
 667:C:/Users/stapi/OneDrive/Desktop/GD32VW553/GD32VW55X_Wifi_BLE_SDK/GD32VW55x_RELEASE_V1.0.2/MSDK/plf/GD32VW55x_standard_peripheral/Source\gd32vw55x_i2c.c **** }
 1089              		.loc 1 667 1
 1090 0008 8280     		ret
 1091              		.cfi_endproc
 1092              	.LFE409:
 1094              		.section	.text.i2c_smbus_alert_disable,"ax",@progbits
 1095              		.align	1
 1096              		.globl	i2c_smbus_alert_disable
 1098              	i2c_smbus_alert_disable:
 1099              	.LFB410:
 668:C:/Users/stapi/OneDrive/Desktop/GD32VW553/GD32VW55X_Wifi_BLE_SDK/GD32VW55x_RELEASE_V1.0.2/MSDK/plf/GD32VW55x_standard_peripheral/Source\gd32vw55x_i2c.c **** 
 669:C:/Users/stapi/OneDrive/Desktop/GD32VW553/GD32VW55X_Wifi_BLE_SDK/GD32VW55x_RELEASE_V1.0.2/MSDK/plf/GD32VW55x_standard_peripheral/Source\gd32vw55x_i2c.c **** /*!
 670:C:/Users/stapi/OneDrive/Desktop/GD32VW553/GD32VW55X_Wifi_BLE_SDK/GD32VW55x_RELEASE_V1.0.2/MSDK/plf/GD32VW55x_standard_peripheral/Source\gd32vw55x_i2c.c ****     \brief      disable SMBus alert
 671:C:/Users/stapi/OneDrive/Desktop/GD32VW553/GD32VW55X_Wifi_BLE_SDK/GD32VW55x_RELEASE_V1.0.2/MSDK/plf/GD32VW55x_standard_peripheral/Source\gd32vw55x_i2c.c ****     \param[in]  i2c_periph: I2Cx(x=0,1)
 672:C:/Users/stapi/OneDrive/Desktop/GD32VW553/GD32VW55X_Wifi_BLE_SDK/GD32VW55x_RELEASE_V1.0.2/MSDK/plf/GD32VW55x_standard_peripheral/Source\gd32vw55x_i2c.c ****     \param[out] none
 673:C:/Users/stapi/OneDrive/Desktop/GD32VW553/GD32VW55X_Wifi_BLE_SDK/GD32VW55x_RELEASE_V1.0.2/MSDK/plf/GD32VW55x_standard_peripheral/Source\gd32vw55x_i2c.c ****     \retval     none
 674:C:/Users/stapi/OneDrive/Desktop/GD32VW553/GD32VW55X_Wifi_BLE_SDK/GD32VW55x_RELEASE_V1.0.2/MSDK/plf/GD32VW55x_standard_peripheral/Source\gd32vw55x_i2c.c **** */
 675:C:/Users/stapi/OneDrive/Desktop/GD32VW553/GD32VW55X_Wifi_BLE_SDK/GD32VW55x_RELEASE_V1.0.2/MSDK/plf/GD32VW55x_standard_peripheral/Source\gd32vw55x_i2c.c **** void i2c_smbus_alert_disable(uint32_t i2c_periph)
 676:C:/Users/stapi/OneDrive/Desktop/GD32VW553/GD32VW55X_Wifi_BLE_SDK/GD32VW55x_RELEASE_V1.0.2/MSDK/plf/GD32VW55x_standard_peripheral/Source\gd32vw55x_i2c.c **** {
 1100              		.loc 1 676 1 is_stmt 1
 1101              		.cfi_startproc
 1102              	.LVL76:
 677:C:/Users/stapi/OneDrive/Desktop/GD32VW553/GD32VW55X_Wifi_BLE_SDK/GD32VW55x_RELEASE_V1.0.2/MSDK/plf/GD32VW55x_standard_peripheral/Source\gd32vw55x_i2c.c ****     I2C_CTL0(i2c_periph) &= ~I2C_CTL0_SMBALTEN;
 1103              		.loc 1 677 5
 1104              		.loc 1 677 26 is_stmt 0
 1105 0000 1C41     		lw	a5,0(a0)
 1106 0002 93976749 		bclri	a5,a5,22
 1107 0006 1CC1     		sw	a5,0(a0)
 678:C:/Users/stapi/OneDrive/Desktop/GD32VW553/GD32VW55X_Wifi_BLE_SDK/GD32VW55x_RELEASE_V1.0.2/MSDK/plf/GD32VW55x_standard_peripheral/Source\gd32vw55x_i2c.c **** }
 1108              		.loc 1 678 1
 1109 0008 8280     		ret
 1110              		.cfi_endproc
 1111              	.LFE410:
 1113              		.section	.text.i2c_smbus_default_addr_enable,"ax",@progbits
 1114              		.align	1
 1115              		.globl	i2c_smbus_default_addr_enable
 1117              	i2c_smbus_default_addr_enable:
 1118              	.LFB411:
 679:C:/Users/stapi/OneDrive/Desktop/GD32VW553/GD32VW55X_Wifi_BLE_SDK/GD32VW55x_RELEASE_V1.0.2/MSDK/plf/GD32VW55x_standard_peripheral/Source\gd32vw55x_i2c.c **** 
 680:C:/Users/stapi/OneDrive/Desktop/GD32VW553/GD32VW55X_Wifi_BLE_SDK/GD32VW55x_RELEASE_V1.0.2/MSDK/plf/GD32VW55x_standard_peripheral/Source\gd32vw55x_i2c.c **** /*!
 681:C:/Users/stapi/OneDrive/Desktop/GD32VW553/GD32VW55X_Wifi_BLE_SDK/GD32VW55x_RELEASE_V1.0.2/MSDK/plf/GD32VW55x_standard_peripheral/Source\gd32vw55x_i2c.c ****     \brief      enable SMBus device default address
 682:C:/Users/stapi/OneDrive/Desktop/GD32VW553/GD32VW55X_Wifi_BLE_SDK/GD32VW55x_RELEASE_V1.0.2/MSDK/plf/GD32VW55x_standard_peripheral/Source\gd32vw55x_i2c.c ****     \param[in]  i2c_periph: I2Cx(x=0,1)
 683:C:/Users/stapi/OneDrive/Desktop/GD32VW553/GD32VW55X_Wifi_BLE_SDK/GD32VW55x_RELEASE_V1.0.2/MSDK/plf/GD32VW55x_standard_peripheral/Source\gd32vw55x_i2c.c ****     \param[out] none
 684:C:/Users/stapi/OneDrive/Desktop/GD32VW553/GD32VW55X_Wifi_BLE_SDK/GD32VW55x_RELEASE_V1.0.2/MSDK/plf/GD32VW55x_standard_peripheral/Source\gd32vw55x_i2c.c ****     \retval     none
 685:C:/Users/stapi/OneDrive/Desktop/GD32VW553/GD32VW55X_Wifi_BLE_SDK/GD32VW55x_RELEASE_V1.0.2/MSDK/plf/GD32VW55x_standard_peripheral/Source\gd32vw55x_i2c.c **** */
 686:C:/Users/stapi/OneDrive/Desktop/GD32VW553/GD32VW55X_Wifi_BLE_SDK/GD32VW55x_RELEASE_V1.0.2/MSDK/plf/GD32VW55x_standard_peripheral/Source\gd32vw55x_i2c.c **** void i2c_smbus_default_addr_enable(uint32_t i2c_periph)
 687:C:/Users/stapi/OneDrive/Desktop/GD32VW553/GD32VW55X_Wifi_BLE_SDK/GD32VW55x_RELEASE_V1.0.2/MSDK/plf/GD32VW55x_standard_peripheral/Source\gd32vw55x_i2c.c **** {
 1119              		.loc 1 687 1 is_stmt 1
 1120              		.cfi_startproc
 1121              	.LVL77:
 688:C:/Users/stapi/OneDrive/Desktop/GD32VW553/GD32VW55X_Wifi_BLE_SDK/GD32VW55x_RELEASE_V1.0.2/MSDK/plf/GD32VW55x_standard_peripheral/Source\gd32vw55x_i2c.c ****     I2C_CTL0(i2c_periph) |= I2C_CTL0_SMBDAEN;
 1122              		.loc 1 688 5
 1123              		.loc 1 688 26 is_stmt 0
 1124 0000 1C41     		lw	a5,0(a0)
 1125 0002 93975729 		bseti	a5,a5,21
 1126 0006 1CC1     		sw	a5,0(a0)
 689:C:/Users/stapi/OneDrive/Desktop/GD32VW553/GD32VW55X_Wifi_BLE_SDK/GD32VW55x_RELEASE_V1.0.2/MSDK/plf/GD32VW55x_standard_peripheral/Source\gd32vw55x_i2c.c **** }
 1127              		.loc 1 689 1
 1128 0008 8280     		ret
 1129              		.cfi_endproc
 1130              	.LFE411:
 1132              		.section	.text.i2c_smbus_default_addr_disable,"ax",@progbits
 1133              		.align	1
 1134              		.globl	i2c_smbus_default_addr_disable
 1136              	i2c_smbus_default_addr_disable:
 1137              	.LFB412:
 690:C:/Users/stapi/OneDrive/Desktop/GD32VW553/GD32VW55X_Wifi_BLE_SDK/GD32VW55x_RELEASE_V1.0.2/MSDK/plf/GD32VW55x_standard_peripheral/Source\gd32vw55x_i2c.c **** 
 691:C:/Users/stapi/OneDrive/Desktop/GD32VW553/GD32VW55X_Wifi_BLE_SDK/GD32VW55x_RELEASE_V1.0.2/MSDK/plf/GD32VW55x_standard_peripheral/Source\gd32vw55x_i2c.c **** /*!
 692:C:/Users/stapi/OneDrive/Desktop/GD32VW553/GD32VW55X_Wifi_BLE_SDK/GD32VW55x_RELEASE_V1.0.2/MSDK/plf/GD32VW55x_standard_peripheral/Source\gd32vw55x_i2c.c ****     \brief      disable SMBus device default address
 693:C:/Users/stapi/OneDrive/Desktop/GD32VW553/GD32VW55X_Wifi_BLE_SDK/GD32VW55x_RELEASE_V1.0.2/MSDK/plf/GD32VW55x_standard_peripheral/Source\gd32vw55x_i2c.c ****     \param[in]  i2c_periph: I2Cx(x=0,1)
 694:C:/Users/stapi/OneDrive/Desktop/GD32VW553/GD32VW55X_Wifi_BLE_SDK/GD32VW55x_RELEASE_V1.0.2/MSDK/plf/GD32VW55x_standard_peripheral/Source\gd32vw55x_i2c.c ****     \param[out] none
 695:C:/Users/stapi/OneDrive/Desktop/GD32VW553/GD32VW55X_Wifi_BLE_SDK/GD32VW55x_RELEASE_V1.0.2/MSDK/plf/GD32VW55x_standard_peripheral/Source\gd32vw55x_i2c.c ****     \retval     none
 696:C:/Users/stapi/OneDrive/Desktop/GD32VW553/GD32VW55X_Wifi_BLE_SDK/GD32VW55x_RELEASE_V1.0.2/MSDK/plf/GD32VW55x_standard_peripheral/Source\gd32vw55x_i2c.c **** */
 697:C:/Users/stapi/OneDrive/Desktop/GD32VW553/GD32VW55X_Wifi_BLE_SDK/GD32VW55x_RELEASE_V1.0.2/MSDK/plf/GD32VW55x_standard_peripheral/Source\gd32vw55x_i2c.c **** void i2c_smbus_default_addr_disable(uint32_t i2c_periph)
 698:C:/Users/stapi/OneDrive/Desktop/GD32VW553/GD32VW55X_Wifi_BLE_SDK/GD32VW55x_RELEASE_V1.0.2/MSDK/plf/GD32VW55x_standard_peripheral/Source\gd32vw55x_i2c.c **** {
 1138              		.loc 1 698 1 is_stmt 1
 1139              		.cfi_startproc
 1140              	.LVL78:
 699:C:/Users/stapi/OneDrive/Desktop/GD32VW553/GD32VW55X_Wifi_BLE_SDK/GD32VW55x_RELEASE_V1.0.2/MSDK/plf/GD32VW55x_standard_peripheral/Source\gd32vw55x_i2c.c ****     I2C_CTL0(i2c_periph) &= ~I2C_CTL0_SMBDAEN;
 1141              		.loc 1 699 5
 1142              		.loc 1 699 26 is_stmt 0
 1143 0000 1C41     		lw	a5,0(a0)
 1144 0002 93975749 		bclri	a5,a5,21
 1145 0006 1CC1     		sw	a5,0(a0)
 700:C:/Users/stapi/OneDrive/Desktop/GD32VW553/GD32VW55X_Wifi_BLE_SDK/GD32VW55x_RELEASE_V1.0.2/MSDK/plf/GD32VW55x_standard_peripheral/Source\gd32vw55x_i2c.c **** }
 1146              		.loc 1 700 1
 1147 0008 8280     		ret
 1148              		.cfi_endproc
 1149              	.LFE412:
 1151              		.section	.text.i2c_smbus_host_addr_enable,"ax",@progbits
 1152              		.align	1
 1153              		.globl	i2c_smbus_host_addr_enable
 1155              	i2c_smbus_host_addr_enable:
 1156              	.LFB413:
 701:C:/Users/stapi/OneDrive/Desktop/GD32VW553/GD32VW55X_Wifi_BLE_SDK/GD32VW55x_RELEASE_V1.0.2/MSDK/plf/GD32VW55x_standard_peripheral/Source\gd32vw55x_i2c.c **** 
 702:C:/Users/stapi/OneDrive/Desktop/GD32VW553/GD32VW55X_Wifi_BLE_SDK/GD32VW55x_RELEASE_V1.0.2/MSDK/plf/GD32VW55x_standard_peripheral/Source\gd32vw55x_i2c.c **** /*!
 703:C:/Users/stapi/OneDrive/Desktop/GD32VW553/GD32VW55X_Wifi_BLE_SDK/GD32VW55x_RELEASE_V1.0.2/MSDK/plf/GD32VW55x_standard_peripheral/Source\gd32vw55x_i2c.c ****     \brief      enable SMBus Host address
 704:C:/Users/stapi/OneDrive/Desktop/GD32VW553/GD32VW55X_Wifi_BLE_SDK/GD32VW55x_RELEASE_V1.0.2/MSDK/plf/GD32VW55x_standard_peripheral/Source\gd32vw55x_i2c.c ****     \param[in]  i2c_periph: I2Cx(x=0,1)
 705:C:/Users/stapi/OneDrive/Desktop/GD32VW553/GD32VW55X_Wifi_BLE_SDK/GD32VW55x_RELEASE_V1.0.2/MSDK/plf/GD32VW55x_standard_peripheral/Source\gd32vw55x_i2c.c ****     \param[out] none
 706:C:/Users/stapi/OneDrive/Desktop/GD32VW553/GD32VW55X_Wifi_BLE_SDK/GD32VW55x_RELEASE_V1.0.2/MSDK/plf/GD32VW55x_standard_peripheral/Source\gd32vw55x_i2c.c ****     \retval     none
 707:C:/Users/stapi/OneDrive/Desktop/GD32VW553/GD32VW55X_Wifi_BLE_SDK/GD32VW55x_RELEASE_V1.0.2/MSDK/plf/GD32VW55x_standard_peripheral/Source\gd32vw55x_i2c.c **** */
 708:C:/Users/stapi/OneDrive/Desktop/GD32VW553/GD32VW55X_Wifi_BLE_SDK/GD32VW55x_RELEASE_V1.0.2/MSDK/plf/GD32VW55x_standard_peripheral/Source\gd32vw55x_i2c.c **** void i2c_smbus_host_addr_enable(uint32_t i2c_periph)
 709:C:/Users/stapi/OneDrive/Desktop/GD32VW553/GD32VW55X_Wifi_BLE_SDK/GD32VW55x_RELEASE_V1.0.2/MSDK/plf/GD32VW55x_standard_peripheral/Source\gd32vw55x_i2c.c **** {
 1157              		.loc 1 709 1 is_stmt 1
 1158              		.cfi_startproc
 1159              	.LVL79:
 710:C:/Users/stapi/OneDrive/Desktop/GD32VW553/GD32VW55X_Wifi_BLE_SDK/GD32VW55x_RELEASE_V1.0.2/MSDK/plf/GD32VW55x_standard_peripheral/Source\gd32vw55x_i2c.c ****     I2C_CTL0(i2c_periph) |= I2C_CTL0_SMBHAEN;
 1160              		.loc 1 710 5
 1161              		.loc 1 710 26 is_stmt 0
 1162 0000 1C41     		lw	a5,0(a0)
 1163 0002 93974729 		bseti	a5,a5,20
 1164 0006 1CC1     		sw	a5,0(a0)
 711:C:/Users/stapi/OneDrive/Desktop/GD32VW553/GD32VW55X_Wifi_BLE_SDK/GD32VW55x_RELEASE_V1.0.2/MSDK/plf/GD32VW55x_standard_peripheral/Source\gd32vw55x_i2c.c **** }
 1165              		.loc 1 711 1
 1166 0008 8280     		ret
 1167              		.cfi_endproc
 1168              	.LFE413:
 1170              		.section	.text.i2c_smbus_host_addr_disable,"ax",@progbits
 1171              		.align	1
 1172              		.globl	i2c_smbus_host_addr_disable
 1174              	i2c_smbus_host_addr_disable:
 1175              	.LFB414:
 712:C:/Users/stapi/OneDrive/Desktop/GD32VW553/GD32VW55X_Wifi_BLE_SDK/GD32VW55x_RELEASE_V1.0.2/MSDK/plf/GD32VW55x_standard_peripheral/Source\gd32vw55x_i2c.c **** 
 713:C:/Users/stapi/OneDrive/Desktop/GD32VW553/GD32VW55X_Wifi_BLE_SDK/GD32VW55x_RELEASE_V1.0.2/MSDK/plf/GD32VW55x_standard_peripheral/Source\gd32vw55x_i2c.c **** /*!
 714:C:/Users/stapi/OneDrive/Desktop/GD32VW553/GD32VW55X_Wifi_BLE_SDK/GD32VW55x_RELEASE_V1.0.2/MSDK/plf/GD32VW55x_standard_peripheral/Source\gd32vw55x_i2c.c ****     \brief      disable SMBus Host address
 715:C:/Users/stapi/OneDrive/Desktop/GD32VW553/GD32VW55X_Wifi_BLE_SDK/GD32VW55x_RELEASE_V1.0.2/MSDK/plf/GD32VW55x_standard_peripheral/Source\gd32vw55x_i2c.c ****     \param[in]  i2c_periph: I2Cx(x=0,1)
 716:C:/Users/stapi/OneDrive/Desktop/GD32VW553/GD32VW55X_Wifi_BLE_SDK/GD32VW55x_RELEASE_V1.0.2/MSDK/plf/GD32VW55x_standard_peripheral/Source\gd32vw55x_i2c.c ****     \param[out] none
 717:C:/Users/stapi/OneDrive/Desktop/GD32VW553/GD32VW55X_Wifi_BLE_SDK/GD32VW55x_RELEASE_V1.0.2/MSDK/plf/GD32VW55x_standard_peripheral/Source\gd32vw55x_i2c.c ****     \retval     none
 718:C:/Users/stapi/OneDrive/Desktop/GD32VW553/GD32VW55X_Wifi_BLE_SDK/GD32VW55x_RELEASE_V1.0.2/MSDK/plf/GD32VW55x_standard_peripheral/Source\gd32vw55x_i2c.c **** */
 719:C:/Users/stapi/OneDrive/Desktop/GD32VW553/GD32VW55X_Wifi_BLE_SDK/GD32VW55x_RELEASE_V1.0.2/MSDK/plf/GD32VW55x_standard_peripheral/Source\gd32vw55x_i2c.c **** void i2c_smbus_host_addr_disable(uint32_t i2c_periph)
 720:C:/Users/stapi/OneDrive/Desktop/GD32VW553/GD32VW55X_Wifi_BLE_SDK/GD32VW55x_RELEASE_V1.0.2/MSDK/plf/GD32VW55x_standard_peripheral/Source\gd32vw55x_i2c.c **** {
 1176              		.loc 1 720 1 is_stmt 1
 1177              		.cfi_startproc
 1178              	.LVL80:
 721:C:/Users/stapi/OneDrive/Desktop/GD32VW553/GD32VW55X_Wifi_BLE_SDK/GD32VW55x_RELEASE_V1.0.2/MSDK/plf/GD32VW55x_standard_peripheral/Source\gd32vw55x_i2c.c ****     I2C_CTL0(i2c_periph) &= ~I2C_CTL0_SMBHAEN;
 1179              		.loc 1 721 5
 1180              		.loc 1 721 26 is_stmt 0
 1181 0000 1C41     		lw	a5,0(a0)
 1182 0002 93974749 		bclri	a5,a5,20
 1183 0006 1CC1     		sw	a5,0(a0)
 722:C:/Users/stapi/OneDrive/Desktop/GD32VW553/GD32VW55X_Wifi_BLE_SDK/GD32VW55x_RELEASE_V1.0.2/MSDK/plf/GD32VW55x_standard_peripheral/Source\gd32vw55x_i2c.c **** }
 1184              		.loc 1 722 1
 1185 0008 8280     		ret
 1186              		.cfi_endproc
 1187              	.LFE414:
 1189              		.section	.text.i2c_extented_clock_timeout_enable,"ax",@progbits
 1190              		.align	1
 1191              		.globl	i2c_extented_clock_timeout_enable
 1193              	i2c_extented_clock_timeout_enable:
 1194              	.LFB415:
 723:C:/Users/stapi/OneDrive/Desktop/GD32VW553/GD32VW55X_Wifi_BLE_SDK/GD32VW55x_RELEASE_V1.0.2/MSDK/plf/GD32VW55x_standard_peripheral/Source\gd32vw55x_i2c.c **** 
 724:C:/Users/stapi/OneDrive/Desktop/GD32VW553/GD32VW55X_Wifi_BLE_SDK/GD32VW55x_RELEASE_V1.0.2/MSDK/plf/GD32VW55x_standard_peripheral/Source\gd32vw55x_i2c.c **** /*!
 725:C:/Users/stapi/OneDrive/Desktop/GD32VW553/GD32VW55X_Wifi_BLE_SDK/GD32VW55x_RELEASE_V1.0.2/MSDK/plf/GD32VW55x_standard_peripheral/Source\gd32vw55x_i2c.c ****     \brief      enable extended clock timeout detection
 726:C:/Users/stapi/OneDrive/Desktop/GD32VW553/GD32VW55X_Wifi_BLE_SDK/GD32VW55x_RELEASE_V1.0.2/MSDK/plf/GD32VW55x_standard_peripheral/Source\gd32vw55x_i2c.c ****     \param[in]  i2c_periph: I2Cx(x=0,1)
 727:C:/Users/stapi/OneDrive/Desktop/GD32VW553/GD32VW55X_Wifi_BLE_SDK/GD32VW55x_RELEASE_V1.0.2/MSDK/plf/GD32VW55x_standard_peripheral/Source\gd32vw55x_i2c.c ****     \param[out] none
 728:C:/Users/stapi/OneDrive/Desktop/GD32VW553/GD32VW55X_Wifi_BLE_SDK/GD32VW55x_RELEASE_V1.0.2/MSDK/plf/GD32VW55x_standard_peripheral/Source\gd32vw55x_i2c.c ****     \retval     none
 729:C:/Users/stapi/OneDrive/Desktop/GD32VW553/GD32VW55X_Wifi_BLE_SDK/GD32VW55x_RELEASE_V1.0.2/MSDK/plf/GD32VW55x_standard_peripheral/Source\gd32vw55x_i2c.c **** */
 730:C:/Users/stapi/OneDrive/Desktop/GD32VW553/GD32VW55X_Wifi_BLE_SDK/GD32VW55x_RELEASE_V1.0.2/MSDK/plf/GD32VW55x_standard_peripheral/Source\gd32vw55x_i2c.c **** void i2c_extented_clock_timeout_enable(uint32_t i2c_periph)
 731:C:/Users/stapi/OneDrive/Desktop/GD32VW553/GD32VW55X_Wifi_BLE_SDK/GD32VW55x_RELEASE_V1.0.2/MSDK/plf/GD32VW55x_standard_peripheral/Source\gd32vw55x_i2c.c **** {
 1195              		.loc 1 731 1 is_stmt 1
 1196              		.cfi_startproc
 1197              	.LVL81:
 732:C:/Users/stapi/OneDrive/Desktop/GD32VW553/GD32VW55X_Wifi_BLE_SDK/GD32VW55x_RELEASE_V1.0.2/MSDK/plf/GD32VW55x_standard_peripheral/Source\gd32vw55x_i2c.c ****     I2C_TIMEOUT(i2c_periph) |= I2C_TIMEOUT_EXTOEN;
 1198              		.loc 1 732 5
 1199              		.loc 1 732 29 is_stmt 0
 1200 0000 5C49     		lw	a5,20(a0)
 1201 0002 37070080 		li	a4,-2147483648
 1202 0006 D98F     		or	a5,a5,a4
 1203 0008 5CC9     		sw	a5,20(a0)
 733:C:/Users/stapi/OneDrive/Desktop/GD32VW553/GD32VW55X_Wifi_BLE_SDK/GD32VW55x_RELEASE_V1.0.2/MSDK/plf/GD32VW55x_standard_peripheral/Source\gd32vw55x_i2c.c **** }
 1204              		.loc 1 733 1
 1205 000a 8280     		ret
 1206              		.cfi_endproc
 1207              	.LFE415:
 1209              		.section	.text.i2c_extented_clock_timeout_disable,"ax",@progbits
 1210              		.align	1
 1211              		.globl	i2c_extented_clock_timeout_disable
 1213              	i2c_extented_clock_timeout_disable:
 1214              	.LFB416:
 734:C:/Users/stapi/OneDrive/Desktop/GD32VW553/GD32VW55X_Wifi_BLE_SDK/GD32VW55x_RELEASE_V1.0.2/MSDK/plf/GD32VW55x_standard_peripheral/Source\gd32vw55x_i2c.c **** 
 735:C:/Users/stapi/OneDrive/Desktop/GD32VW553/GD32VW55X_Wifi_BLE_SDK/GD32VW55x_RELEASE_V1.0.2/MSDK/plf/GD32VW55x_standard_peripheral/Source\gd32vw55x_i2c.c **** /*!
 736:C:/Users/stapi/OneDrive/Desktop/GD32VW553/GD32VW55X_Wifi_BLE_SDK/GD32VW55x_RELEASE_V1.0.2/MSDK/plf/GD32VW55x_standard_peripheral/Source\gd32vw55x_i2c.c ****     \brief      disable extended clock timeout detection
 737:C:/Users/stapi/OneDrive/Desktop/GD32VW553/GD32VW55X_Wifi_BLE_SDK/GD32VW55x_RELEASE_V1.0.2/MSDK/plf/GD32VW55x_standard_peripheral/Source\gd32vw55x_i2c.c ****     \param[in]  i2c_periph: I2Cx(x=0,1)
 738:C:/Users/stapi/OneDrive/Desktop/GD32VW553/GD32VW55X_Wifi_BLE_SDK/GD32VW55x_RELEASE_V1.0.2/MSDK/plf/GD32VW55x_standard_peripheral/Source\gd32vw55x_i2c.c ****     \param[out] none
 739:C:/Users/stapi/OneDrive/Desktop/GD32VW553/GD32VW55X_Wifi_BLE_SDK/GD32VW55x_RELEASE_V1.0.2/MSDK/plf/GD32VW55x_standard_peripheral/Source\gd32vw55x_i2c.c ****     \retval     none
 740:C:/Users/stapi/OneDrive/Desktop/GD32VW553/GD32VW55X_Wifi_BLE_SDK/GD32VW55x_RELEASE_V1.0.2/MSDK/plf/GD32VW55x_standard_peripheral/Source\gd32vw55x_i2c.c **** */
 741:C:/Users/stapi/OneDrive/Desktop/GD32VW553/GD32VW55X_Wifi_BLE_SDK/GD32VW55x_RELEASE_V1.0.2/MSDK/plf/GD32VW55x_standard_peripheral/Source\gd32vw55x_i2c.c **** void i2c_extented_clock_timeout_disable(uint32_t i2c_periph)
 742:C:/Users/stapi/OneDrive/Desktop/GD32VW553/GD32VW55X_Wifi_BLE_SDK/GD32VW55x_RELEASE_V1.0.2/MSDK/plf/GD32VW55x_standard_peripheral/Source\gd32vw55x_i2c.c **** {
 1215              		.loc 1 742 1 is_stmt 1
 1216              		.cfi_startproc
 1217              	.LVL82:
 743:C:/Users/stapi/OneDrive/Desktop/GD32VW553/GD32VW55X_Wifi_BLE_SDK/GD32VW55x_RELEASE_V1.0.2/MSDK/plf/GD32VW55x_standard_peripheral/Source\gd32vw55x_i2c.c ****     I2C_TIMEOUT(i2c_periph) &= ~I2C_TIMEOUT_EXTOEN;
 1218              		.loc 1 743 5
 1219              		.loc 1 743 29 is_stmt 0
 1220 0000 5849     		lw	a4,20(a0)
 1221 0002 B7070080 		li	a5,-2147483648
 1222 0006 B377F740 		andn	a5,a4,a5
 1223 000a 5CC9     		sw	a5,20(a0)
 744:C:/Users/stapi/OneDrive/Desktop/GD32VW553/GD32VW55X_Wifi_BLE_SDK/GD32VW55x_RELEASE_V1.0.2/MSDK/plf/GD32VW55x_standard_peripheral/Source\gd32vw55x_i2c.c **** }
 1224              		.loc 1 744 1
 1225 000c 8280     		ret
 1226              		.cfi_endproc
 1227              	.LFE416:
 1229              		.section	.text.i2c_clock_timeout_enable,"ax",@progbits
 1230              		.align	1
 1231              		.globl	i2c_clock_timeout_enable
 1233              	i2c_clock_timeout_enable:
 1234              	.LFB417:
 745:C:/Users/stapi/OneDrive/Desktop/GD32VW553/GD32VW55X_Wifi_BLE_SDK/GD32VW55x_RELEASE_V1.0.2/MSDK/plf/GD32VW55x_standard_peripheral/Source\gd32vw55x_i2c.c **** 
 746:C:/Users/stapi/OneDrive/Desktop/GD32VW553/GD32VW55X_Wifi_BLE_SDK/GD32VW55x_RELEASE_V1.0.2/MSDK/plf/GD32VW55x_standard_peripheral/Source\gd32vw55x_i2c.c **** /*!
 747:C:/Users/stapi/OneDrive/Desktop/GD32VW553/GD32VW55X_Wifi_BLE_SDK/GD32VW55x_RELEASE_V1.0.2/MSDK/plf/GD32VW55x_standard_peripheral/Source\gd32vw55x_i2c.c ****     \brief      enable clock timeout detection
 748:C:/Users/stapi/OneDrive/Desktop/GD32VW553/GD32VW55X_Wifi_BLE_SDK/GD32VW55x_RELEASE_V1.0.2/MSDK/plf/GD32VW55x_standard_peripheral/Source\gd32vw55x_i2c.c ****     \param[in]  i2c_periph: I2Cx(x=0,1)
 749:C:/Users/stapi/OneDrive/Desktop/GD32VW553/GD32VW55X_Wifi_BLE_SDK/GD32VW55x_RELEASE_V1.0.2/MSDK/plf/GD32VW55x_standard_peripheral/Source\gd32vw55x_i2c.c ****     \param[out] none
 750:C:/Users/stapi/OneDrive/Desktop/GD32VW553/GD32VW55X_Wifi_BLE_SDK/GD32VW55x_RELEASE_V1.0.2/MSDK/plf/GD32VW55x_standard_peripheral/Source\gd32vw55x_i2c.c ****     \retval     none
 751:C:/Users/stapi/OneDrive/Desktop/GD32VW553/GD32VW55X_Wifi_BLE_SDK/GD32VW55x_RELEASE_V1.0.2/MSDK/plf/GD32VW55x_standard_peripheral/Source\gd32vw55x_i2c.c **** */
 752:C:/Users/stapi/OneDrive/Desktop/GD32VW553/GD32VW55X_Wifi_BLE_SDK/GD32VW55x_RELEASE_V1.0.2/MSDK/plf/GD32VW55x_standard_peripheral/Source\gd32vw55x_i2c.c **** void i2c_clock_timeout_enable(uint32_t i2c_periph)
 753:C:/Users/stapi/OneDrive/Desktop/GD32VW553/GD32VW55X_Wifi_BLE_SDK/GD32VW55x_RELEASE_V1.0.2/MSDK/plf/GD32VW55x_standard_peripheral/Source\gd32vw55x_i2c.c **** {
 1235              		.loc 1 753 1 is_stmt 1
 1236              		.cfi_startproc
 1237              	.LVL83:
 754:C:/Users/stapi/OneDrive/Desktop/GD32VW553/GD32VW55X_Wifi_BLE_SDK/GD32VW55x_RELEASE_V1.0.2/MSDK/plf/GD32VW55x_standard_peripheral/Source\gd32vw55x_i2c.c ****     I2C_TIMEOUT(i2c_periph) |= I2C_TIMEOUT_TOEN;
 1238              		.loc 1 754 5
 1239              		.loc 1 754 29 is_stmt 0
 1240 0000 5C49     		lw	a5,20(a0)
 1241 0002 9397F728 		bseti	a5,a5,15
 1242 0006 5CC9     		sw	a5,20(a0)
 755:C:/Users/stapi/OneDrive/Desktop/GD32VW553/GD32VW55X_Wifi_BLE_SDK/GD32VW55x_RELEASE_V1.0.2/MSDK/plf/GD32VW55x_standard_peripheral/Source\gd32vw55x_i2c.c **** }
 1243              		.loc 1 755 1
 1244 0008 8280     		ret
 1245              		.cfi_endproc
 1246              	.LFE417:
 1248              		.section	.text.i2c_clock_timeout_disable,"ax",@progbits
 1249              		.align	1
 1250              		.globl	i2c_clock_timeout_disable
 1252              	i2c_clock_timeout_disable:
 1253              	.LFB418:
 756:C:/Users/stapi/OneDrive/Desktop/GD32VW553/GD32VW55X_Wifi_BLE_SDK/GD32VW55x_RELEASE_V1.0.2/MSDK/plf/GD32VW55x_standard_peripheral/Source\gd32vw55x_i2c.c **** 
 757:C:/Users/stapi/OneDrive/Desktop/GD32VW553/GD32VW55X_Wifi_BLE_SDK/GD32VW55x_RELEASE_V1.0.2/MSDK/plf/GD32VW55x_standard_peripheral/Source\gd32vw55x_i2c.c **** /*!
 758:C:/Users/stapi/OneDrive/Desktop/GD32VW553/GD32VW55X_Wifi_BLE_SDK/GD32VW55x_RELEASE_V1.0.2/MSDK/plf/GD32VW55x_standard_peripheral/Source\gd32vw55x_i2c.c ****     \brief      disable clock timeout detection
 759:C:/Users/stapi/OneDrive/Desktop/GD32VW553/GD32VW55X_Wifi_BLE_SDK/GD32VW55x_RELEASE_V1.0.2/MSDK/plf/GD32VW55x_standard_peripheral/Source\gd32vw55x_i2c.c ****     \param[in]  i2c_periph: I2Cx(x=0,1)
 760:C:/Users/stapi/OneDrive/Desktop/GD32VW553/GD32VW55X_Wifi_BLE_SDK/GD32VW55x_RELEASE_V1.0.2/MSDK/plf/GD32VW55x_standard_peripheral/Source\gd32vw55x_i2c.c ****     \param[out] none
 761:C:/Users/stapi/OneDrive/Desktop/GD32VW553/GD32VW55X_Wifi_BLE_SDK/GD32VW55x_RELEASE_V1.0.2/MSDK/plf/GD32VW55x_standard_peripheral/Source\gd32vw55x_i2c.c ****     \retval     none
 762:C:/Users/stapi/OneDrive/Desktop/GD32VW553/GD32VW55X_Wifi_BLE_SDK/GD32VW55x_RELEASE_V1.0.2/MSDK/plf/GD32VW55x_standard_peripheral/Source\gd32vw55x_i2c.c **** */
 763:C:/Users/stapi/OneDrive/Desktop/GD32VW553/GD32VW55X_Wifi_BLE_SDK/GD32VW55x_RELEASE_V1.0.2/MSDK/plf/GD32VW55x_standard_peripheral/Source\gd32vw55x_i2c.c **** void i2c_clock_timeout_disable(uint32_t i2c_periph)
 764:C:/Users/stapi/OneDrive/Desktop/GD32VW553/GD32VW55X_Wifi_BLE_SDK/GD32VW55x_RELEASE_V1.0.2/MSDK/plf/GD32VW55x_standard_peripheral/Source\gd32vw55x_i2c.c **** {
 1254              		.loc 1 764 1 is_stmt 1
 1255              		.cfi_startproc
 1256              	.LVL84:
 765:C:/Users/stapi/OneDrive/Desktop/GD32VW553/GD32VW55X_Wifi_BLE_SDK/GD32VW55x_RELEASE_V1.0.2/MSDK/plf/GD32VW55x_standard_peripheral/Source\gd32vw55x_i2c.c ****     I2C_TIMEOUT(i2c_periph) &= ~I2C_TIMEOUT_TOEN;
 1257              		.loc 1 765 5
 1258              		.loc 1 765 29 is_stmt 0
 1259 0000 5C49     		lw	a5,20(a0)
 1260 0002 9397F748 		bclri	a5,a5,15
 1261 0006 5CC9     		sw	a5,20(a0)
 766:C:/Users/stapi/OneDrive/Desktop/GD32VW553/GD32VW55X_Wifi_BLE_SDK/GD32VW55x_RELEASE_V1.0.2/MSDK/plf/GD32VW55x_standard_peripheral/Source\gd32vw55x_i2c.c **** }
 1262              		.loc 1 766 1
 1263 0008 8280     		ret
 1264              		.cfi_endproc
 1265              	.LFE418:
 1267              		.section	.text.i2c_bus_timeout_b_config,"ax",@progbits
 1268              		.align	1
 1269              		.globl	i2c_bus_timeout_b_config
 1271              	i2c_bus_timeout_b_config:
 1272              	.LFB419:
 767:C:/Users/stapi/OneDrive/Desktop/GD32VW553/GD32VW55X_Wifi_BLE_SDK/GD32VW55x_RELEASE_V1.0.2/MSDK/plf/GD32VW55x_standard_peripheral/Source\gd32vw55x_i2c.c **** 
 768:C:/Users/stapi/OneDrive/Desktop/GD32VW553/GD32VW55X_Wifi_BLE_SDK/GD32VW55x_RELEASE_V1.0.2/MSDK/plf/GD32VW55x_standard_peripheral/Source\gd32vw55x_i2c.c **** /*!
 769:C:/Users/stapi/OneDrive/Desktop/GD32VW553/GD32VW55X_Wifi_BLE_SDK/GD32VW55x_RELEASE_V1.0.2/MSDK/plf/GD32VW55x_standard_peripheral/Source\gd32vw55x_i2c.c ****     \brief      configure bus timeout B
 770:C:/Users/stapi/OneDrive/Desktop/GD32VW553/GD32VW55X_Wifi_BLE_SDK/GD32VW55x_RELEASE_V1.0.2/MSDK/plf/GD32VW55x_standard_peripheral/Source\gd32vw55x_i2c.c ****     \param[in]  i2c_periph: I2Cx(x=0,1)
 771:C:/Users/stapi/OneDrive/Desktop/GD32VW553/GD32VW55X_Wifi_BLE_SDK/GD32VW55x_RELEASE_V1.0.2/MSDK/plf/GD32VW55x_standard_peripheral/Source\gd32vw55x_i2c.c ****     \param[in]  timeout: bus timeout B
 772:C:/Users/stapi/OneDrive/Desktop/GD32VW553/GD32VW55X_Wifi_BLE_SDK/GD32VW55x_RELEASE_V1.0.2/MSDK/plf/GD32VW55x_standard_peripheral/Source\gd32vw55x_i2c.c ****     \param[out] none
 773:C:/Users/stapi/OneDrive/Desktop/GD32VW553/GD32VW55X_Wifi_BLE_SDK/GD32VW55x_RELEASE_V1.0.2/MSDK/plf/GD32VW55x_standard_peripheral/Source\gd32vw55x_i2c.c ****     \retval     none
 774:C:/Users/stapi/OneDrive/Desktop/GD32VW553/GD32VW55X_Wifi_BLE_SDK/GD32VW55x_RELEASE_V1.0.2/MSDK/plf/GD32VW55x_standard_peripheral/Source\gd32vw55x_i2c.c **** */
 775:C:/Users/stapi/OneDrive/Desktop/GD32VW553/GD32VW55X_Wifi_BLE_SDK/GD32VW55x_RELEASE_V1.0.2/MSDK/plf/GD32VW55x_standard_peripheral/Source\gd32vw55x_i2c.c **** void i2c_bus_timeout_b_config(uint32_t i2c_periph, uint32_t timeout)
 776:C:/Users/stapi/OneDrive/Desktop/GD32VW553/GD32VW55X_Wifi_BLE_SDK/GD32VW55x_RELEASE_V1.0.2/MSDK/plf/GD32VW55x_standard_peripheral/Source\gd32vw55x_i2c.c **** {
 1273              		.loc 1 776 1 is_stmt 1
 1274              		.cfi_startproc
 1275              	.LVL85:
 777:C:/Users/stapi/OneDrive/Desktop/GD32VW553/GD32VW55X_Wifi_BLE_SDK/GD32VW55x_RELEASE_V1.0.2/MSDK/plf/GD32VW55x_standard_peripheral/Source\gd32vw55x_i2c.c ****     I2C_TIMEOUT(i2c_periph) &= ~I2C_TIMEOUT_BUSTOB;
 1276              		.loc 1 777 5
 1277              		.loc 1 777 29 is_stmt 0
 1278 0000 5C49     		lw	a5,20(a0)
 1279 0002 370701F0 		li	a4,-268369920
 1280 0006 7D17     		addi	a4,a4,-1
 1281 0008 F98F     		and	a5,a5,a4
 1282 000a 5CC9     		sw	a5,20(a0)
 778:C:/Users/stapi/OneDrive/Desktop/GD32VW553/GD32VW55X_Wifi_BLE_SDK/GD32VW55x_RELEASE_V1.0.2/MSDK/plf/GD32VW55x_standard_peripheral/Source\gd32vw55x_i2c.c ****     I2C_TIMEOUT(i2c_periph) |= (uint32_t)(timeout << TIMEOUT_BUSTOB_OFFSET);
 1283              		.loc 1 778 5 is_stmt 1
 1284              		.loc 1 778 29 is_stmt 0
 1285 000c 5C49     		lw	a5,20(a0)
 1286              		.loc 1 778 51
 1287 000e C205     		slli	a1,a1,16
 1288              	.LVL86:
 1289              		.loc 1 778 29
 1290 0010 DD8D     		or	a1,a1,a5
 1291 0012 4CC9     		sw	a1,20(a0)
 779:C:/Users/stapi/OneDrive/Desktop/GD32VW553/GD32VW55X_Wifi_BLE_SDK/GD32VW55x_RELEASE_V1.0.2/MSDK/plf/GD32VW55x_standard_peripheral/Source\gd32vw55x_i2c.c **** }
 1292              		.loc 1 779 1
 1293 0014 8280     		ret
 1294              		.cfi_endproc
 1295              	.LFE419:
 1297              		.section	.text.i2c_bus_timeout_a_config,"ax",@progbits
 1298              		.align	1
 1299              		.globl	i2c_bus_timeout_a_config
 1301              	i2c_bus_timeout_a_config:
 1302              	.LFB420:
 780:C:/Users/stapi/OneDrive/Desktop/GD32VW553/GD32VW55X_Wifi_BLE_SDK/GD32VW55x_RELEASE_V1.0.2/MSDK/plf/GD32VW55x_standard_peripheral/Source\gd32vw55x_i2c.c **** 
 781:C:/Users/stapi/OneDrive/Desktop/GD32VW553/GD32VW55X_Wifi_BLE_SDK/GD32VW55x_RELEASE_V1.0.2/MSDK/plf/GD32VW55x_standard_peripheral/Source\gd32vw55x_i2c.c **** /*!
 782:C:/Users/stapi/OneDrive/Desktop/GD32VW553/GD32VW55X_Wifi_BLE_SDK/GD32VW55x_RELEASE_V1.0.2/MSDK/plf/GD32VW55x_standard_peripheral/Source\gd32vw55x_i2c.c ****     \brief      configure bus timeout A
 783:C:/Users/stapi/OneDrive/Desktop/GD32VW553/GD32VW55X_Wifi_BLE_SDK/GD32VW55x_RELEASE_V1.0.2/MSDK/plf/GD32VW55x_standard_peripheral/Source\gd32vw55x_i2c.c ****     \param[in]  i2c_periph: I2Cx(x=0,1)
 784:C:/Users/stapi/OneDrive/Desktop/GD32VW553/GD32VW55X_Wifi_BLE_SDK/GD32VW55x_RELEASE_V1.0.2/MSDK/plf/GD32VW55x_standard_peripheral/Source\gd32vw55x_i2c.c ****     \param[in]  timeout: bus timeout A
 785:C:/Users/stapi/OneDrive/Desktop/GD32VW553/GD32VW55X_Wifi_BLE_SDK/GD32VW55x_RELEASE_V1.0.2/MSDK/plf/GD32VW55x_standard_peripheral/Source\gd32vw55x_i2c.c ****     \param[out] none
 786:C:/Users/stapi/OneDrive/Desktop/GD32VW553/GD32VW55X_Wifi_BLE_SDK/GD32VW55x_RELEASE_V1.0.2/MSDK/plf/GD32VW55x_standard_peripheral/Source\gd32vw55x_i2c.c ****     \retval     none
 787:C:/Users/stapi/OneDrive/Desktop/GD32VW553/GD32VW55X_Wifi_BLE_SDK/GD32VW55x_RELEASE_V1.0.2/MSDK/plf/GD32VW55x_standard_peripheral/Source\gd32vw55x_i2c.c **** */
 788:C:/Users/stapi/OneDrive/Desktop/GD32VW553/GD32VW55X_Wifi_BLE_SDK/GD32VW55x_RELEASE_V1.0.2/MSDK/plf/GD32VW55x_standard_peripheral/Source\gd32vw55x_i2c.c **** void i2c_bus_timeout_a_config(uint32_t i2c_periph, uint32_t timeout)
 789:C:/Users/stapi/OneDrive/Desktop/GD32VW553/GD32VW55X_Wifi_BLE_SDK/GD32VW55x_RELEASE_V1.0.2/MSDK/plf/GD32VW55x_standard_peripheral/Source\gd32vw55x_i2c.c **** {
 1303              		.loc 1 789 1 is_stmt 1
 1304              		.cfi_startproc
 1305              	.LVL87:
 790:C:/Users/stapi/OneDrive/Desktop/GD32VW553/GD32VW55X_Wifi_BLE_SDK/GD32VW55x_RELEASE_V1.0.2/MSDK/plf/GD32VW55x_standard_peripheral/Source\gd32vw55x_i2c.c ****     I2C_TIMEOUT(i2c_periph) &= ~I2C_TIMEOUT_BUSTOA;
 1306              		.loc 1 790 5
 1307              		.loc 1 790 29 is_stmt 0
 1308 0000 5849     		lw	a4,20(a0)
 1309 0002 FD77     		li	a5,-4096
 1310 0004 7D8F     		and	a4,a4,a5
 1311 0006 58C9     		sw	a4,20(a0)
 791:C:/Users/stapi/OneDrive/Desktop/GD32VW553/GD32VW55X_Wifi_BLE_SDK/GD32VW55x_RELEASE_V1.0.2/MSDK/plf/GD32VW55x_standard_peripheral/Source\gd32vw55x_i2c.c ****     I2C_TIMEOUT(i2c_periph) |= timeout;
 1312              		.loc 1 791 5 is_stmt 1
 1313              		.loc 1 791 29 is_stmt 0
 1314 0008 5C49     		lw	a5,20(a0)
 1315 000a CD8F     		or	a5,a5,a1
 1316 000c 5CC9     		sw	a5,20(a0)
 792:C:/Users/stapi/OneDrive/Desktop/GD32VW553/GD32VW55X_Wifi_BLE_SDK/GD32VW55x_RELEASE_V1.0.2/MSDK/plf/GD32VW55x_standard_peripheral/Source\gd32vw55x_i2c.c **** }
 1317              		.loc 1 792 1
 1318 000e 8280     		ret
 1319              		.cfi_endproc
 1320              	.LFE420:
 1322              		.section	.text.i2c_idle_clock_timeout_config,"ax",@progbits
 1323              		.align	1
 1324              		.globl	i2c_idle_clock_timeout_config
 1326              	i2c_idle_clock_timeout_config:
 1327              	.LFB421:
 793:C:/Users/stapi/OneDrive/Desktop/GD32VW553/GD32VW55X_Wifi_BLE_SDK/GD32VW55x_RELEASE_V1.0.2/MSDK/plf/GD32VW55x_standard_peripheral/Source\gd32vw55x_i2c.c **** 
 794:C:/Users/stapi/OneDrive/Desktop/GD32VW553/GD32VW55X_Wifi_BLE_SDK/GD32VW55x_RELEASE_V1.0.2/MSDK/plf/GD32VW55x_standard_peripheral/Source\gd32vw55x_i2c.c **** /*!
 795:C:/Users/stapi/OneDrive/Desktop/GD32VW553/GD32VW55X_Wifi_BLE_SDK/GD32VW55x_RELEASE_V1.0.2/MSDK/plf/GD32VW55x_standard_peripheral/Source\gd32vw55x_i2c.c ****     \brief      configure idle clock timeout detection
 796:C:/Users/stapi/OneDrive/Desktop/GD32VW553/GD32VW55X_Wifi_BLE_SDK/GD32VW55x_RELEASE_V1.0.2/MSDK/plf/GD32VW55x_standard_peripheral/Source\gd32vw55x_i2c.c ****     \param[in]  i2c_periph: I2Cx(x=0,1)
 797:C:/Users/stapi/OneDrive/Desktop/GD32VW553/GD32VW55X_Wifi_BLE_SDK/GD32VW55x_RELEASE_V1.0.2/MSDK/plf/GD32VW55x_standard_peripheral/Source\gd32vw55x_i2c.c ****     \param[in]  timeout: bus timeout A
 798:C:/Users/stapi/OneDrive/Desktop/GD32VW553/GD32VW55X_Wifi_BLE_SDK/GD32VW55x_RELEASE_V1.0.2/MSDK/plf/GD32VW55x_standard_peripheral/Source\gd32vw55x_i2c.c ****       \arg        BUSTOA_DETECT_SCL_LOW: BUSTOA is used to detect SCL low timeout
 799:C:/Users/stapi/OneDrive/Desktop/GD32VW553/GD32VW55X_Wifi_BLE_SDK/GD32VW55x_RELEASE_V1.0.2/MSDK/plf/GD32VW55x_standard_peripheral/Source\gd32vw55x_i2c.c ****       \arg        BUSTOA_DETECT_IDLE: BUSTOA is used to detect both SCL and SDA high timeout when t
 800:C:/Users/stapi/OneDrive/Desktop/GD32VW553/GD32VW55X_Wifi_BLE_SDK/GD32VW55x_RELEASE_V1.0.2/MSDK/plf/GD32VW55x_standard_peripheral/Source\gd32vw55x_i2c.c ****     \param[out] none
 801:C:/Users/stapi/OneDrive/Desktop/GD32VW553/GD32VW55X_Wifi_BLE_SDK/GD32VW55x_RELEASE_V1.0.2/MSDK/plf/GD32VW55x_standard_peripheral/Source\gd32vw55x_i2c.c ****     \retval     none
 802:C:/Users/stapi/OneDrive/Desktop/GD32VW553/GD32VW55X_Wifi_BLE_SDK/GD32VW55x_RELEASE_V1.0.2/MSDK/plf/GD32VW55x_standard_peripheral/Source\gd32vw55x_i2c.c **** */
 803:C:/Users/stapi/OneDrive/Desktop/GD32VW553/GD32VW55X_Wifi_BLE_SDK/GD32VW55x_RELEASE_V1.0.2/MSDK/plf/GD32VW55x_standard_peripheral/Source\gd32vw55x_i2c.c **** void i2c_idle_clock_timeout_config(uint32_t i2c_periph, uint32_t timeout)
 804:C:/Users/stapi/OneDrive/Desktop/GD32VW553/GD32VW55X_Wifi_BLE_SDK/GD32VW55x_RELEASE_V1.0.2/MSDK/plf/GD32VW55x_standard_peripheral/Source\gd32vw55x_i2c.c **** {
 1328              		.loc 1 804 1 is_stmt 1
 1329              		.cfi_startproc
 1330              	.LVL88:
 805:C:/Users/stapi/OneDrive/Desktop/GD32VW553/GD32VW55X_Wifi_BLE_SDK/GD32VW55x_RELEASE_V1.0.2/MSDK/plf/GD32VW55x_standard_peripheral/Source\gd32vw55x_i2c.c ****     I2C_TIMEOUT(i2c_periph) &= ~I2C_TIMEOUT_TOIDLE;
 1331              		.loc 1 805 5
 1332              		.loc 1 805 29 is_stmt 0
 1333 0000 5849     		lw	a4,20(a0)
 1334 0002 1317C748 		bclri	a4,a4,12
 1335 0006 58C9     		sw	a4,20(a0)
 806:C:/Users/stapi/OneDrive/Desktop/GD32VW553/GD32VW55X_Wifi_BLE_SDK/GD32VW55x_RELEASE_V1.0.2/MSDK/plf/GD32VW55x_standard_peripheral/Source\gd32vw55x_i2c.c ****     I2C_TIMEOUT(i2c_periph) |= timeout;
 1336              		.loc 1 806 5 is_stmt 1
 1337              		.loc 1 806 29 is_stmt 0
 1338 0008 5C49     		lw	a5,20(a0)
 1339 000a CD8F     		or	a5,a5,a1
 1340 000c 5CC9     		sw	a5,20(a0)
 807:C:/Users/stapi/OneDrive/Desktop/GD32VW553/GD32VW55X_Wifi_BLE_SDK/GD32VW55x_RELEASE_V1.0.2/MSDK/plf/GD32VW55x_standard_peripheral/Source\gd32vw55x_i2c.c **** }
 1341              		.loc 1 807 1
 1342 000e 8280     		ret
 1343              		.cfi_endproc
 1344              	.LFE421:
 1346              		.section	.text.i2c_flag_get,"ax",@progbits
 1347              		.align	1
 1348              		.globl	i2c_flag_get
 1350              	i2c_flag_get:
 1351              	.LFB422:
 808:C:/Users/stapi/OneDrive/Desktop/GD32VW553/GD32VW55X_Wifi_BLE_SDK/GD32VW55x_RELEASE_V1.0.2/MSDK/plf/GD32VW55x_standard_peripheral/Source\gd32vw55x_i2c.c **** 
 809:C:/Users/stapi/OneDrive/Desktop/GD32VW553/GD32VW55X_Wifi_BLE_SDK/GD32VW55x_RELEASE_V1.0.2/MSDK/plf/GD32VW55x_standard_peripheral/Source\gd32vw55x_i2c.c **** /*!
 810:C:/Users/stapi/OneDrive/Desktop/GD32VW553/GD32VW55X_Wifi_BLE_SDK/GD32VW55x_RELEASE_V1.0.2/MSDK/plf/GD32VW55x_standard_peripheral/Source\gd32vw55x_i2c.c ****     \brief      get I2C flag status
 811:C:/Users/stapi/OneDrive/Desktop/GD32VW553/GD32VW55X_Wifi_BLE_SDK/GD32VW55x_RELEASE_V1.0.2/MSDK/plf/GD32VW55x_standard_peripheral/Source\gd32vw55x_i2c.c ****     \param[in]  i2c_periph: I2Cx(x=0,1)
 812:C:/Users/stapi/OneDrive/Desktop/GD32VW553/GD32VW55X_Wifi_BLE_SDK/GD32VW55x_RELEASE_V1.0.2/MSDK/plf/GD32VW55x_standard_peripheral/Source\gd32vw55x_i2c.c ****     \param[in]  flag: I2C flags
 813:C:/Users/stapi/OneDrive/Desktop/GD32VW553/GD32VW55X_Wifi_BLE_SDK/GD32VW55x_RELEASE_V1.0.2/MSDK/plf/GD32VW55x_standard_peripheral/Source\gd32vw55x_i2c.c ****                 only one parameter can be selected which is shown as below:
 814:C:/Users/stapi/OneDrive/Desktop/GD32VW553/GD32VW55X_Wifi_BLE_SDK/GD32VW55x_RELEASE_V1.0.2/MSDK/plf/GD32VW55x_standard_peripheral/Source\gd32vw55x_i2c.c ****       \arg        I2C_FLAG_TBE: I2C_TDATA is empty during transmitting
 815:C:/Users/stapi/OneDrive/Desktop/GD32VW553/GD32VW55X_Wifi_BLE_SDK/GD32VW55x_RELEASE_V1.0.2/MSDK/plf/GD32VW55x_standard_peripheral/Source\gd32vw55x_i2c.c ****       \arg        I2C_FLAG_TI: transmit interrupt
 816:C:/Users/stapi/OneDrive/Desktop/GD32VW553/GD32VW55X_Wifi_BLE_SDK/GD32VW55x_RELEASE_V1.0.2/MSDK/plf/GD32VW55x_standard_peripheral/Source\gd32vw55x_i2c.c ****       \arg        I2C_FLAG_RBNE: I2C_RDATA is not empty during receiving
 817:C:/Users/stapi/OneDrive/Desktop/GD32VW553/GD32VW55X_Wifi_BLE_SDK/GD32VW55x_RELEASE_V1.0.2/MSDK/plf/GD32VW55x_standard_peripheral/Source\gd32vw55x_i2c.c ****       \arg        I2C_FLAG_ADDSEND: address received matches in slave mode
 818:C:/Users/stapi/OneDrive/Desktop/GD32VW553/GD32VW55X_Wifi_BLE_SDK/GD32VW55x_RELEASE_V1.0.2/MSDK/plf/GD32VW55x_standard_peripheral/Source\gd32vw55x_i2c.c ****       \arg        I2C_FLAG_NACK: not acknowledge flag
 819:C:/Users/stapi/OneDrive/Desktop/GD32VW553/GD32VW55X_Wifi_BLE_SDK/GD32VW55x_RELEASE_V1.0.2/MSDK/plf/GD32VW55x_standard_peripheral/Source\gd32vw55x_i2c.c ****       \arg        I2C_FLAG_STPDET: STOP condition detected in slave mode
 820:C:/Users/stapi/OneDrive/Desktop/GD32VW553/GD32VW55X_Wifi_BLE_SDK/GD32VW55x_RELEASE_V1.0.2/MSDK/plf/GD32VW55x_standard_peripheral/Source\gd32vw55x_i2c.c ****       \arg        I2C_FLAG_TC: transfer complete in master mode
 821:C:/Users/stapi/OneDrive/Desktop/GD32VW553/GD32VW55X_Wifi_BLE_SDK/GD32VW55x_RELEASE_V1.0.2/MSDK/plf/GD32VW55x_standard_peripheral/Source\gd32vw55x_i2c.c ****       \arg        I2C_FLAG_TCR: transfer complete reload
 822:C:/Users/stapi/OneDrive/Desktop/GD32VW553/GD32VW55X_Wifi_BLE_SDK/GD32VW55x_RELEASE_V1.0.2/MSDK/plf/GD32VW55x_standard_peripheral/Source\gd32vw55x_i2c.c ****       \arg        I2C_FLAG_BERR: bus error
 823:C:/Users/stapi/OneDrive/Desktop/GD32VW553/GD32VW55X_Wifi_BLE_SDK/GD32VW55x_RELEASE_V1.0.2/MSDK/plf/GD32VW55x_standard_peripheral/Source\gd32vw55x_i2c.c ****       \arg        I2C_FLAG_LOSTARB: arbitration Lost
 824:C:/Users/stapi/OneDrive/Desktop/GD32VW553/GD32VW55X_Wifi_BLE_SDK/GD32VW55x_RELEASE_V1.0.2/MSDK/plf/GD32VW55x_standard_peripheral/Source\gd32vw55x_i2c.c ****       \arg        I2C_FLAG_OUERR: overrun/underrun error in slave mode
 825:C:/Users/stapi/OneDrive/Desktop/GD32VW553/GD32VW55X_Wifi_BLE_SDK/GD32VW55x_RELEASE_V1.0.2/MSDK/plf/GD32VW55x_standard_peripheral/Source\gd32vw55x_i2c.c ****       \arg        I2C_FLAG_PECERR: PEC error
 826:C:/Users/stapi/OneDrive/Desktop/GD32VW553/GD32VW55X_Wifi_BLE_SDK/GD32VW55x_RELEASE_V1.0.2/MSDK/plf/GD32VW55x_standard_peripheral/Source\gd32vw55x_i2c.c ****       \arg        I2C_FLAG_TIMEOUT: timeout flag
 827:C:/Users/stapi/OneDrive/Desktop/GD32VW553/GD32VW55X_Wifi_BLE_SDK/GD32VW55x_RELEASE_V1.0.2/MSDK/plf/GD32VW55x_standard_peripheral/Source\gd32vw55x_i2c.c ****       \arg        I2C_FLAG_SMBALT: SMBus alert
 828:C:/Users/stapi/OneDrive/Desktop/GD32VW553/GD32VW55X_Wifi_BLE_SDK/GD32VW55x_RELEASE_V1.0.2/MSDK/plf/GD32VW55x_standard_peripheral/Source\gd32vw55x_i2c.c ****       \arg        I2C_FLAG_I2CBSY: busy flag
 829:C:/Users/stapi/OneDrive/Desktop/GD32VW553/GD32VW55X_Wifi_BLE_SDK/GD32VW55x_RELEASE_V1.0.2/MSDK/plf/GD32VW55x_standard_peripheral/Source\gd32vw55x_i2c.c ****       \arg        I2C_FLAG_TR: whether the I2C is a transmitter or a receiver in slave mode
 830:C:/Users/stapi/OneDrive/Desktop/GD32VW553/GD32VW55X_Wifi_BLE_SDK/GD32VW55x_RELEASE_V1.0.2/MSDK/plf/GD32VW55x_standard_peripheral/Source\gd32vw55x_i2c.c ****     \param[out] none
 831:C:/Users/stapi/OneDrive/Desktop/GD32VW553/GD32VW55X_Wifi_BLE_SDK/GD32VW55x_RELEASE_V1.0.2/MSDK/plf/GD32VW55x_standard_peripheral/Source\gd32vw55x_i2c.c ****     \retval     FlagStatus: SET or RESET
 832:C:/Users/stapi/OneDrive/Desktop/GD32VW553/GD32VW55X_Wifi_BLE_SDK/GD32VW55x_RELEASE_V1.0.2/MSDK/plf/GD32VW55x_standard_peripheral/Source\gd32vw55x_i2c.c **** */
 833:C:/Users/stapi/OneDrive/Desktop/GD32VW553/GD32VW55X_Wifi_BLE_SDK/GD32VW55x_RELEASE_V1.0.2/MSDK/plf/GD32VW55x_standard_peripheral/Source\gd32vw55x_i2c.c **** FlagStatus i2c_flag_get(uint32_t i2c_periph, uint32_t flag)
 834:C:/Users/stapi/OneDrive/Desktop/GD32VW553/GD32VW55X_Wifi_BLE_SDK/GD32VW55x_RELEASE_V1.0.2/MSDK/plf/GD32VW55x_standard_peripheral/Source\gd32vw55x_i2c.c **** {
 1352              		.loc 1 834 1 is_stmt 1
 1353              		.cfi_startproc
 1354              	.LVL89:
 835:C:/Users/stapi/OneDrive/Desktop/GD32VW553/GD32VW55X_Wifi_BLE_SDK/GD32VW55x_RELEASE_V1.0.2/MSDK/plf/GD32VW55x_standard_peripheral/Source\gd32vw55x_i2c.c ****     if(RESET != (I2C_STAT(i2c_periph) & flag)){
 1355              		.loc 1 835 5
 1356              		.loc 1 835 18 is_stmt 0
 1357 0000 084D     		lw	a0,24(a0)
 1358              	.LVL90:
 1359              		.loc 1 835 39
 1360 0002 6D8D     		and	a0,a0,a1
 836:C:/Users/stapi/OneDrive/Desktop/GD32VW553/GD32VW55X_Wifi_BLE_SDK/GD32VW55x_RELEASE_V1.0.2/MSDK/plf/GD32VW55x_standard_peripheral/Source\gd32vw55x_i2c.c ****         return SET;
 837:C:/Users/stapi/OneDrive/Desktop/GD32VW553/GD32VW55X_Wifi_BLE_SDK/GD32VW55x_RELEASE_V1.0.2/MSDK/plf/GD32VW55x_standard_peripheral/Source\gd32vw55x_i2c.c ****     }else{
 838:C:/Users/stapi/OneDrive/Desktop/GD32VW553/GD32VW55X_Wifi_BLE_SDK/GD32VW55x_RELEASE_V1.0.2/MSDK/plf/GD32VW55x_standard_peripheral/Source\gd32vw55x_i2c.c ****         return RESET;
 839:C:/Users/stapi/OneDrive/Desktop/GD32VW553/GD32VW55X_Wifi_BLE_SDK/GD32VW55x_RELEASE_V1.0.2/MSDK/plf/GD32VW55x_standard_peripheral/Source\gd32vw55x_i2c.c ****     }
 840:C:/Users/stapi/OneDrive/Desktop/GD32VW553/GD32VW55X_Wifi_BLE_SDK/GD32VW55x_RELEASE_V1.0.2/MSDK/plf/GD32VW55x_standard_peripheral/Source\gd32vw55x_i2c.c **** }
 1361              		.loc 1 840 1
 1362 0004 3335A000 		snez	a0,a0
 1363 0008 8280     		ret
 1364              		.cfi_endproc
 1365              	.LFE422:
 1367              		.section	.text.i2c_flag_clear,"ax",@progbits
 1368              		.align	1
 1369              		.globl	i2c_flag_clear
 1371              	i2c_flag_clear:
 1372              	.LFB423:
 841:C:/Users/stapi/OneDrive/Desktop/GD32VW553/GD32VW55X_Wifi_BLE_SDK/GD32VW55x_RELEASE_V1.0.2/MSDK/plf/GD32VW55x_standard_peripheral/Source\gd32vw55x_i2c.c **** 
 842:C:/Users/stapi/OneDrive/Desktop/GD32VW553/GD32VW55X_Wifi_BLE_SDK/GD32VW55x_RELEASE_V1.0.2/MSDK/plf/GD32VW55x_standard_peripheral/Source\gd32vw55x_i2c.c **** /*!
 843:C:/Users/stapi/OneDrive/Desktop/GD32VW553/GD32VW55X_Wifi_BLE_SDK/GD32VW55x_RELEASE_V1.0.2/MSDK/plf/GD32VW55x_standard_peripheral/Source\gd32vw55x_i2c.c ****     \brief      clear I2C flag status
 844:C:/Users/stapi/OneDrive/Desktop/GD32VW553/GD32VW55X_Wifi_BLE_SDK/GD32VW55x_RELEASE_V1.0.2/MSDK/plf/GD32VW55x_standard_peripheral/Source\gd32vw55x_i2c.c ****     \param[in]  i2c_periph: I2Cx(x=0,1)
 845:C:/Users/stapi/OneDrive/Desktop/GD32VW553/GD32VW55X_Wifi_BLE_SDK/GD32VW55x_RELEASE_V1.0.2/MSDK/plf/GD32VW55x_standard_peripheral/Source\gd32vw55x_i2c.c ****     \param[in]  flag: I2C flags
 846:C:/Users/stapi/OneDrive/Desktop/GD32VW553/GD32VW55X_Wifi_BLE_SDK/GD32VW55x_RELEASE_V1.0.2/MSDK/plf/GD32VW55x_standard_peripheral/Source\gd32vw55x_i2c.c ****                 one or more parameters can be selected which are shown as below:
 847:C:/Users/stapi/OneDrive/Desktop/GD32VW553/GD32VW55X_Wifi_BLE_SDK/GD32VW55x_RELEASE_V1.0.2/MSDK/plf/GD32VW55x_standard_peripheral/Source\gd32vw55x_i2c.c ****       \arg        I2C_FLAG_ADDSEND: address received matches in slave mode
 848:C:/Users/stapi/OneDrive/Desktop/GD32VW553/GD32VW55X_Wifi_BLE_SDK/GD32VW55x_RELEASE_V1.0.2/MSDK/plf/GD32VW55x_standard_peripheral/Source\gd32vw55x_i2c.c ****       \arg        I2C_FLAG_NACK: not acknowledge flag
 849:C:/Users/stapi/OneDrive/Desktop/GD32VW553/GD32VW55X_Wifi_BLE_SDK/GD32VW55x_RELEASE_V1.0.2/MSDK/plf/GD32VW55x_standard_peripheral/Source\gd32vw55x_i2c.c ****       \arg        I2C_FLAG_STPDET: STOP condition detected in slave mode
 850:C:/Users/stapi/OneDrive/Desktop/GD32VW553/GD32VW55X_Wifi_BLE_SDK/GD32VW55x_RELEASE_V1.0.2/MSDK/plf/GD32VW55x_standard_peripheral/Source\gd32vw55x_i2c.c ****       \arg        I2C_FLAG_BERR: bus error
 851:C:/Users/stapi/OneDrive/Desktop/GD32VW553/GD32VW55X_Wifi_BLE_SDK/GD32VW55x_RELEASE_V1.0.2/MSDK/plf/GD32VW55x_standard_peripheral/Source\gd32vw55x_i2c.c ****       \arg        I2C_FLAG_LOSTARB: arbitration Lost
 852:C:/Users/stapi/OneDrive/Desktop/GD32VW553/GD32VW55X_Wifi_BLE_SDK/GD32VW55x_RELEASE_V1.0.2/MSDK/plf/GD32VW55x_standard_peripheral/Source\gd32vw55x_i2c.c ****       \arg        I2C_FLAG_OUERR: overrun/underrun error in slave mode
 853:C:/Users/stapi/OneDrive/Desktop/GD32VW553/GD32VW55X_Wifi_BLE_SDK/GD32VW55x_RELEASE_V1.0.2/MSDK/plf/GD32VW55x_standard_peripheral/Source\gd32vw55x_i2c.c ****       \arg        I2C_FLAG_PECERR: PEC error
 854:C:/Users/stapi/OneDrive/Desktop/GD32VW553/GD32VW55X_Wifi_BLE_SDK/GD32VW55x_RELEASE_V1.0.2/MSDK/plf/GD32VW55x_standard_peripheral/Source\gd32vw55x_i2c.c ****       \arg        I2C_FLAG_TIMEOUT: timeout flag
 855:C:/Users/stapi/OneDrive/Desktop/GD32VW553/GD32VW55X_Wifi_BLE_SDK/GD32VW55x_RELEASE_V1.0.2/MSDK/plf/GD32VW55x_standard_peripheral/Source\gd32vw55x_i2c.c ****       \arg        I2C_FLAG_SMBALT: SMBus alert
 856:C:/Users/stapi/OneDrive/Desktop/GD32VW553/GD32VW55X_Wifi_BLE_SDK/GD32VW55x_RELEASE_V1.0.2/MSDK/plf/GD32VW55x_standard_peripheral/Source\gd32vw55x_i2c.c ****     \param[out] none
 857:C:/Users/stapi/OneDrive/Desktop/GD32VW553/GD32VW55X_Wifi_BLE_SDK/GD32VW55x_RELEASE_V1.0.2/MSDK/plf/GD32VW55x_standard_peripheral/Source\gd32vw55x_i2c.c ****     \retval     none
 858:C:/Users/stapi/OneDrive/Desktop/GD32VW553/GD32VW55X_Wifi_BLE_SDK/GD32VW55x_RELEASE_V1.0.2/MSDK/plf/GD32VW55x_standard_peripheral/Source\gd32vw55x_i2c.c **** */
 859:C:/Users/stapi/OneDrive/Desktop/GD32VW553/GD32VW55X_Wifi_BLE_SDK/GD32VW55x_RELEASE_V1.0.2/MSDK/plf/GD32VW55x_standard_peripheral/Source\gd32vw55x_i2c.c **** void i2c_flag_clear(uint32_t i2c_periph, uint32_t flag)
 860:C:/Users/stapi/OneDrive/Desktop/GD32VW553/GD32VW55X_Wifi_BLE_SDK/GD32VW55x_RELEASE_V1.0.2/MSDK/plf/GD32VW55x_standard_peripheral/Source\gd32vw55x_i2c.c **** {
 1373              		.loc 1 860 1 is_stmt 1
 1374              		.cfi_startproc
 1375              	.LVL91:
 861:C:/Users/stapi/OneDrive/Desktop/GD32VW553/GD32VW55X_Wifi_BLE_SDK/GD32VW55x_RELEASE_V1.0.2/MSDK/plf/GD32VW55x_standard_peripheral/Source\gd32vw55x_i2c.c ****     I2C_STATC(i2c_periph) |= flag;
 1376              		.loc 1 861 5
 1377              		.loc 1 861 27 is_stmt 0
 1378 0000 5C4D     		lw	a5,28(a0)
 1379 0002 CD8F     		or	a5,a5,a1
 1380 0004 5CCD     		sw	a5,28(a0)
 862:C:/Users/stapi/OneDrive/Desktop/GD32VW553/GD32VW55X_Wifi_BLE_SDK/GD32VW55x_RELEASE_V1.0.2/MSDK/plf/GD32VW55x_standard_peripheral/Source\gd32vw55x_i2c.c **** }
 1381              		.loc 1 862 1
 1382 0006 8280     		ret
 1383              		.cfi_endproc
 1384              	.LFE423:
 1386              		.section	.text.i2c_interrupt_enable,"ax",@progbits
 1387              		.align	1
 1388              		.globl	i2c_interrupt_enable
 1390              	i2c_interrupt_enable:
 1391              	.LFB424:
 863:C:/Users/stapi/OneDrive/Desktop/GD32VW553/GD32VW55X_Wifi_BLE_SDK/GD32VW55x_RELEASE_V1.0.2/MSDK/plf/GD32VW55x_standard_peripheral/Source\gd32vw55x_i2c.c **** 
 864:C:/Users/stapi/OneDrive/Desktop/GD32VW553/GD32VW55X_Wifi_BLE_SDK/GD32VW55x_RELEASE_V1.0.2/MSDK/plf/GD32VW55x_standard_peripheral/Source\gd32vw55x_i2c.c **** /*!
 865:C:/Users/stapi/OneDrive/Desktop/GD32VW553/GD32VW55X_Wifi_BLE_SDK/GD32VW55x_RELEASE_V1.0.2/MSDK/plf/GD32VW55x_standard_peripheral/Source\gd32vw55x_i2c.c ****     \brief      enable I2C interrupt
 866:C:/Users/stapi/OneDrive/Desktop/GD32VW553/GD32VW55X_Wifi_BLE_SDK/GD32VW55x_RELEASE_V1.0.2/MSDK/plf/GD32VW55x_standard_peripheral/Source\gd32vw55x_i2c.c ****     \param[in]  i2c_periph: I2Cx(x=0,1)
 867:C:/Users/stapi/OneDrive/Desktop/GD32VW553/GD32VW55X_Wifi_BLE_SDK/GD32VW55x_RELEASE_V1.0.2/MSDK/plf/GD32VW55x_standard_peripheral/Source\gd32vw55x_i2c.c ****     \param[in]  interrupt: I2C interrupts
 868:C:/Users/stapi/OneDrive/Desktop/GD32VW553/GD32VW55X_Wifi_BLE_SDK/GD32VW55x_RELEASE_V1.0.2/MSDK/plf/GD32VW55x_standard_peripheral/Source\gd32vw55x_i2c.c ****                 one or more parameters can be selected which are shown as below:
 869:C:/Users/stapi/OneDrive/Desktop/GD32VW553/GD32VW55X_Wifi_BLE_SDK/GD32VW55x_RELEASE_V1.0.2/MSDK/plf/GD32VW55x_standard_peripheral/Source\gd32vw55x_i2c.c ****       \arg        I2C_INT_ERR: error interrupt
 870:C:/Users/stapi/OneDrive/Desktop/GD32VW553/GD32VW55X_Wifi_BLE_SDK/GD32VW55x_RELEASE_V1.0.2/MSDK/plf/GD32VW55x_standard_peripheral/Source\gd32vw55x_i2c.c ****       \arg        I2C_INT_TC: transfer complete interrupt
 871:C:/Users/stapi/OneDrive/Desktop/GD32VW553/GD32VW55X_Wifi_BLE_SDK/GD32VW55x_RELEASE_V1.0.2/MSDK/plf/GD32VW55x_standard_peripheral/Source\gd32vw55x_i2c.c ****       \arg        I2C_INT_STPDET: stop detection interrupt
 872:C:/Users/stapi/OneDrive/Desktop/GD32VW553/GD32VW55X_Wifi_BLE_SDK/GD32VW55x_RELEASE_V1.0.2/MSDK/plf/GD32VW55x_standard_peripheral/Source\gd32vw55x_i2c.c ****       \arg        I2C_INT_NACK: not acknowledge received interrupt
 873:C:/Users/stapi/OneDrive/Desktop/GD32VW553/GD32VW55X_Wifi_BLE_SDK/GD32VW55x_RELEASE_V1.0.2/MSDK/plf/GD32VW55x_standard_peripheral/Source\gd32vw55x_i2c.c ****       \arg        I2C_INT_ADDM: address match interrupt
 874:C:/Users/stapi/OneDrive/Desktop/GD32VW553/GD32VW55X_Wifi_BLE_SDK/GD32VW55x_RELEASE_V1.0.2/MSDK/plf/GD32VW55x_standard_peripheral/Source\gd32vw55x_i2c.c ****       \arg        I2C_INT_RBNE: receive interrupt
 875:C:/Users/stapi/OneDrive/Desktop/GD32VW553/GD32VW55X_Wifi_BLE_SDK/GD32VW55x_RELEASE_V1.0.2/MSDK/plf/GD32VW55x_standard_peripheral/Source\gd32vw55x_i2c.c ****       \arg        I2C_INT_TI: transmit interrupt
 876:C:/Users/stapi/OneDrive/Desktop/GD32VW553/GD32VW55X_Wifi_BLE_SDK/GD32VW55x_RELEASE_V1.0.2/MSDK/plf/GD32VW55x_standard_peripheral/Source\gd32vw55x_i2c.c ****     \param[out] none
 877:C:/Users/stapi/OneDrive/Desktop/GD32VW553/GD32VW55X_Wifi_BLE_SDK/GD32VW55x_RELEASE_V1.0.2/MSDK/plf/GD32VW55x_standard_peripheral/Source\gd32vw55x_i2c.c ****     \retval     none
 878:C:/Users/stapi/OneDrive/Desktop/GD32VW553/GD32VW55X_Wifi_BLE_SDK/GD32VW55x_RELEASE_V1.0.2/MSDK/plf/GD32VW55x_standard_peripheral/Source\gd32vw55x_i2c.c **** */
 879:C:/Users/stapi/OneDrive/Desktop/GD32VW553/GD32VW55X_Wifi_BLE_SDK/GD32VW55x_RELEASE_V1.0.2/MSDK/plf/GD32VW55x_standard_peripheral/Source\gd32vw55x_i2c.c **** void i2c_interrupt_enable(uint32_t i2c_periph, uint32_t interrupt)
 880:C:/Users/stapi/OneDrive/Desktop/GD32VW553/GD32VW55X_Wifi_BLE_SDK/GD32VW55x_RELEASE_V1.0.2/MSDK/plf/GD32VW55x_standard_peripheral/Source\gd32vw55x_i2c.c **** {
 1392              		.loc 1 880 1 is_stmt 1
 1393              		.cfi_startproc
 1394              	.LVL92:
 881:C:/Users/stapi/OneDrive/Desktop/GD32VW553/GD32VW55X_Wifi_BLE_SDK/GD32VW55x_RELEASE_V1.0.2/MSDK/plf/GD32VW55x_standard_peripheral/Source\gd32vw55x_i2c.c ****     I2C_CTL0(i2c_periph) |= interrupt;
 1395              		.loc 1 881 5
 1396              		.loc 1 881 26 is_stmt 0
 1397 0000 1C41     		lw	a5,0(a0)
 1398 0002 CD8F     		or	a5,a5,a1
 1399 0004 1CC1     		sw	a5,0(a0)
 882:C:/Users/stapi/OneDrive/Desktop/GD32VW553/GD32VW55X_Wifi_BLE_SDK/GD32VW55x_RELEASE_V1.0.2/MSDK/plf/GD32VW55x_standard_peripheral/Source\gd32vw55x_i2c.c **** }
 1400              		.loc 1 882 1
 1401 0006 8280     		ret
 1402              		.cfi_endproc
 1403              	.LFE424:
 1405              		.section	.text.i2c_interrupt_disable,"ax",@progbits
 1406              		.align	1
 1407              		.globl	i2c_interrupt_disable
 1409              	i2c_interrupt_disable:
 1410              	.LFB425:
 883:C:/Users/stapi/OneDrive/Desktop/GD32VW553/GD32VW55X_Wifi_BLE_SDK/GD32VW55x_RELEASE_V1.0.2/MSDK/plf/GD32VW55x_standard_peripheral/Source\gd32vw55x_i2c.c **** 
 884:C:/Users/stapi/OneDrive/Desktop/GD32VW553/GD32VW55X_Wifi_BLE_SDK/GD32VW55x_RELEASE_V1.0.2/MSDK/plf/GD32VW55x_standard_peripheral/Source\gd32vw55x_i2c.c **** /*!
 885:C:/Users/stapi/OneDrive/Desktop/GD32VW553/GD32VW55X_Wifi_BLE_SDK/GD32VW55x_RELEASE_V1.0.2/MSDK/plf/GD32VW55x_standard_peripheral/Source\gd32vw55x_i2c.c ****     \brief      disable I2C interrupt
 886:C:/Users/stapi/OneDrive/Desktop/GD32VW553/GD32VW55X_Wifi_BLE_SDK/GD32VW55x_RELEASE_V1.0.2/MSDK/plf/GD32VW55x_standard_peripheral/Source\gd32vw55x_i2c.c ****     \param[in]  i2c_periph: I2Cx(x=0,1)
 887:C:/Users/stapi/OneDrive/Desktop/GD32VW553/GD32VW55X_Wifi_BLE_SDK/GD32VW55x_RELEASE_V1.0.2/MSDK/plf/GD32VW55x_standard_peripheral/Source\gd32vw55x_i2c.c ****     \param[in]  interrupt: I2C interrupts
 888:C:/Users/stapi/OneDrive/Desktop/GD32VW553/GD32VW55X_Wifi_BLE_SDK/GD32VW55x_RELEASE_V1.0.2/MSDK/plf/GD32VW55x_standard_peripheral/Source\gd32vw55x_i2c.c ****                 one or more parameters can be selected which are shown as below:
 889:C:/Users/stapi/OneDrive/Desktop/GD32VW553/GD32VW55X_Wifi_BLE_SDK/GD32VW55x_RELEASE_V1.0.2/MSDK/plf/GD32VW55x_standard_peripheral/Source\gd32vw55x_i2c.c ****       \arg        I2C_INT_ERR: error interrupt
 890:C:/Users/stapi/OneDrive/Desktop/GD32VW553/GD32VW55X_Wifi_BLE_SDK/GD32VW55x_RELEASE_V1.0.2/MSDK/plf/GD32VW55x_standard_peripheral/Source\gd32vw55x_i2c.c ****       \arg        I2C_INT_TC: transfer complete interrupt
 891:C:/Users/stapi/OneDrive/Desktop/GD32VW553/GD32VW55X_Wifi_BLE_SDK/GD32VW55x_RELEASE_V1.0.2/MSDK/plf/GD32VW55x_standard_peripheral/Source\gd32vw55x_i2c.c ****       \arg        I2C_INT_STPDET: stop detection interrupt
 892:C:/Users/stapi/OneDrive/Desktop/GD32VW553/GD32VW55X_Wifi_BLE_SDK/GD32VW55x_RELEASE_V1.0.2/MSDK/plf/GD32VW55x_standard_peripheral/Source\gd32vw55x_i2c.c ****       \arg        I2C_INT_NACK: not acknowledge received interrupt
 893:C:/Users/stapi/OneDrive/Desktop/GD32VW553/GD32VW55X_Wifi_BLE_SDK/GD32VW55x_RELEASE_V1.0.2/MSDK/plf/GD32VW55x_standard_peripheral/Source\gd32vw55x_i2c.c ****       \arg        I2C_INT_ADDM: address match interrupt
 894:C:/Users/stapi/OneDrive/Desktop/GD32VW553/GD32VW55X_Wifi_BLE_SDK/GD32VW55x_RELEASE_V1.0.2/MSDK/plf/GD32VW55x_standard_peripheral/Source\gd32vw55x_i2c.c ****       \arg        I2C_INT_RBNE: receive interrupt
 895:C:/Users/stapi/OneDrive/Desktop/GD32VW553/GD32VW55X_Wifi_BLE_SDK/GD32VW55x_RELEASE_V1.0.2/MSDK/plf/GD32VW55x_standard_peripheral/Source\gd32vw55x_i2c.c ****       \arg        I2C_INT_TI: transmit interrupt
 896:C:/Users/stapi/OneDrive/Desktop/GD32VW553/GD32VW55X_Wifi_BLE_SDK/GD32VW55x_RELEASE_V1.0.2/MSDK/plf/GD32VW55x_standard_peripheral/Source\gd32vw55x_i2c.c ****     \param[out] none
 897:C:/Users/stapi/OneDrive/Desktop/GD32VW553/GD32VW55X_Wifi_BLE_SDK/GD32VW55x_RELEASE_V1.0.2/MSDK/plf/GD32VW55x_standard_peripheral/Source\gd32vw55x_i2c.c ****     \retval     none
 898:C:/Users/stapi/OneDrive/Desktop/GD32VW553/GD32VW55X_Wifi_BLE_SDK/GD32VW55x_RELEASE_V1.0.2/MSDK/plf/GD32VW55x_standard_peripheral/Source\gd32vw55x_i2c.c **** */
 899:C:/Users/stapi/OneDrive/Desktop/GD32VW553/GD32VW55X_Wifi_BLE_SDK/GD32VW55x_RELEASE_V1.0.2/MSDK/plf/GD32VW55x_standard_peripheral/Source\gd32vw55x_i2c.c **** void i2c_interrupt_disable(uint32_t i2c_periph, uint32_t interrupt)
 900:C:/Users/stapi/OneDrive/Desktop/GD32VW553/GD32VW55X_Wifi_BLE_SDK/GD32VW55x_RELEASE_V1.0.2/MSDK/plf/GD32VW55x_standard_peripheral/Source\gd32vw55x_i2c.c **** {
 1411              		.loc 1 900 1 is_stmt 1
 1412              		.cfi_startproc
 1413              	.LVL93:
 901:C:/Users/stapi/OneDrive/Desktop/GD32VW553/GD32VW55X_Wifi_BLE_SDK/GD32VW55x_RELEASE_V1.0.2/MSDK/plf/GD32VW55x_standard_peripheral/Source\gd32vw55x_i2c.c ****     I2C_CTL0(i2c_periph) &= ~interrupt;
 1414              		.loc 1 901 5
 1415              		.loc 1 901 26 is_stmt 0
 1416 0000 1C41     		lw	a5,0(a0)
 1417 0002 B3F5B740 		andn	a1,a5,a1
 1418              	.LVL94:
 1419 0006 0CC1     		sw	a1,0(a0)
 902:C:/Users/stapi/OneDrive/Desktop/GD32VW553/GD32VW55X_Wifi_BLE_SDK/GD32VW55x_RELEASE_V1.0.2/MSDK/plf/GD32VW55x_standard_peripheral/Source\gd32vw55x_i2c.c **** }
 1420              		.loc 1 902 1
 1421 0008 8280     		ret
 1422              		.cfi_endproc
 1423              	.LFE425:
 1425              		.section	.text.i2c_interrupt_flag_get,"ax",@progbits
 1426              		.align	1
 1427              		.globl	i2c_interrupt_flag_get
 1429              	i2c_interrupt_flag_get:
 1430              	.LFB426:
 903:C:/Users/stapi/OneDrive/Desktop/GD32VW553/GD32VW55X_Wifi_BLE_SDK/GD32VW55x_RELEASE_V1.0.2/MSDK/plf/GD32VW55x_standard_peripheral/Source\gd32vw55x_i2c.c **** 
 904:C:/Users/stapi/OneDrive/Desktop/GD32VW553/GD32VW55X_Wifi_BLE_SDK/GD32VW55x_RELEASE_V1.0.2/MSDK/plf/GD32VW55x_standard_peripheral/Source\gd32vw55x_i2c.c **** /*!
 905:C:/Users/stapi/OneDrive/Desktop/GD32VW553/GD32VW55X_Wifi_BLE_SDK/GD32VW55x_RELEASE_V1.0.2/MSDK/plf/GD32VW55x_standard_peripheral/Source\gd32vw55x_i2c.c ****     \brief      get I2C interrupt flag status
 906:C:/Users/stapi/OneDrive/Desktop/GD32VW553/GD32VW55X_Wifi_BLE_SDK/GD32VW55x_RELEASE_V1.0.2/MSDK/plf/GD32VW55x_standard_peripheral/Source\gd32vw55x_i2c.c ****     \param[in]  i2c_periph: I2Cx(x=0,1)
 907:C:/Users/stapi/OneDrive/Desktop/GD32VW553/GD32VW55X_Wifi_BLE_SDK/GD32VW55x_RELEASE_V1.0.2/MSDK/plf/GD32VW55x_standard_peripheral/Source\gd32vw55x_i2c.c ****     \param[in]  int_flag: I2C interrupt flags, refer to i2c_interrupt_flag_enum
 908:C:/Users/stapi/OneDrive/Desktop/GD32VW553/GD32VW55X_Wifi_BLE_SDK/GD32VW55x_RELEASE_V1.0.2/MSDK/plf/GD32VW55x_standard_peripheral/Source\gd32vw55x_i2c.c ****                 only one parameter can be selected which is shown as below:
 909:C:/Users/stapi/OneDrive/Desktop/GD32VW553/GD32VW55X_Wifi_BLE_SDK/GD32VW55x_RELEASE_V1.0.2/MSDK/plf/GD32VW55x_standard_peripheral/Source\gd32vw55x_i2c.c ****       \arg        I2C_INT_FLAG_TI: transmit interrupt flag
 910:C:/Users/stapi/OneDrive/Desktop/GD32VW553/GD32VW55X_Wifi_BLE_SDK/GD32VW55x_RELEASE_V1.0.2/MSDK/plf/GD32VW55x_standard_peripheral/Source\gd32vw55x_i2c.c ****       \arg        I2C_INT_FLAG_RBNE: I2C_RDATA is not empty during receiving interrupt flag
 911:C:/Users/stapi/OneDrive/Desktop/GD32VW553/GD32VW55X_Wifi_BLE_SDK/GD32VW55x_RELEASE_V1.0.2/MSDK/plf/GD32VW55x_standard_peripheral/Source\gd32vw55x_i2c.c ****       \arg        I2C_INT_FLAG_ADDSEND: address received matches in slave mode interrupt flag
 912:C:/Users/stapi/OneDrive/Desktop/GD32VW553/GD32VW55X_Wifi_BLE_SDK/GD32VW55x_RELEASE_V1.0.2/MSDK/plf/GD32VW55x_standard_peripheral/Source\gd32vw55x_i2c.c ****       \arg        I2C_INT_FLAG_NACK: not acknowledge interrupt flag
 913:C:/Users/stapi/OneDrive/Desktop/GD32VW553/GD32VW55X_Wifi_BLE_SDK/GD32VW55x_RELEASE_V1.0.2/MSDK/plf/GD32VW55x_standard_peripheral/Source\gd32vw55x_i2c.c ****       \arg        I2C_INT_FLAG_STPDET: stop condition detected in slave mode interrupt flag
 914:C:/Users/stapi/OneDrive/Desktop/GD32VW553/GD32VW55X_Wifi_BLE_SDK/GD32VW55x_RELEASE_V1.0.2/MSDK/plf/GD32VW55x_standard_peripheral/Source\gd32vw55x_i2c.c ****       \arg        I2C_INT_FLAG_TC: transfer complete in master mode interrupt flag
 915:C:/Users/stapi/OneDrive/Desktop/GD32VW553/GD32VW55X_Wifi_BLE_SDK/GD32VW55x_RELEASE_V1.0.2/MSDK/plf/GD32VW55x_standard_peripheral/Source\gd32vw55x_i2c.c ****       \arg        I2C_INT_FLAG_TCR: transfer complete reload interrupt flag
 916:C:/Users/stapi/OneDrive/Desktop/GD32VW553/GD32VW55X_Wifi_BLE_SDK/GD32VW55x_RELEASE_V1.0.2/MSDK/plf/GD32VW55x_standard_peripheral/Source\gd32vw55x_i2c.c ****       \arg        I2C_INT_FLAG_BERR: bus error interrupt flag
 917:C:/Users/stapi/OneDrive/Desktop/GD32VW553/GD32VW55X_Wifi_BLE_SDK/GD32VW55x_RELEASE_V1.0.2/MSDK/plf/GD32VW55x_standard_peripheral/Source\gd32vw55x_i2c.c ****       \arg        I2C_INT_FLAG_LOSTARB: arbitration lost interrupt flag
 918:C:/Users/stapi/OneDrive/Desktop/GD32VW553/GD32VW55X_Wifi_BLE_SDK/GD32VW55x_RELEASE_V1.0.2/MSDK/plf/GD32VW55x_standard_peripheral/Source\gd32vw55x_i2c.c ****       \arg        I2C_INT_FLAG_OUERR: overrun/underrun error in slave mode interrupt flag
 919:C:/Users/stapi/OneDrive/Desktop/GD32VW553/GD32VW55X_Wifi_BLE_SDK/GD32VW55x_RELEASE_V1.0.2/MSDK/plf/GD32VW55x_standard_peripheral/Source\gd32vw55x_i2c.c ****       \arg        I2C_INT_FLAG_PECERR: PEC error interrupt flag
 920:C:/Users/stapi/OneDrive/Desktop/GD32VW553/GD32VW55X_Wifi_BLE_SDK/GD32VW55x_RELEASE_V1.0.2/MSDK/plf/GD32VW55x_standard_peripheral/Source\gd32vw55x_i2c.c ****       \arg        I2C_INT_FLAG_TIMEOUT: timeout interrupt flag
 921:C:/Users/stapi/OneDrive/Desktop/GD32VW553/GD32VW55X_Wifi_BLE_SDK/GD32VW55x_RELEASE_V1.0.2/MSDK/plf/GD32VW55x_standard_peripheral/Source\gd32vw55x_i2c.c ****       \arg        I2C_INT_FLAG_SMBALT: SMBus Alert interrupt flag
 922:C:/Users/stapi/OneDrive/Desktop/GD32VW553/GD32VW55X_Wifi_BLE_SDK/GD32VW55x_RELEASE_V1.0.2/MSDK/plf/GD32VW55x_standard_peripheral/Source\gd32vw55x_i2c.c ****     \param[out] none
 923:C:/Users/stapi/OneDrive/Desktop/GD32VW553/GD32VW55X_Wifi_BLE_SDK/GD32VW55x_RELEASE_V1.0.2/MSDK/plf/GD32VW55x_standard_peripheral/Source\gd32vw55x_i2c.c ****     \retval     FlagStatus: SET or RESET
 924:C:/Users/stapi/OneDrive/Desktop/GD32VW553/GD32VW55X_Wifi_BLE_SDK/GD32VW55x_RELEASE_V1.0.2/MSDK/plf/GD32VW55x_standard_peripheral/Source\gd32vw55x_i2c.c **** */
 925:C:/Users/stapi/OneDrive/Desktop/GD32VW553/GD32VW55X_Wifi_BLE_SDK/GD32VW55x_RELEASE_V1.0.2/MSDK/plf/GD32VW55x_standard_peripheral/Source\gd32vw55x_i2c.c **** FlagStatus i2c_interrupt_flag_get(uint32_t i2c_periph, i2c_interrupt_flag_enum int_flag)
 926:C:/Users/stapi/OneDrive/Desktop/GD32VW553/GD32VW55X_Wifi_BLE_SDK/GD32VW55x_RELEASE_V1.0.2/MSDK/plf/GD32VW55x_standard_peripheral/Source\gd32vw55x_i2c.c **** {
 1431              		.loc 1 926 1 is_stmt 1
 1432              		.cfi_startproc
 1433              	.LVL95:
 927:C:/Users/stapi/OneDrive/Desktop/GD32VW553/GD32VW55X_Wifi_BLE_SDK/GD32VW55x_RELEASE_V1.0.2/MSDK/plf/GD32VW55x_standard_peripheral/Source\gd32vw55x_i2c.c ****     uint32_t ret1 = RESET;
 1434              		.loc 1 927 5
 928:C:/Users/stapi/OneDrive/Desktop/GD32VW553/GD32VW55X_Wifi_BLE_SDK/GD32VW55x_RELEASE_V1.0.2/MSDK/plf/GD32VW55x_standard_peripheral/Source\gd32vw55x_i2c.c ****     uint32_t ret2 = RESET;
 1435              		.loc 1 928 5
 929:C:/Users/stapi/OneDrive/Desktop/GD32VW553/GD32VW55X_Wifi_BLE_SDK/GD32VW55x_RELEASE_V1.0.2/MSDK/plf/GD32VW55x_standard_peripheral/Source\gd32vw55x_i2c.c **** 
 930:C:/Users/stapi/OneDrive/Desktop/GD32VW553/GD32VW55X_Wifi_BLE_SDK/GD32VW55x_RELEASE_V1.0.2/MSDK/plf/GD32VW55x_standard_peripheral/Source\gd32vw55x_i2c.c ****     /* get the status of interrupt enable bit */
 931:C:/Users/stapi/OneDrive/Desktop/GD32VW553/GD32VW55X_Wifi_BLE_SDK/GD32VW55x_RELEASE_V1.0.2/MSDK/plf/GD32VW55x_standard_peripheral/Source\gd32vw55x_i2c.c ****     ret1 = (I2C_REG_VAL(i2c_periph, int_flag) & BIT(I2C_BIT_POS(int_flag)));
 1436              		.loc 1 931 5
 1437              		.loc 1 931 13 is_stmt 0
 1438 0000 93D76500 		srli	a5,a1,6
 1439 0004 93F7F73F 		andi	a5,a5,1023
 1440 0008 AA97     		add	a5,a5,a0
 926:C:/Users/stapi/OneDrive/Desktop/GD32VW553/GD32VW55X_Wifi_BLE_SDK/GD32VW55x_RELEASE_V1.0.2/MSDK/plf/GD32VW55x_standard_peripheral/Source\gd32vw55x_i2c.c ****     uint32_t ret1 = RESET;
 1441              		.loc 1 926 1
 1442 000a 2A87     		mv	a4,a0
 1443              		.loc 1 931 13
 1444 000c 8843     		lw	a0,0(a5)
 1445              	.LVL96:
 1446              		.loc 1 931 49
 1447 000e B317B028 		bset	a5,x0,a1
 1448              		.loc 1 931 10
 1449 0012 7D8D     		and	a0,a5,a0
 1450              	.LVL97:
 932:C:/Users/stapi/OneDrive/Desktop/GD32VW553/GD32VW55X_Wifi_BLE_SDK/GD32VW55x_RELEASE_V1.0.2/MSDK/plf/GD32VW55x_standard_peripheral/Source\gd32vw55x_i2c.c ****     /* get the status of interrupt flag */
 933:C:/Users/stapi/OneDrive/Desktop/GD32VW553/GD32VW55X_Wifi_BLE_SDK/GD32VW55x_RELEASE_V1.0.2/MSDK/plf/GD32VW55x_standard_peripheral/Source\gd32vw55x_i2c.c ****     ret2 = (I2C_REG_VAL2(i2c_periph, int_flag) & BIT(I2C_BIT_POS2(int_flag)));
 1451              		.loc 1 933 5 is_stmt 1
 1452              		.loc 1 933 13 is_stmt 0
 1453 0014 93D76501 		srli	a5,a1,22
 1454 0018 3E97     		add	a4,a5,a4
 1455              	.LVL98:
 1456 001a 1C43     		lw	a5,0(a4)
 1457              	.LVL99:
 934:C:/Users/stapi/OneDrive/Desktop/GD32VW553/GD32VW55X_Wifi_BLE_SDK/GD32VW55x_RELEASE_V1.0.2/MSDK/plf/GD32VW55x_standard_peripheral/Source\gd32vw55x_i2c.c ****     if(ret1 && ret2){
 1458              		.loc 1 934 5 is_stmt 1
 1459              		.loc 1 934 7 is_stmt 0
 1460 001c 01C9     		beq	a0,zero,.L73
 933:C:/Users/stapi/OneDrive/Desktop/GD32VW553/GD32VW55X_Wifi_BLE_SDK/GD32VW55x_RELEASE_V1.0.2/MSDK/plf/GD32VW55x_standard_peripheral/Source\gd32vw55x_i2c.c ****     if(ret1 && ret2){
 1461              		.loc 1 933 50 discriminator 1
 1462 001e 13D50501 		srli	a0,a1,16
 1463              	.LVL100:
 1464 0022 3315A028 		bset	a0,x0,a0
 1465              	.LVL101:
 933:C:/Users/stapi/OneDrive/Desktop/GD32VW553/GD32VW55X_Wifi_BLE_SDK/GD32VW55x_RELEASE_V1.0.2/MSDK/plf/GD32VW55x_standard_peripheral/Source\gd32vw55x_i2c.c ****     if(ret1 && ret2){
 1466              		.loc 1 933 10 discriminator 1
 1467 0026 7D8D     		and	a0,a0,a5
 1468              		.loc 1 934 13 discriminator 1
 1469 0028 3335A000 		snez	a0,a0
 1470              	.L73:
 935:C:/Users/stapi/OneDrive/Desktop/GD32VW553/GD32VW55X_Wifi_BLE_SDK/GD32VW55x_RELEASE_V1.0.2/MSDK/plf/GD32VW55x_standard_peripheral/Source\gd32vw55x_i2c.c ****         return SET;
 936:C:/Users/stapi/OneDrive/Desktop/GD32VW553/GD32VW55X_Wifi_BLE_SDK/GD32VW55x_RELEASE_V1.0.2/MSDK/plf/GD32VW55x_standard_peripheral/Source\gd32vw55x_i2c.c ****     }else{
 937:C:/Users/stapi/OneDrive/Desktop/GD32VW553/GD32VW55X_Wifi_BLE_SDK/GD32VW55x_RELEASE_V1.0.2/MSDK/plf/GD32VW55x_standard_peripheral/Source\gd32vw55x_i2c.c ****         return RESET;
 938:C:/Users/stapi/OneDrive/Desktop/GD32VW553/GD32VW55X_Wifi_BLE_SDK/GD32VW55x_RELEASE_V1.0.2/MSDK/plf/GD32VW55x_standard_peripheral/Source\gd32vw55x_i2c.c ****     }
 939:C:/Users/stapi/OneDrive/Desktop/GD32VW553/GD32VW55X_Wifi_BLE_SDK/GD32VW55x_RELEASE_V1.0.2/MSDK/plf/GD32VW55x_standard_peripheral/Source\gd32vw55x_i2c.c **** }
 1471              		.loc 1 939 1
 1472 002c 8280     		ret
 1473              		.cfi_endproc
 1474              	.LFE426:
 1476              		.section	.text.i2c_interrupt_flag_clear,"ax",@progbits
 1477              		.align	1
 1478              		.globl	i2c_interrupt_flag_clear
 1480              	i2c_interrupt_flag_clear:
 1481              	.LFB427:
 940:C:/Users/stapi/OneDrive/Desktop/GD32VW553/GD32VW55X_Wifi_BLE_SDK/GD32VW55x_RELEASE_V1.0.2/MSDK/plf/GD32VW55x_standard_peripheral/Source\gd32vw55x_i2c.c **** 
 941:C:/Users/stapi/OneDrive/Desktop/GD32VW553/GD32VW55X_Wifi_BLE_SDK/GD32VW55x_RELEASE_V1.0.2/MSDK/plf/GD32VW55x_standard_peripheral/Source\gd32vw55x_i2c.c **** /*!
 942:C:/Users/stapi/OneDrive/Desktop/GD32VW553/GD32VW55X_Wifi_BLE_SDK/GD32VW55x_RELEASE_V1.0.2/MSDK/plf/GD32VW55x_standard_peripheral/Source\gd32vw55x_i2c.c ****     \brief      clear I2C interrupt flag status
 943:C:/Users/stapi/OneDrive/Desktop/GD32VW553/GD32VW55X_Wifi_BLE_SDK/GD32VW55x_RELEASE_V1.0.2/MSDK/plf/GD32VW55x_standard_peripheral/Source\gd32vw55x_i2c.c ****     \param[in]  i2c_periph: I2Cx(x=0,1)
 944:C:/Users/stapi/OneDrive/Desktop/GD32VW553/GD32VW55X_Wifi_BLE_SDK/GD32VW55x_RELEASE_V1.0.2/MSDK/plf/GD32VW55x_standard_peripheral/Source\gd32vw55x_i2c.c ****     \param[in]  int_flag: I2C interrupt flags, refer to i2c_interrupt_flag_enum
 945:C:/Users/stapi/OneDrive/Desktop/GD32VW553/GD32VW55X_Wifi_BLE_SDK/GD32VW55x_RELEASE_V1.0.2/MSDK/plf/GD32VW55x_standard_peripheral/Source\gd32vw55x_i2c.c ****                 only one parameter can be selected which is shown as below:
 946:C:/Users/stapi/OneDrive/Desktop/GD32VW553/GD32VW55X_Wifi_BLE_SDK/GD32VW55x_RELEASE_V1.0.2/MSDK/plf/GD32VW55x_standard_peripheral/Source\gd32vw55x_i2c.c ****       \arg        I2C_INT_FLAG_ADDSEND: address received matches in slave mode interrupt flag
 947:C:/Users/stapi/OneDrive/Desktop/GD32VW553/GD32VW55X_Wifi_BLE_SDK/GD32VW55x_RELEASE_V1.0.2/MSDK/plf/GD32VW55x_standard_peripheral/Source\gd32vw55x_i2c.c ****       \arg        I2C_INT_FLAG_NACK: not acknowledge interrupt flag
 948:C:/Users/stapi/OneDrive/Desktop/GD32VW553/GD32VW55X_Wifi_BLE_SDK/GD32VW55x_RELEASE_V1.0.2/MSDK/plf/GD32VW55x_standard_peripheral/Source\gd32vw55x_i2c.c ****       \arg        I2C_INT_FLAG_STPDET: stop condition detected in slave mode interrupt flag
 949:C:/Users/stapi/OneDrive/Desktop/GD32VW553/GD32VW55X_Wifi_BLE_SDK/GD32VW55x_RELEASE_V1.0.2/MSDK/plf/GD32VW55x_standard_peripheral/Source\gd32vw55x_i2c.c ****       \arg        I2C_INT_FLAG_BERR: bus error interrupt flag
 950:C:/Users/stapi/OneDrive/Desktop/GD32VW553/GD32VW55X_Wifi_BLE_SDK/GD32VW55x_RELEASE_V1.0.2/MSDK/plf/GD32VW55x_standard_peripheral/Source\gd32vw55x_i2c.c ****       \arg        I2C_INT_FLAG_LOSTARB: arbitration lost interrupt flag
 951:C:/Users/stapi/OneDrive/Desktop/GD32VW553/GD32VW55X_Wifi_BLE_SDK/GD32VW55x_RELEASE_V1.0.2/MSDK/plf/GD32VW55x_standard_peripheral/Source\gd32vw55x_i2c.c ****       \arg        I2C_INT_FLAG_OUERR: overrun/underrun error in slave mode interrupt flag
 952:C:/Users/stapi/OneDrive/Desktop/GD32VW553/GD32VW55X_Wifi_BLE_SDK/GD32VW55x_RELEASE_V1.0.2/MSDK/plf/GD32VW55x_standard_peripheral/Source\gd32vw55x_i2c.c ****       \arg        I2C_INT_FLAG_PECERR: PEC error interrupt flag
 953:C:/Users/stapi/OneDrive/Desktop/GD32VW553/GD32VW55X_Wifi_BLE_SDK/GD32VW55x_RELEASE_V1.0.2/MSDK/plf/GD32VW55x_standard_peripheral/Source\gd32vw55x_i2c.c ****       \arg        I2C_INT_FLAG_TIMEOUT: timeout interrupt flag
 954:C:/Users/stapi/OneDrive/Desktop/GD32VW553/GD32VW55X_Wifi_BLE_SDK/GD32VW55x_RELEASE_V1.0.2/MSDK/plf/GD32VW55x_standard_peripheral/Source\gd32vw55x_i2c.c ****       \arg        I2C_INT_FLAG_SMBALT: SMBus Alert interrupt flag
 955:C:/Users/stapi/OneDrive/Desktop/GD32VW553/GD32VW55X_Wifi_BLE_SDK/GD32VW55x_RELEASE_V1.0.2/MSDK/plf/GD32VW55x_standard_peripheral/Source\gd32vw55x_i2c.c ****     \param[out] none
 956:C:/Users/stapi/OneDrive/Desktop/GD32VW553/GD32VW55X_Wifi_BLE_SDK/GD32VW55x_RELEASE_V1.0.2/MSDK/plf/GD32VW55x_standard_peripheral/Source\gd32vw55x_i2c.c ****     \retval     none
 957:C:/Users/stapi/OneDrive/Desktop/GD32VW553/GD32VW55X_Wifi_BLE_SDK/GD32VW55x_RELEASE_V1.0.2/MSDK/plf/GD32VW55x_standard_peripheral/Source\gd32vw55x_i2c.c **** */
 958:C:/Users/stapi/OneDrive/Desktop/GD32VW553/GD32VW55X_Wifi_BLE_SDK/GD32VW55x_RELEASE_V1.0.2/MSDK/plf/GD32VW55x_standard_peripheral/Source\gd32vw55x_i2c.c **** void i2c_interrupt_flag_clear(uint32_t i2c_periph, i2c_interrupt_flag_enum int_flag)
 959:C:/Users/stapi/OneDrive/Desktop/GD32VW553/GD32VW55X_Wifi_BLE_SDK/GD32VW55x_RELEASE_V1.0.2/MSDK/plf/GD32VW55x_standard_peripheral/Source\gd32vw55x_i2c.c **** {
 1482              		.loc 1 959 1 is_stmt 1
 1483              		.cfi_startproc
 1484              	.LVL102:
 960:C:/Users/stapi/OneDrive/Desktop/GD32VW553/GD32VW55X_Wifi_BLE_SDK/GD32VW55x_RELEASE_V1.0.2/MSDK/plf/GD32VW55x_standard_peripheral/Source\gd32vw55x_i2c.c ****     I2C_STATC(i2c_periph) |= BIT(I2C_BIT_POS2(int_flag));
 1485              		.loc 1 960 5
 1486              		.loc 1 960 27 is_stmt 0
 1487 0000 5C4D     		lw	a5,28(a0)
 1488              		.loc 1 960 30
 1489 0002 C181     		srli	a1,a1,16
 1490              	.LVL103:
 1491              		.loc 1 960 27
 1492 0004 B397B728 		bset	a5,a5,a1
 1493 0008 5CCD     		sw	a5,28(a0)
 961:C:/Users/stapi/OneDrive/Desktop/GD32VW553/GD32VW55X_Wifi_BLE_SDK/GD32VW55x_RELEASE_V1.0.2/MSDK/plf/GD32VW55x_standard_peripheral/Source\gd32vw55x_i2c.c **** }
 1494              		.loc 1 961 1
 1495 000a 8280     		ret
 1496              		.cfi_endproc
 1497              	.LFE427:
 1499              		.text
 1500              	.Letext0:
 1501              		.file 2 "c:\\users\\stapi\\onedrive\\desktop\\gd32vw553\\embeddedbuilder_v1.4.7.26843\\tools\\nucl
 1502              		.file 3 "c:\\users\\stapi\\onedrive\\desktop\\gd32vw553\\embeddedbuilder_v1.4.7.26843\\tools\\nucl
 1503              		.file 4 "..\\..\\..\\..\\plf\\riscv\\gd32vw55x/gd32vw55x.h"
 1504              		.file 5 "..\\..\\..\\..\\plf\\GD32VW55x_standard_peripheral\\Include/gd32vw55x_rcu.h"
 1505              		.file 6 "..\\..\\..\\..\\plf\\GD32VW55x_standard_peripheral\\Include/gd32vw55x_i2c.h"
DEFINED SYMBOLS
                            *ABS*:0000000000000000 gd32vw55x_i2c.c
C:\Users\stapi\AppData\Local\Temp\ccQ89eao.s:13     .text.i2c_deinit:0000000000000000 i2c_deinit
C:\Users\stapi\AppData\Local\Temp\ccQ89eao.s:17     .text.i2c_deinit:0000000000000000 .L0 
C:\Users\stapi\AppData\Local\Temp\ccQ89eao.s:19     .text.i2c_deinit:0000000000000000 .L0 
C:\Users\stapi\AppData\Local\Temp\ccQ89eao.s:20     .text.i2c_deinit:0000000000000008 .L0 
C:\Users\stapi\AppData\Local\Temp\ccQ89eao.s:21     .text.i2c_deinit:0000000000000008 .L0 
C:\Users\stapi\AppData\Local\Temp\ccQ89eao.s:22     .text.i2c_deinit:0000000000000008 .L0 
C:\Users\stapi\AppData\Local\Temp\ccQ89eao.s:24     .text.i2c_deinit:0000000000000008 .L0 
C:\Users\stapi\AppData\Local\Temp\ccQ89eao.s:33     .text.i2c_deinit:0000000000000020 .L0 
C:\Users\stapi\AppData\Local\Temp\ccQ89eao.s:34     .text.i2c_deinit:0000000000000028 .L0 
C:\Users\stapi\AppData\Local\Temp\ccQ89eao.s:35     .text.i2c_deinit:0000000000000028 .L0 
C:\Users\stapi\AppData\Local\Temp\ccQ89eao.s:36     .text.i2c_deinit:0000000000000028 .L0 
C:\Users\stapi\AppData\Local\Temp\ccQ89eao.s:37     .text.i2c_deinit:0000000000000028 .L0 
C:\Users\stapi\AppData\Local\Temp\ccQ89eao.s:40     .text.i2c_deinit:0000000000000028 .L0 
C:\Users\stapi\AppData\Local\Temp\ccQ89eao.s:42     .text.i2c_deinit:0000000000000028 .L0 
C:\Users\stapi\AppData\Local\Temp\ccQ89eao.s:48     .text.i2c_deinit:0000000000000036 .L0 
C:\Users\stapi\AppData\Local\Temp\ccQ89eao.s:51     .text.i2c_deinit:000000000000003a .L0 
C:\Users\stapi\AppData\Local\Temp\ccQ89eao.s:54     .text.i2c_deinit:0000000000000042 .L0 
C:\Users\stapi\AppData\Local\Temp\ccQ89eao.s:55     .text.i2c_deinit:0000000000000042 .L0 
C:\Users\stapi\AppData\Local\Temp\ccQ89eao.s:59     .text.i2c_deinit:0000000000000044 .L0 
C:\Users\stapi\AppData\Local\Temp\ccQ89eao.s:65     .text.i2c_deinit:0000000000000052 .L0 
C:\Users\stapi\AppData\Local\Temp\ccQ89eao.s:67     .text.i2c_deinit:0000000000000058 .L0 
C:\Users\stapi\AppData\Local\Temp\ccQ89eao.s:74     .text.i2c_timing_config:0000000000000000 i2c_timing_config
C:\Users\stapi\AppData\Local\Temp\ccQ89eao.s:77     .text.i2c_timing_config:0000000000000000 .L0 
C:\Users\stapi\AppData\Local\Temp\ccQ89eao.s:79     .text.i2c_timing_config:0000000000000000 .L0 
C:\Users\stapi\AppData\Local\Temp\ccQ89eao.s:80     .text.i2c_timing_config:0000000000000000 .L0 
C:\Users\stapi\AppData\Local\Temp\ccQ89eao.s:81     .text.i2c_timing_config:0000000000000000 .L0 
C:\Users\stapi\AppData\Local\Temp\ccQ89eao.s:83     .text.i2c_timing_config:0000000000000002 .L0 
C:\Users\stapi\AppData\Local\Temp\ccQ89eao.s:86     .text.i2c_timing_config:0000000000000008 .L0 
C:\Users\stapi\AppData\Local\Temp\ccQ89eao.s:90     .text.i2c_timing_config:000000000000000e .L0 
C:\Users\stapi\AppData\Local\Temp\ccQ89eao.s:91     .text.i2c_timing_config:000000000000000e .L0 
C:\Users\stapi\AppData\Local\Temp\ccQ89eao.s:93     .text.i2c_timing_config:0000000000000010 .L0 
C:\Users\stapi\AppData\Local\Temp\ccQ89eao.s:96     .text.i2c_timing_config:0000000000000012 .L0 
C:\Users\stapi\AppData\Local\Temp\ccQ89eao.s:99     .text.i2c_timing_config:0000000000000014 .L0 
C:\Users\stapi\AppData\Local\Temp\ccQ89eao.s:102    .text.i2c_timing_config:0000000000000018 .L0 
C:\Users\stapi\AppData\Local\Temp\ccQ89eao.s:103    .text.i2c_timing_config:0000000000000018 .L0 
C:\Users\stapi\AppData\Local\Temp\ccQ89eao.s:110    .text.i2c_timing_config:0000000000000024 .L0 
C:\Users\stapi\AppData\Local\Temp\ccQ89eao.s:111    .text.i2c_timing_config:0000000000000024 .L0 
C:\Users\stapi\AppData\Local\Temp\ccQ89eao.s:112    .text.i2c_timing_config:0000000000000024 .L0 
C:\Users\stapi\AppData\Local\Temp\ccQ89eao.s:113    .text.i2c_timing_config:0000000000000024 .L0 
C:\Users\stapi\AppData\Local\Temp\ccQ89eao.s:114    .text.i2c_timing_config:0000000000000024 .L0 
C:\Users\stapi\AppData\Local\Temp\ccQ89eao.s:116    .text.i2c_timing_config:0000000000000028 .L0 
C:\Users\stapi\AppData\Local\Temp\ccQ89eao.s:118    .text.i2c_timing_config:000000000000002a .L0 
C:\Users\stapi\AppData\Local\Temp\ccQ89eao.s:121    .text.i2c_timing_config:000000000000002c .L0 
C:\Users\stapi\AppData\Local\Temp\ccQ89eao.s:124    .text.i2c_timing_config:000000000000002e .L0 
C:\Users\stapi\AppData\Local\Temp\ccQ89eao.s:126    .text.i2c_timing_config:0000000000000032 .L0 
C:\Users\stapi\AppData\Local\Temp\ccQ89eao.s:129    .text.i2c_timing_config:0000000000000034 .L0 
C:\Users\stapi\AppData\Local\Temp\ccQ89eao.s:132    .text.i2c_timing_config:0000000000000036 .L0 
C:\Users\stapi\AppData\Local\Temp\ccQ89eao.s:134    .text.i2c_timing_config:0000000000000038 .L0 
C:\Users\stapi\AppData\Local\Temp\ccQ89eao.s:137    .text.i2c_timing_config:000000000000003c .L0 
C:\Users\stapi\AppData\Local\Temp\ccQ89eao.s:138    .text.i2c_timing_config:000000000000003e .L0 
C:\Users\stapi\AppData\Local\Temp\ccQ89eao.s:145    .text.i2c_digital_noise_filter_config:0000000000000000 i2c_digital_noise_filter_config
C:\Users\stapi\AppData\Local\Temp\ccQ89eao.s:148    .text.i2c_digital_noise_filter_config:0000000000000000 .L0 
C:\Users\stapi\AppData\Local\Temp\ccQ89eao.s:150    .text.i2c_digital_noise_filter_config:0000000000000000 .L0 
C:\Users\stapi\AppData\Local\Temp\ccQ89eao.s:151    .text.i2c_digital_noise_filter_config:0000000000000000 .L0 
C:\Users\stapi\AppData\Local\Temp\ccQ89eao.s:152    .text.i2c_digital_noise_filter_config:0000000000000000 .L0 
C:\Users\stapi\AppData\Local\Temp\ccQ89eao.s:158    .text.i2c_digital_noise_filter_config:000000000000000c .L0 
C:\Users\stapi\AppData\Local\Temp\ccQ89eao.s:159    .text.i2c_digital_noise_filter_config:000000000000000c .L0 
C:\Users\stapi\AppData\Local\Temp\ccQ89eao.s:161    .text.i2c_digital_noise_filter_config:000000000000000e .L0 
C:\Users\stapi\AppData\Local\Temp\ccQ89eao.s:164    .text.i2c_digital_noise_filter_config:0000000000000010 .L0 
C:\Users\stapi\AppData\Local\Temp\ccQ89eao.s:167    .text.i2c_digital_noise_filter_config:0000000000000014 .L0 
C:\Users\stapi\AppData\Local\Temp\ccQ89eao.s:168    .text.i2c_digital_noise_filter_config:0000000000000016 .L0 
C:\Users\stapi\AppData\Local\Temp\ccQ89eao.s:175    .text.i2c_analog_noise_filter_enable:0000000000000000 i2c_analog_noise_filter_enable
C:\Users\stapi\AppData\Local\Temp\ccQ89eao.s:178    .text.i2c_analog_noise_filter_enable:0000000000000000 .L0 
C:\Users\stapi\AppData\Local\Temp\ccQ89eao.s:180    .text.i2c_analog_noise_filter_enable:0000000000000000 .L0 
C:\Users\stapi\AppData\Local\Temp\ccQ89eao.s:181    .text.i2c_analog_noise_filter_enable:0000000000000000 .L0 
C:\Users\stapi\AppData\Local\Temp\ccQ89eao.s:182    .text.i2c_analog_noise_filter_enable:0000000000000000 .L0 
C:\Users\stapi\AppData\Local\Temp\ccQ89eao.s:186    .text.i2c_analog_noise_filter_enable:0000000000000008 .L0 
C:\Users\stapi\AppData\Local\Temp\ccQ89eao.s:187    .text.i2c_analog_noise_filter_enable:000000000000000a .L0 
C:\Users\stapi\AppData\Local\Temp\ccQ89eao.s:194    .text.i2c_analog_noise_filter_disable:0000000000000000 i2c_analog_noise_filter_disable
C:\Users\stapi\AppData\Local\Temp\ccQ89eao.s:197    .text.i2c_analog_noise_filter_disable:0000000000000000 .L0 
C:\Users\stapi\AppData\Local\Temp\ccQ89eao.s:199    .text.i2c_analog_noise_filter_disable:0000000000000000 .L0 
C:\Users\stapi\AppData\Local\Temp\ccQ89eao.s:200    .text.i2c_analog_noise_filter_disable:0000000000000000 .L0 
C:\Users\stapi\AppData\Local\Temp\ccQ89eao.s:201    .text.i2c_analog_noise_filter_disable:0000000000000000 .L0 
C:\Users\stapi\AppData\Local\Temp\ccQ89eao.s:205    .text.i2c_analog_noise_filter_disable:0000000000000008 .L0 
C:\Users\stapi\AppData\Local\Temp\ccQ89eao.s:206    .text.i2c_analog_noise_filter_disable:000000000000000a .L0 
C:\Users\stapi\AppData\Local\Temp\ccQ89eao.s:213    .text.i2c_master_clock_config:0000000000000000 i2c_master_clock_config
C:\Users\stapi\AppData\Local\Temp\ccQ89eao.s:216    .text.i2c_master_clock_config:0000000000000000 .L0 
C:\Users\stapi\AppData\Local\Temp\ccQ89eao.s:218    .text.i2c_master_clock_config:0000000000000000 .L0 
C:\Users\stapi\AppData\Local\Temp\ccQ89eao.s:219    .text.i2c_master_clock_config:0000000000000000 .L0 
C:\Users\stapi\AppData\Local\Temp\ccQ89eao.s:220    .text.i2c_master_clock_config:0000000000000000 .L0 
C:\Users\stapi\AppData\Local\Temp\ccQ89eao.s:226    .text.i2c_master_clock_config:000000000000000c .L0 
C:\Users\stapi\AppData\Local\Temp\ccQ89eao.s:227    .text.i2c_master_clock_config:000000000000000c .L0 
C:\Users\stapi\AppData\Local\Temp\ccQ89eao.s:229    .text.i2c_master_clock_config:000000000000000e .L0 
C:\Users\stapi\AppData\Local\Temp\ccQ89eao.s:232    .text.i2c_master_clock_config:0000000000000010 .L0 
C:\Users\stapi\AppData\Local\Temp\ccQ89eao.s:235    .text.i2c_master_clock_config:0000000000000014 .L0 
C:\Users\stapi\AppData\Local\Temp\ccQ89eao.s:239    .text.i2c_master_clock_config:000000000000001a .L0 
C:\Users\stapi\AppData\Local\Temp\ccQ89eao.s:240    .text.i2c_master_clock_config:000000000000001a .L0 
C:\Users\stapi\AppData\Local\Temp\ccQ89eao.s:241    .text.i2c_master_clock_config:000000000000001a .L0 
C:\Users\stapi\AppData\Local\Temp\ccQ89eao.s:242    .text.i2c_master_clock_config:000000000000001a .L0 
C:\Users\stapi\AppData\Local\Temp\ccQ89eao.s:244    .text.i2c_master_clock_config:000000000000001c .L0 
C:\Users\stapi\AppData\Local\Temp\ccQ89eao.s:246    .text.i2c_master_clock_config:000000000000001e .L0 
C:\Users\stapi\AppData\Local\Temp\ccQ89eao.s:250    .text.i2c_master_clock_config:0000000000000022 .L0 
C:\Users\stapi\AppData\Local\Temp\ccQ89eao.s:252    .text.i2c_master_clock_config:0000000000000024 .L0 
C:\Users\stapi\AppData\Local\Temp\ccQ89eao.s:255    .text.i2c_master_clock_config:0000000000000028 .L0 
C:\Users\stapi\AppData\Local\Temp\ccQ89eao.s:256    .text.i2c_master_clock_config:000000000000002a .L0 
C:\Users\stapi\AppData\Local\Temp\ccQ89eao.s:263    .text.i2c_master_addressing:0000000000000000 i2c_master_addressing
C:\Users\stapi\AppData\Local\Temp\ccQ89eao.s:266    .text.i2c_master_addressing:0000000000000000 .L0 
C:\Users\stapi\AppData\Local\Temp\ccQ89eao.s:268    .text.i2c_master_addressing:0000000000000000 .L0 
C:\Users\stapi\AppData\Local\Temp\ccQ89eao.s:269    .text.i2c_master_addressing:0000000000000000 .L0 
C:\Users\stapi\AppData\Local\Temp\ccQ89eao.s:270    .text.i2c_master_addressing:0000000000000000 .L0 
C:\Users\stapi\AppData\Local\Temp\ccQ89eao.s:274    .text.i2c_master_addressing:0000000000000008 .L0 
C:\Users\stapi\AppData\Local\Temp\ccQ89eao.s:275    .text.i2c_master_addressing:0000000000000008 .L0 
C:\Users\stapi\AppData\Local\Temp\ccQ89eao.s:279    .text.i2c_master_addressing:000000000000000e .L0 
C:\Users\stapi\AppData\Local\Temp\ccQ89eao.s:280    .text.i2c_master_addressing:000000000000000e .L0 
C:\Users\stapi\AppData\Local\Temp\ccQ89eao.s:284    .text.i2c_master_addressing:0000000000000016 .L0 
C:\Users\stapi\AppData\Local\Temp\ccQ89eao.s:285    .text.i2c_master_addressing:0000000000000016 .L0 
C:\Users\stapi\AppData\Local\Temp\ccQ89eao.s:289    .text.i2c_master_addressing:000000000000001c .L0 
C:\Users\stapi\AppData\Local\Temp\ccQ89eao.s:290    .text.i2c_master_addressing:000000000000001e .L0 
C:\Users\stapi\AppData\Local\Temp\ccQ89eao.s:297    .text.i2c_address10_header_enable:0000000000000000 i2c_address10_header_enable
C:\Users\stapi\AppData\Local\Temp\ccQ89eao.s:300    .text.i2c_address10_header_enable:0000000000000000 .L0 
C:\Users\stapi\AppData\Local\Temp\ccQ89eao.s:302    .text.i2c_address10_header_enable:0000000000000000 .L0 
C:\Users\stapi\AppData\Local\Temp\ccQ89eao.s:303    .text.i2c_address10_header_enable:0000000000000000 .L0 
C:\Users\stapi\AppData\Local\Temp\ccQ89eao.s:304    .text.i2c_address10_header_enable:0000000000000000 .L0 
C:\Users\stapi\AppData\Local\Temp\ccQ89eao.s:308    .text.i2c_address10_header_enable:0000000000000008 .L0 
C:\Users\stapi\AppData\Local\Temp\ccQ89eao.s:309    .text.i2c_address10_header_enable:000000000000000a .L0 
C:\Users\stapi\AppData\Local\Temp\ccQ89eao.s:316    .text.i2c_address10_header_disable:0000000000000000 i2c_address10_header_disable
C:\Users\stapi\AppData\Local\Temp\ccQ89eao.s:319    .text.i2c_address10_header_disable:0000000000000000 .L0 
C:\Users\stapi\AppData\Local\Temp\ccQ89eao.s:321    .text.i2c_address10_header_disable:0000000000000000 .L0 
C:\Users\stapi\AppData\Local\Temp\ccQ89eao.s:322    .text.i2c_address10_header_disable:0000000000000000 .L0 
C:\Users\stapi\AppData\Local\Temp\ccQ89eao.s:323    .text.i2c_address10_header_disable:0000000000000000 .L0 
C:\Users\stapi\AppData\Local\Temp\ccQ89eao.s:327    .text.i2c_address10_header_disable:0000000000000008 .L0 
C:\Users\stapi\AppData\Local\Temp\ccQ89eao.s:328    .text.i2c_address10_header_disable:000000000000000a .L0 
C:\Users\stapi\AppData\Local\Temp\ccQ89eao.s:335    .text.i2c_address10_enable:0000000000000000 i2c_address10_enable
C:\Users\stapi\AppData\Local\Temp\ccQ89eao.s:338    .text.i2c_address10_enable:0000000000000000 .L0 
C:\Users\stapi\AppData\Local\Temp\ccQ89eao.s:340    .text.i2c_address10_enable:0000000000000000 .L0 
C:\Users\stapi\AppData\Local\Temp\ccQ89eao.s:341    .text.i2c_address10_enable:0000000000000000 .L0 
C:\Users\stapi\AppData\Local\Temp\ccQ89eao.s:342    .text.i2c_address10_enable:0000000000000000 .L0 
C:\Users\stapi\AppData\Local\Temp\ccQ89eao.s:346    .text.i2c_address10_enable:0000000000000008 .L0 
C:\Users\stapi\AppData\Local\Temp\ccQ89eao.s:347    .text.i2c_address10_enable:000000000000000a .L0 
C:\Users\stapi\AppData\Local\Temp\ccQ89eao.s:354    .text.i2c_address10_disable:0000000000000000 i2c_address10_disable
C:\Users\stapi\AppData\Local\Temp\ccQ89eao.s:357    .text.i2c_address10_disable:0000000000000000 .L0 
C:\Users\stapi\AppData\Local\Temp\ccQ89eao.s:359    .text.i2c_address10_disable:0000000000000000 .L0 
C:\Users\stapi\AppData\Local\Temp\ccQ89eao.s:360    .text.i2c_address10_disable:0000000000000000 .L0 
C:\Users\stapi\AppData\Local\Temp\ccQ89eao.s:361    .text.i2c_address10_disable:0000000000000000 .L0 
C:\Users\stapi\AppData\Local\Temp\ccQ89eao.s:365    .text.i2c_address10_disable:0000000000000008 .L0 
C:\Users\stapi\AppData\Local\Temp\ccQ89eao.s:366    .text.i2c_address10_disable:000000000000000a .L0 
C:\Users\stapi\AppData\Local\Temp\ccQ89eao.s:373    .text.i2c_automatic_end_enable:0000000000000000 i2c_automatic_end_enable
C:\Users\stapi\AppData\Local\Temp\ccQ89eao.s:376    .text.i2c_automatic_end_enable:0000000000000000 .L0 
C:\Users\stapi\AppData\Local\Temp\ccQ89eao.s:378    .text.i2c_automatic_end_enable:0000000000000000 .L0 
C:\Users\stapi\AppData\Local\Temp\ccQ89eao.s:379    .text.i2c_automatic_end_enable:0000000000000000 .L0 
C:\Users\stapi\AppData\Local\Temp\ccQ89eao.s:380    .text.i2c_automatic_end_enable:0000000000000000 .L0 
C:\Users\stapi\AppData\Local\Temp\ccQ89eao.s:384    .text.i2c_automatic_end_enable:0000000000000008 .L0 
C:\Users\stapi\AppData\Local\Temp\ccQ89eao.s:385    .text.i2c_automatic_end_enable:000000000000000a .L0 
C:\Users\stapi\AppData\Local\Temp\ccQ89eao.s:392    .text.i2c_automatic_end_disable:0000000000000000 i2c_automatic_end_disable
C:\Users\stapi\AppData\Local\Temp\ccQ89eao.s:395    .text.i2c_automatic_end_disable:0000000000000000 .L0 
C:\Users\stapi\AppData\Local\Temp\ccQ89eao.s:397    .text.i2c_automatic_end_disable:0000000000000000 .L0 
C:\Users\stapi\AppData\Local\Temp\ccQ89eao.s:398    .text.i2c_automatic_end_disable:0000000000000000 .L0 
C:\Users\stapi\AppData\Local\Temp\ccQ89eao.s:399    .text.i2c_automatic_end_disable:0000000000000000 .L0 
C:\Users\stapi\AppData\Local\Temp\ccQ89eao.s:403    .text.i2c_automatic_end_disable:0000000000000008 .L0 
C:\Users\stapi\AppData\Local\Temp\ccQ89eao.s:404    .text.i2c_automatic_end_disable:000000000000000a .L0 
C:\Users\stapi\AppData\Local\Temp\ccQ89eao.s:411    .text.i2c_slave_response_to_gcall_enable:0000000000000000 i2c_slave_response_to_gcall_enable
C:\Users\stapi\AppData\Local\Temp\ccQ89eao.s:414    .text.i2c_slave_response_to_gcall_enable:0000000000000000 .L0 
C:\Users\stapi\AppData\Local\Temp\ccQ89eao.s:416    .text.i2c_slave_response_to_gcall_enable:0000000000000000 .L0 
C:\Users\stapi\AppData\Local\Temp\ccQ89eao.s:417    .text.i2c_slave_response_to_gcall_enable:0000000000000000 .L0 
C:\Users\stapi\AppData\Local\Temp\ccQ89eao.s:418    .text.i2c_slave_response_to_gcall_enable:0000000000000000 .L0 
C:\Users\stapi\AppData\Local\Temp\ccQ89eao.s:422    .text.i2c_slave_response_to_gcall_enable:0000000000000008 .L0 
C:\Users\stapi\AppData\Local\Temp\ccQ89eao.s:423    .text.i2c_slave_response_to_gcall_enable:000000000000000a .L0 
C:\Users\stapi\AppData\Local\Temp\ccQ89eao.s:430    .text.i2c_slave_response_to_gcall_disable:0000000000000000 i2c_slave_response_to_gcall_disable
C:\Users\stapi\AppData\Local\Temp\ccQ89eao.s:433    .text.i2c_slave_response_to_gcall_disable:0000000000000000 .L0 
C:\Users\stapi\AppData\Local\Temp\ccQ89eao.s:435    .text.i2c_slave_response_to_gcall_disable:0000000000000000 .L0 
C:\Users\stapi\AppData\Local\Temp\ccQ89eao.s:436    .text.i2c_slave_response_to_gcall_disable:0000000000000000 .L0 
C:\Users\stapi\AppData\Local\Temp\ccQ89eao.s:437    .text.i2c_slave_response_to_gcall_disable:0000000000000000 .L0 
C:\Users\stapi\AppData\Local\Temp\ccQ89eao.s:441    .text.i2c_slave_response_to_gcall_disable:0000000000000008 .L0 
C:\Users\stapi\AppData\Local\Temp\ccQ89eao.s:442    .text.i2c_slave_response_to_gcall_disable:000000000000000a .L0 
C:\Users\stapi\AppData\Local\Temp\ccQ89eao.s:449    .text.i2c_stretch_scl_low_enable:0000000000000000 i2c_stretch_scl_low_enable
C:\Users\stapi\AppData\Local\Temp\ccQ89eao.s:452    .text.i2c_stretch_scl_low_enable:0000000000000000 .L0 
C:\Users\stapi\AppData\Local\Temp\ccQ89eao.s:454    .text.i2c_stretch_scl_low_enable:0000000000000000 .L0 
C:\Users\stapi\AppData\Local\Temp\ccQ89eao.s:455    .text.i2c_stretch_scl_low_enable:0000000000000000 .L0 
C:\Users\stapi\AppData\Local\Temp\ccQ89eao.s:456    .text.i2c_stretch_scl_low_enable:0000000000000000 .L0 
C:\Users\stapi\AppData\Local\Temp\ccQ89eao.s:460    .text.i2c_stretch_scl_low_enable:0000000000000008 .L0 
C:\Users\stapi\AppData\Local\Temp\ccQ89eao.s:461    .text.i2c_stretch_scl_low_enable:000000000000000a .L0 
C:\Users\stapi\AppData\Local\Temp\ccQ89eao.s:468    .text.i2c_stretch_scl_low_disable:0000000000000000 i2c_stretch_scl_low_disable
C:\Users\stapi\AppData\Local\Temp\ccQ89eao.s:471    .text.i2c_stretch_scl_low_disable:0000000000000000 .L0 
C:\Users\stapi\AppData\Local\Temp\ccQ89eao.s:473    .text.i2c_stretch_scl_low_disable:0000000000000000 .L0 
C:\Users\stapi\AppData\Local\Temp\ccQ89eao.s:474    .text.i2c_stretch_scl_low_disable:0000000000000000 .L0 
C:\Users\stapi\AppData\Local\Temp\ccQ89eao.s:475    .text.i2c_stretch_scl_low_disable:0000000000000000 .L0 
C:\Users\stapi\AppData\Local\Temp\ccQ89eao.s:479    .text.i2c_stretch_scl_low_disable:0000000000000008 .L0 
C:\Users\stapi\AppData\Local\Temp\ccQ89eao.s:480    .text.i2c_stretch_scl_low_disable:000000000000000a .L0 
C:\Users\stapi\AppData\Local\Temp\ccQ89eao.s:487    .text.i2c_address_config:0000000000000000 i2c_address_config
C:\Users\stapi\AppData\Local\Temp\ccQ89eao.s:490    .text.i2c_address_config:0000000000000000 .L0 
C:\Users\stapi\AppData\Local\Temp\ccQ89eao.s:492    .text.i2c_address_config:0000000000000000 .L0 
C:\Users\stapi\AppData\Local\Temp\ccQ89eao.s:493    .text.i2c_address_config:0000000000000000 .L0 
C:\Users\stapi\AppData\Local\Temp\ccQ89eao.s:494    .text.i2c_address_config:0000000000000000 .L0 
C:\Users\stapi\AppData\Local\Temp\ccQ89eao.s:495    .text.i2c_address_config:0000000000000000 .L0 
C:\Users\stapi\AppData\Local\Temp\ccQ89eao.s:498    .text.i2c_address_config:0000000000000004 .L0 
C:\Users\stapi\AppData\Local\Temp\ccQ89eao.s:501    .text.i2c_address_config:0000000000000006 .L0 
C:\Users\stapi\AppData\Local\Temp\ccQ89eao.s:503    .text.i2c_address_config:0000000000000008 .L0 
C:\Users\stapi\AppData\Local\Temp\ccQ89eao.s:504    .text.i2c_address_config:0000000000000008 .L0 
C:\Users\stapi\AppData\Local\Temp\ccQ89eao.s:508    .text.i2c_address_config:0000000000000010 .L0 
C:\Users\stapi\AppData\Local\Temp\ccQ89eao.s:509    .text.i2c_address_config:0000000000000012 .L0 
C:\Users\stapi\AppData\Local\Temp\ccQ89eao.s:516    .text.i2c_address_bit_compare_config:0000000000000000 i2c_address_bit_compare_config
C:\Users\stapi\AppData\Local\Temp\ccQ89eao.s:519    .text.i2c_address_bit_compare_config:0000000000000000 .L0 
C:\Users\stapi\AppData\Local\Temp\ccQ89eao.s:521    .text.i2c_address_bit_compare_config:0000000000000000 .L0 
C:\Users\stapi\AppData\Local\Temp\ccQ89eao.s:522    .text.i2c_address_bit_compare_config:0000000000000000 .L0 
C:\Users\stapi\AppData\Local\Temp\ccQ89eao.s:523    .text.i2c_address_bit_compare_config:0000000000000000 .L0 
C:\Users\stapi\AppData\Local\Temp\ccQ89eao.s:531    .text.i2c_address_bit_compare_config:0000000000000010 .L0 
C:\Users\stapi\AppData\Local\Temp\ccQ89eao.s:532    .text.i2c_address_bit_compare_config:0000000000000010 .L0 
C:\Users\stapi\AppData\Local\Temp\ccQ89eao.s:536    .text.i2c_address_bit_compare_config:0000000000000016 .L0 
C:\Users\stapi\AppData\Local\Temp\ccQ89eao.s:537    .text.i2c_address_bit_compare_config:0000000000000018 .L0 
C:\Users\stapi\AppData\Local\Temp\ccQ89eao.s:544    .text.i2c_address_disable:0000000000000000 i2c_address_disable
C:\Users\stapi\AppData\Local\Temp\ccQ89eao.s:547    .text.i2c_address_disable:0000000000000000 .L0 
C:\Users\stapi\AppData\Local\Temp\ccQ89eao.s:549    .text.i2c_address_disable:0000000000000000 .L0 
C:\Users\stapi\AppData\Local\Temp\ccQ89eao.s:550    .text.i2c_address_disable:0000000000000000 .L0 
C:\Users\stapi\AppData\Local\Temp\ccQ89eao.s:551    .text.i2c_address_disable:0000000000000000 .L0 
C:\Users\stapi\AppData\Local\Temp\ccQ89eao.s:555    .text.i2c_address_disable:0000000000000008 .L0 
C:\Users\stapi\AppData\Local\Temp\ccQ89eao.s:556    .text.i2c_address_disable:000000000000000a .L0 
C:\Users\stapi\AppData\Local\Temp\ccQ89eao.s:563    .text.i2c_second_address_config:0000000000000000 i2c_second_address_config
C:\Users\stapi\AppData\Local\Temp\ccQ89eao.s:566    .text.i2c_second_address_config:0000000000000000 .L0 
C:\Users\stapi\AppData\Local\Temp\ccQ89eao.s:568    .text.i2c_second_address_config:0000000000000000 .L0 
C:\Users\stapi\AppData\Local\Temp\ccQ89eao.s:569    .text.i2c_second_address_config:0000000000000000 .L0 
C:\Users\stapi\AppData\Local\Temp\ccQ89eao.s:570    .text.i2c_second_address_config:0000000000000000 .L0 
C:\Users\stapi\AppData\Local\Temp\ccQ89eao.s:571    .text.i2c_second_address_config:0000000000000000 .L0 
C:\Users\stapi\AppData\Local\Temp\ccQ89eao.s:573    .text.i2c_second_address_config:0000000000000002 .L0 
C:\Users\stapi\AppData\Local\Temp\ccQ89eao.s:576    .text.i2c_second_address_config:0000000000000006 .L0 
C:\Users\stapi\AppData\Local\Temp\ccQ89eao.s:579    .text.i2c_second_address_config:0000000000000008 .L0 
C:\Users\stapi\AppData\Local\Temp\ccQ89eao.s:583    .text.i2c_second_address_config:000000000000000c .L0 
C:\Users\stapi\AppData\Local\Temp\ccQ89eao.s:584    .text.i2c_second_address_config:000000000000000c .L0 
C:\Users\stapi\AppData\Local\Temp\ccQ89eao.s:588    .text.i2c_second_address_config:0000000000000014 .L0 
C:\Users\stapi\AppData\Local\Temp\ccQ89eao.s:589    .text.i2c_second_address_config:0000000000000014 .L0 
C:\Users\stapi\AppData\Local\Temp\ccQ89eao.s:593    .text.i2c_second_address_config:000000000000001a .L0 
C:\Users\stapi\AppData\Local\Temp\ccQ89eao.s:594    .text.i2c_second_address_config:000000000000001a .L0 
C:\Users\stapi\AppData\Local\Temp\ccQ89eao.s:598    .text.i2c_second_address_config:0000000000000022 .L0 
C:\Users\stapi\AppData\Local\Temp\ccQ89eao.s:599    .text.i2c_second_address_config:0000000000000024 .L0 
C:\Users\stapi\AppData\Local\Temp\ccQ89eao.s:606    .text.i2c_second_address_disable:0000000000000000 i2c_second_address_disable
C:\Users\stapi\AppData\Local\Temp\ccQ89eao.s:609    .text.i2c_second_address_disable:0000000000000000 .L0 
C:\Users\stapi\AppData\Local\Temp\ccQ89eao.s:611    .text.i2c_second_address_disable:0000000000000000 .L0 
C:\Users\stapi\AppData\Local\Temp\ccQ89eao.s:612    .text.i2c_second_address_disable:0000000000000000 .L0 
C:\Users\stapi\AppData\Local\Temp\ccQ89eao.s:613    .text.i2c_second_address_disable:0000000000000000 .L0 
C:\Users\stapi\AppData\Local\Temp\ccQ89eao.s:617    .text.i2c_second_address_disable:0000000000000008 .L0 
C:\Users\stapi\AppData\Local\Temp\ccQ89eao.s:618    .text.i2c_second_address_disable:000000000000000a .L0 
C:\Users\stapi\AppData\Local\Temp\ccQ89eao.s:625    .text.i2c_recevied_address_get:0000000000000000 i2c_recevied_address_get
C:\Users\stapi\AppData\Local\Temp\ccQ89eao.s:628    .text.i2c_recevied_address_get:0000000000000000 .L0 
C:\Users\stapi\AppData\Local\Temp\ccQ89eao.s:630    .text.i2c_recevied_address_get:0000000000000000 .L0 
C:\Users\stapi\AppData\Local\Temp\ccQ89eao.s:631    .text.i2c_recevied_address_get:0000000000000000 .L0 
C:\Users\stapi\AppData\Local\Temp\ccQ89eao.s:632    .text.i2c_recevied_address_get:0000000000000000 .L0 
C:\Users\stapi\AppData\Local\Temp\ccQ89eao.s:635    .text.i2c_recevied_address_get:0000000000000002 .L0 
C:\Users\stapi\AppData\Local\Temp\ccQ89eao.s:637    .text.i2c_recevied_address_get:0000000000000004 .L0 
C:\Users\stapi\AppData\Local\Temp\ccQ89eao.s:639    .text.i2c_recevied_address_get:000000000000000a .L0 
C:\Users\stapi\AppData\Local\Temp\ccQ89eao.s:646    .text.i2c_slave_byte_control_enable:0000000000000000 i2c_slave_byte_control_enable
C:\Users\stapi\AppData\Local\Temp\ccQ89eao.s:649    .text.i2c_slave_byte_control_enable:0000000000000000 .L0 
C:\Users\stapi\AppData\Local\Temp\ccQ89eao.s:651    .text.i2c_slave_byte_control_enable:0000000000000000 .L0 
C:\Users\stapi\AppData\Local\Temp\ccQ89eao.s:652    .text.i2c_slave_byte_control_enable:0000000000000000 .L0 
C:\Users\stapi\AppData\Local\Temp\ccQ89eao.s:653    .text.i2c_slave_byte_control_enable:0000000000000000 .L0 
C:\Users\stapi\AppData\Local\Temp\ccQ89eao.s:657    .text.i2c_slave_byte_control_enable:0000000000000008 .L0 
C:\Users\stapi\AppData\Local\Temp\ccQ89eao.s:658    .text.i2c_slave_byte_control_enable:000000000000000a .L0 
C:\Users\stapi\AppData\Local\Temp\ccQ89eao.s:665    .text.i2c_slave_byte_control_disable:0000000000000000 i2c_slave_byte_control_disable
C:\Users\stapi\AppData\Local\Temp\ccQ89eao.s:668    .text.i2c_slave_byte_control_disable:0000000000000000 .L0 
C:\Users\stapi\AppData\Local\Temp\ccQ89eao.s:670    .text.i2c_slave_byte_control_disable:0000000000000000 .L0 
C:\Users\stapi\AppData\Local\Temp\ccQ89eao.s:671    .text.i2c_slave_byte_control_disable:0000000000000000 .L0 
C:\Users\stapi\AppData\Local\Temp\ccQ89eao.s:672    .text.i2c_slave_byte_control_disable:0000000000000000 .L0 
C:\Users\stapi\AppData\Local\Temp\ccQ89eao.s:676    .text.i2c_slave_byte_control_disable:0000000000000008 .L0 
C:\Users\stapi\AppData\Local\Temp\ccQ89eao.s:677    .text.i2c_slave_byte_control_disable:000000000000000a .L0 
C:\Users\stapi\AppData\Local\Temp\ccQ89eao.s:684    .text.i2c_nack_enable:0000000000000000 i2c_nack_enable
C:\Users\stapi\AppData\Local\Temp\ccQ89eao.s:687    .text.i2c_nack_enable:0000000000000000 .L0 
C:\Users\stapi\AppData\Local\Temp\ccQ89eao.s:689    .text.i2c_nack_enable:0000000000000000 .L0 
C:\Users\stapi\AppData\Local\Temp\ccQ89eao.s:690    .text.i2c_nack_enable:0000000000000000 .L0 
C:\Users\stapi\AppData\Local\Temp\ccQ89eao.s:691    .text.i2c_nack_enable:0000000000000000 .L0 
C:\Users\stapi\AppData\Local\Temp\ccQ89eao.s:695    .text.i2c_nack_enable:0000000000000008 .L0 
C:\Users\stapi\AppData\Local\Temp\ccQ89eao.s:696    .text.i2c_nack_enable:000000000000000a .L0 
C:\Users\stapi\AppData\Local\Temp\ccQ89eao.s:703    .text.i2c_nack_disable:0000000000000000 i2c_nack_disable
C:\Users\stapi\AppData\Local\Temp\ccQ89eao.s:706    .text.i2c_nack_disable:0000000000000000 .L0 
C:\Users\stapi\AppData\Local\Temp\ccQ89eao.s:708    .text.i2c_nack_disable:0000000000000000 .L0 
C:\Users\stapi\AppData\Local\Temp\ccQ89eao.s:709    .text.i2c_nack_disable:0000000000000000 .L0 
C:\Users\stapi\AppData\Local\Temp\ccQ89eao.s:710    .text.i2c_nack_disable:0000000000000000 .L0 
C:\Users\stapi\AppData\Local\Temp\ccQ89eao.s:714    .text.i2c_nack_disable:0000000000000008 .L0 
C:\Users\stapi\AppData\Local\Temp\ccQ89eao.s:715    .text.i2c_nack_disable:000000000000000a .L0 
C:\Users\stapi\AppData\Local\Temp\ccQ89eao.s:722    .text.i2c_wakeup_from_deepsleep_enable:0000000000000000 i2c_wakeup_from_deepsleep_enable
C:\Users\stapi\AppData\Local\Temp\ccQ89eao.s:725    .text.i2c_wakeup_from_deepsleep_enable:0000000000000000 .L0 
C:\Users\stapi\AppData\Local\Temp\ccQ89eao.s:727    .text.i2c_wakeup_from_deepsleep_enable:0000000000000000 .L0 
C:\Users\stapi\AppData\Local\Temp\ccQ89eao.s:728    .text.i2c_wakeup_from_deepsleep_enable:0000000000000000 .L0 
C:\Users\stapi\AppData\Local\Temp\ccQ89eao.s:729    .text.i2c_wakeup_from_deepsleep_enable:0000000000000000 .L0 
C:\Users\stapi\AppData\Local\Temp\ccQ89eao.s:733    .text.i2c_wakeup_from_deepsleep_enable:0000000000000008 .L0 
C:\Users\stapi\AppData\Local\Temp\ccQ89eao.s:734    .text.i2c_wakeup_from_deepsleep_enable:000000000000000a .L0 
C:\Users\stapi\AppData\Local\Temp\ccQ89eao.s:741    .text.i2c_wakeup_from_deepsleep_disable:0000000000000000 i2c_wakeup_from_deepsleep_disable
C:\Users\stapi\AppData\Local\Temp\ccQ89eao.s:744    .text.i2c_wakeup_from_deepsleep_disable:0000000000000000 .L0 
C:\Users\stapi\AppData\Local\Temp\ccQ89eao.s:746    .text.i2c_wakeup_from_deepsleep_disable:0000000000000000 .L0 
C:\Users\stapi\AppData\Local\Temp\ccQ89eao.s:747    .text.i2c_wakeup_from_deepsleep_disable:0000000000000000 .L0 
C:\Users\stapi\AppData\Local\Temp\ccQ89eao.s:748    .text.i2c_wakeup_from_deepsleep_disable:0000000000000000 .L0 
C:\Users\stapi\AppData\Local\Temp\ccQ89eao.s:752    .text.i2c_wakeup_from_deepsleep_disable:0000000000000008 .L0 
C:\Users\stapi\AppData\Local\Temp\ccQ89eao.s:753    .text.i2c_wakeup_from_deepsleep_disable:000000000000000a .L0 
C:\Users\stapi\AppData\Local\Temp\ccQ89eao.s:760    .text.i2c_enable:0000000000000000 i2c_enable
C:\Users\stapi\AppData\Local\Temp\ccQ89eao.s:763    .text.i2c_enable:0000000000000000 .L0 
C:\Users\stapi\AppData\Local\Temp\ccQ89eao.s:765    .text.i2c_enable:0000000000000000 .L0 
C:\Users\stapi\AppData\Local\Temp\ccQ89eao.s:766    .text.i2c_enable:0000000000000000 .L0 
C:\Users\stapi\AppData\Local\Temp\ccQ89eao.s:767    .text.i2c_enable:0000000000000000 .L0 
C:\Users\stapi\AppData\Local\Temp\ccQ89eao.s:771    .text.i2c_enable:0000000000000008 .L0 
C:\Users\stapi\AppData\Local\Temp\ccQ89eao.s:772    .text.i2c_enable:000000000000000a .L0 
C:\Users\stapi\AppData\Local\Temp\ccQ89eao.s:779    .text.i2c_disable:0000000000000000 i2c_disable
C:\Users\stapi\AppData\Local\Temp\ccQ89eao.s:782    .text.i2c_disable:0000000000000000 .L0 
C:\Users\stapi\AppData\Local\Temp\ccQ89eao.s:784    .text.i2c_disable:0000000000000000 .L0 
C:\Users\stapi\AppData\Local\Temp\ccQ89eao.s:785    .text.i2c_disable:0000000000000000 .L0 
C:\Users\stapi\AppData\Local\Temp\ccQ89eao.s:786    .text.i2c_disable:0000000000000000 .L0 
C:\Users\stapi\AppData\Local\Temp\ccQ89eao.s:790    .text.i2c_disable:0000000000000006 .L0 
C:\Users\stapi\AppData\Local\Temp\ccQ89eao.s:791    .text.i2c_disable:0000000000000008 .L0 
C:\Users\stapi\AppData\Local\Temp\ccQ89eao.s:798    .text.i2c_start_on_bus:0000000000000000 i2c_start_on_bus
C:\Users\stapi\AppData\Local\Temp\ccQ89eao.s:801    .text.i2c_start_on_bus:0000000000000000 .L0 
C:\Users\stapi\AppData\Local\Temp\ccQ89eao.s:803    .text.i2c_start_on_bus:0000000000000000 .L0 
C:\Users\stapi\AppData\Local\Temp\ccQ89eao.s:804    .text.i2c_start_on_bus:0000000000000000 .L0 
C:\Users\stapi\AppData\Local\Temp\ccQ89eao.s:805    .text.i2c_start_on_bus:0000000000000000 .L0 
C:\Users\stapi\AppData\Local\Temp\ccQ89eao.s:809    .text.i2c_start_on_bus:0000000000000008 .L0 
C:\Users\stapi\AppData\Local\Temp\ccQ89eao.s:810    .text.i2c_start_on_bus:000000000000000a .L0 
C:\Users\stapi\AppData\Local\Temp\ccQ89eao.s:817    .text.i2c_stop_on_bus:0000000000000000 i2c_stop_on_bus
C:\Users\stapi\AppData\Local\Temp\ccQ89eao.s:820    .text.i2c_stop_on_bus:0000000000000000 .L0 
C:\Users\stapi\AppData\Local\Temp\ccQ89eao.s:822    .text.i2c_stop_on_bus:0000000000000000 .L0 
C:\Users\stapi\AppData\Local\Temp\ccQ89eao.s:823    .text.i2c_stop_on_bus:0000000000000000 .L0 
C:\Users\stapi\AppData\Local\Temp\ccQ89eao.s:824    .text.i2c_stop_on_bus:0000000000000000 .L0 
C:\Users\stapi\AppData\Local\Temp\ccQ89eao.s:828    .text.i2c_stop_on_bus:0000000000000008 .L0 
C:\Users\stapi\AppData\Local\Temp\ccQ89eao.s:829    .text.i2c_stop_on_bus:000000000000000a .L0 
C:\Users\stapi\AppData\Local\Temp\ccQ89eao.s:836    .text.i2c_data_transmit:0000000000000000 i2c_data_transmit
C:\Users\stapi\AppData\Local\Temp\ccQ89eao.s:839    .text.i2c_data_transmit:0000000000000000 .L0 
C:\Users\stapi\AppData\Local\Temp\ccQ89eao.s:841    .text.i2c_data_transmit:0000000000000000 .L0 
C:\Users\stapi\AppData\Local\Temp\ccQ89eao.s:842    .text.i2c_data_transmit:0000000000000000 .L0 
C:\Users\stapi\AppData\Local\Temp\ccQ89eao.s:843    .text.i2c_data_transmit:0000000000000000 .L0 
C:\Users\stapi\AppData\Local\Temp\ccQ89eao.s:846    .text.i2c_data_transmit:0000000000000004 .L0 
C:\Users\stapi\AppData\Local\Temp\ccQ89eao.s:848    .text.i2c_data_transmit:0000000000000006 .L0 
C:\Users\stapi\AppData\Local\Temp\ccQ89eao.s:849    .text.i2c_data_transmit:0000000000000008 .L0 
C:\Users\stapi\AppData\Local\Temp\ccQ89eao.s:856    .text.i2c_data_receive:0000000000000000 i2c_data_receive
C:\Users\stapi\AppData\Local\Temp\ccQ89eao.s:859    .text.i2c_data_receive:0000000000000000 .L0 
C:\Users\stapi\AppData\Local\Temp\ccQ89eao.s:861    .text.i2c_data_receive:0000000000000000 .L0 
C:\Users\stapi\AppData\Local\Temp\ccQ89eao.s:862    .text.i2c_data_receive:0000000000000000 .L0 
C:\Users\stapi\AppData\Local\Temp\ccQ89eao.s:863    .text.i2c_data_receive:0000000000000000 .L0 
C:\Users\stapi\AppData\Local\Temp\ccQ89eao.s:866    .text.i2c_data_receive:0000000000000002 .L0 
C:\Users\stapi\AppData\Local\Temp\ccQ89eao.s:868    .text.i2c_data_receive:0000000000000008 .L0 
C:\Users\stapi\AppData\Local\Temp\ccQ89eao.s:875    .text.i2c_reload_enable:0000000000000000 i2c_reload_enable
C:\Users\stapi\AppData\Local\Temp\ccQ89eao.s:878    .text.i2c_reload_enable:0000000000000000 .L0 
C:\Users\stapi\AppData\Local\Temp\ccQ89eao.s:880    .text.i2c_reload_enable:0000000000000000 .L0 
C:\Users\stapi\AppData\Local\Temp\ccQ89eao.s:881    .text.i2c_reload_enable:0000000000000000 .L0 
C:\Users\stapi\AppData\Local\Temp\ccQ89eao.s:882    .text.i2c_reload_enable:0000000000000000 .L0 
C:\Users\stapi\AppData\Local\Temp\ccQ89eao.s:886    .text.i2c_reload_enable:0000000000000008 .L0 
C:\Users\stapi\AppData\Local\Temp\ccQ89eao.s:887    .text.i2c_reload_enable:000000000000000a .L0 
C:\Users\stapi\AppData\Local\Temp\ccQ89eao.s:894    .text.i2c_reload_disable:0000000000000000 i2c_reload_disable
C:\Users\stapi\AppData\Local\Temp\ccQ89eao.s:897    .text.i2c_reload_disable:0000000000000000 .L0 
C:\Users\stapi\AppData\Local\Temp\ccQ89eao.s:899    .text.i2c_reload_disable:0000000000000000 .L0 
C:\Users\stapi\AppData\Local\Temp\ccQ89eao.s:900    .text.i2c_reload_disable:0000000000000000 .L0 
C:\Users\stapi\AppData\Local\Temp\ccQ89eao.s:901    .text.i2c_reload_disable:0000000000000000 .L0 
C:\Users\stapi\AppData\Local\Temp\ccQ89eao.s:905    .text.i2c_reload_disable:0000000000000008 .L0 
C:\Users\stapi\AppData\Local\Temp\ccQ89eao.s:906    .text.i2c_reload_disable:000000000000000a .L0 
C:\Users\stapi\AppData\Local\Temp\ccQ89eao.s:913    .text.i2c_transfer_byte_number_config:0000000000000000 i2c_transfer_byte_number_config
C:\Users\stapi\AppData\Local\Temp\ccQ89eao.s:916    .text.i2c_transfer_byte_number_config:0000000000000000 .L0 
C:\Users\stapi\AppData\Local\Temp\ccQ89eao.s:918    .text.i2c_transfer_byte_number_config:0000000000000000 .L0 
C:\Users\stapi\AppData\Local\Temp\ccQ89eao.s:919    .text.i2c_transfer_byte_number_config:0000000000000000 .L0 
C:\Users\stapi\AppData\Local\Temp\ccQ89eao.s:920    .text.i2c_transfer_byte_number_config:0000000000000000 .L0 
C:\Users\stapi\AppData\Local\Temp\ccQ89eao.s:926    .text.i2c_transfer_byte_number_config:000000000000000c .L0 
C:\Users\stapi\AppData\Local\Temp\ccQ89eao.s:927    .text.i2c_transfer_byte_number_config:000000000000000c .L0 
C:\Users\stapi\AppData\Local\Temp\ccQ89eao.s:929    .text.i2c_transfer_byte_number_config:000000000000000e .L0 
C:\Users\stapi\AppData\Local\Temp\ccQ89eao.s:932    .text.i2c_transfer_byte_number_config:0000000000000010 .L0 
C:\Users\stapi\AppData\Local\Temp\ccQ89eao.s:935    .text.i2c_transfer_byte_number_config:0000000000000014 .L0 
C:\Users\stapi\AppData\Local\Temp\ccQ89eao.s:936    .text.i2c_transfer_byte_number_config:0000000000000016 .L0 
C:\Users\stapi\AppData\Local\Temp\ccQ89eao.s:943    .text.i2c_dma_enable:0000000000000000 i2c_dma_enable
C:\Users\stapi\AppData\Local\Temp\ccQ89eao.s:946    .text.i2c_dma_enable:0000000000000000 .L0 
C:\Users\stapi\AppData\Local\Temp\ccQ89eao.s:948    .text.i2c_dma_enable:0000000000000000 .L0 
C:\Users\stapi\AppData\Local\Temp\ccQ89eao.s:949    .text.i2c_dma_enable:0000000000000000 .L0 
C:\Users\stapi\AppData\Local\Temp\ccQ89eao.s:950    .text.i2c_dma_enable:0000000000000000 .L0 
C:\Users\stapi\AppData\Local\Temp\ccQ89eao.s:952    .text.i2c_dma_enable:0000000000000002 .L0 
C:\Users\stapi\AppData\Local\Temp\ccQ89eao.s:954    .text.i2c_dma_enable:0000000000000004 .L0 
C:\Users\stapi\AppData\Local\Temp\ccQ89eao.s:955    .text.i2c_dma_enable:0000000000000004 .L0 
C:\Users\stapi\AppData\Local\Temp\ccQ89eao.s:958    .text.i2c_dma_enable:0000000000000008 .L0 
C:\Users\stapi\AppData\Local\Temp\ccQ89eao.s:960    .text.i2c_dma_enable:000000000000000a .L0 
C:\Users\stapi\AppData\Local\Temp\ccQ89eao.s:963    .text.i2c_dma_enable:000000000000000c .L0 
C:\Users\stapi\AppData\Local\Temp\ccQ89eao.s:964    .text.i2c_dma_enable:000000000000000c .L0 
C:\Users\stapi\AppData\Local\Temp\ccQ89eao.s:966    .text.i2c_dma_enable:0000000000000012 .L0 
C:\Users\stapi\AppData\Local\Temp\ccQ89eao.s:973    .text.i2c_dma_disable:0000000000000000 i2c_dma_disable
C:\Users\stapi\AppData\Local\Temp\ccQ89eao.s:976    .text.i2c_dma_disable:0000000000000000 .L0 
C:\Users\stapi\AppData\Local\Temp\ccQ89eao.s:978    .text.i2c_dma_disable:0000000000000000 .L0 
C:\Users\stapi\AppData\Local\Temp\ccQ89eao.s:979    .text.i2c_dma_disable:0000000000000000 .L0 
C:\Users\stapi\AppData\Local\Temp\ccQ89eao.s:980    .text.i2c_dma_disable:0000000000000000 .L0 
C:\Users\stapi\AppData\Local\Temp\ccQ89eao.s:982    .text.i2c_dma_disable:0000000000000002 .L0 
C:\Users\stapi\AppData\Local\Temp\ccQ89eao.s:984    .text.i2c_dma_disable:0000000000000004 .L0 
C:\Users\stapi\AppData\Local\Temp\ccQ89eao.s:985    .text.i2c_dma_disable:0000000000000004 .L0 
C:\Users\stapi\AppData\Local\Temp\ccQ89eao.s:988    .text.i2c_dma_disable:0000000000000008 .L0 
C:\Users\stapi\AppData\Local\Temp\ccQ89eao.s:990    .text.i2c_dma_disable:000000000000000a .L0 
C:\Users\stapi\AppData\Local\Temp\ccQ89eao.s:993    .text.i2c_dma_disable:000000000000000c .L0 
C:\Users\stapi\AppData\Local\Temp\ccQ89eao.s:994    .text.i2c_dma_disable:000000000000000c .L0 
C:\Users\stapi\AppData\Local\Temp\ccQ89eao.s:996    .text.i2c_dma_disable:0000000000000012 .L0 
C:\Users\stapi\AppData\Local\Temp\ccQ89eao.s:1003   .text.i2c_pec_transfer:0000000000000000 i2c_pec_transfer
C:\Users\stapi\AppData\Local\Temp\ccQ89eao.s:1006   .text.i2c_pec_transfer:0000000000000000 .L0 
C:\Users\stapi\AppData\Local\Temp\ccQ89eao.s:1008   .text.i2c_pec_transfer:0000000000000000 .L0 
C:\Users\stapi\AppData\Local\Temp\ccQ89eao.s:1009   .text.i2c_pec_transfer:0000000000000000 .L0 
C:\Users\stapi\AppData\Local\Temp\ccQ89eao.s:1010   .text.i2c_pec_transfer:0000000000000000 .L0 
C:\Users\stapi\AppData\Local\Temp\ccQ89eao.s:1014   .text.i2c_pec_transfer:0000000000000008 .L0 
C:\Users\stapi\AppData\Local\Temp\ccQ89eao.s:1015   .text.i2c_pec_transfer:000000000000000a .L0 
C:\Users\stapi\AppData\Local\Temp\ccQ89eao.s:1022   .text.i2c_pec_enable:0000000000000000 i2c_pec_enable
C:\Users\stapi\AppData\Local\Temp\ccQ89eao.s:1025   .text.i2c_pec_enable:0000000000000000 .L0 
C:\Users\stapi\AppData\Local\Temp\ccQ89eao.s:1027   .text.i2c_pec_enable:0000000000000000 .L0 
C:\Users\stapi\AppData\Local\Temp\ccQ89eao.s:1028   .text.i2c_pec_enable:0000000000000000 .L0 
C:\Users\stapi\AppData\Local\Temp\ccQ89eao.s:1029   .text.i2c_pec_enable:0000000000000000 .L0 
C:\Users\stapi\AppData\Local\Temp\ccQ89eao.s:1033   .text.i2c_pec_enable:0000000000000008 .L0 
C:\Users\stapi\AppData\Local\Temp\ccQ89eao.s:1034   .text.i2c_pec_enable:000000000000000a .L0 
C:\Users\stapi\AppData\Local\Temp\ccQ89eao.s:1041   .text.i2c_pec_disable:0000000000000000 i2c_pec_disable
C:\Users\stapi\AppData\Local\Temp\ccQ89eao.s:1044   .text.i2c_pec_disable:0000000000000000 .L0 
C:\Users\stapi\AppData\Local\Temp\ccQ89eao.s:1046   .text.i2c_pec_disable:0000000000000000 .L0 
C:\Users\stapi\AppData\Local\Temp\ccQ89eao.s:1047   .text.i2c_pec_disable:0000000000000000 .L0 
C:\Users\stapi\AppData\Local\Temp\ccQ89eao.s:1048   .text.i2c_pec_disable:0000000000000000 .L0 
C:\Users\stapi\AppData\Local\Temp\ccQ89eao.s:1052   .text.i2c_pec_disable:0000000000000008 .L0 
C:\Users\stapi\AppData\Local\Temp\ccQ89eao.s:1053   .text.i2c_pec_disable:000000000000000a .L0 
C:\Users\stapi\AppData\Local\Temp\ccQ89eao.s:1060   .text.i2c_pec_value_get:0000000000000000 i2c_pec_value_get
C:\Users\stapi\AppData\Local\Temp\ccQ89eao.s:1063   .text.i2c_pec_value_get:0000000000000000 .L0 
C:\Users\stapi\AppData\Local\Temp\ccQ89eao.s:1065   .text.i2c_pec_value_get:0000000000000000 .L0 
C:\Users\stapi\AppData\Local\Temp\ccQ89eao.s:1066   .text.i2c_pec_value_get:0000000000000000 .L0 
C:\Users\stapi\AppData\Local\Temp\ccQ89eao.s:1067   .text.i2c_pec_value_get:0000000000000000 .L0 
C:\Users\stapi\AppData\Local\Temp\ccQ89eao.s:1070   .text.i2c_pec_value_get:0000000000000002 .L0 
C:\Users\stapi\AppData\Local\Temp\ccQ89eao.s:1072   .text.i2c_pec_value_get:0000000000000008 .L0 
C:\Users\stapi\AppData\Local\Temp\ccQ89eao.s:1079   .text.i2c_smbus_alert_enable:0000000000000000 i2c_smbus_alert_enable
C:\Users\stapi\AppData\Local\Temp\ccQ89eao.s:1082   .text.i2c_smbus_alert_enable:0000000000000000 .L0 
C:\Users\stapi\AppData\Local\Temp\ccQ89eao.s:1084   .text.i2c_smbus_alert_enable:0000000000000000 .L0 
C:\Users\stapi\AppData\Local\Temp\ccQ89eao.s:1085   .text.i2c_smbus_alert_enable:0000000000000000 .L0 
C:\Users\stapi\AppData\Local\Temp\ccQ89eao.s:1086   .text.i2c_smbus_alert_enable:0000000000000000 .L0 
C:\Users\stapi\AppData\Local\Temp\ccQ89eao.s:1090   .text.i2c_smbus_alert_enable:0000000000000008 .L0 
C:\Users\stapi\AppData\Local\Temp\ccQ89eao.s:1091   .text.i2c_smbus_alert_enable:000000000000000a .L0 
C:\Users\stapi\AppData\Local\Temp\ccQ89eao.s:1098   .text.i2c_smbus_alert_disable:0000000000000000 i2c_smbus_alert_disable
C:\Users\stapi\AppData\Local\Temp\ccQ89eao.s:1101   .text.i2c_smbus_alert_disable:0000000000000000 .L0 
C:\Users\stapi\AppData\Local\Temp\ccQ89eao.s:1103   .text.i2c_smbus_alert_disable:0000000000000000 .L0 
C:\Users\stapi\AppData\Local\Temp\ccQ89eao.s:1104   .text.i2c_smbus_alert_disable:0000000000000000 .L0 
C:\Users\stapi\AppData\Local\Temp\ccQ89eao.s:1105   .text.i2c_smbus_alert_disable:0000000000000000 .L0 
C:\Users\stapi\AppData\Local\Temp\ccQ89eao.s:1109   .text.i2c_smbus_alert_disable:0000000000000008 .L0 
C:\Users\stapi\AppData\Local\Temp\ccQ89eao.s:1110   .text.i2c_smbus_alert_disable:000000000000000a .L0 
C:\Users\stapi\AppData\Local\Temp\ccQ89eao.s:1117   .text.i2c_smbus_default_addr_enable:0000000000000000 i2c_smbus_default_addr_enable
C:\Users\stapi\AppData\Local\Temp\ccQ89eao.s:1120   .text.i2c_smbus_default_addr_enable:0000000000000000 .L0 
C:\Users\stapi\AppData\Local\Temp\ccQ89eao.s:1122   .text.i2c_smbus_default_addr_enable:0000000000000000 .L0 
C:\Users\stapi\AppData\Local\Temp\ccQ89eao.s:1123   .text.i2c_smbus_default_addr_enable:0000000000000000 .L0 
C:\Users\stapi\AppData\Local\Temp\ccQ89eao.s:1124   .text.i2c_smbus_default_addr_enable:0000000000000000 .L0 
C:\Users\stapi\AppData\Local\Temp\ccQ89eao.s:1128   .text.i2c_smbus_default_addr_enable:0000000000000008 .L0 
C:\Users\stapi\AppData\Local\Temp\ccQ89eao.s:1129   .text.i2c_smbus_default_addr_enable:000000000000000a .L0 
C:\Users\stapi\AppData\Local\Temp\ccQ89eao.s:1136   .text.i2c_smbus_default_addr_disable:0000000000000000 i2c_smbus_default_addr_disable
C:\Users\stapi\AppData\Local\Temp\ccQ89eao.s:1139   .text.i2c_smbus_default_addr_disable:0000000000000000 .L0 
C:\Users\stapi\AppData\Local\Temp\ccQ89eao.s:1141   .text.i2c_smbus_default_addr_disable:0000000000000000 .L0 
C:\Users\stapi\AppData\Local\Temp\ccQ89eao.s:1142   .text.i2c_smbus_default_addr_disable:0000000000000000 .L0 
C:\Users\stapi\AppData\Local\Temp\ccQ89eao.s:1143   .text.i2c_smbus_default_addr_disable:0000000000000000 .L0 
C:\Users\stapi\AppData\Local\Temp\ccQ89eao.s:1147   .text.i2c_smbus_default_addr_disable:0000000000000008 .L0 
C:\Users\stapi\AppData\Local\Temp\ccQ89eao.s:1148   .text.i2c_smbus_default_addr_disable:000000000000000a .L0 
C:\Users\stapi\AppData\Local\Temp\ccQ89eao.s:1155   .text.i2c_smbus_host_addr_enable:0000000000000000 i2c_smbus_host_addr_enable
C:\Users\stapi\AppData\Local\Temp\ccQ89eao.s:1158   .text.i2c_smbus_host_addr_enable:0000000000000000 .L0 
C:\Users\stapi\AppData\Local\Temp\ccQ89eao.s:1160   .text.i2c_smbus_host_addr_enable:0000000000000000 .L0 
C:\Users\stapi\AppData\Local\Temp\ccQ89eao.s:1161   .text.i2c_smbus_host_addr_enable:0000000000000000 .L0 
C:\Users\stapi\AppData\Local\Temp\ccQ89eao.s:1162   .text.i2c_smbus_host_addr_enable:0000000000000000 .L0 
C:\Users\stapi\AppData\Local\Temp\ccQ89eao.s:1166   .text.i2c_smbus_host_addr_enable:0000000000000008 .L0 
C:\Users\stapi\AppData\Local\Temp\ccQ89eao.s:1167   .text.i2c_smbus_host_addr_enable:000000000000000a .L0 
C:\Users\stapi\AppData\Local\Temp\ccQ89eao.s:1174   .text.i2c_smbus_host_addr_disable:0000000000000000 i2c_smbus_host_addr_disable
C:\Users\stapi\AppData\Local\Temp\ccQ89eao.s:1177   .text.i2c_smbus_host_addr_disable:0000000000000000 .L0 
C:\Users\stapi\AppData\Local\Temp\ccQ89eao.s:1179   .text.i2c_smbus_host_addr_disable:0000000000000000 .L0 
C:\Users\stapi\AppData\Local\Temp\ccQ89eao.s:1180   .text.i2c_smbus_host_addr_disable:0000000000000000 .L0 
C:\Users\stapi\AppData\Local\Temp\ccQ89eao.s:1181   .text.i2c_smbus_host_addr_disable:0000000000000000 .L0 
C:\Users\stapi\AppData\Local\Temp\ccQ89eao.s:1185   .text.i2c_smbus_host_addr_disable:0000000000000008 .L0 
C:\Users\stapi\AppData\Local\Temp\ccQ89eao.s:1186   .text.i2c_smbus_host_addr_disable:000000000000000a .L0 
C:\Users\stapi\AppData\Local\Temp\ccQ89eao.s:1193   .text.i2c_extented_clock_timeout_enable:0000000000000000 i2c_extented_clock_timeout_enable
C:\Users\stapi\AppData\Local\Temp\ccQ89eao.s:1196   .text.i2c_extented_clock_timeout_enable:0000000000000000 .L0 
C:\Users\stapi\AppData\Local\Temp\ccQ89eao.s:1198   .text.i2c_extented_clock_timeout_enable:0000000000000000 .L0 
C:\Users\stapi\AppData\Local\Temp\ccQ89eao.s:1199   .text.i2c_extented_clock_timeout_enable:0000000000000000 .L0 
C:\Users\stapi\AppData\Local\Temp\ccQ89eao.s:1200   .text.i2c_extented_clock_timeout_enable:0000000000000000 .L0 
C:\Users\stapi\AppData\Local\Temp\ccQ89eao.s:1205   .text.i2c_extented_clock_timeout_enable:000000000000000a .L0 
C:\Users\stapi\AppData\Local\Temp\ccQ89eao.s:1206   .text.i2c_extented_clock_timeout_enable:000000000000000c .L0 
C:\Users\stapi\AppData\Local\Temp\ccQ89eao.s:1213   .text.i2c_extented_clock_timeout_disable:0000000000000000 i2c_extented_clock_timeout_disable
C:\Users\stapi\AppData\Local\Temp\ccQ89eao.s:1216   .text.i2c_extented_clock_timeout_disable:0000000000000000 .L0 
C:\Users\stapi\AppData\Local\Temp\ccQ89eao.s:1218   .text.i2c_extented_clock_timeout_disable:0000000000000000 .L0 
C:\Users\stapi\AppData\Local\Temp\ccQ89eao.s:1219   .text.i2c_extented_clock_timeout_disable:0000000000000000 .L0 
C:\Users\stapi\AppData\Local\Temp\ccQ89eao.s:1220   .text.i2c_extented_clock_timeout_disable:0000000000000000 .L0 
C:\Users\stapi\AppData\Local\Temp\ccQ89eao.s:1225   .text.i2c_extented_clock_timeout_disable:000000000000000c .L0 
C:\Users\stapi\AppData\Local\Temp\ccQ89eao.s:1226   .text.i2c_extented_clock_timeout_disable:000000000000000e .L0 
C:\Users\stapi\AppData\Local\Temp\ccQ89eao.s:1233   .text.i2c_clock_timeout_enable:0000000000000000 i2c_clock_timeout_enable
C:\Users\stapi\AppData\Local\Temp\ccQ89eao.s:1236   .text.i2c_clock_timeout_enable:0000000000000000 .L0 
C:\Users\stapi\AppData\Local\Temp\ccQ89eao.s:1238   .text.i2c_clock_timeout_enable:0000000000000000 .L0 
C:\Users\stapi\AppData\Local\Temp\ccQ89eao.s:1239   .text.i2c_clock_timeout_enable:0000000000000000 .L0 
C:\Users\stapi\AppData\Local\Temp\ccQ89eao.s:1240   .text.i2c_clock_timeout_enable:0000000000000000 .L0 
C:\Users\stapi\AppData\Local\Temp\ccQ89eao.s:1244   .text.i2c_clock_timeout_enable:0000000000000008 .L0 
C:\Users\stapi\AppData\Local\Temp\ccQ89eao.s:1245   .text.i2c_clock_timeout_enable:000000000000000a .L0 
C:\Users\stapi\AppData\Local\Temp\ccQ89eao.s:1252   .text.i2c_clock_timeout_disable:0000000000000000 i2c_clock_timeout_disable
C:\Users\stapi\AppData\Local\Temp\ccQ89eao.s:1255   .text.i2c_clock_timeout_disable:0000000000000000 .L0 
C:\Users\stapi\AppData\Local\Temp\ccQ89eao.s:1257   .text.i2c_clock_timeout_disable:0000000000000000 .L0 
C:\Users\stapi\AppData\Local\Temp\ccQ89eao.s:1258   .text.i2c_clock_timeout_disable:0000000000000000 .L0 
C:\Users\stapi\AppData\Local\Temp\ccQ89eao.s:1259   .text.i2c_clock_timeout_disable:0000000000000000 .L0 
C:\Users\stapi\AppData\Local\Temp\ccQ89eao.s:1263   .text.i2c_clock_timeout_disable:0000000000000008 .L0 
C:\Users\stapi\AppData\Local\Temp\ccQ89eao.s:1264   .text.i2c_clock_timeout_disable:000000000000000a .L0 
C:\Users\stapi\AppData\Local\Temp\ccQ89eao.s:1271   .text.i2c_bus_timeout_b_config:0000000000000000 i2c_bus_timeout_b_config
C:\Users\stapi\AppData\Local\Temp\ccQ89eao.s:1274   .text.i2c_bus_timeout_b_config:0000000000000000 .L0 
C:\Users\stapi\AppData\Local\Temp\ccQ89eao.s:1276   .text.i2c_bus_timeout_b_config:0000000000000000 .L0 
C:\Users\stapi\AppData\Local\Temp\ccQ89eao.s:1277   .text.i2c_bus_timeout_b_config:0000000000000000 .L0 
C:\Users\stapi\AppData\Local\Temp\ccQ89eao.s:1278   .text.i2c_bus_timeout_b_config:0000000000000000 .L0 
C:\Users\stapi\AppData\Local\Temp\ccQ89eao.s:1284   .text.i2c_bus_timeout_b_config:000000000000000c .L0 
C:\Users\stapi\AppData\Local\Temp\ccQ89eao.s:1285   .text.i2c_bus_timeout_b_config:000000000000000c .L0 
C:\Users\stapi\AppData\Local\Temp\ccQ89eao.s:1287   .text.i2c_bus_timeout_b_config:000000000000000e .L0 
C:\Users\stapi\AppData\Local\Temp\ccQ89eao.s:1290   .text.i2c_bus_timeout_b_config:0000000000000010 .L0 
C:\Users\stapi\AppData\Local\Temp\ccQ89eao.s:1293   .text.i2c_bus_timeout_b_config:0000000000000014 .L0 
C:\Users\stapi\AppData\Local\Temp\ccQ89eao.s:1294   .text.i2c_bus_timeout_b_config:0000000000000016 .L0 
C:\Users\stapi\AppData\Local\Temp\ccQ89eao.s:1301   .text.i2c_bus_timeout_a_config:0000000000000000 i2c_bus_timeout_a_config
C:\Users\stapi\AppData\Local\Temp\ccQ89eao.s:1304   .text.i2c_bus_timeout_a_config:0000000000000000 .L0 
C:\Users\stapi\AppData\Local\Temp\ccQ89eao.s:1306   .text.i2c_bus_timeout_a_config:0000000000000000 .L0 
C:\Users\stapi\AppData\Local\Temp\ccQ89eao.s:1307   .text.i2c_bus_timeout_a_config:0000000000000000 .L0 
C:\Users\stapi\AppData\Local\Temp\ccQ89eao.s:1308   .text.i2c_bus_timeout_a_config:0000000000000000 .L0 
C:\Users\stapi\AppData\Local\Temp\ccQ89eao.s:1313   .text.i2c_bus_timeout_a_config:0000000000000008 .L0 
C:\Users\stapi\AppData\Local\Temp\ccQ89eao.s:1314   .text.i2c_bus_timeout_a_config:0000000000000008 .L0 
C:\Users\stapi\AppData\Local\Temp\ccQ89eao.s:1318   .text.i2c_bus_timeout_a_config:000000000000000e .L0 
C:\Users\stapi\AppData\Local\Temp\ccQ89eao.s:1319   .text.i2c_bus_timeout_a_config:0000000000000010 .L0 
C:\Users\stapi\AppData\Local\Temp\ccQ89eao.s:1326   .text.i2c_idle_clock_timeout_config:0000000000000000 i2c_idle_clock_timeout_config
C:\Users\stapi\AppData\Local\Temp\ccQ89eao.s:1329   .text.i2c_idle_clock_timeout_config:0000000000000000 .L0 
C:\Users\stapi\AppData\Local\Temp\ccQ89eao.s:1331   .text.i2c_idle_clock_timeout_config:0000000000000000 .L0 
C:\Users\stapi\AppData\Local\Temp\ccQ89eao.s:1332   .text.i2c_idle_clock_timeout_config:0000000000000000 .L0 
C:\Users\stapi\AppData\Local\Temp\ccQ89eao.s:1333   .text.i2c_idle_clock_timeout_config:0000000000000000 .L0 
C:\Users\stapi\AppData\Local\Temp\ccQ89eao.s:1337   .text.i2c_idle_clock_timeout_config:0000000000000008 .L0 
C:\Users\stapi\AppData\Local\Temp\ccQ89eao.s:1338   .text.i2c_idle_clock_timeout_config:0000000000000008 .L0 
C:\Users\stapi\AppData\Local\Temp\ccQ89eao.s:1342   .text.i2c_idle_clock_timeout_config:000000000000000e .L0 
C:\Users\stapi\AppData\Local\Temp\ccQ89eao.s:1343   .text.i2c_idle_clock_timeout_config:0000000000000010 .L0 
C:\Users\stapi\AppData\Local\Temp\ccQ89eao.s:1350   .text.i2c_flag_get:0000000000000000 i2c_flag_get
C:\Users\stapi\AppData\Local\Temp\ccQ89eao.s:1353   .text.i2c_flag_get:0000000000000000 .L0 
C:\Users\stapi\AppData\Local\Temp\ccQ89eao.s:1355   .text.i2c_flag_get:0000000000000000 .L0 
C:\Users\stapi\AppData\Local\Temp\ccQ89eao.s:1356   .text.i2c_flag_get:0000000000000000 .L0 
C:\Users\stapi\AppData\Local\Temp\ccQ89eao.s:1357   .text.i2c_flag_get:0000000000000000 .L0 
C:\Users\stapi\AppData\Local\Temp\ccQ89eao.s:1360   .text.i2c_flag_get:0000000000000002 .L0 
C:\Users\stapi\AppData\Local\Temp\ccQ89eao.s:1362   .text.i2c_flag_get:0000000000000004 .L0 
C:\Users\stapi\AppData\Local\Temp\ccQ89eao.s:1364   .text.i2c_flag_get:000000000000000a .L0 
C:\Users\stapi\AppData\Local\Temp\ccQ89eao.s:1371   .text.i2c_flag_clear:0000000000000000 i2c_flag_clear
C:\Users\stapi\AppData\Local\Temp\ccQ89eao.s:1374   .text.i2c_flag_clear:0000000000000000 .L0 
C:\Users\stapi\AppData\Local\Temp\ccQ89eao.s:1376   .text.i2c_flag_clear:0000000000000000 .L0 
C:\Users\stapi\AppData\Local\Temp\ccQ89eao.s:1377   .text.i2c_flag_clear:0000000000000000 .L0 
C:\Users\stapi\AppData\Local\Temp\ccQ89eao.s:1378   .text.i2c_flag_clear:0000000000000000 .L0 
C:\Users\stapi\AppData\Local\Temp\ccQ89eao.s:1382   .text.i2c_flag_clear:0000000000000006 .L0 
C:\Users\stapi\AppData\Local\Temp\ccQ89eao.s:1383   .text.i2c_flag_clear:0000000000000008 .L0 
C:\Users\stapi\AppData\Local\Temp\ccQ89eao.s:1390   .text.i2c_interrupt_enable:0000000000000000 i2c_interrupt_enable
C:\Users\stapi\AppData\Local\Temp\ccQ89eao.s:1393   .text.i2c_interrupt_enable:0000000000000000 .L0 
C:\Users\stapi\AppData\Local\Temp\ccQ89eao.s:1395   .text.i2c_interrupt_enable:0000000000000000 .L0 
C:\Users\stapi\AppData\Local\Temp\ccQ89eao.s:1396   .text.i2c_interrupt_enable:0000000000000000 .L0 
C:\Users\stapi\AppData\Local\Temp\ccQ89eao.s:1397   .text.i2c_interrupt_enable:0000000000000000 .L0 
C:\Users\stapi\AppData\Local\Temp\ccQ89eao.s:1401   .text.i2c_interrupt_enable:0000000000000006 .L0 
C:\Users\stapi\AppData\Local\Temp\ccQ89eao.s:1402   .text.i2c_interrupt_enable:0000000000000008 .L0 
C:\Users\stapi\AppData\Local\Temp\ccQ89eao.s:1409   .text.i2c_interrupt_disable:0000000000000000 i2c_interrupt_disable
C:\Users\stapi\AppData\Local\Temp\ccQ89eao.s:1412   .text.i2c_interrupt_disable:0000000000000000 .L0 
C:\Users\stapi\AppData\Local\Temp\ccQ89eao.s:1414   .text.i2c_interrupt_disable:0000000000000000 .L0 
C:\Users\stapi\AppData\Local\Temp\ccQ89eao.s:1415   .text.i2c_interrupt_disable:0000000000000000 .L0 
C:\Users\stapi\AppData\Local\Temp\ccQ89eao.s:1416   .text.i2c_interrupt_disable:0000000000000000 .L0 
C:\Users\stapi\AppData\Local\Temp\ccQ89eao.s:1421   .text.i2c_interrupt_disable:0000000000000008 .L0 
C:\Users\stapi\AppData\Local\Temp\ccQ89eao.s:1422   .text.i2c_interrupt_disable:000000000000000a .L0 
C:\Users\stapi\AppData\Local\Temp\ccQ89eao.s:1429   .text.i2c_interrupt_flag_get:0000000000000000 i2c_interrupt_flag_get
C:\Users\stapi\AppData\Local\Temp\ccQ89eao.s:1432   .text.i2c_interrupt_flag_get:0000000000000000 .L0 
C:\Users\stapi\AppData\Local\Temp\ccQ89eao.s:1434   .text.i2c_interrupt_flag_get:0000000000000000 .L0 
C:\Users\stapi\AppData\Local\Temp\ccQ89eao.s:1435   .text.i2c_interrupt_flag_get:0000000000000000 .L0 
C:\Users\stapi\AppData\Local\Temp\ccQ89eao.s:1436   .text.i2c_interrupt_flag_get:0000000000000000 .L0 
C:\Users\stapi\AppData\Local\Temp\ccQ89eao.s:1437   .text.i2c_interrupt_flag_get:0000000000000000 .L0 
C:\Users\stapi\AppData\Local\Temp\ccQ89eao.s:1438   .text.i2c_interrupt_flag_get:0000000000000000 .L0 
C:\Users\stapi\AppData\Local\Temp\ccQ89eao.s:1442   .text.i2c_interrupt_flag_get:000000000000000a .L0 
C:\Users\stapi\AppData\Local\Temp\ccQ89eao.s:1444   .text.i2c_interrupt_flag_get:000000000000000c .L0 
C:\Users\stapi\AppData\Local\Temp\ccQ89eao.s:1447   .text.i2c_interrupt_flag_get:000000000000000e .L0 
C:\Users\stapi\AppData\Local\Temp\ccQ89eao.s:1449   .text.i2c_interrupt_flag_get:0000000000000012 .L0 
C:\Users\stapi\AppData\Local\Temp\ccQ89eao.s:1452   .text.i2c_interrupt_flag_get:0000000000000014 .L0 
C:\Users\stapi\AppData\Local\Temp\ccQ89eao.s:1453   .text.i2c_interrupt_flag_get:0000000000000014 .L0 
C:\Users\stapi\AppData\Local\Temp\ccQ89eao.s:1459   .text.i2c_interrupt_flag_get:000000000000001c .L0 
C:\Users\stapi\AppData\Local\Temp\ccQ89eao.s:1460   .text.i2c_interrupt_flag_get:000000000000001c .L0 
C:\Users\stapi\AppData\Local\Temp\ccQ89eao.s:1462   .text.i2c_interrupt_flag_get:000000000000001e .L0 
C:\Users\stapi\AppData\Local\Temp\ccQ89eao.s:1467   .text.i2c_interrupt_flag_get:0000000000000026 .L0 
C:\Users\stapi\AppData\Local\Temp\ccQ89eao.s:1469   .text.i2c_interrupt_flag_get:0000000000000028 .L0 
C:\Users\stapi\AppData\Local\Temp\ccQ89eao.s:1472   .text.i2c_interrupt_flag_get:000000000000002c .L0 
C:\Users\stapi\AppData\Local\Temp\ccQ89eao.s:1473   .text.i2c_interrupt_flag_get:000000000000002e .L0 
C:\Users\stapi\AppData\Local\Temp\ccQ89eao.s:1480   .text.i2c_interrupt_flag_clear:0000000000000000 i2c_interrupt_flag_clear
C:\Users\stapi\AppData\Local\Temp\ccQ89eao.s:1483   .text.i2c_interrupt_flag_clear:0000000000000000 .L0 
C:\Users\stapi\AppData\Local\Temp\ccQ89eao.s:1485   .text.i2c_interrupt_flag_clear:0000000000000000 .L0 
C:\Users\stapi\AppData\Local\Temp\ccQ89eao.s:1486   .text.i2c_interrupt_flag_clear:0000000000000000 .L0 
C:\Users\stapi\AppData\Local\Temp\ccQ89eao.s:1487   .text.i2c_interrupt_flag_clear:0000000000000000 .L0 
C:\Users\stapi\AppData\Local\Temp\ccQ89eao.s:1489   .text.i2c_interrupt_flag_clear:0000000000000002 .L0 
C:\Users\stapi\AppData\Local\Temp\ccQ89eao.s:1492   .text.i2c_interrupt_flag_clear:0000000000000004 .L0 
C:\Users\stapi\AppData\Local\Temp\ccQ89eao.s:1495   .text.i2c_interrupt_flag_clear:000000000000000a .L0 
C:\Users\stapi\AppData\Local\Temp\ccQ89eao.s:1496   .text.i2c_interrupt_flag_clear:000000000000000c .L0 
C:\Users\stapi\AppData\Local\Temp\ccQ89eao.s:70     .text.i2c_deinit:0000000000000058 .L0 
C:\Users\stapi\AppData\Local\Temp\ccQ89eao.s:141    .text.i2c_timing_config:000000000000003e .L0 
C:\Users\stapi\AppData\Local\Temp\ccQ89eao.s:171    .text.i2c_digital_noise_filter_config:0000000000000016 .L0 
C:\Users\stapi\AppData\Local\Temp\ccQ89eao.s:190    .text.i2c_analog_noise_filter_enable:000000000000000a .L0 
C:\Users\stapi\AppData\Local\Temp\ccQ89eao.s:209    .text.i2c_analog_noise_filter_disable:000000000000000a .L0 
C:\Users\stapi\AppData\Local\Temp\ccQ89eao.s:259    .text.i2c_master_clock_config:000000000000002a .L0 
C:\Users\stapi\AppData\Local\Temp\ccQ89eao.s:293    .text.i2c_master_addressing:000000000000001e .L0 
C:\Users\stapi\AppData\Local\Temp\ccQ89eao.s:312    .text.i2c_address10_header_enable:000000000000000a .L0 
C:\Users\stapi\AppData\Local\Temp\ccQ89eao.s:331    .text.i2c_address10_header_disable:000000000000000a .L0 
C:\Users\stapi\AppData\Local\Temp\ccQ89eao.s:350    .text.i2c_address10_enable:000000000000000a .L0 
C:\Users\stapi\AppData\Local\Temp\ccQ89eao.s:369    .text.i2c_address10_disable:000000000000000a .L0 
C:\Users\stapi\AppData\Local\Temp\ccQ89eao.s:388    .text.i2c_automatic_end_enable:000000000000000a .L0 
C:\Users\stapi\AppData\Local\Temp\ccQ89eao.s:407    .text.i2c_automatic_end_disable:000000000000000a .L0 
C:\Users\stapi\AppData\Local\Temp\ccQ89eao.s:426    .text.i2c_slave_response_to_gcall_enable:000000000000000a .L0 
C:\Users\stapi\AppData\Local\Temp\ccQ89eao.s:445    .text.i2c_slave_response_to_gcall_disable:000000000000000a .L0 
C:\Users\stapi\AppData\Local\Temp\ccQ89eao.s:464    .text.i2c_stretch_scl_low_enable:000000000000000a .L0 
C:\Users\stapi\AppData\Local\Temp\ccQ89eao.s:483    .text.i2c_stretch_scl_low_disable:000000000000000a .L0 
C:\Users\stapi\AppData\Local\Temp\ccQ89eao.s:512    .text.i2c_address_config:0000000000000012 .L0 
C:\Users\stapi\AppData\Local\Temp\ccQ89eao.s:540    .text.i2c_address_bit_compare_config:0000000000000018 .L0 
C:\Users\stapi\AppData\Local\Temp\ccQ89eao.s:559    .text.i2c_address_disable:000000000000000a .L0 
C:\Users\stapi\AppData\Local\Temp\ccQ89eao.s:602    .text.i2c_second_address_config:0000000000000024 .L0 
C:\Users\stapi\AppData\Local\Temp\ccQ89eao.s:621    .text.i2c_second_address_disable:000000000000000a .L0 
C:\Users\stapi\AppData\Local\Temp\ccQ89eao.s:642    .text.i2c_recevied_address_get:000000000000000a .L0 
C:\Users\stapi\AppData\Local\Temp\ccQ89eao.s:661    .text.i2c_slave_byte_control_enable:000000000000000a .L0 
C:\Users\stapi\AppData\Local\Temp\ccQ89eao.s:680    .text.i2c_slave_byte_control_disable:000000000000000a .L0 
C:\Users\stapi\AppData\Local\Temp\ccQ89eao.s:699    .text.i2c_nack_enable:000000000000000a .L0 
C:\Users\stapi\AppData\Local\Temp\ccQ89eao.s:718    .text.i2c_nack_disable:000000000000000a .L0 
C:\Users\stapi\AppData\Local\Temp\ccQ89eao.s:737    .text.i2c_wakeup_from_deepsleep_enable:000000000000000a .L0 
C:\Users\stapi\AppData\Local\Temp\ccQ89eao.s:756    .text.i2c_wakeup_from_deepsleep_disable:000000000000000a .L0 
C:\Users\stapi\AppData\Local\Temp\ccQ89eao.s:775    .text.i2c_enable:000000000000000a .L0 
C:\Users\stapi\AppData\Local\Temp\ccQ89eao.s:794    .text.i2c_disable:0000000000000008 .L0 
C:\Users\stapi\AppData\Local\Temp\ccQ89eao.s:813    .text.i2c_start_on_bus:000000000000000a .L0 
C:\Users\stapi\AppData\Local\Temp\ccQ89eao.s:832    .text.i2c_stop_on_bus:000000000000000a .L0 
C:\Users\stapi\AppData\Local\Temp\ccQ89eao.s:852    .text.i2c_data_transmit:0000000000000008 .L0 
C:\Users\stapi\AppData\Local\Temp\ccQ89eao.s:871    .text.i2c_data_receive:0000000000000008 .L0 
C:\Users\stapi\AppData\Local\Temp\ccQ89eao.s:890    .text.i2c_reload_enable:000000000000000a .L0 
C:\Users\stapi\AppData\Local\Temp\ccQ89eao.s:909    .text.i2c_reload_disable:000000000000000a .L0 
C:\Users\stapi\AppData\Local\Temp\ccQ89eao.s:939    .text.i2c_transfer_byte_number_config:0000000000000016 .L0 
C:\Users\stapi\AppData\Local\Temp\ccQ89eao.s:969    .text.i2c_dma_enable:0000000000000012 .L0 
C:\Users\stapi\AppData\Local\Temp\ccQ89eao.s:999    .text.i2c_dma_disable:0000000000000012 .L0 
C:\Users\stapi\AppData\Local\Temp\ccQ89eao.s:1018   .text.i2c_pec_transfer:000000000000000a .L0 
C:\Users\stapi\AppData\Local\Temp\ccQ89eao.s:1037   .text.i2c_pec_enable:000000000000000a .L0 
C:\Users\stapi\AppData\Local\Temp\ccQ89eao.s:1056   .text.i2c_pec_disable:000000000000000a .L0 
C:\Users\stapi\AppData\Local\Temp\ccQ89eao.s:1075   .text.i2c_pec_value_get:0000000000000008 .L0 
C:\Users\stapi\AppData\Local\Temp\ccQ89eao.s:1094   .text.i2c_smbus_alert_enable:000000000000000a .L0 
C:\Users\stapi\AppData\Local\Temp\ccQ89eao.s:1113   .text.i2c_smbus_alert_disable:000000000000000a .L0 
C:\Users\stapi\AppData\Local\Temp\ccQ89eao.s:1132   .text.i2c_smbus_default_addr_enable:000000000000000a .L0 
C:\Users\stapi\AppData\Local\Temp\ccQ89eao.s:1151   .text.i2c_smbus_default_addr_disable:000000000000000a .L0 
C:\Users\stapi\AppData\Local\Temp\ccQ89eao.s:1170   .text.i2c_smbus_host_addr_enable:000000000000000a .L0 
C:\Users\stapi\AppData\Local\Temp\ccQ89eao.s:1189   .text.i2c_smbus_host_addr_disable:000000000000000a .L0 
C:\Users\stapi\AppData\Local\Temp\ccQ89eao.s:1209   .text.i2c_extented_clock_timeout_enable:000000000000000c .L0 
C:\Users\stapi\AppData\Local\Temp\ccQ89eao.s:1229   .text.i2c_extented_clock_timeout_disable:000000000000000e .L0 
C:\Users\stapi\AppData\Local\Temp\ccQ89eao.s:1248   .text.i2c_clock_timeout_enable:000000000000000a .L0 
C:\Users\stapi\AppData\Local\Temp\ccQ89eao.s:1267   .text.i2c_clock_timeout_disable:000000000000000a .L0 
C:\Users\stapi\AppData\Local\Temp\ccQ89eao.s:1297   .text.i2c_bus_timeout_b_config:0000000000000016 .L0 
C:\Users\stapi\AppData\Local\Temp\ccQ89eao.s:1322   .text.i2c_bus_timeout_a_config:0000000000000010 .L0 
C:\Users\stapi\AppData\Local\Temp\ccQ89eao.s:1346   .text.i2c_idle_clock_timeout_config:0000000000000010 .L0 
C:\Users\stapi\AppData\Local\Temp\ccQ89eao.s:1367   .text.i2c_flag_get:000000000000000a .L0 
C:\Users\stapi\AppData\Local\Temp\ccQ89eao.s:1386   .text.i2c_flag_clear:0000000000000008 .L0 
C:\Users\stapi\AppData\Local\Temp\ccQ89eao.s:1405   .text.i2c_interrupt_enable:0000000000000008 .L0 
C:\Users\stapi\AppData\Local\Temp\ccQ89eao.s:1425   .text.i2c_interrupt_disable:000000000000000a .L0 
C:\Users\stapi\AppData\Local\Temp\ccQ89eao.s:1476   .text.i2c_interrupt_flag_get:000000000000002e .L0 
C:\Users\stapi\AppData\Local\Temp\ccQ89eao.s:1499   .text.i2c_interrupt_flag_clear:000000000000000c .L0 
                     .debug_frame:0000000000000000 .L0 
C:\Users\stapi\AppData\Local\Temp\ccQ89eao.s:39     .text.i2c_deinit:0000000000000028 .L2
C:\Users\stapi\AppData\Local\Temp\ccQ89eao.s:57     .text.i2c_deinit:0000000000000044 .L3
C:\Users\stapi\AppData\Local\Temp\ccQ89eao.s:31     .text.i2c_deinit:0000000000000020 .L1
C:\Users\stapi\AppData\Local\Temp\ccQ89eao.s:49     .text.i2c_deinit:000000000000003a .L6
C:\Users\stapi\AppData\Local\Temp\ccQ89eao.s:961    .text.i2c_dma_enable:000000000000000c .L45
C:\Users\stapi\AppData\Local\Temp\ccQ89eao.s:956    .text.i2c_dma_enable:0000000000000008 .L47
C:\Users\stapi\AppData\Local\Temp\ccQ89eao.s:991    .text.i2c_dma_disable:000000000000000c .L49
C:\Users\stapi\AppData\Local\Temp\ccQ89eao.s:986    .text.i2c_dma_disable:0000000000000008 .L51
C:\Users\stapi\AppData\Local\Temp\ccQ89eao.s:1470   .text.i2c_interrupt_flag_get:000000000000002c .L73
C:\Users\stapi\AppData\Local\Temp\ccQ89eao.s:3203   .debug_abbrev:0000000000000000 .Ldebug_abbrev0
C:\Users\stapi\AppData\Local\Temp\ccQ89eao.s:4440   .debug_str:0000000000000336 .LASF144
C:\Users\stapi\AppData\Local\Temp\ccQ89eao.s:4554   .debug_str:0000000000000849 .LASF145
C:\Users\stapi\AppData\Local\Temp\ccQ89eao.s:4558   .debug_str:00000000000008f2 .LASF146
C:\Users\stapi\AppData\Local\Temp\ccQ89eao.s:4210   .debug_ranges:0000000000000000 .Ldebug_ranges0
C:\Users\stapi\AppData\Local\Temp\ccQ89eao.s:4340   .debug_line:0000000000000000 .Ldebug_line0
C:\Users\stapi\AppData\Local\Temp\ccQ89eao.s:4432   .debug_str:0000000000000315 .LASF0
C:\Users\stapi\AppData\Local\Temp\ccQ89eao.s:4378   .debug_str:0000000000000145 .LASF1
C:\Users\stapi\AppData\Local\Temp\ccQ89eao.s:4356   .debug_str:0000000000000069 .LASF6
C:\Users\stapi\AppData\Local\Temp\ccQ89eao.s:4590   .debug_str:0000000000000a83 .LASF2
C:\Users\stapi\AppData\Local\Temp\ccQ89eao.s:4548   .debug_str:0000000000000820 .LASF3
C:\Users\stapi\AppData\Local\Temp\ccQ89eao.s:4460   .debug_str:00000000000004db .LASF4
C:\Users\stapi\AppData\Local\Temp\ccQ89eao.s:4396   .debug_str:00000000000001de .LASF5
C:\Users\stapi\AppData\Local\Temp\ccQ89eao.s:4414   .debug_str:0000000000000274 .LASF7
C:\Users\stapi\AppData\Local\Temp\ccQ89eao.s:4446   .debug_str:0000000000000466 .LASF8
C:\Users\stapi\AppData\Local\Temp\ccQ89eao.s:4376   .debug_str:0000000000000137 .LASF9
C:\Users\stapi\AppData\Local\Temp\ccQ89eao.s:4384   .debug_str:0000000000000178 .LASF10
C:\Users\stapi\AppData\Local\Temp\ccQ89eao.s:4572   .debug_str:00000000000009c8 .LASF11
C:\Users\stapi\AppData\Local\Temp\ccQ89eao.s:4606   .debug_str:0000000000000afa .LASF12
C:\Users\stapi\AppData\Local\Temp\ccQ89eao.s:4598   .debug_str:0000000000000ab9 .LASF13
C:\Users\stapi\AppData\Local\Temp\ccQ89eao.s:4530   .debug_str:000000000000079e .LASF14
C:\Users\stapi\AppData\Local\Temp\ccQ89eao.s:4350   .debug_str:0000000000000040 .LASF15
C:\Users\stapi\AppData\Local\Temp\ccQ89eao.s:4408   .debug_str:000000000000024f .LASF16
C:\Users\stapi\AppData\Local\Temp\ccQ89eao.s:4452   .debug_str:00000000000004a2 .LASF17
C:\Users\stapi\AppData\Local\Temp\ccQ89eao.s:4502   .debug_str:000000000000067f .LASF18
C:\Users\stapi\AppData\Local\Temp\ccQ89eao.s:4536   .debug_str:00000000000007c9 .LASF19
C:\Users\stapi\AppData\Local\Temp\ccQ89eao.s:4616   .debug_str:0000000000000b53 .LASF20
C:\Users\stapi\AppData\Local\Temp\ccQ89eao.s:4592   .debug_str:0000000000000a91 .LASF21
C:\Users\stapi\AppData\Local\Temp\ccQ89eao.s:4498   .debug_str:000000000000065e .LASF22
C:\Users\stapi\AppData\Local\Temp\ccQ89eao.s:4470   .debug_str:0000000000000551 .LASF23
C:\Users\stapi\AppData\Local\Temp\ccQ89eao.s:4494   .debug_str:000000000000064b .LASF24
C:\Users\stapi\AppData\Local\Temp\ccQ89eao.s:4392   .debug_str:00000000000001c3 .LASF25
C:\Users\stapi\AppData\Local\Temp\ccQ89eao.s:4544   .debug_str:0000000000000809 .LASF26
C:\Users\stapi\AppData\Local\Temp\ccQ89eao.s:4410   .debug_str:000000000000025c .LASF27
C:\Users\stapi\AppData\Local\Temp\ccQ89eao.s:4596   .debug_str:0000000000000aab .LASF28
C:\Users\stapi\AppData\Local\Temp\ccQ89eao.s:4570   .debug_str:00000000000009ba .LASF29
C:\Users\stapi\AppData\Local\Temp\ccQ89eao.s:4468   .debug_str:0000000000000543 .LASF30
C:\Users\stapi\AppData\Local\Temp\ccQ89eao.s:4358   .debug_str:0000000000000073 .LASF31
C:\Users\stapi\AppData\Local\Temp\ccQ89eao.s:4578   .debug_str:0000000000000a09 .LASF32
C:\Users\stapi\AppData\Local\Temp\ccQ89eao.s:4342   .debug_str:0000000000000000 .LASF33
C:\Users\stapi\AppData\Local\Temp\ccQ89eao.s:4620   .debug_str:0000000000000b77 .LASF34
C:\Users\stapi\AppData\Local\Temp\ccQ89eao.s:4458   .debug_str:00000000000004cf .LASF35
C:\Users\stapi\AppData\Local\Temp\ccQ89eao.s:4412   .debug_str:0000000000000268 .LASF36
C:\Users\stapi\AppData\Local\Temp\ccQ89eao.s:4424   .debug_str:00000000000002d1 .LASF37
C:\Users\stapi\AppData\Local\Temp\ccQ89eao.s:4622   .debug_str:0000000000000b85 .LASF38
C:\Users\stapi\AppData\Local\Temp\ccQ89eao.s:4604   .debug_str:0000000000000aed .LASF39
C:\Users\stapi\AppData\Local\Temp\ccQ89eao.s:4420   .debug_str:00000000000002a8 .LASF40
C:\Users\stapi\AppData\Local\Temp\ccQ89eao.s:4390   .debug_str:00000000000001b8 .LASF41
C:\Users\stapi\AppData\Local\Temp\ccQ89eao.s:4354   .debug_str:000000000000005b .LASF42
C:\Users\stapi\AppData\Local\Temp\ccQ89eao.s:4594   .debug_str:0000000000000a9c .LASF43
C:\Users\stapi\AppData\Local\Temp\ccQ89eao.s:4564   .debug_str:0000000000000997 .LASF44
C:\Users\stapi\AppData\Local\Temp\ccQ89eao.s:4520   .debug_str:0000000000000731 .LASF45
C:\Users\stapi\AppData\Local\Temp\ccQ89eao.s:4346   .debug_str:000000000000001b .LASF46
C:\Users\stapi\AppData\Local\Temp\ccQ89eao.s:4362   .debug_str:0000000000000093 .LASF47
C:\Users\stapi\AppData\Local\Temp\ccQ89eao.s:4482   .debug_str:00000000000005cb .LASF48
C:\Users\stapi\AppData\Local\Temp\ccQ89eao.s:4416   .debug_str:000000000000027f .LASF49
C:\Users\stapi\AppData\Local\Temp\ccQ89eao.s:4444   .debug_str:0000000000000452 .LASF50
C:\Users\stapi\AppData\Local\Temp\ccQ89eao.s:4386   .debug_str:000000000000018f .LASF51
C:\Users\stapi\AppData\Local\Temp\ccQ89eao.s:4484   .debug_str:00000000000005e0 .LASF52
C:\Users\stapi\AppData\Local\Temp\ccQ89eao.s:4602   .debug_str:0000000000000adb .LASF53
C:\Users\stapi\AppData\Local\Temp\ccQ89eao.s:4404   .debug_str:0000000000000230 .LASF54
C:\Users\stapi\AppData\Local\Temp\ccQ89eao.s:4360   .debug_str:0000000000000080 .LASF55
C:\Users\stapi\AppData\Local\Temp\ccQ89eao.s:4398   .debug_str:00000000000001e7 .LASF56
C:\Users\stapi\AppData\Local\Temp\ccQ89eao.s:4366   .debug_str:00000000000000b8 .LASF57
C:\Users\stapi\AppData\Local\Temp\ccQ89eao.s:4522   .debug_str:000000000000073b .LASF58
C:\Users\stapi\AppData\Local\Temp\ccQ89eao.s:4626   .debug_str:0000000000000ba8 .LASF59
C:\Users\stapi\AppData\Local\Temp\ccQ89eao.s:4488   .debug_str:000000000000060d .LASF64
C:\Users\stapi\AppData\Local\Temp\ccQ89eao.s:1481   .text.i2c_interrupt_flag_clear:0000000000000000 .LFB427
C:\Users\stapi\AppData\Local\Temp\ccQ89eao.s:1497   .text.i2c_interrupt_flag_clear:000000000000000c .LFE427
C:\Users\stapi\AppData\Local\Temp\ccQ89eao.s:4580   .debug_str:0000000000000a14 .LASF60
C:\Users\stapi\AppData\Local\Temp\ccQ89eao.s:4560   .debug_str:0000000000000970 .LASF61
C:\Users\stapi\AppData\Local\Temp\ccQ89eao.s:3596   .debug_loc:0000000000000000 .LLST22
C:\Users\stapi\AppData\Local\Temp\ccQ89eao.s:4418   .debug_str:0000000000000291 .LASF70
C:\Users\stapi\AppData\Local\Temp\ccQ89eao.s:1430   .text.i2c_interrupt_flag_get:0000000000000000 .LFB426
C:\Users\stapi\AppData\Local\Temp\ccQ89eao.s:1474   .text.i2c_interrupt_flag_get:000000000000002e .LFE426
C:\Users\stapi\AppData\Local\Temp\ccQ89eao.s:3610   .debug_loc:0000000000000021 .LLST19
C:\Users\stapi\AppData\Local\Temp\ccQ89eao.s:4434   .debug_str:0000000000000322 .LASF62
C:\Users\stapi\AppData\Local\Temp\ccQ89eao.s:3628   .debug_loc:000000000000004d .LLST20
C:\Users\stapi\AppData\Local\Temp\ccQ89eao.s:4436   .debug_str:0000000000000327 .LASF63
C:\Users\stapi\AppData\Local\Temp\ccQ89eao.s:3640   .debug_loc:000000000000006c .LLST21
C:\Users\stapi\AppData\Local\Temp\ccQ89eao.s:4402   .debug_str:000000000000021a .LASF65
C:\Users\stapi\AppData\Local\Temp\ccQ89eao.s:1410   .text.i2c_interrupt_disable:0000000000000000 .LFB425
C:\Users\stapi\AppData\Local\Temp\ccQ89eao.s:1423   .text.i2c_interrupt_disable:000000000000000a .LFE425
C:\Users\stapi\AppData\Local\Temp\ccQ89eao.s:4406   .debug_str:0000000000000245 .LASF66
C:\Users\stapi\AppData\Local\Temp\ccQ89eao.s:3691   .debug_loc:00000000000000c0 .LLST18
C:\Users\stapi\AppData\Local\Temp\ccQ89eao.s:4348   .debug_str:000000000000002b .LASF67
C:\Users\stapi\AppData\Local\Temp\ccQ89eao.s:1391   .text.i2c_interrupt_enable:0000000000000000 .LFB424
C:\Users\stapi\AppData\Local\Temp\ccQ89eao.s:1403   .text.i2c_interrupt_enable:0000000000000008 .LFE424
C:\Users\stapi\AppData\Local\Temp\ccQ89eao.s:4524   .debug_str:000000000000074f .LASF68
C:\Users\stapi\AppData\Local\Temp\ccQ89eao.s:1372   .text.i2c_flag_clear:0000000000000000 .LFB423
C:\Users\stapi\AppData\Local\Temp\ccQ89eao.s:1384   .text.i2c_flag_clear:0000000000000008 .LFE423
C:\Users\stapi\AppData\Local\Temp\ccQ89eao.s:4566   .debug_str:00000000000009a6 .LASF69
C:\Users\stapi\AppData\Local\Temp\ccQ89eao.s:4518   .debug_str:0000000000000724 .LASF71
C:\Users\stapi\AppData\Local\Temp\ccQ89eao.s:1351   .text.i2c_flag_get:0000000000000000 .LFB422
C:\Users\stapi\AppData\Local\Temp\ccQ89eao.s:1365   .text.i2c_flag_get:000000000000000a .LFE422
C:\Users\stapi\AppData\Local\Temp\ccQ89eao.s:3705   .debug_loc:00000000000000e1 .LLST17
C:\Users\stapi\AppData\Local\Temp\ccQ89eao.s:4608   .debug_str:0000000000000b02 .LASF72
C:\Users\stapi\AppData\Local\Temp\ccQ89eao.s:1327   .text.i2c_idle_clock_timeout_config:0000000000000000 .LFB421
C:\Users\stapi\AppData\Local\Temp\ccQ89eao.s:1344   .text.i2c_idle_clock_timeout_config:0000000000000010 .LFE421
C:\Users\stapi\AppData\Local\Temp\ccQ89eao.s:4450   .debug_str:000000000000049a .LASF73
C:\Users\stapi\AppData\Local\Temp\ccQ89eao.s:4600   .debug_str:0000000000000ac2 .LASF74
C:\Users\stapi\AppData\Local\Temp\ccQ89eao.s:1302   .text.i2c_bus_timeout_a_config:0000000000000000 .LFB420
C:\Users\stapi\AppData\Local\Temp\ccQ89eao.s:1320   .text.i2c_bus_timeout_a_config:0000000000000010 .LFE420
C:\Users\stapi\AppData\Local\Temp\ccQ89eao.s:4388   .debug_str:000000000000019f .LASF75
C:\Users\stapi\AppData\Local\Temp\ccQ89eao.s:1272   .text.i2c_bus_timeout_b_config:0000000000000000 .LFB419
C:\Users\stapi\AppData\Local\Temp\ccQ89eao.s:1295   .text.i2c_bus_timeout_b_config:0000000000000016 .LFE419
C:\Users\stapi\AppData\Local\Temp\ccQ89eao.s:3719   .debug_loc:0000000000000102 .LLST16
C:\Users\stapi\AppData\Local\Temp\ccQ89eao.s:4504   .debug_str:000000000000068c .LASF76
C:\Users\stapi\AppData\Local\Temp\ccQ89eao.s:1253   .text.i2c_clock_timeout_disable:0000000000000000 .LFB418
C:\Users\stapi\AppData\Local\Temp\ccQ89eao.s:1265   .text.i2c_clock_timeout_disable:000000000000000a .LFE418
C:\Users\stapi\AppData\Local\Temp\ccQ89eao.s:4542   .debug_str:00000000000007f0 .LASF77
C:\Users\stapi\AppData\Local\Temp\ccQ89eao.s:1234   .text.i2c_clock_timeout_enable:0000000000000000 .LFB417
C:\Users\stapi\AppData\Local\Temp\ccQ89eao.s:1246   .text.i2c_clock_timeout_enable:000000000000000a .LFE417
C:\Users\stapi\AppData\Local\Temp\ccQ89eao.s:4466   .debug_str:0000000000000520 .LASF78
C:\Users\stapi\AppData\Local\Temp\ccQ89eao.s:1214   .text.i2c_extented_clock_timeout_disable:0000000000000000 .LFB416
C:\Users\stapi\AppData\Local\Temp\ccQ89eao.s:1227   .text.i2c_extented_clock_timeout_disable:000000000000000e .LFE416
C:\Users\stapi\AppData\Local\Temp\ccQ89eao.s:4448   .debug_str:0000000000000478 .LASF79
C:\Users\stapi\AppData\Local\Temp\ccQ89eao.s:1194   .text.i2c_extented_clock_timeout_enable:0000000000000000 .LFB415
C:\Users\stapi\AppData\Local\Temp\ccQ89eao.s:1207   .text.i2c_extented_clock_timeout_enable:000000000000000c .LFE415
C:\Users\stapi\AppData\Local\Temp\ccQ89eao.s:4486   .debug_str:00000000000005f1 .LASF80
C:\Users\stapi\AppData\Local\Temp\ccQ89eao.s:1175   .text.i2c_smbus_host_addr_disable:0000000000000000 .LFB414
C:\Users\stapi\AppData\Local\Temp\ccQ89eao.s:1187   .text.i2c_smbus_host_addr_disable:000000000000000a .LFE414
C:\Users\stapi\AppData\Local\Temp\ccQ89eao.s:4508   .debug_str:00000000000006b9 .LASF81
C:\Users\stapi\AppData\Local\Temp\ccQ89eao.s:1156   .text.i2c_smbus_host_addr_enable:0000000000000000 .LFB413
C:\Users\stapi\AppData\Local\Temp\ccQ89eao.s:1168   .text.i2c_smbus_host_addr_enable:000000000000000a .LFE413
C:\Users\stapi\AppData\Local\Temp\ccQ89eao.s:4514   .debug_str:00000000000006fc .LASF82
C:\Users\stapi\AppData\Local\Temp\ccQ89eao.s:1137   .text.i2c_smbus_default_addr_disable:0000000000000000 .LFB412
C:\Users\stapi\AppData\Local\Temp\ccQ89eao.s:1149   .text.i2c_smbus_default_addr_disable:000000000000000a .LFE412
C:\Users\stapi\AppData\Local\Temp\ccQ89eao.s:4422   .debug_str:00000000000002b3 .LASF83
C:\Users\stapi\AppData\Local\Temp\ccQ89eao.s:1118   .text.i2c_smbus_default_addr_enable:0000000000000000 .LFB411
C:\Users\stapi\AppData\Local\Temp\ccQ89eao.s:1130   .text.i2c_smbus_default_addr_enable:000000000000000a .LFE411
C:\Users\stapi\AppData\Local\Temp\ccQ89eao.s:4574   .debug_str:00000000000009cd .LASF84
C:\Users\stapi\AppData\Local\Temp\ccQ89eao.s:1099   .text.i2c_smbus_alert_disable:0000000000000000 .LFB410
C:\Users\stapi\AppData\Local\Temp\ccQ89eao.s:1111   .text.i2c_smbus_alert_disable:000000000000000a .LFE410
C:\Users\stapi\AppData\Local\Temp\ccQ89eao.s:4538   .debug_str:00000000000007d4 .LASF85
C:\Users\stapi\AppData\Local\Temp\ccQ89eao.s:1080   .text.i2c_smbus_alert_enable:0000000000000000 .LFB409
C:\Users\stapi\AppData\Local\Temp\ccQ89eao.s:1092   .text.i2c_smbus_alert_enable:000000000000000a .LFE409
C:\Users\stapi\AppData\Local\Temp\ccQ89eao.s:4476   .debug_str:0000000000000590 .LASF86
C:\Users\stapi\AppData\Local\Temp\ccQ89eao.s:1061   .text.i2c_pec_value_get:0000000000000000 .LFB408
C:\Users\stapi\AppData\Local\Temp\ccQ89eao.s:1073   .text.i2c_pec_value_get:0000000000000008 .LFE408
C:\Users\stapi\AppData\Local\Temp\ccQ89eao.s:3733   .debug_loc:0000000000000123 .LLST15
C:\Users\stapi\AppData\Local\Temp\ccQ89eao.s:4582   .debug_str:0000000000000a1f .LASF87
C:\Users\stapi\AppData\Local\Temp\ccQ89eao.s:1042   .text.i2c_pec_disable:0000000000000000 .LFB407
C:\Users\stapi\AppData\Local\Temp\ccQ89eao.s:1054   .text.i2c_pec_disable:000000000000000a .LFE407
C:\Users\stapi\AppData\Local\Temp\ccQ89eao.s:4632   .debug_str:0000000000000bea .LASF88
C:\Users\stapi\AppData\Local\Temp\ccQ89eao.s:1023   .text.i2c_pec_enable:0000000000000000 .LFB406
C:\Users\stapi\AppData\Local\Temp\ccQ89eao.s:1035   .text.i2c_pec_enable:000000000000000a .LFE406
C:\Users\stapi\AppData\Local\Temp\ccQ89eao.s:4630   .debug_str:0000000000000bd9 .LASF89
C:\Users\stapi\AppData\Local\Temp\ccQ89eao.s:1004   .text.i2c_pec_transfer:0000000000000000 .LFB405
C:\Users\stapi\AppData\Local\Temp\ccQ89eao.s:1016   .text.i2c_pec_transfer:000000000000000a .LFE405
C:\Users\stapi\AppData\Local\Temp\ccQ89eao.s:4612   .debug_str:0000000000000b31 .LASF90
C:\Users\stapi\AppData\Local\Temp\ccQ89eao.s:974    .text.i2c_dma_disable:0000000000000000 .LFB404
C:\Users\stapi\AppData\Local\Temp\ccQ89eao.s:997    .text.i2c_dma_disable:0000000000000012 .LFE404
C:\Users\stapi\AppData\Local\Temp\ccQ89eao.s:4568   .debug_str:00000000000009ab .LASF91
C:\Users\stapi\AppData\Local\Temp\ccQ89eao.s:944    .text.i2c_dma_enable:0000000000000000 .LFB403
C:\Users\stapi\AppData\Local\Temp\ccQ89eao.s:967    .text.i2c_dma_enable:0000000000000012 .LFE403
C:\Users\stapi\AppData\Local\Temp\ccQ89eao.s:4532   .debug_str:00000000000007a4 .LASF92
C:\Users\stapi\AppData\Local\Temp\ccQ89eao.s:914    .text.i2c_transfer_byte_number_config:0000000000000000 .LFB402
C:\Users\stapi\AppData\Local\Temp\ccQ89eao.s:937    .text.i2c_transfer_byte_number_config:0000000000000016 .LFE402
C:\Users\stapi\AppData\Local\Temp\ccQ89eao.s:4372   .debug_str:000000000000010f .LASF93
C:\Users\stapi\AppData\Local\Temp\ccQ89eao.s:3747   .debug_loc:0000000000000144 .LLST14
C:\Users\stapi\AppData\Local\Temp\ccQ89eao.s:4364   .debug_str:00000000000000a5 .LASF94
C:\Users\stapi\AppData\Local\Temp\ccQ89eao.s:895    .text.i2c_reload_disable:0000000000000000 .LFB401
C:\Users\stapi\AppData\Local\Temp\ccQ89eao.s:907    .text.i2c_reload_disable:000000000000000a .LFE401
C:\Users\stapi\AppData\Local\Temp\ccQ89eao.s:4550   .debug_str:000000000000082a .LASF95
C:\Users\stapi\AppData\Local\Temp\ccQ89eao.s:876    .text.i2c_reload_enable:0000000000000000 .LFB400
C:\Users\stapi\AppData\Local\Temp\ccQ89eao.s:888    .text.i2c_reload_enable:000000000000000a .LFE400
C:\Users\stapi\AppData\Local\Temp\ccQ89eao.s:4556   .debug_str:00000000000008e1 .LASF96
C:\Users\stapi\AppData\Local\Temp\ccQ89eao.s:857    .text.i2c_data_receive:0000000000000000 .LFB399
C:\Users\stapi\AppData\Local\Temp\ccQ89eao.s:869    .text.i2c_data_receive:0000000000000008 .LFE399
C:\Users\stapi\AppData\Local\Temp\ccQ89eao.s:3761   .debug_loc:0000000000000165 .LLST13
C:\Users\stapi\AppData\Local\Temp\ccQ89eao.s:4464   .debug_str:000000000000050e .LASF97
C:\Users\stapi\AppData\Local\Temp\ccQ89eao.s:837    .text.i2c_data_transmit:0000000000000000 .LFB398
C:\Users\stapi\AppData\Local\Temp\ccQ89eao.s:850    .text.i2c_data_transmit:0000000000000008 .LFE398
C:\Users\stapi\AppData\Local\Temp\ccQ89eao.s:4456   .debug_str:00000000000004ca .LASF98
C:\Users\stapi\AppData\Local\Temp\ccQ89eao.s:3775   .debug_loc:0000000000000186 .LLST12
C:\Users\stapi\AppData\Local\Temp\ccQ89eao.s:4394   .debug_str:00000000000001ce .LASF99
C:\Users\stapi\AppData\Local\Temp\ccQ89eao.s:818    .text.i2c_stop_on_bus:0000000000000000 .LFB397
C:\Users\stapi\AppData\Local\Temp\ccQ89eao.s:830    .text.i2c_stop_on_bus:000000000000000a .LFE397
C:\Users\stapi\AppData\Local\Temp\ccQ89eao.s:4610   .debug_str:0000000000000b20 .LASF100
C:\Users\stapi\AppData\Local\Temp\ccQ89eao.s:799    .text.i2c_start_on_bus:0000000000000000 .LFB396
C:\Users\stapi\AppData\Local\Temp\ccQ89eao.s:811    .text.i2c_start_on_bus:000000000000000a .LFE396
C:\Users\stapi\AppData\Local\Temp\ccQ89eao.s:4634   .debug_str:0000000000000bf9 .LASF101
C:\Users\stapi\AppData\Local\Temp\ccQ89eao.s:780    .text.i2c_disable:0000000000000000 .LFB395
C:\Users\stapi\AppData\Local\Temp\ccQ89eao.s:792    .text.i2c_disable:0000000000000008 .LFE395
C:\Users\stapi\AppData\Local\Temp\ccQ89eao.s:4382   .debug_str:000000000000016d .LASF102
C:\Users\stapi\AppData\Local\Temp\ccQ89eao.s:761    .text.i2c_enable:0000000000000000 .LFB394
C:\Users\stapi\AppData\Local\Temp\ccQ89eao.s:773    .text.i2c_enable:000000000000000a .LFE394
C:\Users\stapi\AppData\Local\Temp\ccQ89eao.s:4368   .debug_str:00000000000000cd .LASF103
C:\Users\stapi\AppData\Local\Temp\ccQ89eao.s:742    .text.i2c_wakeup_from_deepsleep_disable:0000000000000000 .LFB393
C:\Users\stapi\AppData\Local\Temp\ccQ89eao.s:754    .text.i2c_wakeup_from_deepsleep_disable:000000000000000a .LFE393
C:\Users\stapi\AppData\Local\Temp\ccQ89eao.s:4526   .debug_str:000000000000075e .LASF104
C:\Users\stapi\AppData\Local\Temp\ccQ89eao.s:723    .text.i2c_wakeup_from_deepsleep_enable:0000000000000000 .LFB392
C:\Users\stapi\AppData\Local\Temp\ccQ89eao.s:735    .text.i2c_wakeup_from_deepsleep_enable:000000000000000a .LFE392
C:\Users\stapi\AppData\Local\Temp\ccQ89eao.s:4492   .debug_str:000000000000063a .LASF105
C:\Users\stapi\AppData\Local\Temp\ccQ89eao.s:704    .text.i2c_nack_disable:0000000000000000 .LFB391
C:\Users\stapi\AppData\Local\Temp\ccQ89eao.s:716    .text.i2c_nack_disable:000000000000000a .LFE391
C:\Users\stapi\AppData\Local\Temp\ccQ89eao.s:4352   .debug_str:000000000000004b .LASF106
C:\Users\stapi\AppData\Local\Temp\ccQ89eao.s:685    .text.i2c_nack_enable:0000000000000000 .LFB390
C:\Users\stapi\AppData\Local\Temp\ccQ89eao.s:697    .text.i2c_nack_enable:000000000000000a .LFE390
C:\Users\stapi\AppData\Local\Temp\ccQ89eao.s:4528   .debug_str:000000000000077f .LASF107
C:\Users\stapi\AppData\Local\Temp\ccQ89eao.s:666    .text.i2c_slave_byte_control_disable:0000000000000000 .LFB389
C:\Users\stapi\AppData\Local\Temp\ccQ89eao.s:678    .text.i2c_slave_byte_control_disable:000000000000000a .LFE389
C:\Users\stapi\AppData\Local\Temp\ccQ89eao.s:4562   .debug_str:0000000000000979 .LASF108
C:\Users\stapi\AppData\Local\Temp\ccQ89eao.s:647    .text.i2c_slave_byte_control_enable:0000000000000000 .LFB388
C:\Users\stapi\AppData\Local\Temp\ccQ89eao.s:659    .text.i2c_slave_byte_control_enable:000000000000000a .LFE388
C:\Users\stapi\AppData\Local\Temp\ccQ89eao.s:4628   .debug_str:0000000000000bc0 .LASF109
C:\Users\stapi\AppData\Local\Temp\ccQ89eao.s:626    .text.i2c_recevied_address_get:0000000000000000 .LFB387
C:\Users\stapi\AppData\Local\Temp\ccQ89eao.s:640    .text.i2c_recevied_address_get:000000000000000a .LFE387
C:\Users\stapi\AppData\Local\Temp\ccQ89eao.s:3789   .debug_loc:00000000000001a7 .LLST11
C:\Users\stapi\AppData\Local\Temp\ccQ89eao.s:4454   .debug_str:00000000000004af .LASF110
C:\Users\stapi\AppData\Local\Temp\ccQ89eao.s:607    .text.i2c_second_address_disable:0000000000000000 .LFB386
C:\Users\stapi\AppData\Local\Temp\ccQ89eao.s:619    .text.i2c_second_address_disable:000000000000000a .LFE386
C:\Users\stapi\AppData\Local\Temp\ccQ89eao.s:4428   .debug_str:00000000000002e5 .LASF111
C:\Users\stapi\AppData\Local\Temp\ccQ89eao.s:564    .text.i2c_second_address_config:0000000000000000 .LFB385
C:\Users\stapi\AppData\Local\Temp\ccQ89eao.s:600    .text.i2c_second_address_config:0000000000000024 .LFE385
C:\Users\stapi\AppData\Local\Temp\ccQ89eao.s:4496   .debug_str:0000000000000656 .LASF112
C:\Users\stapi\AppData\Local\Temp\ccQ89eao.s:3803   .debug_loc:00000000000001c8 .LLST9
C:\Users\stapi\AppData\Local\Temp\ccQ89eao.s:4438   .debug_str:000000000000032c .LASF113
C:\Users\stapi\AppData\Local\Temp\ccQ89eao.s:3833   .debug_loc:0000000000000207 .LLST10
C:\Users\stapi\AppData\Local\Temp\ccQ89eao.s:4490   .debug_str:0000000000000626 .LASF114
C:\Users\stapi\AppData\Local\Temp\ccQ89eao.s:545    .text.i2c_address_disable:0000000000000000 .LFB384
C:\Users\stapi\AppData\Local\Temp\ccQ89eao.s:557    .text.i2c_address_disable:000000000000000a .LFE384
C:\Users\stapi\AppData\Local\Temp\ccQ89eao.s:4400   .debug_str:00000000000001fb .LASF115
C:\Users\stapi\AppData\Local\Temp\ccQ89eao.s:517    .text.i2c_address_bit_compare_config:0000000000000000 .LFB383
C:\Users\stapi\AppData\Local\Temp\ccQ89eao.s:538    .text.i2c_address_bit_compare_config:0000000000000018 .LFE383
C:\Users\stapi\AppData\Local\Temp\ccQ89eao.s:3847   .debug_loc:0000000000000228 .LLST8
C:\Users\stapi\AppData\Local\Temp\ccQ89eao.s:4552   .debug_str:000000000000083c .LASF116
C:\Users\stapi\AppData\Local\Temp\ccQ89eao.s:4506   .debug_str:00000000000006a6 .LASF117
C:\Users\stapi\AppData\Local\Temp\ccQ89eao.s:488    .text.i2c_address_config:0000000000000000 .LFB382
C:\Users\stapi\AppData\Local\Temp\ccQ89eao.s:510    .text.i2c_address_config:0000000000000012 .LFE382
C:\Users\stapi\AppData\Local\Temp\ccQ89eao.s:3860   .debug_loc:0000000000000249 .LLST7
C:\Users\stapi\AppData\Local\Temp\ccQ89eao.s:4480   .debug_str:00000000000005bf .LASF118
C:\Users\stapi\AppData\Local\Temp\ccQ89eao.s:4380   .debug_str:0000000000000151 .LASF119
C:\Users\stapi\AppData\Local\Temp\ccQ89eao.s:469    .text.i2c_stretch_scl_low_disable:0000000000000000 .LFB381
C:\Users\stapi\AppData\Local\Temp\ccQ89eao.s:481    .text.i2c_stretch_scl_low_disable:000000000000000a .LFE381
C:\Users\stapi\AppData\Local\Temp\ccQ89eao.s:4584   .debug_str:0000000000000a2f .LASF120
C:\Users\stapi\AppData\Local\Temp\ccQ89eao.s:450    .text.i2c_stretch_scl_low_enable:0000000000000000 .LFB380
C:\Users\stapi\AppData\Local\Temp\ccQ89eao.s:462    .text.i2c_stretch_scl_low_enable:000000000000000a .LFE380
C:\Users\stapi\AppData\Local\Temp\ccQ89eao.s:4576   .debug_str:00000000000009e5 .LASF121
C:\Users\stapi\AppData\Local\Temp\ccQ89eao.s:431    .text.i2c_slave_response_to_gcall_disable:0000000000000000 .LFB379
C:\Users\stapi\AppData\Local\Temp\ccQ89eao.s:443    .text.i2c_slave_response_to_gcall_disable:000000000000000a .LFE379
C:\Users\stapi\AppData\Local\Temp\ccQ89eao.s:4442   .debug_str:000000000000042f .LASF122
C:\Users\stapi\AppData\Local\Temp\ccQ89eao.s:412    .text.i2c_slave_response_to_gcall_enable:0000000000000000 .LFB378
C:\Users\stapi\AppData\Local\Temp\ccQ89eao.s:424    .text.i2c_slave_response_to_gcall_enable:000000000000000a .LFE378
C:\Users\stapi\AppData\Local\Temp\ccQ89eao.s:4586   .debug_str:0000000000000a4a .LASF123
C:\Users\stapi\AppData\Local\Temp\ccQ89eao.s:393    .text.i2c_automatic_end_disable:0000000000000000 .LFB377
C:\Users\stapi\AppData\Local\Temp\ccQ89eao.s:405    .text.i2c_automatic_end_disable:000000000000000a .LFE377
C:\Users\stapi\AppData\Local\Temp\ccQ89eao.s:4472   .debug_str:000000000000055e .LASF124
C:\Users\stapi\AppData\Local\Temp\ccQ89eao.s:374    .text.i2c_automatic_end_enable:0000000000000000 .LFB376
C:\Users\stapi\AppData\Local\Temp\ccQ89eao.s:386    .text.i2c_automatic_end_enable:000000000000000a .LFE376
C:\Users\stapi\AppData\Local\Temp\ccQ89eao.s:4430   .debug_str:00000000000002ff .LASF125
C:\Users\stapi\AppData\Local\Temp\ccQ89eao.s:355    .text.i2c_address10_disable:0000000000000000 .LFB375
C:\Users\stapi\AppData\Local\Temp\ccQ89eao.s:367    .text.i2c_address10_disable:000000000000000a .LFE375
C:\Users\stapi\AppData\Local\Temp\ccQ89eao.s:4624   .debug_str:0000000000000b93 .LASF126
C:\Users\stapi\AppData\Local\Temp\ccQ89eao.s:336    .text.i2c_address10_enable:0000000000000000 .LFB374
C:\Users\stapi\AppData\Local\Temp\ccQ89eao.s:348    .text.i2c_address10_enable:000000000000000a .LFE374
C:\Users\stapi\AppData\Local\Temp\ccQ89eao.s:4478   .debug_str:00000000000005a2 .LASF127
C:\Users\stapi\AppData\Local\Temp\ccQ89eao.s:317    .text.i2c_address10_header_disable:0000000000000000 .LFB373
C:\Users\stapi\AppData\Local\Temp\ccQ89eao.s:329    .text.i2c_address10_header_disable:000000000000000a .LFE373
C:\Users\stapi\AppData\Local\Temp\ccQ89eao.s:4374   .debug_str:000000000000011b .LASF128
C:\Users\stapi\AppData\Local\Temp\ccQ89eao.s:298    .text.i2c_address10_header_enable:0000000000000000 .LFB372
C:\Users\stapi\AppData\Local\Temp\ccQ89eao.s:310    .text.i2c_address10_header_enable:000000000000000a .LFE372
C:\Users\stapi\AppData\Local\Temp\ccQ89eao.s:4500   .debug_str:0000000000000669 .LASF129
C:\Users\stapi\AppData\Local\Temp\ccQ89eao.s:264    .text.i2c_master_addressing:0000000000000000 .LFB371
C:\Users\stapi\AppData\Local\Temp\ccQ89eao.s:291    .text.i2c_master_addressing:000000000000001e .LFE371
C:\Users\stapi\AppData\Local\Temp\ccQ89eao.s:4512   .debug_str:00000000000006ec .LASF130
C:\Users\stapi\AppData\Local\Temp\ccQ89eao.s:4510   .debug_str:00000000000006d4 .LASF131
C:\Users\stapi\AppData\Local\Temp\ccQ89eao.s:214    .text.i2c_master_clock_config:0000000000000000 .LFB370
C:\Users\stapi\AppData\Local\Temp\ccQ89eao.s:257    .text.i2c_master_clock_config:000000000000002a .LFE370
C:\Users\stapi\AppData\Local\Temp\ccQ89eao.s:4534   .debug_str:00000000000007c4 .LASF132
C:\Users\stapi\AppData\Local\Temp\ccQ89eao.s:3890   .debug_loc:000000000000028a .LLST5
C:\Users\stapi\AppData\Local\Temp\ccQ89eao.s:4540   .debug_str:00000000000007eb .LASF133
C:\Users\stapi\AppData\Local\Temp\ccQ89eao.s:3925   .debug_loc:00000000000002d0 .LLST6
C:\Users\stapi\AppData\Local\Temp\ccQ89eao.s:4370   .debug_str:00000000000000ef .LASF134
C:\Users\stapi\AppData\Local\Temp\ccQ89eao.s:195    .text.i2c_analog_noise_filter_disable:0000000000000000 .LFB369
C:\Users\stapi\AppData\Local\Temp\ccQ89eao.s:207    .text.i2c_analog_noise_filter_disable:000000000000000a .LFE369
C:\Users\stapi\AppData\Local\Temp\ccQ89eao.s:4588   .debug_str:0000000000000a64 .LASF135
C:\Users\stapi\AppData\Local\Temp\ccQ89eao.s:176    .text.i2c_analog_noise_filter_enable:0000000000000000 .LFB368
C:\Users\stapi\AppData\Local\Temp\ccQ89eao.s:188    .text.i2c_analog_noise_filter_enable:000000000000000a .LFE368
C:\Users\stapi\AppData\Local\Temp\ccQ89eao.s:4462   .debug_str:00000000000004ee .LASF136
C:\Users\stapi\AppData\Local\Temp\ccQ89eao.s:146    .text.i2c_digital_noise_filter_config:0000000000000000 .LFB367
C:\Users\stapi\AppData\Local\Temp\ccQ89eao.s:169    .text.i2c_digital_noise_filter_config:0000000000000016 .LFE367
C:\Users\stapi\AppData\Local\Temp\ccQ89eao.s:4344   .debug_str:000000000000000d .LASF137
C:\Users\stapi\AppData\Local\Temp\ccQ89eao.s:3939   .debug_loc:00000000000002f1 .LLST4
C:\Users\stapi\AppData\Local\Temp\ccQ89eao.s:4614   .debug_str:0000000000000b41 .LASF138
C:\Users\stapi\AppData\Local\Temp\ccQ89eao.s:75     .text.i2c_timing_config:0000000000000000 .LFB366
C:\Users\stapi\AppData\Local\Temp\ccQ89eao.s:139    .text.i2c_timing_config:000000000000003e .LFE366
C:\Users\stapi\AppData\Local\Temp\ccQ89eao.s:3953   .debug_loc:0000000000000312 .LLST1
C:\Users\stapi\AppData\Local\Temp\ccQ89eao.s:4426   .debug_str:00000000000002dc .LASF139
C:\Users\stapi\AppData\Local\Temp\ccQ89eao.s:3981   .debug_loc:000000000000034f .LLST2
C:\Users\stapi\AppData\Local\Temp\ccQ89eao.s:4516   .debug_str:000000000000071b .LASF140
C:\Users\stapi\AppData\Local\Temp\ccQ89eao.s:4009   .debug_loc:000000000000038c .LLST3
C:\Users\stapi\AppData\Local\Temp\ccQ89eao.s:4546   .debug_str:0000000000000815 .LASF141
C:\Users\stapi\AppData\Local\Temp\ccQ89eao.s:14     .text.i2c_deinit:0000000000000000 .LFB365
C:\Users\stapi\AppData\Local\Temp\ccQ89eao.s:68     .text.i2c_deinit:0000000000000058 .LFE365
C:\Users\stapi\AppData\Local\Temp\ccQ89eao.s:4037   .debug_loc:00000000000003c9 .LLST0
C:\Users\stapi\AppData\Local\Temp\ccQ89eao.s:46     .text.i2c_deinit:0000000000000036 .LVL4
C:\Users\stapi\AppData\Local\Temp\ccQ89eao.s:52     .text.i2c_deinit:0000000000000042 .LVL5
C:\Users\stapi\AppData\Local\Temp\ccQ89eao.s:63     .text.i2c_deinit:0000000000000052 .LVL8
C:\Users\stapi\AppData\Local\Temp\ccQ89eao.s:4618   .debug_str:0000000000000b5f .LASF142
C:\Users\stapi\AppData\Local\Temp\ccQ89eao.s:4474   .debug_str:0000000000000577 .LASF143
C:\Users\stapi\AppData\Local\Temp\ccQ89eao.s:1484   .text.i2c_interrupt_flag_clear:0000000000000000 .LVL102
C:\Users\stapi\AppData\Local\Temp\ccQ89eao.s:1490   .text.i2c_interrupt_flag_clear:0000000000000004 .LVL103
C:\Users\stapi\AppData\Local\Temp\ccQ89eao.s:1433   .text.i2c_interrupt_flag_get:0000000000000000 .LVL95
C:\Users\stapi\AppData\Local\Temp\ccQ89eao.s:1445   .text.i2c_interrupt_flag_get:000000000000000e .LVL96
C:\Users\stapi\AppData\Local\Temp\ccQ89eao.s:1455   .text.i2c_interrupt_flag_get:000000000000001a .LVL98
C:\Users\stapi\AppData\Local\Temp\ccQ89eao.s:1450   .text.i2c_interrupt_flag_get:0000000000000014 .LVL97
C:\Users\stapi\AppData\Local\Temp\ccQ89eao.s:1463   .text.i2c_interrupt_flag_get:0000000000000022 .LVL100
C:\Users\stapi\AppData\Local\Temp\ccQ89eao.s:1457   .text.i2c_interrupt_flag_get:000000000000001c .LVL99
C:\Users\stapi\AppData\Local\Temp\ccQ89eao.s:1465   .text.i2c_interrupt_flag_get:0000000000000026 .LVL101
C:\Users\stapi\AppData\Local\Temp\ccQ89eao.s:1413   .text.i2c_interrupt_disable:0000000000000000 .LVL93
C:\Users\stapi\AppData\Local\Temp\ccQ89eao.s:1418   .text.i2c_interrupt_disable:0000000000000006 .LVL94
C:\Users\stapi\AppData\Local\Temp\ccQ89eao.s:1354   .text.i2c_flag_get:0000000000000000 .LVL89
C:\Users\stapi\AppData\Local\Temp\ccQ89eao.s:1358   .text.i2c_flag_get:0000000000000002 .LVL90
C:\Users\stapi\AppData\Local\Temp\ccQ89eao.s:1275   .text.i2c_bus_timeout_b_config:0000000000000000 .LVL85
C:\Users\stapi\AppData\Local\Temp\ccQ89eao.s:1288   .text.i2c_bus_timeout_b_config:0000000000000010 .LVL86
C:\Users\stapi\AppData\Local\Temp\ccQ89eao.s:1064   .text.i2c_pec_value_get:0000000000000000 .LVL73
C:\Users\stapi\AppData\Local\Temp\ccQ89eao.s:1068   .text.i2c_pec_value_get:0000000000000002 .LVL74
C:\Users\stapi\AppData\Local\Temp\ccQ89eao.s:917    .text.i2c_transfer_byte_number_config:0000000000000000 .LVL66
C:\Users\stapi\AppData\Local\Temp\ccQ89eao.s:930    .text.i2c_transfer_byte_number_config:0000000000000010 .LVL67
C:\Users\stapi\AppData\Local\Temp\ccQ89eao.s:860    .text.i2c_data_receive:0000000000000000 .LVL62
C:\Users\stapi\AppData\Local\Temp\ccQ89eao.s:864    .text.i2c_data_receive:0000000000000002 .LVL63
C:\Users\stapi\AppData\Local\Temp\ccQ89eao.s:840    .text.i2c_data_transmit:0000000000000000 .LVL60
C:\Users\stapi\AppData\Local\Temp\ccQ89eao.s:844    .text.i2c_data_transmit:0000000000000004 .LVL61
C:\Users\stapi\AppData\Local\Temp\ccQ89eao.s:629    .text.i2c_recevied_address_get:0000000000000000 .LVL48
C:\Users\stapi\AppData\Local\Temp\ccQ89eao.s:633    .text.i2c_recevied_address_get:0000000000000002 .LVL49
C:\Users\stapi\AppData\Local\Temp\ccQ89eao.s:567    .text.i2c_second_address_config:0000000000000000 .LVL43
C:\Users\stapi\AppData\Local\Temp\ccQ89eao.s:574    .text.i2c_second_address_config:0000000000000006 .LVL44
C:\Users\stapi\AppData\Local\Temp\ccQ89eao.s:580    .text.i2c_second_address_config:000000000000000a .LVL46
C:\Users\stapi\AppData\Local\Temp\ccQ89eao.s:577    .text.i2c_second_address_config:0000000000000008 .LVL45
C:\Users\stapi\AppData\Local\Temp\ccQ89eao.s:520    .text.i2c_address_bit_compare_config:0000000000000000 .LVL40
C:\Users\stapi\AppData\Local\Temp\ccQ89eao.s:524    .text.i2c_address_bit_compare_config:0000000000000004 .LVL41
C:\Users\stapi\AppData\Local\Temp\ccQ89eao.s:491    .text.i2c_address_config:0000000000000000 .LVL37
C:\Users\stapi\AppData\Local\Temp\ccQ89eao.s:496    .text.i2c_address_config:0000000000000004 .LVL38
C:\Users\stapi\AppData\Local\Temp\ccQ89eao.s:499    .text.i2c_address_config:0000000000000006 .LVL39
C:\Users\stapi\AppData\Local\Temp\ccQ89eao.s:217    .text.i2c_master_clock_config:0000000000000000 .LVL21
C:\Users\stapi\AppData\Local\Temp\ccQ89eao.s:230    .text.i2c_master_clock_config:0000000000000010 .LVL22
C:\Users\stapi\AppData\Local\Temp\ccQ89eao.s:238    .text.i2c_master_clock_config:000000000000001a .LVL24
C:\Users\stapi\AppData\Local\Temp\ccQ89eao.s:248    .text.i2c_master_clock_config:0000000000000022 .LVL25
C:\Users\stapi\AppData\Local\Temp\ccQ89eao.s:233    .text.i2c_master_clock_config:0000000000000014 .LVL23
C:\Users\stapi\AppData\Local\Temp\ccQ89eao.s:149    .text.i2c_digital_noise_filter_config:0000000000000000 .LVL17
C:\Users\stapi\AppData\Local\Temp\ccQ89eao.s:162    .text.i2c_digital_noise_filter_config:0000000000000010 .LVL18
C:\Users\stapi\AppData\Local\Temp\ccQ89eao.s:78     .text.i2c_timing_config:0000000000000000 .LVL9
C:\Users\stapi\AppData\Local\Temp\ccQ89eao.s:109    .text.i2c_timing_config:0000000000000024 .LVL12
C:\Users\stapi\AppData\Local\Temp\ccQ89eao.s:122    .text.i2c_timing_config:000000000000002e .LVL14
C:\Users\stapi\AppData\Local\Temp\ccQ89eao.s:127    .text.i2c_timing_config:0000000000000034 .LVL15
C:\Users\stapi\AppData\Local\Temp\ccQ89eao.s:94     .text.i2c_timing_config:0000000000000012 .LVL10
C:\Users\stapi\AppData\Local\Temp\ccQ89eao.s:119    .text.i2c_timing_config:000000000000002c .LVL13
C:\Users\stapi\AppData\Local\Temp\ccQ89eao.s:97     .text.i2c_timing_config:0000000000000014 .LVL11
C:\Users\stapi\AppData\Local\Temp\ccQ89eao.s:130    .text.i2c_timing_config:0000000000000036 .LVL16
C:\Users\stapi\AppData\Local\Temp\ccQ89eao.s:18     .text.i2c_deinit:0000000000000000 .LVL0
C:\Users\stapi\AppData\Local\Temp\ccQ89eao.s:30     .text.i2c_deinit:0000000000000020 .LVL1
C:\Users\stapi\AppData\Local\Temp\ccQ89eao.s:38     .text.i2c_deinit:0000000000000028 .LVL2
C:\Users\stapi\AppData\Local\Temp\ccQ89eao.s:44     .text.i2c_deinit:000000000000002e .LVL3
C:\Users\stapi\AppData\Local\Temp\ccQ89eao.s:56     .text.i2c_deinit:0000000000000044 .LVL6
C:\Users\stapi\AppData\Local\Temp\ccQ89eao.s:61     .text.i2c_deinit:000000000000004a .LVL7
C:\Users\stapi\AppData\Local\Temp\ccQ89eao.s:1507   .debug_info:0000000000000000 .Ldebug_info0

UNDEFINED SYMBOLS
__riscv_save_1
__riscv_restore_1
rcu_periph_reset_enable
rcu_periph_reset_disable
