   1              		.file	"gd32vw55x_efuse.c"
   2              		.option nopic
   3              		.attribute arch, "rv32i2p0_m2p0_a2p0_f2p0_c2p0_b_p0p94"
   4              		.attribute unaligned_access, 0
   5              		.attribute stack_align, 16
   6              		.text
   7              	.Ltext0:
   8              		.cfi_sections	.debug_frame
   9              		.section	.text.efuse_res_read,"ax",@progbits
  10              		.align	1
  11              		.globl	efuse_res_read
  13              	efuse_res_read:
  14              	.LFB375:
  15              		.file 1 "C:/Users/stapi/OneDrive/Desktop/GD32VW553/V1_MQTT_OK/GD32VW55X_Wifi_BLE_SDK/GD32VW55x_REL
   1:C:/Users/stapi/OneDrive/Desktop/GD32VW553/V1_MQTT_OK/GD32VW55X_Wifi_BLE_SDK/GD32VW55x_RELEASE_V1.0.2/MSDK/plf/GD32VW55x_standard_peripheral/Source\gd32vw55x_efuse.c **** /*!
   2:C:/Users/stapi/OneDrive/Desktop/GD32VW553/V1_MQTT_OK/GD32VW55X_Wifi_BLE_SDK/GD32VW55x_RELEASE_V1.0.2/MSDK/plf/GD32VW55x_standard_peripheral/Source\gd32vw55x_efuse.c ****     \file    gd32vw55x_efuse.c
   3:C:/Users/stapi/OneDrive/Desktop/GD32VW553/V1_MQTT_OK/GD32VW55X_Wifi_BLE_SDK/GD32VW55x_RELEASE_V1.0.2/MSDK/plf/GD32VW55x_standard_peripheral/Source\gd32vw55x_efuse.c ****     \brief   EFUSE driver
   4:C:/Users/stapi/OneDrive/Desktop/GD32VW553/V1_MQTT_OK/GD32VW55X_Wifi_BLE_SDK/GD32VW55x_RELEASE_V1.0.2/MSDK/plf/GD32VW55x_standard_peripheral/Source\gd32vw55x_efuse.c **** 
   5:C:/Users/stapi/OneDrive/Desktop/GD32VW553/V1_MQTT_OK/GD32VW55X_Wifi_BLE_SDK/GD32VW55x_RELEASE_V1.0.2/MSDK/plf/GD32VW55x_standard_peripheral/Source\gd32vw55x_efuse.c ****     \version 2023-07-20, V1.0.0, firmware for GD32VW55x
   6:C:/Users/stapi/OneDrive/Desktop/GD32VW553/V1_MQTT_OK/GD32VW55X_Wifi_BLE_SDK/GD32VW55x_RELEASE_V1.0.2/MSDK/plf/GD32VW55x_standard_peripheral/Source\gd32vw55x_efuse.c **** */
   7:C:/Users/stapi/OneDrive/Desktop/GD32VW553/V1_MQTT_OK/GD32VW55X_Wifi_BLE_SDK/GD32VW55x_RELEASE_V1.0.2/MSDK/plf/GD32VW55x_standard_peripheral/Source\gd32vw55x_efuse.c **** 
   8:C:/Users/stapi/OneDrive/Desktop/GD32VW553/V1_MQTT_OK/GD32VW55X_Wifi_BLE_SDK/GD32VW55x_RELEASE_V1.0.2/MSDK/plf/GD32VW55x_standard_peripheral/Source\gd32vw55x_efuse.c **** /*
   9:C:/Users/stapi/OneDrive/Desktop/GD32VW553/V1_MQTT_OK/GD32VW55X_Wifi_BLE_SDK/GD32VW55x_RELEASE_V1.0.2/MSDK/plf/GD32VW55x_standard_peripheral/Source\gd32vw55x_efuse.c ****     Copyright (c) 2023, GigaDevice Semiconductor Inc.
  10:C:/Users/stapi/OneDrive/Desktop/GD32VW553/V1_MQTT_OK/GD32VW55X_Wifi_BLE_SDK/GD32VW55x_RELEASE_V1.0.2/MSDK/plf/GD32VW55x_standard_peripheral/Source\gd32vw55x_efuse.c **** 
  11:C:/Users/stapi/OneDrive/Desktop/GD32VW553/V1_MQTT_OK/GD32VW55X_Wifi_BLE_SDK/GD32VW55x_RELEASE_V1.0.2/MSDK/plf/GD32VW55x_standard_peripheral/Source\gd32vw55x_efuse.c ****     Redistribution and use in source and binary forms, with or without modification,
  12:C:/Users/stapi/OneDrive/Desktop/GD32VW553/V1_MQTT_OK/GD32VW55X_Wifi_BLE_SDK/GD32VW55x_RELEASE_V1.0.2/MSDK/plf/GD32VW55x_standard_peripheral/Source\gd32vw55x_efuse.c **** are permitted provided that the following conditions are met:
  13:C:/Users/stapi/OneDrive/Desktop/GD32VW553/V1_MQTT_OK/GD32VW55X_Wifi_BLE_SDK/GD32VW55x_RELEASE_V1.0.2/MSDK/plf/GD32VW55x_standard_peripheral/Source\gd32vw55x_efuse.c **** 
  14:C:/Users/stapi/OneDrive/Desktop/GD32VW553/V1_MQTT_OK/GD32VW55X_Wifi_BLE_SDK/GD32VW55x_RELEASE_V1.0.2/MSDK/plf/GD32VW55x_standard_peripheral/Source\gd32vw55x_efuse.c ****     1. Redistributions of source code must retain the above copyright notice, this
  15:C:/Users/stapi/OneDrive/Desktop/GD32VW553/V1_MQTT_OK/GD32VW55X_Wifi_BLE_SDK/GD32VW55x_RELEASE_V1.0.2/MSDK/plf/GD32VW55x_standard_peripheral/Source\gd32vw55x_efuse.c ****        list of conditions and the following disclaimer.
  16:C:/Users/stapi/OneDrive/Desktop/GD32VW553/V1_MQTT_OK/GD32VW55X_Wifi_BLE_SDK/GD32VW55x_RELEASE_V1.0.2/MSDK/plf/GD32VW55x_standard_peripheral/Source\gd32vw55x_efuse.c ****     2. Redistributions in binary form must reproduce the above copyright notice,
  17:C:/Users/stapi/OneDrive/Desktop/GD32VW553/V1_MQTT_OK/GD32VW55X_Wifi_BLE_SDK/GD32VW55x_RELEASE_V1.0.2/MSDK/plf/GD32VW55x_standard_peripheral/Source\gd32vw55x_efuse.c ****        this list of conditions and the following disclaimer in the documentation
  18:C:/Users/stapi/OneDrive/Desktop/GD32VW553/V1_MQTT_OK/GD32VW55X_Wifi_BLE_SDK/GD32VW55x_RELEASE_V1.0.2/MSDK/plf/GD32VW55x_standard_peripheral/Source\gd32vw55x_efuse.c ****        and/or other materials provided with the distribution.
  19:C:/Users/stapi/OneDrive/Desktop/GD32VW553/V1_MQTT_OK/GD32VW55X_Wifi_BLE_SDK/GD32VW55x_RELEASE_V1.0.2/MSDK/plf/GD32VW55x_standard_peripheral/Source\gd32vw55x_efuse.c ****     3. Neither the name of the copyright holder nor the names of its contributors
  20:C:/Users/stapi/OneDrive/Desktop/GD32VW553/V1_MQTT_OK/GD32VW55X_Wifi_BLE_SDK/GD32VW55x_RELEASE_V1.0.2/MSDK/plf/GD32VW55x_standard_peripheral/Source\gd32vw55x_efuse.c ****        may be used to endorse or promote products derived from this software without
  21:C:/Users/stapi/OneDrive/Desktop/GD32VW553/V1_MQTT_OK/GD32VW55X_Wifi_BLE_SDK/GD32VW55x_RELEASE_V1.0.2/MSDK/plf/GD32VW55x_standard_peripheral/Source\gd32vw55x_efuse.c ****        specific prior written permission.
  22:C:/Users/stapi/OneDrive/Desktop/GD32VW553/V1_MQTT_OK/GD32VW55X_Wifi_BLE_SDK/GD32VW55x_RELEASE_V1.0.2/MSDK/plf/GD32VW55x_standard_peripheral/Source\gd32vw55x_efuse.c **** 
  23:C:/Users/stapi/OneDrive/Desktop/GD32VW553/V1_MQTT_OK/GD32VW55X_Wifi_BLE_SDK/GD32VW55x_RELEASE_V1.0.2/MSDK/plf/GD32VW55x_standard_peripheral/Source\gd32vw55x_efuse.c ****     THIS SOFTWARE IS PROVIDED BY THE COPYRIGHT HOLDERS AND CONTRIBUTORS "AS IS"
  24:C:/Users/stapi/OneDrive/Desktop/GD32VW553/V1_MQTT_OK/GD32VW55X_Wifi_BLE_SDK/GD32VW55x_RELEASE_V1.0.2/MSDK/plf/GD32VW55x_standard_peripheral/Source\gd32vw55x_efuse.c **** AND ANY EXPRESS OR IMPLIED WARRANTIES, INCLUDING, BUT NOT LIMITED TO, THE IMPLIED
  25:C:/Users/stapi/OneDrive/Desktop/GD32VW553/V1_MQTT_OK/GD32VW55X_Wifi_BLE_SDK/GD32VW55x_RELEASE_V1.0.2/MSDK/plf/GD32VW55x_standard_peripheral/Source\gd32vw55x_efuse.c **** WARRANTIES OF MERCHANTABILITY AND FITNESS FOR A PARTICULAR PURPOSE ARE DISCLAIMED.
  26:C:/Users/stapi/OneDrive/Desktop/GD32VW553/V1_MQTT_OK/GD32VW55X_Wifi_BLE_SDK/GD32VW55x_RELEASE_V1.0.2/MSDK/plf/GD32VW55x_standard_peripheral/Source\gd32vw55x_efuse.c **** IN NO EVENT SHALL THE COPYRIGHT HOLDER OR CONTRIBUTORS BE LIABLE FOR ANY DIRECT,
  27:C:/Users/stapi/OneDrive/Desktop/GD32VW553/V1_MQTT_OK/GD32VW55X_Wifi_BLE_SDK/GD32VW55x_RELEASE_V1.0.2/MSDK/plf/GD32VW55x_standard_peripheral/Source\gd32vw55x_efuse.c **** INDIRECT, INCIDENTAL, SPECIAL, EXEMPLARY, OR CONSEQUENTIAL DAMAGES (INCLUDING, BUT
  28:C:/Users/stapi/OneDrive/Desktop/GD32VW553/V1_MQTT_OK/GD32VW55X_Wifi_BLE_SDK/GD32VW55x_RELEASE_V1.0.2/MSDK/plf/GD32VW55x_standard_peripheral/Source\gd32vw55x_efuse.c **** NOT LIMITED TO, PROCUREMENT OF SUBSTITUTE GOODS OR SERVICES; LOSS OF USE, DATA, OR
  29:C:/Users/stapi/OneDrive/Desktop/GD32VW553/V1_MQTT_OK/GD32VW55X_Wifi_BLE_SDK/GD32VW55x_RELEASE_V1.0.2/MSDK/plf/GD32VW55x_standard_peripheral/Source\gd32vw55x_efuse.c **** PROFITS; OR BUSINESS INTERRUPTION) HOWEVER CAUSED AND ON ANY THEORY OF LIABILITY,
  30:C:/Users/stapi/OneDrive/Desktop/GD32VW553/V1_MQTT_OK/GD32VW55X_Wifi_BLE_SDK/GD32VW55x_RELEASE_V1.0.2/MSDK/plf/GD32VW55x_standard_peripheral/Source\gd32vw55x_efuse.c **** WHETHER IN CONTRACT, STRICT LIABILITY, OR TORT (INCLUDING NEGLIGENCE OR OTHERWISE)
  31:C:/Users/stapi/OneDrive/Desktop/GD32VW553/V1_MQTT_OK/GD32VW55X_Wifi_BLE_SDK/GD32VW55x_RELEASE_V1.0.2/MSDK/plf/GD32VW55x_standard_peripheral/Source\gd32vw55x_efuse.c **** ARISING IN ANY WAY OUT OF THE USE OF THIS SOFTWARE, EVEN IF ADVISED OF THE POSSIBILITY
  32:C:/Users/stapi/OneDrive/Desktop/GD32VW553/V1_MQTT_OK/GD32VW55X_Wifi_BLE_SDK/GD32VW55x_RELEASE_V1.0.2/MSDK/plf/GD32VW55x_standard_peripheral/Source\gd32vw55x_efuse.c **** OF SUCH DAMAGE.
  33:C:/Users/stapi/OneDrive/Desktop/GD32VW553/V1_MQTT_OK/GD32VW55X_Wifi_BLE_SDK/GD32VW55x_RELEASE_V1.0.2/MSDK/plf/GD32VW55x_standard_peripheral/Source\gd32vw55x_efuse.c **** */
  34:C:/Users/stapi/OneDrive/Desktop/GD32VW553/V1_MQTT_OK/GD32VW55X_Wifi_BLE_SDK/GD32VW55x_RELEASE_V1.0.2/MSDK/plf/GD32VW55x_standard_peripheral/Source\gd32vw55x_efuse.c **** 
  35:C:/Users/stapi/OneDrive/Desktop/GD32VW553/V1_MQTT_OK/GD32VW55X_Wifi_BLE_SDK/GD32VW55x_RELEASE_V1.0.2/MSDK/plf/GD32VW55x_standard_peripheral/Source\gd32vw55x_efuse.c **** #include "gd32vw55x_efuse.h"
  36:C:/Users/stapi/OneDrive/Desktop/GD32VW553/V1_MQTT_OK/GD32VW55X_Wifi_BLE_SDK/GD32VW55x_RELEASE_V1.0.2/MSDK/plf/GD32VW55x_standard_peripheral/Source\gd32vw55x_efuse.c **** 
  37:C:/Users/stapi/OneDrive/Desktop/GD32VW553/V1_MQTT_OK/GD32VW55X_Wifi_BLE_SDK/GD32VW55x_RELEASE_V1.0.2/MSDK/plf/GD32VW55x_standard_peripheral/Source\gd32vw55x_efuse.c **** /*!
  38:C:/Users/stapi/OneDrive/Desktop/GD32VW553/V1_MQTT_OK/GD32VW55X_Wifi_BLE_SDK/GD32VW55x_RELEASE_V1.0.2/MSDK/plf/GD32VW55x_standard_peripheral/Source\gd32vw55x_efuse.c ****     \brief      read EFUSE value
  39:C:/Users/stapi/OneDrive/Desktop/GD32VW553/V1_MQTT_OK/GD32VW55X_Wifi_BLE_SDK/GD32VW55x_RELEASE_V1.0.2/MSDK/plf/GD32VW55x_standard_peripheral/Source\gd32vw55x_efuse.c ****     \param[in]  ef_addr: EFUSE address, the starting address of each parameter segment, in bytes
  40:C:/Users/stapi/OneDrive/Desktop/GD32VW553/V1_MQTT_OK/GD32VW55X_Wifi_BLE_SDK/GD32VW55x_RELEASE_V1.0.2/MSDK/plf/GD32VW55x_standard_peripheral/Source\gd32vw55x_efuse.c ****       \arg        0~0x60
  41:C:/Users/stapi/OneDrive/Desktop/GD32VW553/V1_MQTT_OK/GD32VW55X_Wifi_BLE_SDK/GD32VW55x_RELEASE_V1.0.2/MSDK/plf/GD32VW55x_standard_peripheral/Source\gd32vw55x_efuse.c ****     \param[in]  size: size of EFUSE, in bytes
  42:C:/Users/stapi/OneDrive/Desktop/GD32VW553/V1_MQTT_OK/GD32VW55X_Wifi_BLE_SDK/GD32VW55x_RELEASE_V1.0.2/MSDK/plf/GD32VW55x_standard_peripheral/Source\gd32vw55x_efuse.c ****       \arg        1~0x20
  43:C:/Users/stapi/OneDrive/Desktop/GD32VW553/V1_MQTT_OK/GD32VW55X_Wifi_BLE_SDK/GD32VW55x_RELEASE_V1.0.2/MSDK/plf/GD32VW55x_standard_peripheral/Source\gd32vw55x_efuse.c ****     \param[out] buf: the buffer for storing read-out EFUSE register value
  44:C:/Users/stapi/OneDrive/Desktop/GD32VW553/V1_MQTT_OK/GD32VW55X_Wifi_BLE_SDK/GD32VW55x_RELEASE_V1.0.2/MSDK/plf/GD32VW55x_standard_peripheral/Source\gd32vw55x_efuse.c ****     \retval     ErrStatus: ERROR or SUCCESS
  45:C:/Users/stapi/OneDrive/Desktop/GD32VW553/V1_MQTT_OK/GD32VW55X_Wifi_BLE_SDK/GD32VW55x_RELEASE_V1.0.2/MSDK/plf/GD32VW55x_standard_peripheral/Source\gd32vw55x_efuse.c **** */
  46:C:/Users/stapi/OneDrive/Desktop/GD32VW553/V1_MQTT_OK/GD32VW55X_Wifi_BLE_SDK/GD32VW55x_RELEASE_V1.0.2/MSDK/plf/GD32VW55x_standard_peripheral/Source\gd32vw55x_efuse.c **** ErrStatus efuse_read(uint32_t ef_addr, uint32_t size, uint32_t buf[])
  47:C:/Users/stapi/OneDrive/Desktop/GD32VW553/V1_MQTT_OK/GD32VW55X_Wifi_BLE_SDK/GD32VW55x_RELEASE_V1.0.2/MSDK/plf/GD32VW55x_standard_peripheral/Source\gd32vw55x_efuse.c **** {
  48:C:/Users/stapi/OneDrive/Desktop/GD32VW553/V1_MQTT_OK/GD32VW55X_Wifi_BLE_SDK/GD32VW55x_RELEASE_V1.0.2/MSDK/plf/GD32VW55x_standard_peripheral/Source\gd32vw55x_efuse.c ****     uint32_t i = 0U;
  49:C:/Users/stapi/OneDrive/Desktop/GD32VW553/V1_MQTT_OK/GD32VW55X_Wifi_BLE_SDK/GD32VW55x_RELEASE_V1.0.2/MSDK/plf/GD32VW55x_standard_peripheral/Source\gd32vw55x_efuse.c ****     uint32_t timeout = 0xFFU;
  50:C:/Users/stapi/OneDrive/Desktop/GD32VW553/V1_MQTT_OK/GD32VW55X_Wifi_BLE_SDK/GD32VW55x_RELEASE_V1.0.2/MSDK/plf/GD32VW55x_standard_peripheral/Source\gd32vw55x_efuse.c ****     uint32_t reg_addr = 0U;
  51:C:/Users/stapi/OneDrive/Desktop/GD32VW553/V1_MQTT_OK/GD32VW55X_Wifi_BLE_SDK/GD32VW55x_RELEASE_V1.0.2/MSDK/plf/GD32VW55x_standard_peripheral/Source\gd32vw55x_efuse.c ****     uint32_t number = size / 4U;
  52:C:/Users/stapi/OneDrive/Desktop/GD32VW553/V1_MQTT_OK/GD32VW55X_Wifi_BLE_SDK/GD32VW55x_RELEASE_V1.0.2/MSDK/plf/GD32VW55x_standard_peripheral/Source\gd32vw55x_efuse.c **** 
  53:C:/Users/stapi/OneDrive/Desktop/GD32VW553/V1_MQTT_OK/GD32VW55X_Wifi_BLE_SDK/GD32VW55x_RELEASE_V1.0.2/MSDK/plf/GD32VW55x_standard_peripheral/Source\gd32vw55x_efuse.c ****     if(0U == number) {
  54:C:/Users/stapi/OneDrive/Desktop/GD32VW553/V1_MQTT_OK/GD32VW55X_Wifi_BLE_SDK/GD32VW55x_RELEASE_V1.0.2/MSDK/plf/GD32VW55x_standard_peripheral/Source\gd32vw55x_efuse.c ****         number = 1U;
  55:C:/Users/stapi/OneDrive/Desktop/GD32VW553/V1_MQTT_OK/GD32VW55X_Wifi_BLE_SDK/GD32VW55x_RELEASE_V1.0.2/MSDK/plf/GD32VW55x_standard_peripheral/Source\gd32vw55x_efuse.c ****     }
  56:C:/Users/stapi/OneDrive/Desktop/GD32VW553/V1_MQTT_OK/GD32VW55X_Wifi_BLE_SDK/GD32VW55x_RELEASE_V1.0.2/MSDK/plf/GD32VW55x_standard_peripheral/Source\gd32vw55x_efuse.c **** 
  57:C:/Users/stapi/OneDrive/Desktop/GD32VW553/V1_MQTT_OK/GD32VW55X_Wifi_BLE_SDK/GD32VW55x_RELEASE_V1.0.2/MSDK/plf/GD32VW55x_standard_peripheral/Source\gd32vw55x_efuse.c ****     /* assert EFUSE address and size parameter */
  58:C:/Users/stapi/OneDrive/Desktop/GD32VW553/V1_MQTT_OK/GD32VW55X_Wifi_BLE_SDK/GD32VW55x_RELEASE_V1.0.2/MSDK/plf/GD32VW55x_standard_peripheral/Source\gd32vw55x_efuse.c ****     if((END_ADDR < ef_addr) || (size > EFUSE_MAX_SIZE)) {
  59:C:/Users/stapi/OneDrive/Desktop/GD32VW553/V1_MQTT_OK/GD32VW55X_Wifi_BLE_SDK/GD32VW55x_RELEASE_V1.0.2/MSDK/plf/GD32VW55x_standard_peripheral/Source\gd32vw55x_efuse.c ****         return ERROR;
  60:C:/Users/stapi/OneDrive/Desktop/GD32VW553/V1_MQTT_OK/GD32VW55X_Wifi_BLE_SDK/GD32VW55x_RELEASE_V1.0.2/MSDK/plf/GD32VW55x_standard_peripheral/Source\gd32vw55x_efuse.c ****     }
  61:C:/Users/stapi/OneDrive/Desktop/GD32VW553/V1_MQTT_OK/GD32VW55X_Wifi_BLE_SDK/GD32VW55x_RELEASE_V1.0.2/MSDK/plf/GD32VW55x_standard_peripheral/Source\gd32vw55x_efuse.c **** 
  62:C:/Users/stapi/OneDrive/Desktop/GD32VW553/V1_MQTT_OK/GD32VW55X_Wifi_BLE_SDK/GD32VW55x_RELEASE_V1.0.2/MSDK/plf/GD32VW55x_standard_peripheral/Source\gd32vw55x_efuse.c ****     /* get the register address corresponding to EFUSE */
  63:C:/Users/stapi/OneDrive/Desktop/GD32VW553/V1_MQTT_OK/GD32VW55X_Wifi_BLE_SDK/GD32VW55x_RELEASE_V1.0.2/MSDK/plf/GD32VW55x_standard_peripheral/Source\gd32vw55x_efuse.c ****     if(0x4U > ef_addr) {
  64:C:/Users/stapi/OneDrive/Desktop/GD32VW553/V1_MQTT_OK/GD32VW55X_Wifi_BLE_SDK/GD32VW55x_RELEASE_V1.0.2/MSDK/plf/GD32VW55x_standard_peripheral/Source\gd32vw55x_efuse.c ****         reg_addr = (uint32_t)(EFUSE + 0x08U + (ef_addr * 4U));
  65:C:/Users/stapi/OneDrive/Desktop/GD32VW553/V1_MQTT_OK/GD32VW55X_Wifi_BLE_SDK/GD32VW55x_RELEASE_V1.0.2/MSDK/plf/GD32VW55x_standard_peripheral/Source\gd32vw55x_efuse.c ****     } else {
  66:C:/Users/stapi/OneDrive/Desktop/GD32VW553/V1_MQTT_OK/GD32VW55X_Wifi_BLE_SDK/GD32VW55x_RELEASE_V1.0.2/MSDK/plf/GD32VW55x_standard_peripheral/Source\gd32vw55x_efuse.c ****         /* when EFUSE address is greater than 4, it must be an integral multiple of 4 */
  67:C:/Users/stapi/OneDrive/Desktop/GD32VW553/V1_MQTT_OK/GD32VW55X_Wifi_BLE_SDK/GD32VW55x_RELEASE_V1.0.2/MSDK/plf/GD32VW55x_standard_peripheral/Source\gd32vw55x_efuse.c ****         if(0U == (ef_addr % 4U)) {
  68:C:/Users/stapi/OneDrive/Desktop/GD32VW553/V1_MQTT_OK/GD32VW55X_Wifi_BLE_SDK/GD32VW55x_RELEASE_V1.0.2/MSDK/plf/GD32VW55x_standard_peripheral/Source\gd32vw55x_efuse.c ****             reg_addr = (uint32_t)(EFUSE + 0x14U + ef_addr);
  69:C:/Users/stapi/OneDrive/Desktop/GD32VW553/V1_MQTT_OK/GD32VW55X_Wifi_BLE_SDK/GD32VW55x_RELEASE_V1.0.2/MSDK/plf/GD32VW55x_standard_peripheral/Source\gd32vw55x_efuse.c ****         } else {
  70:C:/Users/stapi/OneDrive/Desktop/GD32VW553/V1_MQTT_OK/GD32VW55X_Wifi_BLE_SDK/GD32VW55x_RELEASE_V1.0.2/MSDK/plf/GD32VW55x_standard_peripheral/Source\gd32vw55x_efuse.c ****             return ERROR;
  71:C:/Users/stapi/OneDrive/Desktop/GD32VW553/V1_MQTT_OK/GD32VW55X_Wifi_BLE_SDK/GD32VW55x_RELEASE_V1.0.2/MSDK/plf/GD32VW55x_standard_peripheral/Source\gd32vw55x_efuse.c ****         }
  72:C:/Users/stapi/OneDrive/Desktop/GD32VW553/V1_MQTT_OK/GD32VW55X_Wifi_BLE_SDK/GD32VW55x_RELEASE_V1.0.2/MSDK/plf/GD32VW55x_standard_peripheral/Source\gd32vw55x_efuse.c ****     }
  73:C:/Users/stapi/OneDrive/Desktop/GD32VW553/V1_MQTT_OK/GD32VW55X_Wifi_BLE_SDK/GD32VW55x_RELEASE_V1.0.2/MSDK/plf/GD32VW55x_standard_peripheral/Source\gd32vw55x_efuse.c **** 
  74:C:/Users/stapi/OneDrive/Desktop/GD32VW553/V1_MQTT_OK/GD32VW55X_Wifi_BLE_SDK/GD32VW55x_RELEASE_V1.0.2/MSDK/plf/GD32VW55x_standard_peripheral/Source\gd32vw55x_efuse.c ****     /* EFUSE read operation */
  75:C:/Users/stapi/OneDrive/Desktop/GD32VW553/V1_MQTT_OK/GD32VW55X_Wifi_BLE_SDK/GD32VW55x_RELEASE_V1.0.2/MSDK/plf/GD32VW55x_standard_peripheral/Source\gd32vw55x_efuse.c ****     EFUSE_CS &= (~EFUSE_CS_EFRW);
  76:C:/Users/stapi/OneDrive/Desktop/GD32VW553/V1_MQTT_OK/GD32VW55X_Wifi_BLE_SDK/GD32VW55x_RELEASE_V1.0.2/MSDK/plf/GD32VW55x_standard_peripheral/Source\gd32vw55x_efuse.c ****     /* write EFUSE address and size */
  77:C:/Users/stapi/OneDrive/Desktop/GD32VW553/V1_MQTT_OK/GD32VW55X_Wifi_BLE_SDK/GD32VW55x_RELEASE_V1.0.2/MSDK/plf/GD32VW55x_standard_peripheral/Source\gd32vw55x_efuse.c ****     EFUSE_ADDR = (uint32_t)((size << 8U) | ef_addr);
  78:C:/Users/stapi/OneDrive/Desktop/GD32VW553/V1_MQTT_OK/GD32VW55X_Wifi_BLE_SDK/GD32VW55x_RELEASE_V1.0.2/MSDK/plf/GD32VW55x_standard_peripheral/Source\gd32vw55x_efuse.c ****     /* start read EFUSE operation */
  79:C:/Users/stapi/OneDrive/Desktop/GD32VW553/V1_MQTT_OK/GD32VW55X_Wifi_BLE_SDK/GD32VW55x_RELEASE_V1.0.2/MSDK/plf/GD32VW55x_standard_peripheral/Source\gd32vw55x_efuse.c ****     EFUSE_CS |= EFUSE_CS_EFSTR;
  80:C:/Users/stapi/OneDrive/Desktop/GD32VW553/V1_MQTT_OK/GD32VW55X_Wifi_BLE_SDK/GD32VW55x_RELEASE_V1.0.2/MSDK/plf/GD32VW55x_standard_peripheral/Source\gd32vw55x_efuse.c **** 
  81:C:/Users/stapi/OneDrive/Desktop/GD32VW553/V1_MQTT_OK/GD32VW55X_Wifi_BLE_SDK/GD32VW55x_RELEASE_V1.0.2/MSDK/plf/GD32VW55x_standard_peripheral/Source\gd32vw55x_efuse.c ****     /* wait for the operation to complete */
  82:C:/Users/stapi/OneDrive/Desktop/GD32VW553/V1_MQTT_OK/GD32VW55X_Wifi_BLE_SDK/GD32VW55x_RELEASE_V1.0.2/MSDK/plf/GD32VW55x_standard_peripheral/Source\gd32vw55x_efuse.c ****     do {
  83:C:/Users/stapi/OneDrive/Desktop/GD32VW553/V1_MQTT_OK/GD32VW55X_Wifi_BLE_SDK/GD32VW55x_RELEASE_V1.0.2/MSDK/plf/GD32VW55x_standard_peripheral/Source\gd32vw55x_efuse.c ****         timeout--;
  84:C:/Users/stapi/OneDrive/Desktop/GD32VW553/V1_MQTT_OK/GD32VW55X_Wifi_BLE_SDK/GD32VW55x_RELEASE_V1.0.2/MSDK/plf/GD32VW55x_standard_peripheral/Source\gd32vw55x_efuse.c ****     } while((RESET == efuse_flag_get(EFUSE_RDIF)) && (0x00U != timeout));
  85:C:/Users/stapi/OneDrive/Desktop/GD32VW553/V1_MQTT_OK/GD32VW55X_Wifi_BLE_SDK/GD32VW55x_RELEASE_V1.0.2/MSDK/plf/GD32VW55x_standard_peripheral/Source\gd32vw55x_efuse.c ****     if(0x00U == timeout) {
  86:C:/Users/stapi/OneDrive/Desktop/GD32VW553/V1_MQTT_OK/GD32VW55X_Wifi_BLE_SDK/GD32VW55x_RELEASE_V1.0.2/MSDK/plf/GD32VW55x_standard_peripheral/Source\gd32vw55x_efuse.c ****         return ERROR;
  87:C:/Users/stapi/OneDrive/Desktop/GD32VW553/V1_MQTT_OK/GD32VW55X_Wifi_BLE_SDK/GD32VW55x_RELEASE_V1.0.2/MSDK/plf/GD32VW55x_standard_peripheral/Source\gd32vw55x_efuse.c ****     }
  88:C:/Users/stapi/OneDrive/Desktop/GD32VW553/V1_MQTT_OK/GD32VW55X_Wifi_BLE_SDK/GD32VW55x_RELEASE_V1.0.2/MSDK/plf/GD32VW55x_standard_peripheral/Source\gd32vw55x_efuse.c **** 
  89:C:/Users/stapi/OneDrive/Desktop/GD32VW553/V1_MQTT_OK/GD32VW55X_Wifi_BLE_SDK/GD32VW55x_RELEASE_V1.0.2/MSDK/plf/GD32VW55x_standard_peripheral/Source\gd32vw55x_efuse.c ****     /* read EFUSE */
  90:C:/Users/stapi/OneDrive/Desktop/GD32VW553/V1_MQTT_OK/GD32VW55X_Wifi_BLE_SDK/GD32VW55x_RELEASE_V1.0.2/MSDK/plf/GD32VW55x_standard_peripheral/Source\gd32vw55x_efuse.c ****     for(i = 0U; i < number; i++) {
  91:C:/Users/stapi/OneDrive/Desktop/GD32VW553/V1_MQTT_OK/GD32VW55X_Wifi_BLE_SDK/GD32VW55x_RELEASE_V1.0.2/MSDK/plf/GD32VW55x_standard_peripheral/Source\gd32vw55x_efuse.c ****         buf[i] = REG32(reg_addr + (4U * i));
  92:C:/Users/stapi/OneDrive/Desktop/GD32VW553/V1_MQTT_OK/GD32VW55X_Wifi_BLE_SDK/GD32VW55x_RELEASE_V1.0.2/MSDK/plf/GD32VW55x_standard_peripheral/Source\gd32vw55x_efuse.c ****     }
  93:C:/Users/stapi/OneDrive/Desktop/GD32VW553/V1_MQTT_OK/GD32VW55X_Wifi_BLE_SDK/GD32VW55x_RELEASE_V1.0.2/MSDK/plf/GD32VW55x_standard_peripheral/Source\gd32vw55x_efuse.c **** 
  94:C:/Users/stapi/OneDrive/Desktop/GD32VW553/V1_MQTT_OK/GD32VW55X_Wifi_BLE_SDK/GD32VW55x_RELEASE_V1.0.2/MSDK/plf/GD32VW55x_standard_peripheral/Source\gd32vw55x_efuse.c ****     /* clear EFUSE read completed flag */
  95:C:/Users/stapi/OneDrive/Desktop/GD32VW553/V1_MQTT_OK/GD32VW55X_Wifi_BLE_SDK/GD32VW55x_RELEASE_V1.0.2/MSDK/plf/GD32VW55x_standard_peripheral/Source\gd32vw55x_efuse.c ****     EFUSE_CS |= (uint32_t)EFUSE_CS_RDIC;
  96:C:/Users/stapi/OneDrive/Desktop/GD32VW553/V1_MQTT_OK/GD32VW55X_Wifi_BLE_SDK/GD32VW55x_RELEASE_V1.0.2/MSDK/plf/GD32VW55x_standard_peripheral/Source\gd32vw55x_efuse.c **** 
  97:C:/Users/stapi/OneDrive/Desktop/GD32VW553/V1_MQTT_OK/GD32VW55X_Wifi_BLE_SDK/GD32VW55x_RELEASE_V1.0.2/MSDK/plf/GD32VW55x_standard_peripheral/Source\gd32vw55x_efuse.c ****     return SUCCESS;
  98:C:/Users/stapi/OneDrive/Desktop/GD32VW553/V1_MQTT_OK/GD32VW55X_Wifi_BLE_SDK/GD32VW55x_RELEASE_V1.0.2/MSDK/plf/GD32VW55x_standard_peripheral/Source\gd32vw55x_efuse.c **** }
  99:C:/Users/stapi/OneDrive/Desktop/GD32VW553/V1_MQTT_OK/GD32VW55X_Wifi_BLE_SDK/GD32VW55x_RELEASE_V1.0.2/MSDK/plf/GD32VW55x_standard_peripheral/Source\gd32vw55x_efuse.c **** 
 100:C:/Users/stapi/OneDrive/Desktop/GD32VW553/V1_MQTT_OK/GD32VW55X_Wifi_BLE_SDK/GD32VW55x_RELEASE_V1.0.2/MSDK/plf/GD32VW55x_standard_peripheral/Source\gd32vw55x_efuse.c **** /*!
 101:C:/Users/stapi/OneDrive/Desktop/GD32VW553/V1_MQTT_OK/GD32VW55X_Wifi_BLE_SDK/GD32VW55x_RELEASE_V1.0.2/MSDK/plf/GD32VW55x_standard_peripheral/Source\gd32vw55x_efuse.c ****     \brief      write EFUSE
 102:C:/Users/stapi/OneDrive/Desktop/GD32VW553/V1_MQTT_OK/GD32VW55X_Wifi_BLE_SDK/GD32VW55x_RELEASE_V1.0.2/MSDK/plf/GD32VW55x_standard_peripheral/Source\gd32vw55x_efuse.c ****     \param[in]  ef_addr: EFUSE address, the starting address of each parameter segment, in bytes.
 103:C:/Users/stapi/OneDrive/Desktop/GD32VW553/V1_MQTT_OK/GD32VW55X_Wifi_BLE_SDK/GD32VW55x_RELEASE_V1.0.2/MSDK/plf/GD32VW55x_standard_peripheral/Source\gd32vw55x_efuse.c ****                          When ef_addr is greater than 4, the ef_addr must be an integral multiple o
 104:C:/Users/stapi/OneDrive/Desktop/GD32VW553/V1_MQTT_OK/GD32VW55X_Wifi_BLE_SDK/GD32VW55x_RELEASE_V1.0.2/MSDK/plf/GD32VW55x_standard_peripheral/Source\gd32vw55x_efuse.c ****       \arg        0~0x60
 105:C:/Users/stapi/OneDrive/Desktop/GD32VW553/V1_MQTT_OK/GD32VW55X_Wifi_BLE_SDK/GD32VW55x_RELEASE_V1.0.2/MSDK/plf/GD32VW55x_standard_peripheral/Source\gd32vw55x_efuse.c ****     \param[in]  size: size of EFUSE, in bytes
 106:C:/Users/stapi/OneDrive/Desktop/GD32VW553/V1_MQTT_OK/GD32VW55X_Wifi_BLE_SDK/GD32VW55x_RELEASE_V1.0.2/MSDK/plf/GD32VW55x_standard_peripheral/Source\gd32vw55x_efuse.c ****       \arg        1~0x20
 107:C:/Users/stapi/OneDrive/Desktop/GD32VW553/V1_MQTT_OK/GD32VW55X_Wifi_BLE_SDK/GD32VW55x_RELEASE_V1.0.2/MSDK/plf/GD32VW55x_standard_peripheral/Source\gd32vw55x_efuse.c ****     \param[in]  buf: the buffer of data written to EFUSE
 108:C:/Users/stapi/OneDrive/Desktop/GD32VW553/V1_MQTT_OK/GD32VW55X_Wifi_BLE_SDK/GD32VW55x_RELEASE_V1.0.2/MSDK/plf/GD32VW55x_standard_peripheral/Source\gd32vw55x_efuse.c ****     \param[out] none
 109:C:/Users/stapi/OneDrive/Desktop/GD32VW553/V1_MQTT_OK/GD32VW55X_Wifi_BLE_SDK/GD32VW55x_RELEASE_V1.0.2/MSDK/plf/GD32VW55x_standard_peripheral/Source\gd32vw55x_efuse.c ****     \retval     ErrStatus: ERROR or SUCCESS
 110:C:/Users/stapi/OneDrive/Desktop/GD32VW553/V1_MQTT_OK/GD32VW55X_Wifi_BLE_SDK/GD32VW55x_RELEASE_V1.0.2/MSDK/plf/GD32VW55x_standard_peripheral/Source\gd32vw55x_efuse.c **** */
 111:C:/Users/stapi/OneDrive/Desktop/GD32VW553/V1_MQTT_OK/GD32VW55X_Wifi_BLE_SDK/GD32VW55x_RELEASE_V1.0.2/MSDK/plf/GD32VW55x_standard_peripheral/Source\gd32vw55x_efuse.c **** ErrStatus efuse_write(uint32_t ef_addr, uint32_t size, uint32_t buf[])
 112:C:/Users/stapi/OneDrive/Desktop/GD32VW553/V1_MQTT_OK/GD32VW55X_Wifi_BLE_SDK/GD32VW55x_RELEASE_V1.0.2/MSDK/plf/GD32VW55x_standard_peripheral/Source\gd32vw55x_efuse.c **** {
 113:C:/Users/stapi/OneDrive/Desktop/GD32VW553/V1_MQTT_OK/GD32VW55X_Wifi_BLE_SDK/GD32VW55x_RELEASE_V1.0.2/MSDK/plf/GD32VW55x_standard_peripheral/Source\gd32vw55x_efuse.c ****     uint32_t i = 0U;
 114:C:/Users/stapi/OneDrive/Desktop/GD32VW553/V1_MQTT_OK/GD32VW55X_Wifi_BLE_SDK/GD32VW55x_RELEASE_V1.0.2/MSDK/plf/GD32VW55x_standard_peripheral/Source\gd32vw55x_efuse.c ****     uint32_t timeout = 0xFFFFU;
 115:C:/Users/stapi/OneDrive/Desktop/GD32VW553/V1_MQTT_OK/GD32VW55X_Wifi_BLE_SDK/GD32VW55x_RELEASE_V1.0.2/MSDK/plf/GD32VW55x_standard_peripheral/Source\gd32vw55x_efuse.c ****     uint32_t reg_addr = 0U;
 116:C:/Users/stapi/OneDrive/Desktop/GD32VW553/V1_MQTT_OK/GD32VW55X_Wifi_BLE_SDK/GD32VW55x_RELEASE_V1.0.2/MSDK/plf/GD32VW55x_standard_peripheral/Source\gd32vw55x_efuse.c ****     uint32_t number = size / 4U;
 117:C:/Users/stapi/OneDrive/Desktop/GD32VW553/V1_MQTT_OK/GD32VW55X_Wifi_BLE_SDK/GD32VW55x_RELEASE_V1.0.2/MSDK/plf/GD32VW55x_standard_peripheral/Source\gd32vw55x_efuse.c **** 
 118:C:/Users/stapi/OneDrive/Desktop/GD32VW553/V1_MQTT_OK/GD32VW55X_Wifi_BLE_SDK/GD32VW55x_RELEASE_V1.0.2/MSDK/plf/GD32VW55x_standard_peripheral/Source\gd32vw55x_efuse.c ****     if(0U == number) {
 119:C:/Users/stapi/OneDrive/Desktop/GD32VW553/V1_MQTT_OK/GD32VW55X_Wifi_BLE_SDK/GD32VW55x_RELEASE_V1.0.2/MSDK/plf/GD32VW55x_standard_peripheral/Source\gd32vw55x_efuse.c ****         number = 1U;
 120:C:/Users/stapi/OneDrive/Desktop/GD32VW553/V1_MQTT_OK/GD32VW55X_Wifi_BLE_SDK/GD32VW55x_RELEASE_V1.0.2/MSDK/plf/GD32VW55x_standard_peripheral/Source\gd32vw55x_efuse.c ****     }
 121:C:/Users/stapi/OneDrive/Desktop/GD32VW553/V1_MQTT_OK/GD32VW55X_Wifi_BLE_SDK/GD32VW55x_RELEASE_V1.0.2/MSDK/plf/GD32VW55x_standard_peripheral/Source\gd32vw55x_efuse.c **** 
 122:C:/Users/stapi/OneDrive/Desktop/GD32VW553/V1_MQTT_OK/GD32VW55X_Wifi_BLE_SDK/GD32VW55x_RELEASE_V1.0.2/MSDK/plf/GD32VW55x_standard_peripheral/Source\gd32vw55x_efuse.c ****     /* assert EFUSE address and size parameter */
 123:C:/Users/stapi/OneDrive/Desktop/GD32VW553/V1_MQTT_OK/GD32VW55X_Wifi_BLE_SDK/GD32VW55x_RELEASE_V1.0.2/MSDK/plf/GD32VW55x_standard_peripheral/Source\gd32vw55x_efuse.c ****     if((END_ADDR < ef_addr) || (size > EFUSE_MAX_SIZE)) {
 124:C:/Users/stapi/OneDrive/Desktop/GD32VW553/V1_MQTT_OK/GD32VW55X_Wifi_BLE_SDK/GD32VW55x_RELEASE_V1.0.2/MSDK/plf/GD32VW55x_standard_peripheral/Source\gd32vw55x_efuse.c ****         return ERROR;
 125:C:/Users/stapi/OneDrive/Desktop/GD32VW553/V1_MQTT_OK/GD32VW55X_Wifi_BLE_SDK/GD32VW55x_RELEASE_V1.0.2/MSDK/plf/GD32VW55x_standard_peripheral/Source\gd32vw55x_efuse.c ****     }
 126:C:/Users/stapi/OneDrive/Desktop/GD32VW553/V1_MQTT_OK/GD32VW55X_Wifi_BLE_SDK/GD32VW55x_RELEASE_V1.0.2/MSDK/plf/GD32VW55x_standard_peripheral/Source\gd32vw55x_efuse.c **** 
 127:C:/Users/stapi/OneDrive/Desktop/GD32VW553/V1_MQTT_OK/GD32VW55X_Wifi_BLE_SDK/GD32VW55x_RELEASE_V1.0.2/MSDK/plf/GD32VW55x_standard_peripheral/Source\gd32vw55x_efuse.c ****     /* PUID and HUK are not modifiable */
 128:C:/Users/stapi/OneDrive/Desktop/GD32VW553/V1_MQTT_OK/GD32VW55X_Wifi_BLE_SDK/GD32VW55x_RELEASE_V1.0.2/MSDK/plf/GD32VW55x_standard_peripheral/Source\gd32vw55x_efuse.c ****     if((MCU_UID_ADDR <= ef_addr) && (ef_addr < USER_DATA_ADDR)) {
 129:C:/Users/stapi/OneDrive/Desktop/GD32VW553/V1_MQTT_OK/GD32VW55X_Wifi_BLE_SDK/GD32VW55x_RELEASE_V1.0.2/MSDK/plf/GD32VW55x_standard_peripheral/Source\gd32vw55x_efuse.c ****         return ERROR;
 130:C:/Users/stapi/OneDrive/Desktop/GD32VW553/V1_MQTT_OK/GD32VW55X_Wifi_BLE_SDK/GD32VW55x_RELEASE_V1.0.2/MSDK/plf/GD32VW55x_standard_peripheral/Source\gd32vw55x_efuse.c ****     }
 131:C:/Users/stapi/OneDrive/Desktop/GD32VW553/V1_MQTT_OK/GD32VW55X_Wifi_BLE_SDK/GD32VW55x_RELEASE_V1.0.2/MSDK/plf/GD32VW55x_standard_peripheral/Source\gd32vw55x_efuse.c **** 
 132:C:/Users/stapi/OneDrive/Desktop/GD32VW553/V1_MQTT_OK/GD32VW55X_Wifi_BLE_SDK/GD32VW55x_RELEASE_V1.0.2/MSDK/plf/GD32VW55x_standard_peripheral/Source\gd32vw55x_efuse.c ****     /* get the register address corresponding to EFUSE */
 133:C:/Users/stapi/OneDrive/Desktop/GD32VW553/V1_MQTT_OK/GD32VW55X_Wifi_BLE_SDK/GD32VW55x_RELEASE_V1.0.2/MSDK/plf/GD32VW55x_standard_peripheral/Source\gd32vw55x_efuse.c ****     if(0x4U > ef_addr) {
 134:C:/Users/stapi/OneDrive/Desktop/GD32VW553/V1_MQTT_OK/GD32VW55X_Wifi_BLE_SDK/GD32VW55x_RELEASE_V1.0.2/MSDK/plf/GD32VW55x_standard_peripheral/Source\gd32vw55x_efuse.c ****         reg_addr = (uint32_t)(EFUSE + 0x08U + (ef_addr * 4U));
 135:C:/Users/stapi/OneDrive/Desktop/GD32VW553/V1_MQTT_OK/GD32VW55X_Wifi_BLE_SDK/GD32VW55x_RELEASE_V1.0.2/MSDK/plf/GD32VW55x_standard_peripheral/Source\gd32vw55x_efuse.c ****     } else {
 136:C:/Users/stapi/OneDrive/Desktop/GD32VW553/V1_MQTT_OK/GD32VW55X_Wifi_BLE_SDK/GD32VW55x_RELEASE_V1.0.2/MSDK/plf/GD32VW55x_standard_peripheral/Source\gd32vw55x_efuse.c ****         /* when EFUSE address is greater than 4, it must be an integral multiple of 4 */
 137:C:/Users/stapi/OneDrive/Desktop/GD32VW553/V1_MQTT_OK/GD32VW55X_Wifi_BLE_SDK/GD32VW55x_RELEASE_V1.0.2/MSDK/plf/GD32VW55x_standard_peripheral/Source\gd32vw55x_efuse.c ****         if(ef_addr % 4U) {
 138:C:/Users/stapi/OneDrive/Desktop/GD32VW553/V1_MQTT_OK/GD32VW55X_Wifi_BLE_SDK/GD32VW55x_RELEASE_V1.0.2/MSDK/plf/GD32VW55x_standard_peripheral/Source\gd32vw55x_efuse.c ****             return ERROR;
 139:C:/Users/stapi/OneDrive/Desktop/GD32VW553/V1_MQTT_OK/GD32VW55X_Wifi_BLE_SDK/GD32VW55x_RELEASE_V1.0.2/MSDK/plf/GD32VW55x_standard_peripheral/Source\gd32vw55x_efuse.c ****         } else {
 140:C:/Users/stapi/OneDrive/Desktop/GD32VW553/V1_MQTT_OK/GD32VW55X_Wifi_BLE_SDK/GD32VW55x_RELEASE_V1.0.2/MSDK/plf/GD32VW55x_standard_peripheral/Source\gd32vw55x_efuse.c ****             reg_addr = (uint32_t)(EFUSE + 0x14U + ef_addr);
 141:C:/Users/stapi/OneDrive/Desktop/GD32VW553/V1_MQTT_OK/GD32VW55X_Wifi_BLE_SDK/GD32VW55x_RELEASE_V1.0.2/MSDK/plf/GD32VW55x_standard_peripheral/Source\gd32vw55x_efuse.c ****         }
 142:C:/Users/stapi/OneDrive/Desktop/GD32VW553/V1_MQTT_OK/GD32VW55X_Wifi_BLE_SDK/GD32VW55x_RELEASE_V1.0.2/MSDK/plf/GD32VW55x_standard_peripheral/Source\gd32vw55x_efuse.c ****     }
 143:C:/Users/stapi/OneDrive/Desktop/GD32VW553/V1_MQTT_OK/GD32VW55X_Wifi_BLE_SDK/GD32VW55x_RELEASE_V1.0.2/MSDK/plf/GD32VW55x_standard_peripheral/Source\gd32vw55x_efuse.c **** 
 144:C:/Users/stapi/OneDrive/Desktop/GD32VW553/V1_MQTT_OK/GD32VW55X_Wifi_BLE_SDK/GD32VW55x_RELEASE_V1.0.2/MSDK/plf/GD32VW55x_standard_peripheral/Source\gd32vw55x_efuse.c ****     /* EFUSE power on */
 145:C:/Users/stapi/OneDrive/Desktop/GD32VW553/V1_MQTT_OK/GD32VW55X_Wifi_BLE_SDK/GD32VW55x_RELEASE_V1.0.2/MSDK/plf/GD32VW55x_standard_peripheral/Source\gd32vw55x_efuse.c ****     RCU_CFG1 |= RCU_CFG1_BGPU;
 146:C:/Users/stapi/OneDrive/Desktop/GD32VW553/V1_MQTT_OK/GD32VW55X_Wifi_BLE_SDK/GD32VW55x_RELEASE_V1.0.2/MSDK/plf/GD32VW55x_standard_peripheral/Source\gd32vw55x_efuse.c ****     /* EFUSE write operation */
 147:C:/Users/stapi/OneDrive/Desktop/GD32VW553/V1_MQTT_OK/GD32VW55X_Wifi_BLE_SDK/GD32VW55x_RELEASE_V1.0.2/MSDK/plf/GD32VW55x_standard_peripheral/Source\gd32vw55x_efuse.c ****     EFUSE_CS |= EFUSE_CS_EFRW;
 148:C:/Users/stapi/OneDrive/Desktop/GD32VW553/V1_MQTT_OK/GD32VW55X_Wifi_BLE_SDK/GD32VW55x_RELEASE_V1.0.2/MSDK/plf/GD32VW55x_standard_peripheral/Source\gd32vw55x_efuse.c ****     /* write EFUSE address and size */
 149:C:/Users/stapi/OneDrive/Desktop/GD32VW553/V1_MQTT_OK/GD32VW55X_Wifi_BLE_SDK/GD32VW55x_RELEASE_V1.0.2/MSDK/plf/GD32VW55x_standard_peripheral/Source\gd32vw55x_efuse.c ****     EFUSE_ADDR = (uint32_t)((size << 8U) | ef_addr);
 150:C:/Users/stapi/OneDrive/Desktop/GD32VW553/V1_MQTT_OK/GD32VW55X_Wifi_BLE_SDK/GD32VW55x_RELEASE_V1.0.2/MSDK/plf/GD32VW55x_standard_peripheral/Source\gd32vw55x_efuse.c ****     /* write EFUSE */
 151:C:/Users/stapi/OneDrive/Desktop/GD32VW553/V1_MQTT_OK/GD32VW55X_Wifi_BLE_SDK/GD32VW55x_RELEASE_V1.0.2/MSDK/plf/GD32VW55x_standard_peripheral/Source\gd32vw55x_efuse.c ****     for(i = 0U; i < number; i++) {
 152:C:/Users/stapi/OneDrive/Desktop/GD32VW553/V1_MQTT_OK/GD32VW55X_Wifi_BLE_SDK/GD32VW55x_RELEASE_V1.0.2/MSDK/plf/GD32VW55x_standard_peripheral/Source\gd32vw55x_efuse.c ****         REG32(reg_addr + (4U * i)) = buf[i];
 153:C:/Users/stapi/OneDrive/Desktop/GD32VW553/V1_MQTT_OK/GD32VW55X_Wifi_BLE_SDK/GD32VW55x_RELEASE_V1.0.2/MSDK/plf/GD32VW55x_standard_peripheral/Source\gd32vw55x_efuse.c ****     }
 154:C:/Users/stapi/OneDrive/Desktop/GD32VW553/V1_MQTT_OK/GD32VW55X_Wifi_BLE_SDK/GD32VW55x_RELEASE_V1.0.2/MSDK/plf/GD32VW55x_standard_peripheral/Source\gd32vw55x_efuse.c ****     /* start write EFUSE operation */
 155:C:/Users/stapi/OneDrive/Desktop/GD32VW553/V1_MQTT_OK/GD32VW55X_Wifi_BLE_SDK/GD32VW55x_RELEASE_V1.0.2/MSDK/plf/GD32VW55x_standard_peripheral/Source\gd32vw55x_efuse.c ****     EFUSE_CS |= EFUSE_CS_EFSTR;
 156:C:/Users/stapi/OneDrive/Desktop/GD32VW553/V1_MQTT_OK/GD32VW55X_Wifi_BLE_SDK/GD32VW55x_RELEASE_V1.0.2/MSDK/plf/GD32VW55x_standard_peripheral/Source\gd32vw55x_efuse.c **** 
 157:C:/Users/stapi/OneDrive/Desktop/GD32VW553/V1_MQTT_OK/GD32VW55X_Wifi_BLE_SDK/GD32VW55x_RELEASE_V1.0.2/MSDK/plf/GD32VW55x_standard_peripheral/Source\gd32vw55x_efuse.c ****     /* wait for the operation to complete */
 158:C:/Users/stapi/OneDrive/Desktop/GD32VW553/V1_MQTT_OK/GD32VW55X_Wifi_BLE_SDK/GD32VW55x_RELEASE_V1.0.2/MSDK/plf/GD32VW55x_standard_peripheral/Source\gd32vw55x_efuse.c ****     do {
 159:C:/Users/stapi/OneDrive/Desktop/GD32VW553/V1_MQTT_OK/GD32VW55X_Wifi_BLE_SDK/GD32VW55x_RELEASE_V1.0.2/MSDK/plf/GD32VW55x_standard_peripheral/Source\gd32vw55x_efuse.c ****         timeout--;
 160:C:/Users/stapi/OneDrive/Desktop/GD32VW553/V1_MQTT_OK/GD32VW55X_Wifi_BLE_SDK/GD32VW55x_RELEASE_V1.0.2/MSDK/plf/GD32VW55x_standard_peripheral/Source\gd32vw55x_efuse.c ****     } while((RESET == efuse_flag_get(EFUSE_PGIF)) && (0x00U != timeout));
 161:C:/Users/stapi/OneDrive/Desktop/GD32VW553/V1_MQTT_OK/GD32VW55X_Wifi_BLE_SDK/GD32VW55x_RELEASE_V1.0.2/MSDK/plf/GD32VW55x_standard_peripheral/Source\gd32vw55x_efuse.c ****     if(0x00U == timeout) {
 162:C:/Users/stapi/OneDrive/Desktop/GD32VW553/V1_MQTT_OK/GD32VW55X_Wifi_BLE_SDK/GD32VW55x_RELEASE_V1.0.2/MSDK/plf/GD32VW55x_standard_peripheral/Source\gd32vw55x_efuse.c ****         return ERROR;
 163:C:/Users/stapi/OneDrive/Desktop/GD32VW553/V1_MQTT_OK/GD32VW55X_Wifi_BLE_SDK/GD32VW55x_RELEASE_V1.0.2/MSDK/plf/GD32VW55x_standard_peripheral/Source\gd32vw55x_efuse.c ****     }
 164:C:/Users/stapi/OneDrive/Desktop/GD32VW553/V1_MQTT_OK/GD32VW55X_Wifi_BLE_SDK/GD32VW55x_RELEASE_V1.0.2/MSDK/plf/GD32VW55x_standard_peripheral/Source\gd32vw55x_efuse.c **** 
 165:C:/Users/stapi/OneDrive/Desktop/GD32VW553/V1_MQTT_OK/GD32VW55X_Wifi_BLE_SDK/GD32VW55x_RELEASE_V1.0.2/MSDK/plf/GD32VW55x_standard_peripheral/Source\gd32vw55x_efuse.c ****     /* clear EFUSE write operation flag */
 166:C:/Users/stapi/OneDrive/Desktop/GD32VW553/V1_MQTT_OK/GD32VW55X_Wifi_BLE_SDK/GD32VW55x_RELEASE_V1.0.2/MSDK/plf/GD32VW55x_standard_peripheral/Source\gd32vw55x_efuse.c ****     EFUSE_CS &= (~EFUSE_CS_EFRW);
 167:C:/Users/stapi/OneDrive/Desktop/GD32VW553/V1_MQTT_OK/GD32VW55X_Wifi_BLE_SDK/GD32VW55x_RELEASE_V1.0.2/MSDK/plf/GD32VW55x_standard_peripheral/Source\gd32vw55x_efuse.c ****     /* clear EFUSE write completed flag*/
 168:C:/Users/stapi/OneDrive/Desktop/GD32VW553/V1_MQTT_OK/GD32VW55X_Wifi_BLE_SDK/GD32VW55x_RELEASE_V1.0.2/MSDK/plf/GD32VW55x_standard_peripheral/Source\gd32vw55x_efuse.c ****     EFUSE_CS |= (uint32_t)EFUSE_CS_PGIC;
 169:C:/Users/stapi/OneDrive/Desktop/GD32VW553/V1_MQTT_OK/GD32VW55X_Wifi_BLE_SDK/GD32VW55x_RELEASE_V1.0.2/MSDK/plf/GD32VW55x_standard_peripheral/Source\gd32vw55x_efuse.c ****     /* EFUSE power off */
 170:C:/Users/stapi/OneDrive/Desktop/GD32VW553/V1_MQTT_OK/GD32VW55X_Wifi_BLE_SDK/GD32VW55x_RELEASE_V1.0.2/MSDK/plf/GD32VW55x_standard_peripheral/Source\gd32vw55x_efuse.c ****     RCU_CFG1 &= (~RCU_CFG1_BGPU);
 171:C:/Users/stapi/OneDrive/Desktop/GD32VW553/V1_MQTT_OK/GD32VW55X_Wifi_BLE_SDK/GD32VW55x_RELEASE_V1.0.2/MSDK/plf/GD32VW55x_standard_peripheral/Source\gd32vw55x_efuse.c **** 
 172:C:/Users/stapi/OneDrive/Desktop/GD32VW553/V1_MQTT_OK/GD32VW55X_Wifi_BLE_SDK/GD32VW55x_RELEASE_V1.0.2/MSDK/plf/GD32VW55x_standard_peripheral/Source\gd32vw55x_efuse.c ****     return SUCCESS;
 173:C:/Users/stapi/OneDrive/Desktop/GD32VW553/V1_MQTT_OK/GD32VW55X_Wifi_BLE_SDK/GD32VW55x_RELEASE_V1.0.2/MSDK/plf/GD32VW55x_standard_peripheral/Source\gd32vw55x_efuse.c **** }
 174:C:/Users/stapi/OneDrive/Desktop/GD32VW553/V1_MQTT_OK/GD32VW55X_Wifi_BLE_SDK/GD32VW55x_RELEASE_V1.0.2/MSDK/plf/GD32VW55x_standard_peripheral/Source\gd32vw55x_efuse.c **** 
 175:C:/Users/stapi/OneDrive/Desktop/GD32VW553/V1_MQTT_OK/GD32VW55X_Wifi_BLE_SDK/GD32VW55x_RELEASE_V1.0.2/MSDK/plf/GD32VW55x_standard_peripheral/Source\gd32vw55x_efuse.c **** /*!
 176:C:/Users/stapi/OneDrive/Desktop/GD32VW553/V1_MQTT_OK/GD32VW55X_Wifi_BLE_SDK/GD32VW55x_RELEASE_V1.0.2/MSDK/plf/GD32VW55x_standard_peripheral/Source\gd32vw55x_efuse.c ****     \brief      configure boot
 177:C:/Users/stapi/OneDrive/Desktop/GD32VW553/V1_MQTT_OK/GD32VW55X_Wifi_BLE_SDK/GD32VW55x_RELEASE_V1.0.2/MSDK/plf/GD32VW55x_standard_peripheral/Source\gd32vw55x_efuse.c ****     \param[in]  size: size of data(byte)
 178:C:/Users/stapi/OneDrive/Desktop/GD32VW553/V1_MQTT_OK/GD32VW55X_Wifi_BLE_SDK/GD32VW55x_RELEASE_V1.0.2/MSDK/plf/GD32VW55x_standard_peripheral/Source\gd32vw55x_efuse.c ****       \arg        the size must be 1
 179:C:/Users/stapi/OneDrive/Desktop/GD32VW553/V1_MQTT_OK/GD32VW55X_Wifi_BLE_SDK/GD32VW55x_RELEASE_V1.0.2/MSDK/plf/GD32VW55x_standard_peripheral/Source\gd32vw55x_efuse.c ****     \param[in]  bt_value: the value of boot configuration
 180:C:/Users/stapi/OneDrive/Desktop/GD32VW553/V1_MQTT_OK/GD32VW55X_Wifi_BLE_SDK/GD32VW55x_RELEASE_V1.0.2/MSDK/plf/GD32VW55x_standard_peripheral/Source\gd32vw55x_efuse.c ****     \param[out] none
 181:C:/Users/stapi/OneDrive/Desktop/GD32VW553/V1_MQTT_OK/GD32VW55X_Wifi_BLE_SDK/GD32VW55x_RELEASE_V1.0.2/MSDK/plf/GD32VW55x_standard_peripheral/Source\gd32vw55x_efuse.c ****     \retval     ErrStatus: ERROR or SUCCESS
 182:C:/Users/stapi/OneDrive/Desktop/GD32VW553/V1_MQTT_OK/GD32VW55X_Wifi_BLE_SDK/GD32VW55x_RELEASE_V1.0.2/MSDK/plf/GD32VW55x_standard_peripheral/Source\gd32vw55x_efuse.c **** */
 183:C:/Users/stapi/OneDrive/Desktop/GD32VW553/V1_MQTT_OK/GD32VW55X_Wifi_BLE_SDK/GD32VW55x_RELEASE_V1.0.2/MSDK/plf/GD32VW55x_standard_peripheral/Source\gd32vw55x_efuse.c **** ErrStatus efuse_boot_config(uint32_t size, uint8_t bt_value[])
 184:C:/Users/stapi/OneDrive/Desktop/GD32VW553/V1_MQTT_OK/GD32VW55X_Wifi_BLE_SDK/GD32VW55x_RELEASE_V1.0.2/MSDK/plf/GD32VW55x_standard_peripheral/Source\gd32vw55x_efuse.c **** {
 185:C:/Users/stapi/OneDrive/Desktop/GD32VW553/V1_MQTT_OK/GD32VW55X_Wifi_BLE_SDK/GD32VW55x_RELEASE_V1.0.2/MSDK/plf/GD32VW55x_standard_peripheral/Source\gd32vw55x_efuse.c ****     if(size != 1U) {
 186:C:/Users/stapi/OneDrive/Desktop/GD32VW553/V1_MQTT_OK/GD32VW55X_Wifi_BLE_SDK/GD32VW55x_RELEASE_V1.0.2/MSDK/plf/GD32VW55x_standard_peripheral/Source\gd32vw55x_efuse.c ****         return ERROR;
 187:C:/Users/stapi/OneDrive/Desktop/GD32VW553/V1_MQTT_OK/GD32VW55X_Wifi_BLE_SDK/GD32VW55x_RELEASE_V1.0.2/MSDK/plf/GD32VW55x_standard_peripheral/Source\gd32vw55x_efuse.c ****     }
 188:C:/Users/stapi/OneDrive/Desktop/GD32VW553/V1_MQTT_OK/GD32VW55X_Wifi_BLE_SDK/GD32VW55x_RELEASE_V1.0.2/MSDK/plf/GD32VW55x_standard_peripheral/Source\gd32vw55x_efuse.c ****     return efuse_write(EFUSE_CTL0_ADDR, size, (uint32_t *)bt_value);
 189:C:/Users/stapi/OneDrive/Desktop/GD32VW553/V1_MQTT_OK/GD32VW55X_Wifi_BLE_SDK/GD32VW55x_RELEASE_V1.0.2/MSDK/plf/GD32VW55x_standard_peripheral/Source\gd32vw55x_efuse.c **** }
 190:C:/Users/stapi/OneDrive/Desktop/GD32VW553/V1_MQTT_OK/GD32VW55X_Wifi_BLE_SDK/GD32VW55x_RELEASE_V1.0.2/MSDK/plf/GD32VW55x_standard_peripheral/Source\gd32vw55x_efuse.c **** 
 191:C:/Users/stapi/OneDrive/Desktop/GD32VW553/V1_MQTT_OK/GD32VW55X_Wifi_BLE_SDK/GD32VW55x_RELEASE_V1.0.2/MSDK/plf/GD32VW55x_standard_peripheral/Source\gd32vw55x_efuse.c **** /*!
 192:C:/Users/stapi/OneDrive/Desktop/GD32VW553/V1_MQTT_OK/GD32VW55X_Wifi_BLE_SDK/GD32VW55x_RELEASE_V1.0.2/MSDK/plf/GD32VW55x_standard_peripheral/Source\gd32vw55x_efuse.c ****     \brief      configure efuse control1
 193:C:/Users/stapi/OneDrive/Desktop/GD32VW553/V1_MQTT_OK/GD32VW55X_Wifi_BLE_SDK/GD32VW55x_RELEASE_V1.0.2/MSDK/plf/GD32VW55x_standard_peripheral/Source\gd32vw55x_efuse.c ****     \param[in]  size: size of data(byte)
 194:C:/Users/stapi/OneDrive/Desktop/GD32VW553/V1_MQTT_OK/GD32VW55X_Wifi_BLE_SDK/GD32VW55x_RELEASE_V1.0.2/MSDK/plf/GD32VW55x_standard_peripheral/Source\gd32vw55x_efuse.c ****       \arg      the size must be 1
 195:C:/Users/stapi/OneDrive/Desktop/GD32VW553/V1_MQTT_OK/GD32VW55X_Wifi_BLE_SDK/GD32VW55x_RELEASE_V1.0.2/MSDK/plf/GD32VW55x_standard_peripheral/Source\gd32vw55x_efuse.c ****     \param[in]  ctl: control value
 196:C:/Users/stapi/OneDrive/Desktop/GD32VW553/V1_MQTT_OK/GD32VW55X_Wifi_BLE_SDK/GD32VW55x_RELEASE_V1.0.2/MSDK/plf/GD32VW55x_standard_peripheral/Source\gd32vw55x_efuse.c ****     \param[out] none
 197:C:/Users/stapi/OneDrive/Desktop/GD32VW553/V1_MQTT_OK/GD32VW55X_Wifi_BLE_SDK/GD32VW55x_RELEASE_V1.0.2/MSDK/plf/GD32VW55x_standard_peripheral/Source\gd32vw55x_efuse.c ****     \retval     ErrStatus: ERROR or SUCCESS
 198:C:/Users/stapi/OneDrive/Desktop/GD32VW553/V1_MQTT_OK/GD32VW55X_Wifi_BLE_SDK/GD32VW55x_RELEASE_V1.0.2/MSDK/plf/GD32VW55x_standard_peripheral/Source\gd32vw55x_efuse.c **** */
 199:C:/Users/stapi/OneDrive/Desktop/GD32VW553/V1_MQTT_OK/GD32VW55X_Wifi_BLE_SDK/GD32VW55x_RELEASE_V1.0.2/MSDK/plf/GD32VW55x_standard_peripheral/Source\gd32vw55x_efuse.c **** ErrStatus efuse_control1_config(uint32_t size, uint8_t ctl[])
 200:C:/Users/stapi/OneDrive/Desktop/GD32VW553/V1_MQTT_OK/GD32VW55X_Wifi_BLE_SDK/GD32VW55x_RELEASE_V1.0.2/MSDK/plf/GD32VW55x_standard_peripheral/Source\gd32vw55x_efuse.c **** {
 201:C:/Users/stapi/OneDrive/Desktop/GD32VW553/V1_MQTT_OK/GD32VW55X_Wifi_BLE_SDK/GD32VW55x_RELEASE_V1.0.2/MSDK/plf/GD32VW55x_standard_peripheral/Source\gd32vw55x_efuse.c ****     if(size != 1U) {
 202:C:/Users/stapi/OneDrive/Desktop/GD32VW553/V1_MQTT_OK/GD32VW55X_Wifi_BLE_SDK/GD32VW55x_RELEASE_V1.0.2/MSDK/plf/GD32VW55x_standard_peripheral/Source\gd32vw55x_efuse.c ****         return ERROR;
 203:C:/Users/stapi/OneDrive/Desktop/GD32VW553/V1_MQTT_OK/GD32VW55X_Wifi_BLE_SDK/GD32VW55x_RELEASE_V1.0.2/MSDK/plf/GD32VW55x_standard_peripheral/Source\gd32vw55x_efuse.c ****     }
 204:C:/Users/stapi/OneDrive/Desktop/GD32VW553/V1_MQTT_OK/GD32VW55X_Wifi_BLE_SDK/GD32VW55x_RELEASE_V1.0.2/MSDK/plf/GD32VW55x_standard_peripheral/Source\gd32vw55x_efuse.c ****     return efuse_write(EFUSE_CTL1_ADDR, size, (uint32_t *)ctl);
 205:C:/Users/stapi/OneDrive/Desktop/GD32VW553/V1_MQTT_OK/GD32VW55X_Wifi_BLE_SDK/GD32VW55x_RELEASE_V1.0.2/MSDK/plf/GD32VW55x_standard_peripheral/Source\gd32vw55x_efuse.c **** }
 206:C:/Users/stapi/OneDrive/Desktop/GD32VW553/V1_MQTT_OK/GD32VW55X_Wifi_BLE_SDK/GD32VW55x_RELEASE_V1.0.2/MSDK/plf/GD32VW55x_standard_peripheral/Source\gd32vw55x_efuse.c **** 
 207:C:/Users/stapi/OneDrive/Desktop/GD32VW553/V1_MQTT_OK/GD32VW55X_Wifi_BLE_SDK/GD32VW55x_RELEASE_V1.0.2/MSDK/plf/GD32VW55x_standard_peripheral/Source\gd32vw55x_efuse.c **** /*!
 208:C:/Users/stapi/OneDrive/Desktop/GD32VW553/V1_MQTT_OK/GD32VW55X_Wifi_BLE_SDK/GD32VW55x_RELEASE_V1.0.2/MSDK/plf/GD32VW55x_standard_peripheral/Source\gd32vw55x_efuse.c ****     \brief      configure flash protection
 209:C:/Users/stapi/OneDrive/Desktop/GD32VW553/V1_MQTT_OK/GD32VW55X_Wifi_BLE_SDK/GD32VW55x_RELEASE_V1.0.2/MSDK/plf/GD32VW55x_standard_peripheral/Source\gd32vw55x_efuse.c ****     \param[in]  size: size of data(byte)
 210:C:/Users/stapi/OneDrive/Desktop/GD32VW553/V1_MQTT_OK/GD32VW55X_Wifi_BLE_SDK/GD32VW55x_RELEASE_V1.0.2/MSDK/plf/GD32VW55x_standard_peripheral/Source\gd32vw55x_efuse.c ****       \arg        the size must be 1
 211:C:/Users/stapi/OneDrive/Desktop/GD32VW553/V1_MQTT_OK/GD32VW55X_Wifi_BLE_SDK/GD32VW55x_RELEASE_V1.0.2/MSDK/plf/GD32VW55x_standard_peripheral/Source\gd32vw55x_efuse.c ****     \param[in]  fp_value: flash protection value
 212:C:/Users/stapi/OneDrive/Desktop/GD32VW553/V1_MQTT_OK/GD32VW55X_Wifi_BLE_SDK/GD32VW55x_RELEASE_V1.0.2/MSDK/plf/GD32VW55x_standard_peripheral/Source\gd32vw55x_efuse.c ****     \param[out] none
 213:C:/Users/stapi/OneDrive/Desktop/GD32VW553/V1_MQTT_OK/GD32VW55X_Wifi_BLE_SDK/GD32VW55x_RELEASE_V1.0.2/MSDK/plf/GD32VW55x_standard_peripheral/Source\gd32vw55x_efuse.c ****     \retval     ErrStatus: ERROR or SUCCESS
 214:C:/Users/stapi/OneDrive/Desktop/GD32VW553/V1_MQTT_OK/GD32VW55X_Wifi_BLE_SDK/GD32VW55x_RELEASE_V1.0.2/MSDK/plf/GD32VW55x_standard_peripheral/Source\gd32vw55x_efuse.c **** */
 215:C:/Users/stapi/OneDrive/Desktop/GD32VW553/V1_MQTT_OK/GD32VW55X_Wifi_BLE_SDK/GD32VW55x_RELEASE_V1.0.2/MSDK/plf/GD32VW55x_standard_peripheral/Source\gd32vw55x_efuse.c **** ErrStatus efuse_fp_config(uint32_t size, uint8_t fp_value[])
 216:C:/Users/stapi/OneDrive/Desktop/GD32VW553/V1_MQTT_OK/GD32VW55X_Wifi_BLE_SDK/GD32VW55x_RELEASE_V1.0.2/MSDK/plf/GD32VW55x_standard_peripheral/Source\gd32vw55x_efuse.c **** {
 217:C:/Users/stapi/OneDrive/Desktop/GD32VW553/V1_MQTT_OK/GD32VW55X_Wifi_BLE_SDK/GD32VW55x_RELEASE_V1.0.2/MSDK/plf/GD32VW55x_standard_peripheral/Source\gd32vw55x_efuse.c ****     if(size != 1U) {
 218:C:/Users/stapi/OneDrive/Desktop/GD32VW553/V1_MQTT_OK/GD32VW55X_Wifi_BLE_SDK/GD32VW55x_RELEASE_V1.0.2/MSDK/plf/GD32VW55x_standard_peripheral/Source\gd32vw55x_efuse.c ****         return ERROR;
 219:C:/Users/stapi/OneDrive/Desktop/GD32VW553/V1_MQTT_OK/GD32VW55X_Wifi_BLE_SDK/GD32VW55x_RELEASE_V1.0.2/MSDK/plf/GD32VW55x_standard_peripheral/Source\gd32vw55x_efuse.c ****     }
 220:C:/Users/stapi/OneDrive/Desktop/GD32VW553/V1_MQTT_OK/GD32VW55X_Wifi_BLE_SDK/GD32VW55x_RELEASE_V1.0.2/MSDK/plf/GD32VW55x_standard_peripheral/Source\gd32vw55x_efuse.c ****     return efuse_write(FP_ADDR, size, (uint32_t *)fp_value);
 221:C:/Users/stapi/OneDrive/Desktop/GD32VW553/V1_MQTT_OK/GD32VW55X_Wifi_BLE_SDK/GD32VW55x_RELEASE_V1.0.2/MSDK/plf/GD32VW55x_standard_peripheral/Source\gd32vw55x_efuse.c **** }
 222:C:/Users/stapi/OneDrive/Desktop/GD32VW553/V1_MQTT_OK/GD32VW55X_Wifi_BLE_SDK/GD32VW55x_RELEASE_V1.0.2/MSDK/plf/GD32VW55x_standard_peripheral/Source\gd32vw55x_efuse.c **** 
 223:C:/Users/stapi/OneDrive/Desktop/GD32VW553/V1_MQTT_OK/GD32VW55X_Wifi_BLE_SDK/GD32VW55x_RELEASE_V1.0.2/MSDK/plf/GD32VW55x_standard_peripheral/Source\gd32vw55x_efuse.c **** /*!
 224:C:/Users/stapi/OneDrive/Desktop/GD32VW553/V1_MQTT_OK/GD32VW55X_Wifi_BLE_SDK/GD32VW55x_RELEASE_V1.0.2/MSDK/plf/GD32VW55x_standard_peripheral/Source\gd32vw55x_efuse.c ****     \brief      configure user control
 225:C:/Users/stapi/OneDrive/Desktop/GD32VW553/V1_MQTT_OK/GD32VW55X_Wifi_BLE_SDK/GD32VW55x_RELEASE_V1.0.2/MSDK/plf/GD32VW55x_standard_peripheral/Source\gd32vw55x_efuse.c ****     \param[in]  size: size of data(byte)
 226:C:/Users/stapi/OneDrive/Desktop/GD32VW553/V1_MQTT_OK/GD32VW55X_Wifi_BLE_SDK/GD32VW55x_RELEASE_V1.0.2/MSDK/plf/GD32VW55x_standard_peripheral/Source\gd32vw55x_efuse.c ****       \arg        the size must be 1
 227:C:/Users/stapi/OneDrive/Desktop/GD32VW553/V1_MQTT_OK/GD32VW55X_Wifi_BLE_SDK/GD32VW55x_RELEASE_V1.0.2/MSDK/plf/GD32VW55x_standard_peripheral/Source\gd32vw55x_efuse.c ****     \param[in]  user_ctl: user control value
 228:C:/Users/stapi/OneDrive/Desktop/GD32VW553/V1_MQTT_OK/GD32VW55X_Wifi_BLE_SDK/GD32VW55x_RELEASE_V1.0.2/MSDK/plf/GD32VW55x_standard_peripheral/Source\gd32vw55x_efuse.c ****     \param[out] none
 229:C:/Users/stapi/OneDrive/Desktop/GD32VW553/V1_MQTT_OK/GD32VW55X_Wifi_BLE_SDK/GD32VW55x_RELEASE_V1.0.2/MSDK/plf/GD32VW55x_standard_peripheral/Source\gd32vw55x_efuse.c ****     \retval     ErrStatus: ERROR or SUCCESS
 230:C:/Users/stapi/OneDrive/Desktop/GD32VW553/V1_MQTT_OK/GD32VW55X_Wifi_BLE_SDK/GD32VW55x_RELEASE_V1.0.2/MSDK/plf/GD32VW55x_standard_peripheral/Source\gd32vw55x_efuse.c **** */
 231:C:/Users/stapi/OneDrive/Desktop/GD32VW553/V1_MQTT_OK/GD32VW55X_Wifi_BLE_SDK/GD32VW55x_RELEASE_V1.0.2/MSDK/plf/GD32VW55x_standard_peripheral/Source\gd32vw55x_efuse.c **** ErrStatus efuse_user_control_config(uint32_t size, uint8_t user_ctl[])
 232:C:/Users/stapi/OneDrive/Desktop/GD32VW553/V1_MQTT_OK/GD32VW55X_Wifi_BLE_SDK/GD32VW55x_RELEASE_V1.0.2/MSDK/plf/GD32VW55x_standard_peripheral/Source\gd32vw55x_efuse.c **** {
 233:C:/Users/stapi/OneDrive/Desktop/GD32VW553/V1_MQTT_OK/GD32VW55X_Wifi_BLE_SDK/GD32VW55x_RELEASE_V1.0.2/MSDK/plf/GD32VW55x_standard_peripheral/Source\gd32vw55x_efuse.c ****     if(size != 1U) {
 234:C:/Users/stapi/OneDrive/Desktop/GD32VW553/V1_MQTT_OK/GD32VW55X_Wifi_BLE_SDK/GD32VW55x_RELEASE_V1.0.2/MSDK/plf/GD32VW55x_standard_peripheral/Source\gd32vw55x_efuse.c ****         return ERROR;
 235:C:/Users/stapi/OneDrive/Desktop/GD32VW553/V1_MQTT_OK/GD32VW55X_Wifi_BLE_SDK/GD32VW55x_RELEASE_V1.0.2/MSDK/plf/GD32VW55x_standard_peripheral/Source\gd32vw55x_efuse.c ****     }
 236:C:/Users/stapi/OneDrive/Desktop/GD32VW553/V1_MQTT_OK/GD32VW55X_Wifi_BLE_SDK/GD32VW55x_RELEASE_V1.0.2/MSDK/plf/GD32VW55x_standard_peripheral/Source\gd32vw55x_efuse.c ****     return efuse_write(USER_CTL_ADDR, size, (uint32_t *)user_ctl);
 237:C:/Users/stapi/OneDrive/Desktop/GD32VW553/V1_MQTT_OK/GD32VW55X_Wifi_BLE_SDK/GD32VW55x_RELEASE_V1.0.2/MSDK/plf/GD32VW55x_standard_peripheral/Source\gd32vw55x_efuse.c **** }
 238:C:/Users/stapi/OneDrive/Desktop/GD32VW553/V1_MQTT_OK/GD32VW55X_Wifi_BLE_SDK/GD32VW55x_RELEASE_V1.0.2/MSDK/plf/GD32VW55x_standard_peripheral/Source\gd32vw55x_efuse.c **** 
 239:C:/Users/stapi/OneDrive/Desktop/GD32VW553/V1_MQTT_OK/GD32VW55X_Wifi_BLE_SDK/GD32VW55x_RELEASE_V1.0.2/MSDK/plf/GD32VW55x_standard_peripheral/Source\gd32vw55x_efuse.c **** /*!
 240:C:/Users/stapi/OneDrive/Desktop/GD32VW553/V1_MQTT_OK/GD32VW55X_Wifi_BLE_SDK/GD32VW55x_RELEASE_V1.0.2/MSDK/plf/GD32VW55x_standard_peripheral/Source\gd32vw55x_efuse.c ****     \brief      write MCU reserved value
 241:C:/Users/stapi/OneDrive/Desktop/GD32VW553/V1_MQTT_OK/GD32VW55X_Wifi_BLE_SDK/GD32VW55x_RELEASE_V1.0.2/MSDK/plf/GD32VW55x_standard_peripheral/Source\gd32vw55x_efuse.c ****     \param[in]  size: size of data(byte)
 242:C:/Users/stapi/OneDrive/Desktop/GD32VW553/V1_MQTT_OK/GD32VW55X_Wifi_BLE_SDK/GD32VW55x_RELEASE_V1.0.2/MSDK/plf/GD32VW55x_standard_peripheral/Source\gd32vw55x_efuse.c ****       \arg        the size must be 12
 243:C:/Users/stapi/OneDrive/Desktop/GD32VW553/V1_MQTT_OK/GD32VW55X_Wifi_BLE_SDK/GD32VW55x_RELEASE_V1.0.2/MSDK/plf/GD32VW55x_standard_peripheral/Source\gd32vw55x_efuse.c ****     \param[in]  buf: MCU reserved value
 244:C:/Users/stapi/OneDrive/Desktop/GD32VW553/V1_MQTT_OK/GD32VW55X_Wifi_BLE_SDK/GD32VW55x_RELEASE_V1.0.2/MSDK/plf/GD32VW55x_standard_peripheral/Source\gd32vw55x_efuse.c ****     \param[out] none
 245:C:/Users/stapi/OneDrive/Desktop/GD32VW553/V1_MQTT_OK/GD32VW55X_Wifi_BLE_SDK/GD32VW55x_RELEASE_V1.0.2/MSDK/plf/GD32VW55x_standard_peripheral/Source\gd32vw55x_efuse.c ****     \retval     ErrStatus: ERROR or SUCCESS
 246:C:/Users/stapi/OneDrive/Desktop/GD32VW553/V1_MQTT_OK/GD32VW55X_Wifi_BLE_SDK/GD32VW55x_RELEASE_V1.0.2/MSDK/plf/GD32VW55x_standard_peripheral/Source\gd32vw55x_efuse.c **** */
 247:C:/Users/stapi/OneDrive/Desktop/GD32VW553/V1_MQTT_OK/GD32VW55X_Wifi_BLE_SDK/GD32VW55x_RELEASE_V1.0.2/MSDK/plf/GD32VW55x_standard_peripheral/Source\gd32vw55x_efuse.c **** ErrStatus efuse_res_write(uint32_t size, uint8_t buf[])
 248:C:/Users/stapi/OneDrive/Desktop/GD32VW553/V1_MQTT_OK/GD32VW55X_Wifi_BLE_SDK/GD32VW55x_RELEASE_V1.0.2/MSDK/plf/GD32VW55x_standard_peripheral/Source\gd32vw55x_efuse.c **** {
 249:C:/Users/stapi/OneDrive/Desktop/GD32VW553/V1_MQTT_OK/GD32VW55X_Wifi_BLE_SDK/GD32VW55x_RELEASE_V1.0.2/MSDK/plf/GD32VW55x_standard_peripheral/Source\gd32vw55x_efuse.c ****     if(size != 12U) {
 250:C:/Users/stapi/OneDrive/Desktop/GD32VW553/V1_MQTT_OK/GD32VW55X_Wifi_BLE_SDK/GD32VW55x_RELEASE_V1.0.2/MSDK/plf/GD32VW55x_standard_peripheral/Source\gd32vw55x_efuse.c ****         return ERROR;
 251:C:/Users/stapi/OneDrive/Desktop/GD32VW553/V1_MQTT_OK/GD32VW55X_Wifi_BLE_SDK/GD32VW55x_RELEASE_V1.0.2/MSDK/plf/GD32VW55x_standard_peripheral/Source\gd32vw55x_efuse.c ****     }
 252:C:/Users/stapi/OneDrive/Desktop/GD32VW553/V1_MQTT_OK/GD32VW55X_Wifi_BLE_SDK/GD32VW55x_RELEASE_V1.0.2/MSDK/plf/GD32VW55x_standard_peripheral/Source\gd32vw55x_efuse.c ****     return efuse_write(RESERVED_ADDR, size, (uint32_t *)buf);
 253:C:/Users/stapi/OneDrive/Desktop/GD32VW553/V1_MQTT_OK/GD32VW55X_Wifi_BLE_SDK/GD32VW55x_RELEASE_V1.0.2/MSDK/plf/GD32VW55x_standard_peripheral/Source\gd32vw55x_efuse.c **** }
 254:C:/Users/stapi/OneDrive/Desktop/GD32VW553/V1_MQTT_OK/GD32VW55X_Wifi_BLE_SDK/GD32VW55x_RELEASE_V1.0.2/MSDK/plf/GD32VW55x_standard_peripheral/Source\gd32vw55x_efuse.c **** 
 255:C:/Users/stapi/OneDrive/Desktop/GD32VW553/V1_MQTT_OK/GD32VW55X_Wifi_BLE_SDK/GD32VW55x_RELEASE_V1.0.2/MSDK/plf/GD32VW55x_standard_peripheral/Source\gd32vw55x_efuse.c **** /*!
 256:C:/Users/stapi/OneDrive/Desktop/GD32VW553/V1_MQTT_OK/GD32VW55X_Wifi_BLE_SDK/GD32VW55x_RELEASE_V1.0.2/MSDK/plf/GD32VW55x_standard_peripheral/Source\gd32vw55x_efuse.c ****     \brief      write AES key
 257:C:/Users/stapi/OneDrive/Desktop/GD32VW553/V1_MQTT_OK/GD32VW55X_Wifi_BLE_SDK/GD32VW55x_RELEASE_V1.0.2/MSDK/plf/GD32VW55x_standard_peripheral/Source\gd32vw55x_efuse.c ****     \param[in]  size: size of data(byte)
 258:C:/Users/stapi/OneDrive/Desktop/GD32VW553/V1_MQTT_OK/GD32VW55X_Wifi_BLE_SDK/GD32VW55x_RELEASE_V1.0.2/MSDK/plf/GD32VW55x_standard_peripheral/Source\gd32vw55x_efuse.c ****       \arg        the size must be 16
 259:C:/Users/stapi/OneDrive/Desktop/GD32VW553/V1_MQTT_OK/GD32VW55X_Wifi_BLE_SDK/GD32VW55x_RELEASE_V1.0.2/MSDK/plf/GD32VW55x_standard_peripheral/Source\gd32vw55x_efuse.c ****     \param[in]  buf: the buffer of data written to efuse
 260:C:/Users/stapi/OneDrive/Desktop/GD32VW553/V1_MQTT_OK/GD32VW55X_Wifi_BLE_SDK/GD32VW55x_RELEASE_V1.0.2/MSDK/plf/GD32VW55x_standard_peripheral/Source\gd32vw55x_efuse.c ****     \param[out] none
 261:C:/Users/stapi/OneDrive/Desktop/GD32VW553/V1_MQTT_OK/GD32VW55X_Wifi_BLE_SDK/GD32VW55x_RELEASE_V1.0.2/MSDK/plf/GD32VW55x_standard_peripheral/Source\gd32vw55x_efuse.c ****     \retval     ErrStatus: ERROR or SUCCESS
 262:C:/Users/stapi/OneDrive/Desktop/GD32VW553/V1_MQTT_OK/GD32VW55X_Wifi_BLE_SDK/GD32VW55x_RELEASE_V1.0.2/MSDK/plf/GD32VW55x_standard_peripheral/Source\gd32vw55x_efuse.c **** */
 263:C:/Users/stapi/OneDrive/Desktop/GD32VW553/V1_MQTT_OK/GD32VW55X_Wifi_BLE_SDK/GD32VW55x_RELEASE_V1.0.2/MSDK/plf/GD32VW55x_standard_peripheral/Source\gd32vw55x_efuse.c **** ErrStatus efuse_aes_key_write(uint32_t size, uint8_t buf[])
 264:C:/Users/stapi/OneDrive/Desktop/GD32VW553/V1_MQTT_OK/GD32VW55X_Wifi_BLE_SDK/GD32VW55x_RELEASE_V1.0.2/MSDK/plf/GD32VW55x_standard_peripheral/Source\gd32vw55x_efuse.c **** {
 265:C:/Users/stapi/OneDrive/Desktop/GD32VW553/V1_MQTT_OK/GD32VW55X_Wifi_BLE_SDK/GD32VW55x_RELEASE_V1.0.2/MSDK/plf/GD32VW55x_standard_peripheral/Source\gd32vw55x_efuse.c ****     if(size != 16U) {
 266:C:/Users/stapi/OneDrive/Desktop/GD32VW553/V1_MQTT_OK/GD32VW55X_Wifi_BLE_SDK/GD32VW55x_RELEASE_V1.0.2/MSDK/plf/GD32VW55x_standard_peripheral/Source\gd32vw55x_efuse.c ****         return ERROR;
 267:C:/Users/stapi/OneDrive/Desktop/GD32VW553/V1_MQTT_OK/GD32VW55X_Wifi_BLE_SDK/GD32VW55x_RELEASE_V1.0.2/MSDK/plf/GD32VW55x_standard_peripheral/Source\gd32vw55x_efuse.c ****     }
 268:C:/Users/stapi/OneDrive/Desktop/GD32VW553/V1_MQTT_OK/GD32VW55X_Wifi_BLE_SDK/GD32VW55x_RELEASE_V1.0.2/MSDK/plf/GD32VW55x_standard_peripheral/Source\gd32vw55x_efuse.c ****     return efuse_write(AES_KEY_ADDR, size, (uint32_t *)buf);
 269:C:/Users/stapi/OneDrive/Desktop/GD32VW553/V1_MQTT_OK/GD32VW55X_Wifi_BLE_SDK/GD32VW55x_RELEASE_V1.0.2/MSDK/plf/GD32VW55x_standard_peripheral/Source\gd32vw55x_efuse.c **** }
 270:C:/Users/stapi/OneDrive/Desktop/GD32VW553/V1_MQTT_OK/GD32VW55X_Wifi_BLE_SDK/GD32VW55x_RELEASE_V1.0.2/MSDK/plf/GD32VW55x_standard_peripheral/Source\gd32vw55x_efuse.c **** 
 271:C:/Users/stapi/OneDrive/Desktop/GD32VW553/V1_MQTT_OK/GD32VW55X_Wifi_BLE_SDK/GD32VW55x_RELEASE_V1.0.2/MSDK/plf/GD32VW55x_standard_peripheral/Source\gd32vw55x_efuse.c **** /*!
 272:C:/Users/stapi/OneDrive/Desktop/GD32VW553/V1_MQTT_OK/GD32VW55X_Wifi_BLE_SDK/GD32VW55x_RELEASE_V1.0.2/MSDK/plf/GD32VW55x_standard_peripheral/Source\gd32vw55x_efuse.c ****     \brief      write ROTPK key
 273:C:/Users/stapi/OneDrive/Desktop/GD32VW553/V1_MQTT_OK/GD32VW55X_Wifi_BLE_SDK/GD32VW55x_RELEASE_V1.0.2/MSDK/plf/GD32VW55x_standard_peripheral/Source\gd32vw55x_efuse.c ****     \param[in]  size: size of data(byte)
 274:C:/Users/stapi/OneDrive/Desktop/GD32VW553/V1_MQTT_OK/GD32VW55X_Wifi_BLE_SDK/GD32VW55x_RELEASE_V1.0.2/MSDK/plf/GD32VW55x_standard_peripheral/Source\gd32vw55x_efuse.c ****       \arg        the size must be 32
 275:C:/Users/stapi/OneDrive/Desktop/GD32VW553/V1_MQTT_OK/GD32VW55X_Wifi_BLE_SDK/GD32VW55x_RELEASE_V1.0.2/MSDK/plf/GD32VW55x_standard_peripheral/Source\gd32vw55x_efuse.c ****     \param[in]  buf: the buffer of data written to efuse
 276:C:/Users/stapi/OneDrive/Desktop/GD32VW553/V1_MQTT_OK/GD32VW55X_Wifi_BLE_SDK/GD32VW55x_RELEASE_V1.0.2/MSDK/plf/GD32VW55x_standard_peripheral/Source\gd32vw55x_efuse.c ****     \param[out] none
 277:C:/Users/stapi/OneDrive/Desktop/GD32VW553/V1_MQTT_OK/GD32VW55X_Wifi_BLE_SDK/GD32VW55x_RELEASE_V1.0.2/MSDK/plf/GD32VW55x_standard_peripheral/Source\gd32vw55x_efuse.c ****     \retval     ErrStatus: ERROR or SUCCESS
 278:C:/Users/stapi/OneDrive/Desktop/GD32VW553/V1_MQTT_OK/GD32VW55X_Wifi_BLE_SDK/GD32VW55x_RELEASE_V1.0.2/MSDK/plf/GD32VW55x_standard_peripheral/Source\gd32vw55x_efuse.c **** */
 279:C:/Users/stapi/OneDrive/Desktop/GD32VW553/V1_MQTT_OK/GD32VW55X_Wifi_BLE_SDK/GD32VW55x_RELEASE_V1.0.2/MSDK/plf/GD32VW55x_standard_peripheral/Source\gd32vw55x_efuse.c **** ErrStatus efuse_rotpk_key_write(uint32_t size, uint8_t buf[])
 280:C:/Users/stapi/OneDrive/Desktop/GD32VW553/V1_MQTT_OK/GD32VW55X_Wifi_BLE_SDK/GD32VW55x_RELEASE_V1.0.2/MSDK/plf/GD32VW55x_standard_peripheral/Source\gd32vw55x_efuse.c **** {
 281:C:/Users/stapi/OneDrive/Desktop/GD32VW553/V1_MQTT_OK/GD32VW55X_Wifi_BLE_SDK/GD32VW55x_RELEASE_V1.0.2/MSDK/plf/GD32VW55x_standard_peripheral/Source\gd32vw55x_efuse.c ****     if(size != 32U) {
 282:C:/Users/stapi/OneDrive/Desktop/GD32VW553/V1_MQTT_OK/GD32VW55X_Wifi_BLE_SDK/GD32VW55x_RELEASE_V1.0.2/MSDK/plf/GD32VW55x_standard_peripheral/Source\gd32vw55x_efuse.c ****         return ERROR;
 283:C:/Users/stapi/OneDrive/Desktop/GD32VW553/V1_MQTT_OK/GD32VW55X_Wifi_BLE_SDK/GD32VW55x_RELEASE_V1.0.2/MSDK/plf/GD32VW55x_standard_peripheral/Source\gd32vw55x_efuse.c ****     }
 284:C:/Users/stapi/OneDrive/Desktop/GD32VW553/V1_MQTT_OK/GD32VW55X_Wifi_BLE_SDK/GD32VW55x_RELEASE_V1.0.2/MSDK/plf/GD32VW55x_standard_peripheral/Source\gd32vw55x_efuse.c ****     return efuse_write(ROTPK_ADDR, size, (uint32_t *)buf);
 285:C:/Users/stapi/OneDrive/Desktop/GD32VW553/V1_MQTT_OK/GD32VW55X_Wifi_BLE_SDK/GD32VW55x_RELEASE_V1.0.2/MSDK/plf/GD32VW55x_standard_peripheral/Source\gd32vw55x_efuse.c **** }
 286:C:/Users/stapi/OneDrive/Desktop/GD32VW553/V1_MQTT_OK/GD32VW55X_Wifi_BLE_SDK/GD32VW55x_RELEASE_V1.0.2/MSDK/plf/GD32VW55x_standard_peripheral/Source\gd32vw55x_efuse.c **** 
 287:C:/Users/stapi/OneDrive/Desktop/GD32VW553/V1_MQTT_OK/GD32VW55X_Wifi_BLE_SDK/GD32VW55x_RELEASE_V1.0.2/MSDK/plf/GD32VW55x_standard_peripheral/Source\gd32vw55x_efuse.c **** /*!
 288:C:/Users/stapi/OneDrive/Desktop/GD32VW553/V1_MQTT_OK/GD32VW55X_Wifi_BLE_SDK/GD32VW55x_RELEASE_V1.0.2/MSDK/plf/GD32VW55x_standard_peripheral/Source\gd32vw55x_efuse.c ****     \brief      write user data
 289:C:/Users/stapi/OneDrive/Desktop/GD32VW553/V1_MQTT_OK/GD32VW55X_Wifi_BLE_SDK/GD32VW55x_RELEASE_V1.0.2/MSDK/plf/GD32VW55x_standard_peripheral/Source\gd32vw55x_efuse.c ****     \param[in]  size: size of data(byte)
 290:C:/Users/stapi/OneDrive/Desktop/GD32VW553/V1_MQTT_OK/GD32VW55X_Wifi_BLE_SDK/GD32VW55x_RELEASE_V1.0.2/MSDK/plf/GD32VW55x_standard_peripheral/Source\gd32vw55x_efuse.c ****       \arg        the size must be 32
 291:C:/Users/stapi/OneDrive/Desktop/GD32VW553/V1_MQTT_OK/GD32VW55X_Wifi_BLE_SDK/GD32VW55x_RELEASE_V1.0.2/MSDK/plf/GD32VW55x_standard_peripheral/Source\gd32vw55x_efuse.c ****     \param[in]  buf: the buffer of data written to efuse
 292:C:/Users/stapi/OneDrive/Desktop/GD32VW553/V1_MQTT_OK/GD32VW55X_Wifi_BLE_SDK/GD32VW55x_RELEASE_V1.0.2/MSDK/plf/GD32VW55x_standard_peripheral/Source\gd32vw55x_efuse.c ****     \param[out] none
 293:C:/Users/stapi/OneDrive/Desktop/GD32VW553/V1_MQTT_OK/GD32VW55X_Wifi_BLE_SDK/GD32VW55x_RELEASE_V1.0.2/MSDK/plf/GD32VW55x_standard_peripheral/Source\gd32vw55x_efuse.c ****     \retval     ErrStatus: ERROR or SUCCESS
 294:C:/Users/stapi/OneDrive/Desktop/GD32VW553/V1_MQTT_OK/GD32VW55X_Wifi_BLE_SDK/GD32VW55x_RELEASE_V1.0.2/MSDK/plf/GD32VW55x_standard_peripheral/Source\gd32vw55x_efuse.c **** */
 295:C:/Users/stapi/OneDrive/Desktop/GD32VW553/V1_MQTT_OK/GD32VW55X_Wifi_BLE_SDK/GD32VW55x_RELEASE_V1.0.2/MSDK/plf/GD32VW55x_standard_peripheral/Source\gd32vw55x_efuse.c **** ErrStatus efuse_user_data_write(uint32_t size, uint8_t buf[])
 296:C:/Users/stapi/OneDrive/Desktop/GD32VW553/V1_MQTT_OK/GD32VW55X_Wifi_BLE_SDK/GD32VW55x_RELEASE_V1.0.2/MSDK/plf/GD32VW55x_standard_peripheral/Source\gd32vw55x_efuse.c **** {
 297:C:/Users/stapi/OneDrive/Desktop/GD32VW553/V1_MQTT_OK/GD32VW55X_Wifi_BLE_SDK/GD32VW55x_RELEASE_V1.0.2/MSDK/plf/GD32VW55x_standard_peripheral/Source\gd32vw55x_efuse.c ****     if(size != 32U) {
 298:C:/Users/stapi/OneDrive/Desktop/GD32VW553/V1_MQTT_OK/GD32VW55X_Wifi_BLE_SDK/GD32VW55x_RELEASE_V1.0.2/MSDK/plf/GD32VW55x_standard_peripheral/Source\gd32vw55x_efuse.c ****         return ERROR;
 299:C:/Users/stapi/OneDrive/Desktop/GD32VW553/V1_MQTT_OK/GD32VW55X_Wifi_BLE_SDK/GD32VW55x_RELEASE_V1.0.2/MSDK/plf/GD32VW55x_standard_peripheral/Source\gd32vw55x_efuse.c ****     }
 300:C:/Users/stapi/OneDrive/Desktop/GD32VW553/V1_MQTT_OK/GD32VW55X_Wifi_BLE_SDK/GD32VW55x_RELEASE_V1.0.2/MSDK/plf/GD32VW55x_standard_peripheral/Source\gd32vw55x_efuse.c ****     return efuse_write(USER_DATA_ADDR, size, (uint32_t *)buf);
 301:C:/Users/stapi/OneDrive/Desktop/GD32VW553/V1_MQTT_OK/GD32VW55X_Wifi_BLE_SDK/GD32VW55x_RELEASE_V1.0.2/MSDK/plf/GD32VW55x_standard_peripheral/Source\gd32vw55x_efuse.c **** }
 302:C:/Users/stapi/OneDrive/Desktop/GD32VW553/V1_MQTT_OK/GD32VW55X_Wifi_BLE_SDK/GD32VW55x_RELEASE_V1.0.2/MSDK/plf/GD32VW55x_standard_peripheral/Source\gd32vw55x_efuse.c **** 
 303:C:/Users/stapi/OneDrive/Desktop/GD32VW553/V1_MQTT_OK/GD32VW55X_Wifi_BLE_SDK/GD32VW55x_RELEASE_V1.0.2/MSDK/plf/GD32VW55x_standard_peripheral/Source\gd32vw55x_efuse.c **** /*!
 304:C:/Users/stapi/OneDrive/Desktop/GD32VW553/V1_MQTT_OK/GD32VW55X_Wifi_BLE_SDK/GD32VW55x_RELEASE_V1.0.2/MSDK/plf/GD32VW55x_standard_peripheral/Source\gd32vw55x_efuse.c ****     \brief      read MCU reserved value
 305:C:/Users/stapi/OneDrive/Desktop/GD32VW553/V1_MQTT_OK/GD32VW55X_Wifi_BLE_SDK/GD32VW55x_RELEASE_V1.0.2/MSDK/plf/GD32VW55x_standard_peripheral/Source\gd32vw55x_efuse.c ****     \param[in]  none
 306:C:/Users/stapi/OneDrive/Desktop/GD32VW553/V1_MQTT_OK/GD32VW55X_Wifi_BLE_SDK/GD32VW55x_RELEASE_V1.0.2/MSDK/plf/GD32VW55x_standard_peripheral/Source\gd32vw55x_efuse.c ****     \param[out] buf: MCU reserved value after system reset
 307:C:/Users/stapi/OneDrive/Desktop/GD32VW553/V1_MQTT_OK/GD32VW55X_Wifi_BLE_SDK/GD32VW55x_RELEASE_V1.0.2/MSDK/plf/GD32VW55x_standard_peripheral/Source\gd32vw55x_efuse.c ****     \retval     none
 308:C:/Users/stapi/OneDrive/Desktop/GD32VW553/V1_MQTT_OK/GD32VW55X_Wifi_BLE_SDK/GD32VW55x_RELEASE_V1.0.2/MSDK/plf/GD32VW55x_standard_peripheral/Source\gd32vw55x_efuse.c **** */
 309:C:/Users/stapi/OneDrive/Desktop/GD32VW553/V1_MQTT_OK/GD32VW55X_Wifi_BLE_SDK/GD32VW55x_RELEASE_V1.0.2/MSDK/plf/GD32VW55x_standard_peripheral/Source\gd32vw55x_efuse.c **** void efuse_res_read(uint32_t buf[])
 310:C:/Users/stapi/OneDrive/Desktop/GD32VW553/V1_MQTT_OK/GD32VW55X_Wifi_BLE_SDK/GD32VW55x_RELEASE_V1.0.2/MSDK/plf/GD32VW55x_standard_peripheral/Source\gd32vw55x_efuse.c **** {
  16              		.loc 1 310 1
  17              		.cfi_startproc
  18              	.LVL0:
 311:C:/Users/stapi/OneDrive/Desktop/GD32VW553/V1_MQTT_OK/GD32VW55X_Wifi_BLE_SDK/GD32VW55x_RELEASE_V1.0.2/MSDK/plf/GD32VW55x_standard_peripheral/Source\gd32vw55x_efuse.c ****     uint8_t i = 0U;
  19              		.loc 1 311 5
 312:C:/Users/stapi/OneDrive/Desktop/GD32VW553/V1_MQTT_OK/GD32VW55X_Wifi_BLE_SDK/GD32VW55x_RELEASE_V1.0.2/MSDK/plf/GD32VW55x_standard_peripheral/Source\gd32vw55x_efuse.c ****     for(i = 0U; i < 3U; i++) {
  20              		.loc 1 312 5
  21              		.loc 1 312 17
 313:C:/Users/stapi/OneDrive/Desktop/GD32VW553/V1_MQTT_OK/GD32VW55X_Wifi_BLE_SDK/GD32VW55x_RELEASE_V1.0.2/MSDK/plf/GD32VW55x_standard_peripheral/Source\gd32vw55x_efuse.c ****         buf[i] = REG32(EFUSE + 0x18U + 0x04U * i);
  22              		.loc 1 313 9
  23              		.loc 1 313 18 is_stmt 0
  24 0000 B7370240 		li	a5,1073885184
  25 0004 03A78781 		lw	a4,-2024(a5)
  26              		.loc 1 313 16
  27 0008 18C1     		sw	a4,0(a0)
 312:C:/Users/stapi/OneDrive/Desktop/GD32VW553/V1_MQTT_OK/GD32VW55X_Wifi_BLE_SDK/GD32VW55x_RELEASE_V1.0.2/MSDK/plf/GD32VW55x_standard_peripheral/Source\gd32vw55x_efuse.c ****     for(i = 0U; i < 3U; i++) {
  28              		.loc 1 312 25 is_stmt 1
  29              	.LVL1:
 312:C:/Users/stapi/OneDrive/Desktop/GD32VW553/V1_MQTT_OK/GD32VW55X_Wifi_BLE_SDK/GD32VW55x_RELEASE_V1.0.2/MSDK/plf/GD32VW55x_standard_peripheral/Source\gd32vw55x_efuse.c ****     for(i = 0U; i < 3U; i++) {
  30              		.loc 1 312 17
  31              		.loc 1 313 9
  32              		.loc 1 313 18 is_stmt 0
  33 000a 03A7C781 		lw	a4,-2020(a5)
  34              		.loc 1 313 16
  35 000e 58C1     		sw	a4,4(a0)
 312:C:/Users/stapi/OneDrive/Desktop/GD32VW553/V1_MQTT_OK/GD32VW55X_Wifi_BLE_SDK/GD32VW55x_RELEASE_V1.0.2/MSDK/plf/GD32VW55x_standard_peripheral/Source\gd32vw55x_efuse.c ****     for(i = 0U; i < 3U; i++) {
  36              		.loc 1 312 25 is_stmt 1
  37              	.LVL2:
 312:C:/Users/stapi/OneDrive/Desktop/GD32VW553/V1_MQTT_OK/GD32VW55X_Wifi_BLE_SDK/GD32VW55x_RELEASE_V1.0.2/MSDK/plf/GD32VW55x_standard_peripheral/Source\gd32vw55x_efuse.c ****     for(i = 0U; i < 3U; i++) {
  38              		.loc 1 312 17
  39              		.loc 1 313 9
  40              		.loc 1 313 18 is_stmt 0
  41 0010 83A70782 		lw	a5,-2016(a5)
  42              		.loc 1 313 16
  43 0014 1CC5     		sw	a5,8(a0)
 312:C:/Users/stapi/OneDrive/Desktop/GD32VW553/V1_MQTT_OK/GD32VW55X_Wifi_BLE_SDK/GD32VW55x_RELEASE_V1.0.2/MSDK/plf/GD32VW55x_standard_peripheral/Source\gd32vw55x_efuse.c ****     for(i = 0U; i < 3U; i++) {
  44              		.loc 1 312 25 is_stmt 1
  45              	.LVL3:
 312:C:/Users/stapi/OneDrive/Desktop/GD32VW553/V1_MQTT_OK/GD32VW55X_Wifi_BLE_SDK/GD32VW55x_RELEASE_V1.0.2/MSDK/plf/GD32VW55x_standard_peripheral/Source\gd32vw55x_efuse.c ****     for(i = 0U; i < 3U; i++) {
  46              		.loc 1 312 17
 314:C:/Users/stapi/OneDrive/Desktop/GD32VW553/V1_MQTT_OK/GD32VW55X_Wifi_BLE_SDK/GD32VW55x_RELEASE_V1.0.2/MSDK/plf/GD32VW55x_standard_peripheral/Source\gd32vw55x_efuse.c ****     }
 315:C:/Users/stapi/OneDrive/Desktop/GD32VW553/V1_MQTT_OK/GD32VW55X_Wifi_BLE_SDK/GD32VW55x_RELEASE_V1.0.2/MSDK/plf/GD32VW55x_standard_peripheral/Source\gd32vw55x_efuse.c **** }
  47              		.loc 1 315 1 is_stmt 0
  48 0016 8280     		ret
  49              		.cfi_endproc
  50              	.LFE375:
  52              		.section	.text.efuse_aes_key_read,"ax",@progbits
  53              		.align	1
  54              		.globl	efuse_aes_key_read
  56              	efuse_aes_key_read:
  57              	.LFB376:
 316:C:/Users/stapi/OneDrive/Desktop/GD32VW553/V1_MQTT_OK/GD32VW55X_Wifi_BLE_SDK/GD32VW55x_RELEASE_V1.0.2/MSDK/plf/GD32VW55x_standard_peripheral/Source\gd32vw55x_efuse.c **** 
 317:C:/Users/stapi/OneDrive/Desktop/GD32VW553/V1_MQTT_OK/GD32VW55X_Wifi_BLE_SDK/GD32VW55x_RELEASE_V1.0.2/MSDK/plf/GD32VW55x_standard_peripheral/Source\gd32vw55x_efuse.c **** /*!
 318:C:/Users/stapi/OneDrive/Desktop/GD32VW553/V1_MQTT_OK/GD32VW55X_Wifi_BLE_SDK/GD32VW55x_RELEASE_V1.0.2/MSDK/plf/GD32VW55x_standard_peripheral/Source\gd32vw55x_efuse.c ****     \brief      read AES key
 319:C:/Users/stapi/OneDrive/Desktop/GD32VW553/V1_MQTT_OK/GD32VW55X_Wifi_BLE_SDK/GD32VW55x_RELEASE_V1.0.2/MSDK/plf/GD32VW55x_standard_peripheral/Source\gd32vw55x_efuse.c ****     \param[in]  none
 320:C:/Users/stapi/OneDrive/Desktop/GD32VW553/V1_MQTT_OK/GD32VW55X_Wifi_BLE_SDK/GD32VW55x_RELEASE_V1.0.2/MSDK/plf/GD32VW55x_standard_peripheral/Source\gd32vw55x_efuse.c ****     \param[out] buf: AES_KEY data after system reset
 321:C:/Users/stapi/OneDrive/Desktop/GD32VW553/V1_MQTT_OK/GD32VW55X_Wifi_BLE_SDK/GD32VW55x_RELEASE_V1.0.2/MSDK/plf/GD32VW55x_standard_peripheral/Source\gd32vw55x_efuse.c ****     \retval     none
 322:C:/Users/stapi/OneDrive/Desktop/GD32VW553/V1_MQTT_OK/GD32VW55X_Wifi_BLE_SDK/GD32VW55x_RELEASE_V1.0.2/MSDK/plf/GD32VW55x_standard_peripheral/Source\gd32vw55x_efuse.c **** */
 323:C:/Users/stapi/OneDrive/Desktop/GD32VW553/V1_MQTT_OK/GD32VW55X_Wifi_BLE_SDK/GD32VW55x_RELEASE_V1.0.2/MSDK/plf/GD32VW55x_standard_peripheral/Source\gd32vw55x_efuse.c **** void efuse_aes_key_read(uint32_t buf[])
 324:C:/Users/stapi/OneDrive/Desktop/GD32VW553/V1_MQTT_OK/GD32VW55X_Wifi_BLE_SDK/GD32VW55x_RELEASE_V1.0.2/MSDK/plf/GD32VW55x_standard_peripheral/Source\gd32vw55x_efuse.c **** {
  58              		.loc 1 324 1 is_stmt 1
  59              		.cfi_startproc
  60              	.LVL4:
 325:C:/Users/stapi/OneDrive/Desktop/GD32VW553/V1_MQTT_OK/GD32VW55X_Wifi_BLE_SDK/GD32VW55x_RELEASE_V1.0.2/MSDK/plf/GD32VW55x_standard_peripheral/Source\gd32vw55x_efuse.c ****     uint8_t i = 0U;
  61              		.loc 1 325 5
 326:C:/Users/stapi/OneDrive/Desktop/GD32VW553/V1_MQTT_OK/GD32VW55X_Wifi_BLE_SDK/GD32VW55x_RELEASE_V1.0.2/MSDK/plf/GD32VW55x_standard_peripheral/Source\gd32vw55x_efuse.c ****     for(i = 0U; i < 4U; i++) {
  62              		.loc 1 326 5
  63              		.loc 1 326 17
 327:C:/Users/stapi/OneDrive/Desktop/GD32VW553/V1_MQTT_OK/GD32VW55X_Wifi_BLE_SDK/GD32VW55x_RELEASE_V1.0.2/MSDK/plf/GD32VW55x_standard_peripheral/Source\gd32vw55x_efuse.c ****         buf[i] = REG32(EFUSE + 0x24U + 0x04U * i);
  64              		.loc 1 327 9
  65              		.loc 1 327 18 is_stmt 0
  66 0000 B7370240 		li	a5,1073885184
  67 0004 93870780 		addi	a5,a5,-2048
  68 0008 D853     		lw	a4,36(a5)
  69              		.loc 1 327 16
  70 000a 18C1     		sw	a4,0(a0)
 326:C:/Users/stapi/OneDrive/Desktop/GD32VW553/V1_MQTT_OK/GD32VW55X_Wifi_BLE_SDK/GD32VW55x_RELEASE_V1.0.2/MSDK/plf/GD32VW55x_standard_peripheral/Source\gd32vw55x_efuse.c ****     for(i = 0U; i < 4U; i++) {
  71              		.loc 1 326 25 is_stmt 1
  72              	.LVL5:
 326:C:/Users/stapi/OneDrive/Desktop/GD32VW553/V1_MQTT_OK/GD32VW55X_Wifi_BLE_SDK/GD32VW55x_RELEASE_V1.0.2/MSDK/plf/GD32VW55x_standard_peripheral/Source\gd32vw55x_efuse.c ****     for(i = 0U; i < 4U; i++) {
  73              		.loc 1 326 17
  74              		.loc 1 327 9
  75              		.loc 1 327 18 is_stmt 0
  76 000c 9857     		lw	a4,40(a5)
  77              		.loc 1 327 16
  78 000e 58C1     		sw	a4,4(a0)
 326:C:/Users/stapi/OneDrive/Desktop/GD32VW553/V1_MQTT_OK/GD32VW55X_Wifi_BLE_SDK/GD32VW55x_RELEASE_V1.0.2/MSDK/plf/GD32VW55x_standard_peripheral/Source\gd32vw55x_efuse.c ****     for(i = 0U; i < 4U; i++) {
  79              		.loc 1 326 25 is_stmt 1
  80              	.LVL6:
 326:C:/Users/stapi/OneDrive/Desktop/GD32VW553/V1_MQTT_OK/GD32VW55X_Wifi_BLE_SDK/GD32VW55x_RELEASE_V1.0.2/MSDK/plf/GD32VW55x_standard_peripheral/Source\gd32vw55x_efuse.c ****     for(i = 0U; i < 4U; i++) {
  81              		.loc 1 326 17
  82              		.loc 1 327 9
  83              		.loc 1 327 18 is_stmt 0
  84 0010 D857     		lw	a4,44(a5)
  85              		.loc 1 327 16
  86 0012 18C5     		sw	a4,8(a0)
 326:C:/Users/stapi/OneDrive/Desktop/GD32VW553/V1_MQTT_OK/GD32VW55X_Wifi_BLE_SDK/GD32VW55x_RELEASE_V1.0.2/MSDK/plf/GD32VW55x_standard_peripheral/Source\gd32vw55x_efuse.c ****     for(i = 0U; i < 4U; i++) {
  87              		.loc 1 326 25 is_stmt 1
  88              	.LVL7:
 326:C:/Users/stapi/OneDrive/Desktop/GD32VW553/V1_MQTT_OK/GD32VW55X_Wifi_BLE_SDK/GD32VW55x_RELEASE_V1.0.2/MSDK/plf/GD32VW55x_standard_peripheral/Source\gd32vw55x_efuse.c ****     for(i = 0U; i < 4U; i++) {
  89              		.loc 1 326 17
  90              		.loc 1 327 9
  91              		.loc 1 327 18 is_stmt 0
  92 0014 9C5B     		lw	a5,48(a5)
  93              		.loc 1 327 16
  94 0016 5CC5     		sw	a5,12(a0)
 326:C:/Users/stapi/OneDrive/Desktop/GD32VW553/V1_MQTT_OK/GD32VW55X_Wifi_BLE_SDK/GD32VW55x_RELEASE_V1.0.2/MSDK/plf/GD32VW55x_standard_peripheral/Source\gd32vw55x_efuse.c ****     for(i = 0U; i < 4U; i++) {
  95              		.loc 1 326 25 is_stmt 1
  96              	.LVL8:
 326:C:/Users/stapi/OneDrive/Desktop/GD32VW553/V1_MQTT_OK/GD32VW55X_Wifi_BLE_SDK/GD32VW55x_RELEASE_V1.0.2/MSDK/plf/GD32VW55x_standard_peripheral/Source\gd32vw55x_efuse.c ****     for(i = 0U; i < 4U; i++) {
  97              		.loc 1 326 17
 328:C:/Users/stapi/OneDrive/Desktop/GD32VW553/V1_MQTT_OK/GD32VW55X_Wifi_BLE_SDK/GD32VW55x_RELEASE_V1.0.2/MSDK/plf/GD32VW55x_standard_peripheral/Source\gd32vw55x_efuse.c ****     }
 329:C:/Users/stapi/OneDrive/Desktop/GD32VW553/V1_MQTT_OK/GD32VW55X_Wifi_BLE_SDK/GD32VW55x_RELEASE_V1.0.2/MSDK/plf/GD32VW55x_standard_peripheral/Source\gd32vw55x_efuse.c **** }
  98              		.loc 1 329 1 is_stmt 0
  99 0018 8280     		ret
 100              		.cfi_endproc
 101              	.LFE376:
 103              		.section	.text.efuse_rotpk_key_read,"ax",@progbits
 104              		.align	1
 105              		.globl	efuse_rotpk_key_read
 107              	efuse_rotpk_key_read:
 108              	.LFB377:
 330:C:/Users/stapi/OneDrive/Desktop/GD32VW553/V1_MQTT_OK/GD32VW55X_Wifi_BLE_SDK/GD32VW55x_RELEASE_V1.0.2/MSDK/plf/GD32VW55x_standard_peripheral/Source\gd32vw55x_efuse.c **** 
 331:C:/Users/stapi/OneDrive/Desktop/GD32VW553/V1_MQTT_OK/GD32VW55X_Wifi_BLE_SDK/GD32VW55x_RELEASE_V1.0.2/MSDK/plf/GD32VW55x_standard_peripheral/Source\gd32vw55x_efuse.c **** /*!
 332:C:/Users/stapi/OneDrive/Desktop/GD32VW553/V1_MQTT_OK/GD32VW55X_Wifi_BLE_SDK/GD32VW55x_RELEASE_V1.0.2/MSDK/plf/GD32VW55x_standard_peripheral/Source\gd32vw55x_efuse.c ****     \brief      read ROTPK key
 333:C:/Users/stapi/OneDrive/Desktop/GD32VW553/V1_MQTT_OK/GD32VW55X_Wifi_BLE_SDK/GD32VW55x_RELEASE_V1.0.2/MSDK/plf/GD32VW55x_standard_peripheral/Source\gd32vw55x_efuse.c ****     \param[in]  none
 334:C:/Users/stapi/OneDrive/Desktop/GD32VW553/V1_MQTT_OK/GD32VW55X_Wifi_BLE_SDK/GD32VW55x_RELEASE_V1.0.2/MSDK/plf/GD32VW55x_standard_peripheral/Source\gd32vw55x_efuse.c ****     \param[out] buf: rotpk_key data after system reset
 335:C:/Users/stapi/OneDrive/Desktop/GD32VW553/V1_MQTT_OK/GD32VW55X_Wifi_BLE_SDK/GD32VW55x_RELEASE_V1.0.2/MSDK/plf/GD32VW55x_standard_peripheral/Source\gd32vw55x_efuse.c ****     \retval     none
 336:C:/Users/stapi/OneDrive/Desktop/GD32VW553/V1_MQTT_OK/GD32VW55X_Wifi_BLE_SDK/GD32VW55x_RELEASE_V1.0.2/MSDK/plf/GD32VW55x_standard_peripheral/Source\gd32vw55x_efuse.c **** */
 337:C:/Users/stapi/OneDrive/Desktop/GD32VW553/V1_MQTT_OK/GD32VW55X_Wifi_BLE_SDK/GD32VW55x_RELEASE_V1.0.2/MSDK/plf/GD32VW55x_standard_peripheral/Source\gd32vw55x_efuse.c **** void efuse_rotpk_key_read(uint32_t buf[])
 338:C:/Users/stapi/OneDrive/Desktop/GD32VW553/V1_MQTT_OK/GD32VW55X_Wifi_BLE_SDK/GD32VW55x_RELEASE_V1.0.2/MSDK/plf/GD32VW55x_standard_peripheral/Source\gd32vw55x_efuse.c **** {
 109              		.loc 1 338 1 is_stmt 1
 110              		.cfi_startproc
 111              	.LVL9:
 339:C:/Users/stapi/OneDrive/Desktop/GD32VW553/V1_MQTT_OK/GD32VW55X_Wifi_BLE_SDK/GD32VW55x_RELEASE_V1.0.2/MSDK/plf/GD32VW55x_standard_peripheral/Source\gd32vw55x_efuse.c ****     uint8_t i = 0U;
 112              		.loc 1 339 5
 340:C:/Users/stapi/OneDrive/Desktop/GD32VW553/V1_MQTT_OK/GD32VW55X_Wifi_BLE_SDK/GD32VW55x_RELEASE_V1.0.2/MSDK/plf/GD32VW55x_standard_peripheral/Source\gd32vw55x_efuse.c ****     for(i = 0U; i < 8U; i++) {
 113              		.loc 1 340 5
 114              		.loc 1 340 17
 338:C:/Users/stapi/OneDrive/Desktop/GD32VW553/V1_MQTT_OK/GD32VW55X_Wifi_BLE_SDK/GD32VW55x_RELEASE_V1.0.2/MSDK/plf/GD32VW55x_standard_peripheral/Source\gd32vw55x_efuse.c ****     uint8_t i = 0U;
 115              		.loc 1 338 1 is_stmt 0
 116 0000 37370240 		li	a4,1073885184
 341:C:/Users/stapi/OneDrive/Desktop/GD32VW553/V1_MQTT_OK/GD32VW55X_Wifi_BLE_SDK/GD32VW55x_RELEASE_V1.0.2/MSDK/plf/GD32VW55x_standard_peripheral/Source\gd32vw55x_efuse.c ****         buf[i] = REG32(EFUSE + 0x34U + 0x04U * i);
 117              		.loc 1 341 16
 118 0004 37D6FDBF 		li	a2,-1073885184
 338:C:/Users/stapi/OneDrive/Desktop/GD32VW553/V1_MQTT_OK/GD32VW55X_Wifi_BLE_SDK/GD32VW55x_RELEASE_V1.0.2/MSDK/plf/GD32VW55x_standard_peripheral/Source\gd32vw55x_efuse.c ****     uint8_t i = 0U;
 119              		.loc 1 338 1
 120 0008 93074783 		addi	a5,a4,-1996
 121              		.loc 1 341 16
 122 000c 1306C67C 		addi	a2,a2,1996
 340:C:/Users/stapi/OneDrive/Desktop/GD32VW553/V1_MQTT_OK/GD32VW55X_Wifi_BLE_SDK/GD32VW55x_RELEASE_V1.0.2/MSDK/plf/GD32VW55x_standard_peripheral/Source\gd32vw55x_efuse.c ****     for(i = 0U; i < 8U; i++) {
 123              		.loc 1 340 5
 124 0010 13074785 		addi	a4,a4,-1964
 125              	.LVL10:
 126              	.L4:
 127              		.loc 1 341 9 is_stmt 1 discriminator 3
 128              		.loc 1 341 18 is_stmt 0 discriminator 3
 129 0014 8C43     		lw	a1,0(a5)
 130              		.loc 1 341 16 discriminator 3
 131 0016 B386C700 		add	a3,a5,a2
 132 001a AA96     		add	a3,a0,a3
 133 001c 8CC2     		sw	a1,0(a3)
 340:C:/Users/stapi/OneDrive/Desktop/GD32VW553/V1_MQTT_OK/GD32VW55X_Wifi_BLE_SDK/GD32VW55x_RELEASE_V1.0.2/MSDK/plf/GD32VW55x_standard_peripheral/Source\gd32vw55x_efuse.c ****     for(i = 0U; i < 8U; i++) {
 134              		.loc 1 340 25 is_stmt 1 discriminator 3
 135              	.LVL11:
 340:C:/Users/stapi/OneDrive/Desktop/GD32VW553/V1_MQTT_OK/GD32VW55X_Wifi_BLE_SDK/GD32VW55x_RELEASE_V1.0.2/MSDK/plf/GD32VW55x_standard_peripheral/Source\gd32vw55x_efuse.c ****     for(i = 0U; i < 8U; i++) {
 136              		.loc 1 340 17 discriminator 3
 340:C:/Users/stapi/OneDrive/Desktop/GD32VW553/V1_MQTT_OK/GD32VW55X_Wifi_BLE_SDK/GD32VW55x_RELEASE_V1.0.2/MSDK/plf/GD32VW55x_standard_peripheral/Source\gd32vw55x_efuse.c ****     for(i = 0U; i < 8U; i++) {
 137              		.loc 1 340 5 is_stmt 0 discriminator 3
 138 001e 9107     		addi	a5,a5,4
 139              	.LVL12:
 140 0020 E39AE7FE 		bne	a5,a4,.L4
 342:C:/Users/stapi/OneDrive/Desktop/GD32VW553/V1_MQTT_OK/GD32VW55X_Wifi_BLE_SDK/GD32VW55x_RELEASE_V1.0.2/MSDK/plf/GD32VW55x_standard_peripheral/Source\gd32vw55x_efuse.c ****     }
 343:C:/Users/stapi/OneDrive/Desktop/GD32VW553/V1_MQTT_OK/GD32VW55X_Wifi_BLE_SDK/GD32VW55x_RELEASE_V1.0.2/MSDK/plf/GD32VW55x_standard_peripheral/Source\gd32vw55x_efuse.c **** }
 141              		.loc 1 343 1
 142 0024 8280     		ret
 143              		.cfi_endproc
 144              	.LFE377:
 146              		.section	.text.efuse_puid_read,"ax",@progbits
 147              		.align	1
 148              		.globl	efuse_puid_read
 150              	efuse_puid_read:
 151              	.LFB378:
 344:C:/Users/stapi/OneDrive/Desktop/GD32VW553/V1_MQTT_OK/GD32VW55X_Wifi_BLE_SDK/GD32VW55x_RELEASE_V1.0.2/MSDK/plf/GD32VW55x_standard_peripheral/Source\gd32vw55x_efuse.c **** 
 345:C:/Users/stapi/OneDrive/Desktop/GD32VW553/V1_MQTT_OK/GD32VW55X_Wifi_BLE_SDK/GD32VW55x_RELEASE_V1.0.2/MSDK/plf/GD32VW55x_standard_peripheral/Source\gd32vw55x_efuse.c **** /*!
 346:C:/Users/stapi/OneDrive/Desktop/GD32VW553/V1_MQTT_OK/GD32VW55X_Wifi_BLE_SDK/GD32VW55x_RELEASE_V1.0.2/MSDK/plf/GD32VW55x_standard_peripheral/Source\gd32vw55x_efuse.c ****     \brief      read puid
 347:C:/Users/stapi/OneDrive/Desktop/GD32VW553/V1_MQTT_OK/GD32VW55X_Wifi_BLE_SDK/GD32VW55x_RELEASE_V1.0.2/MSDK/plf/GD32VW55x_standard_peripheral/Source\gd32vw55x_efuse.c ****     \param[in]  none
 348:C:/Users/stapi/OneDrive/Desktop/GD32VW553/V1_MQTT_OK/GD32VW55X_Wifi_BLE_SDK/GD32VW55x_RELEASE_V1.0.2/MSDK/plf/GD32VW55x_standard_peripheral/Source\gd32vw55x_efuse.c ****     \param[out] buf: puid data after system reset
 349:C:/Users/stapi/OneDrive/Desktop/GD32VW553/V1_MQTT_OK/GD32VW55X_Wifi_BLE_SDK/GD32VW55x_RELEASE_V1.0.2/MSDK/plf/GD32VW55x_standard_peripheral/Source\gd32vw55x_efuse.c ****     \retval     none
 350:C:/Users/stapi/OneDrive/Desktop/GD32VW553/V1_MQTT_OK/GD32VW55X_Wifi_BLE_SDK/GD32VW55x_RELEASE_V1.0.2/MSDK/plf/GD32VW55x_standard_peripheral/Source\gd32vw55x_efuse.c **** */
 351:C:/Users/stapi/OneDrive/Desktop/GD32VW553/V1_MQTT_OK/GD32VW55X_Wifi_BLE_SDK/GD32VW55x_RELEASE_V1.0.2/MSDK/plf/GD32VW55x_standard_peripheral/Source\gd32vw55x_efuse.c **** void efuse_puid_read(uint32_t buf[])
 352:C:/Users/stapi/OneDrive/Desktop/GD32VW553/V1_MQTT_OK/GD32VW55X_Wifi_BLE_SDK/GD32VW55x_RELEASE_V1.0.2/MSDK/plf/GD32VW55x_standard_peripheral/Source\gd32vw55x_efuse.c **** {
 152              		.loc 1 352 1 is_stmt 1
 153              		.cfi_startproc
 154              	.LVL13:
 353:C:/Users/stapi/OneDrive/Desktop/GD32VW553/V1_MQTT_OK/GD32VW55X_Wifi_BLE_SDK/GD32VW55x_RELEASE_V1.0.2/MSDK/plf/GD32VW55x_standard_peripheral/Source\gd32vw55x_efuse.c ****     uint8_t i = 0U;
 155              		.loc 1 353 5
 354:C:/Users/stapi/OneDrive/Desktop/GD32VW553/V1_MQTT_OK/GD32VW55X_Wifi_BLE_SDK/GD32VW55x_RELEASE_V1.0.2/MSDK/plf/GD32VW55x_standard_peripheral/Source\gd32vw55x_efuse.c ****     for(i = 0U; i < 4U; i++) {
 156              		.loc 1 354 5
 157              		.loc 1 354 17
 355:C:/Users/stapi/OneDrive/Desktop/GD32VW553/V1_MQTT_OK/GD32VW55X_Wifi_BLE_SDK/GD32VW55x_RELEASE_V1.0.2/MSDK/plf/GD32VW55x_standard_peripheral/Source\gd32vw55x_efuse.c ****         buf[i] = REG32(EFUSE + 0x54U  + 0x04U * i);
 158              		.loc 1 355 9
 159              		.loc 1 355 18 is_stmt 0
 160 0000 B7370240 		li	a5,1073885184
 161 0004 93870780 		addi	a5,a5,-2048
 162 0008 F84B     		lw	a4,84(a5)
 163              		.loc 1 355 16
 164 000a 18C1     		sw	a4,0(a0)
 354:C:/Users/stapi/OneDrive/Desktop/GD32VW553/V1_MQTT_OK/GD32VW55X_Wifi_BLE_SDK/GD32VW55x_RELEASE_V1.0.2/MSDK/plf/GD32VW55x_standard_peripheral/Source\gd32vw55x_efuse.c ****     for(i = 0U; i < 4U; i++) {
 165              		.loc 1 354 25 is_stmt 1
 166              	.LVL14:
 354:C:/Users/stapi/OneDrive/Desktop/GD32VW553/V1_MQTT_OK/GD32VW55X_Wifi_BLE_SDK/GD32VW55x_RELEASE_V1.0.2/MSDK/plf/GD32VW55x_standard_peripheral/Source\gd32vw55x_efuse.c ****     for(i = 0U; i < 4U; i++) {
 167              		.loc 1 354 17
 168              		.loc 1 355 9
 169              		.loc 1 355 18 is_stmt 0
 170 000c B84F     		lw	a4,88(a5)
 171              		.loc 1 355 16
 172 000e 58C1     		sw	a4,4(a0)
 354:C:/Users/stapi/OneDrive/Desktop/GD32VW553/V1_MQTT_OK/GD32VW55X_Wifi_BLE_SDK/GD32VW55x_RELEASE_V1.0.2/MSDK/plf/GD32VW55x_standard_peripheral/Source\gd32vw55x_efuse.c ****     for(i = 0U; i < 4U; i++) {
 173              		.loc 1 354 25 is_stmt 1
 174              	.LVL15:
 354:C:/Users/stapi/OneDrive/Desktop/GD32VW553/V1_MQTT_OK/GD32VW55X_Wifi_BLE_SDK/GD32VW55x_RELEASE_V1.0.2/MSDK/plf/GD32VW55x_standard_peripheral/Source\gd32vw55x_efuse.c ****     for(i = 0U; i < 4U; i++) {
 175              		.loc 1 354 17
 176              		.loc 1 355 9
 177              		.loc 1 355 18 is_stmt 0
 178 0010 F84F     		lw	a4,92(a5)
 179              		.loc 1 355 16
 180 0012 18C5     		sw	a4,8(a0)
 354:C:/Users/stapi/OneDrive/Desktop/GD32VW553/V1_MQTT_OK/GD32VW55X_Wifi_BLE_SDK/GD32VW55x_RELEASE_V1.0.2/MSDK/plf/GD32VW55x_standard_peripheral/Source\gd32vw55x_efuse.c ****     for(i = 0U; i < 4U; i++) {
 181              		.loc 1 354 25 is_stmt 1
 182              	.LVL16:
 354:C:/Users/stapi/OneDrive/Desktop/GD32VW553/V1_MQTT_OK/GD32VW55X_Wifi_BLE_SDK/GD32VW55x_RELEASE_V1.0.2/MSDK/plf/GD32VW55x_standard_peripheral/Source\gd32vw55x_efuse.c ****     for(i = 0U; i < 4U; i++) {
 183              		.loc 1 354 17
 184              		.loc 1 355 9
 185              		.loc 1 355 18 is_stmt 0
 186 0014 BC53     		lw	a5,96(a5)
 187              		.loc 1 355 16
 188 0016 5CC5     		sw	a5,12(a0)
 354:C:/Users/stapi/OneDrive/Desktop/GD32VW553/V1_MQTT_OK/GD32VW55X_Wifi_BLE_SDK/GD32VW55x_RELEASE_V1.0.2/MSDK/plf/GD32VW55x_standard_peripheral/Source\gd32vw55x_efuse.c ****     for(i = 0U; i < 4U; i++) {
 189              		.loc 1 354 25 is_stmt 1
 190              	.LVL17:
 354:C:/Users/stapi/OneDrive/Desktop/GD32VW553/V1_MQTT_OK/GD32VW55X_Wifi_BLE_SDK/GD32VW55x_RELEASE_V1.0.2/MSDK/plf/GD32VW55x_standard_peripheral/Source\gd32vw55x_efuse.c ****     for(i = 0U; i < 4U; i++) {
 191              		.loc 1 354 17
 356:C:/Users/stapi/OneDrive/Desktop/GD32VW553/V1_MQTT_OK/GD32VW55X_Wifi_BLE_SDK/GD32VW55x_RELEASE_V1.0.2/MSDK/plf/GD32VW55x_standard_peripheral/Source\gd32vw55x_efuse.c ****     }
 357:C:/Users/stapi/OneDrive/Desktop/GD32VW553/V1_MQTT_OK/GD32VW55X_Wifi_BLE_SDK/GD32VW55x_RELEASE_V1.0.2/MSDK/plf/GD32VW55x_standard_peripheral/Source\gd32vw55x_efuse.c **** }
 192              		.loc 1 357 1 is_stmt 0
 193 0018 8280     		ret
 194              		.cfi_endproc
 195              	.LFE378:
 197              		.section	.text.efuse_huk_key_read,"ax",@progbits
 198              		.align	1
 199              		.globl	efuse_huk_key_read
 201              	efuse_huk_key_read:
 202              	.LFB379:
 358:C:/Users/stapi/OneDrive/Desktop/GD32VW553/V1_MQTT_OK/GD32VW55X_Wifi_BLE_SDK/GD32VW55x_RELEASE_V1.0.2/MSDK/plf/GD32VW55x_standard_peripheral/Source\gd32vw55x_efuse.c **** 
 359:C:/Users/stapi/OneDrive/Desktop/GD32VW553/V1_MQTT_OK/GD32VW55X_Wifi_BLE_SDK/GD32VW55x_RELEASE_V1.0.2/MSDK/plf/GD32VW55x_standard_peripheral/Source\gd32vw55x_efuse.c **** /*!
 360:C:/Users/stapi/OneDrive/Desktop/GD32VW553/V1_MQTT_OK/GD32VW55X_Wifi_BLE_SDK/GD32VW55x_RELEASE_V1.0.2/MSDK/plf/GD32VW55x_standard_peripheral/Source\gd32vw55x_efuse.c ****     \brief      read huk key
 361:C:/Users/stapi/OneDrive/Desktop/GD32VW553/V1_MQTT_OK/GD32VW55X_Wifi_BLE_SDK/GD32VW55x_RELEASE_V1.0.2/MSDK/plf/GD32VW55x_standard_peripheral/Source\gd32vw55x_efuse.c ****     \param[in]  none
 362:C:/Users/stapi/OneDrive/Desktop/GD32VW553/V1_MQTT_OK/GD32VW55X_Wifi_BLE_SDK/GD32VW55x_RELEASE_V1.0.2/MSDK/plf/GD32VW55x_standard_peripheral/Source\gd32vw55x_efuse.c ****     \param[out] buf: huk key data after system reset
 363:C:/Users/stapi/OneDrive/Desktop/GD32VW553/V1_MQTT_OK/GD32VW55X_Wifi_BLE_SDK/GD32VW55x_RELEASE_V1.0.2/MSDK/plf/GD32VW55x_standard_peripheral/Source\gd32vw55x_efuse.c ****     \retval     none
 364:C:/Users/stapi/OneDrive/Desktop/GD32VW553/V1_MQTT_OK/GD32VW55X_Wifi_BLE_SDK/GD32VW55x_RELEASE_V1.0.2/MSDK/plf/GD32VW55x_standard_peripheral/Source\gd32vw55x_efuse.c **** */
 365:C:/Users/stapi/OneDrive/Desktop/GD32VW553/V1_MQTT_OK/GD32VW55X_Wifi_BLE_SDK/GD32VW55x_RELEASE_V1.0.2/MSDK/plf/GD32VW55x_standard_peripheral/Source\gd32vw55x_efuse.c **** void efuse_huk_key_read(uint32_t buf[])
 366:C:/Users/stapi/OneDrive/Desktop/GD32VW553/V1_MQTT_OK/GD32VW55X_Wifi_BLE_SDK/GD32VW55x_RELEASE_V1.0.2/MSDK/plf/GD32VW55x_standard_peripheral/Source\gd32vw55x_efuse.c **** {
 203              		.loc 1 366 1 is_stmt 1
 204              		.cfi_startproc
 205              	.LVL18:
 367:C:/Users/stapi/OneDrive/Desktop/GD32VW553/V1_MQTT_OK/GD32VW55X_Wifi_BLE_SDK/GD32VW55x_RELEASE_V1.0.2/MSDK/plf/GD32VW55x_standard_peripheral/Source\gd32vw55x_efuse.c ****     uint8_t i = 0U;
 206              		.loc 1 367 5
 368:C:/Users/stapi/OneDrive/Desktop/GD32VW553/V1_MQTT_OK/GD32VW55X_Wifi_BLE_SDK/GD32VW55x_RELEASE_V1.0.2/MSDK/plf/GD32VW55x_standard_peripheral/Source\gd32vw55x_efuse.c ****     for(i = 0U; i < 4U; i++) {
 207              		.loc 1 368 5
 208              		.loc 1 368 17
 369:C:/Users/stapi/OneDrive/Desktop/GD32VW553/V1_MQTT_OK/GD32VW55X_Wifi_BLE_SDK/GD32VW55x_RELEASE_V1.0.2/MSDK/plf/GD32VW55x_standard_peripheral/Source\gd32vw55x_efuse.c ****         buf[i] = REG32(EFUSE + 0x64U + 0x04U * i);
 209              		.loc 1 369 9
 210              		.loc 1 369 18 is_stmt 0
 211 0000 B7370240 		li	a5,1073885184
 212 0004 93870780 		addi	a5,a5,-2048
 213 0008 F853     		lw	a4,100(a5)
 214              		.loc 1 369 16
 215 000a 18C1     		sw	a4,0(a0)
 368:C:/Users/stapi/OneDrive/Desktop/GD32VW553/V1_MQTT_OK/GD32VW55X_Wifi_BLE_SDK/GD32VW55x_RELEASE_V1.0.2/MSDK/plf/GD32VW55x_standard_peripheral/Source\gd32vw55x_efuse.c ****     for(i = 0U; i < 4U; i++) {
 216              		.loc 1 368 25 is_stmt 1
 217              	.LVL19:
 368:C:/Users/stapi/OneDrive/Desktop/GD32VW553/V1_MQTT_OK/GD32VW55X_Wifi_BLE_SDK/GD32VW55x_RELEASE_V1.0.2/MSDK/plf/GD32VW55x_standard_peripheral/Source\gd32vw55x_efuse.c ****     for(i = 0U; i < 4U; i++) {
 218              		.loc 1 368 17
 219              		.loc 1 369 9
 220              		.loc 1 369 18 is_stmt 0
 221 000c B857     		lw	a4,104(a5)
 222              		.loc 1 369 16
 223 000e 58C1     		sw	a4,4(a0)
 368:C:/Users/stapi/OneDrive/Desktop/GD32VW553/V1_MQTT_OK/GD32VW55X_Wifi_BLE_SDK/GD32VW55x_RELEASE_V1.0.2/MSDK/plf/GD32VW55x_standard_peripheral/Source\gd32vw55x_efuse.c ****     for(i = 0U; i < 4U; i++) {
 224              		.loc 1 368 25 is_stmt 1
 225              	.LVL20:
 368:C:/Users/stapi/OneDrive/Desktop/GD32VW553/V1_MQTT_OK/GD32VW55X_Wifi_BLE_SDK/GD32VW55x_RELEASE_V1.0.2/MSDK/plf/GD32VW55x_standard_peripheral/Source\gd32vw55x_efuse.c ****     for(i = 0U; i < 4U; i++) {
 226              		.loc 1 368 17
 227              		.loc 1 369 9
 228              		.loc 1 369 18 is_stmt 0
 229 0010 F857     		lw	a4,108(a5)
 230              		.loc 1 369 16
 231 0012 18C5     		sw	a4,8(a0)
 368:C:/Users/stapi/OneDrive/Desktop/GD32VW553/V1_MQTT_OK/GD32VW55X_Wifi_BLE_SDK/GD32VW55x_RELEASE_V1.0.2/MSDK/plf/GD32VW55x_standard_peripheral/Source\gd32vw55x_efuse.c ****     for(i = 0U; i < 4U; i++) {
 232              		.loc 1 368 25 is_stmt 1
 233              	.LVL21:
 368:C:/Users/stapi/OneDrive/Desktop/GD32VW553/V1_MQTT_OK/GD32VW55X_Wifi_BLE_SDK/GD32VW55x_RELEASE_V1.0.2/MSDK/plf/GD32VW55x_standard_peripheral/Source\gd32vw55x_efuse.c ****     for(i = 0U; i < 4U; i++) {
 234              		.loc 1 368 17
 235              		.loc 1 369 9
 236              		.loc 1 369 18 is_stmt 0
 237 0014 BC5B     		lw	a5,112(a5)
 238              		.loc 1 369 16
 239 0016 5CC5     		sw	a5,12(a0)
 368:C:/Users/stapi/OneDrive/Desktop/GD32VW553/V1_MQTT_OK/GD32VW55X_Wifi_BLE_SDK/GD32VW55x_RELEASE_V1.0.2/MSDK/plf/GD32VW55x_standard_peripheral/Source\gd32vw55x_efuse.c ****     for(i = 0U; i < 4U; i++) {
 240              		.loc 1 368 25 is_stmt 1
 241              	.LVL22:
 368:C:/Users/stapi/OneDrive/Desktop/GD32VW553/V1_MQTT_OK/GD32VW55X_Wifi_BLE_SDK/GD32VW55x_RELEASE_V1.0.2/MSDK/plf/GD32VW55x_standard_peripheral/Source\gd32vw55x_efuse.c ****     for(i = 0U; i < 4U; i++) {
 242              		.loc 1 368 17
 370:C:/Users/stapi/OneDrive/Desktop/GD32VW553/V1_MQTT_OK/GD32VW55X_Wifi_BLE_SDK/GD32VW55x_RELEASE_V1.0.2/MSDK/plf/GD32VW55x_standard_peripheral/Source\gd32vw55x_efuse.c ****     }
 371:C:/Users/stapi/OneDrive/Desktop/GD32VW553/V1_MQTT_OK/GD32VW55X_Wifi_BLE_SDK/GD32VW55x_RELEASE_V1.0.2/MSDK/plf/GD32VW55x_standard_peripheral/Source\gd32vw55x_efuse.c **** }
 243              		.loc 1 371 1 is_stmt 0
 244 0018 8280     		ret
 245              		.cfi_endproc
 246              	.LFE379:
 248              		.section	.text.efuse_user_data_read,"ax",@progbits
 249              		.align	1
 250              		.globl	efuse_user_data_read
 252              	efuse_user_data_read:
 253              	.LFB380:
 372:C:/Users/stapi/OneDrive/Desktop/GD32VW553/V1_MQTT_OK/GD32VW55X_Wifi_BLE_SDK/GD32VW55x_RELEASE_V1.0.2/MSDK/plf/GD32VW55x_standard_peripheral/Source\gd32vw55x_efuse.c **** 
 373:C:/Users/stapi/OneDrive/Desktop/GD32VW553/V1_MQTT_OK/GD32VW55X_Wifi_BLE_SDK/GD32VW55x_RELEASE_V1.0.2/MSDK/plf/GD32VW55x_standard_peripheral/Source\gd32vw55x_efuse.c **** /*!
 374:C:/Users/stapi/OneDrive/Desktop/GD32VW553/V1_MQTT_OK/GD32VW55X_Wifi_BLE_SDK/GD32VW55x_RELEASE_V1.0.2/MSDK/plf/GD32VW55x_standard_peripheral/Source\gd32vw55x_efuse.c ****     \brief      read user data
 375:C:/Users/stapi/OneDrive/Desktop/GD32VW553/V1_MQTT_OK/GD32VW55X_Wifi_BLE_SDK/GD32VW55x_RELEASE_V1.0.2/MSDK/plf/GD32VW55x_standard_peripheral/Source\gd32vw55x_efuse.c ****     \param[in]  none
 376:C:/Users/stapi/OneDrive/Desktop/GD32VW553/V1_MQTT_OK/GD32VW55X_Wifi_BLE_SDK/GD32VW55x_RELEASE_V1.0.2/MSDK/plf/GD32VW55x_standard_peripheral/Source\gd32vw55x_efuse.c ****     \param[out] buf: user data after system reset
 377:C:/Users/stapi/OneDrive/Desktop/GD32VW553/V1_MQTT_OK/GD32VW55X_Wifi_BLE_SDK/GD32VW55x_RELEASE_V1.0.2/MSDK/plf/GD32VW55x_standard_peripheral/Source\gd32vw55x_efuse.c ****     \retval     none
 378:C:/Users/stapi/OneDrive/Desktop/GD32VW553/V1_MQTT_OK/GD32VW55X_Wifi_BLE_SDK/GD32VW55x_RELEASE_V1.0.2/MSDK/plf/GD32VW55x_standard_peripheral/Source\gd32vw55x_efuse.c **** */
 379:C:/Users/stapi/OneDrive/Desktop/GD32VW553/V1_MQTT_OK/GD32VW55X_Wifi_BLE_SDK/GD32VW55x_RELEASE_V1.0.2/MSDK/plf/GD32VW55x_standard_peripheral/Source\gd32vw55x_efuse.c **** void efuse_user_data_read(uint32_t buf[])
 380:C:/Users/stapi/OneDrive/Desktop/GD32VW553/V1_MQTT_OK/GD32VW55X_Wifi_BLE_SDK/GD32VW55x_RELEASE_V1.0.2/MSDK/plf/GD32VW55x_standard_peripheral/Source\gd32vw55x_efuse.c **** {
 254              		.loc 1 380 1 is_stmt 1
 255              		.cfi_startproc
 256              	.LVL23:
 381:C:/Users/stapi/OneDrive/Desktop/GD32VW553/V1_MQTT_OK/GD32VW55X_Wifi_BLE_SDK/GD32VW55x_RELEASE_V1.0.2/MSDK/plf/GD32VW55x_standard_peripheral/Source\gd32vw55x_efuse.c ****     uint8_t i = 0U;
 257              		.loc 1 381 5
 382:C:/Users/stapi/OneDrive/Desktop/GD32VW553/V1_MQTT_OK/GD32VW55X_Wifi_BLE_SDK/GD32VW55x_RELEASE_V1.0.2/MSDK/plf/GD32VW55x_standard_peripheral/Source\gd32vw55x_efuse.c ****     for(i = 0U; i < 8U; i++) {
 258              		.loc 1 382 5
 259              		.loc 1 382 17
 380:C:/Users/stapi/OneDrive/Desktop/GD32VW553/V1_MQTT_OK/GD32VW55X_Wifi_BLE_SDK/GD32VW55x_RELEASE_V1.0.2/MSDK/plf/GD32VW55x_standard_peripheral/Source\gd32vw55x_efuse.c ****     uint8_t i = 0U;
 260              		.loc 1 380 1 is_stmt 0
 261 0000 37370240 		li	a4,1073885184
 383:C:/Users/stapi/OneDrive/Desktop/GD32VW553/V1_MQTT_OK/GD32VW55X_Wifi_BLE_SDK/GD32VW55x_RELEASE_V1.0.2/MSDK/plf/GD32VW55x_standard_peripheral/Source\gd32vw55x_efuse.c ****         buf[i] = REG32(EFUSE + 0x74U + 0x04U * i);
 262              		.loc 1 383 16
 263 0004 37D6FDBF 		li	a2,-1073885184
 380:C:/Users/stapi/OneDrive/Desktop/GD32VW553/V1_MQTT_OK/GD32VW55X_Wifi_BLE_SDK/GD32VW55x_RELEASE_V1.0.2/MSDK/plf/GD32VW55x_standard_peripheral/Source\gd32vw55x_efuse.c ****     uint8_t i = 0U;
 264              		.loc 1 380 1
 265 0008 93074787 		addi	a5,a4,-1932
 266              		.loc 1 383 16
 267 000c 1306C678 		addi	a2,a2,1932
 382:C:/Users/stapi/OneDrive/Desktop/GD32VW553/V1_MQTT_OK/GD32VW55X_Wifi_BLE_SDK/GD32VW55x_RELEASE_V1.0.2/MSDK/plf/GD32VW55x_standard_peripheral/Source\gd32vw55x_efuse.c ****     for(i = 0U; i < 8U; i++) {
 268              		.loc 1 382 5
 269 0010 13074789 		addi	a4,a4,-1900
 270              	.LVL24:
 271              	.L9:
 272              		.loc 1 383 9 is_stmt 1 discriminator 3
 273              		.loc 1 383 18 is_stmt 0 discriminator 3
 274 0014 8C43     		lw	a1,0(a5)
 275              		.loc 1 383 16 discriminator 3
 276 0016 B386C700 		add	a3,a5,a2
 277 001a AA96     		add	a3,a0,a3
 278 001c 8CC2     		sw	a1,0(a3)
 382:C:/Users/stapi/OneDrive/Desktop/GD32VW553/V1_MQTT_OK/GD32VW55X_Wifi_BLE_SDK/GD32VW55x_RELEASE_V1.0.2/MSDK/plf/GD32VW55x_standard_peripheral/Source\gd32vw55x_efuse.c ****     for(i = 0U; i < 8U; i++) {
 279              		.loc 1 382 25 is_stmt 1 discriminator 3
 280              	.LVL25:
 382:C:/Users/stapi/OneDrive/Desktop/GD32VW553/V1_MQTT_OK/GD32VW55X_Wifi_BLE_SDK/GD32VW55x_RELEASE_V1.0.2/MSDK/plf/GD32VW55x_standard_peripheral/Source\gd32vw55x_efuse.c ****     for(i = 0U; i < 8U; i++) {
 281              		.loc 1 382 17 discriminator 3
 382:C:/Users/stapi/OneDrive/Desktop/GD32VW553/V1_MQTT_OK/GD32VW55X_Wifi_BLE_SDK/GD32VW55x_RELEASE_V1.0.2/MSDK/plf/GD32VW55x_standard_peripheral/Source\gd32vw55x_efuse.c ****     for(i = 0U; i < 8U; i++) {
 282              		.loc 1 382 5 is_stmt 0 discriminator 3
 283 001e 9107     		addi	a5,a5,4
 284              	.LVL26:
 285 0020 E39AE7FE 		bne	a5,a4,.L9
 384:C:/Users/stapi/OneDrive/Desktop/GD32VW553/V1_MQTT_OK/GD32VW55X_Wifi_BLE_SDK/GD32VW55x_RELEASE_V1.0.2/MSDK/plf/GD32VW55x_standard_peripheral/Source\gd32vw55x_efuse.c ****     }
 385:C:/Users/stapi/OneDrive/Desktop/GD32VW553/V1_MQTT_OK/GD32VW55X_Wifi_BLE_SDK/GD32VW55x_RELEASE_V1.0.2/MSDK/plf/GD32VW55x_standard_peripheral/Source\gd32vw55x_efuse.c **** }
 286              		.loc 1 385 1
 287 0024 8280     		ret
 288              		.cfi_endproc
 289              	.LFE380:
 291              		.section	.text.efuse_boot_address_get,"ax",@progbits
 292              		.align	1
 293              		.globl	efuse_boot_address_get
 295              	efuse_boot_address_get:
 296              	.LFB381:
 386:C:/Users/stapi/OneDrive/Desktop/GD32VW553/V1_MQTT_OK/GD32VW55X_Wifi_BLE_SDK/GD32VW55x_RELEASE_V1.0.2/MSDK/plf/GD32VW55x_standard_peripheral/Source\gd32vw55x_efuse.c **** 
 387:C:/Users/stapi/OneDrive/Desktop/GD32VW553/V1_MQTT_OK/GD32VW55X_Wifi_BLE_SDK/GD32VW55x_RELEASE_V1.0.2/MSDK/plf/GD32VW55x_standard_peripheral/Source\gd32vw55x_efuse.c **** /*!
 388:C:/Users/stapi/OneDrive/Desktop/GD32VW553/V1_MQTT_OK/GD32VW55X_Wifi_BLE_SDK/GD32VW55x_RELEASE_V1.0.2/MSDK/plf/GD32VW55x_standard_peripheral/Source\gd32vw55x_efuse.c ****     \brief      get boot address information
 389:C:/Users/stapi/OneDrive/Desktop/GD32VW553/V1_MQTT_OK/GD32VW55X_Wifi_BLE_SDK/GD32VW55x_RELEASE_V1.0.2/MSDK/plf/GD32VW55x_standard_peripheral/Source\gd32vw55x_efuse.c ****     \param[in]  none
 390:C:/Users/stapi/OneDrive/Desktop/GD32VW553/V1_MQTT_OK/GD32VW55X_Wifi_BLE_SDK/GD32VW55x_RELEASE_V1.0.2/MSDK/plf/GD32VW55x_standard_peripheral/Source\gd32vw55x_efuse.c ****     \param[out] none
 391:C:/Users/stapi/OneDrive/Desktop/GD32VW553/V1_MQTT_OK/GD32VW55X_Wifi_BLE_SDK/GD32VW55x_RELEASE_V1.0.2/MSDK/plf/GD32VW55x_standard_peripheral/Source\gd32vw55x_efuse.c ****     \retval     current boot address
 392:C:/Users/stapi/OneDrive/Desktop/GD32VW553/V1_MQTT_OK/GD32VW55X_Wifi_BLE_SDK/GD32VW55x_RELEASE_V1.0.2/MSDK/plf/GD32VW55x_standard_peripheral/Source\gd32vw55x_efuse.c **** */
 393:C:/Users/stapi/OneDrive/Desktop/GD32VW553/V1_MQTT_OK/GD32VW55X_Wifi_BLE_SDK/GD32VW55x_RELEASE_V1.0.2/MSDK/plf/GD32VW55x_standard_peripheral/Source\gd32vw55x_efuse.c **** uint32_t efuse_boot_address_get(void)
 394:C:/Users/stapi/OneDrive/Desktop/GD32VW553/V1_MQTT_OK/GD32VW55X_Wifi_BLE_SDK/GD32VW55x_RELEASE_V1.0.2/MSDK/plf/GD32VW55x_standard_peripheral/Source\gd32vw55x_efuse.c **** {
 297              		.loc 1 394 1 is_stmt 1
 298              		.cfi_startproc
 395:C:/Users/stapi/OneDrive/Desktop/GD32VW553/V1_MQTT_OK/GD32VW55X_Wifi_BLE_SDK/GD32VW55x_RELEASE_V1.0.2/MSDK/plf/GD32VW55x_standard_peripheral/Source\gd32vw55x_efuse.c ****     return EFUSE_BOOTADDR;
 299              		.loc 1 395 5
 300              		.loc 1 395 12 is_stmt 0
 301 0000 B7370240 		li	a5,1073885184
 302 0004 03A54792 		lw	a0,-1756(a5)
 396:C:/Users/stapi/OneDrive/Desktop/GD32VW553/V1_MQTT_OK/GD32VW55X_Wifi_BLE_SDK/GD32VW55x_RELEASE_V1.0.2/MSDK/plf/GD32VW55x_standard_peripheral/Source\gd32vw55x_efuse.c **** }
 303              		.loc 1 396 1
 304 0008 8280     		ret
 305              		.cfi_endproc
 306              	.LFE381:
 308              		.section	.text.efuse_flag_get,"ax",@progbits
 309              		.align	1
 310              		.globl	efuse_flag_get
 312              	efuse_flag_get:
 313              	.LFB383:
 397:C:/Users/stapi/OneDrive/Desktop/GD32VW553/V1_MQTT_OK/GD32VW55X_Wifi_BLE_SDK/GD32VW55x_RELEASE_V1.0.2/MSDK/plf/GD32VW55x_standard_peripheral/Source\gd32vw55x_efuse.c **** 
 398:C:/Users/stapi/OneDrive/Desktop/GD32VW553/V1_MQTT_OK/GD32VW55X_Wifi_BLE_SDK/GD32VW55x_RELEASE_V1.0.2/MSDK/plf/GD32VW55x_standard_peripheral/Source\gd32vw55x_efuse.c **** /*!
 399:C:/Users/stapi/OneDrive/Desktop/GD32VW553/V1_MQTT_OK/GD32VW55X_Wifi_BLE_SDK/GD32VW55x_RELEASE_V1.0.2/MSDK/plf/GD32VW55x_standard_peripheral/Source\gd32vw55x_efuse.c ****     \brief      lock efuse filed
 400:C:/Users/stapi/OneDrive/Desktop/GD32VW553/V1_MQTT_OK/GD32VW55X_Wifi_BLE_SDK/GD32VW55x_RELEASE_V1.0.2/MSDK/plf/GD32VW55x_standard_peripheral/Source\gd32vw55x_efuse.c ****     \param[in]  source: specifies filed to lock
 401:C:/Users/stapi/OneDrive/Desktop/GD32VW553/V1_MQTT_OK/GD32VW55X_Wifi_BLE_SDK/GD32VW55x_RELEASE_V1.0.2/MSDK/plf/GD32VW55x_standard_peripheral/Source\gd32vw55x_efuse.c ****                 one parameter can be selected which is shown as below:
 402:C:/Users/stapi/OneDrive/Desktop/GD32VW553/V1_MQTT_OK/GD32VW55X_Wifi_BLE_SDK/GD32VW55x_RELEASE_V1.0.2/MSDK/plf/GD32VW55x_standard_peripheral/Source\gd32vw55x_efuse.c ****       \arg        EFUSE_BOOT_LOCK: EFUSE boot bits lock bit
 403:C:/Users/stapi/OneDrive/Desktop/GD32VW553/V1_MQTT_OK/GD32VW55X_Wifi_BLE_SDK/GD32VW55x_RELEASE_V1.0.2/MSDK/plf/GD32VW55x_standard_peripheral/Source\gd32vw55x_efuse.c ****       \arg        EFUSE_OPTION_BYTE_LOCK: option byte lock bit
 404:C:/Users/stapi/OneDrive/Desktop/GD32VW553/V1_MQTT_OK/GD32VW55X_Wifi_BLE_SDK/GD32VW55x_RELEASE_V1.0.2/MSDK/plf/GD32VW55x_standard_peripheral/Source\gd32vw55x_efuse.c ****       \arg        EFUSE_ROTPKKEY_LOCK: EFUSE_ROTPK_KEY register lock bit
 405:C:/Users/stapi/OneDrive/Desktop/GD32VW553/V1_MQTT_OK/GD32VW55X_Wifi_BLE_SDK/GD32VW55x_RELEASE_V1.0.2/MSDK/plf/GD32VW55x_standard_peripheral/Source\gd32vw55x_efuse.c ****       \arg        EFUSE_USER_DATA_LOCK: EFUSE_USER_DATA register lock bit
 406:C:/Users/stapi/OneDrive/Desktop/GD32VW553/V1_MQTT_OK/GD32VW55X_Wifi_BLE_SDK/GD32VW55x_RELEASE_V1.0.2/MSDK/plf/GD32VW55x_standard_peripheral/Source\gd32vw55x_efuse.c ****       \arg        EFUSE_AESKEY_LOCK: lock EFUSE_AES_KEY register and enable AES decrypt function
 407:C:/Users/stapi/OneDrive/Desktop/GD32VW553/V1_MQTT_OK/GD32VW55X_Wifi_BLE_SDK/GD32VW55x_RELEASE_V1.0.2/MSDK/plf/GD32VW55x_standard_peripheral/Source\gd32vw55x_efuse.c ****       \arg        EFUSE_FPCTL_USERCTL_LOCK: EFUSE_FPCTL and EFUSE_USER_CTL register lock bit
 408:C:/Users/stapi/OneDrive/Desktop/GD32VW553/V1_MQTT_OK/GD32VW55X_Wifi_BLE_SDK/GD32VW55x_RELEASE_V1.0.2/MSDK/plf/GD32VW55x_standard_peripheral/Source\gd32vw55x_efuse.c ****     \param[out] none
 409:C:/Users/stapi/OneDrive/Desktop/GD32VW553/V1_MQTT_OK/GD32VW55X_Wifi_BLE_SDK/GD32VW55x_RELEASE_V1.0.2/MSDK/plf/GD32VW55x_standard_peripheral/Source\gd32vw55x_efuse.c ****     \retval     none
 410:C:/Users/stapi/OneDrive/Desktop/GD32VW553/V1_MQTT_OK/GD32VW55X_Wifi_BLE_SDK/GD32VW55x_RELEASE_V1.0.2/MSDK/plf/GD32VW55x_standard_peripheral/Source\gd32vw55x_efuse.c **** */
 411:C:/Users/stapi/OneDrive/Desktop/GD32VW553/V1_MQTT_OK/GD32VW55X_Wifi_BLE_SDK/GD32VW55x_RELEASE_V1.0.2/MSDK/plf/GD32VW55x_standard_peripheral/Source\gd32vw55x_efuse.c **** void efuse_lock_config(efuse_reg_lock_enum source)
 412:C:/Users/stapi/OneDrive/Desktop/GD32VW553/V1_MQTT_OK/GD32VW55X_Wifi_BLE_SDK/GD32VW55x_RELEASE_V1.0.2/MSDK/plf/GD32VW55x_standard_peripheral/Source\gd32vw55x_efuse.c **** {
 413:C:/Users/stapi/OneDrive/Desktop/GD32VW553/V1_MQTT_OK/GD32VW55X_Wifi_BLE_SDK/GD32VW55x_RELEASE_V1.0.2/MSDK/plf/GD32VW55x_standard_peripheral/Source\gd32vw55x_efuse.c ****     uint32_t temp;
 414:C:/Users/stapi/OneDrive/Desktop/GD32VW553/V1_MQTT_OK/GD32VW55X_Wifi_BLE_SDK/GD32VW55x_RELEASE_V1.0.2/MSDK/plf/GD32VW55x_standard_peripheral/Source\gd32vw55x_efuse.c ****     temp = source;
 415:C:/Users/stapi/OneDrive/Desktop/GD32VW553/V1_MQTT_OK/GD32VW55X_Wifi_BLE_SDK/GD32VW55x_RELEASE_V1.0.2/MSDK/plf/GD32VW55x_standard_peripheral/Source\gd32vw55x_efuse.c ****     if(source == EFUSE_BOOT_LOCK) {
 416:C:/Users/stapi/OneDrive/Desktop/GD32VW553/V1_MQTT_OK/GD32VW55X_Wifi_BLE_SDK/GD32VW55x_RELEASE_V1.0.2/MSDK/plf/GD32VW55x_standard_peripheral/Source\gd32vw55x_efuse.c ****         efuse_write(EFUSE_CTL0_ADDR, 1U, &temp);
 417:C:/Users/stapi/OneDrive/Desktop/GD32VW553/V1_MQTT_OK/GD32VW55X_Wifi_BLE_SDK/GD32VW55x_RELEASE_V1.0.2/MSDK/plf/GD32VW55x_standard_peripheral/Source\gd32vw55x_efuse.c ****     } else if(source == EFUSE_ROTPKKEY_LOCK) {
 418:C:/Users/stapi/OneDrive/Desktop/GD32VW553/V1_MQTT_OK/GD32VW55X_Wifi_BLE_SDK/GD32VW55x_RELEASE_V1.0.2/MSDK/plf/GD32VW55x_standard_peripheral/Source\gd32vw55x_efuse.c ****         efuse_write(EFUSE_CTL1_ADDR, 1U, &temp);
 419:C:/Users/stapi/OneDrive/Desktop/GD32VW553/V1_MQTT_OK/GD32VW55X_Wifi_BLE_SDK/GD32VW55x_RELEASE_V1.0.2/MSDK/plf/GD32VW55x_standard_peripheral/Source\gd32vw55x_efuse.c ****     } else if(source == EFUSE_USER_DATA_LOCK) {
 420:C:/Users/stapi/OneDrive/Desktop/GD32VW553/V1_MQTT_OK/GD32VW55X_Wifi_BLE_SDK/GD32VW55x_RELEASE_V1.0.2/MSDK/plf/GD32VW55x_standard_peripheral/Source\gd32vw55x_efuse.c ****         efuse_write(USER_CTL_ADDR, 1U, &temp);
 421:C:/Users/stapi/OneDrive/Desktop/GD32VW553/V1_MQTT_OK/GD32VW55X_Wifi_BLE_SDK/GD32VW55x_RELEASE_V1.0.2/MSDK/plf/GD32VW55x_standard_peripheral/Source\gd32vw55x_efuse.c ****     } else if(source == EFUSE_AESKEY_LOCK) {
 422:C:/Users/stapi/OneDrive/Desktop/GD32VW553/V1_MQTT_OK/GD32VW55X_Wifi_BLE_SDK/GD32VW55x_RELEASE_V1.0.2/MSDK/plf/GD32VW55x_standard_peripheral/Source\gd32vw55x_efuse.c ****         efuse_write(USER_CTL_ADDR, 1U, &temp);
 423:C:/Users/stapi/OneDrive/Desktop/GD32VW553/V1_MQTT_OK/GD32VW55X_Wifi_BLE_SDK/GD32VW55x_RELEASE_V1.0.2/MSDK/plf/GD32VW55x_standard_peripheral/Source\gd32vw55x_efuse.c ****     } else if(source == EFUSE_FPCTL_USERCTL_LOCK) {
 424:C:/Users/stapi/OneDrive/Desktop/GD32VW553/V1_MQTT_OK/GD32VW55X_Wifi_BLE_SDK/GD32VW55x_RELEASE_V1.0.2/MSDK/plf/GD32VW55x_standard_peripheral/Source\gd32vw55x_efuse.c ****         efuse_write(USER_CTL_ADDR, 1U, &temp);
 425:C:/Users/stapi/OneDrive/Desktop/GD32VW553/V1_MQTT_OK/GD32VW55X_Wifi_BLE_SDK/GD32VW55x_RELEASE_V1.0.2/MSDK/plf/GD32VW55x_standard_peripheral/Source\gd32vw55x_efuse.c ****     }
 426:C:/Users/stapi/OneDrive/Desktop/GD32VW553/V1_MQTT_OK/GD32VW55X_Wifi_BLE_SDK/GD32VW55x_RELEASE_V1.0.2/MSDK/plf/GD32VW55x_standard_peripheral/Source\gd32vw55x_efuse.c **** }
 427:C:/Users/stapi/OneDrive/Desktop/GD32VW553/V1_MQTT_OK/GD32VW55X_Wifi_BLE_SDK/GD32VW55x_RELEASE_V1.0.2/MSDK/plf/GD32VW55x_standard_peripheral/Source\gd32vw55x_efuse.c **** 
 428:C:/Users/stapi/OneDrive/Desktop/GD32VW553/V1_MQTT_OK/GD32VW55X_Wifi_BLE_SDK/GD32VW55x_RELEASE_V1.0.2/MSDK/plf/GD32VW55x_standard_peripheral/Source\gd32vw55x_efuse.c **** /*!
 429:C:/Users/stapi/OneDrive/Desktop/GD32VW553/V1_MQTT_OK/GD32VW55X_Wifi_BLE_SDK/GD32VW55x_RELEASE_V1.0.2/MSDK/plf/GD32VW55x_standard_peripheral/Source\gd32vw55x_efuse.c ****     \brief      check EFUSE flag is set or not
 430:C:/Users/stapi/OneDrive/Desktop/GD32VW553/V1_MQTT_OK/GD32VW55X_Wifi_BLE_SDK/GD32VW55x_RELEASE_V1.0.2/MSDK/plf/GD32VW55x_standard_peripheral/Source\gd32vw55x_efuse.c ****     \param[in]  flag: specifies to get a flag
 431:C:/Users/stapi/OneDrive/Desktop/GD32VW553/V1_MQTT_OK/GD32VW55X_Wifi_BLE_SDK/GD32VW55x_RELEASE_V1.0.2/MSDK/plf/GD32VW55x_standard_peripheral/Source\gd32vw55x_efuse.c ****                 only one parameter can be selected which is shown as below:
 432:C:/Users/stapi/OneDrive/Desktop/GD32VW553/V1_MQTT_OK/GD32VW55X_Wifi_BLE_SDK/GD32VW55x_RELEASE_V1.0.2/MSDK/plf/GD32VW55x_standard_peripheral/Source\gd32vw55x_efuse.c ****       \arg        EFUSE_PGIF: programming operation completion flag
 433:C:/Users/stapi/OneDrive/Desktop/GD32VW553/V1_MQTT_OK/GD32VW55X_Wifi_BLE_SDK/GD32VW55x_RELEASE_V1.0.2/MSDK/plf/GD32VW55x_standard_peripheral/Source\gd32vw55x_efuse.c ****       \arg        EFUSE_RDIF: read operation completion flag
 434:C:/Users/stapi/OneDrive/Desktop/GD32VW553/V1_MQTT_OK/GD32VW55X_Wifi_BLE_SDK/GD32VW55x_RELEASE_V1.0.2/MSDK/plf/GD32VW55x_standard_peripheral/Source\gd32vw55x_efuse.c ****       \arg        EFUSE_OVBERIF: overstep boundary error flag
 435:C:/Users/stapi/OneDrive/Desktop/GD32VW553/V1_MQTT_OK/GD32VW55X_Wifi_BLE_SDK/GD32VW55x_RELEASE_V1.0.2/MSDK/plf/GD32VW55x_standard_peripheral/Source\gd32vw55x_efuse.c ****     \param[out] none
 436:C:/Users/stapi/OneDrive/Desktop/GD32VW553/V1_MQTT_OK/GD32VW55X_Wifi_BLE_SDK/GD32VW55x_RELEASE_V1.0.2/MSDK/plf/GD32VW55x_standard_peripheral/Source\gd32vw55x_efuse.c ****     \retval     FlagStatus: SET or RESET
 437:C:/Users/stapi/OneDrive/Desktop/GD32VW553/V1_MQTT_OK/GD32VW55X_Wifi_BLE_SDK/GD32VW55x_RELEASE_V1.0.2/MSDK/plf/GD32VW55x_standard_peripheral/Source\gd32vw55x_efuse.c **** */
 438:C:/Users/stapi/OneDrive/Desktop/GD32VW553/V1_MQTT_OK/GD32VW55X_Wifi_BLE_SDK/GD32VW55x_RELEASE_V1.0.2/MSDK/plf/GD32VW55x_standard_peripheral/Source\gd32vw55x_efuse.c **** FlagStatus efuse_flag_get(efuse_flag_enum flag)
 439:C:/Users/stapi/OneDrive/Desktop/GD32VW553/V1_MQTT_OK/GD32VW55X_Wifi_BLE_SDK/GD32VW55x_RELEASE_V1.0.2/MSDK/plf/GD32VW55x_standard_peripheral/Source\gd32vw55x_efuse.c **** {
 314              		.loc 1 439 1 is_stmt 1
 315              		.cfi_startproc
 316              	.LVL27:
 440:C:/Users/stapi/OneDrive/Desktop/GD32VW553/V1_MQTT_OK/GD32VW55X_Wifi_BLE_SDK/GD32VW55x_RELEASE_V1.0.2/MSDK/plf/GD32VW55x_standard_peripheral/Source\gd32vw55x_efuse.c ****     if(EFUSE_CS & (uint32_t)flag) {
 317              		.loc 1 440 5
 318              		.loc 1 440 8 is_stmt 0
 319 0000 B7370240 		li	a5,1073885184
 320 0004 83A70780 		lw	a5,-2048(a5)
 321              		.loc 1 440 17
 322 0008 7D8D     		and	a0,a5,a0
 323              	.LVL28:
 441:C:/Users/stapi/OneDrive/Desktop/GD32VW553/V1_MQTT_OK/GD32VW55X_Wifi_BLE_SDK/GD32VW55x_RELEASE_V1.0.2/MSDK/plf/GD32VW55x_standard_peripheral/Source\gd32vw55x_efuse.c ****         return SET;
 442:C:/Users/stapi/OneDrive/Desktop/GD32VW553/V1_MQTT_OK/GD32VW55X_Wifi_BLE_SDK/GD32VW55x_RELEASE_V1.0.2/MSDK/plf/GD32VW55x_standard_peripheral/Source\gd32vw55x_efuse.c ****     } else {
 443:C:/Users/stapi/OneDrive/Desktop/GD32VW553/V1_MQTT_OK/GD32VW55X_Wifi_BLE_SDK/GD32VW55x_RELEASE_V1.0.2/MSDK/plf/GD32VW55x_standard_peripheral/Source\gd32vw55x_efuse.c ****         return RESET;
 444:C:/Users/stapi/OneDrive/Desktop/GD32VW553/V1_MQTT_OK/GD32VW55X_Wifi_BLE_SDK/GD32VW55x_RELEASE_V1.0.2/MSDK/plf/GD32VW55x_standard_peripheral/Source\gd32vw55x_efuse.c ****     }
 445:C:/Users/stapi/OneDrive/Desktop/GD32VW553/V1_MQTT_OK/GD32VW55X_Wifi_BLE_SDK/GD32VW55x_RELEASE_V1.0.2/MSDK/plf/GD32VW55x_standard_peripheral/Source\gd32vw55x_efuse.c **** }
 324              		.loc 1 445 1
 325 000a 3335A000 		snez	a0,a0
 326 000e 8280     		ret
 327              		.cfi_endproc
 328              	.LFE383:
 330              		.section	.text.efuse_read,"ax",@progbits
 331              		.align	1
 332              		.globl	efuse_read
 334              	efuse_read:
 335              	.LFB365:
  47:C:/Users/stapi/OneDrive/Desktop/GD32VW553/V1_MQTT_OK/GD32VW55X_Wifi_BLE_SDK/GD32VW55x_RELEASE_V1.0.2/MSDK/plf/GD32VW55x_standard_peripheral/Source\gd32vw55x_efuse.c ****     uint32_t i = 0U;
 336              		.loc 1 47 1 is_stmt 1
 337              		.cfi_startproc
 338              	.LVL29:
 339 0000 17030000 		call	t0,__riscv_save_4
 339      E7020300 
 340              		.cfi_offset 19, -20
 341              		.cfi_offset 18, -16
 342              		.cfi_offset 9, -12
 343              		.cfi_offset 8, -8
 344              		.cfi_offset 1, -4
 345              		.cfi_def_cfa_offset 32
  48:C:/Users/stapi/OneDrive/Desktop/GD32VW553/V1_MQTT_OK/GD32VW55X_Wifi_BLE_SDK/GD32VW55x_RELEASE_V1.0.2/MSDK/plf/GD32VW55x_standard_peripheral/Source\gd32vw55x_efuse.c ****     uint32_t timeout = 0xFFU;
 346              		.loc 1 48 5
 347              	.LVL30:
  49:C:/Users/stapi/OneDrive/Desktop/GD32VW553/V1_MQTT_OK/GD32VW55X_Wifi_BLE_SDK/GD32VW55x_RELEASE_V1.0.2/MSDK/plf/GD32VW55x_standard_peripheral/Source\gd32vw55x_efuse.c ****     uint32_t reg_addr = 0U;
 348              		.loc 1 49 5
  50:C:/Users/stapi/OneDrive/Desktop/GD32VW553/V1_MQTT_OK/GD32VW55X_Wifi_BLE_SDK/GD32VW55x_RELEASE_V1.0.2/MSDK/plf/GD32VW55x_standard_peripheral/Source\gd32vw55x_efuse.c ****     uint32_t number = size / 4U;
 349              		.loc 1 50 5
  51:C:/Users/stapi/OneDrive/Desktop/GD32VW553/V1_MQTT_OK/GD32VW55X_Wifi_BLE_SDK/GD32VW55x_RELEASE_V1.0.2/MSDK/plf/GD32VW55x_standard_peripheral/Source\gd32vw55x_efuse.c **** 
 350              		.loc 1 51 5
  53:C:/Users/stapi/OneDrive/Desktop/GD32VW553/V1_MQTT_OK/GD32VW55X_Wifi_BLE_SDK/GD32VW55x_RELEASE_V1.0.2/MSDK/plf/GD32VW55x_standard_peripheral/Source\gd32vw55x_efuse.c ****         number = 1U;
 351              		.loc 1 53 5
  53:C:/Users/stapi/OneDrive/Desktop/GD32VW553/V1_MQTT_OK/GD32VW55X_Wifi_BLE_SDK/GD32VW55x_RELEASE_V1.0.2/MSDK/plf/GD32VW55x_standard_peripheral/Source\gd32vw55x_efuse.c ****         number = 1U;
 352              		.loc 1 53 7 is_stmt 0
 353 0008 8D47     		li	a5,3
  47:C:/Users/stapi/OneDrive/Desktop/GD32VW553/V1_MQTT_OK/GD32VW55X_Wifi_BLE_SDK/GD32VW55x_RELEASE_V1.0.2/MSDK/plf/GD32VW55x_standard_peripheral/Source\gd32vw55x_efuse.c ****     uint32_t i = 0U;
 354              		.loc 1 47 1
 355 000a B289     		mv	s3,a2
  51:C:/Users/stapi/OneDrive/Desktop/GD32VW553/V1_MQTT_OK/GD32VW55X_Wifi_BLE_SDK/GD32VW55x_RELEASE_V1.0.2/MSDK/plf/GD32VW55x_standard_peripheral/Source\gd32vw55x_efuse.c **** 
 356              		.loc 1 51 14
 357 000c 93D42500 		srli	s1,a1,2
 358              	.LVL31:
  53:C:/Users/stapi/OneDrive/Desktop/GD32VW553/V1_MQTT_OK/GD32VW55X_Wifi_BLE_SDK/GD32VW55x_RELEASE_V1.0.2/MSDK/plf/GD32VW55x_standard_peripheral/Source\gd32vw55x_efuse.c ****         number = 1U;
 359              		.loc 1 53 7
 360 0010 63E3B700 		bgtu	a1,a5,.L14
 361 0014 8544     		li	s1,1
 362              	.LVL32:
 363              	.L14:
  58:C:/Users/stapi/OneDrive/Desktop/GD32VW553/V1_MQTT_OK/GD32VW55X_Wifi_BLE_SDK/GD32VW55x_RELEASE_V1.0.2/MSDK/plf/GD32VW55x_standard_peripheral/Source\gd32vw55x_efuse.c ****         return ERROR;
 364              		.loc 1 58 5 is_stmt 1
  58:C:/Users/stapi/OneDrive/Desktop/GD32VW553/V1_MQTT_OK/GD32VW55X_Wifi_BLE_SDK/GD32VW55x_RELEASE_V1.0.2/MSDK/plf/GD32VW55x_standard_peripheral/Source\gd32vw55x_efuse.c ****         return ERROR;
 365              		.loc 1 58 7 is_stmt 0
 366 0016 93070008 		li	a5,128
 367 001a 63F7A700 		bleu	a0,a5,.L15
 368              	.LVL33:
 369              	.L17:
  59:C:/Users/stapi/OneDrive/Desktop/GD32VW553/V1_MQTT_OK/GD32VW55X_Wifi_BLE_SDK/GD32VW55x_RELEASE_V1.0.2/MSDK/plf/GD32VW55x_standard_peripheral/Source\gd32vw55x_efuse.c ****     }
 370              		.loc 1 59 16
 371 001e 0145     		li	a0,0
 372              	.LVL34:
 373              	.L13:
  98:C:/Users/stapi/OneDrive/Desktop/GD32VW553/V1_MQTT_OK/GD32VW55X_Wifi_BLE_SDK/GD32VW55x_RELEASE_V1.0.2/MSDK/plf/GD32VW55x_standard_peripheral/Source\gd32vw55x_efuse.c **** 
 374              		.loc 1 98 1
 375 0020 17030000 		tail	__riscv_restore_4
 375      67000300 
 376              		.cfi_remember_state
 377              		.cfi_restore 19
 378              		.cfi_restore 18
 379              		.cfi_restore 9
 380              		.cfi_restore 8
 381              		.cfi_restore 1
 382              		.cfi_def_cfa_offset 0
 383              	.LVL35:
 384              	.L15:
 385              		.cfi_restore_state
  58:C:/Users/stapi/OneDrive/Desktop/GD32VW553/V1_MQTT_OK/GD32VW55X_Wifi_BLE_SDK/GD32VW55x_RELEASE_V1.0.2/MSDK/plf/GD32VW55x_standard_peripheral/Source\gd32vw55x_efuse.c ****         return ERROR;
 386              		.loc 1 58 29 discriminator 1
 387 0028 93070002 		li	a5,32
 388 002c E3E9B7FE 		bgtu	a1,a5,.L17
  63:C:/Users/stapi/OneDrive/Desktop/GD32VW553/V1_MQTT_OK/GD32VW55X_Wifi_BLE_SDK/GD32VW55x_RELEASE_V1.0.2/MSDK/plf/GD32VW55x_standard_peripheral/Source\gd32vw55x_efuse.c ****         reg_addr = (uint32_t)(EFUSE + 0x08U + (ef_addr * 4U));
 389              		.loc 1 63 5 is_stmt 1
  63:C:/Users/stapi/OneDrive/Desktop/GD32VW553/V1_MQTT_OK/GD32VW55X_Wifi_BLE_SDK/GD32VW55x_RELEASE_V1.0.2/MSDK/plf/GD32VW55x_standard_peripheral/Source\gd32vw55x_efuse.c ****         reg_addr = (uint32_t)(EFUSE + 0x08U + (ef_addr * 4U));
 390              		.loc 1 63 7 is_stmt 0
 391 0030 8D47     		li	a5,3
 392 0032 63E3A704 		bgtu	a0,a5,.L18
  64:C:/Users/stapi/OneDrive/Desktop/GD32VW553/V1_MQTT_OK/GD32VW55X_Wifi_BLE_SDK/GD32VW55x_RELEASE_V1.0.2/MSDK/plf/GD32VW55x_standard_peripheral/Source\gd32vw55x_efuse.c ****     } else {
 393              		.loc 1 64 9 is_stmt 1
  64:C:/Users/stapi/OneDrive/Desktop/GD32VW553/V1_MQTT_OK/GD32VW55X_Wifi_BLE_SDK/GD32VW55x_RELEASE_V1.0.2/MSDK/plf/GD32VW55x_standard_peripheral/Source\gd32vw55x_efuse.c ****     } else {
 394              		.loc 1 64 20 is_stmt 0
 395 0036 37940010 		li	s0,268472320
 396 003a 130424A0 		addi	s0,s0,-1534
 397 003e 2A94     		add	s0,a0,s0
  64:C:/Users/stapi/OneDrive/Desktop/GD32VW553/V1_MQTT_OK/GD32VW55X_Wifi_BLE_SDK/GD32VW55x_RELEASE_V1.0.2/MSDK/plf/GD32VW55x_standard_peripheral/Source\gd32vw55x_efuse.c ****     } else {
 398              		.loc 1 64 18
 399 0040 0A04     		slli	s0,s0,2
 400              	.LVL36:
 401              	.L19:
  75:C:/Users/stapi/OneDrive/Desktop/GD32VW553/V1_MQTT_OK/GD32VW55X_Wifi_BLE_SDK/GD32VW55x_RELEASE_V1.0.2/MSDK/plf/GD32VW55x_standard_peripheral/Source\gd32vw55x_efuse.c ****     /* write EFUSE address and size */
 402              		.loc 1 75 5 is_stmt 1
  75:C:/Users/stapi/OneDrive/Desktop/GD32VW553/V1_MQTT_OK/GD32VW55X_Wifi_BLE_SDK/GD32VW55x_RELEASE_V1.0.2/MSDK/plf/GD32VW55x_standard_peripheral/Source\gd32vw55x_efuse.c ****     /* write EFUSE address and size */
 403              		.loc 1 75 14 is_stmt 0
 404 0042 B7370240 		li	a5,1073885184
 405 0046 93870780 		addi	a5,a5,-2048
 406 004a 9843     		lw	a4,0(a5)
  77:C:/Users/stapi/OneDrive/Desktop/GD32VW553/V1_MQTT_OK/GD32VW55X_Wifi_BLE_SDK/GD32VW55x_RELEASE_V1.0.2/MSDK/plf/GD32VW55x_standard_peripheral/Source\gd32vw55x_efuse.c ****     /* start read EFUSE operation */
 407              		.loc 1 77 35
 408 004c A205     		slli	a1,a1,8
 409              	.LVL37:
  77:C:/Users/stapi/OneDrive/Desktop/GD32VW553/V1_MQTT_OK/GD32VW55X_Wifi_BLE_SDK/GD32VW55x_RELEASE_V1.0.2/MSDK/plf/GD32VW55x_standard_peripheral/Source\gd32vw55x_efuse.c ****     /* start read EFUSE operation */
 410              		.loc 1 77 42
 411 004e C98D     		or	a1,a1,a0
  75:C:/Users/stapi/OneDrive/Desktop/GD32VW553/V1_MQTT_OK/GD32VW55X_Wifi_BLE_SDK/GD32VW55x_RELEASE_V1.0.2/MSDK/plf/GD32VW55x_standard_peripheral/Source\gd32vw55x_efuse.c ****     /* write EFUSE address and size */
 412              		.loc 1 75 14
 413 0050 759B     		andi	a4,a4,-3
 414 0052 98C3     		sw	a4,0(a5)
  77:C:/Users/stapi/OneDrive/Desktop/GD32VW553/V1_MQTT_OK/GD32VW55X_Wifi_BLE_SDK/GD32VW55x_RELEASE_V1.0.2/MSDK/plf/GD32VW55x_standard_peripheral/Source\gd32vw55x_efuse.c ****     /* start read EFUSE operation */
 415              		.loc 1 77 5 is_stmt 1
  77:C:/Users/stapi/OneDrive/Desktop/GD32VW553/V1_MQTT_OK/GD32VW55X_Wifi_BLE_SDK/GD32VW55x_RELEASE_V1.0.2/MSDK/plf/GD32VW55x_standard_peripheral/Source\gd32vw55x_efuse.c ****     /* start read EFUSE operation */
 416              		.loc 1 77 16 is_stmt 0
 417 0054 CCC3     		sw	a1,4(a5)
  79:C:/Users/stapi/OneDrive/Desktop/GD32VW553/V1_MQTT_OK/GD32VW55X_Wifi_BLE_SDK/GD32VW55x_RELEASE_V1.0.2/MSDK/plf/GD32VW55x_standard_peripheral/Source\gd32vw55x_efuse.c **** 
 418              		.loc 1 79 5 is_stmt 1
  79:C:/Users/stapi/OneDrive/Desktop/GD32VW553/V1_MQTT_OK/GD32VW55X_Wifi_BLE_SDK/GD32VW55x_RELEASE_V1.0.2/MSDK/plf/GD32VW55x_standard_peripheral/Source\gd32vw55x_efuse.c **** 
 419              		.loc 1 79 14 is_stmt 0
 420 0056 9843     		lw	a4,0(a5)
  49:C:/Users/stapi/OneDrive/Desktop/GD32VW553/V1_MQTT_OK/GD32VW55X_Wifi_BLE_SDK/GD32VW55x_RELEASE_V1.0.2/MSDK/plf/GD32VW55x_standard_peripheral/Source\gd32vw55x_efuse.c ****     uint32_t reg_addr = 0U;
 421              		.loc 1 49 14
 422 0058 1309F00F 		li	s2,255
  79:C:/Users/stapi/OneDrive/Desktop/GD32VW553/V1_MQTT_OK/GD32VW55X_Wifi_BLE_SDK/GD32VW55x_RELEASE_V1.0.2/MSDK/plf/GD32VW55x_standard_peripheral/Source\gd32vw55x_efuse.c **** 
 423              		.loc 1 79 14
 424 005c 13671700 		ori	a4,a4,1
 425 0060 98C3     		sw	a4,0(a5)
 426              	.LVL38:
 427              	.L21:
  82:C:/Users/stapi/OneDrive/Desktop/GD32VW553/V1_MQTT_OK/GD32VW55X_Wifi_BLE_SDK/GD32VW55x_RELEASE_V1.0.2/MSDK/plf/GD32VW55x_standard_peripheral/Source\gd32vw55x_efuse.c ****         timeout--;
 428              		.loc 1 82 5 is_stmt 1 discriminator 2
  83:C:/Users/stapi/OneDrive/Desktop/GD32VW553/V1_MQTT_OK/GD32VW55X_Wifi_BLE_SDK/GD32VW55x_RELEASE_V1.0.2/MSDK/plf/GD32VW55x_standard_peripheral/Source\gd32vw55x_efuse.c ****     } while((RESET == efuse_flag_get(EFUSE_RDIF)) && (0x00U != timeout));
 429              		.loc 1 83 9 discriminator 2
  84:C:/Users/stapi/OneDrive/Desktop/GD32VW553/V1_MQTT_OK/GD32VW55X_Wifi_BLE_SDK/GD32VW55x_RELEASE_V1.0.2/MSDK/plf/GD32VW55x_standard_peripheral/Source\gd32vw55x_efuse.c ****     if(0x00U == timeout) {
 430              		.loc 1 84 23 is_stmt 0 discriminator 2
 431 0062 37050200 		li	a0,131072
  83:C:/Users/stapi/OneDrive/Desktop/GD32VW553/V1_MQTT_OK/GD32VW55X_Wifi_BLE_SDK/GD32VW55x_RELEASE_V1.0.2/MSDK/plf/GD32VW55x_standard_peripheral/Source\gd32vw55x_efuse.c ****     } while((RESET == efuse_flag_get(EFUSE_RDIF)) && (0x00U != timeout));
 432              		.loc 1 83 16 discriminator 2
 433 0066 7D19     		addi	s2,s2,-1
 434              	.LVL39:
  84:C:/Users/stapi/OneDrive/Desktop/GD32VW553/V1_MQTT_OK/GD32VW55X_Wifi_BLE_SDK/GD32VW55x_RELEASE_V1.0.2/MSDK/plf/GD32VW55x_standard_peripheral/Source\gd32vw55x_efuse.c ****     if(0x00U == timeout) {
 435              		.loc 1 84 12 is_stmt 1 discriminator 2
  84:C:/Users/stapi/OneDrive/Desktop/GD32VW553/V1_MQTT_OK/GD32VW55X_Wifi_BLE_SDK/GD32VW55x_RELEASE_V1.0.2/MSDK/plf/GD32VW55x_standard_peripheral/Source\gd32vw55x_efuse.c ****     if(0x00U == timeout) {
 436              		.loc 1 84 23 is_stmt 0 discriminator 2
 437 0068 97000000 		call	efuse_flag_get
 437      E7800000 
 438              	.LVL40:
  84:C:/Users/stapi/OneDrive/Desktop/GD32VW553/V1_MQTT_OK/GD32VW55X_Wifi_BLE_SDK/GD32VW55x_RELEASE_V1.0.2/MSDK/plf/GD32VW55x_standard_peripheral/Source\gd32vw55x_efuse.c ****     if(0x00U == timeout) {
 439              		.loc 1 84 5 discriminator 2
 440 0070 09ED     		bne	a0,zero,.L20
  84:C:/Users/stapi/OneDrive/Desktop/GD32VW553/V1_MQTT_OK/GD32VW55X_Wifi_BLE_SDK/GD32VW55x_RELEASE_V1.0.2/MSDK/plf/GD32VW55x_standard_peripheral/Source\gd32vw55x_efuse.c ****     if(0x00U == timeout) {
 441              		.loc 1 84 51 discriminator 1
 442 0072 E31809FE 		bne	s2,zero,.L21
 443 0076 65B7     		j	.L17
 444              	.LVL41:
 445              	.L18:
  67:C:/Users/stapi/OneDrive/Desktop/GD32VW553/V1_MQTT_OK/GD32VW55X_Wifi_BLE_SDK/GD32VW55x_RELEASE_V1.0.2/MSDK/plf/GD32VW55x_standard_peripheral/Source\gd32vw55x_efuse.c ****             reg_addr = (uint32_t)(EFUSE + 0x14U + ef_addr);
 446              		.loc 1 67 9 is_stmt 1
  67:C:/Users/stapi/OneDrive/Desktop/GD32VW553/V1_MQTT_OK/GD32VW55X_Wifi_BLE_SDK/GD32VW55x_RELEASE_V1.0.2/MSDK/plf/GD32VW55x_standard_peripheral/Source\gd32vw55x_efuse.c ****             reg_addr = (uint32_t)(EFUSE + 0x14U + ef_addr);
 447              		.loc 1 67 27 is_stmt 0
 448 0078 93773500 		andi	a5,a0,3
  67:C:/Users/stapi/OneDrive/Desktop/GD32VW553/V1_MQTT_OK/GD32VW55X_Wifi_BLE_SDK/GD32VW55x_RELEASE_V1.0.2/MSDK/plf/GD32VW55x_standard_peripheral/Source\gd32vw55x_efuse.c ****             reg_addr = (uint32_t)(EFUSE + 0x14U + ef_addr);
 449              		.loc 1 67 11
 450 007c CDF3     		bne	a5,zero,.L17
  68:C:/Users/stapi/OneDrive/Desktop/GD32VW553/V1_MQTT_OK/GD32VW55X_Wifi_BLE_SDK/GD32VW55x_RELEASE_V1.0.2/MSDK/plf/GD32VW55x_standard_peripheral/Source\gd32vw55x_efuse.c ****         } else {
 451              		.loc 1 68 13 is_stmt 1
  68:C:/Users/stapi/OneDrive/Desktop/GD32VW553/V1_MQTT_OK/GD32VW55X_Wifi_BLE_SDK/GD32VW55x_RELEASE_V1.0.2/MSDK/plf/GD32VW55x_standard_peripheral/Source\gd32vw55x_efuse.c ****         } else {
 452              		.loc 1 68 22 is_stmt 0
 453 007e 37340240 		li	s0,1073885184
 454 0082 13044481 		addi	s0,s0,-2028
 455 0086 2A94     		add	s0,a0,s0
 456              	.LVL42:
 457 0088 6DBF     		j	.L19
 458              	.LVL43:
 459              	.L20:
  85:C:/Users/stapi/OneDrive/Desktop/GD32VW553/V1_MQTT_OK/GD32VW55X_Wifi_BLE_SDK/GD32VW55x_RELEASE_V1.0.2/MSDK/plf/GD32VW55x_standard_peripheral/Source\gd32vw55x_efuse.c ****         return ERROR;
 460              		.loc 1 85 5 is_stmt 1
  85:C:/Users/stapi/OneDrive/Desktop/GD32VW553/V1_MQTT_OK/GD32VW55X_Wifi_BLE_SDK/GD32VW55x_RELEASE_V1.0.2/MSDK/plf/GD32VW55x_standard_peripheral/Source\gd32vw55x_efuse.c ****         return ERROR;
 461              		.loc 1 85 7 is_stmt 0
 462 008a E30A09F8 		beq	s2,zero,.L17
 463 008e 8A04     		slli	s1,s1,2
 464              	.LVL44:
  90:C:/Users/stapi/OneDrive/Desktop/GD32VW553/V1_MQTT_OK/GD32VW55X_Wifi_BLE_SDK/GD32VW55x_RELEASE_V1.0.2/MSDK/plf/GD32VW55x_standard_peripheral/Source\gd32vw55x_efuse.c ****         buf[i] = REG32(reg_addr + (4U * i));
 465              		.loc 1 90 17 is_stmt 1
  85:C:/Users/stapi/OneDrive/Desktop/GD32VW553/V1_MQTT_OK/GD32VW55X_Wifi_BLE_SDK/GD32VW55x_RELEASE_V1.0.2/MSDK/plf/GD32VW55x_standard_peripheral/Source\gd32vw55x_efuse.c ****         return ERROR;
 466              		.loc 1 85 7 is_stmt 0
 467 0090 8147     		li	a5,0
 468              	.L22:
  91:C:/Users/stapi/OneDrive/Desktop/GD32VW553/V1_MQTT_OK/GD32VW55X_Wifi_BLE_SDK/GD32VW55x_RELEASE_V1.0.2/MSDK/plf/GD32VW55x_standard_peripheral/Source\gd32vw55x_efuse.c ****     }
 469              		.loc 1 91 9 is_stmt 1 discriminator 3
 470 0092 33878700 		add	a4,a5,s0
  91:C:/Users/stapi/OneDrive/Desktop/GD32VW553/V1_MQTT_OK/GD32VW55X_Wifi_BLE_SDK/GD32VW55x_RELEASE_V1.0.2/MSDK/plf/GD32VW55x_standard_peripheral/Source\gd32vw55x_efuse.c ****     }
 471              		.loc 1 91 18 is_stmt 0 discriminator 3
 472 0096 1443     		lw	a3,0(a4)
  91:C:/Users/stapi/OneDrive/Desktop/GD32VW553/V1_MQTT_OK/GD32VW55X_Wifi_BLE_SDK/GD32VW55x_RELEASE_V1.0.2/MSDK/plf/GD32VW55x_standard_peripheral/Source\gd32vw55x_efuse.c ****     }
 473              		.loc 1 91 16 discriminator 3
 474 0098 3387F900 		add	a4,s3,a5
 475 009c 9107     		addi	a5,a5,4
 476 009e 14C3     		sw	a3,0(a4)
  90:C:/Users/stapi/OneDrive/Desktop/GD32VW553/V1_MQTT_OK/GD32VW55X_Wifi_BLE_SDK/GD32VW55x_RELEASE_V1.0.2/MSDK/plf/GD32VW55x_standard_peripheral/Source\gd32vw55x_efuse.c ****         buf[i] = REG32(reg_addr + (4U * i));
 477              		.loc 1 90 29 is_stmt 1 discriminator 3
  90:C:/Users/stapi/OneDrive/Desktop/GD32VW553/V1_MQTT_OK/GD32VW55X_Wifi_BLE_SDK/GD32VW55x_RELEASE_V1.0.2/MSDK/plf/GD32VW55x_standard_peripheral/Source\gd32vw55x_efuse.c ****         buf[i] = REG32(reg_addr + (4U * i));
 478              		.loc 1 90 17 discriminator 3
  90:C:/Users/stapi/OneDrive/Desktop/GD32VW553/V1_MQTT_OK/GD32VW55X_Wifi_BLE_SDK/GD32VW55x_RELEASE_V1.0.2/MSDK/plf/GD32VW55x_standard_peripheral/Source\gd32vw55x_efuse.c ****         buf[i] = REG32(reg_addr + (4U * i));
 479              		.loc 1 90 5 is_stmt 0 discriminator 3
 480 00a0 E399F4FE 		bne	s1,a5,.L22
  95:C:/Users/stapi/OneDrive/Desktop/GD32VW553/V1_MQTT_OK/GD32VW55X_Wifi_BLE_SDK/GD32VW55x_RELEASE_V1.0.2/MSDK/plf/GD32VW55x_standard_peripheral/Source\gd32vw55x_efuse.c **** 
 481              		.loc 1 95 5 is_stmt 1
  95:C:/Users/stapi/OneDrive/Desktop/GD32VW553/V1_MQTT_OK/GD32VW55X_Wifi_BLE_SDK/GD32VW55x_RELEASE_V1.0.2/MSDK/plf/GD32VW55x_standard_peripheral/Source\gd32vw55x_efuse.c **** 
 482              		.loc 1 95 14 is_stmt 0
 483 00a4 37370240 		li	a4,1073885184
 484 00a8 83270780 		lw	a5,-2048(a4)
  97:C:/Users/stapi/OneDrive/Desktop/GD32VW553/V1_MQTT_OK/GD32VW55X_Wifi_BLE_SDK/GD32VW55x_RELEASE_V1.0.2/MSDK/plf/GD32VW55x_standard_peripheral/Source\gd32vw55x_efuse.c **** }
 485              		.loc 1 97 12
 486 00ac 0545     		li	a0,1
  95:C:/Users/stapi/OneDrive/Desktop/GD32VW553/V1_MQTT_OK/GD32VW55X_Wifi_BLE_SDK/GD32VW55x_RELEASE_V1.0.2/MSDK/plf/GD32VW55x_standard_peripheral/Source\gd32vw55x_efuse.c **** 
 487              		.loc 1 95 14
 488 00ae 93979729 		bseti	a5,a5,25
 489 00b2 2320F780 		sw	a5,-2048(a4)
  97:C:/Users/stapi/OneDrive/Desktop/GD32VW553/V1_MQTT_OK/GD32VW55X_Wifi_BLE_SDK/GD32VW55x_RELEASE_V1.0.2/MSDK/plf/GD32VW55x_standard_peripheral/Source\gd32vw55x_efuse.c **** }
 490              		.loc 1 97 5 is_stmt 1
  97:C:/Users/stapi/OneDrive/Desktop/GD32VW553/V1_MQTT_OK/GD32VW55X_Wifi_BLE_SDK/GD32VW55x_RELEASE_V1.0.2/MSDK/plf/GD32VW55x_standard_peripheral/Source\gd32vw55x_efuse.c **** }
 491              		.loc 1 97 12 is_stmt 0
 492 00b6 ADB7     		j	.L13
 493              		.cfi_endproc
 494              	.LFE365:
 496              		.section	.text.efuse_write,"ax",@progbits
 497              		.align	1
 498              		.globl	efuse_write
 500              	efuse_write:
 501              	.LFB366:
 112:C:/Users/stapi/OneDrive/Desktop/GD32VW553/V1_MQTT_OK/GD32VW55X_Wifi_BLE_SDK/GD32VW55x_RELEASE_V1.0.2/MSDK/plf/GD32VW55x_standard_peripheral/Source\gd32vw55x_efuse.c ****     uint32_t i = 0U;
 502              		.loc 1 112 1 is_stmt 1
 503              		.cfi_startproc
 504              	.LVL45:
 113:C:/Users/stapi/OneDrive/Desktop/GD32VW553/V1_MQTT_OK/GD32VW55X_Wifi_BLE_SDK/GD32VW55x_RELEASE_V1.0.2/MSDK/plf/GD32VW55x_standard_peripheral/Source\gd32vw55x_efuse.c ****     uint32_t timeout = 0xFFFFU;
 505              		.loc 1 113 5
 114:C:/Users/stapi/OneDrive/Desktop/GD32VW553/V1_MQTT_OK/GD32VW55X_Wifi_BLE_SDK/GD32VW55x_RELEASE_V1.0.2/MSDK/plf/GD32VW55x_standard_peripheral/Source\gd32vw55x_efuse.c ****     uint32_t reg_addr = 0U;
 506              		.loc 1 114 5
 115:C:/Users/stapi/OneDrive/Desktop/GD32VW553/V1_MQTT_OK/GD32VW55X_Wifi_BLE_SDK/GD32VW55x_RELEASE_V1.0.2/MSDK/plf/GD32VW55x_standard_peripheral/Source\gd32vw55x_efuse.c ****     uint32_t number = size / 4U;
 507              		.loc 1 115 5
 116:C:/Users/stapi/OneDrive/Desktop/GD32VW553/V1_MQTT_OK/GD32VW55X_Wifi_BLE_SDK/GD32VW55x_RELEASE_V1.0.2/MSDK/plf/GD32VW55x_standard_peripheral/Source\gd32vw55x_efuse.c **** 
 508              		.loc 1 116 5
 118:C:/Users/stapi/OneDrive/Desktop/GD32VW553/V1_MQTT_OK/GD32VW55X_Wifi_BLE_SDK/GD32VW55x_RELEASE_V1.0.2/MSDK/plf/GD32VW55x_standard_peripheral/Source\gd32vw55x_efuse.c ****         number = 1U;
 509              		.loc 1 118 5
 118:C:/Users/stapi/OneDrive/Desktop/GD32VW553/V1_MQTT_OK/GD32VW55X_Wifi_BLE_SDK/GD32VW55x_RELEASE_V1.0.2/MSDK/plf/GD32VW55x_standard_peripheral/Source\gd32vw55x_efuse.c ****         number = 1U;
 510              		.loc 1 118 7 is_stmt 0
 511 0000 8D47     		li	a5,3
 116:C:/Users/stapi/OneDrive/Desktop/GD32VW553/V1_MQTT_OK/GD32VW55X_Wifi_BLE_SDK/GD32VW55x_RELEASE_V1.0.2/MSDK/plf/GD32VW55x_standard_peripheral/Source\gd32vw55x_efuse.c **** 
 512              		.loc 1 116 14
 513 0002 13D72500 		srli	a4,a1,2
 514              	.LVL46:
 118:C:/Users/stapi/OneDrive/Desktop/GD32VW553/V1_MQTT_OK/GD32VW55X_Wifi_BLE_SDK/GD32VW55x_RELEASE_V1.0.2/MSDK/plf/GD32VW55x_standard_peripheral/Source\gd32vw55x_efuse.c ****         number = 1U;
 515              		.loc 1 118 7
 516 0006 63E3B700 		bgtu	a1,a5,.L32
 517 000a 0547     		li	a4,1
 518              	.LVL47:
 519              	.L32:
 123:C:/Users/stapi/OneDrive/Desktop/GD32VW553/V1_MQTT_OK/GD32VW55X_Wifi_BLE_SDK/GD32VW55x_RELEASE_V1.0.2/MSDK/plf/GD32VW55x_standard_peripheral/Source\gd32vw55x_efuse.c ****         return ERROR;
 520              		.loc 1 123 5 is_stmt 1
 123:C:/Users/stapi/OneDrive/Desktop/GD32VW553/V1_MQTT_OK/GD32VW55X_Wifi_BLE_SDK/GD32VW55x_RELEASE_V1.0.2/MSDK/plf/GD32VW55x_standard_peripheral/Source\gd32vw55x_efuse.c ****         return ERROR;
 521              		.loc 1 123 7 is_stmt 0
 522 000c 93070008 		li	a5,128
 523 0010 63F4A700 		bleu	a0,a5,.L33
 524              	.L49:
 124:C:/Users/stapi/OneDrive/Desktop/GD32VW553/V1_MQTT_OK/GD32VW55X_Wifi_BLE_SDK/GD32VW55x_RELEASE_V1.0.2/MSDK/plf/GD32VW55x_standard_peripheral/Source\gd32vw55x_efuse.c ****     }
 525              		.loc 1 124 16
 526 0014 0145     		li	a0,0
 527              	.LVL48:
 173:C:/Users/stapi/OneDrive/Desktop/GD32VW553/V1_MQTT_OK/GD32VW55X_Wifi_BLE_SDK/GD32VW55x_RELEASE_V1.0.2/MSDK/plf/GD32VW55x_standard_peripheral/Source\gd32vw55x_efuse.c **** 
 528              		.loc 1 173 1
 529 0016 8280     		ret
 530              	.LVL49:
 531              	.L33:
 123:C:/Users/stapi/OneDrive/Desktop/GD32VW553/V1_MQTT_OK/GD32VW55X_Wifi_BLE_SDK/GD32VW55x_RELEASE_V1.0.2/MSDK/plf/GD32VW55x_standard_peripheral/Source\gd32vw55x_efuse.c ****         return ERROR;
 532              		.loc 1 123 29 discriminator 1
 533 0018 93070002 		li	a5,32
 534 001c E3ECB7FE 		bgtu	a1,a5,.L49
 128:C:/Users/stapi/OneDrive/Desktop/GD32VW553/V1_MQTT_OK/GD32VW55X_Wifi_BLE_SDK/GD32VW55x_RELEASE_V1.0.2/MSDK/plf/GD32VW55x_standard_peripheral/Source\gd32vw55x_efuse.c ****         return ERROR;
 535              		.loc 1 128 5 is_stmt 1
 128:C:/Users/stapi/OneDrive/Desktop/GD32VW553/V1_MQTT_OK/GD32VW55X_Wifi_BLE_SDK/GD32VW55x_RELEASE_V1.0.2/MSDK/plf/GD32VW55x_standard_peripheral/Source\gd32vw55x_efuse.c ****         return ERROR;
 536              		.loc 1 128 34 is_stmt 0
 537 0020 930705FC 		addi	a5,a0,-64
 128:C:/Users/stapi/OneDrive/Desktop/GD32VW553/V1_MQTT_OK/GD32VW55X_Wifi_BLE_SDK/GD32VW55x_RELEASE_V1.0.2/MSDK/plf/GD32VW55x_standard_peripheral/Source\gd32vw55x_efuse.c ****         return ERROR;
 538              		.loc 1 128 7
 539 0024 FD46     		li	a3,31
 540 0026 E3F7F6FE 		bleu	a5,a3,.L49
 133:C:/Users/stapi/OneDrive/Desktop/GD32VW553/V1_MQTT_OK/GD32VW55X_Wifi_BLE_SDK/GD32VW55x_RELEASE_V1.0.2/MSDK/plf/GD32VW55x_standard_peripheral/Source\gd32vw55x_efuse.c ****         reg_addr = (uint32_t)(EFUSE + 0x08U + (ef_addr * 4U));
 541              		.loc 1 133 5 is_stmt 1
 133:C:/Users/stapi/OneDrive/Desktop/GD32VW553/V1_MQTT_OK/GD32VW55X_Wifi_BLE_SDK/GD32VW55x_RELEASE_V1.0.2/MSDK/plf/GD32VW55x_standard_peripheral/Source\gd32vw55x_efuse.c ****         reg_addr = (uint32_t)(EFUSE + 0x08U + (ef_addr * 4U));
 542              		.loc 1 133 7 is_stmt 0
 543 002a 8D47     		li	a5,3
 544 002c 63E3A708 		bgtu	a0,a5,.L36
 134:C:/Users/stapi/OneDrive/Desktop/GD32VW553/V1_MQTT_OK/GD32VW55X_Wifi_BLE_SDK/GD32VW55x_RELEASE_V1.0.2/MSDK/plf/GD32VW55x_standard_peripheral/Source\gd32vw55x_efuse.c ****     } else {
 545              		.loc 1 134 9 is_stmt 1
 134:C:/Users/stapi/OneDrive/Desktop/GD32VW553/V1_MQTT_OK/GD32VW55X_Wifi_BLE_SDK/GD32VW55x_RELEASE_V1.0.2/MSDK/plf/GD32VW55x_standard_peripheral/Source\gd32vw55x_efuse.c ****     } else {
 546              		.loc 1 134 20 is_stmt 0
 547 0030 B7970010 		li	a5,268472320
 548 0034 938727A0 		addi	a5,a5,-1534
 549 0038 AA97     		add	a5,a0,a5
 134:C:/Users/stapi/OneDrive/Desktop/GD32VW553/V1_MQTT_OK/GD32VW55X_Wifi_BLE_SDK/GD32VW55x_RELEASE_V1.0.2/MSDK/plf/GD32VW55x_standard_peripheral/Source\gd32vw55x_efuse.c ****     } else {
 550              		.loc 1 134 18
 551 003a 8A07     		slli	a5,a5,2
 552              	.LVL50:
 553              	.L37:
 112:C:/Users/stapi/OneDrive/Desktop/GD32VW553/V1_MQTT_OK/GD32VW55X_Wifi_BLE_SDK/GD32VW55x_RELEASE_V1.0.2/MSDK/plf/GD32VW55x_standard_peripheral/Source\gd32vw55x_efuse.c ****     uint32_t i = 0U;
 554              		.loc 1 112 1
 555 003c 17030000 		call	t0,__riscv_save_1
 555      E7020300 
 556              		.cfi_offset 8, -8
 557              		.cfi_offset 1, -4
 558              		.cfi_def_cfa_offset 16
 145:C:/Users/stapi/OneDrive/Desktop/GD32VW553/V1_MQTT_OK/GD32VW55X_Wifi_BLE_SDK/GD32VW55x_RELEASE_V1.0.2/MSDK/plf/GD32VW55x_standard_peripheral/Source\gd32vw55x_efuse.c ****     /* EFUSE write operation */
 559              		.loc 1 145 5 is_stmt 1
 145:C:/Users/stapi/OneDrive/Desktop/GD32VW553/V1_MQTT_OK/GD32VW55X_Wifi_BLE_SDK/GD32VW55x_RELEASE_V1.0.2/MSDK/plf/GD32VW55x_standard_peripheral/Source\gd32vw55x_efuse.c ****     /* EFUSE write operation */
 560              		.loc 1 145 14 is_stmt 0
 561 0044 37480240 		li	a6,1073889280
 562 0048 8326C888 		lw	a3,-1908(a6)
 149:C:/Users/stapi/OneDrive/Desktop/GD32VW553/V1_MQTT_OK/GD32VW55X_Wifi_BLE_SDK/GD32VW55x_RELEASE_V1.0.2/MSDK/plf/GD32VW55x_standard_peripheral/Source\gd32vw55x_efuse.c ****     /* write EFUSE */
 563              		.loc 1 149 35
 564 004c A205     		slli	a1,a1,8
 565              	.LVL51:
 149:C:/Users/stapi/OneDrive/Desktop/GD32VW553/V1_MQTT_OK/GD32VW55X_Wifi_BLE_SDK/GD32VW55x_RELEASE_V1.0.2/MSDK/plf/GD32VW55x_standard_peripheral/Source\gd32vw55x_efuse.c ****     /* write EFUSE */
 566              		.loc 1 149 42
 567 004e C98D     		or	a1,a1,a0
 145:C:/Users/stapi/OneDrive/Desktop/GD32VW553/V1_MQTT_OK/GD32VW55X_Wifi_BLE_SDK/GD32VW55x_RELEASE_V1.0.2/MSDK/plf/GD32VW55x_standard_peripheral/Source\gd32vw55x_efuse.c ****     /* EFUSE write operation */
 568              		.loc 1 145 14
 569 0050 93963629 		bseti	a3,a3,19
 570 0054 2326D888 		sw	a3,-1908(a6)
 147:C:/Users/stapi/OneDrive/Desktop/GD32VW553/V1_MQTT_OK/GD32VW55X_Wifi_BLE_SDK/GD32VW55x_RELEASE_V1.0.2/MSDK/plf/GD32VW55x_standard_peripheral/Source\gd32vw55x_efuse.c ****     /* write EFUSE address and size */
 571              		.loc 1 147 5 is_stmt 1
 147:C:/Users/stapi/OneDrive/Desktop/GD32VW553/V1_MQTT_OK/GD32VW55X_Wifi_BLE_SDK/GD32VW55x_RELEASE_V1.0.2/MSDK/plf/GD32VW55x_standard_peripheral/Source\gd32vw55x_efuse.c ****     /* write EFUSE address and size */
 572              		.loc 1 147 14 is_stmt 0
 573 0058 B7360240 		li	a3,1073885184
 574 005c 03A80680 		lw	a6,-2048(a3)
 575 0060 13682800 		ori	a6,a6,2
 576 0064 23A00681 		sw	a6,-2048(a3)
 149:C:/Users/stapi/OneDrive/Desktop/GD32VW553/V1_MQTT_OK/GD32VW55X_Wifi_BLE_SDK/GD32VW55x_RELEASE_V1.0.2/MSDK/plf/GD32VW55x_standard_peripheral/Source\gd32vw55x_efuse.c ****     /* write EFUSE */
 577              		.loc 1 149 5 is_stmt 1
 149:C:/Users/stapi/OneDrive/Desktop/GD32VW553/V1_MQTT_OK/GD32VW55X_Wifi_BLE_SDK/GD32VW55x_RELEASE_V1.0.2/MSDK/plf/GD32VW55x_standard_peripheral/Source\gd32vw55x_efuse.c ****     /* write EFUSE */
 578              		.loc 1 149 16 is_stmt 0
 579 0068 23A2B680 		sw	a1,-2044(a3)
 151:C:/Users/stapi/OneDrive/Desktop/GD32VW553/V1_MQTT_OK/GD32VW55X_Wifi_BLE_SDK/GD32VW55x_RELEASE_V1.0.2/MSDK/plf/GD32VW55x_standard_peripheral/Source\gd32vw55x_efuse.c ****         REG32(reg_addr + (4U * i)) = buf[i];
 580              		.loc 1 151 5 is_stmt 1
 581 006c 93162700 		slli	a3,a4,2
 582              	.LVL52:
 151:C:/Users/stapi/OneDrive/Desktop/GD32VW553/V1_MQTT_OK/GD32VW55X_Wifi_BLE_SDK/GD32VW55x_RELEASE_V1.0.2/MSDK/plf/GD32VW55x_standard_peripheral/Source\gd32vw55x_efuse.c ****         REG32(reg_addr + (4U * i)) = buf[i];
 583              		.loc 1 151 17
 149:C:/Users/stapi/OneDrive/Desktop/GD32VW553/V1_MQTT_OK/GD32VW55X_Wifi_BLE_SDK/GD32VW55x_RELEASE_V1.0.2/MSDK/plf/GD32VW55x_standard_peripheral/Source\gd32vw55x_efuse.c ****     /* write EFUSE */
 584              		.loc 1 149 16 is_stmt 0
 585 0070 0147     		li	a4,0
 586              	.LVL53:
 587              	.L38:
 152:C:/Users/stapi/OneDrive/Desktop/GD32VW553/V1_MQTT_OK/GD32VW55X_Wifi_BLE_SDK/GD32VW55x_RELEASE_V1.0.2/MSDK/plf/GD32VW55x_standard_peripheral/Source\gd32vw55x_efuse.c ****     }
 588              		.loc 1 152 9 is_stmt 1 discriminator 3
 152:C:/Users/stapi/OneDrive/Desktop/GD32VW553/V1_MQTT_OK/GD32VW55X_Wifi_BLE_SDK/GD32VW55x_RELEASE_V1.0.2/MSDK/plf/GD32VW55x_standard_peripheral/Source\gd32vw55x_efuse.c ****     }
 589              		.loc 1 152 41 is_stmt 0 discriminator 3
 590 0072 3305E600 		add	a0,a2,a4
 591 0076 0841     		lw	a0,0(a0)
 592 0078 B305F700 		add	a1,a4,a5
 593 007c 1107     		addi	a4,a4,4
 152:C:/Users/stapi/OneDrive/Desktop/GD32VW553/V1_MQTT_OK/GD32VW55X_Wifi_BLE_SDK/GD32VW55x_RELEASE_V1.0.2/MSDK/plf/GD32VW55x_standard_peripheral/Source\gd32vw55x_efuse.c ****     }
 594              		.loc 1 152 36 discriminator 3
 595 007e 88C1     		sw	a0,0(a1)
 151:C:/Users/stapi/OneDrive/Desktop/GD32VW553/V1_MQTT_OK/GD32VW55X_Wifi_BLE_SDK/GD32VW55x_RELEASE_V1.0.2/MSDK/plf/GD32VW55x_standard_peripheral/Source\gd32vw55x_efuse.c ****         REG32(reg_addr + (4U * i)) = buf[i];
 596              		.loc 1 151 29 is_stmt 1 discriminator 3
 151:C:/Users/stapi/OneDrive/Desktop/GD32VW553/V1_MQTT_OK/GD32VW55X_Wifi_BLE_SDK/GD32VW55x_RELEASE_V1.0.2/MSDK/plf/GD32VW55x_standard_peripheral/Source\gd32vw55x_efuse.c ****         REG32(reg_addr + (4U * i)) = buf[i];
 597              		.loc 1 151 17 discriminator 3
 151:C:/Users/stapi/OneDrive/Desktop/GD32VW553/V1_MQTT_OK/GD32VW55X_Wifi_BLE_SDK/GD32VW55x_RELEASE_V1.0.2/MSDK/plf/GD32VW55x_standard_peripheral/Source\gd32vw55x_efuse.c ****         REG32(reg_addr + (4U * i)) = buf[i];
 598              		.loc 1 151 5 is_stmt 0 discriminator 3
 599 0080 E399E6FE 		bne	a3,a4,.L38
 155:C:/Users/stapi/OneDrive/Desktop/GD32VW553/V1_MQTT_OK/GD32VW55X_Wifi_BLE_SDK/GD32VW55x_RELEASE_V1.0.2/MSDK/plf/GD32VW55x_standard_peripheral/Source\gd32vw55x_efuse.c **** 
 600              		.loc 1 155 5 is_stmt 1
 155:C:/Users/stapi/OneDrive/Desktop/GD32VW553/V1_MQTT_OK/GD32VW55X_Wifi_BLE_SDK/GD32VW55x_RELEASE_V1.0.2/MSDK/plf/GD32VW55x_standard_peripheral/Source\gd32vw55x_efuse.c **** 
 601              		.loc 1 155 14 is_stmt 0
 602 0084 37370240 		li	a4,1073885184
 603 0088 83270780 		lw	a5,-2048(a4)
 604              	.LVL54:
 114:C:/Users/stapi/OneDrive/Desktop/GD32VW553/V1_MQTT_OK/GD32VW55X_Wifi_BLE_SDK/GD32VW55x_RELEASE_V1.0.2/MSDK/plf/GD32VW55x_standard_peripheral/Source\gd32vw55x_efuse.c ****     uint32_t reg_addr = 0U;
 605              		.loc 1 114 14
 606 008c 4164     		li	s0,65536
 607 008e 7D14     		addi	s0,s0,-1
 155:C:/Users/stapi/OneDrive/Desktop/GD32VW553/V1_MQTT_OK/GD32VW55X_Wifi_BLE_SDK/GD32VW55x_RELEASE_V1.0.2/MSDK/plf/GD32VW55x_standard_peripheral/Source\gd32vw55x_efuse.c **** 
 608              		.loc 1 155 14
 609 0090 93E71700 		ori	a5,a5,1
 610 0094 2320F780 		sw	a5,-2048(a4)
 611              	.LVL55:
 612              	.L40:
 158:C:/Users/stapi/OneDrive/Desktop/GD32VW553/V1_MQTT_OK/GD32VW55X_Wifi_BLE_SDK/GD32VW55x_RELEASE_V1.0.2/MSDK/plf/GD32VW55x_standard_peripheral/Source\gd32vw55x_efuse.c ****         timeout--;
 613              		.loc 1 158 5 is_stmt 1 discriminator 2
 159:C:/Users/stapi/OneDrive/Desktop/GD32VW553/V1_MQTT_OK/GD32VW55X_Wifi_BLE_SDK/GD32VW55x_RELEASE_V1.0.2/MSDK/plf/GD32VW55x_standard_peripheral/Source\gd32vw55x_efuse.c ****     } while((RESET == efuse_flag_get(EFUSE_PGIF)) && (0x00U != timeout));
 614              		.loc 1 159 9 discriminator 2
 160:C:/Users/stapi/OneDrive/Desktop/GD32VW553/V1_MQTT_OK/GD32VW55X_Wifi_BLE_SDK/GD32VW55x_RELEASE_V1.0.2/MSDK/plf/GD32VW55x_standard_peripheral/Source\gd32vw55x_efuse.c ****     if(0x00U == timeout) {
 615              		.loc 1 160 23 is_stmt 0 discriminator 2
 616 0098 4165     		li	a0,65536
 159:C:/Users/stapi/OneDrive/Desktop/GD32VW553/V1_MQTT_OK/GD32VW55X_Wifi_BLE_SDK/GD32VW55x_RELEASE_V1.0.2/MSDK/plf/GD32VW55x_standard_peripheral/Source\gd32vw55x_efuse.c ****     } while((RESET == efuse_flag_get(EFUSE_PGIF)) && (0x00U != timeout));
 617              		.loc 1 159 16 discriminator 2
 618 009a 7D14     		addi	s0,s0,-1
 619              	.LVL56:
 160:C:/Users/stapi/OneDrive/Desktop/GD32VW553/V1_MQTT_OK/GD32VW55X_Wifi_BLE_SDK/GD32VW55x_RELEASE_V1.0.2/MSDK/plf/GD32VW55x_standard_peripheral/Source\gd32vw55x_efuse.c ****     if(0x00U == timeout) {
 620              		.loc 1 160 12 is_stmt 1 discriminator 2
 160:C:/Users/stapi/OneDrive/Desktop/GD32VW553/V1_MQTT_OK/GD32VW55X_Wifi_BLE_SDK/GD32VW55x_RELEASE_V1.0.2/MSDK/plf/GD32VW55x_standard_peripheral/Source\gd32vw55x_efuse.c ****     if(0x00U == timeout) {
 621              		.loc 1 160 23 is_stmt 0 discriminator 2
 622 009c 97000000 		call	efuse_flag_get
 622      E7800000 
 623              	.LVL57:
 160:C:/Users/stapi/OneDrive/Desktop/GD32VW553/V1_MQTT_OK/GD32VW55X_Wifi_BLE_SDK/GD32VW55x_RELEASE_V1.0.2/MSDK/plf/GD32VW55x_standard_peripheral/Source\gd32vw55x_efuse.c ****     if(0x00U == timeout) {
 624              		.loc 1 160 5 discriminator 2
 625 00a4 05E1     		bne	a0,zero,.L39
 160:C:/Users/stapi/OneDrive/Desktop/GD32VW553/V1_MQTT_OK/GD32VW55X_Wifi_BLE_SDK/GD32VW55x_RELEASE_V1.0.2/MSDK/plf/GD32VW55x_standard_peripheral/Source\gd32vw55x_efuse.c ****     if(0x00U == timeout) {
 626              		.loc 1 160 51 discriminator 1
 627 00a6 6DF8     		bne	s0,zero,.L40
 628              	.L35:
 124:C:/Users/stapi/OneDrive/Desktop/GD32VW553/V1_MQTT_OK/GD32VW55X_Wifi_BLE_SDK/GD32VW55x_RELEASE_V1.0.2/MSDK/plf/GD32VW55x_standard_peripheral/Source\gd32vw55x_efuse.c ****     }
 629              		.loc 1 124 16
 630 00a8 0145     		li	a0,0
 631              	.L31:
 173:C:/Users/stapi/OneDrive/Desktop/GD32VW553/V1_MQTT_OK/GD32VW55X_Wifi_BLE_SDK/GD32VW55x_RELEASE_V1.0.2/MSDK/plf/GD32VW55x_standard_peripheral/Source\gd32vw55x_efuse.c **** 
 632              		.loc 1 173 1
 633 00aa 17030000 		tail	__riscv_restore_1
 633      67000300 
 634              		.cfi_restore 8
 635              		.cfi_restore 1
 636              		.cfi_def_cfa_offset 0
 637              	.LVL58:
 638              	.L36:
 137:C:/Users/stapi/OneDrive/Desktop/GD32VW553/V1_MQTT_OK/GD32VW55X_Wifi_BLE_SDK/GD32VW55x_RELEASE_V1.0.2/MSDK/plf/GD32VW55x_standard_peripheral/Source\gd32vw55x_efuse.c ****             return ERROR;
 639              		.loc 1 137 9 is_stmt 1
 137:C:/Users/stapi/OneDrive/Desktop/GD32VW553/V1_MQTT_OK/GD32VW55X_Wifi_BLE_SDK/GD32VW55x_RELEASE_V1.0.2/MSDK/plf/GD32VW55x_standard_peripheral/Source\gd32vw55x_efuse.c ****             return ERROR;
 640              		.loc 1 137 20 is_stmt 0
 641 00b2 93773500 		andi	a5,a0,3
 137:C:/Users/stapi/OneDrive/Desktop/GD32VW553/V1_MQTT_OK/GD32VW55X_Wifi_BLE_SDK/GD32VW55x_RELEASE_V1.0.2/MSDK/plf/GD32VW55x_standard_peripheral/Source\gd32vw55x_efuse.c ****             return ERROR;
 642              		.loc 1 137 11
 643 00b6 B9FF     		bne	a5,zero,.L49
 140:C:/Users/stapi/OneDrive/Desktop/GD32VW553/V1_MQTT_OK/GD32VW55X_Wifi_BLE_SDK/GD32VW55x_RELEASE_V1.0.2/MSDK/plf/GD32VW55x_standard_peripheral/Source\gd32vw55x_efuse.c ****         }
 644              		.loc 1 140 13 is_stmt 1
 140:C:/Users/stapi/OneDrive/Desktop/GD32VW553/V1_MQTT_OK/GD32VW55X_Wifi_BLE_SDK/GD32VW55x_RELEASE_V1.0.2/MSDK/plf/GD32VW55x_standard_peripheral/Source\gd32vw55x_efuse.c ****         }
 645              		.loc 1 140 22 is_stmt 0
 646 00b8 B7370240 		li	a5,1073885184
 647 00bc 93874781 		addi	a5,a5,-2028
 648 00c0 AA97     		add	a5,a0,a5
 649              	.LVL59:
 650 00c2 ADBF     		j	.L37
 651              	.LVL60:
 652              	.L39:
 653              		.cfi_def_cfa_offset 16
 654              		.cfi_offset 1, -4
 655              		.cfi_offset 8, -8
 161:C:/Users/stapi/OneDrive/Desktop/GD32VW553/V1_MQTT_OK/GD32VW55X_Wifi_BLE_SDK/GD32VW55x_RELEASE_V1.0.2/MSDK/plf/GD32VW55x_standard_peripheral/Source\gd32vw55x_efuse.c ****         return ERROR;
 656              		.loc 1 161 5 is_stmt 1
 161:C:/Users/stapi/OneDrive/Desktop/GD32VW553/V1_MQTT_OK/GD32VW55X_Wifi_BLE_SDK/GD32VW55x_RELEASE_V1.0.2/MSDK/plf/GD32VW55x_standard_peripheral/Source\gd32vw55x_efuse.c ****         return ERROR;
 657              		.loc 1 161 7 is_stmt 0
 658 00c4 75D0     		beq	s0,zero,.L35
 166:C:/Users/stapi/OneDrive/Desktop/GD32VW553/V1_MQTT_OK/GD32VW55X_Wifi_BLE_SDK/GD32VW55x_RELEASE_V1.0.2/MSDK/plf/GD32VW55x_standard_peripheral/Source\gd32vw55x_efuse.c ****     /* clear EFUSE write completed flag*/
 659              		.loc 1 166 5 is_stmt 1
 166:C:/Users/stapi/OneDrive/Desktop/GD32VW553/V1_MQTT_OK/GD32VW55X_Wifi_BLE_SDK/GD32VW55x_RELEASE_V1.0.2/MSDK/plf/GD32VW55x_standard_peripheral/Source\gd32vw55x_efuse.c ****     /* clear EFUSE write completed flag*/
 660              		.loc 1 166 14 is_stmt 0
 661 00c6 B7370240 		li	a5,1073885184
 662 00ca 93870780 		addi	a5,a5,-2048
 663 00ce 9843     		lw	a4,0(a5)
 172:C:/Users/stapi/OneDrive/Desktop/GD32VW553/V1_MQTT_OK/GD32VW55X_Wifi_BLE_SDK/GD32VW55x_RELEASE_V1.0.2/MSDK/plf/GD32VW55x_standard_peripheral/Source\gd32vw55x_efuse.c **** }
 664              		.loc 1 172 12
 665 00d0 0545     		li	a0,1
 166:C:/Users/stapi/OneDrive/Desktop/GD32VW553/V1_MQTT_OK/GD32VW55X_Wifi_BLE_SDK/GD32VW55x_RELEASE_V1.0.2/MSDK/plf/GD32VW55x_standard_peripheral/Source\gd32vw55x_efuse.c ****     /* clear EFUSE write completed flag*/
 666              		.loc 1 166 14
 667 00d2 759B     		andi	a4,a4,-3
 668 00d4 98C3     		sw	a4,0(a5)
 168:C:/Users/stapi/OneDrive/Desktop/GD32VW553/V1_MQTT_OK/GD32VW55X_Wifi_BLE_SDK/GD32VW55x_RELEASE_V1.0.2/MSDK/plf/GD32VW55x_standard_peripheral/Source\gd32vw55x_efuse.c ****     /* EFUSE power off */
 669              		.loc 1 168 5 is_stmt 1
 168:C:/Users/stapi/OneDrive/Desktop/GD32VW553/V1_MQTT_OK/GD32VW55X_Wifi_BLE_SDK/GD32VW55x_RELEASE_V1.0.2/MSDK/plf/GD32VW55x_standard_peripheral/Source\gd32vw55x_efuse.c ****     /* EFUSE power off */
 670              		.loc 1 168 14 is_stmt 0
 671 00d6 9843     		lw	a4,0(a5)
 672 00d8 13178729 		bseti	a4,a4,24
 673 00dc 98C3     		sw	a4,0(a5)
 170:C:/Users/stapi/OneDrive/Desktop/GD32VW553/V1_MQTT_OK/GD32VW55X_Wifi_BLE_SDK/GD32VW55x_RELEASE_V1.0.2/MSDK/plf/GD32VW55x_standard_peripheral/Source\gd32vw55x_efuse.c **** 
 674              		.loc 1 170 5 is_stmt 1
 170:C:/Users/stapi/OneDrive/Desktop/GD32VW553/V1_MQTT_OK/GD32VW55X_Wifi_BLE_SDK/GD32VW55x_RELEASE_V1.0.2/MSDK/plf/GD32VW55x_standard_peripheral/Source\gd32vw55x_efuse.c **** 
 675              		.loc 1 170 14 is_stmt 0
 676 00de 37470240 		li	a4,1073889280
 677 00e2 8327C788 		lw	a5,-1908(a4)
 678 00e6 93973749 		bclri	a5,a5,19
 679 00ea 2326F788 		sw	a5,-1908(a4)
 172:C:/Users/stapi/OneDrive/Desktop/GD32VW553/V1_MQTT_OK/GD32VW55X_Wifi_BLE_SDK/GD32VW55x_RELEASE_V1.0.2/MSDK/plf/GD32VW55x_standard_peripheral/Source\gd32vw55x_efuse.c **** }
 680              		.loc 1 172 5 is_stmt 1
 172:C:/Users/stapi/OneDrive/Desktop/GD32VW553/V1_MQTT_OK/GD32VW55X_Wifi_BLE_SDK/GD32VW55x_RELEASE_V1.0.2/MSDK/plf/GD32VW55x_standard_peripheral/Source\gd32vw55x_efuse.c **** }
 681              		.loc 1 172 12 is_stmt 0
 682 00ee 75BF     		j	.L31
 683              		.cfi_endproc
 684              	.LFE366:
 686              		.section	.text.efuse_boot_config,"ax",@progbits
 687              		.align	1
 688              		.globl	efuse_boot_config
 690              	efuse_boot_config:
 691              	.LFB367:
 184:C:/Users/stapi/OneDrive/Desktop/GD32VW553/V1_MQTT_OK/GD32VW55X_Wifi_BLE_SDK/GD32VW55x_RELEASE_V1.0.2/MSDK/plf/GD32VW55x_standard_peripheral/Source\gd32vw55x_efuse.c ****     if(size != 1U) {
 692              		.loc 1 184 1 is_stmt 1
 693              		.cfi_startproc
 694              	.LVL61:
 185:C:/Users/stapi/OneDrive/Desktop/GD32VW553/V1_MQTT_OK/GD32VW55X_Wifi_BLE_SDK/GD32VW55x_RELEASE_V1.0.2/MSDK/plf/GD32VW55x_standard_peripheral/Source\gd32vw55x_efuse.c ****         return ERROR;
 695              		.loc 1 185 5
 185:C:/Users/stapi/OneDrive/Desktop/GD32VW553/V1_MQTT_OK/GD32VW55X_Wifi_BLE_SDK/GD32VW55x_RELEASE_V1.0.2/MSDK/plf/GD32VW55x_standard_peripheral/Source\gd32vw55x_efuse.c ****         return ERROR;
 696              		.loc 1 185 7 is_stmt 0
 697 0000 8547     		li	a5,1
 698 0002 6319F500 		bne	a0,a5,.L53
 699 0006 2E86     		mv	a2,a1
 188:C:/Users/stapi/OneDrive/Desktop/GD32VW553/V1_MQTT_OK/GD32VW55X_Wifi_BLE_SDK/GD32VW55x_RELEASE_V1.0.2/MSDK/plf/GD32VW55x_standard_peripheral/Source\gd32vw55x_efuse.c **** }
 700              		.loc 1 188 5 is_stmt 1
 188:C:/Users/stapi/OneDrive/Desktop/GD32VW553/V1_MQTT_OK/GD32VW55X_Wifi_BLE_SDK/GD32VW55x_RELEASE_V1.0.2/MSDK/plf/GD32VW55x_standard_peripheral/Source\gd32vw55x_efuse.c **** }
 701              		.loc 1 188 12 is_stmt 0
 702 0008 0145     		li	a0,0
 703              	.LVL62:
 704 000a 8545     		li	a1,1
 705              	.LVL63:
 706 000c 17030000 		tail	efuse_write
 706      67000300 
 707              	.LVL64:
 708              	.L53:
 186:C:/Users/stapi/OneDrive/Desktop/GD32VW553/V1_MQTT_OK/GD32VW55X_Wifi_BLE_SDK/GD32VW55x_RELEASE_V1.0.2/MSDK/plf/GD32VW55x_standard_peripheral/Source\gd32vw55x_efuse.c ****     }
 709              		.loc 1 186 16
 710 0014 0145     		li	a0,0
 711              	.LVL65:
 189:C:/Users/stapi/OneDrive/Desktop/GD32VW553/V1_MQTT_OK/GD32VW55X_Wifi_BLE_SDK/GD32VW55x_RELEASE_V1.0.2/MSDK/plf/GD32VW55x_standard_peripheral/Source\gd32vw55x_efuse.c **** 
 712              		.loc 1 189 1
 713 0016 8280     		ret
 714              		.cfi_endproc
 715              	.LFE367:
 717              		.section	.text.efuse_control1_config,"ax",@progbits
 718              		.align	1
 719              		.globl	efuse_control1_config
 721              	efuse_control1_config:
 722              	.LFB368:
 200:C:/Users/stapi/OneDrive/Desktop/GD32VW553/V1_MQTT_OK/GD32VW55X_Wifi_BLE_SDK/GD32VW55x_RELEASE_V1.0.2/MSDK/plf/GD32VW55x_standard_peripheral/Source\gd32vw55x_efuse.c ****     if(size != 1U) {
 723              		.loc 1 200 1 is_stmt 1
 724              		.cfi_startproc
 725              	.LVL66:
 201:C:/Users/stapi/OneDrive/Desktop/GD32VW553/V1_MQTT_OK/GD32VW55X_Wifi_BLE_SDK/GD32VW55x_RELEASE_V1.0.2/MSDK/plf/GD32VW55x_standard_peripheral/Source\gd32vw55x_efuse.c ****         return ERROR;
 726              		.loc 1 201 5
 201:C:/Users/stapi/OneDrive/Desktop/GD32VW553/V1_MQTT_OK/GD32VW55X_Wifi_BLE_SDK/GD32VW55x_RELEASE_V1.0.2/MSDK/plf/GD32VW55x_standard_peripheral/Source\gd32vw55x_efuse.c ****         return ERROR;
 727              		.loc 1 201 7 is_stmt 0
 728 0000 8547     		li	a5,1
 729 0002 6318F500 		bne	a0,a5,.L60
 730 0006 2E86     		mv	a2,a1
 204:C:/Users/stapi/OneDrive/Desktop/GD32VW553/V1_MQTT_OK/GD32VW55X_Wifi_BLE_SDK/GD32VW55x_RELEASE_V1.0.2/MSDK/plf/GD32VW55x_standard_peripheral/Source\gd32vw55x_efuse.c **** }
 731              		.loc 1 204 5 is_stmt 1
 204:C:/Users/stapi/OneDrive/Desktop/GD32VW553/V1_MQTT_OK/GD32VW55X_Wifi_BLE_SDK/GD32VW55x_RELEASE_V1.0.2/MSDK/plf/GD32VW55x_standard_peripheral/Source\gd32vw55x_efuse.c **** }
 732              		.loc 1 204 12 is_stmt 0
 733 0008 8545     		li	a1,1
 734              	.LVL67:
 735 000a 17030000 		tail	efuse_write
 735      67000300 
 736              	.LVL68:
 737              	.L60:
 202:C:/Users/stapi/OneDrive/Desktop/GD32VW553/V1_MQTT_OK/GD32VW55X_Wifi_BLE_SDK/GD32VW55x_RELEASE_V1.0.2/MSDK/plf/GD32VW55x_standard_peripheral/Source\gd32vw55x_efuse.c ****     }
 738              		.loc 1 202 16
 739 0012 0145     		li	a0,0
 740              	.LVL69:
 205:C:/Users/stapi/OneDrive/Desktop/GD32VW553/V1_MQTT_OK/GD32VW55X_Wifi_BLE_SDK/GD32VW55x_RELEASE_V1.0.2/MSDK/plf/GD32VW55x_standard_peripheral/Source\gd32vw55x_efuse.c **** 
 741              		.loc 1 205 1
 742 0014 8280     		ret
 743              		.cfi_endproc
 744              	.LFE368:
 746              		.section	.text.efuse_fp_config,"ax",@progbits
 747              		.align	1
 748              		.globl	efuse_fp_config
 750              	efuse_fp_config:
 751              	.LFB369:
 216:C:/Users/stapi/OneDrive/Desktop/GD32VW553/V1_MQTT_OK/GD32VW55X_Wifi_BLE_SDK/GD32VW55x_RELEASE_V1.0.2/MSDK/plf/GD32VW55x_standard_peripheral/Source\gd32vw55x_efuse.c ****     if(size != 1U) {
 752              		.loc 1 216 1 is_stmt 1
 753              		.cfi_startproc
 754              	.LVL70:
 217:C:/Users/stapi/OneDrive/Desktop/GD32VW553/V1_MQTT_OK/GD32VW55X_Wifi_BLE_SDK/GD32VW55x_RELEASE_V1.0.2/MSDK/plf/GD32VW55x_standard_peripheral/Source\gd32vw55x_efuse.c ****         return ERROR;
 755              		.loc 1 217 5
 217:C:/Users/stapi/OneDrive/Desktop/GD32VW553/V1_MQTT_OK/GD32VW55X_Wifi_BLE_SDK/GD32VW55x_RELEASE_V1.0.2/MSDK/plf/GD32VW55x_standard_peripheral/Source\gd32vw55x_efuse.c ****         return ERROR;
 756              		.loc 1 217 7 is_stmt 0
 757 0000 8547     		li	a5,1
 758 0002 6319F500 		bne	a0,a5,.L67
 759 0006 2E86     		mv	a2,a1
 220:C:/Users/stapi/OneDrive/Desktop/GD32VW553/V1_MQTT_OK/GD32VW55X_Wifi_BLE_SDK/GD32VW55x_RELEASE_V1.0.2/MSDK/plf/GD32VW55x_standard_peripheral/Source\gd32vw55x_efuse.c **** }
 760              		.loc 1 220 5 is_stmt 1
 220:C:/Users/stapi/OneDrive/Desktop/GD32VW553/V1_MQTT_OK/GD32VW55X_Wifi_BLE_SDK/GD32VW55x_RELEASE_V1.0.2/MSDK/plf/GD32VW55x_standard_peripheral/Source\gd32vw55x_efuse.c **** }
 761              		.loc 1 220 12 is_stmt 0
 762 0008 0945     		li	a0,2
 763              	.LVL71:
 764 000a 8545     		li	a1,1
 765              	.LVL72:
 766 000c 17030000 		tail	efuse_write
 766      67000300 
 767              	.LVL73:
 768              	.L67:
 218:C:/Users/stapi/OneDrive/Desktop/GD32VW553/V1_MQTT_OK/GD32VW55X_Wifi_BLE_SDK/GD32VW55x_RELEASE_V1.0.2/MSDK/plf/GD32VW55x_standard_peripheral/Source\gd32vw55x_efuse.c ****     }
 769              		.loc 1 218 16
 770 0014 0145     		li	a0,0
 771              	.LVL74:
 221:C:/Users/stapi/OneDrive/Desktop/GD32VW553/V1_MQTT_OK/GD32VW55X_Wifi_BLE_SDK/GD32VW55x_RELEASE_V1.0.2/MSDK/plf/GD32VW55x_standard_peripheral/Source\gd32vw55x_efuse.c **** 
 772              		.loc 1 221 1
 773 0016 8280     		ret
 774              		.cfi_endproc
 775              	.LFE369:
 777              		.section	.text.efuse_user_control_config,"ax",@progbits
 778              		.align	1
 779              		.globl	efuse_user_control_config
 781              	efuse_user_control_config:
 782              	.LFB370:
 232:C:/Users/stapi/OneDrive/Desktop/GD32VW553/V1_MQTT_OK/GD32VW55X_Wifi_BLE_SDK/GD32VW55x_RELEASE_V1.0.2/MSDK/plf/GD32VW55x_standard_peripheral/Source\gd32vw55x_efuse.c ****     if(size != 1U) {
 783              		.loc 1 232 1 is_stmt 1
 784              		.cfi_startproc
 785              	.LVL75:
 233:C:/Users/stapi/OneDrive/Desktop/GD32VW553/V1_MQTT_OK/GD32VW55X_Wifi_BLE_SDK/GD32VW55x_RELEASE_V1.0.2/MSDK/plf/GD32VW55x_standard_peripheral/Source\gd32vw55x_efuse.c ****         return ERROR;
 786              		.loc 1 233 5
 233:C:/Users/stapi/OneDrive/Desktop/GD32VW553/V1_MQTT_OK/GD32VW55X_Wifi_BLE_SDK/GD32VW55x_RELEASE_V1.0.2/MSDK/plf/GD32VW55x_standard_peripheral/Source\gd32vw55x_efuse.c ****         return ERROR;
 787              		.loc 1 233 7 is_stmt 0
 788 0000 8547     		li	a5,1
 789 0002 6319F500 		bne	a0,a5,.L74
 790 0006 2E86     		mv	a2,a1
 236:C:/Users/stapi/OneDrive/Desktop/GD32VW553/V1_MQTT_OK/GD32VW55X_Wifi_BLE_SDK/GD32VW55x_RELEASE_V1.0.2/MSDK/plf/GD32VW55x_standard_peripheral/Source\gd32vw55x_efuse.c **** }
 791              		.loc 1 236 5 is_stmt 1
 236:C:/Users/stapi/OneDrive/Desktop/GD32VW553/V1_MQTT_OK/GD32VW55X_Wifi_BLE_SDK/GD32VW55x_RELEASE_V1.0.2/MSDK/plf/GD32VW55x_standard_peripheral/Source\gd32vw55x_efuse.c **** }
 792              		.loc 1 236 12 is_stmt 0
 793 0008 0D45     		li	a0,3
 794              	.LVL76:
 795 000a 8545     		li	a1,1
 796              	.LVL77:
 797 000c 17030000 		tail	efuse_write
 797      67000300 
 798              	.LVL78:
 799              	.L74:
 234:C:/Users/stapi/OneDrive/Desktop/GD32VW553/V1_MQTT_OK/GD32VW55X_Wifi_BLE_SDK/GD32VW55x_RELEASE_V1.0.2/MSDK/plf/GD32VW55x_standard_peripheral/Source\gd32vw55x_efuse.c ****     }
 800              		.loc 1 234 16
 801 0014 0145     		li	a0,0
 802              	.LVL79:
 237:C:/Users/stapi/OneDrive/Desktop/GD32VW553/V1_MQTT_OK/GD32VW55X_Wifi_BLE_SDK/GD32VW55x_RELEASE_V1.0.2/MSDK/plf/GD32VW55x_standard_peripheral/Source\gd32vw55x_efuse.c **** 
 803              		.loc 1 237 1
 804 0016 8280     		ret
 805              		.cfi_endproc
 806              	.LFE370:
 808              		.section	.text.efuse_res_write,"ax",@progbits
 809              		.align	1
 810              		.globl	efuse_res_write
 812              	efuse_res_write:
 813              	.LFB371:
 248:C:/Users/stapi/OneDrive/Desktop/GD32VW553/V1_MQTT_OK/GD32VW55X_Wifi_BLE_SDK/GD32VW55x_RELEASE_V1.0.2/MSDK/plf/GD32VW55x_standard_peripheral/Source\gd32vw55x_efuse.c ****     if(size != 12U) {
 814              		.loc 1 248 1 is_stmt 1
 815              		.cfi_startproc
 816              	.LVL80:
 249:C:/Users/stapi/OneDrive/Desktop/GD32VW553/V1_MQTT_OK/GD32VW55X_Wifi_BLE_SDK/GD32VW55x_RELEASE_V1.0.2/MSDK/plf/GD32VW55x_standard_peripheral/Source\gd32vw55x_efuse.c ****         return ERROR;
 817              		.loc 1 249 5
 249:C:/Users/stapi/OneDrive/Desktop/GD32VW553/V1_MQTT_OK/GD32VW55X_Wifi_BLE_SDK/GD32VW55x_RELEASE_V1.0.2/MSDK/plf/GD32VW55x_standard_peripheral/Source\gd32vw55x_efuse.c ****         return ERROR;
 818              		.loc 1 249 7 is_stmt 0
 819 0000 B147     		li	a5,12
 820 0002 6319F500 		bne	a0,a5,.L81
 821 0006 2E86     		mv	a2,a1
 252:C:/Users/stapi/OneDrive/Desktop/GD32VW553/V1_MQTT_OK/GD32VW55X_Wifi_BLE_SDK/GD32VW55x_RELEASE_V1.0.2/MSDK/plf/GD32VW55x_standard_peripheral/Source\gd32vw55x_efuse.c **** }
 822              		.loc 1 252 5 is_stmt 1
 252:C:/Users/stapi/OneDrive/Desktop/GD32VW553/V1_MQTT_OK/GD32VW55X_Wifi_BLE_SDK/GD32VW55x_RELEASE_V1.0.2/MSDK/plf/GD32VW55x_standard_peripheral/Source\gd32vw55x_efuse.c **** }
 823              		.loc 1 252 12 is_stmt 0
 824 0008 1145     		li	a0,4
 825              	.LVL81:
 826 000a B145     		li	a1,12
 827              	.LVL82:
 828 000c 17030000 		tail	efuse_write
 828      67000300 
 829              	.LVL83:
 830              	.L81:
 250:C:/Users/stapi/OneDrive/Desktop/GD32VW553/V1_MQTT_OK/GD32VW55X_Wifi_BLE_SDK/GD32VW55x_RELEASE_V1.0.2/MSDK/plf/GD32VW55x_standard_peripheral/Source\gd32vw55x_efuse.c ****     }
 831              		.loc 1 250 16
 832 0014 0145     		li	a0,0
 833              	.LVL84:
 253:C:/Users/stapi/OneDrive/Desktop/GD32VW553/V1_MQTT_OK/GD32VW55X_Wifi_BLE_SDK/GD32VW55x_RELEASE_V1.0.2/MSDK/plf/GD32VW55x_standard_peripheral/Source\gd32vw55x_efuse.c **** 
 834              		.loc 1 253 1
 835 0016 8280     		ret
 836              		.cfi_endproc
 837              	.LFE371:
 839              		.section	.text.efuse_aes_key_write,"ax",@progbits
 840              		.align	1
 841              		.globl	efuse_aes_key_write
 843              	efuse_aes_key_write:
 844              	.LFB372:
 264:C:/Users/stapi/OneDrive/Desktop/GD32VW553/V1_MQTT_OK/GD32VW55X_Wifi_BLE_SDK/GD32VW55x_RELEASE_V1.0.2/MSDK/plf/GD32VW55x_standard_peripheral/Source\gd32vw55x_efuse.c ****     if(size != 16U) {
 845              		.loc 1 264 1 is_stmt 1
 846              		.cfi_startproc
 847              	.LVL85:
 265:C:/Users/stapi/OneDrive/Desktop/GD32VW553/V1_MQTT_OK/GD32VW55X_Wifi_BLE_SDK/GD32VW55x_RELEASE_V1.0.2/MSDK/plf/GD32VW55x_standard_peripheral/Source\gd32vw55x_efuse.c ****         return ERROR;
 848              		.loc 1 265 5
 265:C:/Users/stapi/OneDrive/Desktop/GD32VW553/V1_MQTT_OK/GD32VW55X_Wifi_BLE_SDK/GD32VW55x_RELEASE_V1.0.2/MSDK/plf/GD32VW55x_standard_peripheral/Source\gd32vw55x_efuse.c ****         return ERROR;
 849              		.loc 1 265 7 is_stmt 0
 850 0000 C147     		li	a5,16
 851 0002 6318F500 		bne	a0,a5,.L88
 852 0006 2E86     		mv	a2,a1
 268:C:/Users/stapi/OneDrive/Desktop/GD32VW553/V1_MQTT_OK/GD32VW55X_Wifi_BLE_SDK/GD32VW55x_RELEASE_V1.0.2/MSDK/plf/GD32VW55x_standard_peripheral/Source\gd32vw55x_efuse.c **** }
 853              		.loc 1 268 5 is_stmt 1
 268:C:/Users/stapi/OneDrive/Desktop/GD32VW553/V1_MQTT_OK/GD32VW55X_Wifi_BLE_SDK/GD32VW55x_RELEASE_V1.0.2/MSDK/plf/GD32VW55x_standard_peripheral/Source\gd32vw55x_efuse.c **** }
 854              		.loc 1 268 12 is_stmt 0
 855 0008 C145     		li	a1,16
 856              	.LVL86:
 857 000a 17030000 		tail	efuse_write
 857      67000300 
 858              	.LVL87:
 859              	.L88:
 266:C:/Users/stapi/OneDrive/Desktop/GD32VW553/V1_MQTT_OK/GD32VW55X_Wifi_BLE_SDK/GD32VW55x_RELEASE_V1.0.2/MSDK/plf/GD32VW55x_standard_peripheral/Source\gd32vw55x_efuse.c ****     }
 860              		.loc 1 266 16
 861 0012 0145     		li	a0,0
 862              	.LVL88:
 269:C:/Users/stapi/OneDrive/Desktop/GD32VW553/V1_MQTT_OK/GD32VW55X_Wifi_BLE_SDK/GD32VW55x_RELEASE_V1.0.2/MSDK/plf/GD32VW55x_standard_peripheral/Source\gd32vw55x_efuse.c **** 
 863              		.loc 1 269 1
 864 0014 8280     		ret
 865              		.cfi_endproc
 866              	.LFE372:
 868              		.section	.text.efuse_rotpk_key_write,"ax",@progbits
 869              		.align	1
 870              		.globl	efuse_rotpk_key_write
 872              	efuse_rotpk_key_write:
 873              	.LFB373:
 280:C:/Users/stapi/OneDrive/Desktop/GD32VW553/V1_MQTT_OK/GD32VW55X_Wifi_BLE_SDK/GD32VW55x_RELEASE_V1.0.2/MSDK/plf/GD32VW55x_standard_peripheral/Source\gd32vw55x_efuse.c ****     if(size != 32U) {
 874              		.loc 1 280 1 is_stmt 1
 875              		.cfi_startproc
 876              	.LVL89:
 281:C:/Users/stapi/OneDrive/Desktop/GD32VW553/V1_MQTT_OK/GD32VW55X_Wifi_BLE_SDK/GD32VW55x_RELEASE_V1.0.2/MSDK/plf/GD32VW55x_standard_peripheral/Source\gd32vw55x_efuse.c ****         return ERROR;
 877              		.loc 1 281 5
 281:C:/Users/stapi/OneDrive/Desktop/GD32VW553/V1_MQTT_OK/GD32VW55X_Wifi_BLE_SDK/GD32VW55x_RELEASE_V1.0.2/MSDK/plf/GD32VW55x_standard_peripheral/Source\gd32vw55x_efuse.c ****         return ERROR;
 878              		.loc 1 281 7 is_stmt 0
 879 0000 93070002 		li	a5,32
 880 0004 6319F500 		bne	a0,a5,.L95
 881 0008 2E86     		mv	a2,a1
 284:C:/Users/stapi/OneDrive/Desktop/GD32VW553/V1_MQTT_OK/GD32VW55X_Wifi_BLE_SDK/GD32VW55x_RELEASE_V1.0.2/MSDK/plf/GD32VW55x_standard_peripheral/Source\gd32vw55x_efuse.c **** }
 882              		.loc 1 284 5 is_stmt 1
 284:C:/Users/stapi/OneDrive/Desktop/GD32VW553/V1_MQTT_OK/GD32VW55X_Wifi_BLE_SDK/GD32VW55x_RELEASE_V1.0.2/MSDK/plf/GD32VW55x_standard_peripheral/Source\gd32vw55x_efuse.c **** }
 883              		.loc 1 284 12 is_stmt 0
 884 000a 93050002 		li	a1,32
 885              	.LVL90:
 886 000e 17030000 		tail	efuse_write
 886      67000300 
 887              	.LVL91:
 888              	.L95:
 282:C:/Users/stapi/OneDrive/Desktop/GD32VW553/V1_MQTT_OK/GD32VW55X_Wifi_BLE_SDK/GD32VW55x_RELEASE_V1.0.2/MSDK/plf/GD32VW55x_standard_peripheral/Source\gd32vw55x_efuse.c ****     }
 889              		.loc 1 282 16
 890 0016 0145     		li	a0,0
 891              	.LVL92:
 285:C:/Users/stapi/OneDrive/Desktop/GD32VW553/V1_MQTT_OK/GD32VW55X_Wifi_BLE_SDK/GD32VW55x_RELEASE_V1.0.2/MSDK/plf/GD32VW55x_standard_peripheral/Source\gd32vw55x_efuse.c **** 
 892              		.loc 1 285 1
 893 0018 8280     		ret
 894              		.cfi_endproc
 895              	.LFE373:
 897              		.section	.text.efuse_user_data_write,"ax",@progbits
 898              		.align	1
 899              		.globl	efuse_user_data_write
 901              	efuse_user_data_write:
 902              	.LFB374:
 296:C:/Users/stapi/OneDrive/Desktop/GD32VW553/V1_MQTT_OK/GD32VW55X_Wifi_BLE_SDK/GD32VW55x_RELEASE_V1.0.2/MSDK/plf/GD32VW55x_standard_peripheral/Source\gd32vw55x_efuse.c ****     if(size != 32U) {
 903              		.loc 1 296 1 is_stmt 1
 904              		.cfi_startproc
 905              	.LVL93:
 297:C:/Users/stapi/OneDrive/Desktop/GD32VW553/V1_MQTT_OK/GD32VW55X_Wifi_BLE_SDK/GD32VW55x_RELEASE_V1.0.2/MSDK/plf/GD32VW55x_standard_peripheral/Source\gd32vw55x_efuse.c ****         return ERROR;
 906              		.loc 1 297 5
 297:C:/Users/stapi/OneDrive/Desktop/GD32VW553/V1_MQTT_OK/GD32VW55X_Wifi_BLE_SDK/GD32VW55x_RELEASE_V1.0.2/MSDK/plf/GD32VW55x_standard_peripheral/Source\gd32vw55x_efuse.c ****         return ERROR;
 907              		.loc 1 297 7 is_stmt 0
 908 0000 93070002 		li	a5,32
 909 0004 631BF500 		bne	a0,a5,.L102
 910 0008 2E86     		mv	a2,a1
 300:C:/Users/stapi/OneDrive/Desktop/GD32VW553/V1_MQTT_OK/GD32VW55X_Wifi_BLE_SDK/GD32VW55x_RELEASE_V1.0.2/MSDK/plf/GD32VW55x_standard_peripheral/Source\gd32vw55x_efuse.c **** }
 911              		.loc 1 300 5 is_stmt 1
 300:C:/Users/stapi/OneDrive/Desktop/GD32VW553/V1_MQTT_OK/GD32VW55X_Wifi_BLE_SDK/GD32VW55x_RELEASE_V1.0.2/MSDK/plf/GD32VW55x_standard_peripheral/Source\gd32vw55x_efuse.c **** }
 912              		.loc 1 300 12 is_stmt 0
 913 000a 13050006 		li	a0,96
 914              	.LVL94:
 915 000e 93050002 		li	a1,32
 916              	.LVL95:
 917 0012 17030000 		tail	efuse_write
 917      67000300 
 918              	.LVL96:
 919              	.L102:
 298:C:/Users/stapi/OneDrive/Desktop/GD32VW553/V1_MQTT_OK/GD32VW55X_Wifi_BLE_SDK/GD32VW55x_RELEASE_V1.0.2/MSDK/plf/GD32VW55x_standard_peripheral/Source\gd32vw55x_efuse.c ****     }
 920              		.loc 1 298 16
 921 001a 0145     		li	a0,0
 922              	.LVL97:
 301:C:/Users/stapi/OneDrive/Desktop/GD32VW553/V1_MQTT_OK/GD32VW55X_Wifi_BLE_SDK/GD32VW55x_RELEASE_V1.0.2/MSDK/plf/GD32VW55x_standard_peripheral/Source\gd32vw55x_efuse.c **** 
 923              		.loc 1 301 1
 924 001c 8280     		ret
 925              		.cfi_endproc
 926              	.LFE374:
 928              		.section	.text.efuse_lock_config,"ax",@progbits
 929              		.align	1
 930              		.globl	efuse_lock_config
 932              	efuse_lock_config:
 933              	.LFB382:
 412:C:/Users/stapi/OneDrive/Desktop/GD32VW553/V1_MQTT_OK/GD32VW55X_Wifi_BLE_SDK/GD32VW55x_RELEASE_V1.0.2/MSDK/plf/GD32VW55x_standard_peripheral/Source\gd32vw55x_efuse.c ****     uint32_t temp;
 934              		.loc 1 412 1 is_stmt 1
 935              		.cfi_startproc
 936              	.LVL98:
 937 0000 17030000 		call	t0,__riscv_save_0
 937      E7020300 
 938              		.cfi_offset 1, -4
 939              		.cfi_def_cfa_offset 16
 413:C:/Users/stapi/OneDrive/Desktop/GD32VW553/V1_MQTT_OK/GD32VW55X_Wifi_BLE_SDK/GD32VW55x_RELEASE_V1.0.2/MSDK/plf/GD32VW55x_standard_peripheral/Source\gd32vw55x_efuse.c ****     temp = source;
 940              		.loc 1 413 5
 414:C:/Users/stapi/OneDrive/Desktop/GD32VW553/V1_MQTT_OK/GD32VW55X_Wifi_BLE_SDK/GD32VW55x_RELEASE_V1.0.2/MSDK/plf/GD32VW55x_standard_peripheral/Source\gd32vw55x_efuse.c ****     if(source == EFUSE_BOOT_LOCK) {
 941              		.loc 1 414 5
 412:C:/Users/stapi/OneDrive/Desktop/GD32VW553/V1_MQTT_OK/GD32VW55X_Wifi_BLE_SDK/GD32VW55x_RELEASE_V1.0.2/MSDK/plf/GD32VW55x_standard_peripheral/Source\gd32vw55x_efuse.c ****     uint32_t temp;
 942              		.loc 1 412 1 is_stmt 0
 943 0008 4111     		addi	sp,sp,-16
 944              		.cfi_def_cfa_offset 32
 414:C:/Users/stapi/OneDrive/Desktop/GD32VW553/V1_MQTT_OK/GD32VW55X_Wifi_BLE_SDK/GD32VW55x_RELEASE_V1.0.2/MSDK/plf/GD32VW55x_standard_peripheral/Source\gd32vw55x_efuse.c ****     if(source == EFUSE_BOOT_LOCK) {
 945              		.loc 1 414 10
 946 000a 2AC6     		sw	a0,12(sp)
 415:C:/Users/stapi/OneDrive/Desktop/GD32VW553/V1_MQTT_OK/GD32VW55X_Wifi_BLE_SDK/GD32VW55x_RELEASE_V1.0.2/MSDK/plf/GD32VW55x_standard_peripheral/Source\gd32vw55x_efuse.c ****         efuse_write(EFUSE_CTL0_ADDR, 1U, &temp);
 947              		.loc 1 415 5 is_stmt 1
 415:C:/Users/stapi/OneDrive/Desktop/GD32VW553/V1_MQTT_OK/GD32VW55X_Wifi_BLE_SDK/GD32VW55x_RELEASE_V1.0.2/MSDK/plf/GD32VW55x_standard_peripheral/Source\gd32vw55x_efuse.c ****         efuse_write(EFUSE_CTL0_ADDR, 1U, &temp);
 948              		.loc 1 415 7 is_stmt 0
 949 000c 8947     		li	a5,2
 950 000e 631EF500 		bne	a0,a5,.L108
 416:C:/Users/stapi/OneDrive/Desktop/GD32VW553/V1_MQTT_OK/GD32VW55X_Wifi_BLE_SDK/GD32VW55x_RELEASE_V1.0.2/MSDK/plf/GD32VW55x_standard_peripheral/Source\gd32vw55x_efuse.c ****     } else if(source == EFUSE_ROTPKKEY_LOCK) {
 951              		.loc 1 416 9 is_stmt 1
 952 0012 7000     		addi	a2,sp,12
 953 0014 8545     		li	a1,1
 954 0016 0145     		li	a0,0
 955              	.LVL99:
 956              	.L116:
 420:C:/Users/stapi/OneDrive/Desktop/GD32VW553/V1_MQTT_OK/GD32VW55X_Wifi_BLE_SDK/GD32VW55x_RELEASE_V1.0.2/MSDK/plf/GD32VW55x_standard_peripheral/Source\gd32vw55x_efuse.c ****     } else if(source == EFUSE_AESKEY_LOCK) {
 957              		.loc 1 420 9 is_stmt 0
 958 0018 97000000 		call	efuse_write
 958      E7800000 
 959              	.LVL100:
 960              	.L107:
 426:C:/Users/stapi/OneDrive/Desktop/GD32VW553/V1_MQTT_OK/GD32VW55X_Wifi_BLE_SDK/GD32VW55x_RELEASE_V1.0.2/MSDK/plf/GD32VW55x_standard_peripheral/Source\gd32vw55x_efuse.c **** 
 961              		.loc 1 426 1
 962 0020 4101     		addi	sp,sp,16
 963              		.cfi_remember_state
 964              		.cfi_def_cfa_offset 0
 965 0022 17030000 		tail	__riscv_restore_0
 965      67000300 
 966              		.cfi_restore 1
 967              		.cfi_def_cfa_offset -16
 968              	.LVL101:
 969              	.L108:
 970              		.cfi_restore_state
 417:C:/Users/stapi/OneDrive/Desktop/GD32VW553/V1_MQTT_OK/GD32VW55X_Wifi_BLE_SDK/GD32VW55x_RELEASE_V1.0.2/MSDK/plf/GD32VW55x_standard_peripheral/Source\gd32vw55x_efuse.c ****         efuse_write(EFUSE_CTL1_ADDR, 1U, &temp);
 971              		.loc 1 417 12 is_stmt 1
 417:C:/Users/stapi/OneDrive/Desktop/GD32VW553/V1_MQTT_OK/GD32VW55X_Wifi_BLE_SDK/GD32VW55x_RELEASE_V1.0.2/MSDK/plf/GD32VW55x_standard_peripheral/Source\gd32vw55x_efuse.c ****         efuse_write(EFUSE_CTL1_ADDR, 1U, &temp);
 972              		.loc 1 417 14 is_stmt 0
 973 002a 9147     		li	a5,4
 974 002c 6316F500 		bne	a0,a5,.L110
 418:C:/Users/stapi/OneDrive/Desktop/GD32VW553/V1_MQTT_OK/GD32VW55X_Wifi_BLE_SDK/GD32VW55x_RELEASE_V1.0.2/MSDK/plf/GD32VW55x_standard_peripheral/Source\gd32vw55x_efuse.c ****     } else if(source == EFUSE_USER_DATA_LOCK) {
 975              		.loc 1 418 9 is_stmt 1
 976 0030 7000     		addi	a2,sp,12
 977 0032 8545     		li	a1,1
 978 0034 0545     		li	a0,1
 979              	.LVL102:
 980 0036 CDB7     		j	.L116
 981              	.LVL103:
 982              	.L110:
 419:C:/Users/stapi/OneDrive/Desktop/GD32VW553/V1_MQTT_OK/GD32VW55X_Wifi_BLE_SDK/GD32VW55x_RELEASE_V1.0.2/MSDK/plf/GD32VW55x_standard_peripheral/Source\gd32vw55x_efuse.c ****         efuse_write(USER_CTL_ADDR, 1U, &temp);
 983              		.loc 1 419 12
 421:C:/Users/stapi/OneDrive/Desktop/GD32VW553/V1_MQTT_OK/GD32VW55X_Wifi_BLE_SDK/GD32VW55x_RELEASE_V1.0.2/MSDK/plf/GD32VW55x_standard_peripheral/Source\gd32vw55x_efuse.c ****         efuse_write(USER_CTL_ADDR, 1U, &temp);
 984              		.loc 1 421 12
 421:C:/Users/stapi/OneDrive/Desktop/GD32VW553/V1_MQTT_OK/GD32VW55X_Wifi_BLE_SDK/GD32VW55x_RELEASE_V1.0.2/MSDK/plf/GD32VW55x_standard_peripheral/Source\gd32vw55x_efuse.c ****         efuse_write(USER_CTL_ADDR, 1U, &temp);
 985              		.loc 1 421 14 is_stmt 0
 986 0038 930705FE 		addi	a5,a0,-32
 987 003c 93F7F7FD 		andi	a5,a5,-33
 988 0040 81C7     		beq	a5,zero,.L111
 423:C:/Users/stapi/OneDrive/Desktop/GD32VW553/V1_MQTT_OK/GD32VW55X_Wifi_BLE_SDK/GD32VW55x_RELEASE_V1.0.2/MSDK/plf/GD32VW55x_standard_peripheral/Source\gd32vw55x_efuse.c ****         efuse_write(USER_CTL_ADDR, 1U, &temp);
 989              		.loc 1 423 12 is_stmt 1
 423:C:/Users/stapi/OneDrive/Desktop/GD32VW553/V1_MQTT_OK/GD32VW55X_Wifi_BLE_SDK/GD32VW55x_RELEASE_V1.0.2/MSDK/plf/GD32VW55x_standard_peripheral/Source\gd32vw55x_efuse.c ****         efuse_write(USER_CTL_ADDR, 1U, &temp);
 990              		.loc 1 423 14 is_stmt 0
 991 0042 A147     		li	a5,8
 992 0044 E31EF5FC 		bne	a0,a5,.L107
 993              	.L111:
 420:C:/Users/stapi/OneDrive/Desktop/GD32VW553/V1_MQTT_OK/GD32VW55X_Wifi_BLE_SDK/GD32VW55x_RELEASE_V1.0.2/MSDK/plf/GD32VW55x_standard_peripheral/Source\gd32vw55x_efuse.c ****     } else if(source == EFUSE_AESKEY_LOCK) {
 994              		.loc 1 420 9 is_stmt 1
 995 0048 7000     		addi	a2,sp,12
 996 004a 8545     		li	a1,1
 997 004c 0D45     		li	a0,3
 998              	.LVL104:
 999 004e E9B7     		j	.L116
 1000              		.cfi_endproc
 1001              	.LFE382:
 1003              		.section	.text.efuse_flag_clear,"ax",@progbits
 1004              		.align	1
 1005              		.globl	efuse_flag_clear
 1007              	efuse_flag_clear:
 1008              	.LFB384:
 446:C:/Users/stapi/OneDrive/Desktop/GD32VW553/V1_MQTT_OK/GD32VW55X_Wifi_BLE_SDK/GD32VW55x_RELEASE_V1.0.2/MSDK/plf/GD32VW55x_standard_peripheral/Source\gd32vw55x_efuse.c **** 
 447:C:/Users/stapi/OneDrive/Desktop/GD32VW553/V1_MQTT_OK/GD32VW55X_Wifi_BLE_SDK/GD32VW55x_RELEASE_V1.0.2/MSDK/plf/GD32VW55x_standard_peripheral/Source\gd32vw55x_efuse.c **** /*!
 448:C:/Users/stapi/OneDrive/Desktop/GD32VW553/V1_MQTT_OK/GD32VW55X_Wifi_BLE_SDK/GD32VW55x_RELEASE_V1.0.2/MSDK/plf/GD32VW55x_standard_peripheral/Source\gd32vw55x_efuse.c ****     \brief      clear EFUSE pending flag
 449:C:/Users/stapi/OneDrive/Desktop/GD32VW553/V1_MQTT_OK/GD32VW55X_Wifi_BLE_SDK/GD32VW55x_RELEASE_V1.0.2/MSDK/plf/GD32VW55x_standard_peripheral/Source\gd32vw55x_efuse.c ****     \param[in]  flag: specifies to clear a flag
 450:C:/Users/stapi/OneDrive/Desktop/GD32VW553/V1_MQTT_OK/GD32VW55X_Wifi_BLE_SDK/GD32VW55x_RELEASE_V1.0.2/MSDK/plf/GD32VW55x_standard_peripheral/Source\gd32vw55x_efuse.c ****                 only one parameter can be selected which is shown as below:
 451:C:/Users/stapi/OneDrive/Desktop/GD32VW553/V1_MQTT_OK/GD32VW55X_Wifi_BLE_SDK/GD32VW55x_RELEASE_V1.0.2/MSDK/plf/GD32VW55x_standard_peripheral/Source\gd32vw55x_efuse.c ****       \arg        EFUSE_PGIC: clear programming operation completion flag
 452:C:/Users/stapi/OneDrive/Desktop/GD32VW553/V1_MQTT_OK/GD32VW55X_Wifi_BLE_SDK/GD32VW55x_RELEASE_V1.0.2/MSDK/plf/GD32VW55x_standard_peripheral/Source\gd32vw55x_efuse.c ****       \arg        EFUSE_RDIC: clear read operation completion flag
 453:C:/Users/stapi/OneDrive/Desktop/GD32VW553/V1_MQTT_OK/GD32VW55X_Wifi_BLE_SDK/GD32VW55x_RELEASE_V1.0.2/MSDK/plf/GD32VW55x_standard_peripheral/Source\gd32vw55x_efuse.c ****       \arg        EFUSE_OVBERIC: clear overstep boundary error flag
 454:C:/Users/stapi/OneDrive/Desktop/GD32VW553/V1_MQTT_OK/GD32VW55X_Wifi_BLE_SDK/GD32VW55x_RELEASE_V1.0.2/MSDK/plf/GD32VW55x_standard_peripheral/Source\gd32vw55x_efuse.c ****     \param[out] none
 455:C:/Users/stapi/OneDrive/Desktop/GD32VW553/V1_MQTT_OK/GD32VW55X_Wifi_BLE_SDK/GD32VW55x_RELEASE_V1.0.2/MSDK/plf/GD32VW55x_standard_peripheral/Source\gd32vw55x_efuse.c ****     \retval     none
 456:C:/Users/stapi/OneDrive/Desktop/GD32VW553/V1_MQTT_OK/GD32VW55X_Wifi_BLE_SDK/GD32VW55x_RELEASE_V1.0.2/MSDK/plf/GD32VW55x_standard_peripheral/Source\gd32vw55x_efuse.c **** */
 457:C:/Users/stapi/OneDrive/Desktop/GD32VW553/V1_MQTT_OK/GD32VW55X_Wifi_BLE_SDK/GD32VW55x_RELEASE_V1.0.2/MSDK/plf/GD32VW55x_standard_peripheral/Source\gd32vw55x_efuse.c **** void efuse_flag_clear(efuse_clear_flag_enum flag)
 458:C:/Users/stapi/OneDrive/Desktop/GD32VW553/V1_MQTT_OK/GD32VW55X_Wifi_BLE_SDK/GD32VW55x_RELEASE_V1.0.2/MSDK/plf/GD32VW55x_standard_peripheral/Source\gd32vw55x_efuse.c **** {
 1009              		.loc 1 458 1
 1010              		.cfi_startproc
 1011              	.LVL105:
 459:C:/Users/stapi/OneDrive/Desktop/GD32VW553/V1_MQTT_OK/GD32VW55X_Wifi_BLE_SDK/GD32VW55x_RELEASE_V1.0.2/MSDK/plf/GD32VW55x_standard_peripheral/Source\gd32vw55x_efuse.c ****     EFUSE_CS |= (uint32_t)flag;
 1012              		.loc 1 459 5
 1013              		.loc 1 459 14 is_stmt 0
 1014 0000 37370240 		li	a4,1073885184
 1015 0004 83270780 		lw	a5,-2048(a4)
 1016 0008 C98F     		or	a5,a5,a0
 1017 000a 2320F780 		sw	a5,-2048(a4)
 460:C:/Users/stapi/OneDrive/Desktop/GD32VW553/V1_MQTT_OK/GD32VW55X_Wifi_BLE_SDK/GD32VW55x_RELEASE_V1.0.2/MSDK/plf/GD32VW55x_standard_peripheral/Source\gd32vw55x_efuse.c **** }
 1018              		.loc 1 460 1
 1019 000e 8280     		ret
 1020              		.cfi_endproc
 1021              	.LFE384:
 1023              		.section	.text.efuse_interrupt_enable,"ax",@progbits
 1024              		.align	1
 1025              		.globl	efuse_interrupt_enable
 1027              	efuse_interrupt_enable:
 1028              	.LFB392:
 1029              		.cfi_startproc
 1030 0000 17030000 		tail	efuse_flag_clear
 1030      67000300 
 1031              		.cfi_endproc
 1032              	.LFE392:
 1034              		.section	.text.efuse_interrupt_disable,"ax",@progbits
 1035              		.align	1
 1036              		.globl	efuse_interrupt_disable
 1038              	efuse_interrupt_disable:
 1039              	.LFB386:
 461:C:/Users/stapi/OneDrive/Desktop/GD32VW553/V1_MQTT_OK/GD32VW55X_Wifi_BLE_SDK/GD32VW55x_RELEASE_V1.0.2/MSDK/plf/GD32VW55x_standard_peripheral/Source\gd32vw55x_efuse.c **** 
 462:C:/Users/stapi/OneDrive/Desktop/GD32VW553/V1_MQTT_OK/GD32VW55X_Wifi_BLE_SDK/GD32VW55x_RELEASE_V1.0.2/MSDK/plf/GD32VW55x_standard_peripheral/Source\gd32vw55x_efuse.c **** /*!
 463:C:/Users/stapi/OneDrive/Desktop/GD32VW553/V1_MQTT_OK/GD32VW55X_Wifi_BLE_SDK/GD32VW55x_RELEASE_V1.0.2/MSDK/plf/GD32VW55x_standard_peripheral/Source\gd32vw55x_efuse.c ****     \brief      enable EFUSE interrupt
 464:C:/Users/stapi/OneDrive/Desktop/GD32VW553/V1_MQTT_OK/GD32VW55X_Wifi_BLE_SDK/GD32VW55x_RELEASE_V1.0.2/MSDK/plf/GD32VW55x_standard_peripheral/Source\gd32vw55x_efuse.c ****     \param[in]  source: specifies an interrupt to enbale
 465:C:/Users/stapi/OneDrive/Desktop/GD32VW553/V1_MQTT_OK/GD32VW55X_Wifi_BLE_SDK/GD32VW55x_RELEASE_V1.0.2/MSDK/plf/GD32VW55x_standard_peripheral/Source\gd32vw55x_efuse.c ****                 one or more parameters can be selected which are shown as below:
 466:C:/Users/stapi/OneDrive/Desktop/GD32VW553/V1_MQTT_OK/GD32VW55X_Wifi_BLE_SDK/GD32VW55x_RELEASE_V1.0.2/MSDK/plf/GD32VW55x_standard_peripheral/Source\gd32vw55x_efuse.c ****       \arg        EFUSE_INTEN_PG: programming operation completion interrupt
 467:C:/Users/stapi/OneDrive/Desktop/GD32VW553/V1_MQTT_OK/GD32VW55X_Wifi_BLE_SDK/GD32VW55x_RELEASE_V1.0.2/MSDK/plf/GD32VW55x_standard_peripheral/Source\gd32vw55x_efuse.c ****       \arg        EFUSE_INTEN_RD: read operation completion interrupt
 468:C:/Users/stapi/OneDrive/Desktop/GD32VW553/V1_MQTT_OK/GD32VW55X_Wifi_BLE_SDK/GD32VW55x_RELEASE_V1.0.2/MSDK/plf/GD32VW55x_standard_peripheral/Source\gd32vw55x_efuse.c ****       \arg        EFUSE_INTEN_OVBER: overstep boundary error interrupt
 469:C:/Users/stapi/OneDrive/Desktop/GD32VW553/V1_MQTT_OK/GD32VW55X_Wifi_BLE_SDK/GD32VW55x_RELEASE_V1.0.2/MSDK/plf/GD32VW55x_standard_peripheral/Source\gd32vw55x_efuse.c ****     \param[out] none
 470:C:/Users/stapi/OneDrive/Desktop/GD32VW553/V1_MQTT_OK/GD32VW55X_Wifi_BLE_SDK/GD32VW55x_RELEASE_V1.0.2/MSDK/plf/GD32VW55x_standard_peripheral/Source\gd32vw55x_efuse.c ****     \retval     none
 471:C:/Users/stapi/OneDrive/Desktop/GD32VW553/V1_MQTT_OK/GD32VW55X_Wifi_BLE_SDK/GD32VW55x_RELEASE_V1.0.2/MSDK/plf/GD32VW55x_standard_peripheral/Source\gd32vw55x_efuse.c **** */
 472:C:/Users/stapi/OneDrive/Desktop/GD32VW553/V1_MQTT_OK/GD32VW55X_Wifi_BLE_SDK/GD32VW55x_RELEASE_V1.0.2/MSDK/plf/GD32VW55x_standard_peripheral/Source\gd32vw55x_efuse.c **** void efuse_interrupt_enable(efuse_int_enum source)
 473:C:/Users/stapi/OneDrive/Desktop/GD32VW553/V1_MQTT_OK/GD32VW55X_Wifi_BLE_SDK/GD32VW55x_RELEASE_V1.0.2/MSDK/plf/GD32VW55x_standard_peripheral/Source\gd32vw55x_efuse.c **** {
 474:C:/Users/stapi/OneDrive/Desktop/GD32VW553/V1_MQTT_OK/GD32VW55X_Wifi_BLE_SDK/GD32VW55x_RELEASE_V1.0.2/MSDK/plf/GD32VW55x_standard_peripheral/Source\gd32vw55x_efuse.c ****     EFUSE_CS |= (uint32_t)source;
 475:C:/Users/stapi/OneDrive/Desktop/GD32VW553/V1_MQTT_OK/GD32VW55X_Wifi_BLE_SDK/GD32VW55x_RELEASE_V1.0.2/MSDK/plf/GD32VW55x_standard_peripheral/Source\gd32vw55x_efuse.c **** }
 476:C:/Users/stapi/OneDrive/Desktop/GD32VW553/V1_MQTT_OK/GD32VW55X_Wifi_BLE_SDK/GD32VW55x_RELEASE_V1.0.2/MSDK/plf/GD32VW55x_standard_peripheral/Source\gd32vw55x_efuse.c **** 
 477:C:/Users/stapi/OneDrive/Desktop/GD32VW553/V1_MQTT_OK/GD32VW55X_Wifi_BLE_SDK/GD32VW55x_RELEASE_V1.0.2/MSDK/plf/GD32VW55x_standard_peripheral/Source\gd32vw55x_efuse.c **** /*!
 478:C:/Users/stapi/OneDrive/Desktop/GD32VW553/V1_MQTT_OK/GD32VW55X_Wifi_BLE_SDK/GD32VW55x_RELEASE_V1.0.2/MSDK/plf/GD32VW55x_standard_peripheral/Source\gd32vw55x_efuse.c ****     \brief      disable EFUSE interrupt
 479:C:/Users/stapi/OneDrive/Desktop/GD32VW553/V1_MQTT_OK/GD32VW55X_Wifi_BLE_SDK/GD32VW55x_RELEASE_V1.0.2/MSDK/plf/GD32VW55x_standard_peripheral/Source\gd32vw55x_efuse.c ****     \param[in]  source: specifies an interrupt to disbale
 480:C:/Users/stapi/OneDrive/Desktop/GD32VW553/V1_MQTT_OK/GD32VW55X_Wifi_BLE_SDK/GD32VW55x_RELEASE_V1.0.2/MSDK/plf/GD32VW55x_standard_peripheral/Source\gd32vw55x_efuse.c ****                 one or more parameters can be selected which are shown as below:
 481:C:/Users/stapi/OneDrive/Desktop/GD32VW553/V1_MQTT_OK/GD32VW55X_Wifi_BLE_SDK/GD32VW55x_RELEASE_V1.0.2/MSDK/plf/GD32VW55x_standard_peripheral/Source\gd32vw55x_efuse.c ****       \arg        EFUSE_INTEN_PG: programming operation completion interrupt
 482:C:/Users/stapi/OneDrive/Desktop/GD32VW553/V1_MQTT_OK/GD32VW55X_Wifi_BLE_SDK/GD32VW55x_RELEASE_V1.0.2/MSDK/plf/GD32VW55x_standard_peripheral/Source\gd32vw55x_efuse.c ****       \arg        EFUSE_INTEN_RD: read operation completion interrupt
 483:C:/Users/stapi/OneDrive/Desktop/GD32VW553/V1_MQTT_OK/GD32VW55X_Wifi_BLE_SDK/GD32VW55x_RELEASE_V1.0.2/MSDK/plf/GD32VW55x_standard_peripheral/Source\gd32vw55x_efuse.c ****       \arg        EFUSE_INTEN_OVBER: overstep boundary error interrupt
 484:C:/Users/stapi/OneDrive/Desktop/GD32VW553/V1_MQTT_OK/GD32VW55X_Wifi_BLE_SDK/GD32VW55x_RELEASE_V1.0.2/MSDK/plf/GD32VW55x_standard_peripheral/Source\gd32vw55x_efuse.c ****     \param[out] none
 485:C:/Users/stapi/OneDrive/Desktop/GD32VW553/V1_MQTT_OK/GD32VW55X_Wifi_BLE_SDK/GD32VW55x_RELEASE_V1.0.2/MSDK/plf/GD32VW55x_standard_peripheral/Source\gd32vw55x_efuse.c ****     \retval     none
 486:C:/Users/stapi/OneDrive/Desktop/GD32VW553/V1_MQTT_OK/GD32VW55X_Wifi_BLE_SDK/GD32VW55x_RELEASE_V1.0.2/MSDK/plf/GD32VW55x_standard_peripheral/Source\gd32vw55x_efuse.c **** */
 487:C:/Users/stapi/OneDrive/Desktop/GD32VW553/V1_MQTT_OK/GD32VW55X_Wifi_BLE_SDK/GD32VW55x_RELEASE_V1.0.2/MSDK/plf/GD32VW55x_standard_peripheral/Source\gd32vw55x_efuse.c **** void efuse_interrupt_disable(efuse_int_enum source)
 488:C:/Users/stapi/OneDrive/Desktop/GD32VW553/V1_MQTT_OK/GD32VW55X_Wifi_BLE_SDK/GD32VW55x_RELEASE_V1.0.2/MSDK/plf/GD32VW55x_standard_peripheral/Source\gd32vw55x_efuse.c **** {
 1040              		.loc 1 488 1 is_stmt 1
 1041              		.cfi_startproc
 1042              	.LVL106:
 489:C:/Users/stapi/OneDrive/Desktop/GD32VW553/V1_MQTT_OK/GD32VW55X_Wifi_BLE_SDK/GD32VW55x_RELEASE_V1.0.2/MSDK/plf/GD32VW55x_standard_peripheral/Source\gd32vw55x_efuse.c ****     EFUSE_CS &= (~(uint32_t)source);
 1043              		.loc 1 489 5
 1044              		.loc 1 489 14 is_stmt 0
 1045 0000 B7370240 		li	a5,1073885184
 1046 0004 03A70780 		lw	a4,-2048(a5)
 1047 0008 3375A740 		andn	a0,a4,a0
 1048              	.LVL107:
 1049 000c 23A0A780 		sw	a0,-2048(a5)
 490:C:/Users/stapi/OneDrive/Desktop/GD32VW553/V1_MQTT_OK/GD32VW55X_Wifi_BLE_SDK/GD32VW55x_RELEASE_V1.0.2/MSDK/plf/GD32VW55x_standard_peripheral/Source\gd32vw55x_efuse.c **** }
 1050              		.loc 1 490 1
 1051 0010 8280     		ret
 1052              		.cfi_endproc
 1053              	.LFE386:
 1055              		.section	.text.efuse_interrupt_flag_get,"ax",@progbits
 1056              		.align	1
 1057              		.globl	efuse_interrupt_flag_get
 1059              	efuse_interrupt_flag_get:
 1060              	.LFB390:
 1061              		.cfi_startproc
 1062 0000 17030000 		tail	efuse_flag_get
 1062      67000300 
 1063              		.cfi_endproc
 1064              	.LFE390:
 1066              		.section	.text.efuse_interrupt_flag_clear,"ax",@progbits
 1067              		.align	1
 1068              		.globl	efuse_interrupt_flag_clear
 1070              	efuse_interrupt_flag_clear:
 1071              	.LFB394:
 1072              		.cfi_startproc
 1073 0000 17030000 		tail	efuse_flag_clear
 1073      67000300 
 1074              		.cfi_endproc
 1075              	.LFE394:
 1077              		.text
 1078              	.Letext0:
 1079              		.file 2 "c:\\users\\stapi\\onedrive\\desktop\\gd32vw553\\embeddedbuilder_v1.4.7.26843\\tools\\nucl
 1080              		.file 3 "c:\\users\\stapi\\onedrive\\desktop\\gd32vw553\\embeddedbuilder_v1.4.7.26843\\tools\\nucl
 1081              		.file 4 "..\\..\\..\\..\\plf\\riscv\\gd32vw55x/gd32vw55x.h"
 1082              		.file 5 "..\\..\\..\\..\\plf\\GD32VW55x_standard_peripheral\\Include/gd32vw55x_efuse.h"
DEFINED SYMBOLS
                            *ABS*:0000000000000000 gd32vw55x_efuse.c
C:\Users\stapi\AppData\Local\Temp\ccMV2RSc.s:13     .text.efuse_res_read:0000000000000000 efuse_res_read
C:\Users\stapi\AppData\Local\Temp\ccMV2RSc.s:17     .text.efuse_res_read:0000000000000000 .L0 
C:\Users\stapi\AppData\Local\Temp\ccMV2RSc.s:19     .text.efuse_res_read:0000000000000000 .L0 
C:\Users\stapi\AppData\Local\Temp\ccMV2RSc.s:20     .text.efuse_res_read:0000000000000000 .L0 
C:\Users\stapi\AppData\Local\Temp\ccMV2RSc.s:21     .text.efuse_res_read:0000000000000000 .L0 
C:\Users\stapi\AppData\Local\Temp\ccMV2RSc.s:22     .text.efuse_res_read:0000000000000000 .L0 
C:\Users\stapi\AppData\Local\Temp\ccMV2RSc.s:23     .text.efuse_res_read:0000000000000000 .L0 
C:\Users\stapi\AppData\Local\Temp\ccMV2RSc.s:24     .text.efuse_res_read:0000000000000000 .L0 
C:\Users\stapi\AppData\Local\Temp\ccMV2RSc.s:27     .text.efuse_res_read:0000000000000008 .L0 
C:\Users\stapi\AppData\Local\Temp\ccMV2RSc.s:30     .text.efuse_res_read:000000000000000a .L0 
C:\Users\stapi\AppData\Local\Temp\ccMV2RSc.s:31     .text.efuse_res_read:000000000000000a .L0 
C:\Users\stapi\AppData\Local\Temp\ccMV2RSc.s:32     .text.efuse_res_read:000000000000000a .L0 
C:\Users\stapi\AppData\Local\Temp\ccMV2RSc.s:33     .text.efuse_res_read:000000000000000a .L0 
C:\Users\stapi\AppData\Local\Temp\ccMV2RSc.s:35     .text.efuse_res_read:000000000000000e .L0 
C:\Users\stapi\AppData\Local\Temp\ccMV2RSc.s:38     .text.efuse_res_read:0000000000000010 .L0 
C:\Users\stapi\AppData\Local\Temp\ccMV2RSc.s:39     .text.efuse_res_read:0000000000000010 .L0 
C:\Users\stapi\AppData\Local\Temp\ccMV2RSc.s:40     .text.efuse_res_read:0000000000000010 .L0 
C:\Users\stapi\AppData\Local\Temp\ccMV2RSc.s:41     .text.efuse_res_read:0000000000000010 .L0 
C:\Users\stapi\AppData\Local\Temp\ccMV2RSc.s:43     .text.efuse_res_read:0000000000000014 .L0 
C:\Users\stapi\AppData\Local\Temp\ccMV2RSc.s:46     .text.efuse_res_read:0000000000000016 .L0 
C:\Users\stapi\AppData\Local\Temp\ccMV2RSc.s:47     .text.efuse_res_read:0000000000000016 .L0 
C:\Users\stapi\AppData\Local\Temp\ccMV2RSc.s:48     .text.efuse_res_read:0000000000000016 .L0 
C:\Users\stapi\AppData\Local\Temp\ccMV2RSc.s:49     .text.efuse_res_read:0000000000000018 .L0 
C:\Users\stapi\AppData\Local\Temp\ccMV2RSc.s:56     .text.efuse_aes_key_read:0000000000000000 efuse_aes_key_read
C:\Users\stapi\AppData\Local\Temp\ccMV2RSc.s:59     .text.efuse_aes_key_read:0000000000000000 .L0 
C:\Users\stapi\AppData\Local\Temp\ccMV2RSc.s:61     .text.efuse_aes_key_read:0000000000000000 .L0 
C:\Users\stapi\AppData\Local\Temp\ccMV2RSc.s:62     .text.efuse_aes_key_read:0000000000000000 .L0 
C:\Users\stapi\AppData\Local\Temp\ccMV2RSc.s:63     .text.efuse_aes_key_read:0000000000000000 .L0 
C:\Users\stapi\AppData\Local\Temp\ccMV2RSc.s:64     .text.efuse_aes_key_read:0000000000000000 .L0 
C:\Users\stapi\AppData\Local\Temp\ccMV2RSc.s:65     .text.efuse_aes_key_read:0000000000000000 .L0 
C:\Users\stapi\AppData\Local\Temp\ccMV2RSc.s:66     .text.efuse_aes_key_read:0000000000000000 .L0 
C:\Users\stapi\AppData\Local\Temp\ccMV2RSc.s:70     .text.efuse_aes_key_read:000000000000000a .L0 
C:\Users\stapi\AppData\Local\Temp\ccMV2RSc.s:73     .text.efuse_aes_key_read:000000000000000c .L0 
C:\Users\stapi\AppData\Local\Temp\ccMV2RSc.s:74     .text.efuse_aes_key_read:000000000000000c .L0 
C:\Users\stapi\AppData\Local\Temp\ccMV2RSc.s:75     .text.efuse_aes_key_read:000000000000000c .L0 
C:\Users\stapi\AppData\Local\Temp\ccMV2RSc.s:76     .text.efuse_aes_key_read:000000000000000c .L0 
C:\Users\stapi\AppData\Local\Temp\ccMV2RSc.s:78     .text.efuse_aes_key_read:000000000000000e .L0 
C:\Users\stapi\AppData\Local\Temp\ccMV2RSc.s:81     .text.efuse_aes_key_read:0000000000000010 .L0 
C:\Users\stapi\AppData\Local\Temp\ccMV2RSc.s:82     .text.efuse_aes_key_read:0000000000000010 .L0 
C:\Users\stapi\AppData\Local\Temp\ccMV2RSc.s:83     .text.efuse_aes_key_read:0000000000000010 .L0 
C:\Users\stapi\AppData\Local\Temp\ccMV2RSc.s:84     .text.efuse_aes_key_read:0000000000000010 .L0 
C:\Users\stapi\AppData\Local\Temp\ccMV2RSc.s:86     .text.efuse_aes_key_read:0000000000000012 .L0 
C:\Users\stapi\AppData\Local\Temp\ccMV2RSc.s:89     .text.efuse_aes_key_read:0000000000000014 .L0 
C:\Users\stapi\AppData\Local\Temp\ccMV2RSc.s:90     .text.efuse_aes_key_read:0000000000000014 .L0 
C:\Users\stapi\AppData\Local\Temp\ccMV2RSc.s:91     .text.efuse_aes_key_read:0000000000000014 .L0 
C:\Users\stapi\AppData\Local\Temp\ccMV2RSc.s:92     .text.efuse_aes_key_read:0000000000000014 .L0 
C:\Users\stapi\AppData\Local\Temp\ccMV2RSc.s:94     .text.efuse_aes_key_read:0000000000000016 .L0 
C:\Users\stapi\AppData\Local\Temp\ccMV2RSc.s:97     .text.efuse_aes_key_read:0000000000000018 .L0 
C:\Users\stapi\AppData\Local\Temp\ccMV2RSc.s:98     .text.efuse_aes_key_read:0000000000000018 .L0 
C:\Users\stapi\AppData\Local\Temp\ccMV2RSc.s:99     .text.efuse_aes_key_read:0000000000000018 .L0 
C:\Users\stapi\AppData\Local\Temp\ccMV2RSc.s:100    .text.efuse_aes_key_read:000000000000001a .L0 
C:\Users\stapi\AppData\Local\Temp\ccMV2RSc.s:107    .text.efuse_rotpk_key_read:0000000000000000 efuse_rotpk_key_read
C:\Users\stapi\AppData\Local\Temp\ccMV2RSc.s:110    .text.efuse_rotpk_key_read:0000000000000000 .L0 
C:\Users\stapi\AppData\Local\Temp\ccMV2RSc.s:112    .text.efuse_rotpk_key_read:0000000000000000 .L0 
C:\Users\stapi\AppData\Local\Temp\ccMV2RSc.s:113    .text.efuse_rotpk_key_read:0000000000000000 .L0 
C:\Users\stapi\AppData\Local\Temp\ccMV2RSc.s:114    .text.efuse_rotpk_key_read:0000000000000000 .L0 
C:\Users\stapi\AppData\Local\Temp\ccMV2RSc.s:115    .text.efuse_rotpk_key_read:0000000000000000 .L0 
C:\Users\stapi\AppData\Local\Temp\ccMV2RSc.s:116    .text.efuse_rotpk_key_read:0000000000000000 .L0 
C:\Users\stapi\AppData\Local\Temp\ccMV2RSc.s:118    .text.efuse_rotpk_key_read:0000000000000004 .L0 
C:\Users\stapi\AppData\Local\Temp\ccMV2RSc.s:120    .text.efuse_rotpk_key_read:0000000000000008 .L0 
C:\Users\stapi\AppData\Local\Temp\ccMV2RSc.s:122    .text.efuse_rotpk_key_read:000000000000000c .L0 
C:\Users\stapi\AppData\Local\Temp\ccMV2RSc.s:124    .text.efuse_rotpk_key_read:0000000000000010 .L0 
C:\Users\stapi\AppData\Local\Temp\ccMV2RSc.s:128    .text.efuse_rotpk_key_read:0000000000000014 .L0 
C:\Users\stapi\AppData\Local\Temp\ccMV2RSc.s:129    .text.efuse_rotpk_key_read:0000000000000014 .L0 
C:\Users\stapi\AppData\Local\Temp\ccMV2RSc.s:131    .text.efuse_rotpk_key_read:0000000000000016 .L0 
C:\Users\stapi\AppData\Local\Temp\ccMV2RSc.s:136    .text.efuse_rotpk_key_read:000000000000001e .L0 
C:\Users\stapi\AppData\Local\Temp\ccMV2RSc.s:137    .text.efuse_rotpk_key_read:000000000000001e .L0 
C:\Users\stapi\AppData\Local\Temp\ccMV2RSc.s:138    .text.efuse_rotpk_key_read:000000000000001e .L0 
C:\Users\stapi\AppData\Local\Temp\ccMV2RSc.s:142    .text.efuse_rotpk_key_read:0000000000000024 .L0 
C:\Users\stapi\AppData\Local\Temp\ccMV2RSc.s:143    .text.efuse_rotpk_key_read:0000000000000026 .L0 
C:\Users\stapi\AppData\Local\Temp\ccMV2RSc.s:150    .text.efuse_puid_read:0000000000000000 efuse_puid_read
C:\Users\stapi\AppData\Local\Temp\ccMV2RSc.s:153    .text.efuse_puid_read:0000000000000000 .L0 
C:\Users\stapi\AppData\Local\Temp\ccMV2RSc.s:155    .text.efuse_puid_read:0000000000000000 .L0 
C:\Users\stapi\AppData\Local\Temp\ccMV2RSc.s:156    .text.efuse_puid_read:0000000000000000 .L0 
C:\Users\stapi\AppData\Local\Temp\ccMV2RSc.s:157    .text.efuse_puid_read:0000000000000000 .L0 
C:\Users\stapi\AppData\Local\Temp\ccMV2RSc.s:158    .text.efuse_puid_read:0000000000000000 .L0 
C:\Users\stapi\AppData\Local\Temp\ccMV2RSc.s:159    .text.efuse_puid_read:0000000000000000 .L0 
C:\Users\stapi\AppData\Local\Temp\ccMV2RSc.s:160    .text.efuse_puid_read:0000000000000000 .L0 
C:\Users\stapi\AppData\Local\Temp\ccMV2RSc.s:164    .text.efuse_puid_read:000000000000000a .L0 
C:\Users\stapi\AppData\Local\Temp\ccMV2RSc.s:167    .text.efuse_puid_read:000000000000000c .L0 
C:\Users\stapi\AppData\Local\Temp\ccMV2RSc.s:168    .text.efuse_puid_read:000000000000000c .L0 
C:\Users\stapi\AppData\Local\Temp\ccMV2RSc.s:169    .text.efuse_puid_read:000000000000000c .L0 
C:\Users\stapi\AppData\Local\Temp\ccMV2RSc.s:170    .text.efuse_puid_read:000000000000000c .L0 
C:\Users\stapi\AppData\Local\Temp\ccMV2RSc.s:172    .text.efuse_puid_read:000000000000000e .L0 
C:\Users\stapi\AppData\Local\Temp\ccMV2RSc.s:175    .text.efuse_puid_read:0000000000000010 .L0 
C:\Users\stapi\AppData\Local\Temp\ccMV2RSc.s:176    .text.efuse_puid_read:0000000000000010 .L0 
C:\Users\stapi\AppData\Local\Temp\ccMV2RSc.s:177    .text.efuse_puid_read:0000000000000010 .L0 
C:\Users\stapi\AppData\Local\Temp\ccMV2RSc.s:178    .text.efuse_puid_read:0000000000000010 .L0 
C:\Users\stapi\AppData\Local\Temp\ccMV2RSc.s:180    .text.efuse_puid_read:0000000000000012 .L0 
C:\Users\stapi\AppData\Local\Temp\ccMV2RSc.s:183    .text.efuse_puid_read:0000000000000014 .L0 
C:\Users\stapi\AppData\Local\Temp\ccMV2RSc.s:184    .text.efuse_puid_read:0000000000000014 .L0 
C:\Users\stapi\AppData\Local\Temp\ccMV2RSc.s:185    .text.efuse_puid_read:0000000000000014 .L0 
C:\Users\stapi\AppData\Local\Temp\ccMV2RSc.s:186    .text.efuse_puid_read:0000000000000014 .L0 
C:\Users\stapi\AppData\Local\Temp\ccMV2RSc.s:188    .text.efuse_puid_read:0000000000000016 .L0 
C:\Users\stapi\AppData\Local\Temp\ccMV2RSc.s:191    .text.efuse_puid_read:0000000000000018 .L0 
C:\Users\stapi\AppData\Local\Temp\ccMV2RSc.s:192    .text.efuse_puid_read:0000000000000018 .L0 
C:\Users\stapi\AppData\Local\Temp\ccMV2RSc.s:193    .text.efuse_puid_read:0000000000000018 .L0 
C:\Users\stapi\AppData\Local\Temp\ccMV2RSc.s:194    .text.efuse_puid_read:000000000000001a .L0 
C:\Users\stapi\AppData\Local\Temp\ccMV2RSc.s:201    .text.efuse_huk_key_read:0000000000000000 efuse_huk_key_read
C:\Users\stapi\AppData\Local\Temp\ccMV2RSc.s:204    .text.efuse_huk_key_read:0000000000000000 .L0 
C:\Users\stapi\AppData\Local\Temp\ccMV2RSc.s:206    .text.efuse_huk_key_read:0000000000000000 .L0 
C:\Users\stapi\AppData\Local\Temp\ccMV2RSc.s:207    .text.efuse_huk_key_read:0000000000000000 .L0 
C:\Users\stapi\AppData\Local\Temp\ccMV2RSc.s:208    .text.efuse_huk_key_read:0000000000000000 .L0 
C:\Users\stapi\AppData\Local\Temp\ccMV2RSc.s:209    .text.efuse_huk_key_read:0000000000000000 .L0 
C:\Users\stapi\AppData\Local\Temp\ccMV2RSc.s:210    .text.efuse_huk_key_read:0000000000000000 .L0 
C:\Users\stapi\AppData\Local\Temp\ccMV2RSc.s:211    .text.efuse_huk_key_read:0000000000000000 .L0 
C:\Users\stapi\AppData\Local\Temp\ccMV2RSc.s:215    .text.efuse_huk_key_read:000000000000000a .L0 
C:\Users\stapi\AppData\Local\Temp\ccMV2RSc.s:218    .text.efuse_huk_key_read:000000000000000c .L0 
C:\Users\stapi\AppData\Local\Temp\ccMV2RSc.s:219    .text.efuse_huk_key_read:000000000000000c .L0 
C:\Users\stapi\AppData\Local\Temp\ccMV2RSc.s:220    .text.efuse_huk_key_read:000000000000000c .L0 
C:\Users\stapi\AppData\Local\Temp\ccMV2RSc.s:221    .text.efuse_huk_key_read:000000000000000c .L0 
C:\Users\stapi\AppData\Local\Temp\ccMV2RSc.s:223    .text.efuse_huk_key_read:000000000000000e .L0 
C:\Users\stapi\AppData\Local\Temp\ccMV2RSc.s:226    .text.efuse_huk_key_read:0000000000000010 .L0 
C:\Users\stapi\AppData\Local\Temp\ccMV2RSc.s:227    .text.efuse_huk_key_read:0000000000000010 .L0 
C:\Users\stapi\AppData\Local\Temp\ccMV2RSc.s:228    .text.efuse_huk_key_read:0000000000000010 .L0 
C:\Users\stapi\AppData\Local\Temp\ccMV2RSc.s:229    .text.efuse_huk_key_read:0000000000000010 .L0 
C:\Users\stapi\AppData\Local\Temp\ccMV2RSc.s:231    .text.efuse_huk_key_read:0000000000000012 .L0 
C:\Users\stapi\AppData\Local\Temp\ccMV2RSc.s:234    .text.efuse_huk_key_read:0000000000000014 .L0 
C:\Users\stapi\AppData\Local\Temp\ccMV2RSc.s:235    .text.efuse_huk_key_read:0000000000000014 .L0 
C:\Users\stapi\AppData\Local\Temp\ccMV2RSc.s:236    .text.efuse_huk_key_read:0000000000000014 .L0 
C:\Users\stapi\AppData\Local\Temp\ccMV2RSc.s:237    .text.efuse_huk_key_read:0000000000000014 .L0 
C:\Users\stapi\AppData\Local\Temp\ccMV2RSc.s:239    .text.efuse_huk_key_read:0000000000000016 .L0 
C:\Users\stapi\AppData\Local\Temp\ccMV2RSc.s:242    .text.efuse_huk_key_read:0000000000000018 .L0 
C:\Users\stapi\AppData\Local\Temp\ccMV2RSc.s:243    .text.efuse_huk_key_read:0000000000000018 .L0 
C:\Users\stapi\AppData\Local\Temp\ccMV2RSc.s:244    .text.efuse_huk_key_read:0000000000000018 .L0 
C:\Users\stapi\AppData\Local\Temp\ccMV2RSc.s:245    .text.efuse_huk_key_read:000000000000001a .L0 
C:\Users\stapi\AppData\Local\Temp\ccMV2RSc.s:252    .text.efuse_user_data_read:0000000000000000 efuse_user_data_read
C:\Users\stapi\AppData\Local\Temp\ccMV2RSc.s:255    .text.efuse_user_data_read:0000000000000000 .L0 
C:\Users\stapi\AppData\Local\Temp\ccMV2RSc.s:257    .text.efuse_user_data_read:0000000000000000 .L0 
C:\Users\stapi\AppData\Local\Temp\ccMV2RSc.s:258    .text.efuse_user_data_read:0000000000000000 .L0 
C:\Users\stapi\AppData\Local\Temp\ccMV2RSc.s:259    .text.efuse_user_data_read:0000000000000000 .L0 
C:\Users\stapi\AppData\Local\Temp\ccMV2RSc.s:260    .text.efuse_user_data_read:0000000000000000 .L0 
C:\Users\stapi\AppData\Local\Temp\ccMV2RSc.s:261    .text.efuse_user_data_read:0000000000000000 .L0 
C:\Users\stapi\AppData\Local\Temp\ccMV2RSc.s:263    .text.efuse_user_data_read:0000000000000004 .L0 
C:\Users\stapi\AppData\Local\Temp\ccMV2RSc.s:265    .text.efuse_user_data_read:0000000000000008 .L0 
C:\Users\stapi\AppData\Local\Temp\ccMV2RSc.s:267    .text.efuse_user_data_read:000000000000000c .L0 
C:\Users\stapi\AppData\Local\Temp\ccMV2RSc.s:269    .text.efuse_user_data_read:0000000000000010 .L0 
C:\Users\stapi\AppData\Local\Temp\ccMV2RSc.s:273    .text.efuse_user_data_read:0000000000000014 .L0 
C:\Users\stapi\AppData\Local\Temp\ccMV2RSc.s:274    .text.efuse_user_data_read:0000000000000014 .L0 
C:\Users\stapi\AppData\Local\Temp\ccMV2RSc.s:276    .text.efuse_user_data_read:0000000000000016 .L0 
C:\Users\stapi\AppData\Local\Temp\ccMV2RSc.s:281    .text.efuse_user_data_read:000000000000001e .L0 
C:\Users\stapi\AppData\Local\Temp\ccMV2RSc.s:282    .text.efuse_user_data_read:000000000000001e .L0 
C:\Users\stapi\AppData\Local\Temp\ccMV2RSc.s:283    .text.efuse_user_data_read:000000000000001e .L0 
C:\Users\stapi\AppData\Local\Temp\ccMV2RSc.s:287    .text.efuse_user_data_read:0000000000000024 .L0 
C:\Users\stapi\AppData\Local\Temp\ccMV2RSc.s:288    .text.efuse_user_data_read:0000000000000026 .L0 
C:\Users\stapi\AppData\Local\Temp\ccMV2RSc.s:295    .text.efuse_boot_address_get:0000000000000000 efuse_boot_address_get
C:\Users\stapi\AppData\Local\Temp\ccMV2RSc.s:298    .text.efuse_boot_address_get:0000000000000000 .L0 
C:\Users\stapi\AppData\Local\Temp\ccMV2RSc.s:299    .text.efuse_boot_address_get:0000000000000000 .L0 
C:\Users\stapi\AppData\Local\Temp\ccMV2RSc.s:300    .text.efuse_boot_address_get:0000000000000000 .L0 
C:\Users\stapi\AppData\Local\Temp\ccMV2RSc.s:301    .text.efuse_boot_address_get:0000000000000000 .L0 
C:\Users\stapi\AppData\Local\Temp\ccMV2RSc.s:304    .text.efuse_boot_address_get:0000000000000008 .L0 
C:\Users\stapi\AppData\Local\Temp\ccMV2RSc.s:305    .text.efuse_boot_address_get:000000000000000a .L0 
C:\Users\stapi\AppData\Local\Temp\ccMV2RSc.s:312    .text.efuse_flag_get:0000000000000000 efuse_flag_get
C:\Users\stapi\AppData\Local\Temp\ccMV2RSc.s:315    .text.efuse_flag_get:0000000000000000 .L0 
C:\Users\stapi\AppData\Local\Temp\ccMV2RSc.s:317    .text.efuse_flag_get:0000000000000000 .L0 
C:\Users\stapi\AppData\Local\Temp\ccMV2RSc.s:318    .text.efuse_flag_get:0000000000000000 .L0 
C:\Users\stapi\AppData\Local\Temp\ccMV2RSc.s:319    .text.efuse_flag_get:0000000000000000 .L0 
C:\Users\stapi\AppData\Local\Temp\ccMV2RSc.s:322    .text.efuse_flag_get:0000000000000008 .L0 
C:\Users\stapi\AppData\Local\Temp\ccMV2RSc.s:325    .text.efuse_flag_get:000000000000000a .L0 
C:\Users\stapi\AppData\Local\Temp\ccMV2RSc.s:327    .text.efuse_flag_get:0000000000000010 .L0 
C:\Users\stapi\AppData\Local\Temp\ccMV2RSc.s:334    .text.efuse_read:0000000000000000 efuse_read
C:\Users\stapi\AppData\Local\Temp\ccMV2RSc.s:337    .text.efuse_read:0000000000000000 .L0 
C:\Users\stapi\AppData\Local\Temp\ccMV2RSc.s:339    .text.efuse_read:0000000000000000 .L0 
C:\Users\stapi\AppData\Local\Temp\ccMV2RSc.s:340    .text.efuse_read:0000000000000008 .L0 
C:\Users\stapi\AppData\Local\Temp\ccMV2RSc.s:341    .text.efuse_read:0000000000000008 .L0 
C:\Users\stapi\AppData\Local\Temp\ccMV2RSc.s:342    .text.efuse_read:0000000000000008 .L0 
C:\Users\stapi\AppData\Local\Temp\ccMV2RSc.s:343    .text.efuse_read:0000000000000008 .L0 
C:\Users\stapi\AppData\Local\Temp\ccMV2RSc.s:344    .text.efuse_read:0000000000000008 .L0 
C:\Users\stapi\AppData\Local\Temp\ccMV2RSc.s:345    .text.efuse_read:0000000000000008 .L0 
C:\Users\stapi\AppData\Local\Temp\ccMV2RSc.s:348    .text.efuse_read:0000000000000008 .L0 
C:\Users\stapi\AppData\Local\Temp\ccMV2RSc.s:349    .text.efuse_read:0000000000000008 .L0 
C:\Users\stapi\AppData\Local\Temp\ccMV2RSc.s:350    .text.efuse_read:0000000000000008 .L0 
C:\Users\stapi\AppData\Local\Temp\ccMV2RSc.s:351    .text.efuse_read:0000000000000008 .L0 
C:\Users\stapi\AppData\Local\Temp\ccMV2RSc.s:352    .text.efuse_read:0000000000000008 .L0 
C:\Users\stapi\AppData\Local\Temp\ccMV2RSc.s:353    .text.efuse_read:0000000000000008 .L0 
C:\Users\stapi\AppData\Local\Temp\ccMV2RSc.s:355    .text.efuse_read:000000000000000a .L0 
C:\Users\stapi\AppData\Local\Temp\ccMV2RSc.s:357    .text.efuse_read:000000000000000c .L0 
C:\Users\stapi\AppData\Local\Temp\ccMV2RSc.s:360    .text.efuse_read:0000000000000010 .L0 
C:\Users\stapi\AppData\Local\Temp\ccMV2RSc.s:365    .text.efuse_read:0000000000000016 .L0 
C:\Users\stapi\AppData\Local\Temp\ccMV2RSc.s:366    .text.efuse_read:0000000000000016 .L0 
C:\Users\stapi\AppData\Local\Temp\ccMV2RSc.s:371    .text.efuse_read:000000000000001e .L0 
C:\Users\stapi\AppData\Local\Temp\ccMV2RSc.s:375    .text.efuse_read:0000000000000020 .L0 
C:\Users\stapi\AppData\Local\Temp\ccMV2RSc.s:376    .text.efuse_read:0000000000000028 .L0 
C:\Users\stapi\AppData\Local\Temp\ccMV2RSc.s:377    .text.efuse_read:0000000000000028 .L0 
C:\Users\stapi\AppData\Local\Temp\ccMV2RSc.s:378    .text.efuse_read:0000000000000028 .L0 
C:\Users\stapi\AppData\Local\Temp\ccMV2RSc.s:379    .text.efuse_read:0000000000000028 .L0 
C:\Users\stapi\AppData\Local\Temp\ccMV2RSc.s:380    .text.efuse_read:0000000000000028 .L0 
C:\Users\stapi\AppData\Local\Temp\ccMV2RSc.s:381    .text.efuse_read:0000000000000028 .L0 
C:\Users\stapi\AppData\Local\Temp\ccMV2RSc.s:382    .text.efuse_read:0000000000000028 .L0 
C:\Users\stapi\AppData\Local\Temp\ccMV2RSc.s:385    .text.efuse_read:0000000000000028 .L0 
C:\Users\stapi\AppData\Local\Temp\ccMV2RSc.s:387    .text.efuse_read:0000000000000028 .L0 
C:\Users\stapi\AppData\Local\Temp\ccMV2RSc.s:390    .text.efuse_read:0000000000000030 .L0 
C:\Users\stapi\AppData\Local\Temp\ccMV2RSc.s:391    .text.efuse_read:0000000000000030 .L0 
C:\Users\stapi\AppData\Local\Temp\ccMV2RSc.s:394    .text.efuse_read:0000000000000036 .L0 
C:\Users\stapi\AppData\Local\Temp\ccMV2RSc.s:395    .text.efuse_read:0000000000000036 .L0 
C:\Users\stapi\AppData\Local\Temp\ccMV2RSc.s:399    .text.efuse_read:0000000000000040 .L0 
C:\Users\stapi\AppData\Local\Temp\ccMV2RSc.s:403    .text.efuse_read:0000000000000042 .L0 
C:\Users\stapi\AppData\Local\Temp\ccMV2RSc.s:404    .text.efuse_read:0000000000000042 .L0 
C:\Users\stapi\AppData\Local\Temp\ccMV2RSc.s:408    .text.efuse_read:000000000000004c .L0 
C:\Users\stapi\AppData\Local\Temp\ccMV2RSc.s:411    .text.efuse_read:000000000000004e .L0 
C:\Users\stapi\AppData\Local\Temp\ccMV2RSc.s:413    .text.efuse_read:0000000000000050 .L0 
C:\Users\stapi\AppData\Local\Temp\ccMV2RSc.s:416    .text.efuse_read:0000000000000054 .L0 
C:\Users\stapi\AppData\Local\Temp\ccMV2RSc.s:417    .text.efuse_read:0000000000000054 .L0 
C:\Users\stapi\AppData\Local\Temp\ccMV2RSc.s:419    .text.efuse_read:0000000000000056 .L0 
C:\Users\stapi\AppData\Local\Temp\ccMV2RSc.s:420    .text.efuse_read:0000000000000056 .L0 
C:\Users\stapi\AppData\Local\Temp\ccMV2RSc.s:422    .text.efuse_read:0000000000000058 .L0 
C:\Users\stapi\AppData\Local\Temp\ccMV2RSc.s:424    .text.efuse_read:000000000000005c .L0 
C:\Users\stapi\AppData\Local\Temp\ccMV2RSc.s:429    .text.efuse_read:0000000000000062 .L0 
C:\Users\stapi\AppData\Local\Temp\ccMV2RSc.s:430    .text.efuse_read:0000000000000062 .L0 
C:\Users\stapi\AppData\Local\Temp\ccMV2RSc.s:431    .text.efuse_read:0000000000000062 .L0 
C:\Users\stapi\AppData\Local\Temp\ccMV2RSc.s:433    .text.efuse_read:0000000000000066 .L0 
C:\Users\stapi\AppData\Local\Temp\ccMV2RSc.s:436    .text.efuse_read:0000000000000068 .L0 
C:\Users\stapi\AppData\Local\Temp\ccMV2RSc.s:437    .text.efuse_read:0000000000000068 .L0 
C:\Users\stapi\AppData\Local\Temp\ccMV2RSc.s:440    .text.efuse_read:0000000000000070 .L0 
C:\Users\stapi\AppData\Local\Temp\ccMV2RSc.s:442    .text.efuse_read:0000000000000072 .L0 
C:\Users\stapi\AppData\Local\Temp\ccMV2RSc.s:447    .text.efuse_read:0000000000000078 .L0 
C:\Users\stapi\AppData\Local\Temp\ccMV2RSc.s:448    .text.efuse_read:0000000000000078 .L0 
C:\Users\stapi\AppData\Local\Temp\ccMV2RSc.s:450    .text.efuse_read:000000000000007c .L0 
C:\Users\stapi\AppData\Local\Temp\ccMV2RSc.s:452    .text.efuse_read:000000000000007e .L0 
C:\Users\stapi\AppData\Local\Temp\ccMV2RSc.s:453    .text.efuse_read:000000000000007e .L0 
C:\Users\stapi\AppData\Local\Temp\ccMV2RSc.s:461    .text.efuse_read:000000000000008a .L0 
C:\Users\stapi\AppData\Local\Temp\ccMV2RSc.s:462    .text.efuse_read:000000000000008a .L0 
C:\Users\stapi\AppData\Local\Temp\ccMV2RSc.s:466    .text.efuse_read:0000000000000090 .L0 
C:\Users\stapi\AppData\Local\Temp\ccMV2RSc.s:467    .text.efuse_read:0000000000000090 .L0 
C:\Users\stapi\AppData\Local\Temp\ccMV2RSc.s:470    .text.efuse_read:0000000000000092 .L0 
C:\Users\stapi\AppData\Local\Temp\ccMV2RSc.s:472    .text.efuse_read:0000000000000096 .L0 
C:\Users\stapi\AppData\Local\Temp\ccMV2RSc.s:474    .text.efuse_read:0000000000000098 .L0 
C:\Users\stapi\AppData\Local\Temp\ccMV2RSc.s:478    .text.efuse_read:00000000000000a0 .L0 
C:\Users\stapi\AppData\Local\Temp\ccMV2RSc.s:479    .text.efuse_read:00000000000000a0 .L0 
C:\Users\stapi\AppData\Local\Temp\ccMV2RSc.s:480    .text.efuse_read:00000000000000a0 .L0 
C:\Users\stapi\AppData\Local\Temp\ccMV2RSc.s:482    .text.efuse_read:00000000000000a4 .L0 
C:\Users\stapi\AppData\Local\Temp\ccMV2RSc.s:483    .text.efuse_read:00000000000000a4 .L0 
C:\Users\stapi\AppData\Local\Temp\ccMV2RSc.s:486    .text.efuse_read:00000000000000ac .L0 
C:\Users\stapi\AppData\Local\Temp\ccMV2RSc.s:488    .text.efuse_read:00000000000000ae .L0 
C:\Users\stapi\AppData\Local\Temp\ccMV2RSc.s:491    .text.efuse_read:00000000000000b6 .L0 
C:\Users\stapi\AppData\Local\Temp\ccMV2RSc.s:492    .text.efuse_read:00000000000000b6 .L0 
C:\Users\stapi\AppData\Local\Temp\ccMV2RSc.s:493    .text.efuse_read:00000000000000b8 .L0 
C:\Users\stapi\AppData\Local\Temp\ccMV2RSc.s:500    .text.efuse_write:0000000000000000 efuse_write
C:\Users\stapi\AppData\Local\Temp\ccMV2RSc.s:503    .text.efuse_write:0000000000000000 .L0 
C:\Users\stapi\AppData\Local\Temp\ccMV2RSc.s:505    .text.efuse_write:0000000000000000 .L0 
C:\Users\stapi\AppData\Local\Temp\ccMV2RSc.s:506    .text.efuse_write:0000000000000000 .L0 
C:\Users\stapi\AppData\Local\Temp\ccMV2RSc.s:507    .text.efuse_write:0000000000000000 .L0 
C:\Users\stapi\AppData\Local\Temp\ccMV2RSc.s:508    .text.efuse_write:0000000000000000 .L0 
C:\Users\stapi\AppData\Local\Temp\ccMV2RSc.s:509    .text.efuse_write:0000000000000000 .L0 
C:\Users\stapi\AppData\Local\Temp\ccMV2RSc.s:510    .text.efuse_write:0000000000000000 .L0 
C:\Users\stapi\AppData\Local\Temp\ccMV2RSc.s:511    .text.efuse_write:0000000000000000 .L0 
C:\Users\stapi\AppData\Local\Temp\ccMV2RSc.s:513    .text.efuse_write:0000000000000002 .L0 
C:\Users\stapi\AppData\Local\Temp\ccMV2RSc.s:516    .text.efuse_write:0000000000000006 .L0 
C:\Users\stapi\AppData\Local\Temp\ccMV2RSc.s:521    .text.efuse_write:000000000000000c .L0 
C:\Users\stapi\AppData\Local\Temp\ccMV2RSc.s:522    .text.efuse_write:000000000000000c .L0 
C:\Users\stapi\AppData\Local\Temp\ccMV2RSc.s:526    .text.efuse_write:0000000000000014 .L0 
C:\Users\stapi\AppData\Local\Temp\ccMV2RSc.s:529    .text.efuse_write:0000000000000016 .L0 
C:\Users\stapi\AppData\Local\Temp\ccMV2RSc.s:533    .text.efuse_write:0000000000000018 .L0 
C:\Users\stapi\AppData\Local\Temp\ccMV2RSc.s:536    .text.efuse_write:0000000000000020 .L0 
C:\Users\stapi\AppData\Local\Temp\ccMV2RSc.s:537    .text.efuse_write:0000000000000020 .L0 
C:\Users\stapi\AppData\Local\Temp\ccMV2RSc.s:539    .text.efuse_write:0000000000000024 .L0 
C:\Users\stapi\AppData\Local\Temp\ccMV2RSc.s:542    .text.efuse_write:000000000000002a .L0 
C:\Users\stapi\AppData\Local\Temp\ccMV2RSc.s:543    .text.efuse_write:000000000000002a .L0 
C:\Users\stapi\AppData\Local\Temp\ccMV2RSc.s:546    .text.efuse_write:0000000000000030 .L0 
C:\Users\stapi\AppData\Local\Temp\ccMV2RSc.s:547    .text.efuse_write:0000000000000030 .L0 
C:\Users\stapi\AppData\Local\Temp\ccMV2RSc.s:551    .text.efuse_write:000000000000003a .L0 
C:\Users\stapi\AppData\Local\Temp\ccMV2RSc.s:555    .text.efuse_write:000000000000003c .L0 
C:\Users\stapi\AppData\Local\Temp\ccMV2RSc.s:556    .text.efuse_write:0000000000000044 .L0 
C:\Users\stapi\AppData\Local\Temp\ccMV2RSc.s:557    .text.efuse_write:0000000000000044 .L0 
C:\Users\stapi\AppData\Local\Temp\ccMV2RSc.s:558    .text.efuse_write:0000000000000044 .L0 
C:\Users\stapi\AppData\Local\Temp\ccMV2RSc.s:560    .text.efuse_write:0000000000000044 .L0 
C:\Users\stapi\AppData\Local\Temp\ccMV2RSc.s:561    .text.efuse_write:0000000000000044 .L0 
C:\Users\stapi\AppData\Local\Temp\ccMV2RSc.s:564    .text.efuse_write:000000000000004c .L0 
C:\Users\stapi\AppData\Local\Temp\ccMV2RSc.s:567    .text.efuse_write:000000000000004e .L0 
C:\Users\stapi\AppData\Local\Temp\ccMV2RSc.s:569    .text.efuse_write:0000000000000050 .L0 
C:\Users\stapi\AppData\Local\Temp\ccMV2RSc.s:572    .text.efuse_write:0000000000000058 .L0 
C:\Users\stapi\AppData\Local\Temp\ccMV2RSc.s:573    .text.efuse_write:0000000000000058 .L0 
C:\Users\stapi\AppData\Local\Temp\ccMV2RSc.s:578    .text.efuse_write:0000000000000068 .L0 
C:\Users\stapi\AppData\Local\Temp\ccMV2RSc.s:579    .text.efuse_write:0000000000000068 .L0 
C:\Users\stapi\AppData\Local\Temp\ccMV2RSc.s:581    .text.efuse_write:000000000000006c .L0 
C:\Users\stapi\AppData\Local\Temp\ccMV2RSc.s:584    .text.efuse_write:0000000000000070 .L0 
C:\Users\stapi\AppData\Local\Temp\ccMV2RSc.s:585    .text.efuse_write:0000000000000070 .L0 
C:\Users\stapi\AppData\Local\Temp\ccMV2RSc.s:589    .text.efuse_write:0000000000000072 .L0 
C:\Users\stapi\AppData\Local\Temp\ccMV2RSc.s:590    .text.efuse_write:0000000000000072 .L0 
C:\Users\stapi\AppData\Local\Temp\ccMV2RSc.s:595    .text.efuse_write:000000000000007e .L0 
C:\Users\stapi\AppData\Local\Temp\ccMV2RSc.s:597    .text.efuse_write:0000000000000080 .L0 
C:\Users\stapi\AppData\Local\Temp\ccMV2RSc.s:598    .text.efuse_write:0000000000000080 .L0 
C:\Users\stapi\AppData\Local\Temp\ccMV2RSc.s:599    .text.efuse_write:0000000000000080 .L0 
C:\Users\stapi\AppData\Local\Temp\ccMV2RSc.s:601    .text.efuse_write:0000000000000084 .L0 
C:\Users\stapi\AppData\Local\Temp\ccMV2RSc.s:602    .text.efuse_write:0000000000000084 .L0 
C:\Users\stapi\AppData\Local\Temp\ccMV2RSc.s:606    .text.efuse_write:000000000000008c .L0 
C:\Users\stapi\AppData\Local\Temp\ccMV2RSc.s:609    .text.efuse_write:0000000000000090 .L0 
C:\Users\stapi\AppData\Local\Temp\ccMV2RSc.s:614    .text.efuse_write:0000000000000098 .L0 
C:\Users\stapi\AppData\Local\Temp\ccMV2RSc.s:615    .text.efuse_write:0000000000000098 .L0 
C:\Users\stapi\AppData\Local\Temp\ccMV2RSc.s:616    .text.efuse_write:0000000000000098 .L0 
C:\Users\stapi\AppData\Local\Temp\ccMV2RSc.s:618    .text.efuse_write:000000000000009a .L0 
C:\Users\stapi\AppData\Local\Temp\ccMV2RSc.s:621    .text.efuse_write:000000000000009c .L0 
C:\Users\stapi\AppData\Local\Temp\ccMV2RSc.s:622    .text.efuse_write:000000000000009c .L0 
C:\Users\stapi\AppData\Local\Temp\ccMV2RSc.s:625    .text.efuse_write:00000000000000a4 .L0 
C:\Users\stapi\AppData\Local\Temp\ccMV2RSc.s:627    .text.efuse_write:00000000000000a6 .L0 
C:\Users\stapi\AppData\Local\Temp\ccMV2RSc.s:630    .text.efuse_write:00000000000000a8 .L0 
C:\Users\stapi\AppData\Local\Temp\ccMV2RSc.s:633    .text.efuse_write:00000000000000aa .L0 
C:\Users\stapi\AppData\Local\Temp\ccMV2RSc.s:634    .text.efuse_write:00000000000000b2 .L0 
C:\Users\stapi\AppData\Local\Temp\ccMV2RSc.s:635    .text.efuse_write:00000000000000b2 .L0 
C:\Users\stapi\AppData\Local\Temp\ccMV2RSc.s:636    .text.efuse_write:00000000000000b2 .L0 
C:\Users\stapi\AppData\Local\Temp\ccMV2RSc.s:640    .text.efuse_write:00000000000000b2 .L0 
C:\Users\stapi\AppData\Local\Temp\ccMV2RSc.s:641    .text.efuse_write:00000000000000b2 .L0 
C:\Users\stapi\AppData\Local\Temp\ccMV2RSc.s:643    .text.efuse_write:00000000000000b6 .L0 
C:\Users\stapi\AppData\Local\Temp\ccMV2RSc.s:645    .text.efuse_write:00000000000000b8 .L0 
C:\Users\stapi\AppData\Local\Temp\ccMV2RSc.s:646    .text.efuse_write:00000000000000b8 .L0 
C:\Users\stapi\AppData\Local\Temp\ccMV2RSc.s:653    .text.efuse_write:00000000000000c4 .L0 
C:\Users\stapi\AppData\Local\Temp\ccMV2RSc.s:654    .text.efuse_write:00000000000000c4 .L0 
C:\Users\stapi\AppData\Local\Temp\ccMV2RSc.s:655    .text.efuse_write:00000000000000c4 .L0 
C:\Users\stapi\AppData\Local\Temp\ccMV2RSc.s:657    .text.efuse_write:00000000000000c4 .L0 
C:\Users\stapi\AppData\Local\Temp\ccMV2RSc.s:658    .text.efuse_write:00000000000000c4 .L0 
C:\Users\stapi\AppData\Local\Temp\ccMV2RSc.s:660    .text.efuse_write:00000000000000c6 .L0 
C:\Users\stapi\AppData\Local\Temp\ccMV2RSc.s:661    .text.efuse_write:00000000000000c6 .L0 
C:\Users\stapi\AppData\Local\Temp\ccMV2RSc.s:665    .text.efuse_write:00000000000000d0 .L0 
C:\Users\stapi\AppData\Local\Temp\ccMV2RSc.s:667    .text.efuse_write:00000000000000d2 .L0 
C:\Users\stapi\AppData\Local\Temp\ccMV2RSc.s:670    .text.efuse_write:00000000000000d6 .L0 
C:\Users\stapi\AppData\Local\Temp\ccMV2RSc.s:671    .text.efuse_write:00000000000000d6 .L0 
C:\Users\stapi\AppData\Local\Temp\ccMV2RSc.s:675    .text.efuse_write:00000000000000de .L0 
C:\Users\stapi\AppData\Local\Temp\ccMV2RSc.s:676    .text.efuse_write:00000000000000de .L0 
C:\Users\stapi\AppData\Local\Temp\ccMV2RSc.s:681    .text.efuse_write:00000000000000ee .L0 
C:\Users\stapi\AppData\Local\Temp\ccMV2RSc.s:682    .text.efuse_write:00000000000000ee .L0 
C:\Users\stapi\AppData\Local\Temp\ccMV2RSc.s:683    .text.efuse_write:00000000000000f0 .L0 
C:\Users\stapi\AppData\Local\Temp\ccMV2RSc.s:690    .text.efuse_boot_config:0000000000000000 efuse_boot_config
C:\Users\stapi\AppData\Local\Temp\ccMV2RSc.s:693    .text.efuse_boot_config:0000000000000000 .L0 
C:\Users\stapi\AppData\Local\Temp\ccMV2RSc.s:695    .text.efuse_boot_config:0000000000000000 .L0 
C:\Users\stapi\AppData\Local\Temp\ccMV2RSc.s:696    .text.efuse_boot_config:0000000000000000 .L0 
C:\Users\stapi\AppData\Local\Temp\ccMV2RSc.s:697    .text.efuse_boot_config:0000000000000000 .L0 
C:\Users\stapi\AppData\Local\Temp\ccMV2RSc.s:701    .text.efuse_boot_config:0000000000000008 .L0 
C:\Users\stapi\AppData\Local\Temp\ccMV2RSc.s:702    .text.efuse_boot_config:0000000000000008 .L0 
C:\Users\stapi\AppData\Local\Temp\ccMV2RSc.s:710    .text.efuse_boot_config:0000000000000014 .L0 
C:\Users\stapi\AppData\Local\Temp\ccMV2RSc.s:713    .text.efuse_boot_config:0000000000000016 .L0 
C:\Users\stapi\AppData\Local\Temp\ccMV2RSc.s:714    .text.efuse_boot_config:0000000000000018 .L0 
C:\Users\stapi\AppData\Local\Temp\ccMV2RSc.s:721    .text.efuse_control1_config:0000000000000000 efuse_control1_config
C:\Users\stapi\AppData\Local\Temp\ccMV2RSc.s:724    .text.efuse_control1_config:0000000000000000 .L0 
C:\Users\stapi\AppData\Local\Temp\ccMV2RSc.s:726    .text.efuse_control1_config:0000000000000000 .L0 
C:\Users\stapi\AppData\Local\Temp\ccMV2RSc.s:727    .text.efuse_control1_config:0000000000000000 .L0 
C:\Users\stapi\AppData\Local\Temp\ccMV2RSc.s:728    .text.efuse_control1_config:0000000000000000 .L0 
C:\Users\stapi\AppData\Local\Temp\ccMV2RSc.s:732    .text.efuse_control1_config:0000000000000008 .L0 
C:\Users\stapi\AppData\Local\Temp\ccMV2RSc.s:733    .text.efuse_control1_config:0000000000000008 .L0 
C:\Users\stapi\AppData\Local\Temp\ccMV2RSc.s:739    .text.efuse_control1_config:0000000000000012 .L0 
C:\Users\stapi\AppData\Local\Temp\ccMV2RSc.s:742    .text.efuse_control1_config:0000000000000014 .L0 
C:\Users\stapi\AppData\Local\Temp\ccMV2RSc.s:743    .text.efuse_control1_config:0000000000000016 .L0 
C:\Users\stapi\AppData\Local\Temp\ccMV2RSc.s:750    .text.efuse_fp_config:0000000000000000 efuse_fp_config
C:\Users\stapi\AppData\Local\Temp\ccMV2RSc.s:753    .text.efuse_fp_config:0000000000000000 .L0 
C:\Users\stapi\AppData\Local\Temp\ccMV2RSc.s:755    .text.efuse_fp_config:0000000000000000 .L0 
C:\Users\stapi\AppData\Local\Temp\ccMV2RSc.s:756    .text.efuse_fp_config:0000000000000000 .L0 
C:\Users\stapi\AppData\Local\Temp\ccMV2RSc.s:757    .text.efuse_fp_config:0000000000000000 .L0 
C:\Users\stapi\AppData\Local\Temp\ccMV2RSc.s:761    .text.efuse_fp_config:0000000000000008 .L0 
C:\Users\stapi\AppData\Local\Temp\ccMV2RSc.s:762    .text.efuse_fp_config:0000000000000008 .L0 
C:\Users\stapi\AppData\Local\Temp\ccMV2RSc.s:770    .text.efuse_fp_config:0000000000000014 .L0 
C:\Users\stapi\AppData\Local\Temp\ccMV2RSc.s:773    .text.efuse_fp_config:0000000000000016 .L0 
C:\Users\stapi\AppData\Local\Temp\ccMV2RSc.s:774    .text.efuse_fp_config:0000000000000018 .L0 
C:\Users\stapi\AppData\Local\Temp\ccMV2RSc.s:781    .text.efuse_user_control_config:0000000000000000 efuse_user_control_config
C:\Users\stapi\AppData\Local\Temp\ccMV2RSc.s:784    .text.efuse_user_control_config:0000000000000000 .L0 
C:\Users\stapi\AppData\Local\Temp\ccMV2RSc.s:786    .text.efuse_user_control_config:0000000000000000 .L0 
C:\Users\stapi\AppData\Local\Temp\ccMV2RSc.s:787    .text.efuse_user_control_config:0000000000000000 .L0 
C:\Users\stapi\AppData\Local\Temp\ccMV2RSc.s:788    .text.efuse_user_control_config:0000000000000000 .L0 
C:\Users\stapi\AppData\Local\Temp\ccMV2RSc.s:792    .text.efuse_user_control_config:0000000000000008 .L0 
C:\Users\stapi\AppData\Local\Temp\ccMV2RSc.s:793    .text.efuse_user_control_config:0000000000000008 .L0 
C:\Users\stapi\AppData\Local\Temp\ccMV2RSc.s:801    .text.efuse_user_control_config:0000000000000014 .L0 
C:\Users\stapi\AppData\Local\Temp\ccMV2RSc.s:804    .text.efuse_user_control_config:0000000000000016 .L0 
C:\Users\stapi\AppData\Local\Temp\ccMV2RSc.s:805    .text.efuse_user_control_config:0000000000000018 .L0 
C:\Users\stapi\AppData\Local\Temp\ccMV2RSc.s:812    .text.efuse_res_write:0000000000000000 efuse_res_write
C:\Users\stapi\AppData\Local\Temp\ccMV2RSc.s:815    .text.efuse_res_write:0000000000000000 .L0 
C:\Users\stapi\AppData\Local\Temp\ccMV2RSc.s:817    .text.efuse_res_write:0000000000000000 .L0 
C:\Users\stapi\AppData\Local\Temp\ccMV2RSc.s:818    .text.efuse_res_write:0000000000000000 .L0 
C:\Users\stapi\AppData\Local\Temp\ccMV2RSc.s:819    .text.efuse_res_write:0000000000000000 .L0 
C:\Users\stapi\AppData\Local\Temp\ccMV2RSc.s:823    .text.efuse_res_write:0000000000000008 .L0 
C:\Users\stapi\AppData\Local\Temp\ccMV2RSc.s:824    .text.efuse_res_write:0000000000000008 .L0 
C:\Users\stapi\AppData\Local\Temp\ccMV2RSc.s:832    .text.efuse_res_write:0000000000000014 .L0 
C:\Users\stapi\AppData\Local\Temp\ccMV2RSc.s:835    .text.efuse_res_write:0000000000000016 .L0 
C:\Users\stapi\AppData\Local\Temp\ccMV2RSc.s:836    .text.efuse_res_write:0000000000000018 .L0 
C:\Users\stapi\AppData\Local\Temp\ccMV2RSc.s:843    .text.efuse_aes_key_write:0000000000000000 efuse_aes_key_write
C:\Users\stapi\AppData\Local\Temp\ccMV2RSc.s:846    .text.efuse_aes_key_write:0000000000000000 .L0 
C:\Users\stapi\AppData\Local\Temp\ccMV2RSc.s:848    .text.efuse_aes_key_write:0000000000000000 .L0 
C:\Users\stapi\AppData\Local\Temp\ccMV2RSc.s:849    .text.efuse_aes_key_write:0000000000000000 .L0 
C:\Users\stapi\AppData\Local\Temp\ccMV2RSc.s:850    .text.efuse_aes_key_write:0000000000000000 .L0 
C:\Users\stapi\AppData\Local\Temp\ccMV2RSc.s:854    .text.efuse_aes_key_write:0000000000000008 .L0 
C:\Users\stapi\AppData\Local\Temp\ccMV2RSc.s:855    .text.efuse_aes_key_write:0000000000000008 .L0 
C:\Users\stapi\AppData\Local\Temp\ccMV2RSc.s:861    .text.efuse_aes_key_write:0000000000000012 .L0 
C:\Users\stapi\AppData\Local\Temp\ccMV2RSc.s:864    .text.efuse_aes_key_write:0000000000000014 .L0 
C:\Users\stapi\AppData\Local\Temp\ccMV2RSc.s:865    .text.efuse_aes_key_write:0000000000000016 .L0 
C:\Users\stapi\AppData\Local\Temp\ccMV2RSc.s:872    .text.efuse_rotpk_key_write:0000000000000000 efuse_rotpk_key_write
C:\Users\stapi\AppData\Local\Temp\ccMV2RSc.s:875    .text.efuse_rotpk_key_write:0000000000000000 .L0 
C:\Users\stapi\AppData\Local\Temp\ccMV2RSc.s:877    .text.efuse_rotpk_key_write:0000000000000000 .L0 
C:\Users\stapi\AppData\Local\Temp\ccMV2RSc.s:878    .text.efuse_rotpk_key_write:0000000000000000 .L0 
C:\Users\stapi\AppData\Local\Temp\ccMV2RSc.s:879    .text.efuse_rotpk_key_write:0000000000000000 .L0 
C:\Users\stapi\AppData\Local\Temp\ccMV2RSc.s:883    .text.efuse_rotpk_key_write:000000000000000a .L0 
C:\Users\stapi\AppData\Local\Temp\ccMV2RSc.s:884    .text.efuse_rotpk_key_write:000000000000000a .L0 
C:\Users\stapi\AppData\Local\Temp\ccMV2RSc.s:890    .text.efuse_rotpk_key_write:0000000000000016 .L0 
C:\Users\stapi\AppData\Local\Temp\ccMV2RSc.s:893    .text.efuse_rotpk_key_write:0000000000000018 .L0 
C:\Users\stapi\AppData\Local\Temp\ccMV2RSc.s:894    .text.efuse_rotpk_key_write:000000000000001a .L0 
C:\Users\stapi\AppData\Local\Temp\ccMV2RSc.s:901    .text.efuse_user_data_write:0000000000000000 efuse_user_data_write
C:\Users\stapi\AppData\Local\Temp\ccMV2RSc.s:904    .text.efuse_user_data_write:0000000000000000 .L0 
C:\Users\stapi\AppData\Local\Temp\ccMV2RSc.s:906    .text.efuse_user_data_write:0000000000000000 .L0 
C:\Users\stapi\AppData\Local\Temp\ccMV2RSc.s:907    .text.efuse_user_data_write:0000000000000000 .L0 
C:\Users\stapi\AppData\Local\Temp\ccMV2RSc.s:908    .text.efuse_user_data_write:0000000000000000 .L0 
C:\Users\stapi\AppData\Local\Temp\ccMV2RSc.s:912    .text.efuse_user_data_write:000000000000000a .L0 
C:\Users\stapi\AppData\Local\Temp\ccMV2RSc.s:913    .text.efuse_user_data_write:000000000000000a .L0 
C:\Users\stapi\AppData\Local\Temp\ccMV2RSc.s:921    .text.efuse_user_data_write:000000000000001a .L0 
C:\Users\stapi\AppData\Local\Temp\ccMV2RSc.s:924    .text.efuse_user_data_write:000000000000001c .L0 
C:\Users\stapi\AppData\Local\Temp\ccMV2RSc.s:925    .text.efuse_user_data_write:000000000000001e .L0 
C:\Users\stapi\AppData\Local\Temp\ccMV2RSc.s:932    .text.efuse_lock_config:0000000000000000 efuse_lock_config
C:\Users\stapi\AppData\Local\Temp\ccMV2RSc.s:935    .text.efuse_lock_config:0000000000000000 .L0 
C:\Users\stapi\AppData\Local\Temp\ccMV2RSc.s:937    .text.efuse_lock_config:0000000000000000 .L0 
C:\Users\stapi\AppData\Local\Temp\ccMV2RSc.s:938    .text.efuse_lock_config:0000000000000008 .L0 
C:\Users\stapi\AppData\Local\Temp\ccMV2RSc.s:939    .text.efuse_lock_config:0000000000000008 .L0 
C:\Users\stapi\AppData\Local\Temp\ccMV2RSc.s:941    .text.efuse_lock_config:0000000000000008 .L0 
C:\Users\stapi\AppData\Local\Temp\ccMV2RSc.s:942    .text.efuse_lock_config:0000000000000008 .L0 
C:\Users\stapi\AppData\Local\Temp\ccMV2RSc.s:943    .text.efuse_lock_config:0000000000000008 .L0 
C:\Users\stapi\AppData\Local\Temp\ccMV2RSc.s:944    .text.efuse_lock_config:000000000000000a .L0 
C:\Users\stapi\AppData\Local\Temp\ccMV2RSc.s:946    .text.efuse_lock_config:000000000000000a .L0 
C:\Users\stapi\AppData\Local\Temp\ccMV2RSc.s:948    .text.efuse_lock_config:000000000000000c .L0 
C:\Users\stapi\AppData\Local\Temp\ccMV2RSc.s:949    .text.efuse_lock_config:000000000000000c .L0 
C:\Users\stapi\AppData\Local\Temp\ccMV2RSc.s:952    .text.efuse_lock_config:0000000000000012 .L0 
C:\Users\stapi\AppData\Local\Temp\ccMV2RSc.s:958    .text.efuse_lock_config:0000000000000018 .L0 
C:\Users\stapi\AppData\Local\Temp\ccMV2RSc.s:962    .text.efuse_lock_config:0000000000000020 .L0 
C:\Users\stapi\AppData\Local\Temp\ccMV2RSc.s:963    .text.efuse_lock_config:0000000000000022 .L0 
C:\Users\stapi\AppData\Local\Temp\ccMV2RSc.s:964    .text.efuse_lock_config:0000000000000022 .L0 
C:\Users\stapi\AppData\Local\Temp\ccMV2RSc.s:966    .text.efuse_lock_config:000000000000002a .L0 
C:\Users\stapi\AppData\Local\Temp\ccMV2RSc.s:967    .text.efuse_lock_config:000000000000002a .L0 
C:\Users\stapi\AppData\Local\Temp\ccMV2RSc.s:970    .text.efuse_lock_config:000000000000002a .L0 
C:\Users\stapi\AppData\Local\Temp\ccMV2RSc.s:972    .text.efuse_lock_config:000000000000002a .L0 
C:\Users\stapi\AppData\Local\Temp\ccMV2RSc.s:973    .text.efuse_lock_config:000000000000002a .L0 
C:\Users\stapi\AppData\Local\Temp\ccMV2RSc.s:976    .text.efuse_lock_config:0000000000000030 .L0 
C:\Users\stapi\AppData\Local\Temp\ccMV2RSc.s:984    .text.efuse_lock_config:0000000000000038 .L0 
C:\Users\stapi\AppData\Local\Temp\ccMV2RSc.s:985    .text.efuse_lock_config:0000000000000038 .L0 
C:\Users\stapi\AppData\Local\Temp\ccMV2RSc.s:986    .text.efuse_lock_config:0000000000000038 .L0 
C:\Users\stapi\AppData\Local\Temp\ccMV2RSc.s:990    .text.efuse_lock_config:0000000000000042 .L0 
C:\Users\stapi\AppData\Local\Temp\ccMV2RSc.s:991    .text.efuse_lock_config:0000000000000042 .L0 
C:\Users\stapi\AppData\Local\Temp\ccMV2RSc.s:995    .text.efuse_lock_config:0000000000000048 .L0 
C:\Users\stapi\AppData\Local\Temp\ccMV2RSc.s:1000   .text.efuse_lock_config:0000000000000050 .L0 
C:\Users\stapi\AppData\Local\Temp\ccMV2RSc.s:1007   .text.efuse_flag_clear:0000000000000000 efuse_flag_clear
C:\Users\stapi\AppData\Local\Temp\ccMV2RSc.s:1010   .text.efuse_flag_clear:0000000000000000 .L0 
C:\Users\stapi\AppData\Local\Temp\ccMV2RSc.s:1012   .text.efuse_flag_clear:0000000000000000 .L0 
C:\Users\stapi\AppData\Local\Temp\ccMV2RSc.s:1013   .text.efuse_flag_clear:0000000000000000 .L0 
C:\Users\stapi\AppData\Local\Temp\ccMV2RSc.s:1014   .text.efuse_flag_clear:0000000000000000 .L0 
C:\Users\stapi\AppData\Local\Temp\ccMV2RSc.s:1019   .text.efuse_flag_clear:000000000000000e .L0 
C:\Users\stapi\AppData\Local\Temp\ccMV2RSc.s:1020   .text.efuse_flag_clear:0000000000000010 .L0 
C:\Users\stapi\AppData\Local\Temp\ccMV2RSc.s:1027   .text.efuse_interrupt_enable:0000000000000000 efuse_interrupt_enable
C:\Users\stapi\AppData\Local\Temp\ccMV2RSc.s:1029   .text.efuse_interrupt_enable:0000000000000000 .L0 
C:\Users\stapi\AppData\Local\Temp\ccMV2RSc.s:1031   .text.efuse_interrupt_enable:0000000000000008 .L0 
C:\Users\stapi\AppData\Local\Temp\ccMV2RSc.s:1038   .text.efuse_interrupt_disable:0000000000000000 efuse_interrupt_disable
C:\Users\stapi\AppData\Local\Temp\ccMV2RSc.s:1041   .text.efuse_interrupt_disable:0000000000000000 .L0 
C:\Users\stapi\AppData\Local\Temp\ccMV2RSc.s:1043   .text.efuse_interrupt_disable:0000000000000000 .L0 
C:\Users\stapi\AppData\Local\Temp\ccMV2RSc.s:1044   .text.efuse_interrupt_disable:0000000000000000 .L0 
C:\Users\stapi\AppData\Local\Temp\ccMV2RSc.s:1045   .text.efuse_interrupt_disable:0000000000000000 .L0 
C:\Users\stapi\AppData\Local\Temp\ccMV2RSc.s:1051   .text.efuse_interrupt_disable:0000000000000010 .L0 
C:\Users\stapi\AppData\Local\Temp\ccMV2RSc.s:1052   .text.efuse_interrupt_disable:0000000000000012 .L0 
C:\Users\stapi\AppData\Local\Temp\ccMV2RSc.s:1059   .text.efuse_interrupt_flag_get:0000000000000000 efuse_interrupt_flag_get
C:\Users\stapi\AppData\Local\Temp\ccMV2RSc.s:1061   .text.efuse_interrupt_flag_get:0000000000000000 .L0 
C:\Users\stapi\AppData\Local\Temp\ccMV2RSc.s:1063   .text.efuse_interrupt_flag_get:0000000000000008 .L0 
C:\Users\stapi\AppData\Local\Temp\ccMV2RSc.s:1070   .text.efuse_interrupt_flag_clear:0000000000000000 efuse_interrupt_flag_clear
C:\Users\stapi\AppData\Local\Temp\ccMV2RSc.s:1072   .text.efuse_interrupt_flag_clear:0000000000000000 .L0 
C:\Users\stapi\AppData\Local\Temp\ccMV2RSc.s:1074   .text.efuse_interrupt_flag_clear:0000000000000008 .L0 
C:\Users\stapi\AppData\Local\Temp\ccMV2RSc.s:52     .text.efuse_res_read:0000000000000018 .L0 
C:\Users\stapi\AppData\Local\Temp\ccMV2RSc.s:103    .text.efuse_aes_key_read:000000000000001a .L0 
C:\Users\stapi\AppData\Local\Temp\ccMV2RSc.s:146    .text.efuse_rotpk_key_read:0000000000000026 .L0 
C:\Users\stapi\AppData\Local\Temp\ccMV2RSc.s:197    .text.efuse_puid_read:000000000000001a .L0 
C:\Users\stapi\AppData\Local\Temp\ccMV2RSc.s:248    .text.efuse_huk_key_read:000000000000001a .L0 
C:\Users\stapi\AppData\Local\Temp\ccMV2RSc.s:291    .text.efuse_user_data_read:0000000000000026 .L0 
C:\Users\stapi\AppData\Local\Temp\ccMV2RSc.s:308    .text.efuse_boot_address_get:000000000000000a .L0 
C:\Users\stapi\AppData\Local\Temp\ccMV2RSc.s:330    .text.efuse_flag_get:0000000000000010 .L0 
C:\Users\stapi\AppData\Local\Temp\ccMV2RSc.s:496    .text.efuse_read:00000000000000b8 .L0 
C:\Users\stapi\AppData\Local\Temp\ccMV2RSc.s:686    .text.efuse_write:00000000000000f0 .L0 
C:\Users\stapi\AppData\Local\Temp\ccMV2RSc.s:717    .text.efuse_boot_config:0000000000000018 .L0 
C:\Users\stapi\AppData\Local\Temp\ccMV2RSc.s:746    .text.efuse_control1_config:0000000000000016 .L0 
C:\Users\stapi\AppData\Local\Temp\ccMV2RSc.s:777    .text.efuse_fp_config:0000000000000018 .L0 
C:\Users\stapi\AppData\Local\Temp\ccMV2RSc.s:808    .text.efuse_user_control_config:0000000000000018 .L0 
C:\Users\stapi\AppData\Local\Temp\ccMV2RSc.s:839    .text.efuse_res_write:0000000000000018 .L0 
C:\Users\stapi\AppData\Local\Temp\ccMV2RSc.s:868    .text.efuse_aes_key_write:0000000000000016 .L0 
C:\Users\stapi\AppData\Local\Temp\ccMV2RSc.s:897    .text.efuse_rotpk_key_write:000000000000001a .L0 
C:\Users\stapi\AppData\Local\Temp\ccMV2RSc.s:928    .text.efuse_user_data_write:000000000000001e .L0 
C:\Users\stapi\AppData\Local\Temp\ccMV2RSc.s:1003   .text.efuse_lock_config:0000000000000050 .L0 
C:\Users\stapi\AppData\Local\Temp\ccMV2RSc.s:1023   .text.efuse_flag_clear:0000000000000010 .L0 
C:\Users\stapi\AppData\Local\Temp\ccMV2RSc.s:1055   .text.efuse_interrupt_disable:0000000000000012 .L0 
                     .debug_frame:0000000000000000 .L0 
C:\Users\stapi\AppData\Local\Temp\ccMV2RSc.s:126    .text.efuse_rotpk_key_read:0000000000000014 .L4
C:\Users\stapi\AppData\Local\Temp\ccMV2RSc.s:271    .text.efuse_user_data_read:0000000000000014 .L9
C:\Users\stapi\AppData\Local\Temp\ccMV2RSc.s:363    .text.efuse_read:0000000000000016 .L14
C:\Users\stapi\AppData\Local\Temp\ccMV2RSc.s:384    .text.efuse_read:0000000000000028 .L15
C:\Users\stapi\AppData\Local\Temp\ccMV2RSc.s:369    .text.efuse_read:000000000000001e .L17
C:\Users\stapi\AppData\Local\Temp\ccMV2RSc.s:445    .text.efuse_read:0000000000000078 .L18
C:\Users\stapi\AppData\Local\Temp\ccMV2RSc.s:459    .text.efuse_read:000000000000008a .L20
C:\Users\stapi\AppData\Local\Temp\ccMV2RSc.s:427    .text.efuse_read:0000000000000062 .L21
C:\Users\stapi\AppData\Local\Temp\ccMV2RSc.s:401    .text.efuse_read:0000000000000042 .L19
C:\Users\stapi\AppData\Local\Temp\ccMV2RSc.s:468    .text.efuse_read:0000000000000092 .L22
C:\Users\stapi\AppData\Local\Temp\ccMV2RSc.s:373    .text.efuse_read:0000000000000020 .L13
C:\Users\stapi\AppData\Local\Temp\ccMV2RSc.s:519    .text.efuse_write:000000000000000c .L32
C:\Users\stapi\AppData\Local\Temp\ccMV2RSc.s:531    .text.efuse_write:0000000000000018 .L33
C:\Users\stapi\AppData\Local\Temp\ccMV2RSc.s:524    .text.efuse_write:0000000000000014 .L49
C:\Users\stapi\AppData\Local\Temp\ccMV2RSc.s:638    .text.efuse_write:00000000000000b2 .L36
C:\Users\stapi\AppData\Local\Temp\ccMV2RSc.s:587    .text.efuse_write:0000000000000072 .L38
C:\Users\stapi\AppData\Local\Temp\ccMV2RSc.s:652    .text.efuse_write:00000000000000c4 .L39
C:\Users\stapi\AppData\Local\Temp\ccMV2RSc.s:612    .text.efuse_write:0000000000000098 .L40
C:\Users\stapi\AppData\Local\Temp\ccMV2RSc.s:553    .text.efuse_write:000000000000003c .L37
C:\Users\stapi\AppData\Local\Temp\ccMV2RSc.s:628    .text.efuse_write:00000000000000a8 .L35
C:\Users\stapi\AppData\Local\Temp\ccMV2RSc.s:631    .text.efuse_write:00000000000000aa .L31
C:\Users\stapi\AppData\Local\Temp\ccMV2RSc.s:708    .text.efuse_boot_config:0000000000000014 .L53
C:\Users\stapi\AppData\Local\Temp\ccMV2RSc.s:737    .text.efuse_control1_config:0000000000000012 .L60
C:\Users\stapi\AppData\Local\Temp\ccMV2RSc.s:768    .text.efuse_fp_config:0000000000000014 .L67
C:\Users\stapi\AppData\Local\Temp\ccMV2RSc.s:799    .text.efuse_user_control_config:0000000000000014 .L74
C:\Users\stapi\AppData\Local\Temp\ccMV2RSc.s:830    .text.efuse_res_write:0000000000000014 .L81
C:\Users\stapi\AppData\Local\Temp\ccMV2RSc.s:859    .text.efuse_aes_key_write:0000000000000012 .L88
C:\Users\stapi\AppData\Local\Temp\ccMV2RSc.s:888    .text.efuse_rotpk_key_write:0000000000000016 .L95
C:\Users\stapi\AppData\Local\Temp\ccMV2RSc.s:919    .text.efuse_user_data_write:000000000000001a .L102
C:\Users\stapi\AppData\Local\Temp\ccMV2RSc.s:969    .text.efuse_lock_config:000000000000002a .L108
C:\Users\stapi\AppData\Local\Temp\ccMV2RSc.s:982    .text.efuse_lock_config:0000000000000038 .L110
C:\Users\stapi\AppData\Local\Temp\ccMV2RSc.s:956    .text.efuse_lock_config:0000000000000018 .L116
C:\Users\stapi\AppData\Local\Temp\ccMV2RSc.s:993    .text.efuse_lock_config:0000000000000048 .L111
C:\Users\stapi\AppData\Local\Temp\ccMV2RSc.s:960    .text.efuse_lock_config:0000000000000020 .L107
C:\Users\stapi\AppData\Local\Temp\ccMV2RSc.s:2185   .debug_abbrev:0000000000000000 .Ldebug_abbrev0
C:\Users\stapi\AppData\Local\Temp\ccMV2RSc.s:3807   .debug_str:0000000000000110 .LASF79
C:\Users\stapi\AppData\Local\Temp\ccMV2RSc.s:3913   .debug_str:0000000000000589 .LASF80
C:\Users\stapi\AppData\Local\Temp\ccMV2RSc.s:3901   .debug_str:00000000000004b7 .LASF81
C:\Users\stapi\AppData\Local\Temp\ccMV2RSc.s:3723   .debug_ranges:0000000000000000 .Ldebug_ranges0
C:\Users\stapi\AppData\Local\Temp\ccMV2RSc.s:3769   .debug_line:0000000000000000 .Ldebug_line0
C:\Users\stapi\AppData\Local\Temp\ccMV2RSc.s:3857   .debug_str:0000000000000360 .LASF0
C:\Users\stapi\AppData\Local\Temp\ccMV2RSc.s:3851   .debug_str:0000000000000333 .LASF1
C:\Users\stapi\AppData\Local\Temp\ccMV2RSc.s:3833   .debug_str:00000000000002b7 .LASF6
C:\Users\stapi\AppData\Local\Temp\ccMV2RSc.s:3847   .debug_str:0000000000000313 .LASF2
C:\Users\stapi\AppData\Local\Temp\ccMV2RSc.s:3813   .debug_str:0000000000000221 .LASF3
C:\Users\stapi\AppData\Local\Temp\ccMV2RSc.s:3869   .debug_str:00000000000003b5 .LASF4
C:\Users\stapi\AppData\Local\Temp\ccMV2RSc.s:3827   .debug_str:0000000000000281 .LASF5
C:\Users\stapi\AppData\Local\Temp\ccMV2RSc.s:3793   .debug_str:00000000000000a9 .LASF7
C:\Users\stapi\AppData\Local\Temp\ccMV2RSc.s:3899   .debug_str:00000000000004a5 .LASF8
C:\Users\stapi\AppData\Local\Temp\ccMV2RSc.s:3791   .debug_str:000000000000009b .LASF9
C:\Users\stapi\AppData\Local\Temp\ccMV2RSc.s:3821   .debug_str:0000000000000246 .LASF10
C:\Users\stapi\AppData\Local\Temp\ccMV2RSc.s:3779   .debug_str:0000000000000045 .LASF11
C:\Users\stapi\AppData\Local\Temp\ccMV2RSc.s:3809   .debug_str:0000000000000209 .LASF12
C:\Users\stapi\AppData\Local\Temp\ccMV2RSc.s:3855   .debug_str:0000000000000357 .LASF13
C:\Users\stapi\AppData\Local\Temp\ccMV2RSc.s:3863   .debug_str:0000000000000393 .LASF14
C:\Users\stapi\AppData\Local\Temp\ccMV2RSc.s:3933   .debug_str:00000000000006c4 .LASF15
C:\Users\stapi\AppData\Local\Temp\ccMV2RSc.s:3839   .debug_str:00000000000002d9 .LASF16
C:\Users\stapi\AppData\Local\Temp\ccMV2RSc.s:3867   .debug_str:00000000000003ad .LASF17
C:\Users\stapi\AppData\Local\Temp\ccMV2RSc.s:3789   .debug_str:0000000000000091 .LASF18
C:\Users\stapi\AppData\Local\Temp\ccMV2RSc.s:3819   .debug_str:000000000000023b .LASF19
C:\Users\stapi\AppData\Local\Temp\ccMV2RSc.s:3801   .debug_str:00000000000000dd .LASF20
C:\Users\stapi\AppData\Local\Temp\ccMV2RSc.s:3803   .debug_str:00000000000000e8 .LASF21
C:\Users\stapi\AppData\Local\Temp\ccMV2RSc.s:3823   .debug_str:000000000000025d .LASF22
C:\Users\stapi\AppData\Local\Temp\ccMV2RSc.s:3815   .debug_str:000000000000022b .LASF23
C:\Users\stapi\AppData\Local\Temp\ccMV2RSc.s:3799   .debug_str:00000000000000d2 .LASF24
C:\Users\stapi\AppData\Local\Temp\ccMV2RSc.s:3905   .debug_str:0000000000000549 .LASF25
C:\Users\stapi\AppData\Local\Temp\ccMV2RSc.s:3829   .debug_str:000000000000028a .LASF26
C:\Users\stapi\AppData\Local\Temp\ccMV2RSc.s:3875   .debug_str:00000000000003eb .LASF27
C:\Users\stapi\AppData\Local\Temp\ccMV2RSc.s:3893   .debug_str:000000000000046f .LASF28
C:\Users\stapi\AppData\Local\Temp\ccMV2RSc.s:3849   .debug_str:0000000000000321 .LASF29
C:\Users\stapi\AppData\Local\Temp\ccMV2RSc.s:3919   .debug_str:000000000000065f .LASF30
C:\Users\stapi\AppData\Local\Temp\ccMV2RSc.s:3797   .debug_str:00000000000000c3 .LASF31
C:\Users\stapi\AppData\Local\Temp\ccMV2RSc.s:3777   .debug_str:0000000000000036 .LASF32
C:\Users\stapi\AppData\Local\Temp\ccMV2RSc.s:3897   .debug_str:0000000000000493 .LASF33
C:\Users\stapi\AppData\Local\Temp\ccMV2RSc.s:3873   .debug_str:00000000000003d7 .LASF34
C:\Users\stapi\AppData\Local\Temp\ccMV2RSc.s:3795   .debug_str:00000000000000b4 .LASF35
C:\Users\stapi\AppData\Local\Temp\ccMV2RSc.s:3775   .debug_str:0000000000000027 .LASF36
C:\Users\stapi\AppData\Local\Temp\ccMV2RSc.s:3891   .debug_str:000000000000045d .LASF37
C:\Users\stapi\AppData\Local\Temp\ccMV2RSc.s:3929   .debug_str:0000000000000698 .LASF38
C:\Users\stapi\AppData\Local\Temp\ccMV2RSc.s:3859   .debug_str:000000000000036d .LASF39
C:\Users\stapi\AppData\Local\Temp\ccMV2RSc.s:3825   .debug_str:000000000000026d .LASF40
C:\Users\stapi\AppData\Local\Temp\ccMV2RSc.s:3773   .debug_str:0000000000000012 .LASF41
C:\Users\stapi\AppData\Local\Temp\ccMV2RSc.s:3771   .debug_str:0000000000000000 .LASF42
C:\Users\stapi\AppData\Local\Temp\ccMV2RSc.s:3843   .debug_str:00000000000002f1 .LASF43
C:\Users\stapi\AppData\Local\Temp\ccMV2RSc.s:3865   .debug_str:0000000000000399 .LASF44
C:\Users\stapi\AppData\Local\Temp\ccMV2RSc.s:3917   .debug_str:0000000000000644 .LASF46
C:\Users\stapi\AppData\Local\Temp\ccMV2RSc.s:3883   .debug_str:0000000000000425 .LASF45
C:\Users\stapi\AppData\Local\Temp\ccMV2RSc.s:3785   .debug_str:0000000000000070 .LASF82
C:\Users\stapi\AppData\Local\Temp\ccMV2RSc.s:3853   .debug_str:000000000000033f .LASF49
C:\Users\stapi\AppData\Local\Temp\ccMV2RSc.s:1039   .text.efuse_interrupt_disable:0000000000000000 .LFB386
C:\Users\stapi\AppData\Local\Temp\ccMV2RSc.s:1053   .text.efuse_interrupt_disable:0000000000000012 .LFE386
C:\Users\stapi\AppData\Local\Temp\ccMV2RSc.s:3837   .debug_str:00000000000002d2 .LASF48
C:\Users\stapi\AppData\Local\Temp\ccMV2RSc.s:2702   .debug_loc:0000000000000000 .LLST38
C:\Users\stapi\AppData\Local\Temp\ccMV2RSc.s:3909   .debug_str:0000000000000567 .LASF47
C:\Users\stapi\AppData\Local\Temp\ccMV2RSc.s:3835   .debug_str:00000000000002c1 .LASF50
C:\Users\stapi\AppData\Local\Temp\ccMV2RSc.s:1008   .text.efuse_flag_clear:0000000000000000 .LFB384
C:\Users\stapi\AppData\Local\Temp\ccMV2RSc.s:1021   .text.efuse_flag_clear:0000000000000010 .LFE384
C:\Users\stapi\AppData\Local\Temp\ccMV2RSc.s:3923   .debug_str:0000000000000683 .LASF51
C:\Users\stapi\AppData\Local\Temp\ccMV2RSc.s:3881   .debug_str:0000000000000416 .LASF60
C:\Users\stapi\AppData\Local\Temp\ccMV2RSc.s:313    .text.efuse_flag_get:0000000000000000 .LFB383
C:\Users\stapi\AppData\Local\Temp\ccMV2RSc.s:328    .text.efuse_flag_get:0000000000000010 .LFE383
C:\Users\stapi\AppData\Local\Temp\ccMV2RSc.s:2716   .debug_loc:0000000000000021 .LLST6
C:\Users\stapi\AppData\Local\Temp\ccMV2RSc.s:3931   .debug_str:00000000000006b2 .LASF52
C:\Users\stapi\AppData\Local\Temp\ccMV2RSc.s:933    .text.efuse_lock_config:0000000000000000 .LFB382
C:\Users\stapi\AppData\Local\Temp\ccMV2RSc.s:1001   .text.efuse_lock_config:0000000000000050 .LFE382
C:\Users\stapi\AppData\Local\Temp\ccMV2RSc.s:2730   .debug_loc:0000000000000042 .LLST37
C:\Users\stapi\AppData\Local\Temp\ccMV2RSc.s:3817   .debug_str:0000000000000236 .LASF54
C:\Users\stapi\AppData\Local\Temp\ccMV2RSc.s:959    .text.efuse_lock_config:0000000000000020 .LVL100
C:\Users\stapi\AppData\Local\Temp\ccMV2RSc.s:3831   .debug_str:00000000000002a0 .LASF83
C:\Users\stapi\AppData\Local\Temp\ccMV2RSc.s:296    .text.efuse_boot_address_get:0000000000000000 .LFB381
C:\Users\stapi\AppData\Local\Temp\ccMV2RSc.s:306    .text.efuse_boot_address_get:000000000000000a .LFE381
C:\Users\stapi\AppData\Local\Temp\ccMV2RSc.s:3921   .debug_str:000000000000066e .LASF53
C:\Users\stapi\AppData\Local\Temp\ccMV2RSc.s:253    .text.efuse_user_data_read:0000000000000000 .LFB380
C:\Users\stapi\AppData\Local\Temp\ccMV2RSc.s:289    .text.efuse_user_data_read:0000000000000026 .LFE380
C:\Users\stapi\AppData\Local\Temp\ccMV2RSc.s:2767   .debug_loc:000000000000009d .LLST5
C:\Users\stapi\AppData\Local\Temp\ccMV2RSc.s:3781   .debug_str:000000000000004a .LASF55
C:\Users\stapi\AppData\Local\Temp\ccMV2RSc.s:202    .text.efuse_huk_key_read:0000000000000000 .LFB379
C:\Users\stapi\AppData\Local\Temp\ccMV2RSc.s:246    .text.efuse_huk_key_read:000000000000001a .LFE379
C:\Users\stapi\AppData\Local\Temp\ccMV2RSc.s:2803   .debug_loc:00000000000000ee .LLST4
C:\Users\stapi\AppData\Local\Temp\ccMV2RSc.s:3879   .debug_str:0000000000000406 .LASF56
C:\Users\stapi\AppData\Local\Temp\ccMV2RSc.s:151    .text.efuse_puid_read:0000000000000000 .LFB378
C:\Users\stapi\AppData\Local\Temp\ccMV2RSc.s:195    .text.efuse_puid_read:000000000000001a .LFE378
C:\Users\stapi\AppData\Local\Temp\ccMV2RSc.s:2831   .debug_loc:0000000000000132 .LLST3
C:\Users\stapi\AppData\Local\Temp\ccMV2RSc.s:3895   .debug_str:000000000000047e .LASF57
C:\Users\stapi\AppData\Local\Temp\ccMV2RSc.s:108    .text.efuse_rotpk_key_read:0000000000000000 .LFB377
C:\Users\stapi\AppData\Local\Temp\ccMV2RSc.s:144    .text.efuse_rotpk_key_read:0000000000000026 .LFE377
C:\Users\stapi\AppData\Local\Temp\ccMV2RSc.s:2859   .debug_loc:0000000000000176 .LLST2
C:\Users\stapi\AppData\Local\Temp\ccMV2RSc.s:3783   .debug_str:000000000000005d .LASF58
C:\Users\stapi\AppData\Local\Temp\ccMV2RSc.s:57     .text.efuse_aes_key_read:0000000000000000 .LFB376
C:\Users\stapi\AppData\Local\Temp\ccMV2RSc.s:101    .text.efuse_aes_key_read:000000000000001a .LFE376
C:\Users\stapi\AppData\Local\Temp\ccMV2RSc.s:2895   .debug_loc:00000000000001c7 .LLST1
C:\Users\stapi\AppData\Local\Temp\ccMV2RSc.s:3871   .debug_str:00000000000003c8 .LASF59
C:\Users\stapi\AppData\Local\Temp\ccMV2RSc.s:14     .text.efuse_res_read:0000000000000000 .LFB375
C:\Users\stapi\AppData\Local\Temp\ccMV2RSc.s:50     .text.efuse_res_read:0000000000000018 .LFE375
C:\Users\stapi\AppData\Local\Temp\ccMV2RSc.s:2923   .debug_loc:000000000000020b .LLST0
C:\Users\stapi\AppData\Local\Temp\ccMV2RSc.s:3861   .debug_str:000000000000037d .LASF61
C:\Users\stapi\AppData\Local\Temp\ccMV2RSc.s:902    .text.efuse_user_data_write:0000000000000000 .LFB374
C:\Users\stapi\AppData\Local\Temp\ccMV2RSc.s:926    .text.efuse_user_data_write:000000000000001e .LFE374
C:\Users\stapi\AppData\Local\Temp\ccMV2RSc.s:3887   .debug_str:0000000000000442 .LASF62
C:\Users\stapi\AppData\Local\Temp\ccMV2RSc.s:2946   .debug_loc:0000000000000243 .LLST35
C:\Users\stapi\AppData\Local\Temp\ccMV2RSc.s:2971   .debug_loc:000000000000027d .LLST36
C:\Users\stapi\AppData\Local\Temp\ccMV2RSc.s:918    .text.efuse_user_data_write:000000000000001a .LVL96
C:\Users\stapi\AppData\Local\Temp\ccMV2RSc.s:3915   .debug_str:000000000000062e .LASF63
C:\Users\stapi\AppData\Local\Temp\ccMV2RSc.s:873    .text.efuse_rotpk_key_write:0000000000000000 .LFB373
C:\Users\stapi\AppData\Local\Temp\ccMV2RSc.s:895    .text.efuse_rotpk_key_write:000000000000001a .LFE373
C:\Users\stapi\AppData\Local\Temp\ccMV2RSc.s:2993   .debug_loc:00000000000002b4 .LLST33
C:\Users\stapi\AppData\Local\Temp\ccMV2RSc.s:3018   .debug_loc:00000000000002ee .LLST34
C:\Users\stapi\AppData\Local\Temp\ccMV2RSc.s:887    .text.efuse_rotpk_key_write:0000000000000016 .LVL91
C:\Users\stapi\AppData\Local\Temp\ccMV2RSc.s:3885   .debug_str:000000000000042e .LASF64
C:\Users\stapi\AppData\Local\Temp\ccMV2RSc.s:844    .text.efuse_aes_key_write:0000000000000000 .LFB372
C:\Users\stapi\AppData\Local\Temp\ccMV2RSc.s:866    .text.efuse_aes_key_write:0000000000000016 .LFE372
C:\Users\stapi\AppData\Local\Temp\ccMV2RSc.s:3040   .debug_loc:0000000000000325 .LLST31
C:\Users\stapi\AppData\Local\Temp\ccMV2RSc.s:3065   .debug_loc:000000000000035f .LLST32
C:\Users\stapi\AppData\Local\Temp\ccMV2RSc.s:858    .text.efuse_aes_key_write:0000000000000012 .LVL87
C:\Users\stapi\AppData\Local\Temp\ccMV2RSc.s:3811   .debug_str:0000000000000211 .LASF65
C:\Users\stapi\AppData\Local\Temp\ccMV2RSc.s:813    .text.efuse_res_write:0000000000000000 .LFB371
C:\Users\stapi\AppData\Local\Temp\ccMV2RSc.s:837    .text.efuse_res_write:0000000000000018 .LFE371
C:\Users\stapi\AppData\Local\Temp\ccMV2RSc.s:3087   .debug_loc:0000000000000396 .LLST29
C:\Users\stapi\AppData\Local\Temp\ccMV2RSc.s:3112   .debug_loc:00000000000003d0 .LLST30
C:\Users\stapi\AppData\Local\Temp\ccMV2RSc.s:829    .text.efuse_res_write:0000000000000014 .LVL83
C:\Users\stapi\AppData\Local\Temp\ccMV2RSc.s:3805   .debug_str:00000000000000f6 .LASF66
C:\Users\stapi\AppData\Local\Temp\ccMV2RSc.s:782    .text.efuse_user_control_config:0000000000000000 .LFB370
C:\Users\stapi\AppData\Local\Temp\ccMV2RSc.s:806    .text.efuse_user_control_config:0000000000000018 .LFE370
C:\Users\stapi\AppData\Local\Temp\ccMV2RSc.s:3134   .debug_loc:0000000000000407 .LLST27
C:\Users\stapi\AppData\Local\Temp\ccMV2RSc.s:3927   .debug_str:000000000000068f .LASF67
C:\Users\stapi\AppData\Local\Temp\ccMV2RSc.s:3159   .debug_loc:0000000000000441 .LLST28
C:\Users\stapi\AppData\Local\Temp\ccMV2RSc.s:798    .text.efuse_user_control_config:0000000000000014 .LVL78
C:\Users\stapi\AppData\Local\Temp\ccMV2RSc.s:3907   .debug_str:0000000000000557 .LASF68
C:\Users\stapi\AppData\Local\Temp\ccMV2RSc.s:751    .text.efuse_fp_config:0000000000000000 .LFB369
C:\Users\stapi\AppData\Local\Temp\ccMV2RSc.s:775    .text.efuse_fp_config:0000000000000018 .LFE369
C:\Users\stapi\AppData\Local\Temp\ccMV2RSc.s:3181   .debug_loc:0000000000000478 .LLST25
C:\Users\stapi\AppData\Local\Temp\ccMV2RSc.s:3937   .debug_str:00000000000006d7 .LASF69
C:\Users\stapi\AppData\Local\Temp\ccMV2RSc.s:3206   .debug_loc:00000000000004b2 .LLST26
C:\Users\stapi\AppData\Local\Temp\ccMV2RSc.s:767    .text.efuse_fp_config:0000000000000014 .LVL73
C:\Users\stapi\AppData\Local\Temp\ccMV2RSc.s:3889   .debug_str:0000000000000447 .LASF70
C:\Users\stapi\AppData\Local\Temp\ccMV2RSc.s:722    .text.efuse_control1_config:0000000000000000 .LFB368
C:\Users\stapi\AppData\Local\Temp\ccMV2RSc.s:744    .text.efuse_control1_config:0000000000000016 .LFE368
C:\Users\stapi\AppData\Local\Temp\ccMV2RSc.s:3228   .debug_loc:00000000000004e9 .LLST23
C:\Users\stapi\AppData\Local\Temp\ccMV2RSc.s:3253   .debug_loc:0000000000000523 .LLST24
C:\Users\stapi\AppData\Local\Temp\ccMV2RSc.s:736    .text.efuse_control1_config:0000000000000012 .LVL68
C:\Users\stapi\AppData\Local\Temp\ccMV2RSc.s:3841   .debug_str:00000000000002df .LASF71
C:\Users\stapi\AppData\Local\Temp\ccMV2RSc.s:691    .text.efuse_boot_config:0000000000000000 .LFB367
C:\Users\stapi\AppData\Local\Temp\ccMV2RSc.s:715    .text.efuse_boot_config:0000000000000018 .LFE367
C:\Users\stapi\AppData\Local\Temp\ccMV2RSc.s:3275   .debug_loc:000000000000055a .LLST21
C:\Users\stapi\AppData\Local\Temp\ccMV2RSc.s:3903   .debug_str:0000000000000540 .LASF72
C:\Users\stapi\AppData\Local\Temp\ccMV2RSc.s:3300   .debug_loc:0000000000000594 .LLST22
C:\Users\stapi\AppData\Local\Temp\ccMV2RSc.s:707    .text.efuse_boot_config:0000000000000014 .LVL64
C:\Users\stapi\AppData\Local\Temp\ccMV2RSc.s:3877   .debug_str:00000000000003fa .LASF73
C:\Users\stapi\AppData\Local\Temp\ccMV2RSc.s:501    .text.efuse_write:0000000000000000 .LFB366
C:\Users\stapi\AppData\Local\Temp\ccMV2RSc.s:684    .text.efuse_write:00000000000000f0 .LFE366
C:\Users\stapi\AppData\Local\Temp\ccMV2RSc.s:3787   .debug_str:0000000000000089 .LASF74
C:\Users\stapi\AppData\Local\Temp\ccMV2RSc.s:3322   .debug_loc:00000000000005cb .LLST14
C:\Users\stapi\AppData\Local\Temp\ccMV2RSc.s:3358   .debug_loc:000000000000061e .LLST15
C:\Users\stapi\AppData\Local\Temp\ccMV2RSc.s:3383   .debug_loc:0000000000000658 .LLST16
C:\Users\stapi\AppData\Local\Temp\ccMV2RSc.s:3408   .debug_loc:0000000000000692 .LLST17
C:\Users\stapi\AppData\Local\Temp\ccMV2RSc.s:3935   .debug_str:00000000000006cf .LASF75
C:\Users\stapi\AppData\Local\Temp\ccMV2RSc.s:3421   .debug_loc:00000000000006b2 .LLST18
C:\Users\stapi\AppData\Local\Temp\ccMV2RSc.s:3845   .debug_str:000000000000030a .LASF76
C:\Users\stapi\AppData\Local\Temp\ccMV2RSc.s:3444   .debug_loc:00000000000006ec .LLST19
C:\Users\stapi\AppData\Local\Temp\ccMV2RSc.s:3925   .debug_str:0000000000000688 .LASF77
C:\Users\stapi\AppData\Local\Temp\ccMV2RSc.s:3465   .debug_loc:0000000000000722 .LLST20
C:\Users\stapi\AppData\Local\Temp\ccMV2RSc.s:623    .text.efuse_write:00000000000000a4 .LVL57
C:\Users\stapi\AppData\Local\Temp\ccMV2RSc.s:3911   .debug_str:000000000000057e .LASF78
C:\Users\stapi\AppData\Local\Temp\ccMV2RSc.s:335    .text.efuse_read:0000000000000000 .LFB365
C:\Users\stapi\AppData\Local\Temp\ccMV2RSc.s:494    .text.efuse_read:00000000000000b8 .LFE365
C:\Users\stapi\AppData\Local\Temp\ccMV2RSc.s:3484   .debug_loc:000000000000074f .LLST7
C:\Users\stapi\AppData\Local\Temp\ccMV2RSc.s:3520   .debug_loc:00000000000007a2 .LLST8
C:\Users\stapi\AppData\Local\Temp\ccMV2RSc.s:3556   .debug_loc:00000000000007f5 .LLST9
C:\Users\stapi\AppData\Local\Temp\ccMV2RSc.s:3583   .debug_loc:000000000000083f .LLST10
C:\Users\stapi\AppData\Local\Temp\ccMV2RSc.s:3596   .debug_loc:000000000000085f .LLST11
C:\Users\stapi\AppData\Local\Temp\ccMV2RSc.s:3625   .debug_loc:00000000000008a4 .LLST12
C:\Users\stapi\AppData\Local\Temp\ccMV2RSc.s:3651   .debug_loc:00000000000008e6 .LLST13
C:\Users\stapi\AppData\Local\Temp\ccMV2RSc.s:438    .text.efuse_read:0000000000000070 .LVL40
C:\Users\stapi\AppData\Local\Temp\ccMV2RSc.s:1042   .text.efuse_interrupt_disable:0000000000000000 .LVL106
C:\Users\stapi\AppData\Local\Temp\ccMV2RSc.s:1048   .text.efuse_interrupt_disable:000000000000000c .LVL107
C:\Users\stapi\AppData\Local\Temp\ccMV2RSc.s:316    .text.efuse_flag_get:0000000000000000 .LVL27
C:\Users\stapi\AppData\Local\Temp\ccMV2RSc.s:323    .text.efuse_flag_get:000000000000000a .LVL28
C:\Users\stapi\AppData\Local\Temp\ccMV2RSc.s:936    .text.efuse_lock_config:0000000000000000 .LVL98
C:\Users\stapi\AppData\Local\Temp\ccMV2RSc.s:955    .text.efuse_lock_config:0000000000000018 .LVL99
C:\Users\stapi\AppData\Local\Temp\ccMV2RSc.s:968    .text.efuse_lock_config:000000000000002a .LVL101
C:\Users\stapi\AppData\Local\Temp\ccMV2RSc.s:979    .text.efuse_lock_config:0000000000000036 .LVL102
C:\Users\stapi\AppData\Local\Temp\ccMV2RSc.s:981    .text.efuse_lock_config:0000000000000038 .LVL103
C:\Users\stapi\AppData\Local\Temp\ccMV2RSc.s:998    .text.efuse_lock_config:000000000000004e .LVL104
C:\Users\stapi\AppData\Local\Temp\ccMV2RSc.s:256    .text.efuse_user_data_read:0000000000000000 .LVL23
C:\Users\stapi\AppData\Local\Temp\ccMV2RSc.s:270    .text.efuse_user_data_read:0000000000000014 .LVL24
C:\Users\stapi\AppData\Local\Temp\ccMV2RSc.s:280    .text.efuse_user_data_read:000000000000001e .LVL25
C:\Users\stapi\AppData\Local\Temp\ccMV2RSc.s:284    .text.efuse_user_data_read:0000000000000020 .LVL26
C:\Users\stapi\AppData\Local\Temp\ccMV2RSc.s:205    .text.efuse_huk_key_read:0000000000000000 .LVL18
C:\Users\stapi\AppData\Local\Temp\ccMV2RSc.s:217    .text.efuse_huk_key_read:000000000000000c .LVL19
C:\Users\stapi\AppData\Local\Temp\ccMV2RSc.s:225    .text.efuse_huk_key_read:0000000000000010 .LVL20
C:\Users\stapi\AppData\Local\Temp\ccMV2RSc.s:233    .text.efuse_huk_key_read:0000000000000014 .LVL21
C:\Users\stapi\AppData\Local\Temp\ccMV2RSc.s:241    .text.efuse_huk_key_read:0000000000000018 .LVL22
C:\Users\stapi\AppData\Local\Temp\ccMV2RSc.s:154    .text.efuse_puid_read:0000000000000000 .LVL13
C:\Users\stapi\AppData\Local\Temp\ccMV2RSc.s:166    .text.efuse_puid_read:000000000000000c .LVL14
C:\Users\stapi\AppData\Local\Temp\ccMV2RSc.s:174    .text.efuse_puid_read:0000000000000010 .LVL15
C:\Users\stapi\AppData\Local\Temp\ccMV2RSc.s:182    .text.efuse_puid_read:0000000000000014 .LVL16
C:\Users\stapi\AppData\Local\Temp\ccMV2RSc.s:190    .text.efuse_puid_read:0000000000000018 .LVL17
C:\Users\stapi\AppData\Local\Temp\ccMV2RSc.s:111    .text.efuse_rotpk_key_read:0000000000000000 .LVL9
C:\Users\stapi\AppData\Local\Temp\ccMV2RSc.s:125    .text.efuse_rotpk_key_read:0000000000000014 .LVL10
C:\Users\stapi\AppData\Local\Temp\ccMV2RSc.s:135    .text.efuse_rotpk_key_read:000000000000001e .LVL11
C:\Users\stapi\AppData\Local\Temp\ccMV2RSc.s:139    .text.efuse_rotpk_key_read:0000000000000020 .LVL12
C:\Users\stapi\AppData\Local\Temp\ccMV2RSc.s:60     .text.efuse_aes_key_read:0000000000000000 .LVL4
C:\Users\stapi\AppData\Local\Temp\ccMV2RSc.s:72     .text.efuse_aes_key_read:000000000000000c .LVL5
C:\Users\stapi\AppData\Local\Temp\ccMV2RSc.s:80     .text.efuse_aes_key_read:0000000000000010 .LVL6
C:\Users\stapi\AppData\Local\Temp\ccMV2RSc.s:88     .text.efuse_aes_key_read:0000000000000014 .LVL7
C:\Users\stapi\AppData\Local\Temp\ccMV2RSc.s:96     .text.efuse_aes_key_read:0000000000000018 .LVL8
C:\Users\stapi\AppData\Local\Temp\ccMV2RSc.s:18     .text.efuse_res_read:0000000000000000 .LVL0
C:\Users\stapi\AppData\Local\Temp\ccMV2RSc.s:29     .text.efuse_res_read:000000000000000a .LVL1
C:\Users\stapi\AppData\Local\Temp\ccMV2RSc.s:37     .text.efuse_res_read:0000000000000010 .LVL2
C:\Users\stapi\AppData\Local\Temp\ccMV2RSc.s:45     .text.efuse_res_read:0000000000000016 .LVL3
C:\Users\stapi\AppData\Local\Temp\ccMV2RSc.s:905    .text.efuse_user_data_write:0000000000000000 .LVL93
C:\Users\stapi\AppData\Local\Temp\ccMV2RSc.s:914    .text.efuse_user_data_write:000000000000000e .LVL94
C:\Users\stapi\AppData\Local\Temp\ccMV2RSc.s:922    .text.efuse_user_data_write:000000000000001c .LVL97
C:\Users\stapi\AppData\Local\Temp\ccMV2RSc.s:916    .text.efuse_user_data_write:0000000000000012 .LVL95
C:\Users\stapi\AppData\Local\Temp\ccMV2RSc.s:876    .text.efuse_rotpk_key_write:0000000000000000 .LVL89
C:\Users\stapi\AppData\Local\Temp\ccMV2RSc.s:891    .text.efuse_rotpk_key_write:0000000000000018 .LVL92
C:\Users\stapi\AppData\Local\Temp\ccMV2RSc.s:885    .text.efuse_rotpk_key_write:000000000000000e .LVL90
C:\Users\stapi\AppData\Local\Temp\ccMV2RSc.s:847    .text.efuse_aes_key_write:0000000000000000 .LVL85
C:\Users\stapi\AppData\Local\Temp\ccMV2RSc.s:862    .text.efuse_aes_key_write:0000000000000014 .LVL88
C:\Users\stapi\AppData\Local\Temp\ccMV2RSc.s:856    .text.efuse_aes_key_write:000000000000000a .LVL86
C:\Users\stapi\AppData\Local\Temp\ccMV2RSc.s:816    .text.efuse_res_write:0000000000000000 .LVL80
C:\Users\stapi\AppData\Local\Temp\ccMV2RSc.s:825    .text.efuse_res_write:000000000000000a .LVL81
C:\Users\stapi\AppData\Local\Temp\ccMV2RSc.s:833    .text.efuse_res_write:0000000000000016 .LVL84
C:\Users\stapi\AppData\Local\Temp\ccMV2RSc.s:827    .text.efuse_res_write:000000000000000c .LVL82
C:\Users\stapi\AppData\Local\Temp\ccMV2RSc.s:785    .text.efuse_user_control_config:0000000000000000 .LVL75
C:\Users\stapi\AppData\Local\Temp\ccMV2RSc.s:794    .text.efuse_user_control_config:000000000000000a .LVL76
C:\Users\stapi\AppData\Local\Temp\ccMV2RSc.s:802    .text.efuse_user_control_config:0000000000000016 .LVL79
C:\Users\stapi\AppData\Local\Temp\ccMV2RSc.s:796    .text.efuse_user_control_config:000000000000000c .LVL77
C:\Users\stapi\AppData\Local\Temp\ccMV2RSc.s:754    .text.efuse_fp_config:0000000000000000 .LVL70
C:\Users\stapi\AppData\Local\Temp\ccMV2RSc.s:763    .text.efuse_fp_config:000000000000000a .LVL71
C:\Users\stapi\AppData\Local\Temp\ccMV2RSc.s:771    .text.efuse_fp_config:0000000000000016 .LVL74
C:\Users\stapi\AppData\Local\Temp\ccMV2RSc.s:765    .text.efuse_fp_config:000000000000000c .LVL72
C:\Users\stapi\AppData\Local\Temp\ccMV2RSc.s:725    .text.efuse_control1_config:0000000000000000 .LVL66
C:\Users\stapi\AppData\Local\Temp\ccMV2RSc.s:740    .text.efuse_control1_config:0000000000000014 .LVL69
C:\Users\stapi\AppData\Local\Temp\ccMV2RSc.s:734    .text.efuse_control1_config:000000000000000a .LVL67
C:\Users\stapi\AppData\Local\Temp\ccMV2RSc.s:694    .text.efuse_boot_config:0000000000000000 .LVL61
C:\Users\stapi\AppData\Local\Temp\ccMV2RSc.s:703    .text.efuse_boot_config:000000000000000a .LVL62
C:\Users\stapi\AppData\Local\Temp\ccMV2RSc.s:711    .text.efuse_boot_config:0000000000000016 .LVL65
C:\Users\stapi\AppData\Local\Temp\ccMV2RSc.s:705    .text.efuse_boot_config:000000000000000c .LVL63
C:\Users\stapi\AppData\Local\Temp\ccMV2RSc.s:504    .text.efuse_write:0000000000000000 .LVL45
C:\Users\stapi\AppData\Local\Temp\ccMV2RSc.s:527    .text.efuse_write:0000000000000016 .LVL48
C:\Users\stapi\AppData\Local\Temp\ccMV2RSc.s:530    .text.efuse_write:0000000000000018 .LVL49
C:\Users\stapi\AppData\Local\Temp\ccMV2RSc.s:586    .text.efuse_write:0000000000000072 .LVL53
C:\Users\stapi\AppData\Local\Temp\ccMV2RSc.s:637    .text.efuse_write:00000000000000b2 .LVL58
C:\Users\stapi\AppData\Local\Temp\ccMV2RSc.s:651    .text.efuse_write:00000000000000c4 .LVL60
C:\Users\stapi\AppData\Local\Temp\ccMV2RSc.s:565    .text.efuse_write:000000000000004e .LVL51
C:\Users\stapi\AppData\Local\Temp\ccMV2RSc.s:611    .text.efuse_write:0000000000000098 .LVL55
C:\Users\stapi\AppData\Local\Temp\ccMV2RSc.s:582    .text.efuse_write:0000000000000070 .LVL52
C:\Users\stapi\AppData\Local\Temp\ccMV2RSc.s:552    .text.efuse_write:000000000000003c .LVL50
C:\Users\stapi\AppData\Local\Temp\ccMV2RSc.s:604    .text.efuse_write:000000000000008c .LVL54
C:\Users\stapi\AppData\Local\Temp\ccMV2RSc.s:649    .text.efuse_write:00000000000000c2 .LVL59
C:\Users\stapi\AppData\Local\Temp\ccMV2RSc.s:514    .text.efuse_write:0000000000000006 .LVL46
C:\Users\stapi\AppData\Local\Temp\ccMV2RSc.s:338    .text.efuse_read:0000000000000000 .LVL29
C:\Users\stapi\AppData\Local\Temp\ccMV2RSc.s:368    .text.efuse_read:000000000000001e .LVL33
C:\Users\stapi\AppData\Local\Temp\ccMV2RSc.s:383    .text.efuse_read:0000000000000028 .LVL35
C:\Users\stapi\AppData\Local\Temp\ccMV2RSc.s:426    .text.efuse_read:0000000000000062 .LVL38
C:\Users\stapi\AppData\Local\Temp\ccMV2RSc.s:444    .text.efuse_read:0000000000000078 .LVL41
C:\Users\stapi\AppData\Local\Temp\ccMV2RSc.s:458    .text.efuse_read:000000000000008a .LVL43
C:\Users\stapi\AppData\Local\Temp\ccMV2RSc.s:409    .text.efuse_read:000000000000004e .LVL37
C:\Users\stapi\AppData\Local\Temp\ccMV2RSc.s:347    .text.efuse_read:0000000000000008 .LVL30
C:\Users\stapi\AppData\Local\Temp\ccMV2RSc.s:372    .text.efuse_read:0000000000000020 .LVL34
C:\Users\stapi\AppData\Local\Temp\ccMV2RSc.s:464    .text.efuse_read:0000000000000090 .LVL44
C:\Users\stapi\AppData\Local\Temp\ccMV2RSc.s:400    .text.efuse_read:0000000000000042 .LVL36
C:\Users\stapi\AppData\Local\Temp\ccMV2RSc.s:456    .text.efuse_read:0000000000000088 .LVL42
C:\Users\stapi\AppData\Local\Temp\ccMV2RSc.s:358    .text.efuse_read:0000000000000010 .LVL31
C:\Users\stapi\AppData\Local\Temp\ccMV2RSc.s:1084   .debug_info:0000000000000000 .Ldebug_info0

UNDEFINED SYMBOLS
__riscv_save_4
__riscv_restore_4
__riscv_save_1
__riscv_restore_1
__riscv_save_0
__riscv_restore_0
