   1              		.file	"gd32vw55x_pmu.c"
   2              		.option nopic
   3              		.attribute arch, "rv32i2p0_m2p0_a2p0_f2p0_c2p0_b_p0p94"
   4              		.attribute unaligned_access, 0
   5              		.attribute stack_align, 16
   6              		.text
   7              	.Ltext0:
   8              		.cfi_sections	.debug_frame
   9              		.section	.text.pmu_deinit,"ax",@progbits
  10              		.align	1
  11              		.globl	pmu_deinit
  13              	pmu_deinit:
  14              	.LFB365:
  15              		.file 1 "C:/Users/stapi/OneDrive/Desktop/GD32VW553/V1_MQTT_OK/GD32VW55X_Wifi_BLE_SDK/GD32VW55x_REL
   1:C:/Users/stapi/OneDrive/Desktop/GD32VW553/V1_MQTT_OK/GD32VW55X_Wifi_BLE_SDK/GD32VW55x_RELEASE_V1.0.2/MSDK/plf/GD32VW55x_standard_peripheral/Source\gd32vw55x_pmu.c **** /*!
   2:C:/Users/stapi/OneDrive/Desktop/GD32VW553/V1_MQTT_OK/GD32VW55X_Wifi_BLE_SDK/GD32VW55x_RELEASE_V1.0.2/MSDK/plf/GD32VW55x_standard_peripheral/Source\gd32vw55x_pmu.c ****     \file    gd32vw55x_pmu.c
   3:C:/Users/stapi/OneDrive/Desktop/GD32VW553/V1_MQTT_OK/GD32VW55X_Wifi_BLE_SDK/GD32VW55x_RELEASE_V1.0.2/MSDK/plf/GD32VW55x_standard_peripheral/Source\gd32vw55x_pmu.c ****     \brief   PMU driver
   4:C:/Users/stapi/OneDrive/Desktop/GD32VW553/V1_MQTT_OK/GD32VW55X_Wifi_BLE_SDK/GD32VW55x_RELEASE_V1.0.2/MSDK/plf/GD32VW55x_standard_peripheral/Source\gd32vw55x_pmu.c **** 
   5:C:/Users/stapi/OneDrive/Desktop/GD32VW553/V1_MQTT_OK/GD32VW55X_Wifi_BLE_SDK/GD32VW55x_RELEASE_V1.0.2/MSDK/plf/GD32VW55x_standard_peripheral/Source\gd32vw55x_pmu.c ****     \version 2023-07-20, V1.0.0, firmware for GD32VW55x
   6:C:/Users/stapi/OneDrive/Desktop/GD32VW553/V1_MQTT_OK/GD32VW55X_Wifi_BLE_SDK/GD32VW55x_RELEASE_V1.0.2/MSDK/plf/GD32VW55x_standard_peripheral/Source\gd32vw55x_pmu.c **** */
   7:C:/Users/stapi/OneDrive/Desktop/GD32VW553/V1_MQTT_OK/GD32VW55X_Wifi_BLE_SDK/GD32VW55x_RELEASE_V1.0.2/MSDK/plf/GD32VW55x_standard_peripheral/Source\gd32vw55x_pmu.c **** 
   8:C:/Users/stapi/OneDrive/Desktop/GD32VW553/V1_MQTT_OK/GD32VW55X_Wifi_BLE_SDK/GD32VW55x_RELEASE_V1.0.2/MSDK/plf/GD32VW55x_standard_peripheral/Source\gd32vw55x_pmu.c **** /*
   9:C:/Users/stapi/OneDrive/Desktop/GD32VW553/V1_MQTT_OK/GD32VW55X_Wifi_BLE_SDK/GD32VW55x_RELEASE_V1.0.2/MSDK/plf/GD32VW55x_standard_peripheral/Source\gd32vw55x_pmu.c ****     Copyright (c) 2023, GigaDevice Semiconductor Inc.
  10:C:/Users/stapi/OneDrive/Desktop/GD32VW553/V1_MQTT_OK/GD32VW55X_Wifi_BLE_SDK/GD32VW55x_RELEASE_V1.0.2/MSDK/plf/GD32VW55x_standard_peripheral/Source\gd32vw55x_pmu.c **** 
  11:C:/Users/stapi/OneDrive/Desktop/GD32VW553/V1_MQTT_OK/GD32VW55X_Wifi_BLE_SDK/GD32VW55x_RELEASE_V1.0.2/MSDK/plf/GD32VW55x_standard_peripheral/Source\gd32vw55x_pmu.c ****     Redistribution and use in source and binary forms, with or without modification,
  12:C:/Users/stapi/OneDrive/Desktop/GD32VW553/V1_MQTT_OK/GD32VW55X_Wifi_BLE_SDK/GD32VW55x_RELEASE_V1.0.2/MSDK/plf/GD32VW55x_standard_peripheral/Source\gd32vw55x_pmu.c **** are permitted provided that the following conditions are met:
  13:C:/Users/stapi/OneDrive/Desktop/GD32VW553/V1_MQTT_OK/GD32VW55X_Wifi_BLE_SDK/GD32VW55x_RELEASE_V1.0.2/MSDK/plf/GD32VW55x_standard_peripheral/Source\gd32vw55x_pmu.c **** 
  14:C:/Users/stapi/OneDrive/Desktop/GD32VW553/V1_MQTT_OK/GD32VW55X_Wifi_BLE_SDK/GD32VW55x_RELEASE_V1.0.2/MSDK/plf/GD32VW55x_standard_peripheral/Source\gd32vw55x_pmu.c ****     1. Redistributions of source code must retain the above copyright notice, this
  15:C:/Users/stapi/OneDrive/Desktop/GD32VW553/V1_MQTT_OK/GD32VW55X_Wifi_BLE_SDK/GD32VW55x_RELEASE_V1.0.2/MSDK/plf/GD32VW55x_standard_peripheral/Source\gd32vw55x_pmu.c ****        list of conditions and the following disclaimer.
  16:C:/Users/stapi/OneDrive/Desktop/GD32VW553/V1_MQTT_OK/GD32VW55X_Wifi_BLE_SDK/GD32VW55x_RELEASE_V1.0.2/MSDK/plf/GD32VW55x_standard_peripheral/Source\gd32vw55x_pmu.c ****     2. Redistributions in binary form must reproduce the above copyright notice,
  17:C:/Users/stapi/OneDrive/Desktop/GD32VW553/V1_MQTT_OK/GD32VW55X_Wifi_BLE_SDK/GD32VW55x_RELEASE_V1.0.2/MSDK/plf/GD32VW55x_standard_peripheral/Source\gd32vw55x_pmu.c ****        this list of conditions and the following disclaimer in the documentation
  18:C:/Users/stapi/OneDrive/Desktop/GD32VW553/V1_MQTT_OK/GD32VW55X_Wifi_BLE_SDK/GD32VW55x_RELEASE_V1.0.2/MSDK/plf/GD32VW55x_standard_peripheral/Source\gd32vw55x_pmu.c ****        and/or other materials provided with the distribution.
  19:C:/Users/stapi/OneDrive/Desktop/GD32VW553/V1_MQTT_OK/GD32VW55X_Wifi_BLE_SDK/GD32VW55x_RELEASE_V1.0.2/MSDK/plf/GD32VW55x_standard_peripheral/Source\gd32vw55x_pmu.c ****     3. Neither the name of the copyright holder nor the names of its contributors
  20:C:/Users/stapi/OneDrive/Desktop/GD32VW553/V1_MQTT_OK/GD32VW55X_Wifi_BLE_SDK/GD32VW55x_RELEASE_V1.0.2/MSDK/plf/GD32VW55x_standard_peripheral/Source\gd32vw55x_pmu.c ****        may be used to endorse or promote products derived from this software without
  21:C:/Users/stapi/OneDrive/Desktop/GD32VW553/V1_MQTT_OK/GD32VW55X_Wifi_BLE_SDK/GD32VW55x_RELEASE_V1.0.2/MSDK/plf/GD32VW55x_standard_peripheral/Source\gd32vw55x_pmu.c ****        specific prior written permission.
  22:C:/Users/stapi/OneDrive/Desktop/GD32VW553/V1_MQTT_OK/GD32VW55X_Wifi_BLE_SDK/GD32VW55x_RELEASE_V1.0.2/MSDK/plf/GD32VW55x_standard_peripheral/Source\gd32vw55x_pmu.c **** 
  23:C:/Users/stapi/OneDrive/Desktop/GD32VW553/V1_MQTT_OK/GD32VW55X_Wifi_BLE_SDK/GD32VW55x_RELEASE_V1.0.2/MSDK/plf/GD32VW55x_standard_peripheral/Source\gd32vw55x_pmu.c ****     THIS SOFTWARE IS PROVIDED BY THE COPYRIGHT HOLDERS AND CONTRIBUTORS "AS IS"
  24:C:/Users/stapi/OneDrive/Desktop/GD32VW553/V1_MQTT_OK/GD32VW55X_Wifi_BLE_SDK/GD32VW55x_RELEASE_V1.0.2/MSDK/plf/GD32VW55x_standard_peripheral/Source\gd32vw55x_pmu.c **** AND ANY EXPRESS OR IMPLIED WARRANTIES, INCLUDING, BUT NOT LIMITED TO, THE IMPLIED
  25:C:/Users/stapi/OneDrive/Desktop/GD32VW553/V1_MQTT_OK/GD32VW55X_Wifi_BLE_SDK/GD32VW55x_RELEASE_V1.0.2/MSDK/plf/GD32VW55x_standard_peripheral/Source\gd32vw55x_pmu.c **** WARRANTIES OF MERCHANTABILITY AND FITNESS FOR A PARTICULAR PURPOSE ARE DISCLAIMED.
  26:C:/Users/stapi/OneDrive/Desktop/GD32VW553/V1_MQTT_OK/GD32VW55X_Wifi_BLE_SDK/GD32VW55x_RELEASE_V1.0.2/MSDK/plf/GD32VW55x_standard_peripheral/Source\gd32vw55x_pmu.c **** IN NO EVENT SHALL THE COPYRIGHT HOLDER OR CONTRIBUTORS BE LIABLE FOR ANY DIRECT,
  27:C:/Users/stapi/OneDrive/Desktop/GD32VW553/V1_MQTT_OK/GD32VW55X_Wifi_BLE_SDK/GD32VW55x_RELEASE_V1.0.2/MSDK/plf/GD32VW55x_standard_peripheral/Source\gd32vw55x_pmu.c **** INDIRECT, INCIDENTAL, SPECIAL, EXEMPLARY, OR CONSEQUENTIAL DAMAGES (INCLUDING, BUT
  28:C:/Users/stapi/OneDrive/Desktop/GD32VW553/V1_MQTT_OK/GD32VW55X_Wifi_BLE_SDK/GD32VW55x_RELEASE_V1.0.2/MSDK/plf/GD32VW55x_standard_peripheral/Source\gd32vw55x_pmu.c **** NOT LIMITED TO, PROCUREMENT OF SUBSTITUTE GOODS OR SERVICES; LOSS OF USE, DATA, OR
  29:C:/Users/stapi/OneDrive/Desktop/GD32VW553/V1_MQTT_OK/GD32VW55X_Wifi_BLE_SDK/GD32VW55x_RELEASE_V1.0.2/MSDK/plf/GD32VW55x_standard_peripheral/Source\gd32vw55x_pmu.c **** PROFITS; OR BUSINESS INTERRUPTION) HOWEVER CAUSED AND ON ANY THEORY OF LIABILITY,
  30:C:/Users/stapi/OneDrive/Desktop/GD32VW553/V1_MQTT_OK/GD32VW55X_Wifi_BLE_SDK/GD32VW55x_RELEASE_V1.0.2/MSDK/plf/GD32VW55x_standard_peripheral/Source\gd32vw55x_pmu.c **** WHETHER IN CONTRACT, STRICT LIABILITY, OR TORT (INCLUDING NEGLIGENCE OR OTHERWISE)
  31:C:/Users/stapi/OneDrive/Desktop/GD32VW553/V1_MQTT_OK/GD32VW55X_Wifi_BLE_SDK/GD32VW55x_RELEASE_V1.0.2/MSDK/plf/GD32VW55x_standard_peripheral/Source\gd32vw55x_pmu.c **** ARISING IN ANY WAY OUT OF THE USE OF THIS SOFTWARE, EVEN IF ADVISED OF THE POSSIBILITY
  32:C:/Users/stapi/OneDrive/Desktop/GD32VW553/V1_MQTT_OK/GD32VW55X_Wifi_BLE_SDK/GD32VW55x_RELEASE_V1.0.2/MSDK/plf/GD32VW55x_standard_peripheral/Source\gd32vw55x_pmu.c **** OF SUCH DAMAGE.
  33:C:/Users/stapi/OneDrive/Desktop/GD32VW553/V1_MQTT_OK/GD32VW55X_Wifi_BLE_SDK/GD32VW55x_RELEASE_V1.0.2/MSDK/plf/GD32VW55x_standard_peripheral/Source\gd32vw55x_pmu.c **** */
  34:C:/Users/stapi/OneDrive/Desktop/GD32VW553/V1_MQTT_OK/GD32VW55X_Wifi_BLE_SDK/GD32VW55x_RELEASE_V1.0.2/MSDK/plf/GD32VW55x_standard_peripheral/Source\gd32vw55x_pmu.c **** 
  35:C:/Users/stapi/OneDrive/Desktop/GD32VW553/V1_MQTT_OK/GD32VW55X_Wifi_BLE_SDK/GD32VW55x_RELEASE_V1.0.2/MSDK/plf/GD32VW55x_standard_peripheral/Source\gd32vw55x_pmu.c **** #include "gd32vw55x_pmu.h"
  36:C:/Users/stapi/OneDrive/Desktop/GD32VW553/V1_MQTT_OK/GD32VW55X_Wifi_BLE_SDK/GD32VW55x_RELEASE_V1.0.2/MSDK/plf/GD32VW55x_standard_peripheral/Source\gd32vw55x_pmu.c **** 
  37:C:/Users/stapi/OneDrive/Desktop/GD32VW553/V1_MQTT_OK/GD32VW55X_Wifi_BLE_SDK/GD32VW55x_RELEASE_V1.0.2/MSDK/plf/GD32VW55x_standard_peripheral/Source\gd32vw55x_pmu.c **** /*!
  38:C:/Users/stapi/OneDrive/Desktop/GD32VW553/V1_MQTT_OK/GD32VW55X_Wifi_BLE_SDK/GD32VW55x_RELEASE_V1.0.2/MSDK/plf/GD32VW55x_standard_peripheral/Source\gd32vw55x_pmu.c ****     \brief      reset PMU register
  39:C:/Users/stapi/OneDrive/Desktop/GD32VW553/V1_MQTT_OK/GD32VW55X_Wifi_BLE_SDK/GD32VW55x_RELEASE_V1.0.2/MSDK/plf/GD32VW55x_standard_peripheral/Source\gd32vw55x_pmu.c ****     \param[in]  none
  40:C:/Users/stapi/OneDrive/Desktop/GD32VW553/V1_MQTT_OK/GD32VW55X_Wifi_BLE_SDK/GD32VW55x_RELEASE_V1.0.2/MSDK/plf/GD32VW55x_standard_peripheral/Source\gd32vw55x_pmu.c ****     \param[out] none
  41:C:/Users/stapi/OneDrive/Desktop/GD32VW553/V1_MQTT_OK/GD32VW55X_Wifi_BLE_SDK/GD32VW55x_RELEASE_V1.0.2/MSDK/plf/GD32VW55x_standard_peripheral/Source\gd32vw55x_pmu.c ****     \retval     none
  42:C:/Users/stapi/OneDrive/Desktop/GD32VW553/V1_MQTT_OK/GD32VW55X_Wifi_BLE_SDK/GD32VW55x_RELEASE_V1.0.2/MSDK/plf/GD32VW55x_standard_peripheral/Source\gd32vw55x_pmu.c **** */
  43:C:/Users/stapi/OneDrive/Desktop/GD32VW553/V1_MQTT_OK/GD32VW55X_Wifi_BLE_SDK/GD32VW55x_RELEASE_V1.0.2/MSDK/plf/GD32VW55x_standard_peripheral/Source\gd32vw55x_pmu.c **** void pmu_deinit(void)
  44:C:/Users/stapi/OneDrive/Desktop/GD32VW553/V1_MQTT_OK/GD32VW55X_Wifi_BLE_SDK/GD32VW55x_RELEASE_V1.0.2/MSDK/plf/GD32VW55x_standard_peripheral/Source\gd32vw55x_pmu.c **** {
  16              		.loc 1 44 1
  17              		.cfi_startproc
  18 0000 17030000 		call	t0,__riscv_save_1
  18      E7020300 
  19              		.cfi_offset 8, -8
  20              		.cfi_offset 1, -4
  21              		.cfi_def_cfa_offset 16
  45:C:/Users/stapi/OneDrive/Desktop/GD32VW553/V1_MQTT_OK/GD32VW55X_Wifi_BLE_SDK/GD32VW55x_RELEASE_V1.0.2/MSDK/plf/GD32VW55x_standard_peripheral/Source\gd32vw55x_pmu.c ****     /* reset PMU */
  46:C:/Users/stapi/OneDrive/Desktop/GD32VW553/V1_MQTT_OK/GD32VW55X_Wifi_BLE_SDK/GD32VW55x_RELEASE_V1.0.2/MSDK/plf/GD32VW55x_standard_peripheral/Source\gd32vw55x_pmu.c ****     rcu_periph_reset_enable(RCU_PMURST);
  22              		.loc 1 46 5
  23 0008 0564     		li	s0,4096
  24 000a 1305C481 		addi	a0,s0,-2020
  25 000e 97000000 		call	rcu_periph_reset_enable
  25      E7800000 
  26              	.LVL0:
  47:C:/Users/stapi/OneDrive/Desktop/GD32VW553/V1_MQTT_OK/GD32VW55X_Wifi_BLE_SDK/GD32VW55x_RELEASE_V1.0.2/MSDK/plf/GD32VW55x_standard_peripheral/Source\gd32vw55x_pmu.c ****     rcu_periph_reset_disable(RCU_PMURST);
  27              		.loc 1 47 5
  28 0016 1305C481 		addi	a0,s0,-2020
  29 001a 97000000 		call	rcu_periph_reset_disable
  29      E7800000 
  30              	.LVL1:
  48:C:/Users/stapi/OneDrive/Desktop/GD32VW553/V1_MQTT_OK/GD32VW55X_Wifi_BLE_SDK/GD32VW55x_RELEASE_V1.0.2/MSDK/plf/GD32VW55x_standard_peripheral/Source\gd32vw55x_pmu.c **** }
  31              		.loc 1 48 1 is_stmt 0
  32 0022 17030000 		tail	__riscv_restore_1
  32      67000300 
  33              		.cfi_restore 8
  34              		.cfi_restore 1
  35              		.cfi_def_cfa_offset 0
  36              		.cfi_endproc
  37              	.LFE365:
  39              		.section	.text.pmu_lvd_select,"ax",@progbits
  40              		.align	1
  41              		.globl	pmu_lvd_select
  43              	pmu_lvd_select:
  44              	.LFB366:
  49:C:/Users/stapi/OneDrive/Desktop/GD32VW553/V1_MQTT_OK/GD32VW55X_Wifi_BLE_SDK/GD32VW55x_RELEASE_V1.0.2/MSDK/plf/GD32VW55x_standard_peripheral/Source\gd32vw55x_pmu.c **** 
  50:C:/Users/stapi/OneDrive/Desktop/GD32VW553/V1_MQTT_OK/GD32VW55X_Wifi_BLE_SDK/GD32VW55x_RELEASE_V1.0.2/MSDK/plf/GD32VW55x_standard_peripheral/Source\gd32vw55x_pmu.c **** /*!
  51:C:/Users/stapi/OneDrive/Desktop/GD32VW553/V1_MQTT_OK/GD32VW55X_Wifi_BLE_SDK/GD32VW55x_RELEASE_V1.0.2/MSDK/plf/GD32VW55x_standard_peripheral/Source\gd32vw55x_pmu.c ****     \brief      select low voltage detector threshold
  52:C:/Users/stapi/OneDrive/Desktop/GD32VW553/V1_MQTT_OK/GD32VW55X_Wifi_BLE_SDK/GD32VW55x_RELEASE_V1.0.2/MSDK/plf/GD32VW55x_standard_peripheral/Source\gd32vw55x_pmu.c ****     \param[in]  lvdt_n:
  53:C:/Users/stapi/OneDrive/Desktop/GD32VW553/V1_MQTT_OK/GD32VW55X_Wifi_BLE_SDK/GD32VW55x_RELEASE_V1.0.2/MSDK/plf/GD32VW55x_standard_peripheral/Source\gd32vw55x_pmu.c ****                 only one parameter can be selected which is shown as below:
  54:C:/Users/stapi/OneDrive/Desktop/GD32VW553/V1_MQTT_OK/GD32VW55X_Wifi_BLE_SDK/GD32VW55x_RELEASE_V1.0.2/MSDK/plf/GD32VW55x_standard_peripheral/Source\gd32vw55x_pmu.c ****       \arg        PMU_LVDT_0: voltage threshold is 2.1V
  55:C:/Users/stapi/OneDrive/Desktop/GD32VW553/V1_MQTT_OK/GD32VW55X_Wifi_BLE_SDK/GD32VW55x_RELEASE_V1.0.2/MSDK/plf/GD32VW55x_standard_peripheral/Source\gd32vw55x_pmu.c ****       \arg        PMU_LVDT_1: voltage threshold is 2.3V
  56:C:/Users/stapi/OneDrive/Desktop/GD32VW553/V1_MQTT_OK/GD32VW55X_Wifi_BLE_SDK/GD32VW55x_RELEASE_V1.0.2/MSDK/plf/GD32VW55x_standard_peripheral/Source\gd32vw55x_pmu.c ****       \arg        PMU_LVDT_2: voltage threshold is 2.4V
  57:C:/Users/stapi/OneDrive/Desktop/GD32VW553/V1_MQTT_OK/GD32VW55X_Wifi_BLE_SDK/GD32VW55x_RELEASE_V1.0.2/MSDK/plf/GD32VW55x_standard_peripheral/Source\gd32vw55x_pmu.c ****       \arg        PMU_LVDT_3: voltage threshold is 2.6V
  58:C:/Users/stapi/OneDrive/Desktop/GD32VW553/V1_MQTT_OK/GD32VW55X_Wifi_BLE_SDK/GD32VW55x_RELEASE_V1.0.2/MSDK/plf/GD32VW55x_standard_peripheral/Source\gd32vw55x_pmu.c ****       \arg        PMU_LVDT_4: voltage threshold is 2.7V
  59:C:/Users/stapi/OneDrive/Desktop/GD32VW553/V1_MQTT_OK/GD32VW55X_Wifi_BLE_SDK/GD32VW55x_RELEASE_V1.0.2/MSDK/plf/GD32VW55x_standard_peripheral/Source\gd32vw55x_pmu.c ****       \arg        PMU_LVDT_5: voltage threshold is 2.9V
  60:C:/Users/stapi/OneDrive/Desktop/GD32VW553/V1_MQTT_OK/GD32VW55X_Wifi_BLE_SDK/GD32VW55x_RELEASE_V1.0.2/MSDK/plf/GD32VW55x_standard_peripheral/Source\gd32vw55x_pmu.c ****       \arg        PMU_LVDT_6: voltage threshold is 3.0V
  61:C:/Users/stapi/OneDrive/Desktop/GD32VW553/V1_MQTT_OK/GD32VW55X_Wifi_BLE_SDK/GD32VW55x_RELEASE_V1.0.2/MSDK/plf/GD32VW55x_standard_peripheral/Source\gd32vw55x_pmu.c ****       \arg        PMU_LVDT_7: voltage threshold is 3.1V
  62:C:/Users/stapi/OneDrive/Desktop/GD32VW553/V1_MQTT_OK/GD32VW55X_Wifi_BLE_SDK/GD32VW55x_RELEASE_V1.0.2/MSDK/plf/GD32VW55x_standard_peripheral/Source\gd32vw55x_pmu.c ****     \param[out] none
  63:C:/Users/stapi/OneDrive/Desktop/GD32VW553/V1_MQTT_OK/GD32VW55X_Wifi_BLE_SDK/GD32VW55x_RELEASE_V1.0.2/MSDK/plf/GD32VW55x_standard_peripheral/Source\gd32vw55x_pmu.c ****     \retval     none
  64:C:/Users/stapi/OneDrive/Desktop/GD32VW553/V1_MQTT_OK/GD32VW55X_Wifi_BLE_SDK/GD32VW55x_RELEASE_V1.0.2/MSDK/plf/GD32VW55x_standard_peripheral/Source\gd32vw55x_pmu.c **** */
  65:C:/Users/stapi/OneDrive/Desktop/GD32VW553/V1_MQTT_OK/GD32VW55X_Wifi_BLE_SDK/GD32VW55x_RELEASE_V1.0.2/MSDK/plf/GD32VW55x_standard_peripheral/Source\gd32vw55x_pmu.c **** void pmu_lvd_select(uint32_t lvdt_n)
  66:C:/Users/stapi/OneDrive/Desktop/GD32VW553/V1_MQTT_OK/GD32VW55X_Wifi_BLE_SDK/GD32VW55x_RELEASE_V1.0.2/MSDK/plf/GD32VW55x_standard_peripheral/Source\gd32vw55x_pmu.c **** {
  45              		.loc 1 66 1 is_stmt 1
  46              		.cfi_startproc
  47              	.LVL2:
  67:C:/Users/stapi/OneDrive/Desktop/GD32VW553/V1_MQTT_OK/GD32VW55X_Wifi_BLE_SDK/GD32VW55x_RELEASE_V1.0.2/MSDK/plf/GD32VW55x_standard_peripheral/Source\gd32vw55x_pmu.c ****     /* disable LVD */
  68:C:/Users/stapi/OneDrive/Desktop/GD32VW553/V1_MQTT_OK/GD32VW55X_Wifi_BLE_SDK/GD32VW55x_RELEASE_V1.0.2/MSDK/plf/GD32VW55x_standard_peripheral/Source\gd32vw55x_pmu.c ****     PMU_CTL0 &= ~PMU_CTL0_LVDEN;
  48              		.loc 1 68 5
  49              		.loc 1 68 14 is_stmt 0
  50 0000 B7770040 		li	a5,1073770496
  51 0004 9443     		lw	a3,0(a5)
  52 0006 BD9A     		andi	a3,a3,-17
  53 0008 94C3     		sw	a3,0(a5)
  69:C:/Users/stapi/OneDrive/Desktop/GD32VW553/V1_MQTT_OK/GD32VW55X_Wifi_BLE_SDK/GD32VW55x_RELEASE_V1.0.2/MSDK/plf/GD32VW55x_standard_peripheral/Source\gd32vw55x_pmu.c ****     /* clear LVDT bits */
  70:C:/Users/stapi/OneDrive/Desktop/GD32VW553/V1_MQTT_OK/GD32VW55X_Wifi_BLE_SDK/GD32VW55x_RELEASE_V1.0.2/MSDK/plf/GD32VW55x_standard_peripheral/Source\gd32vw55x_pmu.c ****     PMU_CTL0 &= ~PMU_CTL0_LVDT;
  54              		.loc 1 70 5 is_stmt 1
  55              		.loc 1 70 14 is_stmt 0
  56 000a 9443     		lw	a3,0(a5)
  57 000c 93F6F6F1 		andi	a3,a3,-225
  58 0010 94C3     		sw	a3,0(a5)
  71:C:/Users/stapi/OneDrive/Desktop/GD32VW553/V1_MQTT_OK/GD32VW55X_Wifi_BLE_SDK/GD32VW55x_RELEASE_V1.0.2/MSDK/plf/GD32VW55x_standard_peripheral/Source\gd32vw55x_pmu.c ****     /* set LVDT bits according to lvdt_n */
  72:C:/Users/stapi/OneDrive/Desktop/GD32VW553/V1_MQTT_OK/GD32VW55X_Wifi_BLE_SDK/GD32VW55x_RELEASE_V1.0.2/MSDK/plf/GD32VW55x_standard_peripheral/Source\gd32vw55x_pmu.c ****     PMU_CTL0 |= lvdt_n;
  59              		.loc 1 72 5 is_stmt 1
  60              		.loc 1 72 14 is_stmt 0
  61 0012 9843     		lw	a4,0(a5)
  62 0014 498F     		or	a4,a4,a0
  63 0016 98C3     		sw	a4,0(a5)
  73:C:/Users/stapi/OneDrive/Desktop/GD32VW553/V1_MQTT_OK/GD32VW55X_Wifi_BLE_SDK/GD32VW55x_RELEASE_V1.0.2/MSDK/plf/GD32VW55x_standard_peripheral/Source\gd32vw55x_pmu.c ****     /* enable LVD */
  74:C:/Users/stapi/OneDrive/Desktop/GD32VW553/V1_MQTT_OK/GD32VW55X_Wifi_BLE_SDK/GD32VW55x_RELEASE_V1.0.2/MSDK/plf/GD32VW55x_standard_peripheral/Source\gd32vw55x_pmu.c ****     PMU_CTL0 |= PMU_CTL0_LVDEN;
  64              		.loc 1 74 5 is_stmt 1
  65              		.loc 1 74 14 is_stmt 0
  66 0018 9843     		lw	a4,0(a5)
  67 001a 13670701 		ori	a4,a4,16
  68 001e 98C3     		sw	a4,0(a5)
  75:C:/Users/stapi/OneDrive/Desktop/GD32VW553/V1_MQTT_OK/GD32VW55X_Wifi_BLE_SDK/GD32VW55x_RELEASE_V1.0.2/MSDK/plf/GD32VW55x_standard_peripheral/Source\gd32vw55x_pmu.c **** }
  69              		.loc 1 75 1
  70 0020 8280     		ret
  71              		.cfi_endproc
  72              	.LFE366:
  74              		.section	.text.pmu_lvd_enable,"ax",@progbits
  75              		.align	1
  76              		.globl	pmu_lvd_enable
  78              	pmu_lvd_enable:
  79              	.LFB367:
  76:C:/Users/stapi/OneDrive/Desktop/GD32VW553/V1_MQTT_OK/GD32VW55X_Wifi_BLE_SDK/GD32VW55x_RELEASE_V1.0.2/MSDK/plf/GD32VW55x_standard_peripheral/Source\gd32vw55x_pmu.c **** 
  77:C:/Users/stapi/OneDrive/Desktop/GD32VW553/V1_MQTT_OK/GD32VW55X_Wifi_BLE_SDK/GD32VW55x_RELEASE_V1.0.2/MSDK/plf/GD32VW55x_standard_peripheral/Source\gd32vw55x_pmu.c **** /*!
  78:C:/Users/stapi/OneDrive/Desktop/GD32VW553/V1_MQTT_OK/GD32VW55X_Wifi_BLE_SDK/GD32VW55x_RELEASE_V1.0.2/MSDK/plf/GD32VW55x_standard_peripheral/Source\gd32vw55x_pmu.c ****     \brief      enable PMU LVD
  79:C:/Users/stapi/OneDrive/Desktop/GD32VW553/V1_MQTT_OK/GD32VW55X_Wifi_BLE_SDK/GD32VW55x_RELEASE_V1.0.2/MSDK/plf/GD32VW55x_standard_peripheral/Source\gd32vw55x_pmu.c ****     \param[in]  none
  80:C:/Users/stapi/OneDrive/Desktop/GD32VW553/V1_MQTT_OK/GD32VW55X_Wifi_BLE_SDK/GD32VW55x_RELEASE_V1.0.2/MSDK/plf/GD32VW55x_standard_peripheral/Source\gd32vw55x_pmu.c ****     \param[out] none
  81:C:/Users/stapi/OneDrive/Desktop/GD32VW553/V1_MQTT_OK/GD32VW55X_Wifi_BLE_SDK/GD32VW55x_RELEASE_V1.0.2/MSDK/plf/GD32VW55x_standard_peripheral/Source\gd32vw55x_pmu.c ****     \retval     none
  82:C:/Users/stapi/OneDrive/Desktop/GD32VW553/V1_MQTT_OK/GD32VW55X_Wifi_BLE_SDK/GD32VW55x_RELEASE_V1.0.2/MSDK/plf/GD32VW55x_standard_peripheral/Source\gd32vw55x_pmu.c **** */
  83:C:/Users/stapi/OneDrive/Desktop/GD32VW553/V1_MQTT_OK/GD32VW55X_Wifi_BLE_SDK/GD32VW55x_RELEASE_V1.0.2/MSDK/plf/GD32VW55x_standard_peripheral/Source\gd32vw55x_pmu.c **** void pmu_lvd_enable(void)
  84:C:/Users/stapi/OneDrive/Desktop/GD32VW553/V1_MQTT_OK/GD32VW55X_Wifi_BLE_SDK/GD32VW55x_RELEASE_V1.0.2/MSDK/plf/GD32VW55x_standard_peripheral/Source\gd32vw55x_pmu.c **** {
  80              		.loc 1 84 1 is_stmt 1
  81              		.cfi_startproc
  85:C:/Users/stapi/OneDrive/Desktop/GD32VW553/V1_MQTT_OK/GD32VW55X_Wifi_BLE_SDK/GD32VW55x_RELEASE_V1.0.2/MSDK/plf/GD32VW55x_standard_peripheral/Source\gd32vw55x_pmu.c ****     PMU_CTL0 |= PMU_CTL0_LVDEN;
  82              		.loc 1 85 5
  83              		.loc 1 85 14 is_stmt 0
  84 0000 37770040 		li	a4,1073770496
  85 0004 1C43     		lw	a5,0(a4)
  86 0006 93E70701 		ori	a5,a5,16
  87 000a 1CC3     		sw	a5,0(a4)
  86:C:/Users/stapi/OneDrive/Desktop/GD32VW553/V1_MQTT_OK/GD32VW55X_Wifi_BLE_SDK/GD32VW55x_RELEASE_V1.0.2/MSDK/plf/GD32VW55x_standard_peripheral/Source\gd32vw55x_pmu.c **** }
  88              		.loc 1 86 1
  89 000c 8280     		ret
  90              		.cfi_endproc
  91              	.LFE367:
  93              		.section	.text.pmu_lvd_disable,"ax",@progbits
  94              		.align	1
  95              		.globl	pmu_lvd_disable
  97              	pmu_lvd_disable:
  98              	.LFB368:
  87:C:/Users/stapi/OneDrive/Desktop/GD32VW553/V1_MQTT_OK/GD32VW55X_Wifi_BLE_SDK/GD32VW55x_RELEASE_V1.0.2/MSDK/plf/GD32VW55x_standard_peripheral/Source\gd32vw55x_pmu.c **** 
  88:C:/Users/stapi/OneDrive/Desktop/GD32VW553/V1_MQTT_OK/GD32VW55X_Wifi_BLE_SDK/GD32VW55x_RELEASE_V1.0.2/MSDK/plf/GD32VW55x_standard_peripheral/Source\gd32vw55x_pmu.c **** /*!
  89:C:/Users/stapi/OneDrive/Desktop/GD32VW553/V1_MQTT_OK/GD32VW55X_Wifi_BLE_SDK/GD32VW55x_RELEASE_V1.0.2/MSDK/plf/GD32VW55x_standard_peripheral/Source\gd32vw55x_pmu.c ****     \brief      disable PMU LVD
  90:C:/Users/stapi/OneDrive/Desktop/GD32VW553/V1_MQTT_OK/GD32VW55X_Wifi_BLE_SDK/GD32VW55x_RELEASE_V1.0.2/MSDK/plf/GD32VW55x_standard_peripheral/Source\gd32vw55x_pmu.c ****     \param[in]  none
  91:C:/Users/stapi/OneDrive/Desktop/GD32VW553/V1_MQTT_OK/GD32VW55X_Wifi_BLE_SDK/GD32VW55x_RELEASE_V1.0.2/MSDK/plf/GD32VW55x_standard_peripheral/Source\gd32vw55x_pmu.c ****     \param[out] none
  92:C:/Users/stapi/OneDrive/Desktop/GD32VW553/V1_MQTT_OK/GD32VW55X_Wifi_BLE_SDK/GD32VW55x_RELEASE_V1.0.2/MSDK/plf/GD32VW55x_standard_peripheral/Source\gd32vw55x_pmu.c ****     \retval     none
  93:C:/Users/stapi/OneDrive/Desktop/GD32VW553/V1_MQTT_OK/GD32VW55X_Wifi_BLE_SDK/GD32VW55x_RELEASE_V1.0.2/MSDK/plf/GD32VW55x_standard_peripheral/Source\gd32vw55x_pmu.c **** */
  94:C:/Users/stapi/OneDrive/Desktop/GD32VW553/V1_MQTT_OK/GD32VW55X_Wifi_BLE_SDK/GD32VW55x_RELEASE_V1.0.2/MSDK/plf/GD32VW55x_standard_peripheral/Source\gd32vw55x_pmu.c **** void pmu_lvd_disable(void)
  95:C:/Users/stapi/OneDrive/Desktop/GD32VW553/V1_MQTT_OK/GD32VW55X_Wifi_BLE_SDK/GD32VW55x_RELEASE_V1.0.2/MSDK/plf/GD32VW55x_standard_peripheral/Source\gd32vw55x_pmu.c **** {
  99              		.loc 1 95 1 is_stmt 1
 100              		.cfi_startproc
  96:C:/Users/stapi/OneDrive/Desktop/GD32VW553/V1_MQTT_OK/GD32VW55X_Wifi_BLE_SDK/GD32VW55x_RELEASE_V1.0.2/MSDK/plf/GD32VW55x_standard_peripheral/Source\gd32vw55x_pmu.c ****     PMU_CTL0 &= ~PMU_CTL0_LVDEN;
 101              		.loc 1 96 5
 102              		.loc 1 96 14 is_stmt 0
 103 0000 37770040 		li	a4,1073770496
 104 0004 1C43     		lw	a5,0(a4)
 105 0006 BD9B     		andi	a5,a5,-17
 106 0008 1CC3     		sw	a5,0(a4)
  97:C:/Users/stapi/OneDrive/Desktop/GD32VW553/V1_MQTT_OK/GD32VW55X_Wifi_BLE_SDK/GD32VW55x_RELEASE_V1.0.2/MSDK/plf/GD32VW55x_standard_peripheral/Source\gd32vw55x_pmu.c **** }
 107              		.loc 1 97 1
 108 000a 8280     		ret
 109              		.cfi_endproc
 110              	.LFE368:
 112              		.section	.text.pmu_backup_write_enable,"ax",@progbits
 113              		.align	1
 114              		.globl	pmu_backup_write_enable
 116              	pmu_backup_write_enable:
 117              	.LFB369:
  98:C:/Users/stapi/OneDrive/Desktop/GD32VW553/V1_MQTT_OK/GD32VW55X_Wifi_BLE_SDK/GD32VW55x_RELEASE_V1.0.2/MSDK/plf/GD32VW55x_standard_peripheral/Source\gd32vw55x_pmu.c **** 
  99:C:/Users/stapi/OneDrive/Desktop/GD32VW553/V1_MQTT_OK/GD32VW55X_Wifi_BLE_SDK/GD32VW55x_RELEASE_V1.0.2/MSDK/plf/GD32VW55x_standard_peripheral/Source\gd32vw55x_pmu.c **** /*!
 100:C:/Users/stapi/OneDrive/Desktop/GD32VW553/V1_MQTT_OK/GD32VW55X_Wifi_BLE_SDK/GD32VW55x_RELEASE_V1.0.2/MSDK/plf/GD32VW55x_standard_peripheral/Source\gd32vw55x_pmu.c ****     \brief      enable write access to the registers in backup domain
 101:C:/Users/stapi/OneDrive/Desktop/GD32VW553/V1_MQTT_OK/GD32VW55X_Wifi_BLE_SDK/GD32VW55x_RELEASE_V1.0.2/MSDK/plf/GD32VW55x_standard_peripheral/Source\gd32vw55x_pmu.c ****     \param[in]  none
 102:C:/Users/stapi/OneDrive/Desktop/GD32VW553/V1_MQTT_OK/GD32VW55X_Wifi_BLE_SDK/GD32VW55x_RELEASE_V1.0.2/MSDK/plf/GD32VW55x_standard_peripheral/Source\gd32vw55x_pmu.c ****     \param[out] none
 103:C:/Users/stapi/OneDrive/Desktop/GD32VW553/V1_MQTT_OK/GD32VW55X_Wifi_BLE_SDK/GD32VW55x_RELEASE_V1.0.2/MSDK/plf/GD32VW55x_standard_peripheral/Source\gd32vw55x_pmu.c ****     \retval     none
 104:C:/Users/stapi/OneDrive/Desktop/GD32VW553/V1_MQTT_OK/GD32VW55X_Wifi_BLE_SDK/GD32VW55x_RELEASE_V1.0.2/MSDK/plf/GD32VW55x_standard_peripheral/Source\gd32vw55x_pmu.c **** */
 105:C:/Users/stapi/OneDrive/Desktop/GD32VW553/V1_MQTT_OK/GD32VW55X_Wifi_BLE_SDK/GD32VW55x_RELEASE_V1.0.2/MSDK/plf/GD32VW55x_standard_peripheral/Source\gd32vw55x_pmu.c **** void pmu_backup_write_enable(void)
 106:C:/Users/stapi/OneDrive/Desktop/GD32VW553/V1_MQTT_OK/GD32VW55X_Wifi_BLE_SDK/GD32VW55x_RELEASE_V1.0.2/MSDK/plf/GD32VW55x_standard_peripheral/Source\gd32vw55x_pmu.c **** {
 118              		.loc 1 106 1 is_stmt 1
 119              		.cfi_startproc
 107:C:/Users/stapi/OneDrive/Desktop/GD32VW553/V1_MQTT_OK/GD32VW55X_Wifi_BLE_SDK/GD32VW55x_RELEASE_V1.0.2/MSDK/plf/GD32VW55x_standard_peripheral/Source\gd32vw55x_pmu.c ****     PMU_CTL0 |= PMU_CTL0_BKPWEN;
 120              		.loc 1 107 5
 121              		.loc 1 107 14 is_stmt 0
 122 0000 37770040 		li	a4,1073770496
 123 0004 1C43     		lw	a5,0(a4)
 124 0006 93E70710 		ori	a5,a5,256
 125 000a 1CC3     		sw	a5,0(a4)
 108:C:/Users/stapi/OneDrive/Desktop/GD32VW553/V1_MQTT_OK/GD32VW55X_Wifi_BLE_SDK/GD32VW55x_RELEASE_V1.0.2/MSDK/plf/GD32VW55x_standard_peripheral/Source\gd32vw55x_pmu.c **** }
 126              		.loc 1 108 1
 127 000c 8280     		ret
 128              		.cfi_endproc
 129              	.LFE369:
 131              		.section	.text.pmu_backup_write_disable,"ax",@progbits
 132              		.align	1
 133              		.globl	pmu_backup_write_disable
 135              	pmu_backup_write_disable:
 136              	.LFB370:
 109:C:/Users/stapi/OneDrive/Desktop/GD32VW553/V1_MQTT_OK/GD32VW55X_Wifi_BLE_SDK/GD32VW55x_RELEASE_V1.0.2/MSDK/plf/GD32VW55x_standard_peripheral/Source\gd32vw55x_pmu.c **** 
 110:C:/Users/stapi/OneDrive/Desktop/GD32VW553/V1_MQTT_OK/GD32VW55X_Wifi_BLE_SDK/GD32VW55x_RELEASE_V1.0.2/MSDK/plf/GD32VW55x_standard_peripheral/Source\gd32vw55x_pmu.c **** /*!
 111:C:/Users/stapi/OneDrive/Desktop/GD32VW553/V1_MQTT_OK/GD32VW55X_Wifi_BLE_SDK/GD32VW55x_RELEASE_V1.0.2/MSDK/plf/GD32VW55x_standard_peripheral/Source\gd32vw55x_pmu.c ****     \brief      disable write access to the registers in backup domain
 112:C:/Users/stapi/OneDrive/Desktop/GD32VW553/V1_MQTT_OK/GD32VW55X_Wifi_BLE_SDK/GD32VW55x_RELEASE_V1.0.2/MSDK/plf/GD32VW55x_standard_peripheral/Source\gd32vw55x_pmu.c ****     \param[in]  none
 113:C:/Users/stapi/OneDrive/Desktop/GD32VW553/V1_MQTT_OK/GD32VW55X_Wifi_BLE_SDK/GD32VW55x_RELEASE_V1.0.2/MSDK/plf/GD32VW55x_standard_peripheral/Source\gd32vw55x_pmu.c ****     \param[out] none
 114:C:/Users/stapi/OneDrive/Desktop/GD32VW553/V1_MQTT_OK/GD32VW55X_Wifi_BLE_SDK/GD32VW55x_RELEASE_V1.0.2/MSDK/plf/GD32VW55x_standard_peripheral/Source\gd32vw55x_pmu.c ****     \retval     none
 115:C:/Users/stapi/OneDrive/Desktop/GD32VW553/V1_MQTT_OK/GD32VW55X_Wifi_BLE_SDK/GD32VW55x_RELEASE_V1.0.2/MSDK/plf/GD32VW55x_standard_peripheral/Source\gd32vw55x_pmu.c **** */
 116:C:/Users/stapi/OneDrive/Desktop/GD32VW553/V1_MQTT_OK/GD32VW55X_Wifi_BLE_SDK/GD32VW55x_RELEASE_V1.0.2/MSDK/plf/GD32VW55x_standard_peripheral/Source\gd32vw55x_pmu.c **** void pmu_backup_write_disable(void)
 117:C:/Users/stapi/OneDrive/Desktop/GD32VW553/V1_MQTT_OK/GD32VW55X_Wifi_BLE_SDK/GD32VW55x_RELEASE_V1.0.2/MSDK/plf/GD32VW55x_standard_peripheral/Source\gd32vw55x_pmu.c **** {
 137              		.loc 1 117 1 is_stmt 1
 138              		.cfi_startproc
 118:C:/Users/stapi/OneDrive/Desktop/GD32VW553/V1_MQTT_OK/GD32VW55X_Wifi_BLE_SDK/GD32VW55x_RELEASE_V1.0.2/MSDK/plf/GD32VW55x_standard_peripheral/Source\gd32vw55x_pmu.c ****     PMU_CTL0 &= ~PMU_CTL0_BKPWEN;
 139              		.loc 1 118 5
 140              		.loc 1 118 14 is_stmt 0
 141 0000 37770040 		li	a4,1073770496
 142 0004 1C43     		lw	a5,0(a4)
 143 0006 93F7F7EF 		andi	a5,a5,-257
 144 000a 1CC3     		sw	a5,0(a4)
 119:C:/Users/stapi/OneDrive/Desktop/GD32VW553/V1_MQTT_OK/GD32VW55X_Wifi_BLE_SDK/GD32VW55x_RELEASE_V1.0.2/MSDK/plf/GD32VW55x_standard_peripheral/Source\gd32vw55x_pmu.c **** }
 145              		.loc 1 119 1
 146 000c 8280     		ret
 147              		.cfi_endproc
 148              	.LFE370:
 150              		.section	.text.pmu_to_sleepmode,"ax",@progbits
 151              		.align	1
 152              		.globl	pmu_to_sleepmode
 154              	pmu_to_sleepmode:
 155              	.LFB371:
 120:C:/Users/stapi/OneDrive/Desktop/GD32VW553/V1_MQTT_OK/GD32VW55X_Wifi_BLE_SDK/GD32VW55x_RELEASE_V1.0.2/MSDK/plf/GD32VW55x_standard_peripheral/Source\gd32vw55x_pmu.c **** 
 121:C:/Users/stapi/OneDrive/Desktop/GD32VW553/V1_MQTT_OK/GD32VW55X_Wifi_BLE_SDK/GD32VW55x_RELEASE_V1.0.2/MSDK/plf/GD32VW55x_standard_peripheral/Source\gd32vw55x_pmu.c **** 
 122:C:/Users/stapi/OneDrive/Desktop/GD32VW553/V1_MQTT_OK/GD32VW55X_Wifi_BLE_SDK/GD32VW55x_RELEASE_V1.0.2/MSDK/plf/GD32VW55x_standard_peripheral/Source\gd32vw55x_pmu.c **** /*!
 123:C:/Users/stapi/OneDrive/Desktop/GD32VW553/V1_MQTT_OK/GD32VW55X_Wifi_BLE_SDK/GD32VW55x_RELEASE_V1.0.2/MSDK/plf/GD32VW55x_standard_peripheral/Source\gd32vw55x_pmu.c ****     \brief      PMU work in sleep mode
 124:C:/Users/stapi/OneDrive/Desktop/GD32VW553/V1_MQTT_OK/GD32VW55X_Wifi_BLE_SDK/GD32VW55x_RELEASE_V1.0.2/MSDK/plf/GD32VW55x_standard_peripheral/Source\gd32vw55x_pmu.c ****     \param[in]  sleepmodecmd:
 125:C:/Users/stapi/OneDrive/Desktop/GD32VW553/V1_MQTT_OK/GD32VW55X_Wifi_BLE_SDK/GD32VW55x_RELEASE_V1.0.2/MSDK/plf/GD32VW55x_standard_peripheral/Source\gd32vw55x_pmu.c ****                 only one parameter can be selected which is shown as below:
 126:C:/Users/stapi/OneDrive/Desktop/GD32VW553/V1_MQTT_OK/GD32VW55X_Wifi_BLE_SDK/GD32VW55x_RELEASE_V1.0.2/MSDK/plf/GD32VW55x_standard_peripheral/Source\gd32vw55x_pmu.c ****       \arg        WFI_CMD: use WFI command
 127:C:/Users/stapi/OneDrive/Desktop/GD32VW553/V1_MQTT_OK/GD32VW55X_Wifi_BLE_SDK/GD32VW55x_RELEASE_V1.0.2/MSDK/plf/GD32VW55x_standard_peripheral/Source\gd32vw55x_pmu.c ****       \arg        WFE_CMD: use WFE command
 128:C:/Users/stapi/OneDrive/Desktop/GD32VW553/V1_MQTT_OK/GD32VW55X_Wifi_BLE_SDK/GD32VW55x_RELEASE_V1.0.2/MSDK/plf/GD32VW55x_standard_peripheral/Source\gd32vw55x_pmu.c ****     \param[out] none
 129:C:/Users/stapi/OneDrive/Desktop/GD32VW553/V1_MQTT_OK/GD32VW55X_Wifi_BLE_SDK/GD32VW55x_RELEASE_V1.0.2/MSDK/plf/GD32VW55x_standard_peripheral/Source\gd32vw55x_pmu.c ****     \retval     none
 130:C:/Users/stapi/OneDrive/Desktop/GD32VW553/V1_MQTT_OK/GD32VW55X_Wifi_BLE_SDK/GD32VW55x_RELEASE_V1.0.2/MSDK/plf/GD32VW55x_standard_peripheral/Source\gd32vw55x_pmu.c **** */
 131:C:/Users/stapi/OneDrive/Desktop/GD32VW553/V1_MQTT_OK/GD32VW55X_Wifi_BLE_SDK/GD32VW55x_RELEASE_V1.0.2/MSDK/plf/GD32VW55x_standard_peripheral/Source\gd32vw55x_pmu.c **** void pmu_to_sleepmode(uint8_t sleepmodecmd)
 132:C:/Users/stapi/OneDrive/Desktop/GD32VW553/V1_MQTT_OK/GD32VW55X_Wifi_BLE_SDK/GD32VW55x_RELEASE_V1.0.2/MSDK/plf/GD32VW55x_standard_peripheral/Source\gd32vw55x_pmu.c **** {
 156              		.loc 1 132 1 is_stmt 1
 157              		.cfi_startproc
 158              	.LVL3:
 133:C:/Users/stapi/OneDrive/Desktop/GD32VW553/V1_MQTT_OK/GD32VW55X_Wifi_BLE_SDK/GD32VW55x_RELEASE_V1.0.2/MSDK/plf/GD32VW55x_standard_peripheral/Source\gd32vw55x_pmu.c ****     /* clear sleepdeep bit of RISC-V system control register */
 134:C:/Users/stapi/OneDrive/Desktop/GD32VW553/V1_MQTT_OK/GD32VW55X_Wifi_BLE_SDK/GD32VW55x_RELEASE_V1.0.2/MSDK/plf/GD32VW55x_standard_peripheral/Source\gd32vw55x_pmu.c ****     __set_wfi_sleepmode(WFI_SHALLOW_SLEEP);
 159              		.loc 1 134 5
 160              		.file 2 "..\\..\\..\\..\\plf\\riscv\\NMSIS\\Core\\Include/core_feature_base.h"
   1:..\..\..\..\plf\riscv\NMSIS\Core\Include/core_feature_base.h **** /*
   2:..\..\..\..\plf\riscv\NMSIS\Core\Include/core_feature_base.h ****  * Copyright (c) 2019 Nuclei Limited. All rights reserved.
   3:..\..\..\..\plf\riscv\NMSIS\Core\Include/core_feature_base.h ****  *
   4:..\..\..\..\plf\riscv\NMSIS\Core\Include/core_feature_base.h ****  * SPDX-License-Identifier: Apache-2.0
   5:..\..\..\..\plf\riscv\NMSIS\Core\Include/core_feature_base.h ****  *
   6:..\..\..\..\plf\riscv\NMSIS\Core\Include/core_feature_base.h ****  * Licensed under the Apache License, Version 2.0 (the License); you may
   7:..\..\..\..\plf\riscv\NMSIS\Core\Include/core_feature_base.h ****  * not use this file except in compliance with the License.
   8:..\..\..\..\plf\riscv\NMSIS\Core\Include/core_feature_base.h ****  * You may obtain a copy of the License at
   9:..\..\..\..\plf\riscv\NMSIS\Core\Include/core_feature_base.h ****  *
  10:..\..\..\..\plf\riscv\NMSIS\Core\Include/core_feature_base.h ****  * www.apache.org/licenses/LICENSE-2.0
  11:..\..\..\..\plf\riscv\NMSIS\Core\Include/core_feature_base.h ****  *
  12:..\..\..\..\plf\riscv\NMSIS\Core\Include/core_feature_base.h ****  * Unless required by applicable law or agreed to in writing, software
  13:..\..\..\..\plf\riscv\NMSIS\Core\Include/core_feature_base.h ****  * distributed under the License is distributed on an AS IS BASIS, WITHOUT
  14:..\..\..\..\plf\riscv\NMSIS\Core\Include/core_feature_base.h ****  * WARRANTIES OR CONDITIONS OF ANY KIND, either express or implied.
  15:..\..\..\..\plf\riscv\NMSIS\Core\Include/core_feature_base.h ****  * See the License for the specific language governing permissions and
  16:..\..\..\..\plf\riscv\NMSIS\Core\Include/core_feature_base.h ****  * limitations under the License.
  17:..\..\..\..\plf\riscv\NMSIS\Core\Include/core_feature_base.h ****  */
  18:..\..\..\..\plf\riscv\NMSIS\Core\Include/core_feature_base.h **** 
  19:..\..\..\..\plf\riscv\NMSIS\Core\Include/core_feature_base.h **** #ifndef __CORE_FEATURE_BASE__
  20:..\..\..\..\plf\riscv\NMSIS\Core\Include/core_feature_base.h **** #define __CORE_FEATURE_BASE__
  21:..\..\..\..\plf\riscv\NMSIS\Core\Include/core_feature_base.h **** /*!
  22:..\..\..\..\plf\riscv\NMSIS\Core\Include/core_feature_base.h ****  * @file     core_feature_base.h
  23:..\..\..\..\plf\riscv\NMSIS\Core\Include/core_feature_base.h ****  * @brief    Base core feature API for Nuclei N/NX Core
  24:..\..\..\..\plf\riscv\NMSIS\Core\Include/core_feature_base.h ****  */
  25:..\..\..\..\plf\riscv\NMSIS\Core\Include/core_feature_base.h **** #include <stdint.h>
  26:..\..\..\..\plf\riscv\NMSIS\Core\Include/core_feature_base.h **** #include "riscv_encoding.h"
  27:..\..\..\..\plf\riscv\NMSIS\Core\Include/core_feature_base.h **** 
  28:..\..\..\..\plf\riscv\NMSIS\Core\Include/core_feature_base.h **** #ifdef __cplusplus
  29:..\..\..\..\plf\riscv\NMSIS\Core\Include/core_feature_base.h ****  extern "C" {
  30:..\..\..\..\plf\riscv\NMSIS\Core\Include/core_feature_base.h **** #endif
  31:..\..\..\..\plf\riscv\NMSIS\Core\Include/core_feature_base.h **** 
  32:..\..\..\..\plf\riscv\NMSIS\Core\Include/core_feature_base.h **** /**
  33:..\..\..\..\plf\riscv\NMSIS\Core\Include/core_feature_base.h ****  * \defgroup NMSIS_Core_Registers     Register Define and Type Definitions
  34:..\..\..\..\plf\riscv\NMSIS\Core\Include/core_feature_base.h ****  * \brief   Type definitions and defines for core registers.
  35:..\..\..\..\plf\riscv\NMSIS\Core\Include/core_feature_base.h ****  *
  36:..\..\..\..\plf\riscv\NMSIS\Core\Include/core_feature_base.h ****  * @{
  37:..\..\..\..\plf\riscv\NMSIS\Core\Include/core_feature_base.h ****  */
  38:..\..\..\..\plf\riscv\NMSIS\Core\Include/core_feature_base.h **** #ifndef __RISCV_XLEN
  39:..\..\..\..\plf\riscv\NMSIS\Core\Include/core_feature_base.h ****   /** \brief Refer to the width of an integer register in bits(either 32 or 64) */
  40:..\..\..\..\plf\riscv\NMSIS\Core\Include/core_feature_base.h ****   #ifndef __riscv_xlen
  41:..\..\..\..\plf\riscv\NMSIS\Core\Include/core_feature_base.h ****     #define __RISCV_XLEN    32
  42:..\..\..\..\plf\riscv\NMSIS\Core\Include/core_feature_base.h ****   #else
  43:..\..\..\..\plf\riscv\NMSIS\Core\Include/core_feature_base.h ****     #define __RISCV_XLEN    __riscv_xlen
  44:..\..\..\..\plf\riscv\NMSIS\Core\Include/core_feature_base.h ****   #endif
  45:..\..\..\..\plf\riscv\NMSIS\Core\Include/core_feature_base.h **** #endif /* __RISCV_XLEN */
  46:..\..\..\..\plf\riscv\NMSIS\Core\Include/core_feature_base.h **** 
  47:..\..\..\..\plf\riscv\NMSIS\Core\Include/core_feature_base.h **** /** \brief Type of Control and Status Register(CSR), depends on the XLEN defined in RISC-V */
  48:..\..\..\..\plf\riscv\NMSIS\Core\Include/core_feature_base.h **** #if __RISCV_XLEN == 32
  49:..\..\..\..\plf\riscv\NMSIS\Core\Include/core_feature_base.h ****   typedef uint32_t rv_csr_t;
  50:..\..\..\..\plf\riscv\NMSIS\Core\Include/core_feature_base.h **** #elif __RISCV_XLEN == 64
  51:..\..\..\..\plf\riscv\NMSIS\Core\Include/core_feature_base.h ****   typedef uint64_t rv_csr_t;
  52:..\..\..\..\plf\riscv\NMSIS\Core\Include/core_feature_base.h **** #else
  53:..\..\..\..\plf\riscv\NMSIS\Core\Include/core_feature_base.h ****   typedef uint32_t rv_csr_t;
  54:..\..\..\..\plf\riscv\NMSIS\Core\Include/core_feature_base.h **** #endif
  55:..\..\..\..\plf\riscv\NMSIS\Core\Include/core_feature_base.h **** /** @} */ /* End of Doxygen Group NMSIS_Core_Registers */
  56:..\..\..\..\plf\riscv\NMSIS\Core\Include/core_feature_base.h **** /**
  57:..\..\..\..\plf\riscv\NMSIS\Core\Include/core_feature_base.h ****  * \defgroup NMSIS_Core_Base_Registers     Base Register Define and Type Definitions
  58:..\..\..\..\plf\riscv\NMSIS\Core\Include/core_feature_base.h ****  * \ingroup NMSIS_Core_Registers
  59:..\..\..\..\plf\riscv\NMSIS\Core\Include/core_feature_base.h ****  * \brief   Type definitions and defines for base core registers.
  60:..\..\..\..\plf\riscv\NMSIS\Core\Include/core_feature_base.h ****  *
  61:..\..\..\..\plf\riscv\NMSIS\Core\Include/core_feature_base.h ****  * @{
  62:..\..\..\..\plf\riscv\NMSIS\Core\Include/core_feature_base.h ****  */
  63:..\..\..\..\plf\riscv\NMSIS\Core\Include/core_feature_base.h **** /**
  64:..\..\..\..\plf\riscv\NMSIS\Core\Include/core_feature_base.h ****  * \brief  Union type to access MISA CSR register.
  65:..\..\..\..\plf\riscv\NMSIS\Core\Include/core_feature_base.h ****  */
  66:..\..\..\..\plf\riscv\NMSIS\Core\Include/core_feature_base.h **** typedef union {
  67:..\..\..\..\plf\riscv\NMSIS\Core\Include/core_feature_base.h ****     struct {
  68:..\..\..\..\plf\riscv\NMSIS\Core\Include/core_feature_base.h ****         rv_csr_t a:1;                           /*!< bit:     0  Atomic extension */
  69:..\..\..\..\plf\riscv\NMSIS\Core\Include/core_feature_base.h ****         rv_csr_t b:1;                           /*!< bit:     1  Tentatively reserved for Bit-Manip
  70:..\..\..\..\plf\riscv\NMSIS\Core\Include/core_feature_base.h ****         rv_csr_t c:1;                           /*!< bit:     2  Compressed extension */
  71:..\..\..\..\plf\riscv\NMSIS\Core\Include/core_feature_base.h ****         rv_csr_t d:1;                           /*!< bit:     3  Double-precision floating-point ex
  72:..\..\..\..\plf\riscv\NMSIS\Core\Include/core_feature_base.h ****         rv_csr_t e:1;                           /*!< bit:     4  RV32E base ISA */
  73:..\..\..\..\plf\riscv\NMSIS\Core\Include/core_feature_base.h ****         rv_csr_t f:1;                           /*!< bit:     5  Single-precision floating-point ex
  74:..\..\..\..\plf\riscv\NMSIS\Core\Include/core_feature_base.h ****         rv_csr_t g:1;                           /*!< bit:     6  Additional standard extensions pre
  75:..\..\..\..\plf\riscv\NMSIS\Core\Include/core_feature_base.h ****         rv_csr_t h:1;                           /*!< bit:     7  Hypervisor extension */
  76:..\..\..\..\plf\riscv\NMSIS\Core\Include/core_feature_base.h ****         rv_csr_t i:1;                           /*!< bit:     8  RV32I/64I/128I base ISA */
  77:..\..\..\..\plf\riscv\NMSIS\Core\Include/core_feature_base.h ****         rv_csr_t j:1;                           /*!< bit:     9  Tentatively reserved for Dynamical
  78:..\..\..\..\plf\riscv\NMSIS\Core\Include/core_feature_base.h ****         rv_csr_t _reserved1:1;                  /*!< bit:     10 Reserved  */
  79:..\..\..\..\plf\riscv\NMSIS\Core\Include/core_feature_base.h ****         rv_csr_t l:1;                           /*!< bit:     11 Tentatively reserved for Decimal F
  80:..\..\..\..\plf\riscv\NMSIS\Core\Include/core_feature_base.h ****         rv_csr_t m:1;                           /*!< bit:     12 Integer Multiply/Divide extension 
  81:..\..\..\..\plf\riscv\NMSIS\Core\Include/core_feature_base.h ****         rv_csr_t n:1;                           /*!< bit:     13 User-level interrupts supported  *
  82:..\..\..\..\plf\riscv\NMSIS\Core\Include/core_feature_base.h ****         rv_csr_t _reserved2:1;                  /*!< bit:     14 Reserved  */
  83:..\..\..\..\plf\riscv\NMSIS\Core\Include/core_feature_base.h ****         rv_csr_t p:1;                           /*!< bit:     15 Tentatively reserved for Packed-SI
  84:..\..\..\..\plf\riscv\NMSIS\Core\Include/core_feature_base.h ****         rv_csr_t q:1;                           /*!< bit:     16 Quad-precision floating-point exte
  85:..\..\..\..\plf\riscv\NMSIS\Core\Include/core_feature_base.h ****         rv_csr_t _resreved3:1;                  /*!< bit:     17 Reserved  */
  86:..\..\..\..\plf\riscv\NMSIS\Core\Include/core_feature_base.h ****         rv_csr_t s:1;                           /*!< bit:     18 Supervisor mode implemented  */
  87:..\..\..\..\plf\riscv\NMSIS\Core\Include/core_feature_base.h ****         rv_csr_t t:1;                           /*!< bit:     19 Tentatively reserved for Transacti
  88:..\..\..\..\plf\riscv\NMSIS\Core\Include/core_feature_base.h ****         rv_csr_t u:1;                           /*!< bit:     20 User mode implemented  */
  89:..\..\..\..\plf\riscv\NMSIS\Core\Include/core_feature_base.h ****         rv_csr_t v:1;                           /*!< bit:     21 Tentatively reserved for Vector ex
  90:..\..\..\..\plf\riscv\NMSIS\Core\Include/core_feature_base.h ****         rv_csr_t _reserved4:1;                  /*!< bit:     22 Reserved  */
  91:..\..\..\..\plf\riscv\NMSIS\Core\Include/core_feature_base.h ****         rv_csr_t x:1;                           /*!< bit:     23 Non-standard extensions present  *
  92:..\..\..\..\plf\riscv\NMSIS\Core\Include/core_feature_base.h **** #if defined(__RISCV_XLEN) && __RISCV_XLEN == 64
  93:..\..\..\..\plf\riscv\NMSIS\Core\Include/core_feature_base.h ****         rv_csr_t _reserved5:38;                 /*!< bit:     24..61 Reserved  */
  94:..\..\..\..\plf\riscv\NMSIS\Core\Include/core_feature_base.h ****         rv_csr_t mxl:2;                         /*!< bit:     62..63 Machine XLEN  */
  95:..\..\..\..\plf\riscv\NMSIS\Core\Include/core_feature_base.h **** #else
  96:..\..\..\..\plf\riscv\NMSIS\Core\Include/core_feature_base.h ****         rv_csr_t _reserved5:6;                  /*!< bit:     24..29 Reserved  */
  97:..\..\..\..\plf\riscv\NMSIS\Core\Include/core_feature_base.h ****         rv_csr_t mxl:2;                         /*!< bit:     30..31 Machine XLEN  */
  98:..\..\..\..\plf\riscv\NMSIS\Core\Include/core_feature_base.h **** #endif
  99:..\..\..\..\plf\riscv\NMSIS\Core\Include/core_feature_base.h ****     } b;                                        /*!< Structure used for bit  access */
 100:..\..\..\..\plf\riscv\NMSIS\Core\Include/core_feature_base.h ****     rv_csr_t d;                                 /*!< Type      used for csr data access */
 101:..\..\..\..\plf\riscv\NMSIS\Core\Include/core_feature_base.h **** } CSR_MISA_Type;
 102:..\..\..\..\plf\riscv\NMSIS\Core\Include/core_feature_base.h **** 
 103:..\..\..\..\plf\riscv\NMSIS\Core\Include/core_feature_base.h **** /**
 104:..\..\..\..\plf\riscv\NMSIS\Core\Include/core_feature_base.h ****  * \brief  Union type to access MSTATUS CSR register.
 105:..\..\..\..\plf\riscv\NMSIS\Core\Include/core_feature_base.h ****  */
 106:..\..\..\..\plf\riscv\NMSIS\Core\Include/core_feature_base.h **** typedef union {
 107:..\..\..\..\plf\riscv\NMSIS\Core\Include/core_feature_base.h ****     struct {
 108:..\..\..\..\plf\riscv\NMSIS\Core\Include/core_feature_base.h **** #if defined(__RISCV_XLEN) && __RISCV_XLEN == 64
 109:..\..\..\..\plf\riscv\NMSIS\Core\Include/core_feature_base.h ****         rv_csr_t _reserved0:3;                  /*!< bit:     0..2  Reserved */
 110:..\..\..\..\plf\riscv\NMSIS\Core\Include/core_feature_base.h ****         rv_csr_t mie:1;                         /*!< bit:     3  Machine mode interrupt enable flag
 111:..\..\..\..\plf\riscv\NMSIS\Core\Include/core_feature_base.h ****         rv_csr_t _reserved1:3;                  /*!< bit:     4..6  Reserved */
 112:..\..\..\..\plf\riscv\NMSIS\Core\Include/core_feature_base.h ****         rv_csr_t mpie:1;                        /*!< bit:     7  mirror of MIE flag */
 113:..\..\..\..\plf\riscv\NMSIS\Core\Include/core_feature_base.h ****         rv_csr_t _reserved2:3;                  /*!< bit:     8..10  Reserved */
 114:..\..\..\..\plf\riscv\NMSIS\Core\Include/core_feature_base.h ****         rv_csr_t mpp:2;                         /*!< bit:     11..12 mirror of Privilege Mode */
 115:..\..\..\..\plf\riscv\NMSIS\Core\Include/core_feature_base.h ****         rv_csr_t fs:2;                          /*!< bit:     13..14 FS status flag */
 116:..\..\..\..\plf\riscv\NMSIS\Core\Include/core_feature_base.h ****         rv_csr_t xs:2;                          /*!< bit:     15..16 XS status flag */
 117:..\..\..\..\plf\riscv\NMSIS\Core\Include/core_feature_base.h ****         rv_csr_t mprv:1;                        /*!< bit:     Machine mode PMP */
 118:..\..\..\..\plf\riscv\NMSIS\Core\Include/core_feature_base.h ****         rv_csr_t _reserved3:14;                 /*!< bit:     18..31 Reserved */
 119:..\..\..\..\plf\riscv\NMSIS\Core\Include/core_feature_base.h ****         rv_csr_t uxl:2;                         /*!< bit:     32..33 user mode xlen */
 120:..\..\..\..\plf\riscv\NMSIS\Core\Include/core_feature_base.h ****         rv_csr_t _reserved6:29;                 /*!< bit:     34..62 Reserved  */
 121:..\..\..\..\plf\riscv\NMSIS\Core\Include/core_feature_base.h ****         rv_csr_t sd:1;                          /*!< bit:     Dirty status for XS or FS */
 122:..\..\..\..\plf\riscv\NMSIS\Core\Include/core_feature_base.h **** #else
 123:..\..\..\..\plf\riscv\NMSIS\Core\Include/core_feature_base.h ****         rv_csr_t _reserved0:1;                  /*!< bit:     0  Reserved */
 124:..\..\..\..\plf\riscv\NMSIS\Core\Include/core_feature_base.h ****         rv_csr_t sie:1;                         /*!< bit:     1  supervisor interrupt enable flag *
 125:..\..\..\..\plf\riscv\NMSIS\Core\Include/core_feature_base.h ****         rv_csr_t _reserved1:1;                  /*!< bit:     2  Reserved */
 126:..\..\..\..\plf\riscv\NMSIS\Core\Include/core_feature_base.h ****         rv_csr_t mie:1;                         /*!< bit:     3  Machine mode interrupt enable flag
 127:..\..\..\..\plf\riscv\NMSIS\Core\Include/core_feature_base.h ****         rv_csr_t _reserved2:1;                  /*!< bit:     4  Reserved */
 128:..\..\..\..\plf\riscv\NMSIS\Core\Include/core_feature_base.h ****         rv_csr_t spie:1;                        /*!< bit:     3  Supervisor Privilede mode interrup
 129:..\..\..\..\plf\riscv\NMSIS\Core\Include/core_feature_base.h ****         rv_csr_t _reserved3:1;                  /*!< bit:     Reserved */
 130:..\..\..\..\plf\riscv\NMSIS\Core\Include/core_feature_base.h ****         rv_csr_t mpie:1;                        /*!< bit:     mirror of MIE flag */
 131:..\..\..\..\plf\riscv\NMSIS\Core\Include/core_feature_base.h ****         rv_csr_t _reserved4:3;                  /*!< bit:     Reserved */
 132:..\..\..\..\plf\riscv\NMSIS\Core\Include/core_feature_base.h ****         rv_csr_t mpp:2;                         /*!< bit:     mirror of Privilege Mode */
 133:..\..\..\..\plf\riscv\NMSIS\Core\Include/core_feature_base.h ****         rv_csr_t fs:2;                          /*!< bit:     FS status flag */
 134:..\..\..\..\plf\riscv\NMSIS\Core\Include/core_feature_base.h ****         rv_csr_t xs:2;                          /*!< bit:     XS status flag */
 135:..\..\..\..\plf\riscv\NMSIS\Core\Include/core_feature_base.h ****         rv_csr_t mprv:1;                        /*!< bit:     Machine mode PMP */
 136:..\..\..\..\plf\riscv\NMSIS\Core\Include/core_feature_base.h ****         rv_csr_t sum:1;                         /*!< bit:     Supervisor Mode load and store protec
 137:..\..\..\..\plf\riscv\NMSIS\Core\Include/core_feature_base.h ****         rv_csr_t _reserved6:12;                 /*!< bit:     19..30 Reserved  */
 138:..\..\..\..\plf\riscv\NMSIS\Core\Include/core_feature_base.h ****         rv_csr_t sd:1;                          /*!< bit:     Dirty status for XS or FS */
 139:..\..\..\..\plf\riscv\NMSIS\Core\Include/core_feature_base.h **** #endif
 140:..\..\..\..\plf\riscv\NMSIS\Core\Include/core_feature_base.h ****     } b;                                        /*!< Structure used for bit  access */
 141:..\..\..\..\plf\riscv\NMSIS\Core\Include/core_feature_base.h ****     rv_csr_t d;                                 /*!< Type      used for csr data access */
 142:..\..\..\..\plf\riscv\NMSIS\Core\Include/core_feature_base.h **** } CSR_MSTATUS_Type;
 143:..\..\..\..\plf\riscv\NMSIS\Core\Include/core_feature_base.h **** 
 144:..\..\..\..\plf\riscv\NMSIS\Core\Include/core_feature_base.h **** /**
 145:..\..\..\..\plf\riscv\NMSIS\Core\Include/core_feature_base.h ****  * \brief  Union type to access MTVEC CSR register.
 146:..\..\..\..\plf\riscv\NMSIS\Core\Include/core_feature_base.h ****  */
 147:..\..\..\..\plf\riscv\NMSIS\Core\Include/core_feature_base.h **** typedef union {
 148:..\..\..\..\plf\riscv\NMSIS\Core\Include/core_feature_base.h ****     struct {
 149:..\..\..\..\plf\riscv\NMSIS\Core\Include/core_feature_base.h ****         rv_csr_t mode:6;                        /*!< bit:     0..5   interrupt mode control */
 150:..\..\..\..\plf\riscv\NMSIS\Core\Include/core_feature_base.h **** #if defined(__RISCV_XLEN) && __RISCV_XLEN == 64
 151:..\..\..\..\plf\riscv\NMSIS\Core\Include/core_feature_base.h ****         rv_csr_t addr:58;                       /*!< bit:     6..63  mtvec address */
 152:..\..\..\..\plf\riscv\NMSIS\Core\Include/core_feature_base.h **** #else
 153:..\..\..\..\plf\riscv\NMSIS\Core\Include/core_feature_base.h ****         rv_csr_t addr:26;                       /*!< bit:     6..31  mtvec address */
 154:..\..\..\..\plf\riscv\NMSIS\Core\Include/core_feature_base.h **** #endif
 155:..\..\..\..\plf\riscv\NMSIS\Core\Include/core_feature_base.h ****     } b;                                        /*!< Structure used for bit  access */
 156:..\..\..\..\plf\riscv\NMSIS\Core\Include/core_feature_base.h ****     rv_csr_t d;                                 /*!< Type      used for csr data access */
 157:..\..\..\..\plf\riscv\NMSIS\Core\Include/core_feature_base.h **** } CSR_MTVEC_Type;
 158:..\..\..\..\plf\riscv\NMSIS\Core\Include/core_feature_base.h **** 
 159:..\..\..\..\plf\riscv\NMSIS\Core\Include/core_feature_base.h **** /**
 160:..\..\..\..\plf\riscv\NMSIS\Core\Include/core_feature_base.h ****  * \brief  Union type to access MCAUSE CSR register.
 161:..\..\..\..\plf\riscv\NMSIS\Core\Include/core_feature_base.h ****  */
 162:..\..\..\..\plf\riscv\NMSIS\Core\Include/core_feature_base.h **** typedef union {
 163:..\..\..\..\plf\riscv\NMSIS\Core\Include/core_feature_base.h ****     struct {
 164:..\..\..\..\plf\riscv\NMSIS\Core\Include/core_feature_base.h ****         rv_csr_t exccode:12;                    /*!< bit:     11..0  exception or interrupt code */
 165:..\..\..\..\plf\riscv\NMSIS\Core\Include/core_feature_base.h ****         rv_csr_t _reserved0:4;                  /*!< bit:     15..12  Reserved */
 166:..\..\..\..\plf\riscv\NMSIS\Core\Include/core_feature_base.h ****         rv_csr_t mpil:8;                        /*!< bit:     23..16  Previous interrupt level */
 167:..\..\..\..\plf\riscv\NMSIS\Core\Include/core_feature_base.h ****         rv_csr_t _reserved1:3;                  /*!< bit:     26..24  Reserved */
 168:..\..\..\..\plf\riscv\NMSIS\Core\Include/core_feature_base.h ****         rv_csr_t mpie:1;                        /*!< bit:     27  Interrupt enable flag before ente
 169:..\..\..\..\plf\riscv\NMSIS\Core\Include/core_feature_base.h ****         rv_csr_t mpp:2;                         /*!< bit:     29..28  Privilede mode flag before en
 170:..\..\..\..\plf\riscv\NMSIS\Core\Include/core_feature_base.h ****         rv_csr_t minhv:1;                       /*!< bit:     30  Machine interrupt vector table */
 171:..\..\..\..\plf\riscv\NMSIS\Core\Include/core_feature_base.h **** #if defined(__RISCV_XLEN) && __RISCV_XLEN == 64
 172:..\..\..\..\plf\riscv\NMSIS\Core\Include/core_feature_base.h ****         rv_csr_t _reserved2:32;                 /*!< bit:     31..62  Reserved */
 173:..\..\..\..\plf\riscv\NMSIS\Core\Include/core_feature_base.h ****         rv_csr_t interrupt:1;                   /*!< bit:     63  trap type. 0 means exception and 
 174:..\..\..\..\plf\riscv\NMSIS\Core\Include/core_feature_base.h **** #else
 175:..\..\..\..\plf\riscv\NMSIS\Core\Include/core_feature_base.h ****         rv_csr_t interrupt:1;                   /*!< bit:     31  trap type. 0 means exception and 
 176:..\..\..\..\plf\riscv\NMSIS\Core\Include/core_feature_base.h **** #endif
 177:..\..\..\..\plf\riscv\NMSIS\Core\Include/core_feature_base.h ****     } b;                                        /*!< Structure used for bit  access */
 178:..\..\..\..\plf\riscv\NMSIS\Core\Include/core_feature_base.h ****     rv_csr_t d;                                 /*!< Type      used for csr data access */
 179:..\..\..\..\plf\riscv\NMSIS\Core\Include/core_feature_base.h **** } CSR_MCAUSE_Type;
 180:..\..\..\..\plf\riscv\NMSIS\Core\Include/core_feature_base.h **** 
 181:..\..\..\..\plf\riscv\NMSIS\Core\Include/core_feature_base.h **** /**
 182:..\..\..\..\plf\riscv\NMSIS\Core\Include/core_feature_base.h ****  * \brief  Union type to access MCOUNTINHIBIT CSR register.
 183:..\..\..\..\plf\riscv\NMSIS\Core\Include/core_feature_base.h ****  */
 184:..\..\..\..\plf\riscv\NMSIS\Core\Include/core_feature_base.h **** typedef union {
 185:..\..\..\..\plf\riscv\NMSIS\Core\Include/core_feature_base.h ****     struct {
 186:..\..\..\..\plf\riscv\NMSIS\Core\Include/core_feature_base.h ****         rv_csr_t cy:1;                          /*!< bit:     0     1 means disable mcycle counter 
 187:..\..\..\..\plf\riscv\NMSIS\Core\Include/core_feature_base.h ****         rv_csr_t _reserved0:1;                  /*!< bit:     1     Reserved */
 188:..\..\..\..\plf\riscv\NMSIS\Core\Include/core_feature_base.h ****         rv_csr_t ir:1;                          /*!< bit:     2     1 means disable minstret counte
 189:..\..\..\..\plf\riscv\NMSIS\Core\Include/core_feature_base.h **** #if defined(__RISCV_XLEN) && __RISCV_XLEN == 64
 190:..\..\..\..\plf\riscv\NMSIS\Core\Include/core_feature_base.h ****         rv_csr_t _reserved1:61;                 /*!< bit:     3..63 Reserved */
 191:..\..\..\..\plf\riscv\NMSIS\Core\Include/core_feature_base.h **** #else
 192:..\..\..\..\plf\riscv\NMSIS\Core\Include/core_feature_base.h ****         rv_csr_t _reserved1:29;                 /*!< bit:     3..31 Reserved */
 193:..\..\..\..\plf\riscv\NMSIS\Core\Include/core_feature_base.h **** #endif
 194:..\..\..\..\plf\riscv\NMSIS\Core\Include/core_feature_base.h ****     } b;                                        /*!< Structure used for bit  access */
 195:..\..\..\..\plf\riscv\NMSIS\Core\Include/core_feature_base.h ****     rv_csr_t d;                                 /*!< Type      used for csr data access */
 196:..\..\..\..\plf\riscv\NMSIS\Core\Include/core_feature_base.h **** } CSR_MCOUNTINHIBIT_Type;
 197:..\..\..\..\plf\riscv\NMSIS\Core\Include/core_feature_base.h **** 
 198:..\..\..\..\plf\riscv\NMSIS\Core\Include/core_feature_base.h **** /**
 199:..\..\..\..\plf\riscv\NMSIS\Core\Include/core_feature_base.h ****  * \brief  Union type to access MSUBM CSR register.
 200:..\..\..\..\plf\riscv\NMSIS\Core\Include/core_feature_base.h ****  */
 201:..\..\..\..\plf\riscv\NMSIS\Core\Include/core_feature_base.h **** typedef union {
 202:..\..\..\..\plf\riscv\NMSIS\Core\Include/core_feature_base.h ****     struct {
 203:..\..\..\..\plf\riscv\NMSIS\Core\Include/core_feature_base.h ****         rv_csr_t _reserved0:6;                  /*!< bit:     0..5   Reserved */
 204:..\..\..\..\plf\riscv\NMSIS\Core\Include/core_feature_base.h ****         rv_csr_t typ:2;                         /*!< bit:     6..7   current trap type */
 205:..\..\..\..\plf\riscv\NMSIS\Core\Include/core_feature_base.h ****         rv_csr_t ptyp:2;                        /*!< bit:     8..9   previous trap type */
 206:..\..\..\..\plf\riscv\NMSIS\Core\Include/core_feature_base.h **** #if defined(__RISCV_XLEN) && __RISCV_XLEN == 64
 207:..\..\..\..\plf\riscv\NMSIS\Core\Include/core_feature_base.h ****         rv_csr_t _reserved1:54;                 /*!< bit:     10..63 Reserved */
 208:..\..\..\..\plf\riscv\NMSIS\Core\Include/core_feature_base.h **** #else
 209:..\..\..\..\plf\riscv\NMSIS\Core\Include/core_feature_base.h ****         rv_csr_t _reserved1:22;                 /*!< bit:     10..31 Reserved */
 210:..\..\..\..\plf\riscv\NMSIS\Core\Include/core_feature_base.h **** #endif
 211:..\..\..\..\plf\riscv\NMSIS\Core\Include/core_feature_base.h ****     } b;                                        /*!< Structure used for bit  access */
 212:..\..\..\..\plf\riscv\NMSIS\Core\Include/core_feature_base.h ****     rv_csr_t d;                                 /*!< Type      used for csr data access */
 213:..\..\..\..\plf\riscv\NMSIS\Core\Include/core_feature_base.h **** } CSR_MSUBM_Type;
 214:..\..\..\..\plf\riscv\NMSIS\Core\Include/core_feature_base.h **** 
 215:..\..\..\..\plf\riscv\NMSIS\Core\Include/core_feature_base.h **** /**
 216:..\..\..\..\plf\riscv\NMSIS\Core\Include/core_feature_base.h ****  * \brief  Union type to access MDCAUSE CSR register.
 217:..\..\..\..\plf\riscv\NMSIS\Core\Include/core_feature_base.h ****  */
 218:..\..\..\..\plf\riscv\NMSIS\Core\Include/core_feature_base.h **** typedef union {
 219:..\..\..\..\plf\riscv\NMSIS\Core\Include/core_feature_base.h ****     struct {
 220:..\..\..\..\plf\riscv\NMSIS\Core\Include/core_feature_base.h ****         rv_csr_t mdcause:2;                     /*!< bit:     0..1   More detailed exception inform
 221:..\..\..\..\plf\riscv\NMSIS\Core\Include/core_feature_base.h ****         rv_csr_t _reserved0:__RISCV_XLEN-2;     /*!< bit:     2..XLEN-1 Reserved */
 222:..\..\..\..\plf\riscv\NMSIS\Core\Include/core_feature_base.h ****     } b;                                        /*!< Structure used for bit  access */
 223:..\..\..\..\plf\riscv\NMSIS\Core\Include/core_feature_base.h ****     rv_csr_t d;                                 /*!< Type      used for csr data access */
 224:..\..\..\..\plf\riscv\NMSIS\Core\Include/core_feature_base.h **** } CSR_MDCAUSE_Type;
 225:..\..\..\..\plf\riscv\NMSIS\Core\Include/core_feature_base.h **** 
 226:..\..\..\..\plf\riscv\NMSIS\Core\Include/core_feature_base.h **** /**
 227:..\..\..\..\plf\riscv\NMSIS\Core\Include/core_feature_base.h ****  * \brief  Union type to access MMISC_CTRL CSR register.
 228:..\..\..\..\plf\riscv\NMSIS\Core\Include/core_feature_base.h ****  */
 229:..\..\..\..\plf\riscv\NMSIS\Core\Include/core_feature_base.h **** typedef union {
 230:..\..\..\..\plf\riscv\NMSIS\Core\Include/core_feature_base.h ****     struct {
 231:..\..\..\..\plf\riscv\NMSIS\Core\Include/core_feature_base.h ****         rv_csr_t _reserved0:3;                  /*!< bit:     0..2  Reserved */
 232:..\..\..\..\plf\riscv\NMSIS\Core\Include/core_feature_base.h ****         rv_csr_t bpu:1;                         /*!< bit:     3     dynamic prediction enable flag 
 233:..\..\..\..\plf\riscv\NMSIS\Core\Include/core_feature_base.h ****         rv_csr_t _reserved1:2;                  /*!< bit:     4..5  Reserved */
 234:..\..\..\..\plf\riscv\NMSIS\Core\Include/core_feature_base.h ****         rv_csr_t misalign:1;                    /*!< bit:     6     misaligned access support flag 
 235:..\..\..\..\plf\riscv\NMSIS\Core\Include/core_feature_base.h ****         rv_csr_t _reserved2:2;                  /*!< bit:     7..8  Reserved */
 236:..\..\..\..\plf\riscv\NMSIS\Core\Include/core_feature_base.h ****         rv_csr_t nmi_cause:1;                   /*!< bit:     9     mnvec control and nmi mcase exc
 237:..\..\..\..\plf\riscv\NMSIS\Core\Include/core_feature_base.h **** #if defined(__RISCV_XLEN) && __RISCV_XLEN == 64
 238:..\..\..\..\plf\riscv\NMSIS\Core\Include/core_feature_base.h ****         rv_csr_t _reserved3:54;                 /*!< bit:     10..63 Reserved */
 239:..\..\..\..\plf\riscv\NMSIS\Core\Include/core_feature_base.h **** #else
 240:..\..\..\..\plf\riscv\NMSIS\Core\Include/core_feature_base.h ****         rv_csr_t _reserved3:22;                 /*!< bit:     10..31 Reserved */
 241:..\..\..\..\plf\riscv\NMSIS\Core\Include/core_feature_base.h **** #endif
 242:..\..\..\..\plf\riscv\NMSIS\Core\Include/core_feature_base.h ****     } b;                                        /*!< Structure used for bit  access */
 243:..\..\..\..\plf\riscv\NMSIS\Core\Include/core_feature_base.h ****     rv_csr_t d;                                 /*!< Type      used for csr data access */
 244:..\..\..\..\plf\riscv\NMSIS\Core\Include/core_feature_base.h **** } CSR_MMISCCTRL_Type;
 245:..\..\..\..\plf\riscv\NMSIS\Core\Include/core_feature_base.h **** 
 246:..\..\..\..\plf\riscv\NMSIS\Core\Include/core_feature_base.h **** typedef CSR_MMISCCTRL_Type CSR_MMISCCTL_Type;
 247:..\..\..\..\plf\riscv\NMSIS\Core\Include/core_feature_base.h **** 
 248:..\..\..\..\plf\riscv\NMSIS\Core\Include/core_feature_base.h **** /**
 249:..\..\..\..\plf\riscv\NMSIS\Core\Include/core_feature_base.h ****  * \brief  Union type to access MCACHE_CTL CSR register.
 250:..\..\..\..\plf\riscv\NMSIS\Core\Include/core_feature_base.h ****  */
 251:..\..\..\..\plf\riscv\NMSIS\Core\Include/core_feature_base.h **** typedef union {
 252:..\..\..\..\plf\riscv\NMSIS\Core\Include/core_feature_base.h ****     struct {
 253:..\..\..\..\plf\riscv\NMSIS\Core\Include/core_feature_base.h ****         rv_csr_t ic_en:1;                       /*!< I-Cache enable */
 254:..\..\..\..\plf\riscv\NMSIS\Core\Include/core_feature_base.h ****         rv_csr_t ic_scpd_mod:1;                 /*!< Scratchpad mode, 0: Scratchpad as ICache Data 
 255:..\..\..\..\plf\riscv\NMSIS\Core\Include/core_feature_base.h ****         rv_csr_t ic_ecc_en:1;                   /*!< I-Cache ECC enable */
 256:..\..\..\..\plf\riscv\NMSIS\Core\Include/core_feature_base.h ****         rv_csr_t ic_ecc_excp_en:1;              /*!< I-Cache 2bit ECC error exception enable */
 257:..\..\..\..\plf\riscv\NMSIS\Core\Include/core_feature_base.h ****         rv_csr_t ic_rwtecc:1;                   /*!< Control I-Cache Tag Ram ECC code injection */
 258:..\..\..\..\plf\riscv\NMSIS\Core\Include/core_feature_base.h ****         rv_csr_t ic_rwdecc:1;                   /*!< Control I-Cache Data Ram ECC code injection */
 259:..\..\..\..\plf\riscv\NMSIS\Core\Include/core_feature_base.h ****         rv_csr_t _reserved0:10;
 260:..\..\..\..\plf\riscv\NMSIS\Core\Include/core_feature_base.h ****         rv_csr_t dc_en:1;                       /*!< DCache enable */
 261:..\..\..\..\plf\riscv\NMSIS\Core\Include/core_feature_base.h ****         rv_csr_t dc_ecc_en:1;                   /*!< D-Cache ECC enable */
 262:..\..\..\..\plf\riscv\NMSIS\Core\Include/core_feature_base.h ****         rv_csr_t dc_ecc_excp_en:1;              /*!< D-Cache 2bit ECC error exception enable */
 263:..\..\..\..\plf\riscv\NMSIS\Core\Include/core_feature_base.h ****         rv_csr_t dc_rwtecc:1;                   /*!< Control D-Cache Tag Ram ECC code injection */
 264:..\..\..\..\plf\riscv\NMSIS\Core\Include/core_feature_base.h ****         rv_csr_t dc_rwdecc:1;                   /*!< Control D-Cache Data Ram ECC code injection */
 265:..\..\..\..\plf\riscv\NMSIS\Core\Include/core_feature_base.h ****         rv_csr_t _reserved1:__RISCV_XLEN-21;
 266:..\..\..\..\plf\riscv\NMSIS\Core\Include/core_feature_base.h ****     } b;                                        /*!< Structure used for bit  access */
 267:..\..\..\..\plf\riscv\NMSIS\Core\Include/core_feature_base.h ****     rv_csr_t d;                                 /*!< Type      used for csr data access */
 268:..\..\..\..\plf\riscv\NMSIS\Core\Include/core_feature_base.h **** } CSR_MCACHECTL_Type;
 269:..\..\..\..\plf\riscv\NMSIS\Core\Include/core_feature_base.h **** 
 270:..\..\..\..\plf\riscv\NMSIS\Core\Include/core_feature_base.h **** /**
 271:..\..\..\..\plf\riscv\NMSIS\Core\Include/core_feature_base.h ****  * \brief  Union type to access MSAVESTATUS CSR register.
 272:..\..\..\..\plf\riscv\NMSIS\Core\Include/core_feature_base.h ****  */
 273:..\..\..\..\plf\riscv\NMSIS\Core\Include/core_feature_base.h **** typedef union {
 274:..\..\..\..\plf\riscv\NMSIS\Core\Include/core_feature_base.h ****     struct {
 275:..\..\..\..\plf\riscv\NMSIS\Core\Include/core_feature_base.h ****         rv_csr_t mpie1:1;                       /*!< bit:     0     interrupt enable flag of fisrt 
 276:..\..\..\..\plf\riscv\NMSIS\Core\Include/core_feature_base.h ****         rv_csr_t mpp1:2;                        /*!< bit:     1..2  privilede mode of fisrt level N
 277:..\..\..\..\plf\riscv\NMSIS\Core\Include/core_feature_base.h ****         rv_csr_t _reserved0:3;                  /*!< bit:     3..5  Reserved */
 278:..\..\..\..\plf\riscv\NMSIS\Core\Include/core_feature_base.h ****         rv_csr_t ptyp1:2;                       /*!< bit:     6..7  NMI/exception type of before fi
 279:..\..\..\..\plf\riscv\NMSIS\Core\Include/core_feature_base.h ****         rv_csr_t mpie2:1;                       /*!< bit:     8     interrupt enable flag of second
 280:..\..\..\..\plf\riscv\NMSIS\Core\Include/core_feature_base.h ****         rv_csr_t mpp2:2;                        /*!< bit:     9..10 privilede mode of second level 
 281:..\..\..\..\plf\riscv\NMSIS\Core\Include/core_feature_base.h ****         rv_csr_t _reserved1:3;                  /*!< bit:     11..13     Reserved */
 282:..\..\..\..\plf\riscv\NMSIS\Core\Include/core_feature_base.h ****         rv_csr_t ptyp2:2;                       /*!< bit:     14..15     NMI/exception type of befo
 283:..\..\..\..\plf\riscv\NMSIS\Core\Include/core_feature_base.h **** #if defined(__RISCV_XLEN) && __RISCV_XLEN == 64
 284:..\..\..\..\plf\riscv\NMSIS\Core\Include/core_feature_base.h ****         rv_csr_t _reserved2:48;                 /*!< bit:     16..63 Reserved*/
 285:..\..\..\..\plf\riscv\NMSIS\Core\Include/core_feature_base.h **** #else
 286:..\..\..\..\plf\riscv\NMSIS\Core\Include/core_feature_base.h ****         rv_csr_t _reserved2:16;                 /*!< bit:     16..31 Reserved*/
 287:..\..\..\..\plf\riscv\NMSIS\Core\Include/core_feature_base.h **** #endif
 288:..\..\..\..\plf\riscv\NMSIS\Core\Include/core_feature_base.h ****     } b;                                        /*!< Structure used for bit  access */
 289:..\..\..\..\plf\riscv\NMSIS\Core\Include/core_feature_base.h ****     rv_csr_t w;                                 /*!< Type      used for csr data access */
 290:..\..\..\..\plf\riscv\NMSIS\Core\Include/core_feature_base.h **** } CSR_MSAVESTATUS_Type;
 291:..\..\..\..\plf\riscv\NMSIS\Core\Include/core_feature_base.h **** 
 292:..\..\..\..\plf\riscv\NMSIS\Core\Include/core_feature_base.h **** /**
 293:..\..\..\..\plf\riscv\NMSIS\Core\Include/core_feature_base.h ****  * \brief  Union type to access MILM_CTL CSR register.
 294:..\..\..\..\plf\riscv\NMSIS\Core\Include/core_feature_base.h ****  */
 295:..\..\..\..\plf\riscv\NMSIS\Core\Include/core_feature_base.h **** typedef union {
 296:..\..\..\..\plf\riscv\NMSIS\Core\Include/core_feature_base.h ****     struct {
 297:..\..\..\..\plf\riscv\NMSIS\Core\Include/core_feature_base.h ****         rv_csr_t ilm_en:1;                      /*!< ILM enable */
 298:..\..\..\..\plf\riscv\NMSIS\Core\Include/core_feature_base.h ****         rv_csr_t ilm_ecc_en:1;                  /*!< ILM ECC eanble */
 299:..\..\..\..\plf\riscv\NMSIS\Core\Include/core_feature_base.h ****         rv_csr_t ilm_ecc_excp_en:1;             /*!< ILM ECC exception enable */
 300:..\..\..\..\plf\riscv\NMSIS\Core\Include/core_feature_base.h ****         rv_csr_t ilm_rwecc:1;                   /*!< Control mecc_code write to ilm, simulate error
 301:..\..\..\..\plf\riscv\NMSIS\Core\Include/core_feature_base.h ****         rv_csr_t _reserved0:6;                  /*!< Reserved */
 302:..\..\..\..\plf\riscv\NMSIS\Core\Include/core_feature_base.h ****         rv_csr_t ilm_bpa:__RISCV_XLEN-10;       /*!< ILM base address */
 303:..\..\..\..\plf\riscv\NMSIS\Core\Include/core_feature_base.h ****     } b;                                        /*!< Structure used for bit  access */
 304:..\..\..\..\plf\riscv\NMSIS\Core\Include/core_feature_base.h ****     rv_csr_t d;                                 /*!< Type      used for csr data access */
 305:..\..\..\..\plf\riscv\NMSIS\Core\Include/core_feature_base.h **** } CSR_MILMCTL_Type;
 306:..\..\..\..\plf\riscv\NMSIS\Core\Include/core_feature_base.h **** 
 307:..\..\..\..\plf\riscv\NMSIS\Core\Include/core_feature_base.h **** /**
 308:..\..\..\..\plf\riscv\NMSIS\Core\Include/core_feature_base.h ****  * \brief  Union type to access MDLM_CTL CSR register.
 309:..\..\..\..\plf\riscv\NMSIS\Core\Include/core_feature_base.h ****  */
 310:..\..\..\..\plf\riscv\NMSIS\Core\Include/core_feature_base.h **** typedef union {
 311:..\..\..\..\plf\riscv\NMSIS\Core\Include/core_feature_base.h ****     struct {
 312:..\..\..\..\plf\riscv\NMSIS\Core\Include/core_feature_base.h ****         rv_csr_t dlm_en:1;                      /*!< DLM enable */
 313:..\..\..\..\plf\riscv\NMSIS\Core\Include/core_feature_base.h ****         rv_csr_t dlm_ecc_en:1;                  /*!< DLM ECC eanble */
 314:..\..\..\..\plf\riscv\NMSIS\Core\Include/core_feature_base.h ****         rv_csr_t dlm_ecc_excp_en:1;             /*!< DLM ECC exception enable */
 315:..\..\..\..\plf\riscv\NMSIS\Core\Include/core_feature_base.h ****         rv_csr_t dlm_rwecc:1;                   /*!< Control mecc_code write to dlm, simulate error
 316:..\..\..\..\plf\riscv\NMSIS\Core\Include/core_feature_base.h ****         rv_csr_t _reserved0:6;                  /*!< Reserved */
 317:..\..\..\..\plf\riscv\NMSIS\Core\Include/core_feature_base.h ****         rv_csr_t dlm_bpa:__RISCV_XLEN-10;       /*!< DLM base address */
 318:..\..\..\..\plf\riscv\NMSIS\Core\Include/core_feature_base.h ****     } b;                                        /*!< Structure used for bit  access */
 319:..\..\..\..\plf\riscv\NMSIS\Core\Include/core_feature_base.h ****     rv_csr_t d;                                 /*!< Type      used for csr data access */
 320:..\..\..\..\plf\riscv\NMSIS\Core\Include/core_feature_base.h **** } CSR_MDLMCTL_Type;
 321:..\..\..\..\plf\riscv\NMSIS\Core\Include/core_feature_base.h **** 
 322:..\..\..\..\plf\riscv\NMSIS\Core\Include/core_feature_base.h **** /**
 323:..\..\..\..\plf\riscv\NMSIS\Core\Include/core_feature_base.h ****  * \brief  Union type to access MCFG_INFO CSR register.
 324:..\..\..\..\plf\riscv\NMSIS\Core\Include/core_feature_base.h ****  */
 325:..\..\..\..\plf\riscv\NMSIS\Core\Include/core_feature_base.h **** typedef union {
 326:..\..\..\..\plf\riscv\NMSIS\Core\Include/core_feature_base.h ****     struct {
 327:..\..\..\..\plf\riscv\NMSIS\Core\Include/core_feature_base.h ****         rv_csr_t tee:1;                         /*!< TEE present */
 328:..\..\..\..\plf\riscv\NMSIS\Core\Include/core_feature_base.h ****         rv_csr_t ecc:1;                         /*!< ECC present */
 329:..\..\..\..\plf\riscv\NMSIS\Core\Include/core_feature_base.h ****         rv_csr_t clic:1;                        /*!< CLIC present */
 330:..\..\..\..\plf\riscv\NMSIS\Core\Include/core_feature_base.h ****         rv_csr_t plic:1;                        /*!< PLIC present */
 331:..\..\..\..\plf\riscv\NMSIS\Core\Include/core_feature_base.h ****         rv_csr_t fio:1;                         /*!< FIO present */
 332:..\..\..\..\plf\riscv\NMSIS\Core\Include/core_feature_base.h ****         rv_csr_t ppi:1;                         /*!< PPI present */
 333:..\..\..\..\plf\riscv\NMSIS\Core\Include/core_feature_base.h ****         rv_csr_t nice:1;                        /*!< NICE present */
 334:..\..\..\..\plf\riscv\NMSIS\Core\Include/core_feature_base.h ****         rv_csr_t ilm:1;                         /*!< ILM present */
 335:..\..\..\..\plf\riscv\NMSIS\Core\Include/core_feature_base.h ****         rv_csr_t dlm:1;                         /*!< DLM present */
 336:..\..\..\..\plf\riscv\NMSIS\Core\Include/core_feature_base.h ****         rv_csr_t icache:1;                      /*!< ICache present */
 337:..\..\..\..\plf\riscv\NMSIS\Core\Include/core_feature_base.h ****         rv_csr_t dcache:1;                      /*!< DCache present */
 338:..\..\..\..\plf\riscv\NMSIS\Core\Include/core_feature_base.h ****         rv_csr_t _reserved0:__RISCV_XLEN-11;
 339:..\..\..\..\plf\riscv\NMSIS\Core\Include/core_feature_base.h ****     } b;                                        /*!< Structure used for bit  access */
 340:..\..\..\..\plf\riscv\NMSIS\Core\Include/core_feature_base.h ****     rv_csr_t d;                                 /*!< Type      used for csr data access */
 341:..\..\..\..\plf\riscv\NMSIS\Core\Include/core_feature_base.h **** } CSR_MCFGINFO_Type;
 342:..\..\..\..\plf\riscv\NMSIS\Core\Include/core_feature_base.h **** 
 343:..\..\..\..\plf\riscv\NMSIS\Core\Include/core_feature_base.h **** /**
 344:..\..\..\..\plf\riscv\NMSIS\Core\Include/core_feature_base.h ****  * \brief  Union type to access MICFG_INFO CSR register.
 345:..\..\..\..\plf\riscv\NMSIS\Core\Include/core_feature_base.h ****  */
 346:..\..\..\..\plf\riscv\NMSIS\Core\Include/core_feature_base.h **** typedef union {
 347:..\..\..\..\plf\riscv\NMSIS\Core\Include/core_feature_base.h ****     struct {
 348:..\..\..\..\plf\riscv\NMSIS\Core\Include/core_feature_base.h ****         rv_csr_t set:4;                         /*!< I-Cache sets per way */
 349:..\..\..\..\plf\riscv\NMSIS\Core\Include/core_feature_base.h ****         rv_csr_t way:3;                         /*!< I-Cache way */
 350:..\..\..\..\plf\riscv\NMSIS\Core\Include/core_feature_base.h ****         rv_csr_t lsize:3;                       /*!< I-Cache line size */
 351:..\..\..\..\plf\riscv\NMSIS\Core\Include/core_feature_base.h ****         rv_csr_t cache_ecc:1;                   /*!< I-Cache ECC present */
 352:..\..\..\..\plf\riscv\NMSIS\Core\Include/core_feature_base.h ****         rv_csr_t _reserved0:5;
 353:..\..\..\..\plf\riscv\NMSIS\Core\Include/core_feature_base.h ****         rv_csr_t lm_size:5;                     /*!< ILM size, need to be 2^n size */
 354:..\..\..\..\plf\riscv\NMSIS\Core\Include/core_feature_base.h ****         rv_csr_t lm_xonly:1;                    /*!< ILM Execute only permission */
 355:..\..\..\..\plf\riscv\NMSIS\Core\Include/core_feature_base.h ****         rv_csr_t lm_ecc:1;                      /*!< ILM ECC present */
 356:..\..\..\..\plf\riscv\NMSIS\Core\Include/core_feature_base.h ****         rv_csr_t _reserved1:__RISCV_XLEN-23;
 357:..\..\..\..\plf\riscv\NMSIS\Core\Include/core_feature_base.h ****     } b;                                        /*!< Structure used for bit  access */
 358:..\..\..\..\plf\riscv\NMSIS\Core\Include/core_feature_base.h ****     rv_csr_t d;                                 /*!< Type      used for csr data access */
 359:..\..\..\..\plf\riscv\NMSIS\Core\Include/core_feature_base.h **** } CSR_MICFGINFO_Type;
 360:..\..\..\..\plf\riscv\NMSIS\Core\Include/core_feature_base.h **** 
 361:..\..\..\..\plf\riscv\NMSIS\Core\Include/core_feature_base.h **** /**
 362:..\..\..\..\plf\riscv\NMSIS\Core\Include/core_feature_base.h ****  * \brief  Union type to access MDCFG_INFO CSR register.
 363:..\..\..\..\plf\riscv\NMSIS\Core\Include/core_feature_base.h ****  */
 364:..\..\..\..\plf\riscv\NMSIS\Core\Include/core_feature_base.h **** typedef union {
 365:..\..\..\..\plf\riscv\NMSIS\Core\Include/core_feature_base.h ****     struct {
 366:..\..\..\..\plf\riscv\NMSIS\Core\Include/core_feature_base.h ****         rv_csr_t set:4;                         /*!< D-Cache sets per way */
 367:..\..\..\..\plf\riscv\NMSIS\Core\Include/core_feature_base.h ****         rv_csr_t way:3;                         /*!< D-Cache way */
 368:..\..\..\..\plf\riscv\NMSIS\Core\Include/core_feature_base.h ****         rv_csr_t lsize:3;                       /*!< D-Cache line size */
 369:..\..\..\..\plf\riscv\NMSIS\Core\Include/core_feature_base.h ****         rv_csr_t cache_ecc:1;                   /*!< D-Cache ECC present */
 370:..\..\..\..\plf\riscv\NMSIS\Core\Include/core_feature_base.h ****         rv_csr_t _reserved0:5;
 371:..\..\..\..\plf\riscv\NMSIS\Core\Include/core_feature_base.h ****         rv_csr_t lm_size:5;                     /*!< DLM size, need to be 2^n size */
 372:..\..\..\..\plf\riscv\NMSIS\Core\Include/core_feature_base.h ****         rv_csr_t lm_xonly:1;                    /*!< DLM Execute only permission */
 373:..\..\..\..\plf\riscv\NMSIS\Core\Include/core_feature_base.h ****         rv_csr_t lm_ecc:1;                      /*!< DLM ECC present */
 374:..\..\..\..\plf\riscv\NMSIS\Core\Include/core_feature_base.h ****         rv_csr_t _reserved1:__RISCV_XLEN-23;
 375:..\..\..\..\plf\riscv\NMSIS\Core\Include/core_feature_base.h ****     } b;                                        /*!< Structure used for bit  access */
 376:..\..\..\..\plf\riscv\NMSIS\Core\Include/core_feature_base.h ****     rv_csr_t d;                                 /*!< Type      used for csr data access */
 377:..\..\..\..\plf\riscv\NMSIS\Core\Include/core_feature_base.h **** } CSR_MDCFGINFO_Type;
 378:..\..\..\..\plf\riscv\NMSIS\Core\Include/core_feature_base.h **** 
 379:..\..\..\..\plf\riscv\NMSIS\Core\Include/core_feature_base.h **** /**
 380:..\..\..\..\plf\riscv\NMSIS\Core\Include/core_feature_base.h ****  * \brief  Union type to access MPPICFG_INFO CSR register.
 381:..\..\..\..\plf\riscv\NMSIS\Core\Include/core_feature_base.h ****  */
 382:..\..\..\..\plf\riscv\NMSIS\Core\Include/core_feature_base.h **** typedef union {
 383:..\..\..\..\plf\riscv\NMSIS\Core\Include/core_feature_base.h ****     struct {
 384:..\..\..\..\plf\riscv\NMSIS\Core\Include/core_feature_base.h ****         rv_csr_t _reserved0:1;                  /*!< Reserved */
 385:..\..\..\..\plf\riscv\NMSIS\Core\Include/core_feature_base.h ****         rv_csr_t ppi_size:5;                    /*!< PPI size, need to be 2^n size */
 386:..\..\..\..\plf\riscv\NMSIS\Core\Include/core_feature_base.h ****         rv_csr_t _reserved1:4;                  /*!< Reserved */
 387:..\..\..\..\plf\riscv\NMSIS\Core\Include/core_feature_base.h ****         rv_csr_t ppi_bpa:__RISCV_XLEN-10;       /*!< PPI base address */
 388:..\..\..\..\plf\riscv\NMSIS\Core\Include/core_feature_base.h ****     } b;                                        /*!< Structure used for bit  access */
 389:..\..\..\..\plf\riscv\NMSIS\Core\Include/core_feature_base.h ****     rv_csr_t d;                                 /*!< Type      used for csr data access */
 390:..\..\..\..\plf\riscv\NMSIS\Core\Include/core_feature_base.h **** } CSR_MPPICFGINFO_Type;
 391:..\..\..\..\plf\riscv\NMSIS\Core\Include/core_feature_base.h **** 
 392:..\..\..\..\plf\riscv\NMSIS\Core\Include/core_feature_base.h **** /**
 393:..\..\..\..\plf\riscv\NMSIS\Core\Include/core_feature_base.h ****  * \brief  Union type to access MFIOCFG_INFO CSR register.
 394:..\..\..\..\plf\riscv\NMSIS\Core\Include/core_feature_base.h ****  */
 395:..\..\..\..\plf\riscv\NMSIS\Core\Include/core_feature_base.h **** typedef union {
 396:..\..\..\..\plf\riscv\NMSIS\Core\Include/core_feature_base.h ****     struct {
 397:..\..\..\..\plf\riscv\NMSIS\Core\Include/core_feature_base.h ****         rv_csr_t _reserved0:1;                  /*!< Reserved */
 398:..\..\..\..\plf\riscv\NMSIS\Core\Include/core_feature_base.h ****         rv_csr_t fio_size:5;                    /*!< FIO size, need to be 2^n size */
 399:..\..\..\..\plf\riscv\NMSIS\Core\Include/core_feature_base.h ****         rv_csr_t _reserved1:4;                  /*!< Reserved */
 400:..\..\..\..\plf\riscv\NMSIS\Core\Include/core_feature_base.h ****         rv_csr_t fio_bpa:__RISCV_XLEN-10;       /*!< FIO base address */
 401:..\..\..\..\plf\riscv\NMSIS\Core\Include/core_feature_base.h ****     } b;                                        /*!< Structure used for bit  access */
 402:..\..\..\..\plf\riscv\NMSIS\Core\Include/core_feature_base.h ****     rv_csr_t d;                                 /*!< Type      used for csr data access */
 403:..\..\..\..\plf\riscv\NMSIS\Core\Include/core_feature_base.h **** } CSR_MFIOCFGINFO_Type;
 404:..\..\..\..\plf\riscv\NMSIS\Core\Include/core_feature_base.h **** 
 405:..\..\..\..\plf\riscv\NMSIS\Core\Include/core_feature_base.h **** /**
 406:..\..\..\..\plf\riscv\NMSIS\Core\Include/core_feature_base.h ****  * \brief  Union type to access MECC_LOCK CSR register.
 407:..\..\..\..\plf\riscv\NMSIS\Core\Include/core_feature_base.h ****  */
 408:..\..\..\..\plf\riscv\NMSIS\Core\Include/core_feature_base.h **** typedef union {
 409:..\..\..\..\plf\riscv\NMSIS\Core\Include/core_feature_base.h ****     struct {
 410:..\..\..\..\plf\riscv\NMSIS\Core\Include/core_feature_base.h ****         rv_csr_t ecc_lock:1;                    /*!< RW permission, ECC Lock configure */
 411:..\..\..\..\plf\riscv\NMSIS\Core\Include/core_feature_base.h ****         rv_csr_t _reserved0:__RISCV_XLEN-1;     /*!< Reserved */
 412:..\..\..\..\plf\riscv\NMSIS\Core\Include/core_feature_base.h ****     } b;                                        /*!< Structure used for bit  access */
 413:..\..\..\..\plf\riscv\NMSIS\Core\Include/core_feature_base.h ****     rv_csr_t d;                                 /*!< Type      used for csr data access */
 414:..\..\..\..\plf\riscv\NMSIS\Core\Include/core_feature_base.h **** } CSR_MECCLOCK_Type;
 415:..\..\..\..\plf\riscv\NMSIS\Core\Include/core_feature_base.h **** 
 416:..\..\..\..\plf\riscv\NMSIS\Core\Include/core_feature_base.h **** /**
 417:..\..\..\..\plf\riscv\NMSIS\Core\Include/core_feature_base.h ****  * \brief  Union type to access MECC_CODE CSR register.
 418:..\..\..\..\plf\riscv\NMSIS\Core\Include/core_feature_base.h ****  */
 419:..\..\..\..\plf\riscv\NMSIS\Core\Include/core_feature_base.h **** typedef union {
 420:..\..\..\..\plf\riscv\NMSIS\Core\Include/core_feature_base.h ****     struct {
 421:..\..\..\..\plf\riscv\NMSIS\Core\Include/core_feature_base.h ****         rv_csr_t code:9;                        /*!< Used to inject ECC check code */
 422:..\..\..\..\plf\riscv\NMSIS\Core\Include/core_feature_base.h ****         rv_csr_t _reserved0:7;                  /*!< Reserved */
 423:..\..\..\..\plf\riscv\NMSIS\Core\Include/core_feature_base.h ****         rv_csr_t ramid:5;                       /*!< Indicate 2bit ECC error, software can clear th
 424:..\..\..\..\plf\riscv\NMSIS\Core\Include/core_feature_base.h ****         rv_csr_t _reserved1:3;                  /*!< Reserved */
 425:..\..\..\..\plf\riscv\NMSIS\Core\Include/core_feature_base.h ****         rv_csr_t sramid:5;                      /*!< Indicate 1bit ECC error, software can clear th
 426:..\..\..\..\plf\riscv\NMSIS\Core\Include/core_feature_base.h ****         rv_csr_t _reserved2:__RISCV_XLEN-29;    /*!< Reserved */
 427:..\..\..\..\plf\riscv\NMSIS\Core\Include/core_feature_base.h ****     } b;                                        /*!< Structure used for bit  access */
 428:..\..\..\..\plf\riscv\NMSIS\Core\Include/core_feature_base.h ****     rv_csr_t d;                                 /*!< Type      used for csr data access */
 429:..\..\..\..\plf\riscv\NMSIS\Core\Include/core_feature_base.h **** } CSR_MECCCODE_Type;
 430:..\..\..\..\plf\riscv\NMSIS\Core\Include/core_feature_base.h **** 
 431:..\..\..\..\plf\riscv\NMSIS\Core\Include/core_feature_base.h **** /** @} */ /* End of Doxygen Group NMSIS_Core_Base_Registers */
 432:..\..\..\..\plf\riscv\NMSIS\Core\Include/core_feature_base.h **** 
 433:..\..\..\..\plf\riscv\NMSIS\Core\Include/core_feature_base.h **** /* ###########################  Core Function Access  ########################### */
 434:..\..\..\..\plf\riscv\NMSIS\Core\Include/core_feature_base.h **** /**
 435:..\..\..\..\plf\riscv\NMSIS\Core\Include/core_feature_base.h ****  * \defgroup NMSIS_Core_CSR_Register_Access    Core CSR Register Access
 436:..\..\..\..\plf\riscv\NMSIS\Core\Include/core_feature_base.h ****  * \ingroup  NMSIS_Core
 437:..\..\..\..\plf\riscv\NMSIS\Core\Include/core_feature_base.h ****  * \brief    Functions to access the Core CSR Registers
 438:..\..\..\..\plf\riscv\NMSIS\Core\Include/core_feature_base.h ****  * \details
 439:..\..\..\..\plf\riscv\NMSIS\Core\Include/core_feature_base.h ****  *
 440:..\..\..\..\plf\riscv\NMSIS\Core\Include/core_feature_base.h ****  * The following functions or macros provide access to Core CSR registers.
 441:..\..\..\..\plf\riscv\NMSIS\Core\Include/core_feature_base.h ****  * - \ref NMSIS_Core_CSR_Encoding
 442:..\..\..\..\plf\riscv\NMSIS\Core\Include/core_feature_base.h ****  * - \ref NMSIS_Core_CSR_Registers
 443:..\..\..\..\plf\riscv\NMSIS\Core\Include/core_feature_base.h ****  *   @{
 444:..\..\..\..\plf\riscv\NMSIS\Core\Include/core_feature_base.h ****  */
 445:..\..\..\..\plf\riscv\NMSIS\Core\Include/core_feature_base.h **** 
 446:..\..\..\..\plf\riscv\NMSIS\Core\Include/core_feature_base.h **** 
 447:..\..\..\..\plf\riscv\NMSIS\Core\Include/core_feature_base.h **** #ifndef __ASSEMBLY__
 448:..\..\..\..\plf\riscv\NMSIS\Core\Include/core_feature_base.h **** 
 449:..\..\..\..\plf\riscv\NMSIS\Core\Include/core_feature_base.h **** /**
 450:..\..\..\..\plf\riscv\NMSIS\Core\Include/core_feature_base.h ****  * \brief CSR operation Macro for csrrw instruction.
 451:..\..\..\..\plf\riscv\NMSIS\Core\Include/core_feature_base.h ****  * \details
 452:..\..\..\..\plf\riscv\NMSIS\Core\Include/core_feature_base.h ****  * Read the content of csr register to __v,
 453:..\..\..\..\plf\riscv\NMSIS\Core\Include/core_feature_base.h ****  * then write content of val into csr register, then return __v
 454:..\..\..\..\plf\riscv\NMSIS\Core\Include/core_feature_base.h ****  * \param csr   CSR macro definition defined in
 455:..\..\..\..\plf\riscv\NMSIS\Core\Include/core_feature_base.h ****  *              \ref NMSIS_Core_CSR_Registers, eg. \ref CSR_MSTATUS
 456:..\..\..\..\plf\riscv\NMSIS\Core\Include/core_feature_base.h ****  * \param val   value to store into the CSR register
 457:..\..\..\..\plf\riscv\NMSIS\Core\Include/core_feature_base.h ****  * \return the CSR register value before written
 458:..\..\..\..\plf\riscv\NMSIS\Core\Include/core_feature_base.h ****  */
 459:..\..\..\..\plf\riscv\NMSIS\Core\Include/core_feature_base.h **** #define __RV_CSR_SWAP(csr, val)                                 \
 460:..\..\..\..\plf\riscv\NMSIS\Core\Include/core_feature_base.h ****     ({                                                          \
 461:..\..\..\..\plf\riscv\NMSIS\Core\Include/core_feature_base.h ****         register rv_csr_t __v = (unsigned long)(val);           \
 462:..\..\..\..\plf\riscv\NMSIS\Core\Include/core_feature_base.h ****         __ASM volatile("csrrw %0, " STRINGIFY(csr) ", %1"       \
 463:..\..\..\..\plf\riscv\NMSIS\Core\Include/core_feature_base.h ****                      : "=r"(__v)                                \
 464:..\..\..\..\plf\riscv\NMSIS\Core\Include/core_feature_base.h ****                      : "r"(__v)                                \
 465:..\..\..\..\plf\riscv\NMSIS\Core\Include/core_feature_base.h ****                      : "memory");                               \
 466:..\..\..\..\plf\riscv\NMSIS\Core\Include/core_feature_base.h ****         __v;                                                    \
 467:..\..\..\..\plf\riscv\NMSIS\Core\Include/core_feature_base.h ****     })
 468:..\..\..\..\plf\riscv\NMSIS\Core\Include/core_feature_base.h **** 
 469:..\..\..\..\plf\riscv\NMSIS\Core\Include/core_feature_base.h **** /**
 470:..\..\..\..\plf\riscv\NMSIS\Core\Include/core_feature_base.h ****  * \brief CSR operation Macro for csrr instruction.
 471:..\..\..\..\plf\riscv\NMSIS\Core\Include/core_feature_base.h ****  * \details
 472:..\..\..\..\plf\riscv\NMSIS\Core\Include/core_feature_base.h ****  * Read the content of csr register to __v and return it
 473:..\..\..\..\plf\riscv\NMSIS\Core\Include/core_feature_base.h ****  * \param csr   CSR macro definition defined in
 474:..\..\..\..\plf\riscv\NMSIS\Core\Include/core_feature_base.h ****  *              \ref NMSIS_Core_CSR_Registers, eg. \ref CSR_MSTATUS
 475:..\..\..\..\plf\riscv\NMSIS\Core\Include/core_feature_base.h ****  * \return the CSR register value
 476:..\..\..\..\plf\riscv\NMSIS\Core\Include/core_feature_base.h ****  */
 477:..\..\..\..\plf\riscv\NMSIS\Core\Include/core_feature_base.h **** #define __RV_CSR_READ(csr)                                      \
 478:..\..\..\..\plf\riscv\NMSIS\Core\Include/core_feature_base.h ****     ({                                                          \
 479:..\..\..\..\plf\riscv\NMSIS\Core\Include/core_feature_base.h ****         register rv_csr_t __v;                                  \
 480:..\..\..\..\plf\riscv\NMSIS\Core\Include/core_feature_base.h ****         __ASM volatile("csrr %0, " STRINGIFY(csr)               \
 481:..\..\..\..\plf\riscv\NMSIS\Core\Include/core_feature_base.h ****                      : "=r"(__v)                                \
 482:..\..\..\..\plf\riscv\NMSIS\Core\Include/core_feature_base.h ****                      :                                          \
 483:..\..\..\..\plf\riscv\NMSIS\Core\Include/core_feature_base.h ****                      : "memory");                               \
 484:..\..\..\..\plf\riscv\NMSIS\Core\Include/core_feature_base.h ****         __v;                                                    \
 485:..\..\..\..\plf\riscv\NMSIS\Core\Include/core_feature_base.h ****     })
 486:..\..\..\..\plf\riscv\NMSIS\Core\Include/core_feature_base.h **** 
 487:..\..\..\..\plf\riscv\NMSIS\Core\Include/core_feature_base.h **** /**
 488:..\..\..\..\plf\riscv\NMSIS\Core\Include/core_feature_base.h ****  * \brief CSR operation Macro for csrw instruction.
 489:..\..\..\..\plf\riscv\NMSIS\Core\Include/core_feature_base.h ****  * \details
 490:..\..\..\..\plf\riscv\NMSIS\Core\Include/core_feature_base.h ****  * Write the content of val to csr register
 491:..\..\..\..\plf\riscv\NMSIS\Core\Include/core_feature_base.h ****  * \param csr   CSR macro definition defined in
 492:..\..\..\..\plf\riscv\NMSIS\Core\Include/core_feature_base.h ****  *              \ref NMSIS_Core_CSR_Registers, eg. \ref CSR_MSTATUS
 493:..\..\..\..\plf\riscv\NMSIS\Core\Include/core_feature_base.h ****  * \param val   value to store into the CSR register
 494:..\..\..\..\plf\riscv\NMSIS\Core\Include/core_feature_base.h ****  */
 495:..\..\..\..\plf\riscv\NMSIS\Core\Include/core_feature_base.h **** #define __RV_CSR_WRITE(csr, val)                                \
 496:..\..\..\..\plf\riscv\NMSIS\Core\Include/core_feature_base.h ****     ({                                                          \
 497:..\..\..\..\plf\riscv\NMSIS\Core\Include/core_feature_base.h ****         register rv_csr_t __v = (rv_csr_t)(val);                \
 498:..\..\..\..\plf\riscv\NMSIS\Core\Include/core_feature_base.h ****         __ASM volatile("csrw " STRINGIFY(csr) ", %0"            \
 499:..\..\..\..\plf\riscv\NMSIS\Core\Include/core_feature_base.h ****                      :                                          \
 500:..\..\..\..\plf\riscv\NMSIS\Core\Include/core_feature_base.h ****                      : "r"(__v)                                \
 501:..\..\..\..\plf\riscv\NMSIS\Core\Include/core_feature_base.h ****                      : "memory");                               \
 502:..\..\..\..\plf\riscv\NMSIS\Core\Include/core_feature_base.h ****     })
 503:..\..\..\..\plf\riscv\NMSIS\Core\Include/core_feature_base.h **** 
 504:..\..\..\..\plf\riscv\NMSIS\Core\Include/core_feature_base.h **** /**
 505:..\..\..\..\plf\riscv\NMSIS\Core\Include/core_feature_base.h ****  * \brief CSR operation Macro for csrrs instruction.
 506:..\..\..\..\plf\riscv\NMSIS\Core\Include/core_feature_base.h ****  * \details
 507:..\..\..\..\plf\riscv\NMSIS\Core\Include/core_feature_base.h ****  * Read the content of csr register to __v,
 508:..\..\..\..\plf\riscv\NMSIS\Core\Include/core_feature_base.h ****  * then set csr register to be __v | val, then return __v
 509:..\..\..\..\plf\riscv\NMSIS\Core\Include/core_feature_base.h ****  * \param csr   CSR macro definition defined in
 510:..\..\..\..\plf\riscv\NMSIS\Core\Include/core_feature_base.h ****  *              \ref NMSIS_Core_CSR_Registers, eg. \ref CSR_MSTATUS
 511:..\..\..\..\plf\riscv\NMSIS\Core\Include/core_feature_base.h ****  * \param val   Mask value to be used wih csrrs instruction
 512:..\..\..\..\plf\riscv\NMSIS\Core\Include/core_feature_base.h ****  * \return the CSR register value before written
 513:..\..\..\..\plf\riscv\NMSIS\Core\Include/core_feature_base.h ****  */
 514:..\..\..\..\plf\riscv\NMSIS\Core\Include/core_feature_base.h **** #define __RV_CSR_READ_SET(csr, val)                             \
 515:..\..\..\..\plf\riscv\NMSIS\Core\Include/core_feature_base.h ****     ({                                                          \
 516:..\..\..\..\plf\riscv\NMSIS\Core\Include/core_feature_base.h ****         register rv_csr_t __v = (rv_csr_t)(val);                \
 517:..\..\..\..\plf\riscv\NMSIS\Core\Include/core_feature_base.h ****         __ASM volatile("csrrs %0, " STRINGIFY(csr) ", %1"       \
 518:..\..\..\..\plf\riscv\NMSIS\Core\Include/core_feature_base.h ****                      : "=r"(__v)                                \
 519:..\..\..\..\plf\riscv\NMSIS\Core\Include/core_feature_base.h ****                      : "r"(__v)                                \
 520:..\..\..\..\plf\riscv\NMSIS\Core\Include/core_feature_base.h ****                      : "memory");                               \
 521:..\..\..\..\plf\riscv\NMSIS\Core\Include/core_feature_base.h ****         __v;                                                    \
 522:..\..\..\..\plf\riscv\NMSIS\Core\Include/core_feature_base.h ****     })
 523:..\..\..\..\plf\riscv\NMSIS\Core\Include/core_feature_base.h **** 
 524:..\..\..\..\plf\riscv\NMSIS\Core\Include/core_feature_base.h **** /**
 525:..\..\..\..\plf\riscv\NMSIS\Core\Include/core_feature_base.h ****  * \brief CSR operation Macro for csrs instruction.
 526:..\..\..\..\plf\riscv\NMSIS\Core\Include/core_feature_base.h ****  * \details
 527:..\..\..\..\plf\riscv\NMSIS\Core\Include/core_feature_base.h ****  * Set csr register to be csr_content | val
 528:..\..\..\..\plf\riscv\NMSIS\Core\Include/core_feature_base.h ****  * \param csr   CSR macro definition defined in
 529:..\..\..\..\plf\riscv\NMSIS\Core\Include/core_feature_base.h ****  *              \ref NMSIS_Core_CSR_Registers, eg. \ref CSR_MSTATUS
 530:..\..\..\..\plf\riscv\NMSIS\Core\Include/core_feature_base.h ****  * \param val   Mask value to be used wih csrs instruction
 531:..\..\..\..\plf\riscv\NMSIS\Core\Include/core_feature_base.h ****  */
 532:..\..\..\..\plf\riscv\NMSIS\Core\Include/core_feature_base.h **** #define __RV_CSR_SET(csr, val)                                  \
 533:..\..\..\..\plf\riscv\NMSIS\Core\Include/core_feature_base.h ****     ({                                                          \
 534:..\..\..\..\plf\riscv\NMSIS\Core\Include/core_feature_base.h ****         register rv_csr_t __v = (rv_csr_t)(val);                \
 535:..\..\..\..\plf\riscv\NMSIS\Core\Include/core_feature_base.h ****         __ASM volatile("csrs " STRINGIFY(csr) ", %0"            \
 536:..\..\..\..\plf\riscv\NMSIS\Core\Include/core_feature_base.h ****                      :                                          \
 537:..\..\..\..\plf\riscv\NMSIS\Core\Include/core_feature_base.h ****                      : "r"(__v)                                \
 538:..\..\..\..\plf\riscv\NMSIS\Core\Include/core_feature_base.h ****                      : "memory");                               \
 539:..\..\..\..\plf\riscv\NMSIS\Core\Include/core_feature_base.h ****     })
 540:..\..\..\..\plf\riscv\NMSIS\Core\Include/core_feature_base.h **** 
 541:..\..\..\..\plf\riscv\NMSIS\Core\Include/core_feature_base.h **** /**
 542:..\..\..\..\plf\riscv\NMSIS\Core\Include/core_feature_base.h ****  * \brief CSR operation Macro for csrrc instruction.
 543:..\..\..\..\plf\riscv\NMSIS\Core\Include/core_feature_base.h ****  * \details
 544:..\..\..\..\plf\riscv\NMSIS\Core\Include/core_feature_base.h ****  * Read the content of csr register to __v,
 545:..\..\..\..\plf\riscv\NMSIS\Core\Include/core_feature_base.h ****  * then set csr register to be __v & ~val, then return __v
 546:..\..\..\..\plf\riscv\NMSIS\Core\Include/core_feature_base.h ****  * \param csr   CSR macro definition defined in
 547:..\..\..\..\plf\riscv\NMSIS\Core\Include/core_feature_base.h ****  *              \ref NMSIS_Core_CSR_Registers, eg. \ref CSR_MSTATUS
 548:..\..\..\..\plf\riscv\NMSIS\Core\Include/core_feature_base.h ****  * \param val   Mask value to be used wih csrrc instruction
 549:..\..\..\..\plf\riscv\NMSIS\Core\Include/core_feature_base.h ****  * \return the CSR register value before written
 550:..\..\..\..\plf\riscv\NMSIS\Core\Include/core_feature_base.h ****  */
 551:..\..\..\..\plf\riscv\NMSIS\Core\Include/core_feature_base.h **** #define __RV_CSR_READ_CLEAR(csr, val)                           \
 552:..\..\..\..\plf\riscv\NMSIS\Core\Include/core_feature_base.h ****     ({                                                          \
 553:..\..\..\..\plf\riscv\NMSIS\Core\Include/core_feature_base.h ****         register rv_csr_t __v = (rv_csr_t)(val);                \
 554:..\..\..\..\plf\riscv\NMSIS\Core\Include/core_feature_base.h ****         __ASM volatile("csrrc %0, " STRINGIFY(csr) ", %1"       \
 555:..\..\..\..\plf\riscv\NMSIS\Core\Include/core_feature_base.h ****                      : "=r"(__v)                                \
 556:..\..\..\..\plf\riscv\NMSIS\Core\Include/core_feature_base.h ****                      : "r"(__v)                                \
 557:..\..\..\..\plf\riscv\NMSIS\Core\Include/core_feature_base.h ****                      : "memory");                               \
 558:..\..\..\..\plf\riscv\NMSIS\Core\Include/core_feature_base.h ****         __v;                                                    \
 559:..\..\..\..\plf\riscv\NMSIS\Core\Include/core_feature_base.h ****     })
 560:..\..\..\..\plf\riscv\NMSIS\Core\Include/core_feature_base.h **** 
 561:..\..\..\..\plf\riscv\NMSIS\Core\Include/core_feature_base.h **** /**
 562:..\..\..\..\plf\riscv\NMSIS\Core\Include/core_feature_base.h ****  * \brief CSR operation Macro for csrc instruction.
 563:..\..\..\..\plf\riscv\NMSIS\Core\Include/core_feature_base.h ****  * \details
 564:..\..\..\..\plf\riscv\NMSIS\Core\Include/core_feature_base.h ****  * Set csr register to be csr_content & ~val
 565:..\..\..\..\plf\riscv\NMSIS\Core\Include/core_feature_base.h ****  * \param csr   CSR macro definition defined in
 566:..\..\..\..\plf\riscv\NMSIS\Core\Include/core_feature_base.h ****  *              \ref NMSIS_Core_CSR_Registers, eg. \ref CSR_MSTATUS
 567:..\..\..\..\plf\riscv\NMSIS\Core\Include/core_feature_base.h ****  * \param val   Mask value to be used wih csrc instruction
 568:..\..\..\..\plf\riscv\NMSIS\Core\Include/core_feature_base.h ****  */
 569:..\..\..\..\plf\riscv\NMSIS\Core\Include/core_feature_base.h **** #define __RV_CSR_CLEAR(csr, val)                                \
 570:..\..\..\..\plf\riscv\NMSIS\Core\Include/core_feature_base.h ****     ({                                                          \
 571:..\..\..\..\plf\riscv\NMSIS\Core\Include/core_feature_base.h ****         register rv_csr_t __v = (rv_csr_t)(val);                \
 572:..\..\..\..\plf\riscv\NMSIS\Core\Include/core_feature_base.h ****         __ASM volatile("csrc " STRINGIFY(csr) ", %0"            \
 573:..\..\..\..\plf\riscv\NMSIS\Core\Include/core_feature_base.h ****                      :                                          \
 574:..\..\..\..\plf\riscv\NMSIS\Core\Include/core_feature_base.h ****                      : "r"(__v)                                \
 575:..\..\..\..\plf\riscv\NMSIS\Core\Include/core_feature_base.h ****                      : "memory");                               \
 576:..\..\..\..\plf\riscv\NMSIS\Core\Include/core_feature_base.h ****     })
 577:..\..\..\..\plf\riscv\NMSIS\Core\Include/core_feature_base.h **** #endif /* __ASSEMBLY__ */
 578:..\..\..\..\plf\riscv\NMSIS\Core\Include/core_feature_base.h **** 
 579:..\..\..\..\plf\riscv\NMSIS\Core\Include/core_feature_base.h **** /**
 580:..\..\..\..\plf\riscv\NMSIS\Core\Include/core_feature_base.h ****  * \brief   Get IRQ status
 581:..\..\..\..\plf\riscv\NMSIS\Core\Include/core_feature_base.h ****  * \details Get IRQ state in the MSUBM Register.
 582:..\..\..\..\plf\riscv\NMSIS\Core\Include/core_feature_base.h ****  * \remarks
 583:..\..\..\..\plf\riscv\NMSIS\Core\Include/core_feature_base.h ****  *          Can only be executed in Privileged modes.
 584:..\..\..\..\plf\riscv\NMSIS\Core\Include/core_feature_base.h ****  */
 585:..\..\..\..\plf\riscv\NMSIS\Core\Include/core_feature_base.h **** __STATIC_FORCEINLINE uint32_t __get_CONTROL(void)
 586:..\..\..\..\plf\riscv\NMSIS\Core\Include/core_feature_base.h **** {
 587:..\..\..\..\plf\riscv\NMSIS\Core\Include/core_feature_base.h ****     return (uint32_t) ((__RV_CSR_READ(CSR_MSUBM) & ((0xFFFFFFFFUL << 6) & (0xFFFFFFFFUL >> (31U - (
 588:..\..\..\..\plf\riscv\NMSIS\Core\Include/core_feature_base.h **** }
 589:..\..\..\..\plf\riscv\NMSIS\Core\Include/core_feature_base.h **** 
 590:..\..\..\..\plf\riscv\NMSIS\Core\Include/core_feature_base.h **** /**
 591:..\..\..\..\plf\riscv\NMSIS\Core\Include/core_feature_base.h ****  * \brief   Enable IRQ Interrupts
 592:..\..\..\..\plf\riscv\NMSIS\Core\Include/core_feature_base.h ****  * \details Enables IRQ interrupts by setting the MIE-bit in the MSTATUS Register.
 593:..\..\..\..\plf\riscv\NMSIS\Core\Include/core_feature_base.h ****  * \remarks
 594:..\..\..\..\plf\riscv\NMSIS\Core\Include/core_feature_base.h ****  *          Can only be executed in Privileged modes.
 595:..\..\..\..\plf\riscv\NMSIS\Core\Include/core_feature_base.h ****  */
 596:..\..\..\..\plf\riscv\NMSIS\Core\Include/core_feature_base.h **** __STATIC_FORCEINLINE void __enable_irq(void)
 597:..\..\..\..\plf\riscv\NMSIS\Core\Include/core_feature_base.h **** {
 598:..\..\..\..\plf\riscv\NMSIS\Core\Include/core_feature_base.h ****     __RV_CSR_SET(CSR_MSTATUS, MSTATUS_MIE);
 599:..\..\..\..\plf\riscv\NMSIS\Core\Include/core_feature_base.h **** }
 600:..\..\..\..\plf\riscv\NMSIS\Core\Include/core_feature_base.h **** 
 601:..\..\..\..\plf\riscv\NMSIS\Core\Include/core_feature_base.h **** /**
 602:..\..\..\..\plf\riscv\NMSIS\Core\Include/core_feature_base.h ****  * \brief   Disable IRQ Interrupts
 603:..\..\..\..\plf\riscv\NMSIS\Core\Include/core_feature_base.h ****  * \details Disables IRQ interrupts by clearing the MIE-bit in the MSTATUS Register.
 604:..\..\..\..\plf\riscv\NMSIS\Core\Include/core_feature_base.h ****  * \remarks
 605:..\..\..\..\plf\riscv\NMSIS\Core\Include/core_feature_base.h ****  *          Can only be executed in Privileged modes.
 606:..\..\..\..\plf\riscv\NMSIS\Core\Include/core_feature_base.h ****  */
 607:..\..\..\..\plf\riscv\NMSIS\Core\Include/core_feature_base.h **** __STATIC_FORCEINLINE void __disable_irq(void)
 608:..\..\..\..\plf\riscv\NMSIS\Core\Include/core_feature_base.h **** {
 609:..\..\..\..\plf\riscv\NMSIS\Core\Include/core_feature_base.h ****     __RV_CSR_CLEAR(CSR_MSTATUS, MSTATUS_MIE);
 610:..\..\..\..\plf\riscv\NMSIS\Core\Include/core_feature_base.h **** }
 611:..\..\..\..\plf\riscv\NMSIS\Core\Include/core_feature_base.h **** 
 612:..\..\..\..\plf\riscv\NMSIS\Core\Include/core_feature_base.h **** /**
 613:..\..\..\..\plf\riscv\NMSIS\Core\Include/core_feature_base.h ****  * \brief   Read whole 64 bits value of mcycle counter
 614:..\..\..\..\plf\riscv\NMSIS\Core\Include/core_feature_base.h ****  * \details This function will read the whole 64 bits of MCYCLE register
 615:..\..\..\..\plf\riscv\NMSIS\Core\Include/core_feature_base.h ****  * \return  The whole 64 bits value of MCYCLE
 616:..\..\..\..\plf\riscv\NMSIS\Core\Include/core_feature_base.h ****  * \remarks It will work for both RV32 and RV64 to get full 64bits value of MCYCLE
 617:..\..\..\..\plf\riscv\NMSIS\Core\Include/core_feature_base.h ****  */
 618:..\..\..\..\plf\riscv\NMSIS\Core\Include/core_feature_base.h **** __STATIC_FORCEINLINE uint64_t __get_rv_cycle(void)
 619:..\..\..\..\plf\riscv\NMSIS\Core\Include/core_feature_base.h **** {
 620:..\..\..\..\plf\riscv\NMSIS\Core\Include/core_feature_base.h **** #if __RISCV_XLEN == 32
 621:..\..\..\..\plf\riscv\NMSIS\Core\Include/core_feature_base.h ****     volatile uint32_t high0, low, high;
 622:..\..\..\..\plf\riscv\NMSIS\Core\Include/core_feature_base.h ****     uint64_t full;
 623:..\..\..\..\plf\riscv\NMSIS\Core\Include/core_feature_base.h **** 
 624:..\..\..\..\plf\riscv\NMSIS\Core\Include/core_feature_base.h ****     high0 = __RV_CSR_READ(CSR_MCYCLEH);
 625:..\..\..\..\plf\riscv\NMSIS\Core\Include/core_feature_base.h ****     low = __RV_CSR_READ(CSR_MCYCLE);
 626:..\..\..\..\plf\riscv\NMSIS\Core\Include/core_feature_base.h ****     high = __RV_CSR_READ(CSR_MCYCLEH);
 627:..\..\..\..\plf\riscv\NMSIS\Core\Include/core_feature_base.h ****     if (high0 != high) {
 628:..\..\..\..\plf\riscv\NMSIS\Core\Include/core_feature_base.h ****         low = __RV_CSR_READ(CSR_MCYCLE);
 629:..\..\..\..\plf\riscv\NMSIS\Core\Include/core_feature_base.h ****     }
 630:..\..\..\..\plf\riscv\NMSIS\Core\Include/core_feature_base.h ****     full = (((uint64_t)high) << 32) | low;
 631:..\..\..\..\plf\riscv\NMSIS\Core\Include/core_feature_base.h ****     return full;
 632:..\..\..\..\plf\riscv\NMSIS\Core\Include/core_feature_base.h **** #elif __RISCV_XLEN == 64
 633:..\..\..\..\plf\riscv\NMSIS\Core\Include/core_feature_base.h ****     return (uint64_t)__RV_CSR_READ(CSR_MCYCLE);
 634:..\..\..\..\plf\riscv\NMSIS\Core\Include/core_feature_base.h **** #else // TODO Need cover for XLEN=128 case in future
 635:..\..\..\..\plf\riscv\NMSIS\Core\Include/core_feature_base.h ****     return (uint64_t)__RV_CSR_READ(CSR_MCYCLE);
 636:..\..\..\..\plf\riscv\NMSIS\Core\Include/core_feature_base.h **** #endif
 637:..\..\..\..\plf\riscv\NMSIS\Core\Include/core_feature_base.h **** }
 638:..\..\..\..\plf\riscv\NMSIS\Core\Include/core_feature_base.h **** 
 639:..\..\..\..\plf\riscv\NMSIS\Core\Include/core_feature_base.h **** /**
 640:..\..\..\..\plf\riscv\NMSIS\Core\Include/core_feature_base.h ****  * \brief   Read whole 64 bits value of machine instruction-retired counter
 641:..\..\..\..\plf\riscv\NMSIS\Core\Include/core_feature_base.h ****  * \details This function will read the whole 64 bits of MINSTRET register
 642:..\..\..\..\plf\riscv\NMSIS\Core\Include/core_feature_base.h ****  * \return  The whole 64 bits value of MINSTRET
 643:..\..\..\..\plf\riscv\NMSIS\Core\Include/core_feature_base.h ****  * \remarks It will work for both RV32 and RV64 to get full 64bits value of MINSTRET
 644:..\..\..\..\plf\riscv\NMSIS\Core\Include/core_feature_base.h ****  */
 645:..\..\..\..\plf\riscv\NMSIS\Core\Include/core_feature_base.h **** __STATIC_FORCEINLINE uint64_t __get_rv_instret(void)
 646:..\..\..\..\plf\riscv\NMSIS\Core\Include/core_feature_base.h **** {
 647:..\..\..\..\plf\riscv\NMSIS\Core\Include/core_feature_base.h **** #if __RISCV_XLEN == 32
 648:..\..\..\..\plf\riscv\NMSIS\Core\Include/core_feature_base.h ****     volatile uint32_t high0, low, high;
 649:..\..\..\..\plf\riscv\NMSIS\Core\Include/core_feature_base.h ****     uint64_t full;
 650:..\..\..\..\plf\riscv\NMSIS\Core\Include/core_feature_base.h **** 
 651:..\..\..\..\plf\riscv\NMSIS\Core\Include/core_feature_base.h ****     high0 = __RV_CSR_READ(CSR_MINSTRETH);
 652:..\..\..\..\plf\riscv\NMSIS\Core\Include/core_feature_base.h ****     low = __RV_CSR_READ(CSR_MINSTRET);
 653:..\..\..\..\plf\riscv\NMSIS\Core\Include/core_feature_base.h ****     high = __RV_CSR_READ(CSR_MINSTRETH);
 654:..\..\..\..\plf\riscv\NMSIS\Core\Include/core_feature_base.h ****     if (high0 != high) {
 655:..\..\..\..\plf\riscv\NMSIS\Core\Include/core_feature_base.h ****         low = __RV_CSR_READ(CSR_MINSTRET);
 656:..\..\..\..\plf\riscv\NMSIS\Core\Include/core_feature_base.h ****     }
 657:..\..\..\..\plf\riscv\NMSIS\Core\Include/core_feature_base.h ****     full = (((uint64_t)high) << 32) | low;
 658:..\..\..\..\plf\riscv\NMSIS\Core\Include/core_feature_base.h ****     return full;
 659:..\..\..\..\plf\riscv\NMSIS\Core\Include/core_feature_base.h **** #elif __RISCV_XLEN == 64
 660:..\..\..\..\plf\riscv\NMSIS\Core\Include/core_feature_base.h ****     return (uint64_t)__RV_CSR_READ(CSR_MINSTRET);
 661:..\..\..\..\plf\riscv\NMSIS\Core\Include/core_feature_base.h **** #else // TODO Need cover for XLEN=128 case in future
 662:..\..\..\..\plf\riscv\NMSIS\Core\Include/core_feature_base.h ****     return (uint64_t)__RV_CSR_READ(CSR_MINSTRET);
 663:..\..\..\..\plf\riscv\NMSIS\Core\Include/core_feature_base.h **** #endif
 664:..\..\..\..\plf\riscv\NMSIS\Core\Include/core_feature_base.h **** }
 665:..\..\..\..\plf\riscv\NMSIS\Core\Include/core_feature_base.h **** 
 666:..\..\..\..\plf\riscv\NMSIS\Core\Include/core_feature_base.h **** /**
 667:..\..\..\..\plf\riscv\NMSIS\Core\Include/core_feature_base.h ****  * \brief   Read whole 64 bits value of real-time clock
 668:..\..\..\..\plf\riscv\NMSIS\Core\Include/core_feature_base.h ****  * \details This function will read the whole 64 bits of TIME register
 669:..\..\..\..\plf\riscv\NMSIS\Core\Include/core_feature_base.h ****  * \return  The whole 64 bits value of TIME CSR
 670:..\..\..\..\plf\riscv\NMSIS\Core\Include/core_feature_base.h ****  * \remarks It will work for both RV32 and RV64 to get full 64bits value of TIME
 671:..\..\..\..\plf\riscv\NMSIS\Core\Include/core_feature_base.h ****  * \attention only available when user mode available
 672:..\..\..\..\plf\riscv\NMSIS\Core\Include/core_feature_base.h ****  */
 673:..\..\..\..\plf\riscv\NMSIS\Core\Include/core_feature_base.h **** __STATIC_FORCEINLINE uint64_t __get_rv_time(void)
 674:..\..\..\..\plf\riscv\NMSIS\Core\Include/core_feature_base.h **** {
 675:..\..\..\..\plf\riscv\NMSIS\Core\Include/core_feature_base.h **** #if __RISCV_XLEN == 32
 676:..\..\..\..\plf\riscv\NMSIS\Core\Include/core_feature_base.h ****     volatile uint32_t high0, low, high;
 677:..\..\..\..\plf\riscv\NMSIS\Core\Include/core_feature_base.h ****     uint64_t full;
 678:..\..\..\..\plf\riscv\NMSIS\Core\Include/core_feature_base.h **** 
 679:..\..\..\..\plf\riscv\NMSIS\Core\Include/core_feature_base.h ****     high0 = __RV_CSR_READ(CSR_TIMEH);
 680:..\..\..\..\plf\riscv\NMSIS\Core\Include/core_feature_base.h ****     low = __RV_CSR_READ(CSR_TIME);
 681:..\..\..\..\plf\riscv\NMSIS\Core\Include/core_feature_base.h ****     high = __RV_CSR_READ(CSR_TIMEH);
 682:..\..\..\..\plf\riscv\NMSIS\Core\Include/core_feature_base.h ****     if (high0 != high) {
 683:..\..\..\..\plf\riscv\NMSIS\Core\Include/core_feature_base.h ****         low = __RV_CSR_READ(CSR_TIME);
 684:..\..\..\..\plf\riscv\NMSIS\Core\Include/core_feature_base.h ****     }
 685:..\..\..\..\plf\riscv\NMSIS\Core\Include/core_feature_base.h ****     full = (((uint64_t)high) << 32) | low;
 686:..\..\..\..\plf\riscv\NMSIS\Core\Include/core_feature_base.h ****     return full;
 687:..\..\..\..\plf\riscv\NMSIS\Core\Include/core_feature_base.h **** #elif __RISCV_XLEN == 64
 688:..\..\..\..\plf\riscv\NMSIS\Core\Include/core_feature_base.h ****     return (uint64_t)__RV_CSR_READ(CSR_TIME);
 689:..\..\..\..\plf\riscv\NMSIS\Core\Include/core_feature_base.h **** #else // TODO Need cover for XLEN=128 case in future
 690:..\..\..\..\plf\riscv\NMSIS\Core\Include/core_feature_base.h ****     return (uint64_t)__RV_CSR_READ(CSR_TIME);
 691:..\..\..\..\plf\riscv\NMSIS\Core\Include/core_feature_base.h **** #endif
 692:..\..\..\..\plf\riscv\NMSIS\Core\Include/core_feature_base.h **** }
 693:..\..\..\..\plf\riscv\NMSIS\Core\Include/core_feature_base.h **** 
 694:..\..\..\..\plf\riscv\NMSIS\Core\Include/core_feature_base.h **** /** @} */ /* End of Doxygen Group NMSIS_Core_CSR_Register_Access */
 695:..\..\..\..\plf\riscv\NMSIS\Core\Include/core_feature_base.h **** 
 696:..\..\..\..\plf\riscv\NMSIS\Core\Include/core_feature_base.h **** /* ###########################  CPU Intrinsic Functions ########################### */
 697:..\..\..\..\plf\riscv\NMSIS\Core\Include/core_feature_base.h **** /**
 698:..\..\..\..\plf\riscv\NMSIS\Core\Include/core_feature_base.h ****  * \defgroup NMSIS_Core_CPU_Intrinsic   Intrinsic Functions for CPU Intructions
 699:..\..\..\..\plf\riscv\NMSIS\Core\Include/core_feature_base.h ****  * \ingroup  NMSIS_Core
 700:..\..\..\..\plf\riscv\NMSIS\Core\Include/core_feature_base.h ****  * \brief    Functions that generate RISC-V CPU instructions.
 701:..\..\..\..\plf\riscv\NMSIS\Core\Include/core_feature_base.h ****  * \details
 702:..\..\..\..\plf\riscv\NMSIS\Core\Include/core_feature_base.h ****  *
 703:..\..\..\..\plf\riscv\NMSIS\Core\Include/core_feature_base.h ****  * The following functions generate specified RISC-V instructions that cannot be directly accessed 
 704:..\..\..\..\plf\riscv\NMSIS\Core\Include/core_feature_base.h ****  *   @{
 705:..\..\..\..\plf\riscv\NMSIS\Core\Include/core_feature_base.h ****  */
 706:..\..\..\..\plf\riscv\NMSIS\Core\Include/core_feature_base.h **** 
 707:..\..\..\..\plf\riscv\NMSIS\Core\Include/core_feature_base.h **** /**
 708:..\..\..\..\plf\riscv\NMSIS\Core\Include/core_feature_base.h ****  * \brief   NOP Instruction
 709:..\..\..\..\plf\riscv\NMSIS\Core\Include/core_feature_base.h ****  * \details
 710:..\..\..\..\plf\riscv\NMSIS\Core\Include/core_feature_base.h ****  * No Operation does nothing.
 711:..\..\..\..\plf\riscv\NMSIS\Core\Include/core_feature_base.h ****  * This instruction can be used for code alignment purposes.
 712:..\..\..\..\plf\riscv\NMSIS\Core\Include/core_feature_base.h ****  */
 713:..\..\..\..\plf\riscv\NMSIS\Core\Include/core_feature_base.h **** __STATIC_FORCEINLINE void __NOP(void)
 714:..\..\..\..\plf\riscv\NMSIS\Core\Include/core_feature_base.h **** {
 715:..\..\..\..\plf\riscv\NMSIS\Core\Include/core_feature_base.h ****     __ASM volatile("nop");
 716:..\..\..\..\plf\riscv\NMSIS\Core\Include/core_feature_base.h **** }
 717:..\..\..\..\plf\riscv\NMSIS\Core\Include/core_feature_base.h **** 
 718:..\..\..\..\plf\riscv\NMSIS\Core\Include/core_feature_base.h **** /**
 719:..\..\..\..\plf\riscv\NMSIS\Core\Include/core_feature_base.h ****  * \brief   Wait For Interrupt
 720:..\..\..\..\plf\riscv\NMSIS\Core\Include/core_feature_base.h ****  * \details
 721:..\..\..\..\plf\riscv\NMSIS\Core\Include/core_feature_base.h ****  * Wait For Interrupt is is executed using CSR_WFE.WFE=0 and WFI instruction.
 722:..\..\..\..\plf\riscv\NMSIS\Core\Include/core_feature_base.h ****  * It will suspends execution until interrupt, NMI or Debug happened.
 723:..\..\..\..\plf\riscv\NMSIS\Core\Include/core_feature_base.h ****  * When Core is waked up by interrupt, if
 724:..\..\..\..\plf\riscv\NMSIS\Core\Include/core_feature_base.h ****  * 1. mstatus.MIE == 1(interrupt enabled), Core will enter ISR code
 725:..\..\..\..\plf\riscv\NMSIS\Core\Include/core_feature_base.h ****  * 2. mstatus.MIE == 0(interrupt disabled), Core will resume previous execution
 726:..\..\..\..\plf\riscv\NMSIS\Core\Include/core_feature_base.h ****  */
 727:..\..\..\..\plf\riscv\NMSIS\Core\Include/core_feature_base.h **** __STATIC_FORCEINLINE void __WFI(void)
 728:..\..\..\..\plf\riscv\NMSIS\Core\Include/core_feature_base.h **** {
 729:..\..\..\..\plf\riscv\NMSIS\Core\Include/core_feature_base.h ****     __RV_CSR_CLEAR(CSR_WFE, WFE_WFE);
 730:..\..\..\..\plf\riscv\NMSIS\Core\Include/core_feature_base.h ****     __ASM volatile("wfi");
 731:..\..\..\..\plf\riscv\NMSIS\Core\Include/core_feature_base.h **** }
 732:..\..\..\..\plf\riscv\NMSIS\Core\Include/core_feature_base.h **** 
 733:..\..\..\..\plf\riscv\NMSIS\Core\Include/core_feature_base.h **** /**
 734:..\..\..\..\plf\riscv\NMSIS\Core\Include/core_feature_base.h ****  * \brief   Wait For Event
 735:..\..\..\..\plf\riscv\NMSIS\Core\Include/core_feature_base.h ****  * \details
 736:..\..\..\..\plf\riscv\NMSIS\Core\Include/core_feature_base.h ****  * Wait For Event is executed using CSR_WFE.WFE=1 and WFI instruction.
 737:..\..\..\..\plf\riscv\NMSIS\Core\Include/core_feature_base.h ****  * It will suspends execution until event, NMI or Debug happened.
 738:..\..\..\..\plf\riscv\NMSIS\Core\Include/core_feature_base.h ****  * When Core is waked up, Core will resume previous execution
 739:..\..\..\..\plf\riscv\NMSIS\Core\Include/core_feature_base.h ****  */
 740:..\..\..\..\plf\riscv\NMSIS\Core\Include/core_feature_base.h **** __STATIC_FORCEINLINE void __WFE(void)
 741:..\..\..\..\plf\riscv\NMSIS\Core\Include/core_feature_base.h **** {
 742:..\..\..\..\plf\riscv\NMSIS\Core\Include/core_feature_base.h ****     __RV_CSR_SET(CSR_WFE, WFE_WFE);
 743:..\..\..\..\plf\riscv\NMSIS\Core\Include/core_feature_base.h ****     __ASM volatile("wfi");
 744:..\..\..\..\plf\riscv\NMSIS\Core\Include/core_feature_base.h ****     __RV_CSR_CLEAR(CSR_WFE, WFE_WFE);
 745:..\..\..\..\plf\riscv\NMSIS\Core\Include/core_feature_base.h **** }
 746:..\..\..\..\plf\riscv\NMSIS\Core\Include/core_feature_base.h **** 
 747:..\..\..\..\plf\riscv\NMSIS\Core\Include/core_feature_base.h **** /**
 748:..\..\..\..\plf\riscv\NMSIS\Core\Include/core_feature_base.h ****  * \brief   Breakpoint Instruction
 749:..\..\..\..\plf\riscv\NMSIS\Core\Include/core_feature_base.h ****  * \details
 750:..\..\..\..\plf\riscv\NMSIS\Core\Include/core_feature_base.h ****  * Causes the processor to enter Debug state.
 751:..\..\..\..\plf\riscv\NMSIS\Core\Include/core_feature_base.h ****  * Debug tools can use this to investigate system state
 752:..\..\..\..\plf\riscv\NMSIS\Core\Include/core_feature_base.h ****  * when the instruction at a particular address is reached.
 753:..\..\..\..\plf\riscv\NMSIS\Core\Include/core_feature_base.h ****  */
 754:..\..\..\..\plf\riscv\NMSIS\Core\Include/core_feature_base.h **** __STATIC_FORCEINLINE void __EBREAK(void)
 755:..\..\..\..\plf\riscv\NMSIS\Core\Include/core_feature_base.h **** {
 756:..\..\..\..\plf\riscv\NMSIS\Core\Include/core_feature_base.h ****     __ASM volatile("ebreak");
 757:..\..\..\..\plf\riscv\NMSIS\Core\Include/core_feature_base.h **** }
 758:..\..\..\..\plf\riscv\NMSIS\Core\Include/core_feature_base.h **** 
 759:..\..\..\..\plf\riscv\NMSIS\Core\Include/core_feature_base.h **** /**
 760:..\..\..\..\plf\riscv\NMSIS\Core\Include/core_feature_base.h ****  * \brief   Environment Call Instruction
 761:..\..\..\..\plf\riscv\NMSIS\Core\Include/core_feature_base.h ****  * \details
 762:..\..\..\..\plf\riscv\NMSIS\Core\Include/core_feature_base.h ****  * The ECALL instruction is used to make a service request to
 763:..\..\..\..\plf\riscv\NMSIS\Core\Include/core_feature_base.h ****  * the execution environment.
 764:..\..\..\..\plf\riscv\NMSIS\Core\Include/core_feature_base.h ****  */
 765:..\..\..\..\plf\riscv\NMSIS\Core\Include/core_feature_base.h **** __STATIC_FORCEINLINE void __ECALL(void)
 766:..\..\..\..\plf\riscv\NMSIS\Core\Include/core_feature_base.h **** {
 767:..\..\..\..\plf\riscv\NMSIS\Core\Include/core_feature_base.h ****     __ASM volatile("ecall");
 768:..\..\..\..\plf\riscv\NMSIS\Core\Include/core_feature_base.h **** }
 769:..\..\..\..\plf\riscv\NMSIS\Core\Include/core_feature_base.h **** 
 770:..\..\..\..\plf\riscv\NMSIS\Core\Include/core_feature_base.h **** /**
 771:..\..\..\..\plf\riscv\NMSIS\Core\Include/core_feature_base.h ****  * \brief WFI Sleep Mode enumeration
 772:..\..\..\..\plf\riscv\NMSIS\Core\Include/core_feature_base.h ****  */
 773:..\..\..\..\plf\riscv\NMSIS\Core\Include/core_feature_base.h **** typedef enum WFI_SleepMode {
 774:..\..\..\..\plf\riscv\NMSIS\Core\Include/core_feature_base.h ****     WFI_SHALLOW_SLEEP = 0,      /*!< Shallow sleep mode, the core_clk will poweroff */
 775:..\..\..\..\plf\riscv\NMSIS\Core\Include/core_feature_base.h ****     WFI_DEEP_SLEEP = 1          /*!< Deep sleep mode, the core_clk and core_ano_clk will poweroff *
 776:..\..\..\..\plf\riscv\NMSIS\Core\Include/core_feature_base.h **** } WFI_SleepMode_Type;
 777:..\..\..\..\plf\riscv\NMSIS\Core\Include/core_feature_base.h **** 
 778:..\..\..\..\plf\riscv\NMSIS\Core\Include/core_feature_base.h **** /**
 779:..\..\..\..\plf\riscv\NMSIS\Core\Include/core_feature_base.h ****  * \brief   Set Sleep mode of WFI
 780:..\..\..\..\plf\riscv\NMSIS\Core\Include/core_feature_base.h ****  * \details
 781:..\..\..\..\plf\riscv\NMSIS\Core\Include/core_feature_base.h ****  * Set the SLEEPVALUE CSR register to control the
 782:..\..\..\..\plf\riscv\NMSIS\Core\Include/core_feature_base.h ****  * WFI Sleep mode.
 783:..\..\..\..\plf\riscv\NMSIS\Core\Include/core_feature_base.h ****  * \param[in] mode      The sleep mode to be set
 784:..\..\..\..\plf\riscv\NMSIS\Core\Include/core_feature_base.h ****  */
 785:..\..\..\..\plf\riscv\NMSIS\Core\Include/core_feature_base.h **** __STATIC_FORCEINLINE void __set_wfi_sleepmode(WFI_SleepMode_Type mode)
 786:..\..\..\..\plf\riscv\NMSIS\Core\Include/core_feature_base.h **** {
 787:..\..\..\..\plf\riscv\NMSIS\Core\Include/core_feature_base.h ****     __RV_CSR_WRITE(CSR_SLEEPVALUE, mode);
 161              		.loc 2 787 5
 162              	.LBB53:
 163              	.LBB54:
 164              		.loc 2 787 5
 165              		.loc 2 787 5
 166 0000 8147     		li	a5,0
 167              	 #APP
 168              	# 787 "..\..\..\..\plf\riscv\NMSIS\Core\Include/core_feature_base.h" 1
   0              	
 169              		csrw 0x811, a5
 170              	# 0 "" 2
 171              	.LVL4:
 172              	 #NO_APP
 173              	.LBE54:
 174              	.LBE53:
 135:C:/Users/stapi/OneDrive/Desktop/GD32VW553/V1_MQTT_OK/GD32VW55X_Wifi_BLE_SDK/GD32VW55x_RELEASE_V1.0.2/MSDK/plf/GD32VW55x_standard_peripheral/Source\gd32vw55x_pmu.c **** 
 136:C:/Users/stapi/OneDrive/Desktop/GD32VW553/V1_MQTT_OK/GD32VW55X_Wifi_BLE_SDK/GD32VW55x_RELEASE_V1.0.2/MSDK/plf/GD32VW55x_standard_peripheral/Source\gd32vw55x_pmu.c ****     /* select WFI or WFE command to enter sleep mode */
 137:C:/Users/stapi/OneDrive/Desktop/GD32VW553/V1_MQTT_OK/GD32VW55X_Wifi_BLE_SDK/GD32VW55x_RELEASE_V1.0.2/MSDK/plf/GD32VW55x_standard_peripheral/Source\gd32vw55x_pmu.c ****     if(WFI_CMD == sleepmodecmd){
 175              		.loc 1 137 5
 176              		.loc 1 137 7 is_stmt 0
 177 0006 19E5     		bne	a0,zero,.L9
 138:C:/Users/stapi/OneDrive/Desktop/GD32VW553/V1_MQTT_OK/GD32VW55X_Wifi_BLE_SDK/GD32VW55x_RELEASE_V1.0.2/MSDK/plf/GD32VW55x_standard_peripheral/Source\gd32vw55x_pmu.c ****         __WFI();
 178              		.loc 1 138 9 is_stmt 1
 179              	.LBB55:
 180              	.LBB56:
 729:..\..\..\..\plf\riscv\NMSIS\Core\Include/core_feature_base.h ****     __ASM volatile("wfi");
 181              		.loc 2 729 5
 182              	.LBB57:
 729:..\..\..\..\plf\riscv\NMSIS\Core\Include/core_feature_base.h ****     __ASM volatile("wfi");
 183              		.loc 2 729 5
 184              	.LVL5:
 729:..\..\..\..\plf\riscv\NMSIS\Core\Include/core_feature_base.h ****     __ASM volatile("wfi");
 185              		.loc 2 729 5
 186 0008 8547     		li	a5,1
 187              	 #APP
 188              	# 729 "..\..\..\..\plf\riscv\NMSIS\Core\Include/core_feature_base.h" 1
 189              		csrc 0x810, a5
 190              	# 0 "" 2
 191              	 #NO_APP
 192              	.LBE57:
 730:..\..\..\..\plf\riscv\NMSIS\Core\Include/core_feature_base.h **** }
 193              		.loc 2 730 5
 194              	 #APP
 195              	# 730 "..\..\..\..\plf\riscv\NMSIS\Core\Include/core_feature_base.h" 1
 731:..\..\..\..\plf\riscv\NMSIS\Core\Include/core_feature_base.h **** 
 196              		wfi
 197              	# 0 "" 2
 198              		.loc 2 731 1 is_stmt 0
 199              	 #NO_APP
 200 0012 8280     		ret
 201              	.LVL6:
 202              	.L9:
 203              	.LBE56:
 204              	.LBE55:
 139:C:/Users/stapi/OneDrive/Desktop/GD32VW553/V1_MQTT_OK/GD32VW55X_Wifi_BLE_SDK/GD32VW55x_RELEASE_V1.0.2/MSDK/plf/GD32VW55x_standard_peripheral/Source\gd32vw55x_pmu.c ****     }else{
 140:C:/Users/stapi/OneDrive/Desktop/GD32VW553/V1_MQTT_OK/GD32VW55X_Wifi_BLE_SDK/GD32VW55x_RELEASE_V1.0.2/MSDK/plf/GD32VW55x_standard_peripheral/Source\gd32vw55x_pmu.c ****         __disable_irq();
 205              		.loc 1 140 9 is_stmt 1
 609:..\..\..\..\plf\riscv\NMSIS\Core\Include/core_feature_base.h **** }
 206              		.loc 2 609 5
 207              	.LBB58:
 208              	.LBB59:
 609:..\..\..\..\plf\riscv\NMSIS\Core\Include/core_feature_base.h **** }
 209              		.loc 2 609 5
 609:..\..\..\..\plf\riscv\NMSIS\Core\Include/core_feature_base.h **** }
 210              		.loc 2 609 5
 211 0014 A147     		li	a5,8
 212              	 #APP
 213              	# 609 "..\..\..\..\plf\riscv\NMSIS\Core\Include/core_feature_base.h" 1
 214              		csrc 0x300, a5
 215              	# 0 "" 2
 216              	 #NO_APP
 217              	.LBE59:
 218              	.LBE58:
 141:C:/Users/stapi/OneDrive/Desktop/GD32VW553/V1_MQTT_OK/GD32VW55X_Wifi_BLE_SDK/GD32VW55x_RELEASE_V1.0.2/MSDK/plf/GD32VW55x_standard_peripheral/Source\gd32vw55x_pmu.c ****         __WFE();
 219              		.loc 1 141 9
 220              	.LBB60:
 221              	.LBB61:
 742:..\..\..\..\plf\riscv\NMSIS\Core\Include/core_feature_base.h ****     __ASM volatile("wfi");
 222              		.loc 2 742 5
 223              	.LBB62:
 742:..\..\..\..\plf\riscv\NMSIS\Core\Include/core_feature_base.h ****     __ASM volatile("wfi");
 224              		.loc 2 742 5
 225              	.LVL7:
 742:..\..\..\..\plf\riscv\NMSIS\Core\Include/core_feature_base.h ****     __ASM volatile("wfi");
 226              		.loc 2 742 5
 227 001a 0547     		li	a4,1
 228              	 #APP
 229              	# 742 "..\..\..\..\plf\riscv\NMSIS\Core\Include/core_feature_base.h" 1
 230              		csrs 0x810, a4
 231              	# 0 "" 2
 232              	 #NO_APP
 233              	.LBE62:
 743:..\..\..\..\plf\riscv\NMSIS\Core\Include/core_feature_base.h ****     __RV_CSR_CLEAR(CSR_WFE, WFE_WFE);
 234              		.loc 2 743 5
 235              	 #APP
 236              	# 743 "..\..\..\..\plf\riscv\NMSIS\Core\Include/core_feature_base.h" 1
 744:..\..\..\..\plf\riscv\NMSIS\Core\Include/core_feature_base.h **** }
 237              		wfi
 238              	# 0 "" 2
 239              		.loc 2 744 5
 240              	 #NO_APP
 241              	.LBB63:
 744:..\..\..\..\plf\riscv\NMSIS\Core\Include/core_feature_base.h **** }
 242              		.loc 2 744 5
 243              	.LVL8:
 744:..\..\..\..\plf\riscv\NMSIS\Core\Include/core_feature_base.h **** }
 244              		.loc 2 744 5
 245              	 #APP
 246              	# 744 "..\..\..\..\plf\riscv\NMSIS\Core\Include/core_feature_base.h" 1
 247              		csrc 0x810, a4
 248              	# 0 "" 2
 249              	 #NO_APP
 250              	.LBE63:
 251              	.LBE61:
 252              	.LBE60:
 142:C:/Users/stapi/OneDrive/Desktop/GD32VW553/V1_MQTT_OK/GD32VW55X_Wifi_BLE_SDK/GD32VW55x_RELEASE_V1.0.2/MSDK/plf/GD32VW55x_standard_peripheral/Source\gd32vw55x_pmu.c ****         __enable_irq();
 253              		.loc 1 142 9
 254              	.LBB64:
 255              	.LBB65:
 598:..\..\..\..\plf\riscv\NMSIS\Core\Include/core_feature_base.h **** }
 256              		.loc 2 598 5
 257              	.LBB66:
 598:..\..\..\..\plf\riscv\NMSIS\Core\Include/core_feature_base.h **** }
 258              		.loc 2 598 5
 259              	.LVL9:
 598:..\..\..\..\plf\riscv\NMSIS\Core\Include/core_feature_base.h **** }
 260              		.loc 2 598 5
 261              	 #APP
 262              	# 598 "..\..\..\..\plf\riscv\NMSIS\Core\Include/core_feature_base.h" 1
 263              		csrs 0x300, a5
 264              	# 0 "" 2
 265              	 #NO_APP
 266              	.LBE66:
 267              	.LBE65:
 268              	.LBE64:
 143:C:/Users/stapi/OneDrive/Desktop/GD32VW553/V1_MQTT_OK/GD32VW55X_Wifi_BLE_SDK/GD32VW55x_RELEASE_V1.0.2/MSDK/plf/GD32VW55x_standard_peripheral/Source\gd32vw55x_pmu.c ****     }
 144:C:/Users/stapi/OneDrive/Desktop/GD32VW553/V1_MQTT_OK/GD32VW55X_Wifi_BLE_SDK/GD32VW55x_RELEASE_V1.0.2/MSDK/plf/GD32VW55x_standard_peripheral/Source\gd32vw55x_pmu.c **** }
 269              		.loc 1 144 1 is_stmt 0
 270 002c 8280     		ret
 271              		.cfi_endproc
 272              	.LFE371:
 274              		.section	.text.pmu_to_deepsleepmode,"ax",@progbits
 275              		.align	1
 276              		.globl	pmu_to_deepsleepmode
 278              	pmu_to_deepsleepmode:
 279              	.LFB372:
 145:C:/Users/stapi/OneDrive/Desktop/GD32VW553/V1_MQTT_OK/GD32VW55X_Wifi_BLE_SDK/GD32VW55x_RELEASE_V1.0.2/MSDK/plf/GD32VW55x_standard_peripheral/Source\gd32vw55x_pmu.c **** 
 146:C:/Users/stapi/OneDrive/Desktop/GD32VW553/V1_MQTT_OK/GD32VW55X_Wifi_BLE_SDK/GD32VW55x_RELEASE_V1.0.2/MSDK/plf/GD32VW55x_standard_peripheral/Source\gd32vw55x_pmu.c **** /*!
 147:C:/Users/stapi/OneDrive/Desktop/GD32VW553/V1_MQTT_OK/GD32VW55X_Wifi_BLE_SDK/GD32VW55x_RELEASE_V1.0.2/MSDK/plf/GD32VW55x_standard_peripheral/Source\gd32vw55x_pmu.c ****     \brief      PMU work in deep-sleep mode
 148:C:/Users/stapi/OneDrive/Desktop/GD32VW553/V1_MQTT_OK/GD32VW55X_Wifi_BLE_SDK/GD32VW55x_RELEASE_V1.0.2/MSDK/plf/GD32VW55x_standard_peripheral/Source\gd32vw55x_pmu.c ****     \param[in]  ldo:
 149:C:/Users/stapi/OneDrive/Desktop/GD32VW553/V1_MQTT_OK/GD32VW55X_Wifi_BLE_SDK/GD32VW55x_RELEASE_V1.0.2/MSDK/plf/GD32VW55x_standard_peripheral/Source\gd32vw55x_pmu.c ****                 only one parameter can be selected which is shown as below:
 150:C:/Users/stapi/OneDrive/Desktop/GD32VW553/V1_MQTT_OK/GD32VW55X_Wifi_BLE_SDK/GD32VW55x_RELEASE_V1.0.2/MSDK/plf/GD32VW55x_standard_peripheral/Source\gd32vw55x_pmu.c ****       \arg        PMU_LDO_NORMAL: LDO normal work when PMU enter deepsleep mode
 151:C:/Users/stapi/OneDrive/Desktop/GD32VW553/V1_MQTT_OK/GD32VW55X_Wifi_BLE_SDK/GD32VW55x_RELEASE_V1.0.2/MSDK/plf/GD32VW55x_standard_peripheral/Source\gd32vw55x_pmu.c ****       \arg        PMU_LDO_LOWPOWER: LDO work at low power mode when PMU enter deepsleep mode
 152:C:/Users/stapi/OneDrive/Desktop/GD32VW553/V1_MQTT_OK/GD32VW55X_Wifi_BLE_SDK/GD32VW55x_RELEASE_V1.0.2/MSDK/plf/GD32VW55x_standard_peripheral/Source\gd32vw55x_pmu.c ****     \param[in]  lowdrive:
 153:C:/Users/stapi/OneDrive/Desktop/GD32VW553/V1_MQTT_OK/GD32VW55X_Wifi_BLE_SDK/GD32VW55x_RELEASE_V1.0.2/MSDK/plf/GD32VW55x_standard_peripheral/Source\gd32vw55x_pmu.c ****                 only one parameter can be selected which is shown as below:
 154:C:/Users/stapi/OneDrive/Desktop/GD32VW553/V1_MQTT_OK/GD32VW55X_Wifi_BLE_SDK/GD32VW55x_RELEASE_V1.0.2/MSDK/plf/GD32VW55x_standard_peripheral/Source\gd32vw55x_pmu.c ****       \arg        PMU_LOWDRIVER_DISABLE: Low-driver mode disable in deep-sleep mode
 155:C:/Users/stapi/OneDrive/Desktop/GD32VW553/V1_MQTT_OK/GD32VW55X_Wifi_BLE_SDK/GD32VW55x_RELEASE_V1.0.2/MSDK/plf/GD32VW55x_standard_peripheral/Source\gd32vw55x_pmu.c ****       \arg        PMU_LOWDRIVER_ENABLE: Low-driver mode enable in deep-sleep mode
 156:C:/Users/stapi/OneDrive/Desktop/GD32VW553/V1_MQTT_OK/GD32VW55X_Wifi_BLE_SDK/GD32VW55x_RELEASE_V1.0.2/MSDK/plf/GD32VW55x_standard_peripheral/Source\gd32vw55x_pmu.c ****     \param[in]  deepsleepmodecmd:
 157:C:/Users/stapi/OneDrive/Desktop/GD32VW553/V1_MQTT_OK/GD32VW55X_Wifi_BLE_SDK/GD32VW55x_RELEASE_V1.0.2/MSDK/plf/GD32VW55x_standard_peripheral/Source\gd32vw55x_pmu.c ****                 only one parameter can be selected which is shown as below:
 158:C:/Users/stapi/OneDrive/Desktop/GD32VW553/V1_MQTT_OK/GD32VW55X_Wifi_BLE_SDK/GD32VW55x_RELEASE_V1.0.2/MSDK/plf/GD32VW55x_standard_peripheral/Source\gd32vw55x_pmu.c ****       \arg        WFI_CMD: use WFI command
 159:C:/Users/stapi/OneDrive/Desktop/GD32VW553/V1_MQTT_OK/GD32VW55X_Wifi_BLE_SDK/GD32VW55x_RELEASE_V1.0.2/MSDK/plf/GD32VW55x_standard_peripheral/Source\gd32vw55x_pmu.c ****       \arg        WFE_CMD: use WFE command
 160:C:/Users/stapi/OneDrive/Desktop/GD32VW553/V1_MQTT_OK/GD32VW55X_Wifi_BLE_SDK/GD32VW55x_RELEASE_V1.0.2/MSDK/plf/GD32VW55x_standard_peripheral/Source\gd32vw55x_pmu.c ****     \param[out] none
 161:C:/Users/stapi/OneDrive/Desktop/GD32VW553/V1_MQTT_OK/GD32VW55X_Wifi_BLE_SDK/GD32VW55x_RELEASE_V1.0.2/MSDK/plf/GD32VW55x_standard_peripheral/Source\gd32vw55x_pmu.c ****     \retval     none
 162:C:/Users/stapi/OneDrive/Desktop/GD32VW553/V1_MQTT_OK/GD32VW55X_Wifi_BLE_SDK/GD32VW55x_RELEASE_V1.0.2/MSDK/plf/GD32VW55x_standard_peripheral/Source\gd32vw55x_pmu.c **** */
 163:C:/Users/stapi/OneDrive/Desktop/GD32VW553/V1_MQTT_OK/GD32VW55X_Wifi_BLE_SDK/GD32VW55x_RELEASE_V1.0.2/MSDK/plf/GD32VW55x_standard_peripheral/Source\gd32vw55x_pmu.c **** void pmu_to_deepsleepmode(uint32_t ldo, uint32_t lowdrive, uint8_t deepsleepmodecmd)
 164:C:/Users/stapi/OneDrive/Desktop/GD32VW553/V1_MQTT_OK/GD32VW55X_Wifi_BLE_SDK/GD32VW55x_RELEASE_V1.0.2/MSDK/plf/GD32VW55x_standard_peripheral/Source\gd32vw55x_pmu.c **** {
 280              		.loc 1 164 1 is_stmt 1
 281              		.cfi_startproc
 282              	.LVL10:
 165:C:/Users/stapi/OneDrive/Desktop/GD32VW553/V1_MQTT_OK/GD32VW55X_Wifi_BLE_SDK/GD32VW55x_RELEASE_V1.0.2/MSDK/plf/GD32VW55x_standard_peripheral/Source\gd32vw55x_pmu.c ****     /* clear stbmod and ldolp bits and low drive bits */
 166:C:/Users/stapi/OneDrive/Desktop/GD32VW553/V1_MQTT_OK/GD32VW55X_Wifi_BLE_SDK/GD32VW55x_RELEASE_V1.0.2/MSDK/plf/GD32VW55x_standard_peripheral/Source\gd32vw55x_pmu.c ****     PMU_CTL0 &= ~((uint32_t)(PMU_CTL0_STBMOD | PMU_CTL0_LDOLP | PMU_CTL0_LDEN | PMU_CTL0_LDNP | PMU
 283              		.loc 1 166 5
 284              		.loc 1 166 14 is_stmt 0
 285 0000 B7770040 		li	a5,1073770496
 286 0004 9843     		lw	a4,0(a5)
 287 0006 B7F6F3FF 		li	a3,-790528
 288 000a 9386C63F 		addi	a3,a3,1020
 289 000e 758F     		and	a4,a4,a3
 290 0010 98C3     		sw	a4,0(a5)
 167:C:/Users/stapi/OneDrive/Desktop/GD32VW553/V1_MQTT_OK/GD32VW55X_Wifi_BLE_SDK/GD32VW55x_RELEASE_V1.0.2/MSDK/plf/GD32VW55x_standard_peripheral/Source\gd32vw55x_pmu.c **** 
 168:C:/Users/stapi/OneDrive/Desktop/GD32VW553/V1_MQTT_OK/GD32VW55X_Wifi_BLE_SDK/GD32VW55x_RELEASE_V1.0.2/MSDK/plf/GD32VW55x_standard_peripheral/Source\gd32vw55x_pmu.c ****     /* set ldolp bit according to pmu_ldo */
 169:C:/Users/stapi/OneDrive/Desktop/GD32VW553/V1_MQTT_OK/GD32VW55X_Wifi_BLE_SDK/GD32VW55x_RELEASE_V1.0.2/MSDK/plf/GD32VW55x_standard_peripheral/Source\gd32vw55x_pmu.c ****     PMU_CTL0 |= ldo;
 291              		.loc 1 169 5 is_stmt 1
 292              		.loc 1 169 14 is_stmt 0
 293 0012 9843     		lw	a4,0(a5)
 294 0014 498F     		or	a4,a4,a0
 295 0016 98C3     		sw	a4,0(a5)
 170:C:/Users/stapi/OneDrive/Desktop/GD32VW553/V1_MQTT_OK/GD32VW55X_Wifi_BLE_SDK/GD32VW55x_RELEASE_V1.0.2/MSDK/plf/GD32VW55x_standard_peripheral/Source\gd32vw55x_pmu.c **** 
 171:C:/Users/stapi/OneDrive/Desktop/GD32VW553/V1_MQTT_OK/GD32VW55X_Wifi_BLE_SDK/GD32VW55x_RELEASE_V1.0.2/MSDK/plf/GD32VW55x_standard_peripheral/Source\gd32vw55x_pmu.c ****     /* low drive mode config in deep-sleep mode */
 172:C:/Users/stapi/OneDrive/Desktop/GD32VW553/V1_MQTT_OK/GD32VW55X_Wifi_BLE_SDK/GD32VW55x_RELEASE_V1.0.2/MSDK/plf/GD32VW55x_standard_peripheral/Source\gd32vw55x_pmu.c ****     if(PMU_LOWDRIVER_ENABLE == lowdrive){
 296              		.loc 1 172 5 is_stmt 1
 297              		.loc 1 172 7 is_stmt 0
 298 0018 37070C00 		li	a4,786432
 299 001c 639AE500 		bne	a1,a4,.L12
 173:C:/Users/stapi/OneDrive/Desktop/GD32VW553/V1_MQTT_OK/GD32VW55X_Wifi_BLE_SDK/GD32VW55x_RELEASE_V1.0.2/MSDK/plf/GD32VW55x_standard_peripheral/Source\gd32vw55x_pmu.c ****         if(PMU_LDO_NORMAL == ldo){
 300              		.loc 1 173 9 is_stmt 1
 174:C:/Users/stapi/OneDrive/Desktop/GD32VW553/V1_MQTT_OK/GD32VW55X_Wifi_BLE_SDK/GD32VW55x_RELEASE_V1.0.2/MSDK/plf/GD32VW55x_standard_peripheral/Source\gd32vw55x_pmu.c ****             PMU_CTL0 |= (uint32_t)(PMU_CTL0_LDEN | PMU_CTL0_LDNP);
 301              		.loc 1 174 22 is_stmt 0
 302 0020 9843     		lw	a4,0(a5)
 173:C:/Users/stapi/OneDrive/Desktop/GD32VW553/V1_MQTT_OK/GD32VW55X_Wifi_BLE_SDK/GD32VW55x_RELEASE_V1.0.2/MSDK/plf/GD32VW55x_standard_peripheral/Source\gd32vw55x_pmu.c ****         if(PMU_LDO_NORMAL == ldo){
 303              		.loc 1 173 11
 304 0022 1DE1     		bne	a0,zero,.L13
 305              		.loc 1 174 13 is_stmt 1
 306              		.loc 1 174 22 is_stmt 0
 307 0024 B7160C00 		li	a3,790528
 308 0028 93860680 		addi	a3,a3,-2048
 309 002c 558F     		or	a4,a4,a3
 310 002e 98C3     		sw	a4,0(a5)
 311              	.LVL11:
 312              	.L12:
 175:C:/Users/stapi/OneDrive/Desktop/GD32VW553/V1_MQTT_OK/GD32VW55X_Wifi_BLE_SDK/GD32VW55x_RELEASE_V1.0.2/MSDK/plf/GD32VW55x_standard_peripheral/Source\gd32vw55x_pmu.c ****         }else{
 176:C:/Users/stapi/OneDrive/Desktop/GD32VW553/V1_MQTT_OK/GD32VW55X_Wifi_BLE_SDK/GD32VW55x_RELEASE_V1.0.2/MSDK/plf/GD32VW55x_standard_peripheral/Source\gd32vw55x_pmu.c ****             PMU_CTL0 |= (uint32_t)(PMU_CTL0_LDEN | PMU_CTL0_LDLP);
 177:C:/Users/stapi/OneDrive/Desktop/GD32VW553/V1_MQTT_OK/GD32VW55X_Wifi_BLE_SDK/GD32VW55x_RELEASE_V1.0.2/MSDK/plf/GD32VW55x_standard_peripheral/Source\gd32vw55x_pmu.c ****         }
 178:C:/Users/stapi/OneDrive/Desktop/GD32VW553/V1_MQTT_OK/GD32VW55X_Wifi_BLE_SDK/GD32VW55x_RELEASE_V1.0.2/MSDK/plf/GD32VW55x_standard_peripheral/Source\gd32vw55x_pmu.c ****     }
 179:C:/Users/stapi/OneDrive/Desktop/GD32VW553/V1_MQTT_OK/GD32VW55X_Wifi_BLE_SDK/GD32VW55x_RELEASE_V1.0.2/MSDK/plf/GD32VW55x_standard_peripheral/Source\gd32vw55x_pmu.c **** 
 180:C:/Users/stapi/OneDrive/Desktop/GD32VW553/V1_MQTT_OK/GD32VW55X_Wifi_BLE_SDK/GD32VW55x_RELEASE_V1.0.2/MSDK/plf/GD32VW55x_standard_peripheral/Source\gd32vw55x_pmu.c ****     /* set CSR_SLEEPVALUE bit of RISC-V system control register */
 181:C:/Users/stapi/OneDrive/Desktop/GD32VW553/V1_MQTT_OK/GD32VW55X_Wifi_BLE_SDK/GD32VW55x_RELEASE_V1.0.2/MSDK/plf/GD32VW55x_standard_peripheral/Source\gd32vw55x_pmu.c ****     __set_wfi_sleepmode(WFI_DEEP_SLEEP);
 313              		.loc 1 181 5 is_stmt 1
 314              		.loc 2 787 5
 315              	.LBB67:
 316              	.LBB68:
 317              		.loc 2 787 5
 318              		.loc 2 787 5
 319 0030 8547     		li	a5,1
 320              	 #APP
 321              	# 787 "..\..\..\..\plf\riscv\NMSIS\Core\Include/core_feature_base.h" 1
 322              		csrw 0x811, a5
 323              	# 0 "" 2
 324              	.LVL12:
 325              	 #NO_APP
 326              	.LBE68:
 327              	.LBE67:
 182:C:/Users/stapi/OneDrive/Desktop/GD32VW553/V1_MQTT_OK/GD32VW55X_Wifi_BLE_SDK/GD32VW55x_RELEASE_V1.0.2/MSDK/plf/GD32VW55x_standard_peripheral/Source\gd32vw55x_pmu.c **** 
 183:C:/Users/stapi/OneDrive/Desktop/GD32VW553/V1_MQTT_OK/GD32VW55X_Wifi_BLE_SDK/GD32VW55x_RELEASE_V1.0.2/MSDK/plf/GD32VW55x_standard_peripheral/Source\gd32vw55x_pmu.c ****     /* select WFI or WFE command to enter deepsleep mode */
 184:C:/Users/stapi/OneDrive/Desktop/GD32VW553/V1_MQTT_OK/GD32VW55X_Wifi_BLE_SDK/GD32VW55x_RELEASE_V1.0.2/MSDK/plf/GD32VW55x_standard_peripheral/Source\gd32vw55x_pmu.c ****     if(WFI_CMD == deepsleepmodecmd){
 328              		.loc 1 184 5
 329              		.loc 1 184 7 is_stmt 0
 330 0036 11EE     		bne	a2,zero,.L14
 185:C:/Users/stapi/OneDrive/Desktop/GD32VW553/V1_MQTT_OK/GD32VW55X_Wifi_BLE_SDK/GD32VW55x_RELEASE_V1.0.2/MSDK/plf/GD32VW55x_standard_peripheral/Source\gd32vw55x_pmu.c ****         __WFI();
 331              		.loc 1 185 9 is_stmt 1
 332              	.LBB69:
 333              	.LBB70:
 729:..\..\..\..\plf\riscv\NMSIS\Core\Include/core_feature_base.h ****     __ASM volatile("wfi");
 334              		.loc 2 729 5
 335              	.LBB71:
 729:..\..\..\..\plf\riscv\NMSIS\Core\Include/core_feature_base.h ****     __ASM volatile("wfi");
 336              		.loc 2 729 5
 337              	.LVL13:
 729:..\..\..\..\plf\riscv\NMSIS\Core\Include/core_feature_base.h ****     __ASM volatile("wfi");
 338              		.loc 2 729 5
 339              	 #APP
 340              	# 729 "..\..\..\..\plf\riscv\NMSIS\Core\Include/core_feature_base.h" 1
 341              		csrc 0x810, a5
 342              	# 0 "" 2
 343              	 #NO_APP
 344              	.LBE71:
 730:..\..\..\..\plf\riscv\NMSIS\Core\Include/core_feature_base.h **** }
 345              		.loc 2 730 5
 346              	 #APP
 347              	# 730 "..\..\..\..\plf\riscv\NMSIS\Core\Include/core_feature_base.h" 1
 348              		wfi
 349              	# 0 "" 2
 350              	.LVL14:
 351              	 #NO_APP
 352              	.L15:
 353              	.LBE70:
 354              	.LBE69:
 186:C:/Users/stapi/OneDrive/Desktop/GD32VW553/V1_MQTT_OK/GD32VW55X_Wifi_BLE_SDK/GD32VW55x_RELEASE_V1.0.2/MSDK/plf/GD32VW55x_standard_peripheral/Source\gd32vw55x_pmu.c ****     }else{
 187:C:/Users/stapi/OneDrive/Desktop/GD32VW553/V1_MQTT_OK/GD32VW55X_Wifi_BLE_SDK/GD32VW55x_RELEASE_V1.0.2/MSDK/plf/GD32VW55x_standard_peripheral/Source\gd32vw55x_pmu.c ****         __disable_irq();
 188:C:/Users/stapi/OneDrive/Desktop/GD32VW553/V1_MQTT_OK/GD32VW55X_Wifi_BLE_SDK/GD32VW55x_RELEASE_V1.0.2/MSDK/plf/GD32VW55x_standard_peripheral/Source\gd32vw55x_pmu.c ****         __WFE();
 189:C:/Users/stapi/OneDrive/Desktop/GD32VW553/V1_MQTT_OK/GD32VW55X_Wifi_BLE_SDK/GD32VW55x_RELEASE_V1.0.2/MSDK/plf/GD32VW55x_standard_peripheral/Source\gd32vw55x_pmu.c ****         __enable_irq();
 190:C:/Users/stapi/OneDrive/Desktop/GD32VW553/V1_MQTT_OK/GD32VW55X_Wifi_BLE_SDK/GD32VW55x_RELEASE_V1.0.2/MSDK/plf/GD32VW55x_standard_peripheral/Source\gd32vw55x_pmu.c ****     }
 191:C:/Users/stapi/OneDrive/Desktop/GD32VW553/V1_MQTT_OK/GD32VW55X_Wifi_BLE_SDK/GD32VW55x_RELEASE_V1.0.2/MSDK/plf/GD32VW55x_standard_peripheral/Source\gd32vw55x_pmu.c ****     /* reset sleepdeep bit of RISC-V system control register */
 192:C:/Users/stapi/OneDrive/Desktop/GD32VW553/V1_MQTT_OK/GD32VW55X_Wifi_BLE_SDK/GD32VW55x_RELEASE_V1.0.2/MSDK/plf/GD32VW55x_standard_peripheral/Source\gd32vw55x_pmu.c ****     __set_wfi_sleepmode(WFI_SHALLOW_SLEEP);
 355              		.loc 1 192 5
 356              		.loc 2 787 5
 357              	.LBB72:
 358              	.LBB73:
 359              		.loc 2 787 5
 360              		.loc 2 787 5
 361 0040 8147     		li	a5,0
 362              	 #APP
 363              	# 787 "..\..\..\..\plf\riscv\NMSIS\Core\Include/core_feature_base.h" 1
 364              		csrw 0x811, a5
 365              	# 0 "" 2
 366              	.LVL15:
 367              	 #NO_APP
 368              	.LBE73:
 369              	.LBE72:
 193:C:/Users/stapi/OneDrive/Desktop/GD32VW553/V1_MQTT_OK/GD32VW55X_Wifi_BLE_SDK/GD32VW55x_RELEASE_V1.0.2/MSDK/plf/GD32VW55x_standard_peripheral/Source\gd32vw55x_pmu.c **** }
 370              		.loc 1 193 1 is_stmt 0
 371 0046 8280     		ret
 372              	.LVL16:
 373              	.L13:
 176:C:/Users/stapi/OneDrive/Desktop/GD32VW553/V1_MQTT_OK/GD32VW55X_Wifi_BLE_SDK/GD32VW55x_RELEASE_V1.0.2/MSDK/plf/GD32VW55x_standard_peripheral/Source\gd32vw55x_pmu.c ****         }
 374              		.loc 1 176 13 is_stmt 1
 176:C:/Users/stapi/OneDrive/Desktop/GD32VW553/V1_MQTT_OK/GD32VW55X_Wifi_BLE_SDK/GD32VW55x_RELEASE_V1.0.2/MSDK/plf/GD32VW55x_standard_peripheral/Source\gd32vw55x_pmu.c ****         }
 375              		.loc 1 176 22 is_stmt 0
 376 0048 93850540 		addi	a1,a1,1024
 377              	.LVL17:
 378 004c D98D     		or	a1,a4,a1
 379              	.LVL18:
 380 004e 8CC3     		sw	a1,0(a5)
 381 0050 C5B7     		j	.L12
 382              	.LVL19:
 383              	.L14:
 187:C:/Users/stapi/OneDrive/Desktop/GD32VW553/V1_MQTT_OK/GD32VW55X_Wifi_BLE_SDK/GD32VW55x_RELEASE_V1.0.2/MSDK/plf/GD32VW55x_standard_peripheral/Source\gd32vw55x_pmu.c ****         __WFE();
 384              		.loc 1 187 9 is_stmt 1
 609:..\..\..\..\plf\riscv\NMSIS\Core\Include/core_feature_base.h **** }
 385              		.loc 2 609 5
 386              	.LBB74:
 387              	.LBB75:
 609:..\..\..\..\plf\riscv\NMSIS\Core\Include/core_feature_base.h **** }
 388              		.loc 2 609 5
 609:..\..\..\..\plf\riscv\NMSIS\Core\Include/core_feature_base.h **** }
 389              		.loc 2 609 5
 390 0052 2147     		li	a4,8
 391              	 #APP
 392              	# 609 "..\..\..\..\plf\riscv\NMSIS\Core\Include/core_feature_base.h" 1
 393              		csrc 0x300, a4
 394              	# 0 "" 2
 395              	 #NO_APP
 396              	.LBE75:
 397              	.LBE74:
 188:C:/Users/stapi/OneDrive/Desktop/GD32VW553/V1_MQTT_OK/GD32VW55X_Wifi_BLE_SDK/GD32VW55x_RELEASE_V1.0.2/MSDK/plf/GD32VW55x_standard_peripheral/Source\gd32vw55x_pmu.c ****         __enable_irq();
 398              		.loc 1 188 9
 399              	.LBB76:
 400              	.LBB77:
 742:..\..\..\..\plf\riscv\NMSIS\Core\Include/core_feature_base.h ****     __ASM volatile("wfi");
 401              		.loc 2 742 5
 402              	.LBB78:
 742:..\..\..\..\plf\riscv\NMSIS\Core\Include/core_feature_base.h ****     __ASM volatile("wfi");
 403              		.loc 2 742 5
 404              	.LVL20:
 742:..\..\..\..\plf\riscv\NMSIS\Core\Include/core_feature_base.h ****     __ASM volatile("wfi");
 405              		.loc 2 742 5
 406              	 #APP
 407              	# 742 "..\..\..\..\plf\riscv\NMSIS\Core\Include/core_feature_base.h" 1
 408              		csrs 0x810, a5
 409              	# 0 "" 2
 410              	 #NO_APP
 411              	.LBE78:
 743:..\..\..\..\plf\riscv\NMSIS\Core\Include/core_feature_base.h ****     __RV_CSR_CLEAR(CSR_WFE, WFE_WFE);
 412              		.loc 2 743 5
 413              	 #APP
 414              	# 743 "..\..\..\..\plf\riscv\NMSIS\Core\Include/core_feature_base.h" 1
 744:..\..\..\..\plf\riscv\NMSIS\Core\Include/core_feature_base.h **** }
 415              		wfi
 416              	# 0 "" 2
 417              		.loc 2 744 5
 418              	 #NO_APP
 419              	.LBB79:
 744:..\..\..\..\plf\riscv\NMSIS\Core\Include/core_feature_base.h **** }
 420              		.loc 2 744 5
 421              	.LVL21:
 744:..\..\..\..\plf\riscv\NMSIS\Core\Include/core_feature_base.h **** }
 422              		.loc 2 744 5
 423              	 #APP
 424              	# 744 "..\..\..\..\plf\riscv\NMSIS\Core\Include/core_feature_base.h" 1
 425              		csrc 0x810, a5
 426              	# 0 "" 2
 427              	 #NO_APP
 428              	.LBE79:
 429              	.LBE77:
 430              	.LBE76:
 189:C:/Users/stapi/OneDrive/Desktop/GD32VW553/V1_MQTT_OK/GD32VW55X_Wifi_BLE_SDK/GD32VW55x_RELEASE_V1.0.2/MSDK/plf/GD32VW55x_standard_peripheral/Source\gd32vw55x_pmu.c ****     }
 431              		.loc 1 189 9
 432              	.LBB80:
 433              	.LBB81:
 598:..\..\..\..\plf\riscv\NMSIS\Core\Include/core_feature_base.h **** }
 434              		.loc 2 598 5
 435              	.LBB82:
 598:..\..\..\..\plf\riscv\NMSIS\Core\Include/core_feature_base.h **** }
 436              		.loc 2 598 5
 437              	.LVL22:
 598:..\..\..\..\plf\riscv\NMSIS\Core\Include/core_feature_base.h **** }
 438              		.loc 2 598 5
 439              	 #APP
 440              	# 598 "..\..\..\..\plf\riscv\NMSIS\Core\Include/core_feature_base.h" 1
 441              		csrs 0x300, a4
 442              	# 0 "" 2
 443              	 #NO_APP
 444              	.LBE82:
 599:..\..\..\..\plf\riscv\NMSIS\Core\Include/core_feature_base.h **** 
 445              		.loc 2 599 1 is_stmt 0
 446 0068 E1BF     		j	.L15
 447              	.LBE81:
 448              	.LBE80:
 449              		.cfi_endproc
 450              	.LFE372:
 452              		.section	.text.pmu_to_standbymode,"ax",@progbits
 453              		.align	1
 454              		.globl	pmu_to_standbymode
 456              	pmu_to_standbymode:
 457              	.LFB373:
 194:C:/Users/stapi/OneDrive/Desktop/GD32VW553/V1_MQTT_OK/GD32VW55X_Wifi_BLE_SDK/GD32VW55x_RELEASE_V1.0.2/MSDK/plf/GD32VW55x_standard_peripheral/Source\gd32vw55x_pmu.c **** 
 195:C:/Users/stapi/OneDrive/Desktop/GD32VW553/V1_MQTT_OK/GD32VW55X_Wifi_BLE_SDK/GD32VW55x_RELEASE_V1.0.2/MSDK/plf/GD32VW55x_standard_peripheral/Source\gd32vw55x_pmu.c **** /*!
 196:C:/Users/stapi/OneDrive/Desktop/GD32VW553/V1_MQTT_OK/GD32VW55X_Wifi_BLE_SDK/GD32VW55x_RELEASE_V1.0.2/MSDK/plf/GD32VW55x_standard_peripheral/Source\gd32vw55x_pmu.c ****     \brief      PMU work in standby mode
 197:C:/Users/stapi/OneDrive/Desktop/GD32VW553/V1_MQTT_OK/GD32VW55X_Wifi_BLE_SDK/GD32VW55x_RELEASE_V1.0.2/MSDK/plf/GD32VW55x_standard_peripheral/Source\gd32vw55x_pmu.c ****     \param[in]  standbymodecmd:
 198:C:/Users/stapi/OneDrive/Desktop/GD32VW553/V1_MQTT_OK/GD32VW55X_Wifi_BLE_SDK/GD32VW55x_RELEASE_V1.0.2/MSDK/plf/GD32VW55x_standard_peripheral/Source\gd32vw55x_pmu.c ****                 only one parameter can be selected which is shown as below:
 199:C:/Users/stapi/OneDrive/Desktop/GD32VW553/V1_MQTT_OK/GD32VW55X_Wifi_BLE_SDK/GD32VW55x_RELEASE_V1.0.2/MSDK/plf/GD32VW55x_standard_peripheral/Source\gd32vw55x_pmu.c ****       \arg        WFI_CMD: use WFI command
 200:C:/Users/stapi/OneDrive/Desktop/GD32VW553/V1_MQTT_OK/GD32VW55X_Wifi_BLE_SDK/GD32VW55x_RELEASE_V1.0.2/MSDK/plf/GD32VW55x_standard_peripheral/Source\gd32vw55x_pmu.c ****       \arg        WFE_CMD: use WFE command
 201:C:/Users/stapi/OneDrive/Desktop/GD32VW553/V1_MQTT_OK/GD32VW55X_Wifi_BLE_SDK/GD32VW55x_RELEASE_V1.0.2/MSDK/plf/GD32VW55x_standard_peripheral/Source\gd32vw55x_pmu.c ****     \param[out] none
 202:C:/Users/stapi/OneDrive/Desktop/GD32VW553/V1_MQTT_OK/GD32VW55X_Wifi_BLE_SDK/GD32VW55x_RELEASE_V1.0.2/MSDK/plf/GD32VW55x_standard_peripheral/Source\gd32vw55x_pmu.c ****     \retval     none
 203:C:/Users/stapi/OneDrive/Desktop/GD32VW553/V1_MQTT_OK/GD32VW55X_Wifi_BLE_SDK/GD32VW55x_RELEASE_V1.0.2/MSDK/plf/GD32VW55x_standard_peripheral/Source\gd32vw55x_pmu.c **** */
 204:C:/Users/stapi/OneDrive/Desktop/GD32VW553/V1_MQTT_OK/GD32VW55X_Wifi_BLE_SDK/GD32VW55x_RELEASE_V1.0.2/MSDK/plf/GD32VW55x_standard_peripheral/Source\gd32vw55x_pmu.c **** void pmu_to_standbymode(uint8_t standbymodecmd)
 205:C:/Users/stapi/OneDrive/Desktop/GD32VW553/V1_MQTT_OK/GD32VW55X_Wifi_BLE_SDK/GD32VW55x_RELEASE_V1.0.2/MSDK/plf/GD32VW55x_standard_peripheral/Source\gd32vw55x_pmu.c **** {
 458              		.loc 1 205 1 is_stmt 1
 459              		.cfi_startproc
 460              	.LVL23:
 206:C:/Users/stapi/OneDrive/Desktop/GD32VW553/V1_MQTT_OK/GD32VW55X_Wifi_BLE_SDK/GD32VW55x_RELEASE_V1.0.2/MSDK/plf/GD32VW55x_standard_peripheral/Source\gd32vw55x_pmu.c ****     /* set CSR_SLEEPVALUE bit of RISC-V system control register */
 207:C:/Users/stapi/OneDrive/Desktop/GD32VW553/V1_MQTT_OK/GD32VW55X_Wifi_BLE_SDK/GD32VW55x_RELEASE_V1.0.2/MSDK/plf/GD32VW55x_standard_peripheral/Source\gd32vw55x_pmu.c ****     __set_wfi_sleepmode(WFI_DEEP_SLEEP);
 461              		.loc 1 207 5
 462              		.loc 2 787 5
 463              	.LBB83:
 464              	.LBB84:
 465              		.loc 2 787 5
 466              		.loc 2 787 5
 467 0000 8547     		li	a5,1
 468              	 #APP
 469              	# 787 "..\..\..\..\plf\riscv\NMSIS\Core\Include/core_feature_base.h" 1
 470              		csrw 0x811, a5
 471              	# 0 "" 2
 472              	.LVL24:
 473              	 #NO_APP
 474              	.LBE84:
 475              	.LBE83:
 208:C:/Users/stapi/OneDrive/Desktop/GD32VW553/V1_MQTT_OK/GD32VW55X_Wifi_BLE_SDK/GD32VW55x_RELEASE_V1.0.2/MSDK/plf/GD32VW55x_standard_peripheral/Source\gd32vw55x_pmu.c **** 
 209:C:/Users/stapi/OneDrive/Desktop/GD32VW553/V1_MQTT_OK/GD32VW55X_Wifi_BLE_SDK/GD32VW55x_RELEASE_V1.0.2/MSDK/plf/GD32VW55x_standard_peripheral/Source\gd32vw55x_pmu.c ****     /* set stbmod bit */
 210:C:/Users/stapi/OneDrive/Desktop/GD32VW553/V1_MQTT_OK/GD32VW55X_Wifi_BLE_SDK/GD32VW55x_RELEASE_V1.0.2/MSDK/plf/GD32VW55x_standard_peripheral/Source\gd32vw55x_pmu.c ****     PMU_CTL0 |= PMU_CTL0_STBMOD;
 476              		.loc 1 210 5
 477              		.loc 1 210 14 is_stmt 0
 478 0006 37770040 		li	a4,1073770496
 479 000a 1443     		lw	a3,0(a4)
 480 000c 93E62600 		ori	a3,a3,2
 481 0010 14C3     		sw	a3,0(a4)
 211:C:/Users/stapi/OneDrive/Desktop/GD32VW553/V1_MQTT_OK/GD32VW55X_Wifi_BLE_SDK/GD32VW55x_RELEASE_V1.0.2/MSDK/plf/GD32VW55x_standard_peripheral/Source\gd32vw55x_pmu.c **** 
 212:C:/Users/stapi/OneDrive/Desktop/GD32VW553/V1_MQTT_OK/GD32VW55X_Wifi_BLE_SDK/GD32VW55x_RELEASE_V1.0.2/MSDK/plf/GD32VW55x_standard_peripheral/Source\gd32vw55x_pmu.c ****     /* reset wakeup flag */
 213:C:/Users/stapi/OneDrive/Desktop/GD32VW553/V1_MQTT_OK/GD32VW55X_Wifi_BLE_SDK/GD32VW55x_RELEASE_V1.0.2/MSDK/plf/GD32VW55x_standard_peripheral/Source\gd32vw55x_pmu.c ****     PMU_CTL0 |= PMU_CTL0_WURST;
 482              		.loc 1 213 5 is_stmt 1
 483              		.loc 1 213 14 is_stmt 0
 484 0012 1443     		lw	a3,0(a4)
 485 0014 93E64600 		ori	a3,a3,4
 486 0018 14C3     		sw	a3,0(a4)
 214:C:/Users/stapi/OneDrive/Desktop/GD32VW553/V1_MQTT_OK/GD32VW55X_Wifi_BLE_SDK/GD32VW55x_RELEASE_V1.0.2/MSDK/plf/GD32VW55x_standard_peripheral/Source\gd32vw55x_pmu.c **** 
 215:C:/Users/stapi/OneDrive/Desktop/GD32VW553/V1_MQTT_OK/GD32VW55X_Wifi_BLE_SDK/GD32VW55x_RELEASE_V1.0.2/MSDK/plf/GD32VW55x_standard_peripheral/Source\gd32vw55x_pmu.c ****     /* select WFI or WFE command to enter standby mode */
 216:C:/Users/stapi/OneDrive/Desktop/GD32VW553/V1_MQTT_OK/GD32VW55X_Wifi_BLE_SDK/GD32VW55x_RELEASE_V1.0.2/MSDK/plf/GD32VW55x_standard_peripheral/Source\gd32vw55x_pmu.c ****     if(WFI_CMD == standbymodecmd){
 487              		.loc 1 216 5 is_stmt 1
 488              		.loc 1 216 7 is_stmt 0
 489 001a 11E5     		bne	a0,zero,.L17
 217:C:/Users/stapi/OneDrive/Desktop/GD32VW553/V1_MQTT_OK/GD32VW55X_Wifi_BLE_SDK/GD32VW55x_RELEASE_V1.0.2/MSDK/plf/GD32VW55x_standard_peripheral/Source\gd32vw55x_pmu.c ****         __WFI();
 490              		.loc 1 217 9 is_stmt 1
 491              	.LBB85:
 492              	.LBB86:
 729:..\..\..\..\plf\riscv\NMSIS\Core\Include/core_feature_base.h ****     __ASM volatile("wfi");
 493              		.loc 2 729 5
 494              	.LBB87:
 729:..\..\..\..\plf\riscv\NMSIS\Core\Include/core_feature_base.h ****     __ASM volatile("wfi");
 495              		.loc 2 729 5
 496              	.LVL25:
 729:..\..\..\..\plf\riscv\NMSIS\Core\Include/core_feature_base.h ****     __ASM volatile("wfi");
 497              		.loc 2 729 5
 498              	 #APP
 499              	# 729 "..\..\..\..\plf\riscv\NMSIS\Core\Include/core_feature_base.h" 1
 500              		csrc 0x810, a5
 501              	# 0 "" 2
 502              	 #NO_APP
 503              	.LBE87:
 730:..\..\..\..\plf\riscv\NMSIS\Core\Include/core_feature_base.h **** }
 504              		.loc 2 730 5
 505              	 #APP
 506              	# 730 "..\..\..\..\plf\riscv\NMSIS\Core\Include/core_feature_base.h" 1
 731:..\..\..\..\plf\riscv\NMSIS\Core\Include/core_feature_base.h **** 
 507              		wfi
 508              	# 0 "" 2
 509              		.loc 2 731 1 is_stmt 0
 510              	 #NO_APP
 511 0024 8280     		ret
 512              	.LVL26:
 513              	.L17:
 514              	.LBE86:
 515              	.LBE85:
 218:C:/Users/stapi/OneDrive/Desktop/GD32VW553/V1_MQTT_OK/GD32VW55X_Wifi_BLE_SDK/GD32VW55x_RELEASE_V1.0.2/MSDK/plf/GD32VW55x_standard_peripheral/Source\gd32vw55x_pmu.c ****     }else{
 219:C:/Users/stapi/OneDrive/Desktop/GD32VW553/V1_MQTT_OK/GD32VW55X_Wifi_BLE_SDK/GD32VW55x_RELEASE_V1.0.2/MSDK/plf/GD32VW55x_standard_peripheral/Source\gd32vw55x_pmu.c ****         __disable_irq();
 516              		.loc 1 219 9 is_stmt 1
 609:..\..\..\..\plf\riscv\NMSIS\Core\Include/core_feature_base.h **** }
 517              		.loc 2 609 5
 518              	.LBB88:
 519              	.LBB89:
 609:..\..\..\..\plf\riscv\NMSIS\Core\Include/core_feature_base.h **** }
 520              		.loc 2 609 5
 609:..\..\..\..\plf\riscv\NMSIS\Core\Include/core_feature_base.h **** }
 521              		.loc 2 609 5
 522 0026 2147     		li	a4,8
 523              	 #APP
 524              	# 609 "..\..\..\..\plf\riscv\NMSIS\Core\Include/core_feature_base.h" 1
 525              		csrc 0x300, a4
 526              	# 0 "" 2
 527              	 #NO_APP
 528              	.LBE89:
 529              	.LBE88:
 220:C:/Users/stapi/OneDrive/Desktop/GD32VW553/V1_MQTT_OK/GD32VW55X_Wifi_BLE_SDK/GD32VW55x_RELEASE_V1.0.2/MSDK/plf/GD32VW55x_standard_peripheral/Source\gd32vw55x_pmu.c ****         __WFE();
 530              		.loc 1 220 9
 531              	.LBB90:
 532              	.LBB91:
 742:..\..\..\..\plf\riscv\NMSIS\Core\Include/core_feature_base.h ****     __ASM volatile("wfi");
 533              		.loc 2 742 5
 534              	.LBB92:
 742:..\..\..\..\plf\riscv\NMSIS\Core\Include/core_feature_base.h ****     __ASM volatile("wfi");
 535              		.loc 2 742 5
 536              	.LVL27:
 742:..\..\..\..\plf\riscv\NMSIS\Core\Include/core_feature_base.h ****     __ASM volatile("wfi");
 537              		.loc 2 742 5
 538              	 #APP
 539              	# 742 "..\..\..\..\plf\riscv\NMSIS\Core\Include/core_feature_base.h" 1
 540              		csrs 0x810, a5
 541              	# 0 "" 2
 542              	 #NO_APP
 543              	.LBE92:
 743:..\..\..\..\plf\riscv\NMSIS\Core\Include/core_feature_base.h ****     __RV_CSR_CLEAR(CSR_WFE, WFE_WFE);
 544              		.loc 2 743 5
 545              	 #APP
 546              	# 743 "..\..\..\..\plf\riscv\NMSIS\Core\Include/core_feature_base.h" 1
 744:..\..\..\..\plf\riscv\NMSIS\Core\Include/core_feature_base.h **** }
 547              		wfi
 548              	# 0 "" 2
 549              		.loc 2 744 5
 550              	 #NO_APP
 551              	.LBB93:
 744:..\..\..\..\plf\riscv\NMSIS\Core\Include/core_feature_base.h **** }
 552              		.loc 2 744 5
 553              	.LVL28:
 744:..\..\..\..\plf\riscv\NMSIS\Core\Include/core_feature_base.h **** }
 554              		.loc 2 744 5
 555              	 #APP
 556              	# 744 "..\..\..\..\plf\riscv\NMSIS\Core\Include/core_feature_base.h" 1
 557              		csrc 0x810, a5
 558              	# 0 "" 2
 559              	 #NO_APP
 560              	.LBE93:
 561              	.LBE91:
 562              	.LBE90:
 221:C:/Users/stapi/OneDrive/Desktop/GD32VW553/V1_MQTT_OK/GD32VW55X_Wifi_BLE_SDK/GD32VW55x_RELEASE_V1.0.2/MSDK/plf/GD32VW55x_standard_peripheral/Source\gd32vw55x_pmu.c ****         __enable_irq();
 563              		.loc 1 221 9
 564              	.LBB94:
 565              	.LBB95:
 598:..\..\..\..\plf\riscv\NMSIS\Core\Include/core_feature_base.h **** }
 566              		.loc 2 598 5
 567              	.LBB96:
 598:..\..\..\..\plf\riscv\NMSIS\Core\Include/core_feature_base.h **** }
 568              		.loc 2 598 5
 569              	.LVL29:
 598:..\..\..\..\plf\riscv\NMSIS\Core\Include/core_feature_base.h **** }
 570              		.loc 2 598 5
 571              	 #APP
 572              	# 598 "..\..\..\..\plf\riscv\NMSIS\Core\Include/core_feature_base.h" 1
 573              		csrs 0x300, a4
 574              	# 0 "" 2
 575              	 #NO_APP
 576              	.LBE96:
 577              	.LBE95:
 578              	.LBE94:
 222:C:/Users/stapi/OneDrive/Desktop/GD32VW553/V1_MQTT_OK/GD32VW55X_Wifi_BLE_SDK/GD32VW55x_RELEASE_V1.0.2/MSDK/plf/GD32VW55x_standard_peripheral/Source\gd32vw55x_pmu.c ****     }
 223:C:/Users/stapi/OneDrive/Desktop/GD32VW553/V1_MQTT_OK/GD32VW55X_Wifi_BLE_SDK/GD32VW55x_RELEASE_V1.0.2/MSDK/plf/GD32VW55x_standard_peripheral/Source\gd32vw55x_pmu.c **** }
 579              		.loc 1 223 1 is_stmt 0
 580 003c 8280     		ret
 581              		.cfi_endproc
 582              	.LFE373:
 584              		.section	.text.pmu_wakeup_pin_enable,"ax",@progbits
 585              		.align	1
 586              		.globl	pmu_wakeup_pin_enable
 588              	pmu_wakeup_pin_enable:
 589              	.LFB374:
 224:C:/Users/stapi/OneDrive/Desktop/GD32VW553/V1_MQTT_OK/GD32VW55X_Wifi_BLE_SDK/GD32VW55x_RELEASE_V1.0.2/MSDK/plf/GD32VW55x_standard_peripheral/Source\gd32vw55x_pmu.c **** 
 225:C:/Users/stapi/OneDrive/Desktop/GD32VW553/V1_MQTT_OK/GD32VW55X_Wifi_BLE_SDK/GD32VW55x_RELEASE_V1.0.2/MSDK/plf/GD32VW55x_standard_peripheral/Source\gd32vw55x_pmu.c **** /*!
 226:C:/Users/stapi/OneDrive/Desktop/GD32VW553/V1_MQTT_OK/GD32VW55X_Wifi_BLE_SDK/GD32VW55x_RELEASE_V1.0.2/MSDK/plf/GD32VW55x_standard_peripheral/Source\gd32vw55x_pmu.c ****     \brief      enable wakeup pin
 227:C:/Users/stapi/OneDrive/Desktop/GD32VW553/V1_MQTT_OK/GD32VW55X_Wifi_BLE_SDK/GD32VW55x_RELEASE_V1.0.2/MSDK/plf/GD32VW55x_standard_peripheral/Source\gd32vw55x_pmu.c ****     \param[in]  wakeup_pin:
 228:C:/Users/stapi/OneDrive/Desktop/GD32VW553/V1_MQTT_OK/GD32VW55X_Wifi_BLE_SDK/GD32VW55x_RELEASE_V1.0.2/MSDK/plf/GD32VW55x_standard_peripheral/Source\gd32vw55x_pmu.c ****                 one or more parameters can be selected which are shown as below:
 229:C:/Users/stapi/OneDrive/Desktop/GD32VW553/V1_MQTT_OK/GD32VW55X_Wifi_BLE_SDK/GD32VW55x_RELEASE_V1.0.2/MSDK/plf/GD32VW55x_standard_peripheral/Source\gd32vw55x_pmu.c ****       \arg        PMU_WAKEUP_PIN0: WKUP Pin 0 (PA0)
 230:C:/Users/stapi/OneDrive/Desktop/GD32VW553/V1_MQTT_OK/GD32VW55X_Wifi_BLE_SDK/GD32VW55x_RELEASE_V1.0.2/MSDK/plf/GD32VW55x_standard_peripheral/Source\gd32vw55x_pmu.c ****       \arg        PMU_WAKEUP_PIN1: WKUP Pin 1 (PA15)
 231:C:/Users/stapi/OneDrive/Desktop/GD32VW553/V1_MQTT_OK/GD32VW55X_Wifi_BLE_SDK/GD32VW55x_RELEASE_V1.0.2/MSDK/plf/GD32VW55x_standard_peripheral/Source\gd32vw55x_pmu.c ****       \arg        PMU_WAKEUP_PIN2: WKUP Pin 2 (PA7)
 232:C:/Users/stapi/OneDrive/Desktop/GD32VW553/V1_MQTT_OK/GD32VW55X_Wifi_BLE_SDK/GD32VW55x_RELEASE_V1.0.2/MSDK/plf/GD32VW55x_standard_peripheral/Source\gd32vw55x_pmu.c ****       \arg        PMU_WAKEUP_PIN3: WKUP Pin 3 (PA12)
 233:C:/Users/stapi/OneDrive/Desktop/GD32VW553/V1_MQTT_OK/GD32VW55X_Wifi_BLE_SDK/GD32VW55x_RELEASE_V1.0.2/MSDK/plf/GD32VW55x_standard_peripheral/Source\gd32vw55x_pmu.c ****     \param[out] none
 234:C:/Users/stapi/OneDrive/Desktop/GD32VW553/V1_MQTT_OK/GD32VW55X_Wifi_BLE_SDK/GD32VW55x_RELEASE_V1.0.2/MSDK/plf/GD32VW55x_standard_peripheral/Source\gd32vw55x_pmu.c ****     \retval     none
 235:C:/Users/stapi/OneDrive/Desktop/GD32VW553/V1_MQTT_OK/GD32VW55X_Wifi_BLE_SDK/GD32VW55x_RELEASE_V1.0.2/MSDK/plf/GD32VW55x_standard_peripheral/Source\gd32vw55x_pmu.c **** */
 236:C:/Users/stapi/OneDrive/Desktop/GD32VW553/V1_MQTT_OK/GD32VW55X_Wifi_BLE_SDK/GD32VW55x_RELEASE_V1.0.2/MSDK/plf/GD32VW55x_standard_peripheral/Source\gd32vw55x_pmu.c **** void pmu_wakeup_pin_enable(uint32_t wakeup_pin)
 237:C:/Users/stapi/OneDrive/Desktop/GD32VW553/V1_MQTT_OK/GD32VW55X_Wifi_BLE_SDK/GD32VW55x_RELEASE_V1.0.2/MSDK/plf/GD32VW55x_standard_peripheral/Source\gd32vw55x_pmu.c **** {
 590              		.loc 1 237 1 is_stmt 1
 591              		.cfi_startproc
 592              	.LVL30:
 238:C:/Users/stapi/OneDrive/Desktop/GD32VW553/V1_MQTT_OK/GD32VW55X_Wifi_BLE_SDK/GD32VW55x_RELEASE_V1.0.2/MSDK/plf/GD32VW55x_standard_peripheral/Source\gd32vw55x_pmu.c ****     PMU_CS0 |= wakeup_pin;
 593              		.loc 1 238 5
 594              		.loc 1 238 13 is_stmt 0
 595 0000 37770040 		li	a4,1073770496
 596 0004 5C43     		lw	a5,4(a4)
 597 0006 C98F     		or	a5,a5,a0
 598 0008 5CC3     		sw	a5,4(a4)
 239:C:/Users/stapi/OneDrive/Desktop/GD32VW553/V1_MQTT_OK/GD32VW55X_Wifi_BLE_SDK/GD32VW55x_RELEASE_V1.0.2/MSDK/plf/GD32VW55x_standard_peripheral/Source\gd32vw55x_pmu.c **** }
 599              		.loc 1 239 1
 600 000a 8280     		ret
 601              		.cfi_endproc
 602              	.LFE374:
 604              		.section	.text.pmu_wakeup_pin_disable,"ax",@progbits
 605              		.align	1
 606              		.globl	pmu_wakeup_pin_disable
 608              	pmu_wakeup_pin_disable:
 609              	.LFB375:
 240:C:/Users/stapi/OneDrive/Desktop/GD32VW553/V1_MQTT_OK/GD32VW55X_Wifi_BLE_SDK/GD32VW55x_RELEASE_V1.0.2/MSDK/plf/GD32VW55x_standard_peripheral/Source\gd32vw55x_pmu.c **** 
 241:C:/Users/stapi/OneDrive/Desktop/GD32VW553/V1_MQTT_OK/GD32VW55X_Wifi_BLE_SDK/GD32VW55x_RELEASE_V1.0.2/MSDK/plf/GD32VW55x_standard_peripheral/Source\gd32vw55x_pmu.c **** /*!
 242:C:/Users/stapi/OneDrive/Desktop/GD32VW553/V1_MQTT_OK/GD32VW55X_Wifi_BLE_SDK/GD32VW55x_RELEASE_V1.0.2/MSDK/plf/GD32VW55x_standard_peripheral/Source\gd32vw55x_pmu.c ****     \brief      disable wakeup pin
 243:C:/Users/stapi/OneDrive/Desktop/GD32VW553/V1_MQTT_OK/GD32VW55X_Wifi_BLE_SDK/GD32VW55x_RELEASE_V1.0.2/MSDK/plf/GD32VW55x_standard_peripheral/Source\gd32vw55x_pmu.c ****     \param[in]  wakeup_pin:
 244:C:/Users/stapi/OneDrive/Desktop/GD32VW553/V1_MQTT_OK/GD32VW55X_Wifi_BLE_SDK/GD32VW55x_RELEASE_V1.0.2/MSDK/plf/GD32VW55x_standard_peripheral/Source\gd32vw55x_pmu.c ****                 one or more parameters can be selected which are shown as below:
 245:C:/Users/stapi/OneDrive/Desktop/GD32VW553/V1_MQTT_OK/GD32VW55X_Wifi_BLE_SDK/GD32VW55x_RELEASE_V1.0.2/MSDK/plf/GD32VW55x_standard_peripheral/Source\gd32vw55x_pmu.c ****       \arg        PMU_WAKEUP_PIN0: WKUP Pin 0 (PA0)
 246:C:/Users/stapi/OneDrive/Desktop/GD32VW553/V1_MQTT_OK/GD32VW55X_Wifi_BLE_SDK/GD32VW55x_RELEASE_V1.0.2/MSDK/plf/GD32VW55x_standard_peripheral/Source\gd32vw55x_pmu.c ****       \arg        PMU_WAKEUP_PIN1: WKUP Pin 1 (PA15)
 247:C:/Users/stapi/OneDrive/Desktop/GD32VW553/V1_MQTT_OK/GD32VW55X_Wifi_BLE_SDK/GD32VW55x_RELEASE_V1.0.2/MSDK/plf/GD32VW55x_standard_peripheral/Source\gd32vw55x_pmu.c ****       \arg        PMU_WAKEUP_PIN2: WKUP Pin 2 (PA7)
 248:C:/Users/stapi/OneDrive/Desktop/GD32VW553/V1_MQTT_OK/GD32VW55X_Wifi_BLE_SDK/GD32VW55x_RELEASE_V1.0.2/MSDK/plf/GD32VW55x_standard_peripheral/Source\gd32vw55x_pmu.c ****       \arg        PMU_WAKEUP_PIN3: WKUP Pin 3 (PA12)
 249:C:/Users/stapi/OneDrive/Desktop/GD32VW553/V1_MQTT_OK/GD32VW55X_Wifi_BLE_SDK/GD32VW55x_RELEASE_V1.0.2/MSDK/plf/GD32VW55x_standard_peripheral/Source\gd32vw55x_pmu.c ****     \param[out] none
 250:C:/Users/stapi/OneDrive/Desktop/GD32VW553/V1_MQTT_OK/GD32VW55X_Wifi_BLE_SDK/GD32VW55x_RELEASE_V1.0.2/MSDK/plf/GD32VW55x_standard_peripheral/Source\gd32vw55x_pmu.c ****     \retval     none
 251:C:/Users/stapi/OneDrive/Desktop/GD32VW553/V1_MQTT_OK/GD32VW55X_Wifi_BLE_SDK/GD32VW55x_RELEASE_V1.0.2/MSDK/plf/GD32VW55x_standard_peripheral/Source\gd32vw55x_pmu.c **** */
 252:C:/Users/stapi/OneDrive/Desktop/GD32VW553/V1_MQTT_OK/GD32VW55X_Wifi_BLE_SDK/GD32VW55x_RELEASE_V1.0.2/MSDK/plf/GD32VW55x_standard_peripheral/Source\gd32vw55x_pmu.c **** void pmu_wakeup_pin_disable(uint32_t wakeup_pin)
 253:C:/Users/stapi/OneDrive/Desktop/GD32VW553/V1_MQTT_OK/GD32VW55X_Wifi_BLE_SDK/GD32VW55x_RELEASE_V1.0.2/MSDK/plf/GD32VW55x_standard_peripheral/Source\gd32vw55x_pmu.c **** {
 610              		.loc 1 253 1 is_stmt 1
 611              		.cfi_startproc
 612              	.LVL31:
 254:C:/Users/stapi/OneDrive/Desktop/GD32VW553/V1_MQTT_OK/GD32VW55X_Wifi_BLE_SDK/GD32VW55x_RELEASE_V1.0.2/MSDK/plf/GD32VW55x_standard_peripheral/Source\gd32vw55x_pmu.c ****     PMU_CS0 &= ~(wakeup_pin);
 613              		.loc 1 254 5
 614              		.loc 1 254 13 is_stmt 0
 615 0000 B7770040 		li	a5,1073770496
 616 0004 D843     		lw	a4,4(a5)
 617 0006 3375A740 		andn	a0,a4,a0
 618              	.LVL32:
 619 000a C8C3     		sw	a0,4(a5)
 255:C:/Users/stapi/OneDrive/Desktop/GD32VW553/V1_MQTT_OK/GD32VW55X_Wifi_BLE_SDK/GD32VW55x_RELEASE_V1.0.2/MSDK/plf/GD32VW55x_standard_peripheral/Source\gd32vw55x_pmu.c **** }
 620              		.loc 1 255 1
 621 000c 8280     		ret
 622              		.cfi_endproc
 623              	.LFE375:
 625              		.section	.text.pmu_wifi_power_enable,"ax",@progbits
 626              		.align	1
 627              		.globl	pmu_wifi_power_enable
 629              	pmu_wifi_power_enable:
 630              	.LFB376:
 256:C:/Users/stapi/OneDrive/Desktop/GD32VW553/V1_MQTT_OK/GD32VW55X_Wifi_BLE_SDK/GD32VW55x_RELEASE_V1.0.2/MSDK/plf/GD32VW55x_standard_peripheral/Source\gd32vw55x_pmu.c **** 
 257:C:/Users/stapi/OneDrive/Desktop/GD32VW553/V1_MQTT_OK/GD32VW55X_Wifi_BLE_SDK/GD32VW55x_RELEASE_V1.0.2/MSDK/plf/GD32VW55x_standard_peripheral/Source\gd32vw55x_pmu.c **** /*!
 258:C:/Users/stapi/OneDrive/Desktop/GD32VW553/V1_MQTT_OK/GD32VW55X_Wifi_BLE_SDK/GD32VW55x_RELEASE_V1.0.2/MSDK/plf/GD32VW55x_standard_peripheral/Source\gd32vw55x_pmu.c ****     \brief      enable WIFI power
 259:C:/Users/stapi/OneDrive/Desktop/GD32VW553/V1_MQTT_OK/GD32VW55X_Wifi_BLE_SDK/GD32VW55x_RELEASE_V1.0.2/MSDK/plf/GD32VW55x_standard_peripheral/Source\gd32vw55x_pmu.c ****     \param[in]  none
 260:C:/Users/stapi/OneDrive/Desktop/GD32VW553/V1_MQTT_OK/GD32VW55X_Wifi_BLE_SDK/GD32VW55x_RELEASE_V1.0.2/MSDK/plf/GD32VW55x_standard_peripheral/Source\gd32vw55x_pmu.c ****     \param[out] none
 261:C:/Users/stapi/OneDrive/Desktop/GD32VW553/V1_MQTT_OK/GD32VW55X_Wifi_BLE_SDK/GD32VW55x_RELEASE_V1.0.2/MSDK/plf/GD32VW55x_standard_peripheral/Source\gd32vw55x_pmu.c ****     \retval     none
 262:C:/Users/stapi/OneDrive/Desktop/GD32VW553/V1_MQTT_OK/GD32VW55X_Wifi_BLE_SDK/GD32VW55x_RELEASE_V1.0.2/MSDK/plf/GD32VW55x_standard_peripheral/Source\gd32vw55x_pmu.c **** */
 263:C:/Users/stapi/OneDrive/Desktop/GD32VW553/V1_MQTT_OK/GD32VW55X_Wifi_BLE_SDK/GD32VW55x_RELEASE_V1.0.2/MSDK/plf/GD32VW55x_standard_peripheral/Source\gd32vw55x_pmu.c **** void pmu_wifi_power_enable(void)
 264:C:/Users/stapi/OneDrive/Desktop/GD32VW553/V1_MQTT_OK/GD32VW55X_Wifi_BLE_SDK/GD32VW55x_RELEASE_V1.0.2/MSDK/plf/GD32VW55x_standard_peripheral/Source\gd32vw55x_pmu.c **** {
 631              		.loc 1 264 1 is_stmt 1
 632              		.cfi_startproc
 265:C:/Users/stapi/OneDrive/Desktop/GD32VW553/V1_MQTT_OK/GD32VW55X_Wifi_BLE_SDK/GD32VW55x_RELEASE_V1.0.2/MSDK/plf/GD32VW55x_standard_peripheral/Source\gd32vw55x_pmu.c ****     PMU_CTL1 |= PMU_CTL1_WPEN;
 633              		.loc 1 265 5
 634              		.loc 1 265 14 is_stmt 0
 635 0000 37770040 		li	a4,1073770496
 636 0004 1C47     		lw	a5,8(a4)
 637 0006 93E72700 		ori	a5,a5,2
 638 000a 1CC7     		sw	a5,8(a4)
 266:C:/Users/stapi/OneDrive/Desktop/GD32VW553/V1_MQTT_OK/GD32VW55X_Wifi_BLE_SDK/GD32VW55x_RELEASE_V1.0.2/MSDK/plf/GD32VW55x_standard_peripheral/Source\gd32vw55x_pmu.c **** }
 639              		.loc 1 266 1
 640 000c 8280     		ret
 641              		.cfi_endproc
 642              	.LFE376:
 644              		.section	.text.pmu_wifi_power_disable,"ax",@progbits
 645              		.align	1
 646              		.globl	pmu_wifi_power_disable
 648              	pmu_wifi_power_disable:
 649              	.LFB377:
 267:C:/Users/stapi/OneDrive/Desktop/GD32VW553/V1_MQTT_OK/GD32VW55X_Wifi_BLE_SDK/GD32VW55x_RELEASE_V1.0.2/MSDK/plf/GD32VW55x_standard_peripheral/Source\gd32vw55x_pmu.c **** 
 268:C:/Users/stapi/OneDrive/Desktop/GD32VW553/V1_MQTT_OK/GD32VW55X_Wifi_BLE_SDK/GD32VW55x_RELEASE_V1.0.2/MSDK/plf/GD32VW55x_standard_peripheral/Source\gd32vw55x_pmu.c **** /*!
 269:C:/Users/stapi/OneDrive/Desktop/GD32VW553/V1_MQTT_OK/GD32VW55X_Wifi_BLE_SDK/GD32VW55x_RELEASE_V1.0.2/MSDK/plf/GD32VW55x_standard_peripheral/Source\gd32vw55x_pmu.c ****     \brief      disable WIFI power
 270:C:/Users/stapi/OneDrive/Desktop/GD32VW553/V1_MQTT_OK/GD32VW55X_Wifi_BLE_SDK/GD32VW55x_RELEASE_V1.0.2/MSDK/plf/GD32VW55x_standard_peripheral/Source\gd32vw55x_pmu.c ****     \param[in]  none
 271:C:/Users/stapi/OneDrive/Desktop/GD32VW553/V1_MQTT_OK/GD32VW55X_Wifi_BLE_SDK/GD32VW55x_RELEASE_V1.0.2/MSDK/plf/GD32VW55x_standard_peripheral/Source\gd32vw55x_pmu.c ****     \param[out] none
 272:C:/Users/stapi/OneDrive/Desktop/GD32VW553/V1_MQTT_OK/GD32VW55X_Wifi_BLE_SDK/GD32VW55x_RELEASE_V1.0.2/MSDK/plf/GD32VW55x_standard_peripheral/Source\gd32vw55x_pmu.c ****     \retval     none
 273:C:/Users/stapi/OneDrive/Desktop/GD32VW553/V1_MQTT_OK/GD32VW55X_Wifi_BLE_SDK/GD32VW55x_RELEASE_V1.0.2/MSDK/plf/GD32VW55x_standard_peripheral/Source\gd32vw55x_pmu.c **** */
 274:C:/Users/stapi/OneDrive/Desktop/GD32VW553/V1_MQTT_OK/GD32VW55X_Wifi_BLE_SDK/GD32VW55x_RELEASE_V1.0.2/MSDK/plf/GD32VW55x_standard_peripheral/Source\gd32vw55x_pmu.c **** void pmu_wifi_power_disable(void)
 275:C:/Users/stapi/OneDrive/Desktop/GD32VW553/V1_MQTT_OK/GD32VW55X_Wifi_BLE_SDK/GD32VW55x_RELEASE_V1.0.2/MSDK/plf/GD32VW55x_standard_peripheral/Source\gd32vw55x_pmu.c **** {
 650              		.loc 1 275 1 is_stmt 1
 651              		.cfi_startproc
 276:C:/Users/stapi/OneDrive/Desktop/GD32VW553/V1_MQTT_OK/GD32VW55X_Wifi_BLE_SDK/GD32VW55x_RELEASE_V1.0.2/MSDK/plf/GD32VW55x_standard_peripheral/Source\gd32vw55x_pmu.c ****     PMU_CTL1 &= ~PMU_CTL1_WPEN;
 652              		.loc 1 276 5
 653              		.loc 1 276 14 is_stmt 0
 654 0000 37770040 		li	a4,1073770496
 655 0004 1C47     		lw	a5,8(a4)
 656 0006 F59B     		andi	a5,a5,-3
 657 0008 1CC7     		sw	a5,8(a4)
 277:C:/Users/stapi/OneDrive/Desktop/GD32VW553/V1_MQTT_OK/GD32VW55X_Wifi_BLE_SDK/GD32VW55x_RELEASE_V1.0.2/MSDK/plf/GD32VW55x_standard_peripheral/Source\gd32vw55x_pmu.c **** }
 658              		.loc 1 277 1
 659 000a 8280     		ret
 660              		.cfi_endproc
 661              	.LFE377:
 663              		.section	.text.pmu_wifi_sram_control,"ax",@progbits
 664              		.align	1
 665              		.globl	pmu_wifi_sram_control
 667              	pmu_wifi_sram_control:
 668              	.LFB378:
 278:C:/Users/stapi/OneDrive/Desktop/GD32VW553/V1_MQTT_OK/GD32VW55X_Wifi_BLE_SDK/GD32VW55x_RELEASE_V1.0.2/MSDK/plf/GD32VW55x_standard_peripheral/Source\gd32vw55x_pmu.c **** 
 279:C:/Users/stapi/OneDrive/Desktop/GD32VW553/V1_MQTT_OK/GD32VW55X_Wifi_BLE_SDK/GD32VW55x_RELEASE_V1.0.2/MSDK/plf/GD32VW55x_standard_peripheral/Source\gd32vw55x_pmu.c **** /*!
 280:C:/Users/stapi/OneDrive/Desktop/GD32VW553/V1_MQTT_OK/GD32VW55X_Wifi_BLE_SDK/GD32VW55x_RELEASE_V1.0.2/MSDK/plf/GD32VW55x_standard_peripheral/Source\gd32vw55x_pmu.c ****     \brief      WIFI & SRAM low power control
 281:C:/Users/stapi/OneDrive/Desktop/GD32VW553/V1_MQTT_OK/GD32VW55X_Wifi_BLE_SDK/GD32VW55x_RELEASE_V1.0.2/MSDK/plf/GD32VW55x_standard_peripheral/Source\gd32vw55x_pmu.c ****     \param[in]  wifi_sram:
 282:C:/Users/stapi/OneDrive/Desktop/GD32VW553/V1_MQTT_OK/GD32VW55X_Wifi_BLE_SDK/GD32VW55x_RELEASE_V1.0.2/MSDK/plf/GD32VW55x_standard_peripheral/Source\gd32vw55x_pmu.c ****                 one or more parameters can be selected which are shown as below:
 283:C:/Users/stapi/OneDrive/Desktop/GD32VW553/V1_MQTT_OK/GD32VW55X_Wifi_BLE_SDK/GD32VW55x_RELEASE_V1.0.2/MSDK/plf/GD32VW55x_standard_peripheral/Source\gd32vw55x_pmu.c ****       \arg        PMU_WIFI_SLEEP: WIFI go to sleep
 284:C:/Users/stapi/OneDrive/Desktop/GD32VW553/V1_MQTT_OK/GD32VW55X_Wifi_BLE_SDK/GD32VW55x_RELEASE_V1.0.2/MSDK/plf/GD32VW55x_standard_peripheral/Source\gd32vw55x_pmu.c ****       \arg        PMU_WIFI_WAKE: WIFI wakeup
 285:C:/Users/stapi/OneDrive/Desktop/GD32VW553/V1_MQTT_OK/GD32VW55X_Wifi_BLE_SDK/GD32VW55x_RELEASE_V1.0.2/MSDK/plf/GD32VW55x_standard_peripheral/Source\gd32vw55x_pmu.c ****       \arg        PMU_SRAM1_SLEEP: SRAM1 go to sleep
 286:C:/Users/stapi/OneDrive/Desktop/GD32VW553/V1_MQTT_OK/GD32VW55X_Wifi_BLE_SDK/GD32VW55x_RELEASE_V1.0.2/MSDK/plf/GD32VW55x_standard_peripheral/Source\gd32vw55x_pmu.c ****       \arg        PMU_SRAM1_WAKE: SRAM1 wakeup
 287:C:/Users/stapi/OneDrive/Desktop/GD32VW553/V1_MQTT_OK/GD32VW55X_Wifi_BLE_SDK/GD32VW55x_RELEASE_V1.0.2/MSDK/plf/GD32VW55x_standard_peripheral/Source\gd32vw55x_pmu.c ****       \arg        PMU_SRAM2_SLEEP: SRAM2 go to sleep
 288:C:/Users/stapi/OneDrive/Desktop/GD32VW553/V1_MQTT_OK/GD32VW55X_Wifi_BLE_SDK/GD32VW55x_RELEASE_V1.0.2/MSDK/plf/GD32VW55x_standard_peripheral/Source\gd32vw55x_pmu.c ****       \arg        PMU_SRAM2_WAKE: SRAM2 wakeup
 289:C:/Users/stapi/OneDrive/Desktop/GD32VW553/V1_MQTT_OK/GD32VW55X_Wifi_BLE_SDK/GD32VW55x_RELEASE_V1.0.2/MSDK/plf/GD32VW55x_standard_peripheral/Source\gd32vw55x_pmu.c ****       \arg        PMU_SRAM3_SLEEP: SRAM3 go to sleep
 290:C:/Users/stapi/OneDrive/Desktop/GD32VW553/V1_MQTT_OK/GD32VW55X_Wifi_BLE_SDK/GD32VW55x_RELEASE_V1.0.2/MSDK/plf/GD32VW55x_standard_peripheral/Source\gd32vw55x_pmu.c ****       \arg        PMU_SRAM3_WAKE: SRAM3 wakeup
 291:C:/Users/stapi/OneDrive/Desktop/GD32VW553/V1_MQTT_OK/GD32VW55X_Wifi_BLE_SDK/GD32VW55x_RELEASE_V1.0.2/MSDK/plf/GD32VW55x_standard_peripheral/Source\gd32vw55x_pmu.c ****       \arg        PMU_SRAM0_SLEEP: SRAM0 go to sleep
 292:C:/Users/stapi/OneDrive/Desktop/GD32VW553/V1_MQTT_OK/GD32VW55X_Wifi_BLE_SDK/GD32VW55x_RELEASE_V1.0.2/MSDK/plf/GD32VW55x_standard_peripheral/Source\gd32vw55x_pmu.c ****       \arg        PMU_SRAM0_WAKE: SRAM0 wakeup
 293:C:/Users/stapi/OneDrive/Desktop/GD32VW553/V1_MQTT_OK/GD32VW55X_Wifi_BLE_SDK/GD32VW55x_RELEASE_V1.0.2/MSDK/plf/GD32VW55x_standard_peripheral/Source\gd32vw55x_pmu.c ****     \param[out] none
 294:C:/Users/stapi/OneDrive/Desktop/GD32VW553/V1_MQTT_OK/GD32VW55X_Wifi_BLE_SDK/GD32VW55x_RELEASE_V1.0.2/MSDK/plf/GD32VW55x_standard_peripheral/Source\gd32vw55x_pmu.c ****     \retval     none
 295:C:/Users/stapi/OneDrive/Desktop/GD32VW553/V1_MQTT_OK/GD32VW55X_Wifi_BLE_SDK/GD32VW55x_RELEASE_V1.0.2/MSDK/plf/GD32VW55x_standard_peripheral/Source\gd32vw55x_pmu.c **** */
 296:C:/Users/stapi/OneDrive/Desktop/GD32VW553/V1_MQTT_OK/GD32VW55X_Wifi_BLE_SDK/GD32VW55x_RELEASE_V1.0.2/MSDK/plf/GD32VW55x_standard_peripheral/Source\gd32vw55x_pmu.c **** void pmu_wifi_sram_control(uint32_t wifi_sram)
 297:C:/Users/stapi/OneDrive/Desktop/GD32VW553/V1_MQTT_OK/GD32VW55X_Wifi_BLE_SDK/GD32VW55x_RELEASE_V1.0.2/MSDK/plf/GD32VW55x_standard_peripheral/Source\gd32vw55x_pmu.c **** {
 669              		.loc 1 297 1 is_stmt 1
 670              		.cfi_startproc
 671              	.LVL33:
 298:C:/Users/stapi/OneDrive/Desktop/GD32VW553/V1_MQTT_OK/GD32VW55X_Wifi_BLE_SDK/GD32VW55x_RELEASE_V1.0.2/MSDK/plf/GD32VW55x_standard_peripheral/Source\gd32vw55x_pmu.c ****     PMU_CTL1 |= wifi_sram;
 672              		.loc 1 298 5
 673              		.loc 1 298 14 is_stmt 0
 674 0000 37770040 		li	a4,1073770496
 675 0004 1C47     		lw	a5,8(a4)
 676 0006 C98F     		or	a5,a5,a0
 677 0008 1CC7     		sw	a5,8(a4)
 299:C:/Users/stapi/OneDrive/Desktop/GD32VW553/V1_MQTT_OK/GD32VW55X_Wifi_BLE_SDK/GD32VW55x_RELEASE_V1.0.2/MSDK/plf/GD32VW55x_standard_peripheral/Source\gd32vw55x_pmu.c **** }
 678              		.loc 1 299 1
 679 000a 8280     		ret
 680              		.cfi_endproc
 681              	.LFE378:
 683              		.section	.text.pmu_ble_control,"ax",@progbits
 684              		.align	1
 685              		.globl	pmu_ble_control
 687              	pmu_ble_control:
 688              	.LFB395:
 689              		.cfi_startproc
 690 0000 17030000 		tail	pmu_wifi_sram_control
 690      67000300 
 691              		.cfi_endproc
 692              	.LFE395:
 694              		.section	.text.pmu_ble_wakeup_request_enable,"ax",@progbits
 695              		.align	1
 696              		.globl	pmu_ble_wakeup_request_enable
 698              	pmu_ble_wakeup_request_enable:
 699              	.LFB380:
 300:C:/Users/stapi/OneDrive/Desktop/GD32VW553/V1_MQTT_OK/GD32VW55X_Wifi_BLE_SDK/GD32VW55x_RELEASE_V1.0.2/MSDK/plf/GD32VW55x_standard_peripheral/Source\gd32vw55x_pmu.c **** 
 301:C:/Users/stapi/OneDrive/Desktop/GD32VW553/V1_MQTT_OK/GD32VW55X_Wifi_BLE_SDK/GD32VW55x_RELEASE_V1.0.2/MSDK/plf/GD32VW55x_standard_peripheral/Source\gd32vw55x_pmu.c **** /*!
 302:C:/Users/stapi/OneDrive/Desktop/GD32VW553/V1_MQTT_OK/GD32VW55X_Wifi_BLE_SDK/GD32VW55x_RELEASE_V1.0.2/MSDK/plf/GD32VW55x_standard_peripheral/Source\gd32vw55x_pmu.c ****     \brief      BLE low power control
 303:C:/Users/stapi/OneDrive/Desktop/GD32VW553/V1_MQTT_OK/GD32VW55X_Wifi_BLE_SDK/GD32VW55x_RELEASE_V1.0.2/MSDK/plf/GD32VW55x_standard_peripheral/Source\gd32vw55x_pmu.c ****     \param[in]  ble:
 304:C:/Users/stapi/OneDrive/Desktop/GD32VW553/V1_MQTT_OK/GD32VW55X_Wifi_BLE_SDK/GD32VW55x_RELEASE_V1.0.2/MSDK/plf/GD32VW55x_standard_peripheral/Source\gd32vw55x_pmu.c ****                 one or more parameters can be selected which are shown as below:
 305:C:/Users/stapi/OneDrive/Desktop/GD32VW553/V1_MQTT_OK/GD32VW55X_Wifi_BLE_SDK/GD32VW55x_RELEASE_V1.0.2/MSDK/plf/GD32VW55x_standard_peripheral/Source\gd32vw55x_pmu.c ****       \arg        PMU_BLE_SLEEP: BLE go to sleep
 306:C:/Users/stapi/OneDrive/Desktop/GD32VW553/V1_MQTT_OK/GD32VW55X_Wifi_BLE_SDK/GD32VW55x_RELEASE_V1.0.2/MSDK/plf/GD32VW55x_standard_peripheral/Source\gd32vw55x_pmu.c ****       \arg        PMU_BLE_WAKE: BLE wakeup
 307:C:/Users/stapi/OneDrive/Desktop/GD32VW553/V1_MQTT_OK/GD32VW55X_Wifi_BLE_SDK/GD32VW55x_RELEASE_V1.0.2/MSDK/plf/GD32VW55x_standard_peripheral/Source\gd32vw55x_pmu.c ****     \param[out] none
 308:C:/Users/stapi/OneDrive/Desktop/GD32VW553/V1_MQTT_OK/GD32VW55X_Wifi_BLE_SDK/GD32VW55x_RELEASE_V1.0.2/MSDK/plf/GD32VW55x_standard_peripheral/Source\gd32vw55x_pmu.c ****     \retval     none
 309:C:/Users/stapi/OneDrive/Desktop/GD32VW553/V1_MQTT_OK/GD32VW55X_Wifi_BLE_SDK/GD32VW55x_RELEASE_V1.0.2/MSDK/plf/GD32VW55x_standard_peripheral/Source\gd32vw55x_pmu.c **** */
 310:C:/Users/stapi/OneDrive/Desktop/GD32VW553/V1_MQTT_OK/GD32VW55X_Wifi_BLE_SDK/GD32VW55x_RELEASE_V1.0.2/MSDK/plf/GD32VW55x_standard_peripheral/Source\gd32vw55x_pmu.c **** void pmu_ble_control(uint32_t ble)
 311:C:/Users/stapi/OneDrive/Desktop/GD32VW553/V1_MQTT_OK/GD32VW55X_Wifi_BLE_SDK/GD32VW55x_RELEASE_V1.0.2/MSDK/plf/GD32VW55x_standard_peripheral/Source\gd32vw55x_pmu.c **** {
 312:C:/Users/stapi/OneDrive/Desktop/GD32VW553/V1_MQTT_OK/GD32VW55X_Wifi_BLE_SDK/GD32VW55x_RELEASE_V1.0.2/MSDK/plf/GD32VW55x_standard_peripheral/Source\gd32vw55x_pmu.c ****     PMU_CTL1 |= ble;
 313:C:/Users/stapi/OneDrive/Desktop/GD32VW553/V1_MQTT_OK/GD32VW55X_Wifi_BLE_SDK/GD32VW55x_RELEASE_V1.0.2/MSDK/plf/GD32VW55x_standard_peripheral/Source\gd32vw55x_pmu.c **** }
 314:C:/Users/stapi/OneDrive/Desktop/GD32VW553/V1_MQTT_OK/GD32VW55X_Wifi_BLE_SDK/GD32VW55x_RELEASE_V1.0.2/MSDK/plf/GD32VW55x_standard_peripheral/Source\gd32vw55x_pmu.c **** 
 315:C:/Users/stapi/OneDrive/Desktop/GD32VW553/V1_MQTT_OK/GD32VW55X_Wifi_BLE_SDK/GD32VW55x_RELEASE_V1.0.2/MSDK/plf/GD32VW55x_standard_peripheral/Source\gd32vw55x_pmu.c **** /*!
 316:C:/Users/stapi/OneDrive/Desktop/GD32VW553/V1_MQTT_OK/GD32VW55X_Wifi_BLE_SDK/GD32VW55x_RELEASE_V1.0.2/MSDK/plf/GD32VW55x_standard_peripheral/Source\gd32vw55x_pmu.c ****     \brief      enable BLE wakeup request
 317:C:/Users/stapi/OneDrive/Desktop/GD32VW553/V1_MQTT_OK/GD32VW55X_Wifi_BLE_SDK/GD32VW55x_RELEASE_V1.0.2/MSDK/plf/GD32VW55x_standard_peripheral/Source\gd32vw55x_pmu.c ****     \param[in]  none
 318:C:/Users/stapi/OneDrive/Desktop/GD32VW553/V1_MQTT_OK/GD32VW55X_Wifi_BLE_SDK/GD32VW55x_RELEASE_V1.0.2/MSDK/plf/GD32VW55x_standard_peripheral/Source\gd32vw55x_pmu.c ****     \param[out] none
 319:C:/Users/stapi/OneDrive/Desktop/GD32VW553/V1_MQTT_OK/GD32VW55X_Wifi_BLE_SDK/GD32VW55x_RELEASE_V1.0.2/MSDK/plf/GD32VW55x_standard_peripheral/Source\gd32vw55x_pmu.c ****     \retval     none
 320:C:/Users/stapi/OneDrive/Desktop/GD32VW553/V1_MQTT_OK/GD32VW55X_Wifi_BLE_SDK/GD32VW55x_RELEASE_V1.0.2/MSDK/plf/GD32VW55x_standard_peripheral/Source\gd32vw55x_pmu.c **** */
 321:C:/Users/stapi/OneDrive/Desktop/GD32VW553/V1_MQTT_OK/GD32VW55X_Wifi_BLE_SDK/GD32VW55x_RELEASE_V1.0.2/MSDK/plf/GD32VW55x_standard_peripheral/Source\gd32vw55x_pmu.c **** void pmu_ble_wakeup_request_enable(void)
 322:C:/Users/stapi/OneDrive/Desktop/GD32VW553/V1_MQTT_OK/GD32VW55X_Wifi_BLE_SDK/GD32VW55x_RELEASE_V1.0.2/MSDK/plf/GD32VW55x_standard_peripheral/Source\gd32vw55x_pmu.c **** {
 700              		.loc 1 322 1 is_stmt 1
 701              		.cfi_startproc
 323:C:/Users/stapi/OneDrive/Desktop/GD32VW553/V1_MQTT_OK/GD32VW55X_Wifi_BLE_SDK/GD32VW55x_RELEASE_V1.0.2/MSDK/plf/GD32VW55x_standard_peripheral/Source\gd32vw55x_pmu.c ****     PMU_CTL1 |= PMU_CTL1_BLE_WAKEUP_REQ;
 702              		.loc 1 323 5
 703              		.loc 1 323 14 is_stmt 0
 704 0000 37770040 		li	a4,1073770496
 705 0004 1C47     		lw	a5,8(a4)
 706 0006 93979729 		bseti	a5,a5,25
 707 000a 1CC7     		sw	a5,8(a4)
 324:C:/Users/stapi/OneDrive/Desktop/GD32VW553/V1_MQTT_OK/GD32VW55X_Wifi_BLE_SDK/GD32VW55x_RELEASE_V1.0.2/MSDK/plf/GD32VW55x_standard_peripheral/Source\gd32vw55x_pmu.c **** }
 708              		.loc 1 324 1
 709 000c 8280     		ret
 710              		.cfi_endproc
 711              	.LFE380:
 713              		.section	.text.pmu_ble_wakeup_request_disable,"ax",@progbits
 714              		.align	1
 715              		.globl	pmu_ble_wakeup_request_disable
 717              	pmu_ble_wakeup_request_disable:
 718              	.LFB381:
 325:C:/Users/stapi/OneDrive/Desktop/GD32VW553/V1_MQTT_OK/GD32VW55X_Wifi_BLE_SDK/GD32VW55x_RELEASE_V1.0.2/MSDK/plf/GD32VW55x_standard_peripheral/Source\gd32vw55x_pmu.c **** 
 326:C:/Users/stapi/OneDrive/Desktop/GD32VW553/V1_MQTT_OK/GD32VW55X_Wifi_BLE_SDK/GD32VW55x_RELEASE_V1.0.2/MSDK/plf/GD32VW55x_standard_peripheral/Source\gd32vw55x_pmu.c **** /*!
 327:C:/Users/stapi/OneDrive/Desktop/GD32VW553/V1_MQTT_OK/GD32VW55X_Wifi_BLE_SDK/GD32VW55x_RELEASE_V1.0.2/MSDK/plf/GD32VW55x_standard_peripheral/Source\gd32vw55x_pmu.c ****     \brief      disable ble wakeup request
 328:C:/Users/stapi/OneDrive/Desktop/GD32VW553/V1_MQTT_OK/GD32VW55X_Wifi_BLE_SDK/GD32VW55x_RELEASE_V1.0.2/MSDK/plf/GD32VW55x_standard_peripheral/Source\gd32vw55x_pmu.c ****     \param[in]  none
 329:C:/Users/stapi/OneDrive/Desktop/GD32VW553/V1_MQTT_OK/GD32VW55X_Wifi_BLE_SDK/GD32VW55x_RELEASE_V1.0.2/MSDK/plf/GD32VW55x_standard_peripheral/Source\gd32vw55x_pmu.c ****     \param[out] none
 330:C:/Users/stapi/OneDrive/Desktop/GD32VW553/V1_MQTT_OK/GD32VW55X_Wifi_BLE_SDK/GD32VW55x_RELEASE_V1.0.2/MSDK/plf/GD32VW55x_standard_peripheral/Source\gd32vw55x_pmu.c ****     \retval     none
 331:C:/Users/stapi/OneDrive/Desktop/GD32VW553/V1_MQTT_OK/GD32VW55X_Wifi_BLE_SDK/GD32VW55x_RELEASE_V1.0.2/MSDK/plf/GD32VW55x_standard_peripheral/Source\gd32vw55x_pmu.c **** */
 332:C:/Users/stapi/OneDrive/Desktop/GD32VW553/V1_MQTT_OK/GD32VW55X_Wifi_BLE_SDK/GD32VW55x_RELEASE_V1.0.2/MSDK/plf/GD32VW55x_standard_peripheral/Source\gd32vw55x_pmu.c **** void pmu_ble_wakeup_request_disable(void)
 333:C:/Users/stapi/OneDrive/Desktop/GD32VW553/V1_MQTT_OK/GD32VW55X_Wifi_BLE_SDK/GD32VW55x_RELEASE_V1.0.2/MSDK/plf/GD32VW55x_standard_peripheral/Source\gd32vw55x_pmu.c **** {
 719              		.loc 1 333 1 is_stmt 1
 720              		.cfi_startproc
 334:C:/Users/stapi/OneDrive/Desktop/GD32VW553/V1_MQTT_OK/GD32VW55X_Wifi_BLE_SDK/GD32VW55x_RELEASE_V1.0.2/MSDK/plf/GD32VW55x_standard_peripheral/Source\gd32vw55x_pmu.c ****     PMU_CTL1 &= ~PMU_CTL1_BLE_WAKEUP_REQ;
 721              		.loc 1 334 5
 722              		.loc 1 334 14 is_stmt 0
 723 0000 37770040 		li	a4,1073770496
 724 0004 1C47     		lw	a5,8(a4)
 725 0006 93979749 		bclri	a5,a5,25
 726 000a 1CC7     		sw	a5,8(a4)
 335:C:/Users/stapi/OneDrive/Desktop/GD32VW553/V1_MQTT_OK/GD32VW55X_Wifi_BLE_SDK/GD32VW55x_RELEASE_V1.0.2/MSDK/plf/GD32VW55x_standard_peripheral/Source\gd32vw55x_pmu.c **** }
 727              		.loc 1 335 1
 728 000c 8280     		ret
 729              		.cfi_endproc
 730              	.LFE381:
 732              		.section	.text.pmu_pll_force_enable,"ax",@progbits
 733              		.align	1
 734              		.globl	pmu_pll_force_enable
 736              	pmu_pll_force_enable:
 737              	.LFB382:
 336:C:/Users/stapi/OneDrive/Desktop/GD32VW553/V1_MQTT_OK/GD32VW55X_Wifi_BLE_SDK/GD32VW55x_RELEASE_V1.0.2/MSDK/plf/GD32VW55x_standard_peripheral/Source\gd32vw55x_pmu.c **** 
 337:C:/Users/stapi/OneDrive/Desktop/GD32VW553/V1_MQTT_OK/GD32VW55X_Wifi_BLE_SDK/GD32VW55x_RELEASE_V1.0.2/MSDK/plf/GD32VW55x_standard_peripheral/Source\gd32vw55x_pmu.c **** /*!
 338:C:/Users/stapi/OneDrive/Desktop/GD32VW553/V1_MQTT_OK/GD32VW55X_Wifi_BLE_SDK/GD32VW55x_RELEASE_V1.0.2/MSDK/plf/GD32VW55x_standard_peripheral/Source\gd32vw55x_pmu.c ****     \brief      enable MCU PLL power force open/close
 339:C:/Users/stapi/OneDrive/Desktop/GD32VW553/V1_MQTT_OK/GD32VW55X_Wifi_BLE_SDK/GD32VW55x_RELEASE_V1.0.2/MSDK/plf/GD32VW55x_standard_peripheral/Source\gd32vw55x_pmu.c ****     \param[in]  force:
 340:C:/Users/stapi/OneDrive/Desktop/GD32VW553/V1_MQTT_OK/GD32VW55X_Wifi_BLE_SDK/GD32VW55x_RELEASE_V1.0.2/MSDK/plf/GD32VW55x_standard_peripheral/Source\gd32vw55x_pmu.c ****                 only one parameter can be selected which is shown as below:
 341:C:/Users/stapi/OneDrive/Desktop/GD32VW553/V1_MQTT_OK/GD32VW55X_Wifi_BLE_SDK/GD32VW55x_RELEASE_V1.0.2/MSDK/plf/GD32VW55x_standard_peripheral/Source\gd32vw55x_pmu.c ****       \arg        PMU_PLL_FORCE_OPEN: Software force open, open MCU PLL power
 342:C:/Users/stapi/OneDrive/Desktop/GD32VW553/V1_MQTT_OK/GD32VW55X_Wifi_BLE_SDK/GD32VW55x_RELEASE_V1.0.2/MSDK/plf/GD32VW55x_standard_peripheral/Source\gd32vw55x_pmu.c ****       \arg        PMU_PLL_FORCE_CLOSE: Software force close, close MCU PLL power
 343:C:/Users/stapi/OneDrive/Desktop/GD32VW553/V1_MQTT_OK/GD32VW55X_Wifi_BLE_SDK/GD32VW55x_RELEASE_V1.0.2/MSDK/plf/GD32VW55x_standard_peripheral/Source\gd32vw55x_pmu.c ****     \param[out] none
 344:C:/Users/stapi/OneDrive/Desktop/GD32VW553/V1_MQTT_OK/GD32VW55X_Wifi_BLE_SDK/GD32VW55x_RELEASE_V1.0.2/MSDK/plf/GD32VW55x_standard_peripheral/Source\gd32vw55x_pmu.c ****     \retval     none
 345:C:/Users/stapi/OneDrive/Desktop/GD32VW553/V1_MQTT_OK/GD32VW55X_Wifi_BLE_SDK/GD32VW55x_RELEASE_V1.0.2/MSDK/plf/GD32VW55x_standard_peripheral/Source\gd32vw55x_pmu.c **** */
 346:C:/Users/stapi/OneDrive/Desktop/GD32VW553/V1_MQTT_OK/GD32VW55X_Wifi_BLE_SDK/GD32VW55x_RELEASE_V1.0.2/MSDK/plf/GD32VW55x_standard_peripheral/Source\gd32vw55x_pmu.c **** void pmu_pll_force_enable(uint32_t force)
 347:C:/Users/stapi/OneDrive/Desktop/GD32VW553/V1_MQTT_OK/GD32VW55X_Wifi_BLE_SDK/GD32VW55x_RELEASE_V1.0.2/MSDK/plf/GD32VW55x_standard_peripheral/Source\gd32vw55x_pmu.c **** {
 738              		.loc 1 347 1 is_stmt 1
 739              		.cfi_startproc
 740              	.LVL34:
 348:C:/Users/stapi/OneDrive/Desktop/GD32VW553/V1_MQTT_OK/GD32VW55X_Wifi_BLE_SDK/GD32VW55x_RELEASE_V1.0.2/MSDK/plf/GD32VW55x_standard_peripheral/Source\gd32vw55x_pmu.c ****     PMU_RFCTL |= force;
 741              		.loc 1 348 5
 742              		.loc 1 348 15 is_stmt 0
 743 0000 37770040 		li	a4,1073770496
 744 0004 1C53     		lw	a5,32(a4)
 745 0006 C98F     		or	a5,a5,a0
 746 0008 1CD3     		sw	a5,32(a4)
 349:C:/Users/stapi/OneDrive/Desktop/GD32VW553/V1_MQTT_OK/GD32VW55X_Wifi_BLE_SDK/GD32VW55x_RELEASE_V1.0.2/MSDK/plf/GD32VW55x_standard_peripheral/Source\gd32vw55x_pmu.c **** }
 747              		.loc 1 349 1
 748 000a 8280     		ret
 749              		.cfi_endproc
 750              	.LFE382:
 752              		.section	.text.pmu_pll_force_disable,"ax",@progbits
 753              		.align	1
 754              		.globl	pmu_pll_force_disable
 756              	pmu_pll_force_disable:
 757              	.LFB383:
 350:C:/Users/stapi/OneDrive/Desktop/GD32VW553/V1_MQTT_OK/GD32VW55X_Wifi_BLE_SDK/GD32VW55x_RELEASE_V1.0.2/MSDK/plf/GD32VW55x_standard_peripheral/Source\gd32vw55x_pmu.c **** 
 351:C:/Users/stapi/OneDrive/Desktop/GD32VW553/V1_MQTT_OK/GD32VW55X_Wifi_BLE_SDK/GD32VW55x_RELEASE_V1.0.2/MSDK/plf/GD32VW55x_standard_peripheral/Source\gd32vw55x_pmu.c **** /*!
 352:C:/Users/stapi/OneDrive/Desktop/GD32VW553/V1_MQTT_OK/GD32VW55X_Wifi_BLE_SDK/GD32VW55x_RELEASE_V1.0.2/MSDK/plf/GD32VW55x_standard_peripheral/Source\gd32vw55x_pmu.c ****     \brief      disable MCU PLL power open/close force
 353:C:/Users/stapi/OneDrive/Desktop/GD32VW553/V1_MQTT_OK/GD32VW55X_Wifi_BLE_SDK/GD32VW55x_RELEASE_V1.0.2/MSDK/plf/GD32VW55x_standard_peripheral/Source\gd32vw55x_pmu.c ****     \param[in]  force:
 354:C:/Users/stapi/OneDrive/Desktop/GD32VW553/V1_MQTT_OK/GD32VW55X_Wifi_BLE_SDK/GD32VW55x_RELEASE_V1.0.2/MSDK/plf/GD32VW55x_standard_peripheral/Source\gd32vw55x_pmu.c ****                 only one parameter can be selected which is shown as below:
 355:C:/Users/stapi/OneDrive/Desktop/GD32VW553/V1_MQTT_OK/GD32VW55X_Wifi_BLE_SDK/GD32VW55x_RELEASE_V1.0.2/MSDK/plf/GD32VW55x_standard_peripheral/Source\gd32vw55x_pmu.c ****       \arg        PMU_PLL_FORCE_OPEN: Software force open, open MCU PLL power
 356:C:/Users/stapi/OneDrive/Desktop/GD32VW553/V1_MQTT_OK/GD32VW55X_Wifi_BLE_SDK/GD32VW55x_RELEASE_V1.0.2/MSDK/plf/GD32VW55x_standard_peripheral/Source\gd32vw55x_pmu.c ****       \arg        PMU_PLL_FORCE_CLOSE: Software force close, close MCU PLL power
 357:C:/Users/stapi/OneDrive/Desktop/GD32VW553/V1_MQTT_OK/GD32VW55X_Wifi_BLE_SDK/GD32VW55x_RELEASE_V1.0.2/MSDK/plf/GD32VW55x_standard_peripheral/Source\gd32vw55x_pmu.c ****     \param[out] none
 358:C:/Users/stapi/OneDrive/Desktop/GD32VW553/V1_MQTT_OK/GD32VW55X_Wifi_BLE_SDK/GD32VW55x_RELEASE_V1.0.2/MSDK/plf/GD32VW55x_standard_peripheral/Source\gd32vw55x_pmu.c ****     \retval     none
 359:C:/Users/stapi/OneDrive/Desktop/GD32VW553/V1_MQTT_OK/GD32VW55X_Wifi_BLE_SDK/GD32VW55x_RELEASE_V1.0.2/MSDK/plf/GD32VW55x_standard_peripheral/Source\gd32vw55x_pmu.c **** */
 360:C:/Users/stapi/OneDrive/Desktop/GD32VW553/V1_MQTT_OK/GD32VW55X_Wifi_BLE_SDK/GD32VW55x_RELEASE_V1.0.2/MSDK/plf/GD32VW55x_standard_peripheral/Source\gd32vw55x_pmu.c **** void pmu_pll_force_disable(uint32_t force)
 361:C:/Users/stapi/OneDrive/Desktop/GD32VW553/V1_MQTT_OK/GD32VW55X_Wifi_BLE_SDK/GD32VW55x_RELEASE_V1.0.2/MSDK/plf/GD32VW55x_standard_peripheral/Source\gd32vw55x_pmu.c **** {
 758              		.loc 1 361 1 is_stmt 1
 759              		.cfi_startproc
 760              	.LVL35:
 362:C:/Users/stapi/OneDrive/Desktop/GD32VW553/V1_MQTT_OK/GD32VW55X_Wifi_BLE_SDK/GD32VW55x_RELEASE_V1.0.2/MSDK/plf/GD32VW55x_standard_peripheral/Source\gd32vw55x_pmu.c ****     PMU_RFCTL &= ~force;
 761              		.loc 1 362 5
 762              		.loc 1 362 15 is_stmt 0
 763 0000 B7770040 		li	a5,1073770496
 764 0004 9853     		lw	a4,32(a5)
 765 0006 3375A740 		andn	a0,a4,a0
 766              	.LVL36:
 767 000a 88D3     		sw	a0,32(a5)
 363:C:/Users/stapi/OneDrive/Desktop/GD32VW553/V1_MQTT_OK/GD32VW55X_Wifi_BLE_SDK/GD32VW55x_RELEASE_V1.0.2/MSDK/plf/GD32VW55x_standard_peripheral/Source\gd32vw55x_pmu.c **** }
 768              		.loc 1 363 1
 769 000c 8280     		ret
 770              		.cfi_endproc
 771              	.LFE383:
 773              		.section	.text.pmu_ble_rf_config,"ax",@progbits
 774              		.align	1
 775              		.globl	pmu_ble_rf_config
 777              	pmu_ble_rf_config:
 778              	.LFB384:
 364:C:/Users/stapi/OneDrive/Desktop/GD32VW553/V1_MQTT_OK/GD32VW55X_Wifi_BLE_SDK/GD32VW55x_RELEASE_V1.0.2/MSDK/plf/GD32VW55x_standard_peripheral/Source\gd32vw55x_pmu.c **** 
 365:C:/Users/stapi/OneDrive/Desktop/GD32VW553/V1_MQTT_OK/GD32VW55X_Wifi_BLE_SDK/GD32VW55x_RELEASE_V1.0.2/MSDK/plf/GD32VW55x_standard_peripheral/Source\gd32vw55x_pmu.c **** /*!
 366:C:/Users/stapi/OneDrive/Desktop/GD32VW553/V1_MQTT_OK/GD32VW55X_Wifi_BLE_SDK/GD32VW55x_RELEASE_V1.0.2/MSDK/plf/GD32VW55x_standard_peripheral/Source\gd32vw55x_pmu.c ****     \brief      configure BLE RF sequence
 367:C:/Users/stapi/OneDrive/Desktop/GD32VW553/V1_MQTT_OK/GD32VW55X_Wifi_BLE_SDK/GD32VW55x_RELEASE_V1.0.2/MSDK/plf/GD32VW55x_standard_peripheral/Source\gd32vw55x_pmu.c ****     \param[in]  mode:
 368:C:/Users/stapi/OneDrive/Desktop/GD32VW553/V1_MQTT_OK/GD32VW55X_Wifi_BLE_SDK/GD32VW55x_RELEASE_V1.0.2/MSDK/plf/GD32VW55x_standard_peripheral/Source\gd32vw55x_pmu.c ****                 only one parameter can be selected which is shown as below:
 369:C:/Users/stapi/OneDrive/Desktop/GD32VW553/V1_MQTT_OK/GD32VW55X_Wifi_BLE_SDK/GD32VW55x_RELEASE_V1.0.2/MSDK/plf/GD32VW55x_standard_peripheral/Source\gd32vw55x_pmu.c ****       \arg        PMU_BLE_RF_SOFTWARE: enable RF by software
 370:C:/Users/stapi/OneDrive/Desktop/GD32VW553/V1_MQTT_OK/GD32VW55X_Wifi_BLE_SDK/GD32VW55x_RELEASE_V1.0.2/MSDK/plf/GD32VW55x_standard_peripheral/Source\gd32vw55x_pmu.c ****       \arg        PMU_BLE_RF_HARDWARE: enable RF BLE hardware
 371:C:/Users/stapi/OneDrive/Desktop/GD32VW553/V1_MQTT_OK/GD32VW55X_Wifi_BLE_SDK/GD32VW55x_RELEASE_V1.0.2/MSDK/plf/GD32VW55x_standard_peripheral/Source\gd32vw55x_pmu.c ****     \param[out] none
 372:C:/Users/stapi/OneDrive/Desktop/GD32VW553/V1_MQTT_OK/GD32VW55X_Wifi_BLE_SDK/GD32VW55x_RELEASE_V1.0.2/MSDK/plf/GD32VW55x_standard_peripheral/Source\gd32vw55x_pmu.c ****     \retval     none
 373:C:/Users/stapi/OneDrive/Desktop/GD32VW553/V1_MQTT_OK/GD32VW55X_Wifi_BLE_SDK/GD32VW55x_RELEASE_V1.0.2/MSDK/plf/GD32VW55x_standard_peripheral/Source\gd32vw55x_pmu.c **** */
 374:C:/Users/stapi/OneDrive/Desktop/GD32VW553/V1_MQTT_OK/GD32VW55X_Wifi_BLE_SDK/GD32VW55x_RELEASE_V1.0.2/MSDK/plf/GD32VW55x_standard_peripheral/Source\gd32vw55x_pmu.c **** void pmu_ble_rf_config(uint32_t mode)
 375:C:/Users/stapi/OneDrive/Desktop/GD32VW553/V1_MQTT_OK/GD32VW55X_Wifi_BLE_SDK/GD32VW55x_RELEASE_V1.0.2/MSDK/plf/GD32VW55x_standard_peripheral/Source\gd32vw55x_pmu.c **** {
 779              		.loc 1 375 1 is_stmt 1
 780              		.cfi_startproc
 781              	.LVL37:
 376:C:/Users/stapi/OneDrive/Desktop/GD32VW553/V1_MQTT_OK/GD32VW55X_Wifi_BLE_SDK/GD32VW55x_RELEASE_V1.0.2/MSDK/plf/GD32VW55x_standard_peripheral/Source\gd32vw55x_pmu.c ****     PMU_RFCTL &= ~PMU_RFCTL_BLESWEN;
 782              		.loc 1 376 5
 783              		.loc 1 376 15 is_stmt 0
 784 0000 B7770040 		li	a5,1073770496
 785 0004 9453     		lw	a3,32(a5)
 786 0006 93F6F6FD 		andi	a3,a3,-33
 787 000a 94D3     		sw	a3,32(a5)
 377:C:/Users/stapi/OneDrive/Desktop/GD32VW553/V1_MQTT_OK/GD32VW55X_Wifi_BLE_SDK/GD32VW55x_RELEASE_V1.0.2/MSDK/plf/GD32VW55x_standard_peripheral/Source\gd32vw55x_pmu.c ****     PMU_RFCTL |= mode;
 788              		.loc 1 377 5 is_stmt 1
 789              		.loc 1 377 15 is_stmt 0
 790 000c 9853     		lw	a4,32(a5)
 791 000e 498F     		or	a4,a4,a0
 792 0010 98D3     		sw	a4,32(a5)
 378:C:/Users/stapi/OneDrive/Desktop/GD32VW553/V1_MQTT_OK/GD32VW55X_Wifi_BLE_SDK/GD32VW55x_RELEASE_V1.0.2/MSDK/plf/GD32VW55x_standard_peripheral/Source\gd32vw55x_pmu.c **** }
 793              		.loc 1 378 1
 794 0012 8280     		ret
 795              		.cfi_endproc
 796              	.LFE384:
 798              		.section	.text.pmu_rf_force_enable,"ax",@progbits
 799              		.align	1
 800              		.globl	pmu_rf_force_enable
 802              	pmu_rf_force_enable:
 803              	.LFB397:
 804              		.cfi_startproc
 805 0000 17030000 		tail	pmu_pll_force_enable
 805      67000300 
 806              		.cfi_endproc
 807              	.LFE397:
 809              		.section	.text.pmu_rf_force_disable,"ax",@progbits
 810              		.align	1
 811              		.globl	pmu_rf_force_disable
 813              	pmu_rf_force_disable:
 814              	.LFB399:
 815              		.cfi_startproc
 816 0000 17030000 		tail	pmu_pll_force_disable
 816      67000300 
 817              		.cfi_endproc
 818              	.LFE399:
 820              		.section	.text.pmu_rf_sequence_config,"ax",@progbits
 821              		.align	1
 822              		.globl	pmu_rf_sequence_config
 824              	pmu_rf_sequence_config:
 825              	.LFB387:
 379:C:/Users/stapi/OneDrive/Desktop/GD32VW553/V1_MQTT_OK/GD32VW55X_Wifi_BLE_SDK/GD32VW55x_RELEASE_V1.0.2/MSDK/plf/GD32VW55x_standard_peripheral/Source\gd32vw55x_pmu.c **** 
 380:C:/Users/stapi/OneDrive/Desktop/GD32VW553/V1_MQTT_OK/GD32VW55X_Wifi_BLE_SDK/GD32VW55x_RELEASE_V1.0.2/MSDK/plf/GD32VW55x_standard_peripheral/Source\gd32vw55x_pmu.c **** /*!
 381:C:/Users/stapi/OneDrive/Desktop/GD32VW553/V1_MQTT_OK/GD32VW55X_Wifi_BLE_SDK/GD32VW55x_RELEASE_V1.0.2/MSDK/plf/GD32VW55x_standard_peripheral/Source\gd32vw55x_pmu.c ****     \brief      enable RF sequence force open/close
 382:C:/Users/stapi/OneDrive/Desktop/GD32VW553/V1_MQTT_OK/GD32VW55X_Wifi_BLE_SDK/GD32VW55x_RELEASE_V1.0.2/MSDK/plf/GD32VW55x_standard_peripheral/Source\gd32vw55x_pmu.c ****     \param[in]  force:
 383:C:/Users/stapi/OneDrive/Desktop/GD32VW553/V1_MQTT_OK/GD32VW55X_Wifi_BLE_SDK/GD32VW55x_RELEASE_V1.0.2/MSDK/plf/GD32VW55x_standard_peripheral/Source\gd32vw55x_pmu.c ****                 only one parameter can be selected which is shown as below:
 384:C:/Users/stapi/OneDrive/Desktop/GD32VW553/V1_MQTT_OK/GD32VW55X_Wifi_BLE_SDK/GD32VW55x_RELEASE_V1.0.2/MSDK/plf/GD32VW55x_standard_peripheral/Source\gd32vw55x_pmu.c ****       \arg        PMU_RF_FORCE_OPEN: Software force start, open RF power
 385:C:/Users/stapi/OneDrive/Desktop/GD32VW553/V1_MQTT_OK/GD32VW55X_Wifi_BLE_SDK/GD32VW55x_RELEASE_V1.0.2/MSDK/plf/GD32VW55x_standard_peripheral/Source\gd32vw55x_pmu.c ****       \arg        PMU_RF_FORCE_CLOSE: Software force close, close RF power
 386:C:/Users/stapi/OneDrive/Desktop/GD32VW553/V1_MQTT_OK/GD32VW55X_Wifi_BLE_SDK/GD32VW55x_RELEASE_V1.0.2/MSDK/plf/GD32VW55x_standard_peripheral/Source\gd32vw55x_pmu.c ****     \param[out] none
 387:C:/Users/stapi/OneDrive/Desktop/GD32VW553/V1_MQTT_OK/GD32VW55X_Wifi_BLE_SDK/GD32VW55x_RELEASE_V1.0.2/MSDK/plf/GD32VW55x_standard_peripheral/Source\gd32vw55x_pmu.c ****     \retval     none
 388:C:/Users/stapi/OneDrive/Desktop/GD32VW553/V1_MQTT_OK/GD32VW55X_Wifi_BLE_SDK/GD32VW55x_RELEASE_V1.0.2/MSDK/plf/GD32VW55x_standard_peripheral/Source\gd32vw55x_pmu.c **** */
 389:C:/Users/stapi/OneDrive/Desktop/GD32VW553/V1_MQTT_OK/GD32VW55X_Wifi_BLE_SDK/GD32VW55x_RELEASE_V1.0.2/MSDK/plf/GD32VW55x_standard_peripheral/Source\gd32vw55x_pmu.c **** void pmu_rf_force_enable(uint32_t force)
 390:C:/Users/stapi/OneDrive/Desktop/GD32VW553/V1_MQTT_OK/GD32VW55X_Wifi_BLE_SDK/GD32VW55x_RELEASE_V1.0.2/MSDK/plf/GD32VW55x_standard_peripheral/Source\gd32vw55x_pmu.c **** {
 391:C:/Users/stapi/OneDrive/Desktop/GD32VW553/V1_MQTT_OK/GD32VW55X_Wifi_BLE_SDK/GD32VW55x_RELEASE_V1.0.2/MSDK/plf/GD32VW55x_standard_peripheral/Source\gd32vw55x_pmu.c ****     PMU_RFCTL |= force;
 392:C:/Users/stapi/OneDrive/Desktop/GD32VW553/V1_MQTT_OK/GD32VW55X_Wifi_BLE_SDK/GD32VW55x_RELEASE_V1.0.2/MSDK/plf/GD32VW55x_standard_peripheral/Source\gd32vw55x_pmu.c **** }
 393:C:/Users/stapi/OneDrive/Desktop/GD32VW553/V1_MQTT_OK/GD32VW55X_Wifi_BLE_SDK/GD32VW55x_RELEASE_V1.0.2/MSDK/plf/GD32VW55x_standard_peripheral/Source\gd32vw55x_pmu.c **** 
 394:C:/Users/stapi/OneDrive/Desktop/GD32VW553/V1_MQTT_OK/GD32VW55X_Wifi_BLE_SDK/GD32VW55x_RELEASE_V1.0.2/MSDK/plf/GD32VW55x_standard_peripheral/Source\gd32vw55x_pmu.c **** /*!
 395:C:/Users/stapi/OneDrive/Desktop/GD32VW553/V1_MQTT_OK/GD32VW55X_Wifi_BLE_SDK/GD32VW55x_RELEASE_V1.0.2/MSDK/plf/GD32VW55x_standard_peripheral/Source\gd32vw55x_pmu.c ****     \brief      disable RF sequence open/close force
 396:C:/Users/stapi/OneDrive/Desktop/GD32VW553/V1_MQTT_OK/GD32VW55X_Wifi_BLE_SDK/GD32VW55x_RELEASE_V1.0.2/MSDK/plf/GD32VW55x_standard_peripheral/Source\gd32vw55x_pmu.c ****     \param[in]  force:
 397:C:/Users/stapi/OneDrive/Desktop/GD32VW553/V1_MQTT_OK/GD32VW55X_Wifi_BLE_SDK/GD32VW55x_RELEASE_V1.0.2/MSDK/plf/GD32VW55x_standard_peripheral/Source\gd32vw55x_pmu.c ****                 only one parameter can be selected which is shown as below:
 398:C:/Users/stapi/OneDrive/Desktop/GD32VW553/V1_MQTT_OK/GD32VW55X_Wifi_BLE_SDK/GD32VW55x_RELEASE_V1.0.2/MSDK/plf/GD32VW55x_standard_peripheral/Source\gd32vw55x_pmu.c ****       \arg        PMU_RF_FORCE_OPEN: Software force start, open RF power
 399:C:/Users/stapi/OneDrive/Desktop/GD32VW553/V1_MQTT_OK/GD32VW55X_Wifi_BLE_SDK/GD32VW55x_RELEASE_V1.0.2/MSDK/plf/GD32VW55x_standard_peripheral/Source\gd32vw55x_pmu.c ****       \arg        PMU_RF_FORCE_CLOSE: Software force close, close RF power
 400:C:/Users/stapi/OneDrive/Desktop/GD32VW553/V1_MQTT_OK/GD32VW55X_Wifi_BLE_SDK/GD32VW55x_RELEASE_V1.0.2/MSDK/plf/GD32VW55x_standard_peripheral/Source\gd32vw55x_pmu.c ****     \param[out] none
 401:C:/Users/stapi/OneDrive/Desktop/GD32VW553/V1_MQTT_OK/GD32VW55X_Wifi_BLE_SDK/GD32VW55x_RELEASE_V1.0.2/MSDK/plf/GD32VW55x_standard_peripheral/Source\gd32vw55x_pmu.c ****     \retval     none
 402:C:/Users/stapi/OneDrive/Desktop/GD32VW553/V1_MQTT_OK/GD32VW55X_Wifi_BLE_SDK/GD32VW55x_RELEASE_V1.0.2/MSDK/plf/GD32VW55x_standard_peripheral/Source\gd32vw55x_pmu.c **** */
 403:C:/Users/stapi/OneDrive/Desktop/GD32VW553/V1_MQTT_OK/GD32VW55X_Wifi_BLE_SDK/GD32VW55x_RELEASE_V1.0.2/MSDK/plf/GD32VW55x_standard_peripheral/Source\gd32vw55x_pmu.c **** void pmu_rf_force_disable(uint32_t force)
 404:C:/Users/stapi/OneDrive/Desktop/GD32VW553/V1_MQTT_OK/GD32VW55X_Wifi_BLE_SDK/GD32VW55x_RELEASE_V1.0.2/MSDK/plf/GD32VW55x_standard_peripheral/Source\gd32vw55x_pmu.c **** {
 405:C:/Users/stapi/OneDrive/Desktop/GD32VW553/V1_MQTT_OK/GD32VW55X_Wifi_BLE_SDK/GD32VW55x_RELEASE_V1.0.2/MSDK/plf/GD32VW55x_standard_peripheral/Source\gd32vw55x_pmu.c ****     PMU_RFCTL &= ~force;
 406:C:/Users/stapi/OneDrive/Desktop/GD32VW553/V1_MQTT_OK/GD32VW55X_Wifi_BLE_SDK/GD32VW55x_RELEASE_V1.0.2/MSDK/plf/GD32VW55x_standard_peripheral/Source\gd32vw55x_pmu.c **** }
 407:C:/Users/stapi/OneDrive/Desktop/GD32VW553/V1_MQTT_OK/GD32VW55X_Wifi_BLE_SDK/GD32VW55x_RELEASE_V1.0.2/MSDK/plf/GD32VW55x_standard_peripheral/Source\gd32vw55x_pmu.c **** 
 408:C:/Users/stapi/OneDrive/Desktop/GD32VW553/V1_MQTT_OK/GD32VW55X_Wifi_BLE_SDK/GD32VW55x_RELEASE_V1.0.2/MSDK/plf/GD32VW55x_standard_peripheral/Source\gd32vw55x_pmu.c **** /*!
 409:C:/Users/stapi/OneDrive/Desktop/GD32VW553/V1_MQTT_OK/GD32VW55X_Wifi_BLE_SDK/GD32VW55x_RELEASE_V1.0.2/MSDK/plf/GD32VW55x_standard_peripheral/Source\gd32vw55x_pmu.c ****     \brief      configure RF sequence
 410:C:/Users/stapi/OneDrive/Desktop/GD32VW553/V1_MQTT_OK/GD32VW55X_Wifi_BLE_SDK/GD32VW55x_RELEASE_V1.0.2/MSDK/plf/GD32VW55x_standard_peripheral/Source\gd32vw55x_pmu.c ****     \param[in]  mode:
 411:C:/Users/stapi/OneDrive/Desktop/GD32VW553/V1_MQTT_OK/GD32VW55X_Wifi_BLE_SDK/GD32VW55x_RELEASE_V1.0.2/MSDK/plf/GD32VW55x_standard_peripheral/Source\gd32vw55x_pmu.c ****                 only one parameter can be selected which is shown as below:
 412:C:/Users/stapi/OneDrive/Desktop/GD32VW553/V1_MQTT_OK/GD32VW55X_Wifi_BLE_SDK/GD32VW55x_RELEASE_V1.0.2/MSDK/plf/GD32VW55x_standard_peripheral/Source\gd32vw55x_pmu.c ****       \arg        PMU_RF_SOFTWARE: RF software sequence enable
 413:C:/Users/stapi/OneDrive/Desktop/GD32VW553/V1_MQTT_OK/GD32VW55X_Wifi_BLE_SDK/GD32VW55x_RELEASE_V1.0.2/MSDK/plf/GD32VW55x_standard_peripheral/Source\gd32vw55x_pmu.c ****       \arg        PMU_RF_HARDWARE: RF hardware sequence enable
 414:C:/Users/stapi/OneDrive/Desktop/GD32VW553/V1_MQTT_OK/GD32VW55X_Wifi_BLE_SDK/GD32VW55x_RELEASE_V1.0.2/MSDK/plf/GD32VW55x_standard_peripheral/Source\gd32vw55x_pmu.c ****     \param[out] none
 415:C:/Users/stapi/OneDrive/Desktop/GD32VW553/V1_MQTT_OK/GD32VW55X_Wifi_BLE_SDK/GD32VW55x_RELEASE_V1.0.2/MSDK/plf/GD32VW55x_standard_peripheral/Source\gd32vw55x_pmu.c ****     \retval     none
 416:C:/Users/stapi/OneDrive/Desktop/GD32VW553/V1_MQTT_OK/GD32VW55X_Wifi_BLE_SDK/GD32VW55x_RELEASE_V1.0.2/MSDK/plf/GD32VW55x_standard_peripheral/Source\gd32vw55x_pmu.c **** */
 417:C:/Users/stapi/OneDrive/Desktop/GD32VW553/V1_MQTT_OK/GD32VW55X_Wifi_BLE_SDK/GD32VW55x_RELEASE_V1.0.2/MSDK/plf/GD32VW55x_standard_peripheral/Source\gd32vw55x_pmu.c **** void pmu_rf_sequence_config(uint32_t mode)
 418:C:/Users/stapi/OneDrive/Desktop/GD32VW553/V1_MQTT_OK/GD32VW55X_Wifi_BLE_SDK/GD32VW55x_RELEASE_V1.0.2/MSDK/plf/GD32VW55x_standard_peripheral/Source\gd32vw55x_pmu.c **** {
 826              		.loc 1 418 1 is_stmt 1
 827              		.cfi_startproc
 828              	.LVL38:
 419:C:/Users/stapi/OneDrive/Desktop/GD32VW553/V1_MQTT_OK/GD32VW55X_Wifi_BLE_SDK/GD32VW55x_RELEASE_V1.0.2/MSDK/plf/GD32VW55x_standard_peripheral/Source\gd32vw55x_pmu.c ****     PMU_RFCTL &= ~PMU_RFCTL_RFSWEN;
 829              		.loc 1 419 5
 830              		.loc 1 419 15 is_stmt 0
 831 0000 B7770040 		li	a5,1073770496
 832 0004 9453     		lw	a3,32(a5)
 833 0006 F99A     		andi	a3,a3,-2
 834 0008 94D3     		sw	a3,32(a5)
 420:C:/Users/stapi/OneDrive/Desktop/GD32VW553/V1_MQTT_OK/GD32VW55X_Wifi_BLE_SDK/GD32VW55x_RELEASE_V1.0.2/MSDK/plf/GD32VW55x_standard_peripheral/Source\gd32vw55x_pmu.c ****     PMU_RFCTL |= mode;
 835              		.loc 1 420 5 is_stmt 1
 836              		.loc 1 420 15 is_stmt 0
 837 000a 9853     		lw	a4,32(a5)
 838 000c 498F     		or	a4,a4,a0
 839 000e 98D3     		sw	a4,32(a5)
 421:C:/Users/stapi/OneDrive/Desktop/GD32VW553/V1_MQTT_OK/GD32VW55X_Wifi_BLE_SDK/GD32VW55x_RELEASE_V1.0.2/MSDK/plf/GD32VW55x_standard_peripheral/Source\gd32vw55x_pmu.c **** }
 840              		.loc 1 421 1
 841 0010 8280     		ret
 842              		.cfi_endproc
 843              	.LFE387:
 845              		.section	.text.pmu_flag_get,"ax",@progbits
 846              		.align	1
 847              		.globl	pmu_flag_get
 849              	pmu_flag_get:
 850              	.LFB388:
 422:C:/Users/stapi/OneDrive/Desktop/GD32VW553/V1_MQTT_OK/GD32VW55X_Wifi_BLE_SDK/GD32VW55x_RELEASE_V1.0.2/MSDK/plf/GD32VW55x_standard_peripheral/Source\gd32vw55x_pmu.c **** 
 423:C:/Users/stapi/OneDrive/Desktop/GD32VW553/V1_MQTT_OK/GD32VW55X_Wifi_BLE_SDK/GD32VW55x_RELEASE_V1.0.2/MSDK/plf/GD32VW55x_standard_peripheral/Source\gd32vw55x_pmu.c **** /*!
 424:C:/Users/stapi/OneDrive/Desktop/GD32VW553/V1_MQTT_OK/GD32VW55X_Wifi_BLE_SDK/GD32VW55x_RELEASE_V1.0.2/MSDK/plf/GD32VW55x_standard_peripheral/Source\gd32vw55x_pmu.c ****     \brief      get flag state
 425:C:/Users/stapi/OneDrive/Desktop/GD32VW553/V1_MQTT_OK/GD32VW55X_Wifi_BLE_SDK/GD32VW55x_RELEASE_V1.0.2/MSDK/plf/GD32VW55x_standard_peripheral/Source\gd32vw55x_pmu.c ****     \param[in]  flag:
 426:C:/Users/stapi/OneDrive/Desktop/GD32VW553/V1_MQTT_OK/GD32VW55X_Wifi_BLE_SDK/GD32VW55x_RELEASE_V1.0.2/MSDK/plf/GD32VW55x_standard_peripheral/Source\gd32vw55x_pmu.c ****                 only one parameter can be selected which is shown as below:
 427:C:/Users/stapi/OneDrive/Desktop/GD32VW553/V1_MQTT_OK/GD32VW55X_Wifi_BLE_SDK/GD32VW55x_RELEASE_V1.0.2/MSDK/plf/GD32VW55x_standard_peripheral/Source\gd32vw55x_pmu.c ****       \arg        PMU_FLAG_WAKEUP: wakeup flag
 428:C:/Users/stapi/OneDrive/Desktop/GD32VW553/V1_MQTT_OK/GD32VW55X_Wifi_BLE_SDK/GD32VW55x_RELEASE_V1.0.2/MSDK/plf/GD32VW55x_standard_peripheral/Source\gd32vw55x_pmu.c ****       \arg        PMU_FLAG_STANDBY: standby flag
 429:C:/Users/stapi/OneDrive/Desktop/GD32VW553/V1_MQTT_OK/GD32VW55X_Wifi_BLE_SDK/GD32VW55x_RELEASE_V1.0.2/MSDK/plf/GD32VW55x_standard_peripheral/Source\gd32vw55x_pmu.c ****       \arg        PMU_FLAG_LVD: VDD low voltage flag
 430:C:/Users/stapi/OneDrive/Desktop/GD32VW553/V1_MQTT_OK/GD32VW55X_Wifi_BLE_SDK/GD32VW55x_RELEASE_V1.0.2/MSDK/plf/GD32VW55x_standard_peripheral/Source\gd32vw55x_pmu.c ****       \arg        PMU_FLAG_LDOVSRF: LDO voltage select ready flag
 431:C:/Users/stapi/OneDrive/Desktop/GD32VW553/V1_MQTT_OK/GD32VW55X_Wifi_BLE_SDK/GD32VW55x_RELEASE_V1.0.2/MSDK/plf/GD32VW55x_standard_peripheral/Source\gd32vw55x_pmu.c ****       \arg        PMU_FLAG_LDRF: low-driver mode ready flag
 432:C:/Users/stapi/OneDrive/Desktop/GD32VW553/V1_MQTT_OK/GD32VW55X_Wifi_BLE_SDK/GD32VW55x_RELEASE_V1.0.2/MSDK/plf/GD32VW55x_standard_peripheral/Source\gd32vw55x_pmu.c ****       \arg        PMU_FLAG_WIFI_SLEEP: WIFI is in sleep state
 433:C:/Users/stapi/OneDrive/Desktop/GD32VW553/V1_MQTT_OK/GD32VW55X_Wifi_BLE_SDK/GD32VW55x_RELEASE_V1.0.2/MSDK/plf/GD32VW55x_standard_peripheral/Source\gd32vw55x_pmu.c ****       \arg        PMU_FLAG_WIFI_ACTIVE: WIFI is in active state
 434:C:/Users/stapi/OneDrive/Desktop/GD32VW553/V1_MQTT_OK/GD32VW55X_Wifi_BLE_SDK/GD32VW55x_RELEASE_V1.0.2/MSDK/plf/GD32VW55x_standard_peripheral/Source\gd32vw55x_pmu.c ****       \arg        PMU_FLAG_BLE_POWER: BLE power status
 435:C:/Users/stapi/OneDrive/Desktop/GD32VW553/V1_MQTT_OK/GD32VW55X_Wifi_BLE_SDK/GD32VW55x_RELEASE_V1.0.2/MSDK/plf/GD32VW55x_standard_peripheral/Source\gd32vw55x_pmu.c ****       \arg        PMU_FLAG_SRAM1_SLEEP: SRAM1 is in sleep state
 436:C:/Users/stapi/OneDrive/Desktop/GD32VW553/V1_MQTT_OK/GD32VW55X_Wifi_BLE_SDK/GD32VW55x_RELEASE_V1.0.2/MSDK/plf/GD32VW55x_standard_peripheral/Source\gd32vw55x_pmu.c ****       \arg        PMU_FLAG_SRAM1_ACTIVE: SRAM1 is in active state
 437:C:/Users/stapi/OneDrive/Desktop/GD32VW553/V1_MQTT_OK/GD32VW55X_Wifi_BLE_SDK/GD32VW55x_RELEASE_V1.0.2/MSDK/plf/GD32VW55x_standard_peripheral/Source\gd32vw55x_pmu.c ****       \arg        PMU_FLAG_SRAM0_SLEEP: SRAM0 is in sleep state
 438:C:/Users/stapi/OneDrive/Desktop/GD32VW553/V1_MQTT_OK/GD32VW55X_Wifi_BLE_SDK/GD32VW55x_RELEASE_V1.0.2/MSDK/plf/GD32VW55x_standard_peripheral/Source\gd32vw55x_pmu.c ****       \arg        PMU_FLAG_SRAM0_ACTIVE: SRAM0 is in active state
 439:C:/Users/stapi/OneDrive/Desktop/GD32VW553/V1_MQTT_OK/GD32VW55X_Wifi_BLE_SDK/GD32VW55x_RELEASE_V1.0.2/MSDK/plf/GD32VW55x_standard_peripheral/Source\gd32vw55x_pmu.c ****       \arg        PMU_FLAG_SRAM2_SLEEP: SRAM2 is in sleep state
 440:C:/Users/stapi/OneDrive/Desktop/GD32VW553/V1_MQTT_OK/GD32VW55X_Wifi_BLE_SDK/GD32VW55x_RELEASE_V1.0.2/MSDK/plf/GD32VW55x_standard_peripheral/Source\gd32vw55x_pmu.c ****       \arg        PMU_FLAG_SRAM2_ACTIVE: SRAM2 is in active state
 441:C:/Users/stapi/OneDrive/Desktop/GD32VW553/V1_MQTT_OK/GD32VW55X_Wifi_BLE_SDK/GD32VW55x_RELEASE_V1.0.2/MSDK/plf/GD32VW55x_standard_peripheral/Source\gd32vw55x_pmu.c ****       \arg        PMU_FLAG_SRAM3_SLEEP: SRAM3 is in sleep state
 442:C:/Users/stapi/OneDrive/Desktop/GD32VW553/V1_MQTT_OK/GD32VW55X_Wifi_BLE_SDK/GD32VW55x_RELEASE_V1.0.2/MSDK/plf/GD32VW55x_standard_peripheral/Source\gd32vw55x_pmu.c ****       \arg        PMU_FLAG_SRAM3_ACTIVE: SRAM3 is in active state
 443:C:/Users/stapi/OneDrive/Desktop/GD32VW553/V1_MQTT_OK/GD32VW55X_Wifi_BLE_SDK/GD32VW55x_RELEASE_V1.0.2/MSDK/plf/GD32VW55x_standard_peripheral/Source\gd32vw55x_pmu.c ****       \arg        PMU_FLAG_BLE_SLEEP: BLE is in sleep state
 444:C:/Users/stapi/OneDrive/Desktop/GD32VW553/V1_MQTT_OK/GD32VW55X_Wifi_BLE_SDK/GD32VW55x_RELEASE_V1.0.2/MSDK/plf/GD32VW55x_standard_peripheral/Source\gd32vw55x_pmu.c ****       \arg        PMU_FLAG_BLE_ACTIVE: BLE is in active state
 445:C:/Users/stapi/OneDrive/Desktop/GD32VW553/V1_MQTT_OK/GD32VW55X_Wifi_BLE_SDK/GD32VW55x_RELEASE_V1.0.2/MSDK/plf/GD32VW55x_standard_peripheral/Source\gd32vw55x_pmu.c ****       \arg        PMU_FLAG_BLE_POWER_FALL: BLE power status falling edge flag
 446:C:/Users/stapi/OneDrive/Desktop/GD32VW553/V1_MQTT_OK/GD32VW55X_Wifi_BLE_SDK/GD32VW55x_RELEASE_V1.0.2/MSDK/plf/GD32VW55x_standard_peripheral/Source\gd32vw55x_pmu.c ****       \arg        PMU_FLAG_BLE_POWER_RISE: BLE power status rising edge flag
 447:C:/Users/stapi/OneDrive/Desktop/GD32VW553/V1_MQTT_OK/GD32VW55X_Wifi_BLE_SDK/GD32VW55x_RELEASE_V1.0.2/MSDK/plf/GD32VW55x_standard_peripheral/Source\gd32vw55x_pmu.c ****     \param[out] none
 448:C:/Users/stapi/OneDrive/Desktop/GD32VW553/V1_MQTT_OK/GD32VW55X_Wifi_BLE_SDK/GD32VW55x_RELEASE_V1.0.2/MSDK/plf/GD32VW55x_standard_peripheral/Source\gd32vw55x_pmu.c ****     \retval     FlagStatus: SET or RESET
 449:C:/Users/stapi/OneDrive/Desktop/GD32VW553/V1_MQTT_OK/GD32VW55X_Wifi_BLE_SDK/GD32VW55x_RELEASE_V1.0.2/MSDK/plf/GD32VW55x_standard_peripheral/Source\gd32vw55x_pmu.c **** */
 450:C:/Users/stapi/OneDrive/Desktop/GD32VW553/V1_MQTT_OK/GD32VW55X_Wifi_BLE_SDK/GD32VW55x_RELEASE_V1.0.2/MSDK/plf/GD32VW55x_standard_peripheral/Source\gd32vw55x_pmu.c **** FlagStatus pmu_flag_get(uint32_t flag)
 451:C:/Users/stapi/OneDrive/Desktop/GD32VW553/V1_MQTT_OK/GD32VW55X_Wifi_BLE_SDK/GD32VW55x_RELEASE_V1.0.2/MSDK/plf/GD32VW55x_standard_peripheral/Source\gd32vw55x_pmu.c **** {
 851              		.loc 1 451 1 is_stmt 1
 852              		.cfi_startproc
 853              	.LVL39:
 452:C:/Users/stapi/OneDrive/Desktop/GD32VW553/V1_MQTT_OK/GD32VW55X_Wifi_BLE_SDK/GD32VW55x_RELEASE_V1.0.2/MSDK/plf/GD32VW55x_standard_peripheral/Source\gd32vw55x_pmu.c ****     if(flag & BIT(31)) {
 854              		.loc 1 452 5
 855              		.loc 1 452 7 is_stmt 0
 856 0000 635D0500 		bge	a0,zero,.L37
 453:C:/Users/stapi/OneDrive/Desktop/GD32VW553/V1_MQTT_OK/GD32VW55X_Wifi_BLE_SDK/GD32VW55x_RELEASE_V1.0.2/MSDK/plf/GD32VW55x_standard_peripheral/Source\gd32vw55x_pmu.c ****         flag &= ~BIT(31);
 857              		.loc 1 453 9 is_stmt 1
 858              	.LVL40:
 454:C:/Users/stapi/OneDrive/Desktop/GD32VW553/V1_MQTT_OK/GD32VW55X_Wifi_BLE_SDK/GD32VW55x_RELEASE_V1.0.2/MSDK/plf/GD32VW55x_standard_peripheral/Source\gd32vw55x_pmu.c ****         /* get WIFI SRAM status */
 455:C:/Users/stapi/OneDrive/Desktop/GD32VW553/V1_MQTT_OK/GD32VW55X_Wifi_BLE_SDK/GD32VW55x_RELEASE_V1.0.2/MSDK/plf/GD32VW55x_standard_peripheral/Source\gd32vw55x_pmu.c ****         if(PMU_CS1 & flag) {
 859              		.loc 1 455 9
 860              		.loc 1 455 12 is_stmt 0
 861 0004 B7770040 		li	a5,1073770496
 862 0008 DC47     		lw	a5,12(a5)
 863              		.loc 1 455 20
 864 000a E98F     		and	a5,a5,a0
 865 000c 37050080 		li	a0,-2147483648
 866              	.LVL41:
 867 0010 33F5A740 		andn	a0,a5,a0
 868              	.LVL42:
 869              	.L40:
 456:C:/Users/stapi/OneDrive/Desktop/GD32VW553/V1_MQTT_OK/GD32VW55X_Wifi_BLE_SDK/GD32VW55x_RELEASE_V1.0.2/MSDK/plf/GD32VW55x_standard_peripheral/Source\gd32vw55x_pmu.c ****             return SET;
 457:C:/Users/stapi/OneDrive/Desktop/GD32VW553/V1_MQTT_OK/GD32VW55X_Wifi_BLE_SDK/GD32VW55x_RELEASE_V1.0.2/MSDK/plf/GD32VW55x_standard_peripheral/Source\gd32vw55x_pmu.c ****         }else {
 458:C:/Users/stapi/OneDrive/Desktop/GD32VW553/V1_MQTT_OK/GD32VW55X_Wifi_BLE_SDK/GD32VW55x_RELEASE_V1.0.2/MSDK/plf/GD32VW55x_standard_peripheral/Source\gd32vw55x_pmu.c ****             return RESET;
 459:C:/Users/stapi/OneDrive/Desktop/GD32VW553/V1_MQTT_OK/GD32VW55X_Wifi_BLE_SDK/GD32VW55x_RELEASE_V1.0.2/MSDK/plf/GD32VW55x_standard_peripheral/Source\gd32vw55x_pmu.c ****         }
 460:C:/Users/stapi/OneDrive/Desktop/GD32VW553/V1_MQTT_OK/GD32VW55X_Wifi_BLE_SDK/GD32VW55x_RELEASE_V1.0.2/MSDK/plf/GD32VW55x_standard_peripheral/Source\gd32vw55x_pmu.c ****     }else if(flag & BIT(30)) {
 461:C:/Users/stapi/OneDrive/Desktop/GD32VW553/V1_MQTT_OK/GD32VW55X_Wifi_BLE_SDK/GD32VW55x_RELEASE_V1.0.2/MSDK/plf/GD32VW55x_standard_peripheral/Source\gd32vw55x_pmu.c ****         flag &= ~BIT(30);
 462:C:/Users/stapi/OneDrive/Desktop/GD32VW553/V1_MQTT_OK/GD32VW55X_Wifi_BLE_SDK/GD32VW55x_RELEASE_V1.0.2/MSDK/plf/GD32VW55x_standard_peripheral/Source\gd32vw55x_pmu.c ****         /* get BLE power status change flag*/
 463:C:/Users/stapi/OneDrive/Desktop/GD32VW553/V1_MQTT_OK/GD32VW55X_Wifi_BLE_SDK/GD32VW55x_RELEASE_V1.0.2/MSDK/plf/GD32VW55x_standard_peripheral/Source\gd32vw55x_pmu.c ****         if(PMU_INTF & flag) {
 464:C:/Users/stapi/OneDrive/Desktop/GD32VW553/V1_MQTT_OK/GD32VW55X_Wifi_BLE_SDK/GD32VW55x_RELEASE_V1.0.2/MSDK/plf/GD32VW55x_standard_peripheral/Source\gd32vw55x_pmu.c ****             return SET;
 465:C:/Users/stapi/OneDrive/Desktop/GD32VW553/V1_MQTT_OK/GD32VW55X_Wifi_BLE_SDK/GD32VW55x_RELEASE_V1.0.2/MSDK/plf/GD32VW55x_standard_peripheral/Source\gd32vw55x_pmu.c ****         }else {
 466:C:/Users/stapi/OneDrive/Desktop/GD32VW553/V1_MQTT_OK/GD32VW55X_Wifi_BLE_SDK/GD32VW55x_RELEASE_V1.0.2/MSDK/plf/GD32VW55x_standard_peripheral/Source\gd32vw55x_pmu.c ****             return RESET;
 467:C:/Users/stapi/OneDrive/Desktop/GD32VW553/V1_MQTT_OK/GD32VW55X_Wifi_BLE_SDK/GD32VW55x_RELEASE_V1.0.2/MSDK/plf/GD32VW55x_standard_peripheral/Source\gd32vw55x_pmu.c ****         }
 468:C:/Users/stapi/OneDrive/Desktop/GD32VW553/V1_MQTT_OK/GD32VW55X_Wifi_BLE_SDK/GD32VW55x_RELEASE_V1.0.2/MSDK/plf/GD32VW55x_standard_peripheral/Source\gd32vw55x_pmu.c ****     }else {
 469:C:/Users/stapi/OneDrive/Desktop/GD32VW553/V1_MQTT_OK/GD32VW55X_Wifi_BLE_SDK/GD32VW55x_RELEASE_V1.0.2/MSDK/plf/GD32VW55x_standard_peripheral/Source\gd32vw55x_pmu.c ****         /* get flag status in PMU_CS0 */
 470:C:/Users/stapi/OneDrive/Desktop/GD32VW553/V1_MQTT_OK/GD32VW55X_Wifi_BLE_SDK/GD32VW55x_RELEASE_V1.0.2/MSDK/plf/GD32VW55x_standard_peripheral/Source\gd32vw55x_pmu.c ****         if(PMU_CS0 & flag) {
 870              		.loc 1 470 11
 871 0014 3335A000 		snez	a0,a0
 471:C:/Users/stapi/OneDrive/Desktop/GD32VW553/V1_MQTT_OK/GD32VW55X_Wifi_BLE_SDK/GD32VW55x_RELEASE_V1.0.2/MSDK/plf/GD32VW55x_standard_peripheral/Source\gd32vw55x_pmu.c ****             return SET;
 472:C:/Users/stapi/OneDrive/Desktop/GD32VW553/V1_MQTT_OK/GD32VW55X_Wifi_BLE_SDK/GD32VW55x_RELEASE_V1.0.2/MSDK/plf/GD32VW55x_standard_peripheral/Source\gd32vw55x_pmu.c ****         }else {
 473:C:/Users/stapi/OneDrive/Desktop/GD32VW553/V1_MQTT_OK/GD32VW55X_Wifi_BLE_SDK/GD32VW55x_RELEASE_V1.0.2/MSDK/plf/GD32VW55x_standard_peripheral/Source\gd32vw55x_pmu.c ****             return RESET;
 474:C:/Users/stapi/OneDrive/Desktop/GD32VW553/V1_MQTT_OK/GD32VW55X_Wifi_BLE_SDK/GD32VW55x_RELEASE_V1.0.2/MSDK/plf/GD32VW55x_standard_peripheral/Source\gd32vw55x_pmu.c ****         }
 475:C:/Users/stapi/OneDrive/Desktop/GD32VW553/V1_MQTT_OK/GD32VW55X_Wifi_BLE_SDK/GD32VW55x_RELEASE_V1.0.2/MSDK/plf/GD32VW55x_standard_peripheral/Source\gd32vw55x_pmu.c ****     }
 476:C:/Users/stapi/OneDrive/Desktop/GD32VW553/V1_MQTT_OK/GD32VW55X_Wifi_BLE_SDK/GD32VW55x_RELEASE_V1.0.2/MSDK/plf/GD32VW55x_standard_peripheral/Source\gd32vw55x_pmu.c **** }
 872              		.loc 1 476 1
 873 0018 8280     		ret
 874              	.LVL43:
 875              	.L37:
 460:C:/Users/stapi/OneDrive/Desktop/GD32VW553/V1_MQTT_OK/GD32VW55X_Wifi_BLE_SDK/GD32VW55x_RELEASE_V1.0.2/MSDK/plf/GD32VW55x_standard_peripheral/Source\gd32vw55x_pmu.c ****         flag &= ~BIT(30);
 876              		.loc 1 460 11 is_stmt 1
 460:C:/Users/stapi/OneDrive/Desktop/GD32VW553/V1_MQTT_OK/GD32VW55X_Wifi_BLE_SDK/GD32VW55x_RELEASE_V1.0.2/MSDK/plf/GD32VW55x_standard_peripheral/Source\gd32vw55x_pmu.c ****         flag &= ~BIT(30);
 877              		.loc 1 460 19 is_stmt 0
 878 001a B7070040 		li	a5,1073741824
 879 001e E98F     		and	a5,a0,a5
 460:C:/Users/stapi/OneDrive/Desktop/GD32VW553/V1_MQTT_OK/GD32VW55X_Wifi_BLE_SDK/GD32VW55x_RELEASE_V1.0.2/MSDK/plf/GD32VW55x_standard_peripheral/Source\gd32vw55x_pmu.c ****         flag &= ~BIT(30);
 880              		.loc 1 460 13
 881 0020 81CB     		beq	a5,zero,.L39
 461:C:/Users/stapi/OneDrive/Desktop/GD32VW553/V1_MQTT_OK/GD32VW55X_Wifi_BLE_SDK/GD32VW55x_RELEASE_V1.0.2/MSDK/plf/GD32VW55x_standard_peripheral/Source\gd32vw55x_pmu.c ****         /* get BLE power status change flag*/
 882              		.loc 1 461 9 is_stmt 1
 883              	.LVL44:
 463:C:/Users/stapi/OneDrive/Desktop/GD32VW553/V1_MQTT_OK/GD32VW55X_Wifi_BLE_SDK/GD32VW55x_RELEASE_V1.0.2/MSDK/plf/GD32VW55x_standard_peripheral/Source\gd32vw55x_pmu.c ****             return SET;
 884              		.loc 1 463 9
 463:C:/Users/stapi/OneDrive/Desktop/GD32VW553/V1_MQTT_OK/GD32VW55X_Wifi_BLE_SDK/GD32VW55x_RELEASE_V1.0.2/MSDK/plf/GD32VW55x_standard_peripheral/Source\gd32vw55x_pmu.c ****             return SET;
 885              		.loc 1 463 12 is_stmt 0
 886 0022 B7770040 		li	a5,1073770496
 887 0026 DC57     		lw	a5,44(a5)
 463:C:/Users/stapi/OneDrive/Desktop/GD32VW553/V1_MQTT_OK/GD32VW55X_Wifi_BLE_SDK/GD32VW55x_RELEASE_V1.0.2/MSDK/plf/GD32VW55x_standard_peripheral/Source\gd32vw55x_pmu.c ****             return SET;
 888              		.loc 1 463 21
 889 0028 7D8D     		and	a0,a5,a0
 890              	.LVL45:
 891 002a 1315E549 		bclri	a0,a0,30
 892 002e DDB7     		j	.L40
 893              	.LVL46:
 894              	.L39:
 470:C:/Users/stapi/OneDrive/Desktop/GD32VW553/V1_MQTT_OK/GD32VW55X_Wifi_BLE_SDK/GD32VW55x_RELEASE_V1.0.2/MSDK/plf/GD32VW55x_standard_peripheral/Source\gd32vw55x_pmu.c ****             return SET;
 895              		.loc 1 470 9 is_stmt 1
 470:C:/Users/stapi/OneDrive/Desktop/GD32VW553/V1_MQTT_OK/GD32VW55X_Wifi_BLE_SDK/GD32VW55x_RELEASE_V1.0.2/MSDK/plf/GD32VW55x_standard_peripheral/Source\gd32vw55x_pmu.c ****             return SET;
 896              		.loc 1 470 12 is_stmt 0
 897 0030 B7770040 		li	a5,1073770496
 898 0034 DC43     		lw	a5,4(a5)
 470:C:/Users/stapi/OneDrive/Desktop/GD32VW553/V1_MQTT_OK/GD32VW55X_Wifi_BLE_SDK/GD32VW55x_RELEASE_V1.0.2/MSDK/plf/GD32VW55x_standard_peripheral/Source\gd32vw55x_pmu.c ****             return SET;
 899              		.loc 1 470 20
 900 0036 7D8D     		and	a0,a5,a0
 901              	.LVL47:
 902 0038 F1BF     		j	.L40
 903              		.cfi_endproc
 904              	.LFE388:
 906              		.section	.text.pmu_flag_clear,"ax",@progbits
 907              		.align	1
 908              		.globl	pmu_flag_clear
 910              	pmu_flag_clear:
 911              	.LFB389:
 477:C:/Users/stapi/OneDrive/Desktop/GD32VW553/V1_MQTT_OK/GD32VW55X_Wifi_BLE_SDK/GD32VW55x_RELEASE_V1.0.2/MSDK/plf/GD32VW55x_standard_peripheral/Source\gd32vw55x_pmu.c **** 
 478:C:/Users/stapi/OneDrive/Desktop/GD32VW553/V1_MQTT_OK/GD32VW55X_Wifi_BLE_SDK/GD32VW55x_RELEASE_V1.0.2/MSDK/plf/GD32VW55x_standard_peripheral/Source\gd32vw55x_pmu.c **** /*!
 479:C:/Users/stapi/OneDrive/Desktop/GD32VW553/V1_MQTT_OK/GD32VW55X_Wifi_BLE_SDK/GD32VW55x_RELEASE_V1.0.2/MSDK/plf/GD32VW55x_standard_peripheral/Source\gd32vw55x_pmu.c ****     \brief      clear flag bit
 480:C:/Users/stapi/OneDrive/Desktop/GD32VW553/V1_MQTT_OK/GD32VW55X_Wifi_BLE_SDK/GD32VW55x_RELEASE_V1.0.2/MSDK/plf/GD32VW55x_standard_peripheral/Source\gd32vw55x_pmu.c ****     \param[in]  flag:
 481:C:/Users/stapi/OneDrive/Desktop/GD32VW553/V1_MQTT_OK/GD32VW55X_Wifi_BLE_SDK/GD32VW55x_RELEASE_V1.0.2/MSDK/plf/GD32VW55x_standard_peripheral/Source\gd32vw55x_pmu.c ****                 only one parameter can be selected which is shown as below:
 482:C:/Users/stapi/OneDrive/Desktop/GD32VW553/V1_MQTT_OK/GD32VW55X_Wifi_BLE_SDK/GD32VW55x_RELEASE_V1.0.2/MSDK/plf/GD32VW55x_standard_peripheral/Source\gd32vw55x_pmu.c ****       \arg        PMU_FLAG_RESET_WAKEUP: reset wakeup flag
 483:C:/Users/stapi/OneDrive/Desktop/GD32VW553/V1_MQTT_OK/GD32VW55X_Wifi_BLE_SDK/GD32VW55x_RELEASE_V1.0.2/MSDK/plf/GD32VW55x_standard_peripheral/Source\gd32vw55x_pmu.c ****       \arg        PMU_FLAG_RESET_STANDBY: reset standby flag
 484:C:/Users/stapi/OneDrive/Desktop/GD32VW553/V1_MQTT_OK/GD32VW55X_Wifi_BLE_SDK/GD32VW55x_RELEASE_V1.0.2/MSDK/plf/GD32VW55x_standard_peripheral/Source\gd32vw55x_pmu.c ****       \arg        PMU_FLAG_RESET_LDRF: reset Low-driver mode ready flag
 485:C:/Users/stapi/OneDrive/Desktop/GD32VW553/V1_MQTT_OK/GD32VW55X_Wifi_BLE_SDK/GD32VW55x_RELEASE_V1.0.2/MSDK/plf/GD32VW55x_standard_peripheral/Source\gd32vw55x_pmu.c ****     \param[out] none
 486:C:/Users/stapi/OneDrive/Desktop/GD32VW553/V1_MQTT_OK/GD32VW55X_Wifi_BLE_SDK/GD32VW55x_RELEASE_V1.0.2/MSDK/plf/GD32VW55x_standard_peripheral/Source\gd32vw55x_pmu.c ****     \retval     none
 487:C:/Users/stapi/OneDrive/Desktop/GD32VW553/V1_MQTT_OK/GD32VW55X_Wifi_BLE_SDK/GD32VW55x_RELEASE_V1.0.2/MSDK/plf/GD32VW55x_standard_peripheral/Source\gd32vw55x_pmu.c **** */
 488:C:/Users/stapi/OneDrive/Desktop/GD32VW553/V1_MQTT_OK/GD32VW55X_Wifi_BLE_SDK/GD32VW55x_RELEASE_V1.0.2/MSDK/plf/GD32VW55x_standard_peripheral/Source\gd32vw55x_pmu.c **** void pmu_flag_clear(uint32_t flag)
 489:C:/Users/stapi/OneDrive/Desktop/GD32VW553/V1_MQTT_OK/GD32VW55X_Wifi_BLE_SDK/GD32VW55x_RELEASE_V1.0.2/MSDK/plf/GD32VW55x_standard_peripheral/Source\gd32vw55x_pmu.c **** {
 912              		.loc 1 489 1 is_stmt 1
 913              		.cfi_startproc
 914              	.LVL48:
 490:C:/Users/stapi/OneDrive/Desktop/GD32VW553/V1_MQTT_OK/GD32VW55X_Wifi_BLE_SDK/GD32VW55x_RELEASE_V1.0.2/MSDK/plf/GD32VW55x_standard_peripheral/Source\gd32vw55x_pmu.c ****     if(PMU_FLAG_RESET_LDRF == flag) {
 915              		.loc 1 490 5
 916              		.loc 1 490 7 is_stmt 0
 917 0000 B7070C00 		li	a5,786432
 491:C:/Users/stapi/OneDrive/Desktop/GD32VW553/V1_MQTT_OK/GD32VW55X_Wifi_BLE_SDK/GD32VW55x_RELEASE_V1.0.2/MSDK/plf/GD32VW55x_standard_peripheral/Source\gd32vw55x_pmu.c ****         PMU_CS0 |= flag;
 918              		.loc 1 491 17
 919 0004 37770040 		li	a4,1073770496
 490:C:/Users/stapi/OneDrive/Desktop/GD32VW553/V1_MQTT_OK/GD32VW55X_Wifi_BLE_SDK/GD32VW55x_RELEASE_V1.0.2/MSDK/plf/GD32VW55x_standard_peripheral/Source\gd32vw55x_pmu.c ****     if(PMU_FLAG_RESET_LDRF == flag) {
 920              		.loc 1 490 7
 921 0008 6316F500 		bne	a0,a5,.L42
 922              		.loc 1 491 9 is_stmt 1
 923              		.loc 1 491 17 is_stmt 0
 924 000c 5C43     		lw	a5,4(a4)
 925 000e 5D8D     		or	a0,a5,a0
 926              	.LVL49:
 927 0010 48C3     		sw	a0,4(a4)
 928 0012 8280     		ret
 929              	.LVL50:
 930              	.L42:
 492:C:/Users/stapi/OneDrive/Desktop/GD32VW553/V1_MQTT_OK/GD32VW55X_Wifi_BLE_SDK/GD32VW55x_RELEASE_V1.0.2/MSDK/plf/GD32VW55x_standard_peripheral/Source\gd32vw55x_pmu.c ****     }else {
 493:C:/Users/stapi/OneDrive/Desktop/GD32VW553/V1_MQTT_OK/GD32VW55X_Wifi_BLE_SDK/GD32VW55x_RELEASE_V1.0.2/MSDK/plf/GD32VW55x_standard_peripheral/Source\gd32vw55x_pmu.c ****         PMU_CTL0 |= flag;
 931              		.loc 1 493 9 is_stmt 1
 932              		.loc 1 493 18 is_stmt 0
 933 0014 1C43     		lw	a5,0(a4)
 934 0016 5D8D     		or	a0,a5,a0
 935              	.LVL51:
 936 0018 08C3     		sw	a0,0(a4)
 494:C:/Users/stapi/OneDrive/Desktop/GD32VW553/V1_MQTT_OK/GD32VW55X_Wifi_BLE_SDK/GD32VW55x_RELEASE_V1.0.2/MSDK/plf/GD32VW55x_standard_peripheral/Source\gd32vw55x_pmu.c ****     }
 495:C:/Users/stapi/OneDrive/Desktop/GD32VW553/V1_MQTT_OK/GD32VW55X_Wifi_BLE_SDK/GD32VW55x_RELEASE_V1.0.2/MSDK/plf/GD32VW55x_standard_peripheral/Source\gd32vw55x_pmu.c **** }
 937              		.loc 1 495 1
 938 001a 8280     		ret
 939              		.cfi_endproc
 940              	.LFE389:
 942              		.section	.text.pmu_interrupt_enable,"ax",@progbits
 943              		.align	1
 944              		.globl	pmu_interrupt_enable
 946              	pmu_interrupt_enable:
 947              	.LFB390:
 496:C:/Users/stapi/OneDrive/Desktop/GD32VW553/V1_MQTT_OK/GD32VW55X_Wifi_BLE_SDK/GD32VW55x_RELEASE_V1.0.2/MSDK/plf/GD32VW55x_standard_peripheral/Source\gd32vw55x_pmu.c **** 
 497:C:/Users/stapi/OneDrive/Desktop/GD32VW553/V1_MQTT_OK/GD32VW55X_Wifi_BLE_SDK/GD32VW55x_RELEASE_V1.0.2/MSDK/plf/GD32VW55x_standard_peripheral/Source\gd32vw55x_pmu.c **** /*!
 498:C:/Users/stapi/OneDrive/Desktop/GD32VW553/V1_MQTT_OK/GD32VW55X_Wifi_BLE_SDK/GD32VW55x_RELEASE_V1.0.2/MSDK/plf/GD32VW55x_standard_peripheral/Source\gd32vw55x_pmu.c ****     \brief      enable PMU interrupt
 499:C:/Users/stapi/OneDrive/Desktop/GD32VW553/V1_MQTT_OK/GD32VW55X_Wifi_BLE_SDK/GD32VW55x_RELEASE_V1.0.2/MSDK/plf/GD32VW55x_standard_peripheral/Source\gd32vw55x_pmu.c ****     \param[in]  interrupt: the PMU interrupt
 500:C:/Users/stapi/OneDrive/Desktop/GD32VW553/V1_MQTT_OK/GD32VW55X_Wifi_BLE_SDK/GD32VW55x_RELEASE_V1.0.2/MSDK/plf/GD32VW55x_standard_peripheral/Source\gd32vw55x_pmu.c ****                 only one parameter can be selected which is shown as below:
 501:C:/Users/stapi/OneDrive/Desktop/GD32VW553/V1_MQTT_OK/GD32VW55X_Wifi_BLE_SDK/GD32VW55x_RELEASE_V1.0.2/MSDK/plf/GD32VW55x_standard_peripheral/Source\gd32vw55x_pmu.c ****       \arg        PMU_INT_BLE_POWER_FALL: BLE power status falling edge interrupt
 502:C:/Users/stapi/OneDrive/Desktop/GD32VW553/V1_MQTT_OK/GD32VW55X_Wifi_BLE_SDK/GD32VW55x_RELEASE_V1.0.2/MSDK/plf/GD32VW55x_standard_peripheral/Source\gd32vw55x_pmu.c ****       \arg        PMU_INT_BLE_POWER_RISE: BLE power status rising edge interrupt
 503:C:/Users/stapi/OneDrive/Desktop/GD32VW553/V1_MQTT_OK/GD32VW55X_Wifi_BLE_SDK/GD32VW55x_RELEASE_V1.0.2/MSDK/plf/GD32VW55x_standard_peripheral/Source\gd32vw55x_pmu.c ****     \param[out] none
 504:C:/Users/stapi/OneDrive/Desktop/GD32VW553/V1_MQTT_OK/GD32VW55X_Wifi_BLE_SDK/GD32VW55x_RELEASE_V1.0.2/MSDK/plf/GD32VW55x_standard_peripheral/Source\gd32vw55x_pmu.c ****     \retval     none
 505:C:/Users/stapi/OneDrive/Desktop/GD32VW553/V1_MQTT_OK/GD32VW55X_Wifi_BLE_SDK/GD32VW55x_RELEASE_V1.0.2/MSDK/plf/GD32VW55x_standard_peripheral/Source\gd32vw55x_pmu.c **** */
 506:C:/Users/stapi/OneDrive/Desktop/GD32VW553/V1_MQTT_OK/GD32VW55X_Wifi_BLE_SDK/GD32VW55x_RELEASE_V1.0.2/MSDK/plf/GD32VW55x_standard_peripheral/Source\gd32vw55x_pmu.c **** void pmu_interrupt_enable(uint32_t interrupt)
 507:C:/Users/stapi/OneDrive/Desktop/GD32VW553/V1_MQTT_OK/GD32VW55X_Wifi_BLE_SDK/GD32VW55x_RELEASE_V1.0.2/MSDK/plf/GD32VW55x_standard_peripheral/Source\gd32vw55x_pmu.c **** {
 948              		.loc 1 507 1 is_stmt 1
 949              		.cfi_startproc
 950              	.LVL52:
 508:C:/Users/stapi/OneDrive/Desktop/GD32VW553/V1_MQTT_OK/GD32VW55X_Wifi_BLE_SDK/GD32VW55x_RELEASE_V1.0.2/MSDK/plf/GD32VW55x_standard_peripheral/Source\gd32vw55x_pmu.c ****     PMU_INTEN |= (uint32_t)interrupt;
 951              		.loc 1 508 5
 952              		.loc 1 508 15 is_stmt 0
 953 0000 37770040 		li	a4,1073770496
 954 0004 1C5B     		lw	a5,48(a4)
 955 0006 C98F     		or	a5,a5,a0
 956 0008 1CDB     		sw	a5,48(a4)
 509:C:/Users/stapi/OneDrive/Desktop/GD32VW553/V1_MQTT_OK/GD32VW55X_Wifi_BLE_SDK/GD32VW55x_RELEASE_V1.0.2/MSDK/plf/GD32VW55x_standard_peripheral/Source\gd32vw55x_pmu.c **** }
 957              		.loc 1 509 1
 958 000a 8280     		ret
 959              		.cfi_endproc
 960              	.LFE390:
 962              		.section	.text.pmu_interrupt_disable,"ax",@progbits
 963              		.align	1
 964              		.globl	pmu_interrupt_disable
 966              	pmu_interrupt_disable:
 967              	.LFB391:
 510:C:/Users/stapi/OneDrive/Desktop/GD32VW553/V1_MQTT_OK/GD32VW55X_Wifi_BLE_SDK/GD32VW55x_RELEASE_V1.0.2/MSDK/plf/GD32VW55x_standard_peripheral/Source\gd32vw55x_pmu.c **** 
 511:C:/Users/stapi/OneDrive/Desktop/GD32VW553/V1_MQTT_OK/GD32VW55X_Wifi_BLE_SDK/GD32VW55x_RELEASE_V1.0.2/MSDK/plf/GD32VW55x_standard_peripheral/Source\gd32vw55x_pmu.c **** /*!
 512:C:/Users/stapi/OneDrive/Desktop/GD32VW553/V1_MQTT_OK/GD32VW55X_Wifi_BLE_SDK/GD32VW55x_RELEASE_V1.0.2/MSDK/plf/GD32VW55x_standard_peripheral/Source\gd32vw55x_pmu.c ****     \brief      disable PMU interrupt
 513:C:/Users/stapi/OneDrive/Desktop/GD32VW553/V1_MQTT_OK/GD32VW55X_Wifi_BLE_SDK/GD32VW55x_RELEASE_V1.0.2/MSDK/plf/GD32VW55x_standard_peripheral/Source\gd32vw55x_pmu.c ****     \param[in]  interrupt: the PMU interrupt
 514:C:/Users/stapi/OneDrive/Desktop/GD32VW553/V1_MQTT_OK/GD32VW55X_Wifi_BLE_SDK/GD32VW55x_RELEASE_V1.0.2/MSDK/plf/GD32VW55x_standard_peripheral/Source\gd32vw55x_pmu.c ****                 only one parameter can be selected which is shown as below:
 515:C:/Users/stapi/OneDrive/Desktop/GD32VW553/V1_MQTT_OK/GD32VW55X_Wifi_BLE_SDK/GD32VW55x_RELEASE_V1.0.2/MSDK/plf/GD32VW55x_standard_peripheral/Source\gd32vw55x_pmu.c ****       \arg        PMU_INT_BLE_POWER_FALL: BLE power status falling edge interrupt
 516:C:/Users/stapi/OneDrive/Desktop/GD32VW553/V1_MQTT_OK/GD32VW55X_Wifi_BLE_SDK/GD32VW55x_RELEASE_V1.0.2/MSDK/plf/GD32VW55x_standard_peripheral/Source\gd32vw55x_pmu.c ****       \arg        PMU_INT_BLE_POWER_RISE: BLE power status rising edge interrupt
 517:C:/Users/stapi/OneDrive/Desktop/GD32VW553/V1_MQTT_OK/GD32VW55X_Wifi_BLE_SDK/GD32VW55x_RELEASE_V1.0.2/MSDK/plf/GD32VW55x_standard_peripheral/Source\gd32vw55x_pmu.c ****     \param[out] none
 518:C:/Users/stapi/OneDrive/Desktop/GD32VW553/V1_MQTT_OK/GD32VW55X_Wifi_BLE_SDK/GD32VW55x_RELEASE_V1.0.2/MSDK/plf/GD32VW55x_standard_peripheral/Source\gd32vw55x_pmu.c ****     \retval     none
 519:C:/Users/stapi/OneDrive/Desktop/GD32VW553/V1_MQTT_OK/GD32VW55X_Wifi_BLE_SDK/GD32VW55x_RELEASE_V1.0.2/MSDK/plf/GD32VW55x_standard_peripheral/Source\gd32vw55x_pmu.c **** */
 520:C:/Users/stapi/OneDrive/Desktop/GD32VW553/V1_MQTT_OK/GD32VW55X_Wifi_BLE_SDK/GD32VW55x_RELEASE_V1.0.2/MSDK/plf/GD32VW55x_standard_peripheral/Source\gd32vw55x_pmu.c **** void pmu_interrupt_disable(uint32_t interrupt)
 521:C:/Users/stapi/OneDrive/Desktop/GD32VW553/V1_MQTT_OK/GD32VW55X_Wifi_BLE_SDK/GD32VW55x_RELEASE_V1.0.2/MSDK/plf/GD32VW55x_standard_peripheral/Source\gd32vw55x_pmu.c **** {
 968              		.loc 1 521 1 is_stmt 1
 969              		.cfi_startproc
 970              	.LVL53:
 522:C:/Users/stapi/OneDrive/Desktop/GD32VW553/V1_MQTT_OK/GD32VW55X_Wifi_BLE_SDK/GD32VW55x_RELEASE_V1.0.2/MSDK/plf/GD32VW55x_standard_peripheral/Source\gd32vw55x_pmu.c ****     PMU_INTEN &= ~((uint32_t)interrupt);
 971              		.loc 1 522 5
 972              		.loc 1 522 15 is_stmt 0
 973 0000 B7770040 		li	a5,1073770496
 974 0004 985B     		lw	a4,48(a5)
 975 0006 3375A740 		andn	a0,a4,a0
 976              	.LVL54:
 977 000a 88DB     		sw	a0,48(a5)
 523:C:/Users/stapi/OneDrive/Desktop/GD32VW553/V1_MQTT_OK/GD32VW55X_Wifi_BLE_SDK/GD32VW55x_RELEASE_V1.0.2/MSDK/plf/GD32VW55x_standard_peripheral/Source\gd32vw55x_pmu.c **** }
 978              		.loc 1 523 1
 979 000c 8280     		ret
 980              		.cfi_endproc
 981              	.LFE391:
 983              		.section	.text.pmu_interrupt_flag_get,"ax",@progbits
 984              		.align	1
 985              		.globl	pmu_interrupt_flag_get
 987              	pmu_interrupt_flag_get:
 988              	.LFB392:
 524:C:/Users/stapi/OneDrive/Desktop/GD32VW553/V1_MQTT_OK/GD32VW55X_Wifi_BLE_SDK/GD32VW55x_RELEASE_V1.0.2/MSDK/plf/GD32VW55x_standard_peripheral/Source\gd32vw55x_pmu.c **** 
 525:C:/Users/stapi/OneDrive/Desktop/GD32VW553/V1_MQTT_OK/GD32VW55X_Wifi_BLE_SDK/GD32VW55x_RELEASE_V1.0.2/MSDK/plf/GD32VW55x_standard_peripheral/Source\gd32vw55x_pmu.c **** /*!
 526:C:/Users/stapi/OneDrive/Desktop/GD32VW553/V1_MQTT_OK/GD32VW55X_Wifi_BLE_SDK/GD32VW55x_RELEASE_V1.0.2/MSDK/plf/GD32VW55x_standard_peripheral/Source\gd32vw55x_pmu.c ****     \brief      get PMU interrupt flag
 527:C:/Users/stapi/OneDrive/Desktop/GD32VW553/V1_MQTT_OK/GD32VW55X_Wifi_BLE_SDK/GD32VW55x_RELEASE_V1.0.2/MSDK/plf/GD32VW55x_standard_peripheral/Source\gd32vw55x_pmu.c ****     \param[in]  int_flag: the PMU interrupt flag
 528:C:/Users/stapi/OneDrive/Desktop/GD32VW553/V1_MQTT_OK/GD32VW55X_Wifi_BLE_SDK/GD32VW55x_RELEASE_V1.0.2/MSDK/plf/GD32VW55x_standard_peripheral/Source\gd32vw55x_pmu.c ****                 only one parameter can be selected which is shown as below:
 529:C:/Users/stapi/OneDrive/Desktop/GD32VW553/V1_MQTT_OK/GD32VW55X_Wifi_BLE_SDK/GD32VW55x_RELEASE_V1.0.2/MSDK/plf/GD32VW55x_standard_peripheral/Source\gd32vw55x_pmu.c ****       \arg        PMU_INT_FLAG_BLE_POWER_FALL: BLE power status falling edge interrupt
 530:C:/Users/stapi/OneDrive/Desktop/GD32VW553/V1_MQTT_OK/GD32VW55X_Wifi_BLE_SDK/GD32VW55x_RELEASE_V1.0.2/MSDK/plf/GD32VW55x_standard_peripheral/Source\gd32vw55x_pmu.c ****       \arg        PMU_INT_FLAG_BLE_POWER_RISE: BLE power status rising edge interrupt
 531:C:/Users/stapi/OneDrive/Desktop/GD32VW553/V1_MQTT_OK/GD32VW55X_Wifi_BLE_SDK/GD32VW55x_RELEASE_V1.0.2/MSDK/plf/GD32VW55x_standard_peripheral/Source\gd32vw55x_pmu.c ****     \param[out] none
 532:C:/Users/stapi/OneDrive/Desktop/GD32VW553/V1_MQTT_OK/GD32VW55X_Wifi_BLE_SDK/GD32VW55x_RELEASE_V1.0.2/MSDK/plf/GD32VW55x_standard_peripheral/Source\gd32vw55x_pmu.c ****     \retval     FlagStatus: SET or RESET
 533:C:/Users/stapi/OneDrive/Desktop/GD32VW553/V1_MQTT_OK/GD32VW55X_Wifi_BLE_SDK/GD32VW55x_RELEASE_V1.0.2/MSDK/plf/GD32VW55x_standard_peripheral/Source\gd32vw55x_pmu.c **** */
 534:C:/Users/stapi/OneDrive/Desktop/GD32VW553/V1_MQTT_OK/GD32VW55X_Wifi_BLE_SDK/GD32VW55x_RELEASE_V1.0.2/MSDK/plf/GD32VW55x_standard_peripheral/Source\gd32vw55x_pmu.c **** FlagStatus pmu_interrupt_flag_get(uint32_t int_flag)
 535:C:/Users/stapi/OneDrive/Desktop/GD32VW553/V1_MQTT_OK/GD32VW55X_Wifi_BLE_SDK/GD32VW55x_RELEASE_V1.0.2/MSDK/plf/GD32VW55x_standard_peripheral/Source\gd32vw55x_pmu.c **** {
 989              		.loc 1 535 1 is_stmt 1
 990              		.cfi_startproc
 991              	.LVL55:
 536:C:/Users/stapi/OneDrive/Desktop/GD32VW553/V1_MQTT_OK/GD32VW55X_Wifi_BLE_SDK/GD32VW55x_RELEASE_V1.0.2/MSDK/plf/GD32VW55x_standard_peripheral/Source\gd32vw55x_pmu.c ****     FlagStatus interrupt_flag = RESET;
 992              		.loc 1 536 5
 537:C:/Users/stapi/OneDrive/Desktop/GD32VW553/V1_MQTT_OK/GD32VW55X_Wifi_BLE_SDK/GD32VW55x_RELEASE_V1.0.2/MSDK/plf/GD32VW55x_standard_peripheral/Source\gd32vw55x_pmu.c ****     uint32_t state;
 993              		.loc 1 537 5
 538:C:/Users/stapi/OneDrive/Desktop/GD32VW553/V1_MQTT_OK/GD32VW55X_Wifi_BLE_SDK/GD32VW55x_RELEASE_V1.0.2/MSDK/plf/GD32VW55x_standard_peripheral/Source\gd32vw55x_pmu.c ****     /* check the interrupt bits */
 539:C:/Users/stapi/OneDrive/Desktop/GD32VW553/V1_MQTT_OK/GD32VW55X_Wifi_BLE_SDK/GD32VW55x_RELEASE_V1.0.2/MSDK/plf/GD32VW55x_standard_peripheral/Source\gd32vw55x_pmu.c ****     switch(int_flag){
 994              		.loc 1 539 5
 995 0000 8547     		li	a5,1
 996 0002 6307F500 		beq	a0,a5,.L47
 997 0006 8947     		li	a5,2
 998 0008 630DF500 		beq	a0,a5,.L48
 999 000c 0145     		li	a0,0
 1000              	.LVL56:
 1001 000e 8280     		ret
 1002              	.LVL57:
 1003              	.L47:
 540:C:/Users/stapi/OneDrive/Desktop/GD32VW553/V1_MQTT_OK/GD32VW55X_Wifi_BLE_SDK/GD32VW55x_RELEASE_V1.0.2/MSDK/plf/GD32VW55x_standard_peripheral/Source\gd32vw55x_pmu.c ****     case PMU_INT_FLAG_BLE_POWER_FALL:
 541:C:/Users/stapi/OneDrive/Desktop/GD32VW553/V1_MQTT_OK/GD32VW55X_Wifi_BLE_SDK/GD32VW55x_RELEASE_V1.0.2/MSDK/plf/GD32VW55x_standard_peripheral/Source\gd32vw55x_pmu.c ****         /* get BLE power status rising edge interrupt bits */
 542:C:/Users/stapi/OneDrive/Desktop/GD32VW553/V1_MQTT_OK/GD32VW55X_Wifi_BLE_SDK/GD32VW55x_RELEASE_V1.0.2/MSDK/plf/GD32VW55x_standard_peripheral/Source\gd32vw55x_pmu.c ****         state = PMU_INTF & PMU_INTF_BLE_PS_FALLF;
 1004              		.loc 1 542 9
 1005              		.loc 1 542 17 is_stmt 0
 1006 0010 B7770040 		li	a5,1073770496
 1007 0014 D857     		lw	a4,44(a5)
 1008              	.LVL58:
 543:C:/Users/stapi/OneDrive/Desktop/GD32VW553/V1_MQTT_OK/GD32VW55X_Wifi_BLE_SDK/GD32VW55x_RELEASE_V1.0.2/MSDK/plf/GD32VW55x_standard_peripheral/Source\gd32vw55x_pmu.c ****         if((PMU_INTEN & PMU_INTEN_BLE_PS_FALL_EN) && state){
 1009              		.loc 1 543 9 is_stmt 1
 1010              		.loc 1 543 13 is_stmt 0
 1011 0016 885B     		lw	a0,48(a5)
 1012              	.LVL59:
 1013              		.loc 1 543 23
 1014 0018 0589     		andi	a0,a0,1
 1015              		.loc 1 543 11
 1016 001a 01CD     		beq	a0,zero,.L46
 542:C:/Users/stapi/OneDrive/Desktop/GD32VW553/V1_MQTT_OK/GD32VW55X_Wifi_BLE_SDK/GD32VW55x_RELEASE_V1.0.2/MSDK/plf/GD32VW55x_standard_peripheral/Source\gd32vw55x_pmu.c ****         if((PMU_INTEN & PMU_INTEN_BLE_PS_FALL_EN) && state){
 1017              		.loc 1 542 15 discriminator 1
 1018 001c 13751700 		andi	a0,a4,1
 1019              	.LVL60:
 1020 0020 8280     		ret
 1021              	.LVL61:
 1022              	.L48:
 544:C:/Users/stapi/OneDrive/Desktop/GD32VW553/V1_MQTT_OK/GD32VW55X_Wifi_BLE_SDK/GD32VW55x_RELEASE_V1.0.2/MSDK/plf/GD32VW55x_standard_peripheral/Source\gd32vw55x_pmu.c ****           interrupt_flag = SET;
 545:C:/Users/stapi/OneDrive/Desktop/GD32VW553/V1_MQTT_OK/GD32VW55X_Wifi_BLE_SDK/GD32VW55x_RELEASE_V1.0.2/MSDK/plf/GD32VW55x_standard_peripheral/Source\gd32vw55x_pmu.c ****         }
 546:C:/Users/stapi/OneDrive/Desktop/GD32VW553/V1_MQTT_OK/GD32VW55X_Wifi_BLE_SDK/GD32VW55x_RELEASE_V1.0.2/MSDK/plf/GD32VW55x_standard_peripheral/Source\gd32vw55x_pmu.c ****         break;
 547:C:/Users/stapi/OneDrive/Desktop/GD32VW553/V1_MQTT_OK/GD32VW55X_Wifi_BLE_SDK/GD32VW55x_RELEASE_V1.0.2/MSDK/plf/GD32VW55x_standard_peripheral/Source\gd32vw55x_pmu.c ****     case PMU_INT_FLAG_BLE_POWER_RISE:
 548:C:/Users/stapi/OneDrive/Desktop/GD32VW553/V1_MQTT_OK/GD32VW55X_Wifi_BLE_SDK/GD32VW55x_RELEASE_V1.0.2/MSDK/plf/GD32VW55x_standard_peripheral/Source\gd32vw55x_pmu.c ****          /* get BLE power status rising edge interrupt bits */
 549:C:/Users/stapi/OneDrive/Desktop/GD32VW553/V1_MQTT_OK/GD32VW55X_Wifi_BLE_SDK/GD32VW55x_RELEASE_V1.0.2/MSDK/plf/GD32VW55x_standard_peripheral/Source\gd32vw55x_pmu.c ****         state = PMU_INTF & PMU_INTF_BLE_PS_RISEF;
 1023              		.loc 1 549 9 is_stmt 1
 1024              		.loc 1 549 17 is_stmt 0
 1025 0022 B7770040 		li	a5,1073770496
 1026 0026 D857     		lw	a4,44(a5)
 1027              	.LVL62:
 550:C:/Users/stapi/OneDrive/Desktop/GD32VW553/V1_MQTT_OK/GD32VW55X_Wifi_BLE_SDK/GD32VW55x_RELEASE_V1.0.2/MSDK/plf/GD32VW55x_standard_peripheral/Source\gd32vw55x_pmu.c ****           if((PMU_INTEN & PMU_INTEN_BLE_PS_RISE_EN) && state){
 1028              		.loc 1 550 11 is_stmt 1
 1029              		.loc 1 550 15 is_stmt 0
 1030 0028 885B     		lw	a0,48(a5)
 1031              	.LVL63:
 1032              		.loc 1 550 25
 1033 002a 0989     		andi	a0,a0,2
 1034              		.loc 1 550 13
 1035 002c 19C1     		beq	a0,zero,.L46
 1036              		.loc 1 550 53 discriminator 1
 1037 002e 13551748 		bexti	a0,a4,1
 1038              	.LVL64:
 551:C:/Users/stapi/OneDrive/Desktop/GD32VW553/V1_MQTT_OK/GD32VW55X_Wifi_BLE_SDK/GD32VW55x_RELEASE_V1.0.2/MSDK/plf/GD32VW55x_standard_peripheral/Source\gd32vw55x_pmu.c ****             interrupt_flag = SET;
 552:C:/Users/stapi/OneDrive/Desktop/GD32VW553/V1_MQTT_OK/GD32VW55X_Wifi_BLE_SDK/GD32VW55x_RELEASE_V1.0.2/MSDK/plf/GD32VW55x_standard_peripheral/Source\gd32vw55x_pmu.c ****           }
 553:C:/Users/stapi/OneDrive/Desktop/GD32VW553/V1_MQTT_OK/GD32VW55X_Wifi_BLE_SDK/GD32VW55x_RELEASE_V1.0.2/MSDK/plf/GD32VW55x_standard_peripheral/Source\gd32vw55x_pmu.c ****         break;
 554:C:/Users/stapi/OneDrive/Desktop/GD32VW553/V1_MQTT_OK/GD32VW55X_Wifi_BLE_SDK/GD32VW55x_RELEASE_V1.0.2/MSDK/plf/GD32VW55x_standard_peripheral/Source\gd32vw55x_pmu.c ****     default:
 555:C:/Users/stapi/OneDrive/Desktop/GD32VW553/V1_MQTT_OK/GD32VW55X_Wifi_BLE_SDK/GD32VW55x_RELEASE_V1.0.2/MSDK/plf/GD32VW55x_standard_peripheral/Source\gd32vw55x_pmu.c ****         break;
 556:C:/Users/stapi/OneDrive/Desktop/GD32VW553/V1_MQTT_OK/GD32VW55X_Wifi_BLE_SDK/GD32VW55x_RELEASE_V1.0.2/MSDK/plf/GD32VW55x_standard_peripheral/Source\gd32vw55x_pmu.c ****     }
 557:C:/Users/stapi/OneDrive/Desktop/GD32VW553/V1_MQTT_OK/GD32VW55X_Wifi_BLE_SDK/GD32VW55x_RELEASE_V1.0.2/MSDK/plf/GD32VW55x_standard_peripheral/Source\gd32vw55x_pmu.c ****     return interrupt_flag;
 1039              		.loc 1 557 5 is_stmt 1 discriminator 1
 1040              	.L46:
 558:C:/Users/stapi/OneDrive/Desktop/GD32VW553/V1_MQTT_OK/GD32VW55X_Wifi_BLE_SDK/GD32VW55x_RELEASE_V1.0.2/MSDK/plf/GD32VW55x_standard_peripheral/Source\gd32vw55x_pmu.c **** }
 1041              		.loc 1 558 1 is_stmt 0
 1042 0032 8280     		ret
 1043              		.cfi_endproc
