   1              		.file	"gd32vw55x_fmc.c"
   2              		.option nopic
   3              		.attribute arch, "rv32i2p0_m2p0_a2p0_f2p0_c2p0_b_p0p94"
   4              		.attribute unaligned_access, 0
   5              		.attribute stack_align, 16
   6              		.text
   7              	.Ltext0:
   8              		.cfi_sections	.debug_frame
   9              		.section	.text.fmc_unlock,"ax",@progbits
  10              		.align	1
  11              		.globl	fmc_unlock
  13              	fmc_unlock:
  14              	.LFB365:
  15              		.file 1 "C:/Users/stapi/OneDrive/Desktop/GD32VW553/V1_MQTT_OK/GD32VW55X_Wifi_BLE_SDK/GD32VW55x_REL
   1:C:/Users/stapi/OneDrive/Desktop/GD32VW553/V1_MQTT_OK/GD32VW55X_Wifi_BLE_SDK/GD32VW55x_RELEASE_V1.0.2/MSDK/plf/GD32VW55x_standard_peripheral/Source\gd32vw55x_fmc.c **** /*!
   2:C:/Users/stapi/OneDrive/Desktop/GD32VW553/V1_MQTT_OK/GD32VW55X_Wifi_BLE_SDK/GD32VW55x_RELEASE_V1.0.2/MSDK/plf/GD32VW55x_standard_peripheral/Source\gd32vw55x_fmc.c ****     \file    gd32vw55x_fmc.h
   3:C:/Users/stapi/OneDrive/Desktop/GD32VW553/V1_MQTT_OK/GD32VW55X_Wifi_BLE_SDK/GD32VW55x_RELEASE_V1.0.2/MSDK/plf/GD32VW55x_standard_peripheral/Source\gd32vw55x_fmc.c ****     \brief   definitions for the FMC
   4:C:/Users/stapi/OneDrive/Desktop/GD32VW553/V1_MQTT_OK/GD32VW55X_Wifi_BLE_SDK/GD32VW55x_RELEASE_V1.0.2/MSDK/plf/GD32VW55x_standard_peripheral/Source\gd32vw55x_fmc.c **** 
   5:C:/Users/stapi/OneDrive/Desktop/GD32VW553/V1_MQTT_OK/GD32VW55X_Wifi_BLE_SDK/GD32VW55x_RELEASE_V1.0.2/MSDK/plf/GD32VW55x_standard_peripheral/Source\gd32vw55x_fmc.c ****     \version 2023-07-20, V1.0.0, firmware for GD32VW55x
   6:C:/Users/stapi/OneDrive/Desktop/GD32VW553/V1_MQTT_OK/GD32VW55X_Wifi_BLE_SDK/GD32VW55x_RELEASE_V1.0.2/MSDK/plf/GD32VW55x_standard_peripheral/Source\gd32vw55x_fmc.c **** */
   7:C:/Users/stapi/OneDrive/Desktop/GD32VW553/V1_MQTT_OK/GD32VW55X_Wifi_BLE_SDK/GD32VW55x_RELEASE_V1.0.2/MSDK/plf/GD32VW55x_standard_peripheral/Source\gd32vw55x_fmc.c **** 
   8:C:/Users/stapi/OneDrive/Desktop/GD32VW553/V1_MQTT_OK/GD32VW55X_Wifi_BLE_SDK/GD32VW55x_RELEASE_V1.0.2/MSDK/plf/GD32VW55x_standard_peripheral/Source\gd32vw55x_fmc.c **** /*
   9:C:/Users/stapi/OneDrive/Desktop/GD32VW553/V1_MQTT_OK/GD32VW55X_Wifi_BLE_SDK/GD32VW55x_RELEASE_V1.0.2/MSDK/plf/GD32VW55x_standard_peripheral/Source\gd32vw55x_fmc.c ****     Copyright (c) 2023, GigaDevice Semiconductor Inc.
  10:C:/Users/stapi/OneDrive/Desktop/GD32VW553/V1_MQTT_OK/GD32VW55X_Wifi_BLE_SDK/GD32VW55x_RELEASE_V1.0.2/MSDK/plf/GD32VW55x_standard_peripheral/Source\gd32vw55x_fmc.c **** 
  11:C:/Users/stapi/OneDrive/Desktop/GD32VW553/V1_MQTT_OK/GD32VW55X_Wifi_BLE_SDK/GD32VW55x_RELEASE_V1.0.2/MSDK/plf/GD32VW55x_standard_peripheral/Source\gd32vw55x_fmc.c ****     Redistribution and use in source and binary forms, with or without modification,
  12:C:/Users/stapi/OneDrive/Desktop/GD32VW553/V1_MQTT_OK/GD32VW55X_Wifi_BLE_SDK/GD32VW55x_RELEASE_V1.0.2/MSDK/plf/GD32VW55x_standard_peripheral/Source\gd32vw55x_fmc.c **** are permitted provided that the following conditions are met:
  13:C:/Users/stapi/OneDrive/Desktop/GD32VW553/V1_MQTT_OK/GD32VW55X_Wifi_BLE_SDK/GD32VW55x_RELEASE_V1.0.2/MSDK/plf/GD32VW55x_standard_peripheral/Source\gd32vw55x_fmc.c **** 
  14:C:/Users/stapi/OneDrive/Desktop/GD32VW553/V1_MQTT_OK/GD32VW55X_Wifi_BLE_SDK/GD32VW55x_RELEASE_V1.0.2/MSDK/plf/GD32VW55x_standard_peripheral/Source\gd32vw55x_fmc.c ****     1. Redistributions of source code must retain the above copyright notice, this
  15:C:/Users/stapi/OneDrive/Desktop/GD32VW553/V1_MQTT_OK/GD32VW55X_Wifi_BLE_SDK/GD32VW55x_RELEASE_V1.0.2/MSDK/plf/GD32VW55x_standard_peripheral/Source\gd32vw55x_fmc.c ****        list of conditions and the following disclaimer.
  16:C:/Users/stapi/OneDrive/Desktop/GD32VW553/V1_MQTT_OK/GD32VW55X_Wifi_BLE_SDK/GD32VW55x_RELEASE_V1.0.2/MSDK/plf/GD32VW55x_standard_peripheral/Source\gd32vw55x_fmc.c ****     2. Redistributions in binary form must reproduce the above copyright notice,
  17:C:/Users/stapi/OneDrive/Desktop/GD32VW553/V1_MQTT_OK/GD32VW55X_Wifi_BLE_SDK/GD32VW55x_RELEASE_V1.0.2/MSDK/plf/GD32VW55x_standard_peripheral/Source\gd32vw55x_fmc.c ****        this list of conditions and the following disclaimer in the documentation
  18:C:/Users/stapi/OneDrive/Desktop/GD32VW553/V1_MQTT_OK/GD32VW55X_Wifi_BLE_SDK/GD32VW55x_RELEASE_V1.0.2/MSDK/plf/GD32VW55x_standard_peripheral/Source\gd32vw55x_fmc.c ****        and/or other materials provided with the distribution.
  19:C:/Users/stapi/OneDrive/Desktop/GD32VW553/V1_MQTT_OK/GD32VW55X_Wifi_BLE_SDK/GD32VW55x_RELEASE_V1.0.2/MSDK/plf/GD32VW55x_standard_peripheral/Source\gd32vw55x_fmc.c ****     3. Neither the name of the copyright holder nor the names of its contributors
  20:C:/Users/stapi/OneDrive/Desktop/GD32VW553/V1_MQTT_OK/GD32VW55X_Wifi_BLE_SDK/GD32VW55x_RELEASE_V1.0.2/MSDK/plf/GD32VW55x_standard_peripheral/Source\gd32vw55x_fmc.c ****        may be used to endorse or promote products derived from this software without
  21:C:/Users/stapi/OneDrive/Desktop/GD32VW553/V1_MQTT_OK/GD32VW55X_Wifi_BLE_SDK/GD32VW55x_RELEASE_V1.0.2/MSDK/plf/GD32VW55x_standard_peripheral/Source\gd32vw55x_fmc.c ****        specific prior written permission.
  22:C:/Users/stapi/OneDrive/Desktop/GD32VW553/V1_MQTT_OK/GD32VW55X_Wifi_BLE_SDK/GD32VW55x_RELEASE_V1.0.2/MSDK/plf/GD32VW55x_standard_peripheral/Source\gd32vw55x_fmc.c **** 
  23:C:/Users/stapi/OneDrive/Desktop/GD32VW553/V1_MQTT_OK/GD32VW55X_Wifi_BLE_SDK/GD32VW55x_RELEASE_V1.0.2/MSDK/plf/GD32VW55x_standard_peripheral/Source\gd32vw55x_fmc.c ****     THIS SOFTWARE IS PROVIDED BY THE COPYRIGHT HOLDERS AND CONTRIBUTORS "AS IS"
  24:C:/Users/stapi/OneDrive/Desktop/GD32VW553/V1_MQTT_OK/GD32VW55X_Wifi_BLE_SDK/GD32VW55x_RELEASE_V1.0.2/MSDK/plf/GD32VW55x_standard_peripheral/Source\gd32vw55x_fmc.c **** AND ANY EXPRESS OR IMPLIED WARRANTIES, INCLUDING, BUT NOT LIMITED TO, THE IMPLIED
  25:C:/Users/stapi/OneDrive/Desktop/GD32VW553/V1_MQTT_OK/GD32VW55X_Wifi_BLE_SDK/GD32VW55x_RELEASE_V1.0.2/MSDK/plf/GD32VW55x_standard_peripheral/Source\gd32vw55x_fmc.c **** WARRANTIES OF MERCHANTABILITY AND FITNESS FOR A PARTICULAR PURPOSE ARE DISCLAIMED.
  26:C:/Users/stapi/OneDrive/Desktop/GD32VW553/V1_MQTT_OK/GD32VW55X_Wifi_BLE_SDK/GD32VW55x_RELEASE_V1.0.2/MSDK/plf/GD32VW55x_standard_peripheral/Source\gd32vw55x_fmc.c **** IN NO EVENT SHALL THE COPYRIGHT HOLDER OR CONTRIBUTORS BE LIABLE FOR ANY DIRECT,
  27:C:/Users/stapi/OneDrive/Desktop/GD32VW553/V1_MQTT_OK/GD32VW55X_Wifi_BLE_SDK/GD32VW55x_RELEASE_V1.0.2/MSDK/plf/GD32VW55x_standard_peripheral/Source\gd32vw55x_fmc.c **** INDIRECT, INCIDENTAL, SPECIAL, EXEMPLARY, OR CONSEQUENTIAL DAMAGES (INCLUDING, BUT
  28:C:/Users/stapi/OneDrive/Desktop/GD32VW553/V1_MQTT_OK/GD32VW55X_Wifi_BLE_SDK/GD32VW55x_RELEASE_V1.0.2/MSDK/plf/GD32VW55x_standard_peripheral/Source\gd32vw55x_fmc.c **** NOT LIMITED TO, PROCUREMENT OF SUBSTITUTE GOODS OR SERVICES; LOSS OF USE, DATA, OR
  29:C:/Users/stapi/OneDrive/Desktop/GD32VW553/V1_MQTT_OK/GD32VW55X_Wifi_BLE_SDK/GD32VW55x_RELEASE_V1.0.2/MSDK/plf/GD32VW55x_standard_peripheral/Source\gd32vw55x_fmc.c **** PROFITS; OR BUSINESS INTERRUPTION) HOWEVER CAUSED AND ON ANY THEORY OF LIABILITY,
  30:C:/Users/stapi/OneDrive/Desktop/GD32VW553/V1_MQTT_OK/GD32VW55X_Wifi_BLE_SDK/GD32VW55x_RELEASE_V1.0.2/MSDK/plf/GD32VW55x_standard_peripheral/Source\gd32vw55x_fmc.c **** WHETHER IN CONTRACT, STRICT LIABILITY, OR TORT (INCLUDING NEGLIGENCE OR OTHERWISE)
  31:C:/Users/stapi/OneDrive/Desktop/GD32VW553/V1_MQTT_OK/GD32VW55X_Wifi_BLE_SDK/GD32VW55x_RELEASE_V1.0.2/MSDK/plf/GD32VW55x_standard_peripheral/Source\gd32vw55x_fmc.c **** ARISING IN ANY WAY OUT OF THE USE OF THIS SOFTWARE, EVEN IF ADVISED OF THE POSSIBILITY
  32:C:/Users/stapi/OneDrive/Desktop/GD32VW553/V1_MQTT_OK/GD32VW55X_Wifi_BLE_SDK/GD32VW55x_RELEASE_V1.0.2/MSDK/plf/GD32VW55x_standard_peripheral/Source\gd32vw55x_fmc.c **** OF SUCH DAMAGE.
  33:C:/Users/stapi/OneDrive/Desktop/GD32VW553/V1_MQTT_OK/GD32VW55X_Wifi_BLE_SDK/GD32VW55x_RELEASE_V1.0.2/MSDK/plf/GD32VW55x_standard_peripheral/Source\gd32vw55x_fmc.c ****  */
  34:C:/Users/stapi/OneDrive/Desktop/GD32VW553/V1_MQTT_OK/GD32VW55X_Wifi_BLE_SDK/GD32VW55x_RELEASE_V1.0.2/MSDK/plf/GD32VW55x_standard_peripheral/Source\gd32vw55x_fmc.c **** 
  35:C:/Users/stapi/OneDrive/Desktop/GD32VW553/V1_MQTT_OK/GD32VW55X_Wifi_BLE_SDK/GD32VW55x_RELEASE_V1.0.2/MSDK/plf/GD32VW55x_standard_peripheral/Source\gd32vw55x_fmc.c **** #include "gd32vw55x_fmc.h"
  36:C:/Users/stapi/OneDrive/Desktop/GD32VW553/V1_MQTT_OK/GD32VW55X_Wifi_BLE_SDK/GD32VW55x_RELEASE_V1.0.2/MSDK/plf/GD32VW55x_standard_peripheral/Source\gd32vw55x_fmc.c **** 
  37:C:/Users/stapi/OneDrive/Desktop/GD32VW553/V1_MQTT_OK/GD32VW55X_Wifi_BLE_SDK/GD32VW55x_RELEASE_V1.0.2/MSDK/plf/GD32VW55x_standard_peripheral/Source\gd32vw55x_fmc.c **** /* FMC mask */
  38:C:/Users/stapi/OneDrive/Desktop/GD32VW553/V1_MQTT_OK/GD32VW55X_Wifi_BLE_SDK/GD32VW55x_RELEASE_V1.0.2/MSDK/plf/GD32VW55x_standard_peripheral/Source\gd32vw55x_fmc.c **** /* FMC_OBR_SPC mask */
  39:C:/Users/stapi/OneDrive/Desktop/GD32VW553/V1_MQTT_OK/GD32VW55X_Wifi_BLE_SDK/GD32VW55x_RELEASE_V1.0.2/MSDK/plf/GD32VW55x_standard_peripheral/Source\gd32vw55x_fmc.c **** #define FMC_OBR_SPC_MASK                  ((uint32_t)0xFFFFFF00U)
  40:C:/Users/stapi/OneDrive/Desktop/GD32VW553/V1_MQTT_OK/GD32VW55X_Wifi_BLE_SDK/GD32VW55x_RELEASE_V1.0.2/MSDK/plf/GD32VW55x_standard_peripheral/Source\gd32vw55x_fmc.c **** /* FMC_OBUSER mask */
  41:C:/Users/stapi/OneDrive/Desktop/GD32VW553/V1_MQTT_OK/GD32VW55X_Wifi_BLE_SDK/GD32VW55x_RELEASE_V1.0.2/MSDK/plf/GD32VW55x_standard_peripheral/Source\gd32vw55x_fmc.c **** #define FMC_OBUSER_MASK                   ((uint32_t)0x00000000U)
  42:C:/Users/stapi/OneDrive/Desktop/GD32VW553/V1_MQTT_OK/GD32VW55X_Wifi_BLE_SDK/GD32VW55x_RELEASE_V1.0.2/MSDK/plf/GD32VW55x_standard_peripheral/Source\gd32vw55x_fmc.c **** /* FMC_OBSTAT security protection mask */
  43:C:/Users/stapi/OneDrive/Desktop/GD32VW553/V1_MQTT_OK/GD32VW55X_Wifi_BLE_SDK/GD32VW55x_RELEASE_V1.0.2/MSDK/plf/GD32VW55x_standard_peripheral/Source\gd32vw55x_fmc.c **** #define FMC_OBSTAT_SPCSTAT_MASK           ((uint32_t)0x00000002U)
  44:C:/Users/stapi/OneDrive/Desktop/GD32VW553/V1_MQTT_OK/GD32VW55X_Wifi_BLE_SDK/GD32VW55x_RELEASE_V1.0.2/MSDK/plf/GD32VW55x_standard_peripheral/Source\gd32vw55x_fmc.c **** /* FMC_OBWRPx/FMC_OFRG end page of region offset */
  45:C:/Users/stapi/OneDrive/Desktop/GD32VW553/V1_MQTT_OK/GD32VW55X_Wifi_BLE_SDK/GD32VW55x_RELEASE_V1.0.2/MSDK/plf/GD32VW55x_standard_peripheral/Source\gd32vw55x_fmc.c **** #define FMC_EPAGE_OFFSET                  ((uint32_t)16U)
  46:C:/Users/stapi/OneDrive/Desktop/GD32VW553/V1_MQTT_OK/GD32VW55X_Wifi_BLE_SDK/GD32VW55x_RELEASE_V1.0.2/MSDK/plf/GD32VW55x_standard_peripheral/Source\gd32vw55x_fmc.c **** 
  47:C:/Users/stapi/OneDrive/Desktop/GD32VW553/V1_MQTT_OK/GD32VW55X_Wifi_BLE_SDK/GD32VW55x_RELEASE_V1.0.2/MSDK/plf/GD32VW55x_standard_peripheral/Source\gd32vw55x_fmc.c **** /*!
  48:C:/Users/stapi/OneDrive/Desktop/GD32VW553/V1_MQTT_OK/GD32VW55X_Wifi_BLE_SDK/GD32VW55x_RELEASE_V1.0.2/MSDK/plf/GD32VW55x_standard_peripheral/Source\gd32vw55x_fmc.c ****     \brief      unlock the main FMC operation
  49:C:/Users/stapi/OneDrive/Desktop/GD32VW553/V1_MQTT_OK/GD32VW55X_Wifi_BLE_SDK/GD32VW55x_RELEASE_V1.0.2/MSDK/plf/GD32VW55x_standard_peripheral/Source\gd32vw55x_fmc.c ****                 it is better to used in pairs with fmc_lock
  50:C:/Users/stapi/OneDrive/Desktop/GD32VW553/V1_MQTT_OK/GD32VW55X_Wifi_BLE_SDK/GD32VW55x_RELEASE_V1.0.2/MSDK/plf/GD32VW55x_standard_peripheral/Source\gd32vw55x_fmc.c ****     \param[in]  none
  51:C:/Users/stapi/OneDrive/Desktop/GD32VW553/V1_MQTT_OK/GD32VW55X_Wifi_BLE_SDK/GD32VW55x_RELEASE_V1.0.2/MSDK/plf/GD32VW55x_standard_peripheral/Source\gd32vw55x_fmc.c ****     \param[out] none
  52:C:/Users/stapi/OneDrive/Desktop/GD32VW553/V1_MQTT_OK/GD32VW55X_Wifi_BLE_SDK/GD32VW55x_RELEASE_V1.0.2/MSDK/plf/GD32VW55x_standard_peripheral/Source\gd32vw55x_fmc.c ****     \retval     none
  53:C:/Users/stapi/OneDrive/Desktop/GD32VW553/V1_MQTT_OK/GD32VW55X_Wifi_BLE_SDK/GD32VW55x_RELEASE_V1.0.2/MSDK/plf/GD32VW55x_standard_peripheral/Source\gd32vw55x_fmc.c **** */
  54:C:/Users/stapi/OneDrive/Desktop/GD32VW553/V1_MQTT_OK/GD32VW55X_Wifi_BLE_SDK/GD32VW55x_RELEASE_V1.0.2/MSDK/plf/GD32VW55x_standard_peripheral/Source\gd32vw55x_fmc.c **** void fmc_unlock(void)
  55:C:/Users/stapi/OneDrive/Desktop/GD32VW553/V1_MQTT_OK/GD32VW55X_Wifi_BLE_SDK/GD32VW55x_RELEASE_V1.0.2/MSDK/plf/GD32VW55x_standard_peripheral/Source\gd32vw55x_fmc.c **** {
  16              		.loc 1 55 1
  17              		.cfi_startproc
  56:C:/Users/stapi/OneDrive/Desktop/GD32VW553/V1_MQTT_OK/GD32VW55X_Wifi_BLE_SDK/GD32VW55x_RELEASE_V1.0.2/MSDK/plf/GD32VW55x_standard_peripheral/Source\gd32vw55x_fmc.c ****     if(RESET != (FMC_CTL & FMC_CTL_LK)){
  18              		.loc 1 56 5
  19              		.loc 1 56 18 is_stmt 0
  20 0000 B7270240 		li	a5,1073881088
  21 0004 984B     		lw	a4,16(a5)
  22              		.loc 1 56 26
  23 0006 13770708 		andi	a4,a4,128
  24              		.loc 1 56 7
  25 000a 19CB     		beq	a4,zero,.L1
  57:C:/Users/stapi/OneDrive/Desktop/GD32VW553/V1_MQTT_OK/GD32VW55X_Wifi_BLE_SDK/GD32VW55x_RELEASE_V1.0.2/MSDK/plf/GD32VW55x_standard_peripheral/Source\gd32vw55x_fmc.c ****         /* write the FMC unlock key */
  58:C:/Users/stapi/OneDrive/Desktop/GD32VW553/V1_MQTT_OK/GD32VW55X_Wifi_BLE_SDK/GD32VW55x_RELEASE_V1.0.2/MSDK/plf/GD32VW55x_standard_peripheral/Source\gd32vw55x_fmc.c ****         FMC_KEY = UNLOCK_KEY0;
  26              		.loc 1 58 9 is_stmt 1
  27              		.loc 1 58 17 is_stmt 0
  28 000c 37076745 		li	a4,1164378112
  29 0010 13073712 		addi	a4,a4,291
  30 0014 D8C3     		sw	a4,4(a5)
  59:C:/Users/stapi/OneDrive/Desktop/GD32VW553/V1_MQTT_OK/GD32VW55X_Wifi_BLE_SDK/GD32VW55x_RELEASE_V1.0.2/MSDK/plf/GD32VW55x_standard_peripheral/Source\gd32vw55x_fmc.c ****         FMC_KEY = UNLOCK_KEY1;
  31              		.loc 1 59 9 is_stmt 1
  32              		.loc 1 59 17 is_stmt 0
  33 0016 3797EFCD 		li	a4,-839938048
  34 001a 1307B79A 		addi	a4,a4,-1621
  35 001e D8C3     		sw	a4,4(a5)
  36              	.L1:
  60:C:/Users/stapi/OneDrive/Desktop/GD32VW553/V1_MQTT_OK/GD32VW55X_Wifi_BLE_SDK/GD32VW55x_RELEASE_V1.0.2/MSDK/plf/GD32VW55x_standard_peripheral/Source\gd32vw55x_fmc.c ****     }
  61:C:/Users/stapi/OneDrive/Desktop/GD32VW553/V1_MQTT_OK/GD32VW55X_Wifi_BLE_SDK/GD32VW55x_RELEASE_V1.0.2/MSDK/plf/GD32VW55x_standard_peripheral/Source\gd32vw55x_fmc.c **** }
  37              		.loc 1 61 1
  38 0020 8280     		ret
  39              		.cfi_endproc
  40              	.LFE365:
  42              		.section	.text.fmc_lock,"ax",@progbits
  43              		.align	1
  44              		.globl	fmc_lock
  46              	fmc_lock:
  47              	.LFB366:
  62:C:/Users/stapi/OneDrive/Desktop/GD32VW553/V1_MQTT_OK/GD32VW55X_Wifi_BLE_SDK/GD32VW55x_RELEASE_V1.0.2/MSDK/plf/GD32VW55x_standard_peripheral/Source\gd32vw55x_fmc.c **** 
  63:C:/Users/stapi/OneDrive/Desktop/GD32VW553/V1_MQTT_OK/GD32VW55X_Wifi_BLE_SDK/GD32VW55x_RELEASE_V1.0.2/MSDK/plf/GD32VW55x_standard_peripheral/Source\gd32vw55x_fmc.c **** /*!
  64:C:/Users/stapi/OneDrive/Desktop/GD32VW553/V1_MQTT_OK/GD32VW55X_Wifi_BLE_SDK/GD32VW55x_RELEASE_V1.0.2/MSDK/plf/GD32VW55x_standard_peripheral/Source\gd32vw55x_fmc.c ****     \brief      lock the main FMC operation
  65:C:/Users/stapi/OneDrive/Desktop/GD32VW553/V1_MQTT_OK/GD32VW55X_Wifi_BLE_SDK/GD32VW55x_RELEASE_V1.0.2/MSDK/plf/GD32VW55x_standard_peripheral/Source\gd32vw55x_fmc.c ****                 it is better to used in pairs with fmc_unlock after an operation
  66:C:/Users/stapi/OneDrive/Desktop/GD32VW553/V1_MQTT_OK/GD32VW55X_Wifi_BLE_SDK/GD32VW55x_RELEASE_V1.0.2/MSDK/plf/GD32VW55x_standard_peripheral/Source\gd32vw55x_fmc.c ****     \param[in]  none
  67:C:/Users/stapi/OneDrive/Desktop/GD32VW553/V1_MQTT_OK/GD32VW55X_Wifi_BLE_SDK/GD32VW55x_RELEASE_V1.0.2/MSDK/plf/GD32VW55x_standard_peripheral/Source\gd32vw55x_fmc.c ****     \param[out] none
  68:C:/Users/stapi/OneDrive/Desktop/GD32VW553/V1_MQTT_OK/GD32VW55X_Wifi_BLE_SDK/GD32VW55x_RELEASE_V1.0.2/MSDK/plf/GD32VW55x_standard_peripheral/Source\gd32vw55x_fmc.c ****     \retval     none
  69:C:/Users/stapi/OneDrive/Desktop/GD32VW553/V1_MQTT_OK/GD32VW55X_Wifi_BLE_SDK/GD32VW55x_RELEASE_V1.0.2/MSDK/plf/GD32VW55x_standard_peripheral/Source\gd32vw55x_fmc.c **** */
  70:C:/Users/stapi/OneDrive/Desktop/GD32VW553/V1_MQTT_OK/GD32VW55X_Wifi_BLE_SDK/GD32VW55x_RELEASE_V1.0.2/MSDK/plf/GD32VW55x_standard_peripheral/Source\gd32vw55x_fmc.c **** void fmc_lock(void)
  71:C:/Users/stapi/OneDrive/Desktop/GD32VW553/V1_MQTT_OK/GD32VW55X_Wifi_BLE_SDK/GD32VW55x_RELEASE_V1.0.2/MSDK/plf/GD32VW55x_standard_peripheral/Source\gd32vw55x_fmc.c **** {
  48              		.loc 1 71 1 is_stmt 1
  49              		.cfi_startproc
  72:C:/Users/stapi/OneDrive/Desktop/GD32VW553/V1_MQTT_OK/GD32VW55X_Wifi_BLE_SDK/GD32VW55x_RELEASE_V1.0.2/MSDK/plf/GD32VW55x_standard_peripheral/Source\gd32vw55x_fmc.c ****     /* set the LK bit */
  73:C:/Users/stapi/OneDrive/Desktop/GD32VW553/V1_MQTT_OK/GD32VW55X_Wifi_BLE_SDK/GD32VW55x_RELEASE_V1.0.2/MSDK/plf/GD32VW55x_standard_peripheral/Source\gd32vw55x_fmc.c ****     FMC_CTL |= FMC_CTL_LK;
  50              		.loc 1 73 5
  51              		.loc 1 73 13 is_stmt 0
  52 0000 37270240 		li	a4,1073881088
  53 0004 1C4B     		lw	a5,16(a4)
  54 0006 93E70708 		ori	a5,a5,128
  55 000a 1CCB     		sw	a5,16(a4)
  74:C:/Users/stapi/OneDrive/Desktop/GD32VW553/V1_MQTT_OK/GD32VW55X_Wifi_BLE_SDK/GD32VW55x_RELEASE_V1.0.2/MSDK/plf/GD32VW55x_standard_peripheral/Source\gd32vw55x_fmc.c **** }
  56              		.loc 1 74 1
  57 000c 8280     		ret
  58              		.cfi_endproc
  59              	.LFE366:
  61              		.section	.text.fmc_obr_function_enable,"ax",@progbits
  62              		.align	1
  63              		.globl	fmc_obr_function_enable
  65              	fmc_obr_function_enable:
  66              	.LFB371:
  75:C:/Users/stapi/OneDrive/Desktop/GD32VW553/V1_MQTT_OK/GD32VW55X_Wifi_BLE_SDK/GD32VW55x_RELEASE_V1.0.2/MSDK/plf/GD32VW55x_standard_peripheral/Source\gd32vw55x_fmc.c **** 
  76:C:/Users/stapi/OneDrive/Desktop/GD32VW553/V1_MQTT_OK/GD32VW55X_Wifi_BLE_SDK/GD32VW55x_RELEASE_V1.0.2/MSDK/plf/GD32VW55x_standard_peripheral/Source\gd32vw55x_fmc.c **** /*!
  77:C:/Users/stapi/OneDrive/Desktop/GD32VW553/V1_MQTT_OK/GD32VW55X_Wifi_BLE_SDK/GD32VW55x_RELEASE_V1.0.2/MSDK/plf/GD32VW55x_standard_peripheral/Source\gd32vw55x_fmc.c ****     \brief      FMC erase page
  78:C:/Users/stapi/OneDrive/Desktop/GD32VW553/V1_MQTT_OK/GD32VW55X_Wifi_BLE_SDK/GD32VW55x_RELEASE_V1.0.2/MSDK/plf/GD32VW55x_standard_peripheral/Source\gd32vw55x_fmc.c ****     \param[in]  page_address: target page address
  79:C:/Users/stapi/OneDrive/Desktop/GD32VW553/V1_MQTT_OK/GD32VW55X_Wifi_BLE_SDK/GD32VW55x_RELEASE_V1.0.2/MSDK/plf/GD32VW55x_standard_peripheral/Source\gd32vw55x_fmc.c ****     \param[out] none
  80:C:/Users/stapi/OneDrive/Desktop/GD32VW553/V1_MQTT_OK/GD32VW55X_Wifi_BLE_SDK/GD32VW55x_RELEASE_V1.0.2/MSDK/plf/GD32VW55x_standard_peripheral/Source\gd32vw55x_fmc.c ****     \retval     state of FMC
  81:C:/Users/stapi/OneDrive/Desktop/GD32VW553/V1_MQTT_OK/GD32VW55X_Wifi_BLE_SDK/GD32VW55x_RELEASE_V1.0.2/MSDK/plf/GD32VW55x_standard_peripheral/Source\gd32vw55x_fmc.c ****       \arg        FMC_READY: the operation has been completed
  82:C:/Users/stapi/OneDrive/Desktop/GD32VW553/V1_MQTT_OK/GD32VW55X_Wifi_BLE_SDK/GD32VW55x_RELEASE_V1.0.2/MSDK/plf/GD32VW55x_standard_peripheral/Source\gd32vw55x_fmc.c ****       \arg        FMC_WPERR: erase/program protection error
  83:C:/Users/stapi/OneDrive/Desktop/GD32VW553/V1_MQTT_OK/GD32VW55X_Wifi_BLE_SDK/GD32VW55x_RELEASE_V1.0.2/MSDK/plf/GD32VW55x_standard_peripheral/Source\gd32vw55x_fmc.c ****       \arg        FMC_TOERR: timeout error
  84:C:/Users/stapi/OneDrive/Desktop/GD32VW553/V1_MQTT_OK/GD32VW55X_Wifi_BLE_SDK/GD32VW55x_RELEASE_V1.0.2/MSDK/plf/GD32VW55x_standard_peripheral/Source\gd32vw55x_fmc.c **** */
  85:C:/Users/stapi/OneDrive/Desktop/GD32VW553/V1_MQTT_OK/GD32VW55X_Wifi_BLE_SDK/GD32VW55x_RELEASE_V1.0.2/MSDK/plf/GD32VW55x_standard_peripheral/Source\gd32vw55x_fmc.c **** fmc_state_enum fmc_page_erase(uint32_t page_address)
  86:C:/Users/stapi/OneDrive/Desktop/GD32VW553/V1_MQTT_OK/GD32VW55X_Wifi_BLE_SDK/GD32VW55x_RELEASE_V1.0.2/MSDK/plf/GD32VW55x_standard_peripheral/Source\gd32vw55x_fmc.c **** {
  87:C:/Users/stapi/OneDrive/Desktop/GD32VW553/V1_MQTT_OK/GD32VW55X_Wifi_BLE_SDK/GD32VW55x_RELEASE_V1.0.2/MSDK/plf/GD32VW55x_standard_peripheral/Source\gd32vw55x_fmc.c ****     fmc_state_enum fmc_state = FMC_READY;
  88:C:/Users/stapi/OneDrive/Desktop/GD32VW553/V1_MQTT_OK/GD32VW55X_Wifi_BLE_SDK/GD32VW55x_RELEASE_V1.0.2/MSDK/plf/GD32VW55x_standard_peripheral/Source\gd32vw55x_fmc.c **** 
  89:C:/Users/stapi/OneDrive/Desktop/GD32VW553/V1_MQTT_OK/GD32VW55X_Wifi_BLE_SDK/GD32VW55x_RELEASE_V1.0.2/MSDK/plf/GD32VW55x_standard_peripheral/Source\gd32vw55x_fmc.c ****     /* wait for the FMC ready */
  90:C:/Users/stapi/OneDrive/Desktop/GD32VW553/V1_MQTT_OK/GD32VW55X_Wifi_BLE_SDK/GD32VW55x_RELEASE_V1.0.2/MSDK/plf/GD32VW55x_standard_peripheral/Source\gd32vw55x_fmc.c ****     fmc_state = fmc_ready_wait(FMC_TIMEOUT_COUNT);
  91:C:/Users/stapi/OneDrive/Desktop/GD32VW553/V1_MQTT_OK/GD32VW55X_Wifi_BLE_SDK/GD32VW55x_RELEASE_V1.0.2/MSDK/plf/GD32VW55x_standard_peripheral/Source\gd32vw55x_fmc.c **** 
  92:C:/Users/stapi/OneDrive/Desktop/GD32VW553/V1_MQTT_OK/GD32VW55X_Wifi_BLE_SDK/GD32VW55x_RELEASE_V1.0.2/MSDK/plf/GD32VW55x_standard_peripheral/Source\gd32vw55x_fmc.c ****     if(FMC_READY == fmc_state){
  93:C:/Users/stapi/OneDrive/Desktop/GD32VW553/V1_MQTT_OK/GD32VW55X_Wifi_BLE_SDK/GD32VW55x_RELEASE_V1.0.2/MSDK/plf/GD32VW55x_standard_peripheral/Source\gd32vw55x_fmc.c ****         /* start page erase */
  94:C:/Users/stapi/OneDrive/Desktop/GD32VW553/V1_MQTT_OK/GD32VW55X_Wifi_BLE_SDK/GD32VW55x_RELEASE_V1.0.2/MSDK/plf/GD32VW55x_standard_peripheral/Source\gd32vw55x_fmc.c ****         FMC_CTL |= FMC_CTL_PER;
  95:C:/Users/stapi/OneDrive/Desktop/GD32VW553/V1_MQTT_OK/GD32VW55X_Wifi_BLE_SDK/GD32VW55x_RELEASE_V1.0.2/MSDK/plf/GD32VW55x_standard_peripheral/Source\gd32vw55x_fmc.c ****         FMC_ADDR = page_address;
  96:C:/Users/stapi/OneDrive/Desktop/GD32VW553/V1_MQTT_OK/GD32VW55X_Wifi_BLE_SDK/GD32VW55x_RELEASE_V1.0.2/MSDK/plf/GD32VW55x_standard_peripheral/Source\gd32vw55x_fmc.c ****         FMC_CTL |= FMC_CTL_START;
  97:C:/Users/stapi/OneDrive/Desktop/GD32VW553/V1_MQTT_OK/GD32VW55X_Wifi_BLE_SDK/GD32VW55x_RELEASE_V1.0.2/MSDK/plf/GD32VW55x_standard_peripheral/Source\gd32vw55x_fmc.c ****         /* wait for the FMC ready */
  98:C:/Users/stapi/OneDrive/Desktop/GD32VW553/V1_MQTT_OK/GD32VW55X_Wifi_BLE_SDK/GD32VW55x_RELEASE_V1.0.2/MSDK/plf/GD32VW55x_standard_peripheral/Source\gd32vw55x_fmc.c ****         fmc_state = fmc_ready_wait(FMC_TIMEOUT_COUNT);
  99:C:/Users/stapi/OneDrive/Desktop/GD32VW553/V1_MQTT_OK/GD32VW55X_Wifi_BLE_SDK/GD32VW55x_RELEASE_V1.0.2/MSDK/plf/GD32VW55x_standard_peripheral/Source\gd32vw55x_fmc.c ****         /* reset the PER bit */
 100:C:/Users/stapi/OneDrive/Desktop/GD32VW553/V1_MQTT_OK/GD32VW55X_Wifi_BLE_SDK/GD32VW55x_RELEASE_V1.0.2/MSDK/plf/GD32VW55x_standard_peripheral/Source\gd32vw55x_fmc.c ****         FMC_CTL &= ~FMC_CTL_PER;
 101:C:/Users/stapi/OneDrive/Desktop/GD32VW553/V1_MQTT_OK/GD32VW55X_Wifi_BLE_SDK/GD32VW55x_RELEASE_V1.0.2/MSDK/plf/GD32VW55x_standard_peripheral/Source\gd32vw55x_fmc.c ****     }
 102:C:/Users/stapi/OneDrive/Desktop/GD32VW553/V1_MQTT_OK/GD32VW55X_Wifi_BLE_SDK/GD32VW55x_RELEASE_V1.0.2/MSDK/plf/GD32VW55x_standard_peripheral/Source\gd32vw55x_fmc.c **** 
 103:C:/Users/stapi/OneDrive/Desktop/GD32VW553/V1_MQTT_OK/GD32VW55X_Wifi_BLE_SDK/GD32VW55x_RELEASE_V1.0.2/MSDK/plf/GD32VW55x_standard_peripheral/Source\gd32vw55x_fmc.c ****     /* return the FMC state */
 104:C:/Users/stapi/OneDrive/Desktop/GD32VW553/V1_MQTT_OK/GD32VW55X_Wifi_BLE_SDK/GD32VW55x_RELEASE_V1.0.2/MSDK/plf/GD32VW55x_standard_peripheral/Source\gd32vw55x_fmc.c ****     return fmc_state;
 105:C:/Users/stapi/OneDrive/Desktop/GD32VW553/V1_MQTT_OK/GD32VW55X_Wifi_BLE_SDK/GD32VW55x_RELEASE_V1.0.2/MSDK/plf/GD32VW55x_standard_peripheral/Source\gd32vw55x_fmc.c **** }
 106:C:/Users/stapi/OneDrive/Desktop/GD32VW553/V1_MQTT_OK/GD32VW55X_Wifi_BLE_SDK/GD32VW55x_RELEASE_V1.0.2/MSDK/plf/GD32VW55x_standard_peripheral/Source\gd32vw55x_fmc.c **** 
 107:C:/Users/stapi/OneDrive/Desktop/GD32VW553/V1_MQTT_OK/GD32VW55X_Wifi_BLE_SDK/GD32VW55x_RELEASE_V1.0.2/MSDK/plf/GD32VW55x_standard_peripheral/Source\gd32vw55x_fmc.c **** /*!
 108:C:/Users/stapi/OneDrive/Desktop/GD32VW553/V1_MQTT_OK/GD32VW55X_Wifi_BLE_SDK/GD32VW55x_RELEASE_V1.0.2/MSDK/plf/GD32VW55x_standard_peripheral/Source\gd32vw55x_fmc.c ****     \brief      FMC erase whole chip
 109:C:/Users/stapi/OneDrive/Desktop/GD32VW553/V1_MQTT_OK/GD32VW55X_Wifi_BLE_SDK/GD32VW55x_RELEASE_V1.0.2/MSDK/plf/GD32VW55x_standard_peripheral/Source\gd32vw55x_fmc.c ****     \param[in]  none
 110:C:/Users/stapi/OneDrive/Desktop/GD32VW553/V1_MQTT_OK/GD32VW55X_Wifi_BLE_SDK/GD32VW55x_RELEASE_V1.0.2/MSDK/plf/GD32VW55x_standard_peripheral/Source\gd32vw55x_fmc.c ****     \param[out] none
 111:C:/Users/stapi/OneDrive/Desktop/GD32VW553/V1_MQTT_OK/GD32VW55X_Wifi_BLE_SDK/GD32VW55x_RELEASE_V1.0.2/MSDK/plf/GD32VW55x_standard_peripheral/Source\gd32vw55x_fmc.c ****     \retval     state of FMC
 112:C:/Users/stapi/OneDrive/Desktop/GD32VW553/V1_MQTT_OK/GD32VW55X_Wifi_BLE_SDK/GD32VW55x_RELEASE_V1.0.2/MSDK/plf/GD32VW55x_standard_peripheral/Source\gd32vw55x_fmc.c ****       \arg        FMC_READY: the operation has been completed
 113:C:/Users/stapi/OneDrive/Desktop/GD32VW553/V1_MQTT_OK/GD32VW55X_Wifi_BLE_SDK/GD32VW55x_RELEASE_V1.0.2/MSDK/plf/GD32VW55x_standard_peripheral/Source\gd32vw55x_fmc.c ****       \arg        FMC_WPERR: erase/program protection error
 114:C:/Users/stapi/OneDrive/Desktop/GD32VW553/V1_MQTT_OK/GD32VW55X_Wifi_BLE_SDK/GD32VW55x_RELEASE_V1.0.2/MSDK/plf/GD32VW55x_standard_peripheral/Source\gd32vw55x_fmc.c ****       \arg        FMC_TOERR: timeout error
 115:C:/Users/stapi/OneDrive/Desktop/GD32VW553/V1_MQTT_OK/GD32VW55X_Wifi_BLE_SDK/GD32VW55x_RELEASE_V1.0.2/MSDK/plf/GD32VW55x_standard_peripheral/Source\gd32vw55x_fmc.c **** */
 116:C:/Users/stapi/OneDrive/Desktop/GD32VW553/V1_MQTT_OK/GD32VW55X_Wifi_BLE_SDK/GD32VW55x_RELEASE_V1.0.2/MSDK/plf/GD32VW55x_standard_peripheral/Source\gd32vw55x_fmc.c **** fmc_state_enum fmc_mass_erase(void)
 117:C:/Users/stapi/OneDrive/Desktop/GD32VW553/V1_MQTT_OK/GD32VW55X_Wifi_BLE_SDK/GD32VW55x_RELEASE_V1.0.2/MSDK/plf/GD32VW55x_standard_peripheral/Source\gd32vw55x_fmc.c **** {
 118:C:/Users/stapi/OneDrive/Desktop/GD32VW553/V1_MQTT_OK/GD32VW55X_Wifi_BLE_SDK/GD32VW55x_RELEASE_V1.0.2/MSDK/plf/GD32VW55x_standard_peripheral/Source\gd32vw55x_fmc.c ****     fmc_state_enum fmc_state = FMC_READY;
 119:C:/Users/stapi/OneDrive/Desktop/GD32VW553/V1_MQTT_OK/GD32VW55X_Wifi_BLE_SDK/GD32VW55x_RELEASE_V1.0.2/MSDK/plf/GD32VW55x_standard_peripheral/Source\gd32vw55x_fmc.c **** 
 120:C:/Users/stapi/OneDrive/Desktop/GD32VW553/V1_MQTT_OK/GD32VW55X_Wifi_BLE_SDK/GD32VW55x_RELEASE_V1.0.2/MSDK/plf/GD32VW55x_standard_peripheral/Source\gd32vw55x_fmc.c ****     /* wait for the FMC ready */
 121:C:/Users/stapi/OneDrive/Desktop/GD32VW553/V1_MQTT_OK/GD32VW55X_Wifi_BLE_SDK/GD32VW55x_RELEASE_V1.0.2/MSDK/plf/GD32VW55x_standard_peripheral/Source\gd32vw55x_fmc.c ****     fmc_state = fmc_ready_wait(FMC_TIMEOUT_COUNT);
 122:C:/Users/stapi/OneDrive/Desktop/GD32VW553/V1_MQTT_OK/GD32VW55X_Wifi_BLE_SDK/GD32VW55x_RELEASE_V1.0.2/MSDK/plf/GD32VW55x_standard_peripheral/Source\gd32vw55x_fmc.c **** 
 123:C:/Users/stapi/OneDrive/Desktop/GD32VW553/V1_MQTT_OK/GD32VW55X_Wifi_BLE_SDK/GD32VW55x_RELEASE_V1.0.2/MSDK/plf/GD32VW55x_standard_peripheral/Source\gd32vw55x_fmc.c ****     if(FMC_READY == fmc_state){
 124:C:/Users/stapi/OneDrive/Desktop/GD32VW553/V1_MQTT_OK/GD32VW55X_Wifi_BLE_SDK/GD32VW55x_RELEASE_V1.0.2/MSDK/plf/GD32VW55x_standard_peripheral/Source\gd32vw55x_fmc.c ****         /* start chip erase */
 125:C:/Users/stapi/OneDrive/Desktop/GD32VW553/V1_MQTT_OK/GD32VW55X_Wifi_BLE_SDK/GD32VW55x_RELEASE_V1.0.2/MSDK/plf/GD32VW55x_standard_peripheral/Source\gd32vw55x_fmc.c ****         FMC_CTL |= FMC_CTL_MER;
 126:C:/Users/stapi/OneDrive/Desktop/GD32VW553/V1_MQTT_OK/GD32VW55X_Wifi_BLE_SDK/GD32VW55x_RELEASE_V1.0.2/MSDK/plf/GD32VW55x_standard_peripheral/Source\gd32vw55x_fmc.c ****         FMC_CTL |= FMC_CTL_START;
 127:C:/Users/stapi/OneDrive/Desktop/GD32VW553/V1_MQTT_OK/GD32VW55X_Wifi_BLE_SDK/GD32VW55x_RELEASE_V1.0.2/MSDK/plf/GD32VW55x_standard_peripheral/Source\gd32vw55x_fmc.c ****         /* wait for the FMC ready */
 128:C:/Users/stapi/OneDrive/Desktop/GD32VW553/V1_MQTT_OK/GD32VW55X_Wifi_BLE_SDK/GD32VW55x_RELEASE_V1.0.2/MSDK/plf/GD32VW55x_standard_peripheral/Source\gd32vw55x_fmc.c ****         fmc_state = fmc_ready_wait(FMC_TIMEOUT_COUNT);
 129:C:/Users/stapi/OneDrive/Desktop/GD32VW553/V1_MQTT_OK/GD32VW55X_Wifi_BLE_SDK/GD32VW55x_RELEASE_V1.0.2/MSDK/plf/GD32VW55x_standard_peripheral/Source\gd32vw55x_fmc.c ****         /* reset the MER bit */
 130:C:/Users/stapi/OneDrive/Desktop/GD32VW553/V1_MQTT_OK/GD32VW55X_Wifi_BLE_SDK/GD32VW55x_RELEASE_V1.0.2/MSDK/plf/GD32VW55x_standard_peripheral/Source\gd32vw55x_fmc.c ****         FMC_CTL &= ~FMC_CTL_MER;
 131:C:/Users/stapi/OneDrive/Desktop/GD32VW553/V1_MQTT_OK/GD32VW55X_Wifi_BLE_SDK/GD32VW55x_RELEASE_V1.0.2/MSDK/plf/GD32VW55x_standard_peripheral/Source\gd32vw55x_fmc.c ****     }
 132:C:/Users/stapi/OneDrive/Desktop/GD32VW553/V1_MQTT_OK/GD32VW55X_Wifi_BLE_SDK/GD32VW55x_RELEASE_V1.0.2/MSDK/plf/GD32VW55x_standard_peripheral/Source\gd32vw55x_fmc.c **** 
 133:C:/Users/stapi/OneDrive/Desktop/GD32VW553/V1_MQTT_OK/GD32VW55X_Wifi_BLE_SDK/GD32VW55x_RELEASE_V1.0.2/MSDK/plf/GD32VW55x_standard_peripheral/Source\gd32vw55x_fmc.c ****     /* return the FMC state  */
 134:C:/Users/stapi/OneDrive/Desktop/GD32VW553/V1_MQTT_OK/GD32VW55X_Wifi_BLE_SDK/GD32VW55x_RELEASE_V1.0.2/MSDK/plf/GD32VW55x_standard_peripheral/Source\gd32vw55x_fmc.c ****     return fmc_state;
 135:C:/Users/stapi/OneDrive/Desktop/GD32VW553/V1_MQTT_OK/GD32VW55X_Wifi_BLE_SDK/GD32VW55x_RELEASE_V1.0.2/MSDK/plf/GD32VW55x_standard_peripheral/Source\gd32vw55x_fmc.c **** }
 136:C:/Users/stapi/OneDrive/Desktop/GD32VW553/V1_MQTT_OK/GD32VW55X_Wifi_BLE_SDK/GD32VW55x_RELEASE_V1.0.2/MSDK/plf/GD32VW55x_standard_peripheral/Source\gd32vw55x_fmc.c **** 
 137:C:/Users/stapi/OneDrive/Desktop/GD32VW553/V1_MQTT_OK/GD32VW55X_Wifi_BLE_SDK/GD32VW55x_RELEASE_V1.0.2/MSDK/plf/GD32VW55x_standard_peripheral/Source\gd32vw55x_fmc.c **** /*!
 138:C:/Users/stapi/OneDrive/Desktop/GD32VW553/V1_MQTT_OK/GD32VW55X_Wifi_BLE_SDK/GD32VW55x_RELEASE_V1.0.2/MSDK/plf/GD32VW55x_standard_peripheral/Source\gd32vw55x_fmc.c ****     \brief      FMC program a word at the corresponding address
 139:C:/Users/stapi/OneDrive/Desktop/GD32VW553/V1_MQTT_OK/GD32VW55X_Wifi_BLE_SDK/GD32VW55x_RELEASE_V1.0.2/MSDK/plf/GD32VW55x_standard_peripheral/Source\gd32vw55x_fmc.c ****     \param[in]  address: address to program
 140:C:/Users/stapi/OneDrive/Desktop/GD32VW553/V1_MQTT_OK/GD32VW55X_Wifi_BLE_SDK/GD32VW55x_RELEASE_V1.0.2/MSDK/plf/GD32VW55x_standard_peripheral/Source\gd32vw55x_fmc.c ****     \param[in]  data: word to program
 141:C:/Users/stapi/OneDrive/Desktop/GD32VW553/V1_MQTT_OK/GD32VW55X_Wifi_BLE_SDK/GD32VW55x_RELEASE_V1.0.2/MSDK/plf/GD32VW55x_standard_peripheral/Source\gd32vw55x_fmc.c ****     \param[out] none
 142:C:/Users/stapi/OneDrive/Desktop/GD32VW553/V1_MQTT_OK/GD32VW55X_Wifi_BLE_SDK/GD32VW55x_RELEASE_V1.0.2/MSDK/plf/GD32VW55x_standard_peripheral/Source\gd32vw55x_fmc.c ****     \retval     state of FMC
 143:C:/Users/stapi/OneDrive/Desktop/GD32VW553/V1_MQTT_OK/GD32VW55X_Wifi_BLE_SDK/GD32VW55x_RELEASE_V1.0.2/MSDK/plf/GD32VW55x_standard_peripheral/Source\gd32vw55x_fmc.c ****       \arg        FMC_READY: the operation has been completed
 144:C:/Users/stapi/OneDrive/Desktop/GD32VW553/V1_MQTT_OK/GD32VW55X_Wifi_BLE_SDK/GD32VW55x_RELEASE_V1.0.2/MSDK/plf/GD32VW55x_standard_peripheral/Source\gd32vw55x_fmc.c ****       \arg        FMC_WPERR: erase/program protection error
 145:C:/Users/stapi/OneDrive/Desktop/GD32VW553/V1_MQTT_OK/GD32VW55X_Wifi_BLE_SDK/GD32VW55x_RELEASE_V1.0.2/MSDK/plf/GD32VW55x_standard_peripheral/Source\gd32vw55x_fmc.c ****       \arg        FMC_TOERR: timeout error
 146:C:/Users/stapi/OneDrive/Desktop/GD32VW553/V1_MQTT_OK/GD32VW55X_Wifi_BLE_SDK/GD32VW55x_RELEASE_V1.0.2/MSDK/plf/GD32VW55x_standard_peripheral/Source\gd32vw55x_fmc.c **** */
 147:C:/Users/stapi/OneDrive/Desktop/GD32VW553/V1_MQTT_OK/GD32VW55X_Wifi_BLE_SDK/GD32VW55x_RELEASE_V1.0.2/MSDK/plf/GD32VW55x_standard_peripheral/Source\gd32vw55x_fmc.c **** fmc_state_enum fmc_word_program(uint32_t address, uint32_t data)
 148:C:/Users/stapi/OneDrive/Desktop/GD32VW553/V1_MQTT_OK/GD32VW55X_Wifi_BLE_SDK/GD32VW55x_RELEASE_V1.0.2/MSDK/plf/GD32VW55x_standard_peripheral/Source\gd32vw55x_fmc.c **** {
 149:C:/Users/stapi/OneDrive/Desktop/GD32VW553/V1_MQTT_OK/GD32VW55X_Wifi_BLE_SDK/GD32VW55x_RELEASE_V1.0.2/MSDK/plf/GD32VW55x_standard_peripheral/Source\gd32vw55x_fmc.c ****     fmc_state_enum fmc_state = FMC_READY;
 150:C:/Users/stapi/OneDrive/Desktop/GD32VW553/V1_MQTT_OK/GD32VW55X_Wifi_BLE_SDK/GD32VW55x_RELEASE_V1.0.2/MSDK/plf/GD32VW55x_standard_peripheral/Source\gd32vw55x_fmc.c **** 
 151:C:/Users/stapi/OneDrive/Desktop/GD32VW553/V1_MQTT_OK/GD32VW55X_Wifi_BLE_SDK/GD32VW55x_RELEASE_V1.0.2/MSDK/plf/GD32VW55x_standard_peripheral/Source\gd32vw55x_fmc.c ****     /* wait for the FMC ready */
 152:C:/Users/stapi/OneDrive/Desktop/GD32VW553/V1_MQTT_OK/GD32VW55X_Wifi_BLE_SDK/GD32VW55x_RELEASE_V1.0.2/MSDK/plf/GD32VW55x_standard_peripheral/Source\gd32vw55x_fmc.c ****     fmc_state = fmc_ready_wait(FMC_TIMEOUT_COUNT);
 153:C:/Users/stapi/OneDrive/Desktop/GD32VW553/V1_MQTT_OK/GD32VW55X_Wifi_BLE_SDK/GD32VW55x_RELEASE_V1.0.2/MSDK/plf/GD32VW55x_standard_peripheral/Source\gd32vw55x_fmc.c **** 
 154:C:/Users/stapi/OneDrive/Desktop/GD32VW553/V1_MQTT_OK/GD32VW55X_Wifi_BLE_SDK/GD32VW55x_RELEASE_V1.0.2/MSDK/plf/GD32VW55x_standard_peripheral/Source\gd32vw55x_fmc.c ****     if(FMC_READY == fmc_state){
 155:C:/Users/stapi/OneDrive/Desktop/GD32VW553/V1_MQTT_OK/GD32VW55X_Wifi_BLE_SDK/GD32VW55x_RELEASE_V1.0.2/MSDK/plf/GD32VW55x_standard_peripheral/Source\gd32vw55x_fmc.c ****         /* set the PG bit to start program */
 156:C:/Users/stapi/OneDrive/Desktop/GD32VW553/V1_MQTT_OK/GD32VW55X_Wifi_BLE_SDK/GD32VW55x_RELEASE_V1.0.2/MSDK/plf/GD32VW55x_standard_peripheral/Source\gd32vw55x_fmc.c ****         FMC_CTL |= FMC_CTL_PG;
 157:C:/Users/stapi/OneDrive/Desktop/GD32VW553/V1_MQTT_OK/GD32VW55X_Wifi_BLE_SDK/GD32VW55x_RELEASE_V1.0.2/MSDK/plf/GD32VW55x_standard_peripheral/Source\gd32vw55x_fmc.c ****         REG32(address) = data;
 158:C:/Users/stapi/OneDrive/Desktop/GD32VW553/V1_MQTT_OK/GD32VW55X_Wifi_BLE_SDK/GD32VW55x_RELEASE_V1.0.2/MSDK/plf/GD32VW55x_standard_peripheral/Source\gd32vw55x_fmc.c ****         /* wait for the FMC ready */
 159:C:/Users/stapi/OneDrive/Desktop/GD32VW553/V1_MQTT_OK/GD32VW55X_Wifi_BLE_SDK/GD32VW55x_RELEASE_V1.0.2/MSDK/plf/GD32VW55x_standard_peripheral/Source\gd32vw55x_fmc.c ****         fmc_state = fmc_ready_wait(FMC_TIMEOUT_COUNT);
 160:C:/Users/stapi/OneDrive/Desktop/GD32VW553/V1_MQTT_OK/GD32VW55X_Wifi_BLE_SDK/GD32VW55x_RELEASE_V1.0.2/MSDK/plf/GD32VW55x_standard_peripheral/Source\gd32vw55x_fmc.c ****         /* reset the PG bit */
 161:C:/Users/stapi/OneDrive/Desktop/GD32VW553/V1_MQTT_OK/GD32VW55X_Wifi_BLE_SDK/GD32VW55x_RELEASE_V1.0.2/MSDK/plf/GD32VW55x_standard_peripheral/Source\gd32vw55x_fmc.c ****         FMC_CTL &= ~FMC_CTL_PG;
 162:C:/Users/stapi/OneDrive/Desktop/GD32VW553/V1_MQTT_OK/GD32VW55X_Wifi_BLE_SDK/GD32VW55x_RELEASE_V1.0.2/MSDK/plf/GD32VW55x_standard_peripheral/Source\gd32vw55x_fmc.c ****     }
 163:C:/Users/stapi/OneDrive/Desktop/GD32VW553/V1_MQTT_OK/GD32VW55X_Wifi_BLE_SDK/GD32VW55x_RELEASE_V1.0.2/MSDK/plf/GD32VW55x_standard_peripheral/Source\gd32vw55x_fmc.c **** 
 164:C:/Users/stapi/OneDrive/Desktop/GD32VW553/V1_MQTT_OK/GD32VW55X_Wifi_BLE_SDK/GD32VW55x_RELEASE_V1.0.2/MSDK/plf/GD32VW55x_standard_peripheral/Source\gd32vw55x_fmc.c ****     /* return the FMC state */
 165:C:/Users/stapi/OneDrive/Desktop/GD32VW553/V1_MQTT_OK/GD32VW55X_Wifi_BLE_SDK/GD32VW55x_RELEASE_V1.0.2/MSDK/plf/GD32VW55x_standard_peripheral/Source\gd32vw55x_fmc.c ****     return fmc_state;
 166:C:/Users/stapi/OneDrive/Desktop/GD32VW553/V1_MQTT_OK/GD32VW55X_Wifi_BLE_SDK/GD32VW55x_RELEASE_V1.0.2/MSDK/plf/GD32VW55x_standard_peripheral/Source\gd32vw55x_fmc.c **** }
 167:C:/Users/stapi/OneDrive/Desktop/GD32VW553/V1_MQTT_OK/GD32VW55X_Wifi_BLE_SDK/GD32VW55x_RELEASE_V1.0.2/MSDK/plf/GD32VW55x_standard_peripheral/Source\gd32vw55x_fmc.c **** 
 168:C:/Users/stapi/OneDrive/Desktop/GD32VW553/V1_MQTT_OK/GD32VW55X_Wifi_BLE_SDK/GD32VW55x_RELEASE_V1.0.2/MSDK/plf/GD32VW55x_standard_peripheral/Source\gd32vw55x_fmc.c **** /*!
 169:C:/Users/stapi/OneDrive/Desktop/GD32VW553/V1_MQTT_OK/GD32VW55X_Wifi_BLE_SDK/GD32VW55x_RELEASE_V1.0.2/MSDK/plf/GD32VW55x_standard_peripheral/Source\gd32vw55x_fmc.c ****     \brief      FMC program data continuously at the corresponding address
 170:C:/Users/stapi/OneDrive/Desktop/GD32VW553/V1_MQTT_OK/GD32VW55X_Wifi_BLE_SDK/GD32VW55x_RELEASE_V1.0.2/MSDK/plf/GD32VW55x_standard_peripheral/Source\gd32vw55x_fmc.c ****     \param[in]  address: address to program, must be 4-byte aligned
 171:C:/Users/stapi/OneDrive/Desktop/GD32VW553/V1_MQTT_OK/GD32VW55X_Wifi_BLE_SDK/GD32VW55x_RELEASE_V1.0.2/MSDK/plf/GD32VW55x_standard_peripheral/Source\gd32vw55x_fmc.c ****     \param[in]  data: data buffer to program
 172:C:/Users/stapi/OneDrive/Desktop/GD32VW553/V1_MQTT_OK/GD32VW55X_Wifi_BLE_SDK/GD32VW55x_RELEASE_V1.0.2/MSDK/plf/GD32VW55x_standard_peripheral/Source\gd32vw55x_fmc.c ****     \param[in]  size: data buffer size in bytes, must be 4-byte aligned
 173:C:/Users/stapi/OneDrive/Desktop/GD32VW553/V1_MQTT_OK/GD32VW55X_Wifi_BLE_SDK/GD32VW55x_RELEASE_V1.0.2/MSDK/plf/GD32VW55x_standard_peripheral/Source\gd32vw55x_fmc.c ****     \param[out] none
 174:C:/Users/stapi/OneDrive/Desktop/GD32VW553/V1_MQTT_OK/GD32VW55X_Wifi_BLE_SDK/GD32VW55x_RELEASE_V1.0.2/MSDK/plf/GD32VW55x_standard_peripheral/Source\gd32vw55x_fmc.c ****     \retval     state of FMC
 175:C:/Users/stapi/OneDrive/Desktop/GD32VW553/V1_MQTT_OK/GD32VW55X_Wifi_BLE_SDK/GD32VW55x_RELEASE_V1.0.2/MSDK/plf/GD32VW55x_standard_peripheral/Source\gd32vw55x_fmc.c ****       \arg        FMC_READY: the operation has been completed
 176:C:/Users/stapi/OneDrive/Desktop/GD32VW553/V1_MQTT_OK/GD32VW55X_Wifi_BLE_SDK/GD32VW55x_RELEASE_V1.0.2/MSDK/plf/GD32VW55x_standard_peripheral/Source\gd32vw55x_fmc.c ****       \arg        FMC_WPERR: erase/program protection error
 177:C:/Users/stapi/OneDrive/Desktop/GD32VW553/V1_MQTT_OK/GD32VW55X_Wifi_BLE_SDK/GD32VW55x_RELEASE_V1.0.2/MSDK/plf/GD32VW55x_standard_peripheral/Source\gd32vw55x_fmc.c ****       \arg        FMC_TOERR: timeout error
 178:C:/Users/stapi/OneDrive/Desktop/GD32VW553/V1_MQTT_OK/GD32VW55X_Wifi_BLE_SDK/GD32VW55x_RELEASE_V1.0.2/MSDK/plf/GD32VW55x_standard_peripheral/Source\gd32vw55x_fmc.c **** */
 179:C:/Users/stapi/OneDrive/Desktop/GD32VW553/V1_MQTT_OK/GD32VW55X_Wifi_BLE_SDK/GD32VW55x_RELEASE_V1.0.2/MSDK/plf/GD32VW55x_standard_peripheral/Source\gd32vw55x_fmc.c **** fmc_state_enum fmc_continuous_program(uint32_t address, uint32_t data[], uint32_t size)
 180:C:/Users/stapi/OneDrive/Desktop/GD32VW553/V1_MQTT_OK/GD32VW55X_Wifi_BLE_SDK/GD32VW55x_RELEASE_V1.0.2/MSDK/plf/GD32VW55x_standard_peripheral/Source\gd32vw55x_fmc.c **** {
 181:C:/Users/stapi/OneDrive/Desktop/GD32VW553/V1_MQTT_OK/GD32VW55X_Wifi_BLE_SDK/GD32VW55x_RELEASE_V1.0.2/MSDK/plf/GD32VW55x_standard_peripheral/Source\gd32vw55x_fmc.c ****     fmc_state_enum fmc_state = FMC_READY;
 182:C:/Users/stapi/OneDrive/Desktop/GD32VW553/V1_MQTT_OK/GD32VW55X_Wifi_BLE_SDK/GD32VW55x_RELEASE_V1.0.2/MSDK/plf/GD32VW55x_standard_peripheral/Source\gd32vw55x_fmc.c **** 
 183:C:/Users/stapi/OneDrive/Desktop/GD32VW553/V1_MQTT_OK/GD32VW55X_Wifi_BLE_SDK/GD32VW55x_RELEASE_V1.0.2/MSDK/plf/GD32VW55x_standard_peripheral/Source\gd32vw55x_fmc.c ****     /* wait for the FMC ready */
 184:C:/Users/stapi/OneDrive/Desktop/GD32VW553/V1_MQTT_OK/GD32VW55X_Wifi_BLE_SDK/GD32VW55x_RELEASE_V1.0.2/MSDK/plf/GD32VW55x_standard_peripheral/Source\gd32vw55x_fmc.c ****     fmc_state = fmc_ready_wait(FMC_TIMEOUT_COUNT);
 185:C:/Users/stapi/OneDrive/Desktop/GD32VW553/V1_MQTT_OK/GD32VW55X_Wifi_BLE_SDK/GD32VW55x_RELEASE_V1.0.2/MSDK/plf/GD32VW55x_standard_peripheral/Source\gd32vw55x_fmc.c **** 
 186:C:/Users/stapi/OneDrive/Desktop/GD32VW553/V1_MQTT_OK/GD32VW55X_Wifi_BLE_SDK/GD32VW55x_RELEASE_V1.0.2/MSDK/plf/GD32VW55x_standard_peripheral/Source\gd32vw55x_fmc.c ****     if(FMC_READY == fmc_state){
 187:C:/Users/stapi/OneDrive/Desktop/GD32VW553/V1_MQTT_OK/GD32VW55X_Wifi_BLE_SDK/GD32VW55x_RELEASE_V1.0.2/MSDK/plf/GD32VW55x_standard_peripheral/Source\gd32vw55x_fmc.c ****         /* set the PG bit to start program */
 188:C:/Users/stapi/OneDrive/Desktop/GD32VW553/V1_MQTT_OK/GD32VW55X_Wifi_BLE_SDK/GD32VW55x_RELEASE_V1.0.2/MSDK/plf/GD32VW55x_standard_peripheral/Source\gd32vw55x_fmc.c ****         FMC_CTL |= FMC_CTL_PG;
 189:C:/Users/stapi/OneDrive/Desktop/GD32VW553/V1_MQTT_OK/GD32VW55X_Wifi_BLE_SDK/GD32VW55x_RELEASE_V1.0.2/MSDK/plf/GD32VW55x_standard_peripheral/Source\gd32vw55x_fmc.c **** 
 190:C:/Users/stapi/OneDrive/Desktop/GD32VW553/V1_MQTT_OK/GD32VW55X_Wifi_BLE_SDK/GD32VW55x_RELEASE_V1.0.2/MSDK/plf/GD32VW55x_standard_peripheral/Source\gd32vw55x_fmc.c ****         for(uint32_t i = 0U; i < size; i++){
 191:C:/Users/stapi/OneDrive/Desktop/GD32VW553/V1_MQTT_OK/GD32VW55X_Wifi_BLE_SDK/GD32VW55x_RELEASE_V1.0.2/MSDK/plf/GD32VW55x_standard_peripheral/Source\gd32vw55x_fmc.c ****             REG32(address) = data[i];
 192:C:/Users/stapi/OneDrive/Desktop/GD32VW553/V1_MQTT_OK/GD32VW55X_Wifi_BLE_SDK/GD32VW55x_RELEASE_V1.0.2/MSDK/plf/GD32VW55x_standard_peripheral/Source\gd32vw55x_fmc.c ****             address += 4U;
 193:C:/Users/stapi/OneDrive/Desktop/GD32VW553/V1_MQTT_OK/GD32VW55X_Wifi_BLE_SDK/GD32VW55x_RELEASE_V1.0.2/MSDK/plf/GD32VW55x_standard_peripheral/Source\gd32vw55x_fmc.c ****         }
 194:C:/Users/stapi/OneDrive/Desktop/GD32VW553/V1_MQTT_OK/GD32VW55X_Wifi_BLE_SDK/GD32VW55x_RELEASE_V1.0.2/MSDK/plf/GD32VW55x_standard_peripheral/Source\gd32vw55x_fmc.c **** 
 195:C:/Users/stapi/OneDrive/Desktop/GD32VW553/V1_MQTT_OK/GD32VW55X_Wifi_BLE_SDK/GD32VW55x_RELEASE_V1.0.2/MSDK/plf/GD32VW55x_standard_peripheral/Source\gd32vw55x_fmc.c ****         /* reset the PG bit */
 196:C:/Users/stapi/OneDrive/Desktop/GD32VW553/V1_MQTT_OK/GD32VW55X_Wifi_BLE_SDK/GD32VW55x_RELEASE_V1.0.2/MSDK/plf/GD32VW55x_standard_peripheral/Source\gd32vw55x_fmc.c ****         FMC_CTL &= ~FMC_CTL_PG;
 197:C:/Users/stapi/OneDrive/Desktop/GD32VW553/V1_MQTT_OK/GD32VW55X_Wifi_BLE_SDK/GD32VW55x_RELEASE_V1.0.2/MSDK/plf/GD32VW55x_standard_peripheral/Source\gd32vw55x_fmc.c ****     }
 198:C:/Users/stapi/OneDrive/Desktop/GD32VW553/V1_MQTT_OK/GD32VW55X_Wifi_BLE_SDK/GD32VW55x_RELEASE_V1.0.2/MSDK/plf/GD32VW55x_standard_peripheral/Source\gd32vw55x_fmc.c **** 
 199:C:/Users/stapi/OneDrive/Desktop/GD32VW553/V1_MQTT_OK/GD32VW55X_Wifi_BLE_SDK/GD32VW55x_RELEASE_V1.0.2/MSDK/plf/GD32VW55x_standard_peripheral/Source\gd32vw55x_fmc.c ****     /* return the FMC state */
 200:C:/Users/stapi/OneDrive/Desktop/GD32VW553/V1_MQTT_OK/GD32VW55X_Wifi_BLE_SDK/GD32VW55x_RELEASE_V1.0.2/MSDK/plf/GD32VW55x_standard_peripheral/Source\gd32vw55x_fmc.c ****     return fmc_state;
 201:C:/Users/stapi/OneDrive/Desktop/GD32VW553/V1_MQTT_OK/GD32VW55X_Wifi_BLE_SDK/GD32VW55x_RELEASE_V1.0.2/MSDK/plf/GD32VW55x_standard_peripheral/Source\gd32vw55x_fmc.c **** }
 202:C:/Users/stapi/OneDrive/Desktop/GD32VW553/V1_MQTT_OK/GD32VW55X_Wifi_BLE_SDK/GD32VW55x_RELEASE_V1.0.2/MSDK/plf/GD32VW55x_standard_peripheral/Source\gd32vw55x_fmc.c **** 
 203:C:/Users/stapi/OneDrive/Desktop/GD32VW553/V1_MQTT_OK/GD32VW55X_Wifi_BLE_SDK/GD32VW55x_RELEASE_V1.0.2/MSDK/plf/GD32VW55x_standard_peripheral/Source\gd32vw55x_fmc.c **** /*!
 204:C:/Users/stapi/OneDrive/Desktop/GD32VW553/V1_MQTT_OK/GD32VW55X_Wifi_BLE_SDK/GD32VW55x_RELEASE_V1.0.2/MSDK/plf/GD32VW55x_standard_peripheral/Source\gd32vw55x_fmc.c ****     \brief      enable FMC OBR function
 205:C:/Users/stapi/OneDrive/Desktop/GD32VW553/V1_MQTT_OK/GD32VW55X_Wifi_BLE_SDK/GD32VW55x_RELEASE_V1.0.2/MSDK/plf/GD32VW55x_standard_peripheral/Source\gd32vw55x_fmc.c ****     \param[in]  obr_function: the OBR function
 206:C:/Users/stapi/OneDrive/Desktop/GD32VW553/V1_MQTT_OK/GD32VW55X_Wifi_BLE_SDK/GD32VW55x_RELEASE_V1.0.2/MSDK/plf/GD32VW55x_standard_peripheral/Source\gd32vw55x_fmc.c ****                 one or more parameters can be selected which are shown as below:
 207:C:/Users/stapi/OneDrive/Desktop/GD32VW553/V1_MQTT_OK/GD32VW55X_Wifi_BLE_SDK/GD32VW55x_RELEASE_V1.0.2/MSDK/plf/GD32VW55x_standard_peripheral/Source\gd32vw55x_fmc.c ****       \arg        FMC_OBR_NWDG_HW: watchdog status function
 208:C:/Users/stapi/OneDrive/Desktop/GD32VW553/V1_MQTT_OK/GD32VW55X_Wifi_BLE_SDK/GD32VW55x_RELEASE_V1.0.2/MSDK/plf/GD32VW55x_standard_peripheral/Source\gd32vw55x_fmc.c ****       \arg        FMC_OBR_NRST_STDBY: no reset generated when entering Standby mode function
 209:C:/Users/stapi/OneDrive/Desktop/GD32VW553/V1_MQTT_OK/GD32VW55X_Wifi_BLE_SDK/GD32VW55x_RELEASE_V1.0.2/MSDK/plf/GD32VW55x_standard_peripheral/Source\gd32vw55x_fmc.c ****       \arg        FMC_OBR_NSRT_DPSLP: no reset generated when entering DeepSleep mode function
 210:C:/Users/stapi/OneDrive/Desktop/GD32VW553/V1_MQTT_OK/GD32VW55X_Wifi_BLE_SDK/GD32VW55x_RELEASE_V1.0.2/MSDK/plf/GD32VW55x_standard_peripheral/Source\gd32vw55x_fmc.c ****       \arg        FMC_OBR_SRAM1_RST: SRAM1 reset automatically function
 211:C:/Users/stapi/OneDrive/Desktop/GD32VW553/V1_MQTT_OK/GD32VW55X_Wifi_BLE_SDK/GD32VW55x_RELEASE_V1.0.2/MSDK/plf/GD32VW55x_standard_peripheral/Source\gd32vw55x_fmc.c ****     \param[out] none
 212:C:/Users/stapi/OneDrive/Desktop/GD32VW553/V1_MQTT_OK/GD32VW55X_Wifi_BLE_SDK/GD32VW55x_RELEASE_V1.0.2/MSDK/plf/GD32VW55x_standard_peripheral/Source\gd32vw55x_fmc.c ****     \retval     none
 213:C:/Users/stapi/OneDrive/Desktop/GD32VW553/V1_MQTT_OK/GD32VW55X_Wifi_BLE_SDK/GD32VW55x_RELEASE_V1.0.2/MSDK/plf/GD32VW55x_standard_peripheral/Source\gd32vw55x_fmc.c **** */
 214:C:/Users/stapi/OneDrive/Desktop/GD32VW553/V1_MQTT_OK/GD32VW55X_Wifi_BLE_SDK/GD32VW55x_RELEASE_V1.0.2/MSDK/plf/GD32VW55x_standard_peripheral/Source\gd32vw55x_fmc.c **** void fmc_obr_function_enable(uint32_t obr_function)
 215:C:/Users/stapi/OneDrive/Desktop/GD32VW553/V1_MQTT_OK/GD32VW55X_Wifi_BLE_SDK/GD32VW55x_RELEASE_V1.0.2/MSDK/plf/GD32VW55x_standard_peripheral/Source\gd32vw55x_fmc.c **** {
  67              		.loc 1 215 1 is_stmt 1
  68              		.cfi_startproc
  69              	.LVL0:
 216:C:/Users/stapi/OneDrive/Desktop/GD32VW553/V1_MQTT_OK/GD32VW55X_Wifi_BLE_SDK/GD32VW55x_RELEASE_V1.0.2/MSDK/plf/GD32VW55x_standard_peripheral/Source\gd32vw55x_fmc.c ****     FMC_OBR |= obr_function;
  70              		.loc 1 216 5
  71              		.loc 1 216 13 is_stmt 0
  72 0000 37270240 		li	a4,1073881088
  73 0004 3C43     		lw	a5,64(a4)
  74 0006 C98F     		or	a5,a5,a0
  75 0008 3CC3     		sw	a5,64(a4)
 217:C:/Users/stapi/OneDrive/Desktop/GD32VW553/V1_MQTT_OK/GD32VW55X_Wifi_BLE_SDK/GD32VW55x_RELEASE_V1.0.2/MSDK/plf/GD32VW55x_standard_peripheral/Source\gd32vw55x_fmc.c **** }
  76              		.loc 1 217 1
  77 000a 8280     		ret
  78              		.cfi_endproc
  79              	.LFE371:
  81              		.section	.text.fmc_obr_function_disable,"ax",@progbits
  82              		.align	1
  83              		.globl	fmc_obr_function_disable
  85              	fmc_obr_function_disable:
  86              	.LFB372:
 218:C:/Users/stapi/OneDrive/Desktop/GD32VW553/V1_MQTT_OK/GD32VW55X_Wifi_BLE_SDK/GD32VW55x_RELEASE_V1.0.2/MSDK/plf/GD32VW55x_standard_peripheral/Source\gd32vw55x_fmc.c **** 
 219:C:/Users/stapi/OneDrive/Desktop/GD32VW553/V1_MQTT_OK/GD32VW55X_Wifi_BLE_SDK/GD32VW55x_RELEASE_V1.0.2/MSDK/plf/GD32VW55x_standard_peripheral/Source\gd32vw55x_fmc.c **** /*!
 220:C:/Users/stapi/OneDrive/Desktop/GD32VW553/V1_MQTT_OK/GD32VW55X_Wifi_BLE_SDK/GD32VW55x_RELEASE_V1.0.2/MSDK/plf/GD32VW55x_standard_peripheral/Source\gd32vw55x_fmc.c ****     \brief      disable FMC OBR function
 221:C:/Users/stapi/OneDrive/Desktop/GD32VW553/V1_MQTT_OK/GD32VW55X_Wifi_BLE_SDK/GD32VW55x_RELEASE_V1.0.2/MSDK/plf/GD32VW55x_standard_peripheral/Source\gd32vw55x_fmc.c ****     \param[in]  obr_function: the OBR function
 222:C:/Users/stapi/OneDrive/Desktop/GD32VW553/V1_MQTT_OK/GD32VW55X_Wifi_BLE_SDK/GD32VW55x_RELEASE_V1.0.2/MSDK/plf/GD32VW55x_standard_peripheral/Source\gd32vw55x_fmc.c ****                 one or more parameters can be selected which are shown as below:
 223:C:/Users/stapi/OneDrive/Desktop/GD32VW553/V1_MQTT_OK/GD32VW55X_Wifi_BLE_SDK/GD32VW55x_RELEASE_V1.0.2/MSDK/plf/GD32VW55x_standard_peripheral/Source\gd32vw55x_fmc.c ****       \arg        FMC_OBR_NWDG_HW: watchdog status function
 224:C:/Users/stapi/OneDrive/Desktop/GD32VW553/V1_MQTT_OK/GD32VW55X_Wifi_BLE_SDK/GD32VW55x_RELEASE_V1.0.2/MSDK/plf/GD32VW55x_standard_peripheral/Source\gd32vw55x_fmc.c ****       \arg        FMC_OBR_NRST_STDBY: no reset generated when entering Standby mode function
 225:C:/Users/stapi/OneDrive/Desktop/GD32VW553/V1_MQTT_OK/GD32VW55X_Wifi_BLE_SDK/GD32VW55x_RELEASE_V1.0.2/MSDK/plf/GD32VW55x_standard_peripheral/Source\gd32vw55x_fmc.c ****       \arg        FMC_OBR_NSRT_DPSLP: no reset generated when entering DeepSleep mode function
 226:C:/Users/stapi/OneDrive/Desktop/GD32VW553/V1_MQTT_OK/GD32VW55X_Wifi_BLE_SDK/GD32VW55x_RELEASE_V1.0.2/MSDK/plf/GD32VW55x_standard_peripheral/Source\gd32vw55x_fmc.c ****       \arg        FMC_OBR_SRAM1_RST: SRAM1 reset automatically function
 227:C:/Users/stapi/OneDrive/Desktop/GD32VW553/V1_MQTT_OK/GD32VW55X_Wifi_BLE_SDK/GD32VW55x_RELEASE_V1.0.2/MSDK/plf/GD32VW55x_standard_peripheral/Source\gd32vw55x_fmc.c ****     \param[out] none
 228:C:/Users/stapi/OneDrive/Desktop/GD32VW553/V1_MQTT_OK/GD32VW55X_Wifi_BLE_SDK/GD32VW55x_RELEASE_V1.0.2/MSDK/plf/GD32VW55x_standard_peripheral/Source\gd32vw55x_fmc.c ****     \retval     none
 229:C:/Users/stapi/OneDrive/Desktop/GD32VW553/V1_MQTT_OK/GD32VW55X_Wifi_BLE_SDK/GD32VW55x_RELEASE_V1.0.2/MSDK/plf/GD32VW55x_standard_peripheral/Source\gd32vw55x_fmc.c **** */
 230:C:/Users/stapi/OneDrive/Desktop/GD32VW553/V1_MQTT_OK/GD32VW55X_Wifi_BLE_SDK/GD32VW55x_RELEASE_V1.0.2/MSDK/plf/GD32VW55x_standard_peripheral/Source\gd32vw55x_fmc.c **** void fmc_obr_function_disable(uint32_t obr_function)
 231:C:/Users/stapi/OneDrive/Desktop/GD32VW553/V1_MQTT_OK/GD32VW55X_Wifi_BLE_SDK/GD32VW55x_RELEASE_V1.0.2/MSDK/plf/GD32VW55x_standard_peripheral/Source\gd32vw55x_fmc.c **** {
  87              		.loc 1 231 1 is_stmt 1
  88              		.cfi_startproc
  89              	.LVL1:
 232:C:/Users/stapi/OneDrive/Desktop/GD32VW553/V1_MQTT_OK/GD32VW55X_Wifi_BLE_SDK/GD32VW55x_RELEASE_V1.0.2/MSDK/plf/GD32VW55x_standard_peripheral/Source\gd32vw55x_fmc.c ****     FMC_OBR &= ~(uint32_t) obr_function;
  90              		.loc 1 232 5
  91              		.loc 1 232 13 is_stmt 0
  92 0000 B7270240 		li	a5,1073881088
  93 0004 B843     		lw	a4,64(a5)
  94 0006 3375A740 		andn	a0,a4,a0
  95              	.LVL2:
  96 000a A8C3     		sw	a0,64(a5)
 233:C:/Users/stapi/OneDrive/Desktop/GD32VW553/V1_MQTT_OK/GD32VW55X_Wifi_BLE_SDK/GD32VW55x_RELEASE_V1.0.2/MSDK/plf/GD32VW55x_standard_peripheral/Source\gd32vw55x_fmc.c **** }
  97              		.loc 1 233 1
  98 000c 8280     		ret
  99              		.cfi_endproc
 100              	.LFE372:
 102              		.section	.text.ob_unlock,"ax",@progbits
 103              		.align	1
 104              		.globl	ob_unlock
 106              	ob_unlock:
 107              	.LFB373:
 234:C:/Users/stapi/OneDrive/Desktop/GD32VW553/V1_MQTT_OK/GD32VW55X_Wifi_BLE_SDK/GD32VW55x_RELEASE_V1.0.2/MSDK/plf/GD32VW55x_standard_peripheral/Source\gd32vw55x_fmc.c **** 
 235:C:/Users/stapi/OneDrive/Desktop/GD32VW553/V1_MQTT_OK/GD32VW55X_Wifi_BLE_SDK/GD32VW55x_RELEASE_V1.0.2/MSDK/plf/GD32VW55x_standard_peripheral/Source\gd32vw55x_fmc.c **** /*!
 236:C:/Users/stapi/OneDrive/Desktop/GD32VW553/V1_MQTT_OK/GD32VW55X_Wifi_BLE_SDK/GD32VW55x_RELEASE_V1.0.2/MSDK/plf/GD32VW55x_standard_peripheral/Source\gd32vw55x_fmc.c ****     \brief      unlock the option bytes operation
 237:C:/Users/stapi/OneDrive/Desktop/GD32VW553/V1_MQTT_OK/GD32VW55X_Wifi_BLE_SDK/GD32VW55x_RELEASE_V1.0.2/MSDK/plf/GD32VW55x_standard_peripheral/Source\gd32vw55x_fmc.c ****     it is better to used in pairs with ob_lock
 238:C:/Users/stapi/OneDrive/Desktop/GD32VW553/V1_MQTT_OK/GD32VW55X_Wifi_BLE_SDK/GD32VW55x_RELEASE_V1.0.2/MSDK/plf/GD32VW55x_standard_peripheral/Source\gd32vw55x_fmc.c ****     \param[in]  none
 239:C:/Users/stapi/OneDrive/Desktop/GD32VW553/V1_MQTT_OK/GD32VW55X_Wifi_BLE_SDK/GD32VW55x_RELEASE_V1.0.2/MSDK/plf/GD32VW55x_standard_peripheral/Source\gd32vw55x_fmc.c ****     \param[out] none
 240:C:/Users/stapi/OneDrive/Desktop/GD32VW553/V1_MQTT_OK/GD32VW55X_Wifi_BLE_SDK/GD32VW55x_RELEASE_V1.0.2/MSDK/plf/GD32VW55x_standard_peripheral/Source\gd32vw55x_fmc.c ****     \retval     none
 241:C:/Users/stapi/OneDrive/Desktop/GD32VW553/V1_MQTT_OK/GD32VW55X_Wifi_BLE_SDK/GD32VW55x_RELEASE_V1.0.2/MSDK/plf/GD32VW55x_standard_peripheral/Source\gd32vw55x_fmc.c **** */
 242:C:/Users/stapi/OneDrive/Desktop/GD32VW553/V1_MQTT_OK/GD32VW55X_Wifi_BLE_SDK/GD32VW55x_RELEASE_V1.0.2/MSDK/plf/GD32VW55x_standard_peripheral/Source\gd32vw55x_fmc.c **** void ob_unlock(void)
 243:C:/Users/stapi/OneDrive/Desktop/GD32VW553/V1_MQTT_OK/GD32VW55X_Wifi_BLE_SDK/GD32VW55x_RELEASE_V1.0.2/MSDK/plf/GD32VW55x_standard_peripheral/Source\gd32vw55x_fmc.c **** {
 108              		.loc 1 243 1 is_stmt 1
 109              		.cfi_startproc
 244:C:/Users/stapi/OneDrive/Desktop/GD32VW553/V1_MQTT_OK/GD32VW55X_Wifi_BLE_SDK/GD32VW55x_RELEASE_V1.0.2/MSDK/plf/GD32VW55x_standard_peripheral/Source\gd32vw55x_fmc.c ****     if (RESET == (FMC_CTL & FMC_CTL_OBWEN)){
 110              		.loc 1 244 5
 111              		.loc 1 244 19 is_stmt 0
 112 0000 B7270240 		li	a5,1073881088
 113 0004 984B     		lw	a4,16(a5)
 114              		.loc 1 244 27
 115 0006 13770720 		andi	a4,a4,512
 116              		.loc 1 244 8
 117 000a 19EB     		bne	a4,zero,.L9
 245:C:/Users/stapi/OneDrive/Desktop/GD32VW553/V1_MQTT_OK/GD32VW55X_Wifi_BLE_SDK/GD32VW55x_RELEASE_V1.0.2/MSDK/plf/GD32VW55x_standard_peripheral/Source\gd32vw55x_fmc.c ****         /* write the FMC ob unlock key */
 246:C:/Users/stapi/OneDrive/Desktop/GD32VW553/V1_MQTT_OK/GD32VW55X_Wifi_BLE_SDK/GD32VW55x_RELEASE_V1.0.2/MSDK/plf/GD32VW55x_standard_peripheral/Source\gd32vw55x_fmc.c ****         FMC_OBKEY = UNLOCK_KEY0;
 118              		.loc 1 246 9 is_stmt 1
 119              		.loc 1 246 19 is_stmt 0
 120 000c 37076745 		li	a4,1164378112
 121 0010 13073712 		addi	a4,a4,291
 122 0014 98C7     		sw	a4,8(a5)
 247:C:/Users/stapi/OneDrive/Desktop/GD32VW553/V1_MQTT_OK/GD32VW55X_Wifi_BLE_SDK/GD32VW55x_RELEASE_V1.0.2/MSDK/plf/GD32VW55x_standard_peripheral/Source\gd32vw55x_fmc.c ****         FMC_OBKEY = UNLOCK_KEY1;
 123              		.loc 1 247 9 is_stmt 1
 124              		.loc 1 247 19 is_stmt 0
 125 0016 3797EFCD 		li	a4,-839938048
 126 001a 1307B79A 		addi	a4,a4,-1621
 127 001e 98C7     		sw	a4,8(a5)
 128              	.L9:
 248:C:/Users/stapi/OneDrive/Desktop/GD32VW553/V1_MQTT_OK/GD32VW55X_Wifi_BLE_SDK/GD32VW55x_RELEASE_V1.0.2/MSDK/plf/GD32VW55x_standard_peripheral/Source\gd32vw55x_fmc.c ****     }
 249:C:/Users/stapi/OneDrive/Desktop/GD32VW553/V1_MQTT_OK/GD32VW55X_Wifi_BLE_SDK/GD32VW55x_RELEASE_V1.0.2/MSDK/plf/GD32VW55x_standard_peripheral/Source\gd32vw55x_fmc.c **** }
 129              		.loc 1 249 1
 130 0020 8280     		ret
 131              		.cfi_endproc
 132              	.LFE373:
 134              		.section	.text.ob_lock,"ax",@progbits
 135              		.align	1
 136              		.globl	ob_lock
 138              	ob_lock:
 139              	.LFB374:
 250:C:/Users/stapi/OneDrive/Desktop/GD32VW553/V1_MQTT_OK/GD32VW55X_Wifi_BLE_SDK/GD32VW55x_RELEASE_V1.0.2/MSDK/plf/GD32VW55x_standard_peripheral/Source\gd32vw55x_fmc.c **** 
 251:C:/Users/stapi/OneDrive/Desktop/GD32VW553/V1_MQTT_OK/GD32VW55X_Wifi_BLE_SDK/GD32VW55x_RELEASE_V1.0.2/MSDK/plf/GD32VW55x_standard_peripheral/Source\gd32vw55x_fmc.c **** /*!
 252:C:/Users/stapi/OneDrive/Desktop/GD32VW553/V1_MQTT_OK/GD32VW55X_Wifi_BLE_SDK/GD32VW55x_RELEASE_V1.0.2/MSDK/plf/GD32VW55x_standard_peripheral/Source\gd32vw55x_fmc.c ****     \brief      lock the option bytes operation
 253:C:/Users/stapi/OneDrive/Desktop/GD32VW553/V1_MQTT_OK/GD32VW55X_Wifi_BLE_SDK/GD32VW55x_RELEASE_V1.0.2/MSDK/plf/GD32VW55x_standard_peripheral/Source\gd32vw55x_fmc.c ****                 it is better to used in pairs with ob_unlock after an operation
 254:C:/Users/stapi/OneDrive/Desktop/GD32VW553/V1_MQTT_OK/GD32VW55X_Wifi_BLE_SDK/GD32VW55x_RELEASE_V1.0.2/MSDK/plf/GD32VW55x_standard_peripheral/Source\gd32vw55x_fmc.c ****     \param[in]  none
 255:C:/Users/stapi/OneDrive/Desktop/GD32VW553/V1_MQTT_OK/GD32VW55X_Wifi_BLE_SDK/GD32VW55x_RELEASE_V1.0.2/MSDK/plf/GD32VW55x_standard_peripheral/Source\gd32vw55x_fmc.c ****     \param[out] none
 256:C:/Users/stapi/OneDrive/Desktop/GD32VW553/V1_MQTT_OK/GD32VW55X_Wifi_BLE_SDK/GD32VW55x_RELEASE_V1.0.2/MSDK/plf/GD32VW55x_standard_peripheral/Source\gd32vw55x_fmc.c ****     \retval     none
 257:C:/Users/stapi/OneDrive/Desktop/GD32VW553/V1_MQTT_OK/GD32VW55X_Wifi_BLE_SDK/GD32VW55x_RELEASE_V1.0.2/MSDK/plf/GD32VW55x_standard_peripheral/Source\gd32vw55x_fmc.c **** */
 258:C:/Users/stapi/OneDrive/Desktop/GD32VW553/V1_MQTT_OK/GD32VW55X_Wifi_BLE_SDK/GD32VW55x_RELEASE_V1.0.2/MSDK/plf/GD32VW55x_standard_peripheral/Source\gd32vw55x_fmc.c **** void ob_lock(void)
 259:C:/Users/stapi/OneDrive/Desktop/GD32VW553/V1_MQTT_OK/GD32VW55X_Wifi_BLE_SDK/GD32VW55x_RELEASE_V1.0.2/MSDK/plf/GD32VW55x_standard_peripheral/Source\gd32vw55x_fmc.c **** {
 140              		.loc 1 259 1 is_stmt 1
 141              		.cfi_startproc
 260:C:/Users/stapi/OneDrive/Desktop/GD32VW553/V1_MQTT_OK/GD32VW55X_Wifi_BLE_SDK/GD32VW55x_RELEASE_V1.0.2/MSDK/plf/GD32VW55x_standard_peripheral/Source\gd32vw55x_fmc.c ****     /* reset the OBWEN bit */
 261:C:/Users/stapi/OneDrive/Desktop/GD32VW553/V1_MQTT_OK/GD32VW55X_Wifi_BLE_SDK/GD32VW55x_RELEASE_V1.0.2/MSDK/plf/GD32VW55x_standard_peripheral/Source\gd32vw55x_fmc.c ****     FMC_CTL &= ~FMC_CTL_OBWEN;
 142              		.loc 1 261 5
 143              		.loc 1 261 13 is_stmt 0
 144 0000 37270240 		li	a4,1073881088
 145 0004 1C4B     		lw	a5,16(a4)
 146 0006 93F7F7DF 		andi	a5,a5,-513
 147 000a 1CCB     		sw	a5,16(a4)
 262:C:/Users/stapi/OneDrive/Desktop/GD32VW553/V1_MQTT_OK/GD32VW55X_Wifi_BLE_SDK/GD32VW55x_RELEASE_V1.0.2/MSDK/plf/GD32VW55x_standard_peripheral/Source\gd32vw55x_fmc.c **** }
 148              		.loc 1 262 1
 149 000c 8280     		ret
 150              		.cfi_endproc
 151              	.LFE374:
 153              		.section	.text.ob_start,"ax",@progbits
 154              		.align	1
 155              		.globl	ob_start
 157              	ob_start:
 158              	.LFB375:
 263:C:/Users/stapi/OneDrive/Desktop/GD32VW553/V1_MQTT_OK/GD32VW55X_Wifi_BLE_SDK/GD32VW55x_RELEASE_V1.0.2/MSDK/plf/GD32VW55x_standard_peripheral/Source\gd32vw55x_fmc.c **** 
 264:C:/Users/stapi/OneDrive/Desktop/GD32VW553/V1_MQTT_OK/GD32VW55X_Wifi_BLE_SDK/GD32VW55x_RELEASE_V1.0.2/MSDK/plf/GD32VW55x_standard_peripheral/Source\gd32vw55x_fmc.c **** /*!
 265:C:/Users/stapi/OneDrive/Desktop/GD32VW553/V1_MQTT_OK/GD32VW55X_Wifi_BLE_SDK/GD32VW55x_RELEASE_V1.0.2/MSDK/plf/GD32VW55x_standard_peripheral/Source\gd32vw55x_fmc.c ****     \brief      send option bytes modification start command
 266:C:/Users/stapi/OneDrive/Desktop/GD32VW553/V1_MQTT_OK/GD32VW55X_Wifi_BLE_SDK/GD32VW55x_RELEASE_V1.0.2/MSDK/plf/GD32VW55x_standard_peripheral/Source\gd32vw55x_fmc.c ****     \param[in]  none
 267:C:/Users/stapi/OneDrive/Desktop/GD32VW553/V1_MQTT_OK/GD32VW55X_Wifi_BLE_SDK/GD32VW55x_RELEASE_V1.0.2/MSDK/plf/GD32VW55x_standard_peripheral/Source\gd32vw55x_fmc.c ****     \param[out] none
 268:C:/Users/stapi/OneDrive/Desktop/GD32VW553/V1_MQTT_OK/GD32VW55X_Wifi_BLE_SDK/GD32VW55x_RELEASE_V1.0.2/MSDK/plf/GD32VW55x_standard_peripheral/Source\gd32vw55x_fmc.c ****     \retval     none
 269:C:/Users/stapi/OneDrive/Desktop/GD32VW553/V1_MQTT_OK/GD32VW55X_Wifi_BLE_SDK/GD32VW55x_RELEASE_V1.0.2/MSDK/plf/GD32VW55x_standard_peripheral/Source\gd32vw55x_fmc.c **** */
 270:C:/Users/stapi/OneDrive/Desktop/GD32VW553/V1_MQTT_OK/GD32VW55X_Wifi_BLE_SDK/GD32VW55x_RELEASE_V1.0.2/MSDK/plf/GD32VW55x_standard_peripheral/Source\gd32vw55x_fmc.c **** void ob_start(void)
 271:C:/Users/stapi/OneDrive/Desktop/GD32VW553/V1_MQTT_OK/GD32VW55X_Wifi_BLE_SDK/GD32VW55x_RELEASE_V1.0.2/MSDK/plf/GD32VW55x_standard_peripheral/Source\gd32vw55x_fmc.c **** {
 159              		.loc 1 271 1 is_stmt 1
 160              		.cfi_startproc
 272:C:/Users/stapi/OneDrive/Desktop/GD32VW553/V1_MQTT_OK/GD32VW55X_Wifi_BLE_SDK/GD32VW55x_RELEASE_V1.0.2/MSDK/plf/GD32VW55x_standard_peripheral/Source\gd32vw55x_fmc.c ****     /* set the OB_START bit in FMC_CTL register to start option bytes modification */
 273:C:/Users/stapi/OneDrive/Desktop/GD32VW553/V1_MQTT_OK/GD32VW55X_Wifi_BLE_SDK/GD32VW55x_RELEASE_V1.0.2/MSDK/plf/GD32VW55x_standard_peripheral/Source\gd32vw55x_fmc.c ****     FMC_CTL |= (FMC_CTL_OBSTART | FMC_CTL_OBWEN);
 161              		.loc 1 273 5
 162              		.loc 1 273 13 is_stmt 0
 163 0000 B7260240 		li	a3,1073881088
 164 0004 9C4A     		lw	a5,16(a3)
 165 0006 1167     		li	a4,16384
 166 0008 13070720 		addi	a4,a4,512
 167 000c D98F     		or	a5,a5,a4
 168 000e 9CCA     		sw	a5,16(a3)
 274:C:/Users/stapi/OneDrive/Desktop/GD32VW553/V1_MQTT_OK/GD32VW55X_Wifi_BLE_SDK/GD32VW55x_RELEASE_V1.0.2/MSDK/plf/GD32VW55x_standard_peripheral/Source\gd32vw55x_fmc.c **** }
 169              		.loc 1 274 1
 170 0010 8280     		ret
 171              		.cfi_endproc
 172              	.LFE375:
 174              		.section	.text.ob_reload,"ax",@progbits
 175              		.align	1
 176              		.globl	ob_reload
 178              	ob_reload:
 179              	.LFB376:
 275:C:/Users/stapi/OneDrive/Desktop/GD32VW553/V1_MQTT_OK/GD32VW55X_Wifi_BLE_SDK/GD32VW55x_RELEASE_V1.0.2/MSDK/plf/GD32VW55x_standard_peripheral/Source\gd32vw55x_fmc.c **** 
 276:C:/Users/stapi/OneDrive/Desktop/GD32VW553/V1_MQTT_OK/GD32VW55X_Wifi_BLE_SDK/GD32VW55x_RELEASE_V1.0.2/MSDK/plf/GD32VW55x_standard_peripheral/Source\gd32vw55x_fmc.c **** /*!
 277:C:/Users/stapi/OneDrive/Desktop/GD32VW553/V1_MQTT_OK/GD32VW55X_Wifi_BLE_SDK/GD32VW55x_RELEASE_V1.0.2/MSDK/plf/GD32VW55x_standard_peripheral/Source\gd32vw55x_fmc.c ****     \brief      reload option bytes
 278:C:/Users/stapi/OneDrive/Desktop/GD32VW553/V1_MQTT_OK/GD32VW55X_Wifi_BLE_SDK/GD32VW55x_RELEASE_V1.0.2/MSDK/plf/GD32VW55x_standard_peripheral/Source\gd32vw55x_fmc.c ****     \param[in]  none
 279:C:/Users/stapi/OneDrive/Desktop/GD32VW553/V1_MQTT_OK/GD32VW55X_Wifi_BLE_SDK/GD32VW55x_RELEASE_V1.0.2/MSDK/plf/GD32VW55x_standard_peripheral/Source\gd32vw55x_fmc.c ****     \param[out] none
 280:C:/Users/stapi/OneDrive/Desktop/GD32VW553/V1_MQTT_OK/GD32VW55X_Wifi_BLE_SDK/GD32VW55x_RELEASE_V1.0.2/MSDK/plf/GD32VW55x_standard_peripheral/Source\gd32vw55x_fmc.c ****     \retval     none
 281:C:/Users/stapi/OneDrive/Desktop/GD32VW553/V1_MQTT_OK/GD32VW55X_Wifi_BLE_SDK/GD32VW55x_RELEASE_V1.0.2/MSDK/plf/GD32VW55x_standard_peripheral/Source\gd32vw55x_fmc.c **** */
 282:C:/Users/stapi/OneDrive/Desktop/GD32VW553/V1_MQTT_OK/GD32VW55X_Wifi_BLE_SDK/GD32VW55x_RELEASE_V1.0.2/MSDK/plf/GD32VW55x_standard_peripheral/Source\gd32vw55x_fmc.c **** void ob_reload(void)
 283:C:/Users/stapi/OneDrive/Desktop/GD32VW553/V1_MQTT_OK/GD32VW55X_Wifi_BLE_SDK/GD32VW55x_RELEASE_V1.0.2/MSDK/plf/GD32VW55x_standard_peripheral/Source\gd32vw55x_fmc.c **** {
 180              		.loc 1 283 1 is_stmt 1
 181              		.cfi_startproc
 284:C:/Users/stapi/OneDrive/Desktop/GD32VW553/V1_MQTT_OK/GD32VW55X_Wifi_BLE_SDK/GD32VW55x_RELEASE_V1.0.2/MSDK/plf/GD32VW55x_standard_peripheral/Source\gd32vw55x_fmc.c ****     /* set the FMC_CTL_OBRLD bit in FMC_CTL register to reload option bytes */
 285:C:/Users/stapi/OneDrive/Desktop/GD32VW553/V1_MQTT_OK/GD32VW55X_Wifi_BLE_SDK/GD32VW55x_RELEASE_V1.0.2/MSDK/plf/GD32VW55x_standard_peripheral/Source\gd32vw55x_fmc.c ****     FMC_CTL |= FMC_CTL_OBRLD;
 182              		.loc 1 285 5
 183              		.loc 1 285 13 is_stmt 0
 184 0000 37270240 		li	a4,1073881088
 185 0004 1C4B     		lw	a5,16(a4)
 186 0006 9397F728 		bseti	a5,a5,15
 187 000a 1CCB     		sw	a5,16(a4)
 286:C:/Users/stapi/OneDrive/Desktop/GD32VW553/V1_MQTT_OK/GD32VW55X_Wifi_BLE_SDK/GD32VW55x_RELEASE_V1.0.2/MSDK/plf/GD32VW55x_standard_peripheral/Source\gd32vw55x_fmc.c **** }
 188              		.loc 1 286 1
 189 000c 8280     		ret
 190              		.cfi_endproc
 191              	.LFE376:
 193              		.section	.text.fmc_no_rtdec_config,"ax",@progbits
 194              		.align	1
 195              		.globl	fmc_no_rtdec_config
 197              	fmc_no_rtdec_config:
 198              	.LFB380:
 287:C:/Users/stapi/OneDrive/Desktop/GD32VW553/V1_MQTT_OK/GD32VW55X_Wifi_BLE_SDK/GD32VW55x_RELEASE_V1.0.2/MSDK/plf/GD32VW55x_standard_peripheral/Source\gd32vw55x_fmc.c **** 
 288:C:/Users/stapi/OneDrive/Desktop/GD32VW553/V1_MQTT_OK/GD32VW55X_Wifi_BLE_SDK/GD32VW55x_RELEASE_V1.0.2/MSDK/plf/GD32VW55x_standard_peripheral/Source\gd32vw55x_fmc.c **** /*!
 289:C:/Users/stapi/OneDrive/Desktop/GD32VW553/V1_MQTT_OK/GD32VW55X_Wifi_BLE_SDK/GD32VW55x_RELEASE_V1.0.2/MSDK/plf/GD32VW55x_standard_peripheral/Source\gd32vw55x_fmc.c ****     \brief      configure security protection
 290:C:/Users/stapi/OneDrive/Desktop/GD32VW553/V1_MQTT_OK/GD32VW55X_Wifi_BLE_SDK/GD32VW55x_RELEASE_V1.0.2/MSDK/plf/GD32VW55x_standard_peripheral/Source\gd32vw55x_fmc.c ****                 programmer must ensure FMC & option bytes are both unlocked before calling this fun
 291:C:/Users/stapi/OneDrive/Desktop/GD32VW553/V1_MQTT_OK/GD32VW55X_Wifi_BLE_SDK/GD32VW55x_RELEASE_V1.0.2/MSDK/plf/GD32VW55x_standard_peripheral/Source\gd32vw55x_fmc.c ****     \param[in]  ob_spc: specify security protection
 292:C:/Users/stapi/OneDrive/Desktop/GD32VW553/V1_MQTT_OK/GD32VW55X_Wifi_BLE_SDK/GD32VW55x_RELEASE_V1.0.2/MSDK/plf/GD32VW55x_standard_peripheral/Source\gd32vw55x_fmc.c ****                 only one parameter can be selected which is shown as below:
 293:C:/Users/stapi/OneDrive/Desktop/GD32VW553/V1_MQTT_OK/GD32VW55X_Wifi_BLE_SDK/GD32VW55x_RELEASE_V1.0.2/MSDK/plf/GD32VW55x_standard_peripheral/Source\gd32vw55x_fmc.c ****       \arg        FMC_NSPC: no security protection
 294:C:/Users/stapi/OneDrive/Desktop/GD32VW553/V1_MQTT_OK/GD32VW55X_Wifi_BLE_SDK/GD32VW55x_RELEASE_V1.0.2/MSDK/plf/GD32VW55x_standard_peripheral/Source\gd32vw55x_fmc.c ****       \arg        FMC_SPC_P1: security protection level 1
 295:C:/Users/stapi/OneDrive/Desktop/GD32VW553/V1_MQTT_OK/GD32VW55X_Wifi_BLE_SDK/GD32VW55x_RELEASE_V1.0.2/MSDK/plf/GD32VW55x_standard_peripheral/Source\gd32vw55x_fmc.c ****     \param[out] none
 296:C:/Users/stapi/OneDrive/Desktop/GD32VW553/V1_MQTT_OK/GD32VW55X_Wifi_BLE_SDK/GD32VW55x_RELEASE_V1.0.2/MSDK/plf/GD32VW55x_standard_peripheral/Source\gd32vw55x_fmc.c ****     \retval     state of FMC
 297:C:/Users/stapi/OneDrive/Desktop/GD32VW553/V1_MQTT_OK/GD32VW55X_Wifi_BLE_SDK/GD32VW55x_RELEASE_V1.0.2/MSDK/plf/GD32VW55x_standard_peripheral/Source\gd32vw55x_fmc.c ****       \arg        FMC_READY: the operation has been completed
 298:C:/Users/stapi/OneDrive/Desktop/GD32VW553/V1_MQTT_OK/GD32VW55X_Wifi_BLE_SDK/GD32VW55x_RELEASE_V1.0.2/MSDK/plf/GD32VW55x_standard_peripheral/Source\gd32vw55x_fmc.c ****       \arg        FMC_WPERR: erase/program protection error
 299:C:/Users/stapi/OneDrive/Desktop/GD32VW553/V1_MQTT_OK/GD32VW55X_Wifi_BLE_SDK/GD32VW55x_RELEASE_V1.0.2/MSDK/plf/GD32VW55x_standard_peripheral/Source\gd32vw55x_fmc.c ****       \arg        FMC_TOERR: timeout error
 300:C:/Users/stapi/OneDrive/Desktop/GD32VW553/V1_MQTT_OK/GD32VW55X_Wifi_BLE_SDK/GD32VW55x_RELEASE_V1.0.2/MSDK/plf/GD32VW55x_standard_peripheral/Source\gd32vw55x_fmc.c **** */
 301:C:/Users/stapi/OneDrive/Desktop/GD32VW553/V1_MQTT_OK/GD32VW55X_Wifi_BLE_SDK/GD32VW55x_RELEASE_V1.0.2/MSDK/plf/GD32VW55x_standard_peripheral/Source\gd32vw55x_fmc.c **** fmc_state_enum ob_security_protection_config(uint8_t ob_spc)
 302:C:/Users/stapi/OneDrive/Desktop/GD32VW553/V1_MQTT_OK/GD32VW55X_Wifi_BLE_SDK/GD32VW55x_RELEASE_V1.0.2/MSDK/plf/GD32VW55x_standard_peripheral/Source\gd32vw55x_fmc.c **** {
 303:C:/Users/stapi/OneDrive/Desktop/GD32VW553/V1_MQTT_OK/GD32VW55X_Wifi_BLE_SDK/GD32VW55x_RELEASE_V1.0.2/MSDK/plf/GD32VW55x_standard_peripheral/Source\gd32vw55x_fmc.c ****     fmc_state_enum fmc_state = fmc_ready_wait(FMC_TIMEOUT_COUNT);
 304:C:/Users/stapi/OneDrive/Desktop/GD32VW553/V1_MQTT_OK/GD32VW55X_Wifi_BLE_SDK/GD32VW55x_RELEASE_V1.0.2/MSDK/plf/GD32VW55x_standard_peripheral/Source\gd32vw55x_fmc.c **** 
 305:C:/Users/stapi/OneDrive/Desktop/GD32VW553/V1_MQTT_OK/GD32VW55X_Wifi_BLE_SDK/GD32VW55x_RELEASE_V1.0.2/MSDK/plf/GD32VW55x_standard_peripheral/Source\gd32vw55x_fmc.c ****     if(FMC_READY == fmc_state){
 306:C:/Users/stapi/OneDrive/Desktop/GD32VW553/V1_MQTT_OK/GD32VW55X_Wifi_BLE_SDK/GD32VW55x_RELEASE_V1.0.2/MSDK/plf/GD32VW55x_standard_peripheral/Source\gd32vw55x_fmc.c ****         FMC_OBR &= FMC_OBR_SPC_MASK;
 307:C:/Users/stapi/OneDrive/Desktop/GD32VW553/V1_MQTT_OK/GD32VW55X_Wifi_BLE_SDK/GD32VW55x_RELEASE_V1.0.2/MSDK/plf/GD32VW55x_standard_peripheral/Source\gd32vw55x_fmc.c ****         FMC_OBR |= ob_spc;
 308:C:/Users/stapi/OneDrive/Desktop/GD32VW553/V1_MQTT_OK/GD32VW55X_Wifi_BLE_SDK/GD32VW55x_RELEASE_V1.0.2/MSDK/plf/GD32VW55x_standard_peripheral/Source\gd32vw55x_fmc.c ****         /* start option bytes modification */
 309:C:/Users/stapi/OneDrive/Desktop/GD32VW553/V1_MQTT_OK/GD32VW55X_Wifi_BLE_SDK/GD32VW55x_RELEASE_V1.0.2/MSDK/plf/GD32VW55x_standard_peripheral/Source\gd32vw55x_fmc.c ****         FMC_CTL |= FMC_CTL_OBSTART;
 310:C:/Users/stapi/OneDrive/Desktop/GD32VW553/V1_MQTT_OK/GD32VW55X_Wifi_BLE_SDK/GD32VW55x_RELEASE_V1.0.2/MSDK/plf/GD32VW55x_standard_peripheral/Source\gd32vw55x_fmc.c ****         /* wait for the FMC ready */
 311:C:/Users/stapi/OneDrive/Desktop/GD32VW553/V1_MQTT_OK/GD32VW55X_Wifi_BLE_SDK/GD32VW55x_RELEASE_V1.0.2/MSDK/plf/GD32VW55x_standard_peripheral/Source\gd32vw55x_fmc.c ****         fmc_state = fmc_ready_wait(FMC_TIMEOUT_COUNT);
 312:C:/Users/stapi/OneDrive/Desktop/GD32VW553/V1_MQTT_OK/GD32VW55X_Wifi_BLE_SDK/GD32VW55x_RELEASE_V1.0.2/MSDK/plf/GD32VW55x_standard_peripheral/Source\gd32vw55x_fmc.c ****     }
 313:C:/Users/stapi/OneDrive/Desktop/GD32VW553/V1_MQTT_OK/GD32VW55X_Wifi_BLE_SDK/GD32VW55x_RELEASE_V1.0.2/MSDK/plf/GD32VW55x_standard_peripheral/Source\gd32vw55x_fmc.c **** 
 314:C:/Users/stapi/OneDrive/Desktop/GD32VW553/V1_MQTT_OK/GD32VW55X_Wifi_BLE_SDK/GD32VW55x_RELEASE_V1.0.2/MSDK/plf/GD32VW55x_standard_peripheral/Source\gd32vw55x_fmc.c ****     /* return the FMC state */
 315:C:/Users/stapi/OneDrive/Desktop/GD32VW553/V1_MQTT_OK/GD32VW55X_Wifi_BLE_SDK/GD32VW55x_RELEASE_V1.0.2/MSDK/plf/GD32VW55x_standard_peripheral/Source\gd32vw55x_fmc.c ****     return fmc_state;
 316:C:/Users/stapi/OneDrive/Desktop/GD32VW553/V1_MQTT_OK/GD32VW55X_Wifi_BLE_SDK/GD32VW55x_RELEASE_V1.0.2/MSDK/plf/GD32VW55x_standard_peripheral/Source\gd32vw55x_fmc.c **** }
 317:C:/Users/stapi/OneDrive/Desktop/GD32VW553/V1_MQTT_OK/GD32VW55X_Wifi_BLE_SDK/GD32VW55x_RELEASE_V1.0.2/MSDK/plf/GD32VW55x_standard_peripheral/Source\gd32vw55x_fmc.c **** 
 318:C:/Users/stapi/OneDrive/Desktop/GD32VW553/V1_MQTT_OK/GD32VW55X_Wifi_BLE_SDK/GD32VW55x_RELEASE_V1.0.2/MSDK/plf/GD32VW55x_standard_peripheral/Source\gd32vw55x_fmc.c **** /*!
 319:C:/Users/stapi/OneDrive/Desktop/GD32VW553/V1_MQTT_OK/GD32VW55X_Wifi_BLE_SDK/GD32VW55x_RELEASE_V1.0.2/MSDK/plf/GD32VW55x_standard_peripheral/Source\gd32vw55x_fmc.c ****     \brief      program option bytes USER
 320:C:/Users/stapi/OneDrive/Desktop/GD32VW553/V1_MQTT_OK/GD32VW55X_Wifi_BLE_SDK/GD32VW55x_RELEASE_V1.0.2/MSDK/plf/GD32VW55x_standard_peripheral/Source\gd32vw55x_fmc.c ****                 programmer must ensure FMC & option bytes are both unlocked before calling this fun
 321:C:/Users/stapi/OneDrive/Desktop/GD32VW553/V1_MQTT_OK/GD32VW55X_Wifi_BLE_SDK/GD32VW55x_RELEASE_V1.0.2/MSDK/plf/GD32VW55x_standard_peripheral/Source\gd32vw55x_fmc.c ****     \param[in]  ob_user: option bytes user value
 322:C:/Users/stapi/OneDrive/Desktop/GD32VW553/V1_MQTT_OK/GD32VW55X_Wifi_BLE_SDK/GD32VW55x_RELEASE_V1.0.2/MSDK/plf/GD32VW55x_standard_peripheral/Source\gd32vw55x_fmc.c ****     \param[out] none
 323:C:/Users/stapi/OneDrive/Desktop/GD32VW553/V1_MQTT_OK/GD32VW55X_Wifi_BLE_SDK/GD32VW55x_RELEASE_V1.0.2/MSDK/plf/GD32VW55x_standard_peripheral/Source\gd32vw55x_fmc.c ****     \retval     state of FMC
 324:C:/Users/stapi/OneDrive/Desktop/GD32VW553/V1_MQTT_OK/GD32VW55X_Wifi_BLE_SDK/GD32VW55x_RELEASE_V1.0.2/MSDK/plf/GD32VW55x_standard_peripheral/Source\gd32vw55x_fmc.c ****       \arg        FMC_READY: the operation has been completed
 325:C:/Users/stapi/OneDrive/Desktop/GD32VW553/V1_MQTT_OK/GD32VW55X_Wifi_BLE_SDK/GD32VW55x_RELEASE_V1.0.2/MSDK/plf/GD32VW55x_standard_peripheral/Source\gd32vw55x_fmc.c ****       \arg        FMC_WPERR: erase/program protection error
 326:C:/Users/stapi/OneDrive/Desktop/GD32VW553/V1_MQTT_OK/GD32VW55X_Wifi_BLE_SDK/GD32VW55x_RELEASE_V1.0.2/MSDK/plf/GD32VW55x_standard_peripheral/Source\gd32vw55x_fmc.c ****       \arg        FMC_TOERR: timeout error
 327:C:/Users/stapi/OneDrive/Desktop/GD32VW553/V1_MQTT_OK/GD32VW55X_Wifi_BLE_SDK/GD32VW55x_RELEASE_V1.0.2/MSDK/plf/GD32VW55x_standard_peripheral/Source\gd32vw55x_fmc.c **** */
 328:C:/Users/stapi/OneDrive/Desktop/GD32VW553/V1_MQTT_OK/GD32VW55X_Wifi_BLE_SDK/GD32VW55x_RELEASE_V1.0.2/MSDK/plf/GD32VW55x_standard_peripheral/Source\gd32vw55x_fmc.c **** fmc_state_enum ob_user_write(uint32_t ob_user)
 329:C:/Users/stapi/OneDrive/Desktop/GD32VW553/V1_MQTT_OK/GD32VW55X_Wifi_BLE_SDK/GD32VW55x_RELEASE_V1.0.2/MSDK/plf/GD32VW55x_standard_peripheral/Source\gd32vw55x_fmc.c **** {
 330:C:/Users/stapi/OneDrive/Desktop/GD32VW553/V1_MQTT_OK/GD32VW55X_Wifi_BLE_SDK/GD32VW55x_RELEASE_V1.0.2/MSDK/plf/GD32VW55x_standard_peripheral/Source\gd32vw55x_fmc.c ****     fmc_state_enum fmc_state = fmc_ready_wait(FMC_TIMEOUT_COUNT);
 331:C:/Users/stapi/OneDrive/Desktop/GD32VW553/V1_MQTT_OK/GD32VW55X_Wifi_BLE_SDK/GD32VW55x_RELEASE_V1.0.2/MSDK/plf/GD32VW55x_standard_peripheral/Source\gd32vw55x_fmc.c **** 
 332:C:/Users/stapi/OneDrive/Desktop/GD32VW553/V1_MQTT_OK/GD32VW55X_Wifi_BLE_SDK/GD32VW55x_RELEASE_V1.0.2/MSDK/plf/GD32VW55x_standard_peripheral/Source\gd32vw55x_fmc.c ****     if(FMC_READY == fmc_state){
 333:C:/Users/stapi/OneDrive/Desktop/GD32VW553/V1_MQTT_OK/GD32VW55X_Wifi_BLE_SDK/GD32VW55x_RELEASE_V1.0.2/MSDK/plf/GD32VW55x_standard_peripheral/Source\gd32vw55x_fmc.c ****         FMC_OBUSER &= FMC_OBUSER_MASK;
 334:C:/Users/stapi/OneDrive/Desktop/GD32VW553/V1_MQTT_OK/GD32VW55X_Wifi_BLE_SDK/GD32VW55x_RELEASE_V1.0.2/MSDK/plf/GD32VW55x_standard_peripheral/Source\gd32vw55x_fmc.c ****         FMC_OBUSER |= ob_user;
 335:C:/Users/stapi/OneDrive/Desktop/GD32VW553/V1_MQTT_OK/GD32VW55X_Wifi_BLE_SDK/GD32VW55x_RELEASE_V1.0.2/MSDK/plf/GD32VW55x_standard_peripheral/Source\gd32vw55x_fmc.c ****         /* start option bytes modification */
 336:C:/Users/stapi/OneDrive/Desktop/GD32VW553/V1_MQTT_OK/GD32VW55X_Wifi_BLE_SDK/GD32VW55x_RELEASE_V1.0.2/MSDK/plf/GD32VW55x_standard_peripheral/Source\gd32vw55x_fmc.c ****         FMC_CTL |= FMC_CTL_OBSTART;
 337:C:/Users/stapi/OneDrive/Desktop/GD32VW553/V1_MQTT_OK/GD32VW55X_Wifi_BLE_SDK/GD32VW55x_RELEASE_V1.0.2/MSDK/plf/GD32VW55x_standard_peripheral/Source\gd32vw55x_fmc.c ****         /* wait for the FMC ready */
 338:C:/Users/stapi/OneDrive/Desktop/GD32VW553/V1_MQTT_OK/GD32VW55X_Wifi_BLE_SDK/GD32VW55x_RELEASE_V1.0.2/MSDK/plf/GD32VW55x_standard_peripheral/Source\gd32vw55x_fmc.c ****         fmc_state = fmc_ready_wait(FMC_TIMEOUT_COUNT);
 339:C:/Users/stapi/OneDrive/Desktop/GD32VW553/V1_MQTT_OK/GD32VW55X_Wifi_BLE_SDK/GD32VW55x_RELEASE_V1.0.2/MSDK/plf/GD32VW55x_standard_peripheral/Source\gd32vw55x_fmc.c ****     }
 340:C:/Users/stapi/OneDrive/Desktop/GD32VW553/V1_MQTT_OK/GD32VW55X_Wifi_BLE_SDK/GD32VW55x_RELEASE_V1.0.2/MSDK/plf/GD32VW55x_standard_peripheral/Source\gd32vw55x_fmc.c **** 
 341:C:/Users/stapi/OneDrive/Desktop/GD32VW553/V1_MQTT_OK/GD32VW55X_Wifi_BLE_SDK/GD32VW55x_RELEASE_V1.0.2/MSDK/plf/GD32VW55x_standard_peripheral/Source\gd32vw55x_fmc.c ****     /* return the FMC state */
 342:C:/Users/stapi/OneDrive/Desktop/GD32VW553/V1_MQTT_OK/GD32VW55X_Wifi_BLE_SDK/GD32VW55x_RELEASE_V1.0.2/MSDK/plf/GD32VW55x_standard_peripheral/Source\gd32vw55x_fmc.c ****     return fmc_state;
 343:C:/Users/stapi/OneDrive/Desktop/GD32VW553/V1_MQTT_OK/GD32VW55X_Wifi_BLE_SDK/GD32VW55x_RELEASE_V1.0.2/MSDK/plf/GD32VW55x_standard_peripheral/Source\gd32vw55x_fmc.c **** }
 344:C:/Users/stapi/OneDrive/Desktop/GD32VW553/V1_MQTT_OK/GD32VW55X_Wifi_BLE_SDK/GD32VW55x_RELEASE_V1.0.2/MSDK/plf/GD32VW55x_standard_peripheral/Source\gd32vw55x_fmc.c **** 
 345:C:/Users/stapi/OneDrive/Desktop/GD32VW553/V1_MQTT_OK/GD32VW55X_Wifi_BLE_SDK/GD32VW55x_RELEASE_V1.0.2/MSDK/plf/GD32VW55x_standard_peripheral/Source\gd32vw55x_fmc.c **** /*!
 346:C:/Users/stapi/OneDrive/Desktop/GD32VW553/V1_MQTT_OK/GD32VW55X_Wifi_BLE_SDK/GD32VW55x_RELEASE_V1.0.2/MSDK/plf/GD32VW55x_standard_peripheral/Source\gd32vw55x_fmc.c ****     \brief      configure write protection pages
 347:C:/Users/stapi/OneDrive/Desktop/GD32VW553/V1_MQTT_OK/GD32VW55X_Wifi_BLE_SDK/GD32VW55x_RELEASE_V1.0.2/MSDK/plf/GD32VW55x_standard_peripheral/Source\gd32vw55x_fmc.c ****     \param[in]  wrp_spage: start page of write protection area, 0~0x3FF
 348:C:/Users/stapi/OneDrive/Desktop/GD32VW553/V1_MQTT_OK/GD32VW55X_Wifi_BLE_SDK/GD32VW55x_RELEASE_V1.0.2/MSDK/plf/GD32VW55x_standard_peripheral/Source\gd32vw55x_fmc.c ****     \param[in]  wrp_epage: end page of write protection area, 0~0x3FF
 349:C:/Users/stapi/OneDrive/Desktop/GD32VW553/V1_MQTT_OK/GD32VW55X_Wifi_BLE_SDK/GD32VW55x_RELEASE_V1.0.2/MSDK/plf/GD32VW55x_standard_peripheral/Source\gd32vw55x_fmc.c ****     \param[in]  wrp_register_index
 350:C:/Users/stapi/OneDrive/Desktop/GD32VW553/V1_MQTT_OK/GD32VW55X_Wifi_BLE_SDK/GD32VW55x_RELEASE_V1.0.2/MSDK/plf/GD32VW55x_standard_peripheral/Source\gd32vw55x_fmc.c ****                 only one parameter can be selected which are shown as below:
 351:C:/Users/stapi/OneDrive/Desktop/GD32VW553/V1_MQTT_OK/GD32VW55X_Wifi_BLE_SDK/GD32VW55x_RELEASE_V1.0.2/MSDK/plf/GD32VW55x_standard_peripheral/Source\gd32vw55x_fmc.c ****       \arg        OBWRP_INDEX0: option byte write protection area register 0
 352:C:/Users/stapi/OneDrive/Desktop/GD32VW553/V1_MQTT_OK/GD32VW55X_Wifi_BLE_SDK/GD32VW55x_RELEASE_V1.0.2/MSDK/plf/GD32VW55x_standard_peripheral/Source\gd32vw55x_fmc.c ****       \arg        OBWRP_INDEX1: option byte write protection area register 1
 353:C:/Users/stapi/OneDrive/Desktop/GD32VW553/V1_MQTT_OK/GD32VW55X_Wifi_BLE_SDK/GD32VW55x_RELEASE_V1.0.2/MSDK/plf/GD32VW55x_standard_peripheral/Source\gd32vw55x_fmc.c ****     \param[out] none
 354:C:/Users/stapi/OneDrive/Desktop/GD32VW553/V1_MQTT_OK/GD32VW55X_Wifi_BLE_SDK/GD32VW55x_RELEASE_V1.0.2/MSDK/plf/GD32VW55x_standard_peripheral/Source\gd32vw55x_fmc.c ****     \retval     state of FMC
 355:C:/Users/stapi/OneDrive/Desktop/GD32VW553/V1_MQTT_OK/GD32VW55X_Wifi_BLE_SDK/GD32VW55x_RELEASE_V1.0.2/MSDK/plf/GD32VW55x_standard_peripheral/Source\gd32vw55x_fmc.c ****       \arg        FMC_READY: the operation has been completed
 356:C:/Users/stapi/OneDrive/Desktop/GD32VW553/V1_MQTT_OK/GD32VW55X_Wifi_BLE_SDK/GD32VW55x_RELEASE_V1.0.2/MSDK/plf/GD32VW55x_standard_peripheral/Source\gd32vw55x_fmc.c ****       \arg        FMC_WPERR: erase/program protection error
 357:C:/Users/stapi/OneDrive/Desktop/GD32VW553/V1_MQTT_OK/GD32VW55X_Wifi_BLE_SDK/GD32VW55x_RELEASE_V1.0.2/MSDK/plf/GD32VW55x_standard_peripheral/Source\gd32vw55x_fmc.c ****       \arg        FMC_TOERR: timeout error
 358:C:/Users/stapi/OneDrive/Desktop/GD32VW553/V1_MQTT_OK/GD32VW55X_Wifi_BLE_SDK/GD32VW55x_RELEASE_V1.0.2/MSDK/plf/GD32VW55x_standard_peripheral/Source\gd32vw55x_fmc.c **** */
 359:C:/Users/stapi/OneDrive/Desktop/GD32VW553/V1_MQTT_OK/GD32VW55X_Wifi_BLE_SDK/GD32VW55x_RELEASE_V1.0.2/MSDK/plf/GD32VW55x_standard_peripheral/Source\gd32vw55x_fmc.c **** fmc_state_enum ob_write_protection_config(uint32_t wrp_spage, uint32_t wrp_epage, uint32_t wrp_regi
 360:C:/Users/stapi/OneDrive/Desktop/GD32VW553/V1_MQTT_OK/GD32VW55X_Wifi_BLE_SDK/GD32VW55x_RELEASE_V1.0.2/MSDK/plf/GD32VW55x_standard_peripheral/Source\gd32vw55x_fmc.c **** {
 361:C:/Users/stapi/OneDrive/Desktop/GD32VW553/V1_MQTT_OK/GD32VW55X_Wifi_BLE_SDK/GD32VW55x_RELEASE_V1.0.2/MSDK/plf/GD32VW55x_standard_peripheral/Source\gd32vw55x_fmc.c ****     fmc_state_enum fmc_state = fmc_ready_wait(FMC_TIMEOUT_COUNT);
 362:C:/Users/stapi/OneDrive/Desktop/GD32VW553/V1_MQTT_OK/GD32VW55X_Wifi_BLE_SDK/GD32VW55x_RELEASE_V1.0.2/MSDK/plf/GD32VW55x_standard_peripheral/Source\gd32vw55x_fmc.c **** 
 363:C:/Users/stapi/OneDrive/Desktop/GD32VW553/V1_MQTT_OK/GD32VW55X_Wifi_BLE_SDK/GD32VW55x_RELEASE_V1.0.2/MSDK/plf/GD32VW55x_standard_peripheral/Source\gd32vw55x_fmc.c ****     if(FMC_READY == fmc_state){
 364:C:/Users/stapi/OneDrive/Desktop/GD32VW553/V1_MQTT_OK/GD32VW55X_Wifi_BLE_SDK/GD32VW55x_RELEASE_V1.0.2/MSDK/plf/GD32VW55x_standard_peripheral/Source\gd32vw55x_fmc.c ****         switch(wrp_register_index){
 365:C:/Users/stapi/OneDrive/Desktop/GD32VW553/V1_MQTT_OK/GD32VW55X_Wifi_BLE_SDK/GD32VW55x_RELEASE_V1.0.2/MSDK/plf/GD32VW55x_standard_peripheral/Source\gd32vw55x_fmc.c ****         case OBWRP_INDEX0:
 366:C:/Users/stapi/OneDrive/Desktop/GD32VW553/V1_MQTT_OK/GD32VW55X_Wifi_BLE_SDK/GD32VW55x_RELEASE_V1.0.2/MSDK/plf/GD32VW55x_standard_peripheral/Source\gd32vw55x_fmc.c ****             FMC_OBWRP0 = 0U;
 367:C:/Users/stapi/OneDrive/Desktop/GD32VW553/V1_MQTT_OK/GD32VW55X_Wifi_BLE_SDK/GD32VW55x_RELEASE_V1.0.2/MSDK/plf/GD32VW55x_standard_peripheral/Source\gd32vw55x_fmc.c ****             FMC_OBWRP0 |= wrp_spage;
 368:C:/Users/stapi/OneDrive/Desktop/GD32VW553/V1_MQTT_OK/GD32VW55X_Wifi_BLE_SDK/GD32VW55x_RELEASE_V1.0.2/MSDK/plf/GD32VW55x_standard_peripheral/Source\gd32vw55x_fmc.c ****             FMC_OBWRP0 |= wrp_epage << FMC_EPAGE_OFFSET;
 369:C:/Users/stapi/OneDrive/Desktop/GD32VW553/V1_MQTT_OK/GD32VW55X_Wifi_BLE_SDK/GD32VW55x_RELEASE_V1.0.2/MSDK/plf/GD32VW55x_standard_peripheral/Source\gd32vw55x_fmc.c ****             break;
 370:C:/Users/stapi/OneDrive/Desktop/GD32VW553/V1_MQTT_OK/GD32VW55X_Wifi_BLE_SDK/GD32VW55x_RELEASE_V1.0.2/MSDK/plf/GD32VW55x_standard_peripheral/Source\gd32vw55x_fmc.c ****         case OBWRP_INDEX1:
 371:C:/Users/stapi/OneDrive/Desktop/GD32VW553/V1_MQTT_OK/GD32VW55X_Wifi_BLE_SDK/GD32VW55x_RELEASE_V1.0.2/MSDK/plf/GD32VW55x_standard_peripheral/Source\gd32vw55x_fmc.c ****             FMC_OBWRP1 = 0U;
 372:C:/Users/stapi/OneDrive/Desktop/GD32VW553/V1_MQTT_OK/GD32VW55X_Wifi_BLE_SDK/GD32VW55x_RELEASE_V1.0.2/MSDK/plf/GD32VW55x_standard_peripheral/Source\gd32vw55x_fmc.c ****             FMC_OBWRP1 |= wrp_spage;
 373:C:/Users/stapi/OneDrive/Desktop/GD32VW553/V1_MQTT_OK/GD32VW55X_Wifi_BLE_SDK/GD32VW55x_RELEASE_V1.0.2/MSDK/plf/GD32VW55x_standard_peripheral/Source\gd32vw55x_fmc.c ****             FMC_OBWRP1 |= wrp_epage << FMC_EPAGE_OFFSET;
 374:C:/Users/stapi/OneDrive/Desktop/GD32VW553/V1_MQTT_OK/GD32VW55X_Wifi_BLE_SDK/GD32VW55x_RELEASE_V1.0.2/MSDK/plf/GD32VW55x_standard_peripheral/Source\gd32vw55x_fmc.c ****             break;
 375:C:/Users/stapi/OneDrive/Desktop/GD32VW553/V1_MQTT_OK/GD32VW55X_Wifi_BLE_SDK/GD32VW55x_RELEASE_V1.0.2/MSDK/plf/GD32VW55x_standard_peripheral/Source\gd32vw55x_fmc.c ****         default:
 376:C:/Users/stapi/OneDrive/Desktop/GD32VW553/V1_MQTT_OK/GD32VW55X_Wifi_BLE_SDK/GD32VW55x_RELEASE_V1.0.2/MSDK/plf/GD32VW55x_standard_peripheral/Source\gd32vw55x_fmc.c ****             break;
 377:C:/Users/stapi/OneDrive/Desktop/GD32VW553/V1_MQTT_OK/GD32VW55X_Wifi_BLE_SDK/GD32VW55x_RELEASE_V1.0.2/MSDK/plf/GD32VW55x_standard_peripheral/Source\gd32vw55x_fmc.c ****         }
 378:C:/Users/stapi/OneDrive/Desktop/GD32VW553/V1_MQTT_OK/GD32VW55X_Wifi_BLE_SDK/GD32VW55x_RELEASE_V1.0.2/MSDK/plf/GD32VW55x_standard_peripheral/Source\gd32vw55x_fmc.c ****         /* start option bytes modification */
 379:C:/Users/stapi/OneDrive/Desktop/GD32VW553/V1_MQTT_OK/GD32VW55X_Wifi_BLE_SDK/GD32VW55x_RELEASE_V1.0.2/MSDK/plf/GD32VW55x_standard_peripheral/Source\gd32vw55x_fmc.c ****         FMC_CTL |= FMC_CTL_OBSTART;
 380:C:/Users/stapi/OneDrive/Desktop/GD32VW553/V1_MQTT_OK/GD32VW55X_Wifi_BLE_SDK/GD32VW55x_RELEASE_V1.0.2/MSDK/plf/GD32VW55x_standard_peripheral/Source\gd32vw55x_fmc.c ****         /* wait for the FMC ready */
 381:C:/Users/stapi/OneDrive/Desktop/GD32VW553/V1_MQTT_OK/GD32VW55X_Wifi_BLE_SDK/GD32VW55x_RELEASE_V1.0.2/MSDK/plf/GD32VW55x_standard_peripheral/Source\gd32vw55x_fmc.c ****         fmc_state = fmc_ready_wait(FMC_TIMEOUT_COUNT);
 382:C:/Users/stapi/OneDrive/Desktop/GD32VW553/V1_MQTT_OK/GD32VW55X_Wifi_BLE_SDK/GD32VW55x_RELEASE_V1.0.2/MSDK/plf/GD32VW55x_standard_peripheral/Source\gd32vw55x_fmc.c ****     }
 383:C:/Users/stapi/OneDrive/Desktop/GD32VW553/V1_MQTT_OK/GD32VW55X_Wifi_BLE_SDK/GD32VW55x_RELEASE_V1.0.2/MSDK/plf/GD32VW55x_standard_peripheral/Source\gd32vw55x_fmc.c ****     /* return the FMC state */
 384:C:/Users/stapi/OneDrive/Desktop/GD32VW553/V1_MQTT_OK/GD32VW55X_Wifi_BLE_SDK/GD32VW55x_RELEASE_V1.0.2/MSDK/plf/GD32VW55x_standard_peripheral/Source\gd32vw55x_fmc.c ****     return fmc_state;
 385:C:/Users/stapi/OneDrive/Desktop/GD32VW553/V1_MQTT_OK/GD32VW55X_Wifi_BLE_SDK/GD32VW55x_RELEASE_V1.0.2/MSDK/plf/GD32VW55x_standard_peripheral/Source\gd32vw55x_fmc.c **** }
 386:C:/Users/stapi/OneDrive/Desktop/GD32VW553/V1_MQTT_OK/GD32VW55X_Wifi_BLE_SDK/GD32VW55x_RELEASE_V1.0.2/MSDK/plf/GD32VW55x_standard_peripheral/Source\gd32vw55x_fmc.c **** 
 387:C:/Users/stapi/OneDrive/Desktop/GD32VW553/V1_MQTT_OK/GD32VW55X_Wifi_BLE_SDK/GD32VW55x_RELEASE_V1.0.2/MSDK/plf/GD32VW55x_standard_peripheral/Source\gd32vw55x_fmc.c **** /*!
 388:C:/Users/stapi/OneDrive/Desktop/GD32VW553/V1_MQTT_OK/GD32VW55X_Wifi_BLE_SDK/GD32VW55x_RELEASE_V1.0.2/MSDK/plf/GD32VW55x_standard_peripheral/Source\gd32vw55x_fmc.c ****     \brief      configure NO-RTDEC pages
 389:C:/Users/stapi/OneDrive/Desktop/GD32VW553/V1_MQTT_OK/GD32VW55X_Wifi_BLE_SDK/GD32VW55x_RELEASE_V1.0.2/MSDK/plf/GD32VW55x_standard_peripheral/Source\gd32vw55x_fmc.c ****     \param[in]  nodec_spage: start page of NO-RTDEC area, 0~0x03FF
 390:C:/Users/stapi/OneDrive/Desktop/GD32VW553/V1_MQTT_OK/GD32VW55X_Wifi_BLE_SDK/GD32VW55x_RELEASE_V1.0.2/MSDK/plf/GD32VW55x_standard_peripheral/Source\gd32vw55x_fmc.c ****     \param[in]  nodec_epage: end page of NO-RTDEC area, 0~0x03FF
 391:C:/Users/stapi/OneDrive/Desktop/GD32VW553/V1_MQTT_OK/GD32VW55X_Wifi_BLE_SDK/GD32VW55x_RELEASE_V1.0.2/MSDK/plf/GD32VW55x_standard_peripheral/Source\gd32vw55x_fmc.c ****     \param[in]  nodec_register_index
 392:C:/Users/stapi/OneDrive/Desktop/GD32VW553/V1_MQTT_OK/GD32VW55X_Wifi_BLE_SDK/GD32VW55x_RELEASE_V1.0.2/MSDK/plf/GD32VW55x_standard_peripheral/Source\gd32vw55x_fmc.c ****                 only one parameter can be selected which are shown as below:
 393:C:/Users/stapi/OneDrive/Desktop/GD32VW553/V1_MQTT_OK/GD32VW55X_Wifi_BLE_SDK/GD32VW55x_RELEASE_V1.0.2/MSDK/plf/GD32VW55x_standard_peripheral/Source\gd32vw55x_fmc.c ****       \arg        NODEC_INDEX0: NO-RTDEC region register 0
 394:C:/Users/stapi/OneDrive/Desktop/GD32VW553/V1_MQTT_OK/GD32VW55X_Wifi_BLE_SDK/GD32VW55x_RELEASE_V1.0.2/MSDK/plf/GD32VW55x_standard_peripheral/Source\gd32vw55x_fmc.c ****       \arg        NODEC_INDEX1: NO-RTDEC region register 1
 395:C:/Users/stapi/OneDrive/Desktop/GD32VW553/V1_MQTT_OK/GD32VW55X_Wifi_BLE_SDK/GD32VW55x_RELEASE_V1.0.2/MSDK/plf/GD32VW55x_standard_peripheral/Source\gd32vw55x_fmc.c ****       \arg        NODEC_INDEX2: NO-RTDEC region register 2
 396:C:/Users/stapi/OneDrive/Desktop/GD32VW553/V1_MQTT_OK/GD32VW55X_Wifi_BLE_SDK/GD32VW55x_RELEASE_V1.0.2/MSDK/plf/GD32VW55x_standard_peripheral/Source\gd32vw55x_fmc.c ****       \arg        NODEC_INDEX3: NO-RTDEC region register 3
 397:C:/Users/stapi/OneDrive/Desktop/GD32VW553/V1_MQTT_OK/GD32VW55X_Wifi_BLE_SDK/GD32VW55x_RELEASE_V1.0.2/MSDK/plf/GD32VW55x_standard_peripheral/Source\gd32vw55x_fmc.c ****     \param[out] none
 398:C:/Users/stapi/OneDrive/Desktop/GD32VW553/V1_MQTT_OK/GD32VW55X_Wifi_BLE_SDK/GD32VW55x_RELEASE_V1.0.2/MSDK/plf/GD32VW55x_standard_peripheral/Source\gd32vw55x_fmc.c ****     \retval     none
 399:C:/Users/stapi/OneDrive/Desktop/GD32VW553/V1_MQTT_OK/GD32VW55X_Wifi_BLE_SDK/GD32VW55x_RELEASE_V1.0.2/MSDK/plf/GD32VW55x_standard_peripheral/Source\gd32vw55x_fmc.c **** */
 400:C:/Users/stapi/OneDrive/Desktop/GD32VW553/V1_MQTT_OK/GD32VW55X_Wifi_BLE_SDK/GD32VW55x_RELEASE_V1.0.2/MSDK/plf/GD32VW55x_standard_peripheral/Source\gd32vw55x_fmc.c **** void fmc_no_rtdec_config(uint32_t nodec_spage, uint32_t nodec_epage, uint32_t nodec_register_index)
 401:C:/Users/stapi/OneDrive/Desktop/GD32VW553/V1_MQTT_OK/GD32VW55X_Wifi_BLE_SDK/GD32VW55x_RELEASE_V1.0.2/MSDK/plf/GD32VW55x_standard_peripheral/Source\gd32vw55x_fmc.c **** {
 199              		.loc 1 401 1 is_stmt 1
 200              		.cfi_startproc
 201              	.LVL3:
 402:C:/Users/stapi/OneDrive/Desktop/GD32VW553/V1_MQTT_OK/GD32VW55X_Wifi_BLE_SDK/GD32VW55x_RELEASE_V1.0.2/MSDK/plf/GD32VW55x_standard_peripheral/Source\gd32vw55x_fmc.c ****     switch(nodec_register_index){
 202              		.loc 1 402 5
 203 0000 8947     		li	a5,2
 204 0002 6300F604 		beq	a2,a5,.L15
 205 0006 63EFC700 		bgtu	a2,a5,.L16
 206 000a C205     		slli	a1,a1,16
 207              	.LVL4:
 208 000c 05E2     		bne	a2,zero,.L21
 403:C:/Users/stapi/OneDrive/Desktop/GD32VW553/V1_MQTT_OK/GD32VW55X_Wifi_BLE_SDK/GD32VW55x_RELEASE_V1.0.2/MSDK/plf/GD32VW55x_standard_peripheral/Source\gd32vw55x_fmc.c ****     case NODEC_INDEX0:
 404:C:/Users/stapi/OneDrive/Desktop/GD32VW553/V1_MQTT_OK/GD32VW55X_Wifi_BLE_SDK/GD32VW55x_RELEASE_V1.0.2/MSDK/plf/GD32VW55x_standard_peripheral/Source\gd32vw55x_fmc.c ****         FMC_NODEC0 = 0U;
 209              		.loc 1 404 9
 210              		.loc 1 404 20 is_stmt 0
 211 000e B7270240 		li	a5,1073881088
 212 0012 23A80706 		sw	zero,112(a5)
 405:C:/Users/stapi/OneDrive/Desktop/GD32VW553/V1_MQTT_OK/GD32VW55X_Wifi_BLE_SDK/GD32VW55x_RELEASE_V1.0.2/MSDK/plf/GD32VW55x_standard_peripheral/Source\gd32vw55x_fmc.c ****         FMC_NODEC0 |= nodec_spage;
 213              		.loc 1 405 9 is_stmt 1
 214              		.loc 1 405 20 is_stmt 0
 215 0016 B85B     		lw	a4,112(a5)
 216 0018 598D     		or	a0,a4,a0
 217              	.LVL5:
 218 001a A8DB     		sw	a0,112(a5)
 406:C:/Users/stapi/OneDrive/Desktop/GD32VW553/V1_MQTT_OK/GD32VW55X_Wifi_BLE_SDK/GD32VW55x_RELEASE_V1.0.2/MSDK/plf/GD32VW55x_standard_peripheral/Source\gd32vw55x_fmc.c ****         FMC_NODEC0 |= nodec_epage << FMC_EPAGE_OFFSET;
 219              		.loc 1 406 9 is_stmt 1
 220              		.loc 1 406 20 is_stmt 0
 221 001c B85B     		lw	a4,112(a5)
 222 001e D98D     		or	a1,a1,a4
 223 0020 ACDB     		sw	a1,112(a5)
 407:C:/Users/stapi/OneDrive/Desktop/GD32VW553/V1_MQTT_OK/GD32VW55X_Wifi_BLE_SDK/GD32VW55x_RELEASE_V1.0.2/MSDK/plf/GD32VW55x_standard_peripheral/Source\gd32vw55x_fmc.c ****         break;
 224              		.loc 1 407 9 is_stmt 1
 225 0022 8280     		ret
 226              	.LVL6:
 227              	.L16:
 402:C:/Users/stapi/OneDrive/Desktop/GD32VW553/V1_MQTT_OK/GD32VW55X_Wifi_BLE_SDK/GD32VW55x_RELEASE_V1.0.2/MSDK/plf/GD32VW55x_standard_peripheral/Source\gd32vw55x_fmc.c ****     case NODEC_INDEX0:
 228              		.loc 1 402 5 is_stmt 0
 229 0024 8D47     		li	a5,3
 230 0026 630AF602 		beq	a2,a5,.L19
 231 002a 8280     		ret
 232              	.LVL7:
 233              	.L21:
 408:C:/Users/stapi/OneDrive/Desktop/GD32VW553/V1_MQTT_OK/GD32VW55X_Wifi_BLE_SDK/GD32VW55x_RELEASE_V1.0.2/MSDK/plf/GD32VW55x_standard_peripheral/Source\gd32vw55x_fmc.c ****     case NODEC_INDEX1:
 409:C:/Users/stapi/OneDrive/Desktop/GD32VW553/V1_MQTT_OK/GD32VW55X_Wifi_BLE_SDK/GD32VW55x_RELEASE_V1.0.2/MSDK/plf/GD32VW55x_standard_peripheral/Source\gd32vw55x_fmc.c ****         FMC_NODEC1 = 0U;
 234              		.loc 1 409 9 is_stmt 1
 235              		.loc 1 409 20 is_stmt 0
 236 002c B7270240 		li	a5,1073881088
 237 0030 23AA0706 		sw	zero,116(a5)
 410:C:/Users/stapi/OneDrive/Desktop/GD32VW553/V1_MQTT_OK/GD32VW55X_Wifi_BLE_SDK/GD32VW55x_RELEASE_V1.0.2/MSDK/plf/GD32VW55x_standard_peripheral/Source\gd32vw55x_fmc.c ****         FMC_NODEC1 |= nodec_spage;
 238              		.loc 1 410 9 is_stmt 1
 239              		.loc 1 410 20 is_stmt 0
 240 0034 F85B     		lw	a4,116(a5)
 241 0036 598D     		or	a0,a4,a0
 242              	.LVL8:
 243 0038 E8DB     		sw	a0,116(a5)
 411:C:/Users/stapi/OneDrive/Desktop/GD32VW553/V1_MQTT_OK/GD32VW55X_Wifi_BLE_SDK/GD32VW55x_RELEASE_V1.0.2/MSDK/plf/GD32VW55x_standard_peripheral/Source\gd32vw55x_fmc.c ****         FMC_NODEC1 |= nodec_epage << FMC_EPAGE_OFFSET;
 244              		.loc 1 411 9 is_stmt 1
 245              		.loc 1 411 20 is_stmt 0
 246 003a F85B     		lw	a4,116(a5)
 247 003c D98D     		or	a1,a1,a4
 248 003e ECDB     		sw	a1,116(a5)
 412:C:/Users/stapi/OneDrive/Desktop/GD32VW553/V1_MQTT_OK/GD32VW55X_Wifi_BLE_SDK/GD32VW55x_RELEASE_V1.0.2/MSDK/plf/GD32VW55x_standard_peripheral/Source\gd32vw55x_fmc.c ****         break;
 249              		.loc 1 412 9 is_stmt 1
 250 0040 8280     		ret
 251              	.LVL9:
 252              	.L15:
 413:C:/Users/stapi/OneDrive/Desktop/GD32VW553/V1_MQTT_OK/GD32VW55X_Wifi_BLE_SDK/GD32VW55x_RELEASE_V1.0.2/MSDK/plf/GD32VW55x_standard_peripheral/Source\gd32vw55x_fmc.c ****     case NODEC_INDEX2:
 414:C:/Users/stapi/OneDrive/Desktop/GD32VW553/V1_MQTT_OK/GD32VW55X_Wifi_BLE_SDK/GD32VW55x_RELEASE_V1.0.2/MSDK/plf/GD32VW55x_standard_peripheral/Source\gd32vw55x_fmc.c ****         FMC_NODEC2 = 0U;
 253              		.loc 1 414 9
 254              		.loc 1 414 20 is_stmt 0
 255 0042 B7270240 		li	a5,1073881088
 256 0046 23AC0706 		sw	zero,120(a5)
 415:C:/Users/stapi/OneDrive/Desktop/GD32VW553/V1_MQTT_OK/GD32VW55X_Wifi_BLE_SDK/GD32VW55x_RELEASE_V1.0.2/MSDK/plf/GD32VW55x_standard_peripheral/Source\gd32vw55x_fmc.c ****         FMC_NODEC2 |= nodec_spage;
 257              		.loc 1 415 9 is_stmt 1
 258              		.loc 1 415 20 is_stmt 0
 259 004a B85F     		lw	a4,120(a5)
 416:C:/Users/stapi/OneDrive/Desktop/GD32VW553/V1_MQTT_OK/GD32VW55X_Wifi_BLE_SDK/GD32VW55x_RELEASE_V1.0.2/MSDK/plf/GD32VW55x_standard_peripheral/Source\gd32vw55x_fmc.c ****         FMC_NODEC2 |= nodec_epage << FMC_EPAGE_OFFSET;
 260              		.loc 1 416 35
 261 004c C205     		slli	a1,a1,16
 262              	.LVL10:
 415:C:/Users/stapi/OneDrive/Desktop/GD32VW553/V1_MQTT_OK/GD32VW55X_Wifi_BLE_SDK/GD32VW55x_RELEASE_V1.0.2/MSDK/plf/GD32VW55x_standard_peripheral/Source\gd32vw55x_fmc.c ****         FMC_NODEC2 |= nodec_spage;
 263              		.loc 1 415 20
 264 004e 598D     		or	a0,a4,a0
 265              	.LVL11:
 266 0050 A8DF     		sw	a0,120(a5)
 267              		.loc 1 416 9 is_stmt 1
 268              		.loc 1 416 20 is_stmt 0
 269 0052 B85F     		lw	a4,120(a5)
 270 0054 D98D     		or	a1,a1,a4
 271 0056 ACDF     		sw	a1,120(a5)
 417:C:/Users/stapi/OneDrive/Desktop/GD32VW553/V1_MQTT_OK/GD32VW55X_Wifi_BLE_SDK/GD32VW55x_RELEASE_V1.0.2/MSDK/plf/GD32VW55x_standard_peripheral/Source\gd32vw55x_fmc.c ****         break;
 272              		.loc 1 417 9 is_stmt 1
 273 0058 8280     		ret
 274              	.LVL12:
 275              	.L19:
 418:C:/Users/stapi/OneDrive/Desktop/GD32VW553/V1_MQTT_OK/GD32VW55X_Wifi_BLE_SDK/GD32VW55x_RELEASE_V1.0.2/MSDK/plf/GD32VW55x_standard_peripheral/Source\gd32vw55x_fmc.c ****     case NODEC_INDEX3:
 419:C:/Users/stapi/OneDrive/Desktop/GD32VW553/V1_MQTT_OK/GD32VW55X_Wifi_BLE_SDK/GD32VW55x_RELEASE_V1.0.2/MSDK/plf/GD32VW55x_standard_peripheral/Source\gd32vw55x_fmc.c ****         FMC_NODEC3 = 0U;
 276              		.loc 1 419 9
 277              		.loc 1 419 20 is_stmt 0
 278 005a B7270240 		li	a5,1073881088
 279 005e 23AE0706 		sw	zero,124(a5)
 420:C:/Users/stapi/OneDrive/Desktop/GD32VW553/V1_MQTT_OK/GD32VW55X_Wifi_BLE_SDK/GD32VW55x_RELEASE_V1.0.2/MSDK/plf/GD32VW55x_standard_peripheral/Source\gd32vw55x_fmc.c ****         FMC_NODEC3 |= nodec_spage;
 280              		.loc 1 420 9 is_stmt 1
 281              		.loc 1 420 20 is_stmt 0
 282 0062 F85F     		lw	a4,124(a5)
 421:C:/Users/stapi/OneDrive/Desktop/GD32VW553/V1_MQTT_OK/GD32VW55X_Wifi_BLE_SDK/GD32VW55x_RELEASE_V1.0.2/MSDK/plf/GD32VW55x_standard_peripheral/Source\gd32vw55x_fmc.c ****         FMC_NODEC3 |= nodec_epage << FMC_EPAGE_OFFSET;
 283              		.loc 1 421 35
 284 0064 C205     		slli	a1,a1,16
 285              	.LVL13:
 420:C:/Users/stapi/OneDrive/Desktop/GD32VW553/V1_MQTT_OK/GD32VW55X_Wifi_BLE_SDK/GD32VW55x_RELEASE_V1.0.2/MSDK/plf/GD32VW55x_standard_peripheral/Source\gd32vw55x_fmc.c ****         FMC_NODEC3 |= nodec_spage;
 286              		.loc 1 420 20
 287 0066 598D     		or	a0,a4,a0
 288              	.LVL14:
 289 0068 E8DF     		sw	a0,124(a5)
 290              		.loc 1 421 9 is_stmt 1
 291              		.loc 1 421 20 is_stmt 0
 292 006a F85F     		lw	a4,124(a5)
 293 006c D98D     		or	a1,a1,a4
 294 006e ECDF     		sw	a1,124(a5)
 422:C:/Users/stapi/OneDrive/Desktop/GD32VW553/V1_MQTT_OK/GD32VW55X_Wifi_BLE_SDK/GD32VW55x_RELEASE_V1.0.2/MSDK/plf/GD32VW55x_standard_peripheral/Source\gd32vw55x_fmc.c ****         break;
 295              		.loc 1 422 9 is_stmt 1
 423:C:/Users/stapi/OneDrive/Desktop/GD32VW553/V1_MQTT_OK/GD32VW55X_Wifi_BLE_SDK/GD32VW55x_RELEASE_V1.0.2/MSDK/plf/GD32VW55x_standard_peripheral/Source\gd32vw55x_fmc.c ****     default:
 424:C:/Users/stapi/OneDrive/Desktop/GD32VW553/V1_MQTT_OK/GD32VW55X_Wifi_BLE_SDK/GD32VW55x_RELEASE_V1.0.2/MSDK/plf/GD32VW55x_standard_peripheral/Source\gd32vw55x_fmc.c ****         break;
 425:C:/Users/stapi/OneDrive/Desktop/GD32VW553/V1_MQTT_OK/GD32VW55X_Wifi_BLE_SDK/GD32VW55x_RELEASE_V1.0.2/MSDK/plf/GD32VW55x_standard_peripheral/Source\gd32vw55x_fmc.c ****     }
 426:C:/Users/stapi/OneDrive/Desktop/GD32VW553/V1_MQTT_OK/GD32VW55X_Wifi_BLE_SDK/GD32VW55x_RELEASE_V1.0.2/MSDK/plf/GD32VW55x_standard_peripheral/Source\gd32vw55x_fmc.c **** }
 296              		.loc 1 426 1 is_stmt 0
 297 0070 8280     		ret
 298              		.cfi_endproc
 299              	.LFE380:
 301              		.section	.text.fmc_offset_region_config,"ax",@progbits
 302              		.align	1
 303              		.globl	fmc_offset_region_config
 305              	fmc_offset_region_config:
 306              	.LFB381:
 427:C:/Users/stapi/OneDrive/Desktop/GD32VW553/V1_MQTT_OK/GD32VW55X_Wifi_BLE_SDK/GD32VW55x_RELEASE_V1.0.2/MSDK/plf/GD32VW55x_standard_peripheral/Source\gd32vw55x_fmc.c **** 
 428:C:/Users/stapi/OneDrive/Desktop/GD32VW553/V1_MQTT_OK/GD32VW55X_Wifi_BLE_SDK/GD32VW55x_RELEASE_V1.0.2/MSDK/plf/GD32VW55x_standard_peripheral/Source\gd32vw55x_fmc.c **** /*!
 429:C:/Users/stapi/OneDrive/Desktop/GD32VW553/V1_MQTT_OK/GD32VW55X_Wifi_BLE_SDK/GD32VW55x_RELEASE_V1.0.2/MSDK/plf/GD32VW55x_standard_peripheral/Source\gd32vw55x_fmc.c ****     \brief      configure offset region
 430:C:/Users/stapi/OneDrive/Desktop/GD32VW553/V1_MQTT_OK/GD32VW55X_Wifi_BLE_SDK/GD32VW55x_RELEASE_V1.0.2/MSDK/plf/GD32VW55x_standard_peripheral/Source\gd32vw55x_fmc.c ****     \param[in]  of_spage: start page of offset region, 0~0x1FFF
 431:C:/Users/stapi/OneDrive/Desktop/GD32VW553/V1_MQTT_OK/GD32VW55X_Wifi_BLE_SDK/GD32VW55x_RELEASE_V1.0.2/MSDK/plf/GD32VW55x_standard_peripheral/Source\gd32vw55x_fmc.c ****     \param[in]  of_epage: end page of offset region, 0~0x1FFF
 432:C:/Users/stapi/OneDrive/Desktop/GD32VW553/V1_MQTT_OK/GD32VW55X_Wifi_BLE_SDK/GD32VW55x_RELEASE_V1.0.2/MSDK/plf/GD32VW55x_standard_peripheral/Source\gd32vw55x_fmc.c ****     \param[out] none
 433:C:/Users/stapi/OneDrive/Desktop/GD32VW553/V1_MQTT_OK/GD32VW55X_Wifi_BLE_SDK/GD32VW55x_RELEASE_V1.0.2/MSDK/plf/GD32VW55x_standard_peripheral/Source\gd32vw55x_fmc.c ****     \retval     none
 434:C:/Users/stapi/OneDrive/Desktop/GD32VW553/V1_MQTT_OK/GD32VW55X_Wifi_BLE_SDK/GD32VW55x_RELEASE_V1.0.2/MSDK/plf/GD32VW55x_standard_peripheral/Source\gd32vw55x_fmc.c **** */
 435:C:/Users/stapi/OneDrive/Desktop/GD32VW553/V1_MQTT_OK/GD32VW55X_Wifi_BLE_SDK/GD32VW55x_RELEASE_V1.0.2/MSDK/plf/GD32VW55x_standard_peripheral/Source\gd32vw55x_fmc.c **** void fmc_offset_region_config(uint32_t of_spage, uint32_t of_epage)
 436:C:/Users/stapi/OneDrive/Desktop/GD32VW553/V1_MQTT_OK/GD32VW55X_Wifi_BLE_SDK/GD32VW55x_RELEASE_V1.0.2/MSDK/plf/GD32VW55x_standard_peripheral/Source\gd32vw55x_fmc.c **** {
 307              		.loc 1 436 1 is_stmt 1
 308              		.cfi_startproc
 309              	.LVL15:
 437:C:/Users/stapi/OneDrive/Desktop/GD32VW553/V1_MQTT_OK/GD32VW55X_Wifi_BLE_SDK/GD32VW55x_RELEASE_V1.0.2/MSDK/plf/GD32VW55x_standard_peripheral/Source\gd32vw55x_fmc.c ****     FMC_OFRG = 0U;
 310              		.loc 1 437 5
 311              		.loc 1 437 14 is_stmt 0
 312 0000 B7270240 		li	a5,1073881088
 313 0004 23A00708 		sw	zero,128(a5)
 438:C:/Users/stapi/OneDrive/Desktop/GD32VW553/V1_MQTT_OK/GD32VW55X_Wifi_BLE_SDK/GD32VW55x_RELEASE_V1.0.2/MSDK/plf/GD32VW55x_standard_peripheral/Source\gd32vw55x_fmc.c ****     FMC_OFRG |= (uint32_t) (of_spage);
 314              		.loc 1 438 5 is_stmt 1
 315              		.loc 1 438 14 is_stmt 0
 316 0008 93870708 		addi	a5,a5,128
 317 000c 9843     		lw	a4,0(a5)
 439:C:/Users/stapi/OneDrive/Desktop/GD32VW553/V1_MQTT_OK/GD32VW55X_Wifi_BLE_SDK/GD32VW55x_RELEASE_V1.0.2/MSDK/plf/GD32VW55x_standard_peripheral/Source\gd32vw55x_fmc.c ****     FMC_OFRG |= (uint32_t) (of_epage << FMC_EPAGE_OFFSET);
 318              		.loc 1 439 38
 319 000e C205     		slli	a1,a1,16
 320              	.LVL16:
 438:C:/Users/stapi/OneDrive/Desktop/GD32VW553/V1_MQTT_OK/GD32VW55X_Wifi_BLE_SDK/GD32VW55x_RELEASE_V1.0.2/MSDK/plf/GD32VW55x_standard_peripheral/Source\gd32vw55x_fmc.c ****     FMC_OFRG |= (uint32_t) (of_spage);
 321              		.loc 1 438 14
 322 0010 498F     		or	a4,a4,a0
 323 0012 98C3     		sw	a4,0(a5)
 324              		.loc 1 439 5 is_stmt 1
 325              		.loc 1 439 14 is_stmt 0
 326 0014 9843     		lw	a4,0(a5)
 327 0016 D98D     		or	a1,a1,a4
 328 0018 8CC3     		sw	a1,0(a5)
 440:C:/Users/stapi/OneDrive/Desktop/GD32VW553/V1_MQTT_OK/GD32VW55X_Wifi_BLE_SDK/GD32VW55x_RELEASE_V1.0.2/MSDK/plf/GD32VW55x_standard_peripheral/Source\gd32vw55x_fmc.c **** }
 329              		.loc 1 440 1
 330 001a 8280     		ret
 331              		.cfi_endproc
 332              	.LFE381:
 334              		.section	.text.fmc_offset_value_config,"ax",@progbits
 335              		.align	1
 336              		.globl	fmc_offset_value_config
 338              	fmc_offset_value_config:
 339              	.LFB382:
 441:C:/Users/stapi/OneDrive/Desktop/GD32VW553/V1_MQTT_OK/GD32VW55X_Wifi_BLE_SDK/GD32VW55x_RELEASE_V1.0.2/MSDK/plf/GD32VW55x_standard_peripheral/Source\gd32vw55x_fmc.c **** 
 442:C:/Users/stapi/OneDrive/Desktop/GD32VW553/V1_MQTT_OK/GD32VW55X_Wifi_BLE_SDK/GD32VW55x_RELEASE_V1.0.2/MSDK/plf/GD32VW55x_standard_peripheral/Source\gd32vw55x_fmc.c **** /*!
 443:C:/Users/stapi/OneDrive/Desktop/GD32VW553/V1_MQTT_OK/GD32VW55X_Wifi_BLE_SDK/GD32VW55x_RELEASE_V1.0.2/MSDK/plf/GD32VW55x_standard_peripheral/Source\gd32vw55x_fmc.c ****     \brief      configure offset value
 444:C:/Users/stapi/OneDrive/Desktop/GD32VW553/V1_MQTT_OK/GD32VW55X_Wifi_BLE_SDK/GD32VW55x_RELEASE_V1.0.2/MSDK/plf/GD32VW55x_standard_peripheral/Source\gd32vw55x_fmc.c ****     \param[in]  of_value: offset value, 0~0x1FFF
 445:C:/Users/stapi/OneDrive/Desktop/GD32VW553/V1_MQTT_OK/GD32VW55X_Wifi_BLE_SDK/GD32VW55x_RELEASE_V1.0.2/MSDK/plf/GD32VW55x_standard_peripheral/Source\gd32vw55x_fmc.c ****     \param[out] none
 446:C:/Users/stapi/OneDrive/Desktop/GD32VW553/V1_MQTT_OK/GD32VW55X_Wifi_BLE_SDK/GD32VW55x_RELEASE_V1.0.2/MSDK/plf/GD32VW55x_standard_peripheral/Source\gd32vw55x_fmc.c ****     \retval     none
 447:C:/Users/stapi/OneDrive/Desktop/GD32VW553/V1_MQTT_OK/GD32VW55X_Wifi_BLE_SDK/GD32VW55x_RELEASE_V1.0.2/MSDK/plf/GD32VW55x_standard_peripheral/Source\gd32vw55x_fmc.c **** */
 448:C:/Users/stapi/OneDrive/Desktop/GD32VW553/V1_MQTT_OK/GD32VW55X_Wifi_BLE_SDK/GD32VW55x_RELEASE_V1.0.2/MSDK/plf/GD32VW55x_standard_peripheral/Source\gd32vw55x_fmc.c **** void fmc_offset_value_config(uint32_t of_value)
 449:C:/Users/stapi/OneDrive/Desktop/GD32VW553/V1_MQTT_OK/GD32VW55X_Wifi_BLE_SDK/GD32VW55x_RELEASE_V1.0.2/MSDK/plf/GD32VW55x_standard_peripheral/Source\gd32vw55x_fmc.c **** {
 340              		.loc 1 449 1 is_stmt 1
 341              		.cfi_startproc
 342              	.LVL17:
 450:C:/Users/stapi/OneDrive/Desktop/GD32VW553/V1_MQTT_OK/GD32VW55X_Wifi_BLE_SDK/GD32VW55x_RELEASE_V1.0.2/MSDK/plf/GD32VW55x_standard_peripheral/Source\gd32vw55x_fmc.c ****     FMC_OFVR = 0U;
 343              		.loc 1 450 5
 344              		.loc 1 450 14 is_stmt 0
 345 0000 B7270240 		li	a5,1073881088
 346 0004 23A20708 		sw	zero,132(a5)
 451:C:/Users/stapi/OneDrive/Desktop/GD32VW553/V1_MQTT_OK/GD32VW55X_Wifi_BLE_SDK/GD32VW55x_RELEASE_V1.0.2/MSDK/plf/GD32VW55x_standard_peripheral/Source\gd32vw55x_fmc.c ****     FMC_OFVR |= (uint32_t) (of_value);
 347              		.loc 1 451 5 is_stmt 1
 348              		.loc 1 451 14 is_stmt 0
 349 0008 03A74708 		lw	a4,132(a5)
 350 000c 498F     		or	a4,a4,a0
 351 000e 23A2E708 		sw	a4,132(a5)
 452:C:/Users/stapi/OneDrive/Desktop/GD32VW553/V1_MQTT_OK/GD32VW55X_Wifi_BLE_SDK/GD32VW55x_RELEASE_V1.0.2/MSDK/plf/GD32VW55x_standard_peripheral/Source\gd32vw55x_fmc.c **** }
 352              		.loc 1 452 1
 353 0012 8280     		ret
 354              		.cfi_endproc
 355              	.LFE382:
 357              		.section	.text.fmc_wifi_trim_cal_get,"ax",@progbits
 358              		.align	1
 359              		.globl	fmc_wifi_trim_cal_get
 361              	fmc_wifi_trim_cal_get:
 362              	.LFB383:
 453:C:/Users/stapi/OneDrive/Desktop/GD32VW553/V1_MQTT_OK/GD32VW55X_Wifi_BLE_SDK/GD32VW55x_RELEASE_V1.0.2/MSDK/plf/GD32VW55x_standard_peripheral/Source\gd32vw55x_fmc.c **** 
 454:C:/Users/stapi/OneDrive/Desktop/GD32VW553/V1_MQTT_OK/GD32VW55X_Wifi_BLE_SDK/GD32VW55x_RELEASE_V1.0.2/MSDK/plf/GD32VW55x_standard_peripheral/Source\gd32vw55x_fmc.c **** /*!
 455:C:/Users/stapi/OneDrive/Desktop/GD32VW553/V1_MQTT_OK/GD32VW55X_Wifi_BLE_SDK/GD32VW55x_RELEASE_V1.0.2/MSDK/plf/GD32VW55x_standard_peripheral/Source\gd32vw55x_fmc.c ****     \brief      get calibration value
 456:C:/Users/stapi/OneDrive/Desktop/GD32VW553/V1_MQTT_OK/GD32VW55X_Wifi_BLE_SDK/GD32VW55x_RELEASE_V1.0.2/MSDK/plf/GD32VW55x_standard_peripheral/Source\gd32vw55x_fmc.c ****     \param[in]  none
 457:C:/Users/stapi/OneDrive/Desktop/GD32VW553/V1_MQTT_OK/GD32VW55X_Wifi_BLE_SDK/GD32VW55x_RELEASE_V1.0.2/MSDK/plf/GD32VW55x_standard_peripheral/Source\gd32vw55x_fmc.c ****     \param[out] rft0_bletxcal: BLE transmit power calibration value
 458:C:/Users/stapi/OneDrive/Desktop/GD32VW553/V1_MQTT_OK/GD32VW55X_Wifi_BLE_SDK/GD32VW55x_RELEASE_V1.0.2/MSDK/plf/GD32VW55x_standard_peripheral/Source\gd32vw55x_fmc.c ****     \param[out] rft0_wftxcal: WIFI transmit power calibration value
 459:C:/Users/stapi/OneDrive/Desktop/GD32VW553/V1_MQTT_OK/GD32VW55X_Wifi_BLE_SDK/GD32VW55x_RELEASE_V1.0.2/MSDK/plf/GD32VW55x_standard_peripheral/Source\gd32vw55x_fmc.c ****     \param[out] rft0_thecal: thermal meter calibration value
 460:C:/Users/stapi/OneDrive/Desktop/GD32VW553/V1_MQTT_OK/GD32VW55X_Wifi_BLE_SDK/GD32VW55x_RELEASE_V1.0.2/MSDK/plf/GD32VW55x_standard_peripheral/Source\gd32vw55x_fmc.c ****     \param[out] rft1_wfrxcal: WIFI receive gain calibration value
 461:C:/Users/stapi/OneDrive/Desktop/GD32VW553/V1_MQTT_OK/GD32VW55X_Wifi_BLE_SDK/GD32VW55x_RELEASE_V1.0.2/MSDK/plf/GD32VW55x_standard_peripheral/Source\gd32vw55x_fmc.c ****     \retval     none
 462:C:/Users/stapi/OneDrive/Desktop/GD32VW553/V1_MQTT_OK/GD32VW55X_Wifi_BLE_SDK/GD32VW55x_RELEASE_V1.0.2/MSDK/plf/GD32VW55x_standard_peripheral/Source\gd32vw55x_fmc.c **** */
 463:C:/Users/stapi/OneDrive/Desktop/GD32VW553/V1_MQTT_OK/GD32VW55X_Wifi_BLE_SDK/GD32VW55x_RELEASE_V1.0.2/MSDK/plf/GD32VW55x_standard_peripheral/Source\gd32vw55x_fmc.c **** void fmc_wifi_trim_cal_get(uint32_t *rft0_bletxcal, uint32_t *rft0_wftxcal, uint32_t *rft0_thecal, 
 464:C:/Users/stapi/OneDrive/Desktop/GD32VW553/V1_MQTT_OK/GD32VW55X_Wifi_BLE_SDK/GD32VW55x_RELEASE_V1.0.2/MSDK/plf/GD32VW55x_standard_peripheral/Source\gd32vw55x_fmc.c **** {
 363              		.loc 1 464 1 is_stmt 1
 364              		.cfi_startproc
 365              	.LVL18:
 465:C:/Users/stapi/OneDrive/Desktop/GD32VW553/V1_MQTT_OK/GD32VW55X_Wifi_BLE_SDK/GD32VW55x_RELEASE_V1.0.2/MSDK/plf/GD32VW55x_standard_peripheral/Source\gd32vw55x_fmc.c ****     uint32_t rft0_reg;
 366              		.loc 1 465 5
 466:C:/Users/stapi/OneDrive/Desktop/GD32VW553/V1_MQTT_OK/GD32VW55X_Wifi_BLE_SDK/GD32VW55x_RELEASE_V1.0.2/MSDK/plf/GD32VW55x_standard_peripheral/Source\gd32vw55x_fmc.c ****     uint32_t rft1_reg;
 367              		.loc 1 466 5
 467:C:/Users/stapi/OneDrive/Desktop/GD32VW553/V1_MQTT_OK/GD32VW55X_Wifi_BLE_SDK/GD32VW55x_RELEASE_V1.0.2/MSDK/plf/GD32VW55x_standard_peripheral/Source\gd32vw55x_fmc.c **** 
 468:C:/Users/stapi/OneDrive/Desktop/GD32VW553/V1_MQTT_OK/GD32VW55X_Wifi_BLE_SDK/GD32VW55x_RELEASE_V1.0.2/MSDK/plf/GD32VW55x_standard_peripheral/Source\gd32vw55x_fmc.c ****     rft0_reg = FMC_RFT0;
 368              		.loc 1 468 5
 369              		.loc 1 468 14 is_stmt 0
 370 0000 37270240 		li	a4,1073881088
 371 0004 83278710 		lw	a5,264(a4)
 372              	.LVL19:
 469:C:/Users/stapi/OneDrive/Desktop/GD32VW553/V1_MQTT_OK/GD32VW55X_Wifi_BLE_SDK/GD32VW55x_RELEASE_V1.0.2/MSDK/plf/GD32VW55x_standard_peripheral/Source\gd32vw55x_fmc.c ****     rft1_reg = FMC_RFT1;
 373              		.loc 1 469 5 is_stmt 1
 470:C:/Users/stapi/OneDrive/Desktop/GD32VW553/V1_MQTT_OK/GD32VW55X_Wifi_BLE_SDK/GD32VW55x_RELEASE_V1.0.2/MSDK/plf/GD32VW55x_standard_peripheral/Source\gd32vw55x_fmc.c ****     *rft0_bletxcal = (uint32_t)(rft0_reg & FMC_RFT0_BLETXCAL);
 374              		.loc 1 470 22 is_stmt 0
 375 0008 370800FF 		li	a6,-16777216
 469:C:/Users/stapi/OneDrive/Desktop/GD32VW553/V1_MQTT_OK/GD32VW55X_Wifi_BLE_SDK/GD32VW55x_RELEASE_V1.0.2/MSDK/plf/GD32VW55x_standard_peripheral/Source\gd32vw55x_fmc.c ****     rft1_reg = FMC_RFT1;
 376              		.loc 1 469 14
 377 000c 0327C710 		lw	a4,268(a4)
 378              	.LVL20:
 379              		.loc 1 470 5 is_stmt 1
 380              		.loc 1 470 22 is_stmt 0
 381 0010 33F80701 		and	a6,a5,a6
 382              		.loc 1 470 20
 383 0014 23200501 		sw	a6,0(a0)
 471:C:/Users/stapi/OneDrive/Desktop/GD32VW553/V1_MQTT_OK/GD32VW55X_Wifi_BLE_SDK/GD32VW55x_RELEASE_V1.0.2/MSDK/plf/GD32VW55x_standard_peripheral/Source\gd32vw55x_fmc.c ****     *rft0_wftxcal = (uint32_t)(rft0_reg & FMC_RFT0_WIFITXCAL);
 384              		.loc 1 471 5 is_stmt 1
 385              		.loc 1 471 21 is_stmt 0
 386 0018 3705FF00 		li	a0,16711680
 387              	.LVL21:
 388 001c 7D8D     		and	a0,a5,a0
 389              		.loc 1 471 19
 390 001e 88C1     		sw	a0,0(a1)
 472:C:/Users/stapi/OneDrive/Desktop/GD32VW553/V1_MQTT_OK/GD32VW55X_Wifi_BLE_SDK/GD32VW55x_RELEASE_V1.0.2/MSDK/plf/GD32VW55x_standard_peripheral/Source\gd32vw55x_fmc.c ****     *rft0_thecal = (uint32_t)(rft0_reg & FMC_RFT0_THECAL);
 391              		.loc 1 472 5 is_stmt 1
 392              		.loc 1 472 20 is_stmt 0
 393 0020 C165     		li	a1,65536
 394              	.LVL22:
 395 0022 938505F0 		addi	a1,a1,-256
 396 0026 ED8F     		and	a5,a5,a1
 397              	.LVL23:
 398              		.loc 1 472 18
 399 0028 1CC2     		sw	a5,0(a2)
 473:C:/Users/stapi/OneDrive/Desktop/GD32VW553/V1_MQTT_OK/GD32VW55X_Wifi_BLE_SDK/GD32VW55x_RELEASE_V1.0.2/MSDK/plf/GD32VW55x_standard_peripheral/Source\gd32vw55x_fmc.c ****     *rft1_wfrxcal = (uint32_t)(rft1_reg & FMC_RFT1_WIFIRXGCAL);
 400              		.loc 1 473 5 is_stmt 1
 401              		.loc 1 473 21 is_stmt 0
 402 002a 3D8B     		andi	a4,a4,15
 403              	.LVL24:
 404              		.loc 1 473 19
 405 002c 98C2     		sw	a4,0(a3)
 474:C:/Users/stapi/OneDrive/Desktop/GD32VW553/V1_MQTT_OK/GD32VW55X_Wifi_BLE_SDK/GD32VW55x_RELEASE_V1.0.2/MSDK/plf/GD32VW55x_standard_peripheral/Source\gd32vw55x_fmc.c **** }
 406              		.loc 1 474 1
 407 002e 8280     		ret
 408              		.cfi_endproc
 409              	.LFE383:
 411              		.section	.text.fmc_wifi_trim_pa_get,"ax",@progbits
 412              		.align	1
 413              		.globl	fmc_wifi_trim_pa_get
 415              	fmc_wifi_trim_pa_get:
 416              	.LFB384:
 475:C:/Users/stapi/OneDrive/Desktop/GD32VW553/V1_MQTT_OK/GD32VW55X_Wifi_BLE_SDK/GD32VW55x_RELEASE_V1.0.2/MSDK/plf/GD32VW55x_standard_peripheral/Source\gd32vw55x_fmc.c **** 
 476:C:/Users/stapi/OneDrive/Desktop/GD32VW553/V1_MQTT_OK/GD32VW55X_Wifi_BLE_SDK/GD32VW55x_RELEASE_V1.0.2/MSDK/plf/GD32VW55x_standard_peripheral/Source\gd32vw55x_fmc.c **** /*!
 477:C:/Users/stapi/OneDrive/Desktop/GD32VW553/V1_MQTT_OK/GD32VW55X_Wifi_BLE_SDK/GD32VW55x_RELEASE_V1.0.2/MSDK/plf/GD32VW55x_standard_peripheral/Source\gd32vw55x_fmc.c ****     \brief      get Power Amplifier bias tune value
 478:C:/Users/stapi/OneDrive/Desktop/GD32VW553/V1_MQTT_OK/GD32VW55X_Wifi_BLE_SDK/GD32VW55x_RELEASE_V1.0.2/MSDK/plf/GD32VW55x_standard_peripheral/Source\gd32vw55x_fmc.c ****     \param[in]  none
 479:C:/Users/stapi/OneDrive/Desktop/GD32VW553/V1_MQTT_OK/GD32VW55X_Wifi_BLE_SDK/GD32VW55x_RELEASE_V1.0.2/MSDK/plf/GD32VW55x_standard_peripheral/Source\gd32vw55x_fmc.c ****     \param[out] rft0_pa_tune0: Power Amplifier bias coarse tune value
 480:C:/Users/stapi/OneDrive/Desktop/GD32VW553/V1_MQTT_OK/GD32VW55X_Wifi_BLE_SDK/GD32VW55x_RELEASE_V1.0.2/MSDK/plf/GD32VW55x_standard_peripheral/Source\gd32vw55x_fmc.c ****     \param[out] rft0_pa_tune1: Power Amplifier bias fine tune value
 481:C:/Users/stapi/OneDrive/Desktop/GD32VW553/V1_MQTT_OK/GD32VW55X_Wifi_BLE_SDK/GD32VW55x_RELEASE_V1.0.2/MSDK/plf/GD32VW55x_standard_peripheral/Source\gd32vw55x_fmc.c ****     \retval     none
 482:C:/Users/stapi/OneDrive/Desktop/GD32VW553/V1_MQTT_OK/GD32VW55X_Wifi_BLE_SDK/GD32VW55x_RELEASE_V1.0.2/MSDK/plf/GD32VW55x_standard_peripheral/Source\gd32vw55x_fmc.c **** */
 483:C:/Users/stapi/OneDrive/Desktop/GD32VW553/V1_MQTT_OK/GD32VW55X_Wifi_BLE_SDK/GD32VW55x_RELEASE_V1.0.2/MSDK/plf/GD32VW55x_standard_peripheral/Source\gd32vw55x_fmc.c **** void fmc_wifi_trim_pa_get(uint32_t *rft0_pa_tune0, uint32_t *rft0_pa_tune1)
 484:C:/Users/stapi/OneDrive/Desktop/GD32VW553/V1_MQTT_OK/GD32VW55X_Wifi_BLE_SDK/GD32VW55x_RELEASE_V1.0.2/MSDK/plf/GD32VW55x_standard_peripheral/Source\gd32vw55x_fmc.c **** {
 417              		.loc 1 484 1 is_stmt 1
 418              		.cfi_startproc
 419              	.LVL25:
 485:C:/Users/stapi/OneDrive/Desktop/GD32VW553/V1_MQTT_OK/GD32VW55X_Wifi_BLE_SDK/GD32VW55x_RELEASE_V1.0.2/MSDK/plf/GD32VW55x_standard_peripheral/Source\gd32vw55x_fmc.c ****     uint32_t rft0_reg;
 420              		.loc 1 485 5
 486:C:/Users/stapi/OneDrive/Desktop/GD32VW553/V1_MQTT_OK/GD32VW55X_Wifi_BLE_SDK/GD32VW55x_RELEASE_V1.0.2/MSDK/plf/GD32VW55x_standard_peripheral/Source\gd32vw55x_fmc.c **** 
 487:C:/Users/stapi/OneDrive/Desktop/GD32VW553/V1_MQTT_OK/GD32VW55X_Wifi_BLE_SDK/GD32VW55x_RELEASE_V1.0.2/MSDK/plf/GD32VW55x_standard_peripheral/Source\gd32vw55x_fmc.c ****     rft0_reg = FMC_RFT0;
 421              		.loc 1 487 5
 422              		.loc 1 487 14 is_stmt 0
 423 0000 B7270240 		li	a5,1073881088
 424 0004 83A78710 		lw	a5,264(a5)
 425              	.LVL26:
 488:C:/Users/stapi/OneDrive/Desktop/GD32VW553/V1_MQTT_OK/GD32VW55X_Wifi_BLE_SDK/GD32VW55x_RELEASE_V1.0.2/MSDK/plf/GD32VW55x_standard_peripheral/Source\gd32vw55x_fmc.c ****     *rft0_pa_tune0 = (uint32_t)(rft0_reg & FMC_RFT0_PABIAST0);
 426              		.loc 1 488 5 is_stmt 1
 427              		.loc 1 488 22 is_stmt 0
 428 0008 13F7F700 		andi	a4,a5,15
 429              		.loc 1 488 20
 430 000c 18C1     		sw	a4,0(a0)
 489:C:/Users/stapi/OneDrive/Desktop/GD32VW553/V1_MQTT_OK/GD32VW55X_Wifi_BLE_SDK/GD32VW55x_RELEASE_V1.0.2/MSDK/plf/GD32VW55x_standard_peripheral/Source\gd32vw55x_fmc.c ****     *rft0_pa_tune1 = (uint32_t)(rft0_reg & FMC_RFT0_PABIAST1);
 431              		.loc 1 489 5 is_stmt 1
 432              		.loc 1 489 22 is_stmt 0
 433 000e 93F7070F 		andi	a5,a5,240
 434              	.LVL27:
 435              		.loc 1 489 20
 436 0012 9CC1     		sw	a5,0(a1)
 490:C:/Users/stapi/OneDrive/Desktop/GD32VW553/V1_MQTT_OK/GD32VW55X_Wifi_BLE_SDK/GD32VW55x_RELEASE_V1.0.2/MSDK/plf/GD32VW55x_standard_peripheral/Source\gd32vw55x_fmc.c **** }
 437              		.loc 1 490 1
 438 0014 8280     		ret
 439              		.cfi_endproc
 440              	.LFE384:
 442              		.section	.text.fmc_wifi_trim_get,"ax",@progbits
 443              		.align	1
 444              		.globl	fmc_wifi_trim_get
 446              	fmc_wifi_trim_get:
 447              	.LFB385:
 491:C:/Users/stapi/OneDrive/Desktop/GD32VW553/V1_MQTT_OK/GD32VW55X_Wifi_BLE_SDK/GD32VW55x_RELEASE_V1.0.2/MSDK/plf/GD32VW55x_standard_peripheral/Source\gd32vw55x_fmc.c **** 
 492:C:/Users/stapi/OneDrive/Desktop/GD32VW553/V1_MQTT_OK/GD32VW55X_Wifi_BLE_SDK/GD32VW55x_RELEASE_V1.0.2/MSDK/plf/GD32VW55x_standard_peripheral/Source\gd32vw55x_fmc.c **** /*!
 493:C:/Users/stapi/OneDrive/Desktop/GD32VW553/V1_MQTT_OK/GD32VW55X_Wifi_BLE_SDK/GD32VW55x_RELEASE_V1.0.2/MSDK/plf/GD32VW55x_standard_peripheral/Source\gd32vw55x_fmc.c ****     \brief      get wifi trim
 494:C:/Users/stapi/OneDrive/Desktop/GD32VW553/V1_MQTT_OK/GD32VW55X_Wifi_BLE_SDK/GD32VW55x_RELEASE_V1.0.2/MSDK/plf/GD32VW55x_standard_peripheral/Source\gd32vw55x_fmc.c ****     \param[in]  size: the size of data written to wifi trim, must be 16U
 495:C:/Users/stapi/OneDrive/Desktop/GD32VW553/V1_MQTT_OK/GD32VW55X_Wifi_BLE_SDK/GD32VW55x_RELEASE_V1.0.2/MSDK/plf/GD32VW55x_standard_peripheral/Source\gd32vw55x_fmc.c ****     \param[in]  buf: the buffer of data read from wifi trim
 496:C:/Users/stapi/OneDrive/Desktop/GD32VW553/V1_MQTT_OK/GD32VW55X_Wifi_BLE_SDK/GD32VW55x_RELEASE_V1.0.2/MSDK/plf/GD32VW55x_standard_peripheral/Source\gd32vw55x_fmc.c ****     \param[out] none
 497:C:/Users/stapi/OneDrive/Desktop/GD32VW553/V1_MQTT_OK/GD32VW55X_Wifi_BLE_SDK/GD32VW55x_RELEASE_V1.0.2/MSDK/plf/GD32VW55x_standard_peripheral/Source\gd32vw55x_fmc.c ****     \retval     state of FMC
 498:C:/Users/stapi/OneDrive/Desktop/GD32VW553/V1_MQTT_OK/GD32VW55X_Wifi_BLE_SDK/GD32VW55x_RELEASE_V1.0.2/MSDK/plf/GD32VW55x_standard_peripheral/Source\gd32vw55x_fmc.c **** */
 499:C:/Users/stapi/OneDrive/Desktop/GD32VW553/V1_MQTT_OK/GD32VW55X_Wifi_BLE_SDK/GD32VW55x_RELEASE_V1.0.2/MSDK/plf/GD32VW55x_standard_peripheral/Source\gd32vw55x_fmc.c **** fmc_state_enum fmc_wifi_trim_get(uint32_t size, uint32_t buf[])
 500:C:/Users/stapi/OneDrive/Desktop/GD32VW553/V1_MQTT_OK/GD32VW55X_Wifi_BLE_SDK/GD32VW55x_RELEASE_V1.0.2/MSDK/plf/GD32VW55x_standard_peripheral/Source\gd32vw55x_fmc.c **** {
 448              		.loc 1 500 1 is_stmt 1
 449              		.cfi_startproc
 450              	.LVL28:
 501:C:/Users/stapi/OneDrive/Desktop/GD32VW553/V1_MQTT_OK/GD32VW55X_Wifi_BLE_SDK/GD32VW55x_RELEASE_V1.0.2/MSDK/plf/GD32VW55x_standard_peripheral/Source\gd32vw55x_fmc.c ****     uint32_t i;
 451              		.loc 1 501 5
 502:C:/Users/stapi/OneDrive/Desktop/GD32VW553/V1_MQTT_OK/GD32VW55X_Wifi_BLE_SDK/GD32VW55x_RELEASE_V1.0.2/MSDK/plf/GD32VW55x_standard_peripheral/Source\gd32vw55x_fmc.c **** 
 503:C:/Users/stapi/OneDrive/Desktop/GD32VW553/V1_MQTT_OK/GD32VW55X_Wifi_BLE_SDK/GD32VW55x_RELEASE_V1.0.2/MSDK/plf/GD32VW55x_standard_peripheral/Source\gd32vw55x_fmc.c ****     if(size != 16U){
 452              		.loc 1 503 5
 453              		.loc 1 503 7 is_stmt 0
 454 0000 C147     		li	a5,16
 455 0002 6316F502 		bne	a0,a5,.L29
 456 0006 37270240 		li	a4,1073881088
 504:C:/Users/stapi/OneDrive/Desktop/GD32VW553/V1_MQTT_OK/GD32VW55X_Wifi_BLE_SDK/GD32VW55x_RELEASE_V1.0.2/MSDK/plf/GD32VW55x_standard_peripheral/Source\gd32vw55x_fmc.c ****         return FMC_ERR;
 505:C:/Users/stapi/OneDrive/Desktop/GD32VW553/V1_MQTT_OK/GD32VW55X_Wifi_BLE_SDK/GD32VW55x_RELEASE_V1.0.2/MSDK/plf/GD32VW55x_standard_peripheral/Source\gd32vw55x_fmc.c ****     }
 506:C:/Users/stapi/OneDrive/Desktop/GD32VW553/V1_MQTT_OK/GD32VW55X_Wifi_BLE_SDK/GD32VW55x_RELEASE_V1.0.2/MSDK/plf/GD32VW55x_standard_peripheral/Source\gd32vw55x_fmc.c ****     for(i = 0; i < size; i++){
 507:C:/Users/stapi/OneDrive/Desktop/GD32VW553/V1_MQTT_OK/GD32VW55X_Wifi_BLE_SDK/GD32VW55x_RELEASE_V1.0.2/MSDK/plf/GD32VW55x_standard_peripheral/Source\gd32vw55x_fmc.c ****         buf[i] = REG32(FMC + 0x00000200U + i*4);
 457              		.loc 1 507 16
 458 000a 37E6FDBF 		li	a2,-1073881088
 459 000e 93070720 		addi	a5,a4,512
 460 0012 130606E0 		addi	a2,a2,-512
 506:C:/Users/stapi/OneDrive/Desktop/GD32VW553/V1_MQTT_OK/GD32VW55X_Wifi_BLE_SDK/GD32VW55x_RELEASE_V1.0.2/MSDK/plf/GD32VW55x_standard_peripheral/Source\gd32vw55x_fmc.c ****         buf[i] = REG32(FMC + 0x00000200U + i*4);
 461              		.loc 1 506 5
 462 0016 13070724 		addi	a4,a4,576
 463              	.LVL29:
 464              	.L28:
 465              		.loc 1 507 9 is_stmt 1 discriminator 3
 466              		.loc 1 507 18 is_stmt 0 discriminator 3
 467 001a 8843     		lw	a0,0(a5)
 468              		.loc 1 507 16 discriminator 3
 469 001c B386C700 		add	a3,a5,a2
 470 0020 AE96     		add	a3,a1,a3
 471 0022 88C2     		sw	a0,0(a3)
 506:C:/Users/stapi/OneDrive/Desktop/GD32VW553/V1_MQTT_OK/GD32VW55X_Wifi_BLE_SDK/GD32VW55x_RELEASE_V1.0.2/MSDK/plf/GD32VW55x_standard_peripheral/Source\gd32vw55x_fmc.c ****         buf[i] = REG32(FMC + 0x00000200U + i*4);
 472              		.loc 1 506 26 is_stmt 1 discriminator 3
 506:C:/Users/stapi/OneDrive/Desktop/GD32VW553/V1_MQTT_OK/GD32VW55X_Wifi_BLE_SDK/GD32VW55x_RELEASE_V1.0.2/MSDK/plf/GD32VW55x_standard_peripheral/Source\gd32vw55x_fmc.c ****         buf[i] = REG32(FMC + 0x00000200U + i*4);
 473              		.loc 1 506 16 discriminator 3
 506:C:/Users/stapi/OneDrive/Desktop/GD32VW553/V1_MQTT_OK/GD32VW55X_Wifi_BLE_SDK/GD32VW55x_RELEASE_V1.0.2/MSDK/plf/GD32VW55x_standard_peripheral/Source\gd32vw55x_fmc.c ****         buf[i] = REG32(FMC + 0x00000200U + i*4);
 474              		.loc 1 506 5 is_stmt 0 discriminator 3
 475 0024 9107     		addi	a5,a5,4
 476 0026 E39AE7FE 		bne	a5,a4,.L28
 508:C:/Users/stapi/OneDrive/Desktop/GD32VW553/V1_MQTT_OK/GD32VW55X_Wifi_BLE_SDK/GD32VW55x_RELEASE_V1.0.2/MSDK/plf/GD32VW55x_standard_peripheral/Source\gd32vw55x_fmc.c ****     }
 509:C:/Users/stapi/OneDrive/Desktop/GD32VW553/V1_MQTT_OK/GD32VW55X_Wifi_BLE_SDK/GD32VW55x_RELEASE_V1.0.2/MSDK/plf/GD32VW55x_standard_peripheral/Source\gd32vw55x_fmc.c ****     /* return the FMC state */
 510:C:/Users/stapi/OneDrive/Desktop/GD32VW553/V1_MQTT_OK/GD32VW55X_Wifi_BLE_SDK/GD32VW55x_RELEASE_V1.0.2/MSDK/plf/GD32VW55x_standard_peripheral/Source\gd32vw55x_fmc.c ****     return FMC_READY;
 477              		.loc 1 510 12
 478 002a 0145     		li	a0,0
 479 002c 8280     		ret
 480              	.LVL30:
 481              	.L29:
 504:C:/Users/stapi/OneDrive/Desktop/GD32VW553/V1_MQTT_OK/GD32VW55X_Wifi_BLE_SDK/GD32VW55x_RELEASE_V1.0.2/MSDK/plf/GD32VW55x_standard_peripheral/Source\gd32vw55x_fmc.c ****     }
 482              		.loc 1 504 16
 483 002e 1145     		li	a0,4
 484              	.LVL31:
 511:C:/Users/stapi/OneDrive/Desktop/GD32VW553/V1_MQTT_OK/GD32VW55X_Wifi_BLE_SDK/GD32VW55x_RELEASE_V1.0.2/MSDK/plf/GD32VW55x_standard_peripheral/Source\gd32vw55x_fmc.c **** }
 485              		.loc 1 511 1
 486 0030 8280     		ret
 487              		.cfi_endproc
 488              	.LFE385:
 490              		.section	.text.fmc_pid_get,"ax",@progbits
 491              		.align	1
 492              		.globl	fmc_pid_get
 494              	fmc_pid_get:
 495              	.LFB386:
 512:C:/Users/stapi/OneDrive/Desktop/GD32VW553/V1_MQTT_OK/GD32VW55X_Wifi_BLE_SDK/GD32VW55x_RELEASE_V1.0.2/MSDK/plf/GD32VW55x_standard_peripheral/Source\gd32vw55x_fmc.c **** 
 513:C:/Users/stapi/OneDrive/Desktop/GD32VW553/V1_MQTT_OK/GD32VW55X_Wifi_BLE_SDK/GD32VW55x_RELEASE_V1.0.2/MSDK/plf/GD32VW55x_standard_peripheral/Source\gd32vw55x_fmc.c **** /*!
 514:C:/Users/stapi/OneDrive/Desktop/GD32VW553/V1_MQTT_OK/GD32VW55X_Wifi_BLE_SDK/GD32VW55x_RELEASE_V1.0.2/MSDK/plf/GD32VW55x_standard_peripheral/Source\gd32vw55x_fmc.c ****     \brief      get product ID
 515:C:/Users/stapi/OneDrive/Desktop/GD32VW553/V1_MQTT_OK/GD32VW55X_Wifi_BLE_SDK/GD32VW55x_RELEASE_V1.0.2/MSDK/plf/GD32VW55x_standard_peripheral/Source\gd32vw55x_fmc.c ****     \param[in]  none
 516:C:/Users/stapi/OneDrive/Desktop/GD32VW553/V1_MQTT_OK/GD32VW55X_Wifi_BLE_SDK/GD32VW55x_RELEASE_V1.0.2/MSDK/plf/GD32VW55x_standard_peripheral/Source\gd32vw55x_fmc.c ****     \param[out] pid: product ID
 517:C:/Users/stapi/OneDrive/Desktop/GD32VW553/V1_MQTT_OK/GD32VW55X_Wifi_BLE_SDK/GD32VW55x_RELEASE_V1.0.2/MSDK/plf/GD32VW55x_standard_peripheral/Source\gd32vw55x_fmc.c ****     \retval     none
 518:C:/Users/stapi/OneDrive/Desktop/GD32VW553/V1_MQTT_OK/GD32VW55X_Wifi_BLE_SDK/GD32VW55x_RELEASE_V1.0.2/MSDK/plf/GD32VW55x_standard_peripheral/Source\gd32vw55x_fmc.c **** */
 519:C:/Users/stapi/OneDrive/Desktop/GD32VW553/V1_MQTT_OK/GD32VW55X_Wifi_BLE_SDK/GD32VW55x_RELEASE_V1.0.2/MSDK/plf/GD32VW55x_standard_peripheral/Source\gd32vw55x_fmc.c **** void fmc_pid_get(uint32_t *pid)
 520:C:/Users/stapi/OneDrive/Desktop/GD32VW553/V1_MQTT_OK/GD32VW55X_Wifi_BLE_SDK/GD32VW55x_RELEASE_V1.0.2/MSDK/plf/GD32VW55x_standard_peripheral/Source\gd32vw55x_fmc.c **** {
 496              		.loc 1 520 1 is_stmt 1
 497              		.cfi_startproc
 498              	.LVL32:
 521:C:/Users/stapi/OneDrive/Desktop/GD32VW553/V1_MQTT_OK/GD32VW55X_Wifi_BLE_SDK/GD32VW55x_RELEASE_V1.0.2/MSDK/plf/GD32VW55x_standard_peripheral/Source\gd32vw55x_fmc.c ****     uint32_t pid_addr = (uint32_t)pid;
 499              		.loc 1 521 5
 522:C:/Users/stapi/OneDrive/Desktop/GD32VW553/V1_MQTT_OK/GD32VW55X_Wifi_BLE_SDK/GD32VW55x_RELEASE_V1.0.2/MSDK/plf/GD32VW55x_standard_peripheral/Source\gd32vw55x_fmc.c ****     *(uint32_t *)pid_addr = (uint32_t)(FMC_PID0);
 500              		.loc 1 522 5
 501              		.loc 1 522 29 is_stmt 0
 502 0000 B7270240 		li	a5,1073881088
 503 0004 03A70710 		lw	a4,256(a5)
 504              		.loc 1 522 27
 505 0008 18C1     		sw	a4,0(a0)
 523:C:/Users/stapi/OneDrive/Desktop/GD32VW553/V1_MQTT_OK/GD32VW55X_Wifi_BLE_SDK/GD32VW55x_RELEASE_V1.0.2/MSDK/plf/GD32VW55x_standard_peripheral/Source\gd32vw55x_fmc.c ****     pid_addr += 4U;
 506              		.loc 1 523 5 is_stmt 1
 507              	.LVL33:
 524:C:/Users/stapi/OneDrive/Desktop/GD32VW553/V1_MQTT_OK/GD32VW55X_Wifi_BLE_SDK/GD32VW55x_RELEASE_V1.0.2/MSDK/plf/GD32VW55x_standard_peripheral/Source\gd32vw55x_fmc.c ****     *(uint32_t *)pid_addr = (uint32_t)(FMC_PID1);
 508              		.loc 1 524 5
 509              		.loc 1 524 29 is_stmt 0
 510 000a 83A74710 		lw	a5,260(a5)
 511              		.loc 1 524 27
 512 000e 5CC1     		sw	a5,4(a0)
 525:C:/Users/stapi/OneDrive/Desktop/GD32VW553/V1_MQTT_OK/GD32VW55X_Wifi_BLE_SDK/GD32VW55x_RELEASE_V1.0.2/MSDK/plf/GD32VW55x_standard_peripheral/Source\gd32vw55x_fmc.c **** }
 513              		.loc 1 525 1
 514 0010 8280     		ret
 515              		.cfi_endproc
 516              	.LFE386:
 518              		.section	.text.ob_write_protection_get,"ax",@progbits
 519              		.align	1
 520              		.globl	ob_write_protection_get
 522              	ob_write_protection_get:
 523              	.LFB387:
 526:C:/Users/stapi/OneDrive/Desktop/GD32VW553/V1_MQTT_OK/GD32VW55X_Wifi_BLE_SDK/GD32VW55x_RELEASE_V1.0.2/MSDK/plf/GD32VW55x_standard_peripheral/Source\gd32vw55x_fmc.c **** 
 527:C:/Users/stapi/OneDrive/Desktop/GD32VW553/V1_MQTT_OK/GD32VW55X_Wifi_BLE_SDK/GD32VW55x_RELEASE_V1.0.2/MSDK/plf/GD32VW55x_standard_peripheral/Source\gd32vw55x_fmc.c **** /*!
 528:C:/Users/stapi/OneDrive/Desktop/GD32VW553/V1_MQTT_OK/GD32VW55X_Wifi_BLE_SDK/GD32VW55x_RELEASE_V1.0.2/MSDK/plf/GD32VW55x_standard_peripheral/Source\gd32vw55x_fmc.c ****     \brief      get option bytes write protection state, only applies to get the status of write/er
 529:C:/Users/stapi/OneDrive/Desktop/GD32VW553/V1_MQTT_OK/GD32VW55X_Wifi_BLE_SDK/GD32VW55x_RELEASE_V1.0.2/MSDK/plf/GD32VW55x_standard_peripheral/Source\gd32vw55x_fmc.c ****     \param[in]  none
 530:C:/Users/stapi/OneDrive/Desktop/GD32VW553/V1_MQTT_OK/GD32VW55X_Wifi_BLE_SDK/GD32VW55x_RELEASE_V1.0.2/MSDK/plf/GD32VW55x_standard_peripheral/Source\gd32vw55x_fmc.c ****     \param[out] none
 531:C:/Users/stapi/OneDrive/Desktop/GD32VW553/V1_MQTT_OK/GD32VW55X_Wifi_BLE_SDK/GD32VW55x_RELEASE_V1.0.2/MSDK/plf/GD32VW55x_standard_peripheral/Source\gd32vw55x_fmc.c ****     \retval     FlagStatus: SET or RESET
 532:C:/Users/stapi/OneDrive/Desktop/GD32VW553/V1_MQTT_OK/GD32VW55X_Wifi_BLE_SDK/GD32VW55x_RELEASE_V1.0.2/MSDK/plf/GD32VW55x_standard_peripheral/Source\gd32vw55x_fmc.c **** */
 533:C:/Users/stapi/OneDrive/Desktop/GD32VW553/V1_MQTT_OK/GD32VW55X_Wifi_BLE_SDK/GD32VW55x_RELEASE_V1.0.2/MSDK/plf/GD32VW55x_standard_peripheral/Source\gd32vw55x_fmc.c **** FlagStatus ob_write_protection_get(void)
 534:C:/Users/stapi/OneDrive/Desktop/GD32VW553/V1_MQTT_OK/GD32VW55X_Wifi_BLE_SDK/GD32VW55x_RELEASE_V1.0.2/MSDK/plf/GD32VW55x_standard_peripheral/Source\gd32vw55x_fmc.c **** {
 524              		.loc 1 534 1 is_stmt 1
 525              		.cfi_startproc
 535:C:/Users/stapi/OneDrive/Desktop/GD32VW553/V1_MQTT_OK/GD32VW55X_Wifi_BLE_SDK/GD32VW55x_RELEASE_V1.0.2/MSDK/plf/GD32VW55x_standard_peripheral/Source\gd32vw55x_fmc.c ****     FlagStatus status = RESET;
 526              		.loc 1 535 5
 527              	.LVL34:
 536:C:/Users/stapi/OneDrive/Desktop/GD32VW553/V1_MQTT_OK/GD32VW55X_Wifi_BLE_SDK/GD32VW55x_RELEASE_V1.0.2/MSDK/plf/GD32VW55x_standard_peripheral/Source\gd32vw55x_fmc.c **** 
 537:C:/Users/stapi/OneDrive/Desktop/GD32VW553/V1_MQTT_OK/GD32VW55X_Wifi_BLE_SDK/GD32VW55x_RELEASE_V1.0.2/MSDK/plf/GD32VW55x_standard_peripheral/Source\gd32vw55x_fmc.c ****     if(FMC_OBSTAT & FMC_OBSTAT_WP) {
 528              		.loc 1 537 5
 529              		.loc 1 537 8 is_stmt 0
 530 0000 B7270240 		li	a5,1073881088
 531 0004 C84F     		lw	a0,28(a5)
 532              	.LVL35:
 538:C:/Users/stapi/OneDrive/Desktop/GD32VW553/V1_MQTT_OK/GD32VW55X_Wifi_BLE_SDK/GD32VW55x_RELEASE_V1.0.2/MSDK/plf/GD32VW55x_standard_peripheral/Source\gd32vw55x_fmc.c ****         status = SET;
 539:C:/Users/stapi/OneDrive/Desktop/GD32VW553/V1_MQTT_OK/GD32VW55X_Wifi_BLE_SDK/GD32VW55x_RELEASE_V1.0.2/MSDK/plf/GD32VW55x_standard_peripheral/Source\gd32vw55x_fmc.c ****     } else {
 540:C:/Users/stapi/OneDrive/Desktop/GD32VW553/V1_MQTT_OK/GD32VW55X_Wifi_BLE_SDK/GD32VW55x_RELEASE_V1.0.2/MSDK/plf/GD32VW55x_standard_peripheral/Source\gd32vw55x_fmc.c ****         status = RESET;
 541:C:/Users/stapi/OneDrive/Desktop/GD32VW553/V1_MQTT_OK/GD32VW55X_Wifi_BLE_SDK/GD32VW55x_RELEASE_V1.0.2/MSDK/plf/GD32VW55x_standard_peripheral/Source\gd32vw55x_fmc.c ****     }
 542:C:/Users/stapi/OneDrive/Desktop/GD32VW553/V1_MQTT_OK/GD32VW55X_Wifi_BLE_SDK/GD32VW55x_RELEASE_V1.0.2/MSDK/plf/GD32VW55x_standard_peripheral/Source\gd32vw55x_fmc.c **** 
 543:C:/Users/stapi/OneDrive/Desktop/GD32VW553/V1_MQTT_OK/GD32VW55X_Wifi_BLE_SDK/GD32VW55x_RELEASE_V1.0.2/MSDK/plf/GD32VW55x_standard_peripheral/Source\gd32vw55x_fmc.c ****     /* return the state of corresponding FMC flag */
 544:C:/Users/stapi/OneDrive/Desktop/GD32VW553/V1_MQTT_OK/GD32VW55X_Wifi_BLE_SDK/GD32VW55x_RELEASE_V1.0.2/MSDK/plf/GD32VW55x_standard_peripheral/Source\gd32vw55x_fmc.c ****     return status;
 533              		.loc 1 544 5 is_stmt 1
 545:C:/Users/stapi/OneDrive/Desktop/GD32VW553/V1_MQTT_OK/GD32VW55X_Wifi_BLE_SDK/GD32VW55x_RELEASE_V1.0.2/MSDK/plf/GD32VW55x_standard_peripheral/Source\gd32vw55x_fmc.c **** }
 534              		.loc 1 545 1 is_stmt 0
 535 0006 13552548 		bexti	a0,a0,2
 536              	.LVL36:
 537 000a 8280     		ret
 538              		.cfi_endproc
 539              	.LFE387:
 541              		.section	.text.ob_user_get,"ax",@progbits
 542              		.align	1
 543              		.globl	ob_user_get
 545              	ob_user_get:
 546              	.LFB388:
 546:C:/Users/stapi/OneDrive/Desktop/GD32VW553/V1_MQTT_OK/GD32VW55X_Wifi_BLE_SDK/GD32VW55x_RELEASE_V1.0.2/MSDK/plf/GD32VW55x_standard_peripheral/Source\gd32vw55x_fmc.c **** 
 547:C:/Users/stapi/OneDrive/Desktop/GD32VW553/V1_MQTT_OK/GD32VW55X_Wifi_BLE_SDK/GD32VW55x_RELEASE_V1.0.2/MSDK/plf/GD32VW55x_standard_peripheral/Source\gd32vw55x_fmc.c **** /*!
 548:C:/Users/stapi/OneDrive/Desktop/GD32VW553/V1_MQTT_OK/GD32VW55X_Wifi_BLE_SDK/GD32VW55x_RELEASE_V1.0.2/MSDK/plf/GD32VW55x_standard_peripheral/Source\gd32vw55x_fmc.c ****     \brief      get the value of option bytes USER
 549:C:/Users/stapi/OneDrive/Desktop/GD32VW553/V1_MQTT_OK/GD32VW55X_Wifi_BLE_SDK/GD32VW55x_RELEASE_V1.0.2/MSDK/plf/GD32VW55x_standard_peripheral/Source\gd32vw55x_fmc.c ****     \param[in]  none
 550:C:/Users/stapi/OneDrive/Desktop/GD32VW553/V1_MQTT_OK/GD32VW55X_Wifi_BLE_SDK/GD32VW55x_RELEASE_V1.0.2/MSDK/plf/GD32VW55x_standard_peripheral/Source\gd32vw55x_fmc.c ****     \param[out] none
 551:C:/Users/stapi/OneDrive/Desktop/GD32VW553/V1_MQTT_OK/GD32VW55X_Wifi_BLE_SDK/GD32VW55x_RELEASE_V1.0.2/MSDK/plf/GD32VW55x_standard_peripheral/Source\gd32vw55x_fmc.c ****     \retval     the option bytes USER value
 552:C:/Users/stapi/OneDrive/Desktop/GD32VW553/V1_MQTT_OK/GD32VW55X_Wifi_BLE_SDK/GD32VW55x_RELEASE_V1.0.2/MSDK/plf/GD32VW55x_standard_peripheral/Source\gd32vw55x_fmc.c **** */
 553:C:/Users/stapi/OneDrive/Desktop/GD32VW553/V1_MQTT_OK/GD32VW55X_Wifi_BLE_SDK/GD32VW55x_RELEASE_V1.0.2/MSDK/plf/GD32VW55x_standard_peripheral/Source\gd32vw55x_fmc.c **** uint32_t ob_user_get(void)
 554:C:/Users/stapi/OneDrive/Desktop/GD32VW553/V1_MQTT_OK/GD32VW55X_Wifi_BLE_SDK/GD32VW55x_RELEASE_V1.0.2/MSDK/plf/GD32VW55x_standard_peripheral/Source\gd32vw55x_fmc.c **** {
 547              		.loc 1 554 1 is_stmt 1
 548              		.cfi_startproc
 555:C:/Users/stapi/OneDrive/Desktop/GD32VW553/V1_MQTT_OK/GD32VW55X_Wifi_BLE_SDK/GD32VW55x_RELEASE_V1.0.2/MSDK/plf/GD32VW55x_standard_peripheral/Source\gd32vw55x_fmc.c ****     /* return the FMC user option bytes value */
 556:C:/Users/stapi/OneDrive/Desktop/GD32VW553/V1_MQTT_OK/GD32VW55X_Wifi_BLE_SDK/GD32VW55x_RELEASE_V1.0.2/MSDK/plf/GD32VW55x_standard_peripheral/Source\gd32vw55x_fmc.c ****     return (uint32_t) FMC_OBUSER;
 549              		.loc 1 556 5
 550              		.loc 1 556 12 is_stmt 0
 551 0000 B7270240 		li	a5,1073881088
 552 0004 E843     		lw	a0,68(a5)
 557:C:/Users/stapi/OneDrive/Desktop/GD32VW553/V1_MQTT_OK/GD32VW55X_Wifi_BLE_SDK/GD32VW55x_RELEASE_V1.0.2/MSDK/plf/GD32VW55x_standard_peripheral/Source\gd32vw55x_fmc.c **** }
 553              		.loc 1 557 1
 554 0006 8280     		ret
 555              		.cfi_endproc
 556              	.LFE388:
 558              		.section	.text.ob_security_protection_flag_get,"ax",@progbits
 559              		.align	1
 560              		.globl	ob_security_protection_flag_get
 562              	ob_security_protection_flag_get:
 563              	.LFB389:
 558:C:/Users/stapi/OneDrive/Desktop/GD32VW553/V1_MQTT_OK/GD32VW55X_Wifi_BLE_SDK/GD32VW55x_RELEASE_V1.0.2/MSDK/plf/GD32VW55x_standard_peripheral/Source\gd32vw55x_fmc.c **** 
 559:C:/Users/stapi/OneDrive/Desktop/GD32VW553/V1_MQTT_OK/GD32VW55X_Wifi_BLE_SDK/GD32VW55x_RELEASE_V1.0.2/MSDK/plf/GD32VW55x_standard_peripheral/Source\gd32vw55x_fmc.c **** /*!
 560:C:/Users/stapi/OneDrive/Desktop/GD32VW553/V1_MQTT_OK/GD32VW55X_Wifi_BLE_SDK/GD32VW55x_RELEASE_V1.0.2/MSDK/plf/GD32VW55x_standard_peripheral/Source\gd32vw55x_fmc.c ****     \brief      get the FMC option bytes security protection state
 561:C:/Users/stapi/OneDrive/Desktop/GD32VW553/V1_MQTT_OK/GD32VW55X_Wifi_BLE_SDK/GD32VW55x_RELEASE_V1.0.2/MSDK/plf/GD32VW55x_standard_peripheral/Source\gd32vw55x_fmc.c ****     \param[in]  none
 562:C:/Users/stapi/OneDrive/Desktop/GD32VW553/V1_MQTT_OK/GD32VW55X_Wifi_BLE_SDK/GD32VW55x_RELEASE_V1.0.2/MSDK/plf/GD32VW55x_standard_peripheral/Source\gd32vw55x_fmc.c ****     \param[out] none
 563:C:/Users/stapi/OneDrive/Desktop/GD32VW553/V1_MQTT_OK/GD32VW55X_Wifi_BLE_SDK/GD32VW55x_RELEASE_V1.0.2/MSDK/plf/GD32VW55x_standard_peripheral/Source\gd32vw55x_fmc.c ****     \retval     FlagStatus: SET or RESET
 564:C:/Users/stapi/OneDrive/Desktop/GD32VW553/V1_MQTT_OK/GD32VW55X_Wifi_BLE_SDK/GD32VW55x_RELEASE_V1.0.2/MSDK/plf/GD32VW55x_standard_peripheral/Source\gd32vw55x_fmc.c **** */
 565:C:/Users/stapi/OneDrive/Desktop/GD32VW553/V1_MQTT_OK/GD32VW55X_Wifi_BLE_SDK/GD32VW55x_RELEASE_V1.0.2/MSDK/plf/GD32VW55x_standard_peripheral/Source\gd32vw55x_fmc.c **** FlagStatus ob_security_protection_flag_get(void)
 566:C:/Users/stapi/OneDrive/Desktop/GD32VW553/V1_MQTT_OK/GD32VW55X_Wifi_BLE_SDK/GD32VW55x_RELEASE_V1.0.2/MSDK/plf/GD32VW55x_standard_peripheral/Source\gd32vw55x_fmc.c **** {
 564              		.loc 1 566 1 is_stmt 1
 565              		.cfi_startproc
 567:C:/Users/stapi/OneDrive/Desktop/GD32VW553/V1_MQTT_OK/GD32VW55X_Wifi_BLE_SDK/GD32VW55x_RELEASE_V1.0.2/MSDK/plf/GD32VW55x_standard_peripheral/Source\gd32vw55x_fmc.c ****     FlagStatus state = RESET;
 566              		.loc 1 567 5
 567              	.LVL37:
 568:C:/Users/stapi/OneDrive/Desktop/GD32VW553/V1_MQTT_OK/GD32VW55X_Wifi_BLE_SDK/GD32VW55x_RELEASE_V1.0.2/MSDK/plf/GD32VW55x_standard_peripheral/Source\gd32vw55x_fmc.c **** 
 569:C:/Users/stapi/OneDrive/Desktop/GD32VW553/V1_MQTT_OK/GD32VW55X_Wifi_BLE_SDK/GD32VW55x_RELEASE_V1.0.2/MSDK/plf/GD32VW55x_standard_peripheral/Source\gd32vw55x_fmc.c ****     if (FMC_OBSTAT & FMC_OBSTAT_SPCSTAT_MASK){
 568              		.loc 1 569 5
 569              		.loc 1 569 9 is_stmt 0
 570 0000 B7270240 		li	a5,1073881088
 571 0004 C84F     		lw	a0,28(a5)
 572              	.LVL38:
 570:C:/Users/stapi/OneDrive/Desktop/GD32VW553/V1_MQTT_OK/GD32VW55X_Wifi_BLE_SDK/GD32VW55x_RELEASE_V1.0.2/MSDK/plf/GD32VW55x_standard_peripheral/Source\gd32vw55x_fmc.c ****         state = SET;
 571:C:/Users/stapi/OneDrive/Desktop/GD32VW553/V1_MQTT_OK/GD32VW55X_Wifi_BLE_SDK/GD32VW55x_RELEASE_V1.0.2/MSDK/plf/GD32VW55x_standard_peripheral/Source\gd32vw55x_fmc.c ****     }else{
 572:C:/Users/stapi/OneDrive/Desktop/GD32VW553/V1_MQTT_OK/GD32VW55X_Wifi_BLE_SDK/GD32VW55x_RELEASE_V1.0.2/MSDK/plf/GD32VW55x_standard_peripheral/Source\gd32vw55x_fmc.c ****         state = RESET;
 573:C:/Users/stapi/OneDrive/Desktop/GD32VW553/V1_MQTT_OK/GD32VW55X_Wifi_BLE_SDK/GD32VW55x_RELEASE_V1.0.2/MSDK/plf/GD32VW55x_standard_peripheral/Source\gd32vw55x_fmc.c ****     }
 574:C:/Users/stapi/OneDrive/Desktop/GD32VW553/V1_MQTT_OK/GD32VW55X_Wifi_BLE_SDK/GD32VW55x_RELEASE_V1.0.2/MSDK/plf/GD32VW55x_standard_peripheral/Source\gd32vw55x_fmc.c **** 
 575:C:/Users/stapi/OneDrive/Desktop/GD32VW553/V1_MQTT_OK/GD32VW55X_Wifi_BLE_SDK/GD32VW55x_RELEASE_V1.0.2/MSDK/plf/GD32VW55x_standard_peripheral/Source\gd32vw55x_fmc.c ****     /* return the state of corresponding FMC flag */
 576:C:/Users/stapi/OneDrive/Desktop/GD32VW553/V1_MQTT_OK/GD32VW55X_Wifi_BLE_SDK/GD32VW55x_RELEASE_V1.0.2/MSDK/plf/GD32VW55x_standard_peripheral/Source\gd32vw55x_fmc.c ****     return state;
 573              		.loc 1 576 5 is_stmt 1
 577:C:/Users/stapi/OneDrive/Desktop/GD32VW553/V1_MQTT_OK/GD32VW55X_Wifi_BLE_SDK/GD32VW55x_RELEASE_V1.0.2/MSDK/plf/GD32VW55x_standard_peripheral/Source\gd32vw55x_fmc.c **** }
 574              		.loc 1 577 1 is_stmt 0
 575 0006 13551548 		bexti	a0,a0,1
 576              	.LVL39:
 577 000a 8280     		ret
 578              		.cfi_endproc
 579              	.LFE389:
 581              		.section	.text.fmc_flag_get,"ax",@progbits
 582              		.align	1
 583              		.globl	fmc_flag_get
 585              	fmc_flag_get:
 586              	.LFB390:
 578:C:/Users/stapi/OneDrive/Desktop/GD32VW553/V1_MQTT_OK/GD32VW55X_Wifi_BLE_SDK/GD32VW55x_RELEASE_V1.0.2/MSDK/plf/GD32VW55x_standard_peripheral/Source\gd32vw55x_fmc.c **** 
 579:C:/Users/stapi/OneDrive/Desktop/GD32VW553/V1_MQTT_OK/GD32VW55X_Wifi_BLE_SDK/GD32VW55x_RELEASE_V1.0.2/MSDK/plf/GD32VW55x_standard_peripheral/Source\gd32vw55x_fmc.c **** /*!
 580:C:/Users/stapi/OneDrive/Desktop/GD32VW553/V1_MQTT_OK/GD32VW55X_Wifi_BLE_SDK/GD32VW55x_RELEASE_V1.0.2/MSDK/plf/GD32VW55x_standard_peripheral/Source\gd32vw55x_fmc.c ****     \brief      get FMC flag status
 581:C:/Users/stapi/OneDrive/Desktop/GD32VW553/V1_MQTT_OK/GD32VW55X_Wifi_BLE_SDK/GD32VW55x_RELEASE_V1.0.2/MSDK/plf/GD32VW55x_standard_peripheral/Source\gd32vw55x_fmc.c ****     \param[in]  flag: FMC flag
 582:C:/Users/stapi/OneDrive/Desktop/GD32VW553/V1_MQTT_OK/GD32VW55X_Wifi_BLE_SDK/GD32VW55x_RELEASE_V1.0.2/MSDK/plf/GD32VW55x_standard_peripheral/Source\gd32vw55x_fmc.c ****                 only one parameter can be selected which is shown as below:
 583:C:/Users/stapi/OneDrive/Desktop/GD32VW553/V1_MQTT_OK/GD32VW55X_Wifi_BLE_SDK/GD32VW55x_RELEASE_V1.0.2/MSDK/plf/GD32VW55x_standard_peripheral/Source\gd32vw55x_fmc.c ****       \arg        FMC_FLAG_BUSY: FMC busy flag
 584:C:/Users/stapi/OneDrive/Desktop/GD32VW553/V1_MQTT_OK/GD32VW55X_Wifi_BLE_SDK/GD32VW55x_RELEASE_V1.0.2/MSDK/plf/GD32VW55x_standard_peripheral/Source\gd32vw55x_fmc.c ****       \arg        FMC_FLAG_WPERR: FMC erase/program protection error flag
 585:C:/Users/stapi/OneDrive/Desktop/GD32VW553/V1_MQTT_OK/GD32VW55X_Wifi_BLE_SDK/GD32VW55x_RELEASE_V1.0.2/MSDK/plf/GD32VW55x_standard_peripheral/Source\gd32vw55x_fmc.c ****       \arg        FMC_FLAG_END: FMC end of operation flag
 586:C:/Users/stapi/OneDrive/Desktop/GD32VW553/V1_MQTT_OK/GD32VW55X_Wifi_BLE_SDK/GD32VW55x_RELEASE_V1.0.2/MSDK/plf/GD32VW55x_standard_peripheral/Source\gd32vw55x_fmc.c ****     \param[out] none
 587:C:/Users/stapi/OneDrive/Desktop/GD32VW553/V1_MQTT_OK/GD32VW55X_Wifi_BLE_SDK/GD32VW55x_RELEASE_V1.0.2/MSDK/plf/GD32VW55x_standard_peripheral/Source\gd32vw55x_fmc.c ****     \retval     FlagStatus: SET or RESET
 588:C:/Users/stapi/OneDrive/Desktop/GD32VW553/V1_MQTT_OK/GD32VW55X_Wifi_BLE_SDK/GD32VW55x_RELEASE_V1.0.2/MSDK/plf/GD32VW55x_standard_peripheral/Source\gd32vw55x_fmc.c **** */
 589:C:/Users/stapi/OneDrive/Desktop/GD32VW553/V1_MQTT_OK/GD32VW55X_Wifi_BLE_SDK/GD32VW55x_RELEASE_V1.0.2/MSDK/plf/GD32VW55x_standard_peripheral/Source\gd32vw55x_fmc.c **** FlagStatus fmc_flag_get(uint32_t flag)
 590:C:/Users/stapi/OneDrive/Desktop/GD32VW553/V1_MQTT_OK/GD32VW55X_Wifi_BLE_SDK/GD32VW55x_RELEASE_V1.0.2/MSDK/plf/GD32VW55x_standard_peripheral/Source\gd32vw55x_fmc.c **** {
 587              		.loc 1 590 1 is_stmt 1
 588              		.cfi_startproc
 589              	.LVL40:
 591:C:/Users/stapi/OneDrive/Desktop/GD32VW553/V1_MQTT_OK/GD32VW55X_Wifi_BLE_SDK/GD32VW55x_RELEASE_V1.0.2/MSDK/plf/GD32VW55x_standard_peripheral/Source\gd32vw55x_fmc.c ****     FlagStatus status = RESET;
 590              		.loc 1 591 5
 592:C:/Users/stapi/OneDrive/Desktop/GD32VW553/V1_MQTT_OK/GD32VW55X_Wifi_BLE_SDK/GD32VW55x_RELEASE_V1.0.2/MSDK/plf/GD32VW55x_standard_peripheral/Source\gd32vw55x_fmc.c **** 
 593:C:/Users/stapi/OneDrive/Desktop/GD32VW553/V1_MQTT_OK/GD32VW55X_Wifi_BLE_SDK/GD32VW55x_RELEASE_V1.0.2/MSDK/plf/GD32VW55x_standard_peripheral/Source\gd32vw55x_fmc.c ****     if (FMC_STAT & flag){
 591              		.loc 1 593 5
 592              		.loc 1 593 9 is_stmt 0
 593 0000 B7270240 		li	a5,1073881088
 594 0004 DC47     		lw	a5,12(a5)
 595              	.LVL41:
 594:C:/Users/stapi/OneDrive/Desktop/GD32VW553/V1_MQTT_OK/GD32VW55X_Wifi_BLE_SDK/GD32VW55x_RELEASE_V1.0.2/MSDK/plf/GD32VW55x_standard_peripheral/Source\gd32vw55x_fmc.c ****         status = SET;
 595:C:/Users/stapi/OneDrive/Desktop/GD32VW553/V1_MQTT_OK/GD32VW55X_Wifi_BLE_SDK/GD32VW55x_RELEASE_V1.0.2/MSDK/plf/GD32VW55x_standard_peripheral/Source\gd32vw55x_fmc.c ****     }
 596:C:/Users/stapi/OneDrive/Desktop/GD32VW553/V1_MQTT_OK/GD32VW55X_Wifi_BLE_SDK/GD32VW55x_RELEASE_V1.0.2/MSDK/plf/GD32VW55x_standard_peripheral/Source\gd32vw55x_fmc.c ****     /* return the state of corresponding FMC flag */
 597:C:/Users/stapi/OneDrive/Desktop/GD32VW553/V1_MQTT_OK/GD32VW55X_Wifi_BLE_SDK/GD32VW55x_RELEASE_V1.0.2/MSDK/plf/GD32VW55x_standard_peripheral/Source\gd32vw55x_fmc.c ****     return status;
 596              		.loc 1 597 5 is_stmt 1
 593:C:/Users/stapi/OneDrive/Desktop/GD32VW553/V1_MQTT_OK/GD32VW55X_Wifi_BLE_SDK/GD32VW55x_RELEASE_V1.0.2/MSDK/plf/GD32VW55x_standard_peripheral/Source\gd32vw55x_fmc.c ****         status = SET;
 597              		.loc 1 593 18 is_stmt 0
 598 0006 7D8D     		and	a0,a5,a0
 599              	.LVL42:
 598:C:/Users/stapi/OneDrive/Desktop/GD32VW553/V1_MQTT_OK/GD32VW55X_Wifi_BLE_SDK/GD32VW55x_RELEASE_V1.0.2/MSDK/plf/GD32VW55x_standard_peripheral/Source\gd32vw55x_fmc.c **** }
 600              		.loc 1 598 1
 601 0008 3335A000 		snez	a0,a0
 602 000c 8280     		ret
 603              		.cfi_endproc
 604              	.LFE390:
 606              		.section	.text.fmc_flag_clear,"ax",@progbits
 607              		.align	1
 608              		.globl	fmc_flag_clear
 610              	fmc_flag_clear:
 611              	.LFB391:
 599:C:/Users/stapi/OneDrive/Desktop/GD32VW553/V1_MQTT_OK/GD32VW55X_Wifi_BLE_SDK/GD32VW55x_RELEASE_V1.0.2/MSDK/plf/GD32VW55x_standard_peripheral/Source\gd32vw55x_fmc.c **** 
 600:C:/Users/stapi/OneDrive/Desktop/GD32VW553/V1_MQTT_OK/GD32VW55X_Wifi_BLE_SDK/GD32VW55x_RELEASE_V1.0.2/MSDK/plf/GD32VW55x_standard_peripheral/Source\gd32vw55x_fmc.c **** /*!
 601:C:/Users/stapi/OneDrive/Desktop/GD32VW553/V1_MQTT_OK/GD32VW55X_Wifi_BLE_SDK/GD32VW55x_RELEASE_V1.0.2/MSDK/plf/GD32VW55x_standard_peripheral/Source\gd32vw55x_fmc.c ****     \brief      clear the FMC flag
 602:C:/Users/stapi/OneDrive/Desktop/GD32VW553/V1_MQTT_OK/GD32VW55X_Wifi_BLE_SDK/GD32VW55x_RELEASE_V1.0.2/MSDK/plf/GD32VW55x_standard_peripheral/Source\gd32vw55x_fmc.c ****     \param[in]  flag: FMC flag
 603:C:/Users/stapi/OneDrive/Desktop/GD32VW553/V1_MQTT_OK/GD32VW55X_Wifi_BLE_SDK/GD32VW55x_RELEASE_V1.0.2/MSDK/plf/GD32VW55x_standard_peripheral/Source\gd32vw55x_fmc.c ****                 only one parameter can be selected which is shown as below:
 604:C:/Users/stapi/OneDrive/Desktop/GD32VW553/V1_MQTT_OK/GD32VW55X_Wifi_BLE_SDK/GD32VW55x_RELEASE_V1.0.2/MSDK/plf/GD32VW55x_standard_peripheral/Source\gd32vw55x_fmc.c ****       \arg        FMC_FLAG_WPERR: FMC erase/program protection error flag
 605:C:/Users/stapi/OneDrive/Desktop/GD32VW553/V1_MQTT_OK/GD32VW55X_Wifi_BLE_SDK/GD32VW55x_RELEASE_V1.0.2/MSDK/plf/GD32VW55x_standard_peripheral/Source\gd32vw55x_fmc.c ****       \arg        FMC_FLAG_END: FMC end of operation flag
 606:C:/Users/stapi/OneDrive/Desktop/GD32VW553/V1_MQTT_OK/GD32VW55X_Wifi_BLE_SDK/GD32VW55x_RELEASE_V1.0.2/MSDK/plf/GD32VW55x_standard_peripheral/Source\gd32vw55x_fmc.c ****     \param[out] none
 607:C:/Users/stapi/OneDrive/Desktop/GD32VW553/V1_MQTT_OK/GD32VW55X_Wifi_BLE_SDK/GD32VW55x_RELEASE_V1.0.2/MSDK/plf/GD32VW55x_standard_peripheral/Source\gd32vw55x_fmc.c ****     \retval     none
 608:C:/Users/stapi/OneDrive/Desktop/GD32VW553/V1_MQTT_OK/GD32VW55X_Wifi_BLE_SDK/GD32VW55x_RELEASE_V1.0.2/MSDK/plf/GD32VW55x_standard_peripheral/Source\gd32vw55x_fmc.c **** */
 609:C:/Users/stapi/OneDrive/Desktop/GD32VW553/V1_MQTT_OK/GD32VW55X_Wifi_BLE_SDK/GD32VW55x_RELEASE_V1.0.2/MSDK/plf/GD32VW55x_standard_peripheral/Source\gd32vw55x_fmc.c **** void fmc_flag_clear(uint32_t flag)
 610:C:/Users/stapi/OneDrive/Desktop/GD32VW553/V1_MQTT_OK/GD32VW55X_Wifi_BLE_SDK/GD32VW55x_RELEASE_V1.0.2/MSDK/plf/GD32VW55x_standard_peripheral/Source\gd32vw55x_fmc.c **** {
 612              		.loc 1 610 1 is_stmt 1
 613              		.cfi_startproc
 614              	.LVL43:
 611:C:/Users/stapi/OneDrive/Desktop/GD32VW553/V1_MQTT_OK/GD32VW55X_Wifi_BLE_SDK/GD32VW55x_RELEASE_V1.0.2/MSDK/plf/GD32VW55x_standard_peripheral/Source\gd32vw55x_fmc.c ****     /* clear the flags */
 612:C:/Users/stapi/OneDrive/Desktop/GD32VW553/V1_MQTT_OK/GD32VW55X_Wifi_BLE_SDK/GD32VW55x_RELEASE_V1.0.2/MSDK/plf/GD32VW55x_standard_peripheral/Source\gd32vw55x_fmc.c ****     FMC_STAT = flag;
 615              		.loc 1 612 5
 616              		.loc 1 612 14 is_stmt 0
 617 0000 B7270240 		li	a5,1073881088
 618 0004 C8C7     		sw	a0,12(a5)
 613:C:/Users/stapi/OneDrive/Desktop/GD32VW553/V1_MQTT_OK/GD32VW55X_Wifi_BLE_SDK/GD32VW55x_RELEASE_V1.0.2/MSDK/plf/GD32VW55x_standard_peripheral/Source\gd32vw55x_fmc.c **** }
 619              		.loc 1 613 1
 620 0006 8280     		ret
 621              		.cfi_endproc
 622              	.LFE391:
 624              		.section	.text.fmc_interrupt_enable,"ax",@progbits
 625              		.align	1
 626              		.globl	fmc_interrupt_enable
 628              	fmc_interrupt_enable:
 629              	.LFB392:
 614:C:/Users/stapi/OneDrive/Desktop/GD32VW553/V1_MQTT_OK/GD32VW55X_Wifi_BLE_SDK/GD32VW55x_RELEASE_V1.0.2/MSDK/plf/GD32VW55x_standard_peripheral/Source\gd32vw55x_fmc.c **** 
 615:C:/Users/stapi/OneDrive/Desktop/GD32VW553/V1_MQTT_OK/GD32VW55X_Wifi_BLE_SDK/GD32VW55x_RELEASE_V1.0.2/MSDK/plf/GD32VW55x_standard_peripheral/Source\gd32vw55x_fmc.c **** /*!
 616:C:/Users/stapi/OneDrive/Desktop/GD32VW553/V1_MQTT_OK/GD32VW55X_Wifi_BLE_SDK/GD32VW55x_RELEASE_V1.0.2/MSDK/plf/GD32VW55x_standard_peripheral/Source\gd32vw55x_fmc.c ****     \brief      enable FMC interrupt
 617:C:/Users/stapi/OneDrive/Desktop/GD32VW553/V1_MQTT_OK/GD32VW55X_Wifi_BLE_SDK/GD32VW55x_RELEASE_V1.0.2/MSDK/plf/GD32VW55x_standard_peripheral/Source\gd32vw55x_fmc.c ****     \param[in]  interrupt: the FMC interrupt
 618:C:/Users/stapi/OneDrive/Desktop/GD32VW553/V1_MQTT_OK/GD32VW55X_Wifi_BLE_SDK/GD32VW55x_RELEASE_V1.0.2/MSDK/plf/GD32VW55x_standard_peripheral/Source\gd32vw55x_fmc.c ****                 only one parameter can be selected which is shown as below:
 619:C:/Users/stapi/OneDrive/Desktop/GD32VW553/V1_MQTT_OK/GD32VW55X_Wifi_BLE_SDK/GD32VW55x_RELEASE_V1.0.2/MSDK/plf/GD32VW55x_standard_peripheral/Source\gd32vw55x_fmc.c ****       \arg        FMC_INT_END: FMC end of operation interrupt
 620:C:/Users/stapi/OneDrive/Desktop/GD32VW553/V1_MQTT_OK/GD32VW55X_Wifi_BLE_SDK/GD32VW55x_RELEASE_V1.0.2/MSDK/plf/GD32VW55x_standard_peripheral/Source\gd32vw55x_fmc.c ****       \arg        FMC_INT_ERR: FMC error interrupt
 621:C:/Users/stapi/OneDrive/Desktop/GD32VW553/V1_MQTT_OK/GD32VW55X_Wifi_BLE_SDK/GD32VW55x_RELEASE_V1.0.2/MSDK/plf/GD32VW55x_standard_peripheral/Source\gd32vw55x_fmc.c ****     \param[out] none
 622:C:/Users/stapi/OneDrive/Desktop/GD32VW553/V1_MQTT_OK/GD32VW55X_Wifi_BLE_SDK/GD32VW55x_RELEASE_V1.0.2/MSDK/plf/GD32VW55x_standard_peripheral/Source\gd32vw55x_fmc.c ****     \retval     none
 623:C:/Users/stapi/OneDrive/Desktop/GD32VW553/V1_MQTT_OK/GD32VW55X_Wifi_BLE_SDK/GD32VW55x_RELEASE_V1.0.2/MSDK/plf/GD32VW55x_standard_peripheral/Source\gd32vw55x_fmc.c **** */
 624:C:/Users/stapi/OneDrive/Desktop/GD32VW553/V1_MQTT_OK/GD32VW55X_Wifi_BLE_SDK/GD32VW55x_RELEASE_V1.0.2/MSDK/plf/GD32VW55x_standard_peripheral/Source\gd32vw55x_fmc.c **** void fmc_interrupt_enable(uint32_t interrupt)
 625:C:/Users/stapi/OneDrive/Desktop/GD32VW553/V1_MQTT_OK/GD32VW55X_Wifi_BLE_SDK/GD32VW55x_RELEASE_V1.0.2/MSDK/plf/GD32VW55x_standard_peripheral/Source\gd32vw55x_fmc.c **** {
 630              		.loc 1 625 1 is_stmt 1
 631              		.cfi_startproc
 632              	.LVL44:
 626:C:/Users/stapi/OneDrive/Desktop/GD32VW553/V1_MQTT_OK/GD32VW55X_Wifi_BLE_SDK/GD32VW55x_RELEASE_V1.0.2/MSDK/plf/GD32VW55x_standard_peripheral/Source\gd32vw55x_fmc.c ****     FMC_CTL |= interrupt;
 633              		.loc 1 626 5
 634              		.loc 1 626 13 is_stmt 0
 635 0000 37270240 		li	a4,1073881088
 636 0004 1C4B     		lw	a5,16(a4)
 637 0006 C98F     		or	a5,a5,a0
 638 0008 1CCB     		sw	a5,16(a4)
 627:C:/Users/stapi/OneDrive/Desktop/GD32VW553/V1_MQTT_OK/GD32VW55X_Wifi_BLE_SDK/GD32VW55x_RELEASE_V1.0.2/MSDK/plf/GD32VW55x_standard_peripheral/Source\gd32vw55x_fmc.c **** }
 639              		.loc 1 627 1
 640 000a 8280     		ret
 641              		.cfi_endproc
 642              	.LFE392:
 644              		.section	.text.fmc_interrupt_disable,"ax",@progbits
 645              		.align	1
 646              		.globl	fmc_interrupt_disable
 648              	fmc_interrupt_disable:
 649              	.LFB393:
 628:C:/Users/stapi/OneDrive/Desktop/GD32VW553/V1_MQTT_OK/GD32VW55X_Wifi_BLE_SDK/GD32VW55x_RELEASE_V1.0.2/MSDK/plf/GD32VW55x_standard_peripheral/Source\gd32vw55x_fmc.c **** 
 629:C:/Users/stapi/OneDrive/Desktop/GD32VW553/V1_MQTT_OK/GD32VW55X_Wifi_BLE_SDK/GD32VW55x_RELEASE_V1.0.2/MSDK/plf/GD32VW55x_standard_peripheral/Source\gd32vw55x_fmc.c **** /*!
 630:C:/Users/stapi/OneDrive/Desktop/GD32VW553/V1_MQTT_OK/GD32VW55X_Wifi_BLE_SDK/GD32VW55x_RELEASE_V1.0.2/MSDK/plf/GD32VW55x_standard_peripheral/Source\gd32vw55x_fmc.c ****     \brief      disable FMC interrupt
 631:C:/Users/stapi/OneDrive/Desktop/GD32VW553/V1_MQTT_OK/GD32VW55X_Wifi_BLE_SDK/GD32VW55x_RELEASE_V1.0.2/MSDK/plf/GD32VW55x_standard_peripheral/Source\gd32vw55x_fmc.c ****     \param[in]  interrupt: the FMC interrupt
 632:C:/Users/stapi/OneDrive/Desktop/GD32VW553/V1_MQTT_OK/GD32VW55X_Wifi_BLE_SDK/GD32VW55x_RELEASE_V1.0.2/MSDK/plf/GD32VW55x_standard_peripheral/Source\gd32vw55x_fmc.c ****                 only one parameter can be selected which is shown as below:
 633:C:/Users/stapi/OneDrive/Desktop/GD32VW553/V1_MQTT_OK/GD32VW55X_Wifi_BLE_SDK/GD32VW55x_RELEASE_V1.0.2/MSDK/plf/GD32VW55x_standard_peripheral/Source\gd32vw55x_fmc.c ****       \arg        FMC_INT_END: FMC end of operation interrupt
 634:C:/Users/stapi/OneDrive/Desktop/GD32VW553/V1_MQTT_OK/GD32VW55X_Wifi_BLE_SDK/GD32VW55x_RELEASE_V1.0.2/MSDK/plf/GD32VW55x_standard_peripheral/Source\gd32vw55x_fmc.c ****       \arg        FMC_INT_ERR: FMC error interrupt
 635:C:/Users/stapi/OneDrive/Desktop/GD32VW553/V1_MQTT_OK/GD32VW55X_Wifi_BLE_SDK/GD32VW55x_RELEASE_V1.0.2/MSDK/plf/GD32VW55x_standard_peripheral/Source\gd32vw55x_fmc.c ****     \param[out] none
 636:C:/Users/stapi/OneDrive/Desktop/GD32VW553/V1_MQTT_OK/GD32VW55X_Wifi_BLE_SDK/GD32VW55x_RELEASE_V1.0.2/MSDK/plf/GD32VW55x_standard_peripheral/Source\gd32vw55x_fmc.c ****     \retval     none
 637:C:/Users/stapi/OneDrive/Desktop/GD32VW553/V1_MQTT_OK/GD32VW55X_Wifi_BLE_SDK/GD32VW55x_RELEASE_V1.0.2/MSDK/plf/GD32VW55x_standard_peripheral/Source\gd32vw55x_fmc.c **** */
 638:C:/Users/stapi/OneDrive/Desktop/GD32VW553/V1_MQTT_OK/GD32VW55X_Wifi_BLE_SDK/GD32VW55x_RELEASE_V1.0.2/MSDK/plf/GD32VW55x_standard_peripheral/Source\gd32vw55x_fmc.c **** void fmc_interrupt_disable(uint32_t interrupt)
 639:C:/Users/stapi/OneDrive/Desktop/GD32VW553/V1_MQTT_OK/GD32VW55X_Wifi_BLE_SDK/GD32VW55x_RELEASE_V1.0.2/MSDK/plf/GD32VW55x_standard_peripheral/Source\gd32vw55x_fmc.c **** {
 650              		.loc 1 639 1 is_stmt 1
 651              		.cfi_startproc
 652              	.LVL45:
 640:C:/Users/stapi/OneDrive/Desktop/GD32VW553/V1_MQTT_OK/GD32VW55X_Wifi_BLE_SDK/GD32VW55x_RELEASE_V1.0.2/MSDK/plf/GD32VW55x_standard_peripheral/Source\gd32vw55x_fmc.c ****     FMC_CTL &= ~(uint32_t) interrupt;
 653              		.loc 1 640 5
 654              		.loc 1 640 13 is_stmt 0
 655 0000 B7270240 		li	a5,1073881088
 656 0004 984B     		lw	a4,16(a5)
 657 0006 3375A740 		andn	a0,a4,a0
 658              	.LVL46:
 659 000a 88CB     		sw	a0,16(a5)
 641:C:/Users/stapi/OneDrive/Desktop/GD32VW553/V1_MQTT_OK/GD32VW55X_Wifi_BLE_SDK/GD32VW55x_RELEASE_V1.0.2/MSDK/plf/GD32VW55x_standard_peripheral/Source\gd32vw55x_fmc.c **** }
 660              		.loc 1 641 1
 661 000c 8280     		ret
 662              		.cfi_endproc
 663              	.LFE393:
 665              		.section	.text.fmc_interrupt_flag_get,"ax",@progbits
 666              		.align	1
 667              		.globl	fmc_interrupt_flag_get
 669              	fmc_interrupt_flag_get:
 670              	.LFB400:
 671              		.cfi_startproc
 672 0000 17030000 		tail	fmc_flag_get
 672      67000300 
 673              		.cfi_endproc
 674              	.LFE400:
 676              		.section	.text.fmc_interrupt_flag_clear,"ax",@progbits
 677              		.align	1
 678              		.globl	fmc_interrupt_flag_clear
 680              	fmc_interrupt_flag_clear:
 681              	.LFB402:
 682              		.cfi_startproc
 683 0000 B7270240 		li	a5,1073881088
 684 0004 C8C7     		sw	a0,12(a5)
 685 0006 8280     		ret
 686              		.cfi_endproc
 687              	.LFE402:
 689              		.section	.text.fmc_state_get,"ax",@progbits
 690              		.align	1
 691              		.globl	fmc_state_get
 693              	fmc_state_get:
 694              	.LFB396:
 642:C:/Users/stapi/OneDrive/Desktop/GD32VW553/V1_MQTT_OK/GD32VW55X_Wifi_BLE_SDK/GD32VW55x_RELEASE_V1.0.2/MSDK/plf/GD32VW55x_standard_peripheral/Source\gd32vw55x_fmc.c **** 
 643:C:/Users/stapi/OneDrive/Desktop/GD32VW553/V1_MQTT_OK/GD32VW55X_Wifi_BLE_SDK/GD32VW55x_RELEASE_V1.0.2/MSDK/plf/GD32VW55x_standard_peripheral/Source\gd32vw55x_fmc.c **** /*!
 644:C:/Users/stapi/OneDrive/Desktop/GD32VW553/V1_MQTT_OK/GD32VW55X_Wifi_BLE_SDK/GD32VW55x_RELEASE_V1.0.2/MSDK/plf/GD32VW55x_standard_peripheral/Source\gd32vw55x_fmc.c ****     \brief      get FMC interrupt flag
 645:C:/Users/stapi/OneDrive/Desktop/GD32VW553/V1_MQTT_OK/GD32VW55X_Wifi_BLE_SDK/GD32VW55x_RELEASE_V1.0.2/MSDK/plf/GD32VW55x_standard_peripheral/Source\gd32vw55x_fmc.c ****     \param[in]  flag: FMC interrupt flag
 646:C:/Users/stapi/OneDrive/Desktop/GD32VW553/V1_MQTT_OK/GD32VW55X_Wifi_BLE_SDK/GD32VW55x_RELEASE_V1.0.2/MSDK/plf/GD32VW55x_standard_peripheral/Source\gd32vw55x_fmc.c ****                 only one parameter can be selected which is shown as below:
 647:C:/Users/stapi/OneDrive/Desktop/GD32VW553/V1_MQTT_OK/GD32VW55X_Wifi_BLE_SDK/GD32VW55x_RELEASE_V1.0.2/MSDK/plf/GD32VW55x_standard_peripheral/Source\gd32vw55x_fmc.c ****       \arg        FMC_INT_FLAG_WPERR: FMC erase/program protection error interrupt flag
 648:C:/Users/stapi/OneDrive/Desktop/GD32VW553/V1_MQTT_OK/GD32VW55X_Wifi_BLE_SDK/GD32VW55x_RELEASE_V1.0.2/MSDK/plf/GD32VW55x_standard_peripheral/Source\gd32vw55x_fmc.c ****       \arg        FMC_INT_FLAG_END: FMC end of operation interrupt flag
 649:C:/Users/stapi/OneDrive/Desktop/GD32VW553/V1_MQTT_OK/GD32VW55X_Wifi_BLE_SDK/GD32VW55x_RELEASE_V1.0.2/MSDK/plf/GD32VW55x_standard_peripheral/Source\gd32vw55x_fmc.c ****     \param[out] none
 650:C:/Users/stapi/OneDrive/Desktop/GD32VW553/V1_MQTT_OK/GD32VW55X_Wifi_BLE_SDK/GD32VW55x_RELEASE_V1.0.2/MSDK/plf/GD32VW55x_standard_peripheral/Source\gd32vw55x_fmc.c ****     \retval     FlagStatus: SET or RESET
 651:C:/Users/stapi/OneDrive/Desktop/GD32VW553/V1_MQTT_OK/GD32VW55X_Wifi_BLE_SDK/GD32VW55x_RELEASE_V1.0.2/MSDK/plf/GD32VW55x_standard_peripheral/Source\gd32vw55x_fmc.c **** */
 652:C:/Users/stapi/OneDrive/Desktop/GD32VW553/V1_MQTT_OK/GD32VW55X_Wifi_BLE_SDK/GD32VW55x_RELEASE_V1.0.2/MSDK/plf/GD32VW55x_standard_peripheral/Source\gd32vw55x_fmc.c **** FlagStatus fmc_interrupt_flag_get(uint32_t flag)
 653:C:/Users/stapi/OneDrive/Desktop/GD32VW553/V1_MQTT_OK/GD32VW55X_Wifi_BLE_SDK/GD32VW55x_RELEASE_V1.0.2/MSDK/plf/GD32VW55x_standard_peripheral/Source\gd32vw55x_fmc.c **** {
 654:C:/Users/stapi/OneDrive/Desktop/GD32VW553/V1_MQTT_OK/GD32VW55X_Wifi_BLE_SDK/GD32VW55x_RELEASE_V1.0.2/MSDK/plf/GD32VW55x_standard_peripheral/Source\gd32vw55x_fmc.c ****     FlagStatus status = RESET;
 655:C:/Users/stapi/OneDrive/Desktop/GD32VW553/V1_MQTT_OK/GD32VW55X_Wifi_BLE_SDK/GD32VW55x_RELEASE_V1.0.2/MSDK/plf/GD32VW55x_standard_peripheral/Source\gd32vw55x_fmc.c **** 
 656:C:/Users/stapi/OneDrive/Desktop/GD32VW553/V1_MQTT_OK/GD32VW55X_Wifi_BLE_SDK/GD32VW55x_RELEASE_V1.0.2/MSDK/plf/GD32VW55x_standard_peripheral/Source\gd32vw55x_fmc.c ****     if(FMC_STAT & flag){
 657:C:/Users/stapi/OneDrive/Desktop/GD32VW553/V1_MQTT_OK/GD32VW55X_Wifi_BLE_SDK/GD32VW55x_RELEASE_V1.0.2/MSDK/plf/GD32VW55x_standard_peripheral/Source\gd32vw55x_fmc.c ****         status = SET;
 658:C:/Users/stapi/OneDrive/Desktop/GD32VW553/V1_MQTT_OK/GD32VW55X_Wifi_BLE_SDK/GD32VW55x_RELEASE_V1.0.2/MSDK/plf/GD32VW55x_standard_peripheral/Source\gd32vw55x_fmc.c ****     }
 659:C:/Users/stapi/OneDrive/Desktop/GD32VW553/V1_MQTT_OK/GD32VW55X_Wifi_BLE_SDK/GD32VW55x_RELEASE_V1.0.2/MSDK/plf/GD32VW55x_standard_peripheral/Source\gd32vw55x_fmc.c ****     /* return the state of corresponding FMC flag */
 660:C:/Users/stapi/OneDrive/Desktop/GD32VW553/V1_MQTT_OK/GD32VW55X_Wifi_BLE_SDK/GD32VW55x_RELEASE_V1.0.2/MSDK/plf/GD32VW55x_standard_peripheral/Source\gd32vw55x_fmc.c ****     return status;
 661:C:/Users/stapi/OneDrive/Desktop/GD32VW553/V1_MQTT_OK/GD32VW55X_Wifi_BLE_SDK/GD32VW55x_RELEASE_V1.0.2/MSDK/plf/GD32VW55x_standard_peripheral/Source\gd32vw55x_fmc.c **** }
 662:C:/Users/stapi/OneDrive/Desktop/GD32VW553/V1_MQTT_OK/GD32VW55X_Wifi_BLE_SDK/GD32VW55x_RELEASE_V1.0.2/MSDK/plf/GD32VW55x_standard_peripheral/Source\gd32vw55x_fmc.c **** 
 663:C:/Users/stapi/OneDrive/Desktop/GD32VW553/V1_MQTT_OK/GD32VW55X_Wifi_BLE_SDK/GD32VW55x_RELEASE_V1.0.2/MSDK/plf/GD32VW55x_standard_peripheral/Source\gd32vw55x_fmc.c **** /*!
 664:C:/Users/stapi/OneDrive/Desktop/GD32VW553/V1_MQTT_OK/GD32VW55X_Wifi_BLE_SDK/GD32VW55x_RELEASE_V1.0.2/MSDK/plf/GD32VW55x_standard_peripheral/Source\gd32vw55x_fmc.c ****     \brief      clear FMC interrupt flag
 665:C:/Users/stapi/OneDrive/Desktop/GD32VW553/V1_MQTT_OK/GD32VW55X_Wifi_BLE_SDK/GD32VW55x_RELEASE_V1.0.2/MSDK/plf/GD32VW55x_standard_peripheral/Source\gd32vw55x_fmc.c ****     \param[in]  flag: FMC interrupt flag
 666:C:/Users/stapi/OneDrive/Desktop/GD32VW553/V1_MQTT_OK/GD32VW55X_Wifi_BLE_SDK/GD32VW55x_RELEASE_V1.0.2/MSDK/plf/GD32VW55x_standard_peripheral/Source\gd32vw55x_fmc.c ****                 only one parameter can be selected which is shown as below:
 667:C:/Users/stapi/OneDrive/Desktop/GD32VW553/V1_MQTT_OK/GD32VW55X_Wifi_BLE_SDK/GD32VW55x_RELEASE_V1.0.2/MSDK/plf/GD32VW55x_standard_peripheral/Source\gd32vw55x_fmc.c ****       \arg        FMC_INT_FLAG_WPERR: FMC erase/program protection error interrupt flag
 668:C:/Users/stapi/OneDrive/Desktop/GD32VW553/V1_MQTT_OK/GD32VW55X_Wifi_BLE_SDK/GD32VW55x_RELEASE_V1.0.2/MSDK/plf/GD32VW55x_standard_peripheral/Source\gd32vw55x_fmc.c ****       \arg        FMC_INT_FLAG_END: FMC end of operation interrupt flag
 669:C:/Users/stapi/OneDrive/Desktop/GD32VW553/V1_MQTT_OK/GD32VW55X_Wifi_BLE_SDK/GD32VW55x_RELEASE_V1.0.2/MSDK/plf/GD32VW55x_standard_peripheral/Source\gd32vw55x_fmc.c ****     \param[out] none
 670:C:/Users/stapi/OneDrive/Desktop/GD32VW553/V1_MQTT_OK/GD32VW55X_Wifi_BLE_SDK/GD32VW55x_RELEASE_V1.0.2/MSDK/plf/GD32VW55x_standard_peripheral/Source\gd32vw55x_fmc.c ****     \retval     none
 671:C:/Users/stapi/OneDrive/Desktop/GD32VW553/V1_MQTT_OK/GD32VW55X_Wifi_BLE_SDK/GD32VW55x_RELEASE_V1.0.2/MSDK/plf/GD32VW55x_standard_peripheral/Source\gd32vw55x_fmc.c **** */
 672:C:/Users/stapi/OneDrive/Desktop/GD32VW553/V1_MQTT_OK/GD32VW55X_Wifi_BLE_SDK/GD32VW55x_RELEASE_V1.0.2/MSDK/plf/GD32VW55x_standard_peripheral/Source\gd32vw55x_fmc.c **** void fmc_interrupt_flag_clear(uint32_t flag)
 673:C:/Users/stapi/OneDrive/Desktop/GD32VW553/V1_MQTT_OK/GD32VW55X_Wifi_BLE_SDK/GD32VW55x_RELEASE_V1.0.2/MSDK/plf/GD32VW55x_standard_peripheral/Source\gd32vw55x_fmc.c **** {
 674:C:/Users/stapi/OneDrive/Desktop/GD32VW553/V1_MQTT_OK/GD32VW55X_Wifi_BLE_SDK/GD32VW55x_RELEASE_V1.0.2/MSDK/plf/GD32VW55x_standard_peripheral/Source\gd32vw55x_fmc.c ****     /* clear the flag */
 675:C:/Users/stapi/OneDrive/Desktop/GD32VW553/V1_MQTT_OK/GD32VW55X_Wifi_BLE_SDK/GD32VW55x_RELEASE_V1.0.2/MSDK/plf/GD32VW55x_standard_peripheral/Source\gd32vw55x_fmc.c ****     FMC_STAT = flag;
 676:C:/Users/stapi/OneDrive/Desktop/GD32VW553/V1_MQTT_OK/GD32VW55X_Wifi_BLE_SDK/GD32VW55x_RELEASE_V1.0.2/MSDK/plf/GD32VW55x_standard_peripheral/Source\gd32vw55x_fmc.c **** }
 677:C:/Users/stapi/OneDrive/Desktop/GD32VW553/V1_MQTT_OK/GD32VW55X_Wifi_BLE_SDK/GD32VW55x_RELEASE_V1.0.2/MSDK/plf/GD32VW55x_standard_peripheral/Source\gd32vw55x_fmc.c **** 
 678:C:/Users/stapi/OneDrive/Desktop/GD32VW553/V1_MQTT_OK/GD32VW55X_Wifi_BLE_SDK/GD32VW55x_RELEASE_V1.0.2/MSDK/plf/GD32VW55x_standard_peripheral/Source\gd32vw55x_fmc.c **** /*!
 679:C:/Users/stapi/OneDrive/Desktop/GD32VW553/V1_MQTT_OK/GD32VW55X_Wifi_BLE_SDK/GD32VW55x_RELEASE_V1.0.2/MSDK/plf/GD32VW55x_standard_peripheral/Source\gd32vw55x_fmc.c ****     \brief      get the FMC state
 680:C:/Users/stapi/OneDrive/Desktop/GD32VW553/V1_MQTT_OK/GD32VW55X_Wifi_BLE_SDK/GD32VW55x_RELEASE_V1.0.2/MSDK/plf/GD32VW55x_standard_peripheral/Source\gd32vw55x_fmc.c ****     \param[in]  none
 681:C:/Users/stapi/OneDrive/Desktop/GD32VW553/V1_MQTT_OK/GD32VW55X_Wifi_BLE_SDK/GD32VW55x_RELEASE_V1.0.2/MSDK/plf/GD32VW55x_standard_peripheral/Source\gd32vw55x_fmc.c ****     \param[out] none
 682:C:/Users/stapi/OneDrive/Desktop/GD32VW553/V1_MQTT_OK/GD32VW55X_Wifi_BLE_SDK/GD32VW55x_RELEASE_V1.0.2/MSDK/plf/GD32VW55x_standard_peripheral/Source\gd32vw55x_fmc.c ****     \retval     state of FMC
 683:C:/Users/stapi/OneDrive/Desktop/GD32VW553/V1_MQTT_OK/GD32VW55X_Wifi_BLE_SDK/GD32VW55x_RELEASE_V1.0.2/MSDK/plf/GD32VW55x_standard_peripheral/Source\gd32vw55x_fmc.c ****       \arg        FMC_READY: the operation has been completed
 684:C:/Users/stapi/OneDrive/Desktop/GD32VW553/V1_MQTT_OK/GD32VW55X_Wifi_BLE_SDK/GD32VW55x_RELEASE_V1.0.2/MSDK/plf/GD32VW55x_standard_peripheral/Source\gd32vw55x_fmc.c ****       \arg        FMC_BUSY: the operation is in progress
 685:C:/Users/stapi/OneDrive/Desktop/GD32VW553/V1_MQTT_OK/GD32VW55X_Wifi_BLE_SDK/GD32VW55x_RELEASE_V1.0.2/MSDK/plf/GD32VW55x_standard_peripheral/Source\gd32vw55x_fmc.c ****       \arg        FMC_WPERR: erase/program protection error
 686:C:/Users/stapi/OneDrive/Desktop/GD32VW553/V1_MQTT_OK/GD32VW55X_Wifi_BLE_SDK/GD32VW55x_RELEASE_V1.0.2/MSDK/plf/GD32VW55x_standard_peripheral/Source\gd32vw55x_fmc.c **** */
 687:C:/Users/stapi/OneDrive/Desktop/GD32VW553/V1_MQTT_OK/GD32VW55X_Wifi_BLE_SDK/GD32VW55x_RELEASE_V1.0.2/MSDK/plf/GD32VW55x_standard_peripheral/Source\gd32vw55x_fmc.c **** fmc_state_enum fmc_state_get(void)
 688:C:/Users/stapi/OneDrive/Desktop/GD32VW553/V1_MQTT_OK/GD32VW55X_Wifi_BLE_SDK/GD32VW55x_RELEASE_V1.0.2/MSDK/plf/GD32VW55x_standard_peripheral/Source\gd32vw55x_fmc.c **** {
 695              		.loc 1 688 1 is_stmt 1
 696              		.cfi_startproc
 689:C:/Users/stapi/OneDrive/Desktop/GD32VW553/V1_MQTT_OK/GD32VW55X_Wifi_BLE_SDK/GD32VW55x_RELEASE_V1.0.2/MSDK/plf/GD32VW55x_standard_peripheral/Source\gd32vw55x_fmc.c ****     fmc_state_enum fmc_state = FMC_READY;
 697              		.loc 1 689 5
 698              	.LVL47:
 690:C:/Users/stapi/OneDrive/Desktop/GD32VW553/V1_MQTT_OK/GD32VW55X_Wifi_BLE_SDK/GD32VW55x_RELEASE_V1.0.2/MSDK/plf/GD32VW55x_standard_peripheral/Source\gd32vw55x_fmc.c **** 
 691:C:/Users/stapi/OneDrive/Desktop/GD32VW553/V1_MQTT_OK/GD32VW55X_Wifi_BLE_SDK/GD32VW55x_RELEASE_V1.0.2/MSDK/plf/GD32VW55x_standard_peripheral/Source\gd32vw55x_fmc.c ****     if ((uint32_t) 0x00U != (FMC_STAT & FMC_STAT_BUSY)) {
 699              		.loc 1 691 5
 700              		.loc 1 691 30 is_stmt 0
 701 0000 B7270240 		li	a5,1073881088
 702 0004 C847     		lw	a0,12(a5)
 703              		.loc 1 691 39
 704 0006 0589     		andi	a0,a0,1
 705              		.loc 1 691 8
 706 0008 09E5     		bne	a0,zero,.L42
 707              	.LBB4:
 708              	.LBB5:
 692:C:/Users/stapi/OneDrive/Desktop/GD32VW553/V1_MQTT_OK/GD32VW55X_Wifi_BLE_SDK/GD32VW55x_RELEASE_V1.0.2/MSDK/plf/GD32VW55x_standard_peripheral/Source\gd32vw55x_fmc.c ****         fmc_state = FMC_BUSY;
 693:C:/Users/stapi/OneDrive/Desktop/GD32VW553/V1_MQTT_OK/GD32VW55X_Wifi_BLE_SDK/GD32VW55x_RELEASE_V1.0.2/MSDK/plf/GD32VW55x_standard_peripheral/Source\gd32vw55x_fmc.c ****     } else {
 694:C:/Users/stapi/OneDrive/Desktop/GD32VW553/V1_MQTT_OK/GD32VW55X_Wifi_BLE_SDK/GD32VW55x_RELEASE_V1.0.2/MSDK/plf/GD32VW55x_standard_peripheral/Source\gd32vw55x_fmc.c ****         if ((uint32_t) 0x00U != (FMC_STAT & FMC_STAT_WPERR)) {
 709              		.loc 1 694 9 is_stmt 1
 710              		.loc 1 694 34 is_stmt 0
 711 000a C847     		lw	a0,12(a5)
 712              		.loc 1 694 43
 713 000c 4189     		andi	a0,a0,16
 714              		.loc 1 694 12
 715 000e 11C1     		beq	a0,zero,.L42
 695:C:/Users/stapi/OneDrive/Desktop/GD32VW553/V1_MQTT_OK/GD32VW55X_Wifi_BLE_SDK/GD32VW55x_RELEASE_V1.0.2/MSDK/plf/GD32VW55x_standard_peripheral/Source\gd32vw55x_fmc.c ****             fmc_state = FMC_WPERR;
 716              		.loc 1 695 23
 717 0010 0945     		li	a0,2
 718              	.LVL48:
 719              	.LBE5:
 720              	.LBE4:
 696:C:/Users/stapi/OneDrive/Desktop/GD32VW553/V1_MQTT_OK/GD32VW55X_Wifi_BLE_SDK/GD32VW55x_RELEASE_V1.0.2/MSDK/plf/GD32VW55x_standard_peripheral/Source\gd32vw55x_fmc.c ****         }
 697:C:/Users/stapi/OneDrive/Desktop/GD32VW553/V1_MQTT_OK/GD32VW55X_Wifi_BLE_SDK/GD32VW55x_RELEASE_V1.0.2/MSDK/plf/GD32VW55x_standard_peripheral/Source\gd32vw55x_fmc.c ****     }
 698:C:/Users/stapi/OneDrive/Desktop/GD32VW553/V1_MQTT_OK/GD32VW55X_Wifi_BLE_SDK/GD32VW55x_RELEASE_V1.0.2/MSDK/plf/GD32VW55x_standard_peripheral/Source\gd32vw55x_fmc.c ****     /* return the FMC state */
 699:C:/Users/stapi/OneDrive/Desktop/GD32VW553/V1_MQTT_OK/GD32VW55X_Wifi_BLE_SDK/GD32VW55x_RELEASE_V1.0.2/MSDK/plf/GD32VW55x_standard_peripheral/Source\gd32vw55x_fmc.c ****     return fmc_state;
 721              		.loc 1 699 5 is_stmt 1
 722              	.L42:
 700:C:/Users/stapi/OneDrive/Desktop/GD32VW553/V1_MQTT_OK/GD32VW55X_Wifi_BLE_SDK/GD32VW55x_RELEASE_V1.0.2/MSDK/plf/GD32VW55x_standard_peripheral/Source\gd32vw55x_fmc.c **** }
 723              		.loc 1 700 1 is_stmt 0
 724 0012 8280     		ret
 725              		.cfi_endproc
 726              	.LFE396:
 728              		.section	.text.fmc_ready_wait,"ax",@progbits
 729              		.align	1
 730              		.globl	fmc_ready_wait
 732              	fmc_ready_wait:
 733              	.LFB397:
 701:C:/Users/stapi/OneDrive/Desktop/GD32VW553/V1_MQTT_OK/GD32VW55X_Wifi_BLE_SDK/GD32VW55x_RELEASE_V1.0.2/MSDK/plf/GD32VW55x_standard_peripheral/Source\gd32vw55x_fmc.c **** 
 702:C:/Users/stapi/OneDrive/Desktop/GD32VW553/V1_MQTT_OK/GD32VW55X_Wifi_BLE_SDK/GD32VW55x_RELEASE_V1.0.2/MSDK/plf/GD32VW55x_standard_peripheral/Source\gd32vw55x_fmc.c **** /*!
 703:C:/Users/stapi/OneDrive/Desktop/GD32VW553/V1_MQTT_OK/GD32VW55X_Wifi_BLE_SDK/GD32VW55x_RELEASE_V1.0.2/MSDK/plf/GD32VW55x_standard_peripheral/Source\gd32vw55x_fmc.c ****     \brief      check whether FMC is ready or not
 704:C:/Users/stapi/OneDrive/Desktop/GD32VW553/V1_MQTT_OK/GD32VW55X_Wifi_BLE_SDK/GD32VW55x_RELEASE_V1.0.2/MSDK/plf/GD32VW55x_standard_peripheral/Source\gd32vw55x_fmc.c ****     \param[in]  timeout: timeout count
 705:C:/Users/stapi/OneDrive/Desktop/GD32VW553/V1_MQTT_OK/GD32VW55X_Wifi_BLE_SDK/GD32VW55x_RELEASE_V1.0.2/MSDK/plf/GD32VW55x_standard_peripheral/Source\gd32vw55x_fmc.c ****     \param[out] none
 706:C:/Users/stapi/OneDrive/Desktop/GD32VW553/V1_MQTT_OK/GD32VW55X_Wifi_BLE_SDK/GD32VW55x_RELEASE_V1.0.2/MSDK/plf/GD32VW55x_standard_peripheral/Source\gd32vw55x_fmc.c ****     \retval     state of FMC
 707:C:/Users/stapi/OneDrive/Desktop/GD32VW553/V1_MQTT_OK/GD32VW55X_Wifi_BLE_SDK/GD32VW55x_RELEASE_V1.0.2/MSDK/plf/GD32VW55x_standard_peripheral/Source\gd32vw55x_fmc.c ****       \arg        FMC_READY: the operation has been completed
 708:C:/Users/stapi/OneDrive/Desktop/GD32VW553/V1_MQTT_OK/GD32VW55X_Wifi_BLE_SDK/GD32VW55x_RELEASE_V1.0.2/MSDK/plf/GD32VW55x_standard_peripheral/Source\gd32vw55x_fmc.c ****       \arg        FMC_WPERR: erase/program protection error
 709:C:/Users/stapi/OneDrive/Desktop/GD32VW553/V1_MQTT_OK/GD32VW55X_Wifi_BLE_SDK/GD32VW55x_RELEASE_V1.0.2/MSDK/plf/GD32VW55x_standard_peripheral/Source\gd32vw55x_fmc.c ****       \arg        FMC_TOERR: timeout error
 710:C:/Users/stapi/OneDrive/Desktop/GD32VW553/V1_MQTT_OK/GD32VW55X_Wifi_BLE_SDK/GD32VW55x_RELEASE_V1.0.2/MSDK/plf/GD32VW55x_standard_peripheral/Source\gd32vw55x_fmc.c **** */
 711:C:/Users/stapi/OneDrive/Desktop/GD32VW553/V1_MQTT_OK/GD32VW55X_Wifi_BLE_SDK/GD32VW55x_RELEASE_V1.0.2/MSDK/plf/GD32VW55x_standard_peripheral/Source\gd32vw55x_fmc.c **** fmc_state_enum fmc_ready_wait(uint32_t timeout)
 712:C:/Users/stapi/OneDrive/Desktop/GD32VW553/V1_MQTT_OK/GD32VW55X_Wifi_BLE_SDK/GD32VW55x_RELEASE_V1.0.2/MSDK/plf/GD32VW55x_standard_peripheral/Source\gd32vw55x_fmc.c **** {
 734              		.loc 1 712 1 is_stmt 1
 735              		.cfi_startproc
 736              	.LVL49:
 737 0000 17030000 		call	t0,__riscv_save_2
 737      E7020300 
 738              		.cfi_offset 9, -12
 739              		.cfi_offset 8, -8
 740              		.cfi_offset 1, -4
 741              		.cfi_def_cfa_offset 16
 713:C:/Users/stapi/OneDrive/Desktop/GD32VW553/V1_MQTT_OK/GD32VW55X_Wifi_BLE_SDK/GD32VW55x_RELEASE_V1.0.2/MSDK/plf/GD32VW55x_standard_peripheral/Source\gd32vw55x_fmc.c ****     fmc_state_enum fmc_state = FMC_BUSY;
 742              		.loc 1 713 5
 743              	.LVL50:
 712:C:/Users/stapi/OneDrive/Desktop/GD32VW553/V1_MQTT_OK/GD32VW55X_Wifi_BLE_SDK/GD32VW55x_RELEASE_V1.0.2/MSDK/plf/GD32VW55x_standard_peripheral/Source\gd32vw55x_fmc.c ****     fmc_state_enum fmc_state = FMC_BUSY;
 744              		.loc 1 712 1 is_stmt 0
 745 0008 2A84     		mv	s0,a0
 714:C:/Users/stapi/OneDrive/Desktop/GD32VW553/V1_MQTT_OK/GD32VW55X_Wifi_BLE_SDK/GD32VW55x_RELEASE_V1.0.2/MSDK/plf/GD32VW55x_standard_peripheral/Source\gd32vw55x_fmc.c **** 
 715:C:/Users/stapi/OneDrive/Desktop/GD32VW553/V1_MQTT_OK/GD32VW55X_Wifi_BLE_SDK/GD32VW55x_RELEASE_V1.0.2/MSDK/plf/GD32VW55x_standard_peripheral/Source\gd32vw55x_fmc.c ****     /* wait for FMC ready */
 716:C:/Users/stapi/OneDrive/Desktop/GD32VW553/V1_MQTT_OK/GD32VW55X_Wifi_BLE_SDK/GD32VW55x_RELEASE_V1.0.2/MSDK/plf/GD32VW55x_standard_peripheral/Source\gd32vw55x_fmc.c ****     do {
 717:C:/Users/stapi/OneDrive/Desktop/GD32VW553/V1_MQTT_OK/GD32VW55X_Wifi_BLE_SDK/GD32VW55x_RELEASE_V1.0.2/MSDK/plf/GD32VW55x_standard_peripheral/Source\gd32vw55x_fmc.c ****         /* get FMC state */
 718:C:/Users/stapi/OneDrive/Desktop/GD32VW553/V1_MQTT_OK/GD32VW55X_Wifi_BLE_SDK/GD32VW55x_RELEASE_V1.0.2/MSDK/plf/GD32VW55x_standard_peripheral/Source\gd32vw55x_fmc.c ****         fmc_state = fmc_state_get();
 719:C:/Users/stapi/OneDrive/Desktop/GD32VW553/V1_MQTT_OK/GD32VW55X_Wifi_BLE_SDK/GD32VW55x_RELEASE_V1.0.2/MSDK/plf/GD32VW55x_standard_peripheral/Source\gd32vw55x_fmc.c ****         timeout--;
 720:C:/Users/stapi/OneDrive/Desktop/GD32VW553/V1_MQTT_OK/GD32VW55X_Wifi_BLE_SDK/GD32VW55x_RELEASE_V1.0.2/MSDK/plf/GD32VW55x_standard_peripheral/Source\gd32vw55x_fmc.c ****     } while((FMC_BUSY == fmc_state) && (0x00U != timeout));
 746              		.loc 1 720 5
 747 000a 8544     		li	s1,1
 748              	.LVL51:
 749              	.L49:
 716:C:/Users/stapi/OneDrive/Desktop/GD32VW553/V1_MQTT_OK/GD32VW55X_Wifi_BLE_SDK/GD32VW55x_RELEASE_V1.0.2/MSDK/plf/GD32VW55x_standard_peripheral/Source\gd32vw55x_fmc.c ****         /* get FMC state */
 750              		.loc 1 716 5 is_stmt 1 discriminator 2
 718:C:/Users/stapi/OneDrive/Desktop/GD32VW553/V1_MQTT_OK/GD32VW55X_Wifi_BLE_SDK/GD32VW55x_RELEASE_V1.0.2/MSDK/plf/GD32VW55x_standard_peripheral/Source\gd32vw55x_fmc.c ****         timeout--;
 751              		.loc 1 718 9 discriminator 2
 718:C:/Users/stapi/OneDrive/Desktop/GD32VW553/V1_MQTT_OK/GD32VW55X_Wifi_BLE_SDK/GD32VW55x_RELEASE_V1.0.2/MSDK/plf/GD32VW55x_standard_peripheral/Source\gd32vw55x_fmc.c ****         timeout--;
 752              		.loc 1 718 21 is_stmt 0 discriminator 2
 753 000c 97000000 		call	fmc_state_get
 753      E7800000 
 754              	.LVL52:
 719:C:/Users/stapi/OneDrive/Desktop/GD32VW553/V1_MQTT_OK/GD32VW55X_Wifi_BLE_SDK/GD32VW55x_RELEASE_V1.0.2/MSDK/plf/GD32VW55x_standard_peripheral/Source\gd32vw55x_fmc.c ****     } while((FMC_BUSY == fmc_state) && (0x00U != timeout));
 755              		.loc 1 719 9 is_stmt 1 discriminator 2
 719:C:/Users/stapi/OneDrive/Desktop/GD32VW553/V1_MQTT_OK/GD32VW55X_Wifi_BLE_SDK/GD32VW55x_RELEASE_V1.0.2/MSDK/plf/GD32VW55x_standard_peripheral/Source\gd32vw55x_fmc.c ****     } while((FMC_BUSY == fmc_state) && (0x00U != timeout));
 756              		.loc 1 719 16 is_stmt 0 discriminator 2
 757 0014 7D14     		addi	s0,s0,-1
 758              	.LVL53:
 759              		.loc 1 720 12 is_stmt 1 discriminator 2
 760              		.loc 1 720 5 is_stmt 0 discriminator 2
 761 0016 63149500 		bne	a0,s1,.L47
 762              		.loc 1 720 37 discriminator 1
 763 001a 6DF8     		bne	s0,zero,.L49
 721:C:/Users/stapi/OneDrive/Desktop/GD32VW553/V1_MQTT_OK/GD32VW55X_Wifi_BLE_SDK/GD32VW55x_RELEASE_V1.0.2/MSDK/plf/GD32VW55x_standard_peripheral/Source\gd32vw55x_fmc.c **** 
 722:C:/Users/stapi/OneDrive/Desktop/GD32VW553/V1_MQTT_OK/GD32VW55X_Wifi_BLE_SDK/GD32VW55x_RELEASE_V1.0.2/MSDK/plf/GD32VW55x_standard_peripheral/Source\gd32vw55x_fmc.c ****     if (FMC_BUSY == fmc_state) {
 723:C:/Users/stapi/OneDrive/Desktop/GD32VW553/V1_MQTT_OK/GD32VW55X_Wifi_BLE_SDK/GD32VW55x_RELEASE_V1.0.2/MSDK/plf/GD32VW55x_standard_peripheral/Source\gd32vw55x_fmc.c ****         fmc_state = FMC_TOERR;
 764              		.loc 1 723 19
 765 001c 0D45     		li	a0,3
 766              	.LVL54:
 724:C:/Users/stapi/OneDrive/Desktop/GD32VW553/V1_MQTT_OK/GD32VW55X_Wifi_BLE_SDK/GD32VW55x_RELEASE_V1.0.2/MSDK/plf/GD32VW55x_standard_peripheral/Source\gd32vw55x_fmc.c ****     }
 725:C:/Users/stapi/OneDrive/Desktop/GD32VW553/V1_MQTT_OK/GD32VW55X_Wifi_BLE_SDK/GD32VW55x_RELEASE_V1.0.2/MSDK/plf/GD32VW55x_standard_peripheral/Source\gd32vw55x_fmc.c **** 
 726:C:/Users/stapi/OneDrive/Desktop/GD32VW553/V1_MQTT_OK/GD32VW55X_Wifi_BLE_SDK/GD32VW55x_RELEASE_V1.0.2/MSDK/plf/GD32VW55x_standard_peripheral/Source\gd32vw55x_fmc.c ****     /* return the FMC state */
 727:C:/Users/stapi/OneDrive/Desktop/GD32VW553/V1_MQTT_OK/GD32VW55X_Wifi_BLE_SDK/GD32VW55x_RELEASE_V1.0.2/MSDK/plf/GD32VW55x_standard_peripheral/Source\gd32vw55x_fmc.c ****     return fmc_state;
 767              		.loc 1 727 5 is_stmt 1
 768              	.L47:
 728:C:/Users/stapi/OneDrive/Desktop/GD32VW553/V1_MQTT_OK/GD32VW55X_Wifi_BLE_SDK/GD32VW55x_RELEASE_V1.0.2/MSDK/plf/GD32VW55x_standard_peripheral/Source\gd32vw55x_fmc.c **** }
 769              		.loc 1 728 1 is_stmt 0
 770 001e 17030000 		tail	__riscv_restore_2
 770      67000300 
 771              		.cfi_restore 9
 772              		.cfi_restore 8
 773              		.cfi_restore 1
 774              		.cfi_def_cfa_offset 0
 775              		.cfi_endproc
 776              	.LFE397:
 778              		.section	.text.fmc_page_erase,"ax",@progbits
 779              		.align	1
 780              		.globl	fmc_page_erase
 782              	fmc_page_erase:
 783              	.LFB367:
  86:C:/Users/stapi/OneDrive/Desktop/GD32VW553/V1_MQTT_OK/GD32VW55X_Wifi_BLE_SDK/GD32VW55x_RELEASE_V1.0.2/MSDK/plf/GD32VW55x_standard_peripheral/Source\gd32vw55x_fmc.c ****     fmc_state_enum fmc_state = FMC_READY;
 784              		.loc 1 86 1 is_stmt 1
 785              		.cfi_startproc
 786              	.LVL55:
 787 0000 17030000 		call	t0,__riscv_save_2
 787      E7020300 
 788              		.cfi_offset 9, -12
 789              		.cfi_offset 8, -8
 790              		.cfi_offset 1, -4
 791              		.cfi_def_cfa_offset 16
  87:C:/Users/stapi/OneDrive/Desktop/GD32VW553/V1_MQTT_OK/GD32VW55X_Wifi_BLE_SDK/GD32VW55x_RELEASE_V1.0.2/MSDK/plf/GD32VW55x_standard_peripheral/Source\gd32vw55x_fmc.c **** 
 792              		.loc 1 87 5
 793              	.LVL56:
  90:C:/Users/stapi/OneDrive/Desktop/GD32VW553/V1_MQTT_OK/GD32VW55X_Wifi_BLE_SDK/GD32VW55x_RELEASE_V1.0.2/MSDK/plf/GD32VW55x_standard_peripheral/Source\gd32vw55x_fmc.c **** 
 794              		.loc 1 90 5
  86:C:/Users/stapi/OneDrive/Desktop/GD32VW553/V1_MQTT_OK/GD32VW55X_Wifi_BLE_SDK/GD32VW55x_RELEASE_V1.0.2/MSDK/plf/GD32VW55x_standard_peripheral/Source\gd32vw55x_fmc.c ****     fmc_state_enum fmc_state = FMC_READY;
 795              		.loc 1 86 1 is_stmt 0
 796 0008 AA84     		mv	s1,a0
  90:C:/Users/stapi/OneDrive/Desktop/GD32VW553/V1_MQTT_OK/GD32VW55X_Wifi_BLE_SDK/GD32VW55x_RELEASE_V1.0.2/MSDK/plf/GD32VW55x_standard_peripheral/Source\gd32vw55x_fmc.c **** 
 797              		.loc 1 90 17
 798 000a 37050001 		li	a0,16777216
 799              	.LVL57:
 800 000e 97000000 		call	fmc_ready_wait
 800      E7800000 
 801              	.LVL58:
  92:C:/Users/stapi/OneDrive/Desktop/GD32VW553/V1_MQTT_OK/GD32VW55X_Wifi_BLE_SDK/GD32VW55x_RELEASE_V1.0.2/MSDK/plf/GD32VW55x_standard_peripheral/Source\gd32vw55x_fmc.c ****         /* start page erase */
 802              		.loc 1 92 5 is_stmt 1
  92:C:/Users/stapi/OneDrive/Desktop/GD32VW553/V1_MQTT_OK/GD32VW55X_Wifi_BLE_SDK/GD32VW55x_RELEASE_V1.0.2/MSDK/plf/GD32VW55x_standard_peripheral/Source\gd32vw55x_fmc.c ****         /* start page erase */
 803              		.loc 1 92 7 is_stmt 0
 804 0016 0DE5     		bne	a0,zero,.L52
  94:C:/Users/stapi/OneDrive/Desktop/GD32VW553/V1_MQTT_OK/GD32VW55X_Wifi_BLE_SDK/GD32VW55x_RELEASE_V1.0.2/MSDK/plf/GD32VW55x_standard_peripheral/Source\gd32vw55x_fmc.c ****         FMC_ADDR = page_address;
 805              		.loc 1 94 9 is_stmt 1
  94:C:/Users/stapi/OneDrive/Desktop/GD32VW553/V1_MQTT_OK/GD32VW55X_Wifi_BLE_SDK/GD32VW55x_RELEASE_V1.0.2/MSDK/plf/GD32VW55x_standard_peripheral/Source\gd32vw55x_fmc.c ****         FMC_ADDR = page_address;
 806              		.loc 1 94 17 is_stmt 0
 807 0018 37240240 		li	s0,1073881088
 808 001c 1C48     		lw	a5,16(s0)
  98:C:/Users/stapi/OneDrive/Desktop/GD32VW553/V1_MQTT_OK/GD32VW55X_Wifi_BLE_SDK/GD32VW55x_RELEASE_V1.0.2/MSDK/plf/GD32VW55x_standard_peripheral/Source\gd32vw55x_fmc.c ****         /* reset the PER bit */
 809              		.loc 1 98 21
 810 001e 37050001 		li	a0,16777216
 811              	.LVL59:
  94:C:/Users/stapi/OneDrive/Desktop/GD32VW553/V1_MQTT_OK/GD32VW55X_Wifi_BLE_SDK/GD32VW55x_RELEASE_V1.0.2/MSDK/plf/GD32VW55x_standard_peripheral/Source\gd32vw55x_fmc.c ****         FMC_ADDR = page_address;
 812              		.loc 1 94 17
 813 0022 93E72700 		ori	a5,a5,2
 814 0026 1CC8     		sw	a5,16(s0)
  95:C:/Users/stapi/OneDrive/Desktop/GD32VW553/V1_MQTT_OK/GD32VW55X_Wifi_BLE_SDK/GD32VW55x_RELEASE_V1.0.2/MSDK/plf/GD32VW55x_standard_peripheral/Source\gd32vw55x_fmc.c ****         FMC_CTL |= FMC_CTL_START;
 815              		.loc 1 95 9 is_stmt 1
  95:C:/Users/stapi/OneDrive/Desktop/GD32VW553/V1_MQTT_OK/GD32VW55X_Wifi_BLE_SDK/GD32VW55x_RELEASE_V1.0.2/MSDK/plf/GD32VW55x_standard_peripheral/Source\gd32vw55x_fmc.c ****         FMC_CTL |= FMC_CTL_START;
 816              		.loc 1 95 18 is_stmt 0
 817 0028 44C8     		sw	s1,20(s0)
  96:C:/Users/stapi/OneDrive/Desktop/GD32VW553/V1_MQTT_OK/GD32VW55X_Wifi_BLE_SDK/GD32VW55x_RELEASE_V1.0.2/MSDK/plf/GD32VW55x_standard_peripheral/Source\gd32vw55x_fmc.c ****         /* wait for the FMC ready */
 818              		.loc 1 96 9 is_stmt 1
  96:C:/Users/stapi/OneDrive/Desktop/GD32VW553/V1_MQTT_OK/GD32VW55X_Wifi_BLE_SDK/GD32VW55x_RELEASE_V1.0.2/MSDK/plf/GD32VW55x_standard_peripheral/Source\gd32vw55x_fmc.c ****         /* wait for the FMC ready */
 819              		.loc 1 96 17 is_stmt 0
 820 002a 1C48     		lw	a5,16(s0)
 821 002c 93E70704 		ori	a5,a5,64
 822 0030 1CC8     		sw	a5,16(s0)
  98:C:/Users/stapi/OneDrive/Desktop/GD32VW553/V1_MQTT_OK/GD32VW55X_Wifi_BLE_SDK/GD32VW55x_RELEASE_V1.0.2/MSDK/plf/GD32VW55x_standard_peripheral/Source\gd32vw55x_fmc.c ****         /* reset the PER bit */
 823              		.loc 1 98 9 is_stmt 1
  98:C:/Users/stapi/OneDrive/Desktop/GD32VW553/V1_MQTT_OK/GD32VW55X_Wifi_BLE_SDK/GD32VW55x_RELEASE_V1.0.2/MSDK/plf/GD32VW55x_standard_peripheral/Source\gd32vw55x_fmc.c ****         /* reset the PER bit */
 824              		.loc 1 98 21 is_stmt 0
 825 0032 97000000 		call	fmc_ready_wait
 825      E7800000 
 826              	.LVL60:
 100:C:/Users/stapi/OneDrive/Desktop/GD32VW553/V1_MQTT_OK/GD32VW55X_Wifi_BLE_SDK/GD32VW55x_RELEASE_V1.0.2/MSDK/plf/GD32VW55x_standard_peripheral/Source\gd32vw55x_fmc.c ****     }
 827              		.loc 1 100 9 is_stmt 1
 100:C:/Users/stapi/OneDrive/Desktop/GD32VW553/V1_MQTT_OK/GD32VW55X_Wifi_BLE_SDK/GD32VW55x_RELEASE_V1.0.2/MSDK/plf/GD32VW55x_standard_peripheral/Source\gd32vw55x_fmc.c ****     }
 828              		.loc 1 100 17 is_stmt 0
 829 003a 1C48     		lw	a5,16(s0)
 830 003c F59B     		andi	a5,a5,-3
 831 003e 1CC8     		sw	a5,16(s0)
 104:C:/Users/stapi/OneDrive/Desktop/GD32VW553/V1_MQTT_OK/GD32VW55X_Wifi_BLE_SDK/GD32VW55x_RELEASE_V1.0.2/MSDK/plf/GD32VW55x_standard_peripheral/Source\gd32vw55x_fmc.c **** }
 832              		.loc 1 104 5 is_stmt 1
 833              	.L52:
 105:C:/Users/stapi/OneDrive/Desktop/GD32VW553/V1_MQTT_OK/GD32VW55X_Wifi_BLE_SDK/GD32VW55x_RELEASE_V1.0.2/MSDK/plf/GD32VW55x_standard_peripheral/Source\gd32vw55x_fmc.c **** 
 834              		.loc 1 105 1 is_stmt 0
 835 0040 17030000 		tail	__riscv_restore_2
 835      67000300 
 836              		.cfi_restore 9
 837              		.cfi_restore 8
 838              		.cfi_restore 1
 839              		.cfi_def_cfa_offset 0
 840              		.cfi_endproc
 841              	.LFE367:
 843              		.section	.text.fmc_mass_erase,"ax",@progbits
 844              		.align	1
 845              		.globl	fmc_mass_erase
 847              	fmc_mass_erase:
 848              	.LFB368:
 117:C:/Users/stapi/OneDrive/Desktop/GD32VW553/V1_MQTT_OK/GD32VW55X_Wifi_BLE_SDK/GD32VW55x_RELEASE_V1.0.2/MSDK/plf/GD32VW55x_standard_peripheral/Source\gd32vw55x_fmc.c ****     fmc_state_enum fmc_state = FMC_READY;
 849              		.loc 1 117 1 is_stmt 1
 850              		.cfi_startproc
 851 0000 17030000 		call	t0,__riscv_save_1
 851      E7020300 
 852              		.cfi_offset 8, -8
 853              		.cfi_offset 1, -4
 854              		.cfi_def_cfa_offset 16
 118:C:/Users/stapi/OneDrive/Desktop/GD32VW553/V1_MQTT_OK/GD32VW55X_Wifi_BLE_SDK/GD32VW55x_RELEASE_V1.0.2/MSDK/plf/GD32VW55x_standard_peripheral/Source\gd32vw55x_fmc.c **** 
 855              		.loc 1 118 5
 856              	.LVL61:
 121:C:/Users/stapi/OneDrive/Desktop/GD32VW553/V1_MQTT_OK/GD32VW55X_Wifi_BLE_SDK/GD32VW55x_RELEASE_V1.0.2/MSDK/plf/GD32VW55x_standard_peripheral/Source\gd32vw55x_fmc.c **** 
 857              		.loc 1 121 5
 121:C:/Users/stapi/OneDrive/Desktop/GD32VW553/V1_MQTT_OK/GD32VW55X_Wifi_BLE_SDK/GD32VW55x_RELEASE_V1.0.2/MSDK/plf/GD32VW55x_standard_peripheral/Source\gd32vw55x_fmc.c **** 
 858              		.loc 1 121 17 is_stmt 0
 859 0008 37050001 		li	a0,16777216
 860 000c 97000000 		call	fmc_ready_wait
 860      E7800000 
 861              	.LVL62:
 123:C:/Users/stapi/OneDrive/Desktop/GD32VW553/V1_MQTT_OK/GD32VW55X_Wifi_BLE_SDK/GD32VW55x_RELEASE_V1.0.2/MSDK/plf/GD32VW55x_standard_peripheral/Source\gd32vw55x_fmc.c ****         /* start chip erase */
 862              		.loc 1 123 5 is_stmt 1
 123:C:/Users/stapi/OneDrive/Desktop/GD32VW553/V1_MQTT_OK/GD32VW55X_Wifi_BLE_SDK/GD32VW55x_RELEASE_V1.0.2/MSDK/plf/GD32VW55x_standard_peripheral/Source\gd32vw55x_fmc.c ****         /* start chip erase */
 863              		.loc 1 123 7 is_stmt 0
 864 0014 05E5     		bne	a0,zero,.L55
 125:C:/Users/stapi/OneDrive/Desktop/GD32VW553/V1_MQTT_OK/GD32VW55X_Wifi_BLE_SDK/GD32VW55x_RELEASE_V1.0.2/MSDK/plf/GD32VW55x_standard_peripheral/Source\gd32vw55x_fmc.c ****         FMC_CTL |= FMC_CTL_START;
 865              		.loc 1 125 9 is_stmt 1
 125:C:/Users/stapi/OneDrive/Desktop/GD32VW553/V1_MQTT_OK/GD32VW55X_Wifi_BLE_SDK/GD32VW55x_RELEASE_V1.0.2/MSDK/plf/GD32VW55x_standard_peripheral/Source\gd32vw55x_fmc.c ****         FMC_CTL |= FMC_CTL_START;
 866              		.loc 1 125 17 is_stmt 0
 867 0016 37240240 		li	s0,1073881088
 868 001a 1C48     		lw	a5,16(s0)
 128:C:/Users/stapi/OneDrive/Desktop/GD32VW553/V1_MQTT_OK/GD32VW55X_Wifi_BLE_SDK/GD32VW55x_RELEASE_V1.0.2/MSDK/plf/GD32VW55x_standard_peripheral/Source\gd32vw55x_fmc.c ****         /* reset the MER bit */
 869              		.loc 1 128 21
 870 001c 37050001 		li	a0,16777216
 871              	.LVL63:
 125:C:/Users/stapi/OneDrive/Desktop/GD32VW553/V1_MQTT_OK/GD32VW55X_Wifi_BLE_SDK/GD32VW55x_RELEASE_V1.0.2/MSDK/plf/GD32VW55x_standard_peripheral/Source\gd32vw55x_fmc.c ****         FMC_CTL |= FMC_CTL_START;
 872              		.loc 1 125 17
 873 0020 93E74700 		ori	a5,a5,4
 874 0024 1CC8     		sw	a5,16(s0)
 126:C:/Users/stapi/OneDrive/Desktop/GD32VW553/V1_MQTT_OK/GD32VW55X_Wifi_BLE_SDK/GD32VW55x_RELEASE_V1.0.2/MSDK/plf/GD32VW55x_standard_peripheral/Source\gd32vw55x_fmc.c ****         /* wait for the FMC ready */
 875              		.loc 1 126 9 is_stmt 1
 126:C:/Users/stapi/OneDrive/Desktop/GD32VW553/V1_MQTT_OK/GD32VW55X_Wifi_BLE_SDK/GD32VW55x_RELEASE_V1.0.2/MSDK/plf/GD32VW55x_standard_peripheral/Source\gd32vw55x_fmc.c ****         /* wait for the FMC ready */
 876              		.loc 1 126 17 is_stmt 0
 877 0026 1C48     		lw	a5,16(s0)
 878 0028 93E70704 		ori	a5,a5,64
 879 002c 1CC8     		sw	a5,16(s0)
 128:C:/Users/stapi/OneDrive/Desktop/GD32VW553/V1_MQTT_OK/GD32VW55X_Wifi_BLE_SDK/GD32VW55x_RELEASE_V1.0.2/MSDK/plf/GD32VW55x_standard_peripheral/Source\gd32vw55x_fmc.c ****         /* reset the MER bit */
 880              		.loc 1 128 9 is_stmt 1
 128:C:/Users/stapi/OneDrive/Desktop/GD32VW553/V1_MQTT_OK/GD32VW55X_Wifi_BLE_SDK/GD32VW55x_RELEASE_V1.0.2/MSDK/plf/GD32VW55x_standard_peripheral/Source\gd32vw55x_fmc.c ****         /* reset the MER bit */
 881              		.loc 1 128 21 is_stmt 0
 882 002e 97000000 		call	fmc_ready_wait
 882      E7800000 
 883              	.LVL64:
 130:C:/Users/stapi/OneDrive/Desktop/GD32VW553/V1_MQTT_OK/GD32VW55X_Wifi_BLE_SDK/GD32VW55x_RELEASE_V1.0.2/MSDK/plf/GD32VW55x_standard_peripheral/Source\gd32vw55x_fmc.c ****     }
 884              		.loc 1 130 9 is_stmt 1
 130:C:/Users/stapi/OneDrive/Desktop/GD32VW553/V1_MQTT_OK/GD32VW55X_Wifi_BLE_SDK/GD32VW55x_RELEASE_V1.0.2/MSDK/plf/GD32VW55x_standard_peripheral/Source\gd32vw55x_fmc.c ****     }
 885              		.loc 1 130 17 is_stmt 0
 886 0036 1C48     		lw	a5,16(s0)
 887 0038 ED9B     		andi	a5,a5,-5
 888 003a 1CC8     		sw	a5,16(s0)
 134:C:/Users/stapi/OneDrive/Desktop/GD32VW553/V1_MQTT_OK/GD32VW55X_Wifi_BLE_SDK/GD32VW55x_RELEASE_V1.0.2/MSDK/plf/GD32VW55x_standard_peripheral/Source\gd32vw55x_fmc.c **** }
 889              		.loc 1 134 5 is_stmt 1
 890              	.L55:
 135:C:/Users/stapi/OneDrive/Desktop/GD32VW553/V1_MQTT_OK/GD32VW55X_Wifi_BLE_SDK/GD32VW55x_RELEASE_V1.0.2/MSDK/plf/GD32VW55x_standard_peripheral/Source\gd32vw55x_fmc.c **** 
 891              		.loc 1 135 1 is_stmt 0
 892 003c 17030000 		tail	__riscv_restore_1
 892      67000300 
 893              		.cfi_restore 8
 894              		.cfi_restore 1
 895              		.cfi_def_cfa_offset 0
 896              		.cfi_endproc
 897              	.LFE368:
 899              		.section	.text.fmc_word_program,"ax",@progbits
 900              		.align	1
 901              		.globl	fmc_word_program
 903              	fmc_word_program:
 904              	.LFB369:
 148:C:/Users/stapi/OneDrive/Desktop/GD32VW553/V1_MQTT_OK/GD32VW55X_Wifi_BLE_SDK/GD32VW55x_RELEASE_V1.0.2/MSDK/plf/GD32VW55x_standard_peripheral/Source\gd32vw55x_fmc.c ****     fmc_state_enum fmc_state = FMC_READY;
 905              		.loc 1 148 1 is_stmt 1
 906              		.cfi_startproc
 907              	.LVL65:
 908 0000 17030000 		call	t0,__riscv_save_3
 908      E7020300 
 909              		.cfi_offset 18, -16
 910              		.cfi_offset 9, -12
 911              		.cfi_offset 8, -8
 912              		.cfi_offset 1, -4
 913              		.cfi_def_cfa_offset 16
 149:C:/Users/stapi/OneDrive/Desktop/GD32VW553/V1_MQTT_OK/GD32VW55X_Wifi_BLE_SDK/GD32VW55x_RELEASE_V1.0.2/MSDK/plf/GD32VW55x_standard_peripheral/Source\gd32vw55x_fmc.c **** 
 914              		.loc 1 149 5
 915              	.LVL66:
 152:C:/Users/stapi/OneDrive/Desktop/GD32VW553/V1_MQTT_OK/GD32VW55X_Wifi_BLE_SDK/GD32VW55x_RELEASE_V1.0.2/MSDK/plf/GD32VW55x_standard_peripheral/Source\gd32vw55x_fmc.c **** 
 916              		.loc 1 152 5
 148:C:/Users/stapi/OneDrive/Desktop/GD32VW553/V1_MQTT_OK/GD32VW55X_Wifi_BLE_SDK/GD32VW55x_RELEASE_V1.0.2/MSDK/plf/GD32VW55x_standard_peripheral/Source\gd32vw55x_fmc.c ****     fmc_state_enum fmc_state = FMC_READY;
 917              		.loc 1 148 1 is_stmt 0
 918 0008 AA84     		mv	s1,a0
 152:C:/Users/stapi/OneDrive/Desktop/GD32VW553/V1_MQTT_OK/GD32VW55X_Wifi_BLE_SDK/GD32VW55x_RELEASE_V1.0.2/MSDK/plf/GD32VW55x_standard_peripheral/Source\gd32vw55x_fmc.c **** 
 919              		.loc 1 152 17
 920 000a 37050001 		li	a0,16777216
 921              	.LVL67:
 148:C:/Users/stapi/OneDrive/Desktop/GD32VW553/V1_MQTT_OK/GD32VW55X_Wifi_BLE_SDK/GD32VW55x_RELEASE_V1.0.2/MSDK/plf/GD32VW55x_standard_peripheral/Source\gd32vw55x_fmc.c ****     fmc_state_enum fmc_state = FMC_READY;
 922              		.loc 1 148 1
 923 000e 2E89     		mv	s2,a1
 152:C:/Users/stapi/OneDrive/Desktop/GD32VW553/V1_MQTT_OK/GD32VW55X_Wifi_BLE_SDK/GD32VW55x_RELEASE_V1.0.2/MSDK/plf/GD32VW55x_standard_peripheral/Source\gd32vw55x_fmc.c **** 
 924              		.loc 1 152 17
 925 0010 97000000 		call	fmc_ready_wait
 925      E7800000 
 926              	.LVL68:
 154:C:/Users/stapi/OneDrive/Desktop/GD32VW553/V1_MQTT_OK/GD32VW55X_Wifi_BLE_SDK/GD32VW55x_RELEASE_V1.0.2/MSDK/plf/GD32VW55x_standard_peripheral/Source\gd32vw55x_fmc.c ****         /* set the PG bit to start program */
 927              		.loc 1 154 5 is_stmt 1
 154:C:/Users/stapi/OneDrive/Desktop/GD32VW553/V1_MQTT_OK/GD32VW55X_Wifi_BLE_SDK/GD32VW55x_RELEASE_V1.0.2/MSDK/plf/GD32VW55x_standard_peripheral/Source\gd32vw55x_fmc.c ****         /* set the PG bit to start program */
 928              		.loc 1 154 7 is_stmt 0
 929 0018 15E1     		bne	a0,zero,.L58
 156:C:/Users/stapi/OneDrive/Desktop/GD32VW553/V1_MQTT_OK/GD32VW55X_Wifi_BLE_SDK/GD32VW55x_RELEASE_V1.0.2/MSDK/plf/GD32VW55x_standard_peripheral/Source\gd32vw55x_fmc.c ****         REG32(address) = data;
 930              		.loc 1 156 9 is_stmt 1
 156:C:/Users/stapi/OneDrive/Desktop/GD32VW553/V1_MQTT_OK/GD32VW55X_Wifi_BLE_SDK/GD32VW55x_RELEASE_V1.0.2/MSDK/plf/GD32VW55x_standard_peripheral/Source\gd32vw55x_fmc.c ****         REG32(address) = data;
 931              		.loc 1 156 17 is_stmt 0
 932 001a 37240240 		li	s0,1073881088
 933 001e 1C48     		lw	a5,16(s0)
 159:C:/Users/stapi/OneDrive/Desktop/GD32VW553/V1_MQTT_OK/GD32VW55X_Wifi_BLE_SDK/GD32VW55x_RELEASE_V1.0.2/MSDK/plf/GD32VW55x_standard_peripheral/Source\gd32vw55x_fmc.c ****         /* reset the PG bit */
 934              		.loc 1 159 21
 935 0020 37050001 		li	a0,16777216
 936              	.LVL69:
 156:C:/Users/stapi/OneDrive/Desktop/GD32VW553/V1_MQTT_OK/GD32VW55X_Wifi_BLE_SDK/GD32VW55x_RELEASE_V1.0.2/MSDK/plf/GD32VW55x_standard_peripheral/Source\gd32vw55x_fmc.c ****         REG32(address) = data;
 937              		.loc 1 156 17
 938 0024 93E71700 		ori	a5,a5,1
 939 0028 1CC8     		sw	a5,16(s0)
 157:C:/Users/stapi/OneDrive/Desktop/GD32VW553/V1_MQTT_OK/GD32VW55X_Wifi_BLE_SDK/GD32VW55x_RELEASE_V1.0.2/MSDK/plf/GD32VW55x_standard_peripheral/Source\gd32vw55x_fmc.c ****         /* wait for the FMC ready */
 940              		.loc 1 157 9 is_stmt 1
 157:C:/Users/stapi/OneDrive/Desktop/GD32VW553/V1_MQTT_OK/GD32VW55X_Wifi_BLE_SDK/GD32VW55x_RELEASE_V1.0.2/MSDK/plf/GD32VW55x_standard_peripheral/Source\gd32vw55x_fmc.c ****         /* wait for the FMC ready */
 941              		.loc 1 157 24 is_stmt 0
 942 002a 23A02401 		sw	s2,0(s1)
 159:C:/Users/stapi/OneDrive/Desktop/GD32VW553/V1_MQTT_OK/GD32VW55X_Wifi_BLE_SDK/GD32VW55x_RELEASE_V1.0.2/MSDK/plf/GD32VW55x_standard_peripheral/Source\gd32vw55x_fmc.c ****         /* reset the PG bit */
 943              		.loc 1 159 9 is_stmt 1
 159:C:/Users/stapi/OneDrive/Desktop/GD32VW553/V1_MQTT_OK/GD32VW55X_Wifi_BLE_SDK/GD32VW55x_RELEASE_V1.0.2/MSDK/plf/GD32VW55x_standard_peripheral/Source\gd32vw55x_fmc.c ****         /* reset the PG bit */
 944              		.loc 1 159 21 is_stmt 0
 945 002e 97000000 		call	fmc_ready_wait
 945      E7800000 
 946              	.LVL70:
 161:C:/Users/stapi/OneDrive/Desktop/GD32VW553/V1_MQTT_OK/GD32VW55X_Wifi_BLE_SDK/GD32VW55x_RELEASE_V1.0.2/MSDK/plf/GD32VW55x_standard_peripheral/Source\gd32vw55x_fmc.c ****     }
 947              		.loc 1 161 9 is_stmt 1
 161:C:/Users/stapi/OneDrive/Desktop/GD32VW553/V1_MQTT_OK/GD32VW55X_Wifi_BLE_SDK/GD32VW55x_RELEASE_V1.0.2/MSDK/plf/GD32VW55x_standard_peripheral/Source\gd32vw55x_fmc.c ****     }
 948              		.loc 1 161 17 is_stmt 0
 949 0036 1C48     		lw	a5,16(s0)
 950 0038 F99B     		andi	a5,a5,-2
 951 003a 1CC8     		sw	a5,16(s0)
 165:C:/Users/stapi/OneDrive/Desktop/GD32VW553/V1_MQTT_OK/GD32VW55X_Wifi_BLE_SDK/GD32VW55x_RELEASE_V1.0.2/MSDK/plf/GD32VW55x_standard_peripheral/Source\gd32vw55x_fmc.c **** }
 952              		.loc 1 165 5 is_stmt 1
 953              	.L58:
 166:C:/Users/stapi/OneDrive/Desktop/GD32VW553/V1_MQTT_OK/GD32VW55X_Wifi_BLE_SDK/GD32VW55x_RELEASE_V1.0.2/MSDK/plf/GD32VW55x_standard_peripheral/Source\gd32vw55x_fmc.c **** 
 954              		.loc 1 166 1 is_stmt 0
 955 003c 17030000 		tail	__riscv_restore_3
 955      67000300 
 956              		.cfi_restore 18
 957              		.cfi_restore 9
 958              		.cfi_restore 8
 959              		.cfi_restore 1
 960              		.cfi_def_cfa_offset 0
 961              		.cfi_endproc
 962              	.LFE369:
 964              		.section	.text.fmc_continuous_program,"ax",@progbits
 965              		.align	1
 966              		.globl	fmc_continuous_program
 968              	fmc_continuous_program:
 969              	.LFB370:
 180:C:/Users/stapi/OneDrive/Desktop/GD32VW553/V1_MQTT_OK/GD32VW55X_Wifi_BLE_SDK/GD32VW55x_RELEASE_V1.0.2/MSDK/plf/GD32VW55x_standard_peripheral/Source\gd32vw55x_fmc.c ****     fmc_state_enum fmc_state = FMC_READY;
 970              		.loc 1 180 1 is_stmt 1
 971              		.cfi_startproc
 972              	.LVL71:
 973 0000 17030000 		call	t0,__riscv_save_3
 973      E7020300 
 974              		.cfi_offset 18, -16
 975              		.cfi_offset 9, -12
 976              		.cfi_offset 8, -8
 977              		.cfi_offset 1, -4
 978              		.cfi_def_cfa_offset 16
 181:C:/Users/stapi/OneDrive/Desktop/GD32VW553/V1_MQTT_OK/GD32VW55X_Wifi_BLE_SDK/GD32VW55x_RELEASE_V1.0.2/MSDK/plf/GD32VW55x_standard_peripheral/Source\gd32vw55x_fmc.c **** 
 979              		.loc 1 181 5
 980              	.LVL72:
 184:C:/Users/stapi/OneDrive/Desktop/GD32VW553/V1_MQTT_OK/GD32VW55X_Wifi_BLE_SDK/GD32VW55x_RELEASE_V1.0.2/MSDK/plf/GD32VW55x_standard_peripheral/Source\gd32vw55x_fmc.c **** 
 981              		.loc 1 184 5
 180:C:/Users/stapi/OneDrive/Desktop/GD32VW553/V1_MQTT_OK/GD32VW55X_Wifi_BLE_SDK/GD32VW55x_RELEASE_V1.0.2/MSDK/plf/GD32VW55x_standard_peripheral/Source\gd32vw55x_fmc.c ****     fmc_state_enum fmc_state = FMC_READY;
 982              		.loc 1 180 1 is_stmt 0
 983 0008 AA84     		mv	s1,a0
 184:C:/Users/stapi/OneDrive/Desktop/GD32VW553/V1_MQTT_OK/GD32VW55X_Wifi_BLE_SDK/GD32VW55x_RELEASE_V1.0.2/MSDK/plf/GD32VW55x_standard_peripheral/Source\gd32vw55x_fmc.c **** 
 984              		.loc 1 184 17
 985 000a 37050001 		li	a0,16777216
 986              	.LVL73:
 180:C:/Users/stapi/OneDrive/Desktop/GD32VW553/V1_MQTT_OK/GD32VW55X_Wifi_BLE_SDK/GD32VW55x_RELEASE_V1.0.2/MSDK/plf/GD32VW55x_standard_peripheral/Source\gd32vw55x_fmc.c ****     fmc_state_enum fmc_state = FMC_READY;
 987              		.loc 1 180 1
 988 000e 2E89     		mv	s2,a1
 989 0010 3284     		mv	s0,a2
 184:C:/Users/stapi/OneDrive/Desktop/GD32VW553/V1_MQTT_OK/GD32VW55X_Wifi_BLE_SDK/GD32VW55x_RELEASE_V1.0.2/MSDK/plf/GD32VW55x_standard_peripheral/Source\gd32vw55x_fmc.c **** 
 990              		.loc 1 184 17
 991 0012 97000000 		call	fmc_ready_wait
 991      E7800000 
 992              	.LVL74:
 186:C:/Users/stapi/OneDrive/Desktop/GD32VW553/V1_MQTT_OK/GD32VW55X_Wifi_BLE_SDK/GD32VW55x_RELEASE_V1.0.2/MSDK/plf/GD32VW55x_standard_peripheral/Source\gd32vw55x_fmc.c ****         /* set the PG bit to start program */
 993              		.loc 1 186 5 is_stmt 1
 186:C:/Users/stapi/OneDrive/Desktop/GD32VW553/V1_MQTT_OK/GD32VW55X_Wifi_BLE_SDK/GD32VW55x_RELEASE_V1.0.2/MSDK/plf/GD32VW55x_standard_peripheral/Source\gd32vw55x_fmc.c ****         /* set the PG bit to start program */
 994              		.loc 1 186 7 is_stmt 0
 995 001a 05E1     		bne	a0,zero,.L61
 188:C:/Users/stapi/OneDrive/Desktop/GD32VW553/V1_MQTT_OK/GD32VW55X_Wifi_BLE_SDK/GD32VW55x_RELEASE_V1.0.2/MSDK/plf/GD32VW55x_standard_peripheral/Source\gd32vw55x_fmc.c **** 
 996              		.loc 1 188 9 is_stmt 1
 188:C:/Users/stapi/OneDrive/Desktop/GD32VW553/V1_MQTT_OK/GD32VW55X_Wifi_BLE_SDK/GD32VW55x_RELEASE_V1.0.2/MSDK/plf/GD32VW55x_standard_peripheral/Source\gd32vw55x_fmc.c **** 
 997              		.loc 1 188 17 is_stmt 0
 998 001c 37270240 		li	a4,1073881088
 999 0020 1C4B     		lw	a5,16(a4)
 1000 0022 0A04     		slli	s0,s0,2
 1001              	.LVL75:
 1002 0024 93E71700 		ori	a5,a5,1
 1003 0028 1CCB     		sw	a5,16(a4)
 190:C:/Users/stapi/OneDrive/Desktop/GD32VW553/V1_MQTT_OK/GD32VW55X_Wifi_BLE_SDK/GD32VW55x_RELEASE_V1.0.2/MSDK/plf/GD32VW55x_standard_peripheral/Source\gd32vw55x_fmc.c ****             REG32(address) = data[i];
 1004              		.loc 1 190 9 is_stmt 1
 1005              	.LBB6:
 190:C:/Users/stapi/OneDrive/Desktop/GD32VW553/V1_MQTT_OK/GD32VW55X_Wifi_BLE_SDK/GD32VW55x_RELEASE_V1.0.2/MSDK/plf/GD32VW55x_standard_peripheral/Source\gd32vw55x_fmc.c ****             REG32(address) = data[i];
 1006              		.loc 1 190 13
 1007              	.LVL76:
 190:C:/Users/stapi/OneDrive/Desktop/GD32VW553/V1_MQTT_OK/GD32VW55X_Wifi_BLE_SDK/GD32VW55x_RELEASE_V1.0.2/MSDK/plf/GD32VW55x_standard_peripheral/Source\gd32vw55x_fmc.c ****             REG32(address) = data[i];
 1008              		.loc 1 190 9 is_stmt 0
 1009 002a 8147     		li	a5,0
 1010              	.LVL77:
 1011              	.L63:
 190:C:/Users/stapi/OneDrive/Desktop/GD32VW553/V1_MQTT_OK/GD32VW55X_Wifi_BLE_SDK/GD32VW55x_RELEASE_V1.0.2/MSDK/plf/GD32VW55x_standard_peripheral/Source\gd32vw55x_fmc.c ****             REG32(address) = data[i];
 1012              		.loc 1 190 30 is_stmt 1 discriminator 1
 190:C:/Users/stapi/OneDrive/Desktop/GD32VW553/V1_MQTT_OK/GD32VW55X_Wifi_BLE_SDK/GD32VW55x_RELEASE_V1.0.2/MSDK/plf/GD32VW55x_standard_peripheral/Source\gd32vw55x_fmc.c ****             REG32(address) = data[i];
 1013              		.loc 1 190 9 is_stmt 0 discriminator 1
 1014 002c 639B8700 		bne	a5,s0,.L64
 1015              	.LBE6:
 196:C:/Users/stapi/OneDrive/Desktop/GD32VW553/V1_MQTT_OK/GD32VW55X_Wifi_BLE_SDK/GD32VW55x_RELEASE_V1.0.2/MSDK/plf/GD32VW55x_standard_peripheral/Source\gd32vw55x_fmc.c ****     }
 1016              		.loc 1 196 9 is_stmt 1
 196:C:/Users/stapi/OneDrive/Desktop/GD32VW553/V1_MQTT_OK/GD32VW55X_Wifi_BLE_SDK/GD32VW55x_RELEASE_V1.0.2/MSDK/plf/GD32VW55x_standard_peripheral/Source\gd32vw55x_fmc.c ****     }
 1017              		.loc 1 196 17 is_stmt 0
 1018 0030 37270240 		li	a4,1073881088
 1019 0034 1C4B     		lw	a5,16(a4)
 1020              	.LVL78:
 1021 0036 F99B     		andi	a5,a5,-2
 1022 0038 1CCB     		sw	a5,16(a4)
 200:C:/Users/stapi/OneDrive/Desktop/GD32VW553/V1_MQTT_OK/GD32VW55X_Wifi_BLE_SDK/GD32VW55x_RELEASE_V1.0.2/MSDK/plf/GD32VW55x_standard_peripheral/Source\gd32vw55x_fmc.c **** }
 1023              		.loc 1 200 5 is_stmt 1
 1024              	.L61:
 201:C:/Users/stapi/OneDrive/Desktop/GD32VW553/V1_MQTT_OK/GD32VW55X_Wifi_BLE_SDK/GD32VW55x_RELEASE_V1.0.2/MSDK/plf/GD32VW55x_standard_peripheral/Source\gd32vw55x_fmc.c **** 
 1025              		.loc 1 201 1 is_stmt 0
 1026 003a 17030000 		tail	__riscv_restore_3
 1026      67000300 
 1027              		.cfi_remember_state
 1028              		.cfi_restore 18
 1029              		.cfi_restore 9
 1030              		.cfi_restore 8
 1031              		.cfi_restore 1
 1032              		.cfi_def_cfa_offset 0
 1033              	.LVL79:
 1034              	.L64:
 1035              		.cfi_restore_state
 1036              	.LBB7:
 191:C:/Users/stapi/OneDrive/Desktop/GD32VW553/V1_MQTT_OK/GD32VW55X_Wifi_BLE_SDK/GD32VW55x_RELEASE_V1.0.2/MSDK/plf/GD32VW55x_standard_peripheral/Source\gd32vw55x_fmc.c ****             address += 4U;
 1037              		.loc 1 191 13 is_stmt 1 discriminator 3
 191:C:/Users/stapi/OneDrive/Desktop/GD32VW553/V1_MQTT_OK/GD32VW55X_Wifi_BLE_SDK/GD32VW55x_RELEASE_V1.0.2/MSDK/plf/GD32VW55x_standard_peripheral/Source\gd32vw55x_fmc.c ****             address += 4U;
 1038              		.loc 1 191 34 is_stmt 0 discriminator 3
 1039 0042 B306F900 		add	a3,s2,a5
 1040 0046 9442     		lw	a3,0(a3)
 1041 0048 3387F400 		add	a4,s1,a5
 1042 004c 9107     		addi	a5,a5,4
 1043              	.LVL80:
 191:C:/Users/stapi/OneDrive/Desktop/GD32VW553/V1_MQTT_OK/GD32VW55X_Wifi_BLE_SDK/GD32VW55x_RELEASE_V1.0.2/MSDK/plf/GD32VW55x_standard_peripheral/Source\gd32vw55x_fmc.c ****             address += 4U;
 1044              		.loc 1 191 28 discriminator 3
 1045 004e 14C3     		sw	a3,0(a4)
 192:C:/Users/stapi/OneDrive/Desktop/GD32VW553/V1_MQTT_OK/GD32VW55X_Wifi_BLE_SDK/GD32VW55x_RELEASE_V1.0.2/MSDK/plf/GD32VW55x_standard_peripheral/Source\gd32vw55x_fmc.c ****         }
 1046              		.loc 1 192 13 is_stmt 1 discriminator 3
 1047              	.LVL81:
 190:C:/Users/stapi/OneDrive/Desktop/GD32VW553/V1_MQTT_OK/GD32VW55X_Wifi_BLE_SDK/GD32VW55x_RELEASE_V1.0.2/MSDK/plf/GD32VW55x_standard_peripheral/Source\gd32vw55x_fmc.c ****             REG32(address) = data[i];
 1048              		.loc 1 190 40 discriminator 3
 1049 0050 F1BF     		j	.L63
 1050              	.LBE7:
 1051              		.cfi_endproc
 1052              	.LFE370:
 1054              		.section	.text.ob_security_protection_config,"ax",@progbits
 1055              		.align	1
 1056              		.globl	ob_security_protection_config
 1058              	ob_security_protection_config:
 1059              	.LFB377:
 302:C:/Users/stapi/OneDrive/Desktop/GD32VW553/V1_MQTT_OK/GD32VW55X_Wifi_BLE_SDK/GD32VW55x_RELEASE_V1.0.2/MSDK/plf/GD32VW55x_standard_peripheral/Source\gd32vw55x_fmc.c ****     fmc_state_enum fmc_state = fmc_ready_wait(FMC_TIMEOUT_COUNT);
 1060              		.loc 1 302 1
 1061              		.cfi_startproc
 1062              	.LVL82:
 1063 0000 17030000 		call	t0,__riscv_save_1
 1063      E7020300 
 1064              		.cfi_offset 8, -8
 1065              		.cfi_offset 1, -4
 1066              		.cfi_def_cfa_offset 16
 303:C:/Users/stapi/OneDrive/Desktop/GD32VW553/V1_MQTT_OK/GD32VW55X_Wifi_BLE_SDK/GD32VW55x_RELEASE_V1.0.2/MSDK/plf/GD32VW55x_standard_peripheral/Source\gd32vw55x_fmc.c **** 
 1067              		.loc 1 303 5
 302:C:/Users/stapi/OneDrive/Desktop/GD32VW553/V1_MQTT_OK/GD32VW55X_Wifi_BLE_SDK/GD32VW55x_RELEASE_V1.0.2/MSDK/plf/GD32VW55x_standard_peripheral/Source\gd32vw55x_fmc.c ****     fmc_state_enum fmc_state = fmc_ready_wait(FMC_TIMEOUT_COUNT);
 1068              		.loc 1 302 1 is_stmt 0
 1069 0008 2A84     		mv	s0,a0
 303:C:/Users/stapi/OneDrive/Desktop/GD32VW553/V1_MQTT_OK/GD32VW55X_Wifi_BLE_SDK/GD32VW55x_RELEASE_V1.0.2/MSDK/plf/GD32VW55x_standard_peripheral/Source\gd32vw55x_fmc.c **** 
 1070              		.loc 1 303 32
 1071 000a 37050001 		li	a0,16777216
 1072              	.LVL83:
 1073 000e 97000000 		call	fmc_ready_wait
 1073      E7800000 
 1074              	.LVL84:
 305:C:/Users/stapi/OneDrive/Desktop/GD32VW553/V1_MQTT_OK/GD32VW55X_Wifi_BLE_SDK/GD32VW55x_RELEASE_V1.0.2/MSDK/plf/GD32VW55x_standard_peripheral/Source\gd32vw55x_fmc.c ****         FMC_OBR &= FMC_OBR_SPC_MASK;
 1075              		.loc 1 305 5 is_stmt 1
 305:C:/Users/stapi/OneDrive/Desktop/GD32VW553/V1_MQTT_OK/GD32VW55X_Wifi_BLE_SDK/GD32VW55x_RELEASE_V1.0.2/MSDK/plf/GD32VW55x_standard_peripheral/Source\gd32vw55x_fmc.c ****         FMC_OBR &= FMC_OBR_SPC_MASK;
 1076              		.loc 1 305 7 is_stmt 0
 1077 0016 05E5     		bne	a0,zero,.L66
 306:C:/Users/stapi/OneDrive/Desktop/GD32VW553/V1_MQTT_OK/GD32VW55X_Wifi_BLE_SDK/GD32VW55x_RELEASE_V1.0.2/MSDK/plf/GD32VW55x_standard_peripheral/Source\gd32vw55x_fmc.c ****         FMC_OBR |= ob_spc;
 1078              		.loc 1 306 9 is_stmt 1
 306:C:/Users/stapi/OneDrive/Desktop/GD32VW553/V1_MQTT_OK/GD32VW55X_Wifi_BLE_SDK/GD32VW55x_RELEASE_V1.0.2/MSDK/plf/GD32VW55x_standard_peripheral/Source\gd32vw55x_fmc.c ****         FMC_OBR |= ob_spc;
 1079              		.loc 1 306 17 is_stmt 0
 1080 0018 B7270240 		li	a5,1073881088
 1081 001c B843     		lw	a4,64(a5)
 1082 001e 137707F0 		andi	a4,a4,-256
 1083 0022 B8C3     		sw	a4,64(a5)
 307:C:/Users/stapi/OneDrive/Desktop/GD32VW553/V1_MQTT_OK/GD32VW55X_Wifi_BLE_SDK/GD32VW55x_RELEASE_V1.0.2/MSDK/plf/GD32VW55x_standard_peripheral/Source\gd32vw55x_fmc.c ****         /* start option bytes modification */
 1084              		.loc 1 307 9 is_stmt 1
 307:C:/Users/stapi/OneDrive/Desktop/GD32VW553/V1_MQTT_OK/GD32VW55X_Wifi_BLE_SDK/GD32VW55x_RELEASE_V1.0.2/MSDK/plf/GD32VW55x_standard_peripheral/Source\gd32vw55x_fmc.c ****         /* start option bytes modification */
 1085              		.loc 1 307 17 is_stmt 0
 1086 0024 A843     		lw	a0,64(a5)
 1087              	.LVL85:
 1088 0026 498C     		or	s0,s0,a0
 1089 0028 A0C3     		sw	s0,64(a5)
 309:C:/Users/stapi/OneDrive/Desktop/GD32VW553/V1_MQTT_OK/GD32VW55X_Wifi_BLE_SDK/GD32VW55x_RELEASE_V1.0.2/MSDK/plf/GD32VW55x_standard_peripheral/Source\gd32vw55x_fmc.c ****         /* wait for the FMC ready */
 1090              		.loc 1 309 9 is_stmt 1
 309:C:/Users/stapi/OneDrive/Desktop/GD32VW553/V1_MQTT_OK/GD32VW55X_Wifi_BLE_SDK/GD32VW55x_RELEASE_V1.0.2/MSDK/plf/GD32VW55x_standard_peripheral/Source\gd32vw55x_fmc.c ****         /* wait for the FMC ready */
 1091              		.loc 1 309 17 is_stmt 0
 1092 002a 984B     		lw	a4,16(a5)
 311:C:/Users/stapi/OneDrive/Desktop/GD32VW553/V1_MQTT_OK/GD32VW55X_Wifi_BLE_SDK/GD32VW55x_RELEASE_V1.0.2/MSDK/plf/GD32VW55x_standard_peripheral/Source\gd32vw55x_fmc.c ****     }
 1093              		.loc 1 311 21
 1094 002c 37050001 		li	a0,16777216
 309:C:/Users/stapi/OneDrive/Desktop/GD32VW553/V1_MQTT_OK/GD32VW55X_Wifi_BLE_SDK/GD32VW55x_RELEASE_V1.0.2/MSDK/plf/GD32VW55x_standard_peripheral/Source\gd32vw55x_fmc.c ****         /* wait for the FMC ready */
 1095              		.loc 1 309 17
 1096 0030 1317E728 		bseti	a4,a4,14
 1097 0034 98CB     		sw	a4,16(a5)
 311:C:/Users/stapi/OneDrive/Desktop/GD32VW553/V1_MQTT_OK/GD32VW55X_Wifi_BLE_SDK/GD32VW55x_RELEASE_V1.0.2/MSDK/plf/GD32VW55x_standard_peripheral/Source\gd32vw55x_fmc.c ****     }
 1098              		.loc 1 311 9 is_stmt 1
 311:C:/Users/stapi/OneDrive/Desktop/GD32VW553/V1_MQTT_OK/GD32VW55X_Wifi_BLE_SDK/GD32VW55x_RELEASE_V1.0.2/MSDK/plf/GD32VW55x_standard_peripheral/Source\gd32vw55x_fmc.c ****     }
 1099              		.loc 1 311 21 is_stmt 0
 1100 0036 97000000 		call	fmc_ready_wait
 1100      E7800000 
 1101              	.LVL86:
 315:C:/Users/stapi/OneDrive/Desktop/GD32VW553/V1_MQTT_OK/GD32VW55X_Wifi_BLE_SDK/GD32VW55x_RELEASE_V1.0.2/MSDK/plf/GD32VW55x_standard_peripheral/Source\gd32vw55x_fmc.c **** }
 1102              		.loc 1 315 5 is_stmt 1
 1103              	.L66:
 316:C:/Users/stapi/OneDrive/Desktop/GD32VW553/V1_MQTT_OK/GD32VW55X_Wifi_BLE_SDK/GD32VW55x_RELEASE_V1.0.2/MSDK/plf/GD32VW55x_standard_peripheral/Source\gd32vw55x_fmc.c **** 
 1104              		.loc 1 316 1 is_stmt 0
 1105 003e 17030000 		tail	__riscv_restore_1
 1105      67000300 
 1106              		.cfi_restore 8
 1107              		.cfi_restore 1
 1108              		.cfi_def_cfa_offset 0
 1109              		.cfi_endproc
 1110              	.LFE377:
 1112              		.section	.text.ob_user_write,"ax",@progbits
 1113              		.align	1
 1114              		.globl	ob_user_write
 1116              	ob_user_write:
 1117              	.LFB378:
 329:C:/Users/stapi/OneDrive/Desktop/GD32VW553/V1_MQTT_OK/GD32VW55X_Wifi_BLE_SDK/GD32VW55x_RELEASE_V1.0.2/MSDK/plf/GD32VW55x_standard_peripheral/Source\gd32vw55x_fmc.c ****     fmc_state_enum fmc_state = fmc_ready_wait(FMC_TIMEOUT_COUNT);
 1118              		.loc 1 329 1 is_stmt 1
 1119              		.cfi_startproc
 1120              	.LVL87:
 1121 0000 17030000 		call	t0,__riscv_save_1
 1121      E7020300 
 1122              		.cfi_offset 8, -8
 1123              		.cfi_offset 1, -4
 1124              		.cfi_def_cfa_offset 16
 330:C:/Users/stapi/OneDrive/Desktop/GD32VW553/V1_MQTT_OK/GD32VW55X_Wifi_BLE_SDK/GD32VW55x_RELEASE_V1.0.2/MSDK/plf/GD32VW55x_standard_peripheral/Source\gd32vw55x_fmc.c **** 
 1125              		.loc 1 330 5
 329:C:/Users/stapi/OneDrive/Desktop/GD32VW553/V1_MQTT_OK/GD32VW55X_Wifi_BLE_SDK/GD32VW55x_RELEASE_V1.0.2/MSDK/plf/GD32VW55x_standard_peripheral/Source\gd32vw55x_fmc.c ****     fmc_state_enum fmc_state = fmc_ready_wait(FMC_TIMEOUT_COUNT);
 1126              		.loc 1 329 1 is_stmt 0
 1127 0008 2A84     		mv	s0,a0
 330:C:/Users/stapi/OneDrive/Desktop/GD32VW553/V1_MQTT_OK/GD32VW55X_Wifi_BLE_SDK/GD32VW55x_RELEASE_V1.0.2/MSDK/plf/GD32VW55x_standard_peripheral/Source\gd32vw55x_fmc.c **** 
 1128              		.loc 1 330 32
 1129 000a 37050001 		li	a0,16777216
 1130              	.LVL88:
 1131 000e 97000000 		call	fmc_ready_wait
 1131      E7800000 
 1132              	.LVL89:
 332:C:/Users/stapi/OneDrive/Desktop/GD32VW553/V1_MQTT_OK/GD32VW55X_Wifi_BLE_SDK/GD32VW55x_RELEASE_V1.0.2/MSDK/plf/GD32VW55x_standard_peripheral/Source\gd32vw55x_fmc.c ****         FMC_OBUSER &= FMC_OBUSER_MASK;
 1133              		.loc 1 332 5 is_stmt 1
 332:C:/Users/stapi/OneDrive/Desktop/GD32VW553/V1_MQTT_OK/GD32VW55X_Wifi_BLE_SDK/GD32VW55x_RELEASE_V1.0.2/MSDK/plf/GD32VW55x_standard_peripheral/Source\gd32vw55x_fmc.c ****         FMC_OBUSER &= FMC_OBUSER_MASK;
 1134              		.loc 1 332 7 is_stmt 0
 1135 0016 05E5     		bne	a0,zero,.L69
 333:C:/Users/stapi/OneDrive/Desktop/GD32VW553/V1_MQTT_OK/GD32VW55X_Wifi_BLE_SDK/GD32VW55x_RELEASE_V1.0.2/MSDK/plf/GD32VW55x_standard_peripheral/Source\gd32vw55x_fmc.c ****         FMC_OBUSER |= ob_user;
 1136              		.loc 1 333 9 is_stmt 1
 333:C:/Users/stapi/OneDrive/Desktop/GD32VW553/V1_MQTT_OK/GD32VW55X_Wifi_BLE_SDK/GD32VW55x_RELEASE_V1.0.2/MSDK/plf/GD32VW55x_standard_peripheral/Source\gd32vw55x_fmc.c ****         FMC_OBUSER |= ob_user;
 1137              		.loc 1 333 20 is_stmt 0
 1138 0018 B7270240 		li	a5,1073881088
 1139 001c F843     		lw	a4,68(a5)
 1140 001e 23A20704 		sw	zero,68(a5)
 334:C:/Users/stapi/OneDrive/Desktop/GD32VW553/V1_MQTT_OK/GD32VW55X_Wifi_BLE_SDK/GD32VW55x_RELEASE_V1.0.2/MSDK/plf/GD32VW55x_standard_peripheral/Source\gd32vw55x_fmc.c ****         /* start option bytes modification */
 1141              		.loc 1 334 9 is_stmt 1
 334:C:/Users/stapi/OneDrive/Desktop/GD32VW553/V1_MQTT_OK/GD32VW55X_Wifi_BLE_SDK/GD32VW55x_RELEASE_V1.0.2/MSDK/plf/GD32VW55x_standard_peripheral/Source\gd32vw55x_fmc.c ****         /* start option bytes modification */
 1142              		.loc 1 334 20 is_stmt 0
 1143 0022 F843     		lw	a4,68(a5)
 1144 0024 33658700 		or	a0,a4,s0
 1145              	.LVL90:
 1146 0028 E8C3     		sw	a0,68(a5)
 336:C:/Users/stapi/OneDrive/Desktop/GD32VW553/V1_MQTT_OK/GD32VW55X_Wifi_BLE_SDK/GD32VW55x_RELEASE_V1.0.2/MSDK/plf/GD32VW55x_standard_peripheral/Source\gd32vw55x_fmc.c ****         /* wait for the FMC ready */
 1147              		.loc 1 336 9 is_stmt 1
 336:C:/Users/stapi/OneDrive/Desktop/GD32VW553/V1_MQTT_OK/GD32VW55X_Wifi_BLE_SDK/GD32VW55x_RELEASE_V1.0.2/MSDK/plf/GD32VW55x_standard_peripheral/Source\gd32vw55x_fmc.c ****         /* wait for the FMC ready */
 1148              		.loc 1 336 17 is_stmt 0
 1149 002a 984B     		lw	a4,16(a5)
 338:C:/Users/stapi/OneDrive/Desktop/GD32VW553/V1_MQTT_OK/GD32VW55X_Wifi_BLE_SDK/GD32VW55x_RELEASE_V1.0.2/MSDK/plf/GD32VW55x_standard_peripheral/Source\gd32vw55x_fmc.c ****     }
 1150              		.loc 1 338 21
 1151 002c 37050001 		li	a0,16777216
 336:C:/Users/stapi/OneDrive/Desktop/GD32VW553/V1_MQTT_OK/GD32VW55X_Wifi_BLE_SDK/GD32VW55x_RELEASE_V1.0.2/MSDK/plf/GD32VW55x_standard_peripheral/Source\gd32vw55x_fmc.c ****         /* wait for the FMC ready */
 1152              		.loc 1 336 17
 1153 0030 1317E728 		bseti	a4,a4,14
 1154 0034 98CB     		sw	a4,16(a5)
 338:C:/Users/stapi/OneDrive/Desktop/GD32VW553/V1_MQTT_OK/GD32VW55X_Wifi_BLE_SDK/GD32VW55x_RELEASE_V1.0.2/MSDK/plf/GD32VW55x_standard_peripheral/Source\gd32vw55x_fmc.c ****     }
 1155              		.loc 1 338 9 is_stmt 1
 338:C:/Users/stapi/OneDrive/Desktop/GD32VW553/V1_MQTT_OK/GD32VW55X_Wifi_BLE_SDK/GD32VW55x_RELEASE_V1.0.2/MSDK/plf/GD32VW55x_standard_peripheral/Source\gd32vw55x_fmc.c ****     }
 1156              		.loc 1 338 21 is_stmt 0
 1157 0036 97000000 		call	fmc_ready_wait
 1157      E7800000 
 1158              	.LVL91:
 342:C:/Users/stapi/OneDrive/Desktop/GD32VW553/V1_MQTT_OK/GD32VW55X_Wifi_BLE_SDK/GD32VW55x_RELEASE_V1.0.2/MSDK/plf/GD32VW55x_standard_peripheral/Source\gd32vw55x_fmc.c **** }
 1159              		.loc 1 342 5 is_stmt 1
 1160              	.L69:
 343:C:/Users/stapi/OneDrive/Desktop/GD32VW553/V1_MQTT_OK/GD32VW55X_Wifi_BLE_SDK/GD32VW55x_RELEASE_V1.0.2/MSDK/plf/GD32VW55x_standard_peripheral/Source\gd32vw55x_fmc.c **** 
 1161              		.loc 1 343 1 is_stmt 0
 1162 003e 17030000 		tail	__riscv_restore_1
 1162      67000300 
 1163              		.cfi_restore 8
 1164              		.cfi_restore 1
 1165              		.cfi_def_cfa_offset 0
 1166              		.cfi_endproc
 1167              	.LFE378:
 1169              		.section	.text.ob_write_protection_config,"ax",@progbits
 1170              		.align	1
 1171              		.globl	ob_write_protection_config
 1173              	ob_write_protection_config:
 1174              	.LFB379:
 360:C:/Users/stapi/OneDrive/Desktop/GD32VW553/V1_MQTT_OK/GD32VW55X_Wifi_BLE_SDK/GD32VW55x_RELEASE_V1.0.2/MSDK/plf/GD32VW55x_standard_peripheral/Source\gd32vw55x_fmc.c ****     fmc_state_enum fmc_state = fmc_ready_wait(FMC_TIMEOUT_COUNT);
 1175              		.loc 1 360 1 is_stmt 1
 1176              		.cfi_startproc
 1177              	.LVL92:
 1178 0000 17030000 		call	t0,__riscv_save_3
 1178      E7020300 
 1179              		.cfi_offset 18, -16
 1180              		.cfi_offset 9, -12
 1181              		.cfi_offset 8, -8
 1182              		.cfi_offset 1, -4
 1183              		.cfi_def_cfa_offset 16
 361:C:/Users/stapi/OneDrive/Desktop/GD32VW553/V1_MQTT_OK/GD32VW55X_Wifi_BLE_SDK/GD32VW55x_RELEASE_V1.0.2/MSDK/plf/GD32VW55x_standard_peripheral/Source\gd32vw55x_fmc.c **** 
 1184              		.loc 1 361 5
 360:C:/Users/stapi/OneDrive/Desktop/GD32VW553/V1_MQTT_OK/GD32VW55X_Wifi_BLE_SDK/GD32VW55x_RELEASE_V1.0.2/MSDK/plf/GD32VW55x_standard_peripheral/Source\gd32vw55x_fmc.c ****     fmc_state_enum fmc_state = fmc_ready_wait(FMC_TIMEOUT_COUNT);
 1185              		.loc 1 360 1 is_stmt 0
 1186 0008 AA84     		mv	s1,a0
 361:C:/Users/stapi/OneDrive/Desktop/GD32VW553/V1_MQTT_OK/GD32VW55X_Wifi_BLE_SDK/GD32VW55x_RELEASE_V1.0.2/MSDK/plf/GD32VW55x_standard_peripheral/Source\gd32vw55x_fmc.c **** 
 1187              		.loc 1 361 32
 1188 000a 37050001 		li	a0,16777216
 1189              	.LVL93:
 360:C:/Users/stapi/OneDrive/Desktop/GD32VW553/V1_MQTT_OK/GD32VW55X_Wifi_BLE_SDK/GD32VW55x_RELEASE_V1.0.2/MSDK/plf/GD32VW55x_standard_peripheral/Source\gd32vw55x_fmc.c ****     fmc_state_enum fmc_state = fmc_ready_wait(FMC_TIMEOUT_COUNT);
 1190              		.loc 1 360 1
 1191 000e 2E84     		mv	s0,a1
 1192 0010 3289     		mv	s2,a2
 361:C:/Users/stapi/OneDrive/Desktop/GD32VW553/V1_MQTT_OK/GD32VW55X_Wifi_BLE_SDK/GD32VW55x_RELEASE_V1.0.2/MSDK/plf/GD32VW55x_standard_peripheral/Source\gd32vw55x_fmc.c **** 
 1193              		.loc 1 361 32
 1194 0012 97000000 		call	fmc_ready_wait
 1194      E7800000 
 1195              	.LVL94:
 363:C:/Users/stapi/OneDrive/Desktop/GD32VW553/V1_MQTT_OK/GD32VW55X_Wifi_BLE_SDK/GD32VW55x_RELEASE_V1.0.2/MSDK/plf/GD32VW55x_standard_peripheral/Source\gd32vw55x_fmc.c ****         switch(wrp_register_index){
 1196              		.loc 1 363 5 is_stmt 1
 363:C:/Users/stapi/OneDrive/Desktop/GD32VW553/V1_MQTT_OK/GD32VW55X_Wifi_BLE_SDK/GD32VW55x_RELEASE_V1.0.2/MSDK/plf/GD32VW55x_standard_peripheral/Source\gd32vw55x_fmc.c ****         switch(wrp_register_index){
 1197              		.loc 1 363 7 is_stmt 0
 1198 001a 15E1     		bne	a0,zero,.L72
 364:C:/Users/stapi/OneDrive/Desktop/GD32VW553/V1_MQTT_OK/GD32VW55X_Wifi_BLE_SDK/GD32VW55x_RELEASE_V1.0.2/MSDK/plf/GD32VW55x_standard_peripheral/Source\gd32vw55x_fmc.c ****         case OBWRP_INDEX0:
 1199              		.loc 1 364 9 is_stmt 1
 1200 001c 63050902 		beq	s2,zero,.L74
 1201 0020 8547     		li	a5,1
 1202 0022 630EF902 		beq	s2,a5,.L75
 1203              	.LVL95:
 1204              	.L76:
 379:C:/Users/stapi/OneDrive/Desktop/GD32VW553/V1_MQTT_OK/GD32VW55X_Wifi_BLE_SDK/GD32VW55x_RELEASE_V1.0.2/MSDK/plf/GD32VW55x_standard_peripheral/Source\gd32vw55x_fmc.c ****         /* wait for the FMC ready */
 1205              		.loc 1 379 9
 379:C:/Users/stapi/OneDrive/Desktop/GD32VW553/V1_MQTT_OK/GD32VW55X_Wifi_BLE_SDK/GD32VW55x_RELEASE_V1.0.2/MSDK/plf/GD32VW55x_standard_peripheral/Source\gd32vw55x_fmc.c ****         /* wait for the FMC ready */
 1206              		.loc 1 379 17 is_stmt 0
 1207 0026 37270240 		li	a4,1073881088
 1208 002a 1C4B     		lw	a5,16(a4)
 381:C:/Users/stapi/OneDrive/Desktop/GD32VW553/V1_MQTT_OK/GD32VW55X_Wifi_BLE_SDK/GD32VW55x_RELEASE_V1.0.2/MSDK/plf/GD32VW55x_standard_peripheral/Source\gd32vw55x_fmc.c ****     }
 1209              		.loc 1 381 21
 1210 002c 37050001 		li	a0,16777216
 379:C:/Users/stapi/OneDrive/Desktop/GD32VW553/V1_MQTT_OK/GD32VW55X_Wifi_BLE_SDK/GD32VW55x_RELEASE_V1.0.2/MSDK/plf/GD32VW55x_standard_peripheral/Source\gd32vw55x_fmc.c ****         /* wait for the FMC ready */
 1211              		.loc 1 379 17
 1212 0030 9397E728 		bseti	a5,a5,14
 1213 0034 1CCB     		sw	a5,16(a4)
 381:C:/Users/stapi/OneDrive/Desktop/GD32VW553/V1_MQTT_OK/GD32VW55X_Wifi_BLE_SDK/GD32VW55x_RELEASE_V1.0.2/MSDK/plf/GD32VW55x_standard_peripheral/Source\gd32vw55x_fmc.c ****     }
 1214              		.loc 1 381 9 is_stmt 1
 381:C:/Users/stapi/OneDrive/Desktop/GD32VW553/V1_MQTT_OK/GD32VW55X_Wifi_BLE_SDK/GD32VW55x_RELEASE_V1.0.2/MSDK/plf/GD32VW55x_standard_peripheral/Source\gd32vw55x_fmc.c ****     }
 1215              		.loc 1 381 21 is_stmt 0
 1216 0036 97000000 		call	fmc_ready_wait
 1216      E7800000 
 1217              	.LVL96:
 384:C:/Users/stapi/OneDrive/Desktop/GD32VW553/V1_MQTT_OK/GD32VW55X_Wifi_BLE_SDK/GD32VW55x_RELEASE_V1.0.2/MSDK/plf/GD32VW55x_standard_peripheral/Source\gd32vw55x_fmc.c **** }
 1218              		.loc 1 384 5 is_stmt 1
 1219              	.L72:
 385:C:/Users/stapi/OneDrive/Desktop/GD32VW553/V1_MQTT_OK/GD32VW55X_Wifi_BLE_SDK/GD32VW55x_RELEASE_V1.0.2/MSDK/plf/GD32VW55x_standard_peripheral/Source\gd32vw55x_fmc.c **** 
 1220              		.loc 1 385 1 is_stmt 0
 1221 003e 17030000 		tail	__riscv_restore_3
 1221      67000300 
 1222              		.cfi_remember_state
 1223              		.cfi_restore 18
 1224              		.cfi_restore 9
 1225              		.cfi_restore 8
 1226              		.cfi_restore 1
 1227              		.cfi_def_cfa_offset 0
 1228              	.LVL97:
 1229              	.L74:
 1230              		.cfi_restore_state
 366:C:/Users/stapi/OneDrive/Desktop/GD32VW553/V1_MQTT_OK/GD32VW55X_Wifi_BLE_SDK/GD32VW55x_RELEASE_V1.0.2/MSDK/plf/GD32VW55x_standard_peripheral/Source\gd32vw55x_fmc.c ****             FMC_OBWRP0 |= wrp_spage;
 1231              		.loc 1 366 13 is_stmt 1
 366:C:/Users/stapi/OneDrive/Desktop/GD32VW553/V1_MQTT_OK/GD32VW55X_Wifi_BLE_SDK/GD32VW55x_RELEASE_V1.0.2/MSDK/plf/GD32VW55x_standard_peripheral/Source\gd32vw55x_fmc.c ****             FMC_OBWRP0 |= wrp_spage;
 1232              		.loc 1 366 24 is_stmt 0
 1233 0046 B7270240 		li	a5,1073881088
 1234 004a 23A40704 		sw	zero,72(a5)
 367:C:/Users/stapi/OneDrive/Desktop/GD32VW553/V1_MQTT_OK/GD32VW55X_Wifi_BLE_SDK/GD32VW55x_RELEASE_V1.0.2/MSDK/plf/GD32VW55x_standard_peripheral/Source\gd32vw55x_fmc.c ****             FMC_OBWRP0 |= wrp_epage << FMC_EPAGE_OFFSET;
 1235              		.loc 1 367 13 is_stmt 1
 367:C:/Users/stapi/OneDrive/Desktop/GD32VW553/V1_MQTT_OK/GD32VW55X_Wifi_BLE_SDK/GD32VW55x_RELEASE_V1.0.2/MSDK/plf/GD32VW55x_standard_peripheral/Source\gd32vw55x_fmc.c ****             FMC_OBWRP0 |= wrp_epage << FMC_EPAGE_OFFSET;
 1236              		.loc 1 367 24 is_stmt 0
 1237 004e A847     		lw	a0,72(a5)
 1238              	.LVL98:
 368:C:/Users/stapi/OneDrive/Desktop/GD32VW553/V1_MQTT_OK/GD32VW55X_Wifi_BLE_SDK/GD32VW55x_RELEASE_V1.0.2/MSDK/plf/GD32VW55x_standard_peripheral/Source\gd32vw55x_fmc.c ****             break;
 1239              		.loc 1 368 37
 1240 0050 4204     		slli	s0,s0,16
 1241              	.LVL99:
 367:C:/Users/stapi/OneDrive/Desktop/GD32VW553/V1_MQTT_OK/GD32VW55X_Wifi_BLE_SDK/GD32VW55x_RELEASE_V1.0.2/MSDK/plf/GD32VW55x_standard_peripheral/Source\gd32vw55x_fmc.c ****             FMC_OBWRP0 |= wrp_epage << FMC_EPAGE_OFFSET;
 1242              		.loc 1 367 24
 1243 0052 C98C     		or	s1,a0,s1
 1244              	.LVL100:
 1245 0054 A4C7     		sw	s1,72(a5)
 368:C:/Users/stapi/OneDrive/Desktop/GD32VW553/V1_MQTT_OK/GD32VW55X_Wifi_BLE_SDK/GD32VW55x_RELEASE_V1.0.2/MSDK/plf/GD32VW55x_standard_peripheral/Source\gd32vw55x_fmc.c ****             break;
 1246              		.loc 1 368 13 is_stmt 1
 368:C:/Users/stapi/OneDrive/Desktop/GD32VW553/V1_MQTT_OK/GD32VW55X_Wifi_BLE_SDK/GD32VW55x_RELEASE_V1.0.2/MSDK/plf/GD32VW55x_standard_peripheral/Source\gd32vw55x_fmc.c ****             break;
 1247              		.loc 1 368 24 is_stmt 0
 1248 0056 AC47     		lw	a1,72(a5)
 1249 0058 4D8C     		or	s0,s0,a1
 1250 005a A0C7     		sw	s0,72(a5)
 369:C:/Users/stapi/OneDrive/Desktop/GD32VW553/V1_MQTT_OK/GD32VW55X_Wifi_BLE_SDK/GD32VW55x_RELEASE_V1.0.2/MSDK/plf/GD32VW55x_standard_peripheral/Source\gd32vw55x_fmc.c ****         case OBWRP_INDEX1:
 1251              		.loc 1 369 13 is_stmt 1
 1252 005c E9B7     		j	.L76
 1253              	.LVL101:
 1254              	.L75:
 371:C:/Users/stapi/OneDrive/Desktop/GD32VW553/V1_MQTT_OK/GD32VW55X_Wifi_BLE_SDK/GD32VW55x_RELEASE_V1.0.2/MSDK/plf/GD32VW55x_standard_peripheral/Source\gd32vw55x_fmc.c ****             FMC_OBWRP1 |= wrp_spage;
 1255              		.loc 1 371 13
 371:C:/Users/stapi/OneDrive/Desktop/GD32VW553/V1_MQTT_OK/GD32VW55X_Wifi_BLE_SDK/GD32VW55x_RELEASE_V1.0.2/MSDK/plf/GD32VW55x_standard_peripheral/Source\gd32vw55x_fmc.c ****             FMC_OBWRP1 |= wrp_spage;
 1256              		.loc 1 371 24 is_stmt 0
 1257 005e B7270240 		li	a5,1073881088
 1258 0062 23A60704 		sw	zero,76(a5)
 372:C:/Users/stapi/OneDrive/Desktop/GD32VW553/V1_MQTT_OK/GD32VW55X_Wifi_BLE_SDK/GD32VW55x_RELEASE_V1.0.2/MSDK/plf/GD32VW55x_standard_peripheral/Source\gd32vw55x_fmc.c ****             FMC_OBWRP1 |= wrp_epage << FMC_EPAGE_OFFSET;
 1259              		.loc 1 372 13 is_stmt 1
 372:C:/Users/stapi/OneDrive/Desktop/GD32VW553/V1_MQTT_OK/GD32VW55X_Wifi_BLE_SDK/GD32VW55x_RELEASE_V1.0.2/MSDK/plf/GD32VW55x_standard_peripheral/Source\gd32vw55x_fmc.c ****             FMC_OBWRP1 |= wrp_epage << FMC_EPAGE_OFFSET;
 1260              		.loc 1 372 24 is_stmt 0
 1261 0066 E847     		lw	a0,76(a5)
 1262              	.LVL102:
 373:C:/Users/stapi/OneDrive/Desktop/GD32VW553/V1_MQTT_OK/GD32VW55X_Wifi_BLE_SDK/GD32VW55x_RELEASE_V1.0.2/MSDK/plf/GD32VW55x_standard_peripheral/Source\gd32vw55x_fmc.c ****             break;
 1263              		.loc 1 373 37
 1264 0068 4204     		slli	s0,s0,16
 1265              	.LVL103:
 372:C:/Users/stapi/OneDrive/Desktop/GD32VW553/V1_MQTT_OK/GD32VW55X_Wifi_BLE_SDK/GD32VW55x_RELEASE_V1.0.2/MSDK/plf/GD32VW55x_standard_peripheral/Source\gd32vw55x_fmc.c ****             FMC_OBWRP1 |= wrp_epage << FMC_EPAGE_OFFSET;
 1266              		.loc 1 372 24
 1267 006a C98C     		or	s1,a0,s1
 1268              	.LVL104:
 1269 006c E4C7     		sw	s1,76(a5)
 373:C:/Users/stapi/OneDrive/Desktop/GD32VW553/V1_MQTT_OK/GD32VW55X_Wifi_BLE_SDK/GD32VW55x_RELEASE_V1.0.2/MSDK/plf/GD32VW55x_standard_peripheral/Source\gd32vw55x_fmc.c ****             break;
 1270              		.loc 1 373 13 is_stmt 1
 373:C:/Users/stapi/OneDrive/Desktop/GD32VW553/V1_MQTT_OK/GD32VW55X_Wifi_BLE_SDK/GD32VW55x_RELEASE_V1.0.2/MSDK/plf/GD32VW55x_standard_peripheral/Source\gd32vw55x_fmc.c ****             break;
 1271              		.loc 1 373 24 is_stmt 0
 1272 006e EC47     		lw	a1,76(a5)
 1273 0070 4D8C     		or	s0,s0,a1
 1274 0072 E0C7     		sw	s0,76(a5)
 374:C:/Users/stapi/OneDrive/Desktop/GD32VW553/V1_MQTT_OK/GD32VW55X_Wifi_BLE_SDK/GD32VW55x_RELEASE_V1.0.2/MSDK/plf/GD32VW55x_standard_peripheral/Source\gd32vw55x_fmc.c ****         default:
 1275              		.loc 1 374 13 is_stmt 1
 1276 0074 4DBF     		j	.L76
 1277              		.cfi_endproc
 1278              	.LFE379:
 1280              		.text
 1281              	.Letext0:
 1282              		.file 2 "c:\\users\\stapi\\onedrive\\desktop\\gd32vw553\\embeddedbuilder_v1.4.7.26843\\tools\\nucl
 1283              		.file 3 "c:\\users\\stapi\\onedrive\\desktop\\gd32vw553\\embeddedbuilder_v1.4.7.26843\\tools\\nucl
 1284              		.file 4 "..\\..\\..\\..\\plf\\riscv\\gd32vw55x/gd32vw55x.h"
 1285              		.file 5 "..\\..\\..\\..\\plf\\GD32VW55x_standard_peripheral\\Include/gd32vw55x_fmc.h"
DEFINED SYMBOLS
                            *ABS*:0000000000000000 gd32vw55x_fmc.c
C:\Users\stapi\AppData\Local\Temp\ccGAwuGe.s:13     .text.fmc_unlock:0000000000000000 fmc_unlock
C:\Users\stapi\AppData\Local\Temp\ccGAwuGe.s:17     .text.fmc_unlock:0000000000000000 .L0 
C:\Users\stapi\AppData\Local\Temp\ccGAwuGe.s:18     .text.fmc_unlock:0000000000000000 .L0 
C:\Users\stapi\AppData\Local\Temp\ccGAwuGe.s:19     .text.fmc_unlock:0000000000000000 .L0 
C:\Users\stapi\AppData\Local\Temp\ccGAwuGe.s:20     .text.fmc_unlock:0000000000000000 .L0 
C:\Users\stapi\AppData\Local\Temp\ccGAwuGe.s:23     .text.fmc_unlock:0000000000000006 .L0 
C:\Users\stapi\AppData\Local\Temp\ccGAwuGe.s:25     .text.fmc_unlock:000000000000000a .L0 
C:\Users\stapi\AppData\Local\Temp\ccGAwuGe.s:27     .text.fmc_unlock:000000000000000c .L0 
C:\Users\stapi\AppData\Local\Temp\ccGAwuGe.s:28     .text.fmc_unlock:000000000000000c .L0 
C:\Users\stapi\AppData\Local\Temp\ccGAwuGe.s:32     .text.fmc_unlock:0000000000000016 .L0 
C:\Users\stapi\AppData\Local\Temp\ccGAwuGe.s:33     .text.fmc_unlock:0000000000000016 .L0 
C:\Users\stapi\AppData\Local\Temp\ccGAwuGe.s:38     .text.fmc_unlock:0000000000000020 .L0 
C:\Users\stapi\AppData\Local\Temp\ccGAwuGe.s:39     .text.fmc_unlock:0000000000000022 .L0 
C:\Users\stapi\AppData\Local\Temp\ccGAwuGe.s:46     .text.fmc_lock:0000000000000000 fmc_lock
C:\Users\stapi\AppData\Local\Temp\ccGAwuGe.s:49     .text.fmc_lock:0000000000000000 .L0 
C:\Users\stapi\AppData\Local\Temp\ccGAwuGe.s:50     .text.fmc_lock:0000000000000000 .L0 
C:\Users\stapi\AppData\Local\Temp\ccGAwuGe.s:51     .text.fmc_lock:0000000000000000 .L0 
C:\Users\stapi\AppData\Local\Temp\ccGAwuGe.s:52     .text.fmc_lock:0000000000000000 .L0 
C:\Users\stapi\AppData\Local\Temp\ccGAwuGe.s:57     .text.fmc_lock:000000000000000c .L0 
C:\Users\stapi\AppData\Local\Temp\ccGAwuGe.s:58     .text.fmc_lock:000000000000000e .L0 
C:\Users\stapi\AppData\Local\Temp\ccGAwuGe.s:65     .text.fmc_obr_function_enable:0000000000000000 fmc_obr_function_enable
C:\Users\stapi\AppData\Local\Temp\ccGAwuGe.s:68     .text.fmc_obr_function_enable:0000000000000000 .L0 
C:\Users\stapi\AppData\Local\Temp\ccGAwuGe.s:70     .text.fmc_obr_function_enable:0000000000000000 .L0 
C:\Users\stapi\AppData\Local\Temp\ccGAwuGe.s:71     .text.fmc_obr_function_enable:0000000000000000 .L0 
C:\Users\stapi\AppData\Local\Temp\ccGAwuGe.s:72     .text.fmc_obr_function_enable:0000000000000000 .L0 
C:\Users\stapi\AppData\Local\Temp\ccGAwuGe.s:77     .text.fmc_obr_function_enable:000000000000000a .L0 
C:\Users\stapi\AppData\Local\Temp\ccGAwuGe.s:78     .text.fmc_obr_function_enable:000000000000000c .L0 
C:\Users\stapi\AppData\Local\Temp\ccGAwuGe.s:85     .text.fmc_obr_function_disable:0000000000000000 fmc_obr_function_disable
C:\Users\stapi\AppData\Local\Temp\ccGAwuGe.s:88     .text.fmc_obr_function_disable:0000000000000000 .L0 
C:\Users\stapi\AppData\Local\Temp\ccGAwuGe.s:90     .text.fmc_obr_function_disable:0000000000000000 .L0 
C:\Users\stapi\AppData\Local\Temp\ccGAwuGe.s:91     .text.fmc_obr_function_disable:0000000000000000 .L0 
C:\Users\stapi\AppData\Local\Temp\ccGAwuGe.s:92     .text.fmc_obr_function_disable:0000000000000000 .L0 
C:\Users\stapi\AppData\Local\Temp\ccGAwuGe.s:98     .text.fmc_obr_function_disable:000000000000000c .L0 
C:\Users\stapi\AppData\Local\Temp\ccGAwuGe.s:99     .text.fmc_obr_function_disable:000000000000000e .L0 
C:\Users\stapi\AppData\Local\Temp\ccGAwuGe.s:106    .text.ob_unlock:0000000000000000 ob_unlock
C:\Users\stapi\AppData\Local\Temp\ccGAwuGe.s:109    .text.ob_unlock:0000000000000000 .L0 
C:\Users\stapi\AppData\Local\Temp\ccGAwuGe.s:110    .text.ob_unlock:0000000000000000 .L0 
C:\Users\stapi\AppData\Local\Temp\ccGAwuGe.s:111    .text.ob_unlock:0000000000000000 .L0 
C:\Users\stapi\AppData\Local\Temp\ccGAwuGe.s:112    .text.ob_unlock:0000000000000000 .L0 
C:\Users\stapi\AppData\Local\Temp\ccGAwuGe.s:115    .text.ob_unlock:0000000000000006 .L0 
C:\Users\stapi\AppData\Local\Temp\ccGAwuGe.s:117    .text.ob_unlock:000000000000000a .L0 
C:\Users\stapi\AppData\Local\Temp\ccGAwuGe.s:119    .text.ob_unlock:000000000000000c .L0 
C:\Users\stapi\AppData\Local\Temp\ccGAwuGe.s:120    .text.ob_unlock:000000000000000c .L0 
C:\Users\stapi\AppData\Local\Temp\ccGAwuGe.s:124    .text.ob_unlock:0000000000000016 .L0 
C:\Users\stapi\AppData\Local\Temp\ccGAwuGe.s:125    .text.ob_unlock:0000000000000016 .L0 
C:\Users\stapi\AppData\Local\Temp\ccGAwuGe.s:130    .text.ob_unlock:0000000000000020 .L0 
C:\Users\stapi\AppData\Local\Temp\ccGAwuGe.s:131    .text.ob_unlock:0000000000000022 .L0 
C:\Users\stapi\AppData\Local\Temp\ccGAwuGe.s:138    .text.ob_lock:0000000000000000 ob_lock
C:\Users\stapi\AppData\Local\Temp\ccGAwuGe.s:141    .text.ob_lock:0000000000000000 .L0 
C:\Users\stapi\AppData\Local\Temp\ccGAwuGe.s:142    .text.ob_lock:0000000000000000 .L0 
C:\Users\stapi\AppData\Local\Temp\ccGAwuGe.s:143    .text.ob_lock:0000000000000000 .L0 
C:\Users\stapi\AppData\Local\Temp\ccGAwuGe.s:144    .text.ob_lock:0000000000000000 .L0 
C:\Users\stapi\AppData\Local\Temp\ccGAwuGe.s:149    .text.ob_lock:000000000000000c .L0 
C:\Users\stapi\AppData\Local\Temp\ccGAwuGe.s:150    .text.ob_lock:000000000000000e .L0 
C:\Users\stapi\AppData\Local\Temp\ccGAwuGe.s:157    .text.ob_start:0000000000000000 ob_start
C:\Users\stapi\AppData\Local\Temp\ccGAwuGe.s:160    .text.ob_start:0000000000000000 .L0 
C:\Users\stapi\AppData\Local\Temp\ccGAwuGe.s:161    .text.ob_start:0000000000000000 .L0 
C:\Users\stapi\AppData\Local\Temp\ccGAwuGe.s:162    .text.ob_start:0000000000000000 .L0 
C:\Users\stapi\AppData\Local\Temp\ccGAwuGe.s:163    .text.ob_start:0000000000000000 .L0 
C:\Users\stapi\AppData\Local\Temp\ccGAwuGe.s:170    .text.ob_start:0000000000000010 .L0 
C:\Users\stapi\AppData\Local\Temp\ccGAwuGe.s:171    .text.ob_start:0000000000000012 .L0 
C:\Users\stapi\AppData\Local\Temp\ccGAwuGe.s:178    .text.ob_reload:0000000000000000 ob_reload
C:\Users\stapi\AppData\Local\Temp\ccGAwuGe.s:181    .text.ob_reload:0000000000000000 .L0 
C:\Users\stapi\AppData\Local\Temp\ccGAwuGe.s:182    .text.ob_reload:0000000000000000 .L0 
C:\Users\stapi\AppData\Local\Temp\ccGAwuGe.s:183    .text.ob_reload:0000000000000000 .L0 
C:\Users\stapi\AppData\Local\Temp\ccGAwuGe.s:184    .text.ob_reload:0000000000000000 .L0 
C:\Users\stapi\AppData\Local\Temp\ccGAwuGe.s:189    .text.ob_reload:000000000000000c .L0 
C:\Users\stapi\AppData\Local\Temp\ccGAwuGe.s:190    .text.ob_reload:000000000000000e .L0 
C:\Users\stapi\AppData\Local\Temp\ccGAwuGe.s:197    .text.fmc_no_rtdec_config:0000000000000000 fmc_no_rtdec_config
C:\Users\stapi\AppData\Local\Temp\ccGAwuGe.s:200    .text.fmc_no_rtdec_config:0000000000000000 .L0 
C:\Users\stapi\AppData\Local\Temp\ccGAwuGe.s:202    .text.fmc_no_rtdec_config:0000000000000000 .L0 
C:\Users\stapi\AppData\Local\Temp\ccGAwuGe.s:203    .text.fmc_no_rtdec_config:0000000000000000 .L0 
C:\Users\stapi\AppData\Local\Temp\ccGAwuGe.s:210    .text.fmc_no_rtdec_config:000000000000000e .L0 
C:\Users\stapi\AppData\Local\Temp\ccGAwuGe.s:211    .text.fmc_no_rtdec_config:000000000000000e .L0 
C:\Users\stapi\AppData\Local\Temp\ccGAwuGe.s:214    .text.fmc_no_rtdec_config:0000000000000016 .L0 
C:\Users\stapi\AppData\Local\Temp\ccGAwuGe.s:215    .text.fmc_no_rtdec_config:0000000000000016 .L0 
C:\Users\stapi\AppData\Local\Temp\ccGAwuGe.s:220    .text.fmc_no_rtdec_config:000000000000001c .L0 
C:\Users\stapi\AppData\Local\Temp\ccGAwuGe.s:221    .text.fmc_no_rtdec_config:000000000000001c .L0 
C:\Users\stapi\AppData\Local\Temp\ccGAwuGe.s:225    .text.fmc_no_rtdec_config:0000000000000022 .L0 
C:\Users\stapi\AppData\Local\Temp\ccGAwuGe.s:229    .text.fmc_no_rtdec_config:0000000000000024 .L0 
C:\Users\stapi\AppData\Local\Temp\ccGAwuGe.s:235    .text.fmc_no_rtdec_config:000000000000002c .L0 
C:\Users\stapi\AppData\Local\Temp\ccGAwuGe.s:236    .text.fmc_no_rtdec_config:000000000000002c .L0 
C:\Users\stapi\AppData\Local\Temp\ccGAwuGe.s:239    .text.fmc_no_rtdec_config:0000000000000034 .L0 
C:\Users\stapi\AppData\Local\Temp\ccGAwuGe.s:240    .text.fmc_no_rtdec_config:0000000000000034 .L0 
C:\Users\stapi\AppData\Local\Temp\ccGAwuGe.s:245    .text.fmc_no_rtdec_config:000000000000003a .L0 
C:\Users\stapi\AppData\Local\Temp\ccGAwuGe.s:246    .text.fmc_no_rtdec_config:000000000000003a .L0 
C:\Users\stapi\AppData\Local\Temp\ccGAwuGe.s:250    .text.fmc_no_rtdec_config:0000000000000040 .L0 
C:\Users\stapi\AppData\Local\Temp\ccGAwuGe.s:254    .text.fmc_no_rtdec_config:0000000000000042 .L0 
C:\Users\stapi\AppData\Local\Temp\ccGAwuGe.s:255    .text.fmc_no_rtdec_config:0000000000000042 .L0 
C:\Users\stapi\AppData\Local\Temp\ccGAwuGe.s:258    .text.fmc_no_rtdec_config:000000000000004a .L0 
C:\Users\stapi\AppData\Local\Temp\ccGAwuGe.s:259    .text.fmc_no_rtdec_config:000000000000004a .L0 
C:\Users\stapi\AppData\Local\Temp\ccGAwuGe.s:261    .text.fmc_no_rtdec_config:000000000000004c .L0 
C:\Users\stapi\AppData\Local\Temp\ccGAwuGe.s:264    .text.fmc_no_rtdec_config:000000000000004e .L0 
C:\Users\stapi\AppData\Local\Temp\ccGAwuGe.s:268    .text.fmc_no_rtdec_config:0000000000000052 .L0 
C:\Users\stapi\AppData\Local\Temp\ccGAwuGe.s:269    .text.fmc_no_rtdec_config:0000000000000052 .L0 
C:\Users\stapi\AppData\Local\Temp\ccGAwuGe.s:273    .text.fmc_no_rtdec_config:0000000000000058 .L0 
C:\Users\stapi\AppData\Local\Temp\ccGAwuGe.s:277    .text.fmc_no_rtdec_config:000000000000005a .L0 
C:\Users\stapi\AppData\Local\Temp\ccGAwuGe.s:278    .text.fmc_no_rtdec_config:000000000000005a .L0 
C:\Users\stapi\AppData\Local\Temp\ccGAwuGe.s:281    .text.fmc_no_rtdec_config:0000000000000062 .L0 
C:\Users\stapi\AppData\Local\Temp\ccGAwuGe.s:282    .text.fmc_no_rtdec_config:0000000000000062 .L0 
C:\Users\stapi\AppData\Local\Temp\ccGAwuGe.s:284    .text.fmc_no_rtdec_config:0000000000000064 .L0 
C:\Users\stapi\AppData\Local\Temp\ccGAwuGe.s:287    .text.fmc_no_rtdec_config:0000000000000066 .L0 
C:\Users\stapi\AppData\Local\Temp\ccGAwuGe.s:291    .text.fmc_no_rtdec_config:000000000000006a .L0 
C:\Users\stapi\AppData\Local\Temp\ccGAwuGe.s:292    .text.fmc_no_rtdec_config:000000000000006a .L0 
C:\Users\stapi\AppData\Local\Temp\ccGAwuGe.s:296    .text.fmc_no_rtdec_config:0000000000000070 .L0 
C:\Users\stapi\AppData\Local\Temp\ccGAwuGe.s:297    .text.fmc_no_rtdec_config:0000000000000070 .L0 
C:\Users\stapi\AppData\Local\Temp\ccGAwuGe.s:298    .text.fmc_no_rtdec_config:0000000000000072 .L0 
C:\Users\stapi\AppData\Local\Temp\ccGAwuGe.s:305    .text.fmc_offset_region_config:0000000000000000 fmc_offset_region_config
C:\Users\stapi\AppData\Local\Temp\ccGAwuGe.s:308    .text.fmc_offset_region_config:0000000000000000 .L0 
C:\Users\stapi\AppData\Local\Temp\ccGAwuGe.s:310    .text.fmc_offset_region_config:0000000000000000 .L0 
C:\Users\stapi\AppData\Local\Temp\ccGAwuGe.s:311    .text.fmc_offset_region_config:0000000000000000 .L0 
C:\Users\stapi\AppData\Local\Temp\ccGAwuGe.s:312    .text.fmc_offset_region_config:0000000000000000 .L0 
C:\Users\stapi\AppData\Local\Temp\ccGAwuGe.s:315    .text.fmc_offset_region_config:0000000000000008 .L0 
C:\Users\stapi\AppData\Local\Temp\ccGAwuGe.s:316    .text.fmc_offset_region_config:0000000000000008 .L0 
C:\Users\stapi\AppData\Local\Temp\ccGAwuGe.s:319    .text.fmc_offset_region_config:000000000000000e .L0 
C:\Users\stapi\AppData\Local\Temp\ccGAwuGe.s:322    .text.fmc_offset_region_config:0000000000000010 .L0 
C:\Users\stapi\AppData\Local\Temp\ccGAwuGe.s:325    .text.fmc_offset_region_config:0000000000000014 .L0 
C:\Users\stapi\AppData\Local\Temp\ccGAwuGe.s:326    .text.fmc_offset_region_config:0000000000000014 .L0 
C:\Users\stapi\AppData\Local\Temp\ccGAwuGe.s:330    .text.fmc_offset_region_config:000000000000001a .L0 
C:\Users\stapi\AppData\Local\Temp\ccGAwuGe.s:331    .text.fmc_offset_region_config:000000000000001c .L0 
C:\Users\stapi\AppData\Local\Temp\ccGAwuGe.s:338    .text.fmc_offset_value_config:0000000000000000 fmc_offset_value_config
C:\Users\stapi\AppData\Local\Temp\ccGAwuGe.s:341    .text.fmc_offset_value_config:0000000000000000 .L0 
C:\Users\stapi\AppData\Local\Temp\ccGAwuGe.s:343    .text.fmc_offset_value_config:0000000000000000 .L0 
C:\Users\stapi\AppData\Local\Temp\ccGAwuGe.s:344    .text.fmc_offset_value_config:0000000000000000 .L0 
C:\Users\stapi\AppData\Local\Temp\ccGAwuGe.s:345    .text.fmc_offset_value_config:0000000000000000 .L0 
C:\Users\stapi\AppData\Local\Temp\ccGAwuGe.s:348    .text.fmc_offset_value_config:0000000000000008 .L0 
C:\Users\stapi\AppData\Local\Temp\ccGAwuGe.s:349    .text.fmc_offset_value_config:0000000000000008 .L0 
C:\Users\stapi\AppData\Local\Temp\ccGAwuGe.s:353    .text.fmc_offset_value_config:0000000000000012 .L0 
C:\Users\stapi\AppData\Local\Temp\ccGAwuGe.s:354    .text.fmc_offset_value_config:0000000000000014 .L0 
C:\Users\stapi\AppData\Local\Temp\ccGAwuGe.s:361    .text.fmc_wifi_trim_cal_get:0000000000000000 fmc_wifi_trim_cal_get
C:\Users\stapi\AppData\Local\Temp\ccGAwuGe.s:364    .text.fmc_wifi_trim_cal_get:0000000000000000 .L0 
C:\Users\stapi\AppData\Local\Temp\ccGAwuGe.s:366    .text.fmc_wifi_trim_cal_get:0000000000000000 .L0 
C:\Users\stapi\AppData\Local\Temp\ccGAwuGe.s:367    .text.fmc_wifi_trim_cal_get:0000000000000000 .L0 
C:\Users\stapi\AppData\Local\Temp\ccGAwuGe.s:368    .text.fmc_wifi_trim_cal_get:0000000000000000 .L0 
C:\Users\stapi\AppData\Local\Temp\ccGAwuGe.s:369    .text.fmc_wifi_trim_cal_get:0000000000000000 .L0 
C:\Users\stapi\AppData\Local\Temp\ccGAwuGe.s:370    .text.fmc_wifi_trim_cal_get:0000000000000000 .L0 
C:\Users\stapi\AppData\Local\Temp\ccGAwuGe.s:374    .text.fmc_wifi_trim_cal_get:0000000000000008 .L0 
C:\Users\stapi\AppData\Local\Temp\ccGAwuGe.s:375    .text.fmc_wifi_trim_cal_get:0000000000000008 .L0 
C:\Users\stapi\AppData\Local\Temp\ccGAwuGe.s:377    .text.fmc_wifi_trim_cal_get:000000000000000c .L0 
C:\Users\stapi\AppData\Local\Temp\ccGAwuGe.s:380    .text.fmc_wifi_trim_cal_get:0000000000000010 .L0 
C:\Users\stapi\AppData\Local\Temp\ccGAwuGe.s:381    .text.fmc_wifi_trim_cal_get:0000000000000010 .L0 
C:\Users\stapi\AppData\Local\Temp\ccGAwuGe.s:383    .text.fmc_wifi_trim_cal_get:0000000000000014 .L0 
C:\Users\stapi\AppData\Local\Temp\ccGAwuGe.s:385    .text.fmc_wifi_trim_cal_get:0000000000000018 .L0 
C:\Users\stapi\AppData\Local\Temp\ccGAwuGe.s:386    .text.fmc_wifi_trim_cal_get:0000000000000018 .L0 
C:\Users\stapi\AppData\Local\Temp\ccGAwuGe.s:390    .text.fmc_wifi_trim_cal_get:000000000000001e .L0 
C:\Users\stapi\AppData\Local\Temp\ccGAwuGe.s:392    .text.fmc_wifi_trim_cal_get:0000000000000020 .L0 
C:\Users\stapi\AppData\Local\Temp\ccGAwuGe.s:393    .text.fmc_wifi_trim_cal_get:0000000000000020 .L0 
C:\Users\stapi\AppData\Local\Temp\ccGAwuGe.s:399    .text.fmc_wifi_trim_cal_get:0000000000000028 .L0 
C:\Users\stapi\AppData\Local\Temp\ccGAwuGe.s:401    .text.fmc_wifi_trim_cal_get:000000000000002a .L0 
C:\Users\stapi\AppData\Local\Temp\ccGAwuGe.s:402    .text.fmc_wifi_trim_cal_get:000000000000002a .L0 
C:\Users\stapi\AppData\Local\Temp\ccGAwuGe.s:405    .text.fmc_wifi_trim_cal_get:000000000000002c .L0 
C:\Users\stapi\AppData\Local\Temp\ccGAwuGe.s:407    .text.fmc_wifi_trim_cal_get:000000000000002e .L0 
C:\Users\stapi\AppData\Local\Temp\ccGAwuGe.s:408    .text.fmc_wifi_trim_cal_get:0000000000000030 .L0 
C:\Users\stapi\AppData\Local\Temp\ccGAwuGe.s:415    .text.fmc_wifi_trim_pa_get:0000000000000000 fmc_wifi_trim_pa_get
C:\Users\stapi\AppData\Local\Temp\ccGAwuGe.s:418    .text.fmc_wifi_trim_pa_get:0000000000000000 .L0 
C:\Users\stapi\AppData\Local\Temp\ccGAwuGe.s:420    .text.fmc_wifi_trim_pa_get:0000000000000000 .L0 
C:\Users\stapi\AppData\Local\Temp\ccGAwuGe.s:421    .text.fmc_wifi_trim_pa_get:0000000000000000 .L0 
C:\Users\stapi\AppData\Local\Temp\ccGAwuGe.s:422    .text.fmc_wifi_trim_pa_get:0000000000000000 .L0 
C:\Users\stapi\AppData\Local\Temp\ccGAwuGe.s:423    .text.fmc_wifi_trim_pa_get:0000000000000000 .L0 
C:\Users\stapi\AppData\Local\Temp\ccGAwuGe.s:427    .text.fmc_wifi_trim_pa_get:0000000000000008 .L0 
C:\Users\stapi\AppData\Local\Temp\ccGAwuGe.s:428    .text.fmc_wifi_trim_pa_get:0000000000000008 .L0 
C:\Users\stapi\AppData\Local\Temp\ccGAwuGe.s:430    .text.fmc_wifi_trim_pa_get:000000000000000c .L0 
C:\Users\stapi\AppData\Local\Temp\ccGAwuGe.s:432    .text.fmc_wifi_trim_pa_get:000000000000000e .L0 
C:\Users\stapi\AppData\Local\Temp\ccGAwuGe.s:433    .text.fmc_wifi_trim_pa_get:000000000000000e .L0 
C:\Users\stapi\AppData\Local\Temp\ccGAwuGe.s:436    .text.fmc_wifi_trim_pa_get:0000000000000012 .L0 
C:\Users\stapi\AppData\Local\Temp\ccGAwuGe.s:438    .text.fmc_wifi_trim_pa_get:0000000000000014 .L0 
C:\Users\stapi\AppData\Local\Temp\ccGAwuGe.s:439    .text.fmc_wifi_trim_pa_get:0000000000000016 .L0 
C:\Users\stapi\AppData\Local\Temp\ccGAwuGe.s:446    .text.fmc_wifi_trim_get:0000000000000000 fmc_wifi_trim_get
C:\Users\stapi\AppData\Local\Temp\ccGAwuGe.s:449    .text.fmc_wifi_trim_get:0000000000000000 .L0 
C:\Users\stapi\AppData\Local\Temp\ccGAwuGe.s:451    .text.fmc_wifi_trim_get:0000000000000000 .L0 
C:\Users\stapi\AppData\Local\Temp\ccGAwuGe.s:452    .text.fmc_wifi_trim_get:0000000000000000 .L0 
C:\Users\stapi\AppData\Local\Temp\ccGAwuGe.s:453    .text.fmc_wifi_trim_get:0000000000000000 .L0 
C:\Users\stapi\AppData\Local\Temp\ccGAwuGe.s:454    .text.fmc_wifi_trim_get:0000000000000000 .L0 
C:\Users\stapi\AppData\Local\Temp\ccGAwuGe.s:458    .text.fmc_wifi_trim_get:000000000000000a .L0 
C:\Users\stapi\AppData\Local\Temp\ccGAwuGe.s:462    .text.fmc_wifi_trim_get:0000000000000016 .L0 
C:\Users\stapi\AppData\Local\Temp\ccGAwuGe.s:466    .text.fmc_wifi_trim_get:000000000000001a .L0 
C:\Users\stapi\AppData\Local\Temp\ccGAwuGe.s:467    .text.fmc_wifi_trim_get:000000000000001a .L0 
C:\Users\stapi\AppData\Local\Temp\ccGAwuGe.s:469    .text.fmc_wifi_trim_get:000000000000001c .L0 
C:\Users\stapi\AppData\Local\Temp\ccGAwuGe.s:473    .text.fmc_wifi_trim_get:0000000000000024 .L0 
C:\Users\stapi\AppData\Local\Temp\ccGAwuGe.s:474    .text.fmc_wifi_trim_get:0000000000000024 .L0 
C:\Users\stapi\AppData\Local\Temp\ccGAwuGe.s:475    .text.fmc_wifi_trim_get:0000000000000024 .L0 
C:\Users\stapi\AppData\Local\Temp\ccGAwuGe.s:478    .text.fmc_wifi_trim_get:000000000000002a .L0 
C:\Users\stapi\AppData\Local\Temp\ccGAwuGe.s:483    .text.fmc_wifi_trim_get:000000000000002e .L0 
C:\Users\stapi\AppData\Local\Temp\ccGAwuGe.s:486    .text.fmc_wifi_trim_get:0000000000000030 .L0 
C:\Users\stapi\AppData\Local\Temp\ccGAwuGe.s:487    .text.fmc_wifi_trim_get:0000000000000032 .L0 
C:\Users\stapi\AppData\Local\Temp\ccGAwuGe.s:494    .text.fmc_pid_get:0000000000000000 fmc_pid_get
C:\Users\stapi\AppData\Local\Temp\ccGAwuGe.s:497    .text.fmc_pid_get:0000000000000000 .L0 
C:\Users\stapi\AppData\Local\Temp\ccGAwuGe.s:499    .text.fmc_pid_get:0000000000000000 .L0 
C:\Users\stapi\AppData\Local\Temp\ccGAwuGe.s:500    .text.fmc_pid_get:0000000000000000 .L0 
C:\Users\stapi\AppData\Local\Temp\ccGAwuGe.s:501    .text.fmc_pid_get:0000000000000000 .L0 
C:\Users\stapi\AppData\Local\Temp\ccGAwuGe.s:502    .text.fmc_pid_get:0000000000000000 .L0 
C:\Users\stapi\AppData\Local\Temp\ccGAwuGe.s:505    .text.fmc_pid_get:0000000000000008 .L0 
C:\Users\stapi\AppData\Local\Temp\ccGAwuGe.s:508    .text.fmc_pid_get:000000000000000a .L0 
C:\Users\stapi\AppData\Local\Temp\ccGAwuGe.s:509    .text.fmc_pid_get:000000000000000a .L0 
C:\Users\stapi\AppData\Local\Temp\ccGAwuGe.s:510    .text.fmc_pid_get:000000000000000a .L0 
C:\Users\stapi\AppData\Local\Temp\ccGAwuGe.s:512    .text.fmc_pid_get:000000000000000e .L0 
C:\Users\stapi\AppData\Local\Temp\ccGAwuGe.s:514    .text.fmc_pid_get:0000000000000010 .L0 
C:\Users\stapi\AppData\Local\Temp\ccGAwuGe.s:515    .text.fmc_pid_get:0000000000000012 .L0 
C:\Users\stapi\AppData\Local\Temp\ccGAwuGe.s:522    .text.ob_write_protection_get:0000000000000000 ob_write_protection_get
C:\Users\stapi\AppData\Local\Temp\ccGAwuGe.s:525    .text.ob_write_protection_get:0000000000000000 .L0 
C:\Users\stapi\AppData\Local\Temp\ccGAwuGe.s:526    .text.ob_write_protection_get:0000000000000000 .L0 
C:\Users\stapi\AppData\Local\Temp\ccGAwuGe.s:528    .text.ob_write_protection_get:0000000000000000 .L0 
C:\Users\stapi\AppData\Local\Temp\ccGAwuGe.s:529    .text.ob_write_protection_get:0000000000000000 .L0 
C:\Users\stapi\AppData\Local\Temp\ccGAwuGe.s:530    .text.ob_write_protection_get:0000000000000000 .L0 
C:\Users\stapi\AppData\Local\Temp\ccGAwuGe.s:534    .text.ob_write_protection_get:0000000000000006 .L0 
C:\Users\stapi\AppData\Local\Temp\ccGAwuGe.s:535    .text.ob_write_protection_get:0000000000000006 .L0 
C:\Users\stapi\AppData\Local\Temp\ccGAwuGe.s:538    .text.ob_write_protection_get:000000000000000c .L0 
C:\Users\stapi\AppData\Local\Temp\ccGAwuGe.s:545    .text.ob_user_get:0000000000000000 ob_user_get
C:\Users\stapi\AppData\Local\Temp\ccGAwuGe.s:548    .text.ob_user_get:0000000000000000 .L0 
C:\Users\stapi\AppData\Local\Temp\ccGAwuGe.s:549    .text.ob_user_get:0000000000000000 .L0 
C:\Users\stapi\AppData\Local\Temp\ccGAwuGe.s:550    .text.ob_user_get:0000000000000000 .L0 
C:\Users\stapi\AppData\Local\Temp\ccGAwuGe.s:551    .text.ob_user_get:0000000000000000 .L0 
C:\Users\stapi\AppData\Local\Temp\ccGAwuGe.s:554    .text.ob_user_get:0000000000000006 .L0 
C:\Users\stapi\AppData\Local\Temp\ccGAwuGe.s:555    .text.ob_user_get:0000000000000008 .L0 
C:\Users\stapi\AppData\Local\Temp\ccGAwuGe.s:562    .text.ob_security_protection_flag_get:0000000000000000 ob_security_protection_flag_get
C:\Users\stapi\AppData\Local\Temp\ccGAwuGe.s:565    .text.ob_security_protection_flag_get:0000000000000000 .L0 
C:\Users\stapi\AppData\Local\Temp\ccGAwuGe.s:566    .text.ob_security_protection_flag_get:0000000000000000 .L0 
C:\Users\stapi\AppData\Local\Temp\ccGAwuGe.s:568    .text.ob_security_protection_flag_get:0000000000000000 .L0 
C:\Users\stapi\AppData\Local\Temp\ccGAwuGe.s:569    .text.ob_security_protection_flag_get:0000000000000000 .L0 
C:\Users\stapi\AppData\Local\Temp\ccGAwuGe.s:570    .text.ob_security_protection_flag_get:0000000000000000 .L0 
C:\Users\stapi\AppData\Local\Temp\ccGAwuGe.s:574    .text.ob_security_protection_flag_get:0000000000000006 .L0 
C:\Users\stapi\AppData\Local\Temp\ccGAwuGe.s:575    .text.ob_security_protection_flag_get:0000000000000006 .L0 
C:\Users\stapi\AppData\Local\Temp\ccGAwuGe.s:578    .text.ob_security_protection_flag_get:000000000000000c .L0 
C:\Users\stapi\AppData\Local\Temp\ccGAwuGe.s:585    .text.fmc_flag_get:0000000000000000 fmc_flag_get
C:\Users\stapi\AppData\Local\Temp\ccGAwuGe.s:588    .text.fmc_flag_get:0000000000000000 .L0 
C:\Users\stapi\AppData\Local\Temp\ccGAwuGe.s:590    .text.fmc_flag_get:0000000000000000 .L0 
C:\Users\stapi\AppData\Local\Temp\ccGAwuGe.s:591    .text.fmc_flag_get:0000000000000000 .L0 
C:\Users\stapi\AppData\Local\Temp\ccGAwuGe.s:592    .text.fmc_flag_get:0000000000000000 .L0 
C:\Users\stapi\AppData\Local\Temp\ccGAwuGe.s:593    .text.fmc_flag_get:0000000000000000 .L0 
C:\Users\stapi\AppData\Local\Temp\ccGAwuGe.s:597    .text.fmc_flag_get:0000000000000006 .L0 
C:\Users\stapi\AppData\Local\Temp\ccGAwuGe.s:598    .text.fmc_flag_get:0000000000000006 .L0 
C:\Users\stapi\AppData\Local\Temp\ccGAwuGe.s:601    .text.fmc_flag_get:0000000000000008 .L0 
C:\Users\stapi\AppData\Local\Temp\ccGAwuGe.s:603    .text.fmc_flag_get:000000000000000e .L0 
C:\Users\stapi\AppData\Local\Temp\ccGAwuGe.s:610    .text.fmc_flag_clear:0000000000000000 fmc_flag_clear
C:\Users\stapi\AppData\Local\Temp\ccGAwuGe.s:613    .text.fmc_flag_clear:0000000000000000 .L0 
C:\Users\stapi\AppData\Local\Temp\ccGAwuGe.s:615    .text.fmc_flag_clear:0000000000000000 .L0 
C:\Users\stapi\AppData\Local\Temp\ccGAwuGe.s:616    .text.fmc_flag_clear:0000000000000000 .L0 
C:\Users\stapi\AppData\Local\Temp\ccGAwuGe.s:617    .text.fmc_flag_clear:0000000000000000 .L0 
C:\Users\stapi\AppData\Local\Temp\ccGAwuGe.s:620    .text.fmc_flag_clear:0000000000000006 .L0 
C:\Users\stapi\AppData\Local\Temp\ccGAwuGe.s:621    .text.fmc_flag_clear:0000000000000008 .L0 
C:\Users\stapi\AppData\Local\Temp\ccGAwuGe.s:628    .text.fmc_interrupt_enable:0000000000000000 fmc_interrupt_enable
C:\Users\stapi\AppData\Local\Temp\ccGAwuGe.s:631    .text.fmc_interrupt_enable:0000000000000000 .L0 
C:\Users\stapi\AppData\Local\Temp\ccGAwuGe.s:633    .text.fmc_interrupt_enable:0000000000000000 .L0 
C:\Users\stapi\AppData\Local\Temp\ccGAwuGe.s:634    .text.fmc_interrupt_enable:0000000000000000 .L0 
C:\Users\stapi\AppData\Local\Temp\ccGAwuGe.s:635    .text.fmc_interrupt_enable:0000000000000000 .L0 
C:\Users\stapi\AppData\Local\Temp\ccGAwuGe.s:640    .text.fmc_interrupt_enable:000000000000000a .L0 
C:\Users\stapi\AppData\Local\Temp\ccGAwuGe.s:641    .text.fmc_interrupt_enable:000000000000000c .L0 
C:\Users\stapi\AppData\Local\Temp\ccGAwuGe.s:648    .text.fmc_interrupt_disable:0000000000000000 fmc_interrupt_disable
C:\Users\stapi\AppData\Local\Temp\ccGAwuGe.s:651    .text.fmc_interrupt_disable:0000000000000000 .L0 
C:\Users\stapi\AppData\Local\Temp\ccGAwuGe.s:653    .text.fmc_interrupt_disable:0000000000000000 .L0 
C:\Users\stapi\AppData\Local\Temp\ccGAwuGe.s:654    .text.fmc_interrupt_disable:0000000000000000 .L0 
C:\Users\stapi\AppData\Local\Temp\ccGAwuGe.s:655    .text.fmc_interrupt_disable:0000000000000000 .L0 
C:\Users\stapi\AppData\Local\Temp\ccGAwuGe.s:661    .text.fmc_interrupt_disable:000000000000000c .L0 
C:\Users\stapi\AppData\Local\Temp\ccGAwuGe.s:662    .text.fmc_interrupt_disable:000000000000000e .L0 
C:\Users\stapi\AppData\Local\Temp\ccGAwuGe.s:669    .text.fmc_interrupt_flag_get:0000000000000000 fmc_interrupt_flag_get
C:\Users\stapi\AppData\Local\Temp\ccGAwuGe.s:671    .text.fmc_interrupt_flag_get:0000000000000000 .L0 
C:\Users\stapi\AppData\Local\Temp\ccGAwuGe.s:673    .text.fmc_interrupt_flag_get:0000000000000008 .L0 
C:\Users\stapi\AppData\Local\Temp\ccGAwuGe.s:680    .text.fmc_interrupt_flag_clear:0000000000000000 fmc_interrupt_flag_clear
C:\Users\stapi\AppData\Local\Temp\ccGAwuGe.s:682    .text.fmc_interrupt_flag_clear:0000000000000000 .L0 
C:\Users\stapi\AppData\Local\Temp\ccGAwuGe.s:686    .text.fmc_interrupt_flag_clear:0000000000000008 .L0 
C:\Users\stapi\AppData\Local\Temp\ccGAwuGe.s:693    .text.fmc_state_get:0000000000000000 fmc_state_get
C:\Users\stapi\AppData\Local\Temp\ccGAwuGe.s:696    .text.fmc_state_get:0000000000000000 .L0 
C:\Users\stapi\AppData\Local\Temp\ccGAwuGe.s:697    .text.fmc_state_get:0000000000000000 .L0 
C:\Users\stapi\AppData\Local\Temp\ccGAwuGe.s:699    .text.fmc_state_get:0000000000000000 .L0 
C:\Users\stapi\AppData\Local\Temp\ccGAwuGe.s:700    .text.fmc_state_get:0000000000000000 .L0 
C:\Users\stapi\AppData\Local\Temp\ccGAwuGe.s:701    .text.fmc_state_get:0000000000000000 .L0 
C:\Users\stapi\AppData\Local\Temp\ccGAwuGe.s:704    .text.fmc_state_get:0000000000000006 .L0 
C:\Users\stapi\AppData\Local\Temp\ccGAwuGe.s:706    .text.fmc_state_get:0000000000000008 .L0 
C:\Users\stapi\AppData\Local\Temp\ccGAwuGe.s:710    .text.fmc_state_get:000000000000000a .L0 
C:\Users\stapi\AppData\Local\Temp\ccGAwuGe.s:711    .text.fmc_state_get:000000000000000a .L0 
C:\Users\stapi\AppData\Local\Temp\ccGAwuGe.s:713    .text.fmc_state_get:000000000000000c .L0 
C:\Users\stapi\AppData\Local\Temp\ccGAwuGe.s:715    .text.fmc_state_get:000000000000000e .L0 
C:\Users\stapi\AppData\Local\Temp\ccGAwuGe.s:717    .text.fmc_state_get:0000000000000010 .L0 
C:\Users\stapi\AppData\Local\Temp\ccGAwuGe.s:723    .text.fmc_state_get:0000000000000012 .L0 
C:\Users\stapi\AppData\Local\Temp\ccGAwuGe.s:724    .text.fmc_state_get:0000000000000012 .L0 
C:\Users\stapi\AppData\Local\Temp\ccGAwuGe.s:725    .text.fmc_state_get:0000000000000014 .L0 
C:\Users\stapi\AppData\Local\Temp\ccGAwuGe.s:732    .text.fmc_ready_wait:0000000000000000 fmc_ready_wait
C:\Users\stapi\AppData\Local\Temp\ccGAwuGe.s:735    .text.fmc_ready_wait:0000000000000000 .L0 
C:\Users\stapi\AppData\Local\Temp\ccGAwuGe.s:737    .text.fmc_ready_wait:0000000000000000 .L0 
C:\Users\stapi\AppData\Local\Temp\ccGAwuGe.s:738    .text.fmc_ready_wait:0000000000000008 .L0 
C:\Users\stapi\AppData\Local\Temp\ccGAwuGe.s:739    .text.fmc_ready_wait:0000000000000008 .L0 
C:\Users\stapi\AppData\Local\Temp\ccGAwuGe.s:740    .text.fmc_ready_wait:0000000000000008 .L0 
C:\Users\stapi\AppData\Local\Temp\ccGAwuGe.s:741    .text.fmc_ready_wait:0000000000000008 .L0 
C:\Users\stapi\AppData\Local\Temp\ccGAwuGe.s:744    .text.fmc_ready_wait:0000000000000008 .L0 
C:\Users\stapi\AppData\Local\Temp\ccGAwuGe.s:745    .text.fmc_ready_wait:0000000000000008 .L0 
C:\Users\stapi\AppData\Local\Temp\ccGAwuGe.s:747    .text.fmc_ready_wait:000000000000000a .L0 
C:\Users\stapi\AppData\Local\Temp\ccGAwuGe.s:751    .text.fmc_ready_wait:000000000000000c .L0 
C:\Users\stapi\AppData\Local\Temp\ccGAwuGe.s:752    .text.fmc_ready_wait:000000000000000c .L0 
C:\Users\stapi\AppData\Local\Temp\ccGAwuGe.s:753    .text.fmc_ready_wait:000000000000000c .L0 
C:\Users\stapi\AppData\Local\Temp\ccGAwuGe.s:756    .text.fmc_ready_wait:0000000000000014 .L0 
C:\Users\stapi\AppData\Local\Temp\ccGAwuGe.s:757    .text.fmc_ready_wait:0000000000000014 .L0 
C:\Users\stapi\AppData\Local\Temp\ccGAwuGe.s:760    .text.fmc_ready_wait:0000000000000016 .L0 
C:\Users\stapi\AppData\Local\Temp\ccGAwuGe.s:761    .text.fmc_ready_wait:0000000000000016 .L0 
C:\Users\stapi\AppData\Local\Temp\ccGAwuGe.s:763    .text.fmc_ready_wait:000000000000001a .L0 
C:\Users\stapi\AppData\Local\Temp\ccGAwuGe.s:765    .text.fmc_ready_wait:000000000000001c .L0 
C:\Users\stapi\AppData\Local\Temp\ccGAwuGe.s:769    .text.fmc_ready_wait:000000000000001e .L0 
C:\Users\stapi\AppData\Local\Temp\ccGAwuGe.s:770    .text.fmc_ready_wait:000000000000001e .L0 
C:\Users\stapi\AppData\Local\Temp\ccGAwuGe.s:771    .text.fmc_ready_wait:0000000000000026 .L0 
C:\Users\stapi\AppData\Local\Temp\ccGAwuGe.s:772    .text.fmc_ready_wait:0000000000000026 .L0 
C:\Users\stapi\AppData\Local\Temp\ccGAwuGe.s:773    .text.fmc_ready_wait:0000000000000026 .L0 
C:\Users\stapi\AppData\Local\Temp\ccGAwuGe.s:774    .text.fmc_ready_wait:0000000000000026 .L0 
C:\Users\stapi\AppData\Local\Temp\ccGAwuGe.s:775    .text.fmc_ready_wait:0000000000000026 .L0 
C:\Users\stapi\AppData\Local\Temp\ccGAwuGe.s:782    .text.fmc_page_erase:0000000000000000 fmc_page_erase
C:\Users\stapi\AppData\Local\Temp\ccGAwuGe.s:785    .text.fmc_page_erase:0000000000000000 .L0 
C:\Users\stapi\AppData\Local\Temp\ccGAwuGe.s:787    .text.fmc_page_erase:0000000000000000 .L0 
C:\Users\stapi\AppData\Local\Temp\ccGAwuGe.s:788    .text.fmc_page_erase:0000000000000008 .L0 
C:\Users\stapi\AppData\Local\Temp\ccGAwuGe.s:789    .text.fmc_page_erase:0000000000000008 .L0 
C:\Users\stapi\AppData\Local\Temp\ccGAwuGe.s:790    .text.fmc_page_erase:0000000000000008 .L0 
C:\Users\stapi\AppData\Local\Temp\ccGAwuGe.s:791    .text.fmc_page_erase:0000000000000008 .L0 
C:\Users\stapi\AppData\Local\Temp\ccGAwuGe.s:794    .text.fmc_page_erase:0000000000000008 .L0 
C:\Users\stapi\AppData\Local\Temp\ccGAwuGe.s:795    .text.fmc_page_erase:0000000000000008 .L0 
C:\Users\stapi\AppData\Local\Temp\ccGAwuGe.s:796    .text.fmc_page_erase:0000000000000008 .L0 
C:\Users\stapi\AppData\Local\Temp\ccGAwuGe.s:798    .text.fmc_page_erase:000000000000000a .L0 
C:\Users\stapi\AppData\Local\Temp\ccGAwuGe.s:803    .text.fmc_page_erase:0000000000000016 .L0 
C:\Users\stapi\AppData\Local\Temp\ccGAwuGe.s:804    .text.fmc_page_erase:0000000000000016 .L0 
C:\Users\stapi\AppData\Local\Temp\ccGAwuGe.s:806    .text.fmc_page_erase:0000000000000018 .L0 
C:\Users\stapi\AppData\Local\Temp\ccGAwuGe.s:807    .text.fmc_page_erase:0000000000000018 .L0 
C:\Users\stapi\AppData\Local\Temp\ccGAwuGe.s:810    .text.fmc_page_erase:000000000000001e .L0 
C:\Users\stapi\AppData\Local\Temp\ccGAwuGe.s:813    .text.fmc_page_erase:0000000000000022 .L0 
C:\Users\stapi\AppData\Local\Temp\ccGAwuGe.s:816    .text.fmc_page_erase:0000000000000028 .L0 
C:\Users\stapi\AppData\Local\Temp\ccGAwuGe.s:817    .text.fmc_page_erase:0000000000000028 .L0 
C:\Users\stapi\AppData\Local\Temp\ccGAwuGe.s:819    .text.fmc_page_erase:000000000000002a .L0 
C:\Users\stapi\AppData\Local\Temp\ccGAwuGe.s:820    .text.fmc_page_erase:000000000000002a .L0 
C:\Users\stapi\AppData\Local\Temp\ccGAwuGe.s:824    .text.fmc_page_erase:0000000000000032 .L0 
C:\Users\stapi\AppData\Local\Temp\ccGAwuGe.s:825    .text.fmc_page_erase:0000000000000032 .L0 
C:\Users\stapi\AppData\Local\Temp\ccGAwuGe.s:828    .text.fmc_page_erase:000000000000003a .L0 
C:\Users\stapi\AppData\Local\Temp\ccGAwuGe.s:829    .text.fmc_page_erase:000000000000003a .L0 
C:\Users\stapi\AppData\Local\Temp\ccGAwuGe.s:834    .text.fmc_page_erase:0000000000000040 .L0 
C:\Users\stapi\AppData\Local\Temp\ccGAwuGe.s:835    .text.fmc_page_erase:0000000000000040 .L0 
C:\Users\stapi\AppData\Local\Temp\ccGAwuGe.s:836    .text.fmc_page_erase:0000000000000048 .L0 
C:\Users\stapi\AppData\Local\Temp\ccGAwuGe.s:837    .text.fmc_page_erase:0000000000000048 .L0 
C:\Users\stapi\AppData\Local\Temp\ccGAwuGe.s:838    .text.fmc_page_erase:0000000000000048 .L0 
C:\Users\stapi\AppData\Local\Temp\ccGAwuGe.s:839    .text.fmc_page_erase:0000000000000048 .L0 
C:\Users\stapi\AppData\Local\Temp\ccGAwuGe.s:840    .text.fmc_page_erase:0000000000000048 .L0 
C:\Users\stapi\AppData\Local\Temp\ccGAwuGe.s:847    .text.fmc_mass_erase:0000000000000000 fmc_mass_erase
C:\Users\stapi\AppData\Local\Temp\ccGAwuGe.s:850    .text.fmc_mass_erase:0000000000000000 .L0 
C:\Users\stapi\AppData\Local\Temp\ccGAwuGe.s:851    .text.fmc_mass_erase:0000000000000000 .L0 
C:\Users\stapi\AppData\Local\Temp\ccGAwuGe.s:852    .text.fmc_mass_erase:0000000000000008 .L0 
C:\Users\stapi\AppData\Local\Temp\ccGAwuGe.s:853    .text.fmc_mass_erase:0000000000000008 .L0 
C:\Users\stapi\AppData\Local\Temp\ccGAwuGe.s:854    .text.fmc_mass_erase:0000000000000008 .L0 
C:\Users\stapi\AppData\Local\Temp\ccGAwuGe.s:857    .text.fmc_mass_erase:0000000000000008 .L0 
C:\Users\stapi\AppData\Local\Temp\ccGAwuGe.s:858    .text.fmc_mass_erase:0000000000000008 .L0 
C:\Users\stapi\AppData\Local\Temp\ccGAwuGe.s:859    .text.fmc_mass_erase:0000000000000008 .L0 
C:\Users\stapi\AppData\Local\Temp\ccGAwuGe.s:863    .text.fmc_mass_erase:0000000000000014 .L0 
C:\Users\stapi\AppData\Local\Temp\ccGAwuGe.s:864    .text.fmc_mass_erase:0000000000000014 .L0 
C:\Users\stapi\AppData\Local\Temp\ccGAwuGe.s:866    .text.fmc_mass_erase:0000000000000016 .L0 
C:\Users\stapi\AppData\Local\Temp\ccGAwuGe.s:867    .text.fmc_mass_erase:0000000000000016 .L0 
C:\Users\stapi\AppData\Local\Temp\ccGAwuGe.s:870    .text.fmc_mass_erase:000000000000001c .L0 
C:\Users\stapi\AppData\Local\Temp\ccGAwuGe.s:873    .text.fmc_mass_erase:0000000000000020 .L0 
C:\Users\stapi\AppData\Local\Temp\ccGAwuGe.s:876    .text.fmc_mass_erase:0000000000000026 .L0 
C:\Users\stapi\AppData\Local\Temp\ccGAwuGe.s:877    .text.fmc_mass_erase:0000000000000026 .L0 
C:\Users\stapi\AppData\Local\Temp\ccGAwuGe.s:881    .text.fmc_mass_erase:000000000000002e .L0 
C:\Users\stapi\AppData\Local\Temp\ccGAwuGe.s:882    .text.fmc_mass_erase:000000000000002e .L0 
C:\Users\stapi\AppData\Local\Temp\ccGAwuGe.s:885    .text.fmc_mass_erase:0000000000000036 .L0 
C:\Users\stapi\AppData\Local\Temp\ccGAwuGe.s:886    .text.fmc_mass_erase:0000000000000036 .L0 
C:\Users\stapi\AppData\Local\Temp\ccGAwuGe.s:891    .text.fmc_mass_erase:000000000000003c .L0 
C:\Users\stapi\AppData\Local\Temp\ccGAwuGe.s:892    .text.fmc_mass_erase:000000000000003c .L0 
C:\Users\stapi\AppData\Local\Temp\ccGAwuGe.s:893    .text.fmc_mass_erase:0000000000000044 .L0 
C:\Users\stapi\AppData\Local\Temp\ccGAwuGe.s:894    .text.fmc_mass_erase:0000000000000044 .L0 
C:\Users\stapi\AppData\Local\Temp\ccGAwuGe.s:895    .text.fmc_mass_erase:0000000000000044 .L0 
C:\Users\stapi\AppData\Local\Temp\ccGAwuGe.s:896    .text.fmc_mass_erase:0000000000000044 .L0 
C:\Users\stapi\AppData\Local\Temp\ccGAwuGe.s:903    .text.fmc_word_program:0000000000000000 fmc_word_program
C:\Users\stapi\AppData\Local\Temp\ccGAwuGe.s:906    .text.fmc_word_program:0000000000000000 .L0 
C:\Users\stapi\AppData\Local\Temp\ccGAwuGe.s:908    .text.fmc_word_program:0000000000000000 .L0 
C:\Users\stapi\AppData\Local\Temp\ccGAwuGe.s:909    .text.fmc_word_program:0000000000000008 .L0 
C:\Users\stapi\AppData\Local\Temp\ccGAwuGe.s:910    .text.fmc_word_program:0000000000000008 .L0 
C:\Users\stapi\AppData\Local\Temp\ccGAwuGe.s:911    .text.fmc_word_program:0000000000000008 .L0 
C:\Users\stapi\AppData\Local\Temp\ccGAwuGe.s:912    .text.fmc_word_program:0000000000000008 .L0 
C:\Users\stapi\AppData\Local\Temp\ccGAwuGe.s:913    .text.fmc_word_program:0000000000000008 .L0 
C:\Users\stapi\AppData\Local\Temp\ccGAwuGe.s:916    .text.fmc_word_program:0000000000000008 .L0 
C:\Users\stapi\AppData\Local\Temp\ccGAwuGe.s:917    .text.fmc_word_program:0000000000000008 .L0 
C:\Users\stapi\AppData\Local\Temp\ccGAwuGe.s:918    .text.fmc_word_program:0000000000000008 .L0 
C:\Users\stapi\AppData\Local\Temp\ccGAwuGe.s:920    .text.fmc_word_program:000000000000000a .L0 
C:\Users\stapi\AppData\Local\Temp\ccGAwuGe.s:923    .text.fmc_word_program:000000000000000e .L0 
C:\Users\stapi\AppData\Local\Temp\ccGAwuGe.s:925    .text.fmc_word_program:0000000000000010 .L0 
C:\Users\stapi\AppData\Local\Temp\ccGAwuGe.s:928    .text.fmc_word_program:0000000000000018 .L0 
C:\Users\stapi\AppData\Local\Temp\ccGAwuGe.s:929    .text.fmc_word_program:0000000000000018 .L0 
C:\Users\stapi\AppData\Local\Temp\ccGAwuGe.s:931    .text.fmc_word_program:000000000000001a .L0 
C:\Users\stapi\AppData\Local\Temp\ccGAwuGe.s:932    .text.fmc_word_program:000000000000001a .L0 
C:\Users\stapi\AppData\Local\Temp\ccGAwuGe.s:935    .text.fmc_word_program:0000000000000020 .L0 
C:\Users\stapi\AppData\Local\Temp\ccGAwuGe.s:938    .text.fmc_word_program:0000000000000024 .L0 
C:\Users\stapi\AppData\Local\Temp\ccGAwuGe.s:941    .text.fmc_word_program:000000000000002a .L0 
C:\Users\stapi\AppData\Local\Temp\ccGAwuGe.s:942    .text.fmc_word_program:000000000000002a .L0 
C:\Users\stapi\AppData\Local\Temp\ccGAwuGe.s:944    .text.fmc_word_program:000000000000002e .L0 
C:\Users\stapi\AppData\Local\Temp\ccGAwuGe.s:945    .text.fmc_word_program:000000000000002e .L0 
C:\Users\stapi\AppData\Local\Temp\ccGAwuGe.s:948    .text.fmc_word_program:0000000000000036 .L0 
C:\Users\stapi\AppData\Local\Temp\ccGAwuGe.s:949    .text.fmc_word_program:0000000000000036 .L0 
C:\Users\stapi\AppData\Local\Temp\ccGAwuGe.s:954    .text.fmc_word_program:000000000000003c .L0 
C:\Users\stapi\AppData\Local\Temp\ccGAwuGe.s:955    .text.fmc_word_program:000000000000003c .L0 
C:\Users\stapi\AppData\Local\Temp\ccGAwuGe.s:956    .text.fmc_word_program:0000000000000044 .L0 
C:\Users\stapi\AppData\Local\Temp\ccGAwuGe.s:957    .text.fmc_word_program:0000000000000044 .L0 
C:\Users\stapi\AppData\Local\Temp\ccGAwuGe.s:958    .text.fmc_word_program:0000000000000044 .L0 
C:\Users\stapi\AppData\Local\Temp\ccGAwuGe.s:959    .text.fmc_word_program:0000000000000044 .L0 
C:\Users\stapi\AppData\Local\Temp\ccGAwuGe.s:960    .text.fmc_word_program:0000000000000044 .L0 
C:\Users\stapi\AppData\Local\Temp\ccGAwuGe.s:961    .text.fmc_word_program:0000000000000044 .L0 
C:\Users\stapi\AppData\Local\Temp\ccGAwuGe.s:968    .text.fmc_continuous_program:0000000000000000 fmc_continuous_program
C:\Users\stapi\AppData\Local\Temp\ccGAwuGe.s:971    .text.fmc_continuous_program:0000000000000000 .L0 
C:\Users\stapi\AppData\Local\Temp\ccGAwuGe.s:973    .text.fmc_continuous_program:0000000000000000 .L0 
C:\Users\stapi\AppData\Local\Temp\ccGAwuGe.s:974    .text.fmc_continuous_program:0000000000000008 .L0 
C:\Users\stapi\AppData\Local\Temp\ccGAwuGe.s:975    .text.fmc_continuous_program:0000000000000008 .L0 
C:\Users\stapi\AppData\Local\Temp\ccGAwuGe.s:976    .text.fmc_continuous_program:0000000000000008 .L0 
C:\Users\stapi\AppData\Local\Temp\ccGAwuGe.s:977    .text.fmc_continuous_program:0000000000000008 .L0 
C:\Users\stapi\AppData\Local\Temp\ccGAwuGe.s:978    .text.fmc_continuous_program:0000000000000008 .L0 
C:\Users\stapi\AppData\Local\Temp\ccGAwuGe.s:981    .text.fmc_continuous_program:0000000000000008 .L0 
C:\Users\stapi\AppData\Local\Temp\ccGAwuGe.s:982    .text.fmc_continuous_program:0000000000000008 .L0 
C:\Users\stapi\AppData\Local\Temp\ccGAwuGe.s:983    .text.fmc_continuous_program:0000000000000008 .L0 
C:\Users\stapi\AppData\Local\Temp\ccGAwuGe.s:985    .text.fmc_continuous_program:000000000000000a .L0 
C:\Users\stapi\AppData\Local\Temp\ccGAwuGe.s:988    .text.fmc_continuous_program:000000000000000e .L0 
C:\Users\stapi\AppData\Local\Temp\ccGAwuGe.s:991    .text.fmc_continuous_program:0000000000000012 .L0 
C:\Users\stapi\AppData\Local\Temp\ccGAwuGe.s:994    .text.fmc_continuous_program:000000000000001a .L0 
C:\Users\stapi\AppData\Local\Temp\ccGAwuGe.s:995    .text.fmc_continuous_program:000000000000001a .L0 
C:\Users\stapi\AppData\Local\Temp\ccGAwuGe.s:997    .text.fmc_continuous_program:000000000000001c .L0 
C:\Users\stapi\AppData\Local\Temp\ccGAwuGe.s:998    .text.fmc_continuous_program:000000000000001c .L0 
C:\Users\stapi\AppData\Local\Temp\ccGAwuGe.s:1006   .text.fmc_continuous_program:000000000000002a .L0 
C:\Users\stapi\AppData\Local\Temp\ccGAwuGe.s:1008   .text.fmc_continuous_program:000000000000002a .L0 
C:\Users\stapi\AppData\Local\Temp\ccGAwuGe.s:1009   .text.fmc_continuous_program:000000000000002a .L0 
C:\Users\stapi\AppData\Local\Temp\ccGAwuGe.s:1013   .text.fmc_continuous_program:000000000000002c .L0 
C:\Users\stapi\AppData\Local\Temp\ccGAwuGe.s:1014   .text.fmc_continuous_program:000000000000002c .L0 
C:\Users\stapi\AppData\Local\Temp\ccGAwuGe.s:1017   .text.fmc_continuous_program:0000000000000030 .L0 
C:\Users\stapi\AppData\Local\Temp\ccGAwuGe.s:1018   .text.fmc_continuous_program:0000000000000030 .L0 
C:\Users\stapi\AppData\Local\Temp\ccGAwuGe.s:1025   .text.fmc_continuous_program:000000000000003a .L0 
C:\Users\stapi\AppData\Local\Temp\ccGAwuGe.s:1026   .text.fmc_continuous_program:000000000000003a .L0 
C:\Users\stapi\AppData\Local\Temp\ccGAwuGe.s:1027   .text.fmc_continuous_program:0000000000000042 .L0 
C:\Users\stapi\AppData\Local\Temp\ccGAwuGe.s:1028   .text.fmc_continuous_program:0000000000000042 .L0 
C:\Users\stapi\AppData\Local\Temp\ccGAwuGe.s:1029   .text.fmc_continuous_program:0000000000000042 .L0 
C:\Users\stapi\AppData\Local\Temp\ccGAwuGe.s:1030   .text.fmc_continuous_program:0000000000000042 .L0 
C:\Users\stapi\AppData\Local\Temp\ccGAwuGe.s:1031   .text.fmc_continuous_program:0000000000000042 .L0 
C:\Users\stapi\AppData\Local\Temp\ccGAwuGe.s:1032   .text.fmc_continuous_program:0000000000000042 .L0 
C:\Users\stapi\AppData\Local\Temp\ccGAwuGe.s:1035   .text.fmc_continuous_program:0000000000000042 .L0 
C:\Users\stapi\AppData\Local\Temp\ccGAwuGe.s:1038   .text.fmc_continuous_program:0000000000000042 .L0 
C:\Users\stapi\AppData\Local\Temp\ccGAwuGe.s:1039   .text.fmc_continuous_program:0000000000000042 .L0 
C:\Users\stapi\AppData\Local\Temp\ccGAwuGe.s:1045   .text.fmc_continuous_program:000000000000004e .L0 
C:\Users\stapi\AppData\Local\Temp\ccGAwuGe.s:1048   .text.fmc_continuous_program:0000000000000050 .L0 
C:\Users\stapi\AppData\Local\Temp\ccGAwuGe.s:1049   .text.fmc_continuous_program:0000000000000050 .L0 
C:\Users\stapi\AppData\Local\Temp\ccGAwuGe.s:1051   .text.fmc_continuous_program:0000000000000052 .L0 
C:\Users\stapi\AppData\Local\Temp\ccGAwuGe.s:1058   .text.ob_security_protection_config:0000000000000000 ob_security_protection_config
C:\Users\stapi\AppData\Local\Temp\ccGAwuGe.s:1061   .text.ob_security_protection_config:0000000000000000 .L0 
C:\Users\stapi\AppData\Local\Temp\ccGAwuGe.s:1063   .text.ob_security_protection_config:0000000000000000 .L0 
C:\Users\stapi\AppData\Local\Temp\ccGAwuGe.s:1064   .text.ob_security_protection_config:0000000000000008 .L0 
C:\Users\stapi\AppData\Local\Temp\ccGAwuGe.s:1065   .text.ob_security_protection_config:0000000000000008 .L0 
C:\Users\stapi\AppData\Local\Temp\ccGAwuGe.s:1066   .text.ob_security_protection_config:0000000000000008 .L0 
C:\Users\stapi\AppData\Local\Temp\ccGAwuGe.s:1068   .text.ob_security_protection_config:0000000000000008 .L0 
C:\Users\stapi\AppData\Local\Temp\ccGAwuGe.s:1069   .text.ob_security_protection_config:0000000000000008 .L0 
C:\Users\stapi\AppData\Local\Temp\ccGAwuGe.s:1071   .text.ob_security_protection_config:000000000000000a .L0 
C:\Users\stapi\AppData\Local\Temp\ccGAwuGe.s:1076   .text.ob_security_protection_config:0000000000000016 .L0 
C:\Users\stapi\AppData\Local\Temp\ccGAwuGe.s:1077   .text.ob_security_protection_config:0000000000000016 .L0 
C:\Users\stapi\AppData\Local\Temp\ccGAwuGe.s:1079   .text.ob_security_protection_config:0000000000000018 .L0 
C:\Users\stapi\AppData\Local\Temp\ccGAwuGe.s:1080   .text.ob_security_protection_config:0000000000000018 .L0 
C:\Users\stapi\AppData\Local\Temp\ccGAwuGe.s:1085   .text.ob_security_protection_config:0000000000000024 .L0 
C:\Users\stapi\AppData\Local\Temp\ccGAwuGe.s:1086   .text.ob_security_protection_config:0000000000000024 .L0 
C:\Users\stapi\AppData\Local\Temp\ccGAwuGe.s:1091   .text.ob_security_protection_config:000000000000002a .L0 
C:\Users\stapi\AppData\Local\Temp\ccGAwuGe.s:1092   .text.ob_security_protection_config:000000000000002a .L0 
C:\Users\stapi\AppData\Local\Temp\ccGAwuGe.s:1094   .text.ob_security_protection_config:000000000000002c .L0 
C:\Users\stapi\AppData\Local\Temp\ccGAwuGe.s:1096   .text.ob_security_protection_config:0000000000000030 .L0 
C:\Users\stapi\AppData\Local\Temp\ccGAwuGe.s:1099   .text.ob_security_protection_config:0000000000000036 .L0 
C:\Users\stapi\AppData\Local\Temp\ccGAwuGe.s:1100   .text.ob_security_protection_config:0000000000000036 .L0 
C:\Users\stapi\AppData\Local\Temp\ccGAwuGe.s:1104   .text.ob_security_protection_config:000000000000003e .L0 
C:\Users\stapi\AppData\Local\Temp\ccGAwuGe.s:1105   .text.ob_security_protection_config:000000000000003e .L0 
C:\Users\stapi\AppData\Local\Temp\ccGAwuGe.s:1106   .text.ob_security_protection_config:0000000000000046 .L0 
C:\Users\stapi\AppData\Local\Temp\ccGAwuGe.s:1107   .text.ob_security_protection_config:0000000000000046 .L0 
C:\Users\stapi\AppData\Local\Temp\ccGAwuGe.s:1108   .text.ob_security_protection_config:0000000000000046 .L0 
C:\Users\stapi\AppData\Local\Temp\ccGAwuGe.s:1109   .text.ob_security_protection_config:0000000000000046 .L0 
C:\Users\stapi\AppData\Local\Temp\ccGAwuGe.s:1116   .text.ob_user_write:0000000000000000 ob_user_write
C:\Users\stapi\AppData\Local\Temp\ccGAwuGe.s:1119   .text.ob_user_write:0000000000000000 .L0 
C:\Users\stapi\AppData\Local\Temp\ccGAwuGe.s:1121   .text.ob_user_write:0000000000000000 .L0 
C:\Users\stapi\AppData\Local\Temp\ccGAwuGe.s:1122   .text.ob_user_write:0000000000000008 .L0 
C:\Users\stapi\AppData\Local\Temp\ccGAwuGe.s:1123   .text.ob_user_write:0000000000000008 .L0 
C:\Users\stapi\AppData\Local\Temp\ccGAwuGe.s:1124   .text.ob_user_write:0000000000000008 .L0 
C:\Users\stapi\AppData\Local\Temp\ccGAwuGe.s:1126   .text.ob_user_write:0000000000000008 .L0 
C:\Users\stapi\AppData\Local\Temp\ccGAwuGe.s:1127   .text.ob_user_write:0000000000000008 .L0 
C:\Users\stapi\AppData\Local\Temp\ccGAwuGe.s:1129   .text.ob_user_write:000000000000000a .L0 
C:\Users\stapi\AppData\Local\Temp\ccGAwuGe.s:1134   .text.ob_user_write:0000000000000016 .L0 
C:\Users\stapi\AppData\Local\Temp\ccGAwuGe.s:1135   .text.ob_user_write:0000000000000016 .L0 
C:\Users\stapi\AppData\Local\Temp\ccGAwuGe.s:1137   .text.ob_user_write:0000000000000018 .L0 
C:\Users\stapi\AppData\Local\Temp\ccGAwuGe.s:1138   .text.ob_user_write:0000000000000018 .L0 
C:\Users\stapi\AppData\Local\Temp\ccGAwuGe.s:1142   .text.ob_user_write:0000000000000022 .L0 
C:\Users\stapi\AppData\Local\Temp\ccGAwuGe.s:1143   .text.ob_user_write:0000000000000022 .L0 
C:\Users\stapi\AppData\Local\Temp\ccGAwuGe.s:1148   .text.ob_user_write:000000000000002a .L0 
C:\Users\stapi\AppData\Local\Temp\ccGAwuGe.s:1149   .text.ob_user_write:000000000000002a .L0 
C:\Users\stapi\AppData\Local\Temp\ccGAwuGe.s:1151   .text.ob_user_write:000000000000002c .L0 
C:\Users\stapi\AppData\Local\Temp\ccGAwuGe.s:1153   .text.ob_user_write:0000000000000030 .L0 
C:\Users\stapi\AppData\Local\Temp\ccGAwuGe.s:1156   .text.ob_user_write:0000000000000036 .L0 
C:\Users\stapi\AppData\Local\Temp\ccGAwuGe.s:1157   .text.ob_user_write:0000000000000036 .L0 
C:\Users\stapi\AppData\Local\Temp\ccGAwuGe.s:1161   .text.ob_user_write:000000000000003e .L0 
C:\Users\stapi\AppData\Local\Temp\ccGAwuGe.s:1162   .text.ob_user_write:000000000000003e .L0 
C:\Users\stapi\AppData\Local\Temp\ccGAwuGe.s:1163   .text.ob_user_write:0000000000000046 .L0 
C:\Users\stapi\AppData\Local\Temp\ccGAwuGe.s:1164   .text.ob_user_write:0000000000000046 .L0 
C:\Users\stapi\AppData\Local\Temp\ccGAwuGe.s:1165   .text.ob_user_write:0000000000000046 .L0 
C:\Users\stapi\AppData\Local\Temp\ccGAwuGe.s:1166   .text.ob_user_write:0000000000000046 .L0 
C:\Users\stapi\AppData\Local\Temp\ccGAwuGe.s:1173   .text.ob_write_protection_config:0000000000000000 ob_write_protection_config
C:\Users\stapi\AppData\Local\Temp\ccGAwuGe.s:1176   .text.ob_write_protection_config:0000000000000000 .L0 
C:\Users\stapi\AppData\Local\Temp\ccGAwuGe.s:1178   .text.ob_write_protection_config:0000000000000000 .L0 
C:\Users\stapi\AppData\Local\Temp\ccGAwuGe.s:1179   .text.ob_write_protection_config:0000000000000008 .L0 
C:\Users\stapi\AppData\Local\Temp\ccGAwuGe.s:1180   .text.ob_write_protection_config:0000000000000008 .L0 
C:\Users\stapi\AppData\Local\Temp\ccGAwuGe.s:1181   .text.ob_write_protection_config:0000000000000008 .L0 
C:\Users\stapi\AppData\Local\Temp\ccGAwuGe.s:1182   .text.ob_write_protection_config:0000000000000008 .L0 
C:\Users\stapi\AppData\Local\Temp\ccGAwuGe.s:1183   .text.ob_write_protection_config:0000000000000008 .L0 
C:\Users\stapi\AppData\Local\Temp\ccGAwuGe.s:1185   .text.ob_write_protection_config:0000000000000008 .L0 
C:\Users\stapi\AppData\Local\Temp\ccGAwuGe.s:1186   .text.ob_write_protection_config:0000000000000008 .L0 
C:\Users\stapi\AppData\Local\Temp\ccGAwuGe.s:1188   .text.ob_write_protection_config:000000000000000a .L0 
C:\Users\stapi\AppData\Local\Temp\ccGAwuGe.s:1191   .text.ob_write_protection_config:000000000000000e .L0 
C:\Users\stapi\AppData\Local\Temp\ccGAwuGe.s:1194   .text.ob_write_protection_config:0000000000000012 .L0 
C:\Users\stapi\AppData\Local\Temp\ccGAwuGe.s:1197   .text.ob_write_protection_config:000000000000001a .L0 
C:\Users\stapi\AppData\Local\Temp\ccGAwuGe.s:1198   .text.ob_write_protection_config:000000000000001a .L0 
C:\Users\stapi\AppData\Local\Temp\ccGAwuGe.s:1200   .text.ob_write_protection_config:000000000000001c .L0 
C:\Users\stapi\AppData\Local\Temp\ccGAwuGe.s:1206   .text.ob_write_protection_config:0000000000000026 .L0 
C:\Users\stapi\AppData\Local\Temp\ccGAwuGe.s:1207   .text.ob_write_protection_config:0000000000000026 .L0 
C:\Users\stapi\AppData\Local\Temp\ccGAwuGe.s:1210   .text.ob_write_protection_config:000000000000002c .L0 
C:\Users\stapi\AppData\Local\Temp\ccGAwuGe.s:1212   .text.ob_write_protection_config:0000000000000030 .L0 
C:\Users\stapi\AppData\Local\Temp\ccGAwuGe.s:1215   .text.ob_write_protection_config:0000000000000036 .L0 
C:\Users\stapi\AppData\Local\Temp\ccGAwuGe.s:1216   .text.ob_write_protection_config:0000000000000036 .L0 
C:\Users\stapi\AppData\Local\Temp\ccGAwuGe.s:1220   .text.ob_write_protection_config:000000000000003e .L0 
C:\Users\stapi\AppData\Local\Temp\ccGAwuGe.s:1221   .text.ob_write_protection_config:000000000000003e .L0 
C:\Users\stapi\AppData\Local\Temp\ccGAwuGe.s:1222   .text.ob_write_protection_config:0000000000000046 .L0 
C:\Users\stapi\AppData\Local\Temp\ccGAwuGe.s:1223   .text.ob_write_protection_config:0000000000000046 .L0 
C:\Users\stapi\AppData\Local\Temp\ccGAwuGe.s:1224   .text.ob_write_protection_config:0000000000000046 .L0 
C:\Users\stapi\AppData\Local\Temp\ccGAwuGe.s:1225   .text.ob_write_protection_config:0000000000000046 .L0 
C:\Users\stapi\AppData\Local\Temp\ccGAwuGe.s:1226   .text.ob_write_protection_config:0000000000000046 .L0 
C:\Users\stapi\AppData\Local\Temp\ccGAwuGe.s:1227   .text.ob_write_protection_config:0000000000000046 .L0 
C:\Users\stapi\AppData\Local\Temp\ccGAwuGe.s:1230   .text.ob_write_protection_config:0000000000000046 .L0 
C:\Users\stapi\AppData\Local\Temp\ccGAwuGe.s:1232   .text.ob_write_protection_config:0000000000000046 .L0 
C:\Users\stapi\AppData\Local\Temp\ccGAwuGe.s:1233   .text.ob_write_protection_config:0000000000000046 .L0 
C:\Users\stapi\AppData\Local\Temp\ccGAwuGe.s:1236   .text.ob_write_protection_config:000000000000004e .L0 
C:\Users\stapi\AppData\Local\Temp\ccGAwuGe.s:1237   .text.ob_write_protection_config:000000000000004e .L0 
C:\Users\stapi\AppData\Local\Temp\ccGAwuGe.s:1240   .text.ob_write_protection_config:0000000000000050 .L0 
C:\Users\stapi\AppData\Local\Temp\ccGAwuGe.s:1243   .text.ob_write_protection_config:0000000000000052 .L0 
C:\Users\stapi\AppData\Local\Temp\ccGAwuGe.s:1247   .text.ob_write_protection_config:0000000000000056 .L0 
C:\Users\stapi\AppData\Local\Temp\ccGAwuGe.s:1248   .text.ob_write_protection_config:0000000000000056 .L0 
C:\Users\stapi\AppData\Local\Temp\ccGAwuGe.s:1252   .text.ob_write_protection_config:000000000000005c .L0 
C:\Users\stapi\AppData\Local\Temp\ccGAwuGe.s:1256   .text.ob_write_protection_config:000000000000005e .L0 
C:\Users\stapi\AppData\Local\Temp\ccGAwuGe.s:1257   .text.ob_write_protection_config:000000000000005e .L0 
C:\Users\stapi\AppData\Local\Temp\ccGAwuGe.s:1260   .text.ob_write_protection_config:0000000000000066 .L0 
C:\Users\stapi\AppData\Local\Temp\ccGAwuGe.s:1261   .text.ob_write_protection_config:0000000000000066 .L0 
C:\Users\stapi\AppData\Local\Temp\ccGAwuGe.s:1264   .text.ob_write_protection_config:0000000000000068 .L0 
C:\Users\stapi\AppData\Local\Temp\ccGAwuGe.s:1267   .text.ob_write_protection_config:000000000000006a .L0 
C:\Users\stapi\AppData\Local\Temp\ccGAwuGe.s:1271   .text.ob_write_protection_config:000000000000006e .L0 
C:\Users\stapi\AppData\Local\Temp\ccGAwuGe.s:1272   .text.ob_write_protection_config:000000000000006e .L0 
C:\Users\stapi\AppData\Local\Temp\ccGAwuGe.s:1276   .text.ob_write_protection_config:0000000000000074 .L0 
C:\Users\stapi\AppData\Local\Temp\ccGAwuGe.s:1277   .text.ob_write_protection_config:0000000000000076 .L0 
C:\Users\stapi\AppData\Local\Temp\ccGAwuGe.s:42     .text.fmc_unlock:0000000000000022 .L0 
C:\Users\stapi\AppData\Local\Temp\ccGAwuGe.s:61     .text.fmc_lock:000000000000000e .L0 
C:\Users\stapi\AppData\Local\Temp\ccGAwuGe.s:81     .text.fmc_obr_function_enable:000000000000000c .L0 
C:\Users\stapi\AppData\Local\Temp\ccGAwuGe.s:102    .text.fmc_obr_function_disable:000000000000000e .L0 
C:\Users\stapi\AppData\Local\Temp\ccGAwuGe.s:134    .text.ob_unlock:0000000000000022 .L0 
C:\Users\stapi\AppData\Local\Temp\ccGAwuGe.s:153    .text.ob_lock:000000000000000e .L0 
C:\Users\stapi\AppData\Local\Temp\ccGAwuGe.s:174    .text.ob_start:0000000000000012 .L0 
C:\Users\stapi\AppData\Local\Temp\ccGAwuGe.s:193    .text.ob_reload:000000000000000e .L0 
C:\Users\stapi\AppData\Local\Temp\ccGAwuGe.s:301    .text.fmc_no_rtdec_config:0000000000000072 .L0 
C:\Users\stapi\AppData\Local\Temp\ccGAwuGe.s:334    .text.fmc_offset_region_config:000000000000001c .L0 
C:\Users\stapi\AppData\Local\Temp\ccGAwuGe.s:357    .text.fmc_offset_value_config:0000000000000014 .L0 
C:\Users\stapi\AppData\Local\Temp\ccGAwuGe.s:411    .text.fmc_wifi_trim_cal_get:0000000000000030 .L0 
C:\Users\stapi\AppData\Local\Temp\ccGAwuGe.s:442    .text.fmc_wifi_trim_pa_get:0000000000000016 .L0 
C:\Users\stapi\AppData\Local\Temp\ccGAwuGe.s:490    .text.fmc_wifi_trim_get:0000000000000032 .L0 
C:\Users\stapi\AppData\Local\Temp\ccGAwuGe.s:518    .text.fmc_pid_get:0000000000000012 .L0 
C:\Users\stapi\AppData\Local\Temp\ccGAwuGe.s:541    .text.ob_write_protection_get:000000000000000c .L0 
C:\Users\stapi\AppData\Local\Temp\ccGAwuGe.s:558    .text.ob_user_get:0000000000000008 .L0 
C:\Users\stapi\AppData\Local\Temp\ccGAwuGe.s:581    .text.ob_security_protection_flag_get:000000000000000c .L0 
C:\Users\stapi\AppData\Local\Temp\ccGAwuGe.s:606    .text.fmc_flag_get:000000000000000e .L0 
C:\Users\stapi\AppData\Local\Temp\ccGAwuGe.s:624    .text.fmc_flag_clear:0000000000000008 .L0 
C:\Users\stapi\AppData\Local\Temp\ccGAwuGe.s:644    .text.fmc_interrupt_enable:000000000000000c .L0 
C:\Users\stapi\AppData\Local\Temp\ccGAwuGe.s:665    .text.fmc_interrupt_disable:000000000000000e .L0 
C:\Users\stapi\AppData\Local\Temp\ccGAwuGe.s:728    .text.fmc_state_get:0000000000000014 .L0 
C:\Users\stapi\AppData\Local\Temp\ccGAwuGe.s:778    .text.fmc_ready_wait:0000000000000026 .L0 
C:\Users\stapi\AppData\Local\Temp\ccGAwuGe.s:843    .text.fmc_page_erase:0000000000000048 .L0 
C:\Users\stapi\AppData\Local\Temp\ccGAwuGe.s:899    .text.fmc_mass_erase:0000000000000044 .L0 
C:\Users\stapi\AppData\Local\Temp\ccGAwuGe.s:964    .text.fmc_word_program:0000000000000044 .L0 
C:\Users\stapi\AppData\Local\Temp\ccGAwuGe.s:1054   .text.fmc_continuous_program:0000000000000052 .L0 
C:\Users\stapi\AppData\Local\Temp\ccGAwuGe.s:1112   .text.ob_security_protection_config:0000000000000046 .L0 
C:\Users\stapi\AppData\Local\Temp\ccGAwuGe.s:1169   .text.ob_user_write:0000000000000046 .L0 
C:\Users\stapi\AppData\Local\Temp\ccGAwuGe.s:1280   .text.ob_write_protection_config:0000000000000076 .L0 
                     .debug_frame:0000000000000000 .L0 
C:\Users\stapi\AppData\Local\Temp\ccGAwuGe.s:36     .text.fmc_unlock:0000000000000020 .L1
C:\Users\stapi\AppData\Local\Temp\ccGAwuGe.s:128    .text.ob_unlock:0000000000000020 .L9
C:\Users\stapi\AppData\Local\Temp\ccGAwuGe.s:252    .text.fmc_no_rtdec_config:0000000000000042 .L15
C:\Users\stapi\AppData\Local\Temp\ccGAwuGe.s:227    .text.fmc_no_rtdec_config:0000000000000024 .L16
C:\Users\stapi\AppData\Local\Temp\ccGAwuGe.s:233    .text.fmc_no_rtdec_config:000000000000002c .L21
C:\Users\stapi\AppData\Local\Temp\ccGAwuGe.s:275    .text.fmc_no_rtdec_config:000000000000005a .L19
C:\Users\stapi\AppData\Local\Temp\ccGAwuGe.s:481    .text.fmc_wifi_trim_get:000000000000002e .L29
C:\Users\stapi\AppData\Local\Temp\ccGAwuGe.s:464    .text.fmc_wifi_trim_get:000000000000001a .L28
C:\Users\stapi\AppData\Local\Temp\ccGAwuGe.s:722    .text.fmc_state_get:0000000000000012 .L42
C:\Users\stapi\AppData\Local\Temp\ccGAwuGe.s:768    .text.fmc_ready_wait:000000000000001e .L47
C:\Users\stapi\AppData\Local\Temp\ccGAwuGe.s:749    .text.fmc_ready_wait:000000000000000c .L49
C:\Users\stapi\AppData\Local\Temp\ccGAwuGe.s:833    .text.fmc_page_erase:0000000000000040 .L52
C:\Users\stapi\AppData\Local\Temp\ccGAwuGe.s:890    .text.fmc_mass_erase:000000000000003c .L55
C:\Users\stapi\AppData\Local\Temp\ccGAwuGe.s:953    .text.fmc_word_program:000000000000003c .L58
C:\Users\stapi\AppData\Local\Temp\ccGAwuGe.s:1024   .text.fmc_continuous_program:000000000000003a .L61
C:\Users\stapi\AppData\Local\Temp\ccGAwuGe.s:1034   .text.fmc_continuous_program:0000000000000042 .L64
C:\Users\stapi\AppData\Local\Temp\ccGAwuGe.s:1011   .text.fmc_continuous_program:000000000000002c .L63
C:\Users\stapi\AppData\Local\Temp\ccGAwuGe.s:1103   .text.ob_security_protection_config:000000000000003e .L66
C:\Users\stapi\AppData\Local\Temp\ccGAwuGe.s:1160   .text.ob_user_write:000000000000003e .L69
C:\Users\stapi\AppData\Local\Temp\ccGAwuGe.s:1219   .text.ob_write_protection_config:000000000000003e .L72
C:\Users\stapi\AppData\Local\Temp\ccGAwuGe.s:1229   .text.ob_write_protection_config:0000000000000046 .L74
C:\Users\stapi\AppData\Local\Temp\ccGAwuGe.s:1254   .text.ob_write_protection_config:000000000000005e .L75
C:\Users\stapi\AppData\Local\Temp\ccGAwuGe.s:1204   .text.ob_write_protection_config:0000000000000026 .L76
C:\Users\stapi\AppData\Local\Temp\ccGAwuGe.s:2345   .debug_abbrev:0000000000000000 .Ldebug_abbrev0
C:\Users\stapi\AppData\Local\Temp\ccGAwuGe.s:3895   .debug_str:00000000000001f3 .LASF83
C:\Users\stapi\AppData\Local\Temp\ccGAwuGe.s:3881   .debug_str:0000000000000100 .LASF84
C:\Users\stapi\AppData\Local\Temp\ccGAwuGe.s:3985   .debug_str:000000000000056e .LASF85
C:\Users\stapi\AppData\Local\Temp\ccGAwuGe.s:3769   .debug_ranges:0000000000000000 .Ldebug_ranges0
C:\Users\stapi\AppData\Local\Temp\ccGAwuGe.s:3841   .debug_line:0000000000000000 .Ldebug_line0
C:\Users\stapi\AppData\Local\Temp\ccGAwuGe.s:3949   .debug_str:000000000000046e .LASF0
C:\Users\stapi\AppData\Local\Temp\ccGAwuGe.s:3941   .debug_str:0000000000000427 .LASF1
C:\Users\stapi\AppData\Local\Temp\ccGAwuGe.s:3915   .debug_str:000000000000036b .LASF6
C:\Users\stapi\AppData\Local\Temp\ccGAwuGe.s:3929   .debug_str:00000000000003d1 .LASF2
C:\Users\stapi\AppData\Local\Temp\ccGAwuGe.s:3869   .debug_str:00000000000000a6 .LASF3
C:\Users\stapi\AppData\Local\Temp\ccGAwuGe.s:3959   .debug_str:00000000000004c0 .LASF4
C:\Users\stapi\AppData\Local\Temp\ccGAwuGe.s:3907   .debug_str:000000000000033b .LASF5
C:\Users\stapi\AppData\Local\Temp\ccGAwuGe.s:3861   .debug_str:0000000000000065 .LASF7
C:\Users\stapi\AppData\Local\Temp\ccGAwuGe.s:3977   .debug_str:0000000000000533 .LASF8
C:\Users\stapi\AppData\Local\Temp\ccGAwuGe.s:3897   .debug_str:00000000000002ec .LASF9
C:\Users\stapi\AppData\Local\Temp\ccGAwuGe.s:3899   .debug_str:00000000000002fa .LASF10
C:\Users\stapi\AppData\Local\Temp\ccGAwuGe.s:3967   .debug_str:0000000000000506 .LASF11
C:\Users\stapi\AppData\Local\Temp\ccGAwuGe.s:3879   .debug_str:00000000000000f8 .LASF12
C:\Users\stapi\AppData\Local\Temp\ccGAwuGe.s:3885   .debug_str:00000000000001bb .LASF13
C:\Users\stapi\AppData\Local\Temp\ccGAwuGe.s:3993   .debug_str:0000000000000613 .LASF14
C:\Users\stapi\AppData\Local\Temp\ccGAwuGe.s:4013   .debug_str:0000000000000690 .LASF15
C:\Users\stapi\AppData\Local\Temp\ccGAwuGe.s:4005   .debug_str:0000000000000661 .LASF16
C:\Users\stapi\AppData\Local\Temp\ccGAwuGe.s:3971   .debug_str:0000000000000513 .LASF17
C:\Users\stapi\AppData\Local\Temp\ccGAwuGe.s:3981   .debug_str:0000000000000557 .LASF18
C:\Users\stapi\AppData\Local\Temp\ccGAwuGe.s:3927   .debug_str:00000000000003c7 .LASF19
C:\Users\stapi\AppData\Local\Temp\ccGAwuGe.s:3969   .debug_str:000000000000050b .LASF20
C:\Users\stapi\AppData\Local\Temp\ccGAwuGe.s:4001   .debug_str:000000000000064d .LASF21
C:\Users\stapi\AppData\Local\Temp\ccGAwuGe.s:3873   .debug_str:00000000000000c4 .LASF31
C:\Users\stapi\AppData\Local\Temp\ccGAwuGe.s:733    .text.fmc_ready_wait:0000000000000000 .LFB397
C:\Users\stapi\AppData\Local\Temp\ccGAwuGe.s:776    .text.fmc_ready_wait:0000000000000026 .LFE397
C:\Users\stapi\AppData\Local\Temp\ccGAwuGe.s:4015   .debug_str:000000000000069b .LASF25
C:\Users\stapi\AppData\Local\Temp\ccGAwuGe.s:3026   .debug_loc:0000000000000000 .LLST17
C:\Users\stapi\AppData\Local\Temp\ccGAwuGe.s:3901   .debug_str:0000000000000311 .LASF23
C:\Users\stapi\AppData\Local\Temp\ccGAwuGe.s:3037   .debug_loc:000000000000001e .LLST18
C:\Users\stapi\AppData\Local\Temp\ccGAwuGe.s:754    .text.fmc_ready_wait:0000000000000014 .LVL52
C:\Users\stapi\AppData\Local\Temp\ccGAwuGe.s:3849   .debug_str:000000000000001c .LASF86
C:\Users\stapi\AppData\Local\Temp\ccGAwuGe.s:3877   .debug_str:00000000000000df .LASF87
C:\Users\stapi\AppData\Local\Temp\ccGAwuGe.s:4003   .debug_str:000000000000065c .LASF22
C:\Users\stapi\AppData\Local\Temp\ccGAwuGe.s:4019   .debug_str:00000000000006ac .LASF29
C:\Users\stapi\AppData\Local\Temp\ccGAwuGe.s:3957   .debug_str:00000000000004b9 .LASF24
C:\Users\stapi\AppData\Local\Temp\ccGAwuGe.s:3905   .debug_str:0000000000000325 .LASF27
C:\Users\stapi\AppData\Local\Temp\ccGAwuGe.s:649    .text.fmc_interrupt_disable:0000000000000000 .LFB393
C:\Users\stapi\AppData\Local\Temp\ccGAwuGe.s:663    .text.fmc_interrupt_disable:000000000000000e .LFE393
C:\Users\stapi\AppData\Local\Temp\ccGAwuGe.s:3887   .debug_str:00000000000001c4 .LASF26
C:\Users\stapi\AppData\Local\Temp\ccGAwuGe.s:3049   .debug_loc:000000000000003d .LLST15
C:\Users\stapi\AppData\Local\Temp\ccGAwuGe.s:3867   .debug_str:0000000000000091 .LASF28
C:\Users\stapi\AppData\Local\Temp\ccGAwuGe.s:629    .text.fmc_interrupt_enable:0000000000000000 .LFB392
C:\Users\stapi\AppData\Local\Temp\ccGAwuGe.s:642    .text.fmc_interrupt_enable:000000000000000c .LFE392
C:\Users\stapi\AppData\Local\Temp\ccGAwuGe.s:3891   .debug_str:00000000000001dc .LASF30
C:\Users\stapi\AppData\Local\Temp\ccGAwuGe.s:3973   .debug_str:000000000000051c .LASF32
C:\Users\stapi\AppData\Local\Temp\ccGAwuGe.s:586    .text.fmc_flag_get:0000000000000000 .LFB390
C:\Users\stapi\AppData\Local\Temp\ccGAwuGe.s:604    .text.fmc_flag_get:000000000000000e .LFE390
C:\Users\stapi\AppData\Local\Temp\ccGAwuGe.s:3063   .debug_loc:000000000000005e .LLST13
C:\Users\stapi\AppData\Local\Temp\ccGAwuGe.s:3077   .debug_loc:000000000000007f .LLST14
C:\Users\stapi\AppData\Local\Temp\ccGAwuGe.s:3921   .debug_str:000000000000038e .LASF33
C:\Users\stapi\AppData\Local\Temp\ccGAwuGe.s:563    .text.ob_security_protection_flag_get:0000000000000000 .LFB389
C:\Users\stapi\AppData\Local\Temp\ccGAwuGe.s:579    .text.ob_security_protection_flag_get:000000000000000c .LFE389
C:\Users\stapi\AppData\Local\Temp\ccGAwuGe.s:3855   .debug_str:0000000000000048 .LASF34
C:\Users\stapi\AppData\Local\Temp\ccGAwuGe.s:3114   .debug_loc:00000000000000be .LLST12
C:\Users\stapi\AppData\Local\Temp\ccGAwuGe.s:3875   .debug_str:00000000000000d3 .LASF88
C:\Users\stapi\AppData\Local\Temp\ccGAwuGe.s:546    .text.ob_user_get:0000000000000000 .LFB388
C:\Users\stapi\AppData\Local\Temp\ccGAwuGe.s:556    .text.ob_user_get:0000000000000008 .LFE388
C:\Users\stapi\AppData\Local\Temp\ccGAwuGe.s:3865   .debug_str:0000000000000079 .LASF35
C:\Users\stapi\AppData\Local\Temp\ccGAwuGe.s:523    .text.ob_write_protection_get:0000000000000000 .LFB387
C:\Users\stapi\AppData\Local\Temp\ccGAwuGe.s:539    .text.ob_write_protection_get:000000000000000c .LFE387
C:\Users\stapi\AppData\Local\Temp\ccGAwuGe.s:3135   .debug_loc:00000000000000e6 .LLST11
C:\Users\stapi\AppData\Local\Temp\ccGAwuGe.s:3843   .debug_str:0000000000000000 .LASF36
C:\Users\stapi\AppData\Local\Temp\ccGAwuGe.s:495    .text.fmc_pid_get:0000000000000000 .LFB386
C:\Users\stapi\AppData\Local\Temp\ccGAwuGe.s:516    .text.fmc_pid_get:0000000000000012 .LFE386
C:\Users\stapi\AppData\Local\Temp\ccGAwuGe.s:4017   .debug_str:00000000000006a3 .LASF37
C:\Users\stapi\AppData\Local\Temp\ccGAwuGe.s:3156   .debug_loc:000000000000010e .LLST10
C:\Users\stapi\AppData\Local\Temp\ccGAwuGe.s:3979   .debug_str:0000000000000545 .LASF38
C:\Users\stapi\AppData\Local\Temp\ccGAwuGe.s:447    .text.fmc_wifi_trim_get:0000000000000000 .LFB385
C:\Users\stapi\AppData\Local\Temp\ccGAwuGe.s:488    .text.fmc_wifi_trim_get:0000000000000032 .LFE385
C:\Users\stapi\AppData\Local\Temp\ccGAwuGe.s:3989   .debug_str:0000000000000604 .LASF39
C:\Users\stapi\AppData\Local\Temp\ccGAwuGe.s:3169   .debug_loc:000000000000012e .LLST9
C:\Users\stapi\AppData\Local\Temp\ccGAwuGe.s:3945   .debug_str:000000000000043b .LASF40
C:\Users\stapi\AppData\Local\Temp\ccGAwuGe.s:416    .text.fmc_wifi_trim_pa_get:0000000000000000 .LFB384
C:\Users\stapi\AppData\Local\Temp\ccGAwuGe.s:440    .text.fmc_wifi_trim_pa_get:0000000000000016 .LFE384
C:\Users\stapi\AppData\Local\Temp\ccGAwuGe.s:4007   .debug_str:000000000000066b .LASF41
C:\Users\stapi\AppData\Local\Temp\ccGAwuGe.s:4009   .debug_str:0000000000000679 .LASF42
C:\Users\stapi\AppData\Local\Temp\ccGAwuGe.s:3847   .debug_str:0000000000000013 .LASF43
C:\Users\stapi\AppData\Local\Temp\ccGAwuGe.s:3194   .debug_loc:0000000000000168 .LLST8
C:\Users\stapi\AppData\Local\Temp\ccGAwuGe.s:3939   .debug_str:0000000000000411 .LASF44
C:\Users\stapi\AppData\Local\Temp\ccGAwuGe.s:362    .text.fmc_wifi_trim_cal_get:0000000000000000 .LFB383
C:\Users\stapi\AppData\Local\Temp\ccGAwuGe.s:409    .text.fmc_wifi_trim_cal_get:0000000000000030 .LFE383
C:\Users\stapi\AppData\Local\Temp\ccGAwuGe.s:3889   .debug_str:00000000000001ce .LASF45
C:\Users\stapi\AppData\Local\Temp\ccGAwuGe.s:3201   .debug_loc:000000000000017b .LLST4
C:\Users\stapi\AppData\Local\Temp\ccGAwuGe.s:3987   .debug_str:00000000000005f7 .LASF46
C:\Users\stapi\AppData\Local\Temp\ccGAwuGe.s:3215   .debug_loc:000000000000019c .LLST5
C:\Users\stapi\AppData\Local\Temp\ccGAwuGe.s:3919   .debug_str:0000000000000382 .LASF47
C:\Users\stapi\AppData\Local\Temp\ccGAwuGe.s:3859   .debug_str:0000000000000058 .LASF48
C:\Users\stapi\AppData\Local\Temp\ccGAwuGe.s:3229   .debug_loc:00000000000001bd .LLST6
C:\Users\stapi\AppData\Local\Temp\ccGAwuGe.s:3911   .debug_str:0000000000000353 .LASF49
C:\Users\stapi\AppData\Local\Temp\ccGAwuGe.s:3236   .debug_loc:00000000000001d0 .LLST7
C:\Users\stapi\AppData\Local\Temp\ccGAwuGe.s:3883   .debug_str:00000000000001a3 .LASF50
C:\Users\stapi\AppData\Local\Temp\ccGAwuGe.s:339    .text.fmc_offset_value_config:0000000000000000 .LFB382
C:\Users\stapi\AppData\Local\Temp\ccGAwuGe.s:355    .text.fmc_offset_value_config:0000000000000014 .LFE382
C:\Users\stapi\AppData\Local\Temp\ccGAwuGe.s:3863   .debug_str:0000000000000070 .LASF51
C:\Users\stapi\AppData\Local\Temp\ccGAwuGe.s:3963   .debug_str:00000000000004e4 .LASF52
C:\Users\stapi\AppData\Local\Temp\ccGAwuGe.s:306    .text.fmc_offset_region_config:0000000000000000 .LFB381
C:\Users\stapi\AppData\Local\Temp\ccGAwuGe.s:332    .text.fmc_offset_region_config:000000000000001c .LFE381
C:\Users\stapi\AppData\Local\Temp\ccGAwuGe.s:3853   .debug_str:000000000000003f .LASF53
C:\Users\stapi\AppData\Local\Temp\ccGAwuGe.s:3965   .debug_str:00000000000004fd .LASF54
C:\Users\stapi\AppData\Local\Temp\ccGAwuGe.s:3243   .debug_loc:00000000000001e3 .LLST3
C:\Users\stapi\AppData\Local\Temp\ccGAwuGe.s:3871   .debug_str:00000000000000b0 .LASF55
C:\Users\stapi\AppData\Local\Temp\ccGAwuGe.s:198    .text.fmc_no_rtdec_config:0000000000000000 .LFB380
C:\Users\stapi\AppData\Local\Temp\ccGAwuGe.s:299    .text.fmc_no_rtdec_config:0000000000000072 .LFE380
C:\Users\stapi\AppData\Local\Temp\ccGAwuGe.s:3931   .debug_str:00000000000003df .LASF56
C:\Users\stapi\AppData\Local\Temp\ccGAwuGe.s:3257   .debug_loc:0000000000000204 .LLST1
C:\Users\stapi\AppData\Local\Temp\ccGAwuGe.s:3953   .debug_str:0000000000000492 .LASF57
C:\Users\stapi\AppData\Local\Temp\ccGAwuGe.s:3304   .debug_loc:0000000000000270 .LLST2
C:\Users\stapi\AppData\Local\Temp\ccGAwuGe.s:3851   .debug_str:000000000000002a .LASF58
C:\Users\stapi\AppData\Local\Temp\ccGAwuGe.s:3955   .debug_str:000000000000049e .LASF59
C:\Users\stapi\AppData\Local\Temp\ccGAwuGe.s:1174   .text.ob_write_protection_config:0000000000000000 .LFB379
C:\Users\stapi\AppData\Local\Temp\ccGAwuGe.s:1278   .text.ob_write_protection_config:0000000000000076 .LFE379
C:\Users\stapi\AppData\Local\Temp\ccGAwuGe.s:3975   .debug_str:0000000000000529 .LASF60
C:\Users\stapi\AppData\Local\Temp\ccGAwuGe.s:3351   .debug_loc:00000000000002dc .LLST34
C:\Users\stapi\AppData\Local\Temp\ccGAwuGe.s:3991   .debug_str:0000000000000609 .LASF61
C:\Users\stapi\AppData\Local\Temp\ccGAwuGe.s:3391   .debug_loc:000000000000033a .LLST35
C:\Users\stapi\AppData\Local\Temp\ccGAwuGe.s:3995   .debug_str:0000000000000619 .LASF62
C:\Users\stapi\AppData\Local\Temp\ccGAwuGe.s:3431   .debug_loc:0000000000000398 .LLST36
C:\Users\stapi\AppData\Local\Temp\ccGAwuGe.s:3442   .debug_loc:00000000000003b6 .LLST37
C:\Users\stapi\AppData\Local\Temp\ccGAwuGe.s:1195   .text.ob_write_protection_config:000000000000001a .LVL94
C:\Users\stapi\AppData\Local\Temp\ccGAwuGe.s:1217   .text.ob_write_protection_config:000000000000003e .LVL96
C:\Users\stapi\AppData\Local\Temp\ccGAwuGe.s:3923   .debug_str:00000000000003ae .LASF63
C:\Users\stapi\AppData\Local\Temp\ccGAwuGe.s:1117   .text.ob_user_write:0000000000000000 .LFB378
C:\Users\stapi\AppData\Local\Temp\ccGAwuGe.s:1167   .text.ob_user_write:0000000000000046 .LFE378
C:\Users\stapi\AppData\Local\Temp\ccGAwuGe.s:3893   .debug_str:00000000000001eb .LASF64
C:\Users\stapi\AppData\Local\Temp\ccGAwuGe.s:3457   .debug_loc:00000000000003df .LLST32
C:\Users\stapi\AppData\Local\Temp\ccGAwuGe.s:3468   .debug_loc:00000000000003fd .LLST33
C:\Users\stapi\AppData\Local\Temp\ccGAwuGe.s:1132   .text.ob_user_write:0000000000000016 .LVL89
C:\Users\stapi\AppData\Local\Temp\ccGAwuGe.s:1158   .text.ob_user_write:000000000000003e .LVL91
C:\Users\stapi\AppData\Local\Temp\ccGAwuGe.s:3947   .debug_str:0000000000000450 .LASF65
C:\Users\stapi\AppData\Local\Temp\ccGAwuGe.s:1059   .text.ob_security_protection_config:0000000000000000 .LFB377
C:\Users\stapi\AppData\Local\Temp\ccGAwuGe.s:1110   .text.ob_security_protection_config:0000000000000046 .LFE377
C:\Users\stapi\AppData\Local\Temp\ccGAwuGe.s:3845   .debug_str:000000000000000c .LASF66
C:\Users\stapi\AppData\Local\Temp\ccGAwuGe.s:3479   .debug_loc:000000000000041b .LLST30
C:\Users\stapi\AppData\Local\Temp\ccGAwuGe.s:3493   .debug_loc:000000000000043c .LLST31
C:\Users\stapi\AppData\Local\Temp\ccGAwuGe.s:1074   .text.ob_security_protection_config:0000000000000016 .LVL84
C:\Users\stapi\AppData\Local\Temp\ccGAwuGe.s:1101   .text.ob_security_protection_config:000000000000003e .LVL86
C:\Users\stapi\AppData\Local\Temp\ccGAwuGe.s:3903   .debug_str:000000000000031b .LASF67
C:\Users\stapi\AppData\Local\Temp\ccGAwuGe.s:179    .text.ob_reload:0000000000000000 .LFB376
C:\Users\stapi\AppData\Local\Temp\ccGAwuGe.s:191    .text.ob_reload:000000000000000e .LFE376
C:\Users\stapi\AppData\Local\Temp\ccGAwuGe.s:4011   .debug_str:0000000000000687 .LASF68
C:\Users\stapi\AppData\Local\Temp\ccGAwuGe.s:158    .text.ob_start:0000000000000000 .LFB375
C:\Users\stapi\AppData\Local\Temp\ccGAwuGe.s:172    .text.ob_start:0000000000000012 .LFE375
C:\Users\stapi\AppData\Local\Temp\ccGAwuGe.s:3999   .debug_str:0000000000000645 .LASF69
C:\Users\stapi\AppData\Local\Temp\ccGAwuGe.s:139    .text.ob_lock:0000000000000000 .LFB374
C:\Users\stapi\AppData\Local\Temp\ccGAwuGe.s:151    .text.ob_lock:000000000000000e .LFE374
C:\Users\stapi\AppData\Local\Temp\ccGAwuGe.s:3857   .debug_str:000000000000004e .LASF70
C:\Users\stapi\AppData\Local\Temp\ccGAwuGe.s:107    .text.ob_unlock:0000000000000000 .LFB373
C:\Users\stapi\AppData\Local\Temp\ccGAwuGe.s:132    .text.ob_unlock:0000000000000022 .LFE373
C:\Users\stapi\AppData\Local\Temp\ccGAwuGe.s:3997   .debug_str:000000000000062c .LASF71
C:\Users\stapi\AppData\Local\Temp\ccGAwuGe.s:86     .text.fmc_obr_function_disable:0000000000000000 .LFB372
C:\Users\stapi\AppData\Local\Temp\ccGAwuGe.s:100    .text.fmc_obr_function_disable:000000000000000e .LFE372
C:\Users\stapi\AppData\Local\Temp\ccGAwuGe.s:3983   .debug_str:0000000000000561 .LASF72
C:\Users\stapi\AppData\Local\Temp\ccGAwuGe.s:3504   .debug_loc:000000000000045a .LLST0
C:\Users\stapi\AppData\Local\Temp\ccGAwuGe.s:3937   .debug_str:00000000000003f9 .LASF73
C:\Users\stapi\AppData\Local\Temp\ccGAwuGe.s:66     .text.fmc_obr_function_enable:0000000000000000 .LFB371
C:\Users\stapi\AppData\Local\Temp\ccGAwuGe.s:79     .text.fmc_obr_function_enable:000000000000000c .LFE371
C:\Users\stapi\AppData\Local\Temp\ccGAwuGe.s:3951   .debug_str:000000000000047b .LASF74
C:\Users\stapi\AppData\Local\Temp\ccGAwuGe.s:969    .text.fmc_continuous_program:0000000000000000 .LFB370
C:\Users\stapi\AppData\Local\Temp\ccGAwuGe.s:1052   .text.fmc_continuous_program:0000000000000052 .LFE370
C:\Users\stapi\AppData\Local\Temp\ccGAwuGe.s:3943   .debug_str:0000000000000433 .LASF75
C:\Users\stapi\AppData\Local\Temp\ccGAwuGe.s:3518   .debug_loc:000000000000047b .LLST25
C:\Users\stapi\AppData\Local\Temp\ccGAwuGe.s:3935   .debug_str:00000000000003f4 .LASF76
C:\Users\stapi\AppData\Local\Temp\ccGAwuGe.s:3558   .debug_loc:00000000000004cb .LLST26
C:\Users\stapi\AppData\Local\Temp\ccGAwuGe.s:3569   .debug_loc:00000000000004e9 .LLST27
C:\Users\stapi\AppData\Local\Temp\ccGAwuGe.s:3587   .debug_loc:0000000000000515 .LLST28
C:\Users\stapi\AppData\Local\Temp\ccGAwuGe.s:3599   .debug_loc:0000000000000534 .LLST29
C:\Users\stapi\AppData\Local\Temp\ccGAwuGe.s:992    .text.fmc_continuous_program:000000000000001a .LVL74
C:\Users\stapi\AppData\Local\Temp\ccGAwuGe.s:3961   .debug_str:00000000000004d3 .LASF77
C:\Users\stapi\AppData\Local\Temp\ccGAwuGe.s:904    .text.fmc_word_program:0000000000000000 .LFB369
C:\Users\stapi\AppData\Local\Temp\ccGAwuGe.s:962    .text.fmc_word_program:0000000000000044 .LFE369
C:\Users\stapi\AppData\Local\Temp\ccGAwuGe.s:3607   .debug_loc:0000000000000548 .LLST22
C:\Users\stapi\AppData\Local\Temp\ccGAwuGe.s:3618   .debug_loc:0000000000000566 .LLST23
C:\Users\stapi\AppData\Local\Temp\ccGAwuGe.s:3629   .debug_loc:0000000000000584 .LLST24
C:\Users\stapi\AppData\Local\Temp\ccGAwuGe.s:926    .text.fmc_word_program:0000000000000018 .LVL68
C:\Users\stapi\AppData\Local\Temp\ccGAwuGe.s:946    .text.fmc_word_program:0000000000000036 .LVL70
C:\Users\stapi\AppData\Local\Temp\ccGAwuGe.s:3913   .debug_str:000000000000035c .LASF78
C:\Users\stapi\AppData\Local\Temp\ccGAwuGe.s:848    .text.fmc_mass_erase:0000000000000000 .LFB368
C:\Users\stapi\AppData\Local\Temp\ccGAwuGe.s:897    .text.fmc_mass_erase:0000000000000044 .LFE368
C:\Users\stapi\AppData\Local\Temp\ccGAwuGe.s:3645   .debug_loc:00000000000005ae .LLST21
C:\Users\stapi\AppData\Local\Temp\ccGAwuGe.s:861    .text.fmc_mass_erase:0000000000000014 .LVL62
C:\Users\stapi\AppData\Local\Temp\ccGAwuGe.s:883    .text.fmc_mass_erase:0000000000000036 .LVL64
C:\Users\stapi\AppData\Local\Temp\ccGAwuGe.s:3909   .debug_str:0000000000000344 .LASF79
C:\Users\stapi\AppData\Local\Temp\ccGAwuGe.s:783    .text.fmc_page_erase:0000000000000000 .LFB367
C:\Users\stapi\AppData\Local\Temp\ccGAwuGe.s:841    .text.fmc_page_erase:0000000000000048 .LFE367
C:\Users\stapi\AppData\Local\Temp\ccGAwuGe.s:3917   .debug_str:0000000000000375 .LASF80
C:\Users\stapi\AppData\Local\Temp\ccGAwuGe.s:3661   .debug_loc:00000000000005d8 .LLST19
C:\Users\stapi\AppData\Local\Temp\ccGAwuGe.s:3672   .debug_loc:00000000000005f6 .LLST20
C:\Users\stapi\AppData\Local\Temp\ccGAwuGe.s:801    .text.fmc_page_erase:0000000000000016 .LVL58
C:\Users\stapi\AppData\Local\Temp\ccGAwuGe.s:826    .text.fmc_page_erase:000000000000003a .LVL60
C:\Users\stapi\AppData\Local\Temp\ccGAwuGe.s:3933   .debug_str:00000000000003eb .LASF81
C:\Users\stapi\AppData\Local\Temp\ccGAwuGe.s:47     .text.fmc_lock:0000000000000000 .LFB366
C:\Users\stapi\AppData\Local\Temp\ccGAwuGe.s:59     .text.fmc_lock:000000000000000e .LFE366
C:\Users\stapi\AppData\Local\Temp\ccGAwuGe.s:3925   .debug_str:00000000000003bc .LASF82
C:\Users\stapi\AppData\Local\Temp\ccGAwuGe.s:14     .text.fmc_unlock:0000000000000000 .LFB365
C:\Users\stapi\AppData\Local\Temp\ccGAwuGe.s:40     .text.fmc_unlock:0000000000000022 .LFE365
C:\Users\stapi\AppData\Local\Temp\ccGAwuGe.s:611    .text.fmc_flag_clear:0000000000000000 .LFB391
C:\Users\stapi\AppData\Local\Temp\ccGAwuGe.s:622    .text.fmc_flag_clear:0000000000000008 .LFE391
C:\Users\stapi\AppData\Local\Temp\ccGAwuGe.s:694    .text.fmc_state_get:0000000000000000 .LFB396
C:\Users\stapi\AppData\Local\Temp\ccGAwuGe.s:726    .text.fmc_state_get:0000000000000014 .LFE396
C:\Users\stapi\AppData\Local\Temp\ccGAwuGe.s:3688   .debug_loc:0000000000000620 .LLST16
C:\Users\stapi\AppData\Local\Temp\ccGAwuGe.s:707    .text.fmc_state_get:000000000000000a .LBB4
C:\Users\stapi\AppData\Local\Temp\ccGAwuGe.s:720    .text.fmc_state_get:0000000000000012 .LBE4
C:\Users\stapi\AppData\Local\Temp\ccGAwuGe.s:736    .text.fmc_ready_wait:0000000000000000 .LVL49
C:\Users\stapi\AppData\Local\Temp\ccGAwuGe.s:748    .text.fmc_ready_wait:000000000000000c .LVL51
C:\Users\stapi\AppData\Local\Temp\ccGAwuGe.s:743    .text.fmc_ready_wait:0000000000000008 .LVL50
C:\Users\stapi\AppData\Local\Temp\ccGAwuGe.s:766    .text.fmc_ready_wait:000000000000001e .LVL54
C:\Users\stapi\AppData\Local\Temp\ccGAwuGe.s:652    .text.fmc_interrupt_disable:0000000000000000 .LVL45
C:\Users\stapi\AppData\Local\Temp\ccGAwuGe.s:658    .text.fmc_interrupt_disable:000000000000000a .LVL46
C:\Users\stapi\AppData\Local\Temp\ccGAwuGe.s:589    .text.fmc_flag_get:0000000000000000 .LVL40
C:\Users\stapi\AppData\Local\Temp\ccGAwuGe.s:599    .text.fmc_flag_get:0000000000000008 .LVL42
C:\Users\stapi\AppData\Local\Temp\ccGAwuGe.s:595    .text.fmc_flag_get:0000000000000006 .LVL41
C:\Users\stapi\AppData\Local\Temp\ccGAwuGe.s:567    .text.ob_security_protection_flag_get:0000000000000000 .LVL37
C:\Users\stapi\AppData\Local\Temp\ccGAwuGe.s:572    .text.ob_security_protection_flag_get:0000000000000006 .LVL38
C:\Users\stapi\AppData\Local\Temp\ccGAwuGe.s:576    .text.ob_security_protection_flag_get:000000000000000a .LVL39
C:\Users\stapi\AppData\Local\Temp\ccGAwuGe.s:527    .text.ob_write_protection_get:0000000000000000 .LVL34
C:\Users\stapi\AppData\Local\Temp\ccGAwuGe.s:532    .text.ob_write_protection_get:0000000000000006 .LVL35
C:\Users\stapi\AppData\Local\Temp\ccGAwuGe.s:536    .text.ob_write_protection_get:000000000000000a .LVL36
C:\Users\stapi\AppData\Local\Temp\ccGAwuGe.s:498    .text.fmc_pid_get:0000000000000000 .LVL32
C:\Users\stapi\AppData\Local\Temp\ccGAwuGe.s:507    .text.fmc_pid_get:000000000000000a .LVL33
C:\Users\stapi\AppData\Local\Temp\ccGAwuGe.s:450    .text.fmc_wifi_trim_get:0000000000000000 .LVL28
C:\Users\stapi\AppData\Local\Temp\ccGAwuGe.s:463    .text.fmc_wifi_trim_get:000000000000001a .LVL29
C:\Users\stapi\AppData\Local\Temp\ccGAwuGe.s:480    .text.fmc_wifi_trim_get:000000000000002e .LVL30
C:\Users\stapi\AppData\Local\Temp\ccGAwuGe.s:484    .text.fmc_wifi_trim_get:0000000000000030 .LVL31
C:\Users\stapi\AppData\Local\Temp\ccGAwuGe.s:425    .text.fmc_wifi_trim_pa_get:0000000000000008 .LVL26
C:\Users\stapi\AppData\Local\Temp\ccGAwuGe.s:434    .text.fmc_wifi_trim_pa_get:0000000000000012 .LVL27
C:\Users\stapi\AppData\Local\Temp\ccGAwuGe.s:365    .text.fmc_wifi_trim_cal_get:0000000000000000 .LVL18
C:\Users\stapi\AppData\Local\Temp\ccGAwuGe.s:387    .text.fmc_wifi_trim_cal_get:000000000000001c .LVL21
C:\Users\stapi\AppData\Local\Temp\ccGAwuGe.s:394    .text.fmc_wifi_trim_cal_get:0000000000000022 .LVL22
C:\Users\stapi\AppData\Local\Temp\ccGAwuGe.s:372    .text.fmc_wifi_trim_cal_get:0000000000000008 .LVL19
C:\Users\stapi\AppData\Local\Temp\ccGAwuGe.s:397    .text.fmc_wifi_trim_cal_get:0000000000000028 .LVL23
C:\Users\stapi\AppData\Local\Temp\ccGAwuGe.s:378    .text.fmc_wifi_trim_cal_get:0000000000000010 .LVL20
C:\Users\stapi\AppData\Local\Temp\ccGAwuGe.s:403    .text.fmc_wifi_trim_cal_get:000000000000002c .LVL24
C:\Users\stapi\AppData\Local\Temp\ccGAwuGe.s:309    .text.fmc_offset_region_config:0000000000000000 .LVL15
C:\Users\stapi\AppData\Local\Temp\ccGAwuGe.s:320    .text.fmc_offset_region_config:0000000000000010 .LVL16
C:\Users\stapi\AppData\Local\Temp\ccGAwuGe.s:201    .text.fmc_no_rtdec_config:0000000000000000 .LVL3
C:\Users\stapi\AppData\Local\Temp\ccGAwuGe.s:217    .text.fmc_no_rtdec_config:000000000000001a .LVL5
C:\Users\stapi\AppData\Local\Temp\ccGAwuGe.s:226    .text.fmc_no_rtdec_config:0000000000000024 .LVL6
C:\Users\stapi\AppData\Local\Temp\ccGAwuGe.s:242    .text.fmc_no_rtdec_config:0000000000000038 .LVL8
C:\Users\stapi\AppData\Local\Temp\ccGAwuGe.s:251    .text.fmc_no_rtdec_config:0000000000000042 .LVL9
C:\Users\stapi\AppData\Local\Temp\ccGAwuGe.s:265    .text.fmc_no_rtdec_config:0000000000000050 .LVL11
C:\Users\stapi\AppData\Local\Temp\ccGAwuGe.s:274    .text.fmc_no_rtdec_config:000000000000005a .LVL12
C:\Users\stapi\AppData\Local\Temp\ccGAwuGe.s:288    .text.fmc_no_rtdec_config:0000000000000068 .LVL14
C:\Users\stapi\AppData\Local\Temp\ccGAwuGe.s:207    .text.fmc_no_rtdec_config:000000000000000c .LVL4
C:\Users\stapi\AppData\Local\Temp\ccGAwuGe.s:232    .text.fmc_no_rtdec_config:000000000000002c .LVL7
C:\Users\stapi\AppData\Local\Temp\ccGAwuGe.s:262    .text.fmc_no_rtdec_config:000000000000004e .LVL10
C:\Users\stapi\AppData\Local\Temp\ccGAwuGe.s:285    .text.fmc_no_rtdec_config:0000000000000066 .LVL13
C:\Users\stapi\AppData\Local\Temp\ccGAwuGe.s:1177   .text.ob_write_protection_config:0000000000000000 .LVL92
C:\Users\stapi\AppData\Local\Temp\ccGAwuGe.s:1189   .text.ob_write_protection_config:000000000000000e .LVL93
C:\Users\stapi\AppData\Local\Temp\ccGAwuGe.s:1203   .text.ob_write_protection_config:0000000000000026 .LVL95
C:\Users\stapi\AppData\Local\Temp\ccGAwuGe.s:1228   .text.ob_write_protection_config:0000000000000046 .LVL97
C:\Users\stapi\AppData\Local\Temp\ccGAwuGe.s:1244   .text.ob_write_protection_config:0000000000000054 .LVL100
C:\Users\stapi\AppData\Local\Temp\ccGAwuGe.s:1253   .text.ob_write_protection_config:000000000000005e .LVL101
C:\Users\stapi\AppData\Local\Temp\ccGAwuGe.s:1268   .text.ob_write_protection_config:000000000000006c .LVL104
C:\Users\stapi\AppData\Local\Temp\ccGAwuGe.s:1241   .text.ob_write_protection_config:0000000000000052 .LVL99
C:\Users\stapi\AppData\Local\Temp\ccGAwuGe.s:1265   .text.ob_write_protection_config:000000000000006a .LVL103
C:\Users\stapi\AppData\Local\Temp\ccGAwuGe.s:1238   .text.ob_write_protection_config:0000000000000050 .LVL98
C:\Users\stapi\AppData\Local\Temp\ccGAwuGe.s:1262   .text.ob_write_protection_config:0000000000000068 .LVL102
C:\Users\stapi\AppData\Local\Temp\ccGAwuGe.s:1120   .text.ob_user_write:0000000000000000 .LVL87
C:\Users\stapi\AppData\Local\Temp\ccGAwuGe.s:1130   .text.ob_user_write:000000000000000e .LVL88
C:\Users\stapi\AppData\Local\Temp\ccGAwuGe.s:1145   .text.ob_user_write:0000000000000028 .LVL90
C:\Users\stapi\AppData\Local\Temp\ccGAwuGe.s:1062   .text.ob_security_protection_config:0000000000000000 .LVL82
C:\Users\stapi\AppData\Local\Temp\ccGAwuGe.s:1072   .text.ob_security_protection_config:000000000000000e .LVL83
C:\Users\stapi\AppData\Local\Temp\ccGAwuGe.s:1087   .text.ob_security_protection_config:0000000000000026 .LVL85
C:\Users\stapi\AppData\Local\Temp\ccGAwuGe.s:89     .text.fmc_obr_function_disable:0000000000000000 .LVL1
C:\Users\stapi\AppData\Local\Temp\ccGAwuGe.s:95     .text.fmc_obr_function_disable:000000000000000a .LVL2
C:\Users\stapi\AppData\Local\Temp\ccGAwuGe.s:972    .text.fmc_continuous_program:0000000000000000 .LVL71
C:\Users\stapi\AppData\Local\Temp\ccGAwuGe.s:986    .text.fmc_continuous_program:000000000000000e .LVL73
C:\Users\stapi\AppData\Local\Temp\ccGAwuGe.s:1010   .text.fmc_continuous_program:000000000000002c .LVL77
C:\Users\stapi\AppData\Local\Temp\ccGAwuGe.s:1020   .text.fmc_continuous_program:0000000000000036 .LVL78
C:\Users\stapi\AppData\Local\Temp\ccGAwuGe.s:1033   .text.fmc_continuous_program:0000000000000042 .LVL79
C:\Users\stapi\AppData\Local\Temp\ccGAwuGe.s:1043   .text.fmc_continuous_program:000000000000004e .LVL80
C:\Users\stapi\AppData\Local\Temp\ccGAwuGe.s:1047   .text.fmc_continuous_program:0000000000000050 .LVL81
C:\Users\stapi\AppData\Local\Temp\ccGAwuGe.s:1001   .text.fmc_continuous_program:0000000000000024 .LVL75
C:\Users\stapi\AppData\Local\Temp\ccGAwuGe.s:980    .text.fmc_continuous_program:0000000000000008 .LVL72
C:\Users\stapi\AppData\Local\Temp\ccGAwuGe.s:1007   .text.fmc_continuous_program:000000000000002a .LVL76
C:\Users\stapi\AppData\Local\Temp\ccGAwuGe.s:907    .text.fmc_word_program:0000000000000000 .LVL65
C:\Users\stapi\AppData\Local\Temp\ccGAwuGe.s:921    .text.fmc_word_program:000000000000000e .LVL67
C:\Users\stapi\AppData\Local\Temp\ccGAwuGe.s:915    .text.fmc_word_program:0000000000000008 .LVL66
C:\Users\stapi\AppData\Local\Temp\ccGAwuGe.s:936    .text.fmc_word_program:0000000000000024 .LVL69
C:\Users\stapi\AppData\Local\Temp\ccGAwuGe.s:856    .text.fmc_mass_erase:0000000000000008 .LVL61
C:\Users\stapi\AppData\Local\Temp\ccGAwuGe.s:871    .text.fmc_mass_erase:0000000000000020 .LVL63
C:\Users\stapi\AppData\Local\Temp\ccGAwuGe.s:786    .text.fmc_page_erase:0000000000000000 .LVL55
C:\Users\stapi\AppData\Local\Temp\ccGAwuGe.s:799    .text.fmc_page_erase:000000000000000e .LVL57
C:\Users\stapi\AppData\Local\Temp\ccGAwuGe.s:793    .text.fmc_page_erase:0000000000000008 .LVL56
C:\Users\stapi\AppData\Local\Temp\ccGAwuGe.s:811    .text.fmc_page_erase:0000000000000022 .LVL59
C:\Users\stapi\AppData\Local\Temp\ccGAwuGe.s:698    .text.fmc_state_get:0000000000000000 .LVL47
C:\Users\stapi\AppData\Local\Temp\ccGAwuGe.s:718    .text.fmc_state_get:0000000000000012 .LVL48
C:\Users\stapi\AppData\Local\Temp\ccGAwuGe.s:1287   .debug_info:0000000000000000 .Ldebug_info0
C:\Users\stapi\AppData\Local\Temp\ccGAwuGe.s:1005   .text.fmc_continuous_program:000000000000002a .LBB6
C:\Users\stapi\AppData\Local\Temp\ccGAwuGe.s:1015   .text.fmc_continuous_program:0000000000000030 .LBE6
C:\Users\stapi\AppData\Local\Temp\ccGAwuGe.s:1036   .text.fmc_continuous_program:0000000000000042 .LBB7
C:\Users\stapi\AppData\Local\Temp\ccGAwuGe.s:1050   .text.fmc_continuous_program:0000000000000052 .LBE7

UNDEFINED SYMBOLS
__riscv_save_2
__riscv_restore_2
__riscv_save_1
__riscv_restore_1
__riscv_save_3
__riscv_restore_3
