   1              		.file	"gd32vw55x_cau_aes.c"
   2              		.option nopic
   3              		.attribute arch, "rv32i2p0_m2p0_a2p0_f2p0_c2p0_b_p0p94"
   4              		.attribute unaligned_access, 0
   5              		.attribute stack_align, 16
   6              		.text
   7              	.Ltext0:
   8              		.cfi_sections	.debug_frame
   9              		.section	.text.cau_aes_key_config,"ax",@progbits
  10              		.align	1
  12              	cau_aes_key_config:
  13              	.LFB372:
  14              		.file 1 "C:/Users/stapi/OneDrive/Desktop/GD32VW553/GD32VW55X_Wifi_BLE_SDK/GD32VW55x_RELEASE_V1.0.2
   1:C:/Users/stapi/OneDrive/Desktop/GD32VW553/GD32VW55X_Wifi_BLE_SDK/GD32VW55x_RELEASE_V1.0.2/MSDK/plf/GD32VW55x_standard_peripheral/Source\gd32vw55x_cau_aes.c **** /*!
   2:C:/Users/stapi/OneDrive/Desktop/GD32VW553/GD32VW55X_Wifi_BLE_SDK/GD32VW55x_RELEASE_V1.0.2/MSDK/plf/GD32VW55x_standard_peripheral/Source\gd32vw55x_cau_aes.c ****     \file    gd32vw55x_cau_aes.c
   3:C:/Users/stapi/OneDrive/Desktop/GD32VW553/GD32VW55X_Wifi_BLE_SDK/GD32VW55x_RELEASE_V1.0.2/MSDK/plf/GD32VW55x_standard_peripheral/Source\gd32vw55x_cau_aes.c ****     \brief   CAU AES driver
   4:C:/Users/stapi/OneDrive/Desktop/GD32VW553/GD32VW55X_Wifi_BLE_SDK/GD32VW55x_RELEASE_V1.0.2/MSDK/plf/GD32VW55x_standard_peripheral/Source\gd32vw55x_cau_aes.c **** 
   5:C:/Users/stapi/OneDrive/Desktop/GD32VW553/GD32VW55X_Wifi_BLE_SDK/GD32VW55x_RELEASE_V1.0.2/MSDK/plf/GD32VW55x_standard_peripheral/Source\gd32vw55x_cau_aes.c ****     \version 2023-07-20, V1.0.0, firmware for GD32VW55x
   6:C:/Users/stapi/OneDrive/Desktop/GD32VW553/GD32VW55X_Wifi_BLE_SDK/GD32VW55x_RELEASE_V1.0.2/MSDK/plf/GD32VW55x_standard_peripheral/Source\gd32vw55x_cau_aes.c **** */
   7:C:/Users/stapi/OneDrive/Desktop/GD32VW553/GD32VW55X_Wifi_BLE_SDK/GD32VW55x_RELEASE_V1.0.2/MSDK/plf/GD32VW55x_standard_peripheral/Source\gd32vw55x_cau_aes.c **** 
   8:C:/Users/stapi/OneDrive/Desktop/GD32VW553/GD32VW55X_Wifi_BLE_SDK/GD32VW55x_RELEASE_V1.0.2/MSDK/plf/GD32VW55x_standard_peripheral/Source\gd32vw55x_cau_aes.c **** /*
   9:C:/Users/stapi/OneDrive/Desktop/GD32VW553/GD32VW55X_Wifi_BLE_SDK/GD32VW55x_RELEASE_V1.0.2/MSDK/plf/GD32VW55x_standard_peripheral/Source\gd32vw55x_cau_aes.c ****     Copyright (c) 2023, GigaDevice Semiconductor Inc.
  10:C:/Users/stapi/OneDrive/Desktop/GD32VW553/GD32VW55X_Wifi_BLE_SDK/GD32VW55x_RELEASE_V1.0.2/MSDK/plf/GD32VW55x_standard_peripheral/Source\gd32vw55x_cau_aes.c **** 
  11:C:/Users/stapi/OneDrive/Desktop/GD32VW553/GD32VW55X_Wifi_BLE_SDK/GD32VW55x_RELEASE_V1.0.2/MSDK/plf/GD32VW55x_standard_peripheral/Source\gd32vw55x_cau_aes.c ****     Redistribution and use in source and binary forms, with or without modification,
  12:C:/Users/stapi/OneDrive/Desktop/GD32VW553/GD32VW55X_Wifi_BLE_SDK/GD32VW55x_RELEASE_V1.0.2/MSDK/plf/GD32VW55x_standard_peripheral/Source\gd32vw55x_cau_aes.c **** are permitted provided that the following conditions are met:
  13:C:/Users/stapi/OneDrive/Desktop/GD32VW553/GD32VW55X_Wifi_BLE_SDK/GD32VW55x_RELEASE_V1.0.2/MSDK/plf/GD32VW55x_standard_peripheral/Source\gd32vw55x_cau_aes.c **** 
  14:C:/Users/stapi/OneDrive/Desktop/GD32VW553/GD32VW55X_Wifi_BLE_SDK/GD32VW55x_RELEASE_V1.0.2/MSDK/plf/GD32VW55x_standard_peripheral/Source\gd32vw55x_cau_aes.c ****     1. Redistributions of source code must retain the above copyright notice, this
  15:C:/Users/stapi/OneDrive/Desktop/GD32VW553/GD32VW55X_Wifi_BLE_SDK/GD32VW55x_RELEASE_V1.0.2/MSDK/plf/GD32VW55x_standard_peripheral/Source\gd32vw55x_cau_aes.c ****        list of conditions and the following disclaimer.
  16:C:/Users/stapi/OneDrive/Desktop/GD32VW553/GD32VW55X_Wifi_BLE_SDK/GD32VW55x_RELEASE_V1.0.2/MSDK/plf/GD32VW55x_standard_peripheral/Source\gd32vw55x_cau_aes.c ****     2. Redistributions in binary form must reproduce the above copyright notice,
  17:C:/Users/stapi/OneDrive/Desktop/GD32VW553/GD32VW55X_Wifi_BLE_SDK/GD32VW55x_RELEASE_V1.0.2/MSDK/plf/GD32VW55x_standard_peripheral/Source\gd32vw55x_cau_aes.c ****        this list of conditions and the following disclaimer in the documentation
  18:C:/Users/stapi/OneDrive/Desktop/GD32VW553/GD32VW55X_Wifi_BLE_SDK/GD32VW55x_RELEASE_V1.0.2/MSDK/plf/GD32VW55x_standard_peripheral/Source\gd32vw55x_cau_aes.c ****        and/or other materials provided with the distribution.
  19:C:/Users/stapi/OneDrive/Desktop/GD32VW553/GD32VW55X_Wifi_BLE_SDK/GD32VW55x_RELEASE_V1.0.2/MSDK/plf/GD32VW55x_standard_peripheral/Source\gd32vw55x_cau_aes.c ****     3. Neither the name of the copyright holder nor the names of its contributors
  20:C:/Users/stapi/OneDrive/Desktop/GD32VW553/GD32VW55X_Wifi_BLE_SDK/GD32VW55x_RELEASE_V1.0.2/MSDK/plf/GD32VW55x_standard_peripheral/Source\gd32vw55x_cau_aes.c ****        may be used to endorse or promote products derived from this software without
  21:C:/Users/stapi/OneDrive/Desktop/GD32VW553/GD32VW55X_Wifi_BLE_SDK/GD32VW55x_RELEASE_V1.0.2/MSDK/plf/GD32VW55x_standard_peripheral/Source\gd32vw55x_cau_aes.c ****        specific prior written permission.
  22:C:/Users/stapi/OneDrive/Desktop/GD32VW553/GD32VW55X_Wifi_BLE_SDK/GD32VW55x_RELEASE_V1.0.2/MSDK/plf/GD32VW55x_standard_peripheral/Source\gd32vw55x_cau_aes.c **** 
  23:C:/Users/stapi/OneDrive/Desktop/GD32VW553/GD32VW55X_Wifi_BLE_SDK/GD32VW55x_RELEASE_V1.0.2/MSDK/plf/GD32VW55x_standard_peripheral/Source\gd32vw55x_cau_aes.c ****     THIS SOFTWARE IS PROVIDED BY THE COPYRIGHT HOLDERS AND CONTRIBUTORS "AS IS"
  24:C:/Users/stapi/OneDrive/Desktop/GD32VW553/GD32VW55X_Wifi_BLE_SDK/GD32VW55x_RELEASE_V1.0.2/MSDK/plf/GD32VW55x_standard_peripheral/Source\gd32vw55x_cau_aes.c **** AND ANY EXPRESS OR IMPLIED WARRANTIES, INCLUDING, BUT NOT LIMITED TO, THE IMPLIED
  25:C:/Users/stapi/OneDrive/Desktop/GD32VW553/GD32VW55X_Wifi_BLE_SDK/GD32VW55x_RELEASE_V1.0.2/MSDK/plf/GD32VW55x_standard_peripheral/Source\gd32vw55x_cau_aes.c **** WARRANTIES OF MERCHANTABILITY AND FITNESS FOR A PARTICULAR PURPOSE ARE DISCLAIMED.
  26:C:/Users/stapi/OneDrive/Desktop/GD32VW553/GD32VW55X_Wifi_BLE_SDK/GD32VW55x_RELEASE_V1.0.2/MSDK/plf/GD32VW55x_standard_peripheral/Source\gd32vw55x_cau_aes.c **** IN NO EVENT SHALL THE COPYRIGHT HOLDER OR CONTRIBUTORS BE LIABLE FOR ANY DIRECT,
  27:C:/Users/stapi/OneDrive/Desktop/GD32VW553/GD32VW55X_Wifi_BLE_SDK/GD32VW55x_RELEASE_V1.0.2/MSDK/plf/GD32VW55x_standard_peripheral/Source\gd32vw55x_cau_aes.c **** INDIRECT, INCIDENTAL, SPECIAL, EXEMPLARY, OR CONSEQUENTIAL DAMAGES (INCLUDING, BUT
  28:C:/Users/stapi/OneDrive/Desktop/GD32VW553/GD32VW55X_Wifi_BLE_SDK/GD32VW55x_RELEASE_V1.0.2/MSDK/plf/GD32VW55x_standard_peripheral/Source\gd32vw55x_cau_aes.c **** NOT LIMITED TO, PROCUREMENT OF SUBSTITUTE GOODS OR SERVICES; LOSS OF USE, DATA, OR
  29:C:/Users/stapi/OneDrive/Desktop/GD32VW553/GD32VW55X_Wifi_BLE_SDK/GD32VW55x_RELEASE_V1.0.2/MSDK/plf/GD32VW55x_standard_peripheral/Source\gd32vw55x_cau_aes.c **** PROFITS; OR BUSINESS INTERRUPTION) HOWEVER CAUSED AND ON ANY THEORY OF LIABILITY,
  30:C:/Users/stapi/OneDrive/Desktop/GD32VW553/GD32VW55X_Wifi_BLE_SDK/GD32VW55x_RELEASE_V1.0.2/MSDK/plf/GD32VW55x_standard_peripheral/Source\gd32vw55x_cau_aes.c **** WHETHER IN CONTRACT, STRICT LIABILITY, OR TORT (INCLUDING NEGLIGENCE OR OTHERWISE)
  31:C:/Users/stapi/OneDrive/Desktop/GD32VW553/GD32VW55X_Wifi_BLE_SDK/GD32VW55x_RELEASE_V1.0.2/MSDK/plf/GD32VW55x_standard_peripheral/Source\gd32vw55x_cau_aes.c **** ARISING IN ANY WAY OUT OF THE USE OF THIS SOFTWARE, EVEN IF ADVISED OF THE POSSIBILITY
  32:C:/Users/stapi/OneDrive/Desktop/GD32VW553/GD32VW55X_Wifi_BLE_SDK/GD32VW55x_RELEASE_V1.0.2/MSDK/plf/GD32VW55x_standard_peripheral/Source\gd32vw55x_cau_aes.c **** OF SUCH DAMAGE.
  33:C:/Users/stapi/OneDrive/Desktop/GD32VW553/GD32VW55X_Wifi_BLE_SDK/GD32VW55x_RELEASE_V1.0.2/MSDK/plf/GD32VW55x_standard_peripheral/Source\gd32vw55x_cau_aes.c **** */
  34:C:/Users/stapi/OneDrive/Desktop/GD32VW553/GD32VW55X_Wifi_BLE_SDK/GD32VW55x_RELEASE_V1.0.2/MSDK/plf/GD32VW55x_standard_peripheral/Source\gd32vw55x_cau_aes.c **** 
  35:C:/Users/stapi/OneDrive/Desktop/GD32VW553/GD32VW55X_Wifi_BLE_SDK/GD32VW55x_RELEASE_V1.0.2/MSDK/plf/GD32VW55x_standard_peripheral/Source\gd32vw55x_cau_aes.c **** #include "gd32vw55x_cau.h"
  36:C:/Users/stapi/OneDrive/Desktop/GD32VW553/GD32VW55X_Wifi_BLE_SDK/GD32VW55x_RELEASE_V1.0.2/MSDK/plf/GD32VW55x_standard_peripheral/Source\gd32vw55x_cau_aes.c **** #include <string.h>
  37:C:/Users/stapi/OneDrive/Desktop/GD32VW553/GD32VW55X_Wifi_BLE_SDK/GD32VW55x_RELEASE_V1.0.2/MSDK/plf/GD32VW55x_standard_peripheral/Source\gd32vw55x_cau_aes.c **** 
  38:C:/Users/stapi/OneDrive/Desktop/GD32VW553/GD32VW55X_Wifi_BLE_SDK/GD32VW55x_RELEASE_V1.0.2/MSDK/plf/GD32VW55x_standard_peripheral/Source\gd32vw55x_cau_aes.c **** #define AESBSY_TIMEOUT    ((uint32_t)0x00010000U)
  39:C:/Users/stapi/OneDrive/Desktop/GD32VW553/GD32VW55X_Wifi_BLE_SDK/GD32VW55x_RELEASE_V1.0.2/MSDK/plf/GD32VW55x_standard_peripheral/Source\gd32vw55x_cau_aes.c **** #define BLOCK_B0_MASK     ((uint8_t)0x07U)
  40:C:/Users/stapi/OneDrive/Desktop/GD32VW553/GD32VW55X_Wifi_BLE_SDK/GD32VW55x_RELEASE_V1.0.2/MSDK/plf/GD32VW55x_standard_peripheral/Source\gd32vw55x_cau_aes.c **** #define BLOCK_DATA_SIZE   16U
  41:C:/Users/stapi/OneDrive/Desktop/GD32VW553/GD32VW55X_Wifi_BLE_SDK/GD32VW55x_RELEASE_V1.0.2/MSDK/plf/GD32VW55x_standard_peripheral/Source\gd32vw55x_cau_aes.c **** #define MAX_CCM_IV_SIZE   15U
  42:C:/Users/stapi/OneDrive/Desktop/GD32VW553/GD32VW55X_Wifi_BLE_SDK/GD32VW55x_RELEASE_V1.0.2/MSDK/plf/GD32VW55x_standard_peripheral/Source\gd32vw55x_cau_aes.c **** 
  43:C:/Users/stapi/OneDrive/Desktop/GD32VW553/GD32VW55X_Wifi_BLE_SDK/GD32VW55x_RELEASE_V1.0.2/MSDK/plf/GD32VW55x_standard_peripheral/Source\gd32vw55x_cau_aes.c **** /* configure AES key structure parameter */
  44:C:/Users/stapi/OneDrive/Desktop/GD32VW553/GD32VW55X_Wifi_BLE_SDK/GD32VW55x_RELEASE_V1.0.2/MSDK/plf/GD32VW55x_standard_peripheral/Source\gd32vw55x_cau_aes.c **** static void cau_aes_key_config(uint8_t *key, uint32_t keysize, cau_key_parameter_struct *cau_key_in
  45:C:/Users/stapi/OneDrive/Desktop/GD32VW553/GD32VW55X_Wifi_BLE_SDK/GD32VW55x_RELEASE_V1.0.2/MSDK/plf/GD32VW55x_standard_peripheral/Source\gd32vw55x_cau_aes.c **** /* fill data into data input register */
  46:C:/Users/stapi/OneDrive/Desktop/GD32VW553/GD32VW55X_Wifi_BLE_SDK/GD32VW55x_RELEASE_V1.0.2/MSDK/plf/GD32VW55x_standard_peripheral/Source\gd32vw55x_cau_aes.c **** static ErrStatus cau_fill_data(uint8_t *input, uint32_t in_length);
  47:C:/Users/stapi/OneDrive/Desktop/GD32VW553/GD32VW55X_Wifi_BLE_SDK/GD32VW55x_RELEASE_V1.0.2/MSDK/plf/GD32VW55x_standard_peripheral/Source\gd32vw55x_cau_aes.c **** /* AES calculate process */
  48:C:/Users/stapi/OneDrive/Desktop/GD32VW553/GD32VW55X_Wifi_BLE_SDK/GD32VW55x_RELEASE_V1.0.2/MSDK/plf/GD32VW55x_standard_peripheral/Source\gd32vw55x_cau_aes.c **** static ErrStatus cau_aes_calculate(uint8_t *input, uint32_t in_length, uint8_t *output);
  49:C:/Users/stapi/OneDrive/Desktop/GD32VW553/GD32VW55X_Wifi_BLE_SDK/GD32VW55x_RELEASE_V1.0.2/MSDK/plf/GD32VW55x_standard_peripheral/Source\gd32vw55x_cau_aes.c **** 
  50:C:/Users/stapi/OneDrive/Desktop/GD32VW553/GD32VW55X_Wifi_BLE_SDK/GD32VW55x_RELEASE_V1.0.2/MSDK/plf/GD32VW55x_standard_peripheral/Source\gd32vw55x_cau_aes.c **** /*!
  51:C:/Users/stapi/OneDrive/Desktop/GD32VW553/GD32VW55X_Wifi_BLE_SDK/GD32VW55x_RELEASE_V1.0.2/MSDK/plf/GD32VW55x_standard_peripheral/Source\gd32vw55x_cau_aes.c ****     \brief      encrypt and decrypt using AES in ECB mode
  52:C:/Users/stapi/OneDrive/Desktop/GD32VW553/GD32VW55X_Wifi_BLE_SDK/GD32VW55x_RELEASE_V1.0.2/MSDK/plf/GD32VW55x_standard_peripheral/Source\gd32vw55x_cau_aes.c ****     \param[in]  cau_parameter: pointer to the input structure
  53:C:/Users/stapi/OneDrive/Desktop/GD32VW553/GD32VW55X_Wifi_BLE_SDK/GD32VW55x_RELEASE_V1.0.2/MSDK/plf/GD32VW55x_standard_peripheral/Source\gd32vw55x_cau_aes.c ****                   alg_dir: algorithm direction
  54:C:/Users/stapi/OneDrive/Desktop/GD32VW553/GD32VW55X_Wifi_BLE_SDK/GD32VW55x_RELEASE_V1.0.2/MSDK/plf/GD32VW55x_standard_peripheral/Source\gd32vw55x_cau_aes.c ****                     CAU_ENCRYPT, CAU_DECRYPT
  55:C:/Users/stapi/OneDrive/Desktop/GD32VW553/GD32VW55X_Wifi_BLE_SDK/GD32VW55x_RELEASE_V1.0.2/MSDK/plf/GD32VW55x_standard_peripheral/Source\gd32vw55x_cau_aes.c ****                   key: key (in bytes)
  56:C:/Users/stapi/OneDrive/Desktop/GD32VW553/GD32VW55X_Wifi_BLE_SDK/GD32VW55x_RELEASE_V1.0.2/MSDK/plf/GD32VW55x_standard_peripheral/Source\gd32vw55x_cau_aes.c ****                   key_size: key size in bits, must be either 128, 192 or 256
  57:C:/Users/stapi/OneDrive/Desktop/GD32VW553/GD32VW55X_Wifi_BLE_SDK/GD32VW55x_RELEASE_V1.0.2/MSDK/plf/GD32VW55x_standard_peripheral/Source\gd32vw55x_cau_aes.c ****                   input: input data (in bytes)
  58:C:/Users/stapi/OneDrive/Desktop/GD32VW553/GD32VW55X_Wifi_BLE_SDK/GD32VW55x_RELEASE_V1.0.2/MSDK/plf/GD32VW55x_standard_peripheral/Source\gd32vw55x_cau_aes.c ****                   in_length: input data length in bytes, must be a multiple of 16 bytes
  59:C:/Users/stapi/OneDrive/Desktop/GD32VW553/GD32VW55X_Wifi_BLE_SDK/GD32VW55x_RELEASE_V1.0.2/MSDK/plf/GD32VW55x_standard_peripheral/Source\gd32vw55x_cau_aes.c ****     \param[out] output: pointer to the returned buffer
  60:C:/Users/stapi/OneDrive/Desktop/GD32VW553/GD32VW55X_Wifi_BLE_SDK/GD32VW55x_RELEASE_V1.0.2/MSDK/plf/GD32VW55x_standard_peripheral/Source\gd32vw55x_cau_aes.c ****     \retval     ErrStatus: SUCCESS or ERROR
  61:C:/Users/stapi/OneDrive/Desktop/GD32VW553/GD32VW55X_Wifi_BLE_SDK/GD32VW55x_RELEASE_V1.0.2/MSDK/plf/GD32VW55x_standard_peripheral/Source\gd32vw55x_cau_aes.c **** */
  62:C:/Users/stapi/OneDrive/Desktop/GD32VW553/GD32VW55X_Wifi_BLE_SDK/GD32VW55x_RELEASE_V1.0.2/MSDK/plf/GD32VW55x_standard_peripheral/Source\gd32vw55x_cau_aes.c **** ErrStatus cau_aes_ecb(cau_parameter_struct *cau_parameter, uint8_t *output)
  63:C:/Users/stapi/OneDrive/Desktop/GD32VW553/GD32VW55X_Wifi_BLE_SDK/GD32VW55x_RELEASE_V1.0.2/MSDK/plf/GD32VW55x_standard_peripheral/Source\gd32vw55x_cau_aes.c **** {
  64:C:/Users/stapi/OneDrive/Desktop/GD32VW553/GD32VW55X_Wifi_BLE_SDK/GD32VW55x_RELEASE_V1.0.2/MSDK/plf/GD32VW55x_standard_peripheral/Source\gd32vw55x_cau_aes.c ****     ErrStatus ret = ERROR;
  65:C:/Users/stapi/OneDrive/Desktop/GD32VW553/GD32VW55X_Wifi_BLE_SDK/GD32VW55x_RELEASE_V1.0.2/MSDK/plf/GD32VW55x_standard_peripheral/Source\gd32vw55x_cau_aes.c ****     cau_key_parameter_struct key_initpara;
  66:C:/Users/stapi/OneDrive/Desktop/GD32VW553/GD32VW55X_Wifi_BLE_SDK/GD32VW55x_RELEASE_V1.0.2/MSDK/plf/GD32VW55x_standard_peripheral/Source\gd32vw55x_cau_aes.c ****     __IO uint32_t counter = 0U;
  67:C:/Users/stapi/OneDrive/Desktop/GD32VW553/GD32VW55X_Wifi_BLE_SDK/GD32VW55x_RELEASE_V1.0.2/MSDK/plf/GD32VW55x_standard_peripheral/Source\gd32vw55x_cau_aes.c ****     uint32_t busystatus = 0U;
  68:C:/Users/stapi/OneDrive/Desktop/GD32VW553/GD32VW55X_Wifi_BLE_SDK/GD32VW55x_RELEASE_V1.0.2/MSDK/plf/GD32VW55x_standard_peripheral/Source\gd32vw55x_cau_aes.c **** 
  69:C:/Users/stapi/OneDrive/Desktop/GD32VW553/GD32VW55X_Wifi_BLE_SDK/GD32VW55x_RELEASE_V1.0.2/MSDK/plf/GD32VW55x_standard_peripheral/Source\gd32vw55x_cau_aes.c ****     /* key structure initialization */
  70:C:/Users/stapi/OneDrive/Desktop/GD32VW553/GD32VW55X_Wifi_BLE_SDK/GD32VW55x_RELEASE_V1.0.2/MSDK/plf/GD32VW55x_standard_peripheral/Source\gd32vw55x_cau_aes.c ****     cau_key_struct_para_init(&key_initpara);
  71:C:/Users/stapi/OneDrive/Desktop/GD32VW553/GD32VW55X_Wifi_BLE_SDK/GD32VW55x_RELEASE_V1.0.2/MSDK/plf/GD32VW55x_standard_peripheral/Source\gd32vw55x_cau_aes.c ****     /* AES key structure parameter config */
  72:C:/Users/stapi/OneDrive/Desktop/GD32VW553/GD32VW55X_Wifi_BLE_SDK/GD32VW55x_RELEASE_V1.0.2/MSDK/plf/GD32VW55x_standard_peripheral/Source\gd32vw55x_cau_aes.c ****     cau_aes_key_config(cau_parameter->key, cau_parameter->key_size, &key_initpara);
  73:C:/Users/stapi/OneDrive/Desktop/GD32VW553/GD32VW55X_Wifi_BLE_SDK/GD32VW55x_RELEASE_V1.0.2/MSDK/plf/GD32VW55x_standard_peripheral/Source\gd32vw55x_cau_aes.c ****     /* key initialization */
  74:C:/Users/stapi/OneDrive/Desktop/GD32VW553/GD32VW55X_Wifi_BLE_SDK/GD32VW55x_RELEASE_V1.0.2/MSDK/plf/GD32VW55x_standard_peripheral/Source\gd32vw55x_cau_aes.c ****     cau_key_init(&key_initpara);
  75:C:/Users/stapi/OneDrive/Desktop/GD32VW553/GD32VW55X_Wifi_BLE_SDK/GD32VW55x_RELEASE_V1.0.2/MSDK/plf/GD32VW55x_standard_peripheral/Source\gd32vw55x_cau_aes.c **** 
  76:C:/Users/stapi/OneDrive/Desktop/GD32VW553/GD32VW55X_Wifi_BLE_SDK/GD32VW55x_RELEASE_V1.0.2/MSDK/plf/GD32VW55x_standard_peripheral/Source\gd32vw55x_cau_aes.c ****     /* AES decryption */
  77:C:/Users/stapi/OneDrive/Desktop/GD32VW553/GD32VW55X_Wifi_BLE_SDK/GD32VW55x_RELEASE_V1.0.2/MSDK/plf/GD32VW55x_standard_peripheral/Source\gd32vw55x_cau_aes.c ****     if(CAU_DECRYPT == cau_parameter->alg_dir) {
  78:C:/Users/stapi/OneDrive/Desktop/GD32VW553/GD32VW55X_Wifi_BLE_SDK/GD32VW55x_RELEASE_V1.0.2/MSDK/plf/GD32VW55x_standard_peripheral/Source\gd32vw55x_cau_aes.c ****         /* flush the IN and OUT FIFOs */
  79:C:/Users/stapi/OneDrive/Desktop/GD32VW553/GD32VW55X_Wifi_BLE_SDK/GD32VW55x_RELEASE_V1.0.2/MSDK/plf/GD32VW55x_standard_peripheral/Source\gd32vw55x_cau_aes.c ****         cau_fifo_flush();
  80:C:/Users/stapi/OneDrive/Desktop/GD32VW553/GD32VW55X_Wifi_BLE_SDK/GD32VW55x_RELEASE_V1.0.2/MSDK/plf/GD32VW55x_standard_peripheral/Source\gd32vw55x_cau_aes.c ****         /* initialize the CAU peripheral */
  81:C:/Users/stapi/OneDrive/Desktop/GD32VW553/GD32VW55X_Wifi_BLE_SDK/GD32VW55x_RELEASE_V1.0.2/MSDK/plf/GD32VW55x_standard_peripheral/Source\gd32vw55x_cau_aes.c ****         cau_init(CAU_DECRYPT, CAU_MODE_AES_KEY, CAU_SWAPPING_32BIT);
  82:C:/Users/stapi/OneDrive/Desktop/GD32VW553/GD32VW55X_Wifi_BLE_SDK/GD32VW55x_RELEASE_V1.0.2/MSDK/plf/GD32VW55x_standard_peripheral/Source\gd32vw55x_cau_aes.c **** 
  83:C:/Users/stapi/OneDrive/Desktop/GD32VW553/GD32VW55X_Wifi_BLE_SDK/GD32VW55x_RELEASE_V1.0.2/MSDK/plf/GD32VW55x_standard_peripheral/Source\gd32vw55x_cau_aes.c ****         /* enable the CAU peripheral */
  84:C:/Users/stapi/OneDrive/Desktop/GD32VW553/GD32VW55X_Wifi_BLE_SDK/GD32VW55x_RELEASE_V1.0.2/MSDK/plf/GD32VW55x_standard_peripheral/Source\gd32vw55x_cau_aes.c ****         cau_enable();
  85:C:/Users/stapi/OneDrive/Desktop/GD32VW553/GD32VW55X_Wifi_BLE_SDK/GD32VW55x_RELEASE_V1.0.2/MSDK/plf/GD32VW55x_standard_peripheral/Source\gd32vw55x_cau_aes.c **** 
  86:C:/Users/stapi/OneDrive/Desktop/GD32VW553/GD32VW55X_Wifi_BLE_SDK/GD32VW55x_RELEASE_V1.0.2/MSDK/plf/GD32VW55x_standard_peripheral/Source\gd32vw55x_cau_aes.c ****         /* wait until the busy flag is RESET */
  87:C:/Users/stapi/OneDrive/Desktop/GD32VW553/GD32VW55X_Wifi_BLE_SDK/GD32VW55x_RELEASE_V1.0.2/MSDK/plf/GD32VW55x_standard_peripheral/Source\gd32vw55x_cau_aes.c ****         do {
  88:C:/Users/stapi/OneDrive/Desktop/GD32VW553/GD32VW55X_Wifi_BLE_SDK/GD32VW55x_RELEASE_V1.0.2/MSDK/plf/GD32VW55x_standard_peripheral/Source\gd32vw55x_cau_aes.c ****             busystatus = cau_flag_get(CAU_FLAG_BUSY);
  89:C:/Users/stapi/OneDrive/Desktop/GD32VW553/GD32VW55X_Wifi_BLE_SDK/GD32VW55x_RELEASE_V1.0.2/MSDK/plf/GD32VW55x_standard_peripheral/Source\gd32vw55x_cau_aes.c ****             counter++;
  90:C:/Users/stapi/OneDrive/Desktop/GD32VW553/GD32VW55X_Wifi_BLE_SDK/GD32VW55x_RELEASE_V1.0.2/MSDK/plf/GD32VW55x_standard_peripheral/Source\gd32vw55x_cau_aes.c ****         } while((AESBSY_TIMEOUT != counter) && (RESET != busystatus));
  91:C:/Users/stapi/OneDrive/Desktop/GD32VW553/GD32VW55X_Wifi_BLE_SDK/GD32VW55x_RELEASE_V1.0.2/MSDK/plf/GD32VW55x_standard_peripheral/Source\gd32vw55x_cau_aes.c **** 
  92:C:/Users/stapi/OneDrive/Desktop/GD32VW553/GD32VW55X_Wifi_BLE_SDK/GD32VW55x_RELEASE_V1.0.2/MSDK/plf/GD32VW55x_standard_peripheral/Source\gd32vw55x_cau_aes.c ****         if(RESET != busystatus) {
  93:C:/Users/stapi/OneDrive/Desktop/GD32VW553/GD32VW55X_Wifi_BLE_SDK/GD32VW55x_RELEASE_V1.0.2/MSDK/plf/GD32VW55x_standard_peripheral/Source\gd32vw55x_cau_aes.c ****             return ERROR;
  94:C:/Users/stapi/OneDrive/Desktop/GD32VW553/GD32VW55X_Wifi_BLE_SDK/GD32VW55x_RELEASE_V1.0.2/MSDK/plf/GD32VW55x_standard_peripheral/Source\gd32vw55x_cau_aes.c ****         }
  95:C:/Users/stapi/OneDrive/Desktop/GD32VW553/GD32VW55X_Wifi_BLE_SDK/GD32VW55x_RELEASE_V1.0.2/MSDK/plf/GD32VW55x_standard_peripheral/Source\gd32vw55x_cau_aes.c ****     }
  96:C:/Users/stapi/OneDrive/Desktop/GD32VW553/GD32VW55X_Wifi_BLE_SDK/GD32VW55x_RELEASE_V1.0.2/MSDK/plf/GD32VW55x_standard_peripheral/Source\gd32vw55x_cau_aes.c **** 
  97:C:/Users/stapi/OneDrive/Desktop/GD32VW553/GD32VW55X_Wifi_BLE_SDK/GD32VW55x_RELEASE_V1.0.2/MSDK/plf/GD32VW55x_standard_peripheral/Source\gd32vw55x_cau_aes.c ****     /* initialize the CAU peripheral */
  98:C:/Users/stapi/OneDrive/Desktop/GD32VW553/GD32VW55X_Wifi_BLE_SDK/GD32VW55x_RELEASE_V1.0.2/MSDK/plf/GD32VW55x_standard_peripheral/Source\gd32vw55x_cau_aes.c ****     cau_init(cau_parameter->alg_dir, CAU_MODE_AES_ECB, CAU_SWAPPING_8BIT);
  99:C:/Users/stapi/OneDrive/Desktop/GD32VW553/GD32VW55X_Wifi_BLE_SDK/GD32VW55x_RELEASE_V1.0.2/MSDK/plf/GD32VW55x_standard_peripheral/Source\gd32vw55x_cau_aes.c **** 
 100:C:/Users/stapi/OneDrive/Desktop/GD32VW553/GD32VW55X_Wifi_BLE_SDK/GD32VW55x_RELEASE_V1.0.2/MSDK/plf/GD32VW55x_standard_peripheral/Source\gd32vw55x_cau_aes.c ****     /* flush the IN and OUT FIFOs */
 101:C:/Users/stapi/OneDrive/Desktop/GD32VW553/GD32VW55X_Wifi_BLE_SDK/GD32VW55x_RELEASE_V1.0.2/MSDK/plf/GD32VW55x_standard_peripheral/Source\gd32vw55x_cau_aes.c ****     cau_fifo_flush();
 102:C:/Users/stapi/OneDrive/Desktop/GD32VW553/GD32VW55X_Wifi_BLE_SDK/GD32VW55x_RELEASE_V1.0.2/MSDK/plf/GD32VW55x_standard_peripheral/Source\gd32vw55x_cau_aes.c **** 
 103:C:/Users/stapi/OneDrive/Desktop/GD32VW553/GD32VW55X_Wifi_BLE_SDK/GD32VW55x_RELEASE_V1.0.2/MSDK/plf/GD32VW55x_standard_peripheral/Source\gd32vw55x_cau_aes.c ****     /* enable the CAU peripheral */
 104:C:/Users/stapi/OneDrive/Desktop/GD32VW553/GD32VW55X_Wifi_BLE_SDK/GD32VW55x_RELEASE_V1.0.2/MSDK/plf/GD32VW55x_standard_peripheral/Source\gd32vw55x_cau_aes.c ****     cau_enable();
 105:C:/Users/stapi/OneDrive/Desktop/GD32VW553/GD32VW55X_Wifi_BLE_SDK/GD32VW55x_RELEASE_V1.0.2/MSDK/plf/GD32VW55x_standard_peripheral/Source\gd32vw55x_cau_aes.c ****     /* AES calculate process */
 106:C:/Users/stapi/OneDrive/Desktop/GD32VW553/GD32VW55X_Wifi_BLE_SDK/GD32VW55x_RELEASE_V1.0.2/MSDK/plf/GD32VW55x_standard_peripheral/Source\gd32vw55x_cau_aes.c ****     ret = cau_aes_calculate(cau_parameter->input, cau_parameter->in_length, output);
 107:C:/Users/stapi/OneDrive/Desktop/GD32VW553/GD32VW55X_Wifi_BLE_SDK/GD32VW55x_RELEASE_V1.0.2/MSDK/plf/GD32VW55x_standard_peripheral/Source\gd32vw55x_cau_aes.c ****     /* disable the CAU peripheral */
 108:C:/Users/stapi/OneDrive/Desktop/GD32VW553/GD32VW55X_Wifi_BLE_SDK/GD32VW55x_RELEASE_V1.0.2/MSDK/plf/GD32VW55x_standard_peripheral/Source\gd32vw55x_cau_aes.c ****     cau_disable();
 109:C:/Users/stapi/OneDrive/Desktop/GD32VW553/GD32VW55X_Wifi_BLE_SDK/GD32VW55x_RELEASE_V1.0.2/MSDK/plf/GD32VW55x_standard_peripheral/Source\gd32vw55x_cau_aes.c **** 
 110:C:/Users/stapi/OneDrive/Desktop/GD32VW553/GD32VW55X_Wifi_BLE_SDK/GD32VW55x_RELEASE_V1.0.2/MSDK/plf/GD32VW55x_standard_peripheral/Source\gd32vw55x_cau_aes.c ****     return ret;
 111:C:/Users/stapi/OneDrive/Desktop/GD32VW553/GD32VW55X_Wifi_BLE_SDK/GD32VW55x_RELEASE_V1.0.2/MSDK/plf/GD32VW55x_standard_peripheral/Source\gd32vw55x_cau_aes.c **** }
 112:C:/Users/stapi/OneDrive/Desktop/GD32VW553/GD32VW55X_Wifi_BLE_SDK/GD32VW55x_RELEASE_V1.0.2/MSDK/plf/GD32VW55x_standard_peripheral/Source\gd32vw55x_cau_aes.c **** 
 113:C:/Users/stapi/OneDrive/Desktop/GD32VW553/GD32VW55X_Wifi_BLE_SDK/GD32VW55x_RELEASE_V1.0.2/MSDK/plf/GD32VW55x_standard_peripheral/Source\gd32vw55x_cau_aes.c **** /*!
 114:C:/Users/stapi/OneDrive/Desktop/GD32VW553/GD32VW55X_Wifi_BLE_SDK/GD32VW55x_RELEASE_V1.0.2/MSDK/plf/GD32VW55x_standard_peripheral/Source\gd32vw55x_cau_aes.c ****     \brief      encrypt and decrypt using AES in CBC mode
 115:C:/Users/stapi/OneDrive/Desktop/GD32VW553/GD32VW55X_Wifi_BLE_SDK/GD32VW55x_RELEASE_V1.0.2/MSDK/plf/GD32VW55x_standard_peripheral/Source\gd32vw55x_cau_aes.c ****     \param[in]  cau_parameter: pointer to the input structure
 116:C:/Users/stapi/OneDrive/Desktop/GD32VW553/GD32VW55X_Wifi_BLE_SDK/GD32VW55x_RELEASE_V1.0.2/MSDK/plf/GD32VW55x_standard_peripheral/Source\gd32vw55x_cau_aes.c ****                   alg_dir: algorithm direction
 117:C:/Users/stapi/OneDrive/Desktop/GD32VW553/GD32VW55X_Wifi_BLE_SDK/GD32VW55x_RELEASE_V1.0.2/MSDK/plf/GD32VW55x_standard_peripheral/Source\gd32vw55x_cau_aes.c ****                     CAU_ENCRYPT, CAU_DECRYPT
 118:C:/Users/stapi/OneDrive/Desktop/GD32VW553/GD32VW55X_Wifi_BLE_SDK/GD32VW55x_RELEASE_V1.0.2/MSDK/plf/GD32VW55x_standard_peripheral/Source\gd32vw55x_cau_aes.c ****                   key: key (in bytes)
 119:C:/Users/stapi/OneDrive/Desktop/GD32VW553/GD32VW55X_Wifi_BLE_SDK/GD32VW55x_RELEASE_V1.0.2/MSDK/plf/GD32VW55x_standard_peripheral/Source\gd32vw55x_cau_aes.c ****                   key_size: key size in bits, must be either 128, 192 or 256
 120:C:/Users/stapi/OneDrive/Desktop/GD32VW553/GD32VW55X_Wifi_BLE_SDK/GD32VW55x_RELEASE_V1.0.2/MSDK/plf/GD32VW55x_standard_peripheral/Source\gd32vw55x_cau_aes.c ****                   iv: initialization vector, 16 bytes (in bytes)
 121:C:/Users/stapi/OneDrive/Desktop/GD32VW553/GD32VW55X_Wifi_BLE_SDK/GD32VW55x_RELEASE_V1.0.2/MSDK/plf/GD32VW55x_standard_peripheral/Source\gd32vw55x_cau_aes.c ****                   input: input data (in bytes)
 122:C:/Users/stapi/OneDrive/Desktop/GD32VW553/GD32VW55X_Wifi_BLE_SDK/GD32VW55x_RELEASE_V1.0.2/MSDK/plf/GD32VW55x_standard_peripheral/Source\gd32vw55x_cau_aes.c ****                   in_length: input data length in bytes, must be a multiple of 16 bytes
 123:C:/Users/stapi/OneDrive/Desktop/GD32VW553/GD32VW55X_Wifi_BLE_SDK/GD32VW55x_RELEASE_V1.0.2/MSDK/plf/GD32VW55x_standard_peripheral/Source\gd32vw55x_cau_aes.c ****     \param[out] output: pointer to the returned buffer
 124:C:/Users/stapi/OneDrive/Desktop/GD32VW553/GD32VW55X_Wifi_BLE_SDK/GD32VW55x_RELEASE_V1.0.2/MSDK/plf/GD32VW55x_standard_peripheral/Source\gd32vw55x_cau_aes.c ****     \retval     ErrStatus: SUCCESS or ERROR
 125:C:/Users/stapi/OneDrive/Desktop/GD32VW553/GD32VW55X_Wifi_BLE_SDK/GD32VW55x_RELEASE_V1.0.2/MSDK/plf/GD32VW55x_standard_peripheral/Source\gd32vw55x_cau_aes.c **** */
 126:C:/Users/stapi/OneDrive/Desktop/GD32VW553/GD32VW55X_Wifi_BLE_SDK/GD32VW55x_RELEASE_V1.0.2/MSDK/plf/GD32VW55x_standard_peripheral/Source\gd32vw55x_cau_aes.c **** ErrStatus cau_aes_cbc(cau_parameter_struct *cau_parameter, uint8_t *output)
 127:C:/Users/stapi/OneDrive/Desktop/GD32VW553/GD32VW55X_Wifi_BLE_SDK/GD32VW55x_RELEASE_V1.0.2/MSDK/plf/GD32VW55x_standard_peripheral/Source\gd32vw55x_cau_aes.c **** {
 128:C:/Users/stapi/OneDrive/Desktop/GD32VW553/GD32VW55X_Wifi_BLE_SDK/GD32VW55x_RELEASE_V1.0.2/MSDK/plf/GD32VW55x_standard_peripheral/Source\gd32vw55x_cau_aes.c ****     ErrStatus ret = ERROR;
 129:C:/Users/stapi/OneDrive/Desktop/GD32VW553/GD32VW55X_Wifi_BLE_SDK/GD32VW55x_RELEASE_V1.0.2/MSDK/plf/GD32VW55x_standard_peripheral/Source\gd32vw55x_cau_aes.c ****     cau_key_parameter_struct key_initpara;
 130:C:/Users/stapi/OneDrive/Desktop/GD32VW553/GD32VW55X_Wifi_BLE_SDK/GD32VW55x_RELEASE_V1.0.2/MSDK/plf/GD32VW55x_standard_peripheral/Source\gd32vw55x_cau_aes.c ****     cau_iv_parameter_struct iv_initpara;
 131:C:/Users/stapi/OneDrive/Desktop/GD32VW553/GD32VW55X_Wifi_BLE_SDK/GD32VW55x_RELEASE_V1.0.2/MSDK/plf/GD32VW55x_standard_peripheral/Source\gd32vw55x_cau_aes.c ****     __IO uint32_t counter = 0U;
 132:C:/Users/stapi/OneDrive/Desktop/GD32VW553/GD32VW55X_Wifi_BLE_SDK/GD32VW55x_RELEASE_V1.0.2/MSDK/plf/GD32VW55x_standard_peripheral/Source\gd32vw55x_cau_aes.c ****     uint32_t busystatus = 0U;
 133:C:/Users/stapi/OneDrive/Desktop/GD32VW553/GD32VW55X_Wifi_BLE_SDK/GD32VW55x_RELEASE_V1.0.2/MSDK/plf/GD32VW55x_standard_peripheral/Source\gd32vw55x_cau_aes.c **** 
 134:C:/Users/stapi/OneDrive/Desktop/GD32VW553/GD32VW55X_Wifi_BLE_SDK/GD32VW55x_RELEASE_V1.0.2/MSDK/plf/GD32VW55x_standard_peripheral/Source\gd32vw55x_cau_aes.c ****     uint32_t ivaddr = (uint32_t)cau_parameter->iv;
 135:C:/Users/stapi/OneDrive/Desktop/GD32VW553/GD32VW55X_Wifi_BLE_SDK/GD32VW55x_RELEASE_V1.0.2/MSDK/plf/GD32VW55x_standard_peripheral/Source\gd32vw55x_cau_aes.c **** 
 136:C:/Users/stapi/OneDrive/Desktop/GD32VW553/GD32VW55X_Wifi_BLE_SDK/GD32VW55x_RELEASE_V1.0.2/MSDK/plf/GD32VW55x_standard_peripheral/Source\gd32vw55x_cau_aes.c ****     /* key structure initialization */
 137:C:/Users/stapi/OneDrive/Desktop/GD32VW553/GD32VW55X_Wifi_BLE_SDK/GD32VW55x_RELEASE_V1.0.2/MSDK/plf/GD32VW55x_standard_peripheral/Source\gd32vw55x_cau_aes.c ****     cau_key_struct_para_init(&key_initpara);
 138:C:/Users/stapi/OneDrive/Desktop/GD32VW553/GD32VW55X_Wifi_BLE_SDK/GD32VW55x_RELEASE_V1.0.2/MSDK/plf/GD32VW55x_standard_peripheral/Source\gd32vw55x_cau_aes.c ****     /* AES key structure parameter config */
 139:C:/Users/stapi/OneDrive/Desktop/GD32VW553/GD32VW55X_Wifi_BLE_SDK/GD32VW55x_RELEASE_V1.0.2/MSDK/plf/GD32VW55x_standard_peripheral/Source\gd32vw55x_cau_aes.c ****     cau_aes_key_config(cau_parameter->key, cau_parameter->key_size, &key_initpara);
 140:C:/Users/stapi/OneDrive/Desktop/GD32VW553/GD32VW55X_Wifi_BLE_SDK/GD32VW55x_RELEASE_V1.0.2/MSDK/plf/GD32VW55x_standard_peripheral/Source\gd32vw55x_cau_aes.c ****     /* key initialization */
 141:C:/Users/stapi/OneDrive/Desktop/GD32VW553/GD32VW55X_Wifi_BLE_SDK/GD32VW55x_RELEASE_V1.0.2/MSDK/plf/GD32VW55x_standard_peripheral/Source\gd32vw55x_cau_aes.c ****     cau_key_init(&key_initpara);
 142:C:/Users/stapi/OneDrive/Desktop/GD32VW553/GD32VW55X_Wifi_BLE_SDK/GD32VW55x_RELEASE_V1.0.2/MSDK/plf/GD32VW55x_standard_peripheral/Source\gd32vw55x_cau_aes.c **** 
 143:C:/Users/stapi/OneDrive/Desktop/GD32VW553/GD32VW55X_Wifi_BLE_SDK/GD32VW55x_RELEASE_V1.0.2/MSDK/plf/GD32VW55x_standard_peripheral/Source\gd32vw55x_cau_aes.c ****     /* AES decryption */
 144:C:/Users/stapi/OneDrive/Desktop/GD32VW553/GD32VW55X_Wifi_BLE_SDK/GD32VW55x_RELEASE_V1.0.2/MSDK/plf/GD32VW55x_standard_peripheral/Source\gd32vw55x_cau_aes.c ****     if(CAU_DECRYPT == cau_parameter->alg_dir) {
 145:C:/Users/stapi/OneDrive/Desktop/GD32VW553/GD32VW55X_Wifi_BLE_SDK/GD32VW55x_RELEASE_V1.0.2/MSDK/plf/GD32VW55x_standard_peripheral/Source\gd32vw55x_cau_aes.c ****         /* flush the IN and OUT FIFOs */
 146:C:/Users/stapi/OneDrive/Desktop/GD32VW553/GD32VW55X_Wifi_BLE_SDK/GD32VW55x_RELEASE_V1.0.2/MSDK/plf/GD32VW55x_standard_peripheral/Source\gd32vw55x_cau_aes.c ****         cau_fifo_flush();
 147:C:/Users/stapi/OneDrive/Desktop/GD32VW553/GD32VW55X_Wifi_BLE_SDK/GD32VW55x_RELEASE_V1.0.2/MSDK/plf/GD32VW55x_standard_peripheral/Source\gd32vw55x_cau_aes.c ****         /* initialize the CAU peripheral */
 148:C:/Users/stapi/OneDrive/Desktop/GD32VW553/GD32VW55X_Wifi_BLE_SDK/GD32VW55x_RELEASE_V1.0.2/MSDK/plf/GD32VW55x_standard_peripheral/Source\gd32vw55x_cau_aes.c ****         cau_init(CAU_DECRYPT, CAU_MODE_AES_KEY, CAU_SWAPPING_32BIT);
 149:C:/Users/stapi/OneDrive/Desktop/GD32VW553/GD32VW55X_Wifi_BLE_SDK/GD32VW55x_RELEASE_V1.0.2/MSDK/plf/GD32VW55x_standard_peripheral/Source\gd32vw55x_cau_aes.c **** 
 150:C:/Users/stapi/OneDrive/Desktop/GD32VW553/GD32VW55X_Wifi_BLE_SDK/GD32VW55x_RELEASE_V1.0.2/MSDK/plf/GD32VW55x_standard_peripheral/Source\gd32vw55x_cau_aes.c ****         /* enable the CAU peripheral */
 151:C:/Users/stapi/OneDrive/Desktop/GD32VW553/GD32VW55X_Wifi_BLE_SDK/GD32VW55x_RELEASE_V1.0.2/MSDK/plf/GD32VW55x_standard_peripheral/Source\gd32vw55x_cau_aes.c ****         cau_enable();
 152:C:/Users/stapi/OneDrive/Desktop/GD32VW553/GD32VW55X_Wifi_BLE_SDK/GD32VW55x_RELEASE_V1.0.2/MSDK/plf/GD32VW55x_standard_peripheral/Source\gd32vw55x_cau_aes.c **** 
 153:C:/Users/stapi/OneDrive/Desktop/GD32VW553/GD32VW55X_Wifi_BLE_SDK/GD32VW55x_RELEASE_V1.0.2/MSDK/plf/GD32VW55x_standard_peripheral/Source\gd32vw55x_cau_aes.c ****         /* wait until the busy flag is RESET */
 154:C:/Users/stapi/OneDrive/Desktop/GD32VW553/GD32VW55X_Wifi_BLE_SDK/GD32VW55x_RELEASE_V1.0.2/MSDK/plf/GD32VW55x_standard_peripheral/Source\gd32vw55x_cau_aes.c ****         do {
 155:C:/Users/stapi/OneDrive/Desktop/GD32VW553/GD32VW55X_Wifi_BLE_SDK/GD32VW55x_RELEASE_V1.0.2/MSDK/plf/GD32VW55x_standard_peripheral/Source\gd32vw55x_cau_aes.c ****             busystatus = cau_flag_get(CAU_FLAG_BUSY);
 156:C:/Users/stapi/OneDrive/Desktop/GD32VW553/GD32VW55X_Wifi_BLE_SDK/GD32VW55x_RELEASE_V1.0.2/MSDK/plf/GD32VW55x_standard_peripheral/Source\gd32vw55x_cau_aes.c ****             counter++;
 157:C:/Users/stapi/OneDrive/Desktop/GD32VW553/GD32VW55X_Wifi_BLE_SDK/GD32VW55x_RELEASE_V1.0.2/MSDK/plf/GD32VW55x_standard_peripheral/Source\gd32vw55x_cau_aes.c ****         } while((AESBSY_TIMEOUT != counter) && (RESET != busystatus));
 158:C:/Users/stapi/OneDrive/Desktop/GD32VW553/GD32VW55X_Wifi_BLE_SDK/GD32VW55x_RELEASE_V1.0.2/MSDK/plf/GD32VW55x_standard_peripheral/Source\gd32vw55x_cau_aes.c **** 
 159:C:/Users/stapi/OneDrive/Desktop/GD32VW553/GD32VW55X_Wifi_BLE_SDK/GD32VW55x_RELEASE_V1.0.2/MSDK/plf/GD32VW55x_standard_peripheral/Source\gd32vw55x_cau_aes.c ****         if(RESET != busystatus) {
 160:C:/Users/stapi/OneDrive/Desktop/GD32VW553/GD32VW55X_Wifi_BLE_SDK/GD32VW55x_RELEASE_V1.0.2/MSDK/plf/GD32VW55x_standard_peripheral/Source\gd32vw55x_cau_aes.c ****             return ERROR;
 161:C:/Users/stapi/OneDrive/Desktop/GD32VW553/GD32VW55X_Wifi_BLE_SDK/GD32VW55x_RELEASE_V1.0.2/MSDK/plf/GD32VW55x_standard_peripheral/Source\gd32vw55x_cau_aes.c ****         }
 162:C:/Users/stapi/OneDrive/Desktop/GD32VW553/GD32VW55X_Wifi_BLE_SDK/GD32VW55x_RELEASE_V1.0.2/MSDK/plf/GD32VW55x_standard_peripheral/Source\gd32vw55x_cau_aes.c ****     }
 163:C:/Users/stapi/OneDrive/Desktop/GD32VW553/GD32VW55X_Wifi_BLE_SDK/GD32VW55x_RELEASE_V1.0.2/MSDK/plf/GD32VW55x_standard_peripheral/Source\gd32vw55x_cau_aes.c **** 
 164:C:/Users/stapi/OneDrive/Desktop/GD32VW553/GD32VW55X_Wifi_BLE_SDK/GD32VW55x_RELEASE_V1.0.2/MSDK/plf/GD32VW55x_standard_peripheral/Source\gd32vw55x_cau_aes.c ****     /* initialize the CAU peripheral */
 165:C:/Users/stapi/OneDrive/Desktop/GD32VW553/GD32VW55X_Wifi_BLE_SDK/GD32VW55x_RELEASE_V1.0.2/MSDK/plf/GD32VW55x_standard_peripheral/Source\gd32vw55x_cau_aes.c ****     cau_init(cau_parameter->alg_dir, CAU_MODE_AES_CBC, CAU_SWAPPING_8BIT);
 166:C:/Users/stapi/OneDrive/Desktop/GD32VW553/GD32VW55X_Wifi_BLE_SDK/GD32VW55x_RELEASE_V1.0.2/MSDK/plf/GD32VW55x_standard_peripheral/Source\gd32vw55x_cau_aes.c **** 
 167:C:/Users/stapi/OneDrive/Desktop/GD32VW553/GD32VW55X_Wifi_BLE_SDK/GD32VW55x_RELEASE_V1.0.2/MSDK/plf/GD32VW55x_standard_peripheral/Source\gd32vw55x_cau_aes.c ****     /* vectors initialization */
 168:C:/Users/stapi/OneDrive/Desktop/GD32VW553/GD32VW55X_Wifi_BLE_SDK/GD32VW55x_RELEASE_V1.0.2/MSDK/plf/GD32VW55x_standard_peripheral/Source\gd32vw55x_cau_aes.c ****     iv_initpara.iv_0_high = __REV(*(uint32_t *)(ivaddr));
 169:C:/Users/stapi/OneDrive/Desktop/GD32VW553/GD32VW55X_Wifi_BLE_SDK/GD32VW55x_RELEASE_V1.0.2/MSDK/plf/GD32VW55x_standard_peripheral/Source\gd32vw55x_cau_aes.c ****     ivaddr += 4U;
 170:C:/Users/stapi/OneDrive/Desktop/GD32VW553/GD32VW55X_Wifi_BLE_SDK/GD32VW55x_RELEASE_V1.0.2/MSDK/plf/GD32VW55x_standard_peripheral/Source\gd32vw55x_cau_aes.c ****     iv_initpara.iv_0_low = __REV(*(uint32_t *)(ivaddr));
 171:C:/Users/stapi/OneDrive/Desktop/GD32VW553/GD32VW55X_Wifi_BLE_SDK/GD32VW55x_RELEASE_V1.0.2/MSDK/plf/GD32VW55x_standard_peripheral/Source\gd32vw55x_cau_aes.c ****     ivaddr += 4U;
 172:C:/Users/stapi/OneDrive/Desktop/GD32VW553/GD32VW55X_Wifi_BLE_SDK/GD32VW55x_RELEASE_V1.0.2/MSDK/plf/GD32VW55x_standard_peripheral/Source\gd32vw55x_cau_aes.c ****     iv_initpara.iv_1_high = __REV(*(uint32_t *)(ivaddr));
 173:C:/Users/stapi/OneDrive/Desktop/GD32VW553/GD32VW55X_Wifi_BLE_SDK/GD32VW55x_RELEASE_V1.0.2/MSDK/plf/GD32VW55x_standard_peripheral/Source\gd32vw55x_cau_aes.c ****     ivaddr += 4U;
 174:C:/Users/stapi/OneDrive/Desktop/GD32VW553/GD32VW55X_Wifi_BLE_SDK/GD32VW55x_RELEASE_V1.0.2/MSDK/plf/GD32VW55x_standard_peripheral/Source\gd32vw55x_cau_aes.c ****     iv_initpara.iv_1_low = __REV(*(uint32_t *)(ivaddr));
 175:C:/Users/stapi/OneDrive/Desktop/GD32VW553/GD32VW55X_Wifi_BLE_SDK/GD32VW55x_RELEASE_V1.0.2/MSDK/plf/GD32VW55x_standard_peripheral/Source\gd32vw55x_cau_aes.c ****     cau_iv_init(&iv_initpara);
 176:C:/Users/stapi/OneDrive/Desktop/GD32VW553/GD32VW55X_Wifi_BLE_SDK/GD32VW55x_RELEASE_V1.0.2/MSDK/plf/GD32VW55x_standard_peripheral/Source\gd32vw55x_cau_aes.c **** 
 177:C:/Users/stapi/OneDrive/Desktop/GD32VW553/GD32VW55X_Wifi_BLE_SDK/GD32VW55x_RELEASE_V1.0.2/MSDK/plf/GD32VW55x_standard_peripheral/Source\gd32vw55x_cau_aes.c ****     /* flush the IN and OUT FIFOs */
 178:C:/Users/stapi/OneDrive/Desktop/GD32VW553/GD32VW55X_Wifi_BLE_SDK/GD32VW55x_RELEASE_V1.0.2/MSDK/plf/GD32VW55x_standard_peripheral/Source\gd32vw55x_cau_aes.c ****     cau_fifo_flush();
 179:C:/Users/stapi/OneDrive/Desktop/GD32VW553/GD32VW55X_Wifi_BLE_SDK/GD32VW55x_RELEASE_V1.0.2/MSDK/plf/GD32VW55x_standard_peripheral/Source\gd32vw55x_cau_aes.c **** 
 180:C:/Users/stapi/OneDrive/Desktop/GD32VW553/GD32VW55X_Wifi_BLE_SDK/GD32VW55x_RELEASE_V1.0.2/MSDK/plf/GD32VW55x_standard_peripheral/Source\gd32vw55x_cau_aes.c ****     /* enable the CAU peripheral */
 181:C:/Users/stapi/OneDrive/Desktop/GD32VW553/GD32VW55X_Wifi_BLE_SDK/GD32VW55x_RELEASE_V1.0.2/MSDK/plf/GD32VW55x_standard_peripheral/Source\gd32vw55x_cau_aes.c ****     cau_enable();
 182:C:/Users/stapi/OneDrive/Desktop/GD32VW553/GD32VW55X_Wifi_BLE_SDK/GD32VW55x_RELEASE_V1.0.2/MSDK/plf/GD32VW55x_standard_peripheral/Source\gd32vw55x_cau_aes.c ****     /* AES calculate process */
 183:C:/Users/stapi/OneDrive/Desktop/GD32VW553/GD32VW55X_Wifi_BLE_SDK/GD32VW55x_RELEASE_V1.0.2/MSDK/plf/GD32VW55x_standard_peripheral/Source\gd32vw55x_cau_aes.c ****     ret = cau_aes_calculate(cau_parameter->input, cau_parameter->in_length, output);
 184:C:/Users/stapi/OneDrive/Desktop/GD32VW553/GD32VW55X_Wifi_BLE_SDK/GD32VW55x_RELEASE_V1.0.2/MSDK/plf/GD32VW55x_standard_peripheral/Source\gd32vw55x_cau_aes.c ****     /* disable the CAU peripheral */
 185:C:/Users/stapi/OneDrive/Desktop/GD32VW553/GD32VW55X_Wifi_BLE_SDK/GD32VW55x_RELEASE_V1.0.2/MSDK/plf/GD32VW55x_standard_peripheral/Source\gd32vw55x_cau_aes.c ****     cau_disable();
 186:C:/Users/stapi/OneDrive/Desktop/GD32VW553/GD32VW55X_Wifi_BLE_SDK/GD32VW55x_RELEASE_V1.0.2/MSDK/plf/GD32VW55x_standard_peripheral/Source\gd32vw55x_cau_aes.c **** 
 187:C:/Users/stapi/OneDrive/Desktop/GD32VW553/GD32VW55X_Wifi_BLE_SDK/GD32VW55x_RELEASE_V1.0.2/MSDK/plf/GD32VW55x_standard_peripheral/Source\gd32vw55x_cau_aes.c ****     return ret;
 188:C:/Users/stapi/OneDrive/Desktop/GD32VW553/GD32VW55X_Wifi_BLE_SDK/GD32VW55x_RELEASE_V1.0.2/MSDK/plf/GD32VW55x_standard_peripheral/Source\gd32vw55x_cau_aes.c **** }
 189:C:/Users/stapi/OneDrive/Desktop/GD32VW553/GD32VW55X_Wifi_BLE_SDK/GD32VW55x_RELEASE_V1.0.2/MSDK/plf/GD32VW55x_standard_peripheral/Source\gd32vw55x_cau_aes.c **** 
 190:C:/Users/stapi/OneDrive/Desktop/GD32VW553/GD32VW55X_Wifi_BLE_SDK/GD32VW55x_RELEASE_V1.0.2/MSDK/plf/GD32VW55x_standard_peripheral/Source\gd32vw55x_cau_aes.c **** /*!
 191:C:/Users/stapi/OneDrive/Desktop/GD32VW553/GD32VW55X_Wifi_BLE_SDK/GD32VW55x_RELEASE_V1.0.2/MSDK/plf/GD32VW55x_standard_peripheral/Source\gd32vw55x_cau_aes.c ****     \brief      encrypt and decrypt using AES in CTR mode
 192:C:/Users/stapi/OneDrive/Desktop/GD32VW553/GD32VW55X_Wifi_BLE_SDK/GD32VW55x_RELEASE_V1.0.2/MSDK/plf/GD32VW55x_standard_peripheral/Source\gd32vw55x_cau_aes.c ****     \param[in]  cau_parameter: pointer to the input structure
 193:C:/Users/stapi/OneDrive/Desktop/GD32VW553/GD32VW55X_Wifi_BLE_SDK/GD32VW55x_RELEASE_V1.0.2/MSDK/plf/GD32VW55x_standard_peripheral/Source\gd32vw55x_cau_aes.c ****                   alg_dir: algorithm direction
 194:C:/Users/stapi/OneDrive/Desktop/GD32VW553/GD32VW55X_Wifi_BLE_SDK/GD32VW55x_RELEASE_V1.0.2/MSDK/plf/GD32VW55x_standard_peripheral/Source\gd32vw55x_cau_aes.c ****                     CAU_ENCRYPT, CAU_DECRYPT
 195:C:/Users/stapi/OneDrive/Desktop/GD32VW553/GD32VW55X_Wifi_BLE_SDK/GD32VW55x_RELEASE_V1.0.2/MSDK/plf/GD32VW55x_standard_peripheral/Source\gd32vw55x_cau_aes.c ****                   key: key (in bytes)
 196:C:/Users/stapi/OneDrive/Desktop/GD32VW553/GD32VW55X_Wifi_BLE_SDK/GD32VW55x_RELEASE_V1.0.2/MSDK/plf/GD32VW55x_standard_peripheral/Source\gd32vw55x_cau_aes.c ****                   key_size: key size in bits, must be either 128, 192 or 256
 197:C:/Users/stapi/OneDrive/Desktop/GD32VW553/GD32VW55X_Wifi_BLE_SDK/GD32VW55x_RELEASE_V1.0.2/MSDK/plf/GD32VW55x_standard_peripheral/Source\gd32vw55x_cau_aes.c ****                   iv: initialization vector, 16 bytes (in bytes)
 198:C:/Users/stapi/OneDrive/Desktop/GD32VW553/GD32VW55X_Wifi_BLE_SDK/GD32VW55x_RELEASE_V1.0.2/MSDK/plf/GD32VW55x_standard_peripheral/Source\gd32vw55x_cau_aes.c ****                   input: input data (in bytes)
 199:C:/Users/stapi/OneDrive/Desktop/GD32VW553/GD32VW55X_Wifi_BLE_SDK/GD32VW55x_RELEASE_V1.0.2/MSDK/plf/GD32VW55x_standard_peripheral/Source\gd32vw55x_cau_aes.c ****                   in_length: input data length in bytes, must be a multiple of 16 bytes
 200:C:/Users/stapi/OneDrive/Desktop/GD32VW553/GD32VW55X_Wifi_BLE_SDK/GD32VW55x_RELEASE_V1.0.2/MSDK/plf/GD32VW55x_standard_peripheral/Source\gd32vw55x_cau_aes.c ****     \param[out] output: pointer to the returned buffer
 201:C:/Users/stapi/OneDrive/Desktop/GD32VW553/GD32VW55X_Wifi_BLE_SDK/GD32VW55x_RELEASE_V1.0.2/MSDK/plf/GD32VW55x_standard_peripheral/Source\gd32vw55x_cau_aes.c ****     \retval     ErrStatus: SUCCESS or ERROR
 202:C:/Users/stapi/OneDrive/Desktop/GD32VW553/GD32VW55X_Wifi_BLE_SDK/GD32VW55x_RELEASE_V1.0.2/MSDK/plf/GD32VW55x_standard_peripheral/Source\gd32vw55x_cau_aes.c **** */
 203:C:/Users/stapi/OneDrive/Desktop/GD32VW553/GD32VW55X_Wifi_BLE_SDK/GD32VW55x_RELEASE_V1.0.2/MSDK/plf/GD32VW55x_standard_peripheral/Source\gd32vw55x_cau_aes.c **** ErrStatus cau_aes_ctr(cau_parameter_struct *cau_parameter, uint8_t *output)
 204:C:/Users/stapi/OneDrive/Desktop/GD32VW553/GD32VW55X_Wifi_BLE_SDK/GD32VW55x_RELEASE_V1.0.2/MSDK/plf/GD32VW55x_standard_peripheral/Source\gd32vw55x_cau_aes.c **** {
 205:C:/Users/stapi/OneDrive/Desktop/GD32VW553/GD32VW55X_Wifi_BLE_SDK/GD32VW55x_RELEASE_V1.0.2/MSDK/plf/GD32VW55x_standard_peripheral/Source\gd32vw55x_cau_aes.c ****     ErrStatus ret = ERROR;
 206:C:/Users/stapi/OneDrive/Desktop/GD32VW553/GD32VW55X_Wifi_BLE_SDK/GD32VW55x_RELEASE_V1.0.2/MSDK/plf/GD32VW55x_standard_peripheral/Source\gd32vw55x_cau_aes.c ****     cau_key_parameter_struct key_initpara;
 207:C:/Users/stapi/OneDrive/Desktop/GD32VW553/GD32VW55X_Wifi_BLE_SDK/GD32VW55x_RELEASE_V1.0.2/MSDK/plf/GD32VW55x_standard_peripheral/Source\gd32vw55x_cau_aes.c ****     cau_iv_parameter_struct iv_initpara;
 208:C:/Users/stapi/OneDrive/Desktop/GD32VW553/GD32VW55X_Wifi_BLE_SDK/GD32VW55x_RELEASE_V1.0.2/MSDK/plf/GD32VW55x_standard_peripheral/Source\gd32vw55x_cau_aes.c ****     uint32_t ivaddr = (uint32_t)cau_parameter->iv;
 209:C:/Users/stapi/OneDrive/Desktop/GD32VW553/GD32VW55X_Wifi_BLE_SDK/GD32VW55x_RELEASE_V1.0.2/MSDK/plf/GD32VW55x_standard_peripheral/Source\gd32vw55x_cau_aes.c **** 
 210:C:/Users/stapi/OneDrive/Desktop/GD32VW553/GD32VW55X_Wifi_BLE_SDK/GD32VW55x_RELEASE_V1.0.2/MSDK/plf/GD32VW55x_standard_peripheral/Source\gd32vw55x_cau_aes.c ****     /* key structure initialization */
 211:C:/Users/stapi/OneDrive/Desktop/GD32VW553/GD32VW55X_Wifi_BLE_SDK/GD32VW55x_RELEASE_V1.0.2/MSDK/plf/GD32VW55x_standard_peripheral/Source\gd32vw55x_cau_aes.c ****     cau_key_struct_para_init(&key_initpara);
 212:C:/Users/stapi/OneDrive/Desktop/GD32VW553/GD32VW55X_Wifi_BLE_SDK/GD32VW55x_RELEASE_V1.0.2/MSDK/plf/GD32VW55x_standard_peripheral/Source\gd32vw55x_cau_aes.c ****     /* initialize the CAU peripheral */
 213:C:/Users/stapi/OneDrive/Desktop/GD32VW553/GD32VW55X_Wifi_BLE_SDK/GD32VW55x_RELEASE_V1.0.2/MSDK/plf/GD32VW55x_standard_peripheral/Source\gd32vw55x_cau_aes.c ****     cau_init(cau_parameter->alg_dir, CAU_MODE_AES_CTR, CAU_SWAPPING_8BIT);
 214:C:/Users/stapi/OneDrive/Desktop/GD32VW553/GD32VW55X_Wifi_BLE_SDK/GD32VW55x_RELEASE_V1.0.2/MSDK/plf/GD32VW55x_standard_peripheral/Source\gd32vw55x_cau_aes.c **** 
 215:C:/Users/stapi/OneDrive/Desktop/GD32VW553/GD32VW55X_Wifi_BLE_SDK/GD32VW55x_RELEASE_V1.0.2/MSDK/plf/GD32VW55x_standard_peripheral/Source\gd32vw55x_cau_aes.c ****     /* AES key structure parameter config */
 216:C:/Users/stapi/OneDrive/Desktop/GD32VW553/GD32VW55X_Wifi_BLE_SDK/GD32VW55x_RELEASE_V1.0.2/MSDK/plf/GD32VW55x_standard_peripheral/Source\gd32vw55x_cau_aes.c ****     cau_aes_key_config(cau_parameter->key, cau_parameter->key_size, &key_initpara);
 217:C:/Users/stapi/OneDrive/Desktop/GD32VW553/GD32VW55X_Wifi_BLE_SDK/GD32VW55x_RELEASE_V1.0.2/MSDK/plf/GD32VW55x_standard_peripheral/Source\gd32vw55x_cau_aes.c ****     /* key initialization */
 218:C:/Users/stapi/OneDrive/Desktop/GD32VW553/GD32VW55X_Wifi_BLE_SDK/GD32VW55x_RELEASE_V1.0.2/MSDK/plf/GD32VW55x_standard_peripheral/Source\gd32vw55x_cau_aes.c ****     cau_key_init(&key_initpara);
 219:C:/Users/stapi/OneDrive/Desktop/GD32VW553/GD32VW55X_Wifi_BLE_SDK/GD32VW55x_RELEASE_V1.0.2/MSDK/plf/GD32VW55x_standard_peripheral/Source\gd32vw55x_cau_aes.c **** 
 220:C:/Users/stapi/OneDrive/Desktop/GD32VW553/GD32VW55X_Wifi_BLE_SDK/GD32VW55x_RELEASE_V1.0.2/MSDK/plf/GD32VW55x_standard_peripheral/Source\gd32vw55x_cau_aes.c ****     /* vectors initialization */
 221:C:/Users/stapi/OneDrive/Desktop/GD32VW553/GD32VW55X_Wifi_BLE_SDK/GD32VW55x_RELEASE_V1.0.2/MSDK/plf/GD32VW55x_standard_peripheral/Source\gd32vw55x_cau_aes.c ****     iv_initpara.iv_0_high = __REV(*(uint32_t *)(ivaddr));
 222:C:/Users/stapi/OneDrive/Desktop/GD32VW553/GD32VW55X_Wifi_BLE_SDK/GD32VW55x_RELEASE_V1.0.2/MSDK/plf/GD32VW55x_standard_peripheral/Source\gd32vw55x_cau_aes.c ****     ivaddr += 4U;
 223:C:/Users/stapi/OneDrive/Desktop/GD32VW553/GD32VW55X_Wifi_BLE_SDK/GD32VW55x_RELEASE_V1.0.2/MSDK/plf/GD32VW55x_standard_peripheral/Source\gd32vw55x_cau_aes.c ****     iv_initpara.iv_0_low = __REV(*(uint32_t *)(ivaddr));
 224:C:/Users/stapi/OneDrive/Desktop/GD32VW553/GD32VW55X_Wifi_BLE_SDK/GD32VW55x_RELEASE_V1.0.2/MSDK/plf/GD32VW55x_standard_peripheral/Source\gd32vw55x_cau_aes.c ****     ivaddr += 4U;
 225:C:/Users/stapi/OneDrive/Desktop/GD32VW553/GD32VW55X_Wifi_BLE_SDK/GD32VW55x_RELEASE_V1.0.2/MSDK/plf/GD32VW55x_standard_peripheral/Source\gd32vw55x_cau_aes.c ****     iv_initpara.iv_1_high = __REV(*(uint32_t *)(ivaddr));
 226:C:/Users/stapi/OneDrive/Desktop/GD32VW553/GD32VW55X_Wifi_BLE_SDK/GD32VW55x_RELEASE_V1.0.2/MSDK/plf/GD32VW55x_standard_peripheral/Source\gd32vw55x_cau_aes.c ****     ivaddr += 4U;
 227:C:/Users/stapi/OneDrive/Desktop/GD32VW553/GD32VW55X_Wifi_BLE_SDK/GD32VW55x_RELEASE_V1.0.2/MSDK/plf/GD32VW55x_standard_peripheral/Source\gd32vw55x_cau_aes.c ****     iv_initpara.iv_1_low = __REV(*(uint32_t *)(ivaddr));
 228:C:/Users/stapi/OneDrive/Desktop/GD32VW553/GD32VW55X_Wifi_BLE_SDK/GD32VW55x_RELEASE_V1.0.2/MSDK/plf/GD32VW55x_standard_peripheral/Source\gd32vw55x_cau_aes.c ****     cau_iv_init(&iv_initpara);
 229:C:/Users/stapi/OneDrive/Desktop/GD32VW553/GD32VW55X_Wifi_BLE_SDK/GD32VW55x_RELEASE_V1.0.2/MSDK/plf/GD32VW55x_standard_peripheral/Source\gd32vw55x_cau_aes.c **** 
 230:C:/Users/stapi/OneDrive/Desktop/GD32VW553/GD32VW55X_Wifi_BLE_SDK/GD32VW55x_RELEASE_V1.0.2/MSDK/plf/GD32VW55x_standard_peripheral/Source\gd32vw55x_cau_aes.c ****     /* flush the IN and OUT FIFOs */
 231:C:/Users/stapi/OneDrive/Desktop/GD32VW553/GD32VW55X_Wifi_BLE_SDK/GD32VW55x_RELEASE_V1.0.2/MSDK/plf/GD32VW55x_standard_peripheral/Source\gd32vw55x_cau_aes.c ****     cau_fifo_flush();
 232:C:/Users/stapi/OneDrive/Desktop/GD32VW553/GD32VW55X_Wifi_BLE_SDK/GD32VW55x_RELEASE_V1.0.2/MSDK/plf/GD32VW55x_standard_peripheral/Source\gd32vw55x_cau_aes.c **** 
 233:C:/Users/stapi/OneDrive/Desktop/GD32VW553/GD32VW55X_Wifi_BLE_SDK/GD32VW55x_RELEASE_V1.0.2/MSDK/plf/GD32VW55x_standard_peripheral/Source\gd32vw55x_cau_aes.c ****     /* enable the CAU peripheral */
 234:C:/Users/stapi/OneDrive/Desktop/GD32VW553/GD32VW55X_Wifi_BLE_SDK/GD32VW55x_RELEASE_V1.0.2/MSDK/plf/GD32VW55x_standard_peripheral/Source\gd32vw55x_cau_aes.c ****     cau_enable();
 235:C:/Users/stapi/OneDrive/Desktop/GD32VW553/GD32VW55X_Wifi_BLE_SDK/GD32VW55x_RELEASE_V1.0.2/MSDK/plf/GD32VW55x_standard_peripheral/Source\gd32vw55x_cau_aes.c ****     /* AES calculate process */
 236:C:/Users/stapi/OneDrive/Desktop/GD32VW553/GD32VW55X_Wifi_BLE_SDK/GD32VW55x_RELEASE_V1.0.2/MSDK/plf/GD32VW55x_standard_peripheral/Source\gd32vw55x_cau_aes.c ****     ret = cau_aes_calculate(cau_parameter->input, cau_parameter->in_length, output);
 237:C:/Users/stapi/OneDrive/Desktop/GD32VW553/GD32VW55X_Wifi_BLE_SDK/GD32VW55x_RELEASE_V1.0.2/MSDK/plf/GD32VW55x_standard_peripheral/Source\gd32vw55x_cau_aes.c ****     /* disable the CAU peripheral */
 238:C:/Users/stapi/OneDrive/Desktop/GD32VW553/GD32VW55X_Wifi_BLE_SDK/GD32VW55x_RELEASE_V1.0.2/MSDK/plf/GD32VW55x_standard_peripheral/Source\gd32vw55x_cau_aes.c ****     cau_disable();
 239:C:/Users/stapi/OneDrive/Desktop/GD32VW553/GD32VW55X_Wifi_BLE_SDK/GD32VW55x_RELEASE_V1.0.2/MSDK/plf/GD32VW55x_standard_peripheral/Source\gd32vw55x_cau_aes.c **** 
 240:C:/Users/stapi/OneDrive/Desktop/GD32VW553/GD32VW55X_Wifi_BLE_SDK/GD32VW55x_RELEASE_V1.0.2/MSDK/plf/GD32VW55x_standard_peripheral/Source\gd32vw55x_cau_aes.c ****     return ret;
 241:C:/Users/stapi/OneDrive/Desktop/GD32VW553/GD32VW55X_Wifi_BLE_SDK/GD32VW55x_RELEASE_V1.0.2/MSDK/plf/GD32VW55x_standard_peripheral/Source\gd32vw55x_cau_aes.c **** }
 242:C:/Users/stapi/OneDrive/Desktop/GD32VW553/GD32VW55X_Wifi_BLE_SDK/GD32VW55x_RELEASE_V1.0.2/MSDK/plf/GD32VW55x_standard_peripheral/Source\gd32vw55x_cau_aes.c **** 
 243:C:/Users/stapi/OneDrive/Desktop/GD32VW553/GD32VW55X_Wifi_BLE_SDK/GD32VW55x_RELEASE_V1.0.2/MSDK/plf/GD32VW55x_standard_peripheral/Source\gd32vw55x_cau_aes.c **** /*!
 244:C:/Users/stapi/OneDrive/Desktop/GD32VW553/GD32VW55X_Wifi_BLE_SDK/GD32VW55x_RELEASE_V1.0.2/MSDK/plf/GD32VW55x_standard_peripheral/Source\gd32vw55x_cau_aes.c ****     \brief      encrypt and decrypt using AES in CFB mode
 245:C:/Users/stapi/OneDrive/Desktop/GD32VW553/GD32VW55X_Wifi_BLE_SDK/GD32VW55x_RELEASE_V1.0.2/MSDK/plf/GD32VW55x_standard_peripheral/Source\gd32vw55x_cau_aes.c ****     \param[in]  cau_parameter: pointer to the input structure
 246:C:/Users/stapi/OneDrive/Desktop/GD32VW553/GD32VW55X_Wifi_BLE_SDK/GD32VW55x_RELEASE_V1.0.2/MSDK/plf/GD32VW55x_standard_peripheral/Source\gd32vw55x_cau_aes.c ****                   alg_dir: algorithm direction
 247:C:/Users/stapi/OneDrive/Desktop/GD32VW553/GD32VW55X_Wifi_BLE_SDK/GD32VW55x_RELEASE_V1.0.2/MSDK/plf/GD32VW55x_standard_peripheral/Source\gd32vw55x_cau_aes.c ****                     CAU_ENCRYPT, CAU_DECRYPT
 248:C:/Users/stapi/OneDrive/Desktop/GD32VW553/GD32VW55X_Wifi_BLE_SDK/GD32VW55x_RELEASE_V1.0.2/MSDK/plf/GD32VW55x_standard_peripheral/Source\gd32vw55x_cau_aes.c ****                   key: key (in bytes)
 249:C:/Users/stapi/OneDrive/Desktop/GD32VW553/GD32VW55X_Wifi_BLE_SDK/GD32VW55x_RELEASE_V1.0.2/MSDK/plf/GD32VW55x_standard_peripheral/Source\gd32vw55x_cau_aes.c ****                   key_size: key size in bits, must be either 128, 192 or 256
 250:C:/Users/stapi/OneDrive/Desktop/GD32VW553/GD32VW55X_Wifi_BLE_SDK/GD32VW55x_RELEASE_V1.0.2/MSDK/plf/GD32VW55x_standard_peripheral/Source\gd32vw55x_cau_aes.c ****                   iv: initialization vector, 16 bytes (in bytes)
 251:C:/Users/stapi/OneDrive/Desktop/GD32VW553/GD32VW55X_Wifi_BLE_SDK/GD32VW55x_RELEASE_V1.0.2/MSDK/plf/GD32VW55x_standard_peripheral/Source\gd32vw55x_cau_aes.c ****                   input: input data (in bytes)
 252:C:/Users/stapi/OneDrive/Desktop/GD32VW553/GD32VW55X_Wifi_BLE_SDK/GD32VW55x_RELEASE_V1.0.2/MSDK/plf/GD32VW55x_standard_peripheral/Source\gd32vw55x_cau_aes.c ****                   in_length: input data length in bytes, must be a multiple of 16 bytes
 253:C:/Users/stapi/OneDrive/Desktop/GD32VW553/GD32VW55X_Wifi_BLE_SDK/GD32VW55x_RELEASE_V1.0.2/MSDK/plf/GD32VW55x_standard_peripheral/Source\gd32vw55x_cau_aes.c ****     \param[out] output: pointer to the returned buffer
 254:C:/Users/stapi/OneDrive/Desktop/GD32VW553/GD32VW55X_Wifi_BLE_SDK/GD32VW55x_RELEASE_V1.0.2/MSDK/plf/GD32VW55x_standard_peripheral/Source\gd32vw55x_cau_aes.c ****     \retval     ErrStatus: SUCCESS or ERROR
 255:C:/Users/stapi/OneDrive/Desktop/GD32VW553/GD32VW55X_Wifi_BLE_SDK/GD32VW55x_RELEASE_V1.0.2/MSDK/plf/GD32VW55x_standard_peripheral/Source\gd32vw55x_cau_aes.c **** */
 256:C:/Users/stapi/OneDrive/Desktop/GD32VW553/GD32VW55X_Wifi_BLE_SDK/GD32VW55x_RELEASE_V1.0.2/MSDK/plf/GD32VW55x_standard_peripheral/Source\gd32vw55x_cau_aes.c **** ErrStatus cau_aes_cfb(cau_parameter_struct *cau_parameter, uint8_t *output)
 257:C:/Users/stapi/OneDrive/Desktop/GD32VW553/GD32VW55X_Wifi_BLE_SDK/GD32VW55x_RELEASE_V1.0.2/MSDK/plf/GD32VW55x_standard_peripheral/Source\gd32vw55x_cau_aes.c **** {
 258:C:/Users/stapi/OneDrive/Desktop/GD32VW553/GD32VW55X_Wifi_BLE_SDK/GD32VW55x_RELEASE_V1.0.2/MSDK/plf/GD32VW55x_standard_peripheral/Source\gd32vw55x_cau_aes.c ****     ErrStatus ret = ERROR;
 259:C:/Users/stapi/OneDrive/Desktop/GD32VW553/GD32VW55X_Wifi_BLE_SDK/GD32VW55x_RELEASE_V1.0.2/MSDK/plf/GD32VW55x_standard_peripheral/Source\gd32vw55x_cau_aes.c ****     cau_key_parameter_struct key_initpara;
 260:C:/Users/stapi/OneDrive/Desktop/GD32VW553/GD32VW55X_Wifi_BLE_SDK/GD32VW55x_RELEASE_V1.0.2/MSDK/plf/GD32VW55x_standard_peripheral/Source\gd32vw55x_cau_aes.c ****     cau_iv_parameter_struct iv_initpara;
 261:C:/Users/stapi/OneDrive/Desktop/GD32VW553/GD32VW55X_Wifi_BLE_SDK/GD32VW55x_RELEASE_V1.0.2/MSDK/plf/GD32VW55x_standard_peripheral/Source\gd32vw55x_cau_aes.c ****     uint32_t ivaddr = (uint32_t)cau_parameter->iv;
 262:C:/Users/stapi/OneDrive/Desktop/GD32VW553/GD32VW55X_Wifi_BLE_SDK/GD32VW55x_RELEASE_V1.0.2/MSDK/plf/GD32VW55x_standard_peripheral/Source\gd32vw55x_cau_aes.c **** 
 263:C:/Users/stapi/OneDrive/Desktop/GD32VW553/GD32VW55X_Wifi_BLE_SDK/GD32VW55x_RELEASE_V1.0.2/MSDK/plf/GD32VW55x_standard_peripheral/Source\gd32vw55x_cau_aes.c ****     /* key structure initialization */
 264:C:/Users/stapi/OneDrive/Desktop/GD32VW553/GD32VW55X_Wifi_BLE_SDK/GD32VW55x_RELEASE_V1.0.2/MSDK/plf/GD32VW55x_standard_peripheral/Source\gd32vw55x_cau_aes.c ****     cau_key_struct_para_init(&key_initpara);
 265:C:/Users/stapi/OneDrive/Desktop/GD32VW553/GD32VW55X_Wifi_BLE_SDK/GD32VW55x_RELEASE_V1.0.2/MSDK/plf/GD32VW55x_standard_peripheral/Source\gd32vw55x_cau_aes.c ****     /* initialize the CAU peripheral */
 266:C:/Users/stapi/OneDrive/Desktop/GD32VW553/GD32VW55X_Wifi_BLE_SDK/GD32VW55x_RELEASE_V1.0.2/MSDK/plf/GD32VW55x_standard_peripheral/Source\gd32vw55x_cau_aes.c ****     cau_init(cau_parameter->alg_dir, CAU_MODE_AES_CFB, CAU_SWAPPING_8BIT);
 267:C:/Users/stapi/OneDrive/Desktop/GD32VW553/GD32VW55X_Wifi_BLE_SDK/GD32VW55x_RELEASE_V1.0.2/MSDK/plf/GD32VW55x_standard_peripheral/Source\gd32vw55x_cau_aes.c **** 
 268:C:/Users/stapi/OneDrive/Desktop/GD32VW553/GD32VW55X_Wifi_BLE_SDK/GD32VW55x_RELEASE_V1.0.2/MSDK/plf/GD32VW55x_standard_peripheral/Source\gd32vw55x_cau_aes.c ****     /* AES key structure parameter config */
 269:C:/Users/stapi/OneDrive/Desktop/GD32VW553/GD32VW55X_Wifi_BLE_SDK/GD32VW55x_RELEASE_V1.0.2/MSDK/plf/GD32VW55x_standard_peripheral/Source\gd32vw55x_cau_aes.c ****     cau_aes_key_config(cau_parameter->key, cau_parameter->key_size, &key_initpara);
 270:C:/Users/stapi/OneDrive/Desktop/GD32VW553/GD32VW55X_Wifi_BLE_SDK/GD32VW55x_RELEASE_V1.0.2/MSDK/plf/GD32VW55x_standard_peripheral/Source\gd32vw55x_cau_aes.c ****     /* key initialization */
 271:C:/Users/stapi/OneDrive/Desktop/GD32VW553/GD32VW55X_Wifi_BLE_SDK/GD32VW55x_RELEASE_V1.0.2/MSDK/plf/GD32VW55x_standard_peripheral/Source\gd32vw55x_cau_aes.c ****     cau_key_init(&key_initpara);
 272:C:/Users/stapi/OneDrive/Desktop/GD32VW553/GD32VW55X_Wifi_BLE_SDK/GD32VW55x_RELEASE_V1.0.2/MSDK/plf/GD32VW55x_standard_peripheral/Source\gd32vw55x_cau_aes.c **** 
 273:C:/Users/stapi/OneDrive/Desktop/GD32VW553/GD32VW55X_Wifi_BLE_SDK/GD32VW55x_RELEASE_V1.0.2/MSDK/plf/GD32VW55x_standard_peripheral/Source\gd32vw55x_cau_aes.c ****     /* vectors initialization */
 274:C:/Users/stapi/OneDrive/Desktop/GD32VW553/GD32VW55X_Wifi_BLE_SDK/GD32VW55x_RELEASE_V1.0.2/MSDK/plf/GD32VW55x_standard_peripheral/Source\gd32vw55x_cau_aes.c ****     iv_initpara.iv_0_high = __REV(*(uint32_t *)(ivaddr));
 275:C:/Users/stapi/OneDrive/Desktop/GD32VW553/GD32VW55X_Wifi_BLE_SDK/GD32VW55x_RELEASE_V1.0.2/MSDK/plf/GD32VW55x_standard_peripheral/Source\gd32vw55x_cau_aes.c ****     ivaddr += 4U;
 276:C:/Users/stapi/OneDrive/Desktop/GD32VW553/GD32VW55X_Wifi_BLE_SDK/GD32VW55x_RELEASE_V1.0.2/MSDK/plf/GD32VW55x_standard_peripheral/Source\gd32vw55x_cau_aes.c ****     iv_initpara.iv_0_low = __REV(*(uint32_t *)(ivaddr));
 277:C:/Users/stapi/OneDrive/Desktop/GD32VW553/GD32VW55X_Wifi_BLE_SDK/GD32VW55x_RELEASE_V1.0.2/MSDK/plf/GD32VW55x_standard_peripheral/Source\gd32vw55x_cau_aes.c ****     ivaddr += 4U;
 278:C:/Users/stapi/OneDrive/Desktop/GD32VW553/GD32VW55X_Wifi_BLE_SDK/GD32VW55x_RELEASE_V1.0.2/MSDK/plf/GD32VW55x_standard_peripheral/Source\gd32vw55x_cau_aes.c ****     iv_initpara.iv_1_high = __REV(*(uint32_t *)(ivaddr));
 279:C:/Users/stapi/OneDrive/Desktop/GD32VW553/GD32VW55X_Wifi_BLE_SDK/GD32VW55x_RELEASE_V1.0.2/MSDK/plf/GD32VW55x_standard_peripheral/Source\gd32vw55x_cau_aes.c ****     ivaddr += 4U;
 280:C:/Users/stapi/OneDrive/Desktop/GD32VW553/GD32VW55X_Wifi_BLE_SDK/GD32VW55x_RELEASE_V1.0.2/MSDK/plf/GD32VW55x_standard_peripheral/Source\gd32vw55x_cau_aes.c ****     iv_initpara.iv_1_low = __REV(*(uint32_t *)(ivaddr));
 281:C:/Users/stapi/OneDrive/Desktop/GD32VW553/GD32VW55X_Wifi_BLE_SDK/GD32VW55x_RELEASE_V1.0.2/MSDK/plf/GD32VW55x_standard_peripheral/Source\gd32vw55x_cau_aes.c ****     cau_iv_init(&iv_initpara);
 282:C:/Users/stapi/OneDrive/Desktop/GD32VW553/GD32VW55X_Wifi_BLE_SDK/GD32VW55x_RELEASE_V1.0.2/MSDK/plf/GD32VW55x_standard_peripheral/Source\gd32vw55x_cau_aes.c **** 
 283:C:/Users/stapi/OneDrive/Desktop/GD32VW553/GD32VW55X_Wifi_BLE_SDK/GD32VW55x_RELEASE_V1.0.2/MSDK/plf/GD32VW55x_standard_peripheral/Source\gd32vw55x_cau_aes.c ****     /* flush the IN and OUT FIFOs */
 284:C:/Users/stapi/OneDrive/Desktop/GD32VW553/GD32VW55X_Wifi_BLE_SDK/GD32VW55x_RELEASE_V1.0.2/MSDK/plf/GD32VW55x_standard_peripheral/Source\gd32vw55x_cau_aes.c ****     cau_fifo_flush();
 285:C:/Users/stapi/OneDrive/Desktop/GD32VW553/GD32VW55X_Wifi_BLE_SDK/GD32VW55x_RELEASE_V1.0.2/MSDK/plf/GD32VW55x_standard_peripheral/Source\gd32vw55x_cau_aes.c ****     /* enable the CAU peripheral */
 286:C:/Users/stapi/OneDrive/Desktop/GD32VW553/GD32VW55X_Wifi_BLE_SDK/GD32VW55x_RELEASE_V1.0.2/MSDK/plf/GD32VW55x_standard_peripheral/Source\gd32vw55x_cau_aes.c ****     cau_enable();
 287:C:/Users/stapi/OneDrive/Desktop/GD32VW553/GD32VW55X_Wifi_BLE_SDK/GD32VW55x_RELEASE_V1.0.2/MSDK/plf/GD32VW55x_standard_peripheral/Source\gd32vw55x_cau_aes.c ****     /* AES calculate process */
 288:C:/Users/stapi/OneDrive/Desktop/GD32VW553/GD32VW55X_Wifi_BLE_SDK/GD32VW55x_RELEASE_V1.0.2/MSDK/plf/GD32VW55x_standard_peripheral/Source\gd32vw55x_cau_aes.c ****     ret = cau_aes_calculate(cau_parameter->input, cau_parameter->in_length, output);
 289:C:/Users/stapi/OneDrive/Desktop/GD32VW553/GD32VW55X_Wifi_BLE_SDK/GD32VW55x_RELEASE_V1.0.2/MSDK/plf/GD32VW55x_standard_peripheral/Source\gd32vw55x_cau_aes.c ****     /* disable the CAU peripheral */
 290:C:/Users/stapi/OneDrive/Desktop/GD32VW553/GD32VW55X_Wifi_BLE_SDK/GD32VW55x_RELEASE_V1.0.2/MSDK/plf/GD32VW55x_standard_peripheral/Source\gd32vw55x_cau_aes.c ****     cau_disable();
 291:C:/Users/stapi/OneDrive/Desktop/GD32VW553/GD32VW55X_Wifi_BLE_SDK/GD32VW55x_RELEASE_V1.0.2/MSDK/plf/GD32VW55x_standard_peripheral/Source\gd32vw55x_cau_aes.c **** 
 292:C:/Users/stapi/OneDrive/Desktop/GD32VW553/GD32VW55X_Wifi_BLE_SDK/GD32VW55x_RELEASE_V1.0.2/MSDK/plf/GD32VW55x_standard_peripheral/Source\gd32vw55x_cau_aes.c ****     return ret;
 293:C:/Users/stapi/OneDrive/Desktop/GD32VW553/GD32VW55X_Wifi_BLE_SDK/GD32VW55x_RELEASE_V1.0.2/MSDK/plf/GD32VW55x_standard_peripheral/Source\gd32vw55x_cau_aes.c **** }
 294:C:/Users/stapi/OneDrive/Desktop/GD32VW553/GD32VW55X_Wifi_BLE_SDK/GD32VW55x_RELEASE_V1.0.2/MSDK/plf/GD32VW55x_standard_peripheral/Source\gd32vw55x_cau_aes.c **** 
 295:C:/Users/stapi/OneDrive/Desktop/GD32VW553/GD32VW55X_Wifi_BLE_SDK/GD32VW55x_RELEASE_V1.0.2/MSDK/plf/GD32VW55x_standard_peripheral/Source\gd32vw55x_cau_aes.c **** /*!
 296:C:/Users/stapi/OneDrive/Desktop/GD32VW553/GD32VW55X_Wifi_BLE_SDK/GD32VW55x_RELEASE_V1.0.2/MSDK/plf/GD32VW55x_standard_peripheral/Source\gd32vw55x_cau_aes.c ****     \brief      encrypt and decrypt using AES in OFB mode
 297:C:/Users/stapi/OneDrive/Desktop/GD32VW553/GD32VW55X_Wifi_BLE_SDK/GD32VW55x_RELEASE_V1.0.2/MSDK/plf/GD32VW55x_standard_peripheral/Source\gd32vw55x_cau_aes.c ****     \param[in]  cau_parameter: pointer to the input structure
 298:C:/Users/stapi/OneDrive/Desktop/GD32VW553/GD32VW55X_Wifi_BLE_SDK/GD32VW55x_RELEASE_V1.0.2/MSDK/plf/GD32VW55x_standard_peripheral/Source\gd32vw55x_cau_aes.c ****                   alg_dir: algorithm direction
 299:C:/Users/stapi/OneDrive/Desktop/GD32VW553/GD32VW55X_Wifi_BLE_SDK/GD32VW55x_RELEASE_V1.0.2/MSDK/plf/GD32VW55x_standard_peripheral/Source\gd32vw55x_cau_aes.c ****                     CAU_ENCRYPT, CAU_DECRYPT
 300:C:/Users/stapi/OneDrive/Desktop/GD32VW553/GD32VW55X_Wifi_BLE_SDK/GD32VW55x_RELEASE_V1.0.2/MSDK/plf/GD32VW55x_standard_peripheral/Source\gd32vw55x_cau_aes.c ****                   key: key (in bytes)
 301:C:/Users/stapi/OneDrive/Desktop/GD32VW553/GD32VW55X_Wifi_BLE_SDK/GD32VW55x_RELEASE_V1.0.2/MSDK/plf/GD32VW55x_standard_peripheral/Source\gd32vw55x_cau_aes.c ****                   key_size: key size in bits, must be either 128, 192 or 256
 302:C:/Users/stapi/OneDrive/Desktop/GD32VW553/GD32VW55X_Wifi_BLE_SDK/GD32VW55x_RELEASE_V1.0.2/MSDK/plf/GD32VW55x_standard_peripheral/Source\gd32vw55x_cau_aes.c ****                   iv: initialization vector, 16 bytes (in bytes)
 303:C:/Users/stapi/OneDrive/Desktop/GD32VW553/GD32VW55X_Wifi_BLE_SDK/GD32VW55x_RELEASE_V1.0.2/MSDK/plf/GD32VW55x_standard_peripheral/Source\gd32vw55x_cau_aes.c ****                   input: input data (in bytes)
 304:C:/Users/stapi/OneDrive/Desktop/GD32VW553/GD32VW55X_Wifi_BLE_SDK/GD32VW55x_RELEASE_V1.0.2/MSDK/plf/GD32VW55x_standard_peripheral/Source\gd32vw55x_cau_aes.c ****                   in_length: input data length in bytes, must be a multiple of 16 bytes
 305:C:/Users/stapi/OneDrive/Desktop/GD32VW553/GD32VW55X_Wifi_BLE_SDK/GD32VW55x_RELEASE_V1.0.2/MSDK/plf/GD32VW55x_standard_peripheral/Source\gd32vw55x_cau_aes.c ****     \param[out] output: pointer to the returned buffer
 306:C:/Users/stapi/OneDrive/Desktop/GD32VW553/GD32VW55X_Wifi_BLE_SDK/GD32VW55x_RELEASE_V1.0.2/MSDK/plf/GD32VW55x_standard_peripheral/Source\gd32vw55x_cau_aes.c ****     \retval     ErrStatus: SUCCESS or ERROR
 307:C:/Users/stapi/OneDrive/Desktop/GD32VW553/GD32VW55X_Wifi_BLE_SDK/GD32VW55x_RELEASE_V1.0.2/MSDK/plf/GD32VW55x_standard_peripheral/Source\gd32vw55x_cau_aes.c **** */
 308:C:/Users/stapi/OneDrive/Desktop/GD32VW553/GD32VW55X_Wifi_BLE_SDK/GD32VW55x_RELEASE_V1.0.2/MSDK/plf/GD32VW55x_standard_peripheral/Source\gd32vw55x_cau_aes.c **** ErrStatus cau_aes_ofb(cau_parameter_struct *cau_parameter, uint8_t *output)
 309:C:/Users/stapi/OneDrive/Desktop/GD32VW553/GD32VW55X_Wifi_BLE_SDK/GD32VW55x_RELEASE_V1.0.2/MSDK/plf/GD32VW55x_standard_peripheral/Source\gd32vw55x_cau_aes.c **** {
 310:C:/Users/stapi/OneDrive/Desktop/GD32VW553/GD32VW55X_Wifi_BLE_SDK/GD32VW55x_RELEASE_V1.0.2/MSDK/plf/GD32VW55x_standard_peripheral/Source\gd32vw55x_cau_aes.c ****     ErrStatus ret = ERROR;
 311:C:/Users/stapi/OneDrive/Desktop/GD32VW553/GD32VW55X_Wifi_BLE_SDK/GD32VW55x_RELEASE_V1.0.2/MSDK/plf/GD32VW55x_standard_peripheral/Source\gd32vw55x_cau_aes.c ****     cau_key_parameter_struct key_initpara;
 312:C:/Users/stapi/OneDrive/Desktop/GD32VW553/GD32VW55X_Wifi_BLE_SDK/GD32VW55x_RELEASE_V1.0.2/MSDK/plf/GD32VW55x_standard_peripheral/Source\gd32vw55x_cau_aes.c ****     cau_iv_parameter_struct iv_initpara;
 313:C:/Users/stapi/OneDrive/Desktop/GD32VW553/GD32VW55X_Wifi_BLE_SDK/GD32VW55x_RELEASE_V1.0.2/MSDK/plf/GD32VW55x_standard_peripheral/Source\gd32vw55x_cau_aes.c ****     uint32_t ivaddr = (uint32_t)cau_parameter->iv;
 314:C:/Users/stapi/OneDrive/Desktop/GD32VW553/GD32VW55X_Wifi_BLE_SDK/GD32VW55x_RELEASE_V1.0.2/MSDK/plf/GD32VW55x_standard_peripheral/Source\gd32vw55x_cau_aes.c **** 
 315:C:/Users/stapi/OneDrive/Desktop/GD32VW553/GD32VW55X_Wifi_BLE_SDK/GD32VW55x_RELEASE_V1.0.2/MSDK/plf/GD32VW55x_standard_peripheral/Source\gd32vw55x_cau_aes.c ****     /* key structure initialization */
 316:C:/Users/stapi/OneDrive/Desktop/GD32VW553/GD32VW55X_Wifi_BLE_SDK/GD32VW55x_RELEASE_V1.0.2/MSDK/plf/GD32VW55x_standard_peripheral/Source\gd32vw55x_cau_aes.c ****     cau_key_struct_para_init(&key_initpara);
 317:C:/Users/stapi/OneDrive/Desktop/GD32VW553/GD32VW55X_Wifi_BLE_SDK/GD32VW55x_RELEASE_V1.0.2/MSDK/plf/GD32VW55x_standard_peripheral/Source\gd32vw55x_cau_aes.c ****     /* initialize the CAU peripheral */
 318:C:/Users/stapi/OneDrive/Desktop/GD32VW553/GD32VW55X_Wifi_BLE_SDK/GD32VW55x_RELEASE_V1.0.2/MSDK/plf/GD32VW55x_standard_peripheral/Source\gd32vw55x_cau_aes.c ****     cau_init(cau_parameter->alg_dir, CAU_MODE_AES_OFB, CAU_SWAPPING_8BIT);
 319:C:/Users/stapi/OneDrive/Desktop/GD32VW553/GD32VW55X_Wifi_BLE_SDK/GD32VW55x_RELEASE_V1.0.2/MSDK/plf/GD32VW55x_standard_peripheral/Source\gd32vw55x_cau_aes.c **** 
 320:C:/Users/stapi/OneDrive/Desktop/GD32VW553/GD32VW55X_Wifi_BLE_SDK/GD32VW55x_RELEASE_V1.0.2/MSDK/plf/GD32VW55x_standard_peripheral/Source\gd32vw55x_cau_aes.c ****     /* AES key structure parameter config */
 321:C:/Users/stapi/OneDrive/Desktop/GD32VW553/GD32VW55X_Wifi_BLE_SDK/GD32VW55x_RELEASE_V1.0.2/MSDK/plf/GD32VW55x_standard_peripheral/Source\gd32vw55x_cau_aes.c ****     cau_aes_key_config(cau_parameter->key, cau_parameter->key_size, &key_initpara);
 322:C:/Users/stapi/OneDrive/Desktop/GD32VW553/GD32VW55X_Wifi_BLE_SDK/GD32VW55x_RELEASE_V1.0.2/MSDK/plf/GD32VW55x_standard_peripheral/Source\gd32vw55x_cau_aes.c ****     /* key initialization */
 323:C:/Users/stapi/OneDrive/Desktop/GD32VW553/GD32VW55X_Wifi_BLE_SDK/GD32VW55x_RELEASE_V1.0.2/MSDK/plf/GD32VW55x_standard_peripheral/Source\gd32vw55x_cau_aes.c ****     cau_key_init(&key_initpara);
 324:C:/Users/stapi/OneDrive/Desktop/GD32VW553/GD32VW55X_Wifi_BLE_SDK/GD32VW55x_RELEASE_V1.0.2/MSDK/plf/GD32VW55x_standard_peripheral/Source\gd32vw55x_cau_aes.c **** 
 325:C:/Users/stapi/OneDrive/Desktop/GD32VW553/GD32VW55X_Wifi_BLE_SDK/GD32VW55x_RELEASE_V1.0.2/MSDK/plf/GD32VW55x_standard_peripheral/Source\gd32vw55x_cau_aes.c ****     /* vectors initialization */
 326:C:/Users/stapi/OneDrive/Desktop/GD32VW553/GD32VW55X_Wifi_BLE_SDK/GD32VW55x_RELEASE_V1.0.2/MSDK/plf/GD32VW55x_standard_peripheral/Source\gd32vw55x_cau_aes.c ****     iv_initpara.iv_0_high = __REV(*(uint32_t *)(ivaddr));
 327:C:/Users/stapi/OneDrive/Desktop/GD32VW553/GD32VW55X_Wifi_BLE_SDK/GD32VW55x_RELEASE_V1.0.2/MSDK/plf/GD32VW55x_standard_peripheral/Source\gd32vw55x_cau_aes.c ****     ivaddr += 4U;
 328:C:/Users/stapi/OneDrive/Desktop/GD32VW553/GD32VW55X_Wifi_BLE_SDK/GD32VW55x_RELEASE_V1.0.2/MSDK/plf/GD32VW55x_standard_peripheral/Source\gd32vw55x_cau_aes.c ****     iv_initpara.iv_0_low = __REV(*(uint32_t *)(ivaddr));
 329:C:/Users/stapi/OneDrive/Desktop/GD32VW553/GD32VW55X_Wifi_BLE_SDK/GD32VW55x_RELEASE_V1.0.2/MSDK/plf/GD32VW55x_standard_peripheral/Source\gd32vw55x_cau_aes.c ****     ivaddr += 4U;
 330:C:/Users/stapi/OneDrive/Desktop/GD32VW553/GD32VW55X_Wifi_BLE_SDK/GD32VW55x_RELEASE_V1.0.2/MSDK/plf/GD32VW55x_standard_peripheral/Source\gd32vw55x_cau_aes.c ****     iv_initpara.iv_1_high = __REV(*(uint32_t *)(ivaddr));
 331:C:/Users/stapi/OneDrive/Desktop/GD32VW553/GD32VW55X_Wifi_BLE_SDK/GD32VW55x_RELEASE_V1.0.2/MSDK/plf/GD32VW55x_standard_peripheral/Source\gd32vw55x_cau_aes.c ****     ivaddr += 4U;
 332:C:/Users/stapi/OneDrive/Desktop/GD32VW553/GD32VW55X_Wifi_BLE_SDK/GD32VW55x_RELEASE_V1.0.2/MSDK/plf/GD32VW55x_standard_peripheral/Source\gd32vw55x_cau_aes.c ****     iv_initpara.iv_1_low = __REV(*(uint32_t *)(ivaddr));
 333:C:/Users/stapi/OneDrive/Desktop/GD32VW553/GD32VW55X_Wifi_BLE_SDK/GD32VW55x_RELEASE_V1.0.2/MSDK/plf/GD32VW55x_standard_peripheral/Source\gd32vw55x_cau_aes.c ****     cau_iv_init(&iv_initpara);
 334:C:/Users/stapi/OneDrive/Desktop/GD32VW553/GD32VW55X_Wifi_BLE_SDK/GD32VW55x_RELEASE_V1.0.2/MSDK/plf/GD32VW55x_standard_peripheral/Source\gd32vw55x_cau_aes.c **** 
 335:C:/Users/stapi/OneDrive/Desktop/GD32VW553/GD32VW55X_Wifi_BLE_SDK/GD32VW55x_RELEASE_V1.0.2/MSDK/plf/GD32VW55x_standard_peripheral/Source\gd32vw55x_cau_aes.c ****     /* flush the IN and OUT FIFOs */
 336:C:/Users/stapi/OneDrive/Desktop/GD32VW553/GD32VW55X_Wifi_BLE_SDK/GD32VW55x_RELEASE_V1.0.2/MSDK/plf/GD32VW55x_standard_peripheral/Source\gd32vw55x_cau_aes.c ****     cau_fifo_flush();
 337:C:/Users/stapi/OneDrive/Desktop/GD32VW553/GD32VW55X_Wifi_BLE_SDK/GD32VW55x_RELEASE_V1.0.2/MSDK/plf/GD32VW55x_standard_peripheral/Source\gd32vw55x_cau_aes.c ****     /* enable the CAU peripheral */
 338:C:/Users/stapi/OneDrive/Desktop/GD32VW553/GD32VW55X_Wifi_BLE_SDK/GD32VW55x_RELEASE_V1.0.2/MSDK/plf/GD32VW55x_standard_peripheral/Source\gd32vw55x_cau_aes.c ****     cau_enable();
 339:C:/Users/stapi/OneDrive/Desktop/GD32VW553/GD32VW55X_Wifi_BLE_SDK/GD32VW55x_RELEASE_V1.0.2/MSDK/plf/GD32VW55x_standard_peripheral/Source\gd32vw55x_cau_aes.c ****     /* AES calculate process */
 340:C:/Users/stapi/OneDrive/Desktop/GD32VW553/GD32VW55X_Wifi_BLE_SDK/GD32VW55x_RELEASE_V1.0.2/MSDK/plf/GD32VW55x_standard_peripheral/Source\gd32vw55x_cau_aes.c ****     ret = cau_aes_calculate(cau_parameter->input, cau_parameter->in_length, output);
 341:C:/Users/stapi/OneDrive/Desktop/GD32VW553/GD32VW55X_Wifi_BLE_SDK/GD32VW55x_RELEASE_V1.0.2/MSDK/plf/GD32VW55x_standard_peripheral/Source\gd32vw55x_cau_aes.c ****     /* disable the CAU peripheral */
 342:C:/Users/stapi/OneDrive/Desktop/GD32VW553/GD32VW55X_Wifi_BLE_SDK/GD32VW55x_RELEASE_V1.0.2/MSDK/plf/GD32VW55x_standard_peripheral/Source\gd32vw55x_cau_aes.c ****     cau_disable();
 343:C:/Users/stapi/OneDrive/Desktop/GD32VW553/GD32VW55X_Wifi_BLE_SDK/GD32VW55x_RELEASE_V1.0.2/MSDK/plf/GD32VW55x_standard_peripheral/Source\gd32vw55x_cau_aes.c **** 
 344:C:/Users/stapi/OneDrive/Desktop/GD32VW553/GD32VW55X_Wifi_BLE_SDK/GD32VW55x_RELEASE_V1.0.2/MSDK/plf/GD32VW55x_standard_peripheral/Source\gd32vw55x_cau_aes.c ****     return ret;
 345:C:/Users/stapi/OneDrive/Desktop/GD32VW553/GD32VW55X_Wifi_BLE_SDK/GD32VW55x_RELEASE_V1.0.2/MSDK/plf/GD32VW55x_standard_peripheral/Source\gd32vw55x_cau_aes.c **** }
 346:C:/Users/stapi/OneDrive/Desktop/GD32VW553/GD32VW55X_Wifi_BLE_SDK/GD32VW55x_RELEASE_V1.0.2/MSDK/plf/GD32VW55x_standard_peripheral/Source\gd32vw55x_cau_aes.c **** 
 347:C:/Users/stapi/OneDrive/Desktop/GD32VW553/GD32VW55X_Wifi_BLE_SDK/GD32VW55x_RELEASE_V1.0.2/MSDK/plf/GD32VW55x_standard_peripheral/Source\gd32vw55x_cau_aes.c **** /*!
 348:C:/Users/stapi/OneDrive/Desktop/GD32VW553/GD32VW55X_Wifi_BLE_SDK/GD32VW55x_RELEASE_V1.0.2/MSDK/plf/GD32VW55x_standard_peripheral/Source\gd32vw55x_cau_aes.c ****     \brief      encrypt and decrypt using AES in GCM mode
 349:C:/Users/stapi/OneDrive/Desktop/GD32VW553/GD32VW55X_Wifi_BLE_SDK/GD32VW55x_RELEASE_V1.0.2/MSDK/plf/GD32VW55x_standard_peripheral/Source\gd32vw55x_cau_aes.c ****     \param[in]  cau_parameter: pointer to the input structure
 350:C:/Users/stapi/OneDrive/Desktop/GD32VW553/GD32VW55X_Wifi_BLE_SDK/GD32VW55x_RELEASE_V1.0.2/MSDK/plf/GD32VW55x_standard_peripheral/Source\gd32vw55x_cau_aes.c ****                   alg_dir: algorithm direction
 351:C:/Users/stapi/OneDrive/Desktop/GD32VW553/GD32VW55X_Wifi_BLE_SDK/GD32VW55x_RELEASE_V1.0.2/MSDK/plf/GD32VW55x_standard_peripheral/Source\gd32vw55x_cau_aes.c ****                     CAU_ENCRYPT, CAU_DECRYPT
 352:C:/Users/stapi/OneDrive/Desktop/GD32VW553/GD32VW55X_Wifi_BLE_SDK/GD32VW55x_RELEASE_V1.0.2/MSDK/plf/GD32VW55x_standard_peripheral/Source\gd32vw55x_cau_aes.c ****                   key: key (in bytes)
 353:C:/Users/stapi/OneDrive/Desktop/GD32VW553/GD32VW55X_Wifi_BLE_SDK/GD32VW55x_RELEASE_V1.0.2/MSDK/plf/GD32VW55x_standard_peripheral/Source\gd32vw55x_cau_aes.c ****                   key_size: key size in bits, must be either 128, 192 or 256
 354:C:/Users/stapi/OneDrive/Desktop/GD32VW553/GD32VW55X_Wifi_BLE_SDK/GD32VW55x_RELEASE_V1.0.2/MSDK/plf/GD32VW55x_standard_peripheral/Source\gd32vw55x_cau_aes.c ****                   iv: initialization vector, 16 bytes
 355:C:/Users/stapi/OneDrive/Desktop/GD32VW553/GD32VW55X_Wifi_BLE_SDK/GD32VW55x_RELEASE_V1.0.2/MSDK/plf/GD32VW55x_standard_peripheral/Source\gd32vw55x_cau_aes.c ****                   input: input data
 356:C:/Users/stapi/OneDrive/Desktop/GD32VW553/GD32VW55X_Wifi_BLE_SDK/GD32VW55x_RELEASE_V1.0.2/MSDK/plf/GD32VW55x_standard_peripheral/Source\gd32vw55x_cau_aes.c ****                   in_length: input data length in bytes, must be a multiple of 16 bytes
 357:C:/Users/stapi/OneDrive/Desktop/GD32VW553/GD32VW55X_Wifi_BLE_SDK/GD32VW55x_RELEASE_V1.0.2/MSDK/plf/GD32VW55x_standard_peripheral/Source\gd32vw55x_cau_aes.c ****                   aad: additional authentication data
 358:C:/Users/stapi/OneDrive/Desktop/GD32VW553/GD32VW55X_Wifi_BLE_SDK/GD32VW55x_RELEASE_V1.0.2/MSDK/plf/GD32VW55x_standard_peripheral/Source\gd32vw55x_cau_aes.c ****                   aad_size: aad size in bytes, must be a multiple of 16 bytes
 359:C:/Users/stapi/OneDrive/Desktop/GD32VW553/GD32VW55X_Wifi_BLE_SDK/GD32VW55x_RELEASE_V1.0.2/MSDK/plf/GD32VW55x_standard_peripheral/Source\gd32vw55x_cau_aes.c ****     \param[out] output: pointer to the returned output data buffer
 360:C:/Users/stapi/OneDrive/Desktop/GD32VW553/GD32VW55X_Wifi_BLE_SDK/GD32VW55x_RELEASE_V1.0.2/MSDK/plf/GD32VW55x_standard_peripheral/Source\gd32vw55x_cau_aes.c ****     \param[out] tag: pointer to the returned tag buffer
 361:C:/Users/stapi/OneDrive/Desktop/GD32VW553/GD32VW55X_Wifi_BLE_SDK/GD32VW55x_RELEASE_V1.0.2/MSDK/plf/GD32VW55x_standard_peripheral/Source\gd32vw55x_cau_aes.c ****     \retval     ErrStatus: SUCCESS or ERROR
 362:C:/Users/stapi/OneDrive/Desktop/GD32VW553/GD32VW55X_Wifi_BLE_SDK/GD32VW55x_RELEASE_V1.0.2/MSDK/plf/GD32VW55x_standard_peripheral/Source\gd32vw55x_cau_aes.c **** */
 363:C:/Users/stapi/OneDrive/Desktop/GD32VW553/GD32VW55X_Wifi_BLE_SDK/GD32VW55x_RELEASE_V1.0.2/MSDK/plf/GD32VW55x_standard_peripheral/Source\gd32vw55x_cau_aes.c **** ErrStatus cau_aes_gcm(cau_parameter_struct *cau_parameter, uint8_t *output, uint8_t *tag)
 364:C:/Users/stapi/OneDrive/Desktop/GD32VW553/GD32VW55X_Wifi_BLE_SDK/GD32VW55x_RELEASE_V1.0.2/MSDK/plf/GD32VW55x_standard_peripheral/Source\gd32vw55x_cau_aes.c **** {
 365:C:/Users/stapi/OneDrive/Desktop/GD32VW553/GD32VW55X_Wifi_BLE_SDK/GD32VW55x_RELEASE_V1.0.2/MSDK/plf/GD32VW55x_standard_peripheral/Source\gd32vw55x_cau_aes.c ****     ErrStatus ret = SUCCESS;
 366:C:/Users/stapi/OneDrive/Desktop/GD32VW553/GD32VW55X_Wifi_BLE_SDK/GD32VW55x_RELEASE_V1.0.2/MSDK/plf/GD32VW55x_standard_peripheral/Source\gd32vw55x_cau_aes.c ****     cau_key_parameter_struct key_initpara;
 367:C:/Users/stapi/OneDrive/Desktop/GD32VW553/GD32VW55X_Wifi_BLE_SDK/GD32VW55x_RELEASE_V1.0.2/MSDK/plf/GD32VW55x_standard_peripheral/Source\gd32vw55x_cau_aes.c ****     cau_iv_parameter_struct iv_initpara;
 368:C:/Users/stapi/OneDrive/Desktop/GD32VW553/GD32VW55X_Wifi_BLE_SDK/GD32VW55x_RELEASE_V1.0.2/MSDK/plf/GD32VW55x_standard_peripheral/Source\gd32vw55x_cau_aes.c ****     uint64_t aadlength = (uint64_t)cau_parameter->aad_size * 8U;
 369:C:/Users/stapi/OneDrive/Desktop/GD32VW553/GD32VW55X_Wifi_BLE_SDK/GD32VW55x_RELEASE_V1.0.2/MSDK/plf/GD32VW55x_standard_peripheral/Source\gd32vw55x_cau_aes.c ****     uint64_t inputlength = (uint64_t)cau_parameter->in_length * 8U;
 370:C:/Users/stapi/OneDrive/Desktop/GD32VW553/GD32VW55X_Wifi_BLE_SDK/GD32VW55x_RELEASE_V1.0.2/MSDK/plf/GD32VW55x_standard_peripheral/Source\gd32vw55x_cau_aes.c ****     uint32_t ivaddr = (uint32_t)cau_parameter->iv;
 371:C:/Users/stapi/OneDrive/Desktop/GD32VW553/GD32VW55X_Wifi_BLE_SDK/GD32VW55x_RELEASE_V1.0.2/MSDK/plf/GD32VW55x_standard_peripheral/Source\gd32vw55x_cau_aes.c ****     uint32_t tagaddr = (uint32_t)tag;
 372:C:/Users/stapi/OneDrive/Desktop/GD32VW553/GD32VW55X_Wifi_BLE_SDK/GD32VW55x_RELEASE_V1.0.2/MSDK/plf/GD32VW55x_standard_peripheral/Source\gd32vw55x_cau_aes.c **** 
 373:C:/Users/stapi/OneDrive/Desktop/GD32VW553/GD32VW55X_Wifi_BLE_SDK/GD32VW55x_RELEASE_V1.0.2/MSDK/plf/GD32VW55x_standard_peripheral/Source\gd32vw55x_cau_aes.c ****     /* key structure initialization */
 374:C:/Users/stapi/OneDrive/Desktop/GD32VW553/GD32VW55X_Wifi_BLE_SDK/GD32VW55x_RELEASE_V1.0.2/MSDK/plf/GD32VW55x_standard_peripheral/Source\gd32vw55x_cau_aes.c ****     cau_key_struct_para_init(&key_initpara);
 375:C:/Users/stapi/OneDrive/Desktop/GD32VW553/GD32VW55X_Wifi_BLE_SDK/GD32VW55x_RELEASE_V1.0.2/MSDK/plf/GD32VW55x_standard_peripheral/Source\gd32vw55x_cau_aes.c ****     /* initialize the CAU peripheral */
 376:C:/Users/stapi/OneDrive/Desktop/GD32VW553/GD32VW55X_Wifi_BLE_SDK/GD32VW55x_RELEASE_V1.0.2/MSDK/plf/GD32VW55x_standard_peripheral/Source\gd32vw55x_cau_aes.c ****     cau_init(cau_parameter->alg_dir, CAU_MODE_AES_GCM, CAU_SWAPPING_8BIT);
 377:C:/Users/stapi/OneDrive/Desktop/GD32VW553/GD32VW55X_Wifi_BLE_SDK/GD32VW55x_RELEASE_V1.0.2/MSDK/plf/GD32VW55x_standard_peripheral/Source\gd32vw55x_cau_aes.c **** 
 378:C:/Users/stapi/OneDrive/Desktop/GD32VW553/GD32VW55X_Wifi_BLE_SDK/GD32VW55x_RELEASE_V1.0.2/MSDK/plf/GD32VW55x_standard_peripheral/Source\gd32vw55x_cau_aes.c ****     /* AES key structure parameter config */
 379:C:/Users/stapi/OneDrive/Desktop/GD32VW553/GD32VW55X_Wifi_BLE_SDK/GD32VW55x_RELEASE_V1.0.2/MSDK/plf/GD32VW55x_standard_peripheral/Source\gd32vw55x_cau_aes.c ****     cau_aes_key_config(cau_parameter->key, cau_parameter->key_size, &key_initpara);
 380:C:/Users/stapi/OneDrive/Desktop/GD32VW553/GD32VW55X_Wifi_BLE_SDK/GD32VW55x_RELEASE_V1.0.2/MSDK/plf/GD32VW55x_standard_peripheral/Source\gd32vw55x_cau_aes.c ****     /* key initialization */
 381:C:/Users/stapi/OneDrive/Desktop/GD32VW553/GD32VW55X_Wifi_BLE_SDK/GD32VW55x_RELEASE_V1.0.2/MSDK/plf/GD32VW55x_standard_peripheral/Source\gd32vw55x_cau_aes.c ****     cau_key_init(&key_initpara);
 382:C:/Users/stapi/OneDrive/Desktop/GD32VW553/GD32VW55X_Wifi_BLE_SDK/GD32VW55x_RELEASE_V1.0.2/MSDK/plf/GD32VW55x_standard_peripheral/Source\gd32vw55x_cau_aes.c **** 
 383:C:/Users/stapi/OneDrive/Desktop/GD32VW553/GD32VW55X_Wifi_BLE_SDK/GD32VW55x_RELEASE_V1.0.2/MSDK/plf/GD32VW55x_standard_peripheral/Source\gd32vw55x_cau_aes.c ****     /* vectors initialization */
 384:C:/Users/stapi/OneDrive/Desktop/GD32VW553/GD32VW55X_Wifi_BLE_SDK/GD32VW55x_RELEASE_V1.0.2/MSDK/plf/GD32VW55x_standard_peripheral/Source\gd32vw55x_cau_aes.c ****     iv_initpara.iv_0_high = __REV(*(uint32_t *)(ivaddr));
 385:C:/Users/stapi/OneDrive/Desktop/GD32VW553/GD32VW55X_Wifi_BLE_SDK/GD32VW55x_RELEASE_V1.0.2/MSDK/plf/GD32VW55x_standard_peripheral/Source\gd32vw55x_cau_aes.c ****     ivaddr += 4U;
 386:C:/Users/stapi/OneDrive/Desktop/GD32VW553/GD32VW55X_Wifi_BLE_SDK/GD32VW55x_RELEASE_V1.0.2/MSDK/plf/GD32VW55x_standard_peripheral/Source\gd32vw55x_cau_aes.c ****     iv_initpara.iv_0_low = __REV(*(uint32_t *)(ivaddr));
 387:C:/Users/stapi/OneDrive/Desktop/GD32VW553/GD32VW55X_Wifi_BLE_SDK/GD32VW55x_RELEASE_V1.0.2/MSDK/plf/GD32VW55x_standard_peripheral/Source\gd32vw55x_cau_aes.c ****     ivaddr += 4U;
 388:C:/Users/stapi/OneDrive/Desktop/GD32VW553/GD32VW55X_Wifi_BLE_SDK/GD32VW55x_RELEASE_V1.0.2/MSDK/plf/GD32VW55x_standard_peripheral/Source\gd32vw55x_cau_aes.c ****     iv_initpara.iv_1_high = __REV(*(uint32_t *)(ivaddr));
 389:C:/Users/stapi/OneDrive/Desktop/GD32VW553/GD32VW55X_Wifi_BLE_SDK/GD32VW55x_RELEASE_V1.0.2/MSDK/plf/GD32VW55x_standard_peripheral/Source\gd32vw55x_cau_aes.c ****     ivaddr += 4U;
 390:C:/Users/stapi/OneDrive/Desktop/GD32VW553/GD32VW55X_Wifi_BLE_SDK/GD32VW55x_RELEASE_V1.0.2/MSDK/plf/GD32VW55x_standard_peripheral/Source\gd32vw55x_cau_aes.c ****     iv_initpara.iv_1_low = __REV(*(uint32_t *)(ivaddr));
 391:C:/Users/stapi/OneDrive/Desktop/GD32VW553/GD32VW55X_Wifi_BLE_SDK/GD32VW55x_RELEASE_V1.0.2/MSDK/plf/GD32VW55x_standard_peripheral/Source\gd32vw55x_cau_aes.c ****     cau_iv_init(&iv_initpara);
 392:C:/Users/stapi/OneDrive/Desktop/GD32VW553/GD32VW55X_Wifi_BLE_SDK/GD32VW55x_RELEASE_V1.0.2/MSDK/plf/GD32VW55x_standard_peripheral/Source\gd32vw55x_cau_aes.c **** 
 393:C:/Users/stapi/OneDrive/Desktop/GD32VW553/GD32VW55X_Wifi_BLE_SDK/GD32VW55x_RELEASE_V1.0.2/MSDK/plf/GD32VW55x_standard_peripheral/Source\gd32vw55x_cau_aes.c ****     /* prepare phase */
 394:C:/Users/stapi/OneDrive/Desktop/GD32VW553/GD32VW55X_Wifi_BLE_SDK/GD32VW55x_RELEASE_V1.0.2/MSDK/plf/GD32VW55x_standard_peripheral/Source\gd32vw55x_cau_aes.c ****     /* select prepare phase */
 395:C:/Users/stapi/OneDrive/Desktop/GD32VW553/GD32VW55X_Wifi_BLE_SDK/GD32VW55x_RELEASE_V1.0.2/MSDK/plf/GD32VW55x_standard_peripheral/Source\gd32vw55x_cau_aes.c ****     cau_phase_config(CAU_PREPARE_PHASE);
 396:C:/Users/stapi/OneDrive/Desktop/GD32VW553/GD32VW55X_Wifi_BLE_SDK/GD32VW55x_RELEASE_V1.0.2/MSDK/plf/GD32VW55x_standard_peripheral/Source\gd32vw55x_cau_aes.c ****     /* enable the CAU peripheral */
 397:C:/Users/stapi/OneDrive/Desktop/GD32VW553/GD32VW55X_Wifi_BLE_SDK/GD32VW55x_RELEASE_V1.0.2/MSDK/plf/GD32VW55x_standard_peripheral/Source\gd32vw55x_cau_aes.c ****     cau_enable();
 398:C:/Users/stapi/OneDrive/Desktop/GD32VW553/GD32VW55X_Wifi_BLE_SDK/GD32VW55x_RELEASE_V1.0.2/MSDK/plf/GD32VW55x_standard_peripheral/Source\gd32vw55x_cau_aes.c ****     /* wait for CAUEN bit to be 0 */
 399:C:/Users/stapi/OneDrive/Desktop/GD32VW553/GD32VW55X_Wifi_BLE_SDK/GD32VW55x_RELEASE_V1.0.2/MSDK/plf/GD32VW55x_standard_peripheral/Source\gd32vw55x_cau_aes.c ****     while(ENABLE == cau_enable_state_get()) {
 400:C:/Users/stapi/OneDrive/Desktop/GD32VW553/GD32VW55X_Wifi_BLE_SDK/GD32VW55x_RELEASE_V1.0.2/MSDK/plf/GD32VW55x_standard_peripheral/Source\gd32vw55x_cau_aes.c ****     }
 401:C:/Users/stapi/OneDrive/Desktop/GD32VW553/GD32VW55X_Wifi_BLE_SDK/GD32VW55x_RELEASE_V1.0.2/MSDK/plf/GD32VW55x_standard_peripheral/Source\gd32vw55x_cau_aes.c **** 
 402:C:/Users/stapi/OneDrive/Desktop/GD32VW553/GD32VW55X_Wifi_BLE_SDK/GD32VW55x_RELEASE_V1.0.2/MSDK/plf/GD32VW55x_standard_peripheral/Source\gd32vw55x_cau_aes.c ****     /* aad phase */
 403:C:/Users/stapi/OneDrive/Desktop/GD32VW553/GD32VW55X_Wifi_BLE_SDK/GD32VW55x_RELEASE_V1.0.2/MSDK/plf/GD32VW55x_standard_peripheral/Source\gd32vw55x_cau_aes.c ****     if((uint32_t)0U != cau_parameter->aad_size) {
 404:C:/Users/stapi/OneDrive/Desktop/GD32VW553/GD32VW55X_Wifi_BLE_SDK/GD32VW55x_RELEASE_V1.0.2/MSDK/plf/GD32VW55x_standard_peripheral/Source\gd32vw55x_cau_aes.c ****         /* select aad phase */
 405:C:/Users/stapi/OneDrive/Desktop/GD32VW553/GD32VW55X_Wifi_BLE_SDK/GD32VW55x_RELEASE_V1.0.2/MSDK/plf/GD32VW55x_standard_peripheral/Source\gd32vw55x_cau_aes.c ****         cau_phase_config(CAU_AAD_PHASE);
 406:C:/Users/stapi/OneDrive/Desktop/GD32VW553/GD32VW55X_Wifi_BLE_SDK/GD32VW55x_RELEASE_V1.0.2/MSDK/plf/GD32VW55x_standard_peripheral/Source\gd32vw55x_cau_aes.c ****         /* flush the IN and OUT FIFOs */
 407:C:/Users/stapi/OneDrive/Desktop/GD32VW553/GD32VW55X_Wifi_BLE_SDK/GD32VW55x_RELEASE_V1.0.2/MSDK/plf/GD32VW55x_standard_peripheral/Source\gd32vw55x_cau_aes.c ****         cau_fifo_flush();
 408:C:/Users/stapi/OneDrive/Desktop/GD32VW553/GD32VW55X_Wifi_BLE_SDK/GD32VW55x_RELEASE_V1.0.2/MSDK/plf/GD32VW55x_standard_peripheral/Source\gd32vw55x_cau_aes.c ****         /* enable the CAU peripheral */
 409:C:/Users/stapi/OneDrive/Desktop/GD32VW553/GD32VW55X_Wifi_BLE_SDK/GD32VW55x_RELEASE_V1.0.2/MSDK/plf/GD32VW55x_standard_peripheral/Source\gd32vw55x_cau_aes.c ****         cau_enable();
 410:C:/Users/stapi/OneDrive/Desktop/GD32VW553/GD32VW55X_Wifi_BLE_SDK/GD32VW55x_RELEASE_V1.0.2/MSDK/plf/GD32VW55x_standard_peripheral/Source\gd32vw55x_cau_aes.c **** 
 411:C:/Users/stapi/OneDrive/Desktop/GD32VW553/GD32VW55X_Wifi_BLE_SDK/GD32VW55x_RELEASE_V1.0.2/MSDK/plf/GD32VW55x_standard_peripheral/Source\gd32vw55x_cau_aes.c ****         ret = cau_fill_data(cau_parameter->aad, cau_parameter->aad_size);
 412:C:/Users/stapi/OneDrive/Desktop/GD32VW553/GD32VW55X_Wifi_BLE_SDK/GD32VW55x_RELEASE_V1.0.2/MSDK/plf/GD32VW55x_standard_peripheral/Source\gd32vw55x_cau_aes.c **** 
 413:C:/Users/stapi/OneDrive/Desktop/GD32VW553/GD32VW55X_Wifi_BLE_SDK/GD32VW55x_RELEASE_V1.0.2/MSDK/plf/GD32VW55x_standard_peripheral/Source\gd32vw55x_cau_aes.c ****         if(ERROR == ret) {
 414:C:/Users/stapi/OneDrive/Desktop/GD32VW553/GD32VW55X_Wifi_BLE_SDK/GD32VW55x_RELEASE_V1.0.2/MSDK/plf/GD32VW55x_standard_peripheral/Source\gd32vw55x_cau_aes.c ****             return ret;
 415:C:/Users/stapi/OneDrive/Desktop/GD32VW553/GD32VW55X_Wifi_BLE_SDK/GD32VW55x_RELEASE_V1.0.2/MSDK/plf/GD32VW55x_standard_peripheral/Source\gd32vw55x_cau_aes.c ****         }
 416:C:/Users/stapi/OneDrive/Desktop/GD32VW553/GD32VW55X_Wifi_BLE_SDK/GD32VW55x_RELEASE_V1.0.2/MSDK/plf/GD32VW55x_standard_peripheral/Source\gd32vw55x_cau_aes.c ****     }
 417:C:/Users/stapi/OneDrive/Desktop/GD32VW553/GD32VW55X_Wifi_BLE_SDK/GD32VW55x_RELEASE_V1.0.2/MSDK/plf/GD32VW55x_standard_peripheral/Source\gd32vw55x_cau_aes.c **** 
 418:C:/Users/stapi/OneDrive/Desktop/GD32VW553/GD32VW55X_Wifi_BLE_SDK/GD32VW55x_RELEASE_V1.0.2/MSDK/plf/GD32VW55x_standard_peripheral/Source\gd32vw55x_cau_aes.c ****     /* encrypt or dcrypt phase */
 419:C:/Users/stapi/OneDrive/Desktop/GD32VW553/GD32VW55X_Wifi_BLE_SDK/GD32VW55x_RELEASE_V1.0.2/MSDK/plf/GD32VW55x_standard_peripheral/Source\gd32vw55x_cau_aes.c ****     if((uint32_t)0U != cau_parameter->in_length) {
 420:C:/Users/stapi/OneDrive/Desktop/GD32VW553/GD32VW55X_Wifi_BLE_SDK/GD32VW55x_RELEASE_V1.0.2/MSDK/plf/GD32VW55x_standard_peripheral/Source\gd32vw55x_cau_aes.c ****         /* select encrypt or dcrypt phase */
 421:C:/Users/stapi/OneDrive/Desktop/GD32VW553/GD32VW55X_Wifi_BLE_SDK/GD32VW55x_RELEASE_V1.0.2/MSDK/plf/GD32VW55x_standard_peripheral/Source\gd32vw55x_cau_aes.c ****         cau_phase_config(CAU_ENCRYPT_DECRYPT_PHASE);
 422:C:/Users/stapi/OneDrive/Desktop/GD32VW553/GD32VW55X_Wifi_BLE_SDK/GD32VW55x_RELEASE_V1.0.2/MSDK/plf/GD32VW55x_standard_peripheral/Source\gd32vw55x_cau_aes.c ****         /* flush the IN and OUT FIFOs */
 423:C:/Users/stapi/OneDrive/Desktop/GD32VW553/GD32VW55X_Wifi_BLE_SDK/GD32VW55x_RELEASE_V1.0.2/MSDK/plf/GD32VW55x_standard_peripheral/Source\gd32vw55x_cau_aes.c ****         cau_fifo_flush();
 424:C:/Users/stapi/OneDrive/Desktop/GD32VW553/GD32VW55X_Wifi_BLE_SDK/GD32VW55x_RELEASE_V1.0.2/MSDK/plf/GD32VW55x_standard_peripheral/Source\gd32vw55x_cau_aes.c ****         /* enable the CAU peripheral */
 425:C:/Users/stapi/OneDrive/Desktop/GD32VW553/GD32VW55X_Wifi_BLE_SDK/GD32VW55x_RELEASE_V1.0.2/MSDK/plf/GD32VW55x_standard_peripheral/Source\gd32vw55x_cau_aes.c ****         cau_enable();
 426:C:/Users/stapi/OneDrive/Desktop/GD32VW553/GD32VW55X_Wifi_BLE_SDK/GD32VW55x_RELEASE_V1.0.2/MSDK/plf/GD32VW55x_standard_peripheral/Source\gd32vw55x_cau_aes.c **** 
 427:C:/Users/stapi/OneDrive/Desktop/GD32VW553/GD32VW55X_Wifi_BLE_SDK/GD32VW55x_RELEASE_V1.0.2/MSDK/plf/GD32VW55x_standard_peripheral/Source\gd32vw55x_cau_aes.c ****         /* AES calculate process */
 428:C:/Users/stapi/OneDrive/Desktop/GD32VW553/GD32VW55X_Wifi_BLE_SDK/GD32VW55x_RELEASE_V1.0.2/MSDK/plf/GD32VW55x_standard_peripheral/Source\gd32vw55x_cau_aes.c ****         ret = cau_aes_calculate(cau_parameter->input, cau_parameter->in_length, output);
 429:C:/Users/stapi/OneDrive/Desktop/GD32VW553/GD32VW55X_Wifi_BLE_SDK/GD32VW55x_RELEASE_V1.0.2/MSDK/plf/GD32VW55x_standard_peripheral/Source\gd32vw55x_cau_aes.c **** 
 430:C:/Users/stapi/OneDrive/Desktop/GD32VW553/GD32VW55X_Wifi_BLE_SDK/GD32VW55x_RELEASE_V1.0.2/MSDK/plf/GD32VW55x_standard_peripheral/Source\gd32vw55x_cau_aes.c ****         if(ERROR == ret) {
 431:C:/Users/stapi/OneDrive/Desktop/GD32VW553/GD32VW55X_Wifi_BLE_SDK/GD32VW55x_RELEASE_V1.0.2/MSDK/plf/GD32VW55x_standard_peripheral/Source\gd32vw55x_cau_aes.c ****             return ret;
 432:C:/Users/stapi/OneDrive/Desktop/GD32VW553/GD32VW55X_Wifi_BLE_SDK/GD32VW55x_RELEASE_V1.0.2/MSDK/plf/GD32VW55x_standard_peripheral/Source\gd32vw55x_cau_aes.c ****         }
 433:C:/Users/stapi/OneDrive/Desktop/GD32VW553/GD32VW55X_Wifi_BLE_SDK/GD32VW55x_RELEASE_V1.0.2/MSDK/plf/GD32VW55x_standard_peripheral/Source\gd32vw55x_cau_aes.c ****     }
 434:C:/Users/stapi/OneDrive/Desktop/GD32VW553/GD32VW55X_Wifi_BLE_SDK/GD32VW55x_RELEASE_V1.0.2/MSDK/plf/GD32VW55x_standard_peripheral/Source\gd32vw55x_cau_aes.c **** 
 435:C:/Users/stapi/OneDrive/Desktop/GD32VW553/GD32VW55X_Wifi_BLE_SDK/GD32VW55x_RELEASE_V1.0.2/MSDK/plf/GD32VW55x_standard_peripheral/Source\gd32vw55x_cau_aes.c ****     /* tag phase */
 436:C:/Users/stapi/OneDrive/Desktop/GD32VW553/GD32VW55X_Wifi_BLE_SDK/GD32VW55x_RELEASE_V1.0.2/MSDK/plf/GD32VW55x_standard_peripheral/Source\gd32vw55x_cau_aes.c ****     /* select tag phase */
 437:C:/Users/stapi/OneDrive/Desktop/GD32VW553/GD32VW55X_Wifi_BLE_SDK/GD32VW55x_RELEASE_V1.0.2/MSDK/plf/GD32VW55x_standard_peripheral/Source\gd32vw55x_cau_aes.c ****     cau_phase_config(CAU_TAG_PHASE);
 438:C:/Users/stapi/OneDrive/Desktop/GD32VW553/GD32VW55X_Wifi_BLE_SDK/GD32VW55x_RELEASE_V1.0.2/MSDK/plf/GD32VW55x_standard_peripheral/Source\gd32vw55x_cau_aes.c ****     /* flush the IN and OUT FIFOs */
 439:C:/Users/stapi/OneDrive/Desktop/GD32VW553/GD32VW55X_Wifi_BLE_SDK/GD32VW55x_RELEASE_V1.0.2/MSDK/plf/GD32VW55x_standard_peripheral/Source\gd32vw55x_cau_aes.c ****     cau_fifo_flush();
 440:C:/Users/stapi/OneDrive/Desktop/GD32VW553/GD32VW55X_Wifi_BLE_SDK/GD32VW55x_RELEASE_V1.0.2/MSDK/plf/GD32VW55x_standard_peripheral/Source\gd32vw55x_cau_aes.c ****     /* enable the CAU peripheral */
 441:C:/Users/stapi/OneDrive/Desktop/GD32VW553/GD32VW55X_Wifi_BLE_SDK/GD32VW55x_RELEASE_V1.0.2/MSDK/plf/GD32VW55x_standard_peripheral/Source\gd32vw55x_cau_aes.c ****     cau_enable();
 442:C:/Users/stapi/OneDrive/Desktop/GD32VW553/GD32VW55X_Wifi_BLE_SDK/GD32VW55x_RELEASE_V1.0.2/MSDK/plf/GD32VW55x_standard_peripheral/Source\gd32vw55x_cau_aes.c **** 
 443:C:/Users/stapi/OneDrive/Desktop/GD32VW553/GD32VW55X_Wifi_BLE_SDK/GD32VW55x_RELEASE_V1.0.2/MSDK/plf/GD32VW55x_standard_peripheral/Source\gd32vw55x_cau_aes.c ****     if(DISABLE == cau_enable_state_get()) {
 444:C:/Users/stapi/OneDrive/Desktop/GD32VW553/GD32VW55X_Wifi_BLE_SDK/GD32VW55x_RELEASE_V1.0.2/MSDK/plf/GD32VW55x_standard_peripheral/Source\gd32vw55x_cau_aes.c ****         return ERROR;
 445:C:/Users/stapi/OneDrive/Desktop/GD32VW553/GD32VW55X_Wifi_BLE_SDK/GD32VW55x_RELEASE_V1.0.2/MSDK/plf/GD32VW55x_standard_peripheral/Source\gd32vw55x_cau_aes.c ****     }
 446:C:/Users/stapi/OneDrive/Desktop/GD32VW553/GD32VW55X_Wifi_BLE_SDK/GD32VW55x_RELEASE_V1.0.2/MSDK/plf/GD32VW55x_standard_peripheral/Source\gd32vw55x_cau_aes.c **** 
 447:C:/Users/stapi/OneDrive/Desktop/GD32VW553/GD32VW55X_Wifi_BLE_SDK/GD32VW55x_RELEASE_V1.0.2/MSDK/plf/GD32VW55x_standard_peripheral/Source\gd32vw55x_cau_aes.c ****     cau_data_write(__REV((uint32_t)(aadlength >> 32U)));
 448:C:/Users/stapi/OneDrive/Desktop/GD32VW553/GD32VW55X_Wifi_BLE_SDK/GD32VW55x_RELEASE_V1.0.2/MSDK/plf/GD32VW55x_standard_peripheral/Source\gd32vw55x_cau_aes.c ****     cau_data_write(__REV((uint32_t)aadlength));
 449:C:/Users/stapi/OneDrive/Desktop/GD32VW553/GD32VW55X_Wifi_BLE_SDK/GD32VW55x_RELEASE_V1.0.2/MSDK/plf/GD32VW55x_standard_peripheral/Source\gd32vw55x_cau_aes.c ****     cau_data_write(__REV((uint32_t)(inputlength >> 32U)));
 450:C:/Users/stapi/OneDrive/Desktop/GD32VW553/GD32VW55X_Wifi_BLE_SDK/GD32VW55x_RELEASE_V1.0.2/MSDK/plf/GD32VW55x_standard_peripheral/Source\gd32vw55x_cau_aes.c ****     cau_data_write(__REV((uint32_t)inputlength));
 451:C:/Users/stapi/OneDrive/Desktop/GD32VW553/GD32VW55X_Wifi_BLE_SDK/GD32VW55x_RELEASE_V1.0.2/MSDK/plf/GD32VW55x_standard_peripheral/Source\gd32vw55x_cau_aes.c **** 
 452:C:/Users/stapi/OneDrive/Desktop/GD32VW553/GD32VW55X_Wifi_BLE_SDK/GD32VW55x_RELEASE_V1.0.2/MSDK/plf/GD32VW55x_standard_peripheral/Source\gd32vw55x_cau_aes.c ****     /* wait until the ONE flag is set */
 453:C:/Users/stapi/OneDrive/Desktop/GD32VW553/GD32VW55X_Wifi_BLE_SDK/GD32VW55x_RELEASE_V1.0.2/MSDK/plf/GD32VW55x_standard_peripheral/Source\gd32vw55x_cau_aes.c ****     while(RESET == cau_flag_get(CAU_FLAG_OUTFIFO_NO_EMPTY)) {
 454:C:/Users/stapi/OneDrive/Desktop/GD32VW553/GD32VW55X_Wifi_BLE_SDK/GD32VW55x_RELEASE_V1.0.2/MSDK/plf/GD32VW55x_standard_peripheral/Source\gd32vw55x_cau_aes.c ****     }
 455:C:/Users/stapi/OneDrive/Desktop/GD32VW553/GD32VW55X_Wifi_BLE_SDK/GD32VW55x_RELEASE_V1.0.2/MSDK/plf/GD32VW55x_standard_peripheral/Source\gd32vw55x_cau_aes.c **** 
 456:C:/Users/stapi/OneDrive/Desktop/GD32VW553/GD32VW55X_Wifi_BLE_SDK/GD32VW55x_RELEASE_V1.0.2/MSDK/plf/GD32VW55x_standard_peripheral/Source\gd32vw55x_cau_aes.c ****     /* read the tag in the OUT FIFO */
 457:C:/Users/stapi/OneDrive/Desktop/GD32VW553/GD32VW55X_Wifi_BLE_SDK/GD32VW55x_RELEASE_V1.0.2/MSDK/plf/GD32VW55x_standard_peripheral/Source\gd32vw55x_cau_aes.c ****     *(uint32_t *)(tagaddr) = cau_data_read();
 458:C:/Users/stapi/OneDrive/Desktop/GD32VW553/GD32VW55X_Wifi_BLE_SDK/GD32VW55x_RELEASE_V1.0.2/MSDK/plf/GD32VW55x_standard_peripheral/Source\gd32vw55x_cau_aes.c ****     tagaddr += 4U;
 459:C:/Users/stapi/OneDrive/Desktop/GD32VW553/GD32VW55X_Wifi_BLE_SDK/GD32VW55x_RELEASE_V1.0.2/MSDK/plf/GD32VW55x_standard_peripheral/Source\gd32vw55x_cau_aes.c ****     *(uint32_t *)(tagaddr) = cau_data_read();
 460:C:/Users/stapi/OneDrive/Desktop/GD32VW553/GD32VW55X_Wifi_BLE_SDK/GD32VW55x_RELEASE_V1.0.2/MSDK/plf/GD32VW55x_standard_peripheral/Source\gd32vw55x_cau_aes.c ****     tagaddr += 4U;
 461:C:/Users/stapi/OneDrive/Desktop/GD32VW553/GD32VW55X_Wifi_BLE_SDK/GD32VW55x_RELEASE_V1.0.2/MSDK/plf/GD32VW55x_standard_peripheral/Source\gd32vw55x_cau_aes.c ****     *(uint32_t *)(tagaddr) = cau_data_read();
 462:C:/Users/stapi/OneDrive/Desktop/GD32VW553/GD32VW55X_Wifi_BLE_SDK/GD32VW55x_RELEASE_V1.0.2/MSDK/plf/GD32VW55x_standard_peripheral/Source\gd32vw55x_cau_aes.c ****     tagaddr += 4U;
 463:C:/Users/stapi/OneDrive/Desktop/GD32VW553/GD32VW55X_Wifi_BLE_SDK/GD32VW55x_RELEASE_V1.0.2/MSDK/plf/GD32VW55x_standard_peripheral/Source\gd32vw55x_cau_aes.c ****     *(uint32_t *)(tagaddr) = cau_data_read();
 464:C:/Users/stapi/OneDrive/Desktop/GD32VW553/GD32VW55X_Wifi_BLE_SDK/GD32VW55x_RELEASE_V1.0.2/MSDK/plf/GD32VW55x_standard_peripheral/Source\gd32vw55x_cau_aes.c ****     tagaddr += 4U;
 465:C:/Users/stapi/OneDrive/Desktop/GD32VW553/GD32VW55X_Wifi_BLE_SDK/GD32VW55x_RELEASE_V1.0.2/MSDK/plf/GD32VW55x_standard_peripheral/Source\gd32vw55x_cau_aes.c **** 
 466:C:/Users/stapi/OneDrive/Desktop/GD32VW553/GD32VW55X_Wifi_BLE_SDK/GD32VW55x_RELEASE_V1.0.2/MSDK/plf/GD32VW55x_standard_peripheral/Source\gd32vw55x_cau_aes.c ****     /* disable the CAU peripheral */
 467:C:/Users/stapi/OneDrive/Desktop/GD32VW553/GD32VW55X_Wifi_BLE_SDK/GD32VW55x_RELEASE_V1.0.2/MSDK/plf/GD32VW55x_standard_peripheral/Source\gd32vw55x_cau_aes.c ****     cau_disable();
 468:C:/Users/stapi/OneDrive/Desktop/GD32VW553/GD32VW55X_Wifi_BLE_SDK/GD32VW55x_RELEASE_V1.0.2/MSDK/plf/GD32VW55x_standard_peripheral/Source\gd32vw55x_cau_aes.c **** 
 469:C:/Users/stapi/OneDrive/Desktop/GD32VW553/GD32VW55X_Wifi_BLE_SDK/GD32VW55x_RELEASE_V1.0.2/MSDK/plf/GD32VW55x_standard_peripheral/Source\gd32vw55x_cau_aes.c ****     return ret;
 470:C:/Users/stapi/OneDrive/Desktop/GD32VW553/GD32VW55X_Wifi_BLE_SDK/GD32VW55x_RELEASE_V1.0.2/MSDK/plf/GD32VW55x_standard_peripheral/Source\gd32vw55x_cau_aes.c **** }
 471:C:/Users/stapi/OneDrive/Desktop/GD32VW553/GD32VW55X_Wifi_BLE_SDK/GD32VW55x_RELEASE_V1.0.2/MSDK/plf/GD32VW55x_standard_peripheral/Source\gd32vw55x_cau_aes.c **** 
 472:C:/Users/stapi/OneDrive/Desktop/GD32VW553/GD32VW55X_Wifi_BLE_SDK/GD32VW55x_RELEASE_V1.0.2/MSDK/plf/GD32VW55x_standard_peripheral/Source\gd32vw55x_cau_aes.c **** /*!
 473:C:/Users/stapi/OneDrive/Desktop/GD32VW553/GD32VW55X_Wifi_BLE_SDK/GD32VW55x_RELEASE_V1.0.2/MSDK/plf/GD32VW55x_standard_peripheral/Source\gd32vw55x_cau_aes.c ****     \brief      encrypt and decrypt using AES in CCM mode
 474:C:/Users/stapi/OneDrive/Desktop/GD32VW553/GD32VW55X_Wifi_BLE_SDK/GD32VW55x_RELEASE_V1.0.2/MSDK/plf/GD32VW55x_standard_peripheral/Source\gd32vw55x_cau_aes.c ****     \param[in]  cau_parameter: pointer to the input structure
 475:C:/Users/stapi/OneDrive/Desktop/GD32VW553/GD32VW55X_Wifi_BLE_SDK/GD32VW55x_RELEASE_V1.0.2/MSDK/plf/GD32VW55x_standard_peripheral/Source\gd32vw55x_cau_aes.c ****                   alg_dir: algorithm direction
 476:C:/Users/stapi/OneDrive/Desktop/GD32VW553/GD32VW55X_Wifi_BLE_SDK/GD32VW55x_RELEASE_V1.0.2/MSDK/plf/GD32VW55x_standard_peripheral/Source\gd32vw55x_cau_aes.c ****                     CAU_ENCRYPT, CAU_DECRYPT
 477:C:/Users/stapi/OneDrive/Desktop/GD32VW553/GD32VW55X_Wifi_BLE_SDK/GD32VW55x_RELEASE_V1.0.2/MSDK/plf/GD32VW55x_standard_peripheral/Source\gd32vw55x_cau_aes.c ****                   key: key
 478:C:/Users/stapi/OneDrive/Desktop/GD32VW553/GD32VW55X_Wifi_BLE_SDK/GD32VW55x_RELEASE_V1.0.2/MSDK/plf/GD32VW55x_standard_peripheral/Source\gd32vw55x_cau_aes.c ****                   key_size: key size in bytes
 479:C:/Users/stapi/OneDrive/Desktop/GD32VW553/GD32VW55X_Wifi_BLE_SDK/GD32VW55x_RELEASE_V1.0.2/MSDK/plf/GD32VW55x_standard_peripheral/Source\gd32vw55x_cau_aes.c ****                   iv: initialization vector
 480:C:/Users/stapi/OneDrive/Desktop/GD32VW553/GD32VW55X_Wifi_BLE_SDK/GD32VW55x_RELEASE_V1.0.2/MSDK/plf/GD32VW55x_standard_peripheral/Source\gd32vw55x_cau_aes.c ****                   iv_size: iv size in bytes
 481:C:/Users/stapi/OneDrive/Desktop/GD32VW553/GD32VW55X_Wifi_BLE_SDK/GD32VW55x_RELEASE_V1.0.2/MSDK/plf/GD32VW55x_standard_peripheral/Source\gd32vw55x_cau_aes.c ****                   input: input data
 482:C:/Users/stapi/OneDrive/Desktop/GD32VW553/GD32VW55X_Wifi_BLE_SDK/GD32VW55x_RELEASE_V1.0.2/MSDK/plf/GD32VW55x_standard_peripheral/Source\gd32vw55x_cau_aes.c ****                   in_length: input data length in bytes
 483:C:/Users/stapi/OneDrive/Desktop/GD32VW553/GD32VW55X_Wifi_BLE_SDK/GD32VW55x_RELEASE_V1.0.2/MSDK/plf/GD32VW55x_standard_peripheral/Source\gd32vw55x_cau_aes.c ****                   aad: additional authentication data
 484:C:/Users/stapi/OneDrive/Desktop/GD32VW553/GD32VW55X_Wifi_BLE_SDK/GD32VW55x_RELEASE_V1.0.2/MSDK/plf/GD32VW55x_standard_peripheral/Source\gd32vw55x_cau_aes.c ****                   aad_size: aad size
 485:C:/Users/stapi/OneDrive/Desktop/GD32VW553/GD32VW55X_Wifi_BLE_SDK/GD32VW55x_RELEASE_V1.0.2/MSDK/plf/GD32VW55x_standard_peripheral/Source\gd32vw55x_cau_aes.c ****     \param[in]  mac_size: mac size (in bytes)
 486:C:/Users/stapi/OneDrive/Desktop/GD32VW553/GD32VW55X_Wifi_BLE_SDK/GD32VW55x_RELEASE_V1.0.2/MSDK/plf/GD32VW55x_standard_peripheral/Source\gd32vw55x_cau_aes.c ****     \param[out] output: pointer to the returned output data buffer
 487:C:/Users/stapi/OneDrive/Desktop/GD32VW553/GD32VW55X_Wifi_BLE_SDK/GD32VW55x_RELEASE_V1.0.2/MSDK/plf/GD32VW55x_standard_peripheral/Source\gd32vw55x_cau_aes.c ****     \param[out] tag: pointer to the returned tag buffer
 488:C:/Users/stapi/OneDrive/Desktop/GD32VW553/GD32VW55X_Wifi_BLE_SDK/GD32VW55x_RELEASE_V1.0.2/MSDK/plf/GD32VW55x_standard_peripheral/Source\gd32vw55x_cau_aes.c ****     \param[out] aad_buf: pointer to the user buffer used when formatting aad block
 489:C:/Users/stapi/OneDrive/Desktop/GD32VW553/GD32VW55X_Wifi_BLE_SDK/GD32VW55x_RELEASE_V1.0.2/MSDK/plf/GD32VW55x_standard_peripheral/Source\gd32vw55x_cau_aes.c ****     \retval     ErrStatus: SUCCESS or ERROR
 490:C:/Users/stapi/OneDrive/Desktop/GD32VW553/GD32VW55X_Wifi_BLE_SDK/GD32VW55x_RELEASE_V1.0.2/MSDK/plf/GD32VW55x_standard_peripheral/Source\gd32vw55x_cau_aes.c **** */
 491:C:/Users/stapi/OneDrive/Desktop/GD32VW553/GD32VW55X_Wifi_BLE_SDK/GD32VW55x_RELEASE_V1.0.2/MSDK/plf/GD32VW55x_standard_peripheral/Source\gd32vw55x_cau_aes.c **** ErrStatus cau_aes_ccm(cau_parameter_struct *cau_parameter, uint8_t *output, uint8_t tag[], uint32_t
 492:C:/Users/stapi/OneDrive/Desktop/GD32VW553/GD32VW55X_Wifi_BLE_SDK/GD32VW55x_RELEASE_V1.0.2/MSDK/plf/GD32VW55x_standard_peripheral/Source\gd32vw55x_cau_aes.c **** {
 493:C:/Users/stapi/OneDrive/Desktop/GD32VW553/GD32VW55X_Wifi_BLE_SDK/GD32VW55x_RELEASE_V1.0.2/MSDK/plf/GD32VW55x_standard_peripheral/Source\gd32vw55x_cau_aes.c ****     cau_key_parameter_struct key_initpara;
 494:C:/Users/stapi/OneDrive/Desktop/GD32VW553/GD32VW55X_Wifi_BLE_SDK/GD32VW55x_RELEASE_V1.0.2/MSDK/plf/GD32VW55x_standard_peripheral/Source\gd32vw55x_cau_aes.c ****     cau_iv_parameter_struct iv_initpara;
 495:C:/Users/stapi/OneDrive/Desktop/GD32VW553/GD32VW55X_Wifi_BLE_SDK/GD32VW55x_RELEASE_V1.0.2/MSDK/plf/GD32VW55x_standard_peripheral/Source\gd32vw55x_cau_aes.c ****     ErrStatus ret = ERROR;
 496:C:/Users/stapi/OneDrive/Desktop/GD32VW553/GD32VW55X_Wifi_BLE_SDK/GD32VW55x_RELEASE_V1.0.2/MSDK/plf/GD32VW55x_standard_peripheral/Source\gd32vw55x_cau_aes.c ****     uint32_t inputaddr  = (uint32_t)cau_parameter->input;
 497:C:/Users/stapi/OneDrive/Desktop/GD32VW553/GD32VW55X_Wifi_BLE_SDK/GD32VW55x_RELEASE_V1.0.2/MSDK/plf/GD32VW55x_standard_peripheral/Source\gd32vw55x_cau_aes.c ****     uint32_t inputsize = cau_parameter->in_length;
 498:C:/Users/stapi/OneDrive/Desktop/GD32VW553/GD32VW55X_Wifi_BLE_SDK/GD32VW55x_RELEASE_V1.0.2/MSDK/plf/GD32VW55x_standard_peripheral/Source\gd32vw55x_cau_aes.c ****     uint32_t aadaddr = (uint32_t)cau_parameter->aad;
 499:C:/Users/stapi/OneDrive/Desktop/GD32VW553/GD32VW55X_Wifi_BLE_SDK/GD32VW55x_RELEASE_V1.0.2/MSDK/plf/GD32VW55x_standard_peripheral/Source\gd32vw55x_cau_aes.c ****     uint32_t aadsize = cau_parameter->aad_size;
 500:C:/Users/stapi/OneDrive/Desktop/GD32VW553/GD32VW55X_Wifi_BLE_SDK/GD32VW55x_RELEASE_V1.0.2/MSDK/plf/GD32VW55x_standard_peripheral/Source\gd32vw55x_cau_aes.c ****     uint32_t aad_block_size = 0U;
 501:C:/Users/stapi/OneDrive/Desktop/GD32VW553/GD32VW55X_Wifi_BLE_SDK/GD32VW55x_RELEASE_V1.0.2/MSDK/plf/GD32VW55x_standard_peripheral/Source\gd32vw55x_cau_aes.c ****     uint32_t ivaddr = (uint32_t)cau_parameter->iv;
 502:C:/Users/stapi/OneDrive/Desktop/GD32VW553/GD32VW55X_Wifi_BLE_SDK/GD32VW55x_RELEASE_V1.0.2/MSDK/plf/GD32VW55x_standard_peripheral/Source\gd32vw55x_cau_aes.c ****     uint32_t ivsize = cau_parameter->iv_size;
 503:C:/Users/stapi/OneDrive/Desktop/GD32VW553/GD32VW55X_Wifi_BLE_SDK/GD32VW55x_RELEASE_V1.0.2/MSDK/plf/GD32VW55x_standard_peripheral/Source\gd32vw55x_cau_aes.c ****     uint32_t outputaddr = (uint32_t)output;
 504:C:/Users/stapi/OneDrive/Desktop/GD32VW553/GD32VW55X_Wifi_BLE_SDK/GD32VW55x_RELEASE_V1.0.2/MSDK/plf/GD32VW55x_standard_peripheral/Source\gd32vw55x_cau_aes.c ****     uint32_t i = 0U, plen = 0U;
 505:C:/Users/stapi/OneDrive/Desktop/GD32VW553/GD32VW55X_Wifi_BLE_SDK/GD32VW55x_RELEASE_V1.0.2/MSDK/plf/GD32VW55x_standard_peripheral/Source\gd32vw55x_cau_aes.c ****     uint32_t head_index = 0U;
 506:C:/Users/stapi/OneDrive/Desktop/GD32VW553/GD32VW55X_Wifi_BLE_SDK/GD32VW55x_RELEASE_V1.0.2/MSDK/plf/GD32VW55x_standard_peripheral/Source\gd32vw55x_cau_aes.c ****     uint8_t blockb0[16U] = {0U};
 507:C:/Users/stapi/OneDrive/Desktop/GD32VW553/GD32VW55X_Wifi_BLE_SDK/GD32VW55x_RELEASE_V1.0.2/MSDK/plf/GD32VW55x_standard_peripheral/Source\gd32vw55x_cau_aes.c ****     uint8_t counter[16U] = {0U};
 508:C:/Users/stapi/OneDrive/Desktop/GD32VW553/GD32VW55X_Wifi_BLE_SDK/GD32VW55x_RELEASE_V1.0.2/MSDK/plf/GD32VW55x_standard_peripheral/Source\gd32vw55x_cau_aes.c ****     uint32_t ctraddr = (uint32_t)counter;
 509:C:/Users/stapi/OneDrive/Desktop/GD32VW553/GD32VW55X_Wifi_BLE_SDK/GD32VW55x_RELEASE_V1.0.2/MSDK/plf/GD32VW55x_standard_peripheral/Source\gd32vw55x_cau_aes.c ****     uint32_t b0addr = (uint32_t)blockb0;
 510:C:/Users/stapi/OneDrive/Desktop/GD32VW553/GD32VW55X_Wifi_BLE_SDK/GD32VW55x_RELEASE_V1.0.2/MSDK/plf/GD32VW55x_standard_peripheral/Source\gd32vw55x_cau_aes.c ****     uint32_t temp_tag[4U];
 511:C:/Users/stapi/OneDrive/Desktop/GD32VW553/GD32VW55X_Wifi_BLE_SDK/GD32VW55x_RELEASE_V1.0.2/MSDK/plf/GD32VW55x_standard_peripheral/Source\gd32vw55x_cau_aes.c **** 
 512:C:/Users/stapi/OneDrive/Desktop/GD32VW553/GD32VW55X_Wifi_BLE_SDK/GD32VW55x_RELEASE_V1.0.2/MSDK/plf/GD32VW55x_standard_peripheral/Source\gd32vw55x_cau_aes.c ****     /* formatting the aad block */
 513:C:/Users/stapi/OneDrive/Desktop/GD32VW553/GD32VW55X_Wifi_BLE_SDK/GD32VW55x_RELEASE_V1.0.2/MSDK/plf/GD32VW55x_standard_peripheral/Source\gd32vw55x_cau_aes.c ****     if((uint32_t)0U != aadsize) {
 514:C:/Users/stapi/OneDrive/Desktop/GD32VW553/GD32VW55X_Wifi_BLE_SDK/GD32VW55x_RELEASE_V1.0.2/MSDK/plf/GD32VW55x_standard_peripheral/Source\gd32vw55x_cau_aes.c ****         /* check that the aad length is lower than 2^16 - 2^8 = 65536 - 256 = 65280 */
 515:C:/Users/stapi/OneDrive/Desktop/GD32VW553/GD32VW55X_Wifi_BLE_SDK/GD32VW55x_RELEASE_V1.0.2/MSDK/plf/GD32VW55x_standard_peripheral/Source\gd32vw55x_cau_aes.c ****         if(aadsize < 65280U) {
 516:C:/Users/stapi/OneDrive/Desktop/GD32VW553/GD32VW55X_Wifi_BLE_SDK/GD32VW55x_RELEASE_V1.0.2/MSDK/plf/GD32VW55x_standard_peripheral/Source\gd32vw55x_cau_aes.c ****             aad_buf[head_index++] = (uint8_t)((aadsize >> 8U) & 0xFFU);
 517:C:/Users/stapi/OneDrive/Desktop/GD32VW553/GD32VW55X_Wifi_BLE_SDK/GD32VW55x_RELEASE_V1.0.2/MSDK/plf/GD32VW55x_standard_peripheral/Source\gd32vw55x_cau_aes.c ****             aad_buf[head_index++] = (uint8_t)((aadsize) & 0xFFU);
 518:C:/Users/stapi/OneDrive/Desktop/GD32VW553/GD32VW55X_Wifi_BLE_SDK/GD32VW55x_RELEASE_V1.0.2/MSDK/plf/GD32VW55x_standard_peripheral/Source\gd32vw55x_cau_aes.c ****             aad_block_size = aadsize + 2U;
 519:C:/Users/stapi/OneDrive/Desktop/GD32VW553/GD32VW55X_Wifi_BLE_SDK/GD32VW55x_RELEASE_V1.0.2/MSDK/plf/GD32VW55x_standard_peripheral/Source\gd32vw55x_cau_aes.c ****         } else {
 520:C:/Users/stapi/OneDrive/Desktop/GD32VW553/GD32VW55X_Wifi_BLE_SDK/GD32VW55x_RELEASE_V1.0.2/MSDK/plf/GD32VW55x_standard_peripheral/Source\gd32vw55x_cau_aes.c ****             /* aad is encoded as 0xFF || 0xFE || [aadsize]32, i.e., six octets */
 521:C:/Users/stapi/OneDrive/Desktop/GD32VW553/GD32VW55X_Wifi_BLE_SDK/GD32VW55x_RELEASE_V1.0.2/MSDK/plf/GD32VW55x_standard_peripheral/Source\gd32vw55x_cau_aes.c ****             aad_buf[head_index++] = 0xFFU;
 522:C:/Users/stapi/OneDrive/Desktop/GD32VW553/GD32VW55X_Wifi_BLE_SDK/GD32VW55x_RELEASE_V1.0.2/MSDK/plf/GD32VW55x_standard_peripheral/Source\gd32vw55x_cau_aes.c ****             aad_buf[head_index++] = 0xFEU;
 523:C:/Users/stapi/OneDrive/Desktop/GD32VW553/GD32VW55X_Wifi_BLE_SDK/GD32VW55x_RELEASE_V1.0.2/MSDK/plf/GD32VW55x_standard_peripheral/Source\gd32vw55x_cau_aes.c ****             aad_buf[head_index++] = (uint8_t)((aadsize & 0xFF000000U) >> 24U);
 524:C:/Users/stapi/OneDrive/Desktop/GD32VW553/GD32VW55X_Wifi_BLE_SDK/GD32VW55x_RELEASE_V1.0.2/MSDK/plf/GD32VW55x_standard_peripheral/Source\gd32vw55x_cau_aes.c ****             aad_buf[head_index++] = (uint8_t)((aadsize & 0x00FF0000U) >> 16U);
 525:C:/Users/stapi/OneDrive/Desktop/GD32VW553/GD32VW55X_Wifi_BLE_SDK/GD32VW55x_RELEASE_V1.0.2/MSDK/plf/GD32VW55x_standard_peripheral/Source\gd32vw55x_cau_aes.c ****             aad_buf[head_index++] = (uint8_t)((aadsize & 0x0000FF00U) >> 8U);
 526:C:/Users/stapi/OneDrive/Desktop/GD32VW553/GD32VW55X_Wifi_BLE_SDK/GD32VW55x_RELEASE_V1.0.2/MSDK/plf/GD32VW55x_standard_peripheral/Source\gd32vw55x_cau_aes.c ****             aad_buf[head_index++] = (uint8_t)(aadsize & 0x000000FFU);
 527:C:/Users/stapi/OneDrive/Desktop/GD32VW553/GD32VW55X_Wifi_BLE_SDK/GD32VW55x_RELEASE_V1.0.2/MSDK/plf/GD32VW55x_standard_peripheral/Source\gd32vw55x_cau_aes.c ****             aad_block_size = aadsize + 6U;
 528:C:/Users/stapi/OneDrive/Desktop/GD32VW553/GD32VW55X_Wifi_BLE_SDK/GD32VW55x_RELEASE_V1.0.2/MSDK/plf/GD32VW55x_standard_peripheral/Source\gd32vw55x_cau_aes.c ****         }
 529:C:/Users/stapi/OneDrive/Desktop/GD32VW553/GD32VW55X_Wifi_BLE_SDK/GD32VW55x_RELEASE_V1.0.2/MSDK/plf/GD32VW55x_standard_peripheral/Source\gd32vw55x_cau_aes.c ****         /* copy the aad buffer in internal buffer "HBuffer" */
 530:C:/Users/stapi/OneDrive/Desktop/GD32VW553/GD32VW55X_Wifi_BLE_SDK/GD32VW55x_RELEASE_V1.0.2/MSDK/plf/GD32VW55x_standard_peripheral/Source\gd32vw55x_cau_aes.c ****         for(i = 0U; i < aadsize; i++) {
 531:C:/Users/stapi/OneDrive/Desktop/GD32VW553/GD32VW55X_Wifi_BLE_SDK/GD32VW55x_RELEASE_V1.0.2/MSDK/plf/GD32VW55x_standard_peripheral/Source\gd32vw55x_cau_aes.c ****             aad_buf[head_index++] = *(uint8_t *)((uint32_t)(aadaddr + i));
 532:C:/Users/stapi/OneDrive/Desktop/GD32VW553/GD32VW55X_Wifi_BLE_SDK/GD32VW55x_RELEASE_V1.0.2/MSDK/plf/GD32VW55x_standard_peripheral/Source\gd32vw55x_cau_aes.c ****         }
 533:C:/Users/stapi/OneDrive/Desktop/GD32VW553/GD32VW55X_Wifi_BLE_SDK/GD32VW55x_RELEASE_V1.0.2/MSDK/plf/GD32VW55x_standard_peripheral/Source\gd32vw55x_cau_aes.c ****         /* check if the aad block size is modulo 16 */
 534:C:/Users/stapi/OneDrive/Desktop/GD32VW553/GD32VW55X_Wifi_BLE_SDK/GD32VW55x_RELEASE_V1.0.2/MSDK/plf/GD32VW55x_standard_peripheral/Source\gd32vw55x_cau_aes.c ****         if(0U != (aad_block_size % 16U)) {
 535:C:/Users/stapi/OneDrive/Desktop/GD32VW553/GD32VW55X_Wifi_BLE_SDK/GD32VW55x_RELEASE_V1.0.2/MSDK/plf/GD32VW55x_standard_peripheral/Source\gd32vw55x_cau_aes.c ****             /* Padd the aad buffer with 0s till the HBuffer length is modulo 16 */
 536:C:/Users/stapi/OneDrive/Desktop/GD32VW553/GD32VW55X_Wifi_BLE_SDK/GD32VW55x_RELEASE_V1.0.2/MSDK/plf/GD32VW55x_standard_peripheral/Source\gd32vw55x_cau_aes.c ****             for(i = aad_block_size; i <= ((aad_block_size / 16U) + 1U) * 16U; i++) {
 537:C:/Users/stapi/OneDrive/Desktop/GD32VW553/GD32VW55X_Wifi_BLE_SDK/GD32VW55x_RELEASE_V1.0.2/MSDK/plf/GD32VW55x_standard_peripheral/Source\gd32vw55x_cau_aes.c ****                 aad_buf[i] = 0U;
 538:C:/Users/stapi/OneDrive/Desktop/GD32VW553/GD32VW55X_Wifi_BLE_SDK/GD32VW55x_RELEASE_V1.0.2/MSDK/plf/GD32VW55x_standard_peripheral/Source\gd32vw55x_cau_aes.c ****             }
 539:C:/Users/stapi/OneDrive/Desktop/GD32VW553/GD32VW55X_Wifi_BLE_SDK/GD32VW55x_RELEASE_V1.0.2/MSDK/plf/GD32VW55x_standard_peripheral/Source\gd32vw55x_cau_aes.c ****             /* set the aad size to modulo 16 */
 540:C:/Users/stapi/OneDrive/Desktop/GD32VW553/GD32VW55X_Wifi_BLE_SDK/GD32VW55x_RELEASE_V1.0.2/MSDK/plf/GD32VW55x_standard_peripheral/Source\gd32vw55x_cau_aes.c ****             aad_block_size = ((aad_block_size / 16U) + 1U) * 16U;
 541:C:/Users/stapi/OneDrive/Desktop/GD32VW553/GD32VW55X_Wifi_BLE_SDK/GD32VW55x_RELEASE_V1.0.2/MSDK/plf/GD32VW55x_standard_peripheral/Source\gd32vw55x_cau_aes.c ****         }
 542:C:/Users/stapi/OneDrive/Desktop/GD32VW553/GD32VW55X_Wifi_BLE_SDK/GD32VW55x_RELEASE_V1.0.2/MSDK/plf/GD32VW55x_standard_peripheral/Source\gd32vw55x_cau_aes.c ****         /* set the pointer aadaddr to HBuffer */
 543:C:/Users/stapi/OneDrive/Desktop/GD32VW553/GD32VW55X_Wifi_BLE_SDK/GD32VW55x_RELEASE_V1.0.2/MSDK/plf/GD32VW55x_standard_peripheral/Source\gd32vw55x_cau_aes.c ****         aadaddr = (uint32_t)aad_buf;
 544:C:/Users/stapi/OneDrive/Desktop/GD32VW553/GD32VW55X_Wifi_BLE_SDK/GD32VW55x_RELEASE_V1.0.2/MSDK/plf/GD32VW55x_standard_peripheral/Source\gd32vw55x_cau_aes.c ****     }
 545:C:/Users/stapi/OneDrive/Desktop/GD32VW553/GD32VW55X_Wifi_BLE_SDK/GD32VW55x_RELEASE_V1.0.2/MSDK/plf/GD32VW55x_standard_peripheral/Source\gd32vw55x_cau_aes.c **** 
 546:C:/Users/stapi/OneDrive/Desktop/GD32VW553/GD32VW55X_Wifi_BLE_SDK/GD32VW55x_RELEASE_V1.0.2/MSDK/plf/GD32VW55x_standard_peripheral/Source\gd32vw55x_cau_aes.c ****     /* formatting the block B0 */
 547:C:/Users/stapi/OneDrive/Desktop/GD32VW553/GD32VW55X_Wifi_BLE_SDK/GD32VW55x_RELEASE_V1.0.2/MSDK/plf/GD32VW55x_standard_peripheral/Source\gd32vw55x_cau_aes.c ****     if(0U != aadsize) {
 548:C:/Users/stapi/OneDrive/Desktop/GD32VW553/GD32VW55X_Wifi_BLE_SDK/GD32VW55x_RELEASE_V1.0.2/MSDK/plf/GD32VW55x_standard_peripheral/Source\gd32vw55x_cau_aes.c ****         blockb0[0] = 0x40U;
 549:C:/Users/stapi/OneDrive/Desktop/GD32VW553/GD32VW55X_Wifi_BLE_SDK/GD32VW55x_RELEASE_V1.0.2/MSDK/plf/GD32VW55x_standard_peripheral/Source\gd32vw55x_cau_aes.c ****     }
 550:C:/Users/stapi/OneDrive/Desktop/GD32VW553/GD32VW55X_Wifi_BLE_SDK/GD32VW55x_RELEASE_V1.0.2/MSDK/plf/GD32VW55x_standard_peripheral/Source\gd32vw55x_cau_aes.c ****     /* flags byte */
 551:C:/Users/stapi/OneDrive/Desktop/GD32VW553/GD32VW55X_Wifi_BLE_SDK/GD32VW55x_RELEASE_V1.0.2/MSDK/plf/GD32VW55x_standard_peripheral/Source\gd32vw55x_cau_aes.c ****     blockb0[0] |= (0U | (((((uint8_t) tag_size - 2U) / 2U) & 0x07U) << 3U) | (((uint8_t)(15U - ivsi
 552:C:/Users/stapi/OneDrive/Desktop/GD32VW553/GD32VW55X_Wifi_BLE_SDK/GD32VW55x_RELEASE_V1.0.2/MSDK/plf/GD32VW55x_standard_peripheral/Source\gd32vw55x_cau_aes.c **** 
 553:C:/Users/stapi/OneDrive/Desktop/GD32VW553/GD32VW55X_Wifi_BLE_SDK/GD32VW55x_RELEASE_V1.0.2/MSDK/plf/GD32VW55x_standard_peripheral/Source\gd32vw55x_cau_aes.c ****     if(ivsize > MAX_CCM_IV_SIZE) {
 554:C:/Users/stapi/OneDrive/Desktop/GD32VW553/GD32VW55X_Wifi_BLE_SDK/GD32VW55x_RELEASE_V1.0.2/MSDK/plf/GD32VW55x_standard_peripheral/Source\gd32vw55x_cau_aes.c ****         return ERROR;
 555:C:/Users/stapi/OneDrive/Desktop/GD32VW553/GD32VW55X_Wifi_BLE_SDK/GD32VW55x_RELEASE_V1.0.2/MSDK/plf/GD32VW55x_standard_peripheral/Source\gd32vw55x_cau_aes.c ****     }
 556:C:/Users/stapi/OneDrive/Desktop/GD32VW553/GD32VW55X_Wifi_BLE_SDK/GD32VW55x_RELEASE_V1.0.2/MSDK/plf/GD32VW55x_standard_peripheral/Source\gd32vw55x_cau_aes.c **** 
 557:C:/Users/stapi/OneDrive/Desktop/GD32VW553/GD32VW55X_Wifi_BLE_SDK/GD32VW55x_RELEASE_V1.0.2/MSDK/plf/GD32VW55x_standard_peripheral/Source\gd32vw55x_cau_aes.c ****     for(i = 0U; i < ivsize; i++) {
 558:C:/Users/stapi/OneDrive/Desktop/GD32VW553/GD32VW55X_Wifi_BLE_SDK/GD32VW55x_RELEASE_V1.0.2/MSDK/plf/GD32VW55x_standard_peripheral/Source\gd32vw55x_cau_aes.c ****         blockb0[i + 1U] = *(uint8_t *)((uint32_t)(ivaddr + i));
 559:C:/Users/stapi/OneDrive/Desktop/GD32VW553/GD32VW55X_Wifi_BLE_SDK/GD32VW55x_RELEASE_V1.0.2/MSDK/plf/GD32VW55x_standard_peripheral/Source\gd32vw55x_cau_aes.c ****     }
 560:C:/Users/stapi/OneDrive/Desktop/GD32VW553/GD32VW55X_Wifi_BLE_SDK/GD32VW55x_RELEASE_V1.0.2/MSDK/plf/GD32VW55x_standard_peripheral/Source\gd32vw55x_cau_aes.c **** 
 561:C:/Users/stapi/OneDrive/Desktop/GD32VW553/GD32VW55X_Wifi_BLE_SDK/GD32VW55x_RELEASE_V1.0.2/MSDK/plf/GD32VW55x_standard_peripheral/Source\gd32vw55x_cau_aes.c ****     /* the byte length for payload length expressing, which plus the ivsize must equal to 15 bytes 
 562:C:/Users/stapi/OneDrive/Desktop/GD32VW553/GD32VW55X_Wifi_BLE_SDK/GD32VW55x_RELEASE_V1.0.2/MSDK/plf/GD32VW55x_standard_peripheral/Source\gd32vw55x_cau_aes.c ****     plen = 15U - ivsize;
 563:C:/Users/stapi/OneDrive/Desktop/GD32VW553/GD32VW55X_Wifi_BLE_SDK/GD32VW55x_RELEASE_V1.0.2/MSDK/plf/GD32VW55x_standard_peripheral/Source\gd32vw55x_cau_aes.c ****     /* if the byte length for payload length expressing is more than 4 bytes */
 564:C:/Users/stapi/OneDrive/Desktop/GD32VW553/GD32VW55X_Wifi_BLE_SDK/GD32VW55x_RELEASE_V1.0.2/MSDK/plf/GD32VW55x_standard_peripheral/Source\gd32vw55x_cau_aes.c ****     if(plen > 4U) {
 565:C:/Users/stapi/OneDrive/Desktop/GD32VW553/GD32VW55X_Wifi_BLE_SDK/GD32VW55x_RELEASE_V1.0.2/MSDK/plf/GD32VW55x_standard_peripheral/Source\gd32vw55x_cau_aes.c ****         /* pad the blockb0 after vectors, and before the last 4 bytes */
 566:C:/Users/stapi/OneDrive/Desktop/GD32VW553/GD32VW55X_Wifi_BLE_SDK/GD32VW55x_RELEASE_V1.0.2/MSDK/plf/GD32VW55x_standard_peripheral/Source\gd32vw55x_cau_aes.c ****         for(; i < 11U; i++) {
 567:C:/Users/stapi/OneDrive/Desktop/GD32VW553/GD32VW55X_Wifi_BLE_SDK/GD32VW55x_RELEASE_V1.0.2/MSDK/plf/GD32VW55x_standard_peripheral/Source\gd32vw55x_cau_aes.c ****             blockb0[i + 1U] = 0U;
 568:C:/Users/stapi/OneDrive/Desktop/GD32VW553/GD32VW55X_Wifi_BLE_SDK/GD32VW55x_RELEASE_V1.0.2/MSDK/plf/GD32VW55x_standard_peripheral/Source\gd32vw55x_cau_aes.c ****         }
 569:C:/Users/stapi/OneDrive/Desktop/GD32VW553/GD32VW55X_Wifi_BLE_SDK/GD32VW55x_RELEASE_V1.0.2/MSDK/plf/GD32VW55x_standard_peripheral/Source\gd32vw55x_cau_aes.c ****         blockb0[12U] = (uint8_t)((inputsize >> 24U) & 0xFFU);
 570:C:/Users/stapi/OneDrive/Desktop/GD32VW553/GD32VW55X_Wifi_BLE_SDK/GD32VW55x_RELEASE_V1.0.2/MSDK/plf/GD32VW55x_standard_peripheral/Source\gd32vw55x_cau_aes.c ****         blockb0[13U] = (uint8_t)((inputsize >> 16U) & 0xFFU);
 571:C:/Users/stapi/OneDrive/Desktop/GD32VW553/GD32VW55X_Wifi_BLE_SDK/GD32VW55x_RELEASE_V1.0.2/MSDK/plf/GD32VW55x_standard_peripheral/Source\gd32vw55x_cau_aes.c ****         blockb0[14U] = (uint8_t)((inputsize >> 8U) & 0xFFU);
 572:C:/Users/stapi/OneDrive/Desktop/GD32VW553/GD32VW55X_Wifi_BLE_SDK/GD32VW55x_RELEASE_V1.0.2/MSDK/plf/GD32VW55x_standard_peripheral/Source\gd32vw55x_cau_aes.c ****         blockb0[15U] = (uint8_t)(inputsize & 0xFFU);
 573:C:/Users/stapi/OneDrive/Desktop/GD32VW553/GD32VW55X_Wifi_BLE_SDK/GD32VW55x_RELEASE_V1.0.2/MSDK/plf/GD32VW55x_standard_peripheral/Source\gd32vw55x_cau_aes.c ****     } else {
 574:C:/Users/stapi/OneDrive/Desktop/GD32VW553/GD32VW55X_Wifi_BLE_SDK/GD32VW55x_RELEASE_V1.0.2/MSDK/plf/GD32VW55x_standard_peripheral/Source\gd32vw55x_cau_aes.c ****         /* the payload length is expressed in plen bytes */
 575:C:/Users/stapi/OneDrive/Desktop/GD32VW553/GD32VW55X_Wifi_BLE_SDK/GD32VW55x_RELEASE_V1.0.2/MSDK/plf/GD32VW55x_standard_peripheral/Source\gd32vw55x_cau_aes.c ****         for(; i < 15U; i++) {
 576:C:/Users/stapi/OneDrive/Desktop/GD32VW553/GD32VW55X_Wifi_BLE_SDK/GD32VW55x_RELEASE_V1.0.2/MSDK/plf/GD32VW55x_standard_peripheral/Source\gd32vw55x_cau_aes.c ****             blockb0[i + 1U] = (uint8_t)((inputsize >> ((plen - 1U) * 8U)) & 0xFFU);
 577:C:/Users/stapi/OneDrive/Desktop/GD32VW553/GD32VW55X_Wifi_BLE_SDK/GD32VW55x_RELEASE_V1.0.2/MSDK/plf/GD32VW55x_standard_peripheral/Source\gd32vw55x_cau_aes.c ****             plen--;
 578:C:/Users/stapi/OneDrive/Desktop/GD32VW553/GD32VW55X_Wifi_BLE_SDK/GD32VW55x_RELEASE_V1.0.2/MSDK/plf/GD32VW55x_standard_peripheral/Source\gd32vw55x_cau_aes.c ****         }
 579:C:/Users/stapi/OneDrive/Desktop/GD32VW553/GD32VW55X_Wifi_BLE_SDK/GD32VW55x_RELEASE_V1.0.2/MSDK/plf/GD32VW55x_standard_peripheral/Source\gd32vw55x_cau_aes.c ****     }
 580:C:/Users/stapi/OneDrive/Desktop/GD32VW553/GD32VW55X_Wifi_BLE_SDK/GD32VW55x_RELEASE_V1.0.2/MSDK/plf/GD32VW55x_standard_peripheral/Source\gd32vw55x_cau_aes.c **** 
 581:C:/Users/stapi/OneDrive/Desktop/GD32VW553/GD32VW55X_Wifi_BLE_SDK/GD32VW55x_RELEASE_V1.0.2/MSDK/plf/GD32VW55x_standard_peripheral/Source\gd32vw55x_cau_aes.c ****     /* formatting the initial counter */
 582:C:/Users/stapi/OneDrive/Desktop/GD32VW553/GD32VW55X_Wifi_BLE_SDK/GD32VW55x_RELEASE_V1.0.2/MSDK/plf/GD32VW55x_standard_peripheral/Source\gd32vw55x_cau_aes.c ****     /* byte 0: bits 0-2 contain the same encoding of q as in B0 */
 583:C:/Users/stapi/OneDrive/Desktop/GD32VW553/GD32VW55X_Wifi_BLE_SDK/GD32VW55x_RELEASE_V1.0.2/MSDK/plf/GD32VW55x_standard_peripheral/Source\gd32vw55x_cau_aes.c ****     counter[0] = blockb0[0] & BLOCK_B0_MASK;
 584:C:/Users/stapi/OneDrive/Desktop/GD32VW553/GD32VW55X_Wifi_BLE_SDK/GD32VW55x_RELEASE_V1.0.2/MSDK/plf/GD32VW55x_standard_peripheral/Source\gd32vw55x_cau_aes.c ****     for(i = 1U; i < ivsize + 1U; i++) {
 585:C:/Users/stapi/OneDrive/Desktop/GD32VW553/GD32VW55X_Wifi_BLE_SDK/GD32VW55x_RELEASE_V1.0.2/MSDK/plf/GD32VW55x_standard_peripheral/Source\gd32vw55x_cau_aes.c ****         counter[i] = blockb0[i];
 586:C:/Users/stapi/OneDrive/Desktop/GD32VW553/GD32VW55X_Wifi_BLE_SDK/GD32VW55x_RELEASE_V1.0.2/MSDK/plf/GD32VW55x_standard_peripheral/Source\gd32vw55x_cau_aes.c ****     }
 587:C:/Users/stapi/OneDrive/Desktop/GD32VW553/GD32VW55X_Wifi_BLE_SDK/GD32VW55x_RELEASE_V1.0.2/MSDK/plf/GD32VW55x_standard_peripheral/Source\gd32vw55x_cau_aes.c ****     /* set the LSB to 1 */
 588:C:/Users/stapi/OneDrive/Desktop/GD32VW553/GD32VW55X_Wifi_BLE_SDK/GD32VW55x_RELEASE_V1.0.2/MSDK/plf/GD32VW55x_standard_peripheral/Source\gd32vw55x_cau_aes.c ****     counter[15] |= 0x01U;
 589:C:/Users/stapi/OneDrive/Desktop/GD32VW553/GD32VW55X_Wifi_BLE_SDK/GD32VW55x_RELEASE_V1.0.2/MSDK/plf/GD32VW55x_standard_peripheral/Source\gd32vw55x_cau_aes.c **** 
 590:C:/Users/stapi/OneDrive/Desktop/GD32VW553/GD32VW55X_Wifi_BLE_SDK/GD32VW55x_RELEASE_V1.0.2/MSDK/plf/GD32VW55x_standard_peripheral/Source\gd32vw55x_cau_aes.c ****     /* prepare phase */
 591:C:/Users/stapi/OneDrive/Desktop/GD32VW553/GD32VW55X_Wifi_BLE_SDK/GD32VW55x_RELEASE_V1.0.2/MSDK/plf/GD32VW55x_standard_peripheral/Source\gd32vw55x_cau_aes.c ****     /* flush the IN and OUT FIFOs */
 592:C:/Users/stapi/OneDrive/Desktop/GD32VW553/GD32VW55X_Wifi_BLE_SDK/GD32VW55x_RELEASE_V1.0.2/MSDK/plf/GD32VW55x_standard_peripheral/Source\gd32vw55x_cau_aes.c ****     cau_fifo_flush();
 593:C:/Users/stapi/OneDrive/Desktop/GD32VW553/GD32VW55X_Wifi_BLE_SDK/GD32VW55x_RELEASE_V1.0.2/MSDK/plf/GD32VW55x_standard_peripheral/Source\gd32vw55x_cau_aes.c ****     /* clear CAUEN bit to ensure CAU is disable */
 594:C:/Users/stapi/OneDrive/Desktop/GD32VW553/GD32VW55X_Wifi_BLE_SDK/GD32VW55x_RELEASE_V1.0.2/MSDK/plf/GD32VW55x_standard_peripheral/Source\gd32vw55x_cau_aes.c ****     cau_disable();
 595:C:/Users/stapi/OneDrive/Desktop/GD32VW553/GD32VW55X_Wifi_BLE_SDK/GD32VW55x_RELEASE_V1.0.2/MSDK/plf/GD32VW55x_standard_peripheral/Source\gd32vw55x_cau_aes.c **** 
 596:C:/Users/stapi/OneDrive/Desktop/GD32VW553/GD32VW55X_Wifi_BLE_SDK/GD32VW55x_RELEASE_V1.0.2/MSDK/plf/GD32VW55x_standard_peripheral/Source\gd32vw55x_cau_aes.c ****     /* key structure initialization */
 597:C:/Users/stapi/OneDrive/Desktop/GD32VW553/GD32VW55X_Wifi_BLE_SDK/GD32VW55x_RELEASE_V1.0.2/MSDK/plf/GD32VW55x_standard_peripheral/Source\gd32vw55x_cau_aes.c ****     cau_key_struct_para_init(&key_initpara);
 598:C:/Users/stapi/OneDrive/Desktop/GD32VW553/GD32VW55X_Wifi_BLE_SDK/GD32VW55x_RELEASE_V1.0.2/MSDK/plf/GD32VW55x_standard_peripheral/Source\gd32vw55x_cau_aes.c ****     /* initialize the CAU peripheral */
 599:C:/Users/stapi/OneDrive/Desktop/GD32VW553/GD32VW55X_Wifi_BLE_SDK/GD32VW55x_RELEASE_V1.0.2/MSDK/plf/GD32VW55x_standard_peripheral/Source\gd32vw55x_cau_aes.c ****     cau_init(cau_parameter->alg_dir, CAU_MODE_AES_CCM, CAU_SWAPPING_8BIT);
 600:C:/Users/stapi/OneDrive/Desktop/GD32VW553/GD32VW55X_Wifi_BLE_SDK/GD32VW55x_RELEASE_V1.0.2/MSDK/plf/GD32VW55x_standard_peripheral/Source\gd32vw55x_cau_aes.c ****     /* select prepare phase */
 601:C:/Users/stapi/OneDrive/Desktop/GD32VW553/GD32VW55X_Wifi_BLE_SDK/GD32VW55x_RELEASE_V1.0.2/MSDK/plf/GD32VW55x_standard_peripheral/Source\gd32vw55x_cau_aes.c ****     cau_phase_config(CAU_PREPARE_PHASE);
 602:C:/Users/stapi/OneDrive/Desktop/GD32VW553/GD32VW55X_Wifi_BLE_SDK/GD32VW55x_RELEASE_V1.0.2/MSDK/plf/GD32VW55x_standard_peripheral/Source\gd32vw55x_cau_aes.c **** 
 603:C:/Users/stapi/OneDrive/Desktop/GD32VW553/GD32VW55X_Wifi_BLE_SDK/GD32VW55x_RELEASE_V1.0.2/MSDK/plf/GD32VW55x_standard_peripheral/Source\gd32vw55x_cau_aes.c ****     /* AES key structure parameter config */
 604:C:/Users/stapi/OneDrive/Desktop/GD32VW553/GD32VW55X_Wifi_BLE_SDK/GD32VW55x_RELEASE_V1.0.2/MSDK/plf/GD32VW55x_standard_peripheral/Source\gd32vw55x_cau_aes.c ****     cau_aes_key_config(cau_parameter->key, cau_parameter->key_size, &key_initpara);
 605:C:/Users/stapi/OneDrive/Desktop/GD32VW553/GD32VW55X_Wifi_BLE_SDK/GD32VW55x_RELEASE_V1.0.2/MSDK/plf/GD32VW55x_standard_peripheral/Source\gd32vw55x_cau_aes.c ****     /* key initialization */
 606:C:/Users/stapi/OneDrive/Desktop/GD32VW553/GD32VW55X_Wifi_BLE_SDK/GD32VW55x_RELEASE_V1.0.2/MSDK/plf/GD32VW55x_standard_peripheral/Source\gd32vw55x_cau_aes.c ****     cau_key_init(&key_initpara);
 607:C:/Users/stapi/OneDrive/Desktop/GD32VW553/GD32VW55X_Wifi_BLE_SDK/GD32VW55x_RELEASE_V1.0.2/MSDK/plf/GD32VW55x_standard_peripheral/Source\gd32vw55x_cau_aes.c **** 
 608:C:/Users/stapi/OneDrive/Desktop/GD32VW553/GD32VW55X_Wifi_BLE_SDK/GD32VW55x_RELEASE_V1.0.2/MSDK/plf/GD32VW55x_standard_peripheral/Source\gd32vw55x_cau_aes.c ****     /* vectors initialization */
 609:C:/Users/stapi/OneDrive/Desktop/GD32VW553/GD32VW55X_Wifi_BLE_SDK/GD32VW55x_RELEASE_V1.0.2/MSDK/plf/GD32VW55x_standard_peripheral/Source\gd32vw55x_cau_aes.c ****     iv_initpara.iv_0_high = __REV(*(uint32_t *)(ctraddr));
 610:C:/Users/stapi/OneDrive/Desktop/GD32VW553/GD32VW55X_Wifi_BLE_SDK/GD32VW55x_RELEASE_V1.0.2/MSDK/plf/GD32VW55x_standard_peripheral/Source\gd32vw55x_cau_aes.c ****     ctraddr += 4U;
 611:C:/Users/stapi/OneDrive/Desktop/GD32VW553/GD32VW55X_Wifi_BLE_SDK/GD32VW55x_RELEASE_V1.0.2/MSDK/plf/GD32VW55x_standard_peripheral/Source\gd32vw55x_cau_aes.c ****     iv_initpara.iv_0_low = __REV(*(uint32_t *)(ctraddr));
 612:C:/Users/stapi/OneDrive/Desktop/GD32VW553/GD32VW55X_Wifi_BLE_SDK/GD32VW55x_RELEASE_V1.0.2/MSDK/plf/GD32VW55x_standard_peripheral/Source\gd32vw55x_cau_aes.c ****     ctraddr += 4U;
 613:C:/Users/stapi/OneDrive/Desktop/GD32VW553/GD32VW55X_Wifi_BLE_SDK/GD32VW55x_RELEASE_V1.0.2/MSDK/plf/GD32VW55x_standard_peripheral/Source\gd32vw55x_cau_aes.c ****     iv_initpara.iv_1_high = __REV(*(uint32_t *)(ctraddr));
 614:C:/Users/stapi/OneDrive/Desktop/GD32VW553/GD32VW55X_Wifi_BLE_SDK/GD32VW55x_RELEASE_V1.0.2/MSDK/plf/GD32VW55x_standard_peripheral/Source\gd32vw55x_cau_aes.c ****     ctraddr += 4U;
 615:C:/Users/stapi/OneDrive/Desktop/GD32VW553/GD32VW55X_Wifi_BLE_SDK/GD32VW55x_RELEASE_V1.0.2/MSDK/plf/GD32VW55x_standard_peripheral/Source\gd32vw55x_cau_aes.c ****     iv_initpara.iv_1_low = __REV(*(uint32_t *)(ctraddr));
 616:C:/Users/stapi/OneDrive/Desktop/GD32VW553/GD32VW55X_Wifi_BLE_SDK/GD32VW55x_RELEASE_V1.0.2/MSDK/plf/GD32VW55x_standard_peripheral/Source\gd32vw55x_cau_aes.c ****     cau_iv_init(&iv_initpara);
 617:C:/Users/stapi/OneDrive/Desktop/GD32VW553/GD32VW55X_Wifi_BLE_SDK/GD32VW55x_RELEASE_V1.0.2/MSDK/plf/GD32VW55x_standard_peripheral/Source\gd32vw55x_cau_aes.c **** 
 618:C:/Users/stapi/OneDrive/Desktop/GD32VW553/GD32VW55X_Wifi_BLE_SDK/GD32VW55x_RELEASE_V1.0.2/MSDK/plf/GD32VW55x_standard_peripheral/Source\gd32vw55x_cau_aes.c ****     /* enable the CAU peripheral */
 619:C:/Users/stapi/OneDrive/Desktop/GD32VW553/GD32VW55X_Wifi_BLE_SDK/GD32VW55x_RELEASE_V1.0.2/MSDK/plf/GD32VW55x_standard_peripheral/Source\gd32vw55x_cau_aes.c ****     cau_enable();
 620:C:/Users/stapi/OneDrive/Desktop/GD32VW553/GD32VW55X_Wifi_BLE_SDK/GD32VW55x_RELEASE_V1.0.2/MSDK/plf/GD32VW55x_standard_peripheral/Source\gd32vw55x_cau_aes.c **** 
 621:C:/Users/stapi/OneDrive/Desktop/GD32VW553/GD32VW55X_Wifi_BLE_SDK/GD32VW55x_RELEASE_V1.0.2/MSDK/plf/GD32VW55x_standard_peripheral/Source\gd32vw55x_cau_aes.c ****     /* write block B0 in the In FIFO */
 622:C:/Users/stapi/OneDrive/Desktop/GD32VW553/GD32VW55X_Wifi_BLE_SDK/GD32VW55x_RELEASE_V1.0.2/MSDK/plf/GD32VW55x_standard_peripheral/Source\gd32vw55x_cau_aes.c ****     cau_data_write(*(uint32_t *)(b0addr));
 623:C:/Users/stapi/OneDrive/Desktop/GD32VW553/GD32VW55X_Wifi_BLE_SDK/GD32VW55x_RELEASE_V1.0.2/MSDK/plf/GD32VW55x_standard_peripheral/Source\gd32vw55x_cau_aes.c ****     b0addr += 4U;
 624:C:/Users/stapi/OneDrive/Desktop/GD32VW553/GD32VW55X_Wifi_BLE_SDK/GD32VW55x_RELEASE_V1.0.2/MSDK/plf/GD32VW55x_standard_peripheral/Source\gd32vw55x_cau_aes.c ****     cau_data_write(*(uint32_t *)(b0addr));
 625:C:/Users/stapi/OneDrive/Desktop/GD32VW553/GD32VW55X_Wifi_BLE_SDK/GD32VW55x_RELEASE_V1.0.2/MSDK/plf/GD32VW55x_standard_peripheral/Source\gd32vw55x_cau_aes.c ****     b0addr += 4U;
 626:C:/Users/stapi/OneDrive/Desktop/GD32VW553/GD32VW55X_Wifi_BLE_SDK/GD32VW55x_RELEASE_V1.0.2/MSDK/plf/GD32VW55x_standard_peripheral/Source\gd32vw55x_cau_aes.c ****     cau_data_write(*(uint32_t *)(b0addr));
 627:C:/Users/stapi/OneDrive/Desktop/GD32VW553/GD32VW55X_Wifi_BLE_SDK/GD32VW55x_RELEASE_V1.0.2/MSDK/plf/GD32VW55x_standard_peripheral/Source\gd32vw55x_cau_aes.c ****     b0addr += 4U;
 628:C:/Users/stapi/OneDrive/Desktop/GD32VW553/GD32VW55X_Wifi_BLE_SDK/GD32VW55x_RELEASE_V1.0.2/MSDK/plf/GD32VW55x_standard_peripheral/Source\gd32vw55x_cau_aes.c ****     cau_data_write(*(uint32_t *)(b0addr));
 629:C:/Users/stapi/OneDrive/Desktop/GD32VW553/GD32VW55X_Wifi_BLE_SDK/GD32VW55x_RELEASE_V1.0.2/MSDK/plf/GD32VW55x_standard_peripheral/Source\gd32vw55x_cau_aes.c **** 
 630:C:/Users/stapi/OneDrive/Desktop/GD32VW553/GD32VW55X_Wifi_BLE_SDK/GD32VW55x_RELEASE_V1.0.2/MSDK/plf/GD32VW55x_standard_peripheral/Source\gd32vw55x_cau_aes.c ****     /* wait for CAUEN bit to be 0 */
 631:C:/Users/stapi/OneDrive/Desktop/GD32VW553/GD32VW55X_Wifi_BLE_SDK/GD32VW55x_RELEASE_V1.0.2/MSDK/plf/GD32VW55x_standard_peripheral/Source\gd32vw55x_cau_aes.c ****     while(ENABLE == cau_enable_state_get()) {
 632:C:/Users/stapi/OneDrive/Desktop/GD32VW553/GD32VW55X_Wifi_BLE_SDK/GD32VW55x_RELEASE_V1.0.2/MSDK/plf/GD32VW55x_standard_peripheral/Source\gd32vw55x_cau_aes.c ****     }
 633:C:/Users/stapi/OneDrive/Desktop/GD32VW553/GD32VW55X_Wifi_BLE_SDK/GD32VW55x_RELEASE_V1.0.2/MSDK/plf/GD32VW55x_standard_peripheral/Source\gd32vw55x_cau_aes.c **** 
 634:C:/Users/stapi/OneDrive/Desktop/GD32VW553/GD32VW55X_Wifi_BLE_SDK/GD32VW55x_RELEASE_V1.0.2/MSDK/plf/GD32VW55x_standard_peripheral/Source\gd32vw55x_cau_aes.c ****     /* aad phase */
 635:C:/Users/stapi/OneDrive/Desktop/GD32VW553/GD32VW55X_Wifi_BLE_SDK/GD32VW55x_RELEASE_V1.0.2/MSDK/plf/GD32VW55x_standard_peripheral/Source\gd32vw55x_cau_aes.c ****     if((uint32_t)0U != aadsize) {
 636:C:/Users/stapi/OneDrive/Desktop/GD32VW553/GD32VW55X_Wifi_BLE_SDK/GD32VW55x_RELEASE_V1.0.2/MSDK/plf/GD32VW55x_standard_peripheral/Source\gd32vw55x_cau_aes.c ****         /* select aad phase */
 637:C:/Users/stapi/OneDrive/Desktop/GD32VW553/GD32VW55X_Wifi_BLE_SDK/GD32VW55x_RELEASE_V1.0.2/MSDK/plf/GD32VW55x_standard_peripheral/Source\gd32vw55x_cau_aes.c ****         cau_phase_config(CAU_AAD_PHASE);
 638:C:/Users/stapi/OneDrive/Desktop/GD32VW553/GD32VW55X_Wifi_BLE_SDK/GD32VW55x_RELEASE_V1.0.2/MSDK/plf/GD32VW55x_standard_peripheral/Source\gd32vw55x_cau_aes.c ****         /* enable the CAU peripheral */
 639:C:/Users/stapi/OneDrive/Desktop/GD32VW553/GD32VW55X_Wifi_BLE_SDK/GD32VW55x_RELEASE_V1.0.2/MSDK/plf/GD32VW55x_standard_peripheral/Source\gd32vw55x_cau_aes.c ****         cau_enable();
 640:C:/Users/stapi/OneDrive/Desktop/GD32VW553/GD32VW55X_Wifi_BLE_SDK/GD32VW55x_RELEASE_V1.0.2/MSDK/plf/GD32VW55x_standard_peripheral/Source\gd32vw55x_cau_aes.c **** 
 641:C:/Users/stapi/OneDrive/Desktop/GD32VW553/GD32VW55X_Wifi_BLE_SDK/GD32VW55x_RELEASE_V1.0.2/MSDK/plf/GD32VW55x_standard_peripheral/Source\gd32vw55x_cau_aes.c ****         ret = cau_fill_data((uint8_t *)aadaddr, aad_block_size);
 642:C:/Users/stapi/OneDrive/Desktop/GD32VW553/GD32VW55X_Wifi_BLE_SDK/GD32VW55x_RELEASE_V1.0.2/MSDK/plf/GD32VW55x_standard_peripheral/Source\gd32vw55x_cau_aes.c **** 
 643:C:/Users/stapi/OneDrive/Desktop/GD32VW553/GD32VW55X_Wifi_BLE_SDK/GD32VW55x_RELEASE_V1.0.2/MSDK/plf/GD32VW55x_standard_peripheral/Source\gd32vw55x_cau_aes.c ****         if(ERROR == ret) {
 644:C:/Users/stapi/OneDrive/Desktop/GD32VW553/GD32VW55X_Wifi_BLE_SDK/GD32VW55x_RELEASE_V1.0.2/MSDK/plf/GD32VW55x_standard_peripheral/Source\gd32vw55x_cau_aes.c ****             return ret;
 645:C:/Users/stapi/OneDrive/Desktop/GD32VW553/GD32VW55X_Wifi_BLE_SDK/GD32VW55x_RELEASE_V1.0.2/MSDK/plf/GD32VW55x_standard_peripheral/Source\gd32vw55x_cau_aes.c ****         }
 646:C:/Users/stapi/OneDrive/Desktop/GD32VW553/GD32VW55X_Wifi_BLE_SDK/GD32VW55x_RELEASE_V1.0.2/MSDK/plf/GD32VW55x_standard_peripheral/Source\gd32vw55x_cau_aes.c ****     }
 647:C:/Users/stapi/OneDrive/Desktop/GD32VW553/GD32VW55X_Wifi_BLE_SDK/GD32VW55x_RELEASE_V1.0.2/MSDK/plf/GD32VW55x_standard_peripheral/Source\gd32vw55x_cau_aes.c **** 
 648:C:/Users/stapi/OneDrive/Desktop/GD32VW553/GD32VW55X_Wifi_BLE_SDK/GD32VW55x_RELEASE_V1.0.2/MSDK/plf/GD32VW55x_standard_peripheral/Source\gd32vw55x_cau_aes.c ****     /* encrypt or dcrypt phase */
 649:C:/Users/stapi/OneDrive/Desktop/GD32VW553/GD32VW55X_Wifi_BLE_SDK/GD32VW55x_RELEASE_V1.0.2/MSDK/plf/GD32VW55x_standard_peripheral/Source\gd32vw55x_cau_aes.c ****     inputsize = cau_parameter->in_length;
 650:C:/Users/stapi/OneDrive/Desktop/GD32VW553/GD32VW55X_Wifi_BLE_SDK/GD32VW55x_RELEASE_V1.0.2/MSDK/plf/GD32VW55x_standard_peripheral/Source\gd32vw55x_cau_aes.c **** 
 651:C:/Users/stapi/OneDrive/Desktop/GD32VW553/GD32VW55X_Wifi_BLE_SDK/GD32VW55x_RELEASE_V1.0.2/MSDK/plf/GD32VW55x_standard_peripheral/Source\gd32vw55x_cau_aes.c ****     if((uint32_t)0U != inputsize) {
 652:C:/Users/stapi/OneDrive/Desktop/GD32VW553/GD32VW55X_Wifi_BLE_SDK/GD32VW55x_RELEASE_V1.0.2/MSDK/plf/GD32VW55x_standard_peripheral/Source\gd32vw55x_cau_aes.c ****         /* select encrypt or dcrypt phase */
 653:C:/Users/stapi/OneDrive/Desktop/GD32VW553/GD32VW55X_Wifi_BLE_SDK/GD32VW55x_RELEASE_V1.0.2/MSDK/plf/GD32VW55x_standard_peripheral/Source\gd32vw55x_cau_aes.c ****         cau_phase_config(CAU_ENCRYPT_DECRYPT_PHASE);
 654:C:/Users/stapi/OneDrive/Desktop/GD32VW553/GD32VW55X_Wifi_BLE_SDK/GD32VW55x_RELEASE_V1.0.2/MSDK/plf/GD32VW55x_standard_peripheral/Source\gd32vw55x_cau_aes.c ****         /* enable the CAU peripheral */
 655:C:/Users/stapi/OneDrive/Desktop/GD32VW553/GD32VW55X_Wifi_BLE_SDK/GD32VW55x_RELEASE_V1.0.2/MSDK/plf/GD32VW55x_standard_peripheral/Source\gd32vw55x_cau_aes.c ****         cau_enable();
 656:C:/Users/stapi/OneDrive/Desktop/GD32VW553/GD32VW55X_Wifi_BLE_SDK/GD32VW55x_RELEASE_V1.0.2/MSDK/plf/GD32VW55x_standard_peripheral/Source\gd32vw55x_cau_aes.c **** 
 657:C:/Users/stapi/OneDrive/Desktop/GD32VW553/GD32VW55X_Wifi_BLE_SDK/GD32VW55x_RELEASE_V1.0.2/MSDK/plf/GD32VW55x_standard_peripheral/Source\gd32vw55x_cau_aes.c ****         /* AES calculate process */
 658:C:/Users/stapi/OneDrive/Desktop/GD32VW553/GD32VW55X_Wifi_BLE_SDK/GD32VW55x_RELEASE_V1.0.2/MSDK/plf/GD32VW55x_standard_peripheral/Source\gd32vw55x_cau_aes.c ****         ret = cau_aes_calculate((uint8_t *)inputaddr, inputsize, (uint8_t *)outputaddr);
 659:C:/Users/stapi/OneDrive/Desktop/GD32VW553/GD32VW55X_Wifi_BLE_SDK/GD32VW55x_RELEASE_V1.0.2/MSDK/plf/GD32VW55x_standard_peripheral/Source\gd32vw55x_cau_aes.c **** 
 660:C:/Users/stapi/OneDrive/Desktop/GD32VW553/GD32VW55X_Wifi_BLE_SDK/GD32VW55x_RELEASE_V1.0.2/MSDK/plf/GD32VW55x_standard_peripheral/Source\gd32vw55x_cau_aes.c ****         if(ERROR == ret) {
 661:C:/Users/stapi/OneDrive/Desktop/GD32VW553/GD32VW55X_Wifi_BLE_SDK/GD32VW55x_RELEASE_V1.0.2/MSDK/plf/GD32VW55x_standard_peripheral/Source\gd32vw55x_cau_aes.c ****             return ret;
 662:C:/Users/stapi/OneDrive/Desktop/GD32VW553/GD32VW55X_Wifi_BLE_SDK/GD32VW55x_RELEASE_V1.0.2/MSDK/plf/GD32VW55x_standard_peripheral/Source\gd32vw55x_cau_aes.c ****         }
 663:C:/Users/stapi/OneDrive/Desktop/GD32VW553/GD32VW55X_Wifi_BLE_SDK/GD32VW55x_RELEASE_V1.0.2/MSDK/plf/GD32VW55x_standard_peripheral/Source\gd32vw55x_cau_aes.c ****     }
 664:C:/Users/stapi/OneDrive/Desktop/GD32VW553/GD32VW55X_Wifi_BLE_SDK/GD32VW55x_RELEASE_V1.0.2/MSDK/plf/GD32VW55x_standard_peripheral/Source\gd32vw55x_cau_aes.c **** 
 665:C:/Users/stapi/OneDrive/Desktop/GD32VW553/GD32VW55X_Wifi_BLE_SDK/GD32VW55x_RELEASE_V1.0.2/MSDK/plf/GD32VW55x_standard_peripheral/Source\gd32vw55x_cau_aes.c ****     /* tag phase */
 666:C:/Users/stapi/OneDrive/Desktop/GD32VW553/GD32VW55X_Wifi_BLE_SDK/GD32VW55x_RELEASE_V1.0.2/MSDK/plf/GD32VW55x_standard_peripheral/Source\gd32vw55x_cau_aes.c ****     /* select final phase */
 667:C:/Users/stapi/OneDrive/Desktop/GD32VW553/GD32VW55X_Wifi_BLE_SDK/GD32VW55x_RELEASE_V1.0.2/MSDK/plf/GD32VW55x_standard_peripheral/Source\gd32vw55x_cau_aes.c ****     cau_phase_config(CAU_TAG_PHASE);
 668:C:/Users/stapi/OneDrive/Desktop/GD32VW553/GD32VW55X_Wifi_BLE_SDK/GD32VW55x_RELEASE_V1.0.2/MSDK/plf/GD32VW55x_standard_peripheral/Source\gd32vw55x_cau_aes.c ****     /* enable the CAU peripheral */
 669:C:/Users/stapi/OneDrive/Desktop/GD32VW553/GD32VW55X_Wifi_BLE_SDK/GD32VW55x_RELEASE_V1.0.2/MSDK/plf/GD32VW55x_standard_peripheral/Source\gd32vw55x_cau_aes.c ****     cau_enable();
 670:C:/Users/stapi/OneDrive/Desktop/GD32VW553/GD32VW55X_Wifi_BLE_SDK/GD32VW55x_RELEASE_V1.0.2/MSDK/plf/GD32VW55x_standard_peripheral/Source\gd32vw55x_cau_aes.c **** 
 671:C:/Users/stapi/OneDrive/Desktop/GD32VW553/GD32VW55X_Wifi_BLE_SDK/GD32VW55x_RELEASE_V1.0.2/MSDK/plf/GD32VW55x_standard_peripheral/Source\gd32vw55x_cau_aes.c ****     if(DISABLE == cau_enable_state_get()) {
 672:C:/Users/stapi/OneDrive/Desktop/GD32VW553/GD32VW55X_Wifi_BLE_SDK/GD32VW55x_RELEASE_V1.0.2/MSDK/plf/GD32VW55x_standard_peripheral/Source\gd32vw55x_cau_aes.c ****         return ERROR;
 673:C:/Users/stapi/OneDrive/Desktop/GD32VW553/GD32VW55X_Wifi_BLE_SDK/GD32VW55x_RELEASE_V1.0.2/MSDK/plf/GD32VW55x_standard_peripheral/Source\gd32vw55x_cau_aes.c ****     }
 674:C:/Users/stapi/OneDrive/Desktop/GD32VW553/GD32VW55X_Wifi_BLE_SDK/GD32VW55x_RELEASE_V1.0.2/MSDK/plf/GD32VW55x_standard_peripheral/Source\gd32vw55x_cau_aes.c **** 
 675:C:/Users/stapi/OneDrive/Desktop/GD32VW553/GD32VW55X_Wifi_BLE_SDK/GD32VW55x_RELEASE_V1.0.2/MSDK/plf/GD32VW55x_standard_peripheral/Source\gd32vw55x_cau_aes.c ****     ctraddr = (uint32_t)counter;
 676:C:/Users/stapi/OneDrive/Desktop/GD32VW553/GD32VW55X_Wifi_BLE_SDK/GD32VW55x_RELEASE_V1.0.2/MSDK/plf/GD32VW55x_standard_peripheral/Source\gd32vw55x_cau_aes.c **** 
 677:C:/Users/stapi/OneDrive/Desktop/GD32VW553/GD32VW55X_Wifi_BLE_SDK/GD32VW55x_RELEASE_V1.0.2/MSDK/plf/GD32VW55x_standard_peripheral/Source\gd32vw55x_cau_aes.c ****     cau_data_write(*(uint32_t *)(ctraddr));
 678:C:/Users/stapi/OneDrive/Desktop/GD32VW553/GD32VW55X_Wifi_BLE_SDK/GD32VW55x_RELEASE_V1.0.2/MSDK/plf/GD32VW55x_standard_peripheral/Source\gd32vw55x_cau_aes.c ****     ctraddr += 4U;
 679:C:/Users/stapi/OneDrive/Desktop/GD32VW553/GD32VW55X_Wifi_BLE_SDK/GD32VW55x_RELEASE_V1.0.2/MSDK/plf/GD32VW55x_standard_peripheral/Source\gd32vw55x_cau_aes.c ****     cau_data_write(*(uint32_t *)(ctraddr));
 680:C:/Users/stapi/OneDrive/Desktop/GD32VW553/GD32VW55X_Wifi_BLE_SDK/GD32VW55x_RELEASE_V1.0.2/MSDK/plf/GD32VW55x_standard_peripheral/Source\gd32vw55x_cau_aes.c ****     ctraddr += 4U;
 681:C:/Users/stapi/OneDrive/Desktop/GD32VW553/GD32VW55X_Wifi_BLE_SDK/GD32VW55x_RELEASE_V1.0.2/MSDK/plf/GD32VW55x_standard_peripheral/Source\gd32vw55x_cau_aes.c ****     cau_data_write(*(uint32_t *)(ctraddr));
 682:C:/Users/stapi/OneDrive/Desktop/GD32VW553/GD32VW55X_Wifi_BLE_SDK/GD32VW55x_RELEASE_V1.0.2/MSDK/plf/GD32VW55x_standard_peripheral/Source\gd32vw55x_cau_aes.c ****     ctraddr += 4U;
 683:C:/Users/stapi/OneDrive/Desktop/GD32VW553/GD32VW55X_Wifi_BLE_SDK/GD32VW55x_RELEASE_V1.0.2/MSDK/plf/GD32VW55x_standard_peripheral/Source\gd32vw55x_cau_aes.c ****     /* reset bit 0 (after 8-bit swap) is equivalent to reset bit 24 (before 8-bit swap) */
 684:C:/Users/stapi/OneDrive/Desktop/GD32VW553/GD32VW55X_Wifi_BLE_SDK/GD32VW55x_RELEASE_V1.0.2/MSDK/plf/GD32VW55x_standard_peripheral/Source\gd32vw55x_cau_aes.c ****     cau_data_write(*(uint32_t *)(ctraddr) & 0xFEFFFFFFU);
 685:C:/Users/stapi/OneDrive/Desktop/GD32VW553/GD32VW55X_Wifi_BLE_SDK/GD32VW55x_RELEASE_V1.0.2/MSDK/plf/GD32VW55x_standard_peripheral/Source\gd32vw55x_cau_aes.c **** 
 686:C:/Users/stapi/OneDrive/Desktop/GD32VW553/GD32VW55X_Wifi_BLE_SDK/GD32VW55x_RELEASE_V1.0.2/MSDK/plf/GD32VW55x_standard_peripheral/Source\gd32vw55x_cau_aes.c ****     /* wait until the ONE flag is set */
 687:C:/Users/stapi/OneDrive/Desktop/GD32VW553/GD32VW55X_Wifi_BLE_SDK/GD32VW55x_RELEASE_V1.0.2/MSDK/plf/GD32VW55x_standard_peripheral/Source\gd32vw55x_cau_aes.c ****     while(RESET == cau_flag_get(CAU_FLAG_OUTFIFO_NO_EMPTY)) {
 688:C:/Users/stapi/OneDrive/Desktop/GD32VW553/GD32VW55X_Wifi_BLE_SDK/GD32VW55x_RELEASE_V1.0.2/MSDK/plf/GD32VW55x_standard_peripheral/Source\gd32vw55x_cau_aes.c ****     }
 689:C:/Users/stapi/OneDrive/Desktop/GD32VW553/GD32VW55X_Wifi_BLE_SDK/GD32VW55x_RELEASE_V1.0.2/MSDK/plf/GD32VW55x_standard_peripheral/Source\gd32vw55x_cau_aes.c **** 
 690:C:/Users/stapi/OneDrive/Desktop/GD32VW553/GD32VW55X_Wifi_BLE_SDK/GD32VW55x_RELEASE_V1.0.2/MSDK/plf/GD32VW55x_standard_peripheral/Source\gd32vw55x_cau_aes.c ****     /* read the tag in the OUT FIFO */
 691:C:/Users/stapi/OneDrive/Desktop/GD32VW553/GD32VW55X_Wifi_BLE_SDK/GD32VW55x_RELEASE_V1.0.2/MSDK/plf/GD32VW55x_standard_peripheral/Source\gd32vw55x_cau_aes.c ****     temp_tag[0] = cau_data_read();
 692:C:/Users/stapi/OneDrive/Desktop/GD32VW553/GD32VW55X_Wifi_BLE_SDK/GD32VW55x_RELEASE_V1.0.2/MSDK/plf/GD32VW55x_standard_peripheral/Source\gd32vw55x_cau_aes.c ****     temp_tag[1] = cau_data_read();
 693:C:/Users/stapi/OneDrive/Desktop/GD32VW553/GD32VW55X_Wifi_BLE_SDK/GD32VW55x_RELEASE_V1.0.2/MSDK/plf/GD32VW55x_standard_peripheral/Source\gd32vw55x_cau_aes.c ****     temp_tag[2] = cau_data_read();
 694:C:/Users/stapi/OneDrive/Desktop/GD32VW553/GD32VW55X_Wifi_BLE_SDK/GD32VW55x_RELEASE_V1.0.2/MSDK/plf/GD32VW55x_standard_peripheral/Source\gd32vw55x_cau_aes.c ****     temp_tag[3] = cau_data_read();
 695:C:/Users/stapi/OneDrive/Desktop/GD32VW553/GD32VW55X_Wifi_BLE_SDK/GD32VW55x_RELEASE_V1.0.2/MSDK/plf/GD32VW55x_standard_peripheral/Source\gd32vw55x_cau_aes.c **** 
 696:C:/Users/stapi/OneDrive/Desktop/GD32VW553/GD32VW55X_Wifi_BLE_SDK/GD32VW55x_RELEASE_V1.0.2/MSDK/plf/GD32VW55x_standard_peripheral/Source\gd32vw55x_cau_aes.c ****     /* disable the CAU peripheral */
 697:C:/Users/stapi/OneDrive/Desktop/GD32VW553/GD32VW55X_Wifi_BLE_SDK/GD32VW55x_RELEASE_V1.0.2/MSDK/plf/GD32VW55x_standard_peripheral/Source\gd32vw55x_cau_aes.c ****     cau_disable();
 698:C:/Users/stapi/OneDrive/Desktop/GD32VW553/GD32VW55X_Wifi_BLE_SDK/GD32VW55x_RELEASE_V1.0.2/MSDK/plf/GD32VW55x_standard_peripheral/Source\gd32vw55x_cau_aes.c **** 
 699:C:/Users/stapi/OneDrive/Desktop/GD32VW553/GD32VW55X_Wifi_BLE_SDK/GD32VW55x_RELEASE_V1.0.2/MSDK/plf/GD32VW55x_standard_peripheral/Source\gd32vw55x_cau_aes.c ****     /* Copy temporary authentication TAG in user TAG buffer */
 700:C:/Users/stapi/OneDrive/Desktop/GD32VW553/GD32VW55X_Wifi_BLE_SDK/GD32VW55x_RELEASE_V1.0.2/MSDK/plf/GD32VW55x_standard_peripheral/Source\gd32vw55x_cau_aes.c ****     for(i = 0U; i < tag_size; i++) {
 701:C:/Users/stapi/OneDrive/Desktop/GD32VW553/GD32VW55X_Wifi_BLE_SDK/GD32VW55x_RELEASE_V1.0.2/MSDK/plf/GD32VW55x_standard_peripheral/Source\gd32vw55x_cau_aes.c ****         tag[i] = (uint8_t)(temp_tag[i / 4U] >> (8U * (i % 4U)));
 702:C:/Users/stapi/OneDrive/Desktop/GD32VW553/GD32VW55X_Wifi_BLE_SDK/GD32VW55x_RELEASE_V1.0.2/MSDK/plf/GD32VW55x_standard_peripheral/Source\gd32vw55x_cau_aes.c ****     }
 703:C:/Users/stapi/OneDrive/Desktop/GD32VW553/GD32VW55X_Wifi_BLE_SDK/GD32VW55x_RELEASE_V1.0.2/MSDK/plf/GD32VW55x_standard_peripheral/Source\gd32vw55x_cau_aes.c **** 
 704:C:/Users/stapi/OneDrive/Desktop/GD32VW553/GD32VW55X_Wifi_BLE_SDK/GD32VW55x_RELEASE_V1.0.2/MSDK/plf/GD32VW55x_standard_peripheral/Source\gd32vw55x_cau_aes.c ****     return ret;
 705:C:/Users/stapi/OneDrive/Desktop/GD32VW553/GD32VW55X_Wifi_BLE_SDK/GD32VW55x_RELEASE_V1.0.2/MSDK/plf/GD32VW55x_standard_peripheral/Source\gd32vw55x_cau_aes.c **** }
 706:C:/Users/stapi/OneDrive/Desktop/GD32VW553/GD32VW55X_Wifi_BLE_SDK/GD32VW55x_RELEASE_V1.0.2/MSDK/plf/GD32VW55x_standard_peripheral/Source\gd32vw55x_cau_aes.c **** /*!
 707:C:/Users/stapi/OneDrive/Desktop/GD32VW553/GD32VW55X_Wifi_BLE_SDK/GD32VW55x_RELEASE_V1.0.2/MSDK/plf/GD32VW55x_standard_peripheral/Source\gd32vw55x_cau_aes.c ****     \brief      AES key structure parameter config
 708:C:/Users/stapi/OneDrive/Desktop/GD32VW553/GD32VW55X_Wifi_BLE_SDK/GD32VW55x_RELEASE_V1.0.2/MSDK/plf/GD32VW55x_standard_peripheral/Source\gd32vw55x_cau_aes.c ****     \param[in]  key: key used for AES algorithm
 709:C:/Users/stapi/OneDrive/Desktop/GD32VW553/GD32VW55X_Wifi_BLE_SDK/GD32VW55x_RELEASE_V1.0.2/MSDK/plf/GD32VW55x_standard_peripheral/Source\gd32vw55x_cau_aes.c ****     \param[in]  keysize: length of the key in bits, must be either 128, 192 or 256
 710:C:/Users/stapi/OneDrive/Desktop/GD32VW553/GD32VW55X_Wifi_BLE_SDK/GD32VW55x_RELEASE_V1.0.2/MSDK/plf/GD32VW55x_standard_peripheral/Source\gd32vw55x_cau_aes.c ****     \param[out] cau_key_initpara: key init parameter struct
 711:C:/Users/stapi/OneDrive/Desktop/GD32VW553/GD32VW55X_Wifi_BLE_SDK/GD32VW55x_RELEASE_V1.0.2/MSDK/plf/GD32VW55x_standard_peripheral/Source\gd32vw55x_cau_aes.c ****                   key_0_high: key 0 high
 712:C:/Users/stapi/OneDrive/Desktop/GD32VW553/GD32VW55X_Wifi_BLE_SDK/GD32VW55x_RELEASE_V1.0.2/MSDK/plf/GD32VW55x_standard_peripheral/Source\gd32vw55x_cau_aes.c ****                   key_0_low:  key 0 low
 713:C:/Users/stapi/OneDrive/Desktop/GD32VW553/GD32VW55X_Wifi_BLE_SDK/GD32VW55x_RELEASE_V1.0.2/MSDK/plf/GD32VW55x_standard_peripheral/Source\gd32vw55x_cau_aes.c ****                   key_1_high: key 1 high
 714:C:/Users/stapi/OneDrive/Desktop/GD32VW553/GD32VW55X_Wifi_BLE_SDK/GD32VW55x_RELEASE_V1.0.2/MSDK/plf/GD32VW55x_standard_peripheral/Source\gd32vw55x_cau_aes.c ****                   key_1_low:  key 1 low
 715:C:/Users/stapi/OneDrive/Desktop/GD32VW553/GD32VW55X_Wifi_BLE_SDK/GD32VW55x_RELEASE_V1.0.2/MSDK/plf/GD32VW55x_standard_peripheral/Source\gd32vw55x_cau_aes.c ****                   key_2_high: key 2 high
 716:C:/Users/stapi/OneDrive/Desktop/GD32VW553/GD32VW55X_Wifi_BLE_SDK/GD32VW55x_RELEASE_V1.0.2/MSDK/plf/GD32VW55x_standard_peripheral/Source\gd32vw55x_cau_aes.c ****                   key_2_low:  key 2 low
 717:C:/Users/stapi/OneDrive/Desktop/GD32VW553/GD32VW55X_Wifi_BLE_SDK/GD32VW55x_RELEASE_V1.0.2/MSDK/plf/GD32VW55x_standard_peripheral/Source\gd32vw55x_cau_aes.c ****                   key_3_high: key 3 high
 718:C:/Users/stapi/OneDrive/Desktop/GD32VW553/GD32VW55X_Wifi_BLE_SDK/GD32VW55x_RELEASE_V1.0.2/MSDK/plf/GD32VW55x_standard_peripheral/Source\gd32vw55x_cau_aes.c ****                   key_3_low:  key 3 low
 719:C:/Users/stapi/OneDrive/Desktop/GD32VW553/GD32VW55X_Wifi_BLE_SDK/GD32VW55x_RELEASE_V1.0.2/MSDK/plf/GD32VW55x_standard_peripheral/Source\gd32vw55x_cau_aes.c ****     \retval     none
 720:C:/Users/stapi/OneDrive/Desktop/GD32VW553/GD32VW55X_Wifi_BLE_SDK/GD32VW55x_RELEASE_V1.0.2/MSDK/plf/GD32VW55x_standard_peripheral/Source\gd32vw55x_cau_aes.c **** */
 721:C:/Users/stapi/OneDrive/Desktop/GD32VW553/GD32VW55X_Wifi_BLE_SDK/GD32VW55x_RELEASE_V1.0.2/MSDK/plf/GD32VW55x_standard_peripheral/Source\gd32vw55x_cau_aes.c **** static void cau_aes_key_config(uint8_t *key, uint32_t keysize, cau_key_parameter_struct *cau_key_in
 722:C:/Users/stapi/OneDrive/Desktop/GD32VW553/GD32VW55X_Wifi_BLE_SDK/GD32VW55x_RELEASE_V1.0.2/MSDK/plf/GD32VW55x_standard_peripheral/Source\gd32vw55x_cau_aes.c **** {
  15              		.loc 1 722 1
  16              		.cfi_startproc
  17              	.LVL0:
  18 0000 17030000 		call	t0,__riscv_save_2
  18      E7020300 
  19              		.cfi_offset 9, -12
  20              		.cfi_offset 8, -8
  21              		.cfi_offset 1, -4
  22              		.cfi_def_cfa_offset 16
 723:C:/Users/stapi/OneDrive/Desktop/GD32VW553/GD32VW55X_Wifi_BLE_SDK/GD32VW55x_RELEASE_V1.0.2/MSDK/plf/GD32VW55x_standard_peripheral/Source\gd32vw55x_cau_aes.c ****     uint32_t keyaddr = (uint32_t)key;
  23              		.loc 1 723 5
  24              	.LVL1:
 724:C:/Users/stapi/OneDrive/Desktop/GD32VW553/GD32VW55X_Wifi_BLE_SDK/GD32VW55x_RELEASE_V1.0.2/MSDK/plf/GD32VW55x_standard_peripheral/Source\gd32vw55x_cau_aes.c **** 
 725:C:/Users/stapi/OneDrive/Desktop/GD32VW553/GD32VW55X_Wifi_BLE_SDK/GD32VW55x_RELEASE_V1.0.2/MSDK/plf/GD32VW55x_standard_peripheral/Source\gd32vw55x_cau_aes.c ****     switch(keysize) {
  25              		.loc 1 725 5
  26 0008 9307000C 		li	a5,192
 722:C:/Users/stapi/OneDrive/Desktop/GD32VW553/GD32VW55X_Wifi_BLE_SDK/GD32VW55x_RELEASE_V1.0.2/MSDK/plf/GD32VW55x_standard_peripheral/Source\gd32vw55x_cau_aes.c ****     uint32_t keyaddr = (uint32_t)key;
  27              		.loc 1 722 1 is_stmt 0
  28 000c AA84     		mv	s1,a0
  29 000e 3284     		mv	s0,a2
  30              		.loc 1 725 5
  31 0010 6383F504 		beq	a1,a5,.L2
  32 0014 93070010 		li	a5,256
  33 0018 638BF506 		beq	a1,a5,.L3
  34 001c 93070008 		li	a5,128
  35 0020 6397F502 		bne	a1,a5,.L1
 726:C:/Users/stapi/OneDrive/Desktop/GD32VW553/GD32VW55X_Wifi_BLE_SDK/GD32VW55x_RELEASE_V1.0.2/MSDK/plf/GD32VW55x_standard_peripheral/Source\gd32vw55x_cau_aes.c ****     case 128:
 727:C:/Users/stapi/OneDrive/Desktop/GD32VW553/GD32VW55X_Wifi_BLE_SDK/GD32VW55x_RELEASE_V1.0.2/MSDK/plf/GD32VW55x_standard_peripheral/Source\gd32vw55x_cau_aes.c ****         cau_aes_keysize_config(CAU_KEYSIZE_128BIT);
  36              		.loc 1 727 9 is_stmt 1
  37 0024 0145     		li	a0,0
  38              	.LVL2:
  39 0026 97000000 		call	cau_aes_keysize_config
  39      E7800000 
  40              	.LVL3:
 728:C:/Users/stapi/OneDrive/Desktop/GD32VW553/GD32VW55X_Wifi_BLE_SDK/GD32VW55x_RELEASE_V1.0.2/MSDK/plf/GD32VW55x_standard_peripheral/Source\gd32vw55x_cau_aes.c ****         cau_key_initpara->key_2_high = __REV(*(uint32_t *)(keyaddr));
  41              		.loc 1 728 9
  42 002e 9C40     		lw	a5,0(s1)
  43 0030 93D78769 		rev8	a5,a5
  44              	.LVL4:
  45              	.LBB94:
  46              	.LBB95:
  47              		.file 2 "..\\..\\..\\..\\plf\\riscv\\NMSIS\\Core\\Include/core_compatiable.h"
   1:..\..\..\..\plf\riscv\NMSIS\Core\Include/core_compatiable.h **** /*
   2:..\..\..\..\plf\riscv\NMSIS\Core\Include/core_compatiable.h ****  * Copyright (c) 2019 Nuclei Limited. All rights reserved.
   3:..\..\..\..\plf\riscv\NMSIS\Core\Include/core_compatiable.h ****  *
   4:..\..\..\..\plf\riscv\NMSIS\Core\Include/core_compatiable.h ****  * SPDX-License-Identifier: Apache-2.0
   5:..\..\..\..\plf\riscv\NMSIS\Core\Include/core_compatiable.h ****  *
   6:..\..\..\..\plf\riscv\NMSIS\Core\Include/core_compatiable.h ****  * Licensed under the Apache License, Version 2.0 (the License); you may
   7:..\..\..\..\plf\riscv\NMSIS\Core\Include/core_compatiable.h ****  * not use this file except in compliance with the License.
   8:..\..\..\..\plf\riscv\NMSIS\Core\Include/core_compatiable.h ****  * You may obtain a copy of the License at
   9:..\..\..\..\plf\riscv\NMSIS\Core\Include/core_compatiable.h ****  *
  10:..\..\..\..\plf\riscv\NMSIS\Core\Include/core_compatiable.h ****  * www.apache.org/licenses/LICENSE-2.0
  11:..\..\..\..\plf\riscv\NMSIS\Core\Include/core_compatiable.h ****  *
  12:..\..\..\..\plf\riscv\NMSIS\Core\Include/core_compatiable.h ****  * Unless required by applicable law or agreed to in writing, software
  13:..\..\..\..\plf\riscv\NMSIS\Core\Include/core_compatiable.h ****  * distributed under the License is distributed on an AS IS BASIS, WITHOUT
  14:..\..\..\..\plf\riscv\NMSIS\Core\Include/core_compatiable.h ****  * WARRANTIES OR CONDITIONS OF ANY KIND, either express or implied.
  15:..\..\..\..\plf\riscv\NMSIS\Core\Include/core_compatiable.h ****  * See the License for the specific language governing permissions and
  16:..\..\..\..\plf\riscv\NMSIS\Core\Include/core_compatiable.h ****  * limitations under the License.
  17:..\..\..\..\plf\riscv\NMSIS\Core\Include/core_compatiable.h ****  */
  18:..\..\..\..\plf\riscv\NMSIS\Core\Include/core_compatiable.h **** #ifndef __CORE_COMPATIABLE_H__
  19:..\..\..\..\plf\riscv\NMSIS\Core\Include/core_compatiable.h **** #define __CORE_COMPATIABLE_H__
  20:..\..\..\..\plf\riscv\NMSIS\Core\Include/core_compatiable.h **** /*!
  21:..\..\..\..\plf\riscv\NMSIS\Core\Include/core_compatiable.h ****  * @file     core_compatiable.h
  22:..\..\..\..\plf\riscv\NMSIS\Core\Include/core_compatiable.h ****  * @brief    ARM compatiable function definitions header file
  23:..\..\..\..\plf\riscv\NMSIS\Core\Include/core_compatiable.h ****  */
  24:..\..\..\..\plf\riscv\NMSIS\Core\Include/core_compatiable.h **** #ifdef __cplusplus
  25:..\..\..\..\plf\riscv\NMSIS\Core\Include/core_compatiable.h ****  extern "C" {
  26:..\..\..\..\plf\riscv\NMSIS\Core\Include/core_compatiable.h **** #endif
  27:..\..\..\..\plf\riscv\NMSIS\Core\Include/core_compatiable.h **** 
  28:..\..\..\..\plf\riscv\NMSIS\Core\Include/core_compatiable.h **** /* ===== ARM Compatiable Functions ===== */
  29:..\..\..\..\plf\riscv\NMSIS\Core\Include/core_compatiable.h **** /**
  30:..\..\..\..\plf\riscv\NMSIS\Core\Include/core_compatiable.h ****  * \defgroup NMSIS_Core_ARMCompatiable_Functions   ARM Compatiable Functions
  31:..\..\..\..\plf\riscv\NMSIS\Core\Include/core_compatiable.h ****  * \ingroup  NMSIS_Core
  32:..\..\..\..\plf\riscv\NMSIS\Core\Include/core_compatiable.h ****  * \brief    A few functions that compatiable with ARM CMSIS-Core.
  33:..\..\..\..\plf\riscv\NMSIS\Core\Include/core_compatiable.h ****  * \details
  34:..\..\..\..\plf\riscv\NMSIS\Core\Include/core_compatiable.h ****  *
  35:..\..\..\..\plf\riscv\NMSIS\Core\Include/core_compatiable.h ****  * Here we provided a few functions that compatiable with ARM CMSIS-Core,
  36:..\..\..\..\plf\riscv\NMSIS\Core\Include/core_compatiable.h ****  * mostly used in the DSP and NN library.
  37:..\..\..\..\plf\riscv\NMSIS\Core\Include/core_compatiable.h ****  * @{
  38:..\..\..\..\plf\riscv\NMSIS\Core\Include/core_compatiable.h ****  */
  39:..\..\..\..\plf\riscv\NMSIS\Core\Include/core_compatiable.h **** /** \brief Instruction Synchronization Barrier, compatiable with ARM */
  40:..\..\..\..\plf\riscv\NMSIS\Core\Include/core_compatiable.h **** #define __ISB()                             __RWMB()
  41:..\..\..\..\plf\riscv\NMSIS\Core\Include/core_compatiable.h **** 
  42:..\..\..\..\plf\riscv\NMSIS\Core\Include/core_compatiable.h **** /** \brief Data Synchronization Barrier, compatiable with ARM */
  43:..\..\..\..\plf\riscv\NMSIS\Core\Include/core_compatiable.h **** #define __DSB()                             __RWMB()
  44:..\..\..\..\plf\riscv\NMSIS\Core\Include/core_compatiable.h **** 
  45:..\..\..\..\plf\riscv\NMSIS\Core\Include/core_compatiable.h **** /** \brief Data Memory Barrier, compatiable with ARM */
  46:..\..\..\..\plf\riscv\NMSIS\Core\Include/core_compatiable.h **** #define __DMB()                             __RWMB()
  47:..\..\..\..\plf\riscv\NMSIS\Core\Include/core_compatiable.h **** 
  48:..\..\..\..\plf\riscv\NMSIS\Core\Include/core_compatiable.h **** /** \brief LDRT Unprivileged (8 bit), ARM Compatiable */
  49:..\..\..\..\plf\riscv\NMSIS\Core\Include/core_compatiable.h **** #define __LDRBT(ptr)                        __LB((ptr))
  50:..\..\..\..\plf\riscv\NMSIS\Core\Include/core_compatiable.h **** /** \brief LDRT Unprivileged (16 bit), ARM Compatiable */
  51:..\..\..\..\plf\riscv\NMSIS\Core\Include/core_compatiable.h **** #define __LDRHT(ptr)                        __LH((ptr))
  52:..\..\..\..\plf\riscv\NMSIS\Core\Include/core_compatiable.h **** /** \brief LDRT Unprivileged (32 bit), ARM Compatiable */
  53:..\..\..\..\plf\riscv\NMSIS\Core\Include/core_compatiable.h **** #define __LDRT(ptr)                         __LW((ptr))
  54:..\..\..\..\plf\riscv\NMSIS\Core\Include/core_compatiable.h **** 
  55:..\..\..\..\plf\riscv\NMSIS\Core\Include/core_compatiable.h **** /** \brief STRT Unprivileged (8 bit), ARM Compatiable */
  56:..\..\..\..\plf\riscv\NMSIS\Core\Include/core_compatiable.h **** #define __STRBT(val, ptr)                   __SB((ptr), (val))
  57:..\..\..\..\plf\riscv\NMSIS\Core\Include/core_compatiable.h **** /** \brief STRT Unprivileged (16 bit), ARM Compatiable */
  58:..\..\..\..\plf\riscv\NMSIS\Core\Include/core_compatiable.h **** #define __STRHT(val, ptr)                   __SH((ptr), (val))
  59:..\..\..\..\plf\riscv\NMSIS\Core\Include/core_compatiable.h **** /** \brief STRT Unprivileged (32 bit), ARM Compatiable */
  60:..\..\..\..\plf\riscv\NMSIS\Core\Include/core_compatiable.h **** #define __STRT(val, ptr)                    __SW((ptr), (val))
  61:..\..\..\..\plf\riscv\NMSIS\Core\Include/core_compatiable.h **** 
  62:..\..\..\..\plf\riscv\NMSIS\Core\Include/core_compatiable.h **** /* ===== Saturation Operations ===== */
  63:..\..\..\..\plf\riscv\NMSIS\Core\Include/core_compatiable.h **** /**
  64:..\..\..\..\plf\riscv\NMSIS\Core\Include/core_compatiable.h ****  * \brief   Signed Saturate
  65:..\..\..\..\plf\riscv\NMSIS\Core\Include/core_compatiable.h ****  * \details Saturates a signed value.
  66:..\..\..\..\plf\riscv\NMSIS\Core\Include/core_compatiable.h ****  * \param [in]  value  Value to be saturated
  67:..\..\..\..\plf\riscv\NMSIS\Core\Include/core_compatiable.h ****  * \param [in]    sat  Bit position to saturate to (1..32)
  68:..\..\..\..\plf\riscv\NMSIS\Core\Include/core_compatiable.h ****  * \return             Saturated value
  69:..\..\..\..\plf\riscv\NMSIS\Core\Include/core_compatiable.h ****  */
  70:..\..\..\..\plf\riscv\NMSIS\Core\Include/core_compatiable.h **** #if defined(__DSP_PRESENT) && (__DSP_PRESENT == 1)
  71:..\..\..\..\plf\riscv\NMSIS\Core\Include/core_compatiable.h **** #define __SSAT(val, sat)          __RV_SCLIP32((val), (sat-1))
  72:..\..\..\..\plf\riscv\NMSIS\Core\Include/core_compatiable.h **** #else
  73:..\..\..\..\plf\riscv\NMSIS\Core\Include/core_compatiable.h **** __STATIC_FORCEINLINE int32_t __SSAT(int32_t val, uint32_t sat)
  74:..\..\..\..\plf\riscv\NMSIS\Core\Include/core_compatiable.h **** {
  75:..\..\..\..\plf\riscv\NMSIS\Core\Include/core_compatiable.h ****     if ((sat >= 1U) && (sat <= 32U)) {
  76:..\..\..\..\plf\riscv\NMSIS\Core\Include/core_compatiable.h ****         const int32_t max = (int32_t)((1U << (sat - 1U)) - 1U);
  77:..\..\..\..\plf\riscv\NMSIS\Core\Include/core_compatiable.h ****         const int32_t min = -1 - max ;
  78:..\..\..\..\plf\riscv\NMSIS\Core\Include/core_compatiable.h ****         if (val > max) {
  79:..\..\..\..\plf\riscv\NMSIS\Core\Include/core_compatiable.h ****             return max;
  80:..\..\..\..\plf\riscv\NMSIS\Core\Include/core_compatiable.h ****         } else if (val < min) {
  81:..\..\..\..\plf\riscv\NMSIS\Core\Include/core_compatiable.h ****             return min;
  82:..\..\..\..\plf\riscv\NMSIS\Core\Include/core_compatiable.h ****         }
  83:..\..\..\..\plf\riscv\NMSIS\Core\Include/core_compatiable.h ****     }
  84:..\..\..\..\plf\riscv\NMSIS\Core\Include/core_compatiable.h ****     return val;
  85:..\..\..\..\plf\riscv\NMSIS\Core\Include/core_compatiable.h **** }
  86:..\..\..\..\plf\riscv\NMSIS\Core\Include/core_compatiable.h **** #endif
  87:..\..\..\..\plf\riscv\NMSIS\Core\Include/core_compatiable.h **** 
  88:..\..\..\..\plf\riscv\NMSIS\Core\Include/core_compatiable.h **** /**
  89:..\..\..\..\plf\riscv\NMSIS\Core\Include/core_compatiable.h ****  * \brief   Unsigned Saturate
  90:..\..\..\..\plf\riscv\NMSIS\Core\Include/core_compatiable.h ****  * \details Saturates an unsigned value.
  91:..\..\..\..\plf\riscv\NMSIS\Core\Include/core_compatiable.h ****  * \param [in]  value  Value to be saturated
  92:..\..\..\..\plf\riscv\NMSIS\Core\Include/core_compatiable.h ****  * \param [in]    sat  Bit position to saturate to (0..31)
  93:..\..\..\..\plf\riscv\NMSIS\Core\Include/core_compatiable.h ****  * \return             Saturated value
  94:..\..\..\..\plf\riscv\NMSIS\Core\Include/core_compatiable.h ****  */
  95:..\..\..\..\plf\riscv\NMSIS\Core\Include/core_compatiable.h **** #if defined(__DSP_PRESENT) && (__DSP_PRESENT == 1)
  96:..\..\..\..\plf\riscv\NMSIS\Core\Include/core_compatiable.h **** #define __USAT(val, sat)        __RV_UCLIP32((val), (sat))
  97:..\..\..\..\plf\riscv\NMSIS\Core\Include/core_compatiable.h **** #else
  98:..\..\..\..\plf\riscv\NMSIS\Core\Include/core_compatiable.h **** __STATIC_FORCEINLINE uint32_t __USAT(int32_t val, uint32_t sat)
  99:..\..\..\..\plf\riscv\NMSIS\Core\Include/core_compatiable.h **** {
 100:..\..\..\..\plf\riscv\NMSIS\Core\Include/core_compatiable.h ****     if (sat <= 31U) {
 101:..\..\..\..\plf\riscv\NMSIS\Core\Include/core_compatiable.h ****         const uint32_t max = ((1U << sat) - 1U);
 102:..\..\..\..\plf\riscv\NMSIS\Core\Include/core_compatiable.h ****         if (val > (int32_t)max) {
 103:..\..\..\..\plf\riscv\NMSIS\Core\Include/core_compatiable.h ****             return max;
 104:..\..\..\..\plf\riscv\NMSIS\Core\Include/core_compatiable.h ****         } else if (val < 0) {
 105:..\..\..\..\plf\riscv\NMSIS\Core\Include/core_compatiable.h ****             return 0U;
 106:..\..\..\..\plf\riscv\NMSIS\Core\Include/core_compatiable.h ****         }
 107:..\..\..\..\plf\riscv\NMSIS\Core\Include/core_compatiable.h ****     }
 108:..\..\..\..\plf\riscv\NMSIS\Core\Include/core_compatiable.h ****     return (uint32_t)val;
 109:..\..\..\..\plf\riscv\NMSIS\Core\Include/core_compatiable.h **** }
 110:..\..\..\..\plf\riscv\NMSIS\Core\Include/core_compatiable.h **** #endif
 111:..\..\..\..\plf\riscv\NMSIS\Core\Include/core_compatiable.h **** 
 112:..\..\..\..\plf\riscv\NMSIS\Core\Include/core_compatiable.h **** /* ===== Data Processing Operations ===== */
 113:..\..\..\..\plf\riscv\NMSIS\Core\Include/core_compatiable.h **** /**
 114:..\..\..\..\plf\riscv\NMSIS\Core\Include/core_compatiable.h ****  * \brief   Reverse byte order (32 bit)
 115:..\..\..\..\plf\riscv\NMSIS\Core\Include/core_compatiable.h ****  * \details Reverses the byte order in unsigned integer value.
 116:..\..\..\..\plf\riscv\NMSIS\Core\Include/core_compatiable.h ****  * For example, 0x12345678 becomes 0x78563412.
 117:..\..\..\..\plf\riscv\NMSIS\Core\Include/core_compatiable.h ****  * \param [in]    value  Value to reverse
 118:..\..\..\..\plf\riscv\NMSIS\Core\Include/core_compatiable.h ****  * \return               Reversed value
 119:..\..\..\..\plf\riscv\NMSIS\Core\Include/core_compatiable.h ****  */
 120:..\..\..\..\plf\riscv\NMSIS\Core\Include/core_compatiable.h **** __STATIC_FORCEINLINE uint32_t __REV(uint32_t value)
 121:..\..\..\..\plf\riscv\NMSIS\Core\Include/core_compatiable.h **** {
 122:..\..\..\..\plf\riscv\NMSIS\Core\Include/core_compatiable.h ****     uint32_t result;
  48              		.loc 2 122 5
 123:..\..\..\..\plf\riscv\NMSIS\Core\Include/core_compatiable.h **** 
 124:..\..\..\..\plf\riscv\NMSIS\Core\Include/core_compatiable.h ****     result =  ((value & 0xff000000) >> 24)
  49              		.loc 2 124 5
 125:..\..\..\..\plf\riscv\NMSIS\Core\Include/core_compatiable.h ****         | ((value & 0x00ff0000) >> 8 )
 126:..\..\..\..\plf\riscv\NMSIS\Core\Include/core_compatiable.h ****         | ((value & 0x0000ff00) << 8 )
 127:..\..\..\..\plf\riscv\NMSIS\Core\Include/core_compatiable.h ****         | ((value & 0x000000ff) << 24);
 128:..\..\..\..\plf\riscv\NMSIS\Core\Include/core_compatiable.h ****     return result;
  50              		.loc 2 128 5
  51              	.LBE95:
  52              	.LBE94:
  53              		.loc 1 728 38 is_stmt 0
  54 0034 1CC8     		sw	a5,16(s0)
 729:C:/Users/stapi/OneDrive/Desktop/GD32VW553/GD32VW55X_Wifi_BLE_SDK/GD32VW55x_RELEASE_V1.0.2/MSDK/plf/GD32VW55x_standard_peripheral/Source\gd32vw55x_cau_aes.c ****         keyaddr += 4U;
  55              		.loc 1 729 9 is_stmt 1
  56              	.LVL5:
 730:C:/Users/stapi/OneDrive/Desktop/GD32VW553/GD32VW55X_Wifi_BLE_SDK/GD32VW55x_RELEASE_V1.0.2/MSDK/plf/GD32VW55x_standard_peripheral/Source\gd32vw55x_cau_aes.c ****         cau_key_initpara->key_2_low  = __REV(*(uint32_t *)(keyaddr));
  57              		.loc 1 730 9
  58 0036 DC40     		lw	a5,4(s1)
  59 0038 93D78769 		rev8	a5,a5
  60              	.LVL6:
  61              	.LBB96:
  62              	.LBB97:
 122:..\..\..\..\plf\riscv\NMSIS\Core\Include/core_compatiable.h **** 
  63              		.loc 2 122 5
 124:..\..\..\..\plf\riscv\NMSIS\Core\Include/core_compatiable.h ****         | ((value & 0x00ff0000) >> 8 )
  64              		.loc 2 124 5
  65              		.loc 2 128 5
  66              	.LBE97:
  67              	.LBE96:
  68              		.loc 1 730 38 is_stmt 0
  69 003c 5CC8     		sw	a5,20(s0)
 731:C:/Users/stapi/OneDrive/Desktop/GD32VW553/GD32VW55X_Wifi_BLE_SDK/GD32VW55x_RELEASE_V1.0.2/MSDK/plf/GD32VW55x_standard_peripheral/Source\gd32vw55x_cau_aes.c ****         keyaddr += 4U;
  70              		.loc 1 731 9 is_stmt 1
  71              	.LVL7:
 732:C:/Users/stapi/OneDrive/Desktop/GD32VW553/GD32VW55X_Wifi_BLE_SDK/GD32VW55x_RELEASE_V1.0.2/MSDK/plf/GD32VW55x_standard_peripheral/Source\gd32vw55x_cau_aes.c ****         cau_key_initpara->key_3_high = __REV(*(uint32_t *)(keyaddr));
  72              		.loc 1 732 9
  73 003e 9C44     		lw	a5,8(s1)
  74 0040 93D78769 		rev8	a5,a5
  75              	.LVL8:
  76              	.LBB98:
  77              	.LBB99:
 122:..\..\..\..\plf\riscv\NMSIS\Core\Include/core_compatiable.h **** 
  78              		.loc 2 122 5
 124:..\..\..\..\plf\riscv\NMSIS\Core\Include/core_compatiable.h ****         | ((value & 0x00ff0000) >> 8 )
  79              		.loc 2 124 5
  80              		.loc 2 128 5
  81              	.LBE99:
  82              	.LBE98:
  83              		.loc 1 732 38 is_stmt 0
  84 0044 1CCC     		sw	a5,24(s0)
 733:C:/Users/stapi/OneDrive/Desktop/GD32VW553/GD32VW55X_Wifi_BLE_SDK/GD32VW55x_RELEASE_V1.0.2/MSDK/plf/GD32VW55x_standard_peripheral/Source\gd32vw55x_cau_aes.c ****         keyaddr += 4U;
  85              		.loc 1 733 9 is_stmt 1
  86              	.LVL9:
 734:C:/Users/stapi/OneDrive/Desktop/GD32VW553/GD32VW55X_Wifi_BLE_SDK/GD32VW55x_RELEASE_V1.0.2/MSDK/plf/GD32VW55x_standard_peripheral/Source\gd32vw55x_cau_aes.c ****         cau_key_initpara->key_3_low  = __REV(*(uint32_t *)(keyaddr));
  87              		.loc 1 734 9
  88 0046 DC44     		lw	a5,12(s1)
  89              	.LVL10:
  90              	.L6:
  91 0048 93D78769 		rev8	a5,a5
  92              	.LVL11:
  93              	.LBB100:
  94              	.LBB101:
 122:..\..\..\..\plf\riscv\NMSIS\Core\Include/core_compatiable.h **** 
  95              		.loc 2 122 5
 124:..\..\..\..\plf\riscv\NMSIS\Core\Include/core_compatiable.h ****         | ((value & 0x00ff0000) >> 8 )
  96              		.loc 2 124 5
  97              		.loc 2 128 5
  98              	.LBE101:
  99              	.LBE100:
 735:C:/Users/stapi/OneDrive/Desktop/GD32VW553/GD32VW55X_Wifi_BLE_SDK/GD32VW55x_RELEASE_V1.0.2/MSDK/plf/GD32VW55x_standard_peripheral/Source\gd32vw55x_cau_aes.c ****         break;
 736:C:/Users/stapi/OneDrive/Desktop/GD32VW553/GD32VW55X_Wifi_BLE_SDK/GD32VW55x_RELEASE_V1.0.2/MSDK/plf/GD32VW55x_standard_peripheral/Source\gd32vw55x_cau_aes.c ****     case 192:
 737:C:/Users/stapi/OneDrive/Desktop/GD32VW553/GD32VW55X_Wifi_BLE_SDK/GD32VW55x_RELEASE_V1.0.2/MSDK/plf/GD32VW55x_standard_peripheral/Source\gd32vw55x_cau_aes.c ****         cau_aes_keysize_config(CAU_KEYSIZE_192BIT);
 738:C:/Users/stapi/OneDrive/Desktop/GD32VW553/GD32VW55X_Wifi_BLE_SDK/GD32VW55x_RELEASE_V1.0.2/MSDK/plf/GD32VW55x_standard_peripheral/Source\gd32vw55x_cau_aes.c ****         cau_key_initpara->key_1_high = __REV(*(uint32_t *)(keyaddr));
 739:C:/Users/stapi/OneDrive/Desktop/GD32VW553/GD32VW55X_Wifi_BLE_SDK/GD32VW55x_RELEASE_V1.0.2/MSDK/plf/GD32VW55x_standard_peripheral/Source\gd32vw55x_cau_aes.c ****         keyaddr += 4U;
 740:C:/Users/stapi/OneDrive/Desktop/GD32VW553/GD32VW55X_Wifi_BLE_SDK/GD32VW55x_RELEASE_V1.0.2/MSDK/plf/GD32VW55x_standard_peripheral/Source\gd32vw55x_cau_aes.c ****         cau_key_initpara->key_1_low  = __REV(*(uint32_t *)(keyaddr));
 741:C:/Users/stapi/OneDrive/Desktop/GD32VW553/GD32VW55X_Wifi_BLE_SDK/GD32VW55x_RELEASE_V1.0.2/MSDK/plf/GD32VW55x_standard_peripheral/Source\gd32vw55x_cau_aes.c ****         keyaddr += 4U;
 742:C:/Users/stapi/OneDrive/Desktop/GD32VW553/GD32VW55X_Wifi_BLE_SDK/GD32VW55x_RELEASE_V1.0.2/MSDK/plf/GD32VW55x_standard_peripheral/Source\gd32vw55x_cau_aes.c ****         cau_key_initpara->key_2_high = __REV(*(uint32_t *)(keyaddr));
 743:C:/Users/stapi/OneDrive/Desktop/GD32VW553/GD32VW55X_Wifi_BLE_SDK/GD32VW55x_RELEASE_V1.0.2/MSDK/plf/GD32VW55x_standard_peripheral/Source\gd32vw55x_cau_aes.c ****         keyaddr += 4U;
 744:C:/Users/stapi/OneDrive/Desktop/GD32VW553/GD32VW55X_Wifi_BLE_SDK/GD32VW55x_RELEASE_V1.0.2/MSDK/plf/GD32VW55x_standard_peripheral/Source\gd32vw55x_cau_aes.c ****         cau_key_initpara->key_2_low  = __REV(*(uint32_t *)(keyaddr));
 745:C:/Users/stapi/OneDrive/Desktop/GD32VW553/GD32VW55X_Wifi_BLE_SDK/GD32VW55x_RELEASE_V1.0.2/MSDK/plf/GD32VW55x_standard_peripheral/Source\gd32vw55x_cau_aes.c ****         keyaddr += 4U;
 746:C:/Users/stapi/OneDrive/Desktop/GD32VW553/GD32VW55X_Wifi_BLE_SDK/GD32VW55x_RELEASE_V1.0.2/MSDK/plf/GD32VW55x_standard_peripheral/Source\gd32vw55x_cau_aes.c ****         cau_key_initpara->key_3_high = __REV(*(uint32_t *)(keyaddr));
 747:C:/Users/stapi/OneDrive/Desktop/GD32VW553/GD32VW55X_Wifi_BLE_SDK/GD32VW55x_RELEASE_V1.0.2/MSDK/plf/GD32VW55x_standard_peripheral/Source\gd32vw55x_cau_aes.c ****         keyaddr += 4U;
 748:C:/Users/stapi/OneDrive/Desktop/GD32VW553/GD32VW55X_Wifi_BLE_SDK/GD32VW55x_RELEASE_V1.0.2/MSDK/plf/GD32VW55x_standard_peripheral/Source\gd32vw55x_cau_aes.c ****         cau_key_initpara->key_3_low  = __REV(*(uint32_t *)(keyaddr));
 749:C:/Users/stapi/OneDrive/Desktop/GD32VW553/GD32VW55X_Wifi_BLE_SDK/GD32VW55x_RELEASE_V1.0.2/MSDK/plf/GD32VW55x_standard_peripheral/Source\gd32vw55x_cau_aes.c ****         break;
 750:C:/Users/stapi/OneDrive/Desktop/GD32VW553/GD32VW55X_Wifi_BLE_SDK/GD32VW55x_RELEASE_V1.0.2/MSDK/plf/GD32VW55x_standard_peripheral/Source\gd32vw55x_cau_aes.c ****     case 256:
 751:C:/Users/stapi/OneDrive/Desktop/GD32VW553/GD32VW55X_Wifi_BLE_SDK/GD32VW55x_RELEASE_V1.0.2/MSDK/plf/GD32VW55x_standard_peripheral/Source\gd32vw55x_cau_aes.c ****         cau_aes_keysize_config(CAU_KEYSIZE_256BIT);
 752:C:/Users/stapi/OneDrive/Desktop/GD32VW553/GD32VW55X_Wifi_BLE_SDK/GD32VW55x_RELEASE_V1.0.2/MSDK/plf/GD32VW55x_standard_peripheral/Source\gd32vw55x_cau_aes.c ****         cau_key_initpara->key_0_high = __REV(*(uint32_t *)(keyaddr));
 753:C:/Users/stapi/OneDrive/Desktop/GD32VW553/GD32VW55X_Wifi_BLE_SDK/GD32VW55x_RELEASE_V1.0.2/MSDK/plf/GD32VW55x_standard_peripheral/Source\gd32vw55x_cau_aes.c ****         keyaddr += 4U;
 754:C:/Users/stapi/OneDrive/Desktop/GD32VW553/GD32VW55X_Wifi_BLE_SDK/GD32VW55x_RELEASE_V1.0.2/MSDK/plf/GD32VW55x_standard_peripheral/Source\gd32vw55x_cau_aes.c ****         cau_key_initpara->key_0_low  = __REV(*(uint32_t *)(keyaddr));
 755:C:/Users/stapi/OneDrive/Desktop/GD32VW553/GD32VW55X_Wifi_BLE_SDK/GD32VW55x_RELEASE_V1.0.2/MSDK/plf/GD32VW55x_standard_peripheral/Source\gd32vw55x_cau_aes.c ****         keyaddr += 4U;
 756:C:/Users/stapi/OneDrive/Desktop/GD32VW553/GD32VW55X_Wifi_BLE_SDK/GD32VW55x_RELEASE_V1.0.2/MSDK/plf/GD32VW55x_standard_peripheral/Source\gd32vw55x_cau_aes.c ****         cau_key_initpara->key_1_high = __REV(*(uint32_t *)(keyaddr));
 757:C:/Users/stapi/OneDrive/Desktop/GD32VW553/GD32VW55X_Wifi_BLE_SDK/GD32VW55x_RELEASE_V1.0.2/MSDK/plf/GD32VW55x_standard_peripheral/Source\gd32vw55x_cau_aes.c ****         keyaddr += 4U;
 758:C:/Users/stapi/OneDrive/Desktop/GD32VW553/GD32VW55X_Wifi_BLE_SDK/GD32VW55x_RELEASE_V1.0.2/MSDK/plf/GD32VW55x_standard_peripheral/Source\gd32vw55x_cau_aes.c ****         cau_key_initpara->key_1_low  = __REV(*(uint32_t *)(keyaddr));
 759:C:/Users/stapi/OneDrive/Desktop/GD32VW553/GD32VW55X_Wifi_BLE_SDK/GD32VW55x_RELEASE_V1.0.2/MSDK/plf/GD32VW55x_standard_peripheral/Source\gd32vw55x_cau_aes.c ****         keyaddr += 4U;
 760:C:/Users/stapi/OneDrive/Desktop/GD32VW553/GD32VW55X_Wifi_BLE_SDK/GD32VW55x_RELEASE_V1.0.2/MSDK/plf/GD32VW55x_standard_peripheral/Source\gd32vw55x_cau_aes.c ****         cau_key_initpara->key_2_high = __REV(*(uint32_t *)(keyaddr));
 761:C:/Users/stapi/OneDrive/Desktop/GD32VW553/GD32VW55X_Wifi_BLE_SDK/GD32VW55x_RELEASE_V1.0.2/MSDK/plf/GD32VW55x_standard_peripheral/Source\gd32vw55x_cau_aes.c ****         keyaddr += 4U;
 762:C:/Users/stapi/OneDrive/Desktop/GD32VW553/GD32VW55X_Wifi_BLE_SDK/GD32VW55x_RELEASE_V1.0.2/MSDK/plf/GD32VW55x_standard_peripheral/Source\gd32vw55x_cau_aes.c ****         cau_key_initpara->key_2_low  = __REV(*(uint32_t *)(keyaddr));
 763:C:/Users/stapi/OneDrive/Desktop/GD32VW553/GD32VW55X_Wifi_BLE_SDK/GD32VW55x_RELEASE_V1.0.2/MSDK/plf/GD32VW55x_standard_peripheral/Source\gd32vw55x_cau_aes.c ****         keyaddr += 4U;
 764:C:/Users/stapi/OneDrive/Desktop/GD32VW553/GD32VW55X_Wifi_BLE_SDK/GD32VW55x_RELEASE_V1.0.2/MSDK/plf/GD32VW55x_standard_peripheral/Source\gd32vw55x_cau_aes.c ****         cau_key_initpara->key_3_high = __REV(*(uint32_t *)(keyaddr));
 765:C:/Users/stapi/OneDrive/Desktop/GD32VW553/GD32VW55X_Wifi_BLE_SDK/GD32VW55x_RELEASE_V1.0.2/MSDK/plf/GD32VW55x_standard_peripheral/Source\gd32vw55x_cau_aes.c ****         keyaddr += 4U;
 766:C:/Users/stapi/OneDrive/Desktop/GD32VW553/GD32VW55X_Wifi_BLE_SDK/GD32VW55x_RELEASE_V1.0.2/MSDK/plf/GD32VW55x_standard_peripheral/Source\gd32vw55x_cau_aes.c ****         cau_key_initpara->key_3_low  = __REV(*(uint32_t *)(keyaddr));
 100              		.loc 1 766 38 is_stmt 0
 101 004c 5CCC     		sw	a5,28(s0)
 767:C:/Users/stapi/OneDrive/Desktop/GD32VW553/GD32VW55X_Wifi_BLE_SDK/GD32VW55x_RELEASE_V1.0.2/MSDK/plf/GD32VW55x_standard_peripheral/Source\gd32vw55x_cau_aes.c ****         break;
 102              		.loc 1 767 9 is_stmt 1
 103              	.L1:
 768:C:/Users/stapi/OneDrive/Desktop/GD32VW553/GD32VW55X_Wifi_BLE_SDK/GD32VW55x_RELEASE_V1.0.2/MSDK/plf/GD32VW55x_standard_peripheral/Source\gd32vw55x_cau_aes.c ****     default:
 769:C:/Users/stapi/OneDrive/Desktop/GD32VW553/GD32VW55X_Wifi_BLE_SDK/GD32VW55x_RELEASE_V1.0.2/MSDK/plf/GD32VW55x_standard_peripheral/Source\gd32vw55x_cau_aes.c ****         break;
 770:C:/Users/stapi/OneDrive/Desktop/GD32VW553/GD32VW55X_Wifi_BLE_SDK/GD32VW55x_RELEASE_V1.0.2/MSDK/plf/GD32VW55x_standard_peripheral/Source\gd32vw55x_cau_aes.c ****     }
 771:C:/Users/stapi/OneDrive/Desktop/GD32VW553/GD32VW55X_Wifi_BLE_SDK/GD32VW55x_RELEASE_V1.0.2/MSDK/plf/GD32VW55x_standard_peripheral/Source\gd32vw55x_cau_aes.c **** }
 104              		.loc 1 771 1 is_stmt 0
 105 004e 17030000 		tail	__riscv_restore_2
 105      67000300 
 106              		.cfi_remember_state
 107              		.cfi_restore 9
 108              		.cfi_restore 8
 109              		.cfi_restore 1
 110              		.cfi_def_cfa_offset 0
 111              	.LVL12:
 112              	.L2:
 113              		.cfi_restore_state
 737:C:/Users/stapi/OneDrive/Desktop/GD32VW553/GD32VW55X_Wifi_BLE_SDK/GD32VW55x_RELEASE_V1.0.2/MSDK/plf/GD32VW55x_standard_peripheral/Source\gd32vw55x_cau_aes.c ****         cau_key_initpara->key_1_high = __REV(*(uint32_t *)(keyaddr));
 114              		.loc 1 737 9 is_stmt 1
 115 0056 13050010 		li	a0,256
 116 005a 97000000 		call	cau_aes_keysize_config
 116      E7800000 
 117              	.LVL13:
 738:C:/Users/stapi/OneDrive/Desktop/GD32VW553/GD32VW55X_Wifi_BLE_SDK/GD32VW55x_RELEASE_V1.0.2/MSDK/plf/GD32VW55x_standard_peripheral/Source\gd32vw55x_cau_aes.c ****         keyaddr += 4U;
 118              		.loc 1 738 9
 119 0062 9C40     		lw	a5,0(s1)
 120 0064 93D78769 		rev8	a5,a5
 121              	.LVL14:
 122              	.LBB102:
 123              	.LBB103:
 122:..\..\..\..\plf\riscv\NMSIS\Core\Include/core_compatiable.h **** 
 124              		.loc 2 122 5
 124:..\..\..\..\plf\riscv\NMSIS\Core\Include/core_compatiable.h ****         | ((value & 0x00ff0000) >> 8 )
 125              		.loc 2 124 5
 126              		.loc 2 128 5
 127              	.LBE103:
 128              	.LBE102:
 738:C:/Users/stapi/OneDrive/Desktop/GD32VW553/GD32VW55X_Wifi_BLE_SDK/GD32VW55x_RELEASE_V1.0.2/MSDK/plf/GD32VW55x_standard_peripheral/Source\gd32vw55x_cau_aes.c ****         keyaddr += 4U;
 129              		.loc 1 738 38 is_stmt 0
 130 0068 1CC4     		sw	a5,8(s0)
 739:C:/Users/stapi/OneDrive/Desktop/GD32VW553/GD32VW55X_Wifi_BLE_SDK/GD32VW55x_RELEASE_V1.0.2/MSDK/plf/GD32VW55x_standard_peripheral/Source\gd32vw55x_cau_aes.c ****         cau_key_initpara->key_1_low  = __REV(*(uint32_t *)(keyaddr));
 131              		.loc 1 739 9 is_stmt 1
 132              	.LVL15:
 740:C:/Users/stapi/OneDrive/Desktop/GD32VW553/GD32VW55X_Wifi_BLE_SDK/GD32VW55x_RELEASE_V1.0.2/MSDK/plf/GD32VW55x_standard_peripheral/Source\gd32vw55x_cau_aes.c ****         keyaddr += 4U;
 133              		.loc 1 740 9
 134 006a DC40     		lw	a5,4(s1)
 135 006c 93D78769 		rev8	a5,a5
 136              	.LVL16:
 137              	.LBB104:
 138              	.LBB105:
 122:..\..\..\..\plf\riscv\NMSIS\Core\Include/core_compatiable.h **** 
 139              		.loc 2 122 5
 124:..\..\..\..\plf\riscv\NMSIS\Core\Include/core_compatiable.h ****         | ((value & 0x00ff0000) >> 8 )
 140              		.loc 2 124 5
 141              		.loc 2 128 5
 142              	.LBE105:
 143              	.LBE104:
 740:C:/Users/stapi/OneDrive/Desktop/GD32VW553/GD32VW55X_Wifi_BLE_SDK/GD32VW55x_RELEASE_V1.0.2/MSDK/plf/GD32VW55x_standard_peripheral/Source\gd32vw55x_cau_aes.c ****         keyaddr += 4U;
 144              		.loc 1 740 38 is_stmt 0
 145 0070 5CC4     		sw	a5,12(s0)
 741:C:/Users/stapi/OneDrive/Desktop/GD32VW553/GD32VW55X_Wifi_BLE_SDK/GD32VW55x_RELEASE_V1.0.2/MSDK/plf/GD32VW55x_standard_peripheral/Source\gd32vw55x_cau_aes.c ****         cau_key_initpara->key_2_high = __REV(*(uint32_t *)(keyaddr));
 146              		.loc 1 741 9 is_stmt 1
 147              	.LVL17:
 742:C:/Users/stapi/OneDrive/Desktop/GD32VW553/GD32VW55X_Wifi_BLE_SDK/GD32VW55x_RELEASE_V1.0.2/MSDK/plf/GD32VW55x_standard_peripheral/Source\gd32vw55x_cau_aes.c ****         keyaddr += 4U;
 148              		.loc 1 742 9
 149 0072 9C44     		lw	a5,8(s1)
 150 0074 93D78769 		rev8	a5,a5
 151              	.LVL18:
 152              	.LBB106:
 153              	.LBB107:
 122:..\..\..\..\plf\riscv\NMSIS\Core\Include/core_compatiable.h **** 
 154              		.loc 2 122 5
 124:..\..\..\..\plf\riscv\NMSIS\Core\Include/core_compatiable.h ****         | ((value & 0x00ff0000) >> 8 )
 155              		.loc 2 124 5
 156              		.loc 2 128 5
 157              	.LBE107:
 158              	.LBE106:
 742:C:/Users/stapi/OneDrive/Desktop/GD32VW553/GD32VW55X_Wifi_BLE_SDK/GD32VW55x_RELEASE_V1.0.2/MSDK/plf/GD32VW55x_standard_peripheral/Source\gd32vw55x_cau_aes.c ****         keyaddr += 4U;
 159              		.loc 1 742 38 is_stmt 0
 160 0078 1CC8     		sw	a5,16(s0)
 743:C:/Users/stapi/OneDrive/Desktop/GD32VW553/GD32VW55X_Wifi_BLE_SDK/GD32VW55x_RELEASE_V1.0.2/MSDK/plf/GD32VW55x_standard_peripheral/Source\gd32vw55x_cau_aes.c ****         cau_key_initpara->key_2_low  = __REV(*(uint32_t *)(keyaddr));
 161              		.loc 1 743 9 is_stmt 1
 162              	.LVL19:
 744:C:/Users/stapi/OneDrive/Desktop/GD32VW553/GD32VW55X_Wifi_BLE_SDK/GD32VW55x_RELEASE_V1.0.2/MSDK/plf/GD32VW55x_standard_peripheral/Source\gd32vw55x_cau_aes.c ****         keyaddr += 4U;
 163              		.loc 1 744 9
 164 007a DC44     		lw	a5,12(s1)
 165 007c 93D78769 		rev8	a5,a5
 166              	.LVL20:
 167              	.LBB108:
 168              	.LBB109:
 122:..\..\..\..\plf\riscv\NMSIS\Core\Include/core_compatiable.h **** 
 169              		.loc 2 122 5
 124:..\..\..\..\plf\riscv\NMSIS\Core\Include/core_compatiable.h ****         | ((value & 0x00ff0000) >> 8 )
 170              		.loc 2 124 5
 171              		.loc 2 128 5
 172              	.LBE109:
 173              	.LBE108:
 744:C:/Users/stapi/OneDrive/Desktop/GD32VW553/GD32VW55X_Wifi_BLE_SDK/GD32VW55x_RELEASE_V1.0.2/MSDK/plf/GD32VW55x_standard_peripheral/Source\gd32vw55x_cau_aes.c ****         keyaddr += 4U;
 174              		.loc 1 744 38 is_stmt 0
 175 0080 5CC8     		sw	a5,20(s0)
 745:C:/Users/stapi/OneDrive/Desktop/GD32VW553/GD32VW55X_Wifi_BLE_SDK/GD32VW55x_RELEASE_V1.0.2/MSDK/plf/GD32VW55x_standard_peripheral/Source\gd32vw55x_cau_aes.c ****         cau_key_initpara->key_3_high = __REV(*(uint32_t *)(keyaddr));
 176              		.loc 1 745 9 is_stmt 1
 177              	.LVL21:
 746:C:/Users/stapi/OneDrive/Desktop/GD32VW553/GD32VW55X_Wifi_BLE_SDK/GD32VW55x_RELEASE_V1.0.2/MSDK/plf/GD32VW55x_standard_peripheral/Source\gd32vw55x_cau_aes.c ****         keyaddr += 4U;
 178              		.loc 1 746 9
 179 0082 9C48     		lw	a5,16(s1)
 180 0084 93D78769 		rev8	a5,a5
 181              	.LVL22:
 182              	.LBB110:
 183              	.LBB111:
 122:..\..\..\..\plf\riscv\NMSIS\Core\Include/core_compatiable.h **** 
 184              		.loc 2 122 5
 124:..\..\..\..\plf\riscv\NMSIS\Core\Include/core_compatiable.h ****         | ((value & 0x00ff0000) >> 8 )
 185              		.loc 2 124 5
 186              		.loc 2 128 5
 187              	.LBE111:
 188              	.LBE110:
 746:C:/Users/stapi/OneDrive/Desktop/GD32VW553/GD32VW55X_Wifi_BLE_SDK/GD32VW55x_RELEASE_V1.0.2/MSDK/plf/GD32VW55x_standard_peripheral/Source\gd32vw55x_cau_aes.c ****         keyaddr += 4U;
 189              		.loc 1 746 38 is_stmt 0
 190 0088 1CCC     		sw	a5,24(s0)
 747:C:/Users/stapi/OneDrive/Desktop/GD32VW553/GD32VW55X_Wifi_BLE_SDK/GD32VW55x_RELEASE_V1.0.2/MSDK/plf/GD32VW55x_standard_peripheral/Source\gd32vw55x_cau_aes.c ****         cau_key_initpara->key_3_low  = __REV(*(uint32_t *)(keyaddr));
 191              		.loc 1 747 9 is_stmt 1
 192              	.LVL23:
 748:C:/Users/stapi/OneDrive/Desktop/GD32VW553/GD32VW55X_Wifi_BLE_SDK/GD32VW55x_RELEASE_V1.0.2/MSDK/plf/GD32VW55x_standard_peripheral/Source\gd32vw55x_cau_aes.c ****         break;
 193              		.loc 1 748 9
 194 008a DC48     		lw	a5,20(s1)
 195 008c 75BF     		j	.L6
 196              	.LVL24:
 197              	.L3:
 751:C:/Users/stapi/OneDrive/Desktop/GD32VW553/GD32VW55X_Wifi_BLE_SDK/GD32VW55x_RELEASE_V1.0.2/MSDK/plf/GD32VW55x_standard_peripheral/Source\gd32vw55x_cau_aes.c ****         cau_key_initpara->key_0_high = __REV(*(uint32_t *)(keyaddr));
 198              		.loc 1 751 9
 199 008e 13050020 		li	a0,512
 200 0092 97000000 		call	cau_aes_keysize_config
 200      E7800000 
 201              	.LVL25:
 752:C:/Users/stapi/OneDrive/Desktop/GD32VW553/GD32VW55X_Wifi_BLE_SDK/GD32VW55x_RELEASE_V1.0.2/MSDK/plf/GD32VW55x_standard_peripheral/Source\gd32vw55x_cau_aes.c ****         keyaddr += 4U;
 202              		.loc 1 752 9
 203 009a 9C40     		lw	a5,0(s1)
 204 009c 93D78769 		rev8	a5,a5
 205              	.LVL26:
 206              	.LBB112:
 207              	.LBB113:
 122:..\..\..\..\plf\riscv\NMSIS\Core\Include/core_compatiable.h **** 
 208              		.loc 2 122 5
 124:..\..\..\..\plf\riscv\NMSIS\Core\Include/core_compatiable.h ****         | ((value & 0x00ff0000) >> 8 )
 209              		.loc 2 124 5
 210              		.loc 2 128 5
 211              	.LBE113:
 212              	.LBE112:
 752:C:/Users/stapi/OneDrive/Desktop/GD32VW553/GD32VW55X_Wifi_BLE_SDK/GD32VW55x_RELEASE_V1.0.2/MSDK/plf/GD32VW55x_standard_peripheral/Source\gd32vw55x_cau_aes.c ****         keyaddr += 4U;
 213              		.loc 1 752 38 is_stmt 0
 214 00a0 1CC0     		sw	a5,0(s0)
 753:C:/Users/stapi/OneDrive/Desktop/GD32VW553/GD32VW55X_Wifi_BLE_SDK/GD32VW55x_RELEASE_V1.0.2/MSDK/plf/GD32VW55x_standard_peripheral/Source\gd32vw55x_cau_aes.c ****         cau_key_initpara->key_0_low  = __REV(*(uint32_t *)(keyaddr));
 215              		.loc 1 753 9 is_stmt 1
 216              	.LVL27:
 754:C:/Users/stapi/OneDrive/Desktop/GD32VW553/GD32VW55X_Wifi_BLE_SDK/GD32VW55x_RELEASE_V1.0.2/MSDK/plf/GD32VW55x_standard_peripheral/Source\gd32vw55x_cau_aes.c ****         keyaddr += 4U;
 217              		.loc 1 754 9
 218 00a2 DC40     		lw	a5,4(s1)
 219 00a4 93D78769 		rev8	a5,a5
 220              	.LVL28:
 221              	.LBB114:
 222              	.LBB115:
 122:..\..\..\..\plf\riscv\NMSIS\Core\Include/core_compatiable.h **** 
 223              		.loc 2 122 5
 124:..\..\..\..\plf\riscv\NMSIS\Core\Include/core_compatiable.h ****         | ((value & 0x00ff0000) >> 8 )
 224              		.loc 2 124 5
 225              		.loc 2 128 5
 226              	.LBE115:
 227              	.LBE114:
 754:C:/Users/stapi/OneDrive/Desktop/GD32VW553/GD32VW55X_Wifi_BLE_SDK/GD32VW55x_RELEASE_V1.0.2/MSDK/plf/GD32VW55x_standard_peripheral/Source\gd32vw55x_cau_aes.c ****         keyaddr += 4U;
 228              		.loc 1 754 38 is_stmt 0
 229 00a8 5CC0     		sw	a5,4(s0)
 755:C:/Users/stapi/OneDrive/Desktop/GD32VW553/GD32VW55X_Wifi_BLE_SDK/GD32VW55x_RELEASE_V1.0.2/MSDK/plf/GD32VW55x_standard_peripheral/Source\gd32vw55x_cau_aes.c ****         cau_key_initpara->key_1_high = __REV(*(uint32_t *)(keyaddr));
 230              		.loc 1 755 9 is_stmt 1
 231              	.LVL29:
 756:C:/Users/stapi/OneDrive/Desktop/GD32VW553/GD32VW55X_Wifi_BLE_SDK/GD32VW55x_RELEASE_V1.0.2/MSDK/plf/GD32VW55x_standard_peripheral/Source\gd32vw55x_cau_aes.c ****         keyaddr += 4U;
 232              		.loc 1 756 9
 233 00aa 9C44     		lw	a5,8(s1)
 234 00ac 93D78769 		rev8	a5,a5
 235              	.LVL30:
 236              	.LBB116:
 237              	.LBB117:
 122:..\..\..\..\plf\riscv\NMSIS\Core\Include/core_compatiable.h **** 
 238              		.loc 2 122 5
 124:..\..\..\..\plf\riscv\NMSIS\Core\Include/core_compatiable.h ****         | ((value & 0x00ff0000) >> 8 )
 239              		.loc 2 124 5
 240              		.loc 2 128 5
 241              	.LBE117:
 242              	.LBE116:
 756:C:/Users/stapi/OneDrive/Desktop/GD32VW553/GD32VW55X_Wifi_BLE_SDK/GD32VW55x_RELEASE_V1.0.2/MSDK/plf/GD32VW55x_standard_peripheral/Source\gd32vw55x_cau_aes.c ****         keyaddr += 4U;
 243              		.loc 1 756 38 is_stmt 0
 244 00b0 1CC4     		sw	a5,8(s0)
 757:C:/Users/stapi/OneDrive/Desktop/GD32VW553/GD32VW55X_Wifi_BLE_SDK/GD32VW55x_RELEASE_V1.0.2/MSDK/plf/GD32VW55x_standard_peripheral/Source\gd32vw55x_cau_aes.c ****         cau_key_initpara->key_1_low  = __REV(*(uint32_t *)(keyaddr));
 245              		.loc 1 757 9 is_stmt 1
 246              	.LVL31:
 758:C:/Users/stapi/OneDrive/Desktop/GD32VW553/GD32VW55X_Wifi_BLE_SDK/GD32VW55x_RELEASE_V1.0.2/MSDK/plf/GD32VW55x_standard_peripheral/Source\gd32vw55x_cau_aes.c ****         keyaddr += 4U;
 247              		.loc 1 758 9
 248 00b2 DC44     		lw	a5,12(s1)
 249 00b4 93D78769 		rev8	a5,a5
 250              	.LVL32:
 251              	.LBB118:
 252              	.LBB119:
 122:..\..\..\..\plf\riscv\NMSIS\Core\Include/core_compatiable.h **** 
 253              		.loc 2 122 5
 124:..\..\..\..\plf\riscv\NMSIS\Core\Include/core_compatiable.h ****         | ((value & 0x00ff0000) >> 8 )
 254              		.loc 2 124 5
 255              		.loc 2 128 5
 256              	.LBE119:
 257              	.LBE118:
 758:C:/Users/stapi/OneDrive/Desktop/GD32VW553/GD32VW55X_Wifi_BLE_SDK/GD32VW55x_RELEASE_V1.0.2/MSDK/plf/GD32VW55x_standard_peripheral/Source\gd32vw55x_cau_aes.c ****         keyaddr += 4U;
 258              		.loc 1 758 38 is_stmt 0
 259 00b8 5CC4     		sw	a5,12(s0)
 759:C:/Users/stapi/OneDrive/Desktop/GD32VW553/GD32VW55X_Wifi_BLE_SDK/GD32VW55x_RELEASE_V1.0.2/MSDK/plf/GD32VW55x_standard_peripheral/Source\gd32vw55x_cau_aes.c ****         cau_key_initpara->key_2_high = __REV(*(uint32_t *)(keyaddr));
 260              		.loc 1 759 9 is_stmt 1
 261              	.LVL33:
 760:C:/Users/stapi/OneDrive/Desktop/GD32VW553/GD32VW55X_Wifi_BLE_SDK/GD32VW55x_RELEASE_V1.0.2/MSDK/plf/GD32VW55x_standard_peripheral/Source\gd32vw55x_cau_aes.c ****         keyaddr += 4U;
 262              		.loc 1 760 9
 263 00ba 9C48     		lw	a5,16(s1)
 264 00bc 93D78769 		rev8	a5,a5
 265              	.LVL34:
 266              	.LBB120:
 267              	.LBB121:
 122:..\..\..\..\plf\riscv\NMSIS\Core\Include/core_compatiable.h **** 
 268              		.loc 2 122 5
 124:..\..\..\..\plf\riscv\NMSIS\Core\Include/core_compatiable.h ****         | ((value & 0x00ff0000) >> 8 )
 269              		.loc 2 124 5
 270              		.loc 2 128 5
 271              	.LBE121:
 272              	.LBE120:
 760:C:/Users/stapi/OneDrive/Desktop/GD32VW553/GD32VW55X_Wifi_BLE_SDK/GD32VW55x_RELEASE_V1.0.2/MSDK/plf/GD32VW55x_standard_peripheral/Source\gd32vw55x_cau_aes.c ****         keyaddr += 4U;
 273              		.loc 1 760 38 is_stmt 0
 274 00c0 1CC8     		sw	a5,16(s0)
 761:C:/Users/stapi/OneDrive/Desktop/GD32VW553/GD32VW55X_Wifi_BLE_SDK/GD32VW55x_RELEASE_V1.0.2/MSDK/plf/GD32VW55x_standard_peripheral/Source\gd32vw55x_cau_aes.c ****         cau_key_initpara->key_2_low  = __REV(*(uint32_t *)(keyaddr));
 275              		.loc 1 761 9 is_stmt 1
 276              	.LVL35:
 762:C:/Users/stapi/OneDrive/Desktop/GD32VW553/GD32VW55X_Wifi_BLE_SDK/GD32VW55x_RELEASE_V1.0.2/MSDK/plf/GD32VW55x_standard_peripheral/Source\gd32vw55x_cau_aes.c ****         keyaddr += 4U;
 277              		.loc 1 762 9
 278 00c2 DC48     		lw	a5,20(s1)
 279 00c4 93D78769 		rev8	a5,a5
 280              	.LVL36:
 281              	.LBB122:
 282              	.LBB123:
 122:..\..\..\..\plf\riscv\NMSIS\Core\Include/core_compatiable.h **** 
 283              		.loc 2 122 5
 124:..\..\..\..\plf\riscv\NMSIS\Core\Include/core_compatiable.h ****         | ((value & 0x00ff0000) >> 8 )
 284              		.loc 2 124 5
 285              		.loc 2 128 5
 286              	.LBE123:
 287              	.LBE122:
 762:C:/Users/stapi/OneDrive/Desktop/GD32VW553/GD32VW55X_Wifi_BLE_SDK/GD32VW55x_RELEASE_V1.0.2/MSDK/plf/GD32VW55x_standard_peripheral/Source\gd32vw55x_cau_aes.c ****         keyaddr += 4U;
 288              		.loc 1 762 38 is_stmt 0
 289 00c8 5CC8     		sw	a5,20(s0)
 763:C:/Users/stapi/OneDrive/Desktop/GD32VW553/GD32VW55X_Wifi_BLE_SDK/GD32VW55x_RELEASE_V1.0.2/MSDK/plf/GD32VW55x_standard_peripheral/Source\gd32vw55x_cau_aes.c ****         cau_key_initpara->key_3_high = __REV(*(uint32_t *)(keyaddr));
 290              		.loc 1 763 9 is_stmt 1
 291              	.LVL37:
 764:C:/Users/stapi/OneDrive/Desktop/GD32VW553/GD32VW55X_Wifi_BLE_SDK/GD32VW55x_RELEASE_V1.0.2/MSDK/plf/GD32VW55x_standard_peripheral/Source\gd32vw55x_cau_aes.c ****         keyaddr += 4U;
 292              		.loc 1 764 9
 293 00ca 9C4C     		lw	a5,24(s1)
 294 00cc 93D78769 		rev8	a5,a5
 295              	.LVL38:
 296              	.LBB124:
 297              	.LBB125:
 122:..\..\..\..\plf\riscv\NMSIS\Core\Include/core_compatiable.h **** 
 298              		.loc 2 122 5
 124:..\..\..\..\plf\riscv\NMSIS\Core\Include/core_compatiable.h ****         | ((value & 0x00ff0000) >> 8 )
 299              		.loc 2 124 5
 300              		.loc 2 128 5
 301              	.LBE125:
 302              	.LBE124:
 764:C:/Users/stapi/OneDrive/Desktop/GD32VW553/GD32VW55X_Wifi_BLE_SDK/GD32VW55x_RELEASE_V1.0.2/MSDK/plf/GD32VW55x_standard_peripheral/Source\gd32vw55x_cau_aes.c ****         keyaddr += 4U;
 303              		.loc 1 764 38 is_stmt 0
 304 00d0 1CCC     		sw	a5,24(s0)
 765:C:/Users/stapi/OneDrive/Desktop/GD32VW553/GD32VW55X_Wifi_BLE_SDK/GD32VW55x_RELEASE_V1.0.2/MSDK/plf/GD32VW55x_standard_peripheral/Source\gd32vw55x_cau_aes.c ****         cau_key_initpara->key_3_low  = __REV(*(uint32_t *)(keyaddr));
 305              		.loc 1 765 9 is_stmt 1
 306              	.LVL39:
 766:C:/Users/stapi/OneDrive/Desktop/GD32VW553/GD32VW55X_Wifi_BLE_SDK/GD32VW55x_RELEASE_V1.0.2/MSDK/plf/GD32VW55x_standard_peripheral/Source\gd32vw55x_cau_aes.c ****         break;
 307              		.loc 1 766 9
 308 00d2 DC4C     		lw	a5,28(s1)
 309 00d4 95BF     		j	.L6
 310              		.cfi_endproc
 311              	.LFE372:
 313              		.section	.text.cau_fill_data,"ax",@progbits
 314              		.align	1
 316              	cau_fill_data:
 317              	.LFB373:
 772:C:/Users/stapi/OneDrive/Desktop/GD32VW553/GD32VW55X_Wifi_BLE_SDK/GD32VW55x_RELEASE_V1.0.2/MSDK/plf/GD32VW55x_standard_peripheral/Source\gd32vw55x_cau_aes.c **** 
 773:C:/Users/stapi/OneDrive/Desktop/GD32VW553/GD32VW55X_Wifi_BLE_SDK/GD32VW55x_RELEASE_V1.0.2/MSDK/plf/GD32VW55x_standard_peripheral/Source\gd32vw55x_cau_aes.c **** /*!
 774:C:/Users/stapi/OneDrive/Desktop/GD32VW553/GD32VW55X_Wifi_BLE_SDK/GD32VW55x_RELEASE_V1.0.2/MSDK/plf/GD32VW55x_standard_peripheral/Source\gd32vw55x_cau_aes.c ****     \brief      fill data into data input register
 775:C:/Users/stapi/OneDrive/Desktop/GD32VW553/GD32VW55X_Wifi_BLE_SDK/GD32VW55x_RELEASE_V1.0.2/MSDK/plf/GD32VW55x_standard_peripheral/Source\gd32vw55x_cau_aes.c ****     \param[in]  input: pointer to the input buffer
 776:C:/Users/stapi/OneDrive/Desktop/GD32VW553/GD32VW55X_Wifi_BLE_SDK/GD32VW55x_RELEASE_V1.0.2/MSDK/plf/GD32VW55x_standard_peripheral/Source\gd32vw55x_cau_aes.c ****     \param[in]  in_length: length of the input buffer in bytes, must be a multiple of 16 bytes
 777:C:/Users/stapi/OneDrive/Desktop/GD32VW553/GD32VW55X_Wifi_BLE_SDK/GD32VW55x_RELEASE_V1.0.2/MSDK/plf/GD32VW55x_standard_peripheral/Source\gd32vw55x_cau_aes.c ****     \retval     ErrStatus: SUCCESS or ERROR
 778:C:/Users/stapi/OneDrive/Desktop/GD32VW553/GD32VW55X_Wifi_BLE_SDK/GD32VW55x_RELEASE_V1.0.2/MSDK/plf/GD32VW55x_standard_peripheral/Source\gd32vw55x_cau_aes.c **** */
 779:C:/Users/stapi/OneDrive/Desktop/GD32VW553/GD32VW55X_Wifi_BLE_SDK/GD32VW55x_RELEASE_V1.0.2/MSDK/plf/GD32VW55x_standard_peripheral/Source\gd32vw55x_cau_aes.c **** static ErrStatus cau_fill_data(uint8_t *input, uint32_t in_length)
 780:C:/Users/stapi/OneDrive/Desktop/GD32VW553/GD32VW55X_Wifi_BLE_SDK/GD32VW55x_RELEASE_V1.0.2/MSDK/plf/GD32VW55x_standard_peripheral/Source\gd32vw55x_cau_aes.c **** {
 318              		.loc 1 780 1
 319              		.cfi_startproc
 320              	.LVL40:
 321 0000 17030000 		call	t0,__riscv_save_12
 321      E7020300 
 322              		.cfi_offset 27, -52
 323              		.cfi_offset 26, -48
 324              		.cfi_offset 25, -44
 325              		.cfi_offset 24, -40
 326              		.cfi_offset 23, -36
 327              		.cfi_offset 22, -32
 328              		.cfi_offset 21, -28
 329              		.cfi_offset 20, -24
 330              		.cfi_offset 19, -20
 331              		.cfi_offset 18, -16
 332              		.cfi_offset 9, -12
 333              		.cfi_offset 8, -8
 334              		.cfi_offset 1, -4
 335              		.cfi_def_cfa_offset 64
 781:C:/Users/stapi/OneDrive/Desktop/GD32VW553/GD32VW55X_Wifi_BLE_SDK/GD32VW55x_RELEASE_V1.0.2/MSDK/plf/GD32VW55x_standard_peripheral/Source\gd32vw55x_cau_aes.c ****     uint32_t inputaddr  = (uint32_t)input;
 336              		.loc 1 781 5
 780:C:/Users/stapi/OneDrive/Desktop/GD32VW553/GD32VW55X_Wifi_BLE_SDK/GD32VW55x_RELEASE_V1.0.2/MSDK/plf/GD32VW55x_standard_peripheral/Source\gd32vw55x_cau_aes.c ****     uint32_t inputaddr  = (uint32_t)input;
 337              		.loc 1 780 1 is_stmt 0
 338 0008 0111     		addi	sp,sp,-32
 339              		.cfi_def_cfa_offset 96
 780:C:/Users/stapi/OneDrive/Desktop/GD32VW553/GD32VW55X_Wifi_BLE_SDK/GD32VW55x_RELEASE_V1.0.2/MSDK/plf/GD32VW55x_standard_peripheral/Source\gd32vw55x_cau_aes.c ****     uint32_t inputaddr  = (uint32_t)input;
 340              		.loc 1 780 1
 341 000a 2A84     		mv	s0,a0
 342              	.LVL41:
 782:C:/Users/stapi/OneDrive/Desktop/GD32VW553/GD32VW55X_Wifi_BLE_SDK/GD32VW55x_RELEASE_V1.0.2/MSDK/plf/GD32VW55x_standard_peripheral/Source\gd32vw55x_cau_aes.c ****     uint32_t i = 0U;
 343              		.loc 1 782 5 is_stmt 1
 783:C:/Users/stapi/OneDrive/Desktop/GD32VW553/GD32VW55X_Wifi_BLE_SDK/GD32VW55x_RELEASE_V1.0.2/MSDK/plf/GD32VW55x_standard_peripheral/Source\gd32vw55x_cau_aes.c ****     __IO uint32_t counter = 0U;
 344              		.loc 1 783 5
 780:C:/Users/stapi/OneDrive/Desktop/GD32VW553/GD32VW55X_Wifi_BLE_SDK/GD32VW55x_RELEASE_V1.0.2/MSDK/plf/GD32VW55x_standard_peripheral/Source\gd32vw55x_cau_aes.c ****     uint32_t inputaddr  = (uint32_t)input;
 345              		.loc 1 780 1 is_stmt 0
 346 000c AE89     		mv	s3,a1
 347              		.loc 1 783 19
 348 000e 02C6     		sw	zero,12(sp)
 784:C:/Users/stapi/OneDrive/Desktop/GD32VW553/GD32VW55X_Wifi_BLE_SDK/GD32VW55x_RELEASE_V1.0.2/MSDK/plf/GD32VW55x_standard_peripheral/Source\gd32vw55x_cau_aes.c ****     uint32_t busystatus = 0U;
 349              		.loc 1 784 5 is_stmt 1
 350              	.LVL42:
 785:C:/Users/stapi/OneDrive/Desktop/GD32VW553/GD32VW55X_Wifi_BLE_SDK/GD32VW55x_RELEASE_V1.0.2/MSDK/plf/GD32VW55x_standard_peripheral/Source\gd32vw55x_cau_aes.c **** 
 786:C:/Users/stapi/OneDrive/Desktop/GD32VW553/GD32VW55X_Wifi_BLE_SDK/GD32VW55x_RELEASE_V1.0.2/MSDK/plf/GD32VW55x_standard_peripheral/Source\gd32vw55x_cau_aes.c ****     if(DISABLE == cau_enable_state_get()) {
 351              		.loc 1 786 5
 352              		.loc 1 786 19 is_stmt 0
 353 0010 97000000 		call	cau_enable_state_get
 353      E7800000 
 354              	.LVL43:
 355              		.loc 1 786 7
 356 0018 29C5     		beq	a0,zero,.L7
 357 001a C144     		li	s1,16
 358              	.LBB126:
 787:C:/Users/stapi/OneDrive/Desktop/GD32VW553/GD32VW55X_Wifi_BLE_SDK/GD32VW55x_RELEASE_V1.0.2/MSDK/plf/GD32VW55x_standard_peripheral/Source\gd32vw55x_cau_aes.c ****         return ERROR;
 788:C:/Users/stapi/OneDrive/Desktop/GD32VW553/GD32VW55X_Wifi_BLE_SDK/GD32VW55x_RELEASE_V1.0.2/MSDK/plf/GD32VW55x_standard_peripheral/Source\gd32vw55x_cau_aes.c ****     }
 789:C:/Users/stapi/OneDrive/Desktop/GD32VW553/GD32VW55X_Wifi_BLE_SDK/GD32VW55x_RELEASE_V1.0.2/MSDK/plf/GD32VW55x_standard_peripheral/Source\gd32vw55x_cau_aes.c **** 
 790:C:/Users/stapi/OneDrive/Desktop/GD32VW553/GD32VW55X_Wifi_BLE_SDK/GD32VW55x_RELEASE_V1.0.2/MSDK/plf/GD32VW55x_standard_peripheral/Source\gd32vw55x_cau_aes.c ****     for(i = 0U; i < in_length; i += BLOCK_DATA_SIZE) {
 791:C:/Users/stapi/OneDrive/Desktop/GD32VW553/GD32VW55X_Wifi_BLE_SDK/GD32VW55x_RELEASE_V1.0.2/MSDK/plf/GD32VW55x_standard_peripheral/Source\gd32vw55x_cau_aes.c ****         /* wait until the IEM flag is set */
 792:C:/Users/stapi/OneDrive/Desktop/GD32VW553/GD32VW55X_Wifi_BLE_SDK/GD32VW55x_RELEASE_V1.0.2/MSDK/plf/GD32VW55x_standard_peripheral/Source\gd32vw55x_cau_aes.c ****         while(RESET == cau_flag_get(CAU_FLAG_INFIFO_EMPTY)) {
 793:C:/Users/stapi/OneDrive/Desktop/GD32VW553/GD32VW55X_Wifi_BLE_SDK/GD32VW55x_RELEASE_V1.0.2/MSDK/plf/GD32VW55x_standard_peripheral/Source\gd32vw55x_cau_aes.c ****         }
 794:C:/Users/stapi/OneDrive/Desktop/GD32VW553/GD32VW55X_Wifi_BLE_SDK/GD32VW55x_RELEASE_V1.0.2/MSDK/plf/GD32VW55x_standard_peripheral/Source\gd32vw55x_cau_aes.c **** 
 795:C:/Users/stapi/OneDrive/Desktop/GD32VW553/GD32VW55X_Wifi_BLE_SDK/GD32VW55x_RELEASE_V1.0.2/MSDK/plf/GD32VW55x_standard_peripheral/Source\gd32vw55x_cau_aes.c ****         if(i + BLOCK_DATA_SIZE > in_length) {
 796:C:/Users/stapi/OneDrive/Desktop/GD32VW553/GD32VW55X_Wifi_BLE_SDK/GD32VW55x_RELEASE_V1.0.2/MSDK/plf/GD32VW55x_standard_peripheral/Source\gd32vw55x_cau_aes.c ****             /* the last block data number is less than 128bit */
 797:C:/Users/stapi/OneDrive/Desktop/GD32VW553/GD32VW55X_Wifi_BLE_SDK/GD32VW55x_RELEASE_V1.0.2/MSDK/plf/GD32VW55x_standard_peripheral/Source\gd32vw55x_cau_aes.c ****             uint32_t block_data_temp[4] = {0U};
 798:C:/Users/stapi/OneDrive/Desktop/GD32VW553/GD32VW55X_Wifi_BLE_SDK/GD32VW55x_RELEASE_V1.0.2/MSDK/plf/GD32VW55x_standard_peripheral/Source\gd32vw55x_cau_aes.c **** 
 799:C:/Users/stapi/OneDrive/Desktop/GD32VW553/GD32VW55X_Wifi_BLE_SDK/GD32VW55x_RELEASE_V1.0.2/MSDK/plf/GD32VW55x_standard_peripheral/Source\gd32vw55x_cau_aes.c ****             /* fill the remaining bits with zero */
 800:C:/Users/stapi/OneDrive/Desktop/GD32VW553/GD32VW55X_Wifi_BLE_SDK/GD32VW55x_RELEASE_V1.0.2/MSDK/plf/GD32VW55x_standard_peripheral/Source\gd32vw55x_cau_aes.c ****             memcpy(block_data_temp, (uint32_t *)inputaddr, in_length - i);
 801:C:/Users/stapi/OneDrive/Desktop/GD32VW553/GD32VW55X_Wifi_BLE_SDK/GD32VW55x_RELEASE_V1.0.2/MSDK/plf/GD32VW55x_standard_peripheral/Source\gd32vw55x_cau_aes.c ****             inputaddr = (uint32_t)block_data_temp;
 802:C:/Users/stapi/OneDrive/Desktop/GD32VW553/GD32VW55X_Wifi_BLE_SDK/GD32VW55x_RELEASE_V1.0.2/MSDK/plf/GD32VW55x_standard_peripheral/Source\gd32vw55x_cau_aes.c **** 
 803:C:/Users/stapi/OneDrive/Desktop/GD32VW553/GD32VW55X_Wifi_BLE_SDK/GD32VW55x_RELEASE_V1.0.2/MSDK/plf/GD32VW55x_standard_peripheral/Source\gd32vw55x_cau_aes.c ****             /* if GCM encryption or CCM decryption, then configurate NBPILB bits in CTL register */
 804:C:/Users/stapi/OneDrive/Desktop/GD32VW553/GD32VW55X_Wifi_BLE_SDK/GD32VW55x_RELEASE_V1.0.2/MSDK/plf/GD32VW55x_standard_peripheral/Source\gd32vw55x_cau_aes.c ****             if((CAU_CTL & CAU_CTL_GCM_CCMPH) == CAU_ENCRYPT_DECRYPT_PHASE) {
 805:C:/Users/stapi/OneDrive/Desktop/GD32VW553/GD32VW55X_Wifi_BLE_SDK/GD32VW55x_RELEASE_V1.0.2/MSDK/plf/GD32VW55x_standard_peripheral/Source\gd32vw55x_cau_aes.c ****                 if((CAU_CTL & (CAU_CTL_ALGM | CAU_CTL_CAUDIR)) == (CAU_MODE_AES_GCM | CAU_ENCRYPT))
 359              		.loc 1 805 29
 360 001c B70A0800 		li	s5,524288
 361 0020 B3843441 		sub	s1,s1,s3
 362 0024 D204     		slli	s1,s1,20
 363              	.LBE126:
 790:C:/Users/stapi/OneDrive/Desktop/GD32VW553/GD32VW55X_Wifi_BLE_SDK/GD32VW55x_RELEASE_V1.0.2/MSDK/plf/GD32VW55x_standard_peripheral/Source\gd32vw55x_cau_aes.c ****         /* wait until the IEM flag is set */
 364              		.loc 1 790 11
 365 0026 014A     		li	s4,0
 366              	.LBB127:
 804:C:/Users/stapi/OneDrive/Desktop/GD32VW553/GD32VW55X_Wifi_BLE_SDK/GD32VW55x_RELEASE_V1.0.2/MSDK/plf/GD32VW55x_standard_peripheral/Source\gd32vw55x_cau_aes.c ****                 if((CAU_CTL & (CAU_CTL_ALGM | CAU_CTL_CAUDIR)) == (CAU_MODE_AES_GCM | CAU_ENCRYPT))
 367              		.loc 1 804 17
 368 0028 3709064C 		li	s2,1275461632
 804:C:/Users/stapi/OneDrive/Desktop/GD32VW553/GD32VW55X_Wifi_BLE_SDK/GD32VW55x_RELEASE_V1.0.2/MSDK/plf/GD32VW55x_standard_peripheral/Source\gd32vw55x_cau_aes.c ****                 if((CAU_CTL & (CAU_CTL_ALGM | CAU_CTL_CAUDIR)) == (CAU_MODE_AES_GCM | CAU_ENCRYPT))
 369              		.loc 1 804 25
 370 002c B70C0300 		li	s9,196608
 804:C:/Users/stapi/OneDrive/Desktop/GD32VW553/GD32VW55X_Wifi_BLE_SDK/GD32VW55x_RELEASE_V1.0.2/MSDK/plf/GD32VW55x_standard_peripheral/Source\gd32vw55x_cau_aes.c ****                 if((CAU_CTL & (CAU_CTL_ALGM | CAU_CTL_CAUDIR)) == (CAU_MODE_AES_GCM | CAU_ENCRYPT))
 371              		.loc 1 804 15
 372 0030 370D0200 		li	s10,131072
 373              		.loc 1 805 29
 374 0034 138BCA03 		addi	s6,s5,60
 806:C:/Users/stapi/OneDrive/Desktop/GD32VW553/GD32VW55X_Wifi_BLE_SDK/GD32VW55x_RELEASE_V1.0.2/MSDK/plf/GD32VW55x_standard_peripheral/Source\gd32vw55x_cau_aes.c ****                     CAU_CTL |= CAU_PADDING_BYTES(i + BLOCK_DATA_SIZE - in_length);
 807:C:/Users/stapi/OneDrive/Desktop/GD32VW553/GD32VW55X_Wifi_BLE_SDK/GD32VW55x_RELEASE_V1.0.2/MSDK/plf/GD32VW55x_standard_peripheral/Source\gd32vw55x_cau_aes.c ****                 } else if((CAU_CTL & (CAU_CTL_ALGM | CAU_CTL_CAUDIR)) == (CAU_MODE_AES_CCM | CAU_DE
 375              		.loc 1 807 26
 376 0038 938DCA00 		addi	s11,s5,12
 808:C:/Users/stapi/OneDrive/Desktop/GD32VW553/GD32VW55X_Wifi_BLE_SDK/GD32VW55x_RELEASE_V1.0.2/MSDK/plf/GD32VW55x_standard_peripheral/Source\gd32vw55x_cau_aes.c ****                     CAU_CTL |= CAU_PADDING_BYTES(i + BLOCK_DATA_SIZE - in_length);
 377              		.loc 1 808 32
 378 003c B70BF000 		li	s7,15728640
 379              	.LVL44:
 380              	.L9:
 381              	.LBE127:
 790:C:/Users/stapi/OneDrive/Desktop/GD32VW553/GD32VW55X_Wifi_BLE_SDK/GD32VW55x_RELEASE_V1.0.2/MSDK/plf/GD32VW55x_standard_peripheral/Source\gd32vw55x_cau_aes.c ****         /* wait until the IEM flag is set */
 382              		.loc 1 790 17 is_stmt 1 discriminator 1
 790:C:/Users/stapi/OneDrive/Desktop/GD32VW553/GD32VW55X_Wifi_BLE_SDK/GD32VW55x_RELEASE_V1.0.2/MSDK/plf/GD32VW55x_standard_peripheral/Source\gd32vw55x_cau_aes.c ****         /* wait until the IEM flag is set */
 383              		.loc 1 790 5 is_stmt 0 discriminator 1
 384 0040 63663A03 		bltu	s4,s3,.L10
 809:C:/Users/stapi/OneDrive/Desktop/GD32VW553/GD32VW55X_Wifi_BLE_SDK/GD32VW55x_RELEASE_V1.0.2/MSDK/plf/GD32VW55x_standard_peripheral/Source\gd32vw55x_cau_aes.c ****                 } else {
 810:C:/Users/stapi/OneDrive/Desktop/GD32VW553/GD32VW55X_Wifi_BLE_SDK/GD32VW55x_RELEASE_V1.0.2/MSDK/plf/GD32VW55x_standard_peripheral/Source\gd32vw55x_cau_aes.c ****                 }
 811:C:/Users/stapi/OneDrive/Desktop/GD32VW553/GD32VW55X_Wifi_BLE_SDK/GD32VW55x_RELEASE_V1.0.2/MSDK/plf/GD32VW55x_standard_peripheral/Source\gd32vw55x_cau_aes.c ****             }
 812:C:/Users/stapi/OneDrive/Desktop/GD32VW553/GD32VW55X_Wifi_BLE_SDK/GD32VW55x_RELEASE_V1.0.2/MSDK/plf/GD32VW55x_standard_peripheral/Source\gd32vw55x_cau_aes.c ****         }
 813:C:/Users/stapi/OneDrive/Desktop/GD32VW553/GD32VW55X_Wifi_BLE_SDK/GD32VW55x_RELEASE_V1.0.2/MSDK/plf/GD32VW55x_standard_peripheral/Source\gd32vw55x_cau_aes.c **** 
 814:C:/Users/stapi/OneDrive/Desktop/GD32VW553/GD32VW55X_Wifi_BLE_SDK/GD32VW55x_RELEASE_V1.0.2/MSDK/plf/GD32VW55x_standard_peripheral/Source\gd32vw55x_cau_aes.c ****         /* write data to the IN FIFO */
 815:C:/Users/stapi/OneDrive/Desktop/GD32VW553/GD32VW55X_Wifi_BLE_SDK/GD32VW55x_RELEASE_V1.0.2/MSDK/plf/GD32VW55x_standard_peripheral/Source\gd32vw55x_cau_aes.c ****         cau_data_write(*(uint32_t *)(inputaddr));
 816:C:/Users/stapi/OneDrive/Desktop/GD32VW553/GD32VW55X_Wifi_BLE_SDK/GD32VW55x_RELEASE_V1.0.2/MSDK/plf/GD32VW55x_standard_peripheral/Source\gd32vw55x_cau_aes.c ****         inputaddr += 4U;
 817:C:/Users/stapi/OneDrive/Desktop/GD32VW553/GD32VW55X_Wifi_BLE_SDK/GD32VW55x_RELEASE_V1.0.2/MSDK/plf/GD32VW55x_standard_peripheral/Source\gd32vw55x_cau_aes.c ****         cau_data_write(*(uint32_t *)(inputaddr));
 818:C:/Users/stapi/OneDrive/Desktop/GD32VW553/GD32VW55X_Wifi_BLE_SDK/GD32VW55x_RELEASE_V1.0.2/MSDK/plf/GD32VW55x_standard_peripheral/Source\gd32vw55x_cau_aes.c ****         inputaddr += 4U;
 819:C:/Users/stapi/OneDrive/Desktop/GD32VW553/GD32VW55X_Wifi_BLE_SDK/GD32VW55x_RELEASE_V1.0.2/MSDK/plf/GD32VW55x_standard_peripheral/Source\gd32vw55x_cau_aes.c ****         cau_data_write(*(uint32_t *)(inputaddr));
 820:C:/Users/stapi/OneDrive/Desktop/GD32VW553/GD32VW55X_Wifi_BLE_SDK/GD32VW55x_RELEASE_V1.0.2/MSDK/plf/GD32VW55x_standard_peripheral/Source\gd32vw55x_cau_aes.c ****         inputaddr += 4U;
 821:C:/Users/stapi/OneDrive/Desktop/GD32VW553/GD32VW55X_Wifi_BLE_SDK/GD32VW55x_RELEASE_V1.0.2/MSDK/plf/GD32VW55x_standard_peripheral/Source\gd32vw55x_cau_aes.c ****         cau_data_write(*(uint32_t *)(inputaddr));
 822:C:/Users/stapi/OneDrive/Desktop/GD32VW553/GD32VW55X_Wifi_BLE_SDK/GD32VW55x_RELEASE_V1.0.2/MSDK/plf/GD32VW55x_standard_peripheral/Source\gd32vw55x_cau_aes.c ****         inputaddr += 4U;
 823:C:/Users/stapi/OneDrive/Desktop/GD32VW553/GD32VW55X_Wifi_BLE_SDK/GD32VW55x_RELEASE_V1.0.2/MSDK/plf/GD32VW55x_standard_peripheral/Source\gd32vw55x_cau_aes.c ****     }
 824:C:/Users/stapi/OneDrive/Desktop/GD32VW553/GD32VW55X_Wifi_BLE_SDK/GD32VW55x_RELEASE_V1.0.2/MSDK/plf/GD32VW55x_standard_peripheral/Source\gd32vw55x_cau_aes.c ****     /* wait until the complete message has been processed */
 825:C:/Users/stapi/OneDrive/Desktop/GD32VW553/GD32VW55X_Wifi_BLE_SDK/GD32VW55x_RELEASE_V1.0.2/MSDK/plf/GD32VW55x_standard_peripheral/Source\gd32vw55x_cau_aes.c ****     counter = 0U;
 385              		.loc 1 825 5 is_stmt 1
 386              		.loc 1 825 13 is_stmt 0
 387 0044 02C6     		sw	zero,12(sp)
 826:C:/Users/stapi/OneDrive/Desktop/GD32VW553/GD32VW55X_Wifi_BLE_SDK/GD32VW55x_RELEASE_V1.0.2/MSDK/plf/GD32VW55x_standard_peripheral/Source\gd32vw55x_cau_aes.c ****     do {
 827:C:/Users/stapi/OneDrive/Desktop/GD32VW553/GD32VW55X_Wifi_BLE_SDK/GD32VW55x_RELEASE_V1.0.2/MSDK/plf/GD32VW55x_standard_peripheral/Source\gd32vw55x_cau_aes.c ****         busystatus = cau_flag_get(CAU_FLAG_BUSY);
 828:C:/Users/stapi/OneDrive/Desktop/GD32VW553/GD32VW55X_Wifi_BLE_SDK/GD32VW55x_RELEASE_V1.0.2/MSDK/plf/GD32VW55x_standard_peripheral/Source\gd32vw55x_cau_aes.c ****         counter++;
 829:C:/Users/stapi/OneDrive/Desktop/GD32VW553/GD32VW55X_Wifi_BLE_SDK/GD32VW55x_RELEASE_V1.0.2/MSDK/plf/GD32VW55x_standard_peripheral/Source\gd32vw55x_cau_aes.c ****     } while((AESBSY_TIMEOUT != counter) && (RESET != busystatus));
 388              		.loc 1 829 5
 389 0046 4164     		li	s0,65536
 390              	.LVL45:
 391              	.L15:
 826:C:/Users/stapi/OneDrive/Desktop/GD32VW553/GD32VW55X_Wifi_BLE_SDK/GD32VW55x_RELEASE_V1.0.2/MSDK/plf/GD32VW55x_standard_peripheral/Source\gd32vw55x_cau_aes.c ****     do {
 392              		.loc 1 826 5 is_stmt 1 discriminator 2
 827:C:/Users/stapi/OneDrive/Desktop/GD32VW553/GD32VW55X_Wifi_BLE_SDK/GD32VW55x_RELEASE_V1.0.2/MSDK/plf/GD32VW55x_standard_peripheral/Source\gd32vw55x_cau_aes.c ****         counter++;
 393              		.loc 1 827 9 discriminator 2
 827:C:/Users/stapi/OneDrive/Desktop/GD32VW553/GD32VW55X_Wifi_BLE_SDK/GD32VW55x_RELEASE_V1.0.2/MSDK/plf/GD32VW55x_standard_peripheral/Source\gd32vw55x_cau_aes.c ****         counter++;
 394              		.loc 1 827 22 is_stmt 0 discriminator 2
 395 0048 4145     		li	a0,16
 396 004a 97000000 		call	cau_flag_get
 396      E7800000 
 397              	.LVL46:
 828:C:/Users/stapi/OneDrive/Desktop/GD32VW553/GD32VW55X_Wifi_BLE_SDK/GD32VW55x_RELEASE_V1.0.2/MSDK/plf/GD32VW55x_standard_peripheral/Source\gd32vw55x_cau_aes.c ****     } while((AESBSY_TIMEOUT != counter) && (RESET != busystatus));
 398              		.loc 1 828 9 is_stmt 1 discriminator 2
 828:C:/Users/stapi/OneDrive/Desktop/GD32VW553/GD32VW55X_Wifi_BLE_SDK/GD32VW55x_RELEASE_V1.0.2/MSDK/plf/GD32VW55x_standard_peripheral/Source\gd32vw55x_cau_aes.c ****     } while((AESBSY_TIMEOUT != counter) && (RESET != busystatus));
 399              		.loc 1 828 16 is_stmt 0 discriminator 2
 400 0052 B247     		lw	a5,12(sp)
 401 0054 8507     		addi	a5,a5,1
 402 0056 3EC6     		sw	a5,12(sp)
 403              		.loc 1 829 12 is_stmt 1 discriminator 2
 404              		.loc 1 829 29 is_stmt 0 discriminator 2
 405 0058 B247     		lw	a5,12(sp)
 406              		.loc 1 829 5 discriminator 2
 407 005a 6384870A 		beq	a5,s0,.L14
 408              		.loc 1 829 41 discriminator 1
 409 005e 6DF5     		bne	a0,zero,.L15
 830:C:/Users/stapi/OneDrive/Desktop/GD32VW553/GD32VW55X_Wifi_BLE_SDK/GD32VW55x_RELEASE_V1.0.2/MSDK/plf/GD32VW55x_standard_peripheral/Source\gd32vw55x_cau_aes.c **** 
 831:C:/Users/stapi/OneDrive/Desktop/GD32VW553/GD32VW55X_Wifi_BLE_SDK/GD32VW55x_RELEASE_V1.0.2/MSDK/plf/GD32VW55x_standard_peripheral/Source\gd32vw55x_cau_aes.c ****     if(RESET != busystatus) {
 832:C:/Users/stapi/OneDrive/Desktop/GD32VW553/GD32VW55X_Wifi_BLE_SDK/GD32VW55x_RELEASE_V1.0.2/MSDK/plf/GD32VW55x_standard_peripheral/Source\gd32vw55x_cau_aes.c ****         return ERROR;
 833:C:/Users/stapi/OneDrive/Desktop/GD32VW553/GD32VW55X_Wifi_BLE_SDK/GD32VW55x_RELEASE_V1.0.2/MSDK/plf/GD32VW55x_standard_peripheral/Source\gd32vw55x_cau_aes.c ****     }
 834:C:/Users/stapi/OneDrive/Desktop/GD32VW553/GD32VW55X_Wifi_BLE_SDK/GD32VW55x_RELEASE_V1.0.2/MSDK/plf/GD32VW55x_standard_peripheral/Source\gd32vw55x_cau_aes.c **** 
 835:C:/Users/stapi/OneDrive/Desktop/GD32VW553/GD32VW55X_Wifi_BLE_SDK/GD32VW55x_RELEASE_V1.0.2/MSDK/plf/GD32VW55x_standard_peripheral/Source\gd32vw55x_cau_aes.c ****     return SUCCESS;
 410              		.loc 1 835 12
 411 0060 0545     		li	a0,1
 412              	.LVL47:
 413              	.L7:
 836:C:/Users/stapi/OneDrive/Desktop/GD32VW553/GD32VW55X_Wifi_BLE_SDK/GD32VW55x_RELEASE_V1.0.2/MSDK/plf/GD32VW55x_standard_peripheral/Source\gd32vw55x_cau_aes.c **** }
 414              		.loc 1 836 1
 415 0062 0561     		addi	sp,sp,32
 416              		.cfi_remember_state
 417              		.cfi_def_cfa_offset 0
 418 0064 17030000 		tail	__riscv_restore_12
 418      67000300 
 419              		.cfi_restore 27
 420              		.cfi_restore 26
 421              		.cfi_restore 25
 422              		.cfi_restore 24
 423              		.cfi_restore 23
 424              		.cfi_restore 22
 425              		.cfi_restore 21
 426              		.cfi_restore 20
 427              		.cfi_restore 19
 428              		.cfi_restore 18
 429              		.cfi_restore 9
 430              		.cfi_restore 8
 431              		.cfi_restore 1
 432              		.cfi_def_cfa_offset -64
 433              	.LVL48:
 434              	.L10:
 435              		.cfi_restore_state
 793:C:/Users/stapi/OneDrive/Desktop/GD32VW553/GD32VW55X_Wifi_BLE_SDK/GD32VW55x_RELEASE_V1.0.2/MSDK/plf/GD32VW55x_standard_peripheral/Source\gd32vw55x_cau_aes.c **** 
 436              		.loc 1 793 9 is_stmt 1 discriminator 1
 792:C:/Users/stapi/OneDrive/Desktop/GD32VW553/GD32VW55X_Wifi_BLE_SDK/GD32VW55x_RELEASE_V1.0.2/MSDK/plf/GD32VW55x_standard_peripheral/Source\gd32vw55x_cau_aes.c ****         }
 437              		.loc 1 792 14 discriminator 1
 792:C:/Users/stapi/OneDrive/Desktop/GD32VW553/GD32VW55X_Wifi_BLE_SDK/GD32VW55x_RELEASE_V1.0.2/MSDK/plf/GD32VW55x_standard_peripheral/Source\gd32vw55x_cau_aes.c ****         }
 438              		.loc 1 792 24 is_stmt 0 discriminator 1
 439 006c 0545     		li	a0,1
 440 006e 97000000 		call	cau_flag_get
 440      E7800000 
 441              	.LVL49:
 792:C:/Users/stapi/OneDrive/Desktop/GD32VW553/GD32VW55X_Wifi_BLE_SDK/GD32VW55x_RELEASE_V1.0.2/MSDK/plf/GD32VW55x_standard_peripheral/Source\gd32vw55x_cau_aes.c ****         }
 442              		.loc 1 792 14 discriminator 1
 443 0076 7DD9     		beq	a0,zero,.L10
 795:C:/Users/stapi/OneDrive/Desktop/GD32VW553/GD32VW55X_Wifi_BLE_SDK/GD32VW55x_RELEASE_V1.0.2/MSDK/plf/GD32VW55x_standard_peripheral/Source\gd32vw55x_cau_aes.c ****             /* the last block data number is less than 128bit */
 444              		.loc 1 795 9 is_stmt 1
 795:C:/Users/stapi/OneDrive/Desktop/GD32VW553/GD32VW55X_Wifi_BLE_SDK/GD32VW55x_RELEASE_V1.0.2/MSDK/plf/GD32VW55x_standard_peripheral/Source\gd32vw55x_cau_aes.c ****             /* the last block data number is less than 128bit */
 445              		.loc 1 795 14 is_stmt 0
 446 0078 130C0A01 		addi	s8,s4,16
 795:C:/Users/stapi/OneDrive/Desktop/GD32VW553/GD32VW55X_Wifi_BLE_SDK/GD32VW55x_RELEASE_V1.0.2/MSDK/plf/GD32VW55x_standard_peripheral/Source\gd32vw55x_cau_aes.c ****             /* the last block data number is less than 128bit */
 447              		.loc 1 795 11
 448 007c 63F98905 		bleu	s8,s3,.L11
 449              	.LBB128:
 797:C:/Users/stapi/OneDrive/Desktop/GD32VW553/GD32VW55X_Wifi_BLE_SDK/GD32VW55x_RELEASE_V1.0.2/MSDK/plf/GD32VW55x_standard_peripheral/Source\gd32vw55x_cau_aes.c **** 
 450              		.loc 1 797 13 is_stmt 1
 800:C:/Users/stapi/OneDrive/Desktop/GD32VW553/GD32VW55X_Wifi_BLE_SDK/GD32VW55x_RELEASE_V1.0.2/MSDK/plf/GD32VW55x_standard_peripheral/Source\gd32vw55x_cau_aes.c ****             inputaddr = (uint32_t)block_data_temp;
 451              		.loc 1 800 13 is_stmt 0
 452 0080 A285     		mv	a1,s0
 453 0082 33864941 		sub	a2,s3,s4
 454 0086 0808     		addi	a0,sp,16
 797:C:/Users/stapi/OneDrive/Desktop/GD32VW553/GD32VW55X_Wifi_BLE_SDK/GD32VW55x_RELEASE_V1.0.2/MSDK/plf/GD32VW55x_standard_peripheral/Source\gd32vw55x_cau_aes.c **** 
 455              		.loc 1 797 22
 456 0088 02C8     		sw	zero,16(sp)
 457 008a 02CA     		sw	zero,20(sp)
 458 008c 02CC     		sw	zero,24(sp)
 459 008e 02CE     		sw	zero,28(sp)
 800:C:/Users/stapi/OneDrive/Desktop/GD32VW553/GD32VW55X_Wifi_BLE_SDK/GD32VW55x_RELEASE_V1.0.2/MSDK/plf/GD32VW55x_standard_peripheral/Source\gd32vw55x_cau_aes.c ****             inputaddr = (uint32_t)block_data_temp;
 460              		.loc 1 800 13 is_stmt 1
 461 0090 97000000 		call	memcpy
 461      E7800000 
 462              	.LVL50:
 801:C:/Users/stapi/OneDrive/Desktop/GD32VW553/GD32VW55X_Wifi_BLE_SDK/GD32VW55x_RELEASE_V1.0.2/MSDK/plf/GD32VW55x_standard_peripheral/Source\gd32vw55x_cau_aes.c **** 
 463              		.loc 1 801 13
 804:C:/Users/stapi/OneDrive/Desktop/GD32VW553/GD32VW55X_Wifi_BLE_SDK/GD32VW55x_RELEASE_V1.0.2/MSDK/plf/GD32VW55x_standard_peripheral/Source\gd32vw55x_cau_aes.c ****                 if((CAU_CTL & (CAU_CTL_ALGM | CAU_CTL_CAUDIR)) == (CAU_MODE_AES_GCM | CAU_ENCRYPT))
 464              		.loc 1 804 17 is_stmt 0
 465 0098 83270900 		lw	a5,0(s2)
 801:C:/Users/stapi/OneDrive/Desktop/GD32VW553/GD32VW55X_Wifi_BLE_SDK/GD32VW55x_RELEASE_V1.0.2/MSDK/plf/GD32VW55x_standard_peripheral/Source\gd32vw55x_cau_aes.c **** 
 466              		.loc 1 801 23
 467 009c 0008     		addi	s0,sp,16
 468              	.LVL51:
 804:C:/Users/stapi/OneDrive/Desktop/GD32VW553/GD32VW55X_Wifi_BLE_SDK/GD32VW55x_RELEASE_V1.0.2/MSDK/plf/GD32VW55x_standard_peripheral/Source\gd32vw55x_cau_aes.c ****                 if((CAU_CTL & (CAU_CTL_ALGM | CAU_CTL_CAUDIR)) == (CAU_MODE_AES_GCM | CAU_ENCRYPT))
 469              		.loc 1 804 13 is_stmt 1
 804:C:/Users/stapi/OneDrive/Desktop/GD32VW553/GD32VW55X_Wifi_BLE_SDK/GD32VW55x_RELEASE_V1.0.2/MSDK/plf/GD32VW55x_standard_peripheral/Source\gd32vw55x_cau_aes.c ****                 if((CAU_CTL & (CAU_CTL_ALGM | CAU_CTL_CAUDIR)) == (CAU_MODE_AES_GCM | CAU_ENCRYPT))
 470              		.loc 1 804 25 is_stmt 0
 471 009e B3F79701 		and	a5,a5,s9
 804:C:/Users/stapi/OneDrive/Desktop/GD32VW553/GD32VW55X_Wifi_BLE_SDK/GD32VW55x_RELEASE_V1.0.2/MSDK/plf/GD32VW55x_standard_peripheral/Source\gd32vw55x_cau_aes.c ****                 if((CAU_CTL & (CAU_CTL_ALGM | CAU_CTL_CAUDIR)) == (CAU_MODE_AES_GCM | CAU_ENCRYPT))
 472              		.loc 1 804 15
 473 00a2 6396A703 		bne	a5,s10,.L11
 805:C:/Users/stapi/OneDrive/Desktop/GD32VW553/GD32VW55X_Wifi_BLE_SDK/GD32VW55x_RELEASE_V1.0.2/MSDK/plf/GD32VW55x_standard_peripheral/Source\gd32vw55x_cau_aes.c ****                     CAU_CTL |= CAU_PADDING_BYTES(i + BLOCK_DATA_SIZE - in_length);
 474              		.loc 1 805 17 is_stmt 1
 805:C:/Users/stapi/OneDrive/Desktop/GD32VW553/GD32VW55X_Wifi_BLE_SDK/GD32VW55x_RELEASE_V1.0.2/MSDK/plf/GD32VW55x_standard_peripheral/Source\gd32vw55x_cau_aes.c ****                     CAU_CTL |= CAU_PADDING_BYTES(i + BLOCK_DATA_SIZE - in_length);
 475              		.loc 1 805 21 is_stmt 0
 476 00a6 83270900 		lw	a5,0(s2)
 805:C:/Users/stapi/OneDrive/Desktop/GD32VW553/GD32VW55X_Wifi_BLE_SDK/GD32VW55x_RELEASE_V1.0.2/MSDK/plf/GD32VW55x_standard_peripheral/Source\gd32vw55x_cau_aes.c ****                     CAU_CTL |= CAU_PADDING_BYTES(i + BLOCK_DATA_SIZE - in_length);
 477              		.loc 1 805 29
 478 00aa B3F76701 		and	a5,a5,s6
 805:C:/Users/stapi/OneDrive/Desktop/GD32VW553/GD32VW55X_Wifi_BLE_SDK/GD32VW55x_RELEASE_V1.0.2/MSDK/plf/GD32VW55x_standard_peripheral/Source\gd32vw55x_cau_aes.c ****                     CAU_CTL |= CAU_PADDING_BYTES(i + BLOCK_DATA_SIZE - in_length);
 479              		.loc 1 805 19
 480 00ae 639A5701 		bne	a5,s5,.L13
 481              	.L24:
 808:C:/Users/stapi/OneDrive/Desktop/GD32VW553/GD32VW55X_Wifi_BLE_SDK/GD32VW55x_RELEASE_V1.0.2/MSDK/plf/GD32VW55x_standard_peripheral/Source\gd32vw55x_cau_aes.c ****                 } else {
 482              		.loc 1 808 21 is_stmt 1
 808:C:/Users/stapi/OneDrive/Desktop/GD32VW553/GD32VW55X_Wifi_BLE_SDK/GD32VW55x_RELEASE_V1.0.2/MSDK/plf/GD32VW55x_standard_peripheral/Source\gd32vw55x_cau_aes.c ****                 } else {
 483              		.loc 1 808 29 is_stmt 0
 484 00b2 03270900 		lw	a4,0(s2)
 808:C:/Users/stapi/OneDrive/Desktop/GD32VW553/GD32VW55X_Wifi_BLE_SDK/GD32VW55x_RELEASE_V1.0.2/MSDK/plf/GD32VW55x_standard_peripheral/Source\gd32vw55x_cau_aes.c ****                 } else {
 485              		.loc 1 808 32
 486 00b6 B3F77401 		and	a5,s1,s7
 808:C:/Users/stapi/OneDrive/Desktop/GD32VW553/GD32VW55X_Wifi_BLE_SDK/GD32VW55x_RELEASE_V1.0.2/MSDK/plf/GD32VW55x_standard_peripheral/Source\gd32vw55x_cau_aes.c ****                 } else {
 487              		.loc 1 808 29
 488 00ba D98F     		or	a5,a5,a4
 489 00bc 2320F900 		sw	a5,0(s2)
 810:C:/Users/stapi/OneDrive/Desktop/GD32VW553/GD32VW55X_Wifi_BLE_SDK/GD32VW55x_RELEASE_V1.0.2/MSDK/plf/GD32VW55x_standard_peripheral/Source\gd32vw55x_cau_aes.c ****             }
 490              		.loc 1 810 17 is_stmt 1
 491 00c0 39A0     		j	.L11
 492              	.L13:
 807:C:/Users/stapi/OneDrive/Desktop/GD32VW553/GD32VW55X_Wifi_BLE_SDK/GD32VW55x_RELEASE_V1.0.2/MSDK/plf/GD32VW55x_standard_peripheral/Source\gd32vw55x_cau_aes.c ****                     CAU_CTL |= CAU_PADDING_BYTES(i + BLOCK_DATA_SIZE - in_length);
 493              		.loc 1 807 24
 807:C:/Users/stapi/OneDrive/Desktop/GD32VW553/GD32VW55X_Wifi_BLE_SDK/GD32VW55x_RELEASE_V1.0.2/MSDK/plf/GD32VW55x_standard_peripheral/Source\gd32vw55x_cau_aes.c ****                     CAU_CTL |= CAU_PADDING_BYTES(i + BLOCK_DATA_SIZE - in_length);
 494              		.loc 1 807 28 is_stmt 0
 495 00c2 83270900 		lw	a5,0(s2)
 807:C:/Users/stapi/OneDrive/Desktop/GD32VW553/GD32VW55X_Wifi_BLE_SDK/GD32VW55x_RELEASE_V1.0.2/MSDK/plf/GD32VW55x_standard_peripheral/Source\gd32vw55x_cau_aes.c ****                     CAU_CTL |= CAU_PADDING_BYTES(i + BLOCK_DATA_SIZE - in_length);
 496              		.loc 1 807 36
 497 00c6 B3F76701 		and	a5,a5,s6
 807:C:/Users/stapi/OneDrive/Desktop/GD32VW553/GD32VW55X_Wifi_BLE_SDK/GD32VW55x_RELEASE_V1.0.2/MSDK/plf/GD32VW55x_standard_peripheral/Source\gd32vw55x_cau_aes.c ****                     CAU_CTL |= CAU_PADDING_BYTES(i + BLOCK_DATA_SIZE - in_length);
 498              		.loc 1 807 26
 499 00ca E384B7FF 		beq	a5,s11,.L24
 500              	.LVL52:
 501              	.L11:
 502              	.LBE128:
 815:C:/Users/stapi/OneDrive/Desktop/GD32VW553/GD32VW55X_Wifi_BLE_SDK/GD32VW55x_RELEASE_V1.0.2/MSDK/plf/GD32VW55x_standard_peripheral/Source\gd32vw55x_cau_aes.c ****         inputaddr += 4U;
 503              		.loc 1 815 9 is_stmt 1 discriminator 2
 504 00ce 0840     		lw	a0,0(s0)
 795:C:/Users/stapi/OneDrive/Desktop/GD32VW553/GD32VW55X_Wifi_BLE_SDK/GD32VW55x_RELEASE_V1.0.2/MSDK/plf/GD32VW55x_standard_peripheral/Source\gd32vw55x_cau_aes.c ****             /* the last block data number is less than 128bit */
 505              		.loc 1 795 14 is_stmt 0 discriminator 2
 506 00d0 628A     		mv	s4,s8
 507              	.LVL53:
 815:C:/Users/stapi/OneDrive/Desktop/GD32VW553/GD32VW55X_Wifi_BLE_SDK/GD32VW55x_RELEASE_V1.0.2/MSDK/plf/GD32VW55x_standard_peripheral/Source\gd32vw55x_cau_aes.c ****         inputaddr += 4U;
 508              		.loc 1 815 9 discriminator 2
 509 00d2 97000000 		call	cau_data_write
 509      E7800000 
 510              	.LVL54:
 816:C:/Users/stapi/OneDrive/Desktop/GD32VW553/GD32VW55X_Wifi_BLE_SDK/GD32VW55x_RELEASE_V1.0.2/MSDK/plf/GD32VW55x_standard_peripheral/Source\gd32vw55x_cau_aes.c ****         cau_data_write(*(uint32_t *)(inputaddr));
 511              		.loc 1 816 9 is_stmt 1 discriminator 2
 817:C:/Users/stapi/OneDrive/Desktop/GD32VW553/GD32VW55X_Wifi_BLE_SDK/GD32VW55x_RELEASE_V1.0.2/MSDK/plf/GD32VW55x_standard_peripheral/Source\gd32vw55x_cau_aes.c ****         inputaddr += 4U;
 512              		.loc 1 817 9 discriminator 2
 513 00da 4840     		lw	a0,4(s0)
 514 00dc 97000000 		call	cau_data_write
 514      E7800000 
 515              	.LVL55:
 818:C:/Users/stapi/OneDrive/Desktop/GD32VW553/GD32VW55X_Wifi_BLE_SDK/GD32VW55x_RELEASE_V1.0.2/MSDK/plf/GD32VW55x_standard_peripheral/Source\gd32vw55x_cau_aes.c ****         cau_data_write(*(uint32_t *)(inputaddr));
 516              		.loc 1 818 9 discriminator 2
 819:C:/Users/stapi/OneDrive/Desktop/GD32VW553/GD32VW55X_Wifi_BLE_SDK/GD32VW55x_RELEASE_V1.0.2/MSDK/plf/GD32VW55x_standard_peripheral/Source\gd32vw55x_cau_aes.c ****         inputaddr += 4U;
 517              		.loc 1 819 9 discriminator 2
 518 00e4 0844     		lw	a0,8(s0)
 519 00e6 97000000 		call	cau_data_write
 519      E7800000 
 520              	.LVL56:
 820:C:/Users/stapi/OneDrive/Desktop/GD32VW553/GD32VW55X_Wifi_BLE_SDK/GD32VW55x_RELEASE_V1.0.2/MSDK/plf/GD32VW55x_standard_peripheral/Source\gd32vw55x_cau_aes.c ****         cau_data_write(*(uint32_t *)(inputaddr));
 521              		.loc 1 820 9 discriminator 2
 821:C:/Users/stapi/OneDrive/Desktop/GD32VW553/GD32VW55X_Wifi_BLE_SDK/GD32VW55x_RELEASE_V1.0.2/MSDK/plf/GD32VW55x_standard_peripheral/Source\gd32vw55x_cau_aes.c ****         inputaddr += 4U;
 522              		.loc 1 821 9 discriminator 2
 523 00ee 4844     		lw	a0,12(s0)
 822:C:/Users/stapi/OneDrive/Desktop/GD32VW553/GD32VW55X_Wifi_BLE_SDK/GD32VW55x_RELEASE_V1.0.2/MSDK/plf/GD32VW55x_standard_peripheral/Source\gd32vw55x_cau_aes.c ****     }
 524              		.loc 1 822 19 is_stmt 0 discriminator 2
 525 00f0 4104     		addi	s0,s0,16
 526              	.LVL57:
 821:C:/Users/stapi/OneDrive/Desktop/GD32VW553/GD32VW55X_Wifi_BLE_SDK/GD32VW55x_RELEASE_V1.0.2/MSDK/plf/GD32VW55x_standard_peripheral/Source\gd32vw55x_cau_aes.c ****         inputaddr += 4U;
 527              		.loc 1 821 9 discriminator 2
 528 00f2 97000000 		call	cau_data_write
 528      E7800000 
 529              	.LVL58:
 822:C:/Users/stapi/OneDrive/Desktop/GD32VW553/GD32VW55X_Wifi_BLE_SDK/GD32VW55x_RELEASE_V1.0.2/MSDK/plf/GD32VW55x_standard_peripheral/Source\gd32vw55x_cau_aes.c ****     }
 530              		.loc 1 822 9 is_stmt 1 discriminator 2
 790:C:/Users/stapi/OneDrive/Desktop/GD32VW553/GD32VW55X_Wifi_BLE_SDK/GD32VW55x_RELEASE_V1.0.2/MSDK/plf/GD32VW55x_standard_peripheral/Source\gd32vw55x_cau_aes.c ****         /* wait until the IEM flag is set */
 531              		.loc 1 790 32 discriminator 2
 532 00fa B7070001 		li	a5,16777216
 533 00fe BE94     		add	s1,s1,a5
 534 0100 81B7     		j	.L9
 535              	.LVL59:
 536              	.L14:
 831:C:/Users/stapi/OneDrive/Desktop/GD32VW553/GD32VW55X_Wifi_BLE_SDK/GD32VW55x_RELEASE_V1.0.2/MSDK/plf/GD32VW55x_standard_peripheral/Source\gd32vw55x_cau_aes.c ****         return ERROR;
 537              		.loc 1 831 5
 831:C:/Users/stapi/OneDrive/Desktop/GD32VW553/GD32VW55X_Wifi_BLE_SDK/GD32VW55x_RELEASE_V1.0.2/MSDK/plf/GD32VW55x_standard_peripheral/Source\gd32vw55x_cau_aes.c ****         return ERROR;
 538              		.loc 1 831 7 is_stmt 0
 539 0102 13351500 		seqz	a0,a0
 540              	.LVL60:
 541 0106 B1BF     		j	.L7
 542              		.cfi_endproc
 543              	.LFE373:
 545              		.section	.text.cau_aes_calculate,"ax",@progbits
 546              		.align	1
 548              	cau_aes_calculate:
 549              	.LFB374:
 837:C:/Users/stapi/OneDrive/Desktop/GD32VW553/GD32VW55X_Wifi_BLE_SDK/GD32VW55x_RELEASE_V1.0.2/MSDK/plf/GD32VW55x_standard_peripheral/Source\gd32vw55x_cau_aes.c **** 
 838:C:/Users/stapi/OneDrive/Desktop/GD32VW553/GD32VW55X_Wifi_BLE_SDK/GD32VW55x_RELEASE_V1.0.2/MSDK/plf/GD32VW55x_standard_peripheral/Source\gd32vw55x_cau_aes.c **** /*!
 839:C:/Users/stapi/OneDrive/Desktop/GD32VW553/GD32VW55X_Wifi_BLE_SDK/GD32VW55x_RELEASE_V1.0.2/MSDK/plf/GD32VW55x_standard_peripheral/Source\gd32vw55x_cau_aes.c ****     \brief      AES calculate process
 840:C:/Users/stapi/OneDrive/Desktop/GD32VW553/GD32VW55X_Wifi_BLE_SDK/GD32VW55x_RELEASE_V1.0.2/MSDK/plf/GD32VW55x_standard_peripheral/Source\gd32vw55x_cau_aes.c ****     \param[in]  input: pointer to the input buffer
 841:C:/Users/stapi/OneDrive/Desktop/GD32VW553/GD32VW55X_Wifi_BLE_SDK/GD32VW55x_RELEASE_V1.0.2/MSDK/plf/GD32VW55x_standard_peripheral/Source\gd32vw55x_cau_aes.c ****     \param[in]  in_length: length of the input buffer in bytes, must be a multiple of 16 bytes
 842:C:/Users/stapi/OneDrive/Desktop/GD32VW553/GD32VW55X_Wifi_BLE_SDK/GD32VW55x_RELEASE_V1.0.2/MSDK/plf/GD32VW55x_standard_peripheral/Source\gd32vw55x_cau_aes.c ****     \param[out]  output: pointer to the returned buffer
 843:C:/Users/stapi/OneDrive/Desktop/GD32VW553/GD32VW55X_Wifi_BLE_SDK/GD32VW55x_RELEASE_V1.0.2/MSDK/plf/GD32VW55x_standard_peripheral/Source\gd32vw55x_cau_aes.c ****     \retval     ErrStatus: SUCCESS or ERROR
 844:C:/Users/stapi/OneDrive/Desktop/GD32VW553/GD32VW55X_Wifi_BLE_SDK/GD32VW55x_RELEASE_V1.0.2/MSDK/plf/GD32VW55x_standard_peripheral/Source\gd32vw55x_cau_aes.c **** */
 845:C:/Users/stapi/OneDrive/Desktop/GD32VW553/GD32VW55X_Wifi_BLE_SDK/GD32VW55x_RELEASE_V1.0.2/MSDK/plf/GD32VW55x_standard_peripheral/Source\gd32vw55x_cau_aes.c **** static ErrStatus cau_aes_calculate(uint8_t *input, uint32_t in_length, uint8_t *output)
 846:C:/Users/stapi/OneDrive/Desktop/GD32VW553/GD32VW55X_Wifi_BLE_SDK/GD32VW55x_RELEASE_V1.0.2/MSDK/plf/GD32VW55x_standard_peripheral/Source\gd32vw55x_cau_aes.c **** {
 550              		.loc 1 846 1 is_stmt 1
 551              		.cfi_startproc
 552              	.LVL61:
 553 0000 17030000 		call	t0,__riscv_save_12
 553      E7020300 
 554              		.cfi_offset 27, -52
 555              		.cfi_offset 26, -48
 556              		.cfi_offset 25, -44
 557              		.cfi_offset 24, -40
 558              		.cfi_offset 23, -36
 559              		.cfi_offset 22, -32
 560              		.cfi_offset 21, -28
 561              		.cfi_offset 20, -24
 562              		.cfi_offset 19, -20
 563              		.cfi_offset 18, -16
 564              		.cfi_offset 9, -12
 565              		.cfi_offset 8, -8
 566              		.cfi_offset 1, -4
 567              		.cfi_def_cfa_offset 64
 568 0008 0111     		addi	sp,sp,-32
 569              		.cfi_def_cfa_offset 96
 570              		.loc 1 846 1 is_stmt 0
 571 000a 2A84     		mv	s0,a0
 572 000c AE89     		mv	s3,a1
 847:C:/Users/stapi/OneDrive/Desktop/GD32VW553/GD32VW55X_Wifi_BLE_SDK/GD32VW55x_RELEASE_V1.0.2/MSDK/plf/GD32VW55x_standard_peripheral/Source\gd32vw55x_cau_aes.c ****     uint32_t inputaddr  = (uint32_t)input;
 573              		.loc 1 847 5 is_stmt 1
 574              	.LVL62:
 848:C:/Users/stapi/OneDrive/Desktop/GD32VW553/GD32VW55X_Wifi_BLE_SDK/GD32VW55x_RELEASE_V1.0.2/MSDK/plf/GD32VW55x_standard_peripheral/Source\gd32vw55x_cau_aes.c ****     uint32_t outputaddr = (uint32_t)output;
 575              		.loc 1 848 5
 849:C:/Users/stapi/OneDrive/Desktop/GD32VW553/GD32VW55X_Wifi_BLE_SDK/GD32VW55x_RELEASE_V1.0.2/MSDK/plf/GD32VW55x_standard_peripheral/Source\gd32vw55x_cau_aes.c ****     uint32_t i = 0U;
 576              		.loc 1 849 5
 850:C:/Users/stapi/OneDrive/Desktop/GD32VW553/GD32VW55X_Wifi_BLE_SDK/GD32VW55x_RELEASE_V1.0.2/MSDK/plf/GD32VW55x_standard_peripheral/Source\gd32vw55x_cau_aes.c ****     __IO uint32_t counter = 0U;
 577              		.loc 1 850 5
 846:C:/Users/stapi/OneDrive/Desktop/GD32VW553/GD32VW55X_Wifi_BLE_SDK/GD32VW55x_RELEASE_V1.0.2/MSDK/plf/GD32VW55x_standard_peripheral/Source\gd32vw55x_cau_aes.c ****     uint32_t inputaddr  = (uint32_t)input;
 578              		.loc 1 846 1 is_stmt 0
 579 000e B284     		mv	s1,a2
 580              		.loc 1 850 19
 581 0010 02C6     		sw	zero,12(sp)
 851:C:/Users/stapi/OneDrive/Desktop/GD32VW553/GD32VW55X_Wifi_BLE_SDK/GD32VW55x_RELEASE_V1.0.2/MSDK/plf/GD32VW55x_standard_peripheral/Source\gd32vw55x_cau_aes.c ****     uint32_t busystatus = 0U;
 582              		.loc 1 851 5 is_stmt 1
 583              	.LVL63:
 852:C:/Users/stapi/OneDrive/Desktop/GD32VW553/GD32VW55X_Wifi_BLE_SDK/GD32VW55x_RELEASE_V1.0.2/MSDK/plf/GD32VW55x_standard_peripheral/Source\gd32vw55x_cau_aes.c **** 
 853:C:/Users/stapi/OneDrive/Desktop/GD32VW553/GD32VW55X_Wifi_BLE_SDK/GD32VW55x_RELEASE_V1.0.2/MSDK/plf/GD32VW55x_standard_peripheral/Source\gd32vw55x_cau_aes.c ****     /* the clock is not enabled or there is no embeded CAU peripheral */
 854:C:/Users/stapi/OneDrive/Desktop/GD32VW553/GD32VW55X_Wifi_BLE_SDK/GD32VW55x_RELEASE_V1.0.2/MSDK/plf/GD32VW55x_standard_peripheral/Source\gd32vw55x_cau_aes.c ****     if(DISABLE == cau_enable_state_get()) {
 584              		.loc 1 854 5
 585              		.loc 1 854 19 is_stmt 0
 586 0012 97000000 		call	cau_enable_state_get
 586      E7800000 
 587              	.LVL64:
 588              		.loc 1 854 7
 589 001a 6DCD     		beq	a0,zero,.L26
 590 001c 4149     		li	s2,16
 591              	.LBB129:
 855:C:/Users/stapi/OneDrive/Desktop/GD32VW553/GD32VW55X_Wifi_BLE_SDK/GD32VW55x_RELEASE_V1.0.2/MSDK/plf/GD32VW55x_standard_peripheral/Source\gd32vw55x_cau_aes.c ****         return ERROR;
 856:C:/Users/stapi/OneDrive/Desktop/GD32VW553/GD32VW55X_Wifi_BLE_SDK/GD32VW55x_RELEASE_V1.0.2/MSDK/plf/GD32VW55x_standard_peripheral/Source\gd32vw55x_cau_aes.c ****     }
 857:C:/Users/stapi/OneDrive/Desktop/GD32VW553/GD32VW55X_Wifi_BLE_SDK/GD32VW55x_RELEASE_V1.0.2/MSDK/plf/GD32VW55x_standard_peripheral/Source\gd32vw55x_cau_aes.c **** 
 858:C:/Users/stapi/OneDrive/Desktop/GD32VW553/GD32VW55X_Wifi_BLE_SDK/GD32VW55x_RELEASE_V1.0.2/MSDK/plf/GD32VW55x_standard_peripheral/Source\gd32vw55x_cau_aes.c ****     for(i = 0U; i < in_length; i += BLOCK_DATA_SIZE) {
 859:C:/Users/stapi/OneDrive/Desktop/GD32VW553/GD32VW55X_Wifi_BLE_SDK/GD32VW55x_RELEASE_V1.0.2/MSDK/plf/GD32VW55x_standard_peripheral/Source\gd32vw55x_cau_aes.c ****         /* wait until the IEM flag is set */
 860:C:/Users/stapi/OneDrive/Desktop/GD32VW553/GD32VW55X_Wifi_BLE_SDK/GD32VW55x_RELEASE_V1.0.2/MSDK/plf/GD32VW55x_standard_peripheral/Source\gd32vw55x_cau_aes.c ****         while(RESET == cau_flag_get(CAU_FLAG_INFIFO_EMPTY)) {
 861:C:/Users/stapi/OneDrive/Desktop/GD32VW553/GD32VW55X_Wifi_BLE_SDK/GD32VW55x_RELEASE_V1.0.2/MSDK/plf/GD32VW55x_standard_peripheral/Source\gd32vw55x_cau_aes.c ****         }
 862:C:/Users/stapi/OneDrive/Desktop/GD32VW553/GD32VW55X_Wifi_BLE_SDK/GD32VW55x_RELEASE_V1.0.2/MSDK/plf/GD32VW55x_standard_peripheral/Source\gd32vw55x_cau_aes.c **** 
 863:C:/Users/stapi/OneDrive/Desktop/GD32VW553/GD32VW55X_Wifi_BLE_SDK/GD32VW55x_RELEASE_V1.0.2/MSDK/plf/GD32VW55x_standard_peripheral/Source\gd32vw55x_cau_aes.c ****         /* check if the last input data block */
 864:C:/Users/stapi/OneDrive/Desktop/GD32VW553/GD32VW55X_Wifi_BLE_SDK/GD32VW55x_RELEASE_V1.0.2/MSDK/plf/GD32VW55x_standard_peripheral/Source\gd32vw55x_cau_aes.c ****         if(i + BLOCK_DATA_SIZE > in_length) {
 865:C:/Users/stapi/OneDrive/Desktop/GD32VW553/GD32VW55X_Wifi_BLE_SDK/GD32VW55x_RELEASE_V1.0.2/MSDK/plf/GD32VW55x_standard_peripheral/Source\gd32vw55x_cau_aes.c ****             /* the last block data number is less than 128bit */
 866:C:/Users/stapi/OneDrive/Desktop/GD32VW553/GD32VW55X_Wifi_BLE_SDK/GD32VW55x_RELEASE_V1.0.2/MSDK/plf/GD32VW55x_standard_peripheral/Source\gd32vw55x_cau_aes.c ****             uint32_t block_data_temp[4] = {0};
 867:C:/Users/stapi/OneDrive/Desktop/GD32VW553/GD32VW55X_Wifi_BLE_SDK/GD32VW55x_RELEASE_V1.0.2/MSDK/plf/GD32VW55x_standard_peripheral/Source\gd32vw55x_cau_aes.c **** 
 868:C:/Users/stapi/OneDrive/Desktop/GD32VW553/GD32VW55X_Wifi_BLE_SDK/GD32VW55x_RELEASE_V1.0.2/MSDK/plf/GD32VW55x_standard_peripheral/Source\gd32vw55x_cau_aes.c ****             /* fill the remaining bits with zero */
 869:C:/Users/stapi/OneDrive/Desktop/GD32VW553/GD32VW55X_Wifi_BLE_SDK/GD32VW55x_RELEASE_V1.0.2/MSDK/plf/GD32VW55x_standard_peripheral/Source\gd32vw55x_cau_aes.c ****             memcpy(block_data_temp, (uint32_t *)inputaddr, in_length - i);
 870:C:/Users/stapi/OneDrive/Desktop/GD32VW553/GD32VW55X_Wifi_BLE_SDK/GD32VW55x_RELEASE_V1.0.2/MSDK/plf/GD32VW55x_standard_peripheral/Source\gd32vw55x_cau_aes.c ****             inputaddr = (uint32_t)block_data_temp;
 871:C:/Users/stapi/OneDrive/Desktop/GD32VW553/GD32VW55X_Wifi_BLE_SDK/GD32VW55x_RELEASE_V1.0.2/MSDK/plf/GD32VW55x_standard_peripheral/Source\gd32vw55x_cau_aes.c **** 
 872:C:/Users/stapi/OneDrive/Desktop/GD32VW553/GD32VW55X_Wifi_BLE_SDK/GD32VW55x_RELEASE_V1.0.2/MSDK/plf/GD32VW55x_standard_peripheral/Source\gd32vw55x_cau_aes.c ****             /* if GCM encryption or CCM decryption, then configurate NBPILB bits in CTL register */
 873:C:/Users/stapi/OneDrive/Desktop/GD32VW553/GD32VW55X_Wifi_BLE_SDK/GD32VW55x_RELEASE_V1.0.2/MSDK/plf/GD32VW55x_standard_peripheral/Source\gd32vw55x_cau_aes.c ****             if((CAU_CTL & (CAU_CTL_ALGM | CAU_CTL_CAUDIR)) == (CAU_MODE_AES_GCM | CAU_ENCRYPT)) {
 592              		.loc 1 873 25
 593 001e 370B0800 		li	s6,524288
 594 0022 33093941 		sub	s2,s2,s3
 595 0026 5209     		slli	s2,s2,20
 596              	.LBE129:
 858:C:/Users/stapi/OneDrive/Desktop/GD32VW553/GD32VW55X_Wifi_BLE_SDK/GD32VW55x_RELEASE_V1.0.2/MSDK/plf/GD32VW55x_standard_peripheral/Source\gd32vw55x_cau_aes.c ****         /* wait until the IEM flag is set */
 597              		.loc 1 858 11
 598 0028 814A     		li	s5,0
 599              	.LBB130:
 869:C:/Users/stapi/OneDrive/Desktop/GD32VW553/GD32VW55X_Wifi_BLE_SDK/GD32VW55x_RELEASE_V1.0.2/MSDK/plf/GD32VW55x_standard_peripheral/Source\gd32vw55x_cau_aes.c ****             inputaddr = (uint32_t)block_data_temp;
 600              		.loc 1 869 13
 601 002a B38C3401 		add	s9,s1,s3
 602              		.loc 1 873 17
 603 002e 370A064C 		li	s4,1275461632
 604              		.loc 1 873 25
 605 0032 930BCB03 		addi	s7,s6,60
 874:C:/Users/stapi/OneDrive/Desktop/GD32VW553/GD32VW55X_Wifi_BLE_SDK/GD32VW55x_RELEASE_V1.0.2/MSDK/plf/GD32VW55x_standard_peripheral/Source\gd32vw55x_cau_aes.c ****                 CAU_CTL |= CAU_PADDING_BYTES(i + BLOCK_DATA_SIZE - in_length);
 875:C:/Users/stapi/OneDrive/Desktop/GD32VW553/GD32VW55X_Wifi_BLE_SDK/GD32VW55x_RELEASE_V1.0.2/MSDK/plf/GD32VW55x_standard_peripheral/Source\gd32vw55x_cau_aes.c ****             } else if((CAU_CTL & (CAU_CTL_ALGM | CAU_CTL_CAUDIR)) == (CAU_MODE_AES_CCM | CAU_DECRYP
 606              		.loc 1 875 22
 607 0036 130DCB00 		addi	s10,s6,12
 876:C:/Users/stapi/OneDrive/Desktop/GD32VW553/GD32VW55X_Wifi_BLE_SDK/GD32VW55x_RELEASE_V1.0.2/MSDK/plf/GD32VW55x_standard_peripheral/Source\gd32vw55x_cau_aes.c ****                 CAU_CTL |= CAU_PADDING_BYTES(i + BLOCK_DATA_SIZE - in_length);
 608              		.loc 1 876 28
 609 003a 370CF000 		li	s8,15728640
 610              	.LBE130:
 877:C:/Users/stapi/OneDrive/Desktop/GD32VW553/GD32VW55X_Wifi_BLE_SDK/GD32VW55x_RELEASE_V1.0.2/MSDK/plf/GD32VW55x_standard_peripheral/Source\gd32vw55x_cau_aes.c ****             } else {
 878:C:/Users/stapi/OneDrive/Desktop/GD32VW553/GD32VW55X_Wifi_BLE_SDK/GD32VW55x_RELEASE_V1.0.2/MSDK/plf/GD32VW55x_standard_peripheral/Source\gd32vw55x_cau_aes.c ****             }
 879:C:/Users/stapi/OneDrive/Desktop/GD32VW553/GD32VW55X_Wifi_BLE_SDK/GD32VW55x_RELEASE_V1.0.2/MSDK/plf/GD32VW55x_standard_peripheral/Source\gd32vw55x_cau_aes.c ****         }
 880:C:/Users/stapi/OneDrive/Desktop/GD32VW553/GD32VW55X_Wifi_BLE_SDK/GD32VW55x_RELEASE_V1.0.2/MSDK/plf/GD32VW55x_standard_peripheral/Source\gd32vw55x_cau_aes.c **** 
 881:C:/Users/stapi/OneDrive/Desktop/GD32VW553/GD32VW55X_Wifi_BLE_SDK/GD32VW55x_RELEASE_V1.0.2/MSDK/plf/GD32VW55x_standard_peripheral/Source\gd32vw55x_cau_aes.c ****         /* write data to the IN FIFO */
 882:C:/Users/stapi/OneDrive/Desktop/GD32VW553/GD32VW55X_Wifi_BLE_SDK/GD32VW55x_RELEASE_V1.0.2/MSDK/plf/GD32VW55x_standard_peripheral/Source\gd32vw55x_cau_aes.c ****         cau_data_write(*(uint32_t *)(inputaddr));
 883:C:/Users/stapi/OneDrive/Desktop/GD32VW553/GD32VW55X_Wifi_BLE_SDK/GD32VW55x_RELEASE_V1.0.2/MSDK/plf/GD32VW55x_standard_peripheral/Source\gd32vw55x_cau_aes.c ****         inputaddr += 4U;
 884:C:/Users/stapi/OneDrive/Desktop/GD32VW553/GD32VW55X_Wifi_BLE_SDK/GD32VW55x_RELEASE_V1.0.2/MSDK/plf/GD32VW55x_standard_peripheral/Source\gd32vw55x_cau_aes.c ****         cau_data_write(*(uint32_t *)(inputaddr));
 885:C:/Users/stapi/OneDrive/Desktop/GD32VW553/GD32VW55X_Wifi_BLE_SDK/GD32VW55x_RELEASE_V1.0.2/MSDK/plf/GD32VW55x_standard_peripheral/Source\gd32vw55x_cau_aes.c ****         inputaddr += 4U;
 886:C:/Users/stapi/OneDrive/Desktop/GD32VW553/GD32VW55X_Wifi_BLE_SDK/GD32VW55x_RELEASE_V1.0.2/MSDK/plf/GD32VW55x_standard_peripheral/Source\gd32vw55x_cau_aes.c ****         cau_data_write(*(uint32_t *)(inputaddr));
 887:C:/Users/stapi/OneDrive/Desktop/GD32VW553/GD32VW55X_Wifi_BLE_SDK/GD32VW55x_RELEASE_V1.0.2/MSDK/plf/GD32VW55x_standard_peripheral/Source\gd32vw55x_cau_aes.c ****         inputaddr += 4U;
 888:C:/Users/stapi/OneDrive/Desktop/GD32VW553/GD32VW55X_Wifi_BLE_SDK/GD32VW55x_RELEASE_V1.0.2/MSDK/plf/GD32VW55x_standard_peripheral/Source\gd32vw55x_cau_aes.c ****         cau_data_write(*(uint32_t *)(inputaddr));
 889:C:/Users/stapi/OneDrive/Desktop/GD32VW553/GD32VW55X_Wifi_BLE_SDK/GD32VW55x_RELEASE_V1.0.2/MSDK/plf/GD32VW55x_standard_peripheral/Source\gd32vw55x_cau_aes.c ****         inputaddr += 4U;
 890:C:/Users/stapi/OneDrive/Desktop/GD32VW553/GD32VW55X_Wifi_BLE_SDK/GD32VW55x_RELEASE_V1.0.2/MSDK/plf/GD32VW55x_standard_peripheral/Source\gd32vw55x_cau_aes.c **** 
 891:C:/Users/stapi/OneDrive/Desktop/GD32VW553/GD32VW55X_Wifi_BLE_SDK/GD32VW55x_RELEASE_V1.0.2/MSDK/plf/GD32VW55x_standard_peripheral/Source\gd32vw55x_cau_aes.c ****         /* wait until the complete message has been processed */
 892:C:/Users/stapi/OneDrive/Desktop/GD32VW553/GD32VW55X_Wifi_BLE_SDK/GD32VW55x_RELEASE_V1.0.2/MSDK/plf/GD32VW55x_standard_peripheral/Source\gd32vw55x_cau_aes.c ****         counter = 0U;
 893:C:/Users/stapi/OneDrive/Desktop/GD32VW553/GD32VW55X_Wifi_BLE_SDK/GD32VW55x_RELEASE_V1.0.2/MSDK/plf/GD32VW55x_standard_peripheral/Source\gd32vw55x_cau_aes.c ****         do {
 894:C:/Users/stapi/OneDrive/Desktop/GD32VW553/GD32VW55X_Wifi_BLE_SDK/GD32VW55x_RELEASE_V1.0.2/MSDK/plf/GD32VW55x_standard_peripheral/Source\gd32vw55x_cau_aes.c ****             busystatus = cau_flag_get(CAU_FLAG_BUSY);
 895:C:/Users/stapi/OneDrive/Desktop/GD32VW553/GD32VW55X_Wifi_BLE_SDK/GD32VW55x_RELEASE_V1.0.2/MSDK/plf/GD32VW55x_standard_peripheral/Source\gd32vw55x_cau_aes.c ****             counter++;
 896:C:/Users/stapi/OneDrive/Desktop/GD32VW553/GD32VW55X_Wifi_BLE_SDK/GD32VW55x_RELEASE_V1.0.2/MSDK/plf/GD32VW55x_standard_peripheral/Source\gd32vw55x_cau_aes.c ****         } while((AESBSY_TIMEOUT != counter) && (RESET != busystatus));
 611              		.loc 1 896 9
 612 003e C16D     		li	s11,65536
 613              	.LVL65:
 614              	.L27:
 858:C:/Users/stapi/OneDrive/Desktop/GD32VW553/GD32VW55X_Wifi_BLE_SDK/GD32VW55x_RELEASE_V1.0.2/MSDK/plf/GD32VW55x_standard_peripheral/Source\gd32vw55x_cau_aes.c ****         /* wait until the IEM flag is set */
 615              		.loc 1 858 17 is_stmt 1 discriminator 1
 858:C:/Users/stapi/OneDrive/Desktop/GD32VW553/GD32VW55X_Wifi_BLE_SDK/GD32VW55x_RELEASE_V1.0.2/MSDK/plf/GD32VW55x_standard_peripheral/Source\gd32vw55x_cau_aes.c ****         /* wait until the IEM flag is set */
 616              		.loc 1 858 5 is_stmt 0 discriminator 1
 617 0040 63E43A01 		bltu	s5,s3,.L29
 897:C:/Users/stapi/OneDrive/Desktop/GD32VW553/GD32VW55X_Wifi_BLE_SDK/GD32VW55x_RELEASE_V1.0.2/MSDK/plf/GD32VW55x_standard_peripheral/Source\gd32vw55x_cau_aes.c **** 
 898:C:/Users/stapi/OneDrive/Desktop/GD32VW553/GD32VW55X_Wifi_BLE_SDK/GD32VW55x_RELEASE_V1.0.2/MSDK/plf/GD32VW55x_standard_peripheral/Source\gd32vw55x_cau_aes.c ****         if(RESET != busystatus) {
 899:C:/Users/stapi/OneDrive/Desktop/GD32VW553/GD32VW55X_Wifi_BLE_SDK/GD32VW55x_RELEASE_V1.0.2/MSDK/plf/GD32VW55x_standard_peripheral/Source\gd32vw55x_cau_aes.c ****             return ERROR;
 900:C:/Users/stapi/OneDrive/Desktop/GD32VW553/GD32VW55X_Wifi_BLE_SDK/GD32VW55x_RELEASE_V1.0.2/MSDK/plf/GD32VW55x_standard_peripheral/Source\gd32vw55x_cau_aes.c ****         } else {
 901:C:/Users/stapi/OneDrive/Desktop/GD32VW553/GD32VW55X_Wifi_BLE_SDK/GD32VW55x_RELEASE_V1.0.2/MSDK/plf/GD32VW55x_standard_peripheral/Source\gd32vw55x_cau_aes.c ****             /* read the output block from the output FIFO */
 902:C:/Users/stapi/OneDrive/Desktop/GD32VW553/GD32VW55X_Wifi_BLE_SDK/GD32VW55x_RELEASE_V1.0.2/MSDK/plf/GD32VW55x_standard_peripheral/Source\gd32vw55x_cau_aes.c ****             *(uint32_t *)(outputaddr) = cau_data_read();
 903:C:/Users/stapi/OneDrive/Desktop/GD32VW553/GD32VW55X_Wifi_BLE_SDK/GD32VW55x_RELEASE_V1.0.2/MSDK/plf/GD32VW55x_standard_peripheral/Source\gd32vw55x_cau_aes.c ****             outputaddr += 4U;
 904:C:/Users/stapi/OneDrive/Desktop/GD32VW553/GD32VW55X_Wifi_BLE_SDK/GD32VW55x_RELEASE_V1.0.2/MSDK/plf/GD32VW55x_standard_peripheral/Source\gd32vw55x_cau_aes.c ****             *(uint32_t *)(outputaddr) = cau_data_read();
 905:C:/Users/stapi/OneDrive/Desktop/GD32VW553/GD32VW55X_Wifi_BLE_SDK/GD32VW55x_RELEASE_V1.0.2/MSDK/plf/GD32VW55x_standard_peripheral/Source\gd32vw55x_cau_aes.c ****             outputaddr += 4U;
 906:C:/Users/stapi/OneDrive/Desktop/GD32VW553/GD32VW55X_Wifi_BLE_SDK/GD32VW55x_RELEASE_V1.0.2/MSDK/plf/GD32VW55x_standard_peripheral/Source\gd32vw55x_cau_aes.c ****             *(uint32_t *)(outputaddr) = cau_data_read();
 907:C:/Users/stapi/OneDrive/Desktop/GD32VW553/GD32VW55X_Wifi_BLE_SDK/GD32VW55x_RELEASE_V1.0.2/MSDK/plf/GD32VW55x_standard_peripheral/Source\gd32vw55x_cau_aes.c ****             outputaddr += 4U;
 908:C:/Users/stapi/OneDrive/Desktop/GD32VW553/GD32VW55X_Wifi_BLE_SDK/GD32VW55x_RELEASE_V1.0.2/MSDK/plf/GD32VW55x_standard_peripheral/Source\gd32vw55x_cau_aes.c ****             *(uint32_t *)(outputaddr) = cau_data_read();
 909:C:/Users/stapi/OneDrive/Desktop/GD32VW553/GD32VW55X_Wifi_BLE_SDK/GD32VW55x_RELEASE_V1.0.2/MSDK/plf/GD32VW55x_standard_peripheral/Source\gd32vw55x_cau_aes.c ****             outputaddr += 4U;
 910:C:/Users/stapi/OneDrive/Desktop/GD32VW553/GD32VW55X_Wifi_BLE_SDK/GD32VW55x_RELEASE_V1.0.2/MSDK/plf/GD32VW55x_standard_peripheral/Source\gd32vw55x_cau_aes.c ****         }
 911:C:/Users/stapi/OneDrive/Desktop/GD32VW553/GD32VW55X_Wifi_BLE_SDK/GD32VW55x_RELEASE_V1.0.2/MSDK/plf/GD32VW55x_standard_peripheral/Source\gd32vw55x_cau_aes.c ****     }
 912:C:/Users/stapi/OneDrive/Desktop/GD32VW553/GD32VW55X_Wifi_BLE_SDK/GD32VW55x_RELEASE_V1.0.2/MSDK/plf/GD32VW55x_standard_peripheral/Source\gd32vw55x_cau_aes.c **** 
 913:C:/Users/stapi/OneDrive/Desktop/GD32VW553/GD32VW55X_Wifi_BLE_SDK/GD32VW55x_RELEASE_V1.0.2/MSDK/plf/GD32VW55x_standard_peripheral/Source\gd32vw55x_cau_aes.c ****     return SUCCESS;
 618              		.loc 1 913 12
 619 0044 0545     		li	a0,1
 620 0046 C1A8     		j	.L25
 621              	.L29:
 861:C:/Users/stapi/OneDrive/Desktop/GD32VW553/GD32VW55X_Wifi_BLE_SDK/GD32VW55x_RELEASE_V1.0.2/MSDK/plf/GD32VW55x_standard_peripheral/Source\gd32vw55x_cau_aes.c **** 
 622              		.loc 1 861 9 is_stmt 1 discriminator 1
 860:C:/Users/stapi/OneDrive/Desktop/GD32VW553/GD32VW55X_Wifi_BLE_SDK/GD32VW55x_RELEASE_V1.0.2/MSDK/plf/GD32VW55x_standard_peripheral/Source\gd32vw55x_cau_aes.c ****         }
 623              		.loc 1 860 14 discriminator 1
 860:C:/Users/stapi/OneDrive/Desktop/GD32VW553/GD32VW55X_Wifi_BLE_SDK/GD32VW55x_RELEASE_V1.0.2/MSDK/plf/GD32VW55x_standard_peripheral/Source\gd32vw55x_cau_aes.c ****         }
 624              		.loc 1 860 24 is_stmt 0 discriminator 1
 625 0048 0545     		li	a0,1
 626 004a 97000000 		call	cau_flag_get
 626      E7800000 
 627              	.LVL66:
 860:C:/Users/stapi/OneDrive/Desktop/GD32VW553/GD32VW55X_Wifi_BLE_SDK/GD32VW55x_RELEASE_V1.0.2/MSDK/plf/GD32VW55x_standard_peripheral/Source\gd32vw55x_cau_aes.c ****         }
 628              		.loc 1 860 14 discriminator 1
 629 0052 7DD9     		beq	a0,zero,.L29
 864:C:/Users/stapi/OneDrive/Desktop/GD32VW553/GD32VW55X_Wifi_BLE_SDK/GD32VW55x_RELEASE_V1.0.2/MSDK/plf/GD32VW55x_standard_peripheral/Source\gd32vw55x_cau_aes.c ****             /* the last block data number is less than 128bit */
 630              		.loc 1 864 9 is_stmt 1
 864:C:/Users/stapi/OneDrive/Desktop/GD32VW553/GD32VW55X_Wifi_BLE_SDK/GD32VW55x_RELEASE_V1.0.2/MSDK/plf/GD32VW55x_standard_peripheral/Source\gd32vw55x_cau_aes.c ****             /* the last block data number is less than 128bit */
 631              		.loc 1 864 14 is_stmt 0
 632 0054 C10A     		addi	s5,s5,16
 633              	.LVL67:
 864:C:/Users/stapi/OneDrive/Desktop/GD32VW553/GD32VW55X_Wifi_BLE_SDK/GD32VW55x_RELEASE_V1.0.2/MSDK/plf/GD32VW55x_standard_peripheral/Source\gd32vw55x_cau_aes.c ****             /* the last block data number is less than 128bit */
 634              		.loc 1 864 11
 635 0056 63F35905 		bleu	s5,s3,.L30
 636              	.LBB131:
 866:C:/Users/stapi/OneDrive/Desktop/GD32VW553/GD32VW55X_Wifi_BLE_SDK/GD32VW55x_RELEASE_V1.0.2/MSDK/plf/GD32VW55x_standard_peripheral/Source\gd32vw55x_cau_aes.c **** 
 637              		.loc 1 866 13 is_stmt 1
 869:C:/Users/stapi/OneDrive/Desktop/GD32VW553/GD32VW55X_Wifi_BLE_SDK/GD32VW55x_RELEASE_V1.0.2/MSDK/plf/GD32VW55x_standard_peripheral/Source\gd32vw55x_cau_aes.c ****             inputaddr = (uint32_t)block_data_temp;
 638              		.loc 1 869 13 is_stmt 0
 639 005a A285     		mv	a1,s0
 640 005c 33869C40 		sub	a2,s9,s1
 641 0060 0808     		addi	a0,sp,16
 866:C:/Users/stapi/OneDrive/Desktop/GD32VW553/GD32VW55X_Wifi_BLE_SDK/GD32VW55x_RELEASE_V1.0.2/MSDK/plf/GD32VW55x_standard_peripheral/Source\gd32vw55x_cau_aes.c **** 
 642              		.loc 1 866 22
 643 0062 02C8     		sw	zero,16(sp)
 644 0064 02CA     		sw	zero,20(sp)
 645 0066 02CC     		sw	zero,24(sp)
 646 0068 02CE     		sw	zero,28(sp)
 869:C:/Users/stapi/OneDrive/Desktop/GD32VW553/GD32VW55X_Wifi_BLE_SDK/GD32VW55x_RELEASE_V1.0.2/MSDK/plf/GD32VW55x_standard_peripheral/Source\gd32vw55x_cau_aes.c ****             inputaddr = (uint32_t)block_data_temp;
 647              		.loc 1 869 13 is_stmt 1
 648 006a 97000000 		call	memcpy
 648      E7800000 
 649              	.LVL68:
 870:C:/Users/stapi/OneDrive/Desktop/GD32VW553/GD32VW55X_Wifi_BLE_SDK/GD32VW55x_RELEASE_V1.0.2/MSDK/plf/GD32VW55x_standard_peripheral/Source\gd32vw55x_cau_aes.c **** 
 650              		.loc 1 870 13
 873:C:/Users/stapi/OneDrive/Desktop/GD32VW553/GD32VW55X_Wifi_BLE_SDK/GD32VW55x_RELEASE_V1.0.2/MSDK/plf/GD32VW55x_standard_peripheral/Source\gd32vw55x_cau_aes.c ****                 CAU_CTL |= CAU_PADDING_BYTES(i + BLOCK_DATA_SIZE - in_length);
 651              		.loc 1 873 17 is_stmt 0
 652 0072 83270A00 		lw	a5,0(s4)
 870:C:/Users/stapi/OneDrive/Desktop/GD32VW553/GD32VW55X_Wifi_BLE_SDK/GD32VW55x_RELEASE_V1.0.2/MSDK/plf/GD32VW55x_standard_peripheral/Source\gd32vw55x_cau_aes.c **** 
 653              		.loc 1 870 23
 654 0076 0008     		addi	s0,sp,16
 655              	.LVL69:
 873:C:/Users/stapi/OneDrive/Desktop/GD32VW553/GD32VW55X_Wifi_BLE_SDK/GD32VW55x_RELEASE_V1.0.2/MSDK/plf/GD32VW55x_standard_peripheral/Source\gd32vw55x_cau_aes.c ****                 CAU_CTL |= CAU_PADDING_BYTES(i + BLOCK_DATA_SIZE - in_length);
 656              		.loc 1 873 13 is_stmt 1
 873:C:/Users/stapi/OneDrive/Desktop/GD32VW553/GD32VW55X_Wifi_BLE_SDK/GD32VW55x_RELEASE_V1.0.2/MSDK/plf/GD32VW55x_standard_peripheral/Source\gd32vw55x_cau_aes.c ****                 CAU_CTL |= CAU_PADDING_BYTES(i + BLOCK_DATA_SIZE - in_length);
 657              		.loc 1 873 25 is_stmt 0
 658 0078 B3F77701 		and	a5,a5,s7
 873:C:/Users/stapi/OneDrive/Desktop/GD32VW553/GD32VW55X_Wifi_BLE_SDK/GD32VW55x_RELEASE_V1.0.2/MSDK/plf/GD32VW55x_standard_peripheral/Source\gd32vw55x_cau_aes.c ****                 CAU_CTL |= CAU_PADDING_BYTES(i + BLOCK_DATA_SIZE - in_length);
 659              		.loc 1 873 15
 660 007c 639A6701 		bne	a5,s6,.L31
 661              	.L44:
 876:C:/Users/stapi/OneDrive/Desktop/GD32VW553/GD32VW55X_Wifi_BLE_SDK/GD32VW55x_RELEASE_V1.0.2/MSDK/plf/GD32VW55x_standard_peripheral/Source\gd32vw55x_cau_aes.c ****             } else {
 662              		.loc 1 876 17 is_stmt 1
 876:C:/Users/stapi/OneDrive/Desktop/GD32VW553/GD32VW55X_Wifi_BLE_SDK/GD32VW55x_RELEASE_V1.0.2/MSDK/plf/GD32VW55x_standard_peripheral/Source\gd32vw55x_cau_aes.c ****             } else {
 663              		.loc 1 876 25 is_stmt 0
 664 0080 03270A00 		lw	a4,0(s4)
 876:C:/Users/stapi/OneDrive/Desktop/GD32VW553/GD32VW55X_Wifi_BLE_SDK/GD32VW55x_RELEASE_V1.0.2/MSDK/plf/GD32VW55x_standard_peripheral/Source\gd32vw55x_cau_aes.c ****             } else {
 665              		.loc 1 876 28
 666 0084 B3778901 		and	a5,s2,s8
 876:C:/Users/stapi/OneDrive/Desktop/GD32VW553/GD32VW55X_Wifi_BLE_SDK/GD32VW55x_RELEASE_V1.0.2/MSDK/plf/GD32VW55x_standard_peripheral/Source\gd32vw55x_cau_aes.c ****             } else {
 667              		.loc 1 876 25
 668 0088 D98F     		or	a5,a5,a4
 669 008a 2320FA00 		sw	a5,0(s4)
 878:C:/Users/stapi/OneDrive/Desktop/GD32VW553/GD32VW55X_Wifi_BLE_SDK/GD32VW55x_RELEASE_V1.0.2/MSDK/plf/GD32VW55x_standard_peripheral/Source\gd32vw55x_cau_aes.c ****         }
 670              		.loc 1 878 13 is_stmt 1
 671 008e 39A0     		j	.L30
 672              	.L31:
 875:C:/Users/stapi/OneDrive/Desktop/GD32VW553/GD32VW55X_Wifi_BLE_SDK/GD32VW55x_RELEASE_V1.0.2/MSDK/plf/GD32VW55x_standard_peripheral/Source\gd32vw55x_cau_aes.c ****                 CAU_CTL |= CAU_PADDING_BYTES(i + BLOCK_DATA_SIZE - in_length);
 673              		.loc 1 875 20
 875:C:/Users/stapi/OneDrive/Desktop/GD32VW553/GD32VW55X_Wifi_BLE_SDK/GD32VW55x_RELEASE_V1.0.2/MSDK/plf/GD32VW55x_standard_peripheral/Source\gd32vw55x_cau_aes.c ****                 CAU_CTL |= CAU_PADDING_BYTES(i + BLOCK_DATA_SIZE - in_length);
 674              		.loc 1 875 24 is_stmt 0
 675 0090 83270A00 		lw	a5,0(s4)
 875:C:/Users/stapi/OneDrive/Desktop/GD32VW553/GD32VW55X_Wifi_BLE_SDK/GD32VW55x_RELEASE_V1.0.2/MSDK/plf/GD32VW55x_standard_peripheral/Source\gd32vw55x_cau_aes.c ****                 CAU_CTL |= CAU_PADDING_BYTES(i + BLOCK_DATA_SIZE - in_length);
 676              		.loc 1 875 32
 677 0094 B3F77701 		and	a5,a5,s7
 875:C:/Users/stapi/OneDrive/Desktop/GD32VW553/GD32VW55X_Wifi_BLE_SDK/GD32VW55x_RELEASE_V1.0.2/MSDK/plf/GD32VW55x_standard_peripheral/Source\gd32vw55x_cau_aes.c ****                 CAU_CTL |= CAU_PADDING_BYTES(i + BLOCK_DATA_SIZE - in_length);
 678              		.loc 1 875 22
 679 0098 E384A7FF 		beq	a5,s10,.L44
 680              	.LVL70:
 681              	.L30:
 682              	.LBE131:
 882:C:/Users/stapi/OneDrive/Desktop/GD32VW553/GD32VW55X_Wifi_BLE_SDK/GD32VW55x_RELEASE_V1.0.2/MSDK/plf/GD32VW55x_standard_peripheral/Source\gd32vw55x_cau_aes.c ****         inputaddr += 4U;
 683              		.loc 1 882 9 is_stmt 1
 684 009c 0840     		lw	a0,0(s0)
 685 009e 97000000 		call	cau_data_write
 685      E7800000 
 686              	.LVL71:
 883:C:/Users/stapi/OneDrive/Desktop/GD32VW553/GD32VW55X_Wifi_BLE_SDK/GD32VW55x_RELEASE_V1.0.2/MSDK/plf/GD32VW55x_standard_peripheral/Source\gd32vw55x_cau_aes.c ****         cau_data_write(*(uint32_t *)(inputaddr));
 687              		.loc 1 883 9
 884:C:/Users/stapi/OneDrive/Desktop/GD32VW553/GD32VW55X_Wifi_BLE_SDK/GD32VW55x_RELEASE_V1.0.2/MSDK/plf/GD32VW55x_standard_peripheral/Source\gd32vw55x_cau_aes.c ****         inputaddr += 4U;
 688              		.loc 1 884 9
 689 00a6 4840     		lw	a0,4(s0)
 690 00a8 97000000 		call	cau_data_write
 690      E7800000 
 691              	.LVL72:
 885:C:/Users/stapi/OneDrive/Desktop/GD32VW553/GD32VW55X_Wifi_BLE_SDK/GD32VW55x_RELEASE_V1.0.2/MSDK/plf/GD32VW55x_standard_peripheral/Source\gd32vw55x_cau_aes.c ****         cau_data_write(*(uint32_t *)(inputaddr));
 692              		.loc 1 885 9
 886:C:/Users/stapi/OneDrive/Desktop/GD32VW553/GD32VW55X_Wifi_BLE_SDK/GD32VW55x_RELEASE_V1.0.2/MSDK/plf/GD32VW55x_standard_peripheral/Source\gd32vw55x_cau_aes.c ****         inputaddr += 4U;
 693              		.loc 1 886 9
 694 00b0 0844     		lw	a0,8(s0)
 695 00b2 97000000 		call	cau_data_write
 695      E7800000 
 696              	.LVL73:
 887:C:/Users/stapi/OneDrive/Desktop/GD32VW553/GD32VW55X_Wifi_BLE_SDK/GD32VW55x_RELEASE_V1.0.2/MSDK/plf/GD32VW55x_standard_peripheral/Source\gd32vw55x_cau_aes.c ****         cau_data_write(*(uint32_t *)(inputaddr));
 697              		.loc 1 887 9
 888:C:/Users/stapi/OneDrive/Desktop/GD32VW553/GD32VW55X_Wifi_BLE_SDK/GD32VW55x_RELEASE_V1.0.2/MSDK/plf/GD32VW55x_standard_peripheral/Source\gd32vw55x_cau_aes.c ****         inputaddr += 4U;
 698              		.loc 1 888 9
 699 00ba 4844     		lw	a0,12(s0)
 889:C:/Users/stapi/OneDrive/Desktop/GD32VW553/GD32VW55X_Wifi_BLE_SDK/GD32VW55x_RELEASE_V1.0.2/MSDK/plf/GD32VW55x_standard_peripheral/Source\gd32vw55x_cau_aes.c **** 
 700              		.loc 1 889 19 is_stmt 0
 701 00bc 4104     		addi	s0,s0,16
 702              	.LVL74:
 888:C:/Users/stapi/OneDrive/Desktop/GD32VW553/GD32VW55X_Wifi_BLE_SDK/GD32VW55x_RELEASE_V1.0.2/MSDK/plf/GD32VW55x_standard_peripheral/Source\gd32vw55x_cau_aes.c ****         inputaddr += 4U;
 703              		.loc 1 888 9
 704 00be 97000000 		call	cau_data_write
 704      E7800000 
 705              	.LVL75:
 889:C:/Users/stapi/OneDrive/Desktop/GD32VW553/GD32VW55X_Wifi_BLE_SDK/GD32VW55x_RELEASE_V1.0.2/MSDK/plf/GD32VW55x_standard_peripheral/Source\gd32vw55x_cau_aes.c **** 
 706              		.loc 1 889 9 is_stmt 1
 892:C:/Users/stapi/OneDrive/Desktop/GD32VW553/GD32VW55X_Wifi_BLE_SDK/GD32VW55x_RELEASE_V1.0.2/MSDK/plf/GD32VW55x_standard_peripheral/Source\gd32vw55x_cau_aes.c ****         do {
 707              		.loc 1 892 9
 892:C:/Users/stapi/OneDrive/Desktop/GD32VW553/GD32VW55X_Wifi_BLE_SDK/GD32VW55x_RELEASE_V1.0.2/MSDK/plf/GD32VW55x_standard_peripheral/Source\gd32vw55x_cau_aes.c ****         do {
 708              		.loc 1 892 17 is_stmt 0
 709 00c6 02C6     		sw	zero,12(sp)
 710              	.L34:
 893:C:/Users/stapi/OneDrive/Desktop/GD32VW553/GD32VW55X_Wifi_BLE_SDK/GD32VW55x_RELEASE_V1.0.2/MSDK/plf/GD32VW55x_standard_peripheral/Source\gd32vw55x_cau_aes.c ****             busystatus = cau_flag_get(CAU_FLAG_BUSY);
 711              		.loc 1 893 9 is_stmt 1 discriminator 2
 894:C:/Users/stapi/OneDrive/Desktop/GD32VW553/GD32VW55X_Wifi_BLE_SDK/GD32VW55x_RELEASE_V1.0.2/MSDK/plf/GD32VW55x_standard_peripheral/Source\gd32vw55x_cau_aes.c ****             counter++;
 712              		.loc 1 894 13 discriminator 2
 894:C:/Users/stapi/OneDrive/Desktop/GD32VW553/GD32VW55X_Wifi_BLE_SDK/GD32VW55x_RELEASE_V1.0.2/MSDK/plf/GD32VW55x_standard_peripheral/Source\gd32vw55x_cau_aes.c ****             counter++;
 713              		.loc 1 894 26 is_stmt 0 discriminator 2
 714 00c8 4145     		li	a0,16
 715 00ca 97000000 		call	cau_flag_get
 715      E7800000 
 716              	.LVL76:
 895:C:/Users/stapi/OneDrive/Desktop/GD32VW553/GD32VW55X_Wifi_BLE_SDK/GD32VW55x_RELEASE_V1.0.2/MSDK/plf/GD32VW55x_standard_peripheral/Source\gd32vw55x_cau_aes.c ****         } while((AESBSY_TIMEOUT != counter) && (RESET != busystatus));
 717              		.loc 1 895 13 is_stmt 1 discriminator 2
 895:C:/Users/stapi/OneDrive/Desktop/GD32VW553/GD32VW55X_Wifi_BLE_SDK/GD32VW55x_RELEASE_V1.0.2/MSDK/plf/GD32VW55x_standard_peripheral/Source\gd32vw55x_cau_aes.c ****         } while((AESBSY_TIMEOUT != counter) && (RESET != busystatus));
 718              		.loc 1 895 20 is_stmt 0 discriminator 2
 719 00d2 B247     		lw	a5,12(sp)
 720 00d4 8507     		addi	a5,a5,1
 721 00d6 3EC6     		sw	a5,12(sp)
 896:C:/Users/stapi/OneDrive/Desktop/GD32VW553/GD32VW55X_Wifi_BLE_SDK/GD32VW55x_RELEASE_V1.0.2/MSDK/plf/GD32VW55x_standard_peripheral/Source\gd32vw55x_cau_aes.c **** 
 722              		.loc 1 896 16 is_stmt 1 discriminator 2
 896:C:/Users/stapi/OneDrive/Desktop/GD32VW553/GD32VW55X_Wifi_BLE_SDK/GD32VW55x_RELEASE_V1.0.2/MSDK/plf/GD32VW55x_standard_peripheral/Source\gd32vw55x_cau_aes.c **** 
 723              		.loc 1 896 33 is_stmt 0 discriminator 2
 724 00d8 B247     		lw	a5,12(sp)
 896:C:/Users/stapi/OneDrive/Desktop/GD32VW553/GD32VW55X_Wifi_BLE_SDK/GD32VW55x_RELEASE_V1.0.2/MSDK/plf/GD32VW55x_standard_peripheral/Source\gd32vw55x_cau_aes.c **** 
 725              		.loc 1 896 9 discriminator 2
 726 00da 638CB703 		beq	a5,s11,.L33
 896:C:/Users/stapi/OneDrive/Desktop/GD32VW553/GD32VW55X_Wifi_BLE_SDK/GD32VW55x_RELEASE_V1.0.2/MSDK/plf/GD32VW55x_standard_peripheral/Source\gd32vw55x_cau_aes.c **** 
 727              		.loc 1 896 45 discriminator 1
 728 00de 6DF5     		bne	a0,zero,.L34
 729              	.L35:
 902:C:/Users/stapi/OneDrive/Desktop/GD32VW553/GD32VW55X_Wifi_BLE_SDK/GD32VW55x_RELEASE_V1.0.2/MSDK/plf/GD32VW55x_standard_peripheral/Source\gd32vw55x_cau_aes.c ****             outputaddr += 4U;
 730              		.loc 1 902 13 is_stmt 1 discriminator 2
 902:C:/Users/stapi/OneDrive/Desktop/GD32VW553/GD32VW55X_Wifi_BLE_SDK/GD32VW55x_RELEASE_V1.0.2/MSDK/plf/GD32VW55x_standard_peripheral/Source\gd32vw55x_cau_aes.c ****             outputaddr += 4U;
 731              		.loc 1 902 41 is_stmt 0 discriminator 2
 732 00e0 97000000 		call	cau_data_read
 732      E7800000 
 733              	.LVL77:
 902:C:/Users/stapi/OneDrive/Desktop/GD32VW553/GD32VW55X_Wifi_BLE_SDK/GD32VW55x_RELEASE_V1.0.2/MSDK/plf/GD32VW55x_standard_peripheral/Source\gd32vw55x_cau_aes.c ****             outputaddr += 4U;
 734              		.loc 1 902 39 discriminator 2
 735 00e8 88C0     		sw	a0,0(s1)
 903:C:/Users/stapi/OneDrive/Desktop/GD32VW553/GD32VW55X_Wifi_BLE_SDK/GD32VW55x_RELEASE_V1.0.2/MSDK/plf/GD32VW55x_standard_peripheral/Source\gd32vw55x_cau_aes.c ****             *(uint32_t *)(outputaddr) = cau_data_read();
 736              		.loc 1 903 13 is_stmt 1 discriminator 2
 737              	.LVL78:
 904:C:/Users/stapi/OneDrive/Desktop/GD32VW553/GD32VW55X_Wifi_BLE_SDK/GD32VW55x_RELEASE_V1.0.2/MSDK/plf/GD32VW55x_standard_peripheral/Source\gd32vw55x_cau_aes.c ****             outputaddr += 4U;
 738              		.loc 1 904 13 discriminator 2
 904:C:/Users/stapi/OneDrive/Desktop/GD32VW553/GD32VW55X_Wifi_BLE_SDK/GD32VW55x_RELEASE_V1.0.2/MSDK/plf/GD32VW55x_standard_peripheral/Source\gd32vw55x_cau_aes.c ****             outputaddr += 4U;
 739              		.loc 1 904 41 is_stmt 0 discriminator 2
 740 00ea 97000000 		call	cau_data_read
 740      E7800000 
 741              	.LVL79:
 904:C:/Users/stapi/OneDrive/Desktop/GD32VW553/GD32VW55X_Wifi_BLE_SDK/GD32VW55x_RELEASE_V1.0.2/MSDK/plf/GD32VW55x_standard_peripheral/Source\gd32vw55x_cau_aes.c ****             outputaddr += 4U;
 742              		.loc 1 904 39 discriminator 2
 743 00f2 C8C0     		sw	a0,4(s1)
 905:C:/Users/stapi/OneDrive/Desktop/GD32VW553/GD32VW55X_Wifi_BLE_SDK/GD32VW55x_RELEASE_V1.0.2/MSDK/plf/GD32VW55x_standard_peripheral/Source\gd32vw55x_cau_aes.c ****             *(uint32_t *)(outputaddr) = cau_data_read();
 744              		.loc 1 905 13 is_stmt 1 discriminator 2
 745              	.LVL80:
 906:C:/Users/stapi/OneDrive/Desktop/GD32VW553/GD32VW55X_Wifi_BLE_SDK/GD32VW55x_RELEASE_V1.0.2/MSDK/plf/GD32VW55x_standard_peripheral/Source\gd32vw55x_cau_aes.c ****             outputaddr += 4U;
 746              		.loc 1 906 13 discriminator 2
 906:C:/Users/stapi/OneDrive/Desktop/GD32VW553/GD32VW55X_Wifi_BLE_SDK/GD32VW55x_RELEASE_V1.0.2/MSDK/plf/GD32VW55x_standard_peripheral/Source\gd32vw55x_cau_aes.c ****             outputaddr += 4U;
 747              		.loc 1 906 41 is_stmt 0 discriminator 2
 748 00f4 97000000 		call	cau_data_read
 748      E7800000 
 749              	.LVL81:
 906:C:/Users/stapi/OneDrive/Desktop/GD32VW553/GD32VW55X_Wifi_BLE_SDK/GD32VW55x_RELEASE_V1.0.2/MSDK/plf/GD32VW55x_standard_peripheral/Source\gd32vw55x_cau_aes.c ****             outputaddr += 4U;
 750              		.loc 1 906 39 discriminator 2
 751 00fc 88C4     		sw	a0,8(s1)
 907:C:/Users/stapi/OneDrive/Desktop/GD32VW553/GD32VW55X_Wifi_BLE_SDK/GD32VW55x_RELEASE_V1.0.2/MSDK/plf/GD32VW55x_standard_peripheral/Source\gd32vw55x_cau_aes.c ****             *(uint32_t *)(outputaddr) = cau_data_read();
 752              		.loc 1 907 13 is_stmt 1 discriminator 2
 753              	.LVL82:
 908:C:/Users/stapi/OneDrive/Desktop/GD32VW553/GD32VW55X_Wifi_BLE_SDK/GD32VW55x_RELEASE_V1.0.2/MSDK/plf/GD32VW55x_standard_peripheral/Source\gd32vw55x_cau_aes.c ****             outputaddr += 4U;
 754              		.loc 1 908 13 discriminator 2
 908:C:/Users/stapi/OneDrive/Desktop/GD32VW553/GD32VW55X_Wifi_BLE_SDK/GD32VW55x_RELEASE_V1.0.2/MSDK/plf/GD32VW55x_standard_peripheral/Source\gd32vw55x_cau_aes.c ****             outputaddr += 4U;
 755              		.loc 1 908 41 is_stmt 0 discriminator 2
 756 00fe 97000000 		call	cau_data_read
 756      E7800000 
 757              	.LVL83:
 758 0106 B7070001 		li	a5,16777216
 908:C:/Users/stapi/OneDrive/Desktop/GD32VW553/GD32VW55X_Wifi_BLE_SDK/GD32VW55x_RELEASE_V1.0.2/MSDK/plf/GD32VW55x_standard_peripheral/Source\gd32vw55x_cau_aes.c ****             outputaddr += 4U;
 759              		.loc 1 908 39 discriminator 2
 760 010a C8C4     		sw	a0,12(s1)
 909:C:/Users/stapi/OneDrive/Desktop/GD32VW553/GD32VW55X_Wifi_BLE_SDK/GD32VW55x_RELEASE_V1.0.2/MSDK/plf/GD32VW55x_standard_peripheral/Source\gd32vw55x_cau_aes.c ****         }
 761              		.loc 1 909 13 is_stmt 1 discriminator 2
 762 010c 3E99     		add	s2,s2,a5
 909:C:/Users/stapi/OneDrive/Desktop/GD32VW553/GD32VW55X_Wifi_BLE_SDK/GD32VW55x_RELEASE_V1.0.2/MSDK/plf/GD32VW55x_standard_peripheral/Source\gd32vw55x_cau_aes.c ****         }
 763              		.loc 1 909 24 is_stmt 0 discriminator 2
 764 010e C104     		addi	s1,s1,16
 765              	.LVL84:
 858:C:/Users/stapi/OneDrive/Desktop/GD32VW553/GD32VW55X_Wifi_BLE_SDK/GD32VW55x_RELEASE_V1.0.2/MSDK/plf/GD32VW55x_standard_peripheral/Source\gd32vw55x_cau_aes.c ****         /* wait until the IEM flag is set */
 766              		.loc 1 858 32 is_stmt 1 discriminator 2
 767 0110 05BF     		j	.L27
 768              	.LVL85:
 769              	.L33:
 898:C:/Users/stapi/OneDrive/Desktop/GD32VW553/GD32VW55X_Wifi_BLE_SDK/GD32VW55x_RELEASE_V1.0.2/MSDK/plf/GD32VW55x_standard_peripheral/Source\gd32vw55x_cau_aes.c ****             return ERROR;
 770              		.loc 1 898 9
 898:C:/Users/stapi/OneDrive/Desktop/GD32VW553/GD32VW55X_Wifi_BLE_SDK/GD32VW55x_RELEASE_V1.0.2/MSDK/plf/GD32VW55x_standard_peripheral/Source\gd32vw55x_cau_aes.c ****             return ERROR;
 771              		.loc 1 898 11 is_stmt 0
 772 0112 79D5     		beq	a0,zero,.L35
 773              	.LVL86:
 774              	.L26:
 855:C:/Users/stapi/OneDrive/Desktop/GD32VW553/GD32VW55X_Wifi_BLE_SDK/GD32VW55x_RELEASE_V1.0.2/MSDK/plf/GD32VW55x_standard_peripheral/Source\gd32vw55x_cau_aes.c ****     }
 775              		.loc 1 855 16
 776 0114 0145     		li	a0,0
 777              	.L25:
 914:C:/Users/stapi/OneDrive/Desktop/GD32VW553/GD32VW55X_Wifi_BLE_SDK/GD32VW55x_RELEASE_V1.0.2/MSDK/plf/GD32VW55x_standard_peripheral/Source\gd32vw55x_cau_aes.c **** }
 778              		.loc 1 914 1
 779 0116 0561     		addi	sp,sp,32
 780              		.cfi_def_cfa_offset 0
 781 0118 17030000 		tail	__riscv_restore_12
 781      67000300 
 782              		.cfi_restore 27
 783              		.cfi_restore 26
 784              		.cfi_restore 25
 785              		.cfi_restore 24
 786              		.cfi_restore 23
 787              		.cfi_restore 22
 788              		.cfi_restore 21
 789              		.cfi_restore 20
 790              		.cfi_restore 19
 791              		.cfi_restore 18
 792              		.cfi_restore 9
 793              		.cfi_restore 8
 794              		.cfi_restore 1
 795              		.cfi_def_cfa_offset -64
 796              		.cfi_endproc
 797              	.LFE374:
 799              		.section	.text.cau_aes_ecb,"ax",@progbits
 800              		.align	1
 801              		.globl	cau_aes_ecb
 803              	cau_aes_ecb:
 804              	.LFB365:
  63:C:/Users/stapi/OneDrive/Desktop/GD32VW553/GD32VW55X_Wifi_BLE_SDK/GD32VW55x_RELEASE_V1.0.2/MSDK/plf/GD32VW55x_standard_peripheral/Source\gd32vw55x_cau_aes.c ****     ErrStatus ret = ERROR;
 805              		.loc 1 63 1 is_stmt 1
 806              		.cfi_startproc
 807              	.LVL87:
 808 0000 17030000 		call	t0,__riscv_save_3
 808      E7020300 
 809              		.cfi_offset 18, -16
 810              		.cfi_offset 9, -12
 811              		.cfi_offset 8, -8
 812              		.cfi_offset 1, -4
 813              		.cfi_def_cfa_offset 16
  64:C:/Users/stapi/OneDrive/Desktop/GD32VW553/GD32VW55X_Wifi_BLE_SDK/GD32VW55x_RELEASE_V1.0.2/MSDK/plf/GD32VW55x_standard_peripheral/Source\gd32vw55x_cau_aes.c ****     cau_key_parameter_struct key_initpara;
 814              		.loc 1 64 5
 815              	.LVL88:
  65:C:/Users/stapi/OneDrive/Desktop/GD32VW553/GD32VW55X_Wifi_BLE_SDK/GD32VW55x_RELEASE_V1.0.2/MSDK/plf/GD32VW55x_standard_peripheral/Source\gd32vw55x_cau_aes.c ****     __IO uint32_t counter = 0U;
 816              		.loc 1 65 5
  66:C:/Users/stapi/OneDrive/Desktop/GD32VW553/GD32VW55X_Wifi_BLE_SDK/GD32VW55x_RELEASE_V1.0.2/MSDK/plf/GD32VW55x_standard_peripheral/Source\gd32vw55x_cau_aes.c ****     uint32_t busystatus = 0U;
 817              		.loc 1 66 5
  63:C:/Users/stapi/OneDrive/Desktop/GD32VW553/GD32VW55X_Wifi_BLE_SDK/GD32VW55x_RELEASE_V1.0.2/MSDK/plf/GD32VW55x_standard_peripheral/Source\gd32vw55x_cau_aes.c ****     ErrStatus ret = ERROR;
 818              		.loc 1 63 1 is_stmt 0
 819 0008 3971     		addi	sp,sp,-64
 820              		.cfi_def_cfa_offset 80
  63:C:/Users/stapi/OneDrive/Desktop/GD32VW553/GD32VW55X_Wifi_BLE_SDK/GD32VW55x_RELEASE_V1.0.2/MSDK/plf/GD32VW55x_standard_peripheral/Source\gd32vw55x_cau_aes.c ****     ErrStatus ret = ERROR;
 821              		.loc 1 63 1
 822 000a 2A84     		mv	s0,a0
  70:C:/Users/stapi/OneDrive/Desktop/GD32VW553/GD32VW55X_Wifi_BLE_SDK/GD32VW55x_RELEASE_V1.0.2/MSDK/plf/GD32VW55x_standard_peripheral/Source\gd32vw55x_cau_aes.c ****     /* AES key structure parameter config */
 823              		.loc 1 70 5
 824 000c 0810     		addi	a0,sp,32
 825              	.LVL89:
  63:C:/Users/stapi/OneDrive/Desktop/GD32VW553/GD32VW55X_Wifi_BLE_SDK/GD32VW55x_RELEASE_V1.0.2/MSDK/plf/GD32VW55x_standard_peripheral/Source\gd32vw55x_cau_aes.c ****     ErrStatus ret = ERROR;
 826              		.loc 1 63 1
 827 000e AE84     		mv	s1,a1
  66:C:/Users/stapi/OneDrive/Desktop/GD32VW553/GD32VW55X_Wifi_BLE_SDK/GD32VW55x_RELEASE_V1.0.2/MSDK/plf/GD32VW55x_standard_peripheral/Source\gd32vw55x_cau_aes.c ****     uint32_t busystatus = 0U;
 828              		.loc 1 66 19
 829 0010 02CE     		sw	zero,28(sp)
  67:C:/Users/stapi/OneDrive/Desktop/GD32VW553/GD32VW55X_Wifi_BLE_SDK/GD32VW55x_RELEASE_V1.0.2/MSDK/plf/GD32VW55x_standard_peripheral/Source\gd32vw55x_cau_aes.c **** 
 830              		.loc 1 67 5 is_stmt 1
 831              	.LVL90:
  70:C:/Users/stapi/OneDrive/Desktop/GD32VW553/GD32VW55X_Wifi_BLE_SDK/GD32VW55x_RELEASE_V1.0.2/MSDK/plf/GD32VW55x_standard_peripheral/Source\gd32vw55x_cau_aes.c ****     /* AES key structure parameter config */
 832              		.loc 1 70 5
 833 0012 97000000 		call	cau_key_struct_para_init
 833      E7800000 
 834              	.LVL91:
  72:C:/Users/stapi/OneDrive/Desktop/GD32VW553/GD32VW55X_Wifi_BLE_SDK/GD32VW55x_RELEASE_V1.0.2/MSDK/plf/GD32VW55x_standard_peripheral/Source\gd32vw55x_cau_aes.c ****     /* key initialization */
 835              		.loc 1 72 5
 836 001a 0C44     		lw	a1,8(s0)
 837 001c 4840     		lw	a0,4(s0)
 838 001e 1010     		addi	a2,sp,32
 839 0020 97000000 		call	cau_aes_key_config
 839      E7800000 
 840              	.LVL92:
  74:C:/Users/stapi/OneDrive/Desktop/GD32VW553/GD32VW55X_Wifi_BLE_SDK/GD32VW55x_RELEASE_V1.0.2/MSDK/plf/GD32VW55x_standard_peripheral/Source\gd32vw55x_cau_aes.c **** 
 841              		.loc 1 74 5
 842 0028 0810     		addi	a0,sp,32
 843 002a 97000000 		call	cau_key_init
 843      E7800000 
 844              	.LVL93:
  77:C:/Users/stapi/OneDrive/Desktop/GD32VW553/GD32VW55X_Wifi_BLE_SDK/GD32VW55x_RELEASE_V1.0.2/MSDK/plf/GD32VW55x_standard_peripheral/Source\gd32vw55x_cau_aes.c ****         /* flush the IN and OUT FIFOs */
 845              		.loc 1 77 5
  77:C:/Users/stapi/OneDrive/Desktop/GD32VW553/GD32VW55X_Wifi_BLE_SDK/GD32VW55x_RELEASE_V1.0.2/MSDK/plf/GD32VW55x_standard_peripheral/Source\gd32vw55x_cau_aes.c ****         /* flush the IN and OUT FIFOs */
 846              		.loc 1 77 7 is_stmt 0
 847 0032 1840     		lw	a4,0(s0)
 848 0034 9147     		li	a5,4
 849 0036 6305F704 		beq	a4,a5,.L46
 850              	.LVL94:
 851              	.L50:
  98:C:/Users/stapi/OneDrive/Desktop/GD32VW553/GD32VW55X_Wifi_BLE_SDK/GD32VW55x_RELEASE_V1.0.2/MSDK/plf/GD32VW55x_standard_peripheral/Source\gd32vw55x_cau_aes.c **** 
 852              		.loc 1 98 5 is_stmt 1
 853 003a 0840     		lw	a0,0(s0)
 854 003c 13060008 		li	a2,128
 855 0040 93050002 		li	a1,32
 856 0044 97000000 		call	cau_init
 856      E7800000 
 857              	.LVL95:
 101:C:/Users/stapi/OneDrive/Desktop/GD32VW553/GD32VW55X_Wifi_BLE_SDK/GD32VW55x_RELEASE_V1.0.2/MSDK/plf/GD32VW55x_standard_peripheral/Source\gd32vw55x_cau_aes.c **** 
 858              		.loc 1 101 5
 859 004c 97000000 		call	cau_fifo_flush
 859      E7800000 
 860              	.LVL96:
 104:C:/Users/stapi/OneDrive/Desktop/GD32VW553/GD32VW55X_Wifi_BLE_SDK/GD32VW55x_RELEASE_V1.0.2/MSDK/plf/GD32VW55x_standard_peripheral/Source\gd32vw55x_cau_aes.c ****     /* AES calculate process */
 861              		.loc 1 104 5
 862 0054 97000000 		call	cau_enable
 862      E7800000 
 863              	.LVL97:
 106:C:/Users/stapi/OneDrive/Desktop/GD32VW553/GD32VW55X_Wifi_BLE_SDK/GD32VW55x_RELEASE_V1.0.2/MSDK/plf/GD32VW55x_standard_peripheral/Source\gd32vw55x_cau_aes.c ****     /* disable the CAU peripheral */
 864              		.loc 1 106 5
 106:C:/Users/stapi/OneDrive/Desktop/GD32VW553/GD32VW55X_Wifi_BLE_SDK/GD32VW55x_RELEASE_V1.0.2/MSDK/plf/GD32VW55x_standard_peripheral/Source\gd32vw55x_cau_aes.c ****     /* disable the CAU peripheral */
 865              		.loc 1 106 11 is_stmt 0
 866 005c 0C4C     		lw	a1,24(s0)
 867 005e 4848     		lw	a0,20(s0)
 868 0060 2686     		mv	a2,s1
 869 0062 97000000 		call	cau_aes_calculate
 869      E7800000 
 870              	.LVL98:
 871 006a 2AC6     		sw	a0,12(sp)
 872              	.LVL99:
 108:C:/Users/stapi/OneDrive/Desktop/GD32VW553/GD32VW55X_Wifi_BLE_SDK/GD32VW55x_RELEASE_V1.0.2/MSDK/plf/GD32VW55x_standard_peripheral/Source\gd32vw55x_cau_aes.c **** 
 873              		.loc 1 108 5 is_stmt 1
 874 006c 97000000 		call	cau_disable
 874      E7800000 
 875              	.LVL100:
 110:C:/Users/stapi/OneDrive/Desktop/GD32VW553/GD32VW55X_Wifi_BLE_SDK/GD32VW55x_RELEASE_V1.0.2/MSDK/plf/GD32VW55x_standard_peripheral/Source\gd32vw55x_cau_aes.c **** }
 876              		.loc 1 110 5
 110:C:/Users/stapi/OneDrive/Desktop/GD32VW553/GD32VW55X_Wifi_BLE_SDK/GD32VW55x_RELEASE_V1.0.2/MSDK/plf/GD32VW55x_standard_peripheral/Source\gd32vw55x_cau_aes.c **** }
 877              		.loc 1 110 12 is_stmt 0
 878 0074 3245     		lw	a0,12(sp)
 879              	.LVL101:
 880              	.L45:
 111:C:/Users/stapi/OneDrive/Desktop/GD32VW553/GD32VW55X_Wifi_BLE_SDK/GD32VW55x_RELEASE_V1.0.2/MSDK/plf/GD32VW55x_standard_peripheral/Source\gd32vw55x_cau_aes.c **** 
 881              		.loc 1 111 1
 882 0076 2161     		addi	sp,sp,64
 883              		.cfi_remember_state
 884              		.cfi_def_cfa_offset 0
 885 0078 17030000 		tail	__riscv_restore_3
 885      67000300 
 886              		.cfi_restore 18
 887              		.cfi_restore 9
 888              		.cfi_restore 8
 889              		.cfi_restore 1
 890              		.cfi_def_cfa_offset -16
 891              	.LVL102:
 892              	.L46:
 893              		.cfi_restore_state
  79:C:/Users/stapi/OneDrive/Desktop/GD32VW553/GD32VW55X_Wifi_BLE_SDK/GD32VW55x_RELEASE_V1.0.2/MSDK/plf/GD32VW55x_standard_peripheral/Source\gd32vw55x_cau_aes.c ****         /* initialize the CAU peripheral */
 894              		.loc 1 79 9 is_stmt 1
 895 0080 97000000 		call	cau_fifo_flush
 895      E7800000 
 896              	.LVL103:
  81:C:/Users/stapi/OneDrive/Desktop/GD32VW553/GD32VW55X_Wifi_BLE_SDK/GD32VW55x_RELEASE_V1.0.2/MSDK/plf/GD32VW55x_standard_peripheral/Source\gd32vw55x_cau_aes.c **** 
 897              		.loc 1 81 9
 898 0088 0146     		li	a2,0
 899 008a 93058003 		li	a1,56
 900 008e 1145     		li	a0,4
 901 0090 97000000 		call	cau_init
 901      E7800000 
 902              	.LVL104:
  84:C:/Users/stapi/OneDrive/Desktop/GD32VW553/GD32VW55X_Wifi_BLE_SDK/GD32VW55x_RELEASE_V1.0.2/MSDK/plf/GD32VW55x_standard_peripheral/Source\gd32vw55x_cau_aes.c **** 
 903              		.loc 1 84 9
  90:C:/Users/stapi/OneDrive/Desktop/GD32VW553/GD32VW55X_Wifi_BLE_SDK/GD32VW55x_RELEASE_V1.0.2/MSDK/plf/GD32VW55x_standard_peripheral/Source\gd32vw55x_cau_aes.c **** 
 904              		.loc 1 90 9 is_stmt 0
 905 0098 4169     		li	s2,65536
  84:C:/Users/stapi/OneDrive/Desktop/GD32VW553/GD32VW55X_Wifi_BLE_SDK/GD32VW55x_RELEASE_V1.0.2/MSDK/plf/GD32VW55x_standard_peripheral/Source\gd32vw55x_cau_aes.c **** 
 906              		.loc 1 84 9
 907 009a 97000000 		call	cau_enable
 907      E7800000 
 908              	.LVL105:
 909              	.L49:
  87:C:/Users/stapi/OneDrive/Desktop/GD32VW553/GD32VW55X_Wifi_BLE_SDK/GD32VW55x_RELEASE_V1.0.2/MSDK/plf/GD32VW55x_standard_peripheral/Source\gd32vw55x_cau_aes.c ****             busystatus = cau_flag_get(CAU_FLAG_BUSY);
 910              		.loc 1 87 9 is_stmt 1 discriminator 2
  88:C:/Users/stapi/OneDrive/Desktop/GD32VW553/GD32VW55X_Wifi_BLE_SDK/GD32VW55x_RELEASE_V1.0.2/MSDK/plf/GD32VW55x_standard_peripheral/Source\gd32vw55x_cau_aes.c ****             counter++;
 911              		.loc 1 88 13 discriminator 2
  88:C:/Users/stapi/OneDrive/Desktop/GD32VW553/GD32VW55X_Wifi_BLE_SDK/GD32VW55x_RELEASE_V1.0.2/MSDK/plf/GD32VW55x_standard_peripheral/Source\gd32vw55x_cau_aes.c ****             counter++;
 912              		.loc 1 88 26 is_stmt 0 discriminator 2
 913 00a2 4145     		li	a0,16
 914 00a4 97000000 		call	cau_flag_get
 914      E7800000 
 915              	.LVL106:
  89:C:/Users/stapi/OneDrive/Desktop/GD32VW553/GD32VW55X_Wifi_BLE_SDK/GD32VW55x_RELEASE_V1.0.2/MSDK/plf/GD32VW55x_standard_peripheral/Source\gd32vw55x_cau_aes.c ****         } while((AESBSY_TIMEOUT != counter) && (RESET != busystatus));
 916              		.loc 1 89 13 is_stmt 1 discriminator 2
  89:C:/Users/stapi/OneDrive/Desktop/GD32VW553/GD32VW55X_Wifi_BLE_SDK/GD32VW55x_RELEASE_V1.0.2/MSDK/plf/GD32VW55x_standard_peripheral/Source\gd32vw55x_cau_aes.c ****         } while((AESBSY_TIMEOUT != counter) && (RESET != busystatus));
 917              		.loc 1 89 20 is_stmt 0 discriminator 2
 918 00ac F247     		lw	a5,28(sp)
 919 00ae 8507     		addi	a5,a5,1
 920 00b0 3ECE     		sw	a5,28(sp)
  90:C:/Users/stapi/OneDrive/Desktop/GD32VW553/GD32VW55X_Wifi_BLE_SDK/GD32VW55x_RELEASE_V1.0.2/MSDK/plf/GD32VW55x_standard_peripheral/Source\gd32vw55x_cau_aes.c **** 
 921              		.loc 1 90 16 is_stmt 1 discriminator 2
  90:C:/Users/stapi/OneDrive/Desktop/GD32VW553/GD32VW55X_Wifi_BLE_SDK/GD32VW55x_RELEASE_V1.0.2/MSDK/plf/GD32VW55x_standard_peripheral/Source\gd32vw55x_cau_aes.c **** 
 922              		.loc 1 90 33 is_stmt 0 discriminator 2
 923 00b2 F247     		lw	a5,28(sp)
  90:C:/Users/stapi/OneDrive/Desktop/GD32VW553/GD32VW55X_Wifi_BLE_SDK/GD32VW55x_RELEASE_V1.0.2/MSDK/plf/GD32VW55x_standard_peripheral/Source\gd32vw55x_cau_aes.c **** 
 924              		.loc 1 90 9 discriminator 2
 925 00b4 63842701 		beq	a5,s2,.L48
  90:C:/Users/stapi/OneDrive/Desktop/GD32VW553/GD32VW55X_Wifi_BLE_SDK/GD32VW55x_RELEASE_V1.0.2/MSDK/plf/GD32VW55x_standard_peripheral/Source\gd32vw55x_cau_aes.c **** 
 926              		.loc 1 90 45 discriminator 1
 927 00b8 6DF5     		bne	a0,zero,.L49
 928 00ba 41B7     		j	.L50
 929              	.L48:
  92:C:/Users/stapi/OneDrive/Desktop/GD32VW553/GD32VW55X_Wifi_BLE_SDK/GD32VW55x_RELEASE_V1.0.2/MSDK/plf/GD32VW55x_standard_peripheral/Source\gd32vw55x_cau_aes.c ****             return ERROR;
 930              		.loc 1 92 9 is_stmt 1
  92:C:/Users/stapi/OneDrive/Desktop/GD32VW553/GD32VW55X_Wifi_BLE_SDK/GD32VW55x_RELEASE_V1.0.2/MSDK/plf/GD32VW55x_standard_peripheral/Source\gd32vw55x_cau_aes.c ****             return ERROR;
 931              		.loc 1 92 11 is_stmt 0
 932 00bc 3DDD     		beq	a0,zero,.L50
  93:C:/Users/stapi/OneDrive/Desktop/GD32VW553/GD32VW55X_Wifi_BLE_SDK/GD32VW55x_RELEASE_V1.0.2/MSDK/plf/GD32VW55x_standard_peripheral/Source\gd32vw55x_cau_aes.c ****         }
 933              		.loc 1 93 20
 934 00be 0145     		li	a0,0
 935              	.LVL107:
 936 00c0 5DBF     		j	.L45
 937              		.cfi_endproc
 938              	.LFE365:
 940              		.section	.text.cau_aes_cbc,"ax",@progbits
 941              		.align	1
 942              		.globl	cau_aes_cbc
 944              	cau_aes_cbc:
 945              	.LFB366:
 127:C:/Users/stapi/OneDrive/Desktop/GD32VW553/GD32VW55X_Wifi_BLE_SDK/GD32VW55x_RELEASE_V1.0.2/MSDK/plf/GD32VW55x_standard_peripheral/Source\gd32vw55x_cau_aes.c ****     ErrStatus ret = ERROR;
 946              		.loc 1 127 1 is_stmt 1
 947              		.cfi_startproc
 948              	.LVL108:
 949 0000 17030000 		call	t0,__riscv_save_4
 949      E7020300 
 950              		.cfi_offset 19, -20
 951              		.cfi_offset 18, -16
 952              		.cfi_offset 9, -12
 953              		.cfi_offset 8, -8
 954              		.cfi_offset 1, -4
 955              		.cfi_def_cfa_offset 32
 128:C:/Users/stapi/OneDrive/Desktop/GD32VW553/GD32VW55X_Wifi_BLE_SDK/GD32VW55x_RELEASE_V1.0.2/MSDK/plf/GD32VW55x_standard_peripheral/Source\gd32vw55x_cau_aes.c ****     cau_key_parameter_struct key_initpara;
 956              		.loc 1 128 5
 957              	.LVL109:
 129:C:/Users/stapi/OneDrive/Desktop/GD32VW553/GD32VW55X_Wifi_BLE_SDK/GD32VW55x_RELEASE_V1.0.2/MSDK/plf/GD32VW55x_standard_peripheral/Source\gd32vw55x_cau_aes.c ****     cau_iv_parameter_struct iv_initpara;
 958              		.loc 1 129 5
 130:C:/Users/stapi/OneDrive/Desktop/GD32VW553/GD32VW55X_Wifi_BLE_SDK/GD32VW55x_RELEASE_V1.0.2/MSDK/plf/GD32VW55x_standard_peripheral/Source\gd32vw55x_cau_aes.c ****     __IO uint32_t counter = 0U;
 959              		.loc 1 130 5
 131:C:/Users/stapi/OneDrive/Desktop/GD32VW553/GD32VW55X_Wifi_BLE_SDK/GD32VW55x_RELEASE_V1.0.2/MSDK/plf/GD32VW55x_standard_peripheral/Source\gd32vw55x_cau_aes.c ****     uint32_t busystatus = 0U;
 960              		.loc 1 131 5
 127:C:/Users/stapi/OneDrive/Desktop/GD32VW553/GD32VW55X_Wifi_BLE_SDK/GD32VW55x_RELEASE_V1.0.2/MSDK/plf/GD32VW55x_standard_peripheral/Source\gd32vw55x_cau_aes.c ****     ErrStatus ret = ERROR;
 961              		.loc 1 127 1 is_stmt 0
 962 0008 5D71     		addi	sp,sp,-80
 963              		.cfi_def_cfa_offset 112
 127:C:/Users/stapi/OneDrive/Desktop/GD32VW553/GD32VW55X_Wifi_BLE_SDK/GD32VW55x_RELEASE_V1.0.2/MSDK/plf/GD32VW55x_standard_peripheral/Source\gd32vw55x_cau_aes.c ****     ErrStatus ret = ERROR;
 964              		.loc 1 127 1
 965 000a 2A84     		mv	s0,a0
 134:C:/Users/stapi/OneDrive/Desktop/GD32VW553/GD32VW55X_Wifi_BLE_SDK/GD32VW55x_RELEASE_V1.0.2/MSDK/plf/GD32VW55x_standard_peripheral/Source\gd32vw55x_cau_aes.c **** 
 966              		.loc 1 134 46
 967 000c 4445     		lw	s1,12(a0)
 137:C:/Users/stapi/OneDrive/Desktop/GD32VW553/GD32VW55X_Wifi_BLE_SDK/GD32VW55x_RELEASE_V1.0.2/MSDK/plf/GD32VW55x_standard_peripheral/Source\gd32vw55x_cau_aes.c ****     /* AES key structure parameter config */
 968              		.loc 1 137 5
 969 000e 0818     		addi	a0,sp,48
 970              	.LVL110:
 127:C:/Users/stapi/OneDrive/Desktop/GD32VW553/GD32VW55X_Wifi_BLE_SDK/GD32VW55x_RELEASE_V1.0.2/MSDK/plf/GD32VW55x_standard_peripheral/Source\gd32vw55x_cau_aes.c ****     ErrStatus ret = ERROR;
 971              		.loc 1 127 1
 972 0010 2E89     		mv	s2,a1
 131:C:/Users/stapi/OneDrive/Desktop/GD32VW553/GD32VW55X_Wifi_BLE_SDK/GD32VW55x_RELEASE_V1.0.2/MSDK/plf/GD32VW55x_standard_peripheral/Source\gd32vw55x_cau_aes.c ****     uint32_t busystatus = 0U;
 973              		.loc 1 131 19
 974 0012 02CE     		sw	zero,28(sp)
 132:C:/Users/stapi/OneDrive/Desktop/GD32VW553/GD32VW55X_Wifi_BLE_SDK/GD32VW55x_RELEASE_V1.0.2/MSDK/plf/GD32VW55x_standard_peripheral/Source\gd32vw55x_cau_aes.c **** 
 975              		.loc 1 132 5 is_stmt 1
 976              	.LVL111:
 134:C:/Users/stapi/OneDrive/Desktop/GD32VW553/GD32VW55X_Wifi_BLE_SDK/GD32VW55x_RELEASE_V1.0.2/MSDK/plf/GD32VW55x_standard_peripheral/Source\gd32vw55x_cau_aes.c **** 
 977              		.loc 1 134 5
 137:C:/Users/stapi/OneDrive/Desktop/GD32VW553/GD32VW55X_Wifi_BLE_SDK/GD32VW55x_RELEASE_V1.0.2/MSDK/plf/GD32VW55x_standard_peripheral/Source\gd32vw55x_cau_aes.c ****     /* AES key structure parameter config */
 978              		.loc 1 137 5
 979 0014 97000000 		call	cau_key_struct_para_init
 979      E7800000 
 980              	.LVL112:
 139:C:/Users/stapi/OneDrive/Desktop/GD32VW553/GD32VW55X_Wifi_BLE_SDK/GD32VW55x_RELEASE_V1.0.2/MSDK/plf/GD32VW55x_standard_peripheral/Source\gd32vw55x_cau_aes.c ****     /* key initialization */
 981              		.loc 1 139 5
 982 001c 0C44     		lw	a1,8(s0)
 983 001e 4840     		lw	a0,4(s0)
 984 0020 1018     		addi	a2,sp,48
 985 0022 97000000 		call	cau_aes_key_config
 985      E7800000 
 986              	.LVL113:
 141:C:/Users/stapi/OneDrive/Desktop/GD32VW553/GD32VW55X_Wifi_BLE_SDK/GD32VW55x_RELEASE_V1.0.2/MSDK/plf/GD32VW55x_standard_peripheral/Source\gd32vw55x_cau_aes.c **** 
 987              		.loc 1 141 5
 988 002a 0818     		addi	a0,sp,48
 989 002c 97000000 		call	cau_key_init
 989      E7800000 
 990              	.LVL114:
 144:C:/Users/stapi/OneDrive/Desktop/GD32VW553/GD32VW55X_Wifi_BLE_SDK/GD32VW55x_RELEASE_V1.0.2/MSDK/plf/GD32VW55x_standard_peripheral/Source\gd32vw55x_cau_aes.c ****         /* flush the IN and OUT FIFOs */
 991              		.loc 1 144 5
 144:C:/Users/stapi/OneDrive/Desktop/GD32VW553/GD32VW55X_Wifi_BLE_SDK/GD32VW55x_RELEASE_V1.0.2/MSDK/plf/GD32VW55x_standard_peripheral/Source\gd32vw55x_cau_aes.c ****         /* flush the IN and OUT FIFOs */
 992              		.loc 1 144 7 is_stmt 0
 993 0034 1840     		lw	a4,0(s0)
 994 0036 9147     		li	a5,4
 995 0038 630AF706 		beq	a4,a5,.L57
 996              	.LVL115:
 997              	.L61:
 165:C:/Users/stapi/OneDrive/Desktop/GD32VW553/GD32VW55X_Wifi_BLE_SDK/GD32VW55x_RELEASE_V1.0.2/MSDK/plf/GD32VW55x_standard_peripheral/Source\gd32vw55x_cau_aes.c **** 
 998              		.loc 1 165 5 is_stmt 1
 999 003c 0840     		lw	a0,0(s0)
 1000 003e 13060008 		li	a2,128
 1001 0042 93058002 		li	a1,40
 1002 0046 97000000 		call	cau_init
 1002      E7800000 
 1003              	.LVL116:
 168:C:/Users/stapi/OneDrive/Desktop/GD32VW553/GD32VW55X_Wifi_BLE_SDK/GD32VW55x_RELEASE_V1.0.2/MSDK/plf/GD32VW55x_standard_peripheral/Source\gd32vw55x_cau_aes.c ****     ivaddr += 4U;
 1004              		.loc 1 168 5
 1005 004e 9C40     		lw	a5,0(s1)
 175:C:/Users/stapi/OneDrive/Desktop/GD32VW553/GD32VW55X_Wifi_BLE_SDK/GD32VW55x_RELEASE_V1.0.2/MSDK/plf/GD32VW55x_standard_peripheral/Source\gd32vw55x_cau_aes.c **** 
 1006              		.loc 1 175 5 is_stmt 0
 1007 0050 0810     		addi	a0,sp,32
 1008 0052 93D78769 		rev8	a5,a5
 1009              	.LVL117:
 1010              	.LBB132:
 1011              	.LBB133:
 122:..\..\..\..\plf\riscv\NMSIS\Core\Include/core_compatiable.h **** 
 1012              		.loc 2 122 5 is_stmt 1
 124:..\..\..\..\plf\riscv\NMSIS\Core\Include/core_compatiable.h ****         | ((value & 0x00ff0000) >> 8 )
 1013              		.loc 2 124 5
 1014              		.loc 2 128 5
 1015              	.LBE133:
 1016              	.LBE132:
 168:C:/Users/stapi/OneDrive/Desktop/GD32VW553/GD32VW55X_Wifi_BLE_SDK/GD32VW55x_RELEASE_V1.0.2/MSDK/plf/GD32VW55x_standard_peripheral/Source\gd32vw55x_cau_aes.c ****     ivaddr += 4U;
 1017              		.loc 1 168 27 is_stmt 0
 1018 0056 3ED0     		sw	a5,32(sp)
 169:C:/Users/stapi/OneDrive/Desktop/GD32VW553/GD32VW55X_Wifi_BLE_SDK/GD32VW55x_RELEASE_V1.0.2/MSDK/plf/GD32VW55x_standard_peripheral/Source\gd32vw55x_cau_aes.c ****     iv_initpara.iv_0_low = __REV(*(uint32_t *)(ivaddr));
 1019              		.loc 1 169 5 is_stmt 1
 1020              	.LVL118:
 170:C:/Users/stapi/OneDrive/Desktop/GD32VW553/GD32VW55X_Wifi_BLE_SDK/GD32VW55x_RELEASE_V1.0.2/MSDK/plf/GD32VW55x_standard_peripheral/Source\gd32vw55x_cau_aes.c ****     ivaddr += 4U;
 1021              		.loc 1 170 5
 1022 0058 DC40     		lw	a5,4(s1)
 1023 005a 93D78769 		rev8	a5,a5
 1024              	.LVL119:
 1025              	.LBB134:
 1026              	.LBB135:
 122:..\..\..\..\plf\riscv\NMSIS\Core\Include/core_compatiable.h **** 
 1027              		.loc 2 122 5
 124:..\..\..\..\plf\riscv\NMSIS\Core\Include/core_compatiable.h ****         | ((value & 0x00ff0000) >> 8 )
 1028              		.loc 2 124 5
 1029              		.loc 2 128 5
 1030              	.LBE135:
 1031              	.LBE134:
 170:C:/Users/stapi/OneDrive/Desktop/GD32VW553/GD32VW55X_Wifi_BLE_SDK/GD32VW55x_RELEASE_V1.0.2/MSDK/plf/GD32VW55x_standard_peripheral/Source\gd32vw55x_cau_aes.c ****     ivaddr += 4U;
 1032              		.loc 1 170 26 is_stmt 0
 1033 005e 3ED2     		sw	a5,36(sp)
 171:C:/Users/stapi/OneDrive/Desktop/GD32VW553/GD32VW55X_Wifi_BLE_SDK/GD32VW55x_RELEASE_V1.0.2/MSDK/plf/GD32VW55x_standard_peripheral/Source\gd32vw55x_cau_aes.c ****     iv_initpara.iv_1_high = __REV(*(uint32_t *)(ivaddr));
 1034              		.loc 1 171 5 is_stmt 1
 1035              	.LVL120:
 172:C:/Users/stapi/OneDrive/Desktop/GD32VW553/GD32VW55X_Wifi_BLE_SDK/GD32VW55x_RELEASE_V1.0.2/MSDK/plf/GD32VW55x_standard_peripheral/Source\gd32vw55x_cau_aes.c ****     ivaddr += 4U;
 1036              		.loc 1 172 5
 1037 0060 9C44     		lw	a5,8(s1)
 1038 0062 93D78769 		rev8	a5,a5
 1039              	.LVL121:
 1040              	.LBB136:
 1041              	.LBB137:
 122:..\..\..\..\plf\riscv\NMSIS\Core\Include/core_compatiable.h **** 
 1042              		.loc 2 122 5
 124:..\..\..\..\plf\riscv\NMSIS\Core\Include/core_compatiable.h ****         | ((value & 0x00ff0000) >> 8 )
 1043              		.loc 2 124 5
 1044              		.loc 2 128 5
 1045              	.LBE137:
 1046              	.LBE136:
 172:C:/Users/stapi/OneDrive/Desktop/GD32VW553/GD32VW55X_Wifi_BLE_SDK/GD32VW55x_RELEASE_V1.0.2/MSDK/plf/GD32VW55x_standard_peripheral/Source\gd32vw55x_cau_aes.c ****     ivaddr += 4U;
 1047              		.loc 1 172 27 is_stmt 0
 1048 0066 3ED4     		sw	a5,40(sp)
 173:C:/Users/stapi/OneDrive/Desktop/GD32VW553/GD32VW55X_Wifi_BLE_SDK/GD32VW55x_RELEASE_V1.0.2/MSDK/plf/GD32VW55x_standard_peripheral/Source\gd32vw55x_cau_aes.c ****     iv_initpara.iv_1_low = __REV(*(uint32_t *)(ivaddr));
 1049              		.loc 1 173 5 is_stmt 1
 1050              	.LVL122:
 174:C:/Users/stapi/OneDrive/Desktop/GD32VW553/GD32VW55X_Wifi_BLE_SDK/GD32VW55x_RELEASE_V1.0.2/MSDK/plf/GD32VW55x_standard_peripheral/Source\gd32vw55x_cau_aes.c ****     cau_iv_init(&iv_initpara);
 1051              		.loc 1 174 5
 1052 0068 DC44     		lw	a5,12(s1)
 1053 006a 93D78769 		rev8	a5,a5
 1054              	.LVL123:
 1055              	.LBB138:
 1056              	.LBB139:
 122:..\..\..\..\plf\riscv\NMSIS\Core\Include/core_compatiable.h **** 
 1057              		.loc 2 122 5
 124:..\..\..\..\plf\riscv\NMSIS\Core\Include/core_compatiable.h ****         | ((value & 0x00ff0000) >> 8 )
 1058              		.loc 2 124 5
 1059              		.loc 2 128 5
 1060              	.LBE139:
 1061              	.LBE138:
 174:C:/Users/stapi/OneDrive/Desktop/GD32VW553/GD32VW55X_Wifi_BLE_SDK/GD32VW55x_RELEASE_V1.0.2/MSDK/plf/GD32VW55x_standard_peripheral/Source\gd32vw55x_cau_aes.c ****     cau_iv_init(&iv_initpara);
 1062              		.loc 1 174 26 is_stmt 0
 1063 006e 3ED6     		sw	a5,44(sp)
 175:C:/Users/stapi/OneDrive/Desktop/GD32VW553/GD32VW55X_Wifi_BLE_SDK/GD32VW55x_RELEASE_V1.0.2/MSDK/plf/GD32VW55x_standard_peripheral/Source\gd32vw55x_cau_aes.c **** 
 1064              		.loc 1 175 5 is_stmt 1
 1065 0070 97000000 		call	cau_iv_init
 1065      E7800000 
 1066              	.LVL124:
 178:C:/Users/stapi/OneDrive/Desktop/GD32VW553/GD32VW55X_Wifi_BLE_SDK/GD32VW55x_RELEASE_V1.0.2/MSDK/plf/GD32VW55x_standard_peripheral/Source\gd32vw55x_cau_aes.c **** 
 1067              		.loc 1 178 5
 1068 0078 97000000 		call	cau_fifo_flush
 1068      E7800000 
 1069              	.LVL125:
 181:C:/Users/stapi/OneDrive/Desktop/GD32VW553/GD32VW55X_Wifi_BLE_SDK/GD32VW55x_RELEASE_V1.0.2/MSDK/plf/GD32VW55x_standard_peripheral/Source\gd32vw55x_cau_aes.c ****     /* AES calculate process */
 1070              		.loc 1 181 5
 1071 0080 97000000 		call	cau_enable
 1071      E7800000 
 1072              	.LVL126:
 183:C:/Users/stapi/OneDrive/Desktop/GD32VW553/GD32VW55X_Wifi_BLE_SDK/GD32VW55x_RELEASE_V1.0.2/MSDK/plf/GD32VW55x_standard_peripheral/Source\gd32vw55x_cau_aes.c ****     /* disable the CAU peripheral */
 1073              		.loc 1 183 5
 183:C:/Users/stapi/OneDrive/Desktop/GD32VW553/GD32VW55X_Wifi_BLE_SDK/GD32VW55x_RELEASE_V1.0.2/MSDK/plf/GD32VW55x_standard_peripheral/Source\gd32vw55x_cau_aes.c ****     /* disable the CAU peripheral */
 1074              		.loc 1 183 11 is_stmt 0
 1075 0088 0C4C     		lw	a1,24(s0)
 1076 008a 4848     		lw	a0,20(s0)
 1077 008c 4A86     		mv	a2,s2
 1078 008e 97000000 		call	cau_aes_calculate
 1078      E7800000 
 1079              	.LVL127:
 1080 0096 2AC6     		sw	a0,12(sp)
 1081              	.LVL128:
 185:C:/Users/stapi/OneDrive/Desktop/GD32VW553/GD32VW55X_Wifi_BLE_SDK/GD32VW55x_RELEASE_V1.0.2/MSDK/plf/GD32VW55x_standard_peripheral/Source\gd32vw55x_cau_aes.c **** 
 1082              		.loc 1 185 5 is_stmt 1
 1083 0098 97000000 		call	cau_disable
 1083      E7800000 
 1084              	.LVL129:
 187:C:/Users/stapi/OneDrive/Desktop/GD32VW553/GD32VW55X_Wifi_BLE_SDK/GD32VW55x_RELEASE_V1.0.2/MSDK/plf/GD32VW55x_standard_peripheral/Source\gd32vw55x_cau_aes.c **** }
 1085              		.loc 1 187 5
 187:C:/Users/stapi/OneDrive/Desktop/GD32VW553/GD32VW55X_Wifi_BLE_SDK/GD32VW55x_RELEASE_V1.0.2/MSDK/plf/GD32VW55x_standard_peripheral/Source\gd32vw55x_cau_aes.c **** }
 1086              		.loc 1 187 12 is_stmt 0
 1087 00a0 3245     		lw	a0,12(sp)
 1088              	.LVL130:
 1089              	.L56:
 188:C:/Users/stapi/OneDrive/Desktop/GD32VW553/GD32VW55X_Wifi_BLE_SDK/GD32VW55x_RELEASE_V1.0.2/MSDK/plf/GD32VW55x_standard_peripheral/Source\gd32vw55x_cau_aes.c **** 
 1090              		.loc 1 188 1
 1091 00a2 6161     		addi	sp,sp,80
 1092              		.cfi_remember_state
 1093              		.cfi_def_cfa_offset 0
 1094 00a4 17030000 		tail	__riscv_restore_4
 1094      67000300 
 1095              		.cfi_restore 19
 1096              		.cfi_restore 18
 1097              		.cfi_restore 9
 1098              		.cfi_restore 8
 1099              		.cfi_restore 1
 1100              		.cfi_def_cfa_offset -32
 1101              	.LVL131:
 1102              	.L57:
 1103              		.cfi_restore_state
 146:C:/Users/stapi/OneDrive/Desktop/GD32VW553/GD32VW55X_Wifi_BLE_SDK/GD32VW55x_RELEASE_V1.0.2/MSDK/plf/GD32VW55x_standard_peripheral/Source\gd32vw55x_cau_aes.c ****         /* initialize the CAU peripheral */
 1104              		.loc 1 146 9 is_stmt 1
 1105 00ac 97000000 		call	cau_fifo_flush
 1105      E7800000 
 1106              	.LVL132:
 148:C:/Users/stapi/OneDrive/Desktop/GD32VW553/GD32VW55X_Wifi_BLE_SDK/GD32VW55x_RELEASE_V1.0.2/MSDK/plf/GD32VW55x_standard_peripheral/Source\gd32vw55x_cau_aes.c **** 
 1107              		.loc 1 148 9
 1108 00b4 0146     		li	a2,0
 1109 00b6 93058003 		li	a1,56
 1110 00ba 1145     		li	a0,4
 1111 00bc 97000000 		call	cau_init
 1111      E7800000 
 1112              	.LVL133:
 151:C:/Users/stapi/OneDrive/Desktop/GD32VW553/GD32VW55X_Wifi_BLE_SDK/GD32VW55x_RELEASE_V1.0.2/MSDK/plf/GD32VW55x_standard_peripheral/Source\gd32vw55x_cau_aes.c **** 
 1113              		.loc 1 151 9
 157:C:/Users/stapi/OneDrive/Desktop/GD32VW553/GD32VW55X_Wifi_BLE_SDK/GD32VW55x_RELEASE_V1.0.2/MSDK/plf/GD32VW55x_standard_peripheral/Source\gd32vw55x_cau_aes.c **** 
 1114              		.loc 1 157 9 is_stmt 0
 1115 00c4 C169     		li	s3,65536
 151:C:/Users/stapi/OneDrive/Desktop/GD32VW553/GD32VW55X_Wifi_BLE_SDK/GD32VW55x_RELEASE_V1.0.2/MSDK/plf/GD32VW55x_standard_peripheral/Source\gd32vw55x_cau_aes.c **** 
 1116              		.loc 1 151 9
 1117 00c6 97000000 		call	cau_enable
 1117      E7800000 
 1118              	.LVL134:
 1119              	.L60:
 154:C:/Users/stapi/OneDrive/Desktop/GD32VW553/GD32VW55X_Wifi_BLE_SDK/GD32VW55x_RELEASE_V1.0.2/MSDK/plf/GD32VW55x_standard_peripheral/Source\gd32vw55x_cau_aes.c ****             busystatus = cau_flag_get(CAU_FLAG_BUSY);
 1120              		.loc 1 154 9 is_stmt 1 discriminator 2
 155:C:/Users/stapi/OneDrive/Desktop/GD32VW553/GD32VW55X_Wifi_BLE_SDK/GD32VW55x_RELEASE_V1.0.2/MSDK/plf/GD32VW55x_standard_peripheral/Source\gd32vw55x_cau_aes.c ****             counter++;
 1121              		.loc 1 155 13 discriminator 2
 155:C:/Users/stapi/OneDrive/Desktop/GD32VW553/GD32VW55X_Wifi_BLE_SDK/GD32VW55x_RELEASE_V1.0.2/MSDK/plf/GD32VW55x_standard_peripheral/Source\gd32vw55x_cau_aes.c ****             counter++;
 1122              		.loc 1 155 26 is_stmt 0 discriminator 2
 1123 00ce 4145     		li	a0,16
 1124 00d0 97000000 		call	cau_flag_get
 1124      E7800000 
 1125              	.LVL135:
 156:C:/Users/stapi/OneDrive/Desktop/GD32VW553/GD32VW55X_Wifi_BLE_SDK/GD32VW55x_RELEASE_V1.0.2/MSDK/plf/GD32VW55x_standard_peripheral/Source\gd32vw55x_cau_aes.c ****         } while((AESBSY_TIMEOUT != counter) && (RESET != busystatus));
 1126              		.loc 1 156 13 is_stmt 1 discriminator 2
 156:C:/Users/stapi/OneDrive/Desktop/GD32VW553/GD32VW55X_Wifi_BLE_SDK/GD32VW55x_RELEASE_V1.0.2/MSDK/plf/GD32VW55x_standard_peripheral/Source\gd32vw55x_cau_aes.c ****         } while((AESBSY_TIMEOUT != counter) && (RESET != busystatus));
 1127              		.loc 1 156 20 is_stmt 0 discriminator 2
 1128 00d8 F247     		lw	a5,28(sp)
 1129 00da 8507     		addi	a5,a5,1
 1130 00dc 3ECE     		sw	a5,28(sp)
 157:C:/Users/stapi/OneDrive/Desktop/GD32VW553/GD32VW55X_Wifi_BLE_SDK/GD32VW55x_RELEASE_V1.0.2/MSDK/plf/GD32VW55x_standard_peripheral/Source\gd32vw55x_cau_aes.c **** 
 1131              		.loc 1 157 16 is_stmt 1 discriminator 2
 157:C:/Users/stapi/OneDrive/Desktop/GD32VW553/GD32VW55X_Wifi_BLE_SDK/GD32VW55x_RELEASE_V1.0.2/MSDK/plf/GD32VW55x_standard_peripheral/Source\gd32vw55x_cau_aes.c **** 
 1132              		.loc 1 157 33 is_stmt 0 discriminator 2
 1133 00de F247     		lw	a5,28(sp)
 157:C:/Users/stapi/OneDrive/Desktop/GD32VW553/GD32VW55X_Wifi_BLE_SDK/GD32VW55x_RELEASE_V1.0.2/MSDK/plf/GD32VW55x_standard_peripheral/Source\gd32vw55x_cau_aes.c **** 
 1134              		.loc 1 157 9 discriminator 2
 1135 00e0 63843701 		beq	a5,s3,.L59
 157:C:/Users/stapi/OneDrive/Desktop/GD32VW553/GD32VW55X_Wifi_BLE_SDK/GD32VW55x_RELEASE_V1.0.2/MSDK/plf/GD32VW55x_standard_peripheral/Source\gd32vw55x_cau_aes.c **** 
 1136              		.loc 1 157 45 discriminator 1
 1137 00e4 6DF5     		bne	a0,zero,.L60
 1138 00e6 99BF     		j	.L61
 1139              	.L59:
 159:C:/Users/stapi/OneDrive/Desktop/GD32VW553/GD32VW55X_Wifi_BLE_SDK/GD32VW55x_RELEASE_V1.0.2/MSDK/plf/GD32VW55x_standard_peripheral/Source\gd32vw55x_cau_aes.c ****             return ERROR;
 1140              		.loc 1 159 9 is_stmt 1
 159:C:/Users/stapi/OneDrive/Desktop/GD32VW553/GD32VW55X_Wifi_BLE_SDK/GD32VW55x_RELEASE_V1.0.2/MSDK/plf/GD32VW55x_standard_peripheral/Source\gd32vw55x_cau_aes.c ****             return ERROR;
 1141              		.loc 1 159 11 is_stmt 0
 1142 00e8 31D9     		beq	a0,zero,.L61
 160:C:/Users/stapi/OneDrive/Desktop/GD32VW553/GD32VW55X_Wifi_BLE_SDK/GD32VW55x_RELEASE_V1.0.2/MSDK/plf/GD32VW55x_standard_peripheral/Source\gd32vw55x_cau_aes.c ****         }
 1143              		.loc 1 160 20
 1144 00ea 0145     		li	a0,0
 1145              	.LVL136:
 1146 00ec 5DBF     		j	.L56
 1147              		.cfi_endproc
 1148              	.LFE366:
 1150              		.section	.text.cau_aes_ctr,"ax",@progbits
 1151              		.align	1
 1152              		.globl	cau_aes_ctr
 1154              	cau_aes_ctr:
 1155              	.LFB367:
 204:C:/Users/stapi/OneDrive/Desktop/GD32VW553/GD32VW55X_Wifi_BLE_SDK/GD32VW55x_RELEASE_V1.0.2/MSDK/plf/GD32VW55x_standard_peripheral/Source\gd32vw55x_cau_aes.c ****     ErrStatus ret = ERROR;
 1156              		.loc 1 204 1 is_stmt 1
 1157              		.cfi_startproc
 1158              	.LVL137:
 1159 0000 17030000 		call	t0,__riscv_save_3
 1159      E7020300 
 1160              		.cfi_offset 18, -16
 1161              		.cfi_offset 9, -12
 1162              		.cfi_offset 8, -8
 1163              		.cfi_offset 1, -4
 1164              		.cfi_def_cfa_offset 16
 205:C:/Users/stapi/OneDrive/Desktop/GD32VW553/GD32VW55X_Wifi_BLE_SDK/GD32VW55x_RELEASE_V1.0.2/MSDK/plf/GD32VW55x_standard_peripheral/Source\gd32vw55x_cau_aes.c ****     cau_key_parameter_struct key_initpara;
 1165              		.loc 1 205 5
 1166              	.LVL138:
 206:C:/Users/stapi/OneDrive/Desktop/GD32VW553/GD32VW55X_Wifi_BLE_SDK/GD32VW55x_RELEASE_V1.0.2/MSDK/plf/GD32VW55x_standard_peripheral/Source\gd32vw55x_cau_aes.c ****     cau_iv_parameter_struct iv_initpara;
 1167              		.loc 1 206 5
 207:C:/Users/stapi/OneDrive/Desktop/GD32VW553/GD32VW55X_Wifi_BLE_SDK/GD32VW55x_RELEASE_V1.0.2/MSDK/plf/GD32VW55x_standard_peripheral/Source\gd32vw55x_cau_aes.c ****     uint32_t ivaddr = (uint32_t)cau_parameter->iv;
 1168              		.loc 1 207 5
 208:C:/Users/stapi/OneDrive/Desktop/GD32VW553/GD32VW55X_Wifi_BLE_SDK/GD32VW55x_RELEASE_V1.0.2/MSDK/plf/GD32VW55x_standard_peripheral/Source\gd32vw55x_cau_aes.c **** 
 1169              		.loc 1 208 5
 204:C:/Users/stapi/OneDrive/Desktop/GD32VW553/GD32VW55X_Wifi_BLE_SDK/GD32VW55x_RELEASE_V1.0.2/MSDK/plf/GD32VW55x_standard_peripheral/Source\gd32vw55x_cau_aes.c ****     ErrStatus ret = ERROR;
 1170              		.loc 1 204 1 is_stmt 0
 1171 0008 3971     		addi	sp,sp,-64
 1172              		.cfi_def_cfa_offset 80
 204:C:/Users/stapi/OneDrive/Desktop/GD32VW553/GD32VW55X_Wifi_BLE_SDK/GD32VW55x_RELEASE_V1.0.2/MSDK/plf/GD32VW55x_standard_peripheral/Source\gd32vw55x_cau_aes.c ****     ErrStatus ret = ERROR;
 1173              		.loc 1 204 1
 1174 000a 2A84     		mv	s0,a0
 208:C:/Users/stapi/OneDrive/Desktop/GD32VW553/GD32VW55X_Wifi_BLE_SDK/GD32VW55x_RELEASE_V1.0.2/MSDK/plf/GD32VW55x_standard_peripheral/Source\gd32vw55x_cau_aes.c **** 
 1175              		.loc 1 208 46
 1176 000c 4445     		lw	s1,12(a0)
 1177              	.LVL139:
 211:C:/Users/stapi/OneDrive/Desktop/GD32VW553/GD32VW55X_Wifi_BLE_SDK/GD32VW55x_RELEASE_V1.0.2/MSDK/plf/GD32VW55x_standard_peripheral/Source\gd32vw55x_cau_aes.c ****     /* initialize the CAU peripheral */
 1178              		.loc 1 211 5 is_stmt 1
 1179 000e 0810     		addi	a0,sp,32
 1180              	.LVL140:
 204:C:/Users/stapi/OneDrive/Desktop/GD32VW553/GD32VW55X_Wifi_BLE_SDK/GD32VW55x_RELEASE_V1.0.2/MSDK/plf/GD32VW55x_standard_peripheral/Source\gd32vw55x_cau_aes.c ****     ErrStatus ret = ERROR;
 1181              		.loc 1 204 1 is_stmt 0
 1182 0010 2E89     		mv	s2,a1
 211:C:/Users/stapi/OneDrive/Desktop/GD32VW553/GD32VW55X_Wifi_BLE_SDK/GD32VW55x_RELEASE_V1.0.2/MSDK/plf/GD32VW55x_standard_peripheral/Source\gd32vw55x_cau_aes.c ****     /* initialize the CAU peripheral */
 1183              		.loc 1 211 5
 1184 0012 97000000 		call	cau_key_struct_para_init
 1184      E7800000 
 1185              	.LVL141:
 213:C:/Users/stapi/OneDrive/Desktop/GD32VW553/GD32VW55X_Wifi_BLE_SDK/GD32VW55x_RELEASE_V1.0.2/MSDK/plf/GD32VW55x_standard_peripheral/Source\gd32vw55x_cau_aes.c **** 
 1186              		.loc 1 213 5 is_stmt 1
 1187 001a 0840     		lw	a0,0(s0)
 1188 001c 13060008 		li	a2,128
 1189 0020 93050003 		li	a1,48
 1190 0024 97000000 		call	cau_init
 1190      E7800000 
 1191              	.LVL142:
 216:C:/Users/stapi/OneDrive/Desktop/GD32VW553/GD32VW55X_Wifi_BLE_SDK/GD32VW55x_RELEASE_V1.0.2/MSDK/plf/GD32VW55x_standard_peripheral/Source\gd32vw55x_cau_aes.c ****     /* key initialization */
 1192              		.loc 1 216 5
 1193 002c 0C44     		lw	a1,8(s0)
 1194 002e 4840     		lw	a0,4(s0)
 1195 0030 1010     		addi	a2,sp,32
 1196 0032 97000000 		call	cau_aes_key_config
 1196      E7800000 
 1197              	.LVL143:
 218:C:/Users/stapi/OneDrive/Desktop/GD32VW553/GD32VW55X_Wifi_BLE_SDK/GD32VW55x_RELEASE_V1.0.2/MSDK/plf/GD32VW55x_standard_peripheral/Source\gd32vw55x_cau_aes.c **** 
 1198              		.loc 1 218 5
 1199 003a 0810     		addi	a0,sp,32
 1200 003c 97000000 		call	cau_key_init
 1200      E7800000 
 1201              	.LVL144:
 221:C:/Users/stapi/OneDrive/Desktop/GD32VW553/GD32VW55X_Wifi_BLE_SDK/GD32VW55x_RELEASE_V1.0.2/MSDK/plf/GD32VW55x_standard_peripheral/Source\gd32vw55x_cau_aes.c ****     ivaddr += 4U;
 1202              		.loc 1 221 5
 1203 0044 9C40     		lw	a5,0(s1)
 228:C:/Users/stapi/OneDrive/Desktop/GD32VW553/GD32VW55X_Wifi_BLE_SDK/GD32VW55x_RELEASE_V1.0.2/MSDK/plf/GD32VW55x_standard_peripheral/Source\gd32vw55x_cau_aes.c **** 
 1204              		.loc 1 228 5 is_stmt 0
 1205 0046 0808     		addi	a0,sp,16
 1206 0048 93D78769 		rev8	a5,a5
 1207              	.LVL145:
 1208              	.LBB140:
 1209              	.LBB141:
 122:..\..\..\..\plf\riscv\NMSIS\Core\Include/core_compatiable.h **** 
 1210              		.loc 2 122 5 is_stmt 1
 124:..\..\..\..\plf\riscv\NMSIS\Core\Include/core_compatiable.h ****         | ((value & 0x00ff0000) >> 8 )
 1211              		.loc 2 124 5
 1212              		.loc 2 128 5
 1213              	.LBE141:
 1214              	.LBE140:
 221:C:/Users/stapi/OneDrive/Desktop/GD32VW553/GD32VW55X_Wifi_BLE_SDK/GD32VW55x_RELEASE_V1.0.2/MSDK/plf/GD32VW55x_standard_peripheral/Source\gd32vw55x_cau_aes.c ****     ivaddr += 4U;
 1215              		.loc 1 221 27 is_stmt 0
 1216 004c 3EC8     		sw	a5,16(sp)
 222:C:/Users/stapi/OneDrive/Desktop/GD32VW553/GD32VW55X_Wifi_BLE_SDK/GD32VW55x_RELEASE_V1.0.2/MSDK/plf/GD32VW55x_standard_peripheral/Source\gd32vw55x_cau_aes.c ****     iv_initpara.iv_0_low = __REV(*(uint32_t *)(ivaddr));
 1217              		.loc 1 222 5 is_stmt 1
 1218              	.LVL146:
 223:C:/Users/stapi/OneDrive/Desktop/GD32VW553/GD32VW55X_Wifi_BLE_SDK/GD32VW55x_RELEASE_V1.0.2/MSDK/plf/GD32VW55x_standard_peripheral/Source\gd32vw55x_cau_aes.c ****     ivaddr += 4U;
 1219              		.loc 1 223 5
 1220 004e DC40     		lw	a5,4(s1)
 1221 0050 93D78769 		rev8	a5,a5
 1222              	.LVL147:
 1223              	.LBB142:
 1224              	.LBB143:
 122:..\..\..\..\plf\riscv\NMSIS\Core\Include/core_compatiable.h **** 
 1225              		.loc 2 122 5
 124:..\..\..\..\plf\riscv\NMSIS\Core\Include/core_compatiable.h ****         | ((value & 0x00ff0000) >> 8 )
 1226              		.loc 2 124 5
 1227              		.loc 2 128 5
 1228              	.LBE143:
 1229              	.LBE142:
 223:C:/Users/stapi/OneDrive/Desktop/GD32VW553/GD32VW55X_Wifi_BLE_SDK/GD32VW55x_RELEASE_V1.0.2/MSDK/plf/GD32VW55x_standard_peripheral/Source\gd32vw55x_cau_aes.c ****     ivaddr += 4U;
 1230              		.loc 1 223 26 is_stmt 0
 1231 0054 3ECA     		sw	a5,20(sp)
 224:C:/Users/stapi/OneDrive/Desktop/GD32VW553/GD32VW55X_Wifi_BLE_SDK/GD32VW55x_RELEASE_V1.0.2/MSDK/plf/GD32VW55x_standard_peripheral/Source\gd32vw55x_cau_aes.c ****     iv_initpara.iv_1_high = __REV(*(uint32_t *)(ivaddr));
 1232              		.loc 1 224 5 is_stmt 1
 1233              	.LVL148:
 225:C:/Users/stapi/OneDrive/Desktop/GD32VW553/GD32VW55X_Wifi_BLE_SDK/GD32VW55x_RELEASE_V1.0.2/MSDK/plf/GD32VW55x_standard_peripheral/Source\gd32vw55x_cau_aes.c ****     ivaddr += 4U;
 1234              		.loc 1 225 5
 1235 0056 9C44     		lw	a5,8(s1)
 1236 0058 93D78769 		rev8	a5,a5
 1237              	.LVL149:
 1238              	.LBB144:
 1239              	.LBB145:
 122:..\..\..\..\plf\riscv\NMSIS\Core\Include/core_compatiable.h **** 
 1240              		.loc 2 122 5
 124:..\..\..\..\plf\riscv\NMSIS\Core\Include/core_compatiable.h ****         | ((value & 0x00ff0000) >> 8 )
 1241              		.loc 2 124 5
 1242              		.loc 2 128 5
 1243              	.LBE145:
 1244              	.LBE144:
 225:C:/Users/stapi/OneDrive/Desktop/GD32VW553/GD32VW55X_Wifi_BLE_SDK/GD32VW55x_RELEASE_V1.0.2/MSDK/plf/GD32VW55x_standard_peripheral/Source\gd32vw55x_cau_aes.c ****     ivaddr += 4U;
 1245              		.loc 1 225 27 is_stmt 0
 1246 005c 3ECC     		sw	a5,24(sp)
 226:C:/Users/stapi/OneDrive/Desktop/GD32VW553/GD32VW55X_Wifi_BLE_SDK/GD32VW55x_RELEASE_V1.0.2/MSDK/plf/GD32VW55x_standard_peripheral/Source\gd32vw55x_cau_aes.c ****     iv_initpara.iv_1_low = __REV(*(uint32_t *)(ivaddr));
 1247              		.loc 1 226 5 is_stmt 1
 1248              	.LVL150:
 227:C:/Users/stapi/OneDrive/Desktop/GD32VW553/GD32VW55X_Wifi_BLE_SDK/GD32VW55x_RELEASE_V1.0.2/MSDK/plf/GD32VW55x_standard_peripheral/Source\gd32vw55x_cau_aes.c ****     cau_iv_init(&iv_initpara);
 1249              		.loc 1 227 5
 1250 005e DC44     		lw	a5,12(s1)
 1251 0060 93D78769 		rev8	a5,a5
 1252              	.LVL151:
 1253              	.LBB146:
 1254              	.LBB147:
 122:..\..\..\..\plf\riscv\NMSIS\Core\Include/core_compatiable.h **** 
 1255              		.loc 2 122 5
 124:..\..\..\..\plf\riscv\NMSIS\Core\Include/core_compatiable.h ****         | ((value & 0x00ff0000) >> 8 )
 1256              		.loc 2 124 5
 1257              		.loc 2 128 5
 1258              	.LBE147:
 1259              	.LBE146:
 227:C:/Users/stapi/OneDrive/Desktop/GD32VW553/GD32VW55X_Wifi_BLE_SDK/GD32VW55x_RELEASE_V1.0.2/MSDK/plf/GD32VW55x_standard_peripheral/Source\gd32vw55x_cau_aes.c ****     cau_iv_init(&iv_initpara);
 1260              		.loc 1 227 26 is_stmt 0
 1261 0064 3ECE     		sw	a5,28(sp)
 228:C:/Users/stapi/OneDrive/Desktop/GD32VW553/GD32VW55X_Wifi_BLE_SDK/GD32VW55x_RELEASE_V1.0.2/MSDK/plf/GD32VW55x_standard_peripheral/Source\gd32vw55x_cau_aes.c **** 
 1262              		.loc 1 228 5 is_stmt 1
 1263 0066 97000000 		call	cau_iv_init
 1263      E7800000 
 1264              	.LVL152:
 231:C:/Users/stapi/OneDrive/Desktop/GD32VW553/GD32VW55X_Wifi_BLE_SDK/GD32VW55x_RELEASE_V1.0.2/MSDK/plf/GD32VW55x_standard_peripheral/Source\gd32vw55x_cau_aes.c **** 
 1265              		.loc 1 231 5
 1266 006e 97000000 		call	cau_fifo_flush
 1266      E7800000 
 1267              	.LVL153:
 234:C:/Users/stapi/OneDrive/Desktop/GD32VW553/GD32VW55X_Wifi_BLE_SDK/GD32VW55x_RELEASE_V1.0.2/MSDK/plf/GD32VW55x_standard_peripheral/Source\gd32vw55x_cau_aes.c ****     /* AES calculate process */
 1268              		.loc 1 234 5
 1269 0076 97000000 		call	cau_enable
 1269      E7800000 
 1270              	.LVL154:
 236:C:/Users/stapi/OneDrive/Desktop/GD32VW553/GD32VW55X_Wifi_BLE_SDK/GD32VW55x_RELEASE_V1.0.2/MSDK/plf/GD32VW55x_standard_peripheral/Source\gd32vw55x_cau_aes.c ****     /* disable the CAU peripheral */
 1271              		.loc 1 236 5
 236:C:/Users/stapi/OneDrive/Desktop/GD32VW553/GD32VW55X_Wifi_BLE_SDK/GD32VW55x_RELEASE_V1.0.2/MSDK/plf/GD32VW55x_standard_peripheral/Source\gd32vw55x_cau_aes.c ****     /* disable the CAU peripheral */
 1272              		.loc 1 236 11 is_stmt 0
 1273 007e 0C4C     		lw	a1,24(s0)
 1274 0080 4848     		lw	a0,20(s0)
 1275 0082 4A86     		mv	a2,s2
 1276 0084 97000000 		call	cau_aes_calculate
 1276      E7800000 
 1277              	.LVL155:
 1278 008c 2AC6     		sw	a0,12(sp)
 1279              	.LVL156:
 238:C:/Users/stapi/OneDrive/Desktop/GD32VW553/GD32VW55X_Wifi_BLE_SDK/GD32VW55x_RELEASE_V1.0.2/MSDK/plf/GD32VW55x_standard_peripheral/Source\gd32vw55x_cau_aes.c **** 
 1280              		.loc 1 238 5 is_stmt 1
 1281 008e 97000000 		call	cau_disable
 1281      E7800000 
 1282              	.LVL157:
 240:C:/Users/stapi/OneDrive/Desktop/GD32VW553/GD32VW55X_Wifi_BLE_SDK/GD32VW55x_RELEASE_V1.0.2/MSDK/plf/GD32VW55x_standard_peripheral/Source\gd32vw55x_cau_aes.c **** }
 1283              		.loc 1 240 5
 241:C:/Users/stapi/OneDrive/Desktop/GD32VW553/GD32VW55X_Wifi_BLE_SDK/GD32VW55x_RELEASE_V1.0.2/MSDK/plf/GD32VW55x_standard_peripheral/Source\gd32vw55x_cau_aes.c **** 
 1284              		.loc 1 241 1 is_stmt 0
 1285 0096 3245     		lw	a0,12(sp)
 1286 0098 2161     		addi	sp,sp,64
 1287              		.cfi_def_cfa_offset 0
 1288              	.LVL158:
 1289 009a 17030000 		tail	__riscv_restore_3
 1289      67000300 
 1290              		.cfi_restore 18
 1291              		.cfi_restore 9
 1292              		.cfi_restore 8
 1293              		.cfi_restore 1
 1294              		.cfi_def_cfa_offset -16
 1295              		.cfi_endproc
 1296              	.LFE367:
 1298              		.section	.text.cau_aes_cfb,"ax",@progbits
 1299              		.align	1
 1300              		.globl	cau_aes_cfb
 1302              	cau_aes_cfb:
 1303              	.LFB368:
 257:C:/Users/stapi/OneDrive/Desktop/GD32VW553/GD32VW55X_Wifi_BLE_SDK/GD32VW55x_RELEASE_V1.0.2/MSDK/plf/GD32VW55x_standard_peripheral/Source\gd32vw55x_cau_aes.c ****     ErrStatus ret = ERROR;
 1304              		.loc 1 257 1 is_stmt 1
 1305              		.cfi_startproc
 1306              	.LVL159:
 1307 0000 17030000 		call	t0,__riscv_save_3
 1307      E7020300 
 1308              		.cfi_offset 18, -16
 1309              		.cfi_offset 9, -12
 1310              		.cfi_offset 8, -8
 1311              		.cfi_offset 1, -4
 1312              		.cfi_def_cfa_offset 16
 258:C:/Users/stapi/OneDrive/Desktop/GD32VW553/GD32VW55X_Wifi_BLE_SDK/GD32VW55x_RELEASE_V1.0.2/MSDK/plf/GD32VW55x_standard_peripheral/Source\gd32vw55x_cau_aes.c ****     cau_key_parameter_struct key_initpara;
 1313              		.loc 1 258 5
 1314              	.LVL160:
 259:C:/Users/stapi/OneDrive/Desktop/GD32VW553/GD32VW55X_Wifi_BLE_SDK/GD32VW55x_RELEASE_V1.0.2/MSDK/plf/GD32VW55x_standard_peripheral/Source\gd32vw55x_cau_aes.c ****     cau_iv_parameter_struct iv_initpara;
 1315              		.loc 1 259 5
 260:C:/Users/stapi/OneDrive/Desktop/GD32VW553/GD32VW55X_Wifi_BLE_SDK/GD32VW55x_RELEASE_V1.0.2/MSDK/plf/GD32VW55x_standard_peripheral/Source\gd32vw55x_cau_aes.c ****     uint32_t ivaddr = (uint32_t)cau_parameter->iv;
 1316              		.loc 1 260 5
 261:C:/Users/stapi/OneDrive/Desktop/GD32VW553/GD32VW55X_Wifi_BLE_SDK/GD32VW55x_RELEASE_V1.0.2/MSDK/plf/GD32VW55x_standard_peripheral/Source\gd32vw55x_cau_aes.c **** 
 1317              		.loc 1 261 5
 257:C:/Users/stapi/OneDrive/Desktop/GD32VW553/GD32VW55X_Wifi_BLE_SDK/GD32VW55x_RELEASE_V1.0.2/MSDK/plf/GD32VW55x_standard_peripheral/Source\gd32vw55x_cau_aes.c ****     ErrStatus ret = ERROR;
 1318              		.loc 1 257 1 is_stmt 0
 1319 0008 3971     		addi	sp,sp,-64
 1320              		.cfi_def_cfa_offset 80
 257:C:/Users/stapi/OneDrive/Desktop/GD32VW553/GD32VW55X_Wifi_BLE_SDK/GD32VW55x_RELEASE_V1.0.2/MSDK/plf/GD32VW55x_standard_peripheral/Source\gd32vw55x_cau_aes.c ****     ErrStatus ret = ERROR;
 1321              		.loc 1 257 1
 1322 000a 2A84     		mv	s0,a0
 261:C:/Users/stapi/OneDrive/Desktop/GD32VW553/GD32VW55X_Wifi_BLE_SDK/GD32VW55x_RELEASE_V1.0.2/MSDK/plf/GD32VW55x_standard_peripheral/Source\gd32vw55x_cau_aes.c **** 
 1323              		.loc 1 261 46
 1324 000c 4445     		lw	s1,12(a0)
 1325              	.LVL161:
 264:C:/Users/stapi/OneDrive/Desktop/GD32VW553/GD32VW55X_Wifi_BLE_SDK/GD32VW55x_RELEASE_V1.0.2/MSDK/plf/GD32VW55x_standard_peripheral/Source\gd32vw55x_cau_aes.c ****     /* initialize the CAU peripheral */
 1326              		.loc 1 264 5 is_stmt 1
 1327 000e 0810     		addi	a0,sp,32
 1328              	.LVL162:
 257:C:/Users/stapi/OneDrive/Desktop/GD32VW553/GD32VW55X_Wifi_BLE_SDK/GD32VW55x_RELEASE_V1.0.2/MSDK/plf/GD32VW55x_standard_peripheral/Source\gd32vw55x_cau_aes.c ****     ErrStatus ret = ERROR;
 1329              		.loc 1 257 1 is_stmt 0
 1330 0010 2E89     		mv	s2,a1
 264:C:/Users/stapi/OneDrive/Desktop/GD32VW553/GD32VW55X_Wifi_BLE_SDK/GD32VW55x_RELEASE_V1.0.2/MSDK/plf/GD32VW55x_standard_peripheral/Source\gd32vw55x_cau_aes.c ****     /* initialize the CAU peripheral */
 1331              		.loc 1 264 5
 1332 0012 97000000 		call	cau_key_struct_para_init
 1332      E7800000 
 1333              	.LVL163:
 266:C:/Users/stapi/OneDrive/Desktop/GD32VW553/GD32VW55X_Wifi_BLE_SDK/GD32VW55x_RELEASE_V1.0.2/MSDK/plf/GD32VW55x_standard_peripheral/Source\gd32vw55x_cau_aes.c **** 
 1334              		.loc 1 266 5 is_stmt 1
 1335 001a 0840     		lw	a0,0(s0)
 1336 001c B7050800 		li	a1,524288
 1337 0020 13060008 		li	a2,128
 1338 0024 C105     		addi	a1,a1,16
 1339 0026 97000000 		call	cau_init
 1339      E7800000 
 1340              	.LVL164:
 269:C:/Users/stapi/OneDrive/Desktop/GD32VW553/GD32VW55X_Wifi_BLE_SDK/GD32VW55x_RELEASE_V1.0.2/MSDK/plf/GD32VW55x_standard_peripheral/Source\gd32vw55x_cau_aes.c ****     /* key initialization */
 1341              		.loc 1 269 5
 1342 002e 0C44     		lw	a1,8(s0)
 1343 0030 4840     		lw	a0,4(s0)
 1344 0032 1010     		addi	a2,sp,32
 1345 0034 97000000 		call	cau_aes_key_config
 1345      E7800000 
 1346              	.LVL165:
 271:C:/Users/stapi/OneDrive/Desktop/GD32VW553/GD32VW55X_Wifi_BLE_SDK/GD32VW55x_RELEASE_V1.0.2/MSDK/plf/GD32VW55x_standard_peripheral/Source\gd32vw55x_cau_aes.c **** 
 1347              		.loc 1 271 5
 1348 003c 0810     		addi	a0,sp,32
 1349 003e 97000000 		call	cau_key_init
 1349      E7800000 
 1350              	.LVL166:
 274:C:/Users/stapi/OneDrive/Desktop/GD32VW553/GD32VW55X_Wifi_BLE_SDK/GD32VW55x_RELEASE_V1.0.2/MSDK/plf/GD32VW55x_standard_peripheral/Source\gd32vw55x_cau_aes.c ****     ivaddr += 4U;
 1351              		.loc 1 274 5
 1352 0046 9C40     		lw	a5,0(s1)
 281:C:/Users/stapi/OneDrive/Desktop/GD32VW553/GD32VW55X_Wifi_BLE_SDK/GD32VW55x_RELEASE_V1.0.2/MSDK/plf/GD32VW55x_standard_peripheral/Source\gd32vw55x_cau_aes.c **** 
 1353              		.loc 1 281 5 is_stmt 0
 1354 0048 0808     		addi	a0,sp,16
 1355 004a 93D78769 		rev8	a5,a5
 1356              	.LVL167:
 1357              	.LBB148:
 1358              	.LBB149:
 122:..\..\..\..\plf\riscv\NMSIS\Core\Include/core_compatiable.h **** 
 1359              		.loc 2 122 5 is_stmt 1
 124:..\..\..\..\plf\riscv\NMSIS\Core\Include/core_compatiable.h ****         | ((value & 0x00ff0000) >> 8 )
 1360              		.loc 2 124 5
 1361              		.loc 2 128 5
 1362              	.LBE149:
 1363              	.LBE148:
 274:C:/Users/stapi/OneDrive/Desktop/GD32VW553/GD32VW55X_Wifi_BLE_SDK/GD32VW55x_RELEASE_V1.0.2/MSDK/plf/GD32VW55x_standard_peripheral/Source\gd32vw55x_cau_aes.c ****     ivaddr += 4U;
 1364              		.loc 1 274 27 is_stmt 0
 1365 004e 3EC8     		sw	a5,16(sp)
 275:C:/Users/stapi/OneDrive/Desktop/GD32VW553/GD32VW55X_Wifi_BLE_SDK/GD32VW55x_RELEASE_V1.0.2/MSDK/plf/GD32VW55x_standard_peripheral/Source\gd32vw55x_cau_aes.c ****     iv_initpara.iv_0_low = __REV(*(uint32_t *)(ivaddr));
 1366              		.loc 1 275 5 is_stmt 1
 1367              	.LVL168:
 276:C:/Users/stapi/OneDrive/Desktop/GD32VW553/GD32VW55X_Wifi_BLE_SDK/GD32VW55x_RELEASE_V1.0.2/MSDK/plf/GD32VW55x_standard_peripheral/Source\gd32vw55x_cau_aes.c ****     ivaddr += 4U;
 1368              		.loc 1 276 5
 1369 0050 DC40     		lw	a5,4(s1)
 1370 0052 93D78769 		rev8	a5,a5
 1371              	.LVL169:
 1372              	.LBB150:
 1373              	.LBB151:
 122:..\..\..\..\plf\riscv\NMSIS\Core\Include/core_compatiable.h **** 
 1374              		.loc 2 122 5
 124:..\..\..\..\plf\riscv\NMSIS\Core\Include/core_compatiable.h ****         | ((value & 0x00ff0000) >> 8 )
 1375              		.loc 2 124 5
 1376              		.loc 2 128 5
 1377              	.LBE151:
 1378              	.LBE150:
 276:C:/Users/stapi/OneDrive/Desktop/GD32VW553/GD32VW55X_Wifi_BLE_SDK/GD32VW55x_RELEASE_V1.0.2/MSDK/plf/GD32VW55x_standard_peripheral/Source\gd32vw55x_cau_aes.c ****     ivaddr += 4U;
 1379              		.loc 1 276 26 is_stmt 0
 1380 0056 3ECA     		sw	a5,20(sp)
 277:C:/Users/stapi/OneDrive/Desktop/GD32VW553/GD32VW55X_Wifi_BLE_SDK/GD32VW55x_RELEASE_V1.0.2/MSDK/plf/GD32VW55x_standard_peripheral/Source\gd32vw55x_cau_aes.c ****     iv_initpara.iv_1_high = __REV(*(uint32_t *)(ivaddr));
 1381              		.loc 1 277 5 is_stmt 1
 1382              	.LVL170:
 278:C:/Users/stapi/OneDrive/Desktop/GD32VW553/GD32VW55X_Wifi_BLE_SDK/GD32VW55x_RELEASE_V1.0.2/MSDK/plf/GD32VW55x_standard_peripheral/Source\gd32vw55x_cau_aes.c ****     ivaddr += 4U;
 1383              		.loc 1 278 5
 1384 0058 9C44     		lw	a5,8(s1)
 1385 005a 93D78769 		rev8	a5,a5
 1386              	.LVL171:
 1387              	.LBB152:
 1388              	.LBB153:
 122:..\..\..\..\plf\riscv\NMSIS\Core\Include/core_compatiable.h **** 
 1389              		.loc 2 122 5
 124:..\..\..\..\plf\riscv\NMSIS\Core\Include/core_compatiable.h ****         | ((value & 0x00ff0000) >> 8 )
 1390              		.loc 2 124 5
 1391              		.loc 2 128 5
 1392              	.LBE153:
 1393              	.LBE152:
 278:C:/Users/stapi/OneDrive/Desktop/GD32VW553/GD32VW55X_Wifi_BLE_SDK/GD32VW55x_RELEASE_V1.0.2/MSDK/plf/GD32VW55x_standard_peripheral/Source\gd32vw55x_cau_aes.c ****     ivaddr += 4U;
 1394              		.loc 1 278 27 is_stmt 0
 1395 005e 3ECC     		sw	a5,24(sp)
 279:C:/Users/stapi/OneDrive/Desktop/GD32VW553/GD32VW55X_Wifi_BLE_SDK/GD32VW55x_RELEASE_V1.0.2/MSDK/plf/GD32VW55x_standard_peripheral/Source\gd32vw55x_cau_aes.c ****     iv_initpara.iv_1_low = __REV(*(uint32_t *)(ivaddr));
 1396              		.loc 1 279 5 is_stmt 1
 1397              	.LVL172:
 280:C:/Users/stapi/OneDrive/Desktop/GD32VW553/GD32VW55X_Wifi_BLE_SDK/GD32VW55x_RELEASE_V1.0.2/MSDK/plf/GD32VW55x_standard_peripheral/Source\gd32vw55x_cau_aes.c ****     cau_iv_init(&iv_initpara);
 1398              		.loc 1 280 5
 1399 0060 DC44     		lw	a5,12(s1)
 1400 0062 93D78769 		rev8	a5,a5
 1401              	.LVL173:
 1402              	.LBB154:
 1403              	.LBB155:
 122:..\..\..\..\plf\riscv\NMSIS\Core\Include/core_compatiable.h **** 
 1404              		.loc 2 122 5
 124:..\..\..\..\plf\riscv\NMSIS\Core\Include/core_compatiable.h ****         | ((value & 0x00ff0000) >> 8 )
 1405              		.loc 2 124 5
 1406              		.loc 2 128 5
 1407              	.LBE155:
 1408              	.LBE154:
 280:C:/Users/stapi/OneDrive/Desktop/GD32VW553/GD32VW55X_Wifi_BLE_SDK/GD32VW55x_RELEASE_V1.0.2/MSDK/plf/GD32VW55x_standard_peripheral/Source\gd32vw55x_cau_aes.c ****     cau_iv_init(&iv_initpara);
 1409              		.loc 1 280 26 is_stmt 0
 1410 0066 3ECE     		sw	a5,28(sp)
 281:C:/Users/stapi/OneDrive/Desktop/GD32VW553/GD32VW55X_Wifi_BLE_SDK/GD32VW55x_RELEASE_V1.0.2/MSDK/plf/GD32VW55x_standard_peripheral/Source\gd32vw55x_cau_aes.c **** 
 1411              		.loc 1 281 5 is_stmt 1
 1412 0068 97000000 		call	cau_iv_init
 1412      E7800000 
 1413              	.LVL174:
 284:C:/Users/stapi/OneDrive/Desktop/GD32VW553/GD32VW55X_Wifi_BLE_SDK/GD32VW55x_RELEASE_V1.0.2/MSDK/plf/GD32VW55x_standard_peripheral/Source\gd32vw55x_cau_aes.c ****     /* enable the CAU peripheral */
 1414              		.loc 1 284 5
 1415 0070 97000000 		call	cau_fifo_flush
 1415      E7800000 
 1416              	.LVL175:
 286:C:/Users/stapi/OneDrive/Desktop/GD32VW553/GD32VW55X_Wifi_BLE_SDK/GD32VW55x_RELEASE_V1.0.2/MSDK/plf/GD32VW55x_standard_peripheral/Source\gd32vw55x_cau_aes.c ****     /* AES calculate process */
 1417              		.loc 1 286 5
 1418 0078 97000000 		call	cau_enable
 1418      E7800000 
 1419              	.LVL176:
 288:C:/Users/stapi/OneDrive/Desktop/GD32VW553/GD32VW55X_Wifi_BLE_SDK/GD32VW55x_RELEASE_V1.0.2/MSDK/plf/GD32VW55x_standard_peripheral/Source\gd32vw55x_cau_aes.c ****     /* disable the CAU peripheral */
 1420              		.loc 1 288 5
 288:C:/Users/stapi/OneDrive/Desktop/GD32VW553/GD32VW55X_Wifi_BLE_SDK/GD32VW55x_RELEASE_V1.0.2/MSDK/plf/GD32VW55x_standard_peripheral/Source\gd32vw55x_cau_aes.c ****     /* disable the CAU peripheral */
 1421              		.loc 1 288 11 is_stmt 0
 1422 0080 0C4C     		lw	a1,24(s0)
 1423 0082 4848     		lw	a0,20(s0)
 1424 0084 4A86     		mv	a2,s2
 1425 0086 97000000 		call	cau_aes_calculate
 1425      E7800000 
 1426              	.LVL177:
 1427 008e 2AC6     		sw	a0,12(sp)
 1428              	.LVL178:
 290:C:/Users/stapi/OneDrive/Desktop/GD32VW553/GD32VW55X_Wifi_BLE_SDK/GD32VW55x_RELEASE_V1.0.2/MSDK/plf/GD32VW55x_standard_peripheral/Source\gd32vw55x_cau_aes.c **** 
 1429              		.loc 1 290 5 is_stmt 1
 1430 0090 97000000 		call	cau_disable
 1430      E7800000 
 1431              	.LVL179:
 292:C:/Users/stapi/OneDrive/Desktop/GD32VW553/GD32VW55X_Wifi_BLE_SDK/GD32VW55x_RELEASE_V1.0.2/MSDK/plf/GD32VW55x_standard_peripheral/Source\gd32vw55x_cau_aes.c **** }
 1432              		.loc 1 292 5
 293:C:/Users/stapi/OneDrive/Desktop/GD32VW553/GD32VW55X_Wifi_BLE_SDK/GD32VW55x_RELEASE_V1.0.2/MSDK/plf/GD32VW55x_standard_peripheral/Source\gd32vw55x_cau_aes.c **** 
 1433              		.loc 1 293 1 is_stmt 0
 1434 0098 3245     		lw	a0,12(sp)
 1435 009a 2161     		addi	sp,sp,64
 1436              		.cfi_def_cfa_offset 0
 1437              	.LVL180:
 1438 009c 17030000 		tail	__riscv_restore_3
 1438      67000300 
 1439              		.cfi_restore 18
 1440              		.cfi_restore 9
 1441              		.cfi_restore 8
 1442              		.cfi_restore 1
 1443              		.cfi_def_cfa_offset -16
 1444              		.cfi_endproc
 1445              	.LFE368:
 1447              		.section	.text.cau_aes_ofb,"ax",@progbits
 1448              		.align	1
 1449              		.globl	cau_aes_ofb
 1451              	cau_aes_ofb:
 1452              	.LFB369:
 309:C:/Users/stapi/OneDrive/Desktop/GD32VW553/GD32VW55X_Wifi_BLE_SDK/GD32VW55x_RELEASE_V1.0.2/MSDK/plf/GD32VW55x_standard_peripheral/Source\gd32vw55x_cau_aes.c ****     ErrStatus ret = ERROR;
 1453              		.loc 1 309 1 is_stmt 1
 1454              		.cfi_startproc
 1455              	.LVL181:
 1456 0000 17030000 		call	t0,__riscv_save_3
 1456      E7020300 
 1457              		.cfi_offset 18, -16
 1458              		.cfi_offset 9, -12
 1459              		.cfi_offset 8, -8
 1460              		.cfi_offset 1, -4
 1461              		.cfi_def_cfa_offset 16
 310:C:/Users/stapi/OneDrive/Desktop/GD32VW553/GD32VW55X_Wifi_BLE_SDK/GD32VW55x_RELEASE_V1.0.2/MSDK/plf/GD32VW55x_standard_peripheral/Source\gd32vw55x_cau_aes.c ****     cau_key_parameter_struct key_initpara;
 1462              		.loc 1 310 5
 1463              	.LVL182:
 311:C:/Users/stapi/OneDrive/Desktop/GD32VW553/GD32VW55X_Wifi_BLE_SDK/GD32VW55x_RELEASE_V1.0.2/MSDK/plf/GD32VW55x_standard_peripheral/Source\gd32vw55x_cau_aes.c ****     cau_iv_parameter_struct iv_initpara;
 1464              		.loc 1 311 5
 312:C:/Users/stapi/OneDrive/Desktop/GD32VW553/GD32VW55X_Wifi_BLE_SDK/GD32VW55x_RELEASE_V1.0.2/MSDK/plf/GD32VW55x_standard_peripheral/Source\gd32vw55x_cau_aes.c ****     uint32_t ivaddr = (uint32_t)cau_parameter->iv;
 1465              		.loc 1 312 5
 313:C:/Users/stapi/OneDrive/Desktop/GD32VW553/GD32VW55X_Wifi_BLE_SDK/GD32VW55x_RELEASE_V1.0.2/MSDK/plf/GD32VW55x_standard_peripheral/Source\gd32vw55x_cau_aes.c **** 
 1466              		.loc 1 313 5
 309:C:/Users/stapi/OneDrive/Desktop/GD32VW553/GD32VW55X_Wifi_BLE_SDK/GD32VW55x_RELEASE_V1.0.2/MSDK/plf/GD32VW55x_standard_peripheral/Source\gd32vw55x_cau_aes.c ****     ErrStatus ret = ERROR;
 1467              		.loc 1 309 1 is_stmt 0
 1468 0008 3971     		addi	sp,sp,-64
 1469              		.cfi_def_cfa_offset 80
 309:C:/Users/stapi/OneDrive/Desktop/GD32VW553/GD32VW55X_Wifi_BLE_SDK/GD32VW55x_RELEASE_V1.0.2/MSDK/plf/GD32VW55x_standard_peripheral/Source\gd32vw55x_cau_aes.c ****     ErrStatus ret = ERROR;
 1470              		.loc 1 309 1
 1471 000a 2A84     		mv	s0,a0
 313:C:/Users/stapi/OneDrive/Desktop/GD32VW553/GD32VW55X_Wifi_BLE_SDK/GD32VW55x_RELEASE_V1.0.2/MSDK/plf/GD32VW55x_standard_peripheral/Source\gd32vw55x_cau_aes.c **** 
 1472              		.loc 1 313 46
 1473 000c 4445     		lw	s1,12(a0)
 1474              	.LVL183:
 316:C:/Users/stapi/OneDrive/Desktop/GD32VW553/GD32VW55X_Wifi_BLE_SDK/GD32VW55x_RELEASE_V1.0.2/MSDK/plf/GD32VW55x_standard_peripheral/Source\gd32vw55x_cau_aes.c ****     /* initialize the CAU peripheral */
 1475              		.loc 1 316 5 is_stmt 1
 1476 000e 0810     		addi	a0,sp,32
 1477              	.LVL184:
 309:C:/Users/stapi/OneDrive/Desktop/GD32VW553/GD32VW55X_Wifi_BLE_SDK/GD32VW55x_RELEASE_V1.0.2/MSDK/plf/GD32VW55x_standard_peripheral/Source\gd32vw55x_cau_aes.c ****     ErrStatus ret = ERROR;
 1478              		.loc 1 309 1 is_stmt 0
 1479 0010 2E89     		mv	s2,a1
 316:C:/Users/stapi/OneDrive/Desktop/GD32VW553/GD32VW55X_Wifi_BLE_SDK/GD32VW55x_RELEASE_V1.0.2/MSDK/plf/GD32VW55x_standard_peripheral/Source\gd32vw55x_cau_aes.c ****     /* initialize the CAU peripheral */
 1480              		.loc 1 316 5
 1481 0012 97000000 		call	cau_key_struct_para_init
 1481      E7800000 
 1482              	.LVL185:
 318:C:/Users/stapi/OneDrive/Desktop/GD32VW553/GD32VW55X_Wifi_BLE_SDK/GD32VW55x_RELEASE_V1.0.2/MSDK/plf/GD32VW55x_standard_peripheral/Source\gd32vw55x_cau_aes.c **** 
 1483              		.loc 1 318 5 is_stmt 1
 1484 001a 0840     		lw	a0,0(s0)
 1485 001c B7050800 		li	a1,524288
 1486 0020 13060008 		li	a2,128
 1487 0024 E105     		addi	a1,a1,24
 1488 0026 97000000 		call	cau_init
 1488      E7800000 
 1489              	.LVL186:
 321:C:/Users/stapi/OneDrive/Desktop/GD32VW553/GD32VW55X_Wifi_BLE_SDK/GD32VW55x_RELEASE_V1.0.2/MSDK/plf/GD32VW55x_standard_peripheral/Source\gd32vw55x_cau_aes.c ****     /* key initialization */
 1490              		.loc 1 321 5
 1491 002e 0C44     		lw	a1,8(s0)
 1492 0030 4840     		lw	a0,4(s0)
 1493 0032 1010     		addi	a2,sp,32
 1494 0034 97000000 		call	cau_aes_key_config
 1494      E7800000 
 1495              	.LVL187:
 323:C:/Users/stapi/OneDrive/Desktop/GD32VW553/GD32VW55X_Wifi_BLE_SDK/GD32VW55x_RELEASE_V1.0.2/MSDK/plf/GD32VW55x_standard_peripheral/Source\gd32vw55x_cau_aes.c **** 
 1496              		.loc 1 323 5
 1497 003c 0810     		addi	a0,sp,32
 1498 003e 97000000 		call	cau_key_init
 1498      E7800000 
 1499              	.LVL188:
 326:C:/Users/stapi/OneDrive/Desktop/GD32VW553/GD32VW55X_Wifi_BLE_SDK/GD32VW55x_RELEASE_V1.0.2/MSDK/plf/GD32VW55x_standard_peripheral/Source\gd32vw55x_cau_aes.c ****     ivaddr += 4U;
 1500              		.loc 1 326 5
 1501 0046 9C40     		lw	a5,0(s1)
 333:C:/Users/stapi/OneDrive/Desktop/GD32VW553/GD32VW55X_Wifi_BLE_SDK/GD32VW55x_RELEASE_V1.0.2/MSDK/plf/GD32VW55x_standard_peripheral/Source\gd32vw55x_cau_aes.c **** 
 1502              		.loc 1 333 5 is_stmt 0
 1503 0048 0808     		addi	a0,sp,16
 1504 004a 93D78769 		rev8	a5,a5
 1505              	.LVL189:
 1506              	.LBB156:
 1507              	.LBB157:
 122:..\..\..\..\plf\riscv\NMSIS\Core\Include/core_compatiable.h **** 
 1508              		.loc 2 122 5 is_stmt 1
 124:..\..\..\..\plf\riscv\NMSIS\Core\Include/core_compatiable.h ****         | ((value & 0x00ff0000) >> 8 )
 1509              		.loc 2 124 5
 1510              		.loc 2 128 5
 1511              	.LBE157:
 1512              	.LBE156:
 326:C:/Users/stapi/OneDrive/Desktop/GD32VW553/GD32VW55X_Wifi_BLE_SDK/GD32VW55x_RELEASE_V1.0.2/MSDK/plf/GD32VW55x_standard_peripheral/Source\gd32vw55x_cau_aes.c ****     ivaddr += 4U;
 1513              		.loc 1 326 27 is_stmt 0
 1514 004e 3EC8     		sw	a5,16(sp)
 327:C:/Users/stapi/OneDrive/Desktop/GD32VW553/GD32VW55X_Wifi_BLE_SDK/GD32VW55x_RELEASE_V1.0.2/MSDK/plf/GD32VW55x_standard_peripheral/Source\gd32vw55x_cau_aes.c ****     iv_initpara.iv_0_low = __REV(*(uint32_t *)(ivaddr));
 1515              		.loc 1 327 5 is_stmt 1
 1516              	.LVL190:
 328:C:/Users/stapi/OneDrive/Desktop/GD32VW553/GD32VW55X_Wifi_BLE_SDK/GD32VW55x_RELEASE_V1.0.2/MSDK/plf/GD32VW55x_standard_peripheral/Source\gd32vw55x_cau_aes.c ****     ivaddr += 4U;
 1517              		.loc 1 328 5
 1518 0050 DC40     		lw	a5,4(s1)
 1519 0052 93D78769 		rev8	a5,a5
 1520              	.LVL191:
 1521              	.LBB158:
 1522              	.LBB159:
 122:..\..\..\..\plf\riscv\NMSIS\Core\Include/core_compatiable.h **** 
 1523              		.loc 2 122 5
 124:..\..\..\..\plf\riscv\NMSIS\Core\Include/core_compatiable.h ****         | ((value & 0x00ff0000) >> 8 )
 1524              		.loc 2 124 5
 1525              		.loc 2 128 5
 1526              	.LBE159:
 1527              	.LBE158:
 328:C:/Users/stapi/OneDrive/Desktop/GD32VW553/GD32VW55X_Wifi_BLE_SDK/GD32VW55x_RELEASE_V1.0.2/MSDK/plf/GD32VW55x_standard_peripheral/Source\gd32vw55x_cau_aes.c ****     ivaddr += 4U;
 1528              		.loc 1 328 26 is_stmt 0
 1529 0056 3ECA     		sw	a5,20(sp)
 329:C:/Users/stapi/OneDrive/Desktop/GD32VW553/GD32VW55X_Wifi_BLE_SDK/GD32VW55x_RELEASE_V1.0.2/MSDK/plf/GD32VW55x_standard_peripheral/Source\gd32vw55x_cau_aes.c ****     iv_initpara.iv_1_high = __REV(*(uint32_t *)(ivaddr));
 1530              		.loc 1 329 5 is_stmt 1
 1531              	.LVL192:
 330:C:/Users/stapi/OneDrive/Desktop/GD32VW553/GD32VW55X_Wifi_BLE_SDK/GD32VW55x_RELEASE_V1.0.2/MSDK/plf/GD32VW55x_standard_peripheral/Source\gd32vw55x_cau_aes.c ****     ivaddr += 4U;
 1532              		.loc 1 330 5
 1533 0058 9C44     		lw	a5,8(s1)
 1534 005a 93D78769 		rev8	a5,a5
 1535              	.LVL193:
 1536              	.LBB160:
 1537              	.LBB161:
 122:..\..\..\..\plf\riscv\NMSIS\Core\Include/core_compatiable.h **** 
 1538              		.loc 2 122 5
 124:..\..\..\..\plf\riscv\NMSIS\Core\Include/core_compatiable.h ****         | ((value & 0x00ff0000) >> 8 )
 1539              		.loc 2 124 5
 1540              		.loc 2 128 5
 1541              	.LBE161:
 1542              	.LBE160:
 330:C:/Users/stapi/OneDrive/Desktop/GD32VW553/GD32VW55X_Wifi_BLE_SDK/GD32VW55x_RELEASE_V1.0.2/MSDK/plf/GD32VW55x_standard_peripheral/Source\gd32vw55x_cau_aes.c ****     ivaddr += 4U;
 1543              		.loc 1 330 27 is_stmt 0
 1544 005e 3ECC     		sw	a5,24(sp)
 331:C:/Users/stapi/OneDrive/Desktop/GD32VW553/GD32VW55X_Wifi_BLE_SDK/GD32VW55x_RELEASE_V1.0.2/MSDK/plf/GD32VW55x_standard_peripheral/Source\gd32vw55x_cau_aes.c ****     iv_initpara.iv_1_low = __REV(*(uint32_t *)(ivaddr));
 1545              		.loc 1 331 5 is_stmt 1
 1546              	.LVL194:
 332:C:/Users/stapi/OneDrive/Desktop/GD32VW553/GD32VW55X_Wifi_BLE_SDK/GD32VW55x_RELEASE_V1.0.2/MSDK/plf/GD32VW55x_standard_peripheral/Source\gd32vw55x_cau_aes.c ****     cau_iv_init(&iv_initpara);
 1547              		.loc 1 332 5
 1548 0060 DC44     		lw	a5,12(s1)
 1549 0062 93D78769 		rev8	a5,a5
 1550              	.LVL195:
 1551              	.LBB162:
 1552              	.LBB163:
 122:..\..\..\..\plf\riscv\NMSIS\Core\Include/core_compatiable.h **** 
 1553              		.loc 2 122 5
 124:..\..\..\..\plf\riscv\NMSIS\Core\Include/core_compatiable.h ****         | ((value & 0x00ff0000) >> 8 )
 1554              		.loc 2 124 5
 1555              		.loc 2 128 5
 1556              	.LBE163:
 1557              	.LBE162:
 332:C:/Users/stapi/OneDrive/Desktop/GD32VW553/GD32VW55X_Wifi_BLE_SDK/GD32VW55x_RELEASE_V1.0.2/MSDK/plf/GD32VW55x_standard_peripheral/Source\gd32vw55x_cau_aes.c ****     cau_iv_init(&iv_initpara);
 1558              		.loc 1 332 26 is_stmt 0
 1559 0066 3ECE     		sw	a5,28(sp)
 333:C:/Users/stapi/OneDrive/Desktop/GD32VW553/GD32VW55X_Wifi_BLE_SDK/GD32VW55x_RELEASE_V1.0.2/MSDK/plf/GD32VW55x_standard_peripheral/Source\gd32vw55x_cau_aes.c **** 
 1560              		.loc 1 333 5 is_stmt 1
 1561 0068 97000000 		call	cau_iv_init
 1561      E7800000 
 1562              	.LVL196:
 336:C:/Users/stapi/OneDrive/Desktop/GD32VW553/GD32VW55X_Wifi_BLE_SDK/GD32VW55x_RELEASE_V1.0.2/MSDK/plf/GD32VW55x_standard_peripheral/Source\gd32vw55x_cau_aes.c ****     /* enable the CAU peripheral */
 1563              		.loc 1 336 5
 1564 0070 97000000 		call	cau_fifo_flush
 1564      E7800000 
 1565              	.LVL197:
 338:C:/Users/stapi/OneDrive/Desktop/GD32VW553/GD32VW55X_Wifi_BLE_SDK/GD32VW55x_RELEASE_V1.0.2/MSDK/plf/GD32VW55x_standard_peripheral/Source\gd32vw55x_cau_aes.c ****     /* AES calculate process */
 1566              		.loc 1 338 5
 1567 0078 97000000 		call	cau_enable
 1567      E7800000 
 1568              	.LVL198:
 340:C:/Users/stapi/OneDrive/Desktop/GD32VW553/GD32VW55X_Wifi_BLE_SDK/GD32VW55x_RELEASE_V1.0.2/MSDK/plf/GD32VW55x_standard_peripheral/Source\gd32vw55x_cau_aes.c ****     /* disable the CAU peripheral */
 1569              		.loc 1 340 5
 340:C:/Users/stapi/OneDrive/Desktop/GD32VW553/GD32VW55X_Wifi_BLE_SDK/GD32VW55x_RELEASE_V1.0.2/MSDK/plf/GD32VW55x_standard_peripheral/Source\gd32vw55x_cau_aes.c ****     /* disable the CAU peripheral */
 1570              		.loc 1 340 11 is_stmt 0
 1571 0080 0C4C     		lw	a1,24(s0)
 1572 0082 4848     		lw	a0,20(s0)
 1573 0084 4A86     		mv	a2,s2
 1574 0086 97000000 		call	cau_aes_calculate
 1574      E7800000 
 1575              	.LVL199:
 1576 008e 2AC6     		sw	a0,12(sp)
 1577              	.LVL200:
 342:C:/Users/stapi/OneDrive/Desktop/GD32VW553/GD32VW55X_Wifi_BLE_SDK/GD32VW55x_RELEASE_V1.0.2/MSDK/plf/GD32VW55x_standard_peripheral/Source\gd32vw55x_cau_aes.c **** 
 1578              		.loc 1 342 5 is_stmt 1
 1579 0090 97000000 		call	cau_disable
 1579      E7800000 
 1580              	.LVL201:
 344:C:/Users/stapi/OneDrive/Desktop/GD32VW553/GD32VW55X_Wifi_BLE_SDK/GD32VW55x_RELEASE_V1.0.2/MSDK/plf/GD32VW55x_standard_peripheral/Source\gd32vw55x_cau_aes.c **** }
 1581              		.loc 1 344 5
 345:C:/Users/stapi/OneDrive/Desktop/GD32VW553/GD32VW55X_Wifi_BLE_SDK/GD32VW55x_RELEASE_V1.0.2/MSDK/plf/GD32VW55x_standard_peripheral/Source\gd32vw55x_cau_aes.c **** 
 1582              		.loc 1 345 1 is_stmt 0
 1583 0098 3245     		lw	a0,12(sp)
 1584 009a 2161     		addi	sp,sp,64
 1585              		.cfi_def_cfa_offset 0
 1586              	.LVL202:
 1587 009c 17030000 		tail	__riscv_restore_3
 1587      67000300 
 1588              		.cfi_restore 18
 1589              		.cfi_restore 9
 1590              		.cfi_restore 8
 1591              		.cfi_restore 1
 1592              		.cfi_def_cfa_offset -16
 1593              		.cfi_endproc
 1594              	.LFE369:
 1596              		.section	.text.cau_aes_gcm,"ax",@progbits
 1597              		.align	1
 1598              		.globl	cau_aes_gcm
 1600              	cau_aes_gcm:
 1601              	.LFB370:
 364:C:/Users/stapi/OneDrive/Desktop/GD32VW553/GD32VW55X_Wifi_BLE_SDK/GD32VW55x_RELEASE_V1.0.2/MSDK/plf/GD32VW55x_standard_peripheral/Source\gd32vw55x_cau_aes.c ****     ErrStatus ret = SUCCESS;
 1602              		.loc 1 364 1 is_stmt 1
 1603              		.cfi_startproc
 1604              	.LVL203:
 1605 0000 17030000 		call	t0,__riscv_save_6
 1605      E7020300 
 1606              		.cfi_offset 21, -28
 1607              		.cfi_offset 20, -24
 1608              		.cfi_offset 19, -20
 1609              		.cfi_offset 18, -16
 1610              		.cfi_offset 9, -12
 1611              		.cfi_offset 8, -8
 1612              		.cfi_offset 1, -4
 1613              		.cfi_def_cfa_offset 32
 365:C:/Users/stapi/OneDrive/Desktop/GD32VW553/GD32VW55X_Wifi_BLE_SDK/GD32VW55x_RELEASE_V1.0.2/MSDK/plf/GD32VW55x_standard_peripheral/Source\gd32vw55x_cau_aes.c ****     cau_key_parameter_struct key_initpara;
 1614              		.loc 1 365 5
 1615              	.LVL204:
 366:C:/Users/stapi/OneDrive/Desktop/GD32VW553/GD32VW55X_Wifi_BLE_SDK/GD32VW55x_RELEASE_V1.0.2/MSDK/plf/GD32VW55x_standard_peripheral/Source\gd32vw55x_cau_aes.c ****     cau_iv_parameter_struct iv_initpara;
 1616              		.loc 1 366 5
 367:C:/Users/stapi/OneDrive/Desktop/GD32VW553/GD32VW55X_Wifi_BLE_SDK/GD32VW55x_RELEASE_V1.0.2/MSDK/plf/GD32VW55x_standard_peripheral/Source\gd32vw55x_cau_aes.c ****     uint64_t aadlength = (uint64_t)cau_parameter->aad_size * 8U;
 1617              		.loc 1 367 5
 368:C:/Users/stapi/OneDrive/Desktop/GD32VW553/GD32VW55X_Wifi_BLE_SDK/GD32VW55x_RELEASE_V1.0.2/MSDK/plf/GD32VW55x_standard_peripheral/Source\gd32vw55x_cau_aes.c ****     uint64_t inputlength = (uint64_t)cau_parameter->in_length * 8U;
 1618              		.loc 1 368 5
 364:C:/Users/stapi/OneDrive/Desktop/GD32VW553/GD32VW55X_Wifi_BLE_SDK/GD32VW55x_RELEASE_V1.0.2/MSDK/plf/GD32VW55x_standard_peripheral/Source\gd32vw55x_cau_aes.c ****     ErrStatus ret = SUCCESS;
 1619              		.loc 1 364 1 is_stmt 0
 1620 0008 7971     		addi	sp,sp,-48
 1621              		.cfi_def_cfa_offset 80
 370:C:/Users/stapi/OneDrive/Desktop/GD32VW553/GD32VW55X_Wifi_BLE_SDK/GD32VW55x_RELEASE_V1.0.2/MSDK/plf/GD32VW55x_standard_peripheral/Source\gd32vw55x_cau_aes.c ****     uint32_t tagaddr = (uint32_t)tag;
 1622              		.loc 1 370 46
 1623 000a 4445     		lw	s1,12(a0)
 364:C:/Users/stapi/OneDrive/Desktop/GD32VW553/GD32VW55X_Wifi_BLE_SDK/GD32VW55x_RELEASE_V1.0.2/MSDK/plf/GD32VW55x_standard_peripheral/Source\gd32vw55x_cau_aes.c ****     ErrStatus ret = SUCCESS;
 1624              		.loc 1 364 1
 1625 000c 2A84     		mv	s0,a0
 368:C:/Users/stapi/OneDrive/Desktop/GD32VW553/GD32VW55X_Wifi_BLE_SDK/GD32VW55x_RELEASE_V1.0.2/MSDK/plf/GD32VW55x_standard_peripheral/Source\gd32vw55x_cau_aes.c ****     uint64_t inputlength = (uint64_t)cau_parameter->in_length * 8U;
 1626              		.loc 1 368 49
 1627 000e 032A0502 		lw	s4,32(a0)
 1628              	.LVL205:
 369:C:/Users/stapi/OneDrive/Desktop/GD32VW553/GD32VW55X_Wifi_BLE_SDK/GD32VW55x_RELEASE_V1.0.2/MSDK/plf/GD32VW55x_standard_peripheral/Source\gd32vw55x_cau_aes.c ****     uint32_t ivaddr = (uint32_t)cau_parameter->iv;
 1629              		.loc 1 369 5 is_stmt 1
 369:C:/Users/stapi/OneDrive/Desktop/GD32VW553/GD32VW55X_Wifi_BLE_SDK/GD32VW55x_RELEASE_V1.0.2/MSDK/plf/GD32VW55x_standard_peripheral/Source\gd32vw55x_cau_aes.c ****     uint32_t ivaddr = (uint32_t)cau_parameter->iv;
 1630              		.loc 1 369 51 is_stmt 0
 1631 0012 83298501 		lw	s3,24(a0)
 1632              	.LVL206:
 370:C:/Users/stapi/OneDrive/Desktop/GD32VW553/GD32VW55X_Wifi_BLE_SDK/GD32VW55x_RELEASE_V1.0.2/MSDK/plf/GD32VW55x_standard_peripheral/Source\gd32vw55x_cau_aes.c ****     uint32_t tagaddr = (uint32_t)tag;
 1633              		.loc 1 370 5 is_stmt 1
 371:C:/Users/stapi/OneDrive/Desktop/GD32VW553/GD32VW55X_Wifi_BLE_SDK/GD32VW55x_RELEASE_V1.0.2/MSDK/plf/GD32VW55x_standard_peripheral/Source\gd32vw55x_cau_aes.c **** 
 1634              		.loc 1 371 5
 374:C:/Users/stapi/OneDrive/Desktop/GD32VW553/GD32VW55X_Wifi_BLE_SDK/GD32VW55x_RELEASE_V1.0.2/MSDK/plf/GD32VW55x_standard_peripheral/Source\gd32vw55x_cau_aes.c ****     /* initialize the CAU peripheral */
 1635              		.loc 1 374 5 is_stmt 0
 1636 0016 0808     		addi	a0,sp,16
 1637              	.LVL207:
 364:C:/Users/stapi/OneDrive/Desktop/GD32VW553/GD32VW55X_Wifi_BLE_SDK/GD32VW55x_RELEASE_V1.0.2/MSDK/plf/GD32VW55x_standard_peripheral/Source\gd32vw55x_cau_aes.c ****     ErrStatus ret = SUCCESS;
 1638              		.loc 1 364 1
 1639 0018 AE8A     		mv	s5,a1
 1640 001a 3289     		mv	s2,a2
 1641              	.LVL208:
 374:C:/Users/stapi/OneDrive/Desktop/GD32VW553/GD32VW55X_Wifi_BLE_SDK/GD32VW55x_RELEASE_V1.0.2/MSDK/plf/GD32VW55x_standard_peripheral/Source\gd32vw55x_cau_aes.c ****     /* initialize the CAU peripheral */
 1642              		.loc 1 374 5 is_stmt 1
 1643 001c 97000000 		call	cau_key_struct_para_init
 1643      E7800000 
 1644              	.LVL209:
 376:C:/Users/stapi/OneDrive/Desktop/GD32VW553/GD32VW55X_Wifi_BLE_SDK/GD32VW55x_RELEASE_V1.0.2/MSDK/plf/GD32VW55x_standard_peripheral/Source\gd32vw55x_cau_aes.c **** 
 1645              		.loc 1 376 5
 1646 0024 0840     		lw	a0,0(s0)
 1647 0026 13060008 		li	a2,128
 1648 002a B7050800 		li	a1,524288
 1649 002e 97000000 		call	cau_init
 1649      E7800000 
 1650              	.LVL210:
 379:C:/Users/stapi/OneDrive/Desktop/GD32VW553/GD32VW55X_Wifi_BLE_SDK/GD32VW55x_RELEASE_V1.0.2/MSDK/plf/GD32VW55x_standard_peripheral/Source\gd32vw55x_cau_aes.c ****     /* key initialization */
 1651              		.loc 1 379 5
 1652 0036 0C44     		lw	a1,8(s0)
 1653 0038 4840     		lw	a0,4(s0)
 1654 003a 1008     		addi	a2,sp,16
 1655 003c 97000000 		call	cau_aes_key_config
 1655      E7800000 
 1656              	.LVL211:
 381:C:/Users/stapi/OneDrive/Desktop/GD32VW553/GD32VW55X_Wifi_BLE_SDK/GD32VW55x_RELEASE_V1.0.2/MSDK/plf/GD32VW55x_standard_peripheral/Source\gd32vw55x_cau_aes.c **** 
 1657              		.loc 1 381 5
 1658 0044 0808     		addi	a0,sp,16
 1659 0046 97000000 		call	cau_key_init
 1659      E7800000 
 1660              	.LVL212:
 384:C:/Users/stapi/OneDrive/Desktop/GD32VW553/GD32VW55X_Wifi_BLE_SDK/GD32VW55x_RELEASE_V1.0.2/MSDK/plf/GD32VW55x_standard_peripheral/Source\gd32vw55x_cau_aes.c ****     ivaddr += 4U;
 1661              		.loc 1 384 5
 1662 004e 9C40     		lw	a5,0(s1)
 391:C:/Users/stapi/OneDrive/Desktop/GD32VW553/GD32VW55X_Wifi_BLE_SDK/GD32VW55x_RELEASE_V1.0.2/MSDK/plf/GD32VW55x_standard_peripheral/Source\gd32vw55x_cau_aes.c **** 
 1663              		.loc 1 391 5 is_stmt 0
 1664 0050 0A85     		mv	a0,sp
 1665 0052 93D78769 		rev8	a5,a5
 1666              	.LVL213:
 1667              	.LBB164:
 1668              	.LBB165:
 122:..\..\..\..\plf\riscv\NMSIS\Core\Include/core_compatiable.h **** 
 1669              		.loc 2 122 5 is_stmt 1
 124:..\..\..\..\plf\riscv\NMSIS\Core\Include/core_compatiable.h ****         | ((value & 0x00ff0000) >> 8 )
 1670              		.loc 2 124 5
 1671              		.loc 2 128 5
 1672              	.LBE165:
 1673              	.LBE164:
 384:C:/Users/stapi/OneDrive/Desktop/GD32VW553/GD32VW55X_Wifi_BLE_SDK/GD32VW55x_RELEASE_V1.0.2/MSDK/plf/GD32VW55x_standard_peripheral/Source\gd32vw55x_cau_aes.c ****     ivaddr += 4U;
 1674              		.loc 1 384 27 is_stmt 0
 1675 0056 3EC0     		sw	a5,0(sp)
 385:C:/Users/stapi/OneDrive/Desktop/GD32VW553/GD32VW55X_Wifi_BLE_SDK/GD32VW55x_RELEASE_V1.0.2/MSDK/plf/GD32VW55x_standard_peripheral/Source\gd32vw55x_cau_aes.c ****     iv_initpara.iv_0_low = __REV(*(uint32_t *)(ivaddr));
 1676              		.loc 1 385 5 is_stmt 1
 1677              	.LVL214:
 386:C:/Users/stapi/OneDrive/Desktop/GD32VW553/GD32VW55X_Wifi_BLE_SDK/GD32VW55x_RELEASE_V1.0.2/MSDK/plf/GD32VW55x_standard_peripheral/Source\gd32vw55x_cau_aes.c ****     ivaddr += 4U;
 1678              		.loc 1 386 5
 1679 0058 DC40     		lw	a5,4(s1)
 1680 005a 93D78769 		rev8	a5,a5
 1681              	.LVL215:
 1682              	.LBB166:
 1683              	.LBB167:
 122:..\..\..\..\plf\riscv\NMSIS\Core\Include/core_compatiable.h **** 
 1684              		.loc 2 122 5
 124:..\..\..\..\plf\riscv\NMSIS\Core\Include/core_compatiable.h ****         | ((value & 0x00ff0000) >> 8 )
 1685              		.loc 2 124 5
 1686              		.loc 2 128 5
 1687              	.LBE167:
 1688              	.LBE166:
 386:C:/Users/stapi/OneDrive/Desktop/GD32VW553/GD32VW55X_Wifi_BLE_SDK/GD32VW55x_RELEASE_V1.0.2/MSDK/plf/GD32VW55x_standard_peripheral/Source\gd32vw55x_cau_aes.c ****     ivaddr += 4U;
 1689              		.loc 1 386 26 is_stmt 0
 1690 005e 3EC2     		sw	a5,4(sp)
 387:C:/Users/stapi/OneDrive/Desktop/GD32VW553/GD32VW55X_Wifi_BLE_SDK/GD32VW55x_RELEASE_V1.0.2/MSDK/plf/GD32VW55x_standard_peripheral/Source\gd32vw55x_cau_aes.c ****     iv_initpara.iv_1_high = __REV(*(uint32_t *)(ivaddr));
 1691              		.loc 1 387 5 is_stmt 1
 1692              	.LVL216:
 388:C:/Users/stapi/OneDrive/Desktop/GD32VW553/GD32VW55X_Wifi_BLE_SDK/GD32VW55x_RELEASE_V1.0.2/MSDK/plf/GD32VW55x_standard_peripheral/Source\gd32vw55x_cau_aes.c ****     ivaddr += 4U;
 1693              		.loc 1 388 5
 1694 0060 9C44     		lw	a5,8(s1)
 1695 0062 93D78769 		rev8	a5,a5
 1696              	.LVL217:
 1697              	.LBB168:
 1698              	.LBB169:
 122:..\..\..\..\plf\riscv\NMSIS\Core\Include/core_compatiable.h **** 
 1699              		.loc 2 122 5
 124:..\..\..\..\plf\riscv\NMSIS\Core\Include/core_compatiable.h ****         | ((value & 0x00ff0000) >> 8 )
 1700              		.loc 2 124 5
 1701              		.loc 2 128 5
 1702              	.LBE169:
 1703              	.LBE168:
 388:C:/Users/stapi/OneDrive/Desktop/GD32VW553/GD32VW55X_Wifi_BLE_SDK/GD32VW55x_RELEASE_V1.0.2/MSDK/plf/GD32VW55x_standard_peripheral/Source\gd32vw55x_cau_aes.c ****     ivaddr += 4U;
 1704              		.loc 1 388 27 is_stmt 0
 1705 0066 3EC4     		sw	a5,8(sp)
 389:C:/Users/stapi/OneDrive/Desktop/GD32VW553/GD32VW55X_Wifi_BLE_SDK/GD32VW55x_RELEASE_V1.0.2/MSDK/plf/GD32VW55x_standard_peripheral/Source\gd32vw55x_cau_aes.c ****     iv_initpara.iv_1_low = __REV(*(uint32_t *)(ivaddr));
 1706              		.loc 1 389 5 is_stmt 1
 1707              	.LVL218:
 390:C:/Users/stapi/OneDrive/Desktop/GD32VW553/GD32VW55X_Wifi_BLE_SDK/GD32VW55x_RELEASE_V1.0.2/MSDK/plf/GD32VW55x_standard_peripheral/Source\gd32vw55x_cau_aes.c ****     cau_iv_init(&iv_initpara);
 1708              		.loc 1 390 5
 1709 0068 DC44     		lw	a5,12(s1)
 399:C:/Users/stapi/OneDrive/Desktop/GD32VW553/GD32VW55X_Wifi_BLE_SDK/GD32VW55x_RELEASE_V1.0.2/MSDK/plf/GD32VW55x_standard_peripheral/Source\gd32vw55x_cau_aes.c ****     }
 1710              		.loc 1 399 10 is_stmt 0
 1711 006a 8544     		li	s1,1
 1712              	.LVL219:
 1713 006c 93D78769 		rev8	a5,a5
 1714              	.LVL220:
 1715              	.LBB170:
 1716              	.LBB171:
 122:..\..\..\..\plf\riscv\NMSIS\Core\Include/core_compatiable.h **** 
 1717              		.loc 2 122 5 is_stmt 1
 124:..\..\..\..\plf\riscv\NMSIS\Core\Include/core_compatiable.h ****         | ((value & 0x00ff0000) >> 8 )
 1718              		.loc 2 124 5
 1719              		.loc 2 128 5
 1720              	.LBE171:
 1721              	.LBE170:
 390:C:/Users/stapi/OneDrive/Desktop/GD32VW553/GD32VW55X_Wifi_BLE_SDK/GD32VW55x_RELEASE_V1.0.2/MSDK/plf/GD32VW55x_standard_peripheral/Source\gd32vw55x_cau_aes.c ****     cau_iv_init(&iv_initpara);
 1722              		.loc 1 390 26 is_stmt 0
 1723 0070 3EC6     		sw	a5,12(sp)
 391:C:/Users/stapi/OneDrive/Desktop/GD32VW553/GD32VW55X_Wifi_BLE_SDK/GD32VW55x_RELEASE_V1.0.2/MSDK/plf/GD32VW55x_standard_peripheral/Source\gd32vw55x_cau_aes.c **** 
 1724              		.loc 1 391 5 is_stmt 1
 1725 0072 97000000 		call	cau_iv_init
 1725      E7800000 
 1726              	.LVL221:
 395:C:/Users/stapi/OneDrive/Desktop/GD32VW553/GD32VW55X_Wifi_BLE_SDK/GD32VW55x_RELEASE_V1.0.2/MSDK/plf/GD32VW55x_standard_peripheral/Source\gd32vw55x_cau_aes.c ****     /* enable the CAU peripheral */
 1727              		.loc 1 395 5
 1728 007a 0145     		li	a0,0
 1729 007c 97000000 		call	cau_phase_config
 1729      E7800000 
 1730              	.LVL222:
 397:C:/Users/stapi/OneDrive/Desktop/GD32VW553/GD32VW55X_Wifi_BLE_SDK/GD32VW55x_RELEASE_V1.0.2/MSDK/plf/GD32VW55x_standard_peripheral/Source\gd32vw55x_cau_aes.c ****     /* wait for CAUEN bit to be 0 */
 1731              		.loc 1 397 5
 1732 0084 97000000 		call	cau_enable
 1732      E7800000 
 1733              	.LVL223:
 399:C:/Users/stapi/OneDrive/Desktop/GD32VW553/GD32VW55X_Wifi_BLE_SDK/GD32VW55x_RELEASE_V1.0.2/MSDK/plf/GD32VW55x_standard_peripheral/Source\gd32vw55x_cau_aes.c ****     }
 1734              		.loc 1 399 5
 1735              	.L74:
 400:C:/Users/stapi/OneDrive/Desktop/GD32VW553/GD32VW55X_Wifi_BLE_SDK/GD32VW55x_RELEASE_V1.0.2/MSDK/plf/GD32VW55x_standard_peripheral/Source\gd32vw55x_cau_aes.c **** 
 1736              		.loc 1 400 5 discriminator 1
 399:C:/Users/stapi/OneDrive/Desktop/GD32VW553/GD32VW55X_Wifi_BLE_SDK/GD32VW55x_RELEASE_V1.0.2/MSDK/plf/GD32VW55x_standard_peripheral/Source\gd32vw55x_cau_aes.c ****     }
 1737              		.loc 1 399 10 discriminator 1
 399:C:/Users/stapi/OneDrive/Desktop/GD32VW553/GD32VW55X_Wifi_BLE_SDK/GD32VW55x_RELEASE_V1.0.2/MSDK/plf/GD32VW55x_standard_peripheral/Source\gd32vw55x_cau_aes.c ****     }
 1738              		.loc 1 399 21 is_stmt 0 discriminator 1
 1739 008c 97000000 		call	cau_enable_state_get
 1739      E7800000 
 1740              	.LVL224:
 399:C:/Users/stapi/OneDrive/Desktop/GD32VW553/GD32VW55X_Wifi_BLE_SDK/GD32VW55x_RELEASE_V1.0.2/MSDK/plf/GD32VW55x_standard_peripheral/Source\gd32vw55x_cau_aes.c ****     }
 1741              		.loc 1 399 10 discriminator 1
 1742 0094 E30C95FE 		beq	a0,s1,.L74
 403:C:/Users/stapi/OneDrive/Desktop/GD32VW553/GD32VW55X_Wifi_BLE_SDK/GD32VW55x_RELEASE_V1.0.2/MSDK/plf/GD32VW55x_standard_peripheral/Source\gd32vw55x_cau_aes.c ****         /* select aad phase */
 1743              		.loc 1 403 5 is_stmt 1
 403:C:/Users/stapi/OneDrive/Desktop/GD32VW553/GD32VW55X_Wifi_BLE_SDK/GD32VW55x_RELEASE_V1.0.2/MSDK/plf/GD32VW55x_standard_peripheral/Source\gd32vw55x_cau_aes.c ****         /* select aad phase */
 1744              		.loc 1 403 7 is_stmt 0
 1745 0098 1C50     		lw	a5,32(s0)
 365:C:/Users/stapi/OneDrive/Desktop/GD32VW553/GD32VW55X_Wifi_BLE_SDK/GD32VW55x_RELEASE_V1.0.2/MSDK/plf/GD32VW55x_standard_peripheral/Source\gd32vw55x_cau_aes.c ****     cau_key_parameter_struct key_initpara;
 1746              		.loc 1 365 15
 1747 009a 8544     		li	s1,1
 403:C:/Users/stapi/OneDrive/Desktop/GD32VW553/GD32VW55X_Wifi_BLE_SDK/GD32VW55x_RELEASE_V1.0.2/MSDK/plf/GD32VW55x_standard_peripheral/Source\gd32vw55x_cau_aes.c ****         /* select aad phase */
 1748              		.loc 1 403 7
 1749 009c 8DCF     		beq	a5,zero,.L75
 405:C:/Users/stapi/OneDrive/Desktop/GD32VW553/GD32VW55X_Wifi_BLE_SDK/GD32VW55x_RELEASE_V1.0.2/MSDK/plf/GD32VW55x_standard_peripheral/Source\gd32vw55x_cau_aes.c ****         /* flush the IN and OUT FIFOs */
 1750              		.loc 1 405 9 is_stmt 1
 1751 009e 4165     		li	a0,65536
 1752 00a0 97000000 		call	cau_phase_config
 1752      E7800000 
 1753              	.LVL225:
 407:C:/Users/stapi/OneDrive/Desktop/GD32VW553/GD32VW55X_Wifi_BLE_SDK/GD32VW55x_RELEASE_V1.0.2/MSDK/plf/GD32VW55x_standard_peripheral/Source\gd32vw55x_cau_aes.c ****         /* enable the CAU peripheral */
 1754              		.loc 1 407 9
 1755 00a8 97000000 		call	cau_fifo_flush
 1755      E7800000 
 1756              	.LVL226:
 409:C:/Users/stapi/OneDrive/Desktop/GD32VW553/GD32VW55X_Wifi_BLE_SDK/GD32VW55x_RELEASE_V1.0.2/MSDK/plf/GD32VW55x_standard_peripheral/Source\gd32vw55x_cau_aes.c **** 
 1757              		.loc 1 409 9
 1758 00b0 97000000 		call	cau_enable
 1758      E7800000 
 1759              	.LVL227:
 411:C:/Users/stapi/OneDrive/Desktop/GD32VW553/GD32VW55X_Wifi_BLE_SDK/GD32VW55x_RELEASE_V1.0.2/MSDK/plf/GD32VW55x_standard_peripheral/Source\gd32vw55x_cau_aes.c **** 
 1760              		.loc 1 411 9
 411:C:/Users/stapi/OneDrive/Desktop/GD32VW553/GD32VW55X_Wifi_BLE_SDK/GD32VW55x_RELEASE_V1.0.2/MSDK/plf/GD32VW55x_standard_peripheral/Source\gd32vw55x_cau_aes.c **** 
 1761              		.loc 1 411 15 is_stmt 0
 1762 00b8 0C50     		lw	a1,32(s0)
 1763 00ba 484C     		lw	a0,28(s0)
 1764 00bc 97000000 		call	cau_fill_data
 1764      E7800000 
 1765              	.LVL228:
 1766 00c4 AA84     		mv	s1,a0
 1767              	.LVL229:
 413:C:/Users/stapi/OneDrive/Desktop/GD32VW553/GD32VW55X_Wifi_BLE_SDK/GD32VW55x_RELEASE_V1.0.2/MSDK/plf/GD32VW55x_standard_peripheral/Source\gd32vw55x_cau_aes.c ****             return ret;
 1768              		.loc 1 413 9 is_stmt 1
 413:C:/Users/stapi/OneDrive/Desktop/GD32VW553/GD32VW55X_Wifi_BLE_SDK/GD32VW55x_RELEASE_V1.0.2/MSDK/plf/GD32VW55x_standard_peripheral/Source\gd32vw55x_cau_aes.c ****             return ret;
 1769              		.loc 1 413 11 is_stmt 0
 1770 00c6 01E9     		bne	a0,zero,.L75
 1771              	.L78:
 414:C:/Users/stapi/OneDrive/Desktop/GD32VW553/GD32VW55X_Wifi_BLE_SDK/GD32VW55x_RELEASE_V1.0.2/MSDK/plf/GD32VW55x_standard_peripheral/Source\gd32vw55x_cau_aes.c ****         }
 1772              		.loc 1 414 20
 1773 00c8 8144     		li	s1,0
 1774              	.LVL230:
 1775              	.L73:
 470:C:/Users/stapi/OneDrive/Desktop/GD32VW553/GD32VW55X_Wifi_BLE_SDK/GD32VW55x_RELEASE_V1.0.2/MSDK/plf/GD32VW55x_standard_peripheral/Source\gd32vw55x_cau_aes.c **** 
 1776              		.loc 1 470 1
 1777 00ca 2685     		mv	a0,s1
 1778 00cc 4561     		addi	sp,sp,48
 1779              		.cfi_remember_state
 1780              		.cfi_def_cfa_offset 0
 1781 00ce 17030000 		tail	__riscv_restore_6
 1781      67000300 
 1782              		.cfi_restore 21
 1783              		.cfi_restore 20
 1784              		.cfi_restore 19
 1785              		.cfi_restore 18
 1786              		.cfi_restore 9
 1787              		.cfi_restore 8
 1788              		.cfi_restore 1
 1789              		.cfi_def_cfa_offset -32
 1790              	.LVL231:
 1791              	.L75:
 1792              		.cfi_restore_state
 419:C:/Users/stapi/OneDrive/Desktop/GD32VW553/GD32VW55X_Wifi_BLE_SDK/GD32VW55x_RELEASE_V1.0.2/MSDK/plf/GD32VW55x_standard_peripheral/Source\gd32vw55x_cau_aes.c ****         /* select encrypt or dcrypt phase */
 1793              		.loc 1 419 5 is_stmt 1
 419:C:/Users/stapi/OneDrive/Desktop/GD32VW553/GD32VW55X_Wifi_BLE_SDK/GD32VW55x_RELEASE_V1.0.2/MSDK/plf/GD32VW55x_standard_peripheral/Source\gd32vw55x_cau_aes.c ****         /* select encrypt or dcrypt phase */
 1794              		.loc 1 419 7 is_stmt 0
 1795 00d6 1C4C     		lw	a5,24(s0)
 1796 00d8 85CB     		beq	a5,zero,.L77
 421:C:/Users/stapi/OneDrive/Desktop/GD32VW553/GD32VW55X_Wifi_BLE_SDK/GD32VW55x_RELEASE_V1.0.2/MSDK/plf/GD32VW55x_standard_peripheral/Source\gd32vw55x_cau_aes.c ****         /* flush the IN and OUT FIFOs */
 1797              		.loc 1 421 9 is_stmt 1
 1798 00da 37050200 		li	a0,131072
 1799 00de 97000000 		call	cau_phase_config
 1799      E7800000 
 1800              	.LVL232:
 423:C:/Users/stapi/OneDrive/Desktop/GD32VW553/GD32VW55X_Wifi_BLE_SDK/GD32VW55x_RELEASE_V1.0.2/MSDK/plf/GD32VW55x_standard_peripheral/Source\gd32vw55x_cau_aes.c ****         /* enable the CAU peripheral */
 1801              		.loc 1 423 9
 1802 00e6 97000000 		call	cau_fifo_flush
 1802      E7800000 
 1803              	.LVL233:
 425:C:/Users/stapi/OneDrive/Desktop/GD32VW553/GD32VW55X_Wifi_BLE_SDK/GD32VW55x_RELEASE_V1.0.2/MSDK/plf/GD32VW55x_standard_peripheral/Source\gd32vw55x_cau_aes.c **** 
 1804              		.loc 1 425 9
 1805 00ee 97000000 		call	cau_enable
 1805      E7800000 
 1806              	.LVL234:
 428:C:/Users/stapi/OneDrive/Desktop/GD32VW553/GD32VW55X_Wifi_BLE_SDK/GD32VW55x_RELEASE_V1.0.2/MSDK/plf/GD32VW55x_standard_peripheral/Source\gd32vw55x_cau_aes.c **** 
 1807              		.loc 1 428 9
 428:C:/Users/stapi/OneDrive/Desktop/GD32VW553/GD32VW55X_Wifi_BLE_SDK/GD32VW55x_RELEASE_V1.0.2/MSDK/plf/GD32VW55x_standard_peripheral/Source\gd32vw55x_cau_aes.c **** 
 1808              		.loc 1 428 15 is_stmt 0
 1809 00f6 0C4C     		lw	a1,24(s0)
 1810 00f8 4848     		lw	a0,20(s0)
 1811 00fa 5686     		mv	a2,s5
 1812 00fc 97000000 		call	cau_aes_calculate
 1812      E7800000 
 1813              	.LVL235:
 1814 0104 AA84     		mv	s1,a0
 1815              	.LVL236:
 430:C:/Users/stapi/OneDrive/Desktop/GD32VW553/GD32VW55X_Wifi_BLE_SDK/GD32VW55x_RELEASE_V1.0.2/MSDK/plf/GD32VW55x_standard_peripheral/Source\gd32vw55x_cau_aes.c ****             return ret;
 1816              		.loc 1 430 9 is_stmt 1
 430:C:/Users/stapi/OneDrive/Desktop/GD32VW553/GD32VW55X_Wifi_BLE_SDK/GD32VW55x_RELEASE_V1.0.2/MSDK/plf/GD32VW55x_standard_peripheral/Source\gd32vw55x_cau_aes.c ****             return ret;
 1817              		.loc 1 430 11 is_stmt 0
 1818 0106 69D1     		beq	a0,zero,.L78
 1819              	.L77:
 437:C:/Users/stapi/OneDrive/Desktop/GD32VW553/GD32VW55X_Wifi_BLE_SDK/GD32VW55x_RELEASE_V1.0.2/MSDK/plf/GD32VW55x_standard_peripheral/Source\gd32vw55x_cau_aes.c ****     /* flush the IN and OUT FIFOs */
 1820              		.loc 1 437 5 is_stmt 1
 1821 0108 37050300 		li	a0,196608
 1822 010c 97000000 		call	cau_phase_config
 1822      E7800000 
 1823              	.LVL237:
 439:C:/Users/stapi/OneDrive/Desktop/GD32VW553/GD32VW55X_Wifi_BLE_SDK/GD32VW55x_RELEASE_V1.0.2/MSDK/plf/GD32VW55x_standard_peripheral/Source\gd32vw55x_cau_aes.c ****     /* enable the CAU peripheral */
 1824              		.loc 1 439 5
 1825 0114 97000000 		call	cau_fifo_flush
 1825      E7800000 
 1826              	.LVL238:
 441:C:/Users/stapi/OneDrive/Desktop/GD32VW553/GD32VW55X_Wifi_BLE_SDK/GD32VW55x_RELEASE_V1.0.2/MSDK/plf/GD32VW55x_standard_peripheral/Source\gd32vw55x_cau_aes.c **** 
 1827              		.loc 1 441 5
 1828 011c 97000000 		call	cau_enable
 1828      E7800000 
 1829              	.LVL239:
 443:C:/Users/stapi/OneDrive/Desktop/GD32VW553/GD32VW55X_Wifi_BLE_SDK/GD32VW55x_RELEASE_V1.0.2/MSDK/plf/GD32VW55x_standard_peripheral/Source\gd32vw55x_cau_aes.c ****         return ERROR;
 1830              		.loc 1 443 5
 443:C:/Users/stapi/OneDrive/Desktop/GD32VW553/GD32VW55X_Wifi_BLE_SDK/GD32VW55x_RELEASE_V1.0.2/MSDK/plf/GD32VW55x_standard_peripheral/Source\gd32vw55x_cau_aes.c ****         return ERROR;
 1831              		.loc 1 443 19 is_stmt 0
 1832 0124 97000000 		call	cau_enable_state_get
 1832      E7800000 
 1833              	.LVL240:
 443:C:/Users/stapi/OneDrive/Desktop/GD32VW553/GD32VW55X_Wifi_BLE_SDK/GD32VW55x_RELEASE_V1.0.2/MSDK/plf/GD32VW55x_standard_peripheral/Source\gd32vw55x_cau_aes.c ****         return ERROR;
 1834              		.loc 1 443 7
 1835 012c 51DD     		beq	a0,zero,.L78
 368:C:/Users/stapi/OneDrive/Desktop/GD32VW553/GD32VW55X_Wifi_BLE_SDK/GD32VW55x_RELEASE_V1.0.2/MSDK/plf/GD32VW55x_standard_peripheral/Source\gd32vw55x_cau_aes.c ****     uint64_t inputlength = (uint64_t)cau_parameter->in_length * 8U;
 1836              		.loc 1 368 14
 1837 012e 1355DA01 		srli	a0,s4,29
 447:C:/Users/stapi/OneDrive/Desktop/GD32VW553/GD32VW55X_Wifi_BLE_SDK/GD32VW55x_RELEASE_V1.0.2/MSDK/plf/GD32VW55x_standard_peripheral/Source\gd32vw55x_cau_aes.c ****     cau_data_write(__REV((uint32_t)aadlength));
 1838              		.loc 1 447 5
 1839 0132 6205     		slli	a0,a0,24
 1840 0134 97000000 		call	cau_data_write
 1840      E7800000 
 1841              	.LVL241:
 368:C:/Users/stapi/OneDrive/Desktop/GD32VW553/GD32VW55X_Wifi_BLE_SDK/GD32VW55x_RELEASE_V1.0.2/MSDK/plf/GD32VW55x_standard_peripheral/Source\gd32vw55x_cau_aes.c ****     uint64_t inputlength = (uint64_t)cau_parameter->in_length * 8U;
 1842              		.loc 1 368 14
 1843 013c 0E0A     		slli	s4,s4,3
 1844              	.LVL242:
 369:C:/Users/stapi/OneDrive/Desktop/GD32VW553/GD32VW55X_Wifi_BLE_SDK/GD32VW55x_RELEASE_V1.0.2/MSDK/plf/GD32VW55x_standard_peripheral/Source\gd32vw55x_cau_aes.c ****     uint32_t ivaddr = (uint32_t)cau_parameter->iv;
 1845              		.loc 1 369 14
 1846 013e 13D4D901 		srli	s0,s3,29
 1847              	.LVL243:
 448:C:/Users/stapi/OneDrive/Desktop/GD32VW553/GD32VW55X_Wifi_BLE_SDK/GD32VW55x_RELEASE_V1.0.2/MSDK/plf/GD32VW55x_standard_peripheral/Source\gd32vw55x_cau_aes.c ****     cau_data_write(__REV((uint32_t)(inputlength >> 32U)));
 1848              		.loc 1 448 5
 1849 0142 13558A69 		rev8	a0,s4
 1850 0146 97000000 		call	cau_data_write
 1850      E7800000 
 1851              	.LVL244:
 449:C:/Users/stapi/OneDrive/Desktop/GD32VW553/GD32VW55X_Wifi_BLE_SDK/GD32VW55x_RELEASE_V1.0.2/MSDK/plf/GD32VW55x_standard_peripheral/Source\gd32vw55x_cau_aes.c ****     cau_data_write(__REV((uint32_t)inputlength));
 1852              		.loc 1 449 5
 1853 014e 13158401 		slli	a0,s0,24
 369:C:/Users/stapi/OneDrive/Desktop/GD32VW553/GD32VW55X_Wifi_BLE_SDK/GD32VW55x_RELEASE_V1.0.2/MSDK/plf/GD32VW55x_standard_peripheral/Source\gd32vw55x_cau_aes.c ****     uint32_t ivaddr = (uint32_t)cau_parameter->iv;
 1854              		.loc 1 369 14
 1855 0152 8E09     		slli	s3,s3,3
 1856              	.LVL245:
 447:C:/Users/stapi/OneDrive/Desktop/GD32VW553/GD32VW55X_Wifi_BLE_SDK/GD32VW55x_RELEASE_V1.0.2/MSDK/plf/GD32VW55x_standard_peripheral/Source\gd32vw55x_cau_aes.c ****     cau_data_write(__REV((uint32_t)aadlength));
 1857              		.loc 1 447 5 is_stmt 1
 1858              	.LBB172:
 1859              	.LBB173:
 122:..\..\..\..\plf\riscv\NMSIS\Core\Include/core_compatiable.h **** 
 1860              		.loc 2 122 5
 124:..\..\..\..\plf\riscv\NMSIS\Core\Include/core_compatiable.h ****         | ((value & 0x00ff0000) >> 8 )
 1861              		.loc 2 124 5
 1862              		.loc 2 128 5
 1863              	.LBE173:
 1864              	.LBE172:
 448:C:/Users/stapi/OneDrive/Desktop/GD32VW553/GD32VW55X_Wifi_BLE_SDK/GD32VW55x_RELEASE_V1.0.2/MSDK/plf/GD32VW55x_standard_peripheral/Source\gd32vw55x_cau_aes.c ****     cau_data_write(__REV((uint32_t)(inputlength >> 32U)));
 1865              		.loc 1 448 5
 1866              	.LBB174:
 1867              	.LBB175:
 122:..\..\..\..\plf\riscv\NMSIS\Core\Include/core_compatiable.h **** 
 1868              		.loc 2 122 5
 124:..\..\..\..\plf\riscv\NMSIS\Core\Include/core_compatiable.h ****         | ((value & 0x00ff0000) >> 8 )
 1869              		.loc 2 124 5
 1870              		.loc 2 128 5
 1871              	.LBE175:
 1872              	.LBE174:
 449:C:/Users/stapi/OneDrive/Desktop/GD32VW553/GD32VW55X_Wifi_BLE_SDK/GD32VW55x_RELEASE_V1.0.2/MSDK/plf/GD32VW55x_standard_peripheral/Source\gd32vw55x_cau_aes.c ****     cau_data_write(__REV((uint32_t)inputlength));
 1873              		.loc 1 449 5
 1874              	.LBB176:
 1875              	.LBB177:
 122:..\..\..\..\plf\riscv\NMSIS\Core\Include/core_compatiable.h **** 
 1876              		.loc 2 122 5
 124:..\..\..\..\plf\riscv\NMSIS\Core\Include/core_compatiable.h ****         | ((value & 0x00ff0000) >> 8 )
 1877              		.loc 2 124 5
 1878              		.loc 2 128 5
 1879              	.LBE177:
 1880              	.LBE176:
 449:C:/Users/stapi/OneDrive/Desktop/GD32VW553/GD32VW55X_Wifi_BLE_SDK/GD32VW55x_RELEASE_V1.0.2/MSDK/plf/GD32VW55x_standard_peripheral/Source\gd32vw55x_cau_aes.c ****     cau_data_write(__REV((uint32_t)inputlength));
 1881              		.loc 1 449 5 is_stmt 0
 1882 0154 97000000 		call	cau_data_write
 1882      E7800000 
 1883              	.LVL246:
 450:C:/Users/stapi/OneDrive/Desktop/GD32VW553/GD32VW55X_Wifi_BLE_SDK/GD32VW55x_RELEASE_V1.0.2/MSDK/plf/GD32VW55x_standard_peripheral/Source\gd32vw55x_cau_aes.c **** 
 1884              		.loc 1 450 5 is_stmt 1
 1885              	.LBB178:
 1886              	.LBB179:
 122:..\..\..\..\plf\riscv\NMSIS\Core\Include/core_compatiable.h **** 
 1887              		.loc 2 122 5
 124:..\..\..\..\plf\riscv\NMSIS\Core\Include/core_compatiable.h ****         | ((value & 0x00ff0000) >> 8 )
 1888              		.loc 2 124 5
 1889              		.loc 2 128 5
 1890              	.LBE179:
 1891              	.LBE178:
 450:C:/Users/stapi/OneDrive/Desktop/GD32VW553/GD32VW55X_Wifi_BLE_SDK/GD32VW55x_RELEASE_V1.0.2/MSDK/plf/GD32VW55x_standard_peripheral/Source\gd32vw55x_cau_aes.c **** 
 1892              		.loc 1 450 5 is_stmt 0
 1893 015c 13D58969 		rev8	a0,s3
 1894 0160 97000000 		call	cau_data_write
 1894      E7800000 
 1895              	.LVL247:
 453:C:/Users/stapi/OneDrive/Desktop/GD32VW553/GD32VW55X_Wifi_BLE_SDK/GD32VW55x_RELEASE_V1.0.2/MSDK/plf/GD32VW55x_standard_peripheral/Source\gd32vw55x_cau_aes.c ****     }
 1896              		.loc 1 453 5 is_stmt 1
 1897              	.L79:
 454:C:/Users/stapi/OneDrive/Desktop/GD32VW553/GD32VW55X_Wifi_BLE_SDK/GD32VW55x_RELEASE_V1.0.2/MSDK/plf/GD32VW55x_standard_peripheral/Source\gd32vw55x_cau_aes.c **** 
 1898              		.loc 1 454 5 discriminator 1
 453:C:/Users/stapi/OneDrive/Desktop/GD32VW553/GD32VW55X_Wifi_BLE_SDK/GD32VW55x_RELEASE_V1.0.2/MSDK/plf/GD32VW55x_standard_peripheral/Source\gd32vw55x_cau_aes.c ****     }
 1899              		.loc 1 453 10 discriminator 1
 453:C:/Users/stapi/OneDrive/Desktop/GD32VW553/GD32VW55X_Wifi_BLE_SDK/GD32VW55x_RELEASE_V1.0.2/MSDK/plf/GD32VW55x_standard_peripheral/Source\gd32vw55x_cau_aes.c ****     }
 1900              		.loc 1 453 20 is_stmt 0 discriminator 1
 1901 0168 1145     		li	a0,4
 1902 016a 97000000 		call	cau_flag_get
 1902      E7800000 
 1903              	.LVL248:
 453:C:/Users/stapi/OneDrive/Desktop/GD32VW553/GD32VW55X_Wifi_BLE_SDK/GD32VW55x_RELEASE_V1.0.2/MSDK/plf/GD32VW55x_standard_peripheral/Source\gd32vw55x_cau_aes.c ****     }
 1904              		.loc 1 453 10 discriminator 1
 1905 0172 7DD9     		beq	a0,zero,.L79
 457:C:/Users/stapi/OneDrive/Desktop/GD32VW553/GD32VW55X_Wifi_BLE_SDK/GD32VW55x_RELEASE_V1.0.2/MSDK/plf/GD32VW55x_standard_peripheral/Source\gd32vw55x_cau_aes.c ****     tagaddr += 4U;
 1906              		.loc 1 457 5 is_stmt 1
 457:C:/Users/stapi/OneDrive/Desktop/GD32VW553/GD32VW55X_Wifi_BLE_SDK/GD32VW55x_RELEASE_V1.0.2/MSDK/plf/GD32VW55x_standard_peripheral/Source\gd32vw55x_cau_aes.c ****     tagaddr += 4U;
 1907              		.loc 1 457 30 is_stmt 0
 1908 0174 97000000 		call	cau_data_read
 1908      E7800000 
 1909              	.LVL249:
 457:C:/Users/stapi/OneDrive/Desktop/GD32VW553/GD32VW55X_Wifi_BLE_SDK/GD32VW55x_RELEASE_V1.0.2/MSDK/plf/GD32VW55x_standard_peripheral/Source\gd32vw55x_cau_aes.c ****     tagaddr += 4U;
 1910              		.loc 1 457 28
 1911 017c 2320A900 		sw	a0,0(s2)
 458:C:/Users/stapi/OneDrive/Desktop/GD32VW553/GD32VW55X_Wifi_BLE_SDK/GD32VW55x_RELEASE_V1.0.2/MSDK/plf/GD32VW55x_standard_peripheral/Source\gd32vw55x_cau_aes.c ****     *(uint32_t *)(tagaddr) = cau_data_read();
 1912              		.loc 1 458 5 is_stmt 1
 1913              	.LVL250:
 459:C:/Users/stapi/OneDrive/Desktop/GD32VW553/GD32VW55X_Wifi_BLE_SDK/GD32VW55x_RELEASE_V1.0.2/MSDK/plf/GD32VW55x_standard_peripheral/Source\gd32vw55x_cau_aes.c ****     tagaddr += 4U;
 1914              		.loc 1 459 5
 459:C:/Users/stapi/OneDrive/Desktop/GD32VW553/GD32VW55X_Wifi_BLE_SDK/GD32VW55x_RELEASE_V1.0.2/MSDK/plf/GD32VW55x_standard_peripheral/Source\gd32vw55x_cau_aes.c ****     tagaddr += 4U;
 1915              		.loc 1 459 30 is_stmt 0
 1916 0180 97000000 		call	cau_data_read
 1916      E7800000 
 1917              	.LVL251:
 459:C:/Users/stapi/OneDrive/Desktop/GD32VW553/GD32VW55X_Wifi_BLE_SDK/GD32VW55x_RELEASE_V1.0.2/MSDK/plf/GD32VW55x_standard_peripheral/Source\gd32vw55x_cau_aes.c ****     tagaddr += 4U;
 1918              		.loc 1 459 28
 1919 0188 2322A900 		sw	a0,4(s2)
 460:C:/Users/stapi/OneDrive/Desktop/GD32VW553/GD32VW55X_Wifi_BLE_SDK/GD32VW55x_RELEASE_V1.0.2/MSDK/plf/GD32VW55x_standard_peripheral/Source\gd32vw55x_cau_aes.c ****     *(uint32_t *)(tagaddr) = cau_data_read();
 1920              		.loc 1 460 5 is_stmt 1
 1921              	.LVL252:
 461:C:/Users/stapi/OneDrive/Desktop/GD32VW553/GD32VW55X_Wifi_BLE_SDK/GD32VW55x_RELEASE_V1.0.2/MSDK/plf/GD32VW55x_standard_peripheral/Source\gd32vw55x_cau_aes.c ****     tagaddr += 4U;
 1922              		.loc 1 461 5
 461:C:/Users/stapi/OneDrive/Desktop/GD32VW553/GD32VW55X_Wifi_BLE_SDK/GD32VW55x_RELEASE_V1.0.2/MSDK/plf/GD32VW55x_standard_peripheral/Source\gd32vw55x_cau_aes.c ****     tagaddr += 4U;
 1923              		.loc 1 461 30 is_stmt 0
 1924 018c 97000000 		call	cau_data_read
 1924      E7800000 
 1925              	.LVL253:
 461:C:/Users/stapi/OneDrive/Desktop/GD32VW553/GD32VW55X_Wifi_BLE_SDK/GD32VW55x_RELEASE_V1.0.2/MSDK/plf/GD32VW55x_standard_peripheral/Source\gd32vw55x_cau_aes.c ****     tagaddr += 4U;
 1926              		.loc 1 461 28
 1927 0194 2324A900 		sw	a0,8(s2)
 462:C:/Users/stapi/OneDrive/Desktop/GD32VW553/GD32VW55X_Wifi_BLE_SDK/GD32VW55x_RELEASE_V1.0.2/MSDK/plf/GD32VW55x_standard_peripheral/Source\gd32vw55x_cau_aes.c ****     *(uint32_t *)(tagaddr) = cau_data_read();
 1928              		.loc 1 462 5 is_stmt 1
 1929              	.LVL254:
 463:C:/Users/stapi/OneDrive/Desktop/GD32VW553/GD32VW55X_Wifi_BLE_SDK/GD32VW55x_RELEASE_V1.0.2/MSDK/plf/GD32VW55x_standard_peripheral/Source\gd32vw55x_cau_aes.c ****     tagaddr += 4U;
 1930              		.loc 1 463 5
 463:C:/Users/stapi/OneDrive/Desktop/GD32VW553/GD32VW55X_Wifi_BLE_SDK/GD32VW55x_RELEASE_V1.0.2/MSDK/plf/GD32VW55x_standard_peripheral/Source\gd32vw55x_cau_aes.c ****     tagaddr += 4U;
 1931              		.loc 1 463 30 is_stmt 0
 1932 0198 97000000 		call	cau_data_read
 1932      E7800000 
 1933              	.LVL255:
 463:C:/Users/stapi/OneDrive/Desktop/GD32VW553/GD32VW55X_Wifi_BLE_SDK/GD32VW55x_RELEASE_V1.0.2/MSDK/plf/GD32VW55x_standard_peripheral/Source\gd32vw55x_cau_aes.c ****     tagaddr += 4U;
 1934              		.loc 1 463 28
 1935 01a0 2326A900 		sw	a0,12(s2)
 464:C:/Users/stapi/OneDrive/Desktop/GD32VW553/GD32VW55X_Wifi_BLE_SDK/GD32VW55x_RELEASE_V1.0.2/MSDK/plf/GD32VW55x_standard_peripheral/Source\gd32vw55x_cau_aes.c **** 
 1936              		.loc 1 464 5 is_stmt 1
 1937              	.LVL256:
 467:C:/Users/stapi/OneDrive/Desktop/GD32VW553/GD32VW55X_Wifi_BLE_SDK/GD32VW55x_RELEASE_V1.0.2/MSDK/plf/GD32VW55x_standard_peripheral/Source\gd32vw55x_cau_aes.c **** 
 1938              		.loc 1 467 5
 1939 01a4 97000000 		call	cau_disable
 1939      E7800000 
 1940              	.LVL257:
 469:C:/Users/stapi/OneDrive/Desktop/GD32VW553/GD32VW55X_Wifi_BLE_SDK/GD32VW55x_RELEASE_V1.0.2/MSDK/plf/GD32VW55x_standard_peripheral/Source\gd32vw55x_cau_aes.c **** }
 1941              		.loc 1 469 5
 469:C:/Users/stapi/OneDrive/Desktop/GD32VW553/GD32VW55X_Wifi_BLE_SDK/GD32VW55x_RELEASE_V1.0.2/MSDK/plf/GD32VW55x_standard_peripheral/Source\gd32vw55x_cau_aes.c **** }
 1942              		.loc 1 469 12 is_stmt 0
 1943 01ac 39BF     		j	.L73
 1944              		.cfi_endproc
 1945              	.LFE370:
 1947              		.section	.text.cau_aes_ccm,"ax",@progbits
 1948              		.align	1
 1949              		.globl	cau_aes_ccm
 1951              	cau_aes_ccm:
 1952              	.LFB371:
 492:C:/Users/stapi/OneDrive/Desktop/GD32VW553/GD32VW55X_Wifi_BLE_SDK/GD32VW55x_RELEASE_V1.0.2/MSDK/plf/GD32VW55x_standard_peripheral/Source\gd32vw55x_cau_aes.c ****     cau_key_parameter_struct key_initpara;
 1953              		.loc 1 492 1 is_stmt 1
 1954              		.cfi_startproc
 1955              	.LVL258:
 1956 0000 17030000 		call	t0,__riscv_save_12
 1956      E7020300 
 1957              		.cfi_offset 27, -52
 1958              		.cfi_offset 26, -48
 1959              		.cfi_offset 25, -44
 1960              		.cfi_offset 24, -40
 1961              		.cfi_offset 23, -36
 1962              		.cfi_offset 22, -32
 1963              		.cfi_offset 21, -28
 1964              		.cfi_offset 20, -24
 1965              		.cfi_offset 19, -20
 1966              		.cfi_offset 18, -16
 1967              		.cfi_offset 9, -12
 1968              		.cfi_offset 8, -8
 1969              		.cfi_offset 1, -4
 1970              		.cfi_def_cfa_offset 64
 1971 0008 832D8501 		lw	s11,24(a0)
 499:C:/Users/stapi/OneDrive/Desktop/GD32VW553/GD32VW55X_Wifi_BLE_SDK/GD32VW55x_RELEASE_V1.0.2/MSDK/plf/GD32VW55x_standard_peripheral/Source\gd32vw55x_cau_aes.c ****     uint32_t aad_block_size = 0U;
 1972              		.loc 1 499 14 is_stmt 0
 1973 000c 0051     		lw	s0,32(a0)
 492:C:/Users/stapi/OneDrive/Desktop/GD32VW553/GD32VW55X_Wifi_BLE_SDK/GD32VW55x_RELEASE_V1.0.2/MSDK/plf/GD32VW55x_standard_peripheral/Source\gd32vw55x_cau_aes.c ****     cau_key_parameter_struct key_initpara;
 1974              		.loc 1 492 1
 1975 000e 5971     		addi	sp,sp,-112
 1976              		.cfi_def_cfa_offset 176
 506:C:/Users/stapi/OneDrive/Desktop/GD32VW553/GD32VW55X_Wifi_BLE_SDK/GD32VW55x_RELEASE_V1.0.2/MSDK/plf/GD32VW55x_standard_peripheral/Source\gd32vw55x_cau_aes.c ****     uint8_t counter[16U] = {0U};
 1977              		.loc 1 506 13
 1978 0010 02D0     		sw	zero,32(sp)
 1979 0012 02D2     		sw	zero,36(sp)
 1980 0014 02D4     		sw	zero,40(sp)
 1981 0016 02D6     		sw	zero,44(sp)
 507:C:/Users/stapi/OneDrive/Desktop/GD32VW553/GD32VW55X_Wifi_BLE_SDK/GD32VW55x_RELEASE_V1.0.2/MSDK/plf/GD32VW55x_standard_peripheral/Source\gd32vw55x_cau_aes.c ****     uint32_t ctraddr = (uint32_t)counter;
 1982              		.loc 1 507 13
 1983 0018 02D8     		sw	zero,48(sp)
 1984 001a 02DA     		sw	zero,52(sp)
 1985 001c 02DC     		sw	zero,56(sp)
 1986 001e 02DE     		sw	zero,60(sp)
 492:C:/Users/stapi/OneDrive/Desktop/GD32VW553/GD32VW55X_Wifi_BLE_SDK/GD32VW55x_RELEASE_V1.0.2/MSDK/plf/GD32VW55x_standard_peripheral/Source\gd32vw55x_cau_aes.c ****     cau_key_parameter_struct key_initpara;
 1987              		.loc 1 492 1
 1988 0020 AE8A     		mv	s5,a1
 496:C:/Users/stapi/OneDrive/Desktop/GD32VW553/GD32VW55X_Wifi_BLE_SDK/GD32VW55x_RELEASE_V1.0.2/MSDK/plf/GD32VW55x_standard_peripheral/Source\gd32vw55x_cau_aes.c ****     uint32_t inputsize = cau_parameter->in_length;
 1989              		.loc 1 496 50
 1990 0022 832B4501 		lw	s7,20(a0)
 498:C:/Users/stapi/OneDrive/Desktop/GD32VW553/GD32VW55X_Wifi_BLE_SDK/GD32VW55x_RELEASE_V1.0.2/MSDK/plf/GD32VW55x_standard_peripheral/Source\gd32vw55x_cau_aes.c ****     uint32_t aadsize = cau_parameter->aad_size;
 1991              		.loc 1 498 47
 1992 0026 4C4D     		lw	a1,28(a0)
 1993              	.LVL259:
 501:C:/Users/stapi/OneDrive/Desktop/GD32VW553/GD32VW55X_Wifi_BLE_SDK/GD32VW55x_RELEASE_V1.0.2/MSDK/plf/GD32VW55x_standard_peripheral/Source\gd32vw55x_cau_aes.c ****     uint32_t ivsize = cau_parameter->iv_size;
 1994              		.loc 1 501 46
 1995 0028 5C45     		lw	a5,12(a0)
 502:C:/Users/stapi/OneDrive/Desktop/GD32VW553/GD32VW55X_Wifi_BLE_SDK/GD32VW55x_RELEASE_V1.0.2/MSDK/plf/GD32VW55x_standard_peripheral/Source\gd32vw55x_cau_aes.c ****     uint32_t outputaddr = (uint32_t)output;
 1996              		.loc 1 502 14
 1997 002a 032D0501 		lw	s10,16(a0)
 492:C:/Users/stapi/OneDrive/Desktop/GD32VW553/GD32VW55X_Wifi_BLE_SDK/GD32VW55x_RELEASE_V1.0.2/MSDK/plf/GD32VW55x_standard_peripheral/Source\gd32vw55x_cau_aes.c ****     cau_key_parameter_struct key_initpara;
 1998              		.loc 1 492 1
 1999 002e 2A89     		mv	s2,a0
 2000 0030 328A     		mv	s4,a2
 2001 0032 B689     		mv	s3,a3
 493:C:/Users/stapi/OneDrive/Desktop/GD32VW553/GD32VW55X_Wifi_BLE_SDK/GD32VW55x_RELEASE_V1.0.2/MSDK/plf/GD32VW55x_standard_peripheral/Source\gd32vw55x_cau_aes.c ****     cau_iv_parameter_struct iv_initpara;
 2002              		.loc 1 493 5 is_stmt 1
 494:C:/Users/stapi/OneDrive/Desktop/GD32VW553/GD32VW55X_Wifi_BLE_SDK/GD32VW55x_RELEASE_V1.0.2/MSDK/plf/GD32VW55x_standard_peripheral/Source\gd32vw55x_cau_aes.c ****     ErrStatus ret = ERROR;
 2003              		.loc 1 494 5
 495:C:/Users/stapi/OneDrive/Desktop/GD32VW553/GD32VW55X_Wifi_BLE_SDK/GD32VW55x_RELEASE_V1.0.2/MSDK/plf/GD32VW55x_standard_peripheral/Source\gd32vw55x_cau_aes.c ****     uint32_t inputaddr  = (uint32_t)cau_parameter->input;
 2004              		.loc 1 495 5
 2005              	.LVL260:
 496:C:/Users/stapi/OneDrive/Desktop/GD32VW553/GD32VW55X_Wifi_BLE_SDK/GD32VW55x_RELEASE_V1.0.2/MSDK/plf/GD32VW55x_standard_peripheral/Source\gd32vw55x_cau_aes.c ****     uint32_t inputsize = cau_parameter->in_length;
 2006              		.loc 1 496 5
 497:C:/Users/stapi/OneDrive/Desktop/GD32VW553/GD32VW55X_Wifi_BLE_SDK/GD32VW55x_RELEASE_V1.0.2/MSDK/plf/GD32VW55x_standard_peripheral/Source\gd32vw55x_cau_aes.c ****     uint32_t aadaddr = (uint32_t)cau_parameter->aad;
 2007              		.loc 1 497 5
 2008 0034 13DC8D69 		rev8	s8,s11
 2009              	.LVL261:
 498:C:/Users/stapi/OneDrive/Desktop/GD32VW553/GD32VW55X_Wifi_BLE_SDK/GD32VW55x_RELEASE_V1.0.2/MSDK/plf/GD32VW55x_standard_peripheral/Source\gd32vw55x_cau_aes.c ****     uint32_t aadsize = cau_parameter->aad_size;
 2010              		.loc 1 498 5
 499:C:/Users/stapi/OneDrive/Desktop/GD32VW553/GD32VW55X_Wifi_BLE_SDK/GD32VW55x_RELEASE_V1.0.2/MSDK/plf/GD32VW55x_standard_peripheral/Source\gd32vw55x_cau_aes.c ****     uint32_t aad_block_size = 0U;
 2011              		.loc 1 499 5
 500:C:/Users/stapi/OneDrive/Desktop/GD32VW553/GD32VW55X_Wifi_BLE_SDK/GD32VW55x_RELEASE_V1.0.2/MSDK/plf/GD32VW55x_standard_peripheral/Source\gd32vw55x_cau_aes.c ****     uint32_t ivaddr = (uint32_t)cau_parameter->iv;
 2012              		.loc 1 500 5
 501:C:/Users/stapi/OneDrive/Desktop/GD32VW553/GD32VW55X_Wifi_BLE_SDK/GD32VW55x_RELEASE_V1.0.2/MSDK/plf/GD32VW55x_standard_peripheral/Source\gd32vw55x_cau_aes.c ****     uint32_t ivsize = cau_parameter->iv_size;
 2013              		.loc 1 501 5
 502:C:/Users/stapi/OneDrive/Desktop/GD32VW553/GD32VW55X_Wifi_BLE_SDK/GD32VW55x_RELEASE_V1.0.2/MSDK/plf/GD32VW55x_standard_peripheral/Source\gd32vw55x_cau_aes.c ****     uint32_t outputaddr = (uint32_t)output;
 2014              		.loc 1 502 5
 503:C:/Users/stapi/OneDrive/Desktop/GD32VW553/GD32VW55X_Wifi_BLE_SDK/GD32VW55x_RELEASE_V1.0.2/MSDK/plf/GD32VW55x_standard_peripheral/Source\gd32vw55x_cau_aes.c ****     uint32_t i = 0U, plen = 0U;
 2015              		.loc 1 503 5
 504:C:/Users/stapi/OneDrive/Desktop/GD32VW553/GD32VW55X_Wifi_BLE_SDK/GD32VW55x_RELEASE_V1.0.2/MSDK/plf/GD32VW55x_standard_peripheral/Source\gd32vw55x_cau_aes.c ****     uint32_t head_index = 0U;
 2016              		.loc 1 504 5
 505:C:/Users/stapi/OneDrive/Desktop/GD32VW553/GD32VW55X_Wifi_BLE_SDK/GD32VW55x_RELEASE_V1.0.2/MSDK/plf/GD32VW55x_standard_peripheral/Source\gd32vw55x_cau_aes.c ****     uint8_t blockb0[16U] = {0U};
 2017              		.loc 1 505 5
 506:C:/Users/stapi/OneDrive/Desktop/GD32VW553/GD32VW55X_Wifi_BLE_SDK/GD32VW55x_RELEASE_V1.0.2/MSDK/plf/GD32VW55x_standard_peripheral/Source\gd32vw55x_cau_aes.c ****     uint8_t counter[16U] = {0U};
 2018              		.loc 1 506 5
 507:C:/Users/stapi/OneDrive/Desktop/GD32VW553/GD32VW55X_Wifi_BLE_SDK/GD32VW55x_RELEASE_V1.0.2/MSDK/plf/GD32VW55x_standard_peripheral/Source\gd32vw55x_cau_aes.c ****     uint32_t ctraddr = (uint32_t)counter;
 2019              		.loc 1 507 5
 508:C:/Users/stapi/OneDrive/Desktop/GD32VW553/GD32VW55X_Wifi_BLE_SDK/GD32VW55x_RELEASE_V1.0.2/MSDK/plf/GD32VW55x_standard_peripheral/Source\gd32vw55x_cau_aes.c ****     uint32_t b0addr = (uint32_t)blockb0;
 2020              		.loc 1 508 5
 509:C:/Users/stapi/OneDrive/Desktop/GD32VW553/GD32VW55X_Wifi_BLE_SDK/GD32VW55x_RELEASE_V1.0.2/MSDK/plf/GD32VW55x_standard_peripheral/Source\gd32vw55x_cau_aes.c ****     uint32_t temp_tag[4U];
 2021              		.loc 1 509 5
 510:C:/Users/stapi/OneDrive/Desktop/GD32VW553/GD32VW55X_Wifi_BLE_SDK/GD32VW55x_RELEASE_V1.0.2/MSDK/plf/GD32VW55x_standard_peripheral/Source\gd32vw55x_cau_aes.c **** 
 2022              		.loc 1 510 5
 513:C:/Users/stapi/OneDrive/Desktop/GD32VW553/GD32VW55X_Wifi_BLE_SDK/GD32VW55x_RELEASE_V1.0.2/MSDK/plf/GD32VW55x_standard_peripheral/Source\gd32vw55x_cau_aes.c ****         /* check that the aad length is lower than 2^16 - 2^8 = 65536 - 256 = 65280 */
 2023              		.loc 1 513 5
 513:C:/Users/stapi/OneDrive/Desktop/GD32VW553/GD32VW55X_Wifi_BLE_SDK/GD32VW55x_RELEASE_V1.0.2/MSDK/plf/GD32VW55x_standard_peripheral/Source\gd32vw55x_cau_aes.c ****         /* check that the aad length is lower than 2^16 - 2^8 = 65536 - 256 = 65280 */
 2024              		.loc 1 513 7 is_stmt 0
 2025 0038 63040410 		beq	s0,zero,.L143
 515:C:/Users/stapi/OneDrive/Desktop/GD32VW553/GD32VW55X_Wifi_BLE_SDK/GD32VW55x_RELEASE_V1.0.2/MSDK/plf/GD32VW55x_standard_peripheral/Source\gd32vw55x_cau_aes.c ****             aad_buf[head_index++] = (uint8_t)((aadsize >> 8U) & 0xFFU);
 2026              		.loc 1 515 11
 2027 003c C166     		li	a3,65536
 2028              	.LVL262:
 2029 003e BA84     		mv	s1,a4
 515:C:/Users/stapi/OneDrive/Desktop/GD32VW553/GD32VW55X_Wifi_BLE_SDK/GD32VW55x_RELEASE_V1.0.2/MSDK/plf/GD32VW55x_standard_peripheral/Source\gd32vw55x_cau_aes.c ****             aad_buf[head_index++] = (uint8_t)((aadsize >> 8U) & 0xFFU);
 2030              		.loc 1 515 9 is_stmt 1
 515:C:/Users/stapi/OneDrive/Desktop/GD32VW553/GD32VW55X_Wifi_BLE_SDK/GD32VW55x_RELEASE_V1.0.2/MSDK/plf/GD32VW55x_standard_peripheral/Source\gd32vw55x_cau_aes.c ****             aad_buf[head_index++] = (uint8_t)((aadsize >> 8U) & 0xFFU);
 2031              		.loc 1 515 11 is_stmt 0
 2032 0040 9386F6EF 		addi	a3,a3,-257
 516:C:/Users/stapi/OneDrive/Desktop/GD32VW553/GD32VW55X_Wifi_BLE_SDK/GD32VW55x_RELEASE_V1.0.2/MSDK/plf/GD32VW55x_standard_peripheral/Source\gd32vw55x_cau_aes.c ****             aad_buf[head_index++] = (uint8_t)((aadsize) & 0xFFU);
 2033              		.loc 1 516 56
 2034 0044 13578400 		srli	a4,s0,8
 2035              	.LVL263:
 516:C:/Users/stapi/OneDrive/Desktop/GD32VW553/GD32VW55X_Wifi_BLE_SDK/GD32VW55x_RELEASE_V1.0.2/MSDK/plf/GD32VW55x_standard_peripheral/Source\gd32vw55x_cau_aes.c ****             aad_buf[head_index++] = (uint8_t)((aadsize) & 0xFFU);
 2036              		.loc 1 516 37
 2037 0048 1377F70F 		andi	a4,a4,0xff
 517:C:/Users/stapi/OneDrive/Desktop/GD32VW553/GD32VW55X_Wifi_BLE_SDK/GD32VW55x_RELEASE_V1.0.2/MSDK/plf/GD32VW55x_standard_peripheral/Source\gd32vw55x_cau_aes.c ****             aad_block_size = aadsize + 2U;
 2038              		.loc 1 517 37
 2039 004c 1376F40F 		andi	a2,s0,0xff
 2040              	.LVL264:
 515:C:/Users/stapi/OneDrive/Desktop/GD32VW553/GD32VW55X_Wifi_BLE_SDK/GD32VW55x_RELEASE_V1.0.2/MSDK/plf/GD32VW55x_standard_peripheral/Source\gd32vw55x_cau_aes.c ****             aad_buf[head_index++] = (uint8_t)((aadsize >> 8U) & 0xFFU);
 2041              		.loc 1 515 11
 2042 0050 63E2860C 		bgtu	s0,a3,.L97
 516:C:/Users/stapi/OneDrive/Desktop/GD32VW553/GD32VW55X_Wifi_BLE_SDK/GD32VW55x_RELEASE_V1.0.2/MSDK/plf/GD32VW55x_standard_peripheral/Source\gd32vw55x_cau_aes.c ****             aad_buf[head_index++] = (uint8_t)((aadsize) & 0xFFU);
 2043              		.loc 1 516 13 is_stmt 1
 2044              	.LVL265:
 517:C:/Users/stapi/OneDrive/Desktop/GD32VW553/GD32VW55X_Wifi_BLE_SDK/GD32VW55x_RELEASE_V1.0.2/MSDK/plf/GD32VW55x_standard_peripheral/Source\gd32vw55x_cau_aes.c ****             aad_block_size = aadsize + 2U;
 2045              		.loc 1 517 35 is_stmt 0
 2046 0054 A380C400 		sb	a2,1(s1)
 516:C:/Users/stapi/OneDrive/Desktop/GD32VW553/GD32VW55X_Wifi_BLE_SDK/GD32VW55x_RELEASE_V1.0.2/MSDK/plf/GD32VW55x_standard_peripheral/Source\gd32vw55x_cau_aes.c ****             aad_buf[head_index++] = (uint8_t)((aadsize) & 0xFFU);
 2047              		.loc 1 516 35
 2048 0058 2380E400 		sb	a4,0(s1)
 517:C:/Users/stapi/OneDrive/Desktop/GD32VW553/GD32VW55X_Wifi_BLE_SDK/GD32VW55x_RELEASE_V1.0.2/MSDK/plf/GD32VW55x_standard_peripheral/Source\gd32vw55x_cau_aes.c ****             aad_block_size = aadsize + 2U;
 2049              		.loc 1 517 13 is_stmt 1
 2050              	.LVL266:
 518:C:/Users/stapi/OneDrive/Desktop/GD32VW553/GD32VW55X_Wifi_BLE_SDK/GD32VW55x_RELEASE_V1.0.2/MSDK/plf/GD32VW55x_standard_peripheral/Source\gd32vw55x_cau_aes.c ****         } else {
 2051              		.loc 1 518 13
 518:C:/Users/stapi/OneDrive/Desktop/GD32VW553/GD32VW55X_Wifi_BLE_SDK/GD32VW55x_RELEASE_V1.0.2/MSDK/plf/GD32VW55x_standard_peripheral/Source\gd32vw55x_cau_aes.c ****         } else {
 2052              		.loc 1 518 28 is_stmt 0
 2053 005c 930C2400 		addi	s9,s0,2
 2054              	.LVL267:
 517:C:/Users/stapi/OneDrive/Desktop/GD32VW553/GD32VW55X_Wifi_BLE_SDK/GD32VW55x_RELEASE_V1.0.2/MSDK/plf/GD32VW55x_standard_peripheral/Source\gd32vw55x_cau_aes.c ****             aad_block_size = aadsize + 2U;
 2055              		.loc 1 517 31
 2056 0060 0946     		li	a2,2
 2057              	.LVL268:
 2058              	.L98:
 530:C:/Users/stapi/OneDrive/Desktop/GD32VW553/GD32VW55X_Wifi_BLE_SDK/GD32VW55x_RELEASE_V1.0.2/MSDK/plf/GD32VW55x_standard_peripheral/Source\gd32vw55x_cau_aes.c ****             aad_buf[head_index++] = *(uint8_t *)((uint32_t)(aadaddr + i));
 2059              		.loc 1 530 9 is_stmt 1
 530:C:/Users/stapi/OneDrive/Desktop/GD32VW553/GD32VW55X_Wifi_BLE_SDK/GD32VW55x_RELEASE_V1.0.2/MSDK/plf/GD32VW55x_standard_peripheral/Source\gd32vw55x_cau_aes.c ****             aad_buf[head_index++] = *(uint8_t *)((uint32_t)(aadaddr + i));
 2060              		.loc 1 530 21
 530:C:/Users/stapi/OneDrive/Desktop/GD32VW553/GD32VW55X_Wifi_BLE_SDK/GD32VW55x_RELEASE_V1.0.2/MSDK/plf/GD32VW55x_standard_peripheral/Source\gd32vw55x_cau_aes.c ****             aad_buf[head_index++] = *(uint8_t *)((uint32_t)(aadaddr + i));
 2061              		.loc 1 530 15 is_stmt 0
 2062 0062 8146     		li	a3,0
 2063              	.LVL269:
 2064              	.L99:
 531:C:/Users/stapi/OneDrive/Desktop/GD32VW553/GD32VW55X_Wifi_BLE_SDK/GD32VW55x_RELEASE_V1.0.2/MSDK/plf/GD32VW55x_standard_peripheral/Source\gd32vw55x_cau_aes.c ****         }
 2065              		.loc 1 531 13 is_stmt 1 discriminator 3
 531:C:/Users/stapi/OneDrive/Desktop/GD32VW553/GD32VW55X_Wifi_BLE_SDK/GD32VW55x_RELEASE_V1.0.2/MSDK/plf/GD32VW55x_standard_peripheral/Source\gd32vw55x_cau_aes.c ****         }
 2066              		.loc 1 531 37 is_stmt 0 discriminator 3
 2067 0064 3387D500 		add	a4,a1,a3
 2068 0068 03450700 		lbu	a0,0(a4)
 531:C:/Users/stapi/OneDrive/Desktop/GD32VW553/GD32VW55X_Wifi_BLE_SDK/GD32VW55x_RELEASE_V1.0.2/MSDK/plf/GD32VW55x_standard_peripheral/Source\gd32vw55x_cau_aes.c ****         }
 2069              		.loc 1 531 35 discriminator 3
 2070 006c 3307D600 		add	a4,a2,a3
 2071 0070 2697     		add	a4,s1,a4
 2072 0072 2300A700 		sb	a0,0(a4)
 530:C:/Users/stapi/OneDrive/Desktop/GD32VW553/GD32VW55X_Wifi_BLE_SDK/GD32VW55x_RELEASE_V1.0.2/MSDK/plf/GD32VW55x_standard_peripheral/Source\gd32vw55x_cau_aes.c ****             aad_buf[head_index++] = *(uint8_t *)((uint32_t)(aadaddr + i));
 2073              		.loc 1 530 34 is_stmt 1 discriminator 3
 530:C:/Users/stapi/OneDrive/Desktop/GD32VW553/GD32VW55X_Wifi_BLE_SDK/GD32VW55x_RELEASE_V1.0.2/MSDK/plf/GD32VW55x_standard_peripheral/Source\gd32vw55x_cau_aes.c ****             aad_buf[head_index++] = *(uint8_t *)((uint32_t)(aadaddr + i));
 2074              		.loc 1 530 35 is_stmt 0 discriminator 3
 2075 0076 8506     		addi	a3,a3,1
 2076              	.LVL270:
 530:C:/Users/stapi/OneDrive/Desktop/GD32VW553/GD32VW55X_Wifi_BLE_SDK/GD32VW55x_RELEASE_V1.0.2/MSDK/plf/GD32VW55x_standard_peripheral/Source\gd32vw55x_cau_aes.c ****             aad_buf[head_index++] = *(uint8_t *)((uint32_t)(aadaddr + i));
 2077              		.loc 1 530 21 is_stmt 1 discriminator 3
 530:C:/Users/stapi/OneDrive/Desktop/GD32VW553/GD32VW55X_Wifi_BLE_SDK/GD32VW55x_RELEASE_V1.0.2/MSDK/plf/GD32VW55x_standard_peripheral/Source\gd32vw55x_cau_aes.c ****             aad_buf[head_index++] = *(uint8_t *)((uint32_t)(aadaddr + i));
 2078              		.loc 1 530 9 is_stmt 0 discriminator 3
 2079 0078 E316D4FE 		bne	s0,a3,.L99
 534:C:/Users/stapi/OneDrive/Desktop/GD32VW553/GD32VW55X_Wifi_BLE_SDK/GD32VW55x_RELEASE_V1.0.2/MSDK/plf/GD32VW55x_standard_peripheral/Source\gd32vw55x_cau_aes.c ****             /* Padd the aad buffer with 0s till the HBuffer length is modulo 16 */
 2080              		.loc 1 534 9 is_stmt 1
 534:C:/Users/stapi/OneDrive/Desktop/GD32VW553/GD32VW55X_Wifi_BLE_SDK/GD32VW55x_RELEASE_V1.0.2/MSDK/plf/GD32VW55x_standard_peripheral/Source\gd32vw55x_cau_aes.c ****             /* Padd the aad buffer with 0s till the HBuffer length is modulo 16 */
 2081              		.loc 1 534 34 is_stmt 0
 2082 007c 13F7FC00 		andi	a4,s9,15
 534:C:/Users/stapi/OneDrive/Desktop/GD32VW553/GD32VW55X_Wifi_BLE_SDK/GD32VW55x_RELEASE_V1.0.2/MSDK/plf/GD32VW55x_standard_peripheral/Source\gd32vw55x_cau_aes.c ****             /* Padd the aad buffer with 0s till the HBuffer length is modulo 16 */
 2083              		.loc 1 534 11
 2084 0080 15C7     		beq	a4,zero,.L100
 536:C:/Users/stapi/OneDrive/Desktop/GD32VW553/GD32VW55X_Wifi_BLE_SDK/GD32VW55x_RELEASE_V1.0.2/MSDK/plf/GD32VW55x_standard_peripheral/Source\gd32vw55x_cau_aes.c ****                 aad_buf[i] = 0U;
 2085              		.loc 1 536 66
 2086 0082 13F70CFF 		andi	a4,s9,-16
 536:C:/Users/stapi/OneDrive/Desktop/GD32VW553/GD32VW55X_Wifi_BLE_SDK/GD32VW55x_RELEASE_V1.0.2/MSDK/plf/GD32VW55x_standard_peripheral/Source\gd32vw55x_cau_aes.c ****                 aad_buf[i] = 0U;
 2087              		.loc 1 536 72
 2088 0086 130B0701 		addi	s6,a4,16
 537:C:/Users/stapi/OneDrive/Desktop/GD32VW553/GD32VW55X_Wifi_BLE_SDK/GD32VW55x_RELEASE_V1.0.2/MSDK/plf/GD32VW55x_standard_peripheral/Source\gd32vw55x_cau_aes.c ****             }
 2089              		.loc 1 537 28
 2090 008a 4507     		addi	a4,a4,17
 2091 008c 0146     		li	a2,0
 2092              	.LVL271:
 2093 008e 63659701 		bgtu	s9,a4,.L102
 2094 0092 33069B41 		sub	a2,s6,s9
 2095 0096 0506     		addi	a2,a2,1
 2096              	.L102:
 2097 0098 33859401 		add	a0,s1,s9
 2098 009c 8145     		li	a1,0
 2099              	.LVL272:
 2100 009e 3EC6     		sw	a5,12(sp)
 2101 00a0 97000000 		call	memset
 2101      E7800000 
 2102              	.LVL273:
 2103 00a8 B247     		lw	a5,12(sp)
 2104 00aa DA8C     		mv	s9,s6
 2105              	.LVL274:
 2106              	.L100:
 543:C:/Users/stapi/OneDrive/Desktop/GD32VW553/GD32VW55X_Wifi_BLE_SDK/GD32VW55x_RELEASE_V1.0.2/MSDK/plf/GD32VW55x_standard_peripheral/Source\gd32vw55x_cau_aes.c ****     }
 2107              		.loc 1 543 9 is_stmt 1
 548:C:/Users/stapi/OneDrive/Desktop/GD32VW553/GD32VW55X_Wifi_BLE_SDK/GD32VW55x_RELEASE_V1.0.2/MSDK/plf/GD32VW55x_standard_peripheral/Source\gd32vw55x_cau_aes.c ****     }
 2108              		.loc 1 548 20 is_stmt 0
 2109 00ac 13070004 		li	a4,64
 543:C:/Users/stapi/OneDrive/Desktop/GD32VW553/GD32VW55X_Wifi_BLE_SDK/GD32VW55x_RELEASE_V1.0.2/MSDK/plf/GD32VW55x_standard_peripheral/Source\gd32vw55x_cau_aes.c ****     }
 2110              		.loc 1 543 17
 2111 00b0 268B     		mv	s6,s1
 2112              	.LVL275:
 547:C:/Users/stapi/OneDrive/Desktop/GD32VW553/GD32VW55X_Wifi_BLE_SDK/GD32VW55x_RELEASE_V1.0.2/MSDK/plf/GD32VW55x_standard_peripheral/Source\gd32vw55x_cau_aes.c ****         blockb0[0] = 0x40U;
 2113              		.loc 1 547 5 is_stmt 1
 548:C:/Users/stapi/OneDrive/Desktop/GD32VW553/GD32VW55X_Wifi_BLE_SDK/GD32VW55x_RELEASE_V1.0.2/MSDK/plf/GD32VW55x_standard_peripheral/Source\gd32vw55x_cau_aes.c ****     }
 2114              		.loc 1 548 9
 548:C:/Users/stapi/OneDrive/Desktop/GD32VW553/GD32VW55X_Wifi_BLE_SDK/GD32VW55x_RELEASE_V1.0.2/MSDK/plf/GD32VW55x_standard_peripheral/Source\gd32vw55x_cau_aes.c ****     }
 2115              		.loc 1 548 20 is_stmt 0
 2116 00b2 2300E102 		sb	a4,32(sp)
 2117              	.LVL276:
 2118              	.L96:
 551:C:/Users/stapi/OneDrive/Desktop/GD32VW553/GD32VW55X_Wifi_BLE_SDK/GD32VW55x_RELEASE_V1.0.2/MSDK/plf/GD32VW55x_standard_peripheral/Source\gd32vw55x_cau_aes.c **** 
 2119              		.loc 1 551 5 is_stmt 1
 551:C:/Users/stapi/OneDrive/Desktop/GD32VW553/GD32VW55X_Wifi_BLE_SDK/GD32VW55x_RELEASE_V1.0.2/MSDK/plf/GD32VW55x_standard_peripheral/Source\gd32vw55x_cau_aes.c **** 
 2120              		.loc 1 551 48 is_stmt 0
 2121 00b6 93F4F90F 		andi	s1,s3,255
 551:C:/Users/stapi/OneDrive/Desktop/GD32VW553/GD32VW55X_Wifi_BLE_SDK/GD32VW55x_RELEASE_V1.0.2/MSDK/plf/GD32VW55x_standard_peripheral/Source\gd32vw55x_cau_aes.c **** 
 2122              		.loc 1 551 16
 2123 00ba 03470102 		lbu	a4,32(sp)
 551:C:/Users/stapi/OneDrive/Desktop/GD32VW553/GD32VW55X_Wifi_BLE_SDK/GD32VW55x_RELEASE_V1.0.2/MSDK/plf/GD32VW55x_standard_peripheral/Source\gd32vw55x_cau_aes.c **** 
 2124              		.loc 1 551 48
 2125 00be F914     		addi	s1,s1,-2
 551:C:/Users/stapi/OneDrive/Desktop/GD32VW553/GD32VW55X_Wifi_BLE_SDK/GD32VW55x_RELEASE_V1.0.2/MSDK/plf/GD32VW55x_standard_peripheral/Source\gd32vw55x_cau_aes.c **** 
 2126              		.loc 1 551 69
 2127 00c0 8A04     		slli	s1,s1,2
 551:C:/Users/stapi/OneDrive/Desktop/GD32VW553/GD32VW55X_Wifi_BLE_SDK/GD32VW55x_RELEASE_V1.0.2/MSDK/plf/GD32VW55x_standard_peripheral/Source\gd32vw55x_cau_aes.c **** 
 2128              		.loc 1 551 23
 2129 00c2 93F48403 		andi	s1,s1,56
 551:C:/Users/stapi/OneDrive/Desktop/GD32VW553/GD32VW55X_Wifi_BLE_SDK/GD32VW55x_RELEASE_V1.0.2/MSDK/plf/GD32VW55x_standard_peripheral/Source\gd32vw55x_cau_aes.c **** 
 2130              		.loc 1 551 16
 2131 00c6 D98C     		or	s1,s1,a4
 551:C:/Users/stapi/OneDrive/Desktop/GD32VW553/GD32VW55X_Wifi_BLE_SDK/GD32VW55x_RELEASE_V1.0.2/MSDK/plf/GD32VW55x_standard_peripheral/Source\gd32vw55x_cau_aes.c **** 
 2132              		.loc 1 551 104
 2133 00c8 3947     		li	a4,14
 2134 00ca 3307A741 		sub	a4,a4,s10
 551:C:/Users/stapi/OneDrive/Desktop/GD32VW553/GD32VW55X_Wifi_BLE_SDK/GD32VW55x_RELEASE_V1.0.2/MSDK/plf/GD32VW55x_standard_peripheral/Source\gd32vw55x_cau_aes.c **** 
 2135              		.loc 1 551 110
 2136 00ce 1D8B     		andi	a4,a4,7
 551:C:/Users/stapi/OneDrive/Desktop/GD32VW553/GD32VW55X_Wifi_BLE_SDK/GD32VW55x_RELEASE_V1.0.2/MSDK/plf/GD32VW55x_standard_peripheral/Source\gd32vw55x_cau_aes.c **** 
 2137              		.loc 1 551 16
 2138 00d0 D98C     		or	s1,s1,a4
 2139 00d2 93F4F40F 		andi	s1,s1,0xff
 2140 00d6 23009102 		sb	s1,32(sp)
 553:C:/Users/stapi/OneDrive/Desktop/GD32VW553/GD32VW55X_Wifi_BLE_SDK/GD32VW55x_RELEASE_V1.0.2/MSDK/plf/GD32VW55x_standard_peripheral/Source\gd32vw55x_cau_aes.c ****         return ERROR;
 2141              		.loc 1 553 5 is_stmt 1
 553:C:/Users/stapi/OneDrive/Desktop/GD32VW553/GD32VW55X_Wifi_BLE_SDK/GD32VW55x_RELEASE_V1.0.2/MSDK/plf/GD32VW55x_standard_peripheral/Source\gd32vw55x_cau_aes.c ****         return ERROR;
 2142              		.loc 1 553 7 is_stmt 0
 2143 00da 3D47     		li	a4,15
 2144 00dc 6365A707 		bgtu	s10,a4,.L103
 2145 00e0 B386A701 		add	a3,a5,s10
 501:C:/Users/stapi/OneDrive/Desktop/GD32VW553/GD32VW55X_Wifi_BLE_SDK/GD32VW55x_RELEASE_V1.0.2/MSDK/plf/GD32VW55x_standard_peripheral/Source\gd32vw55x_cau_aes.c ****     uint32_t ivsize = cau_parameter->iv_size;
 2146              		.loc 1 501 14
 2147 00e4 1810     		addi	a4,sp,32
 2148              	.LVL277:
 2149              	.L104:
 557:C:/Users/stapi/OneDrive/Desktop/GD32VW553/GD32VW55X_Wifi_BLE_SDK/GD32VW55x_RELEASE_V1.0.2/MSDK/plf/GD32VW55x_standard_peripheral/Source\gd32vw55x_cau_aes.c ****         blockb0[i + 1U] = *(uint8_t *)((uint32_t)(ivaddr + i));
 2150              		.loc 1 557 17 is_stmt 1 discriminator 1
 557:C:/Users/stapi/OneDrive/Desktop/GD32VW553/GD32VW55X_Wifi_BLE_SDK/GD32VW55x_RELEASE_V1.0.2/MSDK/plf/GD32VW55x_standard_peripheral/Source\gd32vw55x_cau_aes.c ****         blockb0[i + 1U] = *(uint8_t *)((uint32_t)(ivaddr + i));
 2151              		.loc 1 557 5 is_stmt 0 discriminator 1
 2152 00e6 0507     		addi	a4,a4,1
 2153 00e8 6396F606 		bne	a3,a5,.L106
 562:C:/Users/stapi/OneDrive/Desktop/GD32VW553/GD32VW55X_Wifi_BLE_SDK/GD32VW55x_RELEASE_V1.0.2/MSDK/plf/GD32VW55x_standard_peripheral/Source\gd32vw55x_cau_aes.c ****     /* if the byte length for payload length expressing is more than 4 bytes */
 2154              		.loc 1 562 5 is_stmt 1
 562:C:/Users/stapi/OneDrive/Desktop/GD32VW553/GD32VW55X_Wifi_BLE_SDK/GD32VW55x_RELEASE_V1.0.2/MSDK/plf/GD32VW55x_standard_peripheral/Source\gd32vw55x_cau_aes.c ****     /* if the byte length for payload length expressing is more than 4 bytes */
 2155              		.loc 1 562 10 is_stmt 0
 2156 00ec BD47     		li	a5,15
 2157 00ee B387A741 		sub	a5,a5,s10
 2158              	.LVL278:
 564:C:/Users/stapi/OneDrive/Desktop/GD32VW553/GD32VW55X_Wifi_BLE_SDK/GD32VW55x_RELEASE_V1.0.2/MSDK/plf/GD32VW55x_standard_peripheral/Source\gd32vw55x_cau_aes.c ****         /* pad the blockb0 after vectors, and before the last 4 bytes */
 2159              		.loc 1 564 5 is_stmt 1
 564:C:/Users/stapi/OneDrive/Desktop/GD32VW553/GD32VW55X_Wifi_BLE_SDK/GD32VW55x_RELEASE_V1.0.2/MSDK/plf/GD32VW55x_standard_peripheral/Source\gd32vw55x_cau_aes.c ****         /* pad the blockb0 after vectors, and before the last 4 bytes */
 2160              		.loc 1 564 7 is_stmt 0
 2161 00f2 1147     		li	a4,4
 2162 00f4 6366F706 		bgtu	a5,a4,.L107
 2163 00f8 8E07     		slli	a5,a5,3
 2164              	.LVL279:
 2165 00fa 6A87     		mv	a4,s10
 575:C:/Users/stapi/OneDrive/Desktop/GD32VW553/GD32VW55X_Wifi_BLE_SDK/GD32VW55x_RELEASE_V1.0.2/MSDK/plf/GD32VW55x_standard_peripheral/Source\gd32vw55x_cau_aes.c ****             blockb0[i + 1U] = (uint8_t)((inputsize >> ((plen - 1U) * 8U)) & 0xFFU);
 2166              		.loc 1 575 9
 2167 00fc BD46     		li	a3,15
 2168              	.LVL280:
 2169              	.L108:
 575:C:/Users/stapi/OneDrive/Desktop/GD32VW553/GD32VW55X_Wifi_BLE_SDK/GD32VW55x_RELEASE_V1.0.2/MSDK/plf/GD32VW55x_standard_peripheral/Source\gd32vw55x_cau_aes.c ****             blockb0[i + 1U] = (uint8_t)((inputsize >> ((plen - 1U) * 8U)) & 0xFFU);
 2170              		.loc 1 575 15 is_stmt 1 discriminator 1
 575:C:/Users/stapi/OneDrive/Desktop/GD32VW553/GD32VW55X_Wifi_BLE_SDK/GD32VW55x_RELEASE_V1.0.2/MSDK/plf/GD32VW55x_standard_peripheral/Source\gd32vw55x_cau_aes.c ****             blockb0[i + 1U] = (uint8_t)((inputsize >> ((plen - 1U) * 8U)) & 0xFFU);
 2171              		.loc 1 575 9 is_stmt 0 discriminator 1
 2172 00fe E117     		addi	a5,a5,-8
 2173 0100 6300D708 		beq	a4,a3,.L111
 576:C:/Users/stapi/OneDrive/Desktop/GD32VW553/GD32VW55X_Wifi_BLE_SDK/GD32VW55x_RELEASE_V1.0.2/MSDK/plf/GD32VW55x_standard_peripheral/Source\gd32vw55x_cau_aes.c ****             plen--;
 2174              		.loc 1 576 13 is_stmt 1 discriminator 2
 576:C:/Users/stapi/OneDrive/Desktop/GD32VW553/GD32VW55X_Wifi_BLE_SDK/GD32VW55x_RELEASE_V1.0.2/MSDK/plf/GD32VW55x_standard_peripheral/Source\gd32vw55x_cau_aes.c ****             plen--;
 2175              		.loc 1 576 23 is_stmt 0 discriminator 2
 2176 0104 0507     		addi	a4,a4,1
 2177              	.LVL281:
 576:C:/Users/stapi/OneDrive/Desktop/GD32VW553/GD32VW55X_Wifi_BLE_SDK/GD32VW55x_RELEASE_V1.0.2/MSDK/plf/GD32VW55x_standard_peripheral/Source\gd32vw55x_cau_aes.c ****             plen--;
 2178              		.loc 1 576 29 discriminator 2
 2179 0106 1010     		addi	a2,sp,32
 2180              	.LVL282:
 2181 0108 3A96     		add	a2,a2,a4
 2182              	.LVL283:
 576:C:/Users/stapi/OneDrive/Desktop/GD32VW553/GD32VW55X_Wifi_BLE_SDK/GD32VW55x_RELEASE_V1.0.2/MSDK/plf/GD32VW55x_standard_peripheral/Source\gd32vw55x_cau_aes.c ****             plen--;
 2183              		.loc 1 576 52 discriminator 2
 2184 010a B3D5FD00 		srl	a1,s11,a5
 576:C:/Users/stapi/OneDrive/Desktop/GD32VW553/GD32VW55X_Wifi_BLE_SDK/GD32VW55x_RELEASE_V1.0.2/MSDK/plf/GD32VW55x_standard_peripheral/Source\gd32vw55x_cau_aes.c ****             plen--;
 2185              		.loc 1 576 31 discriminator 2
 2186 010e 2300B600 		sb	a1,0(a2)
 577:C:/Users/stapi/OneDrive/Desktop/GD32VW553/GD32VW55X_Wifi_BLE_SDK/GD32VW55x_RELEASE_V1.0.2/MSDK/plf/GD32VW55x_standard_peripheral/Source\gd32vw55x_cau_aes.c ****         }
 2187              		.loc 1 577 13 is_stmt 1 discriminator 2
 2188              	.LVL284:
 575:C:/Users/stapi/OneDrive/Desktop/GD32VW553/GD32VW55X_Wifi_BLE_SDK/GD32VW55x_RELEASE_V1.0.2/MSDK/plf/GD32VW55x_standard_peripheral/Source\gd32vw55x_cau_aes.c ****             blockb0[i + 1U] = (uint8_t)((inputsize >> ((plen - 1U) * 8U)) & 0xFFU);
 2189              		.loc 1 575 24 discriminator 2
 2190 0112 F5B7     		j	.L108
 2191              	.LVL285:
 2192              	.L97:
 521:C:/Users/stapi/OneDrive/Desktop/GD32VW553/GD32VW55X_Wifi_BLE_SDK/GD32VW55x_RELEASE_V1.0.2/MSDK/plf/GD32VW55x_standard_peripheral/Source\gd32vw55x_cau_aes.c ****             aad_buf[head_index++] = 0xFEU;
 2193              		.loc 1 521 13
 521:C:/Users/stapi/OneDrive/Desktop/GD32VW553/GD32VW55X_Wifi_BLE_SDK/GD32VW55x_RELEASE_V1.0.2/MSDK/plf/GD32VW55x_standard_peripheral/Source\gd32vw55x_cau_aes.c ****             aad_buf[head_index++] = 0xFEU;
 2194              		.loc 1 521 35 is_stmt 0
 2195 0114 FD56     		li	a3,-1
 2196 0116 2380D400 		sb	a3,0(s1)
 522:C:/Users/stapi/OneDrive/Desktop/GD32VW553/GD32VW55X_Wifi_BLE_SDK/GD32VW55x_RELEASE_V1.0.2/MSDK/plf/GD32VW55x_standard_peripheral/Source\gd32vw55x_cau_aes.c ****             aad_buf[head_index++] = (uint8_t)((aadsize & 0xFF000000U) >> 24U);
 2197              		.loc 1 522 13 is_stmt 1
 2198              	.LVL286:
 522:C:/Users/stapi/OneDrive/Desktop/GD32VW553/GD32VW55X_Wifi_BLE_SDK/GD32VW55x_RELEASE_V1.0.2/MSDK/plf/GD32VW55x_standard_peripheral/Source\gd32vw55x_cau_aes.c ****             aad_buf[head_index++] = (uint8_t)((aadsize & 0xFF000000U) >> 24U);
 2199              		.loc 1 522 35 is_stmt 0
 2200 011a F956     		li	a3,-2
 2201 011c A380D400 		sb	a3,1(s1)
 523:C:/Users/stapi/OneDrive/Desktop/GD32VW553/GD32VW55X_Wifi_BLE_SDK/GD32VW55x_RELEASE_V1.0.2/MSDK/plf/GD32VW55x_standard_peripheral/Source\gd32vw55x_cau_aes.c ****             aad_buf[head_index++] = (uint8_t)((aadsize & 0x00FF0000U) >> 16U);
 2202              		.loc 1 523 13 is_stmt 1
 2203              	.LVL287:
 523:C:/Users/stapi/OneDrive/Desktop/GD32VW553/GD32VW55X_Wifi_BLE_SDK/GD32VW55x_RELEASE_V1.0.2/MSDK/plf/GD32VW55x_standard_peripheral/Source\gd32vw55x_cau_aes.c ****             aad_buf[head_index++] = (uint8_t)((aadsize & 0x00FF0000U) >> 16U);
 2204              		.loc 1 523 71 is_stmt 0
 2205 0120 93568401 		srli	a3,s0,24
 523:C:/Users/stapi/OneDrive/Desktop/GD32VW553/GD32VW55X_Wifi_BLE_SDK/GD32VW55x_RELEASE_V1.0.2/MSDK/plf/GD32VW55x_standard_peripheral/Source\gd32vw55x_cau_aes.c ****             aad_buf[head_index++] = (uint8_t)((aadsize & 0x00FF0000U) >> 16U);
 2206              		.loc 1 523 37
 2207 0124 2381D400 		sb	a3,2(s1)
 524:C:/Users/stapi/OneDrive/Desktop/GD32VW553/GD32VW55X_Wifi_BLE_SDK/GD32VW55x_RELEASE_V1.0.2/MSDK/plf/GD32VW55x_standard_peripheral/Source\gd32vw55x_cau_aes.c ****             aad_buf[head_index++] = (uint8_t)((aadsize & 0x0000FF00U) >> 8U);
 2208              		.loc 1 524 13 is_stmt 1
 2209              	.LVL288:
 524:C:/Users/stapi/OneDrive/Desktop/GD32VW553/GD32VW55X_Wifi_BLE_SDK/GD32VW55x_RELEASE_V1.0.2/MSDK/plf/GD32VW55x_standard_peripheral/Source\gd32vw55x_cau_aes.c ****             aad_buf[head_index++] = (uint8_t)((aadsize & 0x0000FF00U) >> 8U);
 2210              		.loc 1 524 71 is_stmt 0
 2211 0128 93560401 		srli	a3,s0,16
 526:C:/Users/stapi/OneDrive/Desktop/GD32VW553/GD32VW55X_Wifi_BLE_SDK/GD32VW55x_RELEASE_V1.0.2/MSDK/plf/GD32VW55x_standard_peripheral/Source\gd32vw55x_cau_aes.c ****             aad_block_size = aadsize + 6U;
 2212              		.loc 1 526 35
 2213 012c A382C400 		sb	a2,5(s1)
 524:C:/Users/stapi/OneDrive/Desktop/GD32VW553/GD32VW55X_Wifi_BLE_SDK/GD32VW55x_RELEASE_V1.0.2/MSDK/plf/GD32VW55x_standard_peripheral/Source\gd32vw55x_cau_aes.c ****             aad_buf[head_index++] = (uint8_t)((aadsize & 0x0000FF00U) >> 8U);
 2214              		.loc 1 524 37
 2215 0130 A381D400 		sb	a3,3(s1)
 525:C:/Users/stapi/OneDrive/Desktop/GD32VW553/GD32VW55X_Wifi_BLE_SDK/GD32VW55x_RELEASE_V1.0.2/MSDK/plf/GD32VW55x_standard_peripheral/Source\gd32vw55x_cau_aes.c ****             aad_buf[head_index++] = (uint8_t)(aadsize & 0x000000FFU);
 2216              		.loc 1 525 13 is_stmt 1
 2217              	.LVL289:
 525:C:/Users/stapi/OneDrive/Desktop/GD32VW553/GD32VW55X_Wifi_BLE_SDK/GD32VW55x_RELEASE_V1.0.2/MSDK/plf/GD32VW55x_standard_peripheral/Source\gd32vw55x_cau_aes.c ****             aad_buf[head_index++] = (uint8_t)(aadsize & 0x000000FFU);
 2218              		.loc 1 525 35 is_stmt 0
 2219 0134 2382E400 		sb	a4,4(s1)
 526:C:/Users/stapi/OneDrive/Desktop/GD32VW553/GD32VW55X_Wifi_BLE_SDK/GD32VW55x_RELEASE_V1.0.2/MSDK/plf/GD32VW55x_standard_peripheral/Source\gd32vw55x_cau_aes.c ****             aad_block_size = aadsize + 6U;
 2220              		.loc 1 526 13 is_stmt 1
 2221              	.LVL290:
 527:C:/Users/stapi/OneDrive/Desktop/GD32VW553/GD32VW55X_Wifi_BLE_SDK/GD32VW55x_RELEASE_V1.0.2/MSDK/plf/GD32VW55x_standard_peripheral/Source\gd32vw55x_cau_aes.c ****         }
 2222              		.loc 1 527 13
 527:C:/Users/stapi/OneDrive/Desktop/GD32VW553/GD32VW55X_Wifi_BLE_SDK/GD32VW55x_RELEASE_V1.0.2/MSDK/plf/GD32VW55x_standard_peripheral/Source\gd32vw55x_cau_aes.c ****         }
 2223              		.loc 1 527 28 is_stmt 0
 2224 0138 930C6400 		addi	s9,s0,6
 2225              	.LVL291:
 526:C:/Users/stapi/OneDrive/Desktop/GD32VW553/GD32VW55X_Wifi_BLE_SDK/GD32VW55x_RELEASE_V1.0.2/MSDK/plf/GD32VW55x_standard_peripheral/Source\gd32vw55x_cau_aes.c ****             aad_block_size = aadsize + 6U;
 2226              		.loc 1 526 31
 2227 013c 1946     		li	a2,6
 2228 013e 15B7     		j	.L98
 2229              	.LVL292:
 2230              	.L143:
 2231 0140 2E8B     		mv	s6,a1
 2232 0142 814C     		li	s9,0
 2233 0144 8DBF     		j	.L96
 2234              	.LVL293:
 2235              	.L103:
 554:C:/Users/stapi/OneDrive/Desktop/GD32VW553/GD32VW55X_Wifi_BLE_SDK/GD32VW55x_RELEASE_V1.0.2/MSDK/plf/GD32VW55x_standard_peripheral/Source\gd32vw55x_cau_aes.c ****     }
 2236              		.loc 1 554 16
 2237 0146 0144     		li	s0,0
 2238              	.L95:
 705:C:/Users/stapi/OneDrive/Desktop/GD32VW553/GD32VW55X_Wifi_BLE_SDK/GD32VW55x_RELEASE_V1.0.2/MSDK/plf/GD32VW55x_standard_peripheral/Source\gd32vw55x_cau_aes.c **** /*!
 2239              		.loc 1 705 1
 2240 0148 2285     		mv	a0,s0
 2241 014a 6561     		addi	sp,sp,112
 2242              		.cfi_remember_state
 2243              		.cfi_def_cfa_offset 0
 2244 014c 17030000 		tail	__riscv_restore_12
 2244      67000300 
 2245              		.cfi_restore 27
 2246              		.cfi_restore 26
 2247              		.cfi_restore 25
 2248              		.cfi_restore 24
 2249              		.cfi_restore 23
 2250              		.cfi_restore 22
 2251              		.cfi_restore 21
 2252              		.cfi_restore 20
 2253              		.cfi_restore 19
 2254              		.cfi_restore 18
 2255              		.cfi_restore 9
 2256              		.cfi_restore 8
 2257              		.cfi_restore 1
 2258              		.cfi_def_cfa_offset -64
 2259              	.LVL294:
 2260              	.L106:
 2261              		.cfi_restore_state
 558:C:/Users/stapi/OneDrive/Desktop/GD32VW553/GD32VW55X_Wifi_BLE_SDK/GD32VW55x_RELEASE_V1.0.2/MSDK/plf/GD32VW55x_standard_peripheral/Source\gd32vw55x_cau_aes.c ****     }
 2262              		.loc 1 558 9 is_stmt 1 discriminator 3
 558:C:/Users/stapi/OneDrive/Desktop/GD32VW553/GD32VW55X_Wifi_BLE_SDK/GD32VW55x_RELEASE_V1.0.2/MSDK/plf/GD32VW55x_standard_peripheral/Source\gd32vw55x_cau_aes.c ****     }
 2263              		.loc 1 558 25 is_stmt 0 discriminator 3
 2264 0154 03C60700 		lbu	a2,0(a5)
 2265 0158 8507     		addi	a5,a5,1
 2266 015a 2300C700 		sb	a2,0(a4)
 557:C:/Users/stapi/OneDrive/Desktop/GD32VW553/GD32VW55X_Wifi_BLE_SDK/GD32VW55x_RELEASE_V1.0.2/MSDK/plf/GD32VW55x_standard_peripheral/Source\gd32vw55x_cau_aes.c ****         blockb0[i + 1U] = *(uint8_t *)((uint32_t)(ivaddr + i));
 2267              		.loc 1 557 29 is_stmt 1 discriminator 3
 2268 015e 61B7     		j	.L104
 2269              	.LVL295:
 2270              	.L107:
 567:C:/Users/stapi/OneDrive/Desktop/GD32VW553/GD32VW55X_Wifi_BLE_SDK/GD32VW55x_RELEASE_V1.0.2/MSDK/plf/GD32VW55x_standard_peripheral/Source\gd32vw55x_cau_aes.c ****         }
 2271              		.loc 1 567 29 is_stmt 0
 2272 0160 AD47     		li	a5,11
 2273              	.LVL296:
 2274 0162 0146     		li	a2,0
 2275 0164 63E4A701 		bgtu	s10,a5,.L110
 2276 0168 3386A741 		sub	a2,a5,s10
 2277              	.L110:
 2278 016c 1C10     		addi	a5,sp,32
 2279              	.LVL297:
 2280 016e 13051D00 		addi	a0,s10,1
 2281 0172 8145     		li	a1,0
 2282 0174 3E95     		add	a0,a5,a0
 2283 0176 97000000 		call	memset
 2283      E7800000 
 2284              	.LVL298:
 569:C:/Users/stapi/OneDrive/Desktop/GD32VW553/GD32VW55X_Wifi_BLE_SDK/GD32VW55x_RELEASE_V1.0.2/MSDK/plf/GD32VW55x_standard_peripheral/Source\gd32vw55x_cau_aes.c ****         blockb0[13U] = (uint8_t)((inputsize >> 16U) & 0xFFU);
 2285              		.loc 1 569 9 is_stmt 1
 570:C:/Users/stapi/OneDrive/Desktop/GD32VW553/GD32VW55X_Wifi_BLE_SDK/GD32VW55x_RELEASE_V1.0.2/MSDK/plf/GD32VW55x_standard_peripheral/Source\gd32vw55x_cau_aes.c ****         blockb0[14U] = (uint8_t)((inputsize >> 8U) & 0xFFU);
 2286              		.loc 1 570 9
 571:C:/Users/stapi/OneDrive/Desktop/GD32VW553/GD32VW55X_Wifi_BLE_SDK/GD32VW55x_RELEASE_V1.0.2/MSDK/plf/GD32VW55x_standard_peripheral/Source\gd32vw55x_cau_aes.c ****         blockb0[15U] = (uint8_t)(inputsize & 0xFFU);
 2287              		.loc 1 571 9
 572:C:/Users/stapi/OneDrive/Desktop/GD32VW553/GD32VW55X_Wifi_BLE_SDK/GD32VW55x_RELEASE_V1.0.2/MSDK/plf/GD32VW55x_standard_peripheral/Source\gd32vw55x_cau_aes.c ****     } else {
 2288              		.loc 1 572 9
 569:C:/Users/stapi/OneDrive/Desktop/GD32VW553/GD32VW55X_Wifi_BLE_SDK/GD32VW55x_RELEASE_V1.0.2/MSDK/plf/GD32VW55x_standard_peripheral/Source\gd32vw55x_cau_aes.c ****         blockb0[13U] = (uint8_t)((inputsize >> 16U) & 0xFFU);
 2289              		.loc 1 569 22 is_stmt 0
 2290 017e 62D6     		sw	s8,44(sp)
 2291              	.LVL299:
 2292              	.L111:
 583:C:/Users/stapi/OneDrive/Desktop/GD32VW553/GD32VW55X_Wifi_BLE_SDK/GD32VW55x_RELEASE_V1.0.2/MSDK/plf/GD32VW55x_standard_peripheral/Source\gd32vw55x_cau_aes.c ****     for(i = 1U; i < ivsize + 1U; i++) {
 2293              		.loc 1 583 5 is_stmt 1
 585:C:/Users/stapi/OneDrive/Desktop/GD32VW553/GD32VW55X_Wifi_BLE_SDK/GD32VW55x_RELEASE_V1.0.2/MSDK/plf/GD32VW55x_standard_peripheral/Source\gd32vw55x_cau_aes.c ****     }
 2294              		.loc 1 585 20 is_stmt 0
 2295 0180 6A86     		mv	a2,s10
 2296 0182 93051102 		addi	a1,sp,33
 583:C:/Users/stapi/OneDrive/Desktop/GD32VW553/GD32VW55X_Wifi_BLE_SDK/GD32VW55x_RELEASE_V1.0.2/MSDK/plf/GD32VW55x_standard_peripheral/Source\gd32vw55x_cau_aes.c ****     for(i = 1U; i < ivsize + 1U; i++) {
 2297              		.loc 1 583 29
 2298 0186 9D88     		andi	s1,s1,7
 585:C:/Users/stapi/OneDrive/Desktop/GD32VW553/GD32VW55X_Wifi_BLE_SDK/GD32VW55x_RELEASE_V1.0.2/MSDK/plf/GD32VW55x_standard_peripheral/Source\gd32vw55x_cau_aes.c ****     }
 2299              		.loc 1 585 20
 2300 0188 13051103 		addi	a0,sp,49
 583:C:/Users/stapi/OneDrive/Desktop/GD32VW553/GD32VW55X_Wifi_BLE_SDK/GD32VW55x_RELEASE_V1.0.2/MSDK/plf/GD32VW55x_standard_peripheral/Source\gd32vw55x_cau_aes.c ****     for(i = 1U; i < ivsize + 1U; i++) {
 2301              		.loc 1 583 16
 2302 018c 23089102 		sb	s1,48(sp)
 584:C:/Users/stapi/OneDrive/Desktop/GD32VW553/GD32VW55X_Wifi_BLE_SDK/GD32VW55x_RELEASE_V1.0.2/MSDK/plf/GD32VW55x_standard_peripheral/Source\gd32vw55x_cau_aes.c ****         counter[i] = blockb0[i];
 2303              		.loc 1 584 5 is_stmt 1
 2304              	.LVL300:
 585:C:/Users/stapi/OneDrive/Desktop/GD32VW553/GD32VW55X_Wifi_BLE_SDK/GD32VW55x_RELEASE_V1.0.2/MSDK/plf/GD32VW55x_standard_peripheral/Source\gd32vw55x_cau_aes.c ****     }
 2305              		.loc 1 585 20 is_stmt 0
 2306 0190 97000000 		call	memcpy
 2306      E7800000 
 2307              	.LVL301:
 588:C:/Users/stapi/OneDrive/Desktop/GD32VW553/GD32VW55X_Wifi_BLE_SDK/GD32VW55x_RELEASE_V1.0.2/MSDK/plf/GD32VW55x_standard_peripheral/Source\gd32vw55x_cau_aes.c **** 
 2308              		.loc 1 588 5 is_stmt 1
 588:C:/Users/stapi/OneDrive/Desktop/GD32VW553/GD32VW55X_Wifi_BLE_SDK/GD32VW55x_RELEASE_V1.0.2/MSDK/plf/GD32VW55x_standard_peripheral/Source\gd32vw55x_cau_aes.c **** 
 2309              		.loc 1 588 17 is_stmt 0
 2310 0198 8347F103 		lbu	a5,63(sp)
 631:C:/Users/stapi/OneDrive/Desktop/GD32VW553/GD32VW55X_Wifi_BLE_SDK/GD32VW55x_RELEASE_V1.0.2/MSDK/plf/GD32VW55x_standard_peripheral/Source\gd32vw55x_cau_aes.c ****     }
 2311              		.loc 1 631 10
 2312 019c 054C     		li	s8,1
 588:C:/Users/stapi/OneDrive/Desktop/GD32VW553/GD32VW55X_Wifi_BLE_SDK/GD32VW55x_RELEASE_V1.0.2/MSDK/plf/GD32VW55x_standard_peripheral/Source\gd32vw55x_cau_aes.c **** 
 2313              		.loc 1 588 17
 2314 019e 93E71700 		ori	a5,a5,1
 2315 01a2 A30FF102 		sb	a5,63(sp)
 592:C:/Users/stapi/OneDrive/Desktop/GD32VW553/GD32VW55X_Wifi_BLE_SDK/GD32VW55x_RELEASE_V1.0.2/MSDK/plf/GD32VW55x_standard_peripheral/Source\gd32vw55x_cau_aes.c ****     /* clear CAUEN bit to ensure CAU is disable */
 2316              		.loc 1 592 5 is_stmt 1
 2317 01a6 97000000 		call	cau_fifo_flush
 2317      E7800000 
 2318              	.LVL302:
 594:C:/Users/stapi/OneDrive/Desktop/GD32VW553/GD32VW55X_Wifi_BLE_SDK/GD32VW55x_RELEASE_V1.0.2/MSDK/plf/GD32VW55x_standard_peripheral/Source\gd32vw55x_cau_aes.c **** 
 2319              		.loc 1 594 5
 2320 01ae 97000000 		call	cau_disable
 2320      E7800000 
 2321              	.LVL303:
 597:C:/Users/stapi/OneDrive/Desktop/GD32VW553/GD32VW55X_Wifi_BLE_SDK/GD32VW55x_RELEASE_V1.0.2/MSDK/plf/GD32VW55x_standard_peripheral/Source\gd32vw55x_cau_aes.c ****     /* initialize the CAU peripheral */
 2322              		.loc 1 597 5
 2323 01b6 8808     		addi	a0,sp,80
 2324 01b8 97000000 		call	cau_key_struct_para_init
 2324      E7800000 
 2325              	.LVL304:
 599:C:/Users/stapi/OneDrive/Desktop/GD32VW553/GD32VW55X_Wifi_BLE_SDK/GD32VW55x_RELEASE_V1.0.2/MSDK/plf/GD32VW55x_standard_peripheral/Source\gd32vw55x_cau_aes.c ****     /* select prepare phase */
 2326              		.loc 1 599 5
 2327 01c0 03250900 		lw	a0,0(s2)
 2328 01c4 B7050800 		li	a1,524288
 2329 01c8 13060008 		li	a2,128
 2330 01cc A105     		addi	a1,a1,8
 2331 01ce 97000000 		call	cau_init
 2331      E7800000 
 2332              	.LVL305:
 601:C:/Users/stapi/OneDrive/Desktop/GD32VW553/GD32VW55X_Wifi_BLE_SDK/GD32VW55x_RELEASE_V1.0.2/MSDK/plf/GD32VW55x_standard_peripheral/Source\gd32vw55x_cau_aes.c **** 
 2333              		.loc 1 601 5
 2334 01d6 0145     		li	a0,0
 2335 01d8 97000000 		call	cau_phase_config
 2335      E7800000 
 2336              	.LVL306:
 604:C:/Users/stapi/OneDrive/Desktop/GD32VW553/GD32VW55X_Wifi_BLE_SDK/GD32VW55x_RELEASE_V1.0.2/MSDK/plf/GD32VW55x_standard_peripheral/Source\gd32vw55x_cau_aes.c ****     /* key initialization */
 2337              		.loc 1 604 5
 2338 01e0 83258900 		lw	a1,8(s2)
 2339 01e4 03254900 		lw	a0,4(s2)
 2340 01e8 9008     		addi	a2,sp,80
 2341 01ea 97000000 		call	cau_aes_key_config
 2341      E7800000 
 2342              	.LVL307:
 606:C:/Users/stapi/OneDrive/Desktop/GD32VW553/GD32VW55X_Wifi_BLE_SDK/GD32VW55x_RELEASE_V1.0.2/MSDK/plf/GD32VW55x_standard_peripheral/Source\gd32vw55x_cau_aes.c **** 
 2343              		.loc 1 606 5
 2344 01f2 8808     		addi	a0,sp,80
 2345 01f4 97000000 		call	cau_key_init
 2345      E7800000 
 2346              	.LVL308:
 609:C:/Users/stapi/OneDrive/Desktop/GD32VW553/GD32VW55X_Wifi_BLE_SDK/GD32VW55x_RELEASE_V1.0.2/MSDK/plf/GD32VW55x_standard_peripheral/Source\gd32vw55x_cau_aes.c ****     ctraddr += 4U;
 2347              		.loc 1 609 5
 2348 01fc C254     		lw	s1,48(sp)
 616:C:/Users/stapi/OneDrive/Desktop/GD32VW553/GD32VW55X_Wifi_BLE_SDK/GD32VW55x_RELEASE_V1.0.2/MSDK/plf/GD32VW55x_standard_peripheral/Source\gd32vw55x_cau_aes.c **** 
 2349              		.loc 1 616 5 is_stmt 0
 2350 01fe 0808     		addi	a0,sp,16
 2351 0200 93D78469 		rev8	a5,s1
 2352              	.LVL309:
 2353              	.LBB180:
 2354              	.LBB181:
 122:..\..\..\..\plf\riscv\NMSIS\Core\Include/core_compatiable.h **** 
 2355              		.loc 2 122 5 is_stmt 1
 124:..\..\..\..\plf\riscv\NMSIS\Core\Include/core_compatiable.h ****         | ((value & 0x00ff0000) >> 8 )
 2356              		.loc 2 124 5
 2357              		.loc 2 128 5
 2358              	.LBE181:
 2359              	.LBE180:
 609:C:/Users/stapi/OneDrive/Desktop/GD32VW553/GD32VW55X_Wifi_BLE_SDK/GD32VW55x_RELEASE_V1.0.2/MSDK/plf/GD32VW55x_standard_peripheral/Source\gd32vw55x_cau_aes.c ****     ctraddr += 4U;
 2360              		.loc 1 609 27 is_stmt 0
 2361 0204 3EC8     		sw	a5,16(sp)
 610:C:/Users/stapi/OneDrive/Desktop/GD32VW553/GD32VW55X_Wifi_BLE_SDK/GD32VW55x_RELEASE_V1.0.2/MSDK/plf/GD32VW55x_standard_peripheral/Source\gd32vw55x_cau_aes.c ****     iv_initpara.iv_0_low = __REV(*(uint32_t *)(ctraddr));
 2362              		.loc 1 610 5 is_stmt 1
 2363              	.LVL310:
 611:C:/Users/stapi/OneDrive/Desktop/GD32VW553/GD32VW55X_Wifi_BLE_SDK/GD32VW55x_RELEASE_V1.0.2/MSDK/plf/GD32VW55x_standard_peripheral/Source\gd32vw55x_cau_aes.c ****     ctraddr += 4U;
 2364              		.loc 1 611 5
 2365 0206 D257     		lw	a5,52(sp)
 2366 0208 93D78769 		rev8	a5,a5
 2367              	.LVL311:
 2368              	.LBB182:
 2369              	.LBB183:
 122:..\..\..\..\plf\riscv\NMSIS\Core\Include/core_compatiable.h **** 
 2370              		.loc 2 122 5
 124:..\..\..\..\plf\riscv\NMSIS\Core\Include/core_compatiable.h ****         | ((value & 0x00ff0000) >> 8 )
 2371              		.loc 2 124 5
 2372              		.loc 2 128 5
 2373              	.LBE183:
 2374              	.LBE182:
 611:C:/Users/stapi/OneDrive/Desktop/GD32VW553/GD32VW55X_Wifi_BLE_SDK/GD32VW55x_RELEASE_V1.0.2/MSDK/plf/GD32VW55x_standard_peripheral/Source\gd32vw55x_cau_aes.c ****     ctraddr += 4U;
 2375              		.loc 1 611 26 is_stmt 0
 2376 020c 3ECA     		sw	a5,20(sp)
 612:C:/Users/stapi/OneDrive/Desktop/GD32VW553/GD32VW55X_Wifi_BLE_SDK/GD32VW55x_RELEASE_V1.0.2/MSDK/plf/GD32VW55x_standard_peripheral/Source\gd32vw55x_cau_aes.c ****     iv_initpara.iv_1_high = __REV(*(uint32_t *)(ctraddr));
 2377              		.loc 1 612 5 is_stmt 1
 2378              	.LVL312:
 613:C:/Users/stapi/OneDrive/Desktop/GD32VW553/GD32VW55X_Wifi_BLE_SDK/GD32VW55x_RELEASE_V1.0.2/MSDK/plf/GD32VW55x_standard_peripheral/Source\gd32vw55x_cau_aes.c ****     ctraddr += 4U;
 2379              		.loc 1 613 5
 2380 020e E257     		lw	a5,56(sp)
 2381 0210 93D78769 		rev8	a5,a5
 2382              	.LVL313:
 2383              	.LBB184:
 2384              	.LBB185:
 122:..\..\..\..\plf\riscv\NMSIS\Core\Include/core_compatiable.h **** 
 2385              		.loc 2 122 5
 124:..\..\..\..\plf\riscv\NMSIS\Core\Include/core_compatiable.h ****         | ((value & 0x00ff0000) >> 8 )
 2386              		.loc 2 124 5
 2387              		.loc 2 128 5
 2388              	.LBE185:
 2389              	.LBE184:
 613:C:/Users/stapi/OneDrive/Desktop/GD32VW553/GD32VW55X_Wifi_BLE_SDK/GD32VW55x_RELEASE_V1.0.2/MSDK/plf/GD32VW55x_standard_peripheral/Source\gd32vw55x_cau_aes.c ****     ctraddr += 4U;
 2390              		.loc 1 613 27 is_stmt 0
 2391 0214 3ECC     		sw	a5,24(sp)
 614:C:/Users/stapi/OneDrive/Desktop/GD32VW553/GD32VW55X_Wifi_BLE_SDK/GD32VW55x_RELEASE_V1.0.2/MSDK/plf/GD32VW55x_standard_peripheral/Source\gd32vw55x_cau_aes.c ****     iv_initpara.iv_1_low = __REV(*(uint32_t *)(ctraddr));
 2392              		.loc 1 614 5 is_stmt 1
 2393              	.LVL314:
 615:C:/Users/stapi/OneDrive/Desktop/GD32VW553/GD32VW55X_Wifi_BLE_SDK/GD32VW55x_RELEASE_V1.0.2/MSDK/plf/GD32VW55x_standard_peripheral/Source\gd32vw55x_cau_aes.c ****     cau_iv_init(&iv_initpara);
 2394              		.loc 1 615 5
 2395 0216 F257     		lw	a5,60(sp)
 2396 0218 93D78769 		rev8	a5,a5
 2397              	.LVL315:
 2398              	.LBB186:
 2399              	.LBB187:
 122:..\..\..\..\plf\riscv\NMSIS\Core\Include/core_compatiable.h **** 
 2400              		.loc 2 122 5
 124:..\..\..\..\plf\riscv\NMSIS\Core\Include/core_compatiable.h ****         | ((value & 0x00ff0000) >> 8 )
 2401              		.loc 2 124 5
 2402              		.loc 2 128 5
 2403              	.LBE187:
 2404              	.LBE186:
 615:C:/Users/stapi/OneDrive/Desktop/GD32VW553/GD32VW55X_Wifi_BLE_SDK/GD32VW55x_RELEASE_V1.0.2/MSDK/plf/GD32VW55x_standard_peripheral/Source\gd32vw55x_cau_aes.c ****     cau_iv_init(&iv_initpara);
 2405              		.loc 1 615 26 is_stmt 0
 2406 021c 3ECE     		sw	a5,28(sp)
 616:C:/Users/stapi/OneDrive/Desktop/GD32VW553/GD32VW55X_Wifi_BLE_SDK/GD32VW55x_RELEASE_V1.0.2/MSDK/plf/GD32VW55x_standard_peripheral/Source\gd32vw55x_cau_aes.c **** 
 2407              		.loc 1 616 5 is_stmt 1
 2408 021e 97000000 		call	cau_iv_init
 2408      E7800000 
 2409              	.LVL316:
 619:C:/Users/stapi/OneDrive/Desktop/GD32VW553/GD32VW55X_Wifi_BLE_SDK/GD32VW55x_RELEASE_V1.0.2/MSDK/plf/GD32VW55x_standard_peripheral/Source\gd32vw55x_cau_aes.c **** 
 2410              		.loc 1 619 5
 2411 0226 97000000 		call	cau_enable
 2411      E7800000 
 2412              	.LVL317:
 622:C:/Users/stapi/OneDrive/Desktop/GD32VW553/GD32VW55X_Wifi_BLE_SDK/GD32VW55x_RELEASE_V1.0.2/MSDK/plf/GD32VW55x_standard_peripheral/Source\gd32vw55x_cau_aes.c ****     b0addr += 4U;
 2413              		.loc 1 622 5
 2414 022e 0255     		lw	a0,32(sp)
 2415 0230 97000000 		call	cau_data_write
 2415      E7800000 
 2416              	.LVL318:
 623:C:/Users/stapi/OneDrive/Desktop/GD32VW553/GD32VW55X_Wifi_BLE_SDK/GD32VW55x_RELEASE_V1.0.2/MSDK/plf/GD32VW55x_standard_peripheral/Source\gd32vw55x_cau_aes.c ****     cau_data_write(*(uint32_t *)(b0addr));
 2417              		.loc 1 623 5
 624:C:/Users/stapi/OneDrive/Desktop/GD32VW553/GD32VW55X_Wifi_BLE_SDK/GD32VW55x_RELEASE_V1.0.2/MSDK/plf/GD32VW55x_standard_peripheral/Source\gd32vw55x_cau_aes.c ****     b0addr += 4U;
 2418              		.loc 1 624 5
 2419 0238 1255     		lw	a0,36(sp)
 2420 023a 97000000 		call	cau_data_write
 2420      E7800000 
 2421              	.LVL319:
 625:C:/Users/stapi/OneDrive/Desktop/GD32VW553/GD32VW55X_Wifi_BLE_SDK/GD32VW55x_RELEASE_V1.0.2/MSDK/plf/GD32VW55x_standard_peripheral/Source\gd32vw55x_cau_aes.c ****     cau_data_write(*(uint32_t *)(b0addr));
 2422              		.loc 1 625 5
 626:C:/Users/stapi/OneDrive/Desktop/GD32VW553/GD32VW55X_Wifi_BLE_SDK/GD32VW55x_RELEASE_V1.0.2/MSDK/plf/GD32VW55x_standard_peripheral/Source\gd32vw55x_cau_aes.c ****     b0addr += 4U;
 2423              		.loc 1 626 5
 2424 0242 2255     		lw	a0,40(sp)
 2425 0244 97000000 		call	cau_data_write
 2425      E7800000 
 2426              	.LVL320:
 627:C:/Users/stapi/OneDrive/Desktop/GD32VW553/GD32VW55X_Wifi_BLE_SDK/GD32VW55x_RELEASE_V1.0.2/MSDK/plf/GD32VW55x_standard_peripheral/Source\gd32vw55x_cau_aes.c ****     cau_data_write(*(uint32_t *)(b0addr));
 2427              		.loc 1 627 5
 628:C:/Users/stapi/OneDrive/Desktop/GD32VW553/GD32VW55X_Wifi_BLE_SDK/GD32VW55x_RELEASE_V1.0.2/MSDK/plf/GD32VW55x_standard_peripheral/Source\gd32vw55x_cau_aes.c **** 
 2428              		.loc 1 628 5
 2429 024c 3255     		lw	a0,44(sp)
 2430 024e 97000000 		call	cau_data_write
 2430      E7800000 
 2431              	.LVL321:
 631:C:/Users/stapi/OneDrive/Desktop/GD32VW553/GD32VW55X_Wifi_BLE_SDK/GD32VW55x_RELEASE_V1.0.2/MSDK/plf/GD32VW55x_standard_peripheral/Source\gd32vw55x_cau_aes.c ****     }
 2432              		.loc 1 631 5
 2433              	.L113:
 632:C:/Users/stapi/OneDrive/Desktop/GD32VW553/GD32VW55X_Wifi_BLE_SDK/GD32VW55x_RELEASE_V1.0.2/MSDK/plf/GD32VW55x_standard_peripheral/Source\gd32vw55x_cau_aes.c **** 
 2434              		.loc 1 632 5 discriminator 1
 631:C:/Users/stapi/OneDrive/Desktop/GD32VW553/GD32VW55X_Wifi_BLE_SDK/GD32VW55x_RELEASE_V1.0.2/MSDK/plf/GD32VW55x_standard_peripheral/Source\gd32vw55x_cau_aes.c ****     }
 2435              		.loc 1 631 10 discriminator 1
 631:C:/Users/stapi/OneDrive/Desktop/GD32VW553/GD32VW55X_Wifi_BLE_SDK/GD32VW55x_RELEASE_V1.0.2/MSDK/plf/GD32VW55x_standard_peripheral/Source\gd32vw55x_cau_aes.c ****     }
 2436              		.loc 1 631 21 is_stmt 0 discriminator 1
 2437 0256 97000000 		call	cau_enable_state_get
 2437      E7800000 
 2438              	.LVL322:
 631:C:/Users/stapi/OneDrive/Desktop/GD32VW553/GD32VW55X_Wifi_BLE_SDK/GD32VW55x_RELEASE_V1.0.2/MSDK/plf/GD32VW55x_standard_peripheral/Source\gd32vw55x_cau_aes.c ****     }
 2439              		.loc 1 631 10 discriminator 1
 2440 025e E30C85FF 		beq	a0,s8,.L113
 635:C:/Users/stapi/OneDrive/Desktop/GD32VW553/GD32VW55X_Wifi_BLE_SDK/GD32VW55x_RELEASE_V1.0.2/MSDK/plf/GD32VW55x_standard_peripheral/Source\gd32vw55x_cau_aes.c ****         /* select aad phase */
 2441              		.loc 1 635 5 is_stmt 1
 635:C:/Users/stapi/OneDrive/Desktop/GD32VW553/GD32VW55X_Wifi_BLE_SDK/GD32VW55x_RELEASE_V1.0.2/MSDK/plf/GD32VW55x_standard_peripheral/Source\gd32vw55x_cau_aes.c ****         /* select aad phase */
 2442              		.loc 1 635 7 is_stmt 0
 2443 0262 1DC0     		beq	s0,zero,.L114
 637:C:/Users/stapi/OneDrive/Desktop/GD32VW553/GD32VW55X_Wifi_BLE_SDK/GD32VW55x_RELEASE_V1.0.2/MSDK/plf/GD32VW55x_standard_peripheral/Source\gd32vw55x_cau_aes.c ****         /* enable the CAU peripheral */
 2444              		.loc 1 637 9 is_stmt 1
 2445 0264 4165     		li	a0,65536
 2446 0266 97000000 		call	cau_phase_config
 2446      E7800000 
 2447              	.LVL323:
 639:C:/Users/stapi/OneDrive/Desktop/GD32VW553/GD32VW55X_Wifi_BLE_SDK/GD32VW55x_RELEASE_V1.0.2/MSDK/plf/GD32VW55x_standard_peripheral/Source\gd32vw55x_cau_aes.c **** 
 2448              		.loc 1 639 9
 2449 026e 97000000 		call	cau_enable
 2449      E7800000 
 2450              	.LVL324:
 641:C:/Users/stapi/OneDrive/Desktop/GD32VW553/GD32VW55X_Wifi_BLE_SDK/GD32VW55x_RELEASE_V1.0.2/MSDK/plf/GD32VW55x_standard_peripheral/Source\gd32vw55x_cau_aes.c **** 
 2451              		.loc 1 641 9
 641:C:/Users/stapi/OneDrive/Desktop/GD32VW553/GD32VW55X_Wifi_BLE_SDK/GD32VW55x_RELEASE_V1.0.2/MSDK/plf/GD32VW55x_standard_peripheral/Source\gd32vw55x_cau_aes.c **** 
 2452              		.loc 1 641 15 is_stmt 0
 2453 0276 E685     		mv	a1,s9
 2454 0278 5A85     		mv	a0,s6
 2455 027a 97000000 		call	cau_fill_data
 2455      E7800000 
 2456              	.LVL325:
 2457 0282 2A84     		mv	s0,a0
 2458              	.LVL326:
 643:C:/Users/stapi/OneDrive/Desktop/GD32VW553/GD32VW55X_Wifi_BLE_SDK/GD32VW55x_RELEASE_V1.0.2/MSDK/plf/GD32VW55x_standard_peripheral/Source\gd32vw55x_cau_aes.c ****             return ret;
 2459              		.loc 1 643 9 is_stmt 1
 643:C:/Users/stapi/OneDrive/Desktop/GD32VW553/GD32VW55X_Wifi_BLE_SDK/GD32VW55x_RELEASE_V1.0.2/MSDK/plf/GD32VW55x_standard_peripheral/Source\gd32vw55x_cau_aes.c ****             return ret;
 2460              		.loc 1 643 11 is_stmt 0
 2461 0284 E30105EC 		beq	a0,zero,.L103
 2462              	.LVL327:
 2463              	.L114:
 649:C:/Users/stapi/OneDrive/Desktop/GD32VW553/GD32VW55X_Wifi_BLE_SDK/GD32VW55x_RELEASE_V1.0.2/MSDK/plf/GD32VW55x_standard_peripheral/Source\gd32vw55x_cau_aes.c **** 
 2464              		.loc 1 649 5 is_stmt 1
 649:C:/Users/stapi/OneDrive/Desktop/GD32VW553/GD32VW55X_Wifi_BLE_SDK/GD32VW55x_RELEASE_V1.0.2/MSDK/plf/GD32VW55x_standard_peripheral/Source\gd32vw55x_cau_aes.c **** 
 2465              		.loc 1 649 15 is_stmt 0
 2466 0288 83258901 		lw	a1,24(s2)
 2467              	.LVL328:
 651:C:/Users/stapi/OneDrive/Desktop/GD32VW553/GD32VW55X_Wifi_BLE_SDK/GD32VW55x_RELEASE_V1.0.2/MSDK/plf/GD32VW55x_standard_peripheral/Source\gd32vw55x_cau_aes.c ****         /* select encrypt or dcrypt phase */
 2468              		.loc 1 651 5 is_stmt 1
 651:C:/Users/stapi/OneDrive/Desktop/GD32VW553/GD32VW55X_Wifi_BLE_SDK/GD32VW55x_RELEASE_V1.0.2/MSDK/plf/GD32VW55x_standard_peripheral/Source\gd32vw55x_cau_aes.c ****         /* select encrypt or dcrypt phase */
 2469              		.loc 1 651 7 is_stmt 0
 2470 028c 2EC6     		sw	a1,12(sp)
 2471 028e 8DC5     		beq	a1,zero,.L115
 653:C:/Users/stapi/OneDrive/Desktop/GD32VW553/GD32VW55X_Wifi_BLE_SDK/GD32VW55x_RELEASE_V1.0.2/MSDK/plf/GD32VW55x_standard_peripheral/Source\gd32vw55x_cau_aes.c ****         /* enable the CAU peripheral */
 2472              		.loc 1 653 9 is_stmt 1
 2473 0290 37050200 		li	a0,131072
 2474 0294 97000000 		call	cau_phase_config
 2474      E7800000 
 2475              	.LVL329:
 655:C:/Users/stapi/OneDrive/Desktop/GD32VW553/GD32VW55X_Wifi_BLE_SDK/GD32VW55x_RELEASE_V1.0.2/MSDK/plf/GD32VW55x_standard_peripheral/Source\gd32vw55x_cau_aes.c **** 
 2476              		.loc 1 655 9
 2477 029c 97000000 		call	cau_enable
 2477      E7800000 
 2478              	.LVL330:
 658:C:/Users/stapi/OneDrive/Desktop/GD32VW553/GD32VW55X_Wifi_BLE_SDK/GD32VW55x_RELEASE_V1.0.2/MSDK/plf/GD32VW55x_standard_peripheral/Source\gd32vw55x_cau_aes.c **** 
 2479              		.loc 1 658 9
 658:C:/Users/stapi/OneDrive/Desktop/GD32VW553/GD32VW55X_Wifi_BLE_SDK/GD32VW55x_RELEASE_V1.0.2/MSDK/plf/GD32VW55x_standard_peripheral/Source\gd32vw55x_cau_aes.c **** 
 2480              		.loc 1 658 15 is_stmt 0
 2481 02a4 B245     		lw	a1,12(sp)
 2482 02a6 5686     		mv	a2,s5
 2483 02a8 5E85     		mv	a0,s7
 2484 02aa 97000000 		call	cau_aes_calculate
 2484      E7800000 
 2485              	.LVL331:
 2486 02b2 2A84     		mv	s0,a0
 2487              	.LVL332:
 660:C:/Users/stapi/OneDrive/Desktop/GD32VW553/GD32VW55X_Wifi_BLE_SDK/GD32VW55x_RELEASE_V1.0.2/MSDK/plf/GD32VW55x_standard_peripheral/Source\gd32vw55x_cau_aes.c ****             return ret;
 2488              		.loc 1 660 9 is_stmt 1
 660:C:/Users/stapi/OneDrive/Desktop/GD32VW553/GD32VW55X_Wifi_BLE_SDK/GD32VW55x_RELEASE_V1.0.2/MSDK/plf/GD32VW55x_standard_peripheral/Source\gd32vw55x_cau_aes.c ****             return ret;
 2489              		.loc 1 660 11 is_stmt 0
 2490 02b4 E30905E8 		beq	a0,zero,.L103
 2491              	.L115:
 667:C:/Users/stapi/OneDrive/Desktop/GD32VW553/GD32VW55X_Wifi_BLE_SDK/GD32VW55x_RELEASE_V1.0.2/MSDK/plf/GD32VW55x_standard_peripheral/Source\gd32vw55x_cau_aes.c ****     /* enable the CAU peripheral */
 2492              		.loc 1 667 5 is_stmt 1
 2493 02b8 37050300 		li	a0,196608
 2494 02bc 97000000 		call	cau_phase_config
 2494      E7800000 
 2495              	.LVL333:
 669:C:/Users/stapi/OneDrive/Desktop/GD32VW553/GD32VW55X_Wifi_BLE_SDK/GD32VW55x_RELEASE_V1.0.2/MSDK/plf/GD32VW55x_standard_peripheral/Source\gd32vw55x_cau_aes.c **** 
 2496              		.loc 1 669 5
 2497 02c4 97000000 		call	cau_enable
 2497      E7800000 
 2498              	.LVL334:
 671:C:/Users/stapi/OneDrive/Desktop/GD32VW553/GD32VW55X_Wifi_BLE_SDK/GD32VW55x_RELEASE_V1.0.2/MSDK/plf/GD32VW55x_standard_peripheral/Source\gd32vw55x_cau_aes.c ****         return ERROR;
 2499              		.loc 1 671 5
 671:C:/Users/stapi/OneDrive/Desktop/GD32VW553/GD32VW55X_Wifi_BLE_SDK/GD32VW55x_RELEASE_V1.0.2/MSDK/plf/GD32VW55x_standard_peripheral/Source\gd32vw55x_cau_aes.c ****         return ERROR;
 2500              		.loc 1 671 19 is_stmt 0
 2501 02cc 97000000 		call	cau_enable_state_get
 2501      E7800000 
 2502              	.LVL335:
 671:C:/Users/stapi/OneDrive/Desktop/GD32VW553/GD32VW55X_Wifi_BLE_SDK/GD32VW55x_RELEASE_V1.0.2/MSDK/plf/GD32VW55x_standard_peripheral/Source\gd32vw55x_cau_aes.c ****         return ERROR;
 2503              		.loc 1 671 7
 2504 02d4 E30905E6 		beq	a0,zero,.L103
 675:C:/Users/stapi/OneDrive/Desktop/GD32VW553/GD32VW55X_Wifi_BLE_SDK/GD32VW55x_RELEASE_V1.0.2/MSDK/plf/GD32VW55x_standard_peripheral/Source\gd32vw55x_cau_aes.c **** 
 2505              		.loc 1 675 5 is_stmt 1
 2506              	.LVL336:
 677:C:/Users/stapi/OneDrive/Desktop/GD32VW553/GD32VW55X_Wifi_BLE_SDK/GD32VW55x_RELEASE_V1.0.2/MSDK/plf/GD32VW55x_standard_peripheral/Source\gd32vw55x_cau_aes.c ****     ctraddr += 4U;
 2507              		.loc 1 677 5
 2508 02d8 2685     		mv	a0,s1
 2509 02da 97000000 		call	cau_data_write
 2509      E7800000 
 2510              	.LVL337:
 678:C:/Users/stapi/OneDrive/Desktop/GD32VW553/GD32VW55X_Wifi_BLE_SDK/GD32VW55x_RELEASE_V1.0.2/MSDK/plf/GD32VW55x_standard_peripheral/Source\gd32vw55x_cau_aes.c ****     cau_data_write(*(uint32_t *)(ctraddr));
 2511              		.loc 1 678 5
 679:C:/Users/stapi/OneDrive/Desktop/GD32VW553/GD32VW55X_Wifi_BLE_SDK/GD32VW55x_RELEASE_V1.0.2/MSDK/plf/GD32VW55x_standard_peripheral/Source\gd32vw55x_cau_aes.c ****     ctraddr += 4U;
 2512              		.loc 1 679 5
 2513 02e2 5255     		lw	a0,52(sp)
 2514 02e4 97000000 		call	cau_data_write
 2514      E7800000 
 2515              	.LVL338:
 680:C:/Users/stapi/OneDrive/Desktop/GD32VW553/GD32VW55X_Wifi_BLE_SDK/GD32VW55x_RELEASE_V1.0.2/MSDK/plf/GD32VW55x_standard_peripheral/Source\gd32vw55x_cau_aes.c ****     cau_data_write(*(uint32_t *)(ctraddr));
 2516              		.loc 1 680 5
 681:C:/Users/stapi/OneDrive/Desktop/GD32VW553/GD32VW55X_Wifi_BLE_SDK/GD32VW55x_RELEASE_V1.0.2/MSDK/plf/GD32VW55x_standard_peripheral/Source\gd32vw55x_cau_aes.c ****     ctraddr += 4U;
 2517              		.loc 1 681 5
 2518 02ec 6255     		lw	a0,56(sp)
 2519 02ee 97000000 		call	cau_data_write
 2519      E7800000 
 2520              	.LVL339:
 682:C:/Users/stapi/OneDrive/Desktop/GD32VW553/GD32VW55X_Wifi_BLE_SDK/GD32VW55x_RELEASE_V1.0.2/MSDK/plf/GD32VW55x_standard_peripheral/Source\gd32vw55x_cau_aes.c ****     /* reset bit 0 (after 8-bit swap) is equivalent to reset bit 24 (before 8-bit swap) */
 2521              		.loc 1 682 5
 684:C:/Users/stapi/OneDrive/Desktop/GD32VW553/GD32VW55X_Wifi_BLE_SDK/GD32VW55x_RELEASE_V1.0.2/MSDK/plf/GD32VW55x_standard_peripheral/Source\gd32vw55x_cau_aes.c **** 
 2522              		.loc 1 684 5
 2523 02f6 7255     		lw	a0,60(sp)
 2524 02f8 13158549 		bclri	a0,a0,24
 2525 02fc 97000000 		call	cau_data_write
 2525      E7800000 
 2526              	.LVL340:
 687:C:/Users/stapi/OneDrive/Desktop/GD32VW553/GD32VW55X_Wifi_BLE_SDK/GD32VW55x_RELEASE_V1.0.2/MSDK/plf/GD32VW55x_standard_peripheral/Source\gd32vw55x_cau_aes.c ****     }
 2527              		.loc 1 687 5
 2528              	.L116:
 688:C:/Users/stapi/OneDrive/Desktop/GD32VW553/GD32VW55X_Wifi_BLE_SDK/GD32VW55x_RELEASE_V1.0.2/MSDK/plf/GD32VW55x_standard_peripheral/Source\gd32vw55x_cau_aes.c **** 
 2529              		.loc 1 688 5 discriminator 1
 687:C:/Users/stapi/OneDrive/Desktop/GD32VW553/GD32VW55X_Wifi_BLE_SDK/GD32VW55x_RELEASE_V1.0.2/MSDK/plf/GD32VW55x_standard_peripheral/Source\gd32vw55x_cau_aes.c ****     }
 2530              		.loc 1 687 10 discriminator 1
 687:C:/Users/stapi/OneDrive/Desktop/GD32VW553/GD32VW55X_Wifi_BLE_SDK/GD32VW55x_RELEASE_V1.0.2/MSDK/plf/GD32VW55x_standard_peripheral/Source\gd32vw55x_cau_aes.c ****     }
 2531              		.loc 1 687 20 is_stmt 0 discriminator 1
 2532 0304 1145     		li	a0,4
 2533 0306 97000000 		call	cau_flag_get
 2533      E7800000 
 2534              	.LVL341:
 687:C:/Users/stapi/OneDrive/Desktop/GD32VW553/GD32VW55X_Wifi_BLE_SDK/GD32VW55x_RELEASE_V1.0.2/MSDK/plf/GD32VW55x_standard_peripheral/Source\gd32vw55x_cau_aes.c ****     }
 2535              		.loc 1 687 10 discriminator 1
 2536 030e 7DD9     		beq	a0,zero,.L116
 691:C:/Users/stapi/OneDrive/Desktop/GD32VW553/GD32VW55X_Wifi_BLE_SDK/GD32VW55x_RELEASE_V1.0.2/MSDK/plf/GD32VW55x_standard_peripheral/Source\gd32vw55x_cau_aes.c ****     temp_tag[1] = cau_data_read();
 2537              		.loc 1 691 5 is_stmt 1
 691:C:/Users/stapi/OneDrive/Desktop/GD32VW553/GD32VW55X_Wifi_BLE_SDK/GD32VW55x_RELEASE_V1.0.2/MSDK/plf/GD32VW55x_standard_peripheral/Source\gd32vw55x_cau_aes.c ****     temp_tag[1] = cau_data_read();
 2538              		.loc 1 691 19 is_stmt 0
 2539 0310 97000000 		call	cau_data_read
 2539      E7800000 
 2540              	.LVL342:
 691:C:/Users/stapi/OneDrive/Desktop/GD32VW553/GD32VW55X_Wifi_BLE_SDK/GD32VW55x_RELEASE_V1.0.2/MSDK/plf/GD32VW55x_standard_peripheral/Source\gd32vw55x_cau_aes.c ****     temp_tag[1] = cau_data_read();
 2541              		.loc 1 691 17
 2542 0318 AAC0     		sw	a0,64(sp)
 692:C:/Users/stapi/OneDrive/Desktop/GD32VW553/GD32VW55X_Wifi_BLE_SDK/GD32VW55x_RELEASE_V1.0.2/MSDK/plf/GD32VW55x_standard_peripheral/Source\gd32vw55x_cau_aes.c ****     temp_tag[2] = cau_data_read();
 2543              		.loc 1 692 5 is_stmt 1
 692:C:/Users/stapi/OneDrive/Desktop/GD32VW553/GD32VW55X_Wifi_BLE_SDK/GD32VW55x_RELEASE_V1.0.2/MSDK/plf/GD32VW55x_standard_peripheral/Source\gd32vw55x_cau_aes.c ****     temp_tag[2] = cau_data_read();
 2544              		.loc 1 692 19 is_stmt 0
 2545 031a 97000000 		call	cau_data_read
 2545      E7800000 
 2546              	.LVL343:
 692:C:/Users/stapi/OneDrive/Desktop/GD32VW553/GD32VW55X_Wifi_BLE_SDK/GD32VW55x_RELEASE_V1.0.2/MSDK/plf/GD32VW55x_standard_peripheral/Source\gd32vw55x_cau_aes.c ****     temp_tag[2] = cau_data_read();
 2547              		.loc 1 692 17
 2548 0322 AAC2     		sw	a0,68(sp)
 693:C:/Users/stapi/OneDrive/Desktop/GD32VW553/GD32VW55X_Wifi_BLE_SDK/GD32VW55x_RELEASE_V1.0.2/MSDK/plf/GD32VW55x_standard_peripheral/Source\gd32vw55x_cau_aes.c ****     temp_tag[3] = cau_data_read();
 2549              		.loc 1 693 5 is_stmt 1
 693:C:/Users/stapi/OneDrive/Desktop/GD32VW553/GD32VW55X_Wifi_BLE_SDK/GD32VW55x_RELEASE_V1.0.2/MSDK/plf/GD32VW55x_standard_peripheral/Source\gd32vw55x_cau_aes.c ****     temp_tag[3] = cau_data_read();
 2550              		.loc 1 693 19 is_stmt 0
 2551 0324 97000000 		call	cau_data_read
 2551      E7800000 
 2552              	.LVL344:
 693:C:/Users/stapi/OneDrive/Desktop/GD32VW553/GD32VW55X_Wifi_BLE_SDK/GD32VW55x_RELEASE_V1.0.2/MSDK/plf/GD32VW55x_standard_peripheral/Source\gd32vw55x_cau_aes.c ****     temp_tag[3] = cau_data_read();
 2553              		.loc 1 693 17
 2554 032c AAC4     		sw	a0,72(sp)
 694:C:/Users/stapi/OneDrive/Desktop/GD32VW553/GD32VW55X_Wifi_BLE_SDK/GD32VW55x_RELEASE_V1.0.2/MSDK/plf/GD32VW55x_standard_peripheral/Source\gd32vw55x_cau_aes.c **** 
 2555              		.loc 1 694 5 is_stmt 1
 694:C:/Users/stapi/OneDrive/Desktop/GD32VW553/GD32VW55X_Wifi_BLE_SDK/GD32VW55x_RELEASE_V1.0.2/MSDK/plf/GD32VW55x_standard_peripheral/Source\gd32vw55x_cau_aes.c **** 
 2556              		.loc 1 694 19 is_stmt 0
 2557 032e 97000000 		call	cau_data_read
 2557      E7800000 
 2558              	.LVL345:
 694:C:/Users/stapi/OneDrive/Desktop/GD32VW553/GD32VW55X_Wifi_BLE_SDK/GD32VW55x_RELEASE_V1.0.2/MSDK/plf/GD32VW55x_standard_peripheral/Source\gd32vw55x_cau_aes.c **** 
 2559              		.loc 1 694 17
 2560 0336 AAC6     		sw	a0,76(sp)
 697:C:/Users/stapi/OneDrive/Desktop/GD32VW553/GD32VW55X_Wifi_BLE_SDK/GD32VW55x_RELEASE_V1.0.2/MSDK/plf/GD32VW55x_standard_peripheral/Source\gd32vw55x_cau_aes.c **** 
 2561              		.loc 1 697 5 is_stmt 1
 2562 0338 97000000 		call	cau_disable
 2562      E7800000 
 2563              	.LVL346:
 700:C:/Users/stapi/OneDrive/Desktop/GD32VW553/GD32VW55X_Wifi_BLE_SDK/GD32VW55x_RELEASE_V1.0.2/MSDK/plf/GD32VW55x_standard_peripheral/Source\gd32vw55x_cau_aes.c ****         tag[i] = (uint8_t)(temp_tag[i / 4U] >> (8U * (i % 4U)));
 2564              		.loc 1 700 5
 700:C:/Users/stapi/OneDrive/Desktop/GD32VW553/GD32VW55X_Wifi_BLE_SDK/GD32VW55x_RELEASE_V1.0.2/MSDK/plf/GD32VW55x_standard_peripheral/Source\gd32vw55x_cau_aes.c ****         tag[i] = (uint8_t)(temp_tag[i / 4U] >> (8U * (i % 4U)));
 2565              		.loc 1 700 11 is_stmt 0
 2566 0340 8147     		li	a5,0
 2567              	.LVL347:
 2568              	.L117:
 700:C:/Users/stapi/OneDrive/Desktop/GD32VW553/GD32VW55X_Wifi_BLE_SDK/GD32VW55x_RELEASE_V1.0.2/MSDK/plf/GD32VW55x_standard_peripheral/Source\gd32vw55x_cau_aes.c ****         tag[i] = (uint8_t)(temp_tag[i / 4U] >> (8U * (i % 4U)));
 2569              		.loc 1 700 17 is_stmt 1 discriminator 1
 700:C:/Users/stapi/OneDrive/Desktop/GD32VW553/GD32VW55X_Wifi_BLE_SDK/GD32VW55x_RELEASE_V1.0.2/MSDK/plf/GD32VW55x_standard_peripheral/Source\gd32vw55x_cau_aes.c ****         tag[i] = (uint8_t)(temp_tag[i / 4U] >> (8U * (i % 4U)));
 2570              		.loc 1 700 5 is_stmt 0 discriminator 1
 2571 0342 E38337E1 		beq	a5,s3,.L95
 701:C:/Users/stapi/OneDrive/Desktop/GD32VW553/GD32VW55X_Wifi_BLE_SDK/GD32VW55x_RELEASE_V1.0.2/MSDK/plf/GD32VW55x_standard_peripheral/Source\gd32vw55x_cau_aes.c ****     }
 2572              		.loc 1 701 9 is_stmt 1 discriminator 3
 701:C:/Users/stapi/OneDrive/Desktop/GD32VW553/GD32VW55X_Wifi_BLE_SDK/GD32VW55x_RELEASE_V1.0.2/MSDK/plf/GD32VW55x_standard_peripheral/Source\gd32vw55x_cau_aes.c ****     }
 2573              		.loc 1 701 36 is_stmt 0 discriminator 3
 2574 0346 13F6C7FF 		andi	a2,a5,-4
 2575 034a 9818     		addi	a4,sp,112
 2576              	.LVL348:
 2577 034c 3A96     		add	a2,a4,a2
 701:C:/Users/stapi/OneDrive/Desktop/GD32VW553/GD32VW55X_Wifi_BLE_SDK/GD32VW55x_RELEASE_V1.0.2/MSDK/plf/GD32VW55x_standard_peripheral/Source\gd32vw55x_cau_aes.c ****     }
 2578              		.loc 1 701 57 discriminator 3
 2579 034e 13F73700 		andi	a4,a5,3
 2580              	.LVL349:
 701:C:/Users/stapi/OneDrive/Desktop/GD32VW553/GD32VW55X_Wifi_BLE_SDK/GD32VW55x_RELEASE_V1.0.2/MSDK/plf/GD32VW55x_standard_peripheral/Source\gd32vw55x_cau_aes.c ****     }
 2581              		.loc 1 701 52 discriminator 3
 2582 0352 93163700 		slli	a3,a4,3
 701:C:/Users/stapi/OneDrive/Desktop/GD32VW553/GD32VW55X_Wifi_BLE_SDK/GD32VW55x_RELEASE_V1.0.2/MSDK/plf/GD32VW55x_standard_peripheral/Source\gd32vw55x_cau_aes.c ****     }
 2583              		.loc 1 701 45 discriminator 3
 2584 0356 032706FD 		lw	a4,-48(a2)
 701:C:/Users/stapi/OneDrive/Desktop/GD32VW553/GD32VW55X_Wifi_BLE_SDK/GD32VW55x_RELEASE_V1.0.2/MSDK/plf/GD32VW55x_standard_peripheral/Source\gd32vw55x_cau_aes.c ****     }
 2585              		.loc 1 701 16 discriminator 3
 2586 035a B305FA00 		add	a1,s4,a5
 700:C:/Users/stapi/OneDrive/Desktop/GD32VW553/GD32VW55X_Wifi_BLE_SDK/GD32VW55x_RELEASE_V1.0.2/MSDK/plf/GD32VW55x_standard_peripheral/Source\gd32vw55x_cau_aes.c ****         tag[i] = (uint8_t)(temp_tag[i / 4U] >> (8U * (i % 4U)));
 2587              		.loc 1 700 32 discriminator 3
 2588 035e 8507     		addi	a5,a5,1
 2589              	.LVL350:
 701:C:/Users/stapi/OneDrive/Desktop/GD32VW553/GD32VW55X_Wifi_BLE_SDK/GD32VW55x_RELEASE_V1.0.2/MSDK/plf/GD32VW55x_standard_peripheral/Source\gd32vw55x_cau_aes.c ****     }
 2590              		.loc 1 701 45 discriminator 3
 2591 0360 3357D700 		srl	a4,a4,a3
 701:C:/Users/stapi/OneDrive/Desktop/GD32VW553/GD32VW55X_Wifi_BLE_SDK/GD32VW55x_RELEASE_V1.0.2/MSDK/plf/GD32VW55x_standard_peripheral/Source\gd32vw55x_cau_aes.c ****     }
 2592              		.loc 1 701 18 discriminator 3
 2593 0364 2380E500 		sb	a4,0(a1)
 700:C:/Users/stapi/OneDrive/Desktop/GD32VW553/GD32VW55X_Wifi_BLE_SDK/GD32VW55x_RELEASE_V1.0.2/MSDK/plf/GD32VW55x_standard_peripheral/Source\gd32vw55x_cau_aes.c ****         tag[i] = (uint8_t)(temp_tag[i / 4U] >> (8U * (i % 4U)));
 2594              		.loc 1 700 31 is_stmt 1 discriminator 3
 2595              	.LVL351:
 2596 0368 E9BF     		j	.L117
 2597              		.cfi_endproc
 2598              	.LFE371:
 2600              		.text
 2601              	.Letext0:
 2602              		.file 3 "c:\\users\\stapi\\onedrive\\desktop\\gd32vw553\\embeddedbuilder_v1.4.7.26843\\tools\\nucl
 2603              		.file 4 "c:\\users\\stapi\\onedrive\\desktop\\gd32vw553\\embeddedbuilder_v1.4.7.26843\\tools\\nucl
 2604              		.file 5 "..\\..\\..\\..\\plf\\riscv\\gd32vw55x/gd32vw55x.h"
 2605              		.file 6 "..\\..\\..\\..\\plf\\GD32VW55x_standard_peripheral\\Include/gd32vw55x_cau.h"
 2606              		.file 7 "<built-in>"
DEFINED SYMBOLS
                            *ABS*:0000000000000000 gd32vw55x_cau_aes.c
C:\Users\stapi\AppData\Local\Temp\ccbuaOZz.s:12     .text.cau_aes_key_config:0000000000000000 cau_aes_key_config
C:\Users\stapi\AppData\Local\Temp\ccbuaOZz.s:16     .text.cau_aes_key_config:0000000000000000 .L0 
C:\Users\stapi\AppData\Local\Temp\ccbuaOZz.s:18     .text.cau_aes_key_config:0000000000000000 .L0 
C:\Users\stapi\AppData\Local\Temp\ccbuaOZz.s:19     .text.cau_aes_key_config:0000000000000008 .L0 
C:\Users\stapi\AppData\Local\Temp\ccbuaOZz.s:20     .text.cau_aes_key_config:0000000000000008 .L0 
C:\Users\stapi\AppData\Local\Temp\ccbuaOZz.s:21     .text.cau_aes_key_config:0000000000000008 .L0 
C:\Users\stapi\AppData\Local\Temp\ccbuaOZz.s:22     .text.cau_aes_key_config:0000000000000008 .L0 
C:\Users\stapi\AppData\Local\Temp\ccbuaOZz.s:25     .text.cau_aes_key_config:0000000000000008 .L0 
C:\Users\stapi\AppData\Local\Temp\ccbuaOZz.s:26     .text.cau_aes_key_config:0000000000000008 .L0 
C:\Users\stapi\AppData\Local\Temp\ccbuaOZz.s:28     .text.cau_aes_key_config:000000000000000c .L0 
C:\Users\stapi\AppData\Local\Temp\ccbuaOZz.s:31     .text.cau_aes_key_config:0000000000000010 .L0 
C:\Users\stapi\AppData\Local\Temp\ccbuaOZz.s:37     .text.cau_aes_key_config:0000000000000024 .L0 
C:\Users\stapi\AppData\Local\Temp\ccbuaOZz.s:42     .text.cau_aes_key_config:000000000000002e .L0 
C:\Users\stapi\AppData\Local\Temp\ccbuaOZz.s:49     .text.cau_aes_key_config:0000000000000034 .L0 
C:\Users\stapi\AppData\Local\Temp\ccbuaOZz.s:50     .text.cau_aes_key_config:0000000000000034 .L0 
C:\Users\stapi\AppData\Local\Temp\ccbuaOZz.s:53     .text.cau_aes_key_config:0000000000000034 .L0 
C:\Users\stapi\AppData\Local\Temp\ccbuaOZz.s:54     .text.cau_aes_key_config:0000000000000034 .L0 
C:\Users\stapi\AppData\Local\Temp\ccbuaOZz.s:57     .text.cau_aes_key_config:0000000000000036 .L0 
C:\Users\stapi\AppData\Local\Temp\ccbuaOZz.s:58     .text.cau_aes_key_config:0000000000000036 .L0 
C:\Users\stapi\AppData\Local\Temp\ccbuaOZz.s:64     .text.cau_aes_key_config:000000000000003c .L0 
C:\Users\stapi\AppData\Local\Temp\ccbuaOZz.s:65     .text.cau_aes_key_config:000000000000003c .L0 
C:\Users\stapi\AppData\Local\Temp\ccbuaOZz.s:68     .text.cau_aes_key_config:000000000000003c .L0 
C:\Users\stapi\AppData\Local\Temp\ccbuaOZz.s:69     .text.cau_aes_key_config:000000000000003c .L0 
C:\Users\stapi\AppData\Local\Temp\ccbuaOZz.s:72     .text.cau_aes_key_config:000000000000003e .L0 
C:\Users\stapi\AppData\Local\Temp\ccbuaOZz.s:73     .text.cau_aes_key_config:000000000000003e .L0 
C:\Users\stapi\AppData\Local\Temp\ccbuaOZz.s:79     .text.cau_aes_key_config:0000000000000044 .L0 
C:\Users\stapi\AppData\Local\Temp\ccbuaOZz.s:80     .text.cau_aes_key_config:0000000000000044 .L0 
C:\Users\stapi\AppData\Local\Temp\ccbuaOZz.s:83     .text.cau_aes_key_config:0000000000000044 .L0 
C:\Users\stapi\AppData\Local\Temp\ccbuaOZz.s:84     .text.cau_aes_key_config:0000000000000044 .L0 
C:\Users\stapi\AppData\Local\Temp\ccbuaOZz.s:87     .text.cau_aes_key_config:0000000000000046 .L0 
C:\Users\stapi\AppData\Local\Temp\ccbuaOZz.s:88     .text.cau_aes_key_config:0000000000000046 .L0 
C:\Users\stapi\AppData\Local\Temp\ccbuaOZz.s:96     .text.cau_aes_key_config:000000000000004c .L0 
C:\Users\stapi\AppData\Local\Temp\ccbuaOZz.s:97     .text.cau_aes_key_config:000000000000004c .L0 
C:\Users\stapi\AppData\Local\Temp\ccbuaOZz.s:100    .text.cau_aes_key_config:000000000000004c .L0 
C:\Users\stapi\AppData\Local\Temp\ccbuaOZz.s:101    .text.cau_aes_key_config:000000000000004c .L0 
C:\Users\stapi\AppData\Local\Temp\ccbuaOZz.s:104    .text.cau_aes_key_config:000000000000004e .L0 
C:\Users\stapi\AppData\Local\Temp\ccbuaOZz.s:105    .text.cau_aes_key_config:000000000000004e .L0 
C:\Users\stapi\AppData\Local\Temp\ccbuaOZz.s:106    .text.cau_aes_key_config:0000000000000056 .L0 
C:\Users\stapi\AppData\Local\Temp\ccbuaOZz.s:107    .text.cau_aes_key_config:0000000000000056 .L0 
C:\Users\stapi\AppData\Local\Temp\ccbuaOZz.s:108    .text.cau_aes_key_config:0000000000000056 .L0 
C:\Users\stapi\AppData\Local\Temp\ccbuaOZz.s:109    .text.cau_aes_key_config:0000000000000056 .L0 
C:\Users\stapi\AppData\Local\Temp\ccbuaOZz.s:110    .text.cau_aes_key_config:0000000000000056 .L0 
C:\Users\stapi\AppData\Local\Temp\ccbuaOZz.s:113    .text.cau_aes_key_config:0000000000000056 .L0 
C:\Users\stapi\AppData\Local\Temp\ccbuaOZz.s:115    .text.cau_aes_key_config:0000000000000056 .L0 
C:\Users\stapi\AppData\Local\Temp\ccbuaOZz.s:119    .text.cau_aes_key_config:0000000000000062 .L0 
C:\Users\stapi\AppData\Local\Temp\ccbuaOZz.s:125    .text.cau_aes_key_config:0000000000000068 .L0 
C:\Users\stapi\AppData\Local\Temp\ccbuaOZz.s:126    .text.cau_aes_key_config:0000000000000068 .L0 
C:\Users\stapi\AppData\Local\Temp\ccbuaOZz.s:129    .text.cau_aes_key_config:0000000000000068 .L0 
C:\Users\stapi\AppData\Local\Temp\ccbuaOZz.s:130    .text.cau_aes_key_config:0000000000000068 .L0 
C:\Users\stapi\AppData\Local\Temp\ccbuaOZz.s:133    .text.cau_aes_key_config:000000000000006a .L0 
C:\Users\stapi\AppData\Local\Temp\ccbuaOZz.s:134    .text.cau_aes_key_config:000000000000006a .L0 
C:\Users\stapi\AppData\Local\Temp\ccbuaOZz.s:140    .text.cau_aes_key_config:0000000000000070 .L0 
C:\Users\stapi\AppData\Local\Temp\ccbuaOZz.s:141    .text.cau_aes_key_config:0000000000000070 .L0 
C:\Users\stapi\AppData\Local\Temp\ccbuaOZz.s:144    .text.cau_aes_key_config:0000000000000070 .L0 
C:\Users\stapi\AppData\Local\Temp\ccbuaOZz.s:145    .text.cau_aes_key_config:0000000000000070 .L0 
C:\Users\stapi\AppData\Local\Temp\ccbuaOZz.s:148    .text.cau_aes_key_config:0000000000000072 .L0 
C:\Users\stapi\AppData\Local\Temp\ccbuaOZz.s:149    .text.cau_aes_key_config:0000000000000072 .L0 
C:\Users\stapi\AppData\Local\Temp\ccbuaOZz.s:155    .text.cau_aes_key_config:0000000000000078 .L0 
C:\Users\stapi\AppData\Local\Temp\ccbuaOZz.s:156    .text.cau_aes_key_config:0000000000000078 .L0 
C:\Users\stapi\AppData\Local\Temp\ccbuaOZz.s:159    .text.cau_aes_key_config:0000000000000078 .L0 
C:\Users\stapi\AppData\Local\Temp\ccbuaOZz.s:160    .text.cau_aes_key_config:0000000000000078 .L0 
C:\Users\stapi\AppData\Local\Temp\ccbuaOZz.s:163    .text.cau_aes_key_config:000000000000007a .L0 
C:\Users\stapi\AppData\Local\Temp\ccbuaOZz.s:164    .text.cau_aes_key_config:000000000000007a .L0 
C:\Users\stapi\AppData\Local\Temp\ccbuaOZz.s:170    .text.cau_aes_key_config:0000000000000080 .L0 
C:\Users\stapi\AppData\Local\Temp\ccbuaOZz.s:171    .text.cau_aes_key_config:0000000000000080 .L0 
C:\Users\stapi\AppData\Local\Temp\ccbuaOZz.s:174    .text.cau_aes_key_config:0000000000000080 .L0 
C:\Users\stapi\AppData\Local\Temp\ccbuaOZz.s:175    .text.cau_aes_key_config:0000000000000080 .L0 
C:\Users\stapi\AppData\Local\Temp\ccbuaOZz.s:178    .text.cau_aes_key_config:0000000000000082 .L0 
C:\Users\stapi\AppData\Local\Temp\ccbuaOZz.s:179    .text.cau_aes_key_config:0000000000000082 .L0 
C:\Users\stapi\AppData\Local\Temp\ccbuaOZz.s:185    .text.cau_aes_key_config:0000000000000088 .L0 
C:\Users\stapi\AppData\Local\Temp\ccbuaOZz.s:186    .text.cau_aes_key_config:0000000000000088 .L0 
C:\Users\stapi\AppData\Local\Temp\ccbuaOZz.s:189    .text.cau_aes_key_config:0000000000000088 .L0 
C:\Users\stapi\AppData\Local\Temp\ccbuaOZz.s:190    .text.cau_aes_key_config:0000000000000088 .L0 
C:\Users\stapi\AppData\Local\Temp\ccbuaOZz.s:193    .text.cau_aes_key_config:000000000000008a .L0 
C:\Users\stapi\AppData\Local\Temp\ccbuaOZz.s:194    .text.cau_aes_key_config:000000000000008a .L0 
C:\Users\stapi\AppData\Local\Temp\ccbuaOZz.s:199    .text.cau_aes_key_config:000000000000008e .L0 
C:\Users\stapi\AppData\Local\Temp\ccbuaOZz.s:203    .text.cau_aes_key_config:000000000000009a .L0 
C:\Users\stapi\AppData\Local\Temp\ccbuaOZz.s:209    .text.cau_aes_key_config:00000000000000a0 .L0 
C:\Users\stapi\AppData\Local\Temp\ccbuaOZz.s:210    .text.cau_aes_key_config:00000000000000a0 .L0 
C:\Users\stapi\AppData\Local\Temp\ccbuaOZz.s:213    .text.cau_aes_key_config:00000000000000a0 .L0 
C:\Users\stapi\AppData\Local\Temp\ccbuaOZz.s:214    .text.cau_aes_key_config:00000000000000a0 .L0 
C:\Users\stapi\AppData\Local\Temp\ccbuaOZz.s:217    .text.cau_aes_key_config:00000000000000a2 .L0 
C:\Users\stapi\AppData\Local\Temp\ccbuaOZz.s:218    .text.cau_aes_key_config:00000000000000a2 .L0 
C:\Users\stapi\AppData\Local\Temp\ccbuaOZz.s:224    .text.cau_aes_key_config:00000000000000a8 .L0 
C:\Users\stapi\AppData\Local\Temp\ccbuaOZz.s:225    .text.cau_aes_key_config:00000000000000a8 .L0 
C:\Users\stapi\AppData\Local\Temp\ccbuaOZz.s:228    .text.cau_aes_key_config:00000000000000a8 .L0 
C:\Users\stapi\AppData\Local\Temp\ccbuaOZz.s:229    .text.cau_aes_key_config:00000000000000a8 .L0 
C:\Users\stapi\AppData\Local\Temp\ccbuaOZz.s:232    .text.cau_aes_key_config:00000000000000aa .L0 
C:\Users\stapi\AppData\Local\Temp\ccbuaOZz.s:233    .text.cau_aes_key_config:00000000000000aa .L0 
C:\Users\stapi\AppData\Local\Temp\ccbuaOZz.s:239    .text.cau_aes_key_config:00000000000000b0 .L0 
C:\Users\stapi\AppData\Local\Temp\ccbuaOZz.s:240    .text.cau_aes_key_config:00000000000000b0 .L0 
C:\Users\stapi\AppData\Local\Temp\ccbuaOZz.s:243    .text.cau_aes_key_config:00000000000000b0 .L0 
C:\Users\stapi\AppData\Local\Temp\ccbuaOZz.s:244    .text.cau_aes_key_config:00000000000000b0 .L0 
C:\Users\stapi\AppData\Local\Temp\ccbuaOZz.s:247    .text.cau_aes_key_config:00000000000000b2 .L0 
C:\Users\stapi\AppData\Local\Temp\ccbuaOZz.s:248    .text.cau_aes_key_config:00000000000000b2 .L0 
C:\Users\stapi\AppData\Local\Temp\ccbuaOZz.s:254    .text.cau_aes_key_config:00000000000000b8 .L0 
C:\Users\stapi\AppData\Local\Temp\ccbuaOZz.s:255    .text.cau_aes_key_config:00000000000000b8 .L0 
C:\Users\stapi\AppData\Local\Temp\ccbuaOZz.s:258    .text.cau_aes_key_config:00000000000000b8 .L0 
C:\Users\stapi\AppData\Local\Temp\ccbuaOZz.s:259    .text.cau_aes_key_config:00000000000000b8 .L0 
C:\Users\stapi\AppData\Local\Temp\ccbuaOZz.s:262    .text.cau_aes_key_config:00000000000000ba .L0 
C:\Users\stapi\AppData\Local\Temp\ccbuaOZz.s:263    .text.cau_aes_key_config:00000000000000ba .L0 
C:\Users\stapi\AppData\Local\Temp\ccbuaOZz.s:269    .text.cau_aes_key_config:00000000000000c0 .L0 
C:\Users\stapi\AppData\Local\Temp\ccbuaOZz.s:270    .text.cau_aes_key_config:00000000000000c0 .L0 
C:\Users\stapi\AppData\Local\Temp\ccbuaOZz.s:273    .text.cau_aes_key_config:00000000000000c0 .L0 
C:\Users\stapi\AppData\Local\Temp\ccbuaOZz.s:274    .text.cau_aes_key_config:00000000000000c0 .L0 
C:\Users\stapi\AppData\Local\Temp\ccbuaOZz.s:277    .text.cau_aes_key_config:00000000000000c2 .L0 
C:\Users\stapi\AppData\Local\Temp\ccbuaOZz.s:278    .text.cau_aes_key_config:00000000000000c2 .L0 
C:\Users\stapi\AppData\Local\Temp\ccbuaOZz.s:284    .text.cau_aes_key_config:00000000000000c8 .L0 
C:\Users\stapi\AppData\Local\Temp\ccbuaOZz.s:285    .text.cau_aes_key_config:00000000000000c8 .L0 
C:\Users\stapi\AppData\Local\Temp\ccbuaOZz.s:288    .text.cau_aes_key_config:00000000000000c8 .L0 
C:\Users\stapi\AppData\Local\Temp\ccbuaOZz.s:289    .text.cau_aes_key_config:00000000000000c8 .L0 
C:\Users\stapi\AppData\Local\Temp\ccbuaOZz.s:292    .text.cau_aes_key_config:00000000000000ca .L0 
C:\Users\stapi\AppData\Local\Temp\ccbuaOZz.s:293    .text.cau_aes_key_config:00000000000000ca .L0 
C:\Users\stapi\AppData\Local\Temp\ccbuaOZz.s:299    .text.cau_aes_key_config:00000000000000d0 .L0 
C:\Users\stapi\AppData\Local\Temp\ccbuaOZz.s:300    .text.cau_aes_key_config:00000000000000d0 .L0 
C:\Users\stapi\AppData\Local\Temp\ccbuaOZz.s:303    .text.cau_aes_key_config:00000000000000d0 .L0 
C:\Users\stapi\AppData\Local\Temp\ccbuaOZz.s:304    .text.cau_aes_key_config:00000000000000d0 .L0 
C:\Users\stapi\AppData\Local\Temp\ccbuaOZz.s:307    .text.cau_aes_key_config:00000000000000d2 .L0 
C:\Users\stapi\AppData\Local\Temp\ccbuaOZz.s:308    .text.cau_aes_key_config:00000000000000d2 .L0 
C:\Users\stapi\AppData\Local\Temp\ccbuaOZz.s:310    .text.cau_aes_key_config:00000000000000d6 .L0 
C:\Users\stapi\AppData\Local\Temp\ccbuaOZz.s:316    .text.cau_fill_data:0000000000000000 cau_fill_data
C:\Users\stapi\AppData\Local\Temp\ccbuaOZz.s:319    .text.cau_fill_data:0000000000000000 .L0 
C:\Users\stapi\AppData\Local\Temp\ccbuaOZz.s:321    .text.cau_fill_data:0000000000000000 .L0 
C:\Users\stapi\AppData\Local\Temp\ccbuaOZz.s:322    .text.cau_fill_data:0000000000000008 .L0 
C:\Users\stapi\AppData\Local\Temp\ccbuaOZz.s:323    .text.cau_fill_data:0000000000000008 .L0 
C:\Users\stapi\AppData\Local\Temp\ccbuaOZz.s:324    .text.cau_fill_data:0000000000000008 .L0 
C:\Users\stapi\AppData\Local\Temp\ccbuaOZz.s:325    .text.cau_fill_data:0000000000000008 .L0 
C:\Users\stapi\AppData\Local\Temp\ccbuaOZz.s:326    .text.cau_fill_data:0000000000000008 .L0 
C:\Users\stapi\AppData\Local\Temp\ccbuaOZz.s:327    .text.cau_fill_data:0000000000000008 .L0 
C:\Users\stapi\AppData\Local\Temp\ccbuaOZz.s:328    .text.cau_fill_data:0000000000000008 .L0 
C:\Users\stapi\AppData\Local\Temp\ccbuaOZz.s:329    .text.cau_fill_data:0000000000000008 .L0 
C:\Users\stapi\AppData\Local\Temp\ccbuaOZz.s:330    .text.cau_fill_data:0000000000000008 .L0 
C:\Users\stapi\AppData\Local\Temp\ccbuaOZz.s:331    .text.cau_fill_data:0000000000000008 .L0 
C:\Users\stapi\AppData\Local\Temp\ccbuaOZz.s:332    .text.cau_fill_data:0000000000000008 .L0 
C:\Users\stapi\AppData\Local\Temp\ccbuaOZz.s:333    .text.cau_fill_data:0000000000000008 .L0 
C:\Users\stapi\AppData\Local\Temp\ccbuaOZz.s:334    .text.cau_fill_data:0000000000000008 .L0 
C:\Users\stapi\AppData\Local\Temp\ccbuaOZz.s:335    .text.cau_fill_data:0000000000000008 .L0 
C:\Users\stapi\AppData\Local\Temp\ccbuaOZz.s:337    .text.cau_fill_data:0000000000000008 .L0 
C:\Users\stapi\AppData\Local\Temp\ccbuaOZz.s:338    .text.cau_fill_data:0000000000000008 .L0 
C:\Users\stapi\AppData\Local\Temp\ccbuaOZz.s:339    .text.cau_fill_data:000000000000000a .L0 
C:\Users\stapi\AppData\Local\Temp\ccbuaOZz.s:341    .text.cau_fill_data:000000000000000a .L0 
C:\Users\stapi\AppData\Local\Temp\ccbuaOZz.s:344    .text.cau_fill_data:000000000000000c .L0 
C:\Users\stapi\AppData\Local\Temp\ccbuaOZz.s:345    .text.cau_fill_data:000000000000000c .L0 
C:\Users\stapi\AppData\Local\Temp\ccbuaOZz.s:346    .text.cau_fill_data:000000000000000c .L0 
C:\Users\stapi\AppData\Local\Temp\ccbuaOZz.s:348    .text.cau_fill_data:000000000000000e .L0 
C:\Users\stapi\AppData\Local\Temp\ccbuaOZz.s:351    .text.cau_fill_data:0000000000000010 .L0 
C:\Users\stapi\AppData\Local\Temp\ccbuaOZz.s:352    .text.cau_fill_data:0000000000000010 .L0 
C:\Users\stapi\AppData\Local\Temp\ccbuaOZz.s:353    .text.cau_fill_data:0000000000000010 .L0 
C:\Users\stapi\AppData\Local\Temp\ccbuaOZz.s:356    .text.cau_fill_data:0000000000000018 .L0 
C:\Users\stapi\AppData\Local\Temp\ccbuaOZz.s:360    .text.cau_fill_data:000000000000001c .L0 
C:\Users\stapi\AppData\Local\Temp\ccbuaOZz.s:365    .text.cau_fill_data:0000000000000026 .L0 
C:\Users\stapi\AppData\Local\Temp\ccbuaOZz.s:368    .text.cau_fill_data:0000000000000028 .L0 
C:\Users\stapi\AppData\Local\Temp\ccbuaOZz.s:370    .text.cau_fill_data:000000000000002c .L0 
C:\Users\stapi\AppData\Local\Temp\ccbuaOZz.s:372    .text.cau_fill_data:0000000000000030 .L0 
C:\Users\stapi\AppData\Local\Temp\ccbuaOZz.s:374    .text.cau_fill_data:0000000000000034 .L0 
C:\Users\stapi\AppData\Local\Temp\ccbuaOZz.s:376    .text.cau_fill_data:0000000000000038 .L0 
C:\Users\stapi\AppData\Local\Temp\ccbuaOZz.s:378    .text.cau_fill_data:000000000000003c .L0 
C:\Users\stapi\AppData\Local\Temp\ccbuaOZz.s:383    .text.cau_fill_data:0000000000000040 .L0 
C:\Users\stapi\AppData\Local\Temp\ccbuaOZz.s:384    .text.cau_fill_data:0000000000000040 .L0 
C:\Users\stapi\AppData\Local\Temp\ccbuaOZz.s:386    .text.cau_fill_data:0000000000000044 .L0 
C:\Users\stapi\AppData\Local\Temp\ccbuaOZz.s:387    .text.cau_fill_data:0000000000000044 .L0 
C:\Users\stapi\AppData\Local\Temp\ccbuaOZz.s:389    .text.cau_fill_data:0000000000000046 .L0 
C:\Users\stapi\AppData\Local\Temp\ccbuaOZz.s:393    .text.cau_fill_data:0000000000000048 .L0 
C:\Users\stapi\AppData\Local\Temp\ccbuaOZz.s:394    .text.cau_fill_data:0000000000000048 .L0 
C:\Users\stapi\AppData\Local\Temp\ccbuaOZz.s:395    .text.cau_fill_data:0000000000000048 .L0 
C:\Users\stapi\AppData\Local\Temp\ccbuaOZz.s:399    .text.cau_fill_data:0000000000000052 .L0 
C:\Users\stapi\AppData\Local\Temp\ccbuaOZz.s:400    .text.cau_fill_data:0000000000000052 .L0 
C:\Users\stapi\AppData\Local\Temp\ccbuaOZz.s:404    .text.cau_fill_data:0000000000000058 .L0 
C:\Users\stapi\AppData\Local\Temp\ccbuaOZz.s:405    .text.cau_fill_data:0000000000000058 .L0 
C:\Users\stapi\AppData\Local\Temp\ccbuaOZz.s:407    .text.cau_fill_data:000000000000005a .L0 
C:\Users\stapi\AppData\Local\Temp\ccbuaOZz.s:409    .text.cau_fill_data:000000000000005e .L0 
C:\Users\stapi\AppData\Local\Temp\ccbuaOZz.s:411    .text.cau_fill_data:0000000000000060 .L0 
C:\Users\stapi\AppData\Local\Temp\ccbuaOZz.s:415    .text.cau_fill_data:0000000000000062 .L0 
C:\Users\stapi\AppData\Local\Temp\ccbuaOZz.s:416    .text.cau_fill_data:0000000000000064 .L0 
C:\Users\stapi\AppData\Local\Temp\ccbuaOZz.s:417    .text.cau_fill_data:0000000000000064 .L0 
C:\Users\stapi\AppData\Local\Temp\ccbuaOZz.s:419    .text.cau_fill_data:000000000000006c .L0 
C:\Users\stapi\AppData\Local\Temp\ccbuaOZz.s:420    .text.cau_fill_data:000000000000006c .L0 
C:\Users\stapi\AppData\Local\Temp\ccbuaOZz.s:421    .text.cau_fill_data:000000000000006c .L0 
C:\Users\stapi\AppData\Local\Temp\ccbuaOZz.s:422    .text.cau_fill_data:000000000000006c .L0 
C:\Users\stapi\AppData\Local\Temp\ccbuaOZz.s:423    .text.cau_fill_data:000000000000006c .L0 
C:\Users\stapi\AppData\Local\Temp\ccbuaOZz.s:424    .text.cau_fill_data:000000000000006c .L0 
C:\Users\stapi\AppData\Local\Temp\ccbuaOZz.s:425    .text.cau_fill_data:000000000000006c .L0 
C:\Users\stapi\AppData\Local\Temp\ccbuaOZz.s:426    .text.cau_fill_data:000000000000006c .L0 
C:\Users\stapi\AppData\Local\Temp\ccbuaOZz.s:427    .text.cau_fill_data:000000000000006c .L0 
C:\Users\stapi\AppData\Local\Temp\ccbuaOZz.s:428    .text.cau_fill_data:000000000000006c .L0 
C:\Users\stapi\AppData\Local\Temp\ccbuaOZz.s:429    .text.cau_fill_data:000000000000006c .L0 
C:\Users\stapi\AppData\Local\Temp\ccbuaOZz.s:430    .text.cau_fill_data:000000000000006c .L0 
C:\Users\stapi\AppData\Local\Temp\ccbuaOZz.s:431    .text.cau_fill_data:000000000000006c .L0 
C:\Users\stapi\AppData\Local\Temp\ccbuaOZz.s:432    .text.cau_fill_data:000000000000006c .L0 
C:\Users\stapi\AppData\Local\Temp\ccbuaOZz.s:435    .text.cau_fill_data:000000000000006c .L0 
C:\Users\stapi\AppData\Local\Temp\ccbuaOZz.s:437    .text.cau_fill_data:000000000000006c .L0 
C:\Users\stapi\AppData\Local\Temp\ccbuaOZz.s:438    .text.cau_fill_data:000000000000006c .L0 
C:\Users\stapi\AppData\Local\Temp\ccbuaOZz.s:439    .text.cau_fill_data:000000000000006c .L0 
C:\Users\stapi\AppData\Local\Temp\ccbuaOZz.s:443    .text.cau_fill_data:0000000000000076 .L0 
C:\Users\stapi\AppData\Local\Temp\ccbuaOZz.s:445    .text.cau_fill_data:0000000000000078 .L0 
C:\Users\stapi\AppData\Local\Temp\ccbuaOZz.s:446    .text.cau_fill_data:0000000000000078 .L0 
C:\Users\stapi\AppData\Local\Temp\ccbuaOZz.s:448    .text.cau_fill_data:000000000000007c .L0 
C:\Users\stapi\AppData\Local\Temp\ccbuaOZz.s:451    .text.cau_fill_data:0000000000000080 .L0 
C:\Users\stapi\AppData\Local\Temp\ccbuaOZz.s:452    .text.cau_fill_data:0000000000000080 .L0 
C:\Users\stapi\AppData\Local\Temp\ccbuaOZz.s:456    .text.cau_fill_data:0000000000000088 .L0 
C:\Users\stapi\AppData\Local\Temp\ccbuaOZz.s:461    .text.cau_fill_data:0000000000000090 .L0 
C:\Users\stapi\AppData\Local\Temp\ccbuaOZz.s:464    .text.cau_fill_data:0000000000000098 .L0 
C:\Users\stapi\AppData\Local\Temp\ccbuaOZz.s:465    .text.cau_fill_data:0000000000000098 .L0 
C:\Users\stapi\AppData\Local\Temp\ccbuaOZz.s:467    .text.cau_fill_data:000000000000009c .L0 
C:\Users\stapi\AppData\Local\Temp\ccbuaOZz.s:470    .text.cau_fill_data:000000000000009e .L0 
C:\Users\stapi\AppData\Local\Temp\ccbuaOZz.s:471    .text.cau_fill_data:000000000000009e .L0 
C:\Users\stapi\AppData\Local\Temp\ccbuaOZz.s:473    .text.cau_fill_data:00000000000000a2 .L0 
C:\Users\stapi\AppData\Local\Temp\ccbuaOZz.s:475    .text.cau_fill_data:00000000000000a6 .L0 
C:\Users\stapi\AppData\Local\Temp\ccbuaOZz.s:476    .text.cau_fill_data:00000000000000a6 .L0 
C:\Users\stapi\AppData\Local\Temp\ccbuaOZz.s:478    .text.cau_fill_data:00000000000000aa .L0 
C:\Users\stapi\AppData\Local\Temp\ccbuaOZz.s:480    .text.cau_fill_data:00000000000000ae .L0 
C:\Users\stapi\AppData\Local\Temp\ccbuaOZz.s:483    .text.cau_fill_data:00000000000000b2 .L0 
C:\Users\stapi\AppData\Local\Temp\ccbuaOZz.s:484    .text.cau_fill_data:00000000000000b2 .L0 
C:\Users\stapi\AppData\Local\Temp\ccbuaOZz.s:486    .text.cau_fill_data:00000000000000b6 .L0 
C:\Users\stapi\AppData\Local\Temp\ccbuaOZz.s:488    .text.cau_fill_data:00000000000000ba .L0 
C:\Users\stapi\AppData\Local\Temp\ccbuaOZz.s:491    .text.cau_fill_data:00000000000000c0 .L0 
C:\Users\stapi\AppData\Local\Temp\ccbuaOZz.s:494    .text.cau_fill_data:00000000000000c2 .L0 
C:\Users\stapi\AppData\Local\Temp\ccbuaOZz.s:495    .text.cau_fill_data:00000000000000c2 .L0 
C:\Users\stapi\AppData\Local\Temp\ccbuaOZz.s:497    .text.cau_fill_data:00000000000000c6 .L0 
C:\Users\stapi\AppData\Local\Temp\ccbuaOZz.s:499    .text.cau_fill_data:00000000000000ca .L0 
C:\Users\stapi\AppData\Local\Temp\ccbuaOZz.s:504    .text.cau_fill_data:00000000000000ce .L0 
C:\Users\stapi\AppData\Local\Temp\ccbuaOZz.s:506    .text.cau_fill_data:00000000000000d0 .L0 
C:\Users\stapi\AppData\Local\Temp\ccbuaOZz.s:509    .text.cau_fill_data:00000000000000d2 .L0 
C:\Users\stapi\AppData\Local\Temp\ccbuaOZz.s:512    .text.cau_fill_data:00000000000000da .L0 
C:\Users\stapi\AppData\Local\Temp\ccbuaOZz.s:513    .text.cau_fill_data:00000000000000da .L0 
C:\Users\stapi\AppData\Local\Temp\ccbuaOZz.s:517    .text.cau_fill_data:00000000000000e4 .L0 
C:\Users\stapi\AppData\Local\Temp\ccbuaOZz.s:518    .text.cau_fill_data:00000000000000e4 .L0 
C:\Users\stapi\AppData\Local\Temp\ccbuaOZz.s:522    .text.cau_fill_data:00000000000000ee .L0 
C:\Users\stapi\AppData\Local\Temp\ccbuaOZz.s:523    .text.cau_fill_data:00000000000000ee .L0 
C:\Users\stapi\AppData\Local\Temp\ccbuaOZz.s:525    .text.cau_fill_data:00000000000000f0 .L0 
C:\Users\stapi\AppData\Local\Temp\ccbuaOZz.s:528    .text.cau_fill_data:00000000000000f2 .L0 
C:\Users\stapi\AppData\Local\Temp\ccbuaOZz.s:531    .text.cau_fill_data:00000000000000fa .L0 
C:\Users\stapi\AppData\Local\Temp\ccbuaOZz.s:532    .text.cau_fill_data:00000000000000fa .L0 
C:\Users\stapi\AppData\Local\Temp\ccbuaOZz.s:538    .text.cau_fill_data:0000000000000102 .L0 
C:\Users\stapi\AppData\Local\Temp\ccbuaOZz.s:539    .text.cau_fill_data:0000000000000102 .L0 
C:\Users\stapi\AppData\Local\Temp\ccbuaOZz.s:542    .text.cau_fill_data:0000000000000108 .L0 
C:\Users\stapi\AppData\Local\Temp\ccbuaOZz.s:548    .text.cau_aes_calculate:0000000000000000 cau_aes_calculate
C:\Users\stapi\AppData\Local\Temp\ccbuaOZz.s:551    .text.cau_aes_calculate:0000000000000000 .L0 
C:\Users\stapi\AppData\Local\Temp\ccbuaOZz.s:553    .text.cau_aes_calculate:0000000000000000 .L0 
C:\Users\stapi\AppData\Local\Temp\ccbuaOZz.s:554    .text.cau_aes_calculate:0000000000000008 .L0 
C:\Users\stapi\AppData\Local\Temp\ccbuaOZz.s:555    .text.cau_aes_calculate:0000000000000008 .L0 
C:\Users\stapi\AppData\Local\Temp\ccbuaOZz.s:556    .text.cau_aes_calculate:0000000000000008 .L0 
C:\Users\stapi\AppData\Local\Temp\ccbuaOZz.s:557    .text.cau_aes_calculate:0000000000000008 .L0 
C:\Users\stapi\AppData\Local\Temp\ccbuaOZz.s:558    .text.cau_aes_calculate:0000000000000008 .L0 
C:\Users\stapi\AppData\Local\Temp\ccbuaOZz.s:559    .text.cau_aes_calculate:0000000000000008 .L0 
C:\Users\stapi\AppData\Local\Temp\ccbuaOZz.s:560    .text.cau_aes_calculate:0000000000000008 .L0 
C:\Users\stapi\AppData\Local\Temp\ccbuaOZz.s:561    .text.cau_aes_calculate:0000000000000008 .L0 
C:\Users\stapi\AppData\Local\Temp\ccbuaOZz.s:562    .text.cau_aes_calculate:0000000000000008 .L0 
C:\Users\stapi\AppData\Local\Temp\ccbuaOZz.s:563    .text.cau_aes_calculate:0000000000000008 .L0 
C:\Users\stapi\AppData\Local\Temp\ccbuaOZz.s:564    .text.cau_aes_calculate:0000000000000008 .L0 
C:\Users\stapi\AppData\Local\Temp\ccbuaOZz.s:565    .text.cau_aes_calculate:0000000000000008 .L0 
C:\Users\stapi\AppData\Local\Temp\ccbuaOZz.s:566    .text.cau_aes_calculate:0000000000000008 .L0 
C:\Users\stapi\AppData\Local\Temp\ccbuaOZz.s:567    .text.cau_aes_calculate:0000000000000008 .L0 
C:\Users\stapi\AppData\Local\Temp\ccbuaOZz.s:569    .text.cau_aes_calculate:000000000000000a .L0 
C:\Users\stapi\AppData\Local\Temp\ccbuaOZz.s:571    .text.cau_aes_calculate:000000000000000a .L0 
C:\Users\stapi\AppData\Local\Temp\ccbuaOZz.s:575    .text.cau_aes_calculate:000000000000000e .L0 
C:\Users\stapi\AppData\Local\Temp\ccbuaOZz.s:576    .text.cau_aes_calculate:000000000000000e .L0 
C:\Users\stapi\AppData\Local\Temp\ccbuaOZz.s:577    .text.cau_aes_calculate:000000000000000e .L0 
C:\Users\stapi\AppData\Local\Temp\ccbuaOZz.s:578    .text.cau_aes_calculate:000000000000000e .L0 
C:\Users\stapi\AppData\Local\Temp\ccbuaOZz.s:579    .text.cau_aes_calculate:000000000000000e .L0 
C:\Users\stapi\AppData\Local\Temp\ccbuaOZz.s:581    .text.cau_aes_calculate:0000000000000010 .L0 
C:\Users\stapi\AppData\Local\Temp\ccbuaOZz.s:584    .text.cau_aes_calculate:0000000000000012 .L0 
C:\Users\stapi\AppData\Local\Temp\ccbuaOZz.s:585    .text.cau_aes_calculate:0000000000000012 .L0 
C:\Users\stapi\AppData\Local\Temp\ccbuaOZz.s:586    .text.cau_aes_calculate:0000000000000012 .L0 
C:\Users\stapi\AppData\Local\Temp\ccbuaOZz.s:589    .text.cau_aes_calculate:000000000000001a .L0 
C:\Users\stapi\AppData\Local\Temp\ccbuaOZz.s:593    .text.cau_aes_calculate:000000000000001e .L0 
C:\Users\stapi\AppData\Local\Temp\ccbuaOZz.s:598    .text.cau_aes_calculate:0000000000000028 .L0 
C:\Users\stapi\AppData\Local\Temp\ccbuaOZz.s:601    .text.cau_aes_calculate:000000000000002a .L0 
C:\Users\stapi\AppData\Local\Temp\ccbuaOZz.s:603    .text.cau_aes_calculate:000000000000002e .L0 
C:\Users\stapi\AppData\Local\Temp\ccbuaOZz.s:605    .text.cau_aes_calculate:0000000000000032 .L0 
C:\Users\stapi\AppData\Local\Temp\ccbuaOZz.s:607    .text.cau_aes_calculate:0000000000000036 .L0 
C:\Users\stapi\AppData\Local\Temp\ccbuaOZz.s:609    .text.cau_aes_calculate:000000000000003a .L0 
C:\Users\stapi\AppData\Local\Temp\ccbuaOZz.s:612    .text.cau_aes_calculate:000000000000003e .L0 
C:\Users\stapi\AppData\Local\Temp\ccbuaOZz.s:616    .text.cau_aes_calculate:0000000000000040 .L0 
C:\Users\stapi\AppData\Local\Temp\ccbuaOZz.s:617    .text.cau_aes_calculate:0000000000000040 .L0 
C:\Users\stapi\AppData\Local\Temp\ccbuaOZz.s:619    .text.cau_aes_calculate:0000000000000044 .L0 
C:\Users\stapi\AppData\Local\Temp\ccbuaOZz.s:623    .text.cau_aes_calculate:0000000000000048 .L0 
C:\Users\stapi\AppData\Local\Temp\ccbuaOZz.s:624    .text.cau_aes_calculate:0000000000000048 .L0 
C:\Users\stapi\AppData\Local\Temp\ccbuaOZz.s:625    .text.cau_aes_calculate:0000000000000048 .L0 
C:\Users\stapi\AppData\Local\Temp\ccbuaOZz.s:629    .text.cau_aes_calculate:0000000000000052 .L0 
C:\Users\stapi\AppData\Local\Temp\ccbuaOZz.s:631    .text.cau_aes_calculate:0000000000000054 .L0 
C:\Users\stapi\AppData\Local\Temp\ccbuaOZz.s:632    .text.cau_aes_calculate:0000000000000054 .L0 
C:\Users\stapi\AppData\Local\Temp\ccbuaOZz.s:635    .text.cau_aes_calculate:0000000000000056 .L0 
C:\Users\stapi\AppData\Local\Temp\ccbuaOZz.s:638    .text.cau_aes_calculate:000000000000005a .L0 
C:\Users\stapi\AppData\Local\Temp\ccbuaOZz.s:639    .text.cau_aes_calculate:000000000000005a .L0 
C:\Users\stapi\AppData\Local\Temp\ccbuaOZz.s:643    .text.cau_aes_calculate:0000000000000062 .L0 
C:\Users\stapi\AppData\Local\Temp\ccbuaOZz.s:648    .text.cau_aes_calculate:000000000000006a .L0 
C:\Users\stapi\AppData\Local\Temp\ccbuaOZz.s:651    .text.cau_aes_calculate:0000000000000072 .L0 
C:\Users\stapi\AppData\Local\Temp\ccbuaOZz.s:652    .text.cau_aes_calculate:0000000000000072 .L0 
C:\Users\stapi\AppData\Local\Temp\ccbuaOZz.s:654    .text.cau_aes_calculate:0000000000000076 .L0 
C:\Users\stapi\AppData\Local\Temp\ccbuaOZz.s:657    .text.cau_aes_calculate:0000000000000078 .L0 
C:\Users\stapi\AppData\Local\Temp\ccbuaOZz.s:658    .text.cau_aes_calculate:0000000000000078 .L0 
C:\Users\stapi\AppData\Local\Temp\ccbuaOZz.s:660    .text.cau_aes_calculate:000000000000007c .L0 
C:\Users\stapi\AppData\Local\Temp\ccbuaOZz.s:663    .text.cau_aes_calculate:0000000000000080 .L0 
C:\Users\stapi\AppData\Local\Temp\ccbuaOZz.s:664    .text.cau_aes_calculate:0000000000000080 .L0 
C:\Users\stapi\AppData\Local\Temp\ccbuaOZz.s:666    .text.cau_aes_calculate:0000000000000084 .L0 
C:\Users\stapi\AppData\Local\Temp\ccbuaOZz.s:668    .text.cau_aes_calculate:0000000000000088 .L0 
C:\Users\stapi\AppData\Local\Temp\ccbuaOZz.s:671    .text.cau_aes_calculate:000000000000008e .L0 
C:\Users\stapi\AppData\Local\Temp\ccbuaOZz.s:674    .text.cau_aes_calculate:0000000000000090 .L0 
C:\Users\stapi\AppData\Local\Temp\ccbuaOZz.s:675    .text.cau_aes_calculate:0000000000000090 .L0 
C:\Users\stapi\AppData\Local\Temp\ccbuaOZz.s:677    .text.cau_aes_calculate:0000000000000094 .L0 
C:\Users\stapi\AppData\Local\Temp\ccbuaOZz.s:679    .text.cau_aes_calculate:0000000000000098 .L0 
C:\Users\stapi\AppData\Local\Temp\ccbuaOZz.s:684    .text.cau_aes_calculate:000000000000009c .L0 
C:\Users\stapi\AppData\Local\Temp\ccbuaOZz.s:688    .text.cau_aes_calculate:00000000000000a6 .L0 
C:\Users\stapi\AppData\Local\Temp\ccbuaOZz.s:689    .text.cau_aes_calculate:00000000000000a6 .L0 
C:\Users\stapi\AppData\Local\Temp\ccbuaOZz.s:693    .text.cau_aes_calculate:00000000000000b0 .L0 
C:\Users\stapi\AppData\Local\Temp\ccbuaOZz.s:694    .text.cau_aes_calculate:00000000000000b0 .L0 
C:\Users\stapi\AppData\Local\Temp\ccbuaOZz.s:698    .text.cau_aes_calculate:00000000000000ba .L0 
C:\Users\stapi\AppData\Local\Temp\ccbuaOZz.s:699    .text.cau_aes_calculate:00000000000000ba .L0 
C:\Users\stapi\AppData\Local\Temp\ccbuaOZz.s:701    .text.cau_aes_calculate:00000000000000bc .L0 
C:\Users\stapi\AppData\Local\Temp\ccbuaOZz.s:704    .text.cau_aes_calculate:00000000000000be .L0 
C:\Users\stapi\AppData\Local\Temp\ccbuaOZz.s:707    .text.cau_aes_calculate:00000000000000c6 .L0 
C:\Users\stapi\AppData\Local\Temp\ccbuaOZz.s:708    .text.cau_aes_calculate:00000000000000c6 .L0 
C:\Users\stapi\AppData\Local\Temp\ccbuaOZz.s:709    .text.cau_aes_calculate:00000000000000c6 .L0 
C:\Users\stapi\AppData\Local\Temp\ccbuaOZz.s:712    .text.cau_aes_calculate:00000000000000c8 .L0 
C:\Users\stapi\AppData\Local\Temp\ccbuaOZz.s:713    .text.cau_aes_calculate:00000000000000c8 .L0 
C:\Users\stapi\AppData\Local\Temp\ccbuaOZz.s:714    .text.cau_aes_calculate:00000000000000c8 .L0 
C:\Users\stapi\AppData\Local\Temp\ccbuaOZz.s:718    .text.cau_aes_calculate:00000000000000d2 .L0 
C:\Users\stapi\AppData\Local\Temp\ccbuaOZz.s:719    .text.cau_aes_calculate:00000000000000d2 .L0 
C:\Users\stapi\AppData\Local\Temp\ccbuaOZz.s:723    .text.cau_aes_calculate:00000000000000d8 .L0 
C:\Users\stapi\AppData\Local\Temp\ccbuaOZz.s:724    .text.cau_aes_calculate:00000000000000d8 .L0 
C:\Users\stapi\AppData\Local\Temp\ccbuaOZz.s:726    .text.cau_aes_calculate:00000000000000da .L0 
C:\Users\stapi\AppData\Local\Temp\ccbuaOZz.s:728    .text.cau_aes_calculate:00000000000000de .L0 
C:\Users\stapi\AppData\Local\Temp\ccbuaOZz.s:731    .text.cau_aes_calculate:00000000000000e0 .L0 
C:\Users\stapi\AppData\Local\Temp\ccbuaOZz.s:732    .text.cau_aes_calculate:00000000000000e0 .L0 
C:\Users\stapi\AppData\Local\Temp\ccbuaOZz.s:735    .text.cau_aes_calculate:00000000000000e8 .L0 
C:\Users\stapi\AppData\Local\Temp\ccbuaOZz.s:738    .text.cau_aes_calculate:00000000000000ea .L0 
C:\Users\stapi\AppData\Local\Temp\ccbuaOZz.s:739    .text.cau_aes_calculate:00000000000000ea .L0 
C:\Users\stapi\AppData\Local\Temp\ccbuaOZz.s:740    .text.cau_aes_calculate:00000000000000ea .L0 
C:\Users\stapi\AppData\Local\Temp\ccbuaOZz.s:743    .text.cau_aes_calculate:00000000000000f2 .L0 
C:\Users\stapi\AppData\Local\Temp\ccbuaOZz.s:746    .text.cau_aes_calculate:00000000000000f4 .L0 
C:\Users\stapi\AppData\Local\Temp\ccbuaOZz.s:747    .text.cau_aes_calculate:00000000000000f4 .L0 
C:\Users\stapi\AppData\Local\Temp\ccbuaOZz.s:748    .text.cau_aes_calculate:00000000000000f4 .L0 
C:\Users\stapi\AppData\Local\Temp\ccbuaOZz.s:751    .text.cau_aes_calculate:00000000000000fc .L0 
C:\Users\stapi\AppData\Local\Temp\ccbuaOZz.s:754    .text.cau_aes_calculate:00000000000000fe .L0 
C:\Users\stapi\AppData\Local\Temp\ccbuaOZz.s:755    .text.cau_aes_calculate:00000000000000fe .L0 
C:\Users\stapi\AppData\Local\Temp\ccbuaOZz.s:756    .text.cau_aes_calculate:00000000000000fe .L0 
C:\Users\stapi\AppData\Local\Temp\ccbuaOZz.s:760    .text.cau_aes_calculate:000000000000010a .L0 
C:\Users\stapi\AppData\Local\Temp\ccbuaOZz.s:762    .text.cau_aes_calculate:000000000000010c .L0 
C:\Users\stapi\AppData\Local\Temp\ccbuaOZz.s:764    .text.cau_aes_calculate:000000000000010e .L0 
C:\Users\stapi\AppData\Local\Temp\ccbuaOZz.s:767    .text.cau_aes_calculate:0000000000000110 .L0 
C:\Users\stapi\AppData\Local\Temp\ccbuaOZz.s:771    .text.cau_aes_calculate:0000000000000112 .L0 
C:\Users\stapi\AppData\Local\Temp\ccbuaOZz.s:772    .text.cau_aes_calculate:0000000000000112 .L0 
C:\Users\stapi\AppData\Local\Temp\ccbuaOZz.s:776    .text.cau_aes_calculate:0000000000000114 .L0 
C:\Users\stapi\AppData\Local\Temp\ccbuaOZz.s:779    .text.cau_aes_calculate:0000000000000116 .L0 
C:\Users\stapi\AppData\Local\Temp\ccbuaOZz.s:780    .text.cau_aes_calculate:0000000000000118 .L0 
C:\Users\stapi\AppData\Local\Temp\ccbuaOZz.s:782    .text.cau_aes_calculate:0000000000000120 .L0 
C:\Users\stapi\AppData\Local\Temp\ccbuaOZz.s:783    .text.cau_aes_calculate:0000000000000120 .L0 
C:\Users\stapi\AppData\Local\Temp\ccbuaOZz.s:784    .text.cau_aes_calculate:0000000000000120 .L0 
C:\Users\stapi\AppData\Local\Temp\ccbuaOZz.s:785    .text.cau_aes_calculate:0000000000000120 .L0 
C:\Users\stapi\AppData\Local\Temp\ccbuaOZz.s:786    .text.cau_aes_calculate:0000000000000120 .L0 
C:\Users\stapi\AppData\Local\Temp\ccbuaOZz.s:787    .text.cau_aes_calculate:0000000000000120 .L0 
C:\Users\stapi\AppData\Local\Temp\ccbuaOZz.s:788    .text.cau_aes_calculate:0000000000000120 .L0 
C:\Users\stapi\AppData\Local\Temp\ccbuaOZz.s:789    .text.cau_aes_calculate:0000000000000120 .L0 
C:\Users\stapi\AppData\Local\Temp\ccbuaOZz.s:790    .text.cau_aes_calculate:0000000000000120 .L0 
C:\Users\stapi\AppData\Local\Temp\ccbuaOZz.s:791    .text.cau_aes_calculate:0000000000000120 .L0 
C:\Users\stapi\AppData\Local\Temp\ccbuaOZz.s:792    .text.cau_aes_calculate:0000000000000120 .L0 
C:\Users\stapi\AppData\Local\Temp\ccbuaOZz.s:793    .text.cau_aes_calculate:0000000000000120 .L0 
C:\Users\stapi\AppData\Local\Temp\ccbuaOZz.s:794    .text.cau_aes_calculate:0000000000000120 .L0 
C:\Users\stapi\AppData\Local\Temp\ccbuaOZz.s:795    .text.cau_aes_calculate:0000000000000120 .L0 
C:\Users\stapi\AppData\Local\Temp\ccbuaOZz.s:796    .text.cau_aes_calculate:0000000000000120 .L0 
C:\Users\stapi\AppData\Local\Temp\ccbuaOZz.s:803    .text.cau_aes_ecb:0000000000000000 cau_aes_ecb
C:\Users\stapi\AppData\Local\Temp\ccbuaOZz.s:806    .text.cau_aes_ecb:0000000000000000 .L0 
C:\Users\stapi\AppData\Local\Temp\ccbuaOZz.s:808    .text.cau_aes_ecb:0000000000000000 .L0 
C:\Users\stapi\AppData\Local\Temp\ccbuaOZz.s:809    .text.cau_aes_ecb:0000000000000008 .L0 
C:\Users\stapi\AppData\Local\Temp\ccbuaOZz.s:810    .text.cau_aes_ecb:0000000000000008 .L0 
C:\Users\stapi\AppData\Local\Temp\ccbuaOZz.s:811    .text.cau_aes_ecb:0000000000000008 .L0 
C:\Users\stapi\AppData\Local\Temp\ccbuaOZz.s:812    .text.cau_aes_ecb:0000000000000008 .L0 
C:\Users\stapi\AppData\Local\Temp\ccbuaOZz.s:813    .text.cau_aes_ecb:0000000000000008 .L0 
C:\Users\stapi\AppData\Local\Temp\ccbuaOZz.s:816    .text.cau_aes_ecb:0000000000000008 .L0 
C:\Users\stapi\AppData\Local\Temp\ccbuaOZz.s:817    .text.cau_aes_ecb:0000000000000008 .L0 
C:\Users\stapi\AppData\Local\Temp\ccbuaOZz.s:818    .text.cau_aes_ecb:0000000000000008 .L0 
C:\Users\stapi\AppData\Local\Temp\ccbuaOZz.s:819    .text.cau_aes_ecb:0000000000000008 .L0 
C:\Users\stapi\AppData\Local\Temp\ccbuaOZz.s:820    .text.cau_aes_ecb:000000000000000a .L0 
C:\Users\stapi\AppData\Local\Temp\ccbuaOZz.s:822    .text.cau_aes_ecb:000000000000000a .L0 
C:\Users\stapi\AppData\Local\Temp\ccbuaOZz.s:824    .text.cau_aes_ecb:000000000000000c .L0 
C:\Users\stapi\AppData\Local\Temp\ccbuaOZz.s:827    .text.cau_aes_ecb:000000000000000e .L0 
C:\Users\stapi\AppData\Local\Temp\ccbuaOZz.s:829    .text.cau_aes_ecb:0000000000000010 .L0 
C:\Users\stapi\AppData\Local\Temp\ccbuaOZz.s:832    .text.cau_aes_ecb:0000000000000012 .L0 
C:\Users\stapi\AppData\Local\Temp\ccbuaOZz.s:833    .text.cau_aes_ecb:0000000000000012 .L0 
C:\Users\stapi\AppData\Local\Temp\ccbuaOZz.s:836    .text.cau_aes_ecb:000000000000001a .L0 
C:\Users\stapi\AppData\Local\Temp\ccbuaOZz.s:842    .text.cau_aes_ecb:0000000000000028 .L0 
C:\Users\stapi\AppData\Local\Temp\ccbuaOZz.s:846    .text.cau_aes_ecb:0000000000000032 .L0 
C:\Users\stapi\AppData\Local\Temp\ccbuaOZz.s:847    .text.cau_aes_ecb:0000000000000032 .L0 
C:\Users\stapi\AppData\Local\Temp\ccbuaOZz.s:853    .text.cau_aes_ecb:000000000000003a .L0 
C:\Users\stapi\AppData\Local\Temp\ccbuaOZz.s:859    .text.cau_aes_ecb:000000000000004c .L0 
C:\Users\stapi\AppData\Local\Temp\ccbuaOZz.s:862    .text.cau_aes_ecb:0000000000000054 .L0 
C:\Users\stapi\AppData\Local\Temp\ccbuaOZz.s:865    .text.cau_aes_ecb:000000000000005c .L0 
C:\Users\stapi\AppData\Local\Temp\ccbuaOZz.s:866    .text.cau_aes_ecb:000000000000005c .L0 
C:\Users\stapi\AppData\Local\Temp\ccbuaOZz.s:874    .text.cau_aes_ecb:000000000000006c .L0 
C:\Users\stapi\AppData\Local\Temp\ccbuaOZz.s:877    .text.cau_aes_ecb:0000000000000074 .L0 
C:\Users\stapi\AppData\Local\Temp\ccbuaOZz.s:878    .text.cau_aes_ecb:0000000000000074 .L0 
C:\Users\stapi\AppData\Local\Temp\ccbuaOZz.s:882    .text.cau_aes_ecb:0000000000000076 .L0 
C:\Users\stapi\AppData\Local\Temp\ccbuaOZz.s:883    .text.cau_aes_ecb:0000000000000078 .L0 
C:\Users\stapi\AppData\Local\Temp\ccbuaOZz.s:884    .text.cau_aes_ecb:0000000000000078 .L0 
C:\Users\stapi\AppData\Local\Temp\ccbuaOZz.s:886    .text.cau_aes_ecb:0000000000000080 .L0 
C:\Users\stapi\AppData\Local\Temp\ccbuaOZz.s:887    .text.cau_aes_ecb:0000000000000080 .L0 
C:\Users\stapi\AppData\Local\Temp\ccbuaOZz.s:888    .text.cau_aes_ecb:0000000000000080 .L0 
C:\Users\stapi\AppData\Local\Temp\ccbuaOZz.s:889    .text.cau_aes_ecb:0000000000000080 .L0 
C:\Users\stapi\AppData\Local\Temp\ccbuaOZz.s:890    .text.cau_aes_ecb:0000000000000080 .L0 
C:\Users\stapi\AppData\Local\Temp\ccbuaOZz.s:893    .text.cau_aes_ecb:0000000000000080 .L0 
C:\Users\stapi\AppData\Local\Temp\ccbuaOZz.s:895    .text.cau_aes_ecb:0000000000000080 .L0 
C:\Users\stapi\AppData\Local\Temp\ccbuaOZz.s:898    .text.cau_aes_ecb:0000000000000088 .L0 
C:\Users\stapi\AppData\Local\Temp\ccbuaOZz.s:904    .text.cau_aes_ecb:0000000000000098 .L0 
C:\Users\stapi\AppData\Local\Temp\ccbuaOZz.s:905    .text.cau_aes_ecb:0000000000000098 .L0 
C:\Users\stapi\AppData\Local\Temp\ccbuaOZz.s:907    .text.cau_aes_ecb:000000000000009a .L0 
C:\Users\stapi\AppData\Local\Temp\ccbuaOZz.s:911    .text.cau_aes_ecb:00000000000000a2 .L0 
C:\Users\stapi\AppData\Local\Temp\ccbuaOZz.s:912    .text.cau_aes_ecb:00000000000000a2 .L0 
C:\Users\stapi\AppData\Local\Temp\ccbuaOZz.s:913    .text.cau_aes_ecb:00000000000000a2 .L0 
C:\Users\stapi\AppData\Local\Temp\ccbuaOZz.s:917    .text.cau_aes_ecb:00000000000000ac .L0 
C:\Users\stapi\AppData\Local\Temp\ccbuaOZz.s:918    .text.cau_aes_ecb:00000000000000ac .L0 
C:\Users\stapi\AppData\Local\Temp\ccbuaOZz.s:922    .text.cau_aes_ecb:00000000000000b2 .L0 
C:\Users\stapi\AppData\Local\Temp\ccbuaOZz.s:923    .text.cau_aes_ecb:00000000000000b2 .L0 
C:\Users\stapi\AppData\Local\Temp\ccbuaOZz.s:925    .text.cau_aes_ecb:00000000000000b4 .L0 
C:\Users\stapi\AppData\Local\Temp\ccbuaOZz.s:927    .text.cau_aes_ecb:00000000000000b8 .L0 
C:\Users\stapi\AppData\Local\Temp\ccbuaOZz.s:931    .text.cau_aes_ecb:00000000000000bc .L0 
C:\Users\stapi\AppData\Local\Temp\ccbuaOZz.s:932    .text.cau_aes_ecb:00000000000000bc .L0 
C:\Users\stapi\AppData\Local\Temp\ccbuaOZz.s:934    .text.cau_aes_ecb:00000000000000be .L0 
C:\Users\stapi\AppData\Local\Temp\ccbuaOZz.s:937    .text.cau_aes_ecb:00000000000000c2 .L0 
C:\Users\stapi\AppData\Local\Temp\ccbuaOZz.s:944    .text.cau_aes_cbc:0000000000000000 cau_aes_cbc
C:\Users\stapi\AppData\Local\Temp\ccbuaOZz.s:947    .text.cau_aes_cbc:0000000000000000 .L0 
C:\Users\stapi\AppData\Local\Temp\ccbuaOZz.s:949    .text.cau_aes_cbc:0000000000000000 .L0 
C:\Users\stapi\AppData\Local\Temp\ccbuaOZz.s:950    .text.cau_aes_cbc:0000000000000008 .L0 
C:\Users\stapi\AppData\Local\Temp\ccbuaOZz.s:951    .text.cau_aes_cbc:0000000000000008 .L0 
C:\Users\stapi\AppData\Local\Temp\ccbuaOZz.s:952    .text.cau_aes_cbc:0000000000000008 .L0 
C:\Users\stapi\AppData\Local\Temp\ccbuaOZz.s:953    .text.cau_aes_cbc:0000000000000008 .L0 
C:\Users\stapi\AppData\Local\Temp\ccbuaOZz.s:954    .text.cau_aes_cbc:0000000000000008 .L0 
C:\Users\stapi\AppData\Local\Temp\ccbuaOZz.s:955    .text.cau_aes_cbc:0000000000000008 .L0 
C:\Users\stapi\AppData\Local\Temp\ccbuaOZz.s:958    .text.cau_aes_cbc:0000000000000008 .L0 
C:\Users\stapi\AppData\Local\Temp\ccbuaOZz.s:959    .text.cau_aes_cbc:0000000000000008 .L0 
C:\Users\stapi\AppData\Local\Temp\ccbuaOZz.s:960    .text.cau_aes_cbc:0000000000000008 .L0 
C:\Users\stapi\AppData\Local\Temp\ccbuaOZz.s:961    .text.cau_aes_cbc:0000000000000008 .L0 
C:\Users\stapi\AppData\Local\Temp\ccbuaOZz.s:962    .text.cau_aes_cbc:0000000000000008 .L0 
C:\Users\stapi\AppData\Local\Temp\ccbuaOZz.s:963    .text.cau_aes_cbc:000000000000000a .L0 
C:\Users\stapi\AppData\Local\Temp\ccbuaOZz.s:965    .text.cau_aes_cbc:000000000000000a .L0 
C:\Users\stapi\AppData\Local\Temp\ccbuaOZz.s:967    .text.cau_aes_cbc:000000000000000c .L0 
C:\Users\stapi\AppData\Local\Temp\ccbuaOZz.s:969    .text.cau_aes_cbc:000000000000000e .L0 
C:\Users\stapi\AppData\Local\Temp\ccbuaOZz.s:972    .text.cau_aes_cbc:0000000000000010 .L0 
C:\Users\stapi\AppData\Local\Temp\ccbuaOZz.s:974    .text.cau_aes_cbc:0000000000000012 .L0 
C:\Users\stapi\AppData\Local\Temp\ccbuaOZz.s:977    .text.cau_aes_cbc:0000000000000014 .L0 
C:\Users\stapi\AppData\Local\Temp\ccbuaOZz.s:978    .text.cau_aes_cbc:0000000000000014 .L0 
C:\Users\stapi\AppData\Local\Temp\ccbuaOZz.s:979    .text.cau_aes_cbc:0000000000000014 .L0 
C:\Users\stapi\AppData\Local\Temp\ccbuaOZz.s:982    .text.cau_aes_cbc:000000000000001c .L0 
C:\Users\stapi\AppData\Local\Temp\ccbuaOZz.s:988    .text.cau_aes_cbc:000000000000002a .L0 
C:\Users\stapi\AppData\Local\Temp\ccbuaOZz.s:992    .text.cau_aes_cbc:0000000000000034 .L0 
C:\Users\stapi\AppData\Local\Temp\ccbuaOZz.s:993    .text.cau_aes_cbc:0000000000000034 .L0 
C:\Users\stapi\AppData\Local\Temp\ccbuaOZz.s:999    .text.cau_aes_cbc:000000000000003c .L0 
C:\Users\stapi\AppData\Local\Temp\ccbuaOZz.s:1005   .text.cau_aes_cbc:000000000000004e .L0 
C:\Users\stapi\AppData\Local\Temp\ccbuaOZz.s:1007   .text.cau_aes_cbc:0000000000000050 .L0 
C:\Users\stapi\AppData\Local\Temp\ccbuaOZz.s:1013   .text.cau_aes_cbc:0000000000000056 .L0 
C:\Users\stapi\AppData\Local\Temp\ccbuaOZz.s:1014   .text.cau_aes_cbc:0000000000000056 .L0 
C:\Users\stapi\AppData\Local\Temp\ccbuaOZz.s:1017   .text.cau_aes_cbc:0000000000000056 .L0 
C:\Users\stapi\AppData\Local\Temp\ccbuaOZz.s:1018   .text.cau_aes_cbc:0000000000000056 .L0 
C:\Users\stapi\AppData\Local\Temp\ccbuaOZz.s:1021   .text.cau_aes_cbc:0000000000000058 .L0 
C:\Users\stapi\AppData\Local\Temp\ccbuaOZz.s:1022   .text.cau_aes_cbc:0000000000000058 .L0 
C:\Users\stapi\AppData\Local\Temp\ccbuaOZz.s:1028   .text.cau_aes_cbc:000000000000005e .L0 
C:\Users\stapi\AppData\Local\Temp\ccbuaOZz.s:1029   .text.cau_aes_cbc:000000000000005e .L0 
C:\Users\stapi\AppData\Local\Temp\ccbuaOZz.s:1032   .text.cau_aes_cbc:000000000000005e .L0 
C:\Users\stapi\AppData\Local\Temp\ccbuaOZz.s:1033   .text.cau_aes_cbc:000000000000005e .L0 
C:\Users\stapi\AppData\Local\Temp\ccbuaOZz.s:1036   .text.cau_aes_cbc:0000000000000060 .L0 
C:\Users\stapi\AppData\Local\Temp\ccbuaOZz.s:1037   .text.cau_aes_cbc:0000000000000060 .L0 
C:\Users\stapi\AppData\Local\Temp\ccbuaOZz.s:1043   .text.cau_aes_cbc:0000000000000066 .L0 
C:\Users\stapi\AppData\Local\Temp\ccbuaOZz.s:1044   .text.cau_aes_cbc:0000000000000066 .L0 
C:\Users\stapi\AppData\Local\Temp\ccbuaOZz.s:1047   .text.cau_aes_cbc:0000000000000066 .L0 
C:\Users\stapi\AppData\Local\Temp\ccbuaOZz.s:1048   .text.cau_aes_cbc:0000000000000066 .L0 
C:\Users\stapi\AppData\Local\Temp\ccbuaOZz.s:1051   .text.cau_aes_cbc:0000000000000068 .L0 
C:\Users\stapi\AppData\Local\Temp\ccbuaOZz.s:1052   .text.cau_aes_cbc:0000000000000068 .L0 
C:\Users\stapi\AppData\Local\Temp\ccbuaOZz.s:1058   .text.cau_aes_cbc:000000000000006e .L0 
C:\Users\stapi\AppData\Local\Temp\ccbuaOZz.s:1059   .text.cau_aes_cbc:000000000000006e .L0 
C:\Users\stapi\AppData\Local\Temp\ccbuaOZz.s:1062   .text.cau_aes_cbc:000000000000006e .L0 
C:\Users\stapi\AppData\Local\Temp\ccbuaOZz.s:1063   .text.cau_aes_cbc:000000000000006e .L0 
C:\Users\stapi\AppData\Local\Temp\ccbuaOZz.s:1065   .text.cau_aes_cbc:0000000000000070 .L0 
C:\Users\stapi\AppData\Local\Temp\ccbuaOZz.s:1068   .text.cau_aes_cbc:0000000000000078 .L0 
C:\Users\stapi\AppData\Local\Temp\ccbuaOZz.s:1071   .text.cau_aes_cbc:0000000000000080 .L0 
C:\Users\stapi\AppData\Local\Temp\ccbuaOZz.s:1074   .text.cau_aes_cbc:0000000000000088 .L0 
C:\Users\stapi\AppData\Local\Temp\ccbuaOZz.s:1075   .text.cau_aes_cbc:0000000000000088 .L0 
C:\Users\stapi\AppData\Local\Temp\ccbuaOZz.s:1083   .text.cau_aes_cbc:0000000000000098 .L0 
C:\Users\stapi\AppData\Local\Temp\ccbuaOZz.s:1086   .text.cau_aes_cbc:00000000000000a0 .L0 
C:\Users\stapi\AppData\Local\Temp\ccbuaOZz.s:1087   .text.cau_aes_cbc:00000000000000a0 .L0 
C:\Users\stapi\AppData\Local\Temp\ccbuaOZz.s:1091   .text.cau_aes_cbc:00000000000000a2 .L0 
C:\Users\stapi\AppData\Local\Temp\ccbuaOZz.s:1092   .text.cau_aes_cbc:00000000000000a4 .L0 
C:\Users\stapi\AppData\Local\Temp\ccbuaOZz.s:1093   .text.cau_aes_cbc:00000000000000a4 .L0 
C:\Users\stapi\AppData\Local\Temp\ccbuaOZz.s:1095   .text.cau_aes_cbc:00000000000000ac .L0 
C:\Users\stapi\AppData\Local\Temp\ccbuaOZz.s:1096   .text.cau_aes_cbc:00000000000000ac .L0 
C:\Users\stapi\AppData\Local\Temp\ccbuaOZz.s:1097   .text.cau_aes_cbc:00000000000000ac .L0 
C:\Users\stapi\AppData\Local\Temp\ccbuaOZz.s:1098   .text.cau_aes_cbc:00000000000000ac .L0 
C:\Users\stapi\AppData\Local\Temp\ccbuaOZz.s:1099   .text.cau_aes_cbc:00000000000000ac .L0 
C:\Users\stapi\AppData\Local\Temp\ccbuaOZz.s:1100   .text.cau_aes_cbc:00000000000000ac .L0 
C:\Users\stapi\AppData\Local\Temp\ccbuaOZz.s:1103   .text.cau_aes_cbc:00000000000000ac .L0 
C:\Users\stapi\AppData\Local\Temp\ccbuaOZz.s:1105   .text.cau_aes_cbc:00000000000000ac .L0 
C:\Users\stapi\AppData\Local\Temp\ccbuaOZz.s:1108   .text.cau_aes_cbc:00000000000000b4 .L0 
C:\Users\stapi\AppData\Local\Temp\ccbuaOZz.s:1114   .text.cau_aes_cbc:00000000000000c4 .L0 
C:\Users\stapi\AppData\Local\Temp\ccbuaOZz.s:1115   .text.cau_aes_cbc:00000000000000c4 .L0 
C:\Users\stapi\AppData\Local\Temp\ccbuaOZz.s:1117   .text.cau_aes_cbc:00000000000000c6 .L0 
C:\Users\stapi\AppData\Local\Temp\ccbuaOZz.s:1121   .text.cau_aes_cbc:00000000000000ce .L0 
C:\Users\stapi\AppData\Local\Temp\ccbuaOZz.s:1122   .text.cau_aes_cbc:00000000000000ce .L0 
C:\Users\stapi\AppData\Local\Temp\ccbuaOZz.s:1123   .text.cau_aes_cbc:00000000000000ce .L0 
C:\Users\stapi\AppData\Local\Temp\ccbuaOZz.s:1127   .text.cau_aes_cbc:00000000000000d8 .L0 
C:\Users\stapi\AppData\Local\Temp\ccbuaOZz.s:1128   .text.cau_aes_cbc:00000000000000d8 .L0 
C:\Users\stapi\AppData\Local\Temp\ccbuaOZz.s:1132   .text.cau_aes_cbc:00000000000000de .L0 
C:\Users\stapi\AppData\Local\Temp\ccbuaOZz.s:1133   .text.cau_aes_cbc:00000000000000de .L0 
C:\Users\stapi\AppData\Local\Temp\ccbuaOZz.s:1135   .text.cau_aes_cbc:00000000000000e0 .L0 
C:\Users\stapi\AppData\Local\Temp\ccbuaOZz.s:1137   .text.cau_aes_cbc:00000000000000e4 .L0 
C:\Users\stapi\AppData\Local\Temp\ccbuaOZz.s:1141   .text.cau_aes_cbc:00000000000000e8 .L0 
C:\Users\stapi\AppData\Local\Temp\ccbuaOZz.s:1142   .text.cau_aes_cbc:00000000000000e8 .L0 
C:\Users\stapi\AppData\Local\Temp\ccbuaOZz.s:1144   .text.cau_aes_cbc:00000000000000ea .L0 
C:\Users\stapi\AppData\Local\Temp\ccbuaOZz.s:1147   .text.cau_aes_cbc:00000000000000ee .L0 
C:\Users\stapi\AppData\Local\Temp\ccbuaOZz.s:1154   .text.cau_aes_ctr:0000000000000000 cau_aes_ctr
C:\Users\stapi\AppData\Local\Temp\ccbuaOZz.s:1157   .text.cau_aes_ctr:0000000000000000 .L0 
C:\Users\stapi\AppData\Local\Temp\ccbuaOZz.s:1159   .text.cau_aes_ctr:0000000000000000 .L0 
C:\Users\stapi\AppData\Local\Temp\ccbuaOZz.s:1160   .text.cau_aes_ctr:0000000000000008 .L0 
C:\Users\stapi\AppData\Local\Temp\ccbuaOZz.s:1161   .text.cau_aes_ctr:0000000000000008 .L0 
C:\Users\stapi\AppData\Local\Temp\ccbuaOZz.s:1162   .text.cau_aes_ctr:0000000000000008 .L0 
C:\Users\stapi\AppData\Local\Temp\ccbuaOZz.s:1163   .text.cau_aes_ctr:0000000000000008 .L0 
C:\Users\stapi\AppData\Local\Temp\ccbuaOZz.s:1164   .text.cau_aes_ctr:0000000000000008 .L0 
C:\Users\stapi\AppData\Local\Temp\ccbuaOZz.s:1167   .text.cau_aes_ctr:0000000000000008 .L0 
C:\Users\stapi\AppData\Local\Temp\ccbuaOZz.s:1168   .text.cau_aes_ctr:0000000000000008 .L0 
C:\Users\stapi\AppData\Local\Temp\ccbuaOZz.s:1169   .text.cau_aes_ctr:0000000000000008 .L0 
C:\Users\stapi\AppData\Local\Temp\ccbuaOZz.s:1170   .text.cau_aes_ctr:0000000000000008 .L0 
C:\Users\stapi\AppData\Local\Temp\ccbuaOZz.s:1171   .text.cau_aes_ctr:0000000000000008 .L0 
C:\Users\stapi\AppData\Local\Temp\ccbuaOZz.s:1172   .text.cau_aes_ctr:000000000000000a .L0 
C:\Users\stapi\AppData\Local\Temp\ccbuaOZz.s:1174   .text.cau_aes_ctr:000000000000000a .L0 
C:\Users\stapi\AppData\Local\Temp\ccbuaOZz.s:1176   .text.cau_aes_ctr:000000000000000c .L0 
C:\Users\stapi\AppData\Local\Temp\ccbuaOZz.s:1179   .text.cau_aes_ctr:000000000000000e .L0 
C:\Users\stapi\AppData\Local\Temp\ccbuaOZz.s:1182   .text.cau_aes_ctr:0000000000000010 .L0 
C:\Users\stapi\AppData\Local\Temp\ccbuaOZz.s:1184   .text.cau_aes_ctr:0000000000000012 .L0 
C:\Users\stapi\AppData\Local\Temp\ccbuaOZz.s:1187   .text.cau_aes_ctr:000000000000001a .L0 
C:\Users\stapi\AppData\Local\Temp\ccbuaOZz.s:1193   .text.cau_aes_ctr:000000000000002c .L0 
C:\Users\stapi\AppData\Local\Temp\ccbuaOZz.s:1199   .text.cau_aes_ctr:000000000000003a .L0 
C:\Users\stapi\AppData\Local\Temp\ccbuaOZz.s:1203   .text.cau_aes_ctr:0000000000000044 .L0 
C:\Users\stapi\AppData\Local\Temp\ccbuaOZz.s:1205   .text.cau_aes_ctr:0000000000000046 .L0 
C:\Users\stapi\AppData\Local\Temp\ccbuaOZz.s:1211   .text.cau_aes_ctr:000000000000004c .L0 
C:\Users\stapi\AppData\Local\Temp\ccbuaOZz.s:1212   .text.cau_aes_ctr:000000000000004c .L0 
C:\Users\stapi\AppData\Local\Temp\ccbuaOZz.s:1215   .text.cau_aes_ctr:000000000000004c .L0 
C:\Users\stapi\AppData\Local\Temp\ccbuaOZz.s:1216   .text.cau_aes_ctr:000000000000004c .L0 
C:\Users\stapi\AppData\Local\Temp\ccbuaOZz.s:1219   .text.cau_aes_ctr:000000000000004e .L0 
C:\Users\stapi\AppData\Local\Temp\ccbuaOZz.s:1220   .text.cau_aes_ctr:000000000000004e .L0 
C:\Users\stapi\AppData\Local\Temp\ccbuaOZz.s:1226   .text.cau_aes_ctr:0000000000000054 .L0 
C:\Users\stapi\AppData\Local\Temp\ccbuaOZz.s:1227   .text.cau_aes_ctr:0000000000000054 .L0 
C:\Users\stapi\AppData\Local\Temp\ccbuaOZz.s:1230   .text.cau_aes_ctr:0000000000000054 .L0 
C:\Users\stapi\AppData\Local\Temp\ccbuaOZz.s:1231   .text.cau_aes_ctr:0000000000000054 .L0 
C:\Users\stapi\AppData\Local\Temp\ccbuaOZz.s:1234   .text.cau_aes_ctr:0000000000000056 .L0 
C:\Users\stapi\AppData\Local\Temp\ccbuaOZz.s:1235   .text.cau_aes_ctr:0000000000000056 .L0 
C:\Users\stapi\AppData\Local\Temp\ccbuaOZz.s:1241   .text.cau_aes_ctr:000000000000005c .L0 
C:\Users\stapi\AppData\Local\Temp\ccbuaOZz.s:1242   .text.cau_aes_ctr:000000000000005c .L0 
C:\Users\stapi\AppData\Local\Temp\ccbuaOZz.s:1245   .text.cau_aes_ctr:000000000000005c .L0 
C:\Users\stapi\AppData\Local\Temp\ccbuaOZz.s:1246   .text.cau_aes_ctr:000000000000005c .L0 
C:\Users\stapi\AppData\Local\Temp\ccbuaOZz.s:1249   .text.cau_aes_ctr:000000000000005e .L0 
C:\Users\stapi\AppData\Local\Temp\ccbuaOZz.s:1250   .text.cau_aes_ctr:000000000000005e .L0 
C:\Users\stapi\AppData\Local\Temp\ccbuaOZz.s:1256   .text.cau_aes_ctr:0000000000000064 .L0 
C:\Users\stapi\AppData\Local\Temp\ccbuaOZz.s:1257   .text.cau_aes_ctr:0000000000000064 .L0 
C:\Users\stapi\AppData\Local\Temp\ccbuaOZz.s:1260   .text.cau_aes_ctr:0000000000000064 .L0 
C:\Users\stapi\AppData\Local\Temp\ccbuaOZz.s:1261   .text.cau_aes_ctr:0000000000000064 .L0 
C:\Users\stapi\AppData\Local\Temp\ccbuaOZz.s:1263   .text.cau_aes_ctr:0000000000000066 .L0 
C:\Users\stapi\AppData\Local\Temp\ccbuaOZz.s:1266   .text.cau_aes_ctr:000000000000006e .L0 
C:\Users\stapi\AppData\Local\Temp\ccbuaOZz.s:1269   .text.cau_aes_ctr:0000000000000076 .L0 
C:\Users\stapi\AppData\Local\Temp\ccbuaOZz.s:1272   .text.cau_aes_ctr:000000000000007e .L0 
C:\Users\stapi\AppData\Local\Temp\ccbuaOZz.s:1273   .text.cau_aes_ctr:000000000000007e .L0 
C:\Users\stapi\AppData\Local\Temp\ccbuaOZz.s:1281   .text.cau_aes_ctr:000000000000008e .L0 
C:\Users\stapi\AppData\Local\Temp\ccbuaOZz.s:1284   .text.cau_aes_ctr:0000000000000096 .L0 
C:\Users\stapi\AppData\Local\Temp\ccbuaOZz.s:1285   .text.cau_aes_ctr:0000000000000096 .L0 
C:\Users\stapi\AppData\Local\Temp\ccbuaOZz.s:1287   .text.cau_aes_ctr:000000000000009a .L0 
C:\Users\stapi\AppData\Local\Temp\ccbuaOZz.s:1290   .text.cau_aes_ctr:00000000000000a2 .L0 
C:\Users\stapi\AppData\Local\Temp\ccbuaOZz.s:1291   .text.cau_aes_ctr:00000000000000a2 .L0 
C:\Users\stapi\AppData\Local\Temp\ccbuaOZz.s:1292   .text.cau_aes_ctr:00000000000000a2 .L0 
C:\Users\stapi\AppData\Local\Temp\ccbuaOZz.s:1293   .text.cau_aes_ctr:00000000000000a2 .L0 
C:\Users\stapi\AppData\Local\Temp\ccbuaOZz.s:1294   .text.cau_aes_ctr:00000000000000a2 .L0 
C:\Users\stapi\AppData\Local\Temp\ccbuaOZz.s:1295   .text.cau_aes_ctr:00000000000000a2 .L0 
C:\Users\stapi\AppData\Local\Temp\ccbuaOZz.s:1302   .text.cau_aes_cfb:0000000000000000 cau_aes_cfb
C:\Users\stapi\AppData\Local\Temp\ccbuaOZz.s:1305   .text.cau_aes_cfb:0000000000000000 .L0 
C:\Users\stapi\AppData\Local\Temp\ccbuaOZz.s:1307   .text.cau_aes_cfb:0000000000000000 .L0 
C:\Users\stapi\AppData\Local\Temp\ccbuaOZz.s:1308   .text.cau_aes_cfb:0000000000000008 .L0 
C:\Users\stapi\AppData\Local\Temp\ccbuaOZz.s:1309   .text.cau_aes_cfb:0000000000000008 .L0 
C:\Users\stapi\AppData\Local\Temp\ccbuaOZz.s:1310   .text.cau_aes_cfb:0000000000000008 .L0 
C:\Users\stapi\AppData\Local\Temp\ccbuaOZz.s:1311   .text.cau_aes_cfb:0000000000000008 .L0 
C:\Users\stapi\AppData\Local\Temp\ccbuaOZz.s:1312   .text.cau_aes_cfb:0000000000000008 .L0 
C:\Users\stapi\AppData\Local\Temp\ccbuaOZz.s:1315   .text.cau_aes_cfb:0000000000000008 .L0 
C:\Users\stapi\AppData\Local\Temp\ccbuaOZz.s:1316   .text.cau_aes_cfb:0000000000000008 .L0 
C:\Users\stapi\AppData\Local\Temp\ccbuaOZz.s:1317   .text.cau_aes_cfb:0000000000000008 .L0 
C:\Users\stapi\AppData\Local\Temp\ccbuaOZz.s:1318   .text.cau_aes_cfb:0000000000000008 .L0 
C:\Users\stapi\AppData\Local\Temp\ccbuaOZz.s:1319   .text.cau_aes_cfb:0000000000000008 .L0 
C:\Users\stapi\AppData\Local\Temp\ccbuaOZz.s:1320   .text.cau_aes_cfb:000000000000000a .L0 
C:\Users\stapi\AppData\Local\Temp\ccbuaOZz.s:1322   .text.cau_aes_cfb:000000000000000a .L0 
C:\Users\stapi\AppData\Local\Temp\ccbuaOZz.s:1324   .text.cau_aes_cfb:000000000000000c .L0 
C:\Users\stapi\AppData\Local\Temp\ccbuaOZz.s:1327   .text.cau_aes_cfb:000000000000000e .L0 
C:\Users\stapi\AppData\Local\Temp\ccbuaOZz.s:1330   .text.cau_aes_cfb:0000000000000010 .L0 
C:\Users\stapi\AppData\Local\Temp\ccbuaOZz.s:1332   .text.cau_aes_cfb:0000000000000012 .L0 
C:\Users\stapi\AppData\Local\Temp\ccbuaOZz.s:1335   .text.cau_aes_cfb:000000000000001a .L0 
C:\Users\stapi\AppData\Local\Temp\ccbuaOZz.s:1342   .text.cau_aes_cfb:000000000000002e .L0 
C:\Users\stapi\AppData\Local\Temp\ccbuaOZz.s:1348   .text.cau_aes_cfb:000000000000003c .L0 
C:\Users\stapi\AppData\Local\Temp\ccbuaOZz.s:1352   .text.cau_aes_cfb:0000000000000046 .L0 
C:\Users\stapi\AppData\Local\Temp\ccbuaOZz.s:1354   .text.cau_aes_cfb:0000000000000048 .L0 
C:\Users\stapi\AppData\Local\Temp\ccbuaOZz.s:1360   .text.cau_aes_cfb:000000000000004e .L0 
C:\Users\stapi\AppData\Local\Temp\ccbuaOZz.s:1361   .text.cau_aes_cfb:000000000000004e .L0 
C:\Users\stapi\AppData\Local\Temp\ccbuaOZz.s:1364   .text.cau_aes_cfb:000000000000004e .L0 
C:\Users\stapi\AppData\Local\Temp\ccbuaOZz.s:1365   .text.cau_aes_cfb:000000000000004e .L0 
C:\Users\stapi\AppData\Local\Temp\ccbuaOZz.s:1368   .text.cau_aes_cfb:0000000000000050 .L0 
C:\Users\stapi\AppData\Local\Temp\ccbuaOZz.s:1369   .text.cau_aes_cfb:0000000000000050 .L0 
C:\Users\stapi\AppData\Local\Temp\ccbuaOZz.s:1375   .text.cau_aes_cfb:0000000000000056 .L0 
C:\Users\stapi\AppData\Local\Temp\ccbuaOZz.s:1376   .text.cau_aes_cfb:0000000000000056 .L0 
C:\Users\stapi\AppData\Local\Temp\ccbuaOZz.s:1379   .text.cau_aes_cfb:0000000000000056 .L0 
C:\Users\stapi\AppData\Local\Temp\ccbuaOZz.s:1380   .text.cau_aes_cfb:0000000000000056 .L0 
C:\Users\stapi\AppData\Local\Temp\ccbuaOZz.s:1383   .text.cau_aes_cfb:0000000000000058 .L0 
C:\Users\stapi\AppData\Local\Temp\ccbuaOZz.s:1384   .text.cau_aes_cfb:0000000000000058 .L0 
C:\Users\stapi\AppData\Local\Temp\ccbuaOZz.s:1390   .text.cau_aes_cfb:000000000000005e .L0 
C:\Users\stapi\AppData\Local\Temp\ccbuaOZz.s:1391   .text.cau_aes_cfb:000000000000005e .L0 
C:\Users\stapi\AppData\Local\Temp\ccbuaOZz.s:1394   .text.cau_aes_cfb:000000000000005e .L0 
C:\Users\stapi\AppData\Local\Temp\ccbuaOZz.s:1395   .text.cau_aes_cfb:000000000000005e .L0 
C:\Users\stapi\AppData\Local\Temp\ccbuaOZz.s:1398   .text.cau_aes_cfb:0000000000000060 .L0 
C:\Users\stapi\AppData\Local\Temp\ccbuaOZz.s:1399   .text.cau_aes_cfb:0000000000000060 .L0 
C:\Users\stapi\AppData\Local\Temp\ccbuaOZz.s:1405   .text.cau_aes_cfb:0000000000000066 .L0 
C:\Users\stapi\AppData\Local\Temp\ccbuaOZz.s:1406   .text.cau_aes_cfb:0000000000000066 .L0 
C:\Users\stapi\AppData\Local\Temp\ccbuaOZz.s:1409   .text.cau_aes_cfb:0000000000000066 .L0 
C:\Users\stapi\AppData\Local\Temp\ccbuaOZz.s:1410   .text.cau_aes_cfb:0000000000000066 .L0 
C:\Users\stapi\AppData\Local\Temp\ccbuaOZz.s:1412   .text.cau_aes_cfb:0000000000000068 .L0 
C:\Users\stapi\AppData\Local\Temp\ccbuaOZz.s:1415   .text.cau_aes_cfb:0000000000000070 .L0 
C:\Users\stapi\AppData\Local\Temp\ccbuaOZz.s:1418   .text.cau_aes_cfb:0000000000000078 .L0 
C:\Users\stapi\AppData\Local\Temp\ccbuaOZz.s:1421   .text.cau_aes_cfb:0000000000000080 .L0 
C:\Users\stapi\AppData\Local\Temp\ccbuaOZz.s:1422   .text.cau_aes_cfb:0000000000000080 .L0 
C:\Users\stapi\AppData\Local\Temp\ccbuaOZz.s:1430   .text.cau_aes_cfb:0000000000000090 .L0 
C:\Users\stapi\AppData\Local\Temp\ccbuaOZz.s:1433   .text.cau_aes_cfb:0000000000000098 .L0 
C:\Users\stapi\AppData\Local\Temp\ccbuaOZz.s:1434   .text.cau_aes_cfb:0000000000000098 .L0 
C:\Users\stapi\AppData\Local\Temp\ccbuaOZz.s:1436   .text.cau_aes_cfb:000000000000009c .L0 
C:\Users\stapi\AppData\Local\Temp\ccbuaOZz.s:1439   .text.cau_aes_cfb:00000000000000a4 .L0 
C:\Users\stapi\AppData\Local\Temp\ccbuaOZz.s:1440   .text.cau_aes_cfb:00000000000000a4 .L0 
C:\Users\stapi\AppData\Local\Temp\ccbuaOZz.s:1441   .text.cau_aes_cfb:00000000000000a4 .L0 
C:\Users\stapi\AppData\Local\Temp\ccbuaOZz.s:1442   .text.cau_aes_cfb:00000000000000a4 .L0 
C:\Users\stapi\AppData\Local\Temp\ccbuaOZz.s:1443   .text.cau_aes_cfb:00000000000000a4 .L0 
C:\Users\stapi\AppData\Local\Temp\ccbuaOZz.s:1444   .text.cau_aes_cfb:00000000000000a4 .L0 
C:\Users\stapi\AppData\Local\Temp\ccbuaOZz.s:1451   .text.cau_aes_ofb:0000000000000000 cau_aes_ofb
C:\Users\stapi\AppData\Local\Temp\ccbuaOZz.s:1454   .text.cau_aes_ofb:0000000000000000 .L0 
C:\Users\stapi\AppData\Local\Temp\ccbuaOZz.s:1456   .text.cau_aes_ofb:0000000000000000 .L0 
C:\Users\stapi\AppData\Local\Temp\ccbuaOZz.s:1457   .text.cau_aes_ofb:0000000000000008 .L0 
C:\Users\stapi\AppData\Local\Temp\ccbuaOZz.s:1458   .text.cau_aes_ofb:0000000000000008 .L0 
C:\Users\stapi\AppData\Local\Temp\ccbuaOZz.s:1459   .text.cau_aes_ofb:0000000000000008 .L0 
C:\Users\stapi\AppData\Local\Temp\ccbuaOZz.s:1460   .text.cau_aes_ofb:0000000000000008 .L0 
C:\Users\stapi\AppData\Local\Temp\ccbuaOZz.s:1461   .text.cau_aes_ofb:0000000000000008 .L0 
C:\Users\stapi\AppData\Local\Temp\ccbuaOZz.s:1464   .text.cau_aes_ofb:0000000000000008 .L0 
C:\Users\stapi\AppData\Local\Temp\ccbuaOZz.s:1465   .text.cau_aes_ofb:0000000000000008 .L0 
C:\Users\stapi\AppData\Local\Temp\ccbuaOZz.s:1466   .text.cau_aes_ofb:0000000000000008 .L0 
C:\Users\stapi\AppData\Local\Temp\ccbuaOZz.s:1467   .text.cau_aes_ofb:0000000000000008 .L0 
C:\Users\stapi\AppData\Local\Temp\ccbuaOZz.s:1468   .text.cau_aes_ofb:0000000000000008 .L0 
C:\Users\stapi\AppData\Local\Temp\ccbuaOZz.s:1469   .text.cau_aes_ofb:000000000000000a .L0 
C:\Users\stapi\AppData\Local\Temp\ccbuaOZz.s:1471   .text.cau_aes_ofb:000000000000000a .L0 
C:\Users\stapi\AppData\Local\Temp\ccbuaOZz.s:1473   .text.cau_aes_ofb:000000000000000c .L0 
C:\Users\stapi\AppData\Local\Temp\ccbuaOZz.s:1476   .text.cau_aes_ofb:000000000000000e .L0 
C:\Users\stapi\AppData\Local\Temp\ccbuaOZz.s:1479   .text.cau_aes_ofb:0000000000000010 .L0 
C:\Users\stapi\AppData\Local\Temp\ccbuaOZz.s:1481   .text.cau_aes_ofb:0000000000000012 .L0 
C:\Users\stapi\AppData\Local\Temp\ccbuaOZz.s:1484   .text.cau_aes_ofb:000000000000001a .L0 
C:\Users\stapi\AppData\Local\Temp\ccbuaOZz.s:1491   .text.cau_aes_ofb:000000000000002e .L0 
C:\Users\stapi\AppData\Local\Temp\ccbuaOZz.s:1497   .text.cau_aes_ofb:000000000000003c .L0 
C:\Users\stapi\AppData\Local\Temp\ccbuaOZz.s:1501   .text.cau_aes_ofb:0000000000000046 .L0 
C:\Users\stapi\AppData\Local\Temp\ccbuaOZz.s:1503   .text.cau_aes_ofb:0000000000000048 .L0 
C:\Users\stapi\AppData\Local\Temp\ccbuaOZz.s:1509   .text.cau_aes_ofb:000000000000004e .L0 
C:\Users\stapi\AppData\Local\Temp\ccbuaOZz.s:1510   .text.cau_aes_ofb:000000000000004e .L0 
C:\Users\stapi\AppData\Local\Temp\ccbuaOZz.s:1513   .text.cau_aes_ofb:000000000000004e .L0 
C:\Users\stapi\AppData\Local\Temp\ccbuaOZz.s:1514   .text.cau_aes_ofb:000000000000004e .L0 
C:\Users\stapi\AppData\Local\Temp\ccbuaOZz.s:1517   .text.cau_aes_ofb:0000000000000050 .L0 
C:\Users\stapi\AppData\Local\Temp\ccbuaOZz.s:1518   .text.cau_aes_ofb:0000000000000050 .L0 
C:\Users\stapi\AppData\Local\Temp\ccbuaOZz.s:1524   .text.cau_aes_ofb:0000000000000056 .L0 
C:\Users\stapi\AppData\Local\Temp\ccbuaOZz.s:1525   .text.cau_aes_ofb:0000000000000056 .L0 
C:\Users\stapi\AppData\Local\Temp\ccbuaOZz.s:1528   .text.cau_aes_ofb:0000000000000056 .L0 
C:\Users\stapi\AppData\Local\Temp\ccbuaOZz.s:1529   .text.cau_aes_ofb:0000000000000056 .L0 
C:\Users\stapi\AppData\Local\Temp\ccbuaOZz.s:1532   .text.cau_aes_ofb:0000000000000058 .L0 
C:\Users\stapi\AppData\Local\Temp\ccbuaOZz.s:1533   .text.cau_aes_ofb:0000000000000058 .L0 
C:\Users\stapi\AppData\Local\Temp\ccbuaOZz.s:1539   .text.cau_aes_ofb:000000000000005e .L0 
C:\Users\stapi\AppData\Local\Temp\ccbuaOZz.s:1540   .text.cau_aes_ofb:000000000000005e .L0 
C:\Users\stapi\AppData\Local\Temp\ccbuaOZz.s:1543   .text.cau_aes_ofb:000000000000005e .L0 
C:\Users\stapi\AppData\Local\Temp\ccbuaOZz.s:1544   .text.cau_aes_ofb:000000000000005e .L0 
C:\Users\stapi\AppData\Local\Temp\ccbuaOZz.s:1547   .text.cau_aes_ofb:0000000000000060 .L0 
C:\Users\stapi\AppData\Local\Temp\ccbuaOZz.s:1548   .text.cau_aes_ofb:0000000000000060 .L0 
C:\Users\stapi\AppData\Local\Temp\ccbuaOZz.s:1554   .text.cau_aes_ofb:0000000000000066 .L0 
C:\Users\stapi\AppData\Local\Temp\ccbuaOZz.s:1555   .text.cau_aes_ofb:0000000000000066 .L0 
C:\Users\stapi\AppData\Local\Temp\ccbuaOZz.s:1558   .text.cau_aes_ofb:0000000000000066 .L0 
C:\Users\stapi\AppData\Local\Temp\ccbuaOZz.s:1559   .text.cau_aes_ofb:0000000000000066 .L0 
C:\Users\stapi\AppData\Local\Temp\ccbuaOZz.s:1561   .text.cau_aes_ofb:0000000000000068 .L0 
C:\Users\stapi\AppData\Local\Temp\ccbuaOZz.s:1564   .text.cau_aes_ofb:0000000000000070 .L0 
C:\Users\stapi\AppData\Local\Temp\ccbuaOZz.s:1567   .text.cau_aes_ofb:0000000000000078 .L0 
C:\Users\stapi\AppData\Local\Temp\ccbuaOZz.s:1570   .text.cau_aes_ofb:0000000000000080 .L0 
C:\Users\stapi\AppData\Local\Temp\ccbuaOZz.s:1571   .text.cau_aes_ofb:0000000000000080 .L0 
C:\Users\stapi\AppData\Local\Temp\ccbuaOZz.s:1579   .text.cau_aes_ofb:0000000000000090 .L0 
C:\Users\stapi\AppData\Local\Temp\ccbuaOZz.s:1582   .text.cau_aes_ofb:0000000000000098 .L0 
C:\Users\stapi\AppData\Local\Temp\ccbuaOZz.s:1583   .text.cau_aes_ofb:0000000000000098 .L0 
C:\Users\stapi\AppData\Local\Temp\ccbuaOZz.s:1585   .text.cau_aes_ofb:000000000000009c .L0 
C:\Users\stapi\AppData\Local\Temp\ccbuaOZz.s:1588   .text.cau_aes_ofb:00000000000000a4 .L0 
C:\Users\stapi\AppData\Local\Temp\ccbuaOZz.s:1589   .text.cau_aes_ofb:00000000000000a4 .L0 
C:\Users\stapi\AppData\Local\Temp\ccbuaOZz.s:1590   .text.cau_aes_ofb:00000000000000a4 .L0 
C:\Users\stapi\AppData\Local\Temp\ccbuaOZz.s:1591   .text.cau_aes_ofb:00000000000000a4 .L0 
C:\Users\stapi\AppData\Local\Temp\ccbuaOZz.s:1592   .text.cau_aes_ofb:00000000000000a4 .L0 
C:\Users\stapi\AppData\Local\Temp\ccbuaOZz.s:1593   .text.cau_aes_ofb:00000000000000a4 .L0 
C:\Users\stapi\AppData\Local\Temp\ccbuaOZz.s:1600   .text.cau_aes_gcm:0000000000000000 cau_aes_gcm
C:\Users\stapi\AppData\Local\Temp\ccbuaOZz.s:1603   .text.cau_aes_gcm:0000000000000000 .L0 
C:\Users\stapi\AppData\Local\Temp\ccbuaOZz.s:1605   .text.cau_aes_gcm:0000000000000000 .L0 
C:\Users\stapi\AppData\Local\Temp\ccbuaOZz.s:1606   .text.cau_aes_gcm:0000000000000008 .L0 
C:\Users\stapi\AppData\Local\Temp\ccbuaOZz.s:1607   .text.cau_aes_gcm:0000000000000008 .L0 
C:\Users\stapi\AppData\Local\Temp\ccbuaOZz.s:1608   .text.cau_aes_gcm:0000000000000008 .L0 
C:\Users\stapi\AppData\Local\Temp\ccbuaOZz.s:1609   .text.cau_aes_gcm:0000000000000008 .L0 
C:\Users\stapi\AppData\Local\Temp\ccbuaOZz.s:1610   .text.cau_aes_gcm:0000000000000008 .L0 
C:\Users\stapi\AppData\Local\Temp\ccbuaOZz.s:1611   .text.cau_aes_gcm:0000000000000008 .L0 
C:\Users\stapi\AppData\Local\Temp\ccbuaOZz.s:1612   .text.cau_aes_gcm:0000000000000008 .L0 
C:\Users\stapi\AppData\Local\Temp\ccbuaOZz.s:1613   .text.cau_aes_gcm:0000000000000008 .L0 
C:\Users\stapi\AppData\Local\Temp\ccbuaOZz.s:1616   .text.cau_aes_gcm:0000000000000008 .L0 
C:\Users\stapi\AppData\Local\Temp\ccbuaOZz.s:1617   .text.cau_aes_gcm:0000000000000008 .L0 
C:\Users\stapi\AppData\Local\Temp\ccbuaOZz.s:1618   .text.cau_aes_gcm:0000000000000008 .L0 
C:\Users\stapi\AppData\Local\Temp\ccbuaOZz.s:1619   .text.cau_aes_gcm:0000000000000008 .L0 
C:\Users\stapi\AppData\Local\Temp\ccbuaOZz.s:1620   .text.cau_aes_gcm:0000000000000008 .L0 
C:\Users\stapi\AppData\Local\Temp\ccbuaOZz.s:1621   .text.cau_aes_gcm:000000000000000a .L0 
C:\Users\stapi\AppData\Local\Temp\ccbuaOZz.s:1623   .text.cau_aes_gcm:000000000000000a .L0 
C:\Users\stapi\AppData\Local\Temp\ccbuaOZz.s:1625   .text.cau_aes_gcm:000000000000000c .L0 
C:\Users\stapi\AppData\Local\Temp\ccbuaOZz.s:1627   .text.cau_aes_gcm:000000000000000e .L0 
C:\Users\stapi\AppData\Local\Temp\ccbuaOZz.s:1630   .text.cau_aes_gcm:0000000000000012 .L0 
C:\Users\stapi\AppData\Local\Temp\ccbuaOZz.s:1631   .text.cau_aes_gcm:0000000000000012 .L0 
C:\Users\stapi\AppData\Local\Temp\ccbuaOZz.s:1634   .text.cau_aes_gcm:0000000000000016 .L0 
C:\Users\stapi\AppData\Local\Temp\ccbuaOZz.s:1635   .text.cau_aes_gcm:0000000000000016 .L0 
C:\Users\stapi\AppData\Local\Temp\ccbuaOZz.s:1636   .text.cau_aes_gcm:0000000000000016 .L0 
C:\Users\stapi\AppData\Local\Temp\ccbuaOZz.s:1639   .text.cau_aes_gcm:0000000000000018 .L0 
C:\Users\stapi\AppData\Local\Temp\ccbuaOZz.s:1643   .text.cau_aes_gcm:000000000000001c .L0 
C:\Users\stapi\AppData\Local\Temp\ccbuaOZz.s:1646   .text.cau_aes_gcm:0000000000000024 .L0 
C:\Users\stapi\AppData\Local\Temp\ccbuaOZz.s:1652   .text.cau_aes_gcm:0000000000000036 .L0 
C:\Users\stapi\AppData\Local\Temp\ccbuaOZz.s:1658   .text.cau_aes_gcm:0000000000000044 .L0 
C:\Users\stapi\AppData\Local\Temp\ccbuaOZz.s:1662   .text.cau_aes_gcm:000000000000004e .L0 
C:\Users\stapi\AppData\Local\Temp\ccbuaOZz.s:1664   .text.cau_aes_gcm:0000000000000050 .L0 
C:\Users\stapi\AppData\Local\Temp\ccbuaOZz.s:1670   .text.cau_aes_gcm:0000000000000056 .L0 
C:\Users\stapi\AppData\Local\Temp\ccbuaOZz.s:1671   .text.cau_aes_gcm:0000000000000056 .L0 
C:\Users\stapi\AppData\Local\Temp\ccbuaOZz.s:1674   .text.cau_aes_gcm:0000000000000056 .L0 
C:\Users\stapi\AppData\Local\Temp\ccbuaOZz.s:1675   .text.cau_aes_gcm:0000000000000056 .L0 
C:\Users\stapi\AppData\Local\Temp\ccbuaOZz.s:1678   .text.cau_aes_gcm:0000000000000058 .L0 
C:\Users\stapi\AppData\Local\Temp\ccbuaOZz.s:1679   .text.cau_aes_gcm:0000000000000058 .L0 
C:\Users\stapi\AppData\Local\Temp\ccbuaOZz.s:1685   .text.cau_aes_gcm:000000000000005e .L0 
C:\Users\stapi\AppData\Local\Temp\ccbuaOZz.s:1686   .text.cau_aes_gcm:000000000000005e .L0 
C:\Users\stapi\AppData\Local\Temp\ccbuaOZz.s:1689   .text.cau_aes_gcm:000000000000005e .L0 
C:\Users\stapi\AppData\Local\Temp\ccbuaOZz.s:1690   .text.cau_aes_gcm:000000000000005e .L0 
C:\Users\stapi\AppData\Local\Temp\ccbuaOZz.s:1693   .text.cau_aes_gcm:0000000000000060 .L0 
C:\Users\stapi\AppData\Local\Temp\ccbuaOZz.s:1694   .text.cau_aes_gcm:0000000000000060 .L0 
C:\Users\stapi\AppData\Local\Temp\ccbuaOZz.s:1700   .text.cau_aes_gcm:0000000000000066 .L0 
C:\Users\stapi\AppData\Local\Temp\ccbuaOZz.s:1701   .text.cau_aes_gcm:0000000000000066 .L0 
C:\Users\stapi\AppData\Local\Temp\ccbuaOZz.s:1704   .text.cau_aes_gcm:0000000000000066 .L0 
C:\Users\stapi\AppData\Local\Temp\ccbuaOZz.s:1705   .text.cau_aes_gcm:0000000000000066 .L0 
C:\Users\stapi\AppData\Local\Temp\ccbuaOZz.s:1708   .text.cau_aes_gcm:0000000000000068 .L0 
C:\Users\stapi\AppData\Local\Temp\ccbuaOZz.s:1709   .text.cau_aes_gcm:0000000000000068 .L0 
C:\Users\stapi\AppData\Local\Temp\ccbuaOZz.s:1711   .text.cau_aes_gcm:000000000000006a .L0 
C:\Users\stapi\AppData\Local\Temp\ccbuaOZz.s:1718   .text.cau_aes_gcm:0000000000000070 .L0 
C:\Users\stapi\AppData\Local\Temp\ccbuaOZz.s:1719   .text.cau_aes_gcm:0000000000000070 .L0 
C:\Users\stapi\AppData\Local\Temp\ccbuaOZz.s:1722   .text.cau_aes_gcm:0000000000000070 .L0 
C:\Users\stapi\AppData\Local\Temp\ccbuaOZz.s:1723   .text.cau_aes_gcm:0000000000000070 .L0 
C:\Users\stapi\AppData\Local\Temp\ccbuaOZz.s:1725   .text.cau_aes_gcm:0000000000000072 .L0 
C:\Users\stapi\AppData\Local\Temp\ccbuaOZz.s:1728   .text.cau_aes_gcm:000000000000007a .L0 
C:\Users\stapi\AppData\Local\Temp\ccbuaOZz.s:1732   .text.cau_aes_gcm:0000000000000084 .L0 
C:\Users\stapi\AppData\Local\Temp\ccbuaOZz.s:1736   .text.cau_aes_gcm:000000000000008c .L0 
C:\Users\stapi\AppData\Local\Temp\ccbuaOZz.s:1737   .text.cau_aes_gcm:000000000000008c .L0 
C:\Users\stapi\AppData\Local\Temp\ccbuaOZz.s:1738   .text.cau_aes_gcm:000000000000008c .L0 
C:\Users\stapi\AppData\Local\Temp\ccbuaOZz.s:1739   .text.cau_aes_gcm:000000000000008c .L0 
C:\Users\stapi\AppData\Local\Temp\ccbuaOZz.s:1742   .text.cau_aes_gcm:0000000000000094 .L0 
C:\Users\stapi\AppData\Local\Temp\ccbuaOZz.s:1744   .text.cau_aes_gcm:0000000000000098 .L0 
C:\Users\stapi\AppData\Local\Temp\ccbuaOZz.s:1745   .text.cau_aes_gcm:0000000000000098 .L0 
C:\Users\stapi\AppData\Local\Temp\ccbuaOZz.s:1747   .text.cau_aes_gcm:000000000000009a .L0 
C:\Users\stapi\AppData\Local\Temp\ccbuaOZz.s:1749   .text.cau_aes_gcm:000000000000009c .L0 
C:\Users\stapi\AppData\Local\Temp\ccbuaOZz.s:1751   .text.cau_aes_gcm:000000000000009e .L0 
C:\Users\stapi\AppData\Local\Temp\ccbuaOZz.s:1755   .text.cau_aes_gcm:00000000000000a8 .L0 
C:\Users\stapi\AppData\Local\Temp\ccbuaOZz.s:1758   .text.cau_aes_gcm:00000000000000b0 .L0 
C:\Users\stapi\AppData\Local\Temp\ccbuaOZz.s:1761   .text.cau_aes_gcm:00000000000000b8 .L0 
C:\Users\stapi\AppData\Local\Temp\ccbuaOZz.s:1762   .text.cau_aes_gcm:00000000000000b8 .L0 
C:\Users\stapi\AppData\Local\Temp\ccbuaOZz.s:1769   .text.cau_aes_gcm:00000000000000c6 .L0 
C:\Users\stapi\AppData\Local\Temp\ccbuaOZz.s:1770   .text.cau_aes_gcm:00000000000000c6 .L0 
C:\Users\stapi\AppData\Local\Temp\ccbuaOZz.s:1773   .text.cau_aes_gcm:00000000000000c8 .L0 
C:\Users\stapi\AppData\Local\Temp\ccbuaOZz.s:1777   .text.cau_aes_gcm:00000000000000ca .L0 
C:\Users\stapi\AppData\Local\Temp\ccbuaOZz.s:1779   .text.cau_aes_gcm:00000000000000ce .L0 
C:\Users\stapi\AppData\Local\Temp\ccbuaOZz.s:1780   .text.cau_aes_gcm:00000000000000ce .L0 
C:\Users\stapi\AppData\Local\Temp\ccbuaOZz.s:1782   .text.cau_aes_gcm:00000000000000d6 .L0 
C:\Users\stapi\AppData\Local\Temp\ccbuaOZz.s:1783   .text.cau_aes_gcm:00000000000000d6 .L0 
C:\Users\stapi\AppData\Local\Temp\ccbuaOZz.s:1784   .text.cau_aes_gcm:00000000000000d6 .L0 
C:\Users\stapi\AppData\Local\Temp\ccbuaOZz.s:1785   .text.cau_aes_gcm:00000000000000d6 .L0 
C:\Users\stapi\AppData\Local\Temp\ccbuaOZz.s:1786   .text.cau_aes_gcm:00000000000000d6 .L0 
C:\Users\stapi\AppData\Local\Temp\ccbuaOZz.s:1787   .text.cau_aes_gcm:00000000000000d6 .L0 
C:\Users\stapi\AppData\Local\Temp\ccbuaOZz.s:1788   .text.cau_aes_gcm:00000000000000d6 .L0 
C:\Users\stapi\AppData\Local\Temp\ccbuaOZz.s:1789   .text.cau_aes_gcm:00000000000000d6 .L0 
C:\Users\stapi\AppData\Local\Temp\ccbuaOZz.s:1792   .text.cau_aes_gcm:00000000000000d6 .L0 
C:\Users\stapi\AppData\Local\Temp\ccbuaOZz.s:1794   .text.cau_aes_gcm:00000000000000d6 .L0 
C:\Users\stapi\AppData\Local\Temp\ccbuaOZz.s:1795   .text.cau_aes_gcm:00000000000000d6 .L0 
C:\Users\stapi\AppData\Local\Temp\ccbuaOZz.s:1798   .text.cau_aes_gcm:00000000000000da .L0 
C:\Users\stapi\AppData\Local\Temp\ccbuaOZz.s:1802   .text.cau_aes_gcm:00000000000000e6 .L0 
C:\Users\stapi\AppData\Local\Temp\ccbuaOZz.s:1805   .text.cau_aes_gcm:00000000000000ee .L0 
C:\Users\stapi\AppData\Local\Temp\ccbuaOZz.s:1808   .text.cau_aes_gcm:00000000000000f6 .L0 
C:\Users\stapi\AppData\Local\Temp\ccbuaOZz.s:1809   .text.cau_aes_gcm:00000000000000f6 .L0 
C:\Users\stapi\AppData\Local\Temp\ccbuaOZz.s:1817   .text.cau_aes_gcm:0000000000000106 .L0 
C:\Users\stapi\AppData\Local\Temp\ccbuaOZz.s:1818   .text.cau_aes_gcm:0000000000000106 .L0 
C:\Users\stapi\AppData\Local\Temp\ccbuaOZz.s:1821   .text.cau_aes_gcm:0000000000000108 .L0 
C:\Users\stapi\AppData\Local\Temp\ccbuaOZz.s:1825   .text.cau_aes_gcm:0000000000000114 .L0 
C:\Users\stapi\AppData\Local\Temp\ccbuaOZz.s:1828   .text.cau_aes_gcm:000000000000011c .L0 
C:\Users\stapi\AppData\Local\Temp\ccbuaOZz.s:1831   .text.cau_aes_gcm:0000000000000124 .L0 
C:\Users\stapi\AppData\Local\Temp\ccbuaOZz.s:1832   .text.cau_aes_gcm:0000000000000124 .L0 
C:\Users\stapi\AppData\Local\Temp\ccbuaOZz.s:1835   .text.cau_aes_gcm:000000000000012c .L0 
C:\Users\stapi\AppData\Local\Temp\ccbuaOZz.s:1837   .text.cau_aes_gcm:000000000000012e .L0 
C:\Users\stapi\AppData\Local\Temp\ccbuaOZz.s:1839   .text.cau_aes_gcm:0000000000000132 .L0 
C:\Users\stapi\AppData\Local\Temp\ccbuaOZz.s:1843   .text.cau_aes_gcm:000000000000013c .L0 
C:\Users\stapi\AppData\Local\Temp\ccbuaOZz.s:1846   .text.cau_aes_gcm:000000000000013e .L0 
C:\Users\stapi\AppData\Local\Temp\ccbuaOZz.s:1849   .text.cau_aes_gcm:0000000000000142 .L0 
C:\Users\stapi\AppData\Local\Temp\ccbuaOZz.s:1853   .text.cau_aes_gcm:000000000000014e .L0 
C:\Users\stapi\AppData\Local\Temp\ccbuaOZz.s:1855   .text.cau_aes_gcm:0000000000000152 .L0 
C:\Users\stapi\AppData\Local\Temp\ccbuaOZz.s:1860   .text.cau_aes_gcm:0000000000000154 .L0 
C:\Users\stapi\AppData\Local\Temp\ccbuaOZz.s:1861   .text.cau_aes_gcm:0000000000000154 .L0 
C:\Users\stapi\AppData\Local\Temp\ccbuaOZz.s:1862   .text.cau_aes_gcm:0000000000000154 .L0 
C:\Users\stapi\AppData\Local\Temp\ccbuaOZz.s:1865   .text.cau_aes_gcm:0000000000000154 .L0 
C:\Users\stapi\AppData\Local\Temp\ccbuaOZz.s:1868   .text.cau_aes_gcm:0000000000000154 .L0 
C:\Users\stapi\AppData\Local\Temp\ccbuaOZz.s:1869   .text.cau_aes_gcm:0000000000000154 .L0 
C:\Users\stapi\AppData\Local\Temp\ccbuaOZz.s:1870   .text.cau_aes_gcm:0000000000000154 .L0 
C:\Users\stapi\AppData\Local\Temp\ccbuaOZz.s:1873   .text.cau_aes_gcm:0000000000000154 .L0 
C:\Users\stapi\AppData\Local\Temp\ccbuaOZz.s:1876   .text.cau_aes_gcm:0000000000000154 .L0 
C:\Users\stapi\AppData\Local\Temp\ccbuaOZz.s:1877   .text.cau_aes_gcm:0000000000000154 .L0 
C:\Users\stapi\AppData\Local\Temp\ccbuaOZz.s:1878   .text.cau_aes_gcm:0000000000000154 .L0 
C:\Users\stapi\AppData\Local\Temp\ccbuaOZz.s:1881   .text.cau_aes_gcm:0000000000000154 .L0 
C:\Users\stapi\AppData\Local\Temp\ccbuaOZz.s:1882   .text.cau_aes_gcm:0000000000000154 .L0 
C:\Users\stapi\AppData\Local\Temp\ccbuaOZz.s:1887   .text.cau_aes_gcm:000000000000015c .L0 
C:\Users\stapi\AppData\Local\Temp\ccbuaOZz.s:1888   .text.cau_aes_gcm:000000000000015c .L0 
C:\Users\stapi\AppData\Local\Temp\ccbuaOZz.s:1889   .text.cau_aes_gcm:000000000000015c .L0 
C:\Users\stapi\AppData\Local\Temp\ccbuaOZz.s:1892   .text.cau_aes_gcm:000000000000015c .L0 
C:\Users\stapi\AppData\Local\Temp\ccbuaOZz.s:1893   .text.cau_aes_gcm:000000000000015c .L0 
C:\Users\stapi\AppData\Local\Temp\ccbuaOZz.s:1898   .text.cau_aes_gcm:0000000000000168 .L0 
C:\Users\stapi\AppData\Local\Temp\ccbuaOZz.s:1899   .text.cau_aes_gcm:0000000000000168 .L0 
C:\Users\stapi\AppData\Local\Temp\ccbuaOZz.s:1900   .text.cau_aes_gcm:0000000000000168 .L0 
C:\Users\stapi\AppData\Local\Temp\ccbuaOZz.s:1901   .text.cau_aes_gcm:0000000000000168 .L0 
C:\Users\stapi\AppData\Local\Temp\ccbuaOZz.s:1905   .text.cau_aes_gcm:0000000000000172 .L0 
C:\Users\stapi\AppData\Local\Temp\ccbuaOZz.s:1907   .text.cau_aes_gcm:0000000000000174 .L0 
C:\Users\stapi\AppData\Local\Temp\ccbuaOZz.s:1908   .text.cau_aes_gcm:0000000000000174 .L0 
C:\Users\stapi\AppData\Local\Temp\ccbuaOZz.s:1911   .text.cau_aes_gcm:000000000000017c .L0 
C:\Users\stapi\AppData\Local\Temp\ccbuaOZz.s:1914   .text.cau_aes_gcm:0000000000000180 .L0 
C:\Users\stapi\AppData\Local\Temp\ccbuaOZz.s:1915   .text.cau_aes_gcm:0000000000000180 .L0 
C:\Users\stapi\AppData\Local\Temp\ccbuaOZz.s:1916   .text.cau_aes_gcm:0000000000000180 .L0 
C:\Users\stapi\AppData\Local\Temp\ccbuaOZz.s:1919   .text.cau_aes_gcm:0000000000000188 .L0 
C:\Users\stapi\AppData\Local\Temp\ccbuaOZz.s:1922   .text.cau_aes_gcm:000000000000018c .L0 
C:\Users\stapi\AppData\Local\Temp\ccbuaOZz.s:1923   .text.cau_aes_gcm:000000000000018c .L0 
C:\Users\stapi\AppData\Local\Temp\ccbuaOZz.s:1924   .text.cau_aes_gcm:000000000000018c .L0 
C:\Users\stapi\AppData\Local\Temp\ccbuaOZz.s:1927   .text.cau_aes_gcm:0000000000000194 .L0 
C:\Users\stapi\AppData\Local\Temp\ccbuaOZz.s:1930   .text.cau_aes_gcm:0000000000000198 .L0 
C:\Users\stapi\AppData\Local\Temp\ccbuaOZz.s:1931   .text.cau_aes_gcm:0000000000000198 .L0 
C:\Users\stapi\AppData\Local\Temp\ccbuaOZz.s:1932   .text.cau_aes_gcm:0000000000000198 .L0 
C:\Users\stapi\AppData\Local\Temp\ccbuaOZz.s:1935   .text.cau_aes_gcm:00000000000001a0 .L0 
C:\Users\stapi\AppData\Local\Temp\ccbuaOZz.s:1938   .text.cau_aes_gcm:00000000000001a4 .L0 
C:\Users\stapi\AppData\Local\Temp\ccbuaOZz.s:1939   .text.cau_aes_gcm:00000000000001a4 .L0 
C:\Users\stapi\AppData\Local\Temp\ccbuaOZz.s:1942   .text.cau_aes_gcm:00000000000001ac .L0 
C:\Users\stapi\AppData\Local\Temp\ccbuaOZz.s:1943   .text.cau_aes_gcm:00000000000001ac .L0 
C:\Users\stapi\AppData\Local\Temp\ccbuaOZz.s:1944   .text.cau_aes_gcm:00000000000001ae .L0 
C:\Users\stapi\AppData\Local\Temp\ccbuaOZz.s:1951   .text.cau_aes_ccm:0000000000000000 cau_aes_ccm
C:\Users\stapi\AppData\Local\Temp\ccbuaOZz.s:1954   .text.cau_aes_ccm:0000000000000000 .L0 
C:\Users\stapi\AppData\Local\Temp\ccbuaOZz.s:1956   .text.cau_aes_ccm:0000000000000000 .L0 
C:\Users\stapi\AppData\Local\Temp\ccbuaOZz.s:1957   .text.cau_aes_ccm:0000000000000008 .L0 
C:\Users\stapi\AppData\Local\Temp\ccbuaOZz.s:1958   .text.cau_aes_ccm:0000000000000008 .L0 
C:\Users\stapi\AppData\Local\Temp\ccbuaOZz.s:1959   .text.cau_aes_ccm:0000000000000008 .L0 
C:\Users\stapi\AppData\Local\Temp\ccbuaOZz.s:1960   .text.cau_aes_ccm:0000000000000008 .L0 
C:\Users\stapi\AppData\Local\Temp\ccbuaOZz.s:1961   .text.cau_aes_ccm:0000000000000008 .L0 
C:\Users\stapi\AppData\Local\Temp\ccbuaOZz.s:1962   .text.cau_aes_ccm:0000000000000008 .L0 
C:\Users\stapi\AppData\Local\Temp\ccbuaOZz.s:1963   .text.cau_aes_ccm:0000000000000008 .L0 
C:\Users\stapi\AppData\Local\Temp\ccbuaOZz.s:1964   .text.cau_aes_ccm:0000000000000008 .L0 
C:\Users\stapi\AppData\Local\Temp\ccbuaOZz.s:1965   .text.cau_aes_ccm:0000000000000008 .L0 
C:\Users\stapi\AppData\Local\Temp\ccbuaOZz.s:1966   .text.cau_aes_ccm:0000000000000008 .L0 
C:\Users\stapi\AppData\Local\Temp\ccbuaOZz.s:1967   .text.cau_aes_ccm:0000000000000008 .L0 
C:\Users\stapi\AppData\Local\Temp\ccbuaOZz.s:1968   .text.cau_aes_ccm:0000000000000008 .L0 
C:\Users\stapi\AppData\Local\Temp\ccbuaOZz.s:1969   .text.cau_aes_ccm:0000000000000008 .L0 
C:\Users\stapi\AppData\Local\Temp\ccbuaOZz.s:1970   .text.cau_aes_ccm:0000000000000008 .L0 
C:\Users\stapi\AppData\Local\Temp\ccbuaOZz.s:1973   .text.cau_aes_ccm:000000000000000c .L0 
C:\Users\stapi\AppData\Local\Temp\ccbuaOZz.s:1975   .text.cau_aes_ccm:000000000000000e .L0 
C:\Users\stapi\AppData\Local\Temp\ccbuaOZz.s:1976   .text.cau_aes_ccm:0000000000000010 .L0 
C:\Users\stapi\AppData\Local\Temp\ccbuaOZz.s:1978   .text.cau_aes_ccm:0000000000000010 .L0 
C:\Users\stapi\AppData\Local\Temp\ccbuaOZz.s:1983   .text.cau_aes_ccm:0000000000000018 .L0 
C:\Users\stapi\AppData\Local\Temp\ccbuaOZz.s:1988   .text.cau_aes_ccm:0000000000000020 .L0 
C:\Users\stapi\AppData\Local\Temp\ccbuaOZz.s:1990   .text.cau_aes_ccm:0000000000000022 .L0 
C:\Users\stapi\AppData\Local\Temp\ccbuaOZz.s:1992   .text.cau_aes_ccm:0000000000000026 .L0 
C:\Users\stapi\AppData\Local\Temp\ccbuaOZz.s:1995   .text.cau_aes_ccm:0000000000000028 .L0 
C:\Users\stapi\AppData\Local\Temp\ccbuaOZz.s:1997   .text.cau_aes_ccm:000000000000002a .L0 
C:\Users\stapi\AppData\Local\Temp\ccbuaOZz.s:1999   .text.cau_aes_ccm:000000000000002e .L0 
C:\Users\stapi\AppData\Local\Temp\ccbuaOZz.s:2003   .text.cau_aes_ccm:0000000000000034 .L0 
C:\Users\stapi\AppData\Local\Temp\ccbuaOZz.s:2004   .text.cau_aes_ccm:0000000000000034 .L0 
C:\Users\stapi\AppData\Local\Temp\ccbuaOZz.s:2006   .text.cau_aes_ccm:0000000000000034 .L0 
C:\Users\stapi\AppData\Local\Temp\ccbuaOZz.s:2007   .text.cau_aes_ccm:0000000000000034 .L0 
C:\Users\stapi\AppData\Local\Temp\ccbuaOZz.s:2008   .text.cau_aes_ccm:0000000000000034 .L0 
C:\Users\stapi\AppData\Local\Temp\ccbuaOZz.s:2011   .text.cau_aes_ccm:0000000000000038 .L0 
C:\Users\stapi\AppData\Local\Temp\ccbuaOZz.s:2012   .text.cau_aes_ccm:0000000000000038 .L0 
C:\Users\stapi\AppData\Local\Temp\ccbuaOZz.s:2013   .text.cau_aes_ccm:0000000000000038 .L0 
C:\Users\stapi\AppData\Local\Temp\ccbuaOZz.s:2014   .text.cau_aes_ccm:0000000000000038 .L0 
C:\Users\stapi\AppData\Local\Temp\ccbuaOZz.s:2015   .text.cau_aes_ccm:0000000000000038 .L0 
C:\Users\stapi\AppData\Local\Temp\ccbuaOZz.s:2016   .text.cau_aes_ccm:0000000000000038 .L0 
C:\Users\stapi\AppData\Local\Temp\ccbuaOZz.s:2017   .text.cau_aes_ccm:0000000000000038 .L0 
C:\Users\stapi\AppData\Local\Temp\ccbuaOZz.s:2018   .text.cau_aes_ccm:0000000000000038 .L0 
C:\Users\stapi\AppData\Local\Temp\ccbuaOZz.s:2019   .text.cau_aes_ccm:0000000000000038 .L0 
C:\Users\stapi\AppData\Local\Temp\ccbuaOZz.s:2020   .text.cau_aes_ccm:0000000000000038 .L0 
C:\Users\stapi\AppData\Local\Temp\ccbuaOZz.s:2021   .text.cau_aes_ccm:0000000000000038 .L0 
C:\Users\stapi\AppData\Local\Temp\ccbuaOZz.s:2022   .text.cau_aes_ccm:0000000000000038 .L0 
C:\Users\stapi\AppData\Local\Temp\ccbuaOZz.s:2023   .text.cau_aes_ccm:0000000000000038 .L0 
C:\Users\stapi\AppData\Local\Temp\ccbuaOZz.s:2024   .text.cau_aes_ccm:0000000000000038 .L0 
C:\Users\stapi\AppData\Local\Temp\ccbuaOZz.s:2025   .text.cau_aes_ccm:0000000000000038 .L0 
C:\Users\stapi\AppData\Local\Temp\ccbuaOZz.s:2027   .text.cau_aes_ccm:000000000000003c .L0 
C:\Users\stapi\AppData\Local\Temp\ccbuaOZz.s:2031   .text.cau_aes_ccm:0000000000000040 .L0 
C:\Users\stapi\AppData\Local\Temp\ccbuaOZz.s:2032   .text.cau_aes_ccm:0000000000000040 .L0 
C:\Users\stapi\AppData\Local\Temp\ccbuaOZz.s:2034   .text.cau_aes_ccm:0000000000000044 .L0 
C:\Users\stapi\AppData\Local\Temp\ccbuaOZz.s:2037   .text.cau_aes_ccm:0000000000000048 .L0 
C:\Users\stapi\AppData\Local\Temp\ccbuaOZz.s:2039   .text.cau_aes_ccm:000000000000004c .L0 
C:\Users\stapi\AppData\Local\Temp\ccbuaOZz.s:2042   .text.cau_aes_ccm:0000000000000050 .L0 
C:\Users\stapi\AppData\Local\Temp\ccbuaOZz.s:2045   .text.cau_aes_ccm:0000000000000054 .L0 
C:\Users\stapi\AppData\Local\Temp\ccbuaOZz.s:2046   .text.cau_aes_ccm:0000000000000054 .L0 
C:\Users\stapi\AppData\Local\Temp\ccbuaOZz.s:2048   .text.cau_aes_ccm:0000000000000058 .L0 
C:\Users\stapi\AppData\Local\Temp\ccbuaOZz.s:2051   .text.cau_aes_ccm:000000000000005c .L0 
C:\Users\stapi\AppData\Local\Temp\ccbuaOZz.s:2052   .text.cau_aes_ccm:000000000000005c .L0 
C:\Users\stapi\AppData\Local\Temp\ccbuaOZz.s:2053   .text.cau_aes_ccm:000000000000005c .L0 
C:\Users\stapi\AppData\Local\Temp\ccbuaOZz.s:2056   .text.cau_aes_ccm:0000000000000060 .L0 
C:\Users\stapi\AppData\Local\Temp\ccbuaOZz.s:2060   .text.cau_aes_ccm:0000000000000062 .L0 
C:\Users\stapi\AppData\Local\Temp\ccbuaOZz.s:2061   .text.cau_aes_ccm:0000000000000062 .L0 
C:\Users\stapi\AppData\Local\Temp\ccbuaOZz.s:2062   .text.cau_aes_ccm:0000000000000062 .L0 
C:\Users\stapi\AppData\Local\Temp\ccbuaOZz.s:2066   .text.cau_aes_ccm:0000000000000064 .L0 
C:\Users\stapi\AppData\Local\Temp\ccbuaOZz.s:2067   .text.cau_aes_ccm:0000000000000064 .L0 
C:\Users\stapi\AppData\Local\Temp\ccbuaOZz.s:2070   .text.cau_aes_ccm:000000000000006c .L0 
C:\Users\stapi\AppData\Local\Temp\ccbuaOZz.s:2074   .text.cau_aes_ccm:0000000000000076 .L0 
C:\Users\stapi\AppData\Local\Temp\ccbuaOZz.s:2075   .text.cau_aes_ccm:0000000000000076 .L0 
C:\Users\stapi\AppData\Local\Temp\ccbuaOZz.s:2078   .text.cau_aes_ccm:0000000000000078 .L0 
C:\Users\stapi\AppData\Local\Temp\ccbuaOZz.s:2079   .text.cau_aes_ccm:0000000000000078 .L0 
C:\Users\stapi\AppData\Local\Temp\ccbuaOZz.s:2081   .text.cau_aes_ccm:000000000000007c .L0 
C:\Users\stapi\AppData\Local\Temp\ccbuaOZz.s:2082   .text.cau_aes_ccm:000000000000007c .L0 
C:\Users\stapi\AppData\Local\Temp\ccbuaOZz.s:2084   .text.cau_aes_ccm:0000000000000080 .L0 
C:\Users\stapi\AppData\Local\Temp\ccbuaOZz.s:2086   .text.cau_aes_ccm:0000000000000082 .L0 
C:\Users\stapi\AppData\Local\Temp\ccbuaOZz.s:2088   .text.cau_aes_ccm:0000000000000086 .L0 
C:\Users\stapi\AppData\Local\Temp\ccbuaOZz.s:2090   .text.cau_aes_ccm:000000000000008a .L0 
C:\Users\stapi\AppData\Local\Temp\ccbuaOZz.s:2108   .text.cau_aes_ccm:00000000000000ac .L0 
C:\Users\stapi\AppData\Local\Temp\ccbuaOZz.s:2109   .text.cau_aes_ccm:00000000000000ac .L0 
C:\Users\stapi\AppData\Local\Temp\ccbuaOZz.s:2111   .text.cau_aes_ccm:00000000000000b0 .L0 
C:\Users\stapi\AppData\Local\Temp\ccbuaOZz.s:2114   .text.cau_aes_ccm:00000000000000b2 .L0 
C:\Users\stapi\AppData\Local\Temp\ccbuaOZz.s:2115   .text.cau_aes_ccm:00000000000000b2 .L0 
C:\Users\stapi\AppData\Local\Temp\ccbuaOZz.s:2116   .text.cau_aes_ccm:00000000000000b2 .L0 
C:\Users\stapi\AppData\Local\Temp\ccbuaOZz.s:2120   .text.cau_aes_ccm:00000000000000b6 .L0 
C:\Users\stapi\AppData\Local\Temp\ccbuaOZz.s:2121   .text.cau_aes_ccm:00000000000000b6 .L0 
C:\Users\stapi\AppData\Local\Temp\ccbuaOZz.s:2123   .text.cau_aes_ccm:00000000000000ba .L0 
C:\Users\stapi\AppData\Local\Temp\ccbuaOZz.s:2125   .text.cau_aes_ccm:00000000000000be .L0 
C:\Users\stapi\AppData\Local\Temp\ccbuaOZz.s:2127   .text.cau_aes_ccm:00000000000000c0 .L0 
C:\Users\stapi\AppData\Local\Temp\ccbuaOZz.s:2129   .text.cau_aes_ccm:00000000000000c2 .L0 
C:\Users\stapi\AppData\Local\Temp\ccbuaOZz.s:2131   .text.cau_aes_ccm:00000000000000c6 .L0 
C:\Users\stapi\AppData\Local\Temp\ccbuaOZz.s:2133   .text.cau_aes_ccm:00000000000000c8 .L0 
C:\Users\stapi\AppData\Local\Temp\ccbuaOZz.s:2136   .text.cau_aes_ccm:00000000000000ce .L0 
C:\Users\stapi\AppData\Local\Temp\ccbuaOZz.s:2138   .text.cau_aes_ccm:00000000000000d0 .L0 
C:\Users\stapi\AppData\Local\Temp\ccbuaOZz.s:2142   .text.cau_aes_ccm:00000000000000da .L0 
C:\Users\stapi\AppData\Local\Temp\ccbuaOZz.s:2143   .text.cau_aes_ccm:00000000000000da .L0 
C:\Users\stapi\AppData\Local\Temp\ccbuaOZz.s:2147   .text.cau_aes_ccm:00000000000000e4 .L0 
C:\Users\stapi\AppData\Local\Temp\ccbuaOZz.s:2151   .text.cau_aes_ccm:00000000000000e6 .L0 
C:\Users\stapi\AppData\Local\Temp\ccbuaOZz.s:2152   .text.cau_aes_ccm:00000000000000e6 .L0 
C:\Users\stapi\AppData\Local\Temp\ccbuaOZz.s:2155   .text.cau_aes_ccm:00000000000000ec .L0 
C:\Users\stapi\AppData\Local\Temp\ccbuaOZz.s:2156   .text.cau_aes_ccm:00000000000000ec .L0 
C:\Users\stapi\AppData\Local\Temp\ccbuaOZz.s:2160   .text.cau_aes_ccm:00000000000000f2 .L0 
C:\Users\stapi\AppData\Local\Temp\ccbuaOZz.s:2161   .text.cau_aes_ccm:00000000000000f2 .L0 
C:\Users\stapi\AppData\Local\Temp\ccbuaOZz.s:2167   .text.cau_aes_ccm:00000000000000fc .L0 
C:\Users\stapi\AppData\Local\Temp\ccbuaOZz.s:2171   .text.cau_aes_ccm:00000000000000fe .L0 
C:\Users\stapi\AppData\Local\Temp\ccbuaOZz.s:2172   .text.cau_aes_ccm:00000000000000fe .L0 
C:\Users\stapi\AppData\Local\Temp\ccbuaOZz.s:2175   .text.cau_aes_ccm:0000000000000104 .L0 
C:\Users\stapi\AppData\Local\Temp\ccbuaOZz.s:2176   .text.cau_aes_ccm:0000000000000104 .L0 
C:\Users\stapi\AppData\Local\Temp\ccbuaOZz.s:2179   .text.cau_aes_ccm:0000000000000106 .L0 
C:\Users\stapi\AppData\Local\Temp\ccbuaOZz.s:2184   .text.cau_aes_ccm:000000000000010a .L0 
C:\Users\stapi\AppData\Local\Temp\ccbuaOZz.s:2186   .text.cau_aes_ccm:000000000000010e .L0 
C:\Users\stapi\AppData\Local\Temp\ccbuaOZz.s:2189   .text.cau_aes_ccm:0000000000000112 .L0 
C:\Users\stapi\AppData\Local\Temp\ccbuaOZz.s:2190   .text.cau_aes_ccm:0000000000000112 .L0 
C:\Users\stapi\AppData\Local\Temp\ccbuaOZz.s:2194   .text.cau_aes_ccm:0000000000000114 .L0 
C:\Users\stapi\AppData\Local\Temp\ccbuaOZz.s:2195   .text.cau_aes_ccm:0000000000000114 .L0 
C:\Users\stapi\AppData\Local\Temp\ccbuaOZz.s:2199   .text.cau_aes_ccm:000000000000011a .L0 
C:\Users\stapi\AppData\Local\Temp\ccbuaOZz.s:2200   .text.cau_aes_ccm:000000000000011a .L0 
C:\Users\stapi\AppData\Local\Temp\ccbuaOZz.s:2204   .text.cau_aes_ccm:0000000000000120 .L0 
C:\Users\stapi\AppData\Local\Temp\ccbuaOZz.s:2205   .text.cau_aes_ccm:0000000000000120 .L0 
C:\Users\stapi\AppData\Local\Temp\ccbuaOZz.s:2207   .text.cau_aes_ccm:0000000000000124 .L0 
C:\Users\stapi\AppData\Local\Temp\ccbuaOZz.s:2210   .text.cau_aes_ccm:0000000000000128 .L0 
C:\Users\stapi\AppData\Local\Temp\ccbuaOZz.s:2211   .text.cau_aes_ccm:0000000000000128 .L0 
C:\Users\stapi\AppData\Local\Temp\ccbuaOZz.s:2213   .text.cau_aes_ccm:000000000000012c .L0 
C:\Users\stapi\AppData\Local\Temp\ccbuaOZz.s:2215   .text.cau_aes_ccm:0000000000000130 .L0 
C:\Users\stapi\AppData\Local\Temp\ccbuaOZz.s:2218   .text.cau_aes_ccm:0000000000000134 .L0 
C:\Users\stapi\AppData\Local\Temp\ccbuaOZz.s:2219   .text.cau_aes_ccm:0000000000000134 .L0 
C:\Users\stapi\AppData\Local\Temp\ccbuaOZz.s:2222   .text.cau_aes_ccm:0000000000000138 .L0 
C:\Users\stapi\AppData\Local\Temp\ccbuaOZz.s:2223   .text.cau_aes_ccm:0000000000000138 .L0 
C:\Users\stapi\AppData\Local\Temp\ccbuaOZz.s:2224   .text.cau_aes_ccm:0000000000000138 .L0 
C:\Users\stapi\AppData\Local\Temp\ccbuaOZz.s:2227   .text.cau_aes_ccm:000000000000013c .L0 
C:\Users\stapi\AppData\Local\Temp\ccbuaOZz.s:2237   .text.cau_aes_ccm:0000000000000146 .L0 
C:\Users\stapi\AppData\Local\Temp\ccbuaOZz.s:2240   .text.cau_aes_ccm:0000000000000148 .L0 
C:\Users\stapi\AppData\Local\Temp\ccbuaOZz.s:2242   .text.cau_aes_ccm:000000000000014c .L0 
C:\Users\stapi\AppData\Local\Temp\ccbuaOZz.s:2243   .text.cau_aes_ccm:000000000000014c .L0 
C:\Users\stapi\AppData\Local\Temp\ccbuaOZz.s:2245   .text.cau_aes_ccm:0000000000000154 .L0 
C:\Users\stapi\AppData\Local\Temp\ccbuaOZz.s:2246   .text.cau_aes_ccm:0000000000000154 .L0 
C:\Users\stapi\AppData\Local\Temp\ccbuaOZz.s:2247   .text.cau_aes_ccm:0000000000000154 .L0 
C:\Users\stapi\AppData\Local\Temp\ccbuaOZz.s:2248   .text.cau_aes_ccm:0000000000000154 .L0 
C:\Users\stapi\AppData\Local\Temp\ccbuaOZz.s:2249   .text.cau_aes_ccm:0000000000000154 .L0 
C:\Users\stapi\AppData\Local\Temp\ccbuaOZz.s:2250   .text.cau_aes_ccm:0000000000000154 .L0 
C:\Users\stapi\AppData\Local\Temp\ccbuaOZz.s:2251   .text.cau_aes_ccm:0000000000000154 .L0 
C:\Users\stapi\AppData\Local\Temp\ccbuaOZz.s:2252   .text.cau_aes_ccm:0000000000000154 .L0 
C:\Users\stapi\AppData\Local\Temp\ccbuaOZz.s:2253   .text.cau_aes_ccm:0000000000000154 .L0 
C:\Users\stapi\AppData\Local\Temp\ccbuaOZz.s:2254   .text.cau_aes_ccm:0000000000000154 .L0 
C:\Users\stapi\AppData\Local\Temp\ccbuaOZz.s:2255   .text.cau_aes_ccm:0000000000000154 .L0 
C:\Users\stapi\AppData\Local\Temp\ccbuaOZz.s:2256   .text.cau_aes_ccm:0000000000000154 .L0 
C:\Users\stapi\AppData\Local\Temp\ccbuaOZz.s:2257   .text.cau_aes_ccm:0000000000000154 .L0 
C:\Users\stapi\AppData\Local\Temp\ccbuaOZz.s:2258   .text.cau_aes_ccm:0000000000000154 .L0 
C:\Users\stapi\AppData\Local\Temp\ccbuaOZz.s:2261   .text.cau_aes_ccm:0000000000000154 .L0 
C:\Users\stapi\AppData\Local\Temp\ccbuaOZz.s:2263   .text.cau_aes_ccm:0000000000000154 .L0 
C:\Users\stapi\AppData\Local\Temp\ccbuaOZz.s:2264   .text.cau_aes_ccm:0000000000000154 .L0 
C:\Users\stapi\AppData\Local\Temp\ccbuaOZz.s:2268   .text.cau_aes_ccm:000000000000015e .L0 
C:\Users\stapi\AppData\Local\Temp\ccbuaOZz.s:2272   .text.cau_aes_ccm:0000000000000160 .L0 
C:\Users\stapi\AppData\Local\Temp\ccbuaOZz.s:2286   .text.cau_aes_ccm:000000000000017e .L0 
C:\Users\stapi\AppData\Local\Temp\ccbuaOZz.s:2287   .text.cau_aes_ccm:000000000000017e .L0 
C:\Users\stapi\AppData\Local\Temp\ccbuaOZz.s:2288   .text.cau_aes_ccm:000000000000017e .L0 
C:\Users\stapi\AppData\Local\Temp\ccbuaOZz.s:2289   .text.cau_aes_ccm:000000000000017e .L0 
C:\Users\stapi\AppData\Local\Temp\ccbuaOZz.s:2290   .text.cau_aes_ccm:000000000000017e .L0 
C:\Users\stapi\AppData\Local\Temp\ccbuaOZz.s:2294   .text.cau_aes_ccm:0000000000000180 .L0 
C:\Users\stapi\AppData\Local\Temp\ccbuaOZz.s:2295   .text.cau_aes_ccm:0000000000000180 .L0 
C:\Users\stapi\AppData\Local\Temp\ccbuaOZz.s:2298   .text.cau_aes_ccm:0000000000000186 .L0 
C:\Users\stapi\AppData\Local\Temp\ccbuaOZz.s:2300   .text.cau_aes_ccm:0000000000000188 .L0 
C:\Users\stapi\AppData\Local\Temp\ccbuaOZz.s:2302   .text.cau_aes_ccm:000000000000018c .L0 
C:\Users\stapi\AppData\Local\Temp\ccbuaOZz.s:2305   .text.cau_aes_ccm:0000000000000190 .L0 
C:\Users\stapi\AppData\Local\Temp\ccbuaOZz.s:2306   .text.cau_aes_ccm:0000000000000190 .L0 
C:\Users\stapi\AppData\Local\Temp\ccbuaOZz.s:2309   .text.cau_aes_ccm:0000000000000198 .L0 
C:\Users\stapi\AppData\Local\Temp\ccbuaOZz.s:2310   .text.cau_aes_ccm:0000000000000198 .L0 
C:\Users\stapi\AppData\Local\Temp\ccbuaOZz.s:2312   .text.cau_aes_ccm:000000000000019c .L0 
C:\Users\stapi\AppData\Local\Temp\ccbuaOZz.s:2314   .text.cau_aes_ccm:000000000000019e .L0 
C:\Users\stapi\AppData\Local\Temp\ccbuaOZz.s:2317   .text.cau_aes_ccm:00000000000001a6 .L0 
C:\Users\stapi\AppData\Local\Temp\ccbuaOZz.s:2320   .text.cau_aes_ccm:00000000000001ae .L0 
C:\Users\stapi\AppData\Local\Temp\ccbuaOZz.s:2323   .text.cau_aes_ccm:00000000000001b6 .L0 
C:\Users\stapi\AppData\Local\Temp\ccbuaOZz.s:2327   .text.cau_aes_ccm:00000000000001c0 .L0 
C:\Users\stapi\AppData\Local\Temp\ccbuaOZz.s:2334   .text.cau_aes_ccm:00000000000001d6 .L0 
C:\Users\stapi\AppData\Local\Temp\ccbuaOZz.s:2338   .text.cau_aes_ccm:00000000000001e0 .L0 
C:\Users\stapi\AppData\Local\Temp\ccbuaOZz.s:2344   .text.cau_aes_ccm:00000000000001f2 .L0 
C:\Users\stapi\AppData\Local\Temp\ccbuaOZz.s:2348   .text.cau_aes_ccm:00000000000001fc .L0 
C:\Users\stapi\AppData\Local\Temp\ccbuaOZz.s:2350   .text.cau_aes_ccm:00000000000001fe .L0 
C:\Users\stapi\AppData\Local\Temp\ccbuaOZz.s:2356   .text.cau_aes_ccm:0000000000000204 .L0 
C:\Users\stapi\AppData\Local\Temp\ccbuaOZz.s:2357   .text.cau_aes_ccm:0000000000000204 .L0 
C:\Users\stapi\AppData\Local\Temp\ccbuaOZz.s:2360   .text.cau_aes_ccm:0000000000000204 .L0 
C:\Users\stapi\AppData\Local\Temp\ccbuaOZz.s:2361   .text.cau_aes_ccm:0000000000000204 .L0 
C:\Users\stapi\AppData\Local\Temp\ccbuaOZz.s:2364   .text.cau_aes_ccm:0000000000000206 .L0 
C:\Users\stapi\AppData\Local\Temp\ccbuaOZz.s:2365   .text.cau_aes_ccm:0000000000000206 .L0 
C:\Users\stapi\AppData\Local\Temp\ccbuaOZz.s:2371   .text.cau_aes_ccm:000000000000020c .L0 
C:\Users\stapi\AppData\Local\Temp\ccbuaOZz.s:2372   .text.cau_aes_ccm:000000000000020c .L0 
C:\Users\stapi\AppData\Local\Temp\ccbuaOZz.s:2375   .text.cau_aes_ccm:000000000000020c .L0 
C:\Users\stapi\AppData\Local\Temp\ccbuaOZz.s:2376   .text.cau_aes_ccm:000000000000020c .L0 
C:\Users\stapi\AppData\Local\Temp\ccbuaOZz.s:2379   .text.cau_aes_ccm:000000000000020e .L0 
C:\Users\stapi\AppData\Local\Temp\ccbuaOZz.s:2380   .text.cau_aes_ccm:000000000000020e .L0 
C:\Users\stapi\AppData\Local\Temp\ccbuaOZz.s:2386   .text.cau_aes_ccm:0000000000000214 .L0 
C:\Users\stapi\AppData\Local\Temp\ccbuaOZz.s:2387   .text.cau_aes_ccm:0000000000000214 .L0 
C:\Users\stapi\AppData\Local\Temp\ccbuaOZz.s:2390   .text.cau_aes_ccm:0000000000000214 .L0 
C:\Users\stapi\AppData\Local\Temp\ccbuaOZz.s:2391   .text.cau_aes_ccm:0000000000000214 .L0 
C:\Users\stapi\AppData\Local\Temp\ccbuaOZz.s:2394   .text.cau_aes_ccm:0000000000000216 .L0 
C:\Users\stapi\AppData\Local\Temp\ccbuaOZz.s:2395   .text.cau_aes_ccm:0000000000000216 .L0 
C:\Users\stapi\AppData\Local\Temp\ccbuaOZz.s:2401   .text.cau_aes_ccm:000000000000021c .L0 
C:\Users\stapi\AppData\Local\Temp\ccbuaOZz.s:2402   .text.cau_aes_ccm:000000000000021c .L0 
C:\Users\stapi\AppData\Local\Temp\ccbuaOZz.s:2405   .text.cau_aes_ccm:000000000000021c .L0 
C:\Users\stapi\AppData\Local\Temp\ccbuaOZz.s:2406   .text.cau_aes_ccm:000000000000021c .L0 
C:\Users\stapi\AppData\Local\Temp\ccbuaOZz.s:2408   .text.cau_aes_ccm:000000000000021e .L0 
C:\Users\stapi\AppData\Local\Temp\ccbuaOZz.s:2411   .text.cau_aes_ccm:0000000000000226 .L0 
C:\Users\stapi\AppData\Local\Temp\ccbuaOZz.s:2414   .text.cau_aes_ccm:000000000000022e .L0 
C:\Users\stapi\AppData\Local\Temp\ccbuaOZz.s:2418   .text.cau_aes_ccm:0000000000000238 .L0 
C:\Users\stapi\AppData\Local\Temp\ccbuaOZz.s:2419   .text.cau_aes_ccm:0000000000000238 .L0 
C:\Users\stapi\AppData\Local\Temp\ccbuaOZz.s:2423   .text.cau_aes_ccm:0000000000000242 .L0 
C:\Users\stapi\AppData\Local\Temp\ccbuaOZz.s:2424   .text.cau_aes_ccm:0000000000000242 .L0 
C:\Users\stapi\AppData\Local\Temp\ccbuaOZz.s:2428   .text.cau_aes_ccm:000000000000024c .L0 
C:\Users\stapi\AppData\Local\Temp\ccbuaOZz.s:2429   .text.cau_aes_ccm:000000000000024c .L0 
C:\Users\stapi\AppData\Local\Temp\ccbuaOZz.s:2434   .text.cau_aes_ccm:0000000000000256 .L0 
C:\Users\stapi\AppData\Local\Temp\ccbuaOZz.s:2435   .text.cau_aes_ccm:0000000000000256 .L0 
C:\Users\stapi\AppData\Local\Temp\ccbuaOZz.s:2436   .text.cau_aes_ccm:0000000000000256 .L0 
C:\Users\stapi\AppData\Local\Temp\ccbuaOZz.s:2437   .text.cau_aes_ccm:0000000000000256 .L0 
C:\Users\stapi\AppData\Local\Temp\ccbuaOZz.s:2440   .text.cau_aes_ccm:000000000000025e .L0 
C:\Users\stapi\AppData\Local\Temp\ccbuaOZz.s:2442   .text.cau_aes_ccm:0000000000000262 .L0 
C:\Users\stapi\AppData\Local\Temp\ccbuaOZz.s:2443   .text.cau_aes_ccm:0000000000000262 .L0 
C:\Users\stapi\AppData\Local\Temp\ccbuaOZz.s:2445   .text.cau_aes_ccm:0000000000000264 .L0 
C:\Users\stapi\AppData\Local\Temp\ccbuaOZz.s:2449   .text.cau_aes_ccm:000000000000026e .L0 
C:\Users\stapi\AppData\Local\Temp\ccbuaOZz.s:2452   .text.cau_aes_ccm:0000000000000276 .L0 
C:\Users\stapi\AppData\Local\Temp\ccbuaOZz.s:2453   .text.cau_aes_ccm:0000000000000276 .L0 
C:\Users\stapi\AppData\Local\Temp\ccbuaOZz.s:2460   .text.cau_aes_ccm:0000000000000284 .L0 
C:\Users\stapi\AppData\Local\Temp\ccbuaOZz.s:2461   .text.cau_aes_ccm:0000000000000284 .L0 
C:\Users\stapi\AppData\Local\Temp\ccbuaOZz.s:2465   .text.cau_aes_ccm:0000000000000288 .L0 
C:\Users\stapi\AppData\Local\Temp\ccbuaOZz.s:2466   .text.cau_aes_ccm:0000000000000288 .L0 
C:\Users\stapi\AppData\Local\Temp\ccbuaOZz.s:2469   .text.cau_aes_ccm:000000000000028c .L0 
C:\Users\stapi\AppData\Local\Temp\ccbuaOZz.s:2470   .text.cau_aes_ccm:000000000000028c .L0 
C:\Users\stapi\AppData\Local\Temp\ccbuaOZz.s:2473   .text.cau_aes_ccm:0000000000000290 .L0 
C:\Users\stapi\AppData\Local\Temp\ccbuaOZz.s:2477   .text.cau_aes_ccm:000000000000029c .L0 
C:\Users\stapi\AppData\Local\Temp\ccbuaOZz.s:2480   .text.cau_aes_ccm:00000000000002a4 .L0 
C:\Users\stapi\AppData\Local\Temp\ccbuaOZz.s:2481   .text.cau_aes_ccm:00000000000002a4 .L0 
C:\Users\stapi\AppData\Local\Temp\ccbuaOZz.s:2489   .text.cau_aes_ccm:00000000000002b4 .L0 
C:\Users\stapi\AppData\Local\Temp\ccbuaOZz.s:2490   .text.cau_aes_ccm:00000000000002b4 .L0 
C:\Users\stapi\AppData\Local\Temp\ccbuaOZz.s:2493   .text.cau_aes_ccm:00000000000002b8 .L0 
C:\Users\stapi\AppData\Local\Temp\ccbuaOZz.s:2497   .text.cau_aes_ccm:00000000000002c4 .L0 
C:\Users\stapi\AppData\Local\Temp\ccbuaOZz.s:2500   .text.cau_aes_ccm:00000000000002cc .L0 
C:\Users\stapi\AppData\Local\Temp\ccbuaOZz.s:2501   .text.cau_aes_ccm:00000000000002cc .L0 
C:\Users\stapi\AppData\Local\Temp\ccbuaOZz.s:2504   .text.cau_aes_ccm:00000000000002d4 .L0 
C:\Users\stapi\AppData\Local\Temp\ccbuaOZz.s:2507   .text.cau_aes_ccm:00000000000002d8 .L0 
C:\Users\stapi\AppData\Local\Temp\ccbuaOZz.s:2508   .text.cau_aes_ccm:00000000000002d8 .L0 
C:\Users\stapi\AppData\Local\Temp\ccbuaOZz.s:2512   .text.cau_aes_ccm:00000000000002e2 .L0 
C:\Users\stapi\AppData\Local\Temp\ccbuaOZz.s:2513   .text.cau_aes_ccm:00000000000002e2 .L0 
C:\Users\stapi\AppData\Local\Temp\ccbuaOZz.s:2517   .text.cau_aes_ccm:00000000000002ec .L0 
C:\Users\stapi\AppData\Local\Temp\ccbuaOZz.s:2518   .text.cau_aes_ccm:00000000000002ec .L0 
C:\Users\stapi\AppData\Local\Temp\ccbuaOZz.s:2522   .text.cau_aes_ccm:00000000000002f6 .L0 
C:\Users\stapi\AppData\Local\Temp\ccbuaOZz.s:2523   .text.cau_aes_ccm:00000000000002f6 .L0 
C:\Users\stapi\AppData\Local\Temp\ccbuaOZz.s:2529   .text.cau_aes_ccm:0000000000000304 .L0 
C:\Users\stapi\AppData\Local\Temp\ccbuaOZz.s:2530   .text.cau_aes_ccm:0000000000000304 .L0 
C:\Users\stapi\AppData\Local\Temp\ccbuaOZz.s:2531   .text.cau_aes_ccm:0000000000000304 .L0 
C:\Users\stapi\AppData\Local\Temp\ccbuaOZz.s:2532   .text.cau_aes_ccm:0000000000000304 .L0 
C:\Users\stapi\AppData\Local\Temp\ccbuaOZz.s:2536   .text.cau_aes_ccm:000000000000030e .L0 
C:\Users\stapi\AppData\Local\Temp\ccbuaOZz.s:2538   .text.cau_aes_ccm:0000000000000310 .L0 
C:\Users\stapi\AppData\Local\Temp\ccbuaOZz.s:2539   .text.cau_aes_ccm:0000000000000310 .L0 
C:\Users\stapi\AppData\Local\Temp\ccbuaOZz.s:2542   .text.cau_aes_ccm:0000000000000318 .L0 
C:\Users\stapi\AppData\Local\Temp\ccbuaOZz.s:2544   .text.cau_aes_ccm:000000000000031a .L0 
C:\Users\stapi\AppData\Local\Temp\ccbuaOZz.s:2545   .text.cau_aes_ccm:000000000000031a .L0 
C:\Users\stapi\AppData\Local\Temp\ccbuaOZz.s:2548   .text.cau_aes_ccm:0000000000000322 .L0 
C:\Users\stapi\AppData\Local\Temp\ccbuaOZz.s:2550   .text.cau_aes_ccm:0000000000000324 .L0 
C:\Users\stapi\AppData\Local\Temp\ccbuaOZz.s:2551   .text.cau_aes_ccm:0000000000000324 .L0 
C:\Users\stapi\AppData\Local\Temp\ccbuaOZz.s:2554   .text.cau_aes_ccm:000000000000032c .L0 
C:\Users\stapi\AppData\Local\Temp\ccbuaOZz.s:2556   .text.cau_aes_ccm:000000000000032e .L0 
C:\Users\stapi\AppData\Local\Temp\ccbuaOZz.s:2557   .text.cau_aes_ccm:000000000000032e .L0 
C:\Users\stapi\AppData\Local\Temp\ccbuaOZz.s:2560   .text.cau_aes_ccm:0000000000000336 .L0 
C:\Users\stapi\AppData\Local\Temp\ccbuaOZz.s:2562   .text.cau_aes_ccm:0000000000000338 .L0 
C:\Users\stapi\AppData\Local\Temp\ccbuaOZz.s:2565   .text.cau_aes_ccm:0000000000000340 .L0 
C:\Users\stapi\AppData\Local\Temp\ccbuaOZz.s:2566   .text.cau_aes_ccm:0000000000000340 .L0 
C:\Users\stapi\AppData\Local\Temp\ccbuaOZz.s:2570   .text.cau_aes_ccm:0000000000000342 .L0 
C:\Users\stapi\AppData\Local\Temp\ccbuaOZz.s:2571   .text.cau_aes_ccm:0000000000000342 .L0 
C:\Users\stapi\AppData\Local\Temp\ccbuaOZz.s:2573   .text.cau_aes_ccm:0000000000000346 .L0 
C:\Users\stapi\AppData\Local\Temp\ccbuaOZz.s:2574   .text.cau_aes_ccm:0000000000000346 .L0 
C:\Users\stapi\AppData\Local\Temp\ccbuaOZz.s:2579   .text.cau_aes_ccm:000000000000034e .L0 
C:\Users\stapi\AppData\Local\Temp\ccbuaOZz.s:2582   .text.cau_aes_ccm:0000000000000352 .L0 
C:\Users\stapi\AppData\Local\Temp\ccbuaOZz.s:2584   .text.cau_aes_ccm:0000000000000356 .L0 
C:\Users\stapi\AppData\Local\Temp\ccbuaOZz.s:2586   .text.cau_aes_ccm:000000000000035a .L0 
C:\Users\stapi\AppData\Local\Temp\ccbuaOZz.s:2588   .text.cau_aes_ccm:000000000000035e .L0 
C:\Users\stapi\AppData\Local\Temp\ccbuaOZz.s:2591   .text.cau_aes_ccm:0000000000000360 .L0 
C:\Users\stapi\AppData\Local\Temp\ccbuaOZz.s:2593   .text.cau_aes_ccm:0000000000000364 .L0 
C:\Users\stapi\AppData\Local\Temp\ccbuaOZz.s:2596   .text.cau_aes_ccm:0000000000000368 .L0 
C:\Users\stapi\AppData\Local\Temp\ccbuaOZz.s:2597   .text.cau_aes_ccm:000000000000036a .L0 
C:\Users\stapi\AppData\Local\Temp\ccbuaOZz.s:313    .text.cau_aes_key_config:00000000000000d6 .L0 
C:\Users\stapi\AppData\Local\Temp\ccbuaOZz.s:545    .text.cau_fill_data:0000000000000108 .L0 
C:\Users\stapi\AppData\Local\Temp\ccbuaOZz.s:799    .text.cau_aes_calculate:0000000000000120 .L0 
C:\Users\stapi\AppData\Local\Temp\ccbuaOZz.s:940    .text.cau_aes_ecb:00000000000000c2 .L0 
C:\Users\stapi\AppData\Local\Temp\ccbuaOZz.s:1150   .text.cau_aes_cbc:00000000000000ee .L0 
C:\Users\stapi\AppData\Local\Temp\ccbuaOZz.s:1298   .text.cau_aes_ctr:00000000000000a2 .L0 
C:\Users\stapi\AppData\Local\Temp\ccbuaOZz.s:1447   .text.cau_aes_cfb:00000000000000a4 .L0 
C:\Users\stapi\AppData\Local\Temp\ccbuaOZz.s:1596   .text.cau_aes_ofb:00000000000000a4 .L0 
C:\Users\stapi\AppData\Local\Temp\ccbuaOZz.s:1947   .text.cau_aes_gcm:00000000000001ae .L0 
C:\Users\stapi\AppData\Local\Temp\ccbuaOZz.s:2600   .text.cau_aes_ccm:000000000000036a .L0 
                     .debug_frame:0000000000000000 .L0 
C:\Users\stapi\AppData\Local\Temp\ccbuaOZz.s:112    .text.cau_aes_key_config:0000000000000056 .L2
C:\Users\stapi\AppData\Local\Temp\ccbuaOZz.s:197    .text.cau_aes_key_config:000000000000008e .L3
C:\Users\stapi\AppData\Local\Temp\ccbuaOZz.s:103    .text.cau_aes_key_config:000000000000004e .L1
C:\Users\stapi\AppData\Local\Temp\ccbuaOZz.s:90     .text.cau_aes_key_config:0000000000000048 .L6
C:\Users\stapi\AppData\Local\Temp\ccbuaOZz.s:413    .text.cau_fill_data:0000000000000062 .L7
C:\Users\stapi\AppData\Local\Temp\ccbuaOZz.s:434    .text.cau_fill_data:000000000000006c .L10
C:\Users\stapi\AppData\Local\Temp\ccbuaOZz.s:536    .text.cau_fill_data:0000000000000102 .L14
C:\Users\stapi\AppData\Local\Temp\ccbuaOZz.s:391    .text.cau_fill_data:0000000000000048 .L15
C:\Users\stapi\AppData\Local\Temp\ccbuaOZz.s:501    .text.cau_fill_data:00000000000000ce .L11
C:\Users\stapi\AppData\Local\Temp\ccbuaOZz.s:492    .text.cau_fill_data:00000000000000c2 .L13
C:\Users\stapi\AppData\Local\Temp\ccbuaOZz.s:481    .text.cau_fill_data:00000000000000b2 .L24
C:\Users\stapi\AppData\Local\Temp\ccbuaOZz.s:380    .text.cau_fill_data:0000000000000040 .L9
C:\Users\stapi\AppData\Local\Temp\ccbuaOZz.s:774    .text.cau_aes_calculate:0000000000000114 .L26
C:\Users\stapi\AppData\Local\Temp\ccbuaOZz.s:621    .text.cau_aes_calculate:0000000000000048 .L29
C:\Users\stapi\AppData\Local\Temp\ccbuaOZz.s:777    .text.cau_aes_calculate:0000000000000116 .L25
C:\Users\stapi\AppData\Local\Temp\ccbuaOZz.s:681    .text.cau_aes_calculate:000000000000009c .L30
C:\Users\stapi\AppData\Local\Temp\ccbuaOZz.s:672    .text.cau_aes_calculate:0000000000000090 .L31
C:\Users\stapi\AppData\Local\Temp\ccbuaOZz.s:661    .text.cau_aes_calculate:0000000000000080 .L44
C:\Users\stapi\AppData\Local\Temp\ccbuaOZz.s:769    .text.cau_aes_calculate:0000000000000112 .L33
C:\Users\stapi\AppData\Local\Temp\ccbuaOZz.s:710    .text.cau_aes_calculate:00000000000000c8 .L34
C:\Users\stapi\AppData\Local\Temp\ccbuaOZz.s:614    .text.cau_aes_calculate:0000000000000040 .L27
C:\Users\stapi\AppData\Local\Temp\ccbuaOZz.s:729    .text.cau_aes_calculate:00000000000000e0 .L35
C:\Users\stapi\AppData\Local\Temp\ccbuaOZz.s:892    .text.cau_aes_ecb:0000000000000080 .L46
C:\Users\stapi\AppData\Local\Temp\ccbuaOZz.s:929    .text.cau_aes_ecb:00000000000000bc .L48
C:\Users\stapi\AppData\Local\Temp\ccbuaOZz.s:909    .text.cau_aes_ecb:00000000000000a2 .L49
C:\Users\stapi\AppData\Local\Temp\ccbuaOZz.s:851    .text.cau_aes_ecb:000000000000003a .L50
C:\Users\stapi\AppData\Local\Temp\ccbuaOZz.s:880    .text.cau_aes_ecb:0000000000000076 .L45
C:\Users\stapi\AppData\Local\Temp\ccbuaOZz.s:1102   .text.cau_aes_cbc:00000000000000ac .L57
C:\Users\stapi\AppData\Local\Temp\ccbuaOZz.s:1139   .text.cau_aes_cbc:00000000000000e8 .L59
C:\Users\stapi\AppData\Local\Temp\ccbuaOZz.s:1119   .text.cau_aes_cbc:00000000000000ce .L60
C:\Users\stapi\AppData\Local\Temp\ccbuaOZz.s:997    .text.cau_aes_cbc:000000000000003c .L61
C:\Users\stapi\AppData\Local\Temp\ccbuaOZz.s:1089   .text.cau_aes_cbc:00000000000000a2 .L56
C:\Users\stapi\AppData\Local\Temp\ccbuaOZz.s:1735   .text.cau_aes_gcm:000000000000008c .L74
C:\Users\stapi\AppData\Local\Temp\ccbuaOZz.s:1791   .text.cau_aes_gcm:00000000000000d6 .L75
C:\Users\stapi\AppData\Local\Temp\ccbuaOZz.s:1819   .text.cau_aes_gcm:0000000000000108 .L77
C:\Users\stapi\AppData\Local\Temp\ccbuaOZz.s:1771   .text.cau_aes_gcm:00000000000000c8 .L78
C:\Users\stapi\AppData\Local\Temp\ccbuaOZz.s:1897   .text.cau_aes_gcm:0000000000000168 .L79
C:\Users\stapi\AppData\Local\Temp\ccbuaOZz.s:1775   .text.cau_aes_gcm:00000000000000ca .L73
C:\Users\stapi\AppData\Local\Temp\ccbuaOZz.s:2230   .text.cau_aes_ccm:0000000000000140 .L143
C:\Users\stapi\AppData\Local\Temp\ccbuaOZz.s:2192   .text.cau_aes_ccm:0000000000000114 .L97
C:\Users\stapi\AppData\Local\Temp\ccbuaOZz.s:2064   .text.cau_aes_ccm:0000000000000064 .L99
C:\Users\stapi\AppData\Local\Temp\ccbuaOZz.s:2106   .text.cau_aes_ccm:00000000000000ac .L100
C:\Users\stapi\AppData\Local\Temp\ccbuaOZz.s:2096   .text.cau_aes_ccm:0000000000000098 .L102
C:\Users\stapi\AppData\Local\Temp\ccbuaOZz.s:2235   .text.cau_aes_ccm:0000000000000146 .L103
C:\Users\stapi\AppData\Local\Temp\ccbuaOZz.s:2260   .text.cau_aes_ccm:0000000000000154 .L106
C:\Users\stapi\AppData\Local\Temp\ccbuaOZz.s:2270   .text.cau_aes_ccm:0000000000000160 .L107
C:\Users\stapi\AppData\Local\Temp\ccbuaOZz.s:2292   .text.cau_aes_ccm:0000000000000180 .L111
C:\Users\stapi\AppData\Local\Temp\ccbuaOZz.s:2169   .text.cau_aes_ccm:00000000000000fe .L108
C:\Users\stapi\AppData\Local\Temp\ccbuaOZz.s:2058   .text.cau_aes_ccm:0000000000000062 .L98
C:\Users\stapi\AppData\Local\Temp\ccbuaOZz.s:2118   .text.cau_aes_ccm:00000000000000b6 .L96
C:\Users\stapi\AppData\Local\Temp\ccbuaOZz.s:2149   .text.cau_aes_ccm:00000000000000e6 .L104
C:\Users\stapi\AppData\Local\Temp\ccbuaOZz.s:2277   .text.cau_aes_ccm:000000000000016c .L110
C:\Users\stapi\AppData\Local\Temp\ccbuaOZz.s:2433   .text.cau_aes_ccm:0000000000000256 .L113
C:\Users\stapi\AppData\Local\Temp\ccbuaOZz.s:2463   .text.cau_aes_ccm:0000000000000288 .L114
C:\Users\stapi\AppData\Local\Temp\ccbuaOZz.s:2491   .text.cau_aes_ccm:00000000000002b8 .L115
C:\Users\stapi\AppData\Local\Temp\ccbuaOZz.s:2528   .text.cau_aes_ccm:0000000000000304 .L116
C:\Users\stapi\AppData\Local\Temp\ccbuaOZz.s:2238   .text.cau_aes_ccm:0000000000000148 .L95
C:\Users\stapi\AppData\Local\Temp\ccbuaOZz.s:2568   .text.cau_aes_ccm:0000000000000342 .L117
C:\Users\stapi\AppData\Local\Temp\ccbuaOZz.s:5632   .debug_abbrev:0000000000000000 .Ldebug_abbrev0
C:\Users\stapi\AppData\Local\Temp\ccbuaOZz.s:7989   .debug_str:0000000000000224 .LASF98
C:\Users\stapi\AppData\Local\Temp\ccbuaOZz.s:7939   .debug_str:0000000000000084 .LASF99
C:\Users\stapi\AppData\Local\Temp\ccbuaOZz.s:8075   .debug_str:00000000000004f3 .LASF100
C:\Users\stapi\AppData\Local\Temp\ccbuaOZz.s:7877   .debug_ranges:0000000000000000 .Ldebug_ranges0
C:\Users\stapi\AppData\Local\Temp\ccbuaOZz.s:7917   .debug_line:0000000000000000 .Ldebug_line0
C:\Users\stapi\AppData\Local\Temp\ccbuaOZz.s:8027   .debug_str:00000000000003df .LASF0
C:\Users\stapi\AppData\Local\Temp\ccbuaOZz.s:8035   .debug_str:0000000000000415 .LASF1
C:\Users\stapi\AppData\Local\Temp\ccbuaOZz.s:8025   .debug_str:00000000000003d3 .LASF2
C:\Users\stapi\AppData\Local\Temp\ccbuaOZz.s:8003   .debug_str:0000000000000360 .LASF7
C:\Users\stapi\AppData\Local\Temp\ccbuaOZz.s:8019   .debug_str:00000000000003b5 .LASF3
C:\Users\stapi\AppData\Local\Temp\ccbuaOZz.s:8125   .debug_str:000000000000068e .LASF4
C:\Users\stapi\AppData\Local\Temp\ccbuaOZz.s:8051   .debug_str:0000000000000468 .LASF5
C:\Users\stapi\AppData\Local\Temp\ccbuaOZz.s:7997   .debug_str:000000000000033e .LASF6
C:\Users\stapi\AppData\Local\Temp\ccbuaOZz.s:8085   .debug_str:00000000000005a3 .LASF8
C:\Users\stapi\AppData\Local\Temp\ccbuaOZz.s:8079   .debug_str:000000000000057d .LASF9
C:\Users\stapi\AppData\Local\Temp\ccbuaOZz.s:7991   .debug_str:000000000000031d .LASF10
C:\Users\stapi\AppData\Local\Temp\ccbuaOZz.s:8071   .debug_str:00000000000004dc .LASF11
C:\Users\stapi\AppData\Local\Temp\ccbuaOZz.s:8055   .debug_str:0000000000000483 .LASF12
C:\Users\stapi\AppData\Local\Temp\ccbuaOZz.s:7971   .debug_str:00000000000001cb .LASF13
C:\Users\stapi\AppData\Local\Temp\ccbuaOZz.s:8029   .debug_str:00000000000003f6 .LASF14
C:\Users\stapi\AppData\Local\Temp\ccbuaOZz.s:7931   .debug_str:0000000000000055 .LASF15
C:\Users\stapi\AppData\Local\Temp\ccbuaOZz.s:8061   .debug_str:000000000000049e .LASF16
C:\Users\stapi\AppData\Local\Temp\ccbuaOZz.s:8123   .debug_str:0000000000000687 .LASF17
C:\Users\stapi\AppData\Local\Temp\ccbuaOZz.s:8091   .debug_str:00000000000005c8 .LASF18
C:\Users\stapi\AppData\Local\Temp\ccbuaOZz.s:8007   .debug_str:0000000000000374 .LASF19
C:\Users\stapi\AppData\Local\Temp\ccbuaOZz.s:8047   .debug_str:0000000000000458 .LASF20
C:\Users\stapi\AppData\Local\Temp\ccbuaOZz.s:7947   .debug_str:0000000000000142 .LASF21
C:\Users\stapi\AppData\Local\Temp\ccbuaOZz.s:8015   .debug_str:0000000000000398 .LASF22
C:\Users\stapi\AppData\Local\Temp\ccbuaOZz.s:8119   .debug_str:0000000000000666 .LASF23
C:\Users\stapi\AppData\Local\Temp\ccbuaOZz.s:7951   .debug_str:0000000000000158 .LASF24
C:\Users\stapi\AppData\Local\Temp\ccbuaOZz.s:8043   .debug_str:0000000000000449 .LASF25
C:\Users\stapi\AppData\Local\Temp\ccbuaOZz.s:8059   .debug_str:0000000000000493 .LASF26
C:\Users\stapi\AppData\Local\Temp\ccbuaOZz.s:8111   .debug_str:000000000000062e .LASF27
C:\Users\stapi\AppData\Local\Temp\ccbuaOZz.s:7945   .debug_str:0000000000000137 .LASF28
C:\Users\stapi\AppData\Local\Temp\ccbuaOZz.s:7957   .debug_str:000000000000017b .LASF29
C:\Users\stapi\AppData\Local\Temp\ccbuaOZz.s:8063   .debug_str:00000000000004a6 .LASF30
C:\Users\stapi\AppData\Local\Temp\ccbuaOZz.s:8005   .debug_str:000000000000036a .LASF31
C:\Users\stapi\AppData\Local\Temp\ccbuaOZz.s:8009   .debug_str:000000000000037a .LASF32
C:\Users\stapi\AppData\Local\Temp\ccbuaOZz.s:7955   .debug_str:0000000000000171 .LASF33
C:\Users\stapi\AppData\Local\Temp\ccbuaOZz.s:8033   .debug_str:000000000000040c .LASF34
C:\Users\stapi\AppData\Local\Temp\ccbuaOZz.s:8117   .debug_str:000000000000064e .LASF35
C:\Users\stapi\AppData\Local\Temp\ccbuaOZz.s:8037   .debug_str:0000000000000422 .LASF36
C:\Users\stapi\AppData\Local\Temp\ccbuaOZz.s:8089   .debug_str:00000000000005bf .LASF37
C:\Users\stapi\AppData\Local\Temp\ccbuaOZz.s:8049   .debug_str:0000000000000460 .LASF38
C:\Users\stapi\AppData\Local\Temp\ccbuaOZz.s:7937   .debug_str:000000000000007e .LASF39
C:\Users\stapi\AppData\Local\Temp\ccbuaOZz.s:7999   .debug_str:0000000000000347 .LASF40
C:\Users\stapi\AppData\Local\Temp\ccbuaOZz.s:8083   .debug_str:000000000000059a .LASF41
C:\Users\stapi\AppData\Local\Temp\ccbuaOZz.s:7961   .debug_str:0000000000000191 .LASF42
C:\Users\stapi\AppData\Local\Temp\ccbuaOZz.s:8017   .debug_str:00000000000003a3 .LASF49
C:\Users\stapi\AppData\Local\Temp\ccbuaOZz.s:549    .text.cau_aes_calculate:0000000000000000 .LFB374
C:\Users\stapi\AppData\Local\Temp\ccbuaOZz.s:797    .text.cau_aes_calculate:0000000000000120 .LFE374
C:\Users\stapi\AppData\Local\Temp\ccbuaOZz.s:6280   .debug_loc:0000000000000000 .LLST9
C:\Users\stapi\AppData\Local\Temp\ccbuaOZz.s:6298   .debug_loc:000000000000002c .LLST10
C:\Users\stapi\AppData\Local\Temp\ccbuaOZz.s:8101   .debug_str:00000000000005fc .LASF43
C:\Users\stapi\AppData\Local\Temp\ccbuaOZz.s:6309   .debug_loc:000000000000004a .LLST11
C:\Users\stapi\AppData\Local\Temp\ccbuaOZz.s:7925   .debug_str:000000000000002d .LASF44
C:\Users\stapi\AppData\Local\Temp\ccbuaOZz.s:6327   .debug_loc:0000000000000076 .LLST12
C:\Users\stapi\AppData\Local\Temp\ccbuaOZz.s:7973   .debug_str:00000000000001d3 .LASF45
C:\Users\stapi\AppData\Local\Temp\ccbuaOZz.s:6366   .debug_loc:00000000000000d3 .LLST13
C:\Users\stapi\AppData\Local\Temp\ccbuaOZz.s:6417   .debug_loc:0000000000000135 .LLST14
C:\Users\stapi\AppData\Local\Temp\ccbuaOZz.s:8021   .debug_str:00000000000003c3 .LASF46
C:\Users\stapi\AppData\Local\Temp\ccbuaOZz.s:8081   .debug_str:000000000000058f .LASF47
C:\Users\stapi\AppData\Local\Temp\ccbuaOZz.s:6445   .debug_loc:0000000000000179 .LLST15
C:\Users\stapi\AppData\Local\Temp\ccbuaOZz.s:7981   .debug_str:00000000000001f7 .LASF48
C:\Users\stapi\AppData\Local\Temp\ccbuaOZz.s:649    .text.cau_aes_calculate:0000000000000072 .LVL68
C:\Users\stapi\AppData\Local\Temp\ccbuaOZz.s:587    .text.cau_aes_calculate:000000000000001a .LVL64
C:\Users\stapi\AppData\Local\Temp\ccbuaOZz.s:627    .text.cau_aes_calculate:0000000000000052 .LVL66
C:\Users\stapi\AppData\Local\Temp\ccbuaOZz.s:686    .text.cau_aes_calculate:00000000000000a6 .LVL71
C:\Users\stapi\AppData\Local\Temp\ccbuaOZz.s:691    .text.cau_aes_calculate:00000000000000b0 .LVL72
C:\Users\stapi\AppData\Local\Temp\ccbuaOZz.s:696    .text.cau_aes_calculate:00000000000000ba .LVL73
C:\Users\stapi\AppData\Local\Temp\ccbuaOZz.s:705    .text.cau_aes_calculate:00000000000000c6 .LVL75
C:\Users\stapi\AppData\Local\Temp\ccbuaOZz.s:716    .text.cau_aes_calculate:00000000000000d2 .LVL76
C:\Users\stapi\AppData\Local\Temp\ccbuaOZz.s:733    .text.cau_aes_calculate:00000000000000e8 .LVL77
C:\Users\stapi\AppData\Local\Temp\ccbuaOZz.s:741    .text.cau_aes_calculate:00000000000000f2 .LVL79
C:\Users\stapi\AppData\Local\Temp\ccbuaOZz.s:749    .text.cau_aes_calculate:00000000000000fc .LVL81
C:\Users\stapi\AppData\Local\Temp\ccbuaOZz.s:757    .text.cau_aes_calculate:0000000000000106 .LVL83
C:\Users\stapi\AppData\Local\Temp\ccbuaOZz.s:8069   .debug_str:00000000000004ce .LASF50
C:\Users\stapi\AppData\Local\Temp\ccbuaOZz.s:317    .text.cau_fill_data:0000000000000000 .LFB373
C:\Users\stapi\AppData\Local\Temp\ccbuaOZz.s:543    .text.cau_fill_data:0000000000000108 .LFE373
C:\Users\stapi\AppData\Local\Temp\ccbuaOZz.s:6461   .debug_loc:00000000000001a3 .LLST4
C:\Users\stapi\AppData\Local\Temp\ccbuaOZz.s:6479   .debug_loc:00000000000001cf .LLST5
C:\Users\stapi\AppData\Local\Temp\ccbuaOZz.s:6490   .debug_loc:00000000000001ed .LLST6
C:\Users\stapi\AppData\Local\Temp\ccbuaOZz.s:6533   .debug_loc:0000000000000255 .LLST7
C:\Users\stapi\AppData\Local\Temp\ccbuaOZz.s:6559   .debug_loc:0000000000000297 .LLST8
C:\Users\stapi\AppData\Local\Temp\ccbuaOZz.s:462    .text.cau_fill_data:0000000000000098 .LVL50
C:\Users\stapi\AppData\Local\Temp\ccbuaOZz.s:354    .text.cau_fill_data:0000000000000018 .LVL43
C:\Users\stapi\AppData\Local\Temp\ccbuaOZz.s:397    .text.cau_fill_data:0000000000000052 .LVL46
C:\Users\stapi\AppData\Local\Temp\ccbuaOZz.s:441    .text.cau_fill_data:0000000000000076 .LVL49
C:\Users\stapi\AppData\Local\Temp\ccbuaOZz.s:510    .text.cau_fill_data:00000000000000da .LVL54
C:\Users\stapi\AppData\Local\Temp\ccbuaOZz.s:515    .text.cau_fill_data:00000000000000e4 .LVL55
C:\Users\stapi\AppData\Local\Temp\ccbuaOZz.s:520    .text.cau_fill_data:00000000000000ee .LVL56
C:\Users\stapi\AppData\Local\Temp\ccbuaOZz.s:529    .text.cau_fill_data:00000000000000fa .LVL58
C:\Users\stapi\AppData\Local\Temp\ccbuaOZz.s:8041   .debug_str:0000000000000436 .LASF101
C:\Users\stapi\AppData\Local\Temp\ccbuaOZz.s:13     .text.cau_aes_key_config:0000000000000000 .LFB372
C:\Users\stapi\AppData\Local\Temp\ccbuaOZz.s:311    .text.cau_aes_key_config:00000000000000d6 .LFE372
C:\Users\stapi\AppData\Local\Temp\ccbuaOZz.s:6580   .debug_loc:00000000000002cd .LLST0
C:\Users\stapi\AppData\Local\Temp\ccbuaOZz.s:8109   .debug_str:0000000000000626 .LASF51
C:\Users\stapi\AppData\Local\Temp\ccbuaOZz.s:6591   .debug_loc:00000000000002eb .LLST1
C:\Users\stapi\AppData\Local\Temp\ccbuaOZz.s:8087   .debug_str:00000000000005ae .LASF52
C:\Users\stapi\AppData\Local\Temp\ccbuaOZz.s:6627   .debug_loc:000000000000033e .LLST2
C:\Users\stapi\AppData\Local\Temp\ccbuaOZz.s:7983   .debug_str:0000000000000207 .LASF53
C:\Users\stapi\AppData\Local\Temp\ccbuaOZz.s:6638   .debug_loc:000000000000035c .LLST3
C:\Users\stapi\AppData\Local\Temp\ccbuaOZz.s:45     .text.cau_aes_key_config:0000000000000034 .LBB94
C:\Users\stapi\AppData\Local\Temp\ccbuaOZz.s:52     .text.cau_aes_key_config:0000000000000034 .LBE94
C:\Users\stapi\AppData\Local\Temp\ccbuaOZz.s:61     .text.cau_aes_key_config:000000000000003c .LBB96
C:\Users\stapi\AppData\Local\Temp\ccbuaOZz.s:67     .text.cau_aes_key_config:000000000000003c .LBE96
C:\Users\stapi\AppData\Local\Temp\ccbuaOZz.s:76     .text.cau_aes_key_config:0000000000000044 .LBB98
C:\Users\stapi\AppData\Local\Temp\ccbuaOZz.s:82     .text.cau_aes_key_config:0000000000000044 .LBE98
C:\Users\stapi\AppData\Local\Temp\ccbuaOZz.s:93     .text.cau_aes_key_config:000000000000004c .LBB100
C:\Users\stapi\AppData\Local\Temp\ccbuaOZz.s:99     .text.cau_aes_key_config:000000000000004c .LBE100
C:\Users\stapi\AppData\Local\Temp\ccbuaOZz.s:122    .text.cau_aes_key_config:0000000000000068 .LBB102
C:\Users\stapi\AppData\Local\Temp\ccbuaOZz.s:128    .text.cau_aes_key_config:0000000000000068 .LBE102
C:\Users\stapi\AppData\Local\Temp\ccbuaOZz.s:137    .text.cau_aes_key_config:0000000000000070 .LBB104
C:\Users\stapi\AppData\Local\Temp\ccbuaOZz.s:143    .text.cau_aes_key_config:0000000000000070 .LBE104
C:\Users\stapi\AppData\Local\Temp\ccbuaOZz.s:152    .text.cau_aes_key_config:0000000000000078 .LBB106
C:\Users\stapi\AppData\Local\Temp\ccbuaOZz.s:158    .text.cau_aes_key_config:0000000000000078 .LBE106
C:\Users\stapi\AppData\Local\Temp\ccbuaOZz.s:167    .text.cau_aes_key_config:0000000000000080 .LBB108
C:\Users\stapi\AppData\Local\Temp\ccbuaOZz.s:173    .text.cau_aes_key_config:0000000000000080 .LBE108
C:\Users\stapi\AppData\Local\Temp\ccbuaOZz.s:182    .text.cau_aes_key_config:0000000000000088 .LBB110
C:\Users\stapi\AppData\Local\Temp\ccbuaOZz.s:188    .text.cau_aes_key_config:0000000000000088 .LBE110
C:\Users\stapi\AppData\Local\Temp\ccbuaOZz.s:206    .text.cau_aes_key_config:00000000000000a0 .LBB112
C:\Users\stapi\AppData\Local\Temp\ccbuaOZz.s:212    .text.cau_aes_key_config:00000000000000a0 .LBE112
C:\Users\stapi\AppData\Local\Temp\ccbuaOZz.s:221    .text.cau_aes_key_config:00000000000000a8 .LBB114
C:\Users\stapi\AppData\Local\Temp\ccbuaOZz.s:227    .text.cau_aes_key_config:00000000000000a8 .LBE114
C:\Users\stapi\AppData\Local\Temp\ccbuaOZz.s:236    .text.cau_aes_key_config:00000000000000b0 .LBB116
C:\Users\stapi\AppData\Local\Temp\ccbuaOZz.s:242    .text.cau_aes_key_config:00000000000000b0 .LBE116
C:\Users\stapi\AppData\Local\Temp\ccbuaOZz.s:251    .text.cau_aes_key_config:00000000000000b8 .LBB118
C:\Users\stapi\AppData\Local\Temp\ccbuaOZz.s:257    .text.cau_aes_key_config:00000000000000b8 .LBE118
C:\Users\stapi\AppData\Local\Temp\ccbuaOZz.s:266    .text.cau_aes_key_config:00000000000000c0 .LBB120
C:\Users\stapi\AppData\Local\Temp\ccbuaOZz.s:272    .text.cau_aes_key_config:00000000000000c0 .LBE120
C:\Users\stapi\AppData\Local\Temp\ccbuaOZz.s:281    .text.cau_aes_key_config:00000000000000c8 .LBB122
C:\Users\stapi\AppData\Local\Temp\ccbuaOZz.s:287    .text.cau_aes_key_config:00000000000000c8 .LBE122
C:\Users\stapi\AppData\Local\Temp\ccbuaOZz.s:296    .text.cau_aes_key_config:00000000000000d0 .LBB124
C:\Users\stapi\AppData\Local\Temp\ccbuaOZz.s:302    .text.cau_aes_key_config:00000000000000d0 .LBE124
C:\Users\stapi\AppData\Local\Temp\ccbuaOZz.s:40     .text.cau_aes_key_config:000000000000002e .LVL3
C:\Users\stapi\AppData\Local\Temp\ccbuaOZz.s:117    .text.cau_aes_key_config:0000000000000062 .LVL13
C:\Users\stapi\AppData\Local\Temp\ccbuaOZz.s:201    .text.cau_aes_key_config:000000000000009a .LVL25
C:\Users\stapi\AppData\Local\Temp\ccbuaOZz.s:7959   .debug_str:0000000000000185 .LASF71
C:\Users\stapi\AppData\Local\Temp\ccbuaOZz.s:1952   .text.cau_aes_ccm:0000000000000000 .LFB371
C:\Users\stapi\AppData\Local\Temp\ccbuaOZz.s:2598   .text.cau_aes_ccm:000000000000036a .LFE371
C:\Users\stapi\AppData\Local\Temp\ccbuaOZz.s:7953   .debug_str:0000000000000163 .LASF54
C:\Users\stapi\AppData\Local\Temp\ccbuaOZz.s:6747   .debug_loc:0000000000000453 .LLST45
C:\Users\stapi\AppData\Local\Temp\ccbuaOZz.s:6766   .debug_loc:0000000000000487 .LLST46
C:\Users\stapi\AppData\Local\Temp\ccbuaOZz.s:6777   .debug_loc:00000000000004a5 .LLST47
C:\Users\stapi\AppData\Local\Temp\ccbuaOZz.s:8105   .debug_str:0000000000000611 .LASF55
C:\Users\stapi\AppData\Local\Temp\ccbuaOZz.s:6796   .debug_loc:00000000000004d9 .LLST48
C:\Users\stapi\AppData\Local\Temp\ccbuaOZz.s:8013   .debug_str:0000000000000390 .LASF56
C:\Users\stapi\AppData\Local\Temp\ccbuaOZz.s:6815   .debug_loc:000000000000050d .LLST49
C:\Users\stapi\AppData\Local\Temp\ccbuaOZz.s:8031   .debug_str:00000000000003ff .LASF57
C:\Users\stapi\AppData\Local\Temp\ccbuaOZz.s:7949   .debug_str:000000000000014c .LASF58
C:\Users\stapi\AppData\Local\Temp\ccbuaOZz.s:6848   .debug_loc:000000000000055d .LLST50
C:\Users\stapi\AppData\Local\Temp\ccbuaOZz.s:8115   .debug_str:0000000000000644 .LASF59
C:\Users\stapi\AppData\Local\Temp\ccbuaOZz.s:6865   .debug_loc:0000000000000588 .LLST51
C:\Users\stapi\AppData\Local\Temp\ccbuaOZz.s:7977   .debug_str:00000000000001e4 .LASF60
C:\Users\stapi\AppData\Local\Temp\ccbuaOZz.s:6895   .debug_loc:00000000000005d8 .LLST52
C:\Users\stapi\AppData\Local\Temp\ccbuaOZz.s:8065   .debug_str:00000000000004bf .LASF61
C:\Users\stapi\AppData\Local\Temp\ccbuaOZz.s:6910   .debug_loc:0000000000000601 .LLST53
C:\Users\stapi\AppData\Local\Temp\ccbuaOZz.s:8001   .debug_str:0000000000000351 .LASF62
C:\Users\stapi\AppData\Local\Temp\ccbuaOZz.s:6921   .debug_loc:000000000000061f .LLST54
C:\Users\stapi\AppData\Local\Temp\ccbuaOZz.s:7963   .debug_str:00000000000001a6 .LASF63
C:\Users\stapi\AppData\Local\Temp\ccbuaOZz.s:6947   .debug_loc:0000000000000661 .LLST55
C:\Users\stapi\AppData\Local\Temp\ccbuaOZz.s:7935   .debug_str:0000000000000077 .LASF64
C:\Users\stapi\AppData\Local\Temp\ccbuaOZz.s:6963   .debug_loc:000000000000068c .LLST56
C:\Users\stapi\AppData\Local\Temp\ccbuaOZz.s:8045   .debug_str:0000000000000453 .LASF65
C:\Users\stapi\AppData\Local\Temp\ccbuaOZz.s:7018   .debug_loc:0000000000000715 .LLST57
C:\Users\stapi\AppData\Local\Temp\ccbuaOZz.s:7979   .debug_str:00000000000001ec .LASF66
C:\Users\stapi\AppData\Local\Temp\ccbuaOZz.s:7084   .debug_loc:00000000000007a2 .LLST58
C:\Users\stapi\AppData\Local\Temp\ccbuaOZz.s:8023   .debug_str:00000000000003cb .LASF67
C:\Users\stapi\AppData\Local\Temp\ccbuaOZz.s:7943   .debug_str:000000000000012f .LASF68
C:\Users\stapi\AppData\Local\Temp\ccbuaOZz.s:7161   .debug_loc:000000000000084f .LLST59
C:\Users\stapi\AppData\Local\Temp\ccbuaOZz.s:8067   .debug_str:00000000000004c7 .LASF69
C:\Users\stapi\AppData\Local\Temp\ccbuaOZz.s:7230   .debug_loc:00000000000008e6 .LLST60
C:\Users\stapi\AppData\Local\Temp\ccbuaOZz.s:8097   .debug_str:00000000000005e7 .LASF70
C:\Users\stapi\AppData\Local\Temp\ccbuaOZz.s:2353   .text.cau_aes_ccm:0000000000000204 .LBB180
C:\Users\stapi\AppData\Local\Temp\ccbuaOZz.s:2359   .text.cau_aes_ccm:0000000000000204 .LBE180
C:\Users\stapi\AppData\Local\Temp\ccbuaOZz.s:2368   .text.cau_aes_ccm:000000000000020c .LBB182
C:\Users\stapi\AppData\Local\Temp\ccbuaOZz.s:2374   .text.cau_aes_ccm:000000000000020c .LBE182
C:\Users\stapi\AppData\Local\Temp\ccbuaOZz.s:2383   .text.cau_aes_ccm:0000000000000214 .LBB184
C:\Users\stapi\AppData\Local\Temp\ccbuaOZz.s:2389   .text.cau_aes_ccm:0000000000000214 .LBE184
C:\Users\stapi\AppData\Local\Temp\ccbuaOZz.s:2398   .text.cau_aes_ccm:000000000000021c .LBB186
C:\Users\stapi\AppData\Local\Temp\ccbuaOZz.s:2404   .text.cau_aes_ccm:000000000000021c .LBE186
C:\Users\stapi\AppData\Local\Temp\ccbuaOZz.s:2102   .text.cau_aes_ccm:00000000000000a8 .LVL273
C:\Users\stapi\AppData\Local\Temp\ccbuaOZz.s:2284   .text.cau_aes_ccm:000000000000017e .LVL298
C:\Users\stapi\AppData\Local\Temp\ccbuaOZz.s:2307   .text.cau_aes_ccm:0000000000000198 .LVL301
C:\Users\stapi\AppData\Local\Temp\ccbuaOZz.s:2318   .text.cau_aes_ccm:00000000000001ae .LVL302
C:\Users\stapi\AppData\Local\Temp\ccbuaOZz.s:2321   .text.cau_aes_ccm:00000000000001b6 .LVL303
C:\Users\stapi\AppData\Local\Temp\ccbuaOZz.s:2325   .text.cau_aes_ccm:00000000000001c0 .LVL304
C:\Users\stapi\AppData\Local\Temp\ccbuaOZz.s:2332   .text.cau_aes_ccm:00000000000001d6 .LVL305
C:\Users\stapi\AppData\Local\Temp\ccbuaOZz.s:2336   .text.cau_aes_ccm:00000000000001e0 .LVL306
C:\Users\stapi\AppData\Local\Temp\ccbuaOZz.s:2342   .text.cau_aes_ccm:00000000000001f2 .LVL307
C:\Users\stapi\AppData\Local\Temp\ccbuaOZz.s:2346   .text.cau_aes_ccm:00000000000001fc .LVL308
C:\Users\stapi\AppData\Local\Temp\ccbuaOZz.s:2409   .text.cau_aes_ccm:0000000000000226 .LVL316
C:\Users\stapi\AppData\Local\Temp\ccbuaOZz.s:2412   .text.cau_aes_ccm:000000000000022e .LVL317
C:\Users\stapi\AppData\Local\Temp\ccbuaOZz.s:2416   .text.cau_aes_ccm:0000000000000238 .LVL318
C:\Users\stapi\AppData\Local\Temp\ccbuaOZz.s:2421   .text.cau_aes_ccm:0000000000000242 .LVL319
C:\Users\stapi\AppData\Local\Temp\ccbuaOZz.s:2426   .text.cau_aes_ccm:000000000000024c .LVL320
C:\Users\stapi\AppData\Local\Temp\ccbuaOZz.s:2431   .text.cau_aes_ccm:0000000000000256 .LVL321
C:\Users\stapi\AppData\Local\Temp\ccbuaOZz.s:2438   .text.cau_aes_ccm:000000000000025e .LVL322
C:\Users\stapi\AppData\Local\Temp\ccbuaOZz.s:2447   .text.cau_aes_ccm:000000000000026e .LVL323
C:\Users\stapi\AppData\Local\Temp\ccbuaOZz.s:2450   .text.cau_aes_ccm:0000000000000276 .LVL324
C:\Users\stapi\AppData\Local\Temp\ccbuaOZz.s:2456   .text.cau_aes_ccm:0000000000000282 .LVL325
C:\Users\stapi\AppData\Local\Temp\ccbuaOZz.s:2475   .text.cau_aes_ccm:000000000000029c .LVL329
C:\Users\stapi\AppData\Local\Temp\ccbuaOZz.s:2478   .text.cau_aes_ccm:00000000000002a4 .LVL330
C:\Users\stapi\AppData\Local\Temp\ccbuaOZz.s:2485   .text.cau_aes_ccm:00000000000002b2 .LVL331
C:\Users\stapi\AppData\Local\Temp\ccbuaOZz.s:2495   .text.cau_aes_ccm:00000000000002c4 .LVL333
C:\Users\stapi\AppData\Local\Temp\ccbuaOZz.s:2498   .text.cau_aes_ccm:00000000000002cc .LVL334
C:\Users\stapi\AppData\Local\Temp\ccbuaOZz.s:2502   .text.cau_aes_ccm:00000000000002d4 .LVL335
C:\Users\stapi\AppData\Local\Temp\ccbuaOZz.s:2510   .text.cau_aes_ccm:00000000000002e2 .LVL337
C:\Users\stapi\AppData\Local\Temp\ccbuaOZz.s:2515   .text.cau_aes_ccm:00000000000002ec .LVL338
C:\Users\stapi\AppData\Local\Temp\ccbuaOZz.s:2520   .text.cau_aes_ccm:00000000000002f6 .LVL339
C:\Users\stapi\AppData\Local\Temp\ccbuaOZz.s:2526   .text.cau_aes_ccm:0000000000000304 .LVL340
C:\Users\stapi\AppData\Local\Temp\ccbuaOZz.s:2534   .text.cau_aes_ccm:000000000000030e .LVL341
C:\Users\stapi\AppData\Local\Temp\ccbuaOZz.s:2540   .text.cau_aes_ccm:0000000000000318 .LVL342
C:\Users\stapi\AppData\Local\Temp\ccbuaOZz.s:2546   .text.cau_aes_ccm:0000000000000322 .LVL343
C:\Users\stapi\AppData\Local\Temp\ccbuaOZz.s:2552   .text.cau_aes_ccm:000000000000032c .LVL344
C:\Users\stapi\AppData\Local\Temp\ccbuaOZz.s:2558   .text.cau_aes_ccm:0000000000000336 .LVL345
C:\Users\stapi\AppData\Local\Temp\ccbuaOZz.s:2563   .text.cau_aes_ccm:0000000000000340 .LVL346
C:\Users\stapi\AppData\Local\Temp\ccbuaOZz.s:8073   .debug_str:00000000000004e7 .LASF72
C:\Users\stapi\AppData\Local\Temp\ccbuaOZz.s:1601   .text.cau_aes_gcm:0000000000000000 .LFB370
C:\Users\stapi\AppData\Local\Temp\ccbuaOZz.s:1945   .text.cau_aes_gcm:00000000000001ae .LFE370
C:\Users\stapi\AppData\Local\Temp\ccbuaOZz.s:7295   .debug_loc:0000000000000982 .LLST37
C:\Users\stapi\AppData\Local\Temp\ccbuaOZz.s:7324   .debug_loc:00000000000009c7 .LLST38
C:\Users\stapi\AppData\Local\Temp\ccbuaOZz.s:7335   .debug_loc:00000000000009e5 .LLST39
C:\Users\stapi\AppData\Local\Temp\ccbuaOZz.s:7346   .debug_loc:0000000000000a03 .LLST40
C:\Users\stapi\AppData\Local\Temp\ccbuaOZz.s:8093   .debug_str:00000000000005ce .LASF73
C:\Users\stapi\AppData\Local\Temp\ccbuaOZz.s:7362   .debug_loc:0000000000000a2d .LLST41
C:\Users\stapi\AppData\Local\Temp\ccbuaOZz.s:8127   .debug_str:0000000000000698 .LASF74
C:\Users\stapi\AppData\Local\Temp\ccbuaOZz.s:7393   .debug_loc:0000000000000a5f .LLST42
C:\Users\stapi\AppData\Local\Temp\ccbuaOZz.s:7424   .debug_loc:0000000000000a91 .LLST43
C:\Users\stapi\AppData\Local\Temp\ccbuaOZz.s:8053   .debug_str:000000000000047b .LASF75
C:\Users\stapi\AppData\Local\Temp\ccbuaOZz.s:7449   .debug_loc:0000000000000acb .LLST44
C:\Users\stapi\AppData\Local\Temp\ccbuaOZz.s:1667   .text.cau_aes_gcm:0000000000000056 .LBB164
C:\Users\stapi\AppData\Local\Temp\ccbuaOZz.s:1673   .text.cau_aes_gcm:0000000000000056 .LBE164
C:\Users\stapi\AppData\Local\Temp\ccbuaOZz.s:1682   .text.cau_aes_gcm:000000000000005e .LBB166
C:\Users\stapi\AppData\Local\Temp\ccbuaOZz.s:1688   .text.cau_aes_gcm:000000000000005e .LBE166
C:\Users\stapi\AppData\Local\Temp\ccbuaOZz.s:1697   .text.cau_aes_gcm:0000000000000066 .LBB168
C:\Users\stapi\AppData\Local\Temp\ccbuaOZz.s:1703   .text.cau_aes_gcm:0000000000000066 .LBE168
C:\Users\stapi\AppData\Local\Temp\ccbuaOZz.s:1715   .text.cau_aes_gcm:0000000000000070 .LBB170
C:\Users\stapi\AppData\Local\Temp\ccbuaOZz.s:1721   .text.cau_aes_gcm:0000000000000070 .LBE170
C:\Users\stapi\AppData\Local\Temp\ccbuaOZz.s:1858   .text.cau_aes_gcm:0000000000000154 .LBB172
C:\Users\stapi\AppData\Local\Temp\ccbuaOZz.s:1864   .text.cau_aes_gcm:0000000000000154 .LBE172
C:\Users\stapi\AppData\Local\Temp\ccbuaOZz.s:1866   .text.cau_aes_gcm:0000000000000154 .LBB174
C:\Users\stapi\AppData\Local\Temp\ccbuaOZz.s:1872   .text.cau_aes_gcm:0000000000000154 .LBE174
C:\Users\stapi\AppData\Local\Temp\ccbuaOZz.s:1874   .text.cau_aes_gcm:0000000000000154 .LBB176
C:\Users\stapi\AppData\Local\Temp\ccbuaOZz.s:1880   .text.cau_aes_gcm:0000000000000154 .LBE176
C:\Users\stapi\AppData\Local\Temp\ccbuaOZz.s:1885   .text.cau_aes_gcm:000000000000015c .LBB178
C:\Users\stapi\AppData\Local\Temp\ccbuaOZz.s:1891   .text.cau_aes_gcm:000000000000015c .LBE178
C:\Users\stapi\AppData\Local\Temp\ccbuaOZz.s:1644   .text.cau_aes_gcm:0000000000000024 .LVL209
C:\Users\stapi\AppData\Local\Temp\ccbuaOZz.s:1650   .text.cau_aes_gcm:0000000000000036 .LVL210
C:\Users\stapi\AppData\Local\Temp\ccbuaOZz.s:1656   .text.cau_aes_gcm:0000000000000044 .LVL211
C:\Users\stapi\AppData\Local\Temp\ccbuaOZz.s:1660   .text.cau_aes_gcm:000000000000004e .LVL212
C:\Users\stapi\AppData\Local\Temp\ccbuaOZz.s:1726   .text.cau_aes_gcm:000000000000007a .LVL221
C:\Users\stapi\AppData\Local\Temp\ccbuaOZz.s:1730   .text.cau_aes_gcm:0000000000000084 .LVL222
C:\Users\stapi\AppData\Local\Temp\ccbuaOZz.s:1733   .text.cau_aes_gcm:000000000000008c .LVL223
C:\Users\stapi\AppData\Local\Temp\ccbuaOZz.s:1740   .text.cau_aes_gcm:0000000000000094 .LVL224
C:\Users\stapi\AppData\Local\Temp\ccbuaOZz.s:1753   .text.cau_aes_gcm:00000000000000a8 .LVL225
C:\Users\stapi\AppData\Local\Temp\ccbuaOZz.s:1756   .text.cau_aes_gcm:00000000000000b0 .LVL226
C:\Users\stapi\AppData\Local\Temp\ccbuaOZz.s:1759   .text.cau_aes_gcm:00000000000000b8 .LVL227
C:\Users\stapi\AppData\Local\Temp\ccbuaOZz.s:1765   .text.cau_aes_gcm:00000000000000c4 .LVL228
C:\Users\stapi\AppData\Local\Temp\ccbuaOZz.s:1800   .text.cau_aes_gcm:00000000000000e6 .LVL232
C:\Users\stapi\AppData\Local\Temp\ccbuaOZz.s:1803   .text.cau_aes_gcm:00000000000000ee .LVL233
C:\Users\stapi\AppData\Local\Temp\ccbuaOZz.s:1806   .text.cau_aes_gcm:00000000000000f6 .LVL234
C:\Users\stapi\AppData\Local\Temp\ccbuaOZz.s:1813   .text.cau_aes_gcm:0000000000000104 .LVL235
C:\Users\stapi\AppData\Local\Temp\ccbuaOZz.s:1823   .text.cau_aes_gcm:0000000000000114 .LVL237
C:\Users\stapi\AppData\Local\Temp\ccbuaOZz.s:1826   .text.cau_aes_gcm:000000000000011c .LVL238
C:\Users\stapi\AppData\Local\Temp\ccbuaOZz.s:1829   .text.cau_aes_gcm:0000000000000124 .LVL239
C:\Users\stapi\AppData\Local\Temp\ccbuaOZz.s:1833   .text.cau_aes_gcm:000000000000012c .LVL240
C:\Users\stapi\AppData\Local\Temp\ccbuaOZz.s:1841   .text.cau_aes_gcm:000000000000013c .LVL241
C:\Users\stapi\AppData\Local\Temp\ccbuaOZz.s:1851   .text.cau_aes_gcm:000000000000014e .LVL244
C:\Users\stapi\AppData\Local\Temp\ccbuaOZz.s:1883   .text.cau_aes_gcm:000000000000015c .LVL246
C:\Users\stapi\AppData\Local\Temp\ccbuaOZz.s:1895   .text.cau_aes_gcm:0000000000000168 .LVL247
C:\Users\stapi\AppData\Local\Temp\ccbuaOZz.s:1903   .text.cau_aes_gcm:0000000000000172 .LVL248
C:\Users\stapi\AppData\Local\Temp\ccbuaOZz.s:1909   .text.cau_aes_gcm:000000000000017c .LVL249
C:\Users\stapi\AppData\Local\Temp\ccbuaOZz.s:1917   .text.cau_aes_gcm:0000000000000188 .LVL251
C:\Users\stapi\AppData\Local\Temp\ccbuaOZz.s:1925   .text.cau_aes_gcm:0000000000000194 .LVL253
C:\Users\stapi\AppData\Local\Temp\ccbuaOZz.s:1933   .text.cau_aes_gcm:00000000000001a0 .LVL255
C:\Users\stapi\AppData\Local\Temp\ccbuaOZz.s:1940   .text.cau_aes_gcm:00000000000001ac .LVL257
C:\Users\stapi\AppData\Local\Temp\ccbuaOZz.s:8039   .debug_str:000000000000042a .LASF76
C:\Users\stapi\AppData\Local\Temp\ccbuaOZz.s:1452   .text.cau_aes_ofb:0000000000000000 .LFB369
C:\Users\stapi\AppData\Local\Temp\ccbuaOZz.s:1594   .text.cau_aes_ofb:00000000000000a4 .LFE369
C:\Users\stapi\AppData\Local\Temp\ccbuaOZz.s:7488   .debug_loc:0000000000000b28 .LLST33
C:\Users\stapi\AppData\Local\Temp\ccbuaOZz.s:7499   .debug_loc:0000000000000b46 .LLST34
C:\Users\stapi\AppData\Local\Temp\ccbuaOZz.s:7510   .debug_loc:0000000000000b64 .LLST35
C:\Users\stapi\AppData\Local\Temp\ccbuaOZz.s:7532   .debug_loc:0000000000000b9b .LLST36
C:\Users\stapi\AppData\Local\Temp\ccbuaOZz.s:1506   .text.cau_aes_ofb:000000000000004e .LBB156
C:\Users\stapi\AppData\Local\Temp\ccbuaOZz.s:1512   .text.cau_aes_ofb:000000000000004e .LBE156
C:\Users\stapi\AppData\Local\Temp\ccbuaOZz.s:1521   .text.cau_aes_ofb:0000000000000056 .LBB158
C:\Users\stapi\AppData\Local\Temp\ccbuaOZz.s:1527   .text.cau_aes_ofb:0000000000000056 .LBE158
C:\Users\stapi\AppData\Local\Temp\ccbuaOZz.s:1536   .text.cau_aes_ofb:000000000000005e .LBB160
C:\Users\stapi\AppData\Local\Temp\ccbuaOZz.s:1542   .text.cau_aes_ofb:000000000000005e .LBE160
C:\Users\stapi\AppData\Local\Temp\ccbuaOZz.s:1551   .text.cau_aes_ofb:0000000000000066 .LBB162
C:\Users\stapi\AppData\Local\Temp\ccbuaOZz.s:1557   .text.cau_aes_ofb:0000000000000066 .LBE162
C:\Users\stapi\AppData\Local\Temp\ccbuaOZz.s:1482   .text.cau_aes_ofb:000000000000001a .LVL185
C:\Users\stapi\AppData\Local\Temp\ccbuaOZz.s:1489   .text.cau_aes_ofb:000000000000002e .LVL186
C:\Users\stapi\AppData\Local\Temp\ccbuaOZz.s:1495   .text.cau_aes_ofb:000000000000003c .LVL187
C:\Users\stapi\AppData\Local\Temp\ccbuaOZz.s:1499   .text.cau_aes_ofb:0000000000000046 .LVL188
C:\Users\stapi\AppData\Local\Temp\ccbuaOZz.s:1562   .text.cau_aes_ofb:0000000000000070 .LVL196
C:\Users\stapi\AppData\Local\Temp\ccbuaOZz.s:1565   .text.cau_aes_ofb:0000000000000078 .LVL197
C:\Users\stapi\AppData\Local\Temp\ccbuaOZz.s:1568   .text.cau_aes_ofb:0000000000000080 .LVL198
C:\Users\stapi\AppData\Local\Temp\ccbuaOZz.s:1575   .text.cau_aes_ofb:000000000000008e .LVL199
C:\Users\stapi\AppData\Local\Temp\ccbuaOZz.s:1580   .text.cau_aes_ofb:0000000000000098 .LVL201
C:\Users\stapi\AppData\Local\Temp\ccbuaOZz.s:8113   .debug_str:0000000000000638 .LASF77
C:\Users\stapi\AppData\Local\Temp\ccbuaOZz.s:1303   .text.cau_aes_cfb:0000000000000000 .LFB368
C:\Users\stapi\AppData\Local\Temp\ccbuaOZz.s:1445   .text.cau_aes_cfb:00000000000000a4 .LFE368
C:\Users\stapi\AppData\Local\Temp\ccbuaOZz.s:7557   .debug_loc:0000000000000bd5 .LLST29
C:\Users\stapi\AppData\Local\Temp\ccbuaOZz.s:7568   .debug_loc:0000000000000bf3 .LLST30
C:\Users\stapi\AppData\Local\Temp\ccbuaOZz.s:7579   .debug_loc:0000000000000c11 .LLST31
C:\Users\stapi\AppData\Local\Temp\ccbuaOZz.s:7601   .debug_loc:0000000000000c48 .LLST32
C:\Users\stapi\AppData\Local\Temp\ccbuaOZz.s:1357   .text.cau_aes_cfb:000000000000004e .LBB148
C:\Users\stapi\AppData\Local\Temp\ccbuaOZz.s:1363   .text.cau_aes_cfb:000000000000004e .LBE148
C:\Users\stapi\AppData\Local\Temp\ccbuaOZz.s:1372   .text.cau_aes_cfb:0000000000000056 .LBB150
C:\Users\stapi\AppData\Local\Temp\ccbuaOZz.s:1378   .text.cau_aes_cfb:0000000000000056 .LBE150
C:\Users\stapi\AppData\Local\Temp\ccbuaOZz.s:1387   .text.cau_aes_cfb:000000000000005e .LBB152
C:\Users\stapi\AppData\Local\Temp\ccbuaOZz.s:1393   .text.cau_aes_cfb:000000000000005e .LBE152
C:\Users\stapi\AppData\Local\Temp\ccbuaOZz.s:1402   .text.cau_aes_cfb:0000000000000066 .LBB154
C:\Users\stapi\AppData\Local\Temp\ccbuaOZz.s:1408   .text.cau_aes_cfb:0000000000000066 .LBE154
C:\Users\stapi\AppData\Local\Temp\ccbuaOZz.s:1333   .text.cau_aes_cfb:000000000000001a .LVL163
C:\Users\stapi\AppData\Local\Temp\ccbuaOZz.s:1340   .text.cau_aes_cfb:000000000000002e .LVL164
C:\Users\stapi\AppData\Local\Temp\ccbuaOZz.s:1346   .text.cau_aes_cfb:000000000000003c .LVL165
C:\Users\stapi\AppData\Local\Temp\ccbuaOZz.s:1350   .text.cau_aes_cfb:0000000000000046 .LVL166
C:\Users\stapi\AppData\Local\Temp\ccbuaOZz.s:1413   .text.cau_aes_cfb:0000000000000070 .LVL174
C:\Users\stapi\AppData\Local\Temp\ccbuaOZz.s:1416   .text.cau_aes_cfb:0000000000000078 .LVL175
C:\Users\stapi\AppData\Local\Temp\ccbuaOZz.s:1419   .text.cau_aes_cfb:0000000000000080 .LVL176
C:\Users\stapi\AppData\Local\Temp\ccbuaOZz.s:1426   .text.cau_aes_cfb:000000000000008e .LVL177
C:\Users\stapi\AppData\Local\Temp\ccbuaOZz.s:1431   .text.cau_aes_cfb:0000000000000098 .LVL179
C:\Users\stapi\AppData\Local\Temp\ccbuaOZz.s:8077   .debug_str:0000000000000571 .LASF78
C:\Users\stapi\AppData\Local\Temp\ccbuaOZz.s:1155   .text.cau_aes_ctr:0000000000000000 .LFB367
C:\Users\stapi\AppData\Local\Temp\ccbuaOZz.s:1296   .text.cau_aes_ctr:00000000000000a2 .LFE367
C:\Users\stapi\AppData\Local\Temp\ccbuaOZz.s:7626   .debug_loc:0000000000000c82 .LLST25
C:\Users\stapi\AppData\Local\Temp\ccbuaOZz.s:7637   .debug_loc:0000000000000ca0 .LLST26
C:\Users\stapi\AppData\Local\Temp\ccbuaOZz.s:7648   .debug_loc:0000000000000cbe .LLST27
C:\Users\stapi\AppData\Local\Temp\ccbuaOZz.s:7670   .debug_loc:0000000000000cf5 .LLST28
C:\Users\stapi\AppData\Local\Temp\ccbuaOZz.s:1208   .text.cau_aes_ctr:000000000000004c .LBB140
C:\Users\stapi\AppData\Local\Temp\ccbuaOZz.s:1214   .text.cau_aes_ctr:000000000000004c .LBE140
C:\Users\stapi\AppData\Local\Temp\ccbuaOZz.s:1223   .text.cau_aes_ctr:0000000000000054 .LBB142
C:\Users\stapi\AppData\Local\Temp\ccbuaOZz.s:1229   .text.cau_aes_ctr:0000000000000054 .LBE142
C:\Users\stapi\AppData\Local\Temp\ccbuaOZz.s:1238   .text.cau_aes_ctr:000000000000005c .LBB144
C:\Users\stapi\AppData\Local\Temp\ccbuaOZz.s:1244   .text.cau_aes_ctr:000000000000005c .LBE144
C:\Users\stapi\AppData\Local\Temp\ccbuaOZz.s:1253   .text.cau_aes_ctr:0000000000000064 .LBB146
C:\Users\stapi\AppData\Local\Temp\ccbuaOZz.s:1259   .text.cau_aes_ctr:0000000000000064 .LBE146
C:\Users\stapi\AppData\Local\Temp\ccbuaOZz.s:1185   .text.cau_aes_ctr:000000000000001a .LVL141
C:\Users\stapi\AppData\Local\Temp\ccbuaOZz.s:1191   .text.cau_aes_ctr:000000000000002c .LVL142
C:\Users\stapi\AppData\Local\Temp\ccbuaOZz.s:1197   .text.cau_aes_ctr:000000000000003a .LVL143
C:\Users\stapi\AppData\Local\Temp\ccbuaOZz.s:1201   .text.cau_aes_ctr:0000000000000044 .LVL144
C:\Users\stapi\AppData\Local\Temp\ccbuaOZz.s:1264   .text.cau_aes_ctr:000000000000006e .LVL152
C:\Users\stapi\AppData\Local\Temp\ccbuaOZz.s:1267   .text.cau_aes_ctr:0000000000000076 .LVL153
C:\Users\stapi\AppData\Local\Temp\ccbuaOZz.s:1270   .text.cau_aes_ctr:000000000000007e .LVL154
C:\Users\stapi\AppData\Local\Temp\ccbuaOZz.s:1277   .text.cau_aes_ctr:000000000000008c .LVL155
C:\Users\stapi\AppData\Local\Temp\ccbuaOZz.s:1282   .text.cau_aes_ctr:0000000000000096 .LVL157
C:\Users\stapi\AppData\Local\Temp\ccbuaOZz.s:8099   .debug_str:00000000000005f0 .LASF79
C:\Users\stapi\AppData\Local\Temp\ccbuaOZz.s:945    .text.cau_aes_cbc:0000000000000000 .LFB366
C:\Users\stapi\AppData\Local\Temp\ccbuaOZz.s:1148   .text.cau_aes_cbc:00000000000000ee .LFE366
C:\Users\stapi\AppData\Local\Temp\ccbuaOZz.s:7695   .debug_loc:0000000000000d2f .LLST20
C:\Users\stapi\AppData\Local\Temp\ccbuaOZz.s:7706   .debug_loc:0000000000000d4d .LLST21
C:\Users\stapi\AppData\Local\Temp\ccbuaOZz.s:7717   .debug_loc:0000000000000d6b .LLST22
C:\Users\stapi\AppData\Local\Temp\ccbuaOZz.s:7739   .debug_loc:0000000000000da3 .LLST23
C:\Users\stapi\AppData\Local\Temp\ccbuaOZz.s:7756   .debug_loc:0000000000000dce .LLST24
C:\Users\stapi\AppData\Local\Temp\ccbuaOZz.s:1010   .text.cau_aes_cbc:0000000000000056 .LBB132
C:\Users\stapi\AppData\Local\Temp\ccbuaOZz.s:1016   .text.cau_aes_cbc:0000000000000056 .LBE132
C:\Users\stapi\AppData\Local\Temp\ccbuaOZz.s:1025   .text.cau_aes_cbc:000000000000005e .LBB134
C:\Users\stapi\AppData\Local\Temp\ccbuaOZz.s:1031   .text.cau_aes_cbc:000000000000005e .LBE134
C:\Users\stapi\AppData\Local\Temp\ccbuaOZz.s:1040   .text.cau_aes_cbc:0000000000000066 .LBB136
C:\Users\stapi\AppData\Local\Temp\ccbuaOZz.s:1046   .text.cau_aes_cbc:0000000000000066 .LBE136
C:\Users\stapi\AppData\Local\Temp\ccbuaOZz.s:1055   .text.cau_aes_cbc:000000000000006e .LBB138
C:\Users\stapi\AppData\Local\Temp\ccbuaOZz.s:1061   .text.cau_aes_cbc:000000000000006e .LBE138
C:\Users\stapi\AppData\Local\Temp\ccbuaOZz.s:980    .text.cau_aes_cbc:000000000000001c .LVL112
C:\Users\stapi\AppData\Local\Temp\ccbuaOZz.s:986    .text.cau_aes_cbc:000000000000002a .LVL113
C:\Users\stapi\AppData\Local\Temp\ccbuaOZz.s:990    .text.cau_aes_cbc:0000000000000034 .LVL114
C:\Users\stapi\AppData\Local\Temp\ccbuaOZz.s:1003   .text.cau_aes_cbc:000000000000004e .LVL116
C:\Users\stapi\AppData\Local\Temp\ccbuaOZz.s:1066   .text.cau_aes_cbc:0000000000000078 .LVL124
C:\Users\stapi\AppData\Local\Temp\ccbuaOZz.s:1069   .text.cau_aes_cbc:0000000000000080 .LVL125
C:\Users\stapi\AppData\Local\Temp\ccbuaOZz.s:1072   .text.cau_aes_cbc:0000000000000088 .LVL126
C:\Users\stapi\AppData\Local\Temp\ccbuaOZz.s:1079   .text.cau_aes_cbc:0000000000000096 .LVL127
C:\Users\stapi\AppData\Local\Temp\ccbuaOZz.s:1084   .text.cau_aes_cbc:00000000000000a0 .LVL129
C:\Users\stapi\AppData\Local\Temp\ccbuaOZz.s:1106   .text.cau_aes_cbc:00000000000000b4 .LVL132
C:\Users\stapi\AppData\Local\Temp\ccbuaOZz.s:1112   .text.cau_aes_cbc:00000000000000c4 .LVL133
C:\Users\stapi\AppData\Local\Temp\ccbuaOZz.s:1118   .text.cau_aes_cbc:00000000000000ce .LVL134
C:\Users\stapi\AppData\Local\Temp\ccbuaOZz.s:1125   .text.cau_aes_cbc:00000000000000d8 .LVL135
C:\Users\stapi\AppData\Local\Temp\ccbuaOZz.s:8107   .debug_str:000000000000061a .LASF80
C:\Users\stapi\AppData\Local\Temp\ccbuaOZz.s:804    .text.cau_aes_ecb:0000000000000000 .LFB365
C:\Users\stapi\AppData\Local\Temp\ccbuaOZz.s:938    .text.cau_aes_ecb:00000000000000c2 .LFE365
C:\Users\stapi\AppData\Local\Temp\ccbuaOZz.s:7785   .debug_loc:0000000000000e13 .LLST16
C:\Users\stapi\AppData\Local\Temp\ccbuaOZz.s:7796   .debug_loc:0000000000000e31 .LLST17
C:\Users\stapi\AppData\Local\Temp\ccbuaOZz.s:7807   .debug_loc:0000000000000e4f .LLST18
C:\Users\stapi\AppData\Local\Temp\ccbuaOZz.s:7829   .debug_loc:0000000000000e86 .LLST19
C:\Users\stapi\AppData\Local\Temp\ccbuaOZz.s:834    .text.cau_aes_ecb:000000000000001a .LVL91
C:\Users\stapi\AppData\Local\Temp\ccbuaOZz.s:840    .text.cau_aes_ecb:0000000000000028 .LVL92
C:\Users\stapi\AppData\Local\Temp\ccbuaOZz.s:844    .text.cau_aes_ecb:0000000000000032 .LVL93
C:\Users\stapi\AppData\Local\Temp\ccbuaOZz.s:857    .text.cau_aes_ecb:000000000000004c .LVL95
C:\Users\stapi\AppData\Local\Temp\ccbuaOZz.s:860    .text.cau_aes_ecb:0000000000000054 .LVL96
C:\Users\stapi\AppData\Local\Temp\ccbuaOZz.s:863    .text.cau_aes_ecb:000000000000005c .LVL97
C:\Users\stapi\AppData\Local\Temp\ccbuaOZz.s:870    .text.cau_aes_ecb:000000000000006a .LVL98
C:\Users\stapi\AppData\Local\Temp\ccbuaOZz.s:875    .text.cau_aes_ecb:0000000000000074 .LVL100
C:\Users\stapi\AppData\Local\Temp\ccbuaOZz.s:896    .text.cau_aes_ecb:0000000000000088 .LVL103
C:\Users\stapi\AppData\Local\Temp\ccbuaOZz.s:902    .text.cau_aes_ecb:0000000000000098 .LVL104
C:\Users\stapi\AppData\Local\Temp\ccbuaOZz.s:908    .text.cau_aes_ecb:00000000000000a2 .LVL105
C:\Users\stapi\AppData\Local\Temp\ccbuaOZz.s:915    .text.cau_aes_ecb:00000000000000ac .LVL106
C:\Users\stapi\AppData\Local\Temp\ccbuaOZz.s:7975   .debug_str:00000000000001de .LASF102
C:\Users\stapi\AppData\Local\Temp\ccbuaOZz.s:7965   .debug_str:00000000000001ad .LASF103
C:\Users\stapi\AppData\Local\Temp\ccbuaOZz.s:7919   .debug_str:0000000000000000 .LASF104
C:\Users\stapi\AppData\Local\Temp\ccbuaOZz.s:7969   .debug_str:00000000000001c4 .LASF86
C:\Users\stapi\AppData\Local\Temp\ccbuaOZz.s:7923   .debug_str:000000000000001c .LASF88
C:\Users\stapi\AppData\Local\Temp\ccbuaOZz.s:7921   .debug_str:0000000000000007 .LASF81
C:\Users\stapi\AppData\Local\Temp\ccbuaOZz.s:8011   .debug_str:0000000000000383 .LASF82
C:\Users\stapi\AppData\Local\Temp\ccbuaOZz.s:8095   .debug_str:00000000000005d8 .LASF83
C:\Users\stapi\AppData\Local\Temp\ccbuaOZz.s:8103   .debug_str:0000000000000603 .LASF84
C:\Users\stapi\AppData\Local\Temp\ccbuaOZz.s:8121   .debug_str:0000000000000670 .LASF85
C:\Users\stapi\AppData\Local\Temp\ccbuaOZz.s:7995   .debug_str:0000000000000337 .LASF87
C:\Users\stapi\AppData\Local\Temp\ccbuaOZz.s:7967   .debug_str:00000000000001b3 .LASF89
C:\Users\stapi\AppData\Local\Temp\ccbuaOZz.s:7941   .debug_str:0000000000000120 .LASF90
C:\Users\stapi\AppData\Local\Temp\ccbuaOZz.s:7985   .debug_str:000000000000020f .LASF91
C:\Users\stapi\AppData\Local\Temp\ccbuaOZz.s:7933   .debug_str:000000000000005e .LASF92
C:\Users\stapi\AppData\Local\Temp\ccbuaOZz.s:7987   .debug_str:000000000000021b .LASF93
C:\Users\stapi\AppData\Local\Temp\ccbuaOZz.s:7929   .debug_str:0000000000000044 .LASF94
C:\Users\stapi\AppData\Local\Temp\ccbuaOZz.s:7927   .debug_str:0000000000000037 .LASF95
C:\Users\stapi\AppData\Local\Temp\ccbuaOZz.s:7993   .debug_str:000000000000032b .LASF96
C:\Users\stapi\AppData\Local\Temp\ccbuaOZz.s:8057   .debug_str:0000000000000488 .LASF97
C:\Users\stapi\AppData\Local\Temp\ccbuaOZz.s:552    .text.cau_aes_calculate:0000000000000000 .LVL61
C:\Users\stapi\AppData\Local\Temp\ccbuaOZz.s:613    .text.cau_aes_calculate:0000000000000040 .LVL65
C:\Users\stapi\AppData\Local\Temp\ccbuaOZz.s:574    .text.cau_aes_calculate:000000000000000e .LVL62
C:\Users\stapi\AppData\Local\Temp\ccbuaOZz.s:702    .text.cau_aes_calculate:00000000000000be .LVL74
C:\Users\stapi\AppData\Local\Temp\ccbuaOZz.s:737    .text.cau_aes_calculate:00000000000000ea .LVL78
C:\Users\stapi\AppData\Local\Temp\ccbuaOZz.s:745    .text.cau_aes_calculate:00000000000000f4 .LVL80
C:\Users\stapi\AppData\Local\Temp\ccbuaOZz.s:753    .text.cau_aes_calculate:00000000000000fe .LVL82
C:\Users\stapi\AppData\Local\Temp\ccbuaOZz.s:765    .text.cau_aes_calculate:0000000000000110 .LVL84
C:\Users\stapi\AppData\Local\Temp\ccbuaOZz.s:773    .text.cau_aes_calculate:0000000000000114 .LVL86
C:\Users\stapi\AppData\Local\Temp\ccbuaOZz.s:633    .text.cau_aes_calculate:0000000000000056 .LVL67
C:\Users\stapi\AppData\Local\Temp\ccbuaOZz.s:768    .text.cau_aes_calculate:0000000000000112 .LVL85
C:\Users\stapi\AppData\Local\Temp\ccbuaOZz.s:583    .text.cau_aes_calculate:0000000000000012 .LVL63
C:\Users\stapi\AppData\Local\Temp\ccbuaOZz.s:320    .text.cau_fill_data:0000000000000000 .LVL40
C:\Users\stapi\AppData\Local\Temp\ccbuaOZz.s:379    .text.cau_fill_data:0000000000000040 .LVL44
C:\Users\stapi\AppData\Local\Temp\ccbuaOZz.s:342    .text.cau_fill_data:000000000000000c .LVL41
C:\Users\stapi\AppData\Local\Temp\ccbuaOZz.s:390    .text.cau_fill_data:0000000000000048 .LVL45
C:\Users\stapi\AppData\Local\Temp\ccbuaOZz.s:433    .text.cau_fill_data:000000000000006c .LVL48
C:\Users\stapi\AppData\Local\Temp\ccbuaOZz.s:526    .text.cau_fill_data:00000000000000f2 .LVL57
C:\Users\stapi\AppData\Local\Temp\ccbuaOZz.s:535    .text.cau_fill_data:0000000000000102 .LVL59
C:\Users\stapi\AppData\Local\Temp\ccbuaOZz.s:412    .text.cau_fill_data:0000000000000062 .LVL47
C:\Users\stapi\AppData\Local\Temp\ccbuaOZz.s:507    .text.cau_fill_data:00000000000000d2 .LVL53
C:\Users\stapi\AppData\Local\Temp\ccbuaOZz.s:350    .text.cau_fill_data:0000000000000010 .LVL42
C:\Users\stapi\AppData\Local\Temp\ccbuaOZz.s:540    .text.cau_fill_data:0000000000000106 .LVL60
C:\Users\stapi\AppData\Local\Temp\ccbuaOZz.s:17     .text.cau_aes_key_config:0000000000000000 .LVL0
C:\Users\stapi\AppData\Local\Temp\ccbuaOZz.s:38     .text.cau_aes_key_config:0000000000000026 .LVL2
C:\Users\stapi\AppData\Local\Temp\ccbuaOZz.s:111    .text.cau_aes_key_config:0000000000000056 .LVL12
C:\Users\stapi\AppData\Local\Temp\ccbuaOZz.s:196    .text.cau_aes_key_config:000000000000008e .LVL24
C:\Users\stapi\AppData\Local\Temp\ccbuaOZz.s:24     .text.cau_aes_key_config:0000000000000008 .LVL1
C:\Users\stapi\AppData\Local\Temp\ccbuaOZz.s:56     .text.cau_aes_key_config:0000000000000036 .LVL5
C:\Users\stapi\AppData\Local\Temp\ccbuaOZz.s:71     .text.cau_aes_key_config:000000000000003e .LVL7
C:\Users\stapi\AppData\Local\Temp\ccbuaOZz.s:86     .text.cau_aes_key_config:0000000000000046 .LVL9
C:\Users\stapi\AppData\Local\Temp\ccbuaOZz.s:89     .text.cau_aes_key_config:0000000000000048 .LVL10
C:\Users\stapi\AppData\Local\Temp\ccbuaOZz.s:132    .text.cau_aes_key_config:000000000000006a .LVL15
C:\Users\stapi\AppData\Local\Temp\ccbuaOZz.s:147    .text.cau_aes_key_config:0000000000000072 .LVL17
C:\Users\stapi\AppData\Local\Temp\ccbuaOZz.s:162    .text.cau_aes_key_config:000000000000007a .LVL19
C:\Users\stapi\AppData\Local\Temp\ccbuaOZz.s:177    .text.cau_aes_key_config:0000000000000082 .LVL21
C:\Users\stapi\AppData\Local\Temp\ccbuaOZz.s:192    .text.cau_aes_key_config:000000000000008a .LVL23
C:\Users\stapi\AppData\Local\Temp\ccbuaOZz.s:216    .text.cau_aes_key_config:00000000000000a2 .LVL27
C:\Users\stapi\AppData\Local\Temp\ccbuaOZz.s:231    .text.cau_aes_key_config:00000000000000aa .LVL29
C:\Users\stapi\AppData\Local\Temp\ccbuaOZz.s:246    .text.cau_aes_key_config:00000000000000b2 .LVL31
C:\Users\stapi\AppData\Local\Temp\ccbuaOZz.s:261    .text.cau_aes_key_config:00000000000000ba .LVL33
C:\Users\stapi\AppData\Local\Temp\ccbuaOZz.s:276    .text.cau_aes_key_config:00000000000000c2 .LVL35
C:\Users\stapi\AppData\Local\Temp\ccbuaOZz.s:291    .text.cau_aes_key_config:00000000000000ca .LVL37
C:\Users\stapi\AppData\Local\Temp\ccbuaOZz.s:306    .text.cau_aes_key_config:00000000000000d2 .LVL39
C:\Users\stapi\AppData\Local\Temp\ccbuaOZz.s:1955   .text.cau_aes_ccm:0000000000000000 .LVL258
C:\Users\stapi\AppData\Local\Temp\ccbuaOZz.s:2063   .text.cau_aes_ccm:0000000000000064 .LVL269
C:\Users\stapi\AppData\Local\Temp\ccbuaOZz.s:2191   .text.cau_aes_ccm:0000000000000114 .LVL285
C:\Users\stapi\AppData\Local\Temp\ccbuaOZz.s:2234   .text.cau_aes_ccm:0000000000000146 .LVL293
C:\Users\stapi\AppData\Local\Temp\ccbuaOZz.s:1993   .text.cau_aes_ccm:0000000000000028 .LVL259
C:\Users\stapi\AppData\Local\Temp\ccbuaOZz.s:2040   .text.cau_aes_ccm:0000000000000050 .LVL264
C:\Users\stapi\AppData\Local\Temp\ccbuaOZz.s:2229   .text.cau_aes_ccm:0000000000000140 .LVL292
C:\Users\stapi\AppData\Local\Temp\ccbuaOZz.s:2028   .text.cau_aes_ccm:000000000000003e .LVL262
C:\Users\stapi\AppData\Local\Temp\ccbuaOZz.s:2035   .text.cau_aes_ccm:0000000000000048 .LVL263
C:\Users\stapi\AppData\Local\Temp\ccbuaOZz.s:2117   .text.cau_aes_ccm:00000000000000b6 .LVL276
C:\Users\stapi\AppData\Local\Temp\ccbuaOZz.s:2005   .text.cau_aes_ccm:0000000000000034 .LVL260
C:\Users\stapi\AppData\Local\Temp\ccbuaOZz.s:2259   .text.cau_aes_ccm:0000000000000154 .LVL294
C:\Users\stapi\AppData\Local\Temp\ccbuaOZz.s:2458   .text.cau_aes_ccm:0000000000000284 .LVL326
C:\Users\stapi\AppData\Local\Temp\ccbuaOZz.s:2009   .text.cau_aes_ccm:0000000000000038 .LVL261
C:\Users\stapi\AppData\Local\Temp\ccbuaOZz.s:2467   .text.cau_aes_ccm:000000000000028c .LVL328
C:\Users\stapi\AppData\Local\Temp\ccbuaOZz.s:2576   .text.cau_aes_ccm:000000000000034c .LVL348
C:\Users\stapi\AppData\Local\Temp\ccbuaOZz.s:2580   .text.cau_aes_ccm:0000000000000352 .LVL349
C:\Users\stapi\AppData\Local\Temp\ccbuaOZz.s:2099   .text.cau_aes_ccm:000000000000009e .LVL272
C:\Users\stapi\AppData\Local\Temp\ccbuaOZz.s:2112   .text.cau_aes_ccm:00000000000000b2 .LVL275
C:\Users\stapi\AppData\Local\Temp\ccbuaOZz.s:2054   .text.cau_aes_ccm:0000000000000060 .LVL267
C:\Users\stapi\AppData\Local\Temp\ccbuaOZz.s:2225   .text.cau_aes_ccm:000000000000013c .LVL291
C:\Users\stapi\AppData\Local\Temp\ccbuaOZz.s:2105   .text.cau_aes_ccm:00000000000000ac .LVL274
C:\Users\stapi\AppData\Local\Temp\ccbuaOZz.s:2168   .text.cau_aes_ccm:00000000000000fe .LVL280
C:\Users\stapi\AppData\Local\Temp\ccbuaOZz.s:2177   .text.cau_aes_ccm:0000000000000106 .LVL281
C:\Users\stapi\AppData\Local\Temp\ccbuaOZz.s:2188   .text.cau_aes_ccm:0000000000000112 .LVL284
C:\Users\stapi\AppData\Local\Temp\ccbuaOZz.s:2304   .text.cau_aes_ccm:0000000000000190 .LVL300
C:\Users\stapi\AppData\Local\Temp\ccbuaOZz.s:2567   .text.cau_aes_ccm:0000000000000342 .LVL347
C:\Users\stapi\AppData\Local\Temp\ccbuaOZz.s:2589   .text.cau_aes_ccm:0000000000000360 .LVL350
C:\Users\stapi\AppData\Local\Temp\ccbuaOZz.s:2595   .text.cau_aes_ccm:0000000000000368 .LVL351
C:\Users\stapi\AppData\Local\Temp\ccbuaOZz.s:2158   .text.cau_aes_ccm:00000000000000f2 .LVL278
C:\Users\stapi\AppData\Local\Temp\ccbuaOZz.s:2164   .text.cau_aes_ccm:00000000000000fa .LVL279
C:\Users\stapi\AppData\Local\Temp\ccbuaOZz.s:2269   .text.cau_aes_ccm:0000000000000160 .LVL295
C:\Users\stapi\AppData\Local\Temp\ccbuaOZz.s:2273   .text.cau_aes_ccm:0000000000000162 .LVL296
C:\Users\stapi\AppData\Local\Temp\ccbuaOZz.s:2291   .text.cau_aes_ccm:0000000000000180 .LVL299
C:\Users\stapi\AppData\Local\Temp\ccbuaOZz.s:2044   .text.cau_aes_ccm:0000000000000054 .LVL265
C:\Users\stapi\AppData\Local\Temp\ccbuaOZz.s:2050   .text.cau_aes_ccm:000000000000005c .LVL266
C:\Users\stapi\AppData\Local\Temp\ccbuaOZz.s:2057   .text.cau_aes_ccm:0000000000000062 .LVL268
C:\Users\stapi\AppData\Local\Temp\ccbuaOZz.s:2076   .text.cau_aes_ccm:0000000000000078 .LVL270
C:\Users\stapi\AppData\Local\Temp\ccbuaOZz.s:2092   .text.cau_aes_ccm:000000000000008e .LVL271
C:\Users\stapi\AppData\Local\Temp\ccbuaOZz.s:2198   .text.cau_aes_ccm:000000000000011a .LVL286
C:\Users\stapi\AppData\Local\Temp\ccbuaOZz.s:2203   .text.cau_aes_ccm:0000000000000120 .LVL287
C:\Users\stapi\AppData\Local\Temp\ccbuaOZz.s:2209   .text.cau_aes_ccm:0000000000000128 .LVL288
C:\Users\stapi\AppData\Local\Temp\ccbuaOZz.s:2217   .text.cau_aes_ccm:0000000000000134 .LVL289
C:\Users\stapi\AppData\Local\Temp\ccbuaOZz.s:2221   .text.cau_aes_ccm:0000000000000138 .LVL290
C:\Users\stapi\AppData\Local\Temp\ccbuaOZz.s:2363   .text.cau_aes_ccm:0000000000000206 .LVL310
C:\Users\stapi\AppData\Local\Temp\ccbuaOZz.s:2378   .text.cau_aes_ccm:000000000000020e .LVL312
C:\Users\stapi\AppData\Local\Temp\ccbuaOZz.s:2393   .text.cau_aes_ccm:0000000000000216 .LVL314
C:\Users\stapi\AppData\Local\Temp\ccbuaOZz.s:2506   .text.cau_aes_ccm:00000000000002d8 .LVL336
C:\Users\stapi\AppData\Local\Temp\ccbuaOZz.s:2180   .text.cau_aes_ccm:0000000000000108 .LVL282
C:\Users\stapi\AppData\Local\Temp\ccbuaOZz.s:2182   .text.cau_aes_ccm:000000000000010a .LVL283
C:\Users\stapi\AppData\Local\Temp\ccbuaOZz.s:2279   .text.cau_aes_ccm:000000000000016e .LVL297
C:\Users\stapi\AppData\Local\Temp\ccbuaOZz.s:1604   .text.cau_aes_gcm:0000000000000000 .LVL203
C:\Users\stapi\AppData\Local\Temp\ccbuaOZz.s:1637   .text.cau_aes_gcm:0000000000000018 .LVL207
C:\Users\stapi\AppData\Local\Temp\ccbuaOZz.s:1774   .text.cau_aes_gcm:00000000000000ca .LVL230
C:\Users\stapi\AppData\Local\Temp\ccbuaOZz.s:1790   .text.cau_aes_gcm:00000000000000d6 .LVL231
C:\Users\stapi\AppData\Local\Temp\ccbuaOZz.s:1847   .text.cau_aes_gcm:0000000000000142 .LVL243
C:\Users\stapi\AppData\Local\Temp\ccbuaOZz.s:1615   .text.cau_aes_gcm:0000000000000008 .LVL204
C:\Users\stapi\AppData\Local\Temp\ccbuaOZz.s:1767   .text.cau_aes_gcm:00000000000000c6 .LVL229
C:\Users\stapi\AppData\Local\Temp\ccbuaOZz.s:1628   .text.cau_aes_gcm:0000000000000012 .LVL205
C:\Users\stapi\AppData\Local\Temp\ccbuaOZz.s:1844   .text.cau_aes_gcm:000000000000013e .LVL242
C:\Users\stapi\AppData\Local\Temp\ccbuaOZz.s:1632   .text.cau_aes_gcm:0000000000000016 .LVL206
C:\Users\stapi\AppData\Local\Temp\ccbuaOZz.s:1856   .text.cau_aes_gcm:0000000000000154 .LVL245
C:\Users\stapi\AppData\Local\Temp\ccbuaOZz.s:1677   .text.cau_aes_gcm:0000000000000058 .LVL214
C:\Users\stapi\AppData\Local\Temp\ccbuaOZz.s:1692   .text.cau_aes_gcm:0000000000000060 .LVL216
C:\Users\stapi\AppData\Local\Temp\ccbuaOZz.s:1707   .text.cau_aes_gcm:0000000000000068 .LVL218
C:\Users\stapi\AppData\Local\Temp\ccbuaOZz.s:1712   .text.cau_aes_gcm:000000000000006c .LVL219
C:\Users\stapi\AppData\Local\Temp\ccbuaOZz.s:1641   .text.cau_aes_gcm:000000000000001c .LVL208
C:\Users\stapi\AppData\Local\Temp\ccbuaOZz.s:1913   .text.cau_aes_gcm:0000000000000180 .LVL250
C:\Users\stapi\AppData\Local\Temp\ccbuaOZz.s:1921   .text.cau_aes_gcm:000000000000018c .LVL252
C:\Users\stapi\AppData\Local\Temp\ccbuaOZz.s:1929   .text.cau_aes_gcm:0000000000000198 .LVL254
C:\Users\stapi\AppData\Local\Temp\ccbuaOZz.s:1937   .text.cau_aes_gcm:00000000000001a4 .LVL256
C:\Users\stapi\AppData\Local\Temp\ccbuaOZz.s:1455   .text.cau_aes_ofb:0000000000000000 .LVL181
C:\Users\stapi\AppData\Local\Temp\ccbuaOZz.s:1477   .text.cau_aes_ofb:0000000000000010 .LVL184
C:\Users\stapi\AppData\Local\Temp\ccbuaOZz.s:1463   .text.cau_aes_ofb:0000000000000008 .LVL182
C:\Users\stapi\AppData\Local\Temp\ccbuaOZz.s:1577   .text.cau_aes_ofb:0000000000000090 .LVL200
C:\Users\stapi\AppData\Local\Temp\ccbuaOZz.s:1586   .text.cau_aes_ofb:000000000000009c .LVL202
C:\Users\stapi\AppData\Local\Temp\ccbuaOZz.s:1474   .text.cau_aes_ofb:000000000000000e .LVL183
C:\Users\stapi\AppData\Local\Temp\ccbuaOZz.s:1516   .text.cau_aes_ofb:0000000000000050 .LVL190
C:\Users\stapi\AppData\Local\Temp\ccbuaOZz.s:1531   .text.cau_aes_ofb:0000000000000058 .LVL192
C:\Users\stapi\AppData\Local\Temp\ccbuaOZz.s:1546   .text.cau_aes_ofb:0000000000000060 .LVL194
C:\Users\stapi\AppData\Local\Temp\ccbuaOZz.s:1306   .text.cau_aes_cfb:0000000000000000 .LVL159
C:\Users\stapi\AppData\Local\Temp\ccbuaOZz.s:1328   .text.cau_aes_cfb:0000000000000010 .LVL162
C:\Users\stapi\AppData\Local\Temp\ccbuaOZz.s:1314   .text.cau_aes_cfb:0000000000000008 .LVL160
C:\Users\stapi\AppData\Local\Temp\ccbuaOZz.s:1428   .text.cau_aes_cfb:0000000000000090 .LVL178
C:\Users\stapi\AppData\Local\Temp\ccbuaOZz.s:1437   .text.cau_aes_cfb:000000000000009c .LVL180
C:\Users\stapi\AppData\Local\Temp\ccbuaOZz.s:1325   .text.cau_aes_cfb:000000000000000e .LVL161
C:\Users\stapi\AppData\Local\Temp\ccbuaOZz.s:1367   .text.cau_aes_cfb:0000000000000050 .LVL168
C:\Users\stapi\AppData\Local\Temp\ccbuaOZz.s:1382   .text.cau_aes_cfb:0000000000000058 .LVL170
C:\Users\stapi\AppData\Local\Temp\ccbuaOZz.s:1397   .text.cau_aes_cfb:0000000000000060 .LVL172
C:\Users\stapi\AppData\Local\Temp\ccbuaOZz.s:1158   .text.cau_aes_ctr:0000000000000000 .LVL137
C:\Users\stapi\AppData\Local\Temp\ccbuaOZz.s:1180   .text.cau_aes_ctr:0000000000000010 .LVL140
C:\Users\stapi\AppData\Local\Temp\ccbuaOZz.s:1166   .text.cau_aes_ctr:0000000000000008 .LVL138
C:\Users\stapi\AppData\Local\Temp\ccbuaOZz.s:1279   .text.cau_aes_ctr:000000000000008e .LVL156
C:\Users\stapi\AppData\Local\Temp\ccbuaOZz.s:1288   .text.cau_aes_ctr:000000000000009a .LVL158
C:\Users\stapi\AppData\Local\Temp\ccbuaOZz.s:1177   .text.cau_aes_ctr:000000000000000e .LVL139
C:\Users\stapi\AppData\Local\Temp\ccbuaOZz.s:1218   .text.cau_aes_ctr:000000000000004e .LVL146
C:\Users\stapi\AppData\Local\Temp\ccbuaOZz.s:1233   .text.cau_aes_ctr:0000000000000056 .LVL148
C:\Users\stapi\AppData\Local\Temp\ccbuaOZz.s:1248   .text.cau_aes_ctr:000000000000005e .LVL150
C:\Users\stapi\AppData\Local\Temp\ccbuaOZz.s:948    .text.cau_aes_cbc:0000000000000000 .LVL108
C:\Users\stapi\AppData\Local\Temp\ccbuaOZz.s:970    .text.cau_aes_cbc:0000000000000010 .LVL110
C:\Users\stapi\AppData\Local\Temp\ccbuaOZz.s:957    .text.cau_aes_cbc:0000000000000008 .LVL109
C:\Users\stapi\AppData\Local\Temp\ccbuaOZz.s:1081   .text.cau_aes_cbc:0000000000000098 .LVL128
C:\Users\stapi\AppData\Local\Temp\ccbuaOZz.s:1088   .text.cau_aes_cbc:00000000000000a2 .LVL130
C:\Users\stapi\AppData\Local\Temp\ccbuaOZz.s:1101   .text.cau_aes_cbc:00000000000000ac .LVL131
C:\Users\stapi\AppData\Local\Temp\ccbuaOZz.s:976    .text.cau_aes_cbc:0000000000000014 .LVL111
C:\Users\stapi\AppData\Local\Temp\ccbuaOZz.s:996    .text.cau_aes_cbc:000000000000003c .LVL115
C:\Users\stapi\AppData\Local\Temp\ccbuaOZz.s:1145   .text.cau_aes_cbc:00000000000000ec .LVL136
C:\Users\stapi\AppData\Local\Temp\ccbuaOZz.s:1020   .text.cau_aes_cbc:0000000000000058 .LVL118
C:\Users\stapi\AppData\Local\Temp\ccbuaOZz.s:1035   .text.cau_aes_cbc:0000000000000060 .LVL120
C:\Users\stapi\AppData\Local\Temp\ccbuaOZz.s:1050   .text.cau_aes_cbc:0000000000000068 .LVL122
C:\Users\stapi\AppData\Local\Temp\ccbuaOZz.s:807    .text.cau_aes_ecb:0000000000000000 .LVL87
C:\Users\stapi\AppData\Local\Temp\ccbuaOZz.s:825    .text.cau_aes_ecb:000000000000000e .LVL89
C:\Users\stapi\AppData\Local\Temp\ccbuaOZz.s:815    .text.cau_aes_ecb:0000000000000008 .LVL88
C:\Users\stapi\AppData\Local\Temp\ccbuaOZz.s:872    .text.cau_aes_ecb:000000000000006c .LVL99
C:\Users\stapi\AppData\Local\Temp\ccbuaOZz.s:879    .text.cau_aes_ecb:0000000000000076 .LVL101
C:\Users\stapi\AppData\Local\Temp\ccbuaOZz.s:891    .text.cau_aes_ecb:0000000000000080 .LVL102
C:\Users\stapi\AppData\Local\Temp\ccbuaOZz.s:831    .text.cau_aes_ecb:0000000000000012 .LVL90
C:\Users\stapi\AppData\Local\Temp\ccbuaOZz.s:850    .text.cau_aes_ecb:000000000000003a .LVL94
C:\Users\stapi\AppData\Local\Temp\ccbuaOZz.s:935    .text.cau_aes_ecb:00000000000000c0 .LVL107
C:\Users\stapi\AppData\Local\Temp\ccbuaOZz.s:2608   .debug_info:0000000000000000 .Ldebug_info0
C:\Users\stapi\AppData\Local\Temp\ccbuaOZz.s:358    .text.cau_fill_data:000000000000001c .LBB126
C:\Users\stapi\AppData\Local\Temp\ccbuaOZz.s:363    .text.cau_fill_data:0000000000000026 .LBE126
C:\Users\stapi\AppData\Local\Temp\ccbuaOZz.s:366    .text.cau_fill_data:0000000000000028 .LBB127
C:\Users\stapi\AppData\Local\Temp\ccbuaOZz.s:381    .text.cau_fill_data:0000000000000040 .LBE127
C:\Users\stapi\AppData\Local\Temp\ccbuaOZz.s:449    .text.cau_fill_data:0000000000000080 .LBB128
C:\Users\stapi\AppData\Local\Temp\ccbuaOZz.s:502    .text.cau_fill_data:00000000000000ce .LBE128
C:\Users\stapi\AppData\Local\Temp\ccbuaOZz.s:591    .text.cau_aes_calculate:000000000000001e .LBB129
C:\Users\stapi\AppData\Local\Temp\ccbuaOZz.s:596    .text.cau_aes_calculate:0000000000000028 .LBE129
C:\Users\stapi\AppData\Local\Temp\ccbuaOZz.s:599    .text.cau_aes_calculate:000000000000002a .LBB130
C:\Users\stapi\AppData\Local\Temp\ccbuaOZz.s:610    .text.cau_aes_calculate:000000000000003e .LBE130
C:\Users\stapi\AppData\Local\Temp\ccbuaOZz.s:636    .text.cau_aes_calculate:000000000000005a .LBB131
C:\Users\stapi\AppData\Local\Temp\ccbuaOZz.s:682    .text.cau_aes_calculate:000000000000009c .LBE131

UNDEFINED SYMBOLS
__riscv_save_2
cau_aes_keysize_config
__riscv_restore_2
__riscv_save_12
cau_enable_state_get
cau_flag_get
__riscv_restore_12
memcpy
cau_data_write
cau_data_read
__riscv_save_3
cau_key_struct_para_init
cau_key_init
cau_init
cau_fifo_flush
cau_enable
cau_disable
__riscv_restore_3
__riscv_save_4
cau_iv_init
__riscv_restore_4
__riscv_save_6
cau_phase_config
__riscv_restore_6
memset
