   1              		.file	"altcp.c"
   2              		.option nopic
   3              		.attribute arch, "rv32i2p0_m2p0_a2p0_f2p0_c2p0_b_p0p94"
   4              		.attribute unaligned_access, 0
   5              		.attribute stack_align, 16
   6              		.text
   7              	.Ltext0:
   8              		.cfi_sections	.debug_frame
   9              		.section	.text.altcp_alloc,"ax",@progbits
  10              		.align	1
  11              		.globl	altcp_alloc
  13              	altcp_alloc:
  14              	.LFB4:
  15              		.file 1 "C:/Users/stapi/OneDrive/Desktop/GD32VW553/GD32VW55X_Wifi_BLE_SDK/GD32VW55x_RELEASE_V1.0.2
   1:C:/Users/stapi/OneDrive/Desktop/GD32VW553/GD32VW55X_Wifi_BLE_SDK/GD32VW55x_RELEASE_V1.0.2/MSDK/lwip/lwip-2.1.2/src/core\altcp.c **** /**
   2:C:/Users/stapi/OneDrive/Desktop/GD32VW553/GD32VW55X_Wifi_BLE_SDK/GD32VW55x_RELEASE_V1.0.2/MSDK/lwip/lwip-2.1.2/src/core\altcp.c ****  * @file
   3:C:/Users/stapi/OneDrive/Desktop/GD32VW553/GD32VW55X_Wifi_BLE_SDK/GD32VW55x_RELEASE_V1.0.2/MSDK/lwip/lwip-2.1.2/src/core\altcp.c ****  * @defgroup altcp Application layered TCP Functions
   4:C:/Users/stapi/OneDrive/Desktop/GD32VW553/GD32VW55X_Wifi_BLE_SDK/GD32VW55x_RELEASE_V1.0.2/MSDK/lwip/lwip-2.1.2/src/core\altcp.c ****  * @ingroup altcp_api
   5:C:/Users/stapi/OneDrive/Desktop/GD32VW553/GD32VW55X_Wifi_BLE_SDK/GD32VW55x_RELEASE_V1.0.2/MSDK/lwip/lwip-2.1.2/src/core\altcp.c ****  *
   6:C:/Users/stapi/OneDrive/Desktop/GD32VW553/GD32VW55X_Wifi_BLE_SDK/GD32VW55x_RELEASE_V1.0.2/MSDK/lwip/lwip-2.1.2/src/core\altcp.c ****  * This file contains the common functions for altcp to work.
   7:C:/Users/stapi/OneDrive/Desktop/GD32VW553/GD32VW55X_Wifi_BLE_SDK/GD32VW55x_RELEASE_V1.0.2/MSDK/lwip/lwip-2.1.2/src/core\altcp.c ****  * For more details see @ref altcp_api.
   8:C:/Users/stapi/OneDrive/Desktop/GD32VW553/GD32VW55X_Wifi_BLE_SDK/GD32VW55x_RELEASE_V1.0.2/MSDK/lwip/lwip-2.1.2/src/core\altcp.c ****  */
   9:C:/Users/stapi/OneDrive/Desktop/GD32VW553/GD32VW55X_Wifi_BLE_SDK/GD32VW55x_RELEASE_V1.0.2/MSDK/lwip/lwip-2.1.2/src/core\altcp.c **** 
  10:C:/Users/stapi/OneDrive/Desktop/GD32VW553/GD32VW55X_Wifi_BLE_SDK/GD32VW55x_RELEASE_V1.0.2/MSDK/lwip/lwip-2.1.2/src/core\altcp.c **** /**
  11:C:/Users/stapi/OneDrive/Desktop/GD32VW553/GD32VW55X_Wifi_BLE_SDK/GD32VW55x_RELEASE_V1.0.2/MSDK/lwip/lwip-2.1.2/src/core\altcp.c ****  * @defgroup altcp_api Application layered TCP Introduction
  12:C:/Users/stapi/OneDrive/Desktop/GD32VW553/GD32VW55X_Wifi_BLE_SDK/GD32VW55x_RELEASE_V1.0.2/MSDK/lwip/lwip-2.1.2/src/core\altcp.c ****  * @ingroup callbackstyle_api
  13:C:/Users/stapi/OneDrive/Desktop/GD32VW553/GD32VW55X_Wifi_BLE_SDK/GD32VW55x_RELEASE_V1.0.2/MSDK/lwip/lwip-2.1.2/src/core\altcp.c ****  *
  14:C:/Users/stapi/OneDrive/Desktop/GD32VW553/GD32VW55X_Wifi_BLE_SDK/GD32VW55x_RELEASE_V1.0.2/MSDK/lwip/lwip-2.1.2/src/core\altcp.c ****  * Overview
  15:C:/Users/stapi/OneDrive/Desktop/GD32VW553/GD32VW55X_Wifi_BLE_SDK/GD32VW55x_RELEASE_V1.0.2/MSDK/lwip/lwip-2.1.2/src/core\altcp.c ****  * --------
  16:C:/Users/stapi/OneDrive/Desktop/GD32VW553/GD32VW55X_Wifi_BLE_SDK/GD32VW55x_RELEASE_V1.0.2/MSDK/lwip/lwip-2.1.2/src/core\altcp.c ****  * altcp (application layered TCP connection API; to be used from TCPIP thread)
  17:C:/Users/stapi/OneDrive/Desktop/GD32VW553/GD32VW55X_Wifi_BLE_SDK/GD32VW55x_RELEASE_V1.0.2/MSDK/lwip/lwip-2.1.2/src/core\altcp.c ****  * is an abstraction layer that prevents applications linking hard against the
  18:C:/Users/stapi/OneDrive/Desktop/GD32VW553/GD32VW55X_Wifi_BLE_SDK/GD32VW55x_RELEASE_V1.0.2/MSDK/lwip/lwip-2.1.2/src/core\altcp.c ****  * @ref tcp.h functions while providing the same functionality. It is used to
  19:C:/Users/stapi/OneDrive/Desktop/GD32VW553/GD32VW55X_Wifi_BLE_SDK/GD32VW55x_RELEASE_V1.0.2/MSDK/lwip/lwip-2.1.2/src/core\altcp.c ****  * e.g. add SSL/TLS (see LWIP_ALTCP_TLS) or proxy-connect support to an application
  20:C:/Users/stapi/OneDrive/Desktop/GD32VW553/GD32VW55X_Wifi_BLE_SDK/GD32VW55x_RELEASE_V1.0.2/MSDK/lwip/lwip-2.1.2/src/core\altcp.c ****  * written for the tcp callback API without that application knowing the
  21:C:/Users/stapi/OneDrive/Desktop/GD32VW553/GD32VW55X_Wifi_BLE_SDK/GD32VW55x_RELEASE_V1.0.2/MSDK/lwip/lwip-2.1.2/src/core\altcp.c ****  * protocol details.
  22:C:/Users/stapi/OneDrive/Desktop/GD32VW553/GD32VW55X_Wifi_BLE_SDK/GD32VW55x_RELEASE_V1.0.2/MSDK/lwip/lwip-2.1.2/src/core\altcp.c ****  *
  23:C:/Users/stapi/OneDrive/Desktop/GD32VW553/GD32VW55X_Wifi_BLE_SDK/GD32VW55x_RELEASE_V1.0.2/MSDK/lwip/lwip-2.1.2/src/core\altcp.c ****  * * This interface mimics the tcp callback API to the application while preventing
  24:C:/Users/stapi/OneDrive/Desktop/GD32VW553/GD32VW55X_Wifi_BLE_SDK/GD32VW55x_RELEASE_V1.0.2/MSDK/lwip/lwip-2.1.2/src/core\altcp.c ****  *   direct linking (much like virtual functions).
  25:C:/Users/stapi/OneDrive/Desktop/GD32VW553/GD32VW55X_Wifi_BLE_SDK/GD32VW55x_RELEASE_V1.0.2/MSDK/lwip/lwip-2.1.2/src/core\altcp.c ****  * * This way, an application can make use of other application layer protocols
  26:C:/Users/stapi/OneDrive/Desktop/GD32VW553/GD32VW55X_Wifi_BLE_SDK/GD32VW55x_RELEASE_V1.0.2/MSDK/lwip/lwip-2.1.2/src/core\altcp.c ****  *   on top of TCP without knowing the details (e.g. TLS, proxy connection).
  27:C:/Users/stapi/OneDrive/Desktop/GD32VW553/GD32VW55X_Wifi_BLE_SDK/GD32VW55x_RELEASE_V1.0.2/MSDK/lwip/lwip-2.1.2/src/core\altcp.c ****  * * This is achieved by simply including "lwip/altcp.h" instead of "lwip/tcp.h",
  28:C:/Users/stapi/OneDrive/Desktop/GD32VW553/GD32VW55X_Wifi_BLE_SDK/GD32VW55x_RELEASE_V1.0.2/MSDK/lwip/lwip-2.1.2/src/core\altcp.c ****  *   replacing "struct tcp_pcb" with "struct altcp_pcb" and prefixing all functions
  29:C:/Users/stapi/OneDrive/Desktop/GD32VW553/GD32VW55X_Wifi_BLE_SDK/GD32VW55x_RELEASE_V1.0.2/MSDK/lwip/lwip-2.1.2/src/core\altcp.c ****  *   with "altcp_" instead of "tcp_".
  30:C:/Users/stapi/OneDrive/Desktop/GD32VW553/GD32VW55X_Wifi_BLE_SDK/GD32VW55x_RELEASE_V1.0.2/MSDK/lwip/lwip-2.1.2/src/core\altcp.c ****  *
  31:C:/Users/stapi/OneDrive/Desktop/GD32VW553/GD32VW55X_Wifi_BLE_SDK/GD32VW55x_RELEASE_V1.0.2/MSDK/lwip/lwip-2.1.2/src/core\altcp.c ****  * With altcp support disabled (LWIP_ALTCP==0), applications written against the
  32:C:/Users/stapi/OneDrive/Desktop/GD32VW553/GD32VW55X_Wifi_BLE_SDK/GD32VW55x_RELEASE_V1.0.2/MSDK/lwip/lwip-2.1.2/src/core\altcp.c ****  * altcp API can still be compiled but are directly linked against the tcp.h
  33:C:/Users/stapi/OneDrive/Desktop/GD32VW553/GD32VW55X_Wifi_BLE_SDK/GD32VW55x_RELEASE_V1.0.2/MSDK/lwip/lwip-2.1.2/src/core\altcp.c ****  * callback API and then cannot use layered protocols. To minimize code changes
  34:C:/Users/stapi/OneDrive/Desktop/GD32VW553/GD32VW55X_Wifi_BLE_SDK/GD32VW55x_RELEASE_V1.0.2/MSDK/lwip/lwip-2.1.2/src/core\altcp.c ****  * in this case, the use of altcp_allocators is strongly suggested.
  35:C:/Users/stapi/OneDrive/Desktop/GD32VW553/GD32VW55X_Wifi_BLE_SDK/GD32VW55x_RELEASE_V1.0.2/MSDK/lwip/lwip-2.1.2/src/core\altcp.c ****  *
  36:C:/Users/stapi/OneDrive/Desktop/GD32VW553/GD32VW55X_Wifi_BLE_SDK/GD32VW55x_RELEASE_V1.0.2/MSDK/lwip/lwip-2.1.2/src/core\altcp.c ****  * Usage
  37:C:/Users/stapi/OneDrive/Desktop/GD32VW553/GD32VW55X_Wifi_BLE_SDK/GD32VW55x_RELEASE_V1.0.2/MSDK/lwip/lwip-2.1.2/src/core\altcp.c ****  * -----
  38:C:/Users/stapi/OneDrive/Desktop/GD32VW553/GD32VW55X_Wifi_BLE_SDK/GD32VW55x_RELEASE_V1.0.2/MSDK/lwip/lwip-2.1.2/src/core\altcp.c ****  * To make use of this API from an existing tcp raw API application:
  39:C:/Users/stapi/OneDrive/Desktop/GD32VW553/GD32VW55X_Wifi_BLE_SDK/GD32VW55x_RELEASE_V1.0.2/MSDK/lwip/lwip-2.1.2/src/core\altcp.c ****  * * Include "lwip/altcp.h" instead of "lwip/tcp.h"
  40:C:/Users/stapi/OneDrive/Desktop/GD32VW553/GD32VW55X_Wifi_BLE_SDK/GD32VW55x_RELEASE_V1.0.2/MSDK/lwip/lwip-2.1.2/src/core\altcp.c ****  * * Replace "struct tcp_pcb" with "struct altcp_pcb"
  41:C:/Users/stapi/OneDrive/Desktop/GD32VW553/GD32VW55X_Wifi_BLE_SDK/GD32VW55x_RELEASE_V1.0.2/MSDK/lwip/lwip-2.1.2/src/core\altcp.c ****  * * Prefix all called tcp API functions with "altcp_" instead of "tcp_" to link
  42:C:/Users/stapi/OneDrive/Desktop/GD32VW553/GD32VW55X_Wifi_BLE_SDK/GD32VW55x_RELEASE_V1.0.2/MSDK/lwip/lwip-2.1.2/src/core\altcp.c ****  *   against the altcp functions
  43:C:/Users/stapi/OneDrive/Desktop/GD32VW553/GD32VW55X_Wifi_BLE_SDK/GD32VW55x_RELEASE_V1.0.2/MSDK/lwip/lwip-2.1.2/src/core\altcp.c ****  * * @ref altcp_new (and @ref altcp_new_ip_type/@ref altcp_new_ip6) take
  44:C:/Users/stapi/OneDrive/Desktop/GD32VW553/GD32VW55X_Wifi_BLE_SDK/GD32VW55x_RELEASE_V1.0.2/MSDK/lwip/lwip-2.1.2/src/core\altcp.c ****  *   an @ref altcp_allocator_t as an argument, whereas the original tcp API
  45:C:/Users/stapi/OneDrive/Desktop/GD32VW553/GD32VW55X_Wifi_BLE_SDK/GD32VW55x_RELEASE_V1.0.2/MSDK/lwip/lwip-2.1.2/src/core\altcp.c ****  *   functions take no arguments.
  46:C:/Users/stapi/OneDrive/Desktop/GD32VW553/GD32VW55X_Wifi_BLE_SDK/GD32VW55x_RELEASE_V1.0.2/MSDK/lwip/lwip-2.1.2/src/core\altcp.c ****  * * An @ref altcp_allocator_t allocator is an object that holds a pointer to an
  47:C:/Users/stapi/OneDrive/Desktop/GD32VW553/GD32VW55X_Wifi_BLE_SDK/GD32VW55x_RELEASE_V1.0.2/MSDK/lwip/lwip-2.1.2/src/core\altcp.c ****  *   allocator object and a corresponding state (e.g. for TLS, the corresponding
  48:C:/Users/stapi/OneDrive/Desktop/GD32VW553/GD32VW55X_Wifi_BLE_SDK/GD32VW55x_RELEASE_V1.0.2/MSDK/lwip/lwip-2.1.2/src/core\altcp.c ****  *   state may hold certificates or keys). This way, the application does not
  49:C:/Users/stapi/OneDrive/Desktop/GD32VW553/GD32VW55X_Wifi_BLE_SDK/GD32VW55x_RELEASE_V1.0.2/MSDK/lwip/lwip-2.1.2/src/core\altcp.c ****  *   even need to know if it uses TLS or pure TCP, this is handled at runtime
  50:C:/Users/stapi/OneDrive/Desktop/GD32VW553/GD32VW55X_Wifi_BLE_SDK/GD32VW55x_RELEASE_V1.0.2/MSDK/lwip/lwip-2.1.2/src/core\altcp.c ****  *   by passing a specific allocator.
  51:C:/Users/stapi/OneDrive/Desktop/GD32VW553/GD32VW55X_Wifi_BLE_SDK/GD32VW55x_RELEASE_V1.0.2/MSDK/lwip/lwip-2.1.2/src/core\altcp.c ****  * * An application can alternatively bind hard to the altcp_tls API by calling
  52:C:/Users/stapi/OneDrive/Desktop/GD32VW553/GD32VW55X_Wifi_BLE_SDK/GD32VW55x_RELEASE_V1.0.2/MSDK/lwip/lwip-2.1.2/src/core\altcp.c ****  *   @ref altcp_tls_new or @ref altcp_tls_wrap.
  53:C:/Users/stapi/OneDrive/Desktop/GD32VW553/GD32VW55X_Wifi_BLE_SDK/GD32VW55x_RELEASE_V1.0.2/MSDK/lwip/lwip-2.1.2/src/core\altcp.c ****  * * The TLS layer is not directly implemented by lwIP, but a port to mbedTLS is
  54:C:/Users/stapi/OneDrive/Desktop/GD32VW553/GD32VW55X_Wifi_BLE_SDK/GD32VW55x_RELEASE_V1.0.2/MSDK/lwip/lwip-2.1.2/src/core\altcp.c ****  *   provided.
  55:C:/Users/stapi/OneDrive/Desktop/GD32VW553/GD32VW55X_Wifi_BLE_SDK/GD32VW55x_RELEASE_V1.0.2/MSDK/lwip/lwip-2.1.2/src/core\altcp.c ****  * * Another altcp layer is proxy-connect to use TLS behind a HTTP proxy (see
  56:C:/Users/stapi/OneDrive/Desktop/GD32VW553/GD32VW55X_Wifi_BLE_SDK/GD32VW55x_RELEASE_V1.0.2/MSDK/lwip/lwip-2.1.2/src/core\altcp.c ****  *   @ref altcp_proxyconnect.h)
  57:C:/Users/stapi/OneDrive/Desktop/GD32VW553/GD32VW55X_Wifi_BLE_SDK/GD32VW55x_RELEASE_V1.0.2/MSDK/lwip/lwip-2.1.2/src/core\altcp.c ****  *
  58:C:/Users/stapi/OneDrive/Desktop/GD32VW553/GD32VW55X_Wifi_BLE_SDK/GD32VW55x_RELEASE_V1.0.2/MSDK/lwip/lwip-2.1.2/src/core\altcp.c ****  * altcp_allocator_t
  59:C:/Users/stapi/OneDrive/Desktop/GD32VW553/GD32VW55X_Wifi_BLE_SDK/GD32VW55x_RELEASE_V1.0.2/MSDK/lwip/lwip-2.1.2/src/core\altcp.c ****  * -----------------
  60:C:/Users/stapi/OneDrive/Desktop/GD32VW553/GD32VW55X_Wifi_BLE_SDK/GD32VW55x_RELEASE_V1.0.2/MSDK/lwip/lwip-2.1.2/src/core\altcp.c ****  * An altcp allocator is created by the application by combining an allocator
  61:C:/Users/stapi/OneDrive/Desktop/GD32VW553/GD32VW55X_Wifi_BLE_SDK/GD32VW55x_RELEASE_V1.0.2/MSDK/lwip/lwip-2.1.2/src/core\altcp.c ****  * callback function and a corresponding state, e.g.:\code{.c}
  62:C:/Users/stapi/OneDrive/Desktop/GD32VW553/GD32VW55X_Wifi_BLE_SDK/GD32VW55x_RELEASE_V1.0.2/MSDK/lwip/lwip-2.1.2/src/core\altcp.c ****  * static const unsigned char cert[] = {0x2D, ... (see mbedTLS doc for how to create this)};
  63:C:/Users/stapi/OneDrive/Desktop/GD32VW553/GD32VW55X_Wifi_BLE_SDK/GD32VW55x_RELEASE_V1.0.2/MSDK/lwip/lwip-2.1.2/src/core\altcp.c ****  * struct altcp_tls_config * conf = altcp_tls_create_config_client(cert, sizeof(cert));
  64:C:/Users/stapi/OneDrive/Desktop/GD32VW553/GD32VW55X_Wifi_BLE_SDK/GD32VW55x_RELEASE_V1.0.2/MSDK/lwip/lwip-2.1.2/src/core\altcp.c ****  * altcp_allocator_t tls_allocator = {
  65:C:/Users/stapi/OneDrive/Desktop/GD32VW553/GD32VW55X_Wifi_BLE_SDK/GD32VW55x_RELEASE_V1.0.2/MSDK/lwip/lwip-2.1.2/src/core\altcp.c ****  *   altcp_tls_alloc, conf
  66:C:/Users/stapi/OneDrive/Desktop/GD32VW553/GD32VW55X_Wifi_BLE_SDK/GD32VW55x_RELEASE_V1.0.2/MSDK/lwip/lwip-2.1.2/src/core\altcp.c ****  * };
  67:C:/Users/stapi/OneDrive/Desktop/GD32VW553/GD32VW55X_Wifi_BLE_SDK/GD32VW55x_RELEASE_V1.0.2/MSDK/lwip/lwip-2.1.2/src/core\altcp.c ****  * \endcode
  68:C:/Users/stapi/OneDrive/Desktop/GD32VW553/GD32VW55X_Wifi_BLE_SDK/GD32VW55x_RELEASE_V1.0.2/MSDK/lwip/lwip-2.1.2/src/core\altcp.c ****  *
  69:C:/Users/stapi/OneDrive/Desktop/GD32VW553/GD32VW55X_Wifi_BLE_SDK/GD32VW55x_RELEASE_V1.0.2/MSDK/lwip/lwip-2.1.2/src/core\altcp.c ****  *
  70:C:/Users/stapi/OneDrive/Desktop/GD32VW553/GD32VW55X_Wifi_BLE_SDK/GD32VW55x_RELEASE_V1.0.2/MSDK/lwip/lwip-2.1.2/src/core\altcp.c ****  * struct altcp_tls_config
  71:C:/Users/stapi/OneDrive/Desktop/GD32VW553/GD32VW55X_Wifi_BLE_SDK/GD32VW55x_RELEASE_V1.0.2/MSDK/lwip/lwip-2.1.2/src/core\altcp.c ****  * -----------------------
  72:C:/Users/stapi/OneDrive/Desktop/GD32VW553/GD32VW55X_Wifi_BLE_SDK/GD32VW55x_RELEASE_V1.0.2/MSDK/lwip/lwip-2.1.2/src/core\altcp.c ****  * The struct altcp_tls_config holds state that is needed to create new TLS client
  73:C:/Users/stapi/OneDrive/Desktop/GD32VW553/GD32VW55X_Wifi_BLE_SDK/GD32VW55x_RELEASE_V1.0.2/MSDK/lwip/lwip-2.1.2/src/core\altcp.c ****  * or server connections (e.g. certificates and private keys).
  74:C:/Users/stapi/OneDrive/Desktop/GD32VW553/GD32VW55X_Wifi_BLE_SDK/GD32VW55x_RELEASE_V1.0.2/MSDK/lwip/lwip-2.1.2/src/core\altcp.c ****  *
  75:C:/Users/stapi/OneDrive/Desktop/GD32VW553/GD32VW55X_Wifi_BLE_SDK/GD32VW55x_RELEASE_V1.0.2/MSDK/lwip/lwip-2.1.2/src/core\altcp.c ****  * It is not defined by lwIP itself but by the TLS port (e.g. altcp_tls to mbedTLS
  76:C:/Users/stapi/OneDrive/Desktop/GD32VW553/GD32VW55X_Wifi_BLE_SDK/GD32VW55x_RELEASE_V1.0.2/MSDK/lwip/lwip-2.1.2/src/core\altcp.c ****  * adaption). However, the parameters used to create it are defined in @ref
  77:C:/Users/stapi/OneDrive/Desktop/GD32VW553/GD32VW55X_Wifi_BLE_SDK/GD32VW55x_RELEASE_V1.0.2/MSDK/lwip/lwip-2.1.2/src/core\altcp.c ****  * altcp_tls.h (see @ref altcp_tls_create_config_server_privkey_cert for servers
  78:C:/Users/stapi/OneDrive/Desktop/GD32VW553/GD32VW55X_Wifi_BLE_SDK/GD32VW55x_RELEASE_V1.0.2/MSDK/lwip/lwip-2.1.2/src/core\altcp.c ****  * and @ref altcp_tls_create_config_client/@ref altcp_tls_create_config_client_2wayauth
  79:C:/Users/stapi/OneDrive/Desktop/GD32VW553/GD32VW55X_Wifi_BLE_SDK/GD32VW55x_RELEASE_V1.0.2/MSDK/lwip/lwip-2.1.2/src/core\altcp.c ****  * for clients).
  80:C:/Users/stapi/OneDrive/Desktop/GD32VW553/GD32VW55X_Wifi_BLE_SDK/GD32VW55x_RELEASE_V1.0.2/MSDK/lwip/lwip-2.1.2/src/core\altcp.c ****  *
  81:C:/Users/stapi/OneDrive/Desktop/GD32VW553/GD32VW55X_Wifi_BLE_SDK/GD32VW55x_RELEASE_V1.0.2/MSDK/lwip/lwip-2.1.2/src/core\altcp.c ****  * For mbedTLS, ensure that certificates can be parsed by 'mbedtls_x509_crt_parse()' and
  82:C:/Users/stapi/OneDrive/Desktop/GD32VW553/GD32VW55X_Wifi_BLE_SDK/GD32VW55x_RELEASE_V1.0.2/MSDK/lwip/lwip-2.1.2/src/core\altcp.c ****  * private keys can be parsed by 'mbedtls_pk_parse_key()'.
  83:C:/Users/stapi/OneDrive/Desktop/GD32VW553/GD32VW55X_Wifi_BLE_SDK/GD32VW55x_RELEASE_V1.0.2/MSDK/lwip/lwip-2.1.2/src/core\altcp.c ****  */
  84:C:/Users/stapi/OneDrive/Desktop/GD32VW553/GD32VW55X_Wifi_BLE_SDK/GD32VW55x_RELEASE_V1.0.2/MSDK/lwip/lwip-2.1.2/src/core\altcp.c **** 
  85:C:/Users/stapi/OneDrive/Desktop/GD32VW553/GD32VW55X_Wifi_BLE_SDK/GD32VW55x_RELEASE_V1.0.2/MSDK/lwip/lwip-2.1.2/src/core\altcp.c **** /*
  86:C:/Users/stapi/OneDrive/Desktop/GD32VW553/GD32VW55X_Wifi_BLE_SDK/GD32VW55x_RELEASE_V1.0.2/MSDK/lwip/lwip-2.1.2/src/core\altcp.c ****  * Copyright (c) 2017 Simon Goldschmidt
  87:C:/Users/stapi/OneDrive/Desktop/GD32VW553/GD32VW55X_Wifi_BLE_SDK/GD32VW55x_RELEASE_V1.0.2/MSDK/lwip/lwip-2.1.2/src/core\altcp.c ****  * All rights reserved.
  88:C:/Users/stapi/OneDrive/Desktop/GD32VW553/GD32VW55X_Wifi_BLE_SDK/GD32VW55x_RELEASE_V1.0.2/MSDK/lwip/lwip-2.1.2/src/core\altcp.c ****  *
  89:C:/Users/stapi/OneDrive/Desktop/GD32VW553/GD32VW55X_Wifi_BLE_SDK/GD32VW55x_RELEASE_V1.0.2/MSDK/lwip/lwip-2.1.2/src/core\altcp.c ****  * Redistribution and use in source and binary forms, with or without modification,
  90:C:/Users/stapi/OneDrive/Desktop/GD32VW553/GD32VW55X_Wifi_BLE_SDK/GD32VW55x_RELEASE_V1.0.2/MSDK/lwip/lwip-2.1.2/src/core\altcp.c ****  * are permitted provided that the following conditions are met:
  91:C:/Users/stapi/OneDrive/Desktop/GD32VW553/GD32VW55X_Wifi_BLE_SDK/GD32VW55x_RELEASE_V1.0.2/MSDK/lwip/lwip-2.1.2/src/core\altcp.c ****  *
  92:C:/Users/stapi/OneDrive/Desktop/GD32VW553/GD32VW55X_Wifi_BLE_SDK/GD32VW55x_RELEASE_V1.0.2/MSDK/lwip/lwip-2.1.2/src/core\altcp.c ****  * 1. Redistributions of source code must retain the above copyright notice,
  93:C:/Users/stapi/OneDrive/Desktop/GD32VW553/GD32VW55X_Wifi_BLE_SDK/GD32VW55x_RELEASE_V1.0.2/MSDK/lwip/lwip-2.1.2/src/core\altcp.c ****  *    this list of conditions and the following disclaimer.
  94:C:/Users/stapi/OneDrive/Desktop/GD32VW553/GD32VW55X_Wifi_BLE_SDK/GD32VW55x_RELEASE_V1.0.2/MSDK/lwip/lwip-2.1.2/src/core\altcp.c ****  * 2. Redistributions in binary form must reproduce the above copyright notice,
  95:C:/Users/stapi/OneDrive/Desktop/GD32VW553/GD32VW55X_Wifi_BLE_SDK/GD32VW55x_RELEASE_V1.0.2/MSDK/lwip/lwip-2.1.2/src/core\altcp.c ****  *    this list of conditions and the following disclaimer in the documentation
  96:C:/Users/stapi/OneDrive/Desktop/GD32VW553/GD32VW55X_Wifi_BLE_SDK/GD32VW55x_RELEASE_V1.0.2/MSDK/lwip/lwip-2.1.2/src/core\altcp.c ****  *    and/or other materials provided with the distribution.
  97:C:/Users/stapi/OneDrive/Desktop/GD32VW553/GD32VW55X_Wifi_BLE_SDK/GD32VW55x_RELEASE_V1.0.2/MSDK/lwip/lwip-2.1.2/src/core\altcp.c ****  * 3. The name of the author may not be used to endorse or promote products
  98:C:/Users/stapi/OneDrive/Desktop/GD32VW553/GD32VW55X_Wifi_BLE_SDK/GD32VW55x_RELEASE_V1.0.2/MSDK/lwip/lwip-2.1.2/src/core\altcp.c ****  *    derived from this software without specific prior written permission.
  99:C:/Users/stapi/OneDrive/Desktop/GD32VW553/GD32VW55X_Wifi_BLE_SDK/GD32VW55x_RELEASE_V1.0.2/MSDK/lwip/lwip-2.1.2/src/core\altcp.c ****  *
 100:C:/Users/stapi/OneDrive/Desktop/GD32VW553/GD32VW55X_Wifi_BLE_SDK/GD32VW55x_RELEASE_V1.0.2/MSDK/lwip/lwip-2.1.2/src/core\altcp.c ****  * THIS SOFTWARE IS PROVIDED BY THE AUTHOR ``AS IS'' AND ANY EXPRESS OR IMPLIED
 101:C:/Users/stapi/OneDrive/Desktop/GD32VW553/GD32VW55X_Wifi_BLE_SDK/GD32VW55x_RELEASE_V1.0.2/MSDK/lwip/lwip-2.1.2/src/core\altcp.c ****  * WARRANTIES, INCLUDING, BUT NOT LIMITED TO, THE IMPLIED WARRANTIES OF
 102:C:/Users/stapi/OneDrive/Desktop/GD32VW553/GD32VW55X_Wifi_BLE_SDK/GD32VW55x_RELEASE_V1.0.2/MSDK/lwip/lwip-2.1.2/src/core\altcp.c ****  * MERCHANTABILITY AND FITNESS FOR A PARTICULAR PURPOSE ARE DISCLAIMED. IN NO EVENT
 103:C:/Users/stapi/OneDrive/Desktop/GD32VW553/GD32VW55X_Wifi_BLE_SDK/GD32VW55x_RELEASE_V1.0.2/MSDK/lwip/lwip-2.1.2/src/core\altcp.c ****  * SHALL THE AUTHOR BE LIABLE FOR ANY DIRECT, INDIRECT, INCIDENTAL, SPECIAL,
 104:C:/Users/stapi/OneDrive/Desktop/GD32VW553/GD32VW55X_Wifi_BLE_SDK/GD32VW55x_RELEASE_V1.0.2/MSDK/lwip/lwip-2.1.2/src/core\altcp.c ****  * EXEMPLARY, OR CONSEQUENTIAL DAMAGES (INCLUDING, BUT NOT LIMITED TO, PROCUREMENT
 105:C:/Users/stapi/OneDrive/Desktop/GD32VW553/GD32VW55X_Wifi_BLE_SDK/GD32VW55x_RELEASE_V1.0.2/MSDK/lwip/lwip-2.1.2/src/core\altcp.c ****  * OF SUBSTITUTE GOODS OR SERVICES; LOSS OF USE, DATA, OR PROFITS; OR BUSINESS
 106:C:/Users/stapi/OneDrive/Desktop/GD32VW553/GD32VW55X_Wifi_BLE_SDK/GD32VW55x_RELEASE_V1.0.2/MSDK/lwip/lwip-2.1.2/src/core\altcp.c ****  * INTERRUPTION) HOWEVER CAUSED AND ON ANY THEORY OF LIABILITY, WHETHER IN
 107:C:/Users/stapi/OneDrive/Desktop/GD32VW553/GD32VW55X_Wifi_BLE_SDK/GD32VW55x_RELEASE_V1.0.2/MSDK/lwip/lwip-2.1.2/src/core\altcp.c ****  * CONTRACT, STRICT LIABILITY, OR TORT (INCLUDING NEGLIGENCE OR OTHERWISE) ARISING
 108:C:/Users/stapi/OneDrive/Desktop/GD32VW553/GD32VW55X_Wifi_BLE_SDK/GD32VW55x_RELEASE_V1.0.2/MSDK/lwip/lwip-2.1.2/src/core\altcp.c ****  * IN ANY WAY OUT OF THE USE OF THIS SOFTWARE, EVEN IF ADVISED OF THE POSSIBILITY
 109:C:/Users/stapi/OneDrive/Desktop/GD32VW553/GD32VW55X_Wifi_BLE_SDK/GD32VW55x_RELEASE_V1.0.2/MSDK/lwip/lwip-2.1.2/src/core\altcp.c ****  * OF SUCH DAMAGE.
 110:C:/Users/stapi/OneDrive/Desktop/GD32VW553/GD32VW55X_Wifi_BLE_SDK/GD32VW55x_RELEASE_V1.0.2/MSDK/lwip/lwip-2.1.2/src/core\altcp.c ****  *
 111:C:/Users/stapi/OneDrive/Desktop/GD32VW553/GD32VW55X_Wifi_BLE_SDK/GD32VW55x_RELEASE_V1.0.2/MSDK/lwip/lwip-2.1.2/src/core\altcp.c ****  * This file is part of the lwIP TCP/IP stack.
 112:C:/Users/stapi/OneDrive/Desktop/GD32VW553/GD32VW55X_Wifi_BLE_SDK/GD32VW55x_RELEASE_V1.0.2/MSDK/lwip/lwip-2.1.2/src/core\altcp.c ****  *
 113:C:/Users/stapi/OneDrive/Desktop/GD32VW553/GD32VW55X_Wifi_BLE_SDK/GD32VW55x_RELEASE_V1.0.2/MSDK/lwip/lwip-2.1.2/src/core\altcp.c ****  * Author: Simon Goldschmidt <goldsimon@gmx.de>
 114:C:/Users/stapi/OneDrive/Desktop/GD32VW553/GD32VW55X_Wifi_BLE_SDK/GD32VW55x_RELEASE_V1.0.2/MSDK/lwip/lwip-2.1.2/src/core\altcp.c ****  *
 115:C:/Users/stapi/OneDrive/Desktop/GD32VW553/GD32VW55X_Wifi_BLE_SDK/GD32VW55x_RELEASE_V1.0.2/MSDK/lwip/lwip-2.1.2/src/core\altcp.c ****  */
 116:C:/Users/stapi/OneDrive/Desktop/GD32VW553/GD32VW55X_Wifi_BLE_SDK/GD32VW55x_RELEASE_V1.0.2/MSDK/lwip/lwip-2.1.2/src/core\altcp.c **** 
 117:C:/Users/stapi/OneDrive/Desktop/GD32VW553/GD32VW55X_Wifi_BLE_SDK/GD32VW55x_RELEASE_V1.0.2/MSDK/lwip/lwip-2.1.2/src/core\altcp.c **** #include "lwip/opt.h"
 118:C:/Users/stapi/OneDrive/Desktop/GD32VW553/GD32VW55X_Wifi_BLE_SDK/GD32VW55x_RELEASE_V1.0.2/MSDK/lwip/lwip-2.1.2/src/core\altcp.c **** 
 119:C:/Users/stapi/OneDrive/Desktop/GD32VW553/GD32VW55X_Wifi_BLE_SDK/GD32VW55x_RELEASE_V1.0.2/MSDK/lwip/lwip-2.1.2/src/core\altcp.c **** #if LWIP_ALTCP /* don't build if not configured for use in lwipopts.h */
 120:C:/Users/stapi/OneDrive/Desktop/GD32VW553/GD32VW55X_Wifi_BLE_SDK/GD32VW55x_RELEASE_V1.0.2/MSDK/lwip/lwip-2.1.2/src/core\altcp.c **** 
 121:C:/Users/stapi/OneDrive/Desktop/GD32VW553/GD32VW55X_Wifi_BLE_SDK/GD32VW55x_RELEASE_V1.0.2/MSDK/lwip/lwip-2.1.2/src/core\altcp.c **** #include "lwip/altcp.h"
 122:C:/Users/stapi/OneDrive/Desktop/GD32VW553/GD32VW55X_Wifi_BLE_SDK/GD32VW55x_RELEASE_V1.0.2/MSDK/lwip/lwip-2.1.2/src/core\altcp.c **** #include "lwip/priv/altcp_priv.h"
 123:C:/Users/stapi/OneDrive/Desktop/GD32VW553/GD32VW55X_Wifi_BLE_SDK/GD32VW55x_RELEASE_V1.0.2/MSDK/lwip/lwip-2.1.2/src/core\altcp.c **** #include "lwip/altcp_tcp.h"
 124:C:/Users/stapi/OneDrive/Desktop/GD32VW553/GD32VW55X_Wifi_BLE_SDK/GD32VW55x_RELEASE_V1.0.2/MSDK/lwip/lwip-2.1.2/src/core\altcp.c **** #include "lwip/tcp.h"
 125:C:/Users/stapi/OneDrive/Desktop/GD32VW553/GD32VW55X_Wifi_BLE_SDK/GD32VW55x_RELEASE_V1.0.2/MSDK/lwip/lwip-2.1.2/src/core\altcp.c **** #include "lwip/mem.h"
 126:C:/Users/stapi/OneDrive/Desktop/GD32VW553/GD32VW55X_Wifi_BLE_SDK/GD32VW55x_RELEASE_V1.0.2/MSDK/lwip/lwip-2.1.2/src/core\altcp.c **** 
 127:C:/Users/stapi/OneDrive/Desktop/GD32VW553/GD32VW55X_Wifi_BLE_SDK/GD32VW55x_RELEASE_V1.0.2/MSDK/lwip/lwip-2.1.2/src/core\altcp.c **** #include <string.h>
 128:C:/Users/stapi/OneDrive/Desktop/GD32VW553/GD32VW55X_Wifi_BLE_SDK/GD32VW55x_RELEASE_V1.0.2/MSDK/lwip/lwip-2.1.2/src/core\altcp.c **** 
 129:C:/Users/stapi/OneDrive/Desktop/GD32VW553/GD32VW55X_Wifi_BLE_SDK/GD32VW55x_RELEASE_V1.0.2/MSDK/lwip/lwip-2.1.2/src/core\altcp.c **** extern const struct altcp_functions altcp_tcp_functions;
 130:C:/Users/stapi/OneDrive/Desktop/GD32VW553/GD32VW55X_Wifi_BLE_SDK/GD32VW55x_RELEASE_V1.0.2/MSDK/lwip/lwip-2.1.2/src/core\altcp.c **** 
 131:C:/Users/stapi/OneDrive/Desktop/GD32VW553/GD32VW55X_Wifi_BLE_SDK/GD32VW55x_RELEASE_V1.0.2/MSDK/lwip/lwip-2.1.2/src/core\altcp.c **** /**
 132:C:/Users/stapi/OneDrive/Desktop/GD32VW553/GD32VW55X_Wifi_BLE_SDK/GD32VW55x_RELEASE_V1.0.2/MSDK/lwip/lwip-2.1.2/src/core\altcp.c ****  * For altcp layer implementations only: allocate a new struct altcp_pcb from the pool
 133:C:/Users/stapi/OneDrive/Desktop/GD32VW553/GD32VW55X_Wifi_BLE_SDK/GD32VW55x_RELEASE_V1.0.2/MSDK/lwip/lwip-2.1.2/src/core\altcp.c ****  * and zero the memory
 134:C:/Users/stapi/OneDrive/Desktop/GD32VW553/GD32VW55X_Wifi_BLE_SDK/GD32VW55x_RELEASE_V1.0.2/MSDK/lwip/lwip-2.1.2/src/core\altcp.c ****  */
 135:C:/Users/stapi/OneDrive/Desktop/GD32VW553/GD32VW55X_Wifi_BLE_SDK/GD32VW55x_RELEASE_V1.0.2/MSDK/lwip/lwip-2.1.2/src/core\altcp.c **** struct altcp_pcb *
 136:C:/Users/stapi/OneDrive/Desktop/GD32VW553/GD32VW55X_Wifi_BLE_SDK/GD32VW55x_RELEASE_V1.0.2/MSDK/lwip/lwip-2.1.2/src/core\altcp.c **** altcp_alloc(void)
 137:C:/Users/stapi/OneDrive/Desktop/GD32VW553/GD32VW55X_Wifi_BLE_SDK/GD32VW55x_RELEASE_V1.0.2/MSDK/lwip/lwip-2.1.2/src/core\altcp.c **** {
  16              		.loc 1 137 1
  17              		.cfi_startproc
  18 0000 17030000 		call	t0,__riscv_save_1
  18      E7020300 
  19              		.cfi_offset 8, -8
  20              		.cfi_offset 1, -4
  21              		.cfi_def_cfa_offset 16
 138:C:/Users/stapi/OneDrive/Desktop/GD32VW553/GD32VW55X_Wifi_BLE_SDK/GD32VW55x_RELEASE_V1.0.2/MSDK/lwip/lwip-2.1.2/src/core\altcp.c ****   struct altcp_pcb *ret = (struct altcp_pcb *)memp_malloc(MEMP_ALTCP_PCB);
  22              		.loc 1 138 3
  23              		.loc 1 138 47 is_stmt 0
  24 0008 1545     		li	a0,5
  25 000a 97000000 		call	memp_malloc
  25      E7800000 
  26              	.LVL0:
  27 0012 2A84     		mv	s0,a0
  28              	.LVL1:
 139:C:/Users/stapi/OneDrive/Desktop/GD32VW553/GD32VW55X_Wifi_BLE_SDK/GD32VW55x_RELEASE_V1.0.2/MSDK/lwip/lwip-2.1.2/src/core\altcp.c ****   if (ret != NULL) {
  29              		.loc 1 139 3 is_stmt 1
  30              		.loc 1 139 6 is_stmt 0
  31 0014 01C9     		beq	a0,zero,.L1
 140:C:/Users/stapi/OneDrive/Desktop/GD32VW553/GD32VW55X_Wifi_BLE_SDK/GD32VW55x_RELEASE_V1.0.2/MSDK/lwip/lwip-2.1.2/src/core\altcp.c ****     memset(ret, 0, sizeof(struct altcp_pcb));
  32              		.loc 1 140 5 is_stmt 1
  33 0016 1306C002 		li	a2,44
  34 001a 8145     		li	a1,0
  35 001c 97000000 		call	memset
  35      E7800000 
  36              	.LVL2:
 141:C:/Users/stapi/OneDrive/Desktop/GD32VW553/GD32VW55X_Wifi_BLE_SDK/GD32VW55x_RELEASE_V1.0.2/MSDK/lwip/lwip-2.1.2/src/core\altcp.c ****   }
 142:C:/Users/stapi/OneDrive/Desktop/GD32VW553/GD32VW55X_Wifi_BLE_SDK/GD32VW55x_RELEASE_V1.0.2/MSDK/lwip/lwip-2.1.2/src/core\altcp.c ****   return ret;
  37              		.loc 1 142 3
  38              	.L1:
 143:C:/Users/stapi/OneDrive/Desktop/GD32VW553/GD32VW55X_Wifi_BLE_SDK/GD32VW55x_RELEASE_V1.0.2/MSDK/lwip/lwip-2.1.2/src/core\altcp.c **** }
  39              		.loc 1 143 1 is_stmt 0
  40 0024 2285     		mv	a0,s0
  41 0026 17030000 		tail	__riscv_restore_1
  41      67000300 
  42              		.cfi_restore 8
  43              		.cfi_restore 1
  44              		.cfi_def_cfa_offset 0
  45              		.cfi_endproc
  46              	.LFE4:
  48              		.section	.text.altcp_free,"ax",@progbits
  49              		.align	1
  50              		.globl	altcp_free
  52              	altcp_free:
  53              	.LFB5:
 144:C:/Users/stapi/OneDrive/Desktop/GD32VW553/GD32VW55X_Wifi_BLE_SDK/GD32VW55x_RELEASE_V1.0.2/MSDK/lwip/lwip-2.1.2/src/core\altcp.c **** 
 145:C:/Users/stapi/OneDrive/Desktop/GD32VW553/GD32VW55X_Wifi_BLE_SDK/GD32VW55x_RELEASE_V1.0.2/MSDK/lwip/lwip-2.1.2/src/core\altcp.c **** /**
 146:C:/Users/stapi/OneDrive/Desktop/GD32VW553/GD32VW55X_Wifi_BLE_SDK/GD32VW55x_RELEASE_V1.0.2/MSDK/lwip/lwip-2.1.2/src/core\altcp.c ****  * For altcp layer implementations only: return a struct altcp_pcb to the pool
 147:C:/Users/stapi/OneDrive/Desktop/GD32VW553/GD32VW55X_Wifi_BLE_SDK/GD32VW55x_RELEASE_V1.0.2/MSDK/lwip/lwip-2.1.2/src/core\altcp.c ****  */
 148:C:/Users/stapi/OneDrive/Desktop/GD32VW553/GD32VW55X_Wifi_BLE_SDK/GD32VW55x_RELEASE_V1.0.2/MSDK/lwip/lwip-2.1.2/src/core\altcp.c **** void
 149:C:/Users/stapi/OneDrive/Desktop/GD32VW553/GD32VW55X_Wifi_BLE_SDK/GD32VW55x_RELEASE_V1.0.2/MSDK/lwip/lwip-2.1.2/src/core\altcp.c **** altcp_free(struct altcp_pcb *conn)
 150:C:/Users/stapi/OneDrive/Desktop/GD32VW553/GD32VW55X_Wifi_BLE_SDK/GD32VW55x_RELEASE_V1.0.2/MSDK/lwip/lwip-2.1.2/src/core\altcp.c **** {
  54              		.loc 1 150 1 is_stmt 1
  55              		.cfi_startproc
  56              	.LVL3:
 151:C:/Users/stapi/OneDrive/Desktop/GD32VW553/GD32VW55X_Wifi_BLE_SDK/GD32VW55x_RELEASE_V1.0.2/MSDK/lwip/lwip-2.1.2/src/core\altcp.c ****   if (conn) {
  57              		.loc 1 151 3
  58              		.loc 1 151 6 is_stmt 0
  59 0000 05C9     		beq	a0,zero,.L20
 150:C:/Users/stapi/OneDrive/Desktop/GD32VW553/GD32VW55X_Wifi_BLE_SDK/GD32VW55x_RELEASE_V1.0.2/MSDK/lwip/lwip-2.1.2/src/core\altcp.c ****   if (conn) {
  60              		.loc 1 150 1
  61 0002 17030000 		call	t0,__riscv_save_0
  61      E7020300 
  62              		.cfi_offset 1, -4
  63              		.cfi_def_cfa_offset 16
 152:C:/Users/stapi/OneDrive/Desktop/GD32VW553/GD32VW55X_Wifi_BLE_SDK/GD32VW55x_RELEASE_V1.0.2/MSDK/lwip/lwip-2.1.2/src/core\altcp.c ****     if (conn->fns && conn->fns->dealloc) {
  64              		.loc 1 152 13
  65 000a 1C41     		lw	a5,0(a0)
 150:C:/Users/stapi/OneDrive/Desktop/GD32VW553/GD32VW55X_Wifi_BLE_SDK/GD32VW55x_RELEASE_V1.0.2/MSDK/lwip/lwip-2.1.2/src/core\altcp.c ****   if (conn) {
  66              		.loc 1 150 1
  67 000c 4111     		addi	sp,sp,-16
  68              		.cfi_def_cfa_offset 32
  69 000e AA85     		mv	a1,a0
  70              		.loc 1 152 5 is_stmt 1
  71              		.loc 1 152 8 is_stmt 0
  72 0010 91C7     		beq	a5,zero,.L9
  73              		.loc 1 152 31 discriminator 1
  74 0012 FC43     		lw	a5,68(a5)
  75              		.loc 1 152 19 discriminator 1
  76 0014 81C7     		beq	a5,zero,.L9
  77 0016 2AC6     		sw	a0,12(sp)
 153:C:/Users/stapi/OneDrive/Desktop/GD32VW553/GD32VW55X_Wifi_BLE_SDK/GD32VW55x_RELEASE_V1.0.2/MSDK/lwip/lwip-2.1.2/src/core\altcp.c ****       conn->fns->dealloc(conn);
  78              		.loc 1 153 7 is_stmt 1
  79 0018 8297     		jalr	a5
  80              	.LVL4:
  81 001a B245     		lw	a1,12(sp)
  82              	.LVL5:
  83              	.L9:
 154:C:/Users/stapi/OneDrive/Desktop/GD32VW553/GD32VW55X_Wifi_BLE_SDK/GD32VW55x_RELEASE_V1.0.2/MSDK/lwip/lwip-2.1.2/src/core\altcp.c ****     }
 155:C:/Users/stapi/OneDrive/Desktop/GD32VW553/GD32VW55X_Wifi_BLE_SDK/GD32VW55x_RELEASE_V1.0.2/MSDK/lwip/lwip-2.1.2/src/core\altcp.c ****     memp_free(MEMP_ALTCP_PCB, conn);
  84              		.loc 1 155 5
  85 001c 1545     		li	a0,5
  86 001e 97000000 		call	memp_free
  86      E7800000 
  87              	.LVL6:
 156:C:/Users/stapi/OneDrive/Desktop/GD32VW553/GD32VW55X_Wifi_BLE_SDK/GD32VW55x_RELEASE_V1.0.2/MSDK/lwip/lwip-2.1.2/src/core\altcp.c ****   }
 157:C:/Users/stapi/OneDrive/Desktop/GD32VW553/GD32VW55X_Wifi_BLE_SDK/GD32VW55x_RELEASE_V1.0.2/MSDK/lwip/lwip-2.1.2/src/core\altcp.c **** }
  88              		.loc 1 157 1 is_stmt 0
  89 0026 4101     		addi	sp,sp,16
  90              		.cfi_def_cfa_offset 0
  91 0028 17030000 		tail	__riscv_restore_0
  91      67000300 
  92              		.cfi_restore 1
  93              		.cfi_def_cfa_offset -16
  94              	.LVL7:
  95              	.L20:
  96              		.cfi_def_cfa_offset 0
  97 0030 8280     		ret
  98              		.cfi_endproc
  99              	.LFE5:
 101              		.section	.text.altcp_new_ip_type,"ax",@progbits
 102              		.align	1
 103              		.globl	altcp_new_ip_type
 105              	altcp_new_ip_type:
 106              	.LFB8:
 158:C:/Users/stapi/OneDrive/Desktop/GD32VW553/GD32VW55X_Wifi_BLE_SDK/GD32VW55x_RELEASE_V1.0.2/MSDK/lwip/lwip-2.1.2/src/core\altcp.c **** 
 159:C:/Users/stapi/OneDrive/Desktop/GD32VW553/GD32VW55X_Wifi_BLE_SDK/GD32VW55x_RELEASE_V1.0.2/MSDK/lwip/lwip-2.1.2/src/core\altcp.c **** /**
 160:C:/Users/stapi/OneDrive/Desktop/GD32VW553/GD32VW55X_Wifi_BLE_SDK/GD32VW55x_RELEASE_V1.0.2/MSDK/lwip/lwip-2.1.2/src/core\altcp.c ****  * @ingroup altcp
 161:C:/Users/stapi/OneDrive/Desktop/GD32VW553/GD32VW55X_Wifi_BLE_SDK/GD32VW55x_RELEASE_V1.0.2/MSDK/lwip/lwip-2.1.2/src/core\altcp.c ****  * altcp_new_ip6: @ref altcp_new for IPv6 
 162:C:/Users/stapi/OneDrive/Desktop/GD32VW553/GD32VW55X_Wifi_BLE_SDK/GD32VW55x_RELEASE_V1.0.2/MSDK/lwip/lwip-2.1.2/src/core\altcp.c ****  */
 163:C:/Users/stapi/OneDrive/Desktop/GD32VW553/GD32VW55X_Wifi_BLE_SDK/GD32VW55x_RELEASE_V1.0.2/MSDK/lwip/lwip-2.1.2/src/core\altcp.c **** struct altcp_pcb *
 164:C:/Users/stapi/OneDrive/Desktop/GD32VW553/GD32VW55X_Wifi_BLE_SDK/GD32VW55x_RELEASE_V1.0.2/MSDK/lwip/lwip-2.1.2/src/core\altcp.c **** altcp_new_ip6(altcp_allocator_t *allocator)
 165:C:/Users/stapi/OneDrive/Desktop/GD32VW553/GD32VW55X_Wifi_BLE_SDK/GD32VW55x_RELEASE_V1.0.2/MSDK/lwip/lwip-2.1.2/src/core\altcp.c **** {
 166:C:/Users/stapi/OneDrive/Desktop/GD32VW553/GD32VW55X_Wifi_BLE_SDK/GD32VW55x_RELEASE_V1.0.2/MSDK/lwip/lwip-2.1.2/src/core\altcp.c ****   return altcp_new_ip_type(allocator, IPADDR_TYPE_V6);
 167:C:/Users/stapi/OneDrive/Desktop/GD32VW553/GD32VW55X_Wifi_BLE_SDK/GD32VW55x_RELEASE_V1.0.2/MSDK/lwip/lwip-2.1.2/src/core\altcp.c **** }
 168:C:/Users/stapi/OneDrive/Desktop/GD32VW553/GD32VW55X_Wifi_BLE_SDK/GD32VW55x_RELEASE_V1.0.2/MSDK/lwip/lwip-2.1.2/src/core\altcp.c **** 
 169:C:/Users/stapi/OneDrive/Desktop/GD32VW553/GD32VW55X_Wifi_BLE_SDK/GD32VW55x_RELEASE_V1.0.2/MSDK/lwip/lwip-2.1.2/src/core\altcp.c **** /** 
 170:C:/Users/stapi/OneDrive/Desktop/GD32VW553/GD32VW55X_Wifi_BLE_SDK/GD32VW55x_RELEASE_V1.0.2/MSDK/lwip/lwip-2.1.2/src/core\altcp.c ****  * @ingroup altcp
 171:C:/Users/stapi/OneDrive/Desktop/GD32VW553/GD32VW55X_Wifi_BLE_SDK/GD32VW55x_RELEASE_V1.0.2/MSDK/lwip/lwip-2.1.2/src/core\altcp.c ****  * altcp_new: @ref altcp_new for IPv4 
 172:C:/Users/stapi/OneDrive/Desktop/GD32VW553/GD32VW55X_Wifi_BLE_SDK/GD32VW55x_RELEASE_V1.0.2/MSDK/lwip/lwip-2.1.2/src/core\altcp.c ****  */
 173:C:/Users/stapi/OneDrive/Desktop/GD32VW553/GD32VW55X_Wifi_BLE_SDK/GD32VW55x_RELEASE_V1.0.2/MSDK/lwip/lwip-2.1.2/src/core\altcp.c **** struct altcp_pcb *
 174:C:/Users/stapi/OneDrive/Desktop/GD32VW553/GD32VW55X_Wifi_BLE_SDK/GD32VW55x_RELEASE_V1.0.2/MSDK/lwip/lwip-2.1.2/src/core\altcp.c **** altcp_new(altcp_allocator_t *allocator)
 175:C:/Users/stapi/OneDrive/Desktop/GD32VW553/GD32VW55X_Wifi_BLE_SDK/GD32VW55x_RELEASE_V1.0.2/MSDK/lwip/lwip-2.1.2/src/core\altcp.c **** {
 176:C:/Users/stapi/OneDrive/Desktop/GD32VW553/GD32VW55X_Wifi_BLE_SDK/GD32VW55x_RELEASE_V1.0.2/MSDK/lwip/lwip-2.1.2/src/core\altcp.c ****   return altcp_new_ip_type(allocator, IPADDR_TYPE_V4);
 177:C:/Users/stapi/OneDrive/Desktop/GD32VW553/GD32VW55X_Wifi_BLE_SDK/GD32VW55x_RELEASE_V1.0.2/MSDK/lwip/lwip-2.1.2/src/core\altcp.c **** }
 178:C:/Users/stapi/OneDrive/Desktop/GD32VW553/GD32VW55X_Wifi_BLE_SDK/GD32VW55x_RELEASE_V1.0.2/MSDK/lwip/lwip-2.1.2/src/core\altcp.c **** 
 179:C:/Users/stapi/OneDrive/Desktop/GD32VW553/GD32VW55X_Wifi_BLE_SDK/GD32VW55x_RELEASE_V1.0.2/MSDK/lwip/lwip-2.1.2/src/core\altcp.c **** /**
 180:C:/Users/stapi/OneDrive/Desktop/GD32VW553/GD32VW55X_Wifi_BLE_SDK/GD32VW55x_RELEASE_V1.0.2/MSDK/lwip/lwip-2.1.2/src/core\altcp.c ****  * @ingroup altcp
 181:C:/Users/stapi/OneDrive/Desktop/GD32VW553/GD32VW55X_Wifi_BLE_SDK/GD32VW55x_RELEASE_V1.0.2/MSDK/lwip/lwip-2.1.2/src/core\altcp.c ****  * altcp_new_ip_type: called by applications to allocate a new pcb with the help of an
 182:C:/Users/stapi/OneDrive/Desktop/GD32VW553/GD32VW55X_Wifi_BLE_SDK/GD32VW55x_RELEASE_V1.0.2/MSDK/lwip/lwip-2.1.2/src/core\altcp.c ****  * allocator function.
 183:C:/Users/stapi/OneDrive/Desktop/GD32VW553/GD32VW55X_Wifi_BLE_SDK/GD32VW55x_RELEASE_V1.0.2/MSDK/lwip/lwip-2.1.2/src/core\altcp.c ****  *
 184:C:/Users/stapi/OneDrive/Desktop/GD32VW553/GD32VW55X_Wifi_BLE_SDK/GD32VW55x_RELEASE_V1.0.2/MSDK/lwip/lwip-2.1.2/src/core\altcp.c ****  * @param allocator allocator function and argument
 185:C:/Users/stapi/OneDrive/Desktop/GD32VW553/GD32VW55X_Wifi_BLE_SDK/GD32VW55x_RELEASE_V1.0.2/MSDK/lwip/lwip-2.1.2/src/core\altcp.c ****  * @param ip_type IP version of the pcb (@ref lwip_ip_addr_type)
 186:C:/Users/stapi/OneDrive/Desktop/GD32VW553/GD32VW55X_Wifi_BLE_SDK/GD32VW55x_RELEASE_V1.0.2/MSDK/lwip/lwip-2.1.2/src/core\altcp.c ****  * @return a new altcp_pcb or NULL on error
 187:C:/Users/stapi/OneDrive/Desktop/GD32VW553/GD32VW55X_Wifi_BLE_SDK/GD32VW55x_RELEASE_V1.0.2/MSDK/lwip/lwip-2.1.2/src/core\altcp.c ****  */
 188:C:/Users/stapi/OneDrive/Desktop/GD32VW553/GD32VW55X_Wifi_BLE_SDK/GD32VW55x_RELEASE_V1.0.2/MSDK/lwip/lwip-2.1.2/src/core\altcp.c **** struct altcp_pcb *
 189:C:/Users/stapi/OneDrive/Desktop/GD32VW553/GD32VW55X_Wifi_BLE_SDK/GD32VW55x_RELEASE_V1.0.2/MSDK/lwip/lwip-2.1.2/src/core\altcp.c **** altcp_new_ip_type(altcp_allocator_t *allocator, u8_t ip_type)
 190:C:/Users/stapi/OneDrive/Desktop/GD32VW553/GD32VW55X_Wifi_BLE_SDK/GD32VW55x_RELEASE_V1.0.2/MSDK/lwip/lwip-2.1.2/src/core\altcp.c **** {
 107              		.loc 1 190 1 is_stmt 1
 108              		.cfi_startproc
 109              	.LVL8:
 110 0000 17030000 		call	t0,__riscv_save_0
 110      E7020300 
 111              		.cfi_offset 1, -4
 112              		.cfi_def_cfa_offset 16
 191:C:/Users/stapi/OneDrive/Desktop/GD32VW553/GD32VW55X_Wifi_BLE_SDK/GD32VW55x_RELEASE_V1.0.2/MSDK/lwip/lwip-2.1.2/src/core\altcp.c ****   struct altcp_pcb *conn;
 113              		.loc 1 191 3
 192:C:/Users/stapi/OneDrive/Desktop/GD32VW553/GD32VW55X_Wifi_BLE_SDK/GD32VW55x_RELEASE_V1.0.2/MSDK/lwip/lwip-2.1.2/src/core\altcp.c ****   if (allocator == NULL) {
 114              		.loc 1 192 3
 190:C:/Users/stapi/OneDrive/Desktop/GD32VW553/GD32VW55X_Wifi_BLE_SDK/GD32VW55x_RELEASE_V1.0.2/MSDK/lwip/lwip-2.1.2/src/core\altcp.c ****   struct altcp_pcb *conn;
 115              		.loc 1 190 1 is_stmt 0
 116 0008 AA87     		mv	a5,a0
 117              		.loc 1 192 6
 118 000a 11E9     		bne	a0,zero,.L24
 119 000c 2E85     		mv	a0,a1
 120              	.LVL9:
 193:C:/Users/stapi/OneDrive/Desktop/GD32VW553/GD32VW55X_Wifi_BLE_SDK/GD32VW55x_RELEASE_V1.0.2/MSDK/lwip/lwip-2.1.2/src/core\altcp.c ****     /* no allocator given, create a simple TCP connection */
 194:C:/Users/stapi/OneDrive/Desktop/GD32VW553/GD32VW55X_Wifi_BLE_SDK/GD32VW55x_RELEASE_V1.0.2/MSDK/lwip/lwip-2.1.2/src/core\altcp.c ****     return altcp_tcp_new_ip_type(ip_type);
 121              		.loc 1 194 5 is_stmt 1
 122              		.loc 1 194 12 is_stmt 0
 123 000e 97000000 		call	altcp_tcp_new_ip_type
 123      E7800000 
 124              	.LVL10:
 125              	.L23:
 195:C:/Users/stapi/OneDrive/Desktop/GD32VW553/GD32VW55X_Wifi_BLE_SDK/GD32VW55x_RELEASE_V1.0.2/MSDK/lwip/lwip-2.1.2/src/core\altcp.c ****   }
 196:C:/Users/stapi/OneDrive/Desktop/GD32VW553/GD32VW55X_Wifi_BLE_SDK/GD32VW55x_RELEASE_V1.0.2/MSDK/lwip/lwip-2.1.2/src/core\altcp.c ****   if (allocator->alloc == NULL) {
 197:C:/Users/stapi/OneDrive/Desktop/GD32VW553/GD32VW55X_Wifi_BLE_SDK/GD32VW55x_RELEASE_V1.0.2/MSDK/lwip/lwip-2.1.2/src/core\altcp.c ****     /* illegal allocator */
 198:C:/Users/stapi/OneDrive/Desktop/GD32VW553/GD32VW55X_Wifi_BLE_SDK/GD32VW55x_RELEASE_V1.0.2/MSDK/lwip/lwip-2.1.2/src/core\altcp.c ****     return NULL;
 199:C:/Users/stapi/OneDrive/Desktop/GD32VW553/GD32VW55X_Wifi_BLE_SDK/GD32VW55x_RELEASE_V1.0.2/MSDK/lwip/lwip-2.1.2/src/core\altcp.c ****   }
 200:C:/Users/stapi/OneDrive/Desktop/GD32VW553/GD32VW55X_Wifi_BLE_SDK/GD32VW55x_RELEASE_V1.0.2/MSDK/lwip/lwip-2.1.2/src/core\altcp.c ****   conn = allocator->alloc(allocator->arg, ip_type);
 201:C:/Users/stapi/OneDrive/Desktop/GD32VW553/GD32VW55X_Wifi_BLE_SDK/GD32VW55x_RELEASE_V1.0.2/MSDK/lwip/lwip-2.1.2/src/core\altcp.c ****   if (conn == NULL) {
 202:C:/Users/stapi/OneDrive/Desktop/GD32VW553/GD32VW55X_Wifi_BLE_SDK/GD32VW55x_RELEASE_V1.0.2/MSDK/lwip/lwip-2.1.2/src/core\altcp.c ****     /* allocation failed */
 203:C:/Users/stapi/OneDrive/Desktop/GD32VW553/GD32VW55X_Wifi_BLE_SDK/GD32VW55x_RELEASE_V1.0.2/MSDK/lwip/lwip-2.1.2/src/core\altcp.c ****     return NULL;
 204:C:/Users/stapi/OneDrive/Desktop/GD32VW553/GD32VW55X_Wifi_BLE_SDK/GD32VW55x_RELEASE_V1.0.2/MSDK/lwip/lwip-2.1.2/src/core\altcp.c ****   }
 205:C:/Users/stapi/OneDrive/Desktop/GD32VW553/GD32VW55X_Wifi_BLE_SDK/GD32VW55x_RELEASE_V1.0.2/MSDK/lwip/lwip-2.1.2/src/core\altcp.c ****   return conn;
 206:C:/Users/stapi/OneDrive/Desktop/GD32VW553/GD32VW55X_Wifi_BLE_SDK/GD32VW55x_RELEASE_V1.0.2/MSDK/lwip/lwip-2.1.2/src/core\altcp.c **** }
 126              		.loc 1 206 1
 127 0016 17030000 		tail	__riscv_restore_0
 127      67000300 
 128              		.cfi_remember_state
 129              		.cfi_restore 1
 130              		.cfi_def_cfa_offset 0
 131              	.LVL11:
 132              	.L24:
 133              		.cfi_restore_state
 196:C:/Users/stapi/OneDrive/Desktop/GD32VW553/GD32VW55X_Wifi_BLE_SDK/GD32VW55x_RELEASE_V1.0.2/MSDK/lwip/lwip-2.1.2/src/core\altcp.c ****     /* illegal allocator */
 134              		.loc 1 196 3 is_stmt 1
 196:C:/Users/stapi/OneDrive/Desktop/GD32VW553/GD32VW55X_Wifi_BLE_SDK/GD32VW55x_RELEASE_V1.0.2/MSDK/lwip/lwip-2.1.2/src/core\altcp.c ****     /* illegal allocator */
 135              		.loc 1 196 16 is_stmt 0
 136 001e 1841     		lw	a4,0(a0)
 198:C:/Users/stapi/OneDrive/Desktop/GD32VW553/GD32VW55X_Wifi_BLE_SDK/GD32VW55x_RELEASE_V1.0.2/MSDK/lwip/lwip-2.1.2/src/core\altcp.c ****   }
 137              		.loc 1 198 12
 138 0020 0145     		li	a0,0
 139              	.LVL12:
 196:C:/Users/stapi/OneDrive/Desktop/GD32VW553/GD32VW55X_Wifi_BLE_SDK/GD32VW55x_RELEASE_V1.0.2/MSDK/lwip/lwip-2.1.2/src/core\altcp.c ****     /* illegal allocator */
 140              		.loc 1 196 6
 141 0022 75DB     		beq	a4,zero,.L23
 200:C:/Users/stapi/OneDrive/Desktop/GD32VW553/GD32VW55X_Wifi_BLE_SDK/GD32VW55x_RELEASE_V1.0.2/MSDK/lwip/lwip-2.1.2/src/core\altcp.c ****   if (conn == NULL) {
 142              		.loc 1 200 3 is_stmt 1
 200:C:/Users/stapi/OneDrive/Desktop/GD32VW553/GD32VW55X_Wifi_BLE_SDK/GD32VW55x_RELEASE_V1.0.2/MSDK/lwip/lwip-2.1.2/src/core\altcp.c ****   if (conn == NULL) {
 143              		.loc 1 200 10 is_stmt 0
 144 0024 C843     		lw	a0,4(a5)
 145 0026 0297     		jalr	a4
 146              	.LVL13:
 201:C:/Users/stapi/OneDrive/Desktop/GD32VW553/GD32VW55X_Wifi_BLE_SDK/GD32VW55x_RELEASE_V1.0.2/MSDK/lwip/lwip-2.1.2/src/core\altcp.c ****     /* allocation failed */
 147              		.loc 1 201 3 is_stmt 1
 148 0028 FDB7     		j	.L23
 149              		.cfi_endproc
 150              	.LFE8:
 152              		.section	.text.altcp_new_ip6,"ax",@progbits
 153              		.align	1
 154              		.globl	altcp_new_ip6
 156              	altcp_new_ip6:
 157              	.LFB6:
 165:C:/Users/stapi/OneDrive/Desktop/GD32VW553/GD32VW55X_Wifi_BLE_SDK/GD32VW55x_RELEASE_V1.0.2/MSDK/lwip/lwip-2.1.2/src/core\altcp.c ****   return altcp_new_ip_type(allocator, IPADDR_TYPE_V6);
 158              		.loc 1 165 1
 159              		.cfi_startproc
 160              	.LVL14:
 166:C:/Users/stapi/OneDrive/Desktop/GD32VW553/GD32VW55X_Wifi_BLE_SDK/GD32VW55x_RELEASE_V1.0.2/MSDK/lwip/lwip-2.1.2/src/core\altcp.c **** }
 161              		.loc 1 166 3
 166:C:/Users/stapi/OneDrive/Desktop/GD32VW553/GD32VW55X_Wifi_BLE_SDK/GD32VW55x_RELEASE_V1.0.2/MSDK/lwip/lwip-2.1.2/src/core\altcp.c **** }
 162              		.loc 1 166 10 is_stmt 0
 163 0000 9945     		li	a1,6
 164 0002 17030000 		tail	altcp_new_ip_type
 164      67000300 
 165              	.LVL15:
 166              		.cfi_endproc
 167              	.LFE6:
 169              		.section	.text.altcp_new,"ax",@progbits
 170              		.align	1
 171              		.globl	altcp_new
 173              	altcp_new:
 174              	.LFB7:
 175:C:/Users/stapi/OneDrive/Desktop/GD32VW553/GD32VW55X_Wifi_BLE_SDK/GD32VW55x_RELEASE_V1.0.2/MSDK/lwip/lwip-2.1.2/src/core\altcp.c ****   return altcp_new_ip_type(allocator, IPADDR_TYPE_V4);
 175              		.loc 1 175 1 is_stmt 1
 176              		.cfi_startproc
 177              	.LVL16:
 176:C:/Users/stapi/OneDrive/Desktop/GD32VW553/GD32VW55X_Wifi_BLE_SDK/GD32VW55x_RELEASE_V1.0.2/MSDK/lwip/lwip-2.1.2/src/core\altcp.c **** }
 178              		.loc 1 176 3
 176:C:/Users/stapi/OneDrive/Desktop/GD32VW553/GD32VW55X_Wifi_BLE_SDK/GD32VW55x_RELEASE_V1.0.2/MSDK/lwip/lwip-2.1.2/src/core\altcp.c **** }
 179              		.loc 1 176 10 is_stmt 0
 180 0000 8145     		li	a1,0
 181 0002 17030000 		tail	altcp_new_ip_type
 181      67000300 
 182              	.LVL17:
 183              		.cfi_endproc
 184              	.LFE7:
 186              		.section	.text.altcp_arg,"ax",@progbits
 187              		.align	1
 188              		.globl	altcp_arg
 190              	altcp_arg:
 191              	.LFB9:
 207:C:/Users/stapi/OneDrive/Desktop/GD32VW553/GD32VW55X_Wifi_BLE_SDK/GD32VW55x_RELEASE_V1.0.2/MSDK/lwip/lwip-2.1.2/src/core\altcp.c **** 
 208:C:/Users/stapi/OneDrive/Desktop/GD32VW553/GD32VW55X_Wifi_BLE_SDK/GD32VW55x_RELEASE_V1.0.2/MSDK/lwip/lwip-2.1.2/src/core\altcp.c **** /**
 209:C:/Users/stapi/OneDrive/Desktop/GD32VW553/GD32VW55X_Wifi_BLE_SDK/GD32VW55x_RELEASE_V1.0.2/MSDK/lwip/lwip-2.1.2/src/core\altcp.c ****  * @ingroup altcp
 210:C:/Users/stapi/OneDrive/Desktop/GD32VW553/GD32VW55X_Wifi_BLE_SDK/GD32VW55x_RELEASE_V1.0.2/MSDK/lwip/lwip-2.1.2/src/core\altcp.c ****  * @see tcp_arg()
 211:C:/Users/stapi/OneDrive/Desktop/GD32VW553/GD32VW55X_Wifi_BLE_SDK/GD32VW55x_RELEASE_V1.0.2/MSDK/lwip/lwip-2.1.2/src/core\altcp.c ****  */
 212:C:/Users/stapi/OneDrive/Desktop/GD32VW553/GD32VW55X_Wifi_BLE_SDK/GD32VW55x_RELEASE_V1.0.2/MSDK/lwip/lwip-2.1.2/src/core\altcp.c **** void
 213:C:/Users/stapi/OneDrive/Desktop/GD32VW553/GD32VW55X_Wifi_BLE_SDK/GD32VW55x_RELEASE_V1.0.2/MSDK/lwip/lwip-2.1.2/src/core\altcp.c **** altcp_arg(struct altcp_pcb *conn, void *arg)
 214:C:/Users/stapi/OneDrive/Desktop/GD32VW553/GD32VW55X_Wifi_BLE_SDK/GD32VW55x_RELEASE_V1.0.2/MSDK/lwip/lwip-2.1.2/src/core\altcp.c **** {
 192              		.loc 1 214 1 is_stmt 1
 193              		.cfi_startproc
 194              	.LVL18:
 215:C:/Users/stapi/OneDrive/Desktop/GD32VW553/GD32VW55X_Wifi_BLE_SDK/GD32VW55x_RELEASE_V1.0.2/MSDK/lwip/lwip-2.1.2/src/core\altcp.c ****   if (conn) {
 195              		.loc 1 215 3
 196              		.loc 1 215 6 is_stmt 0
 197 0000 11C1     		beq	a0,zero,.L32
 216:C:/Users/stapi/OneDrive/Desktop/GD32VW553/GD32VW55X_Wifi_BLE_SDK/GD32VW55x_RELEASE_V1.0.2/MSDK/lwip/lwip-2.1.2/src/core\altcp.c ****     conn->arg = arg;
 198              		.loc 1 216 5 is_stmt 1
 199              		.loc 1 216 15 is_stmt 0
 200 0002 0CC5     		sw	a1,8(a0)
 201              	.L32:
 217:C:/Users/stapi/OneDrive/Desktop/GD32VW553/GD32VW55X_Wifi_BLE_SDK/GD32VW55x_RELEASE_V1.0.2/MSDK/lwip/lwip-2.1.2/src/core\altcp.c ****   }
 218:C:/Users/stapi/OneDrive/Desktop/GD32VW553/GD32VW55X_Wifi_BLE_SDK/GD32VW55x_RELEASE_V1.0.2/MSDK/lwip/lwip-2.1.2/src/core\altcp.c **** }
 202              		.loc 1 218 1
 203 0004 8280     		ret
 204              		.cfi_endproc
 205              	.LFE9:
 207              		.section	.text.altcp_accept,"ax",@progbits
 208              		.align	1
 209              		.globl	altcp_accept
 211              	altcp_accept:
 212              	.LFB10:
 219:C:/Users/stapi/OneDrive/Desktop/GD32VW553/GD32VW55X_Wifi_BLE_SDK/GD32VW55x_RELEASE_V1.0.2/MSDK/lwip/lwip-2.1.2/src/core\altcp.c **** 
 220:C:/Users/stapi/OneDrive/Desktop/GD32VW553/GD32VW55X_Wifi_BLE_SDK/GD32VW55x_RELEASE_V1.0.2/MSDK/lwip/lwip-2.1.2/src/core\altcp.c **** /**
 221:C:/Users/stapi/OneDrive/Desktop/GD32VW553/GD32VW55X_Wifi_BLE_SDK/GD32VW55x_RELEASE_V1.0.2/MSDK/lwip/lwip-2.1.2/src/core\altcp.c ****  * @ingroup altcp
 222:C:/Users/stapi/OneDrive/Desktop/GD32VW553/GD32VW55X_Wifi_BLE_SDK/GD32VW55x_RELEASE_V1.0.2/MSDK/lwip/lwip-2.1.2/src/core\altcp.c ****  * @see tcp_accept()
 223:C:/Users/stapi/OneDrive/Desktop/GD32VW553/GD32VW55X_Wifi_BLE_SDK/GD32VW55x_RELEASE_V1.0.2/MSDK/lwip/lwip-2.1.2/src/core\altcp.c ****  */
 224:C:/Users/stapi/OneDrive/Desktop/GD32VW553/GD32VW55X_Wifi_BLE_SDK/GD32VW55x_RELEASE_V1.0.2/MSDK/lwip/lwip-2.1.2/src/core\altcp.c **** void
 225:C:/Users/stapi/OneDrive/Desktop/GD32VW553/GD32VW55X_Wifi_BLE_SDK/GD32VW55x_RELEASE_V1.0.2/MSDK/lwip/lwip-2.1.2/src/core\altcp.c **** altcp_accept(struct altcp_pcb *conn, altcp_accept_fn accept)
 226:C:/Users/stapi/OneDrive/Desktop/GD32VW553/GD32VW55X_Wifi_BLE_SDK/GD32VW55x_RELEASE_V1.0.2/MSDK/lwip/lwip-2.1.2/src/core\altcp.c **** {
 213              		.loc 1 226 1 is_stmt 1
 214              		.cfi_startproc
 215              	.LVL19:
 227:C:/Users/stapi/OneDrive/Desktop/GD32VW553/GD32VW55X_Wifi_BLE_SDK/GD32VW55x_RELEASE_V1.0.2/MSDK/lwip/lwip-2.1.2/src/core\altcp.c ****   if (conn != NULL) {
 216              		.loc 1 227 3
 217              		.loc 1 227 6 is_stmt 0
 218 0000 11C1     		beq	a0,zero,.L37
 228:C:/Users/stapi/OneDrive/Desktop/GD32VW553/GD32VW55X_Wifi_BLE_SDK/GD32VW55x_RELEASE_V1.0.2/MSDK/lwip/lwip-2.1.2/src/core\altcp.c ****     conn->accept = accept;
 219              		.loc 1 228 5 is_stmt 1
 220              		.loc 1 228 18 is_stmt 0
 221 0002 0CC9     		sw	a1,16(a0)
 222              	.L37:
 229:C:/Users/stapi/OneDrive/Desktop/GD32VW553/GD32VW55X_Wifi_BLE_SDK/GD32VW55x_RELEASE_V1.0.2/MSDK/lwip/lwip-2.1.2/src/core\altcp.c ****   }
 230:C:/Users/stapi/OneDrive/Desktop/GD32VW553/GD32VW55X_Wifi_BLE_SDK/GD32VW55x_RELEASE_V1.0.2/MSDK/lwip/lwip-2.1.2/src/core\altcp.c **** }
 223              		.loc 1 230 1
 224 0004 8280     		ret
 225              		.cfi_endproc
 226              	.LFE10:
 228              		.section	.text.altcp_recv,"ax",@progbits
 229              		.align	1
 230              		.globl	altcp_recv
 232              	altcp_recv:
 233              	.LFB11:
 231:C:/Users/stapi/OneDrive/Desktop/GD32VW553/GD32VW55X_Wifi_BLE_SDK/GD32VW55x_RELEASE_V1.0.2/MSDK/lwip/lwip-2.1.2/src/core\altcp.c **** 
 232:C:/Users/stapi/OneDrive/Desktop/GD32VW553/GD32VW55X_Wifi_BLE_SDK/GD32VW55x_RELEASE_V1.0.2/MSDK/lwip/lwip-2.1.2/src/core\altcp.c **** /**
 233:C:/Users/stapi/OneDrive/Desktop/GD32VW553/GD32VW55X_Wifi_BLE_SDK/GD32VW55x_RELEASE_V1.0.2/MSDK/lwip/lwip-2.1.2/src/core\altcp.c ****  * @ingroup altcp
 234:C:/Users/stapi/OneDrive/Desktop/GD32VW553/GD32VW55X_Wifi_BLE_SDK/GD32VW55x_RELEASE_V1.0.2/MSDK/lwip/lwip-2.1.2/src/core\altcp.c ****  * @see tcp_recv()
 235:C:/Users/stapi/OneDrive/Desktop/GD32VW553/GD32VW55X_Wifi_BLE_SDK/GD32VW55x_RELEASE_V1.0.2/MSDK/lwip/lwip-2.1.2/src/core\altcp.c ****  */
 236:C:/Users/stapi/OneDrive/Desktop/GD32VW553/GD32VW55X_Wifi_BLE_SDK/GD32VW55x_RELEASE_V1.0.2/MSDK/lwip/lwip-2.1.2/src/core\altcp.c **** void
 237:C:/Users/stapi/OneDrive/Desktop/GD32VW553/GD32VW55X_Wifi_BLE_SDK/GD32VW55x_RELEASE_V1.0.2/MSDK/lwip/lwip-2.1.2/src/core\altcp.c **** altcp_recv(struct altcp_pcb *conn, altcp_recv_fn recv)
 238:C:/Users/stapi/OneDrive/Desktop/GD32VW553/GD32VW55X_Wifi_BLE_SDK/GD32VW55x_RELEASE_V1.0.2/MSDK/lwip/lwip-2.1.2/src/core\altcp.c **** {
 234              		.loc 1 238 1 is_stmt 1
 235              		.cfi_startproc
 236              	.LVL20:
 239:C:/Users/stapi/OneDrive/Desktop/GD32VW553/GD32VW55X_Wifi_BLE_SDK/GD32VW55x_RELEASE_V1.0.2/MSDK/lwip/lwip-2.1.2/src/core\altcp.c ****   if (conn) {
 237              		.loc 1 239 3
 238              		.loc 1 239 6 is_stmt 0
 239 0000 11C1     		beq	a0,zero,.L42
 240:C:/Users/stapi/OneDrive/Desktop/GD32VW553/GD32VW55X_Wifi_BLE_SDK/GD32VW55x_RELEASE_V1.0.2/MSDK/lwip/lwip-2.1.2/src/core\altcp.c ****     conn->recv = recv;
 240              		.loc 1 240 5 is_stmt 1
 241              		.loc 1 240 16 is_stmt 0
 242 0002 0CCD     		sw	a1,24(a0)
 243              	.L42:
 241:C:/Users/stapi/OneDrive/Desktop/GD32VW553/GD32VW55X_Wifi_BLE_SDK/GD32VW55x_RELEASE_V1.0.2/MSDK/lwip/lwip-2.1.2/src/core\altcp.c ****   }
 242:C:/Users/stapi/OneDrive/Desktop/GD32VW553/GD32VW55X_Wifi_BLE_SDK/GD32VW55x_RELEASE_V1.0.2/MSDK/lwip/lwip-2.1.2/src/core\altcp.c **** }
 244              		.loc 1 242 1
 245 0004 8280     		ret
 246              		.cfi_endproc
 247              	.LFE11:
 249              		.section	.text.altcp_sent,"ax",@progbits
 250              		.align	1
 251              		.globl	altcp_sent
 253              	altcp_sent:
 254              	.LFB12:
 243:C:/Users/stapi/OneDrive/Desktop/GD32VW553/GD32VW55X_Wifi_BLE_SDK/GD32VW55x_RELEASE_V1.0.2/MSDK/lwip/lwip-2.1.2/src/core\altcp.c **** 
 244:C:/Users/stapi/OneDrive/Desktop/GD32VW553/GD32VW55X_Wifi_BLE_SDK/GD32VW55x_RELEASE_V1.0.2/MSDK/lwip/lwip-2.1.2/src/core\altcp.c **** /**
 245:C:/Users/stapi/OneDrive/Desktop/GD32VW553/GD32VW55X_Wifi_BLE_SDK/GD32VW55x_RELEASE_V1.0.2/MSDK/lwip/lwip-2.1.2/src/core\altcp.c ****  * @ingroup altcp
 246:C:/Users/stapi/OneDrive/Desktop/GD32VW553/GD32VW55X_Wifi_BLE_SDK/GD32VW55x_RELEASE_V1.0.2/MSDK/lwip/lwip-2.1.2/src/core\altcp.c ****  * @see tcp_sent()
 247:C:/Users/stapi/OneDrive/Desktop/GD32VW553/GD32VW55X_Wifi_BLE_SDK/GD32VW55x_RELEASE_V1.0.2/MSDK/lwip/lwip-2.1.2/src/core\altcp.c ****  */
 248:C:/Users/stapi/OneDrive/Desktop/GD32VW553/GD32VW55X_Wifi_BLE_SDK/GD32VW55x_RELEASE_V1.0.2/MSDK/lwip/lwip-2.1.2/src/core\altcp.c **** void
 249:C:/Users/stapi/OneDrive/Desktop/GD32VW553/GD32VW55X_Wifi_BLE_SDK/GD32VW55x_RELEASE_V1.0.2/MSDK/lwip/lwip-2.1.2/src/core\altcp.c **** altcp_sent(struct altcp_pcb *conn, altcp_sent_fn sent)
 250:C:/Users/stapi/OneDrive/Desktop/GD32VW553/GD32VW55X_Wifi_BLE_SDK/GD32VW55x_RELEASE_V1.0.2/MSDK/lwip/lwip-2.1.2/src/core\altcp.c **** {
 255              		.loc 1 250 1 is_stmt 1
 256              		.cfi_startproc
 257              	.LVL21:
 251:C:/Users/stapi/OneDrive/Desktop/GD32VW553/GD32VW55X_Wifi_BLE_SDK/GD32VW55x_RELEASE_V1.0.2/MSDK/lwip/lwip-2.1.2/src/core\altcp.c ****   if (conn) {
 258              		.loc 1 251 3
 259              		.loc 1 251 6 is_stmt 0
 260 0000 11C1     		beq	a0,zero,.L47
 252:C:/Users/stapi/OneDrive/Desktop/GD32VW553/GD32VW55X_Wifi_BLE_SDK/GD32VW55x_RELEASE_V1.0.2/MSDK/lwip/lwip-2.1.2/src/core\altcp.c ****     conn->sent = sent;
 261              		.loc 1 252 5 is_stmt 1
 262              		.loc 1 252 16 is_stmt 0
 263 0002 4CCD     		sw	a1,28(a0)
 264              	.L47:
 253:C:/Users/stapi/OneDrive/Desktop/GD32VW553/GD32VW55X_Wifi_BLE_SDK/GD32VW55x_RELEASE_V1.0.2/MSDK/lwip/lwip-2.1.2/src/core\altcp.c ****   }
 254:C:/Users/stapi/OneDrive/Desktop/GD32VW553/GD32VW55X_Wifi_BLE_SDK/GD32VW55x_RELEASE_V1.0.2/MSDK/lwip/lwip-2.1.2/src/core\altcp.c **** }
 265              		.loc 1 254 1
 266 0004 8280     		ret
 267              		.cfi_endproc
 268              	.LFE12:
 270              		.section	.text.altcp_poll,"ax",@progbits
 271              		.align	1
 272              		.globl	altcp_poll
 274              	altcp_poll:
 275              	.LFB13:
 255:C:/Users/stapi/OneDrive/Desktop/GD32VW553/GD32VW55X_Wifi_BLE_SDK/GD32VW55x_RELEASE_V1.0.2/MSDK/lwip/lwip-2.1.2/src/core\altcp.c **** 
 256:C:/Users/stapi/OneDrive/Desktop/GD32VW553/GD32VW55X_Wifi_BLE_SDK/GD32VW55x_RELEASE_V1.0.2/MSDK/lwip/lwip-2.1.2/src/core\altcp.c **** /**
 257:C:/Users/stapi/OneDrive/Desktop/GD32VW553/GD32VW55X_Wifi_BLE_SDK/GD32VW55x_RELEASE_V1.0.2/MSDK/lwip/lwip-2.1.2/src/core\altcp.c ****  * @ingroup altcp
 258:C:/Users/stapi/OneDrive/Desktop/GD32VW553/GD32VW55X_Wifi_BLE_SDK/GD32VW55x_RELEASE_V1.0.2/MSDK/lwip/lwip-2.1.2/src/core\altcp.c ****  * @see tcp_poll()
 259:C:/Users/stapi/OneDrive/Desktop/GD32VW553/GD32VW55X_Wifi_BLE_SDK/GD32VW55x_RELEASE_V1.0.2/MSDK/lwip/lwip-2.1.2/src/core\altcp.c ****  */
 260:C:/Users/stapi/OneDrive/Desktop/GD32VW553/GD32VW55X_Wifi_BLE_SDK/GD32VW55x_RELEASE_V1.0.2/MSDK/lwip/lwip-2.1.2/src/core\altcp.c **** void
 261:C:/Users/stapi/OneDrive/Desktop/GD32VW553/GD32VW55X_Wifi_BLE_SDK/GD32VW55x_RELEASE_V1.0.2/MSDK/lwip/lwip-2.1.2/src/core\altcp.c **** altcp_poll(struct altcp_pcb *conn, altcp_poll_fn poll, u8_t interval)
 262:C:/Users/stapi/OneDrive/Desktop/GD32VW553/GD32VW55X_Wifi_BLE_SDK/GD32VW55x_RELEASE_V1.0.2/MSDK/lwip/lwip-2.1.2/src/core\altcp.c **** {
 276              		.loc 1 262 1 is_stmt 1
 277              		.cfi_startproc
 278              	.LVL22:
 263:C:/Users/stapi/OneDrive/Desktop/GD32VW553/GD32VW55X_Wifi_BLE_SDK/GD32VW55x_RELEASE_V1.0.2/MSDK/lwip/lwip-2.1.2/src/core\altcp.c ****   if (conn) {
 279              		.loc 1 263 3
 280              		.loc 1 263 6 is_stmt 0
 281 0000 19C9     		beq	a0,zero,.L63
 264:C:/Users/stapi/OneDrive/Desktop/GD32VW553/GD32VW55X_Wifi_BLE_SDK/GD32VW55x_RELEASE_V1.0.2/MSDK/lwip/lwip-2.1.2/src/core\altcp.c ****     conn->poll = poll;
 265:C:/Users/stapi/OneDrive/Desktop/GD32VW553/GD32VW55X_Wifi_BLE_SDK/GD32VW55x_RELEASE_V1.0.2/MSDK/lwip/lwip-2.1.2/src/core\altcp.c ****     conn->pollinterval = interval;
 266:C:/Users/stapi/OneDrive/Desktop/GD32VW553/GD32VW55X_Wifi_BLE_SDK/GD32VW55x_RELEASE_V1.0.2/MSDK/lwip/lwip-2.1.2/src/core\altcp.c ****     if (conn->fns && conn->fns->set_poll) {
 282              		.loc 1 266 13
 283 0002 1C41     		lw	a5,0(a0)
 284 0004 2E87     		mv	a4,a1
 264:C:/Users/stapi/OneDrive/Desktop/GD32VW553/GD32VW55X_Wifi_BLE_SDK/GD32VW55x_RELEASE_V1.0.2/MSDK/lwip/lwip-2.1.2/src/core\altcp.c ****     conn->poll = poll;
 285              		.loc 1 264 16
 286 0006 18D1     		sw	a4,32(a0)
 265:C:/Users/stapi/OneDrive/Desktop/GD32VW553/GD32VW55X_Wifi_BLE_SDK/GD32VW55x_RELEASE_V1.0.2/MSDK/lwip/lwip-2.1.2/src/core\altcp.c ****     if (conn->fns && conn->fns->set_poll) {
 287              		.loc 1 265 24
 288 0008 2304C502 		sb	a2,40(a0)
 289 000c B285     		mv	a1,a2
 290              	.LVL23:
 264:C:/Users/stapi/OneDrive/Desktop/GD32VW553/GD32VW55X_Wifi_BLE_SDK/GD32VW55x_RELEASE_V1.0.2/MSDK/lwip/lwip-2.1.2/src/core\altcp.c ****     conn->poll = poll;
 291              		.loc 1 264 5 is_stmt 1
 265:C:/Users/stapi/OneDrive/Desktop/GD32VW553/GD32VW55X_Wifi_BLE_SDK/GD32VW55x_RELEASE_V1.0.2/MSDK/lwip/lwip-2.1.2/src/core\altcp.c ****     if (conn->fns && conn->fns->set_poll) {
 292              		.loc 1 265 5
 293              		.loc 1 266 5
 294              		.loc 1 266 8 is_stmt 0
 295 000e 81C7     		beq	a5,zero,.L63
 296              		.loc 1 266 31 discriminator 1
 297 0010 9C43     		lw	a5,0(a5)
 298              		.loc 1 266 19 discriminator 1
 299 0012 91C3     		beq	a5,zero,.L63
 267:C:/Users/stapi/OneDrive/Desktop/GD32VW553/GD32VW55X_Wifi_BLE_SDK/GD32VW55x_RELEASE_V1.0.2/MSDK/lwip/lwip-2.1.2/src/core\altcp.c ****       conn->fns->set_poll(conn, interval);
 300              		.loc 1 267 7 is_stmt 1
 301 0014 8287     		jr	a5
 302              	.LVL24:
 303              	.L63:
 304 0016 8280     		ret
 305              		.cfi_endproc
 306              	.LFE13:
 308              		.section	.text.altcp_err,"ax",@progbits
 309              		.align	1
 310              		.globl	altcp_err
 312              	altcp_err:
 313              	.LFB14:
 268:C:/Users/stapi/OneDrive/Desktop/GD32VW553/GD32VW55X_Wifi_BLE_SDK/GD32VW55x_RELEASE_V1.0.2/MSDK/lwip/lwip-2.1.2/src/core\altcp.c ****     }
 269:C:/Users/stapi/OneDrive/Desktop/GD32VW553/GD32VW55X_Wifi_BLE_SDK/GD32VW55x_RELEASE_V1.0.2/MSDK/lwip/lwip-2.1.2/src/core\altcp.c ****   }
 270:C:/Users/stapi/OneDrive/Desktop/GD32VW553/GD32VW55X_Wifi_BLE_SDK/GD32VW55x_RELEASE_V1.0.2/MSDK/lwip/lwip-2.1.2/src/core\altcp.c **** }
 271:C:/Users/stapi/OneDrive/Desktop/GD32VW553/GD32VW55X_Wifi_BLE_SDK/GD32VW55x_RELEASE_V1.0.2/MSDK/lwip/lwip-2.1.2/src/core\altcp.c **** 
 272:C:/Users/stapi/OneDrive/Desktop/GD32VW553/GD32VW55X_Wifi_BLE_SDK/GD32VW55x_RELEASE_V1.0.2/MSDK/lwip/lwip-2.1.2/src/core\altcp.c **** /**
 273:C:/Users/stapi/OneDrive/Desktop/GD32VW553/GD32VW55X_Wifi_BLE_SDK/GD32VW55x_RELEASE_V1.0.2/MSDK/lwip/lwip-2.1.2/src/core\altcp.c ****  * @ingroup altcp
 274:C:/Users/stapi/OneDrive/Desktop/GD32VW553/GD32VW55X_Wifi_BLE_SDK/GD32VW55x_RELEASE_V1.0.2/MSDK/lwip/lwip-2.1.2/src/core\altcp.c ****  * @see tcp_err()
 275:C:/Users/stapi/OneDrive/Desktop/GD32VW553/GD32VW55X_Wifi_BLE_SDK/GD32VW55x_RELEASE_V1.0.2/MSDK/lwip/lwip-2.1.2/src/core\altcp.c ****  */
 276:C:/Users/stapi/OneDrive/Desktop/GD32VW553/GD32VW55X_Wifi_BLE_SDK/GD32VW55x_RELEASE_V1.0.2/MSDK/lwip/lwip-2.1.2/src/core\altcp.c **** void
 277:C:/Users/stapi/OneDrive/Desktop/GD32VW553/GD32VW55X_Wifi_BLE_SDK/GD32VW55x_RELEASE_V1.0.2/MSDK/lwip/lwip-2.1.2/src/core\altcp.c **** altcp_err(struct altcp_pcb *conn, altcp_err_fn err)
 278:C:/Users/stapi/OneDrive/Desktop/GD32VW553/GD32VW55X_Wifi_BLE_SDK/GD32VW55x_RELEASE_V1.0.2/MSDK/lwip/lwip-2.1.2/src/core\altcp.c **** {
 314              		.loc 1 278 1
 315              		.cfi_startproc
 316              	.LVL25:
 279:C:/Users/stapi/OneDrive/Desktop/GD32VW553/GD32VW55X_Wifi_BLE_SDK/GD32VW55x_RELEASE_V1.0.2/MSDK/lwip/lwip-2.1.2/src/core\altcp.c ****   if (conn) {
 317              		.loc 1 279 3
 318              		.loc 1 279 6 is_stmt 0
 319 0000 11C1     		beq	a0,zero,.L66
 280:C:/Users/stapi/OneDrive/Desktop/GD32VW553/GD32VW55X_Wifi_BLE_SDK/GD32VW55x_RELEASE_V1.0.2/MSDK/lwip/lwip-2.1.2/src/core\altcp.c ****     conn->err = err;
 320              		.loc 1 280 5 is_stmt 1
 321              		.loc 1 280 15 is_stmt 0
 322 0002 4CD1     		sw	a1,36(a0)
 323              	.L66:
 281:C:/Users/stapi/OneDrive/Desktop/GD32VW553/GD32VW55X_Wifi_BLE_SDK/GD32VW55x_RELEASE_V1.0.2/MSDK/lwip/lwip-2.1.2/src/core\altcp.c ****   }
 282:C:/Users/stapi/OneDrive/Desktop/GD32VW553/GD32VW55X_Wifi_BLE_SDK/GD32VW55x_RELEASE_V1.0.2/MSDK/lwip/lwip-2.1.2/src/core\altcp.c **** }
 324              		.loc 1 282 1
 325 0004 8280     		ret
 326              		.cfi_endproc
 327              	.LFE14:
 329              		.section	.text.altcp_recved,"ax",@progbits
 330              		.align	1
 331              		.globl	altcp_recved
 333              	altcp_recved:
 334              	.LFB15:
 283:C:/Users/stapi/OneDrive/Desktop/GD32VW553/GD32VW55X_Wifi_BLE_SDK/GD32VW55x_RELEASE_V1.0.2/MSDK/lwip/lwip-2.1.2/src/core\altcp.c **** 
 284:C:/Users/stapi/OneDrive/Desktop/GD32VW553/GD32VW55X_Wifi_BLE_SDK/GD32VW55x_RELEASE_V1.0.2/MSDK/lwip/lwip-2.1.2/src/core\altcp.c **** /* Generic functions calling the "virtual" ones */
 285:C:/Users/stapi/OneDrive/Desktop/GD32VW553/GD32VW55X_Wifi_BLE_SDK/GD32VW55x_RELEASE_V1.0.2/MSDK/lwip/lwip-2.1.2/src/core\altcp.c **** 
 286:C:/Users/stapi/OneDrive/Desktop/GD32VW553/GD32VW55X_Wifi_BLE_SDK/GD32VW55x_RELEASE_V1.0.2/MSDK/lwip/lwip-2.1.2/src/core\altcp.c **** /**
 287:C:/Users/stapi/OneDrive/Desktop/GD32VW553/GD32VW55X_Wifi_BLE_SDK/GD32VW55x_RELEASE_V1.0.2/MSDK/lwip/lwip-2.1.2/src/core\altcp.c ****  * @ingroup altcp
 288:C:/Users/stapi/OneDrive/Desktop/GD32VW553/GD32VW55X_Wifi_BLE_SDK/GD32VW55x_RELEASE_V1.0.2/MSDK/lwip/lwip-2.1.2/src/core\altcp.c ****  * @see tcp_recved()
 289:C:/Users/stapi/OneDrive/Desktop/GD32VW553/GD32VW55X_Wifi_BLE_SDK/GD32VW55x_RELEASE_V1.0.2/MSDK/lwip/lwip-2.1.2/src/core\altcp.c ****  */
 290:C:/Users/stapi/OneDrive/Desktop/GD32VW553/GD32VW55X_Wifi_BLE_SDK/GD32VW55x_RELEASE_V1.0.2/MSDK/lwip/lwip-2.1.2/src/core\altcp.c **** void
 291:C:/Users/stapi/OneDrive/Desktop/GD32VW553/GD32VW55X_Wifi_BLE_SDK/GD32VW55x_RELEASE_V1.0.2/MSDK/lwip/lwip-2.1.2/src/core\altcp.c **** altcp_recved(struct altcp_pcb *conn, u16_t len)
 292:C:/Users/stapi/OneDrive/Desktop/GD32VW553/GD32VW55X_Wifi_BLE_SDK/GD32VW55x_RELEASE_V1.0.2/MSDK/lwip/lwip-2.1.2/src/core\altcp.c **** {
 335              		.loc 1 292 1 is_stmt 1
 336              		.cfi_startproc
 337              	.LVL26:
 293:C:/Users/stapi/OneDrive/Desktop/GD32VW553/GD32VW55X_Wifi_BLE_SDK/GD32VW55x_RELEASE_V1.0.2/MSDK/lwip/lwip-2.1.2/src/core\altcp.c ****   if (conn && conn->fns && conn->fns->recved) {
 338              		.loc 1 293 3
 339              		.loc 1 293 6 is_stmt 0
 340 0000 11C5     		beq	a0,zero,.L83
 341              		.loc 1 293 19 discriminator 1
 342 0002 1C41     		lw	a5,0(a0)
 343              		.loc 1 293 12 discriminator 1
 344 0004 81C7     		beq	a5,zero,.L83
 345              		.loc 1 293 37 discriminator 2
 346 0006 DC43     		lw	a5,4(a5)
 347              		.loc 1 293 25 discriminator 2
 348 0008 91C3     		beq	a5,zero,.L83
 294:C:/Users/stapi/OneDrive/Desktop/GD32VW553/GD32VW55X_Wifi_BLE_SDK/GD32VW55x_RELEASE_V1.0.2/MSDK/lwip/lwip-2.1.2/src/core\altcp.c ****     conn->fns->recved(conn, len);
 349              		.loc 1 294 5 is_stmt 1
 350 000a 8287     		jr	a5
 351              	.LVL27:
 352              	.L83:
 353 000c 8280     		ret
 354              		.cfi_endproc
 355              	.LFE15:
 357              		.section	.text.altcp_bind,"ax",@progbits
 358              		.align	1
 359              		.globl	altcp_bind
 361              	altcp_bind:
 362              	.LFB16:
 295:C:/Users/stapi/OneDrive/Desktop/GD32VW553/GD32VW55X_Wifi_BLE_SDK/GD32VW55x_RELEASE_V1.0.2/MSDK/lwip/lwip-2.1.2/src/core\altcp.c ****   }
 296:C:/Users/stapi/OneDrive/Desktop/GD32VW553/GD32VW55X_Wifi_BLE_SDK/GD32VW55x_RELEASE_V1.0.2/MSDK/lwip/lwip-2.1.2/src/core\altcp.c **** }
 297:C:/Users/stapi/OneDrive/Desktop/GD32VW553/GD32VW55X_Wifi_BLE_SDK/GD32VW55x_RELEASE_V1.0.2/MSDK/lwip/lwip-2.1.2/src/core\altcp.c **** 
 298:C:/Users/stapi/OneDrive/Desktop/GD32VW553/GD32VW55X_Wifi_BLE_SDK/GD32VW55x_RELEASE_V1.0.2/MSDK/lwip/lwip-2.1.2/src/core\altcp.c **** /**
 299:C:/Users/stapi/OneDrive/Desktop/GD32VW553/GD32VW55X_Wifi_BLE_SDK/GD32VW55x_RELEASE_V1.0.2/MSDK/lwip/lwip-2.1.2/src/core\altcp.c ****  * @ingroup altcp
 300:C:/Users/stapi/OneDrive/Desktop/GD32VW553/GD32VW55X_Wifi_BLE_SDK/GD32VW55x_RELEASE_V1.0.2/MSDK/lwip/lwip-2.1.2/src/core\altcp.c ****  * @see tcp_bind()
 301:C:/Users/stapi/OneDrive/Desktop/GD32VW553/GD32VW55X_Wifi_BLE_SDK/GD32VW55x_RELEASE_V1.0.2/MSDK/lwip/lwip-2.1.2/src/core\altcp.c ****  */
 302:C:/Users/stapi/OneDrive/Desktop/GD32VW553/GD32VW55X_Wifi_BLE_SDK/GD32VW55x_RELEASE_V1.0.2/MSDK/lwip/lwip-2.1.2/src/core\altcp.c **** err_t
 303:C:/Users/stapi/OneDrive/Desktop/GD32VW553/GD32VW55X_Wifi_BLE_SDK/GD32VW55x_RELEASE_V1.0.2/MSDK/lwip/lwip-2.1.2/src/core\altcp.c **** altcp_bind(struct altcp_pcb *conn, const ip_addr_t *ipaddr, u16_t port)
 304:C:/Users/stapi/OneDrive/Desktop/GD32VW553/GD32VW55X_Wifi_BLE_SDK/GD32VW55x_RELEASE_V1.0.2/MSDK/lwip/lwip-2.1.2/src/core\altcp.c **** {
 363              		.loc 1 304 1
 364              		.cfi_startproc
 365              	.LVL28:
 305:C:/Users/stapi/OneDrive/Desktop/GD32VW553/GD32VW55X_Wifi_BLE_SDK/GD32VW55x_RELEASE_V1.0.2/MSDK/lwip/lwip-2.1.2/src/core\altcp.c ****   if (conn && conn->fns && conn->fns->bind) {
 366              		.loc 1 305 3
 367              		.loc 1 305 6 is_stmt 0
 368 0000 19C5     		beq	a0,zero,.L88
 369              		.loc 1 305 19 discriminator 1
 370 0002 1841     		lw	a4,0(a0)
 306:C:/Users/stapi/OneDrive/Desktop/GD32VW553/GD32VW55X_Wifi_BLE_SDK/GD32VW55x_RELEASE_V1.0.2/MSDK/lwip/lwip-2.1.2/src/core\altcp.c ****     return conn->fns->bind(conn, ipaddr, port);
 307:C:/Users/stapi/OneDrive/Desktop/GD32VW553/GD32VW55X_Wifi_BLE_SDK/GD32VW55x_RELEASE_V1.0.2/MSDK/lwip/lwip-2.1.2/src/core\altcp.c ****   }
 308:C:/Users/stapi/OneDrive/Desktop/GD32VW553/GD32VW55X_Wifi_BLE_SDK/GD32VW55x_RELEASE_V1.0.2/MSDK/lwip/lwip-2.1.2/src/core\altcp.c ****   return ERR_VAL;
 371              		.loc 1 308 10 discriminator 1
 372 0004 E957     		li	a5,-6
 305:C:/Users/stapi/OneDrive/Desktop/GD32VW553/GD32VW55X_Wifi_BLE_SDK/GD32VW55x_RELEASE_V1.0.2/MSDK/lwip/lwip-2.1.2/src/core\altcp.c ****   if (conn && conn->fns && conn->fns->bind) {
 373              		.loc 1 305 12 discriminator 1
 374 0006 09C7     		beq	a4,zero,.L92
 305:C:/Users/stapi/OneDrive/Desktop/GD32VW553/GD32VW55X_Wifi_BLE_SDK/GD32VW55x_RELEASE_V1.0.2/MSDK/lwip/lwip-2.1.2/src/core\altcp.c ****   if (conn && conn->fns && conn->fns->bind) {
 375              		.loc 1 305 37 discriminator 2
 376 0008 1847     		lw	a4,8(a4)
 305:C:/Users/stapi/OneDrive/Desktop/GD32VW553/GD32VW55X_Wifi_BLE_SDK/GD32VW55x_RELEASE_V1.0.2/MSDK/lwip/lwip-2.1.2/src/core\altcp.c ****   if (conn && conn->fns && conn->fns->bind) {
 377              		.loc 1 305 25 discriminator 2
 378 000a 19C3     		beq	a4,zero,.L92
 306:C:/Users/stapi/OneDrive/Desktop/GD32VW553/GD32VW55X_Wifi_BLE_SDK/GD32VW55x_RELEASE_V1.0.2/MSDK/lwip/lwip-2.1.2/src/core\altcp.c ****     return conn->fns->bind(conn, ipaddr, port);
 379              		.loc 1 306 5 is_stmt 1
 306:C:/Users/stapi/OneDrive/Desktop/GD32VW553/GD32VW55X_Wifi_BLE_SDK/GD32VW55x_RELEASE_V1.0.2/MSDK/lwip/lwip-2.1.2/src/core\altcp.c ****     return conn->fns->bind(conn, ipaddr, port);
 380              		.loc 1 306 12 is_stmt 0
 381 000c 0287     		jr	a4
 382              	.LVL29:
 383              	.L88:
 384              		.loc 1 308 10
 385 000e E957     		li	a5,-6
 386              	.L92:
 309:C:/Users/stapi/OneDrive/Desktop/GD32VW553/GD32VW55X_Wifi_BLE_SDK/GD32VW55x_RELEASE_V1.0.2/MSDK/lwip/lwip-2.1.2/src/core\altcp.c **** }
 387              		.loc 1 309 1
 388 0010 3E85     		mv	a0,a5
 389              	.LVL30:
 390 0012 8280     		ret
 391              		.cfi_endproc
 392              	.LFE16:
 394              		.section	.text.altcp_connect,"ax",@progbits
 395              		.align	1
 396              		.globl	altcp_connect
 398              	altcp_connect:
 399              	.LFB17:
 310:C:/Users/stapi/OneDrive/Desktop/GD32VW553/GD32VW55X_Wifi_BLE_SDK/GD32VW55x_RELEASE_V1.0.2/MSDK/lwip/lwip-2.1.2/src/core\altcp.c **** 
 311:C:/Users/stapi/OneDrive/Desktop/GD32VW553/GD32VW55X_Wifi_BLE_SDK/GD32VW55x_RELEASE_V1.0.2/MSDK/lwip/lwip-2.1.2/src/core\altcp.c **** /**
 312:C:/Users/stapi/OneDrive/Desktop/GD32VW553/GD32VW55X_Wifi_BLE_SDK/GD32VW55x_RELEASE_V1.0.2/MSDK/lwip/lwip-2.1.2/src/core\altcp.c ****  * @ingroup altcp
 313:C:/Users/stapi/OneDrive/Desktop/GD32VW553/GD32VW55X_Wifi_BLE_SDK/GD32VW55x_RELEASE_V1.0.2/MSDK/lwip/lwip-2.1.2/src/core\altcp.c ****  * @see tcp_connect()
 314:C:/Users/stapi/OneDrive/Desktop/GD32VW553/GD32VW55X_Wifi_BLE_SDK/GD32VW55x_RELEASE_V1.0.2/MSDK/lwip/lwip-2.1.2/src/core\altcp.c ****  */
 315:C:/Users/stapi/OneDrive/Desktop/GD32VW553/GD32VW55X_Wifi_BLE_SDK/GD32VW55x_RELEASE_V1.0.2/MSDK/lwip/lwip-2.1.2/src/core\altcp.c **** err_t
 316:C:/Users/stapi/OneDrive/Desktop/GD32VW553/GD32VW55X_Wifi_BLE_SDK/GD32VW55x_RELEASE_V1.0.2/MSDK/lwip/lwip-2.1.2/src/core\altcp.c **** altcp_connect(struct altcp_pcb *conn, const ip_addr_t *ipaddr, u16_t port, altcp_connected_fn conne
 317:C:/Users/stapi/OneDrive/Desktop/GD32VW553/GD32VW55X_Wifi_BLE_SDK/GD32VW55x_RELEASE_V1.0.2/MSDK/lwip/lwip-2.1.2/src/core\altcp.c **** {
 400              		.loc 1 317 1 is_stmt 1
 401              		.cfi_startproc
 402              	.LVL31:
 318:C:/Users/stapi/OneDrive/Desktop/GD32VW553/GD32VW55X_Wifi_BLE_SDK/GD32VW55x_RELEASE_V1.0.2/MSDK/lwip/lwip-2.1.2/src/core\altcp.c ****   if (conn && conn->fns && conn->fns->connect) {
 403              		.loc 1 318 3
 404              		.loc 1 318 6 is_stmt 0
 405 0000 19C5     		beq	a0,zero,.L97
 406              		.loc 1 318 19 discriminator 1
 407 0002 1841     		lw	a4,0(a0)
 319:C:/Users/stapi/OneDrive/Desktop/GD32VW553/GD32VW55X_Wifi_BLE_SDK/GD32VW55x_RELEASE_V1.0.2/MSDK/lwip/lwip-2.1.2/src/core\altcp.c ****     return conn->fns->connect(conn, ipaddr, port, connected);
 320:C:/Users/stapi/OneDrive/Desktop/GD32VW553/GD32VW55X_Wifi_BLE_SDK/GD32VW55x_RELEASE_V1.0.2/MSDK/lwip/lwip-2.1.2/src/core\altcp.c ****   }
 321:C:/Users/stapi/OneDrive/Desktop/GD32VW553/GD32VW55X_Wifi_BLE_SDK/GD32VW55x_RELEASE_V1.0.2/MSDK/lwip/lwip-2.1.2/src/core\altcp.c ****   return ERR_VAL;
 408              		.loc 1 321 10 discriminator 1
 409 0004 E957     		li	a5,-6
 318:C:/Users/stapi/OneDrive/Desktop/GD32VW553/GD32VW55X_Wifi_BLE_SDK/GD32VW55x_RELEASE_V1.0.2/MSDK/lwip/lwip-2.1.2/src/core\altcp.c ****   if (conn && conn->fns && conn->fns->connect) {
 410              		.loc 1 318 12 discriminator 1
 411 0006 09C7     		beq	a4,zero,.L101
 318:C:/Users/stapi/OneDrive/Desktop/GD32VW553/GD32VW55X_Wifi_BLE_SDK/GD32VW55x_RELEASE_V1.0.2/MSDK/lwip/lwip-2.1.2/src/core\altcp.c ****   if (conn && conn->fns && conn->fns->connect) {
 412              		.loc 1 318 37 discriminator 2
 413 0008 5847     		lw	a4,12(a4)
 318:C:/Users/stapi/OneDrive/Desktop/GD32VW553/GD32VW55X_Wifi_BLE_SDK/GD32VW55x_RELEASE_V1.0.2/MSDK/lwip/lwip-2.1.2/src/core\altcp.c ****   if (conn && conn->fns && conn->fns->connect) {
 414              		.loc 1 318 25 discriminator 2
 415 000a 19C3     		beq	a4,zero,.L101
 319:C:/Users/stapi/OneDrive/Desktop/GD32VW553/GD32VW55X_Wifi_BLE_SDK/GD32VW55x_RELEASE_V1.0.2/MSDK/lwip/lwip-2.1.2/src/core\altcp.c ****     return conn->fns->connect(conn, ipaddr, port, connected);
 416              		.loc 1 319 5 is_stmt 1
 319:C:/Users/stapi/OneDrive/Desktop/GD32VW553/GD32VW55X_Wifi_BLE_SDK/GD32VW55x_RELEASE_V1.0.2/MSDK/lwip/lwip-2.1.2/src/core\altcp.c ****     return conn->fns->connect(conn, ipaddr, port, connected);
 417              		.loc 1 319 12 is_stmt 0
 418 000c 0287     		jr	a4
 419              	.LVL32:
 420              	.L97:
 421              		.loc 1 321 10
 422 000e E957     		li	a5,-6
 423              	.L101:
 322:C:/Users/stapi/OneDrive/Desktop/GD32VW553/GD32VW55X_Wifi_BLE_SDK/GD32VW55x_RELEASE_V1.0.2/MSDK/lwip/lwip-2.1.2/src/core\altcp.c **** }
 424              		.loc 1 322 1
 425 0010 3E85     		mv	a0,a5
 426              	.LVL33:
 427 0012 8280     		ret
 428              		.cfi_endproc
 429              	.LFE17:
 431              		.section	.text.altcp_listen_with_backlog_and_err,"ax",@progbits
 432              		.align	1
 433              		.globl	altcp_listen_with_backlog_and_err
 435              	altcp_listen_with_backlog_and_err:
 436              	.LFB18:
 323:C:/Users/stapi/OneDrive/Desktop/GD32VW553/GD32VW55X_Wifi_BLE_SDK/GD32VW55x_RELEASE_V1.0.2/MSDK/lwip/lwip-2.1.2/src/core\altcp.c **** 
 324:C:/Users/stapi/OneDrive/Desktop/GD32VW553/GD32VW55X_Wifi_BLE_SDK/GD32VW55x_RELEASE_V1.0.2/MSDK/lwip/lwip-2.1.2/src/core\altcp.c **** /**
 325:C:/Users/stapi/OneDrive/Desktop/GD32VW553/GD32VW55X_Wifi_BLE_SDK/GD32VW55x_RELEASE_V1.0.2/MSDK/lwip/lwip-2.1.2/src/core\altcp.c ****  * @ingroup altcp
 326:C:/Users/stapi/OneDrive/Desktop/GD32VW553/GD32VW55X_Wifi_BLE_SDK/GD32VW55x_RELEASE_V1.0.2/MSDK/lwip/lwip-2.1.2/src/core\altcp.c ****  * @see tcp_listen_with_backlog_and_err()
 327:C:/Users/stapi/OneDrive/Desktop/GD32VW553/GD32VW55X_Wifi_BLE_SDK/GD32VW55x_RELEASE_V1.0.2/MSDK/lwip/lwip-2.1.2/src/core\altcp.c ****  */
 328:C:/Users/stapi/OneDrive/Desktop/GD32VW553/GD32VW55X_Wifi_BLE_SDK/GD32VW55x_RELEASE_V1.0.2/MSDK/lwip/lwip-2.1.2/src/core\altcp.c **** struct altcp_pcb *
 329:C:/Users/stapi/OneDrive/Desktop/GD32VW553/GD32VW55X_Wifi_BLE_SDK/GD32VW55x_RELEASE_V1.0.2/MSDK/lwip/lwip-2.1.2/src/core\altcp.c **** altcp_listen_with_backlog_and_err(struct altcp_pcb *conn, u8_t backlog, err_t *err)
 330:C:/Users/stapi/OneDrive/Desktop/GD32VW553/GD32VW55X_Wifi_BLE_SDK/GD32VW55x_RELEASE_V1.0.2/MSDK/lwip/lwip-2.1.2/src/core\altcp.c **** {
 437              		.loc 1 330 1 is_stmt 1
 438              		.cfi_startproc
 439              	.LVL34:
 331:C:/Users/stapi/OneDrive/Desktop/GD32VW553/GD32VW55X_Wifi_BLE_SDK/GD32VW55x_RELEASE_V1.0.2/MSDK/lwip/lwip-2.1.2/src/core\altcp.c ****   if (conn && conn->fns && conn->fns->listen) {
 440              		.loc 1 331 3
 441              		.loc 1 331 6 is_stmt 0
 442 0000 19C5     		beq	a0,zero,.L106
 443              		.loc 1 331 19 discriminator 1
 444 0002 1C41     		lw	a5,0(a0)
 445              		.loc 1 331 12 discriminator 1
 446 0004 91C7     		beq	a5,zero,.L112
 447              		.loc 1 331 37 discriminator 2
 448 0006 984B     		lw	a4,16(a5)
 332:C:/Users/stapi/OneDrive/Desktop/GD32VW553/GD32VW55X_Wifi_BLE_SDK/GD32VW55x_RELEASE_V1.0.2/MSDK/lwip/lwip-2.1.2/src/core\altcp.c ****     return conn->fns->listen(conn, backlog, err);
 333:C:/Users/stapi/OneDrive/Desktop/GD32VW553/GD32VW55X_Wifi_BLE_SDK/GD32VW55x_RELEASE_V1.0.2/MSDK/lwip/lwip-2.1.2/src/core\altcp.c ****   }
 334:C:/Users/stapi/OneDrive/Desktop/GD32VW553/GD32VW55X_Wifi_BLE_SDK/GD32VW55x_RELEASE_V1.0.2/MSDK/lwip/lwip-2.1.2/src/core\altcp.c ****   return NULL;
 449              		.loc 1 334 10 discriminator 2
 450 0008 8147     		li	a5,0
 331:C:/Users/stapi/OneDrive/Desktop/GD32VW553/GD32VW55X_Wifi_BLE_SDK/GD32VW55x_RELEASE_V1.0.2/MSDK/lwip/lwip-2.1.2/src/core\altcp.c ****   if (conn && conn->fns && conn->fns->listen) {
 451              		.loc 1 331 25 discriminator 2
 452 000a 19C3     		beq	a4,zero,.L112
 332:C:/Users/stapi/OneDrive/Desktop/GD32VW553/GD32VW55X_Wifi_BLE_SDK/GD32VW55x_RELEASE_V1.0.2/MSDK/lwip/lwip-2.1.2/src/core\altcp.c ****     return conn->fns->listen(conn, backlog, err);
 453              		.loc 1 332 5 is_stmt 1
 332:C:/Users/stapi/OneDrive/Desktop/GD32VW553/GD32VW55X_Wifi_BLE_SDK/GD32VW55x_RELEASE_V1.0.2/MSDK/lwip/lwip-2.1.2/src/core\altcp.c ****     return conn->fns->listen(conn, backlog, err);
 454              		.loc 1 332 12 is_stmt 0
 455 000c 0287     		jr	a4
 456              	.LVL35:
 457              	.L106:
 458              		.loc 1 334 10
 459 000e 8147     		li	a5,0
 460              	.L112:
 335:C:/Users/stapi/OneDrive/Desktop/GD32VW553/GD32VW55X_Wifi_BLE_SDK/GD32VW55x_RELEASE_V1.0.2/MSDK/lwip/lwip-2.1.2/src/core\altcp.c **** }
 461              		.loc 1 335 1
 462 0010 3E85     		mv	a0,a5
 463              	.LVL36:
 464 0012 8280     		ret
 465              		.cfi_endproc
 466              	.LFE18:
 468              		.section	.text.altcp_abort,"ax",@progbits
 469              		.align	1
 470              		.globl	altcp_abort
 472              	altcp_abort:
 473              	.LFB19:
 336:C:/Users/stapi/OneDrive/Desktop/GD32VW553/GD32VW55X_Wifi_BLE_SDK/GD32VW55x_RELEASE_V1.0.2/MSDK/lwip/lwip-2.1.2/src/core\altcp.c **** 
 337:C:/Users/stapi/OneDrive/Desktop/GD32VW553/GD32VW55X_Wifi_BLE_SDK/GD32VW55x_RELEASE_V1.0.2/MSDK/lwip/lwip-2.1.2/src/core\altcp.c **** /**
 338:C:/Users/stapi/OneDrive/Desktop/GD32VW553/GD32VW55X_Wifi_BLE_SDK/GD32VW55x_RELEASE_V1.0.2/MSDK/lwip/lwip-2.1.2/src/core\altcp.c ****  * @ingroup altcp
 339:C:/Users/stapi/OneDrive/Desktop/GD32VW553/GD32VW55X_Wifi_BLE_SDK/GD32VW55x_RELEASE_V1.0.2/MSDK/lwip/lwip-2.1.2/src/core\altcp.c ****  * @see tcp_abort()
 340:C:/Users/stapi/OneDrive/Desktop/GD32VW553/GD32VW55X_Wifi_BLE_SDK/GD32VW55x_RELEASE_V1.0.2/MSDK/lwip/lwip-2.1.2/src/core\altcp.c ****  */
 341:C:/Users/stapi/OneDrive/Desktop/GD32VW553/GD32VW55X_Wifi_BLE_SDK/GD32VW55x_RELEASE_V1.0.2/MSDK/lwip/lwip-2.1.2/src/core\altcp.c **** void
 342:C:/Users/stapi/OneDrive/Desktop/GD32VW553/GD32VW55X_Wifi_BLE_SDK/GD32VW55x_RELEASE_V1.0.2/MSDK/lwip/lwip-2.1.2/src/core\altcp.c **** altcp_abort(struct altcp_pcb *conn)
 343:C:/Users/stapi/OneDrive/Desktop/GD32VW553/GD32VW55X_Wifi_BLE_SDK/GD32VW55x_RELEASE_V1.0.2/MSDK/lwip/lwip-2.1.2/src/core\altcp.c **** {
 474              		.loc 1 343 1 is_stmt 1
 475              		.cfi_startproc
 476              	.LVL37:
 344:C:/Users/stapi/OneDrive/Desktop/GD32VW553/GD32VW55X_Wifi_BLE_SDK/GD32VW55x_RELEASE_V1.0.2/MSDK/lwip/lwip-2.1.2/src/core\altcp.c ****   if (conn && conn->fns && conn->fns->abort) {
 477              		.loc 1 344 3
 478              		.loc 1 344 6 is_stmt 0
 479 0000 11C5     		beq	a0,zero,.L127
 480              		.loc 1 344 19 discriminator 1
 481 0002 1C41     		lw	a5,0(a0)
 482              		.loc 1 344 12 discriminator 1
 483 0004 81C7     		beq	a5,zero,.L127
 484              		.loc 1 344 37 discriminator 2
 485 0006 DC4B     		lw	a5,20(a5)
 486              		.loc 1 344 25 discriminator 2
 487 0008 91C3     		beq	a5,zero,.L127
 345:C:/Users/stapi/OneDrive/Desktop/GD32VW553/GD32VW55X_Wifi_BLE_SDK/GD32VW55x_RELEASE_V1.0.2/MSDK/lwip/lwip-2.1.2/src/core\altcp.c ****     conn->fns->abort(conn);
 488              		.loc 1 345 5 is_stmt 1
 489 000a 8287     		jr	a5
 490              	.LVL38:
 491              	.L127:
 492 000c 8280     		ret
 493              		.cfi_endproc
 494              	.LFE19:
 496              		.section	.text.altcp_close,"ax",@progbits
 497              		.align	1
 498              		.globl	altcp_close
 500              	altcp_close:
 501              	.LFB20:
 346:C:/Users/stapi/OneDrive/Desktop/GD32VW553/GD32VW55X_Wifi_BLE_SDK/GD32VW55x_RELEASE_V1.0.2/MSDK/lwip/lwip-2.1.2/src/core\altcp.c ****   }
 347:C:/Users/stapi/OneDrive/Desktop/GD32VW553/GD32VW55X_Wifi_BLE_SDK/GD32VW55x_RELEASE_V1.0.2/MSDK/lwip/lwip-2.1.2/src/core\altcp.c **** }
 348:C:/Users/stapi/OneDrive/Desktop/GD32VW553/GD32VW55X_Wifi_BLE_SDK/GD32VW55x_RELEASE_V1.0.2/MSDK/lwip/lwip-2.1.2/src/core\altcp.c **** 
 349:C:/Users/stapi/OneDrive/Desktop/GD32VW553/GD32VW55X_Wifi_BLE_SDK/GD32VW55x_RELEASE_V1.0.2/MSDK/lwip/lwip-2.1.2/src/core\altcp.c **** /**
 350:C:/Users/stapi/OneDrive/Desktop/GD32VW553/GD32VW55X_Wifi_BLE_SDK/GD32VW55x_RELEASE_V1.0.2/MSDK/lwip/lwip-2.1.2/src/core\altcp.c ****  * @ingroup altcp
 351:C:/Users/stapi/OneDrive/Desktop/GD32VW553/GD32VW55X_Wifi_BLE_SDK/GD32VW55x_RELEASE_V1.0.2/MSDK/lwip/lwip-2.1.2/src/core\altcp.c ****  * @see tcp_close()
 352:C:/Users/stapi/OneDrive/Desktop/GD32VW553/GD32VW55X_Wifi_BLE_SDK/GD32VW55x_RELEASE_V1.0.2/MSDK/lwip/lwip-2.1.2/src/core\altcp.c ****  */
 353:C:/Users/stapi/OneDrive/Desktop/GD32VW553/GD32VW55X_Wifi_BLE_SDK/GD32VW55x_RELEASE_V1.0.2/MSDK/lwip/lwip-2.1.2/src/core\altcp.c **** err_t
 354:C:/Users/stapi/OneDrive/Desktop/GD32VW553/GD32VW55X_Wifi_BLE_SDK/GD32VW55x_RELEASE_V1.0.2/MSDK/lwip/lwip-2.1.2/src/core\altcp.c **** altcp_close(struct altcp_pcb *conn)
 355:C:/Users/stapi/OneDrive/Desktop/GD32VW553/GD32VW55X_Wifi_BLE_SDK/GD32VW55x_RELEASE_V1.0.2/MSDK/lwip/lwip-2.1.2/src/core\altcp.c **** {
 502              		.loc 1 355 1
 503              		.cfi_startproc
 504              	.LVL39:
 356:C:/Users/stapi/OneDrive/Desktop/GD32VW553/GD32VW55X_Wifi_BLE_SDK/GD32VW55x_RELEASE_V1.0.2/MSDK/lwip/lwip-2.1.2/src/core\altcp.c ****   if (conn && conn->fns && conn->fns->close) {
 505              		.loc 1 356 3
 506              		.loc 1 356 6 is_stmt 0
 507 0000 19C5     		beq	a0,zero,.L132
 508              		.loc 1 356 19 discriminator 1
 509 0002 1841     		lw	a4,0(a0)
 357:C:/Users/stapi/OneDrive/Desktop/GD32VW553/GD32VW55X_Wifi_BLE_SDK/GD32VW55x_RELEASE_V1.0.2/MSDK/lwip/lwip-2.1.2/src/core\altcp.c ****     return conn->fns->close(conn);
 358:C:/Users/stapi/OneDrive/Desktop/GD32VW553/GD32VW55X_Wifi_BLE_SDK/GD32VW55x_RELEASE_V1.0.2/MSDK/lwip/lwip-2.1.2/src/core\altcp.c ****   }
 359:C:/Users/stapi/OneDrive/Desktop/GD32VW553/GD32VW55X_Wifi_BLE_SDK/GD32VW55x_RELEASE_V1.0.2/MSDK/lwip/lwip-2.1.2/src/core\altcp.c ****   return ERR_VAL;
 510              		.loc 1 359 10 discriminator 1
 511 0004 E957     		li	a5,-6
 356:C:/Users/stapi/OneDrive/Desktop/GD32VW553/GD32VW55X_Wifi_BLE_SDK/GD32VW55x_RELEASE_V1.0.2/MSDK/lwip/lwip-2.1.2/src/core\altcp.c ****   if (conn && conn->fns && conn->fns->close) {
 512              		.loc 1 356 12 discriminator 1
 513 0006 09C7     		beq	a4,zero,.L136
 356:C:/Users/stapi/OneDrive/Desktop/GD32VW553/GD32VW55X_Wifi_BLE_SDK/GD32VW55x_RELEASE_V1.0.2/MSDK/lwip/lwip-2.1.2/src/core\altcp.c ****   if (conn && conn->fns && conn->fns->close) {
 514              		.loc 1 356 37 discriminator 2
 515 0008 184F     		lw	a4,24(a4)
 356:C:/Users/stapi/OneDrive/Desktop/GD32VW553/GD32VW55X_Wifi_BLE_SDK/GD32VW55x_RELEASE_V1.0.2/MSDK/lwip/lwip-2.1.2/src/core\altcp.c ****   if (conn && conn->fns && conn->fns->close) {
 516              		.loc 1 356 25 discriminator 2
 517 000a 19C3     		beq	a4,zero,.L136
 357:C:/Users/stapi/OneDrive/Desktop/GD32VW553/GD32VW55X_Wifi_BLE_SDK/GD32VW55x_RELEASE_V1.0.2/MSDK/lwip/lwip-2.1.2/src/core\altcp.c ****     return conn->fns->close(conn);
 518              		.loc 1 357 5 is_stmt 1
 357:C:/Users/stapi/OneDrive/Desktop/GD32VW553/GD32VW55X_Wifi_BLE_SDK/GD32VW55x_RELEASE_V1.0.2/MSDK/lwip/lwip-2.1.2/src/core\altcp.c ****     return conn->fns->close(conn);
 519              		.loc 1 357 12 is_stmt 0
 520 000c 0287     		jr	a4
 521              	.LVL40:
 522              	.L132:
 523              		.loc 1 359 10
 524 000e E957     		li	a5,-6
 525              	.L136:
 360:C:/Users/stapi/OneDrive/Desktop/GD32VW553/GD32VW55X_Wifi_BLE_SDK/GD32VW55x_RELEASE_V1.0.2/MSDK/lwip/lwip-2.1.2/src/core\altcp.c **** }
 526              		.loc 1 360 1
 527 0010 3E85     		mv	a0,a5
 528              	.LVL41:
 529 0012 8280     		ret
 530              		.cfi_endproc
 531              	.LFE20:
 533              		.section	.text.altcp_shutdown,"ax",@progbits
 534              		.align	1
 535              		.globl	altcp_shutdown
 537              	altcp_shutdown:
 538              	.LFB21:
 361:C:/Users/stapi/OneDrive/Desktop/GD32VW553/GD32VW55X_Wifi_BLE_SDK/GD32VW55x_RELEASE_V1.0.2/MSDK/lwip/lwip-2.1.2/src/core\altcp.c **** 
 362:C:/Users/stapi/OneDrive/Desktop/GD32VW553/GD32VW55X_Wifi_BLE_SDK/GD32VW55x_RELEASE_V1.0.2/MSDK/lwip/lwip-2.1.2/src/core\altcp.c **** /**
 363:C:/Users/stapi/OneDrive/Desktop/GD32VW553/GD32VW55X_Wifi_BLE_SDK/GD32VW55x_RELEASE_V1.0.2/MSDK/lwip/lwip-2.1.2/src/core\altcp.c ****  * @ingroup altcp
 364:C:/Users/stapi/OneDrive/Desktop/GD32VW553/GD32VW55X_Wifi_BLE_SDK/GD32VW55x_RELEASE_V1.0.2/MSDK/lwip/lwip-2.1.2/src/core\altcp.c ****  * @see tcp_shutdown()
 365:C:/Users/stapi/OneDrive/Desktop/GD32VW553/GD32VW55X_Wifi_BLE_SDK/GD32VW55x_RELEASE_V1.0.2/MSDK/lwip/lwip-2.1.2/src/core\altcp.c ****  */
 366:C:/Users/stapi/OneDrive/Desktop/GD32VW553/GD32VW55X_Wifi_BLE_SDK/GD32VW55x_RELEASE_V1.0.2/MSDK/lwip/lwip-2.1.2/src/core\altcp.c **** err_t
 367:C:/Users/stapi/OneDrive/Desktop/GD32VW553/GD32VW55X_Wifi_BLE_SDK/GD32VW55x_RELEASE_V1.0.2/MSDK/lwip/lwip-2.1.2/src/core\altcp.c **** altcp_shutdown(struct altcp_pcb *conn, int shut_rx, int shut_tx)
 368:C:/Users/stapi/OneDrive/Desktop/GD32VW553/GD32VW55X_Wifi_BLE_SDK/GD32VW55x_RELEASE_V1.0.2/MSDK/lwip/lwip-2.1.2/src/core\altcp.c **** {
 539              		.loc 1 368 1 is_stmt 1
 540              		.cfi_startproc
 541              	.LVL42:
 369:C:/Users/stapi/OneDrive/Desktop/GD32VW553/GD32VW55X_Wifi_BLE_SDK/GD32VW55x_RELEASE_V1.0.2/MSDK/lwip/lwip-2.1.2/src/core\altcp.c ****   if (conn && conn->fns && conn->fns->shutdown) {
 542              		.loc 1 369 3
 543              		.loc 1 369 6 is_stmt 0
 544 0000 19C5     		beq	a0,zero,.L141
 545              		.loc 1 369 19 discriminator 1
 546 0002 1841     		lw	a4,0(a0)
 370:C:/Users/stapi/OneDrive/Desktop/GD32VW553/GD32VW55X_Wifi_BLE_SDK/GD32VW55x_RELEASE_V1.0.2/MSDK/lwip/lwip-2.1.2/src/core\altcp.c ****     return conn->fns->shutdown(conn, shut_rx, shut_tx);
 371:C:/Users/stapi/OneDrive/Desktop/GD32VW553/GD32VW55X_Wifi_BLE_SDK/GD32VW55x_RELEASE_V1.0.2/MSDK/lwip/lwip-2.1.2/src/core\altcp.c ****   }
 372:C:/Users/stapi/OneDrive/Desktop/GD32VW553/GD32VW55X_Wifi_BLE_SDK/GD32VW55x_RELEASE_V1.0.2/MSDK/lwip/lwip-2.1.2/src/core\altcp.c ****   return ERR_VAL;
 547              		.loc 1 372 10 discriminator 1
 548 0004 E957     		li	a5,-6
 369:C:/Users/stapi/OneDrive/Desktop/GD32VW553/GD32VW55X_Wifi_BLE_SDK/GD32VW55x_RELEASE_V1.0.2/MSDK/lwip/lwip-2.1.2/src/core\altcp.c ****   if (conn && conn->fns && conn->fns->shutdown) {
 549              		.loc 1 369 12 discriminator 1
 550 0006 09C7     		beq	a4,zero,.L145
 369:C:/Users/stapi/OneDrive/Desktop/GD32VW553/GD32VW55X_Wifi_BLE_SDK/GD32VW55x_RELEASE_V1.0.2/MSDK/lwip/lwip-2.1.2/src/core\altcp.c ****   if (conn && conn->fns && conn->fns->shutdown) {
 551              		.loc 1 369 37 discriminator 2
 552 0008 584F     		lw	a4,28(a4)
 369:C:/Users/stapi/OneDrive/Desktop/GD32VW553/GD32VW55X_Wifi_BLE_SDK/GD32VW55x_RELEASE_V1.0.2/MSDK/lwip/lwip-2.1.2/src/core\altcp.c ****   if (conn && conn->fns && conn->fns->shutdown) {
 553              		.loc 1 369 25 discriminator 2
 554 000a 19C3     		beq	a4,zero,.L145
 370:C:/Users/stapi/OneDrive/Desktop/GD32VW553/GD32VW55X_Wifi_BLE_SDK/GD32VW55x_RELEASE_V1.0.2/MSDK/lwip/lwip-2.1.2/src/core\altcp.c ****     return conn->fns->shutdown(conn, shut_rx, shut_tx);
 555              		.loc 1 370 5 is_stmt 1
 370:C:/Users/stapi/OneDrive/Desktop/GD32VW553/GD32VW55X_Wifi_BLE_SDK/GD32VW55x_RELEASE_V1.0.2/MSDK/lwip/lwip-2.1.2/src/core\altcp.c ****     return conn->fns->shutdown(conn, shut_rx, shut_tx);
 556              		.loc 1 370 12 is_stmt 0
 557 000c 0287     		jr	a4
 558              	.LVL43:
 559              	.L141:
 560              		.loc 1 372 10
 561 000e E957     		li	a5,-6
 562              	.L145:
 373:C:/Users/stapi/OneDrive/Desktop/GD32VW553/GD32VW55X_Wifi_BLE_SDK/GD32VW55x_RELEASE_V1.0.2/MSDK/lwip/lwip-2.1.2/src/core\altcp.c **** }
 563              		.loc 1 373 1
 564 0010 3E85     		mv	a0,a5
 565              	.LVL44:
 566 0012 8280     		ret
 567              		.cfi_endproc
 568              	.LFE21:
 570              		.section	.text.altcp_write,"ax",@progbits
 571              		.align	1
 572              		.globl	altcp_write
 574              	altcp_write:
 575              	.LFB22:
 374:C:/Users/stapi/OneDrive/Desktop/GD32VW553/GD32VW55X_Wifi_BLE_SDK/GD32VW55x_RELEASE_V1.0.2/MSDK/lwip/lwip-2.1.2/src/core\altcp.c **** 
 375:C:/Users/stapi/OneDrive/Desktop/GD32VW553/GD32VW55X_Wifi_BLE_SDK/GD32VW55x_RELEASE_V1.0.2/MSDK/lwip/lwip-2.1.2/src/core\altcp.c **** /**
 376:C:/Users/stapi/OneDrive/Desktop/GD32VW553/GD32VW55X_Wifi_BLE_SDK/GD32VW55x_RELEASE_V1.0.2/MSDK/lwip/lwip-2.1.2/src/core\altcp.c ****  * @ingroup altcp
 377:C:/Users/stapi/OneDrive/Desktop/GD32VW553/GD32VW55X_Wifi_BLE_SDK/GD32VW55x_RELEASE_V1.0.2/MSDK/lwip/lwip-2.1.2/src/core\altcp.c ****  * @see tcp_write()
 378:C:/Users/stapi/OneDrive/Desktop/GD32VW553/GD32VW55X_Wifi_BLE_SDK/GD32VW55x_RELEASE_V1.0.2/MSDK/lwip/lwip-2.1.2/src/core\altcp.c ****  */
 379:C:/Users/stapi/OneDrive/Desktop/GD32VW553/GD32VW55X_Wifi_BLE_SDK/GD32VW55x_RELEASE_V1.0.2/MSDK/lwip/lwip-2.1.2/src/core\altcp.c **** err_t
 380:C:/Users/stapi/OneDrive/Desktop/GD32VW553/GD32VW55X_Wifi_BLE_SDK/GD32VW55x_RELEASE_V1.0.2/MSDK/lwip/lwip-2.1.2/src/core\altcp.c **** altcp_write(struct altcp_pcb *conn, const void *dataptr, u16_t len, u8_t apiflags)
 381:C:/Users/stapi/OneDrive/Desktop/GD32VW553/GD32VW55X_Wifi_BLE_SDK/GD32VW55x_RELEASE_V1.0.2/MSDK/lwip/lwip-2.1.2/src/core\altcp.c **** {
 576              		.loc 1 381 1 is_stmt 1
 577              		.cfi_startproc
 578              	.LVL45:
 382:C:/Users/stapi/OneDrive/Desktop/GD32VW553/GD32VW55X_Wifi_BLE_SDK/GD32VW55x_RELEASE_V1.0.2/MSDK/lwip/lwip-2.1.2/src/core\altcp.c ****   if (conn && conn->fns && conn->fns->write) {
 579              		.loc 1 382 3
 580              		.loc 1 382 6 is_stmt 0
 581 0000 19C5     		beq	a0,zero,.L150
 582              		.loc 1 382 19 discriminator 1
 583 0002 1841     		lw	a4,0(a0)
 383:C:/Users/stapi/OneDrive/Desktop/GD32VW553/GD32VW55X_Wifi_BLE_SDK/GD32VW55x_RELEASE_V1.0.2/MSDK/lwip/lwip-2.1.2/src/core\altcp.c ****     return conn->fns->write(conn, dataptr, len, apiflags);
 384:C:/Users/stapi/OneDrive/Desktop/GD32VW553/GD32VW55X_Wifi_BLE_SDK/GD32VW55x_RELEASE_V1.0.2/MSDK/lwip/lwip-2.1.2/src/core\altcp.c ****   }
 385:C:/Users/stapi/OneDrive/Desktop/GD32VW553/GD32VW55X_Wifi_BLE_SDK/GD32VW55x_RELEASE_V1.0.2/MSDK/lwip/lwip-2.1.2/src/core\altcp.c ****   return ERR_VAL;
 584              		.loc 1 385 10 discriminator 1
 585 0004 E957     		li	a5,-6
 382:C:/Users/stapi/OneDrive/Desktop/GD32VW553/GD32VW55X_Wifi_BLE_SDK/GD32VW55x_RELEASE_V1.0.2/MSDK/lwip/lwip-2.1.2/src/core\altcp.c ****   if (conn && conn->fns && conn->fns->write) {
 586              		.loc 1 382 12 discriminator 1
 587 0006 09C7     		beq	a4,zero,.L154
 382:C:/Users/stapi/OneDrive/Desktop/GD32VW553/GD32VW55X_Wifi_BLE_SDK/GD32VW55x_RELEASE_V1.0.2/MSDK/lwip/lwip-2.1.2/src/core\altcp.c ****   if (conn && conn->fns && conn->fns->write) {
 588              		.loc 1 382 37 discriminator 2
 589 0008 1853     		lw	a4,32(a4)
 382:C:/Users/stapi/OneDrive/Desktop/GD32VW553/GD32VW55X_Wifi_BLE_SDK/GD32VW55x_RELEASE_V1.0.2/MSDK/lwip/lwip-2.1.2/src/core\altcp.c ****   if (conn && conn->fns && conn->fns->write) {
 590              		.loc 1 382 25 discriminator 2
 591 000a 19C3     		beq	a4,zero,.L154
 383:C:/Users/stapi/OneDrive/Desktop/GD32VW553/GD32VW55X_Wifi_BLE_SDK/GD32VW55x_RELEASE_V1.0.2/MSDK/lwip/lwip-2.1.2/src/core\altcp.c ****     return conn->fns->write(conn, dataptr, len, apiflags);
 592              		.loc 1 383 5 is_stmt 1
 383:C:/Users/stapi/OneDrive/Desktop/GD32VW553/GD32VW55X_Wifi_BLE_SDK/GD32VW55x_RELEASE_V1.0.2/MSDK/lwip/lwip-2.1.2/src/core\altcp.c ****     return conn->fns->write(conn, dataptr, len, apiflags);
 593              		.loc 1 383 12 is_stmt 0
 594 000c 0287     		jr	a4
 595              	.LVL46:
 596              	.L150:
 597              		.loc 1 385 10
 598 000e E957     		li	a5,-6
 599              	.L154:
 386:C:/Users/stapi/OneDrive/Desktop/GD32VW553/GD32VW55X_Wifi_BLE_SDK/GD32VW55x_RELEASE_V1.0.2/MSDK/lwip/lwip-2.1.2/src/core\altcp.c **** }
 600              		.loc 1 386 1
 601 0010 3E85     		mv	a0,a5
 602              	.LVL47:
 603 0012 8280     		ret
 604              		.cfi_endproc
 605              	.LFE22:
 607              		.section	.text.altcp_output,"ax",@progbits
 608              		.align	1
 609              		.globl	altcp_output
 611              	altcp_output:
 612              	.LFB23:
 387:C:/Users/stapi/OneDrive/Desktop/GD32VW553/GD32VW55X_Wifi_BLE_SDK/GD32VW55x_RELEASE_V1.0.2/MSDK/lwip/lwip-2.1.2/src/core\altcp.c **** 
 388:C:/Users/stapi/OneDrive/Desktop/GD32VW553/GD32VW55X_Wifi_BLE_SDK/GD32VW55x_RELEASE_V1.0.2/MSDK/lwip/lwip-2.1.2/src/core\altcp.c **** /**
 389:C:/Users/stapi/OneDrive/Desktop/GD32VW553/GD32VW55X_Wifi_BLE_SDK/GD32VW55x_RELEASE_V1.0.2/MSDK/lwip/lwip-2.1.2/src/core\altcp.c ****  * @ingroup altcp
 390:C:/Users/stapi/OneDrive/Desktop/GD32VW553/GD32VW55X_Wifi_BLE_SDK/GD32VW55x_RELEASE_V1.0.2/MSDK/lwip/lwip-2.1.2/src/core\altcp.c ****  * @see tcp_output()
 391:C:/Users/stapi/OneDrive/Desktop/GD32VW553/GD32VW55X_Wifi_BLE_SDK/GD32VW55x_RELEASE_V1.0.2/MSDK/lwip/lwip-2.1.2/src/core\altcp.c ****  */
 392:C:/Users/stapi/OneDrive/Desktop/GD32VW553/GD32VW55X_Wifi_BLE_SDK/GD32VW55x_RELEASE_V1.0.2/MSDK/lwip/lwip-2.1.2/src/core\altcp.c **** err_t
 393:C:/Users/stapi/OneDrive/Desktop/GD32VW553/GD32VW55X_Wifi_BLE_SDK/GD32VW55x_RELEASE_V1.0.2/MSDK/lwip/lwip-2.1.2/src/core\altcp.c **** altcp_output(struct altcp_pcb *conn)
 394:C:/Users/stapi/OneDrive/Desktop/GD32VW553/GD32VW55X_Wifi_BLE_SDK/GD32VW55x_RELEASE_V1.0.2/MSDK/lwip/lwip-2.1.2/src/core\altcp.c **** {
 613              		.loc 1 394 1 is_stmt 1
 614              		.cfi_startproc
 615              	.LVL48:
 395:C:/Users/stapi/OneDrive/Desktop/GD32VW553/GD32VW55X_Wifi_BLE_SDK/GD32VW55x_RELEASE_V1.0.2/MSDK/lwip/lwip-2.1.2/src/core\altcp.c ****   if (conn && conn->fns && conn->fns->output) {
 616              		.loc 1 395 3
 617              		.loc 1 395 6 is_stmt 0
 618 0000 19C5     		beq	a0,zero,.L159
 619              		.loc 1 395 19 discriminator 1
 620 0002 1841     		lw	a4,0(a0)
 396:C:/Users/stapi/OneDrive/Desktop/GD32VW553/GD32VW55X_Wifi_BLE_SDK/GD32VW55x_RELEASE_V1.0.2/MSDK/lwip/lwip-2.1.2/src/core\altcp.c ****     return conn->fns->output(conn);
 397:C:/Users/stapi/OneDrive/Desktop/GD32VW553/GD32VW55X_Wifi_BLE_SDK/GD32VW55x_RELEASE_V1.0.2/MSDK/lwip/lwip-2.1.2/src/core\altcp.c ****   }
 398:C:/Users/stapi/OneDrive/Desktop/GD32VW553/GD32VW55X_Wifi_BLE_SDK/GD32VW55x_RELEASE_V1.0.2/MSDK/lwip/lwip-2.1.2/src/core\altcp.c ****   return ERR_VAL;
 621              		.loc 1 398 10 discriminator 1
 622 0004 E957     		li	a5,-6
 395:C:/Users/stapi/OneDrive/Desktop/GD32VW553/GD32VW55X_Wifi_BLE_SDK/GD32VW55x_RELEASE_V1.0.2/MSDK/lwip/lwip-2.1.2/src/core\altcp.c ****   if (conn && conn->fns && conn->fns->output) {
 623              		.loc 1 395 12 discriminator 1
 624 0006 09C7     		beq	a4,zero,.L163
 395:C:/Users/stapi/OneDrive/Desktop/GD32VW553/GD32VW55X_Wifi_BLE_SDK/GD32VW55x_RELEASE_V1.0.2/MSDK/lwip/lwip-2.1.2/src/core\altcp.c ****   if (conn && conn->fns && conn->fns->output) {
 625              		.loc 1 395 37 discriminator 2
 626 0008 5853     		lw	a4,36(a4)
 395:C:/Users/stapi/OneDrive/Desktop/GD32VW553/GD32VW55X_Wifi_BLE_SDK/GD32VW55x_RELEASE_V1.0.2/MSDK/lwip/lwip-2.1.2/src/core\altcp.c ****   if (conn && conn->fns && conn->fns->output) {
 627              		.loc 1 395 25 discriminator 2
 628 000a 19C3     		beq	a4,zero,.L163
 396:C:/Users/stapi/OneDrive/Desktop/GD32VW553/GD32VW55X_Wifi_BLE_SDK/GD32VW55x_RELEASE_V1.0.2/MSDK/lwip/lwip-2.1.2/src/core\altcp.c ****     return conn->fns->output(conn);
 629              		.loc 1 396 5 is_stmt 1
 396:C:/Users/stapi/OneDrive/Desktop/GD32VW553/GD32VW55X_Wifi_BLE_SDK/GD32VW55x_RELEASE_V1.0.2/MSDK/lwip/lwip-2.1.2/src/core\altcp.c ****     return conn->fns->output(conn);
 630              		.loc 1 396 12 is_stmt 0
 631 000c 0287     		jr	a4
 632              	.LVL49:
 633              	.L159:
 634              		.loc 1 398 10
 635 000e E957     		li	a5,-6
 636              	.L163:
 399:C:/Users/stapi/OneDrive/Desktop/GD32VW553/GD32VW55X_Wifi_BLE_SDK/GD32VW55x_RELEASE_V1.0.2/MSDK/lwip/lwip-2.1.2/src/core\altcp.c **** }
 637              		.loc 1 399 1
 638 0010 3E85     		mv	a0,a5
 639              	.LVL50:
 640 0012 8280     		ret
 641              		.cfi_endproc
 642              	.LFE23:
 644              		.section	.text.altcp_mss,"ax",@progbits
 645              		.align	1
 646              		.globl	altcp_mss
 648              	altcp_mss:
 649              	.LFB24:
 400:C:/Users/stapi/OneDrive/Desktop/GD32VW553/GD32VW55X_Wifi_BLE_SDK/GD32VW55x_RELEASE_V1.0.2/MSDK/lwip/lwip-2.1.2/src/core\altcp.c **** 
 401:C:/Users/stapi/OneDrive/Desktop/GD32VW553/GD32VW55X_Wifi_BLE_SDK/GD32VW55x_RELEASE_V1.0.2/MSDK/lwip/lwip-2.1.2/src/core\altcp.c **** /**
 402:C:/Users/stapi/OneDrive/Desktop/GD32VW553/GD32VW55X_Wifi_BLE_SDK/GD32VW55x_RELEASE_V1.0.2/MSDK/lwip/lwip-2.1.2/src/core\altcp.c ****  * @ingroup altcp
 403:C:/Users/stapi/OneDrive/Desktop/GD32VW553/GD32VW55X_Wifi_BLE_SDK/GD32VW55x_RELEASE_V1.0.2/MSDK/lwip/lwip-2.1.2/src/core\altcp.c ****  * @see tcp_mss()
 404:C:/Users/stapi/OneDrive/Desktop/GD32VW553/GD32VW55X_Wifi_BLE_SDK/GD32VW55x_RELEASE_V1.0.2/MSDK/lwip/lwip-2.1.2/src/core\altcp.c ****  */
 405:C:/Users/stapi/OneDrive/Desktop/GD32VW553/GD32VW55X_Wifi_BLE_SDK/GD32VW55x_RELEASE_V1.0.2/MSDK/lwip/lwip-2.1.2/src/core\altcp.c **** u16_t
 406:C:/Users/stapi/OneDrive/Desktop/GD32VW553/GD32VW55X_Wifi_BLE_SDK/GD32VW55x_RELEASE_V1.0.2/MSDK/lwip/lwip-2.1.2/src/core\altcp.c **** altcp_mss(struct altcp_pcb *conn)
 407:C:/Users/stapi/OneDrive/Desktop/GD32VW553/GD32VW55X_Wifi_BLE_SDK/GD32VW55x_RELEASE_V1.0.2/MSDK/lwip/lwip-2.1.2/src/core\altcp.c **** {
 650              		.loc 1 407 1 is_stmt 1
 651              		.cfi_startproc
 652              	.LVL51:
 408:C:/Users/stapi/OneDrive/Desktop/GD32VW553/GD32VW55X_Wifi_BLE_SDK/GD32VW55x_RELEASE_V1.0.2/MSDK/lwip/lwip-2.1.2/src/core\altcp.c ****   if (conn && conn->fns && conn->fns->mss) {
 653              		.loc 1 408 3
 654              		.loc 1 408 6 is_stmt 0
 655 0000 19C5     		beq	a0,zero,.L168
 656              		.loc 1 408 19 discriminator 1
 657 0002 1841     		lw	a4,0(a0)
 409:C:/Users/stapi/OneDrive/Desktop/GD32VW553/GD32VW55X_Wifi_BLE_SDK/GD32VW55x_RELEASE_V1.0.2/MSDK/lwip/lwip-2.1.2/src/core\altcp.c ****     return conn->fns->mss(conn);
 410:C:/Users/stapi/OneDrive/Desktop/GD32VW553/GD32VW55X_Wifi_BLE_SDK/GD32VW55x_RELEASE_V1.0.2/MSDK/lwip/lwip-2.1.2/src/core\altcp.c ****   }
 411:C:/Users/stapi/OneDrive/Desktop/GD32VW553/GD32VW55X_Wifi_BLE_SDK/GD32VW55x_RELEASE_V1.0.2/MSDK/lwip/lwip-2.1.2/src/core\altcp.c ****   return 0;
 658              		.loc 1 411 10 discriminator 1
 659 0004 8147     		li	a5,0
 408:C:/Users/stapi/OneDrive/Desktop/GD32VW553/GD32VW55X_Wifi_BLE_SDK/GD32VW55x_RELEASE_V1.0.2/MSDK/lwip/lwip-2.1.2/src/core\altcp.c ****   if (conn && conn->fns && conn->fns->mss) {
 660              		.loc 1 408 12 discriminator 1
 661 0006 09C7     		beq	a4,zero,.L173
 408:C:/Users/stapi/OneDrive/Desktop/GD32VW553/GD32VW55X_Wifi_BLE_SDK/GD32VW55x_RELEASE_V1.0.2/MSDK/lwip/lwip-2.1.2/src/core\altcp.c ****   if (conn && conn->fns && conn->fns->mss) {
 662              		.loc 1 408 37 discriminator 2
 663 0008 1857     		lw	a4,40(a4)
 408:C:/Users/stapi/OneDrive/Desktop/GD32VW553/GD32VW55X_Wifi_BLE_SDK/GD32VW55x_RELEASE_V1.0.2/MSDK/lwip/lwip-2.1.2/src/core\altcp.c ****   if (conn && conn->fns && conn->fns->mss) {
 664              		.loc 1 408 25 discriminator 2
 665 000a 19C3     		beq	a4,zero,.L173
 409:C:/Users/stapi/OneDrive/Desktop/GD32VW553/GD32VW55X_Wifi_BLE_SDK/GD32VW55x_RELEASE_V1.0.2/MSDK/lwip/lwip-2.1.2/src/core\altcp.c ****     return conn->fns->mss(conn);
 666              		.loc 1 409 5 is_stmt 1
 409:C:/Users/stapi/OneDrive/Desktop/GD32VW553/GD32VW55X_Wifi_BLE_SDK/GD32VW55x_RELEASE_V1.0.2/MSDK/lwip/lwip-2.1.2/src/core\altcp.c ****     return conn->fns->mss(conn);
 667              		.loc 1 409 12 is_stmt 0
 668 000c 0287     		jr	a4
 669              	.LVL52:
 670              	.L168:
 671              		.loc 1 411 10
 672 000e 8147     		li	a5,0
 673              	.L173:
 412:C:/Users/stapi/OneDrive/Desktop/GD32VW553/GD32VW55X_Wifi_BLE_SDK/GD32VW55x_RELEASE_V1.0.2/MSDK/lwip/lwip-2.1.2/src/core\altcp.c **** }
 674              		.loc 1 412 1
 675 0010 3E85     		mv	a0,a5
 676              	.LVL53:
 677 0012 8280     		ret
 678              		.cfi_endproc
 679              	.LFE24:
 681              		.section	.text.altcp_sndbuf,"ax",@progbits
 682              		.align	1
 683              		.globl	altcp_sndbuf
 685              	altcp_sndbuf:
 686              	.LFB25:
 413:C:/Users/stapi/OneDrive/Desktop/GD32VW553/GD32VW55X_Wifi_BLE_SDK/GD32VW55x_RELEASE_V1.0.2/MSDK/lwip/lwip-2.1.2/src/core\altcp.c **** 
 414:C:/Users/stapi/OneDrive/Desktop/GD32VW553/GD32VW55X_Wifi_BLE_SDK/GD32VW55x_RELEASE_V1.0.2/MSDK/lwip/lwip-2.1.2/src/core\altcp.c **** /**
 415:C:/Users/stapi/OneDrive/Desktop/GD32VW553/GD32VW55X_Wifi_BLE_SDK/GD32VW55x_RELEASE_V1.0.2/MSDK/lwip/lwip-2.1.2/src/core\altcp.c ****  * @ingroup altcp
 416:C:/Users/stapi/OneDrive/Desktop/GD32VW553/GD32VW55X_Wifi_BLE_SDK/GD32VW55x_RELEASE_V1.0.2/MSDK/lwip/lwip-2.1.2/src/core\altcp.c ****  * @see tcp_sndbuf()
 417:C:/Users/stapi/OneDrive/Desktop/GD32VW553/GD32VW55X_Wifi_BLE_SDK/GD32VW55x_RELEASE_V1.0.2/MSDK/lwip/lwip-2.1.2/src/core\altcp.c ****  */
 418:C:/Users/stapi/OneDrive/Desktop/GD32VW553/GD32VW55X_Wifi_BLE_SDK/GD32VW55x_RELEASE_V1.0.2/MSDK/lwip/lwip-2.1.2/src/core\altcp.c **** u16_t
 419:C:/Users/stapi/OneDrive/Desktop/GD32VW553/GD32VW55X_Wifi_BLE_SDK/GD32VW55x_RELEASE_V1.0.2/MSDK/lwip/lwip-2.1.2/src/core\altcp.c **** altcp_sndbuf(struct altcp_pcb *conn)
 420:C:/Users/stapi/OneDrive/Desktop/GD32VW553/GD32VW55X_Wifi_BLE_SDK/GD32VW55x_RELEASE_V1.0.2/MSDK/lwip/lwip-2.1.2/src/core\altcp.c **** {
 687              		.loc 1 420 1 is_stmt 1
 688              		.cfi_startproc
 689              	.LVL54:
 421:C:/Users/stapi/OneDrive/Desktop/GD32VW553/GD32VW55X_Wifi_BLE_SDK/GD32VW55x_RELEASE_V1.0.2/MSDK/lwip/lwip-2.1.2/src/core\altcp.c ****   if (conn && conn->fns && conn->fns->sndbuf) {
 690              		.loc 1 421 3
 691              		.loc 1 421 6 is_stmt 0
 692 0000 19C5     		beq	a0,zero,.L178
 693              		.loc 1 421 19 discriminator 1
 694 0002 1841     		lw	a4,0(a0)
 422:C:/Users/stapi/OneDrive/Desktop/GD32VW553/GD32VW55X_Wifi_BLE_SDK/GD32VW55x_RELEASE_V1.0.2/MSDK/lwip/lwip-2.1.2/src/core\altcp.c ****     return conn->fns->sndbuf(conn);
 423:C:/Users/stapi/OneDrive/Desktop/GD32VW553/GD32VW55X_Wifi_BLE_SDK/GD32VW55x_RELEASE_V1.0.2/MSDK/lwip/lwip-2.1.2/src/core\altcp.c ****   }
 424:C:/Users/stapi/OneDrive/Desktop/GD32VW553/GD32VW55X_Wifi_BLE_SDK/GD32VW55x_RELEASE_V1.0.2/MSDK/lwip/lwip-2.1.2/src/core\altcp.c ****   return 0;
 695              		.loc 1 424 10 discriminator 1
 696 0004 8147     		li	a5,0
 421:C:/Users/stapi/OneDrive/Desktop/GD32VW553/GD32VW55X_Wifi_BLE_SDK/GD32VW55x_RELEASE_V1.0.2/MSDK/lwip/lwip-2.1.2/src/core\altcp.c ****   if (conn && conn->fns && conn->fns->sndbuf) {
 697              		.loc 1 421 12 discriminator 1
 698 0006 09C7     		beq	a4,zero,.L183
 421:C:/Users/stapi/OneDrive/Desktop/GD32VW553/GD32VW55X_Wifi_BLE_SDK/GD32VW55x_RELEASE_V1.0.2/MSDK/lwip/lwip-2.1.2/src/core\altcp.c ****   if (conn && conn->fns && conn->fns->sndbuf) {
 699              		.loc 1 421 37 discriminator 2
 700 0008 5857     		lw	a4,44(a4)
 421:C:/Users/stapi/OneDrive/Desktop/GD32VW553/GD32VW55X_Wifi_BLE_SDK/GD32VW55x_RELEASE_V1.0.2/MSDK/lwip/lwip-2.1.2/src/core\altcp.c ****   if (conn && conn->fns && conn->fns->sndbuf) {
 701              		.loc 1 421 25 discriminator 2
 702 000a 19C3     		beq	a4,zero,.L183
 422:C:/Users/stapi/OneDrive/Desktop/GD32VW553/GD32VW55X_Wifi_BLE_SDK/GD32VW55x_RELEASE_V1.0.2/MSDK/lwip/lwip-2.1.2/src/core\altcp.c ****     return conn->fns->sndbuf(conn);
 703              		.loc 1 422 5 is_stmt 1
 422:C:/Users/stapi/OneDrive/Desktop/GD32VW553/GD32VW55X_Wifi_BLE_SDK/GD32VW55x_RELEASE_V1.0.2/MSDK/lwip/lwip-2.1.2/src/core\altcp.c ****     return conn->fns->sndbuf(conn);
 704              		.loc 1 422 12 is_stmt 0
 705 000c 0287     		jr	a4
 706              	.LVL55:
 707              	.L178:
 708              		.loc 1 424 10
 709 000e 8147     		li	a5,0
 710              	.L183:
 425:C:/Users/stapi/OneDrive/Desktop/GD32VW553/GD32VW55X_Wifi_BLE_SDK/GD32VW55x_RELEASE_V1.0.2/MSDK/lwip/lwip-2.1.2/src/core\altcp.c **** }
 711              		.loc 1 425 1
 712 0010 3E85     		mv	a0,a5
 713              	.LVL56:
 714 0012 8280     		ret
 715              		.cfi_endproc
 716              	.LFE25:
 718              		.section	.text.altcp_sndqueuelen,"ax",@progbits
 719              		.align	1
 720              		.globl	altcp_sndqueuelen
 722              	altcp_sndqueuelen:
 723              	.LFB26:
 426:C:/Users/stapi/OneDrive/Desktop/GD32VW553/GD32VW55X_Wifi_BLE_SDK/GD32VW55x_RELEASE_V1.0.2/MSDK/lwip/lwip-2.1.2/src/core\altcp.c **** 
 427:C:/Users/stapi/OneDrive/Desktop/GD32VW553/GD32VW55X_Wifi_BLE_SDK/GD32VW55x_RELEASE_V1.0.2/MSDK/lwip/lwip-2.1.2/src/core\altcp.c **** /**
 428:C:/Users/stapi/OneDrive/Desktop/GD32VW553/GD32VW55X_Wifi_BLE_SDK/GD32VW55x_RELEASE_V1.0.2/MSDK/lwip/lwip-2.1.2/src/core\altcp.c ****  * @ingroup altcp
 429:C:/Users/stapi/OneDrive/Desktop/GD32VW553/GD32VW55X_Wifi_BLE_SDK/GD32VW55x_RELEASE_V1.0.2/MSDK/lwip/lwip-2.1.2/src/core\altcp.c ****  * @see tcp_sndqueuelen()
 430:C:/Users/stapi/OneDrive/Desktop/GD32VW553/GD32VW55X_Wifi_BLE_SDK/GD32VW55x_RELEASE_V1.0.2/MSDK/lwip/lwip-2.1.2/src/core\altcp.c ****  */
 431:C:/Users/stapi/OneDrive/Desktop/GD32VW553/GD32VW55X_Wifi_BLE_SDK/GD32VW55x_RELEASE_V1.0.2/MSDK/lwip/lwip-2.1.2/src/core\altcp.c **** u16_t
 432:C:/Users/stapi/OneDrive/Desktop/GD32VW553/GD32VW55X_Wifi_BLE_SDK/GD32VW55x_RELEASE_V1.0.2/MSDK/lwip/lwip-2.1.2/src/core\altcp.c **** altcp_sndqueuelen(struct altcp_pcb *conn)
 433:C:/Users/stapi/OneDrive/Desktop/GD32VW553/GD32VW55X_Wifi_BLE_SDK/GD32VW55x_RELEASE_V1.0.2/MSDK/lwip/lwip-2.1.2/src/core\altcp.c **** {
 724              		.loc 1 433 1 is_stmt 1
 725              		.cfi_startproc
 726              	.LVL57:
 434:C:/Users/stapi/OneDrive/Desktop/GD32VW553/GD32VW55X_Wifi_BLE_SDK/GD32VW55x_RELEASE_V1.0.2/MSDK/lwip/lwip-2.1.2/src/core\altcp.c ****   if (conn && conn->fns && conn->fns->sndqueuelen) {
 727              		.loc 1 434 3
 728              		.loc 1 434 6 is_stmt 0
 729 0000 19C5     		beq	a0,zero,.L188
 730              		.loc 1 434 19 discriminator 1
 731 0002 1841     		lw	a4,0(a0)
 435:C:/Users/stapi/OneDrive/Desktop/GD32VW553/GD32VW55X_Wifi_BLE_SDK/GD32VW55x_RELEASE_V1.0.2/MSDK/lwip/lwip-2.1.2/src/core\altcp.c ****     return conn->fns->sndqueuelen(conn);
 436:C:/Users/stapi/OneDrive/Desktop/GD32VW553/GD32VW55X_Wifi_BLE_SDK/GD32VW55x_RELEASE_V1.0.2/MSDK/lwip/lwip-2.1.2/src/core\altcp.c ****   }
 437:C:/Users/stapi/OneDrive/Desktop/GD32VW553/GD32VW55X_Wifi_BLE_SDK/GD32VW55x_RELEASE_V1.0.2/MSDK/lwip/lwip-2.1.2/src/core\altcp.c ****   return 0;
 732              		.loc 1 437 10 discriminator 1
 733 0004 8147     		li	a5,0
 434:C:/Users/stapi/OneDrive/Desktop/GD32VW553/GD32VW55X_Wifi_BLE_SDK/GD32VW55x_RELEASE_V1.0.2/MSDK/lwip/lwip-2.1.2/src/core\altcp.c ****   if (conn && conn->fns && conn->fns->sndqueuelen) {
 734              		.loc 1 434 12 discriminator 1
 735 0006 09C7     		beq	a4,zero,.L193
 434:C:/Users/stapi/OneDrive/Desktop/GD32VW553/GD32VW55X_Wifi_BLE_SDK/GD32VW55x_RELEASE_V1.0.2/MSDK/lwip/lwip-2.1.2/src/core\altcp.c ****   if (conn && conn->fns && conn->fns->sndqueuelen) {
 736              		.loc 1 434 37 discriminator 2
 737 0008 185B     		lw	a4,48(a4)
 434:C:/Users/stapi/OneDrive/Desktop/GD32VW553/GD32VW55X_Wifi_BLE_SDK/GD32VW55x_RELEASE_V1.0.2/MSDK/lwip/lwip-2.1.2/src/core\altcp.c ****   if (conn && conn->fns && conn->fns->sndqueuelen) {
 738              		.loc 1 434 25 discriminator 2
 739 000a 19C3     		beq	a4,zero,.L193
 435:C:/Users/stapi/OneDrive/Desktop/GD32VW553/GD32VW55X_Wifi_BLE_SDK/GD32VW55x_RELEASE_V1.0.2/MSDK/lwip/lwip-2.1.2/src/core\altcp.c ****     return conn->fns->sndqueuelen(conn);
 740              		.loc 1 435 5 is_stmt 1
 435:C:/Users/stapi/OneDrive/Desktop/GD32VW553/GD32VW55X_Wifi_BLE_SDK/GD32VW55x_RELEASE_V1.0.2/MSDK/lwip/lwip-2.1.2/src/core\altcp.c ****     return conn->fns->sndqueuelen(conn);
 741              		.loc 1 435 12 is_stmt 0
 742 000c 0287     		jr	a4
 743              	.LVL58:
 744              	.L188:
 745              		.loc 1 437 10
 746 000e 8147     		li	a5,0
 747              	.L193:
 438:C:/Users/stapi/OneDrive/Desktop/GD32VW553/GD32VW55X_Wifi_BLE_SDK/GD32VW55x_RELEASE_V1.0.2/MSDK/lwip/lwip-2.1.2/src/core\altcp.c **** }
 748              		.loc 1 438 1
 749 0010 3E85     		mv	a0,a5
 750              	.LVL59:
 751 0012 8280     		ret
 752              		.cfi_endproc
 753              	.LFE26:
 755              		.section	.text.altcp_nagle_disable,"ax",@progbits
 756              		.align	1
 757              		.globl	altcp_nagle_disable
 759              	altcp_nagle_disable:
 760              	.LFB27:
 439:C:/Users/stapi/OneDrive/Desktop/GD32VW553/GD32VW55X_Wifi_BLE_SDK/GD32VW55x_RELEASE_V1.0.2/MSDK/lwip/lwip-2.1.2/src/core\altcp.c **** 
 440:C:/Users/stapi/OneDrive/Desktop/GD32VW553/GD32VW55X_Wifi_BLE_SDK/GD32VW55x_RELEASE_V1.0.2/MSDK/lwip/lwip-2.1.2/src/core\altcp.c **** void
 441:C:/Users/stapi/OneDrive/Desktop/GD32VW553/GD32VW55X_Wifi_BLE_SDK/GD32VW55x_RELEASE_V1.0.2/MSDK/lwip/lwip-2.1.2/src/core\altcp.c **** altcp_nagle_disable(struct altcp_pcb *conn)
 442:C:/Users/stapi/OneDrive/Desktop/GD32VW553/GD32VW55X_Wifi_BLE_SDK/GD32VW55x_RELEASE_V1.0.2/MSDK/lwip/lwip-2.1.2/src/core\altcp.c **** {
 761              		.loc 1 442 1 is_stmt 1
 762              		.cfi_startproc
 763              	.LVL60:
 443:C:/Users/stapi/OneDrive/Desktop/GD32VW553/GD32VW55X_Wifi_BLE_SDK/GD32VW55x_RELEASE_V1.0.2/MSDK/lwip/lwip-2.1.2/src/core\altcp.c ****   if (conn && conn->fns && conn->fns->nagle_disable) {
 764              		.loc 1 443 3
 765              		.loc 1 443 6 is_stmt 0
 766 0000 11C5     		beq	a0,zero,.L208
 767              		.loc 1 443 19 discriminator 1
 768 0002 1C41     		lw	a5,0(a0)
 769              		.loc 1 443 12 discriminator 1
 770 0004 81C7     		beq	a5,zero,.L208
 771              		.loc 1 443 37 discriminator 2
 772 0006 DC5B     		lw	a5,52(a5)
 773              		.loc 1 443 25 discriminator 2
 774 0008 91C3     		beq	a5,zero,.L208
 444:C:/Users/stapi/OneDrive/Desktop/GD32VW553/GD32VW55X_Wifi_BLE_SDK/GD32VW55x_RELEASE_V1.0.2/MSDK/lwip/lwip-2.1.2/src/core\altcp.c ****     conn->fns->nagle_disable(conn);
 775              		.loc 1 444 5 is_stmt 1
 776 000a 8287     		jr	a5
 777              	.LVL61:
 778              	.L208:
 779 000c 8280     		ret
 780              		.cfi_endproc
 781              	.LFE27:
 783              		.section	.text.altcp_nagle_enable,"ax",@progbits
 784              		.align	1
 785              		.globl	altcp_nagle_enable
 787              	altcp_nagle_enable:
 788              	.LFB28:
 445:C:/Users/stapi/OneDrive/Desktop/GD32VW553/GD32VW55X_Wifi_BLE_SDK/GD32VW55x_RELEASE_V1.0.2/MSDK/lwip/lwip-2.1.2/src/core\altcp.c ****   }
 446:C:/Users/stapi/OneDrive/Desktop/GD32VW553/GD32VW55X_Wifi_BLE_SDK/GD32VW55x_RELEASE_V1.0.2/MSDK/lwip/lwip-2.1.2/src/core\altcp.c **** }
 447:C:/Users/stapi/OneDrive/Desktop/GD32VW553/GD32VW55X_Wifi_BLE_SDK/GD32VW55x_RELEASE_V1.0.2/MSDK/lwip/lwip-2.1.2/src/core\altcp.c **** 
 448:C:/Users/stapi/OneDrive/Desktop/GD32VW553/GD32VW55X_Wifi_BLE_SDK/GD32VW55x_RELEASE_V1.0.2/MSDK/lwip/lwip-2.1.2/src/core\altcp.c **** void
 449:C:/Users/stapi/OneDrive/Desktop/GD32VW553/GD32VW55X_Wifi_BLE_SDK/GD32VW55x_RELEASE_V1.0.2/MSDK/lwip/lwip-2.1.2/src/core\altcp.c **** altcp_nagle_enable(struct altcp_pcb *conn)
 450:C:/Users/stapi/OneDrive/Desktop/GD32VW553/GD32VW55X_Wifi_BLE_SDK/GD32VW55x_RELEASE_V1.0.2/MSDK/lwip/lwip-2.1.2/src/core\altcp.c **** {
 789              		.loc 1 450 1
 790              		.cfi_startproc
 791              	.LVL62:
 451:C:/Users/stapi/OneDrive/Desktop/GD32VW553/GD32VW55X_Wifi_BLE_SDK/GD32VW55x_RELEASE_V1.0.2/MSDK/lwip/lwip-2.1.2/src/core\altcp.c ****   if (conn && conn->fns && conn->fns->nagle_enable) {
 792              		.loc 1 451 3
 793              		.loc 1 451 6 is_stmt 0
 794 0000 11C5     		beq	a0,zero,.L223
 795              		.loc 1 451 19 discriminator 1
 796 0002 1C41     		lw	a5,0(a0)
 797              		.loc 1 451 12 discriminator 1
 798 0004 81C7     		beq	a5,zero,.L223
 799              		.loc 1 451 37 discriminator 2
 800 0006 9C5F     		lw	a5,56(a5)
 801              		.loc 1 451 25 discriminator 2
 802 0008 91C3     		beq	a5,zero,.L223
 452:C:/Users/stapi/OneDrive/Desktop/GD32VW553/GD32VW55X_Wifi_BLE_SDK/GD32VW55x_RELEASE_V1.0.2/MSDK/lwip/lwip-2.1.2/src/core\altcp.c ****     conn->fns->nagle_enable(conn);
 803              		.loc 1 452 5 is_stmt 1
 804 000a 8287     		jr	a5
 805              	.LVL63:
 806              	.L223:
 807 000c 8280     		ret
 808              		.cfi_endproc
 809              	.LFE28:
 811              		.section	.text.altcp_nagle_disabled,"ax",@progbits
 812              		.align	1
 813              		.globl	altcp_nagle_disabled
 815              	altcp_nagle_disabled:
 816              	.LFB29:
 453:C:/Users/stapi/OneDrive/Desktop/GD32VW553/GD32VW55X_Wifi_BLE_SDK/GD32VW55x_RELEASE_V1.0.2/MSDK/lwip/lwip-2.1.2/src/core\altcp.c ****   }
 454:C:/Users/stapi/OneDrive/Desktop/GD32VW553/GD32VW55X_Wifi_BLE_SDK/GD32VW55x_RELEASE_V1.0.2/MSDK/lwip/lwip-2.1.2/src/core\altcp.c **** }
 455:C:/Users/stapi/OneDrive/Desktop/GD32VW553/GD32VW55X_Wifi_BLE_SDK/GD32VW55x_RELEASE_V1.0.2/MSDK/lwip/lwip-2.1.2/src/core\altcp.c **** 
 456:C:/Users/stapi/OneDrive/Desktop/GD32VW553/GD32VW55X_Wifi_BLE_SDK/GD32VW55x_RELEASE_V1.0.2/MSDK/lwip/lwip-2.1.2/src/core\altcp.c **** int
 457:C:/Users/stapi/OneDrive/Desktop/GD32VW553/GD32VW55X_Wifi_BLE_SDK/GD32VW55x_RELEASE_V1.0.2/MSDK/lwip/lwip-2.1.2/src/core\altcp.c **** altcp_nagle_disabled(struct altcp_pcb *conn)
 458:C:/Users/stapi/OneDrive/Desktop/GD32VW553/GD32VW55X_Wifi_BLE_SDK/GD32VW55x_RELEASE_V1.0.2/MSDK/lwip/lwip-2.1.2/src/core\altcp.c **** {
 817              		.loc 1 458 1
 818              		.cfi_startproc
 819              	.LVL64:
 459:C:/Users/stapi/OneDrive/Desktop/GD32VW553/GD32VW55X_Wifi_BLE_SDK/GD32VW55x_RELEASE_V1.0.2/MSDK/lwip/lwip-2.1.2/src/core\altcp.c ****   if (conn && conn->fns && conn->fns->nagle_disabled) {
 820              		.loc 1 459 3
 821              		.loc 1 459 6 is_stmt 0
 822 0000 19C5     		beq	a0,zero,.L228
 823              		.loc 1 459 19 discriminator 1
 824 0002 1841     		lw	a4,0(a0)
 460:C:/Users/stapi/OneDrive/Desktop/GD32VW553/GD32VW55X_Wifi_BLE_SDK/GD32VW55x_RELEASE_V1.0.2/MSDK/lwip/lwip-2.1.2/src/core\altcp.c ****     return conn->fns->nagle_disabled(conn);
 461:C:/Users/stapi/OneDrive/Desktop/GD32VW553/GD32VW55X_Wifi_BLE_SDK/GD32VW55x_RELEASE_V1.0.2/MSDK/lwip/lwip-2.1.2/src/core\altcp.c ****   }
 462:C:/Users/stapi/OneDrive/Desktop/GD32VW553/GD32VW55X_Wifi_BLE_SDK/GD32VW55x_RELEASE_V1.0.2/MSDK/lwip/lwip-2.1.2/src/core\altcp.c ****   return 0;
 825              		.loc 1 462 10 discriminator 1
 826 0004 8147     		li	a5,0
 459:C:/Users/stapi/OneDrive/Desktop/GD32VW553/GD32VW55X_Wifi_BLE_SDK/GD32VW55x_RELEASE_V1.0.2/MSDK/lwip/lwip-2.1.2/src/core\altcp.c ****   if (conn && conn->fns && conn->fns->nagle_disabled) {
 827              		.loc 1 459 12 discriminator 1
 828 0006 09C7     		beq	a4,zero,.L233
 459:C:/Users/stapi/OneDrive/Desktop/GD32VW553/GD32VW55X_Wifi_BLE_SDK/GD32VW55x_RELEASE_V1.0.2/MSDK/lwip/lwip-2.1.2/src/core\altcp.c ****   if (conn && conn->fns && conn->fns->nagle_disabled) {
 829              		.loc 1 459 37 discriminator 2
 830 0008 585F     		lw	a4,60(a4)
 459:C:/Users/stapi/OneDrive/Desktop/GD32VW553/GD32VW55X_Wifi_BLE_SDK/GD32VW55x_RELEASE_V1.0.2/MSDK/lwip/lwip-2.1.2/src/core\altcp.c ****   if (conn && conn->fns && conn->fns->nagle_disabled) {
 831              		.loc 1 459 25 discriminator 2
 832 000a 19C3     		beq	a4,zero,.L233
 460:C:/Users/stapi/OneDrive/Desktop/GD32VW553/GD32VW55X_Wifi_BLE_SDK/GD32VW55x_RELEASE_V1.0.2/MSDK/lwip/lwip-2.1.2/src/core\altcp.c ****     return conn->fns->nagle_disabled(conn);
 833              		.loc 1 460 5 is_stmt 1
 460:C:/Users/stapi/OneDrive/Desktop/GD32VW553/GD32VW55X_Wifi_BLE_SDK/GD32VW55x_RELEASE_V1.0.2/MSDK/lwip/lwip-2.1.2/src/core\altcp.c ****     return conn->fns->nagle_disabled(conn);
 834              		.loc 1 460 12 is_stmt 0
 835 000c 0287     		jr	a4
 836              	.LVL65:
 837              	.L228:
 838              		.loc 1 462 10
 839 000e 8147     		li	a5,0
 840              	.L233:
 463:C:/Users/stapi/OneDrive/Desktop/GD32VW553/GD32VW55X_Wifi_BLE_SDK/GD32VW55x_RELEASE_V1.0.2/MSDK/lwip/lwip-2.1.2/src/core\altcp.c **** }
 841              		.loc 1 463 1
 842 0010 3E85     		mv	a0,a5
 843              	.LVL66:
 844 0012 8280     		ret
 845              		.cfi_endproc
 846              	.LFE29:
 848              		.section	.text.altcp_setprio,"ax",@progbits
 849              		.align	1
 850              		.globl	altcp_setprio
 852              	altcp_setprio:
 853              	.LFB30:
 464:C:/Users/stapi/OneDrive/Desktop/GD32VW553/GD32VW55X_Wifi_BLE_SDK/GD32VW55x_RELEASE_V1.0.2/MSDK/lwip/lwip-2.1.2/src/core\altcp.c **** 
 465:C:/Users/stapi/OneDrive/Desktop/GD32VW553/GD32VW55X_Wifi_BLE_SDK/GD32VW55x_RELEASE_V1.0.2/MSDK/lwip/lwip-2.1.2/src/core\altcp.c **** /**
 466:C:/Users/stapi/OneDrive/Desktop/GD32VW553/GD32VW55X_Wifi_BLE_SDK/GD32VW55x_RELEASE_V1.0.2/MSDK/lwip/lwip-2.1.2/src/core\altcp.c ****  * @ingroup altcp
 467:C:/Users/stapi/OneDrive/Desktop/GD32VW553/GD32VW55X_Wifi_BLE_SDK/GD32VW55x_RELEASE_V1.0.2/MSDK/lwip/lwip-2.1.2/src/core\altcp.c ****  * @see tcp_setprio()
 468:C:/Users/stapi/OneDrive/Desktop/GD32VW553/GD32VW55X_Wifi_BLE_SDK/GD32VW55x_RELEASE_V1.0.2/MSDK/lwip/lwip-2.1.2/src/core\altcp.c ****  */
 469:C:/Users/stapi/OneDrive/Desktop/GD32VW553/GD32VW55X_Wifi_BLE_SDK/GD32VW55x_RELEASE_V1.0.2/MSDK/lwip/lwip-2.1.2/src/core\altcp.c **** void
 470:C:/Users/stapi/OneDrive/Desktop/GD32VW553/GD32VW55X_Wifi_BLE_SDK/GD32VW55x_RELEASE_V1.0.2/MSDK/lwip/lwip-2.1.2/src/core\altcp.c **** altcp_setprio(struct altcp_pcb *conn, u8_t prio)
 471:C:/Users/stapi/OneDrive/Desktop/GD32VW553/GD32VW55X_Wifi_BLE_SDK/GD32VW55x_RELEASE_V1.0.2/MSDK/lwip/lwip-2.1.2/src/core\altcp.c **** {
 854              		.loc 1 471 1 is_stmt 1
 855              		.cfi_startproc
 856              	.LVL67:
 472:C:/Users/stapi/OneDrive/Desktop/GD32VW553/GD32VW55X_Wifi_BLE_SDK/GD32VW55x_RELEASE_V1.0.2/MSDK/lwip/lwip-2.1.2/src/core\altcp.c ****   if (conn && conn->fns && conn->fns->setprio) {
 857              		.loc 1 472 3
 858              		.loc 1 472 6 is_stmt 0
 859 0000 11C5     		beq	a0,zero,.L248
 860              		.loc 1 472 19 discriminator 1
 861 0002 1C41     		lw	a5,0(a0)
 862              		.loc 1 472 12 discriminator 1
 863 0004 81C7     		beq	a5,zero,.L248
 864              		.loc 1 472 37 discriminator 2
 865 0006 BC43     		lw	a5,64(a5)
 866              		.loc 1 472 25 discriminator 2
 867 0008 91C3     		beq	a5,zero,.L248
 473:C:/Users/stapi/OneDrive/Desktop/GD32VW553/GD32VW55X_Wifi_BLE_SDK/GD32VW55x_RELEASE_V1.0.2/MSDK/lwip/lwip-2.1.2/src/core\altcp.c ****     conn->fns->setprio(conn, prio);
 868              		.loc 1 473 5 is_stmt 1
 869 000a 8287     		jr	a5
 870              	.LVL68:
 871              	.L248:
 872 000c 8280     		ret
 873              		.cfi_endproc
 874              	.LFE30:
 876              		.section	.text.altcp_get_tcp_addrinfo,"ax",@progbits
 877              		.align	1
 878              		.globl	altcp_get_tcp_addrinfo
 880              	altcp_get_tcp_addrinfo:
 881              	.LFB31:
 474:C:/Users/stapi/OneDrive/Desktop/GD32VW553/GD32VW55X_Wifi_BLE_SDK/GD32VW55x_RELEASE_V1.0.2/MSDK/lwip/lwip-2.1.2/src/core\altcp.c ****   }
 475:C:/Users/stapi/OneDrive/Desktop/GD32VW553/GD32VW55X_Wifi_BLE_SDK/GD32VW55x_RELEASE_V1.0.2/MSDK/lwip/lwip-2.1.2/src/core\altcp.c **** }
 476:C:/Users/stapi/OneDrive/Desktop/GD32VW553/GD32VW55X_Wifi_BLE_SDK/GD32VW55x_RELEASE_V1.0.2/MSDK/lwip/lwip-2.1.2/src/core\altcp.c **** 
 477:C:/Users/stapi/OneDrive/Desktop/GD32VW553/GD32VW55X_Wifi_BLE_SDK/GD32VW55x_RELEASE_V1.0.2/MSDK/lwip/lwip-2.1.2/src/core\altcp.c **** err_t
 478:C:/Users/stapi/OneDrive/Desktop/GD32VW553/GD32VW55X_Wifi_BLE_SDK/GD32VW55x_RELEASE_V1.0.2/MSDK/lwip/lwip-2.1.2/src/core\altcp.c **** altcp_get_tcp_addrinfo(struct altcp_pcb *conn, int local, ip_addr_t *addr, u16_t *port)
 479:C:/Users/stapi/OneDrive/Desktop/GD32VW553/GD32VW55X_Wifi_BLE_SDK/GD32VW55x_RELEASE_V1.0.2/MSDK/lwip/lwip-2.1.2/src/core\altcp.c **** {
 882              		.loc 1 479 1
 883              		.cfi_startproc
 884              	.LVL69:
 480:C:/Users/stapi/OneDrive/Desktop/GD32VW553/GD32VW55X_Wifi_BLE_SDK/GD32VW55x_RELEASE_V1.0.2/MSDK/lwip/lwip-2.1.2/src/core\altcp.c ****   if (conn && conn->fns && conn->fns->addrinfo) {
 885              		.loc 1 480 3
 886              		.loc 1 480 6 is_stmt 0
 887 0000 19C5     		beq	a0,zero,.L253
 888              		.loc 1 480 19 discriminator 1
 889 0002 1841     		lw	a4,0(a0)
 481:C:/Users/stapi/OneDrive/Desktop/GD32VW553/GD32VW55X_Wifi_BLE_SDK/GD32VW55x_RELEASE_V1.0.2/MSDK/lwip/lwip-2.1.2/src/core\altcp.c ****     return conn->fns->addrinfo(conn, local, addr, port);
 482:C:/Users/stapi/OneDrive/Desktop/GD32VW553/GD32VW55X_Wifi_BLE_SDK/GD32VW55x_RELEASE_V1.0.2/MSDK/lwip/lwip-2.1.2/src/core\altcp.c ****   }
 483:C:/Users/stapi/OneDrive/Desktop/GD32VW553/GD32VW55X_Wifi_BLE_SDK/GD32VW55x_RELEASE_V1.0.2/MSDK/lwip/lwip-2.1.2/src/core\altcp.c ****   return ERR_VAL;
 890              		.loc 1 483 10 discriminator 1
 891 0004 E957     		li	a5,-6
 480:C:/Users/stapi/OneDrive/Desktop/GD32VW553/GD32VW55X_Wifi_BLE_SDK/GD32VW55x_RELEASE_V1.0.2/MSDK/lwip/lwip-2.1.2/src/core\altcp.c ****   if (conn && conn->fns && conn->fns->addrinfo) {
 892              		.loc 1 480 12 discriminator 1
 893 0006 09C7     		beq	a4,zero,.L257
 480:C:/Users/stapi/OneDrive/Desktop/GD32VW553/GD32VW55X_Wifi_BLE_SDK/GD32VW55x_RELEASE_V1.0.2/MSDK/lwip/lwip-2.1.2/src/core\altcp.c ****   if (conn && conn->fns && conn->fns->addrinfo) {
 894              		.loc 1 480 37 discriminator 2
 895 0008 3847     		lw	a4,72(a4)
 480:C:/Users/stapi/OneDrive/Desktop/GD32VW553/GD32VW55X_Wifi_BLE_SDK/GD32VW55x_RELEASE_V1.0.2/MSDK/lwip/lwip-2.1.2/src/core\altcp.c ****   if (conn && conn->fns && conn->fns->addrinfo) {
 896              		.loc 1 480 25 discriminator 2
 897 000a 19C3     		beq	a4,zero,.L257
 481:C:/Users/stapi/OneDrive/Desktop/GD32VW553/GD32VW55X_Wifi_BLE_SDK/GD32VW55x_RELEASE_V1.0.2/MSDK/lwip/lwip-2.1.2/src/core\altcp.c ****     return conn->fns->addrinfo(conn, local, addr, port);
 898              		.loc 1 481 5 is_stmt 1
 481:C:/Users/stapi/OneDrive/Desktop/GD32VW553/GD32VW55X_Wifi_BLE_SDK/GD32VW55x_RELEASE_V1.0.2/MSDK/lwip/lwip-2.1.2/src/core\altcp.c ****     return conn->fns->addrinfo(conn, local, addr, port);
 899              		.loc 1 481 12 is_stmt 0
 900 000c 0287     		jr	a4
 901              	.LVL70:
 902              	.L253:
 903              		.loc 1 483 10
 904 000e E957     		li	a5,-6
 905              	.L257:
 484:C:/Users/stapi/OneDrive/Desktop/GD32VW553/GD32VW55X_Wifi_BLE_SDK/GD32VW55x_RELEASE_V1.0.2/MSDK/lwip/lwip-2.1.2/src/core\altcp.c **** }
 906              		.loc 1 484 1
 907 0010 3E85     		mv	a0,a5
 908              	.LVL71:
 909 0012 8280     		ret
 910              		.cfi_endproc
 911              	.LFE31:
 913              		.section	.text.altcp_get_ip,"ax",@progbits
 914              		.align	1
 915              		.globl	altcp_get_ip
 917              	altcp_get_ip:
 918              	.LFB32:
 485:C:/Users/stapi/OneDrive/Desktop/GD32VW553/GD32VW55X_Wifi_BLE_SDK/GD32VW55x_RELEASE_V1.0.2/MSDK/lwip/lwip-2.1.2/src/core\altcp.c **** 
 486:C:/Users/stapi/OneDrive/Desktop/GD32VW553/GD32VW55X_Wifi_BLE_SDK/GD32VW55x_RELEASE_V1.0.2/MSDK/lwip/lwip-2.1.2/src/core\altcp.c **** ip_addr_t *
 487:C:/Users/stapi/OneDrive/Desktop/GD32VW553/GD32VW55X_Wifi_BLE_SDK/GD32VW55x_RELEASE_V1.0.2/MSDK/lwip/lwip-2.1.2/src/core\altcp.c **** altcp_get_ip(struct altcp_pcb *conn, int local)
 488:C:/Users/stapi/OneDrive/Desktop/GD32VW553/GD32VW55X_Wifi_BLE_SDK/GD32VW55x_RELEASE_V1.0.2/MSDK/lwip/lwip-2.1.2/src/core\altcp.c **** {
 919              		.loc 1 488 1 is_stmt 1
 920              		.cfi_startproc
 921              	.LVL72:
 489:C:/Users/stapi/OneDrive/Desktop/GD32VW553/GD32VW55X_Wifi_BLE_SDK/GD32VW55x_RELEASE_V1.0.2/MSDK/lwip/lwip-2.1.2/src/core\altcp.c ****   if (conn && conn->fns && conn->fns->getip) {
 922              		.loc 1 489 3
 923              		.loc 1 489 6 is_stmt 0
 924 0000 19C5     		beq	a0,zero,.L262
 925              		.loc 1 489 19 discriminator 1
 926 0002 1C41     		lw	a5,0(a0)
 927              		.loc 1 489 12 discriminator 1
 928 0004 91C7     		beq	a5,zero,.L268
 929              		.loc 1 489 37 discriminator 2
 930 0006 F847     		lw	a4,76(a5)
 490:C:/Users/stapi/OneDrive/Desktop/GD32VW553/GD32VW55X_Wifi_BLE_SDK/GD32VW55x_RELEASE_V1.0.2/MSDK/lwip/lwip-2.1.2/src/core\altcp.c ****     return conn->fns->getip(conn, local);
 491:C:/Users/stapi/OneDrive/Desktop/GD32VW553/GD32VW55X_Wifi_BLE_SDK/GD32VW55x_RELEASE_V1.0.2/MSDK/lwip/lwip-2.1.2/src/core\altcp.c ****   }
 492:C:/Users/stapi/OneDrive/Desktop/GD32VW553/GD32VW55X_Wifi_BLE_SDK/GD32VW55x_RELEASE_V1.0.2/MSDK/lwip/lwip-2.1.2/src/core\altcp.c ****   return NULL;
 931              		.loc 1 492 10 discriminator 2
 932 0008 8147     		li	a5,0
 489:C:/Users/stapi/OneDrive/Desktop/GD32VW553/GD32VW55X_Wifi_BLE_SDK/GD32VW55x_RELEASE_V1.0.2/MSDK/lwip/lwip-2.1.2/src/core\altcp.c ****   if (conn && conn->fns && conn->fns->getip) {
 933              		.loc 1 489 25 discriminator 2
 934 000a 19C3     		beq	a4,zero,.L268
 490:C:/Users/stapi/OneDrive/Desktop/GD32VW553/GD32VW55X_Wifi_BLE_SDK/GD32VW55x_RELEASE_V1.0.2/MSDK/lwip/lwip-2.1.2/src/core\altcp.c ****     return conn->fns->getip(conn, local);
 935              		.loc 1 490 5 is_stmt 1
 490:C:/Users/stapi/OneDrive/Desktop/GD32VW553/GD32VW55X_Wifi_BLE_SDK/GD32VW55x_RELEASE_V1.0.2/MSDK/lwip/lwip-2.1.2/src/core\altcp.c ****     return conn->fns->getip(conn, local);
 936              		.loc 1 490 12 is_stmt 0
 937 000c 0287     		jr	a4
 938              	.LVL73:
 939              	.L262:
 940              		.loc 1 492 10
 941 000e 8147     		li	a5,0
 942              	.L268:
 493:C:/Users/stapi/OneDrive/Desktop/GD32VW553/GD32VW55X_Wifi_BLE_SDK/GD32VW55x_RELEASE_V1.0.2/MSDK/lwip/lwip-2.1.2/src/core\altcp.c **** }
 943              		.loc 1 493 1
 944 0010 3E85     		mv	a0,a5
 945              	.LVL74:
 946 0012 8280     		ret
 947              		.cfi_endproc
 948              	.LFE32:
 950              		.section	.text.altcp_get_port,"ax",@progbits
 951              		.align	1
 952              		.globl	altcp_get_port
 954              	altcp_get_port:
 955              	.LFB33:
 494:C:/Users/stapi/OneDrive/Desktop/GD32VW553/GD32VW55X_Wifi_BLE_SDK/GD32VW55x_RELEASE_V1.0.2/MSDK/lwip/lwip-2.1.2/src/core\altcp.c **** 
 495:C:/Users/stapi/OneDrive/Desktop/GD32VW553/GD32VW55X_Wifi_BLE_SDK/GD32VW55x_RELEASE_V1.0.2/MSDK/lwip/lwip-2.1.2/src/core\altcp.c **** u16_t
 496:C:/Users/stapi/OneDrive/Desktop/GD32VW553/GD32VW55X_Wifi_BLE_SDK/GD32VW55x_RELEASE_V1.0.2/MSDK/lwip/lwip-2.1.2/src/core\altcp.c **** altcp_get_port(struct altcp_pcb *conn, int local)
 497:C:/Users/stapi/OneDrive/Desktop/GD32VW553/GD32VW55X_Wifi_BLE_SDK/GD32VW55x_RELEASE_V1.0.2/MSDK/lwip/lwip-2.1.2/src/core\altcp.c **** {
 956              		.loc 1 497 1 is_stmt 1
 957              		.cfi_startproc
 958              	.LVL75:
 498:C:/Users/stapi/OneDrive/Desktop/GD32VW553/GD32VW55X_Wifi_BLE_SDK/GD32VW55x_RELEASE_V1.0.2/MSDK/lwip/lwip-2.1.2/src/core\altcp.c ****   if (conn && conn->fns && conn->fns->getport) {
 959              		.loc 1 498 3
 960              		.loc 1 498 6 is_stmt 0
 961 0000 19C5     		beq	a0,zero,.L273
 962              		.loc 1 498 19 discriminator 1
 963 0002 1841     		lw	a4,0(a0)
 499:C:/Users/stapi/OneDrive/Desktop/GD32VW553/GD32VW55X_Wifi_BLE_SDK/GD32VW55x_RELEASE_V1.0.2/MSDK/lwip/lwip-2.1.2/src/core\altcp.c ****     return conn->fns->getport(conn, local);
 500:C:/Users/stapi/OneDrive/Desktop/GD32VW553/GD32VW55X_Wifi_BLE_SDK/GD32VW55x_RELEASE_V1.0.2/MSDK/lwip/lwip-2.1.2/src/core\altcp.c ****   }
 501:C:/Users/stapi/OneDrive/Desktop/GD32VW553/GD32VW55X_Wifi_BLE_SDK/GD32VW55x_RELEASE_V1.0.2/MSDK/lwip/lwip-2.1.2/src/core\altcp.c ****   return 0;
 964              		.loc 1 501 10 discriminator 1
 965 0004 8147     		li	a5,0
 498:C:/Users/stapi/OneDrive/Desktop/GD32VW553/GD32VW55X_Wifi_BLE_SDK/GD32VW55x_RELEASE_V1.0.2/MSDK/lwip/lwip-2.1.2/src/core\altcp.c ****   if (conn && conn->fns && conn->fns->getport) {
 966              		.loc 1 498 12 discriminator 1
 967 0006 09C7     		beq	a4,zero,.L278
 498:C:/Users/stapi/OneDrive/Desktop/GD32VW553/GD32VW55X_Wifi_BLE_SDK/GD32VW55x_RELEASE_V1.0.2/MSDK/lwip/lwip-2.1.2/src/core\altcp.c ****   if (conn && conn->fns && conn->fns->getport) {
 968              		.loc 1 498 37 discriminator 2
 969 0008 384B     		lw	a4,80(a4)
 498:C:/Users/stapi/OneDrive/Desktop/GD32VW553/GD32VW55X_Wifi_BLE_SDK/GD32VW55x_RELEASE_V1.0.2/MSDK/lwip/lwip-2.1.2/src/core\altcp.c ****   if (conn && conn->fns && conn->fns->getport) {
 970              		.loc 1 498 25 discriminator 2
 971 000a 19C3     		beq	a4,zero,.L278
 499:C:/Users/stapi/OneDrive/Desktop/GD32VW553/GD32VW55X_Wifi_BLE_SDK/GD32VW55x_RELEASE_V1.0.2/MSDK/lwip/lwip-2.1.2/src/core\altcp.c ****     return conn->fns->getport(conn, local);
 972              		.loc 1 499 5 is_stmt 1
 499:C:/Users/stapi/OneDrive/Desktop/GD32VW553/GD32VW55X_Wifi_BLE_SDK/GD32VW55x_RELEASE_V1.0.2/MSDK/lwip/lwip-2.1.2/src/core\altcp.c ****     return conn->fns->getport(conn, local);
 973              		.loc 1 499 12 is_stmt 0
 974 000c 0287     		jr	a4
 975              	.LVL76:
 976              	.L273:
 977              		.loc 1 501 10
 978 000e 8147     		li	a5,0
 979              	.L278:
 502:C:/Users/stapi/OneDrive/Desktop/GD32VW553/GD32VW55X_Wifi_BLE_SDK/GD32VW55x_RELEASE_V1.0.2/MSDK/lwip/lwip-2.1.2/src/core\altcp.c **** }
 980              		.loc 1 502 1
 981 0010 3E85     		mv	a0,a5
 982              	.LVL77:
 983 0012 8280     		ret
 984              		.cfi_endproc
 985              	.LFE33:
 987              		.section	.text.altcp_default_set_poll,"ax",@progbits
 988              		.align	1
 989              		.globl	altcp_default_set_poll
 991              	altcp_default_set_poll:
 992              	.LFB34:
 503:C:/Users/stapi/OneDrive/Desktop/GD32VW553/GD32VW55X_Wifi_BLE_SDK/GD32VW55x_RELEASE_V1.0.2/MSDK/lwip/lwip-2.1.2/src/core\altcp.c **** 
 504:C:/Users/stapi/OneDrive/Desktop/GD32VW553/GD32VW55X_Wifi_BLE_SDK/GD32VW55x_RELEASE_V1.0.2/MSDK/lwip/lwip-2.1.2/src/core\altcp.c **** #ifdef LWIP_DEBUG
 505:C:/Users/stapi/OneDrive/Desktop/GD32VW553/GD32VW55X_Wifi_BLE_SDK/GD32VW55x_RELEASE_V1.0.2/MSDK/lwip/lwip-2.1.2/src/core\altcp.c **** enum tcp_state
 506:C:/Users/stapi/OneDrive/Desktop/GD32VW553/GD32VW55X_Wifi_BLE_SDK/GD32VW55x_RELEASE_V1.0.2/MSDK/lwip/lwip-2.1.2/src/core\altcp.c **** altcp_dbg_get_tcp_state(struct altcp_pcb *conn)
 507:C:/Users/stapi/OneDrive/Desktop/GD32VW553/GD32VW55X_Wifi_BLE_SDK/GD32VW55x_RELEASE_V1.0.2/MSDK/lwip/lwip-2.1.2/src/core\altcp.c **** {
 508:C:/Users/stapi/OneDrive/Desktop/GD32VW553/GD32VW55X_Wifi_BLE_SDK/GD32VW55x_RELEASE_V1.0.2/MSDK/lwip/lwip-2.1.2/src/core\altcp.c ****   if (conn && conn->fns && conn->fns->dbg_get_tcp_state) {
 509:C:/Users/stapi/OneDrive/Desktop/GD32VW553/GD32VW55X_Wifi_BLE_SDK/GD32VW55x_RELEASE_V1.0.2/MSDK/lwip/lwip-2.1.2/src/core\altcp.c ****     return conn->fns->dbg_get_tcp_state(conn);
 510:C:/Users/stapi/OneDrive/Desktop/GD32VW553/GD32VW55X_Wifi_BLE_SDK/GD32VW55x_RELEASE_V1.0.2/MSDK/lwip/lwip-2.1.2/src/core\altcp.c ****   }
 511:C:/Users/stapi/OneDrive/Desktop/GD32VW553/GD32VW55X_Wifi_BLE_SDK/GD32VW55x_RELEASE_V1.0.2/MSDK/lwip/lwip-2.1.2/src/core\altcp.c ****   return CLOSED;
 512:C:/Users/stapi/OneDrive/Desktop/GD32VW553/GD32VW55X_Wifi_BLE_SDK/GD32VW55x_RELEASE_V1.0.2/MSDK/lwip/lwip-2.1.2/src/core\altcp.c **** }
 513:C:/Users/stapi/OneDrive/Desktop/GD32VW553/GD32VW55X_Wifi_BLE_SDK/GD32VW55x_RELEASE_V1.0.2/MSDK/lwip/lwip-2.1.2/src/core\altcp.c **** #endif
 514:C:/Users/stapi/OneDrive/Desktop/GD32VW553/GD32VW55X_Wifi_BLE_SDK/GD32VW55x_RELEASE_V1.0.2/MSDK/lwip/lwip-2.1.2/src/core\altcp.c **** 
 515:C:/Users/stapi/OneDrive/Desktop/GD32VW553/GD32VW55X_Wifi_BLE_SDK/GD32VW55x_RELEASE_V1.0.2/MSDK/lwip/lwip-2.1.2/src/core\altcp.c **** /* Default implementations for the "virtual" functions */
 516:C:/Users/stapi/OneDrive/Desktop/GD32VW553/GD32VW55X_Wifi_BLE_SDK/GD32VW55x_RELEASE_V1.0.2/MSDK/lwip/lwip-2.1.2/src/core\altcp.c **** 
 517:C:/Users/stapi/OneDrive/Desktop/GD32VW553/GD32VW55X_Wifi_BLE_SDK/GD32VW55x_RELEASE_V1.0.2/MSDK/lwip/lwip-2.1.2/src/core\altcp.c **** void
 518:C:/Users/stapi/OneDrive/Desktop/GD32VW553/GD32VW55X_Wifi_BLE_SDK/GD32VW55x_RELEASE_V1.0.2/MSDK/lwip/lwip-2.1.2/src/core\altcp.c **** altcp_default_set_poll(struct altcp_pcb *conn, u8_t interval)
 519:C:/Users/stapi/OneDrive/Desktop/GD32VW553/GD32VW55X_Wifi_BLE_SDK/GD32VW55x_RELEASE_V1.0.2/MSDK/lwip/lwip-2.1.2/src/core\altcp.c **** {
 993              		.loc 1 519 1 is_stmt 1
 994              		.cfi_startproc
 995              	.LVL78:
 520:C:/Users/stapi/OneDrive/Desktop/GD32VW553/GD32VW55X_Wifi_BLE_SDK/GD32VW55x_RELEASE_V1.0.2/MSDK/lwip/lwip-2.1.2/src/core\altcp.c ****   if (conn && conn->inner_conn) {
 996              		.loc 1 520 3
 997              		.loc 1 520 6 is_stmt 0
 998 0000 11C9     		beq	a0,zero,.L290
 999 0002 AA87     		mv	a5,a0
 1000              		.loc 1 520 19 discriminator 1
 1001 0004 4841     		lw	a0,4(a0)
 1002              	.LVL79:
 1003              		.loc 1 520 12 discriminator 1
 1004 0006 19C5     		beq	a0,zero,.L290
 1005 0008 2E86     		mv	a2,a1
 521:C:/Users/stapi/OneDrive/Desktop/GD32VW553/GD32VW55X_Wifi_BLE_SDK/GD32VW55x_RELEASE_V1.0.2/MSDK/lwip/lwip-2.1.2/src/core\altcp.c ****     altcp_poll(conn->inner_conn, conn->poll, interval);
 1006              		.loc 1 521 5 is_stmt 1
 1007 000a 8C53     		lw	a1,32(a5)
 1008              	.LVL80:
 1009 000c 17030000 		tail	altcp_poll
 1009      67000300 
 1010              	.LVL81:
 1011              	.L290:
 1012 0014 8280     		ret
 1013              		.cfi_endproc
 1014              	.LFE34:
 1016              		.section	.text.altcp_default_recved,"ax",@progbits
 1017              		.align	1
 1018              		.globl	altcp_default_recved
 1020              	altcp_default_recved:
 1021              	.LFB35:
 522:C:/Users/stapi/OneDrive/Desktop/GD32VW553/GD32VW55X_Wifi_BLE_SDK/GD32VW55x_RELEASE_V1.0.2/MSDK/lwip/lwip-2.1.2/src/core\altcp.c ****   }
 523:C:/Users/stapi/OneDrive/Desktop/GD32VW553/GD32VW55X_Wifi_BLE_SDK/GD32VW55x_RELEASE_V1.0.2/MSDK/lwip/lwip-2.1.2/src/core\altcp.c **** }
 524:C:/Users/stapi/OneDrive/Desktop/GD32VW553/GD32VW55X_Wifi_BLE_SDK/GD32VW55x_RELEASE_V1.0.2/MSDK/lwip/lwip-2.1.2/src/core\altcp.c **** 
 525:C:/Users/stapi/OneDrive/Desktop/GD32VW553/GD32VW55X_Wifi_BLE_SDK/GD32VW55x_RELEASE_V1.0.2/MSDK/lwip/lwip-2.1.2/src/core\altcp.c **** void
 526:C:/Users/stapi/OneDrive/Desktop/GD32VW553/GD32VW55X_Wifi_BLE_SDK/GD32VW55x_RELEASE_V1.0.2/MSDK/lwip/lwip-2.1.2/src/core\altcp.c **** altcp_default_recved(struct altcp_pcb *conn, u16_t len)
 527:C:/Users/stapi/OneDrive/Desktop/GD32VW553/GD32VW55X_Wifi_BLE_SDK/GD32VW55x_RELEASE_V1.0.2/MSDK/lwip/lwip-2.1.2/src/core\altcp.c **** {
 1022              		.loc 1 527 1
 1023              		.cfi_startproc
 1024              	.LVL82:
 528:C:/Users/stapi/OneDrive/Desktop/GD32VW553/GD32VW55X_Wifi_BLE_SDK/GD32VW55x_RELEASE_V1.0.2/MSDK/lwip/lwip-2.1.2/src/core\altcp.c ****   if (conn && conn->inner_conn) {
 1025              		.loc 1 528 3
 1026              		.loc 1 528 6 is_stmt 0
 1027 0000 19C5     		beq	a0,zero,.L302
 1028              		.loc 1 528 19 discriminator 1
 1029 0002 4841     		lw	a0,4(a0)
 1030              	.LVL83:
 1031              		.loc 1 528 12 discriminator 1
 1032 0004 09C5     		beq	a0,zero,.L302
 529:C:/Users/stapi/OneDrive/Desktop/GD32VW553/GD32VW55X_Wifi_BLE_SDK/GD32VW55x_RELEASE_V1.0.2/MSDK/lwip/lwip-2.1.2/src/core\altcp.c ****     altcp_recved(conn->inner_conn, len);
 1033              		.loc 1 529 5 is_stmt 1
 1034 0006 17030000 		tail	altcp_recved
 1034      67000300 
 1035              	.LVL84:
 1036              	.L302:
 1037 000e 8280     		ret
 1038              		.cfi_endproc
 1039              	.LFE35:
 1041              		.section	.text.altcp_default_bind,"ax",@progbits
 1042              		.align	1
 1043              		.globl	altcp_default_bind
 1045              	altcp_default_bind:
 1046              	.LFB36:
 530:C:/Users/stapi/OneDrive/Desktop/GD32VW553/GD32VW55X_Wifi_BLE_SDK/GD32VW55x_RELEASE_V1.0.2/MSDK/lwip/lwip-2.1.2/src/core\altcp.c ****   }
 531:C:/Users/stapi/OneDrive/Desktop/GD32VW553/GD32VW55X_Wifi_BLE_SDK/GD32VW55x_RELEASE_V1.0.2/MSDK/lwip/lwip-2.1.2/src/core\altcp.c **** }
 532:C:/Users/stapi/OneDrive/Desktop/GD32VW553/GD32VW55X_Wifi_BLE_SDK/GD32VW55x_RELEASE_V1.0.2/MSDK/lwip/lwip-2.1.2/src/core\altcp.c **** 
 533:C:/Users/stapi/OneDrive/Desktop/GD32VW553/GD32VW55X_Wifi_BLE_SDK/GD32VW55x_RELEASE_V1.0.2/MSDK/lwip/lwip-2.1.2/src/core\altcp.c **** err_t
 534:C:/Users/stapi/OneDrive/Desktop/GD32VW553/GD32VW55X_Wifi_BLE_SDK/GD32VW55x_RELEASE_V1.0.2/MSDK/lwip/lwip-2.1.2/src/core\altcp.c **** altcp_default_bind(struct altcp_pcb *conn, const ip_addr_t *ipaddr, u16_t port)
 535:C:/Users/stapi/OneDrive/Desktop/GD32VW553/GD32VW55X_Wifi_BLE_SDK/GD32VW55x_RELEASE_V1.0.2/MSDK/lwip/lwip-2.1.2/src/core\altcp.c **** {
 1047              		.loc 1 535 1
 1048              		.cfi_startproc
 1049              	.LVL85:
 536:C:/Users/stapi/OneDrive/Desktop/GD32VW553/GD32VW55X_Wifi_BLE_SDK/GD32VW55x_RELEASE_V1.0.2/MSDK/lwip/lwip-2.1.2/src/core\altcp.c ****   if (conn && conn->inner_conn) {
 1050              		.loc 1 536 3
 1051              		.loc 1 536 6 is_stmt 0
 1052 0000 09C9     		beq	a0,zero,.L307
 1053              		.loc 1 536 19 discriminator 1
 1054 0002 5C41     		lw	a5,4(a0)
 537:C:/Users/stapi/OneDrive/Desktop/GD32VW553/GD32VW55X_Wifi_BLE_SDK/GD32VW55x_RELEASE_V1.0.2/MSDK/lwip/lwip-2.1.2/src/core\altcp.c ****     return altcp_bind(conn->inner_conn, ipaddr, port);
 538:C:/Users/stapi/OneDrive/Desktop/GD32VW553/GD32VW55X_Wifi_BLE_SDK/GD32VW55x_RELEASE_V1.0.2/MSDK/lwip/lwip-2.1.2/src/core\altcp.c ****   }
 539:C:/Users/stapi/OneDrive/Desktop/GD32VW553/GD32VW55X_Wifi_BLE_SDK/GD32VW55x_RELEASE_V1.0.2/MSDK/lwip/lwip-2.1.2/src/core\altcp.c ****   return ERR_VAL;
 1055              		.loc 1 539 10 discriminator 1
 1056 0004 6955     		li	a0,-6
 1057              	.LVL86:
 536:C:/Users/stapi/OneDrive/Desktop/GD32VW553/GD32VW55X_Wifi_BLE_SDK/GD32VW55x_RELEASE_V1.0.2/MSDK/lwip/lwip-2.1.2/src/core\altcp.c ****   if (conn && conn->inner_conn) {
 1058              		.loc 1 536 12 discriminator 1
 1059 0006 81CB     		beq	a5,zero,.L310
 537:C:/Users/stapi/OneDrive/Desktop/GD32VW553/GD32VW55X_Wifi_BLE_SDK/GD32VW55x_RELEASE_V1.0.2/MSDK/lwip/lwip-2.1.2/src/core\altcp.c ****     return altcp_bind(conn->inner_conn, ipaddr, port);
 1060              		.loc 1 537 5 is_stmt 1
 537:C:/Users/stapi/OneDrive/Desktop/GD32VW553/GD32VW55X_Wifi_BLE_SDK/GD32VW55x_RELEASE_V1.0.2/MSDK/lwip/lwip-2.1.2/src/core\altcp.c ****     return altcp_bind(conn->inner_conn, ipaddr, port);
 1061              		.loc 1 537 12 is_stmt 0
 1062 0008 3E85     		mv	a0,a5
 1063 000a 17030000 		tail	altcp_bind
 1063      67000300 
 1064              	.LVL87:
 1065              	.L307:
 1066              		.loc 1 539 10
 1067 0012 6955     		li	a0,-6
 1068              	.LVL88:
 1069 0014 8280     		ret
 1070              	.L310:
 540:C:/Users/stapi/OneDrive/Desktop/GD32VW553/GD32VW55X_Wifi_BLE_SDK/GD32VW55x_RELEASE_V1.0.2/MSDK/lwip/lwip-2.1.2/src/core\altcp.c **** }
 1071              		.loc 1 540 1
 1072 0016 8280     		ret
 1073              		.cfi_endproc
 1074              	.LFE36:
 1076              		.section	.text.altcp_default_shutdown,"ax",@progbits
 1077              		.align	1
 1078              		.globl	altcp_default_shutdown
 1080              	altcp_default_shutdown:
 1081              	.LFB37:
 541:C:/Users/stapi/OneDrive/Desktop/GD32VW553/GD32VW55X_Wifi_BLE_SDK/GD32VW55x_RELEASE_V1.0.2/MSDK/lwip/lwip-2.1.2/src/core\altcp.c **** 
 542:C:/Users/stapi/OneDrive/Desktop/GD32VW553/GD32VW55X_Wifi_BLE_SDK/GD32VW55x_RELEASE_V1.0.2/MSDK/lwip/lwip-2.1.2/src/core\altcp.c **** err_t
 543:C:/Users/stapi/OneDrive/Desktop/GD32VW553/GD32VW55X_Wifi_BLE_SDK/GD32VW55x_RELEASE_V1.0.2/MSDK/lwip/lwip-2.1.2/src/core\altcp.c **** altcp_default_shutdown(struct altcp_pcb *conn, int shut_rx, int shut_tx)
 544:C:/Users/stapi/OneDrive/Desktop/GD32VW553/GD32VW55X_Wifi_BLE_SDK/GD32VW55x_RELEASE_V1.0.2/MSDK/lwip/lwip-2.1.2/src/core\altcp.c **** {
 1082              		.loc 1 544 1 is_stmt 1
 1083              		.cfi_startproc
 1084              	.LVL89:
 545:C:/Users/stapi/OneDrive/Desktop/GD32VW553/GD32VW55X_Wifi_BLE_SDK/GD32VW55x_RELEASE_V1.0.2/MSDK/lwip/lwip-2.1.2/src/core\altcp.c ****   if (conn) {
 1085              		.loc 1 545 3
 1086              		.loc 1 545 6 is_stmt 0
 1087 0000 15C9     		beq	a0,zero,.L316
 544:C:/Users/stapi/OneDrive/Desktop/GD32VW553/GD32VW55X_Wifi_BLE_SDK/GD32VW55x_RELEASE_V1.0.2/MSDK/lwip/lwip-2.1.2/src/core\altcp.c ****   if (conn) {
 1088              		.loc 1 544 1
 1089 0002 17030000 		call	t0,__riscv_save_0
 1089      E7020300 
 1090              		.cfi_offset 1, -4
 1091              		.cfi_def_cfa_offset 16
 1092 000a AA87     		mv	a5,a0
 546:C:/Users/stapi/OneDrive/Desktop/GD32VW553/GD32VW55X_Wifi_BLE_SDK/GD32VW55x_RELEASE_V1.0.2/MSDK/lwip/lwip-2.1.2/src/core\altcp.c ****     if (shut_rx && shut_tx && conn->fns && conn->fns->close) {
 1093              		.loc 1 546 5 is_stmt 1
 1094              		.loc 1 546 8 is_stmt 0
 1095 000c 99C9     		beq	a1,zero,.L315
 1096              		.loc 1 546 17 discriminator 1
 1097 000e 11CA     		beq	a2,zero,.L315
 1098              		.loc 1 546 35 discriminator 2
 1099 0010 1841     		lw	a4,0(a0)
 1100              		.loc 1 546 28 discriminator 2
 1101 0012 01CB     		beq	a4,zero,.L315
 1102              		.loc 1 546 53 discriminator 3
 1103 0014 184F     		lw	a4,24(a4)
 1104              		.loc 1 546 41 discriminator 3
 1105 0016 11C7     		beq	a4,zero,.L315
 547:C:/Users/stapi/OneDrive/Desktop/GD32VW553/GD32VW55X_Wifi_BLE_SDK/GD32VW55x_RELEASE_V1.0.2/MSDK/lwip/lwip-2.1.2/src/core\altcp.c ****       /* default shutdown for both sides is close */
 548:C:/Users/stapi/OneDrive/Desktop/GD32VW553/GD32VW55X_Wifi_BLE_SDK/GD32VW55x_RELEASE_V1.0.2/MSDK/lwip/lwip-2.1.2/src/core\altcp.c ****       return conn->fns->close(conn);
 1106              		.loc 1 548 7 is_stmt 1
 1107              		.loc 1 548 14 is_stmt 0
 1108 0018 0297     		jalr	a4
 1109              	.LVL90:
 1110              	.L314:
 549:C:/Users/stapi/OneDrive/Desktop/GD32VW553/GD32VW55X_Wifi_BLE_SDK/GD32VW55x_RELEASE_V1.0.2/MSDK/lwip/lwip-2.1.2/src/core\altcp.c ****     }
 550:C:/Users/stapi/OneDrive/Desktop/GD32VW553/GD32VW55X_Wifi_BLE_SDK/GD32VW55x_RELEASE_V1.0.2/MSDK/lwip/lwip-2.1.2/src/core\altcp.c ****     if (conn->inner_conn) {
 551:C:/Users/stapi/OneDrive/Desktop/GD32VW553/GD32VW55X_Wifi_BLE_SDK/GD32VW55x_RELEASE_V1.0.2/MSDK/lwip/lwip-2.1.2/src/core\altcp.c ****       return altcp_shutdown(conn->inner_conn, shut_rx, shut_tx);
 552:C:/Users/stapi/OneDrive/Desktop/GD32VW553/GD32VW55X_Wifi_BLE_SDK/GD32VW55x_RELEASE_V1.0.2/MSDK/lwip/lwip-2.1.2/src/core\altcp.c ****     }
 553:C:/Users/stapi/OneDrive/Desktop/GD32VW553/GD32VW55X_Wifi_BLE_SDK/GD32VW55x_RELEASE_V1.0.2/MSDK/lwip/lwip-2.1.2/src/core\altcp.c ****   }
 554:C:/Users/stapi/OneDrive/Desktop/GD32VW553/GD32VW55X_Wifi_BLE_SDK/GD32VW55x_RELEASE_V1.0.2/MSDK/lwip/lwip-2.1.2/src/core\altcp.c ****   return ERR_VAL;
 555:C:/Users/stapi/OneDrive/Desktop/GD32VW553/GD32VW55X_Wifi_BLE_SDK/GD32VW55x_RELEASE_V1.0.2/MSDK/lwip/lwip-2.1.2/src/core\altcp.c **** }
 1111              		.loc 1 555 1
 1112 001a 17030000 		tail	__riscv_restore_0
 1112      67000300 
 1113              		.cfi_remember_state
 1114              		.cfi_restore 1
 1115              		.cfi_def_cfa_offset 0
 1116              	.LVL91:
 1117              	.L315:
 1118              		.cfi_restore_state
 550:C:/Users/stapi/OneDrive/Desktop/GD32VW553/GD32VW55X_Wifi_BLE_SDK/GD32VW55x_RELEASE_V1.0.2/MSDK/lwip/lwip-2.1.2/src/core\altcp.c ****       return altcp_shutdown(conn->inner_conn, shut_rx, shut_tx);
 1119              		.loc 1 550 5 is_stmt 1
 550:C:/Users/stapi/OneDrive/Desktop/GD32VW553/GD32VW55X_Wifi_BLE_SDK/GD32VW55x_RELEASE_V1.0.2/MSDK/lwip/lwip-2.1.2/src/core\altcp.c ****       return altcp_shutdown(conn->inner_conn, shut_rx, shut_tx);
 1120              		.loc 1 550 13 is_stmt 0
 1121 0022 DC43     		lw	a5,4(a5)
 554:C:/Users/stapi/OneDrive/Desktop/GD32VW553/GD32VW55X_Wifi_BLE_SDK/GD32VW55x_RELEASE_V1.0.2/MSDK/lwip/lwip-2.1.2/src/core\altcp.c **** }
 1122              		.loc 1 554 10
 1123 0024 6955     		li	a0,-6
 1124              	.LVL92:
 550:C:/Users/stapi/OneDrive/Desktop/GD32VW553/GD32VW55X_Wifi_BLE_SDK/GD32VW55x_RELEASE_V1.0.2/MSDK/lwip/lwip-2.1.2/src/core\altcp.c ****       return altcp_shutdown(conn->inner_conn, shut_rx, shut_tx);
 1125              		.loc 1 550 8
 1126 0026 F5DB     		beq	a5,zero,.L314
 551:C:/Users/stapi/OneDrive/Desktop/GD32VW553/GD32VW55X_Wifi_BLE_SDK/GD32VW55x_RELEASE_V1.0.2/MSDK/lwip/lwip-2.1.2/src/core\altcp.c ****     }
 1127              		.loc 1 551 7 is_stmt 1
 551:C:/Users/stapi/OneDrive/Desktop/GD32VW553/GD32VW55X_Wifi_BLE_SDK/GD32VW55x_RELEASE_V1.0.2/MSDK/lwip/lwip-2.1.2/src/core\altcp.c ****     }
 1128              		.loc 1 551 14 is_stmt 0
 1129 0028 3E85     		mv	a0,a5
 1130 002a 97000000 		call	altcp_shutdown
 1130      E7800000 
 1131              	.LVL93:
 1132 0032 E5B7     		j	.L314
 1133              	.LVL94:
 1134              	.L316:
 1135              		.cfi_def_cfa_offset 0
 1136              		.cfi_restore 1
 554:C:/Users/stapi/OneDrive/Desktop/GD32VW553/GD32VW55X_Wifi_BLE_SDK/GD32VW55x_RELEASE_V1.0.2/MSDK/lwip/lwip-2.1.2/src/core\altcp.c **** }
 1137              		.loc 1 554 10
 1138 0034 6955     		li	a0,-6
 1139              	.LVL95:
 1140              		.loc 1 555 1
 1141 0036 8280     		ret
 1142              		.cfi_endproc
 1143              	.LFE37:
 1145              		.section	.text.altcp_default_write,"ax",@progbits
 1146              		.align	1
 1147              		.globl	altcp_default_write
 1149              	altcp_default_write:
 1150              	.LFB38:
 556:C:/Users/stapi/OneDrive/Desktop/GD32VW553/GD32VW55X_Wifi_BLE_SDK/GD32VW55x_RELEASE_V1.0.2/MSDK/lwip/lwip-2.1.2/src/core\altcp.c **** 
 557:C:/Users/stapi/OneDrive/Desktop/GD32VW553/GD32VW55X_Wifi_BLE_SDK/GD32VW55x_RELEASE_V1.0.2/MSDK/lwip/lwip-2.1.2/src/core\altcp.c **** err_t
 558:C:/Users/stapi/OneDrive/Desktop/GD32VW553/GD32VW55X_Wifi_BLE_SDK/GD32VW55x_RELEASE_V1.0.2/MSDK/lwip/lwip-2.1.2/src/core\altcp.c **** altcp_default_write(struct altcp_pcb *conn, const void *dataptr, u16_t len, u8_t apiflags)
 559:C:/Users/stapi/OneDrive/Desktop/GD32VW553/GD32VW55X_Wifi_BLE_SDK/GD32VW55x_RELEASE_V1.0.2/MSDK/lwip/lwip-2.1.2/src/core\altcp.c **** {
 1151              		.loc 1 559 1 is_stmt 1
 1152              		.cfi_startproc
 1153              	.LVL96:
 560:C:/Users/stapi/OneDrive/Desktop/GD32VW553/GD32VW55X_Wifi_BLE_SDK/GD32VW55x_RELEASE_V1.0.2/MSDK/lwip/lwip-2.1.2/src/core\altcp.c ****   if (conn && conn->inner_conn) {
 1154              		.loc 1 560 3
 1155              		.loc 1 560 6 is_stmt 0
 1156 0000 09C9     		beq	a0,zero,.L336
 1157              		.loc 1 560 19 discriminator 1
 1158 0002 5C41     		lw	a5,4(a0)
 561:C:/Users/stapi/OneDrive/Desktop/GD32VW553/GD32VW55X_Wifi_BLE_SDK/GD32VW55x_RELEASE_V1.0.2/MSDK/lwip/lwip-2.1.2/src/core\altcp.c ****     return altcp_write(conn->inner_conn, dataptr, len, apiflags);
 562:C:/Users/stapi/OneDrive/Desktop/GD32VW553/GD32VW55X_Wifi_BLE_SDK/GD32VW55x_RELEASE_V1.0.2/MSDK/lwip/lwip-2.1.2/src/core\altcp.c ****   }
 563:C:/Users/stapi/OneDrive/Desktop/GD32VW553/GD32VW55X_Wifi_BLE_SDK/GD32VW55x_RELEASE_V1.0.2/MSDK/lwip/lwip-2.1.2/src/core\altcp.c ****   return ERR_VAL;
 1159              		.loc 1 563 10 discriminator 1
 1160 0004 6955     		li	a0,-6
 1161              	.LVL97:
 560:C:/Users/stapi/OneDrive/Desktop/GD32VW553/GD32VW55X_Wifi_BLE_SDK/GD32VW55x_RELEASE_V1.0.2/MSDK/lwip/lwip-2.1.2/src/core\altcp.c ****   if (conn && conn->inner_conn) {
 1162              		.loc 1 560 12 discriminator 1
 1163 0006 81CB     		beq	a5,zero,.L339
 561:C:/Users/stapi/OneDrive/Desktop/GD32VW553/GD32VW55X_Wifi_BLE_SDK/GD32VW55x_RELEASE_V1.0.2/MSDK/lwip/lwip-2.1.2/src/core\altcp.c ****     return altcp_write(conn->inner_conn, dataptr, len, apiflags);
 1164              		.loc 1 561 5 is_stmt 1
 561:C:/Users/stapi/OneDrive/Desktop/GD32VW553/GD32VW55X_Wifi_BLE_SDK/GD32VW55x_RELEASE_V1.0.2/MSDK/lwip/lwip-2.1.2/src/core\altcp.c ****     return altcp_write(conn->inner_conn, dataptr, len, apiflags);
 1165              		.loc 1 561 12 is_stmt 0
 1166 0008 3E85     		mv	a0,a5
 1167 000a 17030000 		tail	altcp_write
 1167      67000300 
 1168              	.LVL98:
 1169              	.L336:
 1170              		.loc 1 563 10
 1171 0012 6955     		li	a0,-6
 1172              	.LVL99:
 1173 0014 8280     		ret
 1174              	.L339:
 564:C:/Users/stapi/OneDrive/Desktop/GD32VW553/GD32VW55X_Wifi_BLE_SDK/GD32VW55x_RELEASE_V1.0.2/MSDK/lwip/lwip-2.1.2/src/core\altcp.c **** }
 1175              		.loc 1 564 1
 1176 0016 8280     		ret
 1177              		.cfi_endproc
 1178              	.LFE38:
 1180              		.section	.text.altcp_default_output,"ax",@progbits
 1181              		.align	1
 1182              		.globl	altcp_default_output
 1184              	altcp_default_output:
 1185              	.LFB39:
 565:C:/Users/stapi/OneDrive/Desktop/GD32VW553/GD32VW55X_Wifi_BLE_SDK/GD32VW55x_RELEASE_V1.0.2/MSDK/lwip/lwip-2.1.2/src/core\altcp.c **** 
 566:C:/Users/stapi/OneDrive/Desktop/GD32VW553/GD32VW55X_Wifi_BLE_SDK/GD32VW55x_RELEASE_V1.0.2/MSDK/lwip/lwip-2.1.2/src/core\altcp.c **** err_t
 567:C:/Users/stapi/OneDrive/Desktop/GD32VW553/GD32VW55X_Wifi_BLE_SDK/GD32VW55x_RELEASE_V1.0.2/MSDK/lwip/lwip-2.1.2/src/core\altcp.c **** altcp_default_output(struct altcp_pcb *conn)
 568:C:/Users/stapi/OneDrive/Desktop/GD32VW553/GD32VW55X_Wifi_BLE_SDK/GD32VW55x_RELEASE_V1.0.2/MSDK/lwip/lwip-2.1.2/src/core\altcp.c **** {
 1186              		.loc 1 568 1 is_stmt 1
 1187              		.cfi_startproc
 1188              	.LVL100:
 569:C:/Users/stapi/OneDrive/Desktop/GD32VW553/GD32VW55X_Wifi_BLE_SDK/GD32VW55x_RELEASE_V1.0.2/MSDK/lwip/lwip-2.1.2/src/core\altcp.c ****   if (conn && conn->inner_conn) {
 1189              		.loc 1 569 3
 1190              		.loc 1 569 6 is_stmt 0
 1191 0000 09C9     		beq	a0,zero,.L344
 1192              		.loc 1 569 19 discriminator 1
 1193 0002 5C41     		lw	a5,4(a0)
 570:C:/Users/stapi/OneDrive/Desktop/GD32VW553/GD32VW55X_Wifi_BLE_SDK/GD32VW55x_RELEASE_V1.0.2/MSDK/lwip/lwip-2.1.2/src/core\altcp.c ****     return altcp_output(conn->inner_conn);
 571:C:/Users/stapi/OneDrive/Desktop/GD32VW553/GD32VW55X_Wifi_BLE_SDK/GD32VW55x_RELEASE_V1.0.2/MSDK/lwip/lwip-2.1.2/src/core\altcp.c ****   }
 572:C:/Users/stapi/OneDrive/Desktop/GD32VW553/GD32VW55X_Wifi_BLE_SDK/GD32VW55x_RELEASE_V1.0.2/MSDK/lwip/lwip-2.1.2/src/core\altcp.c ****   return ERR_VAL;
 1194              		.loc 1 572 10 discriminator 1
 1195 0004 6955     		li	a0,-6
 1196              	.LVL101:
 569:C:/Users/stapi/OneDrive/Desktop/GD32VW553/GD32VW55X_Wifi_BLE_SDK/GD32VW55x_RELEASE_V1.0.2/MSDK/lwip/lwip-2.1.2/src/core\altcp.c ****   if (conn && conn->inner_conn) {
 1197              		.loc 1 569 12 discriminator 1
 1198 0006 81CB     		beq	a5,zero,.L347
 570:C:/Users/stapi/OneDrive/Desktop/GD32VW553/GD32VW55X_Wifi_BLE_SDK/GD32VW55x_RELEASE_V1.0.2/MSDK/lwip/lwip-2.1.2/src/core\altcp.c ****     return altcp_output(conn->inner_conn);
 1199              		.loc 1 570 5 is_stmt 1
 570:C:/Users/stapi/OneDrive/Desktop/GD32VW553/GD32VW55X_Wifi_BLE_SDK/GD32VW55x_RELEASE_V1.0.2/MSDK/lwip/lwip-2.1.2/src/core\altcp.c ****     return altcp_output(conn->inner_conn);
 1200              		.loc 1 570 12 is_stmt 0
 1201 0008 3E85     		mv	a0,a5
 1202 000a 17030000 		tail	altcp_output
 1202      67000300 
 1203              	.LVL102:
 1204              	.L344:
 1205              		.loc 1 572 10
 1206 0012 6955     		li	a0,-6
 1207              	.LVL103:
 1208 0014 8280     		ret
 1209              	.L347:
 573:C:/Users/stapi/OneDrive/Desktop/GD32VW553/GD32VW55X_Wifi_BLE_SDK/GD32VW55x_RELEASE_V1.0.2/MSDK/lwip/lwip-2.1.2/src/core\altcp.c **** }
 1210              		.loc 1 573 1
 1211 0016 8280     		ret
 1212              		.cfi_endproc
 1213              	.LFE39:
 1215              		.section	.text.altcp_default_mss,"ax",@progbits
 1216              		.align	1
 1217              		.globl	altcp_default_mss
 1219              	altcp_default_mss:
 1220              	.LFB40:
 574:C:/Users/stapi/OneDrive/Desktop/GD32VW553/GD32VW55X_Wifi_BLE_SDK/GD32VW55x_RELEASE_V1.0.2/MSDK/lwip/lwip-2.1.2/src/core\altcp.c **** 
 575:C:/Users/stapi/OneDrive/Desktop/GD32VW553/GD32VW55X_Wifi_BLE_SDK/GD32VW55x_RELEASE_V1.0.2/MSDK/lwip/lwip-2.1.2/src/core\altcp.c **** u16_t
 576:C:/Users/stapi/OneDrive/Desktop/GD32VW553/GD32VW55X_Wifi_BLE_SDK/GD32VW55x_RELEASE_V1.0.2/MSDK/lwip/lwip-2.1.2/src/core\altcp.c **** altcp_default_mss(struct altcp_pcb *conn)
 577:C:/Users/stapi/OneDrive/Desktop/GD32VW553/GD32VW55X_Wifi_BLE_SDK/GD32VW55x_RELEASE_V1.0.2/MSDK/lwip/lwip-2.1.2/src/core\altcp.c **** {
 1221              		.loc 1 577 1 is_stmt 1
 1222              		.cfi_startproc
 1223              	.LVL104:
 578:C:/Users/stapi/OneDrive/Desktop/GD32VW553/GD32VW55X_Wifi_BLE_SDK/GD32VW55x_RELEASE_V1.0.2/MSDK/lwip/lwip-2.1.2/src/core\altcp.c ****   if (conn && conn->inner_conn) {
 1224              		.loc 1 578 3
 1225              		.loc 1 578 6 is_stmt 0
 1226 0000 09C9     		beq	a0,zero,.L352
 1227              		.loc 1 578 19 discriminator 1
 1228 0002 5C41     		lw	a5,4(a0)
 579:C:/Users/stapi/OneDrive/Desktop/GD32VW553/GD32VW55X_Wifi_BLE_SDK/GD32VW55x_RELEASE_V1.0.2/MSDK/lwip/lwip-2.1.2/src/core\altcp.c ****     return altcp_mss(conn->inner_conn);
 580:C:/Users/stapi/OneDrive/Desktop/GD32VW553/GD32VW55X_Wifi_BLE_SDK/GD32VW55x_RELEASE_V1.0.2/MSDK/lwip/lwip-2.1.2/src/core\altcp.c ****   }
 581:C:/Users/stapi/OneDrive/Desktop/GD32VW553/GD32VW55X_Wifi_BLE_SDK/GD32VW55x_RELEASE_V1.0.2/MSDK/lwip/lwip-2.1.2/src/core\altcp.c ****   return 0;
 1229              		.loc 1 581 10 discriminator 1
 1230 0004 0145     		li	a0,0
 1231              	.LVL105:
 578:C:/Users/stapi/OneDrive/Desktop/GD32VW553/GD32VW55X_Wifi_BLE_SDK/GD32VW55x_RELEASE_V1.0.2/MSDK/lwip/lwip-2.1.2/src/core\altcp.c ****   if (conn && conn->inner_conn) {
 1232              		.loc 1 578 12 discriminator 1
 1233 0006 81CB     		beq	a5,zero,.L356
 579:C:/Users/stapi/OneDrive/Desktop/GD32VW553/GD32VW55X_Wifi_BLE_SDK/GD32VW55x_RELEASE_V1.0.2/MSDK/lwip/lwip-2.1.2/src/core\altcp.c ****     return altcp_mss(conn->inner_conn);
 1234              		.loc 1 579 5 is_stmt 1
 579:C:/Users/stapi/OneDrive/Desktop/GD32VW553/GD32VW55X_Wifi_BLE_SDK/GD32VW55x_RELEASE_V1.0.2/MSDK/lwip/lwip-2.1.2/src/core\altcp.c ****     return altcp_mss(conn->inner_conn);
 1235              		.loc 1 579 12 is_stmt 0
 1236 0008 3E85     		mv	a0,a5
 1237 000a 17030000 		tail	altcp_mss
 1237      67000300 
 1238              	.LVL106:
 1239              	.L352:
 1240              		.loc 1 581 10
 1241 0012 0145     		li	a0,0
 1242              	.LVL107:
 1243 0014 8280     		ret
 1244              	.L356:
 582:C:/Users/stapi/OneDrive/Desktop/GD32VW553/GD32VW55X_Wifi_BLE_SDK/GD32VW55x_RELEASE_V1.0.2/MSDK/lwip/lwip-2.1.2/src/core\altcp.c **** }
 1245              		.loc 1 582 1
 1246 0016 8280     		ret
 1247              		.cfi_endproc
 1248              	.LFE40:
 1250              		.section	.text.altcp_default_sndbuf,"ax",@progbits
 1251              		.align	1
 1252              		.globl	altcp_default_sndbuf
 1254              	altcp_default_sndbuf:
 1255              	.LFB41:
 583:C:/Users/stapi/OneDrive/Desktop/GD32VW553/GD32VW55X_Wifi_BLE_SDK/GD32VW55x_RELEASE_V1.0.2/MSDK/lwip/lwip-2.1.2/src/core\altcp.c **** 
 584:C:/Users/stapi/OneDrive/Desktop/GD32VW553/GD32VW55X_Wifi_BLE_SDK/GD32VW55x_RELEASE_V1.0.2/MSDK/lwip/lwip-2.1.2/src/core\altcp.c **** u16_t
 585:C:/Users/stapi/OneDrive/Desktop/GD32VW553/GD32VW55X_Wifi_BLE_SDK/GD32VW55x_RELEASE_V1.0.2/MSDK/lwip/lwip-2.1.2/src/core\altcp.c **** altcp_default_sndbuf(struct altcp_pcb *conn)
 586:C:/Users/stapi/OneDrive/Desktop/GD32VW553/GD32VW55X_Wifi_BLE_SDK/GD32VW55x_RELEASE_V1.0.2/MSDK/lwip/lwip-2.1.2/src/core\altcp.c **** {
 1256              		.loc 1 586 1 is_stmt 1
 1257              		.cfi_startproc
 1258              	.LVL108:
 587:C:/Users/stapi/OneDrive/Desktop/GD32VW553/GD32VW55X_Wifi_BLE_SDK/GD32VW55x_RELEASE_V1.0.2/MSDK/lwip/lwip-2.1.2/src/core\altcp.c ****   if (conn && conn->inner_conn) {
 1259              		.loc 1 587 3
 1260              		.loc 1 587 6 is_stmt 0
 1261 0000 09C9     		beq	a0,zero,.L361
 1262              		.loc 1 587 19 discriminator 1
 1263 0002 5C41     		lw	a5,4(a0)
 588:C:/Users/stapi/OneDrive/Desktop/GD32VW553/GD32VW55X_Wifi_BLE_SDK/GD32VW55x_RELEASE_V1.0.2/MSDK/lwip/lwip-2.1.2/src/core\altcp.c ****     return altcp_sndbuf(conn->inner_conn);
 589:C:/Users/stapi/OneDrive/Desktop/GD32VW553/GD32VW55X_Wifi_BLE_SDK/GD32VW55x_RELEASE_V1.0.2/MSDK/lwip/lwip-2.1.2/src/core\altcp.c ****   }
 590:C:/Users/stapi/OneDrive/Desktop/GD32VW553/GD32VW55X_Wifi_BLE_SDK/GD32VW55x_RELEASE_V1.0.2/MSDK/lwip/lwip-2.1.2/src/core\altcp.c ****   return 0;
 1264              		.loc 1 590 10 discriminator 1
 1265 0004 0145     		li	a0,0
 1266              	.LVL109:
 587:C:/Users/stapi/OneDrive/Desktop/GD32VW553/GD32VW55X_Wifi_BLE_SDK/GD32VW55x_RELEASE_V1.0.2/MSDK/lwip/lwip-2.1.2/src/core\altcp.c ****   if (conn && conn->inner_conn) {
 1267              		.loc 1 587 12 discriminator 1
 1268 0006 81CB     		beq	a5,zero,.L365
 588:C:/Users/stapi/OneDrive/Desktop/GD32VW553/GD32VW55X_Wifi_BLE_SDK/GD32VW55x_RELEASE_V1.0.2/MSDK/lwip/lwip-2.1.2/src/core\altcp.c ****     return altcp_sndbuf(conn->inner_conn);
 1269              		.loc 1 588 5 is_stmt 1
 588:C:/Users/stapi/OneDrive/Desktop/GD32VW553/GD32VW55X_Wifi_BLE_SDK/GD32VW55x_RELEASE_V1.0.2/MSDK/lwip/lwip-2.1.2/src/core\altcp.c ****     return altcp_sndbuf(conn->inner_conn);
 1270              		.loc 1 588 12 is_stmt 0
 1271 0008 3E85     		mv	a0,a5
 1272 000a 17030000 		tail	altcp_sndbuf
 1272      67000300 
 1273              	.LVL110:
 1274              	.L361:
 1275              		.loc 1 590 10
 1276 0012 0145     		li	a0,0
 1277              	.LVL111:
 1278 0014 8280     		ret
 1279              	.L365:
 591:C:/Users/stapi/OneDrive/Desktop/GD32VW553/GD32VW55X_Wifi_BLE_SDK/GD32VW55x_RELEASE_V1.0.2/MSDK/lwip/lwip-2.1.2/src/core\altcp.c **** }
 1280              		.loc 1 591 1
 1281 0016 8280     		ret
 1282              		.cfi_endproc
 1283              	.LFE41:
 1285              		.section	.text.altcp_default_sndqueuelen,"ax",@progbits
 1286              		.align	1
 1287              		.globl	altcp_default_sndqueuelen
 1289              	altcp_default_sndqueuelen:
 1290              	.LFB42:
 592:C:/Users/stapi/OneDrive/Desktop/GD32VW553/GD32VW55X_Wifi_BLE_SDK/GD32VW55x_RELEASE_V1.0.2/MSDK/lwip/lwip-2.1.2/src/core\altcp.c **** 
 593:C:/Users/stapi/OneDrive/Desktop/GD32VW553/GD32VW55X_Wifi_BLE_SDK/GD32VW55x_RELEASE_V1.0.2/MSDK/lwip/lwip-2.1.2/src/core\altcp.c **** u16_t
 594:C:/Users/stapi/OneDrive/Desktop/GD32VW553/GD32VW55X_Wifi_BLE_SDK/GD32VW55x_RELEASE_V1.0.2/MSDK/lwip/lwip-2.1.2/src/core\altcp.c **** altcp_default_sndqueuelen(struct altcp_pcb *conn)
 595:C:/Users/stapi/OneDrive/Desktop/GD32VW553/GD32VW55X_Wifi_BLE_SDK/GD32VW55x_RELEASE_V1.0.2/MSDK/lwip/lwip-2.1.2/src/core\altcp.c **** {
 1291              		.loc 1 595 1 is_stmt 1
 1292              		.cfi_startproc
 1293              	.LVL112:
 596:C:/Users/stapi/OneDrive/Desktop/GD32VW553/GD32VW55X_Wifi_BLE_SDK/GD32VW55x_RELEASE_V1.0.2/MSDK/lwip/lwip-2.1.2/src/core\altcp.c ****   if (conn && conn->inner_conn) {
 1294              		.loc 1 596 3
 1295              		.loc 1 596 6 is_stmt 0
 1296 0000 09C9     		beq	a0,zero,.L370
 1297              		.loc 1 596 19 discriminator 1
 1298 0002 5C41     		lw	a5,4(a0)
 597:C:/Users/stapi/OneDrive/Desktop/GD32VW553/GD32VW55X_Wifi_BLE_SDK/GD32VW55x_RELEASE_V1.0.2/MSDK/lwip/lwip-2.1.2/src/core\altcp.c ****     return altcp_sndqueuelen(conn->inner_conn);
 598:C:/Users/stapi/OneDrive/Desktop/GD32VW553/GD32VW55X_Wifi_BLE_SDK/GD32VW55x_RELEASE_V1.0.2/MSDK/lwip/lwip-2.1.2/src/core\altcp.c ****   }
 599:C:/Users/stapi/OneDrive/Desktop/GD32VW553/GD32VW55X_Wifi_BLE_SDK/GD32VW55x_RELEASE_V1.0.2/MSDK/lwip/lwip-2.1.2/src/core\altcp.c ****   return 0;
 1299              		.loc 1 599 10 discriminator 1
 1300 0004 0145     		li	a0,0
 1301              	.LVL113:
 596:C:/Users/stapi/OneDrive/Desktop/GD32VW553/GD32VW55X_Wifi_BLE_SDK/GD32VW55x_RELEASE_V1.0.2/MSDK/lwip/lwip-2.1.2/src/core\altcp.c ****   if (conn && conn->inner_conn) {
 1302              		.loc 1 596 12 discriminator 1
 1303 0006 81CB     		beq	a5,zero,.L374
 597:C:/Users/stapi/OneDrive/Desktop/GD32VW553/GD32VW55X_Wifi_BLE_SDK/GD32VW55x_RELEASE_V1.0.2/MSDK/lwip/lwip-2.1.2/src/core\altcp.c ****     return altcp_sndqueuelen(conn->inner_conn);
 1304              		.loc 1 597 5 is_stmt 1
 597:C:/Users/stapi/OneDrive/Desktop/GD32VW553/GD32VW55X_Wifi_BLE_SDK/GD32VW55x_RELEASE_V1.0.2/MSDK/lwip/lwip-2.1.2/src/core\altcp.c ****     return altcp_sndqueuelen(conn->inner_conn);
 1305              		.loc 1 597 12 is_stmt 0
 1306 0008 3E85     		mv	a0,a5
 1307 000a 17030000 		tail	altcp_sndqueuelen
 1307      67000300 
 1308              	.LVL114:
 1309              	.L370:
 1310              		.loc 1 599 10
 1311 0012 0145     		li	a0,0
 1312              	.LVL115:
 1313 0014 8280     		ret
 1314              	.L374:
 600:C:/Users/stapi/OneDrive/Desktop/GD32VW553/GD32VW55X_Wifi_BLE_SDK/GD32VW55x_RELEASE_V1.0.2/MSDK/lwip/lwip-2.1.2/src/core\altcp.c **** }
 1315              		.loc 1 600 1
 1316 0016 8280     		ret
 1317              		.cfi_endproc
 1318              	.LFE42:
 1320              		.section	.text.altcp_default_nagle_disable,"ax",@progbits
 1321              		.align	1
 1322              		.globl	altcp_default_nagle_disable
 1324              	altcp_default_nagle_disable:
 1325              	.LFB43:
 601:C:/Users/stapi/OneDrive/Desktop/GD32VW553/GD32VW55X_Wifi_BLE_SDK/GD32VW55x_RELEASE_V1.0.2/MSDK/lwip/lwip-2.1.2/src/core\altcp.c **** 
 602:C:/Users/stapi/OneDrive/Desktop/GD32VW553/GD32VW55X_Wifi_BLE_SDK/GD32VW55x_RELEASE_V1.0.2/MSDK/lwip/lwip-2.1.2/src/core\altcp.c **** void
 603:C:/Users/stapi/OneDrive/Desktop/GD32VW553/GD32VW55X_Wifi_BLE_SDK/GD32VW55x_RELEASE_V1.0.2/MSDK/lwip/lwip-2.1.2/src/core\altcp.c **** altcp_default_nagle_disable(struct altcp_pcb *conn)
 604:C:/Users/stapi/OneDrive/Desktop/GD32VW553/GD32VW55X_Wifi_BLE_SDK/GD32VW55x_RELEASE_V1.0.2/MSDK/lwip/lwip-2.1.2/src/core\altcp.c **** {
 1326              		.loc 1 604 1 is_stmt 1
 1327              		.cfi_startproc
 1328              	.LVL116:
 605:C:/Users/stapi/OneDrive/Desktop/GD32VW553/GD32VW55X_Wifi_BLE_SDK/GD32VW55x_RELEASE_V1.0.2/MSDK/lwip/lwip-2.1.2/src/core\altcp.c ****   if (conn && conn->inner_conn) {
 1329              		.loc 1 605 3
 1330              		.loc 1 605 6 is_stmt 0
 1331 0000 19C5     		beq	a0,zero,.L386
 1332              		.loc 1 605 19 discriminator 1
 1333 0002 4841     		lw	a0,4(a0)
 1334              	.LVL117:
 1335              		.loc 1 605 12 discriminator 1
 1336 0004 09C5     		beq	a0,zero,.L386
 606:C:/Users/stapi/OneDrive/Desktop/GD32VW553/GD32VW55X_Wifi_BLE_SDK/GD32VW55x_RELEASE_V1.0.2/MSDK/lwip/lwip-2.1.2/src/core\altcp.c ****     altcp_nagle_disable(conn->inner_conn);
 1337              		.loc 1 606 5 is_stmt 1
 1338 0006 17030000 		tail	altcp_nagle_disable
 1338      67000300 
 1339              	.LVL118:
 1340              	.L386:
 1341 000e 8280     		ret
 1342              		.cfi_endproc
 1343              	.LFE43:
 1345              		.section	.text.altcp_default_nagle_enable,"ax",@progbits
 1346              		.align	1
 1347              		.globl	altcp_default_nagle_enable
 1349              	altcp_default_nagle_enable:
 1350              	.LFB44:
 607:C:/Users/stapi/OneDrive/Desktop/GD32VW553/GD32VW55X_Wifi_BLE_SDK/GD32VW55x_RELEASE_V1.0.2/MSDK/lwip/lwip-2.1.2/src/core\altcp.c ****   }
 608:C:/Users/stapi/OneDrive/Desktop/GD32VW553/GD32VW55X_Wifi_BLE_SDK/GD32VW55x_RELEASE_V1.0.2/MSDK/lwip/lwip-2.1.2/src/core\altcp.c **** }
 609:C:/Users/stapi/OneDrive/Desktop/GD32VW553/GD32VW55X_Wifi_BLE_SDK/GD32VW55x_RELEASE_V1.0.2/MSDK/lwip/lwip-2.1.2/src/core\altcp.c **** 
 610:C:/Users/stapi/OneDrive/Desktop/GD32VW553/GD32VW55X_Wifi_BLE_SDK/GD32VW55x_RELEASE_V1.0.2/MSDK/lwip/lwip-2.1.2/src/core\altcp.c **** void
 611:C:/Users/stapi/OneDrive/Desktop/GD32VW553/GD32VW55X_Wifi_BLE_SDK/GD32VW55x_RELEASE_V1.0.2/MSDK/lwip/lwip-2.1.2/src/core\altcp.c **** altcp_default_nagle_enable(struct altcp_pcb *conn)
 612:C:/Users/stapi/OneDrive/Desktop/GD32VW553/GD32VW55X_Wifi_BLE_SDK/GD32VW55x_RELEASE_V1.0.2/MSDK/lwip/lwip-2.1.2/src/core\altcp.c **** {
 1351              		.loc 1 612 1
 1352              		.cfi_startproc
 1353              	.LVL119:
 613:C:/Users/stapi/OneDrive/Desktop/GD32VW553/GD32VW55X_Wifi_BLE_SDK/GD32VW55x_RELEASE_V1.0.2/MSDK/lwip/lwip-2.1.2/src/core\altcp.c ****   if (conn && conn->inner_conn) {
 1354              		.loc 1 613 3
 1355              		.loc 1 613 6 is_stmt 0
 1356 0000 19C5     		beq	a0,zero,.L398
 1357              		.loc 1 613 19 discriminator 1
 1358 0002 4841     		lw	a0,4(a0)
 1359              	.LVL120:
 1360              		.loc 1 613 12 discriminator 1
 1361 0004 09C5     		beq	a0,zero,.L398
 614:C:/Users/stapi/OneDrive/Desktop/GD32VW553/GD32VW55X_Wifi_BLE_SDK/GD32VW55x_RELEASE_V1.0.2/MSDK/lwip/lwip-2.1.2/src/core\altcp.c ****     altcp_nagle_enable(conn->inner_conn);
 1362              		.loc 1 614 5 is_stmt 1
 1363 0006 17030000 		tail	altcp_nagle_enable
 1363      67000300 
 1364              	.LVL121:
 1365              	.L398:
 1366 000e 8280     		ret
 1367              		.cfi_endproc
 1368              	.LFE44:
 1370              		.section	.text.altcp_default_nagle_disabled,"ax",@progbits
 1371              		.align	1
 1372              		.globl	altcp_default_nagle_disabled
 1374              	altcp_default_nagle_disabled:
 1375              	.LFB45:
 615:C:/Users/stapi/OneDrive/Desktop/GD32VW553/GD32VW55X_Wifi_BLE_SDK/GD32VW55x_RELEASE_V1.0.2/MSDK/lwip/lwip-2.1.2/src/core\altcp.c ****   }
 616:C:/Users/stapi/OneDrive/Desktop/GD32VW553/GD32VW55X_Wifi_BLE_SDK/GD32VW55x_RELEASE_V1.0.2/MSDK/lwip/lwip-2.1.2/src/core\altcp.c **** }
 617:C:/Users/stapi/OneDrive/Desktop/GD32VW553/GD32VW55X_Wifi_BLE_SDK/GD32VW55x_RELEASE_V1.0.2/MSDK/lwip/lwip-2.1.2/src/core\altcp.c **** 
 618:C:/Users/stapi/OneDrive/Desktop/GD32VW553/GD32VW55X_Wifi_BLE_SDK/GD32VW55x_RELEASE_V1.0.2/MSDK/lwip/lwip-2.1.2/src/core\altcp.c **** int
 619:C:/Users/stapi/OneDrive/Desktop/GD32VW553/GD32VW55X_Wifi_BLE_SDK/GD32VW55x_RELEASE_V1.0.2/MSDK/lwip/lwip-2.1.2/src/core\altcp.c **** altcp_default_nagle_disabled(struct altcp_pcb *conn)
 620:C:/Users/stapi/OneDrive/Desktop/GD32VW553/GD32VW55X_Wifi_BLE_SDK/GD32VW55x_RELEASE_V1.0.2/MSDK/lwip/lwip-2.1.2/src/core\altcp.c **** {
 1376              		.loc 1 620 1
 1377              		.cfi_startproc
 1378              	.LVL122:
 621:C:/Users/stapi/OneDrive/Desktop/GD32VW553/GD32VW55X_Wifi_BLE_SDK/GD32VW55x_RELEASE_V1.0.2/MSDK/lwip/lwip-2.1.2/src/core\altcp.c ****   if (conn && conn->inner_conn) {
 1379              		.loc 1 621 3
 1380              		.loc 1 621 6 is_stmt 0
 1381 0000 09C9     		beq	a0,zero,.L403
 1382              		.loc 1 621 19 discriminator 1
 1383 0002 5C41     		lw	a5,4(a0)
 622:C:/Users/stapi/OneDrive/Desktop/GD32VW553/GD32VW55X_Wifi_BLE_SDK/GD32VW55x_RELEASE_V1.0.2/MSDK/lwip/lwip-2.1.2/src/core\altcp.c ****     return altcp_nagle_disabled(conn->inner_conn);
 623:C:/Users/stapi/OneDrive/Desktop/GD32VW553/GD32VW55X_Wifi_BLE_SDK/GD32VW55x_RELEASE_V1.0.2/MSDK/lwip/lwip-2.1.2/src/core\altcp.c ****   }
 624:C:/Users/stapi/OneDrive/Desktop/GD32VW553/GD32VW55X_Wifi_BLE_SDK/GD32VW55x_RELEASE_V1.0.2/MSDK/lwip/lwip-2.1.2/src/core\altcp.c ****   return 0;
 1384              		.loc 1 624 10 discriminator 1
 1385 0004 0145     		li	a0,0
 1386              	.LVL123:
 621:C:/Users/stapi/OneDrive/Desktop/GD32VW553/GD32VW55X_Wifi_BLE_SDK/GD32VW55x_RELEASE_V1.0.2/MSDK/lwip/lwip-2.1.2/src/core\altcp.c ****   if (conn && conn->inner_conn) {
 1387              		.loc 1 621 12 discriminator 1
 1388 0006 81CB     		beq	a5,zero,.L407
 622:C:/Users/stapi/OneDrive/Desktop/GD32VW553/GD32VW55X_Wifi_BLE_SDK/GD32VW55x_RELEASE_V1.0.2/MSDK/lwip/lwip-2.1.2/src/core\altcp.c ****     return altcp_nagle_disabled(conn->inner_conn);
 1389              		.loc 1 622 5 is_stmt 1
 622:C:/Users/stapi/OneDrive/Desktop/GD32VW553/GD32VW55X_Wifi_BLE_SDK/GD32VW55x_RELEASE_V1.0.2/MSDK/lwip/lwip-2.1.2/src/core\altcp.c ****     return altcp_nagle_disabled(conn->inner_conn);
 1390              		.loc 1 622 12 is_stmt 0
 1391 0008 3E85     		mv	a0,a5
 1392 000a 17030000 		tail	altcp_nagle_disabled
 1392      67000300 
 1393              	.LVL124:
 1394              	.L403:
 1395              		.loc 1 624 10
 1396 0012 0145     		li	a0,0
 1397              	.LVL125:
 1398 0014 8280     		ret
 1399              	.L407:
 625:C:/Users/stapi/OneDrive/Desktop/GD32VW553/GD32VW55X_Wifi_BLE_SDK/GD32VW55x_RELEASE_V1.0.2/MSDK/lwip/lwip-2.1.2/src/core\altcp.c **** }
 1400              		.loc 1 625 1
 1401 0016 8280     		ret
 1402              		.cfi_endproc
 1403              	.LFE45:
 1405              		.section	.text.altcp_default_setprio,"ax",@progbits
 1406              		.align	1
 1407              		.globl	altcp_default_setprio
 1409              	altcp_default_setprio:
 1410              	.LFB46:
 626:C:/Users/stapi/OneDrive/Desktop/GD32VW553/GD32VW55X_Wifi_BLE_SDK/GD32VW55x_RELEASE_V1.0.2/MSDK/lwip/lwip-2.1.2/src/core\altcp.c **** 
 627:C:/Users/stapi/OneDrive/Desktop/GD32VW553/GD32VW55X_Wifi_BLE_SDK/GD32VW55x_RELEASE_V1.0.2/MSDK/lwip/lwip-2.1.2/src/core\altcp.c **** void
 628:C:/Users/stapi/OneDrive/Desktop/GD32VW553/GD32VW55X_Wifi_BLE_SDK/GD32VW55x_RELEASE_V1.0.2/MSDK/lwip/lwip-2.1.2/src/core\altcp.c **** altcp_default_setprio(struct altcp_pcb *conn, u8_t prio)
 629:C:/Users/stapi/OneDrive/Desktop/GD32VW553/GD32VW55X_Wifi_BLE_SDK/GD32VW55x_RELEASE_V1.0.2/MSDK/lwip/lwip-2.1.2/src/core\altcp.c **** {
 1411              		.loc 1 629 1 is_stmt 1
 1412              		.cfi_startproc
 1413              	.LVL126:
 630:C:/Users/stapi/OneDrive/Desktop/GD32VW553/GD32VW55X_Wifi_BLE_SDK/GD32VW55x_RELEASE_V1.0.2/MSDK/lwip/lwip-2.1.2/src/core\altcp.c ****   if (conn && conn->inner_conn) {
 1414              		.loc 1 630 3
 1415              		.loc 1 630 6 is_stmt 0
 1416 0000 19C5     		beq	a0,zero,.L419
 1417              		.loc 1 630 19 discriminator 1
 1418 0002 4841     		lw	a0,4(a0)
 1419              	.LVL127:
 1420              		.loc 1 630 12 discriminator 1
 1421 0004 09C5     		beq	a0,zero,.L419
 631:C:/Users/stapi/OneDrive/Desktop/GD32VW553/GD32VW55X_Wifi_BLE_SDK/GD32VW55x_RELEASE_V1.0.2/MSDK/lwip/lwip-2.1.2/src/core\altcp.c ****     altcp_setprio(conn->inner_conn, prio);
 1422              		.loc 1 631 5 is_stmt 1
 1423 0006 17030000 		tail	altcp_setprio
 1423      67000300 
 1424              	.LVL128:
 1425              	.L419:
 1426 000e 8280     		ret
 1427              		.cfi_endproc
 1428              	.LFE46:
 1430              		.section	.text.altcp_default_dealloc,"ax",@progbits
 1431              		.align	1
 1432              		.globl	altcp_default_dealloc
 1434              	altcp_default_dealloc:
 1435              	.LFB47:
 632:C:/Users/stapi/OneDrive/Desktop/GD32VW553/GD32VW55X_Wifi_BLE_SDK/GD32VW55x_RELEASE_V1.0.2/MSDK/lwip/lwip-2.1.2/src/core\altcp.c ****   }
 633:C:/Users/stapi/OneDrive/Desktop/GD32VW553/GD32VW55X_Wifi_BLE_SDK/GD32VW55x_RELEASE_V1.0.2/MSDK/lwip/lwip-2.1.2/src/core\altcp.c **** }
 634:C:/Users/stapi/OneDrive/Desktop/GD32VW553/GD32VW55X_Wifi_BLE_SDK/GD32VW55x_RELEASE_V1.0.2/MSDK/lwip/lwip-2.1.2/src/core\altcp.c **** 
 635:C:/Users/stapi/OneDrive/Desktop/GD32VW553/GD32VW55X_Wifi_BLE_SDK/GD32VW55x_RELEASE_V1.0.2/MSDK/lwip/lwip-2.1.2/src/core\altcp.c **** void
 636:C:/Users/stapi/OneDrive/Desktop/GD32VW553/GD32VW55X_Wifi_BLE_SDK/GD32VW55x_RELEASE_V1.0.2/MSDK/lwip/lwip-2.1.2/src/core\altcp.c **** altcp_default_dealloc(struct altcp_pcb *conn)
 637:C:/Users/stapi/OneDrive/Desktop/GD32VW553/GD32VW55X_Wifi_BLE_SDK/GD32VW55x_RELEASE_V1.0.2/MSDK/lwip/lwip-2.1.2/src/core\altcp.c **** {
 1436              		.loc 1 637 1
 1437              		.cfi_startproc
 1438              	.LVL129:
 638:C:/Users/stapi/OneDrive/Desktop/GD32VW553/GD32VW55X_Wifi_BLE_SDK/GD32VW55x_RELEASE_V1.0.2/MSDK/lwip/lwip-2.1.2/src/core\altcp.c ****   LWIP_UNUSED_ARG(conn);
 1439              		.loc 1 638 3
 639:C:/Users/stapi/OneDrive/Desktop/GD32VW553/GD32VW55X_Wifi_BLE_SDK/GD32VW55x_RELEASE_V1.0.2/MSDK/lwip/lwip-2.1.2/src/core\altcp.c ****   /* nothing to do */
 640:C:/Users/stapi/OneDrive/Desktop/GD32VW553/GD32VW55X_Wifi_BLE_SDK/GD32VW55x_RELEASE_V1.0.2/MSDK/lwip/lwip-2.1.2/src/core\altcp.c **** }
 1440              		.loc 1 640 1 is_stmt 0
 1441 0000 8280     		ret
 1442              		.cfi_endproc
 1443              	.LFE47:
 1445              		.section	.text.altcp_default_get_tcp_addrinfo,"ax",@progbits
 1446              		.align	1
 1447              		.globl	altcp_default_get_tcp_addrinfo
 1449              	altcp_default_get_tcp_addrinfo:
 1450              	.LFB48:
 641:C:/Users/stapi/OneDrive/Desktop/GD32VW553/GD32VW55X_Wifi_BLE_SDK/GD32VW55x_RELEASE_V1.0.2/MSDK/lwip/lwip-2.1.2/src/core\altcp.c **** 
 642:C:/Users/stapi/OneDrive/Desktop/GD32VW553/GD32VW55X_Wifi_BLE_SDK/GD32VW55x_RELEASE_V1.0.2/MSDK/lwip/lwip-2.1.2/src/core\altcp.c **** err_t
 643:C:/Users/stapi/OneDrive/Desktop/GD32VW553/GD32VW55X_Wifi_BLE_SDK/GD32VW55x_RELEASE_V1.0.2/MSDK/lwip/lwip-2.1.2/src/core\altcp.c **** altcp_default_get_tcp_addrinfo(struct altcp_pcb *conn, int local, ip_addr_t *addr, u16_t *port)
 644:C:/Users/stapi/OneDrive/Desktop/GD32VW553/GD32VW55X_Wifi_BLE_SDK/GD32VW55x_RELEASE_V1.0.2/MSDK/lwip/lwip-2.1.2/src/core\altcp.c **** {
 1451              		.loc 1 644 1 is_stmt 1
 1452              		.cfi_startproc
 1453              	.LVL130:
 645:C:/Users/stapi/OneDrive/Desktop/GD32VW553/GD32VW55X_Wifi_BLE_SDK/GD32VW55x_RELEASE_V1.0.2/MSDK/lwip/lwip-2.1.2/src/core\altcp.c ****   if (conn && conn->inner_conn) {
 1454              		.loc 1 645 3
 1455              		.loc 1 645 6 is_stmt 0
 1456 0000 09C9     		beq	a0,zero,.L425
 1457              		.loc 1 645 19 discriminator 1
 1458 0002 5C41     		lw	a5,4(a0)
 646:C:/Users/stapi/OneDrive/Desktop/GD32VW553/GD32VW55X_Wifi_BLE_SDK/GD32VW55x_RELEASE_V1.0.2/MSDK/lwip/lwip-2.1.2/src/core\altcp.c ****     return altcp_get_tcp_addrinfo(conn->inner_conn, local, addr, port);
 647:C:/Users/stapi/OneDrive/Desktop/GD32VW553/GD32VW55X_Wifi_BLE_SDK/GD32VW55x_RELEASE_V1.0.2/MSDK/lwip/lwip-2.1.2/src/core\altcp.c ****   }
 648:C:/Users/stapi/OneDrive/Desktop/GD32VW553/GD32VW55X_Wifi_BLE_SDK/GD32VW55x_RELEASE_V1.0.2/MSDK/lwip/lwip-2.1.2/src/core\altcp.c ****   return ERR_VAL;
 1459              		.loc 1 648 10 discriminator 1
 1460 0004 6955     		li	a0,-6
 1461              	.LVL131:
 645:C:/Users/stapi/OneDrive/Desktop/GD32VW553/GD32VW55X_Wifi_BLE_SDK/GD32VW55x_RELEASE_V1.0.2/MSDK/lwip/lwip-2.1.2/src/core\altcp.c ****   if (conn && conn->inner_conn) {
 1462              		.loc 1 645 12 discriminator 1
 1463 0006 81CB     		beq	a5,zero,.L428
 646:C:/Users/stapi/OneDrive/Desktop/GD32VW553/GD32VW55X_Wifi_BLE_SDK/GD32VW55x_RELEASE_V1.0.2/MSDK/lwip/lwip-2.1.2/src/core\altcp.c ****     return altcp_get_tcp_addrinfo(conn->inner_conn, local, addr, port);
 1464              		.loc 1 646 5 is_stmt 1
 646:C:/Users/stapi/OneDrive/Desktop/GD32VW553/GD32VW55X_Wifi_BLE_SDK/GD32VW55x_RELEASE_V1.0.2/MSDK/lwip/lwip-2.1.2/src/core\altcp.c ****     return altcp_get_tcp_addrinfo(conn->inner_conn, local, addr, port);
 1465              		.loc 1 646 12 is_stmt 0
 1466 0008 3E85     		mv	a0,a5
 1467 000a 17030000 		tail	altcp_get_tcp_addrinfo
 1467      67000300 
 1468              	.LVL132:
 1469              	.L425:
 1470              		.loc 1 648 10
 1471 0012 6955     		li	a0,-6
 1472              	.LVL133:
 1473 0014 8280     		ret
 1474              	.L428:
 649:C:/Users/stapi/OneDrive/Desktop/GD32VW553/GD32VW55X_Wifi_BLE_SDK/GD32VW55x_RELEASE_V1.0.2/MSDK/lwip/lwip-2.1.2/src/core\altcp.c **** }
 1475              		.loc 1 649 1
 1476 0016 8280     		ret
 1477              		.cfi_endproc
 1478              	.LFE48:
 1480              		.section	.text.altcp_default_get_ip,"ax",@progbits
 1481              		.align	1
 1482              		.globl	altcp_default_get_ip
 1484              	altcp_default_get_ip:
 1485              	.LFB49:
 650:C:/Users/stapi/OneDrive/Desktop/GD32VW553/GD32VW55X_Wifi_BLE_SDK/GD32VW55x_RELEASE_V1.0.2/MSDK/lwip/lwip-2.1.2/src/core\altcp.c **** 
 651:C:/Users/stapi/OneDrive/Desktop/GD32VW553/GD32VW55X_Wifi_BLE_SDK/GD32VW55x_RELEASE_V1.0.2/MSDK/lwip/lwip-2.1.2/src/core\altcp.c **** ip_addr_t *
 652:C:/Users/stapi/OneDrive/Desktop/GD32VW553/GD32VW55X_Wifi_BLE_SDK/GD32VW55x_RELEASE_V1.0.2/MSDK/lwip/lwip-2.1.2/src/core\altcp.c **** altcp_default_get_ip(struct altcp_pcb *conn, int local)
 653:C:/Users/stapi/OneDrive/Desktop/GD32VW553/GD32VW55X_Wifi_BLE_SDK/GD32VW55x_RELEASE_V1.0.2/MSDK/lwip/lwip-2.1.2/src/core\altcp.c **** {
 1486              		.loc 1 653 1 is_stmt 1
 1487              		.cfi_startproc
 1488              	.LVL134:
 654:C:/Users/stapi/OneDrive/Desktop/GD32VW553/GD32VW55X_Wifi_BLE_SDK/GD32VW55x_RELEASE_V1.0.2/MSDK/lwip/lwip-2.1.2/src/core\altcp.c ****   if (conn && conn->inner_conn) {
 1489              		.loc 1 654 3
 1490              		.loc 1 654 6 is_stmt 0
 1491 0000 19C5     		beq	a0,zero,.L440
 1492              		.loc 1 654 19 discriminator 1
 1493 0002 4841     		lw	a0,4(a0)
 1494              	.LVL135:
 1495              		.loc 1 654 12 discriminator 1
 1496 0004 09C5     		beq	a0,zero,.L440
 655:C:/Users/stapi/OneDrive/Desktop/GD32VW553/GD32VW55X_Wifi_BLE_SDK/GD32VW55x_RELEASE_V1.0.2/MSDK/lwip/lwip-2.1.2/src/core\altcp.c ****     return altcp_get_ip(conn->inner_conn, local);
 1497              		.loc 1 655 5 is_stmt 1
 1498              		.loc 1 655 12 is_stmt 0
 1499 0006 17030000 		tail	altcp_get_ip
 1499      67000300 
 1500              	.LVL136:
 1501              	.L440:
 656:C:/Users/stapi/OneDrive/Desktop/GD32VW553/GD32VW55X_Wifi_BLE_SDK/GD32VW55x_RELEASE_V1.0.2/MSDK/lwip/lwip-2.1.2/src/core\altcp.c ****   }
 657:C:/Users/stapi/OneDrive/Desktop/GD32VW553/GD32VW55X_Wifi_BLE_SDK/GD32VW55x_RELEASE_V1.0.2/MSDK/lwip/lwip-2.1.2/src/core\altcp.c ****   return NULL;
 658:C:/Users/stapi/OneDrive/Desktop/GD32VW553/GD32VW55X_Wifi_BLE_SDK/GD32VW55x_RELEASE_V1.0.2/MSDK/lwip/lwip-2.1.2/src/core\altcp.c **** }
 1502              		.loc 1 658 1
 1503 000e 8280     		ret
 1504              		.cfi_endproc
 1505              	.LFE49:
 1507              		.section	.text.altcp_default_get_port,"ax",@progbits
 1508              		.align	1
 1509              		.globl	altcp_default_get_port
 1511              	altcp_default_get_port:
 1512              	.LFB50:
 659:C:/Users/stapi/OneDrive/Desktop/GD32VW553/GD32VW55X_Wifi_BLE_SDK/GD32VW55x_RELEASE_V1.0.2/MSDK/lwip/lwip-2.1.2/src/core\altcp.c **** 
 660:C:/Users/stapi/OneDrive/Desktop/GD32VW553/GD32VW55X_Wifi_BLE_SDK/GD32VW55x_RELEASE_V1.0.2/MSDK/lwip/lwip-2.1.2/src/core\altcp.c **** u16_t
 661:C:/Users/stapi/OneDrive/Desktop/GD32VW553/GD32VW55X_Wifi_BLE_SDK/GD32VW55x_RELEASE_V1.0.2/MSDK/lwip/lwip-2.1.2/src/core\altcp.c **** altcp_default_get_port(struct altcp_pcb *conn, int local)
 662:C:/Users/stapi/OneDrive/Desktop/GD32VW553/GD32VW55X_Wifi_BLE_SDK/GD32VW55x_RELEASE_V1.0.2/MSDK/lwip/lwip-2.1.2/src/core\altcp.c **** {
 1513              		.loc 1 662 1 is_stmt 1
 1514              		.cfi_startproc
 1515              	.LVL137:
 663:C:/Users/stapi/OneDrive/Desktop/GD32VW553/GD32VW55X_Wifi_BLE_SDK/GD32VW55x_RELEASE_V1.0.2/MSDK/lwip/lwip-2.1.2/src/core\altcp.c ****   if (conn && conn->inner_conn) {
 1516              		.loc 1 663 3
 1517              		.loc 1 663 6 is_stmt 0
 1518 0000 09C9     		beq	a0,zero,.L445
 1519              		.loc 1 663 19 discriminator 1
 1520 0002 5C41     		lw	a5,4(a0)
 664:C:/Users/stapi/OneDrive/Desktop/GD32VW553/GD32VW55X_Wifi_BLE_SDK/GD32VW55x_RELEASE_V1.0.2/MSDK/lwip/lwip-2.1.2/src/core\altcp.c ****     return altcp_get_port(conn->inner_conn, local);
 665:C:/Users/stapi/OneDrive/Desktop/GD32VW553/GD32VW55X_Wifi_BLE_SDK/GD32VW55x_RELEASE_V1.0.2/MSDK/lwip/lwip-2.1.2/src/core\altcp.c ****   }
 666:C:/Users/stapi/OneDrive/Desktop/GD32VW553/GD32VW55X_Wifi_BLE_SDK/GD32VW55x_RELEASE_V1.0.2/MSDK/lwip/lwip-2.1.2/src/core\altcp.c ****   return 0;
 1521              		.loc 1 666 10 discriminator 1
 1522 0004 0145     		li	a0,0
 1523              	.LVL138:
 663:C:/Users/stapi/OneDrive/Desktop/GD32VW553/GD32VW55X_Wifi_BLE_SDK/GD32VW55x_RELEASE_V1.0.2/MSDK/lwip/lwip-2.1.2/src/core\altcp.c ****   if (conn && conn->inner_conn) {
 1524              		.loc 1 663 12 discriminator 1
 1525 0006 81CB     		beq	a5,zero,.L449
 664:C:/Users/stapi/OneDrive/Desktop/GD32VW553/GD32VW55X_Wifi_BLE_SDK/GD32VW55x_RELEASE_V1.0.2/MSDK/lwip/lwip-2.1.2/src/core\altcp.c ****     return altcp_get_port(conn->inner_conn, local);
 1526              		.loc 1 664 5 is_stmt 1
 664:C:/Users/stapi/OneDrive/Desktop/GD32VW553/GD32VW55X_Wifi_BLE_SDK/GD32VW55x_RELEASE_V1.0.2/MSDK/lwip/lwip-2.1.2/src/core\altcp.c ****     return altcp_get_port(conn->inner_conn, local);
 1527              		.loc 1 664 12 is_stmt 0
 1528 0008 3E85     		mv	a0,a5
 1529 000a 17030000 		tail	altcp_get_port
 1529      67000300 
 1530              	.LVL139:
 1531              	.L445:
 1532              		.loc 1 666 10
 1533 0012 0145     		li	a0,0
 1534              	.LVL140:
 1535 0014 8280     		ret
 1536              	.L449:
 667:C:/Users/stapi/OneDrive/Desktop/GD32VW553/GD32VW55X_Wifi_BLE_SDK/GD32VW55x_RELEASE_V1.0.2/MSDK/lwip/lwip-2.1.2/src/core\altcp.c **** }
 1537              		.loc 1 667 1
 1538 0016 8280     		ret
 1539              		.cfi_endproc
 1540              	.LFE50:
 1542              		.text
 1543              	.Letext0:
 1544              		.file 2 "c:\\users\\stapi\\onedrive\\desktop\\gd32vw553\\embeddedbuilder_v1.4.7.26843\\tools\\nucl
 1545              		.file 3 "c:\\users\\stapi\\onedrive\\desktop\\gd32vw553\\embeddedbuilder_v1.4.7.26843\\tools\\nucl
 1546              		.file 4 "..\\..\\..\\..\\lwip\\lwip-2.1.2\\src\\include/lwip/arch.h"
 1547              		.file 5 "..\\..\\..\\..\\lwip\\lwip-2.1.2\\src\\include/lwip/err.h"
 1548              		.file 6 "..\\..\\..\\..\\lwip\\lwip-2.1.2\\src\\include/lwip/pbuf.h"
 1549              		.file 7 "..\\..\\..\\..\\lwip\\lwip-2.1.2\\src\\include/lwip/ip4_addr.h"
 1550              		.file 8 "..\\..\\..\\..\\lwip\\lwip-2.1.2\\src\\include/lwip/ip_addr.h"
 1551              		.file 9 "..\\..\\..\\..\\lwip\\lwip-2.1.2\\src\\include/lwip/altcp.h"
 1552              		.file 10 "..\\..\\..\\..\\lwip\\lwip-2.1.2\\src\\include/lwip/priv/altcp_priv.h"
 1553              		.file 11 "..\\..\\..\\..\\lwip\\lwip-2.1.2\\src\\include/lwip/memp.h"
 1554              		.file 12 "..\\..\\..\\..\\lwip\\lwip-2.1.2\\src\\include/lwip/altcp_tcp.h"
 1555              		.file 13 "<built-in>"
DEFINED SYMBOLS
                            *ABS*:0000000000000000 altcp.c
C:\Users\stapi\AppData\Local\Temp\ccvyANZP.s:13     .text.altcp_alloc:0000000000000000 altcp_alloc
C:\Users\stapi\AppData\Local\Temp\ccvyANZP.s:17     .text.altcp_alloc:0000000000000000 .L0 
C:\Users\stapi\AppData\Local\Temp\ccvyANZP.s:18     .text.altcp_alloc:0000000000000000 .L0 
C:\Users\stapi\AppData\Local\Temp\ccvyANZP.s:19     .text.altcp_alloc:0000000000000008 .L0 
C:\Users\stapi\AppData\Local\Temp\ccvyANZP.s:20     .text.altcp_alloc:0000000000000008 .L0 
C:\Users\stapi\AppData\Local\Temp\ccvyANZP.s:21     .text.altcp_alloc:0000000000000008 .L0 
C:\Users\stapi\AppData\Local\Temp\ccvyANZP.s:23     .text.altcp_alloc:0000000000000008 .L0 
C:\Users\stapi\AppData\Local\Temp\ccvyANZP.s:24     .text.altcp_alloc:0000000000000008 .L0 
C:\Users\stapi\AppData\Local\Temp\ccvyANZP.s:30     .text.altcp_alloc:0000000000000014 .L0 
C:\Users\stapi\AppData\Local\Temp\ccvyANZP.s:31     .text.altcp_alloc:0000000000000014 .L0 
C:\Users\stapi\AppData\Local\Temp\ccvyANZP.s:33     .text.altcp_alloc:0000000000000016 .L0 
C:\Users\stapi\AppData\Local\Temp\ccvyANZP.s:39     .text.altcp_alloc:0000000000000024 .L0 
C:\Users\stapi\AppData\Local\Temp\ccvyANZP.s:40     .text.altcp_alloc:0000000000000024 .L0 
C:\Users\stapi\AppData\Local\Temp\ccvyANZP.s:42     .text.altcp_alloc:000000000000002e .L0 
C:\Users\stapi\AppData\Local\Temp\ccvyANZP.s:43     .text.altcp_alloc:000000000000002e .L0 
C:\Users\stapi\AppData\Local\Temp\ccvyANZP.s:44     .text.altcp_alloc:000000000000002e .L0 
C:\Users\stapi\AppData\Local\Temp\ccvyANZP.s:45     .text.altcp_alloc:000000000000002e .L0 
C:\Users\stapi\AppData\Local\Temp\ccvyANZP.s:52     .text.altcp_free:0000000000000000 altcp_free
C:\Users\stapi\AppData\Local\Temp\ccvyANZP.s:55     .text.altcp_free:0000000000000000 .L0 
C:\Users\stapi\AppData\Local\Temp\ccvyANZP.s:57     .text.altcp_free:0000000000000000 .L0 
C:\Users\stapi\AppData\Local\Temp\ccvyANZP.s:58     .text.altcp_free:0000000000000000 .L0 
C:\Users\stapi\AppData\Local\Temp\ccvyANZP.s:59     .text.altcp_free:0000000000000000 .L0 
C:\Users\stapi\AppData\Local\Temp\ccvyANZP.s:61     .text.altcp_free:0000000000000002 .L0 
C:\Users\stapi\AppData\Local\Temp\ccvyANZP.s:62     .text.altcp_free:000000000000000a .L0 
C:\Users\stapi\AppData\Local\Temp\ccvyANZP.s:63     .text.altcp_free:000000000000000a .L0 
C:\Users\stapi\AppData\Local\Temp\ccvyANZP.s:65     .text.altcp_free:000000000000000a .L0 
C:\Users\stapi\AppData\Local\Temp\ccvyANZP.s:67     .text.altcp_free:000000000000000c .L0 
C:\Users\stapi\AppData\Local\Temp\ccvyANZP.s:68     .text.altcp_free:000000000000000e .L0 
C:\Users\stapi\AppData\Local\Temp\ccvyANZP.s:71     .text.altcp_free:0000000000000010 .L0 
C:\Users\stapi\AppData\Local\Temp\ccvyANZP.s:72     .text.altcp_free:0000000000000010 .L0 
C:\Users\stapi\AppData\Local\Temp\ccvyANZP.s:74     .text.altcp_free:0000000000000012 .L0 
C:\Users\stapi\AppData\Local\Temp\ccvyANZP.s:76     .text.altcp_free:0000000000000014 .L0 
C:\Users\stapi\AppData\Local\Temp\ccvyANZP.s:79     .text.altcp_free:0000000000000018 .L0 
C:\Users\stapi\AppData\Local\Temp\ccvyANZP.s:85     .text.altcp_free:000000000000001c .L0 
C:\Users\stapi\AppData\Local\Temp\ccvyANZP.s:89     .text.altcp_free:0000000000000026 .L0 
C:\Users\stapi\AppData\Local\Temp\ccvyANZP.s:90     .text.altcp_free:0000000000000028 .L0 
C:\Users\stapi\AppData\Local\Temp\ccvyANZP.s:92     .text.altcp_free:0000000000000030 .L0 
C:\Users\stapi\AppData\Local\Temp\ccvyANZP.s:93     .text.altcp_free:0000000000000030 .L0 
C:\Users\stapi\AppData\Local\Temp\ccvyANZP.s:96     .text.altcp_free:0000000000000030 .L0 
C:\Users\stapi\AppData\Local\Temp\ccvyANZP.s:98     .text.altcp_free:0000000000000032 .L0 
C:\Users\stapi\AppData\Local\Temp\ccvyANZP.s:105    .text.altcp_new_ip_type:0000000000000000 altcp_new_ip_type
C:\Users\stapi\AppData\Local\Temp\ccvyANZP.s:108    .text.altcp_new_ip_type:0000000000000000 .L0 
C:\Users\stapi\AppData\Local\Temp\ccvyANZP.s:110    .text.altcp_new_ip_type:0000000000000000 .L0 
C:\Users\stapi\AppData\Local\Temp\ccvyANZP.s:111    .text.altcp_new_ip_type:0000000000000008 .L0 
C:\Users\stapi\AppData\Local\Temp\ccvyANZP.s:112    .text.altcp_new_ip_type:0000000000000008 .L0 
C:\Users\stapi\AppData\Local\Temp\ccvyANZP.s:114    .text.altcp_new_ip_type:0000000000000008 .L0 
C:\Users\stapi\AppData\Local\Temp\ccvyANZP.s:115    .text.altcp_new_ip_type:0000000000000008 .L0 
C:\Users\stapi\AppData\Local\Temp\ccvyANZP.s:116    .text.altcp_new_ip_type:0000000000000008 .L0 
C:\Users\stapi\AppData\Local\Temp\ccvyANZP.s:118    .text.altcp_new_ip_type:000000000000000a .L0 
C:\Users\stapi\AppData\Local\Temp\ccvyANZP.s:122    .text.altcp_new_ip_type:000000000000000e .L0 
C:\Users\stapi\AppData\Local\Temp\ccvyANZP.s:123    .text.altcp_new_ip_type:000000000000000e .L0 
C:\Users\stapi\AppData\Local\Temp\ccvyANZP.s:127    .text.altcp_new_ip_type:0000000000000016 .L0 
C:\Users\stapi\AppData\Local\Temp\ccvyANZP.s:128    .text.altcp_new_ip_type:000000000000001e .L0 
C:\Users\stapi\AppData\Local\Temp\ccvyANZP.s:129    .text.altcp_new_ip_type:000000000000001e .L0 
C:\Users\stapi\AppData\Local\Temp\ccvyANZP.s:130    .text.altcp_new_ip_type:000000000000001e .L0 
C:\Users\stapi\AppData\Local\Temp\ccvyANZP.s:133    .text.altcp_new_ip_type:000000000000001e .L0 
C:\Users\stapi\AppData\Local\Temp\ccvyANZP.s:135    .text.altcp_new_ip_type:000000000000001e .L0 
C:\Users\stapi\AppData\Local\Temp\ccvyANZP.s:136    .text.altcp_new_ip_type:000000000000001e .L0 
C:\Users\stapi\AppData\Local\Temp\ccvyANZP.s:138    .text.altcp_new_ip_type:0000000000000020 .L0 
C:\Users\stapi\AppData\Local\Temp\ccvyANZP.s:141    .text.altcp_new_ip_type:0000000000000022 .L0 
C:\Users\stapi\AppData\Local\Temp\ccvyANZP.s:143    .text.altcp_new_ip_type:0000000000000024 .L0 
C:\Users\stapi\AppData\Local\Temp\ccvyANZP.s:144    .text.altcp_new_ip_type:0000000000000024 .L0 
C:\Users\stapi\AppData\Local\Temp\ccvyANZP.s:148    .text.altcp_new_ip_type:0000000000000028 .L0 
C:\Users\stapi\AppData\Local\Temp\ccvyANZP.s:149    .text.altcp_new_ip_type:000000000000002a .L0 
C:\Users\stapi\AppData\Local\Temp\ccvyANZP.s:156    .text.altcp_new_ip6:0000000000000000 altcp_new_ip6
C:\Users\stapi\AppData\Local\Temp\ccvyANZP.s:159    .text.altcp_new_ip6:0000000000000000 .L0 
C:\Users\stapi\AppData\Local\Temp\ccvyANZP.s:161    .text.altcp_new_ip6:0000000000000000 .L0 
C:\Users\stapi\AppData\Local\Temp\ccvyANZP.s:162    .text.altcp_new_ip6:0000000000000000 .L0 
C:\Users\stapi\AppData\Local\Temp\ccvyANZP.s:163    .text.altcp_new_ip6:0000000000000000 .L0 
C:\Users\stapi\AppData\Local\Temp\ccvyANZP.s:166    .text.altcp_new_ip6:000000000000000a .L0 
C:\Users\stapi\AppData\Local\Temp\ccvyANZP.s:173    .text.altcp_new:0000000000000000 altcp_new
C:\Users\stapi\AppData\Local\Temp\ccvyANZP.s:176    .text.altcp_new:0000000000000000 .L0 
C:\Users\stapi\AppData\Local\Temp\ccvyANZP.s:178    .text.altcp_new:0000000000000000 .L0 
C:\Users\stapi\AppData\Local\Temp\ccvyANZP.s:179    .text.altcp_new:0000000000000000 .L0 
C:\Users\stapi\AppData\Local\Temp\ccvyANZP.s:180    .text.altcp_new:0000000000000000 .L0 
C:\Users\stapi\AppData\Local\Temp\ccvyANZP.s:183    .text.altcp_new:000000000000000a .L0 
C:\Users\stapi\AppData\Local\Temp\ccvyANZP.s:190    .text.altcp_arg:0000000000000000 altcp_arg
C:\Users\stapi\AppData\Local\Temp\ccvyANZP.s:193    .text.altcp_arg:0000000000000000 .L0 
C:\Users\stapi\AppData\Local\Temp\ccvyANZP.s:195    .text.altcp_arg:0000000000000000 .L0 
C:\Users\stapi\AppData\Local\Temp\ccvyANZP.s:196    .text.altcp_arg:0000000000000000 .L0 
C:\Users\stapi\AppData\Local\Temp\ccvyANZP.s:197    .text.altcp_arg:0000000000000000 .L0 
C:\Users\stapi\AppData\Local\Temp\ccvyANZP.s:199    .text.altcp_arg:0000000000000002 .L0 
C:\Users\stapi\AppData\Local\Temp\ccvyANZP.s:200    .text.altcp_arg:0000000000000002 .L0 
C:\Users\stapi\AppData\Local\Temp\ccvyANZP.s:203    .text.altcp_arg:0000000000000004 .L0 
C:\Users\stapi\AppData\Local\Temp\ccvyANZP.s:204    .text.altcp_arg:0000000000000006 .L0 
C:\Users\stapi\AppData\Local\Temp\ccvyANZP.s:211    .text.altcp_accept:0000000000000000 altcp_accept
C:\Users\stapi\AppData\Local\Temp\ccvyANZP.s:214    .text.altcp_accept:0000000000000000 .L0 
C:\Users\stapi\AppData\Local\Temp\ccvyANZP.s:216    .text.altcp_accept:0000000000000000 .L0 
C:\Users\stapi\AppData\Local\Temp\ccvyANZP.s:217    .text.altcp_accept:0000000000000000 .L0 
C:\Users\stapi\AppData\Local\Temp\ccvyANZP.s:218    .text.altcp_accept:0000000000000000 .L0 
C:\Users\stapi\AppData\Local\Temp\ccvyANZP.s:220    .text.altcp_accept:0000000000000002 .L0 
C:\Users\stapi\AppData\Local\Temp\ccvyANZP.s:221    .text.altcp_accept:0000000000000002 .L0 
C:\Users\stapi\AppData\Local\Temp\ccvyANZP.s:224    .text.altcp_accept:0000000000000004 .L0 
C:\Users\stapi\AppData\Local\Temp\ccvyANZP.s:225    .text.altcp_accept:0000000000000006 .L0 
C:\Users\stapi\AppData\Local\Temp\ccvyANZP.s:232    .text.altcp_recv:0000000000000000 altcp_recv
C:\Users\stapi\AppData\Local\Temp\ccvyANZP.s:235    .text.altcp_recv:0000000000000000 .L0 
C:\Users\stapi\AppData\Local\Temp\ccvyANZP.s:237    .text.altcp_recv:0000000000000000 .L0 
C:\Users\stapi\AppData\Local\Temp\ccvyANZP.s:238    .text.altcp_recv:0000000000000000 .L0 
C:\Users\stapi\AppData\Local\Temp\ccvyANZP.s:239    .text.altcp_recv:0000000000000000 .L0 
C:\Users\stapi\AppData\Local\Temp\ccvyANZP.s:241    .text.altcp_recv:0000000000000002 .L0 
C:\Users\stapi\AppData\Local\Temp\ccvyANZP.s:242    .text.altcp_recv:0000000000000002 .L0 
C:\Users\stapi\AppData\Local\Temp\ccvyANZP.s:245    .text.altcp_recv:0000000000000004 .L0 
C:\Users\stapi\AppData\Local\Temp\ccvyANZP.s:246    .text.altcp_recv:0000000000000006 .L0 
C:\Users\stapi\AppData\Local\Temp\ccvyANZP.s:253    .text.altcp_sent:0000000000000000 altcp_sent
C:\Users\stapi\AppData\Local\Temp\ccvyANZP.s:256    .text.altcp_sent:0000000000000000 .L0 
C:\Users\stapi\AppData\Local\Temp\ccvyANZP.s:258    .text.altcp_sent:0000000000000000 .L0 
C:\Users\stapi\AppData\Local\Temp\ccvyANZP.s:259    .text.altcp_sent:0000000000000000 .L0 
C:\Users\stapi\AppData\Local\Temp\ccvyANZP.s:260    .text.altcp_sent:0000000000000000 .L0 
C:\Users\stapi\AppData\Local\Temp\ccvyANZP.s:262    .text.altcp_sent:0000000000000002 .L0 
C:\Users\stapi\AppData\Local\Temp\ccvyANZP.s:263    .text.altcp_sent:0000000000000002 .L0 
C:\Users\stapi\AppData\Local\Temp\ccvyANZP.s:266    .text.altcp_sent:0000000000000004 .L0 
C:\Users\stapi\AppData\Local\Temp\ccvyANZP.s:267    .text.altcp_sent:0000000000000006 .L0 
C:\Users\stapi\AppData\Local\Temp\ccvyANZP.s:274    .text.altcp_poll:0000000000000000 altcp_poll
C:\Users\stapi\AppData\Local\Temp\ccvyANZP.s:277    .text.altcp_poll:0000000000000000 .L0 
C:\Users\stapi\AppData\Local\Temp\ccvyANZP.s:279    .text.altcp_poll:0000000000000000 .L0 
C:\Users\stapi\AppData\Local\Temp\ccvyANZP.s:280    .text.altcp_poll:0000000000000000 .L0 
C:\Users\stapi\AppData\Local\Temp\ccvyANZP.s:281    .text.altcp_poll:0000000000000000 .L0 
C:\Users\stapi\AppData\Local\Temp\ccvyANZP.s:283    .text.altcp_poll:0000000000000002 .L0 
C:\Users\stapi\AppData\Local\Temp\ccvyANZP.s:286    .text.altcp_poll:0000000000000006 .L0 
C:\Users\stapi\AppData\Local\Temp\ccvyANZP.s:288    .text.altcp_poll:0000000000000008 .L0 
C:\Users\stapi\AppData\Local\Temp\ccvyANZP.s:292    .text.altcp_poll:000000000000000e .L0 
C:\Users\stapi\AppData\Local\Temp\ccvyANZP.s:293    .text.altcp_poll:000000000000000e .L0 
C:\Users\stapi\AppData\Local\Temp\ccvyANZP.s:294    .text.altcp_poll:000000000000000e .L0 
C:\Users\stapi\AppData\Local\Temp\ccvyANZP.s:295    .text.altcp_poll:000000000000000e .L0 
C:\Users\stapi\AppData\Local\Temp\ccvyANZP.s:297    .text.altcp_poll:0000000000000010 .L0 
C:\Users\stapi\AppData\Local\Temp\ccvyANZP.s:299    .text.altcp_poll:0000000000000012 .L0 
C:\Users\stapi\AppData\Local\Temp\ccvyANZP.s:301    .text.altcp_poll:0000000000000014 .L0 
C:\Users\stapi\AppData\Local\Temp\ccvyANZP.s:305    .text.altcp_poll:0000000000000018 .L0 
C:\Users\stapi\AppData\Local\Temp\ccvyANZP.s:312    .text.altcp_err:0000000000000000 altcp_err
C:\Users\stapi\AppData\Local\Temp\ccvyANZP.s:315    .text.altcp_err:0000000000000000 .L0 
C:\Users\stapi\AppData\Local\Temp\ccvyANZP.s:317    .text.altcp_err:0000000000000000 .L0 
C:\Users\stapi\AppData\Local\Temp\ccvyANZP.s:318    .text.altcp_err:0000000000000000 .L0 
C:\Users\stapi\AppData\Local\Temp\ccvyANZP.s:319    .text.altcp_err:0000000000000000 .L0 
C:\Users\stapi\AppData\Local\Temp\ccvyANZP.s:321    .text.altcp_err:0000000000000002 .L0 
C:\Users\stapi\AppData\Local\Temp\ccvyANZP.s:322    .text.altcp_err:0000000000000002 .L0 
C:\Users\stapi\AppData\Local\Temp\ccvyANZP.s:325    .text.altcp_err:0000000000000004 .L0 
C:\Users\stapi\AppData\Local\Temp\ccvyANZP.s:326    .text.altcp_err:0000000000000006 .L0 
C:\Users\stapi\AppData\Local\Temp\ccvyANZP.s:333    .text.altcp_recved:0000000000000000 altcp_recved
C:\Users\stapi\AppData\Local\Temp\ccvyANZP.s:336    .text.altcp_recved:0000000000000000 .L0 
C:\Users\stapi\AppData\Local\Temp\ccvyANZP.s:338    .text.altcp_recved:0000000000000000 .L0 
C:\Users\stapi\AppData\Local\Temp\ccvyANZP.s:339    .text.altcp_recved:0000000000000000 .L0 
C:\Users\stapi\AppData\Local\Temp\ccvyANZP.s:340    .text.altcp_recved:0000000000000000 .L0 
C:\Users\stapi\AppData\Local\Temp\ccvyANZP.s:342    .text.altcp_recved:0000000000000002 .L0 
C:\Users\stapi\AppData\Local\Temp\ccvyANZP.s:344    .text.altcp_recved:0000000000000004 .L0 
C:\Users\stapi\AppData\Local\Temp\ccvyANZP.s:346    .text.altcp_recved:0000000000000006 .L0 
C:\Users\stapi\AppData\Local\Temp\ccvyANZP.s:348    .text.altcp_recved:0000000000000008 .L0 
C:\Users\stapi\AppData\Local\Temp\ccvyANZP.s:350    .text.altcp_recved:000000000000000a .L0 
C:\Users\stapi\AppData\Local\Temp\ccvyANZP.s:354    .text.altcp_recved:000000000000000e .L0 
C:\Users\stapi\AppData\Local\Temp\ccvyANZP.s:361    .text.altcp_bind:0000000000000000 altcp_bind
C:\Users\stapi\AppData\Local\Temp\ccvyANZP.s:364    .text.altcp_bind:0000000000000000 .L0 
C:\Users\stapi\AppData\Local\Temp\ccvyANZP.s:366    .text.altcp_bind:0000000000000000 .L0 
C:\Users\stapi\AppData\Local\Temp\ccvyANZP.s:367    .text.altcp_bind:0000000000000000 .L0 
C:\Users\stapi\AppData\Local\Temp\ccvyANZP.s:368    .text.altcp_bind:0000000000000000 .L0 
C:\Users\stapi\AppData\Local\Temp\ccvyANZP.s:370    .text.altcp_bind:0000000000000002 .L0 
C:\Users\stapi\AppData\Local\Temp\ccvyANZP.s:372    .text.altcp_bind:0000000000000004 .L0 
C:\Users\stapi\AppData\Local\Temp\ccvyANZP.s:374    .text.altcp_bind:0000000000000006 .L0 
C:\Users\stapi\AppData\Local\Temp\ccvyANZP.s:376    .text.altcp_bind:0000000000000008 .L0 
C:\Users\stapi\AppData\Local\Temp\ccvyANZP.s:378    .text.altcp_bind:000000000000000a .L0 
C:\Users\stapi\AppData\Local\Temp\ccvyANZP.s:380    .text.altcp_bind:000000000000000c .L0 
C:\Users\stapi\AppData\Local\Temp\ccvyANZP.s:381    .text.altcp_bind:000000000000000c .L0 
C:\Users\stapi\AppData\Local\Temp\ccvyANZP.s:385    .text.altcp_bind:000000000000000e .L0 
C:\Users\stapi\AppData\Local\Temp\ccvyANZP.s:388    .text.altcp_bind:0000000000000010 .L0 
C:\Users\stapi\AppData\Local\Temp\ccvyANZP.s:391    .text.altcp_bind:0000000000000014 .L0 
C:\Users\stapi\AppData\Local\Temp\ccvyANZP.s:398    .text.altcp_connect:0000000000000000 altcp_connect
C:\Users\stapi\AppData\Local\Temp\ccvyANZP.s:401    .text.altcp_connect:0000000000000000 .L0 
C:\Users\stapi\AppData\Local\Temp\ccvyANZP.s:403    .text.altcp_connect:0000000000000000 .L0 
C:\Users\stapi\AppData\Local\Temp\ccvyANZP.s:404    .text.altcp_connect:0000000000000000 .L0 
C:\Users\stapi\AppData\Local\Temp\ccvyANZP.s:405    .text.altcp_connect:0000000000000000 .L0 
C:\Users\stapi\AppData\Local\Temp\ccvyANZP.s:407    .text.altcp_connect:0000000000000002 .L0 
C:\Users\stapi\AppData\Local\Temp\ccvyANZP.s:409    .text.altcp_connect:0000000000000004 .L0 
C:\Users\stapi\AppData\Local\Temp\ccvyANZP.s:411    .text.altcp_connect:0000000000000006 .L0 
C:\Users\stapi\AppData\Local\Temp\ccvyANZP.s:413    .text.altcp_connect:0000000000000008 .L0 
C:\Users\stapi\AppData\Local\Temp\ccvyANZP.s:415    .text.altcp_connect:000000000000000a .L0 
C:\Users\stapi\AppData\Local\Temp\ccvyANZP.s:417    .text.altcp_connect:000000000000000c .L0 
C:\Users\stapi\AppData\Local\Temp\ccvyANZP.s:418    .text.altcp_connect:000000000000000c .L0 
C:\Users\stapi\AppData\Local\Temp\ccvyANZP.s:422    .text.altcp_connect:000000000000000e .L0 
C:\Users\stapi\AppData\Local\Temp\ccvyANZP.s:425    .text.altcp_connect:0000000000000010 .L0 
C:\Users\stapi\AppData\Local\Temp\ccvyANZP.s:428    .text.altcp_connect:0000000000000014 .L0 
C:\Users\stapi\AppData\Local\Temp\ccvyANZP.s:435    .text.altcp_listen_with_backlog_and_err:0000000000000000 altcp_listen_with_backlog_and_err
C:\Users\stapi\AppData\Local\Temp\ccvyANZP.s:438    .text.altcp_listen_with_backlog_and_err:0000000000000000 .L0 
C:\Users\stapi\AppData\Local\Temp\ccvyANZP.s:440    .text.altcp_listen_with_backlog_and_err:0000000000000000 .L0 
C:\Users\stapi\AppData\Local\Temp\ccvyANZP.s:441    .text.altcp_listen_with_backlog_and_err:0000000000000000 .L0 
C:\Users\stapi\AppData\Local\Temp\ccvyANZP.s:442    .text.altcp_listen_with_backlog_and_err:0000000000000000 .L0 
C:\Users\stapi\AppData\Local\Temp\ccvyANZP.s:444    .text.altcp_listen_with_backlog_and_err:0000000000000002 .L0 
C:\Users\stapi\AppData\Local\Temp\ccvyANZP.s:446    .text.altcp_listen_with_backlog_and_err:0000000000000004 .L0 
C:\Users\stapi\AppData\Local\Temp\ccvyANZP.s:448    .text.altcp_listen_with_backlog_and_err:0000000000000006 .L0 
C:\Users\stapi\AppData\Local\Temp\ccvyANZP.s:450    .text.altcp_listen_with_backlog_and_err:0000000000000008 .L0 
C:\Users\stapi\AppData\Local\Temp\ccvyANZP.s:452    .text.altcp_listen_with_backlog_and_err:000000000000000a .L0 
C:\Users\stapi\AppData\Local\Temp\ccvyANZP.s:454    .text.altcp_listen_with_backlog_and_err:000000000000000c .L0 
C:\Users\stapi\AppData\Local\Temp\ccvyANZP.s:455    .text.altcp_listen_with_backlog_and_err:000000000000000c .L0 
C:\Users\stapi\AppData\Local\Temp\ccvyANZP.s:459    .text.altcp_listen_with_backlog_and_err:000000000000000e .L0 
C:\Users\stapi\AppData\Local\Temp\ccvyANZP.s:462    .text.altcp_listen_with_backlog_and_err:0000000000000010 .L0 
C:\Users\stapi\AppData\Local\Temp\ccvyANZP.s:465    .text.altcp_listen_with_backlog_and_err:0000000000000014 .L0 
C:\Users\stapi\AppData\Local\Temp\ccvyANZP.s:472    .text.altcp_abort:0000000000000000 altcp_abort
C:\Users\stapi\AppData\Local\Temp\ccvyANZP.s:475    .text.altcp_abort:0000000000000000 .L0 
C:\Users\stapi\AppData\Local\Temp\ccvyANZP.s:477    .text.altcp_abort:0000000000000000 .L0 
C:\Users\stapi\AppData\Local\Temp\ccvyANZP.s:478    .text.altcp_abort:0000000000000000 .L0 
C:\Users\stapi\AppData\Local\Temp\ccvyANZP.s:479    .text.altcp_abort:0000000000000000 .L0 
C:\Users\stapi\AppData\Local\Temp\ccvyANZP.s:481    .text.altcp_abort:0000000000000002 .L0 
C:\Users\stapi\AppData\Local\Temp\ccvyANZP.s:483    .text.altcp_abort:0000000000000004 .L0 
C:\Users\stapi\AppData\Local\Temp\ccvyANZP.s:485    .text.altcp_abort:0000000000000006 .L0 
C:\Users\stapi\AppData\Local\Temp\ccvyANZP.s:487    .text.altcp_abort:0000000000000008 .L0 
C:\Users\stapi\AppData\Local\Temp\ccvyANZP.s:489    .text.altcp_abort:000000000000000a .L0 
C:\Users\stapi\AppData\Local\Temp\ccvyANZP.s:493    .text.altcp_abort:000000000000000e .L0 
C:\Users\stapi\AppData\Local\Temp\ccvyANZP.s:500    .text.altcp_close:0000000000000000 altcp_close
C:\Users\stapi\AppData\Local\Temp\ccvyANZP.s:503    .text.altcp_close:0000000000000000 .L0 
C:\Users\stapi\AppData\Local\Temp\ccvyANZP.s:505    .text.altcp_close:0000000000000000 .L0 
C:\Users\stapi\AppData\Local\Temp\ccvyANZP.s:506    .text.altcp_close:0000000000000000 .L0 
C:\Users\stapi\AppData\Local\Temp\ccvyANZP.s:507    .text.altcp_close:0000000000000000 .L0 
C:\Users\stapi\AppData\Local\Temp\ccvyANZP.s:509    .text.altcp_close:0000000000000002 .L0 
C:\Users\stapi\AppData\Local\Temp\ccvyANZP.s:511    .text.altcp_close:0000000000000004 .L0 
C:\Users\stapi\AppData\Local\Temp\ccvyANZP.s:513    .text.altcp_close:0000000000000006 .L0 
C:\Users\stapi\AppData\Local\Temp\ccvyANZP.s:515    .text.altcp_close:0000000000000008 .L0 
C:\Users\stapi\AppData\Local\Temp\ccvyANZP.s:517    .text.altcp_close:000000000000000a .L0 
C:\Users\stapi\AppData\Local\Temp\ccvyANZP.s:519    .text.altcp_close:000000000000000c .L0 
C:\Users\stapi\AppData\Local\Temp\ccvyANZP.s:520    .text.altcp_close:000000000000000c .L0 
C:\Users\stapi\AppData\Local\Temp\ccvyANZP.s:524    .text.altcp_close:000000000000000e .L0 
C:\Users\stapi\AppData\Local\Temp\ccvyANZP.s:527    .text.altcp_close:0000000000000010 .L0 
C:\Users\stapi\AppData\Local\Temp\ccvyANZP.s:530    .text.altcp_close:0000000000000014 .L0 
C:\Users\stapi\AppData\Local\Temp\ccvyANZP.s:537    .text.altcp_shutdown:0000000000000000 altcp_shutdown
C:\Users\stapi\AppData\Local\Temp\ccvyANZP.s:540    .text.altcp_shutdown:0000000000000000 .L0 
C:\Users\stapi\AppData\Local\Temp\ccvyANZP.s:542    .text.altcp_shutdown:0000000000000000 .L0 
C:\Users\stapi\AppData\Local\Temp\ccvyANZP.s:543    .text.altcp_shutdown:0000000000000000 .L0 
C:\Users\stapi\AppData\Local\Temp\ccvyANZP.s:544    .text.altcp_shutdown:0000000000000000 .L0 
C:\Users\stapi\AppData\Local\Temp\ccvyANZP.s:546    .text.altcp_shutdown:0000000000000002 .L0 
C:\Users\stapi\AppData\Local\Temp\ccvyANZP.s:548    .text.altcp_shutdown:0000000000000004 .L0 
C:\Users\stapi\AppData\Local\Temp\ccvyANZP.s:550    .text.altcp_shutdown:0000000000000006 .L0 
C:\Users\stapi\AppData\Local\Temp\ccvyANZP.s:552    .text.altcp_shutdown:0000000000000008 .L0 
C:\Users\stapi\AppData\Local\Temp\ccvyANZP.s:554    .text.altcp_shutdown:000000000000000a .L0 
C:\Users\stapi\AppData\Local\Temp\ccvyANZP.s:556    .text.altcp_shutdown:000000000000000c .L0 
C:\Users\stapi\AppData\Local\Temp\ccvyANZP.s:557    .text.altcp_shutdown:000000000000000c .L0 
C:\Users\stapi\AppData\Local\Temp\ccvyANZP.s:561    .text.altcp_shutdown:000000000000000e .L0 
C:\Users\stapi\AppData\Local\Temp\ccvyANZP.s:564    .text.altcp_shutdown:0000000000000010 .L0 
C:\Users\stapi\AppData\Local\Temp\ccvyANZP.s:567    .text.altcp_shutdown:0000000000000014 .L0 
C:\Users\stapi\AppData\Local\Temp\ccvyANZP.s:574    .text.altcp_write:0000000000000000 altcp_write
C:\Users\stapi\AppData\Local\Temp\ccvyANZP.s:577    .text.altcp_write:0000000000000000 .L0 
C:\Users\stapi\AppData\Local\Temp\ccvyANZP.s:579    .text.altcp_write:0000000000000000 .L0 
C:\Users\stapi\AppData\Local\Temp\ccvyANZP.s:580    .text.altcp_write:0000000000000000 .L0 
C:\Users\stapi\AppData\Local\Temp\ccvyANZP.s:581    .text.altcp_write:0000000000000000 .L0 
C:\Users\stapi\AppData\Local\Temp\ccvyANZP.s:583    .text.altcp_write:0000000000000002 .L0 
C:\Users\stapi\AppData\Local\Temp\ccvyANZP.s:585    .text.altcp_write:0000000000000004 .L0 
C:\Users\stapi\AppData\Local\Temp\ccvyANZP.s:587    .text.altcp_write:0000000000000006 .L0 
C:\Users\stapi\AppData\Local\Temp\ccvyANZP.s:589    .text.altcp_write:0000000000000008 .L0 
C:\Users\stapi\AppData\Local\Temp\ccvyANZP.s:591    .text.altcp_write:000000000000000a .L0 
C:\Users\stapi\AppData\Local\Temp\ccvyANZP.s:593    .text.altcp_write:000000000000000c .L0 
C:\Users\stapi\AppData\Local\Temp\ccvyANZP.s:594    .text.altcp_write:000000000000000c .L0 
C:\Users\stapi\AppData\Local\Temp\ccvyANZP.s:598    .text.altcp_write:000000000000000e .L0 
C:\Users\stapi\AppData\Local\Temp\ccvyANZP.s:601    .text.altcp_write:0000000000000010 .L0 
C:\Users\stapi\AppData\Local\Temp\ccvyANZP.s:604    .text.altcp_write:0000000000000014 .L0 
C:\Users\stapi\AppData\Local\Temp\ccvyANZP.s:611    .text.altcp_output:0000000000000000 altcp_output
C:\Users\stapi\AppData\Local\Temp\ccvyANZP.s:614    .text.altcp_output:0000000000000000 .L0 
C:\Users\stapi\AppData\Local\Temp\ccvyANZP.s:616    .text.altcp_output:0000000000000000 .L0 
C:\Users\stapi\AppData\Local\Temp\ccvyANZP.s:617    .text.altcp_output:0000000000000000 .L0 
C:\Users\stapi\AppData\Local\Temp\ccvyANZP.s:618    .text.altcp_output:0000000000000000 .L0 
C:\Users\stapi\AppData\Local\Temp\ccvyANZP.s:620    .text.altcp_output:0000000000000002 .L0 
C:\Users\stapi\AppData\Local\Temp\ccvyANZP.s:622    .text.altcp_output:0000000000000004 .L0 
C:\Users\stapi\AppData\Local\Temp\ccvyANZP.s:624    .text.altcp_output:0000000000000006 .L0 
C:\Users\stapi\AppData\Local\Temp\ccvyANZP.s:626    .text.altcp_output:0000000000000008 .L0 
C:\Users\stapi\AppData\Local\Temp\ccvyANZP.s:628    .text.altcp_output:000000000000000a .L0 
C:\Users\stapi\AppData\Local\Temp\ccvyANZP.s:630    .text.altcp_output:000000000000000c .L0 
C:\Users\stapi\AppData\Local\Temp\ccvyANZP.s:631    .text.altcp_output:000000000000000c .L0 
C:\Users\stapi\AppData\Local\Temp\ccvyANZP.s:635    .text.altcp_output:000000000000000e .L0 
C:\Users\stapi\AppData\Local\Temp\ccvyANZP.s:638    .text.altcp_output:0000000000000010 .L0 
C:\Users\stapi\AppData\Local\Temp\ccvyANZP.s:641    .text.altcp_output:0000000000000014 .L0 
C:\Users\stapi\AppData\Local\Temp\ccvyANZP.s:648    .text.altcp_mss:0000000000000000 altcp_mss
C:\Users\stapi\AppData\Local\Temp\ccvyANZP.s:651    .text.altcp_mss:0000000000000000 .L0 
C:\Users\stapi\AppData\Local\Temp\ccvyANZP.s:653    .text.altcp_mss:0000000000000000 .L0 
C:\Users\stapi\AppData\Local\Temp\ccvyANZP.s:654    .text.altcp_mss:0000000000000000 .L0 
C:\Users\stapi\AppData\Local\Temp\ccvyANZP.s:655    .text.altcp_mss:0000000000000000 .L0 
C:\Users\stapi\AppData\Local\Temp\ccvyANZP.s:657    .text.altcp_mss:0000000000000002 .L0 
C:\Users\stapi\AppData\Local\Temp\ccvyANZP.s:659    .text.altcp_mss:0000000000000004 .L0 
C:\Users\stapi\AppData\Local\Temp\ccvyANZP.s:661    .text.altcp_mss:0000000000000006 .L0 
C:\Users\stapi\AppData\Local\Temp\ccvyANZP.s:663    .text.altcp_mss:0000000000000008 .L0 
C:\Users\stapi\AppData\Local\Temp\ccvyANZP.s:665    .text.altcp_mss:000000000000000a .L0 
C:\Users\stapi\AppData\Local\Temp\ccvyANZP.s:667    .text.altcp_mss:000000000000000c .L0 
C:\Users\stapi\AppData\Local\Temp\ccvyANZP.s:668    .text.altcp_mss:000000000000000c .L0 
C:\Users\stapi\AppData\Local\Temp\ccvyANZP.s:672    .text.altcp_mss:000000000000000e .L0 
C:\Users\stapi\AppData\Local\Temp\ccvyANZP.s:675    .text.altcp_mss:0000000000000010 .L0 
C:\Users\stapi\AppData\Local\Temp\ccvyANZP.s:678    .text.altcp_mss:0000000000000014 .L0 
C:\Users\stapi\AppData\Local\Temp\ccvyANZP.s:685    .text.altcp_sndbuf:0000000000000000 altcp_sndbuf
C:\Users\stapi\AppData\Local\Temp\ccvyANZP.s:688    .text.altcp_sndbuf:0000000000000000 .L0 
C:\Users\stapi\AppData\Local\Temp\ccvyANZP.s:690    .text.altcp_sndbuf:0000000000000000 .L0 
C:\Users\stapi\AppData\Local\Temp\ccvyANZP.s:691    .text.altcp_sndbuf:0000000000000000 .L0 
C:\Users\stapi\AppData\Local\Temp\ccvyANZP.s:692    .text.altcp_sndbuf:0000000000000000 .L0 
C:\Users\stapi\AppData\Local\Temp\ccvyANZP.s:694    .text.altcp_sndbuf:0000000000000002 .L0 
C:\Users\stapi\AppData\Local\Temp\ccvyANZP.s:696    .text.altcp_sndbuf:0000000000000004 .L0 
C:\Users\stapi\AppData\Local\Temp\ccvyANZP.s:698    .text.altcp_sndbuf:0000000000000006 .L0 
C:\Users\stapi\AppData\Local\Temp\ccvyANZP.s:700    .text.altcp_sndbuf:0000000000000008 .L0 
C:\Users\stapi\AppData\Local\Temp\ccvyANZP.s:702    .text.altcp_sndbuf:000000000000000a .L0 
C:\Users\stapi\AppData\Local\Temp\ccvyANZP.s:704    .text.altcp_sndbuf:000000000000000c .L0 
C:\Users\stapi\AppData\Local\Temp\ccvyANZP.s:705    .text.altcp_sndbuf:000000000000000c .L0 
C:\Users\stapi\AppData\Local\Temp\ccvyANZP.s:709    .text.altcp_sndbuf:000000000000000e .L0 
C:\Users\stapi\AppData\Local\Temp\ccvyANZP.s:712    .text.altcp_sndbuf:0000000000000010 .L0 
C:\Users\stapi\AppData\Local\Temp\ccvyANZP.s:715    .text.altcp_sndbuf:0000000000000014 .L0 
C:\Users\stapi\AppData\Local\Temp\ccvyANZP.s:722    .text.altcp_sndqueuelen:0000000000000000 altcp_sndqueuelen
C:\Users\stapi\AppData\Local\Temp\ccvyANZP.s:725    .text.altcp_sndqueuelen:0000000000000000 .L0 
C:\Users\stapi\AppData\Local\Temp\ccvyANZP.s:727    .text.altcp_sndqueuelen:0000000000000000 .L0 
C:\Users\stapi\AppData\Local\Temp\ccvyANZP.s:728    .text.altcp_sndqueuelen:0000000000000000 .L0 
C:\Users\stapi\AppData\Local\Temp\ccvyANZP.s:729    .text.altcp_sndqueuelen:0000000000000000 .L0 
C:\Users\stapi\AppData\Local\Temp\ccvyANZP.s:731    .text.altcp_sndqueuelen:0000000000000002 .L0 
C:\Users\stapi\AppData\Local\Temp\ccvyANZP.s:733    .text.altcp_sndqueuelen:0000000000000004 .L0 
C:\Users\stapi\AppData\Local\Temp\ccvyANZP.s:735    .text.altcp_sndqueuelen:0000000000000006 .L0 
C:\Users\stapi\AppData\Local\Temp\ccvyANZP.s:737    .text.altcp_sndqueuelen:0000000000000008 .L0 
C:\Users\stapi\AppData\Local\Temp\ccvyANZP.s:739    .text.altcp_sndqueuelen:000000000000000a .L0 
C:\Users\stapi\AppData\Local\Temp\ccvyANZP.s:741    .text.altcp_sndqueuelen:000000000000000c .L0 
C:\Users\stapi\AppData\Local\Temp\ccvyANZP.s:742    .text.altcp_sndqueuelen:000000000000000c .L0 
C:\Users\stapi\AppData\Local\Temp\ccvyANZP.s:746    .text.altcp_sndqueuelen:000000000000000e .L0 
C:\Users\stapi\AppData\Local\Temp\ccvyANZP.s:749    .text.altcp_sndqueuelen:0000000000000010 .L0 
C:\Users\stapi\AppData\Local\Temp\ccvyANZP.s:752    .text.altcp_sndqueuelen:0000000000000014 .L0 
C:\Users\stapi\AppData\Local\Temp\ccvyANZP.s:759    .text.altcp_nagle_disable:0000000000000000 altcp_nagle_disable
C:\Users\stapi\AppData\Local\Temp\ccvyANZP.s:762    .text.altcp_nagle_disable:0000000000000000 .L0 
C:\Users\stapi\AppData\Local\Temp\ccvyANZP.s:764    .text.altcp_nagle_disable:0000000000000000 .L0 
C:\Users\stapi\AppData\Local\Temp\ccvyANZP.s:765    .text.altcp_nagle_disable:0000000000000000 .L0 
C:\Users\stapi\AppData\Local\Temp\ccvyANZP.s:766    .text.altcp_nagle_disable:0000000000000000 .L0 
C:\Users\stapi\AppData\Local\Temp\ccvyANZP.s:768    .text.altcp_nagle_disable:0000000000000002 .L0 
C:\Users\stapi\AppData\Local\Temp\ccvyANZP.s:770    .text.altcp_nagle_disable:0000000000000004 .L0 
C:\Users\stapi\AppData\Local\Temp\ccvyANZP.s:772    .text.altcp_nagle_disable:0000000000000006 .L0 
C:\Users\stapi\AppData\Local\Temp\ccvyANZP.s:774    .text.altcp_nagle_disable:0000000000000008 .L0 
C:\Users\stapi\AppData\Local\Temp\ccvyANZP.s:776    .text.altcp_nagle_disable:000000000000000a .L0 
C:\Users\stapi\AppData\Local\Temp\ccvyANZP.s:780    .text.altcp_nagle_disable:000000000000000e .L0 
C:\Users\stapi\AppData\Local\Temp\ccvyANZP.s:787    .text.altcp_nagle_enable:0000000000000000 altcp_nagle_enable
C:\Users\stapi\AppData\Local\Temp\ccvyANZP.s:790    .text.altcp_nagle_enable:0000000000000000 .L0 
C:\Users\stapi\AppData\Local\Temp\ccvyANZP.s:792    .text.altcp_nagle_enable:0000000000000000 .L0 
C:\Users\stapi\AppData\Local\Temp\ccvyANZP.s:793    .text.altcp_nagle_enable:0000000000000000 .L0 
C:\Users\stapi\AppData\Local\Temp\ccvyANZP.s:794    .text.altcp_nagle_enable:0000000000000000 .L0 
C:\Users\stapi\AppData\Local\Temp\ccvyANZP.s:796    .text.altcp_nagle_enable:0000000000000002 .L0 
C:\Users\stapi\AppData\Local\Temp\ccvyANZP.s:798    .text.altcp_nagle_enable:0000000000000004 .L0 
C:\Users\stapi\AppData\Local\Temp\ccvyANZP.s:800    .text.altcp_nagle_enable:0000000000000006 .L0 
C:\Users\stapi\AppData\Local\Temp\ccvyANZP.s:802    .text.altcp_nagle_enable:0000000000000008 .L0 
C:\Users\stapi\AppData\Local\Temp\ccvyANZP.s:804    .text.altcp_nagle_enable:000000000000000a .L0 
C:\Users\stapi\AppData\Local\Temp\ccvyANZP.s:808    .text.altcp_nagle_enable:000000000000000e .L0 
C:\Users\stapi\AppData\Local\Temp\ccvyANZP.s:815    .text.altcp_nagle_disabled:0000000000000000 altcp_nagle_disabled
C:\Users\stapi\AppData\Local\Temp\ccvyANZP.s:818    .text.altcp_nagle_disabled:0000000000000000 .L0 
C:\Users\stapi\AppData\Local\Temp\ccvyANZP.s:820    .text.altcp_nagle_disabled:0000000000000000 .L0 
C:\Users\stapi\AppData\Local\Temp\ccvyANZP.s:821    .text.altcp_nagle_disabled:0000000000000000 .L0 
C:\Users\stapi\AppData\Local\Temp\ccvyANZP.s:822    .text.altcp_nagle_disabled:0000000000000000 .L0 
C:\Users\stapi\AppData\Local\Temp\ccvyANZP.s:824    .text.altcp_nagle_disabled:0000000000000002 .L0 
C:\Users\stapi\AppData\Local\Temp\ccvyANZP.s:826    .text.altcp_nagle_disabled:0000000000000004 .L0 
C:\Users\stapi\AppData\Local\Temp\ccvyANZP.s:828    .text.altcp_nagle_disabled:0000000000000006 .L0 
C:\Users\stapi\AppData\Local\Temp\ccvyANZP.s:830    .text.altcp_nagle_disabled:0000000000000008 .L0 
C:\Users\stapi\AppData\Local\Temp\ccvyANZP.s:832    .text.altcp_nagle_disabled:000000000000000a .L0 
C:\Users\stapi\AppData\Local\Temp\ccvyANZP.s:834    .text.altcp_nagle_disabled:000000000000000c .L0 
C:\Users\stapi\AppData\Local\Temp\ccvyANZP.s:835    .text.altcp_nagle_disabled:000000000000000c .L0 
C:\Users\stapi\AppData\Local\Temp\ccvyANZP.s:839    .text.altcp_nagle_disabled:000000000000000e .L0 
C:\Users\stapi\AppData\Local\Temp\ccvyANZP.s:842    .text.altcp_nagle_disabled:0000000000000010 .L0 
C:\Users\stapi\AppData\Local\Temp\ccvyANZP.s:845    .text.altcp_nagle_disabled:0000000000000014 .L0 
C:\Users\stapi\AppData\Local\Temp\ccvyANZP.s:852    .text.altcp_setprio:0000000000000000 altcp_setprio
C:\Users\stapi\AppData\Local\Temp\ccvyANZP.s:855    .text.altcp_setprio:0000000000000000 .L0 
C:\Users\stapi\AppData\Local\Temp\ccvyANZP.s:857    .text.altcp_setprio:0000000000000000 .L0 
C:\Users\stapi\AppData\Local\Temp\ccvyANZP.s:858    .text.altcp_setprio:0000000000000000 .L0 
C:\Users\stapi\AppData\Local\Temp\ccvyANZP.s:859    .text.altcp_setprio:0000000000000000 .L0 
C:\Users\stapi\AppData\Local\Temp\ccvyANZP.s:861    .text.altcp_setprio:0000000000000002 .L0 
C:\Users\stapi\AppData\Local\Temp\ccvyANZP.s:863    .text.altcp_setprio:0000000000000004 .L0 
C:\Users\stapi\AppData\Local\Temp\ccvyANZP.s:865    .text.altcp_setprio:0000000000000006 .L0 
C:\Users\stapi\AppData\Local\Temp\ccvyANZP.s:867    .text.altcp_setprio:0000000000000008 .L0 
C:\Users\stapi\AppData\Local\Temp\ccvyANZP.s:869    .text.altcp_setprio:000000000000000a .L0 
C:\Users\stapi\AppData\Local\Temp\ccvyANZP.s:873    .text.altcp_setprio:000000000000000e .L0 
C:\Users\stapi\AppData\Local\Temp\ccvyANZP.s:880    .text.altcp_get_tcp_addrinfo:0000000000000000 altcp_get_tcp_addrinfo
C:\Users\stapi\AppData\Local\Temp\ccvyANZP.s:883    .text.altcp_get_tcp_addrinfo:0000000000000000 .L0 
C:\Users\stapi\AppData\Local\Temp\ccvyANZP.s:885    .text.altcp_get_tcp_addrinfo:0000000000000000 .L0 
C:\Users\stapi\AppData\Local\Temp\ccvyANZP.s:886    .text.altcp_get_tcp_addrinfo:0000000000000000 .L0 
C:\Users\stapi\AppData\Local\Temp\ccvyANZP.s:887    .text.altcp_get_tcp_addrinfo:0000000000000000 .L0 
C:\Users\stapi\AppData\Local\Temp\ccvyANZP.s:889    .text.altcp_get_tcp_addrinfo:0000000000000002 .L0 
C:\Users\stapi\AppData\Local\Temp\ccvyANZP.s:891    .text.altcp_get_tcp_addrinfo:0000000000000004 .L0 
C:\Users\stapi\AppData\Local\Temp\ccvyANZP.s:893    .text.altcp_get_tcp_addrinfo:0000000000000006 .L0 
C:\Users\stapi\AppData\Local\Temp\ccvyANZP.s:895    .text.altcp_get_tcp_addrinfo:0000000000000008 .L0 
C:\Users\stapi\AppData\Local\Temp\ccvyANZP.s:897    .text.altcp_get_tcp_addrinfo:000000000000000a .L0 
C:\Users\stapi\AppData\Local\Temp\ccvyANZP.s:899    .text.altcp_get_tcp_addrinfo:000000000000000c .L0 
C:\Users\stapi\AppData\Local\Temp\ccvyANZP.s:900    .text.altcp_get_tcp_addrinfo:000000000000000c .L0 
C:\Users\stapi\AppData\Local\Temp\ccvyANZP.s:904    .text.altcp_get_tcp_addrinfo:000000000000000e .L0 
C:\Users\stapi\AppData\Local\Temp\ccvyANZP.s:907    .text.altcp_get_tcp_addrinfo:0000000000000010 .L0 
C:\Users\stapi\AppData\Local\Temp\ccvyANZP.s:910    .text.altcp_get_tcp_addrinfo:0000000000000014 .L0 
C:\Users\stapi\AppData\Local\Temp\ccvyANZP.s:917    .text.altcp_get_ip:0000000000000000 altcp_get_ip
C:\Users\stapi\AppData\Local\Temp\ccvyANZP.s:920    .text.altcp_get_ip:0000000000000000 .L0 
C:\Users\stapi\AppData\Local\Temp\ccvyANZP.s:922    .text.altcp_get_ip:0000000000000000 .L0 
C:\Users\stapi\AppData\Local\Temp\ccvyANZP.s:923    .text.altcp_get_ip:0000000000000000 .L0 
C:\Users\stapi\AppData\Local\Temp\ccvyANZP.s:924    .text.altcp_get_ip:0000000000000000 .L0 
C:\Users\stapi\AppData\Local\Temp\ccvyANZP.s:926    .text.altcp_get_ip:0000000000000002 .L0 
C:\Users\stapi\AppData\Local\Temp\ccvyANZP.s:928    .text.altcp_get_ip:0000000000000004 .L0 
C:\Users\stapi\AppData\Local\Temp\ccvyANZP.s:930    .text.altcp_get_ip:0000000000000006 .L0 
C:\Users\stapi\AppData\Local\Temp\ccvyANZP.s:932    .text.altcp_get_ip:0000000000000008 .L0 
C:\Users\stapi\AppData\Local\Temp\ccvyANZP.s:934    .text.altcp_get_ip:000000000000000a .L0 
C:\Users\stapi\AppData\Local\Temp\ccvyANZP.s:936    .text.altcp_get_ip:000000000000000c .L0 
C:\Users\stapi\AppData\Local\Temp\ccvyANZP.s:937    .text.altcp_get_ip:000000000000000c .L0 
C:\Users\stapi\AppData\Local\Temp\ccvyANZP.s:941    .text.altcp_get_ip:000000000000000e .L0 
C:\Users\stapi\AppData\Local\Temp\ccvyANZP.s:944    .text.altcp_get_ip:0000000000000010 .L0 
C:\Users\stapi\AppData\Local\Temp\ccvyANZP.s:947    .text.altcp_get_ip:0000000000000014 .L0 
C:\Users\stapi\AppData\Local\Temp\ccvyANZP.s:954    .text.altcp_get_port:0000000000000000 altcp_get_port
C:\Users\stapi\AppData\Local\Temp\ccvyANZP.s:957    .text.altcp_get_port:0000000000000000 .L0 
C:\Users\stapi\AppData\Local\Temp\ccvyANZP.s:959    .text.altcp_get_port:0000000000000000 .L0 
C:\Users\stapi\AppData\Local\Temp\ccvyANZP.s:960    .text.altcp_get_port:0000000000000000 .L0 
C:\Users\stapi\AppData\Local\Temp\ccvyANZP.s:961    .text.altcp_get_port:0000000000000000 .L0 
C:\Users\stapi\AppData\Local\Temp\ccvyANZP.s:963    .text.altcp_get_port:0000000000000002 .L0 
C:\Users\stapi\AppData\Local\Temp\ccvyANZP.s:965    .text.altcp_get_port:0000000000000004 .L0 
C:\Users\stapi\AppData\Local\Temp\ccvyANZP.s:967    .text.altcp_get_port:0000000000000006 .L0 
C:\Users\stapi\AppData\Local\Temp\ccvyANZP.s:969    .text.altcp_get_port:0000000000000008 .L0 
C:\Users\stapi\AppData\Local\Temp\ccvyANZP.s:971    .text.altcp_get_port:000000000000000a .L0 
C:\Users\stapi\AppData\Local\Temp\ccvyANZP.s:973    .text.altcp_get_port:000000000000000c .L0 
C:\Users\stapi\AppData\Local\Temp\ccvyANZP.s:974    .text.altcp_get_port:000000000000000c .L0 
C:\Users\stapi\AppData\Local\Temp\ccvyANZP.s:978    .text.altcp_get_port:000000000000000e .L0 
C:\Users\stapi\AppData\Local\Temp\ccvyANZP.s:981    .text.altcp_get_port:0000000000000010 .L0 
C:\Users\stapi\AppData\Local\Temp\ccvyANZP.s:984    .text.altcp_get_port:0000000000000014 .L0 
C:\Users\stapi\AppData\Local\Temp\ccvyANZP.s:991    .text.altcp_default_set_poll:0000000000000000 altcp_default_set_poll
C:\Users\stapi\AppData\Local\Temp\ccvyANZP.s:994    .text.altcp_default_set_poll:0000000000000000 .L0 
C:\Users\stapi\AppData\Local\Temp\ccvyANZP.s:996    .text.altcp_default_set_poll:0000000000000000 .L0 
C:\Users\stapi\AppData\Local\Temp\ccvyANZP.s:997    .text.altcp_default_set_poll:0000000000000000 .L0 
C:\Users\stapi\AppData\Local\Temp\ccvyANZP.s:998    .text.altcp_default_set_poll:0000000000000000 .L0 
C:\Users\stapi\AppData\Local\Temp\ccvyANZP.s:1001   .text.altcp_default_set_poll:0000000000000004 .L0 
C:\Users\stapi\AppData\Local\Temp\ccvyANZP.s:1004   .text.altcp_default_set_poll:0000000000000006 .L0 
C:\Users\stapi\AppData\Local\Temp\ccvyANZP.s:1007   .text.altcp_default_set_poll:000000000000000a .L0 
C:\Users\stapi\AppData\Local\Temp\ccvyANZP.s:1013   .text.altcp_default_set_poll:0000000000000016 .L0 
C:\Users\stapi\AppData\Local\Temp\ccvyANZP.s:1020   .text.altcp_default_recved:0000000000000000 altcp_default_recved
C:\Users\stapi\AppData\Local\Temp\ccvyANZP.s:1023   .text.altcp_default_recved:0000000000000000 .L0 
C:\Users\stapi\AppData\Local\Temp\ccvyANZP.s:1025   .text.altcp_default_recved:0000000000000000 .L0 
C:\Users\stapi\AppData\Local\Temp\ccvyANZP.s:1026   .text.altcp_default_recved:0000000000000000 .L0 
C:\Users\stapi\AppData\Local\Temp\ccvyANZP.s:1027   .text.altcp_default_recved:0000000000000000 .L0 
C:\Users\stapi\AppData\Local\Temp\ccvyANZP.s:1029   .text.altcp_default_recved:0000000000000002 .L0 
C:\Users\stapi\AppData\Local\Temp\ccvyANZP.s:1032   .text.altcp_default_recved:0000000000000004 .L0 
C:\Users\stapi\AppData\Local\Temp\ccvyANZP.s:1034   .text.altcp_default_recved:0000000000000006 .L0 
C:\Users\stapi\AppData\Local\Temp\ccvyANZP.s:1038   .text.altcp_default_recved:0000000000000010 .L0 
C:\Users\stapi\AppData\Local\Temp\ccvyANZP.s:1045   .text.altcp_default_bind:0000000000000000 altcp_default_bind
C:\Users\stapi\AppData\Local\Temp\ccvyANZP.s:1048   .text.altcp_default_bind:0000000000000000 .L0 
C:\Users\stapi\AppData\Local\Temp\ccvyANZP.s:1050   .text.altcp_default_bind:0000000000000000 .L0 
C:\Users\stapi\AppData\Local\Temp\ccvyANZP.s:1051   .text.altcp_default_bind:0000000000000000 .L0 
C:\Users\stapi\AppData\Local\Temp\ccvyANZP.s:1052   .text.altcp_default_bind:0000000000000000 .L0 
C:\Users\stapi\AppData\Local\Temp\ccvyANZP.s:1054   .text.altcp_default_bind:0000000000000002 .L0 
C:\Users\stapi\AppData\Local\Temp\ccvyANZP.s:1056   .text.altcp_default_bind:0000000000000004 .L0 
C:\Users\stapi\AppData\Local\Temp\ccvyANZP.s:1059   .text.altcp_default_bind:0000000000000006 .L0 
C:\Users\stapi\AppData\Local\Temp\ccvyANZP.s:1061   .text.altcp_default_bind:0000000000000008 .L0 
C:\Users\stapi\AppData\Local\Temp\ccvyANZP.s:1062   .text.altcp_default_bind:0000000000000008 .L0 
C:\Users\stapi\AppData\Local\Temp\ccvyANZP.s:1067   .text.altcp_default_bind:0000000000000012 .L0 
C:\Users\stapi\AppData\Local\Temp\ccvyANZP.s:1072   .text.altcp_default_bind:0000000000000016 .L0 
C:\Users\stapi\AppData\Local\Temp\ccvyANZP.s:1073   .text.altcp_default_bind:0000000000000018 .L0 
C:\Users\stapi\AppData\Local\Temp\ccvyANZP.s:1080   .text.altcp_default_shutdown:0000000000000000 altcp_default_shutdown
C:\Users\stapi\AppData\Local\Temp\ccvyANZP.s:1083   .text.altcp_default_shutdown:0000000000000000 .L0 
C:\Users\stapi\AppData\Local\Temp\ccvyANZP.s:1085   .text.altcp_default_shutdown:0000000000000000 .L0 
C:\Users\stapi\AppData\Local\Temp\ccvyANZP.s:1086   .text.altcp_default_shutdown:0000000000000000 .L0 
C:\Users\stapi\AppData\Local\Temp\ccvyANZP.s:1087   .text.altcp_default_shutdown:0000000000000000 .L0 
C:\Users\stapi\AppData\Local\Temp\ccvyANZP.s:1089   .text.altcp_default_shutdown:0000000000000002 .L0 
C:\Users\stapi\AppData\Local\Temp\ccvyANZP.s:1090   .text.altcp_default_shutdown:000000000000000a .L0 
C:\Users\stapi\AppData\Local\Temp\ccvyANZP.s:1091   .text.altcp_default_shutdown:000000000000000a .L0 
C:\Users\stapi\AppData\Local\Temp\ccvyANZP.s:1094   .text.altcp_default_shutdown:000000000000000c .L0 
C:\Users\stapi\AppData\Local\Temp\ccvyANZP.s:1095   .text.altcp_default_shutdown:000000000000000c .L0 
C:\Users\stapi\AppData\Local\Temp\ccvyANZP.s:1097   .text.altcp_default_shutdown:000000000000000e .L0 
C:\Users\stapi\AppData\Local\Temp\ccvyANZP.s:1099   .text.altcp_default_shutdown:0000000000000010 .L0 
C:\Users\stapi\AppData\Local\Temp\ccvyANZP.s:1101   .text.altcp_default_shutdown:0000000000000012 .L0 
C:\Users\stapi\AppData\Local\Temp\ccvyANZP.s:1103   .text.altcp_default_shutdown:0000000000000014 .L0 
C:\Users\stapi\AppData\Local\Temp\ccvyANZP.s:1105   .text.altcp_default_shutdown:0000000000000016 .L0 
C:\Users\stapi\AppData\Local\Temp\ccvyANZP.s:1107   .text.altcp_default_shutdown:0000000000000018 .L0 
C:\Users\stapi\AppData\Local\Temp\ccvyANZP.s:1108   .text.altcp_default_shutdown:0000000000000018 .L0 
C:\Users\stapi\AppData\Local\Temp\ccvyANZP.s:1112   .text.altcp_default_shutdown:000000000000001a .L0 
C:\Users\stapi\AppData\Local\Temp\ccvyANZP.s:1113   .text.altcp_default_shutdown:0000000000000022 .L0 
C:\Users\stapi\AppData\Local\Temp\ccvyANZP.s:1114   .text.altcp_default_shutdown:0000000000000022 .L0 
C:\Users\stapi\AppData\Local\Temp\ccvyANZP.s:1115   .text.altcp_default_shutdown:0000000000000022 .L0 
C:\Users\stapi\AppData\Local\Temp\ccvyANZP.s:1118   .text.altcp_default_shutdown:0000000000000022 .L0 
C:\Users\stapi\AppData\Local\Temp\ccvyANZP.s:1120   .text.altcp_default_shutdown:0000000000000022 .L0 
C:\Users\stapi\AppData\Local\Temp\ccvyANZP.s:1121   .text.altcp_default_shutdown:0000000000000022 .L0 
C:\Users\stapi\AppData\Local\Temp\ccvyANZP.s:1123   .text.altcp_default_shutdown:0000000000000024 .L0 
C:\Users\stapi\AppData\Local\Temp\ccvyANZP.s:1126   .text.altcp_default_shutdown:0000000000000026 .L0 
C:\Users\stapi\AppData\Local\Temp\ccvyANZP.s:1128   .text.altcp_default_shutdown:0000000000000028 .L0 
C:\Users\stapi\AppData\Local\Temp\ccvyANZP.s:1129   .text.altcp_default_shutdown:0000000000000028 .L0 
C:\Users\stapi\AppData\Local\Temp\ccvyANZP.s:1135   .text.altcp_default_shutdown:0000000000000034 .L0 
C:\Users\stapi\AppData\Local\Temp\ccvyANZP.s:1136   .text.altcp_default_shutdown:0000000000000034 .L0 
C:\Users\stapi\AppData\Local\Temp\ccvyANZP.s:1138   .text.altcp_default_shutdown:0000000000000034 .L0 
C:\Users\stapi\AppData\Local\Temp\ccvyANZP.s:1141   .text.altcp_default_shutdown:0000000000000036 .L0 
C:\Users\stapi\AppData\Local\Temp\ccvyANZP.s:1142   .text.altcp_default_shutdown:0000000000000038 .L0 
C:\Users\stapi\AppData\Local\Temp\ccvyANZP.s:1149   .text.altcp_default_write:0000000000000000 altcp_default_write
C:\Users\stapi\AppData\Local\Temp\ccvyANZP.s:1152   .text.altcp_default_write:0000000000000000 .L0 
C:\Users\stapi\AppData\Local\Temp\ccvyANZP.s:1154   .text.altcp_default_write:0000000000000000 .L0 
C:\Users\stapi\AppData\Local\Temp\ccvyANZP.s:1155   .text.altcp_default_write:0000000000000000 .L0 
C:\Users\stapi\AppData\Local\Temp\ccvyANZP.s:1156   .text.altcp_default_write:0000000000000000 .L0 
C:\Users\stapi\AppData\Local\Temp\ccvyANZP.s:1158   .text.altcp_default_write:0000000000000002 .L0 
C:\Users\stapi\AppData\Local\Temp\ccvyANZP.s:1160   .text.altcp_default_write:0000000000000004 .L0 
C:\Users\stapi\AppData\Local\Temp\ccvyANZP.s:1163   .text.altcp_default_write:0000000000000006 .L0 
C:\Users\stapi\AppData\Local\Temp\ccvyANZP.s:1165   .text.altcp_default_write:0000000000000008 .L0 
C:\Users\stapi\AppData\Local\Temp\ccvyANZP.s:1166   .text.altcp_default_write:0000000000000008 .L0 
C:\Users\stapi\AppData\Local\Temp\ccvyANZP.s:1171   .text.altcp_default_write:0000000000000012 .L0 
C:\Users\stapi\AppData\Local\Temp\ccvyANZP.s:1176   .text.altcp_default_write:0000000000000016 .L0 
C:\Users\stapi\AppData\Local\Temp\ccvyANZP.s:1177   .text.altcp_default_write:0000000000000018 .L0 
C:\Users\stapi\AppData\Local\Temp\ccvyANZP.s:1184   .text.altcp_default_output:0000000000000000 altcp_default_output
C:\Users\stapi\AppData\Local\Temp\ccvyANZP.s:1187   .text.altcp_default_output:0000000000000000 .L0 
C:\Users\stapi\AppData\Local\Temp\ccvyANZP.s:1189   .text.altcp_default_output:0000000000000000 .L0 
C:\Users\stapi\AppData\Local\Temp\ccvyANZP.s:1190   .text.altcp_default_output:0000000000000000 .L0 
C:\Users\stapi\AppData\Local\Temp\ccvyANZP.s:1191   .text.altcp_default_output:0000000000000000 .L0 
C:\Users\stapi\AppData\Local\Temp\ccvyANZP.s:1193   .text.altcp_default_output:0000000000000002 .L0 
C:\Users\stapi\AppData\Local\Temp\ccvyANZP.s:1195   .text.altcp_default_output:0000000000000004 .L0 
C:\Users\stapi\AppData\Local\Temp\ccvyANZP.s:1198   .text.altcp_default_output:0000000000000006 .L0 
C:\Users\stapi\AppData\Local\Temp\ccvyANZP.s:1200   .text.altcp_default_output:0000000000000008 .L0 
C:\Users\stapi\AppData\Local\Temp\ccvyANZP.s:1201   .text.altcp_default_output:0000000000000008 .L0 
C:\Users\stapi\AppData\Local\Temp\ccvyANZP.s:1206   .text.altcp_default_output:0000000000000012 .L0 
C:\Users\stapi\AppData\Local\Temp\ccvyANZP.s:1211   .text.altcp_default_output:0000000000000016 .L0 
C:\Users\stapi\AppData\Local\Temp\ccvyANZP.s:1212   .text.altcp_default_output:0000000000000018 .L0 
C:\Users\stapi\AppData\Local\Temp\ccvyANZP.s:1219   .text.altcp_default_mss:0000000000000000 altcp_default_mss
C:\Users\stapi\AppData\Local\Temp\ccvyANZP.s:1222   .text.altcp_default_mss:0000000000000000 .L0 
C:\Users\stapi\AppData\Local\Temp\ccvyANZP.s:1224   .text.altcp_default_mss:0000000000000000 .L0 
C:\Users\stapi\AppData\Local\Temp\ccvyANZP.s:1225   .text.altcp_default_mss:0000000000000000 .L0 
C:\Users\stapi\AppData\Local\Temp\ccvyANZP.s:1226   .text.altcp_default_mss:0000000000000000 .L0 
C:\Users\stapi\AppData\Local\Temp\ccvyANZP.s:1228   .text.altcp_default_mss:0000000000000002 .L0 
C:\Users\stapi\AppData\Local\Temp\ccvyANZP.s:1230   .text.altcp_default_mss:0000000000000004 .L0 
C:\Users\stapi\AppData\Local\Temp\ccvyANZP.s:1233   .text.altcp_default_mss:0000000000000006 .L0 
C:\Users\stapi\AppData\Local\Temp\ccvyANZP.s:1235   .text.altcp_default_mss:0000000000000008 .L0 
C:\Users\stapi\AppData\Local\Temp\ccvyANZP.s:1236   .text.altcp_default_mss:0000000000000008 .L0 
C:\Users\stapi\AppData\Local\Temp\ccvyANZP.s:1241   .text.altcp_default_mss:0000000000000012 .L0 
C:\Users\stapi\AppData\Local\Temp\ccvyANZP.s:1246   .text.altcp_default_mss:0000000000000016 .L0 
C:\Users\stapi\AppData\Local\Temp\ccvyANZP.s:1247   .text.altcp_default_mss:0000000000000018 .L0 
C:\Users\stapi\AppData\Local\Temp\ccvyANZP.s:1254   .text.altcp_default_sndbuf:0000000000000000 altcp_default_sndbuf
C:\Users\stapi\AppData\Local\Temp\ccvyANZP.s:1257   .text.altcp_default_sndbuf:0000000000000000 .L0 
C:\Users\stapi\AppData\Local\Temp\ccvyANZP.s:1259   .text.altcp_default_sndbuf:0000000000000000 .L0 
C:\Users\stapi\AppData\Local\Temp\ccvyANZP.s:1260   .text.altcp_default_sndbuf:0000000000000000 .L0 
C:\Users\stapi\AppData\Local\Temp\ccvyANZP.s:1261   .text.altcp_default_sndbuf:0000000000000000 .L0 
C:\Users\stapi\AppData\Local\Temp\ccvyANZP.s:1263   .text.altcp_default_sndbuf:0000000000000002 .L0 
C:\Users\stapi\AppData\Local\Temp\ccvyANZP.s:1265   .text.altcp_default_sndbuf:0000000000000004 .L0 
C:\Users\stapi\AppData\Local\Temp\ccvyANZP.s:1268   .text.altcp_default_sndbuf:0000000000000006 .L0 
C:\Users\stapi\AppData\Local\Temp\ccvyANZP.s:1270   .text.altcp_default_sndbuf:0000000000000008 .L0 
C:\Users\stapi\AppData\Local\Temp\ccvyANZP.s:1271   .text.altcp_default_sndbuf:0000000000000008 .L0 
C:\Users\stapi\AppData\Local\Temp\ccvyANZP.s:1276   .text.altcp_default_sndbuf:0000000000000012 .L0 
C:\Users\stapi\AppData\Local\Temp\ccvyANZP.s:1281   .text.altcp_default_sndbuf:0000000000000016 .L0 
C:\Users\stapi\AppData\Local\Temp\ccvyANZP.s:1282   .text.altcp_default_sndbuf:0000000000000018 .L0 
C:\Users\stapi\AppData\Local\Temp\ccvyANZP.s:1289   .text.altcp_default_sndqueuelen:0000000000000000 altcp_default_sndqueuelen
C:\Users\stapi\AppData\Local\Temp\ccvyANZP.s:1292   .text.altcp_default_sndqueuelen:0000000000000000 .L0 
C:\Users\stapi\AppData\Local\Temp\ccvyANZP.s:1294   .text.altcp_default_sndqueuelen:0000000000000000 .L0 
C:\Users\stapi\AppData\Local\Temp\ccvyANZP.s:1295   .text.altcp_default_sndqueuelen:0000000000000000 .L0 
C:\Users\stapi\AppData\Local\Temp\ccvyANZP.s:1296   .text.altcp_default_sndqueuelen:0000000000000000 .L0 
C:\Users\stapi\AppData\Local\Temp\ccvyANZP.s:1298   .text.altcp_default_sndqueuelen:0000000000000002 .L0 
C:\Users\stapi\AppData\Local\Temp\ccvyANZP.s:1300   .text.altcp_default_sndqueuelen:0000000000000004 .L0 
C:\Users\stapi\AppData\Local\Temp\ccvyANZP.s:1303   .text.altcp_default_sndqueuelen:0000000000000006 .L0 
C:\Users\stapi\AppData\Local\Temp\ccvyANZP.s:1305   .text.altcp_default_sndqueuelen:0000000000000008 .L0 
C:\Users\stapi\AppData\Local\Temp\ccvyANZP.s:1306   .text.altcp_default_sndqueuelen:0000000000000008 .L0 
C:\Users\stapi\AppData\Local\Temp\ccvyANZP.s:1311   .text.altcp_default_sndqueuelen:0000000000000012 .L0 
C:\Users\stapi\AppData\Local\Temp\ccvyANZP.s:1316   .text.altcp_default_sndqueuelen:0000000000000016 .L0 
C:\Users\stapi\AppData\Local\Temp\ccvyANZP.s:1317   .text.altcp_default_sndqueuelen:0000000000000018 .L0 
C:\Users\stapi\AppData\Local\Temp\ccvyANZP.s:1324   .text.altcp_default_nagle_disable:0000000000000000 altcp_default_nagle_disable
C:\Users\stapi\AppData\Local\Temp\ccvyANZP.s:1327   .text.altcp_default_nagle_disable:0000000000000000 .L0 
C:\Users\stapi\AppData\Local\Temp\ccvyANZP.s:1329   .text.altcp_default_nagle_disable:0000000000000000 .L0 
C:\Users\stapi\AppData\Local\Temp\ccvyANZP.s:1330   .text.altcp_default_nagle_disable:0000000000000000 .L0 
C:\Users\stapi\AppData\Local\Temp\ccvyANZP.s:1331   .text.altcp_default_nagle_disable:0000000000000000 .L0 
C:\Users\stapi\AppData\Local\Temp\ccvyANZP.s:1333   .text.altcp_default_nagle_disable:0000000000000002 .L0 
C:\Users\stapi\AppData\Local\Temp\ccvyANZP.s:1336   .text.altcp_default_nagle_disable:0000000000000004 .L0 
C:\Users\stapi\AppData\Local\Temp\ccvyANZP.s:1338   .text.altcp_default_nagle_disable:0000000000000006 .L0 
C:\Users\stapi\AppData\Local\Temp\ccvyANZP.s:1342   .text.altcp_default_nagle_disable:0000000000000010 .L0 
C:\Users\stapi\AppData\Local\Temp\ccvyANZP.s:1349   .text.altcp_default_nagle_enable:0000000000000000 altcp_default_nagle_enable
C:\Users\stapi\AppData\Local\Temp\ccvyANZP.s:1352   .text.altcp_default_nagle_enable:0000000000000000 .L0 
C:\Users\stapi\AppData\Local\Temp\ccvyANZP.s:1354   .text.altcp_default_nagle_enable:0000000000000000 .L0 
C:\Users\stapi\AppData\Local\Temp\ccvyANZP.s:1355   .text.altcp_default_nagle_enable:0000000000000000 .L0 
C:\Users\stapi\AppData\Local\Temp\ccvyANZP.s:1356   .text.altcp_default_nagle_enable:0000000000000000 .L0 
C:\Users\stapi\AppData\Local\Temp\ccvyANZP.s:1358   .text.altcp_default_nagle_enable:0000000000000002 .L0 
C:\Users\stapi\AppData\Local\Temp\ccvyANZP.s:1361   .text.altcp_default_nagle_enable:0000000000000004 .L0 
C:\Users\stapi\AppData\Local\Temp\ccvyANZP.s:1363   .text.altcp_default_nagle_enable:0000000000000006 .L0 
C:\Users\stapi\AppData\Local\Temp\ccvyANZP.s:1367   .text.altcp_default_nagle_enable:0000000000000010 .L0 
C:\Users\stapi\AppData\Local\Temp\ccvyANZP.s:1374   .text.altcp_default_nagle_disabled:0000000000000000 altcp_default_nagle_disabled
C:\Users\stapi\AppData\Local\Temp\ccvyANZP.s:1377   .text.altcp_default_nagle_disabled:0000000000000000 .L0 
C:\Users\stapi\AppData\Local\Temp\ccvyANZP.s:1379   .text.altcp_default_nagle_disabled:0000000000000000 .L0 
C:\Users\stapi\AppData\Local\Temp\ccvyANZP.s:1380   .text.altcp_default_nagle_disabled:0000000000000000 .L0 
C:\Users\stapi\AppData\Local\Temp\ccvyANZP.s:1381   .text.altcp_default_nagle_disabled:0000000000000000 .L0 
C:\Users\stapi\AppData\Local\Temp\ccvyANZP.s:1383   .text.altcp_default_nagle_disabled:0000000000000002 .L0 
C:\Users\stapi\AppData\Local\Temp\ccvyANZP.s:1385   .text.altcp_default_nagle_disabled:0000000000000004 .L0 
C:\Users\stapi\AppData\Local\Temp\ccvyANZP.s:1388   .text.altcp_default_nagle_disabled:0000000000000006 .L0 
C:\Users\stapi\AppData\Local\Temp\ccvyANZP.s:1390   .text.altcp_default_nagle_disabled:0000000000000008 .L0 
C:\Users\stapi\AppData\Local\Temp\ccvyANZP.s:1391   .text.altcp_default_nagle_disabled:0000000000000008 .L0 
C:\Users\stapi\AppData\Local\Temp\ccvyANZP.s:1396   .text.altcp_default_nagle_disabled:0000000000000012 .L0 
C:\Users\stapi\AppData\Local\Temp\ccvyANZP.s:1401   .text.altcp_default_nagle_disabled:0000000000000016 .L0 
C:\Users\stapi\AppData\Local\Temp\ccvyANZP.s:1402   .text.altcp_default_nagle_disabled:0000000000000018 .L0 
C:\Users\stapi\AppData\Local\Temp\ccvyANZP.s:1409   .text.altcp_default_setprio:0000000000000000 altcp_default_setprio
C:\Users\stapi\AppData\Local\Temp\ccvyANZP.s:1412   .text.altcp_default_setprio:0000000000000000 .L0 
C:\Users\stapi\AppData\Local\Temp\ccvyANZP.s:1414   .text.altcp_default_setprio:0000000000000000 .L0 
C:\Users\stapi\AppData\Local\Temp\ccvyANZP.s:1415   .text.altcp_default_setprio:0000000000000000 .L0 
C:\Users\stapi\AppData\Local\Temp\ccvyANZP.s:1416   .text.altcp_default_setprio:0000000000000000 .L0 
C:\Users\stapi\AppData\Local\Temp\ccvyANZP.s:1418   .text.altcp_default_setprio:0000000000000002 .L0 
C:\Users\stapi\AppData\Local\Temp\ccvyANZP.s:1421   .text.altcp_default_setprio:0000000000000004 .L0 
C:\Users\stapi\AppData\Local\Temp\ccvyANZP.s:1423   .text.altcp_default_setprio:0000000000000006 .L0 
C:\Users\stapi\AppData\Local\Temp\ccvyANZP.s:1427   .text.altcp_default_setprio:0000000000000010 .L0 
C:\Users\stapi\AppData\Local\Temp\ccvyANZP.s:1434   .text.altcp_default_dealloc:0000000000000000 altcp_default_dealloc
C:\Users\stapi\AppData\Local\Temp\ccvyANZP.s:1437   .text.altcp_default_dealloc:0000000000000000 .L0 
C:\Users\stapi\AppData\Local\Temp\ccvyANZP.s:1439   .text.altcp_default_dealloc:0000000000000000 .L0 
C:\Users\stapi\AppData\Local\Temp\ccvyANZP.s:1440   .text.altcp_default_dealloc:0000000000000000 .L0 
C:\Users\stapi\AppData\Local\Temp\ccvyANZP.s:1441   .text.altcp_default_dealloc:0000000000000000 .L0 
C:\Users\stapi\AppData\Local\Temp\ccvyANZP.s:1442   .text.altcp_default_dealloc:0000000000000002 .L0 
C:\Users\stapi\AppData\Local\Temp\ccvyANZP.s:1449   .text.altcp_default_get_tcp_addrinfo:0000000000000000 altcp_default_get_tcp_addrinfo
C:\Users\stapi\AppData\Local\Temp\ccvyANZP.s:1452   .text.altcp_default_get_tcp_addrinfo:0000000000000000 .L0 
C:\Users\stapi\AppData\Local\Temp\ccvyANZP.s:1454   .text.altcp_default_get_tcp_addrinfo:0000000000000000 .L0 
C:\Users\stapi\AppData\Local\Temp\ccvyANZP.s:1455   .text.altcp_default_get_tcp_addrinfo:0000000000000000 .L0 
C:\Users\stapi\AppData\Local\Temp\ccvyANZP.s:1456   .text.altcp_default_get_tcp_addrinfo:0000000000000000 .L0 
C:\Users\stapi\AppData\Local\Temp\ccvyANZP.s:1458   .text.altcp_default_get_tcp_addrinfo:0000000000000002 .L0 
C:\Users\stapi\AppData\Local\Temp\ccvyANZP.s:1460   .text.altcp_default_get_tcp_addrinfo:0000000000000004 .L0 
C:\Users\stapi\AppData\Local\Temp\ccvyANZP.s:1463   .text.altcp_default_get_tcp_addrinfo:0000000000000006 .L0 
C:\Users\stapi\AppData\Local\Temp\ccvyANZP.s:1465   .text.altcp_default_get_tcp_addrinfo:0000000000000008 .L0 
C:\Users\stapi\AppData\Local\Temp\ccvyANZP.s:1466   .text.altcp_default_get_tcp_addrinfo:0000000000000008 .L0 
C:\Users\stapi\AppData\Local\Temp\ccvyANZP.s:1471   .text.altcp_default_get_tcp_addrinfo:0000000000000012 .L0 
C:\Users\stapi\AppData\Local\Temp\ccvyANZP.s:1476   .text.altcp_default_get_tcp_addrinfo:0000000000000016 .L0 
C:\Users\stapi\AppData\Local\Temp\ccvyANZP.s:1477   .text.altcp_default_get_tcp_addrinfo:0000000000000018 .L0 
C:\Users\stapi\AppData\Local\Temp\ccvyANZP.s:1484   .text.altcp_default_get_ip:0000000000000000 altcp_default_get_ip
C:\Users\stapi\AppData\Local\Temp\ccvyANZP.s:1487   .text.altcp_default_get_ip:0000000000000000 .L0 
C:\Users\stapi\AppData\Local\Temp\ccvyANZP.s:1489   .text.altcp_default_get_ip:0000000000000000 .L0 
C:\Users\stapi\AppData\Local\Temp\ccvyANZP.s:1490   .text.altcp_default_get_ip:0000000000000000 .L0 
C:\Users\stapi\AppData\Local\Temp\ccvyANZP.s:1491   .text.altcp_default_get_ip:0000000000000000 .L0 
C:\Users\stapi\AppData\Local\Temp\ccvyANZP.s:1493   .text.altcp_default_get_ip:0000000000000002 .L0 
C:\Users\stapi\AppData\Local\Temp\ccvyANZP.s:1496   .text.altcp_default_get_ip:0000000000000004 .L0 
C:\Users\stapi\AppData\Local\Temp\ccvyANZP.s:1498   .text.altcp_default_get_ip:0000000000000006 .L0 
C:\Users\stapi\AppData\Local\Temp\ccvyANZP.s:1499   .text.altcp_default_get_ip:0000000000000006 .L0 
C:\Users\stapi\AppData\Local\Temp\ccvyANZP.s:1503   .text.altcp_default_get_ip:000000000000000e .L0 
C:\Users\stapi\AppData\Local\Temp\ccvyANZP.s:1504   .text.altcp_default_get_ip:0000000000000010 .L0 
C:\Users\stapi\AppData\Local\Temp\ccvyANZP.s:1511   .text.altcp_default_get_port:0000000000000000 altcp_default_get_port
C:\Users\stapi\AppData\Local\Temp\ccvyANZP.s:1514   .text.altcp_default_get_port:0000000000000000 .L0 
C:\Users\stapi\AppData\Local\Temp\ccvyANZP.s:1516   .text.altcp_default_get_port:0000000000000000 .L0 
C:\Users\stapi\AppData\Local\Temp\ccvyANZP.s:1517   .text.altcp_default_get_port:0000000000000000 .L0 
C:\Users\stapi\AppData\Local\Temp\ccvyANZP.s:1518   .text.altcp_default_get_port:0000000000000000 .L0 
C:\Users\stapi\AppData\Local\Temp\ccvyANZP.s:1520   .text.altcp_default_get_port:0000000000000002 .L0 
C:\Users\stapi\AppData\Local\Temp\ccvyANZP.s:1522   .text.altcp_default_get_port:0000000000000004 .L0 
C:\Users\stapi\AppData\Local\Temp\ccvyANZP.s:1525   .text.altcp_default_get_port:0000000000000006 .L0 
C:\Users\stapi\AppData\Local\Temp\ccvyANZP.s:1527   .text.altcp_default_get_port:0000000000000008 .L0 
C:\Users\stapi\AppData\Local\Temp\ccvyANZP.s:1528   .text.altcp_default_get_port:0000000000000008 .L0 
C:\Users\stapi\AppData\Local\Temp\ccvyANZP.s:1533   .text.altcp_default_get_port:0000000000000012 .L0 
C:\Users\stapi\AppData\Local\Temp\ccvyANZP.s:1538   .text.altcp_default_get_port:0000000000000016 .L0 
C:\Users\stapi\AppData\Local\Temp\ccvyANZP.s:1539   .text.altcp_default_get_port:0000000000000018 .L0 
C:\Users\stapi\AppData\Local\Temp\ccvyANZP.s:48     .text.altcp_alloc:000000000000002e .L0 
C:\Users\stapi\AppData\Local\Temp\ccvyANZP.s:101    .text.altcp_free:0000000000000032 .L0 
C:\Users\stapi\AppData\Local\Temp\ccvyANZP.s:152    .text.altcp_new_ip_type:000000000000002a .L0 
C:\Users\stapi\AppData\Local\Temp\ccvyANZP.s:169    .text.altcp_new_ip6:000000000000000a .L0 
C:\Users\stapi\AppData\Local\Temp\ccvyANZP.s:186    .text.altcp_new:000000000000000a .L0 
C:\Users\stapi\AppData\Local\Temp\ccvyANZP.s:207    .text.altcp_arg:0000000000000006 .L0 
C:\Users\stapi\AppData\Local\Temp\ccvyANZP.s:228    .text.altcp_accept:0000000000000006 .L0 
C:\Users\stapi\AppData\Local\Temp\ccvyANZP.s:249    .text.altcp_recv:0000000000000006 .L0 
C:\Users\stapi\AppData\Local\Temp\ccvyANZP.s:270    .text.altcp_sent:0000000000000006 .L0 
C:\Users\stapi\AppData\Local\Temp\ccvyANZP.s:308    .text.altcp_poll:0000000000000018 .L0 
C:\Users\stapi\AppData\Local\Temp\ccvyANZP.s:329    .text.altcp_err:0000000000000006 .L0 
C:\Users\stapi\AppData\Local\Temp\ccvyANZP.s:357    .text.altcp_recved:000000000000000e .L0 
C:\Users\stapi\AppData\Local\Temp\ccvyANZP.s:394    .text.altcp_bind:0000000000000014 .L0 
C:\Users\stapi\AppData\Local\Temp\ccvyANZP.s:431    .text.altcp_connect:0000000000000014 .L0 
C:\Users\stapi\AppData\Local\Temp\ccvyANZP.s:468    .text.altcp_listen_with_backlog_and_err:0000000000000014 .L0 
C:\Users\stapi\AppData\Local\Temp\ccvyANZP.s:496    .text.altcp_abort:000000000000000e .L0 
C:\Users\stapi\AppData\Local\Temp\ccvyANZP.s:533    .text.altcp_close:0000000000000014 .L0 
C:\Users\stapi\AppData\Local\Temp\ccvyANZP.s:570    .text.altcp_shutdown:0000000000000014 .L0 
C:\Users\stapi\AppData\Local\Temp\ccvyANZP.s:607    .text.altcp_write:0000000000000014 .L0 
C:\Users\stapi\AppData\Local\Temp\ccvyANZP.s:644    .text.altcp_output:0000000000000014 .L0 
C:\Users\stapi\AppData\Local\Temp\ccvyANZP.s:681    .text.altcp_mss:0000000000000014 .L0 
C:\Users\stapi\AppData\Local\Temp\ccvyANZP.s:718    .text.altcp_sndbuf:0000000000000014 .L0 
C:\Users\stapi\AppData\Local\Temp\ccvyANZP.s:755    .text.altcp_sndqueuelen:0000000000000014 .L0 
C:\Users\stapi\AppData\Local\Temp\ccvyANZP.s:783    .text.altcp_nagle_disable:000000000000000e .L0 
C:\Users\stapi\AppData\Local\Temp\ccvyANZP.s:811    .text.altcp_nagle_enable:000000000000000e .L0 
C:\Users\stapi\AppData\Local\Temp\ccvyANZP.s:848    .text.altcp_nagle_disabled:0000000000000014 .L0 
C:\Users\stapi\AppData\Local\Temp\ccvyANZP.s:876    .text.altcp_setprio:000000000000000e .L0 
C:\Users\stapi\AppData\Local\Temp\ccvyANZP.s:913    .text.altcp_get_tcp_addrinfo:0000000000000014 .L0 
C:\Users\stapi\AppData\Local\Temp\ccvyANZP.s:950    .text.altcp_get_ip:0000000000000014 .L0 
C:\Users\stapi\AppData\Local\Temp\ccvyANZP.s:987    .text.altcp_get_port:0000000000000014 .L0 
C:\Users\stapi\AppData\Local\Temp\ccvyANZP.s:1016   .text.altcp_default_set_poll:0000000000000016 .L0 
C:\Users\stapi\AppData\Local\Temp\ccvyANZP.s:1041   .text.altcp_default_recved:0000000000000010 .L0 
C:\Users\stapi\AppData\Local\Temp\ccvyANZP.s:1076   .text.altcp_default_bind:0000000000000018 .L0 
C:\Users\stapi\AppData\Local\Temp\ccvyANZP.s:1145   .text.altcp_default_shutdown:0000000000000038 .L0 
C:\Users\stapi\AppData\Local\Temp\ccvyANZP.s:1180   .text.altcp_default_write:0000000000000018 .L0 
C:\Users\stapi\AppData\Local\Temp\ccvyANZP.s:1215   .text.altcp_default_output:0000000000000018 .L0 
C:\Users\stapi\AppData\Local\Temp\ccvyANZP.s:1250   .text.altcp_default_mss:0000000000000018 .L0 
C:\Users\stapi\AppData\Local\Temp\ccvyANZP.s:1285   .text.altcp_default_sndbuf:0000000000000018 .L0 
C:\Users\stapi\AppData\Local\Temp\ccvyANZP.s:1320   .text.altcp_default_sndqueuelen:0000000000000018 .L0 
C:\Users\stapi\AppData\Local\Temp\ccvyANZP.s:1345   .text.altcp_default_nagle_disable:0000000000000010 .L0 
C:\Users\stapi\AppData\Local\Temp\ccvyANZP.s:1370   .text.altcp_default_nagle_enable:0000000000000010 .L0 
C:\Users\stapi\AppData\Local\Temp\ccvyANZP.s:1405   .text.altcp_default_nagle_disabled:0000000000000018 .L0 
C:\Users\stapi\AppData\Local\Temp\ccvyANZP.s:1430   .text.altcp_default_setprio:0000000000000010 .L0 
C:\Users\stapi\AppData\Local\Temp\ccvyANZP.s:1445   .text.altcp_default_dealloc:0000000000000002 .L0 
C:\Users\stapi\AppData\Local\Temp\ccvyANZP.s:1480   .text.altcp_default_get_tcp_addrinfo:0000000000000018 .L0 
C:\Users\stapi\AppData\Local\Temp\ccvyANZP.s:1507   .text.altcp_default_get_ip:0000000000000010 .L0 
C:\Users\stapi\AppData\Local\Temp\ccvyANZP.s:1542   .text.altcp_default_get_port:0000000000000018 .L0 
                     .debug_frame:0000000000000000 .L0 
C:\Users\stapi\AppData\Local\Temp\ccvyANZP.s:38     .text.altcp_alloc:0000000000000024 .L1
C:\Users\stapi\AppData\Local\Temp\ccvyANZP.s:95     .text.altcp_free:0000000000000030 .L20
C:\Users\stapi\AppData\Local\Temp\ccvyANZP.s:83     .text.altcp_free:000000000000001c .L9
C:\Users\stapi\AppData\Local\Temp\ccvyANZP.s:132    .text.altcp_new_ip_type:000000000000001e .L24
C:\Users\stapi\AppData\Local\Temp\ccvyANZP.s:125    .text.altcp_new_ip_type:0000000000000016 .L23
C:\Users\stapi\AppData\Local\Temp\ccvyANZP.s:201    .text.altcp_arg:0000000000000004 .L32
C:\Users\stapi\AppData\Local\Temp\ccvyANZP.s:222    .text.altcp_accept:0000000000000004 .L37
C:\Users\stapi\AppData\Local\Temp\ccvyANZP.s:243    .text.altcp_recv:0000000000000004 .L42
C:\Users\stapi\AppData\Local\Temp\ccvyANZP.s:264    .text.altcp_sent:0000000000000004 .L47
C:\Users\stapi\AppData\Local\Temp\ccvyANZP.s:303    .text.altcp_poll:0000000000000016 .L63
C:\Users\stapi\AppData\Local\Temp\ccvyANZP.s:323    .text.altcp_err:0000000000000004 .L66
C:\Users\stapi\AppData\Local\Temp\ccvyANZP.s:352    .text.altcp_recved:000000000000000c .L83
C:\Users\stapi\AppData\Local\Temp\ccvyANZP.s:383    .text.altcp_bind:000000000000000e .L88
C:\Users\stapi\AppData\Local\Temp\ccvyANZP.s:386    .text.altcp_bind:0000000000000010 .L92
C:\Users\stapi\AppData\Local\Temp\ccvyANZP.s:420    .text.altcp_connect:000000000000000e .L97
C:\Users\stapi\AppData\Local\Temp\ccvyANZP.s:423    .text.altcp_connect:0000000000000010 .L101
C:\Users\stapi\AppData\Local\Temp\ccvyANZP.s:457    .text.altcp_listen_with_backlog_and_err:000000000000000e .L106
C:\Users\stapi\AppData\Local\Temp\ccvyANZP.s:460    .text.altcp_listen_with_backlog_and_err:0000000000000010 .L112
C:\Users\stapi\AppData\Local\Temp\ccvyANZP.s:491    .text.altcp_abort:000000000000000c .L127
C:\Users\stapi\AppData\Local\Temp\ccvyANZP.s:522    .text.altcp_close:000000000000000e .L132
C:\Users\stapi\AppData\Local\Temp\ccvyANZP.s:525    .text.altcp_close:0000000000000010 .L136
C:\Users\stapi\AppData\Local\Temp\ccvyANZP.s:559    .text.altcp_shutdown:000000000000000e .L141
C:\Users\stapi\AppData\Local\Temp\ccvyANZP.s:562    .text.altcp_shutdown:0000000000000010 .L145
C:\Users\stapi\AppData\Local\Temp\ccvyANZP.s:596    .text.altcp_write:000000000000000e .L150
C:\Users\stapi\AppData\Local\Temp\ccvyANZP.s:599    .text.altcp_write:0000000000000010 .L154
C:\Users\stapi\AppData\Local\Temp\ccvyANZP.s:633    .text.altcp_output:000000000000000e .L159
C:\Users\stapi\AppData\Local\Temp\ccvyANZP.s:636    .text.altcp_output:0000000000000010 .L163
C:\Users\stapi\AppData\Local\Temp\ccvyANZP.s:670    .text.altcp_mss:000000000000000e .L168
C:\Users\stapi\AppData\Local\Temp\ccvyANZP.s:673    .text.altcp_mss:0000000000000010 .L173
C:\Users\stapi\AppData\Local\Temp\ccvyANZP.s:707    .text.altcp_sndbuf:000000000000000e .L178
C:\Users\stapi\AppData\Local\Temp\ccvyANZP.s:710    .text.altcp_sndbuf:0000000000000010 .L183
C:\Users\stapi\AppData\Local\Temp\ccvyANZP.s:744    .text.altcp_sndqueuelen:000000000000000e .L188
C:\Users\stapi\AppData\Local\Temp\ccvyANZP.s:747    .text.altcp_sndqueuelen:0000000000000010 .L193
C:\Users\stapi\AppData\Local\Temp\ccvyANZP.s:778    .text.altcp_nagle_disable:000000000000000c .L208
C:\Users\stapi\AppData\Local\Temp\ccvyANZP.s:806    .text.altcp_nagle_enable:000000000000000c .L223
C:\Users\stapi\AppData\Local\Temp\ccvyANZP.s:837    .text.altcp_nagle_disabled:000000000000000e .L228
C:\Users\stapi\AppData\Local\Temp\ccvyANZP.s:840    .text.altcp_nagle_disabled:0000000000000010 .L233
C:\Users\stapi\AppData\Local\Temp\ccvyANZP.s:871    .text.altcp_setprio:000000000000000c .L248
C:\Users\stapi\AppData\Local\Temp\ccvyANZP.s:902    .text.altcp_get_tcp_addrinfo:000000000000000e .L253
C:\Users\stapi\AppData\Local\Temp\ccvyANZP.s:905    .text.altcp_get_tcp_addrinfo:0000000000000010 .L257
C:\Users\stapi\AppData\Local\Temp\ccvyANZP.s:939    .text.altcp_get_ip:000000000000000e .L262
C:\Users\stapi\AppData\Local\Temp\ccvyANZP.s:942    .text.altcp_get_ip:0000000000000010 .L268
C:\Users\stapi\AppData\Local\Temp\ccvyANZP.s:976    .text.altcp_get_port:000000000000000e .L273
C:\Users\stapi\AppData\Local\Temp\ccvyANZP.s:979    .text.altcp_get_port:0000000000000010 .L278
C:\Users\stapi\AppData\Local\Temp\ccvyANZP.s:1011   .text.altcp_default_set_poll:0000000000000014 .L290
C:\Users\stapi\AppData\Local\Temp\ccvyANZP.s:1036   .text.altcp_default_recved:000000000000000e .L302
C:\Users\stapi\AppData\Local\Temp\ccvyANZP.s:1065   .text.altcp_default_bind:0000000000000012 .L307
C:\Users\stapi\AppData\Local\Temp\ccvyANZP.s:1070   .text.altcp_default_bind:0000000000000016 .L310
C:\Users\stapi\AppData\Local\Temp\ccvyANZP.s:1134   .text.altcp_default_shutdown:0000000000000034 .L316
C:\Users\stapi\AppData\Local\Temp\ccvyANZP.s:1117   .text.altcp_default_shutdown:0000000000000022 .L315
C:\Users\stapi\AppData\Local\Temp\ccvyANZP.s:1110   .text.altcp_default_shutdown:000000000000001a .L314
C:\Users\stapi\AppData\Local\Temp\ccvyANZP.s:1169   .text.altcp_default_write:0000000000000012 .L336
C:\Users\stapi\AppData\Local\Temp\ccvyANZP.s:1174   .text.altcp_default_write:0000000000000016 .L339
C:\Users\stapi\AppData\Local\Temp\ccvyANZP.s:1204   .text.altcp_default_output:0000000000000012 .L344
C:\Users\stapi\AppData\Local\Temp\ccvyANZP.s:1209   .text.altcp_default_output:0000000000000016 .L347
C:\Users\stapi\AppData\Local\Temp\ccvyANZP.s:1239   .text.altcp_default_mss:0000000000000012 .L352
C:\Users\stapi\AppData\Local\Temp\ccvyANZP.s:1244   .text.altcp_default_mss:0000000000000016 .L356
C:\Users\stapi\AppData\Local\Temp\ccvyANZP.s:1274   .text.altcp_default_sndbuf:0000000000000012 .L361
C:\Users\stapi\AppData\Local\Temp\ccvyANZP.s:1279   .text.altcp_default_sndbuf:0000000000000016 .L365
C:\Users\stapi\AppData\Local\Temp\ccvyANZP.s:1309   .text.altcp_default_sndqueuelen:0000000000000012 .L370
C:\Users\stapi\AppData\Local\Temp\ccvyANZP.s:1314   .text.altcp_default_sndqueuelen:0000000000000016 .L374
C:\Users\stapi\AppData\Local\Temp\ccvyANZP.s:1340   .text.altcp_default_nagle_disable:000000000000000e .L386
C:\Users\stapi\AppData\Local\Temp\ccvyANZP.s:1365   .text.altcp_default_nagle_enable:000000000000000e .L398
C:\Users\stapi\AppData\Local\Temp\ccvyANZP.s:1394   .text.altcp_default_nagle_disabled:0000000000000012 .L403
C:\Users\stapi\AppData\Local\Temp\ccvyANZP.s:1399   .text.altcp_default_nagle_disabled:0000000000000016 .L407
C:\Users\stapi\AppData\Local\Temp\ccvyANZP.s:1425   .text.altcp_default_setprio:000000000000000e .L419
C:\Users\stapi\AppData\Local\Temp\ccvyANZP.s:1469   .text.altcp_default_get_tcp_addrinfo:0000000000000012 .L425
C:\Users\stapi\AppData\Local\Temp\ccvyANZP.s:1474   .text.altcp_default_get_tcp_addrinfo:0000000000000016 .L428
C:\Users\stapi\AppData\Local\Temp\ccvyANZP.s:1501   .text.altcp_default_get_ip:000000000000000e .L440
C:\Users\stapi\AppData\Local\Temp\ccvyANZP.s:1531   .text.altcp_default_get_port:0000000000000012 .L445
C:\Users\stapi\AppData\Local\Temp\ccvyANZP.s:1536   .text.altcp_default_get_port:0000000000000016 .L449
C:\Users\stapi\AppData\Local\Temp\ccvyANZP.s:4326   .debug_abbrev:0000000000000000 .Ldebug_abbrev0
C:\Users\stapi\AppData\Local\Temp\ccvyANZP.s:7146   .debug_str:0000000000000a90 .LASF196
C:\Users\stapi\AppData\Local\Temp\ccvyANZP.s:7030   .debug_str:0000000000000718 .LASF197
C:\Users\stapi\AppData\Local\Temp\ccvyANZP.s:6962   .debug_str:00000000000004df .LASF198
C:\Users\stapi\AppData\Local\Temp\ccvyANZP.s:6664   .debug_ranges:0000000000000000 .Ldebug_ranges0
C:\Users\stapi\AppData\Local\Temp\ccvyANZP.s:6762   .debug_line:0000000000000000 .Ldebug_line0
C:\Users\stapi\AppData\Local\Temp\ccvyANZP.s:7014   .debug_str:00000000000006b0 .LASF0
C:\Users\stapi\AppData\Local\Temp\ccvyANZP.s:7132   .debug_str:0000000000000a31 .LASF2
C:\Users\stapi\AppData\Local\Temp\ccvyANZP.s:7074   .debug_str:00000000000008d7 .LASF1
C:\Users\stapi\AppData\Local\Temp\ccvyANZP.s:7106   .debug_str:00000000000009aa .LASF3
C:\Users\stapi\AppData\Local\Temp\ccvyANZP.s:7036   .debug_str:00000000000007a4 .LASF4
C:\Users\stapi\AppData\Local\Temp\ccvyANZP.s:6872   .debug_str:00000000000002c6 .LASF5
C:\Users\stapi\AppData\Local\Temp\ccvyANZP.s:7138   .debug_str:0000000000000a62 .LASF6
C:\Users\stapi\AppData\Local\Temp\ccvyANZP.s:7046   .debug_str:00000000000007f8 .LASF7
C:\Users\stapi\AppData\Local\Temp\ccvyANZP.s:7108   .debug_str:00000000000009b8 .LASF8
C:\Users\stapi\AppData\Local\Temp\ccvyANZP.s:7090   .debug_str:000000000000093e .LASF9
C:\Users\stapi\AppData\Local\Temp\ccvyANZP.s:6974   .debug_str:000000000000059d .LASF10
C:\Users\stapi\AppData\Local\Temp\ccvyANZP.s:6868   .debug_str:00000000000002a3 .LASF11
C:\Users\stapi\AppData\Local\Temp\ccvyANZP.s:6808   .debug_str:000000000000011f .LASF12
C:\Users\stapi\AppData\Local\Temp\ccvyANZP.s:6854   .debug_str:0000000000000249 .LASF13
C:\Users\stapi\AppData\Local\Temp\ccvyANZP.s:6958   .debug_str:00000000000004bd .LASF14
C:\Users\stapi\AppData\Local\Temp\ccvyANZP.s:7022   .debug_str:00000000000006ea .LASF15
C:\Users\stapi\AppData\Local\Temp\ccvyANZP.s:6852   .debug_str:0000000000000240 .LASF16
C:\Users\stapi\AppData\Local\Temp\ccvyANZP.s:6938   .debug_str:0000000000000426 .LASF17
C:\Users\stapi\AppData\Local\Temp\ccvyANZP.s:6988   .debug_str:00000000000005f4 .LASF18
C:\Users\stapi\AppData\Local\Temp\ccvyANZP.s:6914   .debug_str:00000000000003ab .LASF19
C:\Users\stapi\AppData\Local\Temp\ccvyANZP.s:6828   .debug_str:000000000000019f .LASF20
C:\Users\stapi\AppData\Local\Temp\ccvyANZP.s:7032   .debug_str:0000000000000798 .LASF21
C:\Users\stapi\AppData\Local\Temp\ccvyANZP.s:7128   .debug_str:0000000000000a25 .LASF22
C:\Users\stapi\AppData\Local\Temp\ccvyANZP.s:7158   .debug_str:0000000000000bcf .LASF23
C:\Users\stapi\AppData\Local\Temp\ccvyANZP.s:7028   .debug_str:0000000000000710 .LASF24
C:\Users\stapi\AppData\Local\Temp\ccvyANZP.s:6926   .debug_str:00000000000003f6 .LASF25
C:\Users\stapi\AppData\Local\Temp\ccvyANZP.s:7142   .debug_str:0000000000000a7e .LASF26
C:\Users\stapi\AppData\Local\Temp\ccvyANZP.s:7068   .debug_str:00000000000008aa .LASF27
C:\Users\stapi\AppData\Local\Temp\ccvyANZP.s:6878   .debug_str:00000000000002f5 .LASF28
C:\Users\stapi\AppData\Local\Temp\ccvyANZP.s:6924   .debug_str:00000000000003e7 .LASF29
C:\Users\stapi\AppData\Local\Temp\ccvyANZP.s:6802   .debug_str:000000000000010a .LASF30
C:\Users\stapi\AppData\Local\Temp\ccvyANZP.s:6846   .debug_str:0000000000000211 .LASF31
C:\Users\stapi\AppData\Local\Temp\ccvyANZP.s:7076   .debug_str:00000000000008e1 .LASF32
C:\Users\stapi\AppData\Local\Temp\ccvyANZP.s:7140   .debug_str:0000000000000a75 .LASF33
C:\Users\stapi\AppData\Local\Temp\ccvyANZP.s:6980   .debug_str:00000000000005c1 .LASF34
C:\Users\stapi\AppData\Local\Temp\ccvyANZP.s:7124   .debug_str:0000000000000a0e .LASF35
C:\Users\stapi\AppData\Local\Temp\ccvyANZP.s:6842   .debug_str:00000000000001f7 .LASF36
C:\Users\stapi\AppData\Local\Temp\ccvyANZP.s:6798   .debug_str:00000000000000eb .LASF37
C:\Users\stapi\AppData\Local\Temp\ccvyANZP.s:6804   .debug_str:0000000000000112 .LASF38
C:\Users\stapi\AppData\Local\Temp\ccvyANZP.s:6816   .debug_str:000000000000015a .LASF39
C:\Users\stapi\AppData\Local\Temp\ccvyANZP.s:6906   .debug_str:0000000000000390 .LASF46
C:\Users\stapi\AppData\Local\Temp\ccvyANZP.s:6810   .debug_str:000000000000012c .LASF40
C:\Users\stapi\AppData\Local\Temp\ccvyANZP.s:6896   .debug_str:0000000000000357 .LASF41
C:\Users\stapi\AppData\Local\Temp\ccvyANZP.s:6892   .debug_str:0000000000000348 .LASF42
C:\Users\stapi\AppData\Local\Temp\ccvyANZP.s:6890   .debug_str:000000000000033a .LASF43
C:\Users\stapi\AppData\Local\Temp\ccvyANZP.s:6794   .debug_str:00000000000000dd .LASF44
C:\Users\stapi\AppData\Local\Temp\ccvyANZP.s:7026   .debug_str:0000000000000709 .LASF45
C:\Users\stapi\AppData\Local\Temp\ccvyANZP.s:7072   .debug_str:00000000000008ce .LASF47
C:\Users\stapi\AppData\Local\Temp\ccvyANZP.s:7116   .debug_str:00000000000009ee .LASF48
C:\Users\stapi\AppData\Local\Temp\ccvyANZP.s:7044   .debug_str:00000000000007ed .LASF49
C:\Users\stapi\AppData\Local\Temp\ccvyANZP.s:6848   .debug_str:000000000000021d .LASF199
C:\Users\stapi\AppData\Local\Temp\ccvyANZP.s:7110   .debug_str:00000000000009c3 .LASF50
C:\Users\stapi\AppData\Local\Temp\ccvyANZP.s:7112   .debug_str:00000000000009d2 .LASF51
C:\Users\stapi\AppData\Local\Temp\ccvyANZP.s:6978   .debug_str:00000000000005b1 .LASF52
C:\Users\stapi\AppData\Local\Temp\ccvyANZP.s:7144   .debug_str:0000000000000a86 .LASF53
C:\Users\stapi\AppData\Local\Temp\ccvyANZP.s:7154   .debug_str:0000000000000bad .LASF54
C:\Users\stapi\AppData\Local\Temp\ccvyANZP.s:6954   .debug_str:0000000000000499 .LASF55
C:\Users\stapi\AppData\Local\Temp\ccvyANZP.s:6918   .debug_str:00000000000003bc .LASF56
C:\Users\stapi\AppData\Local\Temp\ccvyANZP.s:7120   .debug_str:0000000000000a00 .LASF57
C:\Users\stapi\AppData\Local\Temp\ccvyANZP.s:6932   .debug_str:0000000000000410 .LASF58
C:\Users\stapi\AppData\Local\Temp\ccvyANZP.s:6902   .debug_str:0000000000000380 .LASF59
C:\Users\stapi\AppData\Local\Temp\ccvyANZP.s:7130   .debug_str:0000000000000a2c .LASF60
C:\Users\stapi\AppData\Local\Temp\ccvyANZP.s:6858   .debug_str:000000000000025e .LASF61
C:\Users\stapi\AppData\Local\Temp\ccvyANZP.s:6936   .debug_str:0000000000000421 .LASF62
C:\Users\stapi\AppData\Local\Temp\ccvyANZP.s:7086   .debug_str:0000000000000924 .LASF63
C:\Users\stapi\AppData\Local\Temp\ccvyANZP.s:7136   .debug_str:0000000000000a4f .LASF64
C:\Users\stapi\AppData\Local\Temp\ccvyANZP.s:7164   .debug_str:0000000000000bf3 .LASF65
C:\Users\stapi\AppData\Local\Temp\ccvyANZP.s:7004   .debug_str:000000000000065a .LASF66
C:\Users\stapi\AppData\Local\Temp\ccvyANZP.s:6774   .debug_str:0000000000000050 .LASF67
C:\Users\stapi\AppData\Local\Temp\ccvyANZP.s:7054   .debug_str:0000000000000833 .LASF68
C:\Users\stapi\AppData\Local\Temp\ccvyANZP.s:6998   .debug_str:000000000000063c .LASF69
C:\Users\stapi\AppData\Local\Temp\ccvyANZP.s:6766   .debug_str:000000000000001f .LASF70
C:\Users\stapi\AppData\Local\Temp\ccvyANZP.s:6964   .debug_str:000000000000055d .LASF71
C:\Users\stapi\AppData\Local\Temp\ccvyANZP.s:6910   .debug_str:000000000000039d .LASF72
C:\Users\stapi\AppData\Local\Temp\ccvyANZP.s:6806   .debug_str:000000000000011a .LASF73
C:\Users\stapi\AppData\Local\Temp\ccvyANZP.s:7040   .debug_str:00000000000007d0 .LASF74
C:\Users\stapi\AppData\Local\Temp\ccvyANZP.s:6912   .debug_str:00000000000003a4 .LASF75
C:\Users\stapi\AppData\Local\Temp\ccvyANZP.s:6888   .debug_str:0000000000000334 .LASF76
C:\Users\stapi\AppData\Local\Temp\ccvyANZP.s:6946   .debug_str:0000000000000469 .LASF77
C:\Users\stapi\AppData\Local\Temp\ccvyANZP.s:6874   .debug_str:00000000000002d1 .LASF78
C:\Users\stapi\AppData\Local\Temp\ccvyANZP.s:6976   .debug_str:00000000000005ab .LASF79
C:\Users\stapi\AppData\Local\Temp\ccvyANZP.s:6782   .debug_str:0000000000000090 .LASF80
C:\Users\stapi\AppData\Local\Temp\ccvyANZP.s:6834   .debug_str:00000000000001c8 .LASF81
C:\Users\stapi\AppData\Local\Temp\ccvyANZP.s:7162   .debug_str:0000000000000be7 .LASF82
C:\Users\stapi\AppData\Local\Temp\ccvyANZP.s:6856   .debug_str:0000000000000250 .LASF83
C:\Users\stapi\AppData\Local\Temp\ccvyANZP.s:7104   .debug_str:000000000000099d .LASF84
C:\Users\stapi\AppData\Local\Temp\ccvyANZP.s:7100   .debug_str:0000000000000981 .LASF85
C:\Users\stapi\AppData\Local\Temp\ccvyANZP.s:6836   .debug_str:00000000000001cf .LASF86
C:\Users\stapi\AppData\Local\Temp\ccvyANZP.s:6826   .debug_str:0000000000000197 .LASF87
C:\Users\stapi\AppData\Local\Temp\ccvyANZP.s:6866   .debug_str:000000000000029a .LASF88
C:\Users\stapi\AppData\Local\Temp\ccvyANZP.s:6904   .debug_str:000000000000038a .LASF89
C:\Users\stapi\AppData\Local\Temp\ccvyANZP.s:7122   .debug_str:0000000000000a06 .LASF90
C:\Users\stapi\AppData\Local\Temp\ccvyANZP.s:6788   .debug_str:00000000000000ae .LASF91
C:\Users\stapi\AppData\Local\Temp\ccvyANZP.s:7034   .debug_str:000000000000079e .LASF92
C:\Users\stapi\AppData\Local\Temp\ccvyANZP.s:6790   .debug_str:00000000000000c0 .LASF93
C:\Users\stapi\AppData\Local\Temp\ccvyANZP.s:6984   .debug_str:00000000000005d5 .LASF94
C:\Users\stapi\AppData\Local\Temp\ccvyANZP.s:6994   .debug_str:0000000000000625 .LASF95
C:\Users\stapi\AppData\Local\Temp\ccvyANZP.s:6882   .debug_str:0000000000000307 .LASF96
C:\Users\stapi\AppData\Local\Temp\ccvyANZP.s:6838   .debug_str:00000000000001d7 .LASF97
C:\Users\stapi\AppData\Local\Temp\ccvyANZP.s:7064   .debug_str:0000000000000884 .LASF98
C:\Users\stapi\AppData\Local\Temp\ccvyANZP.s:6780   .debug_str:0000000000000081 .LASF99
C:\Users\stapi\AppData\Local\Temp\ccvyANZP.s:7048   .debug_str:0000000000000801 .LASF100
C:\Users\stapi\AppData\Local\Temp\ccvyANZP.s:7050   .debug_str:0000000000000810 .LASF101
C:\Users\stapi\AppData\Local\Temp\ccvyANZP.s:6776   .debug_str:000000000000005e .LASF102
C:\Users\stapi\AppData\Local\Temp\ccvyANZP.s:7160   .debug_str:0000000000000bd7 .LASF103
C:\Users\stapi\AppData\Local\Temp\ccvyANZP.s:7102   .debug_str:0000000000000990 .LASF104
C:\Users\stapi\AppData\Local\Temp\ccvyANZP.s:6822   .debug_str:0000000000000171 .LASF105
C:\Users\stapi\AppData\Local\Temp\ccvyANZP.s:7006   .debug_str:0000000000000668 .LASF106
C:\Users\stapi\AppData\Local\Temp\ccvyANZP.s:7094   .debug_str:000000000000095b .LASF107
C:\Users\stapi\AppData\Local\Temp\ccvyANZP.s:7024   .debug_str:00000000000006f3 .LASF108
C:\Users\stapi\AppData\Local\Temp\ccvyANZP.s:6944   .debug_str:0000000000000451 .LASF109
C:\Users\stapi\AppData\Local\Temp\ccvyANZP.s:6850   .debug_str:000000000000022f .LASF110
C:\Users\stapi\AppData\Local\Temp\ccvyANZP.s:7152   .debug_str:0000000000000b9c .LASF111
C:\Users\stapi\AppData\Local\Temp\ccvyANZP.s:6960   .debug_str:00000000000004c5 .LASF112
C:\Users\stapi\AppData\Local\Temp\ccvyANZP.s:6952   .debug_str:0000000000000489 .LASF113
C:\Users\stapi\AppData\Local\Temp\ccvyANZP.s:6786   .debug_str:000000000000009c .LASF114
C:\Users\stapi\AppData\Local\Temp\ccvyANZP.s:7088   .debug_str:0000000000000931 .LASF115
C:\Users\stapi\AppData\Local\Temp\ccvyANZP.s:7060   .debug_str:0000000000000860 .LASF116
C:\Users\stapi\AppData\Local\Temp\ccvyANZP.s:6986   .debug_str:00000000000005e7 .LASF117
C:\Users\stapi\AppData\Local\Temp\ccvyANZP.s:6778   .debug_str:000000000000006d .LASF118
C:\Users\stapi\AppData\Local\Temp\ccvyANZP.s:7114   .debug_str:00000000000009e1 .LASF119
C:\Users\stapi\AppData\Local\Temp\ccvyANZP.s:7012   .debug_str:00000000000006a1 .LASF120
C:\Users\stapi\AppData\Local\Temp\ccvyANZP.s:7008   .debug_str:000000000000067d .LASF121
C:\Users\stapi\AppData\Local\Temp\ccvyANZP.s:7082   .debug_str:0000000000000904 .LASF122
C:\Users\stapi\AppData\Local\Temp\ccvyANZP.s:6972   .debug_str:0000000000000591 .LASF123
C:\Users\stapi\AppData\Local\Temp\ccvyANZP.s:6920   .debug_str:00000000000003c7 .LASF124
C:\Users\stapi\AppData\Local\Temp\ccvyANZP.s:6864   .debug_str:0000000000000287 .LASF125
C:\Users\stapi\AppData\Local\Temp\ccvyANZP.s:6884   .debug_str:0000000000000315 .LASF126
C:\Users\stapi\AppData\Local\Temp\ccvyANZP.s:6860   .debug_str:0000000000000263 .LASF127
C:\Users\stapi\AppData\Local\Temp\ccvyANZP.s:7052   .debug_str:0000000000000822 .LASF128
C:\Users\stapi\AppData\Local\Temp\ccvyANZP.s:7148   .debug_str:0000000000000b89 .LASF129
C:\Users\stapi\AppData\Local\Temp\ccvyANZP.s:6934   .debug_str:0000000000000417 .LASF130
C:\Users\stapi\AppData\Local\Temp\ccvyANZP.s:6840   .debug_str:00000000000001e8 .LASF131
C:\Users\stapi\AppData\Local\Temp\ccvyANZP.s:6928   .debug_str:0000000000000402 .LASF132
C:\Users\stapi\AppData\Local\Temp\ccvyANZP.s:6942   .debug_str:000000000000043a .LASF135
C:\Users\stapi\AppData\Local\Temp\ccvyANZP.s:1512   .text.altcp_default_get_port:0000000000000000 .LFB50
C:\Users\stapi\AppData\Local\Temp\ccvyANZP.s:1540   .text.altcp_default_get_port:0000000000000018 .LFE50
C:\Users\stapi\AppData\Local\Temp\ccvyANZP.s:6784   .debug_str:0000000000000097 .LASF133
C:\Users\stapi\AppData\Local\Temp\ccvyANZP.s:4973   .debug_loc:0000000000000000 .LLST75
C:\Users\stapi\AppData\Local\Temp\ccvyANZP.s:6818   .debug_str:0000000000000160 .LASF134
C:\Users\stapi\AppData\Local\Temp\ccvyANZP.s:4998   .debug_loc:000000000000003a .LLST76
C:\Users\stapi\AppData\Local\Temp\ccvyANZP.s:1530   .text.altcp_default_get_port:0000000000000012 .LVL139
C:\Users\stapi\AppData\Local\Temp\ccvyANZP.s:7070   .debug_str:00000000000008b9 .LASF136
C:\Users\stapi\AppData\Local\Temp\ccvyANZP.s:1485   .text.altcp_default_get_ip:0000000000000000 .LFB49
C:\Users\stapi\AppData\Local\Temp\ccvyANZP.s:1505   .text.altcp_default_get_ip:0000000000000010 .LFE49
C:\Users\stapi\AppData\Local\Temp\ccvyANZP.s:5016   .debug_loc:0000000000000066 .LLST73
C:\Users\stapi\AppData\Local\Temp\ccvyANZP.s:5030   .debug_loc:0000000000000087 .LLST74
C:\Users\stapi\AppData\Local\Temp\ccvyANZP.s:1500   .text.altcp_default_get_ip:000000000000000e .LVL136
C:\Users\stapi\AppData\Local\Temp\ccvyANZP.s:6764   .debug_str:0000000000000000 .LASF137
C:\Users\stapi\AppData\Local\Temp\ccvyANZP.s:1450   .text.altcp_default_get_tcp_addrinfo:0000000000000000 .LFB48
C:\Users\stapi\AppData\Local\Temp\ccvyANZP.s:1478   .text.altcp_default_get_tcp_addrinfo:0000000000000018 .LFE48
C:\Users\stapi\AppData\Local\Temp\ccvyANZP.s:5048   .debug_loc:00000000000000b3 .LLST69
C:\Users\stapi\AppData\Local\Temp\ccvyANZP.s:5073   .debug_loc:00000000000000ed .LLST70
C:\Users\stapi\AppData\Local\Temp\ccvyANZP.s:5091   .debug_loc:0000000000000119 .LLST71
C:\Users\stapi\AppData\Local\Temp\ccvyANZP.s:7096   .debug_str:0000000000000972 .LASF138
C:\Users\stapi\AppData\Local\Temp\ccvyANZP.s:5109   .debug_loc:0000000000000145 .LLST72
C:\Users\stapi\AppData\Local\Temp\ccvyANZP.s:1468   .text.altcp_default_get_tcp_addrinfo:0000000000000012 .LVL132
C:\Users\stapi\AppData\Local\Temp\ccvyANZP.s:6800   .debug_str:00000000000000f4 .LASF139
C:\Users\stapi\AppData\Local\Temp\ccvyANZP.s:1435   .text.altcp_default_dealloc:0000000000000000 .LFB47
C:\Users\stapi\AppData\Local\Temp\ccvyANZP.s:1443   .text.altcp_default_dealloc:0000000000000002 .LFE47
C:\Users\stapi\AppData\Local\Temp\ccvyANZP.s:6824   .debug_str:0000000000000181 .LASF140
C:\Users\stapi\AppData\Local\Temp\ccvyANZP.s:1410   .text.altcp_default_setprio:0000000000000000 .LFB46
C:\Users\stapi\AppData\Local\Temp\ccvyANZP.s:1428   .text.altcp_default_setprio:0000000000000010 .LFE46
C:\Users\stapi\AppData\Local\Temp\ccvyANZP.s:5127   .debug_loc:0000000000000171 .LLST67
C:\Users\stapi\AppData\Local\Temp\ccvyANZP.s:6930   .debug_str:000000000000040b .LASF141
C:\Users\stapi\AppData\Local\Temp\ccvyANZP.s:5141   .debug_loc:0000000000000192 .LLST68
C:\Users\stapi\AppData\Local\Temp\ccvyANZP.s:1424   .text.altcp_default_setprio:000000000000000e .LVL128
C:\Users\stapi\AppData\Local\Temp\ccvyANZP.s:7020   .debug_str:00000000000006cd .LASF142
C:\Users\stapi\AppData\Local\Temp\ccvyANZP.s:1375   .text.altcp_default_nagle_disabled:0000000000000000 .LFB45
C:\Users\stapi\AppData\Local\Temp\ccvyANZP.s:1403   .text.altcp_default_nagle_disabled:0000000000000018 .LFE45
C:\Users\stapi\AppData\Local\Temp\ccvyANZP.s:5159   .debug_loc:00000000000001be .LLST66
C:\Users\stapi\AppData\Local\Temp\ccvyANZP.s:1393   .text.altcp_default_nagle_disabled:0000000000000012 .LVL124
C:\Users\stapi\AppData\Local\Temp\ccvyANZP.s:6876   .debug_str:00000000000002da .LASF143
C:\Users\stapi\AppData\Local\Temp\ccvyANZP.s:1350   .text.altcp_default_nagle_enable:0000000000000000 .LFB44
C:\Users\stapi\AppData\Local\Temp\ccvyANZP.s:1368   .text.altcp_default_nagle_enable:0000000000000010 .LFE44
C:\Users\stapi\AppData\Local\Temp\ccvyANZP.s:5184   .debug_loc:00000000000001f8 .LLST65
C:\Users\stapi\AppData\Local\Temp\ccvyANZP.s:1364   .text.altcp_default_nagle_enable:000000000000000e .LVL121
C:\Users\stapi\AppData\Local\Temp\ccvyANZP.s:6814   .debug_str:000000000000013e .LASF144
C:\Users\stapi\AppData\Local\Temp\ccvyANZP.s:1325   .text.altcp_default_nagle_disable:0000000000000000 .LFB43
C:\Users\stapi\AppData\Local\Temp\ccvyANZP.s:1343   .text.altcp_default_nagle_disable:0000000000000010 .LFE43
C:\Users\stapi\AppData\Local\Temp\ccvyANZP.s:5198   .debug_loc:0000000000000219 .LLST64
C:\Users\stapi\AppData\Local\Temp\ccvyANZP.s:1339   .text.altcp_default_nagle_disable:000000000000000e .LVL118
C:\Users\stapi\AppData\Local\Temp\ccvyANZP.s:6956   .debug_str:00000000000004a3 .LASF145
C:\Users\stapi\AppData\Local\Temp\ccvyANZP.s:1290   .text.altcp_default_sndqueuelen:0000000000000000 .LFB42
C:\Users\stapi\AppData\Local\Temp\ccvyANZP.s:1318   .text.altcp_default_sndqueuelen:0000000000000018 .LFE42
C:\Users\stapi\AppData\Local\Temp\ccvyANZP.s:5212   .debug_loc:000000000000023a .LLST63
C:\Users\stapi\AppData\Local\Temp\ccvyANZP.s:1308   .text.altcp_default_sndqueuelen:0000000000000012 .LVL114
C:\Users\stapi\AppData\Local\Temp\ccvyANZP.s:7042   .debug_str:00000000000007d8 .LASF146
C:\Users\stapi\AppData\Local\Temp\ccvyANZP.s:1255   .text.altcp_default_sndbuf:0000000000000000 .LFB41
C:\Users\stapi\AppData\Local\Temp\ccvyANZP.s:1283   .text.altcp_default_sndbuf:0000000000000018 .LFE41
C:\Users\stapi\AppData\Local\Temp\ccvyANZP.s:5237   .debug_loc:0000000000000274 .LLST62
C:\Users\stapi\AppData\Local\Temp\ccvyANZP.s:1273   .text.altcp_default_sndbuf:0000000000000012 .LVL110
C:\Users\stapi\AppData\Local\Temp\ccvyANZP.s:7134   .debug_str:0000000000000a3d .LASF147
C:\Users\stapi\AppData\Local\Temp\ccvyANZP.s:1220   .text.altcp_default_mss:0000000000000000 .LFB40
C:\Users\stapi\AppData\Local\Temp\ccvyANZP.s:1248   .text.altcp_default_mss:0000000000000018 .LFE40
C:\Users\stapi\AppData\Local\Temp\ccvyANZP.s:5262   .debug_loc:00000000000002ae .LLST61
C:\Users\stapi\AppData\Local\Temp\ccvyANZP.s:1238   .text.altcp_default_mss:0000000000000012 .LVL106
C:\Users\stapi\AppData\Local\Temp\ccvyANZP.s:7010   .debug_str:000000000000068c .LASF148
C:\Users\stapi\AppData\Local\Temp\ccvyANZP.s:1185   .text.altcp_default_output:0000000000000000 .LFB39
C:\Users\stapi\AppData\Local\Temp\ccvyANZP.s:1213   .text.altcp_default_output:0000000000000018 .LFE39
C:\Users\stapi\AppData\Local\Temp\ccvyANZP.s:5287   .debug_loc:00000000000002e8 .LLST60
C:\Users\stapi\AppData\Local\Temp\ccvyANZP.s:1203   .text.altcp_default_output:0000000000000012 .LVL102
C:\Users\stapi\AppData\Local\Temp\ccvyANZP.s:6832   .debug_str:00000000000001b4 .LASF149
C:\Users\stapi\AppData\Local\Temp\ccvyANZP.s:1150   .text.altcp_default_write:0000000000000000 .LFB38
C:\Users\stapi\AppData\Local\Temp\ccvyANZP.s:1178   .text.altcp_default_write:0000000000000018 .LFE38
C:\Users\stapi\AppData\Local\Temp\ccvyANZP.s:5312   .debug_loc:0000000000000322 .LLST56
C:\Users\stapi\AppData\Local\Temp\ccvyANZP.s:7016   .debug_str:00000000000006b9 .LASF150
C:\Users\stapi\AppData\Local\Temp\ccvyANZP.s:5337   .debug_loc:000000000000035c .LLST57
C:\Users\stapi\AppData\Local\Temp\ccvyANZP.s:5355   .debug_loc:0000000000000388 .LLST58
C:\Users\stapi\AppData\Local\Temp\ccvyANZP.s:7002   .debug_str:0000000000000651 .LASF151
C:\Users\stapi\AppData\Local\Temp\ccvyANZP.s:5373   .debug_loc:00000000000003b4 .LLST59
C:\Users\stapi\AppData\Local\Temp\ccvyANZP.s:1168   .text.altcp_default_write:0000000000000012 .LVL98
C:\Users\stapi\AppData\Local\Temp\ccvyANZP.s:6990   .debug_str:00000000000005f9 .LASF152
C:\Users\stapi\AppData\Local\Temp\ccvyANZP.s:1081   .text.altcp_default_shutdown:0000000000000000 .LFB37
C:\Users\stapi\AppData\Local\Temp\ccvyANZP.s:1143   .text.altcp_default_shutdown:0000000000000038 .LFE37
C:\Users\stapi\AppData\Local\Temp\ccvyANZP.s:5391   .debug_loc:00000000000003e0 .LLST53
C:\Users\stapi\AppData\Local\Temp\ccvyANZP.s:7150   .debug_str:0000000000000b94 .LASF153
C:\Users\stapi\AppData\Local\Temp\ccvyANZP.s:5427   .debug_loc:0000000000000433 .LLST54
C:\Users\stapi\AppData\Local\Temp\ccvyANZP.s:7000   .debug_str:0000000000000649 .LASF154
C:\Users\stapi\AppData\Local\Temp\ccvyANZP.s:5456   .debug_loc:0000000000000478 .LLST55
C:\Users\stapi\AppData\Local\Temp\ccvyANZP.s:1109   .text.altcp_default_shutdown:000000000000001a .LVL90
C:\Users\stapi\AppData\Local\Temp\ccvyANZP.s:1131   .text.altcp_default_shutdown:0000000000000032 .LVL93
C:\Users\stapi\AppData\Local\Temp\ccvyANZP.s:7058   .debug_str:000000000000084d .LASF155
C:\Users\stapi\AppData\Local\Temp\ccvyANZP.s:1046   .text.altcp_default_bind:0000000000000000 .LFB36
C:\Users\stapi\AppData\Local\Temp\ccvyANZP.s:1074   .text.altcp_default_bind:0000000000000018 .LFE36
C:\Users\stapi\AppData\Local\Temp\ccvyANZP.s:5485   .debug_loc:00000000000004bd .LLST50
C:\Users\stapi\AppData\Local\Temp\ccvyANZP.s:6894   .debug_str:0000000000000350 .LASF156
C:\Users\stapi\AppData\Local\Temp\ccvyANZP.s:5510   .debug_loc:00000000000004f7 .LLST51
C:\Users\stapi\AppData\Local\Temp\ccvyANZP.s:5528   .debug_loc:0000000000000523 .LLST52
C:\Users\stapi\AppData\Local\Temp\ccvyANZP.s:1064   .text.altcp_default_bind:0000000000000012 .LVL87
C:\Users\stapi\AppData\Local\Temp\ccvyANZP.s:6966   .debug_str:0000000000000566 .LASF157
C:\Users\stapi\AppData\Local\Temp\ccvyANZP.s:1021   .text.altcp_default_recved:0000000000000000 .LFB35
C:\Users\stapi\AppData\Local\Temp\ccvyANZP.s:1039   .text.altcp_default_recved:0000000000000010 .LFE35
C:\Users\stapi\AppData\Local\Temp\ccvyANZP.s:5546   .debug_loc:000000000000054f .LLST48
C:\Users\stapi\AppData\Local\Temp\ccvyANZP.s:5560   .debug_loc:0000000000000570 .LLST49
C:\Users\stapi\AppData\Local\Temp\ccvyANZP.s:1035   .text.altcp_default_recved:000000000000000e .LVL84
C:\Users\stapi\AppData\Local\Temp\ccvyANZP.s:7062   .debug_str:000000000000086d .LASF158
C:\Users\stapi\AppData\Local\Temp\ccvyANZP.s:992    .text.altcp_default_set_poll:0000000000000000 .LFB34
C:\Users\stapi\AppData\Local\Temp\ccvyANZP.s:1014   .text.altcp_default_set_poll:0000000000000016 .LFE34
C:\Users\stapi\AppData\Local\Temp\ccvyANZP.s:5578   .debug_loc:000000000000059c .LLST46
C:\Users\stapi\AppData\Local\Temp\ccvyANZP.s:6770   .debug_str:000000000000003d .LASF159
C:\Users\stapi\AppData\Local\Temp\ccvyANZP.s:5596   .debug_loc:00000000000005c8 .LLST47
C:\Users\stapi\AppData\Local\Temp\ccvyANZP.s:1010   .text.altcp_default_set_poll:0000000000000014 .LVL81
C:\Users\stapi\AppData\Local\Temp\ccvyANZP.s:6940   .debug_str:000000000000042b .LASF160
C:\Users\stapi\AppData\Local\Temp\ccvyANZP.s:955    .text.altcp_get_port:0000000000000000 .LFB33
C:\Users\stapi\AppData\Local\Temp\ccvyANZP.s:985    .text.altcp_get_port:0000000000000014 .LFE33
C:\Users\stapi\AppData\Local\Temp\ccvyANZP.s:5614   .debug_loc:00000000000005f4 .LLST44
C:\Users\stapi\AppData\Local\Temp\ccvyANZP.s:5639   .debug_loc:000000000000062e .LLST45
C:\Users\stapi\AppData\Local\Temp\ccvyANZP.s:975    .text.altcp_get_port:000000000000000e .LVL76
C:\Users\stapi\AppData\Local\Temp\ccvyANZP.s:7078   .debug_str:00000000000008ec .LASF161
C:\Users\stapi\AppData\Local\Temp\ccvyANZP.s:918    .text.altcp_get_ip:0000000000000000 .LFB32
C:\Users\stapi\AppData\Local\Temp\ccvyANZP.s:948    .text.altcp_get_ip:0000000000000014 .LFE32
C:\Users\stapi\AppData\Local\Temp\ccvyANZP.s:5657   .debug_loc:000000000000065a .LLST42
C:\Users\stapi\AppData\Local\Temp\ccvyANZP.s:5682   .debug_loc:0000000000000694 .LLST43
C:\Users\stapi\AppData\Local\Temp\ccvyANZP.s:938    .text.altcp_get_ip:000000000000000e .LVL73
C:\Users\stapi\AppData\Local\Temp\ccvyANZP.s:6900   .debug_str:0000000000000369 .LASF162
C:\Users\stapi\AppData\Local\Temp\ccvyANZP.s:881    .text.altcp_get_tcp_addrinfo:0000000000000000 .LFB31
C:\Users\stapi\AppData\Local\Temp\ccvyANZP.s:911    .text.altcp_get_tcp_addrinfo:0000000000000014 .LFE31
C:\Users\stapi\AppData\Local\Temp\ccvyANZP.s:5700   .debug_loc:00000000000006c0 .LLST38
C:\Users\stapi\AppData\Local\Temp\ccvyANZP.s:5725   .debug_loc:00000000000006fa .LLST39
C:\Users\stapi\AppData\Local\Temp\ccvyANZP.s:5743   .debug_loc:0000000000000726 .LLST40
C:\Users\stapi\AppData\Local\Temp\ccvyANZP.s:5761   .debug_loc:0000000000000752 .LLST41
C:\Users\stapi\AppData\Local\Temp\ccvyANZP.s:901    .text.altcp_get_tcp_addrinfo:000000000000000e .LVL70
C:\Users\stapi\AppData\Local\Temp\ccvyANZP.s:7126   .debug_str:0000000000000a17 .LASF163
C:\Users\stapi\AppData\Local\Temp\ccvyANZP.s:853    .text.altcp_setprio:0000000000000000 .LFB30
C:\Users\stapi\AppData\Local\Temp\ccvyANZP.s:874    .text.altcp_setprio:000000000000000e .LFE30
C:\Users\stapi\AppData\Local\Temp\ccvyANZP.s:5779   .debug_loc:000000000000077e .LLST36
C:\Users\stapi\AppData\Local\Temp\ccvyANZP.s:5797   .debug_loc:00000000000007aa .LLST37
C:\Users\stapi\AppData\Local\Temp\ccvyANZP.s:870    .text.altcp_setprio:000000000000000c .LVL68
C:\Users\stapi\AppData\Local\Temp\ccvyANZP.s:6992   .debug_str:0000000000000610 .LASF164
C:\Users\stapi\AppData\Local\Temp\ccvyANZP.s:816    .text.altcp_nagle_disabled:0000000000000000 .LFB29
C:\Users\stapi\AppData\Local\Temp\ccvyANZP.s:846    .text.altcp_nagle_disabled:0000000000000014 .LFE29
C:\Users\stapi\AppData\Local\Temp\ccvyANZP.s:5815   .debug_loc:00000000000007d6 .LLST35
C:\Users\stapi\AppData\Local\Temp\ccvyANZP.s:836    .text.altcp_nagle_disabled:000000000000000e .LVL65
C:\Users\stapi\AppData\Local\Temp\ccvyANZP.s:6922   .debug_str:00000000000003d4 .LASF165
C:\Users\stapi\AppData\Local\Temp\ccvyANZP.s:788    .text.altcp_nagle_enable:0000000000000000 .LFB28
C:\Users\stapi\AppData\Local\Temp\ccvyANZP.s:809    .text.altcp_nagle_enable:000000000000000e .LFE28
C:\Users\stapi\AppData\Local\Temp\ccvyANZP.s:5840   .debug_loc:0000000000000810 .LLST34
C:\Users\stapi\AppData\Local\Temp\ccvyANZP.s:805    .text.altcp_nagle_enable:000000000000000c .LVL63
C:\Users\stapi\AppData\Local\Temp\ccvyANZP.s:6862   .debug_str:0000000000000273 .LASF166
C:\Users\stapi\AppData\Local\Temp\ccvyANZP.s:760    .text.altcp_nagle_disable:0000000000000000 .LFB27
C:\Users\stapi\AppData\Local\Temp\ccvyANZP.s:781    .text.altcp_nagle_disable:000000000000000e .LFE27
C:\Users\stapi\AppData\Local\Temp\ccvyANZP.s:5858   .debug_loc:000000000000083c .LLST33
C:\Users\stapi\AppData\Local\Temp\ccvyANZP.s:777    .text.altcp_nagle_disable:000000000000000c .LVL61
C:\Users\stapi\AppData\Local\Temp\ccvyANZP.s:6844   .debug_str:00000000000001ff .LASF167
C:\Users\stapi\AppData\Local\Temp\ccvyANZP.s:723    .text.altcp_sndqueuelen:0000000000000000 .LFB26
C:\Users\stapi\AppData\Local\Temp\ccvyANZP.s:753    .text.altcp_sndqueuelen:0000000000000014 .LFE26
C:\Users\stapi\AppData\Local\Temp\ccvyANZP.s:5876   .debug_loc:0000000000000868 .LLST32
C:\Users\stapi\AppData\Local\Temp\ccvyANZP.s:743    .text.altcp_sndqueuelen:000000000000000e .LVL58
C:\Users\stapi\AppData\Local\Temp\ccvyANZP.s:7056   .debug_str:0000000000000840 .LASF168
C:\Users\stapi\AppData\Local\Temp\ccvyANZP.s:686    .text.altcp_sndbuf:0000000000000000 .LFB25
C:\Users\stapi\AppData\Local\Temp\ccvyANZP.s:716    .text.altcp_sndbuf:0000000000000014 .LFE25
C:\Users\stapi\AppData\Local\Temp\ccvyANZP.s:5901   .debug_loc:00000000000008a2 .LLST31
C:\Users\stapi\AppData\Local\Temp\ccvyANZP.s:706    .text.altcp_sndbuf:000000000000000e .LVL55
C:\Users\stapi\AppData\Local\Temp\ccvyANZP.s:6898   .debug_str:000000000000035f .LASF169
C:\Users\stapi\AppData\Local\Temp\ccvyANZP.s:649    .text.altcp_mss:0000000000000000 .LFB24
C:\Users\stapi\AppData\Local\Temp\ccvyANZP.s:679    .text.altcp_mss:0000000000000014 .LFE24
C:\Users\stapi\AppData\Local\Temp\ccvyANZP.s:5926   .debug_loc:00000000000008dc .LLST30
C:\Users\stapi\AppData\Local\Temp\ccvyANZP.s:669    .text.altcp_mss:000000000000000e .LVL52
C:\Users\stapi\AppData\Local\Temp\ccvyANZP.s:6812   .debug_str:0000000000000131 .LASF170
C:\Users\stapi\AppData\Local\Temp\ccvyANZP.s:612    .text.altcp_output:0000000000000000 .LFB23
C:\Users\stapi\AppData\Local\Temp\ccvyANZP.s:642    .text.altcp_output:0000000000000014 .LFE23
C:\Users\stapi\AppData\Local\Temp\ccvyANZP.s:5951   .debug_loc:0000000000000916 .LLST29
C:\Users\stapi\AppData\Local\Temp\ccvyANZP.s:632    .text.altcp_output:000000000000000e .LVL49
C:\Users\stapi\AppData\Local\Temp\ccvyANZP.s:6948   .debug_str:000000000000046f .LASF171
C:\Users\stapi\AppData\Local\Temp\ccvyANZP.s:575    .text.altcp_write:0000000000000000 .LFB22
C:\Users\stapi\AppData\Local\Temp\ccvyANZP.s:605    .text.altcp_write:0000000000000014 .LFE22
C:\Users\stapi\AppData\Local\Temp\ccvyANZP.s:5976   .debug_loc:0000000000000950 .LLST25
C:\Users\stapi\AppData\Local\Temp\ccvyANZP.s:6001   .debug_loc:000000000000098a .LLST26
C:\Users\stapi\AppData\Local\Temp\ccvyANZP.s:6019   .debug_loc:00000000000009b6 .LLST27
C:\Users\stapi\AppData\Local\Temp\ccvyANZP.s:6037   .debug_loc:00000000000009e2 .LLST28
C:\Users\stapi\AppData\Local\Temp\ccvyANZP.s:595    .text.altcp_write:000000000000000e .LVL46
C:\Users\stapi\AppData\Local\Temp\ccvyANZP.s:6830   .debug_str:00000000000001a5 .LASF172
C:\Users\stapi\AppData\Local\Temp\ccvyANZP.s:538    .text.altcp_shutdown:0000000000000000 .LFB21
C:\Users\stapi\AppData\Local\Temp\ccvyANZP.s:568    .text.altcp_shutdown:0000000000000014 .LFE21
C:\Users\stapi\AppData\Local\Temp\ccvyANZP.s:6055   .debug_loc:0000000000000a0e .LLST22
C:\Users\stapi\AppData\Local\Temp\ccvyANZP.s:6080   .debug_loc:0000000000000a48 .LLST23
C:\Users\stapi\AppData\Local\Temp\ccvyANZP.s:6098   .debug_loc:0000000000000a74 .LLST24
C:\Users\stapi\AppData\Local\Temp\ccvyANZP.s:558    .text.altcp_shutdown:000000000000000e .LVL43
C:\Users\stapi\AppData\Local\Temp\ccvyANZP.s:6916   .debug_str:00000000000003b0 .LASF173
C:\Users\stapi\AppData\Local\Temp\ccvyANZP.s:501    .text.altcp_close:0000000000000000 .LFB20
C:\Users\stapi\AppData\Local\Temp\ccvyANZP.s:531    .text.altcp_close:0000000000000014 .LFE20
C:\Users\stapi\AppData\Local\Temp\ccvyANZP.s:6116   .debug_loc:0000000000000aa0 .LLST21
C:\Users\stapi\AppData\Local\Temp\ccvyANZP.s:521    .text.altcp_close:000000000000000e .LVL40
C:\Users\stapi\AppData\Local\Temp\ccvyANZP.s:6870   .debug_str:00000000000002ba .LASF174
C:\Users\stapi\AppData\Local\Temp\ccvyANZP.s:473    .text.altcp_abort:0000000000000000 .LFB19
C:\Users\stapi\AppData\Local\Temp\ccvyANZP.s:494    .text.altcp_abort:000000000000000e .LFE19
C:\Users\stapi\AppData\Local\Temp\ccvyANZP.s:6141   .debug_loc:0000000000000ada .LLST20
C:\Users\stapi\AppData\Local\Temp\ccvyANZP.s:490    .text.altcp_abort:000000000000000c .LVL38
C:\Users\stapi\AppData\Local\Temp\ccvyANZP.s:7038   .debug_str:00000000000007ae .LASF175
C:\Users\stapi\AppData\Local\Temp\ccvyANZP.s:436    .text.altcp_listen_with_backlog_and_err:0000000000000000 .LFB18
C:\Users\stapi\AppData\Local\Temp\ccvyANZP.s:466    .text.altcp_listen_with_backlog_and_err:0000000000000014 .LFE18
C:\Users\stapi\AppData\Local\Temp\ccvyANZP.s:6159   .debug_loc:0000000000000b06 .LLST17
C:\Users\stapi\AppData\Local\Temp\ccvyANZP.s:6908   .debug_str:0000000000000395 .LASF176
C:\Users\stapi\AppData\Local\Temp\ccvyANZP.s:6184   .debug_loc:0000000000000b40 .LLST18
C:\Users\stapi\AppData\Local\Temp\ccvyANZP.s:6202   .debug_loc:0000000000000b6c .LLST19
C:\Users\stapi\AppData\Local\Temp\ccvyANZP.s:456    .text.altcp_listen_with_backlog_and_err:000000000000000e .LVL35
C:\Users\stapi\AppData\Local\Temp\ccvyANZP.s:6950   .debug_str:000000000000047b .LASF177
C:\Users\stapi\AppData\Local\Temp\ccvyANZP.s:399    .text.altcp_connect:0000000000000000 .LFB17
C:\Users\stapi\AppData\Local\Temp\ccvyANZP.s:429    .text.altcp_connect:0000000000000014 .LFE17
C:\Users\stapi\AppData\Local\Temp\ccvyANZP.s:6220   .debug_loc:0000000000000b98 .LLST13
C:\Users\stapi\AppData\Local\Temp\ccvyANZP.s:6245   .debug_loc:0000000000000bd2 .LLST14
C:\Users\stapi\AppData\Local\Temp\ccvyANZP.s:6263   .debug_loc:0000000000000bfe .LLST15
C:\Users\stapi\AppData\Local\Temp\ccvyANZP.s:6281   .debug_loc:0000000000000c2a .LLST16
C:\Users\stapi\AppData\Local\Temp\ccvyANZP.s:419    .text.altcp_connect:000000000000000e .LVL32
C:\Users\stapi\AppData\Local\Temp\ccvyANZP.s:7080   .debug_str:00000000000008f9 .LASF178
C:\Users\stapi\AppData\Local\Temp\ccvyANZP.s:362    .text.altcp_bind:0000000000000000 .LFB16
C:\Users\stapi\AppData\Local\Temp\ccvyANZP.s:392    .text.altcp_bind:0000000000000014 .LFE16
C:\Users\stapi\AppData\Local\Temp\ccvyANZP.s:6299   .debug_loc:0000000000000c56 .LLST10
C:\Users\stapi\AppData\Local\Temp\ccvyANZP.s:6324   .debug_loc:0000000000000c90 .LLST11
C:\Users\stapi\AppData\Local\Temp\ccvyANZP.s:6342   .debug_loc:0000000000000cbc .LLST12
C:\Users\stapi\AppData\Local\Temp\ccvyANZP.s:382    .text.altcp_bind:000000000000000e .LVL29
C:\Users\stapi\AppData\Local\Temp\ccvyANZP.s:6982   .debug_str:00000000000005c8 .LASF179
C:\Users\stapi\AppData\Local\Temp\ccvyANZP.s:334    .text.altcp_recved:0000000000000000 .LFB15
C:\Users\stapi\AppData\Local\Temp\ccvyANZP.s:355    .text.altcp_recved:000000000000000e .LFE15
C:\Users\stapi\AppData\Local\Temp\ccvyANZP.s:6360   .debug_loc:0000000000000ce8 .LLST8
C:\Users\stapi\AppData\Local\Temp\ccvyANZP.s:6378   .debug_loc:0000000000000d14 .LLST9
C:\Users\stapi\AppData\Local\Temp\ccvyANZP.s:351    .text.altcp_recved:000000000000000c .LVL27
C:\Users\stapi\AppData\Local\Temp\ccvyANZP.s:6880   .debug_str:00000000000002fd .LASF180
C:\Users\stapi\AppData\Local\Temp\ccvyANZP.s:313    .text.altcp_err:0000000000000000 .LFB14
C:\Users\stapi\AppData\Local\Temp\ccvyANZP.s:327    .text.altcp_err:0000000000000006 .LFE14
C:\Users\stapi\AppData\Local\Temp\ccvyANZP.s:6820   .debug_str:0000000000000166 .LASF181
C:\Users\stapi\AppData\Local\Temp\ccvyANZP.s:275    .text.altcp_poll:0000000000000000 .LFB13
C:\Users\stapi\AppData\Local\Temp\ccvyANZP.s:306    .text.altcp_poll:0000000000000018 .LFE13
C:\Users\stapi\AppData\Local\Temp\ccvyANZP.s:6396   .debug_loc:0000000000000d40 .LLST5
C:\Users\stapi\AppData\Local\Temp\ccvyANZP.s:6414   .debug_loc:0000000000000d6c .LLST6
C:\Users\stapi\AppData\Local\Temp\ccvyANZP.s:6432   .debug_loc:0000000000000d98 .LLST7
C:\Users\stapi\AppData\Local\Temp\ccvyANZP.s:302    .text.altcp_poll:0000000000000016 .LVL24
C:\Users\stapi\AppData\Local\Temp\ccvyANZP.s:7166   .debug_str:0000000000000c01 .LASF182
C:\Users\stapi\AppData\Local\Temp\ccvyANZP.s:254    .text.altcp_sent:0000000000000000 .LFB12
C:\Users\stapi\AppData\Local\Temp\ccvyANZP.s:268    .text.altcp_sent:0000000000000006 .LFE12
C:\Users\stapi\AppData\Local\Temp\ccvyANZP.s:7092   .debug_str:0000000000000950 .LASF183
C:\Users\stapi\AppData\Local\Temp\ccvyANZP.s:233    .text.altcp_recv:0000000000000000 .LFB11
C:\Users\stapi\AppData\Local\Temp\ccvyANZP.s:247    .text.altcp_recv:0000000000000006 .LFE11
C:\Users\stapi\AppData\Local\Temp\ccvyANZP.s:7118   .debug_str:00000000000009f3 .LASF184
C:\Users\stapi\AppData\Local\Temp\ccvyANZP.s:212    .text.altcp_accept:0000000000000000 .LFB10
C:\Users\stapi\AppData\Local\Temp\ccvyANZP.s:226    .text.altcp_accept:0000000000000006 .LFE10
C:\Users\stapi\AppData\Local\Temp\ccvyANZP.s:6968   .debug_str:000000000000057b .LASF185
C:\Users\stapi\AppData\Local\Temp\ccvyANZP.s:191    .text.altcp_arg:0000000000000000 .LFB9
C:\Users\stapi\AppData\Local\Temp\ccvyANZP.s:205    .text.altcp_arg:0000000000000006 .LFE9
C:\Users\stapi\AppData\Local\Temp\ccvyANZP.s:7156   .debug_str:0000000000000bbd .LASF186
C:\Users\stapi\AppData\Local\Temp\ccvyANZP.s:106    .text.altcp_new_ip_type:0000000000000000 .LFB8
C:\Users\stapi\AppData\Local\Temp\ccvyANZP.s:150    .text.altcp_new_ip_type:000000000000002a .LFE8
C:\Users\stapi\AppData\Local\Temp\ccvyANZP.s:6772   .debug_str:0000000000000046 .LASF187
C:\Users\stapi\AppData\Local\Temp\ccvyANZP.s:6450   .debug_loc:0000000000000dc4 .LLST1
C:\Users\stapi\AppData\Local\Temp\ccvyANZP.s:6796   .debug_str:00000000000000e3 .LASF188
C:\Users\stapi\AppData\Local\Temp\ccvyANZP.s:6483   .debug_loc:0000000000000e14 .LLST2
C:\Users\stapi\AppData\Local\Temp\ccvyANZP.s:124    .text.altcp_new_ip_type:0000000000000016 .LVL10
C:\Users\stapi\AppData\Local\Temp\ccvyANZP.s:7098   .debug_str:0000000000000977 .LASF189
C:\Users\stapi\AppData\Local\Temp\ccvyANZP.s:174    .text.altcp_new:0000000000000000 .LFB7
C:\Users\stapi\AppData\Local\Temp\ccvyANZP.s:184    .text.altcp_new:000000000000000a .LFE7
C:\Users\stapi\AppData\Local\Temp\ccvyANZP.s:6508   .debug_loc:0000000000000e4e .LLST4
C:\Users\stapi\AppData\Local\Temp\ccvyANZP.s:182    .text.altcp_new:000000000000000a .LVL17
C:\Users\stapi\AppData\Local\Temp\ccvyANZP.s:6768   .debug_str:000000000000002f .LASF190
C:\Users\stapi\AppData\Local\Temp\ccvyANZP.s:157    .text.altcp_new_ip6:0000000000000000 .LFB6
C:\Users\stapi\AppData\Local\Temp\ccvyANZP.s:167    .text.altcp_new_ip6:000000000000000a .LFE6
C:\Users\stapi\AppData\Local\Temp\ccvyANZP.s:6522   .debug_loc:0000000000000e6f .LLST3
C:\Users\stapi\AppData\Local\Temp\ccvyANZP.s:165    .text.altcp_new_ip6:000000000000000a .LVL15
C:\Users\stapi\AppData\Local\Temp\ccvyANZP.s:6792   .debug_str:00000000000000d2 .LASF191
C:\Users\stapi\AppData\Local\Temp\ccvyANZP.s:53     .text.altcp_free:0000000000000000 .LFB5
C:\Users\stapi\AppData\Local\Temp\ccvyANZP.s:99     .text.altcp_free:0000000000000032 .LFE5
C:\Users\stapi\AppData\Local\Temp\ccvyANZP.s:6536   .debug_loc:0000000000000e90 .LLST0
C:\Users\stapi\AppData\Local\Temp\ccvyANZP.s:80     .text.altcp_free:000000000000001a .LVL4
C:\Users\stapi\AppData\Local\Temp\ccvyANZP.s:87     .text.altcp_free:0000000000000026 .LVL6
C:\Users\stapi\AppData\Local\Temp\ccvyANZP.s:7018   .debug_str:00000000000006c1 .LASF192
C:\Users\stapi\AppData\Local\Temp\ccvyANZP.s:14     .text.altcp_alloc:0000000000000000 .LFB4
C:\Users\stapi\AppData\Local\Temp\ccvyANZP.s:46     .text.altcp_alloc:000000000000002e .LFE4
C:\Users\stapi\AppData\Local\Temp\ccvyANZP.s:26     .text.altcp_alloc:0000000000000012 .LVL0
C:\Users\stapi\AppData\Local\Temp\ccvyANZP.s:36     .text.altcp_alloc:0000000000000024 .LVL2
C:\Users\stapi\AppData\Local\Temp\ccvyANZP.s:7066   .debug_str:0000000000000894 .LASF193
C:\Users\stapi\AppData\Local\Temp\ccvyANZP.s:6886   .debug_str:000000000000032a .LASF194
C:\Users\stapi\AppData\Local\Temp\ccvyANZP.s:6970   .debug_str:0000000000000585 .LASF195
C:\Users\stapi\AppData\Local\Temp\ccvyANZP.s:6996   .debug_str:0000000000000635 .LASF200
C:\Users\stapi\AppData\Local\Temp\ccvyANZP.s:7084   .debug_str:0000000000000913 .LASF201
C:\Users\stapi\AppData\Local\Temp\ccvyANZP.s:1515   .text.altcp_default_get_port:0000000000000000 .LVL137
C:\Users\stapi\AppData\Local\Temp\ccvyANZP.s:1523   .text.altcp_default_get_port:0000000000000006 .LVL138
C:\Users\stapi\AppData\Local\Temp\ccvyANZP.s:1534   .text.altcp_default_get_port:0000000000000014 .LVL140
C:\Users\stapi\AppData\Local\Temp\ccvyANZP.s:1488   .text.altcp_default_get_ip:0000000000000000 .LVL134
C:\Users\stapi\AppData\Local\Temp\ccvyANZP.s:1494   .text.altcp_default_get_ip:0000000000000004 .LVL135
C:\Users\stapi\AppData\Local\Temp\ccvyANZP.s:1453   .text.altcp_default_get_tcp_addrinfo:0000000000000000 .LVL130
C:\Users\stapi\AppData\Local\Temp\ccvyANZP.s:1461   .text.altcp_default_get_tcp_addrinfo:0000000000000006 .LVL131
C:\Users\stapi\AppData\Local\Temp\ccvyANZP.s:1472   .text.altcp_default_get_tcp_addrinfo:0000000000000014 .LVL133
C:\Users\stapi\AppData\Local\Temp\ccvyANZP.s:1413   .text.altcp_default_setprio:0000000000000000 .LVL126
C:\Users\stapi\AppData\Local\Temp\ccvyANZP.s:1419   .text.altcp_default_setprio:0000000000000004 .LVL127
C:\Users\stapi\AppData\Local\Temp\ccvyANZP.s:1378   .text.altcp_default_nagle_disabled:0000000000000000 .LVL122
C:\Users\stapi\AppData\Local\Temp\ccvyANZP.s:1386   .text.altcp_default_nagle_disabled:0000000000000006 .LVL123
C:\Users\stapi\AppData\Local\Temp\ccvyANZP.s:1397   .text.altcp_default_nagle_disabled:0000000000000014 .LVL125
C:\Users\stapi\AppData\Local\Temp\ccvyANZP.s:1353   .text.altcp_default_nagle_enable:0000000000000000 .LVL119
C:\Users\stapi\AppData\Local\Temp\ccvyANZP.s:1359   .text.altcp_default_nagle_enable:0000000000000004 .LVL120
C:\Users\stapi\AppData\Local\Temp\ccvyANZP.s:1328   .text.altcp_default_nagle_disable:0000000000000000 .LVL116
C:\Users\stapi\AppData\Local\Temp\ccvyANZP.s:1334   .text.altcp_default_nagle_disable:0000000000000004 .LVL117
C:\Users\stapi\AppData\Local\Temp\ccvyANZP.s:1293   .text.altcp_default_sndqueuelen:0000000000000000 .LVL112
C:\Users\stapi\AppData\Local\Temp\ccvyANZP.s:1301   .text.altcp_default_sndqueuelen:0000000000000006 .LVL113
C:\Users\stapi\AppData\Local\Temp\ccvyANZP.s:1312   .text.altcp_default_sndqueuelen:0000000000000014 .LVL115
C:\Users\stapi\AppData\Local\Temp\ccvyANZP.s:1258   .text.altcp_default_sndbuf:0000000000000000 .LVL108
C:\Users\stapi\AppData\Local\Temp\ccvyANZP.s:1266   .text.altcp_default_sndbuf:0000000000000006 .LVL109
C:\Users\stapi\AppData\Local\Temp\ccvyANZP.s:1277   .text.altcp_default_sndbuf:0000000000000014 .LVL111
C:\Users\stapi\AppData\Local\Temp\ccvyANZP.s:1223   .text.altcp_default_mss:0000000000000000 .LVL104
C:\Users\stapi\AppData\Local\Temp\ccvyANZP.s:1231   .text.altcp_default_mss:0000000000000006 .LVL105
C:\Users\stapi\AppData\Local\Temp\ccvyANZP.s:1242   .text.altcp_default_mss:0000000000000014 .LVL107
C:\Users\stapi\AppData\Local\Temp\ccvyANZP.s:1188   .text.altcp_default_output:0000000000000000 .LVL100
C:\Users\stapi\AppData\Local\Temp\ccvyANZP.s:1196   .text.altcp_default_output:0000000000000006 .LVL101
C:\Users\stapi\AppData\Local\Temp\ccvyANZP.s:1207   .text.altcp_default_output:0000000000000014 .LVL103
C:\Users\stapi\AppData\Local\Temp\ccvyANZP.s:1153   .text.altcp_default_write:0000000000000000 .LVL96
C:\Users\stapi\AppData\Local\Temp\ccvyANZP.s:1161   .text.altcp_default_write:0000000000000006 .LVL97
C:\Users\stapi\AppData\Local\Temp\ccvyANZP.s:1172   .text.altcp_default_write:0000000000000014 .LVL99
C:\Users\stapi\AppData\Local\Temp\ccvyANZP.s:1084   .text.altcp_default_shutdown:0000000000000000 .LVL89
C:\Users\stapi\AppData\Local\Temp\ccvyANZP.s:1116   .text.altcp_default_shutdown:0000000000000022 .LVL91
C:\Users\stapi\AppData\Local\Temp\ccvyANZP.s:1124   .text.altcp_default_shutdown:0000000000000026 .LVL92
C:\Users\stapi\AppData\Local\Temp\ccvyANZP.s:1133   .text.altcp_default_shutdown:0000000000000034 .LVL94
C:\Users\stapi\AppData\Local\Temp\ccvyANZP.s:1139   .text.altcp_default_shutdown:0000000000000036 .LVL95
C:\Users\stapi\AppData\Local\Temp\ccvyANZP.s:1049   .text.altcp_default_bind:0000000000000000 .LVL85
C:\Users\stapi\AppData\Local\Temp\ccvyANZP.s:1057   .text.altcp_default_bind:0000000000000006 .LVL86
C:\Users\stapi\AppData\Local\Temp\ccvyANZP.s:1068   .text.altcp_default_bind:0000000000000014 .LVL88
C:\Users\stapi\AppData\Local\Temp\ccvyANZP.s:1024   .text.altcp_default_recved:0000000000000000 .LVL82
C:\Users\stapi\AppData\Local\Temp\ccvyANZP.s:1030   .text.altcp_default_recved:0000000000000004 .LVL83
C:\Users\stapi\AppData\Local\Temp\ccvyANZP.s:995    .text.altcp_default_set_poll:0000000000000000 .LVL78
C:\Users\stapi\AppData\Local\Temp\ccvyANZP.s:1002   .text.altcp_default_set_poll:0000000000000006 .LVL79
C:\Users\stapi\AppData\Local\Temp\ccvyANZP.s:1008   .text.altcp_default_set_poll:000000000000000c .LVL80
C:\Users\stapi\AppData\Local\Temp\ccvyANZP.s:958    .text.altcp_get_port:0000000000000000 .LVL75
C:\Users\stapi\AppData\Local\Temp\ccvyANZP.s:982    .text.altcp_get_port:0000000000000012 .LVL77
C:\Users\stapi\AppData\Local\Temp\ccvyANZP.s:921    .text.altcp_get_ip:0000000000000000 .LVL72
C:\Users\stapi\AppData\Local\Temp\ccvyANZP.s:945    .text.altcp_get_ip:0000000000000012 .LVL74
C:\Users\stapi\AppData\Local\Temp\ccvyANZP.s:884    .text.altcp_get_tcp_addrinfo:0000000000000000 .LVL69
C:\Users\stapi\AppData\Local\Temp\ccvyANZP.s:908    .text.altcp_get_tcp_addrinfo:0000000000000012 .LVL71
C:\Users\stapi\AppData\Local\Temp\ccvyANZP.s:856    .text.altcp_setprio:0000000000000000 .LVL67
C:\Users\stapi\AppData\Local\Temp\ccvyANZP.s:819    .text.altcp_nagle_disabled:0000000000000000 .LVL64
C:\Users\stapi\AppData\Local\Temp\ccvyANZP.s:843    .text.altcp_nagle_disabled:0000000000000012 .LVL66
C:\Users\stapi\AppData\Local\Temp\ccvyANZP.s:791    .text.altcp_nagle_enable:0000000000000000 .LVL62
C:\Users\stapi\AppData\Local\Temp\ccvyANZP.s:763    .text.altcp_nagle_disable:0000000000000000 .LVL60
C:\Users\stapi\AppData\Local\Temp\ccvyANZP.s:726    .text.altcp_sndqueuelen:0000000000000000 .LVL57
C:\Users\stapi\AppData\Local\Temp\ccvyANZP.s:750    .text.altcp_sndqueuelen:0000000000000012 .LVL59
C:\Users\stapi\AppData\Local\Temp\ccvyANZP.s:689    .text.altcp_sndbuf:0000000000000000 .LVL54
C:\Users\stapi\AppData\Local\Temp\ccvyANZP.s:713    .text.altcp_sndbuf:0000000000000012 .LVL56
C:\Users\stapi\AppData\Local\Temp\ccvyANZP.s:652    .text.altcp_mss:0000000000000000 .LVL51
C:\Users\stapi\AppData\Local\Temp\ccvyANZP.s:676    .text.altcp_mss:0000000000000012 .LVL53
C:\Users\stapi\AppData\Local\Temp\ccvyANZP.s:615    .text.altcp_output:0000000000000000 .LVL48
C:\Users\stapi\AppData\Local\Temp\ccvyANZP.s:639    .text.altcp_output:0000000000000012 .LVL50
C:\Users\stapi\AppData\Local\Temp\ccvyANZP.s:578    .text.altcp_write:0000000000000000 .LVL45
C:\Users\stapi\AppData\Local\Temp\ccvyANZP.s:602    .text.altcp_write:0000000000000012 .LVL47
C:\Users\stapi\AppData\Local\Temp\ccvyANZP.s:541    .text.altcp_shutdown:0000000000000000 .LVL42
C:\Users\stapi\AppData\Local\Temp\ccvyANZP.s:565    .text.altcp_shutdown:0000000000000012 .LVL44
C:\Users\stapi\AppData\Local\Temp\ccvyANZP.s:504    .text.altcp_close:0000000000000000 .LVL39
C:\Users\stapi\AppData\Local\Temp\ccvyANZP.s:528    .text.altcp_close:0000000000000012 .LVL41
C:\Users\stapi\AppData\Local\Temp\ccvyANZP.s:476    .text.altcp_abort:0000000000000000 .LVL37
C:\Users\stapi\AppData\Local\Temp\ccvyANZP.s:439    .text.altcp_listen_with_backlog_and_err:0000000000000000 .LVL34
C:\Users\stapi\AppData\Local\Temp\ccvyANZP.s:463    .text.altcp_listen_with_backlog_and_err:0000000000000012 .LVL36
C:\Users\stapi\AppData\Local\Temp\ccvyANZP.s:402    .text.altcp_connect:0000000000000000 .LVL31
C:\Users\stapi\AppData\Local\Temp\ccvyANZP.s:426    .text.altcp_connect:0000000000000012 .LVL33
C:\Users\stapi\AppData\Local\Temp\ccvyANZP.s:365    .text.altcp_bind:0000000000000000 .LVL28
C:\Users\stapi\AppData\Local\Temp\ccvyANZP.s:389    .text.altcp_bind:0000000000000012 .LVL30
C:\Users\stapi\AppData\Local\Temp\ccvyANZP.s:337    .text.altcp_recved:0000000000000000 .LVL26
C:\Users\stapi\AppData\Local\Temp\ccvyANZP.s:278    .text.altcp_poll:0000000000000000 .LVL22
C:\Users\stapi\AppData\Local\Temp\ccvyANZP.s:290    .text.altcp_poll:000000000000000e .LVL23
C:\Users\stapi\AppData\Local\Temp\ccvyANZP.s:109    .text.altcp_new_ip_type:0000000000000000 .LVL8
C:\Users\stapi\AppData\Local\Temp\ccvyANZP.s:120    .text.altcp_new_ip_type:000000000000000e .LVL9
C:\Users\stapi\AppData\Local\Temp\ccvyANZP.s:131    .text.altcp_new_ip_type:000000000000001e .LVL11
C:\Users\stapi\AppData\Local\Temp\ccvyANZP.s:139    .text.altcp_new_ip_type:0000000000000022 .LVL12
C:\Users\stapi\AppData\Local\Temp\ccvyANZP.s:146    .text.altcp_new_ip_type:0000000000000028 .LVL13
C:\Users\stapi\AppData\Local\Temp\ccvyANZP.s:177    .text.altcp_new:0000000000000000 .LVL16
C:\Users\stapi\AppData\Local\Temp\ccvyANZP.s:160    .text.altcp_new_ip6:0000000000000000 .LVL14
C:\Users\stapi\AppData\Local\Temp\ccvyANZP.s:56     .text.altcp_free:0000000000000000 .LVL3
C:\Users\stapi\AppData\Local\Temp\ccvyANZP.s:82     .text.altcp_free:000000000000001c .LVL5
C:\Users\stapi\AppData\Local\Temp\ccvyANZP.s:94     .text.altcp_free:0000000000000030 .LVL7
C:\Users\stapi\AppData\Local\Temp\ccvyANZP.s:1557   .debug_info:0000000000000000 .Ldebug_info0

UNDEFINED SYMBOLS
__riscv_save_1
memp_malloc
memset
__riscv_restore_1
__riscv_save_0
memp_free
__riscv_restore_0
altcp_tcp_new_ip_type
