   1              		.file	"altcp_tls_mbedtls.c"
   2              		.option nopic
   3              		.attribute arch, "rv32i2p0_m2p0_a2p0_f2p0_c2p0_b_p0p94"
   4              		.attribute unaligned_access, 0
   5              		.attribute stack_align, 16
   6              		.text
   7              	.Ltext0:
   8              		.cfi_sections	.debug_frame
   9              		.section	.text.dummy_rng,"ax",@progbits
  10              		.align	1
  12              	dummy_rng:
  13              	.LFB405:
  14              		.file 1 "C:/Users/stapi/OneDrive/Desktop/GD32VW553/GD32VW55X_Wifi_BLE_SDK/GD32VW55x_RELEASE_V1.0.2
   1:C:/Users/stapi/OneDrive/Desktop/GD32VW553/GD32VW55X_Wifi_BLE_SDK/GD32VW55x_RELEASE_V1.0.2/MSDK/lwip/lwip-2.1.2/src/apps/altcp_tls\altcp_tls_mbedtls.c **** /**
   2:C:/Users/stapi/OneDrive/Desktop/GD32VW553/GD32VW55X_Wifi_BLE_SDK/GD32VW55x_RELEASE_V1.0.2/MSDK/lwip/lwip-2.1.2/src/apps/altcp_tls\altcp_tls_mbedtls.c ****  * @file
   3:C:/Users/stapi/OneDrive/Desktop/GD32VW553/GD32VW55X_Wifi_BLE_SDK/GD32VW55x_RELEASE_V1.0.2/MSDK/lwip/lwip-2.1.2/src/apps/altcp_tls\altcp_tls_mbedtls.c ****  * Application layered TCP/TLS connection API (to be used from TCPIP thread)
   4:C:/Users/stapi/OneDrive/Desktop/GD32VW553/GD32VW55X_Wifi_BLE_SDK/GD32VW55x_RELEASE_V1.0.2/MSDK/lwip/lwip-2.1.2/src/apps/altcp_tls\altcp_tls_mbedtls.c ****  *
   5:C:/Users/stapi/OneDrive/Desktop/GD32VW553/GD32VW55X_Wifi_BLE_SDK/GD32VW55x_RELEASE_V1.0.2/MSDK/lwip/lwip-2.1.2/src/apps/altcp_tls\altcp_tls_mbedtls.c ****  * This file provides a TLS layer using mbedTLS
   6:C:/Users/stapi/OneDrive/Desktop/GD32VW553/GD32VW55X_Wifi_BLE_SDK/GD32VW55x_RELEASE_V1.0.2/MSDK/lwip/lwip-2.1.2/src/apps/altcp_tls\altcp_tls_mbedtls.c ****  */
   7:C:/Users/stapi/OneDrive/Desktop/GD32VW553/GD32VW55X_Wifi_BLE_SDK/GD32VW55x_RELEASE_V1.0.2/MSDK/lwip/lwip-2.1.2/src/apps/altcp_tls\altcp_tls_mbedtls.c **** 
   8:C:/Users/stapi/OneDrive/Desktop/GD32VW553/GD32VW55X_Wifi_BLE_SDK/GD32VW55x_RELEASE_V1.0.2/MSDK/lwip/lwip-2.1.2/src/apps/altcp_tls\altcp_tls_mbedtls.c **** /*
   9:C:/Users/stapi/OneDrive/Desktop/GD32VW553/GD32VW55X_Wifi_BLE_SDK/GD32VW55x_RELEASE_V1.0.2/MSDK/lwip/lwip-2.1.2/src/apps/altcp_tls\altcp_tls_mbedtls.c ****  * Copyright (c) 2017 Simon Goldschmidt
  10:C:/Users/stapi/OneDrive/Desktop/GD32VW553/GD32VW55X_Wifi_BLE_SDK/GD32VW55x_RELEASE_V1.0.2/MSDK/lwip/lwip-2.1.2/src/apps/altcp_tls\altcp_tls_mbedtls.c ****  * Copyright (c) 2024, GigaDevice Semiconductor Inc.
  11:C:/Users/stapi/OneDrive/Desktop/GD32VW553/GD32VW55X_Wifi_BLE_SDK/GD32VW55x_RELEASE_V1.0.2/MSDK/lwip/lwip-2.1.2/src/apps/altcp_tls\altcp_tls_mbedtls.c ****  * All rights reserved.
  12:C:/Users/stapi/OneDrive/Desktop/GD32VW553/GD32VW55X_Wifi_BLE_SDK/GD32VW55x_RELEASE_V1.0.2/MSDK/lwip/lwip-2.1.2/src/apps/altcp_tls\altcp_tls_mbedtls.c ****  *
  13:C:/Users/stapi/OneDrive/Desktop/GD32VW553/GD32VW55X_Wifi_BLE_SDK/GD32VW55x_RELEASE_V1.0.2/MSDK/lwip/lwip-2.1.2/src/apps/altcp_tls\altcp_tls_mbedtls.c ****  * Redistribution and use in source and binary forms, with or without modification,
  14:C:/Users/stapi/OneDrive/Desktop/GD32VW553/GD32VW55X_Wifi_BLE_SDK/GD32VW55x_RELEASE_V1.0.2/MSDK/lwip/lwip-2.1.2/src/apps/altcp_tls\altcp_tls_mbedtls.c ****  * are permitted provided that the following conditions are met:
  15:C:/Users/stapi/OneDrive/Desktop/GD32VW553/GD32VW55X_Wifi_BLE_SDK/GD32VW55x_RELEASE_V1.0.2/MSDK/lwip/lwip-2.1.2/src/apps/altcp_tls\altcp_tls_mbedtls.c ****  *
  16:C:/Users/stapi/OneDrive/Desktop/GD32VW553/GD32VW55X_Wifi_BLE_SDK/GD32VW55x_RELEASE_V1.0.2/MSDK/lwip/lwip-2.1.2/src/apps/altcp_tls\altcp_tls_mbedtls.c ****  * 1. Redistributions of source code must retain the above copyright notice,
  17:C:/Users/stapi/OneDrive/Desktop/GD32VW553/GD32VW55X_Wifi_BLE_SDK/GD32VW55x_RELEASE_V1.0.2/MSDK/lwip/lwip-2.1.2/src/apps/altcp_tls\altcp_tls_mbedtls.c ****  *    this list of conditions and the following disclaimer.
  18:C:/Users/stapi/OneDrive/Desktop/GD32VW553/GD32VW55X_Wifi_BLE_SDK/GD32VW55x_RELEASE_V1.0.2/MSDK/lwip/lwip-2.1.2/src/apps/altcp_tls\altcp_tls_mbedtls.c ****  * 2. Redistributions in binary form must reproduce the above copyright notice,
  19:C:/Users/stapi/OneDrive/Desktop/GD32VW553/GD32VW55X_Wifi_BLE_SDK/GD32VW55x_RELEASE_V1.0.2/MSDK/lwip/lwip-2.1.2/src/apps/altcp_tls\altcp_tls_mbedtls.c ****  *    this list of conditions and the following disclaimer in the documentation
  20:C:/Users/stapi/OneDrive/Desktop/GD32VW553/GD32VW55X_Wifi_BLE_SDK/GD32VW55x_RELEASE_V1.0.2/MSDK/lwip/lwip-2.1.2/src/apps/altcp_tls\altcp_tls_mbedtls.c ****  *    and/or other materials provided with the distribution.
  21:C:/Users/stapi/OneDrive/Desktop/GD32VW553/GD32VW55X_Wifi_BLE_SDK/GD32VW55x_RELEASE_V1.0.2/MSDK/lwip/lwip-2.1.2/src/apps/altcp_tls\altcp_tls_mbedtls.c ****  * 3. The name of the author may not be used to endorse or promote products
  22:C:/Users/stapi/OneDrive/Desktop/GD32VW553/GD32VW55X_Wifi_BLE_SDK/GD32VW55x_RELEASE_V1.0.2/MSDK/lwip/lwip-2.1.2/src/apps/altcp_tls\altcp_tls_mbedtls.c ****  *    derived from this software without specific prior written permission.
  23:C:/Users/stapi/OneDrive/Desktop/GD32VW553/GD32VW55X_Wifi_BLE_SDK/GD32VW55x_RELEASE_V1.0.2/MSDK/lwip/lwip-2.1.2/src/apps/altcp_tls\altcp_tls_mbedtls.c ****  *
  24:C:/Users/stapi/OneDrive/Desktop/GD32VW553/GD32VW55X_Wifi_BLE_SDK/GD32VW55x_RELEASE_V1.0.2/MSDK/lwip/lwip-2.1.2/src/apps/altcp_tls\altcp_tls_mbedtls.c ****  * THIS SOFTWARE IS PROVIDED BY THE AUTHOR ``AS IS'' AND ANY EXPRESS OR IMPLIED
  25:C:/Users/stapi/OneDrive/Desktop/GD32VW553/GD32VW55X_Wifi_BLE_SDK/GD32VW55x_RELEASE_V1.0.2/MSDK/lwip/lwip-2.1.2/src/apps/altcp_tls\altcp_tls_mbedtls.c ****  * WARRANTIES, INCLUDING, BUT NOT LIMITED TO, THE IMPLIED WARRANTIES OF
  26:C:/Users/stapi/OneDrive/Desktop/GD32VW553/GD32VW55X_Wifi_BLE_SDK/GD32VW55x_RELEASE_V1.0.2/MSDK/lwip/lwip-2.1.2/src/apps/altcp_tls\altcp_tls_mbedtls.c ****  * MERCHANTABILITY AND FITNESS FOR A PARTICULAR PURPOSE ARE DISCLAIMED. IN NO EVENT
  27:C:/Users/stapi/OneDrive/Desktop/GD32VW553/GD32VW55X_Wifi_BLE_SDK/GD32VW55x_RELEASE_V1.0.2/MSDK/lwip/lwip-2.1.2/src/apps/altcp_tls\altcp_tls_mbedtls.c ****  * SHALL THE AUTHOR BE LIABLE FOR ANY DIRECT, INDIRECT, INCIDENTAL, SPECIAL,
  28:C:/Users/stapi/OneDrive/Desktop/GD32VW553/GD32VW55X_Wifi_BLE_SDK/GD32VW55x_RELEASE_V1.0.2/MSDK/lwip/lwip-2.1.2/src/apps/altcp_tls\altcp_tls_mbedtls.c ****  * EXEMPLARY, OR CONSEQUENTIAL DAMAGES (INCLUDING, BUT NOT LIMITED TO, PROCUREMENT
  29:C:/Users/stapi/OneDrive/Desktop/GD32VW553/GD32VW55X_Wifi_BLE_SDK/GD32VW55x_RELEASE_V1.0.2/MSDK/lwip/lwip-2.1.2/src/apps/altcp_tls\altcp_tls_mbedtls.c ****  * OF SUBSTITUTE GOODS OR SERVICES; LOSS OF USE, DATA, OR PROFITS; OR BUSINESS
  30:C:/Users/stapi/OneDrive/Desktop/GD32VW553/GD32VW55X_Wifi_BLE_SDK/GD32VW55x_RELEASE_V1.0.2/MSDK/lwip/lwip-2.1.2/src/apps/altcp_tls\altcp_tls_mbedtls.c ****  * INTERRUPTION) HOWEVER CAUSED AND ON ANY THEORY OF LIABILITY, WHETHER IN
  31:C:/Users/stapi/OneDrive/Desktop/GD32VW553/GD32VW55X_Wifi_BLE_SDK/GD32VW55x_RELEASE_V1.0.2/MSDK/lwip/lwip-2.1.2/src/apps/altcp_tls\altcp_tls_mbedtls.c ****  * CONTRACT, STRICT LIABILITY, OR TORT (INCLUDING NEGLIGENCE OR OTHERWISE) ARISING
  32:C:/Users/stapi/OneDrive/Desktop/GD32VW553/GD32VW55X_Wifi_BLE_SDK/GD32VW55x_RELEASE_V1.0.2/MSDK/lwip/lwip-2.1.2/src/apps/altcp_tls\altcp_tls_mbedtls.c ****  * IN ANY WAY OUT OF THE USE OF THIS SOFTWARE, EVEN IF ADVISED OF THE POSSIBILITY
  33:C:/Users/stapi/OneDrive/Desktop/GD32VW553/GD32VW55X_Wifi_BLE_SDK/GD32VW55x_RELEASE_V1.0.2/MSDK/lwip/lwip-2.1.2/src/apps/altcp_tls\altcp_tls_mbedtls.c ****  * OF SUCH DAMAGE.
  34:C:/Users/stapi/OneDrive/Desktop/GD32VW553/GD32VW55X_Wifi_BLE_SDK/GD32VW55x_RELEASE_V1.0.2/MSDK/lwip/lwip-2.1.2/src/apps/altcp_tls\altcp_tls_mbedtls.c ****  *
  35:C:/Users/stapi/OneDrive/Desktop/GD32VW553/GD32VW55X_Wifi_BLE_SDK/GD32VW55x_RELEASE_V1.0.2/MSDK/lwip/lwip-2.1.2/src/apps/altcp_tls\altcp_tls_mbedtls.c ****  * This file is part of the lwIP TCP/IP stack.
  36:C:/Users/stapi/OneDrive/Desktop/GD32VW553/GD32VW55X_Wifi_BLE_SDK/GD32VW55x_RELEASE_V1.0.2/MSDK/lwip/lwip-2.1.2/src/apps/altcp_tls\altcp_tls_mbedtls.c ****  *
  37:C:/Users/stapi/OneDrive/Desktop/GD32VW553/GD32VW55X_Wifi_BLE_SDK/GD32VW55x_RELEASE_V1.0.2/MSDK/lwip/lwip-2.1.2/src/apps/altcp_tls\altcp_tls_mbedtls.c ****  * Author: Simon Goldschmidt <goldsimon@gmx.de>
  38:C:/Users/stapi/OneDrive/Desktop/GD32VW553/GD32VW55X_Wifi_BLE_SDK/GD32VW55x_RELEASE_V1.0.2/MSDK/lwip/lwip-2.1.2/src/apps/altcp_tls\altcp_tls_mbedtls.c ****  *
  39:C:/Users/stapi/OneDrive/Desktop/GD32VW553/GD32VW55X_Wifi_BLE_SDK/GD32VW55x_RELEASE_V1.0.2/MSDK/lwip/lwip-2.1.2/src/apps/altcp_tls\altcp_tls_mbedtls.c ****  * Watch out:
  40:C:/Users/stapi/OneDrive/Desktop/GD32VW553/GD32VW55X_Wifi_BLE_SDK/GD32VW55x_RELEASE_V1.0.2/MSDK/lwip/lwip-2.1.2/src/apps/altcp_tls\altcp_tls_mbedtls.c ****  * - 'sent' is always called with len==0 to the upper layer. This is because keeping
  41:C:/Users/stapi/OneDrive/Desktop/GD32VW553/GD32VW55X_Wifi_BLE_SDK/GD32VW55x_RELEASE_V1.0.2/MSDK/lwip/lwip-2.1.2/src/apps/altcp_tls\altcp_tls_mbedtls.c ****  *   track of the ratio of application data and TLS overhead would be too much.
  42:C:/Users/stapi/OneDrive/Desktop/GD32VW553/GD32VW55X_Wifi_BLE_SDK/GD32VW55x_RELEASE_V1.0.2/MSDK/lwip/lwip-2.1.2/src/apps/altcp_tls\altcp_tls_mbedtls.c ****  *
  43:C:/Users/stapi/OneDrive/Desktop/GD32VW553/GD32VW55X_Wifi_BLE_SDK/GD32VW55x_RELEASE_V1.0.2/MSDK/lwip/lwip-2.1.2/src/apps/altcp_tls\altcp_tls_mbedtls.c ****  * Mandatory security-related configuration:
  44:C:/Users/stapi/OneDrive/Desktop/GD32VW553/GD32VW55X_Wifi_BLE_SDK/GD32VW55x_RELEASE_V1.0.2/MSDK/lwip/lwip-2.1.2/src/apps/altcp_tls\altcp_tls_mbedtls.c ****  * - define ALTCP_MBEDTLS_RNG_FN to mbedtls_entropy_func to use the standard mbedTLS
  45:C:/Users/stapi/OneDrive/Desktop/GD32VW553/GD32VW55X_Wifi_BLE_SDK/GD32VW55x_RELEASE_V1.0.2/MSDK/lwip/lwip-2.1.2/src/apps/altcp_tls\altcp_tls_mbedtls.c ****  *   entropy and ensure to add at least one strong entropy source to your mbedtls port
  46:C:/Users/stapi/OneDrive/Desktop/GD32VW553/GD32VW55X_Wifi_BLE_SDK/GD32VW55x_RELEASE_V1.0.2/MSDK/lwip/lwip-2.1.2/src/apps/altcp_tls\altcp_tls_mbedtls.c ****  *   (implement mbedtls_platform_entropy_poll or mbedtls_hardware_poll providing strong
  47:C:/Users/stapi/OneDrive/Desktop/GD32VW553/GD32VW55X_Wifi_BLE_SDK/GD32VW55x_RELEASE_V1.0.2/MSDK/lwip/lwip-2.1.2/src/apps/altcp_tls\altcp_tls_mbedtls.c ****  *   entropy)
  48:C:/Users/stapi/OneDrive/Desktop/GD32VW553/GD32VW55X_Wifi_BLE_SDK/GD32VW55x_RELEASE_V1.0.2/MSDK/lwip/lwip-2.1.2/src/apps/altcp_tls\altcp_tls_mbedtls.c ****  * - define ALTCP_MBEDTLS_ENTROPY_PTR and ALTCP_MBEDTLS_ENTROPY_LEN to something providing
  49:C:/Users/stapi/OneDrive/Desktop/GD32VW553/GD32VW55X_Wifi_BLE_SDK/GD32VW55x_RELEASE_V1.0.2/MSDK/lwip/lwip-2.1.2/src/apps/altcp_tls\altcp_tls_mbedtls.c ****  *   GOOD custom entropy
  50:C:/Users/stapi/OneDrive/Desktop/GD32VW553/GD32VW55X_Wifi_BLE_SDK/GD32VW55x_RELEASE_V1.0.2/MSDK/lwip/lwip-2.1.2/src/apps/altcp_tls\altcp_tls_mbedtls.c ****  *
  51:C:/Users/stapi/OneDrive/Desktop/GD32VW553/GD32VW55X_Wifi_BLE_SDK/GD32VW55x_RELEASE_V1.0.2/MSDK/lwip/lwip-2.1.2/src/apps/altcp_tls\altcp_tls_mbedtls.c ****  * Missing things / @todo:
  52:C:/Users/stapi/OneDrive/Desktop/GD32VW553/GD32VW55X_Wifi_BLE_SDK/GD32VW55x_RELEASE_V1.0.2/MSDK/lwip/lwip-2.1.2/src/apps/altcp_tls\altcp_tls_mbedtls.c ****  * - some unhandled/untested things migh be caught by LWIP_ASSERTs...
  53:C:/Users/stapi/OneDrive/Desktop/GD32VW553/GD32VW55X_Wifi_BLE_SDK/GD32VW55x_RELEASE_V1.0.2/MSDK/lwip/lwip-2.1.2/src/apps/altcp_tls\altcp_tls_mbedtls.c ****  */
  54:C:/Users/stapi/OneDrive/Desktop/GD32VW553/GD32VW55X_Wifi_BLE_SDK/GD32VW55x_RELEASE_V1.0.2/MSDK/lwip/lwip-2.1.2/src/apps/altcp_tls\altcp_tls_mbedtls.c **** 
  55:C:/Users/stapi/OneDrive/Desktop/GD32VW553/GD32VW55X_Wifi_BLE_SDK/GD32VW55x_RELEASE_V1.0.2/MSDK/lwip/lwip-2.1.2/src/apps/altcp_tls\altcp_tls_mbedtls.c **** #include "lwip/opt.h"
  56:C:/Users/stapi/OneDrive/Desktop/GD32VW553/GD32VW55X_Wifi_BLE_SDK/GD32VW55x_RELEASE_V1.0.2/MSDK/lwip/lwip-2.1.2/src/apps/altcp_tls\altcp_tls_mbedtls.c **** 
  57:C:/Users/stapi/OneDrive/Desktop/GD32VW553/GD32VW55X_Wifi_BLE_SDK/GD32VW55x_RELEASE_V1.0.2/MSDK/lwip/lwip-2.1.2/src/apps/altcp_tls\altcp_tls_mbedtls.c **** #if LWIP_ALTCP /* don't build if not configured for use in lwipopts.h */
  58:C:/Users/stapi/OneDrive/Desktop/GD32VW553/GD32VW55X_Wifi_BLE_SDK/GD32VW55x_RELEASE_V1.0.2/MSDK/lwip/lwip-2.1.2/src/apps/altcp_tls\altcp_tls_mbedtls.c **** 
  59:C:/Users/stapi/OneDrive/Desktop/GD32VW553/GD32VW55X_Wifi_BLE_SDK/GD32VW55x_RELEASE_V1.0.2/MSDK/lwip/lwip-2.1.2/src/apps/altcp_tls\altcp_tls_mbedtls.c **** #include "lwip/apps/altcp_tls_mbedtls_opts.h"
  60:C:/Users/stapi/OneDrive/Desktop/GD32VW553/GD32VW55X_Wifi_BLE_SDK/GD32VW55x_RELEASE_V1.0.2/MSDK/lwip/lwip-2.1.2/src/apps/altcp_tls\altcp_tls_mbedtls.c **** 
  61:C:/Users/stapi/OneDrive/Desktop/GD32VW553/GD32VW55X_Wifi_BLE_SDK/GD32VW55x_RELEASE_V1.0.2/MSDK/lwip/lwip-2.1.2/src/apps/altcp_tls\altcp_tls_mbedtls.c **** #if LWIP_ALTCP_TLS && LWIP_ALTCP_TLS_MBEDTLS
  62:C:/Users/stapi/OneDrive/Desktop/GD32VW553/GD32VW55X_Wifi_BLE_SDK/GD32VW55x_RELEASE_V1.0.2/MSDK/lwip/lwip-2.1.2/src/apps/altcp_tls\altcp_tls_mbedtls.c **** 
  63:C:/Users/stapi/OneDrive/Desktop/GD32VW553/GD32VW55X_Wifi_BLE_SDK/GD32VW55x_RELEASE_V1.0.2/MSDK/lwip/lwip-2.1.2/src/apps/altcp_tls\altcp_tls_mbedtls.c **** #include "lwip/altcp.h"
  64:C:/Users/stapi/OneDrive/Desktop/GD32VW553/GD32VW55X_Wifi_BLE_SDK/GD32VW55x_RELEASE_V1.0.2/MSDK/lwip/lwip-2.1.2/src/apps/altcp_tls\altcp_tls_mbedtls.c **** #include "lwip/altcp_tls.h"
  65:C:/Users/stapi/OneDrive/Desktop/GD32VW553/GD32VW55X_Wifi_BLE_SDK/GD32VW55x_RELEASE_V1.0.2/MSDK/lwip/lwip-2.1.2/src/apps/altcp_tls\altcp_tls_mbedtls.c **** #include "lwip/priv/altcp_priv.h"
  66:C:/Users/stapi/OneDrive/Desktop/GD32VW553/GD32VW55X_Wifi_BLE_SDK/GD32VW55x_RELEASE_V1.0.2/MSDK/lwip/lwip-2.1.2/src/apps/altcp_tls\altcp_tls_mbedtls.c **** 
  67:C:/Users/stapi/OneDrive/Desktop/GD32VW553/GD32VW55X_Wifi_BLE_SDK/GD32VW55x_RELEASE_V1.0.2/MSDK/lwip/lwip-2.1.2/src/apps/altcp_tls\altcp_tls_mbedtls.c **** #include "altcp_tls_mbedtls_structs.h"
  68:C:/Users/stapi/OneDrive/Desktop/GD32VW553/GD32VW55X_Wifi_BLE_SDK/GD32VW55x_RELEASE_V1.0.2/MSDK/lwip/lwip-2.1.2/src/apps/altcp_tls\altcp_tls_mbedtls.c **** #include "altcp_tls_mbedtls_mem.h"
  69:C:/Users/stapi/OneDrive/Desktop/GD32VW553/GD32VW55X_Wifi_BLE_SDK/GD32VW55x_RELEASE_V1.0.2/MSDK/lwip/lwip-2.1.2/src/apps/altcp_tls\altcp_tls_mbedtls.c **** 
  70:C:/Users/stapi/OneDrive/Desktop/GD32VW553/GD32VW55X_Wifi_BLE_SDK/GD32VW55x_RELEASE_V1.0.2/MSDK/lwip/lwip-2.1.2/src/apps/altcp_tls\altcp_tls_mbedtls.c **** /* @todo: which includes are really needed? */
  71:C:/Users/stapi/OneDrive/Desktop/GD32VW553/GD32VW55X_Wifi_BLE_SDK/GD32VW55x_RELEASE_V1.0.2/MSDK/lwip/lwip-2.1.2/src/apps/altcp_tls\altcp_tls_mbedtls.c **** #include "mbedtls/entropy.h"
  72:C:/Users/stapi/OneDrive/Desktop/GD32VW553/GD32VW55X_Wifi_BLE_SDK/GD32VW55x_RELEASE_V1.0.2/MSDK/lwip/lwip-2.1.2/src/apps/altcp_tls\altcp_tls_mbedtls.c **** #include "mbedtls/ctr_drbg.h"
  73:C:/Users/stapi/OneDrive/Desktop/GD32VW553/GD32VW55X_Wifi_BLE_SDK/GD32VW55x_RELEASE_V1.0.2/MSDK/lwip/lwip-2.1.2/src/apps/altcp_tls\altcp_tls_mbedtls.c **** #include "mbedtls/certs.h"
  74:C:/Users/stapi/OneDrive/Desktop/GD32VW553/GD32VW55X_Wifi_BLE_SDK/GD32VW55x_RELEASE_V1.0.2/MSDK/lwip/lwip-2.1.2/src/apps/altcp_tls\altcp_tls_mbedtls.c **** #include "mbedtls/x509.h"
  75:C:/Users/stapi/OneDrive/Desktop/GD32VW553/GD32VW55X_Wifi_BLE_SDK/GD32VW55x_RELEASE_V1.0.2/MSDK/lwip/lwip-2.1.2/src/apps/altcp_tls\altcp_tls_mbedtls.c **** #include "mbedtls/ssl.h"
  76:C:/Users/stapi/OneDrive/Desktop/GD32VW553/GD32VW55X_Wifi_BLE_SDK/GD32VW55x_RELEASE_V1.0.2/MSDK/lwip/lwip-2.1.2/src/apps/altcp_tls\altcp_tls_mbedtls.c **** #include "mbedtls/net.h"
  77:C:/Users/stapi/OneDrive/Desktop/GD32VW553/GD32VW55X_Wifi_BLE_SDK/GD32VW55x_RELEASE_V1.0.2/MSDK/lwip/lwip-2.1.2/src/apps/altcp_tls\altcp_tls_mbedtls.c **** #include "mbedtls/error.h"
  78:C:/Users/stapi/OneDrive/Desktop/GD32VW553/GD32VW55X_Wifi_BLE_SDK/GD32VW55x_RELEASE_V1.0.2/MSDK/lwip/lwip-2.1.2/src/apps/altcp_tls\altcp_tls_mbedtls.c **** #include "mbedtls/debug.h"
  79:C:/Users/stapi/OneDrive/Desktop/GD32VW553/GD32VW55X_Wifi_BLE_SDK/GD32VW55x_RELEASE_V1.0.2/MSDK/lwip/lwip-2.1.2/src/apps/altcp_tls\altcp_tls_mbedtls.c **** #include "mbedtls/platform.h"
  80:C:/Users/stapi/OneDrive/Desktop/GD32VW553/GD32VW55X_Wifi_BLE_SDK/GD32VW55x_RELEASE_V1.0.2/MSDK/lwip/lwip-2.1.2/src/apps/altcp_tls\altcp_tls_mbedtls.c **** #include "mbedtls/memory_buffer_alloc.h"
  81:C:/Users/stapi/OneDrive/Desktop/GD32VW553/GD32VW55X_Wifi_BLE_SDK/GD32VW55x_RELEASE_V1.0.2/MSDK/lwip/lwip-2.1.2/src/apps/altcp_tls\altcp_tls_mbedtls.c **** #include "mbedtls/ssl_cache.h"
  82:C:/Users/stapi/OneDrive/Desktop/GD32VW553/GD32VW55X_Wifi_BLE_SDK/GD32VW55x_RELEASE_V1.0.2/MSDK/lwip/lwip-2.1.2/src/apps/altcp_tls\altcp_tls_mbedtls.c **** 
  83:C:/Users/stapi/OneDrive/Desktop/GD32VW553/GD32VW55X_Wifi_BLE_SDK/GD32VW55x_RELEASE_V1.0.2/MSDK/lwip/lwip-2.1.2/src/apps/altcp_tls\altcp_tls_mbedtls.c **** #include "mbedtls/ssl_internal.h" /* to call mbedtls_flush_output after ERR_MEM */
  84:C:/Users/stapi/OneDrive/Desktop/GD32VW553/GD32VW55X_Wifi_BLE_SDK/GD32VW55x_RELEASE_V1.0.2/MSDK/lwip/lwip-2.1.2/src/apps/altcp_tls\altcp_tls_mbedtls.c **** 
  85:C:/Users/stapi/OneDrive/Desktop/GD32VW553/GD32VW55X_Wifi_BLE_SDK/GD32VW55x_RELEASE_V1.0.2/MSDK/lwip/lwip-2.1.2/src/apps/altcp_tls\altcp_tls_mbedtls.c **** #include <string.h>
  86:C:/Users/stapi/OneDrive/Desktop/GD32VW553/GD32VW55X_Wifi_BLE_SDK/GD32VW55x_RELEASE_V1.0.2/MSDK/lwip/lwip-2.1.2/src/apps/altcp_tls\altcp_tls_mbedtls.c **** 
  87:C:/Users/stapi/OneDrive/Desktop/GD32VW553/GD32VW55X_Wifi_BLE_SDK/GD32VW55x_RELEASE_V1.0.2/MSDK/lwip/lwip-2.1.2/src/apps/altcp_tls\altcp_tls_mbedtls.c **** #ifndef ALTCP_MBEDTLS_ENTROPY_PTR
  88:C:/Users/stapi/OneDrive/Desktop/GD32VW553/GD32VW55X_Wifi_BLE_SDK/GD32VW55x_RELEASE_V1.0.2/MSDK/lwip/lwip-2.1.2/src/apps/altcp_tls\altcp_tls_mbedtls.c **** #define ALTCP_MBEDTLS_ENTROPY_PTR   NULL
  89:C:/Users/stapi/OneDrive/Desktop/GD32VW553/GD32VW55X_Wifi_BLE_SDK/GD32VW55x_RELEASE_V1.0.2/MSDK/lwip/lwip-2.1.2/src/apps/altcp_tls\altcp_tls_mbedtls.c **** #endif
  90:C:/Users/stapi/OneDrive/Desktop/GD32VW553/GD32VW55X_Wifi_BLE_SDK/GD32VW55x_RELEASE_V1.0.2/MSDK/lwip/lwip-2.1.2/src/apps/altcp_tls\altcp_tls_mbedtls.c **** #ifndef ALTCP_MBEDTLS_ENTROPY_LEN
  91:C:/Users/stapi/OneDrive/Desktop/GD32VW553/GD32VW55X_Wifi_BLE_SDK/GD32VW55x_RELEASE_V1.0.2/MSDK/lwip/lwip-2.1.2/src/apps/altcp_tls\altcp_tls_mbedtls.c **** #define ALTCP_MBEDTLS_ENTROPY_LEN   0
  92:C:/Users/stapi/OneDrive/Desktop/GD32VW553/GD32VW55X_Wifi_BLE_SDK/GD32VW55x_RELEASE_V1.0.2/MSDK/lwip/lwip-2.1.2/src/apps/altcp_tls\altcp_tls_mbedtls.c **** #endif
  93:C:/Users/stapi/OneDrive/Desktop/GD32VW553/GD32VW55X_Wifi_BLE_SDK/GD32VW55x_RELEASE_V1.0.2/MSDK/lwip/lwip-2.1.2/src/apps/altcp_tls\altcp_tls_mbedtls.c **** 
  94:C:/Users/stapi/OneDrive/Desktop/GD32VW553/GD32VW55X_Wifi_BLE_SDK/GD32VW55x_RELEASE_V1.0.2/MSDK/lwip/lwip-2.1.2/src/apps/altcp_tls\altcp_tls_mbedtls.c **** /* Variable prototype, the actual declaration is at the end of this file
  95:C:/Users/stapi/OneDrive/Desktop/GD32VW553/GD32VW55X_Wifi_BLE_SDK/GD32VW55x_RELEASE_V1.0.2/MSDK/lwip/lwip-2.1.2/src/apps/altcp_tls\altcp_tls_mbedtls.c ****    since it contains pointers to static functions declared here */
  96:C:/Users/stapi/OneDrive/Desktop/GD32VW553/GD32VW55X_Wifi_BLE_SDK/GD32VW55x_RELEASE_V1.0.2/MSDK/lwip/lwip-2.1.2/src/apps/altcp_tls\altcp_tls_mbedtls.c **** extern const struct altcp_functions altcp_mbedtls_functions;
  97:C:/Users/stapi/OneDrive/Desktop/GD32VW553/GD32VW55X_Wifi_BLE_SDK/GD32VW55x_RELEASE_V1.0.2/MSDK/lwip/lwip-2.1.2/src/apps/altcp_tls\altcp_tls_mbedtls.c **** 
  98:C:/Users/stapi/OneDrive/Desktop/GD32VW553/GD32VW55X_Wifi_BLE_SDK/GD32VW55x_RELEASE_V1.0.2/MSDK/lwip/lwip-2.1.2/src/apps/altcp_tls\altcp_tls_mbedtls.c **** /** Our global mbedTLS configuration (server-specific, not connection-specific) */
  99:C:/Users/stapi/OneDrive/Desktop/GD32VW553/GD32VW55X_Wifi_BLE_SDK/GD32VW55x_RELEASE_V1.0.2/MSDK/lwip/lwip-2.1.2/src/apps/altcp_tls\altcp_tls_mbedtls.c **** struct altcp_tls_config {
 100:C:/Users/stapi/OneDrive/Desktop/GD32VW553/GD32VW55X_Wifi_BLE_SDK/GD32VW55x_RELEASE_V1.0.2/MSDK/lwip/lwip-2.1.2/src/apps/altcp_tls\altcp_tls_mbedtls.c ****   mbedtls_ssl_config conf;
 101:C:/Users/stapi/OneDrive/Desktop/GD32VW553/GD32VW55X_Wifi_BLE_SDK/GD32VW55x_RELEASE_V1.0.2/MSDK/lwip/lwip-2.1.2/src/apps/altcp_tls\altcp_tls_mbedtls.c ****   mbedtls_entropy_context entropy;
 102:C:/Users/stapi/OneDrive/Desktop/GD32VW553/GD32VW55X_Wifi_BLE_SDK/GD32VW55x_RELEASE_V1.0.2/MSDK/lwip/lwip-2.1.2/src/apps/altcp_tls\altcp_tls_mbedtls.c ****   mbedtls_ctr_drbg_context ctr_drbg;
 103:C:/Users/stapi/OneDrive/Desktop/GD32VW553/GD32VW55X_Wifi_BLE_SDK/GD32VW55x_RELEASE_V1.0.2/MSDK/lwip/lwip-2.1.2/src/apps/altcp_tls\altcp_tls_mbedtls.c ****   mbedtls_x509_crt *cert;
 104:C:/Users/stapi/OneDrive/Desktop/GD32VW553/GD32VW55X_Wifi_BLE_SDK/GD32VW55x_RELEASE_V1.0.2/MSDK/lwip/lwip-2.1.2/src/apps/altcp_tls\altcp_tls_mbedtls.c ****   mbedtls_pk_context *pkey;
 105:C:/Users/stapi/OneDrive/Desktop/GD32VW553/GD32VW55X_Wifi_BLE_SDK/GD32VW55x_RELEASE_V1.0.2/MSDK/lwip/lwip-2.1.2/src/apps/altcp_tls\altcp_tls_mbedtls.c ****   mbedtls_x509_crt *ca;
 106:C:/Users/stapi/OneDrive/Desktop/GD32VW553/GD32VW55X_Wifi_BLE_SDK/GD32VW55x_RELEASE_V1.0.2/MSDK/lwip/lwip-2.1.2/src/apps/altcp_tls\altcp_tls_mbedtls.c **** #if defined(MBEDTLS_SSL_CACHE_C) && ALTCP_MBEDTLS_SESSION_CACHE_TIMEOUT_SECONDS
 107:C:/Users/stapi/OneDrive/Desktop/GD32VW553/GD32VW55X_Wifi_BLE_SDK/GD32VW55x_RELEASE_V1.0.2/MSDK/lwip/lwip-2.1.2/src/apps/altcp_tls\altcp_tls_mbedtls.c ****   /** Inter-connection cache for fast connection startup */
 108:C:/Users/stapi/OneDrive/Desktop/GD32VW553/GD32VW55X_Wifi_BLE_SDK/GD32VW55x_RELEASE_V1.0.2/MSDK/lwip/lwip-2.1.2/src/apps/altcp_tls\altcp_tls_mbedtls.c ****   struct mbedtls_ssl_cache_context cache;
 109:C:/Users/stapi/OneDrive/Desktop/GD32VW553/GD32VW55X_Wifi_BLE_SDK/GD32VW55x_RELEASE_V1.0.2/MSDK/lwip/lwip-2.1.2/src/apps/altcp_tls\altcp_tls_mbedtls.c **** #endif
 110:C:/Users/stapi/OneDrive/Desktop/GD32VW553/GD32VW55X_Wifi_BLE_SDK/GD32VW55x_RELEASE_V1.0.2/MSDK/lwip/lwip-2.1.2/src/apps/altcp_tls\altcp_tls_mbedtls.c **** };
 111:C:/Users/stapi/OneDrive/Desktop/GD32VW553/GD32VW55X_Wifi_BLE_SDK/GD32VW55x_RELEASE_V1.0.2/MSDK/lwip/lwip-2.1.2/src/apps/altcp_tls\altcp_tls_mbedtls.c **** 
 112:C:/Users/stapi/OneDrive/Desktop/GD32VW553/GD32VW55X_Wifi_BLE_SDK/GD32VW55x_RELEASE_V1.0.2/MSDK/lwip/lwip-2.1.2/src/apps/altcp_tls\altcp_tls_mbedtls.c **** static err_t altcp_mbedtls_lower_recv(void *arg, struct altcp_pcb *inner_conn, struct pbuf *p, err_
 113:C:/Users/stapi/OneDrive/Desktop/GD32VW553/GD32VW55X_Wifi_BLE_SDK/GD32VW55x_RELEASE_V1.0.2/MSDK/lwip/lwip-2.1.2/src/apps/altcp_tls\altcp_tls_mbedtls.c **** static err_t altcp_mbedtls_setup(void *conf, struct altcp_pcb *conn, struct altcp_pcb *inner_conn);
 114:C:/Users/stapi/OneDrive/Desktop/GD32VW553/GD32VW55X_Wifi_BLE_SDK/GD32VW55x_RELEASE_V1.0.2/MSDK/lwip/lwip-2.1.2/src/apps/altcp_tls\altcp_tls_mbedtls.c **** static err_t altcp_mbedtls_lower_recv_process(struct altcp_pcb *conn, altcp_mbedtls_state_t *state)
 115:C:/Users/stapi/OneDrive/Desktop/GD32VW553/GD32VW55X_Wifi_BLE_SDK/GD32VW55x_RELEASE_V1.0.2/MSDK/lwip/lwip-2.1.2/src/apps/altcp_tls\altcp_tls_mbedtls.c **** static err_t altcp_mbedtls_handle_rx_appldata(struct altcp_pcb *conn, altcp_mbedtls_state_t *state)
 116:C:/Users/stapi/OneDrive/Desktop/GD32VW553/GD32VW55X_Wifi_BLE_SDK/GD32VW55x_RELEASE_V1.0.2/MSDK/lwip/lwip-2.1.2/src/apps/altcp_tls\altcp_tls_mbedtls.c **** static int altcp_mbedtls_bio_send(void *ctx, const unsigned char *dataptr, size_t size);
 117:C:/Users/stapi/OneDrive/Desktop/GD32VW553/GD32VW55X_Wifi_BLE_SDK/GD32VW55x_RELEASE_V1.0.2/MSDK/lwip/lwip-2.1.2/src/apps/altcp_tls\altcp_tls_mbedtls.c **** 
 118:C:/Users/stapi/OneDrive/Desktop/GD32VW553/GD32VW55X_Wifi_BLE_SDK/GD32VW55x_RELEASE_V1.0.2/MSDK/lwip/lwip-2.1.2/src/apps/altcp_tls\altcp_tls_mbedtls.c **** 
 119:C:/Users/stapi/OneDrive/Desktop/GD32VW553/GD32VW55X_Wifi_BLE_SDK/GD32VW55x_RELEASE_V1.0.2/MSDK/lwip/lwip-2.1.2/src/apps/altcp_tls\altcp_tls_mbedtls.c **** /* callback functions from inner/lower connection: */
 120:C:/Users/stapi/OneDrive/Desktop/GD32VW553/GD32VW55X_Wifi_BLE_SDK/GD32VW55x_RELEASE_V1.0.2/MSDK/lwip/lwip-2.1.2/src/apps/altcp_tls\altcp_tls_mbedtls.c **** 
 121:C:/Users/stapi/OneDrive/Desktop/GD32VW553/GD32VW55X_Wifi_BLE_SDK/GD32VW55x_RELEASE_V1.0.2/MSDK/lwip/lwip-2.1.2/src/apps/altcp_tls\altcp_tls_mbedtls.c **** /** Accept callback from lower connection (i.e. TCP)
 122:C:/Users/stapi/OneDrive/Desktop/GD32VW553/GD32VW55X_Wifi_BLE_SDK/GD32VW55x_RELEASE_V1.0.2/MSDK/lwip/lwip-2.1.2/src/apps/altcp_tls\altcp_tls_mbedtls.c ****  * Allocate one of our structures, assign it to the new connection's 'state' and
 123:C:/Users/stapi/OneDrive/Desktop/GD32VW553/GD32VW55X_Wifi_BLE_SDK/GD32VW55x_RELEASE_V1.0.2/MSDK/lwip/lwip-2.1.2/src/apps/altcp_tls\altcp_tls_mbedtls.c ****  * call the new connection's 'accepted' callback. If that succeeds, we wait
 124:C:/Users/stapi/OneDrive/Desktop/GD32VW553/GD32VW55X_Wifi_BLE_SDK/GD32VW55x_RELEASE_V1.0.2/MSDK/lwip/lwip-2.1.2/src/apps/altcp_tls\altcp_tls_mbedtls.c ****  * to receive connection setup handshake bytes from the client.
 125:C:/Users/stapi/OneDrive/Desktop/GD32VW553/GD32VW55X_Wifi_BLE_SDK/GD32VW55x_RELEASE_V1.0.2/MSDK/lwip/lwip-2.1.2/src/apps/altcp_tls\altcp_tls_mbedtls.c ****  */
 126:C:/Users/stapi/OneDrive/Desktop/GD32VW553/GD32VW55X_Wifi_BLE_SDK/GD32VW55x_RELEASE_V1.0.2/MSDK/lwip/lwip-2.1.2/src/apps/altcp_tls\altcp_tls_mbedtls.c **** static err_t
 127:C:/Users/stapi/OneDrive/Desktop/GD32VW553/GD32VW55X_Wifi_BLE_SDK/GD32VW55x_RELEASE_V1.0.2/MSDK/lwip/lwip-2.1.2/src/apps/altcp_tls\altcp_tls_mbedtls.c **** altcp_mbedtls_lower_accept(void *arg, struct altcp_pcb *accepted_conn, err_t err)
 128:C:/Users/stapi/OneDrive/Desktop/GD32VW553/GD32VW55X_Wifi_BLE_SDK/GD32VW55x_RELEASE_V1.0.2/MSDK/lwip/lwip-2.1.2/src/apps/altcp_tls\altcp_tls_mbedtls.c **** {
 129:C:/Users/stapi/OneDrive/Desktop/GD32VW553/GD32VW55X_Wifi_BLE_SDK/GD32VW55x_RELEASE_V1.0.2/MSDK/lwip/lwip-2.1.2/src/apps/altcp_tls\altcp_tls_mbedtls.c ****   struct altcp_pcb *listen_conn = (struct altcp_pcb *)arg;
 130:C:/Users/stapi/OneDrive/Desktop/GD32VW553/GD32VW55X_Wifi_BLE_SDK/GD32VW55x_RELEASE_V1.0.2/MSDK/lwip/lwip-2.1.2/src/apps/altcp_tls\altcp_tls_mbedtls.c ****   if (listen_conn && listen_conn->state && listen_conn->accept) {
 131:C:/Users/stapi/OneDrive/Desktop/GD32VW553/GD32VW55X_Wifi_BLE_SDK/GD32VW55x_RELEASE_V1.0.2/MSDK/lwip/lwip-2.1.2/src/apps/altcp_tls\altcp_tls_mbedtls.c ****     err_t setup_err;
 132:C:/Users/stapi/OneDrive/Desktop/GD32VW553/GD32VW55X_Wifi_BLE_SDK/GD32VW55x_RELEASE_V1.0.2/MSDK/lwip/lwip-2.1.2/src/apps/altcp_tls\altcp_tls_mbedtls.c ****     altcp_mbedtls_state_t *listen_state = (altcp_mbedtls_state_t *)listen_conn->state;
 133:C:/Users/stapi/OneDrive/Desktop/GD32VW553/GD32VW55X_Wifi_BLE_SDK/GD32VW55x_RELEASE_V1.0.2/MSDK/lwip/lwip-2.1.2/src/apps/altcp_tls\altcp_tls_mbedtls.c ****     /* create a new altcp_conn to pass to the next 'accept' callback */
 134:C:/Users/stapi/OneDrive/Desktop/GD32VW553/GD32VW55X_Wifi_BLE_SDK/GD32VW55x_RELEASE_V1.0.2/MSDK/lwip/lwip-2.1.2/src/apps/altcp_tls\altcp_tls_mbedtls.c ****     struct altcp_pcb *new_conn = altcp_alloc();
 135:C:/Users/stapi/OneDrive/Desktop/GD32VW553/GD32VW55X_Wifi_BLE_SDK/GD32VW55x_RELEASE_V1.0.2/MSDK/lwip/lwip-2.1.2/src/apps/altcp_tls\altcp_tls_mbedtls.c ****     if (new_conn == NULL) {
 136:C:/Users/stapi/OneDrive/Desktop/GD32VW553/GD32VW55X_Wifi_BLE_SDK/GD32VW55x_RELEASE_V1.0.2/MSDK/lwip/lwip-2.1.2/src/apps/altcp_tls\altcp_tls_mbedtls.c ****       return ERR_MEM;
 137:C:/Users/stapi/OneDrive/Desktop/GD32VW553/GD32VW55X_Wifi_BLE_SDK/GD32VW55x_RELEASE_V1.0.2/MSDK/lwip/lwip-2.1.2/src/apps/altcp_tls\altcp_tls_mbedtls.c ****     }
 138:C:/Users/stapi/OneDrive/Desktop/GD32VW553/GD32VW55X_Wifi_BLE_SDK/GD32VW55x_RELEASE_V1.0.2/MSDK/lwip/lwip-2.1.2/src/apps/altcp_tls\altcp_tls_mbedtls.c ****     setup_err = altcp_mbedtls_setup(listen_state->conf, new_conn, accepted_conn);
 139:C:/Users/stapi/OneDrive/Desktop/GD32VW553/GD32VW55X_Wifi_BLE_SDK/GD32VW55x_RELEASE_V1.0.2/MSDK/lwip/lwip-2.1.2/src/apps/altcp_tls\altcp_tls_mbedtls.c ****     if (setup_err != ERR_OK) {
 140:C:/Users/stapi/OneDrive/Desktop/GD32VW553/GD32VW55X_Wifi_BLE_SDK/GD32VW55x_RELEASE_V1.0.2/MSDK/lwip/lwip-2.1.2/src/apps/altcp_tls\altcp_tls_mbedtls.c ****       altcp_free(new_conn);
 141:C:/Users/stapi/OneDrive/Desktop/GD32VW553/GD32VW55X_Wifi_BLE_SDK/GD32VW55x_RELEASE_V1.0.2/MSDK/lwip/lwip-2.1.2/src/apps/altcp_tls\altcp_tls_mbedtls.c ****       return setup_err;
 142:C:/Users/stapi/OneDrive/Desktop/GD32VW553/GD32VW55X_Wifi_BLE_SDK/GD32VW55x_RELEASE_V1.0.2/MSDK/lwip/lwip-2.1.2/src/apps/altcp_tls\altcp_tls_mbedtls.c ****     }
 143:C:/Users/stapi/OneDrive/Desktop/GD32VW553/GD32VW55X_Wifi_BLE_SDK/GD32VW55x_RELEASE_V1.0.2/MSDK/lwip/lwip-2.1.2/src/apps/altcp_tls\altcp_tls_mbedtls.c ****     return listen_conn->accept(listen_conn->arg, new_conn, err);
 144:C:/Users/stapi/OneDrive/Desktop/GD32VW553/GD32VW55X_Wifi_BLE_SDK/GD32VW55x_RELEASE_V1.0.2/MSDK/lwip/lwip-2.1.2/src/apps/altcp_tls\altcp_tls_mbedtls.c ****   }
 145:C:/Users/stapi/OneDrive/Desktop/GD32VW553/GD32VW55X_Wifi_BLE_SDK/GD32VW55x_RELEASE_V1.0.2/MSDK/lwip/lwip-2.1.2/src/apps/altcp_tls\altcp_tls_mbedtls.c ****   return ERR_ARG;
 146:C:/Users/stapi/OneDrive/Desktop/GD32VW553/GD32VW55X_Wifi_BLE_SDK/GD32VW55x_RELEASE_V1.0.2/MSDK/lwip/lwip-2.1.2/src/apps/altcp_tls\altcp_tls_mbedtls.c **** }
 147:C:/Users/stapi/OneDrive/Desktop/GD32VW553/GD32VW55X_Wifi_BLE_SDK/GD32VW55x_RELEASE_V1.0.2/MSDK/lwip/lwip-2.1.2/src/apps/altcp_tls\altcp_tls_mbedtls.c **** 
 148:C:/Users/stapi/OneDrive/Desktop/GD32VW553/GD32VW55X_Wifi_BLE_SDK/GD32VW55x_RELEASE_V1.0.2/MSDK/lwip/lwip-2.1.2/src/apps/altcp_tls\altcp_tls_mbedtls.c **** /** Connected callback from lower connection (i.e. TCP).
 149:C:/Users/stapi/OneDrive/Desktop/GD32VW553/GD32VW55X_Wifi_BLE_SDK/GD32VW55x_RELEASE_V1.0.2/MSDK/lwip/lwip-2.1.2/src/apps/altcp_tls\altcp_tls_mbedtls.c ****  * Not really implemented/tested yet...
 150:C:/Users/stapi/OneDrive/Desktop/GD32VW553/GD32VW55X_Wifi_BLE_SDK/GD32VW55x_RELEASE_V1.0.2/MSDK/lwip/lwip-2.1.2/src/apps/altcp_tls\altcp_tls_mbedtls.c ****  */
 151:C:/Users/stapi/OneDrive/Desktop/GD32VW553/GD32VW55X_Wifi_BLE_SDK/GD32VW55x_RELEASE_V1.0.2/MSDK/lwip/lwip-2.1.2/src/apps/altcp_tls\altcp_tls_mbedtls.c **** static err_t
 152:C:/Users/stapi/OneDrive/Desktop/GD32VW553/GD32VW55X_Wifi_BLE_SDK/GD32VW55x_RELEASE_V1.0.2/MSDK/lwip/lwip-2.1.2/src/apps/altcp_tls\altcp_tls_mbedtls.c **** altcp_mbedtls_lower_connected(void *arg, struct altcp_pcb *inner_conn, err_t err)
 153:C:/Users/stapi/OneDrive/Desktop/GD32VW553/GD32VW55X_Wifi_BLE_SDK/GD32VW55x_RELEASE_V1.0.2/MSDK/lwip/lwip-2.1.2/src/apps/altcp_tls\altcp_tls_mbedtls.c **** {
 154:C:/Users/stapi/OneDrive/Desktop/GD32VW553/GD32VW55X_Wifi_BLE_SDK/GD32VW55x_RELEASE_V1.0.2/MSDK/lwip/lwip-2.1.2/src/apps/altcp_tls\altcp_tls_mbedtls.c ****   struct altcp_pcb *conn = (struct altcp_pcb *)arg;
 155:C:/Users/stapi/OneDrive/Desktop/GD32VW553/GD32VW55X_Wifi_BLE_SDK/GD32VW55x_RELEASE_V1.0.2/MSDK/lwip/lwip-2.1.2/src/apps/altcp_tls\altcp_tls_mbedtls.c ****   LWIP_UNUSED_ARG(inner_conn); /* for LWIP_NOASSERT */
 156:C:/Users/stapi/OneDrive/Desktop/GD32VW553/GD32VW55X_Wifi_BLE_SDK/GD32VW55x_RELEASE_V1.0.2/MSDK/lwip/lwip-2.1.2/src/apps/altcp_tls\altcp_tls_mbedtls.c ****   if (conn && conn->state) {
 157:C:/Users/stapi/OneDrive/Desktop/GD32VW553/GD32VW55X_Wifi_BLE_SDK/GD32VW55x_RELEASE_V1.0.2/MSDK/lwip/lwip-2.1.2/src/apps/altcp_tls\altcp_tls_mbedtls.c ****     LWIP_ASSERT("pcb mismatch", conn->inner_conn == inner_conn);
 158:C:/Users/stapi/OneDrive/Desktop/GD32VW553/GD32VW55X_Wifi_BLE_SDK/GD32VW55x_RELEASE_V1.0.2/MSDK/lwip/lwip-2.1.2/src/apps/altcp_tls\altcp_tls_mbedtls.c ****     /* upper connected is called when handshake is done */
 159:C:/Users/stapi/OneDrive/Desktop/GD32VW553/GD32VW55X_Wifi_BLE_SDK/GD32VW55x_RELEASE_V1.0.2/MSDK/lwip/lwip-2.1.2/src/apps/altcp_tls\altcp_tls_mbedtls.c ****     if (err != ERR_OK) {
 160:C:/Users/stapi/OneDrive/Desktop/GD32VW553/GD32VW55X_Wifi_BLE_SDK/GD32VW55x_RELEASE_V1.0.2/MSDK/lwip/lwip-2.1.2/src/apps/altcp_tls\altcp_tls_mbedtls.c ****       if (conn->connected) {
 161:C:/Users/stapi/OneDrive/Desktop/GD32VW553/GD32VW55X_Wifi_BLE_SDK/GD32VW55x_RELEASE_V1.0.2/MSDK/lwip/lwip-2.1.2/src/apps/altcp_tls\altcp_tls_mbedtls.c ****         return conn->connected(conn->arg, conn, err);
 162:C:/Users/stapi/OneDrive/Desktop/GD32VW553/GD32VW55X_Wifi_BLE_SDK/GD32VW55x_RELEASE_V1.0.2/MSDK/lwip/lwip-2.1.2/src/apps/altcp_tls\altcp_tls_mbedtls.c ****       }
 163:C:/Users/stapi/OneDrive/Desktop/GD32VW553/GD32VW55X_Wifi_BLE_SDK/GD32VW55x_RELEASE_V1.0.2/MSDK/lwip/lwip-2.1.2/src/apps/altcp_tls\altcp_tls_mbedtls.c ****     }
 164:C:/Users/stapi/OneDrive/Desktop/GD32VW553/GD32VW55X_Wifi_BLE_SDK/GD32VW55x_RELEASE_V1.0.2/MSDK/lwip/lwip-2.1.2/src/apps/altcp_tls\altcp_tls_mbedtls.c ****     return altcp_mbedtls_lower_recv_process(conn, (altcp_mbedtls_state_t *)conn->state);
 165:C:/Users/stapi/OneDrive/Desktop/GD32VW553/GD32VW55X_Wifi_BLE_SDK/GD32VW55x_RELEASE_V1.0.2/MSDK/lwip/lwip-2.1.2/src/apps/altcp_tls\altcp_tls_mbedtls.c ****   }
 166:C:/Users/stapi/OneDrive/Desktop/GD32VW553/GD32VW55X_Wifi_BLE_SDK/GD32VW55x_RELEASE_V1.0.2/MSDK/lwip/lwip-2.1.2/src/apps/altcp_tls\altcp_tls_mbedtls.c ****   return ERR_VAL;
 167:C:/Users/stapi/OneDrive/Desktop/GD32VW553/GD32VW55X_Wifi_BLE_SDK/GD32VW55x_RELEASE_V1.0.2/MSDK/lwip/lwip-2.1.2/src/apps/altcp_tls\altcp_tls_mbedtls.c **** }
 168:C:/Users/stapi/OneDrive/Desktop/GD32VW553/GD32VW55X_Wifi_BLE_SDK/GD32VW55x_RELEASE_V1.0.2/MSDK/lwip/lwip-2.1.2/src/apps/altcp_tls\altcp_tls_mbedtls.c **** 
 169:C:/Users/stapi/OneDrive/Desktop/GD32VW553/GD32VW55X_Wifi_BLE_SDK/GD32VW55x_RELEASE_V1.0.2/MSDK/lwip/lwip-2.1.2/src/apps/altcp_tls\altcp_tls_mbedtls.c **** /* Call recved for possibly more than an u16_t */
 170:C:/Users/stapi/OneDrive/Desktop/GD32VW553/GD32VW55X_Wifi_BLE_SDK/GD32VW55x_RELEASE_V1.0.2/MSDK/lwip/lwip-2.1.2/src/apps/altcp_tls\altcp_tls_mbedtls.c **** static void
 171:C:/Users/stapi/OneDrive/Desktop/GD32VW553/GD32VW55X_Wifi_BLE_SDK/GD32VW55x_RELEASE_V1.0.2/MSDK/lwip/lwip-2.1.2/src/apps/altcp_tls\altcp_tls_mbedtls.c **** altcp_mbedtls_lower_recved(struct altcp_pcb *inner_conn, int recvd_cnt)
 172:C:/Users/stapi/OneDrive/Desktop/GD32VW553/GD32VW55X_Wifi_BLE_SDK/GD32VW55x_RELEASE_V1.0.2/MSDK/lwip/lwip-2.1.2/src/apps/altcp_tls\altcp_tls_mbedtls.c **** {
 173:C:/Users/stapi/OneDrive/Desktop/GD32VW553/GD32VW55X_Wifi_BLE_SDK/GD32VW55x_RELEASE_V1.0.2/MSDK/lwip/lwip-2.1.2/src/apps/altcp_tls\altcp_tls_mbedtls.c ****   while (recvd_cnt > 0) {
 174:C:/Users/stapi/OneDrive/Desktop/GD32VW553/GD32VW55X_Wifi_BLE_SDK/GD32VW55x_RELEASE_V1.0.2/MSDK/lwip/lwip-2.1.2/src/apps/altcp_tls\altcp_tls_mbedtls.c ****     u16_t recvd_part = (u16_t)LWIP_MIN(recvd_cnt, 0xFFFF);
 175:C:/Users/stapi/OneDrive/Desktop/GD32VW553/GD32VW55X_Wifi_BLE_SDK/GD32VW55x_RELEASE_V1.0.2/MSDK/lwip/lwip-2.1.2/src/apps/altcp_tls\altcp_tls_mbedtls.c ****     altcp_recved(inner_conn, recvd_part);
 176:C:/Users/stapi/OneDrive/Desktop/GD32VW553/GD32VW55X_Wifi_BLE_SDK/GD32VW55x_RELEASE_V1.0.2/MSDK/lwip/lwip-2.1.2/src/apps/altcp_tls\altcp_tls_mbedtls.c ****     recvd_cnt -= recvd_part;
 177:C:/Users/stapi/OneDrive/Desktop/GD32VW553/GD32VW55X_Wifi_BLE_SDK/GD32VW55x_RELEASE_V1.0.2/MSDK/lwip/lwip-2.1.2/src/apps/altcp_tls\altcp_tls_mbedtls.c ****   }
 178:C:/Users/stapi/OneDrive/Desktop/GD32VW553/GD32VW55X_Wifi_BLE_SDK/GD32VW55x_RELEASE_V1.0.2/MSDK/lwip/lwip-2.1.2/src/apps/altcp_tls\altcp_tls_mbedtls.c **** }
 179:C:/Users/stapi/OneDrive/Desktop/GD32VW553/GD32VW55X_Wifi_BLE_SDK/GD32VW55x_RELEASE_V1.0.2/MSDK/lwip/lwip-2.1.2/src/apps/altcp_tls\altcp_tls_mbedtls.c **** 
 180:C:/Users/stapi/OneDrive/Desktop/GD32VW553/GD32VW55X_Wifi_BLE_SDK/GD32VW55x_RELEASE_V1.0.2/MSDK/lwip/lwip-2.1.2/src/apps/altcp_tls\altcp_tls_mbedtls.c **** /** Recv callback from lower connection (i.e. TCP)
 181:C:/Users/stapi/OneDrive/Desktop/GD32VW553/GD32VW55X_Wifi_BLE_SDK/GD32VW55x_RELEASE_V1.0.2/MSDK/lwip/lwip-2.1.2/src/apps/altcp_tls\altcp_tls_mbedtls.c ****  * This one mainly differs between connection setup/handshake (data is fed into mbedTLS only)
 182:C:/Users/stapi/OneDrive/Desktop/GD32VW553/GD32VW55X_Wifi_BLE_SDK/GD32VW55x_RELEASE_V1.0.2/MSDK/lwip/lwip-2.1.2/src/apps/altcp_tls\altcp_tls_mbedtls.c ****  * and application phase (data is decoded by mbedTLS and passed on to the application).
 183:C:/Users/stapi/OneDrive/Desktop/GD32VW553/GD32VW55X_Wifi_BLE_SDK/GD32VW55x_RELEASE_V1.0.2/MSDK/lwip/lwip-2.1.2/src/apps/altcp_tls\altcp_tls_mbedtls.c ****  */
 184:C:/Users/stapi/OneDrive/Desktop/GD32VW553/GD32VW55X_Wifi_BLE_SDK/GD32VW55x_RELEASE_V1.0.2/MSDK/lwip/lwip-2.1.2/src/apps/altcp_tls\altcp_tls_mbedtls.c **** static err_t
 185:C:/Users/stapi/OneDrive/Desktop/GD32VW553/GD32VW55X_Wifi_BLE_SDK/GD32VW55x_RELEASE_V1.0.2/MSDK/lwip/lwip-2.1.2/src/apps/altcp_tls\altcp_tls_mbedtls.c **** altcp_mbedtls_lower_recv(void *arg, struct altcp_pcb *inner_conn, struct pbuf *p, err_t err)
 186:C:/Users/stapi/OneDrive/Desktop/GD32VW553/GD32VW55X_Wifi_BLE_SDK/GD32VW55x_RELEASE_V1.0.2/MSDK/lwip/lwip-2.1.2/src/apps/altcp_tls\altcp_tls_mbedtls.c **** {
 187:C:/Users/stapi/OneDrive/Desktop/GD32VW553/GD32VW55X_Wifi_BLE_SDK/GD32VW55x_RELEASE_V1.0.2/MSDK/lwip/lwip-2.1.2/src/apps/altcp_tls\altcp_tls_mbedtls.c ****   altcp_mbedtls_state_t *state;
 188:C:/Users/stapi/OneDrive/Desktop/GD32VW553/GD32VW55X_Wifi_BLE_SDK/GD32VW55x_RELEASE_V1.0.2/MSDK/lwip/lwip-2.1.2/src/apps/altcp_tls\altcp_tls_mbedtls.c ****   struct altcp_pcb *conn = (struct altcp_pcb *)arg;
 189:C:/Users/stapi/OneDrive/Desktop/GD32VW553/GD32VW55X_Wifi_BLE_SDK/GD32VW55x_RELEASE_V1.0.2/MSDK/lwip/lwip-2.1.2/src/apps/altcp_tls\altcp_tls_mbedtls.c **** 
 190:C:/Users/stapi/OneDrive/Desktop/GD32VW553/GD32VW55X_Wifi_BLE_SDK/GD32VW55x_RELEASE_V1.0.2/MSDK/lwip/lwip-2.1.2/src/apps/altcp_tls\altcp_tls_mbedtls.c ****   LWIP_ASSERT("no err expected", err == ERR_OK);
 191:C:/Users/stapi/OneDrive/Desktop/GD32VW553/GD32VW55X_Wifi_BLE_SDK/GD32VW55x_RELEASE_V1.0.2/MSDK/lwip/lwip-2.1.2/src/apps/altcp_tls\altcp_tls_mbedtls.c ****   LWIP_UNUSED_ARG(err);
 192:C:/Users/stapi/OneDrive/Desktop/GD32VW553/GD32VW55X_Wifi_BLE_SDK/GD32VW55x_RELEASE_V1.0.2/MSDK/lwip/lwip-2.1.2/src/apps/altcp_tls\altcp_tls_mbedtls.c **** 
 193:C:/Users/stapi/OneDrive/Desktop/GD32VW553/GD32VW55X_Wifi_BLE_SDK/GD32VW55x_RELEASE_V1.0.2/MSDK/lwip/lwip-2.1.2/src/apps/altcp_tls\altcp_tls_mbedtls.c ****   if (!conn) {
 194:C:/Users/stapi/OneDrive/Desktop/GD32VW553/GD32VW55X_Wifi_BLE_SDK/GD32VW55x_RELEASE_V1.0.2/MSDK/lwip/lwip-2.1.2/src/apps/altcp_tls\altcp_tls_mbedtls.c ****     /* no connection given as arg? should not happen, but prevent pbuf/conn leaks */
 195:C:/Users/stapi/OneDrive/Desktop/GD32VW553/GD32VW55X_Wifi_BLE_SDK/GD32VW55x_RELEASE_V1.0.2/MSDK/lwip/lwip-2.1.2/src/apps/altcp_tls\altcp_tls_mbedtls.c ****     if (p != NULL) {
 196:C:/Users/stapi/OneDrive/Desktop/GD32VW553/GD32VW55X_Wifi_BLE_SDK/GD32VW55x_RELEASE_V1.0.2/MSDK/lwip/lwip-2.1.2/src/apps/altcp_tls\altcp_tls_mbedtls.c ****       pbuf_free(p);
 197:C:/Users/stapi/OneDrive/Desktop/GD32VW553/GD32VW55X_Wifi_BLE_SDK/GD32VW55x_RELEASE_V1.0.2/MSDK/lwip/lwip-2.1.2/src/apps/altcp_tls\altcp_tls_mbedtls.c ****     }
 198:C:/Users/stapi/OneDrive/Desktop/GD32VW553/GD32VW55X_Wifi_BLE_SDK/GD32VW55x_RELEASE_V1.0.2/MSDK/lwip/lwip-2.1.2/src/apps/altcp_tls\altcp_tls_mbedtls.c ****     altcp_close(inner_conn);
 199:C:/Users/stapi/OneDrive/Desktop/GD32VW553/GD32VW55X_Wifi_BLE_SDK/GD32VW55x_RELEASE_V1.0.2/MSDK/lwip/lwip-2.1.2/src/apps/altcp_tls\altcp_tls_mbedtls.c ****     return ERR_CLSD;
 200:C:/Users/stapi/OneDrive/Desktop/GD32VW553/GD32VW55X_Wifi_BLE_SDK/GD32VW55x_RELEASE_V1.0.2/MSDK/lwip/lwip-2.1.2/src/apps/altcp_tls\altcp_tls_mbedtls.c ****   }
 201:C:/Users/stapi/OneDrive/Desktop/GD32VW553/GD32VW55X_Wifi_BLE_SDK/GD32VW55x_RELEASE_V1.0.2/MSDK/lwip/lwip-2.1.2/src/apps/altcp_tls\altcp_tls_mbedtls.c ****   state = (altcp_mbedtls_state_t *)conn->state;
 202:C:/Users/stapi/OneDrive/Desktop/GD32VW553/GD32VW55X_Wifi_BLE_SDK/GD32VW55x_RELEASE_V1.0.2/MSDK/lwip/lwip-2.1.2/src/apps/altcp_tls\altcp_tls_mbedtls.c ****   LWIP_ASSERT("pcb mismatch", conn->inner_conn == inner_conn);
 203:C:/Users/stapi/OneDrive/Desktop/GD32VW553/GD32VW55X_Wifi_BLE_SDK/GD32VW55x_RELEASE_V1.0.2/MSDK/lwip/lwip-2.1.2/src/apps/altcp_tls\altcp_tls_mbedtls.c ****   if (!state) {
 204:C:/Users/stapi/OneDrive/Desktop/GD32VW553/GD32VW55X_Wifi_BLE_SDK/GD32VW55x_RELEASE_V1.0.2/MSDK/lwip/lwip-2.1.2/src/apps/altcp_tls\altcp_tls_mbedtls.c ****     /* already closed */
 205:C:/Users/stapi/OneDrive/Desktop/GD32VW553/GD32VW55X_Wifi_BLE_SDK/GD32VW55x_RELEASE_V1.0.2/MSDK/lwip/lwip-2.1.2/src/apps/altcp_tls\altcp_tls_mbedtls.c ****     if (p != NULL) {
 206:C:/Users/stapi/OneDrive/Desktop/GD32VW553/GD32VW55X_Wifi_BLE_SDK/GD32VW55x_RELEASE_V1.0.2/MSDK/lwip/lwip-2.1.2/src/apps/altcp_tls\altcp_tls_mbedtls.c ****       pbuf_free(p);
 207:C:/Users/stapi/OneDrive/Desktop/GD32VW553/GD32VW55X_Wifi_BLE_SDK/GD32VW55x_RELEASE_V1.0.2/MSDK/lwip/lwip-2.1.2/src/apps/altcp_tls\altcp_tls_mbedtls.c ****     }
 208:C:/Users/stapi/OneDrive/Desktop/GD32VW553/GD32VW55X_Wifi_BLE_SDK/GD32VW55x_RELEASE_V1.0.2/MSDK/lwip/lwip-2.1.2/src/apps/altcp_tls\altcp_tls_mbedtls.c ****     altcp_close(inner_conn);
 209:C:/Users/stapi/OneDrive/Desktop/GD32VW553/GD32VW55X_Wifi_BLE_SDK/GD32VW55x_RELEASE_V1.0.2/MSDK/lwip/lwip-2.1.2/src/apps/altcp_tls\altcp_tls_mbedtls.c ****     return ERR_CLSD;
 210:C:/Users/stapi/OneDrive/Desktop/GD32VW553/GD32VW55X_Wifi_BLE_SDK/GD32VW55x_RELEASE_V1.0.2/MSDK/lwip/lwip-2.1.2/src/apps/altcp_tls\altcp_tls_mbedtls.c ****   }
 211:C:/Users/stapi/OneDrive/Desktop/GD32VW553/GD32VW55X_Wifi_BLE_SDK/GD32VW55x_RELEASE_V1.0.2/MSDK/lwip/lwip-2.1.2/src/apps/altcp_tls\altcp_tls_mbedtls.c **** 
 212:C:/Users/stapi/OneDrive/Desktop/GD32VW553/GD32VW55X_Wifi_BLE_SDK/GD32VW55x_RELEASE_V1.0.2/MSDK/lwip/lwip-2.1.2/src/apps/altcp_tls\altcp_tls_mbedtls.c ****   /* handle NULL pbuf (inner connection closed) */
 213:C:/Users/stapi/OneDrive/Desktop/GD32VW553/GD32VW55X_Wifi_BLE_SDK/GD32VW55x_RELEASE_V1.0.2/MSDK/lwip/lwip-2.1.2/src/apps/altcp_tls\altcp_tls_mbedtls.c ****   if (p == NULL) {
 214:C:/Users/stapi/OneDrive/Desktop/GD32VW553/GD32VW55X_Wifi_BLE_SDK/GD32VW55x_RELEASE_V1.0.2/MSDK/lwip/lwip-2.1.2/src/apps/altcp_tls\altcp_tls_mbedtls.c ****     /* remote host sent FIN, remember this (SSL state is destroyed
 215:C:/Users/stapi/OneDrive/Desktop/GD32VW553/GD32VW55X_Wifi_BLE_SDK/GD32VW55x_RELEASE_V1.0.2/MSDK/lwip/lwip-2.1.2/src/apps/altcp_tls\altcp_tls_mbedtls.c ****         when both sides are closed only!) */
 216:C:/Users/stapi/OneDrive/Desktop/GD32VW553/GD32VW55X_Wifi_BLE_SDK/GD32VW55x_RELEASE_V1.0.2/MSDK/lwip/lwip-2.1.2/src/apps/altcp_tls\altcp_tls_mbedtls.c ****     if ((state->flags & (ALTCP_MBEDTLS_FLAGS_HANDSHAKE_DONE | ALTCP_MBEDTLS_FLAGS_UPPER_CALLED)) ==
 217:C:/Users/stapi/OneDrive/Desktop/GD32VW553/GD32VW55X_Wifi_BLE_SDK/GD32VW55x_RELEASE_V1.0.2/MSDK/lwip/lwip-2.1.2/src/apps/altcp_tls\altcp_tls_mbedtls.c ****         (ALTCP_MBEDTLS_FLAGS_HANDSHAKE_DONE | ALTCP_MBEDTLS_FLAGS_UPPER_CALLED)) {
 218:C:/Users/stapi/OneDrive/Desktop/GD32VW553/GD32VW55X_Wifi_BLE_SDK/GD32VW55x_RELEASE_V1.0.2/MSDK/lwip/lwip-2.1.2/src/apps/altcp_tls\altcp_tls_mbedtls.c ****       /* need to notify upper layer (e.g. 'accept' called or 'connect' succeeded) */
 219:C:/Users/stapi/OneDrive/Desktop/GD32VW553/GD32VW55X_Wifi_BLE_SDK/GD32VW55x_RELEASE_V1.0.2/MSDK/lwip/lwip-2.1.2/src/apps/altcp_tls\altcp_tls_mbedtls.c ****       if ((state->rx != NULL) || (state->rx_app != NULL)) {
 220:C:/Users/stapi/OneDrive/Desktop/GD32VW553/GD32VW55X_Wifi_BLE_SDK/GD32VW55x_RELEASE_V1.0.2/MSDK/lwip/lwip-2.1.2/src/apps/altcp_tls\altcp_tls_mbedtls.c ****         state->flags |= ALTCP_MBEDTLS_FLAGS_RX_CLOSE_QUEUED;
 221:C:/Users/stapi/OneDrive/Desktop/GD32VW553/GD32VW55X_Wifi_BLE_SDK/GD32VW55x_RELEASE_V1.0.2/MSDK/lwip/lwip-2.1.2/src/apps/altcp_tls\altcp_tls_mbedtls.c ****         /* this is a normal close (FIN) but we have unprocessed data, so delay the FIN */
 222:C:/Users/stapi/OneDrive/Desktop/GD32VW553/GD32VW55X_Wifi_BLE_SDK/GD32VW55x_RELEASE_V1.0.2/MSDK/lwip/lwip-2.1.2/src/apps/altcp_tls\altcp_tls_mbedtls.c ****         altcp_mbedtls_handle_rx_appldata(conn, state);
 223:C:/Users/stapi/OneDrive/Desktop/GD32VW553/GD32VW55X_Wifi_BLE_SDK/GD32VW55x_RELEASE_V1.0.2/MSDK/lwip/lwip-2.1.2/src/apps/altcp_tls\altcp_tls_mbedtls.c ****         return ERR_OK;
 224:C:/Users/stapi/OneDrive/Desktop/GD32VW553/GD32VW55X_Wifi_BLE_SDK/GD32VW55x_RELEASE_V1.0.2/MSDK/lwip/lwip-2.1.2/src/apps/altcp_tls\altcp_tls_mbedtls.c ****       }
 225:C:/Users/stapi/OneDrive/Desktop/GD32VW553/GD32VW55X_Wifi_BLE_SDK/GD32VW55x_RELEASE_V1.0.2/MSDK/lwip/lwip-2.1.2/src/apps/altcp_tls\altcp_tls_mbedtls.c ****       state->flags |= ALTCP_MBEDTLS_FLAGS_RX_CLOSED;
 226:C:/Users/stapi/OneDrive/Desktop/GD32VW553/GD32VW55X_Wifi_BLE_SDK/GD32VW55x_RELEASE_V1.0.2/MSDK/lwip/lwip-2.1.2/src/apps/altcp_tls\altcp_tls_mbedtls.c ****       if (conn->recv) {
 227:C:/Users/stapi/OneDrive/Desktop/GD32VW553/GD32VW55X_Wifi_BLE_SDK/GD32VW55x_RELEASE_V1.0.2/MSDK/lwip/lwip-2.1.2/src/apps/altcp_tls\altcp_tls_mbedtls.c ****         return conn->recv(conn->arg, conn, NULL, ERR_OK);
 228:C:/Users/stapi/OneDrive/Desktop/GD32VW553/GD32VW55X_Wifi_BLE_SDK/GD32VW55x_RELEASE_V1.0.2/MSDK/lwip/lwip-2.1.2/src/apps/altcp_tls\altcp_tls_mbedtls.c ****       }
 229:C:/Users/stapi/OneDrive/Desktop/GD32VW553/GD32VW55X_Wifi_BLE_SDK/GD32VW55x_RELEASE_V1.0.2/MSDK/lwip/lwip-2.1.2/src/apps/altcp_tls\altcp_tls_mbedtls.c ****     } else {
 230:C:/Users/stapi/OneDrive/Desktop/GD32VW553/GD32VW55X_Wifi_BLE_SDK/GD32VW55x_RELEASE_V1.0.2/MSDK/lwip/lwip-2.1.2/src/apps/altcp_tls\altcp_tls_mbedtls.c ****       /* before connection setup is done: call 'err' */
 231:C:/Users/stapi/OneDrive/Desktop/GD32VW553/GD32VW55X_Wifi_BLE_SDK/GD32VW55x_RELEASE_V1.0.2/MSDK/lwip/lwip-2.1.2/src/apps/altcp_tls\altcp_tls_mbedtls.c ****       if (conn->err) {
 232:C:/Users/stapi/OneDrive/Desktop/GD32VW553/GD32VW55X_Wifi_BLE_SDK/GD32VW55x_RELEASE_V1.0.2/MSDK/lwip/lwip-2.1.2/src/apps/altcp_tls\altcp_tls_mbedtls.c ****         conn->err(conn->arg, ERR_CLSD);
 233:C:/Users/stapi/OneDrive/Desktop/GD32VW553/GD32VW55X_Wifi_BLE_SDK/GD32VW55x_RELEASE_V1.0.2/MSDK/lwip/lwip-2.1.2/src/apps/altcp_tls\altcp_tls_mbedtls.c ****       }
 234:C:/Users/stapi/OneDrive/Desktop/GD32VW553/GD32VW55X_Wifi_BLE_SDK/GD32VW55x_RELEASE_V1.0.2/MSDK/lwip/lwip-2.1.2/src/apps/altcp_tls\altcp_tls_mbedtls.c ****       altcp_close(conn);
 235:C:/Users/stapi/OneDrive/Desktop/GD32VW553/GD32VW55X_Wifi_BLE_SDK/GD32VW55x_RELEASE_V1.0.2/MSDK/lwip/lwip-2.1.2/src/apps/altcp_tls\altcp_tls_mbedtls.c ****     }
 236:C:/Users/stapi/OneDrive/Desktop/GD32VW553/GD32VW55X_Wifi_BLE_SDK/GD32VW55x_RELEASE_V1.0.2/MSDK/lwip/lwip-2.1.2/src/apps/altcp_tls\altcp_tls_mbedtls.c ****     return ERR_OK;
 237:C:/Users/stapi/OneDrive/Desktop/GD32VW553/GD32VW55X_Wifi_BLE_SDK/GD32VW55x_RELEASE_V1.0.2/MSDK/lwip/lwip-2.1.2/src/apps/altcp_tls\altcp_tls_mbedtls.c ****   }
 238:C:/Users/stapi/OneDrive/Desktop/GD32VW553/GD32VW55X_Wifi_BLE_SDK/GD32VW55x_RELEASE_V1.0.2/MSDK/lwip/lwip-2.1.2/src/apps/altcp_tls\altcp_tls_mbedtls.c **** 
 239:C:/Users/stapi/OneDrive/Desktop/GD32VW553/GD32VW55X_Wifi_BLE_SDK/GD32VW55x_RELEASE_V1.0.2/MSDK/lwip/lwip-2.1.2/src/apps/altcp_tls\altcp_tls_mbedtls.c ****   /* If we come here, the connection is in good state (handshake phase or application data phase).
 240:C:/Users/stapi/OneDrive/Desktop/GD32VW553/GD32VW55X_Wifi_BLE_SDK/GD32VW55x_RELEASE_V1.0.2/MSDK/lwip/lwip-2.1.2/src/apps/altcp_tls\altcp_tls_mbedtls.c ****      Queue up the pbuf for processing as handshake data or application data. */
 241:C:/Users/stapi/OneDrive/Desktop/GD32VW553/GD32VW55X_Wifi_BLE_SDK/GD32VW55x_RELEASE_V1.0.2/MSDK/lwip/lwip-2.1.2/src/apps/altcp_tls\altcp_tls_mbedtls.c ****   if (state->rx == NULL) {
 242:C:/Users/stapi/OneDrive/Desktop/GD32VW553/GD32VW55X_Wifi_BLE_SDK/GD32VW55x_RELEASE_V1.0.2/MSDK/lwip/lwip-2.1.2/src/apps/altcp_tls\altcp_tls_mbedtls.c ****     state->rx = p;
 243:C:/Users/stapi/OneDrive/Desktop/GD32VW553/GD32VW55X_Wifi_BLE_SDK/GD32VW55x_RELEASE_V1.0.2/MSDK/lwip/lwip-2.1.2/src/apps/altcp_tls\altcp_tls_mbedtls.c ****   } else {
 244:C:/Users/stapi/OneDrive/Desktop/GD32VW553/GD32VW55X_Wifi_BLE_SDK/GD32VW55x_RELEASE_V1.0.2/MSDK/lwip/lwip-2.1.2/src/apps/altcp_tls\altcp_tls_mbedtls.c ****     LWIP_ASSERT("rx pbuf overflow", (int)p->tot_len + (int)p->len <= 0xFFFF);
 245:C:/Users/stapi/OneDrive/Desktop/GD32VW553/GD32VW55X_Wifi_BLE_SDK/GD32VW55x_RELEASE_V1.0.2/MSDK/lwip/lwip-2.1.2/src/apps/altcp_tls\altcp_tls_mbedtls.c ****     pbuf_cat(state->rx, p);
 246:C:/Users/stapi/OneDrive/Desktop/GD32VW553/GD32VW55X_Wifi_BLE_SDK/GD32VW55x_RELEASE_V1.0.2/MSDK/lwip/lwip-2.1.2/src/apps/altcp_tls\altcp_tls_mbedtls.c ****   }
 247:C:/Users/stapi/OneDrive/Desktop/GD32VW553/GD32VW55X_Wifi_BLE_SDK/GD32VW55x_RELEASE_V1.0.2/MSDK/lwip/lwip-2.1.2/src/apps/altcp_tls\altcp_tls_mbedtls.c ****   return altcp_mbedtls_lower_recv_process(conn, state);
 248:C:/Users/stapi/OneDrive/Desktop/GD32VW553/GD32VW55X_Wifi_BLE_SDK/GD32VW55x_RELEASE_V1.0.2/MSDK/lwip/lwip-2.1.2/src/apps/altcp_tls\altcp_tls_mbedtls.c **** }
 249:C:/Users/stapi/OneDrive/Desktop/GD32VW553/GD32VW55X_Wifi_BLE_SDK/GD32VW55x_RELEASE_V1.0.2/MSDK/lwip/lwip-2.1.2/src/apps/altcp_tls\altcp_tls_mbedtls.c **** 
 250:C:/Users/stapi/OneDrive/Desktop/GD32VW553/GD32VW55X_Wifi_BLE_SDK/GD32VW55x_RELEASE_V1.0.2/MSDK/lwip/lwip-2.1.2/src/apps/altcp_tls\altcp_tls_mbedtls.c **** static err_t
 251:C:/Users/stapi/OneDrive/Desktop/GD32VW553/GD32VW55X_Wifi_BLE_SDK/GD32VW55x_RELEASE_V1.0.2/MSDK/lwip/lwip-2.1.2/src/apps/altcp_tls\altcp_tls_mbedtls.c **** altcp_mbedtls_lower_recv_process(struct altcp_pcb *conn, altcp_mbedtls_state_t *state)
 252:C:/Users/stapi/OneDrive/Desktop/GD32VW553/GD32VW55X_Wifi_BLE_SDK/GD32VW55x_RELEASE_V1.0.2/MSDK/lwip/lwip-2.1.2/src/apps/altcp_tls\altcp_tls_mbedtls.c **** {
 253:C:/Users/stapi/OneDrive/Desktop/GD32VW553/GD32VW55X_Wifi_BLE_SDK/GD32VW55x_RELEASE_V1.0.2/MSDK/lwip/lwip-2.1.2/src/apps/altcp_tls\altcp_tls_mbedtls.c ****   if (!(state->flags & ALTCP_MBEDTLS_FLAGS_HANDSHAKE_DONE)) {
 254:C:/Users/stapi/OneDrive/Desktop/GD32VW553/GD32VW55X_Wifi_BLE_SDK/GD32VW55x_RELEASE_V1.0.2/MSDK/lwip/lwip-2.1.2/src/apps/altcp_tls\altcp_tls_mbedtls.c ****     /* handle connection setup (handshake not done) */
 255:C:/Users/stapi/OneDrive/Desktop/GD32VW553/GD32VW55X_Wifi_BLE_SDK/GD32VW55x_RELEASE_V1.0.2/MSDK/lwip/lwip-2.1.2/src/apps/altcp_tls\altcp_tls_mbedtls.c ****     int ret = mbedtls_ssl_handshake(&state->ssl_context);
 256:C:/Users/stapi/OneDrive/Desktop/GD32VW553/GD32VW55X_Wifi_BLE_SDK/GD32VW55x_RELEASE_V1.0.2/MSDK/lwip/lwip-2.1.2/src/apps/altcp_tls\altcp_tls_mbedtls.c ****     /* try to send data... */
 257:C:/Users/stapi/OneDrive/Desktop/GD32VW553/GD32VW55X_Wifi_BLE_SDK/GD32VW55x_RELEASE_V1.0.2/MSDK/lwip/lwip-2.1.2/src/apps/altcp_tls\altcp_tls_mbedtls.c ****     altcp_output(conn->inner_conn);
 258:C:/Users/stapi/OneDrive/Desktop/GD32VW553/GD32VW55X_Wifi_BLE_SDK/GD32VW55x_RELEASE_V1.0.2/MSDK/lwip/lwip-2.1.2/src/apps/altcp_tls\altcp_tls_mbedtls.c ****     if (state->bio_bytes_read) {
 259:C:/Users/stapi/OneDrive/Desktop/GD32VW553/GD32VW55X_Wifi_BLE_SDK/GD32VW55x_RELEASE_V1.0.2/MSDK/lwip/lwip-2.1.2/src/apps/altcp_tls\altcp_tls_mbedtls.c ****       /* acknowledge all bytes read */
 260:C:/Users/stapi/OneDrive/Desktop/GD32VW553/GD32VW55X_Wifi_BLE_SDK/GD32VW55x_RELEASE_V1.0.2/MSDK/lwip/lwip-2.1.2/src/apps/altcp_tls\altcp_tls_mbedtls.c ****       altcp_mbedtls_lower_recved(conn->inner_conn, state->bio_bytes_read);
 261:C:/Users/stapi/OneDrive/Desktop/GD32VW553/GD32VW55X_Wifi_BLE_SDK/GD32VW55x_RELEASE_V1.0.2/MSDK/lwip/lwip-2.1.2/src/apps/altcp_tls\altcp_tls_mbedtls.c ****       state->bio_bytes_read = 0;
 262:C:/Users/stapi/OneDrive/Desktop/GD32VW553/GD32VW55X_Wifi_BLE_SDK/GD32VW55x_RELEASE_V1.0.2/MSDK/lwip/lwip-2.1.2/src/apps/altcp_tls\altcp_tls_mbedtls.c ****     }
 263:C:/Users/stapi/OneDrive/Desktop/GD32VW553/GD32VW55X_Wifi_BLE_SDK/GD32VW55x_RELEASE_V1.0.2/MSDK/lwip/lwip-2.1.2/src/apps/altcp_tls\altcp_tls_mbedtls.c **** 
 264:C:/Users/stapi/OneDrive/Desktop/GD32VW553/GD32VW55X_Wifi_BLE_SDK/GD32VW55x_RELEASE_V1.0.2/MSDK/lwip/lwip-2.1.2/src/apps/altcp_tls\altcp_tls_mbedtls.c ****     if (ret == MBEDTLS_ERR_SSL_WANT_READ || ret == MBEDTLS_ERR_SSL_WANT_WRITE) {
 265:C:/Users/stapi/OneDrive/Desktop/GD32VW553/GD32VW55X_Wifi_BLE_SDK/GD32VW55x_RELEASE_V1.0.2/MSDK/lwip/lwip-2.1.2/src/apps/altcp_tls\altcp_tls_mbedtls.c ****       /* handshake not done, wait for more recv calls */
 266:C:/Users/stapi/OneDrive/Desktop/GD32VW553/GD32VW55X_Wifi_BLE_SDK/GD32VW55x_RELEASE_V1.0.2/MSDK/lwip/lwip-2.1.2/src/apps/altcp_tls\altcp_tls_mbedtls.c ****       LWIP_ASSERT("in this state, the rx chain should be empty", state->rx == NULL);
 267:C:/Users/stapi/OneDrive/Desktop/GD32VW553/GD32VW55X_Wifi_BLE_SDK/GD32VW55x_RELEASE_V1.0.2/MSDK/lwip/lwip-2.1.2/src/apps/altcp_tls\altcp_tls_mbedtls.c ****       return ERR_OK;
 268:C:/Users/stapi/OneDrive/Desktop/GD32VW553/GD32VW55X_Wifi_BLE_SDK/GD32VW55x_RELEASE_V1.0.2/MSDK/lwip/lwip-2.1.2/src/apps/altcp_tls\altcp_tls_mbedtls.c ****     }
 269:C:/Users/stapi/OneDrive/Desktop/GD32VW553/GD32VW55X_Wifi_BLE_SDK/GD32VW55x_RELEASE_V1.0.2/MSDK/lwip/lwip-2.1.2/src/apps/altcp_tls\altcp_tls_mbedtls.c ****     if (ret != 0) {
 270:C:/Users/stapi/OneDrive/Desktop/GD32VW553/GD32VW55X_Wifi_BLE_SDK/GD32VW55x_RELEASE_V1.0.2/MSDK/lwip/lwip-2.1.2/src/apps/altcp_tls\altcp_tls_mbedtls.c ****       LWIP_DEBUGF(ALTCP_MBEDTLS_DEBUG, ("mbedtls_ssl_handshake failed: %d\n", ret));
 271:C:/Users/stapi/OneDrive/Desktop/GD32VW553/GD32VW55X_Wifi_BLE_SDK/GD32VW55x_RELEASE_V1.0.2/MSDK/lwip/lwip-2.1.2/src/apps/altcp_tls\altcp_tls_mbedtls.c ****       /* handshake failed, connection has to be closed */
 272:C:/Users/stapi/OneDrive/Desktop/GD32VW553/GD32VW55X_Wifi_BLE_SDK/GD32VW55x_RELEASE_V1.0.2/MSDK/lwip/lwip-2.1.2/src/apps/altcp_tls\altcp_tls_mbedtls.c ****       if (conn->err) {
 273:C:/Users/stapi/OneDrive/Desktop/GD32VW553/GD32VW55X_Wifi_BLE_SDK/GD32VW55x_RELEASE_V1.0.2/MSDK/lwip/lwip-2.1.2/src/apps/altcp_tls\altcp_tls_mbedtls.c ****         conn->err(conn->arg, ERR_CLSD);
 274:C:/Users/stapi/OneDrive/Desktop/GD32VW553/GD32VW55X_Wifi_BLE_SDK/GD32VW55x_RELEASE_V1.0.2/MSDK/lwip/lwip-2.1.2/src/apps/altcp_tls\altcp_tls_mbedtls.c ****       }
 275:C:/Users/stapi/OneDrive/Desktop/GD32VW553/GD32VW55X_Wifi_BLE_SDK/GD32VW55x_RELEASE_V1.0.2/MSDK/lwip/lwip-2.1.2/src/apps/altcp_tls\altcp_tls_mbedtls.c **** 
 276:C:/Users/stapi/OneDrive/Desktop/GD32VW553/GD32VW55X_Wifi_BLE_SDK/GD32VW55x_RELEASE_V1.0.2/MSDK/lwip/lwip-2.1.2/src/apps/altcp_tls\altcp_tls_mbedtls.c ****       if (altcp_close(conn) != ERR_OK) {
 277:C:/Users/stapi/OneDrive/Desktop/GD32VW553/GD32VW55X_Wifi_BLE_SDK/GD32VW55x_RELEASE_V1.0.2/MSDK/lwip/lwip-2.1.2/src/apps/altcp_tls\altcp_tls_mbedtls.c ****         altcp_abort(conn);
 278:C:/Users/stapi/OneDrive/Desktop/GD32VW553/GD32VW55X_Wifi_BLE_SDK/GD32VW55x_RELEASE_V1.0.2/MSDK/lwip/lwip-2.1.2/src/apps/altcp_tls\altcp_tls_mbedtls.c ****       }
 279:C:/Users/stapi/OneDrive/Desktop/GD32VW553/GD32VW55X_Wifi_BLE_SDK/GD32VW55x_RELEASE_V1.0.2/MSDK/lwip/lwip-2.1.2/src/apps/altcp_tls\altcp_tls_mbedtls.c ****       return ERR_OK;
 280:C:/Users/stapi/OneDrive/Desktop/GD32VW553/GD32VW55X_Wifi_BLE_SDK/GD32VW55x_RELEASE_V1.0.2/MSDK/lwip/lwip-2.1.2/src/apps/altcp_tls\altcp_tls_mbedtls.c ****     }
 281:C:/Users/stapi/OneDrive/Desktop/GD32VW553/GD32VW55X_Wifi_BLE_SDK/GD32VW55x_RELEASE_V1.0.2/MSDK/lwip/lwip-2.1.2/src/apps/altcp_tls\altcp_tls_mbedtls.c ****     /* If we come here, handshake succeeded. */
 282:C:/Users/stapi/OneDrive/Desktop/GD32VW553/GD32VW55X_Wifi_BLE_SDK/GD32VW55x_RELEASE_V1.0.2/MSDK/lwip/lwip-2.1.2/src/apps/altcp_tls\altcp_tls_mbedtls.c ****     LWIP_ASSERT("state", state->bio_bytes_read == 0);
 283:C:/Users/stapi/OneDrive/Desktop/GD32VW553/GD32VW55X_Wifi_BLE_SDK/GD32VW55x_RELEASE_V1.0.2/MSDK/lwip/lwip-2.1.2/src/apps/altcp_tls\altcp_tls_mbedtls.c ****     LWIP_ASSERT("state", state->bio_bytes_appl == 0);
 284:C:/Users/stapi/OneDrive/Desktop/GD32VW553/GD32VW55X_Wifi_BLE_SDK/GD32VW55x_RELEASE_V1.0.2/MSDK/lwip/lwip-2.1.2/src/apps/altcp_tls\altcp_tls_mbedtls.c ****     state->flags |= ALTCP_MBEDTLS_FLAGS_HANDSHAKE_DONE;
 285:C:/Users/stapi/OneDrive/Desktop/GD32VW553/GD32VW55X_Wifi_BLE_SDK/GD32VW55x_RELEASE_V1.0.2/MSDK/lwip/lwip-2.1.2/src/apps/altcp_tls\altcp_tls_mbedtls.c ****     /* issue "connect" callback" to upper connection (this can only happen for active open) */
 286:C:/Users/stapi/OneDrive/Desktop/GD32VW553/GD32VW55X_Wifi_BLE_SDK/GD32VW55x_RELEASE_V1.0.2/MSDK/lwip/lwip-2.1.2/src/apps/altcp_tls\altcp_tls_mbedtls.c ****     if (conn->connected) {
 287:C:/Users/stapi/OneDrive/Desktop/GD32VW553/GD32VW55X_Wifi_BLE_SDK/GD32VW55x_RELEASE_V1.0.2/MSDK/lwip/lwip-2.1.2/src/apps/altcp_tls\altcp_tls_mbedtls.c ****       err_t err;
 288:C:/Users/stapi/OneDrive/Desktop/GD32VW553/GD32VW55X_Wifi_BLE_SDK/GD32VW55x_RELEASE_V1.0.2/MSDK/lwip/lwip-2.1.2/src/apps/altcp_tls\altcp_tls_mbedtls.c ****       err = conn->connected(conn->arg, conn, ERR_OK);
 289:C:/Users/stapi/OneDrive/Desktop/GD32VW553/GD32VW55X_Wifi_BLE_SDK/GD32VW55x_RELEASE_V1.0.2/MSDK/lwip/lwip-2.1.2/src/apps/altcp_tls\altcp_tls_mbedtls.c ****       if (err != ERR_OK) {
 290:C:/Users/stapi/OneDrive/Desktop/GD32VW553/GD32VW55X_Wifi_BLE_SDK/GD32VW55x_RELEASE_V1.0.2/MSDK/lwip/lwip-2.1.2/src/apps/altcp_tls\altcp_tls_mbedtls.c ****         return err;
 291:C:/Users/stapi/OneDrive/Desktop/GD32VW553/GD32VW55X_Wifi_BLE_SDK/GD32VW55x_RELEASE_V1.0.2/MSDK/lwip/lwip-2.1.2/src/apps/altcp_tls\altcp_tls_mbedtls.c ****       }
 292:C:/Users/stapi/OneDrive/Desktop/GD32VW553/GD32VW55X_Wifi_BLE_SDK/GD32VW55x_RELEASE_V1.0.2/MSDK/lwip/lwip-2.1.2/src/apps/altcp_tls\altcp_tls_mbedtls.c ****     }
 293:C:/Users/stapi/OneDrive/Desktop/GD32VW553/GD32VW55X_Wifi_BLE_SDK/GD32VW55x_RELEASE_V1.0.2/MSDK/lwip/lwip-2.1.2/src/apps/altcp_tls\altcp_tls_mbedtls.c ****     if (state->rx == NULL) {
 294:C:/Users/stapi/OneDrive/Desktop/GD32VW553/GD32VW55X_Wifi_BLE_SDK/GD32VW55x_RELEASE_V1.0.2/MSDK/lwip/lwip-2.1.2/src/apps/altcp_tls\altcp_tls_mbedtls.c ****       return ERR_OK;
 295:C:/Users/stapi/OneDrive/Desktop/GD32VW553/GD32VW55X_Wifi_BLE_SDK/GD32VW55x_RELEASE_V1.0.2/MSDK/lwip/lwip-2.1.2/src/apps/altcp_tls\altcp_tls_mbedtls.c ****     }
 296:C:/Users/stapi/OneDrive/Desktop/GD32VW553/GD32VW55X_Wifi_BLE_SDK/GD32VW55x_RELEASE_V1.0.2/MSDK/lwip/lwip-2.1.2/src/apps/altcp_tls\altcp_tls_mbedtls.c ****   }
 297:C:/Users/stapi/OneDrive/Desktop/GD32VW553/GD32VW55X_Wifi_BLE_SDK/GD32VW55x_RELEASE_V1.0.2/MSDK/lwip/lwip-2.1.2/src/apps/altcp_tls\altcp_tls_mbedtls.c ****   /* handle application data */
 298:C:/Users/stapi/OneDrive/Desktop/GD32VW553/GD32VW55X_Wifi_BLE_SDK/GD32VW55x_RELEASE_V1.0.2/MSDK/lwip/lwip-2.1.2/src/apps/altcp_tls\altcp_tls_mbedtls.c ****   return altcp_mbedtls_handle_rx_appldata(conn, state);
 299:C:/Users/stapi/OneDrive/Desktop/GD32VW553/GD32VW55X_Wifi_BLE_SDK/GD32VW55x_RELEASE_V1.0.2/MSDK/lwip/lwip-2.1.2/src/apps/altcp_tls\altcp_tls_mbedtls.c **** }
 300:C:/Users/stapi/OneDrive/Desktop/GD32VW553/GD32VW55X_Wifi_BLE_SDK/GD32VW55x_RELEASE_V1.0.2/MSDK/lwip/lwip-2.1.2/src/apps/altcp_tls\altcp_tls_mbedtls.c **** 
 301:C:/Users/stapi/OneDrive/Desktop/GD32VW553/GD32VW55X_Wifi_BLE_SDK/GD32VW55x_RELEASE_V1.0.2/MSDK/lwip/lwip-2.1.2/src/apps/altcp_tls\altcp_tls_mbedtls.c **** /* Pass queued decoded rx data to application */
 302:C:/Users/stapi/OneDrive/Desktop/GD32VW553/GD32VW55X_Wifi_BLE_SDK/GD32VW55x_RELEASE_V1.0.2/MSDK/lwip/lwip-2.1.2/src/apps/altcp_tls\altcp_tls_mbedtls.c **** static err_t
 303:C:/Users/stapi/OneDrive/Desktop/GD32VW553/GD32VW55X_Wifi_BLE_SDK/GD32VW55x_RELEASE_V1.0.2/MSDK/lwip/lwip-2.1.2/src/apps/altcp_tls\altcp_tls_mbedtls.c **** altcp_mbedtls_pass_rx_data(struct altcp_pcb *conn, altcp_mbedtls_state_t *state)
 304:C:/Users/stapi/OneDrive/Desktop/GD32VW553/GD32VW55X_Wifi_BLE_SDK/GD32VW55x_RELEASE_V1.0.2/MSDK/lwip/lwip-2.1.2/src/apps/altcp_tls\altcp_tls_mbedtls.c **** {
 305:C:/Users/stapi/OneDrive/Desktop/GD32VW553/GD32VW55X_Wifi_BLE_SDK/GD32VW55x_RELEASE_V1.0.2/MSDK/lwip/lwip-2.1.2/src/apps/altcp_tls\altcp_tls_mbedtls.c ****   err_t err;
 306:C:/Users/stapi/OneDrive/Desktop/GD32VW553/GD32VW55X_Wifi_BLE_SDK/GD32VW55x_RELEASE_V1.0.2/MSDK/lwip/lwip-2.1.2/src/apps/altcp_tls\altcp_tls_mbedtls.c ****   struct pbuf *buf;
 307:C:/Users/stapi/OneDrive/Desktop/GD32VW553/GD32VW55X_Wifi_BLE_SDK/GD32VW55x_RELEASE_V1.0.2/MSDK/lwip/lwip-2.1.2/src/apps/altcp_tls\altcp_tls_mbedtls.c ****   LWIP_ASSERT("conn != NULL", conn != NULL);
 308:C:/Users/stapi/OneDrive/Desktop/GD32VW553/GD32VW55X_Wifi_BLE_SDK/GD32VW55x_RELEASE_V1.0.2/MSDK/lwip/lwip-2.1.2/src/apps/altcp_tls\altcp_tls_mbedtls.c ****   LWIP_ASSERT("state != NULL", state != NULL);
 309:C:/Users/stapi/OneDrive/Desktop/GD32VW553/GD32VW55X_Wifi_BLE_SDK/GD32VW55x_RELEASE_V1.0.2/MSDK/lwip/lwip-2.1.2/src/apps/altcp_tls\altcp_tls_mbedtls.c ****   buf = state->rx_app;
 310:C:/Users/stapi/OneDrive/Desktop/GD32VW553/GD32VW55X_Wifi_BLE_SDK/GD32VW55x_RELEASE_V1.0.2/MSDK/lwip/lwip-2.1.2/src/apps/altcp_tls\altcp_tls_mbedtls.c ****   if (buf) {
 311:C:/Users/stapi/OneDrive/Desktop/GD32VW553/GD32VW55X_Wifi_BLE_SDK/GD32VW55x_RELEASE_V1.0.2/MSDK/lwip/lwip-2.1.2/src/apps/altcp_tls\altcp_tls_mbedtls.c ****     state->rx_app = NULL;
 312:C:/Users/stapi/OneDrive/Desktop/GD32VW553/GD32VW55X_Wifi_BLE_SDK/GD32VW55x_RELEASE_V1.0.2/MSDK/lwip/lwip-2.1.2/src/apps/altcp_tls\altcp_tls_mbedtls.c ****     if (conn->recv) {
 313:C:/Users/stapi/OneDrive/Desktop/GD32VW553/GD32VW55X_Wifi_BLE_SDK/GD32VW55x_RELEASE_V1.0.2/MSDK/lwip/lwip-2.1.2/src/apps/altcp_tls\altcp_tls_mbedtls.c ****       u16_t tot_len = buf->tot_len;
 314:C:/Users/stapi/OneDrive/Desktop/GD32VW553/GD32VW55X_Wifi_BLE_SDK/GD32VW55x_RELEASE_V1.0.2/MSDK/lwip/lwip-2.1.2/src/apps/altcp_tls\altcp_tls_mbedtls.c ****       /* this needs to be increased first because the 'recved' call may come nested */
 315:C:/Users/stapi/OneDrive/Desktop/GD32VW553/GD32VW55X_Wifi_BLE_SDK/GD32VW55x_RELEASE_V1.0.2/MSDK/lwip/lwip-2.1.2/src/apps/altcp_tls\altcp_tls_mbedtls.c ****       state->rx_passed_unrecved += tot_len;
 316:C:/Users/stapi/OneDrive/Desktop/GD32VW553/GD32VW55X_Wifi_BLE_SDK/GD32VW55x_RELEASE_V1.0.2/MSDK/lwip/lwip-2.1.2/src/apps/altcp_tls\altcp_tls_mbedtls.c ****       state->flags |= ALTCP_MBEDTLS_FLAGS_UPPER_CALLED;
 317:C:/Users/stapi/OneDrive/Desktop/GD32VW553/GD32VW55X_Wifi_BLE_SDK/GD32VW55x_RELEASE_V1.0.2/MSDK/lwip/lwip-2.1.2/src/apps/altcp_tls\altcp_tls_mbedtls.c ****       err = conn->recv(conn->arg, conn, buf, ERR_OK);
 318:C:/Users/stapi/OneDrive/Desktop/GD32VW553/GD32VW55X_Wifi_BLE_SDK/GD32VW55x_RELEASE_V1.0.2/MSDK/lwip/lwip-2.1.2/src/apps/altcp_tls\altcp_tls_mbedtls.c ****       if (err != ERR_OK) {
 319:C:/Users/stapi/OneDrive/Desktop/GD32VW553/GD32VW55X_Wifi_BLE_SDK/GD32VW55x_RELEASE_V1.0.2/MSDK/lwip/lwip-2.1.2/src/apps/altcp_tls\altcp_tls_mbedtls.c ****         if (err == ERR_ABRT) {
 320:C:/Users/stapi/OneDrive/Desktop/GD32VW553/GD32VW55X_Wifi_BLE_SDK/GD32VW55x_RELEASE_V1.0.2/MSDK/lwip/lwip-2.1.2/src/apps/altcp_tls\altcp_tls_mbedtls.c ****           return ERR_ABRT;
 321:C:/Users/stapi/OneDrive/Desktop/GD32VW553/GD32VW55X_Wifi_BLE_SDK/GD32VW55x_RELEASE_V1.0.2/MSDK/lwip/lwip-2.1.2/src/apps/altcp_tls\altcp_tls_mbedtls.c ****         }
 322:C:/Users/stapi/OneDrive/Desktop/GD32VW553/GD32VW55X_Wifi_BLE_SDK/GD32VW55x_RELEASE_V1.0.2/MSDK/lwip/lwip-2.1.2/src/apps/altcp_tls\altcp_tls_mbedtls.c ****         /* not received, leave the pbuf(s) queued (and decrease 'unrecved' again) */
 323:C:/Users/stapi/OneDrive/Desktop/GD32VW553/GD32VW55X_Wifi_BLE_SDK/GD32VW55x_RELEASE_V1.0.2/MSDK/lwip/lwip-2.1.2/src/apps/altcp_tls\altcp_tls_mbedtls.c ****         LWIP_ASSERT("state == conn->state", state == conn->state);
 324:C:/Users/stapi/OneDrive/Desktop/GD32VW553/GD32VW55X_Wifi_BLE_SDK/GD32VW55x_RELEASE_V1.0.2/MSDK/lwip/lwip-2.1.2/src/apps/altcp_tls\altcp_tls_mbedtls.c ****         state->rx_app = buf;
 325:C:/Users/stapi/OneDrive/Desktop/GD32VW553/GD32VW55X_Wifi_BLE_SDK/GD32VW55x_RELEASE_V1.0.2/MSDK/lwip/lwip-2.1.2/src/apps/altcp_tls\altcp_tls_mbedtls.c ****         state->rx_passed_unrecved -= tot_len;
 326:C:/Users/stapi/OneDrive/Desktop/GD32VW553/GD32VW55X_Wifi_BLE_SDK/GD32VW55x_RELEASE_V1.0.2/MSDK/lwip/lwip-2.1.2/src/apps/altcp_tls\altcp_tls_mbedtls.c ****         LWIP_ASSERT("state->rx_passed_unrecved >= 0", state->rx_passed_unrecved >= 0);
 327:C:/Users/stapi/OneDrive/Desktop/GD32VW553/GD32VW55X_Wifi_BLE_SDK/GD32VW55x_RELEASE_V1.0.2/MSDK/lwip/lwip-2.1.2/src/apps/altcp_tls\altcp_tls_mbedtls.c ****         if (state->rx_passed_unrecved < 0) {
 328:C:/Users/stapi/OneDrive/Desktop/GD32VW553/GD32VW55X_Wifi_BLE_SDK/GD32VW55x_RELEASE_V1.0.2/MSDK/lwip/lwip-2.1.2/src/apps/altcp_tls\altcp_tls_mbedtls.c ****           state->rx_passed_unrecved = 0;
 329:C:/Users/stapi/OneDrive/Desktop/GD32VW553/GD32VW55X_Wifi_BLE_SDK/GD32VW55x_RELEASE_V1.0.2/MSDK/lwip/lwip-2.1.2/src/apps/altcp_tls\altcp_tls_mbedtls.c ****         }
 330:C:/Users/stapi/OneDrive/Desktop/GD32VW553/GD32VW55X_Wifi_BLE_SDK/GD32VW55x_RELEASE_V1.0.2/MSDK/lwip/lwip-2.1.2/src/apps/altcp_tls\altcp_tls_mbedtls.c ****         return err;
 331:C:/Users/stapi/OneDrive/Desktop/GD32VW553/GD32VW55X_Wifi_BLE_SDK/GD32VW55x_RELEASE_V1.0.2/MSDK/lwip/lwip-2.1.2/src/apps/altcp_tls\altcp_tls_mbedtls.c ****       }
 332:C:/Users/stapi/OneDrive/Desktop/GD32VW553/GD32VW55X_Wifi_BLE_SDK/GD32VW55x_RELEASE_V1.0.2/MSDK/lwip/lwip-2.1.2/src/apps/altcp_tls\altcp_tls_mbedtls.c ****     } else {
 333:C:/Users/stapi/OneDrive/Desktop/GD32VW553/GD32VW55X_Wifi_BLE_SDK/GD32VW55x_RELEASE_V1.0.2/MSDK/lwip/lwip-2.1.2/src/apps/altcp_tls\altcp_tls_mbedtls.c ****       pbuf_free(buf);
 334:C:/Users/stapi/OneDrive/Desktop/GD32VW553/GD32VW55X_Wifi_BLE_SDK/GD32VW55x_RELEASE_V1.0.2/MSDK/lwip/lwip-2.1.2/src/apps/altcp_tls\altcp_tls_mbedtls.c ****     }
 335:C:/Users/stapi/OneDrive/Desktop/GD32VW553/GD32VW55X_Wifi_BLE_SDK/GD32VW55x_RELEASE_V1.0.2/MSDK/lwip/lwip-2.1.2/src/apps/altcp_tls\altcp_tls_mbedtls.c ****   } else if ((state->flags & (ALTCP_MBEDTLS_FLAGS_RX_CLOSE_QUEUED | ALTCP_MBEDTLS_FLAGS_RX_CLOSED))
 336:C:/Users/stapi/OneDrive/Desktop/GD32VW553/GD32VW55X_Wifi_BLE_SDK/GD32VW55x_RELEASE_V1.0.2/MSDK/lwip/lwip-2.1.2/src/apps/altcp_tls\altcp_tls_mbedtls.c ****              ALTCP_MBEDTLS_FLAGS_RX_CLOSE_QUEUED) {
 337:C:/Users/stapi/OneDrive/Desktop/GD32VW553/GD32VW55X_Wifi_BLE_SDK/GD32VW55x_RELEASE_V1.0.2/MSDK/lwip/lwip-2.1.2/src/apps/altcp_tls\altcp_tls_mbedtls.c ****     state->flags |= ALTCP_MBEDTLS_FLAGS_RX_CLOSED;
 338:C:/Users/stapi/OneDrive/Desktop/GD32VW553/GD32VW55X_Wifi_BLE_SDK/GD32VW55x_RELEASE_V1.0.2/MSDK/lwip/lwip-2.1.2/src/apps/altcp_tls\altcp_tls_mbedtls.c ****     if (conn->recv) {
 339:C:/Users/stapi/OneDrive/Desktop/GD32VW553/GD32VW55X_Wifi_BLE_SDK/GD32VW55x_RELEASE_V1.0.2/MSDK/lwip/lwip-2.1.2/src/apps/altcp_tls\altcp_tls_mbedtls.c ****       return conn->recv(conn->arg, conn, NULL, ERR_OK);
 340:C:/Users/stapi/OneDrive/Desktop/GD32VW553/GD32VW55X_Wifi_BLE_SDK/GD32VW55x_RELEASE_V1.0.2/MSDK/lwip/lwip-2.1.2/src/apps/altcp_tls\altcp_tls_mbedtls.c ****     }
 341:C:/Users/stapi/OneDrive/Desktop/GD32VW553/GD32VW55X_Wifi_BLE_SDK/GD32VW55x_RELEASE_V1.0.2/MSDK/lwip/lwip-2.1.2/src/apps/altcp_tls\altcp_tls_mbedtls.c ****   }
 342:C:/Users/stapi/OneDrive/Desktop/GD32VW553/GD32VW55X_Wifi_BLE_SDK/GD32VW55x_RELEASE_V1.0.2/MSDK/lwip/lwip-2.1.2/src/apps/altcp_tls\altcp_tls_mbedtls.c **** 
 343:C:/Users/stapi/OneDrive/Desktop/GD32VW553/GD32VW55X_Wifi_BLE_SDK/GD32VW55x_RELEASE_V1.0.2/MSDK/lwip/lwip-2.1.2/src/apps/altcp_tls\altcp_tls_mbedtls.c ****   /* application may have close the connection */
 344:C:/Users/stapi/OneDrive/Desktop/GD32VW553/GD32VW55X_Wifi_BLE_SDK/GD32VW55x_RELEASE_V1.0.2/MSDK/lwip/lwip-2.1.2/src/apps/altcp_tls\altcp_tls_mbedtls.c ****   if (conn->state != state) {
 345:C:/Users/stapi/OneDrive/Desktop/GD32VW553/GD32VW55X_Wifi_BLE_SDK/GD32VW55x_RELEASE_V1.0.2/MSDK/lwip/lwip-2.1.2/src/apps/altcp_tls\altcp_tls_mbedtls.c ****     /* return error code to ensure altcp_mbedtls_handle_rx_appldata() exits the loop */
 346:C:/Users/stapi/OneDrive/Desktop/GD32VW553/GD32VW55X_Wifi_BLE_SDK/GD32VW55x_RELEASE_V1.0.2/MSDK/lwip/lwip-2.1.2/src/apps/altcp_tls\altcp_tls_mbedtls.c ****     return ERR_CLSD;
 347:C:/Users/stapi/OneDrive/Desktop/GD32VW553/GD32VW55X_Wifi_BLE_SDK/GD32VW55x_RELEASE_V1.0.2/MSDK/lwip/lwip-2.1.2/src/apps/altcp_tls\altcp_tls_mbedtls.c ****   }
 348:C:/Users/stapi/OneDrive/Desktop/GD32VW553/GD32VW55X_Wifi_BLE_SDK/GD32VW55x_RELEASE_V1.0.2/MSDK/lwip/lwip-2.1.2/src/apps/altcp_tls\altcp_tls_mbedtls.c ****   return ERR_OK;
 349:C:/Users/stapi/OneDrive/Desktop/GD32VW553/GD32VW55X_Wifi_BLE_SDK/GD32VW55x_RELEASE_V1.0.2/MSDK/lwip/lwip-2.1.2/src/apps/altcp_tls\altcp_tls_mbedtls.c **** }
 350:C:/Users/stapi/OneDrive/Desktop/GD32VW553/GD32VW55X_Wifi_BLE_SDK/GD32VW55x_RELEASE_V1.0.2/MSDK/lwip/lwip-2.1.2/src/apps/altcp_tls\altcp_tls_mbedtls.c **** 
 351:C:/Users/stapi/OneDrive/Desktop/GD32VW553/GD32VW55X_Wifi_BLE_SDK/GD32VW55x_RELEASE_V1.0.2/MSDK/lwip/lwip-2.1.2/src/apps/altcp_tls\altcp_tls_mbedtls.c **** /* Helper function that processes rx application data stored in rx pbuf chain */
 352:C:/Users/stapi/OneDrive/Desktop/GD32VW553/GD32VW55X_Wifi_BLE_SDK/GD32VW55x_RELEASE_V1.0.2/MSDK/lwip/lwip-2.1.2/src/apps/altcp_tls\altcp_tls_mbedtls.c **** static err_t
 353:C:/Users/stapi/OneDrive/Desktop/GD32VW553/GD32VW55X_Wifi_BLE_SDK/GD32VW55x_RELEASE_V1.0.2/MSDK/lwip/lwip-2.1.2/src/apps/altcp_tls\altcp_tls_mbedtls.c **** altcp_mbedtls_handle_rx_appldata(struct altcp_pcb *conn, altcp_mbedtls_state_t *state)
 354:C:/Users/stapi/OneDrive/Desktop/GD32VW553/GD32VW55X_Wifi_BLE_SDK/GD32VW55x_RELEASE_V1.0.2/MSDK/lwip/lwip-2.1.2/src/apps/altcp_tls\altcp_tls_mbedtls.c **** {
 355:C:/Users/stapi/OneDrive/Desktop/GD32VW553/GD32VW55X_Wifi_BLE_SDK/GD32VW55x_RELEASE_V1.0.2/MSDK/lwip/lwip-2.1.2/src/apps/altcp_tls\altcp_tls_mbedtls.c ****   int ret;
 356:C:/Users/stapi/OneDrive/Desktop/GD32VW553/GD32VW55X_Wifi_BLE_SDK/GD32VW55x_RELEASE_V1.0.2/MSDK/lwip/lwip-2.1.2/src/apps/altcp_tls\altcp_tls_mbedtls.c ****   LWIP_ASSERT("state != NULL", state != NULL);
 357:C:/Users/stapi/OneDrive/Desktop/GD32VW553/GD32VW55X_Wifi_BLE_SDK/GD32VW55x_RELEASE_V1.0.2/MSDK/lwip/lwip-2.1.2/src/apps/altcp_tls\altcp_tls_mbedtls.c ****   if (!(state->flags & ALTCP_MBEDTLS_FLAGS_HANDSHAKE_DONE)) {
 358:C:/Users/stapi/OneDrive/Desktop/GD32VW553/GD32VW55X_Wifi_BLE_SDK/GD32VW55x_RELEASE_V1.0.2/MSDK/lwip/lwip-2.1.2/src/apps/altcp_tls\altcp_tls_mbedtls.c ****     /* handshake not done yet */
 359:C:/Users/stapi/OneDrive/Desktop/GD32VW553/GD32VW55X_Wifi_BLE_SDK/GD32VW55x_RELEASE_V1.0.2/MSDK/lwip/lwip-2.1.2/src/apps/altcp_tls\altcp_tls_mbedtls.c ****     return ERR_VAL;
 360:C:/Users/stapi/OneDrive/Desktop/GD32VW553/GD32VW55X_Wifi_BLE_SDK/GD32VW55x_RELEASE_V1.0.2/MSDK/lwip/lwip-2.1.2/src/apps/altcp_tls\altcp_tls_mbedtls.c ****   }
 361:C:/Users/stapi/OneDrive/Desktop/GD32VW553/GD32VW55X_Wifi_BLE_SDK/GD32VW55x_RELEASE_V1.0.2/MSDK/lwip/lwip-2.1.2/src/apps/altcp_tls\altcp_tls_mbedtls.c ****   do {
 362:C:/Users/stapi/OneDrive/Desktop/GD32VW553/GD32VW55X_Wifi_BLE_SDK/GD32VW55x_RELEASE_V1.0.2/MSDK/lwip/lwip-2.1.2/src/apps/altcp_tls\altcp_tls_mbedtls.c ****     /* allocate a full-sized unchained PBUF_POOL: this is for RX! */
 363:C:/Users/stapi/OneDrive/Desktop/GD32VW553/GD32VW55X_Wifi_BLE_SDK/GD32VW55x_RELEASE_V1.0.2/MSDK/lwip/lwip-2.1.2/src/apps/altcp_tls\altcp_tls_mbedtls.c **** /* FT TAG */
 364:C:/Users/stapi/OneDrive/Desktop/GD32VW553/GD32VW55X_Wifi_BLE_SDK/GD32VW55x_RELEASE_V1.0.2/MSDK/lwip/lwip-2.1.2/src/apps/altcp_tls\altcp_tls_mbedtls.c **** #if (CONFIG_PLATFORM == PLATFORM_ASIC_32103)
 365:C:/Users/stapi/OneDrive/Desktop/GD32VW553/GD32VW55X_Wifi_BLE_SDK/GD32VW55x_RELEASE_V1.0.2/MSDK/lwip/lwip-2.1.2/src/apps/altcp_tls\altcp_tls_mbedtls.c ****     struct pbuf *buf = pbuf_alloc(PBUF_RAW, PBUF_POOL_BUFSIZE, PBUF_RAM);
 366:C:/Users/stapi/OneDrive/Desktop/GD32VW553/GD32VW55X_Wifi_BLE_SDK/GD32VW55x_RELEASE_V1.0.2/MSDK/lwip/lwip-2.1.2/src/apps/altcp_tls\altcp_tls_mbedtls.c **** #else
 367:C:/Users/stapi/OneDrive/Desktop/GD32VW553/GD32VW55X_Wifi_BLE_SDK/GD32VW55x_RELEASE_V1.0.2/MSDK/lwip/lwip-2.1.2/src/apps/altcp_tls\altcp_tls_mbedtls.c ****     struct pbuf *buf = pbuf_alloc(PBUF_RAW, PBUF_POOL_BUFSIZE, PBUF_POOL);
 368:C:/Users/stapi/OneDrive/Desktop/GD32VW553/GD32VW55X_Wifi_BLE_SDK/GD32VW55x_RELEASE_V1.0.2/MSDK/lwip/lwip-2.1.2/src/apps/altcp_tls\altcp_tls_mbedtls.c **** #endif
 369:C:/Users/stapi/OneDrive/Desktop/GD32VW553/GD32VW55X_Wifi_BLE_SDK/GD32VW55x_RELEASE_V1.0.2/MSDK/lwip/lwip-2.1.2/src/apps/altcp_tls\altcp_tls_mbedtls.c **** /* FT TAG */
 370:C:/Users/stapi/OneDrive/Desktop/GD32VW553/GD32VW55X_Wifi_BLE_SDK/GD32VW55x_RELEASE_V1.0.2/MSDK/lwip/lwip-2.1.2/src/apps/altcp_tls\altcp_tls_mbedtls.c ****     if (buf == NULL) {
 371:C:/Users/stapi/OneDrive/Desktop/GD32VW553/GD32VW55X_Wifi_BLE_SDK/GD32VW55x_RELEASE_V1.0.2/MSDK/lwip/lwip-2.1.2/src/apps/altcp_tls\altcp_tls_mbedtls.c ****       /* We're short on pbufs, try again later from 'poll' or 'recv' callbacks.
 372:C:/Users/stapi/OneDrive/Desktop/GD32VW553/GD32VW55X_Wifi_BLE_SDK/GD32VW55x_RELEASE_V1.0.2/MSDK/lwip/lwip-2.1.2/src/apps/altcp_tls\altcp_tls_mbedtls.c ****          @todo: close on excessive allocation failures or leave this up to upper conn? */
 373:C:/Users/stapi/OneDrive/Desktop/GD32VW553/GD32VW55X_Wifi_BLE_SDK/GD32VW55x_RELEASE_V1.0.2/MSDK/lwip/lwip-2.1.2/src/apps/altcp_tls\altcp_tls_mbedtls.c ****       return ERR_OK;
 374:C:/Users/stapi/OneDrive/Desktop/GD32VW553/GD32VW55X_Wifi_BLE_SDK/GD32VW55x_RELEASE_V1.0.2/MSDK/lwip/lwip-2.1.2/src/apps/altcp_tls\altcp_tls_mbedtls.c ****     }
 375:C:/Users/stapi/OneDrive/Desktop/GD32VW553/GD32VW55X_Wifi_BLE_SDK/GD32VW55x_RELEASE_V1.0.2/MSDK/lwip/lwip-2.1.2/src/apps/altcp_tls\altcp_tls_mbedtls.c **** 
 376:C:/Users/stapi/OneDrive/Desktop/GD32VW553/GD32VW55X_Wifi_BLE_SDK/GD32VW55x_RELEASE_V1.0.2/MSDK/lwip/lwip-2.1.2/src/apps/altcp_tls\altcp_tls_mbedtls.c ****     /* decrypt application data, this pulls encrypted RX data off state->rx pbuf chain */
 377:C:/Users/stapi/OneDrive/Desktop/GD32VW553/GD32VW55X_Wifi_BLE_SDK/GD32VW55x_RELEASE_V1.0.2/MSDK/lwip/lwip-2.1.2/src/apps/altcp_tls\altcp_tls_mbedtls.c ****     ret = mbedtls_ssl_read(&state->ssl_context, (unsigned char *)buf->payload, PBUF_POOL_BUFSIZE);
 378:C:/Users/stapi/OneDrive/Desktop/GD32VW553/GD32VW55X_Wifi_BLE_SDK/GD32VW55x_RELEASE_V1.0.2/MSDK/lwip/lwip-2.1.2/src/apps/altcp_tls\altcp_tls_mbedtls.c ****     if (ret < 0) {
 379:C:/Users/stapi/OneDrive/Desktop/GD32VW553/GD32VW55X_Wifi_BLE_SDK/GD32VW55x_RELEASE_V1.0.2/MSDK/lwip/lwip-2.1.2/src/apps/altcp_tls\altcp_tls_mbedtls.c ****       if (ret == MBEDTLS_ERR_SSL_CLIENT_RECONNECT) {
 380:C:/Users/stapi/OneDrive/Desktop/GD32VW553/GD32VW55X_Wifi_BLE_SDK/GD32VW55x_RELEASE_V1.0.2/MSDK/lwip/lwip-2.1.2/src/apps/altcp_tls\altcp_tls_mbedtls.c ****         /* client is initiating a new connection using the same source port -> close connection or 
 381:C:/Users/stapi/OneDrive/Desktop/GD32VW553/GD32VW55X_Wifi_BLE_SDK/GD32VW55x_RELEASE_V1.0.2/MSDK/lwip/lwip-2.1.2/src/apps/altcp_tls\altcp_tls_mbedtls.c ****         LWIP_DEBUGF(ALTCP_MBEDTLS_DEBUG, ("new connection on same source port\n"));
 382:C:/Users/stapi/OneDrive/Desktop/GD32VW553/GD32VW55X_Wifi_BLE_SDK/GD32VW55x_RELEASE_V1.0.2/MSDK/lwip/lwip-2.1.2/src/apps/altcp_tls\altcp_tls_mbedtls.c ****         LWIP_ASSERT("TODO: new connection on same source port, close this connection", 0);
 383:C:/Users/stapi/OneDrive/Desktop/GD32VW553/GD32VW55X_Wifi_BLE_SDK/GD32VW55x_RELEASE_V1.0.2/MSDK/lwip/lwip-2.1.2/src/apps/altcp_tls\altcp_tls_mbedtls.c ****       } else if ((ret != MBEDTLS_ERR_SSL_WANT_READ) && (ret != MBEDTLS_ERR_SSL_WANT_WRITE)) {
 384:C:/Users/stapi/OneDrive/Desktop/GD32VW553/GD32VW55X_Wifi_BLE_SDK/GD32VW55x_RELEASE_V1.0.2/MSDK/lwip/lwip-2.1.2/src/apps/altcp_tls\altcp_tls_mbedtls.c ****         if (ret == MBEDTLS_ERR_SSL_PEER_CLOSE_NOTIFY) {
 385:C:/Users/stapi/OneDrive/Desktop/GD32VW553/GD32VW55X_Wifi_BLE_SDK/GD32VW55x_RELEASE_V1.0.2/MSDK/lwip/lwip-2.1.2/src/apps/altcp_tls\altcp_tls_mbedtls.c ****           LWIP_DEBUGF(ALTCP_MBEDTLS_DEBUG, ("connection was closed gracefully\n"));
 386:C:/Users/stapi/OneDrive/Desktop/GD32VW553/GD32VW55X_Wifi_BLE_SDK/GD32VW55x_RELEASE_V1.0.2/MSDK/lwip/lwip-2.1.2/src/apps/altcp_tls\altcp_tls_mbedtls.c ****         } else if (ret == MBEDTLS_ERR_NET_CONN_RESET) {
 387:C:/Users/stapi/OneDrive/Desktop/GD32VW553/GD32VW55X_Wifi_BLE_SDK/GD32VW55x_RELEASE_V1.0.2/MSDK/lwip/lwip-2.1.2/src/apps/altcp_tls\altcp_tls_mbedtls.c ****           LWIP_DEBUGF(ALTCP_MBEDTLS_DEBUG, ("connection was reset by peer\n"));
 388:C:/Users/stapi/OneDrive/Desktop/GD32VW553/GD32VW55X_Wifi_BLE_SDK/GD32VW55x_RELEASE_V1.0.2/MSDK/lwip/lwip-2.1.2/src/apps/altcp_tls\altcp_tls_mbedtls.c ****         }
 389:C:/Users/stapi/OneDrive/Desktop/GD32VW553/GD32VW55X_Wifi_BLE_SDK/GD32VW55x_RELEASE_V1.0.2/MSDK/lwip/lwip-2.1.2/src/apps/altcp_tls\altcp_tls_mbedtls.c ****         pbuf_free(buf);
 390:C:/Users/stapi/OneDrive/Desktop/GD32VW553/GD32VW55X_Wifi_BLE_SDK/GD32VW55x_RELEASE_V1.0.2/MSDK/lwip/lwip-2.1.2/src/apps/altcp_tls\altcp_tls_mbedtls.c ****         return ERR_OK;
 391:C:/Users/stapi/OneDrive/Desktop/GD32VW553/GD32VW55X_Wifi_BLE_SDK/GD32VW55x_RELEASE_V1.0.2/MSDK/lwip/lwip-2.1.2/src/apps/altcp_tls\altcp_tls_mbedtls.c ****       } else {
 392:C:/Users/stapi/OneDrive/Desktop/GD32VW553/GD32VW55X_Wifi_BLE_SDK/GD32VW55x_RELEASE_V1.0.2/MSDK/lwip/lwip-2.1.2/src/apps/altcp_tls\altcp_tls_mbedtls.c ****         pbuf_free(buf);
 393:C:/Users/stapi/OneDrive/Desktop/GD32VW553/GD32VW55X_Wifi_BLE_SDK/GD32VW55x_RELEASE_V1.0.2/MSDK/lwip/lwip-2.1.2/src/apps/altcp_tls\altcp_tls_mbedtls.c ****         return ERR_OK;
 394:C:/Users/stapi/OneDrive/Desktop/GD32VW553/GD32VW55X_Wifi_BLE_SDK/GD32VW55x_RELEASE_V1.0.2/MSDK/lwip/lwip-2.1.2/src/apps/altcp_tls\altcp_tls_mbedtls.c ****       }
 395:C:/Users/stapi/OneDrive/Desktop/GD32VW553/GD32VW55X_Wifi_BLE_SDK/GD32VW55x_RELEASE_V1.0.2/MSDK/lwip/lwip-2.1.2/src/apps/altcp_tls\altcp_tls_mbedtls.c ****       pbuf_free(buf);
 396:C:/Users/stapi/OneDrive/Desktop/GD32VW553/GD32VW55X_Wifi_BLE_SDK/GD32VW55x_RELEASE_V1.0.2/MSDK/lwip/lwip-2.1.2/src/apps/altcp_tls\altcp_tls_mbedtls.c ****       altcp_abort(conn);
 397:C:/Users/stapi/OneDrive/Desktop/GD32VW553/GD32VW55X_Wifi_BLE_SDK/GD32VW55x_RELEASE_V1.0.2/MSDK/lwip/lwip-2.1.2/src/apps/altcp_tls\altcp_tls_mbedtls.c ****       return ERR_ABRT;
 398:C:/Users/stapi/OneDrive/Desktop/GD32VW553/GD32VW55X_Wifi_BLE_SDK/GD32VW55x_RELEASE_V1.0.2/MSDK/lwip/lwip-2.1.2/src/apps/altcp_tls\altcp_tls_mbedtls.c ****     } else {
 399:C:/Users/stapi/OneDrive/Desktop/GD32VW553/GD32VW55X_Wifi_BLE_SDK/GD32VW55x_RELEASE_V1.0.2/MSDK/lwip/lwip-2.1.2/src/apps/altcp_tls\altcp_tls_mbedtls.c ****       err_t err;
 400:C:/Users/stapi/OneDrive/Desktop/GD32VW553/GD32VW55X_Wifi_BLE_SDK/GD32VW55x_RELEASE_V1.0.2/MSDK/lwip/lwip-2.1.2/src/apps/altcp_tls\altcp_tls_mbedtls.c ****       if (ret) {
 401:C:/Users/stapi/OneDrive/Desktop/GD32VW553/GD32VW55X_Wifi_BLE_SDK/GD32VW55x_RELEASE_V1.0.2/MSDK/lwip/lwip-2.1.2/src/apps/altcp_tls\altcp_tls_mbedtls.c ****         LWIP_ASSERT("bogus receive length", ret <= PBUF_POOL_BUFSIZE);
 402:C:/Users/stapi/OneDrive/Desktop/GD32VW553/GD32VW55X_Wifi_BLE_SDK/GD32VW55x_RELEASE_V1.0.2/MSDK/lwip/lwip-2.1.2/src/apps/altcp_tls\altcp_tls_mbedtls.c ****         /* trim pool pbuf to actually decoded length */
 403:C:/Users/stapi/OneDrive/Desktop/GD32VW553/GD32VW55X_Wifi_BLE_SDK/GD32VW55x_RELEASE_V1.0.2/MSDK/lwip/lwip-2.1.2/src/apps/altcp_tls\altcp_tls_mbedtls.c ****         pbuf_realloc(buf, (u16_t)ret);
 404:C:/Users/stapi/OneDrive/Desktop/GD32VW553/GD32VW55X_Wifi_BLE_SDK/GD32VW55x_RELEASE_V1.0.2/MSDK/lwip/lwip-2.1.2/src/apps/altcp_tls\altcp_tls_mbedtls.c **** 
 405:C:/Users/stapi/OneDrive/Desktop/GD32VW553/GD32VW55X_Wifi_BLE_SDK/GD32VW55x_RELEASE_V1.0.2/MSDK/lwip/lwip-2.1.2/src/apps/altcp_tls\altcp_tls_mbedtls.c ****         state->bio_bytes_appl += ret;
 406:C:/Users/stapi/OneDrive/Desktop/GD32VW553/GD32VW55X_Wifi_BLE_SDK/GD32VW55x_RELEASE_V1.0.2/MSDK/lwip/lwip-2.1.2/src/apps/altcp_tls\altcp_tls_mbedtls.c ****         if (mbedtls_ssl_get_bytes_avail(&state->ssl_context) == 0) {
 407:C:/Users/stapi/OneDrive/Desktop/GD32VW553/GD32VW55X_Wifi_BLE_SDK/GD32VW55x_RELEASE_V1.0.2/MSDK/lwip/lwip-2.1.2/src/apps/altcp_tls\altcp_tls_mbedtls.c ****           /* Record is done, now we know the share between application and protocol bytes
 408:C:/Users/stapi/OneDrive/Desktop/GD32VW553/GD32VW55X_Wifi_BLE_SDK/GD32VW55x_RELEASE_V1.0.2/MSDK/lwip/lwip-2.1.2/src/apps/altcp_tls\altcp_tls_mbedtls.c ****              and can adjust the RX window by the protocol bytes.
 409:C:/Users/stapi/OneDrive/Desktop/GD32VW553/GD32VW55X_Wifi_BLE_SDK/GD32VW55x_RELEASE_V1.0.2/MSDK/lwip/lwip-2.1.2/src/apps/altcp_tls\altcp_tls_mbedtls.c ****              The rest is 'recved' by the application calling our 'recved' fn. */
 410:C:/Users/stapi/OneDrive/Desktop/GD32VW553/GD32VW55X_Wifi_BLE_SDK/GD32VW55x_RELEASE_V1.0.2/MSDK/lwip/lwip-2.1.2/src/apps/altcp_tls\altcp_tls_mbedtls.c ****           int overhead_bytes;
 411:C:/Users/stapi/OneDrive/Desktop/GD32VW553/GD32VW55X_Wifi_BLE_SDK/GD32VW55x_RELEASE_V1.0.2/MSDK/lwip/lwip-2.1.2/src/apps/altcp_tls\altcp_tls_mbedtls.c ****           LWIP_ASSERT("bogus byte counts", state->bio_bytes_read > state->bio_bytes_appl);
 412:C:/Users/stapi/OneDrive/Desktop/GD32VW553/GD32VW55X_Wifi_BLE_SDK/GD32VW55x_RELEASE_V1.0.2/MSDK/lwip/lwip-2.1.2/src/apps/altcp_tls\altcp_tls_mbedtls.c ****           overhead_bytes = state->bio_bytes_read - state->bio_bytes_appl;
 413:C:/Users/stapi/OneDrive/Desktop/GD32VW553/GD32VW55X_Wifi_BLE_SDK/GD32VW55x_RELEASE_V1.0.2/MSDK/lwip/lwip-2.1.2/src/apps/altcp_tls\altcp_tls_mbedtls.c ****           altcp_mbedtls_lower_recved(conn->inner_conn, overhead_bytes);
 414:C:/Users/stapi/OneDrive/Desktop/GD32VW553/GD32VW55X_Wifi_BLE_SDK/GD32VW55x_RELEASE_V1.0.2/MSDK/lwip/lwip-2.1.2/src/apps/altcp_tls\altcp_tls_mbedtls.c ****           state->bio_bytes_read = 0;
 415:C:/Users/stapi/OneDrive/Desktop/GD32VW553/GD32VW55X_Wifi_BLE_SDK/GD32VW55x_RELEASE_V1.0.2/MSDK/lwip/lwip-2.1.2/src/apps/altcp_tls\altcp_tls_mbedtls.c ****           state->bio_bytes_appl = 0;
 416:C:/Users/stapi/OneDrive/Desktop/GD32VW553/GD32VW55X_Wifi_BLE_SDK/GD32VW55x_RELEASE_V1.0.2/MSDK/lwip/lwip-2.1.2/src/apps/altcp_tls\altcp_tls_mbedtls.c ****         }
 417:C:/Users/stapi/OneDrive/Desktop/GD32VW553/GD32VW55X_Wifi_BLE_SDK/GD32VW55x_RELEASE_V1.0.2/MSDK/lwip/lwip-2.1.2/src/apps/altcp_tls\altcp_tls_mbedtls.c **** 
 418:C:/Users/stapi/OneDrive/Desktop/GD32VW553/GD32VW55X_Wifi_BLE_SDK/GD32VW55x_RELEASE_V1.0.2/MSDK/lwip/lwip-2.1.2/src/apps/altcp_tls\altcp_tls_mbedtls.c ****         if (state->rx_app == NULL) {
 419:C:/Users/stapi/OneDrive/Desktop/GD32VW553/GD32VW55X_Wifi_BLE_SDK/GD32VW55x_RELEASE_V1.0.2/MSDK/lwip/lwip-2.1.2/src/apps/altcp_tls\altcp_tls_mbedtls.c ****           state->rx_app = buf;
 420:C:/Users/stapi/OneDrive/Desktop/GD32VW553/GD32VW55X_Wifi_BLE_SDK/GD32VW55x_RELEASE_V1.0.2/MSDK/lwip/lwip-2.1.2/src/apps/altcp_tls\altcp_tls_mbedtls.c ****         } else {
 421:C:/Users/stapi/OneDrive/Desktop/GD32VW553/GD32VW55X_Wifi_BLE_SDK/GD32VW55x_RELEASE_V1.0.2/MSDK/lwip/lwip-2.1.2/src/apps/altcp_tls\altcp_tls_mbedtls.c ****           pbuf_cat(state->rx_app, buf);
 422:C:/Users/stapi/OneDrive/Desktop/GD32VW553/GD32VW55X_Wifi_BLE_SDK/GD32VW55x_RELEASE_V1.0.2/MSDK/lwip/lwip-2.1.2/src/apps/altcp_tls\altcp_tls_mbedtls.c ****         }
 423:C:/Users/stapi/OneDrive/Desktop/GD32VW553/GD32VW55X_Wifi_BLE_SDK/GD32VW55x_RELEASE_V1.0.2/MSDK/lwip/lwip-2.1.2/src/apps/altcp_tls\altcp_tls_mbedtls.c ****       } else {
 424:C:/Users/stapi/OneDrive/Desktop/GD32VW553/GD32VW55X_Wifi_BLE_SDK/GD32VW55x_RELEASE_V1.0.2/MSDK/lwip/lwip-2.1.2/src/apps/altcp_tls\altcp_tls_mbedtls.c ****         pbuf_free(buf);
 425:C:/Users/stapi/OneDrive/Desktop/GD32VW553/GD32VW55X_Wifi_BLE_SDK/GD32VW55x_RELEASE_V1.0.2/MSDK/lwip/lwip-2.1.2/src/apps/altcp_tls\altcp_tls_mbedtls.c ****         buf = NULL;
 426:C:/Users/stapi/OneDrive/Desktop/GD32VW553/GD32VW55X_Wifi_BLE_SDK/GD32VW55x_RELEASE_V1.0.2/MSDK/lwip/lwip-2.1.2/src/apps/altcp_tls\altcp_tls_mbedtls.c ****       }
 427:C:/Users/stapi/OneDrive/Desktop/GD32VW553/GD32VW55X_Wifi_BLE_SDK/GD32VW55x_RELEASE_V1.0.2/MSDK/lwip/lwip-2.1.2/src/apps/altcp_tls\altcp_tls_mbedtls.c ****       err = altcp_mbedtls_pass_rx_data(conn, state);
 428:C:/Users/stapi/OneDrive/Desktop/GD32VW553/GD32VW55X_Wifi_BLE_SDK/GD32VW55x_RELEASE_V1.0.2/MSDK/lwip/lwip-2.1.2/src/apps/altcp_tls\altcp_tls_mbedtls.c ****       if (err != ERR_OK) {
 429:C:/Users/stapi/OneDrive/Desktop/GD32VW553/GD32VW55X_Wifi_BLE_SDK/GD32VW55x_RELEASE_V1.0.2/MSDK/lwip/lwip-2.1.2/src/apps/altcp_tls\altcp_tls_mbedtls.c ****         if (err == ERR_ABRT) {
 430:C:/Users/stapi/OneDrive/Desktop/GD32VW553/GD32VW55X_Wifi_BLE_SDK/GD32VW55x_RELEASE_V1.0.2/MSDK/lwip/lwip-2.1.2/src/apps/altcp_tls\altcp_tls_mbedtls.c ****           /* recv callback needs to return this as the pcb is deallocated */
 431:C:/Users/stapi/OneDrive/Desktop/GD32VW553/GD32VW55X_Wifi_BLE_SDK/GD32VW55x_RELEASE_V1.0.2/MSDK/lwip/lwip-2.1.2/src/apps/altcp_tls\altcp_tls_mbedtls.c ****           return ERR_ABRT;
 432:C:/Users/stapi/OneDrive/Desktop/GD32VW553/GD32VW55X_Wifi_BLE_SDK/GD32VW55x_RELEASE_V1.0.2/MSDK/lwip/lwip-2.1.2/src/apps/altcp_tls\altcp_tls_mbedtls.c ****         }
 433:C:/Users/stapi/OneDrive/Desktop/GD32VW553/GD32VW55X_Wifi_BLE_SDK/GD32VW55x_RELEASE_V1.0.2/MSDK/lwip/lwip-2.1.2/src/apps/altcp_tls\altcp_tls_mbedtls.c ****         /* we hide all other errors as we retry feeding the pbuf to the app later */
 434:C:/Users/stapi/OneDrive/Desktop/GD32VW553/GD32VW55X_Wifi_BLE_SDK/GD32VW55x_RELEASE_V1.0.2/MSDK/lwip/lwip-2.1.2/src/apps/altcp_tls\altcp_tls_mbedtls.c ****         return ERR_OK;
 435:C:/Users/stapi/OneDrive/Desktop/GD32VW553/GD32VW55X_Wifi_BLE_SDK/GD32VW55x_RELEASE_V1.0.2/MSDK/lwip/lwip-2.1.2/src/apps/altcp_tls\altcp_tls_mbedtls.c ****       }
 436:C:/Users/stapi/OneDrive/Desktop/GD32VW553/GD32VW55X_Wifi_BLE_SDK/GD32VW55x_RELEASE_V1.0.2/MSDK/lwip/lwip-2.1.2/src/apps/altcp_tls\altcp_tls_mbedtls.c ****     }
 437:C:/Users/stapi/OneDrive/Desktop/GD32VW553/GD32VW55X_Wifi_BLE_SDK/GD32VW55x_RELEASE_V1.0.2/MSDK/lwip/lwip-2.1.2/src/apps/altcp_tls\altcp_tls_mbedtls.c ****   } while (ret > 0);
 438:C:/Users/stapi/OneDrive/Desktop/GD32VW553/GD32VW55X_Wifi_BLE_SDK/GD32VW55x_RELEASE_V1.0.2/MSDK/lwip/lwip-2.1.2/src/apps/altcp_tls\altcp_tls_mbedtls.c ****   return ERR_OK;
 439:C:/Users/stapi/OneDrive/Desktop/GD32VW553/GD32VW55X_Wifi_BLE_SDK/GD32VW55x_RELEASE_V1.0.2/MSDK/lwip/lwip-2.1.2/src/apps/altcp_tls\altcp_tls_mbedtls.c **** }
 440:C:/Users/stapi/OneDrive/Desktop/GD32VW553/GD32VW55X_Wifi_BLE_SDK/GD32VW55x_RELEASE_V1.0.2/MSDK/lwip/lwip-2.1.2/src/apps/altcp_tls\altcp_tls_mbedtls.c **** 
 441:C:/Users/stapi/OneDrive/Desktop/GD32VW553/GD32VW55X_Wifi_BLE_SDK/GD32VW55x_RELEASE_V1.0.2/MSDK/lwip/lwip-2.1.2/src/apps/altcp_tls\altcp_tls_mbedtls.c **** /** Receive callback function called from mbedtls (set via mbedtls_ssl_set_bio)
 442:C:/Users/stapi/OneDrive/Desktop/GD32VW553/GD32VW55X_Wifi_BLE_SDK/GD32VW55x_RELEASE_V1.0.2/MSDK/lwip/lwip-2.1.2/src/apps/altcp_tls\altcp_tls_mbedtls.c ****  * This function mainly copies data from pbufs and frees the pbufs after copying.
 443:C:/Users/stapi/OneDrive/Desktop/GD32VW553/GD32VW55X_Wifi_BLE_SDK/GD32VW55x_RELEASE_V1.0.2/MSDK/lwip/lwip-2.1.2/src/apps/altcp_tls\altcp_tls_mbedtls.c ****  */
 444:C:/Users/stapi/OneDrive/Desktop/GD32VW553/GD32VW55X_Wifi_BLE_SDK/GD32VW55x_RELEASE_V1.0.2/MSDK/lwip/lwip-2.1.2/src/apps/altcp_tls\altcp_tls_mbedtls.c **** static int
 445:C:/Users/stapi/OneDrive/Desktop/GD32VW553/GD32VW55X_Wifi_BLE_SDK/GD32VW55x_RELEASE_V1.0.2/MSDK/lwip/lwip-2.1.2/src/apps/altcp_tls\altcp_tls_mbedtls.c **** altcp_mbedtls_bio_recv(void *ctx, unsigned char *buf, size_t len)
 446:C:/Users/stapi/OneDrive/Desktop/GD32VW553/GD32VW55X_Wifi_BLE_SDK/GD32VW55x_RELEASE_V1.0.2/MSDK/lwip/lwip-2.1.2/src/apps/altcp_tls\altcp_tls_mbedtls.c **** {
 447:C:/Users/stapi/OneDrive/Desktop/GD32VW553/GD32VW55X_Wifi_BLE_SDK/GD32VW55x_RELEASE_V1.0.2/MSDK/lwip/lwip-2.1.2/src/apps/altcp_tls\altcp_tls_mbedtls.c ****   struct altcp_pcb *conn = (struct altcp_pcb *)ctx;
 448:C:/Users/stapi/OneDrive/Desktop/GD32VW553/GD32VW55X_Wifi_BLE_SDK/GD32VW55x_RELEASE_V1.0.2/MSDK/lwip/lwip-2.1.2/src/apps/altcp_tls\altcp_tls_mbedtls.c ****   altcp_mbedtls_state_t *state;
 449:C:/Users/stapi/OneDrive/Desktop/GD32VW553/GD32VW55X_Wifi_BLE_SDK/GD32VW55x_RELEASE_V1.0.2/MSDK/lwip/lwip-2.1.2/src/apps/altcp_tls\altcp_tls_mbedtls.c ****   struct pbuf *p;
 450:C:/Users/stapi/OneDrive/Desktop/GD32VW553/GD32VW55X_Wifi_BLE_SDK/GD32VW55x_RELEASE_V1.0.2/MSDK/lwip/lwip-2.1.2/src/apps/altcp_tls\altcp_tls_mbedtls.c ****   u16_t ret;
 451:C:/Users/stapi/OneDrive/Desktop/GD32VW553/GD32VW55X_Wifi_BLE_SDK/GD32VW55x_RELEASE_V1.0.2/MSDK/lwip/lwip-2.1.2/src/apps/altcp_tls\altcp_tls_mbedtls.c ****   u16_t copy_len;
 452:C:/Users/stapi/OneDrive/Desktop/GD32VW553/GD32VW55X_Wifi_BLE_SDK/GD32VW55x_RELEASE_V1.0.2/MSDK/lwip/lwip-2.1.2/src/apps/altcp_tls\altcp_tls_mbedtls.c ****   err_t err;
 453:C:/Users/stapi/OneDrive/Desktop/GD32VW553/GD32VW55X_Wifi_BLE_SDK/GD32VW55x_RELEASE_V1.0.2/MSDK/lwip/lwip-2.1.2/src/apps/altcp_tls\altcp_tls_mbedtls.c **** 
 454:C:/Users/stapi/OneDrive/Desktop/GD32VW553/GD32VW55X_Wifi_BLE_SDK/GD32VW55x_RELEASE_V1.0.2/MSDK/lwip/lwip-2.1.2/src/apps/altcp_tls\altcp_tls_mbedtls.c ****   LWIP_UNUSED_ARG(err); /* for LWIP_NOASSERT */
 455:C:/Users/stapi/OneDrive/Desktop/GD32VW553/GD32VW55X_Wifi_BLE_SDK/GD32VW55x_RELEASE_V1.0.2/MSDK/lwip/lwip-2.1.2/src/apps/altcp_tls\altcp_tls_mbedtls.c ****   if ((conn == NULL) || (conn->state == NULL)) {
 456:C:/Users/stapi/OneDrive/Desktop/GD32VW553/GD32VW55X_Wifi_BLE_SDK/GD32VW55x_RELEASE_V1.0.2/MSDK/lwip/lwip-2.1.2/src/apps/altcp_tls\altcp_tls_mbedtls.c ****     return MBEDTLS_ERR_NET_INVALID_CONTEXT;
 457:C:/Users/stapi/OneDrive/Desktop/GD32VW553/GD32VW55X_Wifi_BLE_SDK/GD32VW55x_RELEASE_V1.0.2/MSDK/lwip/lwip-2.1.2/src/apps/altcp_tls\altcp_tls_mbedtls.c ****   }
 458:C:/Users/stapi/OneDrive/Desktop/GD32VW553/GD32VW55X_Wifi_BLE_SDK/GD32VW55x_RELEASE_V1.0.2/MSDK/lwip/lwip-2.1.2/src/apps/altcp_tls\altcp_tls_mbedtls.c ****   state = (altcp_mbedtls_state_t *)conn->state;
 459:C:/Users/stapi/OneDrive/Desktop/GD32VW553/GD32VW55X_Wifi_BLE_SDK/GD32VW55x_RELEASE_V1.0.2/MSDK/lwip/lwip-2.1.2/src/apps/altcp_tls\altcp_tls_mbedtls.c ****   p = state->rx;
 460:C:/Users/stapi/OneDrive/Desktop/GD32VW553/GD32VW55X_Wifi_BLE_SDK/GD32VW55x_RELEASE_V1.0.2/MSDK/lwip/lwip-2.1.2/src/apps/altcp_tls\altcp_tls_mbedtls.c **** 
 461:C:/Users/stapi/OneDrive/Desktop/GD32VW553/GD32VW55X_Wifi_BLE_SDK/GD32VW55x_RELEASE_V1.0.2/MSDK/lwip/lwip-2.1.2/src/apps/altcp_tls\altcp_tls_mbedtls.c ****   /* @todo: return MBEDTLS_ERR_NET_CONN_RESET/MBEDTLS_ERR_NET_RECV_FAILED? */
 462:C:/Users/stapi/OneDrive/Desktop/GD32VW553/GD32VW55X_Wifi_BLE_SDK/GD32VW55x_RELEASE_V1.0.2/MSDK/lwip/lwip-2.1.2/src/apps/altcp_tls\altcp_tls_mbedtls.c **** 
 463:C:/Users/stapi/OneDrive/Desktop/GD32VW553/GD32VW55X_Wifi_BLE_SDK/GD32VW55x_RELEASE_V1.0.2/MSDK/lwip/lwip-2.1.2/src/apps/altcp_tls\altcp_tls_mbedtls.c ****   if ((p == NULL) || ((p->len == 0) && (p->next == NULL))) {
 464:C:/Users/stapi/OneDrive/Desktop/GD32VW553/GD32VW55X_Wifi_BLE_SDK/GD32VW55x_RELEASE_V1.0.2/MSDK/lwip/lwip-2.1.2/src/apps/altcp_tls\altcp_tls_mbedtls.c ****     if (p) {
 465:C:/Users/stapi/OneDrive/Desktop/GD32VW553/GD32VW55X_Wifi_BLE_SDK/GD32VW55x_RELEASE_V1.0.2/MSDK/lwip/lwip-2.1.2/src/apps/altcp_tls\altcp_tls_mbedtls.c ****       pbuf_free(p);
 466:C:/Users/stapi/OneDrive/Desktop/GD32VW553/GD32VW55X_Wifi_BLE_SDK/GD32VW55x_RELEASE_V1.0.2/MSDK/lwip/lwip-2.1.2/src/apps/altcp_tls\altcp_tls_mbedtls.c ****     }
 467:C:/Users/stapi/OneDrive/Desktop/GD32VW553/GD32VW55X_Wifi_BLE_SDK/GD32VW55x_RELEASE_V1.0.2/MSDK/lwip/lwip-2.1.2/src/apps/altcp_tls\altcp_tls_mbedtls.c ****     state->rx = NULL;
 468:C:/Users/stapi/OneDrive/Desktop/GD32VW553/GD32VW55X_Wifi_BLE_SDK/GD32VW55x_RELEASE_V1.0.2/MSDK/lwip/lwip-2.1.2/src/apps/altcp_tls\altcp_tls_mbedtls.c ****     if ((state->flags & (ALTCP_MBEDTLS_FLAGS_RX_CLOSE_QUEUED | ALTCP_MBEDTLS_FLAGS_RX_CLOSED)) ==
 469:C:/Users/stapi/OneDrive/Desktop/GD32VW553/GD32VW55X_Wifi_BLE_SDK/GD32VW55x_RELEASE_V1.0.2/MSDK/lwip/lwip-2.1.2/src/apps/altcp_tls\altcp_tls_mbedtls.c ****         ALTCP_MBEDTLS_FLAGS_RX_CLOSE_QUEUED) {
 470:C:/Users/stapi/OneDrive/Desktop/GD32VW553/GD32VW55X_Wifi_BLE_SDK/GD32VW55x_RELEASE_V1.0.2/MSDK/lwip/lwip-2.1.2/src/apps/altcp_tls\altcp_tls_mbedtls.c ****       /* close queued but not passed up yet */
 471:C:/Users/stapi/OneDrive/Desktop/GD32VW553/GD32VW55X_Wifi_BLE_SDK/GD32VW55x_RELEASE_V1.0.2/MSDK/lwip/lwip-2.1.2/src/apps/altcp_tls\altcp_tls_mbedtls.c ****       return 0;
 472:C:/Users/stapi/OneDrive/Desktop/GD32VW553/GD32VW55X_Wifi_BLE_SDK/GD32VW55x_RELEASE_V1.0.2/MSDK/lwip/lwip-2.1.2/src/apps/altcp_tls\altcp_tls_mbedtls.c ****     }
 473:C:/Users/stapi/OneDrive/Desktop/GD32VW553/GD32VW55X_Wifi_BLE_SDK/GD32VW55x_RELEASE_V1.0.2/MSDK/lwip/lwip-2.1.2/src/apps/altcp_tls\altcp_tls_mbedtls.c ****     return MBEDTLS_ERR_SSL_WANT_READ;
 474:C:/Users/stapi/OneDrive/Desktop/GD32VW553/GD32VW55X_Wifi_BLE_SDK/GD32VW55x_RELEASE_V1.0.2/MSDK/lwip/lwip-2.1.2/src/apps/altcp_tls\altcp_tls_mbedtls.c ****   }
 475:C:/Users/stapi/OneDrive/Desktop/GD32VW553/GD32VW55X_Wifi_BLE_SDK/GD32VW55x_RELEASE_V1.0.2/MSDK/lwip/lwip-2.1.2/src/apps/altcp_tls\altcp_tls_mbedtls.c ****   /* limit number of bytes again to copy from first pbuf in a chain only */
 476:C:/Users/stapi/OneDrive/Desktop/GD32VW553/GD32VW55X_Wifi_BLE_SDK/GD32VW55x_RELEASE_V1.0.2/MSDK/lwip/lwip-2.1.2/src/apps/altcp_tls\altcp_tls_mbedtls.c ****   copy_len = (u16_t)LWIP_MIN(len, p->len);
 477:C:/Users/stapi/OneDrive/Desktop/GD32VW553/GD32VW55X_Wifi_BLE_SDK/GD32VW55x_RELEASE_V1.0.2/MSDK/lwip/lwip-2.1.2/src/apps/altcp_tls\altcp_tls_mbedtls.c ****   /* copy the data */
 478:C:/Users/stapi/OneDrive/Desktop/GD32VW553/GD32VW55X_Wifi_BLE_SDK/GD32VW55x_RELEASE_V1.0.2/MSDK/lwip/lwip-2.1.2/src/apps/altcp_tls\altcp_tls_mbedtls.c ****   ret = pbuf_copy_partial(p, buf, copy_len, 0);
 479:C:/Users/stapi/OneDrive/Desktop/GD32VW553/GD32VW55X_Wifi_BLE_SDK/GD32VW55x_RELEASE_V1.0.2/MSDK/lwip/lwip-2.1.2/src/apps/altcp_tls\altcp_tls_mbedtls.c ****   LWIP_ASSERT("ret == copy_len", ret == copy_len);
 480:C:/Users/stapi/OneDrive/Desktop/GD32VW553/GD32VW55X_Wifi_BLE_SDK/GD32VW55x_RELEASE_V1.0.2/MSDK/lwip/lwip-2.1.2/src/apps/altcp_tls\altcp_tls_mbedtls.c ****   /* hide the copied bytes from the pbuf */
 481:C:/Users/stapi/OneDrive/Desktop/GD32VW553/GD32VW55X_Wifi_BLE_SDK/GD32VW55x_RELEASE_V1.0.2/MSDK/lwip/lwip-2.1.2/src/apps/altcp_tls\altcp_tls_mbedtls.c ****   err = pbuf_remove_header(p, ret);
 482:C:/Users/stapi/OneDrive/Desktop/GD32VW553/GD32VW55X_Wifi_BLE_SDK/GD32VW55x_RELEASE_V1.0.2/MSDK/lwip/lwip-2.1.2/src/apps/altcp_tls\altcp_tls_mbedtls.c ****   LWIP_ASSERT("error", err == ERR_OK);
 483:C:/Users/stapi/OneDrive/Desktop/GD32VW553/GD32VW55X_Wifi_BLE_SDK/GD32VW55x_RELEASE_V1.0.2/MSDK/lwip/lwip-2.1.2/src/apps/altcp_tls\altcp_tls_mbedtls.c ****   if (p->len == 0) {
 484:C:/Users/stapi/OneDrive/Desktop/GD32VW553/GD32VW55X_Wifi_BLE_SDK/GD32VW55x_RELEASE_V1.0.2/MSDK/lwip/lwip-2.1.2/src/apps/altcp_tls\altcp_tls_mbedtls.c ****     /* the first pbuf has been fully read, free it */
 485:C:/Users/stapi/OneDrive/Desktop/GD32VW553/GD32VW55X_Wifi_BLE_SDK/GD32VW55x_RELEASE_V1.0.2/MSDK/lwip/lwip-2.1.2/src/apps/altcp_tls\altcp_tls_mbedtls.c ****     state->rx = p->next;
 486:C:/Users/stapi/OneDrive/Desktop/GD32VW553/GD32VW55X_Wifi_BLE_SDK/GD32VW55x_RELEASE_V1.0.2/MSDK/lwip/lwip-2.1.2/src/apps/altcp_tls\altcp_tls_mbedtls.c ****     p->next = NULL;
 487:C:/Users/stapi/OneDrive/Desktop/GD32VW553/GD32VW55X_Wifi_BLE_SDK/GD32VW55x_RELEASE_V1.0.2/MSDK/lwip/lwip-2.1.2/src/apps/altcp_tls\altcp_tls_mbedtls.c ****     pbuf_free(p);
 488:C:/Users/stapi/OneDrive/Desktop/GD32VW553/GD32VW55X_Wifi_BLE_SDK/GD32VW55x_RELEASE_V1.0.2/MSDK/lwip/lwip-2.1.2/src/apps/altcp_tls\altcp_tls_mbedtls.c ****   }
 489:C:/Users/stapi/OneDrive/Desktop/GD32VW553/GD32VW55X_Wifi_BLE_SDK/GD32VW55x_RELEASE_V1.0.2/MSDK/lwip/lwip-2.1.2/src/apps/altcp_tls\altcp_tls_mbedtls.c **** 
 490:C:/Users/stapi/OneDrive/Desktop/GD32VW553/GD32VW55X_Wifi_BLE_SDK/GD32VW55x_RELEASE_V1.0.2/MSDK/lwip/lwip-2.1.2/src/apps/altcp_tls\altcp_tls_mbedtls.c ****   state->bio_bytes_read += (int)ret;
 491:C:/Users/stapi/OneDrive/Desktop/GD32VW553/GD32VW55X_Wifi_BLE_SDK/GD32VW55x_RELEASE_V1.0.2/MSDK/lwip/lwip-2.1.2/src/apps/altcp_tls\altcp_tls_mbedtls.c ****   return ret;
 492:C:/Users/stapi/OneDrive/Desktop/GD32VW553/GD32VW55X_Wifi_BLE_SDK/GD32VW55x_RELEASE_V1.0.2/MSDK/lwip/lwip-2.1.2/src/apps/altcp_tls\altcp_tls_mbedtls.c **** }
 493:C:/Users/stapi/OneDrive/Desktop/GD32VW553/GD32VW55X_Wifi_BLE_SDK/GD32VW55x_RELEASE_V1.0.2/MSDK/lwip/lwip-2.1.2/src/apps/altcp_tls\altcp_tls_mbedtls.c **** 
 494:C:/Users/stapi/OneDrive/Desktop/GD32VW553/GD32VW55X_Wifi_BLE_SDK/GD32VW55x_RELEASE_V1.0.2/MSDK/lwip/lwip-2.1.2/src/apps/altcp_tls\altcp_tls_mbedtls.c **** /** Sent callback from lower connection (i.e. TCP)
 495:C:/Users/stapi/OneDrive/Desktop/GD32VW553/GD32VW55X_Wifi_BLE_SDK/GD32VW55x_RELEASE_V1.0.2/MSDK/lwip/lwip-2.1.2/src/apps/altcp_tls\altcp_tls_mbedtls.c ****  * This only informs the upper layer to try to send more, not about
 496:C:/Users/stapi/OneDrive/Desktop/GD32VW553/GD32VW55X_Wifi_BLE_SDK/GD32VW55x_RELEASE_V1.0.2/MSDK/lwip/lwip-2.1.2/src/apps/altcp_tls\altcp_tls_mbedtls.c ****  * the number of ACKed bytes.
 497:C:/Users/stapi/OneDrive/Desktop/GD32VW553/GD32VW55X_Wifi_BLE_SDK/GD32VW55x_RELEASE_V1.0.2/MSDK/lwip/lwip-2.1.2/src/apps/altcp_tls\altcp_tls_mbedtls.c ****  */
 498:C:/Users/stapi/OneDrive/Desktop/GD32VW553/GD32VW55X_Wifi_BLE_SDK/GD32VW55x_RELEASE_V1.0.2/MSDK/lwip/lwip-2.1.2/src/apps/altcp_tls\altcp_tls_mbedtls.c **** static err_t
 499:C:/Users/stapi/OneDrive/Desktop/GD32VW553/GD32VW55X_Wifi_BLE_SDK/GD32VW55x_RELEASE_V1.0.2/MSDK/lwip/lwip-2.1.2/src/apps/altcp_tls\altcp_tls_mbedtls.c **** altcp_mbedtls_lower_sent(void *arg, struct altcp_pcb *inner_conn, u16_t len)
 500:C:/Users/stapi/OneDrive/Desktop/GD32VW553/GD32VW55X_Wifi_BLE_SDK/GD32VW55x_RELEASE_V1.0.2/MSDK/lwip/lwip-2.1.2/src/apps/altcp_tls\altcp_tls_mbedtls.c **** {
 501:C:/Users/stapi/OneDrive/Desktop/GD32VW553/GD32VW55X_Wifi_BLE_SDK/GD32VW55x_RELEASE_V1.0.2/MSDK/lwip/lwip-2.1.2/src/apps/altcp_tls\altcp_tls_mbedtls.c ****   struct altcp_pcb *conn = (struct altcp_pcb *)arg;
 502:C:/Users/stapi/OneDrive/Desktop/GD32VW553/GD32VW55X_Wifi_BLE_SDK/GD32VW55x_RELEASE_V1.0.2/MSDK/lwip/lwip-2.1.2/src/apps/altcp_tls\altcp_tls_mbedtls.c ****   LWIP_UNUSED_ARG(inner_conn); /* for LWIP_NOASSERT */
 503:C:/Users/stapi/OneDrive/Desktop/GD32VW553/GD32VW55X_Wifi_BLE_SDK/GD32VW55x_RELEASE_V1.0.2/MSDK/lwip/lwip-2.1.2/src/apps/altcp_tls\altcp_tls_mbedtls.c ****   LWIP_UNUSED_ARG(len);
 504:C:/Users/stapi/OneDrive/Desktop/GD32VW553/GD32VW55X_Wifi_BLE_SDK/GD32VW55x_RELEASE_V1.0.2/MSDK/lwip/lwip-2.1.2/src/apps/altcp_tls\altcp_tls_mbedtls.c ****   if (conn) {
 505:C:/Users/stapi/OneDrive/Desktop/GD32VW553/GD32VW55X_Wifi_BLE_SDK/GD32VW55x_RELEASE_V1.0.2/MSDK/lwip/lwip-2.1.2/src/apps/altcp_tls\altcp_tls_mbedtls.c ****     altcp_mbedtls_state_t *state = (altcp_mbedtls_state_t *)conn->state;
 506:C:/Users/stapi/OneDrive/Desktop/GD32VW553/GD32VW55X_Wifi_BLE_SDK/GD32VW55x_RELEASE_V1.0.2/MSDK/lwip/lwip-2.1.2/src/apps/altcp_tls\altcp_tls_mbedtls.c ****     LWIP_ASSERT("pcb mismatch", conn->inner_conn == inner_conn);
 507:C:/Users/stapi/OneDrive/Desktop/GD32VW553/GD32VW55X_Wifi_BLE_SDK/GD32VW55x_RELEASE_V1.0.2/MSDK/lwip/lwip-2.1.2/src/apps/altcp_tls\altcp_tls_mbedtls.c ****     if (!state || !(state->flags & ALTCP_MBEDTLS_FLAGS_HANDSHAKE_DONE)) {
 508:C:/Users/stapi/OneDrive/Desktop/GD32VW553/GD32VW55X_Wifi_BLE_SDK/GD32VW55x_RELEASE_V1.0.2/MSDK/lwip/lwip-2.1.2/src/apps/altcp_tls\altcp_tls_mbedtls.c ****       /* @todo: do something here? */
 509:C:/Users/stapi/OneDrive/Desktop/GD32VW553/GD32VW55X_Wifi_BLE_SDK/GD32VW55x_RELEASE_V1.0.2/MSDK/lwip/lwip-2.1.2/src/apps/altcp_tls\altcp_tls_mbedtls.c ****       return ERR_OK;
 510:C:/Users/stapi/OneDrive/Desktop/GD32VW553/GD32VW55X_Wifi_BLE_SDK/GD32VW55x_RELEASE_V1.0.2/MSDK/lwip/lwip-2.1.2/src/apps/altcp_tls\altcp_tls_mbedtls.c ****     }
 511:C:/Users/stapi/OneDrive/Desktop/GD32VW553/GD32VW55X_Wifi_BLE_SDK/GD32VW55x_RELEASE_V1.0.2/MSDK/lwip/lwip-2.1.2/src/apps/altcp_tls\altcp_tls_mbedtls.c ****     /* try to send more if we failed before */
 512:C:/Users/stapi/OneDrive/Desktop/GD32VW553/GD32VW55X_Wifi_BLE_SDK/GD32VW55x_RELEASE_V1.0.2/MSDK/lwip/lwip-2.1.2/src/apps/altcp_tls\altcp_tls_mbedtls.c ****     mbedtls_ssl_flush_output(&state->ssl_context);
 513:C:/Users/stapi/OneDrive/Desktop/GD32VW553/GD32VW55X_Wifi_BLE_SDK/GD32VW55x_RELEASE_V1.0.2/MSDK/lwip/lwip-2.1.2/src/apps/altcp_tls\altcp_tls_mbedtls.c ****     /* call upper sent with len==0 if the application already sent data */
 514:C:/Users/stapi/OneDrive/Desktop/GD32VW553/GD32VW55X_Wifi_BLE_SDK/GD32VW55x_RELEASE_V1.0.2/MSDK/lwip/lwip-2.1.2/src/apps/altcp_tls\altcp_tls_mbedtls.c ****     if ((state->flags & ALTCP_MBEDTLS_FLAGS_APPLDATA_SENT) && conn->sent) {
 515:C:/Users/stapi/OneDrive/Desktop/GD32VW553/GD32VW55X_Wifi_BLE_SDK/GD32VW55x_RELEASE_V1.0.2/MSDK/lwip/lwip-2.1.2/src/apps/altcp_tls\altcp_tls_mbedtls.c ****       return conn->sent(conn->arg, conn, 0);
 516:C:/Users/stapi/OneDrive/Desktop/GD32VW553/GD32VW55X_Wifi_BLE_SDK/GD32VW55x_RELEASE_V1.0.2/MSDK/lwip/lwip-2.1.2/src/apps/altcp_tls\altcp_tls_mbedtls.c ****     }
 517:C:/Users/stapi/OneDrive/Desktop/GD32VW553/GD32VW55X_Wifi_BLE_SDK/GD32VW55x_RELEASE_V1.0.2/MSDK/lwip/lwip-2.1.2/src/apps/altcp_tls\altcp_tls_mbedtls.c ****   }
 518:C:/Users/stapi/OneDrive/Desktop/GD32VW553/GD32VW55X_Wifi_BLE_SDK/GD32VW55x_RELEASE_V1.0.2/MSDK/lwip/lwip-2.1.2/src/apps/altcp_tls\altcp_tls_mbedtls.c ****   return ERR_OK;
 519:C:/Users/stapi/OneDrive/Desktop/GD32VW553/GD32VW55X_Wifi_BLE_SDK/GD32VW55x_RELEASE_V1.0.2/MSDK/lwip/lwip-2.1.2/src/apps/altcp_tls\altcp_tls_mbedtls.c **** }
 520:C:/Users/stapi/OneDrive/Desktop/GD32VW553/GD32VW55X_Wifi_BLE_SDK/GD32VW55x_RELEASE_V1.0.2/MSDK/lwip/lwip-2.1.2/src/apps/altcp_tls\altcp_tls_mbedtls.c **** 
 521:C:/Users/stapi/OneDrive/Desktop/GD32VW553/GD32VW55X_Wifi_BLE_SDK/GD32VW55x_RELEASE_V1.0.2/MSDK/lwip/lwip-2.1.2/src/apps/altcp_tls\altcp_tls_mbedtls.c **** /** Poll callback from lower connection (i.e. TCP)
 522:C:/Users/stapi/OneDrive/Desktop/GD32VW553/GD32VW55X_Wifi_BLE_SDK/GD32VW55x_RELEASE_V1.0.2/MSDK/lwip/lwip-2.1.2/src/apps/altcp_tls\altcp_tls_mbedtls.c ****  * Just pass this on to the application.
 523:C:/Users/stapi/OneDrive/Desktop/GD32VW553/GD32VW55X_Wifi_BLE_SDK/GD32VW55x_RELEASE_V1.0.2/MSDK/lwip/lwip-2.1.2/src/apps/altcp_tls\altcp_tls_mbedtls.c ****  * @todo: retry sending?
 524:C:/Users/stapi/OneDrive/Desktop/GD32VW553/GD32VW55X_Wifi_BLE_SDK/GD32VW55x_RELEASE_V1.0.2/MSDK/lwip/lwip-2.1.2/src/apps/altcp_tls\altcp_tls_mbedtls.c ****  */
 525:C:/Users/stapi/OneDrive/Desktop/GD32VW553/GD32VW55X_Wifi_BLE_SDK/GD32VW55x_RELEASE_V1.0.2/MSDK/lwip/lwip-2.1.2/src/apps/altcp_tls\altcp_tls_mbedtls.c **** static err_t
 526:C:/Users/stapi/OneDrive/Desktop/GD32VW553/GD32VW55X_Wifi_BLE_SDK/GD32VW55x_RELEASE_V1.0.2/MSDK/lwip/lwip-2.1.2/src/apps/altcp_tls\altcp_tls_mbedtls.c **** altcp_mbedtls_lower_poll(void *arg, struct altcp_pcb *inner_conn)
 527:C:/Users/stapi/OneDrive/Desktop/GD32VW553/GD32VW55X_Wifi_BLE_SDK/GD32VW55x_RELEASE_V1.0.2/MSDK/lwip/lwip-2.1.2/src/apps/altcp_tls\altcp_tls_mbedtls.c **** {
 528:C:/Users/stapi/OneDrive/Desktop/GD32VW553/GD32VW55X_Wifi_BLE_SDK/GD32VW55x_RELEASE_V1.0.2/MSDK/lwip/lwip-2.1.2/src/apps/altcp_tls\altcp_tls_mbedtls.c ****   struct altcp_pcb *conn = (struct altcp_pcb *)arg;
 529:C:/Users/stapi/OneDrive/Desktop/GD32VW553/GD32VW55X_Wifi_BLE_SDK/GD32VW55x_RELEASE_V1.0.2/MSDK/lwip/lwip-2.1.2/src/apps/altcp_tls\altcp_tls_mbedtls.c ****   LWIP_UNUSED_ARG(inner_conn); /* for LWIP_NOASSERT */
 530:C:/Users/stapi/OneDrive/Desktop/GD32VW553/GD32VW55X_Wifi_BLE_SDK/GD32VW55x_RELEASE_V1.0.2/MSDK/lwip/lwip-2.1.2/src/apps/altcp_tls\altcp_tls_mbedtls.c ****   if (conn) {
 531:C:/Users/stapi/OneDrive/Desktop/GD32VW553/GD32VW55X_Wifi_BLE_SDK/GD32VW55x_RELEASE_V1.0.2/MSDK/lwip/lwip-2.1.2/src/apps/altcp_tls\altcp_tls_mbedtls.c ****     LWIP_ASSERT("pcb mismatch", conn->inner_conn == inner_conn);
 532:C:/Users/stapi/OneDrive/Desktop/GD32VW553/GD32VW55X_Wifi_BLE_SDK/GD32VW55x_RELEASE_V1.0.2/MSDK/lwip/lwip-2.1.2/src/apps/altcp_tls\altcp_tls_mbedtls.c ****     /* check if there's unreceived rx data */
 533:C:/Users/stapi/OneDrive/Desktop/GD32VW553/GD32VW55X_Wifi_BLE_SDK/GD32VW55x_RELEASE_V1.0.2/MSDK/lwip/lwip-2.1.2/src/apps/altcp_tls\altcp_tls_mbedtls.c ****     if (conn->state) {
 534:C:/Users/stapi/OneDrive/Desktop/GD32VW553/GD32VW55X_Wifi_BLE_SDK/GD32VW55x_RELEASE_V1.0.2/MSDK/lwip/lwip-2.1.2/src/apps/altcp_tls\altcp_tls_mbedtls.c ****       altcp_mbedtls_state_t *state = (altcp_mbedtls_state_t *)conn->state;
 535:C:/Users/stapi/OneDrive/Desktop/GD32VW553/GD32VW55X_Wifi_BLE_SDK/GD32VW55x_RELEASE_V1.0.2/MSDK/lwip/lwip-2.1.2/src/apps/altcp_tls\altcp_tls_mbedtls.c ****       /* try to send more if we failed before */
 536:C:/Users/stapi/OneDrive/Desktop/GD32VW553/GD32VW55X_Wifi_BLE_SDK/GD32VW55x_RELEASE_V1.0.2/MSDK/lwip/lwip-2.1.2/src/apps/altcp_tls\altcp_tls_mbedtls.c ****       mbedtls_ssl_flush_output(&state->ssl_context);
 537:C:/Users/stapi/OneDrive/Desktop/GD32VW553/GD32VW55X_Wifi_BLE_SDK/GD32VW55x_RELEASE_V1.0.2/MSDK/lwip/lwip-2.1.2/src/apps/altcp_tls\altcp_tls_mbedtls.c ****       if (altcp_mbedtls_handle_rx_appldata(conn, state) == ERR_ABRT) {
 538:C:/Users/stapi/OneDrive/Desktop/GD32VW553/GD32VW55X_Wifi_BLE_SDK/GD32VW55x_RELEASE_V1.0.2/MSDK/lwip/lwip-2.1.2/src/apps/altcp_tls\altcp_tls_mbedtls.c ****         return ERR_ABRT;
 539:C:/Users/stapi/OneDrive/Desktop/GD32VW553/GD32VW55X_Wifi_BLE_SDK/GD32VW55x_RELEASE_V1.0.2/MSDK/lwip/lwip-2.1.2/src/apps/altcp_tls\altcp_tls_mbedtls.c ****       }
 540:C:/Users/stapi/OneDrive/Desktop/GD32VW553/GD32VW55X_Wifi_BLE_SDK/GD32VW55x_RELEASE_V1.0.2/MSDK/lwip/lwip-2.1.2/src/apps/altcp_tls\altcp_tls_mbedtls.c ****     }
 541:C:/Users/stapi/OneDrive/Desktop/GD32VW553/GD32VW55X_Wifi_BLE_SDK/GD32VW55x_RELEASE_V1.0.2/MSDK/lwip/lwip-2.1.2/src/apps/altcp_tls\altcp_tls_mbedtls.c ****     if (conn->poll) {
 542:C:/Users/stapi/OneDrive/Desktop/GD32VW553/GD32VW55X_Wifi_BLE_SDK/GD32VW55x_RELEASE_V1.0.2/MSDK/lwip/lwip-2.1.2/src/apps/altcp_tls\altcp_tls_mbedtls.c ****       return conn->poll(conn->arg, conn);
 543:C:/Users/stapi/OneDrive/Desktop/GD32VW553/GD32VW55X_Wifi_BLE_SDK/GD32VW55x_RELEASE_V1.0.2/MSDK/lwip/lwip-2.1.2/src/apps/altcp_tls\altcp_tls_mbedtls.c ****     }
 544:C:/Users/stapi/OneDrive/Desktop/GD32VW553/GD32VW55X_Wifi_BLE_SDK/GD32VW55x_RELEASE_V1.0.2/MSDK/lwip/lwip-2.1.2/src/apps/altcp_tls\altcp_tls_mbedtls.c ****   }
 545:C:/Users/stapi/OneDrive/Desktop/GD32VW553/GD32VW55X_Wifi_BLE_SDK/GD32VW55x_RELEASE_V1.0.2/MSDK/lwip/lwip-2.1.2/src/apps/altcp_tls\altcp_tls_mbedtls.c ****   return ERR_OK;
 546:C:/Users/stapi/OneDrive/Desktop/GD32VW553/GD32VW55X_Wifi_BLE_SDK/GD32VW55x_RELEASE_V1.0.2/MSDK/lwip/lwip-2.1.2/src/apps/altcp_tls\altcp_tls_mbedtls.c **** }
 547:C:/Users/stapi/OneDrive/Desktop/GD32VW553/GD32VW55X_Wifi_BLE_SDK/GD32VW55x_RELEASE_V1.0.2/MSDK/lwip/lwip-2.1.2/src/apps/altcp_tls\altcp_tls_mbedtls.c **** 
 548:C:/Users/stapi/OneDrive/Desktop/GD32VW553/GD32VW55X_Wifi_BLE_SDK/GD32VW55x_RELEASE_V1.0.2/MSDK/lwip/lwip-2.1.2/src/apps/altcp_tls\altcp_tls_mbedtls.c **** static void
 549:C:/Users/stapi/OneDrive/Desktop/GD32VW553/GD32VW55X_Wifi_BLE_SDK/GD32VW55x_RELEASE_V1.0.2/MSDK/lwip/lwip-2.1.2/src/apps/altcp_tls\altcp_tls_mbedtls.c **** altcp_mbedtls_lower_err(void *arg, err_t err)
 550:C:/Users/stapi/OneDrive/Desktop/GD32VW553/GD32VW55X_Wifi_BLE_SDK/GD32VW55x_RELEASE_V1.0.2/MSDK/lwip/lwip-2.1.2/src/apps/altcp_tls\altcp_tls_mbedtls.c **** {
 551:C:/Users/stapi/OneDrive/Desktop/GD32VW553/GD32VW55X_Wifi_BLE_SDK/GD32VW55x_RELEASE_V1.0.2/MSDK/lwip/lwip-2.1.2/src/apps/altcp_tls\altcp_tls_mbedtls.c ****   struct altcp_pcb *conn = (struct altcp_pcb *)arg;
 552:C:/Users/stapi/OneDrive/Desktop/GD32VW553/GD32VW55X_Wifi_BLE_SDK/GD32VW55x_RELEASE_V1.0.2/MSDK/lwip/lwip-2.1.2/src/apps/altcp_tls\altcp_tls_mbedtls.c ****   if (conn) {
 553:C:/Users/stapi/OneDrive/Desktop/GD32VW553/GD32VW55X_Wifi_BLE_SDK/GD32VW55x_RELEASE_V1.0.2/MSDK/lwip/lwip-2.1.2/src/apps/altcp_tls\altcp_tls_mbedtls.c ****     conn->inner_conn = NULL; /* already freed */
 554:C:/Users/stapi/OneDrive/Desktop/GD32VW553/GD32VW55X_Wifi_BLE_SDK/GD32VW55x_RELEASE_V1.0.2/MSDK/lwip/lwip-2.1.2/src/apps/altcp_tls\altcp_tls_mbedtls.c ****     if (conn->err) {
 555:C:/Users/stapi/OneDrive/Desktop/GD32VW553/GD32VW55X_Wifi_BLE_SDK/GD32VW55x_RELEASE_V1.0.2/MSDK/lwip/lwip-2.1.2/src/apps/altcp_tls\altcp_tls_mbedtls.c ****       conn->err(conn->arg, err);
 556:C:/Users/stapi/OneDrive/Desktop/GD32VW553/GD32VW55X_Wifi_BLE_SDK/GD32VW55x_RELEASE_V1.0.2/MSDK/lwip/lwip-2.1.2/src/apps/altcp_tls\altcp_tls_mbedtls.c ****     }
 557:C:/Users/stapi/OneDrive/Desktop/GD32VW553/GD32VW55X_Wifi_BLE_SDK/GD32VW55x_RELEASE_V1.0.2/MSDK/lwip/lwip-2.1.2/src/apps/altcp_tls\altcp_tls_mbedtls.c ****     altcp_free(conn);
 558:C:/Users/stapi/OneDrive/Desktop/GD32VW553/GD32VW55X_Wifi_BLE_SDK/GD32VW55x_RELEASE_V1.0.2/MSDK/lwip/lwip-2.1.2/src/apps/altcp_tls\altcp_tls_mbedtls.c ****   }
 559:C:/Users/stapi/OneDrive/Desktop/GD32VW553/GD32VW55X_Wifi_BLE_SDK/GD32VW55x_RELEASE_V1.0.2/MSDK/lwip/lwip-2.1.2/src/apps/altcp_tls\altcp_tls_mbedtls.c **** }
 560:C:/Users/stapi/OneDrive/Desktop/GD32VW553/GD32VW55X_Wifi_BLE_SDK/GD32VW55x_RELEASE_V1.0.2/MSDK/lwip/lwip-2.1.2/src/apps/altcp_tls\altcp_tls_mbedtls.c **** 
 561:C:/Users/stapi/OneDrive/Desktop/GD32VW553/GD32VW55X_Wifi_BLE_SDK/GD32VW55x_RELEASE_V1.0.2/MSDK/lwip/lwip-2.1.2/src/apps/altcp_tls\altcp_tls_mbedtls.c **** /* setup functions */
 562:C:/Users/stapi/OneDrive/Desktop/GD32VW553/GD32VW55X_Wifi_BLE_SDK/GD32VW55x_RELEASE_V1.0.2/MSDK/lwip/lwip-2.1.2/src/apps/altcp_tls\altcp_tls_mbedtls.c **** 
 563:C:/Users/stapi/OneDrive/Desktop/GD32VW553/GD32VW55X_Wifi_BLE_SDK/GD32VW55x_RELEASE_V1.0.2/MSDK/lwip/lwip-2.1.2/src/apps/altcp_tls\altcp_tls_mbedtls.c **** static void
 564:C:/Users/stapi/OneDrive/Desktop/GD32VW553/GD32VW55X_Wifi_BLE_SDK/GD32VW55x_RELEASE_V1.0.2/MSDK/lwip/lwip-2.1.2/src/apps/altcp_tls\altcp_tls_mbedtls.c **** altcp_mbedtls_remove_callbacks(struct altcp_pcb *inner_conn)
 565:C:/Users/stapi/OneDrive/Desktop/GD32VW553/GD32VW55X_Wifi_BLE_SDK/GD32VW55x_RELEASE_V1.0.2/MSDK/lwip/lwip-2.1.2/src/apps/altcp_tls\altcp_tls_mbedtls.c **** {
 566:C:/Users/stapi/OneDrive/Desktop/GD32VW553/GD32VW55X_Wifi_BLE_SDK/GD32VW55x_RELEASE_V1.0.2/MSDK/lwip/lwip-2.1.2/src/apps/altcp_tls\altcp_tls_mbedtls.c ****   altcp_arg(inner_conn, NULL);
 567:C:/Users/stapi/OneDrive/Desktop/GD32VW553/GD32VW55X_Wifi_BLE_SDK/GD32VW55x_RELEASE_V1.0.2/MSDK/lwip/lwip-2.1.2/src/apps/altcp_tls\altcp_tls_mbedtls.c ****   altcp_recv(inner_conn, NULL);
 568:C:/Users/stapi/OneDrive/Desktop/GD32VW553/GD32VW55X_Wifi_BLE_SDK/GD32VW55x_RELEASE_V1.0.2/MSDK/lwip/lwip-2.1.2/src/apps/altcp_tls\altcp_tls_mbedtls.c ****   altcp_sent(inner_conn, NULL);
 569:C:/Users/stapi/OneDrive/Desktop/GD32VW553/GD32VW55X_Wifi_BLE_SDK/GD32VW55x_RELEASE_V1.0.2/MSDK/lwip/lwip-2.1.2/src/apps/altcp_tls\altcp_tls_mbedtls.c ****   altcp_err(inner_conn, NULL);
 570:C:/Users/stapi/OneDrive/Desktop/GD32VW553/GD32VW55X_Wifi_BLE_SDK/GD32VW55x_RELEASE_V1.0.2/MSDK/lwip/lwip-2.1.2/src/apps/altcp_tls\altcp_tls_mbedtls.c ****   altcp_poll(inner_conn, NULL, inner_conn->pollinterval);
 571:C:/Users/stapi/OneDrive/Desktop/GD32VW553/GD32VW55X_Wifi_BLE_SDK/GD32VW55x_RELEASE_V1.0.2/MSDK/lwip/lwip-2.1.2/src/apps/altcp_tls\altcp_tls_mbedtls.c **** }
 572:C:/Users/stapi/OneDrive/Desktop/GD32VW553/GD32VW55X_Wifi_BLE_SDK/GD32VW55x_RELEASE_V1.0.2/MSDK/lwip/lwip-2.1.2/src/apps/altcp_tls\altcp_tls_mbedtls.c **** 
 573:C:/Users/stapi/OneDrive/Desktop/GD32VW553/GD32VW55X_Wifi_BLE_SDK/GD32VW55x_RELEASE_V1.0.2/MSDK/lwip/lwip-2.1.2/src/apps/altcp_tls\altcp_tls_mbedtls.c **** static void
 574:C:/Users/stapi/OneDrive/Desktop/GD32VW553/GD32VW55X_Wifi_BLE_SDK/GD32VW55x_RELEASE_V1.0.2/MSDK/lwip/lwip-2.1.2/src/apps/altcp_tls\altcp_tls_mbedtls.c **** altcp_mbedtls_setup_callbacks(struct altcp_pcb *conn, struct altcp_pcb *inner_conn)
 575:C:/Users/stapi/OneDrive/Desktop/GD32VW553/GD32VW55X_Wifi_BLE_SDK/GD32VW55x_RELEASE_V1.0.2/MSDK/lwip/lwip-2.1.2/src/apps/altcp_tls\altcp_tls_mbedtls.c **** {
 576:C:/Users/stapi/OneDrive/Desktop/GD32VW553/GD32VW55X_Wifi_BLE_SDK/GD32VW55x_RELEASE_V1.0.2/MSDK/lwip/lwip-2.1.2/src/apps/altcp_tls\altcp_tls_mbedtls.c ****   altcp_arg(inner_conn, conn);
 577:C:/Users/stapi/OneDrive/Desktop/GD32VW553/GD32VW55X_Wifi_BLE_SDK/GD32VW55x_RELEASE_V1.0.2/MSDK/lwip/lwip-2.1.2/src/apps/altcp_tls\altcp_tls_mbedtls.c ****   altcp_recv(inner_conn, altcp_mbedtls_lower_recv);
 578:C:/Users/stapi/OneDrive/Desktop/GD32VW553/GD32VW55X_Wifi_BLE_SDK/GD32VW55x_RELEASE_V1.0.2/MSDK/lwip/lwip-2.1.2/src/apps/altcp_tls\altcp_tls_mbedtls.c ****   altcp_sent(inner_conn, altcp_mbedtls_lower_sent);
 579:C:/Users/stapi/OneDrive/Desktop/GD32VW553/GD32VW55X_Wifi_BLE_SDK/GD32VW55x_RELEASE_V1.0.2/MSDK/lwip/lwip-2.1.2/src/apps/altcp_tls\altcp_tls_mbedtls.c ****   altcp_err(inner_conn, altcp_mbedtls_lower_err);
 580:C:/Users/stapi/OneDrive/Desktop/GD32VW553/GD32VW55X_Wifi_BLE_SDK/GD32VW55x_RELEASE_V1.0.2/MSDK/lwip/lwip-2.1.2/src/apps/altcp_tls\altcp_tls_mbedtls.c ****   /* tcp_poll is set when interval is set by application */
 581:C:/Users/stapi/OneDrive/Desktop/GD32VW553/GD32VW55X_Wifi_BLE_SDK/GD32VW55x_RELEASE_V1.0.2/MSDK/lwip/lwip-2.1.2/src/apps/altcp_tls\altcp_tls_mbedtls.c ****   /* listen is set totally different :-) */
 582:C:/Users/stapi/OneDrive/Desktop/GD32VW553/GD32VW55X_Wifi_BLE_SDK/GD32VW55x_RELEASE_V1.0.2/MSDK/lwip/lwip-2.1.2/src/apps/altcp_tls\altcp_tls_mbedtls.c **** }
 583:C:/Users/stapi/OneDrive/Desktop/GD32VW553/GD32VW55X_Wifi_BLE_SDK/GD32VW55x_RELEASE_V1.0.2/MSDK/lwip/lwip-2.1.2/src/apps/altcp_tls\altcp_tls_mbedtls.c **** 
 584:C:/Users/stapi/OneDrive/Desktop/GD32VW553/GD32VW55X_Wifi_BLE_SDK/GD32VW55x_RELEASE_V1.0.2/MSDK/lwip/lwip-2.1.2/src/apps/altcp_tls\altcp_tls_mbedtls.c **** static err_t
 585:C:/Users/stapi/OneDrive/Desktop/GD32VW553/GD32VW55X_Wifi_BLE_SDK/GD32VW55x_RELEASE_V1.0.2/MSDK/lwip/lwip-2.1.2/src/apps/altcp_tls\altcp_tls_mbedtls.c **** altcp_mbedtls_setup(void *conf, struct altcp_pcb *conn, struct altcp_pcb *inner_conn)
 586:C:/Users/stapi/OneDrive/Desktop/GD32VW553/GD32VW55X_Wifi_BLE_SDK/GD32VW55x_RELEASE_V1.0.2/MSDK/lwip/lwip-2.1.2/src/apps/altcp_tls\altcp_tls_mbedtls.c **** {
 587:C:/Users/stapi/OneDrive/Desktop/GD32VW553/GD32VW55X_Wifi_BLE_SDK/GD32VW55x_RELEASE_V1.0.2/MSDK/lwip/lwip-2.1.2/src/apps/altcp_tls\altcp_tls_mbedtls.c ****   int ret;
 588:C:/Users/stapi/OneDrive/Desktop/GD32VW553/GD32VW55X_Wifi_BLE_SDK/GD32VW55x_RELEASE_V1.0.2/MSDK/lwip/lwip-2.1.2/src/apps/altcp_tls\altcp_tls_mbedtls.c ****   struct altcp_tls_config *config = (struct altcp_tls_config *)conf;
 589:C:/Users/stapi/OneDrive/Desktop/GD32VW553/GD32VW55X_Wifi_BLE_SDK/GD32VW55x_RELEASE_V1.0.2/MSDK/lwip/lwip-2.1.2/src/apps/altcp_tls\altcp_tls_mbedtls.c ****   altcp_mbedtls_state_t *state;
 590:C:/Users/stapi/OneDrive/Desktop/GD32VW553/GD32VW55X_Wifi_BLE_SDK/GD32VW55x_RELEASE_V1.0.2/MSDK/lwip/lwip-2.1.2/src/apps/altcp_tls\altcp_tls_mbedtls.c ****   if (!conf) {
 591:C:/Users/stapi/OneDrive/Desktop/GD32VW553/GD32VW55X_Wifi_BLE_SDK/GD32VW55x_RELEASE_V1.0.2/MSDK/lwip/lwip-2.1.2/src/apps/altcp_tls\altcp_tls_mbedtls.c ****     return ERR_ARG;
 592:C:/Users/stapi/OneDrive/Desktop/GD32VW553/GD32VW55X_Wifi_BLE_SDK/GD32VW55x_RELEASE_V1.0.2/MSDK/lwip/lwip-2.1.2/src/apps/altcp_tls\altcp_tls_mbedtls.c ****   }
 593:C:/Users/stapi/OneDrive/Desktop/GD32VW553/GD32VW55X_Wifi_BLE_SDK/GD32VW55x_RELEASE_V1.0.2/MSDK/lwip/lwip-2.1.2/src/apps/altcp_tls\altcp_tls_mbedtls.c ****   LWIP_ASSERT("invalid inner_conn", conn != inner_conn);
 594:C:/Users/stapi/OneDrive/Desktop/GD32VW553/GD32VW55X_Wifi_BLE_SDK/GD32VW55x_RELEASE_V1.0.2/MSDK/lwip/lwip-2.1.2/src/apps/altcp_tls\altcp_tls_mbedtls.c **** 
 595:C:/Users/stapi/OneDrive/Desktop/GD32VW553/GD32VW55X_Wifi_BLE_SDK/GD32VW55x_RELEASE_V1.0.2/MSDK/lwip/lwip-2.1.2/src/apps/altcp_tls\altcp_tls_mbedtls.c ****   /* allocate mbedtls context */
 596:C:/Users/stapi/OneDrive/Desktop/GD32VW553/GD32VW55X_Wifi_BLE_SDK/GD32VW55x_RELEASE_V1.0.2/MSDK/lwip/lwip-2.1.2/src/apps/altcp_tls\altcp_tls_mbedtls.c ****   state = altcp_mbedtls_alloc(conf);
 597:C:/Users/stapi/OneDrive/Desktop/GD32VW553/GD32VW55X_Wifi_BLE_SDK/GD32VW55x_RELEASE_V1.0.2/MSDK/lwip/lwip-2.1.2/src/apps/altcp_tls\altcp_tls_mbedtls.c ****   if (state == NULL) {
 598:C:/Users/stapi/OneDrive/Desktop/GD32VW553/GD32VW55X_Wifi_BLE_SDK/GD32VW55x_RELEASE_V1.0.2/MSDK/lwip/lwip-2.1.2/src/apps/altcp_tls\altcp_tls_mbedtls.c ****     return ERR_MEM;
 599:C:/Users/stapi/OneDrive/Desktop/GD32VW553/GD32VW55X_Wifi_BLE_SDK/GD32VW55x_RELEASE_V1.0.2/MSDK/lwip/lwip-2.1.2/src/apps/altcp_tls\altcp_tls_mbedtls.c ****   }
 600:C:/Users/stapi/OneDrive/Desktop/GD32VW553/GD32VW55X_Wifi_BLE_SDK/GD32VW55x_RELEASE_V1.0.2/MSDK/lwip/lwip-2.1.2/src/apps/altcp_tls\altcp_tls_mbedtls.c ****   /* initialize mbedtls context: */
 601:C:/Users/stapi/OneDrive/Desktop/GD32VW553/GD32VW55X_Wifi_BLE_SDK/GD32VW55x_RELEASE_V1.0.2/MSDK/lwip/lwip-2.1.2/src/apps/altcp_tls\altcp_tls_mbedtls.c ****   mbedtls_ssl_init(&state->ssl_context);
 602:C:/Users/stapi/OneDrive/Desktop/GD32VW553/GD32VW55X_Wifi_BLE_SDK/GD32VW55x_RELEASE_V1.0.2/MSDK/lwip/lwip-2.1.2/src/apps/altcp_tls\altcp_tls_mbedtls.c ****   ret = mbedtls_ssl_setup(&state->ssl_context, &config->conf);
 603:C:/Users/stapi/OneDrive/Desktop/GD32VW553/GD32VW55X_Wifi_BLE_SDK/GD32VW55x_RELEASE_V1.0.2/MSDK/lwip/lwip-2.1.2/src/apps/altcp_tls\altcp_tls_mbedtls.c ****   if (ret != 0) {
 604:C:/Users/stapi/OneDrive/Desktop/GD32VW553/GD32VW55X_Wifi_BLE_SDK/GD32VW55x_RELEASE_V1.0.2/MSDK/lwip/lwip-2.1.2/src/apps/altcp_tls\altcp_tls_mbedtls.c ****     LWIP_DEBUGF(ALTCP_MBEDTLS_DEBUG, ("mbedtls_ssl_setup failed\n"));
 605:C:/Users/stapi/OneDrive/Desktop/GD32VW553/GD32VW55X_Wifi_BLE_SDK/GD32VW55x_RELEASE_V1.0.2/MSDK/lwip/lwip-2.1.2/src/apps/altcp_tls\altcp_tls_mbedtls.c ****     /* @todo: convert 'ret' to err_t */
 606:C:/Users/stapi/OneDrive/Desktop/GD32VW553/GD32VW55X_Wifi_BLE_SDK/GD32VW55x_RELEASE_V1.0.2/MSDK/lwip/lwip-2.1.2/src/apps/altcp_tls\altcp_tls_mbedtls.c ****     altcp_mbedtls_free(conf, state);
 607:C:/Users/stapi/OneDrive/Desktop/GD32VW553/GD32VW55X_Wifi_BLE_SDK/GD32VW55x_RELEASE_V1.0.2/MSDK/lwip/lwip-2.1.2/src/apps/altcp_tls\altcp_tls_mbedtls.c ****     return ERR_MEM;
 608:C:/Users/stapi/OneDrive/Desktop/GD32VW553/GD32VW55X_Wifi_BLE_SDK/GD32VW55x_RELEASE_V1.0.2/MSDK/lwip/lwip-2.1.2/src/apps/altcp_tls\altcp_tls_mbedtls.c ****   }
 609:C:/Users/stapi/OneDrive/Desktop/GD32VW553/GD32VW55X_Wifi_BLE_SDK/GD32VW55x_RELEASE_V1.0.2/MSDK/lwip/lwip-2.1.2/src/apps/altcp_tls\altcp_tls_mbedtls.c ****   /* tell mbedtls about our I/O functions */
 610:C:/Users/stapi/OneDrive/Desktop/GD32VW553/GD32VW55X_Wifi_BLE_SDK/GD32VW55x_RELEASE_V1.0.2/MSDK/lwip/lwip-2.1.2/src/apps/altcp_tls\altcp_tls_mbedtls.c ****   mbedtls_ssl_set_bio(&state->ssl_context, conn, altcp_mbedtls_bio_send, altcp_mbedtls_bio_recv, NU
 611:C:/Users/stapi/OneDrive/Desktop/GD32VW553/GD32VW55X_Wifi_BLE_SDK/GD32VW55x_RELEASE_V1.0.2/MSDK/lwip/lwip-2.1.2/src/apps/altcp_tls\altcp_tls_mbedtls.c **** 
 612:C:/Users/stapi/OneDrive/Desktop/GD32VW553/GD32VW55X_Wifi_BLE_SDK/GD32VW55x_RELEASE_V1.0.2/MSDK/lwip/lwip-2.1.2/src/apps/altcp_tls\altcp_tls_mbedtls.c ****   altcp_mbedtls_setup_callbacks(conn, inner_conn);
 613:C:/Users/stapi/OneDrive/Desktop/GD32VW553/GD32VW55X_Wifi_BLE_SDK/GD32VW55x_RELEASE_V1.0.2/MSDK/lwip/lwip-2.1.2/src/apps/altcp_tls\altcp_tls_mbedtls.c ****   conn->inner_conn = inner_conn;
 614:C:/Users/stapi/OneDrive/Desktop/GD32VW553/GD32VW55X_Wifi_BLE_SDK/GD32VW55x_RELEASE_V1.0.2/MSDK/lwip/lwip-2.1.2/src/apps/altcp_tls\altcp_tls_mbedtls.c ****   conn->fns = &altcp_mbedtls_functions;
 615:C:/Users/stapi/OneDrive/Desktop/GD32VW553/GD32VW55X_Wifi_BLE_SDK/GD32VW55x_RELEASE_V1.0.2/MSDK/lwip/lwip-2.1.2/src/apps/altcp_tls\altcp_tls_mbedtls.c ****   conn->state = state;
 616:C:/Users/stapi/OneDrive/Desktop/GD32VW553/GD32VW55X_Wifi_BLE_SDK/GD32VW55x_RELEASE_V1.0.2/MSDK/lwip/lwip-2.1.2/src/apps/altcp_tls\altcp_tls_mbedtls.c ****   return ERR_OK;
 617:C:/Users/stapi/OneDrive/Desktop/GD32VW553/GD32VW55X_Wifi_BLE_SDK/GD32VW55x_RELEASE_V1.0.2/MSDK/lwip/lwip-2.1.2/src/apps/altcp_tls\altcp_tls_mbedtls.c **** }
 618:C:/Users/stapi/OneDrive/Desktop/GD32VW553/GD32VW55X_Wifi_BLE_SDK/GD32VW55x_RELEASE_V1.0.2/MSDK/lwip/lwip-2.1.2/src/apps/altcp_tls\altcp_tls_mbedtls.c **** 
 619:C:/Users/stapi/OneDrive/Desktop/GD32VW553/GD32VW55X_Wifi_BLE_SDK/GD32VW55x_RELEASE_V1.0.2/MSDK/lwip/lwip-2.1.2/src/apps/altcp_tls\altcp_tls_mbedtls.c **** struct altcp_pcb *
 620:C:/Users/stapi/OneDrive/Desktop/GD32VW553/GD32VW55X_Wifi_BLE_SDK/GD32VW55x_RELEASE_V1.0.2/MSDK/lwip/lwip-2.1.2/src/apps/altcp_tls\altcp_tls_mbedtls.c **** altcp_tls_wrap(struct altcp_tls_config *config, struct altcp_pcb *inner_pcb)
 621:C:/Users/stapi/OneDrive/Desktop/GD32VW553/GD32VW55X_Wifi_BLE_SDK/GD32VW55x_RELEASE_V1.0.2/MSDK/lwip/lwip-2.1.2/src/apps/altcp_tls\altcp_tls_mbedtls.c **** {
 622:C:/Users/stapi/OneDrive/Desktop/GD32VW553/GD32VW55X_Wifi_BLE_SDK/GD32VW55x_RELEASE_V1.0.2/MSDK/lwip/lwip-2.1.2/src/apps/altcp_tls\altcp_tls_mbedtls.c ****   struct altcp_pcb *ret;
 623:C:/Users/stapi/OneDrive/Desktop/GD32VW553/GD32VW55X_Wifi_BLE_SDK/GD32VW55x_RELEASE_V1.0.2/MSDK/lwip/lwip-2.1.2/src/apps/altcp_tls\altcp_tls_mbedtls.c ****   if (inner_pcb == NULL) {
 624:C:/Users/stapi/OneDrive/Desktop/GD32VW553/GD32VW55X_Wifi_BLE_SDK/GD32VW55x_RELEASE_V1.0.2/MSDK/lwip/lwip-2.1.2/src/apps/altcp_tls\altcp_tls_mbedtls.c ****     return NULL;
 625:C:/Users/stapi/OneDrive/Desktop/GD32VW553/GD32VW55X_Wifi_BLE_SDK/GD32VW55x_RELEASE_V1.0.2/MSDK/lwip/lwip-2.1.2/src/apps/altcp_tls\altcp_tls_mbedtls.c ****   }
 626:C:/Users/stapi/OneDrive/Desktop/GD32VW553/GD32VW55X_Wifi_BLE_SDK/GD32VW55x_RELEASE_V1.0.2/MSDK/lwip/lwip-2.1.2/src/apps/altcp_tls\altcp_tls_mbedtls.c ****   ret = altcp_alloc();
 627:C:/Users/stapi/OneDrive/Desktop/GD32VW553/GD32VW55X_Wifi_BLE_SDK/GD32VW55x_RELEASE_V1.0.2/MSDK/lwip/lwip-2.1.2/src/apps/altcp_tls\altcp_tls_mbedtls.c ****   if (ret != NULL) {
 628:C:/Users/stapi/OneDrive/Desktop/GD32VW553/GD32VW55X_Wifi_BLE_SDK/GD32VW55x_RELEASE_V1.0.2/MSDK/lwip/lwip-2.1.2/src/apps/altcp_tls\altcp_tls_mbedtls.c ****     if (altcp_mbedtls_setup(config, ret, inner_pcb) != ERR_OK) {
 629:C:/Users/stapi/OneDrive/Desktop/GD32VW553/GD32VW55X_Wifi_BLE_SDK/GD32VW55x_RELEASE_V1.0.2/MSDK/lwip/lwip-2.1.2/src/apps/altcp_tls\altcp_tls_mbedtls.c ****       altcp_free(ret);
 630:C:/Users/stapi/OneDrive/Desktop/GD32VW553/GD32VW55X_Wifi_BLE_SDK/GD32VW55x_RELEASE_V1.0.2/MSDK/lwip/lwip-2.1.2/src/apps/altcp_tls\altcp_tls_mbedtls.c ****       return NULL;
 631:C:/Users/stapi/OneDrive/Desktop/GD32VW553/GD32VW55X_Wifi_BLE_SDK/GD32VW55x_RELEASE_V1.0.2/MSDK/lwip/lwip-2.1.2/src/apps/altcp_tls\altcp_tls_mbedtls.c ****     }
 632:C:/Users/stapi/OneDrive/Desktop/GD32VW553/GD32VW55X_Wifi_BLE_SDK/GD32VW55x_RELEASE_V1.0.2/MSDK/lwip/lwip-2.1.2/src/apps/altcp_tls\altcp_tls_mbedtls.c ****   }
 633:C:/Users/stapi/OneDrive/Desktop/GD32VW553/GD32VW55X_Wifi_BLE_SDK/GD32VW55x_RELEASE_V1.0.2/MSDK/lwip/lwip-2.1.2/src/apps/altcp_tls\altcp_tls_mbedtls.c ****   return ret;
 634:C:/Users/stapi/OneDrive/Desktop/GD32VW553/GD32VW55X_Wifi_BLE_SDK/GD32VW55x_RELEASE_V1.0.2/MSDK/lwip/lwip-2.1.2/src/apps/altcp_tls\altcp_tls_mbedtls.c **** }
 635:C:/Users/stapi/OneDrive/Desktop/GD32VW553/GD32VW55X_Wifi_BLE_SDK/GD32VW55x_RELEASE_V1.0.2/MSDK/lwip/lwip-2.1.2/src/apps/altcp_tls\altcp_tls_mbedtls.c **** 
 636:C:/Users/stapi/OneDrive/Desktop/GD32VW553/GD32VW55X_Wifi_BLE_SDK/GD32VW55x_RELEASE_V1.0.2/MSDK/lwip/lwip-2.1.2/src/apps/altcp_tls\altcp_tls_mbedtls.c **** void *
 637:C:/Users/stapi/OneDrive/Desktop/GD32VW553/GD32VW55X_Wifi_BLE_SDK/GD32VW55x_RELEASE_V1.0.2/MSDK/lwip/lwip-2.1.2/src/apps/altcp_tls\altcp_tls_mbedtls.c **** altcp_tls_context(struct altcp_pcb *conn)
 638:C:/Users/stapi/OneDrive/Desktop/GD32VW553/GD32VW55X_Wifi_BLE_SDK/GD32VW55x_RELEASE_V1.0.2/MSDK/lwip/lwip-2.1.2/src/apps/altcp_tls\altcp_tls_mbedtls.c **** {
 639:C:/Users/stapi/OneDrive/Desktop/GD32VW553/GD32VW55X_Wifi_BLE_SDK/GD32VW55x_RELEASE_V1.0.2/MSDK/lwip/lwip-2.1.2/src/apps/altcp_tls\altcp_tls_mbedtls.c ****   if (conn && conn->state) {
 640:C:/Users/stapi/OneDrive/Desktop/GD32VW553/GD32VW55X_Wifi_BLE_SDK/GD32VW55x_RELEASE_V1.0.2/MSDK/lwip/lwip-2.1.2/src/apps/altcp_tls\altcp_tls_mbedtls.c ****     altcp_mbedtls_state_t *state = (altcp_mbedtls_state_t *)conn->state;
 641:C:/Users/stapi/OneDrive/Desktop/GD32VW553/GD32VW55X_Wifi_BLE_SDK/GD32VW55x_RELEASE_V1.0.2/MSDK/lwip/lwip-2.1.2/src/apps/altcp_tls\altcp_tls_mbedtls.c ****     return &state->ssl_context;
 642:C:/Users/stapi/OneDrive/Desktop/GD32VW553/GD32VW55X_Wifi_BLE_SDK/GD32VW55x_RELEASE_V1.0.2/MSDK/lwip/lwip-2.1.2/src/apps/altcp_tls\altcp_tls_mbedtls.c ****   }
 643:C:/Users/stapi/OneDrive/Desktop/GD32VW553/GD32VW55X_Wifi_BLE_SDK/GD32VW55x_RELEASE_V1.0.2/MSDK/lwip/lwip-2.1.2/src/apps/altcp_tls\altcp_tls_mbedtls.c ****   return NULL;
 644:C:/Users/stapi/OneDrive/Desktop/GD32VW553/GD32VW55X_Wifi_BLE_SDK/GD32VW55x_RELEASE_V1.0.2/MSDK/lwip/lwip-2.1.2/src/apps/altcp_tls\altcp_tls_mbedtls.c **** }
 645:C:/Users/stapi/OneDrive/Desktop/GD32VW553/GD32VW55X_Wifi_BLE_SDK/GD32VW55x_RELEASE_V1.0.2/MSDK/lwip/lwip-2.1.2/src/apps/altcp_tls\altcp_tls_mbedtls.c **** 
 646:C:/Users/stapi/OneDrive/Desktop/GD32VW553/GD32VW55X_Wifi_BLE_SDK/GD32VW55x_RELEASE_V1.0.2/MSDK/lwip/lwip-2.1.2/src/apps/altcp_tls\altcp_tls_mbedtls.c **** #if ALTCP_MBEDTLS_DEBUG != LWIP_DBG_OFF
 647:C:/Users/stapi/OneDrive/Desktop/GD32VW553/GD32VW55X_Wifi_BLE_SDK/GD32VW55x_RELEASE_V1.0.2/MSDK/lwip/lwip-2.1.2/src/apps/altcp_tls\altcp_tls_mbedtls.c **** static void
 648:C:/Users/stapi/OneDrive/Desktop/GD32VW553/GD32VW55X_Wifi_BLE_SDK/GD32VW55x_RELEASE_V1.0.2/MSDK/lwip/lwip-2.1.2/src/apps/altcp_tls\altcp_tls_mbedtls.c **** altcp_mbedtls_debug(void *ctx, int level, const char *file, int line, const char *str)
 649:C:/Users/stapi/OneDrive/Desktop/GD32VW553/GD32VW55X_Wifi_BLE_SDK/GD32VW55x_RELEASE_V1.0.2/MSDK/lwip/lwip-2.1.2/src/apps/altcp_tls\altcp_tls_mbedtls.c **** {
 650:C:/Users/stapi/OneDrive/Desktop/GD32VW553/GD32VW55X_Wifi_BLE_SDK/GD32VW55x_RELEASE_V1.0.2/MSDK/lwip/lwip-2.1.2/src/apps/altcp_tls\altcp_tls_mbedtls.c ****   LWIP_UNUSED_ARG(ctx);
 651:C:/Users/stapi/OneDrive/Desktop/GD32VW553/GD32VW55X_Wifi_BLE_SDK/GD32VW55x_RELEASE_V1.0.2/MSDK/lwip/lwip-2.1.2/src/apps/altcp_tls\altcp_tls_mbedtls.c ****   LWIP_UNUSED_ARG(level);
 652:C:/Users/stapi/OneDrive/Desktop/GD32VW553/GD32VW55X_Wifi_BLE_SDK/GD32VW55x_RELEASE_V1.0.2/MSDK/lwip/lwip-2.1.2/src/apps/altcp_tls\altcp_tls_mbedtls.c ****   LWIP_UNUSED_ARG(file);
 653:C:/Users/stapi/OneDrive/Desktop/GD32VW553/GD32VW55X_Wifi_BLE_SDK/GD32VW55x_RELEASE_V1.0.2/MSDK/lwip/lwip-2.1.2/src/apps/altcp_tls\altcp_tls_mbedtls.c ****   LWIP_UNUSED_ARG(line);
 654:C:/Users/stapi/OneDrive/Desktop/GD32VW553/GD32VW55X_Wifi_BLE_SDK/GD32VW55x_RELEASE_V1.0.2/MSDK/lwip/lwip-2.1.2/src/apps/altcp_tls\altcp_tls_mbedtls.c ****   LWIP_UNUSED_ARG(str);
 655:C:/Users/stapi/OneDrive/Desktop/GD32VW553/GD32VW55X_Wifi_BLE_SDK/GD32VW55x_RELEASE_V1.0.2/MSDK/lwip/lwip-2.1.2/src/apps/altcp_tls\altcp_tls_mbedtls.c **** 
 656:C:/Users/stapi/OneDrive/Desktop/GD32VW553/GD32VW55X_Wifi_BLE_SDK/GD32VW55x_RELEASE_V1.0.2/MSDK/lwip/lwip-2.1.2/src/apps/altcp_tls\altcp_tls_mbedtls.c ****   LWIP_DEBUGF(ALTCP_MBEDTLS_DEBUG, ("%s:%04d: %s", file, line, str));
 657:C:/Users/stapi/OneDrive/Desktop/GD32VW553/GD32VW55X_Wifi_BLE_SDK/GD32VW55x_RELEASE_V1.0.2/MSDK/lwip/lwip-2.1.2/src/apps/altcp_tls\altcp_tls_mbedtls.c **** }
 658:C:/Users/stapi/OneDrive/Desktop/GD32VW553/GD32VW55X_Wifi_BLE_SDK/GD32VW55x_RELEASE_V1.0.2/MSDK/lwip/lwip-2.1.2/src/apps/altcp_tls\altcp_tls_mbedtls.c **** #endif
 659:C:/Users/stapi/OneDrive/Desktop/GD32VW553/GD32VW55X_Wifi_BLE_SDK/GD32VW55x_RELEASE_V1.0.2/MSDK/lwip/lwip-2.1.2/src/apps/altcp_tls\altcp_tls_mbedtls.c **** 
 660:C:/Users/stapi/OneDrive/Desktop/GD32VW553/GD32VW55X_Wifi_BLE_SDK/GD32VW55x_RELEASE_V1.0.2/MSDK/lwip/lwip-2.1.2/src/apps/altcp_tls\altcp_tls_mbedtls.c **** #ifndef ALTCP_MBEDTLS_RNG_FN
 661:C:/Users/stapi/OneDrive/Desktop/GD32VW553/GD32VW55X_Wifi_BLE_SDK/GD32VW55x_RELEASE_V1.0.2/MSDK/lwip/lwip-2.1.2/src/apps/altcp_tls\altcp_tls_mbedtls.c **** /** ATTENTION: It is *really* important to *NOT* use this dummy RNG in production code!!!! */
 662:C:/Users/stapi/OneDrive/Desktop/GD32VW553/GD32VW55X_Wifi_BLE_SDK/GD32VW55x_RELEASE_V1.0.2/MSDK/lwip/lwip-2.1.2/src/apps/altcp_tls\altcp_tls_mbedtls.c **** static int
 663:C:/Users/stapi/OneDrive/Desktop/GD32VW553/GD32VW55X_Wifi_BLE_SDK/GD32VW55x_RELEASE_V1.0.2/MSDK/lwip/lwip-2.1.2/src/apps/altcp_tls\altcp_tls_mbedtls.c **** dummy_rng(void *ctx, unsigned char *buffer, size_t len)
 664:C:/Users/stapi/OneDrive/Desktop/GD32VW553/GD32VW55X_Wifi_BLE_SDK/GD32VW55x_RELEASE_V1.0.2/MSDK/lwip/lwip-2.1.2/src/apps/altcp_tls\altcp_tls_mbedtls.c **** {
  15              		.loc 1 664 1
  16              		.cfi_startproc
  17              	.LVL0:
 665:C:/Users/stapi/OneDrive/Desktop/GD32VW553/GD32VW55X_Wifi_BLE_SDK/GD32VW55x_RELEASE_V1.0.2/MSDK/lwip/lwip-2.1.2/src/apps/altcp_tls\altcp_tls_mbedtls.c ****   static size_t ctr;
  18              		.loc 1 665 3
 666:C:/Users/stapi/OneDrive/Desktop/GD32VW553/GD32VW55X_Wifi_BLE_SDK/GD32VW55x_RELEASE_V1.0.2/MSDK/lwip/lwip-2.1.2/src/apps/altcp_tls\altcp_tls_mbedtls.c ****   size_t i;
  19              		.loc 1 666 3
 667:C:/Users/stapi/OneDrive/Desktop/GD32VW553/GD32VW55X_Wifi_BLE_SDK/GD32VW55x_RELEASE_V1.0.2/MSDK/lwip/lwip-2.1.2/src/apps/altcp_tls\altcp_tls_mbedtls.c ****   LWIP_UNUSED_ARG(ctx);
  20              		.loc 1 667 3
 668:C:/Users/stapi/OneDrive/Desktop/GD32VW553/GD32VW55X_Wifi_BLE_SDK/GD32VW55x_RELEASE_V1.0.2/MSDK/lwip/lwip-2.1.2/src/apps/altcp_tls\altcp_tls_mbedtls.c ****   for (i = 0; i < len; i++) {
  21              		.loc 1 668 3
  22 0000 37070000 		lui	a4,%hi(.LANCHOR0)
  23 0004 03250700 		lw	a0,%lo(.LANCHOR0)(a4)
  24              	.LVL1:
  25 0008 8146     		li	a3,0
  26              		.loc 1 668 10 is_stmt 0
  27 000a 8147     		li	a5,0
  28 000c 13070700 		addi	a4,a4,%lo(.LANCHOR0)
 669:C:/Users/stapi/OneDrive/Desktop/GD32VW553/GD32VW55X_Wifi_BLE_SDK/GD32VW55x_RELEASE_V1.0.2/MSDK/lwip/lwip-2.1.2/src/apps/altcp_tls\altcp_tls_mbedtls.c ****     buffer[i] = (unsigned char)++ctr;
  29              		.loc 1 669 15
  30 0010 13081500 		addi	a6,a0,1
  31              	.LVL2:
  32              	.L2:
 668:C:/Users/stapi/OneDrive/Desktop/GD32VW553/GD32VW55X_Wifi_BLE_SDK/GD32VW55x_RELEASE_V1.0.2/MSDK/lwip/lwip-2.1.2/src/apps/altcp_tls\altcp_tls_mbedtls.c ****   for (i = 0; i < len; i++) {
  33              		.loc 1 668 15 is_stmt 1 discriminator 1
 668:C:/Users/stapi/OneDrive/Desktop/GD32VW553/GD32VW55X_Wifi_BLE_SDK/GD32VW55x_RELEASE_V1.0.2/MSDK/lwip/lwip-2.1.2/src/apps/altcp_tls\altcp_tls_mbedtls.c ****   for (i = 0; i < len; i++) {
  34              		.loc 1 668 3 is_stmt 0 discriminator 1
  35 0014 6397C700 		bne	a5,a2,.L3
  36 0018 AA97     		add	a5,a5,a0
  37              	.LVL3:
  38 001a 91C2     		beq	a3,zero,.L4
  39 001c 1CC3     		sw	a5,0(a4)
  40              	.L4:
 670:C:/Users/stapi/OneDrive/Desktop/GD32VW553/GD32VW55X_Wifi_BLE_SDK/GD32VW55x_RELEASE_V1.0.2/MSDK/lwip/lwip-2.1.2/src/apps/altcp_tls\altcp_tls_mbedtls.c ****   }
 671:C:/Users/stapi/OneDrive/Desktop/GD32VW553/GD32VW55X_Wifi_BLE_SDK/GD32VW55x_RELEASE_V1.0.2/MSDK/lwip/lwip-2.1.2/src/apps/altcp_tls\altcp_tls_mbedtls.c ****   return 0;
  41              		.loc 1 671 3 is_stmt 1
 672:C:/Users/stapi/OneDrive/Desktop/GD32VW553/GD32VW55X_Wifi_BLE_SDK/GD32VW55x_RELEASE_V1.0.2/MSDK/lwip/lwip-2.1.2/src/apps/altcp_tls\altcp_tls_mbedtls.c **** }
  42              		.loc 1 672 1 is_stmt 0
  43 001e 0145     		li	a0,0
  44 0020 8280     		ret
  45              	.LVL4:
  46              	.L3:
 669:C:/Users/stapi/OneDrive/Desktop/GD32VW553/GD32VW55X_Wifi_BLE_SDK/GD32VW55x_RELEASE_V1.0.2/MSDK/lwip/lwip-2.1.2/src/apps/altcp_tls\altcp_tls_mbedtls.c ****     buffer[i] = (unsigned char)++ctr;
  47              		.loc 1 669 5 is_stmt 1 discriminator 3
 669:C:/Users/stapi/OneDrive/Desktop/GD32VW553/GD32VW55X_Wifi_BLE_SDK/GD32VW55x_RELEASE_V1.0.2/MSDK/lwip/lwip-2.1.2/src/apps/altcp_tls\altcp_tls_mbedtls.c ****     buffer[i] = (unsigned char)++ctr;
  48              		.loc 1 669 15 is_stmt 0 discriminator 3
  49 0022 B386F500 		add	a3,a1,a5
  50 0026 B308F800 		add	a7,a6,a5
  51 002a 23801601 		sb	a7,0(a3)
 668:C:/Users/stapi/OneDrive/Desktop/GD32VW553/GD32VW55X_Wifi_BLE_SDK/GD32VW55x_RELEASE_V1.0.2/MSDK/lwip/lwip-2.1.2/src/apps/altcp_tls\altcp_tls_mbedtls.c ****     buffer[i] = (unsigned char)++ctr;
  52              		.loc 1 668 24 is_stmt 1 discriminator 3
 668:C:/Users/stapi/OneDrive/Desktop/GD32VW553/GD32VW55X_Wifi_BLE_SDK/GD32VW55x_RELEASE_V1.0.2/MSDK/lwip/lwip-2.1.2/src/apps/altcp_tls\altcp_tls_mbedtls.c ****     buffer[i] = (unsigned char)++ctr;
  53              		.loc 1 668 25 is_stmt 0 discriminator 3
  54 002e 8507     		addi	a5,a5,1
  55              	.LVL5:
  56 0030 8546     		li	a3,1
  57 0032 CDB7     		j	.L2
  58              		.cfi_endproc
  59              	.LFE405:
  61              		.section	.text.altcp_mbedtls_lower_err,"ax",@progbits
  62              		.align	1
  64              	altcp_mbedtls_lower_err:
  65              	.LFB399:
 550:C:/Users/stapi/OneDrive/Desktop/GD32VW553/GD32VW55X_Wifi_BLE_SDK/GD32VW55x_RELEASE_V1.0.2/MSDK/lwip/lwip-2.1.2/src/apps/altcp_tls\altcp_tls_mbedtls.c ****   struct altcp_pcb *conn = (struct altcp_pcb *)arg;
  66              		.loc 1 550 1 is_stmt 1
  67              		.cfi_startproc
  68              	.LVL6:
 551:C:/Users/stapi/OneDrive/Desktop/GD32VW553/GD32VW55X_Wifi_BLE_SDK/GD32VW55x_RELEASE_V1.0.2/MSDK/lwip/lwip-2.1.2/src/apps/altcp_tls\altcp_tls_mbedtls.c ****   if (conn) {
  69              		.loc 1 551 3
 552:C:/Users/stapi/OneDrive/Desktop/GD32VW553/GD32VW55X_Wifi_BLE_SDK/GD32VW55x_RELEASE_V1.0.2/MSDK/lwip/lwip-2.1.2/src/apps/altcp_tls\altcp_tls_mbedtls.c ****     conn->inner_conn = NULL; /* already freed */
  70              		.loc 1 552 3
 552:C:/Users/stapi/OneDrive/Desktop/GD32VW553/GD32VW55X_Wifi_BLE_SDK/GD32VW55x_RELEASE_V1.0.2/MSDK/lwip/lwip-2.1.2/src/apps/altcp_tls\altcp_tls_mbedtls.c ****     conn->inner_conn = NULL; /* already freed */
  71              		.loc 1 552 6 is_stmt 0
  72 0000 0DC5     		beq	a0,zero,.L18
 550:C:/Users/stapi/OneDrive/Desktop/GD32VW553/GD32VW55X_Wifi_BLE_SDK/GD32VW55x_RELEASE_V1.0.2/MSDK/lwip/lwip-2.1.2/src/apps/altcp_tls\altcp_tls_mbedtls.c ****   struct altcp_pcb *conn = (struct altcp_pcb *)arg;
  73              		.loc 1 550 1
  74 0002 17030000 		call	t0,__riscv_save_1
  74      E7020300 
  75              		.cfi_offset 8, -8
  76              		.cfi_offset 1, -4
  77              		.cfi_def_cfa_offset 16
 554:C:/Users/stapi/OneDrive/Desktop/GD32VW553/GD32VW55X_Wifi_BLE_SDK/GD32VW55x_RELEASE_V1.0.2/MSDK/lwip/lwip-2.1.2/src/apps/altcp_tls\altcp_tls_mbedtls.c ****       conn->err(conn->arg, err);
  78              		.loc 1 554 13
  79 000a 5C51     		lw	a5,36(a0)
 553:C:/Users/stapi/OneDrive/Desktop/GD32VW553/GD32VW55X_Wifi_BLE_SDK/GD32VW55x_RELEASE_V1.0.2/MSDK/lwip/lwip-2.1.2/src/apps/altcp_tls\altcp_tls_mbedtls.c ****     if (conn->err) {
  80              		.loc 1 553 22
  81 000c 23220500 		sw	zero,4(a0)
  82 0010 2A84     		mv	s0,a0
 553:C:/Users/stapi/OneDrive/Desktop/GD32VW553/GD32VW55X_Wifi_BLE_SDK/GD32VW55x_RELEASE_V1.0.2/MSDK/lwip/lwip-2.1.2/src/apps/altcp_tls\altcp_tls_mbedtls.c ****     if (conn->err) {
  83              		.loc 1 553 5 is_stmt 1
 554:C:/Users/stapi/OneDrive/Desktop/GD32VW553/GD32VW55X_Wifi_BLE_SDK/GD32VW55x_RELEASE_V1.0.2/MSDK/lwip/lwip-2.1.2/src/apps/altcp_tls\altcp_tls_mbedtls.c ****       conn->err(conn->arg, err);
  84              		.loc 1 554 5
 554:C:/Users/stapi/OneDrive/Desktop/GD32VW553/GD32VW55X_Wifi_BLE_SDK/GD32VW55x_RELEASE_V1.0.2/MSDK/lwip/lwip-2.1.2/src/apps/altcp_tls\altcp_tls_mbedtls.c ****       conn->err(conn->arg, err);
  85              		.loc 1 554 8 is_stmt 0
  86 0012 99C3     		beq	a5,zero,.L10
 555:C:/Users/stapi/OneDrive/Desktop/GD32VW553/GD32VW55X_Wifi_BLE_SDK/GD32VW55x_RELEASE_V1.0.2/MSDK/lwip/lwip-2.1.2/src/apps/altcp_tls\altcp_tls_mbedtls.c ****     }
  87              		.loc 1 555 7 is_stmt 1
  88 0014 0845     		lw	a0,8(a0)
  89              	.LVL7:
  90 0016 8297     		jalr	a5
  91              	.LVL8:
  92              	.L10:
 557:C:/Users/stapi/OneDrive/Desktop/GD32VW553/GD32VW55X_Wifi_BLE_SDK/GD32VW55x_RELEASE_V1.0.2/MSDK/lwip/lwip-2.1.2/src/apps/altcp_tls\altcp_tls_mbedtls.c ****   }
  93              		.loc 1 557 5
  94 0018 2285     		mv	a0,s0
  95 001a 97000000 		call	altcp_free
  95      E7800000 
  96              	.LVL9:
 559:C:/Users/stapi/OneDrive/Desktop/GD32VW553/GD32VW55X_Wifi_BLE_SDK/GD32VW55x_RELEASE_V1.0.2/MSDK/lwip/lwip-2.1.2/src/apps/altcp_tls\altcp_tls_mbedtls.c **** 
  97              		.loc 1 559 1 is_stmt 0
  98 0022 17030000 		tail	__riscv_restore_1
  98      67000300 
  99              		.cfi_restore 8
 100              		.cfi_restore 1
 101              		.cfi_def_cfa_offset 0
 102              	.LVL10:
 103              	.L18:
 104 002a 8280     		ret
 105              		.cfi_endproc
 106              	.LFE399:
 108              		.section	.rodata.altcp_mbedtls_bio_recv.str1.4,"aMS",@progbits,1
 109              		.align	2
 110              	.LC0:
 111 0000 433A2F55 		.string	"C:/Users/stapi/OneDrive/Desktop/GD32VW553/GD32VW55X_Wifi_BLE_SDK/GD32VW55x_RELEASE_V1.0.2
 111      73657273 
 111      2F737461 
 111      70692F4F 
 111      6E654472 
 112 0096 0000     		.align	2
 113              	.LC1:
 114 0098 72657420 		.string	"ret == copy_len"
 114      3D3D2063 
 114      6F70795F 
 114      6C656E00 
 115              		.align	2
 116              	.LC2:
 117 00a8 41737365 		.string	"Assertion \"%s\" failed at line %d in %s\n"
 117      7274696F 
 117      6E202225 
 117      73222066 
 117      61696C65 
 118              		.align	2
 119              	.LC3:
 120 00d0 6572726F 		.string	"error"
 120      7200
 121              		.section	.text.altcp_mbedtls_bio_recv,"ax",@progbits
 122              		.align	1
 124              	altcp_mbedtls_bio_recv:
 125              	.LFB396:
 446:C:/Users/stapi/OneDrive/Desktop/GD32VW553/GD32VW55X_Wifi_BLE_SDK/GD32VW55x_RELEASE_V1.0.2/MSDK/lwip/lwip-2.1.2/src/apps/altcp_tls\altcp_tls_mbedtls.c ****   struct altcp_pcb *conn = (struct altcp_pcb *)ctx;
 126              		.loc 1 446 1 is_stmt 1
 127              		.cfi_startproc
 128              	.LVL11:
 447:C:/Users/stapi/OneDrive/Desktop/GD32VW553/GD32VW55X_Wifi_BLE_SDK/GD32VW55x_RELEASE_V1.0.2/MSDK/lwip/lwip-2.1.2/src/apps/altcp_tls\altcp_tls_mbedtls.c ****   altcp_mbedtls_state_t *state;
 129              		.loc 1 447 3
 448:C:/Users/stapi/OneDrive/Desktop/GD32VW553/GD32VW55X_Wifi_BLE_SDK/GD32VW55x_RELEASE_V1.0.2/MSDK/lwip/lwip-2.1.2/src/apps/altcp_tls\altcp_tls_mbedtls.c ****   struct pbuf *p;
 130              		.loc 1 448 3
 449:C:/Users/stapi/OneDrive/Desktop/GD32VW553/GD32VW55X_Wifi_BLE_SDK/GD32VW55x_RELEASE_V1.0.2/MSDK/lwip/lwip-2.1.2/src/apps/altcp_tls\altcp_tls_mbedtls.c ****   u16_t ret;
 131              		.loc 1 449 3
 450:C:/Users/stapi/OneDrive/Desktop/GD32VW553/GD32VW55X_Wifi_BLE_SDK/GD32VW55x_RELEASE_V1.0.2/MSDK/lwip/lwip-2.1.2/src/apps/altcp_tls\altcp_tls_mbedtls.c ****   u16_t copy_len;
 132              		.loc 1 450 3
 451:C:/Users/stapi/OneDrive/Desktop/GD32VW553/GD32VW55X_Wifi_BLE_SDK/GD32VW55x_RELEASE_V1.0.2/MSDK/lwip/lwip-2.1.2/src/apps/altcp_tls\altcp_tls_mbedtls.c ****   err_t err;
 133              		.loc 1 451 3
 452:C:/Users/stapi/OneDrive/Desktop/GD32VW553/GD32VW55X_Wifi_BLE_SDK/GD32VW55x_RELEASE_V1.0.2/MSDK/lwip/lwip-2.1.2/src/apps/altcp_tls\altcp_tls_mbedtls.c **** 
 134              		.loc 1 452 3
 454:C:/Users/stapi/OneDrive/Desktop/GD32VW553/GD32VW55X_Wifi_BLE_SDK/GD32VW55x_RELEASE_V1.0.2/MSDK/lwip/lwip-2.1.2/src/apps/altcp_tls\altcp_tls_mbedtls.c ****   if ((conn == NULL) || (conn->state == NULL)) {
 135              		.loc 1 454 3
 455:C:/Users/stapi/OneDrive/Desktop/GD32VW553/GD32VW55X_Wifi_BLE_SDK/GD32VW55x_RELEASE_V1.0.2/MSDK/lwip/lwip-2.1.2/src/apps/altcp_tls\altcp_tls_mbedtls.c ****     return MBEDTLS_ERR_NET_INVALID_CONTEXT;
 136              		.loc 1 455 3
 455:C:/Users/stapi/OneDrive/Desktop/GD32VW553/GD32VW55X_Wifi_BLE_SDK/GD32VW55x_RELEASE_V1.0.2/MSDK/lwip/lwip-2.1.2/src/apps/altcp_tls\altcp_tls_mbedtls.c ****     return MBEDTLS_ERR_NET_INVALID_CONTEXT;
 137              		.loc 1 455 6 is_stmt 0
 138 0000 75C5     		beq	a0,zero,.L31
 446:C:/Users/stapi/OneDrive/Desktop/GD32VW553/GD32VW55X_Wifi_BLE_SDK/GD32VW55x_RELEASE_V1.0.2/MSDK/lwip/lwip-2.1.2/src/apps/altcp_tls\altcp_tls_mbedtls.c ****   struct altcp_pcb *conn = (struct altcp_pcb *)ctx;
 139              		.loc 1 446 1 discriminator 1
 140 0002 17030000 		call	t0,__riscv_save_4
 140      E7020300 
 141              		.cfi_offset 19, -20
 142              		.cfi_offset 18, -16
 143              		.cfi_offset 9, -12
 144              		.cfi_offset 8, -8
 145              		.cfi_offset 1, -4
 146              		.cfi_def_cfa_offset 32
 455:C:/Users/stapi/OneDrive/Desktop/GD32VW553/GD32VW55X_Wifi_BLE_SDK/GD32VW55x_RELEASE_V1.0.2/MSDK/lwip/lwip-2.1.2/src/apps/altcp_tls\altcp_tls_mbedtls.c ****     return MBEDTLS_ERR_NET_INVALID_CONTEXT;
 147              		.loc 1 455 30 discriminator 1
 148 000a 0329C500 		lw	s2,12(a0)
 455:C:/Users/stapi/OneDrive/Desktop/GD32VW553/GD32VW55X_Wifi_BLE_SDK/GD32VW55x_RELEASE_V1.0.2/MSDK/lwip/lwip-2.1.2/src/apps/altcp_tls\altcp_tls_mbedtls.c ****     return MBEDTLS_ERR_NET_INVALID_CONTEXT;
 149              		.loc 1 455 22 discriminator 1
 150 000e 6302090E 		beq	s2,zero,.L32
 458:C:/Users/stapi/OneDrive/Desktop/GD32VW553/GD32VW55X_Wifi_BLE_SDK/GD32VW55x_RELEASE_V1.0.2/MSDK/lwip/lwip-2.1.2/src/apps/altcp_tls\altcp_tls_mbedtls.c ****   p = state->rx;
 151              		.loc 1 458 3 is_stmt 1
 152              	.LVL12:
 459:C:/Users/stapi/OneDrive/Desktop/GD32VW553/GD32VW55X_Wifi_BLE_SDK/GD32VW55x_RELEASE_V1.0.2/MSDK/lwip/lwip-2.1.2/src/apps/altcp_tls\altcp_tls_mbedtls.c **** 
 153              		.loc 1 459 3
 459:C:/Users/stapi/OneDrive/Desktop/GD32VW553/GD32VW55X_Wifi_BLE_SDK/GD32VW55x_RELEASE_V1.0.2/MSDK/lwip/lwip-2.1.2/src/apps/altcp_tls\altcp_tls_mbedtls.c **** 
 154              		.loc 1 459 5 is_stmt 0
 155 0012 83240915 		lw	s1,336(s2)
 156              	.LVL13:
 463:C:/Users/stapi/OneDrive/Desktop/GD32VW553/GD32VW55X_Wifi_BLE_SDK/GD32VW55x_RELEASE_V1.0.2/MSDK/lwip/lwip-2.1.2/src/apps/altcp_tls\altcp_tls_mbedtls.c ****     if (p) {
 157              		.loc 1 463 3 is_stmt 1
 463:C:/Users/stapi/OneDrive/Desktop/GD32VW553/GD32VW55X_Wifi_BLE_SDK/GD32VW55x_RELEASE_V1.0.2/MSDK/lwip/lwip-2.1.2/src/apps/altcp_tls\altcp_tls_mbedtls.c ****     if (p) {
 158              		.loc 1 463 6 is_stmt 0
 159 0016 81CC     		beq	s1,zero,.L23
 463:C:/Users/stapi/OneDrive/Desktop/GD32VW553/GD32VW55X_Wifi_BLE_SDK/GD32VW55x_RELEASE_V1.0.2/MSDK/lwip/lwip-2.1.2/src/apps/altcp_tls\altcp_tls_mbedtls.c ****     if (p) {
 160              		.loc 1 463 25 discriminator 1
 161 0018 83D9A400 		lhu	s3,10(s1)
 463:C:/Users/stapi/OneDrive/Desktop/GD32VW553/GD32VW55X_Wifi_BLE_SDK/GD32VW55x_RELEASE_V1.0.2/MSDK/lwip/lwip-2.1.2/src/apps/altcp_tls\altcp_tls_mbedtls.c ****     if (p) {
 162              		.loc 1 463 19 discriminator 1
 163 001c 63990902 		bne	s3,zero,.L24
 463:C:/Users/stapi/OneDrive/Desktop/GD32VW553/GD32VW55X_Wifi_BLE_SDK/GD32VW55x_RELEASE_V1.0.2/MSDK/lwip/lwip-2.1.2/src/apps/altcp_tls\altcp_tls_mbedtls.c ****     if (p) {
 164              		.loc 1 463 37 discriminator 2
 165 0020 9C40     		lw	a5,0(s1)
 166 0022 95EB     		bne	a5,zero,.L25
 464:C:/Users/stapi/OneDrive/Desktop/GD32VW553/GD32VW55X_Wifi_BLE_SDK/GD32VW55x_RELEASE_V1.0.2/MSDK/lwip/lwip-2.1.2/src/apps/altcp_tls\altcp_tls_mbedtls.c ****       pbuf_free(p);
 167              		.loc 1 464 5 is_stmt 1
 465:C:/Users/stapi/OneDrive/Desktop/GD32VW553/GD32VW55X_Wifi_BLE_SDK/GD32VW55x_RELEASE_V1.0.2/MSDK/lwip/lwip-2.1.2/src/apps/altcp_tls\altcp_tls_mbedtls.c ****     }
 168              		.loc 1 465 7
 169 0024 2685     		mv	a0,s1
 170              	.LVL14:
 171 0026 97000000 		call	pbuf_free
 171      E7800000 
 172              	.LVL15:
 173              	.L23:
 467:C:/Users/stapi/OneDrive/Desktop/GD32VW553/GD32VW55X_Wifi_BLE_SDK/GD32VW55x_RELEASE_V1.0.2/MSDK/lwip/lwip-2.1.2/src/apps/altcp_tls\altcp_tls_mbedtls.c ****     if ((state->flags & (ALTCP_MBEDTLS_FLAGS_RX_CLOSE_QUEUED | ALTCP_MBEDTLS_FLAGS_RX_CLOSED)) ==
 174              		.loc 1 467 5
 468:C:/Users/stapi/OneDrive/Desktop/GD32VW553/GD32VW55X_Wifi_BLE_SDK/GD32VW55x_RELEASE_V1.0.2/MSDK/lwip/lwip-2.1.2/src/apps/altcp_tls\altcp_tls_mbedtls.c ****         ALTCP_MBEDTLS_FLAGS_RX_CLOSE_QUEUED) {
 175              		.loc 1 468 8 is_stmt 0
 176 002e 83478915 		lbu	a5,344(s2)
 467:C:/Users/stapi/OneDrive/Desktop/GD32VW553/GD32VW55X_Wifi_BLE_SDK/GD32VW55x_RELEASE_V1.0.2/MSDK/lwip/lwip-2.1.2/src/apps/altcp_tls\altcp_tls_mbedtls.c ****     if ((state->flags & (ALTCP_MBEDTLS_FLAGS_RX_CLOSE_QUEUED | ALTCP_MBEDTLS_FLAGS_RX_CLOSED)) ==
 177              		.loc 1 467 15
 178 0032 23280914 		sw	zero,336(s2)
 468:C:/Users/stapi/OneDrive/Desktop/GD32VW553/GD32VW55X_Wifi_BLE_SDK/GD32VW55x_RELEASE_V1.0.2/MSDK/lwip/lwip-2.1.2/src/apps/altcp_tls\altcp_tls_mbedtls.c ****         ALTCP_MBEDTLS_FLAGS_RX_CLOSE_QUEUED) {
 179              		.loc 1 468 5 is_stmt 1
 468:C:/Users/stapi/OneDrive/Desktop/GD32VW553/GD32VW55X_Wifi_BLE_SDK/GD32VW55x_RELEASE_V1.0.2/MSDK/lwip/lwip-2.1.2/src/apps/altcp_tls\altcp_tls_mbedtls.c ****         ALTCP_MBEDTLS_FLAGS_RX_CLOSE_QUEUED) {
 180              		.loc 1 468 8 is_stmt 0
 181 0036 1147     		li	a4,4
 182 0038 B18B     		andi	a5,a5,12
 471:C:/Users/stapi/OneDrive/Desktop/GD32VW553/GD32VW55X_Wifi_BLE_SDK/GD32VW55x_RELEASE_V1.0.2/MSDK/lwip/lwip-2.1.2/src/apps/altcp_tls\altcp_tls_mbedtls.c ****     }
 183              		.loc 1 471 14
 184 003a 0145     		li	a0,0
 468:C:/Users/stapi/OneDrive/Desktop/GD32VW553/GD32VW55X_Wifi_BLE_SDK/GD32VW55x_RELEASE_V1.0.2/MSDK/lwip/lwip-2.1.2/src/apps/altcp_tls\altcp_tls_mbedtls.c ****         ALTCP_MBEDTLS_FLAGS_RX_CLOSE_QUEUED) {
 185              		.loc 1 468 8
 186 003c 6385E700 		beq	a5,a4,.L21
 473:C:/Users/stapi/OneDrive/Desktop/GD32VW553/GD32VW55X_Wifi_BLE_SDK/GD32VW55x_RELEASE_V1.0.2/MSDK/lwip/lwip-2.1.2/src/apps/altcp_tls\altcp_tls_mbedtls.c ****   }
 187              		.loc 1 473 12
 188 0040 6575     		li	a0,-28672
 189 0042 13050570 		addi	a0,a0,1792
 190              	.LVL16:
 191              	.L21:
 492:C:/Users/stapi/OneDrive/Desktop/GD32VW553/GD32VW55X_Wifi_BLE_SDK/GD32VW55x_RELEASE_V1.0.2/MSDK/lwip/lwip-2.1.2/src/apps/altcp_tls\altcp_tls_mbedtls.c **** 
 192              		.loc 1 492 1
 193 0046 17030000 		tail	__riscv_restore_4
 193      67000300 
 194              		.cfi_remember_state
 195              		.cfi_restore 19
 196              		.cfi_restore 18
 197              		.cfi_restore 9
 198              		.cfi_restore 8
 199              		.cfi_restore 1
 200              		.cfi_def_cfa_offset 0
 201              	.LVL17:
 202              	.L24:
 203              		.cfi_restore_state
 476:C:/Users/stapi/OneDrive/Desktop/GD32VW553/GD32VW55X_Wifi_BLE_SDK/GD32VW55x_RELEASE_V1.0.2/MSDK/lwip/lwip-2.1.2/src/apps/altcp_tls\altcp_tls_mbedtls.c ****   /* copy the data */
 204              		.loc 1 476 3 is_stmt 1
 476:C:/Users/stapi/OneDrive/Desktop/GD32VW553/GD32VW55X_Wifi_BLE_SDK/GD32VW55x_RELEASE_V1.0.2/MSDK/lwip/lwip-2.1.2/src/apps/altcp_tls\altcp_tls_mbedtls.c ****   /* copy the data */
 205              		.loc 1 476 14 is_stmt 0
 206 004e 63743601 		bleu	s3,a2,.L25
 476:C:/Users/stapi/OneDrive/Desktop/GD32VW553/GD32VW55X_Wifi_BLE_SDK/GD32VW55x_RELEASE_V1.0.2/MSDK/lwip/lwip-2.1.2/src/apps/altcp_tls\altcp_tls_mbedtls.c ****   /* copy the data */
 207              		.loc 1 476 14 discriminator 1
 208 0052 B3490608 		zext.h	s3,a2
 209              	.L25:
 210              	.LVL18:
 478:C:/Users/stapi/OneDrive/Desktop/GD32VW553/GD32VW55X_Wifi_BLE_SDK/GD32VW55x_RELEASE_V1.0.2/MSDK/lwip/lwip-2.1.2/src/apps/altcp_tls\altcp_tls_mbedtls.c ****   LWIP_ASSERT("ret == copy_len", ret == copy_len);
 211              		.loc 1 478 3 is_stmt 1 discriminator 4
 478:C:/Users/stapi/OneDrive/Desktop/GD32VW553/GD32VW55X_Wifi_BLE_SDK/GD32VW55x_RELEASE_V1.0.2/MSDK/lwip/lwip-2.1.2/src/apps/altcp_tls\altcp_tls_mbedtls.c ****   LWIP_ASSERT("ret == copy_len", ret == copy_len);
 212              		.loc 1 478 9 is_stmt 0 discriminator 4
 213 0056 8146     		li	a3,0
 214 0058 4E86     		mv	a2,s3
 215              	.LVL19:
 216 005a 2685     		mv	a0,s1
 217              	.LVL20:
 218 005c 97000000 		call	pbuf_copy_partial
 218      E7800000 
 219              	.LVL21:
 220 0064 2A84     		mv	s0,a0
 221              	.LVL22:
 479:C:/Users/stapi/OneDrive/Desktop/GD32VW553/GD32VW55X_Wifi_BLE_SDK/GD32VW55x_RELEASE_V1.0.2/MSDK/lwip/lwip-2.1.2/src/apps/altcp_tls\altcp_tls_mbedtls.c ****   /* hide the copied bytes from the pbuf */
 222              		.loc 1 479 3 is_stmt 1 discriminator 4
 479:C:/Users/stapi/OneDrive/Desktop/GD32VW553/GD32VW55X_Wifi_BLE_SDK/GD32VW55x_RELEASE_V1.0.2/MSDK/lwip/lwip-2.1.2/src/apps/altcp_tls\altcp_tls_mbedtls.c ****   /* hide the copied bytes from the pbuf */
 223              		.loc 1 479 3 discriminator 4
 224 0066 6385A902 		beq	s3,a0,.L26
 479:C:/Users/stapi/OneDrive/Desktop/GD32VW553/GD32VW55X_Wifi_BLE_SDK/GD32VW55x_RELEASE_V1.0.2/MSDK/lwip/lwip-2.1.2/src/apps/altcp_tls\altcp_tls_mbedtls.c ****   /* hide the copied bytes from the pbuf */
 225              		.loc 1 479 3 discriminator 1
 479:C:/Users/stapi/OneDrive/Desktop/GD32VW553/GD32VW55X_Wifi_BLE_SDK/GD32VW55x_RELEASE_V1.0.2/MSDK/lwip/lwip-2.1.2/src/apps/altcp_tls\altcp_tls_mbedtls.c ****   /* hide the copied bytes from the pbuf */
 226              		.loc 1 479 3 discriminator 1
 227 006a B7060000 		lui	a3,%hi(.LC0)
 228 006e B7050000 		lui	a1,%hi(.LC1)
 229 0072 37050000 		lui	a0,%hi(.LC2)
 230              	.LVL23:
 231 0076 93860600 		addi	a3,a3,%lo(.LC0)
 232 007a 1306F01D 		li	a2,479
 233 007e 93850500 		addi	a1,a1,%lo(.LC1)
 234 0082 13050500 		addi	a0,a0,%lo(.LC2)
 235 0086 97000000 		call	printf
 235      E7800000 
 236              	.LVL24:
 237              	.L27:
 479:C:/Users/stapi/OneDrive/Desktop/GD32VW553/GD32VW55X_Wifi_BLE_SDK/GD32VW55x_RELEASE_V1.0.2/MSDK/lwip/lwip-2.1.2/src/apps/altcp_tls\altcp_tls_mbedtls.c ****   /* hide the copied bytes from the pbuf */
 238              		.loc 1 479 3 discriminator 1
 479:C:/Users/stapi/OneDrive/Desktop/GD32VW553/GD32VW55X_Wifi_BLE_SDK/GD32VW55x_RELEASE_V1.0.2/MSDK/lwip/lwip-2.1.2/src/apps/altcp_tls\altcp_tls_mbedtls.c ****   /* hide the copied bytes from the pbuf */
 239              		.loc 1 479 3 discriminator 1
 479:C:/Users/stapi/OneDrive/Desktop/GD32VW553/GD32VW55X_Wifi_BLE_SDK/GD32VW55x_RELEASE_V1.0.2/MSDK/lwip/lwip-2.1.2/src/apps/altcp_tls\altcp_tls_mbedtls.c ****   /* hide the copied bytes from the pbuf */
 240              		.loc 1 479 3 discriminator 1
 241 008e 01A0     		j	.L27
 242              	.LVL25:
 243              	.L26:
 479:C:/Users/stapi/OneDrive/Desktop/GD32VW553/GD32VW55X_Wifi_BLE_SDK/GD32VW55x_RELEASE_V1.0.2/MSDK/lwip/lwip-2.1.2/src/apps/altcp_tls\altcp_tls_mbedtls.c ****   /* hide the copied bytes from the pbuf */
 244              		.loc 1 479 3 discriminator 2
 479:C:/Users/stapi/OneDrive/Desktop/GD32VW553/GD32VW55X_Wifi_BLE_SDK/GD32VW55x_RELEASE_V1.0.2/MSDK/lwip/lwip-2.1.2/src/apps/altcp_tls\altcp_tls_mbedtls.c ****   /* hide the copied bytes from the pbuf */
 245              		.loc 1 479 3 discriminator 2
 481:C:/Users/stapi/OneDrive/Desktop/GD32VW553/GD32VW55X_Wifi_BLE_SDK/GD32VW55x_RELEASE_V1.0.2/MSDK/lwip/lwip-2.1.2/src/apps/altcp_tls\altcp_tls_mbedtls.c ****   LWIP_ASSERT("error", err == ERR_OK);
 246              		.loc 1 481 3 discriminator 2
 481:C:/Users/stapi/OneDrive/Desktop/GD32VW553/GD32VW55X_Wifi_BLE_SDK/GD32VW55x_RELEASE_V1.0.2/MSDK/lwip/lwip-2.1.2/src/apps/altcp_tls\altcp_tls_mbedtls.c ****   LWIP_ASSERT("error", err == ERR_OK);
 247              		.loc 1 481 9 is_stmt 0 discriminator 2
 248 0090 CE85     		mv	a1,s3
 249 0092 2685     		mv	a0,s1
 250              	.LVL26:
 251 0094 97000000 		call	pbuf_remove_header
 251      E7800000 
 252              	.LVL27:
 482:C:/Users/stapi/OneDrive/Desktop/GD32VW553/GD32VW55X_Wifi_BLE_SDK/GD32VW55x_RELEASE_V1.0.2/MSDK/lwip/lwip-2.1.2/src/apps/altcp_tls\altcp_tls_mbedtls.c ****   if (p->len == 0) {
 253              		.loc 1 482 3 is_stmt 1 discriminator 2
 482:C:/Users/stapi/OneDrive/Desktop/GD32VW553/GD32VW55X_Wifi_BLE_SDK/GD32VW55x_RELEASE_V1.0.2/MSDK/lwip/lwip-2.1.2/src/apps/altcp_tls\altcp_tls_mbedtls.c ****   if (p->len == 0) {
 254              		.loc 1 482 3 discriminator 2
 255 009c 05C5     		beq	a0,zero,.L28
 482:C:/Users/stapi/OneDrive/Desktop/GD32VW553/GD32VW55X_Wifi_BLE_SDK/GD32VW55x_RELEASE_V1.0.2/MSDK/lwip/lwip-2.1.2/src/apps/altcp_tls\altcp_tls_mbedtls.c ****   if (p->len == 0) {
 256              		.loc 1 482 3 discriminator 1
 482:C:/Users/stapi/OneDrive/Desktop/GD32VW553/GD32VW55X_Wifi_BLE_SDK/GD32VW55x_RELEASE_V1.0.2/MSDK/lwip/lwip-2.1.2/src/apps/altcp_tls\altcp_tls_mbedtls.c ****   if (p->len == 0) {
 257              		.loc 1 482 3 discriminator 1
 258 009e B7060000 		lui	a3,%hi(.LC0)
 259 00a2 B7050000 		lui	a1,%hi(.LC3)
 260 00a6 37050000 		lui	a0,%hi(.LC2)
 261              	.LVL28:
 262 00aa 93860600 		addi	a3,a3,%lo(.LC0)
 263 00ae 1306201E 		li	a2,482
 264 00b2 93850500 		addi	a1,a1,%lo(.LC3)
 265 00b6 13050500 		addi	a0,a0,%lo(.LC2)
 266 00ba 97000000 		call	printf
 266      E7800000 
 267              	.LVL29:
 268              	.L29:
 482:C:/Users/stapi/OneDrive/Desktop/GD32VW553/GD32VW55X_Wifi_BLE_SDK/GD32VW55x_RELEASE_V1.0.2/MSDK/lwip/lwip-2.1.2/src/apps/altcp_tls\altcp_tls_mbedtls.c ****   if (p->len == 0) {
 269              		.loc 1 482 3 discriminator 2
 482:C:/Users/stapi/OneDrive/Desktop/GD32VW553/GD32VW55X_Wifi_BLE_SDK/GD32VW55x_RELEASE_V1.0.2/MSDK/lwip/lwip-2.1.2/src/apps/altcp_tls\altcp_tls_mbedtls.c ****   if (p->len == 0) {
 270              		.loc 1 482 3 discriminator 2
 482:C:/Users/stapi/OneDrive/Desktop/GD32VW553/GD32VW55X_Wifi_BLE_SDK/GD32VW55x_RELEASE_V1.0.2/MSDK/lwip/lwip-2.1.2/src/apps/altcp_tls\altcp_tls_mbedtls.c ****   if (p->len == 0) {
 271              		.loc 1 482 3 discriminator 2
 272 00c2 01A0     		j	.L29
 273              	.LVL30:
 274              	.L28:
 482:C:/Users/stapi/OneDrive/Desktop/GD32VW553/GD32VW55X_Wifi_BLE_SDK/GD32VW55x_RELEASE_V1.0.2/MSDK/lwip/lwip-2.1.2/src/apps/altcp_tls\altcp_tls_mbedtls.c ****   if (p->len == 0) {
 275              		.loc 1 482 3 discriminator 2
 482:C:/Users/stapi/OneDrive/Desktop/GD32VW553/GD32VW55X_Wifi_BLE_SDK/GD32VW55x_RELEASE_V1.0.2/MSDK/lwip/lwip-2.1.2/src/apps/altcp_tls\altcp_tls_mbedtls.c ****   if (p->len == 0) {
 276              		.loc 1 482 3 discriminator 2
 483:C:/Users/stapi/OneDrive/Desktop/GD32VW553/GD32VW55X_Wifi_BLE_SDK/GD32VW55x_RELEASE_V1.0.2/MSDK/lwip/lwip-2.1.2/src/apps/altcp_tls\altcp_tls_mbedtls.c ****     /* the first pbuf has been fully read, free it */
 277              		.loc 1 483 3 discriminator 2
 483:C:/Users/stapi/OneDrive/Desktop/GD32VW553/GD32VW55X_Wifi_BLE_SDK/GD32VW55x_RELEASE_V1.0.2/MSDK/lwip/lwip-2.1.2/src/apps/altcp_tls\altcp_tls_mbedtls.c ****     /* the first pbuf has been fully read, free it */
 278              		.loc 1 483 6 is_stmt 0 discriminator 2
 279 00c4 83D7A400 		lhu	a5,10(s1)
 280 00c8 99EB     		bne	a5,zero,.L30
 485:C:/Users/stapi/OneDrive/Desktop/GD32VW553/GD32VW55X_Wifi_BLE_SDK/GD32VW55x_RELEASE_V1.0.2/MSDK/lwip/lwip-2.1.2/src/apps/altcp_tls\altcp_tls_mbedtls.c ****     p->next = NULL;
 281              		.loc 1 485 5 is_stmt 1
 485:C:/Users/stapi/OneDrive/Desktop/GD32VW553/GD32VW55X_Wifi_BLE_SDK/GD32VW55x_RELEASE_V1.0.2/MSDK/lwip/lwip-2.1.2/src/apps/altcp_tls\altcp_tls_mbedtls.c ****     p->next = NULL;
 282              		.loc 1 485 15 is_stmt 0
 283 00ca 9C40     		lw	a5,0(s1)
 487:C:/Users/stapi/OneDrive/Desktop/GD32VW553/GD32VW55X_Wifi_BLE_SDK/GD32VW55x_RELEASE_V1.0.2/MSDK/lwip/lwip-2.1.2/src/apps/altcp_tls\altcp_tls_mbedtls.c ****   }
 284              		.loc 1 487 5
 285 00cc 2685     		mv	a0,s1
 286              	.LVL31:
 485:C:/Users/stapi/OneDrive/Desktop/GD32VW553/GD32VW55X_Wifi_BLE_SDK/GD32VW55x_RELEASE_V1.0.2/MSDK/lwip/lwip-2.1.2/src/apps/altcp_tls\altcp_tls_mbedtls.c ****     p->next = NULL;
 287              		.loc 1 485 15
 288 00ce 2328F914 		sw	a5,336(s2)
 486:C:/Users/stapi/OneDrive/Desktop/GD32VW553/GD32VW55X_Wifi_BLE_SDK/GD32VW55x_RELEASE_V1.0.2/MSDK/lwip/lwip-2.1.2/src/apps/altcp_tls\altcp_tls_mbedtls.c ****     pbuf_free(p);
 289              		.loc 1 486 5 is_stmt 1
 486:C:/Users/stapi/OneDrive/Desktop/GD32VW553/GD32VW55X_Wifi_BLE_SDK/GD32VW55x_RELEASE_V1.0.2/MSDK/lwip/lwip-2.1.2/src/apps/altcp_tls\altcp_tls_mbedtls.c ****     pbuf_free(p);
 290              		.loc 1 486 13 is_stmt 0
 291 00d2 23A00400 		sw	zero,0(s1)
 487:C:/Users/stapi/OneDrive/Desktop/GD32VW553/GD32VW55X_Wifi_BLE_SDK/GD32VW55x_RELEASE_V1.0.2/MSDK/lwip/lwip-2.1.2/src/apps/altcp_tls\altcp_tls_mbedtls.c ****   }
 292              		.loc 1 487 5 is_stmt 1
 293 00d6 97000000 		call	pbuf_free
 293      E7800000 
 294              	.LVL32:
 295              	.L30:
 490:C:/Users/stapi/OneDrive/Desktop/GD32VW553/GD32VW55X_Wifi_BLE_SDK/GD32VW55x_RELEASE_V1.0.2/MSDK/lwip/lwip-2.1.2/src/apps/altcp_tls\altcp_tls_mbedtls.c ****   return ret;
 296              		.loc 1 490 3
 490:C:/Users/stapi/OneDrive/Desktop/GD32VW553/GD32VW55X_Wifi_BLE_SDK/GD32VW55x_RELEASE_V1.0.2/MSDK/lwip/lwip-2.1.2/src/apps/altcp_tls\altcp_tls_mbedtls.c ****   return ret;
 297              		.loc 1 490 25 is_stmt 0
 298 00de 83270916 		lw	a5,352(s2)
 490:C:/Users/stapi/OneDrive/Desktop/GD32VW553/GD32VW55X_Wifi_BLE_SDK/GD32VW55x_RELEASE_V1.0.2/MSDK/lwip/lwip-2.1.2/src/apps/altcp_tls\altcp_tls_mbedtls.c ****   return ret;
 299              		.loc 1 490 28
 300 00e2 2285     		mv	a0,s0
 490:C:/Users/stapi/OneDrive/Desktop/GD32VW553/GD32VW55X_Wifi_BLE_SDK/GD32VW55x_RELEASE_V1.0.2/MSDK/lwip/lwip-2.1.2/src/apps/altcp_tls\altcp_tls_mbedtls.c ****   return ret;
 301              		.loc 1 490 25
 302 00e4 A297     		add	a5,a5,s0
 303 00e6 2320F916 		sw	a5,352(s2)
 491:C:/Users/stapi/OneDrive/Desktop/GD32VW553/GD32VW55X_Wifi_BLE_SDK/GD32VW55x_RELEASE_V1.0.2/MSDK/lwip/lwip-2.1.2/src/apps/altcp_tls\altcp_tls_mbedtls.c **** }
 304              		.loc 1 491 3 is_stmt 1
 491:C:/Users/stapi/OneDrive/Desktop/GD32VW553/GD32VW55X_Wifi_BLE_SDK/GD32VW55x_RELEASE_V1.0.2/MSDK/lwip/lwip-2.1.2/src/apps/altcp_tls\altcp_tls_mbedtls.c **** }
 305              		.loc 1 491 10 is_stmt 0
 306 00ea B1BF     		j	.L21
 307              	.LVL33:
 308              	.L31:
 309              		.cfi_def_cfa_offset 0
 310              		.cfi_restore 1
 311              		.cfi_restore 8
 312              		.cfi_restore 9
 313              		.cfi_restore 18
 314              		.cfi_restore 19
 456:C:/Users/stapi/OneDrive/Desktop/GD32VW553/GD32VW55X_Wifi_BLE_SDK/GD32VW55x_RELEASE_V1.0.2/MSDK/lwip/lwip-2.1.2/src/apps/altcp_tls\altcp_tls_mbedtls.c ****   }
 315              		.loc 1 456 12
 316 00ec 1305B0FB 		li	a0,-69
 317              	.LVL34:
 492:C:/Users/stapi/OneDrive/Desktop/GD32VW553/GD32VW55X_Wifi_BLE_SDK/GD32VW55x_RELEASE_V1.0.2/MSDK/lwip/lwip-2.1.2/src/apps/altcp_tls\altcp_tls_mbedtls.c **** 
 318              		.loc 1 492 1
 319 00f0 8280     		ret
 320              	.LVL35:
 321              	.L32:
 322              		.cfi_def_cfa_offset 32
 323              		.cfi_offset 1, -4
 324              		.cfi_offset 8, -8
 325              		.cfi_offset 9, -12
 326              		.cfi_offset 18, -16
 327              		.cfi_offset 19, -20
 456:C:/Users/stapi/OneDrive/Desktop/GD32VW553/GD32VW55X_Wifi_BLE_SDK/GD32VW55x_RELEASE_V1.0.2/MSDK/lwip/lwip-2.1.2/src/apps/altcp_tls\altcp_tls_mbedtls.c ****   }
 328              		.loc 1 456 12
 329 00f2 1305B0FB 		li	a0,-69
 330              	.LVL36:
 331 00f6 81BF     		j	.L21
 332              		.cfi_endproc
 333              	.LFE396:
 335              		.section	.text.altcp_mbedtls_setup_callbacks,"ax",@progbits
 336              		.align	1
 338              	altcp_mbedtls_setup_callbacks:
 339              	.LFB401:
 575:C:/Users/stapi/OneDrive/Desktop/GD32VW553/GD32VW55X_Wifi_BLE_SDK/GD32VW55x_RELEASE_V1.0.2/MSDK/lwip/lwip-2.1.2/src/apps/altcp_tls\altcp_tls_mbedtls.c ****   altcp_arg(inner_conn, conn);
 340              		.loc 1 575 1 is_stmt 1
 341              		.cfi_startproc
 342              	.LVL37:
 343 0000 17030000 		call	t0,__riscv_save_1
 343      E7020300 
 344              		.cfi_offset 8, -8
 345              		.cfi_offset 1, -4
 346              		.cfi_def_cfa_offset 16
 576:C:/Users/stapi/OneDrive/Desktop/GD32VW553/GD32VW55X_Wifi_BLE_SDK/GD32VW55x_RELEASE_V1.0.2/MSDK/lwip/lwip-2.1.2/src/apps/altcp_tls\altcp_tls_mbedtls.c ****   altcp_recv(inner_conn, altcp_mbedtls_lower_recv);
 347              		.loc 1 576 3
 575:C:/Users/stapi/OneDrive/Desktop/GD32VW553/GD32VW55X_Wifi_BLE_SDK/GD32VW55x_RELEASE_V1.0.2/MSDK/lwip/lwip-2.1.2/src/apps/altcp_tls\altcp_tls_mbedtls.c ****   altcp_arg(inner_conn, conn);
 348              		.loc 1 575 1 is_stmt 0
 349 0008 2E84     		mv	s0,a1
 576:C:/Users/stapi/OneDrive/Desktop/GD32VW553/GD32VW55X_Wifi_BLE_SDK/GD32VW55x_RELEASE_V1.0.2/MSDK/lwip/lwip-2.1.2/src/apps/altcp_tls\altcp_tls_mbedtls.c ****   altcp_recv(inner_conn, altcp_mbedtls_lower_recv);
 350              		.loc 1 576 3
 351 000a AA85     		mv	a1,a0
 352              	.LVL38:
 353 000c 2285     		mv	a0,s0
 354              	.LVL39:
 355 000e 97000000 		call	altcp_arg
 355      E7800000 
 356              	.LVL40:
 577:C:/Users/stapi/OneDrive/Desktop/GD32VW553/GD32VW55X_Wifi_BLE_SDK/GD32VW55x_RELEASE_V1.0.2/MSDK/lwip/lwip-2.1.2/src/apps/altcp_tls\altcp_tls_mbedtls.c ****   altcp_sent(inner_conn, altcp_mbedtls_lower_sent);
 357              		.loc 1 577 3 is_stmt 1
 358 0016 B7050000 		lui	a1,%hi(altcp_mbedtls_lower_recv)
 359 001a 2285     		mv	a0,s0
 360 001c 93850500 		addi	a1,a1,%lo(altcp_mbedtls_lower_recv)
 361 0020 97000000 		call	altcp_recv
 361      E7800000 
 362              	.LVL41:
 578:C:/Users/stapi/OneDrive/Desktop/GD32VW553/GD32VW55X_Wifi_BLE_SDK/GD32VW55x_RELEASE_V1.0.2/MSDK/lwip/lwip-2.1.2/src/apps/altcp_tls\altcp_tls_mbedtls.c ****   altcp_err(inner_conn, altcp_mbedtls_lower_err);
 363              		.loc 1 578 3
 364 0028 B7050000 		lui	a1,%hi(altcp_mbedtls_lower_sent)
 365 002c 2285     		mv	a0,s0
 366 002e 93850500 		addi	a1,a1,%lo(altcp_mbedtls_lower_sent)
 367 0032 97000000 		call	altcp_sent
 367      E7800000 
 368              	.LVL42:
 579:C:/Users/stapi/OneDrive/Desktop/GD32VW553/GD32VW55X_Wifi_BLE_SDK/GD32VW55x_RELEASE_V1.0.2/MSDK/lwip/lwip-2.1.2/src/apps/altcp_tls\altcp_tls_mbedtls.c ****   /* tcp_poll is set when interval is set by application */
 369              		.loc 1 579 3
 370 003a B7050000 		lui	a1,%hi(altcp_mbedtls_lower_err)
 371 003e 93850500 		addi	a1,a1,%lo(altcp_mbedtls_lower_err)
 372 0042 2285     		mv	a0,s0
 373 0044 97000000 		call	altcp_err
 373      E7800000 
 374              	.LVL43:
 582:C:/Users/stapi/OneDrive/Desktop/GD32VW553/GD32VW55X_Wifi_BLE_SDK/GD32VW55x_RELEASE_V1.0.2/MSDK/lwip/lwip-2.1.2/src/apps/altcp_tls\altcp_tls_mbedtls.c **** 
 375              		.loc 1 582 1 is_stmt 0
 376 004c 17030000 		tail	__riscv_restore_1
 376      67000300 
 377              		.cfi_restore 8
 378              		.cfi_restore 1
 379              		.cfi_def_cfa_offset 0
 380              		.cfi_endproc
 381              	.LFE401:
 383              		.section	.rodata.altcp_mbedtls_lower_sent.str1.4,"aMS",@progbits,1
 384              		.align	2
 385              	.LC4:
 386 0000 70636220 		.string	"pcb mismatch"
 386      6D69736D 
 386      61746368 
 386      00
 387              		.section	.text.altcp_mbedtls_lower_sent,"ax",@progbits
 388              		.align	1
 390              	altcp_mbedtls_lower_sent:
 391              	.LFB397:
 500:C:/Users/stapi/OneDrive/Desktop/GD32VW553/GD32VW55X_Wifi_BLE_SDK/GD32VW55x_RELEASE_V1.0.2/MSDK/lwip/lwip-2.1.2/src/apps/altcp_tls\altcp_tls_mbedtls.c ****   struct altcp_pcb *conn = (struct altcp_pcb *)arg;
 392              		.loc 1 500 1 is_stmt 1
 393              		.cfi_startproc
 394              	.LVL44:
 501:C:/Users/stapi/OneDrive/Desktop/GD32VW553/GD32VW55X_Wifi_BLE_SDK/GD32VW55x_RELEASE_V1.0.2/MSDK/lwip/lwip-2.1.2/src/apps/altcp_tls\altcp_tls_mbedtls.c ****   LWIP_UNUSED_ARG(inner_conn); /* for LWIP_NOASSERT */
 395              		.loc 1 501 3
 502:C:/Users/stapi/OneDrive/Desktop/GD32VW553/GD32VW55X_Wifi_BLE_SDK/GD32VW55x_RELEASE_V1.0.2/MSDK/lwip/lwip-2.1.2/src/apps/altcp_tls\altcp_tls_mbedtls.c ****   LWIP_UNUSED_ARG(len);
 396              		.loc 1 502 3
 503:C:/Users/stapi/OneDrive/Desktop/GD32VW553/GD32VW55X_Wifi_BLE_SDK/GD32VW55x_RELEASE_V1.0.2/MSDK/lwip/lwip-2.1.2/src/apps/altcp_tls\altcp_tls_mbedtls.c ****   if (conn) {
 397              		.loc 1 503 3
 504:C:/Users/stapi/OneDrive/Desktop/GD32VW553/GD32VW55X_Wifi_BLE_SDK/GD32VW55x_RELEASE_V1.0.2/MSDK/lwip/lwip-2.1.2/src/apps/altcp_tls\altcp_tls_mbedtls.c ****     altcp_mbedtls_state_t *state = (altcp_mbedtls_state_t *)conn->state;
 398              		.loc 1 504 3
 504:C:/Users/stapi/OneDrive/Desktop/GD32VW553/GD32VW55X_Wifi_BLE_SDK/GD32VW55x_RELEASE_V1.0.2/MSDK/lwip/lwip-2.1.2/src/apps/altcp_tls\altcp_tls_mbedtls.c ****     altcp_mbedtls_state_t *state = (altcp_mbedtls_state_t *)conn->state;
 399              		.loc 1 504 6 is_stmt 0
 400 0000 01E9     		bne	a0,zero,.L44
 518:C:/Users/stapi/OneDrive/Desktop/GD32VW553/GD32VW55X_Wifi_BLE_SDK/GD32VW55x_RELEASE_V1.0.2/MSDK/lwip/lwip-2.1.2/src/apps/altcp_tls\altcp_tls_mbedtls.c **** }
 401              		.loc 1 518 10
 402 0002 0145     		li	a0,0
 403              	.LVL45:
 519:C:/Users/stapi/OneDrive/Desktop/GD32VW553/GD32VW55X_Wifi_BLE_SDK/GD32VW55x_RELEASE_V1.0.2/MSDK/lwip/lwip-2.1.2/src/apps/altcp_tls\altcp_tls_mbedtls.c **** 
 404              		.loc 1 519 1
 405 0004 8280     		ret
 406              	.LVL46:
 407              	.L48:
 408              		.cfi_def_cfa_offset 16
 409              		.cfi_offset 1, -4
 410              		.cfi_offset 8, -8
 411              		.cfi_offset 9, -12
 518:C:/Users/stapi/OneDrive/Desktop/GD32VW553/GD32VW55X_Wifi_BLE_SDK/GD32VW55x_RELEASE_V1.0.2/MSDK/lwip/lwip-2.1.2/src/apps/altcp_tls\altcp_tls_mbedtls.c **** }
 412              		.loc 1 518 10
 413 0006 0145     		li	a0,0
 414              	.L45:
 519:C:/Users/stapi/OneDrive/Desktop/GD32VW553/GD32VW55X_Wifi_BLE_SDK/GD32VW55x_RELEASE_V1.0.2/MSDK/lwip/lwip-2.1.2/src/apps/altcp_tls\altcp_tls_mbedtls.c **** 
 415              		.loc 1 519 1
 416 0008 17030000 		tail	__riscv_restore_2
 416      67000300 
 417              		.cfi_restore 9
 418              		.cfi_restore 8
 419              		.cfi_restore 1
 420              		.cfi_def_cfa_offset 0
 421              	.LVL47:
 422              	.L44:
 500:C:/Users/stapi/OneDrive/Desktop/GD32VW553/GD32VW55X_Wifi_BLE_SDK/GD32VW55x_RELEASE_V1.0.2/MSDK/lwip/lwip-2.1.2/src/apps/altcp_tls\altcp_tls_mbedtls.c ****   struct altcp_pcb *conn = (struct altcp_pcb *)arg;
 423              		.loc 1 500 1
 424 0010 17030000 		call	t0,__riscv_save_2
 424      E7020300 
 425              		.cfi_offset 9, -12
 426              		.cfi_offset 8, -8
 427              		.cfi_offset 1, -4
 428              		.cfi_def_cfa_offset 16
 429              	.LBB7:
 506:C:/Users/stapi/OneDrive/Desktop/GD32VW553/GD32VW55X_Wifi_BLE_SDK/GD32VW55x_RELEASE_V1.0.2/MSDK/lwip/lwip-2.1.2/src/apps/altcp_tls\altcp_tls_mbedtls.c ****     if (!state || !(state->flags & ALTCP_MBEDTLS_FLAGS_HANDSHAKE_DONE)) {
 430              		.loc 1 506 5
 431 0018 5C41     		lw	a5,4(a0)
 432 001a 2A84     		mv	s0,a0
 505:C:/Users/stapi/OneDrive/Desktop/GD32VW553/GD32VW55X_Wifi_BLE_SDK/GD32VW55x_RELEASE_V1.0.2/MSDK/lwip/lwip-2.1.2/src/apps/altcp_tls\altcp_tls_mbedtls.c ****     LWIP_ASSERT("pcb mismatch", conn->inner_conn == inner_conn);
 433              		.loc 1 505 5 is_stmt 1
 434              	.LVL48:
 506:C:/Users/stapi/OneDrive/Desktop/GD32VW553/GD32VW55X_Wifi_BLE_SDK/GD32VW55x_RELEASE_V1.0.2/MSDK/lwip/lwip-2.1.2/src/apps/altcp_tls\altcp_tls_mbedtls.c ****     if (!state || !(state->flags & ALTCP_MBEDTLS_FLAGS_HANDSHAKE_DONE)) {
 435              		.loc 1 506 5
 506:C:/Users/stapi/OneDrive/Desktop/GD32VW553/GD32VW55X_Wifi_BLE_SDK/GD32VW55x_RELEASE_V1.0.2/MSDK/lwip/lwip-2.1.2/src/apps/altcp_tls\altcp_tls_mbedtls.c ****     if (!state || !(state->flags & ALTCP_MBEDTLS_FLAGS_HANDSHAKE_DONE)) {
 436              		.loc 1 506 5
 437 001c 6385B702 		beq	a5,a1,.L46
 438              	.LVL49:
 506:C:/Users/stapi/OneDrive/Desktop/GD32VW553/GD32VW55X_Wifi_BLE_SDK/GD32VW55x_RELEASE_V1.0.2/MSDK/lwip/lwip-2.1.2/src/apps/altcp_tls\altcp_tls_mbedtls.c ****     if (!state || !(state->flags & ALTCP_MBEDTLS_FLAGS_HANDSHAKE_DONE)) {
 439              		.loc 1 506 5 discriminator 1
 506:C:/Users/stapi/OneDrive/Desktop/GD32VW553/GD32VW55X_Wifi_BLE_SDK/GD32VW55x_RELEASE_V1.0.2/MSDK/lwip/lwip-2.1.2/src/apps/altcp_tls\altcp_tls_mbedtls.c ****     if (!state || !(state->flags & ALTCP_MBEDTLS_FLAGS_HANDSHAKE_DONE)) {
 440              		.loc 1 506 5 discriminator 1
 441 0020 B7060000 		lui	a3,%hi(.LC0)
 442 0024 B7050000 		lui	a1,%hi(.LC4)
 443              	.LVL50:
 444 0028 37050000 		lui	a0,%hi(.LC2)
 445 002c 93860600 		addi	a3,a3,%lo(.LC0)
 446 0030 1306A01F 		li	a2,506
 447              	.LVL51:
 448 0034 93850500 		addi	a1,a1,%lo(.LC4)
 449 0038 13050500 		addi	a0,a0,%lo(.LC2)
 450 003c 97000000 		call	printf
 450      E7800000 
 451              	.LVL52:
 452              	.L47:
 506:C:/Users/stapi/OneDrive/Desktop/GD32VW553/GD32VW55X_Wifi_BLE_SDK/GD32VW55x_RELEASE_V1.0.2/MSDK/lwip/lwip-2.1.2/src/apps/altcp_tls\altcp_tls_mbedtls.c ****     if (!state || !(state->flags & ALTCP_MBEDTLS_FLAGS_HANDSHAKE_DONE)) {
 453              		.loc 1 506 5 discriminator 1
 506:C:/Users/stapi/OneDrive/Desktop/GD32VW553/GD32VW55X_Wifi_BLE_SDK/GD32VW55x_RELEASE_V1.0.2/MSDK/lwip/lwip-2.1.2/src/apps/altcp_tls\altcp_tls_mbedtls.c ****     if (!state || !(state->flags & ALTCP_MBEDTLS_FLAGS_HANDSHAKE_DONE)) {
 454              		.loc 1 506 5 discriminator 1
 506:C:/Users/stapi/OneDrive/Desktop/GD32VW553/GD32VW55X_Wifi_BLE_SDK/GD32VW55x_RELEASE_V1.0.2/MSDK/lwip/lwip-2.1.2/src/apps/altcp_tls\altcp_tls_mbedtls.c ****     if (!state || !(state->flags & ALTCP_MBEDTLS_FLAGS_HANDSHAKE_DONE)) {
 455              		.loc 1 506 5 discriminator 1
 456 0044 01A0     		j	.L47
 457              	.LVL53:
 458              	.L46:
 505:C:/Users/stapi/OneDrive/Desktop/GD32VW553/GD32VW55X_Wifi_BLE_SDK/GD32VW55x_RELEASE_V1.0.2/MSDK/lwip/lwip-2.1.2/src/apps/altcp_tls\altcp_tls_mbedtls.c ****     LWIP_ASSERT("pcb mismatch", conn->inner_conn == inner_conn);
 459              		.loc 1 505 28 is_stmt 0 discriminator 2
 460 0046 4445     		lw	s1,12(a0)
 506:C:/Users/stapi/OneDrive/Desktop/GD32VW553/GD32VW55X_Wifi_BLE_SDK/GD32VW55x_RELEASE_V1.0.2/MSDK/lwip/lwip-2.1.2/src/apps/altcp_tls\altcp_tls_mbedtls.c ****     if (!state || !(state->flags & ALTCP_MBEDTLS_FLAGS_HANDSHAKE_DONE)) {
 461              		.loc 1 506 5 is_stmt 1 discriminator 2
 506:C:/Users/stapi/OneDrive/Desktop/GD32VW553/GD32VW55X_Wifi_BLE_SDK/GD32VW55x_RELEASE_V1.0.2/MSDK/lwip/lwip-2.1.2/src/apps/altcp_tls\altcp_tls_mbedtls.c ****     if (!state || !(state->flags & ALTCP_MBEDTLS_FLAGS_HANDSHAKE_DONE)) {
 462              		.loc 1 506 5 discriminator 2
 507:C:/Users/stapi/OneDrive/Desktop/GD32VW553/GD32VW55X_Wifi_BLE_SDK/GD32VW55x_RELEASE_V1.0.2/MSDK/lwip/lwip-2.1.2/src/apps/altcp_tls\altcp_tls_mbedtls.c ****       /* @todo: do something here? */
 463              		.loc 1 507 5 discriminator 2
 507:C:/Users/stapi/OneDrive/Desktop/GD32VW553/GD32VW55X_Wifi_BLE_SDK/GD32VW55x_RELEASE_V1.0.2/MSDK/lwip/lwip-2.1.2/src/apps/altcp_tls\altcp_tls_mbedtls.c ****       /* @todo: do something here? */
 464              		.loc 1 507 8 is_stmt 0 discriminator 2
 465 0048 DDDC     		beq	s1,zero,.L48
 507:C:/Users/stapi/OneDrive/Desktop/GD32VW553/GD32VW55X_Wifi_BLE_SDK/GD32VW55x_RELEASE_V1.0.2/MSDK/lwip/lwip-2.1.2/src/apps/altcp_tls\altcp_tls_mbedtls.c ****       /* @todo: do something here? */
 466              		.loc 1 507 16 discriminator 1
 467 004a 83C78415 		lbu	a5,344(s1)
 468 004e 858B     		andi	a5,a5,1
 469 0050 DDDB     		beq	a5,zero,.L48
 512:C:/Users/stapi/OneDrive/Desktop/GD32VW553/GD32VW55X_Wifi_BLE_SDK/GD32VW55x_RELEASE_V1.0.2/MSDK/lwip/lwip-2.1.2/src/apps/altcp_tls\altcp_tls_mbedtls.c ****     /* call upper sent with len==0 if the application already sent data */
 470              		.loc 1 512 5 is_stmt 1
 471 0052 13858400 		addi	a0,s1,8
 472 0056 97000000 		call	mbedtls_ssl_flush_output
 472      E7800000 
 473              	.LVL54:
 514:C:/Users/stapi/OneDrive/Desktop/GD32VW553/GD32VW55X_Wifi_BLE_SDK/GD32VW55x_RELEASE_V1.0.2/MSDK/lwip/lwip-2.1.2/src/apps/altcp_tls\altcp_tls_mbedtls.c ****       return conn->sent(conn->arg, conn, 0);
 474              		.loc 1 514 5
 514:C:/Users/stapi/OneDrive/Desktop/GD32VW553/GD32VW55X_Wifi_BLE_SDK/GD32VW55x_RELEASE_V1.0.2/MSDK/lwip/lwip-2.1.2/src/apps/altcp_tls\altcp_tls_mbedtls.c ****       return conn->sent(conn->arg, conn, 0);
 475              		.loc 1 514 8 is_stmt 0
 476 005e 83C78415 		lbu	a5,344(s1)
 477 0062 C18B     		andi	a5,a5,16
 478 0064 CDD3     		beq	a5,zero,.L48
 514:C:/Users/stapi/OneDrive/Desktop/GD32VW553/GD32VW55X_Wifi_BLE_SDK/GD32VW55x_RELEASE_V1.0.2/MSDK/lwip/lwip-2.1.2/src/apps/altcp_tls\altcp_tls_mbedtls.c ****       return conn->sent(conn->arg, conn, 0);
 479              		.loc 1 514 67 discriminator 1
 480 0066 5C4C     		lw	a5,28(s0)
 514:C:/Users/stapi/OneDrive/Desktop/GD32VW553/GD32VW55X_Wifi_BLE_SDK/GD32VW55x_RELEASE_V1.0.2/MSDK/lwip/lwip-2.1.2/src/apps/altcp_tls\altcp_tls_mbedtls.c ****       return conn->sent(conn->arg, conn, 0);
 481              		.loc 1 514 60 discriminator 1
 482 0068 D9DF     		beq	a5,zero,.L48
 515:C:/Users/stapi/OneDrive/Desktop/GD32VW553/GD32VW55X_Wifi_BLE_SDK/GD32VW55x_RELEASE_V1.0.2/MSDK/lwip/lwip-2.1.2/src/apps/altcp_tls\altcp_tls_mbedtls.c ****     }
 483              		.loc 1 515 7 is_stmt 1
 515:C:/Users/stapi/OneDrive/Desktop/GD32VW553/GD32VW55X_Wifi_BLE_SDK/GD32VW55x_RELEASE_V1.0.2/MSDK/lwip/lwip-2.1.2/src/apps/altcp_tls\altcp_tls_mbedtls.c ****     }
 484              		.loc 1 515 14 is_stmt 0
 485 006a 0844     		lw	a0,8(s0)
 486 006c 0146     		li	a2,0
 487 006e A285     		mv	a1,s0
 488 0070 8297     		jalr	a5
 489              	.LVL55:
 490 0072 59BF     		j	.L45
 491              	.LBE7:
 492              		.cfi_endproc
 493              	.LFE397:
 495              		.section	.text.altcp_mbedtls_recved,"ax",@progbits
 496              		.align	1
 498              	altcp_mbedtls_recved:
 499              	.LFB414:
 673:C:/Users/stapi/OneDrive/Desktop/GD32VW553/GD32VW55X_Wifi_BLE_SDK/GD32VW55x_RELEASE_V1.0.2/MSDK/lwip/lwip-2.1.2/src/apps/altcp_tls\altcp_tls_mbedtls.c **** #define ALTCP_MBEDTLS_RNG_FN dummy_rng
 674:C:/Users/stapi/OneDrive/Desktop/GD32VW553/GD32VW55X_Wifi_BLE_SDK/GD32VW55x_RELEASE_V1.0.2/MSDK/lwip/lwip-2.1.2/src/apps/altcp_tls\altcp_tls_mbedtls.c **** #endif /* ALTCP_MBEDTLS_RNG_FN */
 675:C:/Users/stapi/OneDrive/Desktop/GD32VW553/GD32VW55X_Wifi_BLE_SDK/GD32VW55x_RELEASE_V1.0.2/MSDK/lwip/lwip-2.1.2/src/apps/altcp_tls\altcp_tls_mbedtls.c **** 
 676:C:/Users/stapi/OneDrive/Desktop/GD32VW553/GD32VW55X_Wifi_BLE_SDK/GD32VW55x_RELEASE_V1.0.2/MSDK/lwip/lwip-2.1.2/src/apps/altcp_tls\altcp_tls_mbedtls.c **** /** Create new TLS configuration
 677:C:/Users/stapi/OneDrive/Desktop/GD32VW553/GD32VW55X_Wifi_BLE_SDK/GD32VW55x_RELEASE_V1.0.2/MSDK/lwip/lwip-2.1.2/src/apps/altcp_tls\altcp_tls_mbedtls.c ****  * ATTENTION: Server certificate and private key have to be added outside this function!
 678:C:/Users/stapi/OneDrive/Desktop/GD32VW553/GD32VW55X_Wifi_BLE_SDK/GD32VW55x_RELEASE_V1.0.2/MSDK/lwip/lwip-2.1.2/src/apps/altcp_tls\altcp_tls_mbedtls.c ****  */
 679:C:/Users/stapi/OneDrive/Desktop/GD32VW553/GD32VW55X_Wifi_BLE_SDK/GD32VW55x_RELEASE_V1.0.2/MSDK/lwip/lwip-2.1.2/src/apps/altcp_tls\altcp_tls_mbedtls.c **** static struct altcp_tls_config *
 680:C:/Users/stapi/OneDrive/Desktop/GD32VW553/GD32VW55X_Wifi_BLE_SDK/GD32VW55x_RELEASE_V1.0.2/MSDK/lwip/lwip-2.1.2/src/apps/altcp_tls\altcp_tls_mbedtls.c **** altcp_tls_create_config(int is_server, int have_cert, int have_pkey, int have_ca)
 681:C:/Users/stapi/OneDrive/Desktop/GD32VW553/GD32VW55X_Wifi_BLE_SDK/GD32VW55x_RELEASE_V1.0.2/MSDK/lwip/lwip-2.1.2/src/apps/altcp_tls\altcp_tls_mbedtls.c **** {
 682:C:/Users/stapi/OneDrive/Desktop/GD32VW553/GD32VW55X_Wifi_BLE_SDK/GD32VW55x_RELEASE_V1.0.2/MSDK/lwip/lwip-2.1.2/src/apps/altcp_tls\altcp_tls_mbedtls.c ****   size_t sz;
 683:C:/Users/stapi/OneDrive/Desktop/GD32VW553/GD32VW55X_Wifi_BLE_SDK/GD32VW55x_RELEASE_V1.0.2/MSDK/lwip/lwip-2.1.2/src/apps/altcp_tls\altcp_tls_mbedtls.c ****   int ret;
 684:C:/Users/stapi/OneDrive/Desktop/GD32VW553/GD32VW55X_Wifi_BLE_SDK/GD32VW55x_RELEASE_V1.0.2/MSDK/lwip/lwip-2.1.2/src/apps/altcp_tls\altcp_tls_mbedtls.c ****   struct altcp_tls_config *conf;
 685:C:/Users/stapi/OneDrive/Desktop/GD32VW553/GD32VW55X_Wifi_BLE_SDK/GD32VW55x_RELEASE_V1.0.2/MSDK/lwip/lwip-2.1.2/src/apps/altcp_tls\altcp_tls_mbedtls.c ****   mbedtls_x509_crt *mem;
 686:C:/Users/stapi/OneDrive/Desktop/GD32VW553/GD32VW55X_Wifi_BLE_SDK/GD32VW55x_RELEASE_V1.0.2/MSDK/lwip/lwip-2.1.2/src/apps/altcp_tls\altcp_tls_mbedtls.c **** 
 687:C:/Users/stapi/OneDrive/Desktop/GD32VW553/GD32VW55X_Wifi_BLE_SDK/GD32VW55x_RELEASE_V1.0.2/MSDK/lwip/lwip-2.1.2/src/apps/altcp_tls\altcp_tls_mbedtls.c ****   if (TCP_WND < MBEDTLS_SSL_MAX_CONTENT_LEN) {
 688:C:/Users/stapi/OneDrive/Desktop/GD32VW553/GD32VW55X_Wifi_BLE_SDK/GD32VW55x_RELEASE_V1.0.2/MSDK/lwip/lwip-2.1.2/src/apps/altcp_tls\altcp_tls_mbedtls.c ****     LWIP_DEBUGF(ALTCP_MBEDTLS_DEBUG|LWIP_DBG_LEVEL_SERIOUS,
 689:C:/Users/stapi/OneDrive/Desktop/GD32VW553/GD32VW55X_Wifi_BLE_SDK/GD32VW55x_RELEASE_V1.0.2/MSDK/lwip/lwip-2.1.2/src/apps/altcp_tls\altcp_tls_mbedtls.c ****       ("altcp_tls: TCP_WND is smaller than the RX decryption buffer, connection RX might stall!\n")
 690:C:/Users/stapi/OneDrive/Desktop/GD32VW553/GD32VW55X_Wifi_BLE_SDK/GD32VW55x_RELEASE_V1.0.2/MSDK/lwip/lwip-2.1.2/src/apps/altcp_tls\altcp_tls_mbedtls.c ****   }
 691:C:/Users/stapi/OneDrive/Desktop/GD32VW553/GD32VW55X_Wifi_BLE_SDK/GD32VW55x_RELEASE_V1.0.2/MSDK/lwip/lwip-2.1.2/src/apps/altcp_tls\altcp_tls_mbedtls.c **** 
 692:C:/Users/stapi/OneDrive/Desktop/GD32VW553/GD32VW55X_Wifi_BLE_SDK/GD32VW55x_RELEASE_V1.0.2/MSDK/lwip/lwip-2.1.2/src/apps/altcp_tls\altcp_tls_mbedtls.c ****   altcp_mbedtls_mem_init();
 693:C:/Users/stapi/OneDrive/Desktop/GD32VW553/GD32VW55X_Wifi_BLE_SDK/GD32VW55x_RELEASE_V1.0.2/MSDK/lwip/lwip-2.1.2/src/apps/altcp_tls\altcp_tls_mbedtls.c **** 
 694:C:/Users/stapi/OneDrive/Desktop/GD32VW553/GD32VW55X_Wifi_BLE_SDK/GD32VW55x_RELEASE_V1.0.2/MSDK/lwip/lwip-2.1.2/src/apps/altcp_tls\altcp_tls_mbedtls.c ****   sz = sizeof(struct altcp_tls_config);
 695:C:/Users/stapi/OneDrive/Desktop/GD32VW553/GD32VW55X_Wifi_BLE_SDK/GD32VW55x_RELEASE_V1.0.2/MSDK/lwip/lwip-2.1.2/src/apps/altcp_tls\altcp_tls_mbedtls.c ****   if (have_cert) {
 696:C:/Users/stapi/OneDrive/Desktop/GD32VW553/GD32VW55X_Wifi_BLE_SDK/GD32VW55x_RELEASE_V1.0.2/MSDK/lwip/lwip-2.1.2/src/apps/altcp_tls\altcp_tls_mbedtls.c ****     sz += sizeof(mbedtls_x509_crt);
 697:C:/Users/stapi/OneDrive/Desktop/GD32VW553/GD32VW55X_Wifi_BLE_SDK/GD32VW55x_RELEASE_V1.0.2/MSDK/lwip/lwip-2.1.2/src/apps/altcp_tls\altcp_tls_mbedtls.c ****   }
 698:C:/Users/stapi/OneDrive/Desktop/GD32VW553/GD32VW55X_Wifi_BLE_SDK/GD32VW55x_RELEASE_V1.0.2/MSDK/lwip/lwip-2.1.2/src/apps/altcp_tls\altcp_tls_mbedtls.c ****   if (have_ca) {
 699:C:/Users/stapi/OneDrive/Desktop/GD32VW553/GD32VW55X_Wifi_BLE_SDK/GD32VW55x_RELEASE_V1.0.2/MSDK/lwip/lwip-2.1.2/src/apps/altcp_tls\altcp_tls_mbedtls.c ****     sz += sizeof(mbedtls_x509_crt);
 700:C:/Users/stapi/OneDrive/Desktop/GD32VW553/GD32VW55X_Wifi_BLE_SDK/GD32VW55x_RELEASE_V1.0.2/MSDK/lwip/lwip-2.1.2/src/apps/altcp_tls\altcp_tls_mbedtls.c ****   }
 701:C:/Users/stapi/OneDrive/Desktop/GD32VW553/GD32VW55X_Wifi_BLE_SDK/GD32VW55x_RELEASE_V1.0.2/MSDK/lwip/lwip-2.1.2/src/apps/altcp_tls\altcp_tls_mbedtls.c ****   if (have_pkey) {
 702:C:/Users/stapi/OneDrive/Desktop/GD32VW553/GD32VW55X_Wifi_BLE_SDK/GD32VW55x_RELEASE_V1.0.2/MSDK/lwip/lwip-2.1.2/src/apps/altcp_tls\altcp_tls_mbedtls.c ****     sz += sizeof(mbedtls_pk_context);
 703:C:/Users/stapi/OneDrive/Desktop/GD32VW553/GD32VW55X_Wifi_BLE_SDK/GD32VW55x_RELEASE_V1.0.2/MSDK/lwip/lwip-2.1.2/src/apps/altcp_tls\altcp_tls_mbedtls.c ****   }
 704:C:/Users/stapi/OneDrive/Desktop/GD32VW553/GD32VW55X_Wifi_BLE_SDK/GD32VW55x_RELEASE_V1.0.2/MSDK/lwip/lwip-2.1.2/src/apps/altcp_tls\altcp_tls_mbedtls.c **** 
 705:C:/Users/stapi/OneDrive/Desktop/GD32VW553/GD32VW55X_Wifi_BLE_SDK/GD32VW55x_RELEASE_V1.0.2/MSDK/lwip/lwip-2.1.2/src/apps/altcp_tls\altcp_tls_mbedtls.c ****   conf = (struct altcp_tls_config *)altcp_mbedtls_alloc_config(sz);
 706:C:/Users/stapi/OneDrive/Desktop/GD32VW553/GD32VW55X_Wifi_BLE_SDK/GD32VW55x_RELEASE_V1.0.2/MSDK/lwip/lwip-2.1.2/src/apps/altcp_tls\altcp_tls_mbedtls.c ****   if (conf == NULL) {
 707:C:/Users/stapi/OneDrive/Desktop/GD32VW553/GD32VW55X_Wifi_BLE_SDK/GD32VW55x_RELEASE_V1.0.2/MSDK/lwip/lwip-2.1.2/src/apps/altcp_tls\altcp_tls_mbedtls.c ****     return NULL;
 708:C:/Users/stapi/OneDrive/Desktop/GD32VW553/GD32VW55X_Wifi_BLE_SDK/GD32VW55x_RELEASE_V1.0.2/MSDK/lwip/lwip-2.1.2/src/apps/altcp_tls\altcp_tls_mbedtls.c ****   }
 709:C:/Users/stapi/OneDrive/Desktop/GD32VW553/GD32VW55X_Wifi_BLE_SDK/GD32VW55x_RELEASE_V1.0.2/MSDK/lwip/lwip-2.1.2/src/apps/altcp_tls\altcp_tls_mbedtls.c ****   mem = (mbedtls_x509_crt *)(conf + 1);
 710:C:/Users/stapi/OneDrive/Desktop/GD32VW553/GD32VW55X_Wifi_BLE_SDK/GD32VW55x_RELEASE_V1.0.2/MSDK/lwip/lwip-2.1.2/src/apps/altcp_tls\altcp_tls_mbedtls.c ****   if (have_cert) {
 711:C:/Users/stapi/OneDrive/Desktop/GD32VW553/GD32VW55X_Wifi_BLE_SDK/GD32VW55x_RELEASE_V1.0.2/MSDK/lwip/lwip-2.1.2/src/apps/altcp_tls\altcp_tls_mbedtls.c ****     conf->cert = mem;
 712:C:/Users/stapi/OneDrive/Desktop/GD32VW553/GD32VW55X_Wifi_BLE_SDK/GD32VW55x_RELEASE_V1.0.2/MSDK/lwip/lwip-2.1.2/src/apps/altcp_tls\altcp_tls_mbedtls.c ****     mem++;
 713:C:/Users/stapi/OneDrive/Desktop/GD32VW553/GD32VW55X_Wifi_BLE_SDK/GD32VW55x_RELEASE_V1.0.2/MSDK/lwip/lwip-2.1.2/src/apps/altcp_tls\altcp_tls_mbedtls.c ****   }
 714:C:/Users/stapi/OneDrive/Desktop/GD32VW553/GD32VW55X_Wifi_BLE_SDK/GD32VW55x_RELEASE_V1.0.2/MSDK/lwip/lwip-2.1.2/src/apps/altcp_tls\altcp_tls_mbedtls.c ****   if (have_ca) {
 715:C:/Users/stapi/OneDrive/Desktop/GD32VW553/GD32VW55X_Wifi_BLE_SDK/GD32VW55x_RELEASE_V1.0.2/MSDK/lwip/lwip-2.1.2/src/apps/altcp_tls\altcp_tls_mbedtls.c ****     conf->ca = mem;
 716:C:/Users/stapi/OneDrive/Desktop/GD32VW553/GD32VW55X_Wifi_BLE_SDK/GD32VW55x_RELEASE_V1.0.2/MSDK/lwip/lwip-2.1.2/src/apps/altcp_tls\altcp_tls_mbedtls.c ****     mem++;
 717:C:/Users/stapi/OneDrive/Desktop/GD32VW553/GD32VW55X_Wifi_BLE_SDK/GD32VW55x_RELEASE_V1.0.2/MSDK/lwip/lwip-2.1.2/src/apps/altcp_tls\altcp_tls_mbedtls.c ****   }
 718:C:/Users/stapi/OneDrive/Desktop/GD32VW553/GD32VW55X_Wifi_BLE_SDK/GD32VW55x_RELEASE_V1.0.2/MSDK/lwip/lwip-2.1.2/src/apps/altcp_tls\altcp_tls_mbedtls.c ****   if (have_pkey) {
 719:C:/Users/stapi/OneDrive/Desktop/GD32VW553/GD32VW55X_Wifi_BLE_SDK/GD32VW55x_RELEASE_V1.0.2/MSDK/lwip/lwip-2.1.2/src/apps/altcp_tls\altcp_tls_mbedtls.c ****     conf->pkey = (mbedtls_pk_context *)mem;
 720:C:/Users/stapi/OneDrive/Desktop/GD32VW553/GD32VW55X_Wifi_BLE_SDK/GD32VW55x_RELEASE_V1.0.2/MSDK/lwip/lwip-2.1.2/src/apps/altcp_tls\altcp_tls_mbedtls.c ****   }
 721:C:/Users/stapi/OneDrive/Desktop/GD32VW553/GD32VW55X_Wifi_BLE_SDK/GD32VW55x_RELEASE_V1.0.2/MSDK/lwip/lwip-2.1.2/src/apps/altcp_tls\altcp_tls_mbedtls.c **** 
 722:C:/Users/stapi/OneDrive/Desktop/GD32VW553/GD32VW55X_Wifi_BLE_SDK/GD32VW55x_RELEASE_V1.0.2/MSDK/lwip/lwip-2.1.2/src/apps/altcp_tls\altcp_tls_mbedtls.c ****   mbedtls_ssl_config_init(&conf->conf);
 723:C:/Users/stapi/OneDrive/Desktop/GD32VW553/GD32VW55X_Wifi_BLE_SDK/GD32VW55x_RELEASE_V1.0.2/MSDK/lwip/lwip-2.1.2/src/apps/altcp_tls\altcp_tls_mbedtls.c ****   mbedtls_entropy_init(&conf->entropy);
 724:C:/Users/stapi/OneDrive/Desktop/GD32VW553/GD32VW55X_Wifi_BLE_SDK/GD32VW55x_RELEASE_V1.0.2/MSDK/lwip/lwip-2.1.2/src/apps/altcp_tls\altcp_tls_mbedtls.c ****   mbedtls_ctr_drbg_init(&conf->ctr_drbg);
 725:C:/Users/stapi/OneDrive/Desktop/GD32VW553/GD32VW55X_Wifi_BLE_SDK/GD32VW55x_RELEASE_V1.0.2/MSDK/lwip/lwip-2.1.2/src/apps/altcp_tls\altcp_tls_mbedtls.c **** 
 726:C:/Users/stapi/OneDrive/Desktop/GD32VW553/GD32VW55X_Wifi_BLE_SDK/GD32VW55x_RELEASE_V1.0.2/MSDK/lwip/lwip-2.1.2/src/apps/altcp_tls\altcp_tls_mbedtls.c ****   /* Seed the RNG */
 727:C:/Users/stapi/OneDrive/Desktop/GD32VW553/GD32VW55X_Wifi_BLE_SDK/GD32VW55x_RELEASE_V1.0.2/MSDK/lwip/lwip-2.1.2/src/apps/altcp_tls\altcp_tls_mbedtls.c ****   ret = mbedtls_ctr_drbg_seed(&conf->ctr_drbg, ALTCP_MBEDTLS_RNG_FN, &conf->entropy, ALTCP_MBEDTLS_
 728:C:/Users/stapi/OneDrive/Desktop/GD32VW553/GD32VW55X_Wifi_BLE_SDK/GD32VW55x_RELEASE_V1.0.2/MSDK/lwip/lwip-2.1.2/src/apps/altcp_tls\altcp_tls_mbedtls.c ****   if (ret != 0) {
 729:C:/Users/stapi/OneDrive/Desktop/GD32VW553/GD32VW55X_Wifi_BLE_SDK/GD32VW55x_RELEASE_V1.0.2/MSDK/lwip/lwip-2.1.2/src/apps/altcp_tls\altcp_tls_mbedtls.c ****     LWIP_DEBUGF(ALTCP_MBEDTLS_DEBUG, ("mbedtls_ctr_drbg_seed failed: %d\n", ret));
 730:C:/Users/stapi/OneDrive/Desktop/GD32VW553/GD32VW55X_Wifi_BLE_SDK/GD32VW55x_RELEASE_V1.0.2/MSDK/lwip/lwip-2.1.2/src/apps/altcp_tls\altcp_tls_mbedtls.c ****     altcp_mbedtls_free_config(conf);
 731:C:/Users/stapi/OneDrive/Desktop/GD32VW553/GD32VW55X_Wifi_BLE_SDK/GD32VW55x_RELEASE_V1.0.2/MSDK/lwip/lwip-2.1.2/src/apps/altcp_tls\altcp_tls_mbedtls.c ****     return NULL;
 732:C:/Users/stapi/OneDrive/Desktop/GD32VW553/GD32VW55X_Wifi_BLE_SDK/GD32VW55x_RELEASE_V1.0.2/MSDK/lwip/lwip-2.1.2/src/apps/altcp_tls\altcp_tls_mbedtls.c ****   }
 733:C:/Users/stapi/OneDrive/Desktop/GD32VW553/GD32VW55X_Wifi_BLE_SDK/GD32VW55x_RELEASE_V1.0.2/MSDK/lwip/lwip-2.1.2/src/apps/altcp_tls\altcp_tls_mbedtls.c **** 
 734:C:/Users/stapi/OneDrive/Desktop/GD32VW553/GD32VW55X_Wifi_BLE_SDK/GD32VW55x_RELEASE_V1.0.2/MSDK/lwip/lwip-2.1.2/src/apps/altcp_tls\altcp_tls_mbedtls.c ****   /* Setup ssl context (@todo: what's different for a client here? -> might better be done on liste
 735:C:/Users/stapi/OneDrive/Desktop/GD32VW553/GD32VW55X_Wifi_BLE_SDK/GD32VW55x_RELEASE_V1.0.2/MSDK/lwip/lwip-2.1.2/src/apps/altcp_tls\altcp_tls_mbedtls.c ****   ret = mbedtls_ssl_config_defaults(&conf->conf, is_server ? MBEDTLS_SSL_IS_SERVER : MBEDTLS_SSL_IS
 736:C:/Users/stapi/OneDrive/Desktop/GD32VW553/GD32VW55X_Wifi_BLE_SDK/GD32VW55x_RELEASE_V1.0.2/MSDK/lwip/lwip-2.1.2/src/apps/altcp_tls\altcp_tls_mbedtls.c ****                                     MBEDTLS_SSL_TRANSPORT_STREAM, MBEDTLS_SSL_PRESET_DEFAULT);
 737:C:/Users/stapi/OneDrive/Desktop/GD32VW553/GD32VW55X_Wifi_BLE_SDK/GD32VW55x_RELEASE_V1.0.2/MSDK/lwip/lwip-2.1.2/src/apps/altcp_tls\altcp_tls_mbedtls.c ****   if (ret != 0) {
 738:C:/Users/stapi/OneDrive/Desktop/GD32VW553/GD32VW55X_Wifi_BLE_SDK/GD32VW55x_RELEASE_V1.0.2/MSDK/lwip/lwip-2.1.2/src/apps/altcp_tls\altcp_tls_mbedtls.c ****     LWIP_DEBUGF(ALTCP_MBEDTLS_DEBUG, ("mbedtls_ssl_config_defaults failed: %d\n", ret));
 739:C:/Users/stapi/OneDrive/Desktop/GD32VW553/GD32VW55X_Wifi_BLE_SDK/GD32VW55x_RELEASE_V1.0.2/MSDK/lwip/lwip-2.1.2/src/apps/altcp_tls\altcp_tls_mbedtls.c ****     altcp_mbedtls_free_config(conf);
 740:C:/Users/stapi/OneDrive/Desktop/GD32VW553/GD32VW55X_Wifi_BLE_SDK/GD32VW55x_RELEASE_V1.0.2/MSDK/lwip/lwip-2.1.2/src/apps/altcp_tls\altcp_tls_mbedtls.c ****     return NULL;
 741:C:/Users/stapi/OneDrive/Desktop/GD32VW553/GD32VW55X_Wifi_BLE_SDK/GD32VW55x_RELEASE_V1.0.2/MSDK/lwip/lwip-2.1.2/src/apps/altcp_tls\altcp_tls_mbedtls.c ****   }
 742:C:/Users/stapi/OneDrive/Desktop/GD32VW553/GD32VW55X_Wifi_BLE_SDK/GD32VW55x_RELEASE_V1.0.2/MSDK/lwip/lwip-2.1.2/src/apps/altcp_tls\altcp_tls_mbedtls.c **** 
 743:C:/Users/stapi/OneDrive/Desktop/GD32VW553/GD32VW55X_Wifi_BLE_SDK/GD32VW55x_RELEASE_V1.0.2/MSDK/lwip/lwip-2.1.2/src/apps/altcp_tls\altcp_tls_mbedtls.c **** /* FT TAG */
 744:C:/Users/stapi/OneDrive/Desktop/GD32VW553/GD32VW55X_Wifi_BLE_SDK/GD32VW55x_RELEASE_V1.0.2/MSDK/lwip/lwip-2.1.2/src/apps/altcp_tls\altcp_tls_mbedtls.c ****   if (have_ca) {
 745:C:/Users/stapi/OneDrive/Desktop/GD32VW553/GD32VW55X_Wifi_BLE_SDK/GD32VW55x_RELEASE_V1.0.2/MSDK/lwip/lwip-2.1.2/src/apps/altcp_tls\altcp_tls_mbedtls.c ****     mbedtls_ssl_conf_authmode(&conf->conf, MBEDTLS_SSL_VERIFY_REQUIRED);
 746:C:/Users/stapi/OneDrive/Desktop/GD32VW553/GD32VW55X_Wifi_BLE_SDK/GD32VW55x_RELEASE_V1.0.2/MSDK/lwip/lwip-2.1.2/src/apps/altcp_tls\altcp_tls_mbedtls.c ****   } else {
 747:C:/Users/stapi/OneDrive/Desktop/GD32VW553/GD32VW55X_Wifi_BLE_SDK/GD32VW55x_RELEASE_V1.0.2/MSDK/lwip/lwip-2.1.2/src/apps/altcp_tls\altcp_tls_mbedtls.c ****     mbedtls_ssl_conf_authmode(&conf->conf, MBEDTLS_SSL_VERIFY_NONE);
 748:C:/Users/stapi/OneDrive/Desktop/GD32VW553/GD32VW55X_Wifi_BLE_SDK/GD32VW55x_RELEASE_V1.0.2/MSDK/lwip/lwip-2.1.2/src/apps/altcp_tls\altcp_tls_mbedtls.c ****   }
 749:C:/Users/stapi/OneDrive/Desktop/GD32VW553/GD32VW55X_Wifi_BLE_SDK/GD32VW55x_RELEASE_V1.0.2/MSDK/lwip/lwip-2.1.2/src/apps/altcp_tls\altcp_tls_mbedtls.c **** /* FT TAG */
 750:C:/Users/stapi/OneDrive/Desktop/GD32VW553/GD32VW55X_Wifi_BLE_SDK/GD32VW55x_RELEASE_V1.0.2/MSDK/lwip/lwip-2.1.2/src/apps/altcp_tls\altcp_tls_mbedtls.c **** 
 751:C:/Users/stapi/OneDrive/Desktop/GD32VW553/GD32VW55X_Wifi_BLE_SDK/GD32VW55x_RELEASE_V1.0.2/MSDK/lwip/lwip-2.1.2/src/apps/altcp_tls\altcp_tls_mbedtls.c ****   mbedtls_ssl_conf_rng(&conf->conf, mbedtls_ctr_drbg_random, &conf->ctr_drbg);
 752:C:/Users/stapi/OneDrive/Desktop/GD32VW553/GD32VW55X_Wifi_BLE_SDK/GD32VW55x_RELEASE_V1.0.2/MSDK/lwip/lwip-2.1.2/src/apps/altcp_tls\altcp_tls_mbedtls.c **** #if ALTCP_MBEDTLS_DEBUG != LWIP_DBG_OFF
 753:C:/Users/stapi/OneDrive/Desktop/GD32VW553/GD32VW55X_Wifi_BLE_SDK/GD32VW55x_RELEASE_V1.0.2/MSDK/lwip/lwip-2.1.2/src/apps/altcp_tls\altcp_tls_mbedtls.c ****   mbedtls_ssl_conf_dbg(&conf->conf, altcp_mbedtls_debug, stdout);
 754:C:/Users/stapi/OneDrive/Desktop/GD32VW553/GD32VW55X_Wifi_BLE_SDK/GD32VW55x_RELEASE_V1.0.2/MSDK/lwip/lwip-2.1.2/src/apps/altcp_tls\altcp_tls_mbedtls.c **** #endif
 755:C:/Users/stapi/OneDrive/Desktop/GD32VW553/GD32VW55X_Wifi_BLE_SDK/GD32VW55x_RELEASE_V1.0.2/MSDK/lwip/lwip-2.1.2/src/apps/altcp_tls\altcp_tls_mbedtls.c **** #if defined(MBEDTLS_SSL_CACHE_C) && ALTCP_MBEDTLS_SESSION_CACHE_TIMEOUT_SECONDS
 756:C:/Users/stapi/OneDrive/Desktop/GD32VW553/GD32VW55X_Wifi_BLE_SDK/GD32VW55x_RELEASE_V1.0.2/MSDK/lwip/lwip-2.1.2/src/apps/altcp_tls\altcp_tls_mbedtls.c ****   mbedtls_ssl_conf_session_cache(&conf->conf, &conf->cache, mbedtls_ssl_cache_get, mbedtls_ssl_cach
 757:C:/Users/stapi/OneDrive/Desktop/GD32VW553/GD32VW55X_Wifi_BLE_SDK/GD32VW55x_RELEASE_V1.0.2/MSDK/lwip/lwip-2.1.2/src/apps/altcp_tls\altcp_tls_mbedtls.c ****   mbedtls_ssl_cache_set_timeout(&conf->cache, 30);
 758:C:/Users/stapi/OneDrive/Desktop/GD32VW553/GD32VW55X_Wifi_BLE_SDK/GD32VW55x_RELEASE_V1.0.2/MSDK/lwip/lwip-2.1.2/src/apps/altcp_tls\altcp_tls_mbedtls.c ****   mbedtls_ssl_cache_set_max_entries(&conf->cache, 30);
 759:C:/Users/stapi/OneDrive/Desktop/GD32VW553/GD32VW55X_Wifi_BLE_SDK/GD32VW55x_RELEASE_V1.0.2/MSDK/lwip/lwip-2.1.2/src/apps/altcp_tls\altcp_tls_mbedtls.c **** #endif
 760:C:/Users/stapi/OneDrive/Desktop/GD32VW553/GD32VW55X_Wifi_BLE_SDK/GD32VW55x_RELEASE_V1.0.2/MSDK/lwip/lwip-2.1.2/src/apps/altcp_tls\altcp_tls_mbedtls.c **** 
 761:C:/Users/stapi/OneDrive/Desktop/GD32VW553/GD32VW55X_Wifi_BLE_SDK/GD32VW55x_RELEASE_V1.0.2/MSDK/lwip/lwip-2.1.2/src/apps/altcp_tls\altcp_tls_mbedtls.c ****   return conf;
 762:C:/Users/stapi/OneDrive/Desktop/GD32VW553/GD32VW55X_Wifi_BLE_SDK/GD32VW55x_RELEASE_V1.0.2/MSDK/lwip/lwip-2.1.2/src/apps/altcp_tls\altcp_tls_mbedtls.c **** }
 763:C:/Users/stapi/OneDrive/Desktop/GD32VW553/GD32VW55X_Wifi_BLE_SDK/GD32VW55x_RELEASE_V1.0.2/MSDK/lwip/lwip-2.1.2/src/apps/altcp_tls\altcp_tls_mbedtls.c **** 
 764:C:/Users/stapi/OneDrive/Desktop/GD32VW553/GD32VW55X_Wifi_BLE_SDK/GD32VW55x_RELEASE_V1.0.2/MSDK/lwip/lwip-2.1.2/src/apps/altcp_tls\altcp_tls_mbedtls.c **** /** Create new TLS configuration
 765:C:/Users/stapi/OneDrive/Desktop/GD32VW553/GD32VW55X_Wifi_BLE_SDK/GD32VW55x_RELEASE_V1.0.2/MSDK/lwip/lwip-2.1.2/src/apps/altcp_tls\altcp_tls_mbedtls.c ****  * This is a suboptimal version that gets the encrypted private key and its password,
 766:C:/Users/stapi/OneDrive/Desktop/GD32VW553/GD32VW55X_Wifi_BLE_SDK/GD32VW55x_RELEASE_V1.0.2/MSDK/lwip/lwip-2.1.2/src/apps/altcp_tls\altcp_tls_mbedtls.c ****  * as well as the server certificate.
 767:C:/Users/stapi/OneDrive/Desktop/GD32VW553/GD32VW55X_Wifi_BLE_SDK/GD32VW55x_RELEASE_V1.0.2/MSDK/lwip/lwip-2.1.2/src/apps/altcp_tls\altcp_tls_mbedtls.c ****  */
 768:C:/Users/stapi/OneDrive/Desktop/GD32VW553/GD32VW55X_Wifi_BLE_SDK/GD32VW55x_RELEASE_V1.0.2/MSDK/lwip/lwip-2.1.2/src/apps/altcp_tls\altcp_tls_mbedtls.c **** struct altcp_tls_config *
 769:C:/Users/stapi/OneDrive/Desktop/GD32VW553/GD32VW55X_Wifi_BLE_SDK/GD32VW55x_RELEASE_V1.0.2/MSDK/lwip/lwip-2.1.2/src/apps/altcp_tls\altcp_tls_mbedtls.c **** altcp_tls_create_config_server_privkey_cert(const u8_t *privkey, size_t privkey_len,
 770:C:/Users/stapi/OneDrive/Desktop/GD32VW553/GD32VW55X_Wifi_BLE_SDK/GD32VW55x_RELEASE_V1.0.2/MSDK/lwip/lwip-2.1.2/src/apps/altcp_tls\altcp_tls_mbedtls.c ****     const u8_t *privkey_pass, size_t privkey_pass_len,
 771:C:/Users/stapi/OneDrive/Desktop/GD32VW553/GD32VW55X_Wifi_BLE_SDK/GD32VW55x_RELEASE_V1.0.2/MSDK/lwip/lwip-2.1.2/src/apps/altcp_tls\altcp_tls_mbedtls.c ****     const u8_t *cert, size_t cert_len)
 772:C:/Users/stapi/OneDrive/Desktop/GD32VW553/GD32VW55X_Wifi_BLE_SDK/GD32VW55x_RELEASE_V1.0.2/MSDK/lwip/lwip-2.1.2/src/apps/altcp_tls\altcp_tls_mbedtls.c **** {
 773:C:/Users/stapi/OneDrive/Desktop/GD32VW553/GD32VW55X_Wifi_BLE_SDK/GD32VW55x_RELEASE_V1.0.2/MSDK/lwip/lwip-2.1.2/src/apps/altcp_tls\altcp_tls_mbedtls.c ****   int ret;
 774:C:/Users/stapi/OneDrive/Desktop/GD32VW553/GD32VW55X_Wifi_BLE_SDK/GD32VW55x_RELEASE_V1.0.2/MSDK/lwip/lwip-2.1.2/src/apps/altcp_tls\altcp_tls_mbedtls.c ****   mbedtls_x509_crt *srvcert;
 775:C:/Users/stapi/OneDrive/Desktop/GD32VW553/GD32VW55X_Wifi_BLE_SDK/GD32VW55x_RELEASE_V1.0.2/MSDK/lwip/lwip-2.1.2/src/apps/altcp_tls\altcp_tls_mbedtls.c ****   mbedtls_pk_context *pkey;
 776:C:/Users/stapi/OneDrive/Desktop/GD32VW553/GD32VW55X_Wifi_BLE_SDK/GD32VW55x_RELEASE_V1.0.2/MSDK/lwip/lwip-2.1.2/src/apps/altcp_tls\altcp_tls_mbedtls.c ****   struct altcp_tls_config *conf = altcp_tls_create_config(1, 1, 1, 0);
 777:C:/Users/stapi/OneDrive/Desktop/GD32VW553/GD32VW55X_Wifi_BLE_SDK/GD32VW55x_RELEASE_V1.0.2/MSDK/lwip/lwip-2.1.2/src/apps/altcp_tls\altcp_tls_mbedtls.c ****   if (conf == NULL) {
 778:C:/Users/stapi/OneDrive/Desktop/GD32VW553/GD32VW55X_Wifi_BLE_SDK/GD32VW55x_RELEASE_V1.0.2/MSDK/lwip/lwip-2.1.2/src/apps/altcp_tls\altcp_tls_mbedtls.c ****     return NULL;
 779:C:/Users/stapi/OneDrive/Desktop/GD32VW553/GD32VW55X_Wifi_BLE_SDK/GD32VW55x_RELEASE_V1.0.2/MSDK/lwip/lwip-2.1.2/src/apps/altcp_tls\altcp_tls_mbedtls.c ****   }
 780:C:/Users/stapi/OneDrive/Desktop/GD32VW553/GD32VW55X_Wifi_BLE_SDK/GD32VW55x_RELEASE_V1.0.2/MSDK/lwip/lwip-2.1.2/src/apps/altcp_tls\altcp_tls_mbedtls.c **** 
 781:C:/Users/stapi/OneDrive/Desktop/GD32VW553/GD32VW55X_Wifi_BLE_SDK/GD32VW55x_RELEASE_V1.0.2/MSDK/lwip/lwip-2.1.2/src/apps/altcp_tls\altcp_tls_mbedtls.c ****   srvcert = conf->cert;
 782:C:/Users/stapi/OneDrive/Desktop/GD32VW553/GD32VW55X_Wifi_BLE_SDK/GD32VW55x_RELEASE_V1.0.2/MSDK/lwip/lwip-2.1.2/src/apps/altcp_tls\altcp_tls_mbedtls.c ****   mbedtls_x509_crt_init(srvcert);
 783:C:/Users/stapi/OneDrive/Desktop/GD32VW553/GD32VW55X_Wifi_BLE_SDK/GD32VW55x_RELEASE_V1.0.2/MSDK/lwip/lwip-2.1.2/src/apps/altcp_tls\altcp_tls_mbedtls.c **** 
 784:C:/Users/stapi/OneDrive/Desktop/GD32VW553/GD32VW55X_Wifi_BLE_SDK/GD32VW55x_RELEASE_V1.0.2/MSDK/lwip/lwip-2.1.2/src/apps/altcp_tls\altcp_tls_mbedtls.c ****   pkey = conf->pkey;
 785:C:/Users/stapi/OneDrive/Desktop/GD32VW553/GD32VW55X_Wifi_BLE_SDK/GD32VW55x_RELEASE_V1.0.2/MSDK/lwip/lwip-2.1.2/src/apps/altcp_tls\altcp_tls_mbedtls.c ****   mbedtls_pk_init(pkey);
 786:C:/Users/stapi/OneDrive/Desktop/GD32VW553/GD32VW55X_Wifi_BLE_SDK/GD32VW55x_RELEASE_V1.0.2/MSDK/lwip/lwip-2.1.2/src/apps/altcp_tls\altcp_tls_mbedtls.c **** 
 787:C:/Users/stapi/OneDrive/Desktop/GD32VW553/GD32VW55X_Wifi_BLE_SDK/GD32VW55x_RELEASE_V1.0.2/MSDK/lwip/lwip-2.1.2/src/apps/altcp_tls\altcp_tls_mbedtls.c ****   /* Load the certificates and private key */
 788:C:/Users/stapi/OneDrive/Desktop/GD32VW553/GD32VW55X_Wifi_BLE_SDK/GD32VW55x_RELEASE_V1.0.2/MSDK/lwip/lwip-2.1.2/src/apps/altcp_tls\altcp_tls_mbedtls.c ****   ret = mbedtls_x509_crt_parse(srvcert, cert, cert_len);
 789:C:/Users/stapi/OneDrive/Desktop/GD32VW553/GD32VW55X_Wifi_BLE_SDK/GD32VW55x_RELEASE_V1.0.2/MSDK/lwip/lwip-2.1.2/src/apps/altcp_tls\altcp_tls_mbedtls.c ****   if (ret != 0) {
 790:C:/Users/stapi/OneDrive/Desktop/GD32VW553/GD32VW55X_Wifi_BLE_SDK/GD32VW55x_RELEASE_V1.0.2/MSDK/lwip/lwip-2.1.2/src/apps/altcp_tls\altcp_tls_mbedtls.c ****     LWIP_DEBUGF(ALTCP_MBEDTLS_DEBUG, ("mbedtls_x509_crt_parse failed: %d\n", ret));
 791:C:/Users/stapi/OneDrive/Desktop/GD32VW553/GD32VW55X_Wifi_BLE_SDK/GD32VW55x_RELEASE_V1.0.2/MSDK/lwip/lwip-2.1.2/src/apps/altcp_tls\altcp_tls_mbedtls.c ****     altcp_mbedtls_free_config(conf);
 792:C:/Users/stapi/OneDrive/Desktop/GD32VW553/GD32VW55X_Wifi_BLE_SDK/GD32VW55x_RELEASE_V1.0.2/MSDK/lwip/lwip-2.1.2/src/apps/altcp_tls\altcp_tls_mbedtls.c ****     return NULL;
 793:C:/Users/stapi/OneDrive/Desktop/GD32VW553/GD32VW55X_Wifi_BLE_SDK/GD32VW55x_RELEASE_V1.0.2/MSDK/lwip/lwip-2.1.2/src/apps/altcp_tls\altcp_tls_mbedtls.c ****   }
 794:C:/Users/stapi/OneDrive/Desktop/GD32VW553/GD32VW55X_Wifi_BLE_SDK/GD32VW55x_RELEASE_V1.0.2/MSDK/lwip/lwip-2.1.2/src/apps/altcp_tls\altcp_tls_mbedtls.c **** 
 795:C:/Users/stapi/OneDrive/Desktop/GD32VW553/GD32VW55X_Wifi_BLE_SDK/GD32VW55x_RELEASE_V1.0.2/MSDK/lwip/lwip-2.1.2/src/apps/altcp_tls\altcp_tls_mbedtls.c ****   ret = mbedtls_pk_parse_key(pkey, (const unsigned char *) privkey, privkey_len, privkey_pass, priv
 796:C:/Users/stapi/OneDrive/Desktop/GD32VW553/GD32VW55X_Wifi_BLE_SDK/GD32VW55x_RELEASE_V1.0.2/MSDK/lwip/lwip-2.1.2/src/apps/altcp_tls\altcp_tls_mbedtls.c ****   if (ret != 0) {
 797:C:/Users/stapi/OneDrive/Desktop/GD32VW553/GD32VW55X_Wifi_BLE_SDK/GD32VW55x_RELEASE_V1.0.2/MSDK/lwip/lwip-2.1.2/src/apps/altcp_tls\altcp_tls_mbedtls.c ****     LWIP_DEBUGF(ALTCP_MBEDTLS_DEBUG, ("mbedtls_pk_parse_public_key failed: %d\n", ret));
 798:C:/Users/stapi/OneDrive/Desktop/GD32VW553/GD32VW55X_Wifi_BLE_SDK/GD32VW55x_RELEASE_V1.0.2/MSDK/lwip/lwip-2.1.2/src/apps/altcp_tls\altcp_tls_mbedtls.c ****     mbedtls_x509_crt_free(srvcert);
 799:C:/Users/stapi/OneDrive/Desktop/GD32VW553/GD32VW55X_Wifi_BLE_SDK/GD32VW55x_RELEASE_V1.0.2/MSDK/lwip/lwip-2.1.2/src/apps/altcp_tls\altcp_tls_mbedtls.c ****     altcp_mbedtls_free_config(conf);
 800:C:/Users/stapi/OneDrive/Desktop/GD32VW553/GD32VW55X_Wifi_BLE_SDK/GD32VW55x_RELEASE_V1.0.2/MSDK/lwip/lwip-2.1.2/src/apps/altcp_tls\altcp_tls_mbedtls.c ****     return NULL;
 801:C:/Users/stapi/OneDrive/Desktop/GD32VW553/GD32VW55X_Wifi_BLE_SDK/GD32VW55x_RELEASE_V1.0.2/MSDK/lwip/lwip-2.1.2/src/apps/altcp_tls\altcp_tls_mbedtls.c ****   }
 802:C:/Users/stapi/OneDrive/Desktop/GD32VW553/GD32VW55X_Wifi_BLE_SDK/GD32VW55x_RELEASE_V1.0.2/MSDK/lwip/lwip-2.1.2/src/apps/altcp_tls\altcp_tls_mbedtls.c **** 
 803:C:/Users/stapi/OneDrive/Desktop/GD32VW553/GD32VW55X_Wifi_BLE_SDK/GD32VW55x_RELEASE_V1.0.2/MSDK/lwip/lwip-2.1.2/src/apps/altcp_tls\altcp_tls_mbedtls.c ****   mbedtls_ssl_conf_ca_chain(&conf->conf, srvcert->next, NULL);
 804:C:/Users/stapi/OneDrive/Desktop/GD32VW553/GD32VW55X_Wifi_BLE_SDK/GD32VW55x_RELEASE_V1.0.2/MSDK/lwip/lwip-2.1.2/src/apps/altcp_tls\altcp_tls_mbedtls.c ****   ret = mbedtls_ssl_conf_own_cert(&conf->conf, srvcert, pkey);
 805:C:/Users/stapi/OneDrive/Desktop/GD32VW553/GD32VW55X_Wifi_BLE_SDK/GD32VW55x_RELEASE_V1.0.2/MSDK/lwip/lwip-2.1.2/src/apps/altcp_tls\altcp_tls_mbedtls.c ****   if (ret != 0) {
 806:C:/Users/stapi/OneDrive/Desktop/GD32VW553/GD32VW55X_Wifi_BLE_SDK/GD32VW55x_RELEASE_V1.0.2/MSDK/lwip/lwip-2.1.2/src/apps/altcp_tls\altcp_tls_mbedtls.c ****     LWIP_DEBUGF(ALTCP_MBEDTLS_DEBUG, ("mbedtls_ssl_conf_own_cert failed: %d\n", ret));
 807:C:/Users/stapi/OneDrive/Desktop/GD32VW553/GD32VW55X_Wifi_BLE_SDK/GD32VW55x_RELEASE_V1.0.2/MSDK/lwip/lwip-2.1.2/src/apps/altcp_tls\altcp_tls_mbedtls.c ****     mbedtls_x509_crt_free(srvcert);
 808:C:/Users/stapi/OneDrive/Desktop/GD32VW553/GD32VW55X_Wifi_BLE_SDK/GD32VW55x_RELEASE_V1.0.2/MSDK/lwip/lwip-2.1.2/src/apps/altcp_tls\altcp_tls_mbedtls.c ****     mbedtls_pk_free(pkey);
 809:C:/Users/stapi/OneDrive/Desktop/GD32VW553/GD32VW55X_Wifi_BLE_SDK/GD32VW55x_RELEASE_V1.0.2/MSDK/lwip/lwip-2.1.2/src/apps/altcp_tls\altcp_tls_mbedtls.c ****     altcp_mbedtls_free_config(conf);
 810:C:/Users/stapi/OneDrive/Desktop/GD32VW553/GD32VW55X_Wifi_BLE_SDK/GD32VW55x_RELEASE_V1.0.2/MSDK/lwip/lwip-2.1.2/src/apps/altcp_tls\altcp_tls_mbedtls.c ****     return NULL;
 811:C:/Users/stapi/OneDrive/Desktop/GD32VW553/GD32VW55X_Wifi_BLE_SDK/GD32VW55x_RELEASE_V1.0.2/MSDK/lwip/lwip-2.1.2/src/apps/altcp_tls\altcp_tls_mbedtls.c ****   }
 812:C:/Users/stapi/OneDrive/Desktop/GD32VW553/GD32VW55X_Wifi_BLE_SDK/GD32VW55x_RELEASE_V1.0.2/MSDK/lwip/lwip-2.1.2/src/apps/altcp_tls\altcp_tls_mbedtls.c ****   return conf;
 813:C:/Users/stapi/OneDrive/Desktop/GD32VW553/GD32VW55X_Wifi_BLE_SDK/GD32VW55x_RELEASE_V1.0.2/MSDK/lwip/lwip-2.1.2/src/apps/altcp_tls\altcp_tls_mbedtls.c **** }
 814:C:/Users/stapi/OneDrive/Desktop/GD32VW553/GD32VW55X_Wifi_BLE_SDK/GD32VW55x_RELEASE_V1.0.2/MSDK/lwip/lwip-2.1.2/src/apps/altcp_tls\altcp_tls_mbedtls.c **** 
 815:C:/Users/stapi/OneDrive/Desktop/GD32VW553/GD32VW55X_Wifi_BLE_SDK/GD32VW55x_RELEASE_V1.0.2/MSDK/lwip/lwip-2.1.2/src/apps/altcp_tls\altcp_tls_mbedtls.c **** static struct altcp_tls_config *
 816:C:/Users/stapi/OneDrive/Desktop/GD32VW553/GD32VW55X_Wifi_BLE_SDK/GD32VW55x_RELEASE_V1.0.2/MSDK/lwip/lwip-2.1.2/src/apps/altcp_tls\altcp_tls_mbedtls.c **** altcp_tls_create_config_client_common(const u8_t *ca, size_t ca_len, int is_2wayauth)
 817:C:/Users/stapi/OneDrive/Desktop/GD32VW553/GD32VW55X_Wifi_BLE_SDK/GD32VW55x_RELEASE_V1.0.2/MSDK/lwip/lwip-2.1.2/src/apps/altcp_tls\altcp_tls_mbedtls.c **** {
 818:C:/Users/stapi/OneDrive/Desktop/GD32VW553/GD32VW55X_Wifi_BLE_SDK/GD32VW55x_RELEASE_V1.0.2/MSDK/lwip/lwip-2.1.2/src/apps/altcp_tls\altcp_tls_mbedtls.c ****   int ret;
 819:C:/Users/stapi/OneDrive/Desktop/GD32VW553/GD32VW55X_Wifi_BLE_SDK/GD32VW55x_RELEASE_V1.0.2/MSDK/lwip/lwip-2.1.2/src/apps/altcp_tls\altcp_tls_mbedtls.c ****   struct altcp_tls_config *conf = altcp_tls_create_config(0, is_2wayauth, is_2wayauth, ca != NULL);
 820:C:/Users/stapi/OneDrive/Desktop/GD32VW553/GD32VW55X_Wifi_BLE_SDK/GD32VW55x_RELEASE_V1.0.2/MSDK/lwip/lwip-2.1.2/src/apps/altcp_tls\altcp_tls_mbedtls.c ****   if (conf == NULL) {
 821:C:/Users/stapi/OneDrive/Desktop/GD32VW553/GD32VW55X_Wifi_BLE_SDK/GD32VW55x_RELEASE_V1.0.2/MSDK/lwip/lwip-2.1.2/src/apps/altcp_tls\altcp_tls_mbedtls.c ****     return NULL;
 822:C:/Users/stapi/OneDrive/Desktop/GD32VW553/GD32VW55X_Wifi_BLE_SDK/GD32VW55x_RELEASE_V1.0.2/MSDK/lwip/lwip-2.1.2/src/apps/altcp_tls\altcp_tls_mbedtls.c ****   }
 823:C:/Users/stapi/OneDrive/Desktop/GD32VW553/GD32VW55X_Wifi_BLE_SDK/GD32VW55x_RELEASE_V1.0.2/MSDK/lwip/lwip-2.1.2/src/apps/altcp_tls\altcp_tls_mbedtls.c **** 
 824:C:/Users/stapi/OneDrive/Desktop/GD32VW553/GD32VW55X_Wifi_BLE_SDK/GD32VW55x_RELEASE_V1.0.2/MSDK/lwip/lwip-2.1.2/src/apps/altcp_tls\altcp_tls_mbedtls.c ****   /* Initialize the CA certificate if provided
 825:C:/Users/stapi/OneDrive/Desktop/GD32VW553/GD32VW55X_Wifi_BLE_SDK/GD32VW55x_RELEASE_V1.0.2/MSDK/lwip/lwip-2.1.2/src/apps/altcp_tls\altcp_tls_mbedtls.c ****    * CA certificate is optional (to save memory) but recommended for production environment
 826:C:/Users/stapi/OneDrive/Desktop/GD32VW553/GD32VW55X_Wifi_BLE_SDK/GD32VW55x_RELEASE_V1.0.2/MSDK/lwip/lwip-2.1.2/src/apps/altcp_tls\altcp_tls_mbedtls.c ****    * Without CA certificate, connection will be prone to man-in-the-middle attacks */
 827:C:/Users/stapi/OneDrive/Desktop/GD32VW553/GD32VW55X_Wifi_BLE_SDK/GD32VW55x_RELEASE_V1.0.2/MSDK/lwip/lwip-2.1.2/src/apps/altcp_tls\altcp_tls_mbedtls.c ****   if (ca) {
 828:C:/Users/stapi/OneDrive/Desktop/GD32VW553/GD32VW55X_Wifi_BLE_SDK/GD32VW55x_RELEASE_V1.0.2/MSDK/lwip/lwip-2.1.2/src/apps/altcp_tls\altcp_tls_mbedtls.c ****     mbedtls_x509_crt_init(conf->ca);
 829:C:/Users/stapi/OneDrive/Desktop/GD32VW553/GD32VW55X_Wifi_BLE_SDK/GD32VW55x_RELEASE_V1.0.2/MSDK/lwip/lwip-2.1.2/src/apps/altcp_tls\altcp_tls_mbedtls.c ****     ret = mbedtls_x509_crt_parse(conf->ca, ca, ca_len);
 830:C:/Users/stapi/OneDrive/Desktop/GD32VW553/GD32VW55X_Wifi_BLE_SDK/GD32VW55x_RELEASE_V1.0.2/MSDK/lwip/lwip-2.1.2/src/apps/altcp_tls\altcp_tls_mbedtls.c ****     if (ret != 0) {
 831:C:/Users/stapi/OneDrive/Desktop/GD32VW553/GD32VW55X_Wifi_BLE_SDK/GD32VW55x_RELEASE_V1.0.2/MSDK/lwip/lwip-2.1.2/src/apps/altcp_tls\altcp_tls_mbedtls.c ****       LWIP_DEBUGF(ALTCP_MBEDTLS_DEBUG, ("mbedtls_x509_crt_parse ca failed: %d 0x%x", ret, -1*ret));
 832:C:/Users/stapi/OneDrive/Desktop/GD32VW553/GD32VW55X_Wifi_BLE_SDK/GD32VW55x_RELEASE_V1.0.2/MSDK/lwip/lwip-2.1.2/src/apps/altcp_tls\altcp_tls_mbedtls.c ****       altcp_mbedtls_free_config(conf);
 833:C:/Users/stapi/OneDrive/Desktop/GD32VW553/GD32VW55X_Wifi_BLE_SDK/GD32VW55x_RELEASE_V1.0.2/MSDK/lwip/lwip-2.1.2/src/apps/altcp_tls\altcp_tls_mbedtls.c ****       return NULL;
 834:C:/Users/stapi/OneDrive/Desktop/GD32VW553/GD32VW55X_Wifi_BLE_SDK/GD32VW55x_RELEASE_V1.0.2/MSDK/lwip/lwip-2.1.2/src/apps/altcp_tls\altcp_tls_mbedtls.c ****     }
 835:C:/Users/stapi/OneDrive/Desktop/GD32VW553/GD32VW55X_Wifi_BLE_SDK/GD32VW55x_RELEASE_V1.0.2/MSDK/lwip/lwip-2.1.2/src/apps/altcp_tls\altcp_tls_mbedtls.c **** 
 836:C:/Users/stapi/OneDrive/Desktop/GD32VW553/GD32VW55X_Wifi_BLE_SDK/GD32VW55x_RELEASE_V1.0.2/MSDK/lwip/lwip-2.1.2/src/apps/altcp_tls\altcp_tls_mbedtls.c ****     mbedtls_ssl_conf_ca_chain(&conf->conf, conf->ca, NULL);
 837:C:/Users/stapi/OneDrive/Desktop/GD32VW553/GD32VW55X_Wifi_BLE_SDK/GD32VW55x_RELEASE_V1.0.2/MSDK/lwip/lwip-2.1.2/src/apps/altcp_tls\altcp_tls_mbedtls.c ****   }
 838:C:/Users/stapi/OneDrive/Desktop/GD32VW553/GD32VW55X_Wifi_BLE_SDK/GD32VW55x_RELEASE_V1.0.2/MSDK/lwip/lwip-2.1.2/src/apps/altcp_tls\altcp_tls_mbedtls.c ****   return conf;
 839:C:/Users/stapi/OneDrive/Desktop/GD32VW553/GD32VW55X_Wifi_BLE_SDK/GD32VW55x_RELEASE_V1.0.2/MSDK/lwip/lwip-2.1.2/src/apps/altcp_tls\altcp_tls_mbedtls.c **** }
 840:C:/Users/stapi/OneDrive/Desktop/GD32VW553/GD32VW55X_Wifi_BLE_SDK/GD32VW55x_RELEASE_V1.0.2/MSDK/lwip/lwip-2.1.2/src/apps/altcp_tls\altcp_tls_mbedtls.c **** 
 841:C:/Users/stapi/OneDrive/Desktop/GD32VW553/GD32VW55X_Wifi_BLE_SDK/GD32VW55x_RELEASE_V1.0.2/MSDK/lwip/lwip-2.1.2/src/apps/altcp_tls\altcp_tls_mbedtls.c **** struct altcp_tls_config *
 842:C:/Users/stapi/OneDrive/Desktop/GD32VW553/GD32VW55X_Wifi_BLE_SDK/GD32VW55x_RELEASE_V1.0.2/MSDK/lwip/lwip-2.1.2/src/apps/altcp_tls\altcp_tls_mbedtls.c **** altcp_tls_create_config_client(const u8_t *ca, size_t ca_len)
 843:C:/Users/stapi/OneDrive/Desktop/GD32VW553/GD32VW55X_Wifi_BLE_SDK/GD32VW55x_RELEASE_V1.0.2/MSDK/lwip/lwip-2.1.2/src/apps/altcp_tls\altcp_tls_mbedtls.c **** {
 844:C:/Users/stapi/OneDrive/Desktop/GD32VW553/GD32VW55X_Wifi_BLE_SDK/GD32VW55x_RELEASE_V1.0.2/MSDK/lwip/lwip-2.1.2/src/apps/altcp_tls\altcp_tls_mbedtls.c ****   return altcp_tls_create_config_client_common(ca, ca_len, 0);
 845:C:/Users/stapi/OneDrive/Desktop/GD32VW553/GD32VW55X_Wifi_BLE_SDK/GD32VW55x_RELEASE_V1.0.2/MSDK/lwip/lwip-2.1.2/src/apps/altcp_tls\altcp_tls_mbedtls.c **** }
 846:C:/Users/stapi/OneDrive/Desktop/GD32VW553/GD32VW55X_Wifi_BLE_SDK/GD32VW55x_RELEASE_V1.0.2/MSDK/lwip/lwip-2.1.2/src/apps/altcp_tls\altcp_tls_mbedtls.c **** 
 847:C:/Users/stapi/OneDrive/Desktop/GD32VW553/GD32VW55X_Wifi_BLE_SDK/GD32VW55x_RELEASE_V1.0.2/MSDK/lwip/lwip-2.1.2/src/apps/altcp_tls\altcp_tls_mbedtls.c **** /* FT TAG */
 848:C:/Users/stapi/OneDrive/Desktop/GD32VW553/GD32VW55X_Wifi_BLE_SDK/GD32VW55x_RELEASE_V1.0.2/MSDK/lwip/lwip-2.1.2/src/apps/altcp_tls\altcp_tls_mbedtls.c **** struct altcp_tls_config *
 849:C:/Users/stapi/OneDrive/Desktop/GD32VW553/GD32VW55X_Wifi_BLE_SDK/GD32VW55x_RELEASE_V1.0.2/MSDK/lwip/lwip-2.1.2/src/apps/altcp_tls\altcp_tls_mbedtls.c **** altcp_tls_create_config_client_psk(const u8_t *psk, size_t psk_len, const u8_t *psk_identity, size_
 850:C:/Users/stapi/OneDrive/Desktop/GD32VW553/GD32VW55X_Wifi_BLE_SDK/GD32VW55x_RELEASE_V1.0.2/MSDK/lwip/lwip-2.1.2/src/apps/altcp_tls\altcp_tls_mbedtls.c **** {
 851:C:/Users/stapi/OneDrive/Desktop/GD32VW553/GD32VW55X_Wifi_BLE_SDK/GD32VW55x_RELEASE_V1.0.2/MSDK/lwip/lwip-2.1.2/src/apps/altcp_tls\altcp_tls_mbedtls.c ****   int ret;
 852:C:/Users/stapi/OneDrive/Desktop/GD32VW553/GD32VW55X_Wifi_BLE_SDK/GD32VW55x_RELEASE_V1.0.2/MSDK/lwip/lwip-2.1.2/src/apps/altcp_tls\altcp_tls_mbedtls.c ****   struct altcp_tls_config *conf = altcp_tls_create_config(0, 0, 0, 0);
 853:C:/Users/stapi/OneDrive/Desktop/GD32VW553/GD32VW55X_Wifi_BLE_SDK/GD32VW55x_RELEASE_V1.0.2/MSDK/lwip/lwip-2.1.2/src/apps/altcp_tls\altcp_tls_mbedtls.c ****   if (conf == NULL) {
 854:C:/Users/stapi/OneDrive/Desktop/GD32VW553/GD32VW55X_Wifi_BLE_SDK/GD32VW55x_RELEASE_V1.0.2/MSDK/lwip/lwip-2.1.2/src/apps/altcp_tls\altcp_tls_mbedtls.c ****     return NULL;
 855:C:/Users/stapi/OneDrive/Desktop/GD32VW553/GD32VW55X_Wifi_BLE_SDK/GD32VW55x_RELEASE_V1.0.2/MSDK/lwip/lwip-2.1.2/src/apps/altcp_tls\altcp_tls_mbedtls.c ****   }
 856:C:/Users/stapi/OneDrive/Desktop/GD32VW553/GD32VW55X_Wifi_BLE_SDK/GD32VW55x_RELEASE_V1.0.2/MSDK/lwip/lwip-2.1.2/src/apps/altcp_tls\altcp_tls_mbedtls.c **** 
 857:C:/Users/stapi/OneDrive/Desktop/GD32VW553/GD32VW55X_Wifi_BLE_SDK/GD32VW55x_RELEASE_V1.0.2/MSDK/lwip/lwip-2.1.2/src/apps/altcp_tls\altcp_tls_mbedtls.c ****   /* Initialize the pre-shared key if provided */
 858:C:/Users/stapi/OneDrive/Desktop/GD32VW553/GD32VW55X_Wifi_BLE_SDK/GD32VW55x_RELEASE_V1.0.2/MSDK/lwip/lwip-2.1.2/src/apps/altcp_tls\altcp_tls_mbedtls.c ****   if (!psk || !psk_identity) {
 859:C:/Users/stapi/OneDrive/Desktop/GD32VW553/GD32VW55X_Wifi_BLE_SDK/GD32VW55x_RELEASE_V1.0.2/MSDK/lwip/lwip-2.1.2/src/apps/altcp_tls\altcp_tls_mbedtls.c ****     LWIP_DEBUGF(ALTCP_MBEDTLS_DEBUG, ("unvalid pre-shared key"));
 860:C:/Users/stapi/OneDrive/Desktop/GD32VW553/GD32VW55X_Wifi_BLE_SDK/GD32VW55x_RELEASE_V1.0.2/MSDK/lwip/lwip-2.1.2/src/apps/altcp_tls\altcp_tls_mbedtls.c ****   } else {
 861:C:/Users/stapi/OneDrive/Desktop/GD32VW553/GD32VW55X_Wifi_BLE_SDK/GD32VW55x_RELEASE_V1.0.2/MSDK/lwip/lwip-2.1.2/src/apps/altcp_tls\altcp_tls_mbedtls.c ****     ret = mbedtls_ssl_conf_psk(&conf->conf, psk, psk_len, psk_identity, psk_identity_len);
 862:C:/Users/stapi/OneDrive/Desktop/GD32VW553/GD32VW55X_Wifi_BLE_SDK/GD32VW55x_RELEASE_V1.0.2/MSDK/lwip/lwip-2.1.2/src/apps/altcp_tls\altcp_tls_mbedtls.c ****     if (ret != 0) {
 863:C:/Users/stapi/OneDrive/Desktop/GD32VW553/GD32VW55X_Wifi_BLE_SDK/GD32VW55x_RELEASE_V1.0.2/MSDK/lwip/lwip-2.1.2/src/apps/altcp_tls\altcp_tls_mbedtls.c ****       LWIP_DEBUGF(ALTCP_MBEDTLS_DEBUG, ("mbedtls_ssl_conf_psk pre-shared key set failed: %d 0x%x", 
 864:C:/Users/stapi/OneDrive/Desktop/GD32VW553/GD32VW55X_Wifi_BLE_SDK/GD32VW55x_RELEASE_V1.0.2/MSDK/lwip/lwip-2.1.2/src/apps/altcp_tls\altcp_tls_mbedtls.c ****       altcp_mbedtls_free_config(conf);
 865:C:/Users/stapi/OneDrive/Desktop/GD32VW553/GD32VW55X_Wifi_BLE_SDK/GD32VW55x_RELEASE_V1.0.2/MSDK/lwip/lwip-2.1.2/src/apps/altcp_tls\altcp_tls_mbedtls.c ****       return NULL;
 866:C:/Users/stapi/OneDrive/Desktop/GD32VW553/GD32VW55X_Wifi_BLE_SDK/GD32VW55x_RELEASE_V1.0.2/MSDK/lwip/lwip-2.1.2/src/apps/altcp_tls\altcp_tls_mbedtls.c ****     }
 867:C:/Users/stapi/OneDrive/Desktop/GD32VW553/GD32VW55X_Wifi_BLE_SDK/GD32VW55x_RELEASE_V1.0.2/MSDK/lwip/lwip-2.1.2/src/apps/altcp_tls\altcp_tls_mbedtls.c ****   }
 868:C:/Users/stapi/OneDrive/Desktop/GD32VW553/GD32VW55X_Wifi_BLE_SDK/GD32VW55x_RELEASE_V1.0.2/MSDK/lwip/lwip-2.1.2/src/apps/altcp_tls\altcp_tls_mbedtls.c ****   return conf;
 869:C:/Users/stapi/OneDrive/Desktop/GD32VW553/GD32VW55X_Wifi_BLE_SDK/GD32VW55x_RELEASE_V1.0.2/MSDK/lwip/lwip-2.1.2/src/apps/altcp_tls\altcp_tls_mbedtls.c **** }
 870:C:/Users/stapi/OneDrive/Desktop/GD32VW553/GD32VW55X_Wifi_BLE_SDK/GD32VW55x_RELEASE_V1.0.2/MSDK/lwip/lwip-2.1.2/src/apps/altcp_tls\altcp_tls_mbedtls.c **** /* FT TAG */
 871:C:/Users/stapi/OneDrive/Desktop/GD32VW553/GD32VW55X_Wifi_BLE_SDK/GD32VW55x_RELEASE_V1.0.2/MSDK/lwip/lwip-2.1.2/src/apps/altcp_tls\altcp_tls_mbedtls.c **** 
 872:C:/Users/stapi/OneDrive/Desktop/GD32VW553/GD32VW55X_Wifi_BLE_SDK/GD32VW55x_RELEASE_V1.0.2/MSDK/lwip/lwip-2.1.2/src/apps/altcp_tls\altcp_tls_mbedtls.c **** struct altcp_tls_config *
 873:C:/Users/stapi/OneDrive/Desktop/GD32VW553/GD32VW55X_Wifi_BLE_SDK/GD32VW55x_RELEASE_V1.0.2/MSDK/lwip/lwip-2.1.2/src/apps/altcp_tls\altcp_tls_mbedtls.c **** altcp_tls_create_config_client_2wayauth(const u8_t *ca, size_t ca_len, const u8_t *privkey, size_t 
 874:C:/Users/stapi/OneDrive/Desktop/GD32VW553/GD32VW55X_Wifi_BLE_SDK/GD32VW55x_RELEASE_V1.0.2/MSDK/lwip/lwip-2.1.2/src/apps/altcp_tls\altcp_tls_mbedtls.c ****                                         const u8_t *privkey_pass, size_t privkey_pass_len,
 875:C:/Users/stapi/OneDrive/Desktop/GD32VW553/GD32VW55X_Wifi_BLE_SDK/GD32VW55x_RELEASE_V1.0.2/MSDK/lwip/lwip-2.1.2/src/apps/altcp_tls\altcp_tls_mbedtls.c ****                                         const u8_t *cert, size_t cert_len)
 876:C:/Users/stapi/OneDrive/Desktop/GD32VW553/GD32VW55X_Wifi_BLE_SDK/GD32VW55x_RELEASE_V1.0.2/MSDK/lwip/lwip-2.1.2/src/apps/altcp_tls\altcp_tls_mbedtls.c **** {
 877:C:/Users/stapi/OneDrive/Desktop/GD32VW553/GD32VW55X_Wifi_BLE_SDK/GD32VW55x_RELEASE_V1.0.2/MSDK/lwip/lwip-2.1.2/src/apps/altcp_tls\altcp_tls_mbedtls.c ****   int ret;
 878:C:/Users/stapi/OneDrive/Desktop/GD32VW553/GD32VW55X_Wifi_BLE_SDK/GD32VW55x_RELEASE_V1.0.2/MSDK/lwip/lwip-2.1.2/src/apps/altcp_tls\altcp_tls_mbedtls.c ****   struct altcp_tls_config *conf;
 879:C:/Users/stapi/OneDrive/Desktop/GD32VW553/GD32VW55X_Wifi_BLE_SDK/GD32VW55x_RELEASE_V1.0.2/MSDK/lwip/lwip-2.1.2/src/apps/altcp_tls\altcp_tls_mbedtls.c **** 
 880:C:/Users/stapi/OneDrive/Desktop/GD32VW553/GD32VW55X_Wifi_BLE_SDK/GD32VW55x_RELEASE_V1.0.2/MSDK/lwip/lwip-2.1.2/src/apps/altcp_tls\altcp_tls_mbedtls.c ****   if (!cert || !privkey) {
 881:C:/Users/stapi/OneDrive/Desktop/GD32VW553/GD32VW55X_Wifi_BLE_SDK/GD32VW55x_RELEASE_V1.0.2/MSDK/lwip/lwip-2.1.2/src/apps/altcp_tls\altcp_tls_mbedtls.c ****     LWIP_DEBUGF(ALTCP_MBEDTLS_DEBUG, ("altcp_tls_create_config_client_2wayauth: certificate and pri
 882:C:/Users/stapi/OneDrive/Desktop/GD32VW553/GD32VW55X_Wifi_BLE_SDK/GD32VW55x_RELEASE_V1.0.2/MSDK/lwip/lwip-2.1.2/src/apps/altcp_tls\altcp_tls_mbedtls.c ****     return NULL;
 883:C:/Users/stapi/OneDrive/Desktop/GD32VW553/GD32VW55X_Wifi_BLE_SDK/GD32VW55x_RELEASE_V1.0.2/MSDK/lwip/lwip-2.1.2/src/apps/altcp_tls\altcp_tls_mbedtls.c ****   }
 884:C:/Users/stapi/OneDrive/Desktop/GD32VW553/GD32VW55X_Wifi_BLE_SDK/GD32VW55x_RELEASE_V1.0.2/MSDK/lwip/lwip-2.1.2/src/apps/altcp_tls\altcp_tls_mbedtls.c **** 
 885:C:/Users/stapi/OneDrive/Desktop/GD32VW553/GD32VW55X_Wifi_BLE_SDK/GD32VW55x_RELEASE_V1.0.2/MSDK/lwip/lwip-2.1.2/src/apps/altcp_tls\altcp_tls_mbedtls.c ****   conf = altcp_tls_create_config_client_common(ca, ca_len, 1);
 886:C:/Users/stapi/OneDrive/Desktop/GD32VW553/GD32VW55X_Wifi_BLE_SDK/GD32VW55x_RELEASE_V1.0.2/MSDK/lwip/lwip-2.1.2/src/apps/altcp_tls\altcp_tls_mbedtls.c ****   if (conf == NULL) {
 887:C:/Users/stapi/OneDrive/Desktop/GD32VW553/GD32VW55X_Wifi_BLE_SDK/GD32VW55x_RELEASE_V1.0.2/MSDK/lwip/lwip-2.1.2/src/apps/altcp_tls\altcp_tls_mbedtls.c ****     return NULL;
 888:C:/Users/stapi/OneDrive/Desktop/GD32VW553/GD32VW55X_Wifi_BLE_SDK/GD32VW55x_RELEASE_V1.0.2/MSDK/lwip/lwip-2.1.2/src/apps/altcp_tls\altcp_tls_mbedtls.c ****   }
 889:C:/Users/stapi/OneDrive/Desktop/GD32VW553/GD32VW55X_Wifi_BLE_SDK/GD32VW55x_RELEASE_V1.0.2/MSDK/lwip/lwip-2.1.2/src/apps/altcp_tls\altcp_tls_mbedtls.c **** 
 890:C:/Users/stapi/OneDrive/Desktop/GD32VW553/GD32VW55X_Wifi_BLE_SDK/GD32VW55x_RELEASE_V1.0.2/MSDK/lwip/lwip-2.1.2/src/apps/altcp_tls\altcp_tls_mbedtls.c ****   /* Initialize the client certificate and corresponding private key */
 891:C:/Users/stapi/OneDrive/Desktop/GD32VW553/GD32VW55X_Wifi_BLE_SDK/GD32VW55x_RELEASE_V1.0.2/MSDK/lwip/lwip-2.1.2/src/apps/altcp_tls\altcp_tls_mbedtls.c ****   mbedtls_x509_crt_init(conf->cert);
 892:C:/Users/stapi/OneDrive/Desktop/GD32VW553/GD32VW55X_Wifi_BLE_SDK/GD32VW55x_RELEASE_V1.0.2/MSDK/lwip/lwip-2.1.2/src/apps/altcp_tls\altcp_tls_mbedtls.c ****   ret = mbedtls_x509_crt_parse(conf->cert, cert, cert_len);
 893:C:/Users/stapi/OneDrive/Desktop/GD32VW553/GD32VW55X_Wifi_BLE_SDK/GD32VW55x_RELEASE_V1.0.2/MSDK/lwip/lwip-2.1.2/src/apps/altcp_tls\altcp_tls_mbedtls.c ****   if (ret != 0) {
 894:C:/Users/stapi/OneDrive/Desktop/GD32VW553/GD32VW55X_Wifi_BLE_SDK/GD32VW55x_RELEASE_V1.0.2/MSDK/lwip/lwip-2.1.2/src/apps/altcp_tls\altcp_tls_mbedtls.c ****     LWIP_DEBUGF(ALTCP_MBEDTLS_DEBUG, ("mbedtls_x509_crt_parse cert failed: %d 0x%x", ret, -1*ret));
 895:C:/Users/stapi/OneDrive/Desktop/GD32VW553/GD32VW55X_Wifi_BLE_SDK/GD32VW55x_RELEASE_V1.0.2/MSDK/lwip/lwip-2.1.2/src/apps/altcp_tls\altcp_tls_mbedtls.c ****     altcp_mbedtls_free_config(conf->cert);
 896:C:/Users/stapi/OneDrive/Desktop/GD32VW553/GD32VW55X_Wifi_BLE_SDK/GD32VW55x_RELEASE_V1.0.2/MSDK/lwip/lwip-2.1.2/src/apps/altcp_tls\altcp_tls_mbedtls.c ****     return NULL;
 897:C:/Users/stapi/OneDrive/Desktop/GD32VW553/GD32VW55X_Wifi_BLE_SDK/GD32VW55x_RELEASE_V1.0.2/MSDK/lwip/lwip-2.1.2/src/apps/altcp_tls\altcp_tls_mbedtls.c ****   }
 898:C:/Users/stapi/OneDrive/Desktop/GD32VW553/GD32VW55X_Wifi_BLE_SDK/GD32VW55x_RELEASE_V1.0.2/MSDK/lwip/lwip-2.1.2/src/apps/altcp_tls\altcp_tls_mbedtls.c **** 
 899:C:/Users/stapi/OneDrive/Desktop/GD32VW553/GD32VW55X_Wifi_BLE_SDK/GD32VW55x_RELEASE_V1.0.2/MSDK/lwip/lwip-2.1.2/src/apps/altcp_tls\altcp_tls_mbedtls.c ****   mbedtls_pk_init(conf->pkey);
 900:C:/Users/stapi/OneDrive/Desktop/GD32VW553/GD32VW55X_Wifi_BLE_SDK/GD32VW55x_RELEASE_V1.0.2/MSDK/lwip/lwip-2.1.2/src/apps/altcp_tls\altcp_tls_mbedtls.c ****   ret = mbedtls_pk_parse_key(conf->pkey, privkey, privkey_len, privkey_pass, privkey_pass_len);
 901:C:/Users/stapi/OneDrive/Desktop/GD32VW553/GD32VW55X_Wifi_BLE_SDK/GD32VW55x_RELEASE_V1.0.2/MSDK/lwip/lwip-2.1.2/src/apps/altcp_tls\altcp_tls_mbedtls.c ****   if (ret != 0) {
 902:C:/Users/stapi/OneDrive/Desktop/GD32VW553/GD32VW55X_Wifi_BLE_SDK/GD32VW55x_RELEASE_V1.0.2/MSDK/lwip/lwip-2.1.2/src/apps/altcp_tls\altcp_tls_mbedtls.c ****     LWIP_DEBUGF(ALTCP_MBEDTLS_DEBUG, ("mbedtls_pk_parse_key failed: %d 0x%x", ret, -1*ret));
 903:C:/Users/stapi/OneDrive/Desktop/GD32VW553/GD32VW55X_Wifi_BLE_SDK/GD32VW55x_RELEASE_V1.0.2/MSDK/lwip/lwip-2.1.2/src/apps/altcp_tls\altcp_tls_mbedtls.c ****     altcp_mbedtls_free_config(conf);
 904:C:/Users/stapi/OneDrive/Desktop/GD32VW553/GD32VW55X_Wifi_BLE_SDK/GD32VW55x_RELEASE_V1.0.2/MSDK/lwip/lwip-2.1.2/src/apps/altcp_tls\altcp_tls_mbedtls.c ****     return NULL;
 905:C:/Users/stapi/OneDrive/Desktop/GD32VW553/GD32VW55X_Wifi_BLE_SDK/GD32VW55x_RELEASE_V1.0.2/MSDK/lwip/lwip-2.1.2/src/apps/altcp_tls\altcp_tls_mbedtls.c ****   }
 906:C:/Users/stapi/OneDrive/Desktop/GD32VW553/GD32VW55X_Wifi_BLE_SDK/GD32VW55x_RELEASE_V1.0.2/MSDK/lwip/lwip-2.1.2/src/apps/altcp_tls\altcp_tls_mbedtls.c **** 
 907:C:/Users/stapi/OneDrive/Desktop/GD32VW553/GD32VW55X_Wifi_BLE_SDK/GD32VW55x_RELEASE_V1.0.2/MSDK/lwip/lwip-2.1.2/src/apps/altcp_tls\altcp_tls_mbedtls.c ****   ret = mbedtls_ssl_conf_own_cert(&conf->conf, conf->cert, conf->pkey);
 908:C:/Users/stapi/OneDrive/Desktop/GD32VW553/GD32VW55X_Wifi_BLE_SDK/GD32VW55x_RELEASE_V1.0.2/MSDK/lwip/lwip-2.1.2/src/apps/altcp_tls\altcp_tls_mbedtls.c ****   if (ret != 0) {
 909:C:/Users/stapi/OneDrive/Desktop/GD32VW553/GD32VW55X_Wifi_BLE_SDK/GD32VW55x_RELEASE_V1.0.2/MSDK/lwip/lwip-2.1.2/src/apps/altcp_tls\altcp_tls_mbedtls.c ****     LWIP_DEBUGF(ALTCP_MBEDTLS_DEBUG, ("mbedtls_ssl_conf_own_cert failed: %d 0x%x", ret, -1*ret));
 910:C:/Users/stapi/OneDrive/Desktop/GD32VW553/GD32VW55X_Wifi_BLE_SDK/GD32VW55x_RELEASE_V1.0.2/MSDK/lwip/lwip-2.1.2/src/apps/altcp_tls\altcp_tls_mbedtls.c ****     altcp_mbedtls_free_config(conf);
 911:C:/Users/stapi/OneDrive/Desktop/GD32VW553/GD32VW55X_Wifi_BLE_SDK/GD32VW55x_RELEASE_V1.0.2/MSDK/lwip/lwip-2.1.2/src/apps/altcp_tls\altcp_tls_mbedtls.c ****     return NULL;
 912:C:/Users/stapi/OneDrive/Desktop/GD32VW553/GD32VW55X_Wifi_BLE_SDK/GD32VW55x_RELEASE_V1.0.2/MSDK/lwip/lwip-2.1.2/src/apps/altcp_tls\altcp_tls_mbedtls.c ****   }
 913:C:/Users/stapi/OneDrive/Desktop/GD32VW553/GD32VW55X_Wifi_BLE_SDK/GD32VW55x_RELEASE_V1.0.2/MSDK/lwip/lwip-2.1.2/src/apps/altcp_tls\altcp_tls_mbedtls.c **** 
 914:C:/Users/stapi/OneDrive/Desktop/GD32VW553/GD32VW55X_Wifi_BLE_SDK/GD32VW55x_RELEASE_V1.0.2/MSDK/lwip/lwip-2.1.2/src/apps/altcp_tls\altcp_tls_mbedtls.c ****   return conf;
 915:C:/Users/stapi/OneDrive/Desktop/GD32VW553/GD32VW55X_Wifi_BLE_SDK/GD32VW55x_RELEASE_V1.0.2/MSDK/lwip/lwip-2.1.2/src/apps/altcp_tls\altcp_tls_mbedtls.c **** }
 916:C:/Users/stapi/OneDrive/Desktop/GD32VW553/GD32VW55X_Wifi_BLE_SDK/GD32VW55x_RELEASE_V1.0.2/MSDK/lwip/lwip-2.1.2/src/apps/altcp_tls\altcp_tls_mbedtls.c **** 
 917:C:/Users/stapi/OneDrive/Desktop/GD32VW553/GD32VW55X_Wifi_BLE_SDK/GD32VW55x_RELEASE_V1.0.2/MSDK/lwip/lwip-2.1.2/src/apps/altcp_tls\altcp_tls_mbedtls.c **** void
 918:C:/Users/stapi/OneDrive/Desktop/GD32VW553/GD32VW55X_Wifi_BLE_SDK/GD32VW55x_RELEASE_V1.0.2/MSDK/lwip/lwip-2.1.2/src/apps/altcp_tls\altcp_tls_mbedtls.c **** altcp_tls_free_config(struct altcp_tls_config *conf)
 919:C:/Users/stapi/OneDrive/Desktop/GD32VW553/GD32VW55X_Wifi_BLE_SDK/GD32VW55x_RELEASE_V1.0.2/MSDK/lwip/lwip-2.1.2/src/apps/altcp_tls\altcp_tls_mbedtls.c **** {
 920:C:/Users/stapi/OneDrive/Desktop/GD32VW553/GD32VW55X_Wifi_BLE_SDK/GD32VW55x_RELEASE_V1.0.2/MSDK/lwip/lwip-2.1.2/src/apps/altcp_tls\altcp_tls_mbedtls.c ****   if (conf->pkey) {
 921:C:/Users/stapi/OneDrive/Desktop/GD32VW553/GD32VW55X_Wifi_BLE_SDK/GD32VW55x_RELEASE_V1.0.2/MSDK/lwip/lwip-2.1.2/src/apps/altcp_tls\altcp_tls_mbedtls.c ****     mbedtls_pk_free(conf->pkey);
 922:C:/Users/stapi/OneDrive/Desktop/GD32VW553/GD32VW55X_Wifi_BLE_SDK/GD32VW55x_RELEASE_V1.0.2/MSDK/lwip/lwip-2.1.2/src/apps/altcp_tls\altcp_tls_mbedtls.c ****   }
 923:C:/Users/stapi/OneDrive/Desktop/GD32VW553/GD32VW55X_Wifi_BLE_SDK/GD32VW55x_RELEASE_V1.0.2/MSDK/lwip/lwip-2.1.2/src/apps/altcp_tls\altcp_tls_mbedtls.c ****   if (conf->cert) {
 924:C:/Users/stapi/OneDrive/Desktop/GD32VW553/GD32VW55X_Wifi_BLE_SDK/GD32VW55x_RELEASE_V1.0.2/MSDK/lwip/lwip-2.1.2/src/apps/altcp_tls\altcp_tls_mbedtls.c ****     mbedtls_x509_crt_free(conf->cert);
 925:C:/Users/stapi/OneDrive/Desktop/GD32VW553/GD32VW55X_Wifi_BLE_SDK/GD32VW55x_RELEASE_V1.0.2/MSDK/lwip/lwip-2.1.2/src/apps/altcp_tls\altcp_tls_mbedtls.c ****   }
 926:C:/Users/stapi/OneDrive/Desktop/GD32VW553/GD32VW55X_Wifi_BLE_SDK/GD32VW55x_RELEASE_V1.0.2/MSDK/lwip/lwip-2.1.2/src/apps/altcp_tls\altcp_tls_mbedtls.c ****   if (conf->ca) {
 927:C:/Users/stapi/OneDrive/Desktop/GD32VW553/GD32VW55X_Wifi_BLE_SDK/GD32VW55x_RELEASE_V1.0.2/MSDK/lwip/lwip-2.1.2/src/apps/altcp_tls\altcp_tls_mbedtls.c ****     mbedtls_x509_crt_free(conf->ca);
 928:C:/Users/stapi/OneDrive/Desktop/GD32VW553/GD32VW55X_Wifi_BLE_SDK/GD32VW55x_RELEASE_V1.0.2/MSDK/lwip/lwip-2.1.2/src/apps/altcp_tls\altcp_tls_mbedtls.c ****   }
 929:C:/Users/stapi/OneDrive/Desktop/GD32VW553/GD32VW55X_Wifi_BLE_SDK/GD32VW55x_RELEASE_V1.0.2/MSDK/lwip/lwip-2.1.2/src/apps/altcp_tls\altcp_tls_mbedtls.c **** /* FT TAG */
 930:C:/Users/stapi/OneDrive/Desktop/GD32VW553/GD32VW55X_Wifi_BLE_SDK/GD32VW55x_RELEASE_V1.0.2/MSDK/lwip/lwip-2.1.2/src/apps/altcp_tls\altcp_tls_mbedtls.c ****   mbedtls_ssl_config_free(&conf->conf);
 931:C:/Users/stapi/OneDrive/Desktop/GD32VW553/GD32VW55X_Wifi_BLE_SDK/GD32VW55x_RELEASE_V1.0.2/MSDK/lwip/lwip-2.1.2/src/apps/altcp_tls\altcp_tls_mbedtls.c **** /* FT TAG */
 932:C:/Users/stapi/OneDrive/Desktop/GD32VW553/GD32VW55X_Wifi_BLE_SDK/GD32VW55x_RELEASE_V1.0.2/MSDK/lwip/lwip-2.1.2/src/apps/altcp_tls\altcp_tls_mbedtls.c ****   altcp_mbedtls_free_config(conf);
 933:C:/Users/stapi/OneDrive/Desktop/GD32VW553/GD32VW55X_Wifi_BLE_SDK/GD32VW55x_RELEASE_V1.0.2/MSDK/lwip/lwip-2.1.2/src/apps/altcp_tls\altcp_tls_mbedtls.c **** }
 934:C:/Users/stapi/OneDrive/Desktop/GD32VW553/GD32VW55X_Wifi_BLE_SDK/GD32VW55x_RELEASE_V1.0.2/MSDK/lwip/lwip-2.1.2/src/apps/altcp_tls\altcp_tls_mbedtls.c **** 
 935:C:/Users/stapi/OneDrive/Desktop/GD32VW553/GD32VW55X_Wifi_BLE_SDK/GD32VW55x_RELEASE_V1.0.2/MSDK/lwip/lwip-2.1.2/src/apps/altcp_tls\altcp_tls_mbedtls.c **** /* "virtual" functions */
 936:C:/Users/stapi/OneDrive/Desktop/GD32VW553/GD32VW55X_Wifi_BLE_SDK/GD32VW55x_RELEASE_V1.0.2/MSDK/lwip/lwip-2.1.2/src/apps/altcp_tls\altcp_tls_mbedtls.c **** static void
 937:C:/Users/stapi/OneDrive/Desktop/GD32VW553/GD32VW55X_Wifi_BLE_SDK/GD32VW55x_RELEASE_V1.0.2/MSDK/lwip/lwip-2.1.2/src/apps/altcp_tls\altcp_tls_mbedtls.c **** altcp_mbedtls_set_poll(struct altcp_pcb *conn, u8_t interval)
 938:C:/Users/stapi/OneDrive/Desktop/GD32VW553/GD32VW55X_Wifi_BLE_SDK/GD32VW55x_RELEASE_V1.0.2/MSDK/lwip/lwip-2.1.2/src/apps/altcp_tls\altcp_tls_mbedtls.c **** {
 939:C:/Users/stapi/OneDrive/Desktop/GD32VW553/GD32VW55X_Wifi_BLE_SDK/GD32VW55x_RELEASE_V1.0.2/MSDK/lwip/lwip-2.1.2/src/apps/altcp_tls\altcp_tls_mbedtls.c ****   if (conn != NULL) {
 940:C:/Users/stapi/OneDrive/Desktop/GD32VW553/GD32VW55X_Wifi_BLE_SDK/GD32VW55x_RELEASE_V1.0.2/MSDK/lwip/lwip-2.1.2/src/apps/altcp_tls\altcp_tls_mbedtls.c ****     altcp_poll(conn->inner_conn, altcp_mbedtls_lower_poll, interval);
 941:C:/Users/stapi/OneDrive/Desktop/GD32VW553/GD32VW55X_Wifi_BLE_SDK/GD32VW55x_RELEASE_V1.0.2/MSDK/lwip/lwip-2.1.2/src/apps/altcp_tls\altcp_tls_mbedtls.c ****   }
 942:C:/Users/stapi/OneDrive/Desktop/GD32VW553/GD32VW55X_Wifi_BLE_SDK/GD32VW55x_RELEASE_V1.0.2/MSDK/lwip/lwip-2.1.2/src/apps/altcp_tls\altcp_tls_mbedtls.c **** }
 943:C:/Users/stapi/OneDrive/Desktop/GD32VW553/GD32VW55X_Wifi_BLE_SDK/GD32VW55x_RELEASE_V1.0.2/MSDK/lwip/lwip-2.1.2/src/apps/altcp_tls\altcp_tls_mbedtls.c **** 
 944:C:/Users/stapi/OneDrive/Desktop/GD32VW553/GD32VW55X_Wifi_BLE_SDK/GD32VW55x_RELEASE_V1.0.2/MSDK/lwip/lwip-2.1.2/src/apps/altcp_tls\altcp_tls_mbedtls.c **** static void
 945:C:/Users/stapi/OneDrive/Desktop/GD32VW553/GD32VW55X_Wifi_BLE_SDK/GD32VW55x_RELEASE_V1.0.2/MSDK/lwip/lwip-2.1.2/src/apps/altcp_tls\altcp_tls_mbedtls.c **** altcp_mbedtls_recved(struct altcp_pcb *conn, u16_t len)
 946:C:/Users/stapi/OneDrive/Desktop/GD32VW553/GD32VW55X_Wifi_BLE_SDK/GD32VW55x_RELEASE_V1.0.2/MSDK/lwip/lwip-2.1.2/src/apps/altcp_tls\altcp_tls_mbedtls.c **** {
 500              		.loc 1 946 1 is_stmt 1
 501              		.cfi_startproc
 502              	.LVL56:
 947:C:/Users/stapi/OneDrive/Desktop/GD32VW553/GD32VW55X_Wifi_BLE_SDK/GD32VW55x_RELEASE_V1.0.2/MSDK/lwip/lwip-2.1.2/src/apps/altcp_tls\altcp_tls_mbedtls.c ****   u16_t lower_recved;
 503              		.loc 1 947 3
 948:C:/Users/stapi/OneDrive/Desktop/GD32VW553/GD32VW55X_Wifi_BLE_SDK/GD32VW55x_RELEASE_V1.0.2/MSDK/lwip/lwip-2.1.2/src/apps/altcp_tls\altcp_tls_mbedtls.c ****   altcp_mbedtls_state_t *state;
 504              		.loc 1 948 3
 949:C:/Users/stapi/OneDrive/Desktop/GD32VW553/GD32VW55X_Wifi_BLE_SDK/GD32VW55x_RELEASE_V1.0.2/MSDK/lwip/lwip-2.1.2/src/apps/altcp_tls\altcp_tls_mbedtls.c ****   if (conn == NULL) {
 505              		.loc 1 949 3
 506              		.loc 1 949 6 is_stmt 0
 507 0000 0DC5     		beq	a0,zero,.L77
 950:C:/Users/stapi/OneDrive/Desktop/GD32VW553/GD32VW55X_Wifi_BLE_SDK/GD32VW55x_RELEASE_V1.0.2/MSDK/lwip/lwip-2.1.2/src/apps/altcp_tls\altcp_tls_mbedtls.c ****     return;
 951:C:/Users/stapi/OneDrive/Desktop/GD32VW553/GD32VW55X_Wifi_BLE_SDK/GD32VW55x_RELEASE_V1.0.2/MSDK/lwip/lwip-2.1.2/src/apps/altcp_tls\altcp_tls_mbedtls.c ****   }
 952:C:/Users/stapi/OneDrive/Desktop/GD32VW553/GD32VW55X_Wifi_BLE_SDK/GD32VW55x_RELEASE_V1.0.2/MSDK/lwip/lwip-2.1.2/src/apps/altcp_tls\altcp_tls_mbedtls.c ****   state = (altcp_mbedtls_state_t *)conn->state;
 508              		.loc 1 952 3 is_stmt 1
 509              		.loc 1 952 9 is_stmt 0
 510 0002 5845     		lw	a4,12(a0)
 511              	.LVL57:
 953:C:/Users/stapi/OneDrive/Desktop/GD32VW553/GD32VW55X_Wifi_BLE_SDK/GD32VW55x_RELEASE_V1.0.2/MSDK/lwip/lwip-2.1.2/src/apps/altcp_tls\altcp_tls_mbedtls.c ****   if (state == NULL) {
 512              		.loc 1 953 3 is_stmt 1
 513              		.loc 1 953 6 is_stmt 0
 514 0004 1DC3     		beq	a4,zero,.L77
 954:C:/Users/stapi/OneDrive/Desktop/GD32VW553/GD32VW55X_Wifi_BLE_SDK/GD32VW55x_RELEASE_V1.0.2/MSDK/lwip/lwip-2.1.2/src/apps/altcp_tls\altcp_tls_mbedtls.c ****     return;
 955:C:/Users/stapi/OneDrive/Desktop/GD32VW553/GD32VW55X_Wifi_BLE_SDK/GD32VW55x_RELEASE_V1.0.2/MSDK/lwip/lwip-2.1.2/src/apps/altcp_tls\altcp_tls_mbedtls.c ****   }
 956:C:/Users/stapi/OneDrive/Desktop/GD32VW553/GD32VW55X_Wifi_BLE_SDK/GD32VW55x_RELEASE_V1.0.2/MSDK/lwip/lwip-2.1.2/src/apps/altcp_tls\altcp_tls_mbedtls.c ****   if (!(state->flags & ALTCP_MBEDTLS_FLAGS_HANDSHAKE_DONE)) {
 515              		.loc 1 956 3 is_stmt 1
 516              		.loc 1 956 6 is_stmt 0
 517 0006 83478715 		lbu	a5,344(a4)
 518 000a 858B     		andi	a5,a5,1
 519 000c 99CF     		beq	a5,zero,.L77
 957:C:/Users/stapi/OneDrive/Desktop/GD32VW553/GD32VW55X_Wifi_BLE_SDK/GD32VW55x_RELEASE_V1.0.2/MSDK/lwip/lwip-2.1.2/src/apps/altcp_tls\altcp_tls_mbedtls.c ****     return;
 958:C:/Users/stapi/OneDrive/Desktop/GD32VW553/GD32VW55X_Wifi_BLE_SDK/GD32VW55x_RELEASE_V1.0.2/MSDK/lwip/lwip-2.1.2/src/apps/altcp_tls\altcp_tls_mbedtls.c ****   }
 959:C:/Users/stapi/OneDrive/Desktop/GD32VW553/GD32VW55X_Wifi_BLE_SDK/GD32VW55x_RELEASE_V1.0.2/MSDK/lwip/lwip-2.1.2/src/apps/altcp_tls\altcp_tls_mbedtls.c ****   lower_recved = len;
 520              		.loc 1 959 3 is_stmt 1
 521              	.LVL58:
 960:C:/Users/stapi/OneDrive/Desktop/GD32VW553/GD32VW55X_Wifi_BLE_SDK/GD32VW55x_RELEASE_V1.0.2/MSDK/lwip/lwip-2.1.2/src/apps/altcp_tls\altcp_tls_mbedtls.c ****   if (lower_recved > state->rx_passed_unrecved) {
 522              		.loc 1 960 3
 523              		.loc 1 960 27 is_stmt 0
 524 000e 8327C715 		lw	a5,348(a4)
 525              		.loc 1 960 6
 526 0012 63D4B700 		ble	a1,a5,.L66
 961:C:/Users/stapi/OneDrive/Desktop/GD32VW553/GD32VW55X_Wifi_BLE_SDK/GD32VW55x_RELEASE_V1.0.2/MSDK/lwip/lwip-2.1.2/src/apps/altcp_tls\altcp_tls_mbedtls.c ****     LWIP_DEBUGF(ALTCP_MBEDTLS_DEBUG, ("bogus recved count (len > state->rx_passed_unrecved / %d / %
 962:C:/Users/stapi/OneDrive/Desktop/GD32VW553/GD32VW55X_Wifi_BLE_SDK/GD32VW55x_RELEASE_V1.0.2/MSDK/lwip/lwip-2.1.2/src/apps/altcp_tls\altcp_tls_mbedtls.c ****                                       len, state->rx_passed_unrecved));
 527              		.loc 1 962 71 is_stmt 1
 963:C:/Users/stapi/OneDrive/Desktop/GD32VW553/GD32VW55X_Wifi_BLE_SDK/GD32VW55x_RELEASE_V1.0.2/MSDK/lwip/lwip-2.1.2/src/apps/altcp_tls\altcp_tls_mbedtls.c ****     lower_recved = (u16_t)state->rx_passed_unrecved;
 528              		.loc 1 963 5
 529              		.loc 1 963 18 is_stmt 0
 530 0016 B3C50708 		zext.h	a1,a5
 531              	.LVL59:
 532              	.L66:
 964:C:/Users/stapi/OneDrive/Desktop/GD32VW553/GD32VW55X_Wifi_BLE_SDK/GD32VW55x_RELEASE_V1.0.2/MSDK/lwip/lwip-2.1.2/src/apps/altcp_tls\altcp_tls_mbedtls.c ****   }
 965:C:/Users/stapi/OneDrive/Desktop/GD32VW553/GD32VW55X_Wifi_BLE_SDK/GD32VW55x_RELEASE_V1.0.2/MSDK/lwip/lwip-2.1.2/src/apps/altcp_tls\altcp_tls_mbedtls.c ****   state->rx_passed_unrecved -= lower_recved;
 533              		.loc 1 965 3 is_stmt 1
 966:C:/Users/stapi/OneDrive/Desktop/GD32VW553/GD32VW55X_Wifi_BLE_SDK/GD32VW55x_RELEASE_V1.0.2/MSDK/lwip/lwip-2.1.2/src/apps/altcp_tls\altcp_tls_mbedtls.c **** 
 967:C:/Users/stapi/OneDrive/Desktop/GD32VW553/GD32VW55X_Wifi_BLE_SDK/GD32VW55x_RELEASE_V1.0.2/MSDK/lwip/lwip-2.1.2/src/apps/altcp_tls\altcp_tls_mbedtls.c ****   altcp_recved(conn->inner_conn, lower_recved);
 534              		.loc 1 967 3 is_stmt 0
 535 001a 4841     		lw	a0,4(a0)
 536              	.LVL60:
 965:C:/Users/stapi/OneDrive/Desktop/GD32VW553/GD32VW55X_Wifi_BLE_SDK/GD32VW55x_RELEASE_V1.0.2/MSDK/lwip/lwip-2.1.2/src/apps/altcp_tls\altcp_tls_mbedtls.c **** 
 537              		.loc 1 965 29
 538 001c 8D8F     		sub	a5,a5,a1
 539 001e 232EF714 		sw	a5,348(a4)
 540              		.loc 1 967 3 is_stmt 1
 541 0022 17030000 		tail	altcp_recved
 541      67000300 
 542              	.LVL61:
 543              	.L77:
 544 002a 8280     		ret
 545              		.cfi_endproc
 546              	.LFE414:
 548              		.section	.text.altcp_mbedtls_abort,"ax",@progbits
 549              		.align	1
 551              	altcp_mbedtls_abort:
 552              	.LFB417:
 968:C:/Users/stapi/OneDrive/Desktop/GD32VW553/GD32VW55X_Wifi_BLE_SDK/GD32VW55x_RELEASE_V1.0.2/MSDK/lwip/lwip-2.1.2/src/apps/altcp_tls\altcp_tls_mbedtls.c **** }
 969:C:/Users/stapi/OneDrive/Desktop/GD32VW553/GD32VW55X_Wifi_BLE_SDK/GD32VW55x_RELEASE_V1.0.2/MSDK/lwip/lwip-2.1.2/src/apps/altcp_tls\altcp_tls_mbedtls.c **** 
 970:C:/Users/stapi/OneDrive/Desktop/GD32VW553/GD32VW55X_Wifi_BLE_SDK/GD32VW55x_RELEASE_V1.0.2/MSDK/lwip/lwip-2.1.2/src/apps/altcp_tls\altcp_tls_mbedtls.c **** static err_t
 971:C:/Users/stapi/OneDrive/Desktop/GD32VW553/GD32VW55X_Wifi_BLE_SDK/GD32VW55x_RELEASE_V1.0.2/MSDK/lwip/lwip-2.1.2/src/apps/altcp_tls\altcp_tls_mbedtls.c **** altcp_mbedtls_connect(struct altcp_pcb *conn, const ip_addr_t *ipaddr, u16_t port, altcp_connected_
 972:C:/Users/stapi/OneDrive/Desktop/GD32VW553/GD32VW55X_Wifi_BLE_SDK/GD32VW55x_RELEASE_V1.0.2/MSDK/lwip/lwip-2.1.2/src/apps/altcp_tls\altcp_tls_mbedtls.c **** {
 973:C:/Users/stapi/OneDrive/Desktop/GD32VW553/GD32VW55X_Wifi_BLE_SDK/GD32VW55x_RELEASE_V1.0.2/MSDK/lwip/lwip-2.1.2/src/apps/altcp_tls\altcp_tls_mbedtls.c ****   if (conn == NULL) {
 974:C:/Users/stapi/OneDrive/Desktop/GD32VW553/GD32VW55X_Wifi_BLE_SDK/GD32VW55x_RELEASE_V1.0.2/MSDK/lwip/lwip-2.1.2/src/apps/altcp_tls\altcp_tls_mbedtls.c ****     return ERR_VAL;
 975:C:/Users/stapi/OneDrive/Desktop/GD32VW553/GD32VW55X_Wifi_BLE_SDK/GD32VW55x_RELEASE_V1.0.2/MSDK/lwip/lwip-2.1.2/src/apps/altcp_tls\altcp_tls_mbedtls.c ****   }
 976:C:/Users/stapi/OneDrive/Desktop/GD32VW553/GD32VW55X_Wifi_BLE_SDK/GD32VW55x_RELEASE_V1.0.2/MSDK/lwip/lwip-2.1.2/src/apps/altcp_tls\altcp_tls_mbedtls.c ****   conn->connected = connected;
 977:C:/Users/stapi/OneDrive/Desktop/GD32VW553/GD32VW55X_Wifi_BLE_SDK/GD32VW55x_RELEASE_V1.0.2/MSDK/lwip/lwip-2.1.2/src/apps/altcp_tls\altcp_tls_mbedtls.c ****   return altcp_connect(conn->inner_conn, ipaddr, port, altcp_mbedtls_lower_connected);
 978:C:/Users/stapi/OneDrive/Desktop/GD32VW553/GD32VW55X_Wifi_BLE_SDK/GD32VW55x_RELEASE_V1.0.2/MSDK/lwip/lwip-2.1.2/src/apps/altcp_tls\altcp_tls_mbedtls.c **** }
 979:C:/Users/stapi/OneDrive/Desktop/GD32VW553/GD32VW55X_Wifi_BLE_SDK/GD32VW55x_RELEASE_V1.0.2/MSDK/lwip/lwip-2.1.2/src/apps/altcp_tls\altcp_tls_mbedtls.c **** 
 980:C:/Users/stapi/OneDrive/Desktop/GD32VW553/GD32VW55X_Wifi_BLE_SDK/GD32VW55x_RELEASE_V1.0.2/MSDK/lwip/lwip-2.1.2/src/apps/altcp_tls\altcp_tls_mbedtls.c **** static struct altcp_pcb *
 981:C:/Users/stapi/OneDrive/Desktop/GD32VW553/GD32VW55X_Wifi_BLE_SDK/GD32VW55x_RELEASE_V1.0.2/MSDK/lwip/lwip-2.1.2/src/apps/altcp_tls\altcp_tls_mbedtls.c **** altcp_mbedtls_listen(struct altcp_pcb *conn, u8_t backlog, err_t *err)
 982:C:/Users/stapi/OneDrive/Desktop/GD32VW553/GD32VW55X_Wifi_BLE_SDK/GD32VW55x_RELEASE_V1.0.2/MSDK/lwip/lwip-2.1.2/src/apps/altcp_tls\altcp_tls_mbedtls.c **** {
 983:C:/Users/stapi/OneDrive/Desktop/GD32VW553/GD32VW55X_Wifi_BLE_SDK/GD32VW55x_RELEASE_V1.0.2/MSDK/lwip/lwip-2.1.2/src/apps/altcp_tls\altcp_tls_mbedtls.c ****   struct altcp_pcb *lpcb;
 984:C:/Users/stapi/OneDrive/Desktop/GD32VW553/GD32VW55X_Wifi_BLE_SDK/GD32VW55x_RELEASE_V1.0.2/MSDK/lwip/lwip-2.1.2/src/apps/altcp_tls\altcp_tls_mbedtls.c ****   if (conn == NULL) {
 985:C:/Users/stapi/OneDrive/Desktop/GD32VW553/GD32VW55X_Wifi_BLE_SDK/GD32VW55x_RELEASE_V1.0.2/MSDK/lwip/lwip-2.1.2/src/apps/altcp_tls\altcp_tls_mbedtls.c ****     return NULL;
 986:C:/Users/stapi/OneDrive/Desktop/GD32VW553/GD32VW55X_Wifi_BLE_SDK/GD32VW55x_RELEASE_V1.0.2/MSDK/lwip/lwip-2.1.2/src/apps/altcp_tls\altcp_tls_mbedtls.c ****   }
 987:C:/Users/stapi/OneDrive/Desktop/GD32VW553/GD32VW55X_Wifi_BLE_SDK/GD32VW55x_RELEASE_V1.0.2/MSDK/lwip/lwip-2.1.2/src/apps/altcp_tls\altcp_tls_mbedtls.c ****   lpcb = altcp_listen_with_backlog_and_err(conn->inner_conn, backlog, err);
 988:C:/Users/stapi/OneDrive/Desktop/GD32VW553/GD32VW55X_Wifi_BLE_SDK/GD32VW55x_RELEASE_V1.0.2/MSDK/lwip/lwip-2.1.2/src/apps/altcp_tls\altcp_tls_mbedtls.c ****   if (lpcb != NULL) {
 989:C:/Users/stapi/OneDrive/Desktop/GD32VW553/GD32VW55X_Wifi_BLE_SDK/GD32VW55x_RELEASE_V1.0.2/MSDK/lwip/lwip-2.1.2/src/apps/altcp_tls\altcp_tls_mbedtls.c ****     conn->inner_conn = lpcb;
 990:C:/Users/stapi/OneDrive/Desktop/GD32VW553/GD32VW55X_Wifi_BLE_SDK/GD32VW55x_RELEASE_V1.0.2/MSDK/lwip/lwip-2.1.2/src/apps/altcp_tls\altcp_tls_mbedtls.c ****     altcp_accept(lpcb, altcp_mbedtls_lower_accept);
 991:C:/Users/stapi/OneDrive/Desktop/GD32VW553/GD32VW55X_Wifi_BLE_SDK/GD32VW55x_RELEASE_V1.0.2/MSDK/lwip/lwip-2.1.2/src/apps/altcp_tls\altcp_tls_mbedtls.c ****     return conn;
 992:C:/Users/stapi/OneDrive/Desktop/GD32VW553/GD32VW55X_Wifi_BLE_SDK/GD32VW55x_RELEASE_V1.0.2/MSDK/lwip/lwip-2.1.2/src/apps/altcp_tls\altcp_tls_mbedtls.c ****   }
 993:C:/Users/stapi/OneDrive/Desktop/GD32VW553/GD32VW55X_Wifi_BLE_SDK/GD32VW55x_RELEASE_V1.0.2/MSDK/lwip/lwip-2.1.2/src/apps/altcp_tls\altcp_tls_mbedtls.c ****   return NULL;
 994:C:/Users/stapi/OneDrive/Desktop/GD32VW553/GD32VW55X_Wifi_BLE_SDK/GD32VW55x_RELEASE_V1.0.2/MSDK/lwip/lwip-2.1.2/src/apps/altcp_tls\altcp_tls_mbedtls.c **** }
 995:C:/Users/stapi/OneDrive/Desktop/GD32VW553/GD32VW55X_Wifi_BLE_SDK/GD32VW55x_RELEASE_V1.0.2/MSDK/lwip/lwip-2.1.2/src/apps/altcp_tls\altcp_tls_mbedtls.c **** 
 996:C:/Users/stapi/OneDrive/Desktop/GD32VW553/GD32VW55X_Wifi_BLE_SDK/GD32VW55x_RELEASE_V1.0.2/MSDK/lwip/lwip-2.1.2/src/apps/altcp_tls\altcp_tls_mbedtls.c **** static void
 997:C:/Users/stapi/OneDrive/Desktop/GD32VW553/GD32VW55X_Wifi_BLE_SDK/GD32VW55x_RELEASE_V1.0.2/MSDK/lwip/lwip-2.1.2/src/apps/altcp_tls\altcp_tls_mbedtls.c **** altcp_mbedtls_abort(struct altcp_pcb *conn)
 998:C:/Users/stapi/OneDrive/Desktop/GD32VW553/GD32VW55X_Wifi_BLE_SDK/GD32VW55x_RELEASE_V1.0.2/MSDK/lwip/lwip-2.1.2/src/apps/altcp_tls\altcp_tls_mbedtls.c **** {
 553              		.loc 1 998 1
 554              		.cfi_startproc
 555              	.LVL62:
 999:C:/Users/stapi/OneDrive/Desktop/GD32VW553/GD32VW55X_Wifi_BLE_SDK/GD32VW55x_RELEASE_V1.0.2/MSDK/lwip/lwip-2.1.2/src/apps/altcp_tls\altcp_tls_mbedtls.c ****   if (conn != NULL) {
 556              		.loc 1 999 3
 557              		.loc 1 999 6 is_stmt 0
 558 0000 11C5     		beq	a0,zero,.L86
1000:C:/Users/stapi/OneDrive/Desktop/GD32VW553/GD32VW55X_Wifi_BLE_SDK/GD32VW55x_RELEASE_V1.0.2/MSDK/lwip/lwip-2.1.2/src/apps/altcp_tls\altcp_tls_mbedtls.c ****     altcp_abort(conn->inner_conn);
 559              		.loc 1 1000 5 is_stmt 1
 560 0002 4841     		lw	a0,4(a0)
 561              	.LVL63:
 562 0004 17030000 		tail	altcp_abort
 562      67000300 
 563              	.LVL64:
 564              	.L86:
 565 000c 8280     		ret
 566              		.cfi_endproc
 567              	.LFE417:
 569              		.section	.text.altcp_tls_create_config,"ax",@progbits
 570              		.align	1
 572              	altcp_tls_create_config:
 573              	.LFB406:
 681:C:/Users/stapi/OneDrive/Desktop/GD32VW553/GD32VW55X_Wifi_BLE_SDK/GD32VW55x_RELEASE_V1.0.2/MSDK/lwip/lwip-2.1.2/src/apps/altcp_tls\altcp_tls_mbedtls.c ****   size_t sz;
 574              		.loc 1 681 1
 575              		.cfi_startproc
 576              	.LVL65:
 577 0000 17030000 		call	t0,__riscv_save_5
 577      E7020300 
 578              		.cfi_offset 20, -24
 579              		.cfi_offset 19, -20
 580              		.cfi_offset 18, -16
 581              		.cfi_offset 9, -12
 582              		.cfi_offset 8, -8
 583              		.cfi_offset 1, -4
 584              		.cfi_def_cfa_offset 32
 682:C:/Users/stapi/OneDrive/Desktop/GD32VW553/GD32VW55X_Wifi_BLE_SDK/GD32VW55x_RELEASE_V1.0.2/MSDK/lwip/lwip-2.1.2/src/apps/altcp_tls\altcp_tls_mbedtls.c ****   int ret;
 585              		.loc 1 682 3
 683:C:/Users/stapi/OneDrive/Desktop/GD32VW553/GD32VW55X_Wifi_BLE_SDK/GD32VW55x_RELEASE_V1.0.2/MSDK/lwip/lwip-2.1.2/src/apps/altcp_tls\altcp_tls_mbedtls.c ****   struct altcp_tls_config *conf;
 586              		.loc 1 683 3
 684:C:/Users/stapi/OneDrive/Desktop/GD32VW553/GD32VW55X_Wifi_BLE_SDK/GD32VW55x_RELEASE_V1.0.2/MSDK/lwip/lwip-2.1.2/src/apps/altcp_tls\altcp_tls_mbedtls.c ****   mbedtls_x509_crt *mem;
 587              		.loc 1 684 3
 685:C:/Users/stapi/OneDrive/Desktop/GD32VW553/GD32VW55X_Wifi_BLE_SDK/GD32VW55x_RELEASE_V1.0.2/MSDK/lwip/lwip-2.1.2/src/apps/altcp_tls\altcp_tls_mbedtls.c **** 
 588              		.loc 1 685 3
 687:C:/Users/stapi/OneDrive/Desktop/GD32VW553/GD32VW55X_Wifi_BLE_SDK/GD32VW55x_RELEASE_V1.0.2/MSDK/lwip/lwip-2.1.2/src/apps/altcp_tls\altcp_tls_mbedtls.c ****     LWIP_DEBUGF(ALTCP_MBEDTLS_DEBUG|LWIP_DBG_LEVEL_SERIOUS,
 589              		.loc 1 687 3
 689:C:/Users/stapi/OneDrive/Desktop/GD32VW553/GD32VW55X_Wifi_BLE_SDK/GD32VW55x_RELEASE_V1.0.2/MSDK/lwip/lwip-2.1.2/src/apps/altcp_tls\altcp_tls_mbedtls.c ****   }
 590              		.loc 1 689 101
 692:C:/Users/stapi/OneDrive/Desktop/GD32VW553/GD32VW55X_Wifi_BLE_SDK/GD32VW55x_RELEASE_V1.0.2/MSDK/lwip/lwip-2.1.2/src/apps/altcp_tls\altcp_tls_mbedtls.c **** 
 591              		.loc 1 692 3
 681:C:/Users/stapi/OneDrive/Desktop/GD32VW553/GD32VW55X_Wifi_BLE_SDK/GD32VW55x_RELEASE_V1.0.2/MSDK/lwip/lwip-2.1.2/src/apps/altcp_tls\altcp_tls_mbedtls.c ****   size_t sz;
 592              		.loc 1 681 1 is_stmt 0
 593 0008 4111     		addi	sp,sp,-16
 594              		.cfi_def_cfa_offset 48
 681:C:/Users/stapi/OneDrive/Desktop/GD32VW553/GD32VW55X_Wifi_BLE_SDK/GD32VW55x_RELEASE_V1.0.2/MSDK/lwip/lwip-2.1.2/src/apps/altcp_tls\altcp_tls_mbedtls.c ****   size_t sz;
 595              		.loc 1 681 1
 596 000a 2A8A     		mv	s4,a0
 597 000c AE89     		mv	s3,a1
 598 000e 3289     		mv	s2,a2
 599 0010 B684     		mv	s1,a3
 692:C:/Users/stapi/OneDrive/Desktop/GD32VW553/GD32VW55X_Wifi_BLE_SDK/GD32VW55x_RELEASE_V1.0.2/MSDK/lwip/lwip-2.1.2/src/apps/altcp_tls\altcp_tls_mbedtls.c **** 
 600              		.loc 1 692 3
 601 0012 97000000 		call	altcp_mbedtls_mem_init
 601      E7800000 
 602              	.LVL66:
 694:C:/Users/stapi/OneDrive/Desktop/GD32VW553/GD32VW55X_Wifi_BLE_SDK/GD32VW55x_RELEASE_V1.0.2/MSDK/lwip/lwip-2.1.2/src/apps/altcp_tls\altcp_tls_mbedtls.c ****   if (have_cert) {
 603              		.loc 1 694 3 is_stmt 1
 695:C:/Users/stapi/OneDrive/Desktop/GD32VW553/GD32VW55X_Wifi_BLE_SDK/GD32VW55x_RELEASE_V1.0.2/MSDK/lwip/lwip-2.1.2/src/apps/altcp_tls\altcp_tls_mbedtls.c ****     sz += sizeof(mbedtls_x509_crt);
 604              		.loc 1 695 3
 696:C:/Users/stapi/OneDrive/Desktop/GD32VW553/GD32VW55X_Wifi_BLE_SDK/GD32VW55x_RELEASE_V1.0.2/MSDK/lwip/lwip-2.1.2/src/apps/altcp_tls\altcp_tls_mbedtls.c ****   }
 605              		.loc 1 696 8 is_stmt 0
 606 001a 1305804E 		li	a0,1256
 695:C:/Users/stapi/OneDrive/Desktop/GD32VW553/GD32VW55X_Wifi_BLE_SDK/GD32VW55x_RELEASE_V1.0.2/MSDK/lwip/lwip-2.1.2/src/apps/altcp_tls\altcp_tls_mbedtls.c ****     sz += sizeof(mbedtls_x509_crt);
 607              		.loc 1 695 6
 608 001e 63940900 		bne	s3,zero,.L90
 609 0022 1305003A 		li	a0,928
 610              	.L90:
 611              	.LVL67:
 698:C:/Users/stapi/OneDrive/Desktop/GD32VW553/GD32VW55X_Wifi_BLE_SDK/GD32VW55x_RELEASE_V1.0.2/MSDK/lwip/lwip-2.1.2/src/apps/altcp_tls\altcp_tls_mbedtls.c ****     sz += sizeof(mbedtls_x509_crt);
 612              		.loc 1 698 3 is_stmt 1
 698:C:/Users/stapi/OneDrive/Desktop/GD32VW553/GD32VW55X_Wifi_BLE_SDK/GD32VW55x_RELEASE_V1.0.2/MSDK/lwip/lwip-2.1.2/src/apps/altcp_tls\altcp_tls_mbedtls.c ****     sz += sizeof(mbedtls_x509_crt);
 613              		.loc 1 698 6 is_stmt 0
 614 0026 99C0     		beq	s1,zero,.L91
 699:C:/Users/stapi/OneDrive/Desktop/GD32VW553/GD32VW55X_Wifi_BLE_SDK/GD32VW55x_RELEASE_V1.0.2/MSDK/lwip/lwip-2.1.2/src/apps/altcp_tls\altcp_tls_mbedtls.c ****   }
 615              		.loc 1 699 5 is_stmt 1
 699:C:/Users/stapi/OneDrive/Desktop/GD32VW553/GD32VW55X_Wifi_BLE_SDK/GD32VW55x_RELEASE_V1.0.2/MSDK/lwip/lwip-2.1.2/src/apps/altcp_tls\altcp_tls_mbedtls.c ****   }
 616              		.loc 1 699 8 is_stmt 0
 617 0028 13058514 		addi	a0,a0,328
 618              	.LVL68:
 619              	.L91:
 701:C:/Users/stapi/OneDrive/Desktop/GD32VW553/GD32VW55X_Wifi_BLE_SDK/GD32VW55x_RELEASE_V1.0.2/MSDK/lwip/lwip-2.1.2/src/apps/altcp_tls\altcp_tls_mbedtls.c ****     sz += sizeof(mbedtls_pk_context);
 620              		.loc 1 701 3 is_stmt 1
 701:C:/Users/stapi/OneDrive/Desktop/GD32VW553/GD32VW55X_Wifi_BLE_SDK/GD32VW55x_RELEASE_V1.0.2/MSDK/lwip/lwip-2.1.2/src/apps/altcp_tls\altcp_tls_mbedtls.c ****     sz += sizeof(mbedtls_pk_context);
 621              		.loc 1 701 6 is_stmt 0
 622 002c 63030900 		beq	s2,zero,.L92
 702:C:/Users/stapi/OneDrive/Desktop/GD32VW553/GD32VW55X_Wifi_BLE_SDK/GD32VW55x_RELEASE_V1.0.2/MSDK/lwip/lwip-2.1.2/src/apps/altcp_tls\altcp_tls_mbedtls.c ****   }
 623              		.loc 1 702 5 is_stmt 1
 702:C:/Users/stapi/OneDrive/Desktop/GD32VW553/GD32VW55X_Wifi_BLE_SDK/GD32VW55x_RELEASE_V1.0.2/MSDK/lwip/lwip-2.1.2/src/apps/altcp_tls\altcp_tls_mbedtls.c ****   }
 624              		.loc 1 702 8 is_stmt 0
 625 0030 2105     		addi	a0,a0,8
 626              	.LVL69:
 627              	.L92:
 705:C:/Users/stapi/OneDrive/Desktop/GD32VW553/GD32VW55X_Wifi_BLE_SDK/GD32VW55x_RELEASE_V1.0.2/MSDK/lwip/lwip-2.1.2/src/apps/altcp_tls\altcp_tls_mbedtls.c ****   if (conf == NULL) {
 628              		.loc 1 705 3 is_stmt 1
 705:C:/Users/stapi/OneDrive/Desktop/GD32VW553/GD32VW55X_Wifi_BLE_SDK/GD32VW55x_RELEASE_V1.0.2/MSDK/lwip/lwip-2.1.2/src/apps/altcp_tls\altcp_tls_mbedtls.c ****   if (conf == NULL) {
 629              		.loc 1 705 37 is_stmt 0
 630 0032 97000000 		call	altcp_mbedtls_alloc_config
 630      E7800000 
 631              	.LVL70:
 632 003a 2A84     		mv	s0,a0
 633              	.LVL71:
 706:C:/Users/stapi/OneDrive/Desktop/GD32VW553/GD32VW55X_Wifi_BLE_SDK/GD32VW55x_RELEASE_V1.0.2/MSDK/lwip/lwip-2.1.2/src/apps/altcp_tls\altcp_tls_mbedtls.c ****     return NULL;
 634              		.loc 1 706 3 is_stmt 1
 706:C:/Users/stapi/OneDrive/Desktop/GD32VW553/GD32VW55X_Wifi_BLE_SDK/GD32VW55x_RELEASE_V1.0.2/MSDK/lwip/lwip-2.1.2/src/apps/altcp_tls\altcp_tls_mbedtls.c ****     return NULL;
 635              		.loc 1 706 6 is_stmt 0
 636 003c 2DC9     		beq	a0,zero,.L89
 709:C:/Users/stapi/OneDrive/Desktop/GD32VW553/GD32VW55X_Wifi_BLE_SDK/GD32VW55x_RELEASE_V1.0.2/MSDK/lwip/lwip-2.1.2/src/apps/altcp_tls\altcp_tls_mbedtls.c ****   if (have_cert) {
 637              		.loc 1 709 3 is_stmt 1
 709:C:/Users/stapi/OneDrive/Desktop/GD32VW553/GD32VW55X_Wifi_BLE_SDK/GD32VW55x_RELEASE_V1.0.2/MSDK/lwip/lwip-2.1.2/src/apps/altcp_tls\altcp_tls_mbedtls.c ****   if (have_cert) {
 638              		.loc 1 709 7 is_stmt 0
 639 003e 9307053A 		addi	a5,a0,928
 640              	.LVL72:
 710:C:/Users/stapi/OneDrive/Desktop/GD32VW553/GD32VW55X_Wifi_BLE_SDK/GD32VW55x_RELEASE_V1.0.2/MSDK/lwip/lwip-2.1.2/src/apps/altcp_tls\altcp_tls_mbedtls.c ****     conf->cert = mem;
 641              		.loc 1 710 3 is_stmt 1
 710:C:/Users/stapi/OneDrive/Desktop/GD32VW553/GD32VW55X_Wifi_BLE_SDK/GD32VW55x_RELEASE_V1.0.2/MSDK/lwip/lwip-2.1.2/src/apps/altcp_tls\altcp_tls_mbedtls.c ****     conf->cert = mem;
 642              		.loc 1 710 6 is_stmt 0
 643 0042 63860900 		beq	s3,zero,.L94
 711:C:/Users/stapi/OneDrive/Desktop/GD32VW553/GD32VW55X_Wifi_BLE_SDK/GD32VW55x_RELEASE_V1.0.2/MSDK/lwip/lwip-2.1.2/src/apps/altcp_tls\altcp_tls_mbedtls.c ****     mem++;
 644              		.loc 1 711 5 is_stmt 1
 711:C:/Users/stapi/OneDrive/Desktop/GD32VW553/GD32VW55X_Wifi_BLE_SDK/GD32VW55x_RELEASE_V1.0.2/MSDK/lwip/lwip-2.1.2/src/apps/altcp_tls\altcp_tls_mbedtls.c ****     mem++;
 645              		.loc 1 711 16 is_stmt 0
 646 0046 232AF538 		sw	a5,916(a0)
 712:C:/Users/stapi/OneDrive/Desktop/GD32VW553/GD32VW55X_Wifi_BLE_SDK/GD32VW55x_RELEASE_V1.0.2/MSDK/lwip/lwip-2.1.2/src/apps/altcp_tls\altcp_tls_mbedtls.c ****   }
 647              		.loc 1 712 5 is_stmt 1
 712:C:/Users/stapi/OneDrive/Desktop/GD32VW553/GD32VW55X_Wifi_BLE_SDK/GD32VW55x_RELEASE_V1.0.2/MSDK/lwip/lwip-2.1.2/src/apps/altcp_tls\altcp_tls_mbedtls.c ****   }
 648              		.loc 1 712 8 is_stmt 0
 649 004a 9307854E 		addi	a5,a0,1256
 650              	.LVL73:
 651              	.L94:
 714:C:/Users/stapi/OneDrive/Desktop/GD32VW553/GD32VW55X_Wifi_BLE_SDK/GD32VW55x_RELEASE_V1.0.2/MSDK/lwip/lwip-2.1.2/src/apps/altcp_tls\altcp_tls_mbedtls.c ****     conf->ca = mem;
 652              		.loc 1 714 3 is_stmt 1
 714:C:/Users/stapi/OneDrive/Desktop/GD32VW553/GD32VW55X_Wifi_BLE_SDK/GD32VW55x_RELEASE_V1.0.2/MSDK/lwip/lwip-2.1.2/src/apps/altcp_tls\altcp_tls_mbedtls.c ****     conf->ca = mem;
 653              		.loc 1 714 6 is_stmt 0
 654 004e 89C4     		beq	s1,zero,.L95
 715:C:/Users/stapi/OneDrive/Desktop/GD32VW553/GD32VW55X_Wifi_BLE_SDK/GD32VW55x_RELEASE_V1.0.2/MSDK/lwip/lwip-2.1.2/src/apps/altcp_tls\altcp_tls_mbedtls.c ****     mem++;
 655              		.loc 1 715 5 is_stmt 1
 715:C:/Users/stapi/OneDrive/Desktop/GD32VW553/GD32VW55X_Wifi_BLE_SDK/GD32VW55x_RELEASE_V1.0.2/MSDK/lwip/lwip-2.1.2/src/apps/altcp_tls\altcp_tls_mbedtls.c ****     mem++;
 656              		.loc 1 715 14 is_stmt 0
 657 0050 232EF438 		sw	a5,924(s0)
 716:C:/Users/stapi/OneDrive/Desktop/GD32VW553/GD32VW55X_Wifi_BLE_SDK/GD32VW55x_RELEASE_V1.0.2/MSDK/lwip/lwip-2.1.2/src/apps/altcp_tls\altcp_tls_mbedtls.c ****   }
 658              		.loc 1 716 5 is_stmt 1
 716:C:/Users/stapi/OneDrive/Desktop/GD32VW553/GD32VW55X_Wifi_BLE_SDK/GD32VW55x_RELEASE_V1.0.2/MSDK/lwip/lwip-2.1.2/src/apps/altcp_tls\altcp_tls_mbedtls.c ****   }
 659              		.loc 1 716 8 is_stmt 0
 660 0054 93878714 		addi	a5,a5,328
 661              	.LVL74:
 662              	.L95:
 718:C:/Users/stapi/OneDrive/Desktop/GD32VW553/GD32VW55X_Wifi_BLE_SDK/GD32VW55x_RELEASE_V1.0.2/MSDK/lwip/lwip-2.1.2/src/apps/altcp_tls\altcp_tls_mbedtls.c ****     conf->pkey = (mbedtls_pk_context *)mem;
 663              		.loc 1 718 3 is_stmt 1
 718:C:/Users/stapi/OneDrive/Desktop/GD32VW553/GD32VW55X_Wifi_BLE_SDK/GD32VW55x_RELEASE_V1.0.2/MSDK/lwip/lwip-2.1.2/src/apps/altcp_tls\altcp_tls_mbedtls.c ****     conf->pkey = (mbedtls_pk_context *)mem;
 664              		.loc 1 718 6 is_stmt 0
 665 0058 63040900 		beq	s2,zero,.L96
 719:C:/Users/stapi/OneDrive/Desktop/GD32VW553/GD32VW55X_Wifi_BLE_SDK/GD32VW55x_RELEASE_V1.0.2/MSDK/lwip/lwip-2.1.2/src/apps/altcp_tls\altcp_tls_mbedtls.c ****   }
 666              		.loc 1 719 5 is_stmt 1
 719:C:/Users/stapi/OneDrive/Desktop/GD32VW553/GD32VW55X_Wifi_BLE_SDK/GD32VW55x_RELEASE_V1.0.2/MSDK/lwip/lwip-2.1.2/src/apps/altcp_tls\altcp_tls_mbedtls.c ****   }
 667              		.loc 1 719 16 is_stmt 0
 668 005c 232CF438 		sw	a5,920(s0)
 669              	.L96:
 722:C:/Users/stapi/OneDrive/Desktop/GD32VW553/GD32VW55X_Wifi_BLE_SDK/GD32VW55x_RELEASE_V1.0.2/MSDK/lwip/lwip-2.1.2/src/apps/altcp_tls\altcp_tls_mbedtls.c ****   mbedtls_entropy_init(&conf->entropy);
 670              		.loc 1 722 3 is_stmt 1
 671 0060 2285     		mv	a0,s0
 672 0062 97000000 		call	mbedtls_ssl_config_init
 672      E7800000 
 673              	.LVL75:
 723:C:/Users/stapi/OneDrive/Desktop/GD32VW553/GD32VW55X_Wifi_BLE_SDK/GD32VW55x_RELEASE_V1.0.2/MSDK/lwip/lwip-2.1.2/src/apps/altcp_tls\altcp_tls_mbedtls.c ****   mbedtls_ctr_drbg_init(&conf->ctr_drbg);
 674              		.loc 1 723 3
 675 006a 1306040D 		addi	a2,s0,208
 676 006e 3285     		mv	a0,a2
 677 0070 32C6     		sw	a2,12(sp)
 724:C:/Users/stapi/OneDrive/Desktop/GD32VW553/GD32VW55X_Wifi_BLE_SDK/GD32VW55x_RELEASE_V1.0.2/MSDK/lwip/lwip-2.1.2/src/apps/altcp_tls\altcp_tls_mbedtls.c **** 
 678              		.loc 1 724 3 is_stmt 0
 679 0072 13098434 		addi	s2,s0,840
 680              	.LVL76:
 723:C:/Users/stapi/OneDrive/Desktop/GD32VW553/GD32VW55X_Wifi_BLE_SDK/GD32VW55x_RELEASE_V1.0.2/MSDK/lwip/lwip-2.1.2/src/apps/altcp_tls\altcp_tls_mbedtls.c ****   mbedtls_ctr_drbg_init(&conf->ctr_drbg);
 681              		.loc 1 723 3
 682 0076 97000000 		call	mbedtls_entropy_init
 682      E7800000 
 683              	.LVL77:
 724:C:/Users/stapi/OneDrive/Desktop/GD32VW553/GD32VW55X_Wifi_BLE_SDK/GD32VW55x_RELEASE_V1.0.2/MSDK/lwip/lwip-2.1.2/src/apps/altcp_tls\altcp_tls_mbedtls.c **** 
 684              		.loc 1 724 3 is_stmt 1
 685 007e 4A85     		mv	a0,s2
 686 0080 97000000 		call	mbedtls_ctr_drbg_init
 686      E7800000 
 687              	.LVL78:
 727:C:/Users/stapi/OneDrive/Desktop/GD32VW553/GD32VW55X_Wifi_BLE_SDK/GD32VW55x_RELEASE_V1.0.2/MSDK/lwip/lwip-2.1.2/src/apps/altcp_tls\altcp_tls_mbedtls.c ****   if (ret != 0) {
 688              		.loc 1 727 3
 727:C:/Users/stapi/OneDrive/Desktop/GD32VW553/GD32VW55X_Wifi_BLE_SDK/GD32VW55x_RELEASE_V1.0.2/MSDK/lwip/lwip-2.1.2/src/apps/altcp_tls\altcp_tls_mbedtls.c ****   if (ret != 0) {
 689              		.loc 1 727 9 is_stmt 0
 690 0088 3246     		lw	a2,12(sp)
 691 008a B7050000 		lui	a1,%hi(dummy_rng)
 692 008e 0147     		li	a4,0
 693 0090 8146     		li	a3,0
 694 0092 93850500 		addi	a1,a1,%lo(dummy_rng)
 695 0096 4A85     		mv	a0,s2
 696 0098 97000000 		call	mbedtls_ctr_drbg_seed
 696      E7800000 
 697              	.LVL79:
 728:C:/Users/stapi/OneDrive/Desktop/GD32VW553/GD32VW55X_Wifi_BLE_SDK/GD32VW55x_RELEASE_V1.0.2/MSDK/lwip/lwip-2.1.2/src/apps/altcp_tls\altcp_tls_mbedtls.c ****     LWIP_DEBUGF(ALTCP_MBEDTLS_DEBUG, ("mbedtls_ctr_drbg_seed failed: %d\n", ret));
 698              		.loc 1 728 3 is_stmt 1
 728:C:/Users/stapi/OneDrive/Desktop/GD32VW553/GD32VW55X_Wifi_BLE_SDK/GD32VW55x_RELEASE_V1.0.2/MSDK/lwip/lwip-2.1.2/src/apps/altcp_tls\altcp_tls_mbedtls.c ****     LWIP_DEBUGF(ALTCP_MBEDTLS_DEBUG, ("mbedtls_ctr_drbg_seed failed: %d\n", ret));
 699              		.loc 1 728 6 is_stmt 0
 700 00a0 09CD     		beq	a0,zero,.L97
 701              	.L124:
 738:C:/Users/stapi/OneDrive/Desktop/GD32VW553/GD32VW55X_Wifi_BLE_SDK/GD32VW55x_RELEASE_V1.0.2/MSDK/lwip/lwip-2.1.2/src/apps/altcp_tls\altcp_tls_mbedtls.c ****     altcp_mbedtls_free_config(conf);
 702              		.loc 1 738 88 is_stmt 1
 739:C:/Users/stapi/OneDrive/Desktop/GD32VW553/GD32VW55X_Wifi_BLE_SDK/GD32VW55x_RELEASE_V1.0.2/MSDK/lwip/lwip-2.1.2/src/apps/altcp_tls\altcp_tls_mbedtls.c ****     return NULL;
 703              		.loc 1 739 5
 704 00a2 2285     		mv	a0,s0
 705              	.LVL80:
 706 00a4 97000000 		call	altcp_mbedtls_free_config
 706      E7800000 
 707              	.LVL81:
 740:C:/Users/stapi/OneDrive/Desktop/GD32VW553/GD32VW55X_Wifi_BLE_SDK/GD32VW55x_RELEASE_V1.0.2/MSDK/lwip/lwip-2.1.2/src/apps/altcp_tls\altcp_tls_mbedtls.c ****   }
 708              		.loc 1 740 5
 740:C:/Users/stapi/OneDrive/Desktop/GD32VW553/GD32VW55X_Wifi_BLE_SDK/GD32VW55x_RELEASE_V1.0.2/MSDK/lwip/lwip-2.1.2/src/apps/altcp_tls\altcp_tls_mbedtls.c ****   }
 709              		.loc 1 740 12 is_stmt 0
 710 00ac 0144     		li	s0,0
 711              	.LVL82:
 712              	.L89:
 762:C:/Users/stapi/OneDrive/Desktop/GD32VW553/GD32VW55X_Wifi_BLE_SDK/GD32VW55x_RELEASE_V1.0.2/MSDK/lwip/lwip-2.1.2/src/apps/altcp_tls\altcp_tls_mbedtls.c **** 
 713              		.loc 1 762 1
 714 00ae 2285     		mv	a0,s0
 715 00b0 4101     		addi	sp,sp,16
 716              		.cfi_remember_state
 717              		.cfi_def_cfa_offset 0
 718 00b2 17030000 		tail	__riscv_restore_5
 718      67000300 
 719              		.cfi_restore 20
 720              		.cfi_restore 19
 721              		.cfi_restore 18
 722              		.cfi_restore 9
 723              		.cfi_restore 8
 724              		.cfi_restore 1
 725              		.cfi_def_cfa_offset -32
 726              	.LVL83:
 727              	.L97:
 728              		.cfi_restore_state
 735:C:/Users/stapi/OneDrive/Desktop/GD32VW553/GD32VW55X_Wifi_BLE_SDK/GD32VW55x_RELEASE_V1.0.2/MSDK/lwip/lwip-2.1.2/src/apps/altcp_tls\altcp_tls_mbedtls.c ****                                     MBEDTLS_SSL_TRANSPORT_STREAM, MBEDTLS_SSL_PRESET_DEFAULT);
 729              		.loc 1 735 3 is_stmt 1
 735:C:/Users/stapi/OneDrive/Desktop/GD32VW553/GD32VW55X_Wifi_BLE_SDK/GD32VW55x_RELEASE_V1.0.2/MSDK/lwip/lwip-2.1.2/src/apps/altcp_tls\altcp_tls_mbedtls.c ****                                     MBEDTLS_SSL_TRANSPORT_STREAM, MBEDTLS_SSL_PRESET_DEFAULT);
 730              		.loc 1 735 9 is_stmt 0
 731 00ba 8146     		li	a3,0
 732 00bc 0146     		li	a2,0
 733 00be D285     		mv	a1,s4
 734 00c0 2285     		mv	a0,s0
 735              	.LVL84:
 736 00c2 97000000 		call	mbedtls_ssl_config_defaults
 736      E7800000 
 737              	.LVL85:
 737:C:/Users/stapi/OneDrive/Desktop/GD32VW553/GD32VW55X_Wifi_BLE_SDK/GD32VW55x_RELEASE_V1.0.2/MSDK/lwip/lwip-2.1.2/src/apps/altcp_tls\altcp_tls_mbedtls.c ****     LWIP_DEBUGF(ALTCP_MBEDTLS_DEBUG, ("mbedtls_ssl_config_defaults failed: %d\n", ret));
 738              		.loc 1 737 3 is_stmt 1
 737:C:/Users/stapi/OneDrive/Desktop/GD32VW553/GD32VW55X_Wifi_BLE_SDK/GD32VW55x_RELEASE_V1.0.2/MSDK/lwip/lwip-2.1.2/src/apps/altcp_tls\altcp_tls_mbedtls.c ****     LWIP_DEBUGF(ALTCP_MBEDTLS_DEBUG, ("mbedtls_ssl_config_defaults failed: %d\n", ret));
 739              		.loc 1 737 6 is_stmt 0
 740 00ca 61FD     		bne	a0,zero,.L124
 744:C:/Users/stapi/OneDrive/Desktop/GD32VW553/GD32VW55X_Wifi_BLE_SDK/GD32VW55x_RELEASE_V1.0.2/MSDK/lwip/lwip-2.1.2/src/apps/altcp_tls\altcp_tls_mbedtls.c ****     mbedtls_ssl_conf_authmode(&conf->conf, MBEDTLS_SSL_VERIFY_REQUIRED);
 741              		.loc 1 744 3 is_stmt 1
 745:C:/Users/stapi/OneDrive/Desktop/GD32VW553/GD32VW55X_Wifi_BLE_SDK/GD32VW55x_RELEASE_V1.0.2/MSDK/lwip/lwip-2.1.2/src/apps/altcp_tls\altcp_tls_mbedtls.c ****   } else {
 742              		.loc 1 745 5 is_stmt 0
 743 00cc 8945     		li	a1,2
 744:C:/Users/stapi/OneDrive/Desktop/GD32VW553/GD32VW55X_Wifi_BLE_SDK/GD32VW55x_RELEASE_V1.0.2/MSDK/lwip/lwip-2.1.2/src/apps/altcp_tls\altcp_tls_mbedtls.c ****     mbedtls_ssl_conf_authmode(&conf->conf, MBEDTLS_SSL_VERIFY_REQUIRED);
 744              		.loc 1 744 6
 745 00ce 91E0     		bne	s1,zero,.L123
 747:C:/Users/stapi/OneDrive/Desktop/GD32VW553/GD32VW55X_Wifi_BLE_SDK/GD32VW55x_RELEASE_V1.0.2/MSDK/lwip/lwip-2.1.2/src/apps/altcp_tls\altcp_tls_mbedtls.c ****   }
 746              		.loc 1 747 5 is_stmt 1
 747 00d0 8145     		li	a1,0
 748              	.L123:
 749 00d2 2285     		mv	a0,s0
 750              	.LVL86:
 751 00d4 97000000 		call	mbedtls_ssl_conf_authmode
 751      E7800000 
 752              	.LVL87:
 751:C:/Users/stapi/OneDrive/Desktop/GD32VW553/GD32VW55X_Wifi_BLE_SDK/GD32VW55x_RELEASE_V1.0.2/MSDK/lwip/lwip-2.1.2/src/apps/altcp_tls\altcp_tls_mbedtls.c **** #if ALTCP_MBEDTLS_DEBUG != LWIP_DBG_OFF
 753              		.loc 1 751 3
 754 00dc B7050000 		lui	a1,%hi(mbedtls_ctr_drbg_random)
 755 00e0 4A86     		mv	a2,s2
 756 00e2 93850500 		addi	a1,a1,%lo(mbedtls_ctr_drbg_random)
 757 00e6 2285     		mv	a0,s0
 758 00e8 97000000 		call	mbedtls_ssl_conf_rng
 758      E7800000 
 759              	.LVL88:
 761:C:/Users/stapi/OneDrive/Desktop/GD32VW553/GD32VW55X_Wifi_BLE_SDK/GD32VW55x_RELEASE_V1.0.2/MSDK/lwip/lwip-2.1.2/src/apps/altcp_tls\altcp_tls_mbedtls.c **** }
 760              		.loc 1 761 3
 761:C:/Users/stapi/OneDrive/Desktop/GD32VW553/GD32VW55X_Wifi_BLE_SDK/GD32VW55x_RELEASE_V1.0.2/MSDK/lwip/lwip-2.1.2/src/apps/altcp_tls\altcp_tls_mbedtls.c **** }
 761              		.loc 1 761 10 is_stmt 0
 762 00f0 7DBF     		j	.L89
 763              		.cfi_endproc
 764              	.LFE406:
 766              		.section	.text.altcp_tls_create_config_client_common,"ax",@progbits
 767              		.align	1
 769              	altcp_tls_create_config_client_common:
 770              	.LFB408:
 817:C:/Users/stapi/OneDrive/Desktop/GD32VW553/GD32VW55X_Wifi_BLE_SDK/GD32VW55x_RELEASE_V1.0.2/MSDK/lwip/lwip-2.1.2/src/apps/altcp_tls\altcp_tls_mbedtls.c ****   int ret;
 771              		.loc 1 817 1 is_stmt 1
 772              		.cfi_startproc
 773              	.LVL89:
 774 0000 17030000 		call	t0,__riscv_save_3
 774      E7020300 
 775              		.cfi_offset 18, -16
 776              		.cfi_offset 9, -12
 777              		.cfi_offset 8, -8
 778              		.cfi_offset 1, -4
 779              		.cfi_def_cfa_offset 16
 818:C:/Users/stapi/OneDrive/Desktop/GD32VW553/GD32VW55X_Wifi_BLE_SDK/GD32VW55x_RELEASE_V1.0.2/MSDK/lwip/lwip-2.1.2/src/apps/altcp_tls\altcp_tls_mbedtls.c ****   struct altcp_tls_config *conf = altcp_tls_create_config(0, is_2wayauth, is_2wayauth, ca != NULL);
 780              		.loc 1 818 3
 819:C:/Users/stapi/OneDrive/Desktop/GD32VW553/GD32VW55X_Wifi_BLE_SDK/GD32VW55x_RELEASE_V1.0.2/MSDK/lwip/lwip-2.1.2/src/apps/altcp_tls\altcp_tls_mbedtls.c ****   if (conf == NULL) {
 781              		.loc 1 819 3
 819:C:/Users/stapi/OneDrive/Desktop/GD32VW553/GD32VW55X_Wifi_BLE_SDK/GD32VW55x_RELEASE_V1.0.2/MSDK/lwip/lwip-2.1.2/src/apps/altcp_tls\altcp_tls_mbedtls.c ****   if (conf == NULL) {
 782              		.loc 1 819 35 is_stmt 0
 783 0008 B336A000 		snez	a3,a0
 817:C:/Users/stapi/OneDrive/Desktop/GD32VW553/GD32VW55X_Wifi_BLE_SDK/GD32VW55x_RELEASE_V1.0.2/MSDK/lwip/lwip-2.1.2/src/apps/altcp_tls\altcp_tls_mbedtls.c ****   int ret;
 784              		.loc 1 817 1
 785 000c AA84     		mv	s1,a0
 786 000e 2E89     		mv	s2,a1
 819:C:/Users/stapi/OneDrive/Desktop/GD32VW553/GD32VW55X_Wifi_BLE_SDK/GD32VW55x_RELEASE_V1.0.2/MSDK/lwip/lwip-2.1.2/src/apps/altcp_tls\altcp_tls_mbedtls.c ****   if (conf == NULL) {
 787              		.loc 1 819 35
 788 0010 0145     		li	a0,0
 789              	.LVL90:
 817:C:/Users/stapi/OneDrive/Desktop/GD32VW553/GD32VW55X_Wifi_BLE_SDK/GD32VW55x_RELEASE_V1.0.2/MSDK/lwip/lwip-2.1.2/src/apps/altcp_tls\altcp_tls_mbedtls.c ****   int ret;
 790              		.loc 1 817 1
 791 0012 B285     		mv	a1,a2
 792              	.LVL91:
 819:C:/Users/stapi/OneDrive/Desktop/GD32VW553/GD32VW55X_Wifi_BLE_SDK/GD32VW55x_RELEASE_V1.0.2/MSDK/lwip/lwip-2.1.2/src/apps/altcp_tls\altcp_tls_mbedtls.c ****   if (conf == NULL) {
 793              		.loc 1 819 35
 794 0014 97000000 		call	altcp_tls_create_config
 794      E7800000 
 795              	.LVL92:
 796 001c 2A84     		mv	s0,a0
 797              	.LVL93:
 820:C:/Users/stapi/OneDrive/Desktop/GD32VW553/GD32VW55X_Wifi_BLE_SDK/GD32VW55x_RELEASE_V1.0.2/MSDK/lwip/lwip-2.1.2/src/apps/altcp_tls\altcp_tls_mbedtls.c ****     return NULL;
 798              		.loc 1 820 3 is_stmt 1
 820:C:/Users/stapi/OneDrive/Desktop/GD32VW553/GD32VW55X_Wifi_BLE_SDK/GD32VW55x_RELEASE_V1.0.2/MSDK/lwip/lwip-2.1.2/src/apps/altcp_tls\altcp_tls_mbedtls.c ****     return NULL;
 799              		.loc 1 820 6 is_stmt 0
 800 001e 1DC5     		beq	a0,zero,.L125
 827:C:/Users/stapi/OneDrive/Desktop/GD32VW553/GD32VW55X_Wifi_BLE_SDK/GD32VW55x_RELEASE_V1.0.2/MSDK/lwip/lwip-2.1.2/src/apps/altcp_tls\altcp_tls_mbedtls.c ****     mbedtls_x509_crt_init(conf->ca);
 801              		.loc 1 827 3 is_stmt 1
 827:C:/Users/stapi/OneDrive/Desktop/GD32VW553/GD32VW55X_Wifi_BLE_SDK/GD32VW55x_RELEASE_V1.0.2/MSDK/lwip/lwip-2.1.2/src/apps/altcp_tls\altcp_tls_mbedtls.c ****     mbedtls_x509_crt_init(conf->ca);
 802              		.loc 1 827 6 is_stmt 0
 803 0020 95C4     		beq	s1,zero,.L125
 828:C:/Users/stapi/OneDrive/Desktop/GD32VW553/GD32VW55X_Wifi_BLE_SDK/GD32VW55x_RELEASE_V1.0.2/MSDK/lwip/lwip-2.1.2/src/apps/altcp_tls\altcp_tls_mbedtls.c ****     ret = mbedtls_x509_crt_parse(conf->ca, ca, ca_len);
 804              		.loc 1 828 5 is_stmt 1
 805 0022 0325C539 		lw	a0,924(a0)
 806 0026 97000000 		call	mbedtls_x509_crt_init
 806      E7800000 
 807              	.LVL94:
 829:C:/Users/stapi/OneDrive/Desktop/GD32VW553/GD32VW55X_Wifi_BLE_SDK/GD32VW55x_RELEASE_V1.0.2/MSDK/lwip/lwip-2.1.2/src/apps/altcp_tls\altcp_tls_mbedtls.c ****     if (ret != 0) {
 808              		.loc 1 829 5
 829:C:/Users/stapi/OneDrive/Desktop/GD32VW553/GD32VW55X_Wifi_BLE_SDK/GD32VW55x_RELEASE_V1.0.2/MSDK/lwip/lwip-2.1.2/src/apps/altcp_tls\altcp_tls_mbedtls.c ****     if (ret != 0) {
 809              		.loc 1 829 11 is_stmt 0
 810 002e 0325C439 		lw	a0,924(s0)
 811 0032 4A86     		mv	a2,s2
 812 0034 A685     		mv	a1,s1
 813 0036 97000000 		call	mbedtls_x509_crt_parse
 813      E7800000 
 814              	.LVL95:
 830:C:/Users/stapi/OneDrive/Desktop/GD32VW553/GD32VW55X_Wifi_BLE_SDK/GD32VW55x_RELEASE_V1.0.2/MSDK/lwip/lwip-2.1.2/src/apps/altcp_tls\altcp_tls_mbedtls.c ****       LWIP_DEBUGF(ALTCP_MBEDTLS_DEBUG, ("mbedtls_x509_crt_parse ca failed: %d 0x%x", ret, -1*ret));
 815              		.loc 1 830 5 is_stmt 1
 830:C:/Users/stapi/OneDrive/Desktop/GD32VW553/GD32VW55X_Wifi_BLE_SDK/GD32VW55x_RELEASE_V1.0.2/MSDK/lwip/lwip-2.1.2/src/apps/altcp_tls\altcp_tls_mbedtls.c ****       LWIP_DEBUGF(ALTCP_MBEDTLS_DEBUG, ("mbedtls_x509_crt_parse ca failed: %d 0x%x", ret, -1*ret));
 816              		.loc 1 830 8 is_stmt 0
 817 003e 01CD     		beq	a0,zero,.L127
 831:C:/Users/stapi/OneDrive/Desktop/GD32VW553/GD32VW55X_Wifi_BLE_SDK/GD32VW55x_RELEASE_V1.0.2/MSDK/lwip/lwip-2.1.2/src/apps/altcp_tls\altcp_tls_mbedtls.c ****       altcp_mbedtls_free_config(conf);
 818              		.loc 1 831 99 is_stmt 1
 832:C:/Users/stapi/OneDrive/Desktop/GD32VW553/GD32VW55X_Wifi_BLE_SDK/GD32VW55x_RELEASE_V1.0.2/MSDK/lwip/lwip-2.1.2/src/apps/altcp_tls\altcp_tls_mbedtls.c ****       return NULL;
 819              		.loc 1 832 7
 820 0040 2285     		mv	a0,s0
 821              	.LVL96:
 822 0042 97000000 		call	altcp_mbedtls_free_config
 822      E7800000 
 823              	.LVL97:
 833:C:/Users/stapi/OneDrive/Desktop/GD32VW553/GD32VW55X_Wifi_BLE_SDK/GD32VW55x_RELEASE_V1.0.2/MSDK/lwip/lwip-2.1.2/src/apps/altcp_tls\altcp_tls_mbedtls.c ****     }
 824              		.loc 1 833 7
 833:C:/Users/stapi/OneDrive/Desktop/GD32VW553/GD32VW55X_Wifi_BLE_SDK/GD32VW55x_RELEASE_V1.0.2/MSDK/lwip/lwip-2.1.2/src/apps/altcp_tls\altcp_tls_mbedtls.c ****     }
 825              		.loc 1 833 14 is_stmt 0
 826 004a 0144     		li	s0,0
 827              	.LVL98:
 828              	.L125:
 839:C:/Users/stapi/OneDrive/Desktop/GD32VW553/GD32VW55X_Wifi_BLE_SDK/GD32VW55x_RELEASE_V1.0.2/MSDK/lwip/lwip-2.1.2/src/apps/altcp_tls\altcp_tls_mbedtls.c **** 
 829              		.loc 1 839 1
 830 004c 2285     		mv	a0,s0
 831 004e 17030000 		tail	__riscv_restore_3
 831      67000300 
 832              		.cfi_remember_state
 833              		.cfi_restore 18
 834              		.cfi_restore 9
 835              		.cfi_restore 8
 836              		.cfi_restore 1
 837              		.cfi_def_cfa_offset 0
 838              	.LVL99:
 839              	.L127:
 840              		.cfi_restore_state
 836:C:/Users/stapi/OneDrive/Desktop/GD32VW553/GD32VW55X_Wifi_BLE_SDK/GD32VW55x_RELEASE_V1.0.2/MSDK/lwip/lwip-2.1.2/src/apps/altcp_tls\altcp_tls_mbedtls.c ****   }
 841              		.loc 1 836 5 is_stmt 1
 842 0056 8325C439 		lw	a1,924(s0)
 843 005a 0146     		li	a2,0
 844 005c 2285     		mv	a0,s0
 845              	.LVL100:
 846 005e 97000000 		call	mbedtls_ssl_conf_ca_chain
 846      E7800000 
 847              	.LVL101:
 848 0066 DDB7     		j	.L125
 849              		.cfi_endproc
 850              	.LFE408:
 852              		.section	.text.altcp_mbedtls_dealloc,"ax",@progbits
 853              		.align	1
 855              	altcp_mbedtls_dealloc:
 856              	.LFB423:
1001:C:/Users/stapi/OneDrive/Desktop/GD32VW553/GD32VW55X_Wifi_BLE_SDK/GD32VW55x_RELEASE_V1.0.2/MSDK/lwip/lwip-2.1.2/src/apps/altcp_tls\altcp_tls_mbedtls.c ****   }
1002:C:/Users/stapi/OneDrive/Desktop/GD32VW553/GD32VW55X_Wifi_BLE_SDK/GD32VW55x_RELEASE_V1.0.2/MSDK/lwip/lwip-2.1.2/src/apps/altcp_tls\altcp_tls_mbedtls.c **** }
1003:C:/Users/stapi/OneDrive/Desktop/GD32VW553/GD32VW55X_Wifi_BLE_SDK/GD32VW55x_RELEASE_V1.0.2/MSDK/lwip/lwip-2.1.2/src/apps/altcp_tls\altcp_tls_mbedtls.c **** 
1004:C:/Users/stapi/OneDrive/Desktop/GD32VW553/GD32VW55X_Wifi_BLE_SDK/GD32VW55x_RELEASE_V1.0.2/MSDK/lwip/lwip-2.1.2/src/apps/altcp_tls\altcp_tls_mbedtls.c **** static err_t
1005:C:/Users/stapi/OneDrive/Desktop/GD32VW553/GD32VW55X_Wifi_BLE_SDK/GD32VW55x_RELEASE_V1.0.2/MSDK/lwip/lwip-2.1.2/src/apps/altcp_tls\altcp_tls_mbedtls.c **** altcp_mbedtls_close(struct altcp_pcb *conn)
1006:C:/Users/stapi/OneDrive/Desktop/GD32VW553/GD32VW55X_Wifi_BLE_SDK/GD32VW55x_RELEASE_V1.0.2/MSDK/lwip/lwip-2.1.2/src/apps/altcp_tls\altcp_tls_mbedtls.c **** {
1007:C:/Users/stapi/OneDrive/Desktop/GD32VW553/GD32VW55X_Wifi_BLE_SDK/GD32VW55x_RELEASE_V1.0.2/MSDK/lwip/lwip-2.1.2/src/apps/altcp_tls\altcp_tls_mbedtls.c ****   struct altcp_pcb *inner_conn;
1008:C:/Users/stapi/OneDrive/Desktop/GD32VW553/GD32VW55X_Wifi_BLE_SDK/GD32VW55x_RELEASE_V1.0.2/MSDK/lwip/lwip-2.1.2/src/apps/altcp_tls\altcp_tls_mbedtls.c ****   if (conn == NULL) {
1009:C:/Users/stapi/OneDrive/Desktop/GD32VW553/GD32VW55X_Wifi_BLE_SDK/GD32VW55x_RELEASE_V1.0.2/MSDK/lwip/lwip-2.1.2/src/apps/altcp_tls\altcp_tls_mbedtls.c ****     return ERR_VAL;
1010:C:/Users/stapi/OneDrive/Desktop/GD32VW553/GD32VW55X_Wifi_BLE_SDK/GD32VW55x_RELEASE_V1.0.2/MSDK/lwip/lwip-2.1.2/src/apps/altcp_tls\altcp_tls_mbedtls.c ****   }
1011:C:/Users/stapi/OneDrive/Desktop/GD32VW553/GD32VW55X_Wifi_BLE_SDK/GD32VW55x_RELEASE_V1.0.2/MSDK/lwip/lwip-2.1.2/src/apps/altcp_tls\altcp_tls_mbedtls.c ****   inner_conn = conn->inner_conn;
1012:C:/Users/stapi/OneDrive/Desktop/GD32VW553/GD32VW55X_Wifi_BLE_SDK/GD32VW55x_RELEASE_V1.0.2/MSDK/lwip/lwip-2.1.2/src/apps/altcp_tls\altcp_tls_mbedtls.c ****   if (inner_conn) {
1013:C:/Users/stapi/OneDrive/Desktop/GD32VW553/GD32VW55X_Wifi_BLE_SDK/GD32VW55x_RELEASE_V1.0.2/MSDK/lwip/lwip-2.1.2/src/apps/altcp_tls\altcp_tls_mbedtls.c ****     err_t err;
1014:C:/Users/stapi/OneDrive/Desktop/GD32VW553/GD32VW55X_Wifi_BLE_SDK/GD32VW55x_RELEASE_V1.0.2/MSDK/lwip/lwip-2.1.2/src/apps/altcp_tls\altcp_tls_mbedtls.c ****     altcp_poll_fn oldpoll = inner_conn->poll;
1015:C:/Users/stapi/OneDrive/Desktop/GD32VW553/GD32VW55X_Wifi_BLE_SDK/GD32VW55x_RELEASE_V1.0.2/MSDK/lwip/lwip-2.1.2/src/apps/altcp_tls\altcp_tls_mbedtls.c ****     altcp_mbedtls_remove_callbacks(conn->inner_conn);
1016:C:/Users/stapi/OneDrive/Desktop/GD32VW553/GD32VW55X_Wifi_BLE_SDK/GD32VW55x_RELEASE_V1.0.2/MSDK/lwip/lwip-2.1.2/src/apps/altcp_tls\altcp_tls_mbedtls.c ****     err = altcp_close(conn->inner_conn);
1017:C:/Users/stapi/OneDrive/Desktop/GD32VW553/GD32VW55X_Wifi_BLE_SDK/GD32VW55x_RELEASE_V1.0.2/MSDK/lwip/lwip-2.1.2/src/apps/altcp_tls\altcp_tls_mbedtls.c ****     if (err != ERR_OK) {
1018:C:/Users/stapi/OneDrive/Desktop/GD32VW553/GD32VW55X_Wifi_BLE_SDK/GD32VW55x_RELEASE_V1.0.2/MSDK/lwip/lwip-2.1.2/src/apps/altcp_tls\altcp_tls_mbedtls.c ****       /* not closed, set up all callbacks again */
1019:C:/Users/stapi/OneDrive/Desktop/GD32VW553/GD32VW55X_Wifi_BLE_SDK/GD32VW55x_RELEASE_V1.0.2/MSDK/lwip/lwip-2.1.2/src/apps/altcp_tls\altcp_tls_mbedtls.c ****       altcp_mbedtls_setup_callbacks(conn, inner_conn);
1020:C:/Users/stapi/OneDrive/Desktop/GD32VW553/GD32VW55X_Wifi_BLE_SDK/GD32VW55x_RELEASE_V1.0.2/MSDK/lwip/lwip-2.1.2/src/apps/altcp_tls\altcp_tls_mbedtls.c ****       /* poll callback is not included in the above */
1021:C:/Users/stapi/OneDrive/Desktop/GD32VW553/GD32VW55X_Wifi_BLE_SDK/GD32VW55x_RELEASE_V1.0.2/MSDK/lwip/lwip-2.1.2/src/apps/altcp_tls\altcp_tls_mbedtls.c ****       altcp_poll(inner_conn, oldpoll, inner_conn->pollinterval);
1022:C:/Users/stapi/OneDrive/Desktop/GD32VW553/GD32VW55X_Wifi_BLE_SDK/GD32VW55x_RELEASE_V1.0.2/MSDK/lwip/lwip-2.1.2/src/apps/altcp_tls\altcp_tls_mbedtls.c ****       return err;
1023:C:/Users/stapi/OneDrive/Desktop/GD32VW553/GD32VW55X_Wifi_BLE_SDK/GD32VW55x_RELEASE_V1.0.2/MSDK/lwip/lwip-2.1.2/src/apps/altcp_tls\altcp_tls_mbedtls.c ****     }
1024:C:/Users/stapi/OneDrive/Desktop/GD32VW553/GD32VW55X_Wifi_BLE_SDK/GD32VW55x_RELEASE_V1.0.2/MSDK/lwip/lwip-2.1.2/src/apps/altcp_tls\altcp_tls_mbedtls.c ****     conn->inner_conn = NULL;
1025:C:/Users/stapi/OneDrive/Desktop/GD32VW553/GD32VW55X_Wifi_BLE_SDK/GD32VW55x_RELEASE_V1.0.2/MSDK/lwip/lwip-2.1.2/src/apps/altcp_tls\altcp_tls_mbedtls.c ****   }
1026:C:/Users/stapi/OneDrive/Desktop/GD32VW553/GD32VW55X_Wifi_BLE_SDK/GD32VW55x_RELEASE_V1.0.2/MSDK/lwip/lwip-2.1.2/src/apps/altcp_tls\altcp_tls_mbedtls.c ****   altcp_free(conn);
1027:C:/Users/stapi/OneDrive/Desktop/GD32VW553/GD32VW55X_Wifi_BLE_SDK/GD32VW55x_RELEASE_V1.0.2/MSDK/lwip/lwip-2.1.2/src/apps/altcp_tls\altcp_tls_mbedtls.c ****   return ERR_OK;
1028:C:/Users/stapi/OneDrive/Desktop/GD32VW553/GD32VW55X_Wifi_BLE_SDK/GD32VW55x_RELEASE_V1.0.2/MSDK/lwip/lwip-2.1.2/src/apps/altcp_tls\altcp_tls_mbedtls.c **** }
1029:C:/Users/stapi/OneDrive/Desktop/GD32VW553/GD32VW55X_Wifi_BLE_SDK/GD32VW55x_RELEASE_V1.0.2/MSDK/lwip/lwip-2.1.2/src/apps/altcp_tls\altcp_tls_mbedtls.c **** 
1030:C:/Users/stapi/OneDrive/Desktop/GD32VW553/GD32VW55X_Wifi_BLE_SDK/GD32VW55x_RELEASE_V1.0.2/MSDK/lwip/lwip-2.1.2/src/apps/altcp_tls\altcp_tls_mbedtls.c **** /** Allow caller of altcp_write() to limit to negotiated chunk size
1031:C:/Users/stapi/OneDrive/Desktop/GD32VW553/GD32VW55X_Wifi_BLE_SDK/GD32VW55x_RELEASE_V1.0.2/MSDK/lwip/lwip-2.1.2/src/apps/altcp_tls\altcp_tls_mbedtls.c ****  *  or remaining sndbuf space of inner_conn.
1032:C:/Users/stapi/OneDrive/Desktop/GD32VW553/GD32VW55X_Wifi_BLE_SDK/GD32VW55x_RELEASE_V1.0.2/MSDK/lwip/lwip-2.1.2/src/apps/altcp_tls\altcp_tls_mbedtls.c ****  */
1033:C:/Users/stapi/OneDrive/Desktop/GD32VW553/GD32VW55X_Wifi_BLE_SDK/GD32VW55x_RELEASE_V1.0.2/MSDK/lwip/lwip-2.1.2/src/apps/altcp_tls\altcp_tls_mbedtls.c **** static u16_t
1034:C:/Users/stapi/OneDrive/Desktop/GD32VW553/GD32VW55X_Wifi_BLE_SDK/GD32VW55x_RELEASE_V1.0.2/MSDK/lwip/lwip-2.1.2/src/apps/altcp_tls\altcp_tls_mbedtls.c **** altcp_mbedtls_sndbuf(struct altcp_pcb *conn)
1035:C:/Users/stapi/OneDrive/Desktop/GD32VW553/GD32VW55X_Wifi_BLE_SDK/GD32VW55x_RELEASE_V1.0.2/MSDK/lwip/lwip-2.1.2/src/apps/altcp_tls\altcp_tls_mbedtls.c **** {
1036:C:/Users/stapi/OneDrive/Desktop/GD32VW553/GD32VW55X_Wifi_BLE_SDK/GD32VW55x_RELEASE_V1.0.2/MSDK/lwip/lwip-2.1.2/src/apps/altcp_tls\altcp_tls_mbedtls.c ****   if (conn) {
1037:C:/Users/stapi/OneDrive/Desktop/GD32VW553/GD32VW55X_Wifi_BLE_SDK/GD32VW55x_RELEASE_V1.0.2/MSDK/lwip/lwip-2.1.2/src/apps/altcp_tls\altcp_tls_mbedtls.c ****     altcp_mbedtls_state_t *state;
1038:C:/Users/stapi/OneDrive/Desktop/GD32VW553/GD32VW55X_Wifi_BLE_SDK/GD32VW55x_RELEASE_V1.0.2/MSDK/lwip/lwip-2.1.2/src/apps/altcp_tls\altcp_tls_mbedtls.c ****     state = (altcp_mbedtls_state_t*)conn->state;
1039:C:/Users/stapi/OneDrive/Desktop/GD32VW553/GD32VW55X_Wifi_BLE_SDK/GD32VW55x_RELEASE_V1.0.2/MSDK/lwip/lwip-2.1.2/src/apps/altcp_tls\altcp_tls_mbedtls.c ****     if (!state || !(state->flags & ALTCP_MBEDTLS_FLAGS_HANDSHAKE_DONE)) {
1040:C:/Users/stapi/OneDrive/Desktop/GD32VW553/GD32VW55X_Wifi_BLE_SDK/GD32VW55x_RELEASE_V1.0.2/MSDK/lwip/lwip-2.1.2/src/apps/altcp_tls\altcp_tls_mbedtls.c ****       return 0;
1041:C:/Users/stapi/OneDrive/Desktop/GD32VW553/GD32VW55X_Wifi_BLE_SDK/GD32VW55x_RELEASE_V1.0.2/MSDK/lwip/lwip-2.1.2/src/apps/altcp_tls\altcp_tls_mbedtls.c ****     }
1042:C:/Users/stapi/OneDrive/Desktop/GD32VW553/GD32VW55X_Wifi_BLE_SDK/GD32VW55x_RELEASE_V1.0.2/MSDK/lwip/lwip-2.1.2/src/apps/altcp_tls\altcp_tls_mbedtls.c ****     if (conn->inner_conn) {
1043:C:/Users/stapi/OneDrive/Desktop/GD32VW553/GD32VW55X_Wifi_BLE_SDK/GD32VW55x_RELEASE_V1.0.2/MSDK/lwip/lwip-2.1.2/src/apps/altcp_tls\altcp_tls_mbedtls.c ****       u16_t sndbuf = altcp_sndbuf(conn->inner_conn);
1044:C:/Users/stapi/OneDrive/Desktop/GD32VW553/GD32VW55X_Wifi_BLE_SDK/GD32VW55x_RELEASE_V1.0.2/MSDK/lwip/lwip-2.1.2/src/apps/altcp_tls\altcp_tls_mbedtls.c ****       /* Take care of record header, IV, AuthTag */
1045:C:/Users/stapi/OneDrive/Desktop/GD32VW553/GD32VW55X_Wifi_BLE_SDK/GD32VW55x_RELEASE_V1.0.2/MSDK/lwip/lwip-2.1.2/src/apps/altcp_tls\altcp_tls_mbedtls.c ****       int ssl_expan = mbedtls_ssl_get_record_expansion(&state->ssl_context);
1046:C:/Users/stapi/OneDrive/Desktop/GD32VW553/GD32VW55X_Wifi_BLE_SDK/GD32VW55x_RELEASE_V1.0.2/MSDK/lwip/lwip-2.1.2/src/apps/altcp_tls\altcp_tls_mbedtls.c ****       if (ssl_expan > 0) {
1047:C:/Users/stapi/OneDrive/Desktop/GD32VW553/GD32VW55X_Wifi_BLE_SDK/GD32VW55x_RELEASE_V1.0.2/MSDK/lwip/lwip-2.1.2/src/apps/altcp_tls\altcp_tls_mbedtls.c ****         size_t ssl_added = (u16_t)LWIP_MIN(ssl_expan, 0xFFFF);
1048:C:/Users/stapi/OneDrive/Desktop/GD32VW553/GD32VW55X_Wifi_BLE_SDK/GD32VW55x_RELEASE_V1.0.2/MSDK/lwip/lwip-2.1.2/src/apps/altcp_tls\altcp_tls_mbedtls.c ****         /* internal sndbuf smaller than our offset */
1049:C:/Users/stapi/OneDrive/Desktop/GD32VW553/GD32VW55X_Wifi_BLE_SDK/GD32VW55x_RELEASE_V1.0.2/MSDK/lwip/lwip-2.1.2/src/apps/altcp_tls\altcp_tls_mbedtls.c ****         if (ssl_added < sndbuf) {
1050:C:/Users/stapi/OneDrive/Desktop/GD32VW553/GD32VW55X_Wifi_BLE_SDK/GD32VW55x_RELEASE_V1.0.2/MSDK/lwip/lwip-2.1.2/src/apps/altcp_tls\altcp_tls_mbedtls.c ****           size_t max_len = 0xFFFF;
1051:C:/Users/stapi/OneDrive/Desktop/GD32VW553/GD32VW55X_Wifi_BLE_SDK/GD32VW55x_RELEASE_V1.0.2/MSDK/lwip/lwip-2.1.2/src/apps/altcp_tls\altcp_tls_mbedtls.c ****           size_t ret;
1052:C:/Users/stapi/OneDrive/Desktop/GD32VW553/GD32VW55X_Wifi_BLE_SDK/GD32VW55x_RELEASE_V1.0.2/MSDK/lwip/lwip-2.1.2/src/apps/altcp_tls\altcp_tls_mbedtls.c **** #if defined(MBEDTLS_SSL_MAX_FRAGMENT_LENGTH)
1053:C:/Users/stapi/OneDrive/Desktop/GD32VW553/GD32VW55X_Wifi_BLE_SDK/GD32VW55x_RELEASE_V1.0.2/MSDK/lwip/lwip-2.1.2/src/apps/altcp_tls\altcp_tls_mbedtls.c ****           /* @todo: adjust ssl_added to real value related to negociated cipher */
1054:C:/Users/stapi/OneDrive/Desktop/GD32VW553/GD32VW55X_Wifi_BLE_SDK/GD32VW55x_RELEASE_V1.0.2/MSDK/lwip/lwip-2.1.2/src/apps/altcp_tls\altcp_tls_mbedtls.c ****           size_t max_frag_len = mbedtls_ssl_get_max_frag_len(&state->ssl_context);
1055:C:/Users/stapi/OneDrive/Desktop/GD32VW553/GD32VW55X_Wifi_BLE_SDK/GD32VW55x_RELEASE_V1.0.2/MSDK/lwip/lwip-2.1.2/src/apps/altcp_tls\altcp_tls_mbedtls.c ****           max_len = LWIP_MIN(max_frag_len, max_len);
1056:C:/Users/stapi/OneDrive/Desktop/GD32VW553/GD32VW55X_Wifi_BLE_SDK/GD32VW55x_RELEASE_V1.0.2/MSDK/lwip/lwip-2.1.2/src/apps/altcp_tls\altcp_tls_mbedtls.c **** #endif
1057:C:/Users/stapi/OneDrive/Desktop/GD32VW553/GD32VW55X_Wifi_BLE_SDK/GD32VW55x_RELEASE_V1.0.2/MSDK/lwip/lwip-2.1.2/src/apps/altcp_tls\altcp_tls_mbedtls.c ****           /* Adjust sndbuf of inner_conn with what added by SSL */
1058:C:/Users/stapi/OneDrive/Desktop/GD32VW553/GD32VW55X_Wifi_BLE_SDK/GD32VW55x_RELEASE_V1.0.2/MSDK/lwip/lwip-2.1.2/src/apps/altcp_tls\altcp_tls_mbedtls.c ****           ret = LWIP_MIN(sndbuf - ssl_added, max_len);
1059:C:/Users/stapi/OneDrive/Desktop/GD32VW553/GD32VW55X_Wifi_BLE_SDK/GD32VW55x_RELEASE_V1.0.2/MSDK/lwip/lwip-2.1.2/src/apps/altcp_tls\altcp_tls_mbedtls.c ****           LWIP_ASSERT("sndbuf overflow", ret <= 0xFFFF);
1060:C:/Users/stapi/OneDrive/Desktop/GD32VW553/GD32VW55X_Wifi_BLE_SDK/GD32VW55x_RELEASE_V1.0.2/MSDK/lwip/lwip-2.1.2/src/apps/altcp_tls\altcp_tls_mbedtls.c ****           return (u16_t)ret;
1061:C:/Users/stapi/OneDrive/Desktop/GD32VW553/GD32VW55X_Wifi_BLE_SDK/GD32VW55x_RELEASE_V1.0.2/MSDK/lwip/lwip-2.1.2/src/apps/altcp_tls\altcp_tls_mbedtls.c ****         }
1062:C:/Users/stapi/OneDrive/Desktop/GD32VW553/GD32VW55X_Wifi_BLE_SDK/GD32VW55x_RELEASE_V1.0.2/MSDK/lwip/lwip-2.1.2/src/apps/altcp_tls\altcp_tls_mbedtls.c ****       }
1063:C:/Users/stapi/OneDrive/Desktop/GD32VW553/GD32VW55X_Wifi_BLE_SDK/GD32VW55x_RELEASE_V1.0.2/MSDK/lwip/lwip-2.1.2/src/apps/altcp_tls\altcp_tls_mbedtls.c ****     }
1064:C:/Users/stapi/OneDrive/Desktop/GD32VW553/GD32VW55X_Wifi_BLE_SDK/GD32VW55x_RELEASE_V1.0.2/MSDK/lwip/lwip-2.1.2/src/apps/altcp_tls\altcp_tls_mbedtls.c ****   }
1065:C:/Users/stapi/OneDrive/Desktop/GD32VW553/GD32VW55X_Wifi_BLE_SDK/GD32VW55x_RELEASE_V1.0.2/MSDK/lwip/lwip-2.1.2/src/apps/altcp_tls\altcp_tls_mbedtls.c ****   /* fallback: use sendbuf of the inner connection */
1066:C:/Users/stapi/OneDrive/Desktop/GD32VW553/GD32VW55X_Wifi_BLE_SDK/GD32VW55x_RELEASE_V1.0.2/MSDK/lwip/lwip-2.1.2/src/apps/altcp_tls\altcp_tls_mbedtls.c ****   return altcp_default_sndbuf(conn);
1067:C:/Users/stapi/OneDrive/Desktop/GD32VW553/GD32VW55X_Wifi_BLE_SDK/GD32VW55x_RELEASE_V1.0.2/MSDK/lwip/lwip-2.1.2/src/apps/altcp_tls\altcp_tls_mbedtls.c **** }
1068:C:/Users/stapi/OneDrive/Desktop/GD32VW553/GD32VW55X_Wifi_BLE_SDK/GD32VW55x_RELEASE_V1.0.2/MSDK/lwip/lwip-2.1.2/src/apps/altcp_tls\altcp_tls_mbedtls.c **** 
1069:C:/Users/stapi/OneDrive/Desktop/GD32VW553/GD32VW55X_Wifi_BLE_SDK/GD32VW55x_RELEASE_V1.0.2/MSDK/lwip/lwip-2.1.2/src/apps/altcp_tls\altcp_tls_mbedtls.c **** /** Write data to a TLS connection. Calls into mbedTLS, which in turn calls into
1070:C:/Users/stapi/OneDrive/Desktop/GD32VW553/GD32VW55X_Wifi_BLE_SDK/GD32VW55x_RELEASE_V1.0.2/MSDK/lwip/lwip-2.1.2/src/apps/altcp_tls\altcp_tls_mbedtls.c ****  * @ref altcp_mbedtls_bio_send() to send the encrypted data
1071:C:/Users/stapi/OneDrive/Desktop/GD32VW553/GD32VW55X_Wifi_BLE_SDK/GD32VW55x_RELEASE_V1.0.2/MSDK/lwip/lwip-2.1.2/src/apps/altcp_tls\altcp_tls_mbedtls.c ****  */
1072:C:/Users/stapi/OneDrive/Desktop/GD32VW553/GD32VW55X_Wifi_BLE_SDK/GD32VW55x_RELEASE_V1.0.2/MSDK/lwip/lwip-2.1.2/src/apps/altcp_tls\altcp_tls_mbedtls.c **** static err_t
1073:C:/Users/stapi/OneDrive/Desktop/GD32VW553/GD32VW55X_Wifi_BLE_SDK/GD32VW55x_RELEASE_V1.0.2/MSDK/lwip/lwip-2.1.2/src/apps/altcp_tls\altcp_tls_mbedtls.c **** altcp_mbedtls_write(struct altcp_pcb *conn, const void *dataptr, u16_t len, u8_t apiflags)
1074:C:/Users/stapi/OneDrive/Desktop/GD32VW553/GD32VW55X_Wifi_BLE_SDK/GD32VW55x_RELEASE_V1.0.2/MSDK/lwip/lwip-2.1.2/src/apps/altcp_tls\altcp_tls_mbedtls.c **** {
1075:C:/Users/stapi/OneDrive/Desktop/GD32VW553/GD32VW55X_Wifi_BLE_SDK/GD32VW55x_RELEASE_V1.0.2/MSDK/lwip/lwip-2.1.2/src/apps/altcp_tls\altcp_tls_mbedtls.c ****   int ret;
1076:C:/Users/stapi/OneDrive/Desktop/GD32VW553/GD32VW55X_Wifi_BLE_SDK/GD32VW55x_RELEASE_V1.0.2/MSDK/lwip/lwip-2.1.2/src/apps/altcp_tls\altcp_tls_mbedtls.c ****   altcp_mbedtls_state_t *state;
1077:C:/Users/stapi/OneDrive/Desktop/GD32VW553/GD32VW55X_Wifi_BLE_SDK/GD32VW55x_RELEASE_V1.0.2/MSDK/lwip/lwip-2.1.2/src/apps/altcp_tls\altcp_tls_mbedtls.c **** 
1078:C:/Users/stapi/OneDrive/Desktop/GD32VW553/GD32VW55X_Wifi_BLE_SDK/GD32VW55x_RELEASE_V1.0.2/MSDK/lwip/lwip-2.1.2/src/apps/altcp_tls\altcp_tls_mbedtls.c ****   LWIP_UNUSED_ARG(apiflags);
1079:C:/Users/stapi/OneDrive/Desktop/GD32VW553/GD32VW55X_Wifi_BLE_SDK/GD32VW55x_RELEASE_V1.0.2/MSDK/lwip/lwip-2.1.2/src/apps/altcp_tls\altcp_tls_mbedtls.c **** 
1080:C:/Users/stapi/OneDrive/Desktop/GD32VW553/GD32VW55X_Wifi_BLE_SDK/GD32VW55x_RELEASE_V1.0.2/MSDK/lwip/lwip-2.1.2/src/apps/altcp_tls\altcp_tls_mbedtls.c ****   if (conn == NULL) {
1081:C:/Users/stapi/OneDrive/Desktop/GD32VW553/GD32VW55X_Wifi_BLE_SDK/GD32VW55x_RELEASE_V1.0.2/MSDK/lwip/lwip-2.1.2/src/apps/altcp_tls\altcp_tls_mbedtls.c ****     return ERR_VAL;
1082:C:/Users/stapi/OneDrive/Desktop/GD32VW553/GD32VW55X_Wifi_BLE_SDK/GD32VW55x_RELEASE_V1.0.2/MSDK/lwip/lwip-2.1.2/src/apps/altcp_tls\altcp_tls_mbedtls.c ****   }
1083:C:/Users/stapi/OneDrive/Desktop/GD32VW553/GD32VW55X_Wifi_BLE_SDK/GD32VW55x_RELEASE_V1.0.2/MSDK/lwip/lwip-2.1.2/src/apps/altcp_tls\altcp_tls_mbedtls.c **** 
1084:C:/Users/stapi/OneDrive/Desktop/GD32VW553/GD32VW55X_Wifi_BLE_SDK/GD32VW55x_RELEASE_V1.0.2/MSDK/lwip/lwip-2.1.2/src/apps/altcp_tls\altcp_tls_mbedtls.c ****   state = (altcp_mbedtls_state_t *)conn->state;
1085:C:/Users/stapi/OneDrive/Desktop/GD32VW553/GD32VW55X_Wifi_BLE_SDK/GD32VW55x_RELEASE_V1.0.2/MSDK/lwip/lwip-2.1.2/src/apps/altcp_tls\altcp_tls_mbedtls.c ****   if (state == NULL) {
1086:C:/Users/stapi/OneDrive/Desktop/GD32VW553/GD32VW55X_Wifi_BLE_SDK/GD32VW55x_RELEASE_V1.0.2/MSDK/lwip/lwip-2.1.2/src/apps/altcp_tls\altcp_tls_mbedtls.c ****     /* @todo: which error? */
1087:C:/Users/stapi/OneDrive/Desktop/GD32VW553/GD32VW55X_Wifi_BLE_SDK/GD32VW55x_RELEASE_V1.0.2/MSDK/lwip/lwip-2.1.2/src/apps/altcp_tls\altcp_tls_mbedtls.c ****     return ERR_CLSD;
1088:C:/Users/stapi/OneDrive/Desktop/GD32VW553/GD32VW55X_Wifi_BLE_SDK/GD32VW55x_RELEASE_V1.0.2/MSDK/lwip/lwip-2.1.2/src/apps/altcp_tls\altcp_tls_mbedtls.c ****   }
1089:C:/Users/stapi/OneDrive/Desktop/GD32VW553/GD32VW55X_Wifi_BLE_SDK/GD32VW55x_RELEASE_V1.0.2/MSDK/lwip/lwip-2.1.2/src/apps/altcp_tls\altcp_tls_mbedtls.c ****   if (!(state->flags & ALTCP_MBEDTLS_FLAGS_HANDSHAKE_DONE)) {
1090:C:/Users/stapi/OneDrive/Desktop/GD32VW553/GD32VW55X_Wifi_BLE_SDK/GD32VW55x_RELEASE_V1.0.2/MSDK/lwip/lwip-2.1.2/src/apps/altcp_tls\altcp_tls_mbedtls.c ****     /* @todo: which error? */
1091:C:/Users/stapi/OneDrive/Desktop/GD32VW553/GD32VW55X_Wifi_BLE_SDK/GD32VW55x_RELEASE_V1.0.2/MSDK/lwip/lwip-2.1.2/src/apps/altcp_tls\altcp_tls_mbedtls.c ****     return ERR_VAL;
1092:C:/Users/stapi/OneDrive/Desktop/GD32VW553/GD32VW55X_Wifi_BLE_SDK/GD32VW55x_RELEASE_V1.0.2/MSDK/lwip/lwip-2.1.2/src/apps/altcp_tls\altcp_tls_mbedtls.c ****   }
1093:C:/Users/stapi/OneDrive/Desktop/GD32VW553/GD32VW55X_Wifi_BLE_SDK/GD32VW55x_RELEASE_V1.0.2/MSDK/lwip/lwip-2.1.2/src/apps/altcp_tls\altcp_tls_mbedtls.c **** 
1094:C:/Users/stapi/OneDrive/Desktop/GD32VW553/GD32VW55X_Wifi_BLE_SDK/GD32VW55x_RELEASE_V1.0.2/MSDK/lwip/lwip-2.1.2/src/apps/altcp_tls\altcp_tls_mbedtls.c ****   /* HACK: if thre is something left to send, try to flush it and only
1095:C:/Users/stapi/OneDrive/Desktop/GD32VW553/GD32VW55X_Wifi_BLE_SDK/GD32VW55x_RELEASE_V1.0.2/MSDK/lwip/lwip-2.1.2/src/apps/altcp_tls\altcp_tls_mbedtls.c ****      allow sending more if this succeeded (this is a hack because neither
1096:C:/Users/stapi/OneDrive/Desktop/GD32VW553/GD32VW55X_Wifi_BLE_SDK/GD32VW55x_RELEASE_V1.0.2/MSDK/lwip/lwip-2.1.2/src/apps/altcp_tls\altcp_tls_mbedtls.c ****      returning 0 nor MBEDTLS_ERR_SSL_WANT_WRITE worked for me) */
1097:C:/Users/stapi/OneDrive/Desktop/GD32VW553/GD32VW55X_Wifi_BLE_SDK/GD32VW55x_RELEASE_V1.0.2/MSDK/lwip/lwip-2.1.2/src/apps/altcp_tls\altcp_tls_mbedtls.c ****   if (state->ssl_context.out_left) {
1098:C:/Users/stapi/OneDrive/Desktop/GD32VW553/GD32VW55X_Wifi_BLE_SDK/GD32VW55x_RELEASE_V1.0.2/MSDK/lwip/lwip-2.1.2/src/apps/altcp_tls\altcp_tls_mbedtls.c ****     mbedtls_ssl_flush_output(&state->ssl_context);
1099:C:/Users/stapi/OneDrive/Desktop/GD32VW553/GD32VW55X_Wifi_BLE_SDK/GD32VW55x_RELEASE_V1.0.2/MSDK/lwip/lwip-2.1.2/src/apps/altcp_tls\altcp_tls_mbedtls.c ****     if (state->ssl_context.out_left) {
1100:C:/Users/stapi/OneDrive/Desktop/GD32VW553/GD32VW55X_Wifi_BLE_SDK/GD32VW55x_RELEASE_V1.0.2/MSDK/lwip/lwip-2.1.2/src/apps/altcp_tls\altcp_tls_mbedtls.c ****       return ERR_MEM;
1101:C:/Users/stapi/OneDrive/Desktop/GD32VW553/GD32VW55X_Wifi_BLE_SDK/GD32VW55x_RELEASE_V1.0.2/MSDK/lwip/lwip-2.1.2/src/apps/altcp_tls\altcp_tls_mbedtls.c ****     }
1102:C:/Users/stapi/OneDrive/Desktop/GD32VW553/GD32VW55X_Wifi_BLE_SDK/GD32VW55x_RELEASE_V1.0.2/MSDK/lwip/lwip-2.1.2/src/apps/altcp_tls\altcp_tls_mbedtls.c ****   }
1103:C:/Users/stapi/OneDrive/Desktop/GD32VW553/GD32VW55X_Wifi_BLE_SDK/GD32VW55x_RELEASE_V1.0.2/MSDK/lwip/lwip-2.1.2/src/apps/altcp_tls\altcp_tls_mbedtls.c ****   ret = mbedtls_ssl_write(&state->ssl_context, (const unsigned char *)dataptr, len);
1104:C:/Users/stapi/OneDrive/Desktop/GD32VW553/GD32VW55X_Wifi_BLE_SDK/GD32VW55x_RELEASE_V1.0.2/MSDK/lwip/lwip-2.1.2/src/apps/altcp_tls\altcp_tls_mbedtls.c ****   /* try to send data... */
1105:C:/Users/stapi/OneDrive/Desktop/GD32VW553/GD32VW55X_Wifi_BLE_SDK/GD32VW55x_RELEASE_V1.0.2/MSDK/lwip/lwip-2.1.2/src/apps/altcp_tls\altcp_tls_mbedtls.c ****   altcp_output(conn->inner_conn);
1106:C:/Users/stapi/OneDrive/Desktop/GD32VW553/GD32VW55X_Wifi_BLE_SDK/GD32VW55x_RELEASE_V1.0.2/MSDK/lwip/lwip-2.1.2/src/apps/altcp_tls\altcp_tls_mbedtls.c ****   if (ret >= 0) {
1107:C:/Users/stapi/OneDrive/Desktop/GD32VW553/GD32VW55X_Wifi_BLE_SDK/GD32VW55x_RELEASE_V1.0.2/MSDK/lwip/lwip-2.1.2/src/apps/altcp_tls\altcp_tls_mbedtls.c ****     if (ret == len) {
1108:C:/Users/stapi/OneDrive/Desktop/GD32VW553/GD32VW55X_Wifi_BLE_SDK/GD32VW55x_RELEASE_V1.0.2/MSDK/lwip/lwip-2.1.2/src/apps/altcp_tls\altcp_tls_mbedtls.c ****       state->flags |= ALTCP_MBEDTLS_FLAGS_APPLDATA_SENT;
1109:C:/Users/stapi/OneDrive/Desktop/GD32VW553/GD32VW55X_Wifi_BLE_SDK/GD32VW55x_RELEASE_V1.0.2/MSDK/lwip/lwip-2.1.2/src/apps/altcp_tls\altcp_tls_mbedtls.c ****       return ERR_OK;
1110:C:/Users/stapi/OneDrive/Desktop/GD32VW553/GD32VW55X_Wifi_BLE_SDK/GD32VW55x_RELEASE_V1.0.2/MSDK/lwip/lwip-2.1.2/src/apps/altcp_tls\altcp_tls_mbedtls.c ****     } else {
1111:C:/Users/stapi/OneDrive/Desktop/GD32VW553/GD32VW55X_Wifi_BLE_SDK/GD32VW55x_RELEASE_V1.0.2/MSDK/lwip/lwip-2.1.2/src/apps/altcp_tls\altcp_tls_mbedtls.c ****       /* @todo/@fixme: assumption: either everything sent or error */
1112:C:/Users/stapi/OneDrive/Desktop/GD32VW553/GD32VW55X_Wifi_BLE_SDK/GD32VW55x_RELEASE_V1.0.2/MSDK/lwip/lwip-2.1.2/src/apps/altcp_tls\altcp_tls_mbedtls.c ****       LWIP_ASSERT("ret <= 0", 0);
1113:C:/Users/stapi/OneDrive/Desktop/GD32VW553/GD32VW55X_Wifi_BLE_SDK/GD32VW55x_RELEASE_V1.0.2/MSDK/lwip/lwip-2.1.2/src/apps/altcp_tls\altcp_tls_mbedtls.c ****       return ERR_MEM;
1114:C:/Users/stapi/OneDrive/Desktop/GD32VW553/GD32VW55X_Wifi_BLE_SDK/GD32VW55x_RELEASE_V1.0.2/MSDK/lwip/lwip-2.1.2/src/apps/altcp_tls\altcp_tls_mbedtls.c ****     }
1115:C:/Users/stapi/OneDrive/Desktop/GD32VW553/GD32VW55X_Wifi_BLE_SDK/GD32VW55x_RELEASE_V1.0.2/MSDK/lwip/lwip-2.1.2/src/apps/altcp_tls\altcp_tls_mbedtls.c ****   } else {
1116:C:/Users/stapi/OneDrive/Desktop/GD32VW553/GD32VW55X_Wifi_BLE_SDK/GD32VW55x_RELEASE_V1.0.2/MSDK/lwip/lwip-2.1.2/src/apps/altcp_tls\altcp_tls_mbedtls.c ****     if (ret == MBEDTLS_ERR_SSL_WANT_WRITE) {
1117:C:/Users/stapi/OneDrive/Desktop/GD32VW553/GD32VW55X_Wifi_BLE_SDK/GD32VW55x_RELEASE_V1.0.2/MSDK/lwip/lwip-2.1.2/src/apps/altcp_tls\altcp_tls_mbedtls.c ****       /* @todo: convert error to err_t */
1118:C:/Users/stapi/OneDrive/Desktop/GD32VW553/GD32VW55X_Wifi_BLE_SDK/GD32VW55x_RELEASE_V1.0.2/MSDK/lwip/lwip-2.1.2/src/apps/altcp_tls\altcp_tls_mbedtls.c ****       return ERR_MEM;
1119:C:/Users/stapi/OneDrive/Desktop/GD32VW553/GD32VW55X_Wifi_BLE_SDK/GD32VW55x_RELEASE_V1.0.2/MSDK/lwip/lwip-2.1.2/src/apps/altcp_tls\altcp_tls_mbedtls.c ****     }
1120:C:/Users/stapi/OneDrive/Desktop/GD32VW553/GD32VW55X_Wifi_BLE_SDK/GD32VW55x_RELEASE_V1.0.2/MSDK/lwip/lwip-2.1.2/src/apps/altcp_tls\altcp_tls_mbedtls.c ****     LWIP_ASSERT("unhandled error", 0);
1121:C:/Users/stapi/OneDrive/Desktop/GD32VW553/GD32VW55X_Wifi_BLE_SDK/GD32VW55x_RELEASE_V1.0.2/MSDK/lwip/lwip-2.1.2/src/apps/altcp_tls\altcp_tls_mbedtls.c ****     return ERR_VAL;
1122:C:/Users/stapi/OneDrive/Desktop/GD32VW553/GD32VW55X_Wifi_BLE_SDK/GD32VW55x_RELEASE_V1.0.2/MSDK/lwip/lwip-2.1.2/src/apps/altcp_tls\altcp_tls_mbedtls.c ****   }
1123:C:/Users/stapi/OneDrive/Desktop/GD32VW553/GD32VW55X_Wifi_BLE_SDK/GD32VW55x_RELEASE_V1.0.2/MSDK/lwip/lwip-2.1.2/src/apps/altcp_tls\altcp_tls_mbedtls.c **** }
1124:C:/Users/stapi/OneDrive/Desktop/GD32VW553/GD32VW55X_Wifi_BLE_SDK/GD32VW55x_RELEASE_V1.0.2/MSDK/lwip/lwip-2.1.2/src/apps/altcp_tls\altcp_tls_mbedtls.c **** 
1125:C:/Users/stapi/OneDrive/Desktop/GD32VW553/GD32VW55X_Wifi_BLE_SDK/GD32VW55x_RELEASE_V1.0.2/MSDK/lwip/lwip-2.1.2/src/apps/altcp_tls\altcp_tls_mbedtls.c **** /** Send callback function called from mbedtls (set via mbedtls_ssl_set_bio)
1126:C:/Users/stapi/OneDrive/Desktop/GD32VW553/GD32VW55X_Wifi_BLE_SDK/GD32VW55x_RELEASE_V1.0.2/MSDK/lwip/lwip-2.1.2/src/apps/altcp_tls\altcp_tls_mbedtls.c ****  * This function is either called during handshake or when sending application
1127:C:/Users/stapi/OneDrive/Desktop/GD32VW553/GD32VW55X_Wifi_BLE_SDK/GD32VW55x_RELEASE_V1.0.2/MSDK/lwip/lwip-2.1.2/src/apps/altcp_tls\altcp_tls_mbedtls.c ****  * data via @ref altcp_mbedtls_write (or altcp_write)
1128:C:/Users/stapi/OneDrive/Desktop/GD32VW553/GD32VW55X_Wifi_BLE_SDK/GD32VW55x_RELEASE_V1.0.2/MSDK/lwip/lwip-2.1.2/src/apps/altcp_tls\altcp_tls_mbedtls.c ****  */
1129:C:/Users/stapi/OneDrive/Desktop/GD32VW553/GD32VW55X_Wifi_BLE_SDK/GD32VW55x_RELEASE_V1.0.2/MSDK/lwip/lwip-2.1.2/src/apps/altcp_tls\altcp_tls_mbedtls.c **** static int
1130:C:/Users/stapi/OneDrive/Desktop/GD32VW553/GD32VW55X_Wifi_BLE_SDK/GD32VW55x_RELEASE_V1.0.2/MSDK/lwip/lwip-2.1.2/src/apps/altcp_tls\altcp_tls_mbedtls.c **** altcp_mbedtls_bio_send(void *ctx, const unsigned char *dataptr, size_t size)
1131:C:/Users/stapi/OneDrive/Desktop/GD32VW553/GD32VW55X_Wifi_BLE_SDK/GD32VW55x_RELEASE_V1.0.2/MSDK/lwip/lwip-2.1.2/src/apps/altcp_tls\altcp_tls_mbedtls.c **** {
1132:C:/Users/stapi/OneDrive/Desktop/GD32VW553/GD32VW55X_Wifi_BLE_SDK/GD32VW55x_RELEASE_V1.0.2/MSDK/lwip/lwip-2.1.2/src/apps/altcp_tls\altcp_tls_mbedtls.c ****   struct altcp_pcb *conn = (struct altcp_pcb *) ctx;
1133:C:/Users/stapi/OneDrive/Desktop/GD32VW553/GD32VW55X_Wifi_BLE_SDK/GD32VW55x_RELEASE_V1.0.2/MSDK/lwip/lwip-2.1.2/src/apps/altcp_tls\altcp_tls_mbedtls.c ****   int written = 0;
1134:C:/Users/stapi/OneDrive/Desktop/GD32VW553/GD32VW55X_Wifi_BLE_SDK/GD32VW55x_RELEASE_V1.0.2/MSDK/lwip/lwip-2.1.2/src/apps/altcp_tls\altcp_tls_mbedtls.c ****   size_t size_left = size;
1135:C:/Users/stapi/OneDrive/Desktop/GD32VW553/GD32VW55X_Wifi_BLE_SDK/GD32VW55x_RELEASE_V1.0.2/MSDK/lwip/lwip-2.1.2/src/apps/altcp_tls\altcp_tls_mbedtls.c ****   u8_t apiflags = TCP_WRITE_FLAG_COPY;
1136:C:/Users/stapi/OneDrive/Desktop/GD32VW553/GD32VW55X_Wifi_BLE_SDK/GD32VW55x_RELEASE_V1.0.2/MSDK/lwip/lwip-2.1.2/src/apps/altcp_tls\altcp_tls_mbedtls.c **** 
1137:C:/Users/stapi/OneDrive/Desktop/GD32VW553/GD32VW55X_Wifi_BLE_SDK/GD32VW55x_RELEASE_V1.0.2/MSDK/lwip/lwip-2.1.2/src/apps/altcp_tls\altcp_tls_mbedtls.c ****   LWIP_ASSERT("conn != NULL", conn != NULL);
1138:C:/Users/stapi/OneDrive/Desktop/GD32VW553/GD32VW55X_Wifi_BLE_SDK/GD32VW55x_RELEASE_V1.0.2/MSDK/lwip/lwip-2.1.2/src/apps/altcp_tls\altcp_tls_mbedtls.c ****   if ((conn == NULL) || (conn->inner_conn == NULL)) {
1139:C:/Users/stapi/OneDrive/Desktop/GD32VW553/GD32VW55X_Wifi_BLE_SDK/GD32VW55x_RELEASE_V1.0.2/MSDK/lwip/lwip-2.1.2/src/apps/altcp_tls\altcp_tls_mbedtls.c ****     return MBEDTLS_ERR_NET_INVALID_CONTEXT;
1140:C:/Users/stapi/OneDrive/Desktop/GD32VW553/GD32VW55X_Wifi_BLE_SDK/GD32VW55x_RELEASE_V1.0.2/MSDK/lwip/lwip-2.1.2/src/apps/altcp_tls\altcp_tls_mbedtls.c ****   }
1141:C:/Users/stapi/OneDrive/Desktop/GD32VW553/GD32VW55X_Wifi_BLE_SDK/GD32VW55x_RELEASE_V1.0.2/MSDK/lwip/lwip-2.1.2/src/apps/altcp_tls\altcp_tls_mbedtls.c **** 
1142:C:/Users/stapi/OneDrive/Desktop/GD32VW553/GD32VW55X_Wifi_BLE_SDK/GD32VW55x_RELEASE_V1.0.2/MSDK/lwip/lwip-2.1.2/src/apps/altcp_tls\altcp_tls_mbedtls.c ****   while (size_left) {
1143:C:/Users/stapi/OneDrive/Desktop/GD32VW553/GD32VW55X_Wifi_BLE_SDK/GD32VW55x_RELEASE_V1.0.2/MSDK/lwip/lwip-2.1.2/src/apps/altcp_tls\altcp_tls_mbedtls.c ****     u16_t write_len = (u16_t)LWIP_MIN(size_left, 0xFFFF);
1144:C:/Users/stapi/OneDrive/Desktop/GD32VW553/GD32VW55X_Wifi_BLE_SDK/GD32VW55x_RELEASE_V1.0.2/MSDK/lwip/lwip-2.1.2/src/apps/altcp_tls\altcp_tls_mbedtls.c ****     err_t err = altcp_write(conn->inner_conn, (const void *)dataptr, write_len, apiflags);
1145:C:/Users/stapi/OneDrive/Desktop/GD32VW553/GD32VW55X_Wifi_BLE_SDK/GD32VW55x_RELEASE_V1.0.2/MSDK/lwip/lwip-2.1.2/src/apps/altcp_tls\altcp_tls_mbedtls.c ****     if (err == ERR_OK) {
1146:C:/Users/stapi/OneDrive/Desktop/GD32VW553/GD32VW55X_Wifi_BLE_SDK/GD32VW55x_RELEASE_V1.0.2/MSDK/lwip/lwip-2.1.2/src/apps/altcp_tls\altcp_tls_mbedtls.c ****       written += write_len;
1147:C:/Users/stapi/OneDrive/Desktop/GD32VW553/GD32VW55X_Wifi_BLE_SDK/GD32VW55x_RELEASE_V1.0.2/MSDK/lwip/lwip-2.1.2/src/apps/altcp_tls\altcp_tls_mbedtls.c ****       size_left -= write_len;
1148:C:/Users/stapi/OneDrive/Desktop/GD32VW553/GD32VW55X_Wifi_BLE_SDK/GD32VW55x_RELEASE_V1.0.2/MSDK/lwip/lwip-2.1.2/src/apps/altcp_tls\altcp_tls_mbedtls.c ****     } else if (err == ERR_MEM) {
1149:C:/Users/stapi/OneDrive/Desktop/GD32VW553/GD32VW55X_Wifi_BLE_SDK/GD32VW55x_RELEASE_V1.0.2/MSDK/lwip/lwip-2.1.2/src/apps/altcp_tls\altcp_tls_mbedtls.c ****       if (written) {
1150:C:/Users/stapi/OneDrive/Desktop/GD32VW553/GD32VW55X_Wifi_BLE_SDK/GD32VW55x_RELEASE_V1.0.2/MSDK/lwip/lwip-2.1.2/src/apps/altcp_tls\altcp_tls_mbedtls.c ****         return written;
1151:C:/Users/stapi/OneDrive/Desktop/GD32VW553/GD32VW55X_Wifi_BLE_SDK/GD32VW55x_RELEASE_V1.0.2/MSDK/lwip/lwip-2.1.2/src/apps/altcp_tls\altcp_tls_mbedtls.c ****       }
1152:C:/Users/stapi/OneDrive/Desktop/GD32VW553/GD32VW55X_Wifi_BLE_SDK/GD32VW55x_RELEASE_V1.0.2/MSDK/lwip/lwip-2.1.2/src/apps/altcp_tls\altcp_tls_mbedtls.c ****       return 0; /* MBEDTLS_ERR_SSL_WANT_WRITE; */
1153:C:/Users/stapi/OneDrive/Desktop/GD32VW553/GD32VW55X_Wifi_BLE_SDK/GD32VW55x_RELEASE_V1.0.2/MSDK/lwip/lwip-2.1.2/src/apps/altcp_tls\altcp_tls_mbedtls.c ****     } else {
1154:C:/Users/stapi/OneDrive/Desktop/GD32VW553/GD32VW55X_Wifi_BLE_SDK/GD32VW55x_RELEASE_V1.0.2/MSDK/lwip/lwip-2.1.2/src/apps/altcp_tls\altcp_tls_mbedtls.c ****       LWIP_ASSERT("tls_write, tcp_write: err != ERR MEM", 0);
1155:C:/Users/stapi/OneDrive/Desktop/GD32VW553/GD32VW55X_Wifi_BLE_SDK/GD32VW55x_RELEASE_V1.0.2/MSDK/lwip/lwip-2.1.2/src/apps/altcp_tls\altcp_tls_mbedtls.c ****       /* @todo: return MBEDTLS_ERR_NET_CONN_RESET or MBEDTLS_ERR_NET_SEND_FAILED */
1156:C:/Users/stapi/OneDrive/Desktop/GD32VW553/GD32VW55X_Wifi_BLE_SDK/GD32VW55x_RELEASE_V1.0.2/MSDK/lwip/lwip-2.1.2/src/apps/altcp_tls\altcp_tls_mbedtls.c ****       return MBEDTLS_ERR_NET_SEND_FAILED;
1157:C:/Users/stapi/OneDrive/Desktop/GD32VW553/GD32VW55X_Wifi_BLE_SDK/GD32VW55x_RELEASE_V1.0.2/MSDK/lwip/lwip-2.1.2/src/apps/altcp_tls\altcp_tls_mbedtls.c ****     }
1158:C:/Users/stapi/OneDrive/Desktop/GD32VW553/GD32VW55X_Wifi_BLE_SDK/GD32VW55x_RELEASE_V1.0.2/MSDK/lwip/lwip-2.1.2/src/apps/altcp_tls\altcp_tls_mbedtls.c ****   }
1159:C:/Users/stapi/OneDrive/Desktop/GD32VW553/GD32VW55X_Wifi_BLE_SDK/GD32VW55x_RELEASE_V1.0.2/MSDK/lwip/lwip-2.1.2/src/apps/altcp_tls\altcp_tls_mbedtls.c ****   return written;
1160:C:/Users/stapi/OneDrive/Desktop/GD32VW553/GD32VW55X_Wifi_BLE_SDK/GD32VW55x_RELEASE_V1.0.2/MSDK/lwip/lwip-2.1.2/src/apps/altcp_tls\altcp_tls_mbedtls.c **** }
1161:C:/Users/stapi/OneDrive/Desktop/GD32VW553/GD32VW55X_Wifi_BLE_SDK/GD32VW55x_RELEASE_V1.0.2/MSDK/lwip/lwip-2.1.2/src/apps/altcp_tls\altcp_tls_mbedtls.c **** 
1162:C:/Users/stapi/OneDrive/Desktop/GD32VW553/GD32VW55X_Wifi_BLE_SDK/GD32VW55x_RELEASE_V1.0.2/MSDK/lwip/lwip-2.1.2/src/apps/altcp_tls\altcp_tls_mbedtls.c **** static u16_t
1163:C:/Users/stapi/OneDrive/Desktop/GD32VW553/GD32VW55X_Wifi_BLE_SDK/GD32VW55x_RELEASE_V1.0.2/MSDK/lwip/lwip-2.1.2/src/apps/altcp_tls\altcp_tls_mbedtls.c **** altcp_mbedtls_mss(struct altcp_pcb *conn)
1164:C:/Users/stapi/OneDrive/Desktop/GD32VW553/GD32VW55X_Wifi_BLE_SDK/GD32VW55x_RELEASE_V1.0.2/MSDK/lwip/lwip-2.1.2/src/apps/altcp_tls\altcp_tls_mbedtls.c **** {
1165:C:/Users/stapi/OneDrive/Desktop/GD32VW553/GD32VW55X_Wifi_BLE_SDK/GD32VW55x_RELEASE_V1.0.2/MSDK/lwip/lwip-2.1.2/src/apps/altcp_tls\altcp_tls_mbedtls.c ****   if (conn == NULL) {
1166:C:/Users/stapi/OneDrive/Desktop/GD32VW553/GD32VW55X_Wifi_BLE_SDK/GD32VW55x_RELEASE_V1.0.2/MSDK/lwip/lwip-2.1.2/src/apps/altcp_tls\altcp_tls_mbedtls.c ****     return 0;
1167:C:/Users/stapi/OneDrive/Desktop/GD32VW553/GD32VW55X_Wifi_BLE_SDK/GD32VW55x_RELEASE_V1.0.2/MSDK/lwip/lwip-2.1.2/src/apps/altcp_tls\altcp_tls_mbedtls.c ****   }
1168:C:/Users/stapi/OneDrive/Desktop/GD32VW553/GD32VW55X_Wifi_BLE_SDK/GD32VW55x_RELEASE_V1.0.2/MSDK/lwip/lwip-2.1.2/src/apps/altcp_tls\altcp_tls_mbedtls.c ****   /* @todo: LWIP_MIN(mss, mbedtls_ssl_get_max_frag_len()) ? */
1169:C:/Users/stapi/OneDrive/Desktop/GD32VW553/GD32VW55X_Wifi_BLE_SDK/GD32VW55x_RELEASE_V1.0.2/MSDK/lwip/lwip-2.1.2/src/apps/altcp_tls\altcp_tls_mbedtls.c ****   return altcp_mss(conn->inner_conn);
1170:C:/Users/stapi/OneDrive/Desktop/GD32VW553/GD32VW55X_Wifi_BLE_SDK/GD32VW55x_RELEASE_V1.0.2/MSDK/lwip/lwip-2.1.2/src/apps/altcp_tls\altcp_tls_mbedtls.c **** }
1171:C:/Users/stapi/OneDrive/Desktop/GD32VW553/GD32VW55X_Wifi_BLE_SDK/GD32VW55x_RELEASE_V1.0.2/MSDK/lwip/lwip-2.1.2/src/apps/altcp_tls\altcp_tls_mbedtls.c **** 
1172:C:/Users/stapi/OneDrive/Desktop/GD32VW553/GD32VW55X_Wifi_BLE_SDK/GD32VW55x_RELEASE_V1.0.2/MSDK/lwip/lwip-2.1.2/src/apps/altcp_tls\altcp_tls_mbedtls.c **** static void
1173:C:/Users/stapi/OneDrive/Desktop/GD32VW553/GD32VW55X_Wifi_BLE_SDK/GD32VW55x_RELEASE_V1.0.2/MSDK/lwip/lwip-2.1.2/src/apps/altcp_tls\altcp_tls_mbedtls.c **** altcp_mbedtls_dealloc(struct altcp_pcb *conn)
1174:C:/Users/stapi/OneDrive/Desktop/GD32VW553/GD32VW55X_Wifi_BLE_SDK/GD32VW55x_RELEASE_V1.0.2/MSDK/lwip/lwip-2.1.2/src/apps/altcp_tls\altcp_tls_mbedtls.c **** {
 857              		.loc 1 1174 1
 858              		.cfi_startproc
 859              	.LVL102:
1175:C:/Users/stapi/OneDrive/Desktop/GD32VW553/GD32VW55X_Wifi_BLE_SDK/GD32VW55x_RELEASE_V1.0.2/MSDK/lwip/lwip-2.1.2/src/apps/altcp_tls\altcp_tls_mbedtls.c ****   /* clean up and free tls state */
1176:C:/Users/stapi/OneDrive/Desktop/GD32VW553/GD32VW55X_Wifi_BLE_SDK/GD32VW55x_RELEASE_V1.0.2/MSDK/lwip/lwip-2.1.2/src/apps/altcp_tls\altcp_tls_mbedtls.c ****   if (conn) {
 860              		.loc 1 1176 3
 861              		.loc 1 1176 6 is_stmt 0
 862 0000 29C5     		beq	a0,zero,.L148
1174:C:/Users/stapi/OneDrive/Desktop/GD32VW553/GD32VW55X_Wifi_BLE_SDK/GD32VW55x_RELEASE_V1.0.2/MSDK/lwip/lwip-2.1.2/src/apps/altcp_tls\altcp_tls_mbedtls.c ****   /* clean up and free tls state */
 863              		.loc 1 1174 1
 864 0002 17030000 		call	t0,__riscv_save_2
 864      E7020300 
 865              		.cfi_offset 9, -12
 866              		.cfi_offset 8, -8
 867              		.cfi_offset 1, -4
 868              		.cfi_def_cfa_offset 16
 869              	.LBB8:
1177:C:/Users/stapi/OneDrive/Desktop/GD32VW553/GD32VW55X_Wifi_BLE_SDK/GD32VW55x_RELEASE_V1.0.2/MSDK/lwip/lwip-2.1.2/src/apps/altcp_tls\altcp_tls_mbedtls.c ****     altcp_mbedtls_state_t *state = (altcp_mbedtls_state_t *)conn->state;
 870              		.loc 1 1177 28
 871 000a 4045     		lw	s0,12(a0)
 872 000c AA84     		mv	s1,a0
 873              		.loc 1 1177 5 is_stmt 1
 874              	.LVL103:
1178:C:/Users/stapi/OneDrive/Desktop/GD32VW553/GD32VW55X_Wifi_BLE_SDK/GD32VW55x_RELEASE_V1.0.2/MSDK/lwip/lwip-2.1.2/src/apps/altcp_tls\altcp_tls_mbedtls.c ****     if (state) {
 875              		.loc 1 1178 5
 876              		.loc 1 1178 8 is_stmt 0
 877 000e 15C8     		beq	s0,zero,.L135
1179:C:/Users/stapi/OneDrive/Desktop/GD32VW553/GD32VW55X_Wifi_BLE_SDK/GD32VW55x_RELEASE_V1.0.2/MSDK/lwip/lwip-2.1.2/src/apps/altcp_tls\altcp_tls_mbedtls.c ****       mbedtls_ssl_free(&state->ssl_context);
 878              		.loc 1 1179 7 is_stmt 1
 879 0010 13058400 		addi	a0,s0,8
 880              	.LVL104:
 881 0014 97000000 		call	mbedtls_ssl_free
 881      E7800000 
 882              	.LVL105:
1180:C:/Users/stapi/OneDrive/Desktop/GD32VW553/GD32VW55X_Wifi_BLE_SDK/GD32VW55x_RELEASE_V1.0.2/MSDK/lwip/lwip-2.1.2/src/apps/altcp_tls\altcp_tls_mbedtls.c ****       state->flags = 0;
 883              		.loc 1 1180 7
1181:C:/Users/stapi/OneDrive/Desktop/GD32VW553/GD32VW55X_Wifi_BLE_SDK/GD32VW55x_RELEASE_V1.0.2/MSDK/lwip/lwip-2.1.2/src/apps/altcp_tls\altcp_tls_mbedtls.c ****       if (state->rx) {
 884              		.loc 1 1181 16 is_stmt 0
 885 001c 03250415 		lw	a0,336(s0)
1180:C:/Users/stapi/OneDrive/Desktop/GD32VW553/GD32VW55X_Wifi_BLE_SDK/GD32VW55x_RELEASE_V1.0.2/MSDK/lwip/lwip-2.1.2/src/apps/altcp_tls\altcp_tls_mbedtls.c ****       state->flags = 0;
 886              		.loc 1 1180 20
 887 0020 230C0414 		sb	zero,344(s0)
 888              		.loc 1 1181 7 is_stmt 1
 889              		.loc 1 1181 10 is_stmt 0
 890 0024 19C5     		beq	a0,zero,.L137
1182:C:/Users/stapi/OneDrive/Desktop/GD32VW553/GD32VW55X_Wifi_BLE_SDK/GD32VW55x_RELEASE_V1.0.2/MSDK/lwip/lwip-2.1.2/src/apps/altcp_tls\altcp_tls_mbedtls.c ****         /* free leftover (unhandled) rx pbufs */
1183:C:/Users/stapi/OneDrive/Desktop/GD32VW553/GD32VW55X_Wifi_BLE_SDK/GD32VW55x_RELEASE_V1.0.2/MSDK/lwip/lwip-2.1.2/src/apps/altcp_tls\altcp_tls_mbedtls.c ****         pbuf_free(state->rx);
 891              		.loc 1 1183 9 is_stmt 1
 892 0026 97000000 		call	pbuf_free
 892      E7800000 
 893              	.LVL106:
1184:C:/Users/stapi/OneDrive/Desktop/GD32VW553/GD32VW55X_Wifi_BLE_SDK/GD32VW55x_RELEASE_V1.0.2/MSDK/lwip/lwip-2.1.2/src/apps/altcp_tls\altcp_tls_mbedtls.c ****         state->rx = NULL;
 894              		.loc 1 1184 9
 895              		.loc 1 1184 19 is_stmt 0
 896 002e 23280414 		sw	zero,336(s0)
 897              	.L137:
1185:C:/Users/stapi/OneDrive/Desktop/GD32VW553/GD32VW55X_Wifi_BLE_SDK/GD32VW55x_RELEASE_V1.0.2/MSDK/lwip/lwip-2.1.2/src/apps/altcp_tls\altcp_tls_mbedtls.c ****       }
1186:C:/Users/stapi/OneDrive/Desktop/GD32VW553/GD32VW55X_Wifi_BLE_SDK/GD32VW55x_RELEASE_V1.0.2/MSDK/lwip/lwip-2.1.2/src/apps/altcp_tls\altcp_tls_mbedtls.c ****       altcp_mbedtls_free(state->conf, state);
 898              		.loc 1 1186 7 is_stmt 1
 899 0032 0840     		lw	a0,0(s0)
 900 0034 A285     		mv	a1,s0
 901 0036 97000000 		call	altcp_mbedtls_free
 901      E7800000 
 902              	.LVL107:
1187:C:/Users/stapi/OneDrive/Desktop/GD32VW553/GD32VW55X_Wifi_BLE_SDK/GD32VW55x_RELEASE_V1.0.2/MSDK/lwip/lwip-2.1.2/src/apps/altcp_tls\altcp_tls_mbedtls.c ****       conn->state = NULL;
 903              		.loc 1 1187 7
 904              		.loc 1 1187 19 is_stmt 0
 905 003e 23A60400 		sw	zero,12(s1)
 906              	.L135:
 907              	.LBE8:
1188:C:/Users/stapi/OneDrive/Desktop/GD32VW553/GD32VW55X_Wifi_BLE_SDK/GD32VW55x_RELEASE_V1.0.2/MSDK/lwip/lwip-2.1.2/src/apps/altcp_tls\altcp_tls_mbedtls.c ****     }
1189:C:/Users/stapi/OneDrive/Desktop/GD32VW553/GD32VW55X_Wifi_BLE_SDK/GD32VW55x_RELEASE_V1.0.2/MSDK/lwip/lwip-2.1.2/src/apps/altcp_tls\altcp_tls_mbedtls.c ****   }
1190:C:/Users/stapi/OneDrive/Desktop/GD32VW553/GD32VW55X_Wifi_BLE_SDK/GD32VW55x_RELEASE_V1.0.2/MSDK/lwip/lwip-2.1.2/src/apps/altcp_tls\altcp_tls_mbedtls.c **** }
 908              		.loc 1 1190 1
 909 0042 17030000 		tail	__riscv_restore_2
 909      67000300 
 910              		.cfi_restore 9
 911              		.cfi_restore 8
 912              		.cfi_restore 1
 913              		.cfi_def_cfa_offset 0
 914              	.LVL108:
 915              	.L148:
 916 004a 8280     		ret
 917              		.cfi_endproc
 918              	.LFE423:
 920              		.section	.text.altcp_mbedtls_sndbuf,"ax",@progbits
 921              		.align	1
 923              	altcp_mbedtls_sndbuf:
 924              	.LFB419:
1035:C:/Users/stapi/OneDrive/Desktop/GD32VW553/GD32VW55X_Wifi_BLE_SDK/GD32VW55x_RELEASE_V1.0.2/MSDK/lwip/lwip-2.1.2/src/apps/altcp_tls\altcp_tls_mbedtls.c ****   if (conn) {
 925              		.loc 1 1035 1 is_stmt 1
 926              		.cfi_startproc
 927              	.LVL109:
 928 0000 17030000 		call	t0,__riscv_save_4
 928      E7020300 
 929              		.cfi_offset 19, -20
 930              		.cfi_offset 18, -16
 931              		.cfi_offset 9, -12
 932              		.cfi_offset 8, -8
 933              		.cfi_offset 1, -4
 934              		.cfi_def_cfa_offset 32
1036:C:/Users/stapi/OneDrive/Desktop/GD32VW553/GD32VW55X_Wifi_BLE_SDK/GD32VW55x_RELEASE_V1.0.2/MSDK/lwip/lwip-2.1.2/src/apps/altcp_tls\altcp_tls_mbedtls.c ****     altcp_mbedtls_state_t *state;
 935              		.loc 1 1036 3
1035:C:/Users/stapi/OneDrive/Desktop/GD32VW553/GD32VW55X_Wifi_BLE_SDK/GD32VW55x_RELEASE_V1.0.2/MSDK/lwip/lwip-2.1.2/src/apps/altcp_tls\altcp_tls_mbedtls.c ****   if (conn) {
 936              		.loc 1 1035 1 is_stmt 0
 937 0008 2A89     		mv	s2,a0
1036:C:/Users/stapi/OneDrive/Desktop/GD32VW553/GD32VW55X_Wifi_BLE_SDK/GD32VW55x_RELEASE_V1.0.2/MSDK/lwip/lwip-2.1.2/src/apps/altcp_tls\altcp_tls_mbedtls.c ****     altcp_mbedtls_state_t *state;
 938              		.loc 1 1036 6
 939 000a 3DC5     		beq	a0,zero,.L152
 940              	.LBB9:
1037:C:/Users/stapi/OneDrive/Desktop/GD32VW553/GD32VW55X_Wifi_BLE_SDK/GD32VW55x_RELEASE_V1.0.2/MSDK/lwip/lwip-2.1.2/src/apps/altcp_tls\altcp_tls_mbedtls.c ****     state = (altcp_mbedtls_state_t*)conn->state;
 941              		.loc 1 1037 5 is_stmt 1
1038:C:/Users/stapi/OneDrive/Desktop/GD32VW553/GD32VW55X_Wifi_BLE_SDK/GD32VW55x_RELEASE_V1.0.2/MSDK/lwip/lwip-2.1.2/src/apps/altcp_tls\altcp_tls_mbedtls.c ****     if (!state || !(state->flags & ALTCP_MBEDTLS_FLAGS_HANDSHAKE_DONE)) {
 942              		.loc 1 1038 5
1038:C:/Users/stapi/OneDrive/Desktop/GD32VW553/GD32VW55X_Wifi_BLE_SDK/GD32VW55x_RELEASE_V1.0.2/MSDK/lwip/lwip-2.1.2/src/apps/altcp_tls\altcp_tls_mbedtls.c ****     if (!state || !(state->flags & ALTCP_MBEDTLS_FLAGS_HANDSHAKE_DONE)) {
 943              		.loc 1 1038 11 is_stmt 0
 944 000c 8329C500 		lw	s3,12(a0)
 945              	.LVL110:
1039:C:/Users/stapi/OneDrive/Desktop/GD32VW553/GD32VW55X_Wifi_BLE_SDK/GD32VW55x_RELEASE_V1.0.2/MSDK/lwip/lwip-2.1.2/src/apps/altcp_tls\altcp_tls_mbedtls.c ****       return 0;
 946              		.loc 1 1039 5 is_stmt 1
1040:C:/Users/stapi/OneDrive/Desktop/GD32VW553/GD32VW55X_Wifi_BLE_SDK/GD32VW55x_RELEASE_V1.0.2/MSDK/lwip/lwip-2.1.2/src/apps/altcp_tls\altcp_tls_mbedtls.c ****     }
 947              		.loc 1 1040 14 is_stmt 0
 948 0010 0145     		li	a0,0
 949              	.LVL111:
1039:C:/Users/stapi/OneDrive/Desktop/GD32VW553/GD32VW55X_Wifi_BLE_SDK/GD32VW55x_RELEASE_V1.0.2/MSDK/lwip/lwip-2.1.2/src/apps/altcp_tls\altcp_tls_mbedtls.c ****       return 0;
 950              		.loc 1 1039 8
 951 0012 638F0904 		beq	s3,zero,.L153
1039:C:/Users/stapi/OneDrive/Desktop/GD32VW553/GD32VW55X_Wifi_BLE_SDK/GD32VW55x_RELEASE_V1.0.2/MSDK/lwip/lwip-2.1.2/src/apps/altcp_tls\altcp_tls_mbedtls.c ****       return 0;
 952              		.loc 1 1039 16 discriminator 1
 953 0016 83C78915 		lbu	a5,344(s3)
 954 001a 858B     		andi	a5,a5,1
 955 001c B1CB     		beq	a5,zero,.L153
1042:C:/Users/stapi/OneDrive/Desktop/GD32VW553/GD32VW55X_Wifi_BLE_SDK/GD32VW55x_RELEASE_V1.0.2/MSDK/lwip/lwip-2.1.2/src/apps/altcp_tls\altcp_tls_mbedtls.c ****       u16_t sndbuf = altcp_sndbuf(conn->inner_conn);
 956              		.loc 1 1042 5 is_stmt 1
1042:C:/Users/stapi/OneDrive/Desktop/GD32VW553/GD32VW55X_Wifi_BLE_SDK/GD32VW55x_RELEASE_V1.0.2/MSDK/lwip/lwip-2.1.2/src/apps/altcp_tls\altcp_tls_mbedtls.c ****       u16_t sndbuf = altcp_sndbuf(conn->inner_conn);
 957              		.loc 1 1042 13 is_stmt 0
 958 001e 03254900 		lw	a0,4(s2)
1042:C:/Users/stapi/OneDrive/Desktop/GD32VW553/GD32VW55X_Wifi_BLE_SDK/GD32VW55x_RELEASE_V1.0.2/MSDK/lwip/lwip-2.1.2/src/apps/altcp_tls\altcp_tls_mbedtls.c ****       u16_t sndbuf = altcp_sndbuf(conn->inner_conn);
 959              		.loc 1 1042 8
 960 0022 39C9     		beq	a0,zero,.L152
 961              	.LBB10:
1043:C:/Users/stapi/OneDrive/Desktop/GD32VW553/GD32VW55X_Wifi_BLE_SDK/GD32VW55x_RELEASE_V1.0.2/MSDK/lwip/lwip-2.1.2/src/apps/altcp_tls\altcp_tls_mbedtls.c ****       /* Take care of record header, IV, AuthTag */
 962              		.loc 1 1043 7 is_stmt 1
1043:C:/Users/stapi/OneDrive/Desktop/GD32VW553/GD32VW55X_Wifi_BLE_SDK/GD32VW55x_RELEASE_V1.0.2/MSDK/lwip/lwip-2.1.2/src/apps/altcp_tls\altcp_tls_mbedtls.c ****       /* Take care of record header, IV, AuthTag */
 963              		.loc 1 1043 22 is_stmt 0
 964 0024 97000000 		call	altcp_sndbuf
 964      E7800000 
 965              	.LVL112:
1045:C:/Users/stapi/OneDrive/Desktop/GD32VW553/GD32VW55X_Wifi_BLE_SDK/GD32VW55x_RELEASE_V1.0.2/MSDK/lwip/lwip-2.1.2/src/apps/altcp_tls\altcp_tls_mbedtls.c ****       if (ssl_expan > 0) {
 966              		.loc 1 1045 56
 967 002c A109     		addi	s3,s3,8
 968              	.LVL113:
1043:C:/Users/stapi/OneDrive/Desktop/GD32VW553/GD32VW55X_Wifi_BLE_SDK/GD32VW55x_RELEASE_V1.0.2/MSDK/lwip/lwip-2.1.2/src/apps/altcp_tls\altcp_tls_mbedtls.c ****       /* Take care of record header, IV, AuthTag */
 969              		.loc 1 1043 22
 970 002e 2A84     		mv	s0,a0
 971              	.LVL114:
1045:C:/Users/stapi/OneDrive/Desktop/GD32VW553/GD32VW55X_Wifi_BLE_SDK/GD32VW55x_RELEASE_V1.0.2/MSDK/lwip/lwip-2.1.2/src/apps/altcp_tls\altcp_tls_mbedtls.c ****       if (ssl_expan > 0) {
 972              		.loc 1 1045 7 is_stmt 1
1045:C:/Users/stapi/OneDrive/Desktop/GD32VW553/GD32VW55X_Wifi_BLE_SDK/GD32VW55x_RELEASE_V1.0.2/MSDK/lwip/lwip-2.1.2/src/apps/altcp_tls\altcp_tls_mbedtls.c ****       if (ssl_expan > 0) {
 973              		.loc 1 1045 23 is_stmt 0
 974 0030 4E85     		mv	a0,s3
 975 0032 97000000 		call	mbedtls_ssl_get_record_expansion
 975      E7800000 
 976              	.LVL115:
 977 003a AA84     		mv	s1,a0
 978              	.LVL116:
1046:C:/Users/stapi/OneDrive/Desktop/GD32VW553/GD32VW55X_Wifi_BLE_SDK/GD32VW55x_RELEASE_V1.0.2/MSDK/lwip/lwip-2.1.2/src/apps/altcp_tls\altcp_tls_mbedtls.c ****         size_t ssl_added = (u16_t)LWIP_MIN(ssl_expan, 0xFFFF);
 979              		.loc 1 1046 7 is_stmt 1
1046:C:/Users/stapi/OneDrive/Desktop/GD32VW553/GD32VW55X_Wifi_BLE_SDK/GD32VW55x_RELEASE_V1.0.2/MSDK/lwip/lwip-2.1.2/src/apps/altcp_tls\altcp_tls_mbedtls.c ****         size_t ssl_added = (u16_t)LWIP_MIN(ssl_expan, 0xFFFF);
 980              		.loc 1 1046 10 is_stmt 0
 981 003c 635EA002 		ble	a0,zero,.L152
 982              	.LBB11:
1047:C:/Users/stapi/OneDrive/Desktop/GD32VW553/GD32VW55X_Wifi_BLE_SDK/GD32VW55x_RELEASE_V1.0.2/MSDK/lwip/lwip-2.1.2/src/apps/altcp_tls\altcp_tls_mbedtls.c ****         /* internal sndbuf smaller than our offset */
 983              		.loc 1 1047 9 is_stmt 1
1047:C:/Users/stapi/OneDrive/Desktop/GD32VW553/GD32VW55X_Wifi_BLE_SDK/GD32VW55x_RELEASE_V1.0.2/MSDK/lwip/lwip-2.1.2/src/apps/altcp_tls\altcp_tls_mbedtls.c ****         /* internal sndbuf smaller than our offset */
 984              		.loc 1 1047 28 is_stmt 0
 985 0040 C167     		li	a5,65536
 986 0042 1387E7FF 		addi	a4,a5,-2
 987 0046 6354A700 		ble	a0,a4,.L154
 988 004a 9384F7FF 		addi	s1,a5,-1
 989              	.LVL117:
 990              	.L154:
1049:C:/Users/stapi/OneDrive/Desktop/GD32VW553/GD32VW55X_Wifi_BLE_SDK/GD32VW55x_RELEASE_V1.0.2/MSDK/lwip/lwip-2.1.2/src/apps/altcp_tls\altcp_tls_mbedtls.c ****           size_t max_len = 0xFFFF;
 991              		.loc 1 1049 9 is_stmt 1 discriminator 4
1049:C:/Users/stapi/OneDrive/Desktop/GD32VW553/GD32VW55X_Wifi_BLE_SDK/GD32VW55x_RELEASE_V1.0.2/MSDK/lwip/lwip-2.1.2/src/apps/altcp_tls\altcp_tls_mbedtls.c ****           size_t max_len = 0xFFFF;
 992              		.loc 1 1049 12 is_stmt 0 discriminator 4
 993 004e 63F58402 		bleu	s0,s1,.L152
 994              	.LBB12:
1050:C:/Users/stapi/OneDrive/Desktop/GD32VW553/GD32VW55X_Wifi_BLE_SDK/GD32VW55x_RELEASE_V1.0.2/MSDK/lwip/lwip-2.1.2/src/apps/altcp_tls\altcp_tls_mbedtls.c ****           size_t ret;
 995              		.loc 1 1050 11 is_stmt 1
 996              	.LVL118:
1051:C:/Users/stapi/OneDrive/Desktop/GD32VW553/GD32VW55X_Wifi_BLE_SDK/GD32VW55x_RELEASE_V1.0.2/MSDK/lwip/lwip-2.1.2/src/apps/altcp_tls\altcp_tls_mbedtls.c **** #if defined(MBEDTLS_SSL_MAX_FRAGMENT_LENGTH)
 997              		.loc 1 1051 11
1054:C:/Users/stapi/OneDrive/Desktop/GD32VW553/GD32VW55X_Wifi_BLE_SDK/GD32VW55x_RELEASE_V1.0.2/MSDK/lwip/lwip-2.1.2/src/apps/altcp_tls\altcp_tls_mbedtls.c ****           max_len = LWIP_MIN(max_frag_len, max_len);
 998              		.loc 1 1054 11
1054:C:/Users/stapi/OneDrive/Desktop/GD32VW553/GD32VW55X_Wifi_BLE_SDK/GD32VW55x_RELEASE_V1.0.2/MSDK/lwip/lwip-2.1.2/src/apps/altcp_tls\altcp_tls_mbedtls.c ****           max_len = LWIP_MIN(max_frag_len, max_len);
 999              		.loc 1 1054 33 is_stmt 0
 1000 0052 4E85     		mv	a0,s3
 1001              	.LVL119:
 1002 0054 97000000 		call	mbedtls_ssl_get_max_frag_len
 1002      E7800000 
 1003              	.LVL120:
1055:C:/Users/stapi/OneDrive/Desktop/GD32VW553/GD32VW55X_Wifi_BLE_SDK/GD32VW55x_RELEASE_V1.0.2/MSDK/lwip/lwip-2.1.2/src/apps/altcp_tls\altcp_tls_mbedtls.c **** #endif
 1004              		.loc 1 1055 11 is_stmt 1
1058:C:/Users/stapi/OneDrive/Desktop/GD32VW553/GD32VW55X_Wifi_BLE_SDK/GD32VW55x_RELEASE_V1.0.2/MSDK/lwip/lwip-2.1.2/src/apps/altcp_tls\altcp_tls_mbedtls.c ****           LWIP_ASSERT("sndbuf overflow", ret <= 0xFFFF);
 1005              		.loc 1 1058 11
1059:C:/Users/stapi/OneDrive/Desktop/GD32VW553/GD32VW55X_Wifi_BLE_SDK/GD32VW55x_RELEASE_V1.0.2/MSDK/lwip/lwip-2.1.2/src/apps/altcp_tls\altcp_tls_mbedtls.c ****           return (u16_t)ret;
 1006              		.loc 1 1059 11
1059:C:/Users/stapi/OneDrive/Desktop/GD32VW553/GD32VW55X_Wifi_BLE_SDK/GD32VW55x_RELEASE_V1.0.2/MSDK/lwip/lwip-2.1.2/src/apps/altcp_tls\altcp_tls_mbedtls.c ****           return (u16_t)ret;
 1007              		.loc 1 1059 11
1059:C:/Users/stapi/OneDrive/Desktop/GD32VW553/GD32VW55X_Wifi_BLE_SDK/GD32VW55x_RELEASE_V1.0.2/MSDK/lwip/lwip-2.1.2/src/apps/altcp_tls\altcp_tls_mbedtls.c ****           return (u16_t)ret;
 1008              		.loc 1 1059 11
1059:C:/Users/stapi/OneDrive/Desktop/GD32VW553/GD32VW55X_Wifi_BLE_SDK/GD32VW55x_RELEASE_V1.0.2/MSDK/lwip/lwip-2.1.2/src/apps/altcp_tls\altcp_tls_mbedtls.c ****           return (u16_t)ret;
 1009              		.loc 1 1059 11
1060:C:/Users/stapi/OneDrive/Desktop/GD32VW553/GD32VW55X_Wifi_BLE_SDK/GD32VW55x_RELEASE_V1.0.2/MSDK/lwip/lwip-2.1.2/src/apps/altcp_tls\altcp_tls_mbedtls.c ****         }
 1010              		.loc 1 1060 11
1058:C:/Users/stapi/OneDrive/Desktop/GD32VW553/GD32VW55X_Wifi_BLE_SDK/GD32VW55x_RELEASE_V1.0.2/MSDK/lwip/lwip-2.1.2/src/apps/altcp_tls\altcp_tls_mbedtls.c ****           LWIP_ASSERT("sndbuf overflow", ret <= 0xFFFF);
 1011              		.loc 1 1058 15 is_stmt 0
 1012 005c 4167     		li	a4,65536
1058:C:/Users/stapi/OneDrive/Desktop/GD32VW553/GD32VW55X_Wifi_BLE_SDK/GD32VW55x_RELEASE_V1.0.2/MSDK/lwip/lwip-2.1.2/src/apps/altcp_tls\altcp_tls_mbedtls.c ****           LWIP_ASSERT("sndbuf overflow", ret <= 0xFFFF);
 1013              		.loc 1 1058 17
 1014 005e B3079440 		sub	a5,s0,s1
1058:C:/Users/stapi/OneDrive/Desktop/GD32VW553/GD32VW55X_Wifi_BLE_SDK/GD32VW55x_RELEASE_V1.0.2/MSDK/lwip/lwip-2.1.2/src/apps/altcp_tls\altcp_tls_mbedtls.c ****           LWIP_ASSERT("sndbuf overflow", ret <= 0xFFFF);
 1015              		.loc 1 1058 15
 1016 0062 7D17     		addi	a4,a4,-1
 1017 0064 B3D7E70A 		minu	a5,a5,a4
 1018 0068 33D5A70A 		minu	a0,a5,a0
 1019              	.LVL121:
1060:C:/Users/stapi/OneDrive/Desktop/GD32VW553/GD32VW55X_Wifi_BLE_SDK/GD32VW55x_RELEASE_V1.0.2/MSDK/lwip/lwip-2.1.2/src/apps/altcp_tls\altcp_tls_mbedtls.c ****         }
 1020              		.loc 1 1060 18
 1021 006c 33450508 		zext.h	a0,a0
 1022              	.LVL122:
 1023              	.L153:
 1024              	.LBE12:
 1025              	.LBE11:
 1026              	.LBE10:
 1027              	.LBE9:
1067:C:/Users/stapi/OneDrive/Desktop/GD32VW553/GD32VW55X_Wifi_BLE_SDK/GD32VW55x_RELEASE_V1.0.2/MSDK/lwip/lwip-2.1.2/src/apps/altcp_tls\altcp_tls_mbedtls.c **** 
 1028              		.loc 1 1067 1
 1029 0070 17030000 		tail	__riscv_restore_4
 1029      67000300 
 1030              		.cfi_remember_state
 1031              		.cfi_restore 19
 1032              		.cfi_restore 18
 1033              		.cfi_restore 9
 1034              		.cfi_restore 8
 1035              		.cfi_restore 1
 1036              		.cfi_def_cfa_offset 0
 1037              	.L152:
 1038              		.cfi_restore_state
1066:C:/Users/stapi/OneDrive/Desktop/GD32VW553/GD32VW55X_Wifi_BLE_SDK/GD32VW55x_RELEASE_V1.0.2/MSDK/lwip/lwip-2.1.2/src/apps/altcp_tls\altcp_tls_mbedtls.c **** }
 1039              		.loc 1 1066 3 is_stmt 1
1066:C:/Users/stapi/OneDrive/Desktop/GD32VW553/GD32VW55X_Wifi_BLE_SDK/GD32VW55x_RELEASE_V1.0.2/MSDK/lwip/lwip-2.1.2/src/apps/altcp_tls\altcp_tls_mbedtls.c **** }
 1040              		.loc 1 1066 10 is_stmt 0
 1041 0078 4A85     		mv	a0,s2
 1042 007a 97000000 		call	altcp_default_sndbuf
 1042      E7800000 
 1043              	.LVL123:
 1044 0082 FDB7     		j	.L153
 1045              		.cfi_endproc
 1046              	.LFE419:
 1048              		.section	.rodata.altcp_mbedtls_write.str1.4,"aMS",@progbits,1
 1049              		.align	2
 1050              	.LC5:
 1051 0000 72657420 		.string	"ret <= 0"
 1051      3C3D2030 
 1051      00
 1052 0009 000000   		.align	2
 1053              	.LC6:
 1054 000c 756E6861 		.string	"unhandled error"
 1054      6E646C65 
 1054      64206572 
 1054      726F7200 
 1055              		.section	.text.altcp_mbedtls_write,"ax",@progbits
 1056              		.align	1
 1058              	altcp_mbedtls_write:
 1059              	.LFB420:
1074:C:/Users/stapi/OneDrive/Desktop/GD32VW553/GD32VW55X_Wifi_BLE_SDK/GD32VW55x_RELEASE_V1.0.2/MSDK/lwip/lwip-2.1.2/src/apps/altcp_tls\altcp_tls_mbedtls.c ****   int ret;
 1060              		.loc 1 1074 1 is_stmt 1
 1061              		.cfi_startproc
 1062              	.LVL124:
1075:C:/Users/stapi/OneDrive/Desktop/GD32VW553/GD32VW55X_Wifi_BLE_SDK/GD32VW55x_RELEASE_V1.0.2/MSDK/lwip/lwip-2.1.2/src/apps/altcp_tls\altcp_tls_mbedtls.c ****   altcp_mbedtls_state_t *state;
 1063              		.loc 1 1075 3
1076:C:/Users/stapi/OneDrive/Desktop/GD32VW553/GD32VW55X_Wifi_BLE_SDK/GD32VW55x_RELEASE_V1.0.2/MSDK/lwip/lwip-2.1.2/src/apps/altcp_tls\altcp_tls_mbedtls.c **** 
 1064              		.loc 1 1076 3
1078:C:/Users/stapi/OneDrive/Desktop/GD32VW553/GD32VW55X_Wifi_BLE_SDK/GD32VW55x_RELEASE_V1.0.2/MSDK/lwip/lwip-2.1.2/src/apps/altcp_tls\altcp_tls_mbedtls.c **** 
 1065              		.loc 1 1078 3
1080:C:/Users/stapi/OneDrive/Desktop/GD32VW553/GD32VW55X_Wifi_BLE_SDK/GD32VW55x_RELEASE_V1.0.2/MSDK/lwip/lwip-2.1.2/src/apps/altcp_tls\altcp_tls_mbedtls.c ****     return ERR_VAL;
 1066              		.loc 1 1080 3
1080:C:/Users/stapi/OneDrive/Desktop/GD32VW553/GD32VW55X_Wifi_BLE_SDK/GD32VW55x_RELEASE_V1.0.2/MSDK/lwip/lwip-2.1.2/src/apps/altcp_tls\altcp_tls_mbedtls.c ****     return ERR_VAL;
 1067              		.loc 1 1080 6 is_stmt 0
 1068 0000 79C5     		beq	a0,zero,.L174
1074:C:/Users/stapi/OneDrive/Desktop/GD32VW553/GD32VW55X_Wifi_BLE_SDK/GD32VW55x_RELEASE_V1.0.2/MSDK/lwip/lwip-2.1.2/src/apps/altcp_tls\altcp_tls_mbedtls.c ****   int ret;
 1069              		.loc 1 1074 1
 1070 0002 17030000 		call	t0,__riscv_save_4
 1070      E7020300 
 1071              		.cfi_offset 19, -20
 1072              		.cfi_offset 18, -16
 1073              		.cfi_offset 9, -12
 1074              		.cfi_offset 8, -8
 1075              		.cfi_offset 1, -4
 1076              		.cfi_def_cfa_offset 32
1084:C:/Users/stapi/OneDrive/Desktop/GD32VW553/GD32VW55X_Wifi_BLE_SDK/GD32VW55x_RELEASE_V1.0.2/MSDK/lwip/lwip-2.1.2/src/apps/altcp_tls\altcp_tls_mbedtls.c ****   if (state == NULL) {
 1077              		.loc 1 1084 9
 1078 000a 4045     		lw	s0,12(a0)
1074:C:/Users/stapi/OneDrive/Desktop/GD32VW553/GD32VW55X_Wifi_BLE_SDK/GD32VW55x_RELEASE_V1.0.2/MSDK/lwip/lwip-2.1.2/src/apps/altcp_tls\altcp_tls_mbedtls.c ****   int ret;
 1079              		.loc 1 1074 1
 1080 000c 4111     		addi	sp,sp,-16
 1081              		.cfi_def_cfa_offset 48
 1082 000e 2A89     		mv	s2,a0
1084:C:/Users/stapi/OneDrive/Desktop/GD32VW553/GD32VW55X_Wifi_BLE_SDK/GD32VW55x_RELEASE_V1.0.2/MSDK/lwip/lwip-2.1.2/src/apps/altcp_tls\altcp_tls_mbedtls.c ****   if (state == NULL) {
 1083              		.loc 1 1084 3 is_stmt 1
 1084              	.LVL125:
1085:C:/Users/stapi/OneDrive/Desktop/GD32VW553/GD32VW55X_Wifi_BLE_SDK/GD32VW55x_RELEASE_V1.0.2/MSDK/lwip/lwip-2.1.2/src/apps/altcp_tls\altcp_tls_mbedtls.c ****     /* @todo: which error? */
 1085              		.loc 1 1085 3
1085:C:/Users/stapi/OneDrive/Desktop/GD32VW553/GD32VW55X_Wifi_BLE_SDK/GD32VW55x_RELEASE_V1.0.2/MSDK/lwip/lwip-2.1.2/src/apps/altcp_tls\altcp_tls_mbedtls.c ****     /* @todo: which error? */
 1086              		.loc 1 1085 6 is_stmt 0
 1087 0010 69C0     		beq	s0,zero,.L175
1089:C:/Users/stapi/OneDrive/Desktop/GD32VW553/GD32VW55X_Wifi_BLE_SDK/GD32VW55x_RELEASE_V1.0.2/MSDK/lwip/lwip-2.1.2/src/apps/altcp_tls\altcp_tls_mbedtls.c ****     /* @todo: which error? */
 1088              		.loc 1 1089 3 is_stmt 1
1089:C:/Users/stapi/OneDrive/Desktop/GD32VW553/GD32VW55X_Wifi_BLE_SDK/GD32VW55x_RELEASE_V1.0.2/MSDK/lwip/lwip-2.1.2/src/apps/altcp_tls\altcp_tls_mbedtls.c ****     /* @todo: which error? */
 1089              		.loc 1 1089 6 is_stmt 0
 1090 0012 83478415 		lbu	a5,344(s0)
 1091 0016 858B     		andi	a5,a5,1
 1092 0018 DDCF     		beq	a5,zero,.L176
1097:C:/Users/stapi/OneDrive/Desktop/GD32VW553/GD32VW55X_Wifi_BLE_SDK/GD32VW55x_RELEASE_V1.0.2/MSDK/lwip/lwip-2.1.2/src/apps/altcp_tls\altcp_tls_mbedtls.c ****     mbedtls_ssl_flush_output(&state->ssl_context);
 1093              		.loc 1 1097 6
 1094 001a 8327840D 		lw	a5,216(s0)
 1095 001e B289     		mv	s3,a2
1097:C:/Users/stapi/OneDrive/Desktop/GD32VW553/GD32VW55X_Wifi_BLE_SDK/GD32VW55x_RELEASE_V1.0.2/MSDK/lwip/lwip-2.1.2/src/apps/altcp_tls\altcp_tls_mbedtls.c ****     mbedtls_ssl_flush_output(&state->ssl_context);
 1096              		.loc 1 1097 3 is_stmt 1
1098:C:/Users/stapi/OneDrive/Desktop/GD32VW553/GD32VW55X_Wifi_BLE_SDK/GD32VW55x_RELEASE_V1.0.2/MSDK/lwip/lwip-2.1.2/src/apps/altcp_tls\altcp_tls_mbedtls.c ****     if (state->ssl_context.out_left) {
 1097              		.loc 1 1098 5 is_stmt 0
 1098 0020 93048400 		addi	s1,s0,8
1097:C:/Users/stapi/OneDrive/Desktop/GD32VW553/GD32VW55X_Wifi_BLE_SDK/GD32VW55x_RELEASE_V1.0.2/MSDK/lwip/lwip-2.1.2/src/apps/altcp_tls\altcp_tls_mbedtls.c ****     mbedtls_ssl_flush_output(&state->ssl_context);
 1099              		.loc 1 1097 6
 1100 0024 A1EB     		bne	a5,zero,.L166
 1101              	.LVL126:
 1102              	.L169:
1103:C:/Users/stapi/OneDrive/Desktop/GD32VW553/GD32VW55X_Wifi_BLE_SDK/GD32VW55x_RELEASE_V1.0.2/MSDK/lwip/lwip-2.1.2/src/apps/altcp_tls\altcp_tls_mbedtls.c ****   /* try to send data... */
 1103              		.loc 1 1103 3 is_stmt 1
1103:C:/Users/stapi/OneDrive/Desktop/GD32VW553/GD32VW55X_Wifi_BLE_SDK/GD32VW55x_RELEASE_V1.0.2/MSDK/lwip/lwip-2.1.2/src/apps/altcp_tls\altcp_tls_mbedtls.c ****   /* try to send data... */
 1104              		.loc 1 1103 9 is_stmt 0
 1105 0026 2685     		mv	a0,s1
 1106 0028 4E86     		mv	a2,s3
 1107 002a 97000000 		call	mbedtls_ssl_write
 1107      E7800000 
 1108              	.LVL127:
 1109 0032 AA84     		mv	s1,a0
 1110              	.LVL128:
1105:C:/Users/stapi/OneDrive/Desktop/GD32VW553/GD32VW55X_Wifi_BLE_SDK/GD32VW55x_RELEASE_V1.0.2/MSDK/lwip/lwip-2.1.2/src/apps/altcp_tls\altcp_tls_mbedtls.c ****   if (ret >= 0) {
 1111              		.loc 1 1105 3 is_stmt 1
 1112 0034 03254900 		lw	a0,4(s2)
 1113 0038 97000000 		call	altcp_output
 1113      E7800000 
 1114              	.LVL129:
1106:C:/Users/stapi/OneDrive/Desktop/GD32VW553/GD32VW55X_Wifi_BLE_SDK/GD32VW55x_RELEASE_V1.0.2/MSDK/lwip/lwip-2.1.2/src/apps/altcp_tls\altcp_tls_mbedtls.c ****     if (ret == len) {
 1115              		.loc 1 1106 3
1106:C:/Users/stapi/OneDrive/Desktop/GD32VW553/GD32VW55X_Wifi_BLE_SDK/GD32VW55x_RELEASE_V1.0.2/MSDK/lwip/lwip-2.1.2/src/apps/altcp_tls\altcp_tls_mbedtls.c ****     if (ret == len) {
 1116              		.loc 1 1106 6 is_stmt 0
 1117 0040 63DA0404 		bge	s1,zero,.L167
1116:C:/Users/stapi/OneDrive/Desktop/GD32VW553/GD32VW55X_Wifi_BLE_SDK/GD32VW55x_RELEASE_V1.0.2/MSDK/lwip/lwip-2.1.2/src/apps/altcp_tls\altcp_tls_mbedtls.c ****       /* @todo: convert error to err_t */
 1118              		.loc 1 1116 5 is_stmt 1
1116:C:/Users/stapi/OneDrive/Desktop/GD32VW553/GD32VW55X_Wifi_BLE_SDK/GD32VW55x_RELEASE_V1.0.2/MSDK/lwip/lwip-2.1.2/src/apps/altcp_tls\altcp_tls_mbedtls.c ****       /* @todo: convert error to err_t */
 1119              		.loc 1 1116 8 is_stmt 0
 1120 0044 E577     		li	a5,-28672
 1121 0046 93870778 		addi	a5,a5,1920
 1122 004a 638FF402 		beq	s1,a5,.L172
1120:C:/Users/stapi/OneDrive/Desktop/GD32VW553/GD32VW55X_Wifi_BLE_SDK/GD32VW55x_RELEASE_V1.0.2/MSDK/lwip/lwip-2.1.2/src/apps/altcp_tls\altcp_tls_mbedtls.c ****     return ERR_VAL;
 1123              		.loc 1 1120 5 is_stmt 1 discriminator 1
1120:C:/Users/stapi/OneDrive/Desktop/GD32VW553/GD32VW55X_Wifi_BLE_SDK/GD32VW55x_RELEASE_V1.0.2/MSDK/lwip/lwip-2.1.2/src/apps/altcp_tls\altcp_tls_mbedtls.c ****     return ERR_VAL;
 1124              		.loc 1 1120 5 discriminator 1
1120:C:/Users/stapi/OneDrive/Desktop/GD32VW553/GD32VW55X_Wifi_BLE_SDK/GD32VW55x_RELEASE_V1.0.2/MSDK/lwip/lwip-2.1.2/src/apps/altcp_tls\altcp_tls_mbedtls.c ****     return ERR_VAL;
 1125              		.loc 1 1120 5 discriminator 1
1120:C:/Users/stapi/OneDrive/Desktop/GD32VW553/GD32VW55X_Wifi_BLE_SDK/GD32VW55x_RELEASE_V1.0.2/MSDK/lwip/lwip-2.1.2/src/apps/altcp_tls\altcp_tls_mbedtls.c ****     return ERR_VAL;
 1126              		.loc 1 1120 5 discriminator 1
 1127 004e B7060000 		lui	a3,%hi(.LC0)
 1128 0052 B7050000 		lui	a1,%hi(.LC6)
 1129 0056 37050000 		lui	a0,%hi(.LC2)
 1130 005a 93860600 		addi	a3,a3,%lo(.LC0)
 1131 005e 13060046 		li	a2,1120
 1132 0062 93850500 		addi	a1,a1,%lo(.LC6)
 1133 0066 13050500 		addi	a0,a0,%lo(.LC2)
 1134 006a 97000000 		call	printf
 1134      E7800000 
 1135              	.LVL130:
 1136              	.L173:
1120:C:/Users/stapi/OneDrive/Desktop/GD32VW553/GD32VW55X_Wifi_BLE_SDK/GD32VW55x_RELEASE_V1.0.2/MSDK/lwip/lwip-2.1.2/src/apps/altcp_tls\altcp_tls_mbedtls.c ****     return ERR_VAL;
 1137              		.loc 1 1120 5 discriminator 2
1120:C:/Users/stapi/OneDrive/Desktop/GD32VW553/GD32VW55X_Wifi_BLE_SDK/GD32VW55x_RELEASE_V1.0.2/MSDK/lwip/lwip-2.1.2/src/apps/altcp_tls\altcp_tls_mbedtls.c ****     return ERR_VAL;
 1138              		.loc 1 1120 5 discriminator 2
1120:C:/Users/stapi/OneDrive/Desktop/GD32VW553/GD32VW55X_Wifi_BLE_SDK/GD32VW55x_RELEASE_V1.0.2/MSDK/lwip/lwip-2.1.2/src/apps/altcp_tls\altcp_tls_mbedtls.c ****     return ERR_VAL;
 1139              		.loc 1 1120 5 discriminator 2
 1140 0072 01A0     		j	.L173
 1141              	.LVL131:
 1142              	.L166:
1098:C:/Users/stapi/OneDrive/Desktop/GD32VW553/GD32VW55X_Wifi_BLE_SDK/GD32VW55x_RELEASE_V1.0.2/MSDK/lwip/lwip-2.1.2/src/apps/altcp_tls\altcp_tls_mbedtls.c ****     if (state->ssl_context.out_left) {
 1143              		.loc 1 1098 5 is_stmt 0
 1144 0074 2685     		mv	a0,s1
 1145              	.LVL132:
 1146 0076 2EC6     		sw	a1,12(sp)
1098:C:/Users/stapi/OneDrive/Desktop/GD32VW553/GD32VW55X_Wifi_BLE_SDK/GD32VW55x_RELEASE_V1.0.2/MSDK/lwip/lwip-2.1.2/src/apps/altcp_tls\altcp_tls_mbedtls.c ****     if (state->ssl_context.out_left) {
 1147              		.loc 1 1098 5 is_stmt 1
 1148 0078 97000000 		call	mbedtls_ssl_flush_output
 1148      E7800000 
 1149              	.LVL133:
1099:C:/Users/stapi/OneDrive/Desktop/GD32VW553/GD32VW55X_Wifi_BLE_SDK/GD32VW55x_RELEASE_V1.0.2/MSDK/lwip/lwip-2.1.2/src/apps/altcp_tls\altcp_tls_mbedtls.c ****       return ERR_MEM;
 1150              		.loc 1 1099 5
1099:C:/Users/stapi/OneDrive/Desktop/GD32VW553/GD32VW55X_Wifi_BLE_SDK/GD32VW55x_RELEASE_V1.0.2/MSDK/lwip/lwip-2.1.2/src/apps/altcp_tls\altcp_tls_mbedtls.c ****       return ERR_MEM;
 1151              		.loc 1 1099 8 is_stmt 0
 1152 0080 8327840D 		lw	a5,216(s0)
 1153 0084 B245     		lw	a1,12(sp)
 1154 0086 C5D3     		beq	a5,zero,.L169
 1155              	.LVL134:
 1156              	.L172:
1100:C:/Users/stapi/OneDrive/Desktop/GD32VW553/GD32VW55X_Wifi_BLE_SDK/GD32VW55x_RELEASE_V1.0.2/MSDK/lwip/lwip-2.1.2/src/apps/altcp_tls\altcp_tls_mbedtls.c ****     }
 1157              		.loc 1 1100 14
 1158 0088 7D55     		li	a0,-1
 1159              	.L165:
1123:C:/Users/stapi/OneDrive/Desktop/GD32VW553/GD32VW55X_Wifi_BLE_SDK/GD32VW55x_RELEASE_V1.0.2/MSDK/lwip/lwip-2.1.2/src/apps/altcp_tls\altcp_tls_mbedtls.c **** 
 1160              		.loc 1 1123 1
 1161 008a 4101     		addi	sp,sp,16
 1162              		.cfi_remember_state
 1163              		.cfi_def_cfa_offset 0
 1164 008c 17030000 		tail	__riscv_restore_4
 1164      67000300 
 1165              		.cfi_restore 19
 1166              		.cfi_restore 18
 1167              		.cfi_restore 9
 1168              		.cfi_restore 8
 1169              		.cfi_restore 1
 1170              		.cfi_def_cfa_offset -32
 1171              	.LVL135:
 1172              	.L167:
 1173              		.cfi_restore_state
1107:C:/Users/stapi/OneDrive/Desktop/GD32VW553/GD32VW55X_Wifi_BLE_SDK/GD32VW55x_RELEASE_V1.0.2/MSDK/lwip/lwip-2.1.2/src/apps/altcp_tls\altcp_tls_mbedtls.c ****       state->flags |= ALTCP_MBEDTLS_FLAGS_APPLDATA_SENT;
 1174              		.loc 1 1107 5 is_stmt 1
1107:C:/Users/stapi/OneDrive/Desktop/GD32VW553/GD32VW55X_Wifi_BLE_SDK/GD32VW55x_RELEASE_V1.0.2/MSDK/lwip/lwip-2.1.2/src/apps/altcp_tls\altcp_tls_mbedtls.c ****       state->flags |= ALTCP_MBEDTLS_FLAGS_APPLDATA_SENT;
 1175              		.loc 1 1107 8 is_stmt 0
 1176 0094 639A9900 		bne	s3,s1,.L170
1108:C:/Users/stapi/OneDrive/Desktop/GD32VW553/GD32VW55X_Wifi_BLE_SDK/GD32VW55x_RELEASE_V1.0.2/MSDK/lwip/lwip-2.1.2/src/apps/altcp_tls\altcp_tls_mbedtls.c ****       return ERR_OK;
 1177              		.loc 1 1108 7 is_stmt 1
1108:C:/Users/stapi/OneDrive/Desktop/GD32VW553/GD32VW55X_Wifi_BLE_SDK/GD32VW55x_RELEASE_V1.0.2/MSDK/lwip/lwip-2.1.2/src/apps/altcp_tls\altcp_tls_mbedtls.c ****       return ERR_OK;
 1178              		.loc 1 1108 20 is_stmt 0
 1179 0098 83478415 		lbu	a5,344(s0)
1109:C:/Users/stapi/OneDrive/Desktop/GD32VW553/GD32VW55X_Wifi_BLE_SDK/GD32VW55x_RELEASE_V1.0.2/MSDK/lwip/lwip-2.1.2/src/apps/altcp_tls\altcp_tls_mbedtls.c ****     } else {
 1180              		.loc 1 1109 14
 1181 009c 0145     		li	a0,0
1108:C:/Users/stapi/OneDrive/Desktop/GD32VW553/GD32VW55X_Wifi_BLE_SDK/GD32VW55x_RELEASE_V1.0.2/MSDK/lwip/lwip-2.1.2/src/apps/altcp_tls\altcp_tls_mbedtls.c ****       return ERR_OK;
 1182              		.loc 1 1108 20
 1183 009e 93E70701 		ori	a5,a5,16
 1184 00a2 230CF414 		sb	a5,344(s0)
1109:C:/Users/stapi/OneDrive/Desktop/GD32VW553/GD32VW55X_Wifi_BLE_SDK/GD32VW55x_RELEASE_V1.0.2/MSDK/lwip/lwip-2.1.2/src/apps/altcp_tls\altcp_tls_mbedtls.c ****     } else {
 1185              		.loc 1 1109 7 is_stmt 1
1109:C:/Users/stapi/OneDrive/Desktop/GD32VW553/GD32VW55X_Wifi_BLE_SDK/GD32VW55x_RELEASE_V1.0.2/MSDK/lwip/lwip-2.1.2/src/apps/altcp_tls\altcp_tls_mbedtls.c ****     } else {
 1186              		.loc 1 1109 14 is_stmt 0
 1187 00a6 D5B7     		j	.L165
 1188              	.L170:
1112:C:/Users/stapi/OneDrive/Desktop/GD32VW553/GD32VW55X_Wifi_BLE_SDK/GD32VW55x_RELEASE_V1.0.2/MSDK/lwip/lwip-2.1.2/src/apps/altcp_tls\altcp_tls_mbedtls.c ****       return ERR_MEM;
 1189              		.loc 1 1112 7 is_stmt 1 discriminator 1
1112:C:/Users/stapi/OneDrive/Desktop/GD32VW553/GD32VW55X_Wifi_BLE_SDK/GD32VW55x_RELEASE_V1.0.2/MSDK/lwip/lwip-2.1.2/src/apps/altcp_tls\altcp_tls_mbedtls.c ****       return ERR_MEM;
 1190              		.loc 1 1112 7 discriminator 1
1112:C:/Users/stapi/OneDrive/Desktop/GD32VW553/GD32VW55X_Wifi_BLE_SDK/GD32VW55x_RELEASE_V1.0.2/MSDK/lwip/lwip-2.1.2/src/apps/altcp_tls\altcp_tls_mbedtls.c ****       return ERR_MEM;
 1191              		.loc 1 1112 7 discriminator 1
1112:C:/Users/stapi/OneDrive/Desktop/GD32VW553/GD32VW55X_Wifi_BLE_SDK/GD32VW55x_RELEASE_V1.0.2/MSDK/lwip/lwip-2.1.2/src/apps/altcp_tls\altcp_tls_mbedtls.c ****       return ERR_MEM;
 1192              		.loc 1 1112 7 discriminator 1
 1193 00a8 B7060000 		lui	a3,%hi(.LC0)
 1194 00ac B7050000 		lui	a1,%hi(.LC5)
 1195 00b0 37050000 		lui	a0,%hi(.LC2)
 1196 00b4 93860600 		addi	a3,a3,%lo(.LC0)
 1197 00b8 13068045 		li	a2,1112
 1198 00bc 93850500 		addi	a1,a1,%lo(.LC5)
 1199 00c0 13050500 		addi	a0,a0,%lo(.LC2)
 1200 00c4 97000000 		call	printf
 1200      E7800000 
 1201              	.LVL136:
 1202              	.L171:
1112:C:/Users/stapi/OneDrive/Desktop/GD32VW553/GD32VW55X_Wifi_BLE_SDK/GD32VW55x_RELEASE_V1.0.2/MSDK/lwip/lwip-2.1.2/src/apps/altcp_tls\altcp_tls_mbedtls.c ****       return ERR_MEM;
 1203              		.loc 1 1112 7 discriminator 1
1112:C:/Users/stapi/OneDrive/Desktop/GD32VW553/GD32VW55X_Wifi_BLE_SDK/GD32VW55x_RELEASE_V1.0.2/MSDK/lwip/lwip-2.1.2/src/apps/altcp_tls\altcp_tls_mbedtls.c ****       return ERR_MEM;
 1204              		.loc 1 1112 7 discriminator 1
1112:C:/Users/stapi/OneDrive/Desktop/GD32VW553/GD32VW55X_Wifi_BLE_SDK/GD32VW55x_RELEASE_V1.0.2/MSDK/lwip/lwip-2.1.2/src/apps/altcp_tls\altcp_tls_mbedtls.c ****       return ERR_MEM;
 1205              		.loc 1 1112 7 discriminator 1
 1206 00cc 01A0     		j	.L171
 1207              	.LVL137:
 1208              	.L174:
 1209              		.cfi_def_cfa_offset 0
 1210              		.cfi_restore 1
 1211              		.cfi_restore 8
 1212              		.cfi_restore 9
 1213              		.cfi_restore 18
 1214              		.cfi_restore 19
1081:C:/Users/stapi/OneDrive/Desktop/GD32VW553/GD32VW55X_Wifi_BLE_SDK/GD32VW55x_RELEASE_V1.0.2/MSDK/lwip/lwip-2.1.2/src/apps/altcp_tls\altcp_tls_mbedtls.c ****   }
 1215              		.loc 1 1081 12 is_stmt 0
 1216 00ce 6955     		li	a0,-6
 1217              	.LVL138:
1123:C:/Users/stapi/OneDrive/Desktop/GD32VW553/GD32VW55X_Wifi_BLE_SDK/GD32VW55x_RELEASE_V1.0.2/MSDK/lwip/lwip-2.1.2/src/apps/altcp_tls\altcp_tls_mbedtls.c **** 
 1218              		.loc 1 1123 1
 1219 00d0 8280     		ret
 1220              	.LVL139:
 1221              	.L175:
 1222              		.cfi_def_cfa_offset 48
 1223              		.cfi_offset 1, -4
 1224              		.cfi_offset 8, -8
 1225              		.cfi_offset 9, -12
 1226              		.cfi_offset 18, -16
 1227              		.cfi_offset 19, -20
1087:C:/Users/stapi/OneDrive/Desktop/GD32VW553/GD32VW55X_Wifi_BLE_SDK/GD32VW55x_RELEASE_V1.0.2/MSDK/lwip/lwip-2.1.2/src/apps/altcp_tls\altcp_tls_mbedtls.c ****   }
 1228              		.loc 1 1087 12
 1229 00d2 4555     		li	a0,-15
 1230              	.LVL140:
 1231 00d4 5DBF     		j	.L165
 1232              	.LVL141:
 1233              	.L176:
1081:C:/Users/stapi/OneDrive/Desktop/GD32VW553/GD32VW55X_Wifi_BLE_SDK/GD32VW55x_RELEASE_V1.0.2/MSDK/lwip/lwip-2.1.2/src/apps/altcp_tls\altcp_tls_mbedtls.c ****   }
 1234              		.loc 1 1081 12
 1235 00d6 6955     		li	a0,-6
 1236              	.LVL142:
 1237 00d8 4DBF     		j	.L165
 1238              		.cfi_endproc
 1239              	.LFE420:
 1241              		.section	.text.altcp_mbedtls_close,"ax",@progbits
 1242              		.align	1
 1244              	altcp_mbedtls_close:
 1245              	.LFB418:
1006:C:/Users/stapi/OneDrive/Desktop/GD32VW553/GD32VW55X_Wifi_BLE_SDK/GD32VW55x_RELEASE_V1.0.2/MSDK/lwip/lwip-2.1.2/src/apps/altcp_tls\altcp_tls_mbedtls.c ****   struct altcp_pcb *inner_conn;
 1246              		.loc 1 1006 1 is_stmt 1
 1247              		.cfi_startproc
 1248              	.LVL143:
 1249 0000 17030000 		call	t0,__riscv_save_4
 1249      E7020300 
 1250              		.cfi_offset 19, -20
 1251              		.cfi_offset 18, -16
 1252              		.cfi_offset 9, -12
 1253              		.cfi_offset 8, -8
 1254              		.cfi_offset 1, -4
 1255              		.cfi_def_cfa_offset 32
1007:C:/Users/stapi/OneDrive/Desktop/GD32VW553/GD32VW55X_Wifi_BLE_SDK/GD32VW55x_RELEASE_V1.0.2/MSDK/lwip/lwip-2.1.2/src/apps/altcp_tls\altcp_tls_mbedtls.c ****   if (conn == NULL) {
 1256              		.loc 1 1007 3
1008:C:/Users/stapi/OneDrive/Desktop/GD32VW553/GD32VW55X_Wifi_BLE_SDK/GD32VW55x_RELEASE_V1.0.2/MSDK/lwip/lwip-2.1.2/src/apps/altcp_tls\altcp_tls_mbedtls.c ****     return ERR_VAL;
 1257              		.loc 1 1008 3
1009:C:/Users/stapi/OneDrive/Desktop/GD32VW553/GD32VW55X_Wifi_BLE_SDK/GD32VW55x_RELEASE_V1.0.2/MSDK/lwip/lwip-2.1.2/src/apps/altcp_tls\altcp_tls_mbedtls.c ****   }
 1258              		.loc 1 1009 12 is_stmt 0
 1259 0008 6959     		li	s2,-6
1008:C:/Users/stapi/OneDrive/Desktop/GD32VW553/GD32VW55X_Wifi_BLE_SDK/GD32VW55x_RELEASE_V1.0.2/MSDK/lwip/lwip-2.1.2/src/apps/altcp_tls\altcp_tls_mbedtls.c ****     return ERR_VAL;
 1260              		.loc 1 1008 6
 1261 000a 3DC9     		beq	a0,zero,.L186
1011:C:/Users/stapi/OneDrive/Desktop/GD32VW553/GD32VW55X_Wifi_BLE_SDK/GD32VW55x_RELEASE_V1.0.2/MSDK/lwip/lwip-2.1.2/src/apps/altcp_tls\altcp_tls_mbedtls.c ****   if (inner_conn) {
 1262              		.loc 1 1011 14
 1263 000c 4041     		lw	s0,4(a0)
 1264 000e AA84     		mv	s1,a0
1011:C:/Users/stapi/OneDrive/Desktop/GD32VW553/GD32VW55X_Wifi_BLE_SDK/GD32VW55x_RELEASE_V1.0.2/MSDK/lwip/lwip-2.1.2/src/apps/altcp_tls\altcp_tls_mbedtls.c ****   if (inner_conn) {
 1265              		.loc 1 1011 3 is_stmt 1
 1266              	.LVL144:
1012:C:/Users/stapi/OneDrive/Desktop/GD32VW553/GD32VW55X_Wifi_BLE_SDK/GD32VW55x_RELEASE_V1.0.2/MSDK/lwip/lwip-2.1.2/src/apps/altcp_tls\altcp_tls_mbedtls.c ****     err_t err;
 1267              		.loc 1 1012 3
1012:C:/Users/stapi/OneDrive/Desktop/GD32VW553/GD32VW55X_Wifi_BLE_SDK/GD32VW55x_RELEASE_V1.0.2/MSDK/lwip/lwip-2.1.2/src/apps/altcp_tls\altcp_tls_mbedtls.c ****     err_t err;
 1268              		.loc 1 1012 6 is_stmt 0
 1269 0010 3DCC     		beq	s0,zero,.L187
 1270              	.LBB16:
1013:C:/Users/stapi/OneDrive/Desktop/GD32VW553/GD32VW55X_Wifi_BLE_SDK/GD32VW55x_RELEASE_V1.0.2/MSDK/lwip/lwip-2.1.2/src/apps/altcp_tls\altcp_tls_mbedtls.c ****     altcp_poll_fn oldpoll = inner_conn->poll;
 1271              		.loc 1 1013 5 is_stmt 1
1014:C:/Users/stapi/OneDrive/Desktop/GD32VW553/GD32VW55X_Wifi_BLE_SDK/GD32VW55x_RELEASE_V1.0.2/MSDK/lwip/lwip-2.1.2/src/apps/altcp_tls\altcp_tls_mbedtls.c ****     altcp_mbedtls_remove_callbacks(conn->inner_conn);
 1272              		.loc 1 1014 5
 1273              	.LBB17:
 1274              	.LBB18:
 566:C:/Users/stapi/OneDrive/Desktop/GD32VW553/GD32VW55X_Wifi_BLE_SDK/GD32VW55x_RELEASE_V1.0.2/MSDK/lwip/lwip-2.1.2/src/apps/altcp_tls\altcp_tls_mbedtls.c ****   altcp_recv(inner_conn, NULL);
 1275              		.loc 1 566 3 is_stmt 0
 1276 0012 8145     		li	a1,0
 1277 0014 2285     		mv	a0,s0
 1278              	.LVL145:
 1279              	.LBE18:
 1280              	.LBE17:
1014:C:/Users/stapi/OneDrive/Desktop/GD32VW553/GD32VW55X_Wifi_BLE_SDK/GD32VW55x_RELEASE_V1.0.2/MSDK/lwip/lwip-2.1.2/src/apps/altcp_tls\altcp_tls_mbedtls.c ****     altcp_mbedtls_remove_callbacks(conn->inner_conn);
 1281              		.loc 1 1014 19
 1282 0016 83290402 		lw	s3,32(s0)
 1283              	.LVL146:
1015:C:/Users/stapi/OneDrive/Desktop/GD32VW553/GD32VW55X_Wifi_BLE_SDK/GD32VW55x_RELEASE_V1.0.2/MSDK/lwip/lwip-2.1.2/src/apps/altcp_tls\altcp_tls_mbedtls.c ****     err = altcp_close(conn->inner_conn);
 1284              		.loc 1 1015 5 is_stmt 1
 1285              	.LBB20:
 1286              	.LBB19:
 566:C:/Users/stapi/OneDrive/Desktop/GD32VW553/GD32VW55X_Wifi_BLE_SDK/GD32VW55x_RELEASE_V1.0.2/MSDK/lwip/lwip-2.1.2/src/apps/altcp_tls\altcp_tls_mbedtls.c ****   altcp_recv(inner_conn, NULL);
 1287              		.loc 1 566 3
 1288 001a 97000000 		call	altcp_arg
 1288      E7800000 
 1289              	.LVL147:
 567:C:/Users/stapi/OneDrive/Desktop/GD32VW553/GD32VW55X_Wifi_BLE_SDK/GD32VW55x_RELEASE_V1.0.2/MSDK/lwip/lwip-2.1.2/src/apps/altcp_tls\altcp_tls_mbedtls.c ****   altcp_sent(inner_conn, NULL);
 1290              		.loc 1 567 3
 1291 0022 8145     		li	a1,0
 1292 0024 2285     		mv	a0,s0
 1293 0026 97000000 		call	altcp_recv
 1293      E7800000 
 1294              	.LVL148:
 568:C:/Users/stapi/OneDrive/Desktop/GD32VW553/GD32VW55X_Wifi_BLE_SDK/GD32VW55x_RELEASE_V1.0.2/MSDK/lwip/lwip-2.1.2/src/apps/altcp_tls\altcp_tls_mbedtls.c ****   altcp_err(inner_conn, NULL);
 1295              		.loc 1 568 3
 1296 002e 8145     		li	a1,0
 1297 0030 2285     		mv	a0,s0
 1298 0032 97000000 		call	altcp_sent
 1298      E7800000 
 1299              	.LVL149:
 569:C:/Users/stapi/OneDrive/Desktop/GD32VW553/GD32VW55X_Wifi_BLE_SDK/GD32VW55x_RELEASE_V1.0.2/MSDK/lwip/lwip-2.1.2/src/apps/altcp_tls\altcp_tls_mbedtls.c ****   altcp_poll(inner_conn, NULL, inner_conn->pollinterval);
 1300              		.loc 1 569 3
 1301 003a 8145     		li	a1,0
 1302 003c 2285     		mv	a0,s0
 1303 003e 97000000 		call	altcp_err
 1303      E7800000 
 1304              	.LVL150:
 570:C:/Users/stapi/OneDrive/Desktop/GD32VW553/GD32VW55X_Wifi_BLE_SDK/GD32VW55x_RELEASE_V1.0.2/MSDK/lwip/lwip-2.1.2/src/apps/altcp_tls\altcp_tls_mbedtls.c **** }
 1305              		.loc 1 570 3
 1306 0046 03468402 		lbu	a2,40(s0)
 1307 004a 8145     		li	a1,0
 1308 004c 2285     		mv	a0,s0
 1309 004e 97000000 		call	altcp_poll
 1309      E7800000 
 1310              	.LVL151:
 1311              	.LBE19:
 1312              	.LBE20:
1016:C:/Users/stapi/OneDrive/Desktop/GD32VW553/GD32VW55X_Wifi_BLE_SDK/GD32VW55x_RELEASE_V1.0.2/MSDK/lwip/lwip-2.1.2/src/apps/altcp_tls\altcp_tls_mbedtls.c ****     if (err != ERR_OK) {
 1313              		.loc 1 1016 5
1016:C:/Users/stapi/OneDrive/Desktop/GD32VW553/GD32VW55X_Wifi_BLE_SDK/GD32VW55x_RELEASE_V1.0.2/MSDK/lwip/lwip-2.1.2/src/apps/altcp_tls\altcp_tls_mbedtls.c ****     if (err != ERR_OK) {
 1314              		.loc 1 1016 11 is_stmt 0
 1315 0056 C840     		lw	a0,4(s1)
 1316 0058 97000000 		call	altcp_close
 1316      E7800000 
 1317              	.LVL152:
 1318 0060 2A89     		mv	s2,a0
 1319              	.LVL153:
1017:C:/Users/stapi/OneDrive/Desktop/GD32VW553/GD32VW55X_Wifi_BLE_SDK/GD32VW55x_RELEASE_V1.0.2/MSDK/lwip/lwip-2.1.2/src/apps/altcp_tls\altcp_tls_mbedtls.c ****       /* not closed, set up all callbacks again */
 1320              		.loc 1 1017 5 is_stmt 1
1017:C:/Users/stapi/OneDrive/Desktop/GD32VW553/GD32VW55X_Wifi_BLE_SDK/GD32VW55x_RELEASE_V1.0.2/MSDK/lwip/lwip-2.1.2/src/apps/altcp_tls\altcp_tls_mbedtls.c ****       /* not closed, set up all callbacks again */
 1321              		.loc 1 1017 8 is_stmt 0
 1322 0062 05C5     		beq	a0,zero,.L188
1019:C:/Users/stapi/OneDrive/Desktop/GD32VW553/GD32VW55X_Wifi_BLE_SDK/GD32VW55x_RELEASE_V1.0.2/MSDK/lwip/lwip-2.1.2/src/apps/altcp_tls\altcp_tls_mbedtls.c ****       /* poll callback is not included in the above */
 1323              		.loc 1 1019 7 is_stmt 1
 1324 0064 A285     		mv	a1,s0
 1325 0066 2685     		mv	a0,s1
 1326              	.LVL154:
 1327 0068 97000000 		call	altcp_mbedtls_setup_callbacks
 1327      E7800000 
 1328              	.LVL155:
1021:C:/Users/stapi/OneDrive/Desktop/GD32VW553/GD32VW55X_Wifi_BLE_SDK/GD32VW55x_RELEASE_V1.0.2/MSDK/lwip/lwip-2.1.2/src/apps/altcp_tls\altcp_tls_mbedtls.c ****       return err;
 1329              		.loc 1 1021 7
 1330 0070 03468402 		lbu	a2,40(s0)
 1331 0074 CE85     		mv	a1,s3
 1332 0076 2285     		mv	a0,s0
 1333 0078 97000000 		call	altcp_poll
 1333      E7800000 
 1334              	.LVL156:
1022:C:/Users/stapi/OneDrive/Desktop/GD32VW553/GD32VW55X_Wifi_BLE_SDK/GD32VW55x_RELEASE_V1.0.2/MSDK/lwip/lwip-2.1.2/src/apps/altcp_tls\altcp_tls_mbedtls.c ****     }
 1335              		.loc 1 1022 7
 1336              	.L186:
 1337              	.LBE16:
1028:C:/Users/stapi/OneDrive/Desktop/GD32VW553/GD32VW55X_Wifi_BLE_SDK/GD32VW55x_RELEASE_V1.0.2/MSDK/lwip/lwip-2.1.2/src/apps/altcp_tls\altcp_tls_mbedtls.c **** 
 1338              		.loc 1 1028 1 is_stmt 0
 1339 0080 4A85     		mv	a0,s2
 1340 0082 17030000 		tail	__riscv_restore_4
 1340      67000300 
 1341              		.cfi_remember_state
 1342              		.cfi_restore 19
 1343              		.cfi_restore 18
 1344              		.cfi_restore 9
 1345              		.cfi_restore 8
 1346              		.cfi_restore 1
 1347              		.cfi_def_cfa_offset 0
 1348              	.LVL157:
 1349              	.L188:
 1350              		.cfi_restore_state
 1351              	.LBB21:
1024:C:/Users/stapi/OneDrive/Desktop/GD32VW553/GD32VW55X_Wifi_BLE_SDK/GD32VW55x_RELEASE_V1.0.2/MSDK/lwip/lwip-2.1.2/src/apps/altcp_tls\altcp_tls_mbedtls.c ****   }
 1352              		.loc 1 1024 5 is_stmt 1
1024:C:/Users/stapi/OneDrive/Desktop/GD32VW553/GD32VW55X_Wifi_BLE_SDK/GD32VW55x_RELEASE_V1.0.2/MSDK/lwip/lwip-2.1.2/src/apps/altcp_tls\altcp_tls_mbedtls.c ****   }
 1353              		.loc 1 1024 22 is_stmt 0
 1354 008a 23A20400 		sw	zero,4(s1)
 1355              	.LVL158:
 1356              	.L187:
 1357              	.LBE21:
1026:C:/Users/stapi/OneDrive/Desktop/GD32VW553/GD32VW55X_Wifi_BLE_SDK/GD32VW55x_RELEASE_V1.0.2/MSDK/lwip/lwip-2.1.2/src/apps/altcp_tls\altcp_tls_mbedtls.c ****   return ERR_OK;
 1358              		.loc 1 1026 3 is_stmt 1
 1359 008e 2685     		mv	a0,s1
 1360 0090 97000000 		call	altcp_free
 1360      E7800000 
 1361              	.LVL159:
1027:C:/Users/stapi/OneDrive/Desktop/GD32VW553/GD32VW55X_Wifi_BLE_SDK/GD32VW55x_RELEASE_V1.0.2/MSDK/lwip/lwip-2.1.2/src/apps/altcp_tls\altcp_tls_mbedtls.c **** }
 1362              		.loc 1 1027 3
1027:C:/Users/stapi/OneDrive/Desktop/GD32VW553/GD32VW55X_Wifi_BLE_SDK/GD32VW55x_RELEASE_V1.0.2/MSDK/lwip/lwip-2.1.2/src/apps/altcp_tls\altcp_tls_mbedtls.c **** }
 1363              		.loc 1 1027 10 is_stmt 0
 1364 0098 0149     		li	s2,0
 1365 009a DDB7     		j	.L186
 1366              		.cfi_endproc
 1367              	.LFE418:
 1369              		.section	.text.altcp_mbedtls_listen,"ax",@progbits
 1370              		.align	1
 1372              	altcp_mbedtls_listen:
 1373              	.LFB416:
 982:C:/Users/stapi/OneDrive/Desktop/GD32VW553/GD32VW55X_Wifi_BLE_SDK/GD32VW55x_RELEASE_V1.0.2/MSDK/lwip/lwip-2.1.2/src/apps/altcp_tls\altcp_tls_mbedtls.c ****   struct altcp_pcb *lpcb;
 1374              		.loc 1 982 1 is_stmt 1
 1375              		.cfi_startproc
 1376              	.LVL160:
 1377 0000 17030000 		call	t0,__riscv_save_1
 1377      E7020300 
 1378              		.cfi_offset 8, -8
 1379              		.cfi_offset 1, -4
 1380              		.cfi_def_cfa_offset 16
 983:C:/Users/stapi/OneDrive/Desktop/GD32VW553/GD32VW55X_Wifi_BLE_SDK/GD32VW55x_RELEASE_V1.0.2/MSDK/lwip/lwip-2.1.2/src/apps/altcp_tls\altcp_tls_mbedtls.c ****   if (conn == NULL) {
 1381              		.loc 1 983 3
 984:C:/Users/stapi/OneDrive/Desktop/GD32VW553/GD32VW55X_Wifi_BLE_SDK/GD32VW55x_RELEASE_V1.0.2/MSDK/lwip/lwip-2.1.2/src/apps/altcp_tls\altcp_tls_mbedtls.c ****     return NULL;
 1382              		.loc 1 984 3
 984:C:/Users/stapi/OneDrive/Desktop/GD32VW553/GD32VW55X_Wifi_BLE_SDK/GD32VW55x_RELEASE_V1.0.2/MSDK/lwip/lwip-2.1.2/src/apps/altcp_tls\altcp_tls_mbedtls.c ****     return NULL;
 1383              		.loc 1 984 6 is_stmt 0
 1384 0008 19E5     		bne	a0,zero,.L195
 1385              	.LVL161:
 1386              	.L197:
 985:C:/Users/stapi/OneDrive/Desktop/GD32VW553/GD32VW55X_Wifi_BLE_SDK/GD32VW55x_RELEASE_V1.0.2/MSDK/lwip/lwip-2.1.2/src/apps/altcp_tls\altcp_tls_mbedtls.c ****   }
 1387              		.loc 1 985 12
 1388 000a 0144     		li	s0,0
 1389              	.L196:
 994:C:/Users/stapi/OneDrive/Desktop/GD32VW553/GD32VW55X_Wifi_BLE_SDK/GD32VW55x_RELEASE_V1.0.2/MSDK/lwip/lwip-2.1.2/src/apps/altcp_tls\altcp_tls_mbedtls.c **** 
 1390              		.loc 1 994 1
 1391 000c 2285     		mv	a0,s0
 1392 000e 17030000 		tail	__riscv_restore_1
 1392      67000300 
 1393              		.cfi_remember_state
 1394              		.cfi_restore 8
 1395              		.cfi_restore 1
 1396              		.cfi_def_cfa_offset 0
 1397              	.LVL162:
 1398              	.L195:
 1399              		.cfi_restore_state
 1400 0016 2A84     		mv	s0,a0
 987:C:/Users/stapi/OneDrive/Desktop/GD32VW553/GD32VW55X_Wifi_BLE_SDK/GD32VW55x_RELEASE_V1.0.2/MSDK/lwip/lwip-2.1.2/src/apps/altcp_tls\altcp_tls_mbedtls.c ****   if (lpcb != NULL) {
 1401              		.loc 1 987 3 is_stmt 1
 987:C:/Users/stapi/OneDrive/Desktop/GD32VW553/GD32VW55X_Wifi_BLE_SDK/GD32VW55x_RELEASE_V1.0.2/MSDK/lwip/lwip-2.1.2/src/apps/altcp_tls\altcp_tls_mbedtls.c ****   if (lpcb != NULL) {
 1402              		.loc 1 987 10 is_stmt 0
 1403 0018 4841     		lw	a0,4(a0)
 1404              	.LVL163:
 1405 001a 97000000 		call	altcp_listen_with_backlog_and_err
 1405      E7800000 
 1406              	.LVL164:
 988:C:/Users/stapi/OneDrive/Desktop/GD32VW553/GD32VW55X_Wifi_BLE_SDK/GD32VW55x_RELEASE_V1.0.2/MSDK/lwip/lwip-2.1.2/src/apps/altcp_tls\altcp_tls_mbedtls.c ****     conn->inner_conn = lpcb;
 1407              		.loc 1 988 3 is_stmt 1
 988:C:/Users/stapi/OneDrive/Desktop/GD32VW553/GD32VW55X_Wifi_BLE_SDK/GD32VW55x_RELEASE_V1.0.2/MSDK/lwip/lwip-2.1.2/src/apps/altcp_tls\altcp_tls_mbedtls.c ****     conn->inner_conn = lpcb;
 1408              		.loc 1 988 6 is_stmt 0
 1409 0022 65D5     		beq	a0,zero,.L197
 989:C:/Users/stapi/OneDrive/Desktop/GD32VW553/GD32VW55X_Wifi_BLE_SDK/GD32VW55x_RELEASE_V1.0.2/MSDK/lwip/lwip-2.1.2/src/apps/altcp_tls\altcp_tls_mbedtls.c ****     altcp_accept(lpcb, altcp_mbedtls_lower_accept);
 1410              		.loc 1 989 5 is_stmt 1
 990:C:/Users/stapi/OneDrive/Desktop/GD32VW553/GD32VW55X_Wifi_BLE_SDK/GD32VW55x_RELEASE_V1.0.2/MSDK/lwip/lwip-2.1.2/src/apps/altcp_tls\altcp_tls_mbedtls.c ****     return conn;
 1411              		.loc 1 990 5 is_stmt 0
 1412 0024 B7050000 		lui	a1,%hi(altcp_mbedtls_lower_accept)
 989:C:/Users/stapi/OneDrive/Desktop/GD32VW553/GD32VW55X_Wifi_BLE_SDK/GD32VW55x_RELEASE_V1.0.2/MSDK/lwip/lwip-2.1.2/src/apps/altcp_tls\altcp_tls_mbedtls.c ****     altcp_accept(lpcb, altcp_mbedtls_lower_accept);
 1413              		.loc 1 989 22
 1414 0028 48C0     		sw	a0,4(s0)
 990:C:/Users/stapi/OneDrive/Desktop/GD32VW553/GD32VW55X_Wifi_BLE_SDK/GD32VW55x_RELEASE_V1.0.2/MSDK/lwip/lwip-2.1.2/src/apps/altcp_tls\altcp_tls_mbedtls.c ****     return conn;
 1415              		.loc 1 990 5 is_stmt 1
 1416 002a 93850500 		addi	a1,a1,%lo(altcp_mbedtls_lower_accept)
 1417 002e 97000000 		call	altcp_accept
 1417      E7800000 
 1418              	.LVL165:
 991:C:/Users/stapi/OneDrive/Desktop/GD32VW553/GD32VW55X_Wifi_BLE_SDK/GD32VW55x_RELEASE_V1.0.2/MSDK/lwip/lwip-2.1.2/src/apps/altcp_tls\altcp_tls_mbedtls.c ****   }
 1419              		.loc 1 991 5
 991:C:/Users/stapi/OneDrive/Desktop/GD32VW553/GD32VW55X_Wifi_BLE_SDK/GD32VW55x_RELEASE_V1.0.2/MSDK/lwip/lwip-2.1.2/src/apps/altcp_tls\altcp_tls_mbedtls.c ****   }
 1420              		.loc 1 991 12 is_stmt 0
 1421 0036 D9BF     		j	.L196
 1422              		.cfi_endproc
 1423              	.LFE416:
 1425              		.section	.text.altcp_mbedtls_connect,"ax",@progbits
 1426              		.align	1
 1428              	altcp_mbedtls_connect:
 1429              	.LFB415:
 972:C:/Users/stapi/OneDrive/Desktop/GD32VW553/GD32VW55X_Wifi_BLE_SDK/GD32VW55x_RELEASE_V1.0.2/MSDK/lwip/lwip-2.1.2/src/apps/altcp_tls\altcp_tls_mbedtls.c ****   if (conn == NULL) {
 1430              		.loc 1 972 1 is_stmt 1
 1431              		.cfi_startproc
 1432              	.LVL166:
 973:C:/Users/stapi/OneDrive/Desktop/GD32VW553/GD32VW55X_Wifi_BLE_SDK/GD32VW55x_RELEASE_V1.0.2/MSDK/lwip/lwip-2.1.2/src/apps/altcp_tls\altcp_tls_mbedtls.c ****     return ERR_VAL;
 1433              		.loc 1 973 3
 973:C:/Users/stapi/OneDrive/Desktop/GD32VW553/GD32VW55X_Wifi_BLE_SDK/GD32VW55x_RELEASE_V1.0.2/MSDK/lwip/lwip-2.1.2/src/apps/altcp_tls\altcp_tls_mbedtls.c ****     return ERR_VAL;
 1434              		.loc 1 973 6 is_stmt 0
 1435 0000 19C9     		beq	a0,zero,.L204
 976:C:/Users/stapi/OneDrive/Desktop/GD32VW553/GD32VW55X_Wifi_BLE_SDK/GD32VW55x_RELEASE_V1.0.2/MSDK/lwip/lwip-2.1.2/src/apps/altcp_tls\altcp_tls_mbedtls.c ****   return altcp_connect(conn->inner_conn, ipaddr, port, altcp_mbedtls_lower_connected);
 1436              		.loc 1 976 3 is_stmt 1
 976:C:/Users/stapi/OneDrive/Desktop/GD32VW553/GD32VW55X_Wifi_BLE_SDK/GD32VW55x_RELEASE_V1.0.2/MSDK/lwip/lwip-2.1.2/src/apps/altcp_tls\altcp_tls_mbedtls.c ****   return altcp_connect(conn->inner_conn, ipaddr, port, altcp_mbedtls_lower_connected);
 1437              		.loc 1 976 19 is_stmt 0
 1438 0002 54C9     		sw	a3,20(a0)
 977:C:/Users/stapi/OneDrive/Desktop/GD32VW553/GD32VW55X_Wifi_BLE_SDK/GD32VW55x_RELEASE_V1.0.2/MSDK/lwip/lwip-2.1.2/src/apps/altcp_tls\altcp_tls_mbedtls.c **** }
 1439              		.loc 1 977 3 is_stmt 1
 977:C:/Users/stapi/OneDrive/Desktop/GD32VW553/GD32VW55X_Wifi_BLE_SDK/GD32VW55x_RELEASE_V1.0.2/MSDK/lwip/lwip-2.1.2/src/apps/altcp_tls\altcp_tls_mbedtls.c **** }
 1440              		.loc 1 977 10 is_stmt 0
 1441 0004 4841     		lw	a0,4(a0)
 1442              	.LVL167:
 1443 0006 B7060000 		lui	a3,%hi(altcp_mbedtls_lower_connected)
 1444              	.LVL168:
 1445 000a 93860600 		addi	a3,a3,%lo(altcp_mbedtls_lower_connected)
 1446 000e 17030000 		tail	altcp_connect
 1446      67000300 
 1447              	.LVL169:
 1448              	.L204:
 974:C:/Users/stapi/OneDrive/Desktop/GD32VW553/GD32VW55X_Wifi_BLE_SDK/GD32VW55x_RELEASE_V1.0.2/MSDK/lwip/lwip-2.1.2/src/apps/altcp_tls\altcp_tls_mbedtls.c ****   }
 1449              		.loc 1 974 12
 1450 0016 6955     		li	a0,-6
 1451              	.LVL170:
 978:C:/Users/stapi/OneDrive/Desktop/GD32VW553/GD32VW55X_Wifi_BLE_SDK/GD32VW55x_RELEASE_V1.0.2/MSDK/lwip/lwip-2.1.2/src/apps/altcp_tls\altcp_tls_mbedtls.c **** 
 1452              		.loc 1 978 1
 1453 0018 8280     		ret
 1454              		.cfi_endproc
 1455              	.LFE415:
 1457              		.section	.rodata.altcp_mbedtls_bio_send.str1.4,"aMS",@progbits,1
 1458              		.align	2
 1459              	.LC7:
 1460 0000 636F6E6E 		.string	"conn != NULL"
 1460      20213D20 
 1460      4E554C4C 
 1460      00
 1461 000d 000000   		.align	2
 1462              	.LC8:
 1463 0010 746C735F 		.string	"tls_write, tcp_write: err != ERR MEM"
 1463      77726974 
 1463      652C2074 
 1463      63705F77 
 1463      72697465 
 1464              		.section	.text.altcp_mbedtls_bio_send,"ax",@progbits
 1465              		.align	1
 1467              	altcp_mbedtls_bio_send:
 1468              	.LFB421:
1131:C:/Users/stapi/OneDrive/Desktop/GD32VW553/GD32VW55X_Wifi_BLE_SDK/GD32VW55x_RELEASE_V1.0.2/MSDK/lwip/lwip-2.1.2/src/apps/altcp_tls\altcp_tls_mbedtls.c ****   struct altcp_pcb *conn = (struct altcp_pcb *) ctx;
 1469              		.loc 1 1131 1 is_stmt 1
 1470              		.cfi_startproc
 1471              	.LVL171:
 1472 0000 17030000 		call	t0,__riscv_save_7
 1472      E7020300 
 1473              		.cfi_offset 22, -32
 1474              		.cfi_offset 21, -28
 1475              		.cfi_offset 20, -24
 1476              		.cfi_offset 19, -20
 1477              		.cfi_offset 18, -16
 1478              		.cfi_offset 9, -12
 1479              		.cfi_offset 8, -8
 1480              		.cfi_offset 1, -4
 1481              		.cfi_def_cfa_offset 32
1132:C:/Users/stapi/OneDrive/Desktop/GD32VW553/GD32VW55X_Wifi_BLE_SDK/GD32VW55x_RELEASE_V1.0.2/MSDK/lwip/lwip-2.1.2/src/apps/altcp_tls\altcp_tls_mbedtls.c ****   int written = 0;
 1482              		.loc 1 1132 3
 1483              	.LVL172:
1133:C:/Users/stapi/OneDrive/Desktop/GD32VW553/GD32VW55X_Wifi_BLE_SDK/GD32VW55x_RELEASE_V1.0.2/MSDK/lwip/lwip-2.1.2/src/apps/altcp_tls\altcp_tls_mbedtls.c ****   size_t size_left = size;
 1484              		.loc 1 1133 3
1134:C:/Users/stapi/OneDrive/Desktop/GD32VW553/GD32VW55X_Wifi_BLE_SDK/GD32VW55x_RELEASE_V1.0.2/MSDK/lwip/lwip-2.1.2/src/apps/altcp_tls\altcp_tls_mbedtls.c ****   u8_t apiflags = TCP_WRITE_FLAG_COPY;
 1485              		.loc 1 1134 3
1135:C:/Users/stapi/OneDrive/Desktop/GD32VW553/GD32VW55X_Wifi_BLE_SDK/GD32VW55x_RELEASE_V1.0.2/MSDK/lwip/lwip-2.1.2/src/apps/altcp_tls\altcp_tls_mbedtls.c **** 
 1486              		.loc 1 1135 3
1137:C:/Users/stapi/OneDrive/Desktop/GD32VW553/GD32VW55X_Wifi_BLE_SDK/GD32VW55x_RELEASE_V1.0.2/MSDK/lwip/lwip-2.1.2/src/apps/altcp_tls\altcp_tls_mbedtls.c ****   if ((conn == NULL) || (conn->inner_conn == NULL)) {
 1487              		.loc 1 1137 3
1137:C:/Users/stapi/OneDrive/Desktop/GD32VW553/GD32VW55X_Wifi_BLE_SDK/GD32VW55x_RELEASE_V1.0.2/MSDK/lwip/lwip-2.1.2/src/apps/altcp_tls\altcp_tls_mbedtls.c ****   if ((conn == NULL) || (conn->inner_conn == NULL)) {
 1488              		.loc 1 1137 3
 1489 0008 05E5     		bne	a0,zero,.L210
1137:C:/Users/stapi/OneDrive/Desktop/GD32VW553/GD32VW55X_Wifi_BLE_SDK/GD32VW55x_RELEASE_V1.0.2/MSDK/lwip/lwip-2.1.2/src/apps/altcp_tls\altcp_tls_mbedtls.c ****   if ((conn == NULL) || (conn->inner_conn == NULL)) {
 1490              		.loc 1 1137 3 discriminator 1
1137:C:/Users/stapi/OneDrive/Desktop/GD32VW553/GD32VW55X_Wifi_BLE_SDK/GD32VW55x_RELEASE_V1.0.2/MSDK/lwip/lwip-2.1.2/src/apps/altcp_tls\altcp_tls_mbedtls.c ****   if ((conn == NULL) || (conn->inner_conn == NULL)) {
 1491              		.loc 1 1137 3 discriminator 1
 1492 000a B7060000 		lui	a3,%hi(.LC0)
 1493 000e B7050000 		lui	a1,%hi(.LC7)
 1494              	.LVL173:
 1495 0012 37050000 		lui	a0,%hi(.LC2)
 1496              	.LVL174:
 1497 0016 93860600 		addi	a3,a3,%lo(.LC0)
 1498 001a 13061047 		li	a2,1137
 1499              	.LVL175:
 1500 001e 93850500 		addi	a1,a1,%lo(.LC7)
 1501 0022 13050500 		addi	a0,a0,%lo(.LC2)
 1502 0026 97000000 		call	printf
 1502      E7800000 
 1503              	.LVL176:
 1504              	.L211:
1137:C:/Users/stapi/OneDrive/Desktop/GD32VW553/GD32VW55X_Wifi_BLE_SDK/GD32VW55x_RELEASE_V1.0.2/MSDK/lwip/lwip-2.1.2/src/apps/altcp_tls\altcp_tls_mbedtls.c ****   if ((conn == NULL) || (conn->inner_conn == NULL)) {
 1505              		.loc 1 1137 3 discriminator 1
1137:C:/Users/stapi/OneDrive/Desktop/GD32VW553/GD32VW55X_Wifi_BLE_SDK/GD32VW55x_RELEASE_V1.0.2/MSDK/lwip/lwip-2.1.2/src/apps/altcp_tls\altcp_tls_mbedtls.c ****   if ((conn == NULL) || (conn->inner_conn == NULL)) {
 1506              		.loc 1 1137 3 discriminator 1
1137:C:/Users/stapi/OneDrive/Desktop/GD32VW553/GD32VW55X_Wifi_BLE_SDK/GD32VW55x_RELEASE_V1.0.2/MSDK/lwip/lwip-2.1.2/src/apps/altcp_tls\altcp_tls_mbedtls.c ****   if ((conn == NULL) || (conn->inner_conn == NULL)) {
 1507              		.loc 1 1137 3 discriminator 1
 1508 002e 01A0     		j	.L211
 1509              	.LVL177:
 1510              	.L210:
1138:C:/Users/stapi/OneDrive/Desktop/GD32VW553/GD32VW55X_Wifi_BLE_SDK/GD32VW55x_RELEASE_V1.0.2/MSDK/lwip/lwip-2.1.2/src/apps/altcp_tls\altcp_tls_mbedtls.c ****     return MBEDTLS_ERR_NET_INVALID_CONTEXT;
 1511              		.loc 1 1138 22 is_stmt 0 discriminator 1
 1512 0030 5C41     		lw	a5,4(a0)
 1513 0032 AA84     		mv	s1,a0
1137:C:/Users/stapi/OneDrive/Desktop/GD32VW553/GD32VW55X_Wifi_BLE_SDK/GD32VW55x_RELEASE_V1.0.2/MSDK/lwip/lwip-2.1.2/src/apps/altcp_tls\altcp_tls_mbedtls.c ****   if ((conn == NULL) || (conn->inner_conn == NULL)) {
 1514              		.loc 1 1137 3 is_stmt 1 discriminator 1
1137:C:/Users/stapi/OneDrive/Desktop/GD32VW553/GD32VW55X_Wifi_BLE_SDK/GD32VW55x_RELEASE_V1.0.2/MSDK/lwip/lwip-2.1.2/src/apps/altcp_tls\altcp_tls_mbedtls.c ****   if ((conn == NULL) || (conn->inner_conn == NULL)) {
 1515              		.loc 1 1137 3 discriminator 1
1138:C:/Users/stapi/OneDrive/Desktop/GD32VW553/GD32VW55X_Wifi_BLE_SDK/GD32VW55x_RELEASE_V1.0.2/MSDK/lwip/lwip-2.1.2/src/apps/altcp_tls\altcp_tls_mbedtls.c ****     return MBEDTLS_ERR_NET_INVALID_CONTEXT;
 1516              		.loc 1 1138 3 discriminator 1
1138:C:/Users/stapi/OneDrive/Desktop/GD32VW553/GD32VW55X_Wifi_BLE_SDK/GD32VW55x_RELEASE_V1.0.2/MSDK/lwip/lwip-2.1.2/src/apps/altcp_tls\altcp_tls_mbedtls.c ****     return MBEDTLS_ERR_NET_INVALID_CONTEXT;
 1517              		.loc 1 1138 22 is_stmt 0 discriminator 1
 1518 0034 BDC7     		beq	a5,zero,.L218
 1519              	.LVL178:
 1520              	.LBB25:
 1521              	.LBB26:
 1522              	.LBB27:
1143:C:/Users/stapi/OneDrive/Desktop/GD32VW553/GD32VW55X_Wifi_BLE_SDK/GD32VW55x_RELEASE_V1.0.2/MSDK/lwip/lwip-2.1.2/src/apps/altcp_tls\altcp_tls_mbedtls.c ****     err_t err = altcp_write(conn->inner_conn, (const void *)dataptr, write_len, apiflags);
 1523              		.loc 1 1143 23
 1524 0036 C167     		li	a5,65536
 1525 0038 AE8A     		mv	s5,a1
 1526 003a 3284     		mv	s0,a2
 1527              	.LBE27:
1133:C:/Users/stapi/OneDrive/Desktop/GD32VW553/GD32VW55X_Wifi_BLE_SDK/GD32VW55x_RELEASE_V1.0.2/MSDK/lwip/lwip-2.1.2/src/apps/altcp_tls\altcp_tls_mbedtls.c ****   size_t size_left = size;
 1528              		.loc 1 1133 7
 1529 003c 0149     		li	s2,0
 1530              	.LBB28:
1143:C:/Users/stapi/OneDrive/Desktop/GD32VW553/GD32VW55X_Wifi_BLE_SDK/GD32VW55x_RELEASE_V1.0.2/MSDK/lwip/lwip-2.1.2/src/apps/altcp_tls\altcp_tls_mbedtls.c ****     err_t err = altcp_write(conn->inner_conn, (const void *)dataptr, write_len, apiflags);
 1531              		.loc 1 1143 23
 1532 003e 138BE7FF 		addi	s6,a5,-2
 1533 0042 9389F7FF 		addi	s3,a5,-1
 1534              	.LVL179:
 1535              	.L213:
 1536              	.LBE28:
1142:C:/Users/stapi/OneDrive/Desktop/GD32VW553/GD32VW55X_Wifi_BLE_SDK/GD32VW55x_RELEASE_V1.0.2/MSDK/lwip/lwip-2.1.2/src/apps/altcp_tls\altcp_tls_mbedtls.c ****     u16_t write_len = (u16_t)LWIP_MIN(size_left, 0xFFFF);
 1537              		.loc 1 1142 9 is_stmt 1
 1538 0046 11E4     		bne	s0,zero,.L217
 1539              	.LVL180:
 1540              	.L209:
 1541              	.LBE26:
 1542              	.LBE25:
1160:C:/Users/stapi/OneDrive/Desktop/GD32VW553/GD32VW55X_Wifi_BLE_SDK/GD32VW55x_RELEASE_V1.0.2/MSDK/lwip/lwip-2.1.2/src/apps/altcp_tls\altcp_tls_mbedtls.c **** 
 1543              		.loc 1 1160 1 is_stmt 0
 1544 0048 4A85     		mv	a0,s2
 1545 004a 17030000 		tail	__riscv_restore_7
 1545      67000300 
 1546              		.cfi_remember_state
 1547              		.cfi_restore 22
 1548              		.cfi_restore 21
 1549              		.cfi_restore 20
 1550              		.cfi_restore 19
 1551              		.cfi_restore 18
 1552              		.cfi_restore 9
 1553              		.cfi_restore 8
 1554              		.cfi_restore 1
 1555              		.cfi_def_cfa_offset 0
 1556              	.LVL181:
 1557              	.L217:
 1558              		.cfi_restore_state
 1559              	.LBB31:
 1560              	.LBB30:
 1561              	.LBB29:
1143:C:/Users/stapi/OneDrive/Desktop/GD32VW553/GD32VW55X_Wifi_BLE_SDK/GD32VW55x_RELEASE_V1.0.2/MSDK/lwip/lwip-2.1.2/src/apps/altcp_tls\altcp_tls_mbedtls.c ****     err_t err = altcp_write(conn->inner_conn, (const void *)dataptr, write_len, apiflags);
 1562              		.loc 1 1143 5 is_stmt 1
 1563 0052 4E8A     		mv	s4,s3
1143:C:/Users/stapi/OneDrive/Desktop/GD32VW553/GD32VW55X_Wifi_BLE_SDK/GD32VW55x_RELEASE_V1.0.2/MSDK/lwip/lwip-2.1.2/src/apps/altcp_tls\altcp_tls_mbedtls.c ****     err_t err = altcp_write(conn->inner_conn, (const void *)dataptr, write_len, apiflags);
 1564              		.loc 1 1143 23 is_stmt 0
 1565 0054 63638B00 		bgtu	s0,s6,.L214
 1566 0058 228A     		mv	s4,s0
 1567              	.L214:
 1568              	.LVL182:
1144:C:/Users/stapi/OneDrive/Desktop/GD32VW553/GD32VW55X_Wifi_BLE_SDK/GD32VW55x_RELEASE_V1.0.2/MSDK/lwip/lwip-2.1.2/src/apps/altcp_tls\altcp_tls_mbedtls.c ****     if (err == ERR_OK) {
 1569              		.loc 1 1144 5 is_stmt 1
1144:C:/Users/stapi/OneDrive/Desktop/GD32VW553/GD32VW55X_Wifi_BLE_SDK/GD32VW55x_RELEASE_V1.0.2/MSDK/lwip/lwip-2.1.2/src/apps/altcp_tls\altcp_tls_mbedtls.c ****     if (err == ERR_OK) {
 1570              		.loc 1 1144 17 is_stmt 0
 1571 005a C840     		lw	a0,4(s1)
 1572 005c 8546     		li	a3,1
 1573 005e D685     		mv	a1,s5
 1574 0060 33460A08 		zext.h	a2,s4
 1575 0064 97000000 		call	altcp_write
 1575      E7800000 
 1576              	.LVL183:
1145:C:/Users/stapi/OneDrive/Desktop/GD32VW553/GD32VW55X_Wifi_BLE_SDK/GD32VW55x_RELEASE_V1.0.2/MSDK/lwip/lwip-2.1.2/src/apps/altcp_tls\altcp_tls_mbedtls.c ****       written += write_len;
 1577              		.loc 1 1145 5 is_stmt 1
1145:C:/Users/stapi/OneDrive/Desktop/GD32VW553/GD32VW55X_Wifi_BLE_SDK/GD32VW55x_RELEASE_V1.0.2/MSDK/lwip/lwip-2.1.2/src/apps/altcp_tls\altcp_tls_mbedtls.c ****       written += write_len;
 1578              		.loc 1 1145 8 is_stmt 0
 1579 006c 09E5     		bne	a0,zero,.L215
1146:C:/Users/stapi/OneDrive/Desktop/GD32VW553/GD32VW55X_Wifi_BLE_SDK/GD32VW55x_RELEASE_V1.0.2/MSDK/lwip/lwip-2.1.2/src/apps/altcp_tls\altcp_tls_mbedtls.c ****       size_left -= write_len;
 1580              		.loc 1 1146 7 is_stmt 1
1146:C:/Users/stapi/OneDrive/Desktop/GD32VW553/GD32VW55X_Wifi_BLE_SDK/GD32VW55x_RELEASE_V1.0.2/MSDK/lwip/lwip-2.1.2/src/apps/altcp_tls\altcp_tls_mbedtls.c ****       size_left -= write_len;
 1581              		.loc 1 1146 15 is_stmt 0
 1582 006e 5299     		add	s2,s2,s4
 1583              	.LVL184:
1147:C:/Users/stapi/OneDrive/Desktop/GD32VW553/GD32VW55X_Wifi_BLE_SDK/GD32VW55x_RELEASE_V1.0.2/MSDK/lwip/lwip-2.1.2/src/apps/altcp_tls\altcp_tls_mbedtls.c ****     } else if (err == ERR_MEM) {
 1584              		.loc 1 1147 7 is_stmt 1
1147:C:/Users/stapi/OneDrive/Desktop/GD32VW553/GD32VW55X_Wifi_BLE_SDK/GD32VW55x_RELEASE_V1.0.2/MSDK/lwip/lwip-2.1.2/src/apps/altcp_tls\altcp_tls_mbedtls.c ****     } else if (err == ERR_MEM) {
 1585              		.loc 1 1147 17 is_stmt 0
 1586 0070 33044441 		sub	s0,s0,s4
 1587              	.LVL185:
 1588 0074 C9BF     		j	.L213
 1589              	.L215:
1148:C:/Users/stapi/OneDrive/Desktop/GD32VW553/GD32VW55X_Wifi_BLE_SDK/GD32VW55x_RELEASE_V1.0.2/MSDK/lwip/lwip-2.1.2/src/apps/altcp_tls\altcp_tls_mbedtls.c ****       if (written) {
 1590              		.loc 1 1148 12 is_stmt 1
1148:C:/Users/stapi/OneDrive/Desktop/GD32VW553/GD32VW55X_Wifi_BLE_SDK/GD32VW55x_RELEASE_V1.0.2/MSDK/lwip/lwip-2.1.2/src/apps/altcp_tls\altcp_tls_mbedtls.c ****       if (written) {
 1591              		.loc 1 1148 15 is_stmt 0
 1592 0076 FD57     		li	a5,-1
 1593 0078 E308F5FC 		beq	a0,a5,.L209
1154:C:/Users/stapi/OneDrive/Desktop/GD32VW553/GD32VW55X_Wifi_BLE_SDK/GD32VW55x_RELEASE_V1.0.2/MSDK/lwip/lwip-2.1.2/src/apps/altcp_tls\altcp_tls_mbedtls.c ****       /* @todo: return MBEDTLS_ERR_NET_CONN_RESET or MBEDTLS_ERR_NET_SEND_FAILED */
 1594              		.loc 1 1154 7 is_stmt 1
1154:C:/Users/stapi/OneDrive/Desktop/GD32VW553/GD32VW55X_Wifi_BLE_SDK/GD32VW55x_RELEASE_V1.0.2/MSDK/lwip/lwip-2.1.2/src/apps/altcp_tls\altcp_tls_mbedtls.c ****       /* @todo: return MBEDTLS_ERR_NET_CONN_RESET or MBEDTLS_ERR_NET_SEND_FAILED */
 1595              		.loc 1 1154 7
1154:C:/Users/stapi/OneDrive/Desktop/GD32VW553/GD32VW55X_Wifi_BLE_SDK/GD32VW55x_RELEASE_V1.0.2/MSDK/lwip/lwip-2.1.2/src/apps/altcp_tls\altcp_tls_mbedtls.c ****       /* @todo: return MBEDTLS_ERR_NET_CONN_RESET or MBEDTLS_ERR_NET_SEND_FAILED */
 1596              		.loc 1 1154 7
1154:C:/Users/stapi/OneDrive/Desktop/GD32VW553/GD32VW55X_Wifi_BLE_SDK/GD32VW55x_RELEASE_V1.0.2/MSDK/lwip/lwip-2.1.2/src/apps/altcp_tls\altcp_tls_mbedtls.c ****       /* @todo: return MBEDTLS_ERR_NET_CONN_RESET or MBEDTLS_ERR_NET_SEND_FAILED */
 1597              		.loc 1 1154 7
 1598 007c B7060000 		lui	a3,%hi(.LC0)
 1599 0080 B7050000 		lui	a1,%hi(.LC8)
 1600 0084 37050000 		lui	a0,%hi(.LC2)
 1601              	.LVL186:
 1602 0088 93860600 		addi	a3,a3,%lo(.LC0)
 1603 008c 13062048 		li	a2,1154
 1604 0090 93850500 		addi	a1,a1,%lo(.LC8)
 1605 0094 13050500 		addi	a0,a0,%lo(.LC2)
 1606 0098 97000000 		call	printf
 1606      E7800000 
 1607              	.LVL187:
 1608              	.L216:
1154:C:/Users/stapi/OneDrive/Desktop/GD32VW553/GD32VW55X_Wifi_BLE_SDK/GD32VW55x_RELEASE_V1.0.2/MSDK/lwip/lwip-2.1.2/src/apps/altcp_tls\altcp_tls_mbedtls.c ****       /* @todo: return MBEDTLS_ERR_NET_CONN_RESET or MBEDTLS_ERR_NET_SEND_FAILED */
 1609              		.loc 1 1154 7
1154:C:/Users/stapi/OneDrive/Desktop/GD32VW553/GD32VW55X_Wifi_BLE_SDK/GD32VW55x_RELEASE_V1.0.2/MSDK/lwip/lwip-2.1.2/src/apps/altcp_tls\altcp_tls_mbedtls.c ****       /* @todo: return MBEDTLS_ERR_NET_CONN_RESET or MBEDTLS_ERR_NET_SEND_FAILED */
 1610              		.loc 1 1154 7
1154:C:/Users/stapi/OneDrive/Desktop/GD32VW553/GD32VW55X_Wifi_BLE_SDK/GD32VW55x_RELEASE_V1.0.2/MSDK/lwip/lwip-2.1.2/src/apps/altcp_tls\altcp_tls_mbedtls.c ****       /* @todo: return MBEDTLS_ERR_NET_CONN_RESET or MBEDTLS_ERR_NET_SEND_FAILED */
 1611              		.loc 1 1154 7
 1612 00a0 01A0     		j	.L216
 1613              	.LVL188:
 1614              	.L218:
 1615              	.LBE29:
 1616              	.LBE30:
 1617              	.LBE31:
1139:C:/Users/stapi/OneDrive/Desktop/GD32VW553/GD32VW55X_Wifi_BLE_SDK/GD32VW55x_RELEASE_V1.0.2/MSDK/lwip/lwip-2.1.2/src/apps/altcp_tls\altcp_tls_mbedtls.c ****   }
 1618              		.loc 1 1139 12 is_stmt 0
 1619 00a2 1309B0FB 		li	s2,-69
 1620 00a6 4DB7     		j	.L209
 1621              		.cfi_endproc
 1622              	.LFE421:
 1624              		.section	.rodata.altcp_mbedtls_setup.str1.4,"aMS",@progbits,1
 1625              		.align	2
 1626              	.LC9:
 1627 0000 696E7661 		.string	"invalid inner_conn"
 1627      6C696420 
 1627      696E6E65 
 1627      725F636F 
 1627      6E6E00
 1628              		.section	.text.altcp_mbedtls_setup,"ax",@progbits
 1629              		.align	1
 1631              	altcp_mbedtls_setup:
 1632              	.LFB402:
 586:C:/Users/stapi/OneDrive/Desktop/GD32VW553/GD32VW55X_Wifi_BLE_SDK/GD32VW55x_RELEASE_V1.0.2/MSDK/lwip/lwip-2.1.2/src/apps/altcp_tls\altcp_tls_mbedtls.c ****   int ret;
 1633              		.loc 1 586 1 is_stmt 1
 1634              		.cfi_startproc
 1635              	.LVL189:
 587:C:/Users/stapi/OneDrive/Desktop/GD32VW553/GD32VW55X_Wifi_BLE_SDK/GD32VW55x_RELEASE_V1.0.2/MSDK/lwip/lwip-2.1.2/src/apps/altcp_tls\altcp_tls_mbedtls.c ****   struct altcp_tls_config *config = (struct altcp_tls_config *)conf;
 1636              		.loc 1 587 3
 588:C:/Users/stapi/OneDrive/Desktop/GD32VW553/GD32VW55X_Wifi_BLE_SDK/GD32VW55x_RELEASE_V1.0.2/MSDK/lwip/lwip-2.1.2/src/apps/altcp_tls\altcp_tls_mbedtls.c ****   altcp_mbedtls_state_t *state;
 1637              		.loc 1 588 3
 589:C:/Users/stapi/OneDrive/Desktop/GD32VW553/GD32VW55X_Wifi_BLE_SDK/GD32VW55x_RELEASE_V1.0.2/MSDK/lwip/lwip-2.1.2/src/apps/altcp_tls\altcp_tls_mbedtls.c ****   if (!conf) {
 1638              		.loc 1 589 3
 590:C:/Users/stapi/OneDrive/Desktop/GD32VW553/GD32VW55X_Wifi_BLE_SDK/GD32VW55x_RELEASE_V1.0.2/MSDK/lwip/lwip-2.1.2/src/apps/altcp_tls\altcp_tls_mbedtls.c ****     return ERR_ARG;
 1639              		.loc 1 590 3
 590:C:/Users/stapi/OneDrive/Desktop/GD32VW553/GD32VW55X_Wifi_BLE_SDK/GD32VW55x_RELEASE_V1.0.2/MSDK/lwip/lwip-2.1.2/src/apps/altcp_tls\altcp_tls_mbedtls.c ****     return ERR_ARG;
 1640              		.loc 1 590 6 is_stmt 0
 1641 0000 45CD     		beq	a0,zero,.L226
 586:C:/Users/stapi/OneDrive/Desktop/GD32VW553/GD32VW55X_Wifi_BLE_SDK/GD32VW55x_RELEASE_V1.0.2/MSDK/lwip/lwip-2.1.2/src/apps/altcp_tls\altcp_tls_mbedtls.c ****   int ret;
 1642              		.loc 1 586 1
 1643 0002 17030000 		call	t0,__riscv_save_5
 1643      E7020300 
 1644              		.cfi_offset 20, -24
 1645              		.cfi_offset 19, -20
 1646              		.cfi_offset 18, -16
 1647              		.cfi_offset 9, -12
 1648              		.cfi_offset 8, -8
 1649              		.cfi_offset 1, -4
 1650              		.cfi_def_cfa_offset 32
 1651 000a 2E84     		mv	s0,a1
 1652 000c 3289     		mv	s2,a2
 593:C:/Users/stapi/OneDrive/Desktop/GD32VW553/GD32VW55X_Wifi_BLE_SDK/GD32VW55x_RELEASE_V1.0.2/MSDK/lwip/lwip-2.1.2/src/apps/altcp_tls\altcp_tls_mbedtls.c **** 
 1653              		.loc 1 593 3 is_stmt 1
 593:C:/Users/stapi/OneDrive/Desktop/GD32VW553/GD32VW55X_Wifi_BLE_SDK/GD32VW55x_RELEASE_V1.0.2/MSDK/lwip/lwip-2.1.2/src/apps/altcp_tls\altcp_tls_mbedtls.c **** 
 1654              		.loc 1 593 3
 1655 000e 6395C502 		bne	a1,a2,.L223
 593:C:/Users/stapi/OneDrive/Desktop/GD32VW553/GD32VW55X_Wifi_BLE_SDK/GD32VW55x_RELEASE_V1.0.2/MSDK/lwip/lwip-2.1.2/src/apps/altcp_tls\altcp_tls_mbedtls.c **** 
 1656              		.loc 1 593 3 discriminator 1
 593:C:/Users/stapi/OneDrive/Desktop/GD32VW553/GD32VW55X_Wifi_BLE_SDK/GD32VW55x_RELEASE_V1.0.2/MSDK/lwip/lwip-2.1.2/src/apps/altcp_tls\altcp_tls_mbedtls.c **** 
 1657              		.loc 1 593 3 discriminator 1
 1658 0012 B7060000 		lui	a3,%hi(.LC0)
 1659 0016 B7050000 		lui	a1,%hi(.LC9)
 1660              	.LVL190:
 1661 001a 37050000 		lui	a0,%hi(.LC2)
 1662              	.LVL191:
 1663 001e 93860600 		addi	a3,a3,%lo(.LC0)
 1664 0022 13061025 		li	a2,593
 1665              	.LVL192:
 1666 0026 93850500 		addi	a1,a1,%lo(.LC9)
 1667 002a 13050500 		addi	a0,a0,%lo(.LC2)
 1668 002e 97000000 		call	printf
 1668      E7800000 
 1669              	.LVL193:
 1670              	.L224:
 593:C:/Users/stapi/OneDrive/Desktop/GD32VW553/GD32VW55X_Wifi_BLE_SDK/GD32VW55x_RELEASE_V1.0.2/MSDK/lwip/lwip-2.1.2/src/apps/altcp_tls\altcp_tls_mbedtls.c **** 
 1671              		.loc 1 593 3 discriminator 1
 593:C:/Users/stapi/OneDrive/Desktop/GD32VW553/GD32VW55X_Wifi_BLE_SDK/GD32VW55x_RELEASE_V1.0.2/MSDK/lwip/lwip-2.1.2/src/apps/altcp_tls\altcp_tls_mbedtls.c **** 
 1672              		.loc 1 593 3 discriminator 1
 593:C:/Users/stapi/OneDrive/Desktop/GD32VW553/GD32VW55X_Wifi_BLE_SDK/GD32VW55x_RELEASE_V1.0.2/MSDK/lwip/lwip-2.1.2/src/apps/altcp_tls\altcp_tls_mbedtls.c **** 
 1673              		.loc 1 593 3 discriminator 1
 1674 0036 01A0     		j	.L224
 1675              	.LVL194:
 1676              	.L223:
 1677 0038 AA89     		mv	s3,a0
 1678              	.LVL195:
 1679              	.LBB34:
 1680              	.LBB35:
 593:C:/Users/stapi/OneDrive/Desktop/GD32VW553/GD32VW55X_Wifi_BLE_SDK/GD32VW55x_RELEASE_V1.0.2/MSDK/lwip/lwip-2.1.2/src/apps/altcp_tls\altcp_tls_mbedtls.c **** 
 1681              		.loc 1 593 3
 593:C:/Users/stapi/OneDrive/Desktop/GD32VW553/GD32VW55X_Wifi_BLE_SDK/GD32VW55x_RELEASE_V1.0.2/MSDK/lwip/lwip-2.1.2/src/apps/altcp_tls\altcp_tls_mbedtls.c **** 
 1682              		.loc 1 593 3
 596:C:/Users/stapi/OneDrive/Desktop/GD32VW553/GD32VW55X_Wifi_BLE_SDK/GD32VW55x_RELEASE_V1.0.2/MSDK/lwip/lwip-2.1.2/src/apps/altcp_tls\altcp_tls_mbedtls.c ****   if (state == NULL) {
 1683              		.loc 1 596 3
 596:C:/Users/stapi/OneDrive/Desktop/GD32VW553/GD32VW55X_Wifi_BLE_SDK/GD32VW55x_RELEASE_V1.0.2/MSDK/lwip/lwip-2.1.2/src/apps/altcp_tls\altcp_tls_mbedtls.c ****   if (state == NULL) {
 1684              		.loc 1 596 11 is_stmt 0
 1685 003a 97000000 		call	altcp_mbedtls_alloc
 1685      E7800000 
 1686              	.LVL196:
 1687 0042 AA84     		mv	s1,a0
 1688              	.LVL197:
 597:C:/Users/stapi/OneDrive/Desktop/GD32VW553/GD32VW55X_Wifi_BLE_SDK/GD32VW55x_RELEASE_V1.0.2/MSDK/lwip/lwip-2.1.2/src/apps/altcp_tls\altcp_tls_mbedtls.c ****     return ERR_MEM;
 1689              		.loc 1 597 3 is_stmt 1
 598:C:/Users/stapi/OneDrive/Desktop/GD32VW553/GD32VW55X_Wifi_BLE_SDK/GD32VW55x_RELEASE_V1.0.2/MSDK/lwip/lwip-2.1.2/src/apps/altcp_tls\altcp_tls_mbedtls.c ****   }
 1690              		.loc 1 598 12 is_stmt 0
 1691 0044 7D55     		li	a0,-1
 597:C:/Users/stapi/OneDrive/Desktop/GD32VW553/GD32VW55X_Wifi_BLE_SDK/GD32VW55x_RELEASE_V1.0.2/MSDK/lwip/lwip-2.1.2/src/apps/altcp_tls\altcp_tls_mbedtls.c ****     return ERR_MEM;
 1692              		.loc 1 597 6
 1693 0046 95C4     		beq	s1,zero,.L222
 601:C:/Users/stapi/OneDrive/Desktop/GD32VW553/GD32VW55X_Wifi_BLE_SDK/GD32VW55x_RELEASE_V1.0.2/MSDK/lwip/lwip-2.1.2/src/apps/altcp_tls\altcp_tls_mbedtls.c ****   ret = mbedtls_ssl_setup(&state->ssl_context, &config->conf);
 1694              		.loc 1 601 3 is_stmt 1
 1695 0048 138A8400 		addi	s4,s1,8
 1696 004c 5285     		mv	a0,s4
 1697 004e 97000000 		call	mbedtls_ssl_init
 1697      E7800000 
 1698              	.LVL198:
 602:C:/Users/stapi/OneDrive/Desktop/GD32VW553/GD32VW55X_Wifi_BLE_SDK/GD32VW55x_RELEASE_V1.0.2/MSDK/lwip/lwip-2.1.2/src/apps/altcp_tls\altcp_tls_mbedtls.c ****   if (ret != 0) {
 1699              		.loc 1 602 3
 602:C:/Users/stapi/OneDrive/Desktop/GD32VW553/GD32VW55X_Wifi_BLE_SDK/GD32VW55x_RELEASE_V1.0.2/MSDK/lwip/lwip-2.1.2/src/apps/altcp_tls\altcp_tls_mbedtls.c ****   if (ret != 0) {
 1700              		.loc 1 602 9 is_stmt 0
 1701 0056 CE85     		mv	a1,s3
 1702 0058 5285     		mv	a0,s4
 1703 005a 97000000 		call	mbedtls_ssl_setup
 1703      E7800000 
 1704              	.LVL199:
 603:C:/Users/stapi/OneDrive/Desktop/GD32VW553/GD32VW55X_Wifi_BLE_SDK/GD32VW55x_RELEASE_V1.0.2/MSDK/lwip/lwip-2.1.2/src/apps/altcp_tls\altcp_tls_mbedtls.c ****     LWIP_DEBUGF(ALTCP_MBEDTLS_DEBUG, ("mbedtls_ssl_setup failed\n"));
 1705              		.loc 1 603 3 is_stmt 1
 603:C:/Users/stapi/OneDrive/Desktop/GD32VW553/GD32VW55X_Wifi_BLE_SDK/GD32VW55x_RELEASE_V1.0.2/MSDK/lwip/lwip-2.1.2/src/apps/altcp_tls\altcp_tls_mbedtls.c ****     LWIP_DEBUGF(ALTCP_MBEDTLS_DEBUG, ("mbedtls_ssl_setup failed\n"));
 1706              		.loc 1 603 6 is_stmt 0
 1707 0062 01CD     		beq	a0,zero,.L225
 604:C:/Users/stapi/OneDrive/Desktop/GD32VW553/GD32VW55X_Wifi_BLE_SDK/GD32VW55x_RELEASE_V1.0.2/MSDK/lwip/lwip-2.1.2/src/apps/altcp_tls\altcp_tls_mbedtls.c ****     /* @todo: convert 'ret' to err_t */
 1708              		.loc 1 604 69 is_stmt 1
 606:C:/Users/stapi/OneDrive/Desktop/GD32VW553/GD32VW55X_Wifi_BLE_SDK/GD32VW55x_RELEASE_V1.0.2/MSDK/lwip/lwip-2.1.2/src/apps/altcp_tls\altcp_tls_mbedtls.c ****     return ERR_MEM;
 1709              		.loc 1 606 5
 1710 0064 4E85     		mv	a0,s3
 1711              	.LVL200:
 1712 0066 A685     		mv	a1,s1
 1713 0068 97000000 		call	altcp_mbedtls_free
 1713      E7800000 
 1714              	.LVL201:
 607:C:/Users/stapi/OneDrive/Desktop/GD32VW553/GD32VW55X_Wifi_BLE_SDK/GD32VW55x_RELEASE_V1.0.2/MSDK/lwip/lwip-2.1.2/src/apps/altcp_tls\altcp_tls_mbedtls.c ****   }
 1715              		.loc 1 607 5
 607:C:/Users/stapi/OneDrive/Desktop/GD32VW553/GD32VW55X_Wifi_BLE_SDK/GD32VW55x_RELEASE_V1.0.2/MSDK/lwip/lwip-2.1.2/src/apps/altcp_tls\altcp_tls_mbedtls.c ****   }
 1716              		.loc 1 607 12 is_stmt 0
 1717 0070 7D55     		li	a0,-1
 1718              	.L222:
 1719              	.LVL202:
 1720              	.LBE35:
 1721              	.LBE34:
 617:C:/Users/stapi/OneDrive/Desktop/GD32VW553/GD32VW55X_Wifi_BLE_SDK/GD32VW55x_RELEASE_V1.0.2/MSDK/lwip/lwip-2.1.2/src/apps/altcp_tls\altcp_tls_mbedtls.c **** 
 1722              		.loc 1 617 1
 1723 0072 17030000 		tail	__riscv_restore_5
 1723      67000300 
 1724              		.cfi_remember_state
 1725              		.cfi_restore 20
 1726              		.cfi_restore 19
 1727              		.cfi_restore 18
 1728              		.cfi_restore 9
 1729              		.cfi_restore 8
 1730              		.cfi_restore 1
 1731              		.cfi_def_cfa_offset 0
 1732              	.LVL203:
 1733              	.L225:
 1734              		.cfi_restore_state
 1735              	.LBB37:
 1736              	.LBB36:
 610:C:/Users/stapi/OneDrive/Desktop/GD32VW553/GD32VW55X_Wifi_BLE_SDK/GD32VW55x_RELEASE_V1.0.2/MSDK/lwip/lwip-2.1.2/src/apps/altcp_tls\altcp_tls_mbedtls.c **** 
 1737              		.loc 1 610 3 is_stmt 1
 1738 007a B7060000 		lui	a3,%hi(altcp_mbedtls_bio_recv)
 1739 007e 37060000 		lui	a2,%hi(altcp_mbedtls_bio_send)
 1740 0082 0147     		li	a4,0
 1741 0084 93860600 		addi	a3,a3,%lo(altcp_mbedtls_bio_recv)
 1742 0088 13060600 		addi	a2,a2,%lo(altcp_mbedtls_bio_send)
 1743 008c A285     		mv	a1,s0
 1744 008e 5285     		mv	a0,s4
 1745              	.LVL204:
 1746 0090 97000000 		call	mbedtls_ssl_set_bio
 1746      E7800000 
 1747              	.LVL205:
 612:C:/Users/stapi/OneDrive/Desktop/GD32VW553/GD32VW55X_Wifi_BLE_SDK/GD32VW55x_RELEASE_V1.0.2/MSDK/lwip/lwip-2.1.2/src/apps/altcp_tls\altcp_tls_mbedtls.c ****   conn->inner_conn = inner_conn;
 1748              		.loc 1 612 3
 1749 0098 2285     		mv	a0,s0
 1750 009a CA85     		mv	a1,s2
 1751 009c 97000000 		call	altcp_mbedtls_setup_callbacks
 1751      E7800000 
 1752              	.LVL206:
 613:C:/Users/stapi/OneDrive/Desktop/GD32VW553/GD32VW55X_Wifi_BLE_SDK/GD32VW55x_RELEASE_V1.0.2/MSDK/lwip/lwip-2.1.2/src/apps/altcp_tls\altcp_tls_mbedtls.c ****   conn->fns = &altcp_mbedtls_functions;
 1753              		.loc 1 613 3
 614:C:/Users/stapi/OneDrive/Desktop/GD32VW553/GD32VW55X_Wifi_BLE_SDK/GD32VW55x_RELEASE_V1.0.2/MSDK/lwip/lwip-2.1.2/src/apps/altcp_tls\altcp_tls_mbedtls.c ****   conn->state = state;
 1754              		.loc 1 614 13 is_stmt 0
 1755 00a4 B7070000 		lui	a5,%hi(.LANCHOR1)
 1756 00a8 93870700 		addi	a5,a5,%lo(.LANCHOR1)
 613:C:/Users/stapi/OneDrive/Desktop/GD32VW553/GD32VW55X_Wifi_BLE_SDK/GD32VW55x_RELEASE_V1.0.2/MSDK/lwip/lwip-2.1.2/src/apps/altcp_tls\altcp_tls_mbedtls.c ****   conn->fns = &altcp_mbedtls_functions;
 1757              		.loc 1 613 20
 1758 00ac 23222401 		sw	s2,4(s0)
 614:C:/Users/stapi/OneDrive/Desktop/GD32VW553/GD32VW55X_Wifi_BLE_SDK/GD32VW55x_RELEASE_V1.0.2/MSDK/lwip/lwip-2.1.2/src/apps/altcp_tls\altcp_tls_mbedtls.c ****   conn->state = state;
 1759              		.loc 1 614 3 is_stmt 1
 614:C:/Users/stapi/OneDrive/Desktop/GD32VW553/GD32VW55X_Wifi_BLE_SDK/GD32VW55x_RELEASE_V1.0.2/MSDK/lwip/lwip-2.1.2/src/apps/altcp_tls\altcp_tls_mbedtls.c ****   conn->state = state;
 1760              		.loc 1 614 13 is_stmt 0
 1761 00b0 1CC0     		sw	a5,0(s0)
 615:C:/Users/stapi/OneDrive/Desktop/GD32VW553/GD32VW55X_Wifi_BLE_SDK/GD32VW55x_RELEASE_V1.0.2/MSDK/lwip/lwip-2.1.2/src/apps/altcp_tls\altcp_tls_mbedtls.c ****   return ERR_OK;
 1762              		.loc 1 615 3 is_stmt 1
 615:C:/Users/stapi/OneDrive/Desktop/GD32VW553/GD32VW55X_Wifi_BLE_SDK/GD32VW55x_RELEASE_V1.0.2/MSDK/lwip/lwip-2.1.2/src/apps/altcp_tls\altcp_tls_mbedtls.c ****   return ERR_OK;
 1763              		.loc 1 615 15 is_stmt 0
 1764 00b2 44C4     		sw	s1,12(s0)
 616:C:/Users/stapi/OneDrive/Desktop/GD32VW553/GD32VW55X_Wifi_BLE_SDK/GD32VW55x_RELEASE_V1.0.2/MSDK/lwip/lwip-2.1.2/src/apps/altcp_tls\altcp_tls_mbedtls.c **** }
 1765              		.loc 1 616 3 is_stmt 1
 616:C:/Users/stapi/OneDrive/Desktop/GD32VW553/GD32VW55X_Wifi_BLE_SDK/GD32VW55x_RELEASE_V1.0.2/MSDK/lwip/lwip-2.1.2/src/apps/altcp_tls\altcp_tls_mbedtls.c **** }
 1766              		.loc 1 616 10 is_stmt 0
 1767 00b4 0145     		li	a0,0
 1768 00b6 75BF     		j	.L222
 1769              	.LVL207:
 1770              	.L226:
 1771              		.cfi_def_cfa_offset 0
 1772              		.cfi_restore 1
 1773              		.cfi_restore 8
 1774              		.cfi_restore 9
 1775              		.cfi_restore 18
 1776              		.cfi_restore 19
 1777              		.cfi_restore 20
 1778              	.LBE36:
 1779              	.LBE37:
 591:C:/Users/stapi/OneDrive/Desktop/GD32VW553/GD32VW55X_Wifi_BLE_SDK/GD32VW55x_RELEASE_V1.0.2/MSDK/lwip/lwip-2.1.2/src/apps/altcp_tls\altcp_tls_mbedtls.c ****   }
 1780              		.loc 1 591 12
 1781 00b8 4155     		li	a0,-16
 1782              	.LVL208:
 617:C:/Users/stapi/OneDrive/Desktop/GD32VW553/GD32VW55X_Wifi_BLE_SDK/GD32VW55x_RELEASE_V1.0.2/MSDK/lwip/lwip-2.1.2/src/apps/altcp_tls\altcp_tls_mbedtls.c **** 
 1783              		.loc 1 617 1
 1784 00ba 8280     		ret
 1785              		.cfi_endproc
 1786              	.LFE402:
 1788              		.section	.text.altcp_mbedtls_lower_accept,"ax",@progbits
 1789              		.align	1
 1791              	altcp_mbedtls_lower_accept:
 1792              	.LFB389:
 128:C:/Users/stapi/OneDrive/Desktop/GD32VW553/GD32VW55X_Wifi_BLE_SDK/GD32VW55x_RELEASE_V1.0.2/MSDK/lwip/lwip-2.1.2/src/apps/altcp_tls\altcp_tls_mbedtls.c ****   struct altcp_pcb *listen_conn = (struct altcp_pcb *)arg;
 1793              		.loc 1 128 1 is_stmt 1
 1794              		.cfi_startproc
 1795              	.LVL209:
 1796 0000 17030000 		call	t0,__riscv_save_5
 1796      E7020300 
 1797              		.cfi_offset 20, -24
 1798              		.cfi_offset 19, -20
 1799              		.cfi_offset 18, -16
 1800              		.cfi_offset 9, -12
 1801              		.cfi_offset 8, -8
 1802              		.cfi_offset 1, -4
 1803              		.cfi_def_cfa_offset 32
 129:C:/Users/stapi/OneDrive/Desktop/GD32VW553/GD32VW55X_Wifi_BLE_SDK/GD32VW55x_RELEASE_V1.0.2/MSDK/lwip/lwip-2.1.2/src/apps/altcp_tls\altcp_tls_mbedtls.c ****   if (listen_conn && listen_conn->state && listen_conn->accept) {
 1804              		.loc 1 129 3
 1805              	.LVL210:
 130:C:/Users/stapi/OneDrive/Desktop/GD32VW553/GD32VW55X_Wifi_BLE_SDK/GD32VW55x_RELEASE_V1.0.2/MSDK/lwip/lwip-2.1.2/src/apps/altcp_tls\altcp_tls_mbedtls.c ****     err_t setup_err;
 1806              		.loc 1 130 3
 128:C:/Users/stapi/OneDrive/Desktop/GD32VW553/GD32VW55X_Wifi_BLE_SDK/GD32VW55x_RELEASE_V1.0.2/MSDK/lwip/lwip-2.1.2/src/apps/altcp_tls\altcp_tls_mbedtls.c ****   struct altcp_pcb *listen_conn = (struct altcp_pcb *)arg;
 1807              		.loc 1 128 1 is_stmt 0
 1808 0008 4111     		addi	sp,sp,-16
 1809              		.cfi_def_cfa_offset 48
 145:C:/Users/stapi/OneDrive/Desktop/GD32VW553/GD32VW55X_Wifi_BLE_SDK/GD32VW55x_RELEASE_V1.0.2/MSDK/lwip/lwip-2.1.2/src/apps/altcp_tls\altcp_tls_mbedtls.c **** }
 1810              		.loc 1 145 10
 1811 000a 4154     		li	s0,-16
 130:C:/Users/stapi/OneDrive/Desktop/GD32VW553/GD32VW55X_Wifi_BLE_SDK/GD32VW55x_RELEASE_V1.0.2/MSDK/lwip/lwip-2.1.2/src/apps/altcp_tls\altcp_tls_mbedtls.c ****     err_t setup_err;
 1812              		.loc 1 130 6
 1813 000c 31C1     		beq	a0,zero,.L233
 130:C:/Users/stapi/OneDrive/Desktop/GD32VW553/GD32VW55X_Wifi_BLE_SDK/GD32VW55x_RELEASE_V1.0.2/MSDK/lwip/lwip-2.1.2/src/apps/altcp_tls\altcp_tls_mbedtls.c ****     err_t setup_err;
 1814              		.loc 1 130 33 discriminator 1
 1815 000e 032AC500 		lw	s4,12(a0)
 1816 0012 AA84     		mv	s1,a0
 145:C:/Users/stapi/OneDrive/Desktop/GD32VW553/GD32VW55X_Wifi_BLE_SDK/GD32VW55x_RELEASE_V1.0.2/MSDK/lwip/lwip-2.1.2/src/apps/altcp_tls\altcp_tls_mbedtls.c **** }
 1817              		.loc 1 145 10 discriminator 1
 1818 0014 4154     		li	s0,-16
 130:C:/Users/stapi/OneDrive/Desktop/GD32VW553/GD32VW55X_Wifi_BLE_SDK/GD32VW55x_RELEASE_V1.0.2/MSDK/lwip/lwip-2.1.2/src/apps/altcp_tls\altcp_tls_mbedtls.c ****     err_t setup_err;
 1819              		.loc 1 130 19 discriminator 1
 1820 0016 630D0A02 		beq	s4,zero,.L233
 130:C:/Users/stapi/OneDrive/Desktop/GD32VW553/GD32VW55X_Wifi_BLE_SDK/GD32VW55x_RELEASE_V1.0.2/MSDK/lwip/lwip-2.1.2/src/apps/altcp_tls\altcp_tls_mbedtls.c ****     err_t setup_err;
 1821              		.loc 1 130 41 discriminator 2
 1822 001a 1C49     		lw	a5,16(a0)
 1823 001c 95CB     		beq	a5,zero,.L233
 1824 001e AE89     		mv	s3,a1
 1825 0020 3289     		mv	s2,a2
 1826              	.LBB38:
 131:C:/Users/stapi/OneDrive/Desktop/GD32VW553/GD32VW55X_Wifi_BLE_SDK/GD32VW55x_RELEASE_V1.0.2/MSDK/lwip/lwip-2.1.2/src/apps/altcp_tls\altcp_tls_mbedtls.c ****     altcp_mbedtls_state_t *listen_state = (altcp_mbedtls_state_t *)listen_conn->state;
 1827              		.loc 1 131 5 is_stmt 1
 132:C:/Users/stapi/OneDrive/Desktop/GD32VW553/GD32VW55X_Wifi_BLE_SDK/GD32VW55x_RELEASE_V1.0.2/MSDK/lwip/lwip-2.1.2/src/apps/altcp_tls\altcp_tls_mbedtls.c ****     /* create a new altcp_conn to pass to the next 'accept' callback */
 1828              		.loc 1 132 5
 1829              	.LVL211:
 134:C:/Users/stapi/OneDrive/Desktop/GD32VW553/GD32VW55X_Wifi_BLE_SDK/GD32VW55x_RELEASE_V1.0.2/MSDK/lwip/lwip-2.1.2/src/apps/altcp_tls\altcp_tls_mbedtls.c ****     if (new_conn == NULL) {
 1830              		.loc 1 134 5
 134:C:/Users/stapi/OneDrive/Desktop/GD32VW553/GD32VW55X_Wifi_BLE_SDK/GD32VW55x_RELEASE_V1.0.2/MSDK/lwip/lwip-2.1.2/src/apps/altcp_tls\altcp_tls_mbedtls.c ****     if (new_conn == NULL) {
 1831              		.loc 1 134 34 is_stmt 0
 1832 0022 97000000 		call	altcp_alloc
 1832      E7800000 
 1833              	.LVL212:
 1834 002a AA85     		mv	a1,a0
 1835              	.LVL213:
 135:C:/Users/stapi/OneDrive/Desktop/GD32VW553/GD32VW55X_Wifi_BLE_SDK/GD32VW55x_RELEASE_V1.0.2/MSDK/lwip/lwip-2.1.2/src/apps/altcp_tls\altcp_tls_mbedtls.c ****       return ERR_MEM;
 1836              		.loc 1 135 5 is_stmt 1
 136:C:/Users/stapi/OneDrive/Desktop/GD32VW553/GD32VW55X_Wifi_BLE_SDK/GD32VW55x_RELEASE_V1.0.2/MSDK/lwip/lwip-2.1.2/src/apps/altcp_tls\altcp_tls_mbedtls.c ****     }
 1837              		.loc 1 136 14 is_stmt 0
 1838 002c 7D54     		li	s0,-1
 135:C:/Users/stapi/OneDrive/Desktop/GD32VW553/GD32VW55X_Wifi_BLE_SDK/GD32VW55x_RELEASE_V1.0.2/MSDK/lwip/lwip-2.1.2/src/apps/altcp_tls\altcp_tls_mbedtls.c ****       return ERR_MEM;
 1839              		.loc 1 135 8
 1840 002e 0DC1     		beq	a0,zero,.L233
 138:C:/Users/stapi/OneDrive/Desktop/GD32VW553/GD32VW55X_Wifi_BLE_SDK/GD32VW55x_RELEASE_V1.0.2/MSDK/lwip/lwip-2.1.2/src/apps/altcp_tls\altcp_tls_mbedtls.c ****     if (setup_err != ERR_OK) {
 1841              		.loc 1 138 5 is_stmt 1
 138:C:/Users/stapi/OneDrive/Desktop/GD32VW553/GD32VW55X_Wifi_BLE_SDK/GD32VW55x_RELEASE_V1.0.2/MSDK/lwip/lwip-2.1.2/src/apps/altcp_tls\altcp_tls_mbedtls.c ****     if (setup_err != ERR_OK) {
 1842              		.loc 1 138 17 is_stmt 0
 1843 0030 2AC6     		sw	a0,12(sp)
 1844 0032 03250A00 		lw	a0,0(s4)
 1845              	.LVL214:
 1846 0036 4E86     		mv	a2,s3
 1847 0038 97000000 		call	altcp_mbedtls_setup
 1847      E7800000 
 1848              	.LVL215:
 139:C:/Users/stapi/OneDrive/Desktop/GD32VW553/GD32VW55X_Wifi_BLE_SDK/GD32VW55x_RELEASE_V1.0.2/MSDK/lwip/lwip-2.1.2/src/apps/altcp_tls\altcp_tls_mbedtls.c ****       altcp_free(new_conn);
 1849              		.loc 1 139 8
 1850 0040 B245     		lw	a1,12(sp)
 138:C:/Users/stapi/OneDrive/Desktop/GD32VW553/GD32VW55X_Wifi_BLE_SDK/GD32VW55x_RELEASE_V1.0.2/MSDK/lwip/lwip-2.1.2/src/apps/altcp_tls\altcp_tls_mbedtls.c ****     if (setup_err != ERR_OK) {
 1851              		.loc 1 138 17
 1852 0042 2A84     		mv	s0,a0
 1853              	.LVL216:
 139:C:/Users/stapi/OneDrive/Desktop/GD32VW553/GD32VW55X_Wifi_BLE_SDK/GD32VW55x_RELEASE_V1.0.2/MSDK/lwip/lwip-2.1.2/src/apps/altcp_tls\altcp_tls_mbedtls.c ****       altcp_free(new_conn);
 1854              		.loc 1 139 5 is_stmt 1
 139:C:/Users/stapi/OneDrive/Desktop/GD32VW553/GD32VW55X_Wifi_BLE_SDK/GD32VW55x_RELEASE_V1.0.2/MSDK/lwip/lwip-2.1.2/src/apps/altcp_tls\altcp_tls_mbedtls.c ****       altcp_free(new_conn);
 1855              		.loc 1 139 8 is_stmt 0
 1856 0044 01CD     		beq	a0,zero,.L234
 140:C:/Users/stapi/OneDrive/Desktop/GD32VW553/GD32VW55X_Wifi_BLE_SDK/GD32VW55x_RELEASE_V1.0.2/MSDK/lwip/lwip-2.1.2/src/apps/altcp_tls\altcp_tls_mbedtls.c ****       return setup_err;
 1857              		.loc 1 140 7 is_stmt 1
 1858 0046 2E85     		mv	a0,a1
 1859              	.LVL217:
 1860 0048 97000000 		call	altcp_free
 1860      E7800000 
 1861              	.LVL218:
 141:C:/Users/stapi/OneDrive/Desktop/GD32VW553/GD32VW55X_Wifi_BLE_SDK/GD32VW55x_RELEASE_V1.0.2/MSDK/lwip/lwip-2.1.2/src/apps/altcp_tls\altcp_tls_mbedtls.c ****     }
 1862              		.loc 1 141 7
 1863              	.L233:
 1864              	.LBE38:
 146:C:/Users/stapi/OneDrive/Desktop/GD32VW553/GD32VW55X_Wifi_BLE_SDK/GD32VW55x_RELEASE_V1.0.2/MSDK/lwip/lwip-2.1.2/src/apps/altcp_tls\altcp_tls_mbedtls.c **** 
 1865              		.loc 1 146 1 is_stmt 0
 1866 0050 2285     		mv	a0,s0
 1867 0052 4101     		addi	sp,sp,16
 1868              		.cfi_remember_state
 1869              		.cfi_def_cfa_offset 0
 1870 0054 17030000 		tail	__riscv_restore_5
 1870      67000300 
 1871              		.cfi_restore 20
 1872              		.cfi_restore 19
 1873              		.cfi_restore 18
 1874              		.cfi_restore 9
 1875              		.cfi_restore 8
 1876              		.cfi_restore 1
 1877              		.cfi_def_cfa_offset -32
 1878              	.LVL219:
 1879              	.L234:
 1880              		.cfi_restore_state
 1881              	.LBB39:
 143:C:/Users/stapi/OneDrive/Desktop/GD32VW553/GD32VW55X_Wifi_BLE_SDK/GD32VW55x_RELEASE_V1.0.2/MSDK/lwip/lwip-2.1.2/src/apps/altcp_tls\altcp_tls_mbedtls.c ****   }
 1882              		.loc 1 143 5 is_stmt 1
 143:C:/Users/stapi/OneDrive/Desktop/GD32VW553/GD32VW55X_Wifi_BLE_SDK/GD32VW55x_RELEASE_V1.0.2/MSDK/lwip/lwip-2.1.2/src/apps/altcp_tls\altcp_tls_mbedtls.c ****   }
 1883              		.loc 1 143 12 is_stmt 0
 1884 005c 9C48     		lw	a5,16(s1)
 1885 005e 8844     		lw	a0,8(s1)
 1886              	.LVL220:
 1887 0060 4A86     		mv	a2,s2
 1888 0062 8297     		jalr	a5
 1889              	.LVL221:
 1890 0064 2A84     		mv	s0,a0
 1891 0066 EDB7     		j	.L233
 1892              	.LBE39:
 1893              		.cfi_endproc
 1894              	.LFE389:
 1896              		.section	.rodata.altcp_mbedtls_handle_rx_appldata.str1.4,"aMS",@progbits,1
 1897              		.align	2
 1898              	.LC10:
 1899 0000 73746174 		.string	"state != NULL"
 1899      6520213D 
 1899      204E554C 
 1899      4C00
 1900 000e 0000     		.align	2
 1901              	.LC11:
 1902 0010 544F444F 		.string	"TODO: new connection on same source port, close this connection"
 1902      3A206E65 
 1902      7720636F 
 1902      6E6E6563 
 1902      74696F6E 
 1903              		.align	2
 1904              	.LC12:
 1905 0050 626F6775 		.string	"bogus receive length"
 1905      73207265 
 1905      63656976 
 1905      65206C65 
 1905      6E677468 
 1906 0065 000000   		.align	2
 1907              	.LC13:
 1908 0068 626F6775 		.string	"bogus byte counts"
 1908      73206279 
 1908      74652063 
 1908      6F756E74 
 1908      7300
 1909 007a 0000     		.align	2
 1910              	.LC14:
 1911 007c 73746174 		.string	"state == conn->state"
 1911      65203D3D 
 1911      20636F6E 
 1911      6E2D3E73 
 1911      74617465 
 1912 0091 000000   		.align	2
 1913              	.LC15:
 1914 0094 73746174 		.string	"state->rx_passed_unrecved >= 0"
 1914      652D3E72 
 1914      785F7061 
 1914      73736564 
 1914      5F756E72 
 1915              		.section	.text.altcp_mbedtls_handle_rx_appldata,"ax",@progbits
 1916              		.align	1
 1918              	altcp_mbedtls_handle_rx_appldata:
 1919              	.LFB395:
 354:C:/Users/stapi/OneDrive/Desktop/GD32VW553/GD32VW55X_Wifi_BLE_SDK/GD32VW55x_RELEASE_V1.0.2/MSDK/lwip/lwip-2.1.2/src/apps/altcp_tls\altcp_tls_mbedtls.c ****   int ret;
 1920              		.loc 1 354 1 is_stmt 1
 1921              		.cfi_startproc
 1922              	.LVL222:
 1923 0000 17030000 		call	t0,__riscv_save_11
 1923      E7020300 
 1924              		.cfi_offset 26, -48
 1925              		.cfi_offset 25, -44
 1926              		.cfi_offset 24, -40
 1927              		.cfi_offset 23, -36
 1928              		.cfi_offset 22, -32
 1929              		.cfi_offset 21, -28
 1930              		.cfi_offset 20, -24
 1931              		.cfi_offset 19, -20
 1932              		.cfi_offset 18, -16
 1933              		.cfi_offset 9, -12
 1934              		.cfi_offset 8, -8
 1935              		.cfi_offset 1, -4
 1936              		.cfi_def_cfa_offset 48
 355:C:/Users/stapi/OneDrive/Desktop/GD32VW553/GD32VW55X_Wifi_BLE_SDK/GD32VW55x_RELEASE_V1.0.2/MSDK/lwip/lwip-2.1.2/src/apps/altcp_tls\altcp_tls_mbedtls.c ****   LWIP_ASSERT("state != NULL", state != NULL);
 1937              		.loc 1 355 3
 356:C:/Users/stapi/OneDrive/Desktop/GD32VW553/GD32VW55X_Wifi_BLE_SDK/GD32VW55x_RELEASE_V1.0.2/MSDK/lwip/lwip-2.1.2/src/apps/altcp_tls\altcp_tls_mbedtls.c ****   if (!(state->flags & ALTCP_MBEDTLS_FLAGS_HANDSHAKE_DONE)) {
 1938              		.loc 1 356 3
 356:C:/Users/stapi/OneDrive/Desktop/GD32VW553/GD32VW55X_Wifi_BLE_SDK/GD32VW55x_RELEASE_V1.0.2/MSDK/lwip/lwip-2.1.2/src/apps/altcp_tls\altcp_tls_mbedtls.c ****   if (!(state->flags & ALTCP_MBEDTLS_FLAGS_HANDSHAKE_DONE)) {
 1939              		.loc 1 356 3
 1940 0008 85E5     		bne	a1,zero,.L241
 356:C:/Users/stapi/OneDrive/Desktop/GD32VW553/GD32VW55X_Wifi_BLE_SDK/GD32VW55x_RELEASE_V1.0.2/MSDK/lwip/lwip-2.1.2/src/apps/altcp_tls\altcp_tls_mbedtls.c ****   if (!(state->flags & ALTCP_MBEDTLS_FLAGS_HANDSHAKE_DONE)) {
 1941              		.loc 1 356 3 discriminator 1
 356:C:/Users/stapi/OneDrive/Desktop/GD32VW553/GD32VW55X_Wifi_BLE_SDK/GD32VW55x_RELEASE_V1.0.2/MSDK/lwip/lwip-2.1.2/src/apps/altcp_tls\altcp_tls_mbedtls.c ****   if (!(state->flags & ALTCP_MBEDTLS_FLAGS_HANDSHAKE_DONE)) {
 1942              		.loc 1 356 3 discriminator 1
 1943 000a B7060000 		lui	a3,%hi(.LC0)
 1944 000e B7050000 		lui	a1,%hi(.LC10)
 1945              	.LVL223:
 1946 0012 37050000 		lui	a0,%hi(.LC2)
 1947              	.LVL224:
 1948 0016 93860600 		addi	a3,a3,%lo(.LC0)
 1949 001a 13064016 		li	a2,356
 1950 001e 93850500 		addi	a1,a1,%lo(.LC10)
 1951 0022 13050500 		addi	a0,a0,%lo(.LC2)
 1952 0026 97000000 		call	printf
 1952      E7800000 
 1953              	.LVL225:
 1954              	.L242:
 356:C:/Users/stapi/OneDrive/Desktop/GD32VW553/GD32VW55X_Wifi_BLE_SDK/GD32VW55x_RELEASE_V1.0.2/MSDK/lwip/lwip-2.1.2/src/apps/altcp_tls\altcp_tls_mbedtls.c ****   if (!(state->flags & ALTCP_MBEDTLS_FLAGS_HANDSHAKE_DONE)) {
 1955              		.loc 1 356 3 discriminator 1
 356:C:/Users/stapi/OneDrive/Desktop/GD32VW553/GD32VW55X_Wifi_BLE_SDK/GD32VW55x_RELEASE_V1.0.2/MSDK/lwip/lwip-2.1.2/src/apps/altcp_tls\altcp_tls_mbedtls.c ****   if (!(state->flags & ALTCP_MBEDTLS_FLAGS_HANDSHAKE_DONE)) {
 1956              		.loc 1 356 3 discriminator 1
 356:C:/Users/stapi/OneDrive/Desktop/GD32VW553/GD32VW55X_Wifi_BLE_SDK/GD32VW55x_RELEASE_V1.0.2/MSDK/lwip/lwip-2.1.2/src/apps/altcp_tls\altcp_tls_mbedtls.c ****   if (!(state->flags & ALTCP_MBEDTLS_FLAGS_HANDSHAKE_DONE)) {
 1957              		.loc 1 356 3 discriminator 1
 1958 002e 01A0     		j	.L242
 1959              	.LVL226:
 1960              	.L241:
 357:C:/Users/stapi/OneDrive/Desktop/GD32VW553/GD32VW55X_Wifi_BLE_SDK/GD32VW55x_RELEASE_V1.0.2/MSDK/lwip/lwip-2.1.2/src/apps/altcp_tls\altcp_tls_mbedtls.c ****     /* handshake not done yet */
 1961              		.loc 1 357 6 is_stmt 0 discriminator 2
 1962 0030 83C78515 		lbu	a5,344(a1)
 1963 0034 2E84     		mv	s0,a1
 356:C:/Users/stapi/OneDrive/Desktop/GD32VW553/GD32VW55X_Wifi_BLE_SDK/GD32VW55x_RELEASE_V1.0.2/MSDK/lwip/lwip-2.1.2/src/apps/altcp_tls\altcp_tls_mbedtls.c ****   if (!(state->flags & ALTCP_MBEDTLS_FLAGS_HANDSHAKE_DONE)) {
 1964              		.loc 1 356 3 is_stmt 1 discriminator 2
 356:C:/Users/stapi/OneDrive/Desktop/GD32VW553/GD32VW55X_Wifi_BLE_SDK/GD32VW55x_RELEASE_V1.0.2/MSDK/lwip/lwip-2.1.2/src/apps/altcp_tls\altcp_tls_mbedtls.c ****   if (!(state->flags & ALTCP_MBEDTLS_FLAGS_HANDSHAKE_DONE)) {
 1965              		.loc 1 356 3 discriminator 2
 357:C:/Users/stapi/OneDrive/Desktop/GD32VW553/GD32VW55X_Wifi_BLE_SDK/GD32VW55x_RELEASE_V1.0.2/MSDK/lwip/lwip-2.1.2/src/apps/altcp_tls\altcp_tls_mbedtls.c ****     /* handshake not done yet */
 1966              		.loc 1 357 3 discriminator 2
 357:C:/Users/stapi/OneDrive/Desktop/GD32VW553/GD32VW55X_Wifi_BLE_SDK/GD32VW55x_RELEASE_V1.0.2/MSDK/lwip/lwip-2.1.2/src/apps/altcp_tls\altcp_tls_mbedtls.c ****     /* handshake not done yet */
 1967              		.loc 1 357 6 is_stmt 0 discriminator 2
 1968 0036 858B     		andi	a5,a5,1
 1969 0038 638E0726 		beq	a5,zero,.L273
 1970              	.LVL227:
 1971              	.LBB51:
 1972              	.LBB52:
 1973              	.LBB53:
 1974              	.LBB54:
 1975              	.LBB55:
 1976              	.LBB56:
 1977              	.LBB57:
 1978              	.LBB58:
 174:C:/Users/stapi/OneDrive/Desktop/GD32VW553/GD32VW55X_Wifi_BLE_SDK/GD32VW55x_RELEASE_V1.0.2/MSDK/lwip/lwip-2.1.2/src/apps/altcp_tls\altcp_tls_mbedtls.c ****     altcp_recved(inner_conn, recvd_part);
 1979              		.loc 1 174 24
 1980 003c C16A     		li	s5,65536
 1981 003e 938BEAFF 		addi	s7,s5,-2
 1982 0042 2A89     		mv	s2,a0
 1983              	.LBE58:
 1984              	.LBE57:
 1985              	.LBE56:
 1986              	.LBE55:
 1987              	.LBE54:
 377:C:/Users/stapi/OneDrive/Desktop/GD32VW553/GD32VW55X_Wifi_BLE_SDK/GD32VW55x_RELEASE_V1.0.2/MSDK/lwip/lwip-2.1.2/src/apps/altcp_tls\altcp_tls_mbedtls.c ****     if (ret < 0) {
 1988              		.loc 1 377 11
 1989 0044 138B8500 		addi	s6,a1,8
 1990              	.LBB79:
 1991              	.LBB65:
 1992              	.LBB63:
 1993              	.LBB61:
 1994              	.LBB59:
 1995 0048 FD1A     		addi	s5,s5,-1
 1996              	.LBE59:
 1997              	.LBE61:
 1998              	.LBE63:
 1999              	.LBE65:
 2000              	.LBB66:
 2001              	.LBB67:
 335:C:/Users/stapi/OneDrive/Desktop/GD32VW553/GD32VW55X_Wifi_BLE_SDK/GD32VW55x_RELEASE_V1.0.2/MSDK/lwip/lwip-2.1.2/src/apps/altcp_tls\altcp_tls_mbedtls.c ****              ALTCP_MBEDTLS_FLAGS_RX_CLOSE_QUEUED) {
 2002              		.loc 1 335 13
 2003 004a 114C     		li	s8,4
 2004              	.LVL228:
 2005              	.L272:
 2006              	.LBE67:
 2007              	.LBE66:
 2008              	.LBE79:
 2009              	.LBE53:
 361:C:/Users/stapi/OneDrive/Desktop/GD32VW553/GD32VW55X_Wifi_BLE_SDK/GD32VW55x_RELEASE_V1.0.2/MSDK/lwip/lwip-2.1.2/src/apps/altcp_tls\altcp_tls_mbedtls.c ****     /* allocate a full-sized unchained PBUF_POOL: this is for RX! */
 2010              		.loc 1 361 3 is_stmt 1
 2011              	.LBB83:
 365:C:/Users/stapi/OneDrive/Desktop/GD32VW553/GD32VW55X_Wifi_BLE_SDK/GD32VW55x_RELEASE_V1.0.2/MSDK/lwip/lwip-2.1.2/src/apps/altcp_tls\altcp_tls_mbedtls.c **** #else
 2012              		.loc 1 365 5
 365:C:/Users/stapi/OneDrive/Desktop/GD32VW553/GD32VW55X_Wifi_BLE_SDK/GD32VW55x_RELEASE_V1.0.2/MSDK/lwip/lwip-2.1.2/src/apps/altcp_tls\altcp_tls_mbedtls.c **** #else
 2013              		.loc 1 365 24 is_stmt 0
 2014 004c 13060028 		li	a2,640
 2015 0050 93058074 		li	a1,1864
 2016 0054 0145     		li	a0,0
 2017 0056 97000000 		call	pbuf_alloc
 2017      E7800000 
 2018              	.LVL229:
 2019 005e AA89     		mv	s3,a0
 2020              	.LVL230:
 370:C:/Users/stapi/OneDrive/Desktop/GD32VW553/GD32VW55X_Wifi_BLE_SDK/GD32VW55x_RELEASE_V1.0.2/MSDK/lwip/lwip-2.1.2/src/apps/altcp_tls\altcp_tls_mbedtls.c ****       /* We're short on pbufs, try again later from 'poll' or 'recv' callbacks.
 2021              		.loc 1 370 5 is_stmt 1
 370:C:/Users/stapi/OneDrive/Desktop/GD32VW553/GD32VW55X_Wifi_BLE_SDK/GD32VW55x_RELEASE_V1.0.2/MSDK/lwip/lwip-2.1.2/src/apps/altcp_tls\altcp_tls_mbedtls.c ****       /* We're short on pbufs, try again later from 'poll' or 'recv' callbacks.
 2022              		.loc 1 370 8 is_stmt 0
 2023 0060 39C9     		beq	a0,zero,.L244
 377:C:/Users/stapi/OneDrive/Desktop/GD32VW553/GD32VW55X_Wifi_BLE_SDK/GD32VW55x_RELEASE_V1.0.2/MSDK/lwip/lwip-2.1.2/src/apps/altcp_tls\altcp_tls_mbedtls.c ****     if (ret < 0) {
 2024              		.loc 1 377 5 is_stmt 1
 377:C:/Users/stapi/OneDrive/Desktop/GD32VW553/GD32VW55X_Wifi_BLE_SDK/GD32VW55x_RELEASE_V1.0.2/MSDK/lwip/lwip-2.1.2/src/apps/altcp_tls\altcp_tls_mbedtls.c ****     if (ret < 0) {
 2025              		.loc 1 377 11 is_stmt 0
 2026 0062 4C41     		lw	a1,4(a0)
 2027 0064 13068074 		li	a2,1864
 2028 0068 5A85     		mv	a0,s6
 2029              	.LVL231:
 2030 006a 97000000 		call	mbedtls_ssl_read
 2030      E7800000 
 2031              	.LVL232:
 2032 0072 AA84     		mv	s1,a0
 2033              	.LVL233:
 378:C:/Users/stapi/OneDrive/Desktop/GD32VW553/GD32VW55X_Wifi_BLE_SDK/GD32VW55x_RELEASE_V1.0.2/MSDK/lwip/lwip-2.1.2/src/apps/altcp_tls\altcp_tls_mbedtls.c ****       if (ret == MBEDTLS_ERR_SSL_CLIENT_RECONNECT) {
 2034              		.loc 1 378 5 is_stmt 1
 378:C:/Users/stapi/OneDrive/Desktop/GD32VW553/GD32VW55X_Wifi_BLE_SDK/GD32VW55x_RELEASE_V1.0.2/MSDK/lwip/lwip-2.1.2/src/apps/altcp_tls\altcp_tls_mbedtls.c ****       if (ret == MBEDTLS_ERR_SSL_CLIENT_RECONNECT) {
 2035              		.loc 1 378 8 is_stmt 0
 2036 0074 63530504 		bge	a0,zero,.L245
 379:C:/Users/stapi/OneDrive/Desktop/GD32VW553/GD32VW55X_Wifi_BLE_SDK/GD32VW55x_RELEASE_V1.0.2/MSDK/lwip/lwip-2.1.2/src/apps/altcp_tls\altcp_tls_mbedtls.c ****         /* client is initiating a new connection using the same source port -> close connection or 
 2037              		.loc 1 379 7 is_stmt 1
 379:C:/Users/stapi/OneDrive/Desktop/GD32VW553/GD32VW55X_Wifi_BLE_SDK/GD32VW55x_RELEASE_V1.0.2/MSDK/lwip/lwip-2.1.2/src/apps/altcp_tls\altcp_tls_mbedtls.c ****         /* client is initiating a new connection using the same source port -> close connection or 
 2038              		.loc 1 379 10 is_stmt 0
 2039 0078 E977     		li	a5,-24576
 2040 007a 93870788 		addi	a5,a5,-1920
 2041 007e 6315F502 		bne	a0,a5,.L246
 381:C:/Users/stapi/OneDrive/Desktop/GD32VW553/GD32VW55X_Wifi_BLE_SDK/GD32VW55x_RELEASE_V1.0.2/MSDK/lwip/lwip-2.1.2/src/apps/altcp_tls\altcp_tls_mbedtls.c ****         LWIP_ASSERT("TODO: new connection on same source port, close this connection", 0);
 2042              		.loc 1 381 83 is_stmt 1
 382:C:/Users/stapi/OneDrive/Desktop/GD32VW553/GD32VW55X_Wifi_BLE_SDK/GD32VW55x_RELEASE_V1.0.2/MSDK/lwip/lwip-2.1.2/src/apps/altcp_tls\altcp_tls_mbedtls.c ****       } else if ((ret != MBEDTLS_ERR_SSL_WANT_READ) && (ret != MBEDTLS_ERR_SSL_WANT_WRITE)) {
 2043              		.loc 1 382 9
 382:C:/Users/stapi/OneDrive/Desktop/GD32VW553/GD32VW55X_Wifi_BLE_SDK/GD32VW55x_RELEASE_V1.0.2/MSDK/lwip/lwip-2.1.2/src/apps/altcp_tls\altcp_tls_mbedtls.c ****       } else if ((ret != MBEDTLS_ERR_SSL_WANT_READ) && (ret != MBEDTLS_ERR_SSL_WANT_WRITE)) {
 2044              		.loc 1 382 9
 382:C:/Users/stapi/OneDrive/Desktop/GD32VW553/GD32VW55X_Wifi_BLE_SDK/GD32VW55x_RELEASE_V1.0.2/MSDK/lwip/lwip-2.1.2/src/apps/altcp_tls\altcp_tls_mbedtls.c ****       } else if ((ret != MBEDTLS_ERR_SSL_WANT_READ) && (ret != MBEDTLS_ERR_SSL_WANT_WRITE)) {
 2045              		.loc 1 382 9
 382:C:/Users/stapi/OneDrive/Desktop/GD32VW553/GD32VW55X_Wifi_BLE_SDK/GD32VW55x_RELEASE_V1.0.2/MSDK/lwip/lwip-2.1.2/src/apps/altcp_tls\altcp_tls_mbedtls.c ****       } else if ((ret != MBEDTLS_ERR_SSL_WANT_READ) && (ret != MBEDTLS_ERR_SSL_WANT_WRITE)) {
 2046              		.loc 1 382 9
 2047 0082 B7060000 		lui	a3,%hi(.LC0)
 2048 0086 B7050000 		lui	a1,%hi(.LC11)
 2049 008a 37050000 		lui	a0,%hi(.LC2)
 2050 008e 93860600 		addi	a3,a3,%lo(.LC0)
 2051 0092 1306E017 		li	a2,382
 2052 0096 93850500 		addi	a1,a1,%lo(.LC11)
 2053 009a 13050500 		addi	a0,a0,%lo(.LC2)
 2054 009e 97000000 		call	printf
 2054      E7800000 
 2055              	.LVL234:
 2056              	.L247:
 382:C:/Users/stapi/OneDrive/Desktop/GD32VW553/GD32VW55X_Wifi_BLE_SDK/GD32VW55x_RELEASE_V1.0.2/MSDK/lwip/lwip-2.1.2/src/apps/altcp_tls\altcp_tls_mbedtls.c ****       } else if ((ret != MBEDTLS_ERR_SSL_WANT_READ) && (ret != MBEDTLS_ERR_SSL_WANT_WRITE)) {
 2057              		.loc 1 382 9
 382:C:/Users/stapi/OneDrive/Desktop/GD32VW553/GD32VW55X_Wifi_BLE_SDK/GD32VW55x_RELEASE_V1.0.2/MSDK/lwip/lwip-2.1.2/src/apps/altcp_tls\altcp_tls_mbedtls.c ****       } else if ((ret != MBEDTLS_ERR_SSL_WANT_READ) && (ret != MBEDTLS_ERR_SSL_WANT_WRITE)) {
 2058              		.loc 1 382 9
 382:C:/Users/stapi/OneDrive/Desktop/GD32VW553/GD32VW55X_Wifi_BLE_SDK/GD32VW55x_RELEASE_V1.0.2/MSDK/lwip/lwip-2.1.2/src/apps/altcp_tls\altcp_tls_mbedtls.c ****       } else if ((ret != MBEDTLS_ERR_SSL_WANT_READ) && (ret != MBEDTLS_ERR_SSL_WANT_WRITE)) {
 2059              		.loc 1 382 9
 2060 00a6 01A0     		j	.L247
 2061              	.L246:
 383:C:/Users/stapi/OneDrive/Desktop/GD32VW553/GD32VW55X_Wifi_BLE_SDK/GD32VW55x_RELEASE_V1.0.2/MSDK/lwip/lwip-2.1.2/src/apps/altcp_tls\altcp_tls_mbedtls.c ****         if (ret == MBEDTLS_ERR_SSL_PEER_CLOSE_NOTIFY) {
 2062              		.loc 1 383 14
 383:C:/Users/stapi/OneDrive/Desktop/GD32VW553/GD32VW55X_Wifi_BLE_SDK/GD32VW55x_RELEASE_V1.0.2/MSDK/lwip/lwip-2.1.2/src/apps/altcp_tls\altcp_tls_mbedtls.c ****         if (ret == MBEDTLS_ERR_SSL_PEER_CLOSE_NOTIFY) {
 2063              		.loc 1 383 17 is_stmt 0
 2064 00a8 9374F5F7 		andi	s1,a0,-129
 2065              	.LVL235:
 389:C:/Users/stapi/OneDrive/Desktop/GD32VW553/GD32VW55X_Wifi_BLE_SDK/GD32VW55x_RELEASE_V1.0.2/MSDK/lwip/lwip-2.1.2/src/apps/altcp_tls\altcp_tls_mbedtls.c ****         return ERR_OK;
 2066              		.loc 1 389 9
 2067 00ac 4E85     		mv	a0,s3
 2068              	.LVL236:
 392:C:/Users/stapi/OneDrive/Desktop/GD32VW553/GD32VW55X_Wifi_BLE_SDK/GD32VW55x_RELEASE_V1.0.2/MSDK/lwip/lwip-2.1.2/src/apps/altcp_tls\altcp_tls_mbedtls.c ****         return ERR_OK;
 2069              		.loc 1 392 9 is_stmt 1
 2070 00ae 97000000 		call	pbuf_free
 2070      E7800000 
 2071              	.LVL237:
 393:C:/Users/stapi/OneDrive/Desktop/GD32VW553/GD32VW55X_Wifi_BLE_SDK/GD32VW55x_RELEASE_V1.0.2/MSDK/lwip/lwip-2.1.2/src/apps/altcp_tls\altcp_tls_mbedtls.c ****       }
 2072              		.loc 1 393 9
 2073              	.L244:
 2074              	.LBB80:
 434:C:/Users/stapi/OneDrive/Desktop/GD32VW553/GD32VW55X_Wifi_BLE_SDK/GD32VW55x_RELEASE_V1.0.2/MSDK/lwip/lwip-2.1.2/src/apps/altcp_tls\altcp_tls_mbedtls.c ****       }
 2075              		.loc 1 434 9
 434:C:/Users/stapi/OneDrive/Desktop/GD32VW553/GD32VW55X_Wifi_BLE_SDK/GD32VW55x_RELEASE_V1.0.2/MSDK/lwip/lwip-2.1.2/src/apps/altcp_tls\altcp_tls_mbedtls.c ****       }
 2076              		.loc 1 434 16 is_stmt 0
 2077 00b6 0145     		li	a0,0
 2078 00b8 91A2     		j	.L243
 2079              	.LVL238:
 2080              	.L245:
 399:C:/Users/stapi/OneDrive/Desktop/GD32VW553/GD32VW55X_Wifi_BLE_SDK/GD32VW55x_RELEASE_V1.0.2/MSDK/lwip/lwip-2.1.2/src/apps/altcp_tls\altcp_tls_mbedtls.c ****       if (ret) {
 2081              		.loc 1 399 7 is_stmt 1
 400:C:/Users/stapi/OneDrive/Desktop/GD32VW553/GD32VW55X_Wifi_BLE_SDK/GD32VW55x_RELEASE_V1.0.2/MSDK/lwip/lwip-2.1.2/src/apps/altcp_tls\altcp_tls_mbedtls.c ****         LWIP_ASSERT("bogus receive length", ret <= PBUF_POOL_BUFSIZE);
 2082              		.loc 1 400 7
 400:C:/Users/stapi/OneDrive/Desktop/GD32VW553/GD32VW55X_Wifi_BLE_SDK/GD32VW55x_RELEASE_V1.0.2/MSDK/lwip/lwip-2.1.2/src/apps/altcp_tls\altcp_tls_mbedtls.c ****         LWIP_ASSERT("bogus receive length", ret <= PBUF_POOL_BUFSIZE);
 2083              		.loc 1 400 10 is_stmt 0
 2084 00ba 75C9     		beq	a0,zero,.L249
 401:C:/Users/stapi/OneDrive/Desktop/GD32VW553/GD32VW55X_Wifi_BLE_SDK/GD32VW55x_RELEASE_V1.0.2/MSDK/lwip/lwip-2.1.2/src/apps/altcp_tls\altcp_tls_mbedtls.c ****         /* trim pool pbuf to actually decoded length */
 2085              		.loc 1 401 9 is_stmt 1
 401:C:/Users/stapi/OneDrive/Desktop/GD32VW553/GD32VW55X_Wifi_BLE_SDK/GD32VW55x_RELEASE_V1.0.2/MSDK/lwip/lwip-2.1.2/src/apps/altcp_tls\altcp_tls_mbedtls.c ****         /* trim pool pbuf to actually decoded length */
 2086              		.loc 1 401 9
 2087 00bc 93078074 		li	a5,1864
 2088 00c0 63D5A702 		ble	a0,a5,.L250
 401:C:/Users/stapi/OneDrive/Desktop/GD32VW553/GD32VW55X_Wifi_BLE_SDK/GD32VW55x_RELEASE_V1.0.2/MSDK/lwip/lwip-2.1.2/src/apps/altcp_tls\altcp_tls_mbedtls.c ****         /* trim pool pbuf to actually decoded length */
 2089              		.loc 1 401 9
 401:C:/Users/stapi/OneDrive/Desktop/GD32VW553/GD32VW55X_Wifi_BLE_SDK/GD32VW55x_RELEASE_V1.0.2/MSDK/lwip/lwip-2.1.2/src/apps/altcp_tls\altcp_tls_mbedtls.c ****         /* trim pool pbuf to actually decoded length */
 2090              		.loc 1 401 9
 2091 00c4 B7060000 		lui	a3,%hi(.LC0)
 2092 00c8 B7050000 		lui	a1,%hi(.LC12)
 2093 00cc 37050000 		lui	a0,%hi(.LC2)
 2094 00d0 93860600 		addi	a3,a3,%lo(.LC0)
 2095 00d4 13061019 		li	a2,401
 2096 00d8 93850500 		addi	a1,a1,%lo(.LC12)
 2097 00dc 13050500 		addi	a0,a0,%lo(.LC2)
 2098 00e0 97000000 		call	printf
 2098      E7800000 
 2099              	.LVL239:
 2100              	.L251:
 401:C:/Users/stapi/OneDrive/Desktop/GD32VW553/GD32VW55X_Wifi_BLE_SDK/GD32VW55x_RELEASE_V1.0.2/MSDK/lwip/lwip-2.1.2/src/apps/altcp_tls\altcp_tls_mbedtls.c ****         /* trim pool pbuf to actually decoded length */
 2101              		.loc 1 401 9
 401:C:/Users/stapi/OneDrive/Desktop/GD32VW553/GD32VW55X_Wifi_BLE_SDK/GD32VW55x_RELEASE_V1.0.2/MSDK/lwip/lwip-2.1.2/src/apps/altcp_tls\altcp_tls_mbedtls.c ****         /* trim pool pbuf to actually decoded length */
 2102              		.loc 1 401 9
 401:C:/Users/stapi/OneDrive/Desktop/GD32VW553/GD32VW55X_Wifi_BLE_SDK/GD32VW55x_RELEASE_V1.0.2/MSDK/lwip/lwip-2.1.2/src/apps/altcp_tls\altcp_tls_mbedtls.c ****         /* trim pool pbuf to actually decoded length */
 2103              		.loc 1 401 9
 2104 00e8 01A0     		j	.L251
 2105              	.L250:
 401:C:/Users/stapi/OneDrive/Desktop/GD32VW553/GD32VW55X_Wifi_BLE_SDK/GD32VW55x_RELEASE_V1.0.2/MSDK/lwip/lwip-2.1.2/src/apps/altcp_tls\altcp_tls_mbedtls.c ****         /* trim pool pbuf to actually decoded length */
 2106              		.loc 1 401 9
 401:C:/Users/stapi/OneDrive/Desktop/GD32VW553/GD32VW55X_Wifi_BLE_SDK/GD32VW55x_RELEASE_V1.0.2/MSDK/lwip/lwip-2.1.2/src/apps/altcp_tls\altcp_tls_mbedtls.c ****         /* trim pool pbuf to actually decoded length */
 2107              		.loc 1 401 9
 403:C:/Users/stapi/OneDrive/Desktop/GD32VW553/GD32VW55X_Wifi_BLE_SDK/GD32VW55x_RELEASE_V1.0.2/MSDK/lwip/lwip-2.1.2/src/apps/altcp_tls\altcp_tls_mbedtls.c **** 
 2108              		.loc 1 403 9
 2109 00ea B3450508 		zext.h	a1,a0
 2110 00ee 4E85     		mv	a0,s3
 2111 00f0 97000000 		call	pbuf_realloc
 2111      E7800000 
 2112              	.LVL240:
 405:C:/Users/stapi/OneDrive/Desktop/GD32VW553/GD32VW55X_Wifi_BLE_SDK/GD32VW55x_RELEASE_V1.0.2/MSDK/lwip/lwip-2.1.2/src/apps/altcp_tls\altcp_tls_mbedtls.c ****         if (mbedtls_ssl_get_bytes_avail(&state->ssl_context) == 0) {
 2113              		.loc 1 405 9
 405:C:/Users/stapi/OneDrive/Desktop/GD32VW553/GD32VW55X_Wifi_BLE_SDK/GD32VW55x_RELEASE_V1.0.2/MSDK/lwip/lwip-2.1.2/src/apps/altcp_tls\altcp_tls_mbedtls.c ****         if (mbedtls_ssl_get_bytes_avail(&state->ssl_context) == 0) {
 2114              		.loc 1 405 31 is_stmt 0
 2115 00f8 83274416 		lw	a5,356(s0)
 406:C:/Users/stapi/OneDrive/Desktop/GD32VW553/GD32VW55X_Wifi_BLE_SDK/GD32VW55x_RELEASE_V1.0.2/MSDK/lwip/lwip-2.1.2/src/apps/altcp_tls\altcp_tls_mbedtls.c ****           /* Record is done, now we know the share between application and protocol bytes
 2116              		.loc 1 406 13
 2117 00fc 5A85     		mv	a0,s6
 405:C:/Users/stapi/OneDrive/Desktop/GD32VW553/GD32VW55X_Wifi_BLE_SDK/GD32VW55x_RELEASE_V1.0.2/MSDK/lwip/lwip-2.1.2/src/apps/altcp_tls\altcp_tls_mbedtls.c ****         if (mbedtls_ssl_get_bytes_avail(&state->ssl_context) == 0) {
 2118              		.loc 1 405 31
 2119 00fe A697     		add	a5,a5,s1
 2120 0100 2322F416 		sw	a5,356(s0)
 406:C:/Users/stapi/OneDrive/Desktop/GD32VW553/GD32VW55X_Wifi_BLE_SDK/GD32VW55x_RELEASE_V1.0.2/MSDK/lwip/lwip-2.1.2/src/apps/altcp_tls\altcp_tls_mbedtls.c ****           /* Record is done, now we know the share between application and protocol bytes
 2121              		.loc 1 406 9 is_stmt 1
 406:C:/Users/stapi/OneDrive/Desktop/GD32VW553/GD32VW55X_Wifi_BLE_SDK/GD32VW55x_RELEASE_V1.0.2/MSDK/lwip/lwip-2.1.2/src/apps/altcp_tls\altcp_tls_mbedtls.c ****           /* Record is done, now we know the share between application and protocol bytes
 2122              		.loc 1 406 13 is_stmt 0
 2123 0104 97000000 		call	mbedtls_ssl_get_bytes_avail
 2123      E7800000 
 2124              	.LVL241:
 406:C:/Users/stapi/OneDrive/Desktop/GD32VW553/GD32VW55X_Wifi_BLE_SDK/GD32VW55x_RELEASE_V1.0.2/MSDK/lwip/lwip-2.1.2/src/apps/altcp_tls\altcp_tls_mbedtls.c ****           /* Record is done, now we know the share between application and protocol bytes
 2125              		.loc 1 406 12
 2126 010c 2DE1     		bne	a0,zero,.L252
 2127              	.LBB74:
 410:C:/Users/stapi/OneDrive/Desktop/GD32VW553/GD32VW55X_Wifi_BLE_SDK/GD32VW55x_RELEASE_V1.0.2/MSDK/lwip/lwip-2.1.2/src/apps/altcp_tls\altcp_tls_mbedtls.c ****           LWIP_ASSERT("bogus byte counts", state->bio_bytes_read > state->bio_bytes_appl);
 2128              		.loc 1 410 11 is_stmt 1
 411:C:/Users/stapi/OneDrive/Desktop/GD32VW553/GD32VW55X_Wifi_BLE_SDK/GD32VW55x_RELEASE_V1.0.2/MSDK/lwip/lwip-2.1.2/src/apps/altcp_tls\altcp_tls_mbedtls.c ****           overhead_bytes = state->bio_bytes_read - state->bio_bytes_appl;
 2129              		.loc 1 411 11
 411:C:/Users/stapi/OneDrive/Desktop/GD32VW553/GD32VW55X_Wifi_BLE_SDK/GD32VW55x_RELEASE_V1.0.2/MSDK/lwip/lwip-2.1.2/src/apps/altcp_tls\altcp_tls_mbedtls.c ****           overhead_bytes = state->bio_bytes_read - state->bio_bytes_appl;
 2130              		.loc 1 411 11
 2131 010e 032A0416 		lw	s4,352(s0)
 2132 0112 83274416 		lw	a5,356(s0)
 2133 0116 63C54703 		bgt	s4,a5,.L253
 411:C:/Users/stapi/OneDrive/Desktop/GD32VW553/GD32VW55X_Wifi_BLE_SDK/GD32VW55x_RELEASE_V1.0.2/MSDK/lwip/lwip-2.1.2/src/apps/altcp_tls\altcp_tls_mbedtls.c ****           overhead_bytes = state->bio_bytes_read - state->bio_bytes_appl;
 2134              		.loc 1 411 11
 411:C:/Users/stapi/OneDrive/Desktop/GD32VW553/GD32VW55X_Wifi_BLE_SDK/GD32VW55x_RELEASE_V1.0.2/MSDK/lwip/lwip-2.1.2/src/apps/altcp_tls\altcp_tls_mbedtls.c ****           overhead_bytes = state->bio_bytes_read - state->bio_bytes_appl;
 2135              		.loc 1 411 11
 2136 011a B7060000 		lui	a3,%hi(.LC0)
 2137 011e B7050000 		lui	a1,%hi(.LC13)
 2138 0122 37050000 		lui	a0,%hi(.LC2)
 2139 0126 93860600 		addi	a3,a3,%lo(.LC0)
 2140 012a 1306B019 		li	a2,411
 2141 012e 93850500 		addi	a1,a1,%lo(.LC13)
 2142 0132 13050500 		addi	a0,a0,%lo(.LC2)
 2143 0136 97000000 		call	printf
 2143      E7800000 
 2144              	.LVL242:
 2145              	.L254:
 411:C:/Users/stapi/OneDrive/Desktop/GD32VW553/GD32VW55X_Wifi_BLE_SDK/GD32VW55x_RELEASE_V1.0.2/MSDK/lwip/lwip-2.1.2/src/apps/altcp_tls\altcp_tls_mbedtls.c ****           overhead_bytes = state->bio_bytes_read - state->bio_bytes_appl;
 2146              		.loc 1 411 11
 411:C:/Users/stapi/OneDrive/Desktop/GD32VW553/GD32VW55X_Wifi_BLE_SDK/GD32VW55x_RELEASE_V1.0.2/MSDK/lwip/lwip-2.1.2/src/apps/altcp_tls\altcp_tls_mbedtls.c ****           overhead_bytes = state->bio_bytes_read - state->bio_bytes_appl;
 2147              		.loc 1 411 11
 411:C:/Users/stapi/OneDrive/Desktop/GD32VW553/GD32VW55X_Wifi_BLE_SDK/GD32VW55x_RELEASE_V1.0.2/MSDK/lwip/lwip-2.1.2/src/apps/altcp_tls\altcp_tls_mbedtls.c ****           overhead_bytes = state->bio_bytes_read - state->bio_bytes_appl;
 2148              		.loc 1 411 11
 2149 013e 01A0     		j	.L254
 2150              	.L253:
 411:C:/Users/stapi/OneDrive/Desktop/GD32VW553/GD32VW55X_Wifi_BLE_SDK/GD32VW55x_RELEASE_V1.0.2/MSDK/lwip/lwip-2.1.2/src/apps/altcp_tls\altcp_tls_mbedtls.c ****           overhead_bytes = state->bio_bytes_read - state->bio_bytes_appl;
 2151              		.loc 1 411 11
 411:C:/Users/stapi/OneDrive/Desktop/GD32VW553/GD32VW55X_Wifi_BLE_SDK/GD32VW55x_RELEASE_V1.0.2/MSDK/lwip/lwip-2.1.2/src/apps/altcp_tls\altcp_tls_mbedtls.c ****           overhead_bytes = state->bio_bytes_read - state->bio_bytes_appl;
 2152              		.loc 1 411 11
 412:C:/Users/stapi/OneDrive/Desktop/GD32VW553/GD32VW55X_Wifi_BLE_SDK/GD32VW55x_RELEASE_V1.0.2/MSDK/lwip/lwip-2.1.2/src/apps/altcp_tls\altcp_tls_mbedtls.c ****           altcp_mbedtls_lower_recved(conn->inner_conn, overhead_bytes);
 2153              		.loc 1 412 11
 413:C:/Users/stapi/OneDrive/Desktop/GD32VW553/GD32VW55X_Wifi_BLE_SDK/GD32VW55x_RELEASE_V1.0.2/MSDK/lwip/lwip-2.1.2/src/apps/altcp_tls\altcp_tls_mbedtls.c ****           state->bio_bytes_read = 0;
 2154              		.loc 1 413 11 is_stmt 0
 2155 0140 032D4900 		lw	s10,4(s2)
 412:C:/Users/stapi/OneDrive/Desktop/GD32VW553/GD32VW55X_Wifi_BLE_SDK/GD32VW55x_RELEASE_V1.0.2/MSDK/lwip/lwip-2.1.2/src/apps/altcp_tls\altcp_tls_mbedtls.c ****           altcp_mbedtls_lower_recved(conn->inner_conn, overhead_bytes);
 2156              		.loc 1 412 26
 2157 0144 330AFA40 		sub	s4,s4,a5
 2158              	.LVL243:
 413:C:/Users/stapi/OneDrive/Desktop/GD32VW553/GD32VW55X_Wifi_BLE_SDK/GD32VW55x_RELEASE_V1.0.2/MSDK/lwip/lwip-2.1.2/src/apps/altcp_tls\altcp_tls_mbedtls.c ****           state->bio_bytes_read = 0;
 2159              		.loc 1 413 11 is_stmt 1
 2160              	.LBB64:
 2161              	.LBB62:
 173:C:/Users/stapi/OneDrive/Desktop/GD32VW553/GD32VW55X_Wifi_BLE_SDK/GD32VW55x_RELEASE_V1.0.2/MSDK/lwip/lwip-2.1.2/src/apps/altcp_tls\altcp_tls_mbedtls.c ****     u16_t recvd_part = (u16_t)LWIP_MIN(recvd_cnt, 0xFFFF);
 2162              		.loc 1 173 3
 173:C:/Users/stapi/OneDrive/Desktop/GD32VW553/GD32VW55X_Wifi_BLE_SDK/GD32VW55x_RELEASE_V1.0.2/MSDK/lwip/lwip-2.1.2/src/apps/altcp_tls\altcp_tls_mbedtls.c ****     u16_t recvd_part = (u16_t)LWIP_MIN(recvd_cnt, 0xFFFF);
 2163              		.loc 1 173 9
 2164              	.L256:
 2165              	.LBB60:
 174:C:/Users/stapi/OneDrive/Desktop/GD32VW553/GD32VW55X_Wifi_BLE_SDK/GD32VW55x_RELEASE_V1.0.2/MSDK/lwip/lwip-2.1.2/src/apps/altcp_tls\altcp_tls_mbedtls.c ****     altcp_recved(inner_conn, recvd_part);
 2166              		.loc 1 174 5
 2167 0148 D68C     		mv	s9,s5
 174:C:/Users/stapi/OneDrive/Desktop/GD32VW553/GD32VW55X_Wifi_BLE_SDK/GD32VW55x_RELEASE_V1.0.2/MSDK/lwip/lwip-2.1.2/src/apps/altcp_tls\altcp_tls_mbedtls.c ****     altcp_recved(inner_conn, recvd_part);
 2168              		.loc 1 174 24 is_stmt 0
 2169 014a 63C34B01 		bgt	s4,s7,.L255
 2170 014e D28C     		mv	s9,s4
 2171              	.L255:
 2172              	.LVL244:
 175:C:/Users/stapi/OneDrive/Desktop/GD32VW553/GD32VW55X_Wifi_BLE_SDK/GD32VW55x_RELEASE_V1.0.2/MSDK/lwip/lwip-2.1.2/src/apps/altcp_tls\altcp_tls_mbedtls.c ****     recvd_cnt -= recvd_part;
 2173              		.loc 1 175 5 is_stmt 1
 2174 0150 6A85     		mv	a0,s10
 176:C:/Users/stapi/OneDrive/Desktop/GD32VW553/GD32VW55X_Wifi_BLE_SDK/GD32VW55x_RELEASE_V1.0.2/MSDK/lwip/lwip-2.1.2/src/apps/altcp_tls\altcp_tls_mbedtls.c ****   }
 2175              		.loc 1 176 15 is_stmt 0
 2176 0152 330A9A41 		sub	s4,s4,s9
 2177              	.LVL245:
 175:C:/Users/stapi/OneDrive/Desktop/GD32VW553/GD32VW55X_Wifi_BLE_SDK/GD32VW55x_RELEASE_V1.0.2/MSDK/lwip/lwip-2.1.2/src/apps/altcp_tls\altcp_tls_mbedtls.c ****     recvd_cnt -= recvd_part;
 2178              		.loc 1 175 5
 2179 0156 B3C50C08 		zext.h	a1,s9
 2180 015a 97000000 		call	altcp_recved
 2180      E7800000 
 2181              	.LVL246:
 176:C:/Users/stapi/OneDrive/Desktop/GD32VW553/GD32VW55X_Wifi_BLE_SDK/GD32VW55x_RELEASE_V1.0.2/MSDK/lwip/lwip-2.1.2/src/apps/altcp_tls\altcp_tls_mbedtls.c ****   }
 2182              		.loc 1 176 5 is_stmt 1
 2183              	.LBE60:
 173:C:/Users/stapi/OneDrive/Desktop/GD32VW553/GD32VW55X_Wifi_BLE_SDK/GD32VW55x_RELEASE_V1.0.2/MSDK/lwip/lwip-2.1.2/src/apps/altcp_tls\altcp_tls_mbedtls.c ****     u16_t recvd_part = (u16_t)LWIP_MIN(recvd_cnt, 0xFFFF);
 2184              		.loc 1 173 9
 2185 0162 E34340FF 		bgt	s4,zero,.L256
 2186              	.LVL247:
 2187              	.LBE62:
 2188              	.LBE64:
 414:C:/Users/stapi/OneDrive/Desktop/GD32VW553/GD32VW55X_Wifi_BLE_SDK/GD32VW55x_RELEASE_V1.0.2/MSDK/lwip/lwip-2.1.2/src/apps/altcp_tls\altcp_tls_mbedtls.c ****           state->bio_bytes_appl = 0;
 2189              		.loc 1 414 11
 414:C:/Users/stapi/OneDrive/Desktop/GD32VW553/GD32VW55X_Wifi_BLE_SDK/GD32VW55x_RELEASE_V1.0.2/MSDK/lwip/lwip-2.1.2/src/apps/altcp_tls\altcp_tls_mbedtls.c ****           state->bio_bytes_appl = 0;
 2190              		.loc 1 414 33 is_stmt 0
 2191 0166 23200416 		sw	zero,352(s0)
 415:C:/Users/stapi/OneDrive/Desktop/GD32VW553/GD32VW55X_Wifi_BLE_SDK/GD32VW55x_RELEASE_V1.0.2/MSDK/lwip/lwip-2.1.2/src/apps/altcp_tls\altcp_tls_mbedtls.c ****         }
 2192              		.loc 1 415 11 is_stmt 1
 415:C:/Users/stapi/OneDrive/Desktop/GD32VW553/GD32VW55X_Wifi_BLE_SDK/GD32VW55x_RELEASE_V1.0.2/MSDK/lwip/lwip-2.1.2/src/apps/altcp_tls\altcp_tls_mbedtls.c ****         }
 2193              		.loc 1 415 33 is_stmt 0
 2194 016a 23220416 		sw	zero,356(s0)
 2195              	.LVL248:
 2196              	.L252:
 2197              	.LBE74:
 418:C:/Users/stapi/OneDrive/Desktop/GD32VW553/GD32VW55X_Wifi_BLE_SDK/GD32VW55x_RELEASE_V1.0.2/MSDK/lwip/lwip-2.1.2/src/apps/altcp_tls\altcp_tls_mbedtls.c ****           state->rx_app = buf;
 2198              		.loc 1 418 9 is_stmt 1
 418:C:/Users/stapi/OneDrive/Desktop/GD32VW553/GD32VW55X_Wifi_BLE_SDK/GD32VW55x_RELEASE_V1.0.2/MSDK/lwip/lwip-2.1.2/src/apps/altcp_tls\altcp_tls_mbedtls.c ****           state->rx_app = buf;
 2199              		.loc 1 418 18 is_stmt 0
 2200 016e 03254415 		lw	a0,340(s0)
 418:C:/Users/stapi/OneDrive/Desktop/GD32VW553/GD32VW55X_Wifi_BLE_SDK/GD32VW55x_RELEASE_V1.0.2/MSDK/lwip/lwip-2.1.2/src/apps/altcp_tls\altcp_tls_mbedtls.c ****           state->rx_app = buf;
 2201              		.loc 1 418 12
 2202 0172 05E9     		bne	a0,zero,.L257
 419:C:/Users/stapi/OneDrive/Desktop/GD32VW553/GD32VW55X_Wifi_BLE_SDK/GD32VW55x_RELEASE_V1.0.2/MSDK/lwip/lwip-2.1.2/src/apps/altcp_tls\altcp_tls_mbedtls.c ****         } else {
 2203              		.loc 1 419 11 is_stmt 1
 419:C:/Users/stapi/OneDrive/Desktop/GD32VW553/GD32VW55X_Wifi_BLE_SDK/GD32VW55x_RELEASE_V1.0.2/MSDK/lwip/lwip-2.1.2/src/apps/altcp_tls\altcp_tls_mbedtls.c ****         } else {
 2204              		.loc 1 419 25 is_stmt 0
 2205 0174 232A3415 		sw	s3,340(s0)
 2206              	.LVL249:
 2207              	.L258:
 427:C:/Users/stapi/OneDrive/Desktop/GD32VW553/GD32VW55X_Wifi_BLE_SDK/GD32VW55x_RELEASE_V1.0.2/MSDK/lwip/lwip-2.1.2/src/apps/altcp_tls\altcp_tls_mbedtls.c ****       if (err != ERR_OK) {
 2208              		.loc 1 427 7 is_stmt 1
 2209              	.LBB75:
 2210              	.LBB70:
 305:C:/Users/stapi/OneDrive/Desktop/GD32VW553/GD32VW55X_Wifi_BLE_SDK/GD32VW55x_RELEASE_V1.0.2/MSDK/lwip/lwip-2.1.2/src/apps/altcp_tls\altcp_tls_mbedtls.c ****   struct pbuf *buf;
 2211              		.loc 1 305 3
 306:C:/Users/stapi/OneDrive/Desktop/GD32VW553/GD32VW55X_Wifi_BLE_SDK/GD32VW55x_RELEASE_V1.0.2/MSDK/lwip/lwip-2.1.2/src/apps/altcp_tls\altcp_tls_mbedtls.c ****   LWIP_ASSERT("conn != NULL", conn != NULL);
 2212              		.loc 1 306 3
 307:C:/Users/stapi/OneDrive/Desktop/GD32VW553/GD32VW55X_Wifi_BLE_SDK/GD32VW55x_RELEASE_V1.0.2/MSDK/lwip/lwip-2.1.2/src/apps/altcp_tls\altcp_tls_mbedtls.c ****   LWIP_ASSERT("state != NULL", state != NULL);
 2213              		.loc 1 307 3
 307:C:/Users/stapi/OneDrive/Desktop/GD32VW553/GD32VW55X_Wifi_BLE_SDK/GD32VW55x_RELEASE_V1.0.2/MSDK/lwip/lwip-2.1.2/src/apps/altcp_tls\altcp_tls_mbedtls.c ****   LWIP_ASSERT("state != NULL", state != NULL);
 2214              		.loc 1 307 3
 2215 0178 63110904 		bne	s2,zero,.L259
 307:C:/Users/stapi/OneDrive/Desktop/GD32VW553/GD32VW55X_Wifi_BLE_SDK/GD32VW55x_RELEASE_V1.0.2/MSDK/lwip/lwip-2.1.2/src/apps/altcp_tls\altcp_tls_mbedtls.c ****   LWIP_ASSERT("state != NULL", state != NULL);
 2216              		.loc 1 307 3
 307:C:/Users/stapi/OneDrive/Desktop/GD32VW553/GD32VW55X_Wifi_BLE_SDK/GD32VW55x_RELEASE_V1.0.2/MSDK/lwip/lwip-2.1.2/src/apps/altcp_tls\altcp_tls_mbedtls.c ****   LWIP_ASSERT("state != NULL", state != NULL);
 2217              		.loc 1 307 3
 2218 017c B7060000 		lui	a3,%hi(.LC0)
 2219 0180 B7050000 		lui	a1,%hi(.LC7)
 2220 0184 37050000 		lui	a0,%hi(.LC2)
 2221 0188 93860600 		addi	a3,a3,%lo(.LC0)
 2222 018c 13063013 		li	a2,307
 2223 0190 93850500 		addi	a1,a1,%lo(.LC7)
 2224 0194 13050500 		addi	a0,a0,%lo(.LC2)
 2225 0198 97000000 		call	printf
 2225      E7800000 
 2226              	.LVL250:
 2227              	.L260:
 307:C:/Users/stapi/OneDrive/Desktop/GD32VW553/GD32VW55X_Wifi_BLE_SDK/GD32VW55x_RELEASE_V1.0.2/MSDK/lwip/lwip-2.1.2/src/apps/altcp_tls\altcp_tls_mbedtls.c ****   LWIP_ASSERT("state != NULL", state != NULL);
 2228              		.loc 1 307 3
 307:C:/Users/stapi/OneDrive/Desktop/GD32VW553/GD32VW55X_Wifi_BLE_SDK/GD32VW55x_RELEASE_V1.0.2/MSDK/lwip/lwip-2.1.2/src/apps/altcp_tls\altcp_tls_mbedtls.c ****   LWIP_ASSERT("state != NULL", state != NULL);
 2229              		.loc 1 307 3
 307:C:/Users/stapi/OneDrive/Desktop/GD32VW553/GD32VW55X_Wifi_BLE_SDK/GD32VW55x_RELEASE_V1.0.2/MSDK/lwip/lwip-2.1.2/src/apps/altcp_tls\altcp_tls_mbedtls.c ****   LWIP_ASSERT("state != NULL", state != NULL);
 2230              		.loc 1 307 3
 2231 01a0 01A0     		j	.L260
 2232              	.LVL251:
 2233              	.L257:
 2234              	.LBE70:
 2235              	.LBE75:
 421:C:/Users/stapi/OneDrive/Desktop/GD32VW553/GD32VW55X_Wifi_BLE_SDK/GD32VW55x_RELEASE_V1.0.2/MSDK/lwip/lwip-2.1.2/src/apps/altcp_tls\altcp_tls_mbedtls.c ****         }
 2236              		.loc 1 421 11
 2237 01a2 CE85     		mv	a1,s3
 2238 01a4 97000000 		call	pbuf_cat
 2238      E7800000 
 2239              	.LVL252:
 2240 01ac F1B7     		j	.L258
 2241              	.L249:
 424:C:/Users/stapi/OneDrive/Desktop/GD32VW553/GD32VW55X_Wifi_BLE_SDK/GD32VW55x_RELEASE_V1.0.2/MSDK/lwip/lwip-2.1.2/src/apps/altcp_tls\altcp_tls_mbedtls.c ****         buf = NULL;
 2242              		.loc 1 424 9
 2243 01ae 4E85     		mv	a0,s3
 2244 01b0 97000000 		call	pbuf_free
 2244      E7800000 
 2245              	.LVL253:
 425:C:/Users/stapi/OneDrive/Desktop/GD32VW553/GD32VW55X_Wifi_BLE_SDK/GD32VW55x_RELEASE_V1.0.2/MSDK/lwip/lwip-2.1.2/src/apps/altcp_tls\altcp_tls_mbedtls.c ****       }
 2246              		.loc 1 425 9
 2247 01b8 C1B7     		j	.L258
 2248              	.LVL254:
 2249              	.L259:
 2250              	.LBB76:
 2251              	.LBB71:
 307:C:/Users/stapi/OneDrive/Desktop/GD32VW553/GD32VW55X_Wifi_BLE_SDK/GD32VW55x_RELEASE_V1.0.2/MSDK/lwip/lwip-2.1.2/src/apps/altcp_tls\altcp_tls_mbedtls.c ****   LWIP_ASSERT("state != NULL", state != NULL);
 2252              		.loc 1 307 3
 307:C:/Users/stapi/OneDrive/Desktop/GD32VW553/GD32VW55X_Wifi_BLE_SDK/GD32VW55x_RELEASE_V1.0.2/MSDK/lwip/lwip-2.1.2/src/apps/altcp_tls\altcp_tls_mbedtls.c ****   LWIP_ASSERT("state != NULL", state != NULL);
 2253              		.loc 1 307 3
 308:C:/Users/stapi/OneDrive/Desktop/GD32VW553/GD32VW55X_Wifi_BLE_SDK/GD32VW55x_RELEASE_V1.0.2/MSDK/lwip/lwip-2.1.2/src/apps/altcp_tls\altcp_tls_mbedtls.c ****   buf = state->rx_app;
 2254              		.loc 1 308 3
 308:C:/Users/stapi/OneDrive/Desktop/GD32VW553/GD32VW55X_Wifi_BLE_SDK/GD32VW55x_RELEASE_V1.0.2/MSDK/lwip/lwip-2.1.2/src/apps/altcp_tls\altcp_tls_mbedtls.c ****   buf = state->rx_app;
 2255              		.loc 1 308 3
 308:C:/Users/stapi/OneDrive/Desktop/GD32VW553/GD32VW55X_Wifi_BLE_SDK/GD32VW55x_RELEASE_V1.0.2/MSDK/lwip/lwip-2.1.2/src/apps/altcp_tls\altcp_tls_mbedtls.c ****   buf = state->rx_app;
 2256              		.loc 1 308 3
 308:C:/Users/stapi/OneDrive/Desktop/GD32VW553/GD32VW55X_Wifi_BLE_SDK/GD32VW55x_RELEASE_V1.0.2/MSDK/lwip/lwip-2.1.2/src/apps/altcp_tls\altcp_tls_mbedtls.c ****   buf = state->rx_app;
 2257              		.loc 1 308 3
 309:C:/Users/stapi/OneDrive/Desktop/GD32VW553/GD32VW55X_Wifi_BLE_SDK/GD32VW55x_RELEASE_V1.0.2/MSDK/lwip/lwip-2.1.2/src/apps/altcp_tls\altcp_tls_mbedtls.c ****   if (buf) {
 2258              		.loc 1 309 3
 309:C:/Users/stapi/OneDrive/Desktop/GD32VW553/GD32VW55X_Wifi_BLE_SDK/GD32VW55x_RELEASE_V1.0.2/MSDK/lwip/lwip-2.1.2/src/apps/altcp_tls\altcp_tls_mbedtls.c ****   if (buf) {
 2259              		.loc 1 309 7 is_stmt 0
 2260 01ba 83294415 		lw	s3,340(s0)
 2261              	.LVL255:
 310:C:/Users/stapi/OneDrive/Desktop/GD32VW553/GD32VW55X_Wifi_BLE_SDK/GD32VW55x_RELEASE_V1.0.2/MSDK/lwip/lwip-2.1.2/src/apps/altcp_tls\altcp_tls_mbedtls.c ****     state->rx_app = NULL;
 2262              		.loc 1 310 3 is_stmt 1
 310:C:/Users/stapi/OneDrive/Desktop/GD32VW553/GD32VW55X_Wifi_BLE_SDK/GD32VW55x_RELEASE_V1.0.2/MSDK/lwip/lwip-2.1.2/src/apps/altcp_tls\altcp_tls_mbedtls.c ****     state->rx_app = NULL;
 2263              		.loc 1 310 6 is_stmt 0
 2264 01be 6383090C 		beq	s3,zero,.L261
 311:C:/Users/stapi/OneDrive/Desktop/GD32VW553/GD32VW55X_Wifi_BLE_SDK/GD32VW55x_RELEASE_V1.0.2/MSDK/lwip/lwip-2.1.2/src/apps/altcp_tls\altcp_tls_mbedtls.c ****     if (conn->recv) {
 2265              		.loc 1 311 5 is_stmt 1
 312:C:/Users/stapi/OneDrive/Desktop/GD32VW553/GD32VW55X_Wifi_BLE_SDK/GD32VW55x_RELEASE_V1.0.2/MSDK/lwip/lwip-2.1.2/src/apps/altcp_tls\altcp_tls_mbedtls.c ****       u16_t tot_len = buf->tot_len;
 2266              		.loc 1 312 13 is_stmt 0
 2267 01c2 83278901 		lw	a5,24(s2)
 311:C:/Users/stapi/OneDrive/Desktop/GD32VW553/GD32VW55X_Wifi_BLE_SDK/GD32VW55x_RELEASE_V1.0.2/MSDK/lwip/lwip-2.1.2/src/apps/altcp_tls\altcp_tls_mbedtls.c ****     if (conn->recv) {
 2268              		.loc 1 311 19
 2269 01c6 232A0414 		sw	zero,340(s0)
 312:C:/Users/stapi/OneDrive/Desktop/GD32VW553/GD32VW55X_Wifi_BLE_SDK/GD32VW55x_RELEASE_V1.0.2/MSDK/lwip/lwip-2.1.2/src/apps/altcp_tls\altcp_tls_mbedtls.c ****       u16_t tot_len = buf->tot_len;
 2270              		.loc 1 312 5 is_stmt 1
 312:C:/Users/stapi/OneDrive/Desktop/GD32VW553/GD32VW55X_Wifi_BLE_SDK/GD32VW55x_RELEASE_V1.0.2/MSDK/lwip/lwip-2.1.2/src/apps/altcp_tls\altcp_tls_mbedtls.c ****       u16_t tot_len = buf->tot_len;
 2271              		.loc 1 312 8 is_stmt 0
 2272 01ca CDC3     		beq	a5,zero,.L262
 2273              	.LBB68:
 313:C:/Users/stapi/OneDrive/Desktop/GD32VW553/GD32VW55X_Wifi_BLE_SDK/GD32VW55x_RELEASE_V1.0.2/MSDK/lwip/lwip-2.1.2/src/apps/altcp_tls\altcp_tls_mbedtls.c ****       /* this needs to be increased first because the 'recved' call may come nested */
 2274              		.loc 1 313 7 is_stmt 1
 2275              	.LVL256:
 315:C:/Users/stapi/OneDrive/Desktop/GD32VW553/GD32VW55X_Wifi_BLE_SDK/GD32VW55x_RELEASE_V1.0.2/MSDK/lwip/lwip-2.1.2/src/apps/altcp_tls\altcp_tls_mbedtls.c ****       state->flags |= ALTCP_MBEDTLS_FLAGS_UPPER_CALLED;
 2276              		.loc 1 315 7
 315:C:/Users/stapi/OneDrive/Desktop/GD32VW553/GD32VW55X_Wifi_BLE_SDK/GD32VW55x_RELEASE_V1.0.2/MSDK/lwip/lwip-2.1.2/src/apps/altcp_tls\altcp_tls_mbedtls.c ****       state->flags |= ALTCP_MBEDTLS_FLAGS_UPPER_CALLED;
 2277              		.loc 1 315 33 is_stmt 0
 2278 01cc 03DA8900 		lhu	s4,8(s3)
 2279 01d0 0327C415 		lw	a4,348(s0)
 317:C:/Users/stapi/OneDrive/Desktop/GD32VW553/GD32VW55X_Wifi_BLE_SDK/GD32VW55x_RELEASE_V1.0.2/MSDK/lwip/lwip-2.1.2/src/apps/altcp_tls\altcp_tls_mbedtls.c ****       if (err != ERR_OK) {
 2280              		.loc 1 317 13
 2281 01d4 8146     		li	a3,0
 2282 01d6 4E86     		mv	a2,s3
 315:C:/Users/stapi/OneDrive/Desktop/GD32VW553/GD32VW55X_Wifi_BLE_SDK/GD32VW55x_RELEASE_V1.0.2/MSDK/lwip/lwip-2.1.2/src/apps/altcp_tls\altcp_tls_mbedtls.c ****       state->flags |= ALTCP_MBEDTLS_FLAGS_UPPER_CALLED;
 2283              		.loc 1 315 33
 2284 01d8 5297     		add	a4,a4,s4
 2285 01da 232EE414 		sw	a4,348(s0)
 316:C:/Users/stapi/OneDrive/Desktop/GD32VW553/GD32VW55X_Wifi_BLE_SDK/GD32VW55x_RELEASE_V1.0.2/MSDK/lwip/lwip-2.1.2/src/apps/altcp_tls\altcp_tls_mbedtls.c ****       err = conn->recv(conn->arg, conn, buf, ERR_OK);
 2286              		.loc 1 316 7 is_stmt 1
 316:C:/Users/stapi/OneDrive/Desktop/GD32VW553/GD32VW55X_Wifi_BLE_SDK/GD32VW55x_RELEASE_V1.0.2/MSDK/lwip/lwip-2.1.2/src/apps/altcp_tls\altcp_tls_mbedtls.c ****       err = conn->recv(conn->arg, conn, buf, ERR_OK);
 2287              		.loc 1 316 20 is_stmt 0
 2288 01de 03478415 		lbu	a4,344(s0)
 317:C:/Users/stapi/OneDrive/Desktop/GD32VW553/GD32VW55X_Wifi_BLE_SDK/GD32VW55x_RELEASE_V1.0.2/MSDK/lwip/lwip-2.1.2/src/apps/altcp_tls\altcp_tls_mbedtls.c ****       if (err != ERR_OK) {
 2289              		.loc 1 317 13
 2290 01e2 CA85     		mv	a1,s2
 316:C:/Users/stapi/OneDrive/Desktop/GD32VW553/GD32VW55X_Wifi_BLE_SDK/GD32VW55x_RELEASE_V1.0.2/MSDK/lwip/lwip-2.1.2/src/apps/altcp_tls\altcp_tls_mbedtls.c ****       err = conn->recv(conn->arg, conn, buf, ERR_OK);
 2291              		.loc 1 316 20
 2292 01e4 13672700 		ori	a4,a4,2
 2293 01e8 230CE414 		sb	a4,344(s0)
 2294              	.LVL257:
 317:C:/Users/stapi/OneDrive/Desktop/GD32VW553/GD32VW55X_Wifi_BLE_SDK/GD32VW55x_RELEASE_V1.0.2/MSDK/lwip/lwip-2.1.2/src/apps/altcp_tls\altcp_tls_mbedtls.c ****       if (err != ERR_OK) {
 2295              		.loc 1 317 7 is_stmt 1
 317:C:/Users/stapi/OneDrive/Desktop/GD32VW553/GD32VW55X_Wifi_BLE_SDK/GD32VW55x_RELEASE_V1.0.2/MSDK/lwip/lwip-2.1.2/src/apps/altcp_tls\altcp_tls_mbedtls.c ****       if (err != ERR_OK) {
 2296              		.loc 1 317 13 is_stmt 0
 2297 01ec 03258900 		lw	a0,8(s2)
 2298 01f0 8297     		jalr	a5
 2299              	.LVL258:
 318:C:/Users/stapi/OneDrive/Desktop/GD32VW553/GD32VW55X_Wifi_BLE_SDK/GD32VW55x_RELEASE_V1.0.2/MSDK/lwip/lwip-2.1.2/src/apps/altcp_tls\altcp_tls_mbedtls.c ****         if (err == ERR_ABRT) {
 2300              		.loc 1 318 7 is_stmt 1
 318:C:/Users/stapi/OneDrive/Desktop/GD32VW553/GD32VW55X_Wifi_BLE_SDK/GD32VW55x_RELEASE_V1.0.2/MSDK/lwip/lwip-2.1.2/src/apps/altcp_tls\altcp_tls_mbedtls.c ****         if (err == ERR_ABRT) {
 2301              		.loc 1 318 10 is_stmt 0
 2302 01f2 51C1     		beq	a0,zero,.L268
 319:C:/Users/stapi/OneDrive/Desktop/GD32VW553/GD32VW55X_Wifi_BLE_SDK/GD32VW55x_RELEASE_V1.0.2/MSDK/lwip/lwip-2.1.2/src/apps/altcp_tls\altcp_tls_mbedtls.c ****           return ERR_ABRT;
 2303              		.loc 1 319 9 is_stmt 1
 319:C:/Users/stapi/OneDrive/Desktop/GD32VW553/GD32VW55X_Wifi_BLE_SDK/GD32VW55x_RELEASE_V1.0.2/MSDK/lwip/lwip-2.1.2/src/apps/altcp_tls\altcp_tls_mbedtls.c ****           return ERR_ABRT;
 2304              		.loc 1 319 12 is_stmt 0
 2305 01f4 CD57     		li	a5,-13
 2306 01f6 6317F500 		bne	a0,a5,.L264
 2307              	.LVL259:
 2308              	.L271:
 2309              	.LBE68:
 2310              	.LBE71:
 2311              	.LBE76:
 431:C:/Users/stapi/OneDrive/Desktop/GD32VW553/GD32VW55X_Wifi_BLE_SDK/GD32VW55x_RELEASE_V1.0.2/MSDK/lwip/lwip-2.1.2/src/apps/altcp_tls\altcp_tls_mbedtls.c ****         }
 2312              		.loc 1 431 18
 2313 01fa 4D55     		li	a0,-13
 2314              	.LVL260:
 2315              	.L243:
 2316              	.LBE80:
 2317              	.LBE83:
 2318              	.LBE52:
 2319              	.LBE51:
 439:C:/Users/stapi/OneDrive/Desktop/GD32VW553/GD32VW55X_Wifi_BLE_SDK/GD32VW55x_RELEASE_V1.0.2/MSDK/lwip/lwip-2.1.2/src/apps/altcp_tls\altcp_tls_mbedtls.c **** 
 2320              		.loc 1 439 1
 2321 01fc 17030000 		tail	__riscv_restore_11
 2321      67000300 
 2322              		.cfi_remember_state
 2323              		.cfi_restore 26
 2324              		.cfi_restore 25
 2325              		.cfi_restore 24
 2326              		.cfi_restore 23
 2327              		.cfi_restore 22
 2328              		.cfi_restore 21
 2329              		.cfi_restore 20
 2330              		.cfi_restore 19
 2331              		.cfi_restore 18
 2332              		.cfi_restore 9
 2333              		.cfi_restore 8
 2334              		.cfi_restore 1
 2335              		.cfi_def_cfa_offset 0
 2336              	.LVL261:
 2337              	.L264:
 2338              		.cfi_restore_state
 2339              	.LBB87:
 2340              	.LBB86:
 2341              	.LBB84:
 2342              	.LBB81:
 2343              	.LBB77:
 2344              	.LBB72:
 2345              	.LBB69:
 323:C:/Users/stapi/OneDrive/Desktop/GD32VW553/GD32VW55X_Wifi_BLE_SDK/GD32VW55x_RELEASE_V1.0.2/MSDK/lwip/lwip-2.1.2/src/apps/altcp_tls\altcp_tls_mbedtls.c ****         state->rx_app = buf;
 2346              		.loc 1 323 9 is_stmt 1
 323:C:/Users/stapi/OneDrive/Desktop/GD32VW553/GD32VW55X_Wifi_BLE_SDK/GD32VW55x_RELEASE_V1.0.2/MSDK/lwip/lwip-2.1.2/src/apps/altcp_tls\altcp_tls_mbedtls.c ****         state->rx_app = buf;
 2347              		.loc 1 323 9
 2348 0204 8327C900 		lw	a5,12(s2)
 2349 0208 6305F402 		beq	s0,a5,.L265
 323:C:/Users/stapi/OneDrive/Desktop/GD32VW553/GD32VW55X_Wifi_BLE_SDK/GD32VW55x_RELEASE_V1.0.2/MSDK/lwip/lwip-2.1.2/src/apps/altcp_tls\altcp_tls_mbedtls.c ****         state->rx_app = buf;
 2350              		.loc 1 323 9
 323:C:/Users/stapi/OneDrive/Desktop/GD32VW553/GD32VW55X_Wifi_BLE_SDK/GD32VW55x_RELEASE_V1.0.2/MSDK/lwip/lwip-2.1.2/src/apps/altcp_tls\altcp_tls_mbedtls.c ****         state->rx_app = buf;
 2351              		.loc 1 323 9
 2352 020c B7060000 		lui	a3,%hi(.LC0)
 2353 0210 B7050000 		lui	a1,%hi(.LC14)
 2354 0214 37050000 		lui	a0,%hi(.LC2)
 2355              	.LVL262:
 2356 0218 93860600 		addi	a3,a3,%lo(.LC0)
 2357 021c 13063014 		li	a2,323
 2358 0220 93850500 		addi	a1,a1,%lo(.LC14)
 2359 0224 13050500 		addi	a0,a0,%lo(.LC2)
 2360 0228 97000000 		call	printf
 2360      E7800000 
 2361              	.LVL263:
 2362              	.L266:
 323:C:/Users/stapi/OneDrive/Desktop/GD32VW553/GD32VW55X_Wifi_BLE_SDK/GD32VW55x_RELEASE_V1.0.2/MSDK/lwip/lwip-2.1.2/src/apps/altcp_tls\altcp_tls_mbedtls.c ****         state->rx_app = buf;
 2363              		.loc 1 323 9
 323:C:/Users/stapi/OneDrive/Desktop/GD32VW553/GD32VW55X_Wifi_BLE_SDK/GD32VW55x_RELEASE_V1.0.2/MSDK/lwip/lwip-2.1.2/src/apps/altcp_tls\altcp_tls_mbedtls.c ****         state->rx_app = buf;
 2364              		.loc 1 323 9
 323:C:/Users/stapi/OneDrive/Desktop/GD32VW553/GD32VW55X_Wifi_BLE_SDK/GD32VW55x_RELEASE_V1.0.2/MSDK/lwip/lwip-2.1.2/src/apps/altcp_tls\altcp_tls_mbedtls.c ****         state->rx_app = buf;
 2365              		.loc 1 323 9
 2366 0230 01A0     		j	.L266
 2367              	.LVL264:
 2368              	.L265:
 323:C:/Users/stapi/OneDrive/Desktop/GD32VW553/GD32VW55X_Wifi_BLE_SDK/GD32VW55x_RELEASE_V1.0.2/MSDK/lwip/lwip-2.1.2/src/apps/altcp_tls\altcp_tls_mbedtls.c ****         state->rx_app = buf;
 2369              		.loc 1 323 9
 323:C:/Users/stapi/OneDrive/Desktop/GD32VW553/GD32VW55X_Wifi_BLE_SDK/GD32VW55x_RELEASE_V1.0.2/MSDK/lwip/lwip-2.1.2/src/apps/altcp_tls\altcp_tls_mbedtls.c ****         state->rx_app = buf;
 2370              		.loc 1 323 9
 324:C:/Users/stapi/OneDrive/Desktop/GD32VW553/GD32VW55X_Wifi_BLE_SDK/GD32VW55x_RELEASE_V1.0.2/MSDK/lwip/lwip-2.1.2/src/apps/altcp_tls\altcp_tls_mbedtls.c ****         state->rx_passed_unrecved -= tot_len;
 2371              		.loc 1 324 9
 325:C:/Users/stapi/OneDrive/Desktop/GD32VW553/GD32VW55X_Wifi_BLE_SDK/GD32VW55x_RELEASE_V1.0.2/MSDK/lwip/lwip-2.1.2/src/apps/altcp_tls\altcp_tls_mbedtls.c ****         LWIP_ASSERT("state->rx_passed_unrecved >= 0", state->rx_passed_unrecved >= 0);
 2372              		.loc 1 325 35 is_stmt 0
 2373 0232 8327C415 		lw	a5,348(s0)
 324:C:/Users/stapi/OneDrive/Desktop/GD32VW553/GD32VW55X_Wifi_BLE_SDK/GD32VW55x_RELEASE_V1.0.2/MSDK/lwip/lwip-2.1.2/src/apps/altcp_tls\altcp_tls_mbedtls.c ****         state->rx_passed_unrecved -= tot_len;
 2374              		.loc 1 324 23
 2375 0236 232A3415 		sw	s3,340(s0)
 325:C:/Users/stapi/OneDrive/Desktop/GD32VW553/GD32VW55X_Wifi_BLE_SDK/GD32VW55x_RELEASE_V1.0.2/MSDK/lwip/lwip-2.1.2/src/apps/altcp_tls\altcp_tls_mbedtls.c ****         LWIP_ASSERT("state->rx_passed_unrecved >= 0", state->rx_passed_unrecved >= 0);
 2376              		.loc 1 325 9 is_stmt 1
 325:C:/Users/stapi/OneDrive/Desktop/GD32VW553/GD32VW55X_Wifi_BLE_SDK/GD32VW55x_RELEASE_V1.0.2/MSDK/lwip/lwip-2.1.2/src/apps/altcp_tls\altcp_tls_mbedtls.c ****         LWIP_ASSERT("state->rx_passed_unrecved >= 0", state->rx_passed_unrecved >= 0);
 2377              		.loc 1 325 35 is_stmt 0
 2378 023a B3874741 		sub	a5,a5,s4
 2379 023e 232EF414 		sw	a5,348(s0)
 326:C:/Users/stapi/OneDrive/Desktop/GD32VW553/GD32VW55X_Wifi_BLE_SDK/GD32VW55x_RELEASE_V1.0.2/MSDK/lwip/lwip-2.1.2/src/apps/altcp_tls\altcp_tls_mbedtls.c ****         if (state->rx_passed_unrecved < 0) {
 2380              		.loc 1 326 9 is_stmt 1
 326:C:/Users/stapi/OneDrive/Desktop/GD32VW553/GD32VW55X_Wifi_BLE_SDK/GD32VW55x_RELEASE_V1.0.2/MSDK/lwip/lwip-2.1.2/src/apps/altcp_tls\altcp_tls_mbedtls.c ****         if (state->rx_passed_unrecved < 0) {
 2381              		.loc 1 326 9
 2382 0242 E3DA07E6 		bge	a5,zero,.L244
 326:C:/Users/stapi/OneDrive/Desktop/GD32VW553/GD32VW55X_Wifi_BLE_SDK/GD32VW55x_RELEASE_V1.0.2/MSDK/lwip/lwip-2.1.2/src/apps/altcp_tls\altcp_tls_mbedtls.c ****         if (state->rx_passed_unrecved < 0) {
 2383              		.loc 1 326 9
 326:C:/Users/stapi/OneDrive/Desktop/GD32VW553/GD32VW55X_Wifi_BLE_SDK/GD32VW55x_RELEASE_V1.0.2/MSDK/lwip/lwip-2.1.2/src/apps/altcp_tls\altcp_tls_mbedtls.c ****         if (state->rx_passed_unrecved < 0) {
 2384              		.loc 1 326 9
 2385 0246 B7060000 		lui	a3,%hi(.LC0)
 2386 024a B7050000 		lui	a1,%hi(.LC15)
 2387 024e 37050000 		lui	a0,%hi(.LC2)
 2388              	.LVL265:
 2389 0252 93860600 		addi	a3,a3,%lo(.LC0)
 2390 0256 13066014 		li	a2,326
 2391 025a 93850500 		addi	a1,a1,%lo(.LC15)
 2392 025e 13050500 		addi	a0,a0,%lo(.LC2)
 2393 0262 97000000 		call	printf
 2393      E7800000 
 2394              	.LVL266:
 2395              	.L267:
 326:C:/Users/stapi/OneDrive/Desktop/GD32VW553/GD32VW55X_Wifi_BLE_SDK/GD32VW55x_RELEASE_V1.0.2/MSDK/lwip/lwip-2.1.2/src/apps/altcp_tls\altcp_tls_mbedtls.c ****         if (state->rx_passed_unrecved < 0) {
 2396              		.loc 1 326 9
 326:C:/Users/stapi/OneDrive/Desktop/GD32VW553/GD32VW55X_Wifi_BLE_SDK/GD32VW55x_RELEASE_V1.0.2/MSDK/lwip/lwip-2.1.2/src/apps/altcp_tls\altcp_tls_mbedtls.c ****         if (state->rx_passed_unrecved < 0) {
 2397              		.loc 1 326 9
 326:C:/Users/stapi/OneDrive/Desktop/GD32VW553/GD32VW55X_Wifi_BLE_SDK/GD32VW55x_RELEASE_V1.0.2/MSDK/lwip/lwip-2.1.2/src/apps/altcp_tls\altcp_tls_mbedtls.c ****         if (state->rx_passed_unrecved < 0) {
 2398              		.loc 1 326 9
 2399 026a 01A0     		j	.L267
 2400              	.LVL267:
 2401              	.L262:
 2402              	.LBE69:
 333:C:/Users/stapi/OneDrive/Desktop/GD32VW553/GD32VW55X_Wifi_BLE_SDK/GD32VW55x_RELEASE_V1.0.2/MSDK/lwip/lwip-2.1.2/src/apps/altcp_tls\altcp_tls_mbedtls.c ****     }
 2403              		.loc 1 333 7
 2404 026c 4E85     		mv	a0,s3
 2405 026e 97000000 		call	pbuf_free
 2405      E7800000 
 2406              	.LVL268:
 2407              	.L268:
 344:C:/Users/stapi/OneDrive/Desktop/GD32VW553/GD32VW55X_Wifi_BLE_SDK/GD32VW55x_RELEASE_V1.0.2/MSDK/lwip/lwip-2.1.2/src/apps/altcp_tls\altcp_tls_mbedtls.c ****     /* return error code to ensure altcp_mbedtls_handle_rx_appldata() exits the loop */
 2408              		.loc 1 344 3
 344:C:/Users/stapi/OneDrive/Desktop/GD32VW553/GD32VW55X_Wifi_BLE_SDK/GD32VW55x_RELEASE_V1.0.2/MSDK/lwip/lwip-2.1.2/src/apps/altcp_tls\altcp_tls_mbedtls.c ****     /* return error code to ensure altcp_mbedtls_handle_rx_appldata() exits the loop */
 2409              		.loc 1 344 6 is_stmt 0
 2410 0276 8327C900 		lw	a5,12(s2)
 2411 027a E31EF4E2 		bne	s0,a5,.L244
 2412              	.LVL269:
 2413              	.L270:
 2414              	.LBE72:
 2415              	.LBE77:
 2416              	.LBE81:
 2417              	.LBE84:
 437:C:/Users/stapi/OneDrive/Desktop/GD32VW553/GD32VW55X_Wifi_BLE_SDK/GD32VW55x_RELEASE_V1.0.2/MSDK/lwip/lwip-2.1.2/src/apps/altcp_tls\altcp_tls_mbedtls.c ****   return ERR_OK;
 2418              		.loc 1 437 11 is_stmt 1
 437:C:/Users/stapi/OneDrive/Desktop/GD32VW553/GD32VW55X_Wifi_BLE_SDK/GD32VW55x_RELEASE_V1.0.2/MSDK/lwip/lwip-2.1.2/src/apps/altcp_tls\altcp_tls_mbedtls.c ****   return ERR_OK;
 2419              		.loc 1 437 3 is_stmt 0
 2420 027e E39704DC 		bne	s1,zero,.L272
 2421 0282 15BD     		j	.L244
 2422              	.LVL270:
 2423              	.L261:
 2424              	.LBB85:
 2425              	.LBB82:
 2426              	.LBB78:
 2427              	.LBB73:
 335:C:/Users/stapi/OneDrive/Desktop/GD32VW553/GD32VW55X_Wifi_BLE_SDK/GD32VW55x_RELEASE_V1.0.2/MSDK/lwip/lwip-2.1.2/src/apps/altcp_tls\altcp_tls_mbedtls.c ****              ALTCP_MBEDTLS_FLAGS_RX_CLOSE_QUEUED) {
 2428              		.loc 1 335 10 is_stmt 1
 335:C:/Users/stapi/OneDrive/Desktop/GD32VW553/GD32VW55X_Wifi_BLE_SDK/GD32VW55x_RELEASE_V1.0.2/MSDK/lwip/lwip-2.1.2/src/apps/altcp_tls\altcp_tls_mbedtls.c ****              ALTCP_MBEDTLS_FLAGS_RX_CLOSE_QUEUED) {
 2429              		.loc 1 335 20 is_stmt 0
 2430 0284 83478415 		lbu	a5,344(s0)
 335:C:/Users/stapi/OneDrive/Desktop/GD32VW553/GD32VW55X_Wifi_BLE_SDK/GD32VW55x_RELEASE_V1.0.2/MSDK/lwip/lwip-2.1.2/src/apps/altcp_tls\altcp_tls_mbedtls.c ****              ALTCP_MBEDTLS_FLAGS_RX_CLOSE_QUEUED) {
 2431              		.loc 1 335 13
 2432 0288 13F7C700 		andi	a4,a5,12
 2433 028c E31587FF 		bne	a4,s8,.L268
 337:C:/Users/stapi/OneDrive/Desktop/GD32VW553/GD32VW55X_Wifi_BLE_SDK/GD32VW55x_RELEASE_V1.0.2/MSDK/lwip/lwip-2.1.2/src/apps/altcp_tls\altcp_tls_mbedtls.c ****     if (conn->recv) {
 2434              		.loc 1 337 5 is_stmt 1
 337:C:/Users/stapi/OneDrive/Desktop/GD32VW553/GD32VW55X_Wifi_BLE_SDK/GD32VW55x_RELEASE_V1.0.2/MSDK/lwip/lwip-2.1.2/src/apps/altcp_tls\altcp_tls_mbedtls.c ****     if (conn->recv) {
 2435              		.loc 1 337 18 is_stmt 0
 2436 0290 93E78700 		ori	a5,a5,8
 2437 0294 230CF414 		sb	a5,344(s0)
 338:C:/Users/stapi/OneDrive/Desktop/GD32VW553/GD32VW55X_Wifi_BLE_SDK/GD32VW55x_RELEASE_V1.0.2/MSDK/lwip/lwip-2.1.2/src/apps/altcp_tls\altcp_tls_mbedtls.c ****       return conn->recv(conn->arg, conn, NULL, ERR_OK);
 2438              		.loc 1 338 5 is_stmt 1
 338:C:/Users/stapi/OneDrive/Desktop/GD32VW553/GD32VW55X_Wifi_BLE_SDK/GD32VW55x_RELEASE_V1.0.2/MSDK/lwip/lwip-2.1.2/src/apps/altcp_tls\altcp_tls_mbedtls.c ****       return conn->recv(conn->arg, conn, NULL, ERR_OK);
 2439              		.loc 1 338 13 is_stmt 0
 2440 0298 83278901 		lw	a5,24(s2)
 338:C:/Users/stapi/OneDrive/Desktop/GD32VW553/GD32VW55X_Wifi_BLE_SDK/GD32VW55x_RELEASE_V1.0.2/MSDK/lwip/lwip-2.1.2/src/apps/altcp_tls\altcp_tls_mbedtls.c ****       return conn->recv(conn->arg, conn, NULL, ERR_OK);
 2441              		.loc 1 338 8
 2442 029c E9DF     		beq	a5,zero,.L268
 339:C:/Users/stapi/OneDrive/Desktop/GD32VW553/GD32VW55X_Wifi_BLE_SDK/GD32VW55x_RELEASE_V1.0.2/MSDK/lwip/lwip-2.1.2/src/apps/altcp_tls\altcp_tls_mbedtls.c ****     }
 2443              		.loc 1 339 7 is_stmt 1
 339:C:/Users/stapi/OneDrive/Desktop/GD32VW553/GD32VW55X_Wifi_BLE_SDK/GD32VW55x_RELEASE_V1.0.2/MSDK/lwip/lwip-2.1.2/src/apps/altcp_tls\altcp_tls_mbedtls.c ****     }
 2444              		.loc 1 339 14 is_stmt 0
 2445 029e 03258900 		lw	a0,8(s2)
 2446 02a2 8146     		li	a3,0
 2447 02a4 0146     		li	a2,0
 2448 02a6 CA85     		mv	a1,s2
 2449 02a8 8297     		jalr	a5
 2450              	.LVL271:
 2451              	.LBE73:
 2452              	.LBE78:
 428:C:/Users/stapi/OneDrive/Desktop/GD32VW553/GD32VW55X_Wifi_BLE_SDK/GD32VW55x_RELEASE_V1.0.2/MSDK/lwip/lwip-2.1.2/src/apps/altcp_tls\altcp_tls_mbedtls.c ****         if (err == ERR_ABRT) {
 2453              		.loc 1 428 7 is_stmt 1
 428:C:/Users/stapi/OneDrive/Desktop/GD32VW553/GD32VW55X_Wifi_BLE_SDK/GD32VW55x_RELEASE_V1.0.2/MSDK/lwip/lwip-2.1.2/src/apps/altcp_tls\altcp_tls_mbedtls.c ****         if (err == ERR_ABRT) {
 2454              		.loc 1 428 10 is_stmt 0
 2455 02aa 71D9     		beq	a0,zero,.L270
 429:C:/Users/stapi/OneDrive/Desktop/GD32VW553/GD32VW55X_Wifi_BLE_SDK/GD32VW55x_RELEASE_V1.0.2/MSDK/lwip/lwip-2.1.2/src/apps/altcp_tls\altcp_tls_mbedtls.c ****           /* recv callback needs to return this as the pcb is deallocated */
 2456              		.loc 1 429 9 is_stmt 1
 429:C:/Users/stapi/OneDrive/Desktop/GD32VW553/GD32VW55X_Wifi_BLE_SDK/GD32VW55x_RELEASE_V1.0.2/MSDK/lwip/lwip-2.1.2/src/apps/altcp_tls\altcp_tls_mbedtls.c ****           /* recv callback needs to return this as the pcb is deallocated */
 2457              		.loc 1 429 12 is_stmt 0
 2458 02ac CD57     		li	a5,-13
 2459 02ae E314F5E0 		bne	a0,a5,.L244
 2460 02b2 A1B7     		j	.L271
 2461              	.LVL272:
 2462              	.L273:
 2463              	.LBE82:
 2464              	.LBE85:
 2465              	.LBE86:
 2466              	.LBE87:
 359:C:/Users/stapi/OneDrive/Desktop/GD32VW553/GD32VW55X_Wifi_BLE_SDK/GD32VW55x_RELEASE_V1.0.2/MSDK/lwip/lwip-2.1.2/src/apps/altcp_tls\altcp_tls_mbedtls.c ****   }
 2467              		.loc 1 359 12
 2468 02b4 6955     		li	a0,-6
 2469              	.LVL273:
 2470 02b6 99B7     		j	.L243
 2471              		.cfi_endproc
 2472              	.LFE395:
 2474              		.section	.text.altcp_mbedtls_lower_poll,"ax",@progbits
 2475              		.align	1
 2477              	altcp_mbedtls_lower_poll:
 2478              	.LFB398:
 527:C:/Users/stapi/OneDrive/Desktop/GD32VW553/GD32VW55X_Wifi_BLE_SDK/GD32VW55x_RELEASE_V1.0.2/MSDK/lwip/lwip-2.1.2/src/apps/altcp_tls\altcp_tls_mbedtls.c ****   struct altcp_pcb *conn = (struct altcp_pcb *)arg;
 2479              		.loc 1 527 1 is_stmt 1
 2480              		.cfi_startproc
 2481              	.LVL274:
 528:C:/Users/stapi/OneDrive/Desktop/GD32VW553/GD32VW55X_Wifi_BLE_SDK/GD32VW55x_RELEASE_V1.0.2/MSDK/lwip/lwip-2.1.2/src/apps/altcp_tls\altcp_tls_mbedtls.c ****   LWIP_UNUSED_ARG(inner_conn); /* for LWIP_NOASSERT */
 2482              		.loc 1 528 3
 529:C:/Users/stapi/OneDrive/Desktop/GD32VW553/GD32VW55X_Wifi_BLE_SDK/GD32VW55x_RELEASE_V1.0.2/MSDK/lwip/lwip-2.1.2/src/apps/altcp_tls\altcp_tls_mbedtls.c ****   if (conn) {
 2483              		.loc 1 529 3
 530:C:/Users/stapi/OneDrive/Desktop/GD32VW553/GD32VW55X_Wifi_BLE_SDK/GD32VW55x_RELEASE_V1.0.2/MSDK/lwip/lwip-2.1.2/src/apps/altcp_tls\altcp_tls_mbedtls.c ****     LWIP_ASSERT("pcb mismatch", conn->inner_conn == inner_conn);
 2484              		.loc 1 530 3
 530:C:/Users/stapi/OneDrive/Desktop/GD32VW553/GD32VW55X_Wifi_BLE_SDK/GD32VW55x_RELEASE_V1.0.2/MSDK/lwip/lwip-2.1.2/src/apps/altcp_tls\altcp_tls_mbedtls.c ****     LWIP_ASSERT("pcb mismatch", conn->inner_conn == inner_conn);
 2485              		.loc 1 530 6 is_stmt 0
 2486 0000 19E1     		bne	a0,zero,.L288
 545:C:/Users/stapi/OneDrive/Desktop/GD32VW553/GD32VW55X_Wifi_BLE_SDK/GD32VW55x_RELEASE_V1.0.2/MSDK/lwip/lwip-2.1.2/src/apps/altcp_tls\altcp_tls_mbedtls.c **** }
 2487              		.loc 1 545 10
 2488 0002 0145     		li	a0,0
 2489              	.LVL275:
 546:C:/Users/stapi/OneDrive/Desktop/GD32VW553/GD32VW55X_Wifi_BLE_SDK/GD32VW55x_RELEASE_V1.0.2/MSDK/lwip/lwip-2.1.2/src/apps/altcp_tls\altcp_tls_mbedtls.c **** 
 2490              		.loc 1 546 1
 2491 0004 8280     		ret
 2492              	.LVL276:
 2493              	.L288:
 527:C:/Users/stapi/OneDrive/Desktop/GD32VW553/GD32VW55X_Wifi_BLE_SDK/GD32VW55x_RELEASE_V1.0.2/MSDK/lwip/lwip-2.1.2/src/apps/altcp_tls\altcp_tls_mbedtls.c ****   struct altcp_pcb *conn = (struct altcp_pcb *)arg;
 2494              		.loc 1 527 1
 2495 0006 17030000 		call	t0,__riscv_save_1
 2495      E7020300 
 2496              		.cfi_offset 8, -8
 2497              		.cfi_offset 1, -4
 2498              		.cfi_def_cfa_offset 16
 531:C:/Users/stapi/OneDrive/Desktop/GD32VW553/GD32VW55X_Wifi_BLE_SDK/GD32VW55x_RELEASE_V1.0.2/MSDK/lwip/lwip-2.1.2/src/apps/altcp_tls\altcp_tls_mbedtls.c ****     /* check if there's unreceived rx data */
 2499              		.loc 1 531 5
 2500 000e 5C41     		lw	a5,4(a0)
 527:C:/Users/stapi/OneDrive/Desktop/GD32VW553/GD32VW55X_Wifi_BLE_SDK/GD32VW55x_RELEASE_V1.0.2/MSDK/lwip/lwip-2.1.2/src/apps/altcp_tls\altcp_tls_mbedtls.c ****   struct altcp_pcb *conn = (struct altcp_pcb *)arg;
 2501              		.loc 1 527 1
 2502 0010 4111     		addi	sp,sp,-16
 2503              		.cfi_def_cfa_offset 32
 2504 0012 2A84     		mv	s0,a0
 531:C:/Users/stapi/OneDrive/Desktop/GD32VW553/GD32VW55X_Wifi_BLE_SDK/GD32VW55x_RELEASE_V1.0.2/MSDK/lwip/lwip-2.1.2/src/apps/altcp_tls\altcp_tls_mbedtls.c ****     /* check if there's unreceived rx data */
 2505              		.loc 1 531 5 is_stmt 1
 531:C:/Users/stapi/OneDrive/Desktop/GD32VW553/GD32VW55X_Wifi_BLE_SDK/GD32VW55x_RELEASE_V1.0.2/MSDK/lwip/lwip-2.1.2/src/apps/altcp_tls\altcp_tls_mbedtls.c ****     /* check if there's unreceived rx data */
 2506              		.loc 1 531 5
 2507 0014 6385B702 		beq	a5,a1,.L290
 2508              	.LVL277:
 531:C:/Users/stapi/OneDrive/Desktop/GD32VW553/GD32VW55X_Wifi_BLE_SDK/GD32VW55x_RELEASE_V1.0.2/MSDK/lwip/lwip-2.1.2/src/apps/altcp_tls\altcp_tls_mbedtls.c ****     /* check if there's unreceived rx data */
 2509              		.loc 1 531 5 discriminator 1
 531:C:/Users/stapi/OneDrive/Desktop/GD32VW553/GD32VW55X_Wifi_BLE_SDK/GD32VW55x_RELEASE_V1.0.2/MSDK/lwip/lwip-2.1.2/src/apps/altcp_tls\altcp_tls_mbedtls.c ****     /* check if there's unreceived rx data */
 2510              		.loc 1 531 5 discriminator 1
 2511 0018 B7060000 		lui	a3,%hi(.LC0)
 2512 001c B7050000 		lui	a1,%hi(.LC4)
 2513              	.LVL278:
 2514 0020 37050000 		lui	a0,%hi(.LC2)
 2515 0024 93860600 		addi	a3,a3,%lo(.LC0)
 2516 0028 13063021 		li	a2,531
 2517 002c 93850500 		addi	a1,a1,%lo(.LC4)
 2518 0030 13050500 		addi	a0,a0,%lo(.LC2)
 2519 0034 97000000 		call	printf
 2519      E7800000 
 2520              	.LVL279:
 2521              	.L291:
 531:C:/Users/stapi/OneDrive/Desktop/GD32VW553/GD32VW55X_Wifi_BLE_SDK/GD32VW55x_RELEASE_V1.0.2/MSDK/lwip/lwip-2.1.2/src/apps/altcp_tls\altcp_tls_mbedtls.c ****     /* check if there's unreceived rx data */
 2522              		.loc 1 531 5 discriminator 1
 531:C:/Users/stapi/OneDrive/Desktop/GD32VW553/GD32VW55X_Wifi_BLE_SDK/GD32VW55x_RELEASE_V1.0.2/MSDK/lwip/lwip-2.1.2/src/apps/altcp_tls\altcp_tls_mbedtls.c ****     /* check if there's unreceived rx data */
 2523              		.loc 1 531 5 discriminator 1
 531:C:/Users/stapi/OneDrive/Desktop/GD32VW553/GD32VW55X_Wifi_BLE_SDK/GD32VW55x_RELEASE_V1.0.2/MSDK/lwip/lwip-2.1.2/src/apps/altcp_tls\altcp_tls_mbedtls.c ****     /* check if there's unreceived rx data */
 2524              		.loc 1 531 5 discriminator 1
 2525 003c 01A0     		j	.L291
 2526              	.LVL280:
 2527              	.L290:
 2528              	.LBB91:
 2529              	.LBB92:
 531:C:/Users/stapi/OneDrive/Desktop/GD32VW553/GD32VW55X_Wifi_BLE_SDK/GD32VW55x_RELEASE_V1.0.2/MSDK/lwip/lwip-2.1.2/src/apps/altcp_tls\altcp_tls_mbedtls.c ****     /* check if there's unreceived rx data */
 2530              		.loc 1 531 5
 531:C:/Users/stapi/OneDrive/Desktop/GD32VW553/GD32VW55X_Wifi_BLE_SDK/GD32VW55x_RELEASE_V1.0.2/MSDK/lwip/lwip-2.1.2/src/apps/altcp_tls\altcp_tls_mbedtls.c ****     /* check if there's unreceived rx data */
 2531              		.loc 1 531 5
 533:C:/Users/stapi/OneDrive/Desktop/GD32VW553/GD32VW55X_Wifi_BLE_SDK/GD32VW55x_RELEASE_V1.0.2/MSDK/lwip/lwip-2.1.2/src/apps/altcp_tls\altcp_tls_mbedtls.c ****       altcp_mbedtls_state_t *state = (altcp_mbedtls_state_t *)conn->state;
 2532              		.loc 1 533 5
 533:C:/Users/stapi/OneDrive/Desktop/GD32VW553/GD32VW55X_Wifi_BLE_SDK/GD32VW55x_RELEASE_V1.0.2/MSDK/lwip/lwip-2.1.2/src/apps/altcp_tls\altcp_tls_mbedtls.c ****       altcp_mbedtls_state_t *state = (altcp_mbedtls_state_t *)conn->state;
 2533              		.loc 1 533 13 is_stmt 0
 2534 003e 4C45     		lw	a1,12(a0)
 2535              	.LVL281:
 533:C:/Users/stapi/OneDrive/Desktop/GD32VW553/GD32VW55X_Wifi_BLE_SDK/GD32VW55x_RELEASE_V1.0.2/MSDK/lwip/lwip-2.1.2/src/apps/altcp_tls\altcp_tls_mbedtls.c ****       altcp_mbedtls_state_t *state = (altcp_mbedtls_state_t *)conn->state;
 2536              		.loc 1 533 8
 2537 0040 89E9     		bne	a1,zero,.L292
 2538              	.L295:
 541:C:/Users/stapi/OneDrive/Desktop/GD32VW553/GD32VW55X_Wifi_BLE_SDK/GD32VW55x_RELEASE_V1.0.2/MSDK/lwip/lwip-2.1.2/src/apps/altcp_tls\altcp_tls_mbedtls.c ****       return conn->poll(conn->arg, conn);
 2539              		.loc 1 541 5 is_stmt 1
 541:C:/Users/stapi/OneDrive/Desktop/GD32VW553/GD32VW55X_Wifi_BLE_SDK/GD32VW55x_RELEASE_V1.0.2/MSDK/lwip/lwip-2.1.2/src/apps/altcp_tls\altcp_tls_mbedtls.c ****       return conn->poll(conn->arg, conn);
 2540              		.loc 1 541 13 is_stmt 0
 2541 0042 1C50     		lw	a5,32(s0)
 541:C:/Users/stapi/OneDrive/Desktop/GD32VW553/GD32VW55X_Wifi_BLE_SDK/GD32VW55x_RELEASE_V1.0.2/MSDK/lwip/lwip-2.1.2/src/apps/altcp_tls\altcp_tls_mbedtls.c ****       return conn->poll(conn->arg, conn);
 2542              		.loc 1 541 8
 2543 0044 85EB     		bne	a5,zero,.L293
 2544              	.LBE92:
 2545              	.LBE91:
 545:C:/Users/stapi/OneDrive/Desktop/GD32VW553/GD32VW55X_Wifi_BLE_SDK/GD32VW55x_RELEASE_V1.0.2/MSDK/lwip/lwip-2.1.2/src/apps/altcp_tls\altcp_tls_mbedtls.c **** }
 2546              		.loc 1 545 10
 2547 0046 0145     		li	a0,0
 2548              	.L289:
 2549              	.LVL282:
 546:C:/Users/stapi/OneDrive/Desktop/GD32VW553/GD32VW55X_Wifi_BLE_SDK/GD32VW55x_RELEASE_V1.0.2/MSDK/lwip/lwip-2.1.2/src/apps/altcp_tls\altcp_tls_mbedtls.c **** 
 2550              		.loc 1 546 1
 2551 0048 4101     		addi	sp,sp,16
 2552              		.cfi_remember_state
 2553              		.cfi_def_cfa_offset 0
 2554 004a 17030000 		tail	__riscv_restore_1
 2554      67000300 
 2555              		.cfi_restore 8
 2556              		.cfi_restore 1
 2557              		.cfi_def_cfa_offset -16
 2558              	.LVL283:
 2559              	.L292:
 2560              		.cfi_restore_state
 2561              	.LBB95:
 2562              	.LBB94:
 2563              	.LBB93:
 534:C:/Users/stapi/OneDrive/Desktop/GD32VW553/GD32VW55X_Wifi_BLE_SDK/GD32VW55x_RELEASE_V1.0.2/MSDK/lwip/lwip-2.1.2/src/apps/altcp_tls\altcp_tls_mbedtls.c ****       /* try to send more if we failed before */
 2564              		.loc 1 534 7 is_stmt 1
 536:C:/Users/stapi/OneDrive/Desktop/GD32VW553/GD32VW55X_Wifi_BLE_SDK/GD32VW55x_RELEASE_V1.0.2/MSDK/lwip/lwip-2.1.2/src/apps/altcp_tls\altcp_tls_mbedtls.c ****       if (altcp_mbedtls_handle_rx_appldata(conn, state) == ERR_ABRT) {
 2565              		.loc 1 536 7
 2566 0052 13858500 		addi	a0,a1,8
 2567 0056 2EC6     		sw	a1,12(sp)
 2568 0058 97000000 		call	mbedtls_ssl_flush_output
 2568      E7800000 
 2569              	.LVL284:
 537:C:/Users/stapi/OneDrive/Desktop/GD32VW553/GD32VW55X_Wifi_BLE_SDK/GD32VW55x_RELEASE_V1.0.2/MSDK/lwip/lwip-2.1.2/src/apps/altcp_tls\altcp_tls_mbedtls.c ****         return ERR_ABRT;
 2570              		.loc 1 537 7
 537:C:/Users/stapi/OneDrive/Desktop/GD32VW553/GD32VW55X_Wifi_BLE_SDK/GD32VW55x_RELEASE_V1.0.2/MSDK/lwip/lwip-2.1.2/src/apps/altcp_tls\altcp_tls_mbedtls.c ****         return ERR_ABRT;
 2571              		.loc 1 537 11 is_stmt 0
 2572 0060 B245     		lw	a1,12(sp)
 2573 0062 2285     		mv	a0,s0
 2574 0064 97000000 		call	altcp_mbedtls_handle_rx_appldata
 2574      E7800000 
 2575              	.LVL285:
 537:C:/Users/stapi/OneDrive/Desktop/GD32VW553/GD32VW55X_Wifi_BLE_SDK/GD32VW55x_RELEASE_V1.0.2/MSDK/lwip/lwip-2.1.2/src/apps/altcp_tls\altcp_tls_mbedtls.c ****         return ERR_ABRT;
 2576              		.loc 1 537 10
 2577 006c CD57     		li	a5,-13
 2578 006e E31AF5FC 		bne	a0,a5,.L295
 2579 0072 D9BF     		j	.L289
 2580              	.LVL286:
 2581              	.L293:
 2582              	.LBE93:
 542:C:/Users/stapi/OneDrive/Desktop/GD32VW553/GD32VW55X_Wifi_BLE_SDK/GD32VW55x_RELEASE_V1.0.2/MSDK/lwip/lwip-2.1.2/src/apps/altcp_tls\altcp_tls_mbedtls.c ****     }
 2583              		.loc 1 542 7 is_stmt 1
 542:C:/Users/stapi/OneDrive/Desktop/GD32VW553/GD32VW55X_Wifi_BLE_SDK/GD32VW55x_RELEASE_V1.0.2/MSDK/lwip/lwip-2.1.2/src/apps/altcp_tls\altcp_tls_mbedtls.c ****     }
 2584              		.loc 1 542 14 is_stmt 0
 2585 0074 0844     		lw	a0,8(s0)
 2586 0076 A285     		mv	a1,s0
 2587 0078 8297     		jalr	a5
 2588              	.LVL287:
 2589 007a F9B7     		j	.L289
 2590              	.LBE94:
 2591              	.LBE95:
 2592              		.cfi_endproc
 2593              	.LFE398:
 2595              		.section	.text.altcp_mbedtls_set_poll,"ax",@progbits
 2596              		.align	1
 2598              	altcp_mbedtls_set_poll:
 2599              	.LFB413:
 938:C:/Users/stapi/OneDrive/Desktop/GD32VW553/GD32VW55X_Wifi_BLE_SDK/GD32VW55x_RELEASE_V1.0.2/MSDK/lwip/lwip-2.1.2/src/apps/altcp_tls\altcp_tls_mbedtls.c ****   if (conn != NULL) {
 2600              		.loc 1 938 1 is_stmt 1
 2601              		.cfi_startproc
 2602              	.LVL288:
 939:C:/Users/stapi/OneDrive/Desktop/GD32VW553/GD32VW55X_Wifi_BLE_SDK/GD32VW55x_RELEASE_V1.0.2/MSDK/lwip/lwip-2.1.2/src/apps/altcp_tls\altcp_tls_mbedtls.c ****     altcp_poll(conn->inner_conn, altcp_mbedtls_lower_poll, interval);
 2603              		.loc 1 939 3
 939:C:/Users/stapi/OneDrive/Desktop/GD32VW553/GD32VW55X_Wifi_BLE_SDK/GD32VW55x_RELEASE_V1.0.2/MSDK/lwip/lwip-2.1.2/src/apps/altcp_tls\altcp_tls_mbedtls.c ****     altcp_poll(conn->inner_conn, altcp_mbedtls_lower_poll, interval);
 2604              		.loc 1 939 6 is_stmt 0
 2605 0000 19C9     		beq	a0,zero,.L305
 2606              	.LBB98:
 2607              	.LBB99:
 940:C:/Users/stapi/OneDrive/Desktop/GD32VW553/GD32VW55X_Wifi_BLE_SDK/GD32VW55x_RELEASE_V1.0.2/MSDK/lwip/lwip-2.1.2/src/apps/altcp_tls\altcp_tls_mbedtls.c ****   }
 2608              		.loc 1 940 5
 2609 0002 4841     		lw	a0,4(a0)
 2610              	.LVL289:
 2611 0004 2E86     		mv	a2,a1
 2612              	.LVL290:
 940:C:/Users/stapi/OneDrive/Desktop/GD32VW553/GD32VW55X_Wifi_BLE_SDK/GD32VW55x_RELEASE_V1.0.2/MSDK/lwip/lwip-2.1.2/src/apps/altcp_tls\altcp_tls_mbedtls.c ****   }
 2613              		.loc 1 940 5 is_stmt 1
 2614 0006 B7050000 		lui	a1,%hi(altcp_mbedtls_lower_poll)
 2615              	.LVL291:
 2616 000a 93850500 		addi	a1,a1,%lo(altcp_mbedtls_lower_poll)
 2617 000e 17030000 		tail	altcp_poll
 2617      67000300 
 2618              	.LVL292:
 2619              	.L305:
 2620 0016 8280     		ret
 2621              	.LBE99:
 2622              	.LBE98:
 2623              		.cfi_endproc
 2624              	.LFE413:
 2626              		.section	.text.altcp_mbedtls_mss,"ax",@progbits
 2627              		.align	1
 2629              	altcp_mbedtls_mss:
 2630              	.LFB422:
1164:C:/Users/stapi/OneDrive/Desktop/GD32VW553/GD32VW55X_Wifi_BLE_SDK/GD32VW55x_RELEASE_V1.0.2/MSDK/lwip/lwip-2.1.2/src/apps/altcp_tls\altcp_tls_mbedtls.c ****   if (conn == NULL) {
 2631              		.loc 1 1164 1
 2632              		.cfi_startproc
 2633              	.LVL293:
1165:C:/Users/stapi/OneDrive/Desktop/GD32VW553/GD32VW55X_Wifi_BLE_SDK/GD32VW55x_RELEASE_V1.0.2/MSDK/lwip/lwip-2.1.2/src/apps/altcp_tls\altcp_tls_mbedtls.c ****     return 0;
 2634              		.loc 1 1165 3
1165:C:/Users/stapi/OneDrive/Desktop/GD32VW553/GD32VW55X_Wifi_BLE_SDK/GD32VW55x_RELEASE_V1.0.2/MSDK/lwip/lwip-2.1.2/src/apps/altcp_tls\altcp_tls_mbedtls.c ****     return 0;
 2635              		.loc 1 1165 6 is_stmt 0
 2636 0000 11C5     		beq	a0,zero,.L310
 2637              	.LVL294:
 2638              	.LBB102:
 2639              	.LBB103:
1169:C:/Users/stapi/OneDrive/Desktop/GD32VW553/GD32VW55X_Wifi_BLE_SDK/GD32VW55x_RELEASE_V1.0.2/MSDK/lwip/lwip-2.1.2/src/apps/altcp_tls\altcp_tls_mbedtls.c **** }
 2640              		.loc 1 1169 3 is_stmt 1
1169:C:/Users/stapi/OneDrive/Desktop/GD32VW553/GD32VW55X_Wifi_BLE_SDK/GD32VW55x_RELEASE_V1.0.2/MSDK/lwip/lwip-2.1.2/src/apps/altcp_tls\altcp_tls_mbedtls.c **** }
 2641              		.loc 1 1169 10 is_stmt 0
 2642 0002 4841     		lw	a0,4(a0)
 2643              	.LVL295:
 2644 0004 17030000 		tail	altcp_mss
 2644      67000300 
 2645              	.LVL296:
 2646              	.L310:
 2647              	.LBE103:
 2648              	.LBE102:
1166:C:/Users/stapi/OneDrive/Desktop/GD32VW553/GD32VW55X_Wifi_BLE_SDK/GD32VW55x_RELEASE_V1.0.2/MSDK/lwip/lwip-2.1.2/src/apps/altcp_tls\altcp_tls_mbedtls.c ****   }
 2649              		.loc 1 1166 12
 2650 000c 0145     		li	a0,0
 2651              	.LVL297:
1170:C:/Users/stapi/OneDrive/Desktop/GD32VW553/GD32VW55X_Wifi_BLE_SDK/GD32VW55x_RELEASE_V1.0.2/MSDK/lwip/lwip-2.1.2/src/apps/altcp_tls\altcp_tls_mbedtls.c **** 
 2652              		.loc 1 1170 1
 2653 000e 8280     		ret
 2654              		.cfi_endproc
 2655              	.LFE422:
 2657              		.section	.rodata.altcp_mbedtls_lower_recv_process.str1.4,"aMS",@progbits,1
 2658              		.align	2
 2659              	.LC16:
 2660 0000 696E2074 		.string	"in this state, the rx chain should be empty"
 2660      68697320 
 2660      73746174 
 2660      652C2074 
 2660      68652072 
 2661              		.align	2
 2662              	.LC17:
 2663 002c 73746174 		.string	"state"
 2663      6500
 2664              		.section	.text.altcp_mbedtls_lower_recv_process,"ax",@progbits
 2665              		.align	1
 2667              	altcp_mbedtls_lower_recv_process:
 2668              	.LFB393:
 252:C:/Users/stapi/OneDrive/Desktop/GD32VW553/GD32VW55X_Wifi_BLE_SDK/GD32VW55x_RELEASE_V1.0.2/MSDK/lwip/lwip-2.1.2/src/apps/altcp_tls\altcp_tls_mbedtls.c ****   if (!(state->flags & ALTCP_MBEDTLS_FLAGS_HANDSHAKE_DONE)) {
 2669              		.loc 1 252 1 is_stmt 1
 2670              		.cfi_startproc
 2671              	.LVL298:
 2672 0000 17030000 		call	t0,__riscv_save_8
 2672      E7020300 
 2673              		.cfi_offset 23, -36
 2674              		.cfi_offset 22, -32
 2675              		.cfi_offset 21, -28
 2676              		.cfi_offset 20, -24
 2677              		.cfi_offset 19, -20
 2678              		.cfi_offset 18, -16
 2679              		.cfi_offset 9, -12
 2680              		.cfi_offset 8, -8
 2681              		.cfi_offset 1, -4
 2682              		.cfi_def_cfa_offset 48
 253:C:/Users/stapi/OneDrive/Desktop/GD32VW553/GD32VW55X_Wifi_BLE_SDK/GD32VW55x_RELEASE_V1.0.2/MSDK/lwip/lwip-2.1.2/src/apps/altcp_tls\altcp_tls_mbedtls.c ****     /* handle connection setup (handshake not done) */
 2683              		.loc 1 253 3
 253:C:/Users/stapi/OneDrive/Desktop/GD32VW553/GD32VW55X_Wifi_BLE_SDK/GD32VW55x_RELEASE_V1.0.2/MSDK/lwip/lwip-2.1.2/src/apps/altcp_tls\altcp_tls_mbedtls.c ****     /* handle connection setup (handshake not done) */
 2684              		.loc 1 253 6 is_stmt 0
 2685 0008 83C78515 		lbu	a5,344(a1)
 252:C:/Users/stapi/OneDrive/Desktop/GD32VW553/GD32VW55X_Wifi_BLE_SDK/GD32VW55x_RELEASE_V1.0.2/MSDK/lwip/lwip-2.1.2/src/apps/altcp_tls\altcp_tls_mbedtls.c ****   if (!(state->flags & ALTCP_MBEDTLS_FLAGS_HANDSHAKE_DONE)) {
 2686              		.loc 1 252 1
 2687 000c AA84     		mv	s1,a0
 2688 000e 2E84     		mv	s0,a1
 253:C:/Users/stapi/OneDrive/Desktop/GD32VW553/GD32VW55X_Wifi_BLE_SDK/GD32VW55x_RELEASE_V1.0.2/MSDK/lwip/lwip-2.1.2/src/apps/altcp_tls\altcp_tls_mbedtls.c ****     /* handle connection setup (handshake not done) */
 2689              		.loc 1 253 6
 2690 0010 858B     		andi	a5,a5,1
 2691 0012 99CB     		beq	a5,zero,.L316
 2692              	.LVL299:
 2693              	.L333:
 298:C:/Users/stapi/OneDrive/Desktop/GD32VW553/GD32VW55X_Wifi_BLE_SDK/GD32VW55x_RELEASE_V1.0.2/MSDK/lwip/lwip-2.1.2/src/apps/altcp_tls\altcp_tls_mbedtls.c **** }
 2694              		.loc 1 298 3 is_stmt 1
 298:C:/Users/stapi/OneDrive/Desktop/GD32VW553/GD32VW55X_Wifi_BLE_SDK/GD32VW55x_RELEASE_V1.0.2/MSDK/lwip/lwip-2.1.2/src/apps/altcp_tls\altcp_tls_mbedtls.c **** }
 2695              		.loc 1 298 10 is_stmt 0
 2696 0014 A285     		mv	a1,s0
 2697 0016 2685     		mv	a0,s1
 2698 0018 97000000 		call	altcp_mbedtls_handle_rx_appldata
 2698      E7800000 
 2699              	.LVL300:
 2700              	.L317:
 299:C:/Users/stapi/OneDrive/Desktop/GD32VW553/GD32VW55X_Wifi_BLE_SDK/GD32VW55x_RELEASE_V1.0.2/MSDK/lwip/lwip-2.1.2/src/apps/altcp_tls\altcp_tls_mbedtls.c **** 
 2701              		.loc 1 299 1
 2702 0020 17030000 		tail	__riscv_restore_8
 2702      67000300 
 2703              		.cfi_remember_state
 2704              		.cfi_restore 23
 2705              		.cfi_restore 22
 2706              		.cfi_restore 21
 2707              		.cfi_restore 20
 2708              		.cfi_restore 19
 2709              		.cfi_restore 18
 2710              		.cfi_restore 9
 2711              		.cfi_restore 8
 2712              		.cfi_restore 1
 2713              		.cfi_def_cfa_offset 0
 2714              	.L316:
 2715              		.cfi_restore_state
 2716              	.LBB109:
 255:C:/Users/stapi/OneDrive/Desktop/GD32VW553/GD32VW55X_Wifi_BLE_SDK/GD32VW55x_RELEASE_V1.0.2/MSDK/lwip/lwip-2.1.2/src/apps/altcp_tls\altcp_tls_mbedtls.c ****     /* try to send data... */
 2717              		.loc 1 255 5 is_stmt 1
 255:C:/Users/stapi/OneDrive/Desktop/GD32VW553/GD32VW55X_Wifi_BLE_SDK/GD32VW55x_RELEASE_V1.0.2/MSDK/lwip/lwip-2.1.2/src/apps/altcp_tls\altcp_tls_mbedtls.c ****     /* try to send data... */
 2718              		.loc 1 255 15 is_stmt 0
 2719 0028 13858500 		addi	a0,a1,8
 2720 002c 97000000 		call	mbedtls_ssl_handshake
 2720      E7800000 
 2721              	.LVL301:
 2722 0034 AA89     		mv	s3,a0
 2723              	.LVL302:
 257:C:/Users/stapi/OneDrive/Desktop/GD32VW553/GD32VW55X_Wifi_BLE_SDK/GD32VW55x_RELEASE_V1.0.2/MSDK/lwip/lwip-2.1.2/src/apps/altcp_tls\altcp_tls_mbedtls.c ****     if (state->bio_bytes_read) {
 2724              		.loc 1 257 5 is_stmt 1
 2725 0036 C840     		lw	a0,4(s1)
 2726              	.LVL303:
 2727 0038 97000000 		call	altcp_output
 2727      E7800000 
 2728              	.LVL304:
 258:C:/Users/stapi/OneDrive/Desktop/GD32VW553/GD32VW55X_Wifi_BLE_SDK/GD32VW55x_RELEASE_V1.0.2/MSDK/lwip/lwip-2.1.2/src/apps/altcp_tls\altcp_tls_mbedtls.c ****       /* acknowledge all bytes read */
 2729              		.loc 1 258 5
 258:C:/Users/stapi/OneDrive/Desktop/GD32VW553/GD32VW55X_Wifi_BLE_SDK/GD32VW55x_RELEASE_V1.0.2/MSDK/lwip/lwip-2.1.2/src/apps/altcp_tls\altcp_tls_mbedtls.c ****       /* acknowledge all bytes read */
 2730              		.loc 1 258 14 is_stmt 0
 2731 0040 03290416 		lw	s2,352(s0)
 258:C:/Users/stapi/OneDrive/Desktop/GD32VW553/GD32VW55X_Wifi_BLE_SDK/GD32VW55x_RELEASE_V1.0.2/MSDK/lwip/lwip-2.1.2/src/apps/altcp_tls\altcp_tls_mbedtls.c ****       /* acknowledge all bytes read */
 2732              		.loc 1 258 8
 2733 0044 630D0900 		beq	s2,zero,.L318
 260:C:/Users/stapi/OneDrive/Desktop/GD32VW553/GD32VW55X_Wifi_BLE_SDK/GD32VW55x_RELEASE_V1.0.2/MSDK/lwip/lwip-2.1.2/src/apps/altcp_tls\altcp_tls_mbedtls.c ****       state->bio_bytes_read = 0;
 2734              		.loc 1 260 7 is_stmt 1
 2735 0048 03AB4400 		lw	s6,4(s1)
 2736              	.LVL305:
 2737              	.LBB110:
 2738              	.LBB111:
 173:C:/Users/stapi/OneDrive/Desktop/GD32VW553/GD32VW55X_Wifi_BLE_SDK/GD32VW55x_RELEASE_V1.0.2/MSDK/lwip/lwip-2.1.2/src/apps/altcp_tls\altcp_tls_mbedtls.c ****     u16_t recvd_part = (u16_t)LWIP_MIN(recvd_cnt, 0xFFFF);
 2739              		.loc 1 173 3
 2740              	.LBB112:
 174:C:/Users/stapi/OneDrive/Desktop/GD32VW553/GD32VW55X_Wifi_BLE_SDK/GD32VW55x_RELEASE_V1.0.2/MSDK/lwip/lwip-2.1.2/src/apps/altcp_tls\altcp_tls_mbedtls.c ****     altcp_recved(inner_conn, recvd_part);
 2741              		.loc 1 174 24 is_stmt 0
 2742 004c C167     		li	a5,65536
 2743 004e 938BE7FF 		addi	s7,a5,-2
 2744 0052 138AF7FF 		addi	s4,a5,-1
 2745              	.L319:
 2746              	.LBE112:
 173:C:/Users/stapi/OneDrive/Desktop/GD32VW553/GD32VW55X_Wifi_BLE_SDK/GD32VW55x_RELEASE_V1.0.2/MSDK/lwip/lwip-2.1.2/src/apps/altcp_tls\altcp_tls_mbedtls.c ****     u16_t recvd_part = (u16_t)LWIP_MIN(recvd_cnt, 0xFFFF);
 2747              		.loc 1 173 9 is_stmt 1
 2748 0056 63402003 		bgt	s2,zero,.L321
 2749              	.LVL306:
 2750              	.LBE111:
 2751              	.LBE110:
 261:C:/Users/stapi/OneDrive/Desktop/GD32VW553/GD32VW55X_Wifi_BLE_SDK/GD32VW55x_RELEASE_V1.0.2/MSDK/lwip/lwip-2.1.2/src/apps/altcp_tls\altcp_tls_mbedtls.c ****     }
 2752              		.loc 1 261 7
 261:C:/Users/stapi/OneDrive/Desktop/GD32VW553/GD32VW55X_Wifi_BLE_SDK/GD32VW55x_RELEASE_V1.0.2/MSDK/lwip/lwip-2.1.2/src/apps/altcp_tls\altcp_tls_mbedtls.c ****     }
 2753              		.loc 1 261 29 is_stmt 0
 2754 005a 23200416 		sw	zero,352(s0)
 2755              	.L318:
 264:C:/Users/stapi/OneDrive/Desktop/GD32VW553/GD32VW55X_Wifi_BLE_SDK/GD32VW55x_RELEASE_V1.0.2/MSDK/lwip/lwip-2.1.2/src/apps/altcp_tls\altcp_tls_mbedtls.c ****       /* handshake not done, wait for more recv calls */
 2756              		.loc 1 264 5 is_stmt 1
 264:C:/Users/stapi/OneDrive/Desktop/GD32VW553/GD32VW55X_Wifi_BLE_SDK/GD32VW55x_RELEASE_V1.0.2/MSDK/lwip/lwip-2.1.2/src/apps/altcp_tls\altcp_tls_mbedtls.c ****       /* handshake not done, wait for more recv calls */
 2757              		.loc 1 264 8 is_stmt 0
 2758 005e E577     		li	a5,-28672
 2759 0060 13F7F9F7 		andi	a4,s3,-129
 2760 0064 93870770 		addi	a5,a5,1792
 2761 0068 6318F704 		bne	a4,a5,.L322
 266:C:/Users/stapi/OneDrive/Desktop/GD32VW553/GD32VW55X_Wifi_BLE_SDK/GD32VW55x_RELEASE_V1.0.2/MSDK/lwip/lwip-2.1.2/src/apps/altcp_tls\altcp_tls_mbedtls.c ****       return ERR_OK;
 2762              		.loc 1 266 7 is_stmt 1
 266:C:/Users/stapi/OneDrive/Desktop/GD32VW553/GD32VW55X_Wifi_BLE_SDK/GD32VW55x_RELEASE_V1.0.2/MSDK/lwip/lwip-2.1.2/src/apps/altcp_tls\altcp_tls_mbedtls.c ****       return ERR_OK;
 2763              		.loc 1 266 7
 2764 006c 83270415 		lw	a5,336(s0)
 2765 0070 8DE3     		bne	a5,zero,.L323
 2766              	.L352:
 279:C:/Users/stapi/OneDrive/Desktop/GD32VW553/GD32VW55X_Wifi_BLE_SDK/GD32VW55x_RELEASE_V1.0.2/MSDK/lwip/lwip-2.1.2/src/apps/altcp_tls\altcp_tls_mbedtls.c ****     }
 2767              		.loc 1 279 14 is_stmt 0
 2768 0072 0145     		li	a0,0
 2769 0074 75B7     		j	.L317
 2770              	.LVL307:
 2771              	.L321:
 2772              	.LBB115:
 2773              	.LBB114:
 2774              	.LBB113:
 174:C:/Users/stapi/OneDrive/Desktop/GD32VW553/GD32VW55X_Wifi_BLE_SDK/GD32VW55x_RELEASE_V1.0.2/MSDK/lwip/lwip-2.1.2/src/apps/altcp_tls\altcp_tls_mbedtls.c ****     altcp_recved(inner_conn, recvd_part);
 2775              		.loc 1 174 5 is_stmt 1
 2776 0076 D28A     		mv	s5,s4
 174:C:/Users/stapi/OneDrive/Desktop/GD32VW553/GD32VW55X_Wifi_BLE_SDK/GD32VW55x_RELEASE_V1.0.2/MSDK/lwip/lwip-2.1.2/src/apps/altcp_tls\altcp_tls_mbedtls.c ****     altcp_recved(inner_conn, recvd_part);
 2777              		.loc 1 174 24 is_stmt 0
 2778 0078 63C32B01 		bgt	s2,s7,.L320
 2779 007c CA8A     		mv	s5,s2
 2780              	.L320:
 2781              	.LVL308:
 175:C:/Users/stapi/OneDrive/Desktop/GD32VW553/GD32VW55X_Wifi_BLE_SDK/GD32VW55x_RELEASE_V1.0.2/MSDK/lwip/lwip-2.1.2/src/apps/altcp_tls\altcp_tls_mbedtls.c ****     recvd_cnt -= recvd_part;
 2782              		.loc 1 175 5 is_stmt 1
 2783 007e 5A85     		mv	a0,s6
 2784 0080 B3C50A08 		zext.h	a1,s5
 176:C:/Users/stapi/OneDrive/Desktop/GD32VW553/GD32VW55X_Wifi_BLE_SDK/GD32VW55x_RELEASE_V1.0.2/MSDK/lwip/lwip-2.1.2/src/apps/altcp_tls\altcp_tls_mbedtls.c ****   }
 2785              		.loc 1 176 15 is_stmt 0
 2786 0084 33095941 		sub	s2,s2,s5
 2787              	.LVL309:
 175:C:/Users/stapi/OneDrive/Desktop/GD32VW553/GD32VW55X_Wifi_BLE_SDK/GD32VW55x_RELEASE_V1.0.2/MSDK/lwip/lwip-2.1.2/src/apps/altcp_tls\altcp_tls_mbedtls.c ****     recvd_cnt -= recvd_part;
 2788              		.loc 1 175 5
 2789 0088 97000000 		call	altcp_recved
 2789      E7800000 
 2790              	.LVL310:
 176:C:/Users/stapi/OneDrive/Desktop/GD32VW553/GD32VW55X_Wifi_BLE_SDK/GD32VW55x_RELEASE_V1.0.2/MSDK/lwip/lwip-2.1.2/src/apps/altcp_tls\altcp_tls_mbedtls.c ****   }
 2791              		.loc 1 176 5 is_stmt 1
 2792 0090 D9B7     		j	.L319
 2793              	.LVL311:
 2794              	.L323:
 2795              	.LBE113:
 2796              	.LBE114:
 2797              	.LBE115:
 266:C:/Users/stapi/OneDrive/Desktop/GD32VW553/GD32VW55X_Wifi_BLE_SDK/GD32VW55x_RELEASE_V1.0.2/MSDK/lwip/lwip-2.1.2/src/apps/altcp_tls\altcp_tls_mbedtls.c ****       return ERR_OK;
 2798              		.loc 1 266 7 discriminator 1
 266:C:/Users/stapi/OneDrive/Desktop/GD32VW553/GD32VW55X_Wifi_BLE_SDK/GD32VW55x_RELEASE_V1.0.2/MSDK/lwip/lwip-2.1.2/src/apps/altcp_tls\altcp_tls_mbedtls.c ****       return ERR_OK;
 2799              		.loc 1 266 7 discriminator 1
 2800 0092 B7060000 		lui	a3,%hi(.LC0)
 2801 0096 B7050000 		lui	a1,%hi(.LC16)
 2802 009a 37050000 		lui	a0,%hi(.LC2)
 2803 009e 93860600 		addi	a3,a3,%lo(.LC0)
 2804 00a2 1306A010 		li	a2,266
 2805 00a6 93850500 		addi	a1,a1,%lo(.LC16)
 2806 00aa 13050500 		addi	a0,a0,%lo(.LC2)
 2807 00ae 97000000 		call	printf
 2807      E7800000 
 2808              	.LVL312:
 2809              	.L324:
 266:C:/Users/stapi/OneDrive/Desktop/GD32VW553/GD32VW55X_Wifi_BLE_SDK/GD32VW55x_RELEASE_V1.0.2/MSDK/lwip/lwip-2.1.2/src/apps/altcp_tls\altcp_tls_mbedtls.c ****       return ERR_OK;
 2810              		.loc 1 266 7 discriminator 1
 266:C:/Users/stapi/OneDrive/Desktop/GD32VW553/GD32VW55X_Wifi_BLE_SDK/GD32VW55x_RELEASE_V1.0.2/MSDK/lwip/lwip-2.1.2/src/apps/altcp_tls\altcp_tls_mbedtls.c ****       return ERR_OK;
 2811              		.loc 1 266 7 discriminator 1
 266:C:/Users/stapi/OneDrive/Desktop/GD32VW553/GD32VW55X_Wifi_BLE_SDK/GD32VW55x_RELEASE_V1.0.2/MSDK/lwip/lwip-2.1.2/src/apps/altcp_tls\altcp_tls_mbedtls.c ****       return ERR_OK;
 2812              		.loc 1 266 7 discriminator 1
 2813 00b6 01A0     		j	.L324
 2814              	.L322:
 269:C:/Users/stapi/OneDrive/Desktop/GD32VW553/GD32VW55X_Wifi_BLE_SDK/GD32VW55x_RELEASE_V1.0.2/MSDK/lwip/lwip-2.1.2/src/apps/altcp_tls\altcp_tls_mbedtls.c ****       LWIP_DEBUGF(ALTCP_MBEDTLS_DEBUG, ("mbedtls_ssl_handshake failed: %d\n", ret));
 2815              		.loc 1 269 5
 269:C:/Users/stapi/OneDrive/Desktop/GD32VW553/GD32VW55X_Wifi_BLE_SDK/GD32VW55x_RELEASE_V1.0.2/MSDK/lwip/lwip-2.1.2/src/apps/altcp_tls\altcp_tls_mbedtls.c ****       LWIP_DEBUGF(ALTCP_MBEDTLS_DEBUG, ("mbedtls_ssl_handshake failed: %d\n", ret));
 2816              		.loc 1 269 8 is_stmt 0
 2817 00b8 63830902 		beq	s3,zero,.L325
 270:C:/Users/stapi/OneDrive/Desktop/GD32VW553/GD32VW55X_Wifi_BLE_SDK/GD32VW55x_RELEASE_V1.0.2/MSDK/lwip/lwip-2.1.2/src/apps/altcp_tls\altcp_tls_mbedtls.c ****       /* handshake failed, connection has to be closed */
 2818              		.loc 1 270 84 is_stmt 1
 272:C:/Users/stapi/OneDrive/Desktop/GD32VW553/GD32VW55X_Wifi_BLE_SDK/GD32VW55x_RELEASE_V1.0.2/MSDK/lwip/lwip-2.1.2/src/apps/altcp_tls\altcp_tls_mbedtls.c ****         conn->err(conn->arg, ERR_CLSD);
 2819              		.loc 1 272 7
 272:C:/Users/stapi/OneDrive/Desktop/GD32VW553/GD32VW55X_Wifi_BLE_SDK/GD32VW55x_RELEASE_V1.0.2/MSDK/lwip/lwip-2.1.2/src/apps/altcp_tls\altcp_tls_mbedtls.c ****         conn->err(conn->arg, ERR_CLSD);
 2820              		.loc 1 272 15 is_stmt 0
 2821 00bc DC50     		lw	a5,36(s1)
 272:C:/Users/stapi/OneDrive/Desktop/GD32VW553/GD32VW55X_Wifi_BLE_SDK/GD32VW55x_RELEASE_V1.0.2/MSDK/lwip/lwip-2.1.2/src/apps/altcp_tls\altcp_tls_mbedtls.c ****         conn->err(conn->arg, ERR_CLSD);
 2822              		.loc 1 272 10
 2823 00be 81C7     		beq	a5,zero,.L326
 273:C:/Users/stapi/OneDrive/Desktop/GD32VW553/GD32VW55X_Wifi_BLE_SDK/GD32VW55x_RELEASE_V1.0.2/MSDK/lwip/lwip-2.1.2/src/apps/altcp_tls\altcp_tls_mbedtls.c ****       }
 2824              		.loc 1 273 9 is_stmt 1
 2825 00c0 8844     		lw	a0,8(s1)
 2826 00c2 C555     		li	a1,-15
 2827 00c4 8297     		jalr	a5
 2828              	.LVL313:
 2829              	.L326:
 276:C:/Users/stapi/OneDrive/Desktop/GD32VW553/GD32VW55X_Wifi_BLE_SDK/GD32VW55x_RELEASE_V1.0.2/MSDK/lwip/lwip-2.1.2/src/apps/altcp_tls\altcp_tls_mbedtls.c ****         altcp_abort(conn);
 2830              		.loc 1 276 7
 276:C:/Users/stapi/OneDrive/Desktop/GD32VW553/GD32VW55X_Wifi_BLE_SDK/GD32VW55x_RELEASE_V1.0.2/MSDK/lwip/lwip-2.1.2/src/apps/altcp_tls\altcp_tls_mbedtls.c ****         altcp_abort(conn);
 2831              		.loc 1 276 11 is_stmt 0
 2832 00c6 2685     		mv	a0,s1
 2833 00c8 97000000 		call	altcp_close
 2833      E7800000 
 2834              	.LVL314:
 276:C:/Users/stapi/OneDrive/Desktop/GD32VW553/GD32VW55X_Wifi_BLE_SDK/GD32VW55x_RELEASE_V1.0.2/MSDK/lwip/lwip-2.1.2/src/apps/altcp_tls\altcp_tls_mbedtls.c ****         altcp_abort(conn);
 2835              		.loc 1 276 10
 2836 00d0 4DD1     		beq	a0,zero,.L352
 277:C:/Users/stapi/OneDrive/Desktop/GD32VW553/GD32VW55X_Wifi_BLE_SDK/GD32VW55x_RELEASE_V1.0.2/MSDK/lwip/lwip-2.1.2/src/apps/altcp_tls\altcp_tls_mbedtls.c ****       }
 2837              		.loc 1 277 9 is_stmt 1
 2838 00d2 2685     		mv	a0,s1
 2839 00d4 97000000 		call	altcp_abort
 2839      E7800000 
 2840              	.LVL315:
 2841 00dc 59BF     		j	.L352
 2842              	.L325:
 282:C:/Users/stapi/OneDrive/Desktop/GD32VW553/GD32VW55X_Wifi_BLE_SDK/GD32VW55x_RELEASE_V1.0.2/MSDK/lwip/lwip-2.1.2/src/apps/altcp_tls\altcp_tls_mbedtls.c ****     LWIP_ASSERT("state", state->bio_bytes_appl == 0);
 2843              		.loc 1 282 5
 282:C:/Users/stapi/OneDrive/Desktop/GD32VW553/GD32VW55X_Wifi_BLE_SDK/GD32VW55x_RELEASE_V1.0.2/MSDK/lwip/lwip-2.1.2/src/apps/altcp_tls\altcp_tls_mbedtls.c ****     LWIP_ASSERT("state", state->bio_bytes_appl == 0);
 2844              		.loc 1 282 5
 2845 00de 83270416 		lw	a5,352(s0)
 2846 00e2 85C7     		beq	a5,zero,.L328
 282:C:/Users/stapi/OneDrive/Desktop/GD32VW553/GD32VW55X_Wifi_BLE_SDK/GD32VW55x_RELEASE_V1.0.2/MSDK/lwip/lwip-2.1.2/src/apps/altcp_tls\altcp_tls_mbedtls.c ****     LWIP_ASSERT("state", state->bio_bytes_appl == 0);
 2847              		.loc 1 282 5 discriminator 1
 282:C:/Users/stapi/OneDrive/Desktop/GD32VW553/GD32VW55X_Wifi_BLE_SDK/GD32VW55x_RELEASE_V1.0.2/MSDK/lwip/lwip-2.1.2/src/apps/altcp_tls\altcp_tls_mbedtls.c ****     LWIP_ASSERT("state", state->bio_bytes_appl == 0);
 2848              		.loc 1 282 5 discriminator 1
 2849 00e4 B7060000 		lui	a3,%hi(.LC0)
 2850 00e8 B7050000 		lui	a1,%hi(.LC17)
 2851 00ec 37050000 		lui	a0,%hi(.LC2)
 2852 00f0 93860600 		addi	a3,a3,%lo(.LC0)
 2853 00f4 1306A011 		li	a2,282
 2854 00f8 93850500 		addi	a1,a1,%lo(.LC17)
 2855 00fc 13050500 		addi	a0,a0,%lo(.LC2)
 2856 0100 97000000 		call	printf
 2856      E7800000 
 2857              	.LVL316:
 2858              	.L329:
 282:C:/Users/stapi/OneDrive/Desktop/GD32VW553/GD32VW55X_Wifi_BLE_SDK/GD32VW55x_RELEASE_V1.0.2/MSDK/lwip/lwip-2.1.2/src/apps/altcp_tls\altcp_tls_mbedtls.c ****     LWIP_ASSERT("state", state->bio_bytes_appl == 0);
 2859              		.loc 1 282 5 discriminator 2
 282:C:/Users/stapi/OneDrive/Desktop/GD32VW553/GD32VW55X_Wifi_BLE_SDK/GD32VW55x_RELEASE_V1.0.2/MSDK/lwip/lwip-2.1.2/src/apps/altcp_tls\altcp_tls_mbedtls.c ****     LWIP_ASSERT("state", state->bio_bytes_appl == 0);
 2860              		.loc 1 282 5 discriminator 2
 282:C:/Users/stapi/OneDrive/Desktop/GD32VW553/GD32VW55X_Wifi_BLE_SDK/GD32VW55x_RELEASE_V1.0.2/MSDK/lwip/lwip-2.1.2/src/apps/altcp_tls\altcp_tls_mbedtls.c ****     LWIP_ASSERT("state", state->bio_bytes_appl == 0);
 2861              		.loc 1 282 5 discriminator 2
 2862 0108 01A0     		j	.L329
 2863              	.L328:
 282:C:/Users/stapi/OneDrive/Desktop/GD32VW553/GD32VW55X_Wifi_BLE_SDK/GD32VW55x_RELEASE_V1.0.2/MSDK/lwip/lwip-2.1.2/src/apps/altcp_tls\altcp_tls_mbedtls.c ****     LWIP_ASSERT("state", state->bio_bytes_appl == 0);
 2864              		.loc 1 282 5 discriminator 2
 282:C:/Users/stapi/OneDrive/Desktop/GD32VW553/GD32VW55X_Wifi_BLE_SDK/GD32VW55x_RELEASE_V1.0.2/MSDK/lwip/lwip-2.1.2/src/apps/altcp_tls\altcp_tls_mbedtls.c ****     LWIP_ASSERT("state", state->bio_bytes_appl == 0);
 2865              		.loc 1 282 5 discriminator 2
 283:C:/Users/stapi/OneDrive/Desktop/GD32VW553/GD32VW55X_Wifi_BLE_SDK/GD32VW55x_RELEASE_V1.0.2/MSDK/lwip/lwip-2.1.2/src/apps/altcp_tls\altcp_tls_mbedtls.c ****     state->flags |= ALTCP_MBEDTLS_FLAGS_HANDSHAKE_DONE;
 2866              		.loc 1 283 5 discriminator 2
 283:C:/Users/stapi/OneDrive/Desktop/GD32VW553/GD32VW55X_Wifi_BLE_SDK/GD32VW55x_RELEASE_V1.0.2/MSDK/lwip/lwip-2.1.2/src/apps/altcp_tls\altcp_tls_mbedtls.c ****     state->flags |= ALTCP_MBEDTLS_FLAGS_HANDSHAKE_DONE;
 2867              		.loc 1 283 5 discriminator 2
 2868 010a 83274416 		lw	a5,356(s0)
 2869 010e 85C7     		beq	a5,zero,.L330
 283:C:/Users/stapi/OneDrive/Desktop/GD32VW553/GD32VW55X_Wifi_BLE_SDK/GD32VW55x_RELEASE_V1.0.2/MSDK/lwip/lwip-2.1.2/src/apps/altcp_tls\altcp_tls_mbedtls.c ****     state->flags |= ALTCP_MBEDTLS_FLAGS_HANDSHAKE_DONE;
 2870              		.loc 1 283 5 discriminator 1
 283:C:/Users/stapi/OneDrive/Desktop/GD32VW553/GD32VW55X_Wifi_BLE_SDK/GD32VW55x_RELEASE_V1.0.2/MSDK/lwip/lwip-2.1.2/src/apps/altcp_tls\altcp_tls_mbedtls.c ****     state->flags |= ALTCP_MBEDTLS_FLAGS_HANDSHAKE_DONE;
 2871              		.loc 1 283 5 discriminator 1
 2872 0110 B7060000 		lui	a3,%hi(.LC0)
 2873 0114 B7050000 		lui	a1,%hi(.LC17)
 2874 0118 37050000 		lui	a0,%hi(.LC2)
 2875 011c 93860600 		addi	a3,a3,%lo(.LC0)
 2876 0120 1306B011 		li	a2,283
 2877 0124 93850500 		addi	a1,a1,%lo(.LC17)
 2878 0128 13050500 		addi	a0,a0,%lo(.LC2)
 2879 012c 97000000 		call	printf
 2879      E7800000 
 2880              	.LVL317:
 2881              	.L331:
 283:C:/Users/stapi/OneDrive/Desktop/GD32VW553/GD32VW55X_Wifi_BLE_SDK/GD32VW55x_RELEASE_V1.0.2/MSDK/lwip/lwip-2.1.2/src/apps/altcp_tls\altcp_tls_mbedtls.c ****     state->flags |= ALTCP_MBEDTLS_FLAGS_HANDSHAKE_DONE;
 2882              		.loc 1 283 5 discriminator 3
 283:C:/Users/stapi/OneDrive/Desktop/GD32VW553/GD32VW55X_Wifi_BLE_SDK/GD32VW55x_RELEASE_V1.0.2/MSDK/lwip/lwip-2.1.2/src/apps/altcp_tls\altcp_tls_mbedtls.c ****     state->flags |= ALTCP_MBEDTLS_FLAGS_HANDSHAKE_DONE;
 2883              		.loc 1 283 5 discriminator 3
 283:C:/Users/stapi/OneDrive/Desktop/GD32VW553/GD32VW55X_Wifi_BLE_SDK/GD32VW55x_RELEASE_V1.0.2/MSDK/lwip/lwip-2.1.2/src/apps/altcp_tls\altcp_tls_mbedtls.c ****     state->flags |= ALTCP_MBEDTLS_FLAGS_HANDSHAKE_DONE;
 2884              		.loc 1 283 5 discriminator 3
 2885 0134 01A0     		j	.L331
 2886              	.L330:
 283:C:/Users/stapi/OneDrive/Desktop/GD32VW553/GD32VW55X_Wifi_BLE_SDK/GD32VW55x_RELEASE_V1.0.2/MSDK/lwip/lwip-2.1.2/src/apps/altcp_tls\altcp_tls_mbedtls.c ****     state->flags |= ALTCP_MBEDTLS_FLAGS_HANDSHAKE_DONE;
 2887              		.loc 1 283 5 discriminator 2
 283:C:/Users/stapi/OneDrive/Desktop/GD32VW553/GD32VW55X_Wifi_BLE_SDK/GD32VW55x_RELEASE_V1.0.2/MSDK/lwip/lwip-2.1.2/src/apps/altcp_tls\altcp_tls_mbedtls.c ****     state->flags |= ALTCP_MBEDTLS_FLAGS_HANDSHAKE_DONE;
 2888              		.loc 1 283 5 discriminator 2
 284:C:/Users/stapi/OneDrive/Desktop/GD32VW553/GD32VW55X_Wifi_BLE_SDK/GD32VW55x_RELEASE_V1.0.2/MSDK/lwip/lwip-2.1.2/src/apps/altcp_tls\altcp_tls_mbedtls.c ****     /* issue "connect" callback" to upper connection (this can only happen for active open) */
 2889              		.loc 1 284 5 discriminator 2
 284:C:/Users/stapi/OneDrive/Desktop/GD32VW553/GD32VW55X_Wifi_BLE_SDK/GD32VW55x_RELEASE_V1.0.2/MSDK/lwip/lwip-2.1.2/src/apps/altcp_tls\altcp_tls_mbedtls.c ****     /* issue "connect" callback" to upper connection (this can only happen for active open) */
 2890              		.loc 1 284 18 is_stmt 0 discriminator 2
 2891 0136 83478415 		lbu	a5,344(s0)
 2892 013a 93E71700 		ori	a5,a5,1
 2893 013e 230CF414 		sb	a5,344(s0)
 286:C:/Users/stapi/OneDrive/Desktop/GD32VW553/GD32VW55X_Wifi_BLE_SDK/GD32VW55x_RELEASE_V1.0.2/MSDK/lwip/lwip-2.1.2/src/apps/altcp_tls\altcp_tls_mbedtls.c ****       err_t err;
 2894              		.loc 1 286 5 is_stmt 1 discriminator 2
 286:C:/Users/stapi/OneDrive/Desktop/GD32VW553/GD32VW55X_Wifi_BLE_SDK/GD32VW55x_RELEASE_V1.0.2/MSDK/lwip/lwip-2.1.2/src/apps/altcp_tls\altcp_tls_mbedtls.c ****       err_t err;
 2895              		.loc 1 286 13 is_stmt 0 discriminator 2
 2896 0142 DC48     		lw	a5,20(s1)
 286:C:/Users/stapi/OneDrive/Desktop/GD32VW553/GD32VW55X_Wifi_BLE_SDK/GD32VW55x_RELEASE_V1.0.2/MSDK/lwip/lwip-2.1.2/src/apps/altcp_tls\altcp_tls_mbedtls.c ****       err_t err;
 2897              		.loc 1 286 8 discriminator 2
 2898 0144 91E7     		bne	a5,zero,.L332
 2899              	.L334:
 293:C:/Users/stapi/OneDrive/Desktop/GD32VW553/GD32VW55X_Wifi_BLE_SDK/GD32VW55x_RELEASE_V1.0.2/MSDK/lwip/lwip-2.1.2/src/apps/altcp_tls\altcp_tls_mbedtls.c ****       return ERR_OK;
 2900              		.loc 1 293 5 is_stmt 1
 293:C:/Users/stapi/OneDrive/Desktop/GD32VW553/GD32VW55X_Wifi_BLE_SDK/GD32VW55x_RELEASE_V1.0.2/MSDK/lwip/lwip-2.1.2/src/apps/altcp_tls\altcp_tls_mbedtls.c ****       return ERR_OK;
 2901              		.loc 1 293 8 is_stmt 0
 2902 0146 83270415 		lw	a5,336(s0)
 2903 014a E39507EC 		bne	a5,zero,.L333
 2904 014e 15B7     		j	.L352
 2905              	.L332:
 2906              	.LBB116:
 287:C:/Users/stapi/OneDrive/Desktop/GD32VW553/GD32VW55X_Wifi_BLE_SDK/GD32VW55x_RELEASE_V1.0.2/MSDK/lwip/lwip-2.1.2/src/apps/altcp_tls\altcp_tls_mbedtls.c ****       err = conn->connected(conn->arg, conn, ERR_OK);
 2907              		.loc 1 287 7 is_stmt 1
 288:C:/Users/stapi/OneDrive/Desktop/GD32VW553/GD32VW55X_Wifi_BLE_SDK/GD32VW55x_RELEASE_V1.0.2/MSDK/lwip/lwip-2.1.2/src/apps/altcp_tls\altcp_tls_mbedtls.c ****       if (err != ERR_OK) {
 2908              		.loc 1 288 7
 288:C:/Users/stapi/OneDrive/Desktop/GD32VW553/GD32VW55X_Wifi_BLE_SDK/GD32VW55x_RELEASE_V1.0.2/MSDK/lwip/lwip-2.1.2/src/apps/altcp_tls\altcp_tls_mbedtls.c ****       if (err != ERR_OK) {
 2909              		.loc 1 288 13 is_stmt 0
 2910 0150 8844     		lw	a0,8(s1)
 2911 0152 0146     		li	a2,0
 2912 0154 A685     		mv	a1,s1
 2913 0156 8297     		jalr	a5
 2914              	.LVL318:
 289:C:/Users/stapi/OneDrive/Desktop/GD32VW553/GD32VW55X_Wifi_BLE_SDK/GD32VW55x_RELEASE_V1.0.2/MSDK/lwip/lwip-2.1.2/src/apps/altcp_tls\altcp_tls_mbedtls.c ****         return err;
 2915              		.loc 1 289 7 is_stmt 1
 289:C:/Users/stapi/OneDrive/Desktop/GD32VW553/GD32VW55X_Wifi_BLE_SDK/GD32VW55x_RELEASE_V1.0.2/MSDK/lwip/lwip-2.1.2/src/apps/altcp_tls\altcp_tls_mbedtls.c ****         return err;
 2916              		.loc 1 289 10 is_stmt 0
 2917 0158 7DD5     		beq	a0,zero,.L334
 2918 015a D9B5     		j	.L317
 2919              	.LBE116:
 2920              	.LBE109:
 2921              		.cfi_endproc
 2922              	.LFE393:
 2924              		.section	.rodata.altcp_mbedtls_lower_recv.str1.4,"aMS",@progbits,1
 2925              		.align	2
 2926              	.LC18:
 2927 0000 6E6F2065 		.string	"no err expected"
 2927      72722065 
 2927      78706563 
 2927      74656400 
 2928              		.align	2
 2929              	.LC19:
 2930 0010 72782070 		.string	"rx pbuf overflow"
 2930      62756620 
 2930      6F766572 
 2930      666C6F77 
 2930      00
 2931              		.section	.text.altcp_mbedtls_lower_recv,"ax",@progbits
 2932              		.align	1
 2934              	altcp_mbedtls_lower_recv:
 2935              	.LFB392:
 186:C:/Users/stapi/OneDrive/Desktop/GD32VW553/GD32VW55X_Wifi_BLE_SDK/GD32VW55x_RELEASE_V1.0.2/MSDK/lwip/lwip-2.1.2/src/apps/altcp_tls\altcp_tls_mbedtls.c ****   altcp_mbedtls_state_t *state;
 2936              		.loc 1 186 1 is_stmt 1
 2937              		.cfi_startproc
 2938              	.LVL319:
 2939 0000 17030000 		call	t0,__riscv_save_4
 2939      E7020300 
 2940              		.cfi_offset 19, -20
 2941              		.cfi_offset 18, -16
 2942              		.cfi_offset 9, -12
 2943              		.cfi_offset 8, -8
 2944              		.cfi_offset 1, -4
 2945              		.cfi_def_cfa_offset 32
 187:C:/Users/stapi/OneDrive/Desktop/GD32VW553/GD32VW55X_Wifi_BLE_SDK/GD32VW55x_RELEASE_V1.0.2/MSDK/lwip/lwip-2.1.2/src/apps/altcp_tls\altcp_tls_mbedtls.c ****   struct altcp_pcb *conn = (struct altcp_pcb *)arg;
 2946              		.loc 1 187 3
 188:C:/Users/stapi/OneDrive/Desktop/GD32VW553/GD32VW55X_Wifi_BLE_SDK/GD32VW55x_RELEASE_V1.0.2/MSDK/lwip/lwip-2.1.2/src/apps/altcp_tls\altcp_tls_mbedtls.c **** 
 2947              		.loc 1 188 3
 2948              	.LVL320:
 190:C:/Users/stapi/OneDrive/Desktop/GD32VW553/GD32VW55X_Wifi_BLE_SDK/GD32VW55x_RELEASE_V1.0.2/MSDK/lwip/lwip-2.1.2/src/apps/altcp_tls\altcp_tls_mbedtls.c ****   LWIP_UNUSED_ARG(err);
 2949              		.loc 1 190 3
 190:C:/Users/stapi/OneDrive/Desktop/GD32VW553/GD32VW55X_Wifi_BLE_SDK/GD32VW55x_RELEASE_V1.0.2/MSDK/lwip/lwip-2.1.2/src/apps/altcp_tls\altcp_tls_mbedtls.c ****   LWIP_UNUSED_ARG(err);
 2950              		.loc 1 190 3
 2951 0008 85C6     		beq	a3,zero,.L354
 190:C:/Users/stapi/OneDrive/Desktop/GD32VW553/GD32VW55X_Wifi_BLE_SDK/GD32VW55x_RELEASE_V1.0.2/MSDK/lwip/lwip-2.1.2/src/apps/altcp_tls\altcp_tls_mbedtls.c ****   LWIP_UNUSED_ARG(err);
 2952              		.loc 1 190 3 discriminator 1
 190:C:/Users/stapi/OneDrive/Desktop/GD32VW553/GD32VW55X_Wifi_BLE_SDK/GD32VW55x_RELEASE_V1.0.2/MSDK/lwip/lwip-2.1.2/src/apps/altcp_tls\altcp_tls_mbedtls.c ****   LWIP_UNUSED_ARG(err);
 2953              		.loc 1 190 3 discriminator 1
 2954 000a B7060000 		lui	a3,%hi(.LC0)
 2955              	.LVL321:
 2956 000e B7050000 		lui	a1,%hi(.LC18)
 2957              	.LVL322:
 2958 0012 37050000 		lui	a0,%hi(.LC2)
 2959              	.LVL323:
 2960 0016 93860600 		addi	a3,a3,%lo(.LC0)
 2961 001a 1306E00B 		li	a2,190
 2962              	.LVL324:
 2963 001e 93850500 		addi	a1,a1,%lo(.LC18)
 2964 0022 13050500 		addi	a0,a0,%lo(.LC2)
 2965 0026 97000000 		call	printf
 2965      E7800000 
 2966              	.LVL325:
 2967              	.L355:
 190:C:/Users/stapi/OneDrive/Desktop/GD32VW553/GD32VW55X_Wifi_BLE_SDK/GD32VW55x_RELEASE_V1.0.2/MSDK/lwip/lwip-2.1.2/src/apps/altcp_tls\altcp_tls_mbedtls.c ****   LWIP_UNUSED_ARG(err);
 2968              		.loc 1 190 3 discriminator 1
 190:C:/Users/stapi/OneDrive/Desktop/GD32VW553/GD32VW55X_Wifi_BLE_SDK/GD32VW55x_RELEASE_V1.0.2/MSDK/lwip/lwip-2.1.2/src/apps/altcp_tls\altcp_tls_mbedtls.c ****   LWIP_UNUSED_ARG(err);
 2969              		.loc 1 190 3 discriminator 1
 190:C:/Users/stapi/OneDrive/Desktop/GD32VW553/GD32VW55X_Wifi_BLE_SDK/GD32VW55x_RELEASE_V1.0.2/MSDK/lwip/lwip-2.1.2/src/apps/altcp_tls\altcp_tls_mbedtls.c ****   LWIP_UNUSED_ARG(err);
 2970              		.loc 1 190 3 discriminator 1
 2971 002e 01A0     		j	.L355
 2972              	.LVL326:
 2973              	.L354:
 2974 0030 AE89     		mv	s3,a1
 2975 0032 2A84     		mv	s0,a0
 2976 0034 B285     		mv	a1,a2
 2977              	.LVL327:
 190:C:/Users/stapi/OneDrive/Desktop/GD32VW553/GD32VW55X_Wifi_BLE_SDK/GD32VW55x_RELEASE_V1.0.2/MSDK/lwip/lwip-2.1.2/src/apps/altcp_tls\altcp_tls_mbedtls.c ****   LWIP_UNUSED_ARG(err);
 2978              		.loc 1 190 3 discriminator 2
 190:C:/Users/stapi/OneDrive/Desktop/GD32VW553/GD32VW55X_Wifi_BLE_SDK/GD32VW55x_RELEASE_V1.0.2/MSDK/lwip/lwip-2.1.2/src/apps/altcp_tls\altcp_tls_mbedtls.c ****   LWIP_UNUSED_ARG(err);
 2979              		.loc 1 190 3 discriminator 2
 191:C:/Users/stapi/OneDrive/Desktop/GD32VW553/GD32VW55X_Wifi_BLE_SDK/GD32VW55x_RELEASE_V1.0.2/MSDK/lwip/lwip-2.1.2/src/apps/altcp_tls\altcp_tls_mbedtls.c **** 
 2980              		.loc 1 191 3 discriminator 2
 193:C:/Users/stapi/OneDrive/Desktop/GD32VW553/GD32VW55X_Wifi_BLE_SDK/GD32VW55x_RELEASE_V1.0.2/MSDK/lwip/lwip-2.1.2/src/apps/altcp_tls\altcp_tls_mbedtls.c ****     /* no connection given as arg? should not happen, but prevent pbuf/conn leaks */
 2981              		.loc 1 193 3 discriminator 2
 193:C:/Users/stapi/OneDrive/Desktop/GD32VW553/GD32VW55X_Wifi_BLE_SDK/GD32VW55x_RELEASE_V1.0.2/MSDK/lwip/lwip-2.1.2/src/apps/altcp_tls\altcp_tls_mbedtls.c ****     /* no connection given as arg? should not happen, but prevent pbuf/conn leaks */
 2982              		.loc 1 193 6 is_stmt 0 discriminator 2
 2983 0036 15E1     		bne	a0,zero,.L356
 2984              	.LVL328:
 2985              	.L382:
 195:C:/Users/stapi/OneDrive/Desktop/GD32VW553/GD32VW55X_Wifi_BLE_SDK/GD32VW55x_RELEASE_V1.0.2/MSDK/lwip/lwip-2.1.2/src/apps/altcp_tls\altcp_tls_mbedtls.c ****       pbuf_free(p);
 2986              		.loc 1 195 5 is_stmt 1
 195:C:/Users/stapi/OneDrive/Desktop/GD32VW553/GD32VW55X_Wifi_BLE_SDK/GD32VW55x_RELEASE_V1.0.2/MSDK/lwip/lwip-2.1.2/src/apps/altcp_tls\altcp_tls_mbedtls.c ****       pbuf_free(p);
 2987              		.loc 1 195 8 is_stmt 0
 2988 0038 91C5     		beq	a1,zero,.L357
 196:C:/Users/stapi/OneDrive/Desktop/GD32VW553/GD32VW55X_Wifi_BLE_SDK/GD32VW55x_RELEASE_V1.0.2/MSDK/lwip/lwip-2.1.2/src/apps/altcp_tls\altcp_tls_mbedtls.c ****     }
 2989              		.loc 1 196 7 is_stmt 1
 2990 003a 2E85     		mv	a0,a1
 2991 003c 97000000 		call	pbuf_free
 2991      E7800000 
 2992              	.LVL329:
 2993              	.L357:
 198:C:/Users/stapi/OneDrive/Desktop/GD32VW553/GD32VW55X_Wifi_BLE_SDK/GD32VW55x_RELEASE_V1.0.2/MSDK/lwip/lwip-2.1.2/src/apps/altcp_tls\altcp_tls_mbedtls.c ****     return ERR_CLSD;
 2994              		.loc 1 198 5
 2995 0044 4E85     		mv	a0,s3
 2996 0046 97000000 		call	altcp_close
 2996      E7800000 
 2997              	.LVL330:
 199:C:/Users/stapi/OneDrive/Desktop/GD32VW553/GD32VW55X_Wifi_BLE_SDK/GD32VW55x_RELEASE_V1.0.2/MSDK/lwip/lwip-2.1.2/src/apps/altcp_tls\altcp_tls_mbedtls.c ****   }
 2998              		.loc 1 199 5
 199:C:/Users/stapi/OneDrive/Desktop/GD32VW553/GD32VW55X_Wifi_BLE_SDK/GD32VW55x_RELEASE_V1.0.2/MSDK/lwip/lwip-2.1.2/src/apps/altcp_tls\altcp_tls_mbedtls.c ****   }
 2999              		.loc 1 199 12 is_stmt 0
 3000 004e C554     		li	s1,-15
 3001              	.L358:
 248:C:/Users/stapi/OneDrive/Desktop/GD32VW553/GD32VW55X_Wifi_BLE_SDK/GD32VW55x_RELEASE_V1.0.2/MSDK/lwip/lwip-2.1.2/src/apps/altcp_tls\altcp_tls_mbedtls.c **** 
 3002              		.loc 1 248 1
 3003 0050 2685     		mv	a0,s1
 3004 0052 17030000 		tail	__riscv_restore_4
 3004      67000300 
 3005              		.cfi_remember_state
 3006              		.cfi_restore 19
 3007              		.cfi_restore 18
 3008              		.cfi_restore 9
 3009              		.cfi_restore 8
 3010              		.cfi_restore 1
 3011              		.cfi_def_cfa_offset 0
 3012              	.LVL331:
 3013              	.L356:
 3014              		.cfi_restore_state
 3015              	.LBB119:
 3016              	.LBB120:
 201:C:/Users/stapi/OneDrive/Desktop/GD32VW553/GD32VW55X_Wifi_BLE_SDK/GD32VW55x_RELEASE_V1.0.2/MSDK/lwip/lwip-2.1.2/src/apps/altcp_tls\altcp_tls_mbedtls.c ****   LWIP_ASSERT("pcb mismatch", conn->inner_conn == inner_conn);
 3017              		.loc 1 201 3 is_stmt 1
 202:C:/Users/stapi/OneDrive/Desktop/GD32VW553/GD32VW55X_Wifi_BLE_SDK/GD32VW55x_RELEASE_V1.0.2/MSDK/lwip/lwip-2.1.2/src/apps/altcp_tls\altcp_tls_mbedtls.c ****   if (!state) {
 3018              		.loc 1 202 3
 202:C:/Users/stapi/OneDrive/Desktop/GD32VW553/GD32VW55X_Wifi_BLE_SDK/GD32VW55x_RELEASE_V1.0.2/MSDK/lwip/lwip-2.1.2/src/apps/altcp_tls\altcp_tls_mbedtls.c ****   if (!state) {
 3019              		.loc 1 202 3
 3020 005a 5C41     		lw	a5,4(a0)
 3021 005c 6385F902 		beq	s3,a5,.L359
 202:C:/Users/stapi/OneDrive/Desktop/GD32VW553/GD32VW55X_Wifi_BLE_SDK/GD32VW55x_RELEASE_V1.0.2/MSDK/lwip/lwip-2.1.2/src/apps/altcp_tls\altcp_tls_mbedtls.c ****   if (!state) {
 3022              		.loc 1 202 3
 202:C:/Users/stapi/OneDrive/Desktop/GD32VW553/GD32VW55X_Wifi_BLE_SDK/GD32VW55x_RELEASE_V1.0.2/MSDK/lwip/lwip-2.1.2/src/apps/altcp_tls\altcp_tls_mbedtls.c ****   if (!state) {
 3023              		.loc 1 202 3
 3024 0060 B7060000 		lui	a3,%hi(.LC0)
 3025              	.LVL332:
 3026 0064 B7050000 		lui	a1,%hi(.LC4)
 3027              	.LVL333:
 3028 0068 37050000 		lui	a0,%hi(.LC2)
 3029 006c 93860600 		addi	a3,a3,%lo(.LC0)
 3030 0070 1306A00C 		li	a2,202
 3031              	.LVL334:
 3032 0074 93850500 		addi	a1,a1,%lo(.LC4)
 3033 0078 13050500 		addi	a0,a0,%lo(.LC2)
 3034 007c 97000000 		call	printf
 3034      E7800000 
 3035              	.LVL335:
 3036              	.L360:
 202:C:/Users/stapi/OneDrive/Desktop/GD32VW553/GD32VW55X_Wifi_BLE_SDK/GD32VW55x_RELEASE_V1.0.2/MSDK/lwip/lwip-2.1.2/src/apps/altcp_tls\altcp_tls_mbedtls.c ****   if (!state) {
 3037              		.loc 1 202 3
 202:C:/Users/stapi/OneDrive/Desktop/GD32VW553/GD32VW55X_Wifi_BLE_SDK/GD32VW55x_RELEASE_V1.0.2/MSDK/lwip/lwip-2.1.2/src/apps/altcp_tls\altcp_tls_mbedtls.c ****   if (!state) {
 3038              		.loc 1 202 3
 202:C:/Users/stapi/OneDrive/Desktop/GD32VW553/GD32VW55X_Wifi_BLE_SDK/GD32VW55x_RELEASE_V1.0.2/MSDK/lwip/lwip-2.1.2/src/apps/altcp_tls\altcp_tls_mbedtls.c ****   if (!state) {
 3039              		.loc 1 202 3
 3040 0084 01A0     		j	.L360
 3041              	.LVL336:
 3042              	.L359:
 201:C:/Users/stapi/OneDrive/Desktop/GD32VW553/GD32VW55X_Wifi_BLE_SDK/GD32VW55x_RELEASE_V1.0.2/MSDK/lwip/lwip-2.1.2/src/apps/altcp_tls\altcp_tls_mbedtls.c ****   LWIP_ASSERT("pcb mismatch", conn->inner_conn == inner_conn);
 3043              		.loc 1 201 9 is_stmt 0
 3044 0086 0329C500 		lw	s2,12(a0)
 202:C:/Users/stapi/OneDrive/Desktop/GD32VW553/GD32VW55X_Wifi_BLE_SDK/GD32VW55x_RELEASE_V1.0.2/MSDK/lwip/lwip-2.1.2/src/apps/altcp_tls\altcp_tls_mbedtls.c ****   if (!state) {
 3045              		.loc 1 202 3 is_stmt 1
 202:C:/Users/stapi/OneDrive/Desktop/GD32VW553/GD32VW55X_Wifi_BLE_SDK/GD32VW55x_RELEASE_V1.0.2/MSDK/lwip/lwip-2.1.2/src/apps/altcp_tls\altcp_tls_mbedtls.c ****   if (!state) {
 3046              		.loc 1 202 3
 203:C:/Users/stapi/OneDrive/Desktop/GD32VW553/GD32VW55X_Wifi_BLE_SDK/GD32VW55x_RELEASE_V1.0.2/MSDK/lwip/lwip-2.1.2/src/apps/altcp_tls\altcp_tls_mbedtls.c ****     /* already closed */
 3047              		.loc 1 203 3
 203:C:/Users/stapi/OneDrive/Desktop/GD32VW553/GD32VW55X_Wifi_BLE_SDK/GD32VW55x_RELEASE_V1.0.2/MSDK/lwip/lwip-2.1.2/src/apps/altcp_tls\altcp_tls_mbedtls.c ****     /* already closed */
 3048              		.loc 1 203 6 is_stmt 0
 3049 008a E30709FA 		beq	s2,zero,.L382
 213:C:/Users/stapi/OneDrive/Desktop/GD32VW553/GD32VW55X_Wifi_BLE_SDK/GD32VW55x_RELEASE_V1.0.2/MSDK/lwip/lwip-2.1.2/src/apps/altcp_tls\altcp_tls_mbedtls.c ****     /* remote host sent FIN, remember this (SSL state is destroyed
 3050              		.loc 1 213 3 is_stmt 1
 213:C:/Users/stapi/OneDrive/Desktop/GD32VW553/GD32VW55X_Wifi_BLE_SDK/GD32VW55x_RELEASE_V1.0.2/MSDK/lwip/lwip-2.1.2/src/apps/altcp_tls\altcp_tls_mbedtls.c ****     /* remote host sent FIN, remember this (SSL state is destroyed
 3051              		.loc 1 213 6 is_stmt 0
 3052 008e 25E2     		bne	a2,zero,.L363
 216:C:/Users/stapi/OneDrive/Desktop/GD32VW553/GD32VW55X_Wifi_BLE_SDK/GD32VW55x_RELEASE_V1.0.2/MSDK/lwip/lwip-2.1.2/src/apps/altcp_tls\altcp_tls_mbedtls.c ****         (ALTCP_MBEDTLS_FLAGS_HANDSHAKE_DONE | ALTCP_MBEDTLS_FLAGS_UPPER_CALLED)) {
 3053              		.loc 1 216 15
 3054 0090 83478915 		lbu	a5,344(s2)
 216:C:/Users/stapi/OneDrive/Desktop/GD32VW553/GD32VW55X_Wifi_BLE_SDK/GD32VW55x_RELEASE_V1.0.2/MSDK/lwip/lwip-2.1.2/src/apps/altcp_tls\altcp_tls_mbedtls.c ****         (ALTCP_MBEDTLS_FLAGS_HANDSHAKE_DONE | ALTCP_MBEDTLS_FLAGS_UPPER_CALLED)) {
 3055              		.loc 1 216 8
 3056 0094 0D47     		li	a4,3
 3057 0096 B684     		mv	s1,a3
 216:C:/Users/stapi/OneDrive/Desktop/GD32VW553/GD32VW55X_Wifi_BLE_SDK/GD32VW55x_RELEASE_V1.0.2/MSDK/lwip/lwip-2.1.2/src/apps/altcp_tls\altcp_tls_mbedtls.c ****         (ALTCP_MBEDTLS_FLAGS_HANDSHAKE_DONE | ALTCP_MBEDTLS_FLAGS_UPPER_CALLED)) {
 3058              		.loc 1 216 5 is_stmt 1
 216:C:/Users/stapi/OneDrive/Desktop/GD32VW553/GD32VW55X_Wifi_BLE_SDK/GD32VW55x_RELEASE_V1.0.2/MSDK/lwip/lwip-2.1.2/src/apps/altcp_tls\altcp_tls_mbedtls.c ****         (ALTCP_MBEDTLS_FLAGS_HANDSHAKE_DONE | ALTCP_MBEDTLS_FLAGS_UPPER_CALLED)) {
 3059              		.loc 1 216 8 is_stmt 0
 3060 0098 93F53700 		andi	a1,a5,3
 3061              	.LVL337:
 3062 009c 639EE502 		bne	a1,a4,.L364
 219:C:/Users/stapi/OneDrive/Desktop/GD32VW553/GD32VW55X_Wifi_BLE_SDK/GD32VW55x_RELEASE_V1.0.2/MSDK/lwip/lwip-2.1.2/src/apps/altcp_tls\altcp_tls_mbedtls.c ****         state->flags |= ALTCP_MBEDTLS_FLAGS_RX_CLOSE_QUEUED;
 3063              		.loc 1 219 7 is_stmt 1
 219:C:/Users/stapi/OneDrive/Desktop/GD32VW553/GD32VW55X_Wifi_BLE_SDK/GD32VW55x_RELEASE_V1.0.2/MSDK/lwip/lwip-2.1.2/src/apps/altcp_tls\altcp_tls_mbedtls.c ****         state->flags |= ALTCP_MBEDTLS_FLAGS_RX_CLOSE_QUEUED;
 3064              		.loc 1 219 10 is_stmt 0
 3065 00a0 03270915 		lw	a4,336(s2)
 3066 00a4 01E7     		bne	a4,zero,.L365
 219:C:/Users/stapi/OneDrive/Desktop/GD32VW553/GD32VW55X_Wifi_BLE_SDK/GD32VW55x_RELEASE_V1.0.2/MSDK/lwip/lwip-2.1.2/src/apps/altcp_tls\altcp_tls_mbedtls.c ****         state->flags |= ALTCP_MBEDTLS_FLAGS_RX_CLOSE_QUEUED;
 3067              		.loc 1 219 31
 3068 00a6 03274915 		lw	a4,340(s2)
 3069 00aa 01CF     		beq	a4,zero,.L366
 3070              	.L365:
 220:C:/Users/stapi/OneDrive/Desktop/GD32VW553/GD32VW55X_Wifi_BLE_SDK/GD32VW55x_RELEASE_V1.0.2/MSDK/lwip/lwip-2.1.2/src/apps/altcp_tls\altcp_tls_mbedtls.c ****         /* this is a normal close (FIN) but we have unprocessed data, so delay the FIN */
 3071              		.loc 1 220 9 is_stmt 1
 220:C:/Users/stapi/OneDrive/Desktop/GD32VW553/GD32VW55X_Wifi_BLE_SDK/GD32VW55x_RELEASE_V1.0.2/MSDK/lwip/lwip-2.1.2/src/apps/altcp_tls\altcp_tls_mbedtls.c ****         /* this is a normal close (FIN) but we have unprocessed data, so delay the FIN */
 3072              		.loc 1 220 22 is_stmt 0
 3073 00ac 93E74700 		ori	a5,a5,4
 3074 00b0 230CF914 		sb	a5,344(s2)
 3075              	.LVL338:
 222:C:/Users/stapi/OneDrive/Desktop/GD32VW553/GD32VW55X_Wifi_BLE_SDK/GD32VW55x_RELEASE_V1.0.2/MSDK/lwip/lwip-2.1.2/src/apps/altcp_tls\altcp_tls_mbedtls.c ****         return ERR_OK;
 3076              		.loc 1 222 9 is_stmt 1
 3077 00b4 CA85     		mv	a1,s2
 3078 00b6 2285     		mv	a0,s0
 3079 00b8 97000000 		call	altcp_mbedtls_handle_rx_appldata
 3079      E7800000 
 3080              	.LVL339:
 223:C:/Users/stapi/OneDrive/Desktop/GD32VW553/GD32VW55X_Wifi_BLE_SDK/GD32VW55x_RELEASE_V1.0.2/MSDK/lwip/lwip-2.1.2/src/apps/altcp_tls\altcp_tls_mbedtls.c ****       }
 3081              		.loc 1 223 9
 223:C:/Users/stapi/OneDrive/Desktop/GD32VW553/GD32VW55X_Wifi_BLE_SDK/GD32VW55x_RELEASE_V1.0.2/MSDK/lwip/lwip-2.1.2/src/apps/altcp_tls\altcp_tls_mbedtls.c ****       }
 3082              		.loc 1 223 16 is_stmt 0
 3083 00c0 41BF     		j	.L358
 3084              	.LVL340:
 3085              	.L366:
 225:C:/Users/stapi/OneDrive/Desktop/GD32VW553/GD32VW55X_Wifi_BLE_SDK/GD32VW55x_RELEASE_V1.0.2/MSDK/lwip/lwip-2.1.2/src/apps/altcp_tls\altcp_tls_mbedtls.c ****       if (conn->recv) {
 3086              		.loc 1 225 7 is_stmt 1
 225:C:/Users/stapi/OneDrive/Desktop/GD32VW553/GD32VW55X_Wifi_BLE_SDK/GD32VW55x_RELEASE_V1.0.2/MSDK/lwip/lwip-2.1.2/src/apps/altcp_tls\altcp_tls_mbedtls.c ****       if (conn->recv) {
 3087              		.loc 1 225 20 is_stmt 0
 3088 00c2 93E78700 		ori	a5,a5,8
 3089 00c6 230CF914 		sb	a5,344(s2)
 3090              	.LVL341:
 226:C:/Users/stapi/OneDrive/Desktop/GD32VW553/GD32VW55X_Wifi_BLE_SDK/GD32VW55x_RELEASE_V1.0.2/MSDK/lwip/lwip-2.1.2/src/apps/altcp_tls\altcp_tls_mbedtls.c ****         return conn->recv(conn->arg, conn, NULL, ERR_OK);
 3091              		.loc 1 226 7 is_stmt 1
 226:C:/Users/stapi/OneDrive/Desktop/GD32VW553/GD32VW55X_Wifi_BLE_SDK/GD32VW55x_RELEASE_V1.0.2/MSDK/lwip/lwip-2.1.2/src/apps/altcp_tls\altcp_tls_mbedtls.c ****         return conn->recv(conn->arg, conn, NULL, ERR_OK);
 3092              		.loc 1 226 15 is_stmt 0
 3093 00ca 1C4D     		lw	a5,24(a0)
 226:C:/Users/stapi/OneDrive/Desktop/GD32VW553/GD32VW55X_Wifi_BLE_SDK/GD32VW55x_RELEASE_V1.0.2/MSDK/lwip/lwip-2.1.2/src/apps/altcp_tls\altcp_tls_mbedtls.c ****         return conn->recv(conn->arg, conn, NULL, ERR_OK);
 3094              		.loc 1 226 10
 3095 00cc D1D3     		beq	a5,zero,.L358
 227:C:/Users/stapi/OneDrive/Desktop/GD32VW553/GD32VW55X_Wifi_BLE_SDK/GD32VW55x_RELEASE_V1.0.2/MSDK/lwip/lwip-2.1.2/src/apps/altcp_tls\altcp_tls_mbedtls.c ****       }
 3096              		.loc 1 227 9 is_stmt 1
 227:C:/Users/stapi/OneDrive/Desktop/GD32VW553/GD32VW55X_Wifi_BLE_SDK/GD32VW55x_RELEASE_V1.0.2/MSDK/lwip/lwip-2.1.2/src/apps/altcp_tls\altcp_tls_mbedtls.c ****       }
 3097              		.loc 1 227 16 is_stmt 0
 3098 00ce AA85     		mv	a1,a0
 3099 00d0 0845     		lw	a0,8(a0)
 3100 00d2 8297     		jalr	a5
 3101              	.LVL342:
 3102              	.L383:
 247:C:/Users/stapi/OneDrive/Desktop/GD32VW553/GD32VW55X_Wifi_BLE_SDK/GD32VW55x_RELEASE_V1.0.2/MSDK/lwip/lwip-2.1.2/src/apps/altcp_tls\altcp_tls_mbedtls.c **** }
 3103              		.loc 1 247 10
 3104 00d4 AA84     		mv	s1,a0
 3105 00d6 ADBF     		j	.L358
 3106              	.LVL343:
 3107              	.L364:
 231:C:/Users/stapi/OneDrive/Desktop/GD32VW553/GD32VW55X_Wifi_BLE_SDK/GD32VW55x_RELEASE_V1.0.2/MSDK/lwip/lwip-2.1.2/src/apps/altcp_tls\altcp_tls_mbedtls.c ****         conn->err(conn->arg, ERR_CLSD);
 3108              		.loc 1 231 7 is_stmt 1
 231:C:/Users/stapi/OneDrive/Desktop/GD32VW553/GD32VW55X_Wifi_BLE_SDK/GD32VW55x_RELEASE_V1.0.2/MSDK/lwip/lwip-2.1.2/src/apps/altcp_tls\altcp_tls_mbedtls.c ****         conn->err(conn->arg, ERR_CLSD);
 3109              		.loc 1 231 15 is_stmt 0
 3110 00d8 5C51     		lw	a5,36(a0)
 231:C:/Users/stapi/OneDrive/Desktop/GD32VW553/GD32VW55X_Wifi_BLE_SDK/GD32VW55x_RELEASE_V1.0.2/MSDK/lwip/lwip-2.1.2/src/apps/altcp_tls\altcp_tls_mbedtls.c ****         conn->err(conn->arg, ERR_CLSD);
 3111              		.loc 1 231 10
 3112 00da 81C7     		beq	a5,zero,.L367
 232:C:/Users/stapi/OneDrive/Desktop/GD32VW553/GD32VW55X_Wifi_BLE_SDK/GD32VW55x_RELEASE_V1.0.2/MSDK/lwip/lwip-2.1.2/src/apps/altcp_tls\altcp_tls_mbedtls.c ****       }
 3113              		.loc 1 232 9 is_stmt 1
 3114 00dc 0845     		lw	a0,8(a0)
 3115 00de C555     		li	a1,-15
 3116 00e0 8297     		jalr	a5
 3117              	.LVL344:
 3118              	.L367:
 234:C:/Users/stapi/OneDrive/Desktop/GD32VW553/GD32VW55X_Wifi_BLE_SDK/GD32VW55x_RELEASE_V1.0.2/MSDK/lwip/lwip-2.1.2/src/apps/altcp_tls\altcp_tls_mbedtls.c ****     }
 3119              		.loc 1 234 7
 3120 00e2 2285     		mv	a0,s0
 3121 00e4 97000000 		call	altcp_close
 3121      E7800000 
 3122              	.LVL345:
 3123 00ec 95B7     		j	.L358
 3124              	.LVL346:
 3125              	.L363:
 241:C:/Users/stapi/OneDrive/Desktop/GD32VW553/GD32VW55X_Wifi_BLE_SDK/GD32VW55x_RELEASE_V1.0.2/MSDK/lwip/lwip-2.1.2/src/apps/altcp_tls\altcp_tls_mbedtls.c ****     state->rx = p;
 3126              		.loc 1 241 3
 241:C:/Users/stapi/OneDrive/Desktop/GD32VW553/GD32VW55X_Wifi_BLE_SDK/GD32VW55x_RELEASE_V1.0.2/MSDK/lwip/lwip-2.1.2/src/apps/altcp_tls\altcp_tls_mbedtls.c ****     state->rx = p;
 3127              		.loc 1 241 12 is_stmt 0
 3128 00ee 03250915 		lw	a0,336(s2)
 241:C:/Users/stapi/OneDrive/Desktop/GD32VW553/GD32VW55X_Wifi_BLE_SDK/GD32VW55x_RELEASE_V1.0.2/MSDK/lwip/lwip-2.1.2/src/apps/altcp_tls\altcp_tls_mbedtls.c ****     state->rx = p;
 3129              		.loc 1 241 6
 3130 00f2 11E9     		bne	a0,zero,.L368
 242:C:/Users/stapi/OneDrive/Desktop/GD32VW553/GD32VW55X_Wifi_BLE_SDK/GD32VW55x_RELEASE_V1.0.2/MSDK/lwip/lwip-2.1.2/src/apps/altcp_tls\altcp_tls_mbedtls.c ****   } else {
 3131              		.loc 1 242 5 is_stmt 1
 242:C:/Users/stapi/OneDrive/Desktop/GD32VW553/GD32VW55X_Wifi_BLE_SDK/GD32VW55x_RELEASE_V1.0.2/MSDK/lwip/lwip-2.1.2/src/apps/altcp_tls\altcp_tls_mbedtls.c ****   } else {
 3132              		.loc 1 242 15 is_stmt 0
 3133 00f4 2328C914 		sw	a2,336(s2)
 3134              	.LVL347:
 3135              	.L369:
 247:C:/Users/stapi/OneDrive/Desktop/GD32VW553/GD32VW55X_Wifi_BLE_SDK/GD32VW55x_RELEASE_V1.0.2/MSDK/lwip/lwip-2.1.2/src/apps/altcp_tls\altcp_tls_mbedtls.c **** }
 3136              		.loc 1 247 3 is_stmt 1
 247:C:/Users/stapi/OneDrive/Desktop/GD32VW553/GD32VW55X_Wifi_BLE_SDK/GD32VW55x_RELEASE_V1.0.2/MSDK/lwip/lwip-2.1.2/src/apps/altcp_tls\altcp_tls_mbedtls.c **** }
 3137              		.loc 1 247 10 is_stmt 0
 3138 00f8 CA85     		mv	a1,s2
 3139 00fa 2285     		mv	a0,s0
 3140 00fc 97000000 		call	altcp_mbedtls_lower_recv_process
 3140      E7800000 
 3141              	.LVL348:
 3142 0104 C1BF     		j	.L383
 3143              	.LVL349:
 3144              	.L368:
 244:C:/Users/stapi/OneDrive/Desktop/GD32VW553/GD32VW55X_Wifi_BLE_SDK/GD32VW55x_RELEASE_V1.0.2/MSDK/lwip/lwip-2.1.2/src/apps/altcp_tls\altcp_tls_mbedtls.c ****     pbuf_cat(state->rx, p);
 3145              		.loc 1 244 5 is_stmt 1
 244:C:/Users/stapi/OneDrive/Desktop/GD32VW553/GD32VW55X_Wifi_BLE_SDK/GD32VW55x_RELEASE_V1.0.2/MSDK/lwip/lwip-2.1.2/src/apps/altcp_tls\altcp_tls_mbedtls.c ****     pbuf_cat(state->rx, p);
 3146              		.loc 1 244 5
 3147 0106 0357A600 		lhu	a4,10(a2)
 3148 010a 83578600 		lhu	a5,8(a2)
 3149 010e BA97     		add	a5,a5,a4
 3150 0110 4167     		li	a4,65536
 3151 0112 63C5E702 		blt	a5,a4,.L370
 244:C:/Users/stapi/OneDrive/Desktop/GD32VW553/GD32VW55X_Wifi_BLE_SDK/GD32VW55x_RELEASE_V1.0.2/MSDK/lwip/lwip-2.1.2/src/apps/altcp_tls\altcp_tls_mbedtls.c ****     pbuf_cat(state->rx, p);
 3152              		.loc 1 244 5
 244:C:/Users/stapi/OneDrive/Desktop/GD32VW553/GD32VW55X_Wifi_BLE_SDK/GD32VW55x_RELEASE_V1.0.2/MSDK/lwip/lwip-2.1.2/src/apps/altcp_tls\altcp_tls_mbedtls.c ****     pbuf_cat(state->rx, p);
 3153              		.loc 1 244 5
 3154 0116 B7060000 		lui	a3,%hi(.LC0)
 3155              	.LVL350:
 3156 011a B7050000 		lui	a1,%hi(.LC19)
 3157              	.LVL351:
 3158 011e 37050000 		lui	a0,%hi(.LC2)
 3159 0122 93860600 		addi	a3,a3,%lo(.LC0)
 3160 0126 1306400F 		li	a2,244
 3161              	.LVL352:
 3162 012a 93850500 		addi	a1,a1,%lo(.LC19)
 3163 012e 13050500 		addi	a0,a0,%lo(.LC2)
 3164 0132 97000000 		call	printf
 3164      E7800000 
 3165              	.LVL353:
 3166              	.L371:
 244:C:/Users/stapi/OneDrive/Desktop/GD32VW553/GD32VW55X_Wifi_BLE_SDK/GD32VW55x_RELEASE_V1.0.2/MSDK/lwip/lwip-2.1.2/src/apps/altcp_tls\altcp_tls_mbedtls.c ****     pbuf_cat(state->rx, p);
 3167              		.loc 1 244 5
 244:C:/Users/stapi/OneDrive/Desktop/GD32VW553/GD32VW55X_Wifi_BLE_SDK/GD32VW55x_RELEASE_V1.0.2/MSDK/lwip/lwip-2.1.2/src/apps/altcp_tls\altcp_tls_mbedtls.c ****     pbuf_cat(state->rx, p);
 3168              		.loc 1 244 5
 244:C:/Users/stapi/OneDrive/Desktop/GD32VW553/GD32VW55X_Wifi_BLE_SDK/GD32VW55x_RELEASE_V1.0.2/MSDK/lwip/lwip-2.1.2/src/apps/altcp_tls\altcp_tls_mbedtls.c ****     pbuf_cat(state->rx, p);
 3169              		.loc 1 244 5
 3170 013a 01A0     		j	.L371
 3171              	.LVL354:
 3172              	.L370:
 244:C:/Users/stapi/OneDrive/Desktop/GD32VW553/GD32VW55X_Wifi_BLE_SDK/GD32VW55x_RELEASE_V1.0.2/MSDK/lwip/lwip-2.1.2/src/apps/altcp_tls\altcp_tls_mbedtls.c ****     pbuf_cat(state->rx, p);
 3173              		.loc 1 244 5
 244:C:/Users/stapi/OneDrive/Desktop/GD32VW553/GD32VW55X_Wifi_BLE_SDK/GD32VW55x_RELEASE_V1.0.2/MSDK/lwip/lwip-2.1.2/src/apps/altcp_tls\altcp_tls_mbedtls.c ****     pbuf_cat(state->rx, p);
 3174              		.loc 1 244 5
 245:C:/Users/stapi/OneDrive/Desktop/GD32VW553/GD32VW55X_Wifi_BLE_SDK/GD32VW55x_RELEASE_V1.0.2/MSDK/lwip/lwip-2.1.2/src/apps/altcp_tls\altcp_tls_mbedtls.c ****   }
 3175              		.loc 1 245 5
 3176 013c 97000000 		call	pbuf_cat
 3176      E7800000 
 3177              	.LVL355:
 3178 0144 55BF     		j	.L369
 3179              	.LBE120:
 3180              	.LBE119:
 3181              		.cfi_endproc
 3182              	.LFE392:
 3184              		.section	.text.altcp_mbedtls_lower_connected,"ax",@progbits
 3185              		.align	1
 3187              	altcp_mbedtls_lower_connected:
 3188              	.LFB390:
 153:C:/Users/stapi/OneDrive/Desktop/GD32VW553/GD32VW55X_Wifi_BLE_SDK/GD32VW55x_RELEASE_V1.0.2/MSDK/lwip/lwip-2.1.2/src/apps/altcp_tls\altcp_tls_mbedtls.c ****   struct altcp_pcb *conn = (struct altcp_pcb *)arg;
 3189              		.loc 1 153 1
 3190              		.cfi_startproc
 3191              	.LVL356:
 154:C:/Users/stapi/OneDrive/Desktop/GD32VW553/GD32VW55X_Wifi_BLE_SDK/GD32VW55x_RELEASE_V1.0.2/MSDK/lwip/lwip-2.1.2/src/apps/altcp_tls\altcp_tls_mbedtls.c ****   LWIP_UNUSED_ARG(inner_conn); /* for LWIP_NOASSERT */
 3192              		.loc 1 154 3
 155:C:/Users/stapi/OneDrive/Desktop/GD32VW553/GD32VW55X_Wifi_BLE_SDK/GD32VW55x_RELEASE_V1.0.2/MSDK/lwip/lwip-2.1.2/src/apps/altcp_tls\altcp_tls_mbedtls.c ****   if (conn && conn->state) {
 3193              		.loc 1 155 3
 156:C:/Users/stapi/OneDrive/Desktop/GD32VW553/GD32VW55X_Wifi_BLE_SDK/GD32VW55x_RELEASE_V1.0.2/MSDK/lwip/lwip-2.1.2/src/apps/altcp_tls\altcp_tls_mbedtls.c ****     LWIP_ASSERT("pcb mismatch", conn->inner_conn == inner_conn);
 3194              		.loc 1 156 3
 156:C:/Users/stapi/OneDrive/Desktop/GD32VW553/GD32VW55X_Wifi_BLE_SDK/GD32VW55x_RELEASE_V1.0.2/MSDK/lwip/lwip-2.1.2/src/apps/altcp_tls\altcp_tls_mbedtls.c ****     LWIP_ASSERT("pcb mismatch", conn->inner_conn == inner_conn);
 3195              		.loc 1 156 6 is_stmt 0
 3196 0000 29CD     		beq	a0,zero,.L390
 3197 0002 2E87     		mv	a4,a1
 156:C:/Users/stapi/OneDrive/Desktop/GD32VW553/GD32VW55X_Wifi_BLE_SDK/GD32VW55x_RELEASE_V1.0.2/MSDK/lwip/lwip-2.1.2/src/apps/altcp_tls\altcp_tls_mbedtls.c ****     LWIP_ASSERT("pcb mismatch", conn->inner_conn == inner_conn);
 3198              		.loc 1 156 19 discriminator 1
 3199 0004 4C45     		lw	a1,12(a0)
 3200              	.LVL357:
 156:C:/Users/stapi/OneDrive/Desktop/GD32VW553/GD32VW55X_Wifi_BLE_SDK/GD32VW55x_RELEASE_V1.0.2/MSDK/lwip/lwip-2.1.2/src/apps/altcp_tls\altcp_tls_mbedtls.c ****     LWIP_ASSERT("pcb mismatch", conn->inner_conn == inner_conn);
 3201              		.loc 1 156 12 discriminator 1
 3202 0006 B1C9     		beq	a1,zero,.L390
 153:C:/Users/stapi/OneDrive/Desktop/GD32VW553/GD32VW55X_Wifi_BLE_SDK/GD32VW55x_RELEASE_V1.0.2/MSDK/lwip/lwip-2.1.2/src/apps/altcp_tls\altcp_tls_mbedtls.c ****   struct altcp_pcb *conn = (struct altcp_pcb *)arg;
 3203              		.loc 1 153 1
 3204 0008 17030000 		call	t0,__riscv_save_0
 3204      E7020300 
 3205              		.cfi_offset 1, -4
 3206              		.cfi_def_cfa_offset 16
 157:C:/Users/stapi/OneDrive/Desktop/GD32VW553/GD32VW55X_Wifi_BLE_SDK/GD32VW55x_RELEASE_V1.0.2/MSDK/lwip/lwip-2.1.2/src/apps/altcp_tls\altcp_tls_mbedtls.c ****     /* upper connected is called when handshake is done */
 3207              		.loc 1 157 5 is_stmt 1
 157:C:/Users/stapi/OneDrive/Desktop/GD32VW553/GD32VW55X_Wifi_BLE_SDK/GD32VW55x_RELEASE_V1.0.2/MSDK/lwip/lwip-2.1.2/src/apps/altcp_tls\altcp_tls_mbedtls.c ****     /* upper connected is called when handshake is done */
 3208              		.loc 1 157 5
 3209 0010 5441     		lw	a3,4(a0)
 3210 0012 6385E602 		beq	a3,a4,.L386
 157:C:/Users/stapi/OneDrive/Desktop/GD32VW553/GD32VW55X_Wifi_BLE_SDK/GD32VW55x_RELEASE_V1.0.2/MSDK/lwip/lwip-2.1.2/src/apps/altcp_tls\altcp_tls_mbedtls.c ****     /* upper connected is called when handshake is done */
 3211              		.loc 1 157 5 discriminator 1
 157:C:/Users/stapi/OneDrive/Desktop/GD32VW553/GD32VW55X_Wifi_BLE_SDK/GD32VW55x_RELEASE_V1.0.2/MSDK/lwip/lwip-2.1.2/src/apps/altcp_tls\altcp_tls_mbedtls.c ****     /* upper connected is called when handshake is done */
 3212              		.loc 1 157 5 discriminator 1
 3213 0016 B7060000 		lui	a3,%hi(.LC0)
 3214 001a B7050000 		lui	a1,%hi(.LC4)
 3215 001e 37050000 		lui	a0,%hi(.LC2)
 3216              	.LVL358:
 3217 0022 93860600 		addi	a3,a3,%lo(.LC0)
 3218 0026 1306D009 		li	a2,157
 3219              	.LVL359:
 3220 002a 93850500 		addi	a1,a1,%lo(.LC4)
 3221 002e 13050500 		addi	a0,a0,%lo(.LC2)
 3222 0032 97000000 		call	printf
 3222      E7800000 
 3223              	.LVL360:
 3224              	.L387:
 157:C:/Users/stapi/OneDrive/Desktop/GD32VW553/GD32VW55X_Wifi_BLE_SDK/GD32VW55x_RELEASE_V1.0.2/MSDK/lwip/lwip-2.1.2/src/apps/altcp_tls\altcp_tls_mbedtls.c ****     /* upper connected is called when handshake is done */
 3225              		.loc 1 157 5 discriminator 1
 157:C:/Users/stapi/OneDrive/Desktop/GD32VW553/GD32VW55X_Wifi_BLE_SDK/GD32VW55x_RELEASE_V1.0.2/MSDK/lwip/lwip-2.1.2/src/apps/altcp_tls\altcp_tls_mbedtls.c ****     /* upper connected is called when handshake is done */
 3226              		.loc 1 157 5 discriminator 1
 157:C:/Users/stapi/OneDrive/Desktop/GD32VW553/GD32VW55X_Wifi_BLE_SDK/GD32VW55x_RELEASE_V1.0.2/MSDK/lwip/lwip-2.1.2/src/apps/altcp_tls\altcp_tls_mbedtls.c ****     /* upper connected is called when handshake is done */
 3227              		.loc 1 157 5 discriminator 1
 3228 003a 01A0     		j	.L387
 3229              	.LVL361:
 3230              	.L386:
 157:C:/Users/stapi/OneDrive/Desktop/GD32VW553/GD32VW55X_Wifi_BLE_SDK/GD32VW55x_RELEASE_V1.0.2/MSDK/lwip/lwip-2.1.2/src/apps/altcp_tls\altcp_tls_mbedtls.c ****     /* upper connected is called when handshake is done */
 3231              		.loc 1 157 5 discriminator 2
 157:C:/Users/stapi/OneDrive/Desktop/GD32VW553/GD32VW55X_Wifi_BLE_SDK/GD32VW55x_RELEASE_V1.0.2/MSDK/lwip/lwip-2.1.2/src/apps/altcp_tls\altcp_tls_mbedtls.c ****     /* upper connected is called when handshake is done */
 3232              		.loc 1 157 5 discriminator 2
 159:C:/Users/stapi/OneDrive/Desktop/GD32VW553/GD32VW55X_Wifi_BLE_SDK/GD32VW55x_RELEASE_V1.0.2/MSDK/lwip/lwip-2.1.2/src/apps/altcp_tls\altcp_tls_mbedtls.c ****       if (conn->connected) {
 3233              		.loc 1 159 5 discriminator 2
 159:C:/Users/stapi/OneDrive/Desktop/GD32VW553/GD32VW55X_Wifi_BLE_SDK/GD32VW55x_RELEASE_V1.0.2/MSDK/lwip/lwip-2.1.2/src/apps/altcp_tls\altcp_tls_mbedtls.c ****       if (conn->connected) {
 3234              		.loc 1 159 8 is_stmt 0 discriminator 2
 3235 003c 11CA     		beq	a2,zero,.L388
 160:C:/Users/stapi/OneDrive/Desktop/GD32VW553/GD32VW55X_Wifi_BLE_SDK/GD32VW55x_RELEASE_V1.0.2/MSDK/lwip/lwip-2.1.2/src/apps/altcp_tls\altcp_tls_mbedtls.c ****         return conn->connected(conn->arg, conn, err);
 3236              		.loc 1 160 7 is_stmt 1
 160:C:/Users/stapi/OneDrive/Desktop/GD32VW553/GD32VW55X_Wifi_BLE_SDK/GD32VW55x_RELEASE_V1.0.2/MSDK/lwip/lwip-2.1.2/src/apps/altcp_tls\altcp_tls_mbedtls.c ****         return conn->connected(conn->arg, conn, err);
 3237              		.loc 1 160 15 is_stmt 0
 3238 003e 5C49     		lw	a5,20(a0)
 160:C:/Users/stapi/OneDrive/Desktop/GD32VW553/GD32VW55X_Wifi_BLE_SDK/GD32VW55x_RELEASE_V1.0.2/MSDK/lwip/lwip-2.1.2/src/apps/altcp_tls\altcp_tls_mbedtls.c ****         return conn->connected(conn->arg, conn, err);
 3239              		.loc 1 160 10
 3240 0040 81CB     		beq	a5,zero,.L388
 161:C:/Users/stapi/OneDrive/Desktop/GD32VW553/GD32VW55X_Wifi_BLE_SDK/GD32VW55x_RELEASE_V1.0.2/MSDK/lwip/lwip-2.1.2/src/apps/altcp_tls\altcp_tls_mbedtls.c ****       }
 3241              		.loc 1 161 9 is_stmt 1
 161:C:/Users/stapi/OneDrive/Desktop/GD32VW553/GD32VW55X_Wifi_BLE_SDK/GD32VW55x_RELEASE_V1.0.2/MSDK/lwip/lwip-2.1.2/src/apps/altcp_tls\altcp_tls_mbedtls.c ****       }
 3242              		.loc 1 161 16 is_stmt 0
 3243 0042 AA85     		mv	a1,a0
 3244 0044 0845     		lw	a0,8(a0)
 3245              	.LVL362:
 3246 0046 8297     		jalr	a5
 3247              	.LVL363:
 3248              	.L385:
 167:C:/Users/stapi/OneDrive/Desktop/GD32VW553/GD32VW55X_Wifi_BLE_SDK/GD32VW55x_RELEASE_V1.0.2/MSDK/lwip/lwip-2.1.2/src/apps/altcp_tls\altcp_tls_mbedtls.c **** 
 3249              		.loc 1 167 1
 3250 0048 17030000 		tail	__riscv_restore_0
 3250      67000300 
 3251              		.cfi_remember_state
 3252              		.cfi_restore 1
 3253              		.cfi_def_cfa_offset 0
 3254              	.LVL364:
 3255              	.L388:
 3256              		.cfi_restore_state
 164:C:/Users/stapi/OneDrive/Desktop/GD32VW553/GD32VW55X_Wifi_BLE_SDK/GD32VW55x_RELEASE_V1.0.2/MSDK/lwip/lwip-2.1.2/src/apps/altcp_tls\altcp_tls_mbedtls.c ****   }
 3257              		.loc 1 164 5 is_stmt 1
 164:C:/Users/stapi/OneDrive/Desktop/GD32VW553/GD32VW55X_Wifi_BLE_SDK/GD32VW55x_RELEASE_V1.0.2/MSDK/lwip/lwip-2.1.2/src/apps/altcp_tls\altcp_tls_mbedtls.c ****   }
 3258              		.loc 1 164 12 is_stmt 0
 3259 0050 97000000 		call	altcp_mbedtls_lower_recv_process
 3259      E7800000 
 3260              	.LVL365:
 3261 0058 C5BF     		j	.L385
 3262              	.LVL366:
 3263              	.L390:
 3264              		.cfi_def_cfa_offset 0
 3265              		.cfi_restore 1
 166:C:/Users/stapi/OneDrive/Desktop/GD32VW553/GD32VW55X_Wifi_BLE_SDK/GD32VW55x_RELEASE_V1.0.2/MSDK/lwip/lwip-2.1.2/src/apps/altcp_tls\altcp_tls_mbedtls.c **** }
 3266              		.loc 1 166 10
 3267 005a 6955     		li	a0,-6
 3268              	.LVL367:
 167:C:/Users/stapi/OneDrive/Desktop/GD32VW553/GD32VW55X_Wifi_BLE_SDK/GD32VW55x_RELEASE_V1.0.2/MSDK/lwip/lwip-2.1.2/src/apps/altcp_tls\altcp_tls_mbedtls.c **** 
 3269              		.loc 1 167 1
 3270 005c 8280     		ret
 3271              		.cfi_endproc
 3272              	.LFE390:
 3274              		.section	.text.altcp_tls_wrap,"ax",@progbits
 3275              		.align	1
 3276              		.globl	altcp_tls_wrap
 3278              	altcp_tls_wrap:
 3279              	.LFB403:
 621:C:/Users/stapi/OneDrive/Desktop/GD32VW553/GD32VW55X_Wifi_BLE_SDK/GD32VW55x_RELEASE_V1.0.2/MSDK/lwip/lwip-2.1.2/src/apps/altcp_tls\altcp_tls_mbedtls.c ****   struct altcp_pcb *ret;
 3280              		.loc 1 621 1 is_stmt 1
 3281              		.cfi_startproc
 3282              	.LVL368:
 3283 0000 17030000 		call	t0,__riscv_save_2
 3283      E7020300 
 3284              		.cfi_offset 9, -12
 3285              		.cfi_offset 8, -8
 3286              		.cfi_offset 1, -4
 3287              		.cfi_def_cfa_offset 16
 622:C:/Users/stapi/OneDrive/Desktop/GD32VW553/GD32VW55X_Wifi_BLE_SDK/GD32VW55x_RELEASE_V1.0.2/MSDK/lwip/lwip-2.1.2/src/apps/altcp_tls\altcp_tls_mbedtls.c ****   if (inner_pcb == NULL) {
 3288              		.loc 1 622 3
 623:C:/Users/stapi/OneDrive/Desktop/GD32VW553/GD32VW55X_Wifi_BLE_SDK/GD32VW55x_RELEASE_V1.0.2/MSDK/lwip/lwip-2.1.2/src/apps/altcp_tls\altcp_tls_mbedtls.c ****     return NULL;
 3289              		.loc 1 623 3
 621:C:/Users/stapi/OneDrive/Desktop/GD32VW553/GD32VW55X_Wifi_BLE_SDK/GD32VW55x_RELEASE_V1.0.2/MSDK/lwip/lwip-2.1.2/src/apps/altcp_tls\altcp_tls_mbedtls.c ****   struct altcp_pcb *ret;
 3290              		.loc 1 621 1 is_stmt 0
 3291 0008 4111     		addi	sp,sp,-16
 3292              		.cfi_def_cfa_offset 32
 623:C:/Users/stapi/OneDrive/Desktop/GD32VW553/GD32VW55X_Wifi_BLE_SDK/GD32VW55x_RELEASE_V1.0.2/MSDK/lwip/lwip-2.1.2/src/apps/altcp_tls\altcp_tls_mbedtls.c ****     return NULL;
 3293              		.loc 1 623 6
 3294 000a 81E9     		bne	a1,zero,.L402
 3295              	.LVL369:
 3296              	.L412:
 630:C:/Users/stapi/OneDrive/Desktop/GD32VW553/GD32VW55X_Wifi_BLE_SDK/GD32VW55x_RELEASE_V1.0.2/MSDK/lwip/lwip-2.1.2/src/apps/altcp_tls\altcp_tls_mbedtls.c ****     }
 3297              		.loc 1 630 7 is_stmt 1
 630:C:/Users/stapi/OneDrive/Desktop/GD32VW553/GD32VW55X_Wifi_BLE_SDK/GD32VW55x_RELEASE_V1.0.2/MSDK/lwip/lwip-2.1.2/src/apps/altcp_tls\altcp_tls_mbedtls.c ****     }
 3298              		.loc 1 630 14 is_stmt 0
 3299 000c 0144     		li	s0,0
 3300              	.L401:
 634:C:/Users/stapi/OneDrive/Desktop/GD32VW553/GD32VW55X_Wifi_BLE_SDK/GD32VW55x_RELEASE_V1.0.2/MSDK/lwip/lwip-2.1.2/src/apps/altcp_tls\altcp_tls_mbedtls.c **** 
 3301              		.loc 1 634 1
 3302 000e 2285     		mv	a0,s0
 3303 0010 4101     		addi	sp,sp,16
 3304              		.cfi_remember_state
 3305              		.cfi_def_cfa_offset 0
 3306 0012 17030000 		tail	__riscv_restore_2
 3306      67000300 
 3307              		.cfi_restore 9
 3308              		.cfi_restore 8
 3309              		.cfi_restore 1
 3310              		.cfi_def_cfa_offset -16
 3311              	.LVL370:
 3312              	.L402:
 3313              		.cfi_restore_state
 3314 001a AA84     		mv	s1,a0
 3315 001c 2EC6     		sw	a1,12(sp)
 626:C:/Users/stapi/OneDrive/Desktop/GD32VW553/GD32VW55X_Wifi_BLE_SDK/GD32VW55x_RELEASE_V1.0.2/MSDK/lwip/lwip-2.1.2/src/apps/altcp_tls\altcp_tls_mbedtls.c ****   if (ret != NULL) {
 3316              		.loc 1 626 3 is_stmt 1
 626:C:/Users/stapi/OneDrive/Desktop/GD32VW553/GD32VW55X_Wifi_BLE_SDK/GD32VW55x_RELEASE_V1.0.2/MSDK/lwip/lwip-2.1.2/src/apps/altcp_tls\altcp_tls_mbedtls.c ****   if (ret != NULL) {
 3317              		.loc 1 626 9 is_stmt 0
 3318 001e 97000000 		call	altcp_alloc
 3318      E7800000 
 3319              	.LVL371:
 3320 0026 2A84     		mv	s0,a0
 3321              	.LVL372:
 627:C:/Users/stapi/OneDrive/Desktop/GD32VW553/GD32VW55X_Wifi_BLE_SDK/GD32VW55x_RELEASE_V1.0.2/MSDK/lwip/lwip-2.1.2/src/apps/altcp_tls\altcp_tls_mbedtls.c ****     if (altcp_mbedtls_setup(config, ret, inner_pcb) != ERR_OK) {
 3322              		.loc 1 627 3 is_stmt 1
 627:C:/Users/stapi/OneDrive/Desktop/GD32VW553/GD32VW55X_Wifi_BLE_SDK/GD32VW55x_RELEASE_V1.0.2/MSDK/lwip/lwip-2.1.2/src/apps/altcp_tls\altcp_tls_mbedtls.c ****     if (altcp_mbedtls_setup(config, ret, inner_pcb) != ERR_OK) {
 3323              		.loc 1 627 6 is_stmt 0
 3324 0028 75D1     		beq	a0,zero,.L412
 628:C:/Users/stapi/OneDrive/Desktop/GD32VW553/GD32VW55X_Wifi_BLE_SDK/GD32VW55x_RELEASE_V1.0.2/MSDK/lwip/lwip-2.1.2/src/apps/altcp_tls\altcp_tls_mbedtls.c ****       altcp_free(ret);
 3325              		.loc 1 628 5 is_stmt 1
 628:C:/Users/stapi/OneDrive/Desktop/GD32VW553/GD32VW55X_Wifi_BLE_SDK/GD32VW55x_RELEASE_V1.0.2/MSDK/lwip/lwip-2.1.2/src/apps/altcp_tls\altcp_tls_mbedtls.c ****       altcp_free(ret);
 3326              		.loc 1 628 9 is_stmt 0
 3327 002a 3246     		lw	a2,12(sp)
 3328 002c AA85     		mv	a1,a0
 3329 002e 2685     		mv	a0,s1
 3330 0030 97000000 		call	altcp_mbedtls_setup
 3330      E7800000 
 3331              	.LVL373:
 628:C:/Users/stapi/OneDrive/Desktop/GD32VW553/GD32VW55X_Wifi_BLE_SDK/GD32VW55x_RELEASE_V1.0.2/MSDK/lwip/lwip-2.1.2/src/apps/altcp_tls\altcp_tls_mbedtls.c ****       altcp_free(ret);
 3332              		.loc 1 628 8
 3333 0038 79D9     		beq	a0,zero,.L401
 629:C:/Users/stapi/OneDrive/Desktop/GD32VW553/GD32VW55X_Wifi_BLE_SDK/GD32VW55x_RELEASE_V1.0.2/MSDK/lwip/lwip-2.1.2/src/apps/altcp_tls\altcp_tls_mbedtls.c ****       return NULL;
 3334              		.loc 1 629 7 is_stmt 1
 3335 003a 2285     		mv	a0,s0
 3336 003c 97000000 		call	altcp_free
 3336      E7800000 
 3337              	.LVL374:
 3338 0044 E1B7     		j	.L412
 3339              		.cfi_endproc
 3340              	.LFE403:
 3342              		.section	.text.altcp_tls_context,"ax",@progbits
 3343              		.align	1
 3344              		.globl	altcp_tls_context
 3346              	altcp_tls_context:
 3347              	.LFB404:
 638:C:/Users/stapi/OneDrive/Desktop/GD32VW553/GD32VW55X_Wifi_BLE_SDK/GD32VW55x_RELEASE_V1.0.2/MSDK/lwip/lwip-2.1.2/src/apps/altcp_tls\altcp_tls_mbedtls.c ****   if (conn && conn->state) {
 3348              		.loc 1 638 1
 3349              		.cfi_startproc
 3350              	.LVL375:
 639:C:/Users/stapi/OneDrive/Desktop/GD32VW553/GD32VW55X_Wifi_BLE_SDK/GD32VW55x_RELEASE_V1.0.2/MSDK/lwip/lwip-2.1.2/src/apps/altcp_tls\altcp_tls_mbedtls.c ****     altcp_mbedtls_state_t *state = (altcp_mbedtls_state_t *)conn->state;
 3351              		.loc 1 639 3
 639:C:/Users/stapi/OneDrive/Desktop/GD32VW553/GD32VW55X_Wifi_BLE_SDK/GD32VW55x_RELEASE_V1.0.2/MSDK/lwip/lwip-2.1.2/src/apps/altcp_tls\altcp_tls_mbedtls.c ****     altcp_mbedtls_state_t *state = (altcp_mbedtls_state_t *)conn->state;
 3352              		.loc 1 639 6 is_stmt 0
 3353 0000 01C5     		beq	a0,zero,.L414
 639:C:/Users/stapi/OneDrive/Desktop/GD32VW553/GD32VW55X_Wifi_BLE_SDK/GD32VW55x_RELEASE_V1.0.2/MSDK/lwip/lwip-2.1.2/src/apps/altcp_tls\altcp_tls_mbedtls.c ****     altcp_mbedtls_state_t *state = (altcp_mbedtls_state_t *)conn->state;
 3354              		.loc 1 639 19 discriminator 1
 3355 0002 4845     		lw	a0,12(a0)
 3356              	.LVL376:
 639:C:/Users/stapi/OneDrive/Desktop/GD32VW553/GD32VW55X_Wifi_BLE_SDK/GD32VW55x_RELEASE_V1.0.2/MSDK/lwip/lwip-2.1.2/src/apps/altcp_tls\altcp_tls_mbedtls.c ****     altcp_mbedtls_state_t *state = (altcp_mbedtls_state_t *)conn->state;
 3357              		.loc 1 639 12 discriminator 1
 3358 0004 11C1     		beq	a0,zero,.L414
 3359              	.LBB121:
 640:C:/Users/stapi/OneDrive/Desktop/GD32VW553/GD32VW55X_Wifi_BLE_SDK/GD32VW55x_RELEASE_V1.0.2/MSDK/lwip/lwip-2.1.2/src/apps/altcp_tls\altcp_tls_mbedtls.c ****     return &state->ssl_context;
 3360              		.loc 1 640 5 is_stmt 1
 3361              	.LVL377:
 641:C:/Users/stapi/OneDrive/Desktop/GD32VW553/GD32VW55X_Wifi_BLE_SDK/GD32VW55x_RELEASE_V1.0.2/MSDK/lwip/lwip-2.1.2/src/apps/altcp_tls\altcp_tls_mbedtls.c ****   }
 3362              		.loc 1 641 5
 641:C:/Users/stapi/OneDrive/Desktop/GD32VW553/GD32VW55X_Wifi_BLE_SDK/GD32VW55x_RELEASE_V1.0.2/MSDK/lwip/lwip-2.1.2/src/apps/altcp_tls\altcp_tls_mbedtls.c ****   }
 3363              		.loc 1 641 12 is_stmt 0
 3364 0006 2105     		addi	a0,a0,8
 3365              	.LVL378:
 3366              	.L414:
 3367              	.LBE121:
 644:C:/Users/stapi/OneDrive/Desktop/GD32VW553/GD32VW55X_Wifi_BLE_SDK/GD32VW55x_RELEASE_V1.0.2/MSDK/lwip/lwip-2.1.2/src/apps/altcp_tls\altcp_tls_mbedtls.c **** 
 3368              		.loc 1 644 1
 3369 0008 8280     		ret
 3370              		.cfi_endproc
 3371              	.LFE404:
 3373              		.section	.text.altcp_tls_create_config_server_privkey_cert,"ax",@progbits
 3374              		.align	1
 3375              		.globl	altcp_tls_create_config_server_privkey_cert
 3377              	altcp_tls_create_config_server_privkey_cert:
 3378              	.LFB407:
 772:C:/Users/stapi/OneDrive/Desktop/GD32VW553/GD32VW55X_Wifi_BLE_SDK/GD32VW55x_RELEASE_V1.0.2/MSDK/lwip/lwip-2.1.2/src/apps/altcp_tls\altcp_tls_mbedtls.c ****   int ret;
 3379              		.loc 1 772 1 is_stmt 1
 3380              		.cfi_startproc
 3381              	.LVL379:
 3382 0000 17030000 		call	t0,__riscv_save_9
 3382      E7020300 
 3383              		.cfi_offset 24, -40
 3384              		.cfi_offset 23, -36
 3385              		.cfi_offset 22, -32
 3386              		.cfi_offset 21, -28
 3387              		.cfi_offset 20, -24
 3388              		.cfi_offset 19, -20
 3389              		.cfi_offset 18, -16
 3390              		.cfi_offset 9, -12
 3391              		.cfi_offset 8, -8
 3392              		.cfi_offset 1, -4
 3393              		.cfi_def_cfa_offset 48
 773:C:/Users/stapi/OneDrive/Desktop/GD32VW553/GD32VW55X_Wifi_BLE_SDK/GD32VW55x_RELEASE_V1.0.2/MSDK/lwip/lwip-2.1.2/src/apps/altcp_tls\altcp_tls_mbedtls.c ****   mbedtls_x509_crt *srvcert;
 3394              		.loc 1 773 3
 774:C:/Users/stapi/OneDrive/Desktop/GD32VW553/GD32VW55X_Wifi_BLE_SDK/GD32VW55x_RELEASE_V1.0.2/MSDK/lwip/lwip-2.1.2/src/apps/altcp_tls\altcp_tls_mbedtls.c ****   mbedtls_pk_context *pkey;
 3395              		.loc 1 774 3
 775:C:/Users/stapi/OneDrive/Desktop/GD32VW553/GD32VW55X_Wifi_BLE_SDK/GD32VW55x_RELEASE_V1.0.2/MSDK/lwip/lwip-2.1.2/src/apps/altcp_tls\altcp_tls_mbedtls.c ****   struct altcp_tls_config *conf = altcp_tls_create_config(1, 1, 1, 0);
 3396              		.loc 1 775 3
 776:C:/Users/stapi/OneDrive/Desktop/GD32VW553/GD32VW55X_Wifi_BLE_SDK/GD32VW55x_RELEASE_V1.0.2/MSDK/lwip/lwip-2.1.2/src/apps/altcp_tls\altcp_tls_mbedtls.c ****   if (conf == NULL) {
 3397              		.loc 1 776 3
 772:C:/Users/stapi/OneDrive/Desktop/GD32VW553/GD32VW55X_Wifi_BLE_SDK/GD32VW55x_RELEASE_V1.0.2/MSDK/lwip/lwip-2.1.2/src/apps/altcp_tls\altcp_tls_mbedtls.c ****   int ret;
 3398              		.loc 1 772 1 is_stmt 0
 3399 0008 AA89     		mv	s3,a0
 3400 000a 2E8A     		mv	s4,a1
 3401 000c B28A     		mv	s5,a2
 3402 000e 368B     		mv	s6,a3
 776:C:/Users/stapi/OneDrive/Desktop/GD32VW553/GD32VW55X_Wifi_BLE_SDK/GD32VW55x_RELEASE_V1.0.2/MSDK/lwip/lwip-2.1.2/src/apps/altcp_tls\altcp_tls_mbedtls.c ****   if (conf == NULL) {
 3403              		.loc 1 776 35
 3404 0010 0546     		li	a2,1
 3405              	.LVL380:
 3406 0012 8146     		li	a3,0
 3407              	.LVL381:
 3408 0014 8545     		li	a1,1
 3409              	.LVL382:
 3410 0016 0545     		li	a0,1
 3411              	.LVL383:
 772:C:/Users/stapi/OneDrive/Desktop/GD32VW553/GD32VW55X_Wifi_BLE_SDK/GD32VW55x_RELEASE_V1.0.2/MSDK/lwip/lwip-2.1.2/src/apps/altcp_tls\altcp_tls_mbedtls.c ****   int ret;
 3412              		.loc 1 772 1
 3413 0018 BA8B     		mv	s7,a4
 3414 001a 3E8C     		mv	s8,a5
 776:C:/Users/stapi/OneDrive/Desktop/GD32VW553/GD32VW55X_Wifi_BLE_SDK/GD32VW55x_RELEASE_V1.0.2/MSDK/lwip/lwip-2.1.2/src/apps/altcp_tls\altcp_tls_mbedtls.c ****   if (conf == NULL) {
 3415              		.loc 1 776 35
 3416 001c 97000000 		call	altcp_tls_create_config
 3416      E7800000 
 3417              	.LVL384:
 3418 0024 2A84     		mv	s0,a0
 3419              	.LVL385:
 777:C:/Users/stapi/OneDrive/Desktop/GD32VW553/GD32VW55X_Wifi_BLE_SDK/GD32VW55x_RELEASE_V1.0.2/MSDK/lwip/lwip-2.1.2/src/apps/altcp_tls\altcp_tls_mbedtls.c ****     return NULL;
 3420              		.loc 1 777 3 is_stmt 1
 777:C:/Users/stapi/OneDrive/Desktop/GD32VW553/GD32VW55X_Wifi_BLE_SDK/GD32VW55x_RELEASE_V1.0.2/MSDK/lwip/lwip-2.1.2/src/apps/altcp_tls\altcp_tls_mbedtls.c ****     return NULL;
 3421              		.loc 1 777 6 is_stmt 0
 3422 0026 0DCD     		beq	a0,zero,.L421
 781:C:/Users/stapi/OneDrive/Desktop/GD32VW553/GD32VW55X_Wifi_BLE_SDK/GD32VW55x_RELEASE_V1.0.2/MSDK/lwip/lwip-2.1.2/src/apps/altcp_tls\altcp_tls_mbedtls.c ****   mbedtls_x509_crt_init(srvcert);
 3423              		.loc 1 781 3 is_stmt 1
 781:C:/Users/stapi/OneDrive/Desktop/GD32VW553/GD32VW55X_Wifi_BLE_SDK/GD32VW55x_RELEASE_V1.0.2/MSDK/lwip/lwip-2.1.2/src/apps/altcp_tls\altcp_tls_mbedtls.c ****   mbedtls_x509_crt_init(srvcert);
 3424              		.loc 1 781 11 is_stmt 0
 3425 0028 83244539 		lw	s1,916(a0)
 3426              	.LVL386:
 782:C:/Users/stapi/OneDrive/Desktop/GD32VW553/GD32VW55X_Wifi_BLE_SDK/GD32VW55x_RELEASE_V1.0.2/MSDK/lwip/lwip-2.1.2/src/apps/altcp_tls\altcp_tls_mbedtls.c **** 
 3427              		.loc 1 782 3 is_stmt 1
 3428 002c 2685     		mv	a0,s1
 3429 002e 97000000 		call	mbedtls_x509_crt_init
 3429      E7800000 
 3430              	.LVL387:
 784:C:/Users/stapi/OneDrive/Desktop/GD32VW553/GD32VW55X_Wifi_BLE_SDK/GD32VW55x_RELEASE_V1.0.2/MSDK/lwip/lwip-2.1.2/src/apps/altcp_tls\altcp_tls_mbedtls.c ****   mbedtls_pk_init(pkey);
 3431              		.loc 1 784 3
 784:C:/Users/stapi/OneDrive/Desktop/GD32VW553/GD32VW55X_Wifi_BLE_SDK/GD32VW55x_RELEASE_V1.0.2/MSDK/lwip/lwip-2.1.2/src/apps/altcp_tls\altcp_tls_mbedtls.c ****   mbedtls_pk_init(pkey);
 3432              		.loc 1 784 8 is_stmt 0
 3433 0036 03298439 		lw	s2,920(s0)
 3434              	.LVL388:
 785:C:/Users/stapi/OneDrive/Desktop/GD32VW553/GD32VW55X_Wifi_BLE_SDK/GD32VW55x_RELEASE_V1.0.2/MSDK/lwip/lwip-2.1.2/src/apps/altcp_tls\altcp_tls_mbedtls.c **** 
 3435              		.loc 1 785 3 is_stmt 1
 3436 003a 4A85     		mv	a0,s2
 3437 003c 97000000 		call	mbedtls_pk_init
 3437      E7800000 
 3438              	.LVL389:
 788:C:/Users/stapi/OneDrive/Desktop/GD32VW553/GD32VW55X_Wifi_BLE_SDK/GD32VW55x_RELEASE_V1.0.2/MSDK/lwip/lwip-2.1.2/src/apps/altcp_tls\altcp_tls_mbedtls.c ****   if (ret != 0) {
 3439              		.loc 1 788 3
 788:C:/Users/stapi/OneDrive/Desktop/GD32VW553/GD32VW55X_Wifi_BLE_SDK/GD32VW55x_RELEASE_V1.0.2/MSDK/lwip/lwip-2.1.2/src/apps/altcp_tls\altcp_tls_mbedtls.c ****   if (ret != 0) {
 3440              		.loc 1 788 9 is_stmt 0
 3441 0044 6286     		mv	a2,s8
 3442 0046 DE85     		mv	a1,s7
 3443 0048 2685     		mv	a0,s1
 3444 004a 97000000 		call	mbedtls_x509_crt_parse
 3444      E7800000 
 3445              	.LVL390:
 789:C:/Users/stapi/OneDrive/Desktop/GD32VW553/GD32VW55X_Wifi_BLE_SDK/GD32VW55x_RELEASE_V1.0.2/MSDK/lwip/lwip-2.1.2/src/apps/altcp_tls\altcp_tls_mbedtls.c ****     LWIP_DEBUGF(ALTCP_MBEDTLS_DEBUG, ("mbedtls_x509_crt_parse failed: %d\n", ret));
 3446              		.loc 1 789 3 is_stmt 1
 789:C:/Users/stapi/OneDrive/Desktop/GD32VW553/GD32VW55X_Wifi_BLE_SDK/GD32VW55x_RELEASE_V1.0.2/MSDK/lwip/lwip-2.1.2/src/apps/altcp_tls\altcp_tls_mbedtls.c ****     LWIP_DEBUGF(ALTCP_MBEDTLS_DEBUG, ("mbedtls_x509_crt_parse failed: %d\n", ret));
 3447              		.loc 1 789 6 is_stmt 0
 3448 0052 01CD     		beq	a0,zero,.L423
 3449              	.LVL391:
 3450              	.L432:
 809:C:/Users/stapi/OneDrive/Desktop/GD32VW553/GD32VW55X_Wifi_BLE_SDK/GD32VW55x_RELEASE_V1.0.2/MSDK/lwip/lwip-2.1.2/src/apps/altcp_tls\altcp_tls_mbedtls.c ****     return NULL;
 3451              		.loc 1 809 5 is_stmt 1
 3452 0054 2285     		mv	a0,s0
 3453 0056 97000000 		call	altcp_mbedtls_free_config
 3453      E7800000 
 3454              	.LVL392:
 810:C:/Users/stapi/OneDrive/Desktop/GD32VW553/GD32VW55X_Wifi_BLE_SDK/GD32VW55x_RELEASE_V1.0.2/MSDK/lwip/lwip-2.1.2/src/apps/altcp_tls\altcp_tls_mbedtls.c ****   }
 3455              		.loc 1 810 5
 810:C:/Users/stapi/OneDrive/Desktop/GD32VW553/GD32VW55X_Wifi_BLE_SDK/GD32VW55x_RELEASE_V1.0.2/MSDK/lwip/lwip-2.1.2/src/apps/altcp_tls\altcp_tls_mbedtls.c ****   }
 3456              		.loc 1 810 12 is_stmt 0
 3457 005e 0144     		li	s0,0
 3458              	.LVL393:
 3459              	.L421:
 813:C:/Users/stapi/OneDrive/Desktop/GD32VW553/GD32VW55X_Wifi_BLE_SDK/GD32VW55x_RELEASE_V1.0.2/MSDK/lwip/lwip-2.1.2/src/apps/altcp_tls\altcp_tls_mbedtls.c **** 
 3460              		.loc 1 813 1
 3461 0060 2285     		mv	a0,s0
 3462 0062 17030000 		tail	__riscv_restore_9
 3462      67000300 
 3463              		.cfi_remember_state
 3464              		.cfi_restore 24
 3465              		.cfi_restore 23
 3466              		.cfi_restore 22
 3467              		.cfi_restore 21
 3468              		.cfi_restore 20
 3469              		.cfi_restore 19
 3470              		.cfi_restore 18
 3471              		.cfi_restore 9
 3472              		.cfi_restore 8
 3473              		.cfi_restore 1
 3474              		.cfi_def_cfa_offset 0
 3475              	.LVL394:
 3476              	.L423:
 3477              		.cfi_restore_state
 795:C:/Users/stapi/OneDrive/Desktop/GD32VW553/GD32VW55X_Wifi_BLE_SDK/GD32VW55x_RELEASE_V1.0.2/MSDK/lwip/lwip-2.1.2/src/apps/altcp_tls\altcp_tls_mbedtls.c ****   if (ret != 0) {
 3478              		.loc 1 795 3 is_stmt 1
 795:C:/Users/stapi/OneDrive/Desktop/GD32VW553/GD32VW55X_Wifi_BLE_SDK/GD32VW55x_RELEASE_V1.0.2/MSDK/lwip/lwip-2.1.2/src/apps/altcp_tls\altcp_tls_mbedtls.c ****   if (ret != 0) {
 3479              		.loc 1 795 9 is_stmt 0
 3480 006a 5A87     		mv	a4,s6
 3481 006c D686     		mv	a3,s5
 3482 006e 5286     		mv	a2,s4
 3483 0070 CE85     		mv	a1,s3
 3484 0072 4A85     		mv	a0,s2
 3485              	.LVL395:
 3486 0074 97000000 		call	mbedtls_pk_parse_key
 3486      E7800000 
 3487              	.LVL396:
 796:C:/Users/stapi/OneDrive/Desktop/GD32VW553/GD32VW55X_Wifi_BLE_SDK/GD32VW55x_RELEASE_V1.0.2/MSDK/lwip/lwip-2.1.2/src/apps/altcp_tls\altcp_tls_mbedtls.c ****     LWIP_DEBUGF(ALTCP_MBEDTLS_DEBUG, ("mbedtls_pk_parse_public_key failed: %d\n", ret));
 3488              		.loc 1 796 3 is_stmt 1
 796:C:/Users/stapi/OneDrive/Desktop/GD32VW553/GD32VW55X_Wifi_BLE_SDK/GD32VW55x_RELEASE_V1.0.2/MSDK/lwip/lwip-2.1.2/src/apps/altcp_tls\altcp_tls_mbedtls.c ****     LWIP_DEBUGF(ALTCP_MBEDTLS_DEBUG, ("mbedtls_pk_parse_public_key failed: %d\n", ret));
 3489              		.loc 1 796 6 is_stmt 0
 3490 007c 19C5     		beq	a0,zero,.L424
 797:C:/Users/stapi/OneDrive/Desktop/GD32VW553/GD32VW55X_Wifi_BLE_SDK/GD32VW55x_RELEASE_V1.0.2/MSDK/lwip/lwip-2.1.2/src/apps/altcp_tls\altcp_tls_mbedtls.c ****     mbedtls_x509_crt_free(srvcert);
 3491              		.loc 1 797 88 is_stmt 1
 798:C:/Users/stapi/OneDrive/Desktop/GD32VW553/GD32VW55X_Wifi_BLE_SDK/GD32VW55x_RELEASE_V1.0.2/MSDK/lwip/lwip-2.1.2/src/apps/altcp_tls\altcp_tls_mbedtls.c ****     altcp_mbedtls_free_config(conf);
 3492              		.loc 1 798 5
 3493 007e 2685     		mv	a0,s1
 3494              	.LVL397:
 3495 0080 97000000 		call	mbedtls_x509_crt_free
 3495      E7800000 
 3496              	.LVL398:
 799:C:/Users/stapi/OneDrive/Desktop/GD32VW553/GD32VW55X_Wifi_BLE_SDK/GD32VW55x_RELEASE_V1.0.2/MSDK/lwip/lwip-2.1.2/src/apps/altcp_tls\altcp_tls_mbedtls.c ****     return NULL;
 3497              		.loc 1 799 5
 3498 0088 F1B7     		j	.L432
 3499              	.LVL399:
 3500              	.L424:
 803:C:/Users/stapi/OneDrive/Desktop/GD32VW553/GD32VW55X_Wifi_BLE_SDK/GD32VW55x_RELEASE_V1.0.2/MSDK/lwip/lwip-2.1.2/src/apps/altcp_tls\altcp_tls_mbedtls.c ****   ret = mbedtls_ssl_conf_own_cert(&conf->conf, srvcert, pkey);
 3501              		.loc 1 803 3
 3502 008a 83A54414 		lw	a1,324(s1)
 3503 008e 0146     		li	a2,0
 3504 0090 2285     		mv	a0,s0
 3505              	.LVL400:
 3506 0092 97000000 		call	mbedtls_ssl_conf_ca_chain
 3506      E7800000 
 3507              	.LVL401:
 804:C:/Users/stapi/OneDrive/Desktop/GD32VW553/GD32VW55X_Wifi_BLE_SDK/GD32VW55x_RELEASE_V1.0.2/MSDK/lwip/lwip-2.1.2/src/apps/altcp_tls\altcp_tls_mbedtls.c ****   if (ret != 0) {
 3508              		.loc 1 804 3
 804:C:/Users/stapi/OneDrive/Desktop/GD32VW553/GD32VW55X_Wifi_BLE_SDK/GD32VW55x_RELEASE_V1.0.2/MSDK/lwip/lwip-2.1.2/src/apps/altcp_tls\altcp_tls_mbedtls.c ****   if (ret != 0) {
 3509              		.loc 1 804 9 is_stmt 0
 3510 009a 4A86     		mv	a2,s2
 3511 009c A685     		mv	a1,s1
 3512 009e 2285     		mv	a0,s0
 3513 00a0 97000000 		call	mbedtls_ssl_conf_own_cert
 3513      E7800000 
 3514              	.LVL402:
 805:C:/Users/stapi/OneDrive/Desktop/GD32VW553/GD32VW55X_Wifi_BLE_SDK/GD32VW55x_RELEASE_V1.0.2/MSDK/lwip/lwip-2.1.2/src/apps/altcp_tls\altcp_tls_mbedtls.c ****     LWIP_DEBUGF(ALTCP_MBEDTLS_DEBUG, ("mbedtls_ssl_conf_own_cert failed: %d\n", ret));
 3515              		.loc 1 805 3 is_stmt 1
 805:C:/Users/stapi/OneDrive/Desktop/GD32VW553/GD32VW55X_Wifi_BLE_SDK/GD32VW55x_RELEASE_V1.0.2/MSDK/lwip/lwip-2.1.2/src/apps/altcp_tls\altcp_tls_mbedtls.c ****     LWIP_DEBUGF(ALTCP_MBEDTLS_DEBUG, ("mbedtls_ssl_conf_own_cert failed: %d\n", ret));
 3516              		.loc 1 805 6 is_stmt 0
 3517 00a8 45DD     		beq	a0,zero,.L421
 806:C:/Users/stapi/OneDrive/Desktop/GD32VW553/GD32VW55X_Wifi_BLE_SDK/GD32VW55x_RELEASE_V1.0.2/MSDK/lwip/lwip-2.1.2/src/apps/altcp_tls\altcp_tls_mbedtls.c ****     mbedtls_x509_crt_free(srvcert);
 3518              		.loc 1 806 86 is_stmt 1
 807:C:/Users/stapi/OneDrive/Desktop/GD32VW553/GD32VW55X_Wifi_BLE_SDK/GD32VW55x_RELEASE_V1.0.2/MSDK/lwip/lwip-2.1.2/src/apps/altcp_tls\altcp_tls_mbedtls.c ****     mbedtls_pk_free(pkey);
 3519              		.loc 1 807 5
 3520 00aa 2685     		mv	a0,s1
 3521              	.LVL403:
 3522 00ac 97000000 		call	mbedtls_x509_crt_free
 3522      E7800000 
 3523              	.LVL404:
 808:C:/Users/stapi/OneDrive/Desktop/GD32VW553/GD32VW55X_Wifi_BLE_SDK/GD32VW55x_RELEASE_V1.0.2/MSDK/lwip/lwip-2.1.2/src/apps/altcp_tls\altcp_tls_mbedtls.c ****     altcp_mbedtls_free_config(conf);
 3524              		.loc 1 808 5
 3525 00b4 4A85     		mv	a0,s2
 3526 00b6 97000000 		call	mbedtls_pk_free
 3526      E7800000 
 3527              	.LVL405:
 3528 00be 59BF     		j	.L432
 3529              		.cfi_endproc
 3530              	.LFE407:
 3532              		.section	.text.altcp_tls_create_config_client,"ax",@progbits
 3533              		.align	1
 3534              		.globl	altcp_tls_create_config_client
 3536              	altcp_tls_create_config_client:
 3537              	.LFB409:
 843:C:/Users/stapi/OneDrive/Desktop/GD32VW553/GD32VW55X_Wifi_BLE_SDK/GD32VW55x_RELEASE_V1.0.2/MSDK/lwip/lwip-2.1.2/src/apps/altcp_tls\altcp_tls_mbedtls.c ****   return altcp_tls_create_config_client_common(ca, ca_len, 0);
 3538              		.loc 1 843 1
 3539              		.cfi_startproc
 3540              	.LVL406:
 844:C:/Users/stapi/OneDrive/Desktop/GD32VW553/GD32VW55X_Wifi_BLE_SDK/GD32VW55x_RELEASE_V1.0.2/MSDK/lwip/lwip-2.1.2/src/apps/altcp_tls\altcp_tls_mbedtls.c **** }
 3541              		.loc 1 844 3
 844:C:/Users/stapi/OneDrive/Desktop/GD32VW553/GD32VW55X_Wifi_BLE_SDK/GD32VW55x_RELEASE_V1.0.2/MSDK/lwip/lwip-2.1.2/src/apps/altcp_tls\altcp_tls_mbedtls.c **** }
 3542              		.loc 1 844 10 is_stmt 0
 3543 0000 0146     		li	a2,0
 3544 0002 17030000 		tail	altcp_tls_create_config_client_common
 3544      67000300 
 3545              	.LVL407:
 3546              		.cfi_endproc
 3547              	.LFE409:
 3549              		.section	.text.altcp_tls_create_config_client_psk,"ax",@progbits
 3550              		.align	1
 3551              		.globl	altcp_tls_create_config_client_psk
 3553              	altcp_tls_create_config_client_psk:
 3554              	.LFB410:
 850:C:/Users/stapi/OneDrive/Desktop/GD32VW553/GD32VW55X_Wifi_BLE_SDK/GD32VW55x_RELEASE_V1.0.2/MSDK/lwip/lwip-2.1.2/src/apps/altcp_tls\altcp_tls_mbedtls.c ****   int ret;
 3555              		.loc 1 850 1 is_stmt 1
 3556              		.cfi_startproc
 3557              	.LVL408:
 3558 0000 17030000 		call	t0,__riscv_save_4
 3558      E7020300 
 3559              		.cfi_offset 19, -20
 3560              		.cfi_offset 18, -16
 3561              		.cfi_offset 9, -12
 3562              		.cfi_offset 8, -8
 3563              		.cfi_offset 1, -4
 3564              		.cfi_def_cfa_offset 32
 851:C:/Users/stapi/OneDrive/Desktop/GD32VW553/GD32VW55X_Wifi_BLE_SDK/GD32VW55x_RELEASE_V1.0.2/MSDK/lwip/lwip-2.1.2/src/apps/altcp_tls\altcp_tls_mbedtls.c ****   struct altcp_tls_config *conf = altcp_tls_create_config(0, 0, 0, 0);
 3565              		.loc 1 851 3
 852:C:/Users/stapi/OneDrive/Desktop/GD32VW553/GD32VW55X_Wifi_BLE_SDK/GD32VW55x_RELEASE_V1.0.2/MSDK/lwip/lwip-2.1.2/src/apps/altcp_tls\altcp_tls_mbedtls.c ****   if (conf == NULL) {
 3566              		.loc 1 852 3
 850:C:/Users/stapi/OneDrive/Desktop/GD32VW553/GD32VW55X_Wifi_BLE_SDK/GD32VW55x_RELEASE_V1.0.2/MSDK/lwip/lwip-2.1.2/src/apps/altcp_tls\altcp_tls_mbedtls.c ****   int ret;
 3567              		.loc 1 850 1 is_stmt 0
 3568 0008 4111     		addi	sp,sp,-16
 3569              		.cfi_def_cfa_offset 48
 850:C:/Users/stapi/OneDrive/Desktop/GD32VW553/GD32VW55X_Wifi_BLE_SDK/GD32VW55x_RELEASE_V1.0.2/MSDK/lwip/lwip-2.1.2/src/apps/altcp_tls\altcp_tls_mbedtls.c ****   int ret;
 3570              		.loc 1 850 1
 3571 000a 36C6     		sw	a3,12(sp)
 3572 000c AA84     		mv	s1,a0
 3573 000e AE89     		mv	s3,a1
 3574 0010 3289     		mv	s2,a2
 852:C:/Users/stapi/OneDrive/Desktop/GD32VW553/GD32VW55X_Wifi_BLE_SDK/GD32VW55x_RELEASE_V1.0.2/MSDK/lwip/lwip-2.1.2/src/apps/altcp_tls\altcp_tls_mbedtls.c ****   if (conf == NULL) {
 3575              		.loc 1 852 35
 3576 0012 8146     		li	a3,0
 3577              	.LVL409:
 3578 0014 0146     		li	a2,0
 3579              	.LVL410:
 3580 0016 8145     		li	a1,0
 3581              	.LVL411:
 3582 0018 0145     		li	a0,0
 3583              	.LVL412:
 3584 001a 97000000 		call	altcp_tls_create_config
 3584      E7800000 
 3585              	.LVL413:
 3586 0022 2A84     		mv	s0,a0
 3587              	.LVL414:
 853:C:/Users/stapi/OneDrive/Desktop/GD32VW553/GD32VW55X_Wifi_BLE_SDK/GD32VW55x_RELEASE_V1.0.2/MSDK/lwip/lwip-2.1.2/src/apps/altcp_tls\altcp_tls_mbedtls.c ****     return NULL;
 3588              		.loc 1 853 3 is_stmt 1
 853:C:/Users/stapi/OneDrive/Desktop/GD32VW553/GD32VW55X_Wifi_BLE_SDK/GD32VW55x_RELEASE_V1.0.2/MSDK/lwip/lwip-2.1.2/src/apps/altcp_tls\altcp_tls_mbedtls.c ****     return NULL;
 3589              		.loc 1 853 6 is_stmt 0
 3590 0024 1DC1     		beq	a0,zero,.L435
 858:C:/Users/stapi/OneDrive/Desktop/GD32VW553/GD32VW55X_Wifi_BLE_SDK/GD32VW55x_RELEASE_V1.0.2/MSDK/lwip/lwip-2.1.2/src/apps/altcp_tls\altcp_tls_mbedtls.c ****     LWIP_DEBUGF(ALTCP_MBEDTLS_DEBUG, ("unvalid pre-shared key"));
 3591              		.loc 1 858 3 is_stmt 1
 858:C:/Users/stapi/OneDrive/Desktop/GD32VW553/GD32VW55X_Wifi_BLE_SDK/GD32VW55x_RELEASE_V1.0.2/MSDK/lwip/lwip-2.1.2/src/apps/altcp_tls\altcp_tls_mbedtls.c ****     LWIP_DEBUGF(ALTCP_MBEDTLS_DEBUG, ("unvalid pre-shared key"));
 3592              		.loc 1 858 6 is_stmt 0
 3593 0026 95C0     		beq	s1,zero,.L435
 858:C:/Users/stapi/OneDrive/Desktop/GD32VW553/GD32VW55X_Wifi_BLE_SDK/GD32VW55x_RELEASE_V1.0.2/MSDK/lwip/lwip-2.1.2/src/apps/altcp_tls\altcp_tls_mbedtls.c ****     LWIP_DEBUGF(ALTCP_MBEDTLS_DEBUG, ("unvalid pre-shared key"));
 3594              		.loc 1 858 12 discriminator 1
 3595 0028 63010902 		beq	s2,zero,.L435
 861:C:/Users/stapi/OneDrive/Desktop/GD32VW553/GD32VW55X_Wifi_BLE_SDK/GD32VW55x_RELEASE_V1.0.2/MSDK/lwip/lwip-2.1.2/src/apps/altcp_tls\altcp_tls_mbedtls.c ****     if (ret != 0) {
 3596              		.loc 1 861 5 is_stmt 1
 861:C:/Users/stapi/OneDrive/Desktop/GD32VW553/GD32VW55X_Wifi_BLE_SDK/GD32VW55x_RELEASE_V1.0.2/MSDK/lwip/lwip-2.1.2/src/apps/altcp_tls\altcp_tls_mbedtls.c ****     if (ret != 0) {
 3597              		.loc 1 861 11 is_stmt 0
 3598 002c 3247     		lw	a4,12(sp)
 3599 002e CA86     		mv	a3,s2
 3600 0030 4E86     		mv	a2,s3
 3601 0032 A685     		mv	a1,s1
 3602 0034 97000000 		call	mbedtls_ssl_conf_psk
 3602      E7800000 
 3603              	.LVL415:
 862:C:/Users/stapi/OneDrive/Desktop/GD32VW553/GD32VW55X_Wifi_BLE_SDK/GD32VW55x_RELEASE_V1.0.2/MSDK/lwip/lwip-2.1.2/src/apps/altcp_tls\altcp_tls_mbedtls.c ****       LWIP_DEBUGF(ALTCP_MBEDTLS_DEBUG, ("mbedtls_ssl_conf_psk pre-shared key set failed: %d 0x%x", 
 3604              		.loc 1 862 5 is_stmt 1
 862:C:/Users/stapi/OneDrive/Desktop/GD32VW553/GD32VW55X_Wifi_BLE_SDK/GD32VW55x_RELEASE_V1.0.2/MSDK/lwip/lwip-2.1.2/src/apps/altcp_tls\altcp_tls_mbedtls.c ****       LWIP_DEBUGF(ALTCP_MBEDTLS_DEBUG, ("mbedtls_ssl_conf_psk pre-shared key set failed: %d 0x%x", 
 3605              		.loc 1 862 8 is_stmt 0
 3606 003c 19C5     		beq	a0,zero,.L435
 863:C:/Users/stapi/OneDrive/Desktop/GD32VW553/GD32VW55X_Wifi_BLE_SDK/GD32VW55x_RELEASE_V1.0.2/MSDK/lwip/lwip-2.1.2/src/apps/altcp_tls\altcp_tls_mbedtls.c ****       altcp_mbedtls_free_config(conf);
 3607              		.loc 1 863 113 is_stmt 1
 864:C:/Users/stapi/OneDrive/Desktop/GD32VW553/GD32VW55X_Wifi_BLE_SDK/GD32VW55x_RELEASE_V1.0.2/MSDK/lwip/lwip-2.1.2/src/apps/altcp_tls\altcp_tls_mbedtls.c ****       return NULL;
 3608              		.loc 1 864 7
 3609 003e 2285     		mv	a0,s0
 3610              	.LVL416:
 3611 0040 97000000 		call	altcp_mbedtls_free_config
 3611      E7800000 
 3612              	.LVL417:
 865:C:/Users/stapi/OneDrive/Desktop/GD32VW553/GD32VW55X_Wifi_BLE_SDK/GD32VW55x_RELEASE_V1.0.2/MSDK/lwip/lwip-2.1.2/src/apps/altcp_tls\altcp_tls_mbedtls.c ****     }
 3613              		.loc 1 865 7
 865:C:/Users/stapi/OneDrive/Desktop/GD32VW553/GD32VW55X_Wifi_BLE_SDK/GD32VW55x_RELEASE_V1.0.2/MSDK/lwip/lwip-2.1.2/src/apps/altcp_tls\altcp_tls_mbedtls.c ****     }
 3614              		.loc 1 865 14 is_stmt 0
 3615 0048 0144     		li	s0,0
 3616              	.LVL418:
 3617              	.L435:
 869:C:/Users/stapi/OneDrive/Desktop/GD32VW553/GD32VW55X_Wifi_BLE_SDK/GD32VW55x_RELEASE_V1.0.2/MSDK/lwip/lwip-2.1.2/src/apps/altcp_tls\altcp_tls_mbedtls.c **** /* FT TAG */
 3618              		.loc 1 869 1
 3619 004a 2285     		mv	a0,s0
 3620 004c 4101     		addi	sp,sp,16
 3621              		.cfi_def_cfa_offset 0
 3622              	.LVL419:
 3623 004e 17030000 		tail	__riscv_restore_4
 3623      67000300 
 3624              		.cfi_restore 19
 3625              		.cfi_restore 18
 3626              		.cfi_restore 9
 3627              		.cfi_restore 8
 3628              		.cfi_restore 1
 3629              		.cfi_def_cfa_offset -32
 3630              		.cfi_endproc
 3631              	.LFE410:
 3633              		.section	.text.altcp_tls_create_config_client_2wayauth,"ax",@progbits
 3634              		.align	1
 3635              		.globl	altcp_tls_create_config_client_2wayauth
 3637              	altcp_tls_create_config_client_2wayauth:
 3638              	.LFB411:
 876:C:/Users/stapi/OneDrive/Desktop/GD32VW553/GD32VW55X_Wifi_BLE_SDK/GD32VW55x_RELEASE_V1.0.2/MSDK/lwip/lwip-2.1.2/src/apps/altcp_tls\altcp_tls_mbedtls.c ****   int ret;
 3639              		.loc 1 876 1 is_stmt 1
 3640              		.cfi_startproc
 3641              	.LVL420:
 3642 0000 17030000 		call	t0,__riscv_save_7
 3642      E7020300 
 3643              		.cfi_offset 22, -32
 3644              		.cfi_offset 21, -28
 3645              		.cfi_offset 20, -24
 3646              		.cfi_offset 19, -20
 3647              		.cfi_offset 18, -16
 3648              		.cfi_offset 9, -12
 3649              		.cfi_offset 8, -8
 3650              		.cfi_offset 1, -4
 3651              		.cfi_def_cfa_offset 32
 877:C:/Users/stapi/OneDrive/Desktop/GD32VW553/GD32VW55X_Wifi_BLE_SDK/GD32VW55x_RELEASE_V1.0.2/MSDK/lwip/lwip-2.1.2/src/apps/altcp_tls\altcp_tls_mbedtls.c ****   struct altcp_tls_config *conf;
 3652              		.loc 1 877 3
 878:C:/Users/stapi/OneDrive/Desktop/GD32VW553/GD32VW55X_Wifi_BLE_SDK/GD32VW55x_RELEASE_V1.0.2/MSDK/lwip/lwip-2.1.2/src/apps/altcp_tls\altcp_tls_mbedtls.c **** 
 3653              		.loc 1 878 3
 880:C:/Users/stapi/OneDrive/Desktop/GD32VW553/GD32VW55X_Wifi_BLE_SDK/GD32VW55x_RELEASE_V1.0.2/MSDK/lwip/lwip-2.1.2/src/apps/altcp_tls\altcp_tls_mbedtls.c ****     LWIP_DEBUGF(ALTCP_MBEDTLS_DEBUG, ("altcp_tls_create_config_client_2wayauth: certificate and pri
 3654              		.loc 1 880 3
 880:C:/Users/stapi/OneDrive/Desktop/GD32VW553/GD32VW55X_Wifi_BLE_SDK/GD32VW55x_RELEASE_V1.0.2/MSDK/lwip/lwip-2.1.2/src/apps/altcp_tls\altcp_tls_mbedtls.c ****     LWIP_DEBUGF(ALTCP_MBEDTLS_DEBUG, ("altcp_tls_create_config_client_2wayauth: certificate and pri
 3655              		.loc 1 880 6 is_stmt 0
 3656 0008 63140800 		bne	a6,zero,.L451
 3657              	.LVL421:
 3658              	.L466:
 911:C:/Users/stapi/OneDrive/Desktop/GD32VW553/GD32VW55X_Wifi_BLE_SDK/GD32VW55x_RELEASE_V1.0.2/MSDK/lwip/lwip-2.1.2/src/apps/altcp_tls\altcp_tls_mbedtls.c ****   }
 3659              		.loc 1 911 5 is_stmt 1
 911:C:/Users/stapi/OneDrive/Desktop/GD32VW553/GD32VW55X_Wifi_BLE_SDK/GD32VW55x_RELEASE_V1.0.2/MSDK/lwip/lwip-2.1.2/src/apps/altcp_tls\altcp_tls_mbedtls.c ****   }
 3660              		.loc 1 911 12 is_stmt 0
 3661 000c 0144     		li	s0,0
 3662 000e 51A0     		j	.L450
 3663              	.LVL422:
 3664              	.L451:
 3665 0010 B284     		mv	s1,a2
 880:C:/Users/stapi/OneDrive/Desktop/GD32VW553/GD32VW55X_Wifi_BLE_SDK/GD32VW55x_RELEASE_V1.0.2/MSDK/lwip/lwip-2.1.2/src/apps/altcp_tls\altcp_tls_mbedtls.c ****     LWIP_DEBUGF(ALTCP_MBEDTLS_DEBUG, ("altcp_tls_create_config_client_2wayauth: certificate and pri
 3666              		.loc 1 880 13 discriminator 1
 3667 0012 6DDE     		beq	a2,zero,.L466
 3668              	.LVL423:
 885:C:/Users/stapi/OneDrive/Desktop/GD32VW553/GD32VW55X_Wifi_BLE_SDK/GD32VW55x_RELEASE_V1.0.2/MSDK/lwip/lwip-2.1.2/src/apps/altcp_tls\altcp_tls_mbedtls.c ****   if (conf == NULL) {
 3669              		.loc 1 885 10
 3670 0014 0546     		li	a2,1
 3671 0016 B689     		mv	s3,a3
 3672 0018 3A8A     		mv	s4,a4
 3673 001a BE8A     		mv	s5,a5
 3674 001c 4289     		mv	s2,a6
 3675 001e 468B     		mv	s6,a7
 885:C:/Users/stapi/OneDrive/Desktop/GD32VW553/GD32VW55X_Wifi_BLE_SDK/GD32VW55x_RELEASE_V1.0.2/MSDK/lwip/lwip-2.1.2/src/apps/altcp_tls\altcp_tls_mbedtls.c ****   if (conf == NULL) {
 3676              		.loc 1 885 3 is_stmt 1
 885:C:/Users/stapi/OneDrive/Desktop/GD32VW553/GD32VW55X_Wifi_BLE_SDK/GD32VW55x_RELEASE_V1.0.2/MSDK/lwip/lwip-2.1.2/src/apps/altcp_tls\altcp_tls_mbedtls.c ****   if (conf == NULL) {
 3677              		.loc 1 885 10 is_stmt 0
 3678 0020 97000000 		call	altcp_tls_create_config_client_common
 3678      E7800000 
 3679              	.LVL424:
 3680 0028 2A84     		mv	s0,a0
 3681              	.LVL425:
 886:C:/Users/stapi/OneDrive/Desktop/GD32VW553/GD32VW55X_Wifi_BLE_SDK/GD32VW55x_RELEASE_V1.0.2/MSDK/lwip/lwip-2.1.2/src/apps/altcp_tls\altcp_tls_mbedtls.c ****     return NULL;
 3682              		.loc 1 886 3 is_stmt 1
 886:C:/Users/stapi/OneDrive/Desktop/GD32VW553/GD32VW55X_Wifi_BLE_SDK/GD32VW55x_RELEASE_V1.0.2/MSDK/lwip/lwip-2.1.2/src/apps/altcp_tls\altcp_tls_mbedtls.c ****     return NULL;
 3683              		.loc 1 886 6 is_stmt 0
 3684 002a 6DD1     		beq	a0,zero,.L466
 891:C:/Users/stapi/OneDrive/Desktop/GD32VW553/GD32VW55X_Wifi_BLE_SDK/GD32VW55x_RELEASE_V1.0.2/MSDK/lwip/lwip-2.1.2/src/apps/altcp_tls\altcp_tls_mbedtls.c ****   ret = mbedtls_x509_crt_parse(conf->cert, cert, cert_len);
 3685              		.loc 1 891 3 is_stmt 1
 3686 002c 03254539 		lw	a0,916(a0)
 3687 0030 97000000 		call	mbedtls_x509_crt_init
 3687      E7800000 
 3688              	.LVL426:
 892:C:/Users/stapi/OneDrive/Desktop/GD32VW553/GD32VW55X_Wifi_BLE_SDK/GD32VW55x_RELEASE_V1.0.2/MSDK/lwip/lwip-2.1.2/src/apps/altcp_tls\altcp_tls_mbedtls.c ****   if (ret != 0) {
 3689              		.loc 1 892 3
 892:C:/Users/stapi/OneDrive/Desktop/GD32VW553/GD32VW55X_Wifi_BLE_SDK/GD32VW55x_RELEASE_V1.0.2/MSDK/lwip/lwip-2.1.2/src/apps/altcp_tls\altcp_tls_mbedtls.c ****   if (ret != 0) {
 3690              		.loc 1 892 9 is_stmt 0
 3691 0038 03254439 		lw	a0,916(s0)
 3692 003c 5A86     		mv	a2,s6
 3693 003e CA85     		mv	a1,s2
 3694 0040 97000000 		call	mbedtls_x509_crt_parse
 3694      E7800000 
 3695              	.LVL427:
 893:C:/Users/stapi/OneDrive/Desktop/GD32VW553/GD32VW55X_Wifi_BLE_SDK/GD32VW55x_RELEASE_V1.0.2/MSDK/lwip/lwip-2.1.2/src/apps/altcp_tls\altcp_tls_mbedtls.c ****     LWIP_DEBUGF(ALTCP_MBEDTLS_DEBUG, ("mbedtls_x509_crt_parse cert failed: %d 0x%x", ret, -1*ret));
 3696              		.loc 1 893 3 is_stmt 1
 893:C:/Users/stapi/OneDrive/Desktop/GD32VW553/GD32VW55X_Wifi_BLE_SDK/GD32VW55x_RELEASE_V1.0.2/MSDK/lwip/lwip-2.1.2/src/apps/altcp_tls\altcp_tls_mbedtls.c ****     LWIP_DEBUGF(ALTCP_MBEDTLS_DEBUG, ("mbedtls_x509_crt_parse cert failed: %d 0x%x", ret, -1*ret));
 3697              		.loc 1 893 6 is_stmt 0
 3698 0048 01C9     		beq	a0,zero,.L454
 894:C:/Users/stapi/OneDrive/Desktop/GD32VW553/GD32VW55X_Wifi_BLE_SDK/GD32VW55x_RELEASE_V1.0.2/MSDK/lwip/lwip-2.1.2/src/apps/altcp_tls\altcp_tls_mbedtls.c ****     altcp_mbedtls_free_config(conf->cert);
 3699              		.loc 1 894 99 is_stmt 1
 895:C:/Users/stapi/OneDrive/Desktop/GD32VW553/GD32VW55X_Wifi_BLE_SDK/GD32VW55x_RELEASE_V1.0.2/MSDK/lwip/lwip-2.1.2/src/apps/altcp_tls\altcp_tls_mbedtls.c ****     return NULL;
 3700              		.loc 1 895 5
 3701 004a 03254439 		lw	a0,916(s0)
 3702              	.LVL428:
 3703              	.L468:
 910:C:/Users/stapi/OneDrive/Desktop/GD32VW553/GD32VW55X_Wifi_BLE_SDK/GD32VW55x_RELEASE_V1.0.2/MSDK/lwip/lwip-2.1.2/src/apps/altcp_tls\altcp_tls_mbedtls.c ****     return NULL;
 3704              		.loc 1 910 5 is_stmt 0
 3705 004e 97000000 		call	altcp_mbedtls_free_config
 3705      E7800000 
 3706              	.LVL429:
 3707 0056 5DBF     		j	.L466
 3708              	.LVL430:
 3709              	.L454:
 899:C:/Users/stapi/OneDrive/Desktop/GD32VW553/GD32VW55X_Wifi_BLE_SDK/GD32VW55x_RELEASE_V1.0.2/MSDK/lwip/lwip-2.1.2/src/apps/altcp_tls\altcp_tls_mbedtls.c ****   ret = mbedtls_pk_parse_key(conf->pkey, privkey, privkey_len, privkey_pass, privkey_pass_len);
 3710              		.loc 1 899 3 is_stmt 1
 3711 0058 03258439 		lw	a0,920(s0)
 3712              	.LVL431:
 3713 005c 97000000 		call	mbedtls_pk_init
 3713      E7800000 
 3714              	.LVL432:
 900:C:/Users/stapi/OneDrive/Desktop/GD32VW553/GD32VW55X_Wifi_BLE_SDK/GD32VW55x_RELEASE_V1.0.2/MSDK/lwip/lwip-2.1.2/src/apps/altcp_tls\altcp_tls_mbedtls.c ****   if (ret != 0) {
 3715              		.loc 1 900 3
 900:C:/Users/stapi/OneDrive/Desktop/GD32VW553/GD32VW55X_Wifi_BLE_SDK/GD32VW55x_RELEASE_V1.0.2/MSDK/lwip/lwip-2.1.2/src/apps/altcp_tls\altcp_tls_mbedtls.c ****   if (ret != 0) {
 3716              		.loc 1 900 9 is_stmt 0
 3717 0064 03258439 		lw	a0,920(s0)
 3718 0068 5687     		mv	a4,s5
 3719 006a D286     		mv	a3,s4
 3720 006c 4E86     		mv	a2,s3
 3721 006e A685     		mv	a1,s1
 3722 0070 97000000 		call	mbedtls_pk_parse_key
 3722      E7800000 
 3723              	.LVL433:
 901:C:/Users/stapi/OneDrive/Desktop/GD32VW553/GD32VW55X_Wifi_BLE_SDK/GD32VW55x_RELEASE_V1.0.2/MSDK/lwip/lwip-2.1.2/src/apps/altcp_tls\altcp_tls_mbedtls.c ****     LWIP_DEBUGF(ALTCP_MBEDTLS_DEBUG, ("mbedtls_pk_parse_key failed: %d 0x%x", ret, -1*ret));
 3724              		.loc 1 901 3 is_stmt 1
 901:C:/Users/stapi/OneDrive/Desktop/GD32VW553/GD32VW55X_Wifi_BLE_SDK/GD32VW55x_RELEASE_V1.0.2/MSDK/lwip/lwip-2.1.2/src/apps/altcp_tls\altcp_tls_mbedtls.c ****     LWIP_DEBUGF(ALTCP_MBEDTLS_DEBUG, ("mbedtls_pk_parse_key failed: %d 0x%x", ret, -1*ret));
 3725              		.loc 1 901 6 is_stmt 0
 3726 0078 19C1     		beq	a0,zero,.L455
 3727              	.L467:
 909:C:/Users/stapi/OneDrive/Desktop/GD32VW553/GD32VW55X_Wifi_BLE_SDK/GD32VW55x_RELEASE_V1.0.2/MSDK/lwip/lwip-2.1.2/src/apps/altcp_tls\altcp_tls_mbedtls.c ****     altcp_mbedtls_free_config(conf);
 3728              		.loc 1 909 97 is_stmt 1
 910:C:/Users/stapi/OneDrive/Desktop/GD32VW553/GD32VW55X_Wifi_BLE_SDK/GD32VW55x_RELEASE_V1.0.2/MSDK/lwip/lwip-2.1.2/src/apps/altcp_tls\altcp_tls_mbedtls.c ****     return NULL;
 3729              		.loc 1 910 5
 3730 007a 2285     		mv	a0,s0
 3731              	.LVL434:
 3732 007c C9BF     		j	.L468
 3733              	.LVL435:
 3734              	.L455:
 907:C:/Users/stapi/OneDrive/Desktop/GD32VW553/GD32VW55X_Wifi_BLE_SDK/GD32VW55x_RELEASE_V1.0.2/MSDK/lwip/lwip-2.1.2/src/apps/altcp_tls\altcp_tls_mbedtls.c ****   if (ret != 0) {
 3735              		.loc 1 907 3
 907:C:/Users/stapi/OneDrive/Desktop/GD32VW553/GD32VW55X_Wifi_BLE_SDK/GD32VW55x_RELEASE_V1.0.2/MSDK/lwip/lwip-2.1.2/src/apps/altcp_tls\altcp_tls_mbedtls.c ****   if (ret != 0) {
 3736              		.loc 1 907 9 is_stmt 0
 3737 007e 03268439 		lw	a2,920(s0)
 3738 0082 83254439 		lw	a1,916(s0)
 3739 0086 2285     		mv	a0,s0
 3740              	.LVL436:
 3741 0088 97000000 		call	mbedtls_ssl_conf_own_cert
 3741      E7800000 
 3742              	.LVL437:
 908:C:/Users/stapi/OneDrive/Desktop/GD32VW553/GD32VW55X_Wifi_BLE_SDK/GD32VW55x_RELEASE_V1.0.2/MSDK/lwip/lwip-2.1.2/src/apps/altcp_tls\altcp_tls_mbedtls.c ****     LWIP_DEBUGF(ALTCP_MBEDTLS_DEBUG, ("mbedtls_ssl_conf_own_cert failed: %d 0x%x", ret, -1*ret));
 3743              		.loc 1 908 3 is_stmt 1
 908:C:/Users/stapi/OneDrive/Desktop/GD32VW553/GD32VW55X_Wifi_BLE_SDK/GD32VW55x_RELEASE_V1.0.2/MSDK/lwip/lwip-2.1.2/src/apps/altcp_tls\altcp_tls_mbedtls.c ****     LWIP_DEBUGF(ALTCP_MBEDTLS_DEBUG, ("mbedtls_ssl_conf_own_cert failed: %d 0x%x", ret, -1*ret));
 3744              		.loc 1 908 6 is_stmt 0
 3745 0090 6DF5     		bne	a0,zero,.L467
 3746              	.LVL438:
 3747              	.L450:
 915:C:/Users/stapi/OneDrive/Desktop/GD32VW553/GD32VW55X_Wifi_BLE_SDK/GD32VW55x_RELEASE_V1.0.2/MSDK/lwip/lwip-2.1.2/src/apps/altcp_tls\altcp_tls_mbedtls.c **** 
 3748              		.loc 1 915 1
 3749 0092 2285     		mv	a0,s0
 3750 0094 17030000 		tail	__riscv_restore_7
 3750      67000300 
 3751              		.cfi_restore 22
 3752              		.cfi_restore 21
 3753              		.cfi_restore 20
 3754              		.cfi_restore 19
 3755              		.cfi_restore 18
 3756              		.cfi_restore 9
 3757              		.cfi_restore 8
 3758              		.cfi_restore 1
 3759              		.cfi_def_cfa_offset 0
 3760              		.cfi_endproc
 3761              	.LFE411:
 3763              		.section	.text.altcp_tls_free_config,"ax",@progbits
 3764              		.align	1
 3765              		.globl	altcp_tls_free_config
 3767              	altcp_tls_free_config:
 3768              	.LFB412:
 919:C:/Users/stapi/OneDrive/Desktop/GD32VW553/GD32VW55X_Wifi_BLE_SDK/GD32VW55x_RELEASE_V1.0.2/MSDK/lwip/lwip-2.1.2/src/apps/altcp_tls\altcp_tls_mbedtls.c ****   if (conf->pkey) {
 3769              		.loc 1 919 1 is_stmt 1
 3770              		.cfi_startproc
 3771              	.LVL439:
 3772 0000 17030000 		call	t0,__riscv_save_1
 3772      E7020300 
 3773              		.cfi_offset 8, -8
 3774              		.cfi_offset 1, -4
 3775              		.cfi_def_cfa_offset 16
 920:C:/Users/stapi/OneDrive/Desktop/GD32VW553/GD32VW55X_Wifi_BLE_SDK/GD32VW55x_RELEASE_V1.0.2/MSDK/lwip/lwip-2.1.2/src/apps/altcp_tls\altcp_tls_mbedtls.c ****     mbedtls_pk_free(conf->pkey);
 3776              		.loc 1 920 3
 919:C:/Users/stapi/OneDrive/Desktop/GD32VW553/GD32VW55X_Wifi_BLE_SDK/GD32VW55x_RELEASE_V1.0.2/MSDK/lwip/lwip-2.1.2/src/apps/altcp_tls\altcp_tls_mbedtls.c ****   if (conf->pkey) {
 3777              		.loc 1 919 1 is_stmt 0
 3778 0008 2A84     		mv	s0,a0
 920:C:/Users/stapi/OneDrive/Desktop/GD32VW553/GD32VW55X_Wifi_BLE_SDK/GD32VW55x_RELEASE_V1.0.2/MSDK/lwip/lwip-2.1.2/src/apps/altcp_tls\altcp_tls_mbedtls.c ****     mbedtls_pk_free(conf->pkey);
 3779              		.loc 1 920 11
 3780 000a 03258539 		lw	a0,920(a0)
 3781              	.LVL440:
 920:C:/Users/stapi/OneDrive/Desktop/GD32VW553/GD32VW55X_Wifi_BLE_SDK/GD32VW55x_RELEASE_V1.0.2/MSDK/lwip/lwip-2.1.2/src/apps/altcp_tls\altcp_tls_mbedtls.c ****     mbedtls_pk_free(conf->pkey);
 3782              		.loc 1 920 6
 3783 000e 09C5     		beq	a0,zero,.L470
 921:C:/Users/stapi/OneDrive/Desktop/GD32VW553/GD32VW55X_Wifi_BLE_SDK/GD32VW55x_RELEASE_V1.0.2/MSDK/lwip/lwip-2.1.2/src/apps/altcp_tls\altcp_tls_mbedtls.c ****   }
 3784              		.loc 1 921 5 is_stmt 1
 3785 0010 97000000 		call	mbedtls_pk_free
 3785      E7800000 
 3786              	.LVL441:
 3787              	.L470:
 923:C:/Users/stapi/OneDrive/Desktop/GD32VW553/GD32VW55X_Wifi_BLE_SDK/GD32VW55x_RELEASE_V1.0.2/MSDK/lwip/lwip-2.1.2/src/apps/altcp_tls\altcp_tls_mbedtls.c ****     mbedtls_x509_crt_free(conf->cert);
 3788              		.loc 1 923 3
 923:C:/Users/stapi/OneDrive/Desktop/GD32VW553/GD32VW55X_Wifi_BLE_SDK/GD32VW55x_RELEASE_V1.0.2/MSDK/lwip/lwip-2.1.2/src/apps/altcp_tls\altcp_tls_mbedtls.c ****     mbedtls_x509_crt_free(conf->cert);
 3789              		.loc 1 923 11 is_stmt 0
 3790 0018 03254439 		lw	a0,916(s0)
 923:C:/Users/stapi/OneDrive/Desktop/GD32VW553/GD32VW55X_Wifi_BLE_SDK/GD32VW55x_RELEASE_V1.0.2/MSDK/lwip/lwip-2.1.2/src/apps/altcp_tls\altcp_tls_mbedtls.c ****     mbedtls_x509_crt_free(conf->cert);
 3791              		.loc 1 923 6
 3792 001c 09C5     		beq	a0,zero,.L471
 924:C:/Users/stapi/OneDrive/Desktop/GD32VW553/GD32VW55X_Wifi_BLE_SDK/GD32VW55x_RELEASE_V1.0.2/MSDK/lwip/lwip-2.1.2/src/apps/altcp_tls\altcp_tls_mbedtls.c ****   }
 3793              		.loc 1 924 5 is_stmt 1
 3794 001e 97000000 		call	mbedtls_x509_crt_free
 3794      E7800000 
 3795              	.LVL442:
 3796              	.L471:
 926:C:/Users/stapi/OneDrive/Desktop/GD32VW553/GD32VW55X_Wifi_BLE_SDK/GD32VW55x_RELEASE_V1.0.2/MSDK/lwip/lwip-2.1.2/src/apps/altcp_tls\altcp_tls_mbedtls.c ****     mbedtls_x509_crt_free(conf->ca);
 3797              		.loc 1 926 3
 926:C:/Users/stapi/OneDrive/Desktop/GD32VW553/GD32VW55X_Wifi_BLE_SDK/GD32VW55x_RELEASE_V1.0.2/MSDK/lwip/lwip-2.1.2/src/apps/altcp_tls\altcp_tls_mbedtls.c ****     mbedtls_x509_crt_free(conf->ca);
 3798              		.loc 1 926 11 is_stmt 0
 3799 0026 0325C439 		lw	a0,924(s0)
 926:C:/Users/stapi/OneDrive/Desktop/GD32VW553/GD32VW55X_Wifi_BLE_SDK/GD32VW55x_RELEASE_V1.0.2/MSDK/lwip/lwip-2.1.2/src/apps/altcp_tls\altcp_tls_mbedtls.c ****     mbedtls_x509_crt_free(conf->ca);
 3800              		.loc 1 926 6
 3801 002a 09C5     		beq	a0,zero,.L472
 927:C:/Users/stapi/OneDrive/Desktop/GD32VW553/GD32VW55X_Wifi_BLE_SDK/GD32VW55x_RELEASE_V1.0.2/MSDK/lwip/lwip-2.1.2/src/apps/altcp_tls\altcp_tls_mbedtls.c ****   }
 3802              		.loc 1 927 5 is_stmt 1
 3803 002c 97000000 		call	mbedtls_x509_crt_free
 3803      E7800000 
 3804              	.LVL443:
 3805              	.L472:
 930:C:/Users/stapi/OneDrive/Desktop/GD32VW553/GD32VW55X_Wifi_BLE_SDK/GD32VW55x_RELEASE_V1.0.2/MSDK/lwip/lwip-2.1.2/src/apps/altcp_tls\altcp_tls_mbedtls.c **** /* FT TAG */
 3806              		.loc 1 930 3
 3807 0034 2285     		mv	a0,s0
 3808 0036 97000000 		call	mbedtls_ssl_config_free
 3808      E7800000 
 3809              	.LVL444:
 932:C:/Users/stapi/OneDrive/Desktop/GD32VW553/GD32VW55X_Wifi_BLE_SDK/GD32VW55x_RELEASE_V1.0.2/MSDK/lwip/lwip-2.1.2/src/apps/altcp_tls\altcp_tls_mbedtls.c **** }
 3810              		.loc 1 932 3
 3811 003e 2285     		mv	a0,s0
 3812 0040 97000000 		call	altcp_mbedtls_free_config
 3812      E7800000 
 3813              	.LVL445:
 933:C:/Users/stapi/OneDrive/Desktop/GD32VW553/GD32VW55X_Wifi_BLE_SDK/GD32VW55x_RELEASE_V1.0.2/MSDK/lwip/lwip-2.1.2/src/apps/altcp_tls\altcp_tls_mbedtls.c **** 
 3814              		.loc 1 933 1 is_stmt 0
 3815 0048 17030000 		tail	__riscv_restore_1
 3815      67000300 
 3816              		.cfi_restore 8
 3817              		.cfi_restore 1
 3818              		.cfi_def_cfa_offset 0
 3819              		.cfi_endproc
 3820              	.LFE412:
 3822              		.globl	altcp_mbedtls_functions
 3823              		.section	.rodata.altcp_mbedtls_functions,"a"
 3824              		.align	2
 3825              		.set	.LANCHOR1,. + 0
 3828              	altcp_mbedtls_functions:
 3829 0000 00000000 		.word	altcp_mbedtls_set_poll
 3830 0004 00000000 		.word	altcp_mbedtls_recved
 3831 0008 00000000 		.word	altcp_default_bind
 3832 000c 00000000 		.word	altcp_mbedtls_connect
 3833 0010 00000000 		.word	altcp_mbedtls_listen
 3834 0014 00000000 		.word	altcp_mbedtls_abort
 3835 0018 00000000 		.word	altcp_mbedtls_close
 3836 001c 00000000 		.word	altcp_default_shutdown
 3837 0020 00000000 		.word	altcp_mbedtls_write
 3838 0024 00000000 		.word	altcp_default_output
 3839 0028 00000000 		.word	altcp_mbedtls_mss
 3840 002c 00000000 		.word	altcp_mbedtls_sndbuf
 3841 0030 00000000 		.word	altcp_default_sndqueuelen
 3842 0034 00000000 		.word	altcp_default_nagle_disable
 3843 0038 00000000 		.word	altcp_default_nagle_enable
 3844 003c 00000000 		.word	altcp_default_nagle_disabled
 3845 0040 00000000 		.word	altcp_default_setprio
 3846 0044 00000000 		.word	altcp_mbedtls_dealloc
 3847 0048 00000000 		.word	altcp_default_get_tcp_addrinfo
 3848 004c 00000000 		.word	altcp_default_get_ip
 3849 0050 00000000 		.word	altcp_default_get_port
 3850              		.section	.sbss.ctr.0,"aw",@nobits
 3851              		.align	2
 3852              		.set	.LANCHOR0,. + 0
 3855              	ctr.0:
 3856 0000 00000000 		.zero	4
 3857              		.text
 3858              	.Letext0:
 3859              		.file 2 "c:\\users\\stapi\\onedrive\\desktop\\gd32vw553\\embeddedbuilder_v1.4.7.26843\\tools\\nucl
 3860              		.file 3 "c:\\users\\stapi\\onedrive\\desktop\\gd32vw553\\embeddedbuilder_v1.4.7.26843\\tools\\nucl
 3861              		.file 4 "c:\\users\\stapi\\onedrive\\desktop\\gd32vw553\\embeddedbuilder_v1.4.7.26843\\tools\\nucl
 3862              		.file 5 "..\\..\\..\\..\\lwip\\lwip-2.1.2\\src\\include/lwip/arch.h"
 3863              		.file 6 "..\\..\\..\\..\\lwip\\lwip-2.1.2\\src\\include/lwip/err.h"
 3864              		.file 7 "..\\..\\..\\..\\lwip\\lwip-2.1.2\\src\\include/lwip/pbuf.h"
 3865              		.file 8 "..\\..\\..\\..\\lwip\\lwip-2.1.2\\src\\include/lwip/ip4_addr.h"
 3866              		.file 9 "..\\..\\..\\..\\lwip\\lwip-2.1.2\\src\\include/lwip/ip_addr.h"
 3867              		.file 10 "..\\..\\..\\..\\lwip\\lwip-2.1.2\\src\\include/lwip/altcp.h"
 3868              		.file 11 "..\\..\\..\\..\\lwip\\lwip-2.1.2\\src\\include/lwip/priv/altcp_priv.h"
 3869              		.file 12 "..\\..\\..\\..\\plf\\GD32VW55x_standard_peripheral\\Include/gd32vw55x_hau.h"
 3870              		.file 13 "..\\..\\..\\..\\..\\ROM-EXPORT\\mbedtls-2.17.0-rom\\include/mbedtls/md5.h"
 3871              		.file 14 "..\\..\\..\\..\\..\\ROM-EXPORT\\mbedtls-2.17.0-rom\\include/mbedtls/sha1.h"
 3872              		.file 15 "..\\..\\..\\..\\..\\ROM-EXPORT\\mbedtls-2.17.0-rom\\include/mbedtls/sha256_alt.h"
 3873              		.file 16 "..\\..\\..\\..\\..\\ROM-EXPORT\\mbedtls-2.17.0-rom\\include/mbedtls/sha512.h"
 3874              		.file 17 "..\\..\\..\\..\\..\\ROM-EXPORT\\mbedtls-2.17.0-rom\\include/mbedtls/md.h"
 3875              		.file 18 "..\\..\\..\\..\\..\\ROM-EXPORT\\mbedtls-2.17.0-rom\\include/mbedtls/cipher.h"
 3876              		.file 19 "..\\..\\..\\..\\..\\ROM-EXPORT\\mbedtls-2.17.0-rom\\include/mbedtls/bignum.h"
 3877              		.file 20 "..\\..\\..\\..\\..\\ROM-EXPORT\\mbedtls-2.17.0-rom\\include/mbedtls/dhm.h"
 3878              		.file 21 "..\\..\\..\\..\\..\\ROM-EXPORT\\mbedtls-2.17.0-rom\\include/mbedtls/ecp.h"
 3879              		.file 22 "..\\..\\..\\..\\..\\ROM-EXPORT\\mbedtls-2.17.0-rom\\include/mbedtls/ecdh.h"
 3880              		.file 23 "..\\..\\..\\..\\..\\ROM-EXPORT\\mbedtls-2.17.0-rom\\include/mbedtls/pk.h"
 3881              		.file 24 "..\\..\\..\\..\\..\\ROM-EXPORT\\mbedtls-2.17.0-rom\\include/mbedtls/asn1.h"
 3882              		.file 25 "..\\..\\..\\..\\..\\ROM-EXPORT\\mbedtls-2.17.0-rom\\include/mbedtls/x509.h"
 3883              		.file 26 "..\\..\\..\\..\\..\\ROM-EXPORT\\mbedtls-2.17.0-rom\\include/mbedtls/x509_crl.h"
 3884              		.file 27 "..\\..\\..\\..\\..\\ROM-EXPORT\\mbedtls-2.17.0-rom\\include/mbedtls/x509_crt.h"
 3885              		.file 28 "..\\..\\..\\..\\..\\ROM-EXPORT\\mbedtls-2.17.0-rom\\include/mbedtls/aes_alt.h"
 3886              		.file 29 "..\\..\\..\\..\\..\\ROM-EXPORT\\mbedtls-2.17.0-rom\\include/mbedtls/ctr_drbg.h"
 3887              		.file 30 "..\\..\\..\\..\\..\\ROM-EXPORT\\mbedtls-2.17.0-rom\\include/mbedtls/platform_time.h"
 3888              		.file 31 "..\\..\\..\\..\\..\\ROM-EXPORT\\mbedtls-2.17.0-rom\\include/mbedtls/ssl_ciphersuites.h"
 3889              		.file 32 "..\\..\\..\\..\\..\\ROM-EXPORT\\mbedtls-2.17.0-rom\\include/mbedtls/ssl.h"
 3890              		.file 33 "..\\..\\..\\..\\mbedtls\\mbedtls-2.17.0-ssl\\include/mbedtls/ssl_internal.h"
 3891              		.file 34 "C:/Users/stapi/OneDrive/Desktop/GD32VW553/GD32VW55X_Wifi_BLE_SDK/GD32VW55x_RELEASE_V1.0.
 3892              		.file 35 "..\\..\\..\\..\\..\\ROM-EXPORT\\mbedtls-2.17.0-rom\\include/mbedtls/entropy.h"
 3893              		.file 36 "C:/Users/stapi/OneDrive/Desktop/GD32VW553/GD32VW55X_Wifi_BLE_SDK/GD32VW55x_RELEASE_V1.0.
 3894              		.file 37 "c:\\users\\stapi\\onedrive\\desktop\\gd32vw553\\embeddedbuilder_v1.4.7.26843\\tools\\nuc
DEFINED SYMBOLS
                            *ABS*:0000000000000000 altcp_tls_mbedtls.c
C:\Users\stapi\AppData\Local\Temp\ccL2g2h3.s:12     .text.dummy_rng:0000000000000000 dummy_rng
C:\Users\stapi\AppData\Local\Temp\ccL2g2h3.s:16     .text.dummy_rng:0000000000000000 .L0 
C:\Users\stapi\AppData\Local\Temp\ccL2g2h3.s:18     .text.dummy_rng:0000000000000000 .L0 
C:\Users\stapi\AppData\Local\Temp\ccL2g2h3.s:19     .text.dummy_rng:0000000000000000 .L0 
C:\Users\stapi\AppData\Local\Temp\ccL2g2h3.s:20     .text.dummy_rng:0000000000000000 .L0 
C:\Users\stapi\AppData\Local\Temp\ccL2g2h3.s:21     .text.dummy_rng:0000000000000000 .L0 
C:\Users\stapi\AppData\Local\Temp\ccL2g2h3.s:22     .text.dummy_rng:0000000000000000 .L0 
C:\Users\stapi\AppData\Local\Temp\ccL2g2h3.s:27     .text.dummy_rng:000000000000000a .L0 
C:\Users\stapi\AppData\Local\Temp\ccL2g2h3.s:30     .text.dummy_rng:0000000000000010 .L0 
C:\Users\stapi\AppData\Local\Temp\ccL2g2h3.s:34     .text.dummy_rng:0000000000000014 .L0 
C:\Users\stapi\AppData\Local\Temp\ccL2g2h3.s:35     .text.dummy_rng:0000000000000014 .L0 
C:\Users\stapi\AppData\Local\Temp\ccL2g2h3.s:42     .text.dummy_rng:000000000000001e .L0 
C:\Users\stapi\AppData\Local\Temp\ccL2g2h3.s:43     .text.dummy_rng:000000000000001e .L0 
C:\Users\stapi\AppData\Local\Temp\ccL2g2h3.s:48     .text.dummy_rng:0000000000000022 .L0 
C:\Users\stapi\AppData\Local\Temp\ccL2g2h3.s:49     .text.dummy_rng:0000000000000022 .L0 
C:\Users\stapi\AppData\Local\Temp\ccL2g2h3.s:53     .text.dummy_rng:000000000000002e .L0 
C:\Users\stapi\AppData\Local\Temp\ccL2g2h3.s:54     .text.dummy_rng:000000000000002e .L0 
C:\Users\stapi\AppData\Local\Temp\ccL2g2h3.s:58     .text.dummy_rng:0000000000000034 .L0 
C:\Users\stapi\AppData\Local\Temp\ccL2g2h3.s:64     .text.altcp_mbedtls_lower_err:0000000000000000 altcp_mbedtls_lower_err
C:\Users\stapi\AppData\Local\Temp\ccL2g2h3.s:67     .text.altcp_mbedtls_lower_err:0000000000000000 .L0 
C:\Users\stapi\AppData\Local\Temp\ccL2g2h3.s:69     .text.altcp_mbedtls_lower_err:0000000000000000 .L0 
C:\Users\stapi\AppData\Local\Temp\ccL2g2h3.s:70     .text.altcp_mbedtls_lower_err:0000000000000000 .L0 
C:\Users\stapi\AppData\Local\Temp\ccL2g2h3.s:71     .text.altcp_mbedtls_lower_err:0000000000000000 .L0 
C:\Users\stapi\AppData\Local\Temp\ccL2g2h3.s:72     .text.altcp_mbedtls_lower_err:0000000000000000 .L0 
C:\Users\stapi\AppData\Local\Temp\ccL2g2h3.s:74     .text.altcp_mbedtls_lower_err:0000000000000002 .L0 
C:\Users\stapi\AppData\Local\Temp\ccL2g2h3.s:75     .text.altcp_mbedtls_lower_err:000000000000000a .L0 
C:\Users\stapi\AppData\Local\Temp\ccL2g2h3.s:76     .text.altcp_mbedtls_lower_err:000000000000000a .L0 
C:\Users\stapi\AppData\Local\Temp\ccL2g2h3.s:77     .text.altcp_mbedtls_lower_err:000000000000000a .L0 
C:\Users\stapi\AppData\Local\Temp\ccL2g2h3.s:79     .text.altcp_mbedtls_lower_err:000000000000000a .L0 
C:\Users\stapi\AppData\Local\Temp\ccL2g2h3.s:81     .text.altcp_mbedtls_lower_err:000000000000000c .L0 
C:\Users\stapi\AppData\Local\Temp\ccL2g2h3.s:84     .text.altcp_mbedtls_lower_err:0000000000000012 .L0 
C:\Users\stapi\AppData\Local\Temp\ccL2g2h3.s:85     .text.altcp_mbedtls_lower_err:0000000000000012 .L0 
C:\Users\stapi\AppData\Local\Temp\ccL2g2h3.s:86     .text.altcp_mbedtls_lower_err:0000000000000012 .L0 
C:\Users\stapi\AppData\Local\Temp\ccL2g2h3.s:88     .text.altcp_mbedtls_lower_err:0000000000000014 .L0 
C:\Users\stapi\AppData\Local\Temp\ccL2g2h3.s:94     .text.altcp_mbedtls_lower_err:0000000000000018 .L0 
C:\Users\stapi\AppData\Local\Temp\ccL2g2h3.s:98     .text.altcp_mbedtls_lower_err:0000000000000022 .L0 
C:\Users\stapi\AppData\Local\Temp\ccL2g2h3.s:99     .text.altcp_mbedtls_lower_err:000000000000002a .L0 
C:\Users\stapi\AppData\Local\Temp\ccL2g2h3.s:100    .text.altcp_mbedtls_lower_err:000000000000002a .L0 
C:\Users\stapi\AppData\Local\Temp\ccL2g2h3.s:101    .text.altcp_mbedtls_lower_err:000000000000002a .L0 
C:\Users\stapi\AppData\Local\Temp\ccL2g2h3.s:105    .text.altcp_mbedtls_lower_err:000000000000002c .L0 
C:\Users\stapi\AppData\Local\Temp\ccL2g2h3.s:124    .text.altcp_mbedtls_bio_recv:0000000000000000 altcp_mbedtls_bio_recv
C:\Users\stapi\AppData\Local\Temp\ccL2g2h3.s:127    .text.altcp_mbedtls_bio_recv:0000000000000000 .L0 
C:\Users\stapi\AppData\Local\Temp\ccL2g2h3.s:129    .text.altcp_mbedtls_bio_recv:0000000000000000 .L0 
C:\Users\stapi\AppData\Local\Temp\ccL2g2h3.s:130    .text.altcp_mbedtls_bio_recv:0000000000000000 .L0 
C:\Users\stapi\AppData\Local\Temp\ccL2g2h3.s:131    .text.altcp_mbedtls_bio_recv:0000000000000000 .L0 
C:\Users\stapi\AppData\Local\Temp\ccL2g2h3.s:132    .text.altcp_mbedtls_bio_recv:0000000000000000 .L0 
C:\Users\stapi\AppData\Local\Temp\ccL2g2h3.s:133    .text.altcp_mbedtls_bio_recv:0000000000000000 .L0 
C:\Users\stapi\AppData\Local\Temp\ccL2g2h3.s:134    .text.altcp_mbedtls_bio_recv:0000000000000000 .L0 
C:\Users\stapi\AppData\Local\Temp\ccL2g2h3.s:135    .text.altcp_mbedtls_bio_recv:0000000000000000 .L0 
C:\Users\stapi\AppData\Local\Temp\ccL2g2h3.s:136    .text.altcp_mbedtls_bio_recv:0000000000000000 .L0 
C:\Users\stapi\AppData\Local\Temp\ccL2g2h3.s:137    .text.altcp_mbedtls_bio_recv:0000000000000000 .L0 
C:\Users\stapi\AppData\Local\Temp\ccL2g2h3.s:138    .text.altcp_mbedtls_bio_recv:0000000000000000 .L0 
C:\Users\stapi\AppData\Local\Temp\ccL2g2h3.s:140    .text.altcp_mbedtls_bio_recv:0000000000000002 .L0 
C:\Users\stapi\AppData\Local\Temp\ccL2g2h3.s:141    .text.altcp_mbedtls_bio_recv:000000000000000a .L0 
C:\Users\stapi\AppData\Local\Temp\ccL2g2h3.s:142    .text.altcp_mbedtls_bio_recv:000000000000000a .L0 
C:\Users\stapi\AppData\Local\Temp\ccL2g2h3.s:143    .text.altcp_mbedtls_bio_recv:000000000000000a .L0 
C:\Users\stapi\AppData\Local\Temp\ccL2g2h3.s:144    .text.altcp_mbedtls_bio_recv:000000000000000a .L0 
C:\Users\stapi\AppData\Local\Temp\ccL2g2h3.s:145    .text.altcp_mbedtls_bio_recv:000000000000000a .L0 
C:\Users\stapi\AppData\Local\Temp\ccL2g2h3.s:146    .text.altcp_mbedtls_bio_recv:000000000000000a .L0 
C:\Users\stapi\AppData\Local\Temp\ccL2g2h3.s:148    .text.altcp_mbedtls_bio_recv:000000000000000a .L0 
C:\Users\stapi\AppData\Local\Temp\ccL2g2h3.s:150    .text.altcp_mbedtls_bio_recv:000000000000000e .L0 
C:\Users\stapi\AppData\Local\Temp\ccL2g2h3.s:153    .text.altcp_mbedtls_bio_recv:0000000000000012 .L0 
C:\Users\stapi\AppData\Local\Temp\ccL2g2h3.s:154    .text.altcp_mbedtls_bio_recv:0000000000000012 .L0 
C:\Users\stapi\AppData\Local\Temp\ccL2g2h3.s:155    .text.altcp_mbedtls_bio_recv:0000000000000012 .L0 
C:\Users\stapi\AppData\Local\Temp\ccL2g2h3.s:158    .text.altcp_mbedtls_bio_recv:0000000000000016 .L0 
C:\Users\stapi\AppData\Local\Temp\ccL2g2h3.s:159    .text.altcp_mbedtls_bio_recv:0000000000000016 .L0 
C:\Users\stapi\AppData\Local\Temp\ccL2g2h3.s:161    .text.altcp_mbedtls_bio_recv:0000000000000018 .L0 
C:\Users\stapi\AppData\Local\Temp\ccL2g2h3.s:163    .text.altcp_mbedtls_bio_recv:000000000000001c .L0 
C:\Users\stapi\AppData\Local\Temp\ccL2g2h3.s:165    .text.altcp_mbedtls_bio_recv:0000000000000020 .L0 
C:\Users\stapi\AppData\Local\Temp\ccL2g2h3.s:168    .text.altcp_mbedtls_bio_recv:0000000000000024 .L0 
C:\Users\stapi\AppData\Local\Temp\ccL2g2h3.s:169    .text.altcp_mbedtls_bio_recv:0000000000000024 .L0 
C:\Users\stapi\AppData\Local\Temp\ccL2g2h3.s:175    .text.altcp_mbedtls_bio_recv:000000000000002e .L0 
C:\Users\stapi\AppData\Local\Temp\ccL2g2h3.s:176    .text.altcp_mbedtls_bio_recv:000000000000002e .L0 
C:\Users\stapi\AppData\Local\Temp\ccL2g2h3.s:178    .text.altcp_mbedtls_bio_recv:0000000000000032 .L0 
C:\Users\stapi\AppData\Local\Temp\ccL2g2h3.s:180    .text.altcp_mbedtls_bio_recv:0000000000000036 .L0 
C:\Users\stapi\AppData\Local\Temp\ccL2g2h3.s:181    .text.altcp_mbedtls_bio_recv:0000000000000036 .L0 
C:\Users\stapi\AppData\Local\Temp\ccL2g2h3.s:184    .text.altcp_mbedtls_bio_recv:000000000000003a .L0 
C:\Users\stapi\AppData\Local\Temp\ccL2g2h3.s:186    .text.altcp_mbedtls_bio_recv:000000000000003c .L0 
C:\Users\stapi\AppData\Local\Temp\ccL2g2h3.s:188    .text.altcp_mbedtls_bio_recv:0000000000000040 .L0 
C:\Users\stapi\AppData\Local\Temp\ccL2g2h3.s:193    .text.altcp_mbedtls_bio_recv:0000000000000046 .L0 
C:\Users\stapi\AppData\Local\Temp\ccL2g2h3.s:194    .text.altcp_mbedtls_bio_recv:000000000000004e .L0 
C:\Users\stapi\AppData\Local\Temp\ccL2g2h3.s:195    .text.altcp_mbedtls_bio_recv:000000000000004e .L0 
C:\Users\stapi\AppData\Local\Temp\ccL2g2h3.s:196    .text.altcp_mbedtls_bio_recv:000000000000004e .L0 
C:\Users\stapi\AppData\Local\Temp\ccL2g2h3.s:197    .text.altcp_mbedtls_bio_recv:000000000000004e .L0 
C:\Users\stapi\AppData\Local\Temp\ccL2g2h3.s:198    .text.altcp_mbedtls_bio_recv:000000000000004e .L0 
C:\Users\stapi\AppData\Local\Temp\ccL2g2h3.s:199    .text.altcp_mbedtls_bio_recv:000000000000004e .L0 
C:\Users\stapi\AppData\Local\Temp\ccL2g2h3.s:200    .text.altcp_mbedtls_bio_recv:000000000000004e .L0 
C:\Users\stapi\AppData\Local\Temp\ccL2g2h3.s:203    .text.altcp_mbedtls_bio_recv:000000000000004e .L0 
C:\Users\stapi\AppData\Local\Temp\ccL2g2h3.s:205    .text.altcp_mbedtls_bio_recv:000000000000004e .L0 
C:\Users\stapi\AppData\Local\Temp\ccL2g2h3.s:206    .text.altcp_mbedtls_bio_recv:000000000000004e .L0 
C:\Users\stapi\AppData\Local\Temp\ccL2g2h3.s:208    .text.altcp_mbedtls_bio_recv:0000000000000052 .L0 
C:\Users\stapi\AppData\Local\Temp\ccL2g2h3.s:212    .text.altcp_mbedtls_bio_recv:0000000000000056 .L0 
C:\Users\stapi\AppData\Local\Temp\ccL2g2h3.s:213    .text.altcp_mbedtls_bio_recv:0000000000000056 .L0 
C:\Users\stapi\AppData\Local\Temp\ccL2g2h3.s:223    .text.altcp_mbedtls_bio_recv:0000000000000066 .L0 
C:\Users\stapi\AppData\Local\Temp\ccL2g2h3.s:224    .text.altcp_mbedtls_bio_recv:0000000000000066 .L0 
C:\Users\stapi\AppData\Local\Temp\ccL2g2h3.s:226    .text.altcp_mbedtls_bio_recv:000000000000006a .L0 
C:\Users\stapi\AppData\Local\Temp\ccL2g2h3.s:227    .text.altcp_mbedtls_bio_recv:000000000000006a .L0 
C:\Users\stapi\AppData\Local\Temp\ccL2g2h3.s:239    .text.altcp_mbedtls_bio_recv:000000000000008e .L0 
C:\Users\stapi\AppData\Local\Temp\ccL2g2h3.s:240    .text.altcp_mbedtls_bio_recv:000000000000008e .L0 
C:\Users\stapi\AppData\Local\Temp\ccL2g2h3.s:241    .text.altcp_mbedtls_bio_recv:000000000000008e .L0 
C:\Users\stapi\AppData\Local\Temp\ccL2g2h3.s:245    .text.altcp_mbedtls_bio_recv:0000000000000090 .L0 
C:\Users\stapi\AppData\Local\Temp\ccL2g2h3.s:246    .text.altcp_mbedtls_bio_recv:0000000000000090 .L0 
C:\Users\stapi\AppData\Local\Temp\ccL2g2h3.s:247    .text.altcp_mbedtls_bio_recv:0000000000000090 .L0 
C:\Users\stapi\AppData\Local\Temp\ccL2g2h3.s:248    .text.altcp_mbedtls_bio_recv:0000000000000090 .L0 
C:\Users\stapi\AppData\Local\Temp\ccL2g2h3.s:254    .text.altcp_mbedtls_bio_recv:000000000000009c .L0 
C:\Users\stapi\AppData\Local\Temp\ccL2g2h3.s:255    .text.altcp_mbedtls_bio_recv:000000000000009c .L0 
C:\Users\stapi\AppData\Local\Temp\ccL2g2h3.s:257    .text.altcp_mbedtls_bio_recv:000000000000009e .L0 
C:\Users\stapi\AppData\Local\Temp\ccL2g2h3.s:258    .text.altcp_mbedtls_bio_recv:000000000000009e .L0 
C:\Users\stapi\AppData\Local\Temp\ccL2g2h3.s:270    .text.altcp_mbedtls_bio_recv:00000000000000c2 .L0 
C:\Users\stapi\AppData\Local\Temp\ccL2g2h3.s:271    .text.altcp_mbedtls_bio_recv:00000000000000c2 .L0 
C:\Users\stapi\AppData\Local\Temp\ccL2g2h3.s:272    .text.altcp_mbedtls_bio_recv:00000000000000c2 .L0 
C:\Users\stapi\AppData\Local\Temp\ccL2g2h3.s:276    .text.altcp_mbedtls_bio_recv:00000000000000c4 .L0 
C:\Users\stapi\AppData\Local\Temp\ccL2g2h3.s:277    .text.altcp_mbedtls_bio_recv:00000000000000c4 .L0 
C:\Users\stapi\AppData\Local\Temp\ccL2g2h3.s:278    .text.altcp_mbedtls_bio_recv:00000000000000c4 .L0 
C:\Users\stapi\AppData\Local\Temp\ccL2g2h3.s:279    .text.altcp_mbedtls_bio_recv:00000000000000c4 .L0 
C:\Users\stapi\AppData\Local\Temp\ccL2g2h3.s:282    .text.altcp_mbedtls_bio_recv:00000000000000ca .L0 
C:\Users\stapi\AppData\Local\Temp\ccL2g2h3.s:283    .text.altcp_mbedtls_bio_recv:00000000000000ca .L0 
C:\Users\stapi\AppData\Local\Temp\ccL2g2h3.s:285    .text.altcp_mbedtls_bio_recv:00000000000000cc .L0 
C:\Users\stapi\AppData\Local\Temp\ccL2g2h3.s:288    .text.altcp_mbedtls_bio_recv:00000000000000ce .L0 
C:\Users\stapi\AppData\Local\Temp\ccL2g2h3.s:290    .text.altcp_mbedtls_bio_recv:00000000000000d2 .L0 
C:\Users\stapi\AppData\Local\Temp\ccL2g2h3.s:291    .text.altcp_mbedtls_bio_recv:00000000000000d2 .L0 
C:\Users\stapi\AppData\Local\Temp\ccL2g2h3.s:293    .text.altcp_mbedtls_bio_recv:00000000000000d6 .L0 
C:\Users\stapi\AppData\Local\Temp\ccL2g2h3.s:297    .text.altcp_mbedtls_bio_recv:00000000000000de .L0 
C:\Users\stapi\AppData\Local\Temp\ccL2g2h3.s:298    .text.altcp_mbedtls_bio_recv:00000000000000de .L0 
C:\Users\stapi\AppData\Local\Temp\ccL2g2h3.s:300    .text.altcp_mbedtls_bio_recv:00000000000000e2 .L0 
C:\Users\stapi\AppData\Local\Temp\ccL2g2h3.s:302    .text.altcp_mbedtls_bio_recv:00000000000000e4 .L0 
C:\Users\stapi\AppData\Local\Temp\ccL2g2h3.s:305    .text.altcp_mbedtls_bio_recv:00000000000000ea .L0 
C:\Users\stapi\AppData\Local\Temp\ccL2g2h3.s:306    .text.altcp_mbedtls_bio_recv:00000000000000ea .L0 
C:\Users\stapi\AppData\Local\Temp\ccL2g2h3.s:309    .text.altcp_mbedtls_bio_recv:00000000000000ec .L0 
C:\Users\stapi\AppData\Local\Temp\ccL2g2h3.s:310    .text.altcp_mbedtls_bio_recv:00000000000000ec .L0 
C:\Users\stapi\AppData\Local\Temp\ccL2g2h3.s:311    .text.altcp_mbedtls_bio_recv:00000000000000ec .L0 
C:\Users\stapi\AppData\Local\Temp\ccL2g2h3.s:312    .text.altcp_mbedtls_bio_recv:00000000000000ec .L0 
C:\Users\stapi\AppData\Local\Temp\ccL2g2h3.s:313    .text.altcp_mbedtls_bio_recv:00000000000000ec .L0 
C:\Users\stapi\AppData\Local\Temp\ccL2g2h3.s:314    .text.altcp_mbedtls_bio_recv:00000000000000ec .L0 
C:\Users\stapi\AppData\Local\Temp\ccL2g2h3.s:316    .text.altcp_mbedtls_bio_recv:00000000000000ec .L0 
C:\Users\stapi\AppData\Local\Temp\ccL2g2h3.s:319    .text.altcp_mbedtls_bio_recv:00000000000000f0 .L0 
C:\Users\stapi\AppData\Local\Temp\ccL2g2h3.s:322    .text.altcp_mbedtls_bio_recv:00000000000000f2 .L0 
C:\Users\stapi\AppData\Local\Temp\ccL2g2h3.s:323    .text.altcp_mbedtls_bio_recv:00000000000000f2 .L0 
C:\Users\stapi\AppData\Local\Temp\ccL2g2h3.s:324    .text.altcp_mbedtls_bio_recv:00000000000000f2 .L0 
C:\Users\stapi\AppData\Local\Temp\ccL2g2h3.s:325    .text.altcp_mbedtls_bio_recv:00000000000000f2 .L0 
C:\Users\stapi\AppData\Local\Temp\ccL2g2h3.s:326    .text.altcp_mbedtls_bio_recv:00000000000000f2 .L0 
C:\Users\stapi\AppData\Local\Temp\ccL2g2h3.s:327    .text.altcp_mbedtls_bio_recv:00000000000000f2 .L0 
C:\Users\stapi\AppData\Local\Temp\ccL2g2h3.s:329    .text.altcp_mbedtls_bio_recv:00000000000000f2 .L0 
C:\Users\stapi\AppData\Local\Temp\ccL2g2h3.s:332    .text.altcp_mbedtls_bio_recv:00000000000000f8 .L0 
C:\Users\stapi\AppData\Local\Temp\ccL2g2h3.s:338    .text.altcp_mbedtls_setup_callbacks:0000000000000000 altcp_mbedtls_setup_callbacks
C:\Users\stapi\AppData\Local\Temp\ccL2g2h3.s:341    .text.altcp_mbedtls_setup_callbacks:0000000000000000 .L0 
C:\Users\stapi\AppData\Local\Temp\ccL2g2h3.s:343    .text.altcp_mbedtls_setup_callbacks:0000000000000000 .L0 
C:\Users\stapi\AppData\Local\Temp\ccL2g2h3.s:344    .text.altcp_mbedtls_setup_callbacks:0000000000000008 .L0 
C:\Users\stapi\AppData\Local\Temp\ccL2g2h3.s:345    .text.altcp_mbedtls_setup_callbacks:0000000000000008 .L0 
C:\Users\stapi\AppData\Local\Temp\ccL2g2h3.s:346    .text.altcp_mbedtls_setup_callbacks:0000000000000008 .L0 
C:\Users\stapi\AppData\Local\Temp\ccL2g2h3.s:348    .text.altcp_mbedtls_setup_callbacks:0000000000000008 .L0 
C:\Users\stapi\AppData\Local\Temp\ccL2g2h3.s:349    .text.altcp_mbedtls_setup_callbacks:0000000000000008 .L0 
C:\Users\stapi\AppData\Local\Temp\ccL2g2h3.s:351    .text.altcp_mbedtls_setup_callbacks:000000000000000a .L0 
C:\Users\stapi\AppData\Local\Temp\ccL2g2h3.s:2934   .text.altcp_mbedtls_lower_recv:0000000000000000 altcp_mbedtls_lower_recv
C:\Users\stapi\AppData\Local\Temp\ccL2g2h3.s:358    .text.altcp_mbedtls_setup_callbacks:0000000000000016 .L0 
C:\Users\stapi\AppData\Local\Temp\ccL2g2h3.s:390    .text.altcp_mbedtls_lower_sent:0000000000000000 altcp_mbedtls_lower_sent
C:\Users\stapi\AppData\Local\Temp\ccL2g2h3.s:364    .text.altcp_mbedtls_setup_callbacks:0000000000000028 .L0 
C:\Users\stapi\AppData\Local\Temp\ccL2g2h3.s:370    .text.altcp_mbedtls_setup_callbacks:000000000000003a .L0 
C:\Users\stapi\AppData\Local\Temp\ccL2g2h3.s:376    .text.altcp_mbedtls_setup_callbacks:000000000000004c .L0 
C:\Users\stapi\AppData\Local\Temp\ccL2g2h3.s:377    .text.altcp_mbedtls_setup_callbacks:0000000000000054 .L0 
C:\Users\stapi\AppData\Local\Temp\ccL2g2h3.s:378    .text.altcp_mbedtls_setup_callbacks:0000000000000054 .L0 
C:\Users\stapi\AppData\Local\Temp\ccL2g2h3.s:379    .text.altcp_mbedtls_setup_callbacks:0000000000000054 .L0 
C:\Users\stapi\AppData\Local\Temp\ccL2g2h3.s:380    .text.altcp_mbedtls_setup_callbacks:0000000000000054 .L0 
C:\Users\stapi\AppData\Local\Temp\ccL2g2h3.s:393    .text.altcp_mbedtls_lower_sent:0000000000000000 .L0 
C:\Users\stapi\AppData\Local\Temp\ccL2g2h3.s:395    .text.altcp_mbedtls_lower_sent:0000000000000000 .L0 
C:\Users\stapi\AppData\Local\Temp\ccL2g2h3.s:396    .text.altcp_mbedtls_lower_sent:0000000000000000 .L0 
C:\Users\stapi\AppData\Local\Temp\ccL2g2h3.s:397    .text.altcp_mbedtls_lower_sent:0000000000000000 .L0 
C:\Users\stapi\AppData\Local\Temp\ccL2g2h3.s:398    .text.altcp_mbedtls_lower_sent:0000000000000000 .L0 
C:\Users\stapi\AppData\Local\Temp\ccL2g2h3.s:399    .text.altcp_mbedtls_lower_sent:0000000000000000 .L0 
C:\Users\stapi\AppData\Local\Temp\ccL2g2h3.s:400    .text.altcp_mbedtls_lower_sent:0000000000000000 .L0 
C:\Users\stapi\AppData\Local\Temp\ccL2g2h3.s:402    .text.altcp_mbedtls_lower_sent:0000000000000002 .L0 
C:\Users\stapi\AppData\Local\Temp\ccL2g2h3.s:405    .text.altcp_mbedtls_lower_sent:0000000000000004 .L0 
C:\Users\stapi\AppData\Local\Temp\ccL2g2h3.s:408    .text.altcp_mbedtls_lower_sent:0000000000000006 .L0 
C:\Users\stapi\AppData\Local\Temp\ccL2g2h3.s:409    .text.altcp_mbedtls_lower_sent:0000000000000006 .L0 
C:\Users\stapi\AppData\Local\Temp\ccL2g2h3.s:410    .text.altcp_mbedtls_lower_sent:0000000000000006 .L0 
C:\Users\stapi\AppData\Local\Temp\ccL2g2h3.s:411    .text.altcp_mbedtls_lower_sent:0000000000000006 .L0 
C:\Users\stapi\AppData\Local\Temp\ccL2g2h3.s:413    .text.altcp_mbedtls_lower_sent:0000000000000006 .L0 
C:\Users\stapi\AppData\Local\Temp\ccL2g2h3.s:416    .text.altcp_mbedtls_lower_sent:0000000000000008 .L0 
C:\Users\stapi\AppData\Local\Temp\ccL2g2h3.s:417    .text.altcp_mbedtls_lower_sent:0000000000000010 .L0 
C:\Users\stapi\AppData\Local\Temp\ccL2g2h3.s:418    .text.altcp_mbedtls_lower_sent:0000000000000010 .L0 
C:\Users\stapi\AppData\Local\Temp\ccL2g2h3.s:419    .text.altcp_mbedtls_lower_sent:0000000000000010 .L0 
C:\Users\stapi\AppData\Local\Temp\ccL2g2h3.s:420    .text.altcp_mbedtls_lower_sent:0000000000000010 .L0 
C:\Users\stapi\AppData\Local\Temp\ccL2g2h3.s:424    .text.altcp_mbedtls_lower_sent:0000000000000010 .L0 
C:\Users\stapi\AppData\Local\Temp\ccL2g2h3.s:425    .text.altcp_mbedtls_lower_sent:0000000000000018 .L0 
C:\Users\stapi\AppData\Local\Temp\ccL2g2h3.s:426    .text.altcp_mbedtls_lower_sent:0000000000000018 .L0 
C:\Users\stapi\AppData\Local\Temp\ccL2g2h3.s:427    .text.altcp_mbedtls_lower_sent:0000000000000018 .L0 
C:\Users\stapi\AppData\Local\Temp\ccL2g2h3.s:428    .text.altcp_mbedtls_lower_sent:0000000000000018 .L0 
C:\Users\stapi\AppData\Local\Temp\ccL2g2h3.s:431    .text.altcp_mbedtls_lower_sent:0000000000000018 .L0 
C:\Users\stapi\AppData\Local\Temp\ccL2g2h3.s:435    .text.altcp_mbedtls_lower_sent:000000000000001c .L0 
C:\Users\stapi\AppData\Local\Temp\ccL2g2h3.s:436    .text.altcp_mbedtls_lower_sent:000000000000001c .L0 
C:\Users\stapi\AppData\Local\Temp\ccL2g2h3.s:437    .text.altcp_mbedtls_lower_sent:000000000000001c .L0 
C:\Users\stapi\AppData\Local\Temp\ccL2g2h3.s:440    .text.altcp_mbedtls_lower_sent:0000000000000020 .L0 
C:\Users\stapi\AppData\Local\Temp\ccL2g2h3.s:441    .text.altcp_mbedtls_lower_sent:0000000000000020 .L0 
C:\Users\stapi\AppData\Local\Temp\ccL2g2h3.s:454    .text.altcp_mbedtls_lower_sent:0000000000000044 .L0 
C:\Users\stapi\AppData\Local\Temp\ccL2g2h3.s:455    .text.altcp_mbedtls_lower_sent:0000000000000044 .L0 
C:\Users\stapi\AppData\Local\Temp\ccL2g2h3.s:456    .text.altcp_mbedtls_lower_sent:0000000000000044 .L0 
C:\Users\stapi\AppData\Local\Temp\ccL2g2h3.s:460    .text.altcp_mbedtls_lower_sent:0000000000000046 .L0 
C:\Users\stapi\AppData\Local\Temp\ccL2g2h3.s:462    .text.altcp_mbedtls_lower_sent:0000000000000048 .L0 
C:\Users\stapi\AppData\Local\Temp\ccL2g2h3.s:463    .text.altcp_mbedtls_lower_sent:0000000000000048 .L0 
C:\Users\stapi\AppData\Local\Temp\ccL2g2h3.s:464    .text.altcp_mbedtls_lower_sent:0000000000000048 .L0 
C:\Users\stapi\AppData\Local\Temp\ccL2g2h3.s:465    .text.altcp_mbedtls_lower_sent:0000000000000048 .L0 
C:\Users\stapi\AppData\Local\Temp\ccL2g2h3.s:467    .text.altcp_mbedtls_lower_sent:000000000000004a .L0 
C:\Users\stapi\AppData\Local\Temp\ccL2g2h3.s:471    .text.altcp_mbedtls_lower_sent:0000000000000052 .L0 
C:\Users\stapi\AppData\Local\Temp\ccL2g2h3.s:475    .text.altcp_mbedtls_lower_sent:000000000000005e .L0 
C:\Users\stapi\AppData\Local\Temp\ccL2g2h3.s:476    .text.altcp_mbedtls_lower_sent:000000000000005e .L0 
C:\Users\stapi\AppData\Local\Temp\ccL2g2h3.s:480    .text.altcp_mbedtls_lower_sent:0000000000000066 .L0 
C:\Users\stapi\AppData\Local\Temp\ccL2g2h3.s:482    .text.altcp_mbedtls_lower_sent:0000000000000068 .L0 
C:\Users\stapi\AppData\Local\Temp\ccL2g2h3.s:484    .text.altcp_mbedtls_lower_sent:000000000000006a .L0 
C:\Users\stapi\AppData\Local\Temp\ccL2g2h3.s:485    .text.altcp_mbedtls_lower_sent:000000000000006a .L0 
C:\Users\stapi\AppData\Local\Temp\ccL2g2h3.s:492    .text.altcp_mbedtls_lower_sent:0000000000000074 .L0 
C:\Users\stapi\AppData\Local\Temp\ccL2g2h3.s:498    .text.altcp_mbedtls_recved:0000000000000000 altcp_mbedtls_recved
C:\Users\stapi\AppData\Local\Temp\ccL2g2h3.s:501    .text.altcp_mbedtls_recved:0000000000000000 .L0 
C:\Users\stapi\AppData\Local\Temp\ccL2g2h3.s:503    .text.altcp_mbedtls_recved:0000000000000000 .L0 
C:\Users\stapi\AppData\Local\Temp\ccL2g2h3.s:504    .text.altcp_mbedtls_recved:0000000000000000 .L0 
C:\Users\stapi\AppData\Local\Temp\ccL2g2h3.s:505    .text.altcp_mbedtls_recved:0000000000000000 .L0 
C:\Users\stapi\AppData\Local\Temp\ccL2g2h3.s:506    .text.altcp_mbedtls_recved:0000000000000000 .L0 
C:\Users\stapi\AppData\Local\Temp\ccL2g2h3.s:507    .text.altcp_mbedtls_recved:0000000000000000 .L0 
C:\Users\stapi\AppData\Local\Temp\ccL2g2h3.s:509    .text.altcp_mbedtls_recved:0000000000000002 .L0 
C:\Users\stapi\AppData\Local\Temp\ccL2g2h3.s:510    .text.altcp_mbedtls_recved:0000000000000002 .L0 
C:\Users\stapi\AppData\Local\Temp\ccL2g2h3.s:513    .text.altcp_mbedtls_recved:0000000000000004 .L0 
C:\Users\stapi\AppData\Local\Temp\ccL2g2h3.s:514    .text.altcp_mbedtls_recved:0000000000000004 .L0 
C:\Users\stapi\AppData\Local\Temp\ccL2g2h3.s:516    .text.altcp_mbedtls_recved:0000000000000006 .L0 
C:\Users\stapi\AppData\Local\Temp\ccL2g2h3.s:517    .text.altcp_mbedtls_recved:0000000000000006 .L0 
C:\Users\stapi\AppData\Local\Temp\ccL2g2h3.s:522    .text.altcp_mbedtls_recved:000000000000000e .L0 
C:\Users\stapi\AppData\Local\Temp\ccL2g2h3.s:523    .text.altcp_mbedtls_recved:000000000000000e .L0 
C:\Users\stapi\AppData\Local\Temp\ccL2g2h3.s:524    .text.altcp_mbedtls_recved:000000000000000e .L0 
C:\Users\stapi\AppData\Local\Temp\ccL2g2h3.s:526    .text.altcp_mbedtls_recved:0000000000000012 .L0 
C:\Users\stapi\AppData\Local\Temp\ccL2g2h3.s:528    .text.altcp_mbedtls_recved:0000000000000016 .L0 
C:\Users\stapi\AppData\Local\Temp\ccL2g2h3.s:529    .text.altcp_mbedtls_recved:0000000000000016 .L0 
C:\Users\stapi\AppData\Local\Temp\ccL2g2h3.s:530    .text.altcp_mbedtls_recved:0000000000000016 .L0 
C:\Users\stapi\AppData\Local\Temp\ccL2g2h3.s:534    .text.altcp_mbedtls_recved:000000000000001a .L0 
C:\Users\stapi\AppData\Local\Temp\ccL2g2h3.s:535    .text.altcp_mbedtls_recved:000000000000001a .L0 
C:\Users\stapi\AppData\Local\Temp\ccL2g2h3.s:538    .text.altcp_mbedtls_recved:000000000000001c .L0 
C:\Users\stapi\AppData\Local\Temp\ccL2g2h3.s:541    .text.altcp_mbedtls_recved:0000000000000022 .L0 
C:\Users\stapi\AppData\Local\Temp\ccL2g2h3.s:545    .text.altcp_mbedtls_recved:000000000000002c .L0 
C:\Users\stapi\AppData\Local\Temp\ccL2g2h3.s:551    .text.altcp_mbedtls_abort:0000000000000000 altcp_mbedtls_abort
C:\Users\stapi\AppData\Local\Temp\ccL2g2h3.s:554    .text.altcp_mbedtls_abort:0000000000000000 .L0 
C:\Users\stapi\AppData\Local\Temp\ccL2g2h3.s:556    .text.altcp_mbedtls_abort:0000000000000000 .L0 
C:\Users\stapi\AppData\Local\Temp\ccL2g2h3.s:557    .text.altcp_mbedtls_abort:0000000000000000 .L0 
C:\Users\stapi\AppData\Local\Temp\ccL2g2h3.s:558    .text.altcp_mbedtls_abort:0000000000000000 .L0 
C:\Users\stapi\AppData\Local\Temp\ccL2g2h3.s:560    .text.altcp_mbedtls_abort:0000000000000002 .L0 
C:\Users\stapi\AppData\Local\Temp\ccL2g2h3.s:566    .text.altcp_mbedtls_abort:000000000000000e .L0 
C:\Users\stapi\AppData\Local\Temp\ccL2g2h3.s:572    .text.altcp_tls_create_config:0000000000000000 altcp_tls_create_config
C:\Users\stapi\AppData\Local\Temp\ccL2g2h3.s:575    .text.altcp_tls_create_config:0000000000000000 .L0 
C:\Users\stapi\AppData\Local\Temp\ccL2g2h3.s:577    .text.altcp_tls_create_config:0000000000000000 .L0 
C:\Users\stapi\AppData\Local\Temp\ccL2g2h3.s:578    .text.altcp_tls_create_config:0000000000000008 .L0 
C:\Users\stapi\AppData\Local\Temp\ccL2g2h3.s:579    .text.altcp_tls_create_config:0000000000000008 .L0 
C:\Users\stapi\AppData\Local\Temp\ccL2g2h3.s:580    .text.altcp_tls_create_config:0000000000000008 .L0 
C:\Users\stapi\AppData\Local\Temp\ccL2g2h3.s:581    .text.altcp_tls_create_config:0000000000000008 .L0 
C:\Users\stapi\AppData\Local\Temp\ccL2g2h3.s:582    .text.altcp_tls_create_config:0000000000000008 .L0 
C:\Users\stapi\AppData\Local\Temp\ccL2g2h3.s:583    .text.altcp_tls_create_config:0000000000000008 .L0 
C:\Users\stapi\AppData\Local\Temp\ccL2g2h3.s:584    .text.altcp_tls_create_config:0000000000000008 .L0 
C:\Users\stapi\AppData\Local\Temp\ccL2g2h3.s:586    .text.altcp_tls_create_config:0000000000000008 .L0 
C:\Users\stapi\AppData\Local\Temp\ccL2g2h3.s:587    .text.altcp_tls_create_config:0000000000000008 .L0 
C:\Users\stapi\AppData\Local\Temp\ccL2g2h3.s:588    .text.altcp_tls_create_config:0000000000000008 .L0 
C:\Users\stapi\AppData\Local\Temp\ccL2g2h3.s:589    .text.altcp_tls_create_config:0000000000000008 .L0 
C:\Users\stapi\AppData\Local\Temp\ccL2g2h3.s:590    .text.altcp_tls_create_config:0000000000000008 .L0 
C:\Users\stapi\AppData\Local\Temp\ccL2g2h3.s:591    .text.altcp_tls_create_config:0000000000000008 .L0 
C:\Users\stapi\AppData\Local\Temp\ccL2g2h3.s:592    .text.altcp_tls_create_config:0000000000000008 .L0 
C:\Users\stapi\AppData\Local\Temp\ccL2g2h3.s:593    .text.altcp_tls_create_config:0000000000000008 .L0 
C:\Users\stapi\AppData\Local\Temp\ccL2g2h3.s:594    .text.altcp_tls_create_config:000000000000000a .L0 
C:\Users\stapi\AppData\Local\Temp\ccL2g2h3.s:596    .text.altcp_tls_create_config:000000000000000a .L0 
C:\Users\stapi\AppData\Local\Temp\ccL2g2h3.s:601    .text.altcp_tls_create_config:0000000000000012 .L0 
C:\Users\stapi\AppData\Local\Temp\ccL2g2h3.s:604    .text.altcp_tls_create_config:000000000000001a .L0 
C:\Users\stapi\AppData\Local\Temp\ccL2g2h3.s:605    .text.altcp_tls_create_config:000000000000001a .L0 
C:\Users\stapi\AppData\Local\Temp\ccL2g2h3.s:606    .text.altcp_tls_create_config:000000000000001a .L0 
C:\Users\stapi\AppData\Local\Temp\ccL2g2h3.s:608    .text.altcp_tls_create_config:000000000000001e .L0 
C:\Users\stapi\AppData\Local\Temp\ccL2g2h3.s:613    .text.altcp_tls_create_config:0000000000000026 .L0 
C:\Users\stapi\AppData\Local\Temp\ccL2g2h3.s:614    .text.altcp_tls_create_config:0000000000000026 .L0 
C:\Users\stapi\AppData\Local\Temp\ccL2g2h3.s:616    .text.altcp_tls_create_config:0000000000000028 .L0 
C:\Users\stapi\AppData\Local\Temp\ccL2g2h3.s:617    .text.altcp_tls_create_config:0000000000000028 .L0 
C:\Users\stapi\AppData\Local\Temp\ccL2g2h3.s:621    .text.altcp_tls_create_config:000000000000002c .L0 
C:\Users\stapi\AppData\Local\Temp\ccL2g2h3.s:622    .text.altcp_tls_create_config:000000000000002c .L0 
C:\Users\stapi\AppData\Local\Temp\ccL2g2h3.s:624    .text.altcp_tls_create_config:0000000000000030 .L0 
C:\Users\stapi\AppData\Local\Temp\ccL2g2h3.s:625    .text.altcp_tls_create_config:0000000000000030 .L0 
C:\Users\stapi\AppData\Local\Temp\ccL2g2h3.s:629    .text.altcp_tls_create_config:0000000000000032 .L0 
C:\Users\stapi\AppData\Local\Temp\ccL2g2h3.s:630    .text.altcp_tls_create_config:0000000000000032 .L0 
C:\Users\stapi\AppData\Local\Temp\ccL2g2h3.s:635    .text.altcp_tls_create_config:000000000000003c .L0 
C:\Users\stapi\AppData\Local\Temp\ccL2g2h3.s:636    .text.altcp_tls_create_config:000000000000003c .L0 
C:\Users\stapi\AppData\Local\Temp\ccL2g2h3.s:638    .text.altcp_tls_create_config:000000000000003e .L0 
C:\Users\stapi\AppData\Local\Temp\ccL2g2h3.s:639    .text.altcp_tls_create_config:000000000000003e .L0 
C:\Users\stapi\AppData\Local\Temp\ccL2g2h3.s:642    .text.altcp_tls_create_config:0000000000000042 .L0 
C:\Users\stapi\AppData\Local\Temp\ccL2g2h3.s:643    .text.altcp_tls_create_config:0000000000000042 .L0 
C:\Users\stapi\AppData\Local\Temp\ccL2g2h3.s:645    .text.altcp_tls_create_config:0000000000000046 .L0 
C:\Users\stapi\AppData\Local\Temp\ccL2g2h3.s:646    .text.altcp_tls_create_config:0000000000000046 .L0 
C:\Users\stapi\AppData\Local\Temp\ccL2g2h3.s:648    .text.altcp_tls_create_config:000000000000004a .L0 
C:\Users\stapi\AppData\Local\Temp\ccL2g2h3.s:649    .text.altcp_tls_create_config:000000000000004a .L0 
C:\Users\stapi\AppData\Local\Temp\ccL2g2h3.s:653    .text.altcp_tls_create_config:000000000000004e .L0 
C:\Users\stapi\AppData\Local\Temp\ccL2g2h3.s:654    .text.altcp_tls_create_config:000000000000004e .L0 
C:\Users\stapi\AppData\Local\Temp\ccL2g2h3.s:656    .text.altcp_tls_create_config:0000000000000050 .L0 
C:\Users\stapi\AppData\Local\Temp\ccL2g2h3.s:657    .text.altcp_tls_create_config:0000000000000050 .L0 
C:\Users\stapi\AppData\Local\Temp\ccL2g2h3.s:659    .text.altcp_tls_create_config:0000000000000054 .L0 
C:\Users\stapi\AppData\Local\Temp\ccL2g2h3.s:660    .text.altcp_tls_create_config:0000000000000054 .L0 
C:\Users\stapi\AppData\Local\Temp\ccL2g2h3.s:664    .text.altcp_tls_create_config:0000000000000058 .L0 
C:\Users\stapi\AppData\Local\Temp\ccL2g2h3.s:665    .text.altcp_tls_create_config:0000000000000058 .L0 
C:\Users\stapi\AppData\Local\Temp\ccL2g2h3.s:667    .text.altcp_tls_create_config:000000000000005c .L0 
C:\Users\stapi\AppData\Local\Temp\ccL2g2h3.s:668    .text.altcp_tls_create_config:000000000000005c .L0 
C:\Users\stapi\AppData\Local\Temp\ccL2g2h3.s:671    .text.altcp_tls_create_config:0000000000000060 .L0 
C:\Users\stapi\AppData\Local\Temp\ccL2g2h3.s:675    .text.altcp_tls_create_config:000000000000006a .L0 
C:\Users\stapi\AppData\Local\Temp\ccL2g2h3.s:679    .text.altcp_tls_create_config:0000000000000072 .L0 
C:\Users\stapi\AppData\Local\Temp\ccL2g2h3.s:682    .text.altcp_tls_create_config:0000000000000076 .L0 
C:\Users\stapi\AppData\Local\Temp\ccL2g2h3.s:685    .text.altcp_tls_create_config:000000000000007e .L0 
C:\Users\stapi\AppData\Local\Temp\ccL2g2h3.s:689    .text.altcp_tls_create_config:0000000000000088 .L0 
C:\Users\stapi\AppData\Local\Temp\ccL2g2h3.s:690    .text.altcp_tls_create_config:0000000000000088 .L0 
C:\Users\stapi\AppData\Local\Temp\ccL2g2h3.s:699    .text.altcp_tls_create_config:00000000000000a0 .L0 
C:\Users\stapi\AppData\Local\Temp\ccL2g2h3.s:700    .text.altcp_tls_create_config:00000000000000a0 .L0 
C:\Users\stapi\AppData\Local\Temp\ccL2g2h3.s:703    .text.altcp_tls_create_config:00000000000000a2 .L0 
C:\Users\stapi\AppData\Local\Temp\ccL2g2h3.s:704    .text.altcp_tls_create_config:00000000000000a2 .L0 
C:\Users\stapi\AppData\Local\Temp\ccL2g2h3.s:709    .text.altcp_tls_create_config:00000000000000ac .L0 
C:\Users\stapi\AppData\Local\Temp\ccL2g2h3.s:710    .text.altcp_tls_create_config:00000000000000ac .L0 
C:\Users\stapi\AppData\Local\Temp\ccL2g2h3.s:714    .text.altcp_tls_create_config:00000000000000ae .L0 
C:\Users\stapi\AppData\Local\Temp\ccL2g2h3.s:716    .text.altcp_tls_create_config:00000000000000b2 .L0 
C:\Users\stapi\AppData\Local\Temp\ccL2g2h3.s:717    .text.altcp_tls_create_config:00000000000000b2 .L0 
C:\Users\stapi\AppData\Local\Temp\ccL2g2h3.s:719    .text.altcp_tls_create_config:00000000000000ba .L0 
C:\Users\stapi\AppData\Local\Temp\ccL2g2h3.s:720    .text.altcp_tls_create_config:00000000000000ba .L0 
C:\Users\stapi\AppData\Local\Temp\ccL2g2h3.s:721    .text.altcp_tls_create_config:00000000000000ba .L0 
C:\Users\stapi\AppData\Local\Temp\ccL2g2h3.s:722    .text.altcp_tls_create_config:00000000000000ba .L0 
C:\Users\stapi\AppData\Local\Temp\ccL2g2h3.s:723    .text.altcp_tls_create_config:00000000000000ba .L0 
C:\Users\stapi\AppData\Local\Temp\ccL2g2h3.s:724    .text.altcp_tls_create_config:00000000000000ba .L0 
C:\Users\stapi\AppData\Local\Temp\ccL2g2h3.s:725    .text.altcp_tls_create_config:00000000000000ba .L0 
C:\Users\stapi\AppData\Local\Temp\ccL2g2h3.s:728    .text.altcp_tls_create_config:00000000000000ba .L0 
C:\Users\stapi\AppData\Local\Temp\ccL2g2h3.s:730    .text.altcp_tls_create_config:00000000000000ba .L0 
C:\Users\stapi\AppData\Local\Temp\ccL2g2h3.s:731    .text.altcp_tls_create_config:00000000000000ba .L0 
C:\Users\stapi\AppData\Local\Temp\ccL2g2h3.s:739    .text.altcp_tls_create_config:00000000000000ca .L0 
C:\Users\stapi\AppData\Local\Temp\ccL2g2h3.s:740    .text.altcp_tls_create_config:00000000000000ca .L0 
C:\Users\stapi\AppData\Local\Temp\ccL2g2h3.s:742    .text.altcp_tls_create_config:00000000000000cc .L0 
C:\Users\stapi\AppData\Local\Temp\ccL2g2h3.s:743    .text.altcp_tls_create_config:00000000000000cc .L0 
C:\Users\stapi\AppData\Local\Temp\ccL2g2h3.s:745    .text.altcp_tls_create_config:00000000000000ce .L0 
C:\Users\stapi\AppData\Local\Temp\ccL2g2h3.s:747    .text.altcp_tls_create_config:00000000000000d0 .L0 
C:\Users\stapi\AppData\Local\Temp\ccL2g2h3.s:754    .text.altcp_tls_create_config:00000000000000dc .L0 
C:\Users\stapi\AppData\Local\Temp\ccL2g2h3.s:761    .text.altcp_tls_create_config:00000000000000f0 .L0 
C:\Users\stapi\AppData\Local\Temp\ccL2g2h3.s:762    .text.altcp_tls_create_config:00000000000000f0 .L0 
C:\Users\stapi\AppData\Local\Temp\ccL2g2h3.s:763    .text.altcp_tls_create_config:00000000000000f2 .L0 
C:\Users\stapi\AppData\Local\Temp\ccL2g2h3.s:769    .text.altcp_tls_create_config_client_common:0000000000000000 altcp_tls_create_config_client_common
C:\Users\stapi\AppData\Local\Temp\ccL2g2h3.s:772    .text.altcp_tls_create_config_client_common:0000000000000000 .L0 
C:\Users\stapi\AppData\Local\Temp\ccL2g2h3.s:774    .text.altcp_tls_create_config_client_common:0000000000000000 .L0 
C:\Users\stapi\AppData\Local\Temp\ccL2g2h3.s:775    .text.altcp_tls_create_config_client_common:0000000000000008 .L0 
C:\Users\stapi\AppData\Local\Temp\ccL2g2h3.s:776    .text.altcp_tls_create_config_client_common:0000000000000008 .L0 
C:\Users\stapi\AppData\Local\Temp\ccL2g2h3.s:777    .text.altcp_tls_create_config_client_common:0000000000000008 .L0 
C:\Users\stapi\AppData\Local\Temp\ccL2g2h3.s:778    .text.altcp_tls_create_config_client_common:0000000000000008 .L0 
C:\Users\stapi\AppData\Local\Temp\ccL2g2h3.s:779    .text.altcp_tls_create_config_client_common:0000000000000008 .L0 
C:\Users\stapi\AppData\Local\Temp\ccL2g2h3.s:781    .text.altcp_tls_create_config_client_common:0000000000000008 .L0 
C:\Users\stapi\AppData\Local\Temp\ccL2g2h3.s:782    .text.altcp_tls_create_config_client_common:0000000000000008 .L0 
C:\Users\stapi\AppData\Local\Temp\ccL2g2h3.s:783    .text.altcp_tls_create_config_client_common:0000000000000008 .L0 
C:\Users\stapi\AppData\Local\Temp\ccL2g2h3.s:785    .text.altcp_tls_create_config_client_common:000000000000000c .L0 
C:\Users\stapi\AppData\Local\Temp\ccL2g2h3.s:788    .text.altcp_tls_create_config_client_common:0000000000000010 .L0 
C:\Users\stapi\AppData\Local\Temp\ccL2g2h3.s:791    .text.altcp_tls_create_config_client_common:0000000000000012 .L0 
C:\Users\stapi\AppData\Local\Temp\ccL2g2h3.s:794    .text.altcp_tls_create_config_client_common:0000000000000014 .L0 
C:\Users\stapi\AppData\Local\Temp\ccL2g2h3.s:799    .text.altcp_tls_create_config_client_common:000000000000001e .L0 
C:\Users\stapi\AppData\Local\Temp\ccL2g2h3.s:800    .text.altcp_tls_create_config_client_common:000000000000001e .L0 
C:\Users\stapi\AppData\Local\Temp\ccL2g2h3.s:802    .text.altcp_tls_create_config_client_common:0000000000000020 .L0 
C:\Users\stapi\AppData\Local\Temp\ccL2g2h3.s:803    .text.altcp_tls_create_config_client_common:0000000000000020 .L0 
C:\Users\stapi\AppData\Local\Temp\ccL2g2h3.s:805    .text.altcp_tls_create_config_client_common:0000000000000022 .L0 
C:\Users\stapi\AppData\Local\Temp\ccL2g2h3.s:809    .text.altcp_tls_create_config_client_common:000000000000002e .L0 
C:\Users\stapi\AppData\Local\Temp\ccL2g2h3.s:810    .text.altcp_tls_create_config_client_common:000000000000002e .L0 
C:\Users\stapi\AppData\Local\Temp\ccL2g2h3.s:816    .text.altcp_tls_create_config_client_common:000000000000003e .L0 
C:\Users\stapi\AppData\Local\Temp\ccL2g2h3.s:817    .text.altcp_tls_create_config_client_common:000000000000003e .L0 
C:\Users\stapi\AppData\Local\Temp\ccL2g2h3.s:819    .text.altcp_tls_create_config_client_common:0000000000000040 .L0 
C:\Users\stapi\AppData\Local\Temp\ccL2g2h3.s:820    .text.altcp_tls_create_config_client_common:0000000000000040 .L0 
C:\Users\stapi\AppData\Local\Temp\ccL2g2h3.s:825    .text.altcp_tls_create_config_client_common:000000000000004a .L0 
C:\Users\stapi\AppData\Local\Temp\ccL2g2h3.s:826    .text.altcp_tls_create_config_client_common:000000000000004a .L0 
C:\Users\stapi\AppData\Local\Temp\ccL2g2h3.s:830    .text.altcp_tls_create_config_client_common:000000000000004c .L0 
C:\Users\stapi\AppData\Local\Temp\ccL2g2h3.s:832    .text.altcp_tls_create_config_client_common:0000000000000056 .L0 
C:\Users\stapi\AppData\Local\Temp\ccL2g2h3.s:833    .text.altcp_tls_create_config_client_common:0000000000000056 .L0 
C:\Users\stapi\AppData\Local\Temp\ccL2g2h3.s:834    .text.altcp_tls_create_config_client_common:0000000000000056 .L0 
C:\Users\stapi\AppData\Local\Temp\ccL2g2h3.s:835    .text.altcp_tls_create_config_client_common:0000000000000056 .L0 
C:\Users\stapi\AppData\Local\Temp\ccL2g2h3.s:836    .text.altcp_tls_create_config_client_common:0000000000000056 .L0 
C:\Users\stapi\AppData\Local\Temp\ccL2g2h3.s:837    .text.altcp_tls_create_config_client_common:0000000000000056 .L0 
C:\Users\stapi\AppData\Local\Temp\ccL2g2h3.s:840    .text.altcp_tls_create_config_client_common:0000000000000056 .L0 
C:\Users\stapi\AppData\Local\Temp\ccL2g2h3.s:842    .text.altcp_tls_create_config_client_common:0000000000000056 .L0 
C:\Users\stapi\AppData\Local\Temp\ccL2g2h3.s:849    .text.altcp_tls_create_config_client_common:0000000000000068 .L0 
C:\Users\stapi\AppData\Local\Temp\ccL2g2h3.s:855    .text.altcp_mbedtls_dealloc:0000000000000000 altcp_mbedtls_dealloc
C:\Users\stapi\AppData\Local\Temp\ccL2g2h3.s:858    .text.altcp_mbedtls_dealloc:0000000000000000 .L0 
C:\Users\stapi\AppData\Local\Temp\ccL2g2h3.s:860    .text.altcp_mbedtls_dealloc:0000000000000000 .L0 
C:\Users\stapi\AppData\Local\Temp\ccL2g2h3.s:861    .text.altcp_mbedtls_dealloc:0000000000000000 .L0 
C:\Users\stapi\AppData\Local\Temp\ccL2g2h3.s:862    .text.altcp_mbedtls_dealloc:0000000000000000 .L0 
C:\Users\stapi\AppData\Local\Temp\ccL2g2h3.s:864    .text.altcp_mbedtls_dealloc:0000000000000002 .L0 
C:\Users\stapi\AppData\Local\Temp\ccL2g2h3.s:865    .text.altcp_mbedtls_dealloc:000000000000000a .L0 
C:\Users\stapi\AppData\Local\Temp\ccL2g2h3.s:866    .text.altcp_mbedtls_dealloc:000000000000000a .L0 
C:\Users\stapi\AppData\Local\Temp\ccL2g2h3.s:867    .text.altcp_mbedtls_dealloc:000000000000000a .L0 
C:\Users\stapi\AppData\Local\Temp\ccL2g2h3.s:868    .text.altcp_mbedtls_dealloc:000000000000000a .L0 
C:\Users\stapi\AppData\Local\Temp\ccL2g2h3.s:871    .text.altcp_mbedtls_dealloc:000000000000000a .L0 
C:\Users\stapi\AppData\Local\Temp\ccL2g2h3.s:875    .text.altcp_mbedtls_dealloc:000000000000000e .L0 
C:\Users\stapi\AppData\Local\Temp\ccL2g2h3.s:876    .text.altcp_mbedtls_dealloc:000000000000000e .L0 
C:\Users\stapi\AppData\Local\Temp\ccL2g2h3.s:877    .text.altcp_mbedtls_dealloc:000000000000000e .L0 
C:\Users\stapi\AppData\Local\Temp\ccL2g2h3.s:879    .text.altcp_mbedtls_dealloc:0000000000000010 .L0 
C:\Users\stapi\AppData\Local\Temp\ccL2g2h3.s:884    .text.altcp_mbedtls_dealloc:000000000000001c .L0 
C:\Users\stapi\AppData\Local\Temp\ccL2g2h3.s:885    .text.altcp_mbedtls_dealloc:000000000000001c .L0 
C:\Users\stapi\AppData\Local\Temp\ccL2g2h3.s:887    .text.altcp_mbedtls_dealloc:0000000000000020 .L0 
C:\Users\stapi\AppData\Local\Temp\ccL2g2h3.s:889    .text.altcp_mbedtls_dealloc:0000000000000024 .L0 
C:\Users\stapi\AppData\Local\Temp\ccL2g2h3.s:890    .text.altcp_mbedtls_dealloc:0000000000000024 .L0 
C:\Users\stapi\AppData\Local\Temp\ccL2g2h3.s:892    .text.altcp_mbedtls_dealloc:0000000000000026 .L0 
C:\Users\stapi\AppData\Local\Temp\ccL2g2h3.s:895    .text.altcp_mbedtls_dealloc:000000000000002e .L0 
C:\Users\stapi\AppData\Local\Temp\ccL2g2h3.s:896    .text.altcp_mbedtls_dealloc:000000000000002e .L0 
C:\Users\stapi\AppData\Local\Temp\ccL2g2h3.s:899    .text.altcp_mbedtls_dealloc:0000000000000032 .L0 
C:\Users\stapi\AppData\Local\Temp\ccL2g2h3.s:904    .text.altcp_mbedtls_dealloc:000000000000003e .L0 
C:\Users\stapi\AppData\Local\Temp\ccL2g2h3.s:905    .text.altcp_mbedtls_dealloc:000000000000003e .L0 
C:\Users\stapi\AppData\Local\Temp\ccL2g2h3.s:909    .text.altcp_mbedtls_dealloc:0000000000000042 .L0 
C:\Users\stapi\AppData\Local\Temp\ccL2g2h3.s:910    .text.altcp_mbedtls_dealloc:000000000000004a .L0 
C:\Users\stapi\AppData\Local\Temp\ccL2g2h3.s:911    .text.altcp_mbedtls_dealloc:000000000000004a .L0 
C:\Users\stapi\AppData\Local\Temp\ccL2g2h3.s:912    .text.altcp_mbedtls_dealloc:000000000000004a .L0 
C:\Users\stapi\AppData\Local\Temp\ccL2g2h3.s:913    .text.altcp_mbedtls_dealloc:000000000000004a .L0 
C:\Users\stapi\AppData\Local\Temp\ccL2g2h3.s:917    .text.altcp_mbedtls_dealloc:000000000000004c .L0 
C:\Users\stapi\AppData\Local\Temp\ccL2g2h3.s:923    .text.altcp_mbedtls_sndbuf:0000000000000000 altcp_mbedtls_sndbuf
C:\Users\stapi\AppData\Local\Temp\ccL2g2h3.s:926    .text.altcp_mbedtls_sndbuf:0000000000000000 .L0 
C:\Users\stapi\AppData\Local\Temp\ccL2g2h3.s:928    .text.altcp_mbedtls_sndbuf:0000000000000000 .L0 
C:\Users\stapi\AppData\Local\Temp\ccL2g2h3.s:929    .text.altcp_mbedtls_sndbuf:0000000000000008 .L0 
C:\Users\stapi\AppData\Local\Temp\ccL2g2h3.s:930    .text.altcp_mbedtls_sndbuf:0000000000000008 .L0 
C:\Users\stapi\AppData\Local\Temp\ccL2g2h3.s:931    .text.altcp_mbedtls_sndbuf:0000000000000008 .L0 
C:\Users\stapi\AppData\Local\Temp\ccL2g2h3.s:932    .text.altcp_mbedtls_sndbuf:0000000000000008 .L0 
C:\Users\stapi\AppData\Local\Temp\ccL2g2h3.s:933    .text.altcp_mbedtls_sndbuf:0000000000000008 .L0 
C:\Users\stapi\AppData\Local\Temp\ccL2g2h3.s:934    .text.altcp_mbedtls_sndbuf:0000000000000008 .L0 
C:\Users\stapi\AppData\Local\Temp\ccL2g2h3.s:936    .text.altcp_mbedtls_sndbuf:0000000000000008 .L0 
C:\Users\stapi\AppData\Local\Temp\ccL2g2h3.s:937    .text.altcp_mbedtls_sndbuf:0000000000000008 .L0 
C:\Users\stapi\AppData\Local\Temp\ccL2g2h3.s:939    .text.altcp_mbedtls_sndbuf:000000000000000a .L0 
C:\Users\stapi\AppData\Local\Temp\ccL2g2h3.s:942    .text.altcp_mbedtls_sndbuf:000000000000000c .L0 
C:\Users\stapi\AppData\Local\Temp\ccL2g2h3.s:943    .text.altcp_mbedtls_sndbuf:000000000000000c .L0 
C:\Users\stapi\AppData\Local\Temp\ccL2g2h3.s:944    .text.altcp_mbedtls_sndbuf:000000000000000c .L0 
C:\Users\stapi\AppData\Local\Temp\ccL2g2h3.s:947    .text.altcp_mbedtls_sndbuf:0000000000000010 .L0 
C:\Users\stapi\AppData\Local\Temp\ccL2g2h3.s:948    .text.altcp_mbedtls_sndbuf:0000000000000010 .L0 
C:\Users\stapi\AppData\Local\Temp\ccL2g2h3.s:951    .text.altcp_mbedtls_sndbuf:0000000000000012 .L0 
C:\Users\stapi\AppData\Local\Temp\ccL2g2h3.s:953    .text.altcp_mbedtls_sndbuf:0000000000000016 .L0 
C:\Users\stapi\AppData\Local\Temp\ccL2g2h3.s:957    .text.altcp_mbedtls_sndbuf:000000000000001e .L0 
C:\Users\stapi\AppData\Local\Temp\ccL2g2h3.s:958    .text.altcp_mbedtls_sndbuf:000000000000001e .L0 
C:\Users\stapi\AppData\Local\Temp\ccL2g2h3.s:960    .text.altcp_mbedtls_sndbuf:0000000000000022 .L0 
C:\Users\stapi\AppData\Local\Temp\ccL2g2h3.s:963    .text.altcp_mbedtls_sndbuf:0000000000000024 .L0 
C:\Users\stapi\AppData\Local\Temp\ccL2g2h3.s:964    .text.altcp_mbedtls_sndbuf:0000000000000024 .L0 
C:\Users\stapi\AppData\Local\Temp\ccL2g2h3.s:967    .text.altcp_mbedtls_sndbuf:000000000000002c .L0 
C:\Users\stapi\AppData\Local\Temp\ccL2g2h3.s:970    .text.altcp_mbedtls_sndbuf:000000000000002e .L0 
C:\Users\stapi\AppData\Local\Temp\ccL2g2h3.s:973    .text.altcp_mbedtls_sndbuf:0000000000000030 .L0 
C:\Users\stapi\AppData\Local\Temp\ccL2g2h3.s:974    .text.altcp_mbedtls_sndbuf:0000000000000030 .L0 
C:\Users\stapi\AppData\Local\Temp\ccL2g2h3.s:980    .text.altcp_mbedtls_sndbuf:000000000000003c .L0 
C:\Users\stapi\AppData\Local\Temp\ccL2g2h3.s:981    .text.altcp_mbedtls_sndbuf:000000000000003c .L0 
C:\Users\stapi\AppData\Local\Temp\ccL2g2h3.s:984    .text.altcp_mbedtls_sndbuf:0000000000000040 .L0 
C:\Users\stapi\AppData\Local\Temp\ccL2g2h3.s:985    .text.altcp_mbedtls_sndbuf:0000000000000040 .L0 
C:\Users\stapi\AppData\Local\Temp\ccL2g2h3.s:992    .text.altcp_mbedtls_sndbuf:000000000000004e .L0 
C:\Users\stapi\AppData\Local\Temp\ccL2g2h3.s:993    .text.altcp_mbedtls_sndbuf:000000000000004e .L0 
C:\Users\stapi\AppData\Local\Temp\ccL2g2h3.s:997    .text.altcp_mbedtls_sndbuf:0000000000000052 .L0 
C:\Users\stapi\AppData\Local\Temp\ccL2g2h3.s:998    .text.altcp_mbedtls_sndbuf:0000000000000052 .L0 
C:\Users\stapi\AppData\Local\Temp\ccL2g2h3.s:999    .text.altcp_mbedtls_sndbuf:0000000000000052 .L0 
C:\Users\stapi\AppData\Local\Temp\ccL2g2h3.s:1000   .text.altcp_mbedtls_sndbuf:0000000000000052 .L0 
C:\Users\stapi\AppData\Local\Temp\ccL2g2h3.s:1005   .text.altcp_mbedtls_sndbuf:000000000000005c .L0 
C:\Users\stapi\AppData\Local\Temp\ccL2g2h3.s:1006   .text.altcp_mbedtls_sndbuf:000000000000005c .L0 
C:\Users\stapi\AppData\Local\Temp\ccL2g2h3.s:1007   .text.altcp_mbedtls_sndbuf:000000000000005c .L0 
C:\Users\stapi\AppData\Local\Temp\ccL2g2h3.s:1008   .text.altcp_mbedtls_sndbuf:000000000000005c .L0 
C:\Users\stapi\AppData\Local\Temp\ccL2g2h3.s:1009   .text.altcp_mbedtls_sndbuf:000000000000005c .L0 
C:\Users\stapi\AppData\Local\Temp\ccL2g2h3.s:1010   .text.altcp_mbedtls_sndbuf:000000000000005c .L0 
C:\Users\stapi\AppData\Local\Temp\ccL2g2h3.s:1011   .text.altcp_mbedtls_sndbuf:000000000000005c .L0 
C:\Users\stapi\AppData\Local\Temp\ccL2g2h3.s:1012   .text.altcp_mbedtls_sndbuf:000000000000005c .L0 
C:\Users\stapi\AppData\Local\Temp\ccL2g2h3.s:1014   .text.altcp_mbedtls_sndbuf:000000000000005e .L0 
C:\Users\stapi\AppData\Local\Temp\ccL2g2h3.s:1016   .text.altcp_mbedtls_sndbuf:0000000000000062 .L0 
C:\Users\stapi\AppData\Local\Temp\ccL2g2h3.s:1021   .text.altcp_mbedtls_sndbuf:000000000000006c .L0 
C:\Users\stapi\AppData\Local\Temp\ccL2g2h3.s:1029   .text.altcp_mbedtls_sndbuf:0000000000000070 .L0 
C:\Users\stapi\AppData\Local\Temp\ccL2g2h3.s:1030   .text.altcp_mbedtls_sndbuf:0000000000000078 .L0 
C:\Users\stapi\AppData\Local\Temp\ccL2g2h3.s:1031   .text.altcp_mbedtls_sndbuf:0000000000000078 .L0 
C:\Users\stapi\AppData\Local\Temp\ccL2g2h3.s:1032   .text.altcp_mbedtls_sndbuf:0000000000000078 .L0 
C:\Users\stapi\AppData\Local\Temp\ccL2g2h3.s:1033   .text.altcp_mbedtls_sndbuf:0000000000000078 .L0 
C:\Users\stapi\AppData\Local\Temp\ccL2g2h3.s:1034   .text.altcp_mbedtls_sndbuf:0000000000000078 .L0 
C:\Users\stapi\AppData\Local\Temp\ccL2g2h3.s:1035   .text.altcp_mbedtls_sndbuf:0000000000000078 .L0 
C:\Users\stapi\AppData\Local\Temp\ccL2g2h3.s:1036   .text.altcp_mbedtls_sndbuf:0000000000000078 .L0 
C:\Users\stapi\AppData\Local\Temp\ccL2g2h3.s:1038   .text.altcp_mbedtls_sndbuf:0000000000000078 .L0 
C:\Users\stapi\AppData\Local\Temp\ccL2g2h3.s:1040   .text.altcp_mbedtls_sndbuf:0000000000000078 .L0 
C:\Users\stapi\AppData\Local\Temp\ccL2g2h3.s:1041   .text.altcp_mbedtls_sndbuf:0000000000000078 .L0 
C:\Users\stapi\AppData\Local\Temp\ccL2g2h3.s:1045   .text.altcp_mbedtls_sndbuf:0000000000000084 .L0 
C:\Users\stapi\AppData\Local\Temp\ccL2g2h3.s:1058   .text.altcp_mbedtls_write:0000000000000000 altcp_mbedtls_write
C:\Users\stapi\AppData\Local\Temp\ccL2g2h3.s:1061   .text.altcp_mbedtls_write:0000000000000000 .L0 
C:\Users\stapi\AppData\Local\Temp\ccL2g2h3.s:1063   .text.altcp_mbedtls_write:0000000000000000 .L0 
C:\Users\stapi\AppData\Local\Temp\ccL2g2h3.s:1064   .text.altcp_mbedtls_write:0000000000000000 .L0 
C:\Users\stapi\AppData\Local\Temp\ccL2g2h3.s:1065   .text.altcp_mbedtls_write:0000000000000000 .L0 
C:\Users\stapi\AppData\Local\Temp\ccL2g2h3.s:1066   .text.altcp_mbedtls_write:0000000000000000 .L0 
C:\Users\stapi\AppData\Local\Temp\ccL2g2h3.s:1067   .text.altcp_mbedtls_write:0000000000000000 .L0 
C:\Users\stapi\AppData\Local\Temp\ccL2g2h3.s:1068   .text.altcp_mbedtls_write:0000000000000000 .L0 
C:\Users\stapi\AppData\Local\Temp\ccL2g2h3.s:1070   .text.altcp_mbedtls_write:0000000000000002 .L0 
C:\Users\stapi\AppData\Local\Temp\ccL2g2h3.s:1071   .text.altcp_mbedtls_write:000000000000000a .L0 
C:\Users\stapi\AppData\Local\Temp\ccL2g2h3.s:1072   .text.altcp_mbedtls_write:000000000000000a .L0 
C:\Users\stapi\AppData\Local\Temp\ccL2g2h3.s:1073   .text.altcp_mbedtls_write:000000000000000a .L0 
C:\Users\stapi\AppData\Local\Temp\ccL2g2h3.s:1074   .text.altcp_mbedtls_write:000000000000000a .L0 
C:\Users\stapi\AppData\Local\Temp\ccL2g2h3.s:1075   .text.altcp_mbedtls_write:000000000000000a .L0 
C:\Users\stapi\AppData\Local\Temp\ccL2g2h3.s:1076   .text.altcp_mbedtls_write:000000000000000a .L0 
C:\Users\stapi\AppData\Local\Temp\ccL2g2h3.s:1078   .text.altcp_mbedtls_write:000000000000000a .L0 
C:\Users\stapi\AppData\Local\Temp\ccL2g2h3.s:1080   .text.altcp_mbedtls_write:000000000000000c .L0 
C:\Users\stapi\AppData\Local\Temp\ccL2g2h3.s:1081   .text.altcp_mbedtls_write:000000000000000e .L0 
C:\Users\stapi\AppData\Local\Temp\ccL2g2h3.s:1085   .text.altcp_mbedtls_write:0000000000000010 .L0 
C:\Users\stapi\AppData\Local\Temp\ccL2g2h3.s:1086   .text.altcp_mbedtls_write:0000000000000010 .L0 
C:\Users\stapi\AppData\Local\Temp\ccL2g2h3.s:1087   .text.altcp_mbedtls_write:0000000000000010 .L0 
C:\Users\stapi\AppData\Local\Temp\ccL2g2h3.s:1089   .text.altcp_mbedtls_write:0000000000000012 .L0 
C:\Users\stapi\AppData\Local\Temp\ccL2g2h3.s:1090   .text.altcp_mbedtls_write:0000000000000012 .L0 
C:\Users\stapi\AppData\Local\Temp\ccL2g2h3.s:1094   .text.altcp_mbedtls_write:000000000000001a .L0 
C:\Users\stapi\AppData\Local\Temp\ccL2g2h3.s:1097   .text.altcp_mbedtls_write:0000000000000020 .L0 
C:\Users\stapi\AppData\Local\Temp\ccL2g2h3.s:1098   .text.altcp_mbedtls_write:0000000000000020 .L0 
C:\Users\stapi\AppData\Local\Temp\ccL2g2h3.s:1100   .text.altcp_mbedtls_write:0000000000000024 .L0 
C:\Users\stapi\AppData\Local\Temp\ccL2g2h3.s:1104   .text.altcp_mbedtls_write:0000000000000026 .L0 
C:\Users\stapi\AppData\Local\Temp\ccL2g2h3.s:1105   .text.altcp_mbedtls_write:0000000000000026 .L0 
C:\Users\stapi\AppData\Local\Temp\ccL2g2h3.s:1112   .text.altcp_mbedtls_write:0000000000000034 .L0 
C:\Users\stapi\AppData\Local\Temp\ccL2g2h3.s:1116   .text.altcp_mbedtls_write:0000000000000040 .L0 
C:\Users\stapi\AppData\Local\Temp\ccL2g2h3.s:1117   .text.altcp_mbedtls_write:0000000000000040 .L0 
C:\Users\stapi\AppData\Local\Temp\ccL2g2h3.s:1119   .text.altcp_mbedtls_write:0000000000000044 .L0 
C:\Users\stapi\AppData\Local\Temp\ccL2g2h3.s:1120   .text.altcp_mbedtls_write:0000000000000044 .L0 
C:\Users\stapi\AppData\Local\Temp\ccL2g2h3.s:1124   .text.altcp_mbedtls_write:000000000000004e .L0 
C:\Users\stapi\AppData\Local\Temp\ccL2g2h3.s:1125   .text.altcp_mbedtls_write:000000000000004e .L0 
C:\Users\stapi\AppData\Local\Temp\ccL2g2h3.s:1126   .text.altcp_mbedtls_write:000000000000004e .L0 
C:\Users\stapi\AppData\Local\Temp\ccL2g2h3.s:1127   .text.altcp_mbedtls_write:000000000000004e .L0 
C:\Users\stapi\AppData\Local\Temp\ccL2g2h3.s:1138   .text.altcp_mbedtls_write:0000000000000072 .L0 
C:\Users\stapi\AppData\Local\Temp\ccL2g2h3.s:1139   .text.altcp_mbedtls_write:0000000000000072 .L0 
C:\Users\stapi\AppData\Local\Temp\ccL2g2h3.s:1140   .text.altcp_mbedtls_write:0000000000000072 .L0 
C:\Users\stapi\AppData\Local\Temp\ccL2g2h3.s:1144   .text.altcp_mbedtls_write:0000000000000074 .L0 
C:\Users\stapi\AppData\Local\Temp\ccL2g2h3.s:1148   .text.altcp_mbedtls_write:0000000000000078 .L0 
C:\Users\stapi\AppData\Local\Temp\ccL2g2h3.s:1151   .text.altcp_mbedtls_write:0000000000000080 .L0 
C:\Users\stapi\AppData\Local\Temp\ccL2g2h3.s:1152   .text.altcp_mbedtls_write:0000000000000080 .L0 
C:\Users\stapi\AppData\Local\Temp\ccL2g2h3.s:1158   .text.altcp_mbedtls_write:0000000000000088 .L0 
C:\Users\stapi\AppData\Local\Temp\ccL2g2h3.s:1161   .text.altcp_mbedtls_write:000000000000008a .L0 
C:\Users\stapi\AppData\Local\Temp\ccL2g2h3.s:1162   .text.altcp_mbedtls_write:000000000000008c .L0 
C:\Users\stapi\AppData\Local\Temp\ccL2g2h3.s:1163   .text.altcp_mbedtls_write:000000000000008c .L0 
C:\Users\stapi\AppData\Local\Temp\ccL2g2h3.s:1165   .text.altcp_mbedtls_write:0000000000000094 .L0 
C:\Users\stapi\AppData\Local\Temp\ccL2g2h3.s:1166   .text.altcp_mbedtls_write:0000000000000094 .L0 
C:\Users\stapi\AppData\Local\Temp\ccL2g2h3.s:1167   .text.altcp_mbedtls_write:0000000000000094 .L0 
C:\Users\stapi\AppData\Local\Temp\ccL2g2h3.s:1168   .text.altcp_mbedtls_write:0000000000000094 .L0 
C:\Users\stapi\AppData\Local\Temp\ccL2g2h3.s:1169   .text.altcp_mbedtls_write:0000000000000094 .L0 
C:\Users\stapi\AppData\Local\Temp\ccL2g2h3.s:1170   .text.altcp_mbedtls_write:0000000000000094 .L0 
C:\Users\stapi\AppData\Local\Temp\ccL2g2h3.s:1173   .text.altcp_mbedtls_write:0000000000000094 .L0 
C:\Users\stapi\AppData\Local\Temp\ccL2g2h3.s:1175   .text.altcp_mbedtls_write:0000000000000094 .L0 
C:\Users\stapi\AppData\Local\Temp\ccL2g2h3.s:1176   .text.altcp_mbedtls_write:0000000000000094 .L0 
C:\Users\stapi\AppData\Local\Temp\ccL2g2h3.s:1178   .text.altcp_mbedtls_write:0000000000000098 .L0 
C:\Users\stapi\AppData\Local\Temp\ccL2g2h3.s:1179   .text.altcp_mbedtls_write:0000000000000098 .L0 
C:\Users\stapi\AppData\Local\Temp\ccL2g2h3.s:1181   .text.altcp_mbedtls_write:000000000000009c .L0 
C:\Users\stapi\AppData\Local\Temp\ccL2g2h3.s:1183   .text.altcp_mbedtls_write:000000000000009e .L0 
C:\Users\stapi\AppData\Local\Temp\ccL2g2h3.s:1186   .text.altcp_mbedtls_write:00000000000000a6 .L0 
C:\Users\stapi\AppData\Local\Temp\ccL2g2h3.s:1187   .text.altcp_mbedtls_write:00000000000000a6 .L0 
C:\Users\stapi\AppData\Local\Temp\ccL2g2h3.s:1190   .text.altcp_mbedtls_write:00000000000000a8 .L0 
C:\Users\stapi\AppData\Local\Temp\ccL2g2h3.s:1191   .text.altcp_mbedtls_write:00000000000000a8 .L0 
C:\Users\stapi\AppData\Local\Temp\ccL2g2h3.s:1192   .text.altcp_mbedtls_write:00000000000000a8 .L0 
C:\Users\stapi\AppData\Local\Temp\ccL2g2h3.s:1193   .text.altcp_mbedtls_write:00000000000000a8 .L0 
C:\Users\stapi\AppData\Local\Temp\ccL2g2h3.s:1204   .text.altcp_mbedtls_write:00000000000000cc .L0 
C:\Users\stapi\AppData\Local\Temp\ccL2g2h3.s:1205   .text.altcp_mbedtls_write:00000000000000cc .L0 
C:\Users\stapi\AppData\Local\Temp\ccL2g2h3.s:1206   .text.altcp_mbedtls_write:00000000000000cc .L0 
C:\Users\stapi\AppData\Local\Temp\ccL2g2h3.s:1209   .text.altcp_mbedtls_write:00000000000000ce .L0 
C:\Users\stapi\AppData\Local\Temp\ccL2g2h3.s:1210   .text.altcp_mbedtls_write:00000000000000ce .L0 
C:\Users\stapi\AppData\Local\Temp\ccL2g2h3.s:1211   .text.altcp_mbedtls_write:00000000000000ce .L0 
C:\Users\stapi\AppData\Local\Temp\ccL2g2h3.s:1212   .text.altcp_mbedtls_write:00000000000000ce .L0 
C:\Users\stapi\AppData\Local\Temp\ccL2g2h3.s:1213   .text.altcp_mbedtls_write:00000000000000ce .L0 
C:\Users\stapi\AppData\Local\Temp\ccL2g2h3.s:1214   .text.altcp_mbedtls_write:00000000000000ce .L0 
C:\Users\stapi\AppData\Local\Temp\ccL2g2h3.s:1216   .text.altcp_mbedtls_write:00000000000000ce .L0 
C:\Users\stapi\AppData\Local\Temp\ccL2g2h3.s:1219   .text.altcp_mbedtls_write:00000000000000d0 .L0 
C:\Users\stapi\AppData\Local\Temp\ccL2g2h3.s:1222   .text.altcp_mbedtls_write:00000000000000d2 .L0 
C:\Users\stapi\AppData\Local\Temp\ccL2g2h3.s:1223   .text.altcp_mbedtls_write:00000000000000d2 .L0 
C:\Users\stapi\AppData\Local\Temp\ccL2g2h3.s:1224   .text.altcp_mbedtls_write:00000000000000d2 .L0 
C:\Users\stapi\AppData\Local\Temp\ccL2g2h3.s:1225   .text.altcp_mbedtls_write:00000000000000d2 .L0 
C:\Users\stapi\AppData\Local\Temp\ccL2g2h3.s:1226   .text.altcp_mbedtls_write:00000000000000d2 .L0 
C:\Users\stapi\AppData\Local\Temp\ccL2g2h3.s:1227   .text.altcp_mbedtls_write:00000000000000d2 .L0 
C:\Users\stapi\AppData\Local\Temp\ccL2g2h3.s:1229   .text.altcp_mbedtls_write:00000000000000d2 .L0 
C:\Users\stapi\AppData\Local\Temp\ccL2g2h3.s:1235   .text.altcp_mbedtls_write:00000000000000d6 .L0 
C:\Users\stapi\AppData\Local\Temp\ccL2g2h3.s:1238   .text.altcp_mbedtls_write:00000000000000da .L0 
C:\Users\stapi\AppData\Local\Temp\ccL2g2h3.s:1244   .text.altcp_mbedtls_close:0000000000000000 altcp_mbedtls_close
C:\Users\stapi\AppData\Local\Temp\ccL2g2h3.s:1247   .text.altcp_mbedtls_close:0000000000000000 .L0 
C:\Users\stapi\AppData\Local\Temp\ccL2g2h3.s:1249   .text.altcp_mbedtls_close:0000000000000000 .L0 
C:\Users\stapi\AppData\Local\Temp\ccL2g2h3.s:1250   .text.altcp_mbedtls_close:0000000000000008 .L0 
C:\Users\stapi\AppData\Local\Temp\ccL2g2h3.s:1251   .text.altcp_mbedtls_close:0000000000000008 .L0 
C:\Users\stapi\AppData\Local\Temp\ccL2g2h3.s:1252   .text.altcp_mbedtls_close:0000000000000008 .L0 
C:\Users\stapi\AppData\Local\Temp\ccL2g2h3.s:1253   .text.altcp_mbedtls_close:0000000000000008 .L0 
C:\Users\stapi\AppData\Local\Temp\ccL2g2h3.s:1254   .text.altcp_mbedtls_close:0000000000000008 .L0 
C:\Users\stapi\AppData\Local\Temp\ccL2g2h3.s:1255   .text.altcp_mbedtls_close:0000000000000008 .L0 
C:\Users\stapi\AppData\Local\Temp\ccL2g2h3.s:1257   .text.altcp_mbedtls_close:0000000000000008 .L0 
C:\Users\stapi\AppData\Local\Temp\ccL2g2h3.s:1258   .text.altcp_mbedtls_close:0000000000000008 .L0 
C:\Users\stapi\AppData\Local\Temp\ccL2g2h3.s:1259   .text.altcp_mbedtls_close:0000000000000008 .L0 
C:\Users\stapi\AppData\Local\Temp\ccL2g2h3.s:1261   .text.altcp_mbedtls_close:000000000000000a .L0 
C:\Users\stapi\AppData\Local\Temp\ccL2g2h3.s:1263   .text.altcp_mbedtls_close:000000000000000c .L0 
C:\Users\stapi\AppData\Local\Temp\ccL2g2h3.s:1267   .text.altcp_mbedtls_close:0000000000000010 .L0 
C:\Users\stapi\AppData\Local\Temp\ccL2g2h3.s:1268   .text.altcp_mbedtls_close:0000000000000010 .L0 
C:\Users\stapi\AppData\Local\Temp\ccL2g2h3.s:1269   .text.altcp_mbedtls_close:0000000000000010 .L0 
C:\Users\stapi\AppData\Local\Temp\ccL2g2h3.s:1272   .text.altcp_mbedtls_close:0000000000000012 .L0 
C:\Users\stapi\AppData\Local\Temp\ccL2g2h3.s:1275   .text.altcp_mbedtls_close:0000000000000012 .L0 
C:\Users\stapi\AppData\Local\Temp\ccL2g2h3.s:1276   .text.altcp_mbedtls_close:0000000000000012 .L0 
C:\Users\stapi\AppData\Local\Temp\ccL2g2h3.s:1282   .text.altcp_mbedtls_close:0000000000000016 .L0 
C:\Users\stapi\AppData\Local\Temp\ccL2g2h3.s:1287   .text.altcp_mbedtls_close:000000000000001a .L0 
C:\Users\stapi\AppData\Local\Temp\ccL2g2h3.s:1288   .text.altcp_mbedtls_close:000000000000001a .L0 
C:\Users\stapi\AppData\Local\Temp\ccL2g2h3.s:1291   .text.altcp_mbedtls_close:0000000000000022 .L0 
C:\Users\stapi\AppData\Local\Temp\ccL2g2h3.s:1296   .text.altcp_mbedtls_close:000000000000002e .L0 
C:\Users\stapi\AppData\Local\Temp\ccL2g2h3.s:1301   .text.altcp_mbedtls_close:000000000000003a .L0 
C:\Users\stapi\AppData\Local\Temp\ccL2g2h3.s:1306   .text.altcp_mbedtls_close:0000000000000046 .L0 
C:\Users\stapi\AppData\Local\Temp\ccL2g2h3.s:1314   .text.altcp_mbedtls_close:0000000000000056 .L0 
C:\Users\stapi\AppData\Local\Temp\ccL2g2h3.s:1315   .text.altcp_mbedtls_close:0000000000000056 .L0 
C:\Users\stapi\AppData\Local\Temp\ccL2g2h3.s:1321   .text.altcp_mbedtls_close:0000000000000062 .L0 
C:\Users\stapi\AppData\Local\Temp\ccL2g2h3.s:1322   .text.altcp_mbedtls_close:0000000000000062 .L0 
C:\Users\stapi\AppData\Local\Temp\ccL2g2h3.s:1324   .text.altcp_mbedtls_close:0000000000000064 .L0 
C:\Users\stapi\AppData\Local\Temp\ccL2g2h3.s:1330   .text.altcp_mbedtls_close:0000000000000070 .L0 
C:\Users\stapi\AppData\Local\Temp\ccL2g2h3.s:1338   .text.altcp_mbedtls_close:0000000000000080 .L0 
C:\Users\stapi\AppData\Local\Temp\ccL2g2h3.s:1339   .text.altcp_mbedtls_close:0000000000000080 .L0 
C:\Users\stapi\AppData\Local\Temp\ccL2g2h3.s:1341   .text.altcp_mbedtls_close:000000000000008a .L0 
C:\Users\stapi\AppData\Local\Temp\ccL2g2h3.s:1342   .text.altcp_mbedtls_close:000000000000008a .L0 
C:\Users\stapi\AppData\Local\Temp\ccL2g2h3.s:1343   .text.altcp_mbedtls_close:000000000000008a .L0 
C:\Users\stapi\AppData\Local\Temp\ccL2g2h3.s:1344   .text.altcp_mbedtls_close:000000000000008a .L0 
C:\Users\stapi\AppData\Local\Temp\ccL2g2h3.s:1345   .text.altcp_mbedtls_close:000000000000008a .L0 
C:\Users\stapi\AppData\Local\Temp\ccL2g2h3.s:1346   .text.altcp_mbedtls_close:000000000000008a .L0 
C:\Users\stapi\AppData\Local\Temp\ccL2g2h3.s:1347   .text.altcp_mbedtls_close:000000000000008a .L0 
C:\Users\stapi\AppData\Local\Temp\ccL2g2h3.s:1350   .text.altcp_mbedtls_close:000000000000008a .L0 
C:\Users\stapi\AppData\Local\Temp\ccL2g2h3.s:1353   .text.altcp_mbedtls_close:000000000000008a .L0 
C:\Users\stapi\AppData\Local\Temp\ccL2g2h3.s:1354   .text.altcp_mbedtls_close:000000000000008a .L0 
C:\Users\stapi\AppData\Local\Temp\ccL2g2h3.s:1359   .text.altcp_mbedtls_close:000000000000008e .L0 
C:\Users\stapi\AppData\Local\Temp\ccL2g2h3.s:1363   .text.altcp_mbedtls_close:0000000000000098 .L0 
C:\Users\stapi\AppData\Local\Temp\ccL2g2h3.s:1364   .text.altcp_mbedtls_close:0000000000000098 .L0 
C:\Users\stapi\AppData\Local\Temp\ccL2g2h3.s:1366   .text.altcp_mbedtls_close:000000000000009c .L0 
C:\Users\stapi\AppData\Local\Temp\ccL2g2h3.s:1372   .text.altcp_mbedtls_listen:0000000000000000 altcp_mbedtls_listen
C:\Users\stapi\AppData\Local\Temp\ccL2g2h3.s:1375   .text.altcp_mbedtls_listen:0000000000000000 .L0 
C:\Users\stapi\AppData\Local\Temp\ccL2g2h3.s:1377   .text.altcp_mbedtls_listen:0000000000000000 .L0 
C:\Users\stapi\AppData\Local\Temp\ccL2g2h3.s:1378   .text.altcp_mbedtls_listen:0000000000000008 .L0 
C:\Users\stapi\AppData\Local\Temp\ccL2g2h3.s:1379   .text.altcp_mbedtls_listen:0000000000000008 .L0 
C:\Users\stapi\AppData\Local\Temp\ccL2g2h3.s:1380   .text.altcp_mbedtls_listen:0000000000000008 .L0 
C:\Users\stapi\AppData\Local\Temp\ccL2g2h3.s:1382   .text.altcp_mbedtls_listen:0000000000000008 .L0 
C:\Users\stapi\AppData\Local\Temp\ccL2g2h3.s:1383   .text.altcp_mbedtls_listen:0000000000000008 .L0 
C:\Users\stapi\AppData\Local\Temp\ccL2g2h3.s:1384   .text.altcp_mbedtls_listen:0000000000000008 .L0 
C:\Users\stapi\AppData\Local\Temp\ccL2g2h3.s:1388   .text.altcp_mbedtls_listen:000000000000000a .L0 
C:\Users\stapi\AppData\Local\Temp\ccL2g2h3.s:1391   .text.altcp_mbedtls_listen:000000000000000c .L0 
C:\Users\stapi\AppData\Local\Temp\ccL2g2h3.s:1393   .text.altcp_mbedtls_listen:0000000000000016 .L0 
C:\Users\stapi\AppData\Local\Temp\ccL2g2h3.s:1394   .text.altcp_mbedtls_listen:0000000000000016 .L0 
C:\Users\stapi\AppData\Local\Temp\ccL2g2h3.s:1395   .text.altcp_mbedtls_listen:0000000000000016 .L0 
C:\Users\stapi\AppData\Local\Temp\ccL2g2h3.s:1396   .text.altcp_mbedtls_listen:0000000000000016 .L0 
C:\Users\stapi\AppData\Local\Temp\ccL2g2h3.s:1399   .text.altcp_mbedtls_listen:0000000000000016 .L0 
C:\Users\stapi\AppData\Local\Temp\ccL2g2h3.s:1402   .text.altcp_mbedtls_listen:0000000000000018 .L0 
C:\Users\stapi\AppData\Local\Temp\ccL2g2h3.s:1403   .text.altcp_mbedtls_listen:0000000000000018 .L0 
C:\Users\stapi\AppData\Local\Temp\ccL2g2h3.s:1408   .text.altcp_mbedtls_listen:0000000000000022 .L0 
C:\Users\stapi\AppData\Local\Temp\ccL2g2h3.s:1409   .text.altcp_mbedtls_listen:0000000000000022 .L0 
C:\Users\stapi\AppData\Local\Temp\ccL2g2h3.s:1411   .text.altcp_mbedtls_listen:0000000000000024 .L0 
C:\Users\stapi\AppData\Local\Temp\ccL2g2h3.s:1791   .text.altcp_mbedtls_lower_accept:0000000000000000 altcp_mbedtls_lower_accept
C:\Users\stapi\AppData\Local\Temp\ccL2g2h3.s:1412   .text.altcp_mbedtls_listen:0000000000000024 .L0 
C:\Users\stapi\AppData\Local\Temp\ccL2g2h3.s:1414   .text.altcp_mbedtls_listen:0000000000000028 .L0 
C:\Users\stapi\AppData\Local\Temp\ccL2g2h3.s:1416   .text.altcp_mbedtls_listen:000000000000002a .L0 
C:\Users\stapi\AppData\Local\Temp\ccL2g2h3.s:1420   .text.altcp_mbedtls_listen:0000000000000036 .L0 
C:\Users\stapi\AppData\Local\Temp\ccL2g2h3.s:1421   .text.altcp_mbedtls_listen:0000000000000036 .L0 
C:\Users\stapi\AppData\Local\Temp\ccL2g2h3.s:1422   .text.altcp_mbedtls_listen:0000000000000038 .L0 
C:\Users\stapi\AppData\Local\Temp\ccL2g2h3.s:1428   .text.altcp_mbedtls_connect:0000000000000000 altcp_mbedtls_connect
C:\Users\stapi\AppData\Local\Temp\ccL2g2h3.s:1431   .text.altcp_mbedtls_connect:0000000000000000 .L0 
C:\Users\stapi\AppData\Local\Temp\ccL2g2h3.s:1433   .text.altcp_mbedtls_connect:0000000000000000 .L0 
C:\Users\stapi\AppData\Local\Temp\ccL2g2h3.s:1434   .text.altcp_mbedtls_connect:0000000000000000 .L0 
C:\Users\stapi\AppData\Local\Temp\ccL2g2h3.s:1435   .text.altcp_mbedtls_connect:0000000000000000 .L0 
C:\Users\stapi\AppData\Local\Temp\ccL2g2h3.s:1437   .text.altcp_mbedtls_connect:0000000000000002 .L0 
C:\Users\stapi\AppData\Local\Temp\ccL2g2h3.s:1438   .text.altcp_mbedtls_connect:0000000000000002 .L0 
C:\Users\stapi\AppData\Local\Temp\ccL2g2h3.s:1440   .text.altcp_mbedtls_connect:0000000000000004 .L0 
C:\Users\stapi\AppData\Local\Temp\ccL2g2h3.s:1441   .text.altcp_mbedtls_connect:0000000000000004 .L0 
C:\Users\stapi\AppData\Local\Temp\ccL2g2h3.s:3187   .text.altcp_mbedtls_lower_connected:0000000000000000 altcp_mbedtls_lower_connected
C:\Users\stapi\AppData\Local\Temp\ccL2g2h3.s:1450   .text.altcp_mbedtls_connect:0000000000000016 .L0 
C:\Users\stapi\AppData\Local\Temp\ccL2g2h3.s:1453   .text.altcp_mbedtls_connect:0000000000000018 .L0 
C:\Users\stapi\AppData\Local\Temp\ccL2g2h3.s:1454   .text.altcp_mbedtls_connect:000000000000001a .L0 
C:\Users\stapi\AppData\Local\Temp\ccL2g2h3.s:1467   .text.altcp_mbedtls_bio_send:0000000000000000 altcp_mbedtls_bio_send
C:\Users\stapi\AppData\Local\Temp\ccL2g2h3.s:1470   .text.altcp_mbedtls_bio_send:0000000000000000 .L0 
C:\Users\stapi\AppData\Local\Temp\ccL2g2h3.s:1472   .text.altcp_mbedtls_bio_send:0000000000000000 .L0 
C:\Users\stapi\AppData\Local\Temp\ccL2g2h3.s:1473   .text.altcp_mbedtls_bio_send:0000000000000008 .L0 
C:\Users\stapi\AppData\Local\Temp\ccL2g2h3.s:1474   .text.altcp_mbedtls_bio_send:0000000000000008 .L0 
C:\Users\stapi\AppData\Local\Temp\ccL2g2h3.s:1475   .text.altcp_mbedtls_bio_send:0000000000000008 .L0 
C:\Users\stapi\AppData\Local\Temp\ccL2g2h3.s:1476   .text.altcp_mbedtls_bio_send:0000000000000008 .L0 
C:\Users\stapi\AppData\Local\Temp\ccL2g2h3.s:1477   .text.altcp_mbedtls_bio_send:0000000000000008 .L0 
C:\Users\stapi\AppData\Local\Temp\ccL2g2h3.s:1478   .text.altcp_mbedtls_bio_send:0000000000000008 .L0 
C:\Users\stapi\AppData\Local\Temp\ccL2g2h3.s:1479   .text.altcp_mbedtls_bio_send:0000000000000008 .L0 
C:\Users\stapi\AppData\Local\Temp\ccL2g2h3.s:1480   .text.altcp_mbedtls_bio_send:0000000000000008 .L0 
C:\Users\stapi\AppData\Local\Temp\ccL2g2h3.s:1481   .text.altcp_mbedtls_bio_send:0000000000000008 .L0 
C:\Users\stapi\AppData\Local\Temp\ccL2g2h3.s:1484   .text.altcp_mbedtls_bio_send:0000000000000008 .L0 
C:\Users\stapi\AppData\Local\Temp\ccL2g2h3.s:1485   .text.altcp_mbedtls_bio_send:0000000000000008 .L0 
C:\Users\stapi\AppData\Local\Temp\ccL2g2h3.s:1486   .text.altcp_mbedtls_bio_send:0000000000000008 .L0 
C:\Users\stapi\AppData\Local\Temp\ccL2g2h3.s:1487   .text.altcp_mbedtls_bio_send:0000000000000008 .L0 
C:\Users\stapi\AppData\Local\Temp\ccL2g2h3.s:1488   .text.altcp_mbedtls_bio_send:0000000000000008 .L0 
C:\Users\stapi\AppData\Local\Temp\ccL2g2h3.s:1489   .text.altcp_mbedtls_bio_send:0000000000000008 .L0 
C:\Users\stapi\AppData\Local\Temp\ccL2g2h3.s:1491   .text.altcp_mbedtls_bio_send:000000000000000a .L0 
C:\Users\stapi\AppData\Local\Temp\ccL2g2h3.s:1492   .text.altcp_mbedtls_bio_send:000000000000000a .L0 
C:\Users\stapi\AppData\Local\Temp\ccL2g2h3.s:1506   .text.altcp_mbedtls_bio_send:000000000000002e .L0 
C:\Users\stapi\AppData\Local\Temp\ccL2g2h3.s:1507   .text.altcp_mbedtls_bio_send:000000000000002e .L0 
C:\Users\stapi\AppData\Local\Temp\ccL2g2h3.s:1508   .text.altcp_mbedtls_bio_send:000000000000002e .L0 
C:\Users\stapi\AppData\Local\Temp\ccL2g2h3.s:1512   .text.altcp_mbedtls_bio_send:0000000000000030 .L0 
C:\Users\stapi\AppData\Local\Temp\ccL2g2h3.s:1515   .text.altcp_mbedtls_bio_send:0000000000000034 .L0 
C:\Users\stapi\AppData\Local\Temp\ccL2g2h3.s:1516   .text.altcp_mbedtls_bio_send:0000000000000034 .L0 
C:\Users\stapi\AppData\Local\Temp\ccL2g2h3.s:1517   .text.altcp_mbedtls_bio_send:0000000000000034 .L0 
C:\Users\stapi\AppData\Local\Temp\ccL2g2h3.s:1518   .text.altcp_mbedtls_bio_send:0000000000000034 .L0 
C:\Users\stapi\AppData\Local\Temp\ccL2g2h3.s:1524   .text.altcp_mbedtls_bio_send:0000000000000036 .L0 
C:\Users\stapi\AppData\Local\Temp\ccL2g2h3.s:1529   .text.altcp_mbedtls_bio_send:000000000000003c .L0 
C:\Users\stapi\AppData\Local\Temp\ccL2g2h3.s:1532   .text.altcp_mbedtls_bio_send:000000000000003e .L0 
C:\Users\stapi\AppData\Local\Temp\ccL2g2h3.s:1538   .text.altcp_mbedtls_bio_send:0000000000000046 .L0 
C:\Users\stapi\AppData\Local\Temp\ccL2g2h3.s:1544   .text.altcp_mbedtls_bio_send:0000000000000048 .L0 
C:\Users\stapi\AppData\Local\Temp\ccL2g2h3.s:1546   .text.altcp_mbedtls_bio_send:0000000000000052 .L0 
C:\Users\stapi\AppData\Local\Temp\ccL2g2h3.s:1547   .text.altcp_mbedtls_bio_send:0000000000000052 .L0 
C:\Users\stapi\AppData\Local\Temp\ccL2g2h3.s:1548   .text.altcp_mbedtls_bio_send:0000000000000052 .L0 
C:\Users\stapi\AppData\Local\Temp\ccL2g2h3.s:1549   .text.altcp_mbedtls_bio_send:0000000000000052 .L0 
C:\Users\stapi\AppData\Local\Temp\ccL2g2h3.s:1550   .text.altcp_mbedtls_bio_send:0000000000000052 .L0 
C:\Users\stapi\AppData\Local\Temp\ccL2g2h3.s:1551   .text.altcp_mbedtls_bio_send:0000000000000052 .L0 
C:\Users\stapi\AppData\Local\Temp\ccL2g2h3.s:1552   .text.altcp_mbedtls_bio_send:0000000000000052 .L0 
C:\Users\stapi\AppData\Local\Temp\ccL2g2h3.s:1553   .text.altcp_mbedtls_bio_send:0000000000000052 .L0 
C:\Users\stapi\AppData\Local\Temp\ccL2g2h3.s:1554   .text.altcp_mbedtls_bio_send:0000000000000052 .L0 
C:\Users\stapi\AppData\Local\Temp\ccL2g2h3.s:1555   .text.altcp_mbedtls_bio_send:0000000000000052 .L0 
C:\Users\stapi\AppData\Local\Temp\ccL2g2h3.s:1558   .text.altcp_mbedtls_bio_send:0000000000000052 .L0 
C:\Users\stapi\AppData\Local\Temp\ccL2g2h3.s:1563   .text.altcp_mbedtls_bio_send:0000000000000052 .L0 
C:\Users\stapi\AppData\Local\Temp\ccL2g2h3.s:1565   .text.altcp_mbedtls_bio_send:0000000000000054 .L0 
C:\Users\stapi\AppData\Local\Temp\ccL2g2h3.s:1570   .text.altcp_mbedtls_bio_send:000000000000005a .L0 
C:\Users\stapi\AppData\Local\Temp\ccL2g2h3.s:1571   .text.altcp_mbedtls_bio_send:000000000000005a .L0 
C:\Users\stapi\AppData\Local\Temp\ccL2g2h3.s:1578   .text.altcp_mbedtls_bio_send:000000000000006c .L0 
C:\Users\stapi\AppData\Local\Temp\ccL2g2h3.s:1579   .text.altcp_mbedtls_bio_send:000000000000006c .L0 
C:\Users\stapi\AppData\Local\Temp\ccL2g2h3.s:1581   .text.altcp_mbedtls_bio_send:000000000000006e .L0 
C:\Users\stapi\AppData\Local\Temp\ccL2g2h3.s:1582   .text.altcp_mbedtls_bio_send:000000000000006e .L0 
C:\Users\stapi\AppData\Local\Temp\ccL2g2h3.s:1585   .text.altcp_mbedtls_bio_send:0000000000000070 .L0 
C:\Users\stapi\AppData\Local\Temp\ccL2g2h3.s:1586   .text.altcp_mbedtls_bio_send:0000000000000070 .L0 
C:\Users\stapi\AppData\Local\Temp\ccL2g2h3.s:1591   .text.altcp_mbedtls_bio_send:0000000000000076 .L0 
C:\Users\stapi\AppData\Local\Temp\ccL2g2h3.s:1592   .text.altcp_mbedtls_bio_send:0000000000000076 .L0 
C:\Users\stapi\AppData\Local\Temp\ccL2g2h3.s:1595   .text.altcp_mbedtls_bio_send:000000000000007c .L0 
C:\Users\stapi\AppData\Local\Temp\ccL2g2h3.s:1596   .text.altcp_mbedtls_bio_send:000000000000007c .L0 
C:\Users\stapi\AppData\Local\Temp\ccL2g2h3.s:1597   .text.altcp_mbedtls_bio_send:000000000000007c .L0 
C:\Users\stapi\AppData\Local\Temp\ccL2g2h3.s:1598   .text.altcp_mbedtls_bio_send:000000000000007c .L0 
C:\Users\stapi\AppData\Local\Temp\ccL2g2h3.s:1610   .text.altcp_mbedtls_bio_send:00000000000000a0 .L0 
C:\Users\stapi\AppData\Local\Temp\ccL2g2h3.s:1611   .text.altcp_mbedtls_bio_send:00000000000000a0 .L0 
C:\Users\stapi\AppData\Local\Temp\ccL2g2h3.s:1612   .text.altcp_mbedtls_bio_send:00000000000000a0 .L0 
C:\Users\stapi\AppData\Local\Temp\ccL2g2h3.s:1619   .text.altcp_mbedtls_bio_send:00000000000000a2 .L0 
C:\Users\stapi\AppData\Local\Temp\ccL2g2h3.s:1621   .text.altcp_mbedtls_bio_send:00000000000000a8 .L0 
C:\Users\stapi\AppData\Local\Temp\ccL2g2h3.s:1631   .text.altcp_mbedtls_setup:0000000000000000 altcp_mbedtls_setup
C:\Users\stapi\AppData\Local\Temp\ccL2g2h3.s:1634   .text.altcp_mbedtls_setup:0000000000000000 .L0 
C:\Users\stapi\AppData\Local\Temp\ccL2g2h3.s:1636   .text.altcp_mbedtls_setup:0000000000000000 .L0 
C:\Users\stapi\AppData\Local\Temp\ccL2g2h3.s:1637   .text.altcp_mbedtls_setup:0000000000000000 .L0 
C:\Users\stapi\AppData\Local\Temp\ccL2g2h3.s:1638   .text.altcp_mbedtls_setup:0000000000000000 .L0 
C:\Users\stapi\AppData\Local\Temp\ccL2g2h3.s:1639   .text.altcp_mbedtls_setup:0000000000000000 .L0 
C:\Users\stapi\AppData\Local\Temp\ccL2g2h3.s:1640   .text.altcp_mbedtls_setup:0000000000000000 .L0 
C:\Users\stapi\AppData\Local\Temp\ccL2g2h3.s:1641   .text.altcp_mbedtls_setup:0000000000000000 .L0 
C:\Users\stapi\AppData\Local\Temp\ccL2g2h3.s:1643   .text.altcp_mbedtls_setup:0000000000000002 .L0 
C:\Users\stapi\AppData\Local\Temp\ccL2g2h3.s:1644   .text.altcp_mbedtls_setup:000000000000000a .L0 
C:\Users\stapi\AppData\Local\Temp\ccL2g2h3.s:1645   .text.altcp_mbedtls_setup:000000000000000a .L0 
C:\Users\stapi\AppData\Local\Temp\ccL2g2h3.s:1646   .text.altcp_mbedtls_setup:000000000000000a .L0 
C:\Users\stapi\AppData\Local\Temp\ccL2g2h3.s:1647   .text.altcp_mbedtls_setup:000000000000000a .L0 
C:\Users\stapi\AppData\Local\Temp\ccL2g2h3.s:1648   .text.altcp_mbedtls_setup:000000000000000a .L0 
C:\Users\stapi\AppData\Local\Temp\ccL2g2h3.s:1649   .text.altcp_mbedtls_setup:000000000000000a .L0 
C:\Users\stapi\AppData\Local\Temp\ccL2g2h3.s:1650   .text.altcp_mbedtls_setup:000000000000000a .L0 
C:\Users\stapi\AppData\Local\Temp\ccL2g2h3.s:1654   .text.altcp_mbedtls_setup:000000000000000e .L0 
C:\Users\stapi\AppData\Local\Temp\ccL2g2h3.s:1655   .text.altcp_mbedtls_setup:000000000000000e .L0 
C:\Users\stapi\AppData\Local\Temp\ccL2g2h3.s:1657   .text.altcp_mbedtls_setup:0000000000000012 .L0 
C:\Users\stapi\AppData\Local\Temp\ccL2g2h3.s:1658   .text.altcp_mbedtls_setup:0000000000000012 .L0 
C:\Users\stapi\AppData\Local\Temp\ccL2g2h3.s:1672   .text.altcp_mbedtls_setup:0000000000000036 .L0 
C:\Users\stapi\AppData\Local\Temp\ccL2g2h3.s:1673   .text.altcp_mbedtls_setup:0000000000000036 .L0 
C:\Users\stapi\AppData\Local\Temp\ccL2g2h3.s:1674   .text.altcp_mbedtls_setup:0000000000000036 .L0 
C:\Users\stapi\AppData\Local\Temp\ccL2g2h3.s:1682   .text.altcp_mbedtls_setup:000000000000003a .L0 
C:\Users\stapi\AppData\Local\Temp\ccL2g2h3.s:1683   .text.altcp_mbedtls_setup:000000000000003a .L0 
C:\Users\stapi\AppData\Local\Temp\ccL2g2h3.s:1684   .text.altcp_mbedtls_setup:000000000000003a .L0 
C:\Users\stapi\AppData\Local\Temp\ccL2g2h3.s:1685   .text.altcp_mbedtls_setup:000000000000003a .L0 
C:\Users\stapi\AppData\Local\Temp\ccL2g2h3.s:1690   .text.altcp_mbedtls_setup:0000000000000044 .L0 
C:\Users\stapi\AppData\Local\Temp\ccL2g2h3.s:1691   .text.altcp_mbedtls_setup:0000000000000044 .L0 
C:\Users\stapi\AppData\Local\Temp\ccL2g2h3.s:1693   .text.altcp_mbedtls_setup:0000000000000046 .L0 
C:\Users\stapi\AppData\Local\Temp\ccL2g2h3.s:1695   .text.altcp_mbedtls_setup:0000000000000048 .L0 
C:\Users\stapi\AppData\Local\Temp\ccL2g2h3.s:1700   .text.altcp_mbedtls_setup:0000000000000056 .L0 
C:\Users\stapi\AppData\Local\Temp\ccL2g2h3.s:1701   .text.altcp_mbedtls_setup:0000000000000056 .L0 
C:\Users\stapi\AppData\Local\Temp\ccL2g2h3.s:1706   .text.altcp_mbedtls_setup:0000000000000062 .L0 
C:\Users\stapi\AppData\Local\Temp\ccL2g2h3.s:1707   .text.altcp_mbedtls_setup:0000000000000062 .L0 
C:\Users\stapi\AppData\Local\Temp\ccL2g2h3.s:1709   .text.altcp_mbedtls_setup:0000000000000064 .L0 
C:\Users\stapi\AppData\Local\Temp\ccL2g2h3.s:1710   .text.altcp_mbedtls_setup:0000000000000064 .L0 
C:\Users\stapi\AppData\Local\Temp\ccL2g2h3.s:1716   .text.altcp_mbedtls_setup:0000000000000070 .L0 
C:\Users\stapi\AppData\Local\Temp\ccL2g2h3.s:1717   .text.altcp_mbedtls_setup:0000000000000070 .L0 
C:\Users\stapi\AppData\Local\Temp\ccL2g2h3.s:1723   .text.altcp_mbedtls_setup:0000000000000072 .L0 
C:\Users\stapi\AppData\Local\Temp\ccL2g2h3.s:1724   .text.altcp_mbedtls_setup:000000000000007a .L0 
C:\Users\stapi\AppData\Local\Temp\ccL2g2h3.s:1725   .text.altcp_mbedtls_setup:000000000000007a .L0 
C:\Users\stapi\AppData\Local\Temp\ccL2g2h3.s:1726   .text.altcp_mbedtls_setup:000000000000007a .L0 
C:\Users\stapi\AppData\Local\Temp\ccL2g2h3.s:1727   .text.altcp_mbedtls_setup:000000000000007a .L0 
C:\Users\stapi\AppData\Local\Temp\ccL2g2h3.s:1728   .text.altcp_mbedtls_setup:000000000000007a .L0 
C:\Users\stapi\AppData\Local\Temp\ccL2g2h3.s:1729   .text.altcp_mbedtls_setup:000000000000007a .L0 
C:\Users\stapi\AppData\Local\Temp\ccL2g2h3.s:1730   .text.altcp_mbedtls_setup:000000000000007a .L0 
C:\Users\stapi\AppData\Local\Temp\ccL2g2h3.s:1731   .text.altcp_mbedtls_setup:000000000000007a .L0 
C:\Users\stapi\AppData\Local\Temp\ccL2g2h3.s:1734   .text.altcp_mbedtls_setup:000000000000007a .L0 
C:\Users\stapi\AppData\Local\Temp\ccL2g2h3.s:1738   .text.altcp_mbedtls_setup:000000000000007a .L0 
C:\Users\stapi\AppData\Local\Temp\ccL2g2h3.s:1749   .text.altcp_mbedtls_setup:0000000000000098 .L0 
C:\Users\stapi\AppData\Local\Temp\ccL2g2h3.s:1754   .text.altcp_mbedtls_setup:00000000000000a4 .L0 
C:\Users\stapi\AppData\Local\Temp\ccL2g2h3.s:1755   .text.altcp_mbedtls_setup:00000000000000a4 .L0 
C:\Users\stapi\AppData\Local\Temp\ccL2g2h3.s:1758   .text.altcp_mbedtls_setup:00000000000000ac .L0 
C:\Users\stapi\AppData\Local\Temp\ccL2g2h3.s:1760   .text.altcp_mbedtls_setup:00000000000000b0 .L0 
C:\Users\stapi\AppData\Local\Temp\ccL2g2h3.s:1761   .text.altcp_mbedtls_setup:00000000000000b0 .L0 
C:\Users\stapi\AppData\Local\Temp\ccL2g2h3.s:1763   .text.altcp_mbedtls_setup:00000000000000b2 .L0 
C:\Users\stapi\AppData\Local\Temp\ccL2g2h3.s:1764   .text.altcp_mbedtls_setup:00000000000000b2 .L0 
C:\Users\stapi\AppData\Local\Temp\ccL2g2h3.s:1766   .text.altcp_mbedtls_setup:00000000000000b4 .L0 
C:\Users\stapi\AppData\Local\Temp\ccL2g2h3.s:1767   .text.altcp_mbedtls_setup:00000000000000b4 .L0 
C:\Users\stapi\AppData\Local\Temp\ccL2g2h3.s:1771   .text.altcp_mbedtls_setup:00000000000000b8 .L0 
C:\Users\stapi\AppData\Local\Temp\ccL2g2h3.s:1772   .text.altcp_mbedtls_setup:00000000000000b8 .L0 
C:\Users\stapi\AppData\Local\Temp\ccL2g2h3.s:1773   .text.altcp_mbedtls_setup:00000000000000b8 .L0 
C:\Users\stapi\AppData\Local\Temp\ccL2g2h3.s:1774   .text.altcp_mbedtls_setup:00000000000000b8 .L0 
C:\Users\stapi\AppData\Local\Temp\ccL2g2h3.s:1775   .text.altcp_mbedtls_setup:00000000000000b8 .L0 
C:\Users\stapi\AppData\Local\Temp\ccL2g2h3.s:1776   .text.altcp_mbedtls_setup:00000000000000b8 .L0 
C:\Users\stapi\AppData\Local\Temp\ccL2g2h3.s:1777   .text.altcp_mbedtls_setup:00000000000000b8 .L0 
C:\Users\stapi\AppData\Local\Temp\ccL2g2h3.s:1781   .text.altcp_mbedtls_setup:00000000000000b8 .L0 
C:\Users\stapi\AppData\Local\Temp\ccL2g2h3.s:1784   .text.altcp_mbedtls_setup:00000000000000ba .L0 
C:\Users\stapi\AppData\Local\Temp\ccL2g2h3.s:1785   .text.altcp_mbedtls_setup:00000000000000bc .L0 
C:\Users\stapi\AppData\Local\Temp\ccL2g2h3.s:1794   .text.altcp_mbedtls_lower_accept:0000000000000000 .L0 
C:\Users\stapi\AppData\Local\Temp\ccL2g2h3.s:1796   .text.altcp_mbedtls_lower_accept:0000000000000000 .L0 
C:\Users\stapi\AppData\Local\Temp\ccL2g2h3.s:1797   .text.altcp_mbedtls_lower_accept:0000000000000008 .L0 
C:\Users\stapi\AppData\Local\Temp\ccL2g2h3.s:1798   .text.altcp_mbedtls_lower_accept:0000000000000008 .L0 
C:\Users\stapi\AppData\Local\Temp\ccL2g2h3.s:1799   .text.altcp_mbedtls_lower_accept:0000000000000008 .L0 
C:\Users\stapi\AppData\Local\Temp\ccL2g2h3.s:1800   .text.altcp_mbedtls_lower_accept:0000000000000008 .L0 
C:\Users\stapi\AppData\Local\Temp\ccL2g2h3.s:1801   .text.altcp_mbedtls_lower_accept:0000000000000008 .L0 
C:\Users\stapi\AppData\Local\Temp\ccL2g2h3.s:1802   .text.altcp_mbedtls_lower_accept:0000000000000008 .L0 
C:\Users\stapi\AppData\Local\Temp\ccL2g2h3.s:1803   .text.altcp_mbedtls_lower_accept:0000000000000008 .L0 
C:\Users\stapi\AppData\Local\Temp\ccL2g2h3.s:1806   .text.altcp_mbedtls_lower_accept:0000000000000008 .L0 
C:\Users\stapi\AppData\Local\Temp\ccL2g2h3.s:1807   .text.altcp_mbedtls_lower_accept:0000000000000008 .L0 
C:\Users\stapi\AppData\Local\Temp\ccL2g2h3.s:1808   .text.altcp_mbedtls_lower_accept:0000000000000008 .L0 
C:\Users\stapi\AppData\Local\Temp\ccL2g2h3.s:1809   .text.altcp_mbedtls_lower_accept:000000000000000a .L0 
C:\Users\stapi\AppData\Local\Temp\ccL2g2h3.s:1811   .text.altcp_mbedtls_lower_accept:000000000000000a .L0 
C:\Users\stapi\AppData\Local\Temp\ccL2g2h3.s:1813   .text.altcp_mbedtls_lower_accept:000000000000000c .L0 
C:\Users\stapi\AppData\Local\Temp\ccL2g2h3.s:1815   .text.altcp_mbedtls_lower_accept:000000000000000e .L0 
C:\Users\stapi\AppData\Local\Temp\ccL2g2h3.s:1818   .text.altcp_mbedtls_lower_accept:0000000000000014 .L0 
C:\Users\stapi\AppData\Local\Temp\ccL2g2h3.s:1820   .text.altcp_mbedtls_lower_accept:0000000000000016 .L0 
C:\Users\stapi\AppData\Local\Temp\ccL2g2h3.s:1822   .text.altcp_mbedtls_lower_accept:000000000000001a .L0 
C:\Users\stapi\AppData\Local\Temp\ccL2g2h3.s:1828   .text.altcp_mbedtls_lower_accept:0000000000000022 .L0 
C:\Users\stapi\AppData\Local\Temp\ccL2g2h3.s:1830   .text.altcp_mbedtls_lower_accept:0000000000000022 .L0 
C:\Users\stapi\AppData\Local\Temp\ccL2g2h3.s:1831   .text.altcp_mbedtls_lower_accept:0000000000000022 .L0 
C:\Users\stapi\AppData\Local\Temp\ccL2g2h3.s:1832   .text.altcp_mbedtls_lower_accept:0000000000000022 .L0 
C:\Users\stapi\AppData\Local\Temp\ccL2g2h3.s:1837   .text.altcp_mbedtls_lower_accept:000000000000002c .L0 
C:\Users\stapi\AppData\Local\Temp\ccL2g2h3.s:1838   .text.altcp_mbedtls_lower_accept:000000000000002c .L0 
C:\Users\stapi\AppData\Local\Temp\ccL2g2h3.s:1840   .text.altcp_mbedtls_lower_accept:000000000000002e .L0 
C:\Users\stapi\AppData\Local\Temp\ccL2g2h3.s:1842   .text.altcp_mbedtls_lower_accept:0000000000000030 .L0 
C:\Users\stapi\AppData\Local\Temp\ccL2g2h3.s:1843   .text.altcp_mbedtls_lower_accept:0000000000000030 .L0 
C:\Users\stapi\AppData\Local\Temp\ccL2g2h3.s:1850   .text.altcp_mbedtls_lower_accept:0000000000000040 .L0 
C:\Users\stapi\AppData\Local\Temp\ccL2g2h3.s:1852   .text.altcp_mbedtls_lower_accept:0000000000000042 .L0 
C:\Users\stapi\AppData\Local\Temp\ccL2g2h3.s:1855   .text.altcp_mbedtls_lower_accept:0000000000000044 .L0 
C:\Users\stapi\AppData\Local\Temp\ccL2g2h3.s:1856   .text.altcp_mbedtls_lower_accept:0000000000000044 .L0 
C:\Users\stapi\AppData\Local\Temp\ccL2g2h3.s:1858   .text.altcp_mbedtls_lower_accept:0000000000000046 .L0 
C:\Users\stapi\AppData\Local\Temp\ccL2g2h3.s:1865   .text.altcp_mbedtls_lower_accept:0000000000000050 .L0 
C:\Users\stapi\AppData\Local\Temp\ccL2g2h3.s:1866   .text.altcp_mbedtls_lower_accept:0000000000000050 .L0 
C:\Users\stapi\AppData\Local\Temp\ccL2g2h3.s:1868   .text.altcp_mbedtls_lower_accept:0000000000000054 .L0 
C:\Users\stapi\AppData\Local\Temp\ccL2g2h3.s:1869   .text.altcp_mbedtls_lower_accept:0000000000000054 .L0 
C:\Users\stapi\AppData\Local\Temp\ccL2g2h3.s:1871   .text.altcp_mbedtls_lower_accept:000000000000005c .L0 
C:\Users\stapi\AppData\Local\Temp\ccL2g2h3.s:1872   .text.altcp_mbedtls_lower_accept:000000000000005c .L0 
C:\Users\stapi\AppData\Local\Temp\ccL2g2h3.s:1873   .text.altcp_mbedtls_lower_accept:000000000000005c .L0 
C:\Users\stapi\AppData\Local\Temp\ccL2g2h3.s:1874   .text.altcp_mbedtls_lower_accept:000000000000005c .L0 
C:\Users\stapi\AppData\Local\Temp\ccL2g2h3.s:1875   .text.altcp_mbedtls_lower_accept:000000000000005c .L0 
C:\Users\stapi\AppData\Local\Temp\ccL2g2h3.s:1876   .text.altcp_mbedtls_lower_accept:000000000000005c .L0 
C:\Users\stapi\AppData\Local\Temp\ccL2g2h3.s:1877   .text.altcp_mbedtls_lower_accept:000000000000005c .L0 
C:\Users\stapi\AppData\Local\Temp\ccL2g2h3.s:1880   .text.altcp_mbedtls_lower_accept:000000000000005c .L0 
C:\Users\stapi\AppData\Local\Temp\ccL2g2h3.s:1883   .text.altcp_mbedtls_lower_accept:000000000000005c .L0 
C:\Users\stapi\AppData\Local\Temp\ccL2g2h3.s:1884   .text.altcp_mbedtls_lower_accept:000000000000005c .L0 
C:\Users\stapi\AppData\Local\Temp\ccL2g2h3.s:1893   .text.altcp_mbedtls_lower_accept:0000000000000068 .L0 
C:\Users\stapi\AppData\Local\Temp\ccL2g2h3.s:1918   .text.altcp_mbedtls_handle_rx_appldata:0000000000000000 altcp_mbedtls_handle_rx_appldata
C:\Users\stapi\AppData\Local\Temp\ccL2g2h3.s:1921   .text.altcp_mbedtls_handle_rx_appldata:0000000000000000 .L0 
C:\Users\stapi\AppData\Local\Temp\ccL2g2h3.s:1923   .text.altcp_mbedtls_handle_rx_appldata:0000000000000000 .L0 
C:\Users\stapi\AppData\Local\Temp\ccL2g2h3.s:1924   .text.altcp_mbedtls_handle_rx_appldata:0000000000000008 .L0 
C:\Users\stapi\AppData\Local\Temp\ccL2g2h3.s:1925   .text.altcp_mbedtls_handle_rx_appldata:0000000000000008 .L0 
C:\Users\stapi\AppData\Local\Temp\ccL2g2h3.s:1926   .text.altcp_mbedtls_handle_rx_appldata:0000000000000008 .L0 
C:\Users\stapi\AppData\Local\Temp\ccL2g2h3.s:1927   .text.altcp_mbedtls_handle_rx_appldata:0000000000000008 .L0 
C:\Users\stapi\AppData\Local\Temp\ccL2g2h3.s:1928   .text.altcp_mbedtls_handle_rx_appldata:0000000000000008 .L0 
C:\Users\stapi\AppData\Local\Temp\ccL2g2h3.s:1929   .text.altcp_mbedtls_handle_rx_appldata:0000000000000008 .L0 
C:\Users\stapi\AppData\Local\Temp\ccL2g2h3.s:1930   .text.altcp_mbedtls_handle_rx_appldata:0000000000000008 .L0 
C:\Users\stapi\AppData\Local\Temp\ccL2g2h3.s:1931   .text.altcp_mbedtls_handle_rx_appldata:0000000000000008 .L0 
C:\Users\stapi\AppData\Local\Temp\ccL2g2h3.s:1932   .text.altcp_mbedtls_handle_rx_appldata:0000000000000008 .L0 
C:\Users\stapi\AppData\Local\Temp\ccL2g2h3.s:1933   .text.altcp_mbedtls_handle_rx_appldata:0000000000000008 .L0 
C:\Users\stapi\AppData\Local\Temp\ccL2g2h3.s:1934   .text.altcp_mbedtls_handle_rx_appldata:0000000000000008 .L0 
C:\Users\stapi\AppData\Local\Temp\ccL2g2h3.s:1935   .text.altcp_mbedtls_handle_rx_appldata:0000000000000008 .L0 
C:\Users\stapi\AppData\Local\Temp\ccL2g2h3.s:1936   .text.altcp_mbedtls_handle_rx_appldata:0000000000000008 .L0 
C:\Users\stapi\AppData\Local\Temp\ccL2g2h3.s:1938   .text.altcp_mbedtls_handle_rx_appldata:0000000000000008 .L0 
C:\Users\stapi\AppData\Local\Temp\ccL2g2h3.s:1939   .text.altcp_mbedtls_handle_rx_appldata:0000000000000008 .L0 
C:\Users\stapi\AppData\Local\Temp\ccL2g2h3.s:1940   .text.altcp_mbedtls_handle_rx_appldata:0000000000000008 .L0 
C:\Users\stapi\AppData\Local\Temp\ccL2g2h3.s:1942   .text.altcp_mbedtls_handle_rx_appldata:000000000000000a .L0 
C:\Users\stapi\AppData\Local\Temp\ccL2g2h3.s:1943   .text.altcp_mbedtls_handle_rx_appldata:000000000000000a .L0 
C:\Users\stapi\AppData\Local\Temp\ccL2g2h3.s:1956   .text.altcp_mbedtls_handle_rx_appldata:000000000000002e .L0 
C:\Users\stapi\AppData\Local\Temp\ccL2g2h3.s:1957   .text.altcp_mbedtls_handle_rx_appldata:000000000000002e .L0 
C:\Users\stapi\AppData\Local\Temp\ccL2g2h3.s:1958   .text.altcp_mbedtls_handle_rx_appldata:000000000000002e .L0 
C:\Users\stapi\AppData\Local\Temp\ccL2g2h3.s:1962   .text.altcp_mbedtls_handle_rx_appldata:0000000000000030 .L0 
C:\Users\stapi\AppData\Local\Temp\ccL2g2h3.s:1965   .text.altcp_mbedtls_handle_rx_appldata:0000000000000036 .L0 
C:\Users\stapi\AppData\Local\Temp\ccL2g2h3.s:1966   .text.altcp_mbedtls_handle_rx_appldata:0000000000000036 .L0 
C:\Users\stapi\AppData\Local\Temp\ccL2g2h3.s:1967   .text.altcp_mbedtls_handle_rx_appldata:0000000000000036 .L0 
C:\Users\stapi\AppData\Local\Temp\ccL2g2h3.s:1968   .text.altcp_mbedtls_handle_rx_appldata:0000000000000036 .L0 
C:\Users\stapi\AppData\Local\Temp\ccL2g2h3.s:1980   .text.altcp_mbedtls_handle_rx_appldata:000000000000003c .L0 
C:\Users\stapi\AppData\Local\Temp\ccL2g2h3.s:1989   .text.altcp_mbedtls_handle_rx_appldata:0000000000000044 .L0 
C:\Users\stapi\AppData\Local\Temp\ccL2g2h3.s:2003   .text.altcp_mbedtls_handle_rx_appldata:000000000000004a .L0 
C:\Users\stapi\AppData\Local\Temp\ccL2g2h3.s:2012   .text.altcp_mbedtls_handle_rx_appldata:000000000000004c .L0 
C:\Users\stapi\AppData\Local\Temp\ccL2g2h3.s:2013   .text.altcp_mbedtls_handle_rx_appldata:000000000000004c .L0 
C:\Users\stapi\AppData\Local\Temp\ccL2g2h3.s:2014   .text.altcp_mbedtls_handle_rx_appldata:000000000000004c .L0 
C:\Users\stapi\AppData\Local\Temp\ccL2g2h3.s:2022   .text.altcp_mbedtls_handle_rx_appldata:0000000000000060 .L0 
C:\Users\stapi\AppData\Local\Temp\ccL2g2h3.s:2023   .text.altcp_mbedtls_handle_rx_appldata:0000000000000060 .L0 
C:\Users\stapi\AppData\Local\Temp\ccL2g2h3.s:2025   .text.altcp_mbedtls_handle_rx_appldata:0000000000000062 .L0 
C:\Users\stapi\AppData\Local\Temp\ccL2g2h3.s:2026   .text.altcp_mbedtls_handle_rx_appldata:0000000000000062 .L0 
C:\Users\stapi\AppData\Local\Temp\ccL2g2h3.s:2035   .text.altcp_mbedtls_handle_rx_appldata:0000000000000074 .L0 
C:\Users\stapi\AppData\Local\Temp\ccL2g2h3.s:2036   .text.altcp_mbedtls_handle_rx_appldata:0000000000000074 .L0 
C:\Users\stapi\AppData\Local\Temp\ccL2g2h3.s:2038   .text.altcp_mbedtls_handle_rx_appldata:0000000000000078 .L0 
C:\Users\stapi\AppData\Local\Temp\ccL2g2h3.s:2039   .text.altcp_mbedtls_handle_rx_appldata:0000000000000078 .L0 
C:\Users\stapi\AppData\Local\Temp\ccL2g2h3.s:2043   .text.altcp_mbedtls_handle_rx_appldata:0000000000000082 .L0 
C:\Users\stapi\AppData\Local\Temp\ccL2g2h3.s:2044   .text.altcp_mbedtls_handle_rx_appldata:0000000000000082 .L0 
C:\Users\stapi\AppData\Local\Temp\ccL2g2h3.s:2045   .text.altcp_mbedtls_handle_rx_appldata:0000000000000082 .L0 
C:\Users\stapi\AppData\Local\Temp\ccL2g2h3.s:2046   .text.altcp_mbedtls_handle_rx_appldata:0000000000000082 .L0 
C:\Users\stapi\AppData\Local\Temp\ccL2g2h3.s:2047   .text.altcp_mbedtls_handle_rx_appldata:0000000000000082 .L0 
C:\Users\stapi\AppData\Local\Temp\ccL2g2h3.s:2058   .text.altcp_mbedtls_handle_rx_appldata:00000000000000a6 .L0 
C:\Users\stapi\AppData\Local\Temp\ccL2g2h3.s:2059   .text.altcp_mbedtls_handle_rx_appldata:00000000000000a6 .L0 
C:\Users\stapi\AppData\Local\Temp\ccL2g2h3.s:2060   .text.altcp_mbedtls_handle_rx_appldata:00000000000000a6 .L0 
C:\Users\stapi\AppData\Local\Temp\ccL2g2h3.s:2063   .text.altcp_mbedtls_handle_rx_appldata:00000000000000a8 .L0 
C:\Users\stapi\AppData\Local\Temp\ccL2g2h3.s:2064   .text.altcp_mbedtls_handle_rx_appldata:00000000000000a8 .L0 
C:\Users\stapi\AppData\Local\Temp\ccL2g2h3.s:2067   .text.altcp_mbedtls_handle_rx_appldata:00000000000000ac .L0 
C:\Users\stapi\AppData\Local\Temp\ccL2g2h3.s:2070   .text.altcp_mbedtls_handle_rx_appldata:00000000000000ae .L0 
C:\Users\stapi\AppData\Local\Temp\ccL2g2h3.s:2075   .text.altcp_mbedtls_handle_rx_appldata:00000000000000b6 .L0 
C:\Users\stapi\AppData\Local\Temp\ccL2g2h3.s:2076   .text.altcp_mbedtls_handle_rx_appldata:00000000000000b6 .L0 
C:\Users\stapi\AppData\Local\Temp\ccL2g2h3.s:2077   .text.altcp_mbedtls_handle_rx_appldata:00000000000000b6 .L0 
C:\Users\stapi\AppData\Local\Temp\ccL2g2h3.s:2082   .text.altcp_mbedtls_handle_rx_appldata:00000000000000ba .L0 
C:\Users\stapi\AppData\Local\Temp\ccL2g2h3.s:2083   .text.altcp_mbedtls_handle_rx_appldata:00000000000000ba .L0 
C:\Users\stapi\AppData\Local\Temp\ccL2g2h3.s:2084   .text.altcp_mbedtls_handle_rx_appldata:00000000000000ba .L0 
C:\Users\stapi\AppData\Local\Temp\ccL2g2h3.s:2086   .text.altcp_mbedtls_handle_rx_appldata:00000000000000bc .L0 
C:\Users\stapi\AppData\Local\Temp\ccL2g2h3.s:2087   .text.altcp_mbedtls_handle_rx_appldata:00000000000000bc .L0 
C:\Users\stapi\AppData\Local\Temp\ccL2g2h3.s:2090   .text.altcp_mbedtls_handle_rx_appldata:00000000000000c4 .L0 
C:\Users\stapi\AppData\Local\Temp\ccL2g2h3.s:2091   .text.altcp_mbedtls_handle_rx_appldata:00000000000000c4 .L0 
C:\Users\stapi\AppData\Local\Temp\ccL2g2h3.s:2102   .text.altcp_mbedtls_handle_rx_appldata:00000000000000e8 .L0 
C:\Users\stapi\AppData\Local\Temp\ccL2g2h3.s:2103   .text.altcp_mbedtls_handle_rx_appldata:00000000000000e8 .L0 
C:\Users\stapi\AppData\Local\Temp\ccL2g2h3.s:2104   .text.altcp_mbedtls_handle_rx_appldata:00000000000000e8 .L0 
C:\Users\stapi\AppData\Local\Temp\ccL2g2h3.s:2107   .text.altcp_mbedtls_handle_rx_appldata:00000000000000ea .L0 
C:\Users\stapi\AppData\Local\Temp\ccL2g2h3.s:2108   .text.altcp_mbedtls_handle_rx_appldata:00000000000000ea .L0 
C:\Users\stapi\AppData\Local\Temp\ccL2g2h3.s:2109   .text.altcp_mbedtls_handle_rx_appldata:00000000000000ea .L0 
C:\Users\stapi\AppData\Local\Temp\ccL2g2h3.s:2114   .text.altcp_mbedtls_handle_rx_appldata:00000000000000f8 .L0 
C:\Users\stapi\AppData\Local\Temp\ccL2g2h3.s:2115   .text.altcp_mbedtls_handle_rx_appldata:00000000000000f8 .L0 
C:\Users\stapi\AppData\Local\Temp\ccL2g2h3.s:2117   .text.altcp_mbedtls_handle_rx_appldata:00000000000000fc .L0 
C:\Users\stapi\AppData\Local\Temp\ccL2g2h3.s:2119   .text.altcp_mbedtls_handle_rx_appldata:00000000000000fe .L0 
C:\Users\stapi\AppData\Local\Temp\ccL2g2h3.s:2122   .text.altcp_mbedtls_handle_rx_appldata:0000000000000104 .L0 
C:\Users\stapi\AppData\Local\Temp\ccL2g2h3.s:2123   .text.altcp_mbedtls_handle_rx_appldata:0000000000000104 .L0 
C:\Users\stapi\AppData\Local\Temp\ccL2g2h3.s:2126   .text.altcp_mbedtls_handle_rx_appldata:000000000000010c .L0 
C:\Users\stapi\AppData\Local\Temp\ccL2g2h3.s:2129   .text.altcp_mbedtls_handle_rx_appldata:000000000000010e .L0 
C:\Users\stapi\AppData\Local\Temp\ccL2g2h3.s:2130   .text.altcp_mbedtls_handle_rx_appldata:000000000000010e .L0 
C:\Users\stapi\AppData\Local\Temp\ccL2g2h3.s:2131   .text.altcp_mbedtls_handle_rx_appldata:000000000000010e .L0 
C:\Users\stapi\AppData\Local\Temp\ccL2g2h3.s:2135   .text.altcp_mbedtls_handle_rx_appldata:000000000000011a .L0 
C:\Users\stapi\AppData\Local\Temp\ccL2g2h3.s:2136   .text.altcp_mbedtls_handle_rx_appldata:000000000000011a .L0 
C:\Users\stapi\AppData\Local\Temp\ccL2g2h3.s:2147   .text.altcp_mbedtls_handle_rx_appldata:000000000000013e .L0 
C:\Users\stapi\AppData\Local\Temp\ccL2g2h3.s:2148   .text.altcp_mbedtls_handle_rx_appldata:000000000000013e .L0 
C:\Users\stapi\AppData\Local\Temp\ccL2g2h3.s:2149   .text.altcp_mbedtls_handle_rx_appldata:000000000000013e .L0 
C:\Users\stapi\AppData\Local\Temp\ccL2g2h3.s:2152   .text.altcp_mbedtls_handle_rx_appldata:0000000000000140 .L0 
C:\Users\stapi\AppData\Local\Temp\ccL2g2h3.s:2153   .text.altcp_mbedtls_handle_rx_appldata:0000000000000140 .L0 
C:\Users\stapi\AppData\Local\Temp\ccL2g2h3.s:2154   .text.altcp_mbedtls_handle_rx_appldata:0000000000000140 .L0 
C:\Users\stapi\AppData\Local\Temp\ccL2g2h3.s:2155   .text.altcp_mbedtls_handle_rx_appldata:0000000000000140 .L0 
C:\Users\stapi\AppData\Local\Temp\ccL2g2h3.s:2157   .text.altcp_mbedtls_handle_rx_appldata:0000000000000144 .L0 
C:\Users\stapi\AppData\Local\Temp\ccL2g2h3.s:2162   .text.altcp_mbedtls_handle_rx_appldata:0000000000000148 .L0 
C:\Users\stapi\AppData\Local\Temp\ccL2g2h3.s:2163   .text.altcp_mbedtls_handle_rx_appldata:0000000000000148 .L0 
C:\Users\stapi\AppData\Local\Temp\ccL2g2h3.s:2166   .text.altcp_mbedtls_handle_rx_appldata:0000000000000148 .L0 
C:\Users\stapi\AppData\Local\Temp\ccL2g2h3.s:2167   .text.altcp_mbedtls_handle_rx_appldata:0000000000000148 .L0 
C:\Users\stapi\AppData\Local\Temp\ccL2g2h3.s:2169   .text.altcp_mbedtls_handle_rx_appldata:000000000000014a .L0 
C:\Users\stapi\AppData\Local\Temp\ccL2g2h3.s:2174   .text.altcp_mbedtls_handle_rx_appldata:0000000000000150 .L0 
C:\Users\stapi\AppData\Local\Temp\ccL2g2h3.s:2176   .text.altcp_mbedtls_handle_rx_appldata:0000000000000152 .L0 
C:\Users\stapi\AppData\Local\Temp\ccL2g2h3.s:2179   .text.altcp_mbedtls_handle_rx_appldata:0000000000000156 .L0 
C:\Users\stapi\AppData\Local\Temp\ccL2g2h3.s:2184   .text.altcp_mbedtls_handle_rx_appldata:0000000000000162 .L0 
C:\Users\stapi\AppData\Local\Temp\ccL2g2h3.s:2185   .text.altcp_mbedtls_handle_rx_appldata:0000000000000162 .L0 
C:\Users\stapi\AppData\Local\Temp\ccL2g2h3.s:2190   .text.altcp_mbedtls_handle_rx_appldata:0000000000000166 .L0 
C:\Users\stapi\AppData\Local\Temp\ccL2g2h3.s:2191   .text.altcp_mbedtls_handle_rx_appldata:0000000000000166 .L0 
C:\Users\stapi\AppData\Local\Temp\ccL2g2h3.s:2193   .text.altcp_mbedtls_handle_rx_appldata:000000000000016a .L0 
C:\Users\stapi\AppData\Local\Temp\ccL2g2h3.s:2194   .text.altcp_mbedtls_handle_rx_appldata:000000000000016a .L0 
C:\Users\stapi\AppData\Local\Temp\ccL2g2h3.s:2199   .text.altcp_mbedtls_handle_rx_appldata:000000000000016e .L0 
C:\Users\stapi\AppData\Local\Temp\ccL2g2h3.s:2200   .text.altcp_mbedtls_handle_rx_appldata:000000000000016e .L0 
C:\Users\stapi\AppData\Local\Temp\ccL2g2h3.s:2202   .text.altcp_mbedtls_handle_rx_appldata:0000000000000172 .L0 
C:\Users\stapi\AppData\Local\Temp\ccL2g2h3.s:2204   .text.altcp_mbedtls_handle_rx_appldata:0000000000000174 .L0 
C:\Users\stapi\AppData\Local\Temp\ccL2g2h3.s:2205   .text.altcp_mbedtls_handle_rx_appldata:0000000000000174 .L0 
C:\Users\stapi\AppData\Local\Temp\ccL2g2h3.s:2211   .text.altcp_mbedtls_handle_rx_appldata:0000000000000178 .L0 
C:\Users\stapi\AppData\Local\Temp\ccL2g2h3.s:2212   .text.altcp_mbedtls_handle_rx_appldata:0000000000000178 .L0 
C:\Users\stapi\AppData\Local\Temp\ccL2g2h3.s:2213   .text.altcp_mbedtls_handle_rx_appldata:0000000000000178 .L0 
C:\Users\stapi\AppData\Local\Temp\ccL2g2h3.s:2214   .text.altcp_mbedtls_handle_rx_appldata:0000000000000178 .L0 
C:\Users\stapi\AppData\Local\Temp\ccL2g2h3.s:2215   .text.altcp_mbedtls_handle_rx_appldata:0000000000000178 .L0 
C:\Users\stapi\AppData\Local\Temp\ccL2g2h3.s:2217   .text.altcp_mbedtls_handle_rx_appldata:000000000000017c .L0 
C:\Users\stapi\AppData\Local\Temp\ccL2g2h3.s:2218   .text.altcp_mbedtls_handle_rx_appldata:000000000000017c .L0 
C:\Users\stapi\AppData\Local\Temp\ccL2g2h3.s:2229   .text.altcp_mbedtls_handle_rx_appldata:00000000000001a0 .L0 
C:\Users\stapi\AppData\Local\Temp\ccL2g2h3.s:2230   .text.altcp_mbedtls_handle_rx_appldata:00000000000001a0 .L0 
C:\Users\stapi\AppData\Local\Temp\ccL2g2h3.s:2231   .text.altcp_mbedtls_handle_rx_appldata:00000000000001a0 .L0 
C:\Users\stapi\AppData\Local\Temp\ccL2g2h3.s:2237   .text.altcp_mbedtls_handle_rx_appldata:00000000000001a2 .L0 
C:\Users\stapi\AppData\Local\Temp\ccL2g2h3.s:2243   .text.altcp_mbedtls_handle_rx_appldata:00000000000001ae .L0 
C:\Users\stapi\AppData\Local\Temp\ccL2g2h3.s:2247   .text.altcp_mbedtls_handle_rx_appldata:00000000000001b8 .L0 
C:\Users\stapi\AppData\Local\Temp\ccL2g2h3.s:2253   .text.altcp_mbedtls_handle_rx_appldata:00000000000001ba .L0 
C:\Users\stapi\AppData\Local\Temp\ccL2g2h3.s:2254   .text.altcp_mbedtls_handle_rx_appldata:00000000000001ba .L0 
C:\Users\stapi\AppData\Local\Temp\ccL2g2h3.s:2255   .text.altcp_mbedtls_handle_rx_appldata:00000000000001ba .L0 
C:\Users\stapi\AppData\Local\Temp\ccL2g2h3.s:2256   .text.altcp_mbedtls_handle_rx_appldata:00000000000001ba .L0 
C:\Users\stapi\AppData\Local\Temp\ccL2g2h3.s:2257   .text.altcp_mbedtls_handle_rx_appldata:00000000000001ba .L0 
C:\Users\stapi\AppData\Local\Temp\ccL2g2h3.s:2258   .text.altcp_mbedtls_handle_rx_appldata:00000000000001ba .L0 
C:\Users\stapi\AppData\Local\Temp\ccL2g2h3.s:2259   .text.altcp_mbedtls_handle_rx_appldata:00000000000001ba .L0 
C:\Users\stapi\AppData\Local\Temp\ccL2g2h3.s:2260   .text.altcp_mbedtls_handle_rx_appldata:00000000000001ba .L0 
C:\Users\stapi\AppData\Local\Temp\ccL2g2h3.s:2263   .text.altcp_mbedtls_handle_rx_appldata:00000000000001be .L0 
C:\Users\stapi\AppData\Local\Temp\ccL2g2h3.s:2264   .text.altcp_mbedtls_handle_rx_appldata:00000000000001be .L0 
C:\Users\stapi\AppData\Local\Temp\ccL2g2h3.s:2266   .text.altcp_mbedtls_handle_rx_appldata:00000000000001c2 .L0 
C:\Users\stapi\AppData\Local\Temp\ccL2g2h3.s:2267   .text.altcp_mbedtls_handle_rx_appldata:00000000000001c2 .L0 
C:\Users\stapi\AppData\Local\Temp\ccL2g2h3.s:2269   .text.altcp_mbedtls_handle_rx_appldata:00000000000001c6 .L0 
C:\Users\stapi\AppData\Local\Temp\ccL2g2h3.s:2271   .text.altcp_mbedtls_handle_rx_appldata:00000000000001ca .L0 
C:\Users\stapi\AppData\Local\Temp\ccL2g2h3.s:2272   .text.altcp_mbedtls_handle_rx_appldata:00000000000001ca .L0 
C:\Users\stapi\AppData\Local\Temp\ccL2g2h3.s:2276   .text.altcp_mbedtls_handle_rx_appldata:00000000000001cc .L0 
C:\Users\stapi\AppData\Local\Temp\ccL2g2h3.s:2277   .text.altcp_mbedtls_handle_rx_appldata:00000000000001cc .L0 
C:\Users\stapi\AppData\Local\Temp\ccL2g2h3.s:2278   .text.altcp_mbedtls_handle_rx_appldata:00000000000001cc .L0 
C:\Users\stapi\AppData\Local\Temp\ccL2g2h3.s:2281   .text.altcp_mbedtls_handle_rx_appldata:00000000000001d4 .L0 
C:\Users\stapi\AppData\Local\Temp\ccL2g2h3.s:2284   .text.altcp_mbedtls_handle_rx_appldata:00000000000001d8 .L0 
C:\Users\stapi\AppData\Local\Temp\ccL2g2h3.s:2287   .text.altcp_mbedtls_handle_rx_appldata:00000000000001de .L0 
C:\Users\stapi\AppData\Local\Temp\ccL2g2h3.s:2288   .text.altcp_mbedtls_handle_rx_appldata:00000000000001de .L0 
C:\Users\stapi\AppData\Local\Temp\ccL2g2h3.s:2290   .text.altcp_mbedtls_handle_rx_appldata:00000000000001e2 .L0 
C:\Users\stapi\AppData\Local\Temp\ccL2g2h3.s:2292   .text.altcp_mbedtls_handle_rx_appldata:00000000000001e4 .L0 
C:\Users\stapi\AppData\Local\Temp\ccL2g2h3.s:2296   .text.altcp_mbedtls_handle_rx_appldata:00000000000001ec .L0 
C:\Users\stapi\AppData\Local\Temp\ccL2g2h3.s:2297   .text.altcp_mbedtls_handle_rx_appldata:00000000000001ec .L0 
C:\Users\stapi\AppData\Local\Temp\ccL2g2h3.s:2301   .text.altcp_mbedtls_handle_rx_appldata:00000000000001f2 .L0 
C:\Users\stapi\AppData\Local\Temp\ccL2g2h3.s:2302   .text.altcp_mbedtls_handle_rx_appldata:00000000000001f2 .L0 
C:\Users\stapi\AppData\Local\Temp\ccL2g2h3.s:2304   .text.altcp_mbedtls_handle_rx_appldata:00000000000001f4 .L0 
C:\Users\stapi\AppData\Local\Temp\ccL2g2h3.s:2305   .text.altcp_mbedtls_handle_rx_appldata:00000000000001f4 .L0 
C:\Users\stapi\AppData\Local\Temp\ccL2g2h3.s:2313   .text.altcp_mbedtls_handle_rx_appldata:00000000000001fa .L0 
C:\Users\stapi\AppData\Local\Temp\ccL2g2h3.s:2321   .text.altcp_mbedtls_handle_rx_appldata:00000000000001fc .L0 
C:\Users\stapi\AppData\Local\Temp\ccL2g2h3.s:2322   .text.altcp_mbedtls_handle_rx_appldata:0000000000000204 .L0 
C:\Users\stapi\AppData\Local\Temp\ccL2g2h3.s:2323   .text.altcp_mbedtls_handle_rx_appldata:0000000000000204 .L0 
C:\Users\stapi\AppData\Local\Temp\ccL2g2h3.s:2324   .text.altcp_mbedtls_handle_rx_appldata:0000000000000204 .L0 
C:\Users\stapi\AppData\Local\Temp\ccL2g2h3.s:2325   .text.altcp_mbedtls_handle_rx_appldata:0000000000000204 .L0 
C:\Users\stapi\AppData\Local\Temp\ccL2g2h3.s:2326   .text.altcp_mbedtls_handle_rx_appldata:0000000000000204 .L0 
C:\Users\stapi\AppData\Local\Temp\ccL2g2h3.s:2327   .text.altcp_mbedtls_handle_rx_appldata:0000000000000204 .L0 
C:\Users\stapi\AppData\Local\Temp\ccL2g2h3.s:2328   .text.altcp_mbedtls_handle_rx_appldata:0000000000000204 .L0 
C:\Users\stapi\AppData\Local\Temp\ccL2g2h3.s:2329   .text.altcp_mbedtls_handle_rx_appldata:0000000000000204 .L0 
C:\Users\stapi\AppData\Local\Temp\ccL2g2h3.s:2330   .text.altcp_mbedtls_handle_rx_appldata:0000000000000204 .L0 
C:\Users\stapi\AppData\Local\Temp\ccL2g2h3.s:2331   .text.altcp_mbedtls_handle_rx_appldata:0000000000000204 .L0 
C:\Users\stapi\AppData\Local\Temp\ccL2g2h3.s:2332   .text.altcp_mbedtls_handle_rx_appldata:0000000000000204 .L0 
C:\Users\stapi\AppData\Local\Temp\ccL2g2h3.s:2333   .text.altcp_mbedtls_handle_rx_appldata:0000000000000204 .L0 
C:\Users\stapi\AppData\Local\Temp\ccL2g2h3.s:2334   .text.altcp_mbedtls_handle_rx_appldata:0000000000000204 .L0 
C:\Users\stapi\AppData\Local\Temp\ccL2g2h3.s:2335   .text.altcp_mbedtls_handle_rx_appldata:0000000000000204 .L0 
C:\Users\stapi\AppData\Local\Temp\ccL2g2h3.s:2338   .text.altcp_mbedtls_handle_rx_appldata:0000000000000204 .L0 
C:\Users\stapi\AppData\Local\Temp\ccL2g2h3.s:2347   .text.altcp_mbedtls_handle_rx_appldata:0000000000000204 .L0 
C:\Users\stapi\AppData\Local\Temp\ccL2g2h3.s:2348   .text.altcp_mbedtls_handle_rx_appldata:0000000000000204 .L0 
C:\Users\stapi\AppData\Local\Temp\ccL2g2h3.s:2351   .text.altcp_mbedtls_handle_rx_appldata:000000000000020c .L0 
C:\Users\stapi\AppData\Local\Temp\ccL2g2h3.s:2352   .text.altcp_mbedtls_handle_rx_appldata:000000000000020c .L0 
C:\Users\stapi\AppData\Local\Temp\ccL2g2h3.s:2364   .text.altcp_mbedtls_handle_rx_appldata:0000000000000230 .L0 
C:\Users\stapi\AppData\Local\Temp\ccL2g2h3.s:2365   .text.altcp_mbedtls_handle_rx_appldata:0000000000000230 .L0 
C:\Users\stapi\AppData\Local\Temp\ccL2g2h3.s:2366   .text.altcp_mbedtls_handle_rx_appldata:0000000000000230 .L0 
C:\Users\stapi\AppData\Local\Temp\ccL2g2h3.s:2370   .text.altcp_mbedtls_handle_rx_appldata:0000000000000232 .L0 
C:\Users\stapi\AppData\Local\Temp\ccL2g2h3.s:2371   .text.altcp_mbedtls_handle_rx_appldata:0000000000000232 .L0 
C:\Users\stapi\AppData\Local\Temp\ccL2g2h3.s:2372   .text.altcp_mbedtls_handle_rx_appldata:0000000000000232 .L0 
C:\Users\stapi\AppData\Local\Temp\ccL2g2h3.s:2373   .text.altcp_mbedtls_handle_rx_appldata:0000000000000232 .L0 
C:\Users\stapi\AppData\Local\Temp\ccL2g2h3.s:2375   .text.altcp_mbedtls_handle_rx_appldata:0000000000000236 .L0 
C:\Users\stapi\AppData\Local\Temp\ccL2g2h3.s:2377   .text.altcp_mbedtls_handle_rx_appldata:000000000000023a .L0 
C:\Users\stapi\AppData\Local\Temp\ccL2g2h3.s:2378   .text.altcp_mbedtls_handle_rx_appldata:000000000000023a .L0 
C:\Users\stapi\AppData\Local\Temp\ccL2g2h3.s:2381   .text.altcp_mbedtls_handle_rx_appldata:0000000000000242 .L0 
C:\Users\stapi\AppData\Local\Temp\ccL2g2h3.s:2382   .text.altcp_mbedtls_handle_rx_appldata:0000000000000242 .L0 
C:\Users\stapi\AppData\Local\Temp\ccL2g2h3.s:2384   .text.altcp_mbedtls_handle_rx_appldata:0000000000000246 .L0 
C:\Users\stapi\AppData\Local\Temp\ccL2g2h3.s:2385   .text.altcp_mbedtls_handle_rx_appldata:0000000000000246 .L0 
C:\Users\stapi\AppData\Local\Temp\ccL2g2h3.s:2397   .text.altcp_mbedtls_handle_rx_appldata:000000000000026a .L0 
C:\Users\stapi\AppData\Local\Temp\ccL2g2h3.s:2398   .text.altcp_mbedtls_handle_rx_appldata:000000000000026a .L0 
C:\Users\stapi\AppData\Local\Temp\ccL2g2h3.s:2399   .text.altcp_mbedtls_handle_rx_appldata:000000000000026a .L0 
C:\Users\stapi\AppData\Local\Temp\ccL2g2h3.s:2404   .text.altcp_mbedtls_handle_rx_appldata:000000000000026c .L0 
C:\Users\stapi\AppData\Local\Temp\ccL2g2h3.s:2409   .text.altcp_mbedtls_handle_rx_appldata:0000000000000276 .L0 
C:\Users\stapi\AppData\Local\Temp\ccL2g2h3.s:2410   .text.altcp_mbedtls_handle_rx_appldata:0000000000000276 .L0 
C:\Users\stapi\AppData\Local\Temp\ccL2g2h3.s:2419   .text.altcp_mbedtls_handle_rx_appldata:000000000000027e .L0 
C:\Users\stapi\AppData\Local\Temp\ccL2g2h3.s:2420   .text.altcp_mbedtls_handle_rx_appldata:000000000000027e .L0 
C:\Users\stapi\AppData\Local\Temp\ccL2g2h3.s:2429   .text.altcp_mbedtls_handle_rx_appldata:0000000000000284 .L0 
C:\Users\stapi\AppData\Local\Temp\ccL2g2h3.s:2430   .text.altcp_mbedtls_handle_rx_appldata:0000000000000284 .L0 
C:\Users\stapi\AppData\Local\Temp\ccL2g2h3.s:2432   .text.altcp_mbedtls_handle_rx_appldata:0000000000000288 .L0 
C:\Users\stapi\AppData\Local\Temp\ccL2g2h3.s:2435   .text.altcp_mbedtls_handle_rx_appldata:0000000000000290 .L0 
C:\Users\stapi\AppData\Local\Temp\ccL2g2h3.s:2436   .text.altcp_mbedtls_handle_rx_appldata:0000000000000290 .L0 
C:\Users\stapi\AppData\Local\Temp\ccL2g2h3.s:2439   .text.altcp_mbedtls_handle_rx_appldata:0000000000000298 .L0 
C:\Users\stapi\AppData\Local\Temp\ccL2g2h3.s:2440   .text.altcp_mbedtls_handle_rx_appldata:0000000000000298 .L0 
C:\Users\stapi\AppData\Local\Temp\ccL2g2h3.s:2442   .text.altcp_mbedtls_handle_rx_appldata:000000000000029c .L0 
C:\Users\stapi\AppData\Local\Temp\ccL2g2h3.s:2444   .text.altcp_mbedtls_handle_rx_appldata:000000000000029e .L0 
C:\Users\stapi\AppData\Local\Temp\ccL2g2h3.s:2445   .text.altcp_mbedtls_handle_rx_appldata:000000000000029e .L0 
C:\Users\stapi\AppData\Local\Temp\ccL2g2h3.s:2454   .text.altcp_mbedtls_handle_rx_appldata:00000000000002aa .L0 
C:\Users\stapi\AppData\Local\Temp\ccL2g2h3.s:2455   .text.altcp_mbedtls_handle_rx_appldata:00000000000002aa .L0 
C:\Users\stapi\AppData\Local\Temp\ccL2g2h3.s:2457   .text.altcp_mbedtls_handle_rx_appldata:00000000000002ac .L0 
C:\Users\stapi\AppData\Local\Temp\ccL2g2h3.s:2458   .text.altcp_mbedtls_handle_rx_appldata:00000000000002ac .L0 
C:\Users\stapi\AppData\Local\Temp\ccL2g2h3.s:2468   .text.altcp_mbedtls_handle_rx_appldata:00000000000002b4 .L0 
C:\Users\stapi\AppData\Local\Temp\ccL2g2h3.s:2471   .text.altcp_mbedtls_handle_rx_appldata:00000000000002b8 .L0 
C:\Users\stapi\AppData\Local\Temp\ccL2g2h3.s:2477   .text.altcp_mbedtls_lower_poll:0000000000000000 altcp_mbedtls_lower_poll
C:\Users\stapi\AppData\Local\Temp\ccL2g2h3.s:2480   .text.altcp_mbedtls_lower_poll:0000000000000000 .L0 
C:\Users\stapi\AppData\Local\Temp\ccL2g2h3.s:2482   .text.altcp_mbedtls_lower_poll:0000000000000000 .L0 
C:\Users\stapi\AppData\Local\Temp\ccL2g2h3.s:2483   .text.altcp_mbedtls_lower_poll:0000000000000000 .L0 
C:\Users\stapi\AppData\Local\Temp\ccL2g2h3.s:2484   .text.altcp_mbedtls_lower_poll:0000000000000000 .L0 
C:\Users\stapi\AppData\Local\Temp\ccL2g2h3.s:2485   .text.altcp_mbedtls_lower_poll:0000000000000000 .L0 
C:\Users\stapi\AppData\Local\Temp\ccL2g2h3.s:2486   .text.altcp_mbedtls_lower_poll:0000000000000000 .L0 
C:\Users\stapi\AppData\Local\Temp\ccL2g2h3.s:2488   .text.altcp_mbedtls_lower_poll:0000000000000002 .L0 
C:\Users\stapi\AppData\Local\Temp\ccL2g2h3.s:2491   .text.altcp_mbedtls_lower_poll:0000000000000004 .L0 
C:\Users\stapi\AppData\Local\Temp\ccL2g2h3.s:2495   .text.altcp_mbedtls_lower_poll:0000000000000006 .L0 
C:\Users\stapi\AppData\Local\Temp\ccL2g2h3.s:2496   .text.altcp_mbedtls_lower_poll:000000000000000e .L0 
C:\Users\stapi\AppData\Local\Temp\ccL2g2h3.s:2497   .text.altcp_mbedtls_lower_poll:000000000000000e .L0 
C:\Users\stapi\AppData\Local\Temp\ccL2g2h3.s:2498   .text.altcp_mbedtls_lower_poll:000000000000000e .L0 
C:\Users\stapi\AppData\Local\Temp\ccL2g2h3.s:2500   .text.altcp_mbedtls_lower_poll:000000000000000e .L0 
C:\Users\stapi\AppData\Local\Temp\ccL2g2h3.s:2502   .text.altcp_mbedtls_lower_poll:0000000000000010 .L0 
C:\Users\stapi\AppData\Local\Temp\ccL2g2h3.s:2503   .text.altcp_mbedtls_lower_poll:0000000000000012 .L0 
C:\Users\stapi\AppData\Local\Temp\ccL2g2h3.s:2506   .text.altcp_mbedtls_lower_poll:0000000000000014 .L0 
C:\Users\stapi\AppData\Local\Temp\ccL2g2h3.s:2507   .text.altcp_mbedtls_lower_poll:0000000000000014 .L0 
C:\Users\stapi\AppData\Local\Temp\ccL2g2h3.s:2510   .text.altcp_mbedtls_lower_poll:0000000000000018 .L0 
C:\Users\stapi\AppData\Local\Temp\ccL2g2h3.s:2511   .text.altcp_mbedtls_lower_poll:0000000000000018 .L0 
C:\Users\stapi\AppData\Local\Temp\ccL2g2h3.s:2523   .text.altcp_mbedtls_lower_poll:000000000000003c .L0 
C:\Users\stapi\AppData\Local\Temp\ccL2g2h3.s:2524   .text.altcp_mbedtls_lower_poll:000000000000003c .L0 
C:\Users\stapi\AppData\Local\Temp\ccL2g2h3.s:2525   .text.altcp_mbedtls_lower_poll:000000000000003c .L0 
C:\Users\stapi\AppData\Local\Temp\ccL2g2h3.s:2531   .text.altcp_mbedtls_lower_poll:000000000000003e .L0 
C:\Users\stapi\AppData\Local\Temp\ccL2g2h3.s:2532   .text.altcp_mbedtls_lower_poll:000000000000003e .L0 
C:\Users\stapi\AppData\Local\Temp\ccL2g2h3.s:2533   .text.altcp_mbedtls_lower_poll:000000000000003e .L0 
C:\Users\stapi\AppData\Local\Temp\ccL2g2h3.s:2534   .text.altcp_mbedtls_lower_poll:000000000000003e .L0 
C:\Users\stapi\AppData\Local\Temp\ccL2g2h3.s:2537   .text.altcp_mbedtls_lower_poll:0000000000000040 .L0 
C:\Users\stapi\AppData\Local\Temp\ccL2g2h3.s:2540   .text.altcp_mbedtls_lower_poll:0000000000000042 .L0 
C:\Users\stapi\AppData\Local\Temp\ccL2g2h3.s:2541   .text.altcp_mbedtls_lower_poll:0000000000000042 .L0 
C:\Users\stapi\AppData\Local\Temp\ccL2g2h3.s:2543   .text.altcp_mbedtls_lower_poll:0000000000000044 .L0 
C:\Users\stapi\AppData\Local\Temp\ccL2g2h3.s:2547   .text.altcp_mbedtls_lower_poll:0000000000000046 .L0 
C:\Users\stapi\AppData\Local\Temp\ccL2g2h3.s:2551   .text.altcp_mbedtls_lower_poll:0000000000000048 .L0 
C:\Users\stapi\AppData\Local\Temp\ccL2g2h3.s:2552   .text.altcp_mbedtls_lower_poll:000000000000004a .L0 
C:\Users\stapi\AppData\Local\Temp\ccL2g2h3.s:2553   .text.altcp_mbedtls_lower_poll:000000000000004a .L0 
C:\Users\stapi\AppData\Local\Temp\ccL2g2h3.s:2555   .text.altcp_mbedtls_lower_poll:0000000000000052 .L0 
C:\Users\stapi\AppData\Local\Temp\ccL2g2h3.s:2556   .text.altcp_mbedtls_lower_poll:0000000000000052 .L0 
C:\Users\stapi\AppData\Local\Temp\ccL2g2h3.s:2557   .text.altcp_mbedtls_lower_poll:0000000000000052 .L0 
C:\Users\stapi\AppData\Local\Temp\ccL2g2h3.s:2560   .text.altcp_mbedtls_lower_poll:0000000000000052 .L0 
C:\Users\stapi\AppData\Local\Temp\ccL2g2h3.s:2565   .text.altcp_mbedtls_lower_poll:0000000000000052 .L0 
C:\Users\stapi\AppData\Local\Temp\ccL2g2h3.s:2566   .text.altcp_mbedtls_lower_poll:0000000000000052 .L0 
C:\Users\stapi\AppData\Local\Temp\ccL2g2h3.s:2571   .text.altcp_mbedtls_lower_poll:0000000000000060 .L0 
C:\Users\stapi\AppData\Local\Temp\ccL2g2h3.s:2572   .text.altcp_mbedtls_lower_poll:0000000000000060 .L0 
C:\Users\stapi\AppData\Local\Temp\ccL2g2h3.s:2577   .text.altcp_mbedtls_lower_poll:000000000000006c .L0 
C:\Users\stapi\AppData\Local\Temp\ccL2g2h3.s:2584   .text.altcp_mbedtls_lower_poll:0000000000000074 .L0 
C:\Users\stapi\AppData\Local\Temp\ccL2g2h3.s:2585   .text.altcp_mbedtls_lower_poll:0000000000000074 .L0 
C:\Users\stapi\AppData\Local\Temp\ccL2g2h3.s:2592   .text.altcp_mbedtls_lower_poll:000000000000007c .L0 
C:\Users\stapi\AppData\Local\Temp\ccL2g2h3.s:2598   .text.altcp_mbedtls_set_poll:0000000000000000 altcp_mbedtls_set_poll
C:\Users\stapi\AppData\Local\Temp\ccL2g2h3.s:2601   .text.altcp_mbedtls_set_poll:0000000000000000 .L0 
C:\Users\stapi\AppData\Local\Temp\ccL2g2h3.s:2603   .text.altcp_mbedtls_set_poll:0000000000000000 .L0 
C:\Users\stapi\AppData\Local\Temp\ccL2g2h3.s:2604   .text.altcp_mbedtls_set_poll:0000000000000000 .L0 
C:\Users\stapi\AppData\Local\Temp\ccL2g2h3.s:2605   .text.altcp_mbedtls_set_poll:0000000000000000 .L0 
C:\Users\stapi\AppData\Local\Temp\ccL2g2h3.s:2609   .text.altcp_mbedtls_set_poll:0000000000000002 .L0 
C:\Users\stapi\AppData\Local\Temp\ccL2g2h3.s:2614   .text.altcp_mbedtls_set_poll:0000000000000006 .L0 
C:\Users\stapi\AppData\Local\Temp\ccL2g2h3.s:2623   .text.altcp_mbedtls_set_poll:0000000000000018 .L0 
C:\Users\stapi\AppData\Local\Temp\ccL2g2h3.s:2629   .text.altcp_mbedtls_mss:0000000000000000 altcp_mbedtls_mss
C:\Users\stapi\AppData\Local\Temp\ccL2g2h3.s:2632   .text.altcp_mbedtls_mss:0000000000000000 .L0 
C:\Users\stapi\AppData\Local\Temp\ccL2g2h3.s:2634   .text.altcp_mbedtls_mss:0000000000000000 .L0 
C:\Users\stapi\AppData\Local\Temp\ccL2g2h3.s:2635   .text.altcp_mbedtls_mss:0000000000000000 .L0 
C:\Users\stapi\AppData\Local\Temp\ccL2g2h3.s:2636   .text.altcp_mbedtls_mss:0000000000000000 .L0 
C:\Users\stapi\AppData\Local\Temp\ccL2g2h3.s:2641   .text.altcp_mbedtls_mss:0000000000000002 .L0 
C:\Users\stapi\AppData\Local\Temp\ccL2g2h3.s:2642   .text.altcp_mbedtls_mss:0000000000000002 .L0 
C:\Users\stapi\AppData\Local\Temp\ccL2g2h3.s:2650   .text.altcp_mbedtls_mss:000000000000000c .L0 
C:\Users\stapi\AppData\Local\Temp\ccL2g2h3.s:2653   .text.altcp_mbedtls_mss:000000000000000e .L0 
C:\Users\stapi\AppData\Local\Temp\ccL2g2h3.s:2654   .text.altcp_mbedtls_mss:0000000000000010 .L0 
C:\Users\stapi\AppData\Local\Temp\ccL2g2h3.s:2667   .text.altcp_mbedtls_lower_recv_process:0000000000000000 altcp_mbedtls_lower_recv_process
C:\Users\stapi\AppData\Local\Temp\ccL2g2h3.s:2670   .text.altcp_mbedtls_lower_recv_process:0000000000000000 .L0 
C:\Users\stapi\AppData\Local\Temp\ccL2g2h3.s:2672   .text.altcp_mbedtls_lower_recv_process:0000000000000000 .L0 
C:\Users\stapi\AppData\Local\Temp\ccL2g2h3.s:2673   .text.altcp_mbedtls_lower_recv_process:0000000000000008 .L0 
C:\Users\stapi\AppData\Local\Temp\ccL2g2h3.s:2674   .text.altcp_mbedtls_lower_recv_process:0000000000000008 .L0 
C:\Users\stapi\AppData\Local\Temp\ccL2g2h3.s:2675   .text.altcp_mbedtls_lower_recv_process:0000000000000008 .L0 
C:\Users\stapi\AppData\Local\Temp\ccL2g2h3.s:2676   .text.altcp_mbedtls_lower_recv_process:0000000000000008 .L0 
C:\Users\stapi\AppData\Local\Temp\ccL2g2h3.s:2677   .text.altcp_mbedtls_lower_recv_process:0000000000000008 .L0 
C:\Users\stapi\AppData\Local\Temp\ccL2g2h3.s:2678   .text.altcp_mbedtls_lower_recv_process:0000000000000008 .L0 
C:\Users\stapi\AppData\Local\Temp\ccL2g2h3.s:2679   .text.altcp_mbedtls_lower_recv_process:0000000000000008 .L0 
C:\Users\stapi\AppData\Local\Temp\ccL2g2h3.s:2680   .text.altcp_mbedtls_lower_recv_process:0000000000000008 .L0 
C:\Users\stapi\AppData\Local\Temp\ccL2g2h3.s:2681   .text.altcp_mbedtls_lower_recv_process:0000000000000008 .L0 
C:\Users\stapi\AppData\Local\Temp\ccL2g2h3.s:2682   .text.altcp_mbedtls_lower_recv_process:0000000000000008 .L0 
C:\Users\stapi\AppData\Local\Temp\ccL2g2h3.s:2684   .text.altcp_mbedtls_lower_recv_process:0000000000000008 .L0 
C:\Users\stapi\AppData\Local\Temp\ccL2g2h3.s:2685   .text.altcp_mbedtls_lower_recv_process:0000000000000008 .L0 
C:\Users\stapi\AppData\Local\Temp\ccL2g2h3.s:2687   .text.altcp_mbedtls_lower_recv_process:000000000000000c .L0 
C:\Users\stapi\AppData\Local\Temp\ccL2g2h3.s:2690   .text.altcp_mbedtls_lower_recv_process:0000000000000010 .L0 
C:\Users\stapi\AppData\Local\Temp\ccL2g2h3.s:2695   .text.altcp_mbedtls_lower_recv_process:0000000000000014 .L0 
C:\Users\stapi\AppData\Local\Temp\ccL2g2h3.s:2696   .text.altcp_mbedtls_lower_recv_process:0000000000000014 .L0 
C:\Users\stapi\AppData\Local\Temp\ccL2g2h3.s:2702   .text.altcp_mbedtls_lower_recv_process:0000000000000020 .L0 
C:\Users\stapi\AppData\Local\Temp\ccL2g2h3.s:2703   .text.altcp_mbedtls_lower_recv_process:0000000000000028 .L0 
C:\Users\stapi\AppData\Local\Temp\ccL2g2h3.s:2704   .text.altcp_mbedtls_lower_recv_process:0000000000000028 .L0 
C:\Users\stapi\AppData\Local\Temp\ccL2g2h3.s:2705   .text.altcp_mbedtls_lower_recv_process:0000000000000028 .L0 
C:\Users\stapi\AppData\Local\Temp\ccL2g2h3.s:2706   .text.altcp_mbedtls_lower_recv_process:0000000000000028 .L0 
C:\Users\stapi\AppData\Local\Temp\ccL2g2h3.s:2707   .text.altcp_mbedtls_lower_recv_process:0000000000000028 .L0 
C:\Users\stapi\AppData\Local\Temp\ccL2g2h3.s:2708   .text.altcp_mbedtls_lower_recv_process:0000000000000028 .L0 
C:\Users\stapi\AppData\Local\Temp\ccL2g2h3.s:2709   .text.altcp_mbedtls_lower_recv_process:0000000000000028 .L0 
C:\Users\stapi\AppData\Local\Temp\ccL2g2h3.s:2710   .text.altcp_mbedtls_lower_recv_process:0000000000000028 .L0 
C:\Users\stapi\AppData\Local\Temp\ccL2g2h3.s:2711   .text.altcp_mbedtls_lower_recv_process:0000000000000028 .L0 
C:\Users\stapi\AppData\Local\Temp\ccL2g2h3.s:2712   .text.altcp_mbedtls_lower_recv_process:0000000000000028 .L0 
C:\Users\stapi\AppData\Local\Temp\ccL2g2h3.s:2713   .text.altcp_mbedtls_lower_recv_process:0000000000000028 .L0 
C:\Users\stapi\AppData\Local\Temp\ccL2g2h3.s:2715   .text.altcp_mbedtls_lower_recv_process:0000000000000028 .L0 
C:\Users\stapi\AppData\Local\Temp\ccL2g2h3.s:2718   .text.altcp_mbedtls_lower_recv_process:0000000000000028 .L0 
C:\Users\stapi\AppData\Local\Temp\ccL2g2h3.s:2719   .text.altcp_mbedtls_lower_recv_process:0000000000000028 .L0 
C:\Users\stapi\AppData\Local\Temp\ccL2g2h3.s:2725   .text.altcp_mbedtls_lower_recv_process:0000000000000036 .L0 
C:\Users\stapi\AppData\Local\Temp\ccL2g2h3.s:2730   .text.altcp_mbedtls_lower_recv_process:0000000000000040 .L0 
C:\Users\stapi\AppData\Local\Temp\ccL2g2h3.s:2731   .text.altcp_mbedtls_lower_recv_process:0000000000000040 .L0 
C:\Users\stapi\AppData\Local\Temp\ccL2g2h3.s:2733   .text.altcp_mbedtls_lower_recv_process:0000000000000044 .L0 
C:\Users\stapi\AppData\Local\Temp\ccL2g2h3.s:2735   .text.altcp_mbedtls_lower_recv_process:0000000000000048 .L0 
C:\Users\stapi\AppData\Local\Temp\ccL2g2h3.s:2741   .text.altcp_mbedtls_lower_recv_process:000000000000004c .L0 
C:\Users\stapi\AppData\Local\Temp\ccL2g2h3.s:2742   .text.altcp_mbedtls_lower_recv_process:000000000000004c .L0 
C:\Users\stapi\AppData\Local\Temp\ccL2g2h3.s:2748   .text.altcp_mbedtls_lower_recv_process:0000000000000056 .L0 
C:\Users\stapi\AppData\Local\Temp\ccL2g2h3.s:2753   .text.altcp_mbedtls_lower_recv_process:000000000000005a .L0 
C:\Users\stapi\AppData\Local\Temp\ccL2g2h3.s:2754   .text.altcp_mbedtls_lower_recv_process:000000000000005a .L0 
C:\Users\stapi\AppData\Local\Temp\ccL2g2h3.s:2757   .text.altcp_mbedtls_lower_recv_process:000000000000005e .L0 
C:\Users\stapi\AppData\Local\Temp\ccL2g2h3.s:2758   .text.altcp_mbedtls_lower_recv_process:000000000000005e .L0 
C:\Users\stapi\AppData\Local\Temp\ccL2g2h3.s:2763   .text.altcp_mbedtls_lower_recv_process:000000000000006c .L0 
C:\Users\stapi\AppData\Local\Temp\ccL2g2h3.s:2764   .text.altcp_mbedtls_lower_recv_process:000000000000006c .L0 
C:\Users\stapi\AppData\Local\Temp\ccL2g2h3.s:2768   .text.altcp_mbedtls_lower_recv_process:0000000000000072 .L0 
C:\Users\stapi\AppData\Local\Temp\ccL2g2h3.s:2776   .text.altcp_mbedtls_lower_recv_process:0000000000000076 .L0 
C:\Users\stapi\AppData\Local\Temp\ccL2g2h3.s:2778   .text.altcp_mbedtls_lower_recv_process:0000000000000078 .L0 
C:\Users\stapi\AppData\Local\Temp\ccL2g2h3.s:2783   .text.altcp_mbedtls_lower_recv_process:000000000000007e .L0 
C:\Users\stapi\AppData\Local\Temp\ccL2g2h3.s:2786   .text.altcp_mbedtls_lower_recv_process:0000000000000084 .L0 
C:\Users\stapi\AppData\Local\Temp\ccL2g2h3.s:2789   .text.altcp_mbedtls_lower_recv_process:0000000000000088 .L0 
C:\Users\stapi\AppData\Local\Temp\ccL2g2h3.s:2792   .text.altcp_mbedtls_lower_recv_process:0000000000000090 .L0 
C:\Users\stapi\AppData\Local\Temp\ccL2g2h3.s:2799   .text.altcp_mbedtls_lower_recv_process:0000000000000092 .L0 
C:\Users\stapi\AppData\Local\Temp\ccL2g2h3.s:2800   .text.altcp_mbedtls_lower_recv_process:0000000000000092 .L0 
C:\Users\stapi\AppData\Local\Temp\ccL2g2h3.s:2811   .text.altcp_mbedtls_lower_recv_process:00000000000000b6 .L0 
C:\Users\stapi\AppData\Local\Temp\ccL2g2h3.s:2812   .text.altcp_mbedtls_lower_recv_process:00000000000000b6 .L0 
C:\Users\stapi\AppData\Local\Temp\ccL2g2h3.s:2813   .text.altcp_mbedtls_lower_recv_process:00000000000000b6 .L0 
C:\Users\stapi\AppData\Local\Temp\ccL2g2h3.s:2816   .text.altcp_mbedtls_lower_recv_process:00000000000000b8 .L0 
C:\Users\stapi\AppData\Local\Temp\ccL2g2h3.s:2817   .text.altcp_mbedtls_lower_recv_process:00000000000000b8 .L0 
C:\Users\stapi\AppData\Local\Temp\ccL2g2h3.s:2819   .text.altcp_mbedtls_lower_recv_process:00000000000000bc .L0 
C:\Users\stapi\AppData\Local\Temp\ccL2g2h3.s:2820   .text.altcp_mbedtls_lower_recv_process:00000000000000bc .L0 
C:\Users\stapi\AppData\Local\Temp\ccL2g2h3.s:2821   .text.altcp_mbedtls_lower_recv_process:00000000000000bc .L0 
C:\Users\stapi\AppData\Local\Temp\ccL2g2h3.s:2823   .text.altcp_mbedtls_lower_recv_process:00000000000000be .L0 
C:\Users\stapi\AppData\Local\Temp\ccL2g2h3.s:2825   .text.altcp_mbedtls_lower_recv_process:00000000000000c0 .L0 
C:\Users\stapi\AppData\Local\Temp\ccL2g2h3.s:2831   .text.altcp_mbedtls_lower_recv_process:00000000000000c6 .L0 
C:\Users\stapi\AppData\Local\Temp\ccL2g2h3.s:2832   .text.altcp_mbedtls_lower_recv_process:00000000000000c6 .L0 
C:\Users\stapi\AppData\Local\Temp\ccL2g2h3.s:2836   .text.altcp_mbedtls_lower_recv_process:00000000000000d0 .L0 
C:\Users\stapi\AppData\Local\Temp\ccL2g2h3.s:2838   .text.altcp_mbedtls_lower_recv_process:00000000000000d2 .L0 
C:\Users\stapi\AppData\Local\Temp\ccL2g2h3.s:2844   .text.altcp_mbedtls_lower_recv_process:00000000000000de .L0 
C:\Users\stapi\AppData\Local\Temp\ccL2g2h3.s:2845   .text.altcp_mbedtls_lower_recv_process:00000000000000de .L0 
C:\Users\stapi\AppData\Local\Temp\ccL2g2h3.s:2848   .text.altcp_mbedtls_lower_recv_process:00000000000000e4 .L0 
C:\Users\stapi\AppData\Local\Temp\ccL2g2h3.s:2849   .text.altcp_mbedtls_lower_recv_process:00000000000000e4 .L0 
C:\Users\stapi\AppData\Local\Temp\ccL2g2h3.s:2860   .text.altcp_mbedtls_lower_recv_process:0000000000000108 .L0 
C:\Users\stapi\AppData\Local\Temp\ccL2g2h3.s:2861   .text.altcp_mbedtls_lower_recv_process:0000000000000108 .L0 
C:\Users\stapi\AppData\Local\Temp\ccL2g2h3.s:2862   .text.altcp_mbedtls_lower_recv_process:0000000000000108 .L0 
C:\Users\stapi\AppData\Local\Temp\ccL2g2h3.s:2865   .text.altcp_mbedtls_lower_recv_process:000000000000010a .L0 
C:\Users\stapi\AppData\Local\Temp\ccL2g2h3.s:2866   .text.altcp_mbedtls_lower_recv_process:000000000000010a .L0 
C:\Users\stapi\AppData\Local\Temp\ccL2g2h3.s:2867   .text.altcp_mbedtls_lower_recv_process:000000000000010a .L0 
C:\Users\stapi\AppData\Local\Temp\ccL2g2h3.s:2868   .text.altcp_mbedtls_lower_recv_process:000000000000010a .L0 
C:\Users\stapi\AppData\Local\Temp\ccL2g2h3.s:2871   .text.altcp_mbedtls_lower_recv_process:0000000000000110 .L0 
C:\Users\stapi\AppData\Local\Temp\ccL2g2h3.s:2872   .text.altcp_mbedtls_lower_recv_process:0000000000000110 .L0 
C:\Users\stapi\AppData\Local\Temp\ccL2g2h3.s:2883   .text.altcp_mbedtls_lower_recv_process:0000000000000134 .L0 
C:\Users\stapi\AppData\Local\Temp\ccL2g2h3.s:2884   .text.altcp_mbedtls_lower_recv_process:0000000000000134 .L0 
C:\Users\stapi\AppData\Local\Temp\ccL2g2h3.s:2885   .text.altcp_mbedtls_lower_recv_process:0000000000000134 .L0 
C:\Users\stapi\AppData\Local\Temp\ccL2g2h3.s:2888   .text.altcp_mbedtls_lower_recv_process:0000000000000136 .L0 
C:\Users\stapi\AppData\Local\Temp\ccL2g2h3.s:2889   .text.altcp_mbedtls_lower_recv_process:0000000000000136 .L0 
C:\Users\stapi\AppData\Local\Temp\ccL2g2h3.s:2890   .text.altcp_mbedtls_lower_recv_process:0000000000000136 .L0 
C:\Users\stapi\AppData\Local\Temp\ccL2g2h3.s:2891   .text.altcp_mbedtls_lower_recv_process:0000000000000136 .L0 
C:\Users\stapi\AppData\Local\Temp\ccL2g2h3.s:2895   .text.altcp_mbedtls_lower_recv_process:0000000000000142 .L0 
C:\Users\stapi\AppData\Local\Temp\ccL2g2h3.s:2896   .text.altcp_mbedtls_lower_recv_process:0000000000000142 .L0 
C:\Users\stapi\AppData\Local\Temp\ccL2g2h3.s:2898   .text.altcp_mbedtls_lower_recv_process:0000000000000144 .L0 
C:\Users\stapi\AppData\Local\Temp\ccL2g2h3.s:2901   .text.altcp_mbedtls_lower_recv_process:0000000000000146 .L0 
C:\Users\stapi\AppData\Local\Temp\ccL2g2h3.s:2902   .text.altcp_mbedtls_lower_recv_process:0000000000000146 .L0 
C:\Users\stapi\AppData\Local\Temp\ccL2g2h3.s:2908   .text.altcp_mbedtls_lower_recv_process:0000000000000150 .L0 
C:\Users\stapi\AppData\Local\Temp\ccL2g2h3.s:2909   .text.altcp_mbedtls_lower_recv_process:0000000000000150 .L0 
C:\Users\stapi\AppData\Local\Temp\ccL2g2h3.s:2910   .text.altcp_mbedtls_lower_recv_process:0000000000000150 .L0 
C:\Users\stapi\AppData\Local\Temp\ccL2g2h3.s:2916   .text.altcp_mbedtls_lower_recv_process:0000000000000158 .L0 
C:\Users\stapi\AppData\Local\Temp\ccL2g2h3.s:2917   .text.altcp_mbedtls_lower_recv_process:0000000000000158 .L0 
C:\Users\stapi\AppData\Local\Temp\ccL2g2h3.s:2921   .text.altcp_mbedtls_lower_recv_process:000000000000015c .L0 
C:\Users\stapi\AppData\Local\Temp\ccL2g2h3.s:2937   .text.altcp_mbedtls_lower_recv:0000000000000000 .L0 
C:\Users\stapi\AppData\Local\Temp\ccL2g2h3.s:2939   .text.altcp_mbedtls_lower_recv:0000000000000000 .L0 
C:\Users\stapi\AppData\Local\Temp\ccL2g2h3.s:2940   .text.altcp_mbedtls_lower_recv:0000000000000008 .L0 
C:\Users\stapi\AppData\Local\Temp\ccL2g2h3.s:2941   .text.altcp_mbedtls_lower_recv:0000000000000008 .L0 
C:\Users\stapi\AppData\Local\Temp\ccL2g2h3.s:2942   .text.altcp_mbedtls_lower_recv:0000000000000008 .L0 
C:\Users\stapi\AppData\Local\Temp\ccL2g2h3.s:2943   .text.altcp_mbedtls_lower_recv:0000000000000008 .L0 
C:\Users\stapi\AppData\Local\Temp\ccL2g2h3.s:2944   .text.altcp_mbedtls_lower_recv:0000000000000008 .L0 
C:\Users\stapi\AppData\Local\Temp\ccL2g2h3.s:2945   .text.altcp_mbedtls_lower_recv:0000000000000008 .L0 
C:\Users\stapi\AppData\Local\Temp\ccL2g2h3.s:2947   .text.altcp_mbedtls_lower_recv:0000000000000008 .L0 
C:\Users\stapi\AppData\Local\Temp\ccL2g2h3.s:2949   .text.altcp_mbedtls_lower_recv:0000000000000008 .L0 
C:\Users\stapi\AppData\Local\Temp\ccL2g2h3.s:2950   .text.altcp_mbedtls_lower_recv:0000000000000008 .L0 
C:\Users\stapi\AppData\Local\Temp\ccL2g2h3.s:2951   .text.altcp_mbedtls_lower_recv:0000000000000008 .L0 
C:\Users\stapi\AppData\Local\Temp\ccL2g2h3.s:2953   .text.altcp_mbedtls_lower_recv:000000000000000a .L0 
C:\Users\stapi\AppData\Local\Temp\ccL2g2h3.s:2954   .text.altcp_mbedtls_lower_recv:000000000000000a .L0 
C:\Users\stapi\AppData\Local\Temp\ccL2g2h3.s:2969   .text.altcp_mbedtls_lower_recv:000000000000002e .L0 
C:\Users\stapi\AppData\Local\Temp\ccL2g2h3.s:2970   .text.altcp_mbedtls_lower_recv:000000000000002e .L0 
C:\Users\stapi\AppData\Local\Temp\ccL2g2h3.s:2971   .text.altcp_mbedtls_lower_recv:000000000000002e .L0 
C:\Users\stapi\AppData\Local\Temp\ccL2g2h3.s:2979   .text.altcp_mbedtls_lower_recv:0000000000000036 .L0 
C:\Users\stapi\AppData\Local\Temp\ccL2g2h3.s:2980   .text.altcp_mbedtls_lower_recv:0000000000000036 .L0 
C:\Users\stapi\AppData\Local\Temp\ccL2g2h3.s:2981   .text.altcp_mbedtls_lower_recv:0000000000000036 .L0 
C:\Users\stapi\AppData\Local\Temp\ccL2g2h3.s:2982   .text.altcp_mbedtls_lower_recv:0000000000000036 .L0 
C:\Users\stapi\AppData\Local\Temp\ccL2g2h3.s:2983   .text.altcp_mbedtls_lower_recv:0000000000000036 .L0 
C:\Users\stapi\AppData\Local\Temp\ccL2g2h3.s:2987   .text.altcp_mbedtls_lower_recv:0000000000000038 .L0 
C:\Users\stapi\AppData\Local\Temp\ccL2g2h3.s:2988   .text.altcp_mbedtls_lower_recv:0000000000000038 .L0 
C:\Users\stapi\AppData\Local\Temp\ccL2g2h3.s:2990   .text.altcp_mbedtls_lower_recv:000000000000003a .L0 
C:\Users\stapi\AppData\Local\Temp\ccL2g2h3.s:2995   .text.altcp_mbedtls_lower_recv:0000000000000044 .L0 
C:\Users\stapi\AppData\Local\Temp\ccL2g2h3.s:2999   .text.altcp_mbedtls_lower_recv:000000000000004e .L0 
C:\Users\stapi\AppData\Local\Temp\ccL2g2h3.s:3000   .text.altcp_mbedtls_lower_recv:000000000000004e .L0 
C:\Users\stapi\AppData\Local\Temp\ccL2g2h3.s:3003   .text.altcp_mbedtls_lower_recv:0000000000000050 .L0 
C:\Users\stapi\AppData\Local\Temp\ccL2g2h3.s:3005   .text.altcp_mbedtls_lower_recv:000000000000005a .L0 
C:\Users\stapi\AppData\Local\Temp\ccL2g2h3.s:3006   .text.altcp_mbedtls_lower_recv:000000000000005a .L0 
C:\Users\stapi\AppData\Local\Temp\ccL2g2h3.s:3007   .text.altcp_mbedtls_lower_recv:000000000000005a .L0 
C:\Users\stapi\AppData\Local\Temp\ccL2g2h3.s:3008   .text.altcp_mbedtls_lower_recv:000000000000005a .L0 
C:\Users\stapi\AppData\Local\Temp\ccL2g2h3.s:3009   .text.altcp_mbedtls_lower_recv:000000000000005a .L0 
C:\Users\stapi\AppData\Local\Temp\ccL2g2h3.s:3010   .text.altcp_mbedtls_lower_recv:000000000000005a .L0 
C:\Users\stapi\AppData\Local\Temp\ccL2g2h3.s:3011   .text.altcp_mbedtls_lower_recv:000000000000005a .L0 
C:\Users\stapi\AppData\Local\Temp\ccL2g2h3.s:3014   .text.altcp_mbedtls_lower_recv:000000000000005a .L0 
C:\Users\stapi\AppData\Local\Temp\ccL2g2h3.s:3018   .text.altcp_mbedtls_lower_recv:000000000000005a .L0 
C:\Users\stapi\AppData\Local\Temp\ccL2g2h3.s:3019   .text.altcp_mbedtls_lower_recv:000000000000005a .L0 
C:\Users\stapi\AppData\Local\Temp\ccL2g2h3.s:3020   .text.altcp_mbedtls_lower_recv:000000000000005a .L0 
C:\Users\stapi\AppData\Local\Temp\ccL2g2h3.s:3023   .text.altcp_mbedtls_lower_recv:0000000000000060 .L0 
C:\Users\stapi\AppData\Local\Temp\ccL2g2h3.s:3024   .text.altcp_mbedtls_lower_recv:0000000000000060 .L0 
C:\Users\stapi\AppData\Local\Temp\ccL2g2h3.s:3038   .text.altcp_mbedtls_lower_recv:0000000000000084 .L0 
C:\Users\stapi\AppData\Local\Temp\ccL2g2h3.s:3039   .text.altcp_mbedtls_lower_recv:0000000000000084 .L0 
C:\Users\stapi\AppData\Local\Temp\ccL2g2h3.s:3040   .text.altcp_mbedtls_lower_recv:0000000000000084 .L0 
C:\Users\stapi\AppData\Local\Temp\ccL2g2h3.s:3044   .text.altcp_mbedtls_lower_recv:0000000000000086 .L0 
C:\Users\stapi\AppData\Local\Temp\ccL2g2h3.s:3046   .text.altcp_mbedtls_lower_recv:000000000000008a .L0 
C:\Users\stapi\AppData\Local\Temp\ccL2g2h3.s:3047   .text.altcp_mbedtls_lower_recv:000000000000008a .L0 
C:\Users\stapi\AppData\Local\Temp\ccL2g2h3.s:3048   .text.altcp_mbedtls_lower_recv:000000000000008a .L0 
C:\Users\stapi\AppData\Local\Temp\ccL2g2h3.s:3049   .text.altcp_mbedtls_lower_recv:000000000000008a .L0 
C:\Users\stapi\AppData\Local\Temp\ccL2g2h3.s:3051   .text.altcp_mbedtls_lower_recv:000000000000008e .L0 
C:\Users\stapi\AppData\Local\Temp\ccL2g2h3.s:3052   .text.altcp_mbedtls_lower_recv:000000000000008e .L0 
C:\Users\stapi\AppData\Local\Temp\ccL2g2h3.s:3054   .text.altcp_mbedtls_lower_recv:0000000000000090 .L0 
C:\Users\stapi\AppData\Local\Temp\ccL2g2h3.s:3056   .text.altcp_mbedtls_lower_recv:0000000000000094 .L0 
C:\Users\stapi\AppData\Local\Temp\ccL2g2h3.s:3059   .text.altcp_mbedtls_lower_recv:0000000000000098 .L0 
C:\Users\stapi\AppData\Local\Temp\ccL2g2h3.s:3060   .text.altcp_mbedtls_lower_recv:0000000000000098 .L0 
C:\Users\stapi\AppData\Local\Temp\ccL2g2h3.s:3064   .text.altcp_mbedtls_lower_recv:00000000000000a0 .L0 
C:\Users\stapi\AppData\Local\Temp\ccL2g2h3.s:3065   .text.altcp_mbedtls_lower_recv:00000000000000a0 .L0 
C:\Users\stapi\AppData\Local\Temp\ccL2g2h3.s:3068   .text.altcp_mbedtls_lower_recv:00000000000000a6 .L0 
C:\Users\stapi\AppData\Local\Temp\ccL2g2h3.s:3072   .text.altcp_mbedtls_lower_recv:00000000000000ac .L0 
C:\Users\stapi\AppData\Local\Temp\ccL2g2h3.s:3073   .text.altcp_mbedtls_lower_recv:00000000000000ac .L0 
C:\Users\stapi\AppData\Local\Temp\ccL2g2h3.s:3077   .text.altcp_mbedtls_lower_recv:00000000000000b4 .L0 
C:\Users\stapi\AppData\Local\Temp\ccL2g2h3.s:3082   .text.altcp_mbedtls_lower_recv:00000000000000c0 .L0 
C:\Users\stapi\AppData\Local\Temp\ccL2g2h3.s:3083   .text.altcp_mbedtls_lower_recv:00000000000000c0 .L0 
C:\Users\stapi\AppData\Local\Temp\ccL2g2h3.s:3087   .text.altcp_mbedtls_lower_recv:00000000000000c2 .L0 
C:\Users\stapi\AppData\Local\Temp\ccL2g2h3.s:3088   .text.altcp_mbedtls_lower_recv:00000000000000c2 .L0 
C:\Users\stapi\AppData\Local\Temp\ccL2g2h3.s:3092   .text.altcp_mbedtls_lower_recv:00000000000000ca .L0 
C:\Users\stapi\AppData\Local\Temp\ccL2g2h3.s:3093   .text.altcp_mbedtls_lower_recv:00000000000000ca .L0 
C:\Users\stapi\AppData\Local\Temp\ccL2g2h3.s:3095   .text.altcp_mbedtls_lower_recv:00000000000000cc .L0 
C:\Users\stapi\AppData\Local\Temp\ccL2g2h3.s:3097   .text.altcp_mbedtls_lower_recv:00000000000000ce .L0 
C:\Users\stapi\AppData\Local\Temp\ccL2g2h3.s:3098   .text.altcp_mbedtls_lower_recv:00000000000000ce .L0 
C:\Users\stapi\AppData\Local\Temp\ccL2g2h3.s:3104   .text.altcp_mbedtls_lower_recv:00000000000000d4 .L0 
C:\Users\stapi\AppData\Local\Temp\ccL2g2h3.s:3109   .text.altcp_mbedtls_lower_recv:00000000000000d8 .L0 
C:\Users\stapi\AppData\Local\Temp\ccL2g2h3.s:3110   .text.altcp_mbedtls_lower_recv:00000000000000d8 .L0 
C:\Users\stapi\AppData\Local\Temp\ccL2g2h3.s:3112   .text.altcp_mbedtls_lower_recv:00000000000000da .L0 
C:\Users\stapi\AppData\Local\Temp\ccL2g2h3.s:3114   .text.altcp_mbedtls_lower_recv:00000000000000dc .L0 
C:\Users\stapi\AppData\Local\Temp\ccL2g2h3.s:3120   .text.altcp_mbedtls_lower_recv:00000000000000e2 .L0 
C:\Users\stapi\AppData\Local\Temp\ccL2g2h3.s:3127   .text.altcp_mbedtls_lower_recv:00000000000000ee .L0 
C:\Users\stapi\AppData\Local\Temp\ccL2g2h3.s:3128   .text.altcp_mbedtls_lower_recv:00000000000000ee .L0 
C:\Users\stapi\AppData\Local\Temp\ccL2g2h3.s:3130   .text.altcp_mbedtls_lower_recv:00000000000000f2 .L0 
C:\Users\stapi\AppData\Local\Temp\ccL2g2h3.s:3132   .text.altcp_mbedtls_lower_recv:00000000000000f4 .L0 
C:\Users\stapi\AppData\Local\Temp\ccL2g2h3.s:3133   .text.altcp_mbedtls_lower_recv:00000000000000f4 .L0 
C:\Users\stapi\AppData\Local\Temp\ccL2g2h3.s:3137   .text.altcp_mbedtls_lower_recv:00000000000000f8 .L0 
C:\Users\stapi\AppData\Local\Temp\ccL2g2h3.s:3138   .text.altcp_mbedtls_lower_recv:00000000000000f8 .L0 
C:\Users\stapi\AppData\Local\Temp\ccL2g2h3.s:3146   .text.altcp_mbedtls_lower_recv:0000000000000106 .L0 
C:\Users\stapi\AppData\Local\Temp\ccL2g2h3.s:3147   .text.altcp_mbedtls_lower_recv:0000000000000106 .L0 
C:\Users\stapi\AppData\Local\Temp\ccL2g2h3.s:3153   .text.altcp_mbedtls_lower_recv:0000000000000116 .L0 
C:\Users\stapi\AppData\Local\Temp\ccL2g2h3.s:3154   .text.altcp_mbedtls_lower_recv:0000000000000116 .L0 
C:\Users\stapi\AppData\Local\Temp\ccL2g2h3.s:3168   .text.altcp_mbedtls_lower_recv:000000000000013a .L0 
C:\Users\stapi\AppData\Local\Temp\ccL2g2h3.s:3169   .text.altcp_mbedtls_lower_recv:000000000000013a .L0 
C:\Users\stapi\AppData\Local\Temp\ccL2g2h3.s:3170   .text.altcp_mbedtls_lower_recv:000000000000013a .L0 
C:\Users\stapi\AppData\Local\Temp\ccL2g2h3.s:3174   .text.altcp_mbedtls_lower_recv:000000000000013c .L0 
C:\Users\stapi\AppData\Local\Temp\ccL2g2h3.s:3175   .text.altcp_mbedtls_lower_recv:000000000000013c .L0 
C:\Users\stapi\AppData\Local\Temp\ccL2g2h3.s:3176   .text.altcp_mbedtls_lower_recv:000000000000013c .L0 
C:\Users\stapi\AppData\Local\Temp\ccL2g2h3.s:3181   .text.altcp_mbedtls_lower_recv:0000000000000146 .L0 
C:\Users\stapi\AppData\Local\Temp\ccL2g2h3.s:3190   .text.altcp_mbedtls_lower_connected:0000000000000000 .L0 
C:\Users\stapi\AppData\Local\Temp\ccL2g2h3.s:3192   .text.altcp_mbedtls_lower_connected:0000000000000000 .L0 
C:\Users\stapi\AppData\Local\Temp\ccL2g2h3.s:3193   .text.altcp_mbedtls_lower_connected:0000000000000000 .L0 
C:\Users\stapi\AppData\Local\Temp\ccL2g2h3.s:3194   .text.altcp_mbedtls_lower_connected:0000000000000000 .L0 
C:\Users\stapi\AppData\Local\Temp\ccL2g2h3.s:3195   .text.altcp_mbedtls_lower_connected:0000000000000000 .L0 
C:\Users\stapi\AppData\Local\Temp\ccL2g2h3.s:3196   .text.altcp_mbedtls_lower_connected:0000000000000000 .L0 
C:\Users\stapi\AppData\Local\Temp\ccL2g2h3.s:3199   .text.altcp_mbedtls_lower_connected:0000000000000004 .L0 
C:\Users\stapi\AppData\Local\Temp\ccL2g2h3.s:3202   .text.altcp_mbedtls_lower_connected:0000000000000006 .L0 
C:\Users\stapi\AppData\Local\Temp\ccL2g2h3.s:3204   .text.altcp_mbedtls_lower_connected:0000000000000008 .L0 
C:\Users\stapi\AppData\Local\Temp\ccL2g2h3.s:3205   .text.altcp_mbedtls_lower_connected:0000000000000010 .L0 
C:\Users\stapi\AppData\Local\Temp\ccL2g2h3.s:3206   .text.altcp_mbedtls_lower_connected:0000000000000010 .L0 
C:\Users\stapi\AppData\Local\Temp\ccL2g2h3.s:3208   .text.altcp_mbedtls_lower_connected:0000000000000010 .L0 
C:\Users\stapi\AppData\Local\Temp\ccL2g2h3.s:3209   .text.altcp_mbedtls_lower_connected:0000000000000010 .L0 
C:\Users\stapi\AppData\Local\Temp\ccL2g2h3.s:3212   .text.altcp_mbedtls_lower_connected:0000000000000016 .L0 
C:\Users\stapi\AppData\Local\Temp\ccL2g2h3.s:3213   .text.altcp_mbedtls_lower_connected:0000000000000016 .L0 
C:\Users\stapi\AppData\Local\Temp\ccL2g2h3.s:3226   .text.altcp_mbedtls_lower_connected:000000000000003a .L0 
C:\Users\stapi\AppData\Local\Temp\ccL2g2h3.s:3227   .text.altcp_mbedtls_lower_connected:000000000000003a .L0 
C:\Users\stapi\AppData\Local\Temp\ccL2g2h3.s:3228   .text.altcp_mbedtls_lower_connected:000000000000003a .L0 
C:\Users\stapi\AppData\Local\Temp\ccL2g2h3.s:3232   .text.altcp_mbedtls_lower_connected:000000000000003c .L0 
C:\Users\stapi\AppData\Local\Temp\ccL2g2h3.s:3233   .text.altcp_mbedtls_lower_connected:000000000000003c .L0 
C:\Users\stapi\AppData\Local\Temp\ccL2g2h3.s:3234   .text.altcp_mbedtls_lower_connected:000000000000003c .L0 
C:\Users\stapi\AppData\Local\Temp\ccL2g2h3.s:3235   .text.altcp_mbedtls_lower_connected:000000000000003c .L0 
C:\Users\stapi\AppData\Local\Temp\ccL2g2h3.s:3237   .text.altcp_mbedtls_lower_connected:000000000000003e .L0 
C:\Users\stapi\AppData\Local\Temp\ccL2g2h3.s:3238   .text.altcp_mbedtls_lower_connected:000000000000003e .L0 
C:\Users\stapi\AppData\Local\Temp\ccL2g2h3.s:3240   .text.altcp_mbedtls_lower_connected:0000000000000040 .L0 
C:\Users\stapi\AppData\Local\Temp\ccL2g2h3.s:3242   .text.altcp_mbedtls_lower_connected:0000000000000042 .L0 
C:\Users\stapi\AppData\Local\Temp\ccL2g2h3.s:3243   .text.altcp_mbedtls_lower_connected:0000000000000042 .L0 
C:\Users\stapi\AppData\Local\Temp\ccL2g2h3.s:3250   .text.altcp_mbedtls_lower_connected:0000000000000048 .L0 
C:\Users\stapi\AppData\Local\Temp\ccL2g2h3.s:3251   .text.altcp_mbedtls_lower_connected:0000000000000050 .L0 
C:\Users\stapi\AppData\Local\Temp\ccL2g2h3.s:3252   .text.altcp_mbedtls_lower_connected:0000000000000050 .L0 
C:\Users\stapi\AppData\Local\Temp\ccL2g2h3.s:3253   .text.altcp_mbedtls_lower_connected:0000000000000050 .L0 
C:\Users\stapi\AppData\Local\Temp\ccL2g2h3.s:3256   .text.altcp_mbedtls_lower_connected:0000000000000050 .L0 
C:\Users\stapi\AppData\Local\Temp\ccL2g2h3.s:3258   .text.altcp_mbedtls_lower_connected:0000000000000050 .L0 
C:\Users\stapi\AppData\Local\Temp\ccL2g2h3.s:3259   .text.altcp_mbedtls_lower_connected:0000000000000050 .L0 
C:\Users\stapi\AppData\Local\Temp\ccL2g2h3.s:3264   .text.altcp_mbedtls_lower_connected:000000000000005a .L0 
C:\Users\stapi\AppData\Local\Temp\ccL2g2h3.s:3265   .text.altcp_mbedtls_lower_connected:000000000000005a .L0 
C:\Users\stapi\AppData\Local\Temp\ccL2g2h3.s:3267   .text.altcp_mbedtls_lower_connected:000000000000005a .L0 
C:\Users\stapi\AppData\Local\Temp\ccL2g2h3.s:3270   .text.altcp_mbedtls_lower_connected:000000000000005c .L0 
C:\Users\stapi\AppData\Local\Temp\ccL2g2h3.s:3271   .text.altcp_mbedtls_lower_connected:000000000000005e .L0 
C:\Users\stapi\AppData\Local\Temp\ccL2g2h3.s:3278   .text.altcp_tls_wrap:0000000000000000 altcp_tls_wrap
C:\Users\stapi\AppData\Local\Temp\ccL2g2h3.s:3281   .text.altcp_tls_wrap:0000000000000000 .L0 
C:\Users\stapi\AppData\Local\Temp\ccL2g2h3.s:3283   .text.altcp_tls_wrap:0000000000000000 .L0 
C:\Users\stapi\AppData\Local\Temp\ccL2g2h3.s:3284   .text.altcp_tls_wrap:0000000000000008 .L0 
C:\Users\stapi\AppData\Local\Temp\ccL2g2h3.s:3285   .text.altcp_tls_wrap:0000000000000008 .L0 
C:\Users\stapi\AppData\Local\Temp\ccL2g2h3.s:3286   .text.altcp_tls_wrap:0000000000000008 .L0 
C:\Users\stapi\AppData\Local\Temp\ccL2g2h3.s:3287   .text.altcp_tls_wrap:0000000000000008 .L0 
C:\Users\stapi\AppData\Local\Temp\ccL2g2h3.s:3289   .text.altcp_tls_wrap:0000000000000008 .L0 
C:\Users\stapi\AppData\Local\Temp\ccL2g2h3.s:3290   .text.altcp_tls_wrap:0000000000000008 .L0 
C:\Users\stapi\AppData\Local\Temp\ccL2g2h3.s:3291   .text.altcp_tls_wrap:0000000000000008 .L0 
C:\Users\stapi\AppData\Local\Temp\ccL2g2h3.s:3292   .text.altcp_tls_wrap:000000000000000a .L0 
C:\Users\stapi\AppData\Local\Temp\ccL2g2h3.s:3294   .text.altcp_tls_wrap:000000000000000a .L0 
C:\Users\stapi\AppData\Local\Temp\ccL2g2h3.s:3298   .text.altcp_tls_wrap:000000000000000c .L0 
C:\Users\stapi\AppData\Local\Temp\ccL2g2h3.s:3299   .text.altcp_tls_wrap:000000000000000c .L0 
C:\Users\stapi\AppData\Local\Temp\ccL2g2h3.s:3302   .text.altcp_tls_wrap:000000000000000e .L0 
C:\Users\stapi\AppData\Local\Temp\ccL2g2h3.s:3304   .text.altcp_tls_wrap:0000000000000012 .L0 
C:\Users\stapi\AppData\Local\Temp\ccL2g2h3.s:3305   .text.altcp_tls_wrap:0000000000000012 .L0 
C:\Users\stapi\AppData\Local\Temp\ccL2g2h3.s:3307   .text.altcp_tls_wrap:000000000000001a .L0 
C:\Users\stapi\AppData\Local\Temp\ccL2g2h3.s:3308   .text.altcp_tls_wrap:000000000000001a .L0 
C:\Users\stapi\AppData\Local\Temp\ccL2g2h3.s:3309   .text.altcp_tls_wrap:000000000000001a .L0 
C:\Users\stapi\AppData\Local\Temp\ccL2g2h3.s:3310   .text.altcp_tls_wrap:000000000000001a .L0 
C:\Users\stapi\AppData\Local\Temp\ccL2g2h3.s:3313   .text.altcp_tls_wrap:000000000000001a .L0 
C:\Users\stapi\AppData\Local\Temp\ccL2g2h3.s:3317   .text.altcp_tls_wrap:000000000000001e .L0 
C:\Users\stapi\AppData\Local\Temp\ccL2g2h3.s:3318   .text.altcp_tls_wrap:000000000000001e .L0 
C:\Users\stapi\AppData\Local\Temp\ccL2g2h3.s:3323   .text.altcp_tls_wrap:0000000000000028 .L0 
C:\Users\stapi\AppData\Local\Temp\ccL2g2h3.s:3324   .text.altcp_tls_wrap:0000000000000028 .L0 
C:\Users\stapi\AppData\Local\Temp\ccL2g2h3.s:3326   .text.altcp_tls_wrap:000000000000002a .L0 
C:\Users\stapi\AppData\Local\Temp\ccL2g2h3.s:3327   .text.altcp_tls_wrap:000000000000002a .L0 
C:\Users\stapi\AppData\Local\Temp\ccL2g2h3.s:3333   .text.altcp_tls_wrap:0000000000000038 .L0 
C:\Users\stapi\AppData\Local\Temp\ccL2g2h3.s:3335   .text.altcp_tls_wrap:000000000000003a .L0 
C:\Users\stapi\AppData\Local\Temp\ccL2g2h3.s:3339   .text.altcp_tls_wrap:0000000000000046 .L0 
C:\Users\stapi\AppData\Local\Temp\ccL2g2h3.s:3346   .text.altcp_tls_context:0000000000000000 altcp_tls_context
C:\Users\stapi\AppData\Local\Temp\ccL2g2h3.s:3349   .text.altcp_tls_context:0000000000000000 .L0 
C:\Users\stapi\AppData\Local\Temp\ccL2g2h3.s:3351   .text.altcp_tls_context:0000000000000000 .L0 
C:\Users\stapi\AppData\Local\Temp\ccL2g2h3.s:3352   .text.altcp_tls_context:0000000000000000 .L0 
C:\Users\stapi\AppData\Local\Temp\ccL2g2h3.s:3353   .text.altcp_tls_context:0000000000000000 .L0 
C:\Users\stapi\AppData\Local\Temp\ccL2g2h3.s:3355   .text.altcp_tls_context:0000000000000002 .L0 
C:\Users\stapi\AppData\Local\Temp\ccL2g2h3.s:3358   .text.altcp_tls_context:0000000000000004 .L0 
C:\Users\stapi\AppData\Local\Temp\ccL2g2h3.s:3362   .text.altcp_tls_context:0000000000000006 .L0 
C:\Users\stapi\AppData\Local\Temp\ccL2g2h3.s:3363   .text.altcp_tls_context:0000000000000006 .L0 
C:\Users\stapi\AppData\Local\Temp\ccL2g2h3.s:3364   .text.altcp_tls_context:0000000000000006 .L0 
C:\Users\stapi\AppData\Local\Temp\ccL2g2h3.s:3369   .text.altcp_tls_context:0000000000000008 .L0 
C:\Users\stapi\AppData\Local\Temp\ccL2g2h3.s:3370   .text.altcp_tls_context:000000000000000a .L0 
C:\Users\stapi\AppData\Local\Temp\ccL2g2h3.s:3377   .text.altcp_tls_create_config_server_privkey_cert:0000000000000000 altcp_tls_create_config_server_privkey_cert
C:\Users\stapi\AppData\Local\Temp\ccL2g2h3.s:3380   .text.altcp_tls_create_config_server_privkey_cert:0000000000000000 .L0 
C:\Users\stapi\AppData\Local\Temp\ccL2g2h3.s:3382   .text.altcp_tls_create_config_server_privkey_cert:0000000000000000 .L0 
C:\Users\stapi\AppData\Local\Temp\ccL2g2h3.s:3383   .text.altcp_tls_create_config_server_privkey_cert:0000000000000008 .L0 
C:\Users\stapi\AppData\Local\Temp\ccL2g2h3.s:3384   .text.altcp_tls_create_config_server_privkey_cert:0000000000000008 .L0 
C:\Users\stapi\AppData\Local\Temp\ccL2g2h3.s:3385   .text.altcp_tls_create_config_server_privkey_cert:0000000000000008 .L0 
C:\Users\stapi\AppData\Local\Temp\ccL2g2h3.s:3386   .text.altcp_tls_create_config_server_privkey_cert:0000000000000008 .L0 
C:\Users\stapi\AppData\Local\Temp\ccL2g2h3.s:3387   .text.altcp_tls_create_config_server_privkey_cert:0000000000000008 .L0 
C:\Users\stapi\AppData\Local\Temp\ccL2g2h3.s:3388   .text.altcp_tls_create_config_server_privkey_cert:0000000000000008 .L0 
C:\Users\stapi\AppData\Local\Temp\ccL2g2h3.s:3389   .text.altcp_tls_create_config_server_privkey_cert:0000000000000008 .L0 
C:\Users\stapi\AppData\Local\Temp\ccL2g2h3.s:3390   .text.altcp_tls_create_config_server_privkey_cert:0000000000000008 .L0 
C:\Users\stapi\AppData\Local\Temp\ccL2g2h3.s:3391   .text.altcp_tls_create_config_server_privkey_cert:0000000000000008 .L0 
C:\Users\stapi\AppData\Local\Temp\ccL2g2h3.s:3392   .text.altcp_tls_create_config_server_privkey_cert:0000000000000008 .L0 
C:\Users\stapi\AppData\Local\Temp\ccL2g2h3.s:3393   .text.altcp_tls_create_config_server_privkey_cert:0000000000000008 .L0 
C:\Users\stapi\AppData\Local\Temp\ccL2g2h3.s:3395   .text.altcp_tls_create_config_server_privkey_cert:0000000000000008 .L0 
C:\Users\stapi\AppData\Local\Temp\ccL2g2h3.s:3396   .text.altcp_tls_create_config_server_privkey_cert:0000000000000008 .L0 
C:\Users\stapi\AppData\Local\Temp\ccL2g2h3.s:3397   .text.altcp_tls_create_config_server_privkey_cert:0000000000000008 .L0 
C:\Users\stapi\AppData\Local\Temp\ccL2g2h3.s:3398   .text.altcp_tls_create_config_server_privkey_cert:0000000000000008 .L0 
C:\Users\stapi\AppData\Local\Temp\ccL2g2h3.s:3399   .text.altcp_tls_create_config_server_privkey_cert:0000000000000008 .L0 
C:\Users\stapi\AppData\Local\Temp\ccL2g2h3.s:3404   .text.altcp_tls_create_config_server_privkey_cert:0000000000000010 .L0 
C:\Users\stapi\AppData\Local\Temp\ccL2g2h3.s:3413   .text.altcp_tls_create_config_server_privkey_cert:0000000000000018 .L0 
C:\Users\stapi\AppData\Local\Temp\ccL2g2h3.s:3416   .text.altcp_tls_create_config_server_privkey_cert:000000000000001c .L0 
C:\Users\stapi\AppData\Local\Temp\ccL2g2h3.s:3421   .text.altcp_tls_create_config_server_privkey_cert:0000000000000026 .L0 
C:\Users\stapi\AppData\Local\Temp\ccL2g2h3.s:3422   .text.altcp_tls_create_config_server_privkey_cert:0000000000000026 .L0 
C:\Users\stapi\AppData\Local\Temp\ccL2g2h3.s:3424   .text.altcp_tls_create_config_server_privkey_cert:0000000000000028 .L0 
C:\Users\stapi\AppData\Local\Temp\ccL2g2h3.s:3425   .text.altcp_tls_create_config_server_privkey_cert:0000000000000028 .L0 
C:\Users\stapi\AppData\Local\Temp\ccL2g2h3.s:3428   .text.altcp_tls_create_config_server_privkey_cert:000000000000002c .L0 
C:\Users\stapi\AppData\Local\Temp\ccL2g2h3.s:3432   .text.altcp_tls_create_config_server_privkey_cert:0000000000000036 .L0 
C:\Users\stapi\AppData\Local\Temp\ccL2g2h3.s:3433   .text.altcp_tls_create_config_server_privkey_cert:0000000000000036 .L0 
C:\Users\stapi\AppData\Local\Temp\ccL2g2h3.s:3436   .text.altcp_tls_create_config_server_privkey_cert:000000000000003a .L0 
C:\Users\stapi\AppData\Local\Temp\ccL2g2h3.s:3440   .text.altcp_tls_create_config_server_privkey_cert:0000000000000044 .L0 
C:\Users\stapi\AppData\Local\Temp\ccL2g2h3.s:3441   .text.altcp_tls_create_config_server_privkey_cert:0000000000000044 .L0 
C:\Users\stapi\AppData\Local\Temp\ccL2g2h3.s:3447   .text.altcp_tls_create_config_server_privkey_cert:0000000000000052 .L0 
C:\Users\stapi\AppData\Local\Temp\ccL2g2h3.s:3448   .text.altcp_tls_create_config_server_privkey_cert:0000000000000052 .L0 
C:\Users\stapi\AppData\Local\Temp\ccL2g2h3.s:3452   .text.altcp_tls_create_config_server_privkey_cert:0000000000000054 .L0 
C:\Users\stapi\AppData\Local\Temp\ccL2g2h3.s:3456   .text.altcp_tls_create_config_server_privkey_cert:000000000000005e .L0 
C:\Users\stapi\AppData\Local\Temp\ccL2g2h3.s:3457   .text.altcp_tls_create_config_server_privkey_cert:000000000000005e .L0 
C:\Users\stapi\AppData\Local\Temp\ccL2g2h3.s:3461   .text.altcp_tls_create_config_server_privkey_cert:0000000000000060 .L0 
C:\Users\stapi\AppData\Local\Temp\ccL2g2h3.s:3463   .text.altcp_tls_create_config_server_privkey_cert:000000000000006a .L0 
C:\Users\stapi\AppData\Local\Temp\ccL2g2h3.s:3464   .text.altcp_tls_create_config_server_privkey_cert:000000000000006a .L0 
C:\Users\stapi\AppData\Local\Temp\ccL2g2h3.s:3465   .text.altcp_tls_create_config_server_privkey_cert:000000000000006a .L0 
C:\Users\stapi\AppData\Local\Temp\ccL2g2h3.s:3466   .text.altcp_tls_create_config_server_privkey_cert:000000000000006a .L0 
C:\Users\stapi\AppData\Local\Temp\ccL2g2h3.s:3467   .text.altcp_tls_create_config_server_privkey_cert:000000000000006a .L0 
C:\Users\stapi\AppData\Local\Temp\ccL2g2h3.s:3468   .text.altcp_tls_create_config_server_privkey_cert:000000000000006a .L0 
C:\Users\stapi\AppData\Local\Temp\ccL2g2h3.s:3469   .text.altcp_tls_create_config_server_privkey_cert:000000000000006a .L0 
C:\Users\stapi\AppData\Local\Temp\ccL2g2h3.s:3470   .text.altcp_tls_create_config_server_privkey_cert:000000000000006a .L0 
C:\Users\stapi\AppData\Local\Temp\ccL2g2h3.s:3471   .text.altcp_tls_create_config_server_privkey_cert:000000000000006a .L0 
C:\Users\stapi\AppData\Local\Temp\ccL2g2h3.s:3472   .text.altcp_tls_create_config_server_privkey_cert:000000000000006a .L0 
C:\Users\stapi\AppData\Local\Temp\ccL2g2h3.s:3473   .text.altcp_tls_create_config_server_privkey_cert:000000000000006a .L0 
C:\Users\stapi\AppData\Local\Temp\ccL2g2h3.s:3474   .text.altcp_tls_create_config_server_privkey_cert:000000000000006a .L0 
C:\Users\stapi\AppData\Local\Temp\ccL2g2h3.s:3477   .text.altcp_tls_create_config_server_privkey_cert:000000000000006a .L0 
C:\Users\stapi\AppData\Local\Temp\ccL2g2h3.s:3479   .text.altcp_tls_create_config_server_privkey_cert:000000000000006a .L0 
C:\Users\stapi\AppData\Local\Temp\ccL2g2h3.s:3480   .text.altcp_tls_create_config_server_privkey_cert:000000000000006a .L0 
C:\Users\stapi\AppData\Local\Temp\ccL2g2h3.s:3489   .text.altcp_tls_create_config_server_privkey_cert:000000000000007c .L0 
C:\Users\stapi\AppData\Local\Temp\ccL2g2h3.s:3490   .text.altcp_tls_create_config_server_privkey_cert:000000000000007c .L0 
C:\Users\stapi\AppData\Local\Temp\ccL2g2h3.s:3492   .text.altcp_tls_create_config_server_privkey_cert:000000000000007e .L0 
C:\Users\stapi\AppData\Local\Temp\ccL2g2h3.s:3493   .text.altcp_tls_create_config_server_privkey_cert:000000000000007e .L0 
C:\Users\stapi\AppData\Local\Temp\ccL2g2h3.s:3498   .text.altcp_tls_create_config_server_privkey_cert:0000000000000088 .L0 
C:\Users\stapi\AppData\Local\Temp\ccL2g2h3.s:3502   .text.altcp_tls_create_config_server_privkey_cert:000000000000008a .L0 
C:\Users\stapi\AppData\Local\Temp\ccL2g2h3.s:3509   .text.altcp_tls_create_config_server_privkey_cert:000000000000009a .L0 
C:\Users\stapi\AppData\Local\Temp\ccL2g2h3.s:3510   .text.altcp_tls_create_config_server_privkey_cert:000000000000009a .L0 
C:\Users\stapi\AppData\Local\Temp\ccL2g2h3.s:3516   .text.altcp_tls_create_config_server_privkey_cert:00000000000000a8 .L0 
C:\Users\stapi\AppData\Local\Temp\ccL2g2h3.s:3517   .text.altcp_tls_create_config_server_privkey_cert:00000000000000a8 .L0 
C:\Users\stapi\AppData\Local\Temp\ccL2g2h3.s:3519   .text.altcp_tls_create_config_server_privkey_cert:00000000000000aa .L0 
C:\Users\stapi\AppData\Local\Temp\ccL2g2h3.s:3520   .text.altcp_tls_create_config_server_privkey_cert:00000000000000aa .L0 
C:\Users\stapi\AppData\Local\Temp\ccL2g2h3.s:3525   .text.altcp_tls_create_config_server_privkey_cert:00000000000000b4 .L0 
C:\Users\stapi\AppData\Local\Temp\ccL2g2h3.s:3529   .text.altcp_tls_create_config_server_privkey_cert:00000000000000c0 .L0 
C:\Users\stapi\AppData\Local\Temp\ccL2g2h3.s:3536   .text.altcp_tls_create_config_client:0000000000000000 altcp_tls_create_config_client
C:\Users\stapi\AppData\Local\Temp\ccL2g2h3.s:3539   .text.altcp_tls_create_config_client:0000000000000000 .L0 
C:\Users\stapi\AppData\Local\Temp\ccL2g2h3.s:3541   .text.altcp_tls_create_config_client:0000000000000000 .L0 
C:\Users\stapi\AppData\Local\Temp\ccL2g2h3.s:3542   .text.altcp_tls_create_config_client:0000000000000000 .L0 
C:\Users\stapi\AppData\Local\Temp\ccL2g2h3.s:3543   .text.altcp_tls_create_config_client:0000000000000000 .L0 
C:\Users\stapi\AppData\Local\Temp\ccL2g2h3.s:3546   .text.altcp_tls_create_config_client:000000000000000a .L0 
C:\Users\stapi\AppData\Local\Temp\ccL2g2h3.s:3553   .text.altcp_tls_create_config_client_psk:0000000000000000 altcp_tls_create_config_client_psk
C:\Users\stapi\AppData\Local\Temp\ccL2g2h3.s:3556   .text.altcp_tls_create_config_client_psk:0000000000000000 .L0 
C:\Users\stapi\AppData\Local\Temp\ccL2g2h3.s:3558   .text.altcp_tls_create_config_client_psk:0000000000000000 .L0 
C:\Users\stapi\AppData\Local\Temp\ccL2g2h3.s:3559   .text.altcp_tls_create_config_client_psk:0000000000000008 .L0 
C:\Users\stapi\AppData\Local\Temp\ccL2g2h3.s:3560   .text.altcp_tls_create_config_client_psk:0000000000000008 .L0 
C:\Users\stapi\AppData\Local\Temp\ccL2g2h3.s:3561   .text.altcp_tls_create_config_client_psk:0000000000000008 .L0 
C:\Users\stapi\AppData\Local\Temp\ccL2g2h3.s:3562   .text.altcp_tls_create_config_client_psk:0000000000000008 .L0 
C:\Users\stapi\AppData\Local\Temp\ccL2g2h3.s:3563   .text.altcp_tls_create_config_client_psk:0000000000000008 .L0 
C:\Users\stapi\AppData\Local\Temp\ccL2g2h3.s:3564   .text.altcp_tls_create_config_client_psk:0000000000000008 .L0 
C:\Users\stapi\AppData\Local\Temp\ccL2g2h3.s:3566   .text.altcp_tls_create_config_client_psk:0000000000000008 .L0 
C:\Users\stapi\AppData\Local\Temp\ccL2g2h3.s:3567   .text.altcp_tls_create_config_client_psk:0000000000000008 .L0 
C:\Users\stapi\AppData\Local\Temp\ccL2g2h3.s:3568   .text.altcp_tls_create_config_client_psk:0000000000000008 .L0 
C:\Users\stapi\AppData\Local\Temp\ccL2g2h3.s:3569   .text.altcp_tls_create_config_client_psk:000000000000000a .L0 
C:\Users\stapi\AppData\Local\Temp\ccL2g2h3.s:3571   .text.altcp_tls_create_config_client_psk:000000000000000a .L0 
C:\Users\stapi\AppData\Local\Temp\ccL2g2h3.s:3576   .text.altcp_tls_create_config_client_psk:0000000000000012 .L0 
C:\Users\stapi\AppData\Local\Temp\ccL2g2h3.s:3589   .text.altcp_tls_create_config_client_psk:0000000000000024 .L0 
C:\Users\stapi\AppData\Local\Temp\ccL2g2h3.s:3590   .text.altcp_tls_create_config_client_psk:0000000000000024 .L0 
C:\Users\stapi\AppData\Local\Temp\ccL2g2h3.s:3592   .text.altcp_tls_create_config_client_psk:0000000000000026 .L0 
C:\Users\stapi\AppData\Local\Temp\ccL2g2h3.s:3593   .text.altcp_tls_create_config_client_psk:0000000000000026 .L0 
C:\Users\stapi\AppData\Local\Temp\ccL2g2h3.s:3595   .text.altcp_tls_create_config_client_psk:0000000000000028 .L0 
C:\Users\stapi\AppData\Local\Temp\ccL2g2h3.s:3597   .text.altcp_tls_create_config_client_psk:000000000000002c .L0 
C:\Users\stapi\AppData\Local\Temp\ccL2g2h3.s:3598   .text.altcp_tls_create_config_client_psk:000000000000002c .L0 
C:\Users\stapi\AppData\Local\Temp\ccL2g2h3.s:3605   .text.altcp_tls_create_config_client_psk:000000000000003c .L0 
C:\Users\stapi\AppData\Local\Temp\ccL2g2h3.s:3606   .text.altcp_tls_create_config_client_psk:000000000000003c .L0 
C:\Users\stapi\AppData\Local\Temp\ccL2g2h3.s:3608   .text.altcp_tls_create_config_client_psk:000000000000003e .L0 
C:\Users\stapi\AppData\Local\Temp\ccL2g2h3.s:3609   .text.altcp_tls_create_config_client_psk:000000000000003e .L0 
C:\Users\stapi\AppData\Local\Temp\ccL2g2h3.s:3614   .text.altcp_tls_create_config_client_psk:0000000000000048 .L0 
C:\Users\stapi\AppData\Local\Temp\ccL2g2h3.s:3615   .text.altcp_tls_create_config_client_psk:0000000000000048 .L0 
C:\Users\stapi\AppData\Local\Temp\ccL2g2h3.s:3619   .text.altcp_tls_create_config_client_psk:000000000000004a .L0 
C:\Users\stapi\AppData\Local\Temp\ccL2g2h3.s:3621   .text.altcp_tls_create_config_client_psk:000000000000004e .L0 
C:\Users\stapi\AppData\Local\Temp\ccL2g2h3.s:3624   .text.altcp_tls_create_config_client_psk:0000000000000056 .L0 
C:\Users\stapi\AppData\Local\Temp\ccL2g2h3.s:3625   .text.altcp_tls_create_config_client_psk:0000000000000056 .L0 
C:\Users\stapi\AppData\Local\Temp\ccL2g2h3.s:3626   .text.altcp_tls_create_config_client_psk:0000000000000056 .L0 
C:\Users\stapi\AppData\Local\Temp\ccL2g2h3.s:3627   .text.altcp_tls_create_config_client_psk:0000000000000056 .L0 
C:\Users\stapi\AppData\Local\Temp\ccL2g2h3.s:3628   .text.altcp_tls_create_config_client_psk:0000000000000056 .L0 
C:\Users\stapi\AppData\Local\Temp\ccL2g2h3.s:3629   .text.altcp_tls_create_config_client_psk:0000000000000056 .L0 
C:\Users\stapi\AppData\Local\Temp\ccL2g2h3.s:3630   .text.altcp_tls_create_config_client_psk:0000000000000056 .L0 
C:\Users\stapi\AppData\Local\Temp\ccL2g2h3.s:3637   .text.altcp_tls_create_config_client_2wayauth:0000000000000000 altcp_tls_create_config_client_2wayauth
C:\Users\stapi\AppData\Local\Temp\ccL2g2h3.s:3640   .text.altcp_tls_create_config_client_2wayauth:0000000000000000 .L0 
C:\Users\stapi\AppData\Local\Temp\ccL2g2h3.s:3642   .text.altcp_tls_create_config_client_2wayauth:0000000000000000 .L0 
C:\Users\stapi\AppData\Local\Temp\ccL2g2h3.s:3643   .text.altcp_tls_create_config_client_2wayauth:0000000000000008 .L0 
C:\Users\stapi\AppData\Local\Temp\ccL2g2h3.s:3644   .text.altcp_tls_create_config_client_2wayauth:0000000000000008 .L0 
C:\Users\stapi\AppData\Local\Temp\ccL2g2h3.s:3645   .text.altcp_tls_create_config_client_2wayauth:0000000000000008 .L0 
C:\Users\stapi\AppData\Local\Temp\ccL2g2h3.s:3646   .text.altcp_tls_create_config_client_2wayauth:0000000000000008 .L0 
C:\Users\stapi\AppData\Local\Temp\ccL2g2h3.s:3647   .text.altcp_tls_create_config_client_2wayauth:0000000000000008 .L0 
C:\Users\stapi\AppData\Local\Temp\ccL2g2h3.s:3648   .text.altcp_tls_create_config_client_2wayauth:0000000000000008 .L0 
C:\Users\stapi\AppData\Local\Temp\ccL2g2h3.s:3649   .text.altcp_tls_create_config_client_2wayauth:0000000000000008 .L0 
C:\Users\stapi\AppData\Local\Temp\ccL2g2h3.s:3650   .text.altcp_tls_create_config_client_2wayauth:0000000000000008 .L0 
C:\Users\stapi\AppData\Local\Temp\ccL2g2h3.s:3651   .text.altcp_tls_create_config_client_2wayauth:0000000000000008 .L0 
C:\Users\stapi\AppData\Local\Temp\ccL2g2h3.s:3653   .text.altcp_tls_create_config_client_2wayauth:0000000000000008 .L0 
C:\Users\stapi\AppData\Local\Temp\ccL2g2h3.s:3654   .text.altcp_tls_create_config_client_2wayauth:0000000000000008 .L0 
C:\Users\stapi\AppData\Local\Temp\ccL2g2h3.s:3655   .text.altcp_tls_create_config_client_2wayauth:0000000000000008 .L0 
C:\Users\stapi\AppData\Local\Temp\ccL2g2h3.s:3656   .text.altcp_tls_create_config_client_2wayauth:0000000000000008 .L0 
C:\Users\stapi\AppData\Local\Temp\ccL2g2h3.s:3660   .text.altcp_tls_create_config_client_2wayauth:000000000000000c .L0 
C:\Users\stapi\AppData\Local\Temp\ccL2g2h3.s:3661   .text.altcp_tls_create_config_client_2wayauth:000000000000000c .L0 
C:\Users\stapi\AppData\Local\Temp\ccL2g2h3.s:3667   .text.altcp_tls_create_config_client_2wayauth:0000000000000012 .L0 
C:\Users\stapi\AppData\Local\Temp\ccL2g2h3.s:3670   .text.altcp_tls_create_config_client_2wayauth:0000000000000014 .L0 
C:\Users\stapi\AppData\Local\Temp\ccL2g2h3.s:3677   .text.altcp_tls_create_config_client_2wayauth:0000000000000020 .L0 
C:\Users\stapi\AppData\Local\Temp\ccL2g2h3.s:3678   .text.altcp_tls_create_config_client_2wayauth:0000000000000020 .L0 
C:\Users\stapi\AppData\Local\Temp\ccL2g2h3.s:3683   .text.altcp_tls_create_config_client_2wayauth:000000000000002a .L0 
C:\Users\stapi\AppData\Local\Temp\ccL2g2h3.s:3684   .text.altcp_tls_create_config_client_2wayauth:000000000000002a .L0 
C:\Users\stapi\AppData\Local\Temp\ccL2g2h3.s:3686   .text.altcp_tls_create_config_client_2wayauth:000000000000002c .L0 
C:\Users\stapi\AppData\Local\Temp\ccL2g2h3.s:3690   .text.altcp_tls_create_config_client_2wayauth:0000000000000038 .L0 
C:\Users\stapi\AppData\Local\Temp\ccL2g2h3.s:3691   .text.altcp_tls_create_config_client_2wayauth:0000000000000038 .L0 
C:\Users\stapi\AppData\Local\Temp\ccL2g2h3.s:3697   .text.altcp_tls_create_config_client_2wayauth:0000000000000048 .L0 
C:\Users\stapi\AppData\Local\Temp\ccL2g2h3.s:3698   .text.altcp_tls_create_config_client_2wayauth:0000000000000048 .L0 
C:\Users\stapi\AppData\Local\Temp\ccL2g2h3.s:3700   .text.altcp_tls_create_config_client_2wayauth:000000000000004a .L0 
C:\Users\stapi\AppData\Local\Temp\ccL2g2h3.s:3701   .text.altcp_tls_create_config_client_2wayauth:000000000000004a .L0 
C:\Users\stapi\AppData\Local\Temp\ccL2g2h3.s:3705   .text.altcp_tls_create_config_client_2wayauth:000000000000004e .L0 
C:\Users\stapi\AppData\Local\Temp\ccL2g2h3.s:3711   .text.altcp_tls_create_config_client_2wayauth:0000000000000058 .L0 
C:\Users\stapi\AppData\Local\Temp\ccL2g2h3.s:3716   .text.altcp_tls_create_config_client_2wayauth:0000000000000064 .L0 
C:\Users\stapi\AppData\Local\Temp\ccL2g2h3.s:3717   .text.altcp_tls_create_config_client_2wayauth:0000000000000064 .L0 
C:\Users\stapi\AppData\Local\Temp\ccL2g2h3.s:3725   .text.altcp_tls_create_config_client_2wayauth:0000000000000078 .L0 
C:\Users\stapi\AppData\Local\Temp\ccL2g2h3.s:3726   .text.altcp_tls_create_config_client_2wayauth:0000000000000078 .L0 
C:\Users\stapi\AppData\Local\Temp\ccL2g2h3.s:3729   .text.altcp_tls_create_config_client_2wayauth:000000000000007a .L0 
C:\Users\stapi\AppData\Local\Temp\ccL2g2h3.s:3730   .text.altcp_tls_create_config_client_2wayauth:000000000000007a .L0 
C:\Users\stapi\AppData\Local\Temp\ccL2g2h3.s:3736   .text.altcp_tls_create_config_client_2wayauth:000000000000007e .L0 
C:\Users\stapi\AppData\Local\Temp\ccL2g2h3.s:3737   .text.altcp_tls_create_config_client_2wayauth:000000000000007e .L0 
C:\Users\stapi\AppData\Local\Temp\ccL2g2h3.s:3744   .text.altcp_tls_create_config_client_2wayauth:0000000000000090 .L0 
C:\Users\stapi\AppData\Local\Temp\ccL2g2h3.s:3745   .text.altcp_tls_create_config_client_2wayauth:0000000000000090 .L0 
C:\Users\stapi\AppData\Local\Temp\ccL2g2h3.s:3749   .text.altcp_tls_create_config_client_2wayauth:0000000000000092 .L0 
C:\Users\stapi\AppData\Local\Temp\ccL2g2h3.s:3751   .text.altcp_tls_create_config_client_2wayauth:000000000000009c .L0 
C:\Users\stapi\AppData\Local\Temp\ccL2g2h3.s:3752   .text.altcp_tls_create_config_client_2wayauth:000000000000009c .L0 
C:\Users\stapi\AppData\Local\Temp\ccL2g2h3.s:3753   .text.altcp_tls_create_config_client_2wayauth:000000000000009c .L0 
C:\Users\stapi\AppData\Local\Temp\ccL2g2h3.s:3754   .text.altcp_tls_create_config_client_2wayauth:000000000000009c .L0 
C:\Users\stapi\AppData\Local\Temp\ccL2g2h3.s:3755   .text.altcp_tls_create_config_client_2wayauth:000000000000009c .L0 
C:\Users\stapi\AppData\Local\Temp\ccL2g2h3.s:3756   .text.altcp_tls_create_config_client_2wayauth:000000000000009c .L0 
C:\Users\stapi\AppData\Local\Temp\ccL2g2h3.s:3757   .text.altcp_tls_create_config_client_2wayauth:000000000000009c .L0 
C:\Users\stapi\AppData\Local\Temp\ccL2g2h3.s:3758   .text.altcp_tls_create_config_client_2wayauth:000000000000009c .L0 
C:\Users\stapi\AppData\Local\Temp\ccL2g2h3.s:3759   .text.altcp_tls_create_config_client_2wayauth:000000000000009c .L0 
C:\Users\stapi\AppData\Local\Temp\ccL2g2h3.s:3760   .text.altcp_tls_create_config_client_2wayauth:000000000000009c .L0 
C:\Users\stapi\AppData\Local\Temp\ccL2g2h3.s:3767   .text.altcp_tls_free_config:0000000000000000 altcp_tls_free_config
C:\Users\stapi\AppData\Local\Temp\ccL2g2h3.s:3770   .text.altcp_tls_free_config:0000000000000000 .L0 
C:\Users\stapi\AppData\Local\Temp\ccL2g2h3.s:3772   .text.altcp_tls_free_config:0000000000000000 .L0 
C:\Users\stapi\AppData\Local\Temp\ccL2g2h3.s:3773   .text.altcp_tls_free_config:0000000000000008 .L0 
C:\Users\stapi\AppData\Local\Temp\ccL2g2h3.s:3774   .text.altcp_tls_free_config:0000000000000008 .L0 
C:\Users\stapi\AppData\Local\Temp\ccL2g2h3.s:3775   .text.altcp_tls_free_config:0000000000000008 .L0 
C:\Users\stapi\AppData\Local\Temp\ccL2g2h3.s:3777   .text.altcp_tls_free_config:0000000000000008 .L0 
C:\Users\stapi\AppData\Local\Temp\ccL2g2h3.s:3778   .text.altcp_tls_free_config:0000000000000008 .L0 
C:\Users\stapi\AppData\Local\Temp\ccL2g2h3.s:3780   .text.altcp_tls_free_config:000000000000000a .L0 
C:\Users\stapi\AppData\Local\Temp\ccL2g2h3.s:3783   .text.altcp_tls_free_config:000000000000000e .L0 
C:\Users\stapi\AppData\Local\Temp\ccL2g2h3.s:3785   .text.altcp_tls_free_config:0000000000000010 .L0 
C:\Users\stapi\AppData\Local\Temp\ccL2g2h3.s:3789   .text.altcp_tls_free_config:0000000000000018 .L0 
C:\Users\stapi\AppData\Local\Temp\ccL2g2h3.s:3790   .text.altcp_tls_free_config:0000000000000018 .L0 
C:\Users\stapi\AppData\Local\Temp\ccL2g2h3.s:3792   .text.altcp_tls_free_config:000000000000001c .L0 
C:\Users\stapi\AppData\Local\Temp\ccL2g2h3.s:3794   .text.altcp_tls_free_config:000000000000001e .L0 
C:\Users\stapi\AppData\Local\Temp\ccL2g2h3.s:3798   .text.altcp_tls_free_config:0000000000000026 .L0 
C:\Users\stapi\AppData\Local\Temp\ccL2g2h3.s:3799   .text.altcp_tls_free_config:0000000000000026 .L0 
C:\Users\stapi\AppData\Local\Temp\ccL2g2h3.s:3801   .text.altcp_tls_free_config:000000000000002a .L0 
C:\Users\stapi\AppData\Local\Temp\ccL2g2h3.s:3803   .text.altcp_tls_free_config:000000000000002c .L0 
C:\Users\stapi\AppData\Local\Temp\ccL2g2h3.s:3807   .text.altcp_tls_free_config:0000000000000034 .L0 
C:\Users\stapi\AppData\Local\Temp\ccL2g2h3.s:3811   .text.altcp_tls_free_config:000000000000003e .L0 
C:\Users\stapi\AppData\Local\Temp\ccL2g2h3.s:3815   .text.altcp_tls_free_config:0000000000000048 .L0 
C:\Users\stapi\AppData\Local\Temp\ccL2g2h3.s:3816   .text.altcp_tls_free_config:0000000000000050 .L0 
C:\Users\stapi\AppData\Local\Temp\ccL2g2h3.s:3817   .text.altcp_tls_free_config:0000000000000050 .L0 
C:\Users\stapi\AppData\Local\Temp\ccL2g2h3.s:3818   .text.altcp_tls_free_config:0000000000000050 .L0 
C:\Users\stapi\AppData\Local\Temp\ccL2g2h3.s:3819   .text.altcp_tls_free_config:0000000000000050 .L0 
C:\Users\stapi\AppData\Local\Temp\ccL2g2h3.s:3828   .rodata.altcp_mbedtls_functions:0000000000000000 altcp_mbedtls_functions
C:\Users\stapi\AppData\Local\Temp\ccL2g2h3.s:3825   .rodata.altcp_mbedtls_functions:0000000000000000 .LANCHOR1
C:\Users\stapi\AppData\Local\Temp\ccL2g2h3.s:3852   .sbss.ctr.0:0000000000000000 .LANCHOR0
C:\Users\stapi\AppData\Local\Temp\ccL2g2h3.s:3855   .sbss.ctr.0:0000000000000000 ctr.0
C:\Users\stapi\AppData\Local\Temp\ccL2g2h3.s:61     .text.dummy_rng:0000000000000034 .L0 
C:\Users\stapi\AppData\Local\Temp\ccL2g2h3.s:108    .text.altcp_mbedtls_lower_err:000000000000002c .L0 
C:\Users\stapi\AppData\Local\Temp\ccL2g2h3.s:335    .text.altcp_mbedtls_bio_recv:00000000000000f8 .L0 
C:\Users\stapi\AppData\Local\Temp\ccL2g2h3.s:383    .text.altcp_mbedtls_setup_callbacks:0000000000000054 .L0 
C:\Users\stapi\AppData\Local\Temp\ccL2g2h3.s:495    .text.altcp_mbedtls_lower_sent:0000000000000074 .L0 
C:\Users\stapi\AppData\Local\Temp\ccL2g2h3.s:548    .text.altcp_mbedtls_recved:000000000000002c .L0 
C:\Users\stapi\AppData\Local\Temp\ccL2g2h3.s:569    .text.altcp_mbedtls_abort:000000000000000e .L0 
C:\Users\stapi\AppData\Local\Temp\ccL2g2h3.s:766    .text.altcp_tls_create_config:00000000000000f2 .L0 
C:\Users\stapi\AppData\Local\Temp\ccL2g2h3.s:852    .text.altcp_tls_create_config_client_common:0000000000000068 .L0 
C:\Users\stapi\AppData\Local\Temp\ccL2g2h3.s:920    .text.altcp_mbedtls_dealloc:000000000000004c .L0 
C:\Users\stapi\AppData\Local\Temp\ccL2g2h3.s:1048   .text.altcp_mbedtls_sndbuf:0000000000000084 .L0 
C:\Users\stapi\AppData\Local\Temp\ccL2g2h3.s:1241   .text.altcp_mbedtls_write:00000000000000da .L0 
C:\Users\stapi\AppData\Local\Temp\ccL2g2h3.s:1369   .text.altcp_mbedtls_close:000000000000009c .L0 
C:\Users\stapi\AppData\Local\Temp\ccL2g2h3.s:1425   .text.altcp_mbedtls_listen:0000000000000038 .L0 
C:\Users\stapi\AppData\Local\Temp\ccL2g2h3.s:1457   .text.altcp_mbedtls_connect:000000000000001a .L0 
C:\Users\stapi\AppData\Local\Temp\ccL2g2h3.s:1624   .text.altcp_mbedtls_bio_send:00000000000000a8 .L0 
C:\Users\stapi\AppData\Local\Temp\ccL2g2h3.s:1788   .text.altcp_mbedtls_setup:00000000000000bc .L0 
C:\Users\stapi\AppData\Local\Temp\ccL2g2h3.s:1896   .text.altcp_mbedtls_lower_accept:0000000000000068 .L0 
C:\Users\stapi\AppData\Local\Temp\ccL2g2h3.s:2474   .text.altcp_mbedtls_handle_rx_appldata:00000000000002b8 .L0 
C:\Users\stapi\AppData\Local\Temp\ccL2g2h3.s:2595   .text.altcp_mbedtls_lower_poll:000000000000007c .L0 
C:\Users\stapi\AppData\Local\Temp\ccL2g2h3.s:2626   .text.altcp_mbedtls_set_poll:0000000000000018 .L0 
C:\Users\stapi\AppData\Local\Temp\ccL2g2h3.s:2657   .text.altcp_mbedtls_mss:0000000000000010 .L0 
C:\Users\stapi\AppData\Local\Temp\ccL2g2h3.s:2924   .text.altcp_mbedtls_lower_recv_process:000000000000015c .L0 
C:\Users\stapi\AppData\Local\Temp\ccL2g2h3.s:3184   .text.altcp_mbedtls_lower_recv:0000000000000146 .L0 
C:\Users\stapi\AppData\Local\Temp\ccL2g2h3.s:3274   .text.altcp_mbedtls_lower_connected:000000000000005e .L0 
C:\Users\stapi\AppData\Local\Temp\ccL2g2h3.s:3342   .text.altcp_tls_wrap:0000000000000046 .L0 
C:\Users\stapi\AppData\Local\Temp\ccL2g2h3.s:3373   .text.altcp_tls_context:000000000000000a .L0 
C:\Users\stapi\AppData\Local\Temp\ccL2g2h3.s:3532   .text.altcp_tls_create_config_server_privkey_cert:00000000000000c0 .L0 
C:\Users\stapi\AppData\Local\Temp\ccL2g2h3.s:3549   .text.altcp_tls_create_config_client:000000000000000a .L0 
C:\Users\stapi\AppData\Local\Temp\ccL2g2h3.s:3633   .text.altcp_tls_create_config_client_psk:0000000000000056 .L0 
C:\Users\stapi\AppData\Local\Temp\ccL2g2h3.s:3763   .text.altcp_tls_create_config_client_2wayauth:000000000000009c .L0 
C:\Users\stapi\AppData\Local\Temp\ccL2g2h3.s:3823   .text.altcp_tls_free_config:0000000000000050 .L0 
                     .debug_frame:0000000000000000 .L0 
C:\Users\stapi\AppData\Local\Temp\ccL2g2h3.s:46     .text.dummy_rng:0000000000000022 .L3
C:\Users\stapi\AppData\Local\Temp\ccL2g2h3.s:40     .text.dummy_rng:000000000000001e .L4
C:\Users\stapi\AppData\Local\Temp\ccL2g2h3.s:32     .text.dummy_rng:0000000000000014 .L2
C:\Users\stapi\AppData\Local\Temp\ccL2g2h3.s:103    .text.altcp_mbedtls_lower_err:000000000000002a .L18
C:\Users\stapi\AppData\Local\Temp\ccL2g2h3.s:92     .text.altcp_mbedtls_lower_err:0000000000000018 .L10
C:\Users\stapi\AppData\Local\Temp\ccL2g2h3.s:110    .rodata.altcp_mbedtls_bio_recv.str1.4:0000000000000000 .LC0
C:\Users\stapi\AppData\Local\Temp\ccL2g2h3.s:113    .rodata.altcp_mbedtls_bio_recv.str1.4:0000000000000098 .LC1
C:\Users\stapi\AppData\Local\Temp\ccL2g2h3.s:116    .rodata.altcp_mbedtls_bio_recv.str1.4:00000000000000a8 .LC2
C:\Users\stapi\AppData\Local\Temp\ccL2g2h3.s:119    .rodata.altcp_mbedtls_bio_recv.str1.4:00000000000000d0 .LC3
C:\Users\stapi\AppData\Local\Temp\ccL2g2h3.s:308    .text.altcp_mbedtls_bio_recv:00000000000000ec .L31
C:\Users\stapi\AppData\Local\Temp\ccL2g2h3.s:321    .text.altcp_mbedtls_bio_recv:00000000000000f2 .L32
C:\Users\stapi\AppData\Local\Temp\ccL2g2h3.s:173    .text.altcp_mbedtls_bio_recv:000000000000002e .L23
C:\Users\stapi\AppData\Local\Temp\ccL2g2h3.s:202    .text.altcp_mbedtls_bio_recv:000000000000004e .L24
C:\Users\stapi\AppData\Local\Temp\ccL2g2h3.s:209    .text.altcp_mbedtls_bio_recv:0000000000000056 .L25
C:\Users\stapi\AppData\Local\Temp\ccL2g2h3.s:191    .text.altcp_mbedtls_bio_recv:0000000000000046 .L21
C:\Users\stapi\AppData\Local\Temp\ccL2g2h3.s:243    .text.altcp_mbedtls_bio_recv:0000000000000090 .L26
C:\Users\stapi\AppData\Local\Temp\ccL2g2h3.s:237    .text.altcp_mbedtls_bio_recv:000000000000008e .L27
C:\Users\stapi\AppData\Local\Temp\ccL2g2h3.s:274    .text.altcp_mbedtls_bio_recv:00000000000000c4 .L28
C:\Users\stapi\AppData\Local\Temp\ccL2g2h3.s:268    .text.altcp_mbedtls_bio_recv:00000000000000c2 .L29
C:\Users\stapi\AppData\Local\Temp\ccL2g2h3.s:295    .text.altcp_mbedtls_bio_recv:00000000000000de .L30
C:\Users\stapi\AppData\Local\Temp\ccL2g2h3.s:385    .rodata.altcp_mbedtls_lower_sent.str1.4:0000000000000000 .LC4
C:\Users\stapi\AppData\Local\Temp\ccL2g2h3.s:422    .text.altcp_mbedtls_lower_sent:0000000000000010 .L44
C:\Users\stapi\AppData\Local\Temp\ccL2g2h3.s:458    .text.altcp_mbedtls_lower_sent:0000000000000046 .L46
C:\Users\stapi\AppData\Local\Temp\ccL2g2h3.s:452    .text.altcp_mbedtls_lower_sent:0000000000000044 .L47
C:\Users\stapi\AppData\Local\Temp\ccL2g2h3.s:407    .text.altcp_mbedtls_lower_sent:0000000000000006 .L48
C:\Users\stapi\AppData\Local\Temp\ccL2g2h3.s:414    .text.altcp_mbedtls_lower_sent:0000000000000008 .L45
C:\Users\stapi\AppData\Local\Temp\ccL2g2h3.s:543    .text.altcp_mbedtls_recved:000000000000002a .L77
C:\Users\stapi\AppData\Local\Temp\ccL2g2h3.s:532    .text.altcp_mbedtls_recved:000000000000001a .L66
C:\Users\stapi\AppData\Local\Temp\ccL2g2h3.s:564    .text.altcp_mbedtls_abort:000000000000000c .L86
C:\Users\stapi\AppData\Local\Temp\ccL2g2h3.s:610    .text.altcp_tls_create_config:0000000000000026 .L90
C:\Users\stapi\AppData\Local\Temp\ccL2g2h3.s:619    .text.altcp_tls_create_config:000000000000002c .L91
C:\Users\stapi\AppData\Local\Temp\ccL2g2h3.s:627    .text.altcp_tls_create_config:0000000000000032 .L92
C:\Users\stapi\AppData\Local\Temp\ccL2g2h3.s:712    .text.altcp_tls_create_config:00000000000000ae .L89
C:\Users\stapi\AppData\Local\Temp\ccL2g2h3.s:651    .text.altcp_tls_create_config:000000000000004e .L94
C:\Users\stapi\AppData\Local\Temp\ccL2g2h3.s:662    .text.altcp_tls_create_config:0000000000000058 .L95
C:\Users\stapi\AppData\Local\Temp\ccL2g2h3.s:669    .text.altcp_tls_create_config:0000000000000060 .L96
C:\Users\stapi\AppData\Local\Temp\ccL2g2h3.s:727    .text.altcp_tls_create_config:00000000000000ba .L97
C:\Users\stapi\AppData\Local\Temp\ccL2g2h3.s:701    .text.altcp_tls_create_config:00000000000000a2 .L124
C:\Users\stapi\AppData\Local\Temp\ccL2g2h3.s:748    .text.altcp_tls_create_config:00000000000000d2 .L123
C:\Users\stapi\AppData\Local\Temp\ccL2g2h3.s:828    .text.altcp_tls_create_config_client_common:000000000000004c .L125
C:\Users\stapi\AppData\Local\Temp\ccL2g2h3.s:839    .text.altcp_tls_create_config_client_common:0000000000000056 .L127
C:\Users\stapi\AppData\Local\Temp\ccL2g2h3.s:915    .text.altcp_mbedtls_dealloc:000000000000004a .L148
C:\Users\stapi\AppData\Local\Temp\ccL2g2h3.s:906    .text.altcp_mbedtls_dealloc:0000000000000042 .L135
C:\Users\stapi\AppData\Local\Temp\ccL2g2h3.s:897    .text.altcp_mbedtls_dealloc:0000000000000032 .L137
C:\Users\stapi\AppData\Local\Temp\ccL2g2h3.s:1037   .text.altcp_mbedtls_sndbuf:0000000000000078 .L152
C:\Users\stapi\AppData\Local\Temp\ccL2g2h3.s:1023   .text.altcp_mbedtls_sndbuf:0000000000000070 .L153
C:\Users\stapi\AppData\Local\Temp\ccL2g2h3.s:990    .text.altcp_mbedtls_sndbuf:000000000000004e .L154
C:\Users\stapi\AppData\Local\Temp\ccL2g2h3.s:1053   .rodata.altcp_mbedtls_write.str1.4:000000000000000c .LC6
C:\Users\stapi\AppData\Local\Temp\ccL2g2h3.s:1050   .rodata.altcp_mbedtls_write.str1.4:0000000000000000 .LC5
C:\Users\stapi\AppData\Local\Temp\ccL2g2h3.s:1208   .text.altcp_mbedtls_write:00000000000000ce .L174
C:\Users\stapi\AppData\Local\Temp\ccL2g2h3.s:1221   .text.altcp_mbedtls_write:00000000000000d2 .L175
C:\Users\stapi\AppData\Local\Temp\ccL2g2h3.s:1233   .text.altcp_mbedtls_write:00000000000000d6 .L176
C:\Users\stapi\AppData\Local\Temp\ccL2g2h3.s:1142   .text.altcp_mbedtls_write:0000000000000074 .L166
C:\Users\stapi\AppData\Local\Temp\ccL2g2h3.s:1172   .text.altcp_mbedtls_write:0000000000000094 .L167
C:\Users\stapi\AppData\Local\Temp\ccL2g2h3.s:1156   .text.altcp_mbedtls_write:0000000000000088 .L172
C:\Users\stapi\AppData\Local\Temp\ccL2g2h3.s:1136   .text.altcp_mbedtls_write:0000000000000072 .L173
C:\Users\stapi\AppData\Local\Temp\ccL2g2h3.s:1102   .text.altcp_mbedtls_write:0000000000000026 .L169
C:\Users\stapi\AppData\Local\Temp\ccL2g2h3.s:1188   .text.altcp_mbedtls_write:00000000000000a8 .L170
C:\Users\stapi\AppData\Local\Temp\ccL2g2h3.s:1159   .text.altcp_mbedtls_write:000000000000008a .L165
C:\Users\stapi\AppData\Local\Temp\ccL2g2h3.s:1202   .text.altcp_mbedtls_write:00000000000000cc .L171
C:\Users\stapi\AppData\Local\Temp\ccL2g2h3.s:1336   .text.altcp_mbedtls_close:0000000000000080 .L186
C:\Users\stapi\AppData\Local\Temp\ccL2g2h3.s:1356   .text.altcp_mbedtls_close:000000000000008e .L187
C:\Users\stapi\AppData\Local\Temp\ccL2g2h3.s:1349   .text.altcp_mbedtls_close:000000000000008a .L188
C:\Users\stapi\AppData\Local\Temp\ccL2g2h3.s:1398   .text.altcp_mbedtls_listen:0000000000000016 .L195
C:\Users\stapi\AppData\Local\Temp\ccL2g2h3.s:1386   .text.altcp_mbedtls_listen:000000000000000a .L197
C:\Users\stapi\AppData\Local\Temp\ccL2g2h3.s:1389   .text.altcp_mbedtls_listen:000000000000000c .L196
C:\Users\stapi\AppData\Local\Temp\ccL2g2h3.s:1448   .text.altcp_mbedtls_connect:0000000000000016 .L204
C:\Users\stapi\AppData\Local\Temp\ccL2g2h3.s:1459   .rodata.altcp_mbedtls_bio_send.str1.4:0000000000000000 .LC7
C:\Users\stapi\AppData\Local\Temp\ccL2g2h3.s:1462   .rodata.altcp_mbedtls_bio_send.str1.4:0000000000000010 .LC8
C:\Users\stapi\AppData\Local\Temp\ccL2g2h3.s:1510   .text.altcp_mbedtls_bio_send:0000000000000030 .L210
C:\Users\stapi\AppData\Local\Temp\ccL2g2h3.s:1504   .text.altcp_mbedtls_bio_send:000000000000002e .L211
C:\Users\stapi\AppData\Local\Temp\ccL2g2h3.s:1614   .text.altcp_mbedtls_bio_send:00000000000000a2 .L218
C:\Users\stapi\AppData\Local\Temp\ccL2g2h3.s:1557   .text.altcp_mbedtls_bio_send:0000000000000052 .L217
C:\Users\stapi\AppData\Local\Temp\ccL2g2h3.s:1567   .text.altcp_mbedtls_bio_send:000000000000005a .L214
C:\Users\stapi\AppData\Local\Temp\ccL2g2h3.s:1589   .text.altcp_mbedtls_bio_send:0000000000000076 .L215
C:\Users\stapi\AppData\Local\Temp\ccL2g2h3.s:1535   .text.altcp_mbedtls_bio_send:0000000000000046 .L213
C:\Users\stapi\AppData\Local\Temp\ccL2g2h3.s:1540   .text.altcp_mbedtls_bio_send:0000000000000048 .L209
C:\Users\stapi\AppData\Local\Temp\ccL2g2h3.s:1608   .text.altcp_mbedtls_bio_send:00000000000000a0 .L216
C:\Users\stapi\AppData\Local\Temp\ccL2g2h3.s:1626   .rodata.altcp_mbedtls_setup.str1.4:0000000000000000 .LC9
C:\Users\stapi\AppData\Local\Temp\ccL2g2h3.s:1770   .text.altcp_mbedtls_setup:00000000000000b8 .L226
C:\Users\stapi\AppData\Local\Temp\ccL2g2h3.s:1676   .text.altcp_mbedtls_setup:0000000000000038 .L223
C:\Users\stapi\AppData\Local\Temp\ccL2g2h3.s:1670   .text.altcp_mbedtls_setup:0000000000000036 .L224
C:\Users\stapi\AppData\Local\Temp\ccL2g2h3.s:1718   .text.altcp_mbedtls_setup:0000000000000072 .L222
C:\Users\stapi\AppData\Local\Temp\ccL2g2h3.s:1733   .text.altcp_mbedtls_setup:000000000000007a .L225
C:\Users\stapi\AppData\Local\Temp\ccL2g2h3.s:1863   .text.altcp_mbedtls_lower_accept:0000000000000050 .L233
C:\Users\stapi\AppData\Local\Temp\ccL2g2h3.s:1879   .text.altcp_mbedtls_lower_accept:000000000000005c .L234
C:\Users\stapi\AppData\Local\Temp\ccL2g2h3.s:1898   .rodata.altcp_mbedtls_handle_rx_appldata.str1.4:0000000000000000 .LC10
C:\Users\stapi\AppData\Local\Temp\ccL2g2h3.s:1901   .rodata.altcp_mbedtls_handle_rx_appldata.str1.4:0000000000000010 .LC11
C:\Users\stapi\AppData\Local\Temp\ccL2g2h3.s:1904   .rodata.altcp_mbedtls_handle_rx_appldata.str1.4:0000000000000050 .LC12
C:\Users\stapi\AppData\Local\Temp\ccL2g2h3.s:1907   .rodata.altcp_mbedtls_handle_rx_appldata.str1.4:0000000000000068 .LC13
C:\Users\stapi\AppData\Local\Temp\ccL2g2h3.s:1910   .rodata.altcp_mbedtls_handle_rx_appldata.str1.4:000000000000007c .LC14
C:\Users\stapi\AppData\Local\Temp\ccL2g2h3.s:1913   .rodata.altcp_mbedtls_handle_rx_appldata.str1.4:0000000000000094 .LC15
C:\Users\stapi\AppData\Local\Temp\ccL2g2h3.s:1960   .text.altcp_mbedtls_handle_rx_appldata:0000000000000030 .L241
C:\Users\stapi\AppData\Local\Temp\ccL2g2h3.s:1954   .text.altcp_mbedtls_handle_rx_appldata:000000000000002e .L242
C:\Users\stapi\AppData\Local\Temp\ccL2g2h3.s:2462   .text.altcp_mbedtls_handle_rx_appldata:00000000000002b4 .L273
C:\Users\stapi\AppData\Local\Temp\ccL2g2h3.s:2073   .text.altcp_mbedtls_handle_rx_appldata:00000000000000b6 .L244
C:\Users\stapi\AppData\Local\Temp\ccL2g2h3.s:2080   .text.altcp_mbedtls_handle_rx_appldata:00000000000000ba .L245
C:\Users\stapi\AppData\Local\Temp\ccL2g2h3.s:2061   .text.altcp_mbedtls_handle_rx_appldata:00000000000000a8 .L246
C:\Users\stapi\AppData\Local\Temp\ccL2g2h3.s:2056   .text.altcp_mbedtls_handle_rx_appldata:00000000000000a6 .L247
C:\Users\stapi\AppData\Local\Temp\ccL2g2h3.s:2315   .text.altcp_mbedtls_handle_rx_appldata:00000000000001fc .L243
C:\Users\stapi\AppData\Local\Temp\ccL2g2h3.s:2241   .text.altcp_mbedtls_handle_rx_appldata:00000000000001ae .L249
C:\Users\stapi\AppData\Local\Temp\ccL2g2h3.s:2105   .text.altcp_mbedtls_handle_rx_appldata:00000000000000ea .L250
C:\Users\stapi\AppData\Local\Temp\ccL2g2h3.s:2100   .text.altcp_mbedtls_handle_rx_appldata:00000000000000e8 .L251
C:\Users\stapi\AppData\Local\Temp\ccL2g2h3.s:2196   .text.altcp_mbedtls_handle_rx_appldata:000000000000016e .L252
C:\Users\stapi\AppData\Local\Temp\ccL2g2h3.s:2150   .text.altcp_mbedtls_handle_rx_appldata:0000000000000140 .L253
C:\Users\stapi\AppData\Local\Temp\ccL2g2h3.s:2145   .text.altcp_mbedtls_handle_rx_appldata:000000000000013e .L254
C:\Users\stapi\AppData\Local\Temp\ccL2g2h3.s:2171   .text.altcp_mbedtls_handle_rx_appldata:0000000000000150 .L255
C:\Users\stapi\AppData\Local\Temp\ccL2g2h3.s:2164   .text.altcp_mbedtls_handle_rx_appldata:0000000000000148 .L256
C:\Users\stapi\AppData\Local\Temp\ccL2g2h3.s:2233   .text.altcp_mbedtls_handle_rx_appldata:00000000000001a2 .L257
C:\Users\stapi\AppData\Local\Temp\ccL2g2h3.s:2249   .text.altcp_mbedtls_handle_rx_appldata:00000000000001ba .L259
C:\Users\stapi\AppData\Local\Temp\ccL2g2h3.s:2227   .text.altcp_mbedtls_handle_rx_appldata:00000000000001a0 .L260
C:\Users\stapi\AppData\Local\Temp\ccL2g2h3.s:2207   .text.altcp_mbedtls_handle_rx_appldata:0000000000000178 .L258
C:\Users\stapi\AppData\Local\Temp\ccL2g2h3.s:2423   .text.altcp_mbedtls_handle_rx_appldata:0000000000000284 .L261
C:\Users\stapi\AppData\Local\Temp\ccL2g2h3.s:2401   .text.altcp_mbedtls_handle_rx_appldata:000000000000026c .L262
C:\Users\stapi\AppData\Local\Temp\ccL2g2h3.s:2407   .text.altcp_mbedtls_handle_rx_appldata:0000000000000276 .L268
C:\Users\stapi\AppData\Local\Temp\ccL2g2h3.s:2337   .text.altcp_mbedtls_handle_rx_appldata:0000000000000204 .L264
C:\Users\stapi\AppData\Local\Temp\ccL2g2h3.s:2368   .text.altcp_mbedtls_handle_rx_appldata:0000000000000232 .L265
C:\Users\stapi\AppData\Local\Temp\ccL2g2h3.s:2362   .text.altcp_mbedtls_handle_rx_appldata:0000000000000230 .L266
C:\Users\stapi\AppData\Local\Temp\ccL2g2h3.s:2395   .text.altcp_mbedtls_handle_rx_appldata:000000000000026a .L267
C:\Users\stapi\AppData\Local\Temp\ccL2g2h3.s:2005   .text.altcp_mbedtls_handle_rx_appldata:000000000000004c .L272
C:\Users\stapi\AppData\Local\Temp\ccL2g2h3.s:2413   .text.altcp_mbedtls_handle_rx_appldata:000000000000027e .L270
C:\Users\stapi\AppData\Local\Temp\ccL2g2h3.s:2308   .text.altcp_mbedtls_handle_rx_appldata:00000000000001fa .L271
C:\Users\stapi\AppData\Local\Temp\ccL2g2h3.s:2493   .text.altcp_mbedtls_lower_poll:0000000000000006 .L288
C:\Users\stapi\AppData\Local\Temp\ccL2g2h3.s:2527   .text.altcp_mbedtls_lower_poll:000000000000003e .L290
C:\Users\stapi\AppData\Local\Temp\ccL2g2h3.s:2521   .text.altcp_mbedtls_lower_poll:000000000000003c .L291
C:\Users\stapi\AppData\Local\Temp\ccL2g2h3.s:2559   .text.altcp_mbedtls_lower_poll:0000000000000052 .L292
C:\Users\stapi\AppData\Local\Temp\ccL2g2h3.s:2581   .text.altcp_mbedtls_lower_poll:0000000000000074 .L293
C:\Users\stapi\AppData\Local\Temp\ccL2g2h3.s:2538   .text.altcp_mbedtls_lower_poll:0000000000000042 .L295
C:\Users\stapi\AppData\Local\Temp\ccL2g2h3.s:2548   .text.altcp_mbedtls_lower_poll:0000000000000048 .L289
C:\Users\stapi\AppData\Local\Temp\ccL2g2h3.s:2619   .text.altcp_mbedtls_set_poll:0000000000000016 .L305
C:\Users\stapi\AppData\Local\Temp\ccL2g2h3.s:2646   .text.altcp_mbedtls_mss:000000000000000c .L310
C:\Users\stapi\AppData\Local\Temp\ccL2g2h3.s:2659   .rodata.altcp_mbedtls_lower_recv_process.str1.4:0000000000000000 .LC16
C:\Users\stapi\AppData\Local\Temp\ccL2g2h3.s:2662   .rodata.altcp_mbedtls_lower_recv_process.str1.4:000000000000002c .LC17
C:\Users\stapi\AppData\Local\Temp\ccL2g2h3.s:2714   .text.altcp_mbedtls_lower_recv_process:0000000000000028 .L316
C:\Users\stapi\AppData\Local\Temp\ccL2g2h3.s:2755   .text.altcp_mbedtls_lower_recv_process:000000000000005e .L318
C:\Users\stapi\AppData\Local\Temp\ccL2g2h3.s:2771   .text.altcp_mbedtls_lower_recv_process:0000000000000076 .L321
C:\Users\stapi\AppData\Local\Temp\ccL2g2h3.s:2814   .text.altcp_mbedtls_lower_recv_process:00000000000000b8 .L322
C:\Users\stapi\AppData\Local\Temp\ccL2g2h3.s:2794   .text.altcp_mbedtls_lower_recv_process:0000000000000092 .L323
C:\Users\stapi\AppData\Local\Temp\ccL2g2h3.s:2700   .text.altcp_mbedtls_lower_recv_process:0000000000000020 .L317
C:\Users\stapi\AppData\Local\Temp\ccL2g2h3.s:2780   .text.altcp_mbedtls_lower_recv_process:000000000000007e .L320
C:\Users\stapi\AppData\Local\Temp\ccL2g2h3.s:2745   .text.altcp_mbedtls_lower_recv_process:0000000000000056 .L319
C:\Users\stapi\AppData\Local\Temp\ccL2g2h3.s:2809   .text.altcp_mbedtls_lower_recv_process:00000000000000b6 .L324
C:\Users\stapi\AppData\Local\Temp\ccL2g2h3.s:2842   .text.altcp_mbedtls_lower_recv_process:00000000000000de .L325
C:\Users\stapi\AppData\Local\Temp\ccL2g2h3.s:2829   .text.altcp_mbedtls_lower_recv_process:00000000000000c6 .L326
C:\Users\stapi\AppData\Local\Temp\ccL2g2h3.s:2766   .text.altcp_mbedtls_lower_recv_process:0000000000000072 .L352
C:\Users\stapi\AppData\Local\Temp\ccL2g2h3.s:2863   .text.altcp_mbedtls_lower_recv_process:000000000000010a .L328
C:\Users\stapi\AppData\Local\Temp\ccL2g2h3.s:2858   .text.altcp_mbedtls_lower_recv_process:0000000000000108 .L329
C:\Users\stapi\AppData\Local\Temp\ccL2g2h3.s:2886   .text.altcp_mbedtls_lower_recv_process:0000000000000136 .L330
C:\Users\stapi\AppData\Local\Temp\ccL2g2h3.s:2881   .text.altcp_mbedtls_lower_recv_process:0000000000000134 .L331
C:\Users\stapi\AppData\Local\Temp\ccL2g2h3.s:2905   .text.altcp_mbedtls_lower_recv_process:0000000000000150 .L332
C:\Users\stapi\AppData\Local\Temp\ccL2g2h3.s:2693   .text.altcp_mbedtls_lower_recv_process:0000000000000014 .L333
C:\Users\stapi\AppData\Local\Temp\ccL2g2h3.s:2899   .text.altcp_mbedtls_lower_recv_process:0000000000000146 .L334
C:\Users\stapi\AppData\Local\Temp\ccL2g2h3.s:2926   .rodata.altcp_mbedtls_lower_recv.str1.4:0000000000000000 .LC18
C:\Users\stapi\AppData\Local\Temp\ccL2g2h3.s:2929   .rodata.altcp_mbedtls_lower_recv.str1.4:0000000000000010 .LC19
C:\Users\stapi\AppData\Local\Temp\ccL2g2h3.s:2973   .text.altcp_mbedtls_lower_recv:0000000000000030 .L354
C:\Users\stapi\AppData\Local\Temp\ccL2g2h3.s:2967   .text.altcp_mbedtls_lower_recv:000000000000002e .L355
C:\Users\stapi\AppData\Local\Temp\ccL2g2h3.s:3013   .text.altcp_mbedtls_lower_recv:000000000000005a .L356
C:\Users\stapi\AppData\Local\Temp\ccL2g2h3.s:2993   .text.altcp_mbedtls_lower_recv:0000000000000044 .L357
C:\Users\stapi\AppData\Local\Temp\ccL2g2h3.s:3042   .text.altcp_mbedtls_lower_recv:0000000000000086 .L359
C:\Users\stapi\AppData\Local\Temp\ccL2g2h3.s:3036   .text.altcp_mbedtls_lower_recv:0000000000000084 .L360
C:\Users\stapi\AppData\Local\Temp\ccL2g2h3.s:2985   .text.altcp_mbedtls_lower_recv:0000000000000038 .L382
C:\Users\stapi\AppData\Local\Temp\ccL2g2h3.s:3125   .text.altcp_mbedtls_lower_recv:00000000000000ee .L363
C:\Users\stapi\AppData\Local\Temp\ccL2g2h3.s:3107   .text.altcp_mbedtls_lower_recv:00000000000000d8 .L364
C:\Users\stapi\AppData\Local\Temp\ccL2g2h3.s:3070   .text.altcp_mbedtls_lower_recv:00000000000000ac .L365
C:\Users\stapi\AppData\Local\Temp\ccL2g2h3.s:3085   .text.altcp_mbedtls_lower_recv:00000000000000c2 .L366
C:\Users\stapi\AppData\Local\Temp\ccL2g2h3.s:3001   .text.altcp_mbedtls_lower_recv:0000000000000050 .L358
C:\Users\stapi\AppData\Local\Temp\ccL2g2h3.s:3118   .text.altcp_mbedtls_lower_recv:00000000000000e2 .L367
C:\Users\stapi\AppData\Local\Temp\ccL2g2h3.s:3144   .text.altcp_mbedtls_lower_recv:0000000000000106 .L368
C:\Users\stapi\AppData\Local\Temp\ccL2g2h3.s:3102   .text.altcp_mbedtls_lower_recv:00000000000000d4 .L383
C:\Users\stapi\AppData\Local\Temp\ccL2g2h3.s:3172   .text.altcp_mbedtls_lower_recv:000000000000013c .L370
C:\Users\stapi\AppData\Local\Temp\ccL2g2h3.s:3166   .text.altcp_mbedtls_lower_recv:000000000000013a .L371
C:\Users\stapi\AppData\Local\Temp\ccL2g2h3.s:3135   .text.altcp_mbedtls_lower_recv:00000000000000f8 .L369
C:\Users\stapi\AppData\Local\Temp\ccL2g2h3.s:3263   .text.altcp_mbedtls_lower_connected:000000000000005a .L390
C:\Users\stapi\AppData\Local\Temp\ccL2g2h3.s:3230   .text.altcp_mbedtls_lower_connected:000000000000003c .L386
C:\Users\stapi\AppData\Local\Temp\ccL2g2h3.s:3224   .text.altcp_mbedtls_lower_connected:000000000000003a .L387
C:\Users\stapi\AppData\Local\Temp\ccL2g2h3.s:3255   .text.altcp_mbedtls_lower_connected:0000000000000050 .L388
C:\Users\stapi\AppData\Local\Temp\ccL2g2h3.s:3248   .text.altcp_mbedtls_lower_connected:0000000000000048 .L385
C:\Users\stapi\AppData\Local\Temp\ccL2g2h3.s:3312   .text.altcp_tls_wrap:000000000000001a .L402
C:\Users\stapi\AppData\Local\Temp\ccL2g2h3.s:3296   .text.altcp_tls_wrap:000000000000000c .L412
C:\Users\stapi\AppData\Local\Temp\ccL2g2h3.s:3300   .text.altcp_tls_wrap:000000000000000e .L401
C:\Users\stapi\AppData\Local\Temp\ccL2g2h3.s:3366   .text.altcp_tls_context:0000000000000008 .L414
C:\Users\stapi\AppData\Local\Temp\ccL2g2h3.s:3459   .text.altcp_tls_create_config_server_privkey_cert:0000000000000060 .L421
C:\Users\stapi\AppData\Local\Temp\ccL2g2h3.s:3476   .text.altcp_tls_create_config_server_privkey_cert:000000000000006a .L423
C:\Users\stapi\AppData\Local\Temp\ccL2g2h3.s:3500   .text.altcp_tls_create_config_server_privkey_cert:000000000000008a .L424
C:\Users\stapi\AppData\Local\Temp\ccL2g2h3.s:3450   .text.altcp_tls_create_config_server_privkey_cert:0000000000000054 .L432
C:\Users\stapi\AppData\Local\Temp\ccL2g2h3.s:3617   .text.altcp_tls_create_config_client_psk:000000000000004a .L435
C:\Users\stapi\AppData\Local\Temp\ccL2g2h3.s:3664   .text.altcp_tls_create_config_client_2wayauth:0000000000000010 .L451
C:\Users\stapi\AppData\Local\Temp\ccL2g2h3.s:3747   .text.altcp_tls_create_config_client_2wayauth:0000000000000092 .L450
C:\Users\stapi\AppData\Local\Temp\ccL2g2h3.s:3658   .text.altcp_tls_create_config_client_2wayauth:000000000000000c .L466
C:\Users\stapi\AppData\Local\Temp\ccL2g2h3.s:3709   .text.altcp_tls_create_config_client_2wayauth:0000000000000058 .L454
C:\Users\stapi\AppData\Local\Temp\ccL2g2h3.s:3734   .text.altcp_tls_create_config_client_2wayauth:000000000000007e .L455
C:\Users\stapi\AppData\Local\Temp\ccL2g2h3.s:3703   .text.altcp_tls_create_config_client_2wayauth:000000000000004e .L468
C:\Users\stapi\AppData\Local\Temp\ccL2g2h3.s:3727   .text.altcp_tls_create_config_client_2wayauth:000000000000007a .L467
C:\Users\stapi\AppData\Local\Temp\ccL2g2h3.s:3787   .text.altcp_tls_free_config:0000000000000018 .L470
C:\Users\stapi\AppData\Local\Temp\ccL2g2h3.s:3796   .text.altcp_tls_free_config:0000000000000026 .L471
C:\Users\stapi\AppData\Local\Temp\ccL2g2h3.s:3805   .text.altcp_tls_free_config:0000000000000034 .L472
C:\Users\stapi\AppData\Local\Temp\ccL2g2h3.s:14229  .debug_abbrev:0000000000000000 .Ldebug_abbrev0
C:\Users\stapi\AppData\Local\Temp\ccL2g2h3.s:20031  .debug_str:0000000000001afb .LASF745
C:\Users\stapi\AppData\Local\Temp\ccL2g2h3.s:20173  .debug_str:0000000000002014 .LASF746
C:\Users\stapi\AppData\Local\Temp\ccL2g2h3.s:20365  .debug_str:000000000000263c .LASF747
C:\Users\stapi\AppData\Local\Temp\ccL2g2h3.s:18953  .debug_ranges:0000000000000000 .Ldebug_ranges0
C:\Users\stapi\AppData\Local\Temp\ccL2g2h3.s:19147  .debug_line:0000000000000000 .Ldebug_line0
C:\Users\stapi\AppData\Local\Temp\ccL2g2h3.s:20573  .debug_str:0000000000002d4d .LASF0
C:\Users\stapi\AppData\Local\Temp\ccL2g2h3.s:19911  .debug_str:0000000000001754 .LASF2
C:\Users\stapi\AppData\Local\Temp\ccL2g2h3.s:19187  .debug_str:000000000000012d .LASF1
C:\Users\stapi\AppData\Local\Temp\ccL2g2h3.s:19489  .debug_str:0000000000000ab6 .LASF3
C:\Users\stapi\AppData\Local\Temp\ccL2g2h3.s:20609  .debug_str:0000000000002e61 .LASF4
C:\Users\stapi\AppData\Local\Temp\ccL2g2h3.s:19449  .debug_str:000000000000099a .LASF5
C:\Users\stapi\AppData\Local\Temp\ccL2g2h3.s:19909  .debug_str:0000000000001741 .LASF6
C:\Users\stapi\AppData\Local\Temp\ccL2g2h3.s:20021  .debug_str:0000000000001abc .LASF7
C:\Users\stapi\AppData\Local\Temp\ccL2g2h3.s:20317  .debug_str:00000000000024f8 .LASF8
C:\Users\stapi\AppData\Local\Temp\ccL2g2h3.s:20119  .debug_str:0000000000001ec4 .LASF9
C:\Users\stapi\AppData\Local\Temp\ccL2g2h3.s:20491  .debug_str:0000000000002ab6 .LASF10
C:\Users\stapi\AppData\Local\Temp\ccL2g2h3.s:19749  .debug_str:000000000000129f .LASF11
C:\Users\stapi\AppData\Local\Temp\ccL2g2h3.s:20395  .debug_str:0000000000002773 .LASF12
C:\Users\stapi\AppData\Local\Temp\ccL2g2h3.s:20591  .debug_str:0000000000002dc7 .LASF13
C:\Users\stapi\AppData\Local\Temp\ccL2g2h3.s:19853  .debug_str:00000000000015c5 .LASF14
C:\Users\stapi\AppData\Local\Temp\ccL2g2h3.s:19645  .debug_str:0000000000000fba .LASF15
C:\Users\stapi\AppData\Local\Temp\ccL2g2h3.s:19221  .debug_str:000000000000027a .LASF16
C:\Users\stapi\AppData\Local\Temp\ccL2g2h3.s:20071  .debug_str:0000000000001d46 .LASF17
C:\Users\stapi\AppData\Local\Temp\ccL2g2h3.s:19543  .debug_str:0000000000000c5a .LASF18
C:\Users\stapi\AppData\Local\Temp\ccL2g2h3.s:19639  .debug_str:0000000000000f95 .LASF19
C:\Users\stapi\AppData\Local\Temp\ccL2g2h3.s:20151  .debug_str:0000000000001f8c .LASF20
C:\Users\stapi\AppData\Local\Temp\ccL2g2h3.s:19317  .debug_str:000000000000057b .LASF21
C:\Users\stapi\AppData\Local\Temp\ccL2g2h3.s:19371  .debug_str:000000000000071c .LASF22
C:\Users\stapi\AppData\Local\Temp\ccL2g2h3.s:19697  .debug_str:0000000000001111 .LASF23
C:\Users\stapi\AppData\Local\Temp\ccL2g2h3.s:20589  .debug_str:0000000000002dc1 .LASF24
C:\Users\stapi\AppData\Local\Temp\ccL2g2h3.s:19925  .debug_str:00000000000017c5 .LASF25
C:\Users\stapi\AppData\Local\Temp\ccL2g2h3.s:20315  .debug_str:00000000000024f0 .LASF26
C:\Users\stapi\AppData\Local\Temp\ccL2g2h3.s:20619  .debug_str:0000000000002ea1 .LASF27
C:\Users\stapi\AppData\Local\Temp\ccL2g2h3.s:19723  .debug_str:00000000000011c9 .LASF28
C:\Users\stapi\AppData\Local\Temp\ccL2g2h3.s:19865  .debug_str:0000000000001604 .LASF29
C:\Users\stapi\AppData\Local\Temp\ccL2g2h3.s:20525  .debug_str:0000000000002baf .LASF30
C:\Users\stapi\AppData\Local\Temp\ccL2g2h3.s:19999  .debug_str:0000000000001a1e .LASF31
C:\Users\stapi\AppData\Local\Temp\ccL2g2h3.s:19847  .debug_str:00000000000015a9 .LASF32
C:\Users\stapi\AppData\Local\Temp\ccL2g2h3.s:20323  .debug_str:0000000000002512 .LASF33
C:\Users\stapi\AppData\Local\Temp\ccL2g2h3.s:19497  .debug_str:0000000000000aeb .LASF34
C:\Users\stapi\AppData\Local\Temp\ccL2g2h3.s:19807  .debug_str:000000000000148f .LASF35
C:\Users\stapi\AppData\Local\Temp\ccL2g2h3.s:20221  .debug_str:0000000000002217 .LASF36
C:\Users\stapi\AppData\Local\Temp\ccL2g2h3.s:19773  .debug_str:000000000000138b .LASF37
C:\Users\stapi\AppData\Local\Temp\ccL2g2h3.s:19963  .debug_str:0000000000001904 .LASF38
C:\Users\stapi\AppData\Local\Temp\ccL2g2h3.s:19851  .debug_str:00000000000015bd .LASF39
C:\Users\stapi\AppData\Local\Temp\ccL2g2h3.s:19869  .debug_str:0000000000001614 .LASF40
C:\Users\stapi\AppData\Local\Temp\ccL2g2h3.s:20393  .debug_str:000000000000276b .LASF41
C:\Users\stapi\AppData\Local\Temp\ccL2g2h3.s:19273  .debug_str:0000000000000407 .LASF42
C:\Users\stapi\AppData\Local\Temp\ccL2g2h3.s:20217  .debug_str:00000000000021f6 .LASF43
C:\Users\stapi\AppData\Local\Temp\ccL2g2h3.s:19567  .debug_str:0000000000000d10 .LASF44
C:\Users\stapi\AppData\Local\Temp\ccL2g2h3.s:19713  .debug_str:000000000000117f .LASF45
C:\Users\stapi\AppData\Local\Temp\ccL2g2h3.s:20157  .debug_str:0000000000001fc1 .LASF46
C:\Users\stapi\AppData\Local\Temp\ccL2g2h3.s:20201  .debug_str:0000000000002177 .LASF47
C:\Users\stapi\AppData\Local\Temp\ccL2g2h3.s:20197  .debug_str:0000000000002167 .LASF48
C:\Users\stapi\AppData\Local\Temp\ccL2g2h3.s:20555  .debug_str:0000000000002cb9 .LASF49
C:\Users\stapi\AppData\Local\Temp\ccL2g2h3.s:20305  .debug_str:0000000000002495 .LASF50
C:\Users\stapi\AppData\Local\Temp\ccL2g2h3.s:20521  .debug_str:0000000000002b9e .LASF51
C:\Users\stapi\AppData\Local\Temp\ccL2g2h3.s:20167  .debug_str:0000000000001ffe .LASF58
C:\Users\stapi\AppData\Local\Temp\ccL2g2h3.s:19237  .debug_str:00000000000002f8 .LASF52
C:\Users\stapi\AppData\Local\Temp\ccL2g2h3.s:19191  .debug_str:000000000000015f .LASF53
C:\Users\stapi\AppData\Local\Temp\ccL2g2h3.s:20355  .debug_str:00000000000025fa .LASF54
C:\Users\stapi\AppData\Local\Temp\ccL2g2h3.s:20311  .debug_str:00000000000024c2 .LASF55
C:\Users\stapi\AppData\Local\Temp\ccL2g2h3.s:20645  .debug_str:0000000000002f7f .LASF56
C:\Users\stapi\AppData\Local\Temp\ccL2g2h3.s:20169  .debug_str:0000000000002003 .LASF57
C:\Users\stapi\AppData\Local\Temp\ccL2g2h3.s:19833  .debug_str:0000000000001549 .LASF59
C:\Users\stapi\AppData\Local\Temp\ccL2g2h3.s:19683  .debug_str:00000000000010bd .LASF60
C:\Users\stapi\AppData\Local\Temp\ccL2g2h3.s:19653  .debug_str:0000000000001001 .LASF61
C:\Users\stapi\AppData\Local\Temp\ccL2g2h3.s:20267  .debug_str:0000000000002386 .LASF62
C:\Users\stapi\AppData\Local\Temp\ccL2g2h3.s:20599  .debug_str:0000000000002e0b .LASF63
C:\Users\stapi\AppData\Local\Temp\ccL2g2h3.s:19403  .debug_str:000000000000080b .LASF64
C:\Users\stapi\AppData\Local\Temp\ccL2g2h3.s:20401  .debug_str:00000000000027ac .LASF65
C:\Users\stapi\AppData\Local\Temp\ccL2g2h3.s:19957  .debug_str:00000000000018d4 .LASF66
C:\Users\stapi\AppData\Local\Temp\ccL2g2h3.s:19559  .debug_str:0000000000000ce7 .LASF67
C:\Users\stapi\AppData\Local\Temp\ccL2g2h3.s:19185  .debug_str:0000000000000123 .LASF68
C:\Users\stapi\AppData\Local\Temp\ccL2g2h3.s:19277  .debug_str:000000000000041e .LASF69
C:\Users\stapi\AppData\Local\Temp\ccL2g2h3.s:20271  .debug_str:00000000000023a3 .LASF70
C:\Users\stapi\AppData\Local\Temp\ccL2g2h3.s:20345  .debug_str:00000000000025c0 .LASF71
C:\Users\stapi\AppData\Local\Temp\ccL2g2h3.s:19243  .debug_str:000000000000030e .LASF72
C:\Users\stapi\AppData\Local\Temp\ccL2g2h3.s:20087  .debug_str:0000000000001da9 .LASF73
C:\Users\stapi\AppData\Local\Temp\ccL2g2h3.s:19811  .debug_str:00000000000014b0 .LASF74
C:\Users\stapi\AppData\Local\Temp\ccL2g2h3.s:19383  .debug_str:0000000000000778 .LASF75
C:\Users\stapi\AppData\Local\Temp\ccL2g2h3.s:19447  .debug_str:000000000000098c .LASF76
C:\Users\stapi\AppData\Local\Temp\ccL2g2h3.s:19621  .debug_str:0000000000000ef9 .LASF77
C:\Users\stapi\AppData\Local\Temp\ccL2g2h3.s:19515  .debug_str:0000000000000b8b .LASF78
C:\Users\stapi\AppData\Local\Temp\ccL2g2h3.s:19209  .debug_str:00000000000001fd .LASF79
C:\Users\stapi\AppData\Local\Temp\ccL2g2h3.s:20279  .debug_str:00000000000023ca .LASF80
C:\Users\stapi\AppData\Local\Temp\ccL2g2h3.s:19797  .debug_str:0000000000001444 .LASF81
C:\Users\stapi\AppData\Local\Temp\ccL2g2h3.s:19715  .debug_str:0000000000001189 .LASF82
C:\Users\stapi\AppData\Local\Temp\ccL2g2h3.s:20261  .debug_str:0000000000002352 .LASF83
C:\Users\stapi\AppData\Local\Temp\ccL2g2h3.s:19341  .debug_str:00000000000005f6 .LASF84
C:\Users\stapi\AppData\Local\Temp\ccL2g2h3.s:20007  .debug_str:0000000000001a5c .LASF85
C:\Users\stapi\AppData\Local\Temp\ccL2g2h3.s:20079  .debug_str:0000000000001d6b .LASF86
C:\Users\stapi\AppData\Local\Temp\ccL2g2h3.s:20063  .debug_str:0000000000001cfa .LASF87
C:\Users\stapi\AppData\Local\Temp\ccL2g2h3.s:19513  .debug_str:0000000000000b84 .LASF88
C:\Users\stapi\AppData\Local\Temp\ccL2g2h3.s:19671  .debug_str:0000000000001081 .LASF89
C:\Users\stapi\AppData\Local\Temp\ccL2g2h3.s:20351  .debug_str:00000000000025e3 .LASF90
C:\Users\stapi\AppData\Local\Temp\ccL2g2h3.s:19975  .debug_str:0000000000001950 .LASF91
C:\Users\stapi\AppData\Local\Temp\ccL2g2h3.s:19563  .debug_str:0000000000000cf6 .LASF92
C:\Users\stapi\AppData\Local\Temp\ccL2g2h3.s:19673  .debug_str:0000000000001088 .LASF93
C:\Users\stapi\AppData\Local\Temp\ccL2g2h3.s:19535  .debug_str:0000000000000c22 .LASF94
C:\Users\stapi\AppData\Local\Temp\ccL2g2h3.s:19539  .debug_str:0000000000000c43 .LASF95
C:\Users\stapi\AppData\Local\Temp\ccL2g2h3.s:20617  .debug_str:0000000000002e98 .LASF96
C:\Users\stapi\AppData\Local\Temp\ccL2g2h3.s:20343  .debug_str:00000000000025ba .LASF97
C:\Users\stapi\AppData\Local\Temp\ccL2g2h3.s:19335  .debug_str:00000000000005db .LASF98
C:\Users\stapi\AppData\Local\Temp\ccL2g2h3.s:19219  .debug_str:0000000000000268 .LASF99
C:\Users\stapi\AppData\Local\Temp\ccL2g2h3.s:19503  .debug_str:0000000000000b37 .LASF100
C:\Users\stapi\AppData\Local\Temp\ccL2g2h3.s:20293  .debug_str:000000000000244e .LASF101
C:\Users\stapi\AppData\Local\Temp\ccL2g2h3.s:19213  .debug_str:000000000000021e .LASF102
C:\Users\stapi\AppData\Local\Temp\ccL2g2h3.s:20019  .debug_str:0000000000001aac .LASF103
C:\Users\stapi\AppData\Local\Temp\ccL2g2h3.s:19785  .debug_str:00000000000013f8 .LASF104
C:\Users\stapi\AppData\Local\Temp\ccL2g2h3.s:19357  .debug_str:0000000000000698 .LASF105
C:\Users\stapi\AppData\Local\Temp\ccL2g2h3.s:20347  .debug_str:00000000000025c5 .LASF106
C:\Users\stapi\AppData\Local\Temp\ccL2g2h3.s:19541  .debug_str:0000000000000c4b .LASF107
C:\Users\stapi\AppData\Local\Temp\ccL2g2h3.s:19223  .debug_str:0000000000000283 .LASF108
C:\Users\stapi\AppData\Local\Temp\ccL2g2h3.s:20477  .debug_str:0000000000002a2c .LASF109
C:\Users\stapi\AppData\Local\Temp\ccL2g2h3.s:19613  .debug_str:0000000000000ea4 .LASF110
C:\Users\stapi\AppData\Local\Temp\ccL2g2h3.s:19837  .debug_str:0000000000001566 .LASF111
C:\Users\stapi\AppData\Local\Temp\ccL2g2h3.s:19283  .debug_str:0000000000000434 .LASF112
C:\Users\stapi\AppData\Local\Temp\ccL2g2h3.s:20257  .debug_str:0000000000002332 .LASF113
C:\Users\stapi\AppData\Local\Temp\ccL2g2h3.s:20611  .debug_str:0000000000002e6b .LASF114
C:\Users\stapi\AppData\Local\Temp\ccL2g2h3.s:20579  .debug_str:0000000000002d7a .LASF115
C:\Users\stapi\AppData\Local\Temp\ccL2g2h3.s:19729  .debug_str:00000000000011f7 .LASF116
C:\Users\stapi\AppData\Local\Temp\ccL2g2h3.s:19427  .debug_str:00000000000008c9 .LASF117
C:\Users\stapi\AppData\Local\Temp\ccL2g2h3.s:19413  .debug_str:0000000000000860 .LASF118
C:\Users\stapi\AppData\Local\Temp\ccL2g2h3.s:19423  .debug_str:00000000000008a8 .LASF119
C:\Users\stapi\AppData\Local\Temp\ccL2g2h3.s:19169  .debug_str:00000000000000ab .LASF120
C:\Users\stapi\AppData\Local\Temp\ccL2g2h3.s:20487  .debug_str:0000000000002a96 .LASF121
C:\Users\stapi\AppData\Local\Temp\ccL2g2h3.s:19929  .debug_str:00000000000017e2 .LASF122
C:\Users\stapi\AppData\Local\Temp\ccL2g2h3.s:20301  .debug_str:000000000000247e .LASF123
C:\Users\stapi\AppData\Local\Temp\ccL2g2h3.s:20407  .debug_str:00000000000027dd .LASF124
C:\Users\stapi\AppData\Local\Temp\ccL2g2h3.s:20097  .debug_str:0000000000001e09 .LASF125
C:\Users\stapi\AppData\Local\Temp\ccL2g2h3.s:19151  .debug_str:0000000000000015 .LASF126
C:\Users\stapi\AppData\Local\Temp\ccL2g2h3.s:20209  .debug_str:00000000000021ac .LASF127
C:\Users\stapi\AppData\Local\Temp\ccL2g2h3.s:20241  .debug_str:00000000000022a3 .LASF128
C:\Users\stapi\AppData\Local\Temp\ccL2g2h3.s:20481  .debug_str:0000000000002a49 .LASF129
C:\Users\stapi\AppData\Local\Temp\ccL2g2h3.s:20533  .debug_str:0000000000002c03 .LASF130
C:\Users\stapi\AppData\Local\Temp\ccL2g2h3.s:20551  .debug_str:0000000000002ca4 .LASF131
C:\Users\stapi\AppData\Local\Temp\ccL2g2h3.s:19331  .debug_str:00000000000005bc .LASF132
C:\Users\stapi\AppData\Local\Temp\ccL2g2h3.s:20529  .debug_str:0000000000002bd2 .LASF133
C:\Users\stapi\AppData\Local\Temp\ccL2g2h3.s:19251  .debug_str:0000000000000352 .LASF134
C:\Users\stapi\AppData\Local\Temp\ccL2g2h3.s:20423  .debug_str:000000000000286f .LASF135
C:\Users\stapi\AppData\Local\Temp\ccL2g2h3.s:19523  .debug_str:0000000000000bd0 .LASF136
C:\Users\stapi\AppData\Local\Temp\ccL2g2h3.s:19525  .debug_str:0000000000000bdf .LASF137
C:\Users\stapi\AppData\Local\Temp\ccL2g2h3.s:19527  .debug_str:0000000000000bee .LASF138
C:\Users\stapi\AppData\Local\Temp\ccL2g2h3.s:19665  .debug_str:0000000000001057 .LASF139
C:\Users\stapi\AppData\Local\Temp\ccL2g2h3.s:20595  .debug_str:0000000000002de0 .LASF140
C:\Users\stapi\AppData\Local\Temp\ccL2g2h3.s:19179  .debug_str:00000000000000e4 .LASF141
C:\Users\stapi\AppData\Local\Temp\ccL2g2h3.s:19381  .debug_str:0000000000000766 .LASF142
C:\Users\stapi\AppData\Local\Temp\ccL2g2h3.s:19487  .debug_str:0000000000000aa4 .LASF143
C:\Users\stapi\AppData\Local\Temp\ccL2g2h3.s:19149  .debug_str:0000000000000000 .LASF144
C:\Users\stapi\AppData\Local\Temp\ccL2g2h3.s:20629  .debug_str:0000000000002eda .LASF145
C:\Users\stapi\AppData\Local\Temp\ccL2g2h3.s:19901  .debug_str:00000000000016e8 .LASF146
C:\Users\stapi\AppData\Local\Temp\ccL2g2h3.s:20051  .debug_str:0000000000001c8c .LASF147
C:\Users\stapi\AppData\Local\Temp\ccL2g2h3.s:19419  .debug_str:0000000000000890 .LASF148
C:\Users\stapi\AppData\Local\Temp\ccL2g2h3.s:19323  .debug_str:0000000000000598 .LASF149
C:\Users\stapi\AppData\Local\Temp\ccL2g2h3.s:20253  .debug_str:00000000000022fd .LASF150
C:\Users\stapi\AppData\Local\Temp\ccL2g2h3.s:20527  .debug_str:0000000000002bbe .LASF151
C:\Users\stapi\AppData\Local\Temp\ccL2g2h3.s:19815  .debug_str:00000000000014d5 .LASF152
C:\Users\stapi\AppData\Local\Temp\ccL2g2h3.s:20451  .debug_str:000000000000295c .LASF153
C:\Users\stapi\AppData\Local\Temp\ccL2g2h3.s:20287  .debug_str:000000000000240b .LASF154
C:\Users\stapi\AppData\Local\Temp\ccL2g2h3.s:20413  .debug_str:0000000000002816 .LASF155
C:\Users\stapi\AppData\Local\Temp\ccL2g2h3.s:20115  .debug_str:0000000000001e9e .LASF156
C:\Users\stapi\AppData\Local\Temp\ccL2g2h3.s:19937  .debug_str:0000000000001825 .LASF157
C:\Users\stapi\AppData\Local\Temp\ccL2g2h3.s:20069  .debug_str:0000000000001d2b .LASF158
C:\Users\stapi\AppData\Local\Temp\ccL2g2h3.s:20045  .debug_str:0000000000001c4e .LASF159
C:\Users\stapi\AppData\Local\Temp\ccL2g2h3.s:19247  .debug_str:000000000000032c .LASF160
C:\Users\stapi\AppData\Local\Temp\ccL2g2h3.s:19607  .debug_str:0000000000000e6f .LASF161
C:\Users\stapi\AppData\Local\Temp\ccL2g2h3.s:20575  .debug_str:0000000000002d56 .LASF162
C:\Users\stapi\AppData\Local\Temp\ccL2g2h3.s:20417  .debug_str:000000000000283a .LASF163
C:\Users\stapi\AppData\Local\Temp\ccL2g2h3.s:20549  .debug_str:0000000000002c89 .LASF164
C:\Users\stapi\AppData\Local\Temp\ccL2g2h3.s:19229  .debug_str:00000000000002bb .LASF165
C:\Users\stapi\AppData\Local\Temp\ccL2g2h3.s:20581  .debug_str:0000000000002d8b .LASF166
C:\Users\stapi\AppData\Local\Temp\ccL2g2h3.s:19207  .debug_str:00000000000001e2 .LASF167
C:\Users\stapi\AppData\Local\Temp\ccL2g2h3.s:19783  .debug_str:00000000000013d8 .LASF168
C:\Users\stapi\AppData\Local\Temp\ccL2g2h3.s:19637  .debug_str:0000000000000f75 .LASF169
C:\Users\stapi\AppData\Local\Temp\ccL2g2h3.s:19757  .debug_str:00000000000012ce .LASF170
C:\Users\stapi\AppData\Local\Temp\ccL2g2h3.s:19501  .debug_str:0000000000000b17 .LASF171
C:\Users\stapi\AppData\Local\Temp\ccL2g2h3.s:19343  .debug_str:00000000000005fc .LASF172
C:\Users\stapi\AppData\Local\Temp\ccL2g2h3.s:19469  .debug_str:0000000000000a14 .LASF173
C:\Users\stapi\AppData\Local\Temp\ccL2g2h3.s:19631  .debug_str:0000000000000f38 .LASF174
C:\Users\stapi\AppData\Local\Temp\ccL2g2h3.s:20335  .debug_str:0000000000002569 .LASF175
C:\Users\stapi\AppData\Local\Temp\ccL2g2h3.s:19215  .debug_str:000000000000022f .LASF176
C:\Users\stapi\AppData\Local\Temp\ccL2g2h3.s:19919  .debug_str:000000000000178d .LASF177
C:\Users\stapi\AppData\Local\Temp\ccL2g2h3.s:19765  .debug_str:0000000000001337 .LASF178
C:\Users\stapi\AppData\Local\Temp\ccL2g2h3.s:19891  .debug_str:0000000000001696 .LASF179
C:\Users\stapi\AppData\Local\Temp\ccL2g2h3.s:20093  .debug_str:0000000000001dd8 .LASF180
C:\Users\stapi\AppData\Local\Temp\ccL2g2h3.s:19253  .debug_str:0000000000000358 .LASF181
C:\Users\stapi\AppData\Local\Temp\ccL2g2h3.s:20061  .debug_str:0000000000001cda .LASF182
C:\Users\stapi\AppData\Local\Temp\ccL2g2h3.s:20049  .debug_str:0000000000001c75 .LASF183
C:\Users\stapi\AppData\Local\Temp\ccL2g2h3.s:20265  .debug_str:000000000000236f .LASF184
C:\Users\stapi\AppData\Local\Temp\ccL2g2h3.s:19601  .debug_str:0000000000000e29 .LASF185
C:\Users\stapi\AppData\Local\Temp\ccL2g2h3.s:19309  .debug_str:0000000000000537 .LASF186
C:\Users\stapi\AppData\Local\Temp\ccL2g2h3.s:20439  .debug_str:00000000000028e1 .LASF187
C:\Users\stapi\AppData\Local\Temp\ccL2g2h3.s:20099  .debug_str:0000000000001e1d .LASF188
C:\Users\stapi\AppData\Local\Temp\ccL2g2h3.s:20043  .debug_str:0000000000001c32 .LASF189
C:\Users\stapi\AppData\Local\Temp\ccL2g2h3.s:19737  .debug_str:0000000000001238 .LASF190
C:\Users\stapi\AppData\Local\Temp\ccL2g2h3.s:19993  .debug_str:00000000000019e7 .LASF191
C:\Users\stapi\AppData\Local\Temp\ccL2g2h3.s:20203  .debug_str:0000000000002180 .LASF192
C:\Users\stapi\AppData\Local\Temp\ccL2g2h3.s:20249  .debug_str:00000000000022de .LASF193
C:\Users\stapi\AppData\Local\Temp\ccL2g2h3.s:19913  .debug_str:0000000000001760 .LASF194
C:\Users\stapi\AppData\Local\Temp\ccL2g2h3.s:19961  .debug_str:00000000000018e9 .LASF195
C:\Users\stapi\AppData\Local\Temp\ccL2g2h3.s:20111  .debug_str:0000000000001e7a .LASF196
C:\Users\stapi\AppData\Local\Temp\ccL2g2h3.s:19519  .debug_str:0000000000000ba9 .LASF197
C:\Users\stapi\AppData\Local\Temp\ccL2g2h3.s:19377  .debug_str:000000000000073a .LASF198
C:\Users\stapi\AppData\Local\Temp\ccL2g2h3.s:19499  .debug_str:0000000000000af7 .LASF199
C:\Users\stapi\AppData\Local\Temp\ccL2g2h3.s:19453  .debug_str:00000000000009b9 .LASF200
C:\Users\stapi\AppData\Local\Temp\ccL2g2h3.s:19299  .debug_str:00000000000004b4 .LASF201
C:\Users\stapi\AppData\Local\Temp\ccL2g2h3.s:19435  .debug_str:000000000000092c .LASF202
C:\Users\stapi\AppData\Local\Temp\ccL2g2h3.s:19159  .debug_str:000000000000005e .LASF203
C:\Users\stapi\AppData\Local\Temp\ccL2g2h3.s:20485  .debug_str:0000000000002a7a .LASF204
C:\Users\stapi\AppData\Local\Temp\ccL2g2h3.s:20631  .debug_str:0000000000002eec .LASF205
C:\Users\stapi\AppData\Local\Temp\ccL2g2h3.s:20325  .debug_str:000000000000251a .LASF206
C:\Users\stapi\AppData\Local\Temp\ccL2g2h3.s:19483  .debug_str:0000000000000a7a .LASF207
C:\Users\stapi\AppData\Local\Temp\ccL2g2h3.s:20541  .debug_str:0000000000002c39 .LASF208
C:\Users\stapi\AppData\Local\Temp\ccL2g2h3.s:19571  .debug_str:0000000000000d22 .LASF209
C:\Users\stapi\AppData\Local\Temp\ccL2g2h3.s:19439  .debug_str:0000000000000951 .LASF210
C:\Users\stapi\AppData\Local\Temp\ccL2g2h3.s:19547  .debug_str:0000000000000c7a .LASF211
C:\Users\stapi\AppData\Local\Temp\ccL2g2h3.s:19731  .debug_str:0000000000001208 .LASF212
C:\Users\stapi\AppData\Local\Temp\ccL2g2h3.s:19577  .debug_str:0000000000000d66 .LASF213
C:\Users\stapi\AppData\Local\Temp\ccL2g2h3.s:19705  .debug_str:0000000000001137 .LASF214
C:\Users\stapi\AppData\Local\Temp\ccL2g2h3.s:19183  .debug_str:0000000000000107 .LASF215
C:\Users\stapi\AppData\Local\Temp\ccL2g2h3.s:20513  .debug_str:0000000000002b5a .LASF216
C:\Users\stapi\AppData\Local\Temp\ccL2g2h3.s:19157  .debug_str:0000000000000042 .LASF217
C:\Users\stapi\AppData\Local\Temp\ccL2g2h3.s:20473  .debug_str:00000000000029f8 .LASF218
C:\Users\stapi\AppData\Local\Temp\ccL2g2h3.s:20307  .debug_str:000000000000249e .LASF219
C:\Users\stapi\AppData\Local\Temp\ccL2g2h3.s:20443  .debug_str:0000000000002904 .LASF220
C:\Users\stapi\AppData\Local\Temp\ccL2g2h3.s:20635  .debug_str:0000000000002f14 .LASF221
C:\Users\stapi\AppData\Local\Temp\ccL2g2h3.s:20601  .debug_str:0000000000002e1b .LASF222
C:\Users\stapi\AppData\Local\Temp\ccL2g2h3.s:19721  .debug_str:00000000000011b1 .LASF223
C:\Users\stapi\AppData\Local\Temp\ccL2g2h3.s:19405  .debug_str:0000000000000815 .LASF224
C:\Users\stapi\AppData\Local\Temp\ccL2g2h3.s:20467  .debug_str:00000000000029d1 .LASF225
C:\Users\stapi\AppData\Local\Temp\ccL2g2h3.s:20105  .debug_str:0000000000001e4d .LASF226
C:\Users\stapi\AppData\Local\Temp\ccL2g2h3.s:20135  .debug_str:0000000000001f2f .LASF227
C:\Users\stapi\AppData\Local\Temp\ccL2g2h3.s:19795  .debug_str:0000000000001433 .LASF228
C:\Users\stapi\AppData\Local\Temp\ccL2g2h3.s:19893  .debug_str:00000000000016b6 .LASF229
C:\Users\stapi\AppData\Local\Temp\ccL2g2h3.s:20161  .debug_str:0000000000001fd7 .LASF230
C:\Users\stapi\AppData\Local\Temp\ccL2g2h3.s:20281  .debug_str:00000000000023d1 .LASF231
C:\Users\stapi\AppData\Local\Temp\ccL2g2h3.s:20445  .debug_str:000000000000291f .LASF232
C:\Users\stapi\AppData\Local\Temp\ccL2g2h3.s:20489  .debug_str:0000000000002aa2 .LASF233
C:\Users\stapi\AppData\Local\Temp\ccL2g2h3.s:19827  .debug_str:0000000000001526 .LASF234
C:\Users\stapi\AppData\Local\Temp\ccL2g2h3.s:20331  .debug_str:0000000000002551 .LASF235
C:\Users\stapi\AppData\Local\Temp\ccL2g2h3.s:20123  .debug_str:0000000000001eef .LASF236
C:\Users\stapi\AppData\Local\Temp\ccL2g2h3.s:20263  .debug_str:0000000000002359 .LASF237
C:\Users\stapi\AppData\Local\Temp\ccL2g2h3.s:19545  .debug_str:0000000000000c63 .LASF238
C:\Users\stapi\AppData\Local\Temp\ccL2g2h3.s:19263  .debug_str:00000000000003cf .LASF239
C:\Users\stapi\AppData\Local\Temp\ccL2g2h3.s:19825  .debug_str:0000000000001516 .LASF240
C:\Users\stapi\AppData\Local\Temp\ccL2g2h3.s:19931  .debug_str:00000000000017f0 .LASF241
C:\Users\stapi\AppData\Local\Temp\ccL2g2h3.s:19775  .debug_str:0000000000001392 .LASF242
C:\Users\stapi\AppData\Local\Temp\ccL2g2h3.s:20639  .debug_str:0000000000002f41 .LASF243
C:\Users\stapi\AppData\Local\Temp\ccL2g2h3.s:19445  .debug_str:0000000000000987 .LASF244
C:\Users\stapi\AppData\Local\Temp\ccL2g2h3.s:19465  .debug_str:0000000000000a0a .LASF245
C:\Users\stapi\AppData\Local\Temp\ccL2g2h3.s:19881  .debug_str:000000000000165c .LASF246
C:\Users\stapi\AppData\Local\Temp\ccL2g2h3.s:19849  .debug_str:00000000000015b8 .LASF247
C:\Users\stapi\AppData\Local\Temp\ccL2g2h3.s:20519  .debug_str:0000000000002b96 .LASF248
C:\Users\stapi\AppData\Local\Temp\ccL2g2h3.s:19391  .debug_str:00000000000007b2 .LASF249
C:\Users\stapi\AppData\Local\Temp\ccL2g2h3.s:20359  .debug_str:0000000000002617 .LASF250
C:\Users\stapi\AppData\Local\Temp\ccL2g2h3.s:20121  .debug_str:0000000000001ed6 .LASF251
C:\Users\stapi\AppData\Local\Temp\ccL2g2h3.s:19163  .debug_str:0000000000000083 .LASF252
C:\Users\stapi\AppData\Local\Temp\ccL2g2h3.s:19997  .debug_str:0000000000001a14 .LASF253
C:\Users\stapi\AppData\Local\Temp\ccL2g2h3.s:20273  .debug_str:00000000000023a8 .LASF254
C:\Users\stapi\AppData\Local\Temp\ccL2g2h3.s:19859  .debug_str:00000000000015e5 .LASF255
C:\Users\stapi\AppData\Local\Temp\ccL2g2h3.s:19583  .debug_str:0000000000000da7 .LASF256
C:\Users\stapi\AppData\Local\Temp\ccL2g2h3.s:19605  .debug_str:0000000000000e5f .LASF257
C:\Users\stapi\AppData\Local\Temp\ccL2g2h3.s:19529  .debug_str:0000000000000bfd .LASF258
C:\Users\stapi\AppData\Local\Temp\ccL2g2h3.s:20085  .debug_str:0000000000001d98 .LASF259
C:\Users\stapi\AppData\Local\Temp\ccL2g2h3.s:19353  .debug_str:0000000000000685 .LASF260
C:\Users\stapi\AppData\Local\Temp\ccL2g2h3.s:20339  .debug_str:0000000000002599 .LASF261
C:\Users\stapi\AppData\Local\Temp\ccL2g2h3.s:19669  .debug_str:000000000000106d .LASF262
C:\Users\stapi\AppData\Local\Temp\ccL2g2h3.s:20571  .debug_str:0000000000002d34 .LASF263
C:\Users\stapi\AppData\Local\Temp\ccL2g2h3.s:19257  .debug_str:0000000000000380 .LASF264
C:\Users\stapi\AppData\Local\Temp\ccL2g2h3.s:20211  .debug_str:00000000000021b3 .LASF265
C:\Users\stapi\AppData\Local\Temp\ccL2g2h3.s:19551  .debug_str:0000000000000ca2 .LASF266
C:\Users\stapi\AppData\Local\Temp\ccL2g2h3.s:20223  .debug_str:0000000000002220 .LASF267
C:\Users\stapi\AppData\Local\Temp\ccL2g2h3.s:19819  .debug_str:00000000000014f0 .LASF268
C:\Users\stapi\AppData\Local\Temp\ccL2g2h3.s:19203  .debug_str:00000000000001b7 .LASF269
C:\Users\stapi\AppData\Local\Temp\ccL2g2h3.s:19903  .debug_str:00000000000016fa .LASF270
C:\Users\stapi\AppData\Local\Temp\ccL2g2h3.s:19259  .debug_str:0000000000000399 .LASF271
C:\Users\stapi\AppData\Local\Temp\ccL2g2h3.s:20391  .debug_str:0000000000002752 .LASF272
C:\Users\stapi\AppData\Local\Temp\ccL2g2h3.s:20597  .debug_str:0000000000002df2 .LASF273
C:\Users\stapi\AppData\Local\Temp\ccL2g2h3.s:20015  .debug_str:0000000000001a8c .LASF274
C:\Users\stapi\AppData\Local\Temp\ccL2g2h3.s:20429  .debug_str:0000000000002890 .LASF275
C:\Users\stapi\AppData\Local\Temp\ccL2g2h3.s:19431  .debug_str:00000000000008fc .LASF276
C:\Users\stapi\AppData\Local\Temp\ccL2g2h3.s:19745  .debug_str:000000000000127d .LASF277
C:\Users\stapi\AppData\Local\Temp\ccL2g2h3.s:19771  .debug_str:0000000000001384 .LASF278
C:\Users\stapi\AppData\Local\Temp\ccL2g2h3.s:19823  .debug_str:000000000000150f .LASF279
C:\Users\stapi\AppData\Local\Temp\ccL2g2h3.s:20235  .debug_str:0000000000002282 .LASF280
C:\Users\stapi\AppData\Local\Temp\ccL2g2h3.s:19167  .debug_str:0000000000000099 .LASF281
C:\Users\stapi\AppData\Local\Temp\ccL2g2h3.s:19609  .debug_str:0000000000000e8d .LASF282
C:\Users\stapi\AppData\Local\Temp\ccL2g2h3.s:19557  .debug_str:0000000000000ce1 .LASF283
C:\Users\stapi\AppData\Local\Temp\ccL2g2h3.s:20127  .debug_str:0000000000001f12 .LASF284
C:\Users\stapi\AppData\Local\Temp\ccL2g2h3.s:19467  .debug_str:0000000000000a0f .LASF285
C:\Users\stapi\AppData\Local\Temp\ccL2g2h3.s:19401  .debug_str:0000000000000805 .LASF286
C:\Users\stapi\AppData\Local\Temp\ccL2g2h3.s:20145  .debug_str:0000000000001f72 .LASF287
C:\Users\stapi\AppData\Local\Temp\ccL2g2h3.s:19923  .debug_str:00000000000017be .LASF288
C:\Users\stapi\AppData\Local\Temp\ccL2g2h3.s:20073  .debug_str:0000000000001d4f .LASF289
C:\Users\stapi\AppData\Local\Temp\ccL2g2h3.s:20357  .debug_str:0000000000002602 .LASF290
C:\Users\stapi\AppData\Local\Temp\ccL2g2h3.s:20247  .debug_str:00000000000022d1 .LASF291
C:\Users\stapi\AppData\Local\Temp\ccL2g2h3.s:20187  .debug_str:000000000000210d .LASF292
C:\Users\stapi\AppData\Local\Temp\ccL2g2h3.s:19995  .debug_str:0000000000001a05 .LASF293
C:\Users\stapi\AppData\Local\Temp\ccL2g2h3.s:19921  .debug_str:00000000000017ad .LASF294
C:\Users\stapi\AppData\Local\Temp\ccL2g2h3.s:20109  .debug_str:0000000000001e66 .LASF295
C:\Users\stapi\AppData\Local\Temp\ccL2g2h3.s:19275  .debug_str:000000000000040d .LASF296
C:\Users\stapi\AppData\Local\Temp\ccL2g2h3.s:20511  .debug_str:0000000000002b47 .LASF297
C:\Users\stapi\AppData\Local\Temp\ccL2g2h3.s:19303  .debug_str:00000000000004f1 .LASF298
C:\Users\stapi\AppData\Local\Temp\ccL2g2h3.s:19531  .debug_str:0000000000000c08 .LASF299
C:\Users\stapi\AppData\Local\Temp\ccL2g2h3.s:20025  .debug_str:0000000000001acb .LASF300
C:\Users\stapi\AppData\Local\Temp\ccL2g2h3.s:19991  .debug_str:00000000000019d5 .LASF301
C:\Users\stapi\AppData\Local\Temp\ccL2g2h3.s:19333  .debug_str:00000000000005c9 .LASF302
C:\Users\stapi\AppData\Local\Temp\ccL2g2h3.s:20269  .debug_str:0000000000002390 .LASF303
C:\Users\stapi\AppData\Local\Temp\ccL2g2h3.s:20001  .debug_str:0000000000001a26 .LASF304
C:\Users\stapi\AppData\Local\Temp\ccL2g2h3.s:20199  .debug_str:0000000000002170 .LASF305
C:\Users\stapi\AppData\Local\Temp\ccL2g2h3.s:19245  .debug_str:000000000000031b .LASF306
C:\Users\stapi\AppData\Local\Temp\ccL2g2h3.s:19725  .debug_str:00000000000011d5 .LASF307
C:\Users\stapi\AppData\Local\Temp\ccL2g2h3.s:19979  .debug_str:0000000000001974 .LASF308
C:\Users\stapi\AppData\Local\Temp\ccL2g2h3.s:19861  .debug_str:00000000000015f1 .LASF309
C:\Users\stapi\AppData\Local\Temp\ccL2g2h3.s:20005  .debug_str:0000000000001a4b .LASF310
C:\Users\stapi\AppData\Local\Temp\ccL2g2h3.s:20215  .debug_str:00000000000021e4 .LASF311
C:\Users\stapi\AppData\Local\Temp\ccL2g2h3.s:19933  .debug_str:0000000000001804 .LASF312
C:\Users\stapi\AppData\Local\Temp\ccL2g2h3.s:19707  .debug_str:0000000000001153 .LASF313
C:\Users\stapi\AppData\Local\Temp\ccL2g2h3.s:19755  .debug_str:00000000000012c9 .LASF314
C:\Users\stapi\AppData\Local\Temp\ccL2g2h3.s:19279  .debug_str:0000000000000423 .LASF315
C:\Users\stapi\AppData\Local\Temp\ccL2g2h3.s:19907  .debug_str:000000000000172a .LASF316
C:\Users\stapi\AppData\Local\Temp\ccL2g2h3.s:20107  .debug_str:0000000000001e5f .LASF317
C:\Users\stapi\AppData\Local\Temp\ccL2g2h3.s:19421  .debug_str:0000000000000898 .LASF318
C:\Users\stapi\AppData\Local\Temp\ccL2g2h3.s:19569  .debug_str:0000000000000d18 .LASF319
C:\Users\stapi\AppData\Local\Temp\ccL2g2h3.s:20091  .debug_str:0000000000001dc7 .LASF320
C:\Users\stapi\AppData\Local\Temp\ccL2g2h3.s:20583  .debug_str:0000000000002da6 .LASF321
C:\Users\stapi\AppData\Local\Temp\ccL2g2h3.s:19271  .debug_str:00000000000003ff .LASF322
C:\Users\stapi\AppData\Local\Temp\ccL2g2h3.s:19227  .debug_str:00000000000002b0 .LASF323
C:\Users\stapi\AppData\Local\Temp\ccL2g2h3.s:19985  .debug_str:00000000000019a7 .LASF324
C:\Users\stapi\AppData\Local\Temp\ccL2g2h3.s:20041  .debug_str:0000000000001c26 .LASF325
C:\Users\stapi\AppData\Local\Temp\ccL2g2h3.s:20039  .debug_str:0000000000001c1a .LASF326
C:\Users\stapi\AppData\Local\Temp\ccL2g2h3.s:20129  .debug_str:0000000000001f18 .LASF327
C:\Users\stapi\AppData\Local\Temp\ccL2g2h3.s:19533  .debug_str:0000000000000c1a .LASF328
C:\Users\stapi\AppData\Local\Temp\ccL2g2h3.s:19329  .debug_str:00000000000005b3 .LASF329
C:\Users\stapi\AppData\Local\Temp\ccL2g2h3.s:20385  .debug_str:0000000000002730 .LASF330
C:\Users\stapi\AppData\Local\Temp\ccL2g2h3.s:20469  .debug_str:00000000000029e7 .LASF331
C:\Users\stapi\AppData\Local\Temp\ccL2g2h3.s:19267  .debug_str:00000000000003ed .LASF332
C:\Users\stapi\AppData\Local\Temp\ccL2g2h3.s:20095  .debug_str:0000000000001df8 .LASF333
C:\Users\stapi\AppData\Local\Temp\ccL2g2h3.s:19195  .debug_str:0000000000000189 .LASF334
C:\Users\stapi\AppData\Local\Temp\ccL2g2h3.s:19883  .debug_str:0000000000001667 .LASF335
C:\Users\stapi\AppData\Local\Temp\ccL2g2h3.s:19625  .debug_str:0000000000000f10 .LASF336
C:\Users\stapi\AppData\Local\Temp\ccL2g2h3.s:19657  .debug_str:0000000000001016 .LASF337
C:\Users\stapi\AppData\Local\Temp\ccL2g2h3.s:19703  .debug_str:000000000000112e .LASF338
C:\Users\stapi\AppData\Local\Temp\ccL2g2h3.s:20421  .debug_str:0000000000002868 .LASF339
C:\Users\stapi\AppData\Local\Temp\ccL2g2h3.s:20147  .debug_str:0000000000001f79 .LASF340
C:\Users\stapi\AppData\Local\Temp\ccL2g2h3.s:20399  .debug_str:00000000000027a1 .LASF341
C:\Users\stapi\AppData\Local\Temp\ccL2g2h3.s:19459  .debug_str:00000000000009f0 .LASF342
C:\Users\stapi\AppData\Local\Temp\ccL2g2h3.s:20027  .debug_str:0000000000001ade .LASF343
C:\Users\stapi\AppData\Local\Temp\ccL2g2h3.s:19629  .debug_str:0000000000000f2e .LASF344
C:\Users\stapi\AppData\Local\Temp\ccL2g2h3.s:19841  .debug_str:000000000000158a .LASF345
C:\Users\stapi\AppData\Local\Temp\ccL2g2h3.s:19727  .debug_str:00000000000011eb .LASF346
C:\Users\stapi\AppData\Local\Temp\ccL2g2h3.s:19319  .debug_str:0000000000000580 .LASF347
C:\Users\stapi\AppData\Local\Temp\ccL2g2h3.s:20435  .debug_str:00000000000028c4 .LASF348
C:\Users\stapi\AppData\Local\Temp\ccL2g2h3.s:20033  .debug_str:0000000000001bf4 .LASF349
C:\Users\stapi\AppData\Local\Temp\ccL2g2h3.s:19429  .debug_str:00000000000008e3 .LASF350
C:\Users\stapi\AppData\Local\Temp\ccL2g2h3.s:19339  .debug_str:00000000000005ea .LASF351
C:\Users\stapi\AppData\Local\Temp\ccL2g2h3.s:19917  .debug_str:0000000000001781 .LASF352
C:\Users\stapi\AppData\Local\Temp\ccL2g2h3.s:19719  .debug_str:00000000000011a2 .LASF353
C:\Users\stapi\AppData\Local\Temp\ccL2g2h3.s:20437  .debug_str:00000000000028d2 .LASF354
C:\Users\stapi\AppData\Local\Temp\ccL2g2h3.s:19509  .debug_str:0000000000000b6e .LASF355
C:\Users\stapi\AppData\Local\Temp\ccL2g2h3.s:20569  .debug_str:0000000000002d20 .LASF356
C:\Users\stapi\AppData\Local\Temp\ccL2g2h3.s:19939  .debug_str:0000000000001840 .LASF357
C:\Users\stapi\AppData\Local\Temp\ccL2g2h3.s:19241  .debug_str:0000000000000306 .LASF358
C:\Users\stapi\AppData\Local\Temp\ccL2g2h3.s:19425  .debug_str:00000000000008ba .LASF359
C:\Users\stapi\AppData\Local\Temp\ccL2g2h3.s:19977  .debug_str:000000000000195e .LASF360
C:\Users\stapi\AppData\Local\Temp\ccL2g2h3.s:19399  .debug_str:00000000000007f9 .LASF361
C:\Users\stapi\AppData\Local\Temp\ccL2g2h3.s:19493  .debug_str:0000000000000ad1 .LASF362
C:\Users\stapi\AppData\Local\Temp\ccL2g2h3.s:19463  .debug_str:0000000000000a02 .LASF363
C:\Users\stapi\AppData\Local\Temp\ccL2g2h3.s:19871  .debug_str:000000000000161d .LASF364
C:\Users\stapi\AppData\Local\Temp\ccL2g2h3.s:19597  .debug_str:0000000000000e13 .LASF365
C:\Users\stapi\AppData\Local\Temp\ccL2g2h3.s:20165  .debug_str:0000000000001fef .LASF366
C:\Users\stapi\AppData\Local\Temp\ccL2g2h3.s:19293  .debug_str:000000000000048a .LASF367
C:\Users\stapi\AppData\Local\Temp\ccL2g2h3.s:20475  .debug_str:0000000000002a13 .LASF368
C:\Users\stapi\AppData\Local\Temp\ccL2g2h3.s:19759  .debug_str:00000000000012ee .LASF369
C:\Users\stapi\AppData\Local\Temp\ccL2g2h3.s:19617  .debug_str:0000000000000ec8 .LASF370
C:\Users\stapi\AppData\Local\Temp\ccL2g2h3.s:19359  .debug_str:00000000000006a7 .LASF371
C:\Users\stapi\AppData\Local\Temp\ccL2g2h3.s:20183  .debug_str:00000000000020de .LASF372
C:\Users\stapi\AppData\Local\Temp\ccL2g2h3.s:19305  .debug_str:0000000000000507 .LASF373
C:\Users\stapi\AppData\Local\Temp\ccL2g2h3.s:19155  .debug_str:0000000000000025 .LASF374
C:\Users\stapi\AppData\Local\Temp\ccL2g2h3.s:19349  .debug_str:000000000000065a .LASF375
C:\Users\stapi\AppData\Local\Temp\ccL2g2h3.s:19769  .debug_str:0000000000001366 .LASF376
C:\Users\stapi\AppData\Local\Temp\ccL2g2h3.s:20313  .debug_str:00000000000024d0 .LASF377
C:\Users\stapi\AppData\Local\Temp\ccL2g2h3.s:20403  .debug_str:00000000000027b7 .LASF378
C:\Users\stapi\AppData\Local\Temp\ccL2g2h3.s:19969  .debug_str:000000000000191d .LASF379
C:\Users\stapi\AppData\Local\Temp\ccL2g2h3.s:20531  .debug_str:0000000000002be9 .LASF380
C:\Users\stapi\AppData\Local\Temp\ccL2g2h3.s:20585  .debug_str:0000000000002dae .LASF381
C:\Users\stapi\AppData\Local\Temp\ccL2g2h3.s:20553  .debug_str:0000000000002cac .LASF382
C:\Users\stapi\AppData\Local\Temp\ccL2g2h3.s:20433  .debug_str:00000000000028b6 .LASF383
C:\Users\stapi\AppData\Local\Temp\ccL2g2h3.s:20291  .debug_str:0000000000002440 .LASF384
C:\Users\stapi\AppData\Local\Temp\ccL2g2h3.s:19517  .debug_str:0000000000000b9b .LASF385
C:\Users\stapi\AppData\Local\Temp\ccL2g2h3.s:20225  .debug_str:0000000000002239 .LASF386
C:\Users\stapi\AppData\Local\Temp\ccL2g2h3.s:20329  .debug_str:000000000000253e .LASF387
C:\Users\stapi\AppData\Local\Temp\ccL2g2h3.s:20643  .debug_str:0000000000002f6c .LASF388
C:\Users\stapi\AppData\Local\Temp\ccL2g2h3.s:19805  .debug_str:0000000000001474 .LASF389
C:\Users\stapi\AppData\Local\Temp\ccL2g2h3.s:19649  .debug_str:0000000000000fce .LASF390
C:\Users\stapi\AppData\Local\Temp\ccL2g2h3.s:19581  .debug_str:0000000000000d8f .LASF391
C:\Users\stapi\AppData\Local\Temp\ccL2g2h3.s:19367  .debug_str:00000000000006f3 .LASF392
C:\Users\stapi\AppData\Local\Temp\ccL2g2h3.s:19915  .debug_str:000000000000177b .LASF393
C:\Users\stapi\AppData\Local\Temp\ccL2g2h3.s:20349  .debug_str:00000000000025d7 .LASF394
C:\Users\stapi\AppData\Local\Temp\ccL2g2h3.s:19281  .debug_str:0000000000000428 .LASF395
C:\Users\stapi\AppData\Local\Temp\ccL2g2h3.s:19663  .debug_str:0000000000001050 .LASF396
C:\Users\stapi\AppData\Local\Temp\ccL2g2h3.s:19473  .debug_str:0000000000000a45 .LASF397
C:\Users\stapi\AppData\Local\Temp\ccL2g2h3.s:20037  .debug_str:0000000000001c09 .LASF398
C:\Users\stapi\AppData\Local\Temp\ccL2g2h3.s:19945  .debug_str:000000000000187f .LASF399
C:\Users\stapi\AppData\Local\Temp\ccL2g2h3.s:20233  .debug_str:000000000000226c .LASF400
C:\Users\stapi\AppData\Local\Temp\ccL2g2h3.s:20077  .debug_str:0000000000001d5d .LASF401
C:\Users\stapi\AppData\Local\Temp\ccL2g2h3.s:20523  .debug_str:0000000000002ba8 .LASF402
C:\Users\stapi\AppData\Local\Temp\ccL2g2h3.s:20029  .debug_str:0000000000001af0 .LASF403
C:\Users\stapi\AppData\Local\Temp\ccL2g2h3.s:20647  .debug_str:0000000000002f85 .LASF404
C:\Users\stapi\AppData\Local\Temp\ccL2g2h3.s:19895  .debug_str:00000000000016c7 .LASF405
C:\Users\stapi\AppData\Local\Temp\ccL2g2h3.s:19687  .debug_str:00000000000010cb .LASF406
C:\Users\stapi\AppData\Local\Temp\ccL2g2h3.s:19177  .debug_str:00000000000000d3 .LASF407
C:\Users\stapi\AppData\Local\Temp\ccL2g2h3.s:19363  .debug_str:00000000000006d2 .LASF408
C:\Users\stapi\AppData\Local\Temp\ccL2g2h3.s:19949  .debug_str:00000000000018a1 .LASF409
C:\Users\stapi\AppData\Local\Temp\ccL2g2h3.s:19803  .debug_str:0000000000001466 .LASF410
C:\Users\stapi\AppData\Local\Temp\ccL2g2h3.s:19951  .debug_str:00000000000018a6 .LASF411
C:\Users\stapi\AppData\Local\Temp\ccL2g2h3.s:20303  .debug_str:000000000000248b .LASF412
C:\Users\stapi\AppData\Local\Temp\ccL2g2h3.s:19495  .debug_str:0000000000000ae1 .LASF413
C:\Users\stapi\AppData\Local\Temp\ccL2g2h3.s:20277  .debug_str:00000000000023be .LASF414
C:\Users\stapi\AppData\Local\Temp\ccL2g2h3.s:20503  .debug_str:0000000000002b0b .LASF415
C:\Users\stapi\AppData\Local\Temp\ccL2g2h3.s:20441  .debug_str:00000000000028fd .LASF416
C:\Users\stapi\AppData\Local\Temp\ccL2g2h3.s:19767  .debug_str:0000000000001357 .LASF417
C:\Users\stapi\AppData\Local\Temp\ccL2g2h3.s:20627  .debug_str:0000000000002ed4 .LASF418
C:\Users\stapi\AppData\Local\Temp\ccL2g2h3.s:20103  .debug_str:0000000000001e42 .LASF419
C:\Users\stapi\AppData\Local\Temp\ccL2g2h3.s:19633  .debug_str:0000000000000f5b .LASF420
C:\Users\stapi\AppData\Local\Temp\ccL2g2h3.s:20065  .debug_str:0000000000001d00 .LASF421
C:\Users\stapi\AppData\Local\Temp\ccL2g2h3.s:20237  .debug_str:000000000000228b .LASF422
C:\Users\stapi\AppData\Local\Temp\ccL2g2h3.s:20243  .debug_str:00000000000022b8 .LASF423
C:\Users\stapi\AppData\Local\Temp\ccL2g2h3.s:19311  .debug_str:0000000000000552 .LASF424
C:\Users\stapi\AppData\Local\Temp\ccL2g2h3.s:19511  .debug_str:0000000000000b76 .LASF425
C:\Users\stapi\AppData\Local\Temp\ccL2g2h3.s:20545  .debug_str:0000000000002c66 .LASF426
C:\Users\stapi\AppData\Local\Temp\ccL2g2h3.s:20283  .debug_str:00000000000023e2 .LASF427
C:\Users\stapi\AppData\Local\Temp\ccL2g2h3.s:19877  .debug_str:0000000000001646 .LASF428
C:\Users\stapi\AppData\Local\Temp\ccL2g2h3.s:19287  .debug_str:0000000000000460 .LASF429
C:\Users\stapi\AppData\Local\Temp\ccL2g2h3.s:19231  .debug_str:00000000000002d6 .LASF430
C:\Users\stapi\AppData\Local\Temp\ccL2g2h3.s:20333  .debug_str:0000000000002562 .LASF431
C:\Users\stapi\AppData\Local\Temp\ccL2g2h3.s:20463  .debug_str:00000000000029c0 .LASF432
C:\Users\stapi\AppData\Local\Temp\ccL2g2h3.s:19291  .debug_str:0000000000000483 .LASF433
C:\Users\stapi\AppData\Local\Temp\ccL2g2h3.s:19201  .debug_str:00000000000001b0 .LASF434
C:\Users\stapi\AppData\Local\Temp\ccL2g2h3.s:20239  .debug_str:000000000000229d .LASF435
C:\Users\stapi\AppData\Local\Temp\ccL2g2h3.s:20381  .debug_str:0000000000002713 .LASF436
C:\Users\stapi\AppData\Local\Temp\ccL2g2h3.s:20035  .debug_str:0000000000001c01 .LASF437
C:\Users\stapi\AppData\Local\Temp\ccL2g2h3.s:19793  .debug_str:0000000000001428 .LASF438
C:\Users\stapi\AppData\Local\Temp\ccL2g2h3.s:20559  .debug_str:0000000000002cd8 .LASF439
C:\Users\stapi\AppData\Local\Temp\ccL2g2h3.s:19249  .debug_str:000000000000034a .LASF440
C:\Users\stapi\AppData\Local\Temp\ccL2g2h3.s:20205  .debug_str:000000000000219c .LASF441
C:\Users\stapi\AppData\Local\Temp\ccL2g2h3.s:19307  .debug_str:0000000000000524 .LASF442
C:\Users\stapi\AppData\Local\Temp\ccL2g2h3.s:19589  .debug_str:0000000000000dd6 .LASF443
C:\Users\stapi\AppData\Local\Temp\ccL2g2h3.s:20259  .debug_str:0000000000002348 .LASF444
C:\Users\stapi\AppData\Local\Temp\ccL2g2h3.s:20409  .debug_str:00000000000027fa .LASF445
C:\Users\stapi\AppData\Local\Temp\ccL2g2h3.s:20565  .debug_str:0000000000002d02 .LASF446
C:\Users\stapi\AppData\Local\Temp\ccL2g2h3.s:20641  .debug_str:0000000000002f57 .LASF447
C:\Users\stapi\AppData\Local\Temp\ccL2g2h3.s:20457  .debug_str:000000000000298d .LASF448
C:\Users\stapi\AppData\Local\Temp\ccL2g2h3.s:20379  .debug_str:000000000000270b .LASF449
C:\Users\stapi\AppData\Local\Temp\ccL2g2h3.s:20499  .debug_str:0000000000002af8 .LASF450
C:\Users\stapi\AppData\Local\Temp\ccL2g2h3.s:19325  .debug_str:000000000000059f .LASF451
C:\Users\stapi\AppData\Local\Temp\ccL2g2h3.s:19897  .debug_str:00000000000016d0 .LASF452
C:\Users\stapi\AppData\Local\Temp\ccL2g2h3.s:19741  .debug_str:000000000000125d .LASF453
C:\Users\stapi\AppData\Local\Temp\ccL2g2h3.s:20427  .debug_str:0000000000002888 .LASF454
C:\Users\stapi\AppData\Local\Temp\ccL2g2h3.s:20605  .debug_str:0000000000002e40 .LASF455
C:\Users\stapi\AppData\Local\Temp\ccL2g2h3.s:19575  .debug_str:0000000000000d5b .LASF456
C:\Users\stapi\AppData\Local\Temp\ccL2g2h3.s:19679  .debug_str:00000000000010ab .LASF457
C:\Users\stapi\AppData\Local\Temp\ccL2g2h3.s:20613  .debug_str:0000000000002e83 .LASF458
C:\Users\stapi\AppData\Local\Temp\ccL2g2h3.s:20501  .debug_str:0000000000002b00 .LASF459
C:\Users\stapi\AppData\Local\Temp\ccL2g2h3.s:20389  .debug_str:0000000000002746 .LASF460
C:\Users\stapi\AppData\Local\Temp\ccL2g2h3.s:20309  .debug_str:00000000000024b9 .LASF461
C:\Users\stapi\AppData\Local\Temp\ccL2g2h3.s:20227  .debug_str:0000000000002247 .LASF462
C:\Users\stapi\AppData\Local\Temp\ccL2g2h3.s:20207  .debug_str:00000000000021a5 .LASF463
C:\Users\stapi\AppData\Local\Temp\ccL2g2h3.s:19695  .debug_str:0000000000001106 .LASF464
C:\Users\stapi\AppData\Local\Temp\ccL2g2h3.s:19393  .debug_str:00000000000007bd .LASF465
C:\Users\stapi\AppData\Local\Temp\ccL2g2h3.s:20011  .debug_str:0000000000001a6e .LASF466
C:\Users\stapi\AppData\Local\Temp\ccL2g2h3.s:19315  .debug_str:000000000000056b .LASF467
C:\Users\stapi\AppData\Local\Temp\ccL2g2h3.s:19659  .debug_str:0000000000001021 .LASF468
C:\Users\stapi\AppData\Local\Temp\ccL2g2h3.s:19595  .debug_str:0000000000000e00 .LASF469
C:\Users\stapi\AppData\Local\Temp\ccL2g2h3.s:20191  .debug_str:0000000000002135 .LASF470
C:\Users\stapi\AppData\Local\Temp\ccL2g2h3.s:20539  .debug_str:0000000000002c33 .LASF471
C:\Users\stapi\AppData\Local\Temp\ccL2g2h3.s:19233  .debug_str:00000000000002e2 .LASF472
C:\Users\stapi\AppData\Local\Temp\ccL2g2h3.s:19829  .debug_str:0000000000001537 .LASF473
C:\Users\stapi\AppData\Local\Temp\ccL2g2h3.s:20023  .debug_str:0000000000001ac5 .LASF474
C:\Users\stapi\AppData\Local\Temp\ccL2g2h3.s:20587  .debug_str:0000000000002db5 .LASF475
C:\Users\stapi\AppData\Local\Temp\ccL2g2h3.s:20633  .debug_str:0000000000002f08 .LASF476
C:\Users\stapi\AppData\Local\Temp\ccL2g2h3.s:20367  .debug_str:00000000000026ba .LASF477
C:\Users\stapi\AppData\Local\Temp\ccL2g2h3.s:19971  .debug_str:0000000000001939 .LASF478
C:\Users\stapi\AppData\Local\Temp\ccL2g2h3.s:20193  .debug_str:0000000000002146 .LASF479
C:\Users\stapi\AppData\Local\Temp\ccL2g2h3.s:19295  .debug_str:00000000000004a4 .LASF480
C:\Users\stapi\AppData\Local\Temp\ccL2g2h3.s:19521  .debug_str:0000000000000bc9 .LASF481
C:\Users\stapi\AppData\Local\Temp\ccL2g2h3.s:19667  .debug_str:0000000000001067 .LASF482
C:\Users\stapi\AppData\Local\Temp\ccL2g2h3.s:19855  .debug_str:00000000000015cc .LASF483
C:\Users\stapi\AppData\Local\Temp\ccL2g2h3.s:19455  .debug_str:00000000000009d5 .LASF484
C:\Users\stapi\AppData\Local\Temp\ccL2g2h3.s:19801  .debug_str:0000000000001457 .LASF485
C:\Users\stapi\AppData\Local\Temp\ccL2g2h3.s:19739  .debug_str:0000000000001254 .LASF486
C:\Users\stapi\AppData\Local\Temp\ccL2g2h3.s:19983  .debug_str:0000000000001998 .LASF487
C:\Users\stapi\AppData\Local\Temp\ccL2g2h3.s:20387  .debug_str:0000000000002737 .LASF488
C:\Users\stapi\AppData\Local\Temp\ccL2g2h3.s:20047  .debug_str:0000000000001c6c .LASF489
C:\Users\stapi\AppData\Local\Temp\ccL2g2h3.s:19373  .debug_str:0000000000000721 .LASF490
C:\Users\stapi\AppData\Local\Temp\ccL2g2h3.s:19635  .debug_str:0000000000000f67 .LASF491
C:\Users\stapi\AppData\Local\Temp\ccL2g2h3.s:19579  .debug_str:0000000000000d82 .LASF492
C:\Users\stapi\AppData\Local\Temp\ccL2g2h3.s:20113  .debug_str:0000000000001e95 .LASF493
C:\Users\stapi\AppData\Local\Temp\ccL2g2h3.s:19437  .debug_str:0000000000000948 .LASF494
C:\Users\stapi\AppData\Local\Temp\ccL2g2h3.s:20621  .debug_str:0000000000002ea9 .LASF495
C:\Users\stapi\AppData\Local\Temp\ccL2g2h3.s:20139  .debug_str:0000000000001f4d .LASF496
C:\Users\stapi\AppData\Local\Temp\ccL2g2h3.s:20089  .debug_str:0000000000001dbc .LASF497
C:\Users\stapi\AppData\Local\Temp\ccL2g2h3.s:19791  .debug_str:0000000000001422 .LASF498
C:\Users\stapi\AppData\Local\Temp\ccL2g2h3.s:19789  .debug_str:000000000000141c .LASF499
C:\Users\stapi\AppData\Local\Temp\ccL2g2h3.s:19867  .debug_str:000000000000160c .LASF500
C:\Users\stapi\AppData\Local\Temp\ccL2g2h3.s:19701  .debug_str:0000000000001121 .LASF501
C:\Users\stapi\AppData\Local\Temp\ccL2g2h3.s:20143  .debug_str:0000000000001f61 .LASF502
C:\Users\stapi\AppData\Local\Temp\ccL2g2h3.s:19165  .debug_str:000000000000008f .LASF503
C:\Users\stapi\AppData\Local\Temp\ccL2g2h3.s:19491  .debug_str:0000000000000ac4 .LASF504
C:\Users\stapi\AppData\Local\Temp\ccL2g2h3.s:20453  .debug_str:0000000000002977 .LASF505
C:\Users\stapi\AppData\Local\Temp\ccL2g2h3.s:20245  .debug_str:00000000000022c2 .LASF506
C:\Users\stapi\AppData\Local\Temp\ccL2g2h3.s:20411  .debug_str:0000000000002803 .LASF507
C:\Users\stapi\AppData\Local\Temp\ccL2g2h3.s:19799  .debug_str:0000000000001449 .LASF508
C:\Users\stapi\AppData\Local\Temp\ccL2g2h3.s:19947  .debug_str:0000000000001894 .LASF509
C:\Users\stapi\AppData\Local\Temp\ccL2g2h3.s:19959  .debug_str:00000000000018da .LASF510
C:\Users\stapi\AppData\Local\Temp\ccL2g2h3.s:20141  .debug_str:0000000000001f58 .LASF511
C:\Users\stapi\AppData\Local\Temp\ccL2g2h3.s:20275  .debug_str:00000000000023b4 .LASF512
C:\Users\stapi\AppData\Local\Temp\ccL2g2h3.s:20425  .debug_str:000000000000287f .LASF513
C:\Users\stapi\AppData\Local\Temp\ccL2g2h3.s:20155  .debug_str:0000000000001fa6 .LASF514
C:\Users\stapi\AppData\Local\Temp\ccL2g2h3.s:20543  .debug_str:0000000000002c58 .LASF515
C:\Users\stapi\AppData\Local\Temp\ccL2g2h3.s:20009  .debug_str:0000000000001a62 .LASF516
C:\Users\stapi\AppData\Local\Temp\ccL2g2h3.s:19599  .debug_str:0000000000000e1d .LASF517
C:\Users\stapi\AppData\Local\Temp\ccL2g2h3.s:20371  .debug_str:00000000000026d1 .LASF518
C:\Users\stapi\AppData\Local\Temp\ccL2g2h3.s:19927  .debug_str:00000000000017cc .LASF519
C:\Users\stapi\AppData\Local\Temp\ccL2g2h3.s:19899  .debug_str:00000000000016d8 .LASF520
C:\Users\stapi\AppData\Local\Temp\ccL2g2h3.s:19269  .debug_str:00000000000003f6 .LASF521
C:\Users\stapi\AppData\Local\Temp\ccL2g2h3.s:19693  .debug_str:00000000000010f5 .LASF522
C:\Users\stapi\AppData\Local\Temp\ccL2g2h3.s:20557  .debug_str:0000000000002cc2 .LASF523
C:\Users\stapi\AppData\Local\Temp\ccL2g2h3.s:19181  .debug_str:00000000000000f6 .LASF524
C:\Users\stapi\AppData\Local\Temp\ccL2g2h3.s:20053  .debug_str:0000000000001ca1 .LASF525
C:\Users\stapi\AppData\Local\Temp\ccL2g2h3.s:20163  .debug_str:0000000000001fe8 .LASF526
C:\Users\stapi\AppData\Local\Temp\ccL2g2h3.s:20517  .debug_str:0000000000002b90 .LASF527
C:\Users\stapi\AppData\Local\Temp\ccL2g2h3.s:19647  .debug_str:0000000000000fc2 .LASF528
C:\Users\stapi\AppData\Local\Temp\ccL2g2h3.s:19735  .debug_str:0000000000001231 .LASF529
C:\Users\stapi\AppData\Local\Temp\ccL2g2h3.s:19817  .debug_str:00000000000014e9 .LASF530
C:\Users\stapi\AppData\Local\Temp\ccL2g2h3.s:19475  .debug_str:0000000000000a4c .LASF531
C:\Users\stapi\AppData\Local\Temp\ccL2g2h3.s:19821  .debug_str:0000000000001507 .LASF532
C:\Users\stapi\AppData\Local\Temp\ccL2g2h3.s:19477  .debug_str:0000000000000a53 .LASF533
C:\Users\stapi\AppData\Local\Temp\ccL2g2h3.s:19485  .debug_str:0000000000000a99 .LASF534
C:\Users\stapi\AppData\Local\Temp\ccL2g2h3.s:19747  .debug_str:0000000000001294 .LASF535
C:\Users\stapi\AppData\Local\Temp\ccL2g2h3.s:20231  .debug_str:000000000000225d .LASF536
C:\Users\stapi\AppData\Local\Temp\ccL2g2h3.s:19839  .debug_str:000000000000157b .LASF537
C:\Users\stapi\AppData\Local\Temp\ccL2g2h3.s:19225  .debug_str:0000000000000293 .LASF538
C:\Users\stapi\AppData\Local\Temp\ccL2g2h3.s:20625  .debug_str:0000000000002eca .LASF539
C:\Users\stapi\AppData\Local\Temp\ccL2g2h3.s:19677  .debug_str:00000000000010a3 .LASF540
C:\Users\stapi\AppData\Local\Temp\ccL2g2h3.s:19239  .debug_str:00000000000002fd .LASF541
C:\Users\stapi\AppData\Local\Temp\ccL2g2h3.s:19199  .debug_str:00000000000001a9 .LASF542
C:\Users\stapi\AppData\Local\Temp\ccL2g2h3.s:19365  .debug_str:00000000000006e6 .LASF543
C:\Users\stapi\AppData\Local\Temp\ccL2g2h3.s:19709  .debug_str:0000000000001165 .LASF544
C:\Users\stapi\AppData\Local\Temp\ccL2g2h3.s:19845  .debug_str:000000000000159c .LASF545
C:\Users\stapi\AppData\Local\Temp\ccL2g2h3.s:19443  .debug_str:000000000000097c .LASF546
C:\Users\stapi\AppData\Local\Temp\ccL2g2h3.s:19675  .debug_str:0000000000001097 .LASF547
C:\Users\stapi\AppData\Local\Temp\ccL2g2h3.s:19753  .debug_str:00000000000012bd .LASF548
C:\Users\stapi\AppData\Local\Temp\ccL2g2h3.s:19967  .debug_str:0000000000001912 .LASF549
C:\Users\stapi\AppData\Local\Temp\ccL2g2h3.s:20431  .debug_str:00000000000028a8 .LASF550
C:\Users\stapi\AppData\Local\Temp\ccL2g2h3.s:19873  .debug_str:0000000000001627 .LASF551
C:\Users\stapi\AppData\Local\Temp\ccL2g2h3.s:20419  .debug_str:0000000000002855 .LASF552
C:\Users\stapi\AppData\Local\Temp\ccL2g2h3.s:19717  .debug_str:0000000000001191 .LASF553
C:\Users\stapi\AppData\Local\Temp\ccL2g2h3.s:20455  .debug_str:0000000000002986 .LASF554
C:\Users\stapi\AppData\Local\Temp\ccL2g2h3.s:19481  .debug_str:0000000000000a72 .LASF555
C:\Users\stapi\AppData\Local\Temp\ccL2g2h3.s:19641  .debug_str:0000000000000f9c .LASF556
C:\Users\stapi\AppData\Local\Temp\ccL2g2h3.s:19451  .debug_str:00000000000009a5 .LASF557
C:\Users\stapi\AppData\Local\Temp\ccL2g2h3.s:20505  .debug_str:0000000000002b12 .LASF558
C:\Users\stapi\AppData\Local\Temp\ccL2g2h3.s:19831  .debug_str:000000000000153d .LASF559
C:\Users\stapi\AppData\Local\Temp\ccL2g2h3.s:19175  .debug_str:00000000000000c9 .LASF560
C:\Users\stapi\AppData\Local\Temp\ccL2g2h3.s:20319  .debug_str:0000000000002503 .LASF561
C:\Users\stapi\AppData\Local\Temp\ccL2g2h3.s:20577  .debug_str:0000000000002d71 .LASF562
C:\Users\stapi\AppData\Local\Temp\ccL2g2h3.s:19763  .debug_str:000000000000132c .LASF563
C:\Users\stapi\AppData\Local\Temp\ccL2g2h3.s:20125  .debug_str:0000000000001f07 .LASF564
C:\Users\stapi\AppData\Local\Temp\ccL2g2h3.s:19235  .debug_str:00000000000002e8 .LASF565
C:\Users\stapi\AppData\Local\Temp\ccL2g2h3.s:19549  .debug_str:0000000000000c96 .LASF566
C:\Users\stapi\AppData\Local\Temp\ccL2g2h3.s:19265  .debug_str:00000000000003df .LASF567
C:\Users\stapi\AppData\Local\Temp\ccL2g2h3.s:20181  .debug_str:00000000000020d6 .LASF568
C:\Users\stapi\AppData\Local\Temp\ccL2g2h3.s:20017  .debug_str:0000000000001aa5 .LASF569
C:\Users\stapi\AppData\Local\Temp\ccL2g2h3.s:19699  .debug_str:0000000000001117 .LASF570
C:\Users\stapi\AppData\Local\Temp\ccL2g2h3.s:20175  .debug_str:00000000000020aa .LASF571
C:\Users\stapi\AppData\Local\Temp\ccL2g2h3.s:19863  .debug_str:00000000000015fd .LASF572
C:\Users\stapi\AppData\Local\Temp\ccL2g2h3.s:20415  .debug_str:0000000000002831 .LASF573
C:\Users\stapi\AppData\Local\Temp\ccL2g2h3.s:19885  .debug_str:0000000000001673 .LASF574
C:\Users\stapi\AppData\Local\Temp\ccL2g2h3.s:20195  .debug_str:000000000000214c .LASF575
C:\Users\stapi\AppData\Local\Temp\ccL2g2h3.s:19507  .debug_str:0000000000000b68 .LASF576
C:\Users\stapi\AppData\Local\Temp\ccL2g2h3.s:19591  .debug_str:0000000000000de4 .LASF577
C:\Users\stapi\AppData\Local\Temp\ccL2g2h3.s:20131  .debug_str:0000000000001f1e .LASF578
C:\Users\stapi\AppData\Local\Temp\ccL2g2h3.s:20189  .debug_str:000000000000211d .LASF579
C:\Users\stapi\AppData\Local\Temp\ccL2g2h3.s:20447  .debug_str:0000000000002930 .LASF580
C:\Users\stapi\AppData\Local\Temp\ccL2g2h3.s:19981  .debug_str:000000000000198c .LASF581
C:\Users\stapi\AppData\Local\Temp\ccL2g2h3.s:19593  .debug_str:0000000000000df9 .LASF582
C:\Users\stapi\AppData\Local\Temp\ccL2g2h3.s:20561  .debug_str:0000000000002ce2 .LASF583
C:\Users\stapi\AppData\Local\Temp\ccL2g2h3.s:19441  .debug_str:000000000000096d .LASF584
C:\Users\stapi\AppData\Local\Temp\ccL2g2h3.s:19585  .debug_str:0000000000000db8 .LASF585
C:\Users\stapi\AppData\Local\Temp\ccL2g2h3.s:20449  .debug_str:0000000000002946 .LASF586
C:\Users\stapi\AppData\Local\Temp\ccL2g2h3.s:20003  .debug_str:0000000000001a2e .LASF587
C:\Users\stapi\AppData\Local\Temp\ccL2g2h3.s:19397  .debug_str:00000000000007dc .LASF588
C:\Users\stapi\AppData\Local\Temp\ccL2g2h3.s:19417  .debug_str:0000000000000887 .LASF589
C:\Users\stapi\AppData\Local\Temp\ccL2g2h3.s:20405  .debug_str:00000000000027d4 .LASF590
C:\Users\stapi\AppData\Local\Temp\ccL2g2h3.s:19611  .debug_str:0000000000000e9f .LASF591
C:\Users\stapi\AppData\Local\Temp\ccL2g2h3.s:19171  .debug_str:00000000000000b7 .LASF592
C:\Users\stapi\AppData\Local\Temp\ccL2g2h3.s:19355  .debug_str:0000000000000691 .LASF593
C:\Users\stapi\AppData\Local\Temp\ccL2g2h3.s:20177  .debug_str:00000000000020b4 .LASF594
C:\Users\stapi\AppData\Local\Temp\ccL2g2h3.s:19555  .debug_str:0000000000000ccd .LASF595
C:\Users\stapi\AppData\Local\Temp\ccL2g2h3.s:19457  .debug_str:00000000000009e4 .LASF596
C:\Users\stapi\AppData\Local\Temp\ccL2g2h3.s:19711  .debug_str:0000000000001172 .LASF597
C:\Users\stapi\AppData\Local\Temp\ccL2g2h3.s:19337  .debug_str:00000000000005e3 .LASF598
C:\Users\stapi\AppData\Local\Temp\ccL2g2h3.s:20567  .debug_str:0000000000002d0a .LASF599
C:\Users\stapi\AppData\Local\Temp\ccL2g2h3.s:20149  .debug_str:0000000000001f83 .LASF600
C:\Users\stapi\AppData\Local\Temp\ccL2g2h3.s:19879  .debug_str:000000000000164e .LASF601
C:\Users\stapi\AppData\Local\Temp\ccL2g2h3.s:20057  .debug_str:0000000000001cb0 .LASF602
C:\Users\stapi\AppData\Local\Temp\ccL2g2h3.s:20327  .debug_str:0000000000002539 .LASF603
C:\Users\stapi\AppData\Local\Temp\ccL2g2h3.s:19161  .debug_str:000000000000007a .LASF604
C:\Users\stapi\AppData\Local\Temp\ccL2g2h3.s:20461  .debug_str:00000000000029ba .LASF605
C:\Users\stapi\AppData\Local\Temp\ccL2g2h3.s:19285  .debug_str:000000000000044b .LASF606
C:\Users\stapi\AppData\Local\Temp\ccL2g2h3.s:19887  .debug_str:0000000000001686 .LASF607
C:\Users\stapi\AppData\Local\Temp\ccL2g2h3.s:20013  .debug_str:0000000000001a7e .LASF608
C:\Users\stapi\AppData\Local\Temp\ccL2g2h3.s:20213  .debug_str:00000000000021cc .LASF748
C:\Users\stapi\AppData\Local\Temp\ccL2g2h3.s:19471  .debug_str:0000000000000a34 .LASF609
C:\Users\stapi\AppData\Local\Temp\ccL2g2h3.s:20055  .debug_str:0000000000001ca8 .LASF610
C:\Users\stapi\AppData\Local\Temp\ccL2g2h3.s:19685  .debug_str:00000000000010c2 .LASF611
C:\Users\stapi\AppData\Local\Temp\ccL2g2h3.s:19965  .debug_str:000000000000190d .LASF612
C:\Users\stapi\AppData\Local\Temp\ccL2g2h3.s:19627  .debug_str:0000000000000f18 .LASF629
C:\Users\stapi\AppData\Local\Temp\ccL2g2h3.s:856    .text.altcp_mbedtls_dealloc:0000000000000000 .LFB423
C:\Users\stapi\AppData\Local\Temp\ccL2g2h3.s:918    .text.altcp_mbedtls_dealloc:000000000000004c .LFE423
C:\Users\stapi\AppData\Local\Temp\ccL2g2h3.s:19953  .debug_str:00000000000018ba .LASF615
C:\Users\stapi\AppData\Local\Temp\ccL2g2h3.s:15600  .debug_loc:0000000000000000 .LLST39
C:\Users\stapi\AppData\Local\Temp\ccL2g2h3.s:869    .text.altcp_mbedtls_dealloc:000000000000000a .LBB8
C:\Users\stapi\AppData\Local\Temp\ccL2g2h3.s:907    .text.altcp_mbedtls_dealloc:0000000000000042 .LBE8
C:\Users\stapi\AppData\Local\Temp\ccL2g2h3.s:15615  .debug_loc:0000000000000029 .LLST40
C:\Users\stapi\AppData\Local\Temp\ccL2g2h3.s:882    .text.altcp_mbedtls_dealloc:000000000000001c .LVL105
C:\Users\stapi\AppData\Local\Temp\ccL2g2h3.s:893    .text.altcp_mbedtls_dealloc:000000000000002e .LVL106
C:\Users\stapi\AppData\Local\Temp\ccL2g2h3.s:902    .text.altcp_mbedtls_dealloc:000000000000003e .LVL107
C:\Users\stapi\AppData\Local\Temp\ccL2g2h3.s:19619  .debug_str:0000000000000ee7 .LASF613
C:\Users\stapi\AppData\Local\Temp\ccL2g2h3.s:20397  .debug_str:000000000000278a .LASF614
C:\Users\stapi\AppData\Local\Temp\ccL2g2h3.s:19173  .debug_str:00000000000000c1 .LASF616
C:\Users\stapi\AppData\Local\Temp\ccL2g2h3.s:19561  .debug_str:0000000000000cee .LASF617
C:\Users\stapi\AppData\Local\Temp\ccL2g2h3.s:19623  .debug_str:0000000000000f06 .LASF618
C:\Users\stapi\AppData\Local\Temp\ccL2g2h3.s:19681  .debug_str:00000000000010b4 .LASF619
C:\Users\stapi\AppData\Local\Temp\ccL2g2h3.s:19395  .debug_str:00000000000007d2 .LASF620
C:\Users\stapi\AppData\Local\Temp\ccL2g2h3.s:20535  .debug_str:0000000000002c09 .LASF621
C:\Users\stapi\AppData\Local\Temp\ccL2g2h3.s:1059   .text.altcp_mbedtls_write:0000000000000000 .LFB420
C:\Users\stapi\AppData\Local\Temp\ccL2g2h3.s:1239   .text.altcp_mbedtls_write:00000000000000da .LFE420
C:\Users\stapi\AppData\Local\Temp\ccL2g2h3.s:15622  .debug_loc:000000000000003c .LLST49
C:\Users\stapi\AppData\Local\Temp\ccL2g2h3.s:15668  .debug_loc:00000000000000b5 .LLST50
C:\Users\stapi\AppData\Local\Temp\ccL2g2h3.s:15702  .debug_loc:0000000000000106 .LLST51
C:\Users\stapi\AppData\Local\Temp\ccL2g2h3.s:15731  .debug_loc:000000000000014b .LLST52
C:\Users\stapi\AppData\Local\Temp\ccL2g2h3.s:15760  .debug_loc:0000000000000190 .LLST53
C:\Users\stapi\AppData\Local\Temp\ccL2g2h3.s:15771  .debug_loc:00000000000001ae .LLST54
C:\Users\stapi\AppData\Local\Temp\ccL2g2h3.s:1108   .text.altcp_mbedtls_write:0000000000000032 .LVL127
C:\Users\stapi\AppData\Local\Temp\ccL2g2h3.s:1114   .text.altcp_mbedtls_write:0000000000000040 .LVL129
C:\Users\stapi\AppData\Local\Temp\ccL2g2h3.s:1135   .text.altcp_mbedtls_write:0000000000000072 .LVL130
C:\Users\stapi\AppData\Local\Temp\ccL2g2h3.s:1149   .text.altcp_mbedtls_write:0000000000000080 .LVL133
C:\Users\stapi\AppData\Local\Temp\ccL2g2h3.s:1201   .text.altcp_mbedtls_write:00000000000000cc .LVL136
C:\Users\stapi\AppData\Local\Temp\ccL2g2h3.s:19197  .debug_str:0000000000000194 .LASF622
C:\Users\stapi\AppData\Local\Temp\ccL2g2h3.s:924    .text.altcp_mbedtls_sndbuf:0000000000000000 .LFB419
C:\Users\stapi\AppData\Local\Temp\ccL2g2h3.s:1046   .text.altcp_mbedtls_sndbuf:0000000000000084 .LFE419
C:\Users\stapi\AppData\Local\Temp\ccL2g2h3.s:15782  .debug_loc:00000000000001cc .LLST41
C:\Users\stapi\AppData\Local\Temp\ccL2g2h3.s:940    .text.altcp_mbedtls_sndbuf:000000000000000c .LBB9
C:\Users\stapi\AppData\Local\Temp\ccL2g2h3.s:1027   .text.altcp_mbedtls_sndbuf:0000000000000070 .LBE9
C:\Users\stapi\AppData\Local\Temp\ccL2g2h3.s:15793  .debug_loc:00000000000001ea .LLST42
C:\Users\stapi\AppData\Local\Temp\ccL2g2h3.s:961    .text.altcp_mbedtls_sndbuf:0000000000000024 .LBB10
C:\Users\stapi\AppData\Local\Temp\ccL2g2h3.s:1026   .text.altcp_mbedtls_sndbuf:0000000000000070 .LBE10
C:\Users\stapi\AppData\Local\Temp\ccL2g2h3.s:15806  .debug_loc:000000000000020a .LLST43
C:\Users\stapi\AppData\Local\Temp\ccL2g2h3.s:20465  .debug_str:00000000000029c7 .LASF623
C:\Users\stapi\AppData\Local\Temp\ccL2g2h3.s:15813  .debug_loc:000000000000021d .LLST44
C:\Users\stapi\AppData\Local\Temp\ccL2g2h3.s:982    .text.altcp_mbedtls_sndbuf:0000000000000040 .LBB11
C:\Users\stapi\AppData\Local\Temp\ccL2g2h3.s:1025   .text.altcp_mbedtls_sndbuf:0000000000000070 .LBE11
C:\Users\stapi\AppData\Local\Temp\ccL2g2h3.s:20471  .debug_str:00000000000029ee .LASF624
C:\Users\stapi\AppData\Local\Temp\ccL2g2h3.s:15824  .debug_loc:000000000000023b .LLST45
C:\Users\stapi\AppData\Local\Temp\ccL2g2h3.s:994    .text.altcp_mbedtls_sndbuf:0000000000000052 .LBB12
C:\Users\stapi\AppData\Local\Temp\ccL2g2h3.s:1024   .text.altcp_mbedtls_sndbuf:0000000000000070 .LBE12
C:\Users\stapi\AppData\Local\Temp\ccL2g2h3.s:19987  .debug_str:00000000000019ae .LASF625
C:\Users\stapi\AppData\Local\Temp\ccL2g2h3.s:15831  .debug_loc:000000000000024e .LLST46
C:\Users\stapi\AppData\Local\Temp\ccL2g2h3.s:15864  .debug_loc:0000000000000285 .LLST47
C:\Users\stapi\AppData\Local\Temp\ccL2g2h3.s:20495  .debug_str:0000000000002acc .LASF626
C:\Users\stapi\AppData\Local\Temp\ccL2g2h3.s:15912  .debug_loc:00000000000002c4 .LLST48
C:\Users\stapi\AppData\Local\Temp\ccL2g2h3.s:1003   .text.altcp_mbedtls_sndbuf:000000000000005c .LVL120
C:\Users\stapi\AppData\Local\Temp\ccL2g2h3.s:965    .text.altcp_mbedtls_sndbuf:000000000000002c .LVL112
C:\Users\stapi\AppData\Local\Temp\ccL2g2h3.s:976    .text.altcp_mbedtls_sndbuf:000000000000003a .LVL115
C:\Users\stapi\AppData\Local\Temp\ccL2g2h3.s:1043   .text.altcp_mbedtls_sndbuf:0000000000000082 .LVL123
C:\Users\stapi\AppData\Local\Temp\ccL2g2h3.s:19615  .debug_str:0000000000000eb4 .LASF627
C:\Users\stapi\AppData\Local\Temp\ccL2g2h3.s:1245   .text.altcp_mbedtls_close:0000000000000000 .LFB418
C:\Users\stapi\AppData\Local\Temp\ccL2g2h3.s:1367   .text.altcp_mbedtls_close:000000000000009c .LFE418
C:\Users\stapi\AppData\Local\Temp\ccL2g2h3.s:15919  .debug_loc:00000000000002d7 .LLST55
C:\Users\stapi\AppData\Local\Temp\ccL2g2h3.s:15941  .debug_loc:000000000000030e .LLST56
C:\Users\stapi\AppData\Local\Temp\ccL2g2h3.s:15952  .debug_loc:000000000000032c .LLST57
C:\Users\stapi\AppData\Local\Temp\ccL2g2h3.s:19387  .debug_str:0000000000000792 .LASF628
C:\Users\stapi\AppData\Local\Temp\ccL2g2h3.s:15963  .debug_loc:000000000000034a .LLST58
C:\Users\stapi\AppData\Local\Temp\ccL2g2h3.s:1273   .text.altcp_mbedtls_close:0000000000000012 .LBB17
C:\Users\stapi\AppData\Local\Temp\ccL2g2h3.s:15974  .debug_loc:0000000000000368 .LLST59
C:\Users\stapi\AppData\Local\Temp\ccL2g2h3.s:1289   .text.altcp_mbedtls_close:0000000000000022 .LVL147
C:\Users\stapi\AppData\Local\Temp\ccL2g2h3.s:1294   .text.altcp_mbedtls_close:000000000000002e .LVL148
C:\Users\stapi\AppData\Local\Temp\ccL2g2h3.s:1299   .text.altcp_mbedtls_close:000000000000003a .LVL149
C:\Users\stapi\AppData\Local\Temp\ccL2g2h3.s:1304   .text.altcp_mbedtls_close:0000000000000046 .LVL150
C:\Users\stapi\AppData\Local\Temp\ccL2g2h3.s:1310   .text.altcp_mbedtls_close:0000000000000056 .LVL151
C:\Users\stapi\AppData\Local\Temp\ccL2g2h3.s:1317   .text.altcp_mbedtls_close:0000000000000060 .LVL152
C:\Users\stapi\AppData\Local\Temp\ccL2g2h3.s:1328   .text.altcp_mbedtls_close:0000000000000070 .LVL155
C:\Users\stapi\AppData\Local\Temp\ccL2g2h3.s:1334   .text.altcp_mbedtls_close:0000000000000080 .LVL156
C:\Users\stapi\AppData\Local\Temp\ccL2g2h3.s:1361   .text.altcp_mbedtls_close:0000000000000098 .LVL159
C:\Users\stapi\AppData\Local\Temp\ccL2g2h3.s:20459  .debug_str:00000000000029a6 .LASF630
C:\Users\stapi\AppData\Local\Temp\ccL2g2h3.s:552    .text.altcp_mbedtls_abort:0000000000000000 .LFB417
C:\Users\stapi\AppData\Local\Temp\ccL2g2h3.s:567    .text.altcp_mbedtls_abort:000000000000000e .LFE417
C:\Users\stapi\AppData\Local\Temp\ccL2g2h3.s:15981  .debug_loc:000000000000037b .LLST25
C:\Users\stapi\AppData\Local\Temp\ccL2g2h3.s:563    .text.altcp_mbedtls_abort:000000000000000c .LVL64
C:\Users\stapi\AppData\Local\Temp\ccL2g2h3.s:20607  .debug_str:0000000000002e4c .LASF631
C:\Users\stapi\AppData\Local\Temp\ccL2g2h3.s:1373   .text.altcp_mbedtls_listen:0000000000000000 .LFB416
C:\Users\stapi\AppData\Local\Temp\ccL2g2h3.s:1423   .text.altcp_mbedtls_listen:0000000000000038 .LFE416
C:\Users\stapi\AppData\Local\Temp\ccL2g2h3.s:15999  .debug_loc:00000000000003a7 .LLST60
C:\Users\stapi\AppData\Local\Temp\ccL2g2h3.s:19407  .debug_str:0000000000000836 .LASF632
C:\Users\stapi\AppData\Local\Temp\ccL2g2h3.s:16021  .debug_loc:00000000000003de .LLST61
C:\Users\stapi\AppData\Local\Temp\ccL2g2h3.s:16046  .debug_loc:0000000000000418 .LLST62
C:\Users\stapi\AppData\Local\Temp\ccL2g2h3.s:20377  .debug_str:0000000000002706 .LASF633
C:\Users\stapi\AppData\Local\Temp\ccL2g2h3.s:16071  .debug_loc:0000000000000452 .LLST63
C:\Users\stapi\AppData\Local\Temp\ccL2g2h3.s:1406   .text.altcp_mbedtls_listen:0000000000000022 .LVL164
C:\Users\stapi\AppData\Local\Temp\ccL2g2h3.s:1418   .text.altcp_mbedtls_listen:0000000000000036 .LVL165
C:\Users\stapi\AppData\Local\Temp\ccL2g2h3.s:19691  .debug_str:00000000000010df .LASF634
C:\Users\stapi\AppData\Local\Temp\ccL2g2h3.s:1429   .text.altcp_mbedtls_connect:0000000000000000 .LFB415
C:\Users\stapi\AppData\Local\Temp\ccL2g2h3.s:1455   .text.altcp_mbedtls_connect:000000000000001a .LFE415
C:\Users\stapi\AppData\Local\Temp\ccL2g2h3.s:16078  .debug_loc:0000000000000465 .LLST64
C:\Users\stapi\AppData\Local\Temp\ccL2g2h3.s:19889  .debug_str:000000000000168f .LASF635
C:\Users\stapi\AppData\Local\Temp\ccL2g2h3.s:16103  .debug_loc:000000000000049f .LLST65
C:\Users\stapi\AppData\Local\Temp\ccL2g2h3.s:20299  .debug_str:0000000000002479 .LASF636
C:\Users\stapi\AppData\Local\Temp\ccL2g2h3.s:16121  .debug_loc:00000000000004cb .LLST66
C:\Users\stapi\AppData\Local\Temp\ccL2g2h3.s:16139  .debug_loc:00000000000004f7 .LLST67
C:\Users\stapi\AppData\Local\Temp\ccL2g2h3.s:1447   .text.altcp_mbedtls_connect:0000000000000016 .LVL169
C:\Users\stapi\AppData\Local\Temp\ccL2g2h3.s:20285  .debug_str:00000000000023f6 .LASF637
C:\Users\stapi\AppData\Local\Temp\ccL2g2h3.s:499    .text.altcp_mbedtls_recved:0000000000000000 .LFB414
C:\Users\stapi\AppData\Local\Temp\ccL2g2h3.s:546    .text.altcp_mbedtls_recved:000000000000002c .LFE414
C:\Users\stapi\AppData\Local\Temp\ccL2g2h3.s:16165  .debug_loc:0000000000000532 .LLST21
C:\Users\stapi\AppData\Local\Temp\ccL2g2h3.s:16183  .debug_loc:000000000000055e .LLST22
C:\Users\stapi\AppData\Local\Temp\ccL2g2h3.s:20341  .debug_str:00000000000025ad .LASF638
C:\Users\stapi\AppData\Local\Temp\ccL2g2h3.s:16201  .debug_loc:000000000000058a .LLST23
C:\Users\stapi\AppData\Local\Temp\ccL2g2h3.s:16208  .debug_loc:000000000000059d .LLST24
C:\Users\stapi\AppData\Local\Temp\ccL2g2h3.s:542    .text.altcp_mbedtls_recved:000000000000002a .LVL61
C:\Users\stapi\AppData\Local\Temp\ccL2g2h3.s:19289  .debug_str:000000000000046c .LASF665
C:\Users\stapi\AppData\Local\Temp\ccL2g2h3.s:20083  .debug_str:0000000000001d8f .LASF639
C:\Users\stapi\AppData\Local\Temp\ccL2g2h3.s:20383  .debug_str:000000000000271a .LASF749
C:\Users\stapi\AppData\Local\Temp\ccL2g2h3.s:3768   .text.altcp_tls_free_config:0000000000000000 .LFB412
C:\Users\stapi\AppData\Local\Temp\ccL2g2h3.s:3820   .text.altcp_tls_free_config:0000000000000050 .LFE412
C:\Users\stapi\AppData\Local\Temp\ccL2g2h3.s:16215  .debug_loc:00000000000005b0 .LLST165
C:\Users\stapi\AppData\Local\Temp\ccL2g2h3.s:3786   .text.altcp_tls_free_config:0000000000000018 .LVL441
C:\Users\stapi\AppData\Local\Temp\ccL2g2h3.s:3795   .text.altcp_tls_free_config:0000000000000026 .LVL442
C:\Users\stapi\AppData\Local\Temp\ccL2g2h3.s:3804   .text.altcp_tls_free_config:0000000000000034 .LVL443
C:\Users\stapi\AppData\Local\Temp\ccL2g2h3.s:3809   .text.altcp_tls_free_config:000000000000003e .LVL444
C:\Users\stapi\AppData\Local\Temp\ccL2g2h3.s:3813   .text.altcp_tls_free_config:0000000000000048 .LVL445
C:\Users\stapi\AppData\Local\Temp\ccL2g2h3.s:19189  .debug_str:0000000000000137 .LASF646
C:\Users\stapi\AppData\Local\Temp\ccL2g2h3.s:3638   .text.altcp_tls_create_config_client_2wayauth:0000000000000000 .LFB411
C:\Users\stapi\AppData\Local\Temp\ccL2g2h3.s:3761   .text.altcp_tls_create_config_client_2wayauth:000000000000009c .LFE411
C:\Users\stapi\AppData\Local\Temp\ccL2g2h3.s:16226  .debug_loc:00000000000005ce .LLST155
C:\Users\stapi\AppData\Local\Temp\ccL2g2h3.s:20075  .debug_str:0000000000001d56 .LASF640
C:\Users\stapi\AppData\Local\Temp\ccL2g2h3.s:16251  .debug_loc:0000000000000608 .LLST156
C:\Users\stapi\AppData\Local\Temp\ccL2g2h3.s:20493  .debug_str:0000000000002ac4 .LASF641
C:\Users\stapi\AppData\Local\Temp\ccL2g2h3.s:16276  .debug_loc:0000000000000642 .LLST157
C:\Users\stapi\AppData\Local\Temp\ccL2g2h3.s:19313  .debug_str:000000000000055f .LASF642
C:\Users\stapi\AppData\Local\Temp\ccL2g2h3.s:16305  .debug_loc:0000000000000687 .LLST158
C:\Users\stapi\AppData\Local\Temp\ccL2g2h3.s:20137  .debug_str:0000000000001f40 .LASF643
C:\Users\stapi\AppData\Local\Temp\ccL2g2h3.s:16334  .debug_loc:00000000000006cc .LLST159
C:\Users\stapi\AppData\Local\Temp\ccL2g2h3.s:19779  .debug_str:00000000000013b9 .LASF644
C:\Users\stapi\AppData\Local\Temp\ccL2g2h3.s:16363  .debug_loc:0000000000000711 .LLST160
C:\Users\stapi\AppData\Local\Temp\ccL2g2h3.s:16392  .debug_loc:0000000000000756 .LLST161
C:\Users\stapi\AppData\Local\Temp\ccL2g2h3.s:19689  .debug_str:00000000000010d6 .LASF645
C:\Users\stapi\AppData\Local\Temp\ccL2g2h3.s:16421  .debug_loc:000000000000079b .LLST162
C:\Users\stapi\AppData\Local\Temp\ccL2g2h3.s:16450  .debug_loc:00000000000007e0 .LLST163
C:\Users\stapi\AppData\Local\Temp\ccL2g2h3.s:16473  .debug_loc:000000000000081f .LLST164
C:\Users\stapi\AppData\Local\Temp\ccL2g2h3.s:3679   .text.altcp_tls_create_config_client_2wayauth:0000000000000028 .LVL424
C:\Users\stapi\AppData\Local\Temp\ccL2g2h3.s:3688   .text.altcp_tls_create_config_client_2wayauth:0000000000000038 .LVL426
C:\Users\stapi\AppData\Local\Temp\ccL2g2h3.s:3695   .text.altcp_tls_create_config_client_2wayauth:0000000000000048 .LVL427
C:\Users\stapi\AppData\Local\Temp\ccL2g2h3.s:3706   .text.altcp_tls_create_config_client_2wayauth:0000000000000056 .LVL429
C:\Users\stapi\AppData\Local\Temp\ccL2g2h3.s:3714   .text.altcp_tls_create_config_client_2wayauth:0000000000000064 .LVL432
C:\Users\stapi\AppData\Local\Temp\ccL2g2h3.s:3723   .text.altcp_tls_create_config_client_2wayauth:0000000000000078 .LVL433
C:\Users\stapi\AppData\Local\Temp\ccL2g2h3.s:3742   .text.altcp_tls_create_config_client_2wayauth:0000000000000090 .LVL437
C:\Users\stapi\AppData\Local\Temp\ccL2g2h3.s:20067  .debug_str:0000000000001d08 .LASF647
C:\Users\stapi\AppData\Local\Temp\ccL2g2h3.s:3554   .text.altcp_tls_create_config_client_psk:0000000000000000 .LFB410
C:\Users\stapi\AppData\Local\Temp\ccL2g2h3.s:3631   .text.altcp_tls_create_config_client_psk:0000000000000056 .LFE410
C:\Users\stapi\AppData\Local\Temp\ccL2g2h3.s:16480  .debug_loc:0000000000000832 .LLST149
C:\Users\stapi\AppData\Local\Temp\ccL2g2h3.s:16491  .debug_loc:0000000000000850 .LLST150
C:\Users\stapi\AppData\Local\Temp\ccL2g2h3.s:16502  .debug_loc:000000000000086e .LLST151
C:\Users\stapi\AppData\Local\Temp\ccL2g2h3.s:16513  .debug_loc:000000000000088c .LLST152
C:\Users\stapi\AppData\Local\Temp\ccL2g2h3.s:16530  .debug_loc:00000000000008b7 .LLST153
C:\Users\stapi\AppData\Local\Temp\ccL2g2h3.s:16537  .debug_loc:00000000000008ca .LLST154
C:\Users\stapi\AppData\Local\Temp\ccL2g2h3.s:3585   .text.altcp_tls_create_config_client_psk:0000000000000022 .LVL413
C:\Users\stapi\AppData\Local\Temp\ccL2g2h3.s:3603   .text.altcp_tls_create_config_client_psk:000000000000003c .LVL415
C:\Users\stapi\AppData\Local\Temp\ccL2g2h3.s:3612   .text.altcp_tls_create_config_client_psk:0000000000000048 .LVL417
C:\Users\stapi\AppData\Local\Temp\ccL2g2h3.s:20497  .debug_str:0000000000002ad9 .LASF648
C:\Users\stapi\AppData\Local\Temp\ccL2g2h3.s:3537   .text.altcp_tls_create_config_client:0000000000000000 .LFB409
C:\Users\stapi\AppData\Local\Temp\ccL2g2h3.s:3547   .text.altcp_tls_create_config_client:000000000000000a .LFE409
C:\Users\stapi\AppData\Local\Temp\ccL2g2h3.s:16544  .debug_loc:00000000000008dd .LLST147
C:\Users\stapi\AppData\Local\Temp\ccL2g2h3.s:16558  .debug_loc:00000000000008fe .LLST148
C:\Users\stapi\AppData\Local\Temp\ccL2g2h3.s:3545   .text.altcp_tls_create_config_client:000000000000000a .LVL407
C:\Users\stapi\AppData\Local\Temp\ccL2g2h3.s:19347  .debug_str:0000000000000634 .LASF649
C:\Users\stapi\AppData\Local\Temp\ccL2g2h3.s:770    .text.altcp_tls_create_config_client_common:0000000000000000 .LFB408
C:\Users\stapi\AppData\Local\Temp\ccL2g2h3.s:850    .text.altcp_tls_create_config_client_common:0000000000000068 .LFE408
C:\Users\stapi\AppData\Local\Temp\ccL2g2h3.s:16572  .debug_loc:000000000000091f .LLST34
C:\Users\stapi\AppData\Local\Temp\ccL2g2h3.s:16583  .debug_loc:000000000000093d .LLST35
C:\Users\stapi\AppData\Local\Temp\ccL2g2h3.s:19385  .debug_str:0000000000000786 .LASF650
C:\Users\stapi\AppData\Local\Temp\ccL2g2h3.s:16594  .debug_loc:000000000000095b .LLST36
C:\Users\stapi\AppData\Local\Temp\ccL2g2h3.s:16608  .debug_loc:000000000000097c .LLST37
C:\Users\stapi\AppData\Local\Temp\ccL2g2h3.s:16619  .debug_loc:000000000000099a .LLST38
C:\Users\stapi\AppData\Local\Temp\ccL2g2h3.s:795    .text.altcp_tls_create_config_client_common:000000000000001c .LVL92
C:\Users\stapi\AppData\Local\Temp\ccL2g2h3.s:807    .text.altcp_tls_create_config_client_common:000000000000002e .LVL94
C:\Users\stapi\AppData\Local\Temp\ccL2g2h3.s:814    .text.altcp_tls_create_config_client_common:000000000000003e .LVL95
C:\Users\stapi\AppData\Local\Temp\ccL2g2h3.s:823    .text.altcp_tls_create_config_client_common:000000000000004a .LVL97
C:\Users\stapi\AppData\Local\Temp\ccL2g2h3.s:847    .text.altcp_tls_create_config_client_common:0000000000000066 .LVL101
C:\Users\stapi\AppData\Local\Temp\ccL2g2h3.s:20255  .debug_str:0000000000002306 .LASF651
C:\Users\stapi\AppData\Local\Temp\ccL2g2h3.s:3378   .text.altcp_tls_create_config_server_privkey_cert:0000000000000000 .LFB407
C:\Users\stapi\AppData\Local\Temp\ccL2g2h3.s:3530   .text.altcp_tls_create_config_server_privkey_cert:00000000000000c0 .LFE407
C:\Users\stapi\AppData\Local\Temp\ccL2g2h3.s:16630  .debug_loc:00000000000009b8 .LLST137
C:\Users\stapi\AppData\Local\Temp\ccL2g2h3.s:16641  .debug_loc:00000000000009d6 .LLST138
C:\Users\stapi\AppData\Local\Temp\ccL2g2h3.s:16652  .debug_loc:00000000000009f4 .LLST139
C:\Users\stapi\AppData\Local\Temp\ccL2g2h3.s:16663  .debug_loc:0000000000000a12 .LLST140
C:\Users\stapi\AppData\Local\Temp\ccL2g2h3.s:16674  .debug_loc:0000000000000a30 .LLST141
C:\Users\stapi\AppData\Local\Temp\ccL2g2h3.s:16685  .debug_loc:0000000000000a4e .LLST142
C:\Users\stapi\AppData\Local\Temp\ccL2g2h3.s:16696  .debug_loc:0000000000000a6c .LLST143
C:\Users\stapi\AppData\Local\Temp\ccL2g2h3.s:19255  .debug_str:0000000000000378 .LASF652
C:\Users\stapi\AppData\Local\Temp\ccL2g2h3.s:16719  .debug_loc:0000000000000aab .LLST144
C:\Users\stapi\AppData\Local\Temp\ccL2g2h3.s:16730  .debug_loc:0000000000000ac9 .LLST145
C:\Users\stapi\AppData\Local\Temp\ccL2g2h3.s:16741  .debug_loc:0000000000000ae7 .LLST146
C:\Users\stapi\AppData\Local\Temp\ccL2g2h3.s:3417   .text.altcp_tls_create_config_server_privkey_cert:0000000000000024 .LVL384
C:\Users\stapi\AppData\Local\Temp\ccL2g2h3.s:3430   .text.altcp_tls_create_config_server_privkey_cert:0000000000000036 .LVL387
C:\Users\stapi\AppData\Local\Temp\ccL2g2h3.s:3438   .text.altcp_tls_create_config_server_privkey_cert:0000000000000044 .LVL389
C:\Users\stapi\AppData\Local\Temp\ccL2g2h3.s:3445   .text.altcp_tls_create_config_server_privkey_cert:0000000000000052 .LVL390
C:\Users\stapi\AppData\Local\Temp\ccL2g2h3.s:3454   .text.altcp_tls_create_config_server_privkey_cert:000000000000005e .LVL392
C:\Users\stapi\AppData\Local\Temp\ccL2g2h3.s:3487   .text.altcp_tls_create_config_server_privkey_cert:000000000000007c .LVL396
C:\Users\stapi\AppData\Local\Temp\ccL2g2h3.s:3496   .text.altcp_tls_create_config_server_privkey_cert:0000000000000088 .LVL398
C:\Users\stapi\AppData\Local\Temp\ccL2g2h3.s:3507   .text.altcp_tls_create_config_server_privkey_cert:000000000000009a .LVL401
C:\Users\stapi\AppData\Local\Temp\ccL2g2h3.s:3514   .text.altcp_tls_create_config_server_privkey_cert:00000000000000a8 .LVL402
C:\Users\stapi\AppData\Local\Temp\ccL2g2h3.s:3523   .text.altcp_tls_create_config_server_privkey_cert:00000000000000b4 .LVL404
C:\Users\stapi\AppData\Local\Temp\ccL2g2h3.s:3527   .text.altcp_tls_create_config_server_privkey_cert:00000000000000be .LVL405
C:\Users\stapi\AppData\Local\Temp\ccL2g2h3.s:19389  .debug_str:000000000000079a .LASF653
C:\Users\stapi\AppData\Local\Temp\ccL2g2h3.s:573    .text.altcp_tls_create_config:0000000000000000 .LFB406
C:\Users\stapi\AppData\Local\Temp\ccL2g2h3.s:764    .text.altcp_tls_create_config:00000000000000f2 .LFE406
C:\Users\stapi\AppData\Local\Temp\ccL2g2h3.s:20229  .debug_str:0000000000002253 .LASF654
C:\Users\stapi\AppData\Local\Temp\ccL2g2h3.s:16752  .debug_loc:0000000000000b05 .LLST26
C:\Users\stapi\AppData\Local\Temp\ccL2g2h3.s:20179  .debug_str:00000000000020cc .LASF655
C:\Users\stapi\AppData\Local\Temp\ccL2g2h3.s:16763  .debug_loc:0000000000000b23 .LLST27
C:\Users\stapi\AppData\Local\Temp\ccL2g2h3.s:20375  .debug_str:00000000000026fc .LASF656
C:\Users\stapi\AppData\Local\Temp\ccL2g2h3.s:16774  .debug_loc:0000000000000b41 .LLST28
C:\Users\stapi\AppData\Local\Temp\ccL2g2h3.s:19843  .debug_str:0000000000001594 .LASF657
C:\Users\stapi\AppData\Local\Temp\ccL2g2h3.s:16792  .debug_loc:0000000000000b6d .LLST29
C:\Users\stapi\AppData\Local\Temp\ccL2g2h3.s:16803  .debug_loc:0000000000000b8b .LLST30
C:\Users\stapi\AppData\Local\Temp\ccL2g2h3.s:16816  .debug_loc:0000000000000bac .LLST31
C:\Users\stapi\AppData\Local\Temp\ccL2g2h3.s:16831  .debug_loc:0000000000000bd5 .LLST32
C:\Users\stapi\AppData\Local\Temp\ccL2g2h3.s:16842  .debug_loc:0000000000000bf3 .LLST33
C:\Users\stapi\AppData\Local\Temp\ccL2g2h3.s:602    .text.altcp_tls_create_config:000000000000001a .LVL66
C:\Users\stapi\AppData\Local\Temp\ccL2g2h3.s:631    .text.altcp_tls_create_config:000000000000003a .LVL70
C:\Users\stapi\AppData\Local\Temp\ccL2g2h3.s:673    .text.altcp_tls_create_config:000000000000006a .LVL75
C:\Users\stapi\AppData\Local\Temp\ccL2g2h3.s:683    .text.altcp_tls_create_config:000000000000007e .LVL77
C:\Users\stapi\AppData\Local\Temp\ccL2g2h3.s:687    .text.altcp_tls_create_config:0000000000000088 .LVL78
C:\Users\stapi\AppData\Local\Temp\ccL2g2h3.s:697    .text.altcp_tls_create_config:00000000000000a0 .LVL79
C:\Users\stapi\AppData\Local\Temp\ccL2g2h3.s:707    .text.altcp_tls_create_config:00000000000000ac .LVL81
C:\Users\stapi\AppData\Local\Temp\ccL2g2h3.s:737    .text.altcp_tls_create_config:00000000000000ca .LVL85
C:\Users\stapi\AppData\Local\Temp\ccL2g2h3.s:752    .text.altcp_tls_create_config:00000000000000dc .LVL87
C:\Users\stapi\AppData\Local\Temp\ccL2g2h3.s:759    .text.altcp_tls_create_config:00000000000000f0 .LVL88
C:\Users\stapi\AppData\Local\Temp\ccL2g2h3.s:20171  .debug_str:000000000000200a .LASF658
C:\Users\stapi\AppData\Local\Temp\ccL2g2h3.s:13     .text.dummy_rng:0000000000000000 .LFB405
C:\Users\stapi\AppData\Local\Temp\ccL2g2h3.s:59     .text.dummy_rng:0000000000000034 .LFE405
C:\Users\stapi\AppData\Local\Temp\ccL2g2h3.s:16849  .debug_loc:0000000000000c06 .LLST0
C:\Users\stapi\AppData\Local\Temp\ccL2g2h3.s:16863  .debug_loc:0000000000000c27 .LLST1
C:\Users\stapi\AppData\Local\Temp\ccL2g2h3.s:20509  .debug_str:0000000000002b35 .LASF659
C:\Users\stapi\AppData\Local\Temp\ccL2g2h3.s:3347   .text.altcp_tls_context:0000000000000000 .LFB404
C:\Users\stapi\AppData\Local\Temp\ccL2g2h3.s:3371   .text.altcp_tls_context:000000000000000a .LFE404
C:\Users\stapi\AppData\Local\Temp\ccL2g2h3.s:16879  .debug_loc:0000000000000c51 .LLST135
C:\Users\stapi\AppData\Local\Temp\ccL2g2h3.s:3359   .text.altcp_tls_context:0000000000000006 .LBB121
C:\Users\stapi\AppData\Local\Temp\ccL2g2h3.s:3367   .text.altcp_tls_context:0000000000000008 .LBE121
C:\Users\stapi\AppData\Local\Temp\ccL2g2h3.s:16893  .debug_loc:0000000000000c72 .LLST136
C:\Users\stapi\AppData\Local\Temp\ccL2g2h3.s:20369  .debug_str:00000000000026c2 .LASF660
C:\Users\stapi\AppData\Local\Temp\ccL2g2h3.s:3279   .text.altcp_tls_wrap:0000000000000000 .LFB403
C:\Users\stapi\AppData\Local\Temp\ccL2g2h3.s:3340   .text.altcp_tls_wrap:0000000000000046 .LFE403
C:\Users\stapi\AppData\Local\Temp\ccL2g2h3.s:20251  .debug_str:00000000000022f6 .LASF661
C:\Users\stapi\AppData\Local\Temp\ccL2g2h3.s:16900  .debug_loc:0000000000000c85 .LLST133
C:\Users\stapi\AppData\Local\Temp\ccL2g2h3.s:19943  .debug_str:0000000000001875 .LASF662
C:\Users\stapi\AppData\Local\Temp\ccL2g2h3.s:16922  .debug_loc:0000000000000cbc .LLST134
C:\Users\stapi\AppData\Local\Temp\ccL2g2h3.s:3319   .text.altcp_tls_wrap:0000000000000026 .LVL371
C:\Users\stapi\AppData\Local\Temp\ccL2g2h3.s:3331   .text.altcp_tls_wrap:0000000000000038 .LVL373
C:\Users\stapi\AppData\Local\Temp\ccL2g2h3.s:3337   .text.altcp_tls_wrap:0000000000000044 .LVL374
C:\Users\stapi\AppData\Local\Temp\ccL2g2h3.s:19835  .debug_str:0000000000001552 .LASF663
C:\Users\stapi\AppData\Local\Temp\ccL2g2h3.s:20059  .debug_str:0000000000001cbc .LASF664
C:\Users\stapi\AppData\Local\Temp\ccL2g2h3.s:339    .text.altcp_mbedtls_setup_callbacks:0000000000000000 .LFB401
C:\Users\stapi\AppData\Local\Temp\ccL2g2h3.s:381    .text.altcp_mbedtls_setup_callbacks:0000000000000054 .LFE401
C:\Users\stapi\AppData\Local\Temp\ccL2g2h3.s:16945  .debug_loc:0000000000000cf4 .LLST14
C:\Users\stapi\AppData\Local\Temp\ccL2g2h3.s:16963  .debug_loc:0000000000000d20 .LLST15
C:\Users\stapi\AppData\Local\Temp\ccL2g2h3.s:356    .text.altcp_mbedtls_setup_callbacks:0000000000000016 .LVL40
C:\Users\stapi\AppData\Local\Temp\ccL2g2h3.s:362    .text.altcp_mbedtls_setup_callbacks:0000000000000028 .LVL41
C:\Users\stapi\AppData\Local\Temp\ccL2g2h3.s:368    .text.altcp_mbedtls_setup_callbacks:000000000000003a .LVL42
C:\Users\stapi\AppData\Local\Temp\ccL2g2h3.s:374    .text.altcp_mbedtls_setup_callbacks:000000000000004c .LVL43
C:\Users\stapi\AppData\Local\Temp\ccL2g2h3.s:19989  .debug_str:00000000000019b6 .LASF666
C:\Users\stapi\AppData\Local\Temp\ccL2g2h3.s:19345  .debug_str:000000000000061c .LASF667
C:\Users\stapi\AppData\Local\Temp\ccL2g2h3.s:65     .text.altcp_mbedtls_lower_err:0000000000000000 .LFB399
C:\Users\stapi\AppData\Local\Temp\ccL2g2h3.s:106    .text.altcp_mbedtls_lower_err:000000000000002c .LFE399
C:\Users\stapi\AppData\Local\Temp\ccL2g2h3.s:16974  .debug_loc:0000000000000d3e .LLST2
C:\Users\stapi\AppData\Local\Temp\ccL2g2h3.s:16989  .debug_loc:0000000000000d67 .LLST3
C:\Users\stapi\AppData\Local\Temp\ccL2g2h3.s:96     .text.altcp_mbedtls_lower_err:0000000000000022 .LVL9
C:\Users\stapi\AppData\Local\Temp\ccL2g2h3.s:19743  .debug_str:0000000000001264 .LASF668
C:\Users\stapi\AppData\Local\Temp\ccL2g2h3.s:20547  .debug_str:0000000000002c70 .LASF669
C:\Users\stapi\AppData\Local\Temp\ccL2g2h3.s:391    .text.altcp_mbedtls_lower_sent:0000000000000000 .LFB397
C:\Users\stapi\AppData\Local\Temp\ccL2g2h3.s:493    .text.altcp_mbedtls_lower_sent:0000000000000074 .LFE397
C:\Users\stapi\AppData\Local\Temp\ccL2g2h3.s:17007  .debug_loc:0000000000000d93 .LLST16
C:\Users\stapi\AppData\Local\Temp\ccL2g2h3.s:17033  .debug_loc:0000000000000dd5 .LLST17
C:\Users\stapi\AppData\Local\Temp\ccL2g2h3.s:17069  .debug_loc:0000000000000e28 .LLST18
C:\Users\stapi\AppData\Local\Temp\ccL2g2h3.s:17105  .debug_loc:0000000000000e7b .LLST19
C:\Users\stapi\AppData\Local\Temp\ccL2g2h3.s:429    .text.altcp_mbedtls_lower_sent:0000000000000018 .LBB7
C:\Users\stapi\AppData\Local\Temp\ccL2g2h3.s:491    .text.altcp_mbedtls_lower_sent:0000000000000074 .LBE7
C:\Users\stapi\AppData\Local\Temp\ccL2g2h3.s:17131  .debug_loc:0000000000000ebd .LLST20
C:\Users\stapi\AppData\Local\Temp\ccL2g2h3.s:451    .text.altcp_mbedtls_lower_sent:0000000000000044 .LVL52
C:\Users\stapi\AppData\Local\Temp\ccL2g2h3.s:473    .text.altcp_mbedtls_lower_sent:000000000000005e .LVL54
C:\Users\stapi\AppData\Local\Temp\ccL2g2h3.s:489    .text.altcp_mbedtls_lower_sent:0000000000000072 .LVL55
C:\Users\stapi\AppData\Local\Temp\ccL2g2h3.s:19415  .debug_str:0000000000000870 .LASF670
C:\Users\stapi\AppData\Local\Temp\ccL2g2h3.s:125    .text.altcp_mbedtls_bio_recv:0000000000000000 .LFB396
C:\Users\stapi\AppData\Local\Temp\ccL2g2h3.s:333    .text.altcp_mbedtls_bio_recv:00000000000000f8 .LFE396
C:\Users\stapi\AppData\Local\Temp\ccL2g2h3.s:17144  .debug_loc:0000000000000edd .LLST5
C:\Users\stapi\AppData\Local\Temp\ccL2g2h3.s:17191  .debug_loc:0000000000000f49 .LLST6
C:\Users\stapi\AppData\Local\Temp\ccL2g2h3.s:17220  .debug_loc:0000000000000f8e .LLST7
C:\Users\stapi\AppData\Local\Temp\ccL2g2h3.s:17249  .debug_loc:0000000000000fd3 .LLST8
C:\Users\stapi\AppData\Local\Temp\ccL2g2h3.s:17296  .debug_loc:000000000000103f .LLST9
C:\Users\stapi\AppData\Local\Temp\ccL2g2h3.s:17307  .debug_loc:000000000000105d .LLST10
C:\Users\stapi\AppData\Local\Temp\ccL2g2h3.s:17318  .debug_loc:000000000000107b .LLST11
C:\Users\stapi\AppData\Local\Temp\ccL2g2h3.s:19297  .debug_str:00000000000004ab .LASF671
C:\Users\stapi\AppData\Local\Temp\ccL2g2h3.s:17329  .debug_loc:0000000000001099 .LLST12
C:\Users\stapi\AppData\Local\Temp\ccL2g2h3.s:17336  .debug_loc:00000000000010ac .LLST13
C:\Users\stapi\AppData\Local\Temp\ccL2g2h3.s:172    .text.altcp_mbedtls_bio_recv:000000000000002e .LVL15
C:\Users\stapi\AppData\Local\Temp\ccL2g2h3.s:219    .text.altcp_mbedtls_bio_recv:0000000000000064 .LVL21
C:\Users\stapi\AppData\Local\Temp\ccL2g2h3.s:236    .text.altcp_mbedtls_bio_recv:000000000000008e .LVL24
C:\Users\stapi\AppData\Local\Temp\ccL2g2h3.s:252    .text.altcp_mbedtls_bio_recv:000000000000009c .LVL27
C:\Users\stapi\AppData\Local\Temp\ccL2g2h3.s:267    .text.altcp_mbedtls_bio_recv:00000000000000c2 .LVL29
C:\Users\stapi\AppData\Local\Temp\ccL2g2h3.s:294    .text.altcp_mbedtls_bio_recv:00000000000000de .LVL32
C:\Users\stapi\AppData\Local\Temp\ccL2g2h3.s:19301  .debug_str:00000000000004d0 .LASF672
C:\Users\stapi\AppData\Local\Temp\ccL2g2h3.s:19587  .debug_str:0000000000000dc7 .LASF673
C:\Users\stapi\AppData\Local\Temp\ccL2g2h3.s:19433  .debug_str:0000000000000911 .LASF674
C:\Users\stapi\AppData\Local\Temp\ccL2g2h3.s:19761  .debug_str:000000000000130b .LASF675
C:\Users\stapi\AppData\Local\Temp\ccL2g2h3.s:2668   .text.altcp_mbedtls_lower_recv_process:0000000000000000 .LFB393
C:\Users\stapi\AppData\Local\Temp\ccL2g2h3.s:2922   .text.altcp_mbedtls_lower_recv_process:000000000000015c .LFE393
C:\Users\stapi\AppData\Local\Temp\ccL2g2h3.s:17347  .debug_loc:00000000000010ca .LLST116
C:\Users\stapi\AppData\Local\Temp\ccL2g2h3.s:17358  .debug_loc:00000000000010e8 .LLST117
C:\Users\stapi\AppData\Local\Temp\ccL2g2h3.s:2716   .text.altcp_mbedtls_lower_recv_process:0000000000000028 .LBB109
C:\Users\stapi\AppData\Local\Temp\ccL2g2h3.s:2920   .text.altcp_mbedtls_lower_recv_process:000000000000015c .LBE109
C:\Users\stapi\AppData\Local\Temp\ccL2g2h3.s:17369  .debug_loc:0000000000001106 .LLST118
C:\Users\stapi\AppData\Local\Temp\ccL2g2h3.s:2906   .text.altcp_mbedtls_lower_recv_process:0000000000000150 .LBB116
C:\Users\stapi\AppData\Local\Temp\ccL2g2h3.s:2919   .text.altcp_mbedtls_lower_recv_process:000000000000015c .LBE116
C:\Users\stapi\AppData\Local\Temp\ccL2g2h3.s:2914   .text.altcp_mbedtls_lower_recv_process:0000000000000158 .LVL318
C:\Users\stapi\AppData\Local\Temp\ccL2g2h3.s:2737   .text.altcp_mbedtls_lower_recv_process:000000000000004c .LBB110
C:\Users\stapi\AppData\Local\Temp\ccL2g2h3.s:17380  .debug_loc:0000000000001124 .LLST119
C:\Users\stapi\AppData\Local\Temp\ccL2g2h3.s:17395  .debug_loc:000000000000114d .LLST120
C:\Users\stapi\AppData\Local\Temp\ccL2g2h3.s:17406  .debug_loc:000000000000116b .LLST121
C:\Users\stapi\AppData\Local\Temp\ccL2g2h3.s:2790   .text.altcp_mbedtls_lower_recv_process:0000000000000090 .LVL310
C:\Users\stapi\AppData\Local\Temp\ccL2g2h3.s:2721   .text.altcp_mbedtls_lower_recv_process:0000000000000034 .LVL301
C:\Users\stapi\AppData\Local\Temp\ccL2g2h3.s:2728   .text.altcp_mbedtls_lower_recv_process:0000000000000040 .LVL304
C:\Users\stapi\AppData\Local\Temp\ccL2g2h3.s:2808   .text.altcp_mbedtls_lower_recv_process:00000000000000b6 .LVL312
C:\Users\stapi\AppData\Local\Temp\ccL2g2h3.s:2828   .text.altcp_mbedtls_lower_recv_process:00000000000000c6 .LVL313
C:\Users\stapi\AppData\Local\Temp\ccL2g2h3.s:2834   .text.altcp_mbedtls_lower_recv_process:00000000000000d0 .LVL314
C:\Users\stapi\AppData\Local\Temp\ccL2g2h3.s:2840   .text.altcp_mbedtls_lower_recv_process:00000000000000dc .LVL315
C:\Users\stapi\AppData\Local\Temp\ccL2g2h3.s:2857   .text.altcp_mbedtls_lower_recv_process:0000000000000108 .LVL316
C:\Users\stapi\AppData\Local\Temp\ccL2g2h3.s:2880   .text.altcp_mbedtls_lower_recv_process:0000000000000134 .LVL317
C:\Users\stapi\AppData\Local\Temp\ccL2g2h3.s:2699   .text.altcp_mbedtls_lower_recv_process:0000000000000020 .LVL300
C:\Users\stapi\AppData\Local\Temp\ccL2g2h3.s:19537  .debug_str:0000000000000c2a .LASF676
C:\Users\stapi\AppData\Local\Temp\ccL2g2h3.s:19651  .debug_str:0000000000000fe6 .LASF677
C:\Users\stapi\AppData\Local\Temp\ccL2g2h3.s:20159  .debug_str:0000000000001fcd .LASF678
C:\Users\stapi\AppData\Local\Temp\ccL2g2h3.s:20363  .debug_str:0000000000002631 .LASF679
C:\Users\stapi\AppData\Local\Temp\ccL2g2h3.s:19661  .debug_str:0000000000001032 .LASF680
C:\Users\stapi\AppData\Local\Temp\ccL2g2h3.s:3188   .text.altcp_mbedtls_lower_connected:0000000000000000 .LFB390
C:\Users\stapi\AppData\Local\Temp\ccL2g2h3.s:3272   .text.altcp_mbedtls_lower_connected:000000000000005e .LFE390
C:\Users\stapi\AppData\Local\Temp\ccL2g2h3.s:17413  .debug_loc:000000000000117e .LLST129
C:\Users\stapi\AppData\Local\Temp\ccL2g2h3.s:17464  .debug_loc:00000000000011f5 .LLST130
C:\Users\stapi\AppData\Local\Temp\ccL2g2h3.s:17504  .debug_loc:0000000000001253 .LLST131
C:\Users\stapi\AppData\Local\Temp\ccL2g2h3.s:17544  .debug_loc:00000000000012b1 .LLST132
C:\Users\stapi\AppData\Local\Temp\ccL2g2h3.s:3223   .text.altcp_mbedtls_lower_connected:000000000000003a .LVL360
C:\Users\stapi\AppData\Local\Temp\ccL2g2h3.s:3247   .text.altcp_mbedtls_lower_connected:0000000000000048 .LVL363
C:\Users\stapi\AppData\Local\Temp\ccL2g2h3.s:3260   .text.altcp_mbedtls_lower_connected:0000000000000058 .LVL365
C:\Users\stapi\AppData\Local\Temp\ccL2g2h3.s:19603  .debug_str:0000000000000e44 .LASF681
C:\Users\stapi\AppData\Local\Temp\ccL2g2h3.s:1792   .text.altcp_mbedtls_lower_accept:0000000000000000 .LFB389
C:\Users\stapi\AppData\Local\Temp\ccL2g2h3.s:1894   .text.altcp_mbedtls_lower_accept:0000000000000068 .LFE389
C:\Users\stapi\AppData\Local\Temp\ccL2g2h3.s:17595  .debug_loc:0000000000001328 .LLST86
C:\Users\stapi\AppData\Local\Temp\ccL2g2h3.s:19781  .debug_str:00000000000013ca .LASF682
C:\Users\stapi\AppData\Local\Temp\ccL2g2h3.s:17617  .debug_loc:000000000000135f .LLST87
C:\Users\stapi\AppData\Local\Temp\ccL2g2h3.s:17639  .debug_loc:0000000000001396 .LLST88
C:\Users\stapi\AppData\Local\Temp\ccL2g2h3.s:20593  .debug_str:0000000000002dd4 .LASF683
C:\Users\stapi\AppData\Local\Temp\ccL2g2h3.s:17653  .debug_loc:00000000000013b7 .LLST89
C:\Users\stapi\AppData\Local\Temp\ccL2g2h3.s:19409  .debug_str:000000000000083e .LASF684
C:\Users\stapi\AppData\Local\Temp\ccL2g2h3.s:17675  .debug_loc:00000000000013ee .LLST90
C:\Users\stapi\AppData\Local\Temp\ccL2g2h3.s:20563  .debug_str:0000000000002cf5 .LASF685
C:\Users\stapi\AppData\Local\Temp\ccL2g2h3.s:17686  .debug_loc:000000000000140c .LLST91
C:\Users\stapi\AppData\Local\Temp\ccL2g2h3.s:20101  .debug_str:0000000000001e39 .LASF686
C:\Users\stapi\AppData\Local\Temp\ccL2g2h3.s:17697  .debug_loc:000000000000142a .LLST92
C:\Users\stapi\AppData\Local\Temp\ccL2g2h3.s:1833   .text.altcp_mbedtls_lower_accept:000000000000002a .LVL212
C:\Users\stapi\AppData\Local\Temp\ccL2g2h3.s:1848   .text.altcp_mbedtls_lower_accept:0000000000000040 .LVL215
C:\Users\stapi\AppData\Local\Temp\ccL2g2h3.s:1861   .text.altcp_mbedtls_lower_accept:0000000000000050 .LVL218
C:\Users\stapi\AppData\Local\Temp\ccL2g2h3.s:1889   .text.altcp_mbedtls_lower_accept:0000000000000064 .LVL221
C:\Users\stapi\AppData\Local\Temp\ccL2g2h3.s:1468   .text.altcp_mbedtls_bio_send:0000000000000000 .LFB421
C:\Users\stapi\AppData\Local\Temp\ccL2g2h3.s:1622   .text.altcp_mbedtls_bio_send:00000000000000a8 .LFE421
C:\Users\stapi\AppData\Local\Temp\ccL2g2h3.s:17718  .debug_loc:0000000000001460 .LLST68
C:\Users\stapi\AppData\Local\Temp\ccL2g2h3.s:17740  .debug_loc:0000000000001497 .LLST69
C:\Users\stapi\AppData\Local\Temp\ccL2g2h3.s:17777  .debug_loc:00000000000014f2 .LLST70
C:\Users\stapi\AppData\Local\Temp\ccL2g2h3.s:17806  .debug_loc:0000000000001537 .LLST71
C:\Users\stapi\AppData\Local\Temp\ccL2g2h3.s:17828  .debug_loc:000000000000156e .LLST72
C:\Users\stapi\AppData\Local\Temp\ccL2g2h3.s:1520   .text.altcp_mbedtls_bio_send:0000000000000036 .LBB25
C:\Users\stapi\AppData\Local\Temp\ccL2g2h3.s:17857  .debug_loc:00000000000015b3 .LLST73
C:\Users\stapi\AppData\Local\Temp\ccL2g2h3.s:17868  .debug_loc:00000000000015d1 .LLST74
C:\Users\stapi\AppData\Local\Temp\ccL2g2h3.s:17879  .debug_loc:00000000000015ef .LLST75
C:\Users\stapi\AppData\Local\Temp\ccL2g2h3.s:17886  .debug_loc:0000000000001602 .LLST76
C:\Users\stapi\AppData\Local\Temp\ccL2g2h3.s:1576   .text.altcp_mbedtls_bio_send:000000000000006c .LVL183
C:\Users\stapi\AppData\Local\Temp\ccL2g2h3.s:1607   .text.altcp_mbedtls_bio_send:00000000000000a0 .LVL187
C:\Users\stapi\AppData\Local\Temp\ccL2g2h3.s:1503   .text.altcp_mbedtls_bio_send:000000000000002e .LVL176
C:\Users\stapi\AppData\Local\Temp\ccL2g2h3.s:1632   .text.altcp_mbedtls_setup:0000000000000000 .LFB402
C:\Users\stapi\AppData\Local\Temp\ccL2g2h3.s:1786   .text.altcp_mbedtls_setup:00000000000000bc .LFE402
C:\Users\stapi\AppData\Local\Temp\ccL2g2h3.s:17893  .debug_loc:0000000000001615 .LLST77
C:\Users\stapi\AppData\Local\Temp\ccL2g2h3.s:17926  .debug_loc:0000000000001665 .LLST78
C:\Users\stapi\AppData\Local\Temp\ccL2g2h3.s:17941  .debug_loc:000000000000168e .LLST79
C:\Users\stapi\AppData\Local\Temp\ccL2g2h3.s:17964  .debug_loc:00000000000016cd .LLST80
C:\Users\stapi\AppData\Local\Temp\ccL2g2h3.s:1679   .text.altcp_mbedtls_setup:000000000000003a .LBB34
C:\Users\stapi\AppData\Local\Temp\ccL2g2h3.s:17997  .debug_loc:000000000000171d .LLST81
C:\Users\stapi\AppData\Local\Temp\ccL2g2h3.s:18012  .debug_loc:0000000000001746 .LLST82
C:\Users\stapi\AppData\Local\Temp\ccL2g2h3.s:18023  .debug_loc:0000000000001764 .LLST83
C:\Users\stapi\AppData\Local\Temp\ccL2g2h3.s:18034  .debug_loc:0000000000001782 .LLST84
C:\Users\stapi\AppData\Local\Temp\ccL2g2h3.s:18045  .debug_loc:00000000000017a0 .LLST85
C:\Users\stapi\AppData\Local\Temp\ccL2g2h3.s:1686   .text.altcp_mbedtls_setup:0000000000000042 .LVL196
C:\Users\stapi\AppData\Local\Temp\ccL2g2h3.s:1698   .text.altcp_mbedtls_setup:0000000000000056 .LVL198
C:\Users\stapi\AppData\Local\Temp\ccL2g2h3.s:1704   .text.altcp_mbedtls_setup:0000000000000062 .LVL199
C:\Users\stapi\AppData\Local\Temp\ccL2g2h3.s:1714   .text.altcp_mbedtls_setup:0000000000000070 .LVL201
C:\Users\stapi\AppData\Local\Temp\ccL2g2h3.s:1747   .text.altcp_mbedtls_setup:0000000000000098 .LVL205
C:\Users\stapi\AppData\Local\Temp\ccL2g2h3.s:1752   .text.altcp_mbedtls_setup:00000000000000a4 .LVL206
C:\Users\stapi\AppData\Local\Temp\ccL2g2h3.s:1669   .text.altcp_mbedtls_setup:0000000000000036 .LVL193
C:\Users\stapi\AppData\Local\Temp\ccL2g2h3.s:1919   .text.altcp_mbedtls_handle_rx_appldata:0000000000000000 .LFB395
C:\Users\stapi\AppData\Local\Temp\ccL2g2h3.s:2472   .text.altcp_mbedtls_handle_rx_appldata:00000000000002b8 .LFE395
C:\Users\stapi\AppData\Local\Temp\ccL2g2h3.s:18056  .debug_loc:00000000000017be .LLST93
C:\Users\stapi\AppData\Local\Temp\ccL2g2h3.s:18100  .debug_loc:0000000000001827 .LLST94
C:\Users\stapi\AppData\Local\Temp\ccL2g2h3.s:1971   .text.altcp_mbedtls_handle_rx_appldata:000000000000003c .LBB51
C:\Users\stapi\AppData\Local\Temp\ccL2g2h3.s:18122  .debug_loc:000000000000185e .LLST95
C:\Users\stapi\AppData\Local\Temp\ccL2g2h3.s:18141  .debug_loc:0000000000001892 .LLST96
C:\Users\stapi\AppData\Local\Temp\ccL2g2h3.s:18165  .debug_loc:00000000000018d2 .LLST97
C:\Users\stapi\AppData\Local\Temp\ccL2g2h3.s:1976   .text.altcp_mbedtls_handle_rx_appldata:000000000000003c .LBB56
C:\Users\stapi\AppData\Local\Temp\ccL2g2h3.s:18172  .debug_loc:00000000000018e5 .LLST98
C:\Users\stapi\AppData\Local\Temp\ccL2g2h3.s:18183  .debug_loc:0000000000001903 .LLST99
C:\Users\stapi\AppData\Local\Temp\ccL2g2h3.s:18190  .debug_loc:0000000000001916 .LLST100
C:\Users\stapi\AppData\Local\Temp\ccL2g2h3.s:2181   .text.altcp_mbedtls_handle_rx_appldata:0000000000000162 .LVL246
C:\Users\stapi\AppData\Local\Temp\ccL2g2h3.s:2144   .text.altcp_mbedtls_handle_rx_appldata:000000000000013e .LVL242
C:\Users\stapi\AppData\Local\Temp\ccL2g2h3.s:2000   .text.altcp_mbedtls_handle_rx_appldata:000000000000004a .LBB66
C:\Users\stapi\AppData\Local\Temp\ccL2g2h3.s:18197  .debug_loc:0000000000001929 .LLST101
C:\Users\stapi\AppData\Local\Temp\ccL2g2h3.s:18216  .debug_loc:000000000000195d .LLST102
C:\Users\stapi\AppData\Local\Temp\ccL2g2h3.s:18235  .debug_loc:0000000000001991 .LLST103
C:\Users\stapi\AppData\Local\Temp\ccL2g2h3.s:18250  .debug_loc:00000000000019ba .LLST104
C:\Users\stapi\AppData\Local\Temp\ccL2g2h3.s:18265  .debug_loc:00000000000019e3 .LLST105
C:\Users\stapi\AppData\Local\Temp\ccL2g2h3.s:2299   .text.altcp_mbedtls_handle_rx_appldata:00000000000001f2 .LVL258
C:\Users\stapi\AppData\Local\Temp\ccL2g2h3.s:2361   .text.altcp_mbedtls_handle_rx_appldata:0000000000000230 .LVL263
C:\Users\stapi\AppData\Local\Temp\ccL2g2h3.s:2394   .text.altcp_mbedtls_handle_rx_appldata:000000000000026a .LVL266
C:\Users\stapi\AppData\Local\Temp\ccL2g2h3.s:2226   .text.altcp_mbedtls_handle_rx_appldata:00000000000001a0 .LVL250
C:\Users\stapi\AppData\Local\Temp\ccL2g2h3.s:2406   .text.altcp_mbedtls_handle_rx_appldata:0000000000000276 .LVL268
C:\Users\stapi\AppData\Local\Temp\ccL2g2h3.s:2450   .text.altcp_mbedtls_handle_rx_appldata:00000000000002aa .LVL271
C:\Users\stapi\AppData\Local\Temp\ccL2g2h3.s:2099   .text.altcp_mbedtls_handle_rx_appldata:00000000000000e8 .LVL239
C:\Users\stapi\AppData\Local\Temp\ccL2g2h3.s:2112   .text.altcp_mbedtls_handle_rx_appldata:00000000000000f8 .LVL240
C:\Users\stapi\AppData\Local\Temp\ccL2g2h3.s:2124   .text.altcp_mbedtls_handle_rx_appldata:000000000000010c .LVL241
C:\Users\stapi\AppData\Local\Temp\ccL2g2h3.s:2239   .text.altcp_mbedtls_handle_rx_appldata:00000000000001ac .LVL252
C:\Users\stapi\AppData\Local\Temp\ccL2g2h3.s:2245   .text.altcp_mbedtls_handle_rx_appldata:00000000000001b8 .LVL253
C:\Users\stapi\AppData\Local\Temp\ccL2g2h3.s:2018   .text.altcp_mbedtls_handle_rx_appldata:000000000000005e .LVL229
C:\Users\stapi\AppData\Local\Temp\ccL2g2h3.s:2031   .text.altcp_mbedtls_handle_rx_appldata:0000000000000072 .LVL232
C:\Users\stapi\AppData\Local\Temp\ccL2g2h3.s:2055   .text.altcp_mbedtls_handle_rx_appldata:00000000000000a6 .LVL234
C:\Users\stapi\AppData\Local\Temp\ccL2g2h3.s:2071   .text.altcp_mbedtls_handle_rx_appldata:00000000000000b6 .LVL237
C:\Users\stapi\AppData\Local\Temp\ccL2g2h3.s:1953   .text.altcp_mbedtls_handle_rx_appldata:000000000000002e .LVL225
C:\Users\stapi\AppData\Local\Temp\ccL2g2h3.s:2478   .text.altcp_mbedtls_lower_poll:0000000000000000 .LFB398
C:\Users\stapi\AppData\Local\Temp\ccL2g2h3.s:2593   .text.altcp_mbedtls_lower_poll:000000000000007c .LFE398
C:\Users\stapi\AppData\Local\Temp\ccL2g2h3.s:18281  .debug_loc:0000000000001a0d .LLST106
C:\Users\stapi\AppData\Local\Temp\ccL2g2h3.s:18303  .debug_loc:0000000000001a44 .LLST107
C:\Users\stapi\AppData\Local\Temp\ccL2g2h3.s:18328  .debug_loc:0000000000001a7e .LLST108
C:\Users\stapi\AppData\Local\Temp\ccL2g2h3.s:2528   .text.altcp_mbedtls_lower_poll:000000000000003e .LBB91
C:\Users\stapi\AppData\Local\Temp\ccL2g2h3.s:18350  .debug_loc:0000000000001ab5 .LLST109
C:\Users\stapi\AppData\Local\Temp\ccL2g2h3.s:18371  .debug_loc:0000000000001ae4 .LLST110
C:\Users\stapi\AppData\Local\Temp\ccL2g2h3.s:2563   .text.altcp_mbedtls_lower_poll:0000000000000052 .LBB93
C:\Users\stapi\AppData\Local\Temp\ccL2g2h3.s:2582   .text.altcp_mbedtls_lower_poll:0000000000000074 .LBE93
C:\Users\stapi\AppData\Local\Temp\ccL2g2h3.s:18382  .debug_loc:0000000000001b02 .LLST111
C:\Users\stapi\AppData\Local\Temp\ccL2g2h3.s:2569   .text.altcp_mbedtls_lower_poll:0000000000000060 .LVL284
C:\Users\stapi\AppData\Local\Temp\ccL2g2h3.s:2575   .text.altcp_mbedtls_lower_poll:000000000000006c .LVL285
C:\Users\stapi\AppData\Local\Temp\ccL2g2h3.s:2588   .text.altcp_mbedtls_lower_poll:000000000000007a .LVL287
C:\Users\stapi\AppData\Local\Temp\ccL2g2h3.s:2520   .text.altcp_mbedtls_lower_poll:000000000000003c .LVL279
C:\Users\stapi\AppData\Local\Temp\ccL2g2h3.s:2599   .text.altcp_mbedtls_set_poll:0000000000000000 .LFB413
C:\Users\stapi\AppData\Local\Temp\ccL2g2h3.s:2624   .text.altcp_mbedtls_set_poll:0000000000000018 .LFE413
C:\Users\stapi\AppData\Local\Temp\ccL2g2h3.s:18394  .debug_loc:0000000000001b21 .LLST112
C:\Users\stapi\AppData\Local\Temp\ccL2g2h3.s:18412  .debug_loc:0000000000001b4d .LLST113
C:\Users\stapi\AppData\Local\Temp\ccL2g2h3.s:2606   .text.altcp_mbedtls_set_poll:0000000000000002 .LBB98
C:\Users\stapi\AppData\Local\Temp\ccL2g2h3.s:2622   .text.altcp_mbedtls_set_poll:0000000000000018 .LBE98
C:\Users\stapi\AppData\Local\Temp\ccL2g2h3.s:18430  .debug_loc:0000000000001b79 .LLST114
C:\Users\stapi\AppData\Local\Temp\ccL2g2h3.s:2618   .text.altcp_mbedtls_set_poll:0000000000000016 .LVL292
C:\Users\stapi\AppData\Local\Temp\ccL2g2h3.s:2630   .text.altcp_mbedtls_mss:0000000000000000 .LFB422
C:\Users\stapi\AppData\Local\Temp\ccL2g2h3.s:2655   .text.altcp_mbedtls_mss:0000000000000010 .LFE422
C:\Users\stapi\AppData\Local\Temp\ccL2g2h3.s:18437  .debug_loc:0000000000001b8c .LLST115
C:\Users\stapi\AppData\Local\Temp\ccL2g2h3.s:2638   .text.altcp_mbedtls_mss:0000000000000002 .LBB102
C:\Users\stapi\AppData\Local\Temp\ccL2g2h3.s:2648   .text.altcp_mbedtls_mss:000000000000000c .LBE102
C:\Users\stapi\AppData\Local\Temp\ccL2g2h3.s:2645   .text.altcp_mbedtls_mss:000000000000000c .LVL296
C:\Users\stapi\AppData\Local\Temp\ccL2g2h3.s:2935   .text.altcp_mbedtls_lower_recv:0000000000000000 .LFB392
C:\Users\stapi\AppData\Local\Temp\ccL2g2h3.s:3182   .text.altcp_mbedtls_lower_recv:0000000000000146 .LFE392
C:\Users\stapi\AppData\Local\Temp\ccL2g2h3.s:18462  .debug_loc:0000000000001bc6 .LLST122
C:\Users\stapi\AppData\Local\Temp\ccL2g2h3.s:18484  .debug_loc:0000000000001bfd .LLST123
C:\Users\stapi\AppData\Local\Temp\ccL2g2h3.s:18506  .debug_loc:0000000000001c34 .LLST124
C:\Users\stapi\AppData\Local\Temp\ccL2g2h3.s:18624  .debug_loc:0000000000001d49 .LLST125
C:\Users\stapi\AppData\Local\Temp\ccL2g2h3.s:18726  .debug_loc:0000000000001e32 .LLST126
C:\Users\stapi\AppData\Local\Temp\ccL2g2h3.s:3015   .text.altcp_mbedtls_lower_recv:000000000000005a .LBB119
C:\Users\stapi\AppData\Local\Temp\ccL2g2h3.s:3180   .text.altcp_mbedtls_lower_recv:0000000000000146 .LBE119
C:\Users\stapi\AppData\Local\Temp\ccL2g2h3.s:18748  .debug_loc:0000000000001e69 .LLST127
C:\Users\stapi\AppData\Local\Temp\ccL2g2h3.s:18840  .debug_loc:0000000000001f41 .LLST128
C:\Users\stapi\AppData\Local\Temp\ccL2g2h3.s:3035   .text.altcp_mbedtls_lower_recv:0000000000000084 .LVL335
C:\Users\stapi\AppData\Local\Temp\ccL2g2h3.s:3080   .text.altcp_mbedtls_lower_recv:00000000000000c0 .LVL339
C:\Users\stapi\AppData\Local\Temp\ccL2g2h3.s:3101   .text.altcp_mbedtls_lower_recv:00000000000000d4 .LVL342
C:\Users\stapi\AppData\Local\Temp\ccL2g2h3.s:3117   .text.altcp_mbedtls_lower_recv:00000000000000e2 .LVL344
C:\Users\stapi\AppData\Local\Temp\ccL2g2h3.s:3122   .text.altcp_mbedtls_lower_recv:00000000000000ec .LVL345
C:\Users\stapi\AppData\Local\Temp\ccL2g2h3.s:3141   .text.altcp_mbedtls_lower_recv:0000000000000104 .LVL348
C:\Users\stapi\AppData\Local\Temp\ccL2g2h3.s:3165   .text.altcp_mbedtls_lower_recv:000000000000013a .LVL353
C:\Users\stapi\AppData\Local\Temp\ccL2g2h3.s:3177   .text.altcp_mbedtls_lower_recv:0000000000000144 .LVL355
C:\Users\stapi\AppData\Local\Temp\ccL2g2h3.s:2966   .text.altcp_mbedtls_lower_recv:000000000000002e .LVL325
C:\Users\stapi\AppData\Local\Temp\ccL2g2h3.s:2992   .text.altcp_mbedtls_lower_recv:0000000000000044 .LVL329
C:\Users\stapi\AppData\Local\Temp\ccL2g2h3.s:2997   .text.altcp_mbedtls_lower_recv:000000000000004e .LVL330
C:\Users\stapi\AppData\Local\Temp\ccL2g2h3.s:19777  .debug_str:00000000000013a8 .LASF687
C:\Users\stapi\AppData\Local\Temp\ccL2g2h3.s:19153  .debug_str:000000000000001b .LASF688
C:\Users\stapi\AppData\Local\Temp\ccL2g2h3.s:19751  .debug_str:00000000000012aa .LASF689
C:\Users\stapi\AppData\Local\Temp\ccL2g2h3.s:20219  .debug_str:0000000000002205 .LASF690
C:\Users\stapi\AppData\Local\Temp\ccL2g2h3.s:19565  .debug_str:0000000000000d03 .LASF691
C:\Users\stapi\AppData\Local\Temp\ccL2g2h3.s:20321  .debug_str:000000000000250b .LASF692
C:\Users\stapi\AppData\Local\Temp\ccL2g2h3.s:19905  .debug_str:0000000000001711 .LASF693
C:\Users\stapi\AppData\Local\Temp\ccL2g2h3.s:19573  .debug_str:0000000000000d3e .LASF694
C:\Users\stapi\AppData\Local\Temp\ccL2g2h3.s:19733  .debug_str:0000000000001224 .LASF695
C:\Users\stapi\AppData\Local\Temp\ccL2g2h3.s:19505  .debug_str:0000000000000b47 .LASF696
C:\Users\stapi\AppData\Local\Temp\ccL2g2h3.s:20361  .debug_str:000000000000261c .LASF697
C:\Users\stapi\AppData\Local\Temp\ccL2g2h3.s:20603  .debug_str:0000000000002e36 .LASF698
C:\Users\stapi\AppData\Local\Temp\ccL2g2h3.s:20117  .debug_str:0000000000001eb9 .LASF699
C:\Users\stapi\AppData\Local\Temp\ccL2g2h3.s:19935  .debug_str:000000000000181a .LASF700
C:\Users\stapi\AppData\Local\Temp\ccL2g2h3.s:19655  .debug_str:000000000000100c .LASF701
C:\Users\stapi\AppData\Local\Temp\ccL2g2h3.s:20353  .debug_str:00000000000025ef .LASF702
C:\Users\stapi\AppData\Local\Temp\ccL2g2h3.s:19327  .debug_str:00000000000005a7 .LASF703
C:\Users\stapi\AppData\Local\Temp\ccL2g2h3.s:19375  .debug_str:000000000000072f .LASF704
C:\Users\stapi\AppData\Local\Temp\ccL2g2h3.s:20133  .debug_str:0000000000001f23 .LASF705
C:\Users\stapi\AppData\Local\Temp\ccL2g2h3.s:19193  .debug_str:0000000000000167 .LASF706
C:\Users\stapi\AppData\Local\Temp\ccL2g2h3.s:20297  .debug_str:000000000000246c .LASF707
C:\Users\stapi\AppData\Local\Temp\ccL2g2h3.s:19321  .debug_str:000000000000058a .LASF708
C:\Users\stapi\AppData\Local\Temp\ccL2g2h3.s:20337  .debug_str:000000000000258c .LASF709
C:\Users\stapi\AppData\Local\Temp\ccL2g2h3.s:20295  .debug_str:000000000000245c .LASF710
C:\Users\stapi\AppData\Local\Temp\ccL2g2h3.s:20537  .debug_str:0000000000002c1d .LASF711
C:\Users\stapi\AppData\Local\Temp\ccL2g2h3.s:19211  .debug_str:0000000000000206 .LASF712
C:\Users\stapi\AppData\Local\Temp\ccL2g2h3.s:20483  .debug_str:0000000000002a60 .LASF713
C:\Users\stapi\AppData\Local\Temp\ccL2g2h3.s:19217  .debug_str:0000000000000252 .LASF714
C:\Users\stapi\AppData\Local\Temp\ccL2g2h3.s:19813  .debug_str:00000000000014be .LASF715
C:\Users\stapi\AppData\Local\Temp\ccL2g2h3.s:20479  .debug_str:0000000000002a39 .LASF716
C:\Users\stapi\AppData\Local\Temp\ccL2g2h3.s:19369  .debug_str:0000000000000707 .LASF717
C:\Users\stapi\AppData\Local\Temp\ccL2g2h3.s:20515  .debug_str:0000000000002b76 .LASF718
C:\Users\stapi\AppData\Local\Temp\ccL2g2h3.s:19787  .debug_str:0000000000001407 .LASF719
C:\Users\stapi\AppData\Local\Temp\ccL2g2h3.s:20289  .debug_str:0000000000002426 .LASF720
C:\Users\stapi\AppData\Local\Temp\ccL2g2h3.s:19479  .debug_str:0000000000000a5b .LASF721
C:\Users\stapi\AppData\Local\Temp\ccL2g2h3.s:20081  .debug_str:0000000000001d74 .LASF722
C:\Users\stapi\AppData\Local\Temp\ccL2g2h3.s:19411  .debug_str:0000000000000848 .LASF723
C:\Users\stapi\AppData\Local\Temp\ccL2g2h3.s:20153  .debug_str:0000000000001f91 .LASF724
C:\Users\stapi\AppData\Local\Temp\ccL2g2h3.s:20373  .debug_str:00000000000026e6 .LASF725
C:\Users\stapi\AppData\Local\Temp\ccL2g2h3.s:20185  .debug_str:00000000000020f7 .LASF726
C:\Users\stapi\AppData\Local\Temp\ccL2g2h3.s:19941  .debug_str:0000000000001859 .LASF727
C:\Users\stapi\AppData\Local\Temp\ccL2g2h3.s:20623  .debug_str:0000000000002eb0 .LASF728
C:\Users\stapi\AppData\Local\Temp\ccL2g2h3.s:19955  .debug_str:00000000000018bf .LASF729
C:\Users\stapi\AppData\Local\Temp\ccL2g2h3.s:19351  .debug_str:0000000000000679 .LASF730
C:\Users\stapi\AppData\Local\Temp\ccL2g2h3.s:20637  .debug_str:0000000000002f2f .LASF731
C:\Users\stapi\AppData\Local\Temp\ccL2g2h3.s:19857  .debug_str:00000000000015d2 .LASF732
C:\Users\stapi\AppData\Local\Temp\ccL2g2h3.s:19809  .debug_str:000000000000149a .LASF733
C:\Users\stapi\AppData\Local\Temp\ccL2g2h3.s:19379  .debug_str:000000000000075a .LASF734
C:\Users\stapi\AppData\Local\Temp\ccL2g2h3.s:19643  .debug_str:0000000000000fa6 .LASF735
C:\Users\stapi\AppData\Local\Temp\ccL2g2h3.s:19973  .debug_str:000000000000193f .LASF736
C:\Users\stapi\AppData\Local\Temp\ccL2g2h3.s:19553  .debug_str:0000000000000cbb .LASF737
C:\Users\stapi\AppData\Local\Temp\ccL2g2h3.s:19205  .debug_str:00000000000001ce .LASF738
C:\Users\stapi\AppData\Local\Temp\ccL2g2h3.s:19875  .debug_str:0000000000001639 .LASF739
C:\Users\stapi\AppData\Local\Temp\ccL2g2h3.s:19261  .debug_str:00000000000003b3 .LASF740
C:\Users\stapi\AppData\Local\Temp\ccL2g2h3.s:20615  .debug_str:0000000000002e8f .LASF741
C:\Users\stapi\AppData\Local\Temp\ccL2g2h3.s:19461  .debug_str:00000000000009f7 .LASF742
C:\Users\stapi\AppData\Local\Temp\ccL2g2h3.s:20507  .debug_str:0000000000002b24 .LASF743
C:\Users\stapi\AppData\Local\Temp\ccL2g2h3.s:19361  .debug_str:00000000000006c8 .LASF744
C:\Users\stapi\AppData\Local\Temp\ccL2g2h3.s:859    .text.altcp_mbedtls_dealloc:0000000000000000 .LVL102
C:\Users\stapi\AppData\Local\Temp\ccL2g2h3.s:880    .text.altcp_mbedtls_dealloc:0000000000000014 .LVL104
C:\Users\stapi\AppData\Local\Temp\ccL2g2h3.s:914    .text.altcp_mbedtls_dealloc:000000000000004a .LVL108
C:\Users\stapi\AppData\Local\Temp\ccL2g2h3.s:874    .text.altcp_mbedtls_dealloc:000000000000000e .LVL103
C:\Users\stapi\AppData\Local\Temp\ccL2g2h3.s:1062   .text.altcp_mbedtls_write:0000000000000000 .LVL124
C:\Users\stapi\AppData\Local\Temp\ccL2g2h3.s:1101   .text.altcp_mbedtls_write:0000000000000026 .LVL126
C:\Users\stapi\AppData\Local\Temp\ccL2g2h3.s:1141   .text.altcp_mbedtls_write:0000000000000074 .LVL131
C:\Users\stapi\AppData\Local\Temp\ccL2g2h3.s:1145   .text.altcp_mbedtls_write:0000000000000076 .LVL132
C:\Users\stapi\AppData\Local\Temp\ccL2g2h3.s:1207   .text.altcp_mbedtls_write:00000000000000ce .LVL137
C:\Users\stapi\AppData\Local\Temp\ccL2g2h3.s:1217   .text.altcp_mbedtls_write:00000000000000d0 .LVL138
C:\Users\stapi\AppData\Local\Temp\ccL2g2h3.s:1220   .text.altcp_mbedtls_write:00000000000000d2 .LVL139
C:\Users\stapi\AppData\Local\Temp\ccL2g2h3.s:1230   .text.altcp_mbedtls_write:00000000000000d4 .LVL140
C:\Users\stapi\AppData\Local\Temp\ccL2g2h3.s:1232   .text.altcp_mbedtls_write:00000000000000d6 .LVL141
C:\Users\stapi\AppData\Local\Temp\ccL2g2h3.s:1236   .text.altcp_mbedtls_write:00000000000000d8 .LVL142
C:\Users\stapi\AppData\Local\Temp\ccL2g2h3.s:1155   .text.altcp_mbedtls_write:0000000000000088 .LVL134
C:\Users\stapi\AppData\Local\Temp\ccL2g2h3.s:1110   .text.altcp_mbedtls_write:0000000000000034 .LVL128
C:\Users\stapi\AppData\Local\Temp\ccL2g2h3.s:1171   .text.altcp_mbedtls_write:0000000000000094 .LVL135
C:\Users\stapi\AppData\Local\Temp\ccL2g2h3.s:1084   .text.altcp_mbedtls_write:0000000000000010 .LVL125
C:\Users\stapi\AppData\Local\Temp\ccL2g2h3.s:927    .text.altcp_mbedtls_sndbuf:0000000000000000 .LVL109
C:\Users\stapi\AppData\Local\Temp\ccL2g2h3.s:949    .text.altcp_mbedtls_sndbuf:0000000000000012 .LVL111
C:\Users\stapi\AppData\Local\Temp\ccL2g2h3.s:945    .text.altcp_mbedtls_sndbuf:0000000000000010 .LVL110
C:\Users\stapi\AppData\Local\Temp\ccL2g2h3.s:968    .text.altcp_mbedtls_sndbuf:000000000000002e .LVL113
C:\Users\stapi\AppData\Local\Temp\ccL2g2h3.s:1022   .text.altcp_mbedtls_sndbuf:0000000000000070 .LVL122
C:\Users\stapi\AppData\Local\Temp\ccL2g2h3.s:971    .text.altcp_mbedtls_sndbuf:0000000000000030 .LVL114
C:\Users\stapi\AppData\Local\Temp\ccL2g2h3.s:978    .text.altcp_mbedtls_sndbuf:000000000000003c .LVL116
C:\Users\stapi\AppData\Local\Temp\ccL2g2h3.s:989    .text.altcp_mbedtls_sndbuf:000000000000004e .LVL117
C:\Users\stapi\AppData\Local\Temp\ccL2g2h3.s:1001   .text.altcp_mbedtls_sndbuf:0000000000000054 .LVL119
C:\Users\stapi\AppData\Local\Temp\ccL2g2h3.s:996    .text.altcp_mbedtls_sndbuf:0000000000000052 .LVL118
C:\Users\stapi\AppData\Local\Temp\ccL2g2h3.s:1019   .text.altcp_mbedtls_sndbuf:000000000000006c .LVL121
C:\Users\stapi\AppData\Local\Temp\ccL2g2h3.s:1248   .text.altcp_mbedtls_close:0000000000000000 .LVL143
C:\Users\stapi\AppData\Local\Temp\ccL2g2h3.s:1278   .text.altcp_mbedtls_close:0000000000000016 .LVL145
C:\Users\stapi\AppData\Local\Temp\ccL2g2h3.s:1348   .text.altcp_mbedtls_close:000000000000008a .LVL157
C:\Users\stapi\AppData\Local\Temp\ccL2g2h3.s:1266   .text.altcp_mbedtls_close:0000000000000010 .LVL144
C:\Users\stapi\AppData\Local\Temp\ccL2g2h3.s:1319   .text.altcp_mbedtls_close:0000000000000062 .LVL153
C:\Users\stapi\AppData\Local\Temp\ccL2g2h3.s:1326   .text.altcp_mbedtls_close:0000000000000068 .LVL154
C:\Users\stapi\AppData\Local\Temp\ccL2g2h3.s:1355   .text.altcp_mbedtls_close:000000000000008e .LVL158
C:\Users\stapi\AppData\Local\Temp\ccL2g2h3.s:1283   .text.altcp_mbedtls_close:000000000000001a .LVL146
C:\Users\stapi\AppData\Local\Temp\ccL2g2h3.s:555    .text.altcp_mbedtls_abort:0000000000000000 .LVL62
C:\Users\stapi\AppData\Local\Temp\ccL2g2h3.s:561    .text.altcp_mbedtls_abort:0000000000000004 .LVL63
C:\Users\stapi\AppData\Local\Temp\ccL2g2h3.s:1376   .text.altcp_mbedtls_listen:0000000000000000 .LVL160
C:\Users\stapi\AppData\Local\Temp\ccL2g2h3.s:1385   .text.altcp_mbedtls_listen:000000000000000a .LVL161
C:\Users\stapi\AppData\Local\Temp\ccL2g2h3.s:1397   .text.altcp_mbedtls_listen:0000000000000016 .LVL162
C:\Users\stapi\AppData\Local\Temp\ccL2g2h3.s:1404   .text.altcp_mbedtls_listen:000000000000001a .LVL163
C:\Users\stapi\AppData\Local\Temp\ccL2g2h3.s:1432   .text.altcp_mbedtls_connect:0000000000000000 .LVL166
C:\Users\stapi\AppData\Local\Temp\ccL2g2h3.s:1442   .text.altcp_mbedtls_connect:0000000000000006 .LVL167
C:\Users\stapi\AppData\Local\Temp\ccL2g2h3.s:1451   .text.altcp_mbedtls_connect:0000000000000018 .LVL170
C:\Users\stapi\AppData\Local\Temp\ccL2g2h3.s:1444   .text.altcp_mbedtls_connect:000000000000000a .LVL168
C:\Users\stapi\AppData\Local\Temp\ccL2g2h3.s:502    .text.altcp_mbedtls_recved:0000000000000000 .LVL56
C:\Users\stapi\AppData\Local\Temp\ccL2g2h3.s:536    .text.altcp_mbedtls_recved:000000000000001c .LVL60
C:\Users\stapi\AppData\Local\Temp\ccL2g2h3.s:531    .text.altcp_mbedtls_recved:000000000000001a .LVL59
C:\Users\stapi\AppData\Local\Temp\ccL2g2h3.s:521    .text.altcp_mbedtls_recved:000000000000000e .LVL58
C:\Users\stapi\AppData\Local\Temp\ccL2g2h3.s:511    .text.altcp_mbedtls_recved:0000000000000004 .LVL57
C:\Users\stapi\AppData\Local\Temp\ccL2g2h3.s:3771   .text.altcp_tls_free_config:0000000000000000 .LVL439
C:\Users\stapi\AppData\Local\Temp\ccL2g2h3.s:3781   .text.altcp_tls_free_config:000000000000000e .LVL440
C:\Users\stapi\AppData\Local\Temp\ccL2g2h3.s:3641   .text.altcp_tls_create_config_client_2wayauth:0000000000000000 .LVL420
C:\Users\stapi\AppData\Local\Temp\ccL2g2h3.s:3657   .text.altcp_tls_create_config_client_2wayauth:000000000000000c .LVL421
C:\Users\stapi\AppData\Local\Temp\ccL2g2h3.s:3663   .text.altcp_tls_create_config_client_2wayauth:0000000000000010 .LVL422
C:\Users\stapi\AppData\Local\Temp\ccL2g2h3.s:3668   .text.altcp_tls_create_config_client_2wayauth:0000000000000014 .LVL423
C:\Users\stapi\AppData\Local\Temp\ccL2g2h3.s:3746   .text.altcp_tls_create_config_client_2wayauth:0000000000000092 .LVL438
C:\Users\stapi\AppData\Local\Temp\ccL2g2h3.s:3702   .text.altcp_tls_create_config_client_2wayauth:000000000000004e .LVL428
C:\Users\stapi\AppData\Local\Temp\ccL2g2h3.s:3708   .text.altcp_tls_create_config_client_2wayauth:0000000000000058 .LVL430
C:\Users\stapi\AppData\Local\Temp\ccL2g2h3.s:3712   .text.altcp_tls_create_config_client_2wayauth:000000000000005c .LVL431
C:\Users\stapi\AppData\Local\Temp\ccL2g2h3.s:3731   .text.altcp_tls_create_config_client_2wayauth:000000000000007c .LVL434
C:\Users\stapi\AppData\Local\Temp\ccL2g2h3.s:3733   .text.altcp_tls_create_config_client_2wayauth:000000000000007e .LVL435
C:\Users\stapi\AppData\Local\Temp\ccL2g2h3.s:3740   .text.altcp_tls_create_config_client_2wayauth:0000000000000088 .LVL436
C:\Users\stapi\AppData\Local\Temp\ccL2g2h3.s:3681   .text.altcp_tls_create_config_client_2wayauth:000000000000002a .LVL425
C:\Users\stapi\AppData\Local\Temp\ccL2g2h3.s:3557   .text.altcp_tls_create_config_client_psk:0000000000000000 .LVL408
C:\Users\stapi\AppData\Local\Temp\ccL2g2h3.s:3583   .text.altcp_tls_create_config_client_psk:000000000000001a .LVL412
C:\Users\stapi\AppData\Local\Temp\ccL2g2h3.s:3581   .text.altcp_tls_create_config_client_psk:0000000000000018 .LVL411
C:\Users\stapi\AppData\Local\Temp\ccL2g2h3.s:3579   .text.altcp_tls_create_config_client_psk:0000000000000016 .LVL410
C:\Users\stapi\AppData\Local\Temp\ccL2g2h3.s:3577   .text.altcp_tls_create_config_client_psk:0000000000000014 .LVL409
C:\Users\stapi\AppData\Local\Temp\ccL2g2h3.s:3622   .text.altcp_tls_create_config_client_psk:000000000000004e .LVL419
C:\Users\stapi\AppData\Local\Temp\ccL2g2h3.s:3610   .text.altcp_tls_create_config_client_psk:0000000000000040 .LVL416
C:\Users\stapi\AppData\Local\Temp\ccL2g2h3.s:3587   .text.altcp_tls_create_config_client_psk:0000000000000024 .LVL414
C:\Users\stapi\AppData\Local\Temp\ccL2g2h3.s:3616   .text.altcp_tls_create_config_client_psk:000000000000004a .LVL418
C:\Users\stapi\AppData\Local\Temp\ccL2g2h3.s:3540   .text.altcp_tls_create_config_client:0000000000000000 .LVL406
C:\Users\stapi\AppData\Local\Temp\ccL2g2h3.s:773    .text.altcp_tls_create_config_client_common:0000000000000000 .LVL89
C:\Users\stapi\AppData\Local\Temp\ccL2g2h3.s:789    .text.altcp_tls_create_config_client_common:0000000000000012 .LVL90
C:\Users\stapi\AppData\Local\Temp\ccL2g2h3.s:792    .text.altcp_tls_create_config_client_common:0000000000000014 .LVL91
C:\Users\stapi\AppData\Local\Temp\ccL2g2h3.s:821    .text.altcp_tls_create_config_client_common:0000000000000042 .LVL96
C:\Users\stapi\AppData\Local\Temp\ccL2g2h3.s:838    .text.altcp_tls_create_config_client_common:0000000000000056 .LVL99
C:\Users\stapi\AppData\Local\Temp\ccL2g2h3.s:845    .text.altcp_tls_create_config_client_common:000000000000005e .LVL100
C:\Users\stapi\AppData\Local\Temp\ccL2g2h3.s:797    .text.altcp_tls_create_config_client_common:000000000000001e .LVL93
C:\Users\stapi\AppData\Local\Temp\ccL2g2h3.s:827    .text.altcp_tls_create_config_client_common:000000000000004c .LVL98
C:\Users\stapi\AppData\Local\Temp\ccL2g2h3.s:3381   .text.altcp_tls_create_config_server_privkey_cert:0000000000000000 .LVL379
C:\Users\stapi\AppData\Local\Temp\ccL2g2h3.s:3411   .text.altcp_tls_create_config_server_privkey_cert:0000000000000018 .LVL383
C:\Users\stapi\AppData\Local\Temp\ccL2g2h3.s:3409   .text.altcp_tls_create_config_server_privkey_cert:0000000000000016 .LVL382
C:\Users\stapi\AppData\Local\Temp\ccL2g2h3.s:3405   .text.altcp_tls_create_config_server_privkey_cert:0000000000000012 .LVL380
C:\Users\stapi\AppData\Local\Temp\ccL2g2h3.s:3407   .text.altcp_tls_create_config_server_privkey_cert:0000000000000014 .LVL381
C:\Users\stapi\AppData\Local\Temp\ccL2g2h3.s:3449   .text.altcp_tls_create_config_server_privkey_cert:0000000000000054 .LVL391
C:\Users\stapi\AppData\Local\Temp\ccL2g2h3.s:3475   .text.altcp_tls_create_config_server_privkey_cert:000000000000006a .LVL394
C:\Users\stapi\AppData\Local\Temp\ccL2g2h3.s:3485   .text.altcp_tls_create_config_server_privkey_cert:0000000000000074 .LVL395
C:\Users\stapi\AppData\Local\Temp\ccL2g2h3.s:3494   .text.altcp_tls_create_config_server_privkey_cert:0000000000000080 .LVL397
C:\Users\stapi\AppData\Local\Temp\ccL2g2h3.s:3499   .text.altcp_tls_create_config_server_privkey_cert:000000000000008a .LVL399
C:\Users\stapi\AppData\Local\Temp\ccL2g2h3.s:3505   .text.altcp_tls_create_config_server_privkey_cert:0000000000000092 .LVL400
C:\Users\stapi\AppData\Local\Temp\ccL2g2h3.s:3521   .text.altcp_tls_create_config_server_privkey_cert:00000000000000ac .LVL403
C:\Users\stapi\AppData\Local\Temp\ccL2g2h3.s:3426   .text.altcp_tls_create_config_server_privkey_cert:000000000000002c .LVL386
C:\Users\stapi\AppData\Local\Temp\ccL2g2h3.s:3458   .text.altcp_tls_create_config_server_privkey_cert:0000000000000060 .LVL393
C:\Users\stapi\AppData\Local\Temp\ccL2g2h3.s:3434   .text.altcp_tls_create_config_server_privkey_cert:000000000000003a .LVL388
C:\Users\stapi\AppData\Local\Temp\ccL2g2h3.s:3419   .text.altcp_tls_create_config_server_privkey_cert:0000000000000026 .LVL385
C:\Users\stapi\AppData\Local\Temp\ccL2g2h3.s:576    .text.altcp_tls_create_config:0000000000000000 .LVL65
C:\Users\stapi\AppData\Local\Temp\ccL2g2h3.s:680    .text.altcp_tls_create_config:0000000000000076 .LVL76
C:\Users\stapi\AppData\Local\Temp\ccL2g2h3.s:611    .text.altcp_tls_create_config:0000000000000026 .LVL67
C:\Users\stapi\AppData\Local\Temp\ccL2g2h3.s:705    .text.altcp_tls_create_config:00000000000000a4 .LVL80
C:\Users\stapi\AppData\Local\Temp\ccL2g2h3.s:726    .text.altcp_tls_create_config:00000000000000ba .LVL83
C:\Users\stapi\AppData\Local\Temp\ccL2g2h3.s:735    .text.altcp_tls_create_config:00000000000000c2 .LVL84
C:\Users\stapi\AppData\Local\Temp\ccL2g2h3.s:750    .text.altcp_tls_create_config:00000000000000d4 .LVL86
C:\Users\stapi\AppData\Local\Temp\ccL2g2h3.s:633    .text.altcp_tls_create_config:000000000000003c .LVL71
C:\Users\stapi\AppData\Local\Temp\ccL2g2h3.s:711    .text.altcp_tls_create_config:00000000000000ae .LVL82
C:\Users\stapi\AppData\Local\Temp\ccL2g2h3.s:640    .text.altcp_tls_create_config:0000000000000042 .LVL72
C:\Users\stapi\AppData\Local\Temp\ccL2g2h3.s:17     .text.dummy_rng:0000000000000000 .LVL0
C:\Users\stapi\AppData\Local\Temp\ccL2g2h3.s:24     .text.dummy_rng:0000000000000008 .LVL1
C:\Users\stapi\AppData\Local\Temp\ccL2g2h3.s:31     .text.dummy_rng:0000000000000014 .LVL2
C:\Users\stapi\AppData\Local\Temp\ccL2g2h3.s:37     .text.dummy_rng:000000000000001a .LVL3
C:\Users\stapi\AppData\Local\Temp\ccL2g2h3.s:45     .text.dummy_rng:0000000000000022 .LVL4
C:\Users\stapi\AppData\Local\Temp\ccL2g2h3.s:3350   .text.altcp_tls_context:0000000000000000 .LVL375
C:\Users\stapi\AppData\Local\Temp\ccL2g2h3.s:3356   .text.altcp_tls_context:0000000000000004 .LVL376
C:\Users\stapi\AppData\Local\Temp\ccL2g2h3.s:3361   .text.altcp_tls_context:0000000000000006 .LVL377
C:\Users\stapi\AppData\Local\Temp\ccL2g2h3.s:3365   .text.altcp_tls_context:0000000000000008 .LVL378
C:\Users\stapi\AppData\Local\Temp\ccL2g2h3.s:3282   .text.altcp_tls_wrap:0000000000000000 .LVL368
C:\Users\stapi\AppData\Local\Temp\ccL2g2h3.s:3295   .text.altcp_tls_wrap:000000000000000c .LVL369
C:\Users\stapi\AppData\Local\Temp\ccL2g2h3.s:3311   .text.altcp_tls_wrap:000000000000001a .LVL370
C:\Users\stapi\AppData\Local\Temp\ccL2g2h3.s:342    .text.altcp_mbedtls_setup_callbacks:0000000000000000 .LVL37
C:\Users\stapi\AppData\Local\Temp\ccL2g2h3.s:354    .text.altcp_mbedtls_setup_callbacks:000000000000000e .LVL39
C:\Users\stapi\AppData\Local\Temp\ccL2g2h3.s:352    .text.altcp_mbedtls_setup_callbacks:000000000000000c .LVL38
C:\Users\stapi\AppData\Local\Temp\ccL2g2h3.s:68     .text.altcp_mbedtls_lower_err:0000000000000000 .LVL6
C:\Users\stapi\AppData\Local\Temp\ccL2g2h3.s:89     .text.altcp_mbedtls_lower_err:0000000000000016 .LVL7
C:\Users\stapi\AppData\Local\Temp\ccL2g2h3.s:102    .text.altcp_mbedtls_lower_err:000000000000002a .LVL10
C:\Users\stapi\AppData\Local\Temp\ccL2g2h3.s:91     .text.altcp_mbedtls_lower_err:0000000000000018 .LVL8
C:\Users\stapi\AppData\Local\Temp\ccL2g2h3.s:394    .text.altcp_mbedtls_lower_sent:0000000000000000 .LVL44
C:\Users\stapi\AppData\Local\Temp\ccL2g2h3.s:403    .text.altcp_mbedtls_lower_sent:0000000000000004 .LVL45
C:\Users\stapi\AppData\Local\Temp\ccL2g2h3.s:406    .text.altcp_mbedtls_lower_sent:0000000000000006 .LVL46
C:\Users\stapi\AppData\Local\Temp\ccL2g2h3.s:421    .text.altcp_mbedtls_lower_sent:0000000000000010 .LVL47
C:\Users\stapi\AppData\Local\Temp\ccL2g2h3.s:438    .text.altcp_mbedtls_lower_sent:0000000000000020 .LVL49
C:\Users\stapi\AppData\Local\Temp\ccL2g2h3.s:443    .text.altcp_mbedtls_lower_sent:0000000000000028 .LVL50
C:\Users\stapi\AppData\Local\Temp\ccL2g2h3.s:457    .text.altcp_mbedtls_lower_sent:0000000000000046 .LVL53
C:\Users\stapi\AppData\Local\Temp\ccL2g2h3.s:447    .text.altcp_mbedtls_lower_sent:0000000000000034 .LVL51
C:\Users\stapi\AppData\Local\Temp\ccL2g2h3.s:434    .text.altcp_mbedtls_lower_sent:000000000000001c .LVL48
C:\Users\stapi\AppData\Local\Temp\ccL2g2h3.s:128    .text.altcp_mbedtls_bio_recv:0000000000000000 .LVL11
C:\Users\stapi\AppData\Local\Temp\ccL2g2h3.s:170    .text.altcp_mbedtls_bio_recv:0000000000000026 .LVL14
C:\Users\stapi\AppData\Local\Temp\ccL2g2h3.s:201    .text.altcp_mbedtls_bio_recv:000000000000004e .LVL17
C:\Users\stapi\AppData\Local\Temp\ccL2g2h3.s:217    .text.altcp_mbedtls_bio_recv:000000000000005c .LVL20
C:\Users\stapi\AppData\Local\Temp\ccL2g2h3.s:307    .text.altcp_mbedtls_bio_recv:00000000000000ec .LVL33
C:\Users\stapi\AppData\Local\Temp\ccL2g2h3.s:317    .text.altcp_mbedtls_bio_recv:00000000000000f0 .LVL34
C:\Users\stapi\AppData\Local\Temp\ccL2g2h3.s:320    .text.altcp_mbedtls_bio_recv:00000000000000f2 .LVL35
C:\Users\stapi\AppData\Local\Temp\ccL2g2h3.s:330    .text.altcp_mbedtls_bio_recv:00000000000000f6 .LVL36
C:\Users\stapi\AppData\Local\Temp\ccL2g2h3.s:215    .text.altcp_mbedtls_bio_recv:000000000000005a .LVL19
C:\Users\stapi\AppData\Local\Temp\ccL2g2h3.s:152    .text.altcp_mbedtls_bio_recv:0000000000000012 .LVL12
C:\Users\stapi\AppData\Local\Temp\ccL2g2h3.s:190    .text.altcp_mbedtls_bio_recv:0000000000000046 .LVL16
C:\Users\stapi\AppData\Local\Temp\ccL2g2h3.s:156    .text.altcp_mbedtls_bio_recv:0000000000000016 .LVL13
C:\Users\stapi\AppData\Local\Temp\ccL2g2h3.s:221    .text.altcp_mbedtls_bio_recv:0000000000000066 .LVL22
C:\Users\stapi\AppData\Local\Temp\ccL2g2h3.s:230    .text.altcp_mbedtls_bio_recv:0000000000000076 .LVL23
C:\Users\stapi\AppData\Local\Temp\ccL2g2h3.s:242    .text.altcp_mbedtls_bio_recv:0000000000000090 .LVL25
C:\Users\stapi\AppData\Local\Temp\ccL2g2h3.s:250    .text.altcp_mbedtls_bio_recv:0000000000000094 .LVL26
C:\Users\stapi\AppData\Local\Temp\ccL2g2h3.s:210    .text.altcp_mbedtls_bio_recv:0000000000000056 .LVL18
C:\Users\stapi\AppData\Local\Temp\ccL2g2h3.s:261    .text.altcp_mbedtls_bio_recv:00000000000000aa .LVL28
C:\Users\stapi\AppData\Local\Temp\ccL2g2h3.s:273    .text.altcp_mbedtls_bio_recv:00000000000000c4 .LVL30
C:\Users\stapi\AppData\Local\Temp\ccL2g2h3.s:286    .text.altcp_mbedtls_bio_recv:00000000000000ce .LVL31
C:\Users\stapi\AppData\Local\Temp\ccL2g2h3.s:2671   .text.altcp_mbedtls_lower_recv_process:0000000000000000 .LVL298
C:\Users\stapi\AppData\Local\Temp\ccL2g2h3.s:2692   .text.altcp_mbedtls_lower_recv_process:0000000000000014 .LVL299
C:\Users\stapi\AppData\Local\Temp\ccL2g2h3.s:2723   .text.altcp_mbedtls_lower_recv_process:0000000000000036 .LVL302
C:\Users\stapi\AppData\Local\Temp\ccL2g2h3.s:2726   .text.altcp_mbedtls_lower_recv_process:0000000000000038 .LVL303
C:\Users\stapi\AppData\Local\Temp\ccL2g2h3.s:2736   .text.altcp_mbedtls_lower_recv_process:000000000000004c .LVL305
C:\Users\stapi\AppData\Local\Temp\ccL2g2h3.s:2749   .text.altcp_mbedtls_lower_recv_process:000000000000005a .LVL306
C:\Users\stapi\AppData\Local\Temp\ccL2g2h3.s:2770   .text.altcp_mbedtls_lower_recv_process:0000000000000076 .LVL307
C:\Users\stapi\AppData\Local\Temp\ccL2g2h3.s:2787   .text.altcp_mbedtls_lower_recv_process:0000000000000088 .LVL309
C:\Users\stapi\AppData\Local\Temp\ccL2g2h3.s:2793   .text.altcp_mbedtls_lower_recv_process:0000000000000092 .LVL311
C:\Users\stapi\AppData\Local\Temp\ccL2g2h3.s:2781   .text.altcp_mbedtls_lower_recv_process:000000000000007e .LVL308
C:\Users\stapi\AppData\Local\Temp\ccL2g2h3.s:3191   .text.altcp_mbedtls_lower_connected:0000000000000000 .LVL356
C:\Users\stapi\AppData\Local\Temp\ccL2g2h3.s:3216   .text.altcp_mbedtls_lower_connected:0000000000000022 .LVL358
C:\Users\stapi\AppData\Local\Temp\ccL2g2h3.s:3229   .text.altcp_mbedtls_lower_connected:000000000000003c .LVL361
C:\Users\stapi\AppData\Local\Temp\ccL2g2h3.s:3245   .text.altcp_mbedtls_lower_connected:0000000000000046 .LVL362
C:\Users\stapi\AppData\Local\Temp\ccL2g2h3.s:3254   .text.altcp_mbedtls_lower_connected:0000000000000050 .LVL364
C:\Users\stapi\AppData\Local\Temp\ccL2g2h3.s:3262   .text.altcp_mbedtls_lower_connected:000000000000005a .LVL366
C:\Users\stapi\AppData\Local\Temp\ccL2g2h3.s:3268   .text.altcp_mbedtls_lower_connected:000000000000005c .LVL367
C:\Users\stapi\AppData\Local\Temp\ccL2g2h3.s:3200   .text.altcp_mbedtls_lower_connected:0000000000000006 .LVL357
C:\Users\stapi\AppData\Local\Temp\ccL2g2h3.s:3219   .text.altcp_mbedtls_lower_connected:000000000000002a .LVL359
C:\Users\stapi\AppData\Local\Temp\ccL2g2h3.s:1795   .text.altcp_mbedtls_lower_accept:0000000000000000 .LVL209
C:\Users\stapi\AppData\Local\Temp\ccL2g2h3.s:1878   .text.altcp_mbedtls_lower_accept:000000000000005c .LVL219
C:\Users\stapi\AppData\Local\Temp\ccL2g2h3.s:1805   .text.altcp_mbedtls_lower_accept:0000000000000008 .LVL210
C:\Users\stapi\AppData\Local\Temp\ccL2g2h3.s:1853   .text.altcp_mbedtls_lower_accept:0000000000000044 .LVL216
C:\Users\stapi\AppData\Local\Temp\ccL2g2h3.s:1859   .text.altcp_mbedtls_lower_accept:0000000000000048 .LVL217
C:\Users\stapi\AppData\Local\Temp\ccL2g2h3.s:1886   .text.altcp_mbedtls_lower_accept:0000000000000060 .LVL220
C:\Users\stapi\AppData\Local\Temp\ccL2g2h3.s:1829   .text.altcp_mbedtls_lower_accept:0000000000000022 .LVL211
C:\Users\stapi\AppData\Local\Temp\ccL2g2h3.s:1835   .text.altcp_mbedtls_lower_accept:000000000000002c .LVL213
C:\Users\stapi\AppData\Local\Temp\ccL2g2h3.s:1845   .text.altcp_mbedtls_lower_accept:0000000000000036 .LVL214
C:\Users\stapi\AppData\Local\Temp\ccL2g2h3.s:1471   .text.altcp_mbedtls_bio_send:0000000000000000 .LVL171
C:\Users\stapi\AppData\Local\Temp\ccL2g2h3.s:1496   .text.altcp_mbedtls_bio_send:0000000000000016 .LVL174
C:\Users\stapi\AppData\Local\Temp\ccL2g2h3.s:1509   .text.altcp_mbedtls_bio_send:0000000000000030 .LVL177
C:\Users\stapi\AppData\Local\Temp\ccL2g2h3.s:1519   .text.altcp_mbedtls_bio_send:0000000000000036 .LVL178
C:\Users\stapi\AppData\Local\Temp\ccL2g2h3.s:1494   .text.altcp_mbedtls_bio_send:0000000000000012 .LVL173
C:\Users\stapi\AppData\Local\Temp\ccL2g2h3.s:1534   .text.altcp_mbedtls_bio_send:0000000000000046 .LVL179
C:\Users\stapi\AppData\Local\Temp\ccL2g2h3.s:1539   .text.altcp_mbedtls_bio_send:0000000000000048 .LVL180
C:\Users\stapi\AppData\Local\Temp\ccL2g2h3.s:1556   .text.altcp_mbedtls_bio_send:0000000000000052 .LVL181
C:\Users\stapi\AppData\Local\Temp\ccL2g2h3.s:1613   .text.altcp_mbedtls_bio_send:00000000000000a2 .LVL188
C:\Users\stapi\AppData\Local\Temp\ccL2g2h3.s:1499   .text.altcp_mbedtls_bio_send:000000000000001e .LVL175
C:\Users\stapi\AppData\Local\Temp\ccL2g2h3.s:1483   .text.altcp_mbedtls_bio_send:0000000000000008 .LVL172
C:\Users\stapi\AppData\Local\Temp\ccL2g2h3.s:1568   .text.altcp_mbedtls_bio_send:000000000000005a .LVL182
C:\Users\stapi\AppData\Local\Temp\ccL2g2h3.s:1601   .text.altcp_mbedtls_bio_send:0000000000000088 .LVL186
C:\Users\stapi\AppData\Local\Temp\ccL2g2h3.s:1635   .text.altcp_mbedtls_setup:0000000000000000 .LVL189
C:\Users\stapi\AppData\Local\Temp\ccL2g2h3.s:1662   .text.altcp_mbedtls_setup:000000000000001e .LVL191
C:\Users\stapi\AppData\Local\Temp\ccL2g2h3.s:1675   .text.altcp_mbedtls_setup:0000000000000038 .LVL194
C:\Users\stapi\AppData\Local\Temp\ccL2g2h3.s:1769   .text.altcp_mbedtls_setup:00000000000000b8 .LVL207
C:\Users\stapi\AppData\Local\Temp\ccL2g2h3.s:1782   .text.altcp_mbedtls_setup:00000000000000ba .LVL208
C:\Users\stapi\AppData\Local\Temp\ccL2g2h3.s:1660   .text.altcp_mbedtls_setup:000000000000001a .LVL190
C:\Users\stapi\AppData\Local\Temp\ccL2g2h3.s:1665   .text.altcp_mbedtls_setup:0000000000000026 .LVL192
C:\Users\stapi\AppData\Local\Temp\ccL2g2h3.s:1678   .text.altcp_mbedtls_setup:000000000000003a .LVL195
C:\Users\stapi\AppData\Local\Temp\ccL2g2h3.s:1719   .text.altcp_mbedtls_setup:0000000000000072 .LVL202
C:\Users\stapi\AppData\Local\Temp\ccL2g2h3.s:1732   .text.altcp_mbedtls_setup:000000000000007a .LVL203
C:\Users\stapi\AppData\Local\Temp\ccL2g2h3.s:1711   .text.altcp_mbedtls_setup:0000000000000066 .LVL200
C:\Users\stapi\AppData\Local\Temp\ccL2g2h3.s:1745   .text.altcp_mbedtls_setup:0000000000000090 .LVL204
C:\Users\stapi\AppData\Local\Temp\ccL2g2h3.s:1688   .text.altcp_mbedtls_setup:0000000000000044 .LVL197
C:\Users\stapi\AppData\Local\Temp\ccL2g2h3.s:1922   .text.altcp_mbedtls_handle_rx_appldata:0000000000000000 .LVL222
C:\Users\stapi\AppData\Local\Temp\ccL2g2h3.s:1947   .text.altcp_mbedtls_handle_rx_appldata:0000000000000016 .LVL224
C:\Users\stapi\AppData\Local\Temp\ccL2g2h3.s:1959   .text.altcp_mbedtls_handle_rx_appldata:0000000000000030 .LVL226
C:\Users\stapi\AppData\Local\Temp\ccL2g2h3.s:2004   .text.altcp_mbedtls_handle_rx_appldata:000000000000004c .LVL228
C:\Users\stapi\AppData\Local\Temp\ccL2g2h3.s:2314   .text.altcp_mbedtls_handle_rx_appldata:00000000000001fc .LVL260
C:\Users\stapi\AppData\Local\Temp\ccL2g2h3.s:2336   .text.altcp_mbedtls_handle_rx_appldata:0000000000000204 .LVL261
C:\Users\stapi\AppData\Local\Temp\ccL2g2h3.s:2461   .text.altcp_mbedtls_handle_rx_appldata:00000000000002b4 .LVL272
C:\Users\stapi\AppData\Local\Temp\ccL2g2h3.s:2469   .text.altcp_mbedtls_handle_rx_appldata:00000000000002b6 .LVL273
C:\Users\stapi\AppData\Local\Temp\ccL2g2h3.s:1945   .text.altcp_mbedtls_handle_rx_appldata:0000000000000012 .LVL223
C:\Users\stapi\AppData\Local\Temp\ccL2g2h3.s:1970   .text.altcp_mbedtls_handle_rx_appldata:000000000000003c .LVL227
C:\Users\stapi\AppData\Local\Temp\ccL2g2h3.s:2033   .text.altcp_mbedtls_handle_rx_appldata:0000000000000074 .LVL233
C:\Users\stapi\AppData\Local\Temp\ccL2g2h3.s:2065   .text.altcp_mbedtls_handle_rx_appldata:00000000000000ac .LVL235
C:\Users\stapi\AppData\Local\Temp\ccL2g2h3.s:2068   .text.altcp_mbedtls_handle_rx_appldata:00000000000000ae .LVL236
C:\Users\stapi\AppData\Local\Temp\ccL2g2h3.s:2079   .text.altcp_mbedtls_handle_rx_appldata:00000000000000ba .LVL238
C:\Users\stapi\AppData\Local\Temp\ccL2g2h3.s:2020   .text.altcp_mbedtls_handle_rx_appldata:0000000000000060 .LVL230
C:\Users\stapi\AppData\Local\Temp\ccL2g2h3.s:2029   .text.altcp_mbedtls_handle_rx_appldata:000000000000006a .LVL231
C:\Users\stapi\AppData\Local\Temp\ccL2g2h3.s:2206   .text.altcp_mbedtls_handle_rx_appldata:0000000000000178 .LVL249
C:\Users\stapi\AppData\Local\Temp\ccL2g2h3.s:2232   .text.altcp_mbedtls_handle_rx_appldata:00000000000001a2 .LVL251
C:\Users\stapi\AppData\Local\Temp\ccL2g2h3.s:2248   .text.altcp_mbedtls_handle_rx_appldata:00000000000001ba .LVL254
C:\Users\stapi\AppData\Local\Temp\ccL2g2h3.s:2158   .text.altcp_mbedtls_handle_rx_appldata:0000000000000148 .LVL243
C:\Users\stapi\AppData\Local\Temp\ccL2g2h3.s:2177   .text.altcp_mbedtls_handle_rx_appldata:0000000000000156 .LVL245
C:\Users\stapi\AppData\Local\Temp\ccL2g2h3.s:2186   .text.altcp_mbedtls_handle_rx_appldata:0000000000000166 .LVL247
C:\Users\stapi\AppData\Local\Temp\ccL2g2h3.s:2172   .text.altcp_mbedtls_handle_rx_appldata:0000000000000150 .LVL244
C:\Users\stapi\AppData\Local\Temp\ccL2g2h3.s:2195   .text.altcp_mbedtls_handle_rx_appldata:000000000000016e .LVL248
C:\Users\stapi\AppData\Local\Temp\ccL2g2h3.s:2307   .text.altcp_mbedtls_handle_rx_appldata:00000000000001fa .LVL259
C:\Users\stapi\AppData\Local\Temp\ccL2g2h3.s:2412   .text.altcp_mbedtls_handle_rx_appldata:000000000000027e .LVL269
C:\Users\stapi\AppData\Local\Temp\ccL2g2h3.s:2422   .text.altcp_mbedtls_handle_rx_appldata:0000000000000284 .LVL270
C:\Users\stapi\AppData\Local\Temp\ccL2g2h3.s:2355   .text.altcp_mbedtls_handle_rx_appldata:0000000000000218 .LVL262
C:\Users\stapi\AppData\Local\Temp\ccL2g2h3.s:2367   .text.altcp_mbedtls_handle_rx_appldata:0000000000000232 .LVL264
C:\Users\stapi\AppData\Local\Temp\ccL2g2h3.s:2388   .text.altcp_mbedtls_handle_rx_appldata:0000000000000252 .LVL265
C:\Users\stapi\AppData\Local\Temp\ccL2g2h3.s:2261   .text.altcp_mbedtls_handle_rx_appldata:00000000000001be .LVL255
C:\Users\stapi\AppData\Local\Temp\ccL2g2h3.s:2275   .text.altcp_mbedtls_handle_rx_appldata:00000000000001cc .LVL256
C:\Users\stapi\AppData\Local\Temp\ccL2g2h3.s:2294   .text.altcp_mbedtls_handle_rx_appldata:00000000000001ec .LVL257
C:\Users\stapi\AppData\Local\Temp\ccL2g2h3.s:2400   .text.altcp_mbedtls_handle_rx_appldata:000000000000026c .LVL267
C:\Users\stapi\AppData\Local\Temp\ccL2g2h3.s:2481   .text.altcp_mbedtls_lower_poll:0000000000000000 .LVL274
C:\Users\stapi\AppData\Local\Temp\ccL2g2h3.s:2489   .text.altcp_mbedtls_lower_poll:0000000000000004 .LVL275
C:\Users\stapi\AppData\Local\Temp\ccL2g2h3.s:2492   .text.altcp_mbedtls_lower_poll:0000000000000006 .LVL276
C:\Users\stapi\AppData\Local\Temp\ccL2g2h3.s:2508   .text.altcp_mbedtls_lower_poll:0000000000000018 .LVL277
C:\Users\stapi\AppData\Local\Temp\ccL2g2h3.s:2513   .text.altcp_mbedtls_lower_poll:0000000000000020 .LVL278
C:\Users\stapi\AppData\Local\Temp\ccL2g2h3.s:2526   .text.altcp_mbedtls_lower_poll:000000000000003e .LVL280
C:\Users\stapi\AppData\Local\Temp\ccL2g2h3.s:2535   .text.altcp_mbedtls_lower_poll:0000000000000040 .LVL281
C:\Users\stapi\AppData\Local\Temp\ccL2g2h3.s:2549   .text.altcp_mbedtls_lower_poll:0000000000000048 .LVL282
C:\Users\stapi\AppData\Local\Temp\ccL2g2h3.s:2558   .text.altcp_mbedtls_lower_poll:0000000000000052 .LVL283
C:\Users\stapi\AppData\Local\Temp\ccL2g2h3.s:2580   .text.altcp_mbedtls_lower_poll:0000000000000074 .LVL286
C:\Users\stapi\AppData\Local\Temp\ccL2g2h3.s:2602   .text.altcp_mbedtls_set_poll:0000000000000000 .LVL288
C:\Users\stapi\AppData\Local\Temp\ccL2g2h3.s:2610   .text.altcp_mbedtls_set_poll:0000000000000004 .LVL289
C:\Users\stapi\AppData\Local\Temp\ccL2g2h3.s:2615   .text.altcp_mbedtls_set_poll:000000000000000a .LVL291
C:\Users\stapi\AppData\Local\Temp\ccL2g2h3.s:2612   .text.altcp_mbedtls_set_poll:0000000000000006 .LVL290
C:\Users\stapi\AppData\Local\Temp\ccL2g2h3.s:2633   .text.altcp_mbedtls_mss:0000000000000000 .LVL293
C:\Users\stapi\AppData\Local\Temp\ccL2g2h3.s:2643   .text.altcp_mbedtls_mss:0000000000000004 .LVL295
C:\Users\stapi\AppData\Local\Temp\ccL2g2h3.s:2651   .text.altcp_mbedtls_mss:000000000000000e .LVL297
C:\Users\stapi\AppData\Local\Temp\ccL2g2h3.s:2938   .text.altcp_mbedtls_lower_recv:0000000000000000 .LVL319
C:\Users\stapi\AppData\Local\Temp\ccL2g2h3.s:2959   .text.altcp_mbedtls_lower_recv:0000000000000016 .LVL323
C:\Users\stapi\AppData\Local\Temp\ccL2g2h3.s:2972   .text.altcp_mbedtls_lower_recv:0000000000000030 .LVL326
C:\Users\stapi\AppData\Local\Temp\ccL2g2h3.s:2984   .text.altcp_mbedtls_lower_recv:0000000000000038 .LVL328
C:\Users\stapi\AppData\Local\Temp\ccL2g2h3.s:2957   .text.altcp_mbedtls_lower_recv:0000000000000012 .LVL322
C:\Users\stapi\AppData\Local\Temp\ccL2g2h3.s:2977   .text.altcp_mbedtls_lower_recv:0000000000000036 .LVL327
C:\Users\stapi\AppData\Local\Temp\ccL2g2h3.s:2962   .text.altcp_mbedtls_lower_recv:000000000000001e .LVL324
C:\Users\stapi\AppData\Local\Temp\ccL2g2h3.s:3012   .text.altcp_mbedtls_lower_recv:000000000000005a .LVL331
C:\Users\stapi\AppData\Local\Temp\ccL2g2h3.s:3027   .text.altcp_mbedtls_lower_recv:0000000000000068 .LVL333
C:\Users\stapi\AppData\Local\Temp\ccL2g2h3.s:3031   .text.altcp_mbedtls_lower_recv:0000000000000074 .LVL334
C:\Users\stapi\AppData\Local\Temp\ccL2g2h3.s:3041   .text.altcp_mbedtls_lower_recv:0000000000000086 .LVL336
C:\Users\stapi\AppData\Local\Temp\ccL2g2h3.s:3061   .text.altcp_mbedtls_lower_recv:000000000000009c .LVL337
C:\Users\stapi\AppData\Local\Temp\ccL2g2h3.s:3084   .text.altcp_mbedtls_lower_recv:00000000000000c2 .LVL340
C:\Users\stapi\AppData\Local\Temp\ccL2g2h3.s:3106   .text.altcp_mbedtls_lower_recv:00000000000000d8 .LVL343
C:\Users\stapi\AppData\Local\Temp\ccL2g2h3.s:3124   .text.altcp_mbedtls_lower_recv:00000000000000ee .LVL346
C:\Users\stapi\AppData\Local\Temp\ccL2g2h3.s:3134   .text.altcp_mbedtls_lower_recv:00000000000000f8 .LVL347
C:\Users\stapi\AppData\Local\Temp\ccL2g2h3.s:3143   .text.altcp_mbedtls_lower_recv:0000000000000106 .LVL349
C:\Users\stapi\AppData\Local\Temp\ccL2g2h3.s:3157   .text.altcp_mbedtls_lower_recv:000000000000011e .LVL351
C:\Users\stapi\AppData\Local\Temp\ccL2g2h3.s:3161   .text.altcp_mbedtls_lower_recv:000000000000012a .LVL352
C:\Users\stapi\AppData\Local\Temp\ccL2g2h3.s:3171   .text.altcp_mbedtls_lower_recv:000000000000013c .LVL354
C:\Users\stapi\AppData\Local\Temp\ccL2g2h3.s:2955   .text.altcp_mbedtls_lower_recv:000000000000000e .LVL321
C:\Users\stapi\AppData\Local\Temp\ccL2g2h3.s:3025   .text.altcp_mbedtls_lower_recv:0000000000000064 .LVL332
C:\Users\stapi\AppData\Local\Temp\ccL2g2h3.s:3155   .text.altcp_mbedtls_lower_recv:000000000000011a .LVL350
C:\Users\stapi\AppData\Local\Temp\ccL2g2h3.s:2948   .text.altcp_mbedtls_lower_recv:0000000000000008 .LVL320
C:\Users\stapi\AppData\Local\Temp\ccL2g2h3.s:3075   .text.altcp_mbedtls_lower_recv:00000000000000b4 .LVL338
C:\Users\stapi\AppData\Local\Temp\ccL2g2h3.s:3090   .text.altcp_mbedtls_lower_recv:00000000000000ca .LVL341
C:\Users\stapi\AppData\Local\Temp\ccL2g2h3.s:3896   .debug_info:0000000000000000 .Ldebug_info0
C:\Users\stapi\AppData\Local\Temp\ccL2g2h3.s:1270   .text.altcp_mbedtls_close:0000000000000012 .LBB16
C:\Users\stapi\AppData\Local\Temp\ccL2g2h3.s:1337   .text.altcp_mbedtls_close:0000000000000080 .LBE16
C:\Users\stapi\AppData\Local\Temp\ccL2g2h3.s:1351   .text.altcp_mbedtls_close:000000000000008a .LBB21
C:\Users\stapi\AppData\Local\Temp\ccL2g2h3.s:1357   .text.altcp_mbedtls_close:000000000000008e .LBE21
C:\Users\stapi\AppData\Local\Temp\ccL2g2h3.s:1280   .text.altcp_mbedtls_close:0000000000000016 .LBE17
C:\Users\stapi\AppData\Local\Temp\ccL2g2h3.s:1285   .text.altcp_mbedtls_close:000000000000001a .LBB20
C:\Users\stapi\AppData\Local\Temp\ccL2g2h3.s:1312   .text.altcp_mbedtls_close:0000000000000056 .LBE20
C:\Users\stapi\AppData\Local\Temp\ccL2g2h3.s:1542   .text.altcp_mbedtls_bio_send:0000000000000048 .LBE25
C:\Users\stapi\AppData\Local\Temp\ccL2g2h3.s:1559   .text.altcp_mbedtls_bio_send:0000000000000052 .LBB31
C:\Users\stapi\AppData\Local\Temp\ccL2g2h3.s:1617   .text.altcp_mbedtls_bio_send:00000000000000a2 .LBE31
C:\Users\stapi\AppData\Local\Temp\ccL2g2h3.s:1522   .text.altcp_mbedtls_bio_send:0000000000000036 .LBB27
C:\Users\stapi\AppData\Local\Temp\ccL2g2h3.s:1527   .text.altcp_mbedtls_bio_send:000000000000003c .LBE27
C:\Users\stapi\AppData\Local\Temp\ccL2g2h3.s:1530   .text.altcp_mbedtls_bio_send:000000000000003e .LBB28
C:\Users\stapi\AppData\Local\Temp\ccL2g2h3.s:1536   .text.altcp_mbedtls_bio_send:0000000000000046 .LBE28
C:\Users\stapi\AppData\Local\Temp\ccL2g2h3.s:1561   .text.altcp_mbedtls_bio_send:0000000000000052 .LBB29
C:\Users\stapi\AppData\Local\Temp\ccL2g2h3.s:1615   .text.altcp_mbedtls_bio_send:00000000000000a2 .LBE29
C:\Users\stapi\AppData\Local\Temp\ccL2g2h3.s:1721   .text.altcp_mbedtls_setup:0000000000000072 .LBE34
C:\Users\stapi\AppData\Local\Temp\ccL2g2h3.s:1735   .text.altcp_mbedtls_setup:000000000000007a .LBB37
C:\Users\stapi\AppData\Local\Temp\ccL2g2h3.s:1779   .text.altcp_mbedtls_setup:00000000000000b8 .LBE37
C:\Users\stapi\AppData\Local\Temp\ccL2g2h3.s:1826   .text.altcp_mbedtls_lower_accept:0000000000000022 .LBB38
C:\Users\stapi\AppData\Local\Temp\ccL2g2h3.s:1864   .text.altcp_mbedtls_lower_accept:0000000000000050 .LBE38
C:\Users\stapi\AppData\Local\Temp\ccL2g2h3.s:1881   .text.altcp_mbedtls_lower_accept:000000000000005c .LBB39
C:\Users\stapi\AppData\Local\Temp\ccL2g2h3.s:1892   .text.altcp_mbedtls_lower_accept:0000000000000068 .LBE39
C:\Users\stapi\AppData\Local\Temp\ccL2g2h3.s:2319   .text.altcp_mbedtls_handle_rx_appldata:00000000000001fc .LBE51
C:\Users\stapi\AppData\Local\Temp\ccL2g2h3.s:2339   .text.altcp_mbedtls_handle_rx_appldata:0000000000000204 .LBB87
C:\Users\stapi\AppData\Local\Temp\ccL2g2h3.s:2466   .text.altcp_mbedtls_handle_rx_appldata:00000000000002b4 .LBE87
C:\Users\stapi\AppData\Local\Temp\ccL2g2h3.s:1973   .text.altcp_mbedtls_handle_rx_appldata:000000000000003c .LBB53
C:\Users\stapi\AppData\Local\Temp\ccL2g2h3.s:2009   .text.altcp_mbedtls_handle_rx_appldata:000000000000004c .LBE53
C:\Users\stapi\AppData\Local\Temp\ccL2g2h3.s:2011   .text.altcp_mbedtls_handle_rx_appldata:000000000000004c .LBB83
C:\Users\stapi\AppData\Local\Temp\ccL2g2h3.s:2317   .text.altcp_mbedtls_handle_rx_appldata:00000000000001fc .LBE83
C:\Users\stapi\AppData\Local\Temp\ccL2g2h3.s:2341   .text.altcp_mbedtls_handle_rx_appldata:0000000000000204 .LBB84
C:\Users\stapi\AppData\Local\Temp\ccL2g2h3.s:2417   .text.altcp_mbedtls_handle_rx_appldata:000000000000027e .LBE84
C:\Users\stapi\AppData\Local\Temp\ccL2g2h3.s:2424   .text.altcp_mbedtls_handle_rx_appldata:0000000000000284 .LBB85
C:\Users\stapi\AppData\Local\Temp\ccL2g2h3.s:2464   .text.altcp_mbedtls_handle_rx_appldata:00000000000002b4 .LBE85
C:\Users\stapi\AppData\Local\Temp\ccL2g2h3.s:1974   .text.altcp_mbedtls_handle_rx_appldata:000000000000003c .LBB54
C:\Users\stapi\AppData\Local\Temp\ccL2g2h3.s:1987   .text.altcp_mbedtls_handle_rx_appldata:0000000000000044 .LBE54
C:\Users\stapi\AppData\Local\Temp\ccL2g2h3.s:1990   .text.altcp_mbedtls_handle_rx_appldata:0000000000000048 .LBB79
C:\Users\stapi\AppData\Local\Temp\ccL2g2h3.s:2008   .text.altcp_mbedtls_handle_rx_appldata:000000000000004c .LBE79
C:\Users\stapi\AppData\Local\Temp\ccL2g2h3.s:2074   .text.altcp_mbedtls_handle_rx_appldata:00000000000000b6 .LBB80
C:\Users\stapi\AppData\Local\Temp\ccL2g2h3.s:2316   .text.altcp_mbedtls_handle_rx_appldata:00000000000001fc .LBE80
C:\Users\stapi\AppData\Local\Temp\ccL2g2h3.s:2342   .text.altcp_mbedtls_handle_rx_appldata:0000000000000204 .LBB81
C:\Users\stapi\AppData\Local\Temp\ccL2g2h3.s:2416   .text.altcp_mbedtls_handle_rx_appldata:000000000000027e .LBE81
C:\Users\stapi\AppData\Local\Temp\ccL2g2h3.s:2425   .text.altcp_mbedtls_handle_rx_appldata:0000000000000284 .LBB82
C:\Users\stapi\AppData\Local\Temp\ccL2g2h3.s:2463   .text.altcp_mbedtls_handle_rx_appldata:00000000000002b4 .LBE82
C:\Users\stapi\AppData\Local\Temp\ccL2g2h3.s:1975   .text.altcp_mbedtls_handle_rx_appldata:000000000000003c .LBB55
C:\Users\stapi\AppData\Local\Temp\ccL2g2h3.s:1986   .text.altcp_mbedtls_handle_rx_appldata:0000000000000044 .LBE55
C:\Users\stapi\AppData\Local\Temp\ccL2g2h3.s:1991   .text.altcp_mbedtls_handle_rx_appldata:0000000000000048 .LBB65
C:\Users\stapi\AppData\Local\Temp\ccL2g2h3.s:1999   .text.altcp_mbedtls_handle_rx_appldata:000000000000004a .LBE65
C:\Users\stapi\AppData\Local\Temp\ccL2g2h3.s:2127   .text.altcp_mbedtls_handle_rx_appldata:000000000000010e .LBB74
C:\Users\stapi\AppData\Local\Temp\ccL2g2h3.s:2197   .text.altcp_mbedtls_handle_rx_appldata:000000000000016e .LBE74
C:\Users\stapi\AppData\Local\Temp\ccL2g2h3.s:1985   .text.altcp_mbedtls_handle_rx_appldata:0000000000000044 .LBE56
C:\Users\stapi\AppData\Local\Temp\ccL2g2h3.s:1992   .text.altcp_mbedtls_handle_rx_appldata:0000000000000048 .LBB63
C:\Users\stapi\AppData\Local\Temp\ccL2g2h3.s:1998   .text.altcp_mbedtls_handle_rx_appldata:000000000000004a .LBE63
C:\Users\stapi\AppData\Local\Temp\ccL2g2h3.s:2160   .text.altcp_mbedtls_handle_rx_appldata:0000000000000148 .LBB64
C:\Users\stapi\AppData\Local\Temp\ccL2g2h3.s:2188   .text.altcp_mbedtls_handle_rx_appldata:0000000000000166 .LBE64
C:\Users\stapi\AppData\Local\Temp\ccL2g2h3.s:1978   .text.altcp_mbedtls_handle_rx_appldata:000000000000003c .LBB58
C:\Users\stapi\AppData\Local\Temp\ccL2g2h3.s:1983   .text.altcp_mbedtls_handle_rx_appldata:0000000000000044 .LBE58
C:\Users\stapi\AppData\Local\Temp\ccL2g2h3.s:1994   .text.altcp_mbedtls_handle_rx_appldata:0000000000000048 .LBB59
C:\Users\stapi\AppData\Local\Temp\ccL2g2h3.s:1996   .text.altcp_mbedtls_handle_rx_appldata:000000000000004a .LBE59
C:\Users\stapi\AppData\Local\Temp\ccL2g2h3.s:2165   .text.altcp_mbedtls_handle_rx_appldata:0000000000000148 .LBB60
C:\Users\stapi\AppData\Local\Temp\ccL2g2h3.s:2183   .text.altcp_mbedtls_handle_rx_appldata:0000000000000162 .LBE60
C:\Users\stapi\AppData\Local\Temp\ccL2g2h3.s:2007   .text.altcp_mbedtls_handle_rx_appldata:000000000000004c .LBE66
C:\Users\stapi\AppData\Local\Temp\ccL2g2h3.s:2209   .text.altcp_mbedtls_handle_rx_appldata:0000000000000178 .LBB75
C:\Users\stapi\AppData\Local\Temp\ccL2g2h3.s:2235   .text.altcp_mbedtls_handle_rx_appldata:00000000000001a2 .LBE75
C:\Users\stapi\AppData\Local\Temp\ccL2g2h3.s:2250   .text.altcp_mbedtls_handle_rx_appldata:00000000000001ba .LBB76
C:\Users\stapi\AppData\Local\Temp\ccL2g2h3.s:2311   .text.altcp_mbedtls_handle_rx_appldata:00000000000001fa .LBE76
C:\Users\stapi\AppData\Local\Temp\ccL2g2h3.s:2343   .text.altcp_mbedtls_handle_rx_appldata:0000000000000204 .LBB77
C:\Users\stapi\AppData\Local\Temp\ccL2g2h3.s:2415   .text.altcp_mbedtls_handle_rx_appldata:000000000000027e .LBE77
C:\Users\stapi\AppData\Local\Temp\ccL2g2h3.s:2426   .text.altcp_mbedtls_handle_rx_appldata:0000000000000284 .LBB78
C:\Users\stapi\AppData\Local\Temp\ccL2g2h3.s:2452   .text.altcp_mbedtls_handle_rx_appldata:00000000000002aa .LBE78
C:\Users\stapi\AppData\Local\Temp\ccL2g2h3.s:2273   .text.altcp_mbedtls_handle_rx_appldata:00000000000001cc .LBB68
C:\Users\stapi\AppData\Local\Temp\ccL2g2h3.s:2309   .text.altcp_mbedtls_handle_rx_appldata:00000000000001fa .LBE68
C:\Users\stapi\AppData\Local\Temp\ccL2g2h3.s:2345   .text.altcp_mbedtls_handle_rx_appldata:0000000000000204 .LBB69
C:\Users\stapi\AppData\Local\Temp\ccL2g2h3.s:2402   .text.altcp_mbedtls_handle_rx_appldata:000000000000026c .LBE69
C:\Users\stapi\AppData\Local\Temp\ccL2g2h3.s:2545   .text.altcp_mbedtls_lower_poll:0000000000000046 .LBE91
C:\Users\stapi\AppData\Local\Temp\ccL2g2h3.s:2561   .text.altcp_mbedtls_lower_poll:0000000000000052 .LBB95
C:\Users\stapi\AppData\Local\Temp\ccL2g2h3.s:2591   .text.altcp_mbedtls_lower_poll:000000000000007c .LBE95
C:\Users\stapi\AppData\Local\Temp\ccL2g2h3.s:2751   .text.altcp_mbedtls_lower_recv_process:000000000000005a .LBE110
C:\Users\stapi\AppData\Local\Temp\ccL2g2h3.s:2772   .text.altcp_mbedtls_lower_recv_process:0000000000000076 .LBB115
C:\Users\stapi\AppData\Local\Temp\ccL2g2h3.s:2797   .text.altcp_mbedtls_lower_recv_process:0000000000000092 .LBE115
C:\Users\stapi\AppData\Local\Temp\ccL2g2h3.s:2740   .text.altcp_mbedtls_lower_recv_process:000000000000004c .LBB112
C:\Users\stapi\AppData\Local\Temp\ccL2g2h3.s:2746   .text.altcp_mbedtls_lower_recv_process:0000000000000056 .LBE112
C:\Users\stapi\AppData\Local\Temp\ccL2g2h3.s:2774   .text.altcp_mbedtls_lower_recv_process:0000000000000076 .LBB113
C:\Users\stapi\AppData\Local\Temp\ccL2g2h3.s:2795   .text.altcp_mbedtls_lower_recv_process:0000000000000092 .LBE113

UNDEFINED SYMBOLS
__riscv_save_1
altcp_free
__riscv_restore_1
__riscv_save_4
pbuf_free
__riscv_restore_4
pbuf_copy_partial
printf
pbuf_remove_header
altcp_arg
altcp_recv
altcp_sent
altcp_err
__riscv_restore_2
__riscv_save_2
mbedtls_ssl_flush_output
altcp_recved
altcp_abort
__riscv_save_5
altcp_mbedtls_mem_init
altcp_mbedtls_alloc_config
mbedtls_ssl_config_init
mbedtls_entropy_init
mbedtls_ctr_drbg_init
mbedtls_ctr_drbg_seed
altcp_mbedtls_free_config
__riscv_restore_5
mbedtls_ssl_config_defaults
mbedtls_ssl_conf_authmode
mbedtls_ctr_drbg_random
mbedtls_ssl_conf_rng
__riscv_save_3
mbedtls_x509_crt_init
mbedtls_x509_crt_parse
__riscv_restore_3
mbedtls_ssl_conf_ca_chain
mbedtls_ssl_free
altcp_mbedtls_free
altcp_sndbuf
mbedtls_ssl_get_record_expansion
mbedtls_ssl_get_max_frag_len
altcp_default_sndbuf
mbedtls_ssl_write
altcp_output
altcp_poll
altcp_close
altcp_listen_with_backlog_and_err
altcp_accept
altcp_connect
__riscv_save_7
__riscv_restore_7
altcp_write
altcp_mbedtls_alloc
mbedtls_ssl_init
mbedtls_ssl_setup
mbedtls_ssl_set_bio
altcp_alloc
__riscv_save_11
pbuf_alloc
mbedtls_ssl_read
pbuf_realloc
mbedtls_ssl_get_bytes_avail
pbuf_cat
__riscv_restore_11
altcp_mss
__riscv_save_8
__riscv_restore_8
mbedtls_ssl_handshake
__riscv_save_0
__riscv_restore_0
__riscv_save_9
mbedtls_pk_init
__riscv_restore_9
mbedtls_pk_parse_key
mbedtls_x509_crt_free
mbedtls_ssl_conf_own_cert
mbedtls_pk_free
mbedtls_ssl_conf_psk
mbedtls_ssl_config_free
altcp_default_bind
altcp_default_shutdown
altcp_default_output
altcp_default_sndqueuelen
altcp_default_nagle_disable
altcp_default_nagle_enable
altcp_default_nagle_disabled
altcp_default_setprio
altcp_default_get_tcp_addrinfo
altcp_default_get_ip
altcp_default_get_port
