   1              		.file	"altcp_tcp.c"
   2              		.option nopic
   3              		.attribute arch, "rv32i2p0_m2p0_a2p0_f2p0_c2p0_b_p0p94"
   4              		.attribute unaligned_access, 0
   5              		.attribute stack_align, 16
   6              		.text
   7              	.Ltext0:
   8              		.cfi_sections	.debug_frame
   9              		.section	.text.altcp_tcp_setup_callbacks,"ax",@progbits
  10              		.align	1
  12              	altcp_tcp_setup_callbacks:
  13              	.LFB11:
  14              		.file 1 "C:/Users/stapi/OneDrive/Desktop/GD32VW553/V1_MQTT_OK/GD32VW55X_Wifi_BLE_SDK/GD32VW55x_REL
   1:C:/Users/stapi/OneDrive/Desktop/GD32VW553/V1_MQTT_OK/GD32VW55X_Wifi_BLE_SDK/GD32VW55x_RELEASE_V1.0.2/MSDK/lwip/lwip-2.1.2/src/core\altcp_tcp.c **** /**
   2:C:/Users/stapi/OneDrive/Desktop/GD32VW553/V1_MQTT_OK/GD32VW55X_Wifi_BLE_SDK/GD32VW55x_RELEASE_V1.0.2/MSDK/lwip/lwip-2.1.2/src/core\altcp_tcp.c ****  * @file
   3:C:/Users/stapi/OneDrive/Desktop/GD32VW553/V1_MQTT_OK/GD32VW55X_Wifi_BLE_SDK/GD32VW55x_RELEASE_V1.0.2/MSDK/lwip/lwip-2.1.2/src/core\altcp_tcp.c ****  * Application layered TCP connection API (to be used from TCPIP thread)\n
   4:C:/Users/stapi/OneDrive/Desktop/GD32VW553/V1_MQTT_OK/GD32VW55X_Wifi_BLE_SDK/GD32VW55x_RELEASE_V1.0.2/MSDK/lwip/lwip-2.1.2/src/core\altcp_tcp.c ****  * This interface mimics the tcp callback API to the application while preventing
   5:C:/Users/stapi/OneDrive/Desktop/GD32VW553/V1_MQTT_OK/GD32VW55X_Wifi_BLE_SDK/GD32VW55x_RELEASE_V1.0.2/MSDK/lwip/lwip-2.1.2/src/core\altcp_tcp.c ****  * direct linking (much like virtual functions).
   6:C:/Users/stapi/OneDrive/Desktop/GD32VW553/V1_MQTT_OK/GD32VW55X_Wifi_BLE_SDK/GD32VW55x_RELEASE_V1.0.2/MSDK/lwip/lwip-2.1.2/src/core\altcp_tcp.c ****  * This way, an application can make use of other application layer protocols
   7:C:/Users/stapi/OneDrive/Desktop/GD32VW553/V1_MQTT_OK/GD32VW55X_Wifi_BLE_SDK/GD32VW55x_RELEASE_V1.0.2/MSDK/lwip/lwip-2.1.2/src/core\altcp_tcp.c ****  * on top of TCP without knowing the details (e.g. TLS, proxy connection).
   8:C:/Users/stapi/OneDrive/Desktop/GD32VW553/V1_MQTT_OK/GD32VW55X_Wifi_BLE_SDK/GD32VW55x_RELEASE_V1.0.2/MSDK/lwip/lwip-2.1.2/src/core\altcp_tcp.c ****  *
   9:C:/Users/stapi/OneDrive/Desktop/GD32VW553/V1_MQTT_OK/GD32VW55X_Wifi_BLE_SDK/GD32VW55x_RELEASE_V1.0.2/MSDK/lwip/lwip-2.1.2/src/core\altcp_tcp.c ****  * This file contains the base implementation calling into tcp.
  10:C:/Users/stapi/OneDrive/Desktop/GD32VW553/V1_MQTT_OK/GD32VW55X_Wifi_BLE_SDK/GD32VW55x_RELEASE_V1.0.2/MSDK/lwip/lwip-2.1.2/src/core\altcp_tcp.c ****  */
  11:C:/Users/stapi/OneDrive/Desktop/GD32VW553/V1_MQTT_OK/GD32VW55X_Wifi_BLE_SDK/GD32VW55x_RELEASE_V1.0.2/MSDK/lwip/lwip-2.1.2/src/core\altcp_tcp.c **** 
  12:C:/Users/stapi/OneDrive/Desktop/GD32VW553/V1_MQTT_OK/GD32VW55X_Wifi_BLE_SDK/GD32VW55x_RELEASE_V1.0.2/MSDK/lwip/lwip-2.1.2/src/core\altcp_tcp.c **** /*
  13:C:/Users/stapi/OneDrive/Desktop/GD32VW553/V1_MQTT_OK/GD32VW55X_Wifi_BLE_SDK/GD32VW55x_RELEASE_V1.0.2/MSDK/lwip/lwip-2.1.2/src/core\altcp_tcp.c ****  * Copyright (c) 2017 Simon Goldschmidt
  14:C:/Users/stapi/OneDrive/Desktop/GD32VW553/V1_MQTT_OK/GD32VW55X_Wifi_BLE_SDK/GD32VW55x_RELEASE_V1.0.2/MSDK/lwip/lwip-2.1.2/src/core\altcp_tcp.c ****  * All rights reserved.
  15:C:/Users/stapi/OneDrive/Desktop/GD32VW553/V1_MQTT_OK/GD32VW55X_Wifi_BLE_SDK/GD32VW55x_RELEASE_V1.0.2/MSDK/lwip/lwip-2.1.2/src/core\altcp_tcp.c ****  *
  16:C:/Users/stapi/OneDrive/Desktop/GD32VW553/V1_MQTT_OK/GD32VW55X_Wifi_BLE_SDK/GD32VW55x_RELEASE_V1.0.2/MSDK/lwip/lwip-2.1.2/src/core\altcp_tcp.c ****  * Redistribution and use in source and binary forms, with or without modification,
  17:C:/Users/stapi/OneDrive/Desktop/GD32VW553/V1_MQTT_OK/GD32VW55X_Wifi_BLE_SDK/GD32VW55x_RELEASE_V1.0.2/MSDK/lwip/lwip-2.1.2/src/core\altcp_tcp.c ****  * are permitted provided that the following conditions are met:
  18:C:/Users/stapi/OneDrive/Desktop/GD32VW553/V1_MQTT_OK/GD32VW55X_Wifi_BLE_SDK/GD32VW55x_RELEASE_V1.0.2/MSDK/lwip/lwip-2.1.2/src/core\altcp_tcp.c ****  *
  19:C:/Users/stapi/OneDrive/Desktop/GD32VW553/V1_MQTT_OK/GD32VW55X_Wifi_BLE_SDK/GD32VW55x_RELEASE_V1.0.2/MSDK/lwip/lwip-2.1.2/src/core\altcp_tcp.c ****  * 1. Redistributions of source code must retain the above copyright notice,
  20:C:/Users/stapi/OneDrive/Desktop/GD32VW553/V1_MQTT_OK/GD32VW55X_Wifi_BLE_SDK/GD32VW55x_RELEASE_V1.0.2/MSDK/lwip/lwip-2.1.2/src/core\altcp_tcp.c ****  *    this list of conditions and the following disclaimer.
  21:C:/Users/stapi/OneDrive/Desktop/GD32VW553/V1_MQTT_OK/GD32VW55X_Wifi_BLE_SDK/GD32VW55x_RELEASE_V1.0.2/MSDK/lwip/lwip-2.1.2/src/core\altcp_tcp.c ****  * 2. Redistributions in binary form must reproduce the above copyright notice,
  22:C:/Users/stapi/OneDrive/Desktop/GD32VW553/V1_MQTT_OK/GD32VW55X_Wifi_BLE_SDK/GD32VW55x_RELEASE_V1.0.2/MSDK/lwip/lwip-2.1.2/src/core\altcp_tcp.c ****  *    this list of conditions and the following disclaimer in the documentation
  23:C:/Users/stapi/OneDrive/Desktop/GD32VW553/V1_MQTT_OK/GD32VW55X_Wifi_BLE_SDK/GD32VW55x_RELEASE_V1.0.2/MSDK/lwip/lwip-2.1.2/src/core\altcp_tcp.c ****  *    and/or other materials provided with the distribution.
  24:C:/Users/stapi/OneDrive/Desktop/GD32VW553/V1_MQTT_OK/GD32VW55X_Wifi_BLE_SDK/GD32VW55x_RELEASE_V1.0.2/MSDK/lwip/lwip-2.1.2/src/core\altcp_tcp.c ****  * 3. The name of the author may not be used to endorse or promote products
  25:C:/Users/stapi/OneDrive/Desktop/GD32VW553/V1_MQTT_OK/GD32VW55X_Wifi_BLE_SDK/GD32VW55x_RELEASE_V1.0.2/MSDK/lwip/lwip-2.1.2/src/core\altcp_tcp.c ****  *    derived from this software without specific prior written permission.
  26:C:/Users/stapi/OneDrive/Desktop/GD32VW553/V1_MQTT_OK/GD32VW55X_Wifi_BLE_SDK/GD32VW55x_RELEASE_V1.0.2/MSDK/lwip/lwip-2.1.2/src/core\altcp_tcp.c ****  *
  27:C:/Users/stapi/OneDrive/Desktop/GD32VW553/V1_MQTT_OK/GD32VW55X_Wifi_BLE_SDK/GD32VW55x_RELEASE_V1.0.2/MSDK/lwip/lwip-2.1.2/src/core\altcp_tcp.c ****  * THIS SOFTWARE IS PROVIDED BY THE AUTHOR ``AS IS'' AND ANY EXPRESS OR IMPLIED
  28:C:/Users/stapi/OneDrive/Desktop/GD32VW553/V1_MQTT_OK/GD32VW55X_Wifi_BLE_SDK/GD32VW55x_RELEASE_V1.0.2/MSDK/lwip/lwip-2.1.2/src/core\altcp_tcp.c ****  * WARRANTIES, INCLUDING, BUT NOT LIMITED TO, THE IMPLIED WARRANTIES OF
  29:C:/Users/stapi/OneDrive/Desktop/GD32VW553/V1_MQTT_OK/GD32VW55X_Wifi_BLE_SDK/GD32VW55x_RELEASE_V1.0.2/MSDK/lwip/lwip-2.1.2/src/core\altcp_tcp.c ****  * MERCHANTABILITY AND FITNESS FOR A PARTICULAR PURPOSE ARE DISCLAIMED. IN NO EVENT
  30:C:/Users/stapi/OneDrive/Desktop/GD32VW553/V1_MQTT_OK/GD32VW55X_Wifi_BLE_SDK/GD32VW55x_RELEASE_V1.0.2/MSDK/lwip/lwip-2.1.2/src/core\altcp_tcp.c ****  * SHALL THE AUTHOR BE LIABLE FOR ANY DIRECT, INDIRECT, INCIDENTAL, SPECIAL,
  31:C:/Users/stapi/OneDrive/Desktop/GD32VW553/V1_MQTT_OK/GD32VW55X_Wifi_BLE_SDK/GD32VW55x_RELEASE_V1.0.2/MSDK/lwip/lwip-2.1.2/src/core\altcp_tcp.c ****  * EXEMPLARY, OR CONSEQUENTIAL DAMAGES (INCLUDING, BUT NOT LIMITED TO, PROCUREMENT
  32:C:/Users/stapi/OneDrive/Desktop/GD32VW553/V1_MQTT_OK/GD32VW55X_Wifi_BLE_SDK/GD32VW55x_RELEASE_V1.0.2/MSDK/lwip/lwip-2.1.2/src/core\altcp_tcp.c ****  * OF SUBSTITUTE GOODS OR SERVICES; LOSS OF USE, DATA, OR PROFITS; OR BUSINESS
  33:C:/Users/stapi/OneDrive/Desktop/GD32VW553/V1_MQTT_OK/GD32VW55X_Wifi_BLE_SDK/GD32VW55x_RELEASE_V1.0.2/MSDK/lwip/lwip-2.1.2/src/core\altcp_tcp.c ****  * INTERRUPTION) HOWEVER CAUSED AND ON ANY THEORY OF LIABILITY, WHETHER IN
  34:C:/Users/stapi/OneDrive/Desktop/GD32VW553/V1_MQTT_OK/GD32VW55X_Wifi_BLE_SDK/GD32VW55x_RELEASE_V1.0.2/MSDK/lwip/lwip-2.1.2/src/core\altcp_tcp.c ****  * CONTRACT, STRICT LIABILITY, OR TORT (INCLUDING NEGLIGENCE OR OTHERWISE) ARISING
  35:C:/Users/stapi/OneDrive/Desktop/GD32VW553/V1_MQTT_OK/GD32VW55X_Wifi_BLE_SDK/GD32VW55x_RELEASE_V1.0.2/MSDK/lwip/lwip-2.1.2/src/core\altcp_tcp.c ****  * IN ANY WAY OUT OF THE USE OF THIS SOFTWARE, EVEN IF ADVISED OF THE POSSIBILITY
  36:C:/Users/stapi/OneDrive/Desktop/GD32VW553/V1_MQTT_OK/GD32VW55X_Wifi_BLE_SDK/GD32VW55x_RELEASE_V1.0.2/MSDK/lwip/lwip-2.1.2/src/core\altcp_tcp.c ****  * OF SUCH DAMAGE.
  37:C:/Users/stapi/OneDrive/Desktop/GD32VW553/V1_MQTT_OK/GD32VW55X_Wifi_BLE_SDK/GD32VW55x_RELEASE_V1.0.2/MSDK/lwip/lwip-2.1.2/src/core\altcp_tcp.c ****  *
  38:C:/Users/stapi/OneDrive/Desktop/GD32VW553/V1_MQTT_OK/GD32VW55X_Wifi_BLE_SDK/GD32VW55x_RELEASE_V1.0.2/MSDK/lwip/lwip-2.1.2/src/core\altcp_tcp.c ****  * This file is part of the lwIP TCP/IP stack.
  39:C:/Users/stapi/OneDrive/Desktop/GD32VW553/V1_MQTT_OK/GD32VW55X_Wifi_BLE_SDK/GD32VW55x_RELEASE_V1.0.2/MSDK/lwip/lwip-2.1.2/src/core\altcp_tcp.c ****  *
  40:C:/Users/stapi/OneDrive/Desktop/GD32VW553/V1_MQTT_OK/GD32VW55X_Wifi_BLE_SDK/GD32VW55x_RELEASE_V1.0.2/MSDK/lwip/lwip-2.1.2/src/core\altcp_tcp.c ****  * Author: Simon Goldschmidt <goldsimon@gmx.de>
  41:C:/Users/stapi/OneDrive/Desktop/GD32VW553/V1_MQTT_OK/GD32VW55X_Wifi_BLE_SDK/GD32VW55x_RELEASE_V1.0.2/MSDK/lwip/lwip-2.1.2/src/core\altcp_tcp.c ****  *
  42:C:/Users/stapi/OneDrive/Desktop/GD32VW553/V1_MQTT_OK/GD32VW55X_Wifi_BLE_SDK/GD32VW55x_RELEASE_V1.0.2/MSDK/lwip/lwip-2.1.2/src/core\altcp_tcp.c ****  */
  43:C:/Users/stapi/OneDrive/Desktop/GD32VW553/V1_MQTT_OK/GD32VW55X_Wifi_BLE_SDK/GD32VW55x_RELEASE_V1.0.2/MSDK/lwip/lwip-2.1.2/src/core\altcp_tcp.c **** 
  44:C:/Users/stapi/OneDrive/Desktop/GD32VW553/V1_MQTT_OK/GD32VW55X_Wifi_BLE_SDK/GD32VW55x_RELEASE_V1.0.2/MSDK/lwip/lwip-2.1.2/src/core\altcp_tcp.c **** #include "lwip/opt.h"
  45:C:/Users/stapi/OneDrive/Desktop/GD32VW553/V1_MQTT_OK/GD32VW55X_Wifi_BLE_SDK/GD32VW55x_RELEASE_V1.0.2/MSDK/lwip/lwip-2.1.2/src/core\altcp_tcp.c **** 
  46:C:/Users/stapi/OneDrive/Desktop/GD32VW553/V1_MQTT_OK/GD32VW55X_Wifi_BLE_SDK/GD32VW55x_RELEASE_V1.0.2/MSDK/lwip/lwip-2.1.2/src/core\altcp_tcp.c **** #if LWIP_ALTCP /* don't build if not configured for use in lwipopts.h */
  47:C:/Users/stapi/OneDrive/Desktop/GD32VW553/V1_MQTT_OK/GD32VW55X_Wifi_BLE_SDK/GD32VW55x_RELEASE_V1.0.2/MSDK/lwip/lwip-2.1.2/src/core\altcp_tcp.c **** 
  48:C:/Users/stapi/OneDrive/Desktop/GD32VW553/V1_MQTT_OK/GD32VW55X_Wifi_BLE_SDK/GD32VW55x_RELEASE_V1.0.2/MSDK/lwip/lwip-2.1.2/src/core\altcp_tcp.c **** #include "lwip/altcp.h"
  49:C:/Users/stapi/OneDrive/Desktop/GD32VW553/V1_MQTT_OK/GD32VW55X_Wifi_BLE_SDK/GD32VW55x_RELEASE_V1.0.2/MSDK/lwip/lwip-2.1.2/src/core\altcp_tcp.c **** #include "lwip/altcp_tcp.h"
  50:C:/Users/stapi/OneDrive/Desktop/GD32VW553/V1_MQTT_OK/GD32VW55X_Wifi_BLE_SDK/GD32VW55x_RELEASE_V1.0.2/MSDK/lwip/lwip-2.1.2/src/core\altcp_tcp.c **** #include "lwip/priv/altcp_priv.h"
  51:C:/Users/stapi/OneDrive/Desktop/GD32VW553/V1_MQTT_OK/GD32VW55X_Wifi_BLE_SDK/GD32VW55x_RELEASE_V1.0.2/MSDK/lwip/lwip-2.1.2/src/core\altcp_tcp.c **** #include "lwip/tcp.h"
  52:C:/Users/stapi/OneDrive/Desktop/GD32VW553/V1_MQTT_OK/GD32VW55X_Wifi_BLE_SDK/GD32VW55x_RELEASE_V1.0.2/MSDK/lwip/lwip-2.1.2/src/core\altcp_tcp.c **** #include "lwip/mem.h"
  53:C:/Users/stapi/OneDrive/Desktop/GD32VW553/V1_MQTT_OK/GD32VW55X_Wifi_BLE_SDK/GD32VW55x_RELEASE_V1.0.2/MSDK/lwip/lwip-2.1.2/src/core\altcp_tcp.c **** 
  54:C:/Users/stapi/OneDrive/Desktop/GD32VW553/V1_MQTT_OK/GD32VW55X_Wifi_BLE_SDK/GD32VW55x_RELEASE_V1.0.2/MSDK/lwip/lwip-2.1.2/src/core\altcp_tcp.c **** #include <string.h>
  55:C:/Users/stapi/OneDrive/Desktop/GD32VW553/V1_MQTT_OK/GD32VW55X_Wifi_BLE_SDK/GD32VW55x_RELEASE_V1.0.2/MSDK/lwip/lwip-2.1.2/src/core\altcp_tcp.c **** 
  56:C:/Users/stapi/OneDrive/Desktop/GD32VW553/V1_MQTT_OK/GD32VW55X_Wifi_BLE_SDK/GD32VW55x_RELEASE_V1.0.2/MSDK/lwip/lwip-2.1.2/src/core\altcp_tcp.c **** #define ALTCP_TCP_ASSERT_CONN(conn) do { \
  57:C:/Users/stapi/OneDrive/Desktop/GD32VW553/V1_MQTT_OK/GD32VW55X_Wifi_BLE_SDK/GD32VW55x_RELEASE_V1.0.2/MSDK/lwip/lwip-2.1.2/src/core\altcp_tcp.c ****   LWIP_ASSERT("conn->inner_conn == NULL", (conn)->inner_conn == NULL); \
  58:C:/Users/stapi/OneDrive/Desktop/GD32VW553/V1_MQTT_OK/GD32VW55X_Wifi_BLE_SDK/GD32VW55x_RELEASE_V1.0.2/MSDK/lwip/lwip-2.1.2/src/core\altcp_tcp.c ****   LWIP_UNUSED_ARG(conn); /* for LWIP_NOASSERT */ } while(0)
  59:C:/Users/stapi/OneDrive/Desktop/GD32VW553/V1_MQTT_OK/GD32VW55X_Wifi_BLE_SDK/GD32VW55x_RELEASE_V1.0.2/MSDK/lwip/lwip-2.1.2/src/core\altcp_tcp.c **** #define ALTCP_TCP_ASSERT_CONN_PCB(conn, tpcb) do { \
  60:C:/Users/stapi/OneDrive/Desktop/GD32VW553/V1_MQTT_OK/GD32VW55X_Wifi_BLE_SDK/GD32VW55x_RELEASE_V1.0.2/MSDK/lwip/lwip-2.1.2/src/core\altcp_tcp.c ****   LWIP_ASSERT("pcb mismatch", (conn)->state == tpcb); \
  61:C:/Users/stapi/OneDrive/Desktop/GD32VW553/V1_MQTT_OK/GD32VW55X_Wifi_BLE_SDK/GD32VW55x_RELEASE_V1.0.2/MSDK/lwip/lwip-2.1.2/src/core\altcp_tcp.c ****   LWIP_UNUSED_ARG(tpcb); /* for LWIP_NOASSERT */ \
  62:C:/Users/stapi/OneDrive/Desktop/GD32VW553/V1_MQTT_OK/GD32VW55X_Wifi_BLE_SDK/GD32VW55x_RELEASE_V1.0.2/MSDK/lwip/lwip-2.1.2/src/core\altcp_tcp.c ****   ALTCP_TCP_ASSERT_CONN(conn); } while(0)
  63:C:/Users/stapi/OneDrive/Desktop/GD32VW553/V1_MQTT_OK/GD32VW55X_Wifi_BLE_SDK/GD32VW55x_RELEASE_V1.0.2/MSDK/lwip/lwip-2.1.2/src/core\altcp_tcp.c **** 
  64:C:/Users/stapi/OneDrive/Desktop/GD32VW553/V1_MQTT_OK/GD32VW55X_Wifi_BLE_SDK/GD32VW55x_RELEASE_V1.0.2/MSDK/lwip/lwip-2.1.2/src/core\altcp_tcp.c **** 
  65:C:/Users/stapi/OneDrive/Desktop/GD32VW553/V1_MQTT_OK/GD32VW55X_Wifi_BLE_SDK/GD32VW55x_RELEASE_V1.0.2/MSDK/lwip/lwip-2.1.2/src/core\altcp_tcp.c **** /* Variable prototype, the actual declaration is at the end of this file
  66:C:/Users/stapi/OneDrive/Desktop/GD32VW553/V1_MQTT_OK/GD32VW55X_Wifi_BLE_SDK/GD32VW55x_RELEASE_V1.0.2/MSDK/lwip/lwip-2.1.2/src/core\altcp_tcp.c ****    since it contains pointers to static functions declared here */
  67:C:/Users/stapi/OneDrive/Desktop/GD32VW553/V1_MQTT_OK/GD32VW55X_Wifi_BLE_SDK/GD32VW55x_RELEASE_V1.0.2/MSDK/lwip/lwip-2.1.2/src/core\altcp_tcp.c **** extern const struct altcp_functions altcp_tcp_functions;
  68:C:/Users/stapi/OneDrive/Desktop/GD32VW553/V1_MQTT_OK/GD32VW55X_Wifi_BLE_SDK/GD32VW55x_RELEASE_V1.0.2/MSDK/lwip/lwip-2.1.2/src/core\altcp_tcp.c **** 
  69:C:/Users/stapi/OneDrive/Desktop/GD32VW553/V1_MQTT_OK/GD32VW55X_Wifi_BLE_SDK/GD32VW55x_RELEASE_V1.0.2/MSDK/lwip/lwip-2.1.2/src/core\altcp_tcp.c **** static void altcp_tcp_setup(struct altcp_pcb *conn, struct tcp_pcb *tpcb);
  70:C:/Users/stapi/OneDrive/Desktop/GD32VW553/V1_MQTT_OK/GD32VW55X_Wifi_BLE_SDK/GD32VW55x_RELEASE_V1.0.2/MSDK/lwip/lwip-2.1.2/src/core\altcp_tcp.c **** 
  71:C:/Users/stapi/OneDrive/Desktop/GD32VW553/V1_MQTT_OK/GD32VW55X_Wifi_BLE_SDK/GD32VW55x_RELEASE_V1.0.2/MSDK/lwip/lwip-2.1.2/src/core\altcp_tcp.c **** /* callback functions for TCP */
  72:C:/Users/stapi/OneDrive/Desktop/GD32VW553/V1_MQTT_OK/GD32VW55X_Wifi_BLE_SDK/GD32VW55x_RELEASE_V1.0.2/MSDK/lwip/lwip-2.1.2/src/core\altcp_tcp.c **** static err_t
  73:C:/Users/stapi/OneDrive/Desktop/GD32VW553/V1_MQTT_OK/GD32VW55X_Wifi_BLE_SDK/GD32VW55x_RELEASE_V1.0.2/MSDK/lwip/lwip-2.1.2/src/core\altcp_tcp.c **** altcp_tcp_accept(void *arg, struct tcp_pcb *new_tpcb, err_t err)
  74:C:/Users/stapi/OneDrive/Desktop/GD32VW553/V1_MQTT_OK/GD32VW55X_Wifi_BLE_SDK/GD32VW55x_RELEASE_V1.0.2/MSDK/lwip/lwip-2.1.2/src/core\altcp_tcp.c **** {
  75:C:/Users/stapi/OneDrive/Desktop/GD32VW553/V1_MQTT_OK/GD32VW55X_Wifi_BLE_SDK/GD32VW55x_RELEASE_V1.0.2/MSDK/lwip/lwip-2.1.2/src/core\altcp_tcp.c ****   struct altcp_pcb *listen_conn = (struct altcp_pcb *)arg;
  76:C:/Users/stapi/OneDrive/Desktop/GD32VW553/V1_MQTT_OK/GD32VW55X_Wifi_BLE_SDK/GD32VW55x_RELEASE_V1.0.2/MSDK/lwip/lwip-2.1.2/src/core\altcp_tcp.c ****   if (listen_conn && listen_conn->accept) {
  77:C:/Users/stapi/OneDrive/Desktop/GD32VW553/V1_MQTT_OK/GD32VW55X_Wifi_BLE_SDK/GD32VW55x_RELEASE_V1.0.2/MSDK/lwip/lwip-2.1.2/src/core\altcp_tcp.c ****     /* create a new altcp_conn to pass to the next 'accept' callback */
  78:C:/Users/stapi/OneDrive/Desktop/GD32VW553/V1_MQTT_OK/GD32VW55X_Wifi_BLE_SDK/GD32VW55x_RELEASE_V1.0.2/MSDK/lwip/lwip-2.1.2/src/core\altcp_tcp.c ****     struct altcp_pcb *new_conn = altcp_alloc();
  79:C:/Users/stapi/OneDrive/Desktop/GD32VW553/V1_MQTT_OK/GD32VW55X_Wifi_BLE_SDK/GD32VW55x_RELEASE_V1.0.2/MSDK/lwip/lwip-2.1.2/src/core\altcp_tcp.c ****     if (new_conn == NULL) {
  80:C:/Users/stapi/OneDrive/Desktop/GD32VW553/V1_MQTT_OK/GD32VW55X_Wifi_BLE_SDK/GD32VW55x_RELEASE_V1.0.2/MSDK/lwip/lwip-2.1.2/src/core\altcp_tcp.c ****       return ERR_MEM;
  81:C:/Users/stapi/OneDrive/Desktop/GD32VW553/V1_MQTT_OK/GD32VW55X_Wifi_BLE_SDK/GD32VW55x_RELEASE_V1.0.2/MSDK/lwip/lwip-2.1.2/src/core\altcp_tcp.c ****     }
  82:C:/Users/stapi/OneDrive/Desktop/GD32VW553/V1_MQTT_OK/GD32VW55X_Wifi_BLE_SDK/GD32VW55x_RELEASE_V1.0.2/MSDK/lwip/lwip-2.1.2/src/core\altcp_tcp.c ****     altcp_tcp_setup(new_conn, new_tpcb);
  83:C:/Users/stapi/OneDrive/Desktop/GD32VW553/V1_MQTT_OK/GD32VW55X_Wifi_BLE_SDK/GD32VW55x_RELEASE_V1.0.2/MSDK/lwip/lwip-2.1.2/src/core\altcp_tcp.c ****     return listen_conn->accept(listen_conn->arg, new_conn, err);
  84:C:/Users/stapi/OneDrive/Desktop/GD32VW553/V1_MQTT_OK/GD32VW55X_Wifi_BLE_SDK/GD32VW55x_RELEASE_V1.0.2/MSDK/lwip/lwip-2.1.2/src/core\altcp_tcp.c ****   }
  85:C:/Users/stapi/OneDrive/Desktop/GD32VW553/V1_MQTT_OK/GD32VW55X_Wifi_BLE_SDK/GD32VW55x_RELEASE_V1.0.2/MSDK/lwip/lwip-2.1.2/src/core\altcp_tcp.c ****   return ERR_ARG;
  86:C:/Users/stapi/OneDrive/Desktop/GD32VW553/V1_MQTT_OK/GD32VW55X_Wifi_BLE_SDK/GD32VW55x_RELEASE_V1.0.2/MSDK/lwip/lwip-2.1.2/src/core\altcp_tcp.c **** }
  87:C:/Users/stapi/OneDrive/Desktop/GD32VW553/V1_MQTT_OK/GD32VW55X_Wifi_BLE_SDK/GD32VW55x_RELEASE_V1.0.2/MSDK/lwip/lwip-2.1.2/src/core\altcp_tcp.c **** 
  88:C:/Users/stapi/OneDrive/Desktop/GD32VW553/V1_MQTT_OK/GD32VW55X_Wifi_BLE_SDK/GD32VW55x_RELEASE_V1.0.2/MSDK/lwip/lwip-2.1.2/src/core\altcp_tcp.c **** static err_t
  89:C:/Users/stapi/OneDrive/Desktop/GD32VW553/V1_MQTT_OK/GD32VW55X_Wifi_BLE_SDK/GD32VW55x_RELEASE_V1.0.2/MSDK/lwip/lwip-2.1.2/src/core\altcp_tcp.c **** altcp_tcp_connected(void *arg, struct tcp_pcb *tpcb, err_t err)
  90:C:/Users/stapi/OneDrive/Desktop/GD32VW553/V1_MQTT_OK/GD32VW55X_Wifi_BLE_SDK/GD32VW55x_RELEASE_V1.0.2/MSDK/lwip/lwip-2.1.2/src/core\altcp_tcp.c **** {
  91:C:/Users/stapi/OneDrive/Desktop/GD32VW553/V1_MQTT_OK/GD32VW55X_Wifi_BLE_SDK/GD32VW55x_RELEASE_V1.0.2/MSDK/lwip/lwip-2.1.2/src/core\altcp_tcp.c ****   struct altcp_pcb *conn = (struct altcp_pcb *)arg;
  92:C:/Users/stapi/OneDrive/Desktop/GD32VW553/V1_MQTT_OK/GD32VW55X_Wifi_BLE_SDK/GD32VW55x_RELEASE_V1.0.2/MSDK/lwip/lwip-2.1.2/src/core\altcp_tcp.c ****   if (conn) {
  93:C:/Users/stapi/OneDrive/Desktop/GD32VW553/V1_MQTT_OK/GD32VW55X_Wifi_BLE_SDK/GD32VW55x_RELEASE_V1.0.2/MSDK/lwip/lwip-2.1.2/src/core\altcp_tcp.c ****     ALTCP_TCP_ASSERT_CONN_PCB(conn, tpcb);
  94:C:/Users/stapi/OneDrive/Desktop/GD32VW553/V1_MQTT_OK/GD32VW55X_Wifi_BLE_SDK/GD32VW55x_RELEASE_V1.0.2/MSDK/lwip/lwip-2.1.2/src/core\altcp_tcp.c ****     if (conn->connected) {
  95:C:/Users/stapi/OneDrive/Desktop/GD32VW553/V1_MQTT_OK/GD32VW55X_Wifi_BLE_SDK/GD32VW55x_RELEASE_V1.0.2/MSDK/lwip/lwip-2.1.2/src/core\altcp_tcp.c ****       return conn->connected(conn->arg, conn, err);
  96:C:/Users/stapi/OneDrive/Desktop/GD32VW553/V1_MQTT_OK/GD32VW55X_Wifi_BLE_SDK/GD32VW55x_RELEASE_V1.0.2/MSDK/lwip/lwip-2.1.2/src/core\altcp_tcp.c ****     }
  97:C:/Users/stapi/OneDrive/Desktop/GD32VW553/V1_MQTT_OK/GD32VW55X_Wifi_BLE_SDK/GD32VW55x_RELEASE_V1.0.2/MSDK/lwip/lwip-2.1.2/src/core\altcp_tcp.c ****   }
  98:C:/Users/stapi/OneDrive/Desktop/GD32VW553/V1_MQTT_OK/GD32VW55X_Wifi_BLE_SDK/GD32VW55x_RELEASE_V1.0.2/MSDK/lwip/lwip-2.1.2/src/core\altcp_tcp.c ****   return ERR_OK;
  99:C:/Users/stapi/OneDrive/Desktop/GD32VW553/V1_MQTT_OK/GD32VW55X_Wifi_BLE_SDK/GD32VW55x_RELEASE_V1.0.2/MSDK/lwip/lwip-2.1.2/src/core\altcp_tcp.c **** }
 100:C:/Users/stapi/OneDrive/Desktop/GD32VW553/V1_MQTT_OK/GD32VW55X_Wifi_BLE_SDK/GD32VW55x_RELEASE_V1.0.2/MSDK/lwip/lwip-2.1.2/src/core\altcp_tcp.c **** 
 101:C:/Users/stapi/OneDrive/Desktop/GD32VW553/V1_MQTT_OK/GD32VW55X_Wifi_BLE_SDK/GD32VW55x_RELEASE_V1.0.2/MSDK/lwip/lwip-2.1.2/src/core\altcp_tcp.c **** static err_t
 102:C:/Users/stapi/OneDrive/Desktop/GD32VW553/V1_MQTT_OK/GD32VW55X_Wifi_BLE_SDK/GD32VW55x_RELEASE_V1.0.2/MSDK/lwip/lwip-2.1.2/src/core\altcp_tcp.c **** altcp_tcp_recv(void *arg, struct tcp_pcb *tpcb, struct pbuf *p, err_t err)
 103:C:/Users/stapi/OneDrive/Desktop/GD32VW553/V1_MQTT_OK/GD32VW55X_Wifi_BLE_SDK/GD32VW55x_RELEASE_V1.0.2/MSDK/lwip/lwip-2.1.2/src/core\altcp_tcp.c **** {
 104:C:/Users/stapi/OneDrive/Desktop/GD32VW553/V1_MQTT_OK/GD32VW55X_Wifi_BLE_SDK/GD32VW55x_RELEASE_V1.0.2/MSDK/lwip/lwip-2.1.2/src/core\altcp_tcp.c ****   struct altcp_pcb *conn = (struct altcp_pcb *)arg;
 105:C:/Users/stapi/OneDrive/Desktop/GD32VW553/V1_MQTT_OK/GD32VW55X_Wifi_BLE_SDK/GD32VW55x_RELEASE_V1.0.2/MSDK/lwip/lwip-2.1.2/src/core\altcp_tcp.c ****   if (conn) {
 106:C:/Users/stapi/OneDrive/Desktop/GD32VW553/V1_MQTT_OK/GD32VW55X_Wifi_BLE_SDK/GD32VW55x_RELEASE_V1.0.2/MSDK/lwip/lwip-2.1.2/src/core\altcp_tcp.c ****     ALTCP_TCP_ASSERT_CONN_PCB(conn, tpcb);
 107:C:/Users/stapi/OneDrive/Desktop/GD32VW553/V1_MQTT_OK/GD32VW55X_Wifi_BLE_SDK/GD32VW55x_RELEASE_V1.0.2/MSDK/lwip/lwip-2.1.2/src/core\altcp_tcp.c ****     if (conn->recv) {
 108:C:/Users/stapi/OneDrive/Desktop/GD32VW553/V1_MQTT_OK/GD32VW55X_Wifi_BLE_SDK/GD32VW55x_RELEASE_V1.0.2/MSDK/lwip/lwip-2.1.2/src/core\altcp_tcp.c ****       return conn->recv(conn->arg, conn, p, err);
 109:C:/Users/stapi/OneDrive/Desktop/GD32VW553/V1_MQTT_OK/GD32VW55X_Wifi_BLE_SDK/GD32VW55x_RELEASE_V1.0.2/MSDK/lwip/lwip-2.1.2/src/core\altcp_tcp.c ****     }
 110:C:/Users/stapi/OneDrive/Desktop/GD32VW553/V1_MQTT_OK/GD32VW55X_Wifi_BLE_SDK/GD32VW55x_RELEASE_V1.0.2/MSDK/lwip/lwip-2.1.2/src/core\altcp_tcp.c ****   }
 111:C:/Users/stapi/OneDrive/Desktop/GD32VW553/V1_MQTT_OK/GD32VW55X_Wifi_BLE_SDK/GD32VW55x_RELEASE_V1.0.2/MSDK/lwip/lwip-2.1.2/src/core\altcp_tcp.c ****   if (p != NULL) {
 112:C:/Users/stapi/OneDrive/Desktop/GD32VW553/V1_MQTT_OK/GD32VW55X_Wifi_BLE_SDK/GD32VW55x_RELEASE_V1.0.2/MSDK/lwip/lwip-2.1.2/src/core\altcp_tcp.c ****     /* prevent memory leaks */
 113:C:/Users/stapi/OneDrive/Desktop/GD32VW553/V1_MQTT_OK/GD32VW55X_Wifi_BLE_SDK/GD32VW55x_RELEASE_V1.0.2/MSDK/lwip/lwip-2.1.2/src/core\altcp_tcp.c ****     pbuf_free(p);
 114:C:/Users/stapi/OneDrive/Desktop/GD32VW553/V1_MQTT_OK/GD32VW55X_Wifi_BLE_SDK/GD32VW55x_RELEASE_V1.0.2/MSDK/lwip/lwip-2.1.2/src/core\altcp_tcp.c ****   }
 115:C:/Users/stapi/OneDrive/Desktop/GD32VW553/V1_MQTT_OK/GD32VW55X_Wifi_BLE_SDK/GD32VW55x_RELEASE_V1.0.2/MSDK/lwip/lwip-2.1.2/src/core\altcp_tcp.c ****   return ERR_OK;
 116:C:/Users/stapi/OneDrive/Desktop/GD32VW553/V1_MQTT_OK/GD32VW55X_Wifi_BLE_SDK/GD32VW55x_RELEASE_V1.0.2/MSDK/lwip/lwip-2.1.2/src/core\altcp_tcp.c **** }
 117:C:/Users/stapi/OneDrive/Desktop/GD32VW553/V1_MQTT_OK/GD32VW55X_Wifi_BLE_SDK/GD32VW55x_RELEASE_V1.0.2/MSDK/lwip/lwip-2.1.2/src/core\altcp_tcp.c **** 
 118:C:/Users/stapi/OneDrive/Desktop/GD32VW553/V1_MQTT_OK/GD32VW55X_Wifi_BLE_SDK/GD32VW55x_RELEASE_V1.0.2/MSDK/lwip/lwip-2.1.2/src/core\altcp_tcp.c **** static err_t
 119:C:/Users/stapi/OneDrive/Desktop/GD32VW553/V1_MQTT_OK/GD32VW55X_Wifi_BLE_SDK/GD32VW55x_RELEASE_V1.0.2/MSDK/lwip/lwip-2.1.2/src/core\altcp_tcp.c **** altcp_tcp_sent(void *arg, struct tcp_pcb *tpcb, u16_t len)
 120:C:/Users/stapi/OneDrive/Desktop/GD32VW553/V1_MQTT_OK/GD32VW55X_Wifi_BLE_SDK/GD32VW55x_RELEASE_V1.0.2/MSDK/lwip/lwip-2.1.2/src/core\altcp_tcp.c **** {
 121:C:/Users/stapi/OneDrive/Desktop/GD32VW553/V1_MQTT_OK/GD32VW55X_Wifi_BLE_SDK/GD32VW55x_RELEASE_V1.0.2/MSDK/lwip/lwip-2.1.2/src/core\altcp_tcp.c ****   struct altcp_pcb *conn = (struct altcp_pcb *)arg;
 122:C:/Users/stapi/OneDrive/Desktop/GD32VW553/V1_MQTT_OK/GD32VW55X_Wifi_BLE_SDK/GD32VW55x_RELEASE_V1.0.2/MSDK/lwip/lwip-2.1.2/src/core\altcp_tcp.c ****   if (conn) {
 123:C:/Users/stapi/OneDrive/Desktop/GD32VW553/V1_MQTT_OK/GD32VW55X_Wifi_BLE_SDK/GD32VW55x_RELEASE_V1.0.2/MSDK/lwip/lwip-2.1.2/src/core\altcp_tcp.c ****     ALTCP_TCP_ASSERT_CONN_PCB(conn, tpcb);
 124:C:/Users/stapi/OneDrive/Desktop/GD32VW553/V1_MQTT_OK/GD32VW55X_Wifi_BLE_SDK/GD32VW55x_RELEASE_V1.0.2/MSDK/lwip/lwip-2.1.2/src/core\altcp_tcp.c ****     if (conn->sent) {
 125:C:/Users/stapi/OneDrive/Desktop/GD32VW553/V1_MQTT_OK/GD32VW55X_Wifi_BLE_SDK/GD32VW55x_RELEASE_V1.0.2/MSDK/lwip/lwip-2.1.2/src/core\altcp_tcp.c ****       return conn->sent(conn->arg, conn, len);
 126:C:/Users/stapi/OneDrive/Desktop/GD32VW553/V1_MQTT_OK/GD32VW55X_Wifi_BLE_SDK/GD32VW55x_RELEASE_V1.0.2/MSDK/lwip/lwip-2.1.2/src/core\altcp_tcp.c ****     }
 127:C:/Users/stapi/OneDrive/Desktop/GD32VW553/V1_MQTT_OK/GD32VW55X_Wifi_BLE_SDK/GD32VW55x_RELEASE_V1.0.2/MSDK/lwip/lwip-2.1.2/src/core\altcp_tcp.c ****   }
 128:C:/Users/stapi/OneDrive/Desktop/GD32VW553/V1_MQTT_OK/GD32VW55X_Wifi_BLE_SDK/GD32VW55x_RELEASE_V1.0.2/MSDK/lwip/lwip-2.1.2/src/core\altcp_tcp.c ****   return ERR_OK;
 129:C:/Users/stapi/OneDrive/Desktop/GD32VW553/V1_MQTT_OK/GD32VW55X_Wifi_BLE_SDK/GD32VW55x_RELEASE_V1.0.2/MSDK/lwip/lwip-2.1.2/src/core\altcp_tcp.c **** }
 130:C:/Users/stapi/OneDrive/Desktop/GD32VW553/V1_MQTT_OK/GD32VW55X_Wifi_BLE_SDK/GD32VW55x_RELEASE_V1.0.2/MSDK/lwip/lwip-2.1.2/src/core\altcp_tcp.c **** 
 131:C:/Users/stapi/OneDrive/Desktop/GD32VW553/V1_MQTT_OK/GD32VW55X_Wifi_BLE_SDK/GD32VW55x_RELEASE_V1.0.2/MSDK/lwip/lwip-2.1.2/src/core\altcp_tcp.c **** static err_t
 132:C:/Users/stapi/OneDrive/Desktop/GD32VW553/V1_MQTT_OK/GD32VW55X_Wifi_BLE_SDK/GD32VW55x_RELEASE_V1.0.2/MSDK/lwip/lwip-2.1.2/src/core\altcp_tcp.c **** altcp_tcp_poll(void *arg, struct tcp_pcb *tpcb)
 133:C:/Users/stapi/OneDrive/Desktop/GD32VW553/V1_MQTT_OK/GD32VW55X_Wifi_BLE_SDK/GD32VW55x_RELEASE_V1.0.2/MSDK/lwip/lwip-2.1.2/src/core\altcp_tcp.c **** {
 134:C:/Users/stapi/OneDrive/Desktop/GD32VW553/V1_MQTT_OK/GD32VW55X_Wifi_BLE_SDK/GD32VW55x_RELEASE_V1.0.2/MSDK/lwip/lwip-2.1.2/src/core\altcp_tcp.c ****   struct altcp_pcb *conn = (struct altcp_pcb *)arg;
 135:C:/Users/stapi/OneDrive/Desktop/GD32VW553/V1_MQTT_OK/GD32VW55X_Wifi_BLE_SDK/GD32VW55x_RELEASE_V1.0.2/MSDK/lwip/lwip-2.1.2/src/core\altcp_tcp.c ****   if (conn) {
 136:C:/Users/stapi/OneDrive/Desktop/GD32VW553/V1_MQTT_OK/GD32VW55X_Wifi_BLE_SDK/GD32VW55x_RELEASE_V1.0.2/MSDK/lwip/lwip-2.1.2/src/core\altcp_tcp.c ****     ALTCP_TCP_ASSERT_CONN_PCB(conn, tpcb);
 137:C:/Users/stapi/OneDrive/Desktop/GD32VW553/V1_MQTT_OK/GD32VW55X_Wifi_BLE_SDK/GD32VW55x_RELEASE_V1.0.2/MSDK/lwip/lwip-2.1.2/src/core\altcp_tcp.c ****     if (conn->poll) {
 138:C:/Users/stapi/OneDrive/Desktop/GD32VW553/V1_MQTT_OK/GD32VW55X_Wifi_BLE_SDK/GD32VW55x_RELEASE_V1.0.2/MSDK/lwip/lwip-2.1.2/src/core\altcp_tcp.c ****       return conn->poll(conn->arg, conn);
 139:C:/Users/stapi/OneDrive/Desktop/GD32VW553/V1_MQTT_OK/GD32VW55X_Wifi_BLE_SDK/GD32VW55x_RELEASE_V1.0.2/MSDK/lwip/lwip-2.1.2/src/core\altcp_tcp.c ****     }
 140:C:/Users/stapi/OneDrive/Desktop/GD32VW553/V1_MQTT_OK/GD32VW55X_Wifi_BLE_SDK/GD32VW55x_RELEASE_V1.0.2/MSDK/lwip/lwip-2.1.2/src/core\altcp_tcp.c ****   }
 141:C:/Users/stapi/OneDrive/Desktop/GD32VW553/V1_MQTT_OK/GD32VW55X_Wifi_BLE_SDK/GD32VW55x_RELEASE_V1.0.2/MSDK/lwip/lwip-2.1.2/src/core\altcp_tcp.c ****   return ERR_OK;
 142:C:/Users/stapi/OneDrive/Desktop/GD32VW553/V1_MQTT_OK/GD32VW55X_Wifi_BLE_SDK/GD32VW55x_RELEASE_V1.0.2/MSDK/lwip/lwip-2.1.2/src/core\altcp_tcp.c **** }
 143:C:/Users/stapi/OneDrive/Desktop/GD32VW553/V1_MQTT_OK/GD32VW55X_Wifi_BLE_SDK/GD32VW55x_RELEASE_V1.0.2/MSDK/lwip/lwip-2.1.2/src/core\altcp_tcp.c **** 
 144:C:/Users/stapi/OneDrive/Desktop/GD32VW553/V1_MQTT_OK/GD32VW55X_Wifi_BLE_SDK/GD32VW55x_RELEASE_V1.0.2/MSDK/lwip/lwip-2.1.2/src/core\altcp_tcp.c **** static void
 145:C:/Users/stapi/OneDrive/Desktop/GD32VW553/V1_MQTT_OK/GD32VW55X_Wifi_BLE_SDK/GD32VW55x_RELEASE_V1.0.2/MSDK/lwip/lwip-2.1.2/src/core\altcp_tcp.c **** altcp_tcp_err(void *arg, err_t err)
 146:C:/Users/stapi/OneDrive/Desktop/GD32VW553/V1_MQTT_OK/GD32VW55X_Wifi_BLE_SDK/GD32VW55x_RELEASE_V1.0.2/MSDK/lwip/lwip-2.1.2/src/core\altcp_tcp.c **** {
 147:C:/Users/stapi/OneDrive/Desktop/GD32VW553/V1_MQTT_OK/GD32VW55X_Wifi_BLE_SDK/GD32VW55x_RELEASE_V1.0.2/MSDK/lwip/lwip-2.1.2/src/core\altcp_tcp.c ****   struct altcp_pcb *conn = (struct altcp_pcb *)arg;
 148:C:/Users/stapi/OneDrive/Desktop/GD32VW553/V1_MQTT_OK/GD32VW55X_Wifi_BLE_SDK/GD32VW55x_RELEASE_V1.0.2/MSDK/lwip/lwip-2.1.2/src/core\altcp_tcp.c ****   if (conn) {
 149:C:/Users/stapi/OneDrive/Desktop/GD32VW553/V1_MQTT_OK/GD32VW55X_Wifi_BLE_SDK/GD32VW55x_RELEASE_V1.0.2/MSDK/lwip/lwip-2.1.2/src/core\altcp_tcp.c ****     conn->state = NULL; /* already freed */
 150:C:/Users/stapi/OneDrive/Desktop/GD32VW553/V1_MQTT_OK/GD32VW55X_Wifi_BLE_SDK/GD32VW55x_RELEASE_V1.0.2/MSDK/lwip/lwip-2.1.2/src/core\altcp_tcp.c ****     if (conn->err) {
 151:C:/Users/stapi/OneDrive/Desktop/GD32VW553/V1_MQTT_OK/GD32VW55X_Wifi_BLE_SDK/GD32VW55x_RELEASE_V1.0.2/MSDK/lwip/lwip-2.1.2/src/core\altcp_tcp.c ****       conn->err(conn->arg, err);
 152:C:/Users/stapi/OneDrive/Desktop/GD32VW553/V1_MQTT_OK/GD32VW55X_Wifi_BLE_SDK/GD32VW55x_RELEASE_V1.0.2/MSDK/lwip/lwip-2.1.2/src/core\altcp_tcp.c ****     }
 153:C:/Users/stapi/OneDrive/Desktop/GD32VW553/V1_MQTT_OK/GD32VW55X_Wifi_BLE_SDK/GD32VW55x_RELEASE_V1.0.2/MSDK/lwip/lwip-2.1.2/src/core\altcp_tcp.c ****     altcp_free(conn);
 154:C:/Users/stapi/OneDrive/Desktop/GD32VW553/V1_MQTT_OK/GD32VW55X_Wifi_BLE_SDK/GD32VW55x_RELEASE_V1.0.2/MSDK/lwip/lwip-2.1.2/src/core\altcp_tcp.c ****   }
 155:C:/Users/stapi/OneDrive/Desktop/GD32VW553/V1_MQTT_OK/GD32VW55X_Wifi_BLE_SDK/GD32VW55x_RELEASE_V1.0.2/MSDK/lwip/lwip-2.1.2/src/core\altcp_tcp.c **** }
 156:C:/Users/stapi/OneDrive/Desktop/GD32VW553/V1_MQTT_OK/GD32VW55X_Wifi_BLE_SDK/GD32VW55x_RELEASE_V1.0.2/MSDK/lwip/lwip-2.1.2/src/core\altcp_tcp.c **** 
 157:C:/Users/stapi/OneDrive/Desktop/GD32VW553/V1_MQTT_OK/GD32VW55X_Wifi_BLE_SDK/GD32VW55x_RELEASE_V1.0.2/MSDK/lwip/lwip-2.1.2/src/core\altcp_tcp.c **** /* setup functions */
 158:C:/Users/stapi/OneDrive/Desktop/GD32VW553/V1_MQTT_OK/GD32VW55X_Wifi_BLE_SDK/GD32VW55x_RELEASE_V1.0.2/MSDK/lwip/lwip-2.1.2/src/core\altcp_tcp.c **** 
 159:C:/Users/stapi/OneDrive/Desktop/GD32VW553/V1_MQTT_OK/GD32VW55X_Wifi_BLE_SDK/GD32VW55x_RELEASE_V1.0.2/MSDK/lwip/lwip-2.1.2/src/core\altcp_tcp.c **** static void
 160:C:/Users/stapi/OneDrive/Desktop/GD32VW553/V1_MQTT_OK/GD32VW55X_Wifi_BLE_SDK/GD32VW55x_RELEASE_V1.0.2/MSDK/lwip/lwip-2.1.2/src/core\altcp_tcp.c **** altcp_tcp_remove_callbacks(struct tcp_pcb *tpcb)
 161:C:/Users/stapi/OneDrive/Desktop/GD32VW553/V1_MQTT_OK/GD32VW55X_Wifi_BLE_SDK/GD32VW55x_RELEASE_V1.0.2/MSDK/lwip/lwip-2.1.2/src/core\altcp_tcp.c **** {
 162:C:/Users/stapi/OneDrive/Desktop/GD32VW553/V1_MQTT_OK/GD32VW55X_Wifi_BLE_SDK/GD32VW55x_RELEASE_V1.0.2/MSDK/lwip/lwip-2.1.2/src/core\altcp_tcp.c ****   tcp_arg(tpcb, NULL);
 163:C:/Users/stapi/OneDrive/Desktop/GD32VW553/V1_MQTT_OK/GD32VW55X_Wifi_BLE_SDK/GD32VW55x_RELEASE_V1.0.2/MSDK/lwip/lwip-2.1.2/src/core\altcp_tcp.c ****   tcp_recv(tpcb, NULL);
 164:C:/Users/stapi/OneDrive/Desktop/GD32VW553/V1_MQTT_OK/GD32VW55X_Wifi_BLE_SDK/GD32VW55x_RELEASE_V1.0.2/MSDK/lwip/lwip-2.1.2/src/core\altcp_tcp.c ****   tcp_sent(tpcb, NULL);
 165:C:/Users/stapi/OneDrive/Desktop/GD32VW553/V1_MQTT_OK/GD32VW55X_Wifi_BLE_SDK/GD32VW55x_RELEASE_V1.0.2/MSDK/lwip/lwip-2.1.2/src/core\altcp_tcp.c ****   tcp_err(tpcb, NULL);
 166:C:/Users/stapi/OneDrive/Desktop/GD32VW553/V1_MQTT_OK/GD32VW55X_Wifi_BLE_SDK/GD32VW55x_RELEASE_V1.0.2/MSDK/lwip/lwip-2.1.2/src/core\altcp_tcp.c ****   tcp_poll(tpcb, NULL, tpcb->pollinterval);
 167:C:/Users/stapi/OneDrive/Desktop/GD32VW553/V1_MQTT_OK/GD32VW55X_Wifi_BLE_SDK/GD32VW55x_RELEASE_V1.0.2/MSDK/lwip/lwip-2.1.2/src/core\altcp_tcp.c **** }
 168:C:/Users/stapi/OneDrive/Desktop/GD32VW553/V1_MQTT_OK/GD32VW55X_Wifi_BLE_SDK/GD32VW55x_RELEASE_V1.0.2/MSDK/lwip/lwip-2.1.2/src/core\altcp_tcp.c **** 
 169:C:/Users/stapi/OneDrive/Desktop/GD32VW553/V1_MQTT_OK/GD32VW55X_Wifi_BLE_SDK/GD32VW55x_RELEASE_V1.0.2/MSDK/lwip/lwip-2.1.2/src/core\altcp_tcp.c **** static void
 170:C:/Users/stapi/OneDrive/Desktop/GD32VW553/V1_MQTT_OK/GD32VW55X_Wifi_BLE_SDK/GD32VW55x_RELEASE_V1.0.2/MSDK/lwip/lwip-2.1.2/src/core\altcp_tcp.c **** altcp_tcp_setup_callbacks(struct altcp_pcb *conn, struct tcp_pcb *tpcb)
 171:C:/Users/stapi/OneDrive/Desktop/GD32VW553/V1_MQTT_OK/GD32VW55X_Wifi_BLE_SDK/GD32VW55x_RELEASE_V1.0.2/MSDK/lwip/lwip-2.1.2/src/core\altcp_tcp.c **** {
  15              		.loc 1 171 1
  16              		.cfi_startproc
  17              	.LVL0:
  18 0000 17030000 		call	t0,__riscv_save_1
  18      E7020300 
  19              		.cfi_offset 8, -8
  20              		.cfi_offset 1, -4
  21              		.cfi_def_cfa_offset 16
 172:C:/Users/stapi/OneDrive/Desktop/GD32VW553/V1_MQTT_OK/GD32VW55X_Wifi_BLE_SDK/GD32VW55x_RELEASE_V1.0.2/MSDK/lwip/lwip-2.1.2/src/core\altcp_tcp.c ****   tcp_arg(tpcb, conn);
  22              		.loc 1 172 3
 171:C:/Users/stapi/OneDrive/Desktop/GD32VW553/V1_MQTT_OK/GD32VW55X_Wifi_BLE_SDK/GD32VW55x_RELEASE_V1.0.2/MSDK/lwip/lwip-2.1.2/src/core\altcp_tcp.c ****   tcp_arg(tpcb, conn);
  23              		.loc 1 171 1 is_stmt 0
  24 0008 2E84     		mv	s0,a1
  25              		.loc 1 172 3
  26 000a AA85     		mv	a1,a0
  27              	.LVL1:
  28 000c 2285     		mv	a0,s0
  29              	.LVL2:
  30 000e 97000000 		call	tcp_arg
  30      E7800000 
  31              	.LVL3:
 173:C:/Users/stapi/OneDrive/Desktop/GD32VW553/V1_MQTT_OK/GD32VW55X_Wifi_BLE_SDK/GD32VW55x_RELEASE_V1.0.2/MSDK/lwip/lwip-2.1.2/src/core\altcp_tcp.c ****   tcp_recv(tpcb, altcp_tcp_recv);
  32              		.loc 1 173 3 is_stmt 1
  33 0016 B7050000 		lui	a1,%hi(altcp_tcp_recv)
  34 001a 2285     		mv	a0,s0
  35 001c 93850500 		addi	a1,a1,%lo(altcp_tcp_recv)
  36 0020 97000000 		call	tcp_recv
  36      E7800000 
  37              	.LVL4:
 174:C:/Users/stapi/OneDrive/Desktop/GD32VW553/V1_MQTT_OK/GD32VW55X_Wifi_BLE_SDK/GD32VW55x_RELEASE_V1.0.2/MSDK/lwip/lwip-2.1.2/src/core\altcp_tcp.c ****   tcp_sent(tpcb, altcp_tcp_sent);
  38              		.loc 1 174 3
  39 0028 B7050000 		lui	a1,%hi(altcp_tcp_sent)
  40 002c 2285     		mv	a0,s0
  41 002e 93850500 		addi	a1,a1,%lo(altcp_tcp_sent)
  42 0032 97000000 		call	tcp_sent
  42      E7800000 
  43              	.LVL5:
 175:C:/Users/stapi/OneDrive/Desktop/GD32VW553/V1_MQTT_OK/GD32VW55X_Wifi_BLE_SDK/GD32VW55x_RELEASE_V1.0.2/MSDK/lwip/lwip-2.1.2/src/core\altcp_tcp.c ****   tcp_err(tpcb, altcp_tcp_err);
  44              		.loc 1 175 3
  45 003a B7050000 		lui	a1,%hi(altcp_tcp_err)
  46 003e 93850500 		addi	a1,a1,%lo(altcp_tcp_err)
  47 0042 2285     		mv	a0,s0
  48 0044 97000000 		call	tcp_err
  48      E7800000 
  49              	.LVL6:
 176:C:/Users/stapi/OneDrive/Desktop/GD32VW553/V1_MQTT_OK/GD32VW55X_Wifi_BLE_SDK/GD32VW55x_RELEASE_V1.0.2/MSDK/lwip/lwip-2.1.2/src/core\altcp_tcp.c ****   /* tcp_poll is set when interval is set by application */
 177:C:/Users/stapi/OneDrive/Desktop/GD32VW553/V1_MQTT_OK/GD32VW55X_Wifi_BLE_SDK/GD32VW55x_RELEASE_V1.0.2/MSDK/lwip/lwip-2.1.2/src/core\altcp_tcp.c ****   /* listen is set totally different :-) */
 178:C:/Users/stapi/OneDrive/Desktop/GD32VW553/V1_MQTT_OK/GD32VW55X_Wifi_BLE_SDK/GD32VW55x_RELEASE_V1.0.2/MSDK/lwip/lwip-2.1.2/src/core\altcp_tcp.c **** }
  50              		.loc 1 178 1 is_stmt 0
  51 004c 17030000 		tail	__riscv_restore_1
  51      67000300 
  52              		.cfi_restore 8
  53              		.cfi_restore 1
  54              		.cfi_def_cfa_offset 0
  55              		.cfi_endproc
  56              	.LFE11:
  58              		.section	.text.altcp_tcp_accept,"ax",@progbits
  59              		.align	1
  61              	altcp_tcp_accept:
  62              	.LFB4:
  74:C:/Users/stapi/OneDrive/Desktop/GD32VW553/V1_MQTT_OK/GD32VW55X_Wifi_BLE_SDK/GD32VW55x_RELEASE_V1.0.2/MSDK/lwip/lwip-2.1.2/src/core\altcp_tcp.c ****   struct altcp_pcb *listen_conn = (struct altcp_pcb *)arg;
  63              		.loc 1 74 1 is_stmt 1
  64              		.cfi_startproc
  65              	.LVL7:
  75:C:/Users/stapi/OneDrive/Desktop/GD32VW553/V1_MQTT_OK/GD32VW55X_Wifi_BLE_SDK/GD32VW55x_RELEASE_V1.0.2/MSDK/lwip/lwip-2.1.2/src/core\altcp_tcp.c ****   if (listen_conn && listen_conn->accept) {
  66              		.loc 1 75 3
  76:C:/Users/stapi/OneDrive/Desktop/GD32VW553/V1_MQTT_OK/GD32VW55X_Wifi_BLE_SDK/GD32VW55x_RELEASE_V1.0.2/MSDK/lwip/lwip-2.1.2/src/core\altcp_tcp.c ****     /* create a new altcp_conn to pass to the next 'accept' callback */
  67              		.loc 1 76 3
  76:C:/Users/stapi/OneDrive/Desktop/GD32VW553/V1_MQTT_OK/GD32VW55X_Wifi_BLE_SDK/GD32VW55x_RELEASE_V1.0.2/MSDK/lwip/lwip-2.1.2/src/core\altcp_tcp.c ****     /* create a new altcp_conn to pass to the next 'accept' callback */
  68              		.loc 1 76 6 is_stmt 0
  69 0000 29C9     		beq	a0,zero,.L5
  74:C:/Users/stapi/OneDrive/Desktop/GD32VW553/V1_MQTT_OK/GD32VW55X_Wifi_BLE_SDK/GD32VW55x_RELEASE_V1.0.2/MSDK/lwip/lwip-2.1.2/src/core\altcp_tcp.c ****   struct altcp_pcb *listen_conn = (struct altcp_pcb *)arg;
  70              		.loc 1 74 1 discriminator 1
  71 0002 17030000 		call	t0,__riscv_save_4
  71      E7020300 
  72              		.cfi_offset 19, -20
  73              		.cfi_offset 18, -16
  74              		.cfi_offset 9, -12
  75              		.cfi_offset 8, -8
  76              		.cfi_offset 1, -4
  77              		.cfi_def_cfa_offset 32
  76:C:/Users/stapi/OneDrive/Desktop/GD32VW553/V1_MQTT_OK/GD32VW55X_Wifi_BLE_SDK/GD32VW55x_RELEASE_V1.0.2/MSDK/lwip/lwip-2.1.2/src/core\altcp_tcp.c ****     /* create a new altcp_conn to pass to the next 'accept' callback */
  78              		.loc 1 76 19 discriminator 1
  79 000a 1849     		lw	a4,16(a0)
  80 000c 2A84     		mv	s0,a0
  85:C:/Users/stapi/OneDrive/Desktop/GD32VW553/V1_MQTT_OK/GD32VW55X_Wifi_BLE_SDK/GD32VW55x_RELEASE_V1.0.2/MSDK/lwip/lwip-2.1.2/src/core\altcp_tcp.c **** }
  81              		.loc 1 85 10 discriminator 1
  82 000e C157     		li	a5,-16
  76:C:/Users/stapi/OneDrive/Desktop/GD32VW553/V1_MQTT_OK/GD32VW55X_Wifi_BLE_SDK/GD32VW55x_RELEASE_V1.0.2/MSDK/lwip/lwip-2.1.2/src/core\altcp_tcp.c ****     /* create a new altcp_conn to pass to the next 'accept' callback */
  83              		.loc 1 76 19 discriminator 1
  84 0010 05CF     		beq	a4,zero,.L4
  85 0012 2E89     		mv	s2,a1
  86 0014 B289     		mv	s3,a2
  87              	.LBB15:
  78:C:/Users/stapi/OneDrive/Desktop/GD32VW553/V1_MQTT_OK/GD32VW55X_Wifi_BLE_SDK/GD32VW55x_RELEASE_V1.0.2/MSDK/lwip/lwip-2.1.2/src/core\altcp_tcp.c ****     if (new_conn == NULL) {
  88              		.loc 1 78 5 is_stmt 1
  78:C:/Users/stapi/OneDrive/Desktop/GD32VW553/V1_MQTT_OK/GD32VW55X_Wifi_BLE_SDK/GD32VW55x_RELEASE_V1.0.2/MSDK/lwip/lwip-2.1.2/src/core\altcp_tcp.c ****     if (new_conn == NULL) {
  89              		.loc 1 78 34 is_stmt 0
  90 0016 97000000 		call	altcp_alloc
  90      E7800000 
  91              	.LVL8:
  92 001e AA84     		mv	s1,a0
  93              	.LVL9:
  79:C:/Users/stapi/OneDrive/Desktop/GD32VW553/V1_MQTT_OK/GD32VW55X_Wifi_BLE_SDK/GD32VW55x_RELEASE_V1.0.2/MSDK/lwip/lwip-2.1.2/src/core\altcp_tcp.c ****       return ERR_MEM;
  94              		.loc 1 79 5 is_stmt 1
  80:C:/Users/stapi/OneDrive/Desktop/GD32VW553/V1_MQTT_OK/GD32VW55X_Wifi_BLE_SDK/GD32VW55x_RELEASE_V1.0.2/MSDK/lwip/lwip-2.1.2/src/core\altcp_tcp.c ****     }
  95              		.loc 1 80 14 is_stmt 0
  96 0020 FD57     		li	a5,-1
  79:C:/Users/stapi/OneDrive/Desktop/GD32VW553/V1_MQTT_OK/GD32VW55X_Wifi_BLE_SDK/GD32VW55x_RELEASE_V1.0.2/MSDK/lwip/lwip-2.1.2/src/core\altcp_tcp.c ****       return ERR_MEM;
  97              		.loc 1 79 8
  98 0022 1DC1     		beq	a0,zero,.L4
  82:C:/Users/stapi/OneDrive/Desktop/GD32VW553/V1_MQTT_OK/GD32VW55X_Wifi_BLE_SDK/GD32VW55x_RELEASE_V1.0.2/MSDK/lwip/lwip-2.1.2/src/core\altcp_tcp.c ****     return listen_conn->accept(listen_conn->arg, new_conn, err);
  99              		.loc 1 82 5 is_stmt 1
 100              	.LVL10:
 101              	.LBB16:
 102              	.LBB17:
 179:C:/Users/stapi/OneDrive/Desktop/GD32VW553/V1_MQTT_OK/GD32VW55X_Wifi_BLE_SDK/GD32VW55x_RELEASE_V1.0.2/MSDK/lwip/lwip-2.1.2/src/core\altcp_tcp.c **** 
 180:C:/Users/stapi/OneDrive/Desktop/GD32VW553/V1_MQTT_OK/GD32VW55X_Wifi_BLE_SDK/GD32VW55x_RELEASE_V1.0.2/MSDK/lwip/lwip-2.1.2/src/core\altcp_tcp.c **** static void
 181:C:/Users/stapi/OneDrive/Desktop/GD32VW553/V1_MQTT_OK/GD32VW55X_Wifi_BLE_SDK/GD32VW55x_RELEASE_V1.0.2/MSDK/lwip/lwip-2.1.2/src/core\altcp_tcp.c **** altcp_tcp_setup(struct altcp_pcb *conn, struct tcp_pcb *tpcb)
 182:C:/Users/stapi/OneDrive/Desktop/GD32VW553/V1_MQTT_OK/GD32VW55X_Wifi_BLE_SDK/GD32VW55x_RELEASE_V1.0.2/MSDK/lwip/lwip-2.1.2/src/core\altcp_tcp.c **** {
 183:C:/Users/stapi/OneDrive/Desktop/GD32VW553/V1_MQTT_OK/GD32VW55X_Wifi_BLE_SDK/GD32VW55x_RELEASE_V1.0.2/MSDK/lwip/lwip-2.1.2/src/core\altcp_tcp.c ****   altcp_tcp_setup_callbacks(conn, tpcb);
 103              		.loc 1 183 3
 104 0024 CA85     		mv	a1,s2
 105 0026 97000000 		call	altcp_tcp_setup_callbacks
 105      E7800000 
 106              	.LVL11:
 184:C:/Users/stapi/OneDrive/Desktop/GD32VW553/V1_MQTT_OK/GD32VW55X_Wifi_BLE_SDK/GD32VW55x_RELEASE_V1.0.2/MSDK/lwip/lwip-2.1.2/src/core\altcp_tcp.c ****   conn->state = tpcb;
 107              		.loc 1 184 3
 185:C:/Users/stapi/OneDrive/Desktop/GD32VW553/V1_MQTT_OK/GD32VW55X_Wifi_BLE_SDK/GD32VW55x_RELEASE_V1.0.2/MSDK/lwip/lwip-2.1.2/src/core\altcp_tcp.c ****   conn->fns = &altcp_tcp_functions;
 108              		.loc 1 185 13 is_stmt 0
 109 002e B7070000 		lui	a5,%hi(.LANCHOR0)
 110 0032 93870700 		addi	a5,a5,%lo(.LANCHOR0)
 111 0036 9CC0     		sw	a5,0(s1)
 112              	.LBE17:
 113              	.LBE16:
  83:C:/Users/stapi/OneDrive/Desktop/GD32VW553/V1_MQTT_OK/GD32VW55X_Wifi_BLE_SDK/GD32VW55x_RELEASE_V1.0.2/MSDK/lwip/lwip-2.1.2/src/core\altcp_tcp.c ****   }
 114              		.loc 1 83 12
 115 0038 0844     		lw	a0,8(s0)
 116 003a 1C48     		lw	a5,16(s0)
 117              	.LBB19:
 118              	.LBB18:
 184:C:/Users/stapi/OneDrive/Desktop/GD32VW553/V1_MQTT_OK/GD32VW55X_Wifi_BLE_SDK/GD32VW55x_RELEASE_V1.0.2/MSDK/lwip/lwip-2.1.2/src/core\altcp_tcp.c ****   conn->state = tpcb;
 119              		.loc 1 184 15
 120 003c 23A62401 		sw	s2,12(s1)
 121              		.loc 1 185 3 is_stmt 1
 122              	.LVL12:
 123              	.LBE18:
 124              	.LBE19:
  83:C:/Users/stapi/OneDrive/Desktop/GD32VW553/V1_MQTT_OK/GD32VW55X_Wifi_BLE_SDK/GD32VW55x_RELEASE_V1.0.2/MSDK/lwip/lwip-2.1.2/src/core\altcp_tcp.c ****   }
 125              		.loc 1 83 5
  83:C:/Users/stapi/OneDrive/Desktop/GD32VW553/V1_MQTT_OK/GD32VW55X_Wifi_BLE_SDK/GD32VW55x_RELEASE_V1.0.2/MSDK/lwip/lwip-2.1.2/src/core\altcp_tcp.c ****   }
 126              		.loc 1 83 12 is_stmt 0
 127 0040 4E86     		mv	a2,s3
 128 0042 A685     		mv	a1,s1
 129 0044 8297     		jalr	a5
 130              	.LVL13:
 131 0046 AA87     		mv	a5,a0
 132              	.LVL14:
 133              	.L4:
 134              	.LBE15:
  86:C:/Users/stapi/OneDrive/Desktop/GD32VW553/V1_MQTT_OK/GD32VW55X_Wifi_BLE_SDK/GD32VW55x_RELEASE_V1.0.2/MSDK/lwip/lwip-2.1.2/src/core\altcp_tcp.c **** 
 135              		.loc 1 86 1
 136 0048 3E85     		mv	a0,a5
 137 004a 17030000 		tail	__riscv_restore_4
 137      67000300 
 138              		.cfi_restore 19
 139              		.cfi_restore 18
 140              		.cfi_restore 9
 141              		.cfi_restore 8
 142              		.cfi_restore 1
 143              		.cfi_def_cfa_offset 0
 144              	.LVL15:
 145              	.L5:
  85:C:/Users/stapi/OneDrive/Desktop/GD32VW553/V1_MQTT_OK/GD32VW55X_Wifi_BLE_SDK/GD32VW55x_RELEASE_V1.0.2/MSDK/lwip/lwip-2.1.2/src/core\altcp_tcp.c **** }
 146              		.loc 1 85 10
 147 0052 C157     		li	a5,-16
  86:C:/Users/stapi/OneDrive/Desktop/GD32VW553/V1_MQTT_OK/GD32VW55X_Wifi_BLE_SDK/GD32VW55x_RELEASE_V1.0.2/MSDK/lwip/lwip-2.1.2/src/core\altcp_tcp.c **** 
 148              		.loc 1 86 1
 149 0054 3E85     		mv	a0,a5
 150              	.LVL16:
 151 0056 8280     		ret
 152              		.cfi_endproc
 153              	.LFE4:
 155              		.section	.text.altcp_tcp_err,"ax",@progbits
 156              		.align	1
 158              	altcp_tcp_err:
 159              	.LFB9:
 146:C:/Users/stapi/OneDrive/Desktop/GD32VW553/V1_MQTT_OK/GD32VW55X_Wifi_BLE_SDK/GD32VW55x_RELEASE_V1.0.2/MSDK/lwip/lwip-2.1.2/src/core\altcp_tcp.c ****   struct altcp_pcb *conn = (struct altcp_pcb *)arg;
 160              		.loc 1 146 1 is_stmt 1
 161              		.cfi_startproc
 162              	.LVL17:
 147:C:/Users/stapi/OneDrive/Desktop/GD32VW553/V1_MQTT_OK/GD32VW55X_Wifi_BLE_SDK/GD32VW55x_RELEASE_V1.0.2/MSDK/lwip/lwip-2.1.2/src/core\altcp_tcp.c ****   if (conn) {
 163              		.loc 1 147 3
 148:C:/Users/stapi/OneDrive/Desktop/GD32VW553/V1_MQTT_OK/GD32VW55X_Wifi_BLE_SDK/GD32VW55x_RELEASE_V1.0.2/MSDK/lwip/lwip-2.1.2/src/core\altcp_tcp.c ****     conn->state = NULL; /* already freed */
 164              		.loc 1 148 3
 148:C:/Users/stapi/OneDrive/Desktop/GD32VW553/V1_MQTT_OK/GD32VW55X_Wifi_BLE_SDK/GD32VW55x_RELEASE_V1.0.2/MSDK/lwip/lwip-2.1.2/src/core\altcp_tcp.c ****     conn->state = NULL; /* already freed */
 165              		.loc 1 148 6 is_stmt 0
 166 0000 0DC5     		beq	a0,zero,.L22
 146:C:/Users/stapi/OneDrive/Desktop/GD32VW553/V1_MQTT_OK/GD32VW55X_Wifi_BLE_SDK/GD32VW55x_RELEASE_V1.0.2/MSDK/lwip/lwip-2.1.2/src/core\altcp_tcp.c ****   struct altcp_pcb *conn = (struct altcp_pcb *)arg;
 167              		.loc 1 146 1
 168 0002 17030000 		call	t0,__riscv_save_1
 168      E7020300 
 169              		.cfi_offset 8, -8
 170              		.cfi_offset 1, -4
 171              		.cfi_def_cfa_offset 16
 150:C:/Users/stapi/OneDrive/Desktop/GD32VW553/V1_MQTT_OK/GD32VW55X_Wifi_BLE_SDK/GD32VW55x_RELEASE_V1.0.2/MSDK/lwip/lwip-2.1.2/src/core\altcp_tcp.c ****       conn->err(conn->arg, err);
 172              		.loc 1 150 13
 173 000a 5C51     		lw	a5,36(a0)
 149:C:/Users/stapi/OneDrive/Desktop/GD32VW553/V1_MQTT_OK/GD32VW55X_Wifi_BLE_SDK/GD32VW55x_RELEASE_V1.0.2/MSDK/lwip/lwip-2.1.2/src/core\altcp_tcp.c ****     if (conn->err) {
 174              		.loc 1 149 17
 175 000c 23260500 		sw	zero,12(a0)
 176 0010 2A84     		mv	s0,a0
 149:C:/Users/stapi/OneDrive/Desktop/GD32VW553/V1_MQTT_OK/GD32VW55X_Wifi_BLE_SDK/GD32VW55x_RELEASE_V1.0.2/MSDK/lwip/lwip-2.1.2/src/core\altcp_tcp.c ****     if (conn->err) {
 177              		.loc 1 149 5 is_stmt 1
 150:C:/Users/stapi/OneDrive/Desktop/GD32VW553/V1_MQTT_OK/GD32VW55X_Wifi_BLE_SDK/GD32VW55x_RELEASE_V1.0.2/MSDK/lwip/lwip-2.1.2/src/core\altcp_tcp.c ****       conn->err(conn->arg, err);
 178              		.loc 1 150 5
 150:C:/Users/stapi/OneDrive/Desktop/GD32VW553/V1_MQTT_OK/GD32VW55X_Wifi_BLE_SDK/GD32VW55x_RELEASE_V1.0.2/MSDK/lwip/lwip-2.1.2/src/core\altcp_tcp.c ****       conn->err(conn->arg, err);
 179              		.loc 1 150 8 is_stmt 0
 180 0012 99C3     		beq	a5,zero,.L14
 151:C:/Users/stapi/OneDrive/Desktop/GD32VW553/V1_MQTT_OK/GD32VW55X_Wifi_BLE_SDK/GD32VW55x_RELEASE_V1.0.2/MSDK/lwip/lwip-2.1.2/src/core\altcp_tcp.c ****     }
 181              		.loc 1 151 7 is_stmt 1
 182 0014 0845     		lw	a0,8(a0)
 183              	.LVL18:
 184 0016 8297     		jalr	a5
 185              	.LVL19:
 186              	.L14:
 153:C:/Users/stapi/OneDrive/Desktop/GD32VW553/V1_MQTT_OK/GD32VW55X_Wifi_BLE_SDK/GD32VW55x_RELEASE_V1.0.2/MSDK/lwip/lwip-2.1.2/src/core\altcp_tcp.c ****   }
 187              		.loc 1 153 5
 188 0018 2285     		mv	a0,s0
 189 001a 97000000 		call	altcp_free
 189      E7800000 
 190              	.LVL20:
 155:C:/Users/stapi/OneDrive/Desktop/GD32VW553/V1_MQTT_OK/GD32VW55X_Wifi_BLE_SDK/GD32VW55x_RELEASE_V1.0.2/MSDK/lwip/lwip-2.1.2/src/core\altcp_tcp.c **** 
 191              		.loc 1 155 1 is_stmt 0
 192 0022 17030000 		tail	__riscv_restore_1
 192      67000300 
 193              		.cfi_restore 8
 194              		.cfi_restore 1
 195              		.cfi_def_cfa_offset 0
 196              	.LVL21:
 197              	.L22:
 198 002a 8280     		ret
 199              		.cfi_endproc
 200              	.LFE9:
 202              		.section	.rodata.altcp_tcp_recv.str1.4,"aMS",@progbits,1
 203              		.align	2
 204              	.LC0:
 205 0000 433A2F55 		.string	"C:/Users/stapi/OneDrive/Desktop/GD32VW553/V1_MQTT_OK/GD32VW55X_Wifi_BLE_SDK/GD32VW55x_REL
 205      73657273 
 205      2F737461 
 205      70692F4F 
 205      6E654472 
 206 008f 00       		.align	2
 207              	.LC1:
 208 0090 70636220 		.string	"pcb mismatch"
 208      6D69736D 
 208      61746368 
 208      00
 209 009d 000000   		.align	2
 210              	.LC2:
 211 00a0 41737365 		.string	"Assertion \"%s\" failed at line %d in %s\n"
 211      7274696F 
 211      6E202225 
 211      73222066 
 211      61696C65 
 212              		.align	2
 213              	.LC3:
 214 00c8 636F6E6E 		.string	"conn->inner_conn == NULL"
 214      2D3E696E 
 214      6E65725F 
 214      636F6E6E 
 214      203D3D20 
 215              		.section	.text.altcp_tcp_recv,"ax",@progbits
 216              		.align	1
 218              	altcp_tcp_recv:
 219              	.LFB6:
 103:C:/Users/stapi/OneDrive/Desktop/GD32VW553/V1_MQTT_OK/GD32VW55X_Wifi_BLE_SDK/GD32VW55x_RELEASE_V1.0.2/MSDK/lwip/lwip-2.1.2/src/core\altcp_tcp.c ****   struct altcp_pcb *conn = (struct altcp_pcb *)arg;
 220              		.loc 1 103 1 is_stmt 1
 221              		.cfi_startproc
 222              	.LVL22:
 223 0000 17030000 		call	t0,__riscv_save_1
 223      E7020300 
 224              		.cfi_offset 8, -8
 225              		.cfi_offset 1, -4
 226              		.cfi_def_cfa_offset 16
 104:C:/Users/stapi/OneDrive/Desktop/GD32VW553/V1_MQTT_OK/GD32VW55X_Wifi_BLE_SDK/GD32VW55x_RELEASE_V1.0.2/MSDK/lwip/lwip-2.1.2/src/core\altcp_tcp.c ****   if (conn) {
 227              		.loc 1 104 3
 103:C:/Users/stapi/OneDrive/Desktop/GD32VW553/V1_MQTT_OK/GD32VW55X_Wifi_BLE_SDK/GD32VW55x_RELEASE_V1.0.2/MSDK/lwip/lwip-2.1.2/src/core\altcp_tcp.c ****   struct altcp_pcb *conn = (struct altcp_pcb *)arg;
 228              		.loc 1 103 1 is_stmt 0
 229 0008 AA87     		mv	a5,a0
 230              	.LVL23:
 105:C:/Users/stapi/OneDrive/Desktop/GD32VW553/V1_MQTT_OK/GD32VW55X_Wifi_BLE_SDK/GD32VW55x_RELEASE_V1.0.2/MSDK/lwip/lwip-2.1.2/src/core\altcp_tcp.c ****     ALTCP_TCP_ASSERT_CONN_PCB(conn, tpcb);
 231              		.loc 1 105 3 is_stmt 1
 103:C:/Users/stapi/OneDrive/Desktop/GD32VW553/V1_MQTT_OK/GD32VW55X_Wifi_BLE_SDK/GD32VW55x_RELEASE_V1.0.2/MSDK/lwip/lwip-2.1.2/src/core\altcp_tcp.c ****   struct altcp_pcb *conn = (struct altcp_pcb *)arg;
 232              		.loc 1 103 1 is_stmt 0
 233 000a 3285     		mv	a0,a2
 234              	.LVL24:
 105:C:/Users/stapi/OneDrive/Desktop/GD32VW553/V1_MQTT_OK/GD32VW55X_Wifi_BLE_SDK/GD32VW55x_RELEASE_V1.0.2/MSDK/lwip/lwip-2.1.2/src/core\altcp_tcp.c ****     ALTCP_TCP_ASSERT_CONN_PCB(conn, tpcb);
 235              		.loc 1 105 6
 236 000c BDC7     		beq	a5,zero,.L26
 106:C:/Users/stapi/OneDrive/Desktop/GD32VW553/V1_MQTT_OK/GD32VW55X_Wifi_BLE_SDK/GD32VW55x_RELEASE_V1.0.2/MSDK/lwip/lwip-2.1.2/src/core\altcp_tcp.c ****     if (conn->recv) {
 237              		.loc 1 106 5 is_stmt 1
 106:C:/Users/stapi/OneDrive/Desktop/GD32VW553/V1_MQTT_OK/GD32VW55X_Wifi_BLE_SDK/GD32VW55x_RELEASE_V1.0.2/MSDK/lwip/lwip-2.1.2/src/core\altcp_tcp.c ****     if (conn->recv) {
 238              		.loc 1 106 5
 106:C:/Users/stapi/OneDrive/Desktop/GD32VW553/V1_MQTT_OK/GD32VW55X_Wifi_BLE_SDK/GD32VW55x_RELEASE_V1.0.2/MSDK/lwip/lwip-2.1.2/src/core\altcp_tcp.c ****     if (conn->recv) {
 239              		.loc 1 106 5
 240 000e D847     		lw	a4,12(a5)
 241 0010 6305B702 		beq	a4,a1,.L27
 106:C:/Users/stapi/OneDrive/Desktop/GD32VW553/V1_MQTT_OK/GD32VW55X_Wifi_BLE_SDK/GD32VW55x_RELEASE_V1.0.2/MSDK/lwip/lwip-2.1.2/src/core\altcp_tcp.c ****     if (conn->recv) {
 242              		.loc 1 106 5 discriminator 1
 106:C:/Users/stapi/OneDrive/Desktop/GD32VW553/V1_MQTT_OK/GD32VW55X_Wifi_BLE_SDK/GD32VW55x_RELEASE_V1.0.2/MSDK/lwip/lwip-2.1.2/src/core\altcp_tcp.c ****     if (conn->recv) {
 243              		.loc 1 106 5 discriminator 1
 244 0014 B7060000 		lui	a3,%hi(.LC0)
 245              	.LVL25:
 246 0018 B7050000 		lui	a1,%hi(.LC1)
 247              	.LVL26:
 248 001c 37050000 		lui	a0,%hi(.LC2)
 249 0020 93860600 		addi	a3,a3,%lo(.LC0)
 250 0024 1306A006 		li	a2,106
 251              	.LVL27:
 252 0028 93850500 		addi	a1,a1,%lo(.LC1)
 253 002c 13050500 		addi	a0,a0,%lo(.LC2)
 254 0030 97000000 		call	printf
 254      E7800000 
 255              	.LVL28:
 256              	.L28:
 106:C:/Users/stapi/OneDrive/Desktop/GD32VW553/V1_MQTT_OK/GD32VW55X_Wifi_BLE_SDK/GD32VW55x_RELEASE_V1.0.2/MSDK/lwip/lwip-2.1.2/src/core\altcp_tcp.c ****     if (conn->recv) {
 257              		.loc 1 106 5 discriminator 1
 106:C:/Users/stapi/OneDrive/Desktop/GD32VW553/V1_MQTT_OK/GD32VW55X_Wifi_BLE_SDK/GD32VW55x_RELEASE_V1.0.2/MSDK/lwip/lwip-2.1.2/src/core\altcp_tcp.c ****     if (conn->recv) {
 258              		.loc 1 106 5 discriminator 1
 106:C:/Users/stapi/OneDrive/Desktop/GD32VW553/V1_MQTT_OK/GD32VW55X_Wifi_BLE_SDK/GD32VW55x_RELEASE_V1.0.2/MSDK/lwip/lwip-2.1.2/src/core\altcp_tcp.c ****     if (conn->recv) {
 259              		.loc 1 106 5 discriminator 1
 260 0038 01A0     		j	.L28
 261              	.LVL29:
 262              	.L27:
 106:C:/Users/stapi/OneDrive/Desktop/GD32VW553/V1_MQTT_OK/GD32VW55X_Wifi_BLE_SDK/GD32VW55x_RELEASE_V1.0.2/MSDK/lwip/lwip-2.1.2/src/core\altcp_tcp.c ****     if (conn->recv) {
 263              		.loc 1 106 5 discriminator 2
 106:C:/Users/stapi/OneDrive/Desktop/GD32VW553/V1_MQTT_OK/GD32VW55X_Wifi_BLE_SDK/GD32VW55x_RELEASE_V1.0.2/MSDK/lwip/lwip-2.1.2/src/core\altcp_tcp.c ****     if (conn->recv) {
 264              		.loc 1 106 5 discriminator 2
 106:C:/Users/stapi/OneDrive/Desktop/GD32VW553/V1_MQTT_OK/GD32VW55X_Wifi_BLE_SDK/GD32VW55x_RELEASE_V1.0.2/MSDK/lwip/lwip-2.1.2/src/core\altcp_tcp.c ****     if (conn->recv) {
 265              		.loc 1 106 5 discriminator 2
 106:C:/Users/stapi/OneDrive/Desktop/GD32VW553/V1_MQTT_OK/GD32VW55X_Wifi_BLE_SDK/GD32VW55x_RELEASE_V1.0.2/MSDK/lwip/lwip-2.1.2/src/core\altcp_tcp.c ****     if (conn->recv) {
 266              		.loc 1 106 5 discriminator 2
 106:C:/Users/stapi/OneDrive/Desktop/GD32VW553/V1_MQTT_OK/GD32VW55X_Wifi_BLE_SDK/GD32VW55x_RELEASE_V1.0.2/MSDK/lwip/lwip-2.1.2/src/core\altcp_tcp.c ****     if (conn->recv) {
 267              		.loc 1 106 5 discriminator 2
 106:C:/Users/stapi/OneDrive/Desktop/GD32VW553/V1_MQTT_OK/GD32VW55X_Wifi_BLE_SDK/GD32VW55x_RELEASE_V1.0.2/MSDK/lwip/lwip-2.1.2/src/core\altcp_tcp.c ****     if (conn->recv) {
 268              		.loc 1 106 5 discriminator 2
 269 003a D843     		lw	a4,4(a5)
 270 003c 05C7     		beq	a4,zero,.L29
 106:C:/Users/stapi/OneDrive/Desktop/GD32VW553/V1_MQTT_OK/GD32VW55X_Wifi_BLE_SDK/GD32VW55x_RELEASE_V1.0.2/MSDK/lwip/lwip-2.1.2/src/core\altcp_tcp.c ****     if (conn->recv) {
 271              		.loc 1 106 5 discriminator 4
 106:C:/Users/stapi/OneDrive/Desktop/GD32VW553/V1_MQTT_OK/GD32VW55X_Wifi_BLE_SDK/GD32VW55x_RELEASE_V1.0.2/MSDK/lwip/lwip-2.1.2/src/core\altcp_tcp.c ****     if (conn->recv) {
 272              		.loc 1 106 5 discriminator 4
 273 003e B7060000 		lui	a3,%hi(.LC0)
 274              	.LVL30:
 275 0042 B7050000 		lui	a1,%hi(.LC3)
 276              	.LVL31:
 277 0046 37050000 		lui	a0,%hi(.LC2)
 278              	.LVL32:
 279 004a 93860600 		addi	a3,a3,%lo(.LC0)
 280 004e 1306A006 		li	a2,106
 281              	.LVL33:
 282 0052 93850500 		addi	a1,a1,%lo(.LC3)
 283 0056 13050500 		addi	a0,a0,%lo(.LC2)
 284 005a 97000000 		call	printf
 284      E7800000 
 285              	.LVL34:
 286              	.L30:
 106:C:/Users/stapi/OneDrive/Desktop/GD32VW553/V1_MQTT_OK/GD32VW55X_Wifi_BLE_SDK/GD32VW55x_RELEASE_V1.0.2/MSDK/lwip/lwip-2.1.2/src/core\altcp_tcp.c ****     if (conn->recv) {
 287              		.loc 1 106 5 discriminator 2
 106:C:/Users/stapi/OneDrive/Desktop/GD32VW553/V1_MQTT_OK/GD32VW55X_Wifi_BLE_SDK/GD32VW55x_RELEASE_V1.0.2/MSDK/lwip/lwip-2.1.2/src/core\altcp_tcp.c ****     if (conn->recv) {
 288              		.loc 1 106 5 discriminator 2
 106:C:/Users/stapi/OneDrive/Desktop/GD32VW553/V1_MQTT_OK/GD32VW55X_Wifi_BLE_SDK/GD32VW55x_RELEASE_V1.0.2/MSDK/lwip/lwip-2.1.2/src/core\altcp_tcp.c ****     if (conn->recv) {
 289              		.loc 1 106 5 discriminator 2
 290 0062 01A0     		j	.L30
 291              	.LVL35:
 292              	.L29:
 106:C:/Users/stapi/OneDrive/Desktop/GD32VW553/V1_MQTT_OK/GD32VW55X_Wifi_BLE_SDK/GD32VW55x_RELEASE_V1.0.2/MSDK/lwip/lwip-2.1.2/src/core\altcp_tcp.c ****     if (conn->recv) {
 293              		.loc 1 106 5 discriminator 5
 106:C:/Users/stapi/OneDrive/Desktop/GD32VW553/V1_MQTT_OK/GD32VW55X_Wifi_BLE_SDK/GD32VW55x_RELEASE_V1.0.2/MSDK/lwip/lwip-2.1.2/src/core\altcp_tcp.c ****     if (conn->recv) {
 294              		.loc 1 106 5 discriminator 5
 106:C:/Users/stapi/OneDrive/Desktop/GD32VW553/V1_MQTT_OK/GD32VW55X_Wifi_BLE_SDK/GD32VW55x_RELEASE_V1.0.2/MSDK/lwip/lwip-2.1.2/src/core\altcp_tcp.c ****     if (conn->recv) {
 295              		.loc 1 106 5 discriminator 5
 106:C:/Users/stapi/OneDrive/Desktop/GD32VW553/V1_MQTT_OK/GD32VW55X_Wifi_BLE_SDK/GD32VW55x_RELEASE_V1.0.2/MSDK/lwip/lwip-2.1.2/src/core\altcp_tcp.c ****     if (conn->recv) {
 296              		.loc 1 106 5 discriminator 5
 106:C:/Users/stapi/OneDrive/Desktop/GD32VW553/V1_MQTT_OK/GD32VW55X_Wifi_BLE_SDK/GD32VW55x_RELEASE_V1.0.2/MSDK/lwip/lwip-2.1.2/src/core\altcp_tcp.c ****     if (conn->recv) {
 297              		.loc 1 106 5 discriminator 5
 107:C:/Users/stapi/OneDrive/Desktop/GD32VW553/V1_MQTT_OK/GD32VW55X_Wifi_BLE_SDK/GD32VW55x_RELEASE_V1.0.2/MSDK/lwip/lwip-2.1.2/src/core\altcp_tcp.c ****       return conn->recv(conn->arg, conn, p, err);
 298              		.loc 1 107 5 discriminator 5
 107:C:/Users/stapi/OneDrive/Desktop/GD32VW553/V1_MQTT_OK/GD32VW55X_Wifi_BLE_SDK/GD32VW55x_RELEASE_V1.0.2/MSDK/lwip/lwip-2.1.2/src/core\altcp_tcp.c ****       return conn->recv(conn->arg, conn, p, err);
 299              		.loc 1 107 13 is_stmt 0 discriminator 5
 300 0064 984F     		lw	a4,24(a5)
 107:C:/Users/stapi/OneDrive/Desktop/GD32VW553/V1_MQTT_OK/GD32VW55X_Wifi_BLE_SDK/GD32VW55x_RELEASE_V1.0.2/MSDK/lwip/lwip-2.1.2/src/core\altcp_tcp.c ****       return conn->recv(conn->arg, conn, p, err);
 301              		.loc 1 107 8 discriminator 5
 302 0066 11CB     		beq	a4,zero,.L26
 108:C:/Users/stapi/OneDrive/Desktop/GD32VW553/V1_MQTT_OK/GD32VW55X_Wifi_BLE_SDK/GD32VW55x_RELEASE_V1.0.2/MSDK/lwip/lwip-2.1.2/src/core\altcp_tcp.c ****     }
 303              		.loc 1 108 7 is_stmt 1
 108:C:/Users/stapi/OneDrive/Desktop/GD32VW553/V1_MQTT_OK/GD32VW55X_Wifi_BLE_SDK/GD32VW55x_RELEASE_V1.0.2/MSDK/lwip/lwip-2.1.2/src/core\altcp_tcp.c ****     }
 304              		.loc 1 108 14 is_stmt 0
 305 0068 8847     		lw	a0,8(a5)
 306              	.LVL36:
 307 006a BE85     		mv	a1,a5
 308              	.LVL37:
 309 006c 0297     		jalr	a4
 310              	.LVL38:
 311 006e 2A84     		mv	s0,a0
 312              	.L31:
 116:C:/Users/stapi/OneDrive/Desktop/GD32VW553/V1_MQTT_OK/GD32VW55X_Wifi_BLE_SDK/GD32VW55x_RELEASE_V1.0.2/MSDK/lwip/lwip-2.1.2/src/core\altcp_tcp.c **** 
 313              		.loc 1 116 1
 314 0070 2285     		mv	a0,s0
 315 0072 17030000 		tail	__riscv_restore_1
 315      67000300 
 316              		.cfi_remember_state
 317              		.cfi_restore 8
 318              		.cfi_restore 1
 319              		.cfi_def_cfa_offset 0
 320              	.LVL39:
 321              	.L26:
 322              		.cfi_restore_state
 111:C:/Users/stapi/OneDrive/Desktop/GD32VW553/V1_MQTT_OK/GD32VW55X_Wifi_BLE_SDK/GD32VW55x_RELEASE_V1.0.2/MSDK/lwip/lwip-2.1.2/src/core\altcp_tcp.c ****     /* prevent memory leaks */
 323              		.loc 1 111 3 is_stmt 1
 115:C:/Users/stapi/OneDrive/Desktop/GD32VW553/V1_MQTT_OK/GD32VW55X_Wifi_BLE_SDK/GD32VW55x_RELEASE_V1.0.2/MSDK/lwip/lwip-2.1.2/src/core\altcp_tcp.c **** }
 324              		.loc 1 115 10 is_stmt 0
 325 007a 0144     		li	s0,0
 111:C:/Users/stapi/OneDrive/Desktop/GD32VW553/V1_MQTT_OK/GD32VW55X_Wifi_BLE_SDK/GD32VW55x_RELEASE_V1.0.2/MSDK/lwip/lwip-2.1.2/src/core\altcp_tcp.c ****     /* prevent memory leaks */
 326              		.loc 1 111 6
 327 007c 75D9     		beq	a0,zero,.L31
 113:C:/Users/stapi/OneDrive/Desktop/GD32VW553/V1_MQTT_OK/GD32VW55X_Wifi_BLE_SDK/GD32VW55x_RELEASE_V1.0.2/MSDK/lwip/lwip-2.1.2/src/core\altcp_tcp.c ****   }
 328              		.loc 1 113 5 is_stmt 1
 329 007e 97000000 		call	pbuf_free
 329      E7800000 
 330              	.LVL40:
 331 0086 EDB7     		j	.L31
 332              		.cfi_endproc
 333              	.LFE6:
 335              		.section	.text.altcp_tcp_get_tcp_addrinfo,"ax",@progbits
 336              		.align	1
 338              	altcp_tcp_get_tcp_addrinfo:
 339              	.LFB34:
 186:C:/Users/stapi/OneDrive/Desktop/GD32VW553/V1_MQTT_OK/GD32VW55X_Wifi_BLE_SDK/GD32VW55x_RELEASE_V1.0.2/MSDK/lwip/lwip-2.1.2/src/core\altcp_tcp.c **** }
 187:C:/Users/stapi/OneDrive/Desktop/GD32VW553/V1_MQTT_OK/GD32VW55X_Wifi_BLE_SDK/GD32VW55x_RELEASE_V1.0.2/MSDK/lwip/lwip-2.1.2/src/core\altcp_tcp.c **** 
 188:C:/Users/stapi/OneDrive/Desktop/GD32VW553/V1_MQTT_OK/GD32VW55X_Wifi_BLE_SDK/GD32VW55x_RELEASE_V1.0.2/MSDK/lwip/lwip-2.1.2/src/core\altcp_tcp.c **** struct altcp_pcb *
 189:C:/Users/stapi/OneDrive/Desktop/GD32VW553/V1_MQTT_OK/GD32VW55X_Wifi_BLE_SDK/GD32VW55x_RELEASE_V1.0.2/MSDK/lwip/lwip-2.1.2/src/core\altcp_tcp.c **** altcp_tcp_new_ip_type(u8_t ip_type)
 190:C:/Users/stapi/OneDrive/Desktop/GD32VW553/V1_MQTT_OK/GD32VW55X_Wifi_BLE_SDK/GD32VW55x_RELEASE_V1.0.2/MSDK/lwip/lwip-2.1.2/src/core\altcp_tcp.c **** {
 191:C:/Users/stapi/OneDrive/Desktop/GD32VW553/V1_MQTT_OK/GD32VW55X_Wifi_BLE_SDK/GD32VW55x_RELEASE_V1.0.2/MSDK/lwip/lwip-2.1.2/src/core\altcp_tcp.c ****   /* Allocate the tcp pcb first to invoke the priority handling code
 192:C:/Users/stapi/OneDrive/Desktop/GD32VW553/V1_MQTT_OK/GD32VW55X_Wifi_BLE_SDK/GD32VW55x_RELEASE_V1.0.2/MSDK/lwip/lwip-2.1.2/src/core\altcp_tcp.c ****      if we're out of pcbs */
 193:C:/Users/stapi/OneDrive/Desktop/GD32VW553/V1_MQTT_OK/GD32VW55X_Wifi_BLE_SDK/GD32VW55x_RELEASE_V1.0.2/MSDK/lwip/lwip-2.1.2/src/core\altcp_tcp.c ****   struct tcp_pcb *tpcb = tcp_new_ip_type(ip_type);
 194:C:/Users/stapi/OneDrive/Desktop/GD32VW553/V1_MQTT_OK/GD32VW55X_Wifi_BLE_SDK/GD32VW55x_RELEASE_V1.0.2/MSDK/lwip/lwip-2.1.2/src/core\altcp_tcp.c ****   if (tpcb != NULL) {
 195:C:/Users/stapi/OneDrive/Desktop/GD32VW553/V1_MQTT_OK/GD32VW55X_Wifi_BLE_SDK/GD32VW55x_RELEASE_V1.0.2/MSDK/lwip/lwip-2.1.2/src/core\altcp_tcp.c ****     struct altcp_pcb *ret = altcp_alloc();
 196:C:/Users/stapi/OneDrive/Desktop/GD32VW553/V1_MQTT_OK/GD32VW55X_Wifi_BLE_SDK/GD32VW55x_RELEASE_V1.0.2/MSDK/lwip/lwip-2.1.2/src/core\altcp_tcp.c ****     if (ret != NULL) {
 197:C:/Users/stapi/OneDrive/Desktop/GD32VW553/V1_MQTT_OK/GD32VW55X_Wifi_BLE_SDK/GD32VW55x_RELEASE_V1.0.2/MSDK/lwip/lwip-2.1.2/src/core\altcp_tcp.c ****       altcp_tcp_setup(ret, tpcb);
 198:C:/Users/stapi/OneDrive/Desktop/GD32VW553/V1_MQTT_OK/GD32VW55X_Wifi_BLE_SDK/GD32VW55x_RELEASE_V1.0.2/MSDK/lwip/lwip-2.1.2/src/core\altcp_tcp.c ****       return ret;
 199:C:/Users/stapi/OneDrive/Desktop/GD32VW553/V1_MQTT_OK/GD32VW55X_Wifi_BLE_SDK/GD32VW55x_RELEASE_V1.0.2/MSDK/lwip/lwip-2.1.2/src/core\altcp_tcp.c ****     } else {
 200:C:/Users/stapi/OneDrive/Desktop/GD32VW553/V1_MQTT_OK/GD32VW55X_Wifi_BLE_SDK/GD32VW55x_RELEASE_V1.0.2/MSDK/lwip/lwip-2.1.2/src/core\altcp_tcp.c ****       /* altcp_pcb allocation failed -> free the tcp_pcb too */
 201:C:/Users/stapi/OneDrive/Desktop/GD32VW553/V1_MQTT_OK/GD32VW55X_Wifi_BLE_SDK/GD32VW55x_RELEASE_V1.0.2/MSDK/lwip/lwip-2.1.2/src/core\altcp_tcp.c ****       tcp_close(tpcb);
 202:C:/Users/stapi/OneDrive/Desktop/GD32VW553/V1_MQTT_OK/GD32VW55X_Wifi_BLE_SDK/GD32VW55x_RELEASE_V1.0.2/MSDK/lwip/lwip-2.1.2/src/core\altcp_tcp.c ****     }
 203:C:/Users/stapi/OneDrive/Desktop/GD32VW553/V1_MQTT_OK/GD32VW55X_Wifi_BLE_SDK/GD32VW55x_RELEASE_V1.0.2/MSDK/lwip/lwip-2.1.2/src/core\altcp_tcp.c ****   }
 204:C:/Users/stapi/OneDrive/Desktop/GD32VW553/V1_MQTT_OK/GD32VW55X_Wifi_BLE_SDK/GD32VW55x_RELEASE_V1.0.2/MSDK/lwip/lwip-2.1.2/src/core\altcp_tcp.c ****   return NULL;
 205:C:/Users/stapi/OneDrive/Desktop/GD32VW553/V1_MQTT_OK/GD32VW55X_Wifi_BLE_SDK/GD32VW55x_RELEASE_V1.0.2/MSDK/lwip/lwip-2.1.2/src/core\altcp_tcp.c **** }
 206:C:/Users/stapi/OneDrive/Desktop/GD32VW553/V1_MQTT_OK/GD32VW55X_Wifi_BLE_SDK/GD32VW55x_RELEASE_V1.0.2/MSDK/lwip/lwip-2.1.2/src/core\altcp_tcp.c **** 
 207:C:/Users/stapi/OneDrive/Desktop/GD32VW553/V1_MQTT_OK/GD32VW55X_Wifi_BLE_SDK/GD32VW55x_RELEASE_V1.0.2/MSDK/lwip/lwip-2.1.2/src/core\altcp_tcp.c **** /** altcp_tcp allocator function fitting to @ref altcp_allocator_t / @ref altcp_new.
 208:C:/Users/stapi/OneDrive/Desktop/GD32VW553/V1_MQTT_OK/GD32VW55X_Wifi_BLE_SDK/GD32VW55x_RELEASE_V1.0.2/MSDK/lwip/lwip-2.1.2/src/core\altcp_tcp.c **** *
 209:C:/Users/stapi/OneDrive/Desktop/GD32VW553/V1_MQTT_OK/GD32VW55X_Wifi_BLE_SDK/GD32VW55x_RELEASE_V1.0.2/MSDK/lwip/lwip-2.1.2/src/core\altcp_tcp.c **** * arg pointer is not used for TCP.
 210:C:/Users/stapi/OneDrive/Desktop/GD32VW553/V1_MQTT_OK/GD32VW55X_Wifi_BLE_SDK/GD32VW55x_RELEASE_V1.0.2/MSDK/lwip/lwip-2.1.2/src/core\altcp_tcp.c **** */
 211:C:/Users/stapi/OneDrive/Desktop/GD32VW553/V1_MQTT_OK/GD32VW55X_Wifi_BLE_SDK/GD32VW55x_RELEASE_V1.0.2/MSDK/lwip/lwip-2.1.2/src/core\altcp_tcp.c **** struct altcp_pcb *
 212:C:/Users/stapi/OneDrive/Desktop/GD32VW553/V1_MQTT_OK/GD32VW55X_Wifi_BLE_SDK/GD32VW55x_RELEASE_V1.0.2/MSDK/lwip/lwip-2.1.2/src/core\altcp_tcp.c **** altcp_tcp_alloc(void *arg, u8_t ip_type)
 213:C:/Users/stapi/OneDrive/Desktop/GD32VW553/V1_MQTT_OK/GD32VW55X_Wifi_BLE_SDK/GD32VW55x_RELEASE_V1.0.2/MSDK/lwip/lwip-2.1.2/src/core\altcp_tcp.c **** {
 214:C:/Users/stapi/OneDrive/Desktop/GD32VW553/V1_MQTT_OK/GD32VW55X_Wifi_BLE_SDK/GD32VW55x_RELEASE_V1.0.2/MSDK/lwip/lwip-2.1.2/src/core\altcp_tcp.c ****   LWIP_UNUSED_ARG(arg);
 215:C:/Users/stapi/OneDrive/Desktop/GD32VW553/V1_MQTT_OK/GD32VW55X_Wifi_BLE_SDK/GD32VW55x_RELEASE_V1.0.2/MSDK/lwip/lwip-2.1.2/src/core\altcp_tcp.c ****   return altcp_tcp_new_ip_type(ip_type);
 216:C:/Users/stapi/OneDrive/Desktop/GD32VW553/V1_MQTT_OK/GD32VW55X_Wifi_BLE_SDK/GD32VW55x_RELEASE_V1.0.2/MSDK/lwip/lwip-2.1.2/src/core\altcp_tcp.c **** }
 217:C:/Users/stapi/OneDrive/Desktop/GD32VW553/V1_MQTT_OK/GD32VW55X_Wifi_BLE_SDK/GD32VW55x_RELEASE_V1.0.2/MSDK/lwip/lwip-2.1.2/src/core\altcp_tcp.c **** 
 218:C:/Users/stapi/OneDrive/Desktop/GD32VW553/V1_MQTT_OK/GD32VW55X_Wifi_BLE_SDK/GD32VW55x_RELEASE_V1.0.2/MSDK/lwip/lwip-2.1.2/src/core\altcp_tcp.c **** struct altcp_pcb *
 219:C:/Users/stapi/OneDrive/Desktop/GD32VW553/V1_MQTT_OK/GD32VW55X_Wifi_BLE_SDK/GD32VW55x_RELEASE_V1.0.2/MSDK/lwip/lwip-2.1.2/src/core\altcp_tcp.c **** altcp_tcp_wrap(struct tcp_pcb *tpcb)
 220:C:/Users/stapi/OneDrive/Desktop/GD32VW553/V1_MQTT_OK/GD32VW55X_Wifi_BLE_SDK/GD32VW55x_RELEASE_V1.0.2/MSDK/lwip/lwip-2.1.2/src/core\altcp_tcp.c **** {
 221:C:/Users/stapi/OneDrive/Desktop/GD32VW553/V1_MQTT_OK/GD32VW55X_Wifi_BLE_SDK/GD32VW55x_RELEASE_V1.0.2/MSDK/lwip/lwip-2.1.2/src/core\altcp_tcp.c ****   if (tpcb != NULL) {
 222:C:/Users/stapi/OneDrive/Desktop/GD32VW553/V1_MQTT_OK/GD32VW55X_Wifi_BLE_SDK/GD32VW55x_RELEASE_V1.0.2/MSDK/lwip/lwip-2.1.2/src/core\altcp_tcp.c ****     struct altcp_pcb *ret = altcp_alloc();
 223:C:/Users/stapi/OneDrive/Desktop/GD32VW553/V1_MQTT_OK/GD32VW55X_Wifi_BLE_SDK/GD32VW55x_RELEASE_V1.0.2/MSDK/lwip/lwip-2.1.2/src/core\altcp_tcp.c ****     if (ret != NULL) {
 224:C:/Users/stapi/OneDrive/Desktop/GD32VW553/V1_MQTT_OK/GD32VW55X_Wifi_BLE_SDK/GD32VW55x_RELEASE_V1.0.2/MSDK/lwip/lwip-2.1.2/src/core\altcp_tcp.c ****       altcp_tcp_setup(ret, tpcb);
 225:C:/Users/stapi/OneDrive/Desktop/GD32VW553/V1_MQTT_OK/GD32VW55X_Wifi_BLE_SDK/GD32VW55x_RELEASE_V1.0.2/MSDK/lwip/lwip-2.1.2/src/core\altcp_tcp.c ****       return ret;
 226:C:/Users/stapi/OneDrive/Desktop/GD32VW553/V1_MQTT_OK/GD32VW55X_Wifi_BLE_SDK/GD32VW55x_RELEASE_V1.0.2/MSDK/lwip/lwip-2.1.2/src/core\altcp_tcp.c ****     }
 227:C:/Users/stapi/OneDrive/Desktop/GD32VW553/V1_MQTT_OK/GD32VW55X_Wifi_BLE_SDK/GD32VW55x_RELEASE_V1.0.2/MSDK/lwip/lwip-2.1.2/src/core\altcp_tcp.c ****   }
 228:C:/Users/stapi/OneDrive/Desktop/GD32VW553/V1_MQTT_OK/GD32VW55X_Wifi_BLE_SDK/GD32VW55x_RELEASE_V1.0.2/MSDK/lwip/lwip-2.1.2/src/core\altcp_tcp.c ****   return NULL;
 229:C:/Users/stapi/OneDrive/Desktop/GD32VW553/V1_MQTT_OK/GD32VW55X_Wifi_BLE_SDK/GD32VW55x_RELEASE_V1.0.2/MSDK/lwip/lwip-2.1.2/src/core\altcp_tcp.c **** }
 230:C:/Users/stapi/OneDrive/Desktop/GD32VW553/V1_MQTT_OK/GD32VW55X_Wifi_BLE_SDK/GD32VW55x_RELEASE_V1.0.2/MSDK/lwip/lwip-2.1.2/src/core\altcp_tcp.c **** 
 231:C:/Users/stapi/OneDrive/Desktop/GD32VW553/V1_MQTT_OK/GD32VW55X_Wifi_BLE_SDK/GD32VW55x_RELEASE_V1.0.2/MSDK/lwip/lwip-2.1.2/src/core\altcp_tcp.c **** 
 232:C:/Users/stapi/OneDrive/Desktop/GD32VW553/V1_MQTT_OK/GD32VW55X_Wifi_BLE_SDK/GD32VW55x_RELEASE_V1.0.2/MSDK/lwip/lwip-2.1.2/src/core\altcp_tcp.c **** /* "virtual" functions calling into tcp */
 233:C:/Users/stapi/OneDrive/Desktop/GD32VW553/V1_MQTT_OK/GD32VW55X_Wifi_BLE_SDK/GD32VW55x_RELEASE_V1.0.2/MSDK/lwip/lwip-2.1.2/src/core\altcp_tcp.c **** static void
 234:C:/Users/stapi/OneDrive/Desktop/GD32VW553/V1_MQTT_OK/GD32VW55X_Wifi_BLE_SDK/GD32VW55x_RELEASE_V1.0.2/MSDK/lwip/lwip-2.1.2/src/core\altcp_tcp.c **** altcp_tcp_set_poll(struct altcp_pcb *conn, u8_t interval)
 235:C:/Users/stapi/OneDrive/Desktop/GD32VW553/V1_MQTT_OK/GD32VW55X_Wifi_BLE_SDK/GD32VW55x_RELEASE_V1.0.2/MSDK/lwip/lwip-2.1.2/src/core\altcp_tcp.c **** {
 236:C:/Users/stapi/OneDrive/Desktop/GD32VW553/V1_MQTT_OK/GD32VW55X_Wifi_BLE_SDK/GD32VW55x_RELEASE_V1.0.2/MSDK/lwip/lwip-2.1.2/src/core\altcp_tcp.c ****   if (conn != NULL) {
 237:C:/Users/stapi/OneDrive/Desktop/GD32VW553/V1_MQTT_OK/GD32VW55X_Wifi_BLE_SDK/GD32VW55x_RELEASE_V1.0.2/MSDK/lwip/lwip-2.1.2/src/core\altcp_tcp.c ****     struct tcp_pcb *pcb = (struct tcp_pcb *)conn->state;
 238:C:/Users/stapi/OneDrive/Desktop/GD32VW553/V1_MQTT_OK/GD32VW55X_Wifi_BLE_SDK/GD32VW55x_RELEASE_V1.0.2/MSDK/lwip/lwip-2.1.2/src/core\altcp_tcp.c ****     ALTCP_TCP_ASSERT_CONN(conn);
 239:C:/Users/stapi/OneDrive/Desktop/GD32VW553/V1_MQTT_OK/GD32VW55X_Wifi_BLE_SDK/GD32VW55x_RELEASE_V1.0.2/MSDK/lwip/lwip-2.1.2/src/core\altcp_tcp.c ****     tcp_poll(pcb, altcp_tcp_poll, interval);
 240:C:/Users/stapi/OneDrive/Desktop/GD32VW553/V1_MQTT_OK/GD32VW55X_Wifi_BLE_SDK/GD32VW55x_RELEASE_V1.0.2/MSDK/lwip/lwip-2.1.2/src/core\altcp_tcp.c ****   }
 241:C:/Users/stapi/OneDrive/Desktop/GD32VW553/V1_MQTT_OK/GD32VW55X_Wifi_BLE_SDK/GD32VW55x_RELEASE_V1.0.2/MSDK/lwip/lwip-2.1.2/src/core\altcp_tcp.c **** }
 242:C:/Users/stapi/OneDrive/Desktop/GD32VW553/V1_MQTT_OK/GD32VW55X_Wifi_BLE_SDK/GD32VW55x_RELEASE_V1.0.2/MSDK/lwip/lwip-2.1.2/src/core\altcp_tcp.c **** 
 243:C:/Users/stapi/OneDrive/Desktop/GD32VW553/V1_MQTT_OK/GD32VW55X_Wifi_BLE_SDK/GD32VW55x_RELEASE_V1.0.2/MSDK/lwip/lwip-2.1.2/src/core\altcp_tcp.c **** static void
 244:C:/Users/stapi/OneDrive/Desktop/GD32VW553/V1_MQTT_OK/GD32VW55X_Wifi_BLE_SDK/GD32VW55x_RELEASE_V1.0.2/MSDK/lwip/lwip-2.1.2/src/core\altcp_tcp.c **** altcp_tcp_recved(struct altcp_pcb *conn, u16_t len)
 245:C:/Users/stapi/OneDrive/Desktop/GD32VW553/V1_MQTT_OK/GD32VW55X_Wifi_BLE_SDK/GD32VW55x_RELEASE_V1.0.2/MSDK/lwip/lwip-2.1.2/src/core\altcp_tcp.c **** {
 246:C:/Users/stapi/OneDrive/Desktop/GD32VW553/V1_MQTT_OK/GD32VW55X_Wifi_BLE_SDK/GD32VW55x_RELEASE_V1.0.2/MSDK/lwip/lwip-2.1.2/src/core\altcp_tcp.c ****   if (conn != NULL) {
 247:C:/Users/stapi/OneDrive/Desktop/GD32VW553/V1_MQTT_OK/GD32VW55X_Wifi_BLE_SDK/GD32VW55x_RELEASE_V1.0.2/MSDK/lwip/lwip-2.1.2/src/core\altcp_tcp.c ****     struct tcp_pcb *pcb = (struct tcp_pcb *)conn->state;
 248:C:/Users/stapi/OneDrive/Desktop/GD32VW553/V1_MQTT_OK/GD32VW55X_Wifi_BLE_SDK/GD32VW55x_RELEASE_V1.0.2/MSDK/lwip/lwip-2.1.2/src/core\altcp_tcp.c ****     ALTCP_TCP_ASSERT_CONN(conn);
 249:C:/Users/stapi/OneDrive/Desktop/GD32VW553/V1_MQTT_OK/GD32VW55X_Wifi_BLE_SDK/GD32VW55x_RELEASE_V1.0.2/MSDK/lwip/lwip-2.1.2/src/core\altcp_tcp.c ****     tcp_recved(pcb, len);
 250:C:/Users/stapi/OneDrive/Desktop/GD32VW553/V1_MQTT_OK/GD32VW55X_Wifi_BLE_SDK/GD32VW55x_RELEASE_V1.0.2/MSDK/lwip/lwip-2.1.2/src/core\altcp_tcp.c ****   }
 251:C:/Users/stapi/OneDrive/Desktop/GD32VW553/V1_MQTT_OK/GD32VW55X_Wifi_BLE_SDK/GD32VW55x_RELEASE_V1.0.2/MSDK/lwip/lwip-2.1.2/src/core\altcp_tcp.c **** }
 252:C:/Users/stapi/OneDrive/Desktop/GD32VW553/V1_MQTT_OK/GD32VW55X_Wifi_BLE_SDK/GD32VW55x_RELEASE_V1.0.2/MSDK/lwip/lwip-2.1.2/src/core\altcp_tcp.c **** 
 253:C:/Users/stapi/OneDrive/Desktop/GD32VW553/V1_MQTT_OK/GD32VW55X_Wifi_BLE_SDK/GD32VW55x_RELEASE_V1.0.2/MSDK/lwip/lwip-2.1.2/src/core\altcp_tcp.c **** static err_t
 254:C:/Users/stapi/OneDrive/Desktop/GD32VW553/V1_MQTT_OK/GD32VW55X_Wifi_BLE_SDK/GD32VW55x_RELEASE_V1.0.2/MSDK/lwip/lwip-2.1.2/src/core\altcp_tcp.c **** altcp_tcp_bind(struct altcp_pcb *conn, const ip_addr_t *ipaddr, u16_t port)
 255:C:/Users/stapi/OneDrive/Desktop/GD32VW553/V1_MQTT_OK/GD32VW55X_Wifi_BLE_SDK/GD32VW55x_RELEASE_V1.0.2/MSDK/lwip/lwip-2.1.2/src/core\altcp_tcp.c **** {
 256:C:/Users/stapi/OneDrive/Desktop/GD32VW553/V1_MQTT_OK/GD32VW55X_Wifi_BLE_SDK/GD32VW55x_RELEASE_V1.0.2/MSDK/lwip/lwip-2.1.2/src/core\altcp_tcp.c ****   struct tcp_pcb *pcb;
 257:C:/Users/stapi/OneDrive/Desktop/GD32VW553/V1_MQTT_OK/GD32VW55X_Wifi_BLE_SDK/GD32VW55x_RELEASE_V1.0.2/MSDK/lwip/lwip-2.1.2/src/core\altcp_tcp.c ****   if (conn == NULL) {
 258:C:/Users/stapi/OneDrive/Desktop/GD32VW553/V1_MQTT_OK/GD32VW55X_Wifi_BLE_SDK/GD32VW55x_RELEASE_V1.0.2/MSDK/lwip/lwip-2.1.2/src/core\altcp_tcp.c ****     return ERR_VAL;
 259:C:/Users/stapi/OneDrive/Desktop/GD32VW553/V1_MQTT_OK/GD32VW55X_Wifi_BLE_SDK/GD32VW55x_RELEASE_V1.0.2/MSDK/lwip/lwip-2.1.2/src/core\altcp_tcp.c ****   }
 260:C:/Users/stapi/OneDrive/Desktop/GD32VW553/V1_MQTT_OK/GD32VW55X_Wifi_BLE_SDK/GD32VW55x_RELEASE_V1.0.2/MSDK/lwip/lwip-2.1.2/src/core\altcp_tcp.c ****   ALTCP_TCP_ASSERT_CONN(conn);
 261:C:/Users/stapi/OneDrive/Desktop/GD32VW553/V1_MQTT_OK/GD32VW55X_Wifi_BLE_SDK/GD32VW55x_RELEASE_V1.0.2/MSDK/lwip/lwip-2.1.2/src/core\altcp_tcp.c ****   pcb = (struct tcp_pcb *)conn->state;
 262:C:/Users/stapi/OneDrive/Desktop/GD32VW553/V1_MQTT_OK/GD32VW55X_Wifi_BLE_SDK/GD32VW55x_RELEASE_V1.0.2/MSDK/lwip/lwip-2.1.2/src/core\altcp_tcp.c ****   return tcp_bind(pcb, ipaddr, port);
 263:C:/Users/stapi/OneDrive/Desktop/GD32VW553/V1_MQTT_OK/GD32VW55X_Wifi_BLE_SDK/GD32VW55x_RELEASE_V1.0.2/MSDK/lwip/lwip-2.1.2/src/core\altcp_tcp.c **** }
 264:C:/Users/stapi/OneDrive/Desktop/GD32VW553/V1_MQTT_OK/GD32VW55X_Wifi_BLE_SDK/GD32VW55x_RELEASE_V1.0.2/MSDK/lwip/lwip-2.1.2/src/core\altcp_tcp.c **** 
 265:C:/Users/stapi/OneDrive/Desktop/GD32VW553/V1_MQTT_OK/GD32VW55X_Wifi_BLE_SDK/GD32VW55x_RELEASE_V1.0.2/MSDK/lwip/lwip-2.1.2/src/core\altcp_tcp.c **** static err_t
 266:C:/Users/stapi/OneDrive/Desktop/GD32VW553/V1_MQTT_OK/GD32VW55X_Wifi_BLE_SDK/GD32VW55x_RELEASE_V1.0.2/MSDK/lwip/lwip-2.1.2/src/core\altcp_tcp.c **** altcp_tcp_connect(struct altcp_pcb *conn, const ip_addr_t *ipaddr, u16_t port, altcp_connected_fn c
 267:C:/Users/stapi/OneDrive/Desktop/GD32VW553/V1_MQTT_OK/GD32VW55X_Wifi_BLE_SDK/GD32VW55x_RELEASE_V1.0.2/MSDK/lwip/lwip-2.1.2/src/core\altcp_tcp.c **** {
 268:C:/Users/stapi/OneDrive/Desktop/GD32VW553/V1_MQTT_OK/GD32VW55X_Wifi_BLE_SDK/GD32VW55x_RELEASE_V1.0.2/MSDK/lwip/lwip-2.1.2/src/core\altcp_tcp.c ****   struct tcp_pcb *pcb;
 269:C:/Users/stapi/OneDrive/Desktop/GD32VW553/V1_MQTT_OK/GD32VW55X_Wifi_BLE_SDK/GD32VW55x_RELEASE_V1.0.2/MSDK/lwip/lwip-2.1.2/src/core\altcp_tcp.c ****   if (conn == NULL) {
 270:C:/Users/stapi/OneDrive/Desktop/GD32VW553/V1_MQTT_OK/GD32VW55X_Wifi_BLE_SDK/GD32VW55x_RELEASE_V1.0.2/MSDK/lwip/lwip-2.1.2/src/core\altcp_tcp.c ****     return ERR_VAL;
 271:C:/Users/stapi/OneDrive/Desktop/GD32VW553/V1_MQTT_OK/GD32VW55X_Wifi_BLE_SDK/GD32VW55x_RELEASE_V1.0.2/MSDK/lwip/lwip-2.1.2/src/core\altcp_tcp.c ****   }
 272:C:/Users/stapi/OneDrive/Desktop/GD32VW553/V1_MQTT_OK/GD32VW55X_Wifi_BLE_SDK/GD32VW55x_RELEASE_V1.0.2/MSDK/lwip/lwip-2.1.2/src/core\altcp_tcp.c ****   ALTCP_TCP_ASSERT_CONN(conn);
 273:C:/Users/stapi/OneDrive/Desktop/GD32VW553/V1_MQTT_OK/GD32VW55X_Wifi_BLE_SDK/GD32VW55x_RELEASE_V1.0.2/MSDK/lwip/lwip-2.1.2/src/core\altcp_tcp.c ****   conn->connected = connected;
 274:C:/Users/stapi/OneDrive/Desktop/GD32VW553/V1_MQTT_OK/GD32VW55X_Wifi_BLE_SDK/GD32VW55x_RELEASE_V1.0.2/MSDK/lwip/lwip-2.1.2/src/core\altcp_tcp.c ****   pcb = (struct tcp_pcb *)conn->state;
 275:C:/Users/stapi/OneDrive/Desktop/GD32VW553/V1_MQTT_OK/GD32VW55X_Wifi_BLE_SDK/GD32VW55x_RELEASE_V1.0.2/MSDK/lwip/lwip-2.1.2/src/core\altcp_tcp.c ****   return tcp_connect(pcb, ipaddr, port, altcp_tcp_connected);
 276:C:/Users/stapi/OneDrive/Desktop/GD32VW553/V1_MQTT_OK/GD32VW55X_Wifi_BLE_SDK/GD32VW55x_RELEASE_V1.0.2/MSDK/lwip/lwip-2.1.2/src/core\altcp_tcp.c **** }
 277:C:/Users/stapi/OneDrive/Desktop/GD32VW553/V1_MQTT_OK/GD32VW55X_Wifi_BLE_SDK/GD32VW55x_RELEASE_V1.0.2/MSDK/lwip/lwip-2.1.2/src/core\altcp_tcp.c **** 
 278:C:/Users/stapi/OneDrive/Desktop/GD32VW553/V1_MQTT_OK/GD32VW55X_Wifi_BLE_SDK/GD32VW55x_RELEASE_V1.0.2/MSDK/lwip/lwip-2.1.2/src/core\altcp_tcp.c **** static struct altcp_pcb *
 279:C:/Users/stapi/OneDrive/Desktop/GD32VW553/V1_MQTT_OK/GD32VW55X_Wifi_BLE_SDK/GD32VW55x_RELEASE_V1.0.2/MSDK/lwip/lwip-2.1.2/src/core\altcp_tcp.c **** altcp_tcp_listen(struct altcp_pcb *conn, u8_t backlog, err_t *err)
 280:C:/Users/stapi/OneDrive/Desktop/GD32VW553/V1_MQTT_OK/GD32VW55X_Wifi_BLE_SDK/GD32VW55x_RELEASE_V1.0.2/MSDK/lwip/lwip-2.1.2/src/core\altcp_tcp.c **** {
 281:C:/Users/stapi/OneDrive/Desktop/GD32VW553/V1_MQTT_OK/GD32VW55X_Wifi_BLE_SDK/GD32VW55x_RELEASE_V1.0.2/MSDK/lwip/lwip-2.1.2/src/core\altcp_tcp.c ****   struct tcp_pcb *pcb;
 282:C:/Users/stapi/OneDrive/Desktop/GD32VW553/V1_MQTT_OK/GD32VW55X_Wifi_BLE_SDK/GD32VW55x_RELEASE_V1.0.2/MSDK/lwip/lwip-2.1.2/src/core\altcp_tcp.c ****   struct tcp_pcb *lpcb;
 283:C:/Users/stapi/OneDrive/Desktop/GD32VW553/V1_MQTT_OK/GD32VW55X_Wifi_BLE_SDK/GD32VW55x_RELEASE_V1.0.2/MSDK/lwip/lwip-2.1.2/src/core\altcp_tcp.c ****   if (conn == NULL) {
 284:C:/Users/stapi/OneDrive/Desktop/GD32VW553/V1_MQTT_OK/GD32VW55X_Wifi_BLE_SDK/GD32VW55x_RELEASE_V1.0.2/MSDK/lwip/lwip-2.1.2/src/core\altcp_tcp.c ****     return NULL;
 285:C:/Users/stapi/OneDrive/Desktop/GD32VW553/V1_MQTT_OK/GD32VW55X_Wifi_BLE_SDK/GD32VW55x_RELEASE_V1.0.2/MSDK/lwip/lwip-2.1.2/src/core\altcp_tcp.c ****   }
 286:C:/Users/stapi/OneDrive/Desktop/GD32VW553/V1_MQTT_OK/GD32VW55X_Wifi_BLE_SDK/GD32VW55x_RELEASE_V1.0.2/MSDK/lwip/lwip-2.1.2/src/core\altcp_tcp.c ****   ALTCP_TCP_ASSERT_CONN(conn);
 287:C:/Users/stapi/OneDrive/Desktop/GD32VW553/V1_MQTT_OK/GD32VW55X_Wifi_BLE_SDK/GD32VW55x_RELEASE_V1.0.2/MSDK/lwip/lwip-2.1.2/src/core\altcp_tcp.c ****   pcb = (struct tcp_pcb *)conn->state;
 288:C:/Users/stapi/OneDrive/Desktop/GD32VW553/V1_MQTT_OK/GD32VW55X_Wifi_BLE_SDK/GD32VW55x_RELEASE_V1.0.2/MSDK/lwip/lwip-2.1.2/src/core\altcp_tcp.c ****   lpcb = tcp_listen_with_backlog_and_err(pcb, backlog, err);
 289:C:/Users/stapi/OneDrive/Desktop/GD32VW553/V1_MQTT_OK/GD32VW55X_Wifi_BLE_SDK/GD32VW55x_RELEASE_V1.0.2/MSDK/lwip/lwip-2.1.2/src/core\altcp_tcp.c ****   if (lpcb != NULL) {
 290:C:/Users/stapi/OneDrive/Desktop/GD32VW553/V1_MQTT_OK/GD32VW55X_Wifi_BLE_SDK/GD32VW55x_RELEASE_V1.0.2/MSDK/lwip/lwip-2.1.2/src/core\altcp_tcp.c ****     conn->state = lpcb;
 291:C:/Users/stapi/OneDrive/Desktop/GD32VW553/V1_MQTT_OK/GD32VW55X_Wifi_BLE_SDK/GD32VW55x_RELEASE_V1.0.2/MSDK/lwip/lwip-2.1.2/src/core\altcp_tcp.c ****     tcp_accept(lpcb, altcp_tcp_accept);
 292:C:/Users/stapi/OneDrive/Desktop/GD32VW553/V1_MQTT_OK/GD32VW55X_Wifi_BLE_SDK/GD32VW55x_RELEASE_V1.0.2/MSDK/lwip/lwip-2.1.2/src/core\altcp_tcp.c ****     return conn;
 293:C:/Users/stapi/OneDrive/Desktop/GD32VW553/V1_MQTT_OK/GD32VW55X_Wifi_BLE_SDK/GD32VW55x_RELEASE_V1.0.2/MSDK/lwip/lwip-2.1.2/src/core\altcp_tcp.c ****   }
 294:C:/Users/stapi/OneDrive/Desktop/GD32VW553/V1_MQTT_OK/GD32VW55X_Wifi_BLE_SDK/GD32VW55x_RELEASE_V1.0.2/MSDK/lwip/lwip-2.1.2/src/core\altcp_tcp.c ****   return NULL;
 295:C:/Users/stapi/OneDrive/Desktop/GD32VW553/V1_MQTT_OK/GD32VW55X_Wifi_BLE_SDK/GD32VW55x_RELEASE_V1.0.2/MSDK/lwip/lwip-2.1.2/src/core\altcp_tcp.c **** }
 296:C:/Users/stapi/OneDrive/Desktop/GD32VW553/V1_MQTT_OK/GD32VW55X_Wifi_BLE_SDK/GD32VW55x_RELEASE_V1.0.2/MSDK/lwip/lwip-2.1.2/src/core\altcp_tcp.c **** 
 297:C:/Users/stapi/OneDrive/Desktop/GD32VW553/V1_MQTT_OK/GD32VW55X_Wifi_BLE_SDK/GD32VW55x_RELEASE_V1.0.2/MSDK/lwip/lwip-2.1.2/src/core\altcp_tcp.c **** static void
 298:C:/Users/stapi/OneDrive/Desktop/GD32VW553/V1_MQTT_OK/GD32VW55X_Wifi_BLE_SDK/GD32VW55x_RELEASE_V1.0.2/MSDK/lwip/lwip-2.1.2/src/core\altcp_tcp.c **** altcp_tcp_abort(struct altcp_pcb *conn)
 299:C:/Users/stapi/OneDrive/Desktop/GD32VW553/V1_MQTT_OK/GD32VW55X_Wifi_BLE_SDK/GD32VW55x_RELEASE_V1.0.2/MSDK/lwip/lwip-2.1.2/src/core\altcp_tcp.c **** {
 300:C:/Users/stapi/OneDrive/Desktop/GD32VW553/V1_MQTT_OK/GD32VW55X_Wifi_BLE_SDK/GD32VW55x_RELEASE_V1.0.2/MSDK/lwip/lwip-2.1.2/src/core\altcp_tcp.c ****   if (conn != NULL) {
 301:C:/Users/stapi/OneDrive/Desktop/GD32VW553/V1_MQTT_OK/GD32VW55X_Wifi_BLE_SDK/GD32VW55x_RELEASE_V1.0.2/MSDK/lwip/lwip-2.1.2/src/core\altcp_tcp.c ****     struct tcp_pcb *pcb = (struct tcp_pcb *)conn->state;
 302:C:/Users/stapi/OneDrive/Desktop/GD32VW553/V1_MQTT_OK/GD32VW55X_Wifi_BLE_SDK/GD32VW55x_RELEASE_V1.0.2/MSDK/lwip/lwip-2.1.2/src/core\altcp_tcp.c ****     ALTCP_TCP_ASSERT_CONN(conn);
 303:C:/Users/stapi/OneDrive/Desktop/GD32VW553/V1_MQTT_OK/GD32VW55X_Wifi_BLE_SDK/GD32VW55x_RELEASE_V1.0.2/MSDK/lwip/lwip-2.1.2/src/core\altcp_tcp.c ****     if (pcb) {
 304:C:/Users/stapi/OneDrive/Desktop/GD32VW553/V1_MQTT_OK/GD32VW55X_Wifi_BLE_SDK/GD32VW55x_RELEASE_V1.0.2/MSDK/lwip/lwip-2.1.2/src/core\altcp_tcp.c ****       tcp_abort(pcb);
 305:C:/Users/stapi/OneDrive/Desktop/GD32VW553/V1_MQTT_OK/GD32VW55X_Wifi_BLE_SDK/GD32VW55x_RELEASE_V1.0.2/MSDK/lwip/lwip-2.1.2/src/core\altcp_tcp.c ****     }
 306:C:/Users/stapi/OneDrive/Desktop/GD32VW553/V1_MQTT_OK/GD32VW55X_Wifi_BLE_SDK/GD32VW55x_RELEASE_V1.0.2/MSDK/lwip/lwip-2.1.2/src/core\altcp_tcp.c ****   }
 307:C:/Users/stapi/OneDrive/Desktop/GD32VW553/V1_MQTT_OK/GD32VW55X_Wifi_BLE_SDK/GD32VW55x_RELEASE_V1.0.2/MSDK/lwip/lwip-2.1.2/src/core\altcp_tcp.c **** }
 308:C:/Users/stapi/OneDrive/Desktop/GD32VW553/V1_MQTT_OK/GD32VW55X_Wifi_BLE_SDK/GD32VW55x_RELEASE_V1.0.2/MSDK/lwip/lwip-2.1.2/src/core\altcp_tcp.c **** 
 309:C:/Users/stapi/OneDrive/Desktop/GD32VW553/V1_MQTT_OK/GD32VW55X_Wifi_BLE_SDK/GD32VW55x_RELEASE_V1.0.2/MSDK/lwip/lwip-2.1.2/src/core\altcp_tcp.c **** static err_t
 310:C:/Users/stapi/OneDrive/Desktop/GD32VW553/V1_MQTT_OK/GD32VW55X_Wifi_BLE_SDK/GD32VW55x_RELEASE_V1.0.2/MSDK/lwip/lwip-2.1.2/src/core\altcp_tcp.c **** altcp_tcp_close(struct altcp_pcb *conn)
 311:C:/Users/stapi/OneDrive/Desktop/GD32VW553/V1_MQTT_OK/GD32VW55X_Wifi_BLE_SDK/GD32VW55x_RELEASE_V1.0.2/MSDK/lwip/lwip-2.1.2/src/core\altcp_tcp.c **** {
 312:C:/Users/stapi/OneDrive/Desktop/GD32VW553/V1_MQTT_OK/GD32VW55X_Wifi_BLE_SDK/GD32VW55x_RELEASE_V1.0.2/MSDK/lwip/lwip-2.1.2/src/core\altcp_tcp.c ****   struct tcp_pcb *pcb;
 313:C:/Users/stapi/OneDrive/Desktop/GD32VW553/V1_MQTT_OK/GD32VW55X_Wifi_BLE_SDK/GD32VW55x_RELEASE_V1.0.2/MSDK/lwip/lwip-2.1.2/src/core\altcp_tcp.c ****   if (conn == NULL) {
 314:C:/Users/stapi/OneDrive/Desktop/GD32VW553/V1_MQTT_OK/GD32VW55X_Wifi_BLE_SDK/GD32VW55x_RELEASE_V1.0.2/MSDK/lwip/lwip-2.1.2/src/core\altcp_tcp.c ****     return ERR_VAL;
 315:C:/Users/stapi/OneDrive/Desktop/GD32VW553/V1_MQTT_OK/GD32VW55X_Wifi_BLE_SDK/GD32VW55x_RELEASE_V1.0.2/MSDK/lwip/lwip-2.1.2/src/core\altcp_tcp.c ****   }
 316:C:/Users/stapi/OneDrive/Desktop/GD32VW553/V1_MQTT_OK/GD32VW55X_Wifi_BLE_SDK/GD32VW55x_RELEASE_V1.0.2/MSDK/lwip/lwip-2.1.2/src/core\altcp_tcp.c ****   ALTCP_TCP_ASSERT_CONN(conn);
 317:C:/Users/stapi/OneDrive/Desktop/GD32VW553/V1_MQTT_OK/GD32VW55X_Wifi_BLE_SDK/GD32VW55x_RELEASE_V1.0.2/MSDK/lwip/lwip-2.1.2/src/core\altcp_tcp.c ****   pcb = (struct tcp_pcb *)conn->state;
 318:C:/Users/stapi/OneDrive/Desktop/GD32VW553/V1_MQTT_OK/GD32VW55X_Wifi_BLE_SDK/GD32VW55x_RELEASE_V1.0.2/MSDK/lwip/lwip-2.1.2/src/core\altcp_tcp.c ****   if (pcb) {
 319:C:/Users/stapi/OneDrive/Desktop/GD32VW553/V1_MQTT_OK/GD32VW55X_Wifi_BLE_SDK/GD32VW55x_RELEASE_V1.0.2/MSDK/lwip/lwip-2.1.2/src/core\altcp_tcp.c ****     err_t err;
 320:C:/Users/stapi/OneDrive/Desktop/GD32VW553/V1_MQTT_OK/GD32VW55X_Wifi_BLE_SDK/GD32VW55x_RELEASE_V1.0.2/MSDK/lwip/lwip-2.1.2/src/core\altcp_tcp.c ****     tcp_poll_fn oldpoll = pcb->poll;
 321:C:/Users/stapi/OneDrive/Desktop/GD32VW553/V1_MQTT_OK/GD32VW55X_Wifi_BLE_SDK/GD32VW55x_RELEASE_V1.0.2/MSDK/lwip/lwip-2.1.2/src/core\altcp_tcp.c ****     altcp_tcp_remove_callbacks(pcb);
 322:C:/Users/stapi/OneDrive/Desktop/GD32VW553/V1_MQTT_OK/GD32VW55X_Wifi_BLE_SDK/GD32VW55x_RELEASE_V1.0.2/MSDK/lwip/lwip-2.1.2/src/core\altcp_tcp.c ****     err = tcp_close(pcb);
 323:C:/Users/stapi/OneDrive/Desktop/GD32VW553/V1_MQTT_OK/GD32VW55X_Wifi_BLE_SDK/GD32VW55x_RELEASE_V1.0.2/MSDK/lwip/lwip-2.1.2/src/core\altcp_tcp.c ****     if (err != ERR_OK) {
 324:C:/Users/stapi/OneDrive/Desktop/GD32VW553/V1_MQTT_OK/GD32VW55X_Wifi_BLE_SDK/GD32VW55x_RELEASE_V1.0.2/MSDK/lwip/lwip-2.1.2/src/core\altcp_tcp.c ****       /* not closed, set up all callbacks again */
 325:C:/Users/stapi/OneDrive/Desktop/GD32VW553/V1_MQTT_OK/GD32VW55X_Wifi_BLE_SDK/GD32VW55x_RELEASE_V1.0.2/MSDK/lwip/lwip-2.1.2/src/core\altcp_tcp.c ****       altcp_tcp_setup_callbacks(conn, pcb);
 326:C:/Users/stapi/OneDrive/Desktop/GD32VW553/V1_MQTT_OK/GD32VW55X_Wifi_BLE_SDK/GD32VW55x_RELEASE_V1.0.2/MSDK/lwip/lwip-2.1.2/src/core\altcp_tcp.c ****       /* poll callback is not included in the above */
 327:C:/Users/stapi/OneDrive/Desktop/GD32VW553/V1_MQTT_OK/GD32VW55X_Wifi_BLE_SDK/GD32VW55x_RELEASE_V1.0.2/MSDK/lwip/lwip-2.1.2/src/core\altcp_tcp.c ****       tcp_poll(pcb, oldpoll, pcb->pollinterval);
 328:C:/Users/stapi/OneDrive/Desktop/GD32VW553/V1_MQTT_OK/GD32VW55X_Wifi_BLE_SDK/GD32VW55x_RELEASE_V1.0.2/MSDK/lwip/lwip-2.1.2/src/core\altcp_tcp.c ****       return err;
 329:C:/Users/stapi/OneDrive/Desktop/GD32VW553/V1_MQTT_OK/GD32VW55X_Wifi_BLE_SDK/GD32VW55x_RELEASE_V1.0.2/MSDK/lwip/lwip-2.1.2/src/core\altcp_tcp.c ****     }
 330:C:/Users/stapi/OneDrive/Desktop/GD32VW553/V1_MQTT_OK/GD32VW55X_Wifi_BLE_SDK/GD32VW55x_RELEASE_V1.0.2/MSDK/lwip/lwip-2.1.2/src/core\altcp_tcp.c ****     conn->state = NULL; /* unsafe to reference pcb after tcp_close(). */
 331:C:/Users/stapi/OneDrive/Desktop/GD32VW553/V1_MQTT_OK/GD32VW55X_Wifi_BLE_SDK/GD32VW55x_RELEASE_V1.0.2/MSDK/lwip/lwip-2.1.2/src/core\altcp_tcp.c ****   }
 332:C:/Users/stapi/OneDrive/Desktop/GD32VW553/V1_MQTT_OK/GD32VW55X_Wifi_BLE_SDK/GD32VW55x_RELEASE_V1.0.2/MSDK/lwip/lwip-2.1.2/src/core\altcp_tcp.c ****   altcp_free(conn);
 333:C:/Users/stapi/OneDrive/Desktop/GD32VW553/V1_MQTT_OK/GD32VW55X_Wifi_BLE_SDK/GD32VW55x_RELEASE_V1.0.2/MSDK/lwip/lwip-2.1.2/src/core\altcp_tcp.c ****   return ERR_OK;
 334:C:/Users/stapi/OneDrive/Desktop/GD32VW553/V1_MQTT_OK/GD32VW55X_Wifi_BLE_SDK/GD32VW55x_RELEASE_V1.0.2/MSDK/lwip/lwip-2.1.2/src/core\altcp_tcp.c **** }
 335:C:/Users/stapi/OneDrive/Desktop/GD32VW553/V1_MQTT_OK/GD32VW55X_Wifi_BLE_SDK/GD32VW55x_RELEASE_V1.0.2/MSDK/lwip/lwip-2.1.2/src/core\altcp_tcp.c **** 
 336:C:/Users/stapi/OneDrive/Desktop/GD32VW553/V1_MQTT_OK/GD32VW55X_Wifi_BLE_SDK/GD32VW55x_RELEASE_V1.0.2/MSDK/lwip/lwip-2.1.2/src/core\altcp_tcp.c **** static err_t
 337:C:/Users/stapi/OneDrive/Desktop/GD32VW553/V1_MQTT_OK/GD32VW55X_Wifi_BLE_SDK/GD32VW55x_RELEASE_V1.0.2/MSDK/lwip/lwip-2.1.2/src/core\altcp_tcp.c **** altcp_tcp_shutdown(struct altcp_pcb *conn, int shut_rx, int shut_tx)
 338:C:/Users/stapi/OneDrive/Desktop/GD32VW553/V1_MQTT_OK/GD32VW55X_Wifi_BLE_SDK/GD32VW55x_RELEASE_V1.0.2/MSDK/lwip/lwip-2.1.2/src/core\altcp_tcp.c **** {
 339:C:/Users/stapi/OneDrive/Desktop/GD32VW553/V1_MQTT_OK/GD32VW55X_Wifi_BLE_SDK/GD32VW55x_RELEASE_V1.0.2/MSDK/lwip/lwip-2.1.2/src/core\altcp_tcp.c ****   struct tcp_pcb *pcb;
 340:C:/Users/stapi/OneDrive/Desktop/GD32VW553/V1_MQTT_OK/GD32VW55X_Wifi_BLE_SDK/GD32VW55x_RELEASE_V1.0.2/MSDK/lwip/lwip-2.1.2/src/core\altcp_tcp.c ****   if (conn == NULL) {
 341:C:/Users/stapi/OneDrive/Desktop/GD32VW553/V1_MQTT_OK/GD32VW55X_Wifi_BLE_SDK/GD32VW55x_RELEASE_V1.0.2/MSDK/lwip/lwip-2.1.2/src/core\altcp_tcp.c ****     return ERR_VAL;
 342:C:/Users/stapi/OneDrive/Desktop/GD32VW553/V1_MQTT_OK/GD32VW55X_Wifi_BLE_SDK/GD32VW55x_RELEASE_V1.0.2/MSDK/lwip/lwip-2.1.2/src/core\altcp_tcp.c ****   }
 343:C:/Users/stapi/OneDrive/Desktop/GD32VW553/V1_MQTT_OK/GD32VW55X_Wifi_BLE_SDK/GD32VW55x_RELEASE_V1.0.2/MSDK/lwip/lwip-2.1.2/src/core\altcp_tcp.c ****   ALTCP_TCP_ASSERT_CONN(conn);
 344:C:/Users/stapi/OneDrive/Desktop/GD32VW553/V1_MQTT_OK/GD32VW55X_Wifi_BLE_SDK/GD32VW55x_RELEASE_V1.0.2/MSDK/lwip/lwip-2.1.2/src/core\altcp_tcp.c ****   pcb = (struct tcp_pcb *)conn->state;
 345:C:/Users/stapi/OneDrive/Desktop/GD32VW553/V1_MQTT_OK/GD32VW55X_Wifi_BLE_SDK/GD32VW55x_RELEASE_V1.0.2/MSDK/lwip/lwip-2.1.2/src/core\altcp_tcp.c ****   return tcp_shutdown(pcb, shut_rx, shut_tx);
 346:C:/Users/stapi/OneDrive/Desktop/GD32VW553/V1_MQTT_OK/GD32VW55X_Wifi_BLE_SDK/GD32VW55x_RELEASE_V1.0.2/MSDK/lwip/lwip-2.1.2/src/core\altcp_tcp.c **** }
 347:C:/Users/stapi/OneDrive/Desktop/GD32VW553/V1_MQTT_OK/GD32VW55X_Wifi_BLE_SDK/GD32VW55x_RELEASE_V1.0.2/MSDK/lwip/lwip-2.1.2/src/core\altcp_tcp.c **** 
 348:C:/Users/stapi/OneDrive/Desktop/GD32VW553/V1_MQTT_OK/GD32VW55X_Wifi_BLE_SDK/GD32VW55x_RELEASE_V1.0.2/MSDK/lwip/lwip-2.1.2/src/core\altcp_tcp.c **** static err_t
 349:C:/Users/stapi/OneDrive/Desktop/GD32VW553/V1_MQTT_OK/GD32VW55X_Wifi_BLE_SDK/GD32VW55x_RELEASE_V1.0.2/MSDK/lwip/lwip-2.1.2/src/core\altcp_tcp.c **** altcp_tcp_write(struct altcp_pcb *conn, const void *dataptr, u16_t len, u8_t apiflags)
 350:C:/Users/stapi/OneDrive/Desktop/GD32VW553/V1_MQTT_OK/GD32VW55X_Wifi_BLE_SDK/GD32VW55x_RELEASE_V1.0.2/MSDK/lwip/lwip-2.1.2/src/core\altcp_tcp.c **** {
 351:C:/Users/stapi/OneDrive/Desktop/GD32VW553/V1_MQTT_OK/GD32VW55X_Wifi_BLE_SDK/GD32VW55x_RELEASE_V1.0.2/MSDK/lwip/lwip-2.1.2/src/core\altcp_tcp.c ****   struct tcp_pcb *pcb;
 352:C:/Users/stapi/OneDrive/Desktop/GD32VW553/V1_MQTT_OK/GD32VW55X_Wifi_BLE_SDK/GD32VW55x_RELEASE_V1.0.2/MSDK/lwip/lwip-2.1.2/src/core\altcp_tcp.c ****   if (conn == NULL) {
 353:C:/Users/stapi/OneDrive/Desktop/GD32VW553/V1_MQTT_OK/GD32VW55X_Wifi_BLE_SDK/GD32VW55x_RELEASE_V1.0.2/MSDK/lwip/lwip-2.1.2/src/core\altcp_tcp.c ****     return ERR_VAL;
 354:C:/Users/stapi/OneDrive/Desktop/GD32VW553/V1_MQTT_OK/GD32VW55X_Wifi_BLE_SDK/GD32VW55x_RELEASE_V1.0.2/MSDK/lwip/lwip-2.1.2/src/core\altcp_tcp.c ****   }
 355:C:/Users/stapi/OneDrive/Desktop/GD32VW553/V1_MQTT_OK/GD32VW55X_Wifi_BLE_SDK/GD32VW55x_RELEASE_V1.0.2/MSDK/lwip/lwip-2.1.2/src/core\altcp_tcp.c ****   ALTCP_TCP_ASSERT_CONN(conn);
 356:C:/Users/stapi/OneDrive/Desktop/GD32VW553/V1_MQTT_OK/GD32VW55X_Wifi_BLE_SDK/GD32VW55x_RELEASE_V1.0.2/MSDK/lwip/lwip-2.1.2/src/core\altcp_tcp.c ****   pcb = (struct tcp_pcb *)conn->state;
 357:C:/Users/stapi/OneDrive/Desktop/GD32VW553/V1_MQTT_OK/GD32VW55X_Wifi_BLE_SDK/GD32VW55x_RELEASE_V1.0.2/MSDK/lwip/lwip-2.1.2/src/core\altcp_tcp.c ****   return tcp_write(pcb, dataptr, len, apiflags);
 358:C:/Users/stapi/OneDrive/Desktop/GD32VW553/V1_MQTT_OK/GD32VW55X_Wifi_BLE_SDK/GD32VW55x_RELEASE_V1.0.2/MSDK/lwip/lwip-2.1.2/src/core\altcp_tcp.c **** }
 359:C:/Users/stapi/OneDrive/Desktop/GD32VW553/V1_MQTT_OK/GD32VW55X_Wifi_BLE_SDK/GD32VW55x_RELEASE_V1.0.2/MSDK/lwip/lwip-2.1.2/src/core\altcp_tcp.c **** 
 360:C:/Users/stapi/OneDrive/Desktop/GD32VW553/V1_MQTT_OK/GD32VW55X_Wifi_BLE_SDK/GD32VW55x_RELEASE_V1.0.2/MSDK/lwip/lwip-2.1.2/src/core\altcp_tcp.c **** static err_t
 361:C:/Users/stapi/OneDrive/Desktop/GD32VW553/V1_MQTT_OK/GD32VW55X_Wifi_BLE_SDK/GD32VW55x_RELEASE_V1.0.2/MSDK/lwip/lwip-2.1.2/src/core\altcp_tcp.c **** altcp_tcp_output(struct altcp_pcb *conn)
 362:C:/Users/stapi/OneDrive/Desktop/GD32VW553/V1_MQTT_OK/GD32VW55X_Wifi_BLE_SDK/GD32VW55x_RELEASE_V1.0.2/MSDK/lwip/lwip-2.1.2/src/core\altcp_tcp.c **** {
 363:C:/Users/stapi/OneDrive/Desktop/GD32VW553/V1_MQTT_OK/GD32VW55X_Wifi_BLE_SDK/GD32VW55x_RELEASE_V1.0.2/MSDK/lwip/lwip-2.1.2/src/core\altcp_tcp.c ****   struct tcp_pcb *pcb;
 364:C:/Users/stapi/OneDrive/Desktop/GD32VW553/V1_MQTT_OK/GD32VW55X_Wifi_BLE_SDK/GD32VW55x_RELEASE_V1.0.2/MSDK/lwip/lwip-2.1.2/src/core\altcp_tcp.c ****   if (conn == NULL) {
 365:C:/Users/stapi/OneDrive/Desktop/GD32VW553/V1_MQTT_OK/GD32VW55X_Wifi_BLE_SDK/GD32VW55x_RELEASE_V1.0.2/MSDK/lwip/lwip-2.1.2/src/core\altcp_tcp.c ****     return ERR_VAL;
 366:C:/Users/stapi/OneDrive/Desktop/GD32VW553/V1_MQTT_OK/GD32VW55X_Wifi_BLE_SDK/GD32VW55x_RELEASE_V1.0.2/MSDK/lwip/lwip-2.1.2/src/core\altcp_tcp.c ****   }
 367:C:/Users/stapi/OneDrive/Desktop/GD32VW553/V1_MQTT_OK/GD32VW55X_Wifi_BLE_SDK/GD32VW55x_RELEASE_V1.0.2/MSDK/lwip/lwip-2.1.2/src/core\altcp_tcp.c ****   ALTCP_TCP_ASSERT_CONN(conn);
 368:C:/Users/stapi/OneDrive/Desktop/GD32VW553/V1_MQTT_OK/GD32VW55X_Wifi_BLE_SDK/GD32VW55x_RELEASE_V1.0.2/MSDK/lwip/lwip-2.1.2/src/core\altcp_tcp.c ****   pcb = (struct tcp_pcb *)conn->state;
 369:C:/Users/stapi/OneDrive/Desktop/GD32VW553/V1_MQTT_OK/GD32VW55X_Wifi_BLE_SDK/GD32VW55x_RELEASE_V1.0.2/MSDK/lwip/lwip-2.1.2/src/core\altcp_tcp.c ****   return tcp_output(pcb);
 370:C:/Users/stapi/OneDrive/Desktop/GD32VW553/V1_MQTT_OK/GD32VW55X_Wifi_BLE_SDK/GD32VW55x_RELEASE_V1.0.2/MSDK/lwip/lwip-2.1.2/src/core\altcp_tcp.c **** }
 371:C:/Users/stapi/OneDrive/Desktop/GD32VW553/V1_MQTT_OK/GD32VW55X_Wifi_BLE_SDK/GD32VW55x_RELEASE_V1.0.2/MSDK/lwip/lwip-2.1.2/src/core\altcp_tcp.c **** 
 372:C:/Users/stapi/OneDrive/Desktop/GD32VW553/V1_MQTT_OK/GD32VW55X_Wifi_BLE_SDK/GD32VW55x_RELEASE_V1.0.2/MSDK/lwip/lwip-2.1.2/src/core\altcp_tcp.c **** static u16_t
 373:C:/Users/stapi/OneDrive/Desktop/GD32VW553/V1_MQTT_OK/GD32VW55X_Wifi_BLE_SDK/GD32VW55x_RELEASE_V1.0.2/MSDK/lwip/lwip-2.1.2/src/core\altcp_tcp.c **** altcp_tcp_mss(struct altcp_pcb *conn)
 374:C:/Users/stapi/OneDrive/Desktop/GD32VW553/V1_MQTT_OK/GD32VW55X_Wifi_BLE_SDK/GD32VW55x_RELEASE_V1.0.2/MSDK/lwip/lwip-2.1.2/src/core\altcp_tcp.c **** {
 375:C:/Users/stapi/OneDrive/Desktop/GD32VW553/V1_MQTT_OK/GD32VW55X_Wifi_BLE_SDK/GD32VW55x_RELEASE_V1.0.2/MSDK/lwip/lwip-2.1.2/src/core\altcp_tcp.c ****   struct tcp_pcb *pcb;
 376:C:/Users/stapi/OneDrive/Desktop/GD32VW553/V1_MQTT_OK/GD32VW55X_Wifi_BLE_SDK/GD32VW55x_RELEASE_V1.0.2/MSDK/lwip/lwip-2.1.2/src/core\altcp_tcp.c ****   if (conn == NULL) {
 377:C:/Users/stapi/OneDrive/Desktop/GD32VW553/V1_MQTT_OK/GD32VW55X_Wifi_BLE_SDK/GD32VW55x_RELEASE_V1.0.2/MSDK/lwip/lwip-2.1.2/src/core\altcp_tcp.c ****     return 0;
 378:C:/Users/stapi/OneDrive/Desktop/GD32VW553/V1_MQTT_OK/GD32VW55X_Wifi_BLE_SDK/GD32VW55x_RELEASE_V1.0.2/MSDK/lwip/lwip-2.1.2/src/core\altcp_tcp.c ****   }
 379:C:/Users/stapi/OneDrive/Desktop/GD32VW553/V1_MQTT_OK/GD32VW55X_Wifi_BLE_SDK/GD32VW55x_RELEASE_V1.0.2/MSDK/lwip/lwip-2.1.2/src/core\altcp_tcp.c ****   ALTCP_TCP_ASSERT_CONN(conn);
 380:C:/Users/stapi/OneDrive/Desktop/GD32VW553/V1_MQTT_OK/GD32VW55X_Wifi_BLE_SDK/GD32VW55x_RELEASE_V1.0.2/MSDK/lwip/lwip-2.1.2/src/core\altcp_tcp.c ****   pcb = (struct tcp_pcb *)conn->state;
 381:C:/Users/stapi/OneDrive/Desktop/GD32VW553/V1_MQTT_OK/GD32VW55X_Wifi_BLE_SDK/GD32VW55x_RELEASE_V1.0.2/MSDK/lwip/lwip-2.1.2/src/core\altcp_tcp.c ****   return tcp_mss(pcb);
 382:C:/Users/stapi/OneDrive/Desktop/GD32VW553/V1_MQTT_OK/GD32VW55X_Wifi_BLE_SDK/GD32VW55x_RELEASE_V1.0.2/MSDK/lwip/lwip-2.1.2/src/core\altcp_tcp.c **** }
 383:C:/Users/stapi/OneDrive/Desktop/GD32VW553/V1_MQTT_OK/GD32VW55X_Wifi_BLE_SDK/GD32VW55x_RELEASE_V1.0.2/MSDK/lwip/lwip-2.1.2/src/core\altcp_tcp.c **** 
 384:C:/Users/stapi/OneDrive/Desktop/GD32VW553/V1_MQTT_OK/GD32VW55X_Wifi_BLE_SDK/GD32VW55x_RELEASE_V1.0.2/MSDK/lwip/lwip-2.1.2/src/core\altcp_tcp.c **** static u16_t
 385:C:/Users/stapi/OneDrive/Desktop/GD32VW553/V1_MQTT_OK/GD32VW55X_Wifi_BLE_SDK/GD32VW55x_RELEASE_V1.0.2/MSDK/lwip/lwip-2.1.2/src/core\altcp_tcp.c **** altcp_tcp_sndbuf(struct altcp_pcb *conn)
 386:C:/Users/stapi/OneDrive/Desktop/GD32VW553/V1_MQTT_OK/GD32VW55X_Wifi_BLE_SDK/GD32VW55x_RELEASE_V1.0.2/MSDK/lwip/lwip-2.1.2/src/core\altcp_tcp.c **** {
 387:C:/Users/stapi/OneDrive/Desktop/GD32VW553/V1_MQTT_OK/GD32VW55X_Wifi_BLE_SDK/GD32VW55x_RELEASE_V1.0.2/MSDK/lwip/lwip-2.1.2/src/core\altcp_tcp.c ****   struct tcp_pcb *pcb;
 388:C:/Users/stapi/OneDrive/Desktop/GD32VW553/V1_MQTT_OK/GD32VW55X_Wifi_BLE_SDK/GD32VW55x_RELEASE_V1.0.2/MSDK/lwip/lwip-2.1.2/src/core\altcp_tcp.c ****   if (conn == NULL) {
 389:C:/Users/stapi/OneDrive/Desktop/GD32VW553/V1_MQTT_OK/GD32VW55X_Wifi_BLE_SDK/GD32VW55x_RELEASE_V1.0.2/MSDK/lwip/lwip-2.1.2/src/core\altcp_tcp.c ****     return 0;
 390:C:/Users/stapi/OneDrive/Desktop/GD32VW553/V1_MQTT_OK/GD32VW55X_Wifi_BLE_SDK/GD32VW55x_RELEASE_V1.0.2/MSDK/lwip/lwip-2.1.2/src/core\altcp_tcp.c ****   }
 391:C:/Users/stapi/OneDrive/Desktop/GD32VW553/V1_MQTT_OK/GD32VW55X_Wifi_BLE_SDK/GD32VW55x_RELEASE_V1.0.2/MSDK/lwip/lwip-2.1.2/src/core\altcp_tcp.c ****   ALTCP_TCP_ASSERT_CONN(conn);
 392:C:/Users/stapi/OneDrive/Desktop/GD32VW553/V1_MQTT_OK/GD32VW55X_Wifi_BLE_SDK/GD32VW55x_RELEASE_V1.0.2/MSDK/lwip/lwip-2.1.2/src/core\altcp_tcp.c ****   pcb = (struct tcp_pcb *)conn->state;
 393:C:/Users/stapi/OneDrive/Desktop/GD32VW553/V1_MQTT_OK/GD32VW55X_Wifi_BLE_SDK/GD32VW55x_RELEASE_V1.0.2/MSDK/lwip/lwip-2.1.2/src/core\altcp_tcp.c ****   return tcp_sndbuf(pcb);
 394:C:/Users/stapi/OneDrive/Desktop/GD32VW553/V1_MQTT_OK/GD32VW55X_Wifi_BLE_SDK/GD32VW55x_RELEASE_V1.0.2/MSDK/lwip/lwip-2.1.2/src/core\altcp_tcp.c **** }
 395:C:/Users/stapi/OneDrive/Desktop/GD32VW553/V1_MQTT_OK/GD32VW55X_Wifi_BLE_SDK/GD32VW55x_RELEASE_V1.0.2/MSDK/lwip/lwip-2.1.2/src/core\altcp_tcp.c **** 
 396:C:/Users/stapi/OneDrive/Desktop/GD32VW553/V1_MQTT_OK/GD32VW55X_Wifi_BLE_SDK/GD32VW55x_RELEASE_V1.0.2/MSDK/lwip/lwip-2.1.2/src/core\altcp_tcp.c **** static u16_t
 397:C:/Users/stapi/OneDrive/Desktop/GD32VW553/V1_MQTT_OK/GD32VW55X_Wifi_BLE_SDK/GD32VW55x_RELEASE_V1.0.2/MSDK/lwip/lwip-2.1.2/src/core\altcp_tcp.c **** altcp_tcp_sndqueuelen(struct altcp_pcb *conn)
 398:C:/Users/stapi/OneDrive/Desktop/GD32VW553/V1_MQTT_OK/GD32VW55X_Wifi_BLE_SDK/GD32VW55x_RELEASE_V1.0.2/MSDK/lwip/lwip-2.1.2/src/core\altcp_tcp.c **** {
 399:C:/Users/stapi/OneDrive/Desktop/GD32VW553/V1_MQTT_OK/GD32VW55X_Wifi_BLE_SDK/GD32VW55x_RELEASE_V1.0.2/MSDK/lwip/lwip-2.1.2/src/core\altcp_tcp.c ****   struct tcp_pcb *pcb;
 400:C:/Users/stapi/OneDrive/Desktop/GD32VW553/V1_MQTT_OK/GD32VW55X_Wifi_BLE_SDK/GD32VW55x_RELEASE_V1.0.2/MSDK/lwip/lwip-2.1.2/src/core\altcp_tcp.c ****   if (conn == NULL) {
 401:C:/Users/stapi/OneDrive/Desktop/GD32VW553/V1_MQTT_OK/GD32VW55X_Wifi_BLE_SDK/GD32VW55x_RELEASE_V1.0.2/MSDK/lwip/lwip-2.1.2/src/core\altcp_tcp.c ****     return 0;
 402:C:/Users/stapi/OneDrive/Desktop/GD32VW553/V1_MQTT_OK/GD32VW55X_Wifi_BLE_SDK/GD32VW55x_RELEASE_V1.0.2/MSDK/lwip/lwip-2.1.2/src/core\altcp_tcp.c ****   }
 403:C:/Users/stapi/OneDrive/Desktop/GD32VW553/V1_MQTT_OK/GD32VW55X_Wifi_BLE_SDK/GD32VW55x_RELEASE_V1.0.2/MSDK/lwip/lwip-2.1.2/src/core\altcp_tcp.c ****   ALTCP_TCP_ASSERT_CONN(conn);
 404:C:/Users/stapi/OneDrive/Desktop/GD32VW553/V1_MQTT_OK/GD32VW55X_Wifi_BLE_SDK/GD32VW55x_RELEASE_V1.0.2/MSDK/lwip/lwip-2.1.2/src/core\altcp_tcp.c ****   pcb = (struct tcp_pcb *)conn->state;
 405:C:/Users/stapi/OneDrive/Desktop/GD32VW553/V1_MQTT_OK/GD32VW55X_Wifi_BLE_SDK/GD32VW55x_RELEASE_V1.0.2/MSDK/lwip/lwip-2.1.2/src/core\altcp_tcp.c ****   return tcp_sndqueuelen(pcb);
 406:C:/Users/stapi/OneDrive/Desktop/GD32VW553/V1_MQTT_OK/GD32VW55X_Wifi_BLE_SDK/GD32VW55x_RELEASE_V1.0.2/MSDK/lwip/lwip-2.1.2/src/core\altcp_tcp.c **** }
 407:C:/Users/stapi/OneDrive/Desktop/GD32VW553/V1_MQTT_OK/GD32VW55X_Wifi_BLE_SDK/GD32VW55x_RELEASE_V1.0.2/MSDK/lwip/lwip-2.1.2/src/core\altcp_tcp.c **** 
 408:C:/Users/stapi/OneDrive/Desktop/GD32VW553/V1_MQTT_OK/GD32VW55X_Wifi_BLE_SDK/GD32VW55x_RELEASE_V1.0.2/MSDK/lwip/lwip-2.1.2/src/core\altcp_tcp.c **** static void
 409:C:/Users/stapi/OneDrive/Desktop/GD32VW553/V1_MQTT_OK/GD32VW55X_Wifi_BLE_SDK/GD32VW55x_RELEASE_V1.0.2/MSDK/lwip/lwip-2.1.2/src/core\altcp_tcp.c **** altcp_tcp_nagle_disable(struct altcp_pcb *conn)
 410:C:/Users/stapi/OneDrive/Desktop/GD32VW553/V1_MQTT_OK/GD32VW55X_Wifi_BLE_SDK/GD32VW55x_RELEASE_V1.0.2/MSDK/lwip/lwip-2.1.2/src/core\altcp_tcp.c **** {
 411:C:/Users/stapi/OneDrive/Desktop/GD32VW553/V1_MQTT_OK/GD32VW55X_Wifi_BLE_SDK/GD32VW55x_RELEASE_V1.0.2/MSDK/lwip/lwip-2.1.2/src/core\altcp_tcp.c ****   if (conn && conn->state) {
 412:C:/Users/stapi/OneDrive/Desktop/GD32VW553/V1_MQTT_OK/GD32VW55X_Wifi_BLE_SDK/GD32VW55x_RELEASE_V1.0.2/MSDK/lwip/lwip-2.1.2/src/core\altcp_tcp.c ****     struct tcp_pcb *pcb = (struct tcp_pcb *)conn->state;
 413:C:/Users/stapi/OneDrive/Desktop/GD32VW553/V1_MQTT_OK/GD32VW55X_Wifi_BLE_SDK/GD32VW55x_RELEASE_V1.0.2/MSDK/lwip/lwip-2.1.2/src/core\altcp_tcp.c ****     ALTCP_TCP_ASSERT_CONN(conn);
 414:C:/Users/stapi/OneDrive/Desktop/GD32VW553/V1_MQTT_OK/GD32VW55X_Wifi_BLE_SDK/GD32VW55x_RELEASE_V1.0.2/MSDK/lwip/lwip-2.1.2/src/core\altcp_tcp.c ****     tcp_nagle_disable(pcb);
 415:C:/Users/stapi/OneDrive/Desktop/GD32VW553/V1_MQTT_OK/GD32VW55X_Wifi_BLE_SDK/GD32VW55x_RELEASE_V1.0.2/MSDK/lwip/lwip-2.1.2/src/core\altcp_tcp.c ****   }
 416:C:/Users/stapi/OneDrive/Desktop/GD32VW553/V1_MQTT_OK/GD32VW55X_Wifi_BLE_SDK/GD32VW55x_RELEASE_V1.0.2/MSDK/lwip/lwip-2.1.2/src/core\altcp_tcp.c **** }
 417:C:/Users/stapi/OneDrive/Desktop/GD32VW553/V1_MQTT_OK/GD32VW55X_Wifi_BLE_SDK/GD32VW55x_RELEASE_V1.0.2/MSDK/lwip/lwip-2.1.2/src/core\altcp_tcp.c **** 
 418:C:/Users/stapi/OneDrive/Desktop/GD32VW553/V1_MQTT_OK/GD32VW55X_Wifi_BLE_SDK/GD32VW55x_RELEASE_V1.0.2/MSDK/lwip/lwip-2.1.2/src/core\altcp_tcp.c **** static void
 419:C:/Users/stapi/OneDrive/Desktop/GD32VW553/V1_MQTT_OK/GD32VW55X_Wifi_BLE_SDK/GD32VW55x_RELEASE_V1.0.2/MSDK/lwip/lwip-2.1.2/src/core\altcp_tcp.c **** altcp_tcp_nagle_enable(struct altcp_pcb *conn)
 420:C:/Users/stapi/OneDrive/Desktop/GD32VW553/V1_MQTT_OK/GD32VW55X_Wifi_BLE_SDK/GD32VW55x_RELEASE_V1.0.2/MSDK/lwip/lwip-2.1.2/src/core\altcp_tcp.c **** {
 421:C:/Users/stapi/OneDrive/Desktop/GD32VW553/V1_MQTT_OK/GD32VW55X_Wifi_BLE_SDK/GD32VW55x_RELEASE_V1.0.2/MSDK/lwip/lwip-2.1.2/src/core\altcp_tcp.c ****   if (conn && conn->state) {
 422:C:/Users/stapi/OneDrive/Desktop/GD32VW553/V1_MQTT_OK/GD32VW55X_Wifi_BLE_SDK/GD32VW55x_RELEASE_V1.0.2/MSDK/lwip/lwip-2.1.2/src/core\altcp_tcp.c ****     struct tcp_pcb *pcb = (struct tcp_pcb *)conn->state;
 423:C:/Users/stapi/OneDrive/Desktop/GD32VW553/V1_MQTT_OK/GD32VW55X_Wifi_BLE_SDK/GD32VW55x_RELEASE_V1.0.2/MSDK/lwip/lwip-2.1.2/src/core\altcp_tcp.c ****     ALTCP_TCP_ASSERT_CONN(conn);
 424:C:/Users/stapi/OneDrive/Desktop/GD32VW553/V1_MQTT_OK/GD32VW55X_Wifi_BLE_SDK/GD32VW55x_RELEASE_V1.0.2/MSDK/lwip/lwip-2.1.2/src/core\altcp_tcp.c ****     tcp_nagle_enable(pcb);
 425:C:/Users/stapi/OneDrive/Desktop/GD32VW553/V1_MQTT_OK/GD32VW55X_Wifi_BLE_SDK/GD32VW55x_RELEASE_V1.0.2/MSDK/lwip/lwip-2.1.2/src/core\altcp_tcp.c ****   }
 426:C:/Users/stapi/OneDrive/Desktop/GD32VW553/V1_MQTT_OK/GD32VW55X_Wifi_BLE_SDK/GD32VW55x_RELEASE_V1.0.2/MSDK/lwip/lwip-2.1.2/src/core\altcp_tcp.c **** }
 427:C:/Users/stapi/OneDrive/Desktop/GD32VW553/V1_MQTT_OK/GD32VW55X_Wifi_BLE_SDK/GD32VW55x_RELEASE_V1.0.2/MSDK/lwip/lwip-2.1.2/src/core\altcp_tcp.c **** 
 428:C:/Users/stapi/OneDrive/Desktop/GD32VW553/V1_MQTT_OK/GD32VW55X_Wifi_BLE_SDK/GD32VW55x_RELEASE_V1.0.2/MSDK/lwip/lwip-2.1.2/src/core\altcp_tcp.c **** static int
 429:C:/Users/stapi/OneDrive/Desktop/GD32VW553/V1_MQTT_OK/GD32VW55X_Wifi_BLE_SDK/GD32VW55x_RELEASE_V1.0.2/MSDK/lwip/lwip-2.1.2/src/core\altcp_tcp.c **** altcp_tcp_nagle_disabled(struct altcp_pcb *conn)
 430:C:/Users/stapi/OneDrive/Desktop/GD32VW553/V1_MQTT_OK/GD32VW55X_Wifi_BLE_SDK/GD32VW55x_RELEASE_V1.0.2/MSDK/lwip/lwip-2.1.2/src/core\altcp_tcp.c **** {
 431:C:/Users/stapi/OneDrive/Desktop/GD32VW553/V1_MQTT_OK/GD32VW55X_Wifi_BLE_SDK/GD32VW55x_RELEASE_V1.0.2/MSDK/lwip/lwip-2.1.2/src/core\altcp_tcp.c ****   if (conn && conn->state) {
 432:C:/Users/stapi/OneDrive/Desktop/GD32VW553/V1_MQTT_OK/GD32VW55X_Wifi_BLE_SDK/GD32VW55x_RELEASE_V1.0.2/MSDK/lwip/lwip-2.1.2/src/core\altcp_tcp.c ****     struct tcp_pcb *pcb = (struct tcp_pcb *)conn->state;
 433:C:/Users/stapi/OneDrive/Desktop/GD32VW553/V1_MQTT_OK/GD32VW55X_Wifi_BLE_SDK/GD32VW55x_RELEASE_V1.0.2/MSDK/lwip/lwip-2.1.2/src/core\altcp_tcp.c ****     ALTCP_TCP_ASSERT_CONN(conn);
 434:C:/Users/stapi/OneDrive/Desktop/GD32VW553/V1_MQTT_OK/GD32VW55X_Wifi_BLE_SDK/GD32VW55x_RELEASE_V1.0.2/MSDK/lwip/lwip-2.1.2/src/core\altcp_tcp.c ****     return tcp_nagle_disabled(pcb);
 435:C:/Users/stapi/OneDrive/Desktop/GD32VW553/V1_MQTT_OK/GD32VW55X_Wifi_BLE_SDK/GD32VW55x_RELEASE_V1.0.2/MSDK/lwip/lwip-2.1.2/src/core\altcp_tcp.c ****   }
 436:C:/Users/stapi/OneDrive/Desktop/GD32VW553/V1_MQTT_OK/GD32VW55X_Wifi_BLE_SDK/GD32VW55x_RELEASE_V1.0.2/MSDK/lwip/lwip-2.1.2/src/core\altcp_tcp.c ****   return 0;
 437:C:/Users/stapi/OneDrive/Desktop/GD32VW553/V1_MQTT_OK/GD32VW55X_Wifi_BLE_SDK/GD32VW55x_RELEASE_V1.0.2/MSDK/lwip/lwip-2.1.2/src/core\altcp_tcp.c **** }
 438:C:/Users/stapi/OneDrive/Desktop/GD32VW553/V1_MQTT_OK/GD32VW55X_Wifi_BLE_SDK/GD32VW55x_RELEASE_V1.0.2/MSDK/lwip/lwip-2.1.2/src/core\altcp_tcp.c **** 
 439:C:/Users/stapi/OneDrive/Desktop/GD32VW553/V1_MQTT_OK/GD32VW55X_Wifi_BLE_SDK/GD32VW55x_RELEASE_V1.0.2/MSDK/lwip/lwip-2.1.2/src/core\altcp_tcp.c **** static void
 440:C:/Users/stapi/OneDrive/Desktop/GD32VW553/V1_MQTT_OK/GD32VW55X_Wifi_BLE_SDK/GD32VW55x_RELEASE_V1.0.2/MSDK/lwip/lwip-2.1.2/src/core\altcp_tcp.c **** altcp_tcp_setprio(struct altcp_pcb *conn, u8_t prio)
 441:C:/Users/stapi/OneDrive/Desktop/GD32VW553/V1_MQTT_OK/GD32VW55X_Wifi_BLE_SDK/GD32VW55x_RELEASE_V1.0.2/MSDK/lwip/lwip-2.1.2/src/core\altcp_tcp.c **** {
 442:C:/Users/stapi/OneDrive/Desktop/GD32VW553/V1_MQTT_OK/GD32VW55X_Wifi_BLE_SDK/GD32VW55x_RELEASE_V1.0.2/MSDK/lwip/lwip-2.1.2/src/core\altcp_tcp.c ****   if (conn != NULL) {
 443:C:/Users/stapi/OneDrive/Desktop/GD32VW553/V1_MQTT_OK/GD32VW55X_Wifi_BLE_SDK/GD32VW55x_RELEASE_V1.0.2/MSDK/lwip/lwip-2.1.2/src/core\altcp_tcp.c ****     struct tcp_pcb *pcb = (struct tcp_pcb *)conn->state;
 444:C:/Users/stapi/OneDrive/Desktop/GD32VW553/V1_MQTT_OK/GD32VW55X_Wifi_BLE_SDK/GD32VW55x_RELEASE_V1.0.2/MSDK/lwip/lwip-2.1.2/src/core\altcp_tcp.c ****     ALTCP_TCP_ASSERT_CONN(conn);
 445:C:/Users/stapi/OneDrive/Desktop/GD32VW553/V1_MQTT_OK/GD32VW55X_Wifi_BLE_SDK/GD32VW55x_RELEASE_V1.0.2/MSDK/lwip/lwip-2.1.2/src/core\altcp_tcp.c ****     tcp_setprio(pcb, prio);
 446:C:/Users/stapi/OneDrive/Desktop/GD32VW553/V1_MQTT_OK/GD32VW55X_Wifi_BLE_SDK/GD32VW55x_RELEASE_V1.0.2/MSDK/lwip/lwip-2.1.2/src/core\altcp_tcp.c ****   }
 447:C:/Users/stapi/OneDrive/Desktop/GD32VW553/V1_MQTT_OK/GD32VW55X_Wifi_BLE_SDK/GD32VW55x_RELEASE_V1.0.2/MSDK/lwip/lwip-2.1.2/src/core\altcp_tcp.c **** }
 448:C:/Users/stapi/OneDrive/Desktop/GD32VW553/V1_MQTT_OK/GD32VW55X_Wifi_BLE_SDK/GD32VW55x_RELEASE_V1.0.2/MSDK/lwip/lwip-2.1.2/src/core\altcp_tcp.c **** 
 449:C:/Users/stapi/OneDrive/Desktop/GD32VW553/V1_MQTT_OK/GD32VW55X_Wifi_BLE_SDK/GD32VW55x_RELEASE_V1.0.2/MSDK/lwip/lwip-2.1.2/src/core\altcp_tcp.c **** static void
 450:C:/Users/stapi/OneDrive/Desktop/GD32VW553/V1_MQTT_OK/GD32VW55X_Wifi_BLE_SDK/GD32VW55x_RELEASE_V1.0.2/MSDK/lwip/lwip-2.1.2/src/core\altcp_tcp.c **** altcp_tcp_dealloc(struct altcp_pcb *conn)
 451:C:/Users/stapi/OneDrive/Desktop/GD32VW553/V1_MQTT_OK/GD32VW55X_Wifi_BLE_SDK/GD32VW55x_RELEASE_V1.0.2/MSDK/lwip/lwip-2.1.2/src/core\altcp_tcp.c **** {
 452:C:/Users/stapi/OneDrive/Desktop/GD32VW553/V1_MQTT_OK/GD32VW55X_Wifi_BLE_SDK/GD32VW55x_RELEASE_V1.0.2/MSDK/lwip/lwip-2.1.2/src/core\altcp_tcp.c ****   LWIP_UNUSED_ARG(conn);
 453:C:/Users/stapi/OneDrive/Desktop/GD32VW553/V1_MQTT_OK/GD32VW55X_Wifi_BLE_SDK/GD32VW55x_RELEASE_V1.0.2/MSDK/lwip/lwip-2.1.2/src/core\altcp_tcp.c ****   ALTCP_TCP_ASSERT_CONN(conn);
 454:C:/Users/stapi/OneDrive/Desktop/GD32VW553/V1_MQTT_OK/GD32VW55X_Wifi_BLE_SDK/GD32VW55x_RELEASE_V1.0.2/MSDK/lwip/lwip-2.1.2/src/core\altcp_tcp.c ****   /* no private state to clean up */
 455:C:/Users/stapi/OneDrive/Desktop/GD32VW553/V1_MQTT_OK/GD32VW55X_Wifi_BLE_SDK/GD32VW55x_RELEASE_V1.0.2/MSDK/lwip/lwip-2.1.2/src/core\altcp_tcp.c **** }
 456:C:/Users/stapi/OneDrive/Desktop/GD32VW553/V1_MQTT_OK/GD32VW55X_Wifi_BLE_SDK/GD32VW55x_RELEASE_V1.0.2/MSDK/lwip/lwip-2.1.2/src/core\altcp_tcp.c **** 
 457:C:/Users/stapi/OneDrive/Desktop/GD32VW553/V1_MQTT_OK/GD32VW55X_Wifi_BLE_SDK/GD32VW55x_RELEASE_V1.0.2/MSDK/lwip/lwip-2.1.2/src/core\altcp_tcp.c **** static err_t
 458:C:/Users/stapi/OneDrive/Desktop/GD32VW553/V1_MQTT_OK/GD32VW55X_Wifi_BLE_SDK/GD32VW55x_RELEASE_V1.0.2/MSDK/lwip/lwip-2.1.2/src/core\altcp_tcp.c **** altcp_tcp_get_tcp_addrinfo(struct altcp_pcb *conn, int local, ip_addr_t *addr, u16_t *port)
 459:C:/Users/stapi/OneDrive/Desktop/GD32VW553/V1_MQTT_OK/GD32VW55X_Wifi_BLE_SDK/GD32VW55x_RELEASE_V1.0.2/MSDK/lwip/lwip-2.1.2/src/core\altcp_tcp.c **** {
 340              		.loc 1 459 1
 341              		.cfi_startproc
 342              	.LVL41:
 460:C:/Users/stapi/OneDrive/Desktop/GD32VW553/V1_MQTT_OK/GD32VW55X_Wifi_BLE_SDK/GD32VW55x_RELEASE_V1.0.2/MSDK/lwip/lwip-2.1.2/src/core\altcp_tcp.c ****   if (conn) {
 343              		.loc 1 460 3
 344              		.loc 1 460 6 is_stmt 0
 345 0000 39C1     		beq	a0,zero,.L45
 459:C:/Users/stapi/OneDrive/Desktop/GD32VW553/V1_MQTT_OK/GD32VW55X_Wifi_BLE_SDK/GD32VW55x_RELEASE_V1.0.2/MSDK/lwip/lwip-2.1.2/src/core\altcp_tcp.c ****   if (conn) {
 346              		.loc 1 459 1
 347 0002 17030000 		call	t0,__riscv_save_0
 347      E7020300 
 348              		.cfi_offset 1, -4
 349              		.cfi_def_cfa_offset 16
 350              	.LBB20:
 461:C:/Users/stapi/OneDrive/Desktop/GD32VW553/V1_MQTT_OK/GD32VW55X_Wifi_BLE_SDK/GD32VW55x_RELEASE_V1.0.2/MSDK/lwip/lwip-2.1.2/src/core\altcp_tcp.c ****     struct tcp_pcb *pcb = (struct tcp_pcb *)conn->state;
 351              		.loc 1 461 5 is_stmt 1
 352              	.LVL42:
 462:C:/Users/stapi/OneDrive/Desktop/GD32VW553/V1_MQTT_OK/GD32VW55X_Wifi_BLE_SDK/GD32VW55x_RELEASE_V1.0.2/MSDK/lwip/lwip-2.1.2/src/core\altcp_tcp.c ****     ALTCP_TCP_ASSERT_CONN(conn);
 353              		.loc 1 462 5
 354              		.loc 1 462 5
 355              		.loc 1 462 5
 356 000a 5C41     		lw	a5,4(a0)
 357 000c 85C7     		beq	a5,zero,.L43
 358              		.loc 1 462 5 discriminator 1
 359              		.loc 1 462 5 discriminator 1
 360 000e B7060000 		lui	a3,%hi(.LC0)
 361              	.LVL43:
 362 0012 B7050000 		lui	a1,%hi(.LC3)
 363              	.LVL44:
 364 0016 37050000 		lui	a0,%hi(.LC2)
 365              	.LVL45:
 366 001a 93860600 		addi	a3,a3,%lo(.LC0)
 367 001e 1306E01C 		li	a2,462
 368              	.LVL46:
 369 0022 93850500 		addi	a1,a1,%lo(.LC3)
 370 0026 13050500 		addi	a0,a0,%lo(.LC2)
 371 002a 97000000 		call	printf
 371      E7800000 
 372              	.LVL47:
 373              	.L44:
 374              		.loc 1 462 5 discriminator 1
 375              		.loc 1 462 5 discriminator 1
 376              		.loc 1 462 5 discriminator 1
 377 0032 01A0     		j	.L44
 378              	.LVL48:
 379              	.L43:
 380              		.loc 1 462 5 discriminator 2
 381              		.loc 1 462 5 discriminator 2
 382              		.loc 1 462 5 discriminator 2
 383              		.loc 1 462 5 discriminator 2
 463:C:/Users/stapi/OneDrive/Desktop/GD32VW553/V1_MQTT_OK/GD32VW55X_Wifi_BLE_SDK/GD32VW55x_RELEASE_V1.0.2/MSDK/lwip/lwip-2.1.2/src/core\altcp_tcp.c ****     return tcp_tcp_get_tcp_addrinfo(pcb, local, addr, port);
 384              		.loc 1 463 5 discriminator 2
 385              		.loc 1 463 12 is_stmt 0 discriminator 2
 386 0034 4845     		lw	a0,12(a0)
 387              	.LVL49:
 388 0036 97000000 		call	tcp_tcp_get_tcp_addrinfo
 388      E7800000 
 389              	.LVL50:
 390              	.LBE20:
 464:C:/Users/stapi/OneDrive/Desktop/GD32VW553/V1_MQTT_OK/GD32VW55X_Wifi_BLE_SDK/GD32VW55x_RELEASE_V1.0.2/MSDK/lwip/lwip-2.1.2/src/core\altcp_tcp.c ****   }
 465:C:/Users/stapi/OneDrive/Desktop/GD32VW553/V1_MQTT_OK/GD32VW55X_Wifi_BLE_SDK/GD32VW55x_RELEASE_V1.0.2/MSDK/lwip/lwip-2.1.2/src/core\altcp_tcp.c ****   return ERR_VAL;
 466:C:/Users/stapi/OneDrive/Desktop/GD32VW553/V1_MQTT_OK/GD32VW55X_Wifi_BLE_SDK/GD32VW55x_RELEASE_V1.0.2/MSDK/lwip/lwip-2.1.2/src/core\altcp_tcp.c **** }
 391              		.loc 1 466 1 discriminator 2
 392 003e 17030000 		tail	__riscv_restore_0
 392      67000300 
 393              		.cfi_restore 1
 394              		.cfi_def_cfa_offset 0
 395              	.LVL51:
 396              	.L45:
 465:C:/Users/stapi/OneDrive/Desktop/GD32VW553/V1_MQTT_OK/GD32VW55X_Wifi_BLE_SDK/GD32VW55x_RELEASE_V1.0.2/MSDK/lwip/lwip-2.1.2/src/core\altcp_tcp.c **** }
 397              		.loc 1 465 10
 398 0046 6955     		li	a0,-6
 399              	.LVL52:
 400              		.loc 1 466 1
 401 0048 8280     		ret
 402              		.cfi_endproc
 403              	.LFE34:
 405              		.section	.text.altcp_tcp_sent,"ax",@progbits
 406              		.align	1
 408              	altcp_tcp_sent:
 409              	.LFB7:
 120:C:/Users/stapi/OneDrive/Desktop/GD32VW553/V1_MQTT_OK/GD32VW55X_Wifi_BLE_SDK/GD32VW55x_RELEASE_V1.0.2/MSDK/lwip/lwip-2.1.2/src/core\altcp_tcp.c ****   struct altcp_pcb *conn = (struct altcp_pcb *)arg;
 410              		.loc 1 120 1 is_stmt 1
 411              		.cfi_startproc
 412              	.LVL53:
 121:C:/Users/stapi/OneDrive/Desktop/GD32VW553/V1_MQTT_OK/GD32VW55X_Wifi_BLE_SDK/GD32VW55x_RELEASE_V1.0.2/MSDK/lwip/lwip-2.1.2/src/core\altcp_tcp.c ****   if (conn) {
 413              		.loc 1 121 3
 122:C:/Users/stapi/OneDrive/Desktop/GD32VW553/V1_MQTT_OK/GD32VW55X_Wifi_BLE_SDK/GD32VW55x_RELEASE_V1.0.2/MSDK/lwip/lwip-2.1.2/src/core\altcp_tcp.c ****     ALTCP_TCP_ASSERT_CONN_PCB(conn, tpcb);
 414              		.loc 1 122 3
 122:C:/Users/stapi/OneDrive/Desktop/GD32VW553/V1_MQTT_OK/GD32VW55X_Wifi_BLE_SDK/GD32VW55x_RELEASE_V1.0.2/MSDK/lwip/lwip-2.1.2/src/core\altcp_tcp.c ****     ALTCP_TCP_ASSERT_CONN_PCB(conn, tpcb);
 415              		.loc 1 122 6 is_stmt 0
 416 0000 3DC9     		beq	a0,zero,.L56
 120:C:/Users/stapi/OneDrive/Desktop/GD32VW553/V1_MQTT_OK/GD32VW55X_Wifi_BLE_SDK/GD32VW55x_RELEASE_V1.0.2/MSDK/lwip/lwip-2.1.2/src/core\altcp_tcp.c ****   struct altcp_pcb *conn = (struct altcp_pcb *)arg;
 417              		.loc 1 120 1
 418 0002 17030000 		call	t0,__riscv_save_0
 418      E7020300 
 419              		.cfi_offset 1, -4
 420              		.cfi_def_cfa_offset 16
 123:C:/Users/stapi/OneDrive/Desktop/GD32VW553/V1_MQTT_OK/GD32VW55X_Wifi_BLE_SDK/GD32VW55x_RELEASE_V1.0.2/MSDK/lwip/lwip-2.1.2/src/core\altcp_tcp.c ****     if (conn->sent) {
 421              		.loc 1 123 5
 422 000a 5845     		lw	a4,12(a0)
 423 000c AA87     		mv	a5,a0
 123:C:/Users/stapi/OneDrive/Desktop/GD32VW553/V1_MQTT_OK/GD32VW55X_Wifi_BLE_SDK/GD32VW55x_RELEASE_V1.0.2/MSDK/lwip/lwip-2.1.2/src/core\altcp_tcp.c ****     if (conn->sent) {
 424              		.loc 1 123 5 is_stmt 1
 123:C:/Users/stapi/OneDrive/Desktop/GD32VW553/V1_MQTT_OK/GD32VW55X_Wifi_BLE_SDK/GD32VW55x_RELEASE_V1.0.2/MSDK/lwip/lwip-2.1.2/src/core\altcp_tcp.c ****     if (conn->sent) {
 425              		.loc 1 123 5
 123:C:/Users/stapi/OneDrive/Desktop/GD32VW553/V1_MQTT_OK/GD32VW55X_Wifi_BLE_SDK/GD32VW55x_RELEASE_V1.0.2/MSDK/lwip/lwip-2.1.2/src/core\altcp_tcp.c ****     if (conn->sent) {
 426              		.loc 1 123 5
 427 000e 6305B702 		beq	a4,a1,.L52
 123:C:/Users/stapi/OneDrive/Desktop/GD32VW553/V1_MQTT_OK/GD32VW55X_Wifi_BLE_SDK/GD32VW55x_RELEASE_V1.0.2/MSDK/lwip/lwip-2.1.2/src/core\altcp_tcp.c ****     if (conn->sent) {
 428              		.loc 1 123 5 discriminator 1
 123:C:/Users/stapi/OneDrive/Desktop/GD32VW553/V1_MQTT_OK/GD32VW55X_Wifi_BLE_SDK/GD32VW55x_RELEASE_V1.0.2/MSDK/lwip/lwip-2.1.2/src/core\altcp_tcp.c ****     if (conn->sent) {
 429              		.loc 1 123 5 discriminator 1
 430 0012 B7060000 		lui	a3,%hi(.LC0)
 431 0016 B7050000 		lui	a1,%hi(.LC1)
 432              	.LVL54:
 433 001a 37050000 		lui	a0,%hi(.LC2)
 434              	.LVL55:
 435 001e 93860600 		addi	a3,a3,%lo(.LC0)
 436 0022 1306B007 		li	a2,123
 437              	.LVL56:
 438 0026 93850500 		addi	a1,a1,%lo(.LC1)
 439 002a 13050500 		addi	a0,a0,%lo(.LC2)
 440 002e 97000000 		call	printf
 440      E7800000 
 441              	.LVL57:
 442              	.L53:
 123:C:/Users/stapi/OneDrive/Desktop/GD32VW553/V1_MQTT_OK/GD32VW55X_Wifi_BLE_SDK/GD32VW55x_RELEASE_V1.0.2/MSDK/lwip/lwip-2.1.2/src/core\altcp_tcp.c ****     if (conn->sent) {
 443              		.loc 1 123 5 discriminator 1
 123:C:/Users/stapi/OneDrive/Desktop/GD32VW553/V1_MQTT_OK/GD32VW55X_Wifi_BLE_SDK/GD32VW55x_RELEASE_V1.0.2/MSDK/lwip/lwip-2.1.2/src/core\altcp_tcp.c ****     if (conn->sent) {
 444              		.loc 1 123 5 discriminator 1
 123:C:/Users/stapi/OneDrive/Desktop/GD32VW553/V1_MQTT_OK/GD32VW55X_Wifi_BLE_SDK/GD32VW55x_RELEASE_V1.0.2/MSDK/lwip/lwip-2.1.2/src/core\altcp_tcp.c ****     if (conn->sent) {
 445              		.loc 1 123 5 discriminator 1
 446 0036 01A0     		j	.L53
 447              	.LVL58:
 448              	.L52:
 123:C:/Users/stapi/OneDrive/Desktop/GD32VW553/V1_MQTT_OK/GD32VW55X_Wifi_BLE_SDK/GD32VW55x_RELEASE_V1.0.2/MSDK/lwip/lwip-2.1.2/src/core\altcp_tcp.c ****     if (conn->sent) {
 449              		.loc 1 123 5 discriminator 2
 123:C:/Users/stapi/OneDrive/Desktop/GD32VW553/V1_MQTT_OK/GD32VW55X_Wifi_BLE_SDK/GD32VW55x_RELEASE_V1.0.2/MSDK/lwip/lwip-2.1.2/src/core\altcp_tcp.c ****     if (conn->sent) {
 450              		.loc 1 123 5 discriminator 2
 123:C:/Users/stapi/OneDrive/Desktop/GD32VW553/V1_MQTT_OK/GD32VW55X_Wifi_BLE_SDK/GD32VW55x_RELEASE_V1.0.2/MSDK/lwip/lwip-2.1.2/src/core\altcp_tcp.c ****     if (conn->sent) {
 451              		.loc 1 123 5 discriminator 2
 123:C:/Users/stapi/OneDrive/Desktop/GD32VW553/V1_MQTT_OK/GD32VW55X_Wifi_BLE_SDK/GD32VW55x_RELEASE_V1.0.2/MSDK/lwip/lwip-2.1.2/src/core\altcp_tcp.c ****     if (conn->sent) {
 452              		.loc 1 123 5 discriminator 2
 123:C:/Users/stapi/OneDrive/Desktop/GD32VW553/V1_MQTT_OK/GD32VW55X_Wifi_BLE_SDK/GD32VW55x_RELEASE_V1.0.2/MSDK/lwip/lwip-2.1.2/src/core\altcp_tcp.c ****     if (conn->sent) {
 453              		.loc 1 123 5 discriminator 2
 123:C:/Users/stapi/OneDrive/Desktop/GD32VW553/V1_MQTT_OK/GD32VW55X_Wifi_BLE_SDK/GD32VW55x_RELEASE_V1.0.2/MSDK/lwip/lwip-2.1.2/src/core\altcp_tcp.c ****     if (conn->sent) {
 454              		.loc 1 123 5 discriminator 2
 455 0038 5841     		lw	a4,4(a0)
 456 003a 05C7     		beq	a4,zero,.L54
 123:C:/Users/stapi/OneDrive/Desktop/GD32VW553/V1_MQTT_OK/GD32VW55X_Wifi_BLE_SDK/GD32VW55x_RELEASE_V1.0.2/MSDK/lwip/lwip-2.1.2/src/core\altcp_tcp.c ****     if (conn->sent) {
 457              		.loc 1 123 5 discriminator 4
 123:C:/Users/stapi/OneDrive/Desktop/GD32VW553/V1_MQTT_OK/GD32VW55X_Wifi_BLE_SDK/GD32VW55x_RELEASE_V1.0.2/MSDK/lwip/lwip-2.1.2/src/core\altcp_tcp.c ****     if (conn->sent) {
 458              		.loc 1 123 5 discriminator 4
 459 003c B7060000 		lui	a3,%hi(.LC0)
 460 0040 B7050000 		lui	a1,%hi(.LC3)
 461              	.LVL59:
 462 0044 37050000 		lui	a0,%hi(.LC2)
 463              	.LVL60:
 464 0048 93860600 		addi	a3,a3,%lo(.LC0)
 465 004c 1306B007 		li	a2,123
 466              	.LVL61:
 467 0050 93850500 		addi	a1,a1,%lo(.LC3)
 468 0054 13050500 		addi	a0,a0,%lo(.LC2)
 469 0058 97000000 		call	printf
 469      E7800000 
 470              	.LVL62:
 471              	.L55:
 123:C:/Users/stapi/OneDrive/Desktop/GD32VW553/V1_MQTT_OK/GD32VW55X_Wifi_BLE_SDK/GD32VW55x_RELEASE_V1.0.2/MSDK/lwip/lwip-2.1.2/src/core\altcp_tcp.c ****     if (conn->sent) {
 472              		.loc 1 123 5 discriminator 2
 123:C:/Users/stapi/OneDrive/Desktop/GD32VW553/V1_MQTT_OK/GD32VW55X_Wifi_BLE_SDK/GD32VW55x_RELEASE_V1.0.2/MSDK/lwip/lwip-2.1.2/src/core\altcp_tcp.c ****     if (conn->sent) {
 473              		.loc 1 123 5 discriminator 2
 123:C:/Users/stapi/OneDrive/Desktop/GD32VW553/V1_MQTT_OK/GD32VW55X_Wifi_BLE_SDK/GD32VW55x_RELEASE_V1.0.2/MSDK/lwip/lwip-2.1.2/src/core\altcp_tcp.c ****     if (conn->sent) {
 474              		.loc 1 123 5 discriminator 2
 475 0060 01A0     		j	.L55
 476              	.LVL63:
 477              	.L54:
 478              	.LBB23:
 479              	.LBB24:
 123:C:/Users/stapi/OneDrive/Desktop/GD32VW553/V1_MQTT_OK/GD32VW55X_Wifi_BLE_SDK/GD32VW55x_RELEASE_V1.0.2/MSDK/lwip/lwip-2.1.2/src/core\altcp_tcp.c ****     if (conn->sent) {
 480              		.loc 1 123 5
 123:C:/Users/stapi/OneDrive/Desktop/GD32VW553/V1_MQTT_OK/GD32VW55X_Wifi_BLE_SDK/GD32VW55x_RELEASE_V1.0.2/MSDK/lwip/lwip-2.1.2/src/core\altcp_tcp.c ****     if (conn->sent) {
 481              		.loc 1 123 5
 123:C:/Users/stapi/OneDrive/Desktop/GD32VW553/V1_MQTT_OK/GD32VW55X_Wifi_BLE_SDK/GD32VW55x_RELEASE_V1.0.2/MSDK/lwip/lwip-2.1.2/src/core\altcp_tcp.c ****     if (conn->sent) {
 482              		.loc 1 123 5
 123:C:/Users/stapi/OneDrive/Desktop/GD32VW553/V1_MQTT_OK/GD32VW55X_Wifi_BLE_SDK/GD32VW55x_RELEASE_V1.0.2/MSDK/lwip/lwip-2.1.2/src/core\altcp_tcp.c ****     if (conn->sent) {
 483              		.loc 1 123 5
 123:C:/Users/stapi/OneDrive/Desktop/GD32VW553/V1_MQTT_OK/GD32VW55X_Wifi_BLE_SDK/GD32VW55x_RELEASE_V1.0.2/MSDK/lwip/lwip-2.1.2/src/core\altcp_tcp.c ****     if (conn->sent) {
 484              		.loc 1 123 5
 124:C:/Users/stapi/OneDrive/Desktop/GD32VW553/V1_MQTT_OK/GD32VW55X_Wifi_BLE_SDK/GD32VW55x_RELEASE_V1.0.2/MSDK/lwip/lwip-2.1.2/src/core\altcp_tcp.c ****       return conn->sent(conn->arg, conn, len);
 485              		.loc 1 124 5
 124:C:/Users/stapi/OneDrive/Desktop/GD32VW553/V1_MQTT_OK/GD32VW55X_Wifi_BLE_SDK/GD32VW55x_RELEASE_V1.0.2/MSDK/lwip/lwip-2.1.2/src/core\altcp_tcp.c ****       return conn->sent(conn->arg, conn, len);
 486              		.loc 1 124 13 is_stmt 0
 487 0062 584D     		lw	a4,28(a0)
 488              	.LBE24:
 489              	.LBE23:
 128:C:/Users/stapi/OneDrive/Desktop/GD32VW553/V1_MQTT_OK/GD32VW55X_Wifi_BLE_SDK/GD32VW55x_RELEASE_V1.0.2/MSDK/lwip/lwip-2.1.2/src/core\altcp_tcp.c **** }
 490              		.loc 1 128 10
 491 0064 0145     		li	a0,0
 492              	.LVL64:
 493              	.LBB26:
 494              	.LBB25:
 124:C:/Users/stapi/OneDrive/Desktop/GD32VW553/V1_MQTT_OK/GD32VW55X_Wifi_BLE_SDK/GD32VW55x_RELEASE_V1.0.2/MSDK/lwip/lwip-2.1.2/src/core\altcp_tcp.c ****       return conn->sent(conn->arg, conn, len);
 495              		.loc 1 124 8
 496 0066 01C7     		beq	a4,zero,.L51
 125:C:/Users/stapi/OneDrive/Desktop/GD32VW553/V1_MQTT_OK/GD32VW55X_Wifi_BLE_SDK/GD32VW55x_RELEASE_V1.0.2/MSDK/lwip/lwip-2.1.2/src/core\altcp_tcp.c ****     }
 497              		.loc 1 125 7 is_stmt 1
 125:C:/Users/stapi/OneDrive/Desktop/GD32VW553/V1_MQTT_OK/GD32VW55X_Wifi_BLE_SDK/GD32VW55x_RELEASE_V1.0.2/MSDK/lwip/lwip-2.1.2/src/core\altcp_tcp.c ****     }
 498              		.loc 1 125 14 is_stmt 0
 499 0068 8847     		lw	a0,8(a5)
 500 006a BE85     		mv	a1,a5
 501              	.LVL65:
 502 006c 0297     		jalr	a4
 503              	.LVL66:
 504              	.L51:
 505              	.LBE25:
 506              	.LBE26:
 129:C:/Users/stapi/OneDrive/Desktop/GD32VW553/V1_MQTT_OK/GD32VW55X_Wifi_BLE_SDK/GD32VW55x_RELEASE_V1.0.2/MSDK/lwip/lwip-2.1.2/src/core\altcp_tcp.c **** 
 507              		.loc 1 129 1
 508 006e 17030000 		tail	__riscv_restore_0
 508      67000300 
 509              		.cfi_restore 1
 510              		.cfi_def_cfa_offset 0
 511              	.LVL67:
 512              	.L56:
 128:C:/Users/stapi/OneDrive/Desktop/GD32VW553/V1_MQTT_OK/GD32VW55X_Wifi_BLE_SDK/GD32VW55x_RELEASE_V1.0.2/MSDK/lwip/lwip-2.1.2/src/core\altcp_tcp.c **** }
 513              		.loc 1 128 10
 514 0076 0145     		li	a0,0
 515              	.LVL68:
 129:C:/Users/stapi/OneDrive/Desktop/GD32VW553/V1_MQTT_OK/GD32VW55X_Wifi_BLE_SDK/GD32VW55x_RELEASE_V1.0.2/MSDK/lwip/lwip-2.1.2/src/core\altcp_tcp.c **** 
 516              		.loc 1 129 1
 517 0078 8280     		ret
 518              		.cfi_endproc
 519              	.LFE7:
 521              		.section	.text.altcp_tcp_get_port,"ax",@progbits
 522              		.align	1
 524              	altcp_tcp_get_port:
 525              	.LFB36:
 467:C:/Users/stapi/OneDrive/Desktop/GD32VW553/V1_MQTT_OK/GD32VW55X_Wifi_BLE_SDK/GD32VW55x_RELEASE_V1.0.2/MSDK/lwip/lwip-2.1.2/src/core\altcp_tcp.c **** 
 468:C:/Users/stapi/OneDrive/Desktop/GD32VW553/V1_MQTT_OK/GD32VW55X_Wifi_BLE_SDK/GD32VW55x_RELEASE_V1.0.2/MSDK/lwip/lwip-2.1.2/src/core\altcp_tcp.c **** static ip_addr_t *
 469:C:/Users/stapi/OneDrive/Desktop/GD32VW553/V1_MQTT_OK/GD32VW55X_Wifi_BLE_SDK/GD32VW55x_RELEASE_V1.0.2/MSDK/lwip/lwip-2.1.2/src/core\altcp_tcp.c **** altcp_tcp_get_ip(struct altcp_pcb *conn, int local)
 470:C:/Users/stapi/OneDrive/Desktop/GD32VW553/V1_MQTT_OK/GD32VW55X_Wifi_BLE_SDK/GD32VW55x_RELEASE_V1.0.2/MSDK/lwip/lwip-2.1.2/src/core\altcp_tcp.c **** {
 471:C:/Users/stapi/OneDrive/Desktop/GD32VW553/V1_MQTT_OK/GD32VW55X_Wifi_BLE_SDK/GD32VW55x_RELEASE_V1.0.2/MSDK/lwip/lwip-2.1.2/src/core\altcp_tcp.c ****   if (conn) {
 472:C:/Users/stapi/OneDrive/Desktop/GD32VW553/V1_MQTT_OK/GD32VW55X_Wifi_BLE_SDK/GD32VW55x_RELEASE_V1.0.2/MSDK/lwip/lwip-2.1.2/src/core\altcp_tcp.c ****     struct tcp_pcb *pcb = (struct tcp_pcb *)conn->state;
 473:C:/Users/stapi/OneDrive/Desktop/GD32VW553/V1_MQTT_OK/GD32VW55X_Wifi_BLE_SDK/GD32VW55x_RELEASE_V1.0.2/MSDK/lwip/lwip-2.1.2/src/core\altcp_tcp.c ****     ALTCP_TCP_ASSERT_CONN(conn);
 474:C:/Users/stapi/OneDrive/Desktop/GD32VW553/V1_MQTT_OK/GD32VW55X_Wifi_BLE_SDK/GD32VW55x_RELEASE_V1.0.2/MSDK/lwip/lwip-2.1.2/src/core\altcp_tcp.c ****     if (pcb) {
 475:C:/Users/stapi/OneDrive/Desktop/GD32VW553/V1_MQTT_OK/GD32VW55X_Wifi_BLE_SDK/GD32VW55x_RELEASE_V1.0.2/MSDK/lwip/lwip-2.1.2/src/core\altcp_tcp.c ****       if (local) {
 476:C:/Users/stapi/OneDrive/Desktop/GD32VW553/V1_MQTT_OK/GD32VW55X_Wifi_BLE_SDK/GD32VW55x_RELEASE_V1.0.2/MSDK/lwip/lwip-2.1.2/src/core\altcp_tcp.c ****         return &pcb->local_ip;
 477:C:/Users/stapi/OneDrive/Desktop/GD32VW553/V1_MQTT_OK/GD32VW55X_Wifi_BLE_SDK/GD32VW55x_RELEASE_V1.0.2/MSDK/lwip/lwip-2.1.2/src/core\altcp_tcp.c ****       } else {
 478:C:/Users/stapi/OneDrive/Desktop/GD32VW553/V1_MQTT_OK/GD32VW55X_Wifi_BLE_SDK/GD32VW55x_RELEASE_V1.0.2/MSDK/lwip/lwip-2.1.2/src/core\altcp_tcp.c ****         return &pcb->remote_ip;
 479:C:/Users/stapi/OneDrive/Desktop/GD32VW553/V1_MQTT_OK/GD32VW55X_Wifi_BLE_SDK/GD32VW55x_RELEASE_V1.0.2/MSDK/lwip/lwip-2.1.2/src/core\altcp_tcp.c ****       }
 480:C:/Users/stapi/OneDrive/Desktop/GD32VW553/V1_MQTT_OK/GD32VW55X_Wifi_BLE_SDK/GD32VW55x_RELEASE_V1.0.2/MSDK/lwip/lwip-2.1.2/src/core\altcp_tcp.c ****     }
 481:C:/Users/stapi/OneDrive/Desktop/GD32VW553/V1_MQTT_OK/GD32VW55X_Wifi_BLE_SDK/GD32VW55x_RELEASE_V1.0.2/MSDK/lwip/lwip-2.1.2/src/core\altcp_tcp.c ****   }
 482:C:/Users/stapi/OneDrive/Desktop/GD32VW553/V1_MQTT_OK/GD32VW55X_Wifi_BLE_SDK/GD32VW55x_RELEASE_V1.0.2/MSDK/lwip/lwip-2.1.2/src/core\altcp_tcp.c ****   return NULL;
 483:C:/Users/stapi/OneDrive/Desktop/GD32VW553/V1_MQTT_OK/GD32VW55X_Wifi_BLE_SDK/GD32VW55x_RELEASE_V1.0.2/MSDK/lwip/lwip-2.1.2/src/core\altcp_tcp.c **** }
 484:C:/Users/stapi/OneDrive/Desktop/GD32VW553/V1_MQTT_OK/GD32VW55X_Wifi_BLE_SDK/GD32VW55x_RELEASE_V1.0.2/MSDK/lwip/lwip-2.1.2/src/core\altcp_tcp.c **** 
 485:C:/Users/stapi/OneDrive/Desktop/GD32VW553/V1_MQTT_OK/GD32VW55X_Wifi_BLE_SDK/GD32VW55x_RELEASE_V1.0.2/MSDK/lwip/lwip-2.1.2/src/core\altcp_tcp.c **** static u16_t
 486:C:/Users/stapi/OneDrive/Desktop/GD32VW553/V1_MQTT_OK/GD32VW55X_Wifi_BLE_SDK/GD32VW55x_RELEASE_V1.0.2/MSDK/lwip/lwip-2.1.2/src/core\altcp_tcp.c **** altcp_tcp_get_port(struct altcp_pcb *conn, int local)
 487:C:/Users/stapi/OneDrive/Desktop/GD32VW553/V1_MQTT_OK/GD32VW55X_Wifi_BLE_SDK/GD32VW55x_RELEASE_V1.0.2/MSDK/lwip/lwip-2.1.2/src/core\altcp_tcp.c **** {
 526              		.loc 1 487 1 is_stmt 1
 527              		.cfi_startproc
 528              	.LVL69:
 488:C:/Users/stapi/OneDrive/Desktop/GD32VW553/V1_MQTT_OK/GD32VW55X_Wifi_BLE_SDK/GD32VW55x_RELEASE_V1.0.2/MSDK/lwip/lwip-2.1.2/src/core\altcp_tcp.c ****   if (conn) {
 529              		.loc 1 488 3
 530              		.loc 1 488 6 is_stmt 0
 531 0000 21C5     		beq	a0,zero,.L68
 532              	.LBB31:
 489:C:/Users/stapi/OneDrive/Desktop/GD32VW553/V1_MQTT_OK/GD32VW55X_Wifi_BLE_SDK/GD32VW55x_RELEASE_V1.0.2/MSDK/lwip/lwip-2.1.2/src/core\altcp_tcp.c ****     struct tcp_pcb *pcb = (struct tcp_pcb *)conn->state;
 533              		.loc 1 489 5 is_stmt 1
 534              	.LVL70:
 490:C:/Users/stapi/OneDrive/Desktop/GD32VW553/V1_MQTT_OK/GD32VW55X_Wifi_BLE_SDK/GD32VW55x_RELEASE_V1.0.2/MSDK/lwip/lwip-2.1.2/src/core\altcp_tcp.c ****     ALTCP_TCP_ASSERT_CONN(conn);
 535              		.loc 1 490 5
 536              		.loc 1 490 5
 537              		.loc 1 490 5
 538 0002 5C41     		lw	a5,4(a0)
 539 0004 85CB     		beq	a5,zero,.L65
 540              	.LBE31:
 487:C:/Users/stapi/OneDrive/Desktop/GD32VW553/V1_MQTT_OK/GD32VW55X_Wifi_BLE_SDK/GD32VW55x_RELEASE_V1.0.2/MSDK/lwip/lwip-2.1.2/src/core\altcp_tcp.c ****   if (conn) {
 541              		.loc 1 487 1 is_stmt 0
 542 0006 17030000 		call	t0,__riscv_save_0
 542      E7020300 
 543              		.cfi_offset 1, -4
 544              		.cfi_def_cfa_offset 16
 545              	.LVL71:
 546              	.LBB32:
 547              	.LBB33:
 548              		.loc 1 490 5 is_stmt 1
 549              		.loc 1 490 5
 550 000e B7060000 		lui	a3,%hi(.LC0)
 551 0012 B7050000 		lui	a1,%hi(.LC3)
 552              	.LVL72:
 553 0016 37050000 		lui	a0,%hi(.LC2)
 554              	.LVL73:
 555 001a 93860600 		addi	a3,a3,%lo(.LC0)
 556 001e 1306A01E 		li	a2,490
 557 0022 93850500 		addi	a1,a1,%lo(.LC3)
 558 0026 13050500 		addi	a0,a0,%lo(.LC2)
 559 002a 97000000 		call	printf
 559      E7800000 
 560              	.LVL74:
 561              	.L66:
 562              		.loc 1 490 5
 563              		.loc 1 490 5
 564              		.loc 1 490 5
 565 0032 01A0     		j	.L66
 566              	.LVL75:
 567              	.L65:
 568              		.cfi_def_cfa_offset 0
 569              		.cfi_restore 1
 570              	.LBE33:
 571              	.LBE32:
 572              	.LBB34:
 489:C:/Users/stapi/OneDrive/Desktop/GD32VW553/V1_MQTT_OK/GD32VW55X_Wifi_BLE_SDK/GD32VW55x_RELEASE_V1.0.2/MSDK/lwip/lwip-2.1.2/src/core\altcp_tcp.c ****     struct tcp_pcb *pcb = (struct tcp_pcb *)conn->state;
 573              		.loc 1 489 21 is_stmt 0 discriminator 2
 574 0034 5C45     		lw	a5,12(a0)
 575              		.loc 1 490 5 is_stmt 1 discriminator 2
 576              		.loc 1 490 5 discriminator 2
 577              		.loc 1 490 5 discriminator 2
 578              		.loc 1 490 5 discriminator 2
 491:C:/Users/stapi/OneDrive/Desktop/GD32VW553/V1_MQTT_OK/GD32VW55X_Wifi_BLE_SDK/GD32VW55x_RELEASE_V1.0.2/MSDK/lwip/lwip-2.1.2/src/core\altcp_tcp.c ****     if (pcb) {
 579              		.loc 1 491 5 discriminator 2
 580              	.LBE34:
 492:C:/Users/stapi/OneDrive/Desktop/GD32VW553/V1_MQTT_OK/GD32VW55X_Wifi_BLE_SDK/GD32VW55x_RELEASE_V1.0.2/MSDK/lwip/lwip-2.1.2/src/core\altcp_tcp.c ****       if (local) {
 493:C:/Users/stapi/OneDrive/Desktop/GD32VW553/V1_MQTT_OK/GD32VW55X_Wifi_BLE_SDK/GD32VW55x_RELEASE_V1.0.2/MSDK/lwip/lwip-2.1.2/src/core\altcp_tcp.c ****         return pcb->local_port;
 494:C:/Users/stapi/OneDrive/Desktop/GD32VW553/V1_MQTT_OK/GD32VW55X_Wifi_BLE_SDK/GD32VW55x_RELEASE_V1.0.2/MSDK/lwip/lwip-2.1.2/src/core\altcp_tcp.c ****       } else {
 495:C:/Users/stapi/OneDrive/Desktop/GD32VW553/V1_MQTT_OK/GD32VW55X_Wifi_BLE_SDK/GD32VW55x_RELEASE_V1.0.2/MSDK/lwip/lwip-2.1.2/src/core\altcp_tcp.c ****         return pcb->remote_port;
 496:C:/Users/stapi/OneDrive/Desktop/GD32VW553/V1_MQTT_OK/GD32VW55X_Wifi_BLE_SDK/GD32VW55x_RELEASE_V1.0.2/MSDK/lwip/lwip-2.1.2/src/core\altcp_tcp.c ****       }
 497:C:/Users/stapi/OneDrive/Desktop/GD32VW553/V1_MQTT_OK/GD32VW55X_Wifi_BLE_SDK/GD32VW55x_RELEASE_V1.0.2/MSDK/lwip/lwip-2.1.2/src/core\altcp_tcp.c ****     }
 498:C:/Users/stapi/OneDrive/Desktop/GD32VW553/V1_MQTT_OK/GD32VW55X_Wifi_BLE_SDK/GD32VW55x_RELEASE_V1.0.2/MSDK/lwip/lwip-2.1.2/src/core\altcp_tcp.c ****   }
 499:C:/Users/stapi/OneDrive/Desktop/GD32VW553/V1_MQTT_OK/GD32VW55X_Wifi_BLE_SDK/GD32VW55x_RELEASE_V1.0.2/MSDK/lwip/lwip-2.1.2/src/core\altcp_tcp.c ****   return 0;
 581              		.loc 1 499 10 is_stmt 0 discriminator 2
 582 0036 0145     		li	a0,0
 583              	.LVL76:
 584              	.LBB35:
 491:C:/Users/stapi/OneDrive/Desktop/GD32VW553/V1_MQTT_OK/GD32VW55X_Wifi_BLE_SDK/GD32VW55x_RELEASE_V1.0.2/MSDK/lwip/lwip-2.1.2/src/core\altcp_tcp.c ****     if (pcb) {
 585              		.loc 1 491 8 discriminator 2
 586 0038 89CB     		beq	a5,zero,.L64
 492:C:/Users/stapi/OneDrive/Desktop/GD32VW553/V1_MQTT_OK/GD32VW55X_Wifi_BLE_SDK/GD32VW55x_RELEASE_V1.0.2/MSDK/lwip/lwip-2.1.2/src/core\altcp_tcp.c ****       if (local) {
 587              		.loc 1 492 7 is_stmt 1
 492:C:/Users/stapi/OneDrive/Desktop/GD32VW553/V1_MQTT_OK/GD32VW55X_Wifi_BLE_SDK/GD32VW55x_RELEASE_V1.0.2/MSDK/lwip/lwip-2.1.2/src/core\altcp_tcp.c ****       if (local) {
 588              		.loc 1 492 10 is_stmt 0
 589 003a 81C5     		beq	a1,zero,.L67
 493:C:/Users/stapi/OneDrive/Desktop/GD32VW553/V1_MQTT_OK/GD32VW55X_Wifi_BLE_SDK/GD32VW55x_RELEASE_V1.0.2/MSDK/lwip/lwip-2.1.2/src/core\altcp_tcp.c ****       } else {
 590              		.loc 1 493 9 is_stmt 1
 493:C:/Users/stapi/OneDrive/Desktop/GD32VW553/V1_MQTT_OK/GD32VW55X_Wifi_BLE_SDK/GD32VW55x_RELEASE_V1.0.2/MSDK/lwip/lwip-2.1.2/src/core\altcp_tcp.c ****       } else {
 591              		.loc 1 493 19 is_stmt 0
 592 003c 03D5A701 		lhu	a0,26(a5)
 593 0040 8280     		ret
 594              	.L67:
 495:C:/Users/stapi/OneDrive/Desktop/GD32VW553/V1_MQTT_OK/GD32VW55X_Wifi_BLE_SDK/GD32VW55x_RELEASE_V1.0.2/MSDK/lwip/lwip-2.1.2/src/core\altcp_tcp.c ****       }
 595              		.loc 1 495 9 is_stmt 1
 495:C:/Users/stapi/OneDrive/Desktop/GD32VW553/V1_MQTT_OK/GD32VW55X_Wifi_BLE_SDK/GD32VW55x_RELEASE_V1.0.2/MSDK/lwip/lwip-2.1.2/src/core\altcp_tcp.c ****       }
 596              		.loc 1 495 19 is_stmt 0
 597 0042 03D5C701 		lhu	a0,28(a5)
 598 0046 8280     		ret
 599              	.LVL77:
 600              	.L68:
 601              	.LBE35:
 602              		.loc 1 499 10
 603 0048 0145     		li	a0,0
 604              	.LVL78:
 605              	.L64:
 500:C:/Users/stapi/OneDrive/Desktop/GD32VW553/V1_MQTT_OK/GD32VW55X_Wifi_BLE_SDK/GD32VW55x_RELEASE_V1.0.2/MSDK/lwip/lwip-2.1.2/src/core\altcp_tcp.c **** }
 606              		.loc 1 500 1
 607 004a 8280     		ret
 608              		.cfi_endproc
 609              	.LFE36:
 611              		.section	.text.altcp_tcp_get_ip,"ax",@progbits
 612              		.align	1
 614              	altcp_tcp_get_ip:
 615              	.LFB35:
 470:C:/Users/stapi/OneDrive/Desktop/GD32VW553/V1_MQTT_OK/GD32VW55X_Wifi_BLE_SDK/GD32VW55x_RELEASE_V1.0.2/MSDK/lwip/lwip-2.1.2/src/core\altcp_tcp.c ****   if (conn) {
 616              		.loc 1 470 1 is_stmt 1
 617              		.cfi_startproc
 618              	.LVL79:
 471:C:/Users/stapi/OneDrive/Desktop/GD32VW553/V1_MQTT_OK/GD32VW55X_Wifi_BLE_SDK/GD32VW55x_RELEASE_V1.0.2/MSDK/lwip/lwip-2.1.2/src/core\altcp_tcp.c ****     struct tcp_pcb *pcb = (struct tcp_pcb *)conn->state;
 619              		.loc 1 471 3
 471:C:/Users/stapi/OneDrive/Desktop/GD32VW553/V1_MQTT_OK/GD32VW55X_Wifi_BLE_SDK/GD32VW55x_RELEASE_V1.0.2/MSDK/lwip/lwip-2.1.2/src/core\altcp_tcp.c ****     struct tcp_pcb *pcb = (struct tcp_pcb *)conn->state;
 620              		.loc 1 471 6 is_stmt 0
 621 0000 21C1     		beq	a0,zero,.L78
 622 0002 AA87     		mv	a5,a0
 623              	.LBB40:
 472:C:/Users/stapi/OneDrive/Desktop/GD32VW553/V1_MQTT_OK/GD32VW55X_Wifi_BLE_SDK/GD32VW55x_RELEASE_V1.0.2/MSDK/lwip/lwip-2.1.2/src/core\altcp_tcp.c ****     ALTCP_TCP_ASSERT_CONN(conn);
 624              		.loc 1 472 5 is_stmt 1
 473:C:/Users/stapi/OneDrive/Desktop/GD32VW553/V1_MQTT_OK/GD32VW55X_Wifi_BLE_SDK/GD32VW55x_RELEASE_V1.0.2/MSDK/lwip/lwip-2.1.2/src/core\altcp_tcp.c ****     if (pcb) {
 625              		.loc 1 473 5 is_stmt 0
 626 0004 DC43     		lw	a5,4(a5)
 472:C:/Users/stapi/OneDrive/Desktop/GD32VW553/V1_MQTT_OK/GD32VW55X_Wifi_BLE_SDK/GD32VW55x_RELEASE_V1.0.2/MSDK/lwip/lwip-2.1.2/src/core\altcp_tcp.c ****     ALTCP_TCP_ASSERT_CONN(conn);
 627              		.loc 1 472 21
 628 0006 4845     		lw	a0,12(a0)
 629              	.LVL80:
 473:C:/Users/stapi/OneDrive/Desktop/GD32VW553/V1_MQTT_OK/GD32VW55X_Wifi_BLE_SDK/GD32VW55x_RELEASE_V1.0.2/MSDK/lwip/lwip-2.1.2/src/core\altcp_tcp.c ****     if (pcb) {
 630              		.loc 1 473 5 is_stmt 1
 473:C:/Users/stapi/OneDrive/Desktop/GD32VW553/V1_MQTT_OK/GD32VW55X_Wifi_BLE_SDK/GD32VW55x_RELEASE_V1.0.2/MSDK/lwip/lwip-2.1.2/src/core\altcp_tcp.c ****     if (pcb) {
 631              		.loc 1 473 5
 473:C:/Users/stapi/OneDrive/Desktop/GD32VW553/V1_MQTT_OK/GD32VW55X_Wifi_BLE_SDK/GD32VW55x_RELEASE_V1.0.2/MSDK/lwip/lwip-2.1.2/src/core\altcp_tcp.c ****     if (pcb) {
 632              		.loc 1 473 5
 633 0008 85CB     		beq	a5,zero,.L75
 634              	.LBE40:
 470:C:/Users/stapi/OneDrive/Desktop/GD32VW553/V1_MQTT_OK/GD32VW55X_Wifi_BLE_SDK/GD32VW55x_RELEASE_V1.0.2/MSDK/lwip/lwip-2.1.2/src/core\altcp_tcp.c ****   if (conn) {
 635              		.loc 1 470 1 is_stmt 0
 636 000a 17030000 		call	t0,__riscv_save_0
 636      E7020300 
 637              		.cfi_offset 1, -4
 638              		.cfi_def_cfa_offset 16
 639              	.LVL81:
 640              	.LBB41:
 641              	.LBB42:
 473:C:/Users/stapi/OneDrive/Desktop/GD32VW553/V1_MQTT_OK/GD32VW55X_Wifi_BLE_SDK/GD32VW55x_RELEASE_V1.0.2/MSDK/lwip/lwip-2.1.2/src/core\altcp_tcp.c ****     if (pcb) {
 642              		.loc 1 473 5 is_stmt 1
 473:C:/Users/stapi/OneDrive/Desktop/GD32VW553/V1_MQTT_OK/GD32VW55X_Wifi_BLE_SDK/GD32VW55x_RELEASE_V1.0.2/MSDK/lwip/lwip-2.1.2/src/core\altcp_tcp.c ****     if (pcb) {
 643              		.loc 1 473 5
 644 0012 B7060000 		lui	a3,%hi(.LC0)
 645 0016 B7050000 		lui	a1,%hi(.LC3)
 646              	.LVL82:
 647 001a 37050000 		lui	a0,%hi(.LC2)
 648              	.LVL83:
 649 001e 93860600 		addi	a3,a3,%lo(.LC0)
 650 0022 1306901D 		li	a2,473
 651 0026 93850500 		addi	a1,a1,%lo(.LC3)
 652 002a 13050500 		addi	a0,a0,%lo(.LC2)
 653 002e 97000000 		call	printf
 653      E7800000 
 654              	.LVL84:
 655              	.L76:
 473:C:/Users/stapi/OneDrive/Desktop/GD32VW553/V1_MQTT_OK/GD32VW55X_Wifi_BLE_SDK/GD32VW55x_RELEASE_V1.0.2/MSDK/lwip/lwip-2.1.2/src/core\altcp_tcp.c ****     if (pcb) {
 656              		.loc 1 473 5
 473:C:/Users/stapi/OneDrive/Desktop/GD32VW553/V1_MQTT_OK/GD32VW55X_Wifi_BLE_SDK/GD32VW55x_RELEASE_V1.0.2/MSDK/lwip/lwip-2.1.2/src/core\altcp_tcp.c ****     if (pcb) {
 657              		.loc 1 473 5
 473:C:/Users/stapi/OneDrive/Desktop/GD32VW553/V1_MQTT_OK/GD32VW55X_Wifi_BLE_SDK/GD32VW55x_RELEASE_V1.0.2/MSDK/lwip/lwip-2.1.2/src/core\altcp_tcp.c ****     if (pcb) {
 658              		.loc 1 473 5
 659 0036 01A0     		j	.L76
 660              	.LVL85:
 661              	.L75:
 662              		.cfi_def_cfa_offset 0
 663              		.cfi_restore 1
 664              	.LBE42:
 665              	.LBE41:
 666              	.LBB43:
 473:C:/Users/stapi/OneDrive/Desktop/GD32VW553/V1_MQTT_OK/GD32VW55X_Wifi_BLE_SDK/GD32VW55x_RELEASE_V1.0.2/MSDK/lwip/lwip-2.1.2/src/core\altcp_tcp.c ****     if (pcb) {
 667              		.loc 1 473 5 discriminator 2
 473:C:/Users/stapi/OneDrive/Desktop/GD32VW553/V1_MQTT_OK/GD32VW55X_Wifi_BLE_SDK/GD32VW55x_RELEASE_V1.0.2/MSDK/lwip/lwip-2.1.2/src/core\altcp_tcp.c ****     if (pcb) {
 668              		.loc 1 473 5 discriminator 2
 473:C:/Users/stapi/OneDrive/Desktop/GD32VW553/V1_MQTT_OK/GD32VW55X_Wifi_BLE_SDK/GD32VW55x_RELEASE_V1.0.2/MSDK/lwip/lwip-2.1.2/src/core\altcp_tcp.c ****     if (pcb) {
 669              		.loc 1 473 5 discriminator 2
 473:C:/Users/stapi/OneDrive/Desktop/GD32VW553/V1_MQTT_OK/GD32VW55X_Wifi_BLE_SDK/GD32VW55x_RELEASE_V1.0.2/MSDK/lwip/lwip-2.1.2/src/core\altcp_tcp.c ****     if (pcb) {
 670              		.loc 1 473 5 discriminator 2
 474:C:/Users/stapi/OneDrive/Desktop/GD32VW553/V1_MQTT_OK/GD32VW55X_Wifi_BLE_SDK/GD32VW55x_RELEASE_V1.0.2/MSDK/lwip/lwip-2.1.2/src/core\altcp_tcp.c ****       if (local) {
 671              		.loc 1 474 5 discriminator 2
 474:C:/Users/stapi/OneDrive/Desktop/GD32VW553/V1_MQTT_OK/GD32VW55X_Wifi_BLE_SDK/GD32VW55x_RELEASE_V1.0.2/MSDK/lwip/lwip-2.1.2/src/core\altcp_tcp.c ****       if (local) {
 672              		.loc 1 474 8 is_stmt 0 discriminator 2
 673 0038 09C5     		beq	a0,zero,.L73
 475:C:/Users/stapi/OneDrive/Desktop/GD32VW553/V1_MQTT_OK/GD32VW55X_Wifi_BLE_SDK/GD32VW55x_RELEASE_V1.0.2/MSDK/lwip/lwip-2.1.2/src/core\altcp_tcp.c ****         return &pcb->local_ip;
 674              		.loc 1 475 7 is_stmt 1
 475:C:/Users/stapi/OneDrive/Desktop/GD32VW553/V1_MQTT_OK/GD32VW55X_Wifi_BLE_SDK/GD32VW55x_RELEASE_V1.0.2/MSDK/lwip/lwip-2.1.2/src/core\altcp_tcp.c ****         return &pcb->local_ip;
 675              		.loc 1 475 10 is_stmt 0
 676 003a 81E5     		bne	a1,zero,.L73
 478:C:/Users/stapi/OneDrive/Desktop/GD32VW553/V1_MQTT_OK/GD32VW55X_Wifi_BLE_SDK/GD32VW55x_RELEASE_V1.0.2/MSDK/lwip/lwip-2.1.2/src/core\altcp_tcp.c ****       }
 677              		.loc 1 478 9 is_stmt 1
 478:C:/Users/stapi/OneDrive/Desktop/GD32VW553/V1_MQTT_OK/GD32VW55X_Wifi_BLE_SDK/GD32VW55x_RELEASE_V1.0.2/MSDK/lwip/lwip-2.1.2/src/core\altcp_tcp.c ****       }
 678              		.loc 1 478 16 is_stmt 0
 679 003c 1105     		addi	a0,a0,4
 680              	.LVL86:
 681 003e 8280     		ret
 682              	.LVL87:
 683              	.L78:
 684              	.LBE43:
 482:C:/Users/stapi/OneDrive/Desktop/GD32VW553/V1_MQTT_OK/GD32VW55X_Wifi_BLE_SDK/GD32VW55x_RELEASE_V1.0.2/MSDK/lwip/lwip-2.1.2/src/core\altcp_tcp.c **** }
 685              		.loc 1 482 10
 686 0040 0145     		li	a0,0
 687              	.LVL88:
 688              	.L73:
 483:C:/Users/stapi/OneDrive/Desktop/GD32VW553/V1_MQTT_OK/GD32VW55X_Wifi_BLE_SDK/GD32VW55x_RELEASE_V1.0.2/MSDK/lwip/lwip-2.1.2/src/core\altcp_tcp.c **** 
 689              		.loc 1 483 1
 690 0042 8280     		ret
 691              		.cfi_endproc
 692              	.LFE35:
 694              		.section	.text.altcp_tcp_dealloc,"ax",@progbits
 695              		.align	1
 697              	altcp_tcp_dealloc:
 698              	.LFB33:
 451:C:/Users/stapi/OneDrive/Desktop/GD32VW553/V1_MQTT_OK/GD32VW55X_Wifi_BLE_SDK/GD32VW55x_RELEASE_V1.0.2/MSDK/lwip/lwip-2.1.2/src/core\altcp_tcp.c ****   LWIP_UNUSED_ARG(conn);
 699              		.loc 1 451 1 is_stmt 1
 700              		.cfi_startproc
 701              	.LVL89:
 452:C:/Users/stapi/OneDrive/Desktop/GD32VW553/V1_MQTT_OK/GD32VW55X_Wifi_BLE_SDK/GD32VW55x_RELEASE_V1.0.2/MSDK/lwip/lwip-2.1.2/src/core\altcp_tcp.c ****   ALTCP_TCP_ASSERT_CONN(conn);
 702              		.loc 1 452 3
 453:C:/Users/stapi/OneDrive/Desktop/GD32VW553/V1_MQTT_OK/GD32VW55X_Wifi_BLE_SDK/GD32VW55x_RELEASE_V1.0.2/MSDK/lwip/lwip-2.1.2/src/core\altcp_tcp.c ****   /* no private state to clean up */
 703              		.loc 1 453 3
 453:C:/Users/stapi/OneDrive/Desktop/GD32VW553/V1_MQTT_OK/GD32VW55X_Wifi_BLE_SDK/GD32VW55x_RELEASE_V1.0.2/MSDK/lwip/lwip-2.1.2/src/core\altcp_tcp.c ****   /* no private state to clean up */
 704              		.loc 1 453 3
 453:C:/Users/stapi/OneDrive/Desktop/GD32VW553/V1_MQTT_OK/GD32VW55X_Wifi_BLE_SDK/GD32VW55x_RELEASE_V1.0.2/MSDK/lwip/lwip-2.1.2/src/core\altcp_tcp.c ****   /* no private state to clean up */
 705              		.loc 1 453 3
 706 0000 5C41     		lw	a5,4(a0)
 707 0002 85CB     		beq	a5,zero,.L85
 451:C:/Users/stapi/OneDrive/Desktop/GD32VW553/V1_MQTT_OK/GD32VW55X_Wifi_BLE_SDK/GD32VW55x_RELEASE_V1.0.2/MSDK/lwip/lwip-2.1.2/src/core\altcp_tcp.c ****   LWIP_UNUSED_ARG(conn);
 708              		.loc 1 451 1 is_stmt 0
 709 0004 17030000 		call	t0,__riscv_save_0
 709      E7020300 
 710              		.cfi_offset 1, -4
 711              		.cfi_def_cfa_offset 16
 712              	.LVL90:
 713              	.LBB46:
 714              	.LBB47:
 453:C:/Users/stapi/OneDrive/Desktop/GD32VW553/V1_MQTT_OK/GD32VW55X_Wifi_BLE_SDK/GD32VW55x_RELEASE_V1.0.2/MSDK/lwip/lwip-2.1.2/src/core\altcp_tcp.c ****   /* no private state to clean up */
 715              		.loc 1 453 3 is_stmt 1
 453:C:/Users/stapi/OneDrive/Desktop/GD32VW553/V1_MQTT_OK/GD32VW55X_Wifi_BLE_SDK/GD32VW55x_RELEASE_V1.0.2/MSDK/lwip/lwip-2.1.2/src/core\altcp_tcp.c ****   /* no private state to clean up */
 716              		.loc 1 453 3
 717 000c B7060000 		lui	a3,%hi(.LC0)
 718 0010 B7050000 		lui	a1,%hi(.LC3)
 719 0014 37050000 		lui	a0,%hi(.LC2)
 720              	.LVL91:
 721 0018 93860600 		addi	a3,a3,%lo(.LC0)
 722 001c 1306501C 		li	a2,453
 723 0020 93850500 		addi	a1,a1,%lo(.LC3)
 724 0024 13050500 		addi	a0,a0,%lo(.LC2)
 725 0028 97000000 		call	printf
 725      E7800000 
 726              	.LVL92:
 727              	.L87:
 453:C:/Users/stapi/OneDrive/Desktop/GD32VW553/V1_MQTT_OK/GD32VW55X_Wifi_BLE_SDK/GD32VW55x_RELEASE_V1.0.2/MSDK/lwip/lwip-2.1.2/src/core\altcp_tcp.c ****   /* no private state to clean up */
 728              		.loc 1 453 3
 453:C:/Users/stapi/OneDrive/Desktop/GD32VW553/V1_MQTT_OK/GD32VW55X_Wifi_BLE_SDK/GD32VW55x_RELEASE_V1.0.2/MSDK/lwip/lwip-2.1.2/src/core\altcp_tcp.c ****   /* no private state to clean up */
 729              		.loc 1 453 3
 453:C:/Users/stapi/OneDrive/Desktop/GD32VW553/V1_MQTT_OK/GD32VW55X_Wifi_BLE_SDK/GD32VW55x_RELEASE_V1.0.2/MSDK/lwip/lwip-2.1.2/src/core\altcp_tcp.c ****   /* no private state to clean up */
 730              		.loc 1 453 3
 731 0030 01A0     		j	.L87
 732              	.LVL93:
 733              	.L85:
 734              		.cfi_def_cfa_offset 0
 735              		.cfi_restore 1
 736 0032 8280     		ret
 737              	.LBE47:
 738              	.LBE46:
 739              		.cfi_endproc
 740              	.LFE33:
 742              		.section	.text.altcp_tcp_nagle_disabled,"ax",@progbits
 743              		.align	1
 745              	altcp_tcp_nagle_disabled:
 746              	.LFB31:
 430:C:/Users/stapi/OneDrive/Desktop/GD32VW553/V1_MQTT_OK/GD32VW55X_Wifi_BLE_SDK/GD32VW55x_RELEASE_V1.0.2/MSDK/lwip/lwip-2.1.2/src/core\altcp_tcp.c ****   if (conn && conn->state) {
 747              		.loc 1 430 1
 748              		.cfi_startproc
 749              	.LVL94:
 431:C:/Users/stapi/OneDrive/Desktop/GD32VW553/V1_MQTT_OK/GD32VW55X_Wifi_BLE_SDK/GD32VW55x_RELEASE_V1.0.2/MSDK/lwip/lwip-2.1.2/src/core\altcp_tcp.c ****     struct tcp_pcb *pcb = (struct tcp_pcb *)conn->state;
 750              		.loc 1 431 3
 431:C:/Users/stapi/OneDrive/Desktop/GD32VW553/V1_MQTT_OK/GD32VW55X_Wifi_BLE_SDK/GD32VW55x_RELEASE_V1.0.2/MSDK/lwip/lwip-2.1.2/src/core\altcp_tcp.c ****     struct tcp_pcb *pcb = (struct tcp_pcb *)conn->state;
 751              		.loc 1 431 6 is_stmt 0
 752 0000 29C1     		beq	a0,zero,.L96
 431:C:/Users/stapi/OneDrive/Desktop/GD32VW553/V1_MQTT_OK/GD32VW55X_Wifi_BLE_SDK/GD32VW55x_RELEASE_V1.0.2/MSDK/lwip/lwip-2.1.2/src/core\altcp_tcp.c ****     struct tcp_pcb *pcb = (struct tcp_pcb *)conn->state;
 753              		.loc 1 431 19 discriminator 1
 754 0002 5C45     		lw	a5,12(a0)
 431:C:/Users/stapi/OneDrive/Desktop/GD32VW553/V1_MQTT_OK/GD32VW55X_Wifi_BLE_SDK/GD32VW55x_RELEASE_V1.0.2/MSDK/lwip/lwip-2.1.2/src/core\altcp_tcp.c ****     struct tcp_pcb *pcb = (struct tcp_pcb *)conn->state;
 755              		.loc 1 431 12 discriminator 1
 756 0004 9DCF     		beq	a5,zero,.L96
 757              	.LBB52:
 432:C:/Users/stapi/OneDrive/Desktop/GD32VW553/V1_MQTT_OK/GD32VW55X_Wifi_BLE_SDK/GD32VW55x_RELEASE_V1.0.2/MSDK/lwip/lwip-2.1.2/src/core\altcp_tcp.c ****     ALTCP_TCP_ASSERT_CONN(conn);
 758              		.loc 1 432 5 is_stmt 1
 759              	.LVL95:
 433:C:/Users/stapi/OneDrive/Desktop/GD32VW553/V1_MQTT_OK/GD32VW55X_Wifi_BLE_SDK/GD32VW55x_RELEASE_V1.0.2/MSDK/lwip/lwip-2.1.2/src/core\altcp_tcp.c ****     return tcp_nagle_disabled(pcb);
 760              		.loc 1 433 5
 433:C:/Users/stapi/OneDrive/Desktop/GD32VW553/V1_MQTT_OK/GD32VW55X_Wifi_BLE_SDK/GD32VW55x_RELEASE_V1.0.2/MSDK/lwip/lwip-2.1.2/src/core\altcp_tcp.c ****     return tcp_nagle_disabled(pcb);
 761              		.loc 1 433 5
 433:C:/Users/stapi/OneDrive/Desktop/GD32VW553/V1_MQTT_OK/GD32VW55X_Wifi_BLE_SDK/GD32VW55x_RELEASE_V1.0.2/MSDK/lwip/lwip-2.1.2/src/core\altcp_tcp.c ****     return tcp_nagle_disabled(pcb);
 762              		.loc 1 433 5
 763 0006 5841     		lw	a4,4(a0)
 764 0008 05CB     		beq	a4,zero,.L93
 765              	.LBE52:
 430:C:/Users/stapi/OneDrive/Desktop/GD32VW553/V1_MQTT_OK/GD32VW55X_Wifi_BLE_SDK/GD32VW55x_RELEASE_V1.0.2/MSDK/lwip/lwip-2.1.2/src/core\altcp_tcp.c ****   if (conn && conn->state) {
 766              		.loc 1 430 1 is_stmt 0
 767 000a 17030000 		call	t0,__riscv_save_0
 767      E7020300 
 768              		.cfi_offset 1, -4
 769              		.cfi_def_cfa_offset 16
 770              	.LVL96:
 771              	.LBB53:
 772              	.LBB54:
 433:C:/Users/stapi/OneDrive/Desktop/GD32VW553/V1_MQTT_OK/GD32VW55X_Wifi_BLE_SDK/GD32VW55x_RELEASE_V1.0.2/MSDK/lwip/lwip-2.1.2/src/core\altcp_tcp.c ****     return tcp_nagle_disabled(pcb);
 773              		.loc 1 433 5 is_stmt 1
 433:C:/Users/stapi/OneDrive/Desktop/GD32VW553/V1_MQTT_OK/GD32VW55X_Wifi_BLE_SDK/GD32VW55x_RELEASE_V1.0.2/MSDK/lwip/lwip-2.1.2/src/core\altcp_tcp.c ****     return tcp_nagle_disabled(pcb);
 774              		.loc 1 433 5
 775 0012 B7060000 		lui	a3,%hi(.LC0)
 776 0016 B7050000 		lui	a1,%hi(.LC3)
 777 001a 37050000 		lui	a0,%hi(.LC2)
 778              	.LVL97:
 779 001e 93860600 		addi	a3,a3,%lo(.LC0)
 780 0022 1306101B 		li	a2,433
 781 0026 93850500 		addi	a1,a1,%lo(.LC3)
 782 002a 13050500 		addi	a0,a0,%lo(.LC2)
 783 002e 97000000 		call	printf
 783      E7800000 
 784              	.LVL98:
 785              	.L94:
 433:C:/Users/stapi/OneDrive/Desktop/GD32VW553/V1_MQTT_OK/GD32VW55X_Wifi_BLE_SDK/GD32VW55x_RELEASE_V1.0.2/MSDK/lwip/lwip-2.1.2/src/core\altcp_tcp.c ****     return tcp_nagle_disabled(pcb);
 786              		.loc 1 433 5
 433:C:/Users/stapi/OneDrive/Desktop/GD32VW553/V1_MQTT_OK/GD32VW55X_Wifi_BLE_SDK/GD32VW55x_RELEASE_V1.0.2/MSDK/lwip/lwip-2.1.2/src/core\altcp_tcp.c ****     return tcp_nagle_disabled(pcb);
 787              		.loc 1 433 5
 433:C:/Users/stapi/OneDrive/Desktop/GD32VW553/V1_MQTT_OK/GD32VW55X_Wifi_BLE_SDK/GD32VW55x_RELEASE_V1.0.2/MSDK/lwip/lwip-2.1.2/src/core\altcp_tcp.c ****     return tcp_nagle_disabled(pcb);
 788              		.loc 1 433 5
 789 0036 01A0     		j	.L94
 790              	.LVL99:
 791              	.L93:
 792              		.cfi_def_cfa_offset 0
 793              		.cfi_restore 1
 794              	.LBE54:
 795              	.LBE53:
 796              	.LBB55:
 433:C:/Users/stapi/OneDrive/Desktop/GD32VW553/V1_MQTT_OK/GD32VW55X_Wifi_BLE_SDK/GD32VW55x_RELEASE_V1.0.2/MSDK/lwip/lwip-2.1.2/src/core\altcp_tcp.c ****     return tcp_nagle_disabled(pcb);
 797              		.loc 1 433 5 discriminator 2
 433:C:/Users/stapi/OneDrive/Desktop/GD32VW553/V1_MQTT_OK/GD32VW55X_Wifi_BLE_SDK/GD32VW55x_RELEASE_V1.0.2/MSDK/lwip/lwip-2.1.2/src/core\altcp_tcp.c ****     return tcp_nagle_disabled(pcb);
 798              		.loc 1 433 5 discriminator 2
 433:C:/Users/stapi/OneDrive/Desktop/GD32VW553/V1_MQTT_OK/GD32VW55X_Wifi_BLE_SDK/GD32VW55x_RELEASE_V1.0.2/MSDK/lwip/lwip-2.1.2/src/core\altcp_tcp.c ****     return tcp_nagle_disabled(pcb);
 799              		.loc 1 433 5 discriminator 2
 433:C:/Users/stapi/OneDrive/Desktop/GD32VW553/V1_MQTT_OK/GD32VW55X_Wifi_BLE_SDK/GD32VW55x_RELEASE_V1.0.2/MSDK/lwip/lwip-2.1.2/src/core\altcp_tcp.c ****     return tcp_nagle_disabled(pcb);
 800              		.loc 1 433 5 discriminator 2
 434:C:/Users/stapi/OneDrive/Desktop/GD32VW553/V1_MQTT_OK/GD32VW55X_Wifi_BLE_SDK/GD32VW55x_RELEASE_V1.0.2/MSDK/lwip/lwip-2.1.2/src/core\altcp_tcp.c ****   }
 801              		.loc 1 434 5 discriminator 2
 434:C:/Users/stapi/OneDrive/Desktop/GD32VW553/V1_MQTT_OK/GD32VW55X_Wifi_BLE_SDK/GD32VW55x_RELEASE_V1.0.2/MSDK/lwip/lwip-2.1.2/src/core\altcp_tcp.c ****   }
 802              		.loc 1 434 12 is_stmt 0 discriminator 2
 803 0038 03D5E701 		lhu	a0,30(a5)
 804              	.LVL100:
 805 003c 13556548 		bexti	a0,a0,6
 806 0040 8280     		ret
 807              	.LVL101:
 808              	.L96:
 809              	.LBE55:
 436:C:/Users/stapi/OneDrive/Desktop/GD32VW553/V1_MQTT_OK/GD32VW55X_Wifi_BLE_SDK/GD32VW55x_RELEASE_V1.0.2/MSDK/lwip/lwip-2.1.2/src/core\altcp_tcp.c **** }
 810              		.loc 1 436 10
 811 0042 0145     		li	a0,0
 812              	.LVL102:
 437:C:/Users/stapi/OneDrive/Desktop/GD32VW553/V1_MQTT_OK/GD32VW55X_Wifi_BLE_SDK/GD32VW55x_RELEASE_V1.0.2/MSDK/lwip/lwip-2.1.2/src/core\altcp_tcp.c **** 
 813              		.loc 1 437 1
 814 0044 8280     		ret
 815              		.cfi_endproc
 816              	.LFE31:
 818              		.section	.text.altcp_tcp_nagle_enable,"ax",@progbits
 819              		.align	1
 821              	altcp_tcp_nagle_enable:
 822              	.LFB30:
 420:C:/Users/stapi/OneDrive/Desktop/GD32VW553/V1_MQTT_OK/GD32VW55X_Wifi_BLE_SDK/GD32VW55x_RELEASE_V1.0.2/MSDK/lwip/lwip-2.1.2/src/core\altcp_tcp.c ****   if (conn && conn->state) {
 823              		.loc 1 420 1 is_stmt 1
 824              		.cfi_startproc
 825              	.LVL103:
 421:C:/Users/stapi/OneDrive/Desktop/GD32VW553/V1_MQTT_OK/GD32VW55X_Wifi_BLE_SDK/GD32VW55x_RELEASE_V1.0.2/MSDK/lwip/lwip-2.1.2/src/core\altcp_tcp.c ****     struct tcp_pcb *pcb = (struct tcp_pcb *)conn->state;
 826              		.loc 1 421 3
 421:C:/Users/stapi/OneDrive/Desktop/GD32VW553/V1_MQTT_OK/GD32VW55X_Wifi_BLE_SDK/GD32VW55x_RELEASE_V1.0.2/MSDK/lwip/lwip-2.1.2/src/core\altcp_tcp.c ****     struct tcp_pcb *pcb = (struct tcp_pcb *)conn->state;
 827              		.loc 1 421 6 is_stmt 0
 828 0000 31C1     		beq	a0,zero,.L100
 421:C:/Users/stapi/OneDrive/Desktop/GD32VW553/V1_MQTT_OK/GD32VW55X_Wifi_BLE_SDK/GD32VW55x_RELEASE_V1.0.2/MSDK/lwip/lwip-2.1.2/src/core\altcp_tcp.c ****     struct tcp_pcb *pcb = (struct tcp_pcb *)conn->state;
 829              		.loc 1 421 19 discriminator 1
 830 0002 5C45     		lw	a5,12(a0)
 421:C:/Users/stapi/OneDrive/Desktop/GD32VW553/V1_MQTT_OK/GD32VW55X_Wifi_BLE_SDK/GD32VW55x_RELEASE_V1.0.2/MSDK/lwip/lwip-2.1.2/src/core\altcp_tcp.c ****     struct tcp_pcb *pcb = (struct tcp_pcb *)conn->state;
 831              		.loc 1 421 12 discriminator 1
 832 0004 A1C3     		beq	a5,zero,.L100
 833              	.LBB60:
 422:C:/Users/stapi/OneDrive/Desktop/GD32VW553/V1_MQTT_OK/GD32VW55X_Wifi_BLE_SDK/GD32VW55x_RELEASE_V1.0.2/MSDK/lwip/lwip-2.1.2/src/core\altcp_tcp.c ****     ALTCP_TCP_ASSERT_CONN(conn);
 834              		.loc 1 422 5 is_stmt 1
 835              	.LVL104:
 423:C:/Users/stapi/OneDrive/Desktop/GD32VW553/V1_MQTT_OK/GD32VW55X_Wifi_BLE_SDK/GD32VW55x_RELEASE_V1.0.2/MSDK/lwip/lwip-2.1.2/src/core\altcp_tcp.c ****     tcp_nagle_enable(pcb);
 836              		.loc 1 423 5
 423:C:/Users/stapi/OneDrive/Desktop/GD32VW553/V1_MQTT_OK/GD32VW55X_Wifi_BLE_SDK/GD32VW55x_RELEASE_V1.0.2/MSDK/lwip/lwip-2.1.2/src/core\altcp_tcp.c ****     tcp_nagle_enable(pcb);
 837              		.loc 1 423 5
 423:C:/Users/stapi/OneDrive/Desktop/GD32VW553/V1_MQTT_OK/GD32VW55X_Wifi_BLE_SDK/GD32VW55x_RELEASE_V1.0.2/MSDK/lwip/lwip-2.1.2/src/core\altcp_tcp.c ****     tcp_nagle_enable(pcb);
 838              		.loc 1 423 5
 839 0006 5841     		lw	a4,4(a0)
 840 0008 05CB     		beq	a4,zero,.L102
 841              	.LBE60:
 420:C:/Users/stapi/OneDrive/Desktop/GD32VW553/V1_MQTT_OK/GD32VW55X_Wifi_BLE_SDK/GD32VW55x_RELEASE_V1.0.2/MSDK/lwip/lwip-2.1.2/src/core\altcp_tcp.c ****   if (conn && conn->state) {
 842              		.loc 1 420 1 is_stmt 0
 843 000a 17030000 		call	t0,__riscv_save_0
 843      E7020300 
 844              		.cfi_offset 1, -4
 845              		.cfi_def_cfa_offset 16
 846              	.LVL105:
 847              	.LBB61:
 848              	.LBB62:
 423:C:/Users/stapi/OneDrive/Desktop/GD32VW553/V1_MQTT_OK/GD32VW55X_Wifi_BLE_SDK/GD32VW55x_RELEASE_V1.0.2/MSDK/lwip/lwip-2.1.2/src/core\altcp_tcp.c ****     tcp_nagle_enable(pcb);
 849              		.loc 1 423 5 is_stmt 1
 423:C:/Users/stapi/OneDrive/Desktop/GD32VW553/V1_MQTT_OK/GD32VW55X_Wifi_BLE_SDK/GD32VW55x_RELEASE_V1.0.2/MSDK/lwip/lwip-2.1.2/src/core\altcp_tcp.c ****     tcp_nagle_enable(pcb);
 850              		.loc 1 423 5
 851 0012 B7060000 		lui	a3,%hi(.LC0)
 852 0016 B7050000 		lui	a1,%hi(.LC3)
 853 001a 37050000 		lui	a0,%hi(.LC2)
 854              	.LVL106:
 855 001e 93860600 		addi	a3,a3,%lo(.LC0)
 856 0022 1306701A 		li	a2,423
 857 0026 93850500 		addi	a1,a1,%lo(.LC3)
 858 002a 13050500 		addi	a0,a0,%lo(.LC2)
 859 002e 97000000 		call	printf
 859      E7800000 
 860              	.LVL107:
 861              	.L103:
 423:C:/Users/stapi/OneDrive/Desktop/GD32VW553/V1_MQTT_OK/GD32VW55X_Wifi_BLE_SDK/GD32VW55x_RELEASE_V1.0.2/MSDK/lwip/lwip-2.1.2/src/core\altcp_tcp.c ****     tcp_nagle_enable(pcb);
 862              		.loc 1 423 5
 423:C:/Users/stapi/OneDrive/Desktop/GD32VW553/V1_MQTT_OK/GD32VW55X_Wifi_BLE_SDK/GD32VW55x_RELEASE_V1.0.2/MSDK/lwip/lwip-2.1.2/src/core\altcp_tcp.c ****     tcp_nagle_enable(pcb);
 863              		.loc 1 423 5
 423:C:/Users/stapi/OneDrive/Desktop/GD32VW553/V1_MQTT_OK/GD32VW55X_Wifi_BLE_SDK/GD32VW55x_RELEASE_V1.0.2/MSDK/lwip/lwip-2.1.2/src/core\altcp_tcp.c ****     tcp_nagle_enable(pcb);
 864              		.loc 1 423 5
 865 0036 01A0     		j	.L103
 866              	.LVL108:
 867              	.L102:
 868              		.cfi_def_cfa_offset 0
 869              		.cfi_restore 1
 870              	.LBE62:
 871              	.LBE61:
 872              	.LBB63:
 423:C:/Users/stapi/OneDrive/Desktop/GD32VW553/V1_MQTT_OK/GD32VW55X_Wifi_BLE_SDK/GD32VW55x_RELEASE_V1.0.2/MSDK/lwip/lwip-2.1.2/src/core\altcp_tcp.c ****     tcp_nagle_enable(pcb);
 873              		.loc 1 423 5 discriminator 2
 423:C:/Users/stapi/OneDrive/Desktop/GD32VW553/V1_MQTT_OK/GD32VW55X_Wifi_BLE_SDK/GD32VW55x_RELEASE_V1.0.2/MSDK/lwip/lwip-2.1.2/src/core\altcp_tcp.c ****     tcp_nagle_enable(pcb);
 874              		.loc 1 423 5 discriminator 2
 423:C:/Users/stapi/OneDrive/Desktop/GD32VW553/V1_MQTT_OK/GD32VW55X_Wifi_BLE_SDK/GD32VW55x_RELEASE_V1.0.2/MSDK/lwip/lwip-2.1.2/src/core\altcp_tcp.c ****     tcp_nagle_enable(pcb);
 875              		.loc 1 423 5 discriminator 2
 423:C:/Users/stapi/OneDrive/Desktop/GD32VW553/V1_MQTT_OK/GD32VW55X_Wifi_BLE_SDK/GD32VW55x_RELEASE_V1.0.2/MSDK/lwip/lwip-2.1.2/src/core\altcp_tcp.c ****     tcp_nagle_enable(pcb);
 876              		.loc 1 423 5 discriminator 2
 424:C:/Users/stapi/OneDrive/Desktop/GD32VW553/V1_MQTT_OK/GD32VW55X_Wifi_BLE_SDK/GD32VW55x_RELEASE_V1.0.2/MSDK/lwip/lwip-2.1.2/src/core\altcp_tcp.c ****   }
 877              		.loc 1 424 5 discriminator 2
 424:C:/Users/stapi/OneDrive/Desktop/GD32VW553/V1_MQTT_OK/GD32VW55X_Wifi_BLE_SDK/GD32VW55x_RELEASE_V1.0.2/MSDK/lwip/lwip-2.1.2/src/core\altcp_tcp.c ****   }
 878              		.loc 1 424 5 discriminator 2
 879 0038 03D7E701 		lhu	a4,30(a5)
 880 003c 1377F7FB 		andi	a4,a4,-65
 881 0040 239FE700 		sh	a4,30(a5)
 424:C:/Users/stapi/OneDrive/Desktop/GD32VW553/V1_MQTT_OK/GD32VW55X_Wifi_BLE_SDK/GD32VW55x_RELEASE_V1.0.2/MSDK/lwip/lwip-2.1.2/src/core\altcp_tcp.c ****   }
 882              		.loc 1 424 5 discriminator 2
 883              	.LVL109:
 884              	.L100:
 885 0044 8280     		ret
 886              	.LBE63:
 887              		.cfi_endproc
 888              	.LFE30:
 890              		.section	.text.altcp_tcp_nagle_disable,"ax",@progbits
 891              		.align	1
 893              	altcp_tcp_nagle_disable:
 894              	.LFB29:
 410:C:/Users/stapi/OneDrive/Desktop/GD32VW553/V1_MQTT_OK/GD32VW55X_Wifi_BLE_SDK/GD32VW55x_RELEASE_V1.0.2/MSDK/lwip/lwip-2.1.2/src/core\altcp_tcp.c ****   if (conn && conn->state) {
 895              		.loc 1 410 1
 896              		.cfi_startproc
 897              	.LVL110:
 411:C:/Users/stapi/OneDrive/Desktop/GD32VW553/V1_MQTT_OK/GD32VW55X_Wifi_BLE_SDK/GD32VW55x_RELEASE_V1.0.2/MSDK/lwip/lwip-2.1.2/src/core\altcp_tcp.c ****     struct tcp_pcb *pcb = (struct tcp_pcb *)conn->state;
 898              		.loc 1 411 3
 411:C:/Users/stapi/OneDrive/Desktop/GD32VW553/V1_MQTT_OK/GD32VW55X_Wifi_BLE_SDK/GD32VW55x_RELEASE_V1.0.2/MSDK/lwip/lwip-2.1.2/src/core\altcp_tcp.c ****     struct tcp_pcb *pcb = (struct tcp_pcb *)conn->state;
 899              		.loc 1 411 6 is_stmt 0
 900 0000 31C1     		beq	a0,zero,.L113
 411:C:/Users/stapi/OneDrive/Desktop/GD32VW553/V1_MQTT_OK/GD32VW55X_Wifi_BLE_SDK/GD32VW55x_RELEASE_V1.0.2/MSDK/lwip/lwip-2.1.2/src/core\altcp_tcp.c ****     struct tcp_pcb *pcb = (struct tcp_pcb *)conn->state;
 901              		.loc 1 411 19 discriminator 1
 902 0002 5C45     		lw	a5,12(a0)
 411:C:/Users/stapi/OneDrive/Desktop/GD32VW553/V1_MQTT_OK/GD32VW55X_Wifi_BLE_SDK/GD32VW55x_RELEASE_V1.0.2/MSDK/lwip/lwip-2.1.2/src/core\altcp_tcp.c ****     struct tcp_pcb *pcb = (struct tcp_pcb *)conn->state;
 903              		.loc 1 411 12 discriminator 1
 904 0004 A1C3     		beq	a5,zero,.L113
 905              	.LBB68:
 412:C:/Users/stapi/OneDrive/Desktop/GD32VW553/V1_MQTT_OK/GD32VW55X_Wifi_BLE_SDK/GD32VW55x_RELEASE_V1.0.2/MSDK/lwip/lwip-2.1.2/src/core\altcp_tcp.c ****     ALTCP_TCP_ASSERT_CONN(conn);
 906              		.loc 1 412 5 is_stmt 1
 907              	.LVL111:
 413:C:/Users/stapi/OneDrive/Desktop/GD32VW553/V1_MQTT_OK/GD32VW55X_Wifi_BLE_SDK/GD32VW55x_RELEASE_V1.0.2/MSDK/lwip/lwip-2.1.2/src/core\altcp_tcp.c ****     tcp_nagle_disable(pcb);
 908              		.loc 1 413 5
 413:C:/Users/stapi/OneDrive/Desktop/GD32VW553/V1_MQTT_OK/GD32VW55X_Wifi_BLE_SDK/GD32VW55x_RELEASE_V1.0.2/MSDK/lwip/lwip-2.1.2/src/core\altcp_tcp.c ****     tcp_nagle_disable(pcb);
 909              		.loc 1 413 5
 413:C:/Users/stapi/OneDrive/Desktop/GD32VW553/V1_MQTT_OK/GD32VW55X_Wifi_BLE_SDK/GD32VW55x_RELEASE_V1.0.2/MSDK/lwip/lwip-2.1.2/src/core\altcp_tcp.c ****     tcp_nagle_disable(pcb);
 910              		.loc 1 413 5
 911 0006 5841     		lw	a4,4(a0)
 912 0008 05CB     		beq	a4,zero,.L115
 913              	.LBE68:
 410:C:/Users/stapi/OneDrive/Desktop/GD32VW553/V1_MQTT_OK/GD32VW55X_Wifi_BLE_SDK/GD32VW55x_RELEASE_V1.0.2/MSDK/lwip/lwip-2.1.2/src/core\altcp_tcp.c ****   if (conn && conn->state) {
 914              		.loc 1 410 1 is_stmt 0
 915 000a 17030000 		call	t0,__riscv_save_0
 915      E7020300 
 916              		.cfi_offset 1, -4
 917              		.cfi_def_cfa_offset 16
 918              	.LVL112:
 919              	.LBB69:
 920              	.LBB70:
 413:C:/Users/stapi/OneDrive/Desktop/GD32VW553/V1_MQTT_OK/GD32VW55X_Wifi_BLE_SDK/GD32VW55x_RELEASE_V1.0.2/MSDK/lwip/lwip-2.1.2/src/core\altcp_tcp.c ****     tcp_nagle_disable(pcb);
 921              		.loc 1 413 5 is_stmt 1
 413:C:/Users/stapi/OneDrive/Desktop/GD32VW553/V1_MQTT_OK/GD32VW55X_Wifi_BLE_SDK/GD32VW55x_RELEASE_V1.0.2/MSDK/lwip/lwip-2.1.2/src/core\altcp_tcp.c ****     tcp_nagle_disable(pcb);
 922              		.loc 1 413 5
 923 0012 B7060000 		lui	a3,%hi(.LC0)
 924 0016 B7050000 		lui	a1,%hi(.LC3)
 925 001a 37050000 		lui	a0,%hi(.LC2)
 926              	.LVL113:
 927 001e 93860600 		addi	a3,a3,%lo(.LC0)
 928 0022 1306D019 		li	a2,413
 929 0026 93850500 		addi	a1,a1,%lo(.LC3)
 930 002a 13050500 		addi	a0,a0,%lo(.LC2)
 931 002e 97000000 		call	printf
 931      E7800000 
 932              	.LVL114:
 933              	.L116:
 413:C:/Users/stapi/OneDrive/Desktop/GD32VW553/V1_MQTT_OK/GD32VW55X_Wifi_BLE_SDK/GD32VW55x_RELEASE_V1.0.2/MSDK/lwip/lwip-2.1.2/src/core\altcp_tcp.c ****     tcp_nagle_disable(pcb);
 934              		.loc 1 413 5
 413:C:/Users/stapi/OneDrive/Desktop/GD32VW553/V1_MQTT_OK/GD32VW55X_Wifi_BLE_SDK/GD32VW55x_RELEASE_V1.0.2/MSDK/lwip/lwip-2.1.2/src/core\altcp_tcp.c ****     tcp_nagle_disable(pcb);
 935              		.loc 1 413 5
 413:C:/Users/stapi/OneDrive/Desktop/GD32VW553/V1_MQTT_OK/GD32VW55X_Wifi_BLE_SDK/GD32VW55x_RELEASE_V1.0.2/MSDK/lwip/lwip-2.1.2/src/core\altcp_tcp.c ****     tcp_nagle_disable(pcb);
 936              		.loc 1 413 5
 937 0036 01A0     		j	.L116
 938              	.LVL115:
 939              	.L115:
 940              		.cfi_def_cfa_offset 0
 941              		.cfi_restore 1
 942              	.LBE70:
 943              	.LBE69:
 944              	.LBB71:
 413:C:/Users/stapi/OneDrive/Desktop/GD32VW553/V1_MQTT_OK/GD32VW55X_Wifi_BLE_SDK/GD32VW55x_RELEASE_V1.0.2/MSDK/lwip/lwip-2.1.2/src/core\altcp_tcp.c ****     tcp_nagle_disable(pcb);
 945              		.loc 1 413 5 discriminator 2
 413:C:/Users/stapi/OneDrive/Desktop/GD32VW553/V1_MQTT_OK/GD32VW55X_Wifi_BLE_SDK/GD32VW55x_RELEASE_V1.0.2/MSDK/lwip/lwip-2.1.2/src/core\altcp_tcp.c ****     tcp_nagle_disable(pcb);
 946              		.loc 1 413 5 discriminator 2
 413:C:/Users/stapi/OneDrive/Desktop/GD32VW553/V1_MQTT_OK/GD32VW55X_Wifi_BLE_SDK/GD32VW55x_RELEASE_V1.0.2/MSDK/lwip/lwip-2.1.2/src/core\altcp_tcp.c ****     tcp_nagle_disable(pcb);
 947              		.loc 1 413 5 discriminator 2
 413:C:/Users/stapi/OneDrive/Desktop/GD32VW553/V1_MQTT_OK/GD32VW55X_Wifi_BLE_SDK/GD32VW55x_RELEASE_V1.0.2/MSDK/lwip/lwip-2.1.2/src/core\altcp_tcp.c ****     tcp_nagle_disable(pcb);
 948              		.loc 1 413 5 discriminator 2
 414:C:/Users/stapi/OneDrive/Desktop/GD32VW553/V1_MQTT_OK/GD32VW55X_Wifi_BLE_SDK/GD32VW55x_RELEASE_V1.0.2/MSDK/lwip/lwip-2.1.2/src/core\altcp_tcp.c ****   }
 949              		.loc 1 414 5 discriminator 2
 414:C:/Users/stapi/OneDrive/Desktop/GD32VW553/V1_MQTT_OK/GD32VW55X_Wifi_BLE_SDK/GD32VW55x_RELEASE_V1.0.2/MSDK/lwip/lwip-2.1.2/src/core\altcp_tcp.c ****   }
 950              		.loc 1 414 5 discriminator 2
 951 0038 03D7E701 		lhu	a4,30(a5)
 952 003c 13670704 		ori	a4,a4,64
 953 0040 239FE700 		sh	a4,30(a5)
 414:C:/Users/stapi/OneDrive/Desktop/GD32VW553/V1_MQTT_OK/GD32VW55X_Wifi_BLE_SDK/GD32VW55x_RELEASE_V1.0.2/MSDK/lwip/lwip-2.1.2/src/core\altcp_tcp.c ****   }
 954              		.loc 1 414 5 discriminator 2
 955              	.LVL116:
 956              	.L113:
 957 0044 8280     		ret
 958              	.LBE71:
 959              		.cfi_endproc
 960              	.LFE29:
 962              		.section	.text.altcp_tcp_sndqueuelen,"ax",@progbits
 963              		.align	1
 965              	altcp_tcp_sndqueuelen:
 966              	.LFB28:
 398:C:/Users/stapi/OneDrive/Desktop/GD32VW553/V1_MQTT_OK/GD32VW55X_Wifi_BLE_SDK/GD32VW55x_RELEASE_V1.0.2/MSDK/lwip/lwip-2.1.2/src/core\altcp_tcp.c ****   struct tcp_pcb *pcb;
 967              		.loc 1 398 1
 968              		.cfi_startproc
 969              	.LVL117:
 399:C:/Users/stapi/OneDrive/Desktop/GD32VW553/V1_MQTT_OK/GD32VW55X_Wifi_BLE_SDK/GD32VW55x_RELEASE_V1.0.2/MSDK/lwip/lwip-2.1.2/src/core\altcp_tcp.c ****   if (conn == NULL) {
 970              		.loc 1 399 3
 400:C:/Users/stapi/OneDrive/Desktop/GD32VW553/V1_MQTT_OK/GD32VW55X_Wifi_BLE_SDK/GD32VW55x_RELEASE_V1.0.2/MSDK/lwip/lwip-2.1.2/src/core\altcp_tcp.c ****     return 0;
 971              		.loc 1 400 3
 400:C:/Users/stapi/OneDrive/Desktop/GD32VW553/V1_MQTT_OK/GD32VW55X_Wifi_BLE_SDK/GD32VW55x_RELEASE_V1.0.2/MSDK/lwip/lwip-2.1.2/src/core\altcp_tcp.c ****     return 0;
 972              		.loc 1 400 6 is_stmt 0
 973 0000 15CD     		beq	a0,zero,.L130
 403:C:/Users/stapi/OneDrive/Desktop/GD32VW553/V1_MQTT_OK/GD32VW55X_Wifi_BLE_SDK/GD32VW55x_RELEASE_V1.0.2/MSDK/lwip/lwip-2.1.2/src/core\altcp_tcp.c ****   pcb = (struct tcp_pcb *)conn->state;
 974              		.loc 1 403 3 is_stmt 1
 403:C:/Users/stapi/OneDrive/Desktop/GD32VW553/V1_MQTT_OK/GD32VW55X_Wifi_BLE_SDK/GD32VW55x_RELEASE_V1.0.2/MSDK/lwip/lwip-2.1.2/src/core\altcp_tcp.c ****   pcb = (struct tcp_pcb *)conn->state;
 975              		.loc 1 403 3
 403:C:/Users/stapi/OneDrive/Desktop/GD32VW553/V1_MQTT_OK/GD32VW55X_Wifi_BLE_SDK/GD32VW55x_RELEASE_V1.0.2/MSDK/lwip/lwip-2.1.2/src/core\altcp_tcp.c ****   pcb = (struct tcp_pcb *)conn->state;
 976              		.loc 1 403 3
 977 0002 5C41     		lw	a5,4(a0)
 978 0004 85CB     		beq	a5,zero,.L128
 398:C:/Users/stapi/OneDrive/Desktop/GD32VW553/V1_MQTT_OK/GD32VW55X_Wifi_BLE_SDK/GD32VW55x_RELEASE_V1.0.2/MSDK/lwip/lwip-2.1.2/src/core\altcp_tcp.c ****   struct tcp_pcb *pcb;
 979              		.loc 1 398 1 is_stmt 0
 980 0006 17030000 		call	t0,__riscv_save_0
 980      E7020300 
 981              		.cfi_offset 1, -4
 982              		.cfi_def_cfa_offset 16
 983              	.LVL118:
 984              	.LBB74:
 985              	.LBB75:
 403:C:/Users/stapi/OneDrive/Desktop/GD32VW553/V1_MQTT_OK/GD32VW55X_Wifi_BLE_SDK/GD32VW55x_RELEASE_V1.0.2/MSDK/lwip/lwip-2.1.2/src/core\altcp_tcp.c ****   pcb = (struct tcp_pcb *)conn->state;
 986              		.loc 1 403 3 is_stmt 1
 403:C:/Users/stapi/OneDrive/Desktop/GD32VW553/V1_MQTT_OK/GD32VW55X_Wifi_BLE_SDK/GD32VW55x_RELEASE_V1.0.2/MSDK/lwip/lwip-2.1.2/src/core\altcp_tcp.c ****   pcb = (struct tcp_pcb *)conn->state;
 987              		.loc 1 403 3
 988 000e B7060000 		lui	a3,%hi(.LC0)
 989 0012 B7050000 		lui	a1,%hi(.LC3)
 990 0016 37050000 		lui	a0,%hi(.LC2)
 991              	.LVL119:
 992 001a 93860600 		addi	a3,a3,%lo(.LC0)
 993 001e 13063019 		li	a2,403
 994 0022 93850500 		addi	a1,a1,%lo(.LC3)
 995 0026 13050500 		addi	a0,a0,%lo(.LC2)
 996 002a 97000000 		call	printf
 996      E7800000 
 997              	.LVL120:
 998              	.L129:
 403:C:/Users/stapi/OneDrive/Desktop/GD32VW553/V1_MQTT_OK/GD32VW55X_Wifi_BLE_SDK/GD32VW55x_RELEASE_V1.0.2/MSDK/lwip/lwip-2.1.2/src/core\altcp_tcp.c ****   pcb = (struct tcp_pcb *)conn->state;
 999              		.loc 1 403 3
 403:C:/Users/stapi/OneDrive/Desktop/GD32VW553/V1_MQTT_OK/GD32VW55X_Wifi_BLE_SDK/GD32VW55x_RELEASE_V1.0.2/MSDK/lwip/lwip-2.1.2/src/core\altcp_tcp.c ****   pcb = (struct tcp_pcb *)conn->state;
 1000              		.loc 1 403 3
 403:C:/Users/stapi/OneDrive/Desktop/GD32VW553/V1_MQTT_OK/GD32VW55X_Wifi_BLE_SDK/GD32VW55x_RELEASE_V1.0.2/MSDK/lwip/lwip-2.1.2/src/core\altcp_tcp.c ****   pcb = (struct tcp_pcb *)conn->state;
 1001              		.loc 1 403 3
 1002 0032 01A0     		j	.L129
 1003              	.LVL121:
 1004              	.L128:
 1005              		.cfi_def_cfa_offset 0
 1006              		.cfi_restore 1
 1007              	.LBE75:
 1008              	.LBE74:
 403:C:/Users/stapi/OneDrive/Desktop/GD32VW553/V1_MQTT_OK/GD32VW55X_Wifi_BLE_SDK/GD32VW55x_RELEASE_V1.0.2/MSDK/lwip/lwip-2.1.2/src/core\altcp_tcp.c ****   pcb = (struct tcp_pcb *)conn->state;
 1009              		.loc 1 403 3 discriminator 2
 403:C:/Users/stapi/OneDrive/Desktop/GD32VW553/V1_MQTT_OK/GD32VW55X_Wifi_BLE_SDK/GD32VW55x_RELEASE_V1.0.2/MSDK/lwip/lwip-2.1.2/src/core\altcp_tcp.c ****   pcb = (struct tcp_pcb *)conn->state;
 1010              		.loc 1 403 3 discriminator 2
 403:C:/Users/stapi/OneDrive/Desktop/GD32VW553/V1_MQTT_OK/GD32VW55X_Wifi_BLE_SDK/GD32VW55x_RELEASE_V1.0.2/MSDK/lwip/lwip-2.1.2/src/core\altcp_tcp.c ****   pcb = (struct tcp_pcb *)conn->state;
 1011              		.loc 1 403 3 discriminator 2
 403:C:/Users/stapi/OneDrive/Desktop/GD32VW553/V1_MQTT_OK/GD32VW55X_Wifi_BLE_SDK/GD32VW55x_RELEASE_V1.0.2/MSDK/lwip/lwip-2.1.2/src/core\altcp_tcp.c ****   pcb = (struct tcp_pcb *)conn->state;
 1012              		.loc 1 403 3 discriminator 2
 404:C:/Users/stapi/OneDrive/Desktop/GD32VW553/V1_MQTT_OK/GD32VW55X_Wifi_BLE_SDK/GD32VW55x_RELEASE_V1.0.2/MSDK/lwip/lwip-2.1.2/src/core\altcp_tcp.c ****   return tcp_sndqueuelen(pcb);
 1013              		.loc 1 404 3 discriminator 2
 405:C:/Users/stapi/OneDrive/Desktop/GD32VW553/V1_MQTT_OK/GD32VW55X_Wifi_BLE_SDK/GD32VW55x_RELEASE_V1.0.2/MSDK/lwip/lwip-2.1.2/src/core\altcp_tcp.c **** }
 1014              		.loc 1 405 3 discriminator 2
 405:C:/Users/stapi/OneDrive/Desktop/GD32VW553/V1_MQTT_OK/GD32VW55X_Wifi_BLE_SDK/GD32VW55x_RELEASE_V1.0.2/MSDK/lwip/lwip-2.1.2/src/core\altcp_tcp.c **** }
 1015              		.loc 1 405 10 is_stmt 0 discriminator 2
 1016 0034 5C45     		lw	a5,12(a0)
 1017 0036 03D58709 		lhu	a0,152(a5)
 1018              	.LVL122:
 1019 003a 8280     		ret
 1020              	.LVL123:
 1021              	.L130:
 401:C:/Users/stapi/OneDrive/Desktop/GD32VW553/V1_MQTT_OK/GD32VW55X_Wifi_BLE_SDK/GD32VW55x_RELEASE_V1.0.2/MSDK/lwip/lwip-2.1.2/src/core\altcp_tcp.c ****   }
 1022              		.loc 1 401 12
 1023 003c 0145     		li	a0,0
 1024              	.LVL124:
 406:C:/Users/stapi/OneDrive/Desktop/GD32VW553/V1_MQTT_OK/GD32VW55X_Wifi_BLE_SDK/GD32VW55x_RELEASE_V1.0.2/MSDK/lwip/lwip-2.1.2/src/core\altcp_tcp.c **** 
 1025              		.loc 1 406 1
 1026 003e 8280     		ret
 1027              		.cfi_endproc
 1028              	.LFE28:
 1030              		.section	.text.altcp_tcp_mss,"ax",@progbits
 1031              		.align	1
 1033              	altcp_tcp_mss:
 1034              	.LFB26:
 374:C:/Users/stapi/OneDrive/Desktop/GD32VW553/V1_MQTT_OK/GD32VW55X_Wifi_BLE_SDK/GD32VW55x_RELEASE_V1.0.2/MSDK/lwip/lwip-2.1.2/src/core\altcp_tcp.c ****   struct tcp_pcb *pcb;
 1035              		.loc 1 374 1 is_stmt 1
 1036              		.cfi_startproc
 1037              	.LVL125:
 375:C:/Users/stapi/OneDrive/Desktop/GD32VW553/V1_MQTT_OK/GD32VW55X_Wifi_BLE_SDK/GD32VW55x_RELEASE_V1.0.2/MSDK/lwip/lwip-2.1.2/src/core\altcp_tcp.c ****   if (conn == NULL) {
 1038              		.loc 1 375 3
 376:C:/Users/stapi/OneDrive/Desktop/GD32VW553/V1_MQTT_OK/GD32VW55X_Wifi_BLE_SDK/GD32VW55x_RELEASE_V1.0.2/MSDK/lwip/lwip-2.1.2/src/core\altcp_tcp.c ****     return 0;
 1039              		.loc 1 376 3
 376:C:/Users/stapi/OneDrive/Desktop/GD32VW553/V1_MQTT_OK/GD32VW55X_Wifi_BLE_SDK/GD32VW55x_RELEASE_V1.0.2/MSDK/lwip/lwip-2.1.2/src/core\altcp_tcp.c ****     return 0;
 1040              		.loc 1 376 6 is_stmt 0
 1041 0000 15CD     		beq	a0,zero,.L138
 379:C:/Users/stapi/OneDrive/Desktop/GD32VW553/V1_MQTT_OK/GD32VW55X_Wifi_BLE_SDK/GD32VW55x_RELEASE_V1.0.2/MSDK/lwip/lwip-2.1.2/src/core\altcp_tcp.c ****   pcb = (struct tcp_pcb *)conn->state;
 1042              		.loc 1 379 3 is_stmt 1
 379:C:/Users/stapi/OneDrive/Desktop/GD32VW553/V1_MQTT_OK/GD32VW55X_Wifi_BLE_SDK/GD32VW55x_RELEASE_V1.0.2/MSDK/lwip/lwip-2.1.2/src/core\altcp_tcp.c ****   pcb = (struct tcp_pcb *)conn->state;
 1043              		.loc 1 379 3
 379:C:/Users/stapi/OneDrive/Desktop/GD32VW553/V1_MQTT_OK/GD32VW55X_Wifi_BLE_SDK/GD32VW55x_RELEASE_V1.0.2/MSDK/lwip/lwip-2.1.2/src/core\altcp_tcp.c ****   pcb = (struct tcp_pcb *)conn->state;
 1044              		.loc 1 379 3
 1045 0002 5C41     		lw	a5,4(a0)
 1046 0004 85CB     		beq	a5,zero,.L136
 374:C:/Users/stapi/OneDrive/Desktop/GD32VW553/V1_MQTT_OK/GD32VW55X_Wifi_BLE_SDK/GD32VW55x_RELEASE_V1.0.2/MSDK/lwip/lwip-2.1.2/src/core\altcp_tcp.c ****   struct tcp_pcb *pcb;
 1047              		.loc 1 374 1 is_stmt 0
 1048 0006 17030000 		call	t0,__riscv_save_0
 1048      E7020300 
 1049              		.cfi_offset 1, -4
 1050              		.cfi_def_cfa_offset 16
 1051              	.LVL126:
 1052              	.LBB78:
 1053              	.LBB79:
 379:C:/Users/stapi/OneDrive/Desktop/GD32VW553/V1_MQTT_OK/GD32VW55X_Wifi_BLE_SDK/GD32VW55x_RELEASE_V1.0.2/MSDK/lwip/lwip-2.1.2/src/core\altcp_tcp.c ****   pcb = (struct tcp_pcb *)conn->state;
 1054              		.loc 1 379 3 is_stmt 1
 379:C:/Users/stapi/OneDrive/Desktop/GD32VW553/V1_MQTT_OK/GD32VW55X_Wifi_BLE_SDK/GD32VW55x_RELEASE_V1.0.2/MSDK/lwip/lwip-2.1.2/src/core\altcp_tcp.c ****   pcb = (struct tcp_pcb *)conn->state;
 1055              		.loc 1 379 3
 1056 000e B7060000 		lui	a3,%hi(.LC0)
 1057 0012 B7050000 		lui	a1,%hi(.LC3)
 1058 0016 37050000 		lui	a0,%hi(.LC2)
 1059              	.LVL127:
 1060 001a 93860600 		addi	a3,a3,%lo(.LC0)
 1061 001e 1306B017 		li	a2,379
 1062 0022 93850500 		addi	a1,a1,%lo(.LC3)
 1063 0026 13050500 		addi	a0,a0,%lo(.LC2)
 1064 002a 97000000 		call	printf
 1064      E7800000 
 1065              	.LVL128:
 1066              	.L137:
 379:C:/Users/stapi/OneDrive/Desktop/GD32VW553/V1_MQTT_OK/GD32VW55X_Wifi_BLE_SDK/GD32VW55x_RELEASE_V1.0.2/MSDK/lwip/lwip-2.1.2/src/core\altcp_tcp.c ****   pcb = (struct tcp_pcb *)conn->state;
 1067              		.loc 1 379 3
 379:C:/Users/stapi/OneDrive/Desktop/GD32VW553/V1_MQTT_OK/GD32VW55X_Wifi_BLE_SDK/GD32VW55x_RELEASE_V1.0.2/MSDK/lwip/lwip-2.1.2/src/core\altcp_tcp.c ****   pcb = (struct tcp_pcb *)conn->state;
 1068              		.loc 1 379 3
 379:C:/Users/stapi/OneDrive/Desktop/GD32VW553/V1_MQTT_OK/GD32VW55X_Wifi_BLE_SDK/GD32VW55x_RELEASE_V1.0.2/MSDK/lwip/lwip-2.1.2/src/core\altcp_tcp.c ****   pcb = (struct tcp_pcb *)conn->state;
 1069              		.loc 1 379 3
 1070 0032 01A0     		j	.L137
 1071              	.LVL129:
 1072              	.L136:
 1073              		.cfi_def_cfa_offset 0
 1074              		.cfi_restore 1
 1075              	.LBE79:
 1076              	.LBE78:
 379:C:/Users/stapi/OneDrive/Desktop/GD32VW553/V1_MQTT_OK/GD32VW55X_Wifi_BLE_SDK/GD32VW55x_RELEASE_V1.0.2/MSDK/lwip/lwip-2.1.2/src/core\altcp_tcp.c ****   pcb = (struct tcp_pcb *)conn->state;
 1077              		.loc 1 379 3 discriminator 2
 379:C:/Users/stapi/OneDrive/Desktop/GD32VW553/V1_MQTT_OK/GD32VW55X_Wifi_BLE_SDK/GD32VW55x_RELEASE_V1.0.2/MSDK/lwip/lwip-2.1.2/src/core\altcp_tcp.c ****   pcb = (struct tcp_pcb *)conn->state;
 1078              		.loc 1 379 3 discriminator 2
 379:C:/Users/stapi/OneDrive/Desktop/GD32VW553/V1_MQTT_OK/GD32VW55X_Wifi_BLE_SDK/GD32VW55x_RELEASE_V1.0.2/MSDK/lwip/lwip-2.1.2/src/core\altcp_tcp.c ****   pcb = (struct tcp_pcb *)conn->state;
 1079              		.loc 1 379 3 discriminator 2
 379:C:/Users/stapi/OneDrive/Desktop/GD32VW553/V1_MQTT_OK/GD32VW55X_Wifi_BLE_SDK/GD32VW55x_RELEASE_V1.0.2/MSDK/lwip/lwip-2.1.2/src/core\altcp_tcp.c ****   pcb = (struct tcp_pcb *)conn->state;
 1080              		.loc 1 379 3 discriminator 2
 380:C:/Users/stapi/OneDrive/Desktop/GD32VW553/V1_MQTT_OK/GD32VW55X_Wifi_BLE_SDK/GD32VW55x_RELEASE_V1.0.2/MSDK/lwip/lwip-2.1.2/src/core\altcp_tcp.c ****   return tcp_mss(pcb);
 1081              		.loc 1 380 3 discriminator 2
 381:C:/Users/stapi/OneDrive/Desktop/GD32VW553/V1_MQTT_OK/GD32VW55X_Wifi_BLE_SDK/GD32VW55x_RELEASE_V1.0.2/MSDK/lwip/lwip-2.1.2/src/core\altcp_tcp.c **** }
 1082              		.loc 1 381 3 discriminator 2
 381:C:/Users/stapi/OneDrive/Desktop/GD32VW553/V1_MQTT_OK/GD32VW55X_Wifi_BLE_SDK/GD32VW55x_RELEASE_V1.0.2/MSDK/lwip/lwip-2.1.2/src/core\altcp_tcp.c **** }
 1083              		.loc 1 381 10 is_stmt 0 discriminator 2
 1084 0034 5C45     		lw	a5,12(a0)
 1085 0036 03D5A705 		lhu	a0,90(a5)
 1086              	.LVL130:
 1087 003a 8280     		ret
 1088              	.LVL131:
 1089              	.L138:
 377:C:/Users/stapi/OneDrive/Desktop/GD32VW553/V1_MQTT_OK/GD32VW55X_Wifi_BLE_SDK/GD32VW55x_RELEASE_V1.0.2/MSDK/lwip/lwip-2.1.2/src/core\altcp_tcp.c ****   }
 1090              		.loc 1 377 12
 1091 003c 0145     		li	a0,0
 1092              	.LVL132:
 382:C:/Users/stapi/OneDrive/Desktop/GD32VW553/V1_MQTT_OK/GD32VW55X_Wifi_BLE_SDK/GD32VW55x_RELEASE_V1.0.2/MSDK/lwip/lwip-2.1.2/src/core\altcp_tcp.c **** 
 1093              		.loc 1 382 1
 1094 003e 8280     		ret
 1095              		.cfi_endproc
 1096              	.LFE26:
 1098              		.section	.text.altcp_tcp_connected,"ax",@progbits
 1099              		.align	1
 1101              	altcp_tcp_connected:
 1102              	.LFB5:
  90:C:/Users/stapi/OneDrive/Desktop/GD32VW553/V1_MQTT_OK/GD32VW55X_Wifi_BLE_SDK/GD32VW55x_RELEASE_V1.0.2/MSDK/lwip/lwip-2.1.2/src/core\altcp_tcp.c ****   struct altcp_pcb *conn = (struct altcp_pcb *)arg;
 1103              		.loc 1 90 1 is_stmt 1
 1104              		.cfi_startproc
 1105              	.LVL133:
  91:C:/Users/stapi/OneDrive/Desktop/GD32VW553/V1_MQTT_OK/GD32VW55X_Wifi_BLE_SDK/GD32VW55x_RELEASE_V1.0.2/MSDK/lwip/lwip-2.1.2/src/core\altcp_tcp.c ****   if (conn) {
 1106              		.loc 1 91 3
  92:C:/Users/stapi/OneDrive/Desktop/GD32VW553/V1_MQTT_OK/GD32VW55X_Wifi_BLE_SDK/GD32VW55x_RELEASE_V1.0.2/MSDK/lwip/lwip-2.1.2/src/core\altcp_tcp.c ****     ALTCP_TCP_ASSERT_CONN_PCB(conn, tpcb);
 1107              		.loc 1 92 3
  92:C:/Users/stapi/OneDrive/Desktop/GD32VW553/V1_MQTT_OK/GD32VW55X_Wifi_BLE_SDK/GD32VW55x_RELEASE_V1.0.2/MSDK/lwip/lwip-2.1.2/src/core\altcp_tcp.c ****     ALTCP_TCP_ASSERT_CONN_PCB(conn, tpcb);
 1108              		.loc 1 92 6 is_stmt 0
 1109 0000 3DC9     		beq	a0,zero,.L148
  90:C:/Users/stapi/OneDrive/Desktop/GD32VW553/V1_MQTT_OK/GD32VW55X_Wifi_BLE_SDK/GD32VW55x_RELEASE_V1.0.2/MSDK/lwip/lwip-2.1.2/src/core\altcp_tcp.c ****   struct altcp_pcb *conn = (struct altcp_pcb *)arg;
 1110              		.loc 1 90 1
 1111 0002 17030000 		call	t0,__riscv_save_0
 1111      E7020300 
 1112              		.cfi_offset 1, -4
 1113              		.cfi_def_cfa_offset 16
  93:C:/Users/stapi/OneDrive/Desktop/GD32VW553/V1_MQTT_OK/GD32VW55X_Wifi_BLE_SDK/GD32VW55x_RELEASE_V1.0.2/MSDK/lwip/lwip-2.1.2/src/core\altcp_tcp.c ****     if (conn->connected) {
 1114              		.loc 1 93 5
 1115 000a 5845     		lw	a4,12(a0)
 1116 000c AA87     		mv	a5,a0
  93:C:/Users/stapi/OneDrive/Desktop/GD32VW553/V1_MQTT_OK/GD32VW55X_Wifi_BLE_SDK/GD32VW55x_RELEASE_V1.0.2/MSDK/lwip/lwip-2.1.2/src/core\altcp_tcp.c ****     if (conn->connected) {
 1117              		.loc 1 93 5 is_stmt 1
  93:C:/Users/stapi/OneDrive/Desktop/GD32VW553/V1_MQTT_OK/GD32VW55X_Wifi_BLE_SDK/GD32VW55x_RELEASE_V1.0.2/MSDK/lwip/lwip-2.1.2/src/core\altcp_tcp.c ****     if (conn->connected) {
 1118              		.loc 1 93 5
  93:C:/Users/stapi/OneDrive/Desktop/GD32VW553/V1_MQTT_OK/GD32VW55X_Wifi_BLE_SDK/GD32VW55x_RELEASE_V1.0.2/MSDK/lwip/lwip-2.1.2/src/core\altcp_tcp.c ****     if (conn->connected) {
 1119              		.loc 1 93 5
 1120 000e 6305B702 		beq	a4,a1,.L144
  93:C:/Users/stapi/OneDrive/Desktop/GD32VW553/V1_MQTT_OK/GD32VW55X_Wifi_BLE_SDK/GD32VW55x_RELEASE_V1.0.2/MSDK/lwip/lwip-2.1.2/src/core\altcp_tcp.c ****     if (conn->connected) {
 1121              		.loc 1 93 5 discriminator 1
  93:C:/Users/stapi/OneDrive/Desktop/GD32VW553/V1_MQTT_OK/GD32VW55X_Wifi_BLE_SDK/GD32VW55x_RELEASE_V1.0.2/MSDK/lwip/lwip-2.1.2/src/core\altcp_tcp.c ****     if (conn->connected) {
 1122              		.loc 1 93 5 discriminator 1
 1123 0012 B7060000 		lui	a3,%hi(.LC0)
 1124 0016 B7050000 		lui	a1,%hi(.LC1)
 1125              	.LVL134:
 1126 001a 37050000 		lui	a0,%hi(.LC2)
 1127              	.LVL135:
 1128 001e 93860600 		addi	a3,a3,%lo(.LC0)
 1129 0022 1306D005 		li	a2,93
 1130              	.LVL136:
 1131 0026 93850500 		addi	a1,a1,%lo(.LC1)
 1132 002a 13050500 		addi	a0,a0,%lo(.LC2)
 1133 002e 97000000 		call	printf
 1133      E7800000 
 1134              	.LVL137:
 1135              	.L145:
  93:C:/Users/stapi/OneDrive/Desktop/GD32VW553/V1_MQTT_OK/GD32VW55X_Wifi_BLE_SDK/GD32VW55x_RELEASE_V1.0.2/MSDK/lwip/lwip-2.1.2/src/core\altcp_tcp.c ****     if (conn->connected) {
 1136              		.loc 1 93 5 discriminator 1
  93:C:/Users/stapi/OneDrive/Desktop/GD32VW553/V1_MQTT_OK/GD32VW55X_Wifi_BLE_SDK/GD32VW55x_RELEASE_V1.0.2/MSDK/lwip/lwip-2.1.2/src/core\altcp_tcp.c ****     if (conn->connected) {
 1137              		.loc 1 93 5 discriminator 1
  93:C:/Users/stapi/OneDrive/Desktop/GD32VW553/V1_MQTT_OK/GD32VW55X_Wifi_BLE_SDK/GD32VW55x_RELEASE_V1.0.2/MSDK/lwip/lwip-2.1.2/src/core\altcp_tcp.c ****     if (conn->connected) {
 1138              		.loc 1 93 5 discriminator 1
 1139 0036 01A0     		j	.L145
 1140              	.LVL138:
 1141              	.L144:
  93:C:/Users/stapi/OneDrive/Desktop/GD32VW553/V1_MQTT_OK/GD32VW55X_Wifi_BLE_SDK/GD32VW55x_RELEASE_V1.0.2/MSDK/lwip/lwip-2.1.2/src/core\altcp_tcp.c ****     if (conn->connected) {
 1142              		.loc 1 93 5 discriminator 2
  93:C:/Users/stapi/OneDrive/Desktop/GD32VW553/V1_MQTT_OK/GD32VW55X_Wifi_BLE_SDK/GD32VW55x_RELEASE_V1.0.2/MSDK/lwip/lwip-2.1.2/src/core\altcp_tcp.c ****     if (conn->connected) {
 1143              		.loc 1 93 5 discriminator 2
  93:C:/Users/stapi/OneDrive/Desktop/GD32VW553/V1_MQTT_OK/GD32VW55X_Wifi_BLE_SDK/GD32VW55x_RELEASE_V1.0.2/MSDK/lwip/lwip-2.1.2/src/core\altcp_tcp.c ****     if (conn->connected) {
 1144              		.loc 1 93 5 discriminator 2
  93:C:/Users/stapi/OneDrive/Desktop/GD32VW553/V1_MQTT_OK/GD32VW55X_Wifi_BLE_SDK/GD32VW55x_RELEASE_V1.0.2/MSDK/lwip/lwip-2.1.2/src/core\altcp_tcp.c ****     if (conn->connected) {
 1145              		.loc 1 93 5 discriminator 2
  93:C:/Users/stapi/OneDrive/Desktop/GD32VW553/V1_MQTT_OK/GD32VW55X_Wifi_BLE_SDK/GD32VW55x_RELEASE_V1.0.2/MSDK/lwip/lwip-2.1.2/src/core\altcp_tcp.c ****     if (conn->connected) {
 1146              		.loc 1 93 5 discriminator 2
  93:C:/Users/stapi/OneDrive/Desktop/GD32VW553/V1_MQTT_OK/GD32VW55X_Wifi_BLE_SDK/GD32VW55x_RELEASE_V1.0.2/MSDK/lwip/lwip-2.1.2/src/core\altcp_tcp.c ****     if (conn->connected) {
 1147              		.loc 1 93 5 discriminator 2
 1148 0038 5841     		lw	a4,4(a0)
 1149 003a 05C7     		beq	a4,zero,.L146
  93:C:/Users/stapi/OneDrive/Desktop/GD32VW553/V1_MQTT_OK/GD32VW55X_Wifi_BLE_SDK/GD32VW55x_RELEASE_V1.0.2/MSDK/lwip/lwip-2.1.2/src/core\altcp_tcp.c ****     if (conn->connected) {
 1150              		.loc 1 93 5 discriminator 4
  93:C:/Users/stapi/OneDrive/Desktop/GD32VW553/V1_MQTT_OK/GD32VW55X_Wifi_BLE_SDK/GD32VW55x_RELEASE_V1.0.2/MSDK/lwip/lwip-2.1.2/src/core\altcp_tcp.c ****     if (conn->connected) {
 1151              		.loc 1 93 5 discriminator 4
 1152 003c B7060000 		lui	a3,%hi(.LC0)
 1153 0040 B7050000 		lui	a1,%hi(.LC3)
 1154              	.LVL139:
 1155 0044 37050000 		lui	a0,%hi(.LC2)
 1156              	.LVL140:
 1157 0048 93860600 		addi	a3,a3,%lo(.LC0)
 1158 004c 1306D005 		li	a2,93
 1159              	.LVL141:
 1160 0050 93850500 		addi	a1,a1,%lo(.LC3)
 1161 0054 13050500 		addi	a0,a0,%lo(.LC2)
 1162 0058 97000000 		call	printf
 1162      E7800000 
 1163              	.LVL142:
 1164              	.L147:
  93:C:/Users/stapi/OneDrive/Desktop/GD32VW553/V1_MQTT_OK/GD32VW55X_Wifi_BLE_SDK/GD32VW55x_RELEASE_V1.0.2/MSDK/lwip/lwip-2.1.2/src/core\altcp_tcp.c ****     if (conn->connected) {
 1165              		.loc 1 93 5 discriminator 2
  93:C:/Users/stapi/OneDrive/Desktop/GD32VW553/V1_MQTT_OK/GD32VW55X_Wifi_BLE_SDK/GD32VW55x_RELEASE_V1.0.2/MSDK/lwip/lwip-2.1.2/src/core\altcp_tcp.c ****     if (conn->connected) {
 1166              		.loc 1 93 5 discriminator 2
  93:C:/Users/stapi/OneDrive/Desktop/GD32VW553/V1_MQTT_OK/GD32VW55X_Wifi_BLE_SDK/GD32VW55x_RELEASE_V1.0.2/MSDK/lwip/lwip-2.1.2/src/core\altcp_tcp.c ****     if (conn->connected) {
 1167              		.loc 1 93 5 discriminator 2
 1168 0060 01A0     		j	.L147
 1169              	.LVL143:
 1170              	.L146:
 1171              	.LBB82:
 1172              	.LBB83:
  93:C:/Users/stapi/OneDrive/Desktop/GD32VW553/V1_MQTT_OK/GD32VW55X_Wifi_BLE_SDK/GD32VW55x_RELEASE_V1.0.2/MSDK/lwip/lwip-2.1.2/src/core\altcp_tcp.c ****     if (conn->connected) {
 1173              		.loc 1 93 5
  93:C:/Users/stapi/OneDrive/Desktop/GD32VW553/V1_MQTT_OK/GD32VW55X_Wifi_BLE_SDK/GD32VW55x_RELEASE_V1.0.2/MSDK/lwip/lwip-2.1.2/src/core\altcp_tcp.c ****     if (conn->connected) {
 1174              		.loc 1 93 5
  93:C:/Users/stapi/OneDrive/Desktop/GD32VW553/V1_MQTT_OK/GD32VW55X_Wifi_BLE_SDK/GD32VW55x_RELEASE_V1.0.2/MSDK/lwip/lwip-2.1.2/src/core\altcp_tcp.c ****     if (conn->connected) {
 1175              		.loc 1 93 5
  93:C:/Users/stapi/OneDrive/Desktop/GD32VW553/V1_MQTT_OK/GD32VW55X_Wifi_BLE_SDK/GD32VW55x_RELEASE_V1.0.2/MSDK/lwip/lwip-2.1.2/src/core\altcp_tcp.c ****     if (conn->connected) {
 1176              		.loc 1 93 5
  93:C:/Users/stapi/OneDrive/Desktop/GD32VW553/V1_MQTT_OK/GD32VW55X_Wifi_BLE_SDK/GD32VW55x_RELEASE_V1.0.2/MSDK/lwip/lwip-2.1.2/src/core\altcp_tcp.c ****     if (conn->connected) {
 1177              		.loc 1 93 5
  94:C:/Users/stapi/OneDrive/Desktop/GD32VW553/V1_MQTT_OK/GD32VW55X_Wifi_BLE_SDK/GD32VW55x_RELEASE_V1.0.2/MSDK/lwip/lwip-2.1.2/src/core\altcp_tcp.c ****       return conn->connected(conn->arg, conn, err);
 1178              		.loc 1 94 5
  94:C:/Users/stapi/OneDrive/Desktop/GD32VW553/V1_MQTT_OK/GD32VW55X_Wifi_BLE_SDK/GD32VW55x_RELEASE_V1.0.2/MSDK/lwip/lwip-2.1.2/src/core\altcp_tcp.c ****       return conn->connected(conn->arg, conn, err);
 1179              		.loc 1 94 13 is_stmt 0
 1180 0062 5849     		lw	a4,20(a0)
 1181              	.LBE83:
 1182              	.LBE82:
  98:C:/Users/stapi/OneDrive/Desktop/GD32VW553/V1_MQTT_OK/GD32VW55X_Wifi_BLE_SDK/GD32VW55x_RELEASE_V1.0.2/MSDK/lwip/lwip-2.1.2/src/core\altcp_tcp.c **** }
 1183              		.loc 1 98 10
 1184 0064 0145     		li	a0,0
 1185              	.LVL144:
 1186              	.LBB85:
 1187              	.LBB84:
  94:C:/Users/stapi/OneDrive/Desktop/GD32VW553/V1_MQTT_OK/GD32VW55X_Wifi_BLE_SDK/GD32VW55x_RELEASE_V1.0.2/MSDK/lwip/lwip-2.1.2/src/core\altcp_tcp.c ****       return conn->connected(conn->arg, conn, err);
 1188              		.loc 1 94 8
 1189 0066 01C7     		beq	a4,zero,.L143
  95:C:/Users/stapi/OneDrive/Desktop/GD32VW553/V1_MQTT_OK/GD32VW55X_Wifi_BLE_SDK/GD32VW55x_RELEASE_V1.0.2/MSDK/lwip/lwip-2.1.2/src/core\altcp_tcp.c ****     }
 1190              		.loc 1 95 7 is_stmt 1
  95:C:/Users/stapi/OneDrive/Desktop/GD32VW553/V1_MQTT_OK/GD32VW55X_Wifi_BLE_SDK/GD32VW55x_RELEASE_V1.0.2/MSDK/lwip/lwip-2.1.2/src/core\altcp_tcp.c ****     }
 1191              		.loc 1 95 14 is_stmt 0
 1192 0068 8847     		lw	a0,8(a5)
 1193 006a BE85     		mv	a1,a5
 1194              	.LVL145:
 1195 006c 0297     		jalr	a4
 1196              	.LVL146:
 1197              	.L143:
 1198              	.LBE84:
 1199              	.LBE85:
  99:C:/Users/stapi/OneDrive/Desktop/GD32VW553/V1_MQTT_OK/GD32VW55X_Wifi_BLE_SDK/GD32VW55x_RELEASE_V1.0.2/MSDK/lwip/lwip-2.1.2/src/core\altcp_tcp.c **** 
 1200              		.loc 1 99 1
 1201 006e 17030000 		tail	__riscv_restore_0
 1201      67000300 
 1202              		.cfi_restore 1
 1203              		.cfi_def_cfa_offset 0
 1204              	.LVL147:
 1205              	.L148:
  98:C:/Users/stapi/OneDrive/Desktop/GD32VW553/V1_MQTT_OK/GD32VW55X_Wifi_BLE_SDK/GD32VW55x_RELEASE_V1.0.2/MSDK/lwip/lwip-2.1.2/src/core\altcp_tcp.c **** }
 1206              		.loc 1 98 10
 1207 0076 0145     		li	a0,0
 1208              	.LVL148:
  99:C:/Users/stapi/OneDrive/Desktop/GD32VW553/V1_MQTT_OK/GD32VW55X_Wifi_BLE_SDK/GD32VW55x_RELEASE_V1.0.2/MSDK/lwip/lwip-2.1.2/src/core\altcp_tcp.c **** 
 1209              		.loc 1 99 1
 1210 0078 8280     		ret
 1211              		.cfi_endproc
 1212              	.LFE5:
 1214              		.section	.text.altcp_tcp_poll,"ax",@progbits
 1215              		.align	1
 1217              	altcp_tcp_poll:
 1218              	.LFB8:
 133:C:/Users/stapi/OneDrive/Desktop/GD32VW553/V1_MQTT_OK/GD32VW55X_Wifi_BLE_SDK/GD32VW55x_RELEASE_V1.0.2/MSDK/lwip/lwip-2.1.2/src/core\altcp_tcp.c ****   struct altcp_pcb *conn = (struct altcp_pcb *)arg;
 1219              		.loc 1 133 1 is_stmt 1
 1220              		.cfi_startproc
 1221              	.LVL149:
 134:C:/Users/stapi/OneDrive/Desktop/GD32VW553/V1_MQTT_OK/GD32VW55X_Wifi_BLE_SDK/GD32VW55x_RELEASE_V1.0.2/MSDK/lwip/lwip-2.1.2/src/core\altcp_tcp.c ****   if (conn) {
 1222              		.loc 1 134 3
 135:C:/Users/stapi/OneDrive/Desktop/GD32VW553/V1_MQTT_OK/GD32VW55X_Wifi_BLE_SDK/GD32VW55x_RELEASE_V1.0.2/MSDK/lwip/lwip-2.1.2/src/core\altcp_tcp.c ****     ALTCP_TCP_ASSERT_CONN_PCB(conn, tpcb);
 1223              		.loc 1 135 3
 135:C:/Users/stapi/OneDrive/Desktop/GD32VW553/V1_MQTT_OK/GD32VW55X_Wifi_BLE_SDK/GD32VW55x_RELEASE_V1.0.2/MSDK/lwip/lwip-2.1.2/src/core\altcp_tcp.c ****     ALTCP_TCP_ASSERT_CONN_PCB(conn, tpcb);
 1224              		.loc 1 135 6 is_stmt 0
 1225 0000 3DC9     		beq	a0,zero,.L161
 133:C:/Users/stapi/OneDrive/Desktop/GD32VW553/V1_MQTT_OK/GD32VW55X_Wifi_BLE_SDK/GD32VW55x_RELEASE_V1.0.2/MSDK/lwip/lwip-2.1.2/src/core\altcp_tcp.c ****   struct altcp_pcb *conn = (struct altcp_pcb *)arg;
 1226              		.loc 1 133 1
 1227 0002 17030000 		call	t0,__riscv_save_0
 1227      E7020300 
 1228              		.cfi_offset 1, -4
 1229              		.cfi_def_cfa_offset 16
 136:C:/Users/stapi/OneDrive/Desktop/GD32VW553/V1_MQTT_OK/GD32VW55X_Wifi_BLE_SDK/GD32VW55x_RELEASE_V1.0.2/MSDK/lwip/lwip-2.1.2/src/core\altcp_tcp.c ****     if (conn->poll) {
 1230              		.loc 1 136 5
 1231 000a 5845     		lw	a4,12(a0)
 1232 000c AA87     		mv	a5,a0
 136:C:/Users/stapi/OneDrive/Desktop/GD32VW553/V1_MQTT_OK/GD32VW55X_Wifi_BLE_SDK/GD32VW55x_RELEASE_V1.0.2/MSDK/lwip/lwip-2.1.2/src/core\altcp_tcp.c ****     if (conn->poll) {
 1233              		.loc 1 136 5 is_stmt 1
 136:C:/Users/stapi/OneDrive/Desktop/GD32VW553/V1_MQTT_OK/GD32VW55X_Wifi_BLE_SDK/GD32VW55x_RELEASE_V1.0.2/MSDK/lwip/lwip-2.1.2/src/core\altcp_tcp.c ****     if (conn->poll) {
 1234              		.loc 1 136 5
 136:C:/Users/stapi/OneDrive/Desktop/GD32VW553/V1_MQTT_OK/GD32VW55X_Wifi_BLE_SDK/GD32VW55x_RELEASE_V1.0.2/MSDK/lwip/lwip-2.1.2/src/core\altcp_tcp.c ****     if (conn->poll) {
 1235              		.loc 1 136 5
 1236 000e 6305B702 		beq	a4,a1,.L157
 136:C:/Users/stapi/OneDrive/Desktop/GD32VW553/V1_MQTT_OK/GD32VW55X_Wifi_BLE_SDK/GD32VW55x_RELEASE_V1.0.2/MSDK/lwip/lwip-2.1.2/src/core\altcp_tcp.c ****     if (conn->poll) {
 1237              		.loc 1 136 5 discriminator 1
 136:C:/Users/stapi/OneDrive/Desktop/GD32VW553/V1_MQTT_OK/GD32VW55X_Wifi_BLE_SDK/GD32VW55x_RELEASE_V1.0.2/MSDK/lwip/lwip-2.1.2/src/core\altcp_tcp.c ****     if (conn->poll) {
 1238              		.loc 1 136 5 discriminator 1
 1239 0012 B7060000 		lui	a3,%hi(.LC0)
 1240 0016 B7050000 		lui	a1,%hi(.LC1)
 1241              	.LVL150:
 1242 001a 37050000 		lui	a0,%hi(.LC2)
 1243              	.LVL151:
 1244 001e 93860600 		addi	a3,a3,%lo(.LC0)
 1245 0022 13068008 		li	a2,136
 1246 0026 93850500 		addi	a1,a1,%lo(.LC1)
 1247 002a 13050500 		addi	a0,a0,%lo(.LC2)
 1248 002e 97000000 		call	printf
 1248      E7800000 
 1249              	.LVL152:
 1250              	.L158:
 136:C:/Users/stapi/OneDrive/Desktop/GD32VW553/V1_MQTT_OK/GD32VW55X_Wifi_BLE_SDK/GD32VW55x_RELEASE_V1.0.2/MSDK/lwip/lwip-2.1.2/src/core\altcp_tcp.c ****     if (conn->poll) {
 1251              		.loc 1 136 5 discriminator 1
 136:C:/Users/stapi/OneDrive/Desktop/GD32VW553/V1_MQTT_OK/GD32VW55X_Wifi_BLE_SDK/GD32VW55x_RELEASE_V1.0.2/MSDK/lwip/lwip-2.1.2/src/core\altcp_tcp.c ****     if (conn->poll) {
 1252              		.loc 1 136 5 discriminator 1
 136:C:/Users/stapi/OneDrive/Desktop/GD32VW553/V1_MQTT_OK/GD32VW55X_Wifi_BLE_SDK/GD32VW55x_RELEASE_V1.0.2/MSDK/lwip/lwip-2.1.2/src/core\altcp_tcp.c ****     if (conn->poll) {
 1253              		.loc 1 136 5 discriminator 1
 1254 0036 01A0     		j	.L158
 1255              	.LVL153:
 1256              	.L157:
 136:C:/Users/stapi/OneDrive/Desktop/GD32VW553/V1_MQTT_OK/GD32VW55X_Wifi_BLE_SDK/GD32VW55x_RELEASE_V1.0.2/MSDK/lwip/lwip-2.1.2/src/core\altcp_tcp.c ****     if (conn->poll) {
 1257              		.loc 1 136 5 discriminator 2
 136:C:/Users/stapi/OneDrive/Desktop/GD32VW553/V1_MQTT_OK/GD32VW55X_Wifi_BLE_SDK/GD32VW55x_RELEASE_V1.0.2/MSDK/lwip/lwip-2.1.2/src/core\altcp_tcp.c ****     if (conn->poll) {
 1258              		.loc 1 136 5 discriminator 2
 136:C:/Users/stapi/OneDrive/Desktop/GD32VW553/V1_MQTT_OK/GD32VW55X_Wifi_BLE_SDK/GD32VW55x_RELEASE_V1.0.2/MSDK/lwip/lwip-2.1.2/src/core\altcp_tcp.c ****     if (conn->poll) {
 1259              		.loc 1 136 5 discriminator 2
 136:C:/Users/stapi/OneDrive/Desktop/GD32VW553/V1_MQTT_OK/GD32VW55X_Wifi_BLE_SDK/GD32VW55x_RELEASE_V1.0.2/MSDK/lwip/lwip-2.1.2/src/core\altcp_tcp.c ****     if (conn->poll) {
 1260              		.loc 1 136 5 discriminator 2
 136:C:/Users/stapi/OneDrive/Desktop/GD32VW553/V1_MQTT_OK/GD32VW55X_Wifi_BLE_SDK/GD32VW55x_RELEASE_V1.0.2/MSDK/lwip/lwip-2.1.2/src/core\altcp_tcp.c ****     if (conn->poll) {
 1261              		.loc 1 136 5 discriminator 2
 136:C:/Users/stapi/OneDrive/Desktop/GD32VW553/V1_MQTT_OK/GD32VW55X_Wifi_BLE_SDK/GD32VW55x_RELEASE_V1.0.2/MSDK/lwip/lwip-2.1.2/src/core\altcp_tcp.c ****     if (conn->poll) {
 1262              		.loc 1 136 5 discriminator 2
 1263 0038 5841     		lw	a4,4(a0)
 1264 003a 05C7     		beq	a4,zero,.L159
 136:C:/Users/stapi/OneDrive/Desktop/GD32VW553/V1_MQTT_OK/GD32VW55X_Wifi_BLE_SDK/GD32VW55x_RELEASE_V1.0.2/MSDK/lwip/lwip-2.1.2/src/core\altcp_tcp.c ****     if (conn->poll) {
 1265              		.loc 1 136 5 discriminator 4
 136:C:/Users/stapi/OneDrive/Desktop/GD32VW553/V1_MQTT_OK/GD32VW55X_Wifi_BLE_SDK/GD32VW55x_RELEASE_V1.0.2/MSDK/lwip/lwip-2.1.2/src/core\altcp_tcp.c ****     if (conn->poll) {
 1266              		.loc 1 136 5 discriminator 4
 1267 003c B7060000 		lui	a3,%hi(.LC0)
 1268 0040 B7050000 		lui	a1,%hi(.LC3)
 1269              	.LVL154:
 1270 0044 37050000 		lui	a0,%hi(.LC2)
 1271              	.LVL155:
 1272 0048 93860600 		addi	a3,a3,%lo(.LC0)
 1273 004c 13068008 		li	a2,136
 1274 0050 93850500 		addi	a1,a1,%lo(.LC3)
 1275 0054 13050500 		addi	a0,a0,%lo(.LC2)
 1276 0058 97000000 		call	printf
 1276      E7800000 
 1277              	.LVL156:
 1278              	.L160:
 136:C:/Users/stapi/OneDrive/Desktop/GD32VW553/V1_MQTT_OK/GD32VW55X_Wifi_BLE_SDK/GD32VW55x_RELEASE_V1.0.2/MSDK/lwip/lwip-2.1.2/src/core\altcp_tcp.c ****     if (conn->poll) {
 1279              		.loc 1 136 5 discriminator 2
 136:C:/Users/stapi/OneDrive/Desktop/GD32VW553/V1_MQTT_OK/GD32VW55X_Wifi_BLE_SDK/GD32VW55x_RELEASE_V1.0.2/MSDK/lwip/lwip-2.1.2/src/core\altcp_tcp.c ****     if (conn->poll) {
 1280              		.loc 1 136 5 discriminator 2
 136:C:/Users/stapi/OneDrive/Desktop/GD32VW553/V1_MQTT_OK/GD32VW55X_Wifi_BLE_SDK/GD32VW55x_RELEASE_V1.0.2/MSDK/lwip/lwip-2.1.2/src/core\altcp_tcp.c ****     if (conn->poll) {
 1281              		.loc 1 136 5 discriminator 2
 1282 0060 01A0     		j	.L160
 1283              	.LVL157:
 1284              	.L159:
 1285              	.LBB88:
 1286              	.LBB89:
 136:C:/Users/stapi/OneDrive/Desktop/GD32VW553/V1_MQTT_OK/GD32VW55X_Wifi_BLE_SDK/GD32VW55x_RELEASE_V1.0.2/MSDK/lwip/lwip-2.1.2/src/core\altcp_tcp.c ****     if (conn->poll) {
 1287              		.loc 1 136 5
 136:C:/Users/stapi/OneDrive/Desktop/GD32VW553/V1_MQTT_OK/GD32VW55X_Wifi_BLE_SDK/GD32VW55x_RELEASE_V1.0.2/MSDK/lwip/lwip-2.1.2/src/core\altcp_tcp.c ****     if (conn->poll) {
 1288              		.loc 1 136 5
 136:C:/Users/stapi/OneDrive/Desktop/GD32VW553/V1_MQTT_OK/GD32VW55X_Wifi_BLE_SDK/GD32VW55x_RELEASE_V1.0.2/MSDK/lwip/lwip-2.1.2/src/core\altcp_tcp.c ****     if (conn->poll) {
 1289              		.loc 1 136 5
 136:C:/Users/stapi/OneDrive/Desktop/GD32VW553/V1_MQTT_OK/GD32VW55X_Wifi_BLE_SDK/GD32VW55x_RELEASE_V1.0.2/MSDK/lwip/lwip-2.1.2/src/core\altcp_tcp.c ****     if (conn->poll) {
 1290              		.loc 1 136 5
 136:C:/Users/stapi/OneDrive/Desktop/GD32VW553/V1_MQTT_OK/GD32VW55X_Wifi_BLE_SDK/GD32VW55x_RELEASE_V1.0.2/MSDK/lwip/lwip-2.1.2/src/core\altcp_tcp.c ****     if (conn->poll) {
 1291              		.loc 1 136 5
 137:C:/Users/stapi/OneDrive/Desktop/GD32VW553/V1_MQTT_OK/GD32VW55X_Wifi_BLE_SDK/GD32VW55x_RELEASE_V1.0.2/MSDK/lwip/lwip-2.1.2/src/core\altcp_tcp.c ****       return conn->poll(conn->arg, conn);
 1292              		.loc 1 137 5
 137:C:/Users/stapi/OneDrive/Desktop/GD32VW553/V1_MQTT_OK/GD32VW55X_Wifi_BLE_SDK/GD32VW55x_RELEASE_V1.0.2/MSDK/lwip/lwip-2.1.2/src/core\altcp_tcp.c ****       return conn->poll(conn->arg, conn);
 1293              		.loc 1 137 13 is_stmt 0
 1294 0062 1851     		lw	a4,32(a0)
 1295              	.LBE89:
 1296              	.LBE88:
 141:C:/Users/stapi/OneDrive/Desktop/GD32VW553/V1_MQTT_OK/GD32VW55X_Wifi_BLE_SDK/GD32VW55x_RELEASE_V1.0.2/MSDK/lwip/lwip-2.1.2/src/core\altcp_tcp.c **** }
 1297              		.loc 1 141 10
 1298 0064 0145     		li	a0,0
 1299              	.LVL158:
 1300              	.LBB91:
 1301              	.LBB90:
 137:C:/Users/stapi/OneDrive/Desktop/GD32VW553/V1_MQTT_OK/GD32VW55X_Wifi_BLE_SDK/GD32VW55x_RELEASE_V1.0.2/MSDK/lwip/lwip-2.1.2/src/core\altcp_tcp.c ****       return conn->poll(conn->arg, conn);
 1302              		.loc 1 137 8
 1303 0066 01C7     		beq	a4,zero,.L156
 138:C:/Users/stapi/OneDrive/Desktop/GD32VW553/V1_MQTT_OK/GD32VW55X_Wifi_BLE_SDK/GD32VW55x_RELEASE_V1.0.2/MSDK/lwip/lwip-2.1.2/src/core\altcp_tcp.c ****     }
 1304              		.loc 1 138 7 is_stmt 1
 138:C:/Users/stapi/OneDrive/Desktop/GD32VW553/V1_MQTT_OK/GD32VW55X_Wifi_BLE_SDK/GD32VW55x_RELEASE_V1.0.2/MSDK/lwip/lwip-2.1.2/src/core\altcp_tcp.c ****     }
 1305              		.loc 1 138 14 is_stmt 0
 1306 0068 8847     		lw	a0,8(a5)
 1307 006a BE85     		mv	a1,a5
 1308              	.LVL159:
 1309 006c 0297     		jalr	a4
 1310              	.LVL160:
 1311              	.L156:
 1312              	.LBE90:
 1313              	.LBE91:
 142:C:/Users/stapi/OneDrive/Desktop/GD32VW553/V1_MQTT_OK/GD32VW55X_Wifi_BLE_SDK/GD32VW55x_RELEASE_V1.0.2/MSDK/lwip/lwip-2.1.2/src/core\altcp_tcp.c **** 
 1314              		.loc 1 142 1
 1315 006e 17030000 		tail	__riscv_restore_0
 1315      67000300 
 1316              		.cfi_restore 1
 1317              		.cfi_def_cfa_offset 0
 1318              	.LVL161:
 1319              	.L161:
 141:C:/Users/stapi/OneDrive/Desktop/GD32VW553/V1_MQTT_OK/GD32VW55X_Wifi_BLE_SDK/GD32VW55x_RELEASE_V1.0.2/MSDK/lwip/lwip-2.1.2/src/core\altcp_tcp.c **** }
 1320              		.loc 1 141 10
 1321 0076 0145     		li	a0,0
 1322              	.LVL162:
 142:C:/Users/stapi/OneDrive/Desktop/GD32VW553/V1_MQTT_OK/GD32VW55X_Wifi_BLE_SDK/GD32VW55x_RELEASE_V1.0.2/MSDK/lwip/lwip-2.1.2/src/core\altcp_tcp.c **** 
 1323              		.loc 1 142 1
 1324 0078 8280     		ret
 1325              		.cfi_endproc
 1326              	.LFE8:
 1328              		.section	.text.altcp_tcp_setprio,"ax",@progbits
 1329              		.align	1
 1331              	altcp_tcp_setprio:
 1332              	.LFB32:
 441:C:/Users/stapi/OneDrive/Desktop/GD32VW553/V1_MQTT_OK/GD32VW55X_Wifi_BLE_SDK/GD32VW55x_RELEASE_V1.0.2/MSDK/lwip/lwip-2.1.2/src/core\altcp_tcp.c ****   if (conn != NULL) {
 1333              		.loc 1 441 1 is_stmt 1
 1334              		.cfi_startproc
 1335              	.LVL163:
 442:C:/Users/stapi/OneDrive/Desktop/GD32VW553/V1_MQTT_OK/GD32VW55X_Wifi_BLE_SDK/GD32VW55x_RELEASE_V1.0.2/MSDK/lwip/lwip-2.1.2/src/core\altcp_tcp.c ****     struct tcp_pcb *pcb = (struct tcp_pcb *)conn->state;
 1336              		.loc 1 442 3
 442:C:/Users/stapi/OneDrive/Desktop/GD32VW553/V1_MQTT_OK/GD32VW55X_Wifi_BLE_SDK/GD32VW55x_RELEASE_V1.0.2/MSDK/lwip/lwip-2.1.2/src/core\altcp_tcp.c ****     struct tcp_pcb *pcb = (struct tcp_pcb *)conn->state;
 1337              		.loc 1 442 6 is_stmt 0
 1338 0000 39C1     		beq	a0,zero,.L176
 441:C:/Users/stapi/OneDrive/Desktop/GD32VW553/V1_MQTT_OK/GD32VW55X_Wifi_BLE_SDK/GD32VW55x_RELEASE_V1.0.2/MSDK/lwip/lwip-2.1.2/src/core\altcp_tcp.c ****   if (conn != NULL) {
 1339              		.loc 1 441 1
 1340 0002 17030000 		call	t0,__riscv_save_0
 1340      E7020300 
 1341              		.cfi_offset 1, -4
 1342              		.cfi_def_cfa_offset 16
 1343              	.LBB96:
 443:C:/Users/stapi/OneDrive/Desktop/GD32VW553/V1_MQTT_OK/GD32VW55X_Wifi_BLE_SDK/GD32VW55x_RELEASE_V1.0.2/MSDK/lwip/lwip-2.1.2/src/core\altcp_tcp.c ****     ALTCP_TCP_ASSERT_CONN(conn);
 1344              		.loc 1 443 5 is_stmt 1
 1345              	.LVL164:
 444:C:/Users/stapi/OneDrive/Desktop/GD32VW553/V1_MQTT_OK/GD32VW55X_Wifi_BLE_SDK/GD32VW55x_RELEASE_V1.0.2/MSDK/lwip/lwip-2.1.2/src/core\altcp_tcp.c ****     tcp_setprio(pcb, prio);
 1346              		.loc 1 444 5
 444:C:/Users/stapi/OneDrive/Desktop/GD32VW553/V1_MQTT_OK/GD32VW55X_Wifi_BLE_SDK/GD32VW55x_RELEASE_V1.0.2/MSDK/lwip/lwip-2.1.2/src/core\altcp_tcp.c ****     tcp_setprio(pcb, prio);
 1347              		.loc 1 444 5
 444:C:/Users/stapi/OneDrive/Desktop/GD32VW553/V1_MQTT_OK/GD32VW55X_Wifi_BLE_SDK/GD32VW55x_RELEASE_V1.0.2/MSDK/lwip/lwip-2.1.2/src/core\altcp_tcp.c ****     tcp_setprio(pcb, prio);
 1348              		.loc 1 444 5
 1349 000a 5C41     		lw	a5,4(a0)
 1350 000c 85C7     		beq	a5,zero,.L170
 1351              	.LVL165:
 1352              	.LBE96:
 1353              	.LBB97:
 1354              	.LBB98:
 444:C:/Users/stapi/OneDrive/Desktop/GD32VW553/V1_MQTT_OK/GD32VW55X_Wifi_BLE_SDK/GD32VW55x_RELEASE_V1.0.2/MSDK/lwip/lwip-2.1.2/src/core\altcp_tcp.c ****     tcp_setprio(pcb, prio);
 1355              		.loc 1 444 5
 444:C:/Users/stapi/OneDrive/Desktop/GD32VW553/V1_MQTT_OK/GD32VW55X_Wifi_BLE_SDK/GD32VW55x_RELEASE_V1.0.2/MSDK/lwip/lwip-2.1.2/src/core\altcp_tcp.c ****     tcp_setprio(pcb, prio);
 1356              		.loc 1 444 5
 1357 000e B7060000 		lui	a3,%hi(.LC0)
 1358 0012 B7050000 		lui	a1,%hi(.LC3)
 1359              	.LVL166:
 1360 0016 37050000 		lui	a0,%hi(.LC2)
 1361              	.LVL167:
 1362 001a 93860600 		addi	a3,a3,%lo(.LC0)
 1363 001e 1306C01B 		li	a2,444
 1364 0022 93850500 		addi	a1,a1,%lo(.LC3)
 1365 0026 13050500 		addi	a0,a0,%lo(.LC2)
 1366 002a 97000000 		call	printf
 1366      E7800000 
 1367              	.LVL168:
 1368              	.L171:
 444:C:/Users/stapi/OneDrive/Desktop/GD32VW553/V1_MQTT_OK/GD32VW55X_Wifi_BLE_SDK/GD32VW55x_RELEASE_V1.0.2/MSDK/lwip/lwip-2.1.2/src/core\altcp_tcp.c ****     tcp_setprio(pcb, prio);
 1369              		.loc 1 444 5
 444:C:/Users/stapi/OneDrive/Desktop/GD32VW553/V1_MQTT_OK/GD32VW55X_Wifi_BLE_SDK/GD32VW55x_RELEASE_V1.0.2/MSDK/lwip/lwip-2.1.2/src/core\altcp_tcp.c ****     tcp_setprio(pcb, prio);
 1370              		.loc 1 444 5
 444:C:/Users/stapi/OneDrive/Desktop/GD32VW553/V1_MQTT_OK/GD32VW55X_Wifi_BLE_SDK/GD32VW55x_RELEASE_V1.0.2/MSDK/lwip/lwip-2.1.2/src/core\altcp_tcp.c ****     tcp_setprio(pcb, prio);
 1371              		.loc 1 444 5
 1372 0032 01A0     		j	.L171
 1373              	.LVL169:
 1374              	.L170:
 1375              	.LBE98:
 1376              	.LBE97:
 1377              	.LBB99:
 444:C:/Users/stapi/OneDrive/Desktop/GD32VW553/V1_MQTT_OK/GD32VW55X_Wifi_BLE_SDK/GD32VW55x_RELEASE_V1.0.2/MSDK/lwip/lwip-2.1.2/src/core\altcp_tcp.c ****     tcp_setprio(pcb, prio);
 1378              		.loc 1 444 5 discriminator 2
 444:C:/Users/stapi/OneDrive/Desktop/GD32VW553/V1_MQTT_OK/GD32VW55X_Wifi_BLE_SDK/GD32VW55x_RELEASE_V1.0.2/MSDK/lwip/lwip-2.1.2/src/core\altcp_tcp.c ****     tcp_setprio(pcb, prio);
 1379              		.loc 1 444 5 discriminator 2
 444:C:/Users/stapi/OneDrive/Desktop/GD32VW553/V1_MQTT_OK/GD32VW55X_Wifi_BLE_SDK/GD32VW55x_RELEASE_V1.0.2/MSDK/lwip/lwip-2.1.2/src/core\altcp_tcp.c ****     tcp_setprio(pcb, prio);
 1380              		.loc 1 444 5 discriminator 2
 444:C:/Users/stapi/OneDrive/Desktop/GD32VW553/V1_MQTT_OK/GD32VW55X_Wifi_BLE_SDK/GD32VW55x_RELEASE_V1.0.2/MSDK/lwip/lwip-2.1.2/src/core\altcp_tcp.c ****     tcp_setprio(pcb, prio);
 1381              		.loc 1 444 5 discriminator 2
 445:C:/Users/stapi/OneDrive/Desktop/GD32VW553/V1_MQTT_OK/GD32VW55X_Wifi_BLE_SDK/GD32VW55x_RELEASE_V1.0.2/MSDK/lwip/lwip-2.1.2/src/core\altcp_tcp.c ****   }
 1382              		.loc 1 445 5 discriminator 2
 1383 0034 4845     		lw	a0,12(a0)
 1384              	.LVL170:
 1385 0036 97000000 		call	tcp_setprio
 1385      E7800000 
 1386              	.LVL171:
 1387              	.LBE99:
 447:C:/Users/stapi/OneDrive/Desktop/GD32VW553/V1_MQTT_OK/GD32VW55X_Wifi_BLE_SDK/GD32VW55x_RELEASE_V1.0.2/MSDK/lwip/lwip-2.1.2/src/core\altcp_tcp.c **** 
 1388              		.loc 1 447 1 is_stmt 0 discriminator 2
 1389 003e 17030000 		tail	__riscv_restore_0
 1389      67000300 
 1390              		.cfi_restore 1
 1391              		.cfi_def_cfa_offset 0
 1392              	.LVL172:
 1393              	.L176:
 1394 0046 8280     		ret
 1395              		.cfi_endproc
 1396              	.LFE32:
 1398              		.section	.text.altcp_tcp_close,"ax",@progbits
 1399              		.align	1
 1401              	altcp_tcp_close:
 1402              	.LFB22:
 311:C:/Users/stapi/OneDrive/Desktop/GD32VW553/V1_MQTT_OK/GD32VW55X_Wifi_BLE_SDK/GD32VW55x_RELEASE_V1.0.2/MSDK/lwip/lwip-2.1.2/src/core\altcp_tcp.c ****   struct tcp_pcb *pcb;
 1403              		.loc 1 311 1 is_stmt 1
 1404              		.cfi_startproc
 1405              	.LVL173:
 1406 0000 17030000 		call	t0,__riscv_save_4
 1406      E7020300 
 1407              		.cfi_offset 19, -20
 1408              		.cfi_offset 18, -16
 1409              		.cfi_offset 9, -12
 1410              		.cfi_offset 8, -8
 1411              		.cfi_offset 1, -4
 1412              		.cfi_def_cfa_offset 32
 312:C:/Users/stapi/OneDrive/Desktop/GD32VW553/V1_MQTT_OK/GD32VW55X_Wifi_BLE_SDK/GD32VW55x_RELEASE_V1.0.2/MSDK/lwip/lwip-2.1.2/src/core\altcp_tcp.c ****   if (conn == NULL) {
 1413              		.loc 1 312 3
 313:C:/Users/stapi/OneDrive/Desktop/GD32VW553/V1_MQTT_OK/GD32VW55X_Wifi_BLE_SDK/GD32VW55x_RELEASE_V1.0.2/MSDK/lwip/lwip-2.1.2/src/core\altcp_tcp.c ****     return ERR_VAL;
 1414              		.loc 1 313 3
 313:C:/Users/stapi/OneDrive/Desktop/GD32VW553/V1_MQTT_OK/GD32VW55X_Wifi_BLE_SDK/GD32VW55x_RELEASE_V1.0.2/MSDK/lwip/lwip-2.1.2/src/core\altcp_tcp.c ****     return ERR_VAL;
 1415              		.loc 1 313 6 is_stmt 0
 1416 0008 55CD     		beq	a0,zero,.L185
 316:C:/Users/stapi/OneDrive/Desktop/GD32VW553/V1_MQTT_OK/GD32VW55X_Wifi_BLE_SDK/GD32VW55x_RELEASE_V1.0.2/MSDK/lwip/lwip-2.1.2/src/core\altcp_tcp.c ****   pcb = (struct tcp_pcb *)conn->state;
 1417              		.loc 1 316 3
 1418 000a 5C41     		lw	a5,4(a0)
 1419 000c AA84     		mv	s1,a0
 316:C:/Users/stapi/OneDrive/Desktop/GD32VW553/V1_MQTT_OK/GD32VW55X_Wifi_BLE_SDK/GD32VW55x_RELEASE_V1.0.2/MSDK/lwip/lwip-2.1.2/src/core\altcp_tcp.c ****   pcb = (struct tcp_pcb *)conn->state;
 1420              		.loc 1 316 3 is_stmt 1
 316:C:/Users/stapi/OneDrive/Desktop/GD32VW553/V1_MQTT_OK/GD32VW55X_Wifi_BLE_SDK/GD32VW55x_RELEASE_V1.0.2/MSDK/lwip/lwip-2.1.2/src/core\altcp_tcp.c ****   pcb = (struct tcp_pcb *)conn->state;
 1421              		.loc 1 316 3
 316:C:/Users/stapi/OneDrive/Desktop/GD32VW553/V1_MQTT_OK/GD32VW55X_Wifi_BLE_SDK/GD32VW55x_RELEASE_V1.0.2/MSDK/lwip/lwip-2.1.2/src/core\altcp_tcp.c ****   pcb = (struct tcp_pcb *)conn->state;
 1422              		.loc 1 316 3
 1423 000e 85C7     		beq	a5,zero,.L181
 316:C:/Users/stapi/OneDrive/Desktop/GD32VW553/V1_MQTT_OK/GD32VW55X_Wifi_BLE_SDK/GD32VW55x_RELEASE_V1.0.2/MSDK/lwip/lwip-2.1.2/src/core\altcp_tcp.c ****   pcb = (struct tcp_pcb *)conn->state;
 1424              		.loc 1 316 3 discriminator 1
 316:C:/Users/stapi/OneDrive/Desktop/GD32VW553/V1_MQTT_OK/GD32VW55X_Wifi_BLE_SDK/GD32VW55x_RELEASE_V1.0.2/MSDK/lwip/lwip-2.1.2/src/core\altcp_tcp.c ****   pcb = (struct tcp_pcb *)conn->state;
 1425              		.loc 1 316 3 discriminator 1
 1426 0010 B7060000 		lui	a3,%hi(.LC0)
 1427 0014 B7050000 		lui	a1,%hi(.LC3)
 1428 0018 37050000 		lui	a0,%hi(.LC2)
 1429              	.LVL174:
 1430 001c 93860600 		addi	a3,a3,%lo(.LC0)
 1431 0020 1306C013 		li	a2,316
 1432 0024 93850500 		addi	a1,a1,%lo(.LC3)
 1433 0028 13050500 		addi	a0,a0,%lo(.LC2)
 1434 002c 97000000 		call	printf
 1434      E7800000 
 1435              	.LVL175:
 1436              	.L182:
 316:C:/Users/stapi/OneDrive/Desktop/GD32VW553/V1_MQTT_OK/GD32VW55X_Wifi_BLE_SDK/GD32VW55x_RELEASE_V1.0.2/MSDK/lwip/lwip-2.1.2/src/core\altcp_tcp.c ****   pcb = (struct tcp_pcb *)conn->state;
 1437              		.loc 1 316 3 discriminator 1
 316:C:/Users/stapi/OneDrive/Desktop/GD32VW553/V1_MQTT_OK/GD32VW55X_Wifi_BLE_SDK/GD32VW55x_RELEASE_V1.0.2/MSDK/lwip/lwip-2.1.2/src/core\altcp_tcp.c ****   pcb = (struct tcp_pcb *)conn->state;
 1438              		.loc 1 316 3 discriminator 1
 316:C:/Users/stapi/OneDrive/Desktop/GD32VW553/V1_MQTT_OK/GD32VW55X_Wifi_BLE_SDK/GD32VW55x_RELEASE_V1.0.2/MSDK/lwip/lwip-2.1.2/src/core\altcp_tcp.c ****   pcb = (struct tcp_pcb *)conn->state;
 1439              		.loc 1 316 3 discriminator 1
 1440 0034 01A0     		j	.L182
 1441              	.L181:
 1442              	.LVL176:
 1443              	.LBB105:
 1444              	.LBB106:
 316:C:/Users/stapi/OneDrive/Desktop/GD32VW553/V1_MQTT_OK/GD32VW55X_Wifi_BLE_SDK/GD32VW55x_RELEASE_V1.0.2/MSDK/lwip/lwip-2.1.2/src/core\altcp_tcp.c ****   pcb = (struct tcp_pcb *)conn->state;
 1445              		.loc 1 316 3
 316:C:/Users/stapi/OneDrive/Desktop/GD32VW553/V1_MQTT_OK/GD32VW55X_Wifi_BLE_SDK/GD32VW55x_RELEASE_V1.0.2/MSDK/lwip/lwip-2.1.2/src/core\altcp_tcp.c ****   pcb = (struct tcp_pcb *)conn->state;
 1446              		.loc 1 316 3
 316:C:/Users/stapi/OneDrive/Desktop/GD32VW553/V1_MQTT_OK/GD32VW55X_Wifi_BLE_SDK/GD32VW55x_RELEASE_V1.0.2/MSDK/lwip/lwip-2.1.2/src/core\altcp_tcp.c ****   pcb = (struct tcp_pcb *)conn->state;
 1447              		.loc 1 316 3
 316:C:/Users/stapi/OneDrive/Desktop/GD32VW553/V1_MQTT_OK/GD32VW55X_Wifi_BLE_SDK/GD32VW55x_RELEASE_V1.0.2/MSDK/lwip/lwip-2.1.2/src/core\altcp_tcp.c ****   pcb = (struct tcp_pcb *)conn->state;
 1448              		.loc 1 316 3
 317:C:/Users/stapi/OneDrive/Desktop/GD32VW553/V1_MQTT_OK/GD32VW55X_Wifi_BLE_SDK/GD32VW55x_RELEASE_V1.0.2/MSDK/lwip/lwip-2.1.2/src/core\altcp_tcp.c ****   if (pcb) {
 1449              		.loc 1 317 3
 317:C:/Users/stapi/OneDrive/Desktop/GD32VW553/V1_MQTT_OK/GD32VW55X_Wifi_BLE_SDK/GD32VW55x_RELEASE_V1.0.2/MSDK/lwip/lwip-2.1.2/src/core\altcp_tcp.c ****   if (pcb) {
 1450              		.loc 1 317 7 is_stmt 0
 1451 0036 4045     		lw	s0,12(a0)
 1452              	.LVL177:
 318:C:/Users/stapi/OneDrive/Desktop/GD32VW553/V1_MQTT_OK/GD32VW55X_Wifi_BLE_SDK/GD32VW55x_RELEASE_V1.0.2/MSDK/lwip/lwip-2.1.2/src/core\altcp_tcp.c ****     err_t err;
 1453              		.loc 1 318 3 is_stmt 1
 318:C:/Users/stapi/OneDrive/Desktop/GD32VW553/V1_MQTT_OK/GD32VW55X_Wifi_BLE_SDK/GD32VW55x_RELEASE_V1.0.2/MSDK/lwip/lwip-2.1.2/src/core\altcp_tcp.c ****     err_t err;
 1454              		.loc 1 318 6 is_stmt 0
 1455 0038 3DCC     		beq	s0,zero,.L183
 1456              	.LBB107:
 319:C:/Users/stapi/OneDrive/Desktop/GD32VW553/V1_MQTT_OK/GD32VW55X_Wifi_BLE_SDK/GD32VW55x_RELEASE_V1.0.2/MSDK/lwip/lwip-2.1.2/src/core\altcp_tcp.c ****     tcp_poll_fn oldpoll = pcb->poll;
 1457              		.loc 1 319 5 is_stmt 1
 320:C:/Users/stapi/OneDrive/Desktop/GD32VW553/V1_MQTT_OK/GD32VW55X_Wifi_BLE_SDK/GD32VW55x_RELEASE_V1.0.2/MSDK/lwip/lwip-2.1.2/src/core\altcp_tcp.c ****     altcp_tcp_remove_callbacks(pcb);
 1458              		.loc 1 320 5
 1459              	.LBB108:
 1460              	.LBB109:
 162:C:/Users/stapi/OneDrive/Desktop/GD32VW553/V1_MQTT_OK/GD32VW55X_Wifi_BLE_SDK/GD32VW55x_RELEASE_V1.0.2/MSDK/lwip/lwip-2.1.2/src/core\altcp_tcp.c ****   tcp_recv(tpcb, NULL);
 1461              		.loc 1 162 3 is_stmt 0
 1462 003a 8145     		li	a1,0
 1463 003c 2285     		mv	a0,s0
 1464              	.LBE109:
 1465              	.LBE108:
 320:C:/Users/stapi/OneDrive/Desktop/GD32VW553/V1_MQTT_OK/GD32VW55X_Wifi_BLE_SDK/GD32VW55x_RELEASE_V1.0.2/MSDK/lwip/lwip-2.1.2/src/core\altcp_tcp.c ****     altcp_tcp_remove_callbacks(pcb);
 1466              		.loc 1 320 17
 1467 003e 8329040C 		lw	s3,192(s0)
 1468              	.LVL178:
 321:C:/Users/stapi/OneDrive/Desktop/GD32VW553/V1_MQTT_OK/GD32VW55X_Wifi_BLE_SDK/GD32VW55x_RELEASE_V1.0.2/MSDK/lwip/lwip-2.1.2/src/core\altcp_tcp.c ****     err = tcp_close(pcb);
 1469              		.loc 1 321 5 is_stmt 1
 1470              	.LBB111:
 1471              	.LBB110:
 162:C:/Users/stapi/OneDrive/Desktop/GD32VW553/V1_MQTT_OK/GD32VW55X_Wifi_BLE_SDK/GD32VW55x_RELEASE_V1.0.2/MSDK/lwip/lwip-2.1.2/src/core\altcp_tcp.c ****   tcp_recv(tpcb, NULL);
 1472              		.loc 1 162 3
 1473 0042 97000000 		call	tcp_arg
 1473      E7800000 
 1474              	.LVL179:
 163:C:/Users/stapi/OneDrive/Desktop/GD32VW553/V1_MQTT_OK/GD32VW55X_Wifi_BLE_SDK/GD32VW55x_RELEASE_V1.0.2/MSDK/lwip/lwip-2.1.2/src/core\altcp_tcp.c ****   tcp_sent(tpcb, NULL);
 1475              		.loc 1 163 3
 1476 004a 8145     		li	a1,0
 1477 004c 2285     		mv	a0,s0
 1478 004e 97000000 		call	tcp_recv
 1478      E7800000 
 1479              	.LVL180:
 164:C:/Users/stapi/OneDrive/Desktop/GD32VW553/V1_MQTT_OK/GD32VW55X_Wifi_BLE_SDK/GD32VW55x_RELEASE_V1.0.2/MSDK/lwip/lwip-2.1.2/src/core\altcp_tcp.c ****   tcp_err(tpcb, NULL);
 1480              		.loc 1 164 3
 1481 0056 8145     		li	a1,0
 1482 0058 2285     		mv	a0,s0
 1483 005a 97000000 		call	tcp_sent
 1483      E7800000 
 1484              	.LVL181:
 165:C:/Users/stapi/OneDrive/Desktop/GD32VW553/V1_MQTT_OK/GD32VW55X_Wifi_BLE_SDK/GD32VW55x_RELEASE_V1.0.2/MSDK/lwip/lwip-2.1.2/src/core\altcp_tcp.c ****   tcp_poll(tpcb, NULL, tpcb->pollinterval);
 1485              		.loc 1 165 3
 1486 0062 8145     		li	a1,0
 1487 0064 2285     		mv	a0,s0
 1488 0066 97000000 		call	tcp_err
 1488      E7800000 
 1489              	.LVL182:
 166:C:/Users/stapi/OneDrive/Desktop/GD32VW553/V1_MQTT_OK/GD32VW55X_Wifi_BLE_SDK/GD32VW55x_RELEASE_V1.0.2/MSDK/lwip/lwip-2.1.2/src/core\altcp_tcp.c **** }
 1490              		.loc 1 166 3
 1491 006e 03461402 		lbu	a2,33(s0)
 1492 0072 8145     		li	a1,0
 1493 0074 2285     		mv	a0,s0
 1494 0076 97000000 		call	tcp_poll
 1494      E7800000 
 1495              	.LVL183:
 1496              	.LBE110:
 1497              	.LBE111:
 322:C:/Users/stapi/OneDrive/Desktop/GD32VW553/V1_MQTT_OK/GD32VW55X_Wifi_BLE_SDK/GD32VW55x_RELEASE_V1.0.2/MSDK/lwip/lwip-2.1.2/src/core\altcp_tcp.c ****     if (err != ERR_OK) {
 1498              		.loc 1 322 5
 322:C:/Users/stapi/OneDrive/Desktop/GD32VW553/V1_MQTT_OK/GD32VW55X_Wifi_BLE_SDK/GD32VW55x_RELEASE_V1.0.2/MSDK/lwip/lwip-2.1.2/src/core\altcp_tcp.c ****     if (err != ERR_OK) {
 1499              		.loc 1 322 11 is_stmt 0
 1500 007e 2285     		mv	a0,s0
 1501 0080 97000000 		call	tcp_close
 1501      E7800000 
 1502              	.LVL184:
 1503 0088 2A89     		mv	s2,a0
 1504              	.LVL185:
 323:C:/Users/stapi/OneDrive/Desktop/GD32VW553/V1_MQTT_OK/GD32VW55X_Wifi_BLE_SDK/GD32VW55x_RELEASE_V1.0.2/MSDK/lwip/lwip-2.1.2/src/core\altcp_tcp.c ****       /* not closed, set up all callbacks again */
 1505              		.loc 1 323 5 is_stmt 1
 323:C:/Users/stapi/OneDrive/Desktop/GD32VW553/V1_MQTT_OK/GD32VW55X_Wifi_BLE_SDK/GD32VW55x_RELEASE_V1.0.2/MSDK/lwip/lwip-2.1.2/src/core\altcp_tcp.c ****       /* not closed, set up all callbacks again */
 1506              		.loc 1 323 8 is_stmt 0
 1507 008a 05C5     		beq	a0,zero,.L184
 325:C:/Users/stapi/OneDrive/Desktop/GD32VW553/V1_MQTT_OK/GD32VW55X_Wifi_BLE_SDK/GD32VW55x_RELEASE_V1.0.2/MSDK/lwip/lwip-2.1.2/src/core\altcp_tcp.c ****       /* poll callback is not included in the above */
 1508              		.loc 1 325 7 is_stmt 1
 1509 008c A285     		mv	a1,s0
 1510 008e 2685     		mv	a0,s1
 1511              	.LVL186:
 1512 0090 97000000 		call	altcp_tcp_setup_callbacks
 1512      E7800000 
 1513              	.LVL187:
 327:C:/Users/stapi/OneDrive/Desktop/GD32VW553/V1_MQTT_OK/GD32VW55X_Wifi_BLE_SDK/GD32VW55x_RELEASE_V1.0.2/MSDK/lwip/lwip-2.1.2/src/core\altcp_tcp.c ****       return err;
 1514              		.loc 1 327 7
 1515 0098 03461402 		lbu	a2,33(s0)
 1516 009c CE85     		mv	a1,s3
 1517 009e 2285     		mv	a0,s0
 1518 00a0 97000000 		call	tcp_poll
 1518      E7800000 
 1519              	.LVL188:
 328:C:/Users/stapi/OneDrive/Desktop/GD32VW553/V1_MQTT_OK/GD32VW55X_Wifi_BLE_SDK/GD32VW55x_RELEASE_V1.0.2/MSDK/lwip/lwip-2.1.2/src/core\altcp_tcp.c ****     }
 1520              		.loc 1 328 7
 1521              	.L180:
 1522              	.LBE107:
 1523              	.LBE106:
 1524              	.LBE105:
 334:C:/Users/stapi/OneDrive/Desktop/GD32VW553/V1_MQTT_OK/GD32VW55X_Wifi_BLE_SDK/GD32VW55x_RELEASE_V1.0.2/MSDK/lwip/lwip-2.1.2/src/core\altcp_tcp.c **** 
 1525              		.loc 1 334 1 is_stmt 0
 1526 00a8 4A85     		mv	a0,s2
 1527 00aa 17030000 		tail	__riscv_restore_4
 1527      67000300 
 1528              		.cfi_remember_state
 1529              		.cfi_restore 19
 1530              		.cfi_restore 18
 1531              		.cfi_restore 9
 1532              		.cfi_restore 8
 1533              		.cfi_restore 1
 1534              		.cfi_def_cfa_offset 0
 1535              	.LVL189:
 1536              	.L184:
 1537              		.cfi_restore_state
 1538              	.LBB114:
 1539              	.LBB113:
 1540              	.LBB112:
 330:C:/Users/stapi/OneDrive/Desktop/GD32VW553/V1_MQTT_OK/GD32VW55X_Wifi_BLE_SDK/GD32VW55x_RELEASE_V1.0.2/MSDK/lwip/lwip-2.1.2/src/core\altcp_tcp.c ****   }
 1541              		.loc 1 330 5 is_stmt 1
 330:C:/Users/stapi/OneDrive/Desktop/GD32VW553/V1_MQTT_OK/GD32VW55X_Wifi_BLE_SDK/GD32VW55x_RELEASE_V1.0.2/MSDK/lwip/lwip-2.1.2/src/core\altcp_tcp.c ****   }
 1542              		.loc 1 330 17 is_stmt 0
 1543 00b2 23A60400 		sw	zero,12(s1)
 1544              	.LVL190:
 1545              	.L183:
 1546              	.LBE112:
 332:C:/Users/stapi/OneDrive/Desktop/GD32VW553/V1_MQTT_OK/GD32VW55X_Wifi_BLE_SDK/GD32VW55x_RELEASE_V1.0.2/MSDK/lwip/lwip-2.1.2/src/core\altcp_tcp.c ****   return ERR_OK;
 1547              		.loc 1 332 3 is_stmt 1
 1548 00b6 2685     		mv	a0,s1
 1549 00b8 97000000 		call	altcp_free
 1549      E7800000 
 1550              	.LVL191:
 333:C:/Users/stapi/OneDrive/Desktop/GD32VW553/V1_MQTT_OK/GD32VW55X_Wifi_BLE_SDK/GD32VW55x_RELEASE_V1.0.2/MSDK/lwip/lwip-2.1.2/src/core\altcp_tcp.c **** }
 1551              		.loc 1 333 3
 333:C:/Users/stapi/OneDrive/Desktop/GD32VW553/V1_MQTT_OK/GD32VW55X_Wifi_BLE_SDK/GD32VW55x_RELEASE_V1.0.2/MSDK/lwip/lwip-2.1.2/src/core\altcp_tcp.c **** }
 1552              		.loc 1 333 10 is_stmt 0
 1553 00c0 0149     		li	s2,0
 1554 00c2 DDB7     		j	.L180
 1555              	.LVL192:
 1556              	.L185:
 1557              	.LBE113:
 1558              	.LBE114:
 314:C:/Users/stapi/OneDrive/Desktop/GD32VW553/V1_MQTT_OK/GD32VW55X_Wifi_BLE_SDK/GD32VW55x_RELEASE_V1.0.2/MSDK/lwip/lwip-2.1.2/src/core\altcp_tcp.c ****   }
 1559              		.loc 1 314 12
 1560 00c4 6959     		li	s2,-6
 1561 00c6 CDB7     		j	.L180
 1562              		.cfi_endproc
 1563              	.LFE22:
 1565              		.section	.text.altcp_tcp_set_poll,"ax",@progbits
 1566              		.align	1
 1568              	altcp_tcp_set_poll:
 1569              	.LFB16:
 235:C:/Users/stapi/OneDrive/Desktop/GD32VW553/V1_MQTT_OK/GD32VW55X_Wifi_BLE_SDK/GD32VW55x_RELEASE_V1.0.2/MSDK/lwip/lwip-2.1.2/src/core\altcp_tcp.c ****   if (conn != NULL) {
 1570              		.loc 1 235 1 is_stmt 1
 1571              		.cfi_startproc
 1572              	.LVL193:
 236:C:/Users/stapi/OneDrive/Desktop/GD32VW553/V1_MQTT_OK/GD32VW55X_Wifi_BLE_SDK/GD32VW55x_RELEASE_V1.0.2/MSDK/lwip/lwip-2.1.2/src/core\altcp_tcp.c ****     struct tcp_pcb *pcb = (struct tcp_pcb *)conn->state;
 1573              		.loc 1 236 3
 236:C:/Users/stapi/OneDrive/Desktop/GD32VW553/V1_MQTT_OK/GD32VW55X_Wifi_BLE_SDK/GD32VW55x_RELEASE_V1.0.2/MSDK/lwip/lwip-2.1.2/src/core\altcp_tcp.c ****     struct tcp_pcb *pcb = (struct tcp_pcb *)conn->state;
 1574              		.loc 1 236 6 is_stmt 0
 1575 0000 21C9     		beq	a0,zero,.L198
 235:C:/Users/stapi/OneDrive/Desktop/GD32VW553/V1_MQTT_OK/GD32VW55X_Wifi_BLE_SDK/GD32VW55x_RELEASE_V1.0.2/MSDK/lwip/lwip-2.1.2/src/core\altcp_tcp.c ****   if (conn != NULL) {
 1576              		.loc 1 235 1
 1577 0002 17030000 		call	t0,__riscv_save_0
 1577      E7020300 
 1578              		.cfi_offset 1, -4
 1579              		.cfi_def_cfa_offset 16
 1580              	.LBB119:
 237:C:/Users/stapi/OneDrive/Desktop/GD32VW553/V1_MQTT_OK/GD32VW55X_Wifi_BLE_SDK/GD32VW55x_RELEASE_V1.0.2/MSDK/lwip/lwip-2.1.2/src/core\altcp_tcp.c ****     ALTCP_TCP_ASSERT_CONN(conn);
 1581              		.loc 1 237 5 is_stmt 1
 1582              	.LVL194:
 238:C:/Users/stapi/OneDrive/Desktop/GD32VW553/V1_MQTT_OK/GD32VW55X_Wifi_BLE_SDK/GD32VW55x_RELEASE_V1.0.2/MSDK/lwip/lwip-2.1.2/src/core\altcp_tcp.c ****     tcp_poll(pcb, altcp_tcp_poll, interval);
 1583              		.loc 1 238 5
 238:C:/Users/stapi/OneDrive/Desktop/GD32VW553/V1_MQTT_OK/GD32VW55X_Wifi_BLE_SDK/GD32VW55x_RELEASE_V1.0.2/MSDK/lwip/lwip-2.1.2/src/core\altcp_tcp.c ****     tcp_poll(pcb, altcp_tcp_poll, interval);
 1584              		.loc 1 238 5
 238:C:/Users/stapi/OneDrive/Desktop/GD32VW553/V1_MQTT_OK/GD32VW55X_Wifi_BLE_SDK/GD32VW55x_RELEASE_V1.0.2/MSDK/lwip/lwip-2.1.2/src/core\altcp_tcp.c ****     tcp_poll(pcb, altcp_tcp_poll, interval);
 1585              		.loc 1 238 5
 1586 000a 5C41     		lw	a5,4(a0)
 1587 000c 85C7     		beq	a5,zero,.L192
 1588              	.LVL195:
 1589              	.LBE119:
 1590              	.LBB120:
 1591              	.LBB121:
 238:C:/Users/stapi/OneDrive/Desktop/GD32VW553/V1_MQTT_OK/GD32VW55X_Wifi_BLE_SDK/GD32VW55x_RELEASE_V1.0.2/MSDK/lwip/lwip-2.1.2/src/core\altcp_tcp.c ****     tcp_poll(pcb, altcp_tcp_poll, interval);
 1592              		.loc 1 238 5
 238:C:/Users/stapi/OneDrive/Desktop/GD32VW553/V1_MQTT_OK/GD32VW55X_Wifi_BLE_SDK/GD32VW55x_RELEASE_V1.0.2/MSDK/lwip/lwip-2.1.2/src/core\altcp_tcp.c ****     tcp_poll(pcb, altcp_tcp_poll, interval);
 1593              		.loc 1 238 5
 1594 000e B7060000 		lui	a3,%hi(.LC0)
 1595 0012 B7050000 		lui	a1,%hi(.LC3)
 1596              	.LVL196:
 1597 0016 37050000 		lui	a0,%hi(.LC2)
 1598              	.LVL197:
 1599 001a 93860600 		addi	a3,a3,%lo(.LC0)
 1600 001e 1306E00E 		li	a2,238
 1601 0022 93850500 		addi	a1,a1,%lo(.LC3)
 1602 0026 13050500 		addi	a0,a0,%lo(.LC2)
 1603 002a 97000000 		call	printf
 1603      E7800000 
 1604              	.LVL198:
 1605              	.L193:
 238:C:/Users/stapi/OneDrive/Desktop/GD32VW553/V1_MQTT_OK/GD32VW55X_Wifi_BLE_SDK/GD32VW55x_RELEASE_V1.0.2/MSDK/lwip/lwip-2.1.2/src/core\altcp_tcp.c ****     tcp_poll(pcb, altcp_tcp_poll, interval);
 1606              		.loc 1 238 5
 238:C:/Users/stapi/OneDrive/Desktop/GD32VW553/V1_MQTT_OK/GD32VW55X_Wifi_BLE_SDK/GD32VW55x_RELEASE_V1.0.2/MSDK/lwip/lwip-2.1.2/src/core\altcp_tcp.c ****     tcp_poll(pcb, altcp_tcp_poll, interval);
 1607              		.loc 1 238 5
 238:C:/Users/stapi/OneDrive/Desktop/GD32VW553/V1_MQTT_OK/GD32VW55X_Wifi_BLE_SDK/GD32VW55x_RELEASE_V1.0.2/MSDK/lwip/lwip-2.1.2/src/core\altcp_tcp.c ****     tcp_poll(pcb, altcp_tcp_poll, interval);
 1608              		.loc 1 238 5
 1609 0032 01A0     		j	.L193
 1610              	.LVL199:
 1611              	.L192:
 1612              	.LBE121:
 1613              	.LBE120:
 1614              	.LBB122:
 239:C:/Users/stapi/OneDrive/Desktop/GD32VW553/V1_MQTT_OK/GD32VW55X_Wifi_BLE_SDK/GD32VW55x_RELEASE_V1.0.2/MSDK/lwip/lwip-2.1.2/src/core\altcp_tcp.c ****   }
 1615              		.loc 1 239 5 is_stmt 0 discriminator 2
 1616 0034 4845     		lw	a0,12(a0)
 1617              	.LVL200:
 1618 0036 2E86     		mv	a2,a1
 238:C:/Users/stapi/OneDrive/Desktop/GD32VW553/V1_MQTT_OK/GD32VW55X_Wifi_BLE_SDK/GD32VW55x_RELEASE_V1.0.2/MSDK/lwip/lwip-2.1.2/src/core\altcp_tcp.c ****     tcp_poll(pcb, altcp_tcp_poll, interval);
 1619              		.loc 1 238 5 is_stmt 1 discriminator 2
 238:C:/Users/stapi/OneDrive/Desktop/GD32VW553/V1_MQTT_OK/GD32VW55X_Wifi_BLE_SDK/GD32VW55x_RELEASE_V1.0.2/MSDK/lwip/lwip-2.1.2/src/core\altcp_tcp.c ****     tcp_poll(pcb, altcp_tcp_poll, interval);
 1620              		.loc 1 238 5 discriminator 2
 238:C:/Users/stapi/OneDrive/Desktop/GD32VW553/V1_MQTT_OK/GD32VW55X_Wifi_BLE_SDK/GD32VW55x_RELEASE_V1.0.2/MSDK/lwip/lwip-2.1.2/src/core\altcp_tcp.c ****     tcp_poll(pcb, altcp_tcp_poll, interval);
 1621              		.loc 1 238 5 discriminator 2
 238:C:/Users/stapi/OneDrive/Desktop/GD32VW553/V1_MQTT_OK/GD32VW55X_Wifi_BLE_SDK/GD32VW55x_RELEASE_V1.0.2/MSDK/lwip/lwip-2.1.2/src/core\altcp_tcp.c ****     tcp_poll(pcb, altcp_tcp_poll, interval);
 1622              		.loc 1 238 5 discriminator 2
 239:C:/Users/stapi/OneDrive/Desktop/GD32VW553/V1_MQTT_OK/GD32VW55X_Wifi_BLE_SDK/GD32VW55x_RELEASE_V1.0.2/MSDK/lwip/lwip-2.1.2/src/core\altcp_tcp.c ****   }
 1623              		.loc 1 239 5 discriminator 2
 1624 0038 B7050000 		lui	a1,%hi(altcp_tcp_poll)
 1625              	.LVL201:
 1626 003c 93850500 		addi	a1,a1,%lo(altcp_tcp_poll)
 1627 0040 97000000 		call	tcp_poll
 1627      E7800000 
 1628              	.LVL202:
 1629              	.LBE122:
 241:C:/Users/stapi/OneDrive/Desktop/GD32VW553/V1_MQTT_OK/GD32VW55X_Wifi_BLE_SDK/GD32VW55x_RELEASE_V1.0.2/MSDK/lwip/lwip-2.1.2/src/core\altcp_tcp.c **** 
 1630              		.loc 1 241 1 is_stmt 0 discriminator 2
 1631 0048 17030000 		tail	__riscv_restore_0
 1631      67000300 
 1632              		.cfi_restore 1
 1633              		.cfi_def_cfa_offset 0
 1634              	.LVL203:
 1635              	.L198:
 1636 0050 8280     		ret
 1637              		.cfi_endproc
 1638              	.LFE16:
 1640              		.section	.text.altcp_tcp_abort,"ax",@progbits
 1641              		.align	1
 1643              	altcp_tcp_abort:
 1644              	.LFB21:
 299:C:/Users/stapi/OneDrive/Desktop/GD32VW553/V1_MQTT_OK/GD32VW55X_Wifi_BLE_SDK/GD32VW55x_RELEASE_V1.0.2/MSDK/lwip/lwip-2.1.2/src/core\altcp_tcp.c ****   if (conn != NULL) {
 1645              		.loc 1 299 1 is_stmt 1
 1646              		.cfi_startproc
 1647              	.LVL204:
 300:C:/Users/stapi/OneDrive/Desktop/GD32VW553/V1_MQTT_OK/GD32VW55X_Wifi_BLE_SDK/GD32VW55x_RELEASE_V1.0.2/MSDK/lwip/lwip-2.1.2/src/core\altcp_tcp.c ****     struct tcp_pcb *pcb = (struct tcp_pcb *)conn->state;
 1648              		.loc 1 300 3
 300:C:/Users/stapi/OneDrive/Desktop/GD32VW553/V1_MQTT_OK/GD32VW55X_Wifi_BLE_SDK/GD32VW55x_RELEASE_V1.0.2/MSDK/lwip/lwip-2.1.2/src/core\altcp_tcp.c ****     struct tcp_pcb *pcb = (struct tcp_pcb *)conn->state;
 1649              		.loc 1 300 6 is_stmt 0
 1650 0000 21C5     		beq	a0,zero,.L212
 299:C:/Users/stapi/OneDrive/Desktop/GD32VW553/V1_MQTT_OK/GD32VW55X_Wifi_BLE_SDK/GD32VW55x_RELEASE_V1.0.2/MSDK/lwip/lwip-2.1.2/src/core\altcp_tcp.c ****   if (conn != NULL) {
 1651              		.loc 1 299 1
 1652 0002 17030000 		call	t0,__riscv_save_0
 1652      E7020300 
 1653              		.cfi_offset 1, -4
 1654              		.cfi_def_cfa_offset 16
 1655              	.LBB127:
 301:C:/Users/stapi/OneDrive/Desktop/GD32VW553/V1_MQTT_OK/GD32VW55X_Wifi_BLE_SDK/GD32VW55x_RELEASE_V1.0.2/MSDK/lwip/lwip-2.1.2/src/core\altcp_tcp.c ****     ALTCP_TCP_ASSERT_CONN(conn);
 1656              		.loc 1 301 5 is_stmt 1
 1657              	.LVL205:
 302:C:/Users/stapi/OneDrive/Desktop/GD32VW553/V1_MQTT_OK/GD32VW55X_Wifi_BLE_SDK/GD32VW55x_RELEASE_V1.0.2/MSDK/lwip/lwip-2.1.2/src/core\altcp_tcp.c ****     if (pcb) {
 1658              		.loc 1 302 5
 302:C:/Users/stapi/OneDrive/Desktop/GD32VW553/V1_MQTT_OK/GD32VW55X_Wifi_BLE_SDK/GD32VW55x_RELEASE_V1.0.2/MSDK/lwip/lwip-2.1.2/src/core\altcp_tcp.c ****     if (pcb) {
 1659              		.loc 1 302 5
 302:C:/Users/stapi/OneDrive/Desktop/GD32VW553/V1_MQTT_OK/GD32VW55X_Wifi_BLE_SDK/GD32VW55x_RELEASE_V1.0.2/MSDK/lwip/lwip-2.1.2/src/core\altcp_tcp.c ****     if (pcb) {
 1660              		.loc 1 302 5
 1661 000a 5C41     		lw	a5,4(a0)
 1662 000c 85C7     		beq	a5,zero,.L203
 1663              	.LVL206:
 1664              	.LBE127:
 1665              	.LBB128:
 1666              	.LBB129:
 302:C:/Users/stapi/OneDrive/Desktop/GD32VW553/V1_MQTT_OK/GD32VW55X_Wifi_BLE_SDK/GD32VW55x_RELEASE_V1.0.2/MSDK/lwip/lwip-2.1.2/src/core\altcp_tcp.c ****     if (pcb) {
 1667              		.loc 1 302 5
 302:C:/Users/stapi/OneDrive/Desktop/GD32VW553/V1_MQTT_OK/GD32VW55X_Wifi_BLE_SDK/GD32VW55x_RELEASE_V1.0.2/MSDK/lwip/lwip-2.1.2/src/core\altcp_tcp.c ****     if (pcb) {
 1668              		.loc 1 302 5
 1669 000e B7060000 		lui	a3,%hi(.LC0)
 1670 0012 B7050000 		lui	a1,%hi(.LC3)
 1671 0016 37050000 		lui	a0,%hi(.LC2)
 1672              	.LVL207:
 1673 001a 93860600 		addi	a3,a3,%lo(.LC0)
 1674 001e 1306E012 		li	a2,302
 1675 0022 93850500 		addi	a1,a1,%lo(.LC3)
 1676 0026 13050500 		addi	a0,a0,%lo(.LC2)
 1677 002a 97000000 		call	printf
 1677      E7800000 
 1678              	.LVL208:
 1679              	.L204:
 302:C:/Users/stapi/OneDrive/Desktop/GD32VW553/V1_MQTT_OK/GD32VW55X_Wifi_BLE_SDK/GD32VW55x_RELEASE_V1.0.2/MSDK/lwip/lwip-2.1.2/src/core\altcp_tcp.c ****     if (pcb) {
 1680              		.loc 1 302 5
 302:C:/Users/stapi/OneDrive/Desktop/GD32VW553/V1_MQTT_OK/GD32VW55X_Wifi_BLE_SDK/GD32VW55x_RELEASE_V1.0.2/MSDK/lwip/lwip-2.1.2/src/core\altcp_tcp.c ****     if (pcb) {
 1681              		.loc 1 302 5
 302:C:/Users/stapi/OneDrive/Desktop/GD32VW553/V1_MQTT_OK/GD32VW55X_Wifi_BLE_SDK/GD32VW55x_RELEASE_V1.0.2/MSDK/lwip/lwip-2.1.2/src/core\altcp_tcp.c ****     if (pcb) {
 1682              		.loc 1 302 5
 1683 0032 01A0     		j	.L204
 1684              	.LVL209:
 1685              	.L203:
 1686              	.LBE129:
 1687              	.LBE128:
 1688              	.LBB130:
 301:C:/Users/stapi/OneDrive/Desktop/GD32VW553/V1_MQTT_OK/GD32VW55X_Wifi_BLE_SDK/GD32VW55x_RELEASE_V1.0.2/MSDK/lwip/lwip-2.1.2/src/core\altcp_tcp.c ****     ALTCP_TCP_ASSERT_CONN(conn);
 1689              		.loc 1 301 21 is_stmt 0 discriminator 2
 1690 0034 4845     		lw	a0,12(a0)
 1691              	.LVL210:
 302:C:/Users/stapi/OneDrive/Desktop/GD32VW553/V1_MQTT_OK/GD32VW55X_Wifi_BLE_SDK/GD32VW55x_RELEASE_V1.0.2/MSDK/lwip/lwip-2.1.2/src/core\altcp_tcp.c ****     if (pcb) {
 1692              		.loc 1 302 5 is_stmt 1 discriminator 2
 302:C:/Users/stapi/OneDrive/Desktop/GD32VW553/V1_MQTT_OK/GD32VW55X_Wifi_BLE_SDK/GD32VW55x_RELEASE_V1.0.2/MSDK/lwip/lwip-2.1.2/src/core\altcp_tcp.c ****     if (pcb) {
 1693              		.loc 1 302 5 discriminator 2
 302:C:/Users/stapi/OneDrive/Desktop/GD32VW553/V1_MQTT_OK/GD32VW55X_Wifi_BLE_SDK/GD32VW55x_RELEASE_V1.0.2/MSDK/lwip/lwip-2.1.2/src/core\altcp_tcp.c ****     if (pcb) {
 1694              		.loc 1 302 5 discriminator 2
 302:C:/Users/stapi/OneDrive/Desktop/GD32VW553/V1_MQTT_OK/GD32VW55X_Wifi_BLE_SDK/GD32VW55x_RELEASE_V1.0.2/MSDK/lwip/lwip-2.1.2/src/core\altcp_tcp.c ****     if (pcb) {
 1695              		.loc 1 302 5 discriminator 2
 303:C:/Users/stapi/OneDrive/Desktop/GD32VW553/V1_MQTT_OK/GD32VW55X_Wifi_BLE_SDK/GD32VW55x_RELEASE_V1.0.2/MSDK/lwip/lwip-2.1.2/src/core\altcp_tcp.c ****       tcp_abort(pcb);
 1696              		.loc 1 303 5 discriminator 2
 303:C:/Users/stapi/OneDrive/Desktop/GD32VW553/V1_MQTT_OK/GD32VW55X_Wifi_BLE_SDK/GD32VW55x_RELEASE_V1.0.2/MSDK/lwip/lwip-2.1.2/src/core\altcp_tcp.c ****       tcp_abort(pcb);
 1697              		.loc 1 303 8 is_stmt 0 discriminator 2
 1698 0036 09C5     		beq	a0,zero,.L201
 304:C:/Users/stapi/OneDrive/Desktop/GD32VW553/V1_MQTT_OK/GD32VW55X_Wifi_BLE_SDK/GD32VW55x_RELEASE_V1.0.2/MSDK/lwip/lwip-2.1.2/src/core\altcp_tcp.c ****     }
 1699              		.loc 1 304 7 is_stmt 1
 1700 0038 97000000 		call	tcp_abort
 1700      E7800000 
 1701              	.LVL211:
 1702              	.L201:
 1703              	.LBE130:
 307:C:/Users/stapi/OneDrive/Desktop/GD32VW553/V1_MQTT_OK/GD32VW55X_Wifi_BLE_SDK/GD32VW55x_RELEASE_V1.0.2/MSDK/lwip/lwip-2.1.2/src/core\altcp_tcp.c **** 
 1704              		.loc 1 307 1 is_stmt 0
 1705 0040 17030000 		tail	__riscv_restore_0
 1705      67000300 
 1706              		.cfi_restore 1
 1707              		.cfi_def_cfa_offset 0
 1708              	.LVL212:
 1709              	.L212:
 1710 0048 8280     		ret
 1711              		.cfi_endproc
 1712              	.LFE21:
 1714              		.section	.text.altcp_tcp_listen,"ax",@progbits
 1715              		.align	1
 1717              	altcp_tcp_listen:
 1718              	.LFB20:
 280:C:/Users/stapi/OneDrive/Desktop/GD32VW553/V1_MQTT_OK/GD32VW55X_Wifi_BLE_SDK/GD32VW55x_RELEASE_V1.0.2/MSDK/lwip/lwip-2.1.2/src/core\altcp_tcp.c ****   struct tcp_pcb *pcb;
 1719              		.loc 1 280 1 is_stmt 1
 1720              		.cfi_startproc
 1721              	.LVL213:
 1722 0000 17030000 		call	t0,__riscv_save_1
 1722      E7020300 
 1723              		.cfi_offset 8, -8
 1724              		.cfi_offset 1, -4
 1725              		.cfi_def_cfa_offset 16
 281:C:/Users/stapi/OneDrive/Desktop/GD32VW553/V1_MQTT_OK/GD32VW55X_Wifi_BLE_SDK/GD32VW55x_RELEASE_V1.0.2/MSDK/lwip/lwip-2.1.2/src/core\altcp_tcp.c ****   struct tcp_pcb *lpcb;
 1726              		.loc 1 281 3
 282:C:/Users/stapi/OneDrive/Desktop/GD32VW553/V1_MQTT_OK/GD32VW55X_Wifi_BLE_SDK/GD32VW55x_RELEASE_V1.0.2/MSDK/lwip/lwip-2.1.2/src/core\altcp_tcp.c ****   if (conn == NULL) {
 1727              		.loc 1 282 3
 283:C:/Users/stapi/OneDrive/Desktop/GD32VW553/V1_MQTT_OK/GD32VW55X_Wifi_BLE_SDK/GD32VW55x_RELEASE_V1.0.2/MSDK/lwip/lwip-2.1.2/src/core\altcp_tcp.c ****     return NULL;
 1728              		.loc 1 283 3
 283:C:/Users/stapi/OneDrive/Desktop/GD32VW553/V1_MQTT_OK/GD32VW55X_Wifi_BLE_SDK/GD32VW55x_RELEASE_V1.0.2/MSDK/lwip/lwip-2.1.2/src/core\altcp_tcp.c ****     return NULL;
 1729              		.loc 1 283 6 is_stmt 0
 1730 0008 19E5     		bne	a0,zero,.L216
 1731              	.LVL214:
 1732              	.L220:
 284:C:/Users/stapi/OneDrive/Desktop/GD32VW553/V1_MQTT_OK/GD32VW55X_Wifi_BLE_SDK/GD32VW55x_RELEASE_V1.0.2/MSDK/lwip/lwip-2.1.2/src/core\altcp_tcp.c ****   }
 1733              		.loc 1 284 12
 1734 000a 0144     		li	s0,0
 1735              	.L217:
 295:C:/Users/stapi/OneDrive/Desktop/GD32VW553/V1_MQTT_OK/GD32VW55X_Wifi_BLE_SDK/GD32VW55x_RELEASE_V1.0.2/MSDK/lwip/lwip-2.1.2/src/core\altcp_tcp.c **** 
 1736              		.loc 1 295 1
 1737 000c 2285     		mv	a0,s0
 1738 000e 17030000 		tail	__riscv_restore_1
 1738      67000300 
 1739              		.cfi_remember_state
 1740              		.cfi_restore 8
 1741              		.cfi_restore 1
 1742              		.cfi_def_cfa_offset 0
 1743              	.LVL215:
 1744              	.L216:
 1745              		.cfi_restore_state
 286:C:/Users/stapi/OneDrive/Desktop/GD32VW553/V1_MQTT_OK/GD32VW55X_Wifi_BLE_SDK/GD32VW55x_RELEASE_V1.0.2/MSDK/lwip/lwip-2.1.2/src/core\altcp_tcp.c ****   pcb = (struct tcp_pcb *)conn->state;
 1746              		.loc 1 286 3
 1747 0016 5C41     		lw	a5,4(a0)
 1748 0018 2A84     		mv	s0,a0
 286:C:/Users/stapi/OneDrive/Desktop/GD32VW553/V1_MQTT_OK/GD32VW55X_Wifi_BLE_SDK/GD32VW55x_RELEASE_V1.0.2/MSDK/lwip/lwip-2.1.2/src/core\altcp_tcp.c ****   pcb = (struct tcp_pcb *)conn->state;
 1749              		.loc 1 286 3 is_stmt 1
 286:C:/Users/stapi/OneDrive/Desktop/GD32VW553/V1_MQTT_OK/GD32VW55X_Wifi_BLE_SDK/GD32VW55x_RELEASE_V1.0.2/MSDK/lwip/lwip-2.1.2/src/core\altcp_tcp.c ****   pcb = (struct tcp_pcb *)conn->state;
 1750              		.loc 1 286 3
 286:C:/Users/stapi/OneDrive/Desktop/GD32VW553/V1_MQTT_OK/GD32VW55X_Wifi_BLE_SDK/GD32VW55x_RELEASE_V1.0.2/MSDK/lwip/lwip-2.1.2/src/core\altcp_tcp.c ****   pcb = (struct tcp_pcb *)conn->state;
 1751              		.loc 1 286 3
 1752 001a 85C7     		beq	a5,zero,.L218
 1753              	.LVL216:
 286:C:/Users/stapi/OneDrive/Desktop/GD32VW553/V1_MQTT_OK/GD32VW55X_Wifi_BLE_SDK/GD32VW55x_RELEASE_V1.0.2/MSDK/lwip/lwip-2.1.2/src/core\altcp_tcp.c ****   pcb = (struct tcp_pcb *)conn->state;
 1754              		.loc 1 286 3 discriminator 1
 286:C:/Users/stapi/OneDrive/Desktop/GD32VW553/V1_MQTT_OK/GD32VW55X_Wifi_BLE_SDK/GD32VW55x_RELEASE_V1.0.2/MSDK/lwip/lwip-2.1.2/src/core\altcp_tcp.c ****   pcb = (struct tcp_pcb *)conn->state;
 1755              		.loc 1 286 3 discriminator 1
 1756 001c B7060000 		lui	a3,%hi(.LC0)
 1757 0020 B7050000 		lui	a1,%hi(.LC3)
 1758              	.LVL217:
 1759 0024 37050000 		lui	a0,%hi(.LC2)
 1760 0028 93860600 		addi	a3,a3,%lo(.LC0)
 1761 002c 1306E011 		li	a2,286
 1762              	.LVL218:
 1763 0030 93850500 		addi	a1,a1,%lo(.LC3)
 1764 0034 13050500 		addi	a0,a0,%lo(.LC2)
 1765 0038 97000000 		call	printf
 1765      E7800000 
 1766              	.LVL219:
 1767              	.L219:
 286:C:/Users/stapi/OneDrive/Desktop/GD32VW553/V1_MQTT_OK/GD32VW55X_Wifi_BLE_SDK/GD32VW55x_RELEASE_V1.0.2/MSDK/lwip/lwip-2.1.2/src/core\altcp_tcp.c ****   pcb = (struct tcp_pcb *)conn->state;
 1768              		.loc 1 286 3 discriminator 1
 286:C:/Users/stapi/OneDrive/Desktop/GD32VW553/V1_MQTT_OK/GD32VW55X_Wifi_BLE_SDK/GD32VW55x_RELEASE_V1.0.2/MSDK/lwip/lwip-2.1.2/src/core\altcp_tcp.c ****   pcb = (struct tcp_pcb *)conn->state;
 1769              		.loc 1 286 3 discriminator 1
 286:C:/Users/stapi/OneDrive/Desktop/GD32VW553/V1_MQTT_OK/GD32VW55X_Wifi_BLE_SDK/GD32VW55x_RELEASE_V1.0.2/MSDK/lwip/lwip-2.1.2/src/core\altcp_tcp.c ****   pcb = (struct tcp_pcb *)conn->state;
 1770              		.loc 1 286 3 discriminator 1
 1771 0040 01A0     		j	.L219
 1772              	.LVL220:
 1773              	.L218:
 1774              	.LBB133:
 1775              	.LBB134:
 286:C:/Users/stapi/OneDrive/Desktop/GD32VW553/V1_MQTT_OK/GD32VW55X_Wifi_BLE_SDK/GD32VW55x_RELEASE_V1.0.2/MSDK/lwip/lwip-2.1.2/src/core\altcp_tcp.c ****   pcb = (struct tcp_pcb *)conn->state;
 1776              		.loc 1 286 3
 286:C:/Users/stapi/OneDrive/Desktop/GD32VW553/V1_MQTT_OK/GD32VW55X_Wifi_BLE_SDK/GD32VW55x_RELEASE_V1.0.2/MSDK/lwip/lwip-2.1.2/src/core\altcp_tcp.c ****   pcb = (struct tcp_pcb *)conn->state;
 1777              		.loc 1 286 3
 286:C:/Users/stapi/OneDrive/Desktop/GD32VW553/V1_MQTT_OK/GD32VW55X_Wifi_BLE_SDK/GD32VW55x_RELEASE_V1.0.2/MSDK/lwip/lwip-2.1.2/src/core\altcp_tcp.c ****   pcb = (struct tcp_pcb *)conn->state;
 1778              		.loc 1 286 3
 286:C:/Users/stapi/OneDrive/Desktop/GD32VW553/V1_MQTT_OK/GD32VW55X_Wifi_BLE_SDK/GD32VW55x_RELEASE_V1.0.2/MSDK/lwip/lwip-2.1.2/src/core\altcp_tcp.c ****   pcb = (struct tcp_pcb *)conn->state;
 1779              		.loc 1 286 3
 287:C:/Users/stapi/OneDrive/Desktop/GD32VW553/V1_MQTT_OK/GD32VW55X_Wifi_BLE_SDK/GD32VW55x_RELEASE_V1.0.2/MSDK/lwip/lwip-2.1.2/src/core\altcp_tcp.c ****   lpcb = tcp_listen_with_backlog_and_err(pcb, backlog, err);
 1780              		.loc 1 287 3
 288:C:/Users/stapi/OneDrive/Desktop/GD32VW553/V1_MQTT_OK/GD32VW55X_Wifi_BLE_SDK/GD32VW55x_RELEASE_V1.0.2/MSDK/lwip/lwip-2.1.2/src/core\altcp_tcp.c ****   if (lpcb != NULL) {
 1781              		.loc 1 288 3
 288:C:/Users/stapi/OneDrive/Desktop/GD32VW553/V1_MQTT_OK/GD32VW55X_Wifi_BLE_SDK/GD32VW55x_RELEASE_V1.0.2/MSDK/lwip/lwip-2.1.2/src/core\altcp_tcp.c ****   if (lpcb != NULL) {
 1782              		.loc 1 288 10 is_stmt 0
 1783 0042 4845     		lw	a0,12(a0)
 1784 0044 97000000 		call	tcp_listen_with_backlog_and_err
 1784      E7800000 
 1785              	.LVL221:
 289:C:/Users/stapi/OneDrive/Desktop/GD32VW553/V1_MQTT_OK/GD32VW55X_Wifi_BLE_SDK/GD32VW55x_RELEASE_V1.0.2/MSDK/lwip/lwip-2.1.2/src/core\altcp_tcp.c ****     conn->state = lpcb;
 1786              		.loc 1 289 3 is_stmt 1
 289:C:/Users/stapi/OneDrive/Desktop/GD32VW553/V1_MQTT_OK/GD32VW55X_Wifi_BLE_SDK/GD32VW55x_RELEASE_V1.0.2/MSDK/lwip/lwip-2.1.2/src/core\altcp_tcp.c ****     conn->state = lpcb;
 1787              		.loc 1 289 6 is_stmt 0
 1788 004c 5DDD     		beq	a0,zero,.L220
 290:C:/Users/stapi/OneDrive/Desktop/GD32VW553/V1_MQTT_OK/GD32VW55X_Wifi_BLE_SDK/GD32VW55x_RELEASE_V1.0.2/MSDK/lwip/lwip-2.1.2/src/core\altcp_tcp.c ****     tcp_accept(lpcb, altcp_tcp_accept);
 1789              		.loc 1 290 5 is_stmt 1
 291:C:/Users/stapi/OneDrive/Desktop/GD32VW553/V1_MQTT_OK/GD32VW55X_Wifi_BLE_SDK/GD32VW55x_RELEASE_V1.0.2/MSDK/lwip/lwip-2.1.2/src/core\altcp_tcp.c ****     return conn;
 1790              		.loc 1 291 5 is_stmt 0
 1791 004e B7050000 		lui	a1,%hi(altcp_tcp_accept)
 290:C:/Users/stapi/OneDrive/Desktop/GD32VW553/V1_MQTT_OK/GD32VW55X_Wifi_BLE_SDK/GD32VW55x_RELEASE_V1.0.2/MSDK/lwip/lwip-2.1.2/src/core\altcp_tcp.c ****     tcp_accept(lpcb, altcp_tcp_accept);
 1792              		.loc 1 290 17
 1793 0052 48C4     		sw	a0,12(s0)
 291:C:/Users/stapi/OneDrive/Desktop/GD32VW553/V1_MQTT_OK/GD32VW55X_Wifi_BLE_SDK/GD32VW55x_RELEASE_V1.0.2/MSDK/lwip/lwip-2.1.2/src/core\altcp_tcp.c ****     return conn;
 1794              		.loc 1 291 5 is_stmt 1
 1795 0054 93850500 		addi	a1,a1,%lo(altcp_tcp_accept)
 1796 0058 97000000 		call	tcp_accept
 1796      E7800000 
 1797              	.LVL222:
 292:C:/Users/stapi/OneDrive/Desktop/GD32VW553/V1_MQTT_OK/GD32VW55X_Wifi_BLE_SDK/GD32VW55x_RELEASE_V1.0.2/MSDK/lwip/lwip-2.1.2/src/core\altcp_tcp.c ****   }
 1798              		.loc 1 292 5
 292:C:/Users/stapi/OneDrive/Desktop/GD32VW553/V1_MQTT_OK/GD32VW55X_Wifi_BLE_SDK/GD32VW55x_RELEASE_V1.0.2/MSDK/lwip/lwip-2.1.2/src/core\altcp_tcp.c ****   }
 1799              		.loc 1 292 12 is_stmt 0
 1800 0060 75B7     		j	.L217
 1801              	.LBE134:
 1802              	.LBE133:
 1803              		.cfi_endproc
 1804              	.LFE20:
 1806              		.section	.text.altcp_tcp_connect,"ax",@progbits
 1807              		.align	1
 1809              	altcp_tcp_connect:
 1810              	.LFB19:
 267:C:/Users/stapi/OneDrive/Desktop/GD32VW553/V1_MQTT_OK/GD32VW55X_Wifi_BLE_SDK/GD32VW55x_RELEASE_V1.0.2/MSDK/lwip/lwip-2.1.2/src/core\altcp_tcp.c ****   struct tcp_pcb *pcb;
 1811              		.loc 1 267 1 is_stmt 1
 1812              		.cfi_startproc
 1813              	.LVL223:
 268:C:/Users/stapi/OneDrive/Desktop/GD32VW553/V1_MQTT_OK/GD32VW55X_Wifi_BLE_SDK/GD32VW55x_RELEASE_V1.0.2/MSDK/lwip/lwip-2.1.2/src/core\altcp_tcp.c ****   if (conn == NULL) {
 1814              		.loc 1 268 3
 269:C:/Users/stapi/OneDrive/Desktop/GD32VW553/V1_MQTT_OK/GD32VW55X_Wifi_BLE_SDK/GD32VW55x_RELEASE_V1.0.2/MSDK/lwip/lwip-2.1.2/src/core\altcp_tcp.c ****     return ERR_VAL;
 1815              		.loc 1 269 3
 269:C:/Users/stapi/OneDrive/Desktop/GD32VW553/V1_MQTT_OK/GD32VW55X_Wifi_BLE_SDK/GD32VW55x_RELEASE_V1.0.2/MSDK/lwip/lwip-2.1.2/src/core\altcp_tcp.c ****     return ERR_VAL;
 1816              		.loc 1 269 6 is_stmt 0
 1817 0000 21C9     		beq	a0,zero,.L229
 267:C:/Users/stapi/OneDrive/Desktop/GD32VW553/V1_MQTT_OK/GD32VW55X_Wifi_BLE_SDK/GD32VW55x_RELEASE_V1.0.2/MSDK/lwip/lwip-2.1.2/src/core\altcp_tcp.c ****   struct tcp_pcb *pcb;
 1818              		.loc 1 267 1
 1819 0002 17030000 		call	t0,__riscv_save_0
 1819      E7020300 
 1820              		.cfi_offset 1, -4
 1821              		.cfi_def_cfa_offset 16
 272:C:/Users/stapi/OneDrive/Desktop/GD32VW553/V1_MQTT_OK/GD32VW55X_Wifi_BLE_SDK/GD32VW55x_RELEASE_V1.0.2/MSDK/lwip/lwip-2.1.2/src/core\altcp_tcp.c ****   conn->connected = connected;
 1822              		.loc 1 272 3 is_stmt 1
 272:C:/Users/stapi/OneDrive/Desktop/GD32VW553/V1_MQTT_OK/GD32VW55X_Wifi_BLE_SDK/GD32VW55x_RELEASE_V1.0.2/MSDK/lwip/lwip-2.1.2/src/core\altcp_tcp.c ****   conn->connected = connected;
 1823              		.loc 1 272 3
 272:C:/Users/stapi/OneDrive/Desktop/GD32VW553/V1_MQTT_OK/GD32VW55X_Wifi_BLE_SDK/GD32VW55x_RELEASE_V1.0.2/MSDK/lwip/lwip-2.1.2/src/core\altcp_tcp.c ****   conn->connected = connected;
 1824              		.loc 1 272 3
 1825 000a 5C41     		lw	a5,4(a0)
 1826 000c 85C7     		beq	a5,zero,.L227
 272:C:/Users/stapi/OneDrive/Desktop/GD32VW553/V1_MQTT_OK/GD32VW55X_Wifi_BLE_SDK/GD32VW55x_RELEASE_V1.0.2/MSDK/lwip/lwip-2.1.2/src/core\altcp_tcp.c ****   conn->connected = connected;
 1827              		.loc 1 272 3 discriminator 1
 272:C:/Users/stapi/OneDrive/Desktop/GD32VW553/V1_MQTT_OK/GD32VW55X_Wifi_BLE_SDK/GD32VW55x_RELEASE_V1.0.2/MSDK/lwip/lwip-2.1.2/src/core\altcp_tcp.c ****   conn->connected = connected;
 1828              		.loc 1 272 3 discriminator 1
 1829 000e B7060000 		lui	a3,%hi(.LC0)
 1830              	.LVL224:
 1831 0012 B7050000 		lui	a1,%hi(.LC3)
 1832              	.LVL225:
 1833 0016 37050000 		lui	a0,%hi(.LC2)
 1834              	.LVL226:
 1835 001a 93860600 		addi	a3,a3,%lo(.LC0)
 1836 001e 13060011 		li	a2,272
 1837              	.LVL227:
 1838 0022 93850500 		addi	a1,a1,%lo(.LC3)
 1839 0026 13050500 		addi	a0,a0,%lo(.LC2)
 1840 002a 97000000 		call	printf
 1840      E7800000 
 1841              	.LVL228:
 1842              	.L228:
 272:C:/Users/stapi/OneDrive/Desktop/GD32VW553/V1_MQTT_OK/GD32VW55X_Wifi_BLE_SDK/GD32VW55x_RELEASE_V1.0.2/MSDK/lwip/lwip-2.1.2/src/core\altcp_tcp.c ****   conn->connected = connected;
 1843              		.loc 1 272 3 discriminator 1
 272:C:/Users/stapi/OneDrive/Desktop/GD32VW553/V1_MQTT_OK/GD32VW55X_Wifi_BLE_SDK/GD32VW55x_RELEASE_V1.0.2/MSDK/lwip/lwip-2.1.2/src/core\altcp_tcp.c ****   conn->connected = connected;
 1844              		.loc 1 272 3 discriminator 1
 272:C:/Users/stapi/OneDrive/Desktop/GD32VW553/V1_MQTT_OK/GD32VW55X_Wifi_BLE_SDK/GD32VW55x_RELEASE_V1.0.2/MSDK/lwip/lwip-2.1.2/src/core\altcp_tcp.c ****   conn->connected = connected;
 1845              		.loc 1 272 3 discriminator 1
 1846 0032 01A0     		j	.L228
 1847              	.LVL229:
 1848              	.L227:
 1849              	.LBB137:
 1850              	.LBB138:
 272:C:/Users/stapi/OneDrive/Desktop/GD32VW553/V1_MQTT_OK/GD32VW55X_Wifi_BLE_SDK/GD32VW55x_RELEASE_V1.0.2/MSDK/lwip/lwip-2.1.2/src/core\altcp_tcp.c ****   conn->connected = connected;
 1851              		.loc 1 272 3
 272:C:/Users/stapi/OneDrive/Desktop/GD32VW553/V1_MQTT_OK/GD32VW55X_Wifi_BLE_SDK/GD32VW55x_RELEASE_V1.0.2/MSDK/lwip/lwip-2.1.2/src/core\altcp_tcp.c ****   conn->connected = connected;
 1852              		.loc 1 272 3
 272:C:/Users/stapi/OneDrive/Desktop/GD32VW553/V1_MQTT_OK/GD32VW55X_Wifi_BLE_SDK/GD32VW55x_RELEASE_V1.0.2/MSDK/lwip/lwip-2.1.2/src/core\altcp_tcp.c ****   conn->connected = connected;
 1853              		.loc 1 272 3
 272:C:/Users/stapi/OneDrive/Desktop/GD32VW553/V1_MQTT_OK/GD32VW55X_Wifi_BLE_SDK/GD32VW55x_RELEASE_V1.0.2/MSDK/lwip/lwip-2.1.2/src/core\altcp_tcp.c ****   conn->connected = connected;
 1854              		.loc 1 272 3
 273:C:/Users/stapi/OneDrive/Desktop/GD32VW553/V1_MQTT_OK/GD32VW55X_Wifi_BLE_SDK/GD32VW55x_RELEASE_V1.0.2/MSDK/lwip/lwip-2.1.2/src/core\altcp_tcp.c ****   pcb = (struct tcp_pcb *)conn->state;
 1855              		.loc 1 273 3
 273:C:/Users/stapi/OneDrive/Desktop/GD32VW553/V1_MQTT_OK/GD32VW55X_Wifi_BLE_SDK/GD32VW55x_RELEASE_V1.0.2/MSDK/lwip/lwip-2.1.2/src/core\altcp_tcp.c ****   pcb = (struct tcp_pcb *)conn->state;
 1856              		.loc 1 273 19 is_stmt 0
 1857 0034 54C9     		sw	a3,20(a0)
 274:C:/Users/stapi/OneDrive/Desktop/GD32VW553/V1_MQTT_OK/GD32VW55X_Wifi_BLE_SDK/GD32VW55x_RELEASE_V1.0.2/MSDK/lwip/lwip-2.1.2/src/core\altcp_tcp.c ****   return tcp_connect(pcb, ipaddr, port, altcp_tcp_connected);
 1858              		.loc 1 274 3 is_stmt 1
 1859              	.LVL230:
 275:C:/Users/stapi/OneDrive/Desktop/GD32VW553/V1_MQTT_OK/GD32VW55X_Wifi_BLE_SDK/GD32VW55x_RELEASE_V1.0.2/MSDK/lwip/lwip-2.1.2/src/core\altcp_tcp.c **** }
 1860              		.loc 1 275 3
 275:C:/Users/stapi/OneDrive/Desktop/GD32VW553/V1_MQTT_OK/GD32VW55X_Wifi_BLE_SDK/GD32VW55x_RELEASE_V1.0.2/MSDK/lwip/lwip-2.1.2/src/core\altcp_tcp.c **** }
 1861              		.loc 1 275 10 is_stmt 0
 1862 0036 4845     		lw	a0,12(a0)
 1863              	.LVL231:
 1864 0038 B7060000 		lui	a3,%hi(altcp_tcp_connected)
 1865              	.LVL232:
 1866 003c 93860600 		addi	a3,a3,%lo(altcp_tcp_connected)
 1867 0040 97000000 		call	tcp_connect
 1867      E7800000 
 1868              	.LVL233:
 1869              	.LBE138:
 1870              	.LBE137:
 276:C:/Users/stapi/OneDrive/Desktop/GD32VW553/V1_MQTT_OK/GD32VW55X_Wifi_BLE_SDK/GD32VW55x_RELEASE_V1.0.2/MSDK/lwip/lwip-2.1.2/src/core\altcp_tcp.c **** 
 1871              		.loc 1 276 1
 1872 0048 17030000 		tail	__riscv_restore_0
 1872      67000300 
 1873              		.cfi_restore 1
 1874              		.cfi_def_cfa_offset 0
 1875              	.LVL234:
 1876              	.L229:
 270:C:/Users/stapi/OneDrive/Desktop/GD32VW553/V1_MQTT_OK/GD32VW55X_Wifi_BLE_SDK/GD32VW55x_RELEASE_V1.0.2/MSDK/lwip/lwip-2.1.2/src/core\altcp_tcp.c ****   }
 1877              		.loc 1 270 12
 1878 0050 6955     		li	a0,-6
 1879              	.LVL235:
 276:C:/Users/stapi/OneDrive/Desktop/GD32VW553/V1_MQTT_OK/GD32VW55X_Wifi_BLE_SDK/GD32VW55x_RELEASE_V1.0.2/MSDK/lwip/lwip-2.1.2/src/core\altcp_tcp.c **** 
 1880              		.loc 1 276 1
 1881 0052 8280     		ret
 1882              		.cfi_endproc
 1883              	.LFE19:
 1885              		.section	.text.altcp_tcp_recved,"ax",@progbits
 1886              		.align	1
 1888              	altcp_tcp_recved:
 1889              	.LFB17:
