   1              		.file	"altcp_tcp.c"
   2              		.option nopic
   3              		.attribute arch, "rv32i2p0_m2p0_a2p0_f2p0_c2p0_b_p0p94"
   4              		.attribute unaligned_access, 0
   5              		.attribute stack_align, 16
   6              		.text
   7              	.Ltext0:
   8              		.cfi_sections	.debug_frame
   9              		.section	.text.altcp_tcp_setup_callbacks,"ax",@progbits
  10              		.align	1
  12              	altcp_tcp_setup_callbacks:
  13              	.LFB11:
  14              		.file 1 "C:/Users/stapi/OneDrive/Desktop/GD32VW553/V1_MQTT_OK/GD32VW55X_Wifi_BLE_SDK/GD32VW55x_REL
   1:C:/Users/stapi/OneDrive/Desktop/GD32VW553/V1_MQTT_OK/GD32VW55X_Wifi_BLE_SDK/GD32VW55x_RELEASE_V1.0.2/MSDK/lwip/lwip-2.1.2/src/core\altcp_tcp.c **** /**
   2:C:/Users/stapi/OneDrive/Desktop/GD32VW553/V1_MQTT_OK/GD32VW55X_Wifi_BLE_SDK/GD32VW55x_RELEASE_V1.0.2/MSDK/lwip/lwip-2.1.2/src/core\altcp_tcp.c ****  * @file
   3:C:/Users/stapi/OneDrive/Desktop/GD32VW553/V1_MQTT_OK/GD32VW55X_Wifi_BLE_SDK/GD32VW55x_RELEASE_V1.0.2/MSDK/lwip/lwip-2.1.2/src/core\altcp_tcp.c ****  * Application layered TCP connection API (to be used from TCPIP thread)\n
   4:C:/Users/stapi/OneDrive/Desktop/GD32VW553/V1_MQTT_OK/GD32VW55X_Wifi_BLE_SDK/GD32VW55x_RELEASE_V1.0.2/MSDK/lwip/lwip-2.1.2/src/core\altcp_tcp.c ****  * This interface mimics the tcp callback API to the application while preventing
   5:C:/Users/stapi/OneDrive/Desktop/GD32VW553/V1_MQTT_OK/GD32VW55X_Wifi_BLE_SDK/GD32VW55x_RELEASE_V1.0.2/MSDK/lwip/lwip-2.1.2/src/core\altcp_tcp.c ****  * direct linking (much like virtual functions).
   6:C:/Users/stapi/OneDrive/Desktop/GD32VW553/V1_MQTT_OK/GD32VW55X_Wifi_BLE_SDK/GD32VW55x_RELEASE_V1.0.2/MSDK/lwip/lwip-2.1.2/src/core\altcp_tcp.c ****  * This way, an application can make use of other application layer protocols
   7:C:/Users/stapi/OneDrive/Desktop/GD32VW553/V1_MQTT_OK/GD32VW55X_Wifi_BLE_SDK/GD32VW55x_RELEASE_V1.0.2/MSDK/lwip/lwip-2.1.2/src/core\altcp_tcp.c ****  * on top of TCP without knowing the details (e.g. TLS, proxy connection).
   8:C:/Users/stapi/OneDrive/Desktop/GD32VW553/V1_MQTT_OK/GD32VW55X_Wifi_BLE_SDK/GD32VW55x_RELEASE_V1.0.2/MSDK/lwip/lwip-2.1.2/src/core\altcp_tcp.c ****  *
   9:C:/Users/stapi/OneDrive/Desktop/GD32VW553/V1_MQTT_OK/GD32VW55X_Wifi_BLE_SDK/GD32VW55x_RELEASE_V1.0.2/MSDK/lwip/lwip-2.1.2/src/core\altcp_tcp.c ****  * This file contains the base implementation calling into tcp.
  10:C:/Users/stapi/OneDrive/Desktop/GD32VW553/V1_MQTT_OK/GD32VW55X_Wifi_BLE_SDK/GD32VW55x_RELEASE_V1.0.2/MSDK/lwip/lwip-2.1.2/src/core\altcp_tcp.c ****  */
  11:C:/Users/stapi/OneDrive/Desktop/GD32VW553/V1_MQTT_OK/GD32VW55X_Wifi_BLE_SDK/GD32VW55x_RELEASE_V1.0.2/MSDK/lwip/lwip-2.1.2/src/core\altcp_tcp.c **** 
  12:C:/Users/stapi/OneDrive/Desktop/GD32VW553/V1_MQTT_OK/GD32VW55X_Wifi_BLE_SDK/GD32VW55x_RELEASE_V1.0.2/MSDK/lwip/lwip-2.1.2/src/core\altcp_tcp.c **** /*
  13:C:/Users/stapi/OneDrive/Desktop/GD32VW553/V1_MQTT_OK/GD32VW55X_Wifi_BLE_SDK/GD32VW55x_RELEASE_V1.0.2/MSDK/lwip/lwip-2.1.2/src/core\altcp_tcp.c ****  * Copyright (c) 2017 Simon Goldschmidt
  14:C:/Users/stapi/OneDrive/Desktop/GD32VW553/V1_MQTT_OK/GD32VW55X_Wifi_BLE_SDK/GD32VW55x_RELEASE_V1.0.2/MSDK/lwip/lwip-2.1.2/src/core\altcp_tcp.c ****  * All rights reserved.
  15:C:/Users/stapi/OneDrive/Desktop/GD32VW553/V1_MQTT_OK/GD32VW55X_Wifi_BLE_SDK/GD32VW55x_RELEASE_V1.0.2/MSDK/lwip/lwip-2.1.2/src/core\altcp_tcp.c ****  *
  16:C:/Users/stapi/OneDrive/Desktop/GD32VW553/V1_MQTT_OK/GD32VW55X_Wifi_BLE_SDK/GD32VW55x_RELEASE_V1.0.2/MSDK/lwip/lwip-2.1.2/src/core\altcp_tcp.c ****  * Redistribution and use in source and binary forms, with or without modification,
  17:C:/Users/stapi/OneDrive/Desktop/GD32VW553/V1_MQTT_OK/GD32VW55X_Wifi_BLE_SDK/GD32VW55x_RELEASE_V1.0.2/MSDK/lwip/lwip-2.1.2/src/core\altcp_tcp.c ****  * are permitted provided that the following conditions are met:
  18:C:/Users/stapi/OneDrive/Desktop/GD32VW553/V1_MQTT_OK/GD32VW55X_Wifi_BLE_SDK/GD32VW55x_RELEASE_V1.0.2/MSDK/lwip/lwip-2.1.2/src/core\altcp_tcp.c ****  *
  19:C:/Users/stapi/OneDrive/Desktop/GD32VW553/V1_MQTT_OK/GD32VW55X_Wifi_BLE_SDK/GD32VW55x_RELEASE_V1.0.2/MSDK/lwip/lwip-2.1.2/src/core\altcp_tcp.c ****  * 1. Redistributions of source code must retain the above copyright notice,
  20:C:/Users/stapi/OneDrive/Desktop/GD32VW553/V1_MQTT_OK/GD32VW55X_Wifi_BLE_SDK/GD32VW55x_RELEASE_V1.0.2/MSDK/lwip/lwip-2.1.2/src/core\altcp_tcp.c ****  *    this list of conditions and the following disclaimer.
  21:C:/Users/stapi/OneDrive/Desktop/GD32VW553/V1_MQTT_OK/GD32VW55X_Wifi_BLE_SDK/GD32VW55x_RELEASE_V1.0.2/MSDK/lwip/lwip-2.1.2/src/core\altcp_tcp.c ****  * 2. Redistributions in binary form must reproduce the above copyright notice,
  22:C:/Users/stapi/OneDrive/Desktop/GD32VW553/V1_MQTT_OK/GD32VW55X_Wifi_BLE_SDK/GD32VW55x_RELEASE_V1.0.2/MSDK/lwip/lwip-2.1.2/src/core\altcp_tcp.c ****  *    this list of conditions and the following disclaimer in the documentation
  23:C:/Users/stapi/OneDrive/Desktop/GD32VW553/V1_MQTT_OK/GD32VW55X_Wifi_BLE_SDK/GD32VW55x_RELEASE_V1.0.2/MSDK/lwip/lwip-2.1.2/src/core\altcp_tcp.c ****  *    and/or other materials provided with the distribution.
  24:C:/Users/stapi/OneDrive/Desktop/GD32VW553/V1_MQTT_OK/GD32VW55X_Wifi_BLE_SDK/GD32VW55x_RELEASE_V1.0.2/MSDK/lwip/lwip-2.1.2/src/core\altcp_tcp.c ****  * 3. The name of the author may not be used to endorse or promote products
  25:C:/Users/stapi/OneDrive/Desktop/GD32VW553/V1_MQTT_OK/GD32VW55X_Wifi_BLE_SDK/GD32VW55x_RELEASE_V1.0.2/MSDK/lwip/lwip-2.1.2/src/core\altcp_tcp.c ****  *    derived from this software without specific prior written permission.
  26:C:/Users/stapi/OneDrive/Desktop/GD32VW553/V1_MQTT_OK/GD32VW55X_Wifi_BLE_SDK/GD32VW55x_RELEASE_V1.0.2/MSDK/lwip/lwip-2.1.2/src/core\altcp_tcp.c ****  *
  27:C:/Users/stapi/OneDrive/Desktop/GD32VW553/V1_MQTT_OK/GD32VW55X_Wifi_BLE_SDK/GD32VW55x_RELEASE_V1.0.2/MSDK/lwip/lwip-2.1.2/src/core\altcp_tcp.c ****  * THIS SOFTWARE IS PROVIDED BY THE AUTHOR ``AS IS'' AND ANY EXPRESS OR IMPLIED
  28:C:/Users/stapi/OneDrive/Desktop/GD32VW553/V1_MQTT_OK/GD32VW55X_Wifi_BLE_SDK/GD32VW55x_RELEASE_V1.0.2/MSDK/lwip/lwip-2.1.2/src/core\altcp_tcp.c ****  * WARRANTIES, INCLUDING, BUT NOT LIMITED TO, THE IMPLIED WARRANTIES OF
  29:C:/Users/stapi/OneDrive/Desktop/GD32VW553/V1_MQTT_OK/GD32VW55X_Wifi_BLE_SDK/GD32VW55x_RELEASE_V1.0.2/MSDK/lwip/lwip-2.1.2/src/core\altcp_tcp.c ****  * MERCHANTABILITY AND FITNESS FOR A PARTICULAR PURPOSE ARE DISCLAIMED. IN NO EVENT
  30:C:/Users/stapi/OneDrive/Desktop/GD32VW553/V1_MQTT_OK/GD32VW55X_Wifi_BLE_SDK/GD32VW55x_RELEASE_V1.0.2/MSDK/lwip/lwip-2.1.2/src/core\altcp_tcp.c ****  * SHALL THE AUTHOR BE LIABLE FOR ANY DIRECT, INDIRECT, INCIDENTAL, SPECIAL,
  31:C:/Users/stapi/OneDrive/Desktop/GD32VW553/V1_MQTT_OK/GD32VW55X_Wifi_BLE_SDK/GD32VW55x_RELEASE_V1.0.2/MSDK/lwip/lwip-2.1.2/src/core\altcp_tcp.c ****  * EXEMPLARY, OR CONSEQUENTIAL DAMAGES (INCLUDING, BUT NOT LIMITED TO, PROCUREMENT
  32:C:/Users/stapi/OneDrive/Desktop/GD32VW553/V1_MQTT_OK/GD32VW55X_Wifi_BLE_SDK/GD32VW55x_RELEASE_V1.0.2/MSDK/lwip/lwip-2.1.2/src/core\altcp_tcp.c ****  * OF SUBSTITUTE GOODS OR SERVICES; LOSS OF USE, DATA, OR PROFITS; OR BUSINESS
  33:C:/Users/stapi/OneDrive/Desktop/GD32VW553/V1_MQTT_OK/GD32VW55X_Wifi_BLE_SDK/GD32VW55x_RELEASE_V1.0.2/MSDK/lwip/lwip-2.1.2/src/core\altcp_tcp.c ****  * INTERRUPTION) HOWEVER CAUSED AND ON ANY THEORY OF LIABILITY, WHETHER IN
  34:C:/Users/stapi/OneDrive/Desktop/GD32VW553/V1_MQTT_OK/GD32VW55X_Wifi_BLE_SDK/GD32VW55x_RELEASE_V1.0.2/MSDK/lwip/lwip-2.1.2/src/core\altcp_tcp.c ****  * CONTRACT, STRICT LIABILITY, OR TORT (INCLUDING NEGLIGENCE OR OTHERWISE) ARISING
  35:C:/Users/stapi/OneDrive/Desktop/GD32VW553/V1_MQTT_OK/GD32VW55X_Wifi_BLE_SDK/GD32VW55x_RELEASE_V1.0.2/MSDK/lwip/lwip-2.1.2/src/core\altcp_tcp.c ****  * IN ANY WAY OUT OF THE USE OF THIS SOFTWARE, EVEN IF ADVISED OF THE POSSIBILITY
  36:C:/Users/stapi/OneDrive/Desktop/GD32VW553/V1_MQTT_OK/GD32VW55X_Wifi_BLE_SDK/GD32VW55x_RELEASE_V1.0.2/MSDK/lwip/lwip-2.1.2/src/core\altcp_tcp.c ****  * OF SUCH DAMAGE.
  37:C:/Users/stapi/OneDrive/Desktop/GD32VW553/V1_MQTT_OK/GD32VW55X_Wifi_BLE_SDK/GD32VW55x_RELEASE_V1.0.2/MSDK/lwip/lwip-2.1.2/src/core\altcp_tcp.c ****  *
  38:C:/Users/stapi/OneDrive/Desktop/GD32VW553/V1_MQTT_OK/GD32VW55X_Wifi_BLE_SDK/GD32VW55x_RELEASE_V1.0.2/MSDK/lwip/lwip-2.1.2/src/core\altcp_tcp.c ****  * This file is part of the lwIP TCP/IP stack.
  39:C:/Users/stapi/OneDrive/Desktop/GD32VW553/V1_MQTT_OK/GD32VW55X_Wifi_BLE_SDK/GD32VW55x_RELEASE_V1.0.2/MSDK/lwip/lwip-2.1.2/src/core\altcp_tcp.c ****  *
  40:C:/Users/stapi/OneDrive/Desktop/GD32VW553/V1_MQTT_OK/GD32VW55X_Wifi_BLE_SDK/GD32VW55x_RELEASE_V1.0.2/MSDK/lwip/lwip-2.1.2/src/core\altcp_tcp.c ****  * Author: Simon Goldschmidt <goldsimon@gmx.de>
  41:C:/Users/stapi/OneDrive/Desktop/GD32VW553/V1_MQTT_OK/GD32VW55X_Wifi_BLE_SDK/GD32VW55x_RELEASE_V1.0.2/MSDK/lwip/lwip-2.1.2/src/core\altcp_tcp.c ****  *
  42:C:/Users/stapi/OneDrive/Desktop/GD32VW553/V1_MQTT_OK/GD32VW55X_Wifi_BLE_SDK/GD32VW55x_RELEASE_V1.0.2/MSDK/lwip/lwip-2.1.2/src/core\altcp_tcp.c ****  */
  43:C:/Users/stapi/OneDrive/Desktop/GD32VW553/V1_MQTT_OK/GD32VW55X_Wifi_BLE_SDK/GD32VW55x_RELEASE_V1.0.2/MSDK/lwip/lwip-2.1.2/src/core\altcp_tcp.c **** 
  44:C:/Users/stapi/OneDrive/Desktop/GD32VW553/V1_MQTT_OK/GD32VW55X_Wifi_BLE_SDK/GD32VW55x_RELEASE_V1.0.2/MSDK/lwip/lwip-2.1.2/src/core\altcp_tcp.c **** #include "lwip/opt.h"
  45:C:/Users/stapi/OneDrive/Desktop/GD32VW553/V1_MQTT_OK/GD32VW55X_Wifi_BLE_SDK/GD32VW55x_RELEASE_V1.0.2/MSDK/lwip/lwip-2.1.2/src/core\altcp_tcp.c **** 
  46:C:/Users/stapi/OneDrive/Desktop/GD32VW553/V1_MQTT_OK/GD32VW55X_Wifi_BLE_SDK/GD32VW55x_RELEASE_V1.0.2/MSDK/lwip/lwip-2.1.2/src/core\altcp_tcp.c **** #if LWIP_ALTCP /* don't build if not configured for use in lwipopts.h */
  47:C:/Users/stapi/OneDrive/Desktop/GD32VW553/V1_MQTT_OK/GD32VW55X_Wifi_BLE_SDK/GD32VW55x_RELEASE_V1.0.2/MSDK/lwip/lwip-2.1.2/src/core\altcp_tcp.c **** 
  48:C:/Users/stapi/OneDrive/Desktop/GD32VW553/V1_MQTT_OK/GD32VW55X_Wifi_BLE_SDK/GD32VW55x_RELEASE_V1.0.2/MSDK/lwip/lwip-2.1.2/src/core\altcp_tcp.c **** #include "lwip/altcp.h"
  49:C:/Users/stapi/OneDrive/Desktop/GD32VW553/V1_MQTT_OK/GD32VW55X_Wifi_BLE_SDK/GD32VW55x_RELEASE_V1.0.2/MSDK/lwip/lwip-2.1.2/src/core\altcp_tcp.c **** #include "lwip/altcp_tcp.h"
  50:C:/Users/stapi/OneDrive/Desktop/GD32VW553/V1_MQTT_OK/GD32VW55X_Wifi_BLE_SDK/GD32VW55x_RELEASE_V1.0.2/MSDK/lwip/lwip-2.1.2/src/core\altcp_tcp.c **** #include "lwip/priv/altcp_priv.h"
  51:C:/Users/stapi/OneDrive/Desktop/GD32VW553/V1_MQTT_OK/GD32VW55X_Wifi_BLE_SDK/GD32VW55x_RELEASE_V1.0.2/MSDK/lwip/lwip-2.1.2/src/core\altcp_tcp.c **** #include "lwip/tcp.h"
  52:C:/Users/stapi/OneDrive/Desktop/GD32VW553/V1_MQTT_OK/GD32VW55X_Wifi_BLE_SDK/GD32VW55x_RELEASE_V1.0.2/MSDK/lwip/lwip-2.1.2/src/core\altcp_tcp.c **** #include "lwip/mem.h"
  53:C:/Users/stapi/OneDrive/Desktop/GD32VW553/V1_MQTT_OK/GD32VW55X_Wifi_BLE_SDK/GD32VW55x_RELEASE_V1.0.2/MSDK/lwip/lwip-2.1.2/src/core\altcp_tcp.c **** 
  54:C:/Users/stapi/OneDrive/Desktop/GD32VW553/V1_MQTT_OK/GD32VW55X_Wifi_BLE_SDK/GD32VW55x_RELEASE_V1.0.2/MSDK/lwip/lwip-2.1.2/src/core\altcp_tcp.c **** #include <string.h>
  55:C:/Users/stapi/OneDrive/Desktop/GD32VW553/V1_MQTT_OK/GD32VW55X_Wifi_BLE_SDK/GD32VW55x_RELEASE_V1.0.2/MSDK/lwip/lwip-2.1.2/src/core\altcp_tcp.c **** 
  56:C:/Users/stapi/OneDrive/Desktop/GD32VW553/V1_MQTT_OK/GD32VW55X_Wifi_BLE_SDK/GD32VW55x_RELEASE_V1.0.2/MSDK/lwip/lwip-2.1.2/src/core\altcp_tcp.c **** #define ALTCP_TCP_ASSERT_CONN(conn) do { \
  57:C:/Users/stapi/OneDrive/Desktop/GD32VW553/V1_MQTT_OK/GD32VW55X_Wifi_BLE_SDK/GD32VW55x_RELEASE_V1.0.2/MSDK/lwip/lwip-2.1.2/src/core\altcp_tcp.c ****   LWIP_ASSERT("conn->inner_conn == NULL", (conn)->inner_conn == NULL); \
  58:C:/Users/stapi/OneDrive/Desktop/GD32VW553/V1_MQTT_OK/GD32VW55X_Wifi_BLE_SDK/GD32VW55x_RELEASE_V1.0.2/MSDK/lwip/lwip-2.1.2/src/core\altcp_tcp.c ****   LWIP_UNUSED_ARG(conn); /* for LWIP_NOASSERT */ } while(0)
  59:C:/Users/stapi/OneDrive/Desktop/GD32VW553/V1_MQTT_OK/GD32VW55X_Wifi_BLE_SDK/GD32VW55x_RELEASE_V1.0.2/MSDK/lwip/lwip-2.1.2/src/core\altcp_tcp.c **** #define ALTCP_TCP_ASSERT_CONN_PCB(conn, tpcb) do { \
  60:C:/Users/stapi/OneDrive/Desktop/GD32VW553/V1_MQTT_OK/GD32VW55X_Wifi_BLE_SDK/GD32VW55x_RELEASE_V1.0.2/MSDK/lwip/lwip-2.1.2/src/core\altcp_tcp.c ****   LWIP_ASSERT("pcb mismatch", (conn)->state == tpcb); \
  61:C:/Users/stapi/OneDrive/Desktop/GD32VW553/V1_MQTT_OK/GD32VW55X_Wifi_BLE_SDK/GD32VW55x_RELEASE_V1.0.2/MSDK/lwip/lwip-2.1.2/src/core\altcp_tcp.c ****   LWIP_UNUSED_ARG(tpcb); /* for LWIP_NOASSERT */ \
  62:C:/Users/stapi/OneDrive/Desktop/GD32VW553/V1_MQTT_OK/GD32VW55X_Wifi_BLE_SDK/GD32VW55x_RELEASE_V1.0.2/MSDK/lwip/lwip-2.1.2/src/core\altcp_tcp.c ****   ALTCP_TCP_ASSERT_CONN(conn); } while(0)
  63:C:/Users/stapi/OneDrive/Desktop/GD32VW553/V1_MQTT_OK/GD32VW55X_Wifi_BLE_SDK/GD32VW55x_RELEASE_V1.0.2/MSDK/lwip/lwip-2.1.2/src/core\altcp_tcp.c **** 
  64:C:/Users/stapi/OneDrive/Desktop/GD32VW553/V1_MQTT_OK/GD32VW55X_Wifi_BLE_SDK/GD32VW55x_RELEASE_V1.0.2/MSDK/lwip/lwip-2.1.2/src/core\altcp_tcp.c **** 
  65:C:/Users/stapi/OneDrive/Desktop/GD32VW553/V1_MQTT_OK/GD32VW55X_Wifi_BLE_SDK/GD32VW55x_RELEASE_V1.0.2/MSDK/lwip/lwip-2.1.2/src/core\altcp_tcp.c **** /* Variable prototype, the actual declaration is at the end of this file
  66:C:/Users/stapi/OneDrive/Desktop/GD32VW553/V1_MQTT_OK/GD32VW55X_Wifi_BLE_SDK/GD32VW55x_RELEASE_V1.0.2/MSDK/lwip/lwip-2.1.2/src/core\altcp_tcp.c ****    since it contains pointers to static functions declared here */
  67:C:/Users/stapi/OneDrive/Desktop/GD32VW553/V1_MQTT_OK/GD32VW55X_Wifi_BLE_SDK/GD32VW55x_RELEASE_V1.0.2/MSDK/lwip/lwip-2.1.2/src/core\altcp_tcp.c **** extern const struct altcp_functions altcp_tcp_functions;
  68:C:/Users/stapi/OneDrive/Desktop/GD32VW553/V1_MQTT_OK/GD32VW55X_Wifi_BLE_SDK/GD32VW55x_RELEASE_V1.0.2/MSDK/lwip/lwip-2.1.2/src/core\altcp_tcp.c **** 
  69:C:/Users/stapi/OneDrive/Desktop/GD32VW553/V1_MQTT_OK/GD32VW55X_Wifi_BLE_SDK/GD32VW55x_RELEASE_V1.0.2/MSDK/lwip/lwip-2.1.2/src/core\altcp_tcp.c **** static void altcp_tcp_setup(struct altcp_pcb *conn, struct tcp_pcb *tpcb);
  70:C:/Users/stapi/OneDrive/Desktop/GD32VW553/V1_MQTT_OK/GD32VW55X_Wifi_BLE_SDK/GD32VW55x_RELEASE_V1.0.2/MSDK/lwip/lwip-2.1.2/src/core\altcp_tcp.c **** 
  71:C:/Users/stapi/OneDrive/Desktop/GD32VW553/V1_MQTT_OK/GD32VW55X_Wifi_BLE_SDK/GD32VW55x_RELEASE_V1.0.2/MSDK/lwip/lwip-2.1.2/src/core\altcp_tcp.c **** /* callback functions for TCP */
  72:C:/Users/stapi/OneDrive/Desktop/GD32VW553/V1_MQTT_OK/GD32VW55X_Wifi_BLE_SDK/GD32VW55x_RELEASE_V1.0.2/MSDK/lwip/lwip-2.1.2/src/core\altcp_tcp.c **** static err_t
  73:C:/Users/stapi/OneDrive/Desktop/GD32VW553/V1_MQTT_OK/GD32VW55X_Wifi_BLE_SDK/GD32VW55x_RELEASE_V1.0.2/MSDK/lwip/lwip-2.1.2/src/core\altcp_tcp.c **** altcp_tcp_accept(void *arg, struct tcp_pcb *new_tpcb, err_t err)
  74:C:/Users/stapi/OneDrive/Desktop/GD32VW553/V1_MQTT_OK/GD32VW55X_Wifi_BLE_SDK/GD32VW55x_RELEASE_V1.0.2/MSDK/lwip/lwip-2.1.2/src/core\altcp_tcp.c **** {
  75:C:/Users/stapi/OneDrive/Desktop/GD32VW553/V1_MQTT_OK/GD32VW55X_Wifi_BLE_SDK/GD32VW55x_RELEASE_V1.0.2/MSDK/lwip/lwip-2.1.2/src/core\altcp_tcp.c ****   struct altcp_pcb *listen_conn = (struct altcp_pcb *)arg;
  76:C:/Users/stapi/OneDrive/Desktop/GD32VW553/V1_MQTT_OK/GD32VW55X_Wifi_BLE_SDK/GD32VW55x_RELEASE_V1.0.2/MSDK/lwip/lwip-2.1.2/src/core\altcp_tcp.c ****   if (listen_conn && listen_conn->accept) {
  77:C:/Users/stapi/OneDrive/Desktop/GD32VW553/V1_MQTT_OK/GD32VW55X_Wifi_BLE_SDK/GD32VW55x_RELEASE_V1.0.2/MSDK/lwip/lwip-2.1.2/src/core\altcp_tcp.c ****     /* create a new altcp_conn to pass to the next 'accept' callback */
  78:C:/Users/stapi/OneDrive/Desktop/GD32VW553/V1_MQTT_OK/GD32VW55X_Wifi_BLE_SDK/GD32VW55x_RELEASE_V1.0.2/MSDK/lwip/lwip-2.1.2/src/core\altcp_tcp.c ****     struct altcp_pcb *new_conn = altcp_alloc();
  79:C:/Users/stapi/OneDrive/Desktop/GD32VW553/V1_MQTT_OK/GD32VW55X_Wifi_BLE_SDK/GD32VW55x_RELEASE_V1.0.2/MSDK/lwip/lwip-2.1.2/src/core\altcp_tcp.c ****     if (new_conn == NULL) {
  80:C:/Users/stapi/OneDrive/Desktop/GD32VW553/V1_MQTT_OK/GD32VW55X_Wifi_BLE_SDK/GD32VW55x_RELEASE_V1.0.2/MSDK/lwip/lwip-2.1.2/src/core\altcp_tcp.c ****       return ERR_MEM;
  81:C:/Users/stapi/OneDrive/Desktop/GD32VW553/V1_MQTT_OK/GD32VW55X_Wifi_BLE_SDK/GD32VW55x_RELEASE_V1.0.2/MSDK/lwip/lwip-2.1.2/src/core\altcp_tcp.c ****     }
  82:C:/Users/stapi/OneDrive/Desktop/GD32VW553/V1_MQTT_OK/GD32VW55X_Wifi_BLE_SDK/GD32VW55x_RELEASE_V1.0.2/MSDK/lwip/lwip-2.1.2/src/core\altcp_tcp.c ****     altcp_tcp_setup(new_conn, new_tpcb);
  83:C:/Users/stapi/OneDrive/Desktop/GD32VW553/V1_MQTT_OK/GD32VW55X_Wifi_BLE_SDK/GD32VW55x_RELEASE_V1.0.2/MSDK/lwip/lwip-2.1.2/src/core\altcp_tcp.c ****     return listen_conn->accept(listen_conn->arg, new_conn, err);
  84:C:/Users/stapi/OneDrive/Desktop/GD32VW553/V1_MQTT_OK/GD32VW55X_Wifi_BLE_SDK/GD32VW55x_RELEASE_V1.0.2/MSDK/lwip/lwip-2.1.2/src/core\altcp_tcp.c ****   }
  85:C:/Users/stapi/OneDrive/Desktop/GD32VW553/V1_MQTT_OK/GD32VW55X_Wifi_BLE_SDK/GD32VW55x_RELEASE_V1.0.2/MSDK/lwip/lwip-2.1.2/src/core\altcp_tcp.c ****   return ERR_ARG;
  86:C:/Users/stapi/OneDrive/Desktop/GD32VW553/V1_MQTT_OK/GD32VW55X_Wifi_BLE_SDK/GD32VW55x_RELEASE_V1.0.2/MSDK/lwip/lwip-2.1.2/src/core\altcp_tcp.c **** }
  87:C:/Users/stapi/OneDrive/Desktop/GD32VW553/V1_MQTT_OK/GD32VW55X_Wifi_BLE_SDK/GD32VW55x_RELEASE_V1.0.2/MSDK/lwip/lwip-2.1.2/src/core\altcp_tcp.c **** 
  88:C:/Users/stapi/OneDrive/Desktop/GD32VW553/V1_MQTT_OK/GD32VW55X_Wifi_BLE_SDK/GD32VW55x_RELEASE_V1.0.2/MSDK/lwip/lwip-2.1.2/src/core\altcp_tcp.c **** static err_t
  89:C:/Users/stapi/OneDrive/Desktop/GD32VW553/V1_MQTT_OK/GD32VW55X_Wifi_BLE_SDK/GD32VW55x_RELEASE_V1.0.2/MSDK/lwip/lwip-2.1.2/src/core\altcp_tcp.c **** altcp_tcp_connected(void *arg, struct tcp_pcb *tpcb, err_t err)
  90:C:/Users/stapi/OneDrive/Desktop/GD32VW553/V1_MQTT_OK/GD32VW55X_Wifi_BLE_SDK/GD32VW55x_RELEASE_V1.0.2/MSDK/lwip/lwip-2.1.2/src/core\altcp_tcp.c **** {
  91:C:/Users/stapi/OneDrive/Desktop/GD32VW553/V1_MQTT_OK/GD32VW55X_Wifi_BLE_SDK/GD32VW55x_RELEASE_V1.0.2/MSDK/lwip/lwip-2.1.2/src/core\altcp_tcp.c ****   struct altcp_pcb *conn = (struct altcp_pcb *)arg;
  92:C:/Users/stapi/OneDrive/Desktop/GD32VW553/V1_MQTT_OK/GD32VW55X_Wifi_BLE_SDK/GD32VW55x_RELEASE_V1.0.2/MSDK/lwip/lwip-2.1.2/src/core\altcp_tcp.c ****   if (conn) {
  93:C:/Users/stapi/OneDrive/Desktop/GD32VW553/V1_MQTT_OK/GD32VW55X_Wifi_BLE_SDK/GD32VW55x_RELEASE_V1.0.2/MSDK/lwip/lwip-2.1.2/src/core\altcp_tcp.c ****     ALTCP_TCP_ASSERT_CONN_PCB(conn, tpcb);
  94:C:/Users/stapi/OneDrive/Desktop/GD32VW553/V1_MQTT_OK/GD32VW55X_Wifi_BLE_SDK/GD32VW55x_RELEASE_V1.0.2/MSDK/lwip/lwip-2.1.2/src/core\altcp_tcp.c ****     if (conn->connected) {
  95:C:/Users/stapi/OneDrive/Desktop/GD32VW553/V1_MQTT_OK/GD32VW55X_Wifi_BLE_SDK/GD32VW55x_RELEASE_V1.0.2/MSDK/lwip/lwip-2.1.2/src/core\altcp_tcp.c ****       return conn->connected(conn->arg, conn, err);
  96:C:/Users/stapi/OneDrive/Desktop/GD32VW553/V1_MQTT_OK/GD32VW55X_Wifi_BLE_SDK/GD32VW55x_RELEASE_V1.0.2/MSDK/lwip/lwip-2.1.2/src/core\altcp_tcp.c ****     }
  97:C:/Users/stapi/OneDrive/Desktop/GD32VW553/V1_MQTT_OK/GD32VW55X_Wifi_BLE_SDK/GD32VW55x_RELEASE_V1.0.2/MSDK/lwip/lwip-2.1.2/src/core\altcp_tcp.c ****   }
  98:C:/Users/stapi/OneDrive/Desktop/GD32VW553/V1_MQTT_OK/GD32VW55X_Wifi_BLE_SDK/GD32VW55x_RELEASE_V1.0.2/MSDK/lwip/lwip-2.1.2/src/core\altcp_tcp.c ****   return ERR_OK;
  99:C:/Users/stapi/OneDrive/Desktop/GD32VW553/V1_MQTT_OK/GD32VW55X_Wifi_BLE_SDK/GD32VW55x_RELEASE_V1.0.2/MSDK/lwip/lwip-2.1.2/src/core\altcp_tcp.c **** }
 100:C:/Users/stapi/OneDrive/Desktop/GD32VW553/V1_MQTT_OK/GD32VW55X_Wifi_BLE_SDK/GD32VW55x_RELEASE_V1.0.2/MSDK/lwip/lwip-2.1.2/src/core\altcp_tcp.c **** 
 101:C:/Users/stapi/OneDrive/Desktop/GD32VW553/V1_MQTT_OK/GD32VW55X_Wifi_BLE_SDK/GD32VW55x_RELEASE_V1.0.2/MSDK/lwip/lwip-2.1.2/src/core\altcp_tcp.c **** static err_t
 102:C:/Users/stapi/OneDrive/Desktop/GD32VW553/V1_MQTT_OK/GD32VW55X_Wifi_BLE_SDK/GD32VW55x_RELEASE_V1.0.2/MSDK/lwip/lwip-2.1.2/src/core\altcp_tcp.c **** altcp_tcp_recv(void *arg, struct tcp_pcb *tpcb, struct pbuf *p, err_t err)
 103:C:/Users/stapi/OneDrive/Desktop/GD32VW553/V1_MQTT_OK/GD32VW55X_Wifi_BLE_SDK/GD32VW55x_RELEASE_V1.0.2/MSDK/lwip/lwip-2.1.2/src/core\altcp_tcp.c **** {
 104:C:/Users/stapi/OneDrive/Desktop/GD32VW553/V1_MQTT_OK/GD32VW55X_Wifi_BLE_SDK/GD32VW55x_RELEASE_V1.0.2/MSDK/lwip/lwip-2.1.2/src/core\altcp_tcp.c ****   struct altcp_pcb *conn = (struct altcp_pcb *)arg;
 105:C:/Users/stapi/OneDrive/Desktop/GD32VW553/V1_MQTT_OK/GD32VW55X_Wifi_BLE_SDK/GD32VW55x_RELEASE_V1.0.2/MSDK/lwip/lwip-2.1.2/src/core\altcp_tcp.c ****   if (conn) {
 106:C:/Users/stapi/OneDrive/Desktop/GD32VW553/V1_MQTT_OK/GD32VW55X_Wifi_BLE_SDK/GD32VW55x_RELEASE_V1.0.2/MSDK/lwip/lwip-2.1.2/src/core\altcp_tcp.c ****     ALTCP_TCP_ASSERT_CONN_PCB(conn, tpcb);
 107:C:/Users/stapi/OneDrive/Desktop/GD32VW553/V1_MQTT_OK/GD32VW55X_Wifi_BLE_SDK/GD32VW55x_RELEASE_V1.0.2/MSDK/lwip/lwip-2.1.2/src/core\altcp_tcp.c ****     if (conn->recv) {
 108:C:/Users/stapi/OneDrive/Desktop/GD32VW553/V1_MQTT_OK/GD32VW55X_Wifi_BLE_SDK/GD32VW55x_RELEASE_V1.0.2/MSDK/lwip/lwip-2.1.2/src/core\altcp_tcp.c ****       return conn->recv(conn->arg, conn, p, err);
 109:C:/Users/stapi/OneDrive/Desktop/GD32VW553/V1_MQTT_OK/GD32VW55X_Wifi_BLE_SDK/GD32VW55x_RELEASE_V1.0.2/MSDK/lwip/lwip-2.1.2/src/core\altcp_tcp.c ****     }
 110:C:/Users/stapi/OneDrive/Desktop/GD32VW553/V1_MQTT_OK/GD32VW55X_Wifi_BLE_SDK/GD32VW55x_RELEASE_V1.0.2/MSDK/lwip/lwip-2.1.2/src/core\altcp_tcp.c ****   }
 111:C:/Users/stapi/OneDrive/Desktop/GD32VW553/V1_MQTT_OK/GD32VW55X_Wifi_BLE_SDK/GD32VW55x_RELEASE_V1.0.2/MSDK/lwip/lwip-2.1.2/src/core\altcp_tcp.c ****   if (p != NULL) {
 112:C:/Users/stapi/OneDrive/Desktop/GD32VW553/V1_MQTT_OK/GD32VW55X_Wifi_BLE_SDK/GD32VW55x_RELEASE_V1.0.2/MSDK/lwip/lwip-2.1.2/src/core\altcp_tcp.c ****     /* prevent memory leaks */
 113:C:/Users/stapi/OneDrive/Desktop/GD32VW553/V1_MQTT_OK/GD32VW55X_Wifi_BLE_SDK/GD32VW55x_RELEASE_V1.0.2/MSDK/lwip/lwip-2.1.2/src/core\altcp_tcp.c ****     pbuf_free(p);
 114:C:/Users/stapi/OneDrive/Desktop/GD32VW553/V1_MQTT_OK/GD32VW55X_Wifi_BLE_SDK/GD32VW55x_RELEASE_V1.0.2/MSDK/lwip/lwip-2.1.2/src/core\altcp_tcp.c ****   }
 115:C:/Users/stapi/OneDrive/Desktop/GD32VW553/V1_MQTT_OK/GD32VW55X_Wifi_BLE_SDK/GD32VW55x_RELEASE_V1.0.2/MSDK/lwip/lwip-2.1.2/src/core\altcp_tcp.c ****   return ERR_OK;
 116:C:/Users/stapi/OneDrive/Desktop/GD32VW553/V1_MQTT_OK/GD32VW55X_Wifi_BLE_SDK/GD32VW55x_RELEASE_V1.0.2/MSDK/lwip/lwip-2.1.2/src/core\altcp_tcp.c **** }
 117:C:/Users/stapi/OneDrive/Desktop/GD32VW553/V1_MQTT_OK/GD32VW55X_Wifi_BLE_SDK/GD32VW55x_RELEASE_V1.0.2/MSDK/lwip/lwip-2.1.2/src/core\altcp_tcp.c **** 
 118:C:/Users/stapi/OneDrive/Desktop/GD32VW553/V1_MQTT_OK/GD32VW55X_Wifi_BLE_SDK/GD32VW55x_RELEASE_V1.0.2/MSDK/lwip/lwip-2.1.2/src/core\altcp_tcp.c **** static err_t
 119:C:/Users/stapi/OneDrive/Desktop/GD32VW553/V1_MQTT_OK/GD32VW55X_Wifi_BLE_SDK/GD32VW55x_RELEASE_V1.0.2/MSDK/lwip/lwip-2.1.2/src/core\altcp_tcp.c **** altcp_tcp_sent(void *arg, struct tcp_pcb *tpcb, u16_t len)
 120:C:/Users/stapi/OneDrive/Desktop/GD32VW553/V1_MQTT_OK/GD32VW55X_Wifi_BLE_SDK/GD32VW55x_RELEASE_V1.0.2/MSDK/lwip/lwip-2.1.2/src/core\altcp_tcp.c **** {
 121:C:/Users/stapi/OneDrive/Desktop/GD32VW553/V1_MQTT_OK/GD32VW55X_Wifi_BLE_SDK/GD32VW55x_RELEASE_V1.0.2/MSDK/lwip/lwip-2.1.2/src/core\altcp_tcp.c ****   struct altcp_pcb *conn = (struct altcp_pcb *)arg;
 122:C:/Users/stapi/OneDrive/Desktop/GD32VW553/V1_MQTT_OK/GD32VW55X_Wifi_BLE_SDK/GD32VW55x_RELEASE_V1.0.2/MSDK/lwip/lwip-2.1.2/src/core\altcp_tcp.c ****   if (conn) {
 123:C:/Users/stapi/OneDrive/Desktop/GD32VW553/V1_MQTT_OK/GD32VW55X_Wifi_BLE_SDK/GD32VW55x_RELEASE_V1.0.2/MSDK/lwip/lwip-2.1.2/src/core\altcp_tcp.c ****     ALTCP_TCP_ASSERT_CONN_PCB(conn, tpcb);
 124:C:/Users/stapi/OneDrive/Desktop/GD32VW553/V1_MQTT_OK/GD32VW55X_Wifi_BLE_SDK/GD32VW55x_RELEASE_V1.0.2/MSDK/lwip/lwip-2.1.2/src/core\altcp_tcp.c ****     if (conn->sent) {
 125:C:/Users/stapi/OneDrive/Desktop/GD32VW553/V1_MQTT_OK/GD32VW55X_Wifi_BLE_SDK/GD32VW55x_RELEASE_V1.0.2/MSDK/lwip/lwip-2.1.2/src/core\altcp_tcp.c ****       return conn->sent(conn->arg, conn, len);
 126:C:/Users/stapi/OneDrive/Desktop/GD32VW553/V1_MQTT_OK/GD32VW55X_Wifi_BLE_SDK/GD32VW55x_RELEASE_V1.0.2/MSDK/lwip/lwip-2.1.2/src/core\altcp_tcp.c ****     }
 127:C:/Users/stapi/OneDrive/Desktop/GD32VW553/V1_MQTT_OK/GD32VW55X_Wifi_BLE_SDK/GD32VW55x_RELEASE_V1.0.2/MSDK/lwip/lwip-2.1.2/src/core\altcp_tcp.c ****   }
 128:C:/Users/stapi/OneDrive/Desktop/GD32VW553/V1_MQTT_OK/GD32VW55X_Wifi_BLE_SDK/GD32VW55x_RELEASE_V1.0.2/MSDK/lwip/lwip-2.1.2/src/core\altcp_tcp.c ****   return ERR_OK;
 129:C:/Users/stapi/OneDrive/Desktop/GD32VW553/V1_MQTT_OK/GD32VW55X_Wifi_BLE_SDK/GD32VW55x_RELEASE_V1.0.2/MSDK/lwip/lwip-2.1.2/src/core\altcp_tcp.c **** }
 130:C:/Users/stapi/OneDrive/Desktop/GD32VW553/V1_MQTT_OK/GD32VW55X_Wifi_BLE_SDK/GD32VW55x_RELEASE_V1.0.2/MSDK/lwip/lwip-2.1.2/src/core\altcp_tcp.c **** 
 131:C:/Users/stapi/OneDrive/Desktop/GD32VW553/V1_MQTT_OK/GD32VW55X_Wifi_BLE_SDK/GD32VW55x_RELEASE_V1.0.2/MSDK/lwip/lwip-2.1.2/src/core\altcp_tcp.c **** static err_t
 132:C:/Users/stapi/OneDrive/Desktop/GD32VW553/V1_MQTT_OK/GD32VW55X_Wifi_BLE_SDK/GD32VW55x_RELEASE_V1.0.2/MSDK/lwip/lwip-2.1.2/src/core\altcp_tcp.c **** altcp_tcp_poll(void *arg, struct tcp_pcb *tpcb)
 133:C:/Users/stapi/OneDrive/Desktop/GD32VW553/V1_MQTT_OK/GD32VW55X_Wifi_BLE_SDK/GD32VW55x_RELEASE_V1.0.2/MSDK/lwip/lwip-2.1.2/src/core\altcp_tcp.c **** {
 134:C:/Users/stapi/OneDrive/Desktop/GD32VW553/V1_MQTT_OK/GD32VW55X_Wifi_BLE_SDK/GD32VW55x_RELEASE_V1.0.2/MSDK/lwip/lwip-2.1.2/src/core\altcp_tcp.c ****   struct altcp_pcb *conn = (struct altcp_pcb *)arg;
 135:C:/Users/stapi/OneDrive/Desktop/GD32VW553/V1_MQTT_OK/GD32VW55X_Wifi_BLE_SDK/GD32VW55x_RELEASE_V1.0.2/MSDK/lwip/lwip-2.1.2/src/core\altcp_tcp.c ****   if (conn) {
 136:C:/Users/stapi/OneDrive/Desktop/GD32VW553/V1_MQTT_OK/GD32VW55X_Wifi_BLE_SDK/GD32VW55x_RELEASE_V1.0.2/MSDK/lwip/lwip-2.1.2/src/core\altcp_tcp.c ****     ALTCP_TCP_ASSERT_CONN_PCB(conn, tpcb);
 137:C:/Users/stapi/OneDrive/Desktop/GD32VW553/V1_MQTT_OK/GD32VW55X_Wifi_BLE_SDK/GD32VW55x_RELEASE_V1.0.2/MSDK/lwip/lwip-2.1.2/src/core\altcp_tcp.c ****     if (conn->poll) {
 138:C:/Users/stapi/OneDrive/Desktop/GD32VW553/V1_MQTT_OK/GD32VW55X_Wifi_BLE_SDK/GD32VW55x_RELEASE_V1.0.2/MSDK/lwip/lwip-2.1.2/src/core\altcp_tcp.c ****       return conn->poll(conn->arg, conn);
 139:C:/Users/stapi/OneDrive/Desktop/GD32VW553/V1_MQTT_OK/GD32VW55X_Wifi_BLE_SDK/GD32VW55x_RELEASE_V1.0.2/MSDK/lwip/lwip-2.1.2/src/core\altcp_tcp.c ****     }
 140:C:/Users/stapi/OneDrive/Desktop/GD32VW553/V1_MQTT_OK/GD32VW55X_Wifi_BLE_SDK/GD32VW55x_RELEASE_V1.0.2/MSDK/lwip/lwip-2.1.2/src/core\altcp_tcp.c ****   }
 141:C:/Users/stapi/OneDrive/Desktop/GD32VW553/V1_MQTT_OK/GD32VW55X_Wifi_BLE_SDK/GD32VW55x_RELEASE_V1.0.2/MSDK/lwip/lwip-2.1.2/src/core\altcp_tcp.c ****   return ERR_OK;
 142:C:/Users/stapi/OneDrive/Desktop/GD32VW553/V1_MQTT_OK/GD32VW55X_Wifi_BLE_SDK/GD32VW55x_RELEASE_V1.0.2/MSDK/lwip/lwip-2.1.2/src/core\altcp_tcp.c **** }
 143:C:/Users/stapi/OneDrive/Desktop/GD32VW553/V1_MQTT_OK/GD32VW55X_Wifi_BLE_SDK/GD32VW55x_RELEASE_V1.0.2/MSDK/lwip/lwip-2.1.2/src/core\altcp_tcp.c **** 
 144:C:/Users/stapi/OneDrive/Desktop/GD32VW553/V1_MQTT_OK/GD32VW55X_Wifi_BLE_SDK/GD32VW55x_RELEASE_V1.0.2/MSDK/lwip/lwip-2.1.2/src/core\altcp_tcp.c **** static void
 145:C:/Users/stapi/OneDrive/Desktop/GD32VW553/V1_MQTT_OK/GD32VW55X_Wifi_BLE_SDK/GD32VW55x_RELEASE_V1.0.2/MSDK/lwip/lwip-2.1.2/src/core\altcp_tcp.c **** altcp_tcp_err(void *arg, err_t err)
 146:C:/Users/stapi/OneDrive/Desktop/GD32VW553/V1_MQTT_OK/GD32VW55X_Wifi_BLE_SDK/GD32VW55x_RELEASE_V1.0.2/MSDK/lwip/lwip-2.1.2/src/core\altcp_tcp.c **** {
 147:C:/Users/stapi/OneDrive/Desktop/GD32VW553/V1_MQTT_OK/GD32VW55X_Wifi_BLE_SDK/GD32VW55x_RELEASE_V1.0.2/MSDK/lwip/lwip-2.1.2/src/core\altcp_tcp.c ****   struct altcp_pcb *conn = (struct altcp_pcb *)arg;
 148:C:/Users/stapi/OneDrive/Desktop/GD32VW553/V1_MQTT_OK/GD32VW55X_Wifi_BLE_SDK/GD32VW55x_RELEASE_V1.0.2/MSDK/lwip/lwip-2.1.2/src/core\altcp_tcp.c ****   if (conn) {
 149:C:/Users/stapi/OneDrive/Desktop/GD32VW553/V1_MQTT_OK/GD32VW55X_Wifi_BLE_SDK/GD32VW55x_RELEASE_V1.0.2/MSDK/lwip/lwip-2.1.2/src/core\altcp_tcp.c ****     conn->state = NULL; /* already freed */
 150:C:/Users/stapi/OneDrive/Desktop/GD32VW553/V1_MQTT_OK/GD32VW55X_Wifi_BLE_SDK/GD32VW55x_RELEASE_V1.0.2/MSDK/lwip/lwip-2.1.2/src/core\altcp_tcp.c ****     if (conn->err) {
 151:C:/Users/stapi/OneDrive/Desktop/GD32VW553/V1_MQTT_OK/GD32VW55X_Wifi_BLE_SDK/GD32VW55x_RELEASE_V1.0.2/MSDK/lwip/lwip-2.1.2/src/core\altcp_tcp.c ****       conn->err(conn->arg, err);
 152:C:/Users/stapi/OneDrive/Desktop/GD32VW553/V1_MQTT_OK/GD32VW55X_Wifi_BLE_SDK/GD32VW55x_RELEASE_V1.0.2/MSDK/lwip/lwip-2.1.2/src/core\altcp_tcp.c ****     }
 153:C:/Users/stapi/OneDrive/Desktop/GD32VW553/V1_MQTT_OK/GD32VW55X_Wifi_BLE_SDK/GD32VW55x_RELEASE_V1.0.2/MSDK/lwip/lwip-2.1.2/src/core\altcp_tcp.c ****     altcp_free(conn);
 154:C:/Users/stapi/OneDrive/Desktop/GD32VW553/V1_MQTT_OK/GD32VW55X_Wifi_BLE_SDK/GD32VW55x_RELEASE_V1.0.2/MSDK/lwip/lwip-2.1.2/src/core\altcp_tcp.c ****   }
 155:C:/Users/stapi/OneDrive/Desktop/GD32VW553/V1_MQTT_OK/GD32VW55X_Wifi_BLE_SDK/GD32VW55x_RELEASE_V1.0.2/MSDK/lwip/lwip-2.1.2/src/core\altcp_tcp.c **** }
 156:C:/Users/stapi/OneDrive/Desktop/GD32VW553/V1_MQTT_OK/GD32VW55X_Wifi_BLE_SDK/GD32VW55x_RELEASE_V1.0.2/MSDK/lwip/lwip-2.1.2/src/core\altcp_tcp.c **** 
 157:C:/Users/stapi/OneDrive/Desktop/GD32VW553/V1_MQTT_OK/GD32VW55X_Wifi_BLE_SDK/GD32VW55x_RELEASE_V1.0.2/MSDK/lwip/lwip-2.1.2/src/core\altcp_tcp.c **** /* setup functions */
 158:C:/Users/stapi/OneDrive/Desktop/GD32VW553/V1_MQTT_OK/GD32VW55X_Wifi_BLE_SDK/GD32VW55x_RELEASE_V1.0.2/MSDK/lwip/lwip-2.1.2/src/core\altcp_tcp.c **** 
 159:C:/Users/stapi/OneDrive/Desktop/GD32VW553/V1_MQTT_OK/GD32VW55X_Wifi_BLE_SDK/GD32VW55x_RELEASE_V1.0.2/MSDK/lwip/lwip-2.1.2/src/core\altcp_tcp.c **** static void
 160:C:/Users/stapi/OneDrive/Desktop/GD32VW553/V1_MQTT_OK/GD32VW55X_Wifi_BLE_SDK/GD32VW55x_RELEASE_V1.0.2/MSDK/lwip/lwip-2.1.2/src/core\altcp_tcp.c **** altcp_tcp_remove_callbacks(struct tcp_pcb *tpcb)
 161:C:/Users/stapi/OneDrive/Desktop/GD32VW553/V1_MQTT_OK/GD32VW55X_Wifi_BLE_SDK/GD32VW55x_RELEASE_V1.0.2/MSDK/lwip/lwip-2.1.2/src/core\altcp_tcp.c **** {
 162:C:/Users/stapi/OneDrive/Desktop/GD32VW553/V1_MQTT_OK/GD32VW55X_Wifi_BLE_SDK/GD32VW55x_RELEASE_V1.0.2/MSDK/lwip/lwip-2.1.2/src/core\altcp_tcp.c ****   tcp_arg(tpcb, NULL);
 163:C:/Users/stapi/OneDrive/Desktop/GD32VW553/V1_MQTT_OK/GD32VW55X_Wifi_BLE_SDK/GD32VW55x_RELEASE_V1.0.2/MSDK/lwip/lwip-2.1.2/src/core\altcp_tcp.c ****   tcp_recv(tpcb, NULL);
 164:C:/Users/stapi/OneDrive/Desktop/GD32VW553/V1_MQTT_OK/GD32VW55X_Wifi_BLE_SDK/GD32VW55x_RELEASE_V1.0.2/MSDK/lwip/lwip-2.1.2/src/core\altcp_tcp.c ****   tcp_sent(tpcb, NULL);
 165:C:/Users/stapi/OneDrive/Desktop/GD32VW553/V1_MQTT_OK/GD32VW55X_Wifi_BLE_SDK/GD32VW55x_RELEASE_V1.0.2/MSDK/lwip/lwip-2.1.2/src/core\altcp_tcp.c ****   tcp_err(tpcb, NULL);
 166:C:/Users/stapi/OneDrive/Desktop/GD32VW553/V1_MQTT_OK/GD32VW55X_Wifi_BLE_SDK/GD32VW55x_RELEASE_V1.0.2/MSDK/lwip/lwip-2.1.2/src/core\altcp_tcp.c ****   tcp_poll(tpcb, NULL, tpcb->pollinterval);
 167:C:/Users/stapi/OneDrive/Desktop/GD32VW553/V1_MQTT_OK/GD32VW55X_Wifi_BLE_SDK/GD32VW55x_RELEASE_V1.0.2/MSDK/lwip/lwip-2.1.2/src/core\altcp_tcp.c **** }
 168:C:/Users/stapi/OneDrive/Desktop/GD32VW553/V1_MQTT_OK/GD32VW55X_Wifi_BLE_SDK/GD32VW55x_RELEASE_V1.0.2/MSDK/lwip/lwip-2.1.2/src/core\altcp_tcp.c **** 
 169:C:/Users/stapi/OneDrive/Desktop/GD32VW553/V1_MQTT_OK/GD32VW55X_Wifi_BLE_SDK/GD32VW55x_RELEASE_V1.0.2/MSDK/lwip/lwip-2.1.2/src/core\altcp_tcp.c **** static void
 170:C:/Users/stapi/OneDrive/Desktop/GD32VW553/V1_MQTT_OK/GD32VW55X_Wifi_BLE_SDK/GD32VW55x_RELEASE_V1.0.2/MSDK/lwip/lwip-2.1.2/src/core\altcp_tcp.c **** altcp_tcp_setup_callbacks(struct altcp_pcb *conn, struct tcp_pcb *tpcb)
 171:C:/Users/stapi/OneDrive/Desktop/GD32VW553/V1_MQTT_OK/GD32VW55X_Wifi_BLE_SDK/GD32VW55x_RELEASE_V1.0.2/MSDK/lwip/lwip-2.1.2/src/core\altcp_tcp.c **** {
  15              		.loc 1 171 1
  16              		.cfi_startproc
  17              	.LVL0:
  18 0000 17030000 		call	t0,__riscv_save_1
  18      E7020300 
  19              		.cfi_offset 8, -8
  20              		.cfi_offset 1, -4
  21              		.cfi_def_cfa_offset 16
 172:C:/Users/stapi/OneDrive/Desktop/GD32VW553/V1_MQTT_OK/GD32VW55X_Wifi_BLE_SDK/GD32VW55x_RELEASE_V1.0.2/MSDK/lwip/lwip-2.1.2/src/core\altcp_tcp.c ****   tcp_arg(tpcb, conn);
  22              		.loc 1 172 3
 171:C:/Users/stapi/OneDrive/Desktop/GD32VW553/V1_MQTT_OK/GD32VW55X_Wifi_BLE_SDK/GD32VW55x_RELEASE_V1.0.2/MSDK/lwip/lwip-2.1.2/src/core\altcp_tcp.c ****   tcp_arg(tpcb, conn);
  23              		.loc 1 171 1 is_stmt 0
  24 0008 2E84     		mv	s0,a1
  25              		.loc 1 172 3
  26 000a AA85     		mv	a1,a0
  27              	.LVL1:
  28 000c 2285     		mv	a0,s0
  29              	.LVL2:
  30 000e 97000000 		call	tcp_arg
  30      E7800000 
  31              	.LVL3:
 173:C:/Users/stapi/OneDrive/Desktop/GD32VW553/V1_MQTT_OK/GD32VW55X_Wifi_BLE_SDK/GD32VW55x_RELEASE_V1.0.2/MSDK/lwip/lwip-2.1.2/src/core\altcp_tcp.c ****   tcp_recv(tpcb, altcp_tcp_recv);
  32              		.loc 1 173 3 is_stmt 1
  33 0016 B7050000 		lui	a1,%hi(altcp_tcp_recv)
  34 001a 2285     		mv	a0,s0
  35 001c 93850500 		addi	a1,a1,%lo(altcp_tcp_recv)
  36 0020 97000000 		call	tcp_recv
  36      E7800000 
  37              	.LVL4:
 174:C:/Users/stapi/OneDrive/Desktop/GD32VW553/V1_MQTT_OK/GD32VW55X_Wifi_BLE_SDK/GD32VW55x_RELEASE_V1.0.2/MSDK/lwip/lwip-2.1.2/src/core\altcp_tcp.c ****   tcp_sent(tpcb, altcp_tcp_sent);
  38              		.loc 1 174 3
  39 0028 B7050000 		lui	a1,%hi(altcp_tcp_sent)
  40 002c 2285     		mv	a0,s0
  41 002e 93850500 		addi	a1,a1,%lo(altcp_tcp_sent)
  42 0032 97000000 		call	tcp_sent
  42      E7800000 
  43              	.LVL5:
 175:C:/Users/stapi/OneDrive/Desktop/GD32VW553/V1_MQTT_OK/GD32VW55X_Wifi_BLE_SDK/GD32VW55x_RELEASE_V1.0.2/MSDK/lwip/lwip-2.1.2/src/core\altcp_tcp.c ****   tcp_err(tpcb, altcp_tcp_err);
  44              		.loc 1 175 3
  45 003a B7050000 		lui	a1,%hi(altcp_tcp_err)
  46 003e 93850500 		addi	a1,a1,%lo(altcp_tcp_err)
  47 0042 2285     		mv	a0,s0
  48 0044 97000000 		call	tcp_err
  48      E7800000 
  49              	.LVL6:
 176:C:/Users/stapi/OneDrive/Desktop/GD32VW553/V1_MQTT_OK/GD32VW55X_Wifi_BLE_SDK/GD32VW55x_RELEASE_V1.0.2/MSDK/lwip/lwip-2.1.2/src/core\altcp_tcp.c ****   /* tcp_poll is set when interval is set by application */
 177:C:/Users/stapi/OneDrive/Desktop/GD32VW553/V1_MQTT_OK/GD32VW55X_Wifi_BLE_SDK/GD32VW55x_RELEASE_V1.0.2/MSDK/lwip/lwip-2.1.2/src/core\altcp_tcp.c ****   /* listen is set totally different :-) */
 178:C:/Users/stapi/OneDrive/Desktop/GD32VW553/V1_MQTT_OK/GD32VW55X_Wifi_BLE_SDK/GD32VW55x_RELEASE_V1.0.2/MSDK/lwip/lwip-2.1.2/src/core\altcp_tcp.c **** }
  50              		.loc 1 178 1 is_stmt 0
  51 004c 17030000 		tail	__riscv_restore_1
  51      67000300 
  52              		.cfi_restore 8
  53              		.cfi_restore 1
  54              		.cfi_def_cfa_offset 0
  55              		.cfi_endproc
  56              	.LFE11:
  58              		.section	.text.altcp_tcp_accept,"ax",@progbits
  59              		.align	1
  61              	altcp_tcp_accept:
  62              	.LFB4:
  74:C:/Users/stapi/OneDrive/Desktop/GD32VW553/V1_MQTT_OK/GD32VW55X_Wifi_BLE_SDK/GD32VW55x_RELEASE_V1.0.2/MSDK/lwip/lwip-2.1.2/src/core\altcp_tcp.c ****   struct altcp_pcb *listen_conn = (struct altcp_pcb *)arg;
  63              		.loc 1 74 1 is_stmt 1
  64              		.cfi_startproc
  65              	.LVL7:
  75:C:/Users/stapi/OneDrive/Desktop/GD32VW553/V1_MQTT_OK/GD32VW55X_Wifi_BLE_SDK/GD32VW55x_RELEASE_V1.0.2/MSDK/lwip/lwip-2.1.2/src/core\altcp_tcp.c ****   if (listen_conn && listen_conn->accept) {
  66              		.loc 1 75 3
  76:C:/Users/stapi/OneDrive/Desktop/GD32VW553/V1_MQTT_OK/GD32VW55X_Wifi_BLE_SDK/GD32VW55x_RELEASE_V1.0.2/MSDK/lwip/lwip-2.1.2/src/core\altcp_tcp.c ****     /* create a new altcp_conn to pass to the next 'accept' callback */
  67              		.loc 1 76 3
  76:C:/Users/stapi/OneDrive/Desktop/GD32VW553/V1_MQTT_OK/GD32VW55X_Wifi_BLE_SDK/GD32VW55x_RELEASE_V1.0.2/MSDK/lwip/lwip-2.1.2/src/core\altcp_tcp.c ****     /* create a new altcp_conn to pass to the next 'accept' callback */
  68              		.loc 1 76 6 is_stmt 0
  69 0000 29C9     		beq	a0,zero,.L5
  74:C:/Users/stapi/OneDrive/Desktop/GD32VW553/V1_MQTT_OK/GD32VW55X_Wifi_BLE_SDK/GD32VW55x_RELEASE_V1.0.2/MSDK/lwip/lwip-2.1.2/src/core\altcp_tcp.c ****   struct altcp_pcb *listen_conn = (struct altcp_pcb *)arg;
  70              		.loc 1 74 1 discriminator 1
  71 0002 17030000 		call	t0,__riscv_save_4
  71      E7020300 
  72              		.cfi_offset 19, -20
  73              		.cfi_offset 18, -16
  74              		.cfi_offset 9, -12
  75              		.cfi_offset 8, -8
  76              		.cfi_offset 1, -4
  77              		.cfi_def_cfa_offset 32
  76:C:/Users/stapi/OneDrive/Desktop/GD32VW553/V1_MQTT_OK/GD32VW55X_Wifi_BLE_SDK/GD32VW55x_RELEASE_V1.0.2/MSDK/lwip/lwip-2.1.2/src/core\altcp_tcp.c ****     /* create a new altcp_conn to pass to the next 'accept' callback */
  78              		.loc 1 76 19 discriminator 1
  79 000a 1849     		lw	a4,16(a0)
  80 000c 2A84     		mv	s0,a0
  85:C:/Users/stapi/OneDrive/Desktop/GD32VW553/V1_MQTT_OK/GD32VW55X_Wifi_BLE_SDK/GD32VW55x_RELEASE_V1.0.2/MSDK/lwip/lwip-2.1.2/src/core\altcp_tcp.c **** }
  81              		.loc 1 85 10 discriminator 1
  82 000e C157     		li	a5,-16
  76:C:/Users/stapi/OneDrive/Desktop/GD32VW553/V1_MQTT_OK/GD32VW55X_Wifi_BLE_SDK/GD32VW55x_RELEASE_V1.0.2/MSDK/lwip/lwip-2.1.2/src/core\altcp_tcp.c ****     /* create a new altcp_conn to pass to the next 'accept' callback */
  83              		.loc 1 76 19 discriminator 1
  84 0010 05CF     		beq	a4,zero,.L4
  85 0012 2E89     		mv	s2,a1
  86 0014 B289     		mv	s3,a2
  87              	.LBB15:
  78:C:/Users/stapi/OneDrive/Desktop/GD32VW553/V1_MQTT_OK/GD32VW55X_Wifi_BLE_SDK/GD32VW55x_RELEASE_V1.0.2/MSDK/lwip/lwip-2.1.2/src/core\altcp_tcp.c ****     if (new_conn == NULL) {
  88              		.loc 1 78 5 is_stmt 1
  78:C:/Users/stapi/OneDrive/Desktop/GD32VW553/V1_MQTT_OK/GD32VW55X_Wifi_BLE_SDK/GD32VW55x_RELEASE_V1.0.2/MSDK/lwip/lwip-2.1.2/src/core\altcp_tcp.c ****     if (new_conn == NULL) {
  89              		.loc 1 78 34 is_stmt 0
  90 0016 97000000 		call	altcp_alloc
  90      E7800000 
  91              	.LVL8:
  92 001e AA84     		mv	s1,a0
  93              	.LVL9:
  79:C:/Users/stapi/OneDrive/Desktop/GD32VW553/V1_MQTT_OK/GD32VW55X_Wifi_BLE_SDK/GD32VW55x_RELEASE_V1.0.2/MSDK/lwip/lwip-2.1.2/src/core\altcp_tcp.c ****       return ERR_MEM;
  94              		.loc 1 79 5 is_stmt 1
  80:C:/Users/stapi/OneDrive/Desktop/GD32VW553/V1_MQTT_OK/GD32VW55X_Wifi_BLE_SDK/GD32VW55x_RELEASE_V1.0.2/MSDK/lwip/lwip-2.1.2/src/core\altcp_tcp.c ****     }
  95              		.loc 1 80 14 is_stmt 0
  96 0020 FD57     		li	a5,-1
  79:C:/Users/stapi/OneDrive/Desktop/GD32VW553/V1_MQTT_OK/GD32VW55X_Wifi_BLE_SDK/GD32VW55x_RELEASE_V1.0.2/MSDK/lwip/lwip-2.1.2/src/core\altcp_tcp.c ****       return ERR_MEM;
  97              		.loc 1 79 8
  98 0022 1DC1     		beq	a0,zero,.L4
  82:C:/Users/stapi/OneDrive/Desktop/GD32VW553/V1_MQTT_OK/GD32VW55X_Wifi_BLE_SDK/GD32VW55x_RELEASE_V1.0.2/MSDK/lwip/lwip-2.1.2/src/core\altcp_tcp.c ****     return listen_conn->accept(listen_conn->arg, new_conn, err);
  99              		.loc 1 82 5 is_stmt 1
 100              	.LVL10:
 101              	.LBB16:
 102              	.LBB17:
 179:C:/Users/stapi/OneDrive/Desktop/GD32VW553/V1_MQTT_OK/GD32VW55X_Wifi_BLE_SDK/GD32VW55x_RELEASE_V1.0.2/MSDK/lwip/lwip-2.1.2/src/core\altcp_tcp.c **** 
 180:C:/Users/stapi/OneDrive/Desktop/GD32VW553/V1_MQTT_OK/GD32VW55X_Wifi_BLE_SDK/GD32VW55x_RELEASE_V1.0.2/MSDK/lwip/lwip-2.1.2/src/core\altcp_tcp.c **** static void
 181:C:/Users/stapi/OneDrive/Desktop/GD32VW553/V1_MQTT_OK/GD32VW55X_Wifi_BLE_SDK/GD32VW55x_RELEASE_V1.0.2/MSDK/lwip/lwip-2.1.2/src/core\altcp_tcp.c **** altcp_tcp_setup(struct altcp_pcb *conn, struct tcp_pcb *tpcb)
 182:C:/Users/stapi/OneDrive/Desktop/GD32VW553/V1_MQTT_OK/GD32VW55X_Wifi_BLE_SDK/GD32VW55x_RELEASE_V1.0.2/MSDK/lwip/lwip-2.1.2/src/core\altcp_tcp.c **** {
 183:C:/Users/stapi/OneDrive/Desktop/GD32VW553/V1_MQTT_OK/GD32VW55X_Wifi_BLE_SDK/GD32VW55x_RELEASE_V1.0.2/MSDK/lwip/lwip-2.1.2/src/core\altcp_tcp.c ****   altcp_tcp_setup_callbacks(conn, tpcb);
 103              		.loc 1 183 3
 104 0024 CA85     		mv	a1,s2
 105 0026 97000000 		call	altcp_tcp_setup_callbacks
 105      E7800000 
 106              	.LVL11:
 184:C:/Users/stapi/OneDrive/Desktop/GD32VW553/V1_MQTT_OK/GD32VW55X_Wifi_BLE_SDK/GD32VW55x_RELEASE_V1.0.2/MSDK/lwip/lwip-2.1.2/src/core\altcp_tcp.c ****   conn->state = tpcb;
 107              		.loc 1 184 3
 185:C:/Users/stapi/OneDrive/Desktop/GD32VW553/V1_MQTT_OK/GD32VW55X_Wifi_BLE_SDK/GD32VW55x_RELEASE_V1.0.2/MSDK/lwip/lwip-2.1.2/src/core\altcp_tcp.c ****   conn->fns = &altcp_tcp_functions;
 108              		.loc 1 185 13 is_stmt 0
 109 002e B7070000 		lui	a5,%hi(.LANCHOR0)
 110 0032 93870700 		addi	a5,a5,%lo(.LANCHOR0)
 111 0036 9CC0     		sw	a5,0(s1)
 112              	.LBE17:
 113              	.LBE16:
  83:C:/Users/stapi/OneDrive/Desktop/GD32VW553/V1_MQTT_OK/GD32VW55X_Wifi_BLE_SDK/GD32VW55x_RELEASE_V1.0.2/MSDK/lwip/lwip-2.1.2/src/core\altcp_tcp.c ****   }
 114              		.loc 1 83 12
 115 0038 0844     		lw	a0,8(s0)
 116 003a 1C48     		lw	a5,16(s0)
 117              	.LBB19:
 118              	.LBB18:
 184:C:/Users/stapi/OneDrive/Desktop/GD32VW553/V1_MQTT_OK/GD32VW55X_Wifi_BLE_SDK/GD32VW55x_RELEASE_V1.0.2/MSDK/lwip/lwip-2.1.2/src/core\altcp_tcp.c ****   conn->state = tpcb;
 119              		.loc 1 184 15
 120 003c 23A62401 		sw	s2,12(s1)
 121              		.loc 1 185 3 is_stmt 1
 122              	.LVL12:
 123              	.LBE18:
 124              	.LBE19:
  83:C:/Users/stapi/OneDrive/Desktop/GD32VW553/V1_MQTT_OK/GD32VW55X_Wifi_BLE_SDK/GD32VW55x_RELEASE_V1.0.2/MSDK/lwip/lwip-2.1.2/src/core\altcp_tcp.c ****   }
 125              		.loc 1 83 5
  83:C:/Users/stapi/OneDrive/Desktop/GD32VW553/V1_MQTT_OK/GD32VW55X_Wifi_BLE_SDK/GD32VW55x_RELEASE_V1.0.2/MSDK/lwip/lwip-2.1.2/src/core\altcp_tcp.c ****   }
 126              		.loc 1 83 12 is_stmt 0
 127 0040 4E86     		mv	a2,s3
 128 0042 A685     		mv	a1,s1
 129 0044 8297     		jalr	a5
 130              	.LVL13:
 131 0046 AA87     		mv	a5,a0
 132              	.LVL14:
 133              	.L4:
 134              	.LBE15:
  86:C:/Users/stapi/OneDrive/Desktop/GD32VW553/V1_MQTT_OK/GD32VW55X_Wifi_BLE_SDK/GD32VW55x_RELEASE_V1.0.2/MSDK/lwip/lwip-2.1.2/src/core\altcp_tcp.c **** 
 135              		.loc 1 86 1
 136 0048 3E85     		mv	a0,a5
 137 004a 17030000 		tail	__riscv_restore_4
 137      67000300 
 138              		.cfi_restore 19
 139              		.cfi_restore 18
 140              		.cfi_restore 9
 141              		.cfi_restore 8
 142              		.cfi_restore 1
 143              		.cfi_def_cfa_offset 0
 144              	.LVL15:
 145              	.L5:
  85:C:/Users/stapi/OneDrive/Desktop/GD32VW553/V1_MQTT_OK/GD32VW55X_Wifi_BLE_SDK/GD32VW55x_RELEASE_V1.0.2/MSDK/lwip/lwip-2.1.2/src/core\altcp_tcp.c **** }
 146              		.loc 1 85 10
 147 0052 C157     		li	a5,-16
  86:C:/Users/stapi/OneDrive/Desktop/GD32VW553/V1_MQTT_OK/GD32VW55X_Wifi_BLE_SDK/GD32VW55x_RELEASE_V1.0.2/MSDK/lwip/lwip-2.1.2/src/core\altcp_tcp.c **** 
 148              		.loc 1 86 1
 149 0054 3E85     		mv	a0,a5
 150              	.LVL16:
 151 0056 8280     		ret
 152              		.cfi_endproc
 153              	.LFE4:
 155              		.section	.text.altcp_tcp_err,"ax",@progbits
 156              		.align	1
 158              	altcp_tcp_err:
 159              	.LFB9:
 146:C:/Users/stapi/OneDrive/Desktop/GD32VW553/V1_MQTT_OK/GD32VW55X_Wifi_BLE_SDK/GD32VW55x_RELEASE_V1.0.2/MSDK/lwip/lwip-2.1.2/src/core\altcp_tcp.c ****   struct altcp_pcb *conn = (struct altcp_pcb *)arg;
 160              		.loc 1 146 1 is_stmt 1
 161              		.cfi_startproc
 162              	.LVL17:
 147:C:/Users/stapi/OneDrive/Desktop/GD32VW553/V1_MQTT_OK/GD32VW55X_Wifi_BLE_SDK/GD32VW55x_RELEASE_V1.0.2/MSDK/lwip/lwip-2.1.2/src/core\altcp_tcp.c ****   if (conn) {
 163              		.loc 1 147 3
 148:C:/Users/stapi/OneDrive/Desktop/GD32VW553/V1_MQTT_OK/GD32VW55X_Wifi_BLE_SDK/GD32VW55x_RELEASE_V1.0.2/MSDK/lwip/lwip-2.1.2/src/core\altcp_tcp.c ****     conn->state = NULL; /* already freed */
 164              		.loc 1 148 3
 148:C:/Users/stapi/OneDrive/Desktop/GD32VW553/V1_MQTT_OK/GD32VW55X_Wifi_BLE_SDK/GD32VW55x_RELEASE_V1.0.2/MSDK/lwip/lwip-2.1.2/src/core\altcp_tcp.c ****     conn->state = NULL; /* already freed */
 165              		.loc 1 148 6 is_stmt 0
 166 0000 0DC5     		beq	a0,zero,.L22
 146:C:/Users/stapi/OneDrive/Desktop/GD32VW553/V1_MQTT_OK/GD32VW55X_Wifi_BLE_SDK/GD32VW55x_RELEASE_V1.0.2/MSDK/lwip/lwip-2.1.2/src/core\altcp_tcp.c ****   struct altcp_pcb *conn = (struct altcp_pcb *)arg;
 167              		.loc 1 146 1
 168 0002 17030000 		call	t0,__riscv_save_1
 168      E7020300 
 169              		.cfi_offset 8, -8
 170              		.cfi_offset 1, -4
 171              		.cfi_def_cfa_offset 16
 150:C:/Users/stapi/OneDrive/Desktop/GD32VW553/V1_MQTT_OK/GD32VW55X_Wifi_BLE_SDK/GD32VW55x_RELEASE_V1.0.2/MSDK/lwip/lwip-2.1.2/src/core\altcp_tcp.c ****       conn->err(conn->arg, err);
 172              		.loc 1 150 13
 173 000a 5C51     		lw	a5,36(a0)
 149:C:/Users/stapi/OneDrive/Desktop/GD32VW553/V1_MQTT_OK/GD32VW55X_Wifi_BLE_SDK/GD32VW55x_RELEASE_V1.0.2/MSDK/lwip/lwip-2.1.2/src/core\altcp_tcp.c ****     if (conn->err) {
 174              		.loc 1 149 17
 175 000c 23260500 		sw	zero,12(a0)
 176 0010 2A84     		mv	s0,a0
 149:C:/Users/stapi/OneDrive/Desktop/GD32VW553/V1_MQTT_OK/GD32VW55X_Wifi_BLE_SDK/GD32VW55x_RELEASE_V1.0.2/MSDK/lwip/lwip-2.1.2/src/core\altcp_tcp.c ****     if (conn->err) {
 177              		.loc 1 149 5 is_stmt 1
 150:C:/Users/stapi/OneDrive/Desktop/GD32VW553/V1_MQTT_OK/GD32VW55X_Wifi_BLE_SDK/GD32VW55x_RELEASE_V1.0.2/MSDK/lwip/lwip-2.1.2/src/core\altcp_tcp.c ****       conn->err(conn->arg, err);
 178              		.loc 1 150 5
 150:C:/Users/stapi/OneDrive/Desktop/GD32VW553/V1_MQTT_OK/GD32VW55X_Wifi_BLE_SDK/GD32VW55x_RELEASE_V1.0.2/MSDK/lwip/lwip-2.1.2/src/core\altcp_tcp.c ****       conn->err(conn->arg, err);
 179              		.loc 1 150 8 is_stmt 0
 180 0012 99C3     		beq	a5,zero,.L14
 151:C:/Users/stapi/OneDrive/Desktop/GD32VW553/V1_MQTT_OK/GD32VW55X_Wifi_BLE_SDK/GD32VW55x_RELEASE_V1.0.2/MSDK/lwip/lwip-2.1.2/src/core\altcp_tcp.c ****     }
 181              		.loc 1 151 7 is_stmt 1
 182 0014 0845     		lw	a0,8(a0)
 183              	.LVL18:
 184 0016 8297     		jalr	a5
 185              	.LVL19:
 186              	.L14:
 153:C:/Users/stapi/OneDrive/Desktop/GD32VW553/V1_MQTT_OK/GD32VW55X_Wifi_BLE_SDK/GD32VW55x_RELEASE_V1.0.2/MSDK/lwip/lwip-2.1.2/src/core\altcp_tcp.c ****   }
 187              		.loc 1 153 5
 188 0018 2285     		mv	a0,s0
 189 001a 97000000 		call	altcp_free
 189      E7800000 
 190              	.LVL20:
 155:C:/Users/stapi/OneDrive/Desktop/GD32VW553/V1_MQTT_OK/GD32VW55X_Wifi_BLE_SDK/GD32VW55x_RELEASE_V1.0.2/MSDK/lwip/lwip-2.1.2/src/core\altcp_tcp.c **** 
 191              		.loc 1 155 1 is_stmt 0
 192 0022 17030000 		tail	__riscv_restore_1
 192      67000300 
 193              		.cfi_restore 8
 194              		.cfi_restore 1
 195              		.cfi_def_cfa_offset 0
 196              	.LVL21:
 197              	.L22:
 198 002a 8280     		ret
 199              		.cfi_endproc
 200              	.LFE9:
 202              		.section	.rodata.altcp_tcp_recv.str1.4,"aMS",@progbits,1
 203              		.align	2
 204              	.LC0:
 205 0000 433A2F55 		.string	"C:/Users/stapi/OneDrive/Desktop/GD32VW553/V1_MQTT_OK/GD32VW55X_Wifi_BLE_SDK/GD32VW55x_REL
 205      73657273 
 205      2F737461 
 205      70692F4F 
 205      6E654472 
 206 008f 00       		.align	2
 207              	.LC1:
 208 0090 70636220 		.string	"pcb mismatch"
 208      6D69736D 
 208      61746368 
 208      00
 209 009d 000000   		.align	2
 210              	.LC2:
 211 00a0 41737365 		.string	"Assertion \"%s\" failed at line %d in %s\n"
 211      7274696F 
 211      6E202225 
 211      73222066 
 211      61696C65 
 212              		.align	2
 213              	.LC3:
 214 00c8 636F6E6E 		.string	"conn->inner_conn == NULL"
 214      2D3E696E 
 214      6E65725F 
 214      636F6E6E 
 214      203D3D20 
 215              		.section	.text.altcp_tcp_recv,"ax",@progbits
 216              		.align	1
 218              	altcp_tcp_recv:
 219              	.LFB6:
 103:C:/Users/stapi/OneDrive/Desktop/GD32VW553/V1_MQTT_OK/GD32VW55X_Wifi_BLE_SDK/GD32VW55x_RELEASE_V1.0.2/MSDK/lwip/lwip-2.1.2/src/core\altcp_tcp.c ****   struct altcp_pcb *conn = (struct altcp_pcb *)arg;
 220              		.loc 1 103 1 is_stmt 1
 221              		.cfi_startproc
 222              	.LVL22:
 223 0000 17030000 		call	t0,__riscv_save_1
 223      E7020300 
 224              		.cfi_offset 8, -8
 225              		.cfi_offset 1, -4
 226              		.cfi_def_cfa_offset 16
 104:C:/Users/stapi/OneDrive/Desktop/GD32VW553/V1_MQTT_OK/GD32VW55X_Wifi_BLE_SDK/GD32VW55x_RELEASE_V1.0.2/MSDK/lwip/lwip-2.1.2/src/core\altcp_tcp.c ****   if (conn) {
 227              		.loc 1 104 3
 103:C:/Users/stapi/OneDrive/Desktop/GD32VW553/V1_MQTT_OK/GD32VW55X_Wifi_BLE_SDK/GD32VW55x_RELEASE_V1.0.2/MSDK/lwip/lwip-2.1.2/src/core\altcp_tcp.c ****   struct altcp_pcb *conn = (struct altcp_pcb *)arg;
 228              		.loc 1 103 1 is_stmt 0
 229 0008 AA87     		mv	a5,a0
 230              	.LVL23:
 105:C:/Users/stapi/OneDrive/Desktop/GD32VW553/V1_MQTT_OK/GD32VW55X_Wifi_BLE_SDK/GD32VW55x_RELEASE_V1.0.2/MSDK/lwip/lwip-2.1.2/src/core\altcp_tcp.c ****     ALTCP_TCP_ASSERT_CONN_PCB(conn, tpcb);
 231              		.loc 1 105 3 is_stmt 1
 103:C:/Users/stapi/OneDrive/Desktop/GD32VW553/V1_MQTT_OK/GD32VW55X_Wifi_BLE_SDK/GD32VW55x_RELEASE_V1.0.2/MSDK/lwip/lwip-2.1.2/src/core\altcp_tcp.c ****   struct altcp_pcb *conn = (struct altcp_pcb *)arg;
 232              		.loc 1 103 1 is_stmt 0
 233 000a 3285     		mv	a0,a2
 234              	.LVL24:
 105:C:/Users/stapi/OneDrive/Desktop/GD32VW553/V1_MQTT_OK/GD32VW55X_Wifi_BLE_SDK/GD32VW55x_RELEASE_V1.0.2/MSDK/lwip/lwip-2.1.2/src/core\altcp_tcp.c ****     ALTCP_TCP_ASSERT_CONN_PCB(conn, tpcb);
 235              		.loc 1 105 6
 236 000c BDC7     		beq	a5,zero,.L26
 106:C:/Users/stapi/OneDrive/Desktop/GD32VW553/V1_MQTT_OK/GD32VW55X_Wifi_BLE_SDK/GD32VW55x_RELEASE_V1.0.2/MSDK/lwip/lwip-2.1.2/src/core\altcp_tcp.c ****     if (conn->recv) {
 237              		.loc 1 106 5 is_stmt 1
 106:C:/Users/stapi/OneDrive/Desktop/GD32VW553/V1_MQTT_OK/GD32VW55X_Wifi_BLE_SDK/GD32VW55x_RELEASE_V1.0.2/MSDK/lwip/lwip-2.1.2/src/core\altcp_tcp.c ****     if (conn->recv) {
 238              		.loc 1 106 5
 106:C:/Users/stapi/OneDrive/Desktop/GD32VW553/V1_MQTT_OK/GD32VW55X_Wifi_BLE_SDK/GD32VW55x_RELEASE_V1.0.2/MSDK/lwip/lwip-2.1.2/src/core\altcp_tcp.c ****     if (conn->recv) {
 239              		.loc 1 106 5
 240 000e D847     		lw	a4,12(a5)
 241 0010 6305B702 		beq	a4,a1,.L27
 106:C:/Users/stapi/OneDrive/Desktop/GD32VW553/V1_MQTT_OK/GD32VW55X_Wifi_BLE_SDK/GD32VW55x_RELEASE_V1.0.2/MSDK/lwip/lwip-2.1.2/src/core\altcp_tcp.c ****     if (conn->recv) {
 242              		.loc 1 106 5 discriminator 1
 106:C:/Users/stapi/OneDrive/Desktop/GD32VW553/V1_MQTT_OK/GD32VW55X_Wifi_BLE_SDK/GD32VW55x_RELEASE_V1.0.2/MSDK/lwip/lwip-2.1.2/src/core\altcp_tcp.c ****     if (conn->recv) {
 243              		.loc 1 106 5 discriminator 1
 244 0014 B7060000 		lui	a3,%hi(.LC0)
 245              	.LVL25:
 246 0018 B7050000 		lui	a1,%hi(.LC1)
 247              	.LVL26:
 248 001c 37050000 		lui	a0,%hi(.LC2)
 249 0020 93860600 		addi	a3,a3,%lo(.LC0)
 250 0024 1306A006 		li	a2,106
 251              	.LVL27:
 252 0028 93850500 		addi	a1,a1,%lo(.LC1)
 253 002c 13050500 		addi	a0,a0,%lo(.LC2)
 254 0030 97000000 		call	printf
 254      E7800000 
 255              	.LVL28:
 256              	.L28:
 106:C:/Users/stapi/OneDrive/Desktop/GD32VW553/V1_MQTT_OK/GD32VW55X_Wifi_BLE_SDK/GD32VW55x_RELEASE_V1.0.2/MSDK/lwip/lwip-2.1.2/src/core\altcp_tcp.c ****     if (conn->recv) {
 257              		.loc 1 106 5 discriminator 1
 106:C:/Users/stapi/OneDrive/Desktop/GD32VW553/V1_MQTT_OK/GD32VW55X_Wifi_BLE_SDK/GD32VW55x_RELEASE_V1.0.2/MSDK/lwip/lwip-2.1.2/src/core\altcp_tcp.c ****     if (conn->recv) {
 258              		.loc 1 106 5 discriminator 1
 106:C:/Users/stapi/OneDrive/Desktop/GD32VW553/V1_MQTT_OK/GD32VW55X_Wifi_BLE_SDK/GD32VW55x_RELEASE_V1.0.2/MSDK/lwip/lwip-2.1.2/src/core\altcp_tcp.c ****     if (conn->recv) {
 259              		.loc 1 106 5 discriminator 1
 260 0038 01A0     		j	.L28
 261              	.LVL29:
 262              	.L27:
 106:C:/Users/stapi/OneDrive/Desktop/GD32VW553/V1_MQTT_OK/GD32VW55X_Wifi_BLE_SDK/GD32VW55x_RELEASE_V1.0.2/MSDK/lwip/lwip-2.1.2/src/core\altcp_tcp.c ****     if (conn->recv) {
 263              		.loc 1 106 5 discriminator 2
 106:C:/Users/stapi/OneDrive/Desktop/GD32VW553/V1_MQTT_OK/GD32VW55X_Wifi_BLE_SDK/GD32VW55x_RELEASE_V1.0.2/MSDK/lwip/lwip-2.1.2/src/core\altcp_tcp.c ****     if (conn->recv) {
 264              		.loc 1 106 5 discriminator 2
 106:C:/Users/stapi/OneDrive/Desktop/GD32VW553/V1_MQTT_OK/GD32VW55X_Wifi_BLE_SDK/GD32VW55x_RELEASE_V1.0.2/MSDK/lwip/lwip-2.1.2/src/core\altcp_tcp.c ****     if (conn->recv) {
 265              		.loc 1 106 5 discriminator 2
 106:C:/Users/stapi/OneDrive/Desktop/GD32VW553/V1_MQTT_OK/GD32VW55X_Wifi_BLE_SDK/GD32VW55x_RELEASE_V1.0.2/MSDK/lwip/lwip-2.1.2/src/core\altcp_tcp.c ****     if (conn->recv) {
 266              		.loc 1 106 5 discriminator 2
 106:C:/Users/stapi/OneDrive/Desktop/GD32VW553/V1_MQTT_OK/GD32VW55X_Wifi_BLE_SDK/GD32VW55x_RELEASE_V1.0.2/MSDK/lwip/lwip-2.1.2/src/core\altcp_tcp.c ****     if (conn->recv) {
 267              		.loc 1 106 5 discriminator 2
 106:C:/Users/stapi/OneDrive/Desktop/GD32VW553/V1_MQTT_OK/GD32VW55X_Wifi_BLE_SDK/GD32VW55x_RELEASE_V1.0.2/MSDK/lwip/lwip-2.1.2/src/core\altcp_tcp.c ****     if (conn->recv) {
 268              		.loc 1 106 5 discriminator 2
 269 003a D843     		lw	a4,4(a5)
 270 003c 05C7     		beq	a4,zero,.L29
 106:C:/Users/stapi/OneDrive/Desktop/GD32VW553/V1_MQTT_OK/GD32VW55X_Wifi_BLE_SDK/GD32VW55x_RELEASE_V1.0.2/MSDK/lwip/lwip-2.1.2/src/core\altcp_tcp.c ****     if (conn->recv) {
 271              		.loc 1 106 5 discriminator 4
 106:C:/Users/stapi/OneDrive/Desktop/GD32VW553/V1_MQTT_OK/GD32VW55X_Wifi_BLE_SDK/GD32VW55x_RELEASE_V1.0.2/MSDK/lwip/lwip-2.1.2/src/core\altcp_tcp.c ****     if (conn->recv) {
 272              		.loc 1 106 5 discriminator 4
 273 003e B7060000 		lui	a3,%hi(.LC0)
 274              	.LVL30:
 275 0042 B7050000 		lui	a1,%hi(.LC3)
 276              	.LVL31:
 277 0046 37050000 		lui	a0,%hi(.LC2)
 278              	.LVL32:
 279 004a 93860600 		addi	a3,a3,%lo(.LC0)
 280 004e 1306A006 		li	a2,106
 281              	.LVL33:
 282 0052 93850500 		addi	a1,a1,%lo(.LC3)
 283 0056 13050500 		addi	a0,a0,%lo(.LC2)
 284 005a 97000000 		call	printf
 284      E7800000 
 285              	.LVL34:
 286              	.L30:
 106:C:/Users/stapi/OneDrive/Desktop/GD32VW553/V1_MQTT_OK/GD32VW55X_Wifi_BLE_SDK/GD32VW55x_RELEASE_V1.0.2/MSDK/lwip/lwip-2.1.2/src/core\altcp_tcp.c ****     if (conn->recv) {
 287              		.loc 1 106 5 discriminator 2
 106:C:/Users/stapi/OneDrive/Desktop/GD32VW553/V1_MQTT_OK/GD32VW55X_Wifi_BLE_SDK/GD32VW55x_RELEASE_V1.0.2/MSDK/lwip/lwip-2.1.2/src/core\altcp_tcp.c ****     if (conn->recv) {
 288              		.loc 1 106 5 discriminator 2
 106:C:/Users/stapi/OneDrive/Desktop/GD32VW553/V1_MQTT_OK/GD32VW55X_Wifi_BLE_SDK/GD32VW55x_RELEASE_V1.0.2/MSDK/lwip/lwip-2.1.2/src/core\altcp_tcp.c ****     if (conn->recv) {
 289              		.loc 1 106 5 discriminator 2
 290 0062 01A0     		j	.L30
 291              	.LVL35:
 292              	.L29:
 106:C:/Users/stapi/OneDrive/Desktop/GD32VW553/V1_MQTT_OK/GD32VW55X_Wifi_BLE_SDK/GD32VW55x_RELEASE_V1.0.2/MSDK/lwip/lwip-2.1.2/src/core\altcp_tcp.c ****     if (conn->recv) {
 293              		.loc 1 106 5 discriminator 5
 106:C:/Users/stapi/OneDrive/Desktop/GD32VW553/V1_MQTT_OK/GD32VW55X_Wifi_BLE_SDK/GD32VW55x_RELEASE_V1.0.2/MSDK/lwip/lwip-2.1.2/src/core\altcp_tcp.c ****     if (conn->recv) {
 294              		.loc 1 106 5 discriminator 5
 106:C:/Users/stapi/OneDrive/Desktop/GD32VW553/V1_MQTT_OK/GD32VW55X_Wifi_BLE_SDK/GD32VW55x_RELEASE_V1.0.2/MSDK/lwip/lwip-2.1.2/src/core\altcp_tcp.c ****     if (conn->recv) {
 295              		.loc 1 106 5 discriminator 5
 106:C:/Users/stapi/OneDrive/Desktop/GD32VW553/V1_MQTT_OK/GD32VW55X_Wifi_BLE_SDK/GD32VW55x_RELEASE_V1.0.2/MSDK/lwip/lwip-2.1.2/src/core\altcp_tcp.c ****     if (conn->recv) {
 296              		.loc 1 106 5 discriminator 5
 106:C:/Users/stapi/OneDrive/Desktop/GD32VW553/V1_MQTT_OK/GD32VW55X_Wifi_BLE_SDK/GD32VW55x_RELEASE_V1.0.2/MSDK/lwip/lwip-2.1.2/src/core\altcp_tcp.c ****     if (conn->recv) {
 297              		.loc 1 106 5 discriminator 5
 107:C:/Users/stapi/OneDrive/Desktop/GD32VW553/V1_MQTT_OK/GD32VW55X_Wifi_BLE_SDK/GD32VW55x_RELEASE_V1.0.2/MSDK/lwip/lwip-2.1.2/src/core\altcp_tcp.c ****       return conn->recv(conn->arg, conn, p, err);
 298              		.loc 1 107 5 discriminator 5
 107:C:/Users/stapi/OneDrive/Desktop/GD32VW553/V1_MQTT_OK/GD32VW55X_Wifi_BLE_SDK/GD32VW55x_RELEASE_V1.0.2/MSDK/lwip/lwip-2.1.2/src/core\altcp_tcp.c ****       return conn->recv(conn->arg, conn, p, err);
 299              		.loc 1 107 13 is_stmt 0 discriminator 5
 300 0064 984F     		lw	a4,24(a5)
 107:C:/Users/stapi/OneDrive/Desktop/GD32VW553/V1_MQTT_OK/GD32VW55X_Wifi_BLE_SDK/GD32VW55x_RELEASE_V1.0.2/MSDK/lwip/lwip-2.1.2/src/core\altcp_tcp.c ****       return conn->recv(conn->arg, conn, p, err);
 301              		.loc 1 107 8 discriminator 5
 302 0066 11CB     		beq	a4,zero,.L26
 108:C:/Users/stapi/OneDrive/Desktop/GD32VW553/V1_MQTT_OK/GD32VW55X_Wifi_BLE_SDK/GD32VW55x_RELEASE_V1.0.2/MSDK/lwip/lwip-2.1.2/src/core\altcp_tcp.c ****     }
 303              		.loc 1 108 7 is_stmt 1
 108:C:/Users/stapi/OneDrive/Desktop/GD32VW553/V1_MQTT_OK/GD32VW55X_Wifi_BLE_SDK/GD32VW55x_RELEASE_V1.0.2/MSDK/lwip/lwip-2.1.2/src/core\altcp_tcp.c ****     }
 304              		.loc 1 108 14 is_stmt 0
 305 0068 8847     		lw	a0,8(a5)
 306              	.LVL36:
 307 006a BE85     		mv	a1,a5
 308              	.LVL37:
 309 006c 0297     		jalr	a4
 310              	.LVL38:
 311 006e 2A84     		mv	s0,a0
 312              	.L31:
 116:C:/Users/stapi/OneDrive/Desktop/GD32VW553/V1_MQTT_OK/GD32VW55X_Wifi_BLE_SDK/GD32VW55x_RELEASE_V1.0.2/MSDK/lwip/lwip-2.1.2/src/core\altcp_tcp.c **** 
 313              		.loc 1 116 1
 314 0070 2285     		mv	a0,s0
 315 0072 17030000 		tail	__riscv_restore_1
 315      67000300 
 316              		.cfi_remember_state
 317              		.cfi_restore 8
 318              		.cfi_restore 1
 319              		.cfi_def_cfa_offset 0
 320              	.LVL39:
 321              	.L26:
 322              		.cfi_restore_state
 111:C:/Users/stapi/OneDrive/Desktop/GD32VW553/V1_MQTT_OK/GD32VW55X_Wifi_BLE_SDK/GD32VW55x_RELEASE_V1.0.2/MSDK/lwip/lwip-2.1.2/src/core\altcp_tcp.c ****     /* prevent memory leaks */
 323              		.loc 1 111 3 is_stmt 1
 115:C:/Users/stapi/OneDrive/Desktop/GD32VW553/V1_MQTT_OK/GD32VW55X_Wifi_BLE_SDK/GD32VW55x_RELEASE_V1.0.2/MSDK/lwip/lwip-2.1.2/src/core\altcp_tcp.c **** }
 324              		.loc 1 115 10 is_stmt 0
 325 007a 0144     		li	s0,0
 111:C:/Users/stapi/OneDrive/Desktop/GD32VW553/V1_MQTT_OK/GD32VW55X_Wifi_BLE_SDK/GD32VW55x_RELEASE_V1.0.2/MSDK/lwip/lwip-2.1.2/src/core\altcp_tcp.c ****     /* prevent memory leaks */
 326              		.loc 1 111 6
 327 007c 75D9     		beq	a0,zero,.L31
 113:C:/Users/stapi/OneDrive/Desktop/GD32VW553/V1_MQTT_OK/GD32VW55X_Wifi_BLE_SDK/GD32VW55x_RELEASE_V1.0.2/MSDK/lwip/lwip-2.1.2/src/core\altcp_tcp.c ****   }
 328              		.loc 1 113 5 is_stmt 1
 329 007e 97000000 		call	pbuf_free
 329      E7800000 
 330              	.LVL40:
 331 0086 EDB7     		j	.L31
 332              		.cfi_endproc
 333              	.LFE6:
 335              		.section	.text.altcp_tcp_get_tcp_addrinfo,"ax",@progbits
 336              		.align	1
 338              	altcp_tcp_get_tcp_addrinfo:
 339              	.LFB34:
 186:C:/Users/stapi/OneDrive/Desktop/GD32VW553/V1_MQTT_OK/GD32VW55X_Wifi_BLE_SDK/GD32VW55x_RELEASE_V1.0.2/MSDK/lwip/lwip-2.1.2/src/core\altcp_tcp.c **** }
 187:C:/Users/stapi/OneDrive/Desktop/GD32VW553/V1_MQTT_OK/GD32VW55X_Wifi_BLE_SDK/GD32VW55x_RELEASE_V1.0.2/MSDK/lwip/lwip-2.1.2/src/core\altcp_tcp.c **** 
 188:C:/Users/stapi/OneDrive/Desktop/GD32VW553/V1_MQTT_OK/GD32VW55X_Wifi_BLE_SDK/GD32VW55x_RELEASE_V1.0.2/MSDK/lwip/lwip-2.1.2/src/core\altcp_tcp.c **** struct altcp_pcb *
 189:C:/Users/stapi/OneDrive/Desktop/GD32VW553/V1_MQTT_OK/GD32VW55X_Wifi_BLE_SDK/GD32VW55x_RELEASE_V1.0.2/MSDK/lwip/lwip-2.1.2/src/core\altcp_tcp.c **** altcp_tcp_new_ip_type(u8_t ip_type)
 190:C:/Users/stapi/OneDrive/Desktop/GD32VW553/V1_MQTT_OK/GD32VW55X_Wifi_BLE_SDK/GD32VW55x_RELEASE_V1.0.2/MSDK/lwip/lwip-2.1.2/src/core\altcp_tcp.c **** {
 191:C:/Users/stapi/OneDrive/Desktop/GD32VW553/V1_MQTT_OK/GD32VW55X_Wifi_BLE_SDK/GD32VW55x_RELEASE_V1.0.2/MSDK/lwip/lwip-2.1.2/src/core\altcp_tcp.c ****   /* Allocate the tcp pcb first to invoke the priority handling code
 192:C:/Users/stapi/OneDrive/Desktop/GD32VW553/V1_MQTT_OK/GD32VW55X_Wifi_BLE_SDK/GD32VW55x_RELEASE_V1.0.2/MSDK/lwip/lwip-2.1.2/src/core\altcp_tcp.c ****      if we're out of pcbs */
 193:C:/Users/stapi/OneDrive/Desktop/GD32VW553/V1_MQTT_OK/GD32VW55X_Wifi_BLE_SDK/GD32VW55x_RELEASE_V1.0.2/MSDK/lwip/lwip-2.1.2/src/core\altcp_tcp.c ****   struct tcp_pcb *tpcb = tcp_new_ip_type(ip_type);
 194:C:/Users/stapi/OneDrive/Desktop/GD32VW553/V1_MQTT_OK/GD32VW55X_Wifi_BLE_SDK/GD32VW55x_RELEASE_V1.0.2/MSDK/lwip/lwip-2.1.2/src/core\altcp_tcp.c ****   if (tpcb != NULL) {
 195:C:/Users/stapi/OneDrive/Desktop/GD32VW553/V1_MQTT_OK/GD32VW55X_Wifi_BLE_SDK/GD32VW55x_RELEASE_V1.0.2/MSDK/lwip/lwip-2.1.2/src/core\altcp_tcp.c ****     struct altcp_pcb *ret = altcp_alloc();
 196:C:/Users/stapi/OneDrive/Desktop/GD32VW553/V1_MQTT_OK/GD32VW55X_Wifi_BLE_SDK/GD32VW55x_RELEASE_V1.0.2/MSDK/lwip/lwip-2.1.2/src/core\altcp_tcp.c ****     if (ret != NULL) {
 197:C:/Users/stapi/OneDrive/Desktop/GD32VW553/V1_MQTT_OK/GD32VW55X_Wifi_BLE_SDK/GD32VW55x_RELEASE_V1.0.2/MSDK/lwip/lwip-2.1.2/src/core\altcp_tcp.c ****       altcp_tcp_setup(ret, tpcb);
 198:C:/Users/stapi/OneDrive/Desktop/GD32VW553/V1_MQTT_OK/GD32VW55X_Wifi_BLE_SDK/GD32VW55x_RELEASE_V1.0.2/MSDK/lwip/lwip-2.1.2/src/core\altcp_tcp.c ****       return ret;
 199:C:/Users/stapi/OneDrive/Desktop/GD32VW553/V1_MQTT_OK/GD32VW55X_Wifi_BLE_SDK/GD32VW55x_RELEASE_V1.0.2/MSDK/lwip/lwip-2.1.2/src/core\altcp_tcp.c ****     } else {
 200:C:/Users/stapi/OneDrive/Desktop/GD32VW553/V1_MQTT_OK/GD32VW55X_Wifi_BLE_SDK/GD32VW55x_RELEASE_V1.0.2/MSDK/lwip/lwip-2.1.2/src/core\altcp_tcp.c ****       /* altcp_pcb allocation failed -> free the tcp_pcb too */
 201:C:/Users/stapi/OneDrive/Desktop/GD32VW553/V1_MQTT_OK/GD32VW55X_Wifi_BLE_SDK/GD32VW55x_RELEASE_V1.0.2/MSDK/lwip/lwip-2.1.2/src/core\altcp_tcp.c ****       tcp_close(tpcb);
 202:C:/Users/stapi/OneDrive/Desktop/GD32VW553/V1_MQTT_OK/GD32VW55X_Wifi_BLE_SDK/GD32VW55x_RELEASE_V1.0.2/MSDK/lwip/lwip-2.1.2/src/core\altcp_tcp.c ****     }
 203:C:/Users/stapi/OneDrive/Desktop/GD32VW553/V1_MQTT_OK/GD32VW55X_Wifi_BLE_SDK/GD32VW55x_RELEASE_V1.0.2/MSDK/lwip/lwip-2.1.2/src/core\altcp_tcp.c ****   }
 204:C:/Users/stapi/OneDrive/Desktop/GD32VW553/V1_MQTT_OK/GD32VW55X_Wifi_BLE_SDK/GD32VW55x_RELEASE_V1.0.2/MSDK/lwip/lwip-2.1.2/src/core\altcp_tcp.c ****   return NULL;
 205:C:/Users/stapi/OneDrive/Desktop/GD32VW553/V1_MQTT_OK/GD32VW55X_Wifi_BLE_SDK/GD32VW55x_RELEASE_V1.0.2/MSDK/lwip/lwip-2.1.2/src/core\altcp_tcp.c **** }
 206:C:/Users/stapi/OneDrive/Desktop/GD32VW553/V1_MQTT_OK/GD32VW55X_Wifi_BLE_SDK/GD32VW55x_RELEASE_V1.0.2/MSDK/lwip/lwip-2.1.2/src/core\altcp_tcp.c **** 
 207:C:/Users/stapi/OneDrive/Desktop/GD32VW553/V1_MQTT_OK/GD32VW55X_Wifi_BLE_SDK/GD32VW55x_RELEASE_V1.0.2/MSDK/lwip/lwip-2.1.2/src/core\altcp_tcp.c **** /** altcp_tcp allocator function fitting to @ref altcp_allocator_t / @ref altcp_new.
 208:C:/Users/stapi/OneDrive/Desktop/GD32VW553/V1_MQTT_OK/GD32VW55X_Wifi_BLE_SDK/GD32VW55x_RELEASE_V1.0.2/MSDK/lwip/lwip-2.1.2/src/core\altcp_tcp.c **** *
 209:C:/Users/stapi/OneDrive/Desktop/GD32VW553/V1_MQTT_OK/GD32VW55X_Wifi_BLE_SDK/GD32VW55x_RELEASE_V1.0.2/MSDK/lwip/lwip-2.1.2/src/core\altcp_tcp.c **** * arg pointer is not used for TCP.
 210:C:/Users/stapi/OneDrive/Desktop/GD32VW553/V1_MQTT_OK/GD32VW55X_Wifi_BLE_SDK/GD32VW55x_RELEASE_V1.0.2/MSDK/lwip/lwip-2.1.2/src/core\altcp_tcp.c **** */
 211:C:/Users/stapi/OneDrive/Desktop/GD32VW553/V1_MQTT_OK/GD32VW55X_Wifi_BLE_SDK/GD32VW55x_RELEASE_V1.0.2/MSDK/lwip/lwip-2.1.2/src/core\altcp_tcp.c **** struct altcp_pcb *
 212:C:/Users/stapi/OneDrive/Desktop/GD32VW553/V1_MQTT_OK/GD32VW55X_Wifi_BLE_SDK/GD32VW55x_RELEASE_V1.0.2/MSDK/lwip/lwip-2.1.2/src/core\altcp_tcp.c **** altcp_tcp_alloc(void *arg, u8_t ip_type)
 213:C:/Users/stapi/OneDrive/Desktop/GD32VW553/V1_MQTT_OK/GD32VW55X_Wifi_BLE_SDK/GD32VW55x_RELEASE_V1.0.2/MSDK/lwip/lwip-2.1.2/src/core\altcp_tcp.c **** {
 214:C:/Users/stapi/OneDrive/Desktop/GD32VW553/V1_MQTT_OK/GD32VW55X_Wifi_BLE_SDK/GD32VW55x_RELEASE_V1.0.2/MSDK/lwip/lwip-2.1.2/src/core\altcp_tcp.c ****   LWIP_UNUSED_ARG(arg);
 215:C:/Users/stapi/OneDrive/Desktop/GD32VW553/V1_MQTT_OK/GD32VW55X_Wifi_BLE_SDK/GD32VW55x_RELEASE_V1.0.2/MSDK/lwip/lwip-2.1.2/src/core\altcp_tcp.c ****   return altcp_tcp_new_ip_type(ip_type);
 216:C:/Users/stapi/OneDrive/Desktop/GD32VW553/V1_MQTT_OK/GD32VW55X_Wifi_BLE_SDK/GD32VW55x_RELEASE_V1.0.2/MSDK/lwip/lwip-2.1.2/src/core\altcp_tcp.c **** }
 217:C:/Users/stapi/OneDrive/Desktop/GD32VW553/V1_MQTT_OK/GD32VW55X_Wifi_BLE_SDK/GD32VW55x_RELEASE_V1.0.2/MSDK/lwip/lwip-2.1.2/src/core\altcp_tcp.c **** 
 218:C:/Users/stapi/OneDrive/Desktop/GD32VW553/V1_MQTT_OK/GD32VW55X_Wifi_BLE_SDK/GD32VW55x_RELEASE_V1.0.2/MSDK/lwip/lwip-2.1.2/src/core\altcp_tcp.c **** struct altcp_pcb *
 219:C:/Users/stapi/OneDrive/Desktop/GD32VW553/V1_MQTT_OK/GD32VW55X_Wifi_BLE_SDK/GD32VW55x_RELEASE_V1.0.2/MSDK/lwip/lwip-2.1.2/src/core\altcp_tcp.c **** altcp_tcp_wrap(struct tcp_pcb *tpcb)
 220:C:/Users/stapi/OneDrive/Desktop/GD32VW553/V1_MQTT_OK/GD32VW55X_Wifi_BLE_SDK/GD32VW55x_RELEASE_V1.0.2/MSDK/lwip/lwip-2.1.2/src/core\altcp_tcp.c **** {
 221:C:/Users/stapi/OneDrive/Desktop/GD32VW553/V1_MQTT_OK/GD32VW55X_Wifi_BLE_SDK/GD32VW55x_RELEASE_V1.0.2/MSDK/lwip/lwip-2.1.2/src/core\altcp_tcp.c ****   if (tpcb != NULL) {
 222:C:/Users/stapi/OneDrive/Desktop/GD32VW553/V1_MQTT_OK/GD32VW55X_Wifi_BLE_SDK/GD32VW55x_RELEASE_V1.0.2/MSDK/lwip/lwip-2.1.2/src/core\altcp_tcp.c ****     struct altcp_pcb *ret = altcp_alloc();
 223:C:/Users/stapi/OneDrive/Desktop/GD32VW553/V1_MQTT_OK/GD32VW55X_Wifi_BLE_SDK/GD32VW55x_RELEASE_V1.0.2/MSDK/lwip/lwip-2.1.2/src/core\altcp_tcp.c ****     if (ret != NULL) {
 224:C:/Users/stapi/OneDrive/Desktop/GD32VW553/V1_MQTT_OK/GD32VW55X_Wifi_BLE_SDK/GD32VW55x_RELEASE_V1.0.2/MSDK/lwip/lwip-2.1.2/src/core\altcp_tcp.c ****       altcp_tcp_setup(ret, tpcb);
 225:C:/Users/stapi/OneDrive/Desktop/GD32VW553/V1_MQTT_OK/GD32VW55X_Wifi_BLE_SDK/GD32VW55x_RELEASE_V1.0.2/MSDK/lwip/lwip-2.1.2/src/core\altcp_tcp.c ****       return ret;
 226:C:/Users/stapi/OneDrive/Desktop/GD32VW553/V1_MQTT_OK/GD32VW55X_Wifi_BLE_SDK/GD32VW55x_RELEASE_V1.0.2/MSDK/lwip/lwip-2.1.2/src/core\altcp_tcp.c ****     }
 227:C:/Users/stapi/OneDrive/Desktop/GD32VW553/V1_MQTT_OK/GD32VW55X_Wifi_BLE_SDK/GD32VW55x_RELEASE_V1.0.2/MSDK/lwip/lwip-2.1.2/src/core\altcp_tcp.c ****   }
 228:C:/Users/stapi/OneDrive/Desktop/GD32VW553/V1_MQTT_OK/GD32VW55X_Wifi_BLE_SDK/GD32VW55x_RELEASE_V1.0.2/MSDK/lwip/lwip-2.1.2/src/core\altcp_tcp.c ****   return NULL;
 229:C:/Users/stapi/OneDrive/Desktop/GD32VW553/V1_MQTT_OK/GD32VW55X_Wifi_BLE_SDK/GD32VW55x_RELEASE_V1.0.2/MSDK/lwip/lwip-2.1.2/src/core\altcp_tcp.c **** }
 230:C:/Users/stapi/OneDrive/Desktop/GD32VW553/V1_MQTT_OK/GD32VW55X_Wifi_BLE_SDK/GD32VW55x_RELEASE_V1.0.2/MSDK/lwip/lwip-2.1.2/src/core\altcp_tcp.c **** 
 231:C:/Users/stapi/OneDrive/Desktop/GD32VW553/V1_MQTT_OK/GD32VW55X_Wifi_BLE_SDK/GD32VW55x_RELEASE_V1.0.2/MSDK/lwip/lwip-2.1.2/src/core\altcp_tcp.c **** 
 232:C:/Users/stapi/OneDrive/Desktop/GD32VW553/V1_MQTT_OK/GD32VW55X_Wifi_BLE_SDK/GD32VW55x_RELEASE_V1.0.2/MSDK/lwip/lwip-2.1.2/src/core\altcp_tcp.c **** /* "virtual" functions calling into tcp */
 233:C:/Users/stapi/OneDrive/Desktop/GD32VW553/V1_MQTT_OK/GD32VW55X_Wifi_BLE_SDK/GD32VW55x_RELEASE_V1.0.2/MSDK/lwip/lwip-2.1.2/src/core\altcp_tcp.c **** static void
 234:C:/Users/stapi/OneDrive/Desktop/GD32VW553/V1_MQTT_OK/GD32VW55X_Wifi_BLE_SDK/GD32VW55x_RELEASE_V1.0.2/MSDK/lwip/lwip-2.1.2/src/core\altcp_tcp.c **** altcp_tcp_set_poll(struct altcp_pcb *conn, u8_t interval)
 235:C:/Users/stapi/OneDrive/Desktop/GD32VW553/V1_MQTT_OK/GD32VW55X_Wifi_BLE_SDK/GD32VW55x_RELEASE_V1.0.2/MSDK/lwip/lwip-2.1.2/src/core\altcp_tcp.c **** {
 236:C:/Users/stapi/OneDrive/Desktop/GD32VW553/V1_MQTT_OK/GD32VW55X_Wifi_BLE_SDK/GD32VW55x_RELEASE_V1.0.2/MSDK/lwip/lwip-2.1.2/src/core\altcp_tcp.c ****   if (conn != NULL) {
 237:C:/Users/stapi/OneDrive/Desktop/GD32VW553/V1_MQTT_OK/GD32VW55X_Wifi_BLE_SDK/GD32VW55x_RELEASE_V1.0.2/MSDK/lwip/lwip-2.1.2/src/core\altcp_tcp.c ****     struct tcp_pcb *pcb = (struct tcp_pcb *)conn->state;
 238:C:/Users/stapi/OneDrive/Desktop/GD32VW553/V1_MQTT_OK/GD32VW55X_Wifi_BLE_SDK/GD32VW55x_RELEASE_V1.0.2/MSDK/lwip/lwip-2.1.2/src/core\altcp_tcp.c ****     ALTCP_TCP_ASSERT_CONN(conn);
 239:C:/Users/stapi/OneDrive/Desktop/GD32VW553/V1_MQTT_OK/GD32VW55X_Wifi_BLE_SDK/GD32VW55x_RELEASE_V1.0.2/MSDK/lwip/lwip-2.1.2/src/core\altcp_tcp.c ****     tcp_poll(pcb, altcp_tcp_poll, interval);
 240:C:/Users/stapi/OneDrive/Desktop/GD32VW553/V1_MQTT_OK/GD32VW55X_Wifi_BLE_SDK/GD32VW55x_RELEASE_V1.0.2/MSDK/lwip/lwip-2.1.2/src/core\altcp_tcp.c ****   }
 241:C:/Users/stapi/OneDrive/Desktop/GD32VW553/V1_MQTT_OK/GD32VW55X_Wifi_BLE_SDK/GD32VW55x_RELEASE_V1.0.2/MSDK/lwip/lwip-2.1.2/src/core\altcp_tcp.c **** }
 242:C:/Users/stapi/OneDrive/Desktop/GD32VW553/V1_MQTT_OK/GD32VW55X_Wifi_BLE_SDK/GD32VW55x_RELEASE_V1.0.2/MSDK/lwip/lwip-2.1.2/src/core\altcp_tcp.c **** 
 243:C:/Users/stapi/OneDrive/Desktop/GD32VW553/V1_MQTT_OK/GD32VW55X_Wifi_BLE_SDK/GD32VW55x_RELEASE_V1.0.2/MSDK/lwip/lwip-2.1.2/src/core\altcp_tcp.c **** static void
 244:C:/Users/stapi/OneDrive/Desktop/GD32VW553/V1_MQTT_OK/GD32VW55X_Wifi_BLE_SDK/GD32VW55x_RELEASE_V1.0.2/MSDK/lwip/lwip-2.1.2/src/core\altcp_tcp.c **** altcp_tcp_recved(struct altcp_pcb *conn, u16_t len)
 245:C:/Users/stapi/OneDrive/Desktop/GD32VW553/V1_MQTT_OK/GD32VW55X_Wifi_BLE_SDK/GD32VW55x_RELEASE_V1.0.2/MSDK/lwip/lwip-2.1.2/src/core\altcp_tcp.c **** {
 246:C:/Users/stapi/OneDrive/Desktop/GD32VW553/V1_MQTT_OK/GD32VW55X_Wifi_BLE_SDK/GD32VW55x_RELEASE_V1.0.2/MSDK/lwip/lwip-2.1.2/src/core\altcp_tcp.c ****   if (conn != NULL) {
 247:C:/Users/stapi/OneDrive/Desktop/GD32VW553/V1_MQTT_OK/GD32VW55X_Wifi_BLE_SDK/GD32VW55x_RELEASE_V1.0.2/MSDK/lwip/lwip-2.1.2/src/core\altcp_tcp.c ****     struct tcp_pcb *pcb = (struct tcp_pcb *)conn->state;
 248:C:/Users/stapi/OneDrive/Desktop/GD32VW553/V1_MQTT_OK/GD32VW55X_Wifi_BLE_SDK/GD32VW55x_RELEASE_V1.0.2/MSDK/lwip/lwip-2.1.2/src/core\altcp_tcp.c ****     ALTCP_TCP_ASSERT_CONN(conn);
 249:C:/Users/stapi/OneDrive/Desktop/GD32VW553/V1_MQTT_OK/GD32VW55X_Wifi_BLE_SDK/GD32VW55x_RELEASE_V1.0.2/MSDK/lwip/lwip-2.1.2/src/core\altcp_tcp.c ****     tcp_recved(pcb, len);
 250:C:/Users/stapi/OneDrive/Desktop/GD32VW553/V1_MQTT_OK/GD32VW55X_Wifi_BLE_SDK/GD32VW55x_RELEASE_V1.0.2/MSDK/lwip/lwip-2.1.2/src/core\altcp_tcp.c ****   }
 251:C:/Users/stapi/OneDrive/Desktop/GD32VW553/V1_MQTT_OK/GD32VW55X_Wifi_BLE_SDK/GD32VW55x_RELEASE_V1.0.2/MSDK/lwip/lwip-2.1.2/src/core\altcp_tcp.c **** }
 252:C:/Users/stapi/OneDrive/Desktop/GD32VW553/V1_MQTT_OK/GD32VW55X_Wifi_BLE_SDK/GD32VW55x_RELEASE_V1.0.2/MSDK/lwip/lwip-2.1.2/src/core\altcp_tcp.c **** 
 253:C:/Users/stapi/OneDrive/Desktop/GD32VW553/V1_MQTT_OK/GD32VW55X_Wifi_BLE_SDK/GD32VW55x_RELEASE_V1.0.2/MSDK/lwip/lwip-2.1.2/src/core\altcp_tcp.c **** static err_t
 254:C:/Users/stapi/OneDrive/Desktop/GD32VW553/V1_MQTT_OK/GD32VW55X_Wifi_BLE_SDK/GD32VW55x_RELEASE_V1.0.2/MSDK/lwip/lwip-2.1.2/src/core\altcp_tcp.c **** altcp_tcp_bind(struct altcp_pcb *conn, const ip_addr_t *ipaddr, u16_t port)
 255:C:/Users/stapi/OneDrive/Desktop/GD32VW553/V1_MQTT_OK/GD32VW55X_Wifi_BLE_SDK/GD32VW55x_RELEASE_V1.0.2/MSDK/lwip/lwip-2.1.2/src/core\altcp_tcp.c **** {
 256:C:/Users/stapi/OneDrive/Desktop/GD32VW553/V1_MQTT_OK/GD32VW55X_Wifi_BLE_SDK/GD32VW55x_RELEASE_V1.0.2/MSDK/lwip/lwip-2.1.2/src/core\altcp_tcp.c ****   struct tcp_pcb *pcb;
 257:C:/Users/stapi/OneDrive/Desktop/GD32VW553/V1_MQTT_OK/GD32VW55X_Wifi_BLE_SDK/GD32VW55x_RELEASE_V1.0.2/MSDK/lwip/lwip-2.1.2/src/core\altcp_tcp.c ****   if (conn == NULL) {
 258:C:/Users/stapi/OneDrive/Desktop/GD32VW553/V1_MQTT_OK/GD32VW55X_Wifi_BLE_SDK/GD32VW55x_RELEASE_V1.0.2/MSDK/lwip/lwip-2.1.2/src/core\altcp_tcp.c ****     return ERR_VAL;
 259:C:/Users/stapi/OneDrive/Desktop/GD32VW553/V1_MQTT_OK/GD32VW55X_Wifi_BLE_SDK/GD32VW55x_RELEASE_V1.0.2/MSDK/lwip/lwip-2.1.2/src/core\altcp_tcp.c ****   }
 260:C:/Users/stapi/OneDrive/Desktop/GD32VW553/V1_MQTT_OK/GD32VW55X_Wifi_BLE_SDK/GD32VW55x_RELEASE_V1.0.2/MSDK/lwip/lwip-2.1.2/src/core\altcp_tcp.c ****   ALTCP_TCP_ASSERT_CONN(conn);
 261:C:/Users/stapi/OneDrive/Desktop/GD32VW553/V1_MQTT_OK/GD32VW55X_Wifi_BLE_SDK/GD32VW55x_RELEASE_V1.0.2/MSDK/lwip/lwip-2.1.2/src/core\altcp_tcp.c ****   pcb = (struct tcp_pcb *)conn->state;
 262:C:/Users/stapi/OneDrive/Desktop/GD32VW553/V1_MQTT_OK/GD32VW55X_Wifi_BLE_SDK/GD32VW55x_RELEASE_V1.0.2/MSDK/lwip/lwip-2.1.2/src/core\altcp_tcp.c ****   return tcp_bind(pcb, ipaddr, port);
 263:C:/Users/stapi/OneDrive/Desktop/GD32VW553/V1_MQTT_OK/GD32VW55X_Wifi_BLE_SDK/GD32VW55x_RELEASE_V1.0.2/MSDK/lwip/lwip-2.1.2/src/core\altcp_tcp.c **** }
 264:C:/Users/stapi/OneDrive/Desktop/GD32VW553/V1_MQTT_OK/GD32VW55X_Wifi_BLE_SDK/GD32VW55x_RELEASE_V1.0.2/MSDK/lwip/lwip-2.1.2/src/core\altcp_tcp.c **** 
 265:C:/Users/stapi/OneDrive/Desktop/GD32VW553/V1_MQTT_OK/GD32VW55X_Wifi_BLE_SDK/GD32VW55x_RELEASE_V1.0.2/MSDK/lwip/lwip-2.1.2/src/core\altcp_tcp.c **** static err_t
 266:C:/Users/stapi/OneDrive/Desktop/GD32VW553/V1_MQTT_OK/GD32VW55X_Wifi_BLE_SDK/GD32VW55x_RELEASE_V1.0.2/MSDK/lwip/lwip-2.1.2/src/core\altcp_tcp.c **** altcp_tcp_connect(struct altcp_pcb *conn, const ip_addr_t *ipaddr, u16_t port, altcp_connected_fn c
 267:C:/Users/stapi/OneDrive/Desktop/GD32VW553/V1_MQTT_OK/GD32VW55X_Wifi_BLE_SDK/GD32VW55x_RELEASE_V1.0.2/MSDK/lwip/lwip-2.1.2/src/core\altcp_tcp.c **** {
 268:C:/Users/stapi/OneDrive/Desktop/GD32VW553/V1_MQTT_OK/GD32VW55X_Wifi_BLE_SDK/GD32VW55x_RELEASE_V1.0.2/MSDK/lwip/lwip-2.1.2/src/core\altcp_tcp.c ****   struct tcp_pcb *pcb;
 269:C:/Users/stapi/OneDrive/Desktop/GD32VW553/V1_MQTT_OK/GD32VW55X_Wifi_BLE_SDK/GD32VW55x_RELEASE_V1.0.2/MSDK/lwip/lwip-2.1.2/src/core\altcp_tcp.c ****   if (conn == NULL) {
 270:C:/Users/stapi/OneDrive/Desktop/GD32VW553/V1_MQTT_OK/GD32VW55X_Wifi_BLE_SDK/GD32VW55x_RELEASE_V1.0.2/MSDK/lwip/lwip-2.1.2/src/core\altcp_tcp.c ****     return ERR_VAL;
 271:C:/Users/stapi/OneDrive/Desktop/GD32VW553/V1_MQTT_OK/GD32VW55X_Wifi_BLE_SDK/GD32VW55x_RELEASE_V1.0.2/MSDK/lwip/lwip-2.1.2/src/core\altcp_tcp.c ****   }
 272:C:/Users/stapi/OneDrive/Desktop/GD32VW553/V1_MQTT_OK/GD32VW55X_Wifi_BLE_SDK/GD32VW55x_RELEASE_V1.0.2/MSDK/lwip/lwip-2.1.2/src/core\altcp_tcp.c ****   ALTCP_TCP_ASSERT_CONN(conn);
 273:C:/Users/stapi/OneDrive/Desktop/GD32VW553/V1_MQTT_OK/GD32VW55X_Wifi_BLE_SDK/GD32VW55x_RELEASE_V1.0.2/MSDK/lwip/lwip-2.1.2/src/core\altcp_tcp.c ****   conn->connected = connected;
 274:C:/Users/stapi/OneDrive/Desktop/GD32VW553/V1_MQTT_OK/GD32VW55X_Wifi_BLE_SDK/GD32VW55x_RELEASE_V1.0.2/MSDK/lwip/lwip-2.1.2/src/core\altcp_tcp.c ****   pcb = (struct tcp_pcb *)conn->state;
 275:C:/Users/stapi/OneDrive/Desktop/GD32VW553/V1_MQTT_OK/GD32VW55X_Wifi_BLE_SDK/GD32VW55x_RELEASE_V1.0.2/MSDK/lwip/lwip-2.1.2/src/core\altcp_tcp.c ****   return tcp_connect(pcb, ipaddr, port, altcp_tcp_connected);
 276:C:/Users/stapi/OneDrive/Desktop/GD32VW553/V1_MQTT_OK/GD32VW55X_Wifi_BLE_SDK/GD32VW55x_RELEASE_V1.0.2/MSDK/lwip/lwip-2.1.2/src/core\altcp_tcp.c **** }
 277:C:/Users/stapi/OneDrive/Desktop/GD32VW553/V1_MQTT_OK/GD32VW55X_Wifi_BLE_SDK/GD32VW55x_RELEASE_V1.0.2/MSDK/lwip/lwip-2.1.2/src/core\altcp_tcp.c **** 
 278:C:/Users/stapi/OneDrive/Desktop/GD32VW553/V1_MQTT_OK/GD32VW55X_Wifi_BLE_SDK/GD32VW55x_RELEASE_V1.0.2/MSDK/lwip/lwip-2.1.2/src/core\altcp_tcp.c **** static struct altcp_pcb *
 279:C:/Users/stapi/OneDrive/Desktop/GD32VW553/V1_MQTT_OK/GD32VW55X_Wifi_BLE_SDK/GD32VW55x_RELEASE_V1.0.2/MSDK/lwip/lwip-2.1.2/src/core\altcp_tcp.c **** altcp_tcp_listen(struct altcp_pcb *conn, u8_t backlog, err_t *err)
 280:C:/Users/stapi/OneDrive/Desktop/GD32VW553/V1_MQTT_OK/GD32VW55X_Wifi_BLE_SDK/GD32VW55x_RELEASE_V1.0.2/MSDK/lwip/lwip-2.1.2/src/core\altcp_tcp.c **** {
 281:C:/Users/stapi/OneDrive/Desktop/GD32VW553/V1_MQTT_OK/GD32VW55X_Wifi_BLE_SDK/GD32VW55x_RELEASE_V1.0.2/MSDK/lwip/lwip-2.1.2/src/core\altcp_tcp.c ****   struct tcp_pcb *pcb;
 282:C:/Users/stapi/OneDrive/Desktop/GD32VW553/V1_MQTT_OK/GD32VW55X_Wifi_BLE_SDK/GD32VW55x_RELEASE_V1.0.2/MSDK/lwip/lwip-2.1.2/src/core\altcp_tcp.c ****   struct tcp_pcb *lpcb;
 283:C:/Users/stapi/OneDrive/Desktop/GD32VW553/V1_MQTT_OK/GD32VW55X_Wifi_BLE_SDK/GD32VW55x_RELEASE_V1.0.2/MSDK/lwip/lwip-2.1.2/src/core\altcp_tcp.c ****   if (conn == NULL) {
 284:C:/Users/stapi/OneDrive/Desktop/GD32VW553/V1_MQTT_OK/GD32VW55X_Wifi_BLE_SDK/GD32VW55x_RELEASE_V1.0.2/MSDK/lwip/lwip-2.1.2/src/core\altcp_tcp.c ****     return NULL;
 285:C:/Users/stapi/OneDrive/Desktop/GD32VW553/V1_MQTT_OK/GD32VW55X_Wifi_BLE_SDK/GD32VW55x_RELEASE_V1.0.2/MSDK/lwip/lwip-2.1.2/src/core\altcp_tcp.c ****   }
 286:C:/Users/stapi/OneDrive/Desktop/GD32VW553/V1_MQTT_OK/GD32VW55X_Wifi_BLE_SDK/GD32VW55x_RELEASE_V1.0.2/MSDK/lwip/lwip-2.1.2/src/core\altcp_tcp.c ****   ALTCP_TCP_ASSERT_CONN(conn);
 287:C:/Users/stapi/OneDrive/Desktop/GD32VW553/V1_MQTT_OK/GD32VW55X_Wifi_BLE_SDK/GD32VW55x_RELEASE_V1.0.2/MSDK/lwip/lwip-2.1.2/src/core\altcp_tcp.c ****   pcb = (struct tcp_pcb *)conn->state;
 288:C:/Users/stapi/OneDrive/Desktop/GD32VW553/V1_MQTT_OK/GD32VW55X_Wifi_BLE_SDK/GD32VW55x_RELEASE_V1.0.2/MSDK/lwip/lwip-2.1.2/src/core\altcp_tcp.c ****   lpcb = tcp_listen_with_backlog_and_err(pcb, backlog, err);
 289:C:/Users/stapi/OneDrive/Desktop/GD32VW553/V1_MQTT_OK/GD32VW55X_Wifi_BLE_SDK/GD32VW55x_RELEASE_V1.0.2/MSDK/lwip/lwip-2.1.2/src/core\altcp_tcp.c ****   if (lpcb != NULL) {
 290:C:/Users/stapi/OneDrive/Desktop/GD32VW553/V1_MQTT_OK/GD32VW55X_Wifi_BLE_SDK/GD32VW55x_RELEASE_V1.0.2/MSDK/lwip/lwip-2.1.2/src/core\altcp_tcp.c ****     conn->state = lpcb;
 291:C:/Users/stapi/OneDrive/Desktop/GD32VW553/V1_MQTT_OK/GD32VW55X_Wifi_BLE_SDK/GD32VW55x_RELEASE_V1.0.2/MSDK/lwip/lwip-2.1.2/src/core\altcp_tcp.c ****     tcp_accept(lpcb, altcp_tcp_accept);
 292:C:/Users/stapi/OneDrive/Desktop/GD32VW553/V1_MQTT_OK/GD32VW55X_Wifi_BLE_SDK/GD32VW55x_RELEASE_V1.0.2/MSDK/lwip/lwip-2.1.2/src/core\altcp_tcp.c ****     return conn;
 293:C:/Users/stapi/OneDrive/Desktop/GD32VW553/V1_MQTT_OK/GD32VW55X_Wifi_BLE_SDK/GD32VW55x_RELEASE_V1.0.2/MSDK/lwip/lwip-2.1.2/src/core\altcp_tcp.c ****   }
 294:C:/Users/stapi/OneDrive/Desktop/GD32VW553/V1_MQTT_OK/GD32VW55X_Wifi_BLE_SDK/GD32VW55x_RELEASE_V1.0.2/MSDK/lwip/lwip-2.1.2/src/core\altcp_tcp.c ****   return NULL;
 295:C:/Users/stapi/OneDrive/Desktop/GD32VW553/V1_MQTT_OK/GD32VW55X_Wifi_BLE_SDK/GD32VW55x_RELEASE_V1.0.2/MSDK/lwip/lwip-2.1.2/src/core\altcp_tcp.c **** }
 296:C:/Users/stapi/OneDrive/Desktop/GD32VW553/V1_MQTT_OK/GD32VW55X_Wifi_BLE_SDK/GD32VW55x_RELEASE_V1.0.2/MSDK/lwip/lwip-2.1.2/src/core\altcp_tcp.c **** 
 297:C:/Users/stapi/OneDrive/Desktop/GD32VW553/V1_MQTT_OK/GD32VW55X_Wifi_BLE_SDK/GD32VW55x_RELEASE_V1.0.2/MSDK/lwip/lwip-2.1.2/src/core\altcp_tcp.c **** static void
 298:C:/Users/stapi/OneDrive/Desktop/GD32VW553/V1_MQTT_OK/GD32VW55X_Wifi_BLE_SDK/GD32VW55x_RELEASE_V1.0.2/MSDK/lwip/lwip-2.1.2/src/core\altcp_tcp.c **** altcp_tcp_abort(struct altcp_pcb *conn)
 299:C:/Users/stapi/OneDrive/Desktop/GD32VW553/V1_MQTT_OK/GD32VW55X_Wifi_BLE_SDK/GD32VW55x_RELEASE_V1.0.2/MSDK/lwip/lwip-2.1.2/src/core\altcp_tcp.c **** {
 300:C:/Users/stapi/OneDrive/Desktop/GD32VW553/V1_MQTT_OK/GD32VW55X_Wifi_BLE_SDK/GD32VW55x_RELEASE_V1.0.2/MSDK/lwip/lwip-2.1.2/src/core\altcp_tcp.c ****   if (conn != NULL) {
 301:C:/Users/stapi/OneDrive/Desktop/GD32VW553/V1_MQTT_OK/GD32VW55X_Wifi_BLE_SDK/GD32VW55x_RELEASE_V1.0.2/MSDK/lwip/lwip-2.1.2/src/core\altcp_tcp.c ****     struct tcp_pcb *pcb = (struct tcp_pcb *)conn->state;
 302:C:/Users/stapi/OneDrive/Desktop/GD32VW553/V1_MQTT_OK/GD32VW55X_Wifi_BLE_SDK/GD32VW55x_RELEASE_V1.0.2/MSDK/lwip/lwip-2.1.2/src/core\altcp_tcp.c ****     ALTCP_TCP_ASSERT_CONN(conn);
 303:C:/Users/stapi/OneDrive/Desktop/GD32VW553/V1_MQTT_OK/GD32VW55X_Wifi_BLE_SDK/GD32VW55x_RELEASE_V1.0.2/MSDK/lwip/lwip-2.1.2/src/core\altcp_tcp.c ****     if (pcb) {
 304:C:/Users/stapi/OneDrive/Desktop/GD32VW553/V1_MQTT_OK/GD32VW55X_Wifi_BLE_SDK/GD32VW55x_RELEASE_V1.0.2/MSDK/lwip/lwip-2.1.2/src/core\altcp_tcp.c ****       tcp_abort(pcb);
 305:C:/Users/stapi/OneDrive/Desktop/GD32VW553/V1_MQTT_OK/GD32VW55X_Wifi_BLE_SDK/GD32VW55x_RELEASE_V1.0.2/MSDK/lwip/lwip-2.1.2/src/core\altcp_tcp.c ****     }
 306:C:/Users/stapi/OneDrive/Desktop/GD32VW553/V1_MQTT_OK/GD32VW55X_Wifi_BLE_SDK/GD32VW55x_RELEASE_V1.0.2/MSDK/lwip/lwip-2.1.2/src/core\altcp_tcp.c ****   }
 307:C:/Users/stapi/OneDrive/Desktop/GD32VW553/V1_MQTT_OK/GD32VW55X_Wifi_BLE_SDK/GD32VW55x_RELEASE_V1.0.2/MSDK/lwip/lwip-2.1.2/src/core\altcp_tcp.c **** }
 308:C:/Users/stapi/OneDrive/Desktop/GD32VW553/V1_MQTT_OK/GD32VW55X_Wifi_BLE_SDK/GD32VW55x_RELEASE_V1.0.2/MSDK/lwip/lwip-2.1.2/src/core\altcp_tcp.c **** 
 309:C:/Users/stapi/OneDrive/Desktop/GD32VW553/V1_MQTT_OK/GD32VW55X_Wifi_BLE_SDK/GD32VW55x_RELEASE_V1.0.2/MSDK/lwip/lwip-2.1.2/src/core\altcp_tcp.c **** static err_t
 310:C:/Users/stapi/OneDrive/Desktop/GD32VW553/V1_MQTT_OK/GD32VW55X_Wifi_BLE_SDK/GD32VW55x_RELEASE_V1.0.2/MSDK/lwip/lwip-2.1.2/src/core\altcp_tcp.c **** altcp_tcp_close(struct altcp_pcb *conn)
 311:C:/Users/stapi/OneDrive/Desktop/GD32VW553/V1_MQTT_OK/GD32VW55X_Wifi_BLE_SDK/GD32VW55x_RELEASE_V1.0.2/MSDK/lwip/lwip-2.1.2/src/core\altcp_tcp.c **** {
 312:C:/Users/stapi/OneDrive/Desktop/GD32VW553/V1_MQTT_OK/GD32VW55X_Wifi_BLE_SDK/GD32VW55x_RELEASE_V1.0.2/MSDK/lwip/lwip-2.1.2/src/core\altcp_tcp.c ****   struct tcp_pcb *pcb;
 313:C:/Users/stapi/OneDrive/Desktop/GD32VW553/V1_MQTT_OK/GD32VW55X_Wifi_BLE_SDK/GD32VW55x_RELEASE_V1.0.2/MSDK/lwip/lwip-2.1.2/src/core\altcp_tcp.c ****   if (conn == NULL) {
 314:C:/Users/stapi/OneDrive/Desktop/GD32VW553/V1_MQTT_OK/GD32VW55X_Wifi_BLE_SDK/GD32VW55x_RELEASE_V1.0.2/MSDK/lwip/lwip-2.1.2/src/core\altcp_tcp.c ****     return ERR_VAL;
 315:C:/Users/stapi/OneDrive/Desktop/GD32VW553/V1_MQTT_OK/GD32VW55X_Wifi_BLE_SDK/GD32VW55x_RELEASE_V1.0.2/MSDK/lwip/lwip-2.1.2/src/core\altcp_tcp.c ****   }
 316:C:/Users/stapi/OneDrive/Desktop/GD32VW553/V1_MQTT_OK/GD32VW55X_Wifi_BLE_SDK/GD32VW55x_RELEASE_V1.0.2/MSDK/lwip/lwip-2.1.2/src/core\altcp_tcp.c ****   ALTCP_TCP_ASSERT_CONN(conn);
 317:C:/Users/stapi/OneDrive/Desktop/GD32VW553/V1_MQTT_OK/GD32VW55X_Wifi_BLE_SDK/GD32VW55x_RELEASE_V1.0.2/MSDK/lwip/lwip-2.1.2/src/core\altcp_tcp.c ****   pcb = (struct tcp_pcb *)conn->state;
 318:C:/Users/stapi/OneDrive/Desktop/GD32VW553/V1_MQTT_OK/GD32VW55X_Wifi_BLE_SDK/GD32VW55x_RELEASE_V1.0.2/MSDK/lwip/lwip-2.1.2/src/core\altcp_tcp.c ****   if (pcb) {
 319:C:/Users/stapi/OneDrive/Desktop/GD32VW553/V1_MQTT_OK/GD32VW55X_Wifi_BLE_SDK/GD32VW55x_RELEASE_V1.0.2/MSDK/lwip/lwip-2.1.2/src/core\altcp_tcp.c ****     err_t err;
 320:C:/Users/stapi/OneDrive/Desktop/GD32VW553/V1_MQTT_OK/GD32VW55X_Wifi_BLE_SDK/GD32VW55x_RELEASE_V1.0.2/MSDK/lwip/lwip-2.1.2/src/core\altcp_tcp.c ****     tcp_poll_fn oldpoll = pcb->poll;
 321:C:/Users/stapi/OneDrive/Desktop/GD32VW553/V1_MQTT_OK/GD32VW55X_Wifi_BLE_SDK/GD32VW55x_RELEASE_V1.0.2/MSDK/lwip/lwip-2.1.2/src/core\altcp_tcp.c ****     altcp_tcp_remove_callbacks(pcb);
 322:C:/Users/stapi/OneDrive/Desktop/GD32VW553/V1_MQTT_OK/GD32VW55X_Wifi_BLE_SDK/GD32VW55x_RELEASE_V1.0.2/MSDK/lwip/lwip-2.1.2/src/core\altcp_tcp.c ****     err = tcp_close(pcb);
 323:C:/Users/stapi/OneDrive/Desktop/GD32VW553/V1_MQTT_OK/GD32VW55X_Wifi_BLE_SDK/GD32VW55x_RELEASE_V1.0.2/MSDK/lwip/lwip-2.1.2/src/core\altcp_tcp.c ****     if (err != ERR_OK) {
 324:C:/Users/stapi/OneDrive/Desktop/GD32VW553/V1_MQTT_OK/GD32VW55X_Wifi_BLE_SDK/GD32VW55x_RELEASE_V1.0.2/MSDK/lwip/lwip-2.1.2/src/core\altcp_tcp.c ****       /* not closed, set up all callbacks again */
 325:C:/Users/stapi/OneDrive/Desktop/GD32VW553/V1_MQTT_OK/GD32VW55X_Wifi_BLE_SDK/GD32VW55x_RELEASE_V1.0.2/MSDK/lwip/lwip-2.1.2/src/core\altcp_tcp.c ****       altcp_tcp_setup_callbacks(conn, pcb);
 326:C:/Users/stapi/OneDrive/Desktop/GD32VW553/V1_MQTT_OK/GD32VW55X_Wifi_BLE_SDK/GD32VW55x_RELEASE_V1.0.2/MSDK/lwip/lwip-2.1.2/src/core\altcp_tcp.c ****       /* poll callback is not included in the above */
 327:C:/Users/stapi/OneDrive/Desktop/GD32VW553/V1_MQTT_OK/GD32VW55X_Wifi_BLE_SDK/GD32VW55x_RELEASE_V1.0.2/MSDK/lwip/lwip-2.1.2/src/core\altcp_tcp.c ****       tcp_poll(pcb, oldpoll, pcb->pollinterval);
 328:C:/Users/stapi/OneDrive/Desktop/GD32VW553/V1_MQTT_OK/GD32VW55X_Wifi_BLE_SDK/GD32VW55x_RELEASE_V1.0.2/MSDK/lwip/lwip-2.1.2/src/core\altcp_tcp.c ****       return err;
 329:C:/Users/stapi/OneDrive/Desktop/GD32VW553/V1_MQTT_OK/GD32VW55X_Wifi_BLE_SDK/GD32VW55x_RELEASE_V1.0.2/MSDK/lwip/lwip-2.1.2/src/core\altcp_tcp.c ****     }
 330:C:/Users/stapi/OneDrive/Desktop/GD32VW553/V1_MQTT_OK/GD32VW55X_Wifi_BLE_SDK/GD32VW55x_RELEASE_V1.0.2/MSDK/lwip/lwip-2.1.2/src/core\altcp_tcp.c ****     conn->state = NULL; /* unsafe to reference pcb after tcp_close(). */
 331:C:/Users/stapi/OneDrive/Desktop/GD32VW553/V1_MQTT_OK/GD32VW55X_Wifi_BLE_SDK/GD32VW55x_RELEASE_V1.0.2/MSDK/lwip/lwip-2.1.2/src/core\altcp_tcp.c ****   }
 332:C:/Users/stapi/OneDrive/Desktop/GD32VW553/V1_MQTT_OK/GD32VW55X_Wifi_BLE_SDK/GD32VW55x_RELEASE_V1.0.2/MSDK/lwip/lwip-2.1.2/src/core\altcp_tcp.c ****   altcp_free(conn);
 333:C:/Users/stapi/OneDrive/Desktop/GD32VW553/V1_MQTT_OK/GD32VW55X_Wifi_BLE_SDK/GD32VW55x_RELEASE_V1.0.2/MSDK/lwip/lwip-2.1.2/src/core\altcp_tcp.c ****   return ERR_OK;
 334:C:/Users/stapi/OneDrive/Desktop/GD32VW553/V1_MQTT_OK/GD32VW55X_Wifi_BLE_SDK/GD32VW55x_RELEASE_V1.0.2/MSDK/lwip/lwip-2.1.2/src/core\altcp_tcp.c **** }
 335:C:/Users/stapi/OneDrive/Desktop/GD32VW553/V1_MQTT_OK/GD32VW55X_Wifi_BLE_SDK/GD32VW55x_RELEASE_V1.0.2/MSDK/lwip/lwip-2.1.2/src/core\altcp_tcp.c **** 
 336:C:/Users/stapi/OneDrive/Desktop/GD32VW553/V1_MQTT_OK/GD32VW55X_Wifi_BLE_SDK/GD32VW55x_RELEASE_V1.0.2/MSDK/lwip/lwip-2.1.2/src/core\altcp_tcp.c **** static err_t
 337:C:/Users/stapi/OneDrive/Desktop/GD32VW553/V1_MQTT_OK/GD32VW55X_Wifi_BLE_SDK/GD32VW55x_RELEASE_V1.0.2/MSDK/lwip/lwip-2.1.2/src/core\altcp_tcp.c **** altcp_tcp_shutdown(struct altcp_pcb *conn, int shut_rx, int shut_tx)
 338:C:/Users/stapi/OneDrive/Desktop/GD32VW553/V1_MQTT_OK/GD32VW55X_Wifi_BLE_SDK/GD32VW55x_RELEASE_V1.0.2/MSDK/lwip/lwip-2.1.2/src/core\altcp_tcp.c **** {
 339:C:/Users/stapi/OneDrive/Desktop/GD32VW553/V1_MQTT_OK/GD32VW55X_Wifi_BLE_SDK/GD32VW55x_RELEASE_V1.0.2/MSDK/lwip/lwip-2.1.2/src/core\altcp_tcp.c ****   struct tcp_pcb *pcb;
 340:C:/Users/stapi/OneDrive/Desktop/GD32VW553/V1_MQTT_OK/GD32VW55X_Wifi_BLE_SDK/GD32VW55x_RELEASE_V1.0.2/MSDK/lwip/lwip-2.1.2/src/core\altcp_tcp.c ****   if (conn == NULL) {
 341:C:/Users/stapi/OneDrive/Desktop/GD32VW553/V1_MQTT_OK/GD32VW55X_Wifi_BLE_SDK/GD32VW55x_RELEASE_V1.0.2/MSDK/lwip/lwip-2.1.2/src/core\altcp_tcp.c ****     return ERR_VAL;
 342:C:/Users/stapi/OneDrive/Desktop/GD32VW553/V1_MQTT_OK/GD32VW55X_Wifi_BLE_SDK/GD32VW55x_RELEASE_V1.0.2/MSDK/lwip/lwip-2.1.2/src/core\altcp_tcp.c ****   }
 343:C:/Users/stapi/OneDrive/Desktop/GD32VW553/V1_MQTT_OK/GD32VW55X_Wifi_BLE_SDK/GD32VW55x_RELEASE_V1.0.2/MSDK/lwip/lwip-2.1.2/src/core\altcp_tcp.c ****   ALTCP_TCP_ASSERT_CONN(conn);
 344:C:/Users/stapi/OneDrive/Desktop/GD32VW553/V1_MQTT_OK/GD32VW55X_Wifi_BLE_SDK/GD32VW55x_RELEASE_V1.0.2/MSDK/lwip/lwip-2.1.2/src/core\altcp_tcp.c ****   pcb = (struct tcp_pcb *)conn->state;
 345:C:/Users/stapi/OneDrive/Desktop/GD32VW553/V1_MQTT_OK/GD32VW55X_Wifi_BLE_SDK/GD32VW55x_RELEASE_V1.0.2/MSDK/lwip/lwip-2.1.2/src/core\altcp_tcp.c ****   return tcp_shutdown(pcb, shut_rx, shut_tx);
 346:C:/Users/stapi/OneDrive/Desktop/GD32VW553/V1_MQTT_OK/GD32VW55X_Wifi_BLE_SDK/GD32VW55x_RELEASE_V1.0.2/MSDK/lwip/lwip-2.1.2/src/core\altcp_tcp.c **** }
 347:C:/Users/stapi/OneDrive/Desktop/GD32VW553/V1_MQTT_OK/GD32VW55X_Wifi_BLE_SDK/GD32VW55x_RELEASE_V1.0.2/MSDK/lwip/lwip-2.1.2/src/core\altcp_tcp.c **** 
 348:C:/Users/stapi/OneDrive/Desktop/GD32VW553/V1_MQTT_OK/GD32VW55X_Wifi_BLE_SDK/GD32VW55x_RELEASE_V1.0.2/MSDK/lwip/lwip-2.1.2/src/core\altcp_tcp.c **** static err_t
 349:C:/Users/stapi/OneDrive/Desktop/GD32VW553/V1_MQTT_OK/GD32VW55X_Wifi_BLE_SDK/GD32VW55x_RELEASE_V1.0.2/MSDK/lwip/lwip-2.1.2/src/core\altcp_tcp.c **** altcp_tcp_write(struct altcp_pcb *conn, const void *dataptr, u16_t len, u8_t apiflags)
 350:C:/Users/stapi/OneDrive/Desktop/GD32VW553/V1_MQTT_OK/GD32VW55X_Wifi_BLE_SDK/GD32VW55x_RELEASE_V1.0.2/MSDK/lwip/lwip-2.1.2/src/core\altcp_tcp.c **** {
 351:C:/Users/stapi/OneDrive/Desktop/GD32VW553/V1_MQTT_OK/GD32VW55X_Wifi_BLE_SDK/GD32VW55x_RELEASE_V1.0.2/MSDK/lwip/lwip-2.1.2/src/core\altcp_tcp.c ****   struct tcp_pcb *pcb;
 352:C:/Users/stapi/OneDrive/Desktop/GD32VW553/V1_MQTT_OK/GD32VW55X_Wifi_BLE_SDK/GD32VW55x_RELEASE_V1.0.2/MSDK/lwip/lwip-2.1.2/src/core\altcp_tcp.c ****   if (conn == NULL) {
 353:C:/Users/stapi/OneDrive/Desktop/GD32VW553/V1_MQTT_OK/GD32VW55X_Wifi_BLE_SDK/GD32VW55x_RELEASE_V1.0.2/MSDK/lwip/lwip-2.1.2/src/core\altcp_tcp.c ****     return ERR_VAL;
 354:C:/Users/stapi/OneDrive/Desktop/GD32VW553/V1_MQTT_OK/GD32VW55X_Wifi_BLE_SDK/GD32VW55x_RELEASE_V1.0.2/MSDK/lwip/lwip-2.1.2/src/core\altcp_tcp.c ****   }
 355:C:/Users/stapi/OneDrive/Desktop/GD32VW553/V1_MQTT_OK/GD32VW55X_Wifi_BLE_SDK/GD32VW55x_RELEASE_V1.0.2/MSDK/lwip/lwip-2.1.2/src/core\altcp_tcp.c ****   ALTCP_TCP_ASSERT_CONN(conn);
 356:C:/Users/stapi/OneDrive/Desktop/GD32VW553/V1_MQTT_OK/GD32VW55X_Wifi_BLE_SDK/GD32VW55x_RELEASE_V1.0.2/MSDK/lwip/lwip-2.1.2/src/core\altcp_tcp.c ****   pcb = (struct tcp_pcb *)conn->state;
 357:C:/Users/stapi/OneDrive/Desktop/GD32VW553/V1_MQTT_OK/GD32VW55X_Wifi_BLE_SDK/GD32VW55x_RELEASE_V1.0.2/MSDK/lwip/lwip-2.1.2/src/core\altcp_tcp.c ****   return tcp_write(pcb, dataptr, len, apiflags);
 358:C:/Users/stapi/OneDrive/Desktop/GD32VW553/V1_MQTT_OK/GD32VW55X_Wifi_BLE_SDK/GD32VW55x_RELEASE_V1.0.2/MSDK/lwip/lwip-2.1.2/src/core\altcp_tcp.c **** }
 359:C:/Users/stapi/OneDrive/Desktop/GD32VW553/V1_MQTT_OK/GD32VW55X_Wifi_BLE_SDK/GD32VW55x_RELEASE_V1.0.2/MSDK/lwip/lwip-2.1.2/src/core\altcp_tcp.c **** 
 360:C:/Users/stapi/OneDrive/Desktop/GD32VW553/V1_MQTT_OK/GD32VW55X_Wifi_BLE_SDK/GD32VW55x_RELEASE_V1.0.2/MSDK/lwip/lwip-2.1.2/src/core\altcp_tcp.c **** static err_t
 361:C:/Users/stapi/OneDrive/Desktop/GD32VW553/V1_MQTT_OK/GD32VW55X_Wifi_BLE_SDK/GD32VW55x_RELEASE_V1.0.2/MSDK/lwip/lwip-2.1.2/src/core\altcp_tcp.c **** altcp_tcp_output(struct altcp_pcb *conn)
 362:C:/Users/stapi/OneDrive/Desktop/GD32VW553/V1_MQTT_OK/GD32VW55X_Wifi_BLE_SDK/GD32VW55x_RELEASE_V1.0.2/MSDK/lwip/lwip-2.1.2/src/core\altcp_tcp.c **** {
 363:C:/Users/stapi/OneDrive/Desktop/GD32VW553/V1_MQTT_OK/GD32VW55X_Wifi_BLE_SDK/GD32VW55x_RELEASE_V1.0.2/MSDK/lwip/lwip-2.1.2/src/core\altcp_tcp.c ****   struct tcp_pcb *pcb;
 364:C:/Users/stapi/OneDrive/Desktop/GD32VW553/V1_MQTT_OK/GD32VW55X_Wifi_BLE_SDK/GD32VW55x_RELEASE_V1.0.2/MSDK/lwip/lwip-2.1.2/src/core\altcp_tcp.c ****   if (conn == NULL) {
 365:C:/Users/stapi/OneDrive/Desktop/GD32VW553/V1_MQTT_OK/GD32VW55X_Wifi_BLE_SDK/GD32VW55x_RELEASE_V1.0.2/MSDK/lwip/lwip-2.1.2/src/core\altcp_tcp.c ****     return ERR_VAL;
 366:C:/Users/stapi/OneDrive/Desktop/GD32VW553/V1_MQTT_OK/GD32VW55X_Wifi_BLE_SDK/GD32VW55x_RELEASE_V1.0.2/MSDK/lwip/lwip-2.1.2/src/core\altcp_tcp.c ****   }
 367:C:/Users/stapi/OneDrive/Desktop/GD32VW553/V1_MQTT_OK/GD32VW55X_Wifi_BLE_SDK/GD32VW55x_RELEASE_V1.0.2/MSDK/lwip/lwip-2.1.2/src/core\altcp_tcp.c ****   ALTCP_TCP_ASSERT_CONN(conn);
 368:C:/Users/stapi/OneDrive/Desktop/GD32VW553/V1_MQTT_OK/GD32VW55X_Wifi_BLE_SDK/GD32VW55x_RELEASE_V1.0.2/MSDK/lwip/lwip-2.1.2/src/core\altcp_tcp.c ****   pcb = (struct tcp_pcb *)conn->state;
 369:C:/Users/stapi/OneDrive/Desktop/GD32VW553/V1_MQTT_OK/GD32VW55X_Wifi_BLE_SDK/GD32VW55x_RELEASE_V1.0.2/MSDK/lwip/lwip-2.1.2/src/core\altcp_tcp.c ****   return tcp_output(pcb);
 370:C:/Users/stapi/OneDrive/Desktop/GD32VW553/V1_MQTT_OK/GD32VW55X_Wifi_BLE_SDK/GD32VW55x_RELEASE_V1.0.2/MSDK/lwip/lwip-2.1.2/src/core\altcp_tcp.c **** }
 371:C:/Users/stapi/OneDrive/Desktop/GD32VW553/V1_MQTT_OK/GD32VW55X_Wifi_BLE_SDK/GD32VW55x_RELEASE_V1.0.2/MSDK/lwip/lwip-2.1.2/src/core\altcp_tcp.c **** 
 372:C:/Users/stapi/OneDrive/Desktop/GD32VW553/V1_MQTT_OK/GD32VW55X_Wifi_BLE_SDK/GD32VW55x_RELEASE_V1.0.2/MSDK/lwip/lwip-2.1.2/src/core\altcp_tcp.c **** static u16_t
 373:C:/Users/stapi/OneDrive/Desktop/GD32VW553/V1_MQTT_OK/GD32VW55X_Wifi_BLE_SDK/GD32VW55x_RELEASE_V1.0.2/MSDK/lwip/lwip-2.1.2/src/core\altcp_tcp.c **** altcp_tcp_mss(struct altcp_pcb *conn)
 374:C:/Users/stapi/OneDrive/Desktop/GD32VW553/V1_MQTT_OK/GD32VW55X_Wifi_BLE_SDK/GD32VW55x_RELEASE_V1.0.2/MSDK/lwip/lwip-2.1.2/src/core\altcp_tcp.c **** {
 375:C:/Users/stapi/OneDrive/Desktop/GD32VW553/V1_MQTT_OK/GD32VW55X_Wifi_BLE_SDK/GD32VW55x_RELEASE_V1.0.2/MSDK/lwip/lwip-2.1.2/src/core\altcp_tcp.c ****   struct tcp_pcb *pcb;
 376:C:/Users/stapi/OneDrive/Desktop/GD32VW553/V1_MQTT_OK/GD32VW55X_Wifi_BLE_SDK/GD32VW55x_RELEASE_V1.0.2/MSDK/lwip/lwip-2.1.2/src/core\altcp_tcp.c ****   if (conn == NULL) {
 377:C:/Users/stapi/OneDrive/Desktop/GD32VW553/V1_MQTT_OK/GD32VW55X_Wifi_BLE_SDK/GD32VW55x_RELEASE_V1.0.2/MSDK/lwip/lwip-2.1.2/src/core\altcp_tcp.c ****     return 0;
 378:C:/Users/stapi/OneDrive/Desktop/GD32VW553/V1_MQTT_OK/GD32VW55X_Wifi_BLE_SDK/GD32VW55x_RELEASE_V1.0.2/MSDK/lwip/lwip-2.1.2/src/core\altcp_tcp.c ****   }
 379:C:/Users/stapi/OneDrive/Desktop/GD32VW553/V1_MQTT_OK/GD32VW55X_Wifi_BLE_SDK/GD32VW55x_RELEASE_V1.0.2/MSDK/lwip/lwip-2.1.2/src/core\altcp_tcp.c ****   ALTCP_TCP_ASSERT_CONN(conn);
 380:C:/Users/stapi/OneDrive/Desktop/GD32VW553/V1_MQTT_OK/GD32VW55X_Wifi_BLE_SDK/GD32VW55x_RELEASE_V1.0.2/MSDK/lwip/lwip-2.1.2/src/core\altcp_tcp.c ****   pcb = (struct tcp_pcb *)conn->state;
 381:C:/Users/stapi/OneDrive/Desktop/GD32VW553/V1_MQTT_OK/GD32VW55X_Wifi_BLE_SDK/GD32VW55x_RELEASE_V1.0.2/MSDK/lwip/lwip-2.1.2/src/core\altcp_tcp.c ****   return tcp_mss(pcb);
 382:C:/Users/stapi/OneDrive/Desktop/GD32VW553/V1_MQTT_OK/GD32VW55X_Wifi_BLE_SDK/GD32VW55x_RELEASE_V1.0.2/MSDK/lwip/lwip-2.1.2/src/core\altcp_tcp.c **** }
 383:C:/Users/stapi/OneDrive/Desktop/GD32VW553/V1_MQTT_OK/GD32VW55X_Wifi_BLE_SDK/GD32VW55x_RELEASE_V1.0.2/MSDK/lwip/lwip-2.1.2/src/core\altcp_tcp.c **** 
 384:C:/Users/stapi/OneDrive/Desktop/GD32VW553/V1_MQTT_OK/GD32VW55X_Wifi_BLE_SDK/GD32VW55x_RELEASE_V1.0.2/MSDK/lwip/lwip-2.1.2/src/core\altcp_tcp.c **** static u16_t
 385:C:/Users/stapi/OneDrive/Desktop/GD32VW553/V1_MQTT_OK/GD32VW55X_Wifi_BLE_SDK/GD32VW55x_RELEASE_V1.0.2/MSDK/lwip/lwip-2.1.2/src/core\altcp_tcp.c **** altcp_tcp_sndbuf(struct altcp_pcb *conn)
 386:C:/Users/stapi/OneDrive/Desktop/GD32VW553/V1_MQTT_OK/GD32VW55X_Wifi_BLE_SDK/GD32VW55x_RELEASE_V1.0.2/MSDK/lwip/lwip-2.1.2/src/core\altcp_tcp.c **** {
 387:C:/Users/stapi/OneDrive/Desktop/GD32VW553/V1_MQTT_OK/GD32VW55X_Wifi_BLE_SDK/GD32VW55x_RELEASE_V1.0.2/MSDK/lwip/lwip-2.1.2/src/core\altcp_tcp.c ****   struct tcp_pcb *pcb;
 388:C:/Users/stapi/OneDrive/Desktop/GD32VW553/V1_MQTT_OK/GD32VW55X_Wifi_BLE_SDK/GD32VW55x_RELEASE_V1.0.2/MSDK/lwip/lwip-2.1.2/src/core\altcp_tcp.c ****   if (conn == NULL) {
 389:C:/Users/stapi/OneDrive/Desktop/GD32VW553/V1_MQTT_OK/GD32VW55X_Wifi_BLE_SDK/GD32VW55x_RELEASE_V1.0.2/MSDK/lwip/lwip-2.1.2/src/core\altcp_tcp.c ****     return 0;
 390:C:/Users/stapi/OneDrive/Desktop/GD32VW553/V1_MQTT_OK/GD32VW55X_Wifi_BLE_SDK/GD32VW55x_RELEASE_V1.0.2/MSDK/lwip/lwip-2.1.2/src/core\altcp_tcp.c ****   }
 391:C:/Users/stapi/OneDrive/Desktop/GD32VW553/V1_MQTT_OK/GD32VW55X_Wifi_BLE_SDK/GD32VW55x_RELEASE_V1.0.2/MSDK/lwip/lwip-2.1.2/src/core\altcp_tcp.c ****   ALTCP_TCP_ASSERT_CONN(conn);
 392:C:/Users/stapi/OneDrive/Desktop/GD32VW553/V1_MQTT_OK/GD32VW55X_Wifi_BLE_SDK/GD32VW55x_RELEASE_V1.0.2/MSDK/lwip/lwip-2.1.2/src/core\altcp_tcp.c ****   pcb = (struct tcp_pcb *)conn->state;
 393:C:/Users/stapi/OneDrive/Desktop/GD32VW553/V1_MQTT_OK/GD32VW55X_Wifi_BLE_SDK/GD32VW55x_RELEASE_V1.0.2/MSDK/lwip/lwip-2.1.2/src/core\altcp_tcp.c ****   return tcp_sndbuf(pcb);
 394:C:/Users/stapi/OneDrive/Desktop/GD32VW553/V1_MQTT_OK/GD32VW55X_Wifi_BLE_SDK/GD32VW55x_RELEASE_V1.0.2/MSDK/lwip/lwip-2.1.2/src/core\altcp_tcp.c **** }
 395:C:/Users/stapi/OneDrive/Desktop/GD32VW553/V1_MQTT_OK/GD32VW55X_Wifi_BLE_SDK/GD32VW55x_RELEASE_V1.0.2/MSDK/lwip/lwip-2.1.2/src/core\altcp_tcp.c **** 
 396:C:/Users/stapi/OneDrive/Desktop/GD32VW553/V1_MQTT_OK/GD32VW55X_Wifi_BLE_SDK/GD32VW55x_RELEASE_V1.0.2/MSDK/lwip/lwip-2.1.2/src/core\altcp_tcp.c **** static u16_t
 397:C:/Users/stapi/OneDrive/Desktop/GD32VW553/V1_MQTT_OK/GD32VW55X_Wifi_BLE_SDK/GD32VW55x_RELEASE_V1.0.2/MSDK/lwip/lwip-2.1.2/src/core\altcp_tcp.c **** altcp_tcp_sndqueuelen(struct altcp_pcb *conn)
 398:C:/Users/stapi/OneDrive/Desktop/GD32VW553/V1_MQTT_OK/GD32VW55X_Wifi_BLE_SDK/GD32VW55x_RELEASE_V1.0.2/MSDK/lwip/lwip-2.1.2/src/core\altcp_tcp.c **** {
 399:C:/Users/stapi/OneDrive/Desktop/GD32VW553/V1_MQTT_OK/GD32VW55X_Wifi_BLE_SDK/GD32VW55x_RELEASE_V1.0.2/MSDK/lwip/lwip-2.1.2/src/core\altcp_tcp.c ****   struct tcp_pcb *pcb;
 400:C:/Users/stapi/OneDrive/Desktop/GD32VW553/V1_MQTT_OK/GD32VW55X_Wifi_BLE_SDK/GD32VW55x_RELEASE_V1.0.2/MSDK/lwip/lwip-2.1.2/src/core\altcp_tcp.c ****   if (conn == NULL) {
 401:C:/Users/stapi/OneDrive/Desktop/GD32VW553/V1_MQTT_OK/GD32VW55X_Wifi_BLE_SDK/GD32VW55x_RELEASE_V1.0.2/MSDK/lwip/lwip-2.1.2/src/core\altcp_tcp.c ****     return 0;
 402:C:/Users/stapi/OneDrive/Desktop/GD32VW553/V1_MQTT_OK/GD32VW55X_Wifi_BLE_SDK/GD32VW55x_RELEASE_V1.0.2/MSDK/lwip/lwip-2.1.2/src/core\altcp_tcp.c ****   }
 403:C:/Users/stapi/OneDrive/Desktop/GD32VW553/V1_MQTT_OK/GD32VW55X_Wifi_BLE_SDK/GD32VW55x_RELEASE_V1.0.2/MSDK/lwip/lwip-2.1.2/src/core\altcp_tcp.c ****   ALTCP_TCP_ASSERT_CONN(conn);
 404:C:/Users/stapi/OneDrive/Desktop/GD32VW553/V1_MQTT_OK/GD32VW55X_Wifi_BLE_SDK/GD32VW55x_RELEASE_V1.0.2/MSDK/lwip/lwip-2.1.2/src/core\altcp_tcp.c ****   pcb = (struct tcp_pcb *)conn->state;
 405:C:/Users/stapi/OneDrive/Desktop/GD32VW553/V1_MQTT_OK/GD32VW55X_Wifi_BLE_SDK/GD32VW55x_RELEASE_V1.0.2/MSDK/lwip/lwip-2.1.2/src/core\altcp_tcp.c ****   return tcp_sndqueuelen(pcb);
 406:C:/Users/stapi/OneDrive/Desktop/GD32VW553/V1_MQTT_OK/GD32VW55X_Wifi_BLE_SDK/GD32VW55x_RELEASE_V1.0.2/MSDK/lwip/lwip-2.1.2/src/core\altcp_tcp.c **** }
 407:C:/Users/stapi/OneDrive/Desktop/GD32VW553/V1_MQTT_OK/GD32VW55X_Wifi_BLE_SDK/GD32VW55x_RELEASE_V1.0.2/MSDK/lwip/lwip-2.1.2/src/core\altcp_tcp.c **** 
 408:C:/Users/stapi/OneDrive/Desktop/GD32VW553/V1_MQTT_OK/GD32VW55X_Wifi_BLE_SDK/GD32VW55x_RELEASE_V1.0.2/MSDK/lwip/lwip-2.1.2/src/core\altcp_tcp.c **** static void
 409:C:/Users/stapi/OneDrive/Desktop/GD32VW553/V1_MQTT_OK/GD32VW55X_Wifi_BLE_SDK/GD32VW55x_RELEASE_V1.0.2/MSDK/lwip/lwip-2.1.2/src/core\altcp_tcp.c **** altcp_tcp_nagle_disable(struct altcp_pcb *conn)
 410:C:/Users/stapi/OneDrive/Desktop/GD32VW553/V1_MQTT_OK/GD32VW55X_Wifi_BLE_SDK/GD32VW55x_RELEASE_V1.0.2/MSDK/lwip/lwip-2.1.2/src/core\altcp_tcp.c **** {
 411:C:/Users/stapi/OneDrive/Desktop/GD32VW553/V1_MQTT_OK/GD32VW55X_Wifi_BLE_SDK/GD32VW55x_RELEASE_V1.0.2/MSDK/lwip/lwip-2.1.2/src/core\altcp_tcp.c ****   if (conn && conn->state) {
 412:C:/Users/stapi/OneDrive/Desktop/GD32VW553/V1_MQTT_OK/GD32VW55X_Wifi_BLE_SDK/GD32VW55x_RELEASE_V1.0.2/MSDK/lwip/lwip-2.1.2/src/core\altcp_tcp.c ****     struct tcp_pcb *pcb = (struct tcp_pcb *)conn->state;
 413:C:/Users/stapi/OneDrive/Desktop/GD32VW553/V1_MQTT_OK/GD32VW55X_Wifi_BLE_SDK/GD32VW55x_RELEASE_V1.0.2/MSDK/lwip/lwip-2.1.2/src/core\altcp_tcp.c ****     ALTCP_TCP_ASSERT_CONN(conn);
 414:C:/Users/stapi/OneDrive/Desktop/GD32VW553/V1_MQTT_OK/GD32VW55X_Wifi_BLE_SDK/GD32VW55x_RELEASE_V1.0.2/MSDK/lwip/lwip-2.1.2/src/core\altcp_tcp.c ****     tcp_nagle_disable(pcb);
 415:C:/Users/stapi/OneDrive/Desktop/GD32VW553/V1_MQTT_OK/GD32VW55X_Wifi_BLE_SDK/GD32VW55x_RELEASE_V1.0.2/MSDK/lwip/lwip-2.1.2/src/core\altcp_tcp.c ****   }
 416:C:/Users/stapi/OneDrive/Desktop/GD32VW553/V1_MQTT_OK/GD32VW55X_Wifi_BLE_SDK/GD32VW55x_RELEASE_V1.0.2/MSDK/lwip/lwip-2.1.2/src/core\altcp_tcp.c **** }
 417:C:/Users/stapi/OneDrive/Desktop/GD32VW553/V1_MQTT_OK/GD32VW55X_Wifi_BLE_SDK/GD32VW55x_RELEASE_V1.0.2/MSDK/lwip/lwip-2.1.2/src/core\altcp_tcp.c **** 
 418:C:/Users/stapi/OneDrive/Desktop/GD32VW553/V1_MQTT_OK/GD32VW55X_Wifi_BLE_SDK/GD32VW55x_RELEASE_V1.0.2/MSDK/lwip/lwip-2.1.2/src/core\altcp_tcp.c **** static void
 419:C:/Users/stapi/OneDrive/Desktop/GD32VW553/V1_MQTT_OK/GD32VW55X_Wifi_BLE_SDK/GD32VW55x_RELEASE_V1.0.2/MSDK/lwip/lwip-2.1.2/src/core\altcp_tcp.c **** altcp_tcp_nagle_enable(struct altcp_pcb *conn)
 420:C:/Users/stapi/OneDrive/Desktop/GD32VW553/V1_MQTT_OK/GD32VW55X_Wifi_BLE_SDK/GD32VW55x_RELEASE_V1.0.2/MSDK/lwip/lwip-2.1.2/src/core\altcp_tcp.c **** {
 421:C:/Users/stapi/OneDrive/Desktop/GD32VW553/V1_MQTT_OK/GD32VW55X_Wifi_BLE_SDK/GD32VW55x_RELEASE_V1.0.2/MSDK/lwip/lwip-2.1.2/src/core\altcp_tcp.c ****   if (conn && conn->state) {
 422:C:/Users/stapi/OneDrive/Desktop/GD32VW553/V1_MQTT_OK/GD32VW55X_Wifi_BLE_SDK/GD32VW55x_RELEASE_V1.0.2/MSDK/lwip/lwip-2.1.2/src/core\altcp_tcp.c ****     struct tcp_pcb *pcb = (struct tcp_pcb *)conn->state;
 423:C:/Users/stapi/OneDrive/Desktop/GD32VW553/V1_MQTT_OK/GD32VW55X_Wifi_BLE_SDK/GD32VW55x_RELEASE_V1.0.2/MSDK/lwip/lwip-2.1.2/src/core\altcp_tcp.c ****     ALTCP_TCP_ASSERT_CONN(conn);
 424:C:/Users/stapi/OneDrive/Desktop/GD32VW553/V1_MQTT_OK/GD32VW55X_Wifi_BLE_SDK/GD32VW55x_RELEASE_V1.0.2/MSDK/lwip/lwip-2.1.2/src/core\altcp_tcp.c ****     tcp_nagle_enable(pcb);
 425:C:/Users/stapi/OneDrive/Desktop/GD32VW553/V1_MQTT_OK/GD32VW55X_Wifi_BLE_SDK/GD32VW55x_RELEASE_V1.0.2/MSDK/lwip/lwip-2.1.2/src/core\altcp_tcp.c ****   }
 426:C:/Users/stapi/OneDrive/Desktop/GD32VW553/V1_MQTT_OK/GD32VW55X_Wifi_BLE_SDK/GD32VW55x_RELEASE_V1.0.2/MSDK/lwip/lwip-2.1.2/src/core\altcp_tcp.c **** }
 427:C:/Users/stapi/OneDrive/Desktop/GD32VW553/V1_MQTT_OK/GD32VW55X_Wifi_BLE_SDK/GD32VW55x_RELEASE_V1.0.2/MSDK/lwip/lwip-2.1.2/src/core\altcp_tcp.c **** 
 428:C:/Users/stapi/OneDrive/Desktop/GD32VW553/V1_MQTT_OK/GD32VW55X_Wifi_BLE_SDK/GD32VW55x_RELEASE_V1.0.2/MSDK/lwip/lwip-2.1.2/src/core\altcp_tcp.c **** static int
 429:C:/Users/stapi/OneDrive/Desktop/GD32VW553/V1_MQTT_OK/GD32VW55X_Wifi_BLE_SDK/GD32VW55x_RELEASE_V1.0.2/MSDK/lwip/lwip-2.1.2/src/core\altcp_tcp.c **** altcp_tcp_nagle_disabled(struct altcp_pcb *conn)
 430:C:/Users/stapi/OneDrive/Desktop/GD32VW553/V1_MQTT_OK/GD32VW55X_Wifi_BLE_SDK/GD32VW55x_RELEASE_V1.0.2/MSDK/lwip/lwip-2.1.2/src/core\altcp_tcp.c **** {
 431:C:/Users/stapi/OneDrive/Desktop/GD32VW553/V1_MQTT_OK/GD32VW55X_Wifi_BLE_SDK/GD32VW55x_RELEASE_V1.0.2/MSDK/lwip/lwip-2.1.2/src/core\altcp_tcp.c ****   if (conn && conn->state) {
 432:C:/Users/stapi/OneDrive/Desktop/GD32VW553/V1_MQTT_OK/GD32VW55X_Wifi_BLE_SDK/GD32VW55x_RELEASE_V1.0.2/MSDK/lwip/lwip-2.1.2/src/core\altcp_tcp.c ****     struct tcp_pcb *pcb = (struct tcp_pcb *)conn->state;
 433:C:/Users/stapi/OneDrive/Desktop/GD32VW553/V1_MQTT_OK/GD32VW55X_Wifi_BLE_SDK/GD32VW55x_RELEASE_V1.0.2/MSDK/lwip/lwip-2.1.2/src/core\altcp_tcp.c ****     ALTCP_TCP_ASSERT_CONN(conn);
 434:C:/Users/stapi/OneDrive/Desktop/GD32VW553/V1_MQTT_OK/GD32VW55X_Wifi_BLE_SDK/GD32VW55x_RELEASE_V1.0.2/MSDK/lwip/lwip-2.1.2/src/core\altcp_tcp.c ****     return tcp_nagle_disabled(pcb);
 435:C:/Users/stapi/OneDrive/Desktop/GD32VW553/V1_MQTT_OK/GD32VW55X_Wifi_BLE_SDK/GD32VW55x_RELEASE_V1.0.2/MSDK/lwip/lwip-2.1.2/src/core\altcp_tcp.c ****   }
 436:C:/Users/stapi/OneDrive/Desktop/GD32VW553/V1_MQTT_OK/GD32VW55X_Wifi_BLE_SDK/GD32VW55x_RELEASE_V1.0.2/MSDK/lwip/lwip-2.1.2/src/core\altcp_tcp.c ****   return 0;
 437:C:/Users/stapi/OneDrive/Desktop/GD32VW553/V1_MQTT_OK/GD32VW55X_Wifi_BLE_SDK/GD32VW55x_RELEASE_V1.0.2/MSDK/lwip/lwip-2.1.2/src/core\altcp_tcp.c **** }
 438:C:/Users/stapi/OneDrive/Desktop/GD32VW553/V1_MQTT_OK/GD32VW55X_Wifi_BLE_SDK/GD32VW55x_RELEASE_V1.0.2/MSDK/lwip/lwip-2.1.2/src/core\altcp_tcp.c **** 
 439:C:/Users/stapi/OneDrive/Desktop/GD32VW553/V1_MQTT_OK/GD32VW55X_Wifi_BLE_SDK/GD32VW55x_RELEASE_V1.0.2/MSDK/lwip/lwip-2.1.2/src/core\altcp_tcp.c **** static void
 440:C:/Users/stapi/OneDrive/Desktop/GD32VW553/V1_MQTT_OK/GD32VW55X_Wifi_BLE_SDK/GD32VW55x_RELEASE_V1.0.2/MSDK/lwip/lwip-2.1.2/src/core\altcp_tcp.c **** altcp_tcp_setprio(struct altcp_pcb *conn, u8_t prio)
 441:C:/Users/stapi/OneDrive/Desktop/GD32VW553/V1_MQTT_OK/GD32VW55X_Wifi_BLE_SDK/GD32VW55x_RELEASE_V1.0.2/MSDK/lwip/lwip-2.1.2/src/core\altcp_tcp.c **** {
 442:C:/Users/stapi/OneDrive/Desktop/GD32VW553/V1_MQTT_OK/GD32VW55X_Wifi_BLE_SDK/GD32VW55x_RELEASE_V1.0.2/MSDK/lwip/lwip-2.1.2/src/core\altcp_tcp.c ****   if (conn != NULL) {
 443:C:/Users/stapi/OneDrive/Desktop/GD32VW553/V1_MQTT_OK/GD32VW55X_Wifi_BLE_SDK/GD32VW55x_RELEASE_V1.0.2/MSDK/lwip/lwip-2.1.2/src/core\altcp_tcp.c ****     struct tcp_pcb *pcb = (struct tcp_pcb *)conn->state;
 444:C:/Users/stapi/OneDrive/Desktop/GD32VW553/V1_MQTT_OK/GD32VW55X_Wifi_BLE_SDK/GD32VW55x_RELEASE_V1.0.2/MSDK/lwip/lwip-2.1.2/src/core\altcp_tcp.c ****     ALTCP_TCP_ASSERT_CONN(conn);
 445:C:/Users/stapi/OneDrive/Desktop/GD32VW553/V1_MQTT_OK/GD32VW55X_Wifi_BLE_SDK/GD32VW55x_RELEASE_V1.0.2/MSDK/lwip/lwip-2.1.2/src/core\altcp_tcp.c ****     tcp_setprio(pcb, prio);
 446:C:/Users/stapi/OneDrive/Desktop/GD32VW553/V1_MQTT_OK/GD32VW55X_Wifi_BLE_SDK/GD32VW55x_RELEASE_V1.0.2/MSDK/lwip/lwip-2.1.2/src/core\altcp_tcp.c ****   }
 447:C:/Users/stapi/OneDrive/Desktop/GD32VW553/V1_MQTT_OK/GD32VW55X_Wifi_BLE_SDK/GD32VW55x_RELEASE_V1.0.2/MSDK/lwip/lwip-2.1.2/src/core\altcp_tcp.c **** }
 448:C:/Users/stapi/OneDrive/Desktop/GD32VW553/V1_MQTT_OK/GD32VW55X_Wifi_BLE_SDK/GD32VW55x_RELEASE_V1.0.2/MSDK/lwip/lwip-2.1.2/src/core\altcp_tcp.c **** 
 449:C:/Users/stapi/OneDrive/Desktop/GD32VW553/V1_MQTT_OK/GD32VW55X_Wifi_BLE_SDK/GD32VW55x_RELEASE_V1.0.2/MSDK/lwip/lwip-2.1.2/src/core\altcp_tcp.c **** static void
 450:C:/Users/stapi/OneDrive/Desktop/GD32VW553/V1_MQTT_OK/GD32VW55X_Wifi_BLE_SDK/GD32VW55x_RELEASE_V1.0.2/MSDK/lwip/lwip-2.1.2/src/core\altcp_tcp.c **** altcp_tcp_dealloc(struct altcp_pcb *conn)
 451:C:/Users/stapi/OneDrive/Desktop/GD32VW553/V1_MQTT_OK/GD32VW55X_Wifi_BLE_SDK/GD32VW55x_RELEASE_V1.0.2/MSDK/lwip/lwip-2.1.2/src/core\altcp_tcp.c **** {
 452:C:/Users/stapi/OneDrive/Desktop/GD32VW553/V1_MQTT_OK/GD32VW55X_Wifi_BLE_SDK/GD32VW55x_RELEASE_V1.0.2/MSDK/lwip/lwip-2.1.2/src/core\altcp_tcp.c ****   LWIP_UNUSED_ARG(conn);
 453:C:/Users/stapi/OneDrive/Desktop/GD32VW553/V1_MQTT_OK/GD32VW55X_Wifi_BLE_SDK/GD32VW55x_RELEASE_V1.0.2/MSDK/lwip/lwip-2.1.2/src/core\altcp_tcp.c ****   ALTCP_TCP_ASSERT_CONN(conn);
 454:C:/Users/stapi/OneDrive/Desktop/GD32VW553/V1_MQTT_OK/GD32VW55X_Wifi_BLE_SDK/GD32VW55x_RELEASE_V1.0.2/MSDK/lwip/lwip-2.1.2/src/core\altcp_tcp.c ****   /* no private state to clean up */
 455:C:/Users/stapi/OneDrive/Desktop/GD32VW553/V1_MQTT_OK/GD32VW55X_Wifi_BLE_SDK/GD32VW55x_RELEASE_V1.0.2/MSDK/lwip/lwip-2.1.2/src/core\altcp_tcp.c **** }
 456:C:/Users/stapi/OneDrive/Desktop/GD32VW553/V1_MQTT_OK/GD32VW55X_Wifi_BLE_SDK/GD32VW55x_RELEASE_V1.0.2/MSDK/lwip/lwip-2.1.2/src/core\altcp_tcp.c **** 
 457:C:/Users/stapi/OneDrive/Desktop/GD32VW553/V1_MQTT_OK/GD32VW55X_Wifi_BLE_SDK/GD32VW55x_RELEASE_V1.0.2/MSDK/lwip/lwip-2.1.2/src/core\altcp_tcp.c **** static err_t
 458:C:/Users/stapi/OneDrive/Desktop/GD32VW553/V1_MQTT_OK/GD32VW55X_Wifi_BLE_SDK/GD32VW55x_RELEASE_V1.0.2/MSDK/lwip/lwip-2.1.2/src/core\altcp_tcp.c **** altcp_tcp_get_tcp_addrinfo(struct altcp_pcb *conn, int local, ip_addr_t *addr, u16_t *port)
 459:C:/Users/stapi/OneDrive/Desktop/GD32VW553/V1_MQTT_OK/GD32VW55X_Wifi_BLE_SDK/GD32VW55x_RELEASE_V1.0.2/MSDK/lwip/lwip-2.1.2/src/core\altcp_tcp.c **** {
 340              		.loc 1 459 1
 341              		.cfi_startproc
 342              	.LVL41:
 460:C:/Users/stapi/OneDrive/Desktop/GD32VW553/V1_MQTT_OK/GD32VW55X_Wifi_BLE_SDK/GD32VW55x_RELEASE_V1.0.2/MSDK/lwip/lwip-2.1.2/src/core\altcp_tcp.c ****   if (conn) {
 343              		.loc 1 460 3
 344              		.loc 1 460 6 is_stmt 0
 345 0000 39C1     		beq	a0,zero,.L45
 459:C:/Users/stapi/OneDrive/Desktop/GD32VW553/V1_MQTT_OK/GD32VW55X_Wifi_BLE_SDK/GD32VW55x_RELEASE_V1.0.2/MSDK/lwip/lwip-2.1.2/src/core\altcp_tcp.c ****   if (conn) {
 346              		.loc 1 459 1
 347 0002 17030000 		call	t0,__riscv_save_0
 347      E7020300 
 348              		.cfi_offset 1, -4
 349              		.cfi_def_cfa_offset 16
 350              	.LBB20:
 461:C:/Users/stapi/OneDrive/Desktop/GD32VW553/V1_MQTT_OK/GD32VW55X_Wifi_BLE_SDK/GD32VW55x_RELEASE_V1.0.2/MSDK/lwip/lwip-2.1.2/src/core\altcp_tcp.c ****     struct tcp_pcb *pcb = (struct tcp_pcb *)conn->state;
 351              		.loc 1 461 5 is_stmt 1
 352              	.LVL42:
 462:C:/Users/stapi/OneDrive/Desktop/GD32VW553/V1_MQTT_OK/GD32VW55X_Wifi_BLE_SDK/GD32VW55x_RELEASE_V1.0.2/MSDK/lwip/lwip-2.1.2/src/core\altcp_tcp.c ****     ALTCP_TCP_ASSERT_CONN(conn);
 353              		.loc 1 462 5
 354              		.loc 1 462 5
 355              		.loc 1 462 5
 356 000a 5C41     		lw	a5,4(a0)
 357 000c 85C7     		beq	a5,zero,.L43
 358              		.loc 1 462 5 discriminator 1
 359              		.loc 1 462 5 discriminator 1
 360 000e B7060000 		lui	a3,%hi(.LC0)
 361              	.LVL43:
 362 0012 B7050000 		lui	a1,%hi(.LC3)
 363              	.LVL44:
 364 0016 37050000 		lui	a0,%hi(.LC2)
 365              	.LVL45:
 366 001a 93860600 		addi	a3,a3,%lo(.LC0)
 367 001e 1306E01C 		li	a2,462
 368              	.LVL46:
 369 0022 93850500 		addi	a1,a1,%lo(.LC3)
 370 0026 13050500 		addi	a0,a0,%lo(.LC2)
 371 002a 97000000 		call	printf
 371      E7800000 
 372              	.LVL47:
 373              	.L44:
 374              		.loc 1 462 5 discriminator 1
 375              		.loc 1 462 5 discriminator 1
 376              		.loc 1 462 5 discriminator 1
 377 0032 01A0     		j	.L44
 378              	.LVL48:
 379              	.L43:
 380              		.loc 1 462 5 discriminator 2
 381              		.loc 1 462 5 discriminator 2
 382              		.loc 1 462 5 discriminator 2
 383              		.loc 1 462 5 discriminator 2
 463:C:/Users/stapi/OneDrive/Desktop/GD32VW553/V1_MQTT_OK/GD32VW55X_Wifi_BLE_SDK/GD32VW55x_RELEASE_V1.0.2/MSDK/lwip/lwip-2.1.2/src/core\altcp_tcp.c ****     return tcp_tcp_get_tcp_addrinfo(pcb, local, addr, port);
 384              		.loc 1 463 5 discriminator 2
 385              		.loc 1 463 12 is_stmt 0 discriminator 2
 386 0034 4845     		lw	a0,12(a0)
 387              	.LVL49:
 388 0036 97000000 		call	tcp_tcp_get_tcp_addrinfo
 388      E7800000 
 389              	.LVL50:
 390              	.LBE20:
 464:C:/Users/stapi/OneDrive/Desktop/GD32VW553/V1_MQTT_OK/GD32VW55X_Wifi_BLE_SDK/GD32VW55x_RELEASE_V1.0.2/MSDK/lwip/lwip-2.1.2/src/core\altcp_tcp.c ****   }
 465:C:/Users/stapi/OneDrive/Desktop/GD32VW553/V1_MQTT_OK/GD32VW55X_Wifi_BLE_SDK/GD32VW55x_RELEASE_V1.0.2/MSDK/lwip/lwip-2.1.2/src/core\altcp_tcp.c ****   return ERR_VAL;
 466:C:/Users/stapi/OneDrive/Desktop/GD32VW553/V1_MQTT_OK/GD32VW55X_Wifi_BLE_SDK/GD32VW55x_RELEASE_V1.0.2/MSDK/lwip/lwip-2.1.2/src/core\altcp_tcp.c **** }
 391              		.loc 1 466 1 discriminator 2
 392 003e 17030000 		tail	__riscv_restore_0
 392      67000300 
 393              		.cfi_restore 1
 394              		.cfi_def_cfa_offset 0
 395              	.LVL51:
 396              	.L45:
 465:C:/Users/stapi/OneDrive/Desktop/GD32VW553/V1_MQTT_OK/GD32VW55X_Wifi_BLE_SDK/GD32VW55x_RELEASE_V1.0.2/MSDK/lwip/lwip-2.1.2/src/core\altcp_tcp.c **** }
 397              		.loc 1 465 10
 398 0046 6955     		li	a0,-6
 399              	.LVL52:
 400              		.loc 1 466 1
 401 0048 8280     		ret
 402              		.cfi_endproc
 403              	.LFE34:
 405              		.section	.text.altcp_tcp_sent,"ax",@progbits
 406              		.align	1
 408              	altcp_tcp_sent:
 409              	.LFB7:
 120:C:/Users/stapi/OneDrive/Desktop/GD32VW553/V1_MQTT_OK/GD32VW55X_Wifi_BLE_SDK/GD32VW55x_RELEASE_V1.0.2/MSDK/lwip/lwip-2.1.2/src/core\altcp_tcp.c ****   struct altcp_pcb *conn = (struct altcp_pcb *)arg;
 410              		.loc 1 120 1 is_stmt 1
 411              		.cfi_startproc
 412              	.LVL53:
 121:C:/Users/stapi/OneDrive/Desktop/GD32VW553/V1_MQTT_OK/GD32VW55X_Wifi_BLE_SDK/GD32VW55x_RELEASE_V1.0.2/MSDK/lwip/lwip-2.1.2/src/core\altcp_tcp.c ****   if (conn) {
 413              		.loc 1 121 3
 122:C:/Users/stapi/OneDrive/Desktop/GD32VW553/V1_MQTT_OK/GD32VW55X_Wifi_BLE_SDK/GD32VW55x_RELEASE_V1.0.2/MSDK/lwip/lwip-2.1.2/src/core\altcp_tcp.c ****     ALTCP_TCP_ASSERT_CONN_PCB(conn, tpcb);
 414              		.loc 1 122 3
 122:C:/Users/stapi/OneDrive/Desktop/GD32VW553/V1_MQTT_OK/GD32VW55X_Wifi_BLE_SDK/GD32VW55x_RELEASE_V1.0.2/MSDK/lwip/lwip-2.1.2/src/core\altcp_tcp.c ****     ALTCP_TCP_ASSERT_CONN_PCB(conn, tpcb);
 415              		.loc 1 122 6 is_stmt 0
 416 0000 3DC9     		beq	a0,zero,.L56
 120:C:/Users/stapi/OneDrive/Desktop/GD32VW553/V1_MQTT_OK/GD32VW55X_Wifi_BLE_SDK/GD32VW55x_RELEASE_V1.0.2/MSDK/lwip/lwip-2.1.2/src/core\altcp_tcp.c ****   struct altcp_pcb *conn = (struct altcp_pcb *)arg;
 417              		.loc 1 120 1
 418 0002 17030000 		call	t0,__riscv_save_0
 418      E7020300 
 419              		.cfi_offset 1, -4
 420              		.cfi_def_cfa_offset 16
 123:C:/Users/stapi/OneDrive/Desktop/GD32VW553/V1_MQTT_OK/GD32VW55X_Wifi_BLE_SDK/GD32VW55x_RELEASE_V1.0.2/MSDK/lwip/lwip-2.1.2/src/core\altcp_tcp.c ****     if (conn->sent) {
 421              		.loc 1 123 5
 422 000a 5845     		lw	a4,12(a0)
 423 000c AA87     		mv	a5,a0
 123:C:/Users/stapi/OneDrive/Desktop/GD32VW553/V1_MQTT_OK/GD32VW55X_Wifi_BLE_SDK/GD32VW55x_RELEASE_V1.0.2/MSDK/lwip/lwip-2.1.2/src/core\altcp_tcp.c ****     if (conn->sent) {
 424              		.loc 1 123 5 is_stmt 1
 123:C:/Users/stapi/OneDrive/Desktop/GD32VW553/V1_MQTT_OK/GD32VW55X_Wifi_BLE_SDK/GD32VW55x_RELEASE_V1.0.2/MSDK/lwip/lwip-2.1.2/src/core\altcp_tcp.c ****     if (conn->sent) {
 425              		.loc 1 123 5
 123:C:/Users/stapi/OneDrive/Desktop/GD32VW553/V1_MQTT_OK/GD32VW55X_Wifi_BLE_SDK/GD32VW55x_RELEASE_V1.0.2/MSDK/lwip/lwip-2.1.2/src/core\altcp_tcp.c ****     if (conn->sent) {
 426              		.loc 1 123 5
 427 000e 6305B702 		beq	a4,a1,.L52
 123:C:/Users/stapi/OneDrive/Desktop/GD32VW553/V1_MQTT_OK/GD32VW55X_Wifi_BLE_SDK/GD32VW55x_RELEASE_V1.0.2/MSDK/lwip/lwip-2.1.2/src/core\altcp_tcp.c ****     if (conn->sent) {
 428              		.loc 1 123 5 discriminator 1
 123:C:/Users/stapi/OneDrive/Desktop/GD32VW553/V1_MQTT_OK/GD32VW55X_Wifi_BLE_SDK/GD32VW55x_RELEASE_V1.0.2/MSDK/lwip/lwip-2.1.2/src/core\altcp_tcp.c ****     if (conn->sent) {
 429              		.loc 1 123 5 discriminator 1
 430 0012 B7060000 		lui	a3,%hi(.LC0)
 431 0016 B7050000 		lui	a1,%hi(.LC1)
 432              	.LVL54:
 433 001a 37050000 		lui	a0,%hi(.LC2)
 434              	.LVL55:
 435 001e 93860600 		addi	a3,a3,%lo(.LC0)
 436 0022 1306B007 		li	a2,123
 437              	.LVL56:
 438 0026 93850500 		addi	a1,a1,%lo(.LC1)
 439 002a 13050500 		addi	a0,a0,%lo(.LC2)
 440 002e 97000000 		call	printf
 440      E7800000 
 441              	.LVL57:
 442              	.L53:
 123:C:/Users/stapi/OneDrive/Desktop/GD32VW553/V1_MQTT_OK/GD32VW55X_Wifi_BLE_SDK/GD32VW55x_RELEASE_V1.0.2/MSDK/lwip/lwip-2.1.2/src/core\altcp_tcp.c ****     if (conn->sent) {
 443              		.loc 1 123 5 discriminator 1
 123:C:/Users/stapi/OneDrive/Desktop/GD32VW553/V1_MQTT_OK/GD32VW55X_Wifi_BLE_SDK/GD32VW55x_RELEASE_V1.0.2/MSDK/lwip/lwip-2.1.2/src/core\altcp_tcp.c ****     if (conn->sent) {
 444              		.loc 1 123 5 discriminator 1
 123:C:/Users/stapi/OneDrive/Desktop/GD32VW553/V1_MQTT_OK/GD32VW55X_Wifi_BLE_SDK/GD32VW55x_RELEASE_V1.0.2/MSDK/lwip/lwip-2.1.2/src/core\altcp_tcp.c ****     if (conn->sent) {
 445              		.loc 1 123 5 discriminator 1
 446 0036 01A0     		j	.L53
 447              	.LVL58:
 448              	.L52:
 123:C:/Users/stapi/OneDrive/Desktop/GD32VW553/V1_MQTT_OK/GD32VW55X_Wifi_BLE_SDK/GD32VW55x_RELEASE_V1.0.2/MSDK/lwip/lwip-2.1.2/src/core\altcp_tcp.c ****     if (conn->sent) {
 449              		.loc 1 123 5 discriminator 2
 123:C:/Users/stapi/OneDrive/Desktop/GD32VW553/V1_MQTT_OK/GD32VW55X_Wifi_BLE_SDK/GD32VW55x_RELEASE_V1.0.2/MSDK/lwip/lwip-2.1.2/src/core\altcp_tcp.c ****     if (conn->sent) {
 450              		.loc 1 123 5 discriminator 2
 123:C:/Users/stapi/OneDrive/Desktop/GD32VW553/V1_MQTT_OK/GD32VW55X_Wifi_BLE_SDK/GD32VW55x_RELEASE_V1.0.2/MSDK/lwip/lwip-2.1.2/src/core\altcp_tcp.c ****     if (conn->sent) {
 451              		.loc 1 123 5 discriminator 2
 123:C:/Users/stapi/OneDrive/Desktop/GD32VW553/V1_MQTT_OK/GD32VW55X_Wifi_BLE_SDK/GD32VW55x_RELEASE_V1.0.2/MSDK/lwip/lwip-2.1.2/src/core\altcp_tcp.c ****     if (conn->sent) {
 452              		.loc 1 123 5 discriminator 2
 123:C:/Users/stapi/OneDrive/Desktop/GD32VW553/V1_MQTT_OK/GD32VW55X_Wifi_BLE_SDK/GD32VW55x_RELEASE_V1.0.2/MSDK/lwip/lwip-2.1.2/src/core\altcp_tcp.c ****     if (conn->sent) {
 453              		.loc 1 123 5 discriminator 2
 123:C:/Users/stapi/OneDrive/Desktop/GD32VW553/V1_MQTT_OK/GD32VW55X_Wifi_BLE_SDK/GD32VW55x_RELEASE_V1.0.2/MSDK/lwip/lwip-2.1.2/src/core\altcp_tcp.c ****     if (conn->sent) {
 454              		.loc 1 123 5 discriminator 2
 455 0038 5841     		lw	a4,4(a0)
 456 003a 05C7     		beq	a4,zero,.L54
 123:C:/Users/stapi/OneDrive/Desktop/GD32VW553/V1_MQTT_OK/GD32VW55X_Wifi_BLE_SDK/GD32VW55x_RELEASE_V1.0.2/MSDK/lwip/lwip-2.1.2/src/core\altcp_tcp.c ****     if (conn->sent) {
 457              		.loc 1 123 5 discriminator 4
 123:C:/Users/stapi/OneDrive/Desktop/GD32VW553/V1_MQTT_OK/GD32VW55X_Wifi_BLE_SDK/GD32VW55x_RELEASE_V1.0.2/MSDK/lwip/lwip-2.1.2/src/core\altcp_tcp.c ****     if (conn->sent) {
 458              		.loc 1 123 5 discriminator 4
 459 003c B7060000 		lui	a3,%hi(.LC0)
 460 0040 B7050000 		lui	a1,%hi(.LC3)
 461              	.LVL59:
 462 0044 37050000 		lui	a0,%hi(.LC2)
 463              	.LVL60:
 464 0048 93860600 		addi	a3,a3,%lo(.LC0)
 465 004c 1306B007 		li	a2,123
 466              	.LVL61:
 467 0050 93850500 		addi	a1,a1,%lo(.LC3)
 468 0054 13050500 		addi	a0,a0,%lo(.LC2)
 469 0058 97000000 		call	printf
 469      E7800000 
 470              	.LVL62:
 471              	.L55:
 123:C:/Users/stapi/OneDrive/Desktop/GD32VW553/V1_MQTT_OK/GD32VW55X_Wifi_BLE_SDK/GD32VW55x_RELEASE_V1.0.2/MSDK/lwip/lwip-2.1.2/src/core\altcp_tcp.c ****     if (conn->sent) {
 472              		.loc 1 123 5 discriminator 2
 123:C:/Users/stapi/OneDrive/Desktop/GD32VW553/V1_MQTT_OK/GD32VW55X_Wifi_BLE_SDK/GD32VW55x_RELEASE_V1.0.2/MSDK/lwip/lwip-2.1.2/src/core\altcp_tcp.c ****     if (conn->sent) {
 473              		.loc 1 123 5 discriminator 2
 123:C:/Users/stapi/OneDrive/Desktop/GD32VW553/V1_MQTT_OK/GD32VW55X_Wifi_BLE_SDK/GD32VW55x_RELEASE_V1.0.2/MSDK/lwip/lwip-2.1.2/src/core\altcp_tcp.c ****     if (conn->sent) {
 474              		.loc 1 123 5 discriminator 2
 475 0060 01A0     		j	.L55
 476              	.LVL63:
 477              	.L54:
 478              	.LBB23:
 479              	.LBB24:
 123:C:/Users/stapi/OneDrive/Desktop/GD32VW553/V1_MQTT_OK/GD32VW55X_Wifi_BLE_SDK/GD32VW55x_RELEASE_V1.0.2/MSDK/lwip/lwip-2.1.2/src/core\altcp_tcp.c ****     if (conn->sent) {
 480              		.loc 1 123 5
 123:C:/Users/stapi/OneDrive/Desktop/GD32VW553/V1_MQTT_OK/GD32VW55X_Wifi_BLE_SDK/GD32VW55x_RELEASE_V1.0.2/MSDK/lwip/lwip-2.1.2/src/core\altcp_tcp.c ****     if (conn->sent) {
 481              		.loc 1 123 5
 123:C:/Users/stapi/OneDrive/Desktop/GD32VW553/V1_MQTT_OK/GD32VW55X_Wifi_BLE_SDK/GD32VW55x_RELEASE_V1.0.2/MSDK/lwip/lwip-2.1.2/src/core\altcp_tcp.c ****     if (conn->sent) {
 482              		.loc 1 123 5
 123:C:/Users/stapi/OneDrive/Desktop/GD32VW553/V1_MQTT_OK/GD32VW55X_Wifi_BLE_SDK/GD32VW55x_RELEASE_V1.0.2/MSDK/lwip/lwip-2.1.2/src/core\altcp_tcp.c ****     if (conn->sent) {
 483              		.loc 1 123 5
 123:C:/Users/stapi/OneDrive/Desktop/GD32VW553/V1_MQTT_OK/GD32VW55X_Wifi_BLE_SDK/GD32VW55x_RELEASE_V1.0.2/MSDK/lwip/lwip-2.1.2/src/core\altcp_tcp.c ****     if (conn->sent) {
 484              		.loc 1 123 5
 124:C:/Users/stapi/OneDrive/Desktop/GD32VW553/V1_MQTT_OK/GD32VW55X_Wifi_BLE_SDK/GD32VW55x_RELEASE_V1.0.2/MSDK/lwip/lwip-2.1.2/src/core\altcp_tcp.c ****       return conn->sent(conn->arg, conn, len);
 485              		.loc 1 124 5
 124:C:/Users/stapi/OneDrive/Desktop/GD32VW553/V1_MQTT_OK/GD32VW55X_Wifi_BLE_SDK/GD32VW55x_RELEASE_V1.0.2/MSDK/lwip/lwip-2.1.2/src/core\altcp_tcp.c ****       return conn->sent(conn->arg, conn, len);
 486              		.loc 1 124 13 is_stmt 0
 487 0062 584D     		lw	a4,28(a0)
 488              	.LBE24:
 489              	.LBE23:
 128:C:/Users/stapi/OneDrive/Desktop/GD32VW553/V1_MQTT_OK/GD32VW55X_Wifi_BLE_SDK/GD32VW55x_RELEASE_V1.0.2/MSDK/lwip/lwip-2.1.2/src/core\altcp_tcp.c **** }
 490              		.loc 1 128 10
 491 0064 0145     		li	a0,0
 492              	.LVL64:
 493              	.LBB26:
 494              	.LBB25:
 124:C:/Users/stapi/OneDrive/Desktop/GD32VW553/V1_MQTT_OK/GD32VW55X_Wifi_BLE_SDK/GD32VW55x_RELEASE_V1.0.2/MSDK/lwip/lwip-2.1.2/src/core\altcp_tcp.c ****       return conn->sent(conn->arg, conn, len);
 495              		.loc 1 124 8
 496 0066 01C7     		beq	a4,zero,.L51
 125:C:/Users/stapi/OneDrive/Desktop/GD32VW553/V1_MQTT_OK/GD32VW55X_Wifi_BLE_SDK/GD32VW55x_RELEASE_V1.0.2/MSDK/lwip/lwip-2.1.2/src/core\altcp_tcp.c ****     }
 497              		.loc 1 125 7 is_stmt 1
 125:C:/Users/stapi/OneDrive/Desktop/GD32VW553/V1_MQTT_OK/GD32VW55X_Wifi_BLE_SDK/GD32VW55x_RELEASE_V1.0.2/MSDK/lwip/lwip-2.1.2/src/core\altcp_tcp.c ****     }
 498              		.loc 1 125 14 is_stmt 0
 499 0068 8847     		lw	a0,8(a5)
 500 006a BE85     		mv	a1,a5
 501              	.LVL65:
 502 006c 0297     		jalr	a4
 503              	.LVL66:
 504              	.L51:
 505              	.LBE25:
 506              	.LBE26:
 129:C:/Users/stapi/OneDrive/Desktop/GD32VW553/V1_MQTT_OK/GD32VW55X_Wifi_BLE_SDK/GD32VW55x_RELEASE_V1.0.2/MSDK/lwip/lwip-2.1.2/src/core\altcp_tcp.c **** 
 507              		.loc 1 129 1
 508 006e 17030000 		tail	__riscv_restore_0
 508      67000300 
 509              		.cfi_restore 1
 510              		.cfi_def_cfa_offset 0
 511              	.LVL67:
 512              	.L56:
 128:C:/Users/stapi/OneDrive/Desktop/GD32VW553/V1_MQTT_OK/GD32VW55X_Wifi_BLE_SDK/GD32VW55x_RELEASE_V1.0.2/MSDK/lwip/lwip-2.1.2/src/core\altcp_tcp.c **** }
 513              		.loc 1 128 10
 514 0076 0145     		li	a0,0
 515              	.LVL68:
 129:C:/Users/stapi/OneDrive/Desktop/GD32VW553/V1_MQTT_OK/GD32VW55X_Wifi_BLE_SDK/GD32VW55x_RELEASE_V1.0.2/MSDK/lwip/lwip-2.1.2/src/core\altcp_tcp.c **** 
 516              		.loc 1 129 1
 517 0078 8280     		ret
 518              		.cfi_endproc
 519              	.LFE7:
 521              		.section	.text.altcp_tcp_get_port,"ax",@progbits
 522              		.align	1
 524              	altcp_tcp_get_port:
 525              	.LFB36:
 467:C:/Users/stapi/OneDrive/Desktop/GD32VW553/V1_MQTT_OK/GD32VW55X_Wifi_BLE_SDK/GD32VW55x_RELEASE_V1.0.2/MSDK/lwip/lwip-2.1.2/src/core\altcp_tcp.c **** 
 468:C:/Users/stapi/OneDrive/Desktop/GD32VW553/V1_MQTT_OK/GD32VW55X_Wifi_BLE_SDK/GD32VW55x_RELEASE_V1.0.2/MSDK/lwip/lwip-2.1.2/src/core\altcp_tcp.c **** static ip_addr_t *
 469:C:/Users/stapi/OneDrive/Desktop/GD32VW553/V1_MQTT_OK/GD32VW55X_Wifi_BLE_SDK/GD32VW55x_RELEASE_V1.0.2/MSDK/lwip/lwip-2.1.2/src/core\altcp_tcp.c **** altcp_tcp_get_ip(struct altcp_pcb *conn, int local)
 470:C:/Users/stapi/OneDrive/Desktop/GD32VW553/V1_MQTT_OK/GD32VW55X_Wifi_BLE_SDK/GD32VW55x_RELEASE_V1.0.2/MSDK/lwip/lwip-2.1.2/src/core\altcp_tcp.c **** {
 471:C:/Users/stapi/OneDrive/Desktop/GD32VW553/V1_MQTT_OK/GD32VW55X_Wifi_BLE_SDK/GD32VW55x_RELEASE_V1.0.2/MSDK/lwip/lwip-2.1.2/src/core\altcp_tcp.c ****   if (conn) {
 472:C:/Users/stapi/OneDrive/Desktop/GD32VW553/V1_MQTT_OK/GD32VW55X_Wifi_BLE_SDK/GD32VW55x_RELEASE_V1.0.2/MSDK/lwip/lwip-2.1.2/src/core\altcp_tcp.c ****     struct tcp_pcb *pcb = (struct tcp_pcb *)conn->state;
 473:C:/Users/stapi/OneDrive/Desktop/GD32VW553/V1_MQTT_OK/GD32VW55X_Wifi_BLE_SDK/GD32VW55x_RELEASE_V1.0.2/MSDK/lwip/lwip-2.1.2/src/core\altcp_tcp.c ****     ALTCP_TCP_ASSERT_CONN(conn);
 474:C:/Users/stapi/OneDrive/Desktop/GD32VW553/V1_MQTT_OK/GD32VW55X_Wifi_BLE_SDK/GD32VW55x_RELEASE_V1.0.2/MSDK/lwip/lwip-2.1.2/src/core\altcp_tcp.c ****     if (pcb) {
 475:C:/Users/stapi/OneDrive/Desktop/GD32VW553/V1_MQTT_OK/GD32VW55X_Wifi_BLE_SDK/GD32VW55x_RELEASE_V1.0.2/MSDK/lwip/lwip-2.1.2/src/core\altcp_tcp.c ****       if (local) {
 476:C:/Users/stapi/OneDrive/Desktop/GD32VW553/V1_MQTT_OK/GD32VW55X_Wifi_BLE_SDK/GD32VW55x_RELEASE_V1.0.2/MSDK/lwip/lwip-2.1.2/src/core\altcp_tcp.c ****         return &pcb->local_ip;
 477:C:/Users/stapi/OneDrive/Desktop/GD32VW553/V1_MQTT_OK/GD32VW55X_Wifi_BLE_SDK/GD32VW55x_RELEASE_V1.0.2/MSDK/lwip/lwip-2.1.2/src/core\altcp_tcp.c ****       } else {
 478:C:/Users/stapi/OneDrive/Desktop/GD32VW553/V1_MQTT_OK/GD32VW55X_Wifi_BLE_SDK/GD32VW55x_RELEASE_V1.0.2/MSDK/lwip/lwip-2.1.2/src/core\altcp_tcp.c ****         return &pcb->remote_ip;
 479:C:/Users/stapi/OneDrive/Desktop/GD32VW553/V1_MQTT_OK/GD32VW55X_Wifi_BLE_SDK/GD32VW55x_RELEASE_V1.0.2/MSDK/lwip/lwip-2.1.2/src/core\altcp_tcp.c ****       }
 480:C:/Users/stapi/OneDrive/Desktop/GD32VW553/V1_MQTT_OK/GD32VW55X_Wifi_BLE_SDK/GD32VW55x_RELEASE_V1.0.2/MSDK/lwip/lwip-2.1.2/src/core\altcp_tcp.c ****     }
 481:C:/Users/stapi/OneDrive/Desktop/GD32VW553/V1_MQTT_OK/GD32VW55X_Wifi_BLE_SDK/GD32VW55x_RELEASE_V1.0.2/MSDK/lwip/lwip-2.1.2/src/core\altcp_tcp.c ****   }
 482:C:/Users/stapi/OneDrive/Desktop/GD32VW553/V1_MQTT_OK/GD32VW55X_Wifi_BLE_SDK/GD32VW55x_RELEASE_V1.0.2/MSDK/lwip/lwip-2.1.2/src/core\altcp_tcp.c ****   return NULL;
 483:C:/Users/stapi/OneDrive/Desktop/GD32VW553/V1_MQTT_OK/GD32VW55X_Wifi_BLE_SDK/GD32VW55x_RELEASE_V1.0.2/MSDK/lwip/lwip-2.1.2/src/core\altcp_tcp.c **** }
 484:C:/Users/stapi/OneDrive/Desktop/GD32VW553/V1_MQTT_OK/GD32VW55X_Wifi_BLE_SDK/GD32VW55x_RELEASE_V1.0.2/MSDK/lwip/lwip-2.1.2/src/core\altcp_tcp.c **** 
 485:C:/Users/stapi/OneDrive/Desktop/GD32VW553/V1_MQTT_OK/GD32VW55X_Wifi_BLE_SDK/GD32VW55x_RELEASE_V1.0.2/MSDK/lwip/lwip-2.1.2/src/core\altcp_tcp.c **** static u16_t
 486:C:/Users/stapi/OneDrive/Desktop/GD32VW553/V1_MQTT_OK/GD32VW55X_Wifi_BLE_SDK/GD32VW55x_RELEASE_V1.0.2/MSDK/lwip/lwip-2.1.2/src/core\altcp_tcp.c **** altcp_tcp_get_port(struct altcp_pcb *conn, int local)
 487:C:/Users/stapi/OneDrive/Desktop/GD32VW553/V1_MQTT_OK/GD32VW55X_Wifi_BLE_SDK/GD32VW55x_RELEASE_V1.0.2/MSDK/lwip/lwip-2.1.2/src/core\altcp_tcp.c **** {
 526              		.loc 1 487 1 is_stmt 1
 527              		.cfi_startproc
 528              	.LVL69:
 488:C:/Users/stapi/OneDrive/Desktop/GD32VW553/V1_MQTT_OK/GD32VW55X_Wifi_BLE_SDK/GD32VW55x_RELEASE_V1.0.2/MSDK/lwip/lwip-2.1.2/src/core\altcp_tcp.c ****   if (conn) {
 529              		.loc 1 488 3
 530              		.loc 1 488 6 is_stmt 0
 531 0000 21C5     		beq	a0,zero,.L68
 532              	.LBB31:
 489:C:/Users/stapi/OneDrive/Desktop/GD32VW553/V1_MQTT_OK/GD32VW55X_Wifi_BLE_SDK/GD32VW55x_RELEASE_V1.0.2/MSDK/lwip/lwip-2.1.2/src/core\altcp_tcp.c ****     struct tcp_pcb *pcb = (struct tcp_pcb *)conn->state;
 533              		.loc 1 489 5 is_stmt 1
 534              	.LVL70:
 490:C:/Users/stapi/OneDrive/Desktop/GD32VW553/V1_MQTT_OK/GD32VW55X_Wifi_BLE_SDK/GD32VW55x_RELEASE_V1.0.2/MSDK/lwip/lwip-2.1.2/src/core\altcp_tcp.c ****     ALTCP_TCP_ASSERT_CONN(conn);
 535              		.loc 1 490 5
 536              		.loc 1 490 5
 537              		.loc 1 490 5
 538 0002 5C41     		lw	a5,4(a0)
 539 0004 85CB     		beq	a5,zero,.L65
 540              	.LBE31:
 487:C:/Users/stapi/OneDrive/Desktop/GD32VW553/V1_MQTT_OK/GD32VW55X_Wifi_BLE_SDK/GD32VW55x_RELEASE_V1.0.2/MSDK/lwip/lwip-2.1.2/src/core\altcp_tcp.c ****   if (conn) {
 541              		.loc 1 487 1 is_stmt 0
 542 0006 17030000 		call	t0,__riscv_save_0
 542      E7020300 
 543              		.cfi_offset 1, -4
 544              		.cfi_def_cfa_offset 16
 545              	.LVL71:
 546              	.LBB32:
 547              	.LBB33:
 548              		.loc 1 490 5 is_stmt 1
 549              		.loc 1 490 5
 550 000e B7060000 		lui	a3,%hi(.LC0)
 551 0012 B7050000 		lui	a1,%hi(.LC3)
 552              	.LVL72:
 553 0016 37050000 		lui	a0,%hi(.LC2)
 554              	.LVL73:
 555 001a 93860600 		addi	a3,a3,%lo(.LC0)
 556 001e 1306A01E 		li	a2,490
 557 0022 93850500 		addi	a1,a1,%lo(.LC3)
 558 0026 13050500 		addi	a0,a0,%lo(.LC2)
 559 002a 97000000 		call	printf
 559      E7800000 
 560              	.LVL74:
 561              	.L66:
 562              		.loc 1 490 5
 563              		.loc 1 490 5
 564              		.loc 1 490 5
 565 0032 01A0     		j	.L66
 566              	.LVL75:
 567              	.L65:
 568              		.cfi_def_cfa_offset 0
 569              		.cfi_restore 1
 570              	.LBE33:
 571              	.LBE32:
 572              	.LBB34:
 489:C:/Users/stapi/OneDrive/Desktop/GD32VW553/V1_MQTT_OK/GD32VW55X_Wifi_BLE_SDK/GD32VW55x_RELEASE_V1.0.2/MSDK/lwip/lwip-2.1.2/src/core\altcp_tcp.c ****     struct tcp_pcb *pcb = (struct tcp_pcb *)conn->state;
 573              		.loc 1 489 21 is_stmt 0 discriminator 2
 574 0034 5C45     		lw	a5,12(a0)
 575              		.loc 1 490 5 is_stmt 1 discriminator 2
 576              		.loc 1 490 5 discriminator 2
 577              		.loc 1 490 5 discriminator 2
 578              		.loc 1 490 5 discriminator 2
 491:C:/Users/stapi/OneDrive/Desktop/GD32VW553/V1_MQTT_OK/GD32VW55X_Wifi_BLE_SDK/GD32VW55x_RELEASE_V1.0.2/MSDK/lwip/lwip-2.1.2/src/core\altcp_tcp.c ****     if (pcb) {
 579              		.loc 1 491 5 discriminator 2
 580              	.LBE34:
 492:C:/Users/stapi/OneDrive/Desktop/GD32VW553/V1_MQTT_OK/GD32VW55X_Wifi_BLE_SDK/GD32VW55x_RELEASE_V1.0.2/MSDK/lwip/lwip-2.1.2/src/core\altcp_tcp.c ****       if (local) {
 493:C:/Users/stapi/OneDrive/Desktop/GD32VW553/V1_MQTT_OK/GD32VW55X_Wifi_BLE_SDK/GD32VW55x_RELEASE_V1.0.2/MSDK/lwip/lwip-2.1.2/src/core\altcp_tcp.c ****         return pcb->local_port;
 494:C:/Users/stapi/OneDrive/Desktop/GD32VW553/V1_MQTT_OK/GD32VW55X_Wifi_BLE_SDK/GD32VW55x_RELEASE_V1.0.2/MSDK/lwip/lwip-2.1.2/src/core\altcp_tcp.c ****       } else {
 495:C:/Users/stapi/OneDrive/Desktop/GD32VW553/V1_MQTT_OK/GD32VW55X_Wifi_BLE_SDK/GD32VW55x_RELEASE_V1.0.2/MSDK/lwip/lwip-2.1.2/src/core\altcp_tcp.c ****         return pcb->remote_port;
 496:C:/Users/stapi/OneDrive/Desktop/GD32VW553/V1_MQTT_OK/GD32VW55X_Wifi_BLE_SDK/GD32VW55x_RELEASE_V1.0.2/MSDK/lwip/lwip-2.1.2/src/core\altcp_tcp.c ****       }
 497:C:/Users/stapi/OneDrive/Desktop/GD32VW553/V1_MQTT_OK/GD32VW55X_Wifi_BLE_SDK/GD32VW55x_RELEASE_V1.0.2/MSDK/lwip/lwip-2.1.2/src/core\altcp_tcp.c ****     }
 498:C:/Users/stapi/OneDrive/Desktop/GD32VW553/V1_MQTT_OK/GD32VW55X_Wifi_BLE_SDK/GD32VW55x_RELEASE_V1.0.2/MSDK/lwip/lwip-2.1.2/src/core\altcp_tcp.c ****   }
 499:C:/Users/stapi/OneDrive/Desktop/GD32VW553/V1_MQTT_OK/GD32VW55X_Wifi_BLE_SDK/GD32VW55x_RELEASE_V1.0.2/MSDK/lwip/lwip-2.1.2/src/core\altcp_tcp.c ****   return 0;
 581              		.loc 1 499 10 is_stmt 0 discriminator 2
 582 0036 0145     		li	a0,0
 583              	.LVL76:
 584              	.LBB35:
 491:C:/Users/stapi/OneDrive/Desktop/GD32VW553/V1_MQTT_OK/GD32VW55X_Wifi_BLE_SDK/GD32VW55x_RELEASE_V1.0.2/MSDK/lwip/lwip-2.1.2/src/core\altcp_tcp.c ****     if (pcb) {
 585              		.loc 1 491 8 discriminator 2
 586 0038 89CB     		beq	a5,zero,.L64
 492:C:/Users/stapi/OneDrive/Desktop/GD32VW553/V1_MQTT_OK/GD32VW55X_Wifi_BLE_SDK/GD32VW55x_RELEASE_V1.0.2/MSDK/lwip/lwip-2.1.2/src/core\altcp_tcp.c ****       if (local) {
 587              		.loc 1 492 7 is_stmt 1
 492:C:/Users/stapi/OneDrive/Desktop/GD32VW553/V1_MQTT_OK/GD32VW55X_Wifi_BLE_SDK/GD32VW55x_RELEASE_V1.0.2/MSDK/lwip/lwip-2.1.2/src/core\altcp_tcp.c ****       if (local) {
 588              		.loc 1 492 10 is_stmt 0
 589 003a 81C5     		beq	a1,zero,.L67
 493:C:/Users/stapi/OneDrive/Desktop/GD32VW553/V1_MQTT_OK/GD32VW55X_Wifi_BLE_SDK/GD32VW55x_RELEASE_V1.0.2/MSDK/lwip/lwip-2.1.2/src/core\altcp_tcp.c ****       } else {
 590              		.loc 1 493 9 is_stmt 1
 493:C:/Users/stapi/OneDrive/Desktop/GD32VW553/V1_MQTT_OK/GD32VW55X_Wifi_BLE_SDK/GD32VW55x_RELEASE_V1.0.2/MSDK/lwip/lwip-2.1.2/src/core\altcp_tcp.c ****       } else {
 591              		.loc 1 493 19 is_stmt 0
 592 003c 03D5A701 		lhu	a0,26(a5)
 593 0040 8280     		ret
 594              	.L67:
 495:C:/Users/stapi/OneDrive/Desktop/GD32VW553/V1_MQTT_OK/GD32VW55X_Wifi_BLE_SDK/GD32VW55x_RELEASE_V1.0.2/MSDK/lwip/lwip-2.1.2/src/core\altcp_tcp.c ****       }
 595              		.loc 1 495 9 is_stmt 1
 495:C:/Users/stapi/OneDrive/Desktop/GD32VW553/V1_MQTT_OK/GD32VW55X_Wifi_BLE_SDK/GD32VW55x_RELEASE_V1.0.2/MSDK/lwip/lwip-2.1.2/src/core\altcp_tcp.c ****       }
 596              		.loc 1 495 19 is_stmt 0
 597 0042 03D5C701 		lhu	a0,28(a5)
 598 0046 8280     		ret
 599              	.LVL77:
 600              	.L68:
 601              	.LBE35:
 602              		.loc 1 499 10
 603 0048 0145     		li	a0,0
 604              	.LVL78:
 605              	.L64:
 500:C:/Users/stapi/OneDrive/Desktop/GD32VW553/V1_MQTT_OK/GD32VW55X_Wifi_BLE_SDK/GD32VW55x_RELEASE_V1.0.2/MSDK/lwip/lwip-2.1.2/src/core\altcp_tcp.c **** }
 606              		.loc 1 500 1
 607 004a 8280     		ret
 608              		.cfi_endproc
 609              	.LFE36:
 611              		.section	.text.altcp_tcp_get_ip,"ax",@progbits
 612              		.align	1
 614              	altcp_tcp_get_ip:
 615              	.LFB35:
 470:C:/Users/stapi/OneDrive/Desktop/GD32VW553/V1_MQTT_OK/GD32VW55X_Wifi_BLE_SDK/GD32VW55x_RELEASE_V1.0.2/MSDK/lwip/lwip-2.1.2/src/core\altcp_tcp.c ****   if (conn) {
 616              		.loc 1 470 1 is_stmt 1
 617              		.cfi_startproc
 618              	.LVL79:
 471:C:/Users/stapi/OneDrive/Desktop/GD32VW553/V1_MQTT_OK/GD32VW55X_Wifi_BLE_SDK/GD32VW55x_RELEASE_V1.0.2/MSDK/lwip/lwip-2.1.2/src/core\altcp_tcp.c ****     struct tcp_pcb *pcb = (struct tcp_pcb *)conn->state;
 619              		.loc 1 471 3
 471:C:/Users/stapi/OneDrive/Desktop/GD32VW553/V1_MQTT_OK/GD32VW55X_Wifi_BLE_SDK/GD32VW55x_RELEASE_V1.0.2/MSDK/lwip/lwip-2.1.2/src/core\altcp_tcp.c ****     struct tcp_pcb *pcb = (struct tcp_pcb *)conn->state;
 620              		.loc 1 471 6 is_stmt 0
 621 0000 21C1     		beq	a0,zero,.L78
 622 0002 AA87     		mv	a5,a0
 623              	.LBB40:
 472:C:/Users/stapi/OneDrive/Desktop/GD32VW553/V1_MQTT_OK/GD32VW55X_Wifi_BLE_SDK/GD32VW55x_RELEASE_V1.0.2/MSDK/lwip/lwip-2.1.2/src/core\altcp_tcp.c ****     ALTCP_TCP_ASSERT_CONN(conn);
 624              		.loc 1 472 5 is_stmt 1
 473:C:/Users/stapi/OneDrive/Desktop/GD32VW553/V1_MQTT_OK/GD32VW55X_Wifi_BLE_SDK/GD32VW55x_RELEASE_V1.0.2/MSDK/lwip/lwip-2.1.2/src/core\altcp_tcp.c ****     if (pcb) {
 625              		.loc 1 473 5 is_stmt 0
 626 0004 DC43     		lw	a5,4(a5)
 472:C:/Users/stapi/OneDrive/Desktop/GD32VW553/V1_MQTT_OK/GD32VW55X_Wifi_BLE_SDK/GD32VW55x_RELEASE_V1.0.2/MSDK/lwip/lwip-2.1.2/src/core\altcp_tcp.c ****     ALTCP_TCP_ASSERT_CONN(conn);
 627              		.loc 1 472 21
 628 0006 4845     		lw	a0,12(a0)
 629              	.LVL80:
 473:C:/Users/stapi/OneDrive/Desktop/GD32VW553/V1_MQTT_OK/GD32VW55X_Wifi_BLE_SDK/GD32VW55x_RELEASE_V1.0.2/MSDK/lwip/lwip-2.1.2/src/core\altcp_tcp.c ****     if (pcb) {
 630              		.loc 1 473 5 is_stmt 1
 473:C:/Users/stapi/OneDrive/Desktop/GD32VW553/V1_MQTT_OK/GD32VW55X_Wifi_BLE_SDK/GD32VW55x_RELEASE_V1.0.2/MSDK/lwip/lwip-2.1.2/src/core\altcp_tcp.c ****     if (pcb) {
 631              		.loc 1 473 5
 473:C:/Users/stapi/OneDrive/Desktop/GD32VW553/V1_MQTT_OK/GD32VW55X_Wifi_BLE_SDK/GD32VW55x_RELEASE_V1.0.2/MSDK/lwip/lwip-2.1.2/src/core\altcp_tcp.c ****     if (pcb) {
 632              		.loc 1 473 5
 633 0008 85CB     		beq	a5,zero,.L75
 634              	.LBE40:
 470:C:/Users/stapi/OneDrive/Desktop/GD32VW553/V1_MQTT_OK/GD32VW55X_Wifi_BLE_SDK/GD32VW55x_RELEASE_V1.0.2/MSDK/lwip/lwip-2.1.2/src/core\altcp_tcp.c ****   if (conn) {
 635              		.loc 1 470 1 is_stmt 0
 636 000a 17030000 		call	t0,__riscv_save_0
 636      E7020300 
 637              		.cfi_offset 1, -4
 638              		.cfi_def_cfa_offset 16
 639              	.LVL81:
 640              	.LBB41:
 641              	.LBB42:
 473:C:/Users/stapi/OneDrive/Desktop/GD32VW553/V1_MQTT_OK/GD32VW55X_Wifi_BLE_SDK/GD32VW55x_RELEASE_V1.0.2/MSDK/lwip/lwip-2.1.2/src/core\altcp_tcp.c ****     if (pcb) {
 642              		.loc 1 473 5 is_stmt 1
 473:C:/Users/stapi/OneDrive/Desktop/GD32VW553/V1_MQTT_OK/GD32VW55X_Wifi_BLE_SDK/GD32VW55x_RELEASE_V1.0.2/MSDK/lwip/lwip-2.1.2/src/core\altcp_tcp.c ****     if (pcb) {
 643              		.loc 1 473 5
 644 0012 B7060000 		lui	a3,%hi(.LC0)
 645 0016 B7050000 		lui	a1,%hi(.LC3)
 646              	.LVL82:
 647 001a 37050000 		lui	a0,%hi(.LC2)
 648              	.LVL83:
 649 001e 93860600 		addi	a3,a3,%lo(.LC0)
 650 0022 1306901D 		li	a2,473
 651 0026 93850500 		addi	a1,a1,%lo(.LC3)
 652 002a 13050500 		addi	a0,a0,%lo(.LC2)
 653 002e 97000000 		call	printf
 653      E7800000 
 654              	.LVL84:
 655              	.L76:
 473:C:/Users/stapi/OneDrive/Desktop/GD32VW553/V1_MQTT_OK/GD32VW55X_Wifi_BLE_SDK/GD32VW55x_RELEASE_V1.0.2/MSDK/lwip/lwip-2.1.2/src/core\altcp_tcp.c ****     if (pcb) {
 656              		.loc 1 473 5
 473:C:/Users/stapi/OneDrive/Desktop/GD32VW553/V1_MQTT_OK/GD32VW55X_Wifi_BLE_SDK/GD32VW55x_RELEASE_V1.0.2/MSDK/lwip/lwip-2.1.2/src/core\altcp_tcp.c ****     if (pcb) {
 657              		.loc 1 473 5
 473:C:/Users/stapi/OneDrive/Desktop/GD32VW553/V1_MQTT_OK/GD32VW55X_Wifi_BLE_SDK/GD32VW55x_RELEASE_V1.0.2/MSDK/lwip/lwip-2.1.2/src/core\altcp_tcp.c ****     if (pcb) {
 658              		.loc 1 473 5
 659 0036 01A0     		j	.L76
 660              	.LVL85:
 661              	.L75:
 662              		.cfi_def_cfa_offset 0
 663              		.cfi_restore 1
 664              	.LBE42:
 665              	.LBE41:
 666              	.LBB43:
 473:C:/Users/stapi/OneDrive/Desktop/GD32VW553/V1_MQTT_OK/GD32VW55X_Wifi_BLE_SDK/GD32VW55x_RELEASE_V1.0.2/MSDK/lwip/lwip-2.1.2/src/core\altcp_tcp.c ****     if (pcb) {
 667              		.loc 1 473 5 discriminator 2
 473:C:/Users/stapi/OneDrive/Desktop/GD32VW553/V1_MQTT_OK/GD32VW55X_Wifi_BLE_SDK/GD32VW55x_RELEASE_V1.0.2/MSDK/lwip/lwip-2.1.2/src/core\altcp_tcp.c ****     if (pcb) {
 668              		.loc 1 473 5 discriminator 2
 473:C:/Users/stapi/OneDrive/Desktop/GD32VW553/V1_MQTT_OK/GD32VW55X_Wifi_BLE_SDK/GD32VW55x_RELEASE_V1.0.2/MSDK/lwip/lwip-2.1.2/src/core\altcp_tcp.c ****     if (pcb) {
 669              		.loc 1 473 5 discriminator 2
 473:C:/Users/stapi/OneDrive/Desktop/GD32VW553/V1_MQTT_OK/GD32VW55X_Wifi_BLE_SDK/GD32VW55x_RELEASE_V1.0.2/MSDK/lwip/lwip-2.1.2/src/core\altcp_tcp.c ****     if (pcb) {
 670              		.loc 1 473 5 discriminator 2
 474:C:/Users/stapi/OneDrive/Desktop/GD32VW553/V1_MQTT_OK/GD32VW55X_Wifi_BLE_SDK/GD32VW55x_RELEASE_V1.0.2/MSDK/lwip/lwip-2.1.2/src/core\altcp_tcp.c ****       if (local) {
 671              		.loc 1 474 5 discriminator 2
 474:C:/Users/stapi/OneDrive/Desktop/GD32VW553/V1_MQTT_OK/GD32VW55X_Wifi_BLE_SDK/GD32VW55x_RELEASE_V1.0.2/MSDK/lwip/lwip-2.1.2/src/core\altcp_tcp.c ****       if (local) {
 672              		.loc 1 474 8 is_stmt 0 discriminator 2
 673 0038 09C5     		beq	a0,zero,.L73
 475:C:/Users/stapi/OneDrive/Desktop/GD32VW553/V1_MQTT_OK/GD32VW55X_Wifi_BLE_SDK/GD32VW55x_RELEASE_V1.0.2/MSDK/lwip/lwip-2.1.2/src/core\altcp_tcp.c ****         return &pcb->local_ip;
 674              		.loc 1 475 7 is_stmt 1
 475:C:/Users/stapi/OneDrive/Desktop/GD32VW553/V1_MQTT_OK/GD32VW55X_Wifi_BLE_SDK/GD32VW55x_RELEASE_V1.0.2/MSDK/lwip/lwip-2.1.2/src/core\altcp_tcp.c ****         return &pcb->local_ip;
 675              		.loc 1 475 10 is_stmt 0
 676 003a 81E5     		bne	a1,zero,.L73
 478:C:/Users/stapi/OneDrive/Desktop/GD32VW553/V1_MQTT_OK/GD32VW55X_Wifi_BLE_SDK/GD32VW55x_RELEASE_V1.0.2/MSDK/lwip/lwip-2.1.2/src/core\altcp_tcp.c ****       }
 677              		.loc 1 478 9 is_stmt 1
 478:C:/Users/stapi/OneDrive/Desktop/GD32VW553/V1_MQTT_OK/GD32VW55X_Wifi_BLE_SDK/GD32VW55x_RELEASE_V1.0.2/MSDK/lwip/lwip-2.1.2/src/core\altcp_tcp.c ****       }
 678              		.loc 1 478 16 is_stmt 0
 679 003c 1105     		addi	a0,a0,4
 680              	.LVL86:
 681 003e 8280     		ret
 682              	.LVL87:
 683              	.L78:
 684              	.LBE43:
 482:C:/Users/stapi/OneDrive/Desktop/GD32VW553/V1_MQTT_OK/GD32VW55X_Wifi_BLE_SDK/GD32VW55x_RELEASE_V1.0.2/MSDK/lwip/lwip-2.1.2/src/core\altcp_tcp.c **** }
 685              		.loc 1 482 10
 686 0040 0145     		li	a0,0
 687              	.LVL88:
 688              	.L73:
 483:C:/Users/stapi/OneDrive/Desktop/GD32VW553/V1_MQTT_OK/GD32VW55X_Wifi_BLE_SDK/GD32VW55x_RELEASE_V1.0.2/MSDK/lwip/lwip-2.1.2/src/core\altcp_tcp.c **** 
 689              		.loc 1 483 1
 690 0042 8280     		ret
 691              		.cfi_endproc
 692              	.LFE35:
 694              		.section	.text.altcp_tcp_dealloc,"ax",@progbits
 695              		.align	1
 697              	altcp_tcp_dealloc:
 698              	.LFB33:
 451:C:/Users/stapi/OneDrive/Desktop/GD32VW553/V1_MQTT_OK/GD32VW55X_Wifi_BLE_SDK/GD32VW55x_RELEASE_V1.0.2/MSDK/lwip/lwip-2.1.2/src/core\altcp_tcp.c ****   LWIP_UNUSED_ARG(conn);
 699              		.loc 1 451 1 is_stmt 1
 700              		.cfi_startproc
 701              	.LVL89:
 452:C:/Users/stapi/OneDrive/Desktop/GD32VW553/V1_MQTT_OK/GD32VW55X_Wifi_BLE_SDK/GD32VW55x_RELEASE_V1.0.2/MSDK/lwip/lwip-2.1.2/src/core\altcp_tcp.c ****   ALTCP_TCP_ASSERT_CONN(conn);
 702              		.loc 1 452 3
 453:C:/Users/stapi/OneDrive/Desktop/GD32VW553/V1_MQTT_OK/GD32VW55X_Wifi_BLE_SDK/GD32VW55x_RELEASE_V1.0.2/MSDK/lwip/lwip-2.1.2/src/core\altcp_tcp.c ****   /* no private state to clean up */
 703              		.loc 1 453 3
 453:C:/Users/stapi/OneDrive/Desktop/GD32VW553/V1_MQTT_OK/GD32VW55X_Wifi_BLE_SDK/GD32VW55x_RELEASE_V1.0.2/MSDK/lwip/lwip-2.1.2/src/core\altcp_tcp.c ****   /* no private state to clean up */
 704              		.loc 1 453 3
 453:C:/Users/stapi/OneDrive/Desktop/GD32VW553/V1_MQTT_OK/GD32VW55X_Wifi_BLE_SDK/GD32VW55x_RELEASE_V1.0.2/MSDK/lwip/lwip-2.1.2/src/core\altcp_tcp.c ****   /* no private state to clean up */
 705              		.loc 1 453 3
 706 0000 5C41     		lw	a5,4(a0)
 707 0002 85CB     		beq	a5,zero,.L85
 451:C:/Users/stapi/OneDrive/Desktop/GD32VW553/V1_MQTT_OK/GD32VW55X_Wifi_BLE_SDK/GD32VW55x_RELEASE_V1.0.2/MSDK/lwip/lwip-2.1.2/src/core\altcp_tcp.c ****   LWIP_UNUSED_ARG(conn);
 708              		.loc 1 451 1 is_stmt 0
 709 0004 17030000 		call	t0,__riscv_save_0
 709      E7020300 
 710              		.cfi_offset 1, -4
 711              		.cfi_def_cfa_offset 16
 712              	.LVL90:
 713              	.LBB46:
 714              	.LBB47:
 453:C:/Users/stapi/OneDrive/Desktop/GD32VW553/V1_MQTT_OK/GD32VW55X_Wifi_BLE_SDK/GD32VW55x_RELEASE_V1.0.2/MSDK/lwip/lwip-2.1.2/src/core\altcp_tcp.c ****   /* no private state to clean up */
 715              		.loc 1 453 3 is_stmt 1
 453:C:/Users/stapi/OneDrive/Desktop/GD32VW553/V1_MQTT_OK/GD32VW55X_Wifi_BLE_SDK/GD32VW55x_RELEASE_V1.0.2/MSDK/lwip/lwip-2.1.2/src/core\altcp_tcp.c ****   /* no private state to clean up */
 716              		.loc 1 453 3
 717 000c B7060000 		lui	a3,%hi(.LC0)
 718 0010 B7050000 		lui	a1,%hi(.LC3)
 719 0014 37050000 		lui	a0,%hi(.LC2)
 720              	.LVL91:
 721 0018 93860600 		addi	a3,a3,%lo(.LC0)
 722 001c 1306501C 		li	a2,453
 723 0020 93850500 		addi	a1,a1,%lo(.LC3)
 724 0024 13050500 		addi	a0,a0,%lo(.LC2)
 725 0028 97000000 		call	printf
 725      E7800000 
 726              	.LVL92:
 727              	.L87:
 453:C:/Users/stapi/OneDrive/Desktop/GD32VW553/V1_MQTT_OK/GD32VW55X_Wifi_BLE_SDK/GD32VW55x_RELEASE_V1.0.2/MSDK/lwip/lwip-2.1.2/src/core\altcp_tcp.c ****   /* no private state to clean up */
 728              		.loc 1 453 3
 453:C:/Users/stapi/OneDrive/Desktop/GD32VW553/V1_MQTT_OK/GD32VW55X_Wifi_BLE_SDK/GD32VW55x_RELEASE_V1.0.2/MSDK/lwip/lwip-2.1.2/src/core\altcp_tcp.c ****   /* no private state to clean up */
 729              		.loc 1 453 3
 453:C:/Users/stapi/OneDrive/Desktop/GD32VW553/V1_MQTT_OK/GD32VW55X_Wifi_BLE_SDK/GD32VW55x_RELEASE_V1.0.2/MSDK/lwip/lwip-2.1.2/src/core\altcp_tcp.c ****   /* no private state to clean up */
 730              		.loc 1 453 3
 731 0030 01A0     		j	.L87
 732              	.LVL93:
 733              	.L85:
 734              		.cfi_def_cfa_offset 0
 735              		.cfi_restore 1
 736 0032 8280     		ret
 737              	.LBE47:
 738              	.LBE46:
 739              		.cfi_endproc
 740              	.LFE33:
 742              		.section	.text.altcp_tcp_nagle_disabled,"ax",@progbits
 743              		.align	1
 745              	altcp_tcp_nagle_disabled:
 746              	.LFB31:
 430:C:/Users/stapi/OneDrive/Desktop/GD32VW553/V1_MQTT_OK/GD32VW55X_Wifi_BLE_SDK/GD32VW55x_RELEASE_V1.0.2/MSDK/lwip/lwip-2.1.2/src/core\altcp_tcp.c ****   if (conn && conn->state) {
 747              		.loc 1 430 1
 748              		.cfi_startproc
 749              	.LVL94:
 431:C:/Users/stapi/OneDrive/Desktop/GD32VW553/V1_MQTT_OK/GD32VW55X_Wifi_BLE_SDK/GD32VW55x_RELEASE_V1.0.2/MSDK/lwip/lwip-2.1.2/src/core\altcp_tcp.c ****     struct tcp_pcb *pcb = (struct tcp_pcb *)conn->state;
 750              		.loc 1 431 3
 431:C:/Users/stapi/OneDrive/Desktop/GD32VW553/V1_MQTT_OK/GD32VW55X_Wifi_BLE_SDK/GD32VW55x_RELEASE_V1.0.2/MSDK/lwip/lwip-2.1.2/src/core\altcp_tcp.c ****     struct tcp_pcb *pcb = (struct tcp_pcb *)conn->state;
 751              		.loc 1 431 6 is_stmt 0
 752 0000 29C1     		beq	a0,zero,.L96
 431:C:/Users/stapi/OneDrive/Desktop/GD32VW553/V1_MQTT_OK/GD32VW55X_Wifi_BLE_SDK/GD32VW55x_RELEASE_V1.0.2/MSDK/lwip/lwip-2.1.2/src/core\altcp_tcp.c ****     struct tcp_pcb *pcb = (struct tcp_pcb *)conn->state;
 753              		.loc 1 431 19 discriminator 1
 754 0002 5C45     		lw	a5,12(a0)
 431:C:/Users/stapi/OneDrive/Desktop/GD32VW553/V1_MQTT_OK/GD32VW55X_Wifi_BLE_SDK/GD32VW55x_RELEASE_V1.0.2/MSDK/lwip/lwip-2.1.2/src/core\altcp_tcp.c ****     struct tcp_pcb *pcb = (struct tcp_pcb *)conn->state;
 755              		.loc 1 431 12 discriminator 1
 756 0004 9DCF     		beq	a5,zero,.L96
 757              	.LBB52:
 432:C:/Users/stapi/OneDrive/Desktop/GD32VW553/V1_MQTT_OK/GD32VW55X_Wifi_BLE_SDK/GD32VW55x_RELEASE_V1.0.2/MSDK/lwip/lwip-2.1.2/src/core\altcp_tcp.c ****     ALTCP_TCP_ASSERT_CONN(conn);
 758              		.loc 1 432 5 is_stmt 1
 759              	.LVL95:
 433:C:/Users/stapi/OneDrive/Desktop/GD32VW553/V1_MQTT_OK/GD32VW55X_Wifi_BLE_SDK/GD32VW55x_RELEASE_V1.0.2/MSDK/lwip/lwip-2.1.2/src/core\altcp_tcp.c ****     return tcp_nagle_disabled(pcb);
 760              		.loc 1 433 5
 433:C:/Users/stapi/OneDrive/Desktop/GD32VW553/V1_MQTT_OK/GD32VW55X_Wifi_BLE_SDK/GD32VW55x_RELEASE_V1.0.2/MSDK/lwip/lwip-2.1.2/src/core\altcp_tcp.c ****     return tcp_nagle_disabled(pcb);
 761              		.loc 1 433 5
 433:C:/Users/stapi/OneDrive/Desktop/GD32VW553/V1_MQTT_OK/GD32VW55X_Wifi_BLE_SDK/GD32VW55x_RELEASE_V1.0.2/MSDK/lwip/lwip-2.1.2/src/core\altcp_tcp.c ****     return tcp_nagle_disabled(pcb);
 762              		.loc 1 433 5
 763 0006 5841     		lw	a4,4(a0)
 764 0008 05CB     		beq	a4,zero,.L93
 765              	.LBE52:
 430:C:/Users/stapi/OneDrive/Desktop/GD32VW553/V1_MQTT_OK/GD32VW55X_Wifi_BLE_SDK/GD32VW55x_RELEASE_V1.0.2/MSDK/lwip/lwip-2.1.2/src/core\altcp_tcp.c ****   if (conn && conn->state) {
 766              		.loc 1 430 1 is_stmt 0
 767 000a 17030000 		call	t0,__riscv_save_0
 767      E7020300 
 768              		.cfi_offset 1, -4
 769              		.cfi_def_cfa_offset 16
 770              	.LVL96:
 771              	.LBB53:
 772              	.LBB54:
 433:C:/Users/stapi/OneDrive/Desktop/GD32VW553/V1_MQTT_OK/GD32VW55X_Wifi_BLE_SDK/GD32VW55x_RELEASE_V1.0.2/MSDK/lwip/lwip-2.1.2/src/core\altcp_tcp.c ****     return tcp_nagle_disabled(pcb);
 773              		.loc 1 433 5 is_stmt 1
 433:C:/Users/stapi/OneDrive/Desktop/GD32VW553/V1_MQTT_OK/GD32VW55X_Wifi_BLE_SDK/GD32VW55x_RELEASE_V1.0.2/MSDK/lwip/lwip-2.1.2/src/core\altcp_tcp.c ****     return tcp_nagle_disabled(pcb);
 774              		.loc 1 433 5
 775 0012 B7060000 		lui	a3,%hi(.LC0)
 776 0016 B7050000 		lui	a1,%hi(.LC3)
 777 001a 37050000 		lui	a0,%hi(.LC2)
 778              	.LVL97:
 779 001e 93860600 		addi	a3,a3,%lo(.LC0)
 780 0022 1306101B 		li	a2,433
 781 0026 93850500 		addi	a1,a1,%lo(.LC3)
 782 002a 13050500 		addi	a0,a0,%lo(.LC2)
 783 002e 97000000 		call	printf
 783      E7800000 
 784              	.LVL98:
 785              	.L94:
 433:C:/Users/stapi/OneDrive/Desktop/GD32VW553/V1_MQTT_OK/GD32VW55X_Wifi_BLE_SDK/GD32VW55x_RELEASE_V1.0.2/MSDK/lwip/lwip-2.1.2/src/core\altcp_tcp.c ****     return tcp_nagle_disabled(pcb);
 786              		.loc 1 433 5
 433:C:/Users/stapi/OneDrive/Desktop/GD32VW553/V1_MQTT_OK/GD32VW55X_Wifi_BLE_SDK/GD32VW55x_RELEASE_V1.0.2/MSDK/lwip/lwip-2.1.2/src/core\altcp_tcp.c ****     return tcp_nagle_disabled(pcb);
 787              		.loc 1 433 5
 433:C:/Users/stapi/OneDrive/Desktop/GD32VW553/V1_MQTT_OK/GD32VW55X_Wifi_BLE_SDK/GD32VW55x_RELEASE_V1.0.2/MSDK/lwip/lwip-2.1.2/src/core\altcp_tcp.c ****     return tcp_nagle_disabled(pcb);
 788              		.loc 1 433 5
 789 0036 01A0     		j	.L94
 790              	.LVL99:
 791              	.L93:
 792              		.cfi_def_cfa_offset 0
 793              		.cfi_restore 1
 794              	.LBE54:
 795              	.LBE53:
 796              	.LBB55:
 433:C:/Users/stapi/OneDrive/Desktop/GD32VW553/V1_MQTT_OK/GD32VW55X_Wifi_BLE_SDK/GD32VW55x_RELEASE_V1.0.2/MSDK/lwip/lwip-2.1.2/src/core\altcp_tcp.c ****     return tcp_nagle_disabled(pcb);
 797              		.loc 1 433 5 discriminator 2
 433:C:/Users/stapi/OneDrive/Desktop/GD32VW553/V1_MQTT_OK/GD32VW55X_Wifi_BLE_SDK/GD32VW55x_RELEASE_V1.0.2/MSDK/lwip/lwip-2.1.2/src/core\altcp_tcp.c ****     return tcp_nagle_disabled(pcb);
 798              		.loc 1 433 5 discriminator 2
 433:C:/Users/stapi/OneDrive/Desktop/GD32VW553/V1_MQTT_OK/GD32VW55X_Wifi_BLE_SDK/GD32VW55x_RELEASE_V1.0.2/MSDK/lwip/lwip-2.1.2/src/core\altcp_tcp.c ****     return tcp_nagle_disabled(pcb);
 799              		.loc 1 433 5 discriminator 2
 433:C:/Users/stapi/OneDrive/Desktop/GD32VW553/V1_MQTT_OK/GD32VW55X_Wifi_BLE_SDK/GD32VW55x_RELEASE_V1.0.2/MSDK/lwip/lwip-2.1.2/src/core\altcp_tcp.c ****     return tcp_nagle_disabled(pcb);
 800              		.loc 1 433 5 discriminator 2
 434:C:/Users/stapi/OneDrive/Desktop/GD32VW553/V1_MQTT_OK/GD32VW55X_Wifi_BLE_SDK/GD32VW55x_RELEASE_V1.0.2/MSDK/lwip/lwip-2.1.2/src/core\altcp_tcp.c ****   }
 801              		.loc 1 434 5 discriminator 2
 434:C:/Users/stapi/OneDrive/Desktop/GD32VW553/V1_MQTT_OK/GD32VW55X_Wifi_BLE_SDK/GD32VW55x_RELEASE_V1.0.2/MSDK/lwip/lwip-2.1.2/src/core\altcp_tcp.c ****   }
 802              		.loc 1 434 12 is_stmt 0 discriminator 2
 803 0038 03D5E701 		lhu	a0,30(a5)
 804              	.LVL100:
 805 003c 13556548 		bexti	a0,a0,6
 806 0040 8280     		ret
 807              	.LVL101:
 808              	.L96:
 809              	.LBE55:
 436:C:/Users/stapi/OneDrive/Desktop/GD32VW553/V1_MQTT_OK/GD32VW55X_Wifi_BLE_SDK/GD32VW55x_RELEASE_V1.0.2/MSDK/lwip/lwip-2.1.2/src/core\altcp_tcp.c **** }
 810              		.loc 1 436 10
 811 0042 0145     		li	a0,0
 812              	.LVL102:
 437:C:/Users/stapi/OneDrive/Desktop/GD32VW553/V1_MQTT_OK/GD32VW55X_Wifi_BLE_SDK/GD32VW55x_RELEASE_V1.0.2/MSDK/lwip/lwip-2.1.2/src/core\altcp_tcp.c **** 
 813              		.loc 1 437 1
 814 0044 8280     		ret
 815              		.cfi_endproc
 816              	.LFE31:
 818              		.section	.text.altcp_tcp_nagle_enable,"ax",@progbits
 819              		.align	1
 821              	altcp_tcp_nagle_enable:
 822              	.LFB30:
 420:C:/Users/stapi/OneDrive/Desktop/GD32VW553/V1_MQTT_OK/GD32VW55X_Wifi_BLE_SDK/GD32VW55x_RELEASE_V1.0.2/MSDK/lwip/lwip-2.1.2/src/core\altcp_tcp.c ****   if (conn && conn->state) {
 823              		.loc 1 420 1 is_stmt 1
 824              		.cfi_startproc
 825              	.LVL103:
 421:C:/Users/stapi/OneDrive/Desktop/GD32VW553/V1_MQTT_OK/GD32VW55X_Wifi_BLE_SDK/GD32VW55x_RELEASE_V1.0.2/MSDK/lwip/lwip-2.1.2/src/core\altcp_tcp.c ****     struct tcp_pcb *pcb = (struct tcp_pcb *)conn->state;
 826              		.loc 1 421 3
 421:C:/Users/stapi/OneDrive/Desktop/GD32VW553/V1_MQTT_OK/GD32VW55X_Wifi_BLE_SDK/GD32VW55x_RELEASE_V1.0.2/MSDK/lwip/lwip-2.1.2/src/core\altcp_tcp.c ****     struct tcp_pcb *pcb = (struct tcp_pcb *)conn->state;
 827              		.loc 1 421 6 is_stmt 0
 828 0000 31C1     		beq	a0,zero,.L100
 421:C:/Users/stapi/OneDrive/Desktop/GD32VW553/V1_MQTT_OK/GD32VW55X_Wifi_BLE_SDK/GD32VW55x_RELEASE_V1.0.2/MSDK/lwip/lwip-2.1.2/src/core\altcp_tcp.c ****     struct tcp_pcb *pcb = (struct tcp_pcb *)conn->state;
 829              		.loc 1 421 19 discriminator 1
 830 0002 5C45     		lw	a5,12(a0)
 421:C:/Users/stapi/OneDrive/Desktop/GD32VW553/V1_MQTT_OK/GD32VW55X_Wifi_BLE_SDK/GD32VW55x_RELEASE_V1.0.2/MSDK/lwip/lwip-2.1.2/src/core\altcp_tcp.c ****     struct tcp_pcb *pcb = (struct tcp_pcb *)conn->state;
 831              		.loc 1 421 12 discriminator 1
 832 0004 A1C3     		beq	a5,zero,.L100
 833              	.LBB60:
 422:C:/Users/stapi/OneDrive/Desktop/GD32VW553/V1_MQTT_OK/GD32VW55X_Wifi_BLE_SDK/GD32VW55x_RELEASE_V1.0.2/MSDK/lwip/lwip-2.1.2/src/core\altcp_tcp.c ****     ALTCP_TCP_ASSERT_CONN(conn);
 834              		.loc 1 422 5 is_stmt 1
 835              	.LVL104:
 423:C:/Users/stapi/OneDrive/Desktop/GD32VW553/V1_MQTT_OK/GD32VW55X_Wifi_BLE_SDK/GD32VW55x_RELEASE_V1.0.2/MSDK/lwip/lwip-2.1.2/src/core\altcp_tcp.c ****     tcp_nagle_enable(pcb);
 836              		.loc 1 423 5
 423:C:/Users/stapi/OneDrive/Desktop/GD32VW553/V1_MQTT_OK/GD32VW55X_Wifi_BLE_SDK/GD32VW55x_RELEASE_V1.0.2/MSDK/lwip/lwip-2.1.2/src/core\altcp_tcp.c ****     tcp_nagle_enable(pcb);
 837              		.loc 1 423 5
 423:C:/Users/stapi/OneDrive/Desktop/GD32VW553/V1_MQTT_OK/GD32VW55X_Wifi_BLE_SDK/GD32VW55x_RELEASE_V1.0.2/MSDK/lwip/lwip-2.1.2/src/core\altcp_tcp.c ****     tcp_nagle_enable(pcb);
 838              		.loc 1 423 5
 839 0006 5841     		lw	a4,4(a0)
 840 0008 05CB     		beq	a4,zero,.L102
 841              	.LBE60:
 420:C:/Users/stapi/OneDrive/Desktop/GD32VW553/V1_MQTT_OK/GD32VW55X_Wifi_BLE_SDK/GD32VW55x_RELEASE_V1.0.2/MSDK/lwip/lwip-2.1.2/src/core\altcp_tcp.c ****   if (conn && conn->state) {
 842              		.loc 1 420 1 is_stmt 0
 843 000a 17030000 		call	t0,__riscv_save_0
 843      E7020300 
 844              		.cfi_offset 1, -4
 845              		.cfi_def_cfa_offset 16
 846              	.LVL105:
 847              	.LBB61:
 848              	.LBB62:
 423:C:/Users/stapi/OneDrive/Desktop/GD32VW553/V1_MQTT_OK/GD32VW55X_Wifi_BLE_SDK/GD32VW55x_RELEASE_V1.0.2/MSDK/lwip/lwip-2.1.2/src/core\altcp_tcp.c ****     tcp_nagle_enable(pcb);
 849              		.loc 1 423 5 is_stmt 1
 423:C:/Users/stapi/OneDrive/Desktop/GD32VW553/V1_MQTT_OK/GD32VW55X_Wifi_BLE_SDK/GD32VW55x_RELEASE_V1.0.2/MSDK/lwip/lwip-2.1.2/src/core\altcp_tcp.c ****     tcp_nagle_enable(pcb);
 850              		.loc 1 423 5
 851 0012 B7060000 		lui	a3,%hi(.LC0)
 852 0016 B7050000 		lui	a1,%hi(.LC3)
 853 001a 37050000 		lui	a0,%hi(.LC2)
 854              	.LVL106:
 855 001e 93860600 		addi	a3,a3,%lo(.LC0)
 856 0022 1306701A 		li	a2,423
 857 0026 93850500 		addi	a1,a1,%lo(.LC3)
 858 002a 13050500 		addi	a0,a0,%lo(.LC2)
 859 002e 97000000 		call	printf
 859      E7800000 
 860              	.LVL107:
 861              	.L103:
 423:C:/Users/stapi/OneDrive/Desktop/GD32VW553/V1_MQTT_OK/GD32VW55X_Wifi_BLE_SDK/GD32VW55x_RELEASE_V1.0.2/MSDK/lwip/lwip-2.1.2/src/core\altcp_tcp.c ****     tcp_nagle_enable(pcb);
 862              		.loc 1 423 5
 423:C:/Users/stapi/OneDrive/Desktop/GD32VW553/V1_MQTT_OK/GD32VW55X_Wifi_BLE_SDK/GD32VW55x_RELEASE_V1.0.2/MSDK/lwip/lwip-2.1.2/src/core\altcp_tcp.c ****     tcp_nagle_enable(pcb);
 863              		.loc 1 423 5
 423:C:/Users/stapi/OneDrive/Desktop/GD32VW553/V1_MQTT_OK/GD32VW55X_Wifi_BLE_SDK/GD32VW55x_RELEASE_V1.0.2/MSDK/lwip/lwip-2.1.2/src/core\altcp_tcp.c ****     tcp_nagle_enable(pcb);
 864              		.loc 1 423 5
 865 0036 01A0     		j	.L103
 866              	.LVL108:
 867              	.L102:
 868              		.cfi_def_cfa_offset 0
 869              		.cfi_restore 1
 870              	.LBE62:
 871              	.LBE61:
 872              	.LBB63:
 423:C:/Users/stapi/OneDrive/Desktop/GD32VW553/V1_MQTT_OK/GD32VW55X_Wifi_BLE_SDK/GD32VW55x_RELEASE_V1.0.2/MSDK/lwip/lwip-2.1.2/src/core\altcp_tcp.c ****     tcp_nagle_enable(pcb);
 873              		.loc 1 423 5 discriminator 2
 423:C:/Users/stapi/OneDrive/Desktop/GD32VW553/V1_MQTT_OK/GD32VW55X_Wifi_BLE_SDK/GD32VW55x_RELEASE_V1.0.2/MSDK/lwip/lwip-2.1.2/src/core\altcp_tcp.c ****     tcp_nagle_enable(pcb);
 874              		.loc 1 423 5 discriminator 2
 423:C:/Users/stapi/OneDrive/Desktop/GD32VW553/V1_MQTT_OK/GD32VW55X_Wifi_BLE_SDK/GD32VW55x_RELEASE_V1.0.2/MSDK/lwip/lwip-2.1.2/src/core\altcp_tcp.c ****     tcp_nagle_enable(pcb);
 875              		.loc 1 423 5 discriminator 2
 423:C:/Users/stapi/OneDrive/Desktop/GD32VW553/V1_MQTT_OK/GD32VW55X_Wifi_BLE_SDK/GD32VW55x_RELEASE_V1.0.2/MSDK/lwip/lwip-2.1.2/src/core\altcp_tcp.c ****     tcp_nagle_enable(pcb);
 876              		.loc 1 423 5 discriminator 2
 424:C:/Users/stapi/OneDrive/Desktop/GD32VW553/V1_MQTT_OK/GD32VW55X_Wifi_BLE_SDK/GD32VW55x_RELEASE_V1.0.2/MSDK/lwip/lwip-2.1.2/src/core\altcp_tcp.c ****   }
 877              		.loc 1 424 5 discriminator 2
 424:C:/Users/stapi/OneDrive/Desktop/GD32VW553/V1_MQTT_OK/GD32VW55X_Wifi_BLE_SDK/GD32VW55x_RELEASE_V1.0.2/MSDK/lwip/lwip-2.1.2/src/core\altcp_tcp.c ****   }
 878              		.loc 1 424 5 discriminator 2
 879 0038 03D7E701 		lhu	a4,30(a5)
 880 003c 1377F7FB 		andi	a4,a4,-65
 881 0040 239FE700 		sh	a4,30(a5)
 424:C:/Users/stapi/OneDrive/Desktop/GD32VW553/V1_MQTT_OK/GD32VW55X_Wifi_BLE_SDK/GD32VW55x_RELEASE_V1.0.2/MSDK/lwip/lwip-2.1.2/src/core\altcp_tcp.c ****   }
 882              		.loc 1 424 5 discriminator 2
 883              	.LVL109:
 884              	.L100:
 885 0044 8280     		ret
 886              	.LBE63:
 887              		.cfi_endproc
 888              	.LFE30:
 890              		.section	.text.altcp_tcp_nagle_disable,"ax",@progbits
 891              		.align	1
 893              	altcp_tcp_nagle_disable:
 894              	.LFB29:
 410:C:/Users/stapi/OneDrive/Desktop/GD32VW553/V1_MQTT_OK/GD32VW55X_Wifi_BLE_SDK/GD32VW55x_RELEASE_V1.0.2/MSDK/lwip/lwip-2.1.2/src/core\altcp_tcp.c ****   if (conn && conn->state) {
 895              		.loc 1 410 1
 896              		.cfi_startproc
 897              	.LVL110:
 411:C:/Users/stapi/OneDrive/Desktop/GD32VW553/V1_MQTT_OK/GD32VW55X_Wifi_BLE_SDK/GD32VW55x_RELEASE_V1.0.2/MSDK/lwip/lwip-2.1.2/src/core\altcp_tcp.c ****     struct tcp_pcb *pcb = (struct tcp_pcb *)conn->state;
 898              		.loc 1 411 3
 411:C:/Users/stapi/OneDrive/Desktop/GD32VW553/V1_MQTT_OK/GD32VW55X_Wifi_BLE_SDK/GD32VW55x_RELEASE_V1.0.2/MSDK/lwip/lwip-2.1.2/src/core\altcp_tcp.c ****     struct tcp_pcb *pcb = (struct tcp_pcb *)conn->state;
 899              		.loc 1 411 6 is_stmt 0
 900 0000 31C1     		beq	a0,zero,.L113
 411:C:/Users/stapi/OneDrive/Desktop/GD32VW553/V1_MQTT_OK/GD32VW55X_Wifi_BLE_SDK/GD32VW55x_RELEASE_V1.0.2/MSDK/lwip/lwip-2.1.2/src/core\altcp_tcp.c ****     struct tcp_pcb *pcb = (struct tcp_pcb *)conn->state;
 901              		.loc 1 411 19 discriminator 1
 902 0002 5C45     		lw	a5,12(a0)
 411:C:/Users/stapi/OneDrive/Desktop/GD32VW553/V1_MQTT_OK/GD32VW55X_Wifi_BLE_SDK/GD32VW55x_RELEASE_V1.0.2/MSDK/lwip/lwip-2.1.2/src/core\altcp_tcp.c ****     struct tcp_pcb *pcb = (struct tcp_pcb *)conn->state;
 903              		.loc 1 411 12 discriminator 1
 904 0004 A1C3     		beq	a5,zero,.L113
 905              	.LBB68:
 412:C:/Users/stapi/OneDrive/Desktop/GD32VW553/V1_MQTT_OK/GD32VW55X_Wifi_BLE_SDK/GD32VW55x_RELEASE_V1.0.2/MSDK/lwip/lwip-2.1.2/src/core\altcp_tcp.c ****     ALTCP_TCP_ASSERT_CONN(conn);
 906              		.loc 1 412 5 is_stmt 1
 907              	.LVL111:
 413:C:/Users/stapi/OneDrive/Desktop/GD32VW553/V1_MQTT_OK/GD32VW55X_Wifi_BLE_SDK/GD32VW55x_RELEASE_V1.0.2/MSDK/lwip/lwip-2.1.2/src/core\altcp_tcp.c ****     tcp_nagle_disable(pcb);
 908              		.loc 1 413 5
 413:C:/Users/stapi/OneDrive/Desktop/GD32VW553/V1_MQTT_OK/GD32VW55X_Wifi_BLE_SDK/GD32VW55x_RELEASE_V1.0.2/MSDK/lwip/lwip-2.1.2/src/core\altcp_tcp.c ****     tcp_nagle_disable(pcb);
 909              		.loc 1 413 5
 413:C:/Users/stapi/OneDrive/Desktop/GD32VW553/V1_MQTT_OK/GD32VW55X_Wifi_BLE_SDK/GD32VW55x_RELEASE_V1.0.2/MSDK/lwip/lwip-2.1.2/src/core\altcp_tcp.c ****     tcp_nagle_disable(pcb);
 910              		.loc 1 413 5
 911 0006 5841     		lw	a4,4(a0)
 912 0008 05CB     		beq	a4,zero,.L115
 913              	.LBE68:
 410:C:/Users/stapi/OneDrive/Desktop/GD32VW553/V1_MQTT_OK/GD32VW55X_Wifi_BLE_SDK/GD32VW55x_RELEASE_V1.0.2/MSDK/lwip/lwip-2.1.2/src/core\altcp_tcp.c ****   if (conn && conn->state) {
 914              		.loc 1 410 1 is_stmt 0
 915 000a 17030000 		call	t0,__riscv_save_0
 915      E7020300 
 916              		.cfi_offset 1, -4
 917              		.cfi_def_cfa_offset 16
 918              	.LVL112:
 919              	.LBB69:
 920              	.LBB70:
 413:C:/Users/stapi/OneDrive/Desktop/GD32VW553/V1_MQTT_OK/GD32VW55X_Wifi_BLE_SDK/GD32VW55x_RELEASE_V1.0.2/MSDK/lwip/lwip-2.1.2/src/core\altcp_tcp.c ****     tcp_nagle_disable(pcb);
 921              		.loc 1 413 5 is_stmt 1
 413:C:/Users/stapi/OneDrive/Desktop/GD32VW553/V1_MQTT_OK/GD32VW55X_Wifi_BLE_SDK/GD32VW55x_RELEASE_V1.0.2/MSDK/lwip/lwip-2.1.2/src/core\altcp_tcp.c ****     tcp_nagle_disable(pcb);
 922              		.loc 1 413 5
 923 0012 B7060000 		lui	a3,%hi(.LC0)
 924 0016 B7050000 		lui	a1,%hi(.LC3)
 925 001a 37050000 		lui	a0,%hi(.LC2)
 926              	.LVL113:
 927 001e 93860600 		addi	a3,a3,%lo(.LC0)
 928 0022 1306D019 		li	a2,413
 929 0026 93850500 		addi	a1,a1,%lo(.LC3)
 930 002a 13050500 		addi	a0,a0,%lo(.LC2)
 931 002e 97000000 		call	printf
 931      E7800000 
 932              	.LVL114:
 933              	.L116:
 413:C:/Users/stapi/OneDrive/Desktop/GD32VW553/V1_MQTT_OK/GD32VW55X_Wifi_BLE_SDK/GD32VW55x_RELEASE_V1.0.2/MSDK/lwip/lwip-2.1.2/src/core\altcp_tcp.c ****     tcp_nagle_disable(pcb);
 934              		.loc 1 413 5
 413:C:/Users/stapi/OneDrive/Desktop/GD32VW553/V1_MQTT_OK/GD32VW55X_Wifi_BLE_SDK/GD32VW55x_RELEASE_V1.0.2/MSDK/lwip/lwip-2.1.2/src/core\altcp_tcp.c ****     tcp_nagle_disable(pcb);
 935              		.loc 1 413 5
 413:C:/Users/stapi/OneDrive/Desktop/GD32VW553/V1_MQTT_OK/GD32VW55X_Wifi_BLE_SDK/GD32VW55x_RELEASE_V1.0.2/MSDK/lwip/lwip-2.1.2/src/core\altcp_tcp.c ****     tcp_nagle_disable(pcb);
 936              		.loc 1 413 5
 937 0036 01A0     		j	.L116
 938              	.LVL115:
 939              	.L115:
 940              		.cfi_def_cfa_offset 0
 941              		.cfi_restore 1
 942              	.LBE70:
 943              	.LBE69:
 944              	.LBB71:
 413:C:/Users/stapi/OneDrive/Desktop/GD32VW553/V1_MQTT_OK/GD32VW55X_Wifi_BLE_SDK/GD32VW55x_RELEASE_V1.0.2/MSDK/lwip/lwip-2.1.2/src/core\altcp_tcp.c ****     tcp_nagle_disable(pcb);
 945              		.loc 1 413 5 discriminator 2
 413:C:/Users/stapi/OneDrive/Desktop/GD32VW553/V1_MQTT_OK/GD32VW55X_Wifi_BLE_SDK/GD32VW55x_RELEASE_V1.0.2/MSDK/lwip/lwip-2.1.2/src/core\altcp_tcp.c ****     tcp_nagle_disable(pcb);
 946              		.loc 1 413 5 discriminator 2
 413:C:/Users/stapi/OneDrive/Desktop/GD32VW553/V1_MQTT_OK/GD32VW55X_Wifi_BLE_SDK/GD32VW55x_RELEASE_V1.0.2/MSDK/lwip/lwip-2.1.2/src/core\altcp_tcp.c ****     tcp_nagle_disable(pcb);
 947              		.loc 1 413 5 discriminator 2
 413:C:/Users/stapi/OneDrive/Desktop/GD32VW553/V1_MQTT_OK/GD32VW55X_Wifi_BLE_SDK/GD32VW55x_RELEASE_V1.0.2/MSDK/lwip/lwip-2.1.2/src/core\altcp_tcp.c ****     tcp_nagle_disable(pcb);
 948              		.loc 1 413 5 discriminator 2
 414:C:/Users/stapi/OneDrive/Desktop/GD32VW553/V1_MQTT_OK/GD32VW55X_Wifi_BLE_SDK/GD32VW55x_RELEASE_V1.0.2/MSDK/lwip/lwip-2.1.2/src/core\altcp_tcp.c ****   }
 949              		.loc 1 414 5 discriminator 2
 414:C:/Users/stapi/OneDrive/Desktop/GD32VW553/V1_MQTT_OK/GD32VW55X_Wifi_BLE_SDK/GD32VW55x_RELEASE_V1.0.2/MSDK/lwip/lwip-2.1.2/src/core\altcp_tcp.c ****   }
 950              		.loc 1 414 5 discriminator 2
 951 0038 03D7E701 		lhu	a4,30(a5)
 952 003c 13670704 		ori	a4,a4,64
 953 0040 239FE700 		sh	a4,30(a5)
 414:C:/Users/stapi/OneDrive/Desktop/GD32VW553/V1_MQTT_OK/GD32VW55X_Wifi_BLE_SDK/GD32VW55x_RELEASE_V1.0.2/MSDK/lwip/lwip-2.1.2/src/core\altcp_tcp.c ****   }
 954              		.loc 1 414 5 discriminator 2
 955              	.LVL116:
 956              	.L113:
 957 0044 8280     		ret
 958              	.LBE71:
 959              		.cfi_endproc
 960              	.LFE29:
 962              		.section	.text.altcp_tcp_sndqueuelen,"ax",@progbits
 963              		.align	1
 965              	altcp_tcp_sndqueuelen:
 966              	.LFB28:
 398:C:/Users/stapi/OneDrive/Desktop/GD32VW553/V1_MQTT_OK/GD32VW55X_Wifi_BLE_SDK/GD32VW55x_RELEASE_V1.0.2/MSDK/lwip/lwip-2.1.2/src/core\altcp_tcp.c ****   struct tcp_pcb *pcb;
 967              		.loc 1 398 1
 968              		.cfi_startproc
 969              	.LVL117:
 399:C:/Users/stapi/OneDrive/Desktop/GD32VW553/V1_MQTT_OK/GD32VW55X_Wifi_BLE_SDK/GD32VW55x_RELEASE_V1.0.2/MSDK/lwip/lwip-2.1.2/src/core\altcp_tcp.c ****   if (conn == NULL) {
 970              		.loc 1 399 3
 400:C:/Users/stapi/OneDrive/Desktop/GD32VW553/V1_MQTT_OK/GD32VW55X_Wifi_BLE_SDK/GD32VW55x_RELEASE_V1.0.2/MSDK/lwip/lwip-2.1.2/src/core\altcp_tcp.c ****     return 0;
 971              		.loc 1 400 3
 400:C:/Users/stapi/OneDrive/Desktop/GD32VW553/V1_MQTT_OK/GD32VW55X_Wifi_BLE_SDK/GD32VW55x_RELEASE_V1.0.2/MSDK/lwip/lwip-2.1.2/src/core\altcp_tcp.c ****     return 0;
 972              		.loc 1 400 6 is_stmt 0
 973 0000 15CD     		beq	a0,zero,.L130
 403:C:/Users/stapi/OneDrive/Desktop/GD32VW553/V1_MQTT_OK/GD32VW55X_Wifi_BLE_SDK/GD32VW55x_RELEASE_V1.0.2/MSDK/lwip/lwip-2.1.2/src/core\altcp_tcp.c ****   pcb = (struct tcp_pcb *)conn->state;
 974              		.loc 1 403 3 is_stmt 1
 403:C:/Users/stapi/OneDrive/Desktop/GD32VW553/V1_MQTT_OK/GD32VW55X_Wifi_BLE_SDK/GD32VW55x_RELEASE_V1.0.2/MSDK/lwip/lwip-2.1.2/src/core\altcp_tcp.c ****   pcb = (struct tcp_pcb *)conn->state;
 975              		.loc 1 403 3
 403:C:/Users/stapi/OneDrive/Desktop/GD32VW553/V1_MQTT_OK/GD32VW55X_Wifi_BLE_SDK/GD32VW55x_RELEASE_V1.0.2/MSDK/lwip/lwip-2.1.2/src/core\altcp_tcp.c ****   pcb = (struct tcp_pcb *)conn->state;
 976              		.loc 1 403 3
 977 0002 5C41     		lw	a5,4(a0)
 978 0004 85CB     		beq	a5,zero,.L128
 398:C:/Users/stapi/OneDrive/Desktop/GD32VW553/V1_MQTT_OK/GD32VW55X_Wifi_BLE_SDK/GD32VW55x_RELEASE_V1.0.2/MSDK/lwip/lwip-2.1.2/src/core\altcp_tcp.c ****   struct tcp_pcb *pcb;
 979              		.loc 1 398 1 is_stmt 0
 980 0006 17030000 		call	t0,__riscv_save_0
 980      E7020300 
 981              		.cfi_offset 1, -4
 982              		.cfi_def_cfa_offset 16
 983              	.LVL118:
 984              	.LBB74:
 985              	.LBB75:
 403:C:/Users/stapi/OneDrive/Desktop/GD32VW553/V1_MQTT_OK/GD32VW55X_Wifi_BLE_SDK/GD32VW55x_RELEASE_V1.0.2/MSDK/lwip/lwip-2.1.2/src/core\altcp_tcp.c ****   pcb = (struct tcp_pcb *)conn->state;
 986              		.loc 1 403 3 is_stmt 1
 403:C:/Users/stapi/OneDrive/Desktop/GD32VW553/V1_MQTT_OK/GD32VW55X_Wifi_BLE_SDK/GD32VW55x_RELEASE_V1.0.2/MSDK/lwip/lwip-2.1.2/src/core\altcp_tcp.c ****   pcb = (struct tcp_pcb *)conn->state;
 987              		.loc 1 403 3
 988 000e B7060000 		lui	a3,%hi(.LC0)
 989 0012 B7050000 		lui	a1,%hi(.LC3)
 990 0016 37050000 		lui	a0,%hi(.LC2)
 991              	.LVL119:
 992 001a 93860600 		addi	a3,a3,%lo(.LC0)
 993 001e 13063019 		li	a2,403
 994 0022 93850500 		addi	a1,a1,%lo(.LC3)
 995 0026 13050500 		addi	a0,a0,%lo(.LC2)
 996 002a 97000000 		call	printf
 996      E7800000 
 997              	.LVL120:
 998              	.L129:
 403:C:/Users/stapi/OneDrive/Desktop/GD32VW553/V1_MQTT_OK/GD32VW55X_Wifi_BLE_SDK/GD32VW55x_RELEASE_V1.0.2/MSDK/lwip/lwip-2.1.2/src/core\altcp_tcp.c ****   pcb = (struct tcp_pcb *)conn->state;
 999              		.loc 1 403 3
 403:C:/Users/stapi/OneDrive/Desktop/GD32VW553/V1_MQTT_OK/GD32VW55X_Wifi_BLE_SDK/GD32VW55x_RELEASE_V1.0.2/MSDK/lwip/lwip-2.1.2/src/core\altcp_tcp.c ****   pcb = (struct tcp_pcb *)conn->state;
 1000              		.loc 1 403 3
 403:C:/Users/stapi/OneDrive/Desktop/GD32VW553/V1_MQTT_OK/GD32VW55X_Wifi_BLE_SDK/GD32VW55x_RELEASE_V1.0.2/MSDK/lwip/lwip-2.1.2/src/core\altcp_tcp.c ****   pcb = (struct tcp_pcb *)conn->state;
 1001              		.loc 1 403 3
 1002 0032 01A0     		j	.L129
 1003              	.LVL121:
 1004              	.L128:
 1005              		.cfi_def_cfa_offset 0
 1006              		.cfi_restore 1
 1007              	.LBE75:
 1008              	.LBE74:
 403:C:/Users/stapi/OneDrive/Desktop/GD32VW553/V1_MQTT_OK/GD32VW55X_Wifi_BLE_SDK/GD32VW55x_RELEASE_V1.0.2/MSDK/lwip/lwip-2.1.2/src/core\altcp_tcp.c ****   pcb = (struct tcp_pcb *)conn->state;
 1009              		.loc 1 403 3 discriminator 2
 403:C:/Users/stapi/OneDrive/Desktop/GD32VW553/V1_MQTT_OK/GD32VW55X_Wifi_BLE_SDK/GD32VW55x_RELEASE_V1.0.2/MSDK/lwip/lwip-2.1.2/src/core\altcp_tcp.c ****   pcb = (struct tcp_pcb *)conn->state;
 1010              		.loc 1 403 3 discriminator 2
 403:C:/Users/stapi/OneDrive/Desktop/GD32VW553/V1_MQTT_OK/GD32VW55X_Wifi_BLE_SDK/GD32VW55x_RELEASE_V1.0.2/MSDK/lwip/lwip-2.1.2/src/core\altcp_tcp.c ****   pcb = (struct tcp_pcb *)conn->state;
 1011              		.loc 1 403 3 discriminator 2
 403:C:/Users/stapi/OneDrive/Desktop/GD32VW553/V1_MQTT_OK/GD32VW55X_Wifi_BLE_SDK/GD32VW55x_RELEASE_V1.0.2/MSDK/lwip/lwip-2.1.2/src/core\altcp_tcp.c ****   pcb = (struct tcp_pcb *)conn->state;
 1012              		.loc 1 403 3 discriminator 2
 404:C:/Users/stapi/OneDrive/Desktop/GD32VW553/V1_MQTT_OK/GD32VW55X_Wifi_BLE_SDK/GD32VW55x_RELEASE_V1.0.2/MSDK/lwip/lwip-2.1.2/src/core\altcp_tcp.c ****   return tcp_sndqueuelen(pcb);
 1013              		.loc 1 404 3 discriminator 2
 405:C:/Users/stapi/OneDrive/Desktop/GD32VW553/V1_MQTT_OK/GD32VW55X_Wifi_BLE_SDK/GD32VW55x_RELEASE_V1.0.2/MSDK/lwip/lwip-2.1.2/src/core\altcp_tcp.c **** }
 1014              		.loc 1 405 3 discriminator 2
 405:C:/Users/stapi/OneDrive/Desktop/GD32VW553/V1_MQTT_OK/GD32VW55X_Wifi_BLE_SDK/GD32VW55x_RELEASE_V1.0.2/MSDK/lwip/lwip-2.1.2/src/core\altcp_tcp.c **** }
 1015              		.loc 1 405 10 is_stmt 0 discriminator 2
 1016 0034 5C45     		lw	a5,12(a0)
 1017 0036 03D58709 		lhu	a0,152(a5)
 1018              	.LVL122:
 1019 003a 8280     		ret
 1020              	.LVL123:
 1021              	.L130:
 401:C:/Users/stapi/OneDrive/Desktop/GD32VW553/V1_MQTT_OK/GD32VW55X_Wifi_BLE_SDK/GD32VW55x_RELEASE_V1.0.2/MSDK/lwip/lwip-2.1.2/src/core\altcp_tcp.c ****   }
 1022              		.loc 1 401 12
 1023 003c 0145     		li	a0,0
 1024              	.LVL124:
 406:C:/Users/stapi/OneDrive/Desktop/GD32VW553/V1_MQTT_OK/GD32VW55X_Wifi_BLE_SDK/GD32VW55x_RELEASE_V1.0.2/MSDK/lwip/lwip-2.1.2/src/core\altcp_tcp.c **** 
 1025              		.loc 1 406 1
 1026 003e 8280     		ret
 1027              		.cfi_endproc
 1028              	.LFE28:
 1030              		.section	.text.altcp_tcp_mss,"ax",@progbits
 1031              		.align	1
 1033              	altcp_tcp_mss:
 1034              	.LFB26:
 374:C:/Users/stapi/OneDrive/Desktop/GD32VW553/V1_MQTT_OK/GD32VW55X_Wifi_BLE_SDK/GD32VW55x_RELEASE_V1.0.2/MSDK/lwip/lwip-2.1.2/src/core\altcp_tcp.c ****   struct tcp_pcb *pcb;
 1035              		.loc 1 374 1 is_stmt 1
 1036              		.cfi_startproc
 1037              	.LVL125:
 375:C:/Users/stapi/OneDrive/Desktop/GD32VW553/V1_MQTT_OK/GD32VW55X_Wifi_BLE_SDK/GD32VW55x_RELEASE_V1.0.2/MSDK/lwip/lwip-2.1.2/src/core\altcp_tcp.c ****   if (conn == NULL) {
 1038              		.loc 1 375 3
 376:C:/Users/stapi/OneDrive/Desktop/GD32VW553/V1_MQTT_OK/GD32VW55X_Wifi_BLE_SDK/GD32VW55x_RELEASE_V1.0.2/MSDK/lwip/lwip-2.1.2/src/core\altcp_tcp.c ****     return 0;
 1039              		.loc 1 376 3
 376:C:/Users/stapi/OneDrive/Desktop/GD32VW553/V1_MQTT_OK/GD32VW55X_Wifi_BLE_SDK/GD32VW55x_RELEASE_V1.0.2/MSDK/lwip/lwip-2.1.2/src/core\altcp_tcp.c ****     return 0;
 1040              		.loc 1 376 6 is_stmt 0
 1041 0000 15CD     		beq	a0,zero,.L138
 379:C:/Users/stapi/OneDrive/Desktop/GD32VW553/V1_MQTT_OK/GD32VW55X_Wifi_BLE_SDK/GD32VW55x_RELEASE_V1.0.2/MSDK/lwip/lwip-2.1.2/src/core\altcp_tcp.c ****   pcb = (struct tcp_pcb *)conn->state;
 1042              		.loc 1 379 3 is_stmt 1
 379:C:/Users/stapi/OneDrive/Desktop/GD32VW553/V1_MQTT_OK/GD32VW55X_Wifi_BLE_SDK/GD32VW55x_RELEASE_V1.0.2/MSDK/lwip/lwip-2.1.2/src/core\altcp_tcp.c ****   pcb = (struct tcp_pcb *)conn->state;
 1043              		.loc 1 379 3
 379:C:/Users/stapi/OneDrive/Desktop/GD32VW553/V1_MQTT_OK/GD32VW55X_Wifi_BLE_SDK/GD32VW55x_RELEASE_V1.0.2/MSDK/lwip/lwip-2.1.2/src/core\altcp_tcp.c ****   pcb = (struct tcp_pcb *)conn->state;
 1044              		.loc 1 379 3
 1045 0002 5C41     		lw	a5,4(a0)
 1046 0004 85CB     		beq	a5,zero,.L136
 374:C:/Users/stapi/OneDrive/Desktop/GD32VW553/V1_MQTT_OK/GD32VW55X_Wifi_BLE_SDK/GD32VW55x_RELEASE_V1.0.2/MSDK/lwip/lwip-2.1.2/src/core\altcp_tcp.c ****   struct tcp_pcb *pcb;
 1047              		.loc 1 374 1 is_stmt 0
 1048 0006 17030000 		call	t0,__riscv_save_0
 1048      E7020300 
 1049              		.cfi_offset 1, -4
 1050              		.cfi_def_cfa_offset 16
 1051              	.LVL126:
 1052              	.LBB78:
 1053              	.LBB79:
 379:C:/Users/stapi/OneDrive/Desktop/GD32VW553/V1_MQTT_OK/GD32VW55X_Wifi_BLE_SDK/GD32VW55x_RELEASE_V1.0.2/MSDK/lwip/lwip-2.1.2/src/core\altcp_tcp.c ****   pcb = (struct tcp_pcb *)conn->state;
 1054              		.loc 1 379 3 is_stmt 1
 379:C:/Users/stapi/OneDrive/Desktop/GD32VW553/V1_MQTT_OK/GD32VW55X_Wifi_BLE_SDK/GD32VW55x_RELEASE_V1.0.2/MSDK/lwip/lwip-2.1.2/src/core\altcp_tcp.c ****   pcb = (struct tcp_pcb *)conn->state;
 1055              		.loc 1 379 3
 1056 000e B7060000 		lui	a3,%hi(.LC0)
 1057 0012 B7050000 		lui	a1,%hi(.LC3)
 1058 0016 37050000 		lui	a0,%hi(.LC2)
 1059              	.LVL127:
 1060 001a 93860600 		addi	a3,a3,%lo(.LC0)
 1061 001e 1306B017 		li	a2,379
 1062 0022 93850500 		addi	a1,a1,%lo(.LC3)
 1063 0026 13050500 		addi	a0,a0,%lo(.LC2)
 1064 002a 97000000 		call	printf
 1064      E7800000 
 1065              	.LVL128:
 1066              	.L137:
 379:C:/Users/stapi/OneDrive/Desktop/GD32VW553/V1_MQTT_OK/GD32VW55X_Wifi_BLE_SDK/GD32VW55x_RELEASE_V1.0.2/MSDK/lwip/lwip-2.1.2/src/core\altcp_tcp.c ****   pcb = (struct tcp_pcb *)conn->state;
 1067              		.loc 1 379 3
 379:C:/Users/stapi/OneDrive/Desktop/GD32VW553/V1_MQTT_OK/GD32VW55X_Wifi_BLE_SDK/GD32VW55x_RELEASE_V1.0.2/MSDK/lwip/lwip-2.1.2/src/core\altcp_tcp.c ****   pcb = (struct tcp_pcb *)conn->state;
 1068              		.loc 1 379 3
 379:C:/Users/stapi/OneDrive/Desktop/GD32VW553/V1_MQTT_OK/GD32VW55X_Wifi_BLE_SDK/GD32VW55x_RELEASE_V1.0.2/MSDK/lwip/lwip-2.1.2/src/core\altcp_tcp.c ****   pcb = (struct tcp_pcb *)conn->state;
 1069              		.loc 1 379 3
 1070 0032 01A0     		j	.L137
 1071              	.LVL129:
 1072              	.L136:
 1073              		.cfi_def_cfa_offset 0
 1074              		.cfi_restore 1
 1075              	.LBE79:
 1076              	.LBE78:
 379:C:/Users/stapi/OneDrive/Desktop/GD32VW553/V1_MQTT_OK/GD32VW55X_Wifi_BLE_SDK/GD32VW55x_RELEASE_V1.0.2/MSDK/lwip/lwip-2.1.2/src/core\altcp_tcp.c ****   pcb = (struct tcp_pcb *)conn->state;
 1077              		.loc 1 379 3 discriminator 2
 379:C:/Users/stapi/OneDrive/Desktop/GD32VW553/V1_MQTT_OK/GD32VW55X_Wifi_BLE_SDK/GD32VW55x_RELEASE_V1.0.2/MSDK/lwip/lwip-2.1.2/src/core\altcp_tcp.c ****   pcb = (struct tcp_pcb *)conn->state;
 1078              		.loc 1 379 3 discriminator 2
 379:C:/Users/stapi/OneDrive/Desktop/GD32VW553/V1_MQTT_OK/GD32VW55X_Wifi_BLE_SDK/GD32VW55x_RELEASE_V1.0.2/MSDK/lwip/lwip-2.1.2/src/core\altcp_tcp.c ****   pcb = (struct tcp_pcb *)conn->state;
 1079              		.loc 1 379 3 discriminator 2
 379:C:/Users/stapi/OneDrive/Desktop/GD32VW553/V1_MQTT_OK/GD32VW55X_Wifi_BLE_SDK/GD32VW55x_RELEASE_V1.0.2/MSDK/lwip/lwip-2.1.2/src/core\altcp_tcp.c ****   pcb = (struct tcp_pcb *)conn->state;
 1080              		.loc 1 379 3 discriminator 2
 380:C:/Users/stapi/OneDrive/Desktop/GD32VW553/V1_MQTT_OK/GD32VW55X_Wifi_BLE_SDK/GD32VW55x_RELEASE_V1.0.2/MSDK/lwip/lwip-2.1.2/src/core\altcp_tcp.c ****   return tcp_mss(pcb);
 1081              		.loc 1 380 3 discriminator 2
 381:C:/Users/stapi/OneDrive/Desktop/GD32VW553/V1_MQTT_OK/GD32VW55X_Wifi_BLE_SDK/GD32VW55x_RELEASE_V1.0.2/MSDK/lwip/lwip-2.1.2/src/core\altcp_tcp.c **** }
 1082              		.loc 1 381 3 discriminator 2
 381:C:/Users/stapi/OneDrive/Desktop/GD32VW553/V1_MQTT_OK/GD32VW55X_Wifi_BLE_SDK/GD32VW55x_RELEASE_V1.0.2/MSDK/lwip/lwip-2.1.2/src/core\altcp_tcp.c **** }
 1083              		.loc 1 381 10 is_stmt 0 discriminator 2
 1084 0034 5C45     		lw	a5,12(a0)
 1085 0036 03D5A705 		lhu	a0,90(a5)
 1086              	.LVL130:
 1087 003a 8280     		ret
 1088              	.LVL131:
 1089              	.L138:
 377:C:/Users/stapi/OneDrive/Desktop/GD32VW553/V1_MQTT_OK/GD32VW55X_Wifi_BLE_SDK/GD32VW55x_RELEASE_V1.0.2/MSDK/lwip/lwip-2.1.2/src/core\altcp_tcp.c ****   }
 1090              		.loc 1 377 12
 1091 003c 0145     		li	a0,0
 1092              	.LVL132:
 382:C:/Users/stapi/OneDrive/Desktop/GD32VW553/V1_MQTT_OK/GD32VW55X_Wifi_BLE_SDK/GD32VW55x_RELEASE_V1.0.2/MSDK/lwip/lwip-2.1.2/src/core\altcp_tcp.c **** 
 1093              		.loc 1 382 1
 1094 003e 8280     		ret
 1095              		.cfi_endproc
 1096              	.LFE26:
 1098              		.section	.text.altcp_tcp_connected,"ax",@progbits
 1099              		.align	1
 1101              	altcp_tcp_connected:
 1102              	.LFB5:
  90:C:/Users/stapi/OneDrive/Desktop/GD32VW553/V1_MQTT_OK/GD32VW55X_Wifi_BLE_SDK/GD32VW55x_RELEASE_V1.0.2/MSDK/lwip/lwip-2.1.2/src/core\altcp_tcp.c ****   struct altcp_pcb *conn = (struct altcp_pcb *)arg;
 1103              		.loc 1 90 1 is_stmt 1
 1104              		.cfi_startproc
 1105              	.LVL133:
  91:C:/Users/stapi/OneDrive/Desktop/GD32VW553/V1_MQTT_OK/GD32VW55X_Wifi_BLE_SDK/GD32VW55x_RELEASE_V1.0.2/MSDK/lwip/lwip-2.1.2/src/core\altcp_tcp.c ****   if (conn) {
 1106              		.loc 1 91 3
  92:C:/Users/stapi/OneDrive/Desktop/GD32VW553/V1_MQTT_OK/GD32VW55X_Wifi_BLE_SDK/GD32VW55x_RELEASE_V1.0.2/MSDK/lwip/lwip-2.1.2/src/core\altcp_tcp.c ****     ALTCP_TCP_ASSERT_CONN_PCB(conn, tpcb);
 1107              		.loc 1 92 3
  92:C:/Users/stapi/OneDrive/Desktop/GD32VW553/V1_MQTT_OK/GD32VW55X_Wifi_BLE_SDK/GD32VW55x_RELEASE_V1.0.2/MSDK/lwip/lwip-2.1.2/src/core\altcp_tcp.c ****     ALTCP_TCP_ASSERT_CONN_PCB(conn, tpcb);
 1108              		.loc 1 92 6 is_stmt 0
 1109 0000 3DC9     		beq	a0,zero,.L148
  90:C:/Users/stapi/OneDrive/Desktop/GD32VW553/V1_MQTT_OK/GD32VW55X_Wifi_BLE_SDK/GD32VW55x_RELEASE_V1.0.2/MSDK/lwip/lwip-2.1.2/src/core\altcp_tcp.c ****   struct altcp_pcb *conn = (struct altcp_pcb *)arg;
 1110              		.loc 1 90 1
 1111 0002 17030000 		call	t0,__riscv_save_0
 1111      E7020300 
 1112              		.cfi_offset 1, -4
 1113              		.cfi_def_cfa_offset 16
  93:C:/Users/stapi/OneDrive/Desktop/GD32VW553/V1_MQTT_OK/GD32VW55X_Wifi_BLE_SDK/GD32VW55x_RELEASE_V1.0.2/MSDK/lwip/lwip-2.1.2/src/core\altcp_tcp.c ****     if (conn->connected) {
 1114              		.loc 1 93 5
 1115 000a 5845     		lw	a4,12(a0)
 1116 000c AA87     		mv	a5,a0
  93:C:/Users/stapi/OneDrive/Desktop/GD32VW553/V1_MQTT_OK/GD32VW55X_Wifi_BLE_SDK/GD32VW55x_RELEASE_V1.0.2/MSDK/lwip/lwip-2.1.2/src/core\altcp_tcp.c ****     if (conn->connected) {
 1117              		.loc 1 93 5 is_stmt 1
  93:C:/Users/stapi/OneDrive/Desktop/GD32VW553/V1_MQTT_OK/GD32VW55X_Wifi_BLE_SDK/GD32VW55x_RELEASE_V1.0.2/MSDK/lwip/lwip-2.1.2/src/core\altcp_tcp.c ****     if (conn->connected) {
 1118              		.loc 1 93 5
  93:C:/Users/stapi/OneDrive/Desktop/GD32VW553/V1_MQTT_OK/GD32VW55X_Wifi_BLE_SDK/GD32VW55x_RELEASE_V1.0.2/MSDK/lwip/lwip-2.1.2/src/core\altcp_tcp.c ****     if (conn->connected) {
 1119              		.loc 1 93 5
 1120 000e 6305B702 		beq	a4,a1,.L144
  93:C:/Users/stapi/OneDrive/Desktop/GD32VW553/V1_MQTT_OK/GD32VW55X_Wifi_BLE_SDK/GD32VW55x_RELEASE_V1.0.2/MSDK/lwip/lwip-2.1.2/src/core\altcp_tcp.c ****     if (conn->connected) {
 1121              		.loc 1 93 5 discriminator 1
  93:C:/Users/stapi/OneDrive/Desktop/GD32VW553/V1_MQTT_OK/GD32VW55X_Wifi_BLE_SDK/GD32VW55x_RELEASE_V1.0.2/MSDK/lwip/lwip-2.1.2/src/core\altcp_tcp.c ****     if (conn->connected) {
 1122              		.loc 1 93 5 discriminator 1
 1123 0012 B7060000 		lui	a3,%hi(.LC0)
 1124 0016 B7050000 		lui	a1,%hi(.LC1)
 1125              	.LVL134:
 1126 001a 37050000 		lui	a0,%hi(.LC2)
 1127              	.LVL135:
 1128 001e 93860600 		addi	a3,a3,%lo(.LC0)
 1129 0022 1306D005 		li	a2,93
 1130              	.LVL136:
 1131 0026 93850500 		addi	a1,a1,%lo(.LC1)
 1132 002a 13050500 		addi	a0,a0,%lo(.LC2)
 1133 002e 97000000 		call	printf
 1133      E7800000 
 1134              	.LVL137:
 1135              	.L145:
  93:C:/Users/stapi/OneDrive/Desktop/GD32VW553/V1_MQTT_OK/GD32VW55X_Wifi_BLE_SDK/GD32VW55x_RELEASE_V1.0.2/MSDK/lwip/lwip-2.1.2/src/core\altcp_tcp.c ****     if (conn->connected) {
 1136              		.loc 1 93 5 discriminator 1
  93:C:/Users/stapi/OneDrive/Desktop/GD32VW553/V1_MQTT_OK/GD32VW55X_Wifi_BLE_SDK/GD32VW55x_RELEASE_V1.0.2/MSDK/lwip/lwip-2.1.2/src/core\altcp_tcp.c ****     if (conn->connected) {
 1137              		.loc 1 93 5 discriminator 1
  93:C:/Users/stapi/OneDrive/Desktop/GD32VW553/V1_MQTT_OK/GD32VW55X_Wifi_BLE_SDK/GD32VW55x_RELEASE_V1.0.2/MSDK/lwip/lwip-2.1.2/src/core\altcp_tcp.c ****     if (conn->connected) {
 1138              		.loc 1 93 5 discriminator 1
 1139 0036 01A0     		j	.L145
 1140              	.LVL138:
 1141              	.L144:
  93:C:/Users/stapi/OneDrive/Desktop/GD32VW553/V1_MQTT_OK/GD32VW55X_Wifi_BLE_SDK/GD32VW55x_RELEASE_V1.0.2/MSDK/lwip/lwip-2.1.2/src/core\altcp_tcp.c ****     if (conn->connected) {
 1142              		.loc 1 93 5 discriminator 2
  93:C:/Users/stapi/OneDrive/Desktop/GD32VW553/V1_MQTT_OK/GD32VW55X_Wifi_BLE_SDK/GD32VW55x_RELEASE_V1.0.2/MSDK/lwip/lwip-2.1.2/src/core\altcp_tcp.c ****     if (conn->connected) {
 1143              		.loc 1 93 5 discriminator 2
  93:C:/Users/stapi/OneDrive/Desktop/GD32VW553/V1_MQTT_OK/GD32VW55X_Wifi_BLE_SDK/GD32VW55x_RELEASE_V1.0.2/MSDK/lwip/lwip-2.1.2/src/core\altcp_tcp.c ****     if (conn->connected) {
 1144              		.loc 1 93 5 discriminator 2
  93:C:/Users/stapi/OneDrive/Desktop/GD32VW553/V1_MQTT_OK/GD32VW55X_Wifi_BLE_SDK/GD32VW55x_RELEASE_V1.0.2/MSDK/lwip/lwip-2.1.2/src/core\altcp_tcp.c ****     if (conn->connected) {
 1145              		.loc 1 93 5 discriminator 2
  93:C:/Users/stapi/OneDrive/Desktop/GD32VW553/V1_MQTT_OK/GD32VW55X_Wifi_BLE_SDK/GD32VW55x_RELEASE_V1.0.2/MSDK/lwip/lwip-2.1.2/src/core\altcp_tcp.c ****     if (conn->connected) {
 1146              		.loc 1 93 5 discriminator 2
  93:C:/Users/stapi/OneDrive/Desktop/GD32VW553/V1_MQTT_OK/GD32VW55X_Wifi_BLE_SDK/GD32VW55x_RELEASE_V1.0.2/MSDK/lwip/lwip-2.1.2/src/core\altcp_tcp.c ****     if (conn->connected) {
 1147              		.loc 1 93 5 discriminator 2
 1148 0038 5841     		lw	a4,4(a0)
 1149 003a 05C7     		beq	a4,zero,.L146
  93:C:/Users/stapi/OneDrive/Desktop/GD32VW553/V1_MQTT_OK/GD32VW55X_Wifi_BLE_SDK/GD32VW55x_RELEASE_V1.0.2/MSDK/lwip/lwip-2.1.2/src/core\altcp_tcp.c ****     if (conn->connected) {
 1150              		.loc 1 93 5 discriminator 4
  93:C:/Users/stapi/OneDrive/Desktop/GD32VW553/V1_MQTT_OK/GD32VW55X_Wifi_BLE_SDK/GD32VW55x_RELEASE_V1.0.2/MSDK/lwip/lwip-2.1.2/src/core\altcp_tcp.c ****     if (conn->connected) {
 1151              		.loc 1 93 5 discriminator 4
 1152 003c B7060000 		lui	a3,%hi(.LC0)
 1153 0040 B7050000 		lui	a1,%hi(.LC3)
 1154              	.LVL139:
 1155 0044 37050000 		lui	a0,%hi(.LC2)
 1156              	.LVL140:
 1157 0048 93860600 		addi	a3,a3,%lo(.LC0)
 1158 004c 1306D005 		li	a2,93
 1159              	.LVL141:
 1160 0050 93850500 		addi	a1,a1,%lo(.LC3)
 1161 0054 13050500 		addi	a0,a0,%lo(.LC2)
 1162 0058 97000000 		call	printf
 1162      E7800000 
 1163              	.LVL142:
 1164              	.L147:
  93:C:/Users/stapi/OneDrive/Desktop/GD32VW553/V1_MQTT_OK/GD32VW55X_Wifi_BLE_SDK/GD32VW55x_RELEASE_V1.0.2/MSDK/lwip/lwip-2.1.2/src/core\altcp_tcp.c ****     if (conn->connected) {
 1165              		.loc 1 93 5 discriminator 2
  93:C:/Users/stapi/OneDrive/Desktop/GD32VW553/V1_MQTT_OK/GD32VW55X_Wifi_BLE_SDK/GD32VW55x_RELEASE_V1.0.2/MSDK/lwip/lwip-2.1.2/src/core\altcp_tcp.c ****     if (conn->connected) {
 1166              		.loc 1 93 5 discriminator 2
  93:C:/Users/stapi/OneDrive/Desktop/GD32VW553/V1_MQTT_OK/GD32VW55X_Wifi_BLE_SDK/GD32VW55x_RELEASE_V1.0.2/MSDK/lwip/lwip-2.1.2/src/core\altcp_tcp.c ****     if (conn->connected) {
 1167              		.loc 1 93 5 discriminator 2
 1168 0060 01A0     		j	.L147
 1169              	.LVL143:
 1170              	.L146:
 1171              	.LBB82:
 1172              	.LBB83:
  93:C:/Users/stapi/OneDrive/Desktop/GD32VW553/V1_MQTT_OK/GD32VW55X_Wifi_BLE_SDK/GD32VW55x_RELEASE_V1.0.2/MSDK/lwip/lwip-2.1.2/src/core\altcp_tcp.c ****     if (conn->connected) {
 1173              		.loc 1 93 5
  93:C:/Users/stapi/OneDrive/Desktop/GD32VW553/V1_MQTT_OK/GD32VW55X_Wifi_BLE_SDK/GD32VW55x_RELEASE_V1.0.2/MSDK/lwip/lwip-2.1.2/src/core\altcp_tcp.c ****     if (conn->connected) {
 1174              		.loc 1 93 5
  93:C:/Users/stapi/OneDrive/Desktop/GD32VW553/V1_MQTT_OK/GD32VW55X_Wifi_BLE_SDK/GD32VW55x_RELEASE_V1.0.2/MSDK/lwip/lwip-2.1.2/src/core\altcp_tcp.c ****     if (conn->connected) {
 1175              		.loc 1 93 5
  93:C:/Users/stapi/OneDrive/Desktop/GD32VW553/V1_MQTT_OK/GD32VW55X_Wifi_BLE_SDK/GD32VW55x_RELEASE_V1.0.2/MSDK/lwip/lwip-2.1.2/src/core\altcp_tcp.c ****     if (conn->connected) {
 1176              		.loc 1 93 5
  93:C:/Users/stapi/OneDrive/Desktop/GD32VW553/V1_MQTT_OK/GD32VW55X_Wifi_BLE_SDK/GD32VW55x_RELEASE_V1.0.2/MSDK/lwip/lwip-2.1.2/src/core\altcp_tcp.c ****     if (conn->connected) {
 1177              		.loc 1 93 5
  94:C:/Users/stapi/OneDrive/Desktop/GD32VW553/V1_MQTT_OK/GD32VW55X_Wifi_BLE_SDK/GD32VW55x_RELEASE_V1.0.2/MSDK/lwip/lwip-2.1.2/src/core\altcp_tcp.c ****       return conn->connected(conn->arg, conn, err);
 1178              		.loc 1 94 5
  94:C:/Users/stapi/OneDrive/Desktop/GD32VW553/V1_MQTT_OK/GD32VW55X_Wifi_BLE_SDK/GD32VW55x_RELEASE_V1.0.2/MSDK/lwip/lwip-2.1.2/src/core\altcp_tcp.c ****       return conn->connected(conn->arg, conn, err);
 1179              		.loc 1 94 13 is_stmt 0
 1180 0062 5849     		lw	a4,20(a0)
 1181              	.LBE83:
 1182              	.LBE82:
  98:C:/Users/stapi/OneDrive/Desktop/GD32VW553/V1_MQTT_OK/GD32VW55X_Wifi_BLE_SDK/GD32VW55x_RELEASE_V1.0.2/MSDK/lwip/lwip-2.1.2/src/core\altcp_tcp.c **** }
 1183              		.loc 1 98 10
 1184 0064 0145     		li	a0,0
 1185              	.LVL144:
 1186              	.LBB85:
 1187              	.LBB84:
  94:C:/Users/stapi/OneDrive/Desktop/GD32VW553/V1_MQTT_OK/GD32VW55X_Wifi_BLE_SDK/GD32VW55x_RELEASE_V1.0.2/MSDK/lwip/lwip-2.1.2/src/core\altcp_tcp.c ****       return conn->connected(conn->arg, conn, err);
 1188              		.loc 1 94 8
 1189 0066 01C7     		beq	a4,zero,.L143
  95:C:/Users/stapi/OneDrive/Desktop/GD32VW553/V1_MQTT_OK/GD32VW55X_Wifi_BLE_SDK/GD32VW55x_RELEASE_V1.0.2/MSDK/lwip/lwip-2.1.2/src/core\altcp_tcp.c ****     }
 1190              		.loc 1 95 7 is_stmt 1
  95:C:/Users/stapi/OneDrive/Desktop/GD32VW553/V1_MQTT_OK/GD32VW55X_Wifi_BLE_SDK/GD32VW55x_RELEASE_V1.0.2/MSDK/lwip/lwip-2.1.2/src/core\altcp_tcp.c ****     }
 1191              		.loc 1 95 14 is_stmt 0
 1192 0068 8847     		lw	a0,8(a5)
 1193 006a BE85     		mv	a1,a5
 1194              	.LVL145:
 1195 006c 0297     		jalr	a4
 1196              	.LVL146:
 1197              	.L143:
 1198              	.LBE84:
 1199              	.LBE85:
  99:C:/Users/stapi/OneDrive/Desktop/GD32VW553/V1_MQTT_OK/GD32VW55X_Wifi_BLE_SDK/GD32VW55x_RELEASE_V1.0.2/MSDK/lwip/lwip-2.1.2/src/core\altcp_tcp.c **** 
 1200              		.loc 1 99 1
 1201 006e 17030000 		tail	__riscv_restore_0
 1201      67000300 
 1202              		.cfi_restore 1
 1203              		.cfi_def_cfa_offset 0
 1204              	.LVL147:
 1205              	.L148:
  98:C:/Users/stapi/OneDrive/Desktop/GD32VW553/V1_MQTT_OK/GD32VW55X_Wifi_BLE_SDK/GD32VW55x_RELEASE_V1.0.2/MSDK/lwip/lwip-2.1.2/src/core\altcp_tcp.c **** }
 1206              		.loc 1 98 10
 1207 0076 0145     		li	a0,0
 1208              	.LVL148:
  99:C:/Users/stapi/OneDrive/Desktop/GD32VW553/V1_MQTT_OK/GD32VW55X_Wifi_BLE_SDK/GD32VW55x_RELEASE_V1.0.2/MSDK/lwip/lwip-2.1.2/src/core\altcp_tcp.c **** 
 1209              		.loc 1 99 1
 1210 0078 8280     		ret
 1211              		.cfi_endproc
 1212              	.LFE5:
 1214              		.section	.text.altcp_tcp_poll,"ax",@progbits
 1215              		.align	1
 1217              	altcp_tcp_poll:
 1218              	.LFB8:
 133:C:/Users/stapi/OneDrive/Desktop/GD32VW553/V1_MQTT_OK/GD32VW55X_Wifi_BLE_SDK/GD32VW55x_RELEASE_V1.0.2/MSDK/lwip/lwip-2.1.2/src/core\altcp_tcp.c ****   struct altcp_pcb *conn = (struct altcp_pcb *)arg;
 1219              		.loc 1 133 1 is_stmt 1
 1220              		.cfi_startproc
 1221              	.LVL149:
 134:C:/Users/stapi/OneDrive/Desktop/GD32VW553/V1_MQTT_OK/GD32VW55X_Wifi_BLE_SDK/GD32VW55x_RELEASE_V1.0.2/MSDK/lwip/lwip-2.1.2/src/core\altcp_tcp.c ****   if (conn) {
 1222              		.loc 1 134 3
 135:C:/Users/stapi/OneDrive/Desktop/GD32VW553/V1_MQTT_OK/GD32VW55X_Wifi_BLE_SDK/GD32VW55x_RELEASE_V1.0.2/MSDK/lwip/lwip-2.1.2/src/core\altcp_tcp.c ****     ALTCP_TCP_ASSERT_CONN_PCB(conn, tpcb);
 1223              		.loc 1 135 3
 135:C:/Users/stapi/OneDrive/Desktop/GD32VW553/V1_MQTT_OK/GD32VW55X_Wifi_BLE_SDK/GD32VW55x_RELEASE_V1.0.2/MSDK/lwip/lwip-2.1.2/src/core\altcp_tcp.c ****     ALTCP_TCP_ASSERT_CONN_PCB(conn, tpcb);
 1224              		.loc 1 135 6 is_stmt 0
 1225 0000 3DC9     		beq	a0,zero,.L161
 133:C:/Users/stapi/OneDrive/Desktop/GD32VW553/V1_MQTT_OK/GD32VW55X_Wifi_BLE_SDK/GD32VW55x_RELEASE_V1.0.2/MSDK/lwip/lwip-2.1.2/src/core\altcp_tcp.c ****   struct altcp_pcb *conn = (struct altcp_pcb *)arg;
 1226              		.loc 1 133 1
 1227 0002 17030000 		call	t0,__riscv_save_0
 1227      E7020300 
 1228              		.cfi_offset 1, -4
 1229              		.cfi_def_cfa_offset 16
 136:C:/Users/stapi/OneDrive/Desktop/GD32VW553/V1_MQTT_OK/GD32VW55X_Wifi_BLE_SDK/GD32VW55x_RELEASE_V1.0.2/MSDK/lwip/lwip-2.1.2/src/core\altcp_tcp.c ****     if (conn->poll) {
 1230              		.loc 1 136 5
 1231 000a 5845     		lw	a4,12(a0)
 1232 000c AA87     		mv	a5,a0
 136:C:/Users/stapi/OneDrive/Desktop/GD32VW553/V1_MQTT_OK/GD32VW55X_Wifi_BLE_SDK/GD32VW55x_RELEASE_V1.0.2/MSDK/lwip/lwip-2.1.2/src/core\altcp_tcp.c ****     if (conn->poll) {
 1233              		.loc 1 136 5 is_stmt 1
 136:C:/Users/stapi/OneDrive/Desktop/GD32VW553/V1_MQTT_OK/GD32VW55X_Wifi_BLE_SDK/GD32VW55x_RELEASE_V1.0.2/MSDK/lwip/lwip-2.1.2/src/core\altcp_tcp.c ****     if (conn->poll) {
 1234              		.loc 1 136 5
 136:C:/Users/stapi/OneDrive/Desktop/GD32VW553/V1_MQTT_OK/GD32VW55X_Wifi_BLE_SDK/GD32VW55x_RELEASE_V1.0.2/MSDK/lwip/lwip-2.1.2/src/core\altcp_tcp.c ****     if (conn->poll) {
 1235              		.loc 1 136 5
 1236 000e 6305B702 		beq	a4,a1,.L157
 136:C:/Users/stapi/OneDrive/Desktop/GD32VW553/V1_MQTT_OK/GD32VW55X_Wifi_BLE_SDK/GD32VW55x_RELEASE_V1.0.2/MSDK/lwip/lwip-2.1.2/src/core\altcp_tcp.c ****     if (conn->poll) {
 1237              		.loc 1 136 5 discriminator 1
 136:C:/Users/stapi/OneDrive/Desktop/GD32VW553/V1_MQTT_OK/GD32VW55X_Wifi_BLE_SDK/GD32VW55x_RELEASE_V1.0.2/MSDK/lwip/lwip-2.1.2/src/core\altcp_tcp.c ****     if (conn->poll) {
 1238              		.loc 1 136 5 discriminator 1
 1239 0012 B7060000 		lui	a3,%hi(.LC0)
 1240 0016 B7050000 		lui	a1,%hi(.LC1)
 1241              	.LVL150:
 1242 001a 37050000 		lui	a0,%hi(.LC2)
 1243              	.LVL151:
 1244 001e 93860600 		addi	a3,a3,%lo(.LC0)
 1245 0022 13068008 		li	a2,136
 1246 0026 93850500 		addi	a1,a1,%lo(.LC1)
 1247 002a 13050500 		addi	a0,a0,%lo(.LC2)
 1248 002e 97000000 		call	printf
 1248      E7800000 
 1249              	.LVL152:
 1250              	.L158:
 136:C:/Users/stapi/OneDrive/Desktop/GD32VW553/V1_MQTT_OK/GD32VW55X_Wifi_BLE_SDK/GD32VW55x_RELEASE_V1.0.2/MSDK/lwip/lwip-2.1.2/src/core\altcp_tcp.c ****     if (conn->poll) {
 1251              		.loc 1 136 5 discriminator 1
 136:C:/Users/stapi/OneDrive/Desktop/GD32VW553/V1_MQTT_OK/GD32VW55X_Wifi_BLE_SDK/GD32VW55x_RELEASE_V1.0.2/MSDK/lwip/lwip-2.1.2/src/core\altcp_tcp.c ****     if (conn->poll) {
 1252              		.loc 1 136 5 discriminator 1
 136:C:/Users/stapi/OneDrive/Desktop/GD32VW553/V1_MQTT_OK/GD32VW55X_Wifi_BLE_SDK/GD32VW55x_RELEASE_V1.0.2/MSDK/lwip/lwip-2.1.2/src/core\altcp_tcp.c ****     if (conn->poll) {
 1253              		.loc 1 136 5 discriminator 1
 1254 0036 01A0     		j	.L158
 1255              	.LVL153:
 1256              	.L157:
 136:C:/Users/stapi/OneDrive/Desktop/GD32VW553/V1_MQTT_OK/GD32VW55X_Wifi_BLE_SDK/GD32VW55x_RELEASE_V1.0.2/MSDK/lwip/lwip-2.1.2/src/core\altcp_tcp.c ****     if (conn->poll) {
 1257              		.loc 1 136 5 discriminator 2
 136:C:/Users/stapi/OneDrive/Desktop/GD32VW553/V1_MQTT_OK/GD32VW55X_Wifi_BLE_SDK/GD32VW55x_RELEASE_V1.0.2/MSDK/lwip/lwip-2.1.2/src/core\altcp_tcp.c ****     if (conn->poll) {
 1258              		.loc 1 136 5 discriminator 2
 136:C:/Users/stapi/OneDrive/Desktop/GD32VW553/V1_MQTT_OK/GD32VW55X_Wifi_BLE_SDK/GD32VW55x_RELEASE_V1.0.2/MSDK/lwip/lwip-2.1.2/src/core\altcp_tcp.c ****     if (conn->poll) {
 1259              		.loc 1 136 5 discriminator 2
 136:C:/Users/stapi/OneDrive/Desktop/GD32VW553/V1_MQTT_OK/GD32VW55X_Wifi_BLE_SDK/GD32VW55x_RELEASE_V1.0.2/MSDK/lwip/lwip-2.1.2/src/core\altcp_tcp.c ****     if (conn->poll) {
 1260              		.loc 1 136 5 discriminator 2
 136:C:/Users/stapi/OneDrive/Desktop/GD32VW553/V1_MQTT_OK/GD32VW55X_Wifi_BLE_SDK/GD32VW55x_RELEASE_V1.0.2/MSDK/lwip/lwip-2.1.2/src/core\altcp_tcp.c ****     if (conn->poll) {
 1261              		.loc 1 136 5 discriminator 2
 136:C:/Users/stapi/OneDrive/Desktop/GD32VW553/V1_MQTT_OK/GD32VW55X_Wifi_BLE_SDK/GD32VW55x_RELEASE_V1.0.2/MSDK/lwip/lwip-2.1.2/src/core\altcp_tcp.c ****     if (conn->poll) {
 1262              		.loc 1 136 5 discriminator 2
 1263 0038 5841     		lw	a4,4(a0)
 1264 003a 05C7     		beq	a4,zero,.L159
 136:C:/Users/stapi/OneDrive/Desktop/GD32VW553/V1_MQTT_OK/GD32VW55X_Wifi_BLE_SDK/GD32VW55x_RELEASE_V1.0.2/MSDK/lwip/lwip-2.1.2/src/core\altcp_tcp.c ****     if (conn->poll) {
 1265              		.loc 1 136 5 discriminator 4
 136:C:/Users/stapi/OneDrive/Desktop/GD32VW553/V1_MQTT_OK/GD32VW55X_Wifi_BLE_SDK/GD32VW55x_RELEASE_V1.0.2/MSDK/lwip/lwip-2.1.2/src/core\altcp_tcp.c ****     if (conn->poll) {
 1266              		.loc 1 136 5 discriminator 4
 1267 003c B7060000 		lui	a3,%hi(.LC0)
 1268 0040 B7050000 		lui	a1,%hi(.LC3)
 1269              	.LVL154:
 1270 0044 37050000 		lui	a0,%hi(.LC2)
 1271              	.LVL155:
 1272 0048 93860600 		addi	a3,a3,%lo(.LC0)
 1273 004c 13068008 		li	a2,136
 1274 0050 93850500 		addi	a1,a1,%lo(.LC3)
 1275 0054 13050500 		addi	a0,a0,%lo(.LC2)
 1276 0058 97000000 		call	printf
 1276      E7800000 
 1277              	.LVL156:
 1278              	.L160:
 136:C:/Users/stapi/OneDrive/Desktop/GD32VW553/V1_MQTT_OK/GD32VW55X_Wifi_BLE_SDK/GD32VW55x_RELEASE_V1.0.2/MSDK/lwip/lwip-2.1.2/src/core\altcp_tcp.c ****     if (conn->poll) {
 1279              		.loc 1 136 5 discriminator 2
 136:C:/Users/stapi/OneDrive/Desktop/GD32VW553/V1_MQTT_OK/GD32VW55X_Wifi_BLE_SDK/GD32VW55x_RELEASE_V1.0.2/MSDK/lwip/lwip-2.1.2/src/core\altcp_tcp.c ****     if (conn->poll) {
 1280              		.loc 1 136 5 discriminator 2
 136:C:/Users/stapi/OneDrive/Desktop/GD32VW553/V1_MQTT_OK/GD32VW55X_Wifi_BLE_SDK/GD32VW55x_RELEASE_V1.0.2/MSDK/lwip/lwip-2.1.2/src/core\altcp_tcp.c ****     if (conn->poll) {
 1281              		.loc 1 136 5 discriminator 2
 1282 0060 01A0     		j	.L160
 1283              	.LVL157:
 1284              	.L159:
 1285              	.LBB88:
 1286              	.LBB89:
 136:C:/Users/stapi/OneDrive/Desktop/GD32VW553/V1_MQTT_OK/GD32VW55X_Wifi_BLE_SDK/GD32VW55x_RELEASE_V1.0.2/MSDK/lwip/lwip-2.1.2/src/core\altcp_tcp.c ****     if (conn->poll) {
 1287              		.loc 1 136 5
 136:C:/Users/stapi/OneDrive/Desktop/GD32VW553/V1_MQTT_OK/GD32VW55X_Wifi_BLE_SDK/GD32VW55x_RELEASE_V1.0.2/MSDK/lwip/lwip-2.1.2/src/core\altcp_tcp.c ****     if (conn->poll) {
 1288              		.loc 1 136 5
 136:C:/Users/stapi/OneDrive/Desktop/GD32VW553/V1_MQTT_OK/GD32VW55X_Wifi_BLE_SDK/GD32VW55x_RELEASE_V1.0.2/MSDK/lwip/lwip-2.1.2/src/core\altcp_tcp.c ****     if (conn->poll) {
 1289              		.loc 1 136 5
 136:C:/Users/stapi/OneDrive/Desktop/GD32VW553/V1_MQTT_OK/GD32VW55X_Wifi_BLE_SDK/GD32VW55x_RELEASE_V1.0.2/MSDK/lwip/lwip-2.1.2/src/core\altcp_tcp.c ****     if (conn->poll) {
 1290              		.loc 1 136 5
 136:C:/Users/stapi/OneDrive/Desktop/GD32VW553/V1_MQTT_OK/GD32VW55X_Wifi_BLE_SDK/GD32VW55x_RELEASE_V1.0.2/MSDK/lwip/lwip-2.1.2/src/core\altcp_tcp.c ****     if (conn->poll) {
 1291              		.loc 1 136 5
 137:C:/Users/stapi/OneDrive/Desktop/GD32VW553/V1_MQTT_OK/GD32VW55X_Wifi_BLE_SDK/GD32VW55x_RELEASE_V1.0.2/MSDK/lwip/lwip-2.1.2/src/core\altcp_tcp.c ****       return conn->poll(conn->arg, conn);
 1292              		.loc 1 137 5
 137:C:/Users/stapi/OneDrive/Desktop/GD32VW553/V1_MQTT_OK/GD32VW55X_Wifi_BLE_SDK/GD32VW55x_RELEASE_V1.0.2/MSDK/lwip/lwip-2.1.2/src/core\altcp_tcp.c ****       return conn->poll(conn->arg, conn);
 1293              		.loc 1 137 13 is_stmt 0
 1294 0062 1851     		lw	a4,32(a0)
 1295              	.LBE89:
 1296              	.LBE88:
 141:C:/Users/stapi/OneDrive/Desktop/GD32VW553/V1_MQTT_OK/GD32VW55X_Wifi_BLE_SDK/GD32VW55x_RELEASE_V1.0.2/MSDK/lwip/lwip-2.1.2/src/core\altcp_tcp.c **** }
 1297              		.loc 1 141 10
 1298 0064 0145     		li	a0,0
 1299              	.LVL158:
 1300              	.LBB91:
 1301              	.LBB90:
 137:C:/Users/stapi/OneDrive/Desktop/GD32VW553/V1_MQTT_OK/GD32VW55X_Wifi_BLE_SDK/GD32VW55x_RELEASE_V1.0.2/MSDK/lwip/lwip-2.1.2/src/core\altcp_tcp.c ****       return conn->poll(conn->arg, conn);
 1302              		.loc 1 137 8
 1303 0066 01C7     		beq	a4,zero,.L156
 138:C:/Users/stapi/OneDrive/Desktop/GD32VW553/V1_MQTT_OK/GD32VW55X_Wifi_BLE_SDK/GD32VW55x_RELEASE_V1.0.2/MSDK/lwip/lwip-2.1.2/src/core\altcp_tcp.c ****     }
 1304              		.loc 1 138 7 is_stmt 1
 138:C:/Users/stapi/OneDrive/Desktop/GD32VW553/V1_MQTT_OK/GD32VW55X_Wifi_BLE_SDK/GD32VW55x_RELEASE_V1.0.2/MSDK/lwip/lwip-2.1.2/src/core\altcp_tcp.c ****     }
 1305              		.loc 1 138 14 is_stmt 0
 1306 0068 8847     		lw	a0,8(a5)
 1307 006a BE85     		mv	a1,a5
 1308              	.LVL159:
 1309 006c 0297     		jalr	a4
 1310              	.LVL160:
 1311              	.L156:
 1312              	.LBE90:
 1313              	.LBE91:
 142:C:/Users/stapi/OneDrive/Desktop/GD32VW553/V1_MQTT_OK/GD32VW55X_Wifi_BLE_SDK/GD32VW55x_RELEASE_V1.0.2/MSDK/lwip/lwip-2.1.2/src/core\altcp_tcp.c **** 
 1314              		.loc 1 142 1
 1315 006e 17030000 		tail	__riscv_restore_0
 1315      67000300 
 1316              		.cfi_restore 1
 1317              		.cfi_def_cfa_offset 0
 1318              	.LVL161:
 1319              	.L161:
 141:C:/Users/stapi/OneDrive/Desktop/GD32VW553/V1_MQTT_OK/GD32VW55X_Wifi_BLE_SDK/GD32VW55x_RELEASE_V1.0.2/MSDK/lwip/lwip-2.1.2/src/core\altcp_tcp.c **** }
 1320              		.loc 1 141 10
 1321 0076 0145     		li	a0,0
 1322              	.LVL162:
 142:C:/Users/stapi/OneDrive/Desktop/GD32VW553/V1_MQTT_OK/GD32VW55X_Wifi_BLE_SDK/GD32VW55x_RELEASE_V1.0.2/MSDK/lwip/lwip-2.1.2/src/core\altcp_tcp.c **** 
 1323              		.loc 1 142 1
 1324 0078 8280     		ret
 1325              		.cfi_endproc
 1326              	.LFE8:
 1328              		.section	.text.altcp_tcp_setprio,"ax",@progbits
 1329              		.align	1
 1331              	altcp_tcp_setprio:
 1332              	.LFB32:
 441:C:/Users/stapi/OneDrive/Desktop/GD32VW553/V1_MQTT_OK/GD32VW55X_Wifi_BLE_SDK/GD32VW55x_RELEASE_V1.0.2/MSDK/lwip/lwip-2.1.2/src/core\altcp_tcp.c ****   if (conn != NULL) {
 1333              		.loc 1 441 1 is_stmt 1
 1334              		.cfi_startproc
 1335              	.LVL163:
 442:C:/Users/stapi/OneDrive/Desktop/GD32VW553/V1_MQTT_OK/GD32VW55X_Wifi_BLE_SDK/GD32VW55x_RELEASE_V1.0.2/MSDK/lwip/lwip-2.1.2/src/core\altcp_tcp.c ****     struct tcp_pcb *pcb = (struct tcp_pcb *)conn->state;
 1336              		.loc 1 442 3
 442:C:/Users/stapi/OneDrive/Desktop/GD32VW553/V1_MQTT_OK/GD32VW55X_Wifi_BLE_SDK/GD32VW55x_RELEASE_V1.0.2/MSDK/lwip/lwip-2.1.2/src/core\altcp_tcp.c ****     struct tcp_pcb *pcb = (struct tcp_pcb *)conn->state;
 1337              		.loc 1 442 6 is_stmt 0
 1338 0000 39C1     		beq	a0,zero,.L176
 441:C:/Users/stapi/OneDrive/Desktop/GD32VW553/V1_MQTT_OK/GD32VW55X_Wifi_BLE_SDK/GD32VW55x_RELEASE_V1.0.2/MSDK/lwip/lwip-2.1.2/src/core\altcp_tcp.c ****   if (conn != NULL) {
 1339              		.loc 1 441 1
 1340 0002 17030000 		call	t0,__riscv_save_0
 1340      E7020300 
 1341              		.cfi_offset 1, -4
 1342              		.cfi_def_cfa_offset 16
 1343              	.LBB96:
 443:C:/Users/stapi/OneDrive/Desktop/GD32VW553/V1_MQTT_OK/GD32VW55X_Wifi_BLE_SDK/GD32VW55x_RELEASE_V1.0.2/MSDK/lwip/lwip-2.1.2/src/core\altcp_tcp.c ****     ALTCP_TCP_ASSERT_CONN(conn);
 1344              		.loc 1 443 5 is_stmt 1
 1345              	.LVL164:
 444:C:/Users/stapi/OneDrive/Desktop/GD32VW553/V1_MQTT_OK/GD32VW55X_Wifi_BLE_SDK/GD32VW55x_RELEASE_V1.0.2/MSDK/lwip/lwip-2.1.2/src/core\altcp_tcp.c ****     tcp_setprio(pcb, prio);
 1346              		.loc 1 444 5
 444:C:/Users/stapi/OneDrive/Desktop/GD32VW553/V1_MQTT_OK/GD32VW55X_Wifi_BLE_SDK/GD32VW55x_RELEASE_V1.0.2/MSDK/lwip/lwip-2.1.2/src/core\altcp_tcp.c ****     tcp_setprio(pcb, prio);
 1347              		.loc 1 444 5
 444:C:/Users/stapi/OneDrive/Desktop/GD32VW553/V1_MQTT_OK/GD32VW55X_Wifi_BLE_SDK/GD32VW55x_RELEASE_V1.0.2/MSDK/lwip/lwip-2.1.2/src/core\altcp_tcp.c ****     tcp_setprio(pcb, prio);
 1348              		.loc 1 444 5
 1349 000a 5C41     		lw	a5,4(a0)
 1350 000c 85C7     		beq	a5,zero,.L170
 1351              	.LVL165:
 1352              	.LBE96:
 1353              	.LBB97:
 1354              	.LBB98:
 444:C:/Users/stapi/OneDrive/Desktop/GD32VW553/V1_MQTT_OK/GD32VW55X_Wifi_BLE_SDK/GD32VW55x_RELEASE_V1.0.2/MSDK/lwip/lwip-2.1.2/src/core\altcp_tcp.c ****     tcp_setprio(pcb, prio);
 1355              		.loc 1 444 5
 444:C:/Users/stapi/OneDrive/Desktop/GD32VW553/V1_MQTT_OK/GD32VW55X_Wifi_BLE_SDK/GD32VW55x_RELEASE_V1.0.2/MSDK/lwip/lwip-2.1.2/src/core\altcp_tcp.c ****     tcp_setprio(pcb, prio);
 1356              		.loc 1 444 5
 1357 000e B7060000 		lui	a3,%hi(.LC0)
 1358 0012 B7050000 		lui	a1,%hi(.LC3)
 1359              	.LVL166:
 1360 0016 37050000 		lui	a0,%hi(.LC2)
 1361              	.LVL167:
 1362 001a 93860600 		addi	a3,a3,%lo(.LC0)
 1363 001e 1306C01B 		li	a2,444
 1364 0022 93850500 		addi	a1,a1,%lo(.LC3)
 1365 0026 13050500 		addi	a0,a0,%lo(.LC2)
 1366 002a 97000000 		call	printf
 1366      E7800000 
 1367              	.LVL168:
 1368              	.L171:
 444:C:/Users/stapi/OneDrive/Desktop/GD32VW553/V1_MQTT_OK/GD32VW55X_Wifi_BLE_SDK/GD32VW55x_RELEASE_V1.0.2/MSDK/lwip/lwip-2.1.2/src/core\altcp_tcp.c ****     tcp_setprio(pcb, prio);
 1369              		.loc 1 444 5
 444:C:/Users/stapi/OneDrive/Desktop/GD32VW553/V1_MQTT_OK/GD32VW55X_Wifi_BLE_SDK/GD32VW55x_RELEASE_V1.0.2/MSDK/lwip/lwip-2.1.2/src/core\altcp_tcp.c ****     tcp_setprio(pcb, prio);
 1370              		.loc 1 444 5
 444:C:/Users/stapi/OneDrive/Desktop/GD32VW553/V1_MQTT_OK/GD32VW55X_Wifi_BLE_SDK/GD32VW55x_RELEASE_V1.0.2/MSDK/lwip/lwip-2.1.2/src/core\altcp_tcp.c ****     tcp_setprio(pcb, prio);
 1371              		.loc 1 444 5
 1372 0032 01A0     		j	.L171
 1373              	.LVL169:
 1374              	.L170:
 1375              	.LBE98:
 1376              	.LBE97:
 1377              	.LBB99:
 444:C:/Users/stapi/OneDrive/Desktop/GD32VW553/V1_MQTT_OK/GD32VW55X_Wifi_BLE_SDK/GD32VW55x_RELEASE_V1.0.2/MSDK/lwip/lwip-2.1.2/src/core\altcp_tcp.c ****     tcp_setprio(pcb, prio);
 1378              		.loc 1 444 5 discriminator 2
 444:C:/Users/stapi/OneDrive/Desktop/GD32VW553/V1_MQTT_OK/GD32VW55X_Wifi_BLE_SDK/GD32VW55x_RELEASE_V1.0.2/MSDK/lwip/lwip-2.1.2/src/core\altcp_tcp.c ****     tcp_setprio(pcb, prio);
 1379              		.loc 1 444 5 discriminator 2
 444:C:/Users/stapi/OneDrive/Desktop/GD32VW553/V1_MQTT_OK/GD32VW55X_Wifi_BLE_SDK/GD32VW55x_RELEASE_V1.0.2/MSDK/lwip/lwip-2.1.2/src/core\altcp_tcp.c ****     tcp_setprio(pcb, prio);
 1380              		.loc 1 444 5 discriminator 2
 444:C:/Users/stapi/OneDrive/Desktop/GD32VW553/V1_MQTT_OK/GD32VW55X_Wifi_BLE_SDK/GD32VW55x_RELEASE_V1.0.2/MSDK/lwip/lwip-2.1.2/src/core\altcp_tcp.c ****     tcp_setprio(pcb, prio);
 1381              		.loc 1 444 5 discriminator 2
 445:C:/Users/stapi/OneDrive/Desktop/GD32VW553/V1_MQTT_OK/GD32VW55X_Wifi_BLE_SDK/GD32VW55x_RELEASE_V1.0.2/MSDK/lwip/lwip-2.1.2/src/core\altcp_tcp.c ****   }
 1382              		.loc 1 445 5 discriminator 2
 1383 0034 4845     		lw	a0,12(a0)
 1384              	.LVL170:
 1385 0036 97000000 		call	tcp_setprio
 1385      E7800000 
 1386              	.LVL171:
 1387              	.LBE99:
 447:C:/Users/stapi/OneDrive/Desktop/GD32VW553/V1_MQTT_OK/GD32VW55X_Wifi_BLE_SDK/GD32VW55x_RELEASE_V1.0.2/MSDK/lwip/lwip-2.1.2/src/core\altcp_tcp.c **** 
 1388              		.loc 1 447 1 is_stmt 0 discriminator 2
 1389 003e 17030000 		tail	__riscv_restore_0
 1389      67000300 
 1390              		.cfi_restore 1
 1391              		.cfi_def_cfa_offset 0
 1392              	.LVL172:
 1393              	.L176:
 1394 0046 8280     		ret
 1395              		.cfi_endproc
 1396              	.LFE32:
 1398              		.section	.text.altcp_tcp_close,"ax",@progbits
 1399              		.align	1
 1401              	altcp_tcp_close:
 1402              	.LFB22:
 311:C:/Users/stapi/OneDrive/Desktop/GD32VW553/V1_MQTT_OK/GD32VW55X_Wifi_BLE_SDK/GD32VW55x_RELEASE_V1.0.2/MSDK/lwip/lwip-2.1.2/src/core\altcp_tcp.c ****   struct tcp_pcb *pcb;
 1403              		.loc 1 311 1 is_stmt 1
 1404              		.cfi_startproc
 1405              	.LVL173:
 1406 0000 17030000 		call	t0,__riscv_save_4
 1406      E7020300 
 1407              		.cfi_offset 19, -20
 1408              		.cfi_offset 18, -16
 1409              		.cfi_offset 9, -12
 1410              		.cfi_offset 8, -8
 1411              		.cfi_offset 1, -4
 1412              		.cfi_def_cfa_offset 32
 312:C:/Users/stapi/OneDrive/Desktop/GD32VW553/V1_MQTT_OK/GD32VW55X_Wifi_BLE_SDK/GD32VW55x_RELEASE_V1.0.2/MSDK/lwip/lwip-2.1.2/src/core\altcp_tcp.c ****   if (conn == NULL) {
 1413              		.loc 1 312 3
 313:C:/Users/stapi/OneDrive/Desktop/GD32VW553/V1_MQTT_OK/GD32VW55X_Wifi_BLE_SDK/GD32VW55x_RELEASE_V1.0.2/MSDK/lwip/lwip-2.1.2/src/core\altcp_tcp.c ****     return ERR_VAL;
 1414              		.loc 1 313 3
 313:C:/Users/stapi/OneDrive/Desktop/GD32VW553/V1_MQTT_OK/GD32VW55X_Wifi_BLE_SDK/GD32VW55x_RELEASE_V1.0.2/MSDK/lwip/lwip-2.1.2/src/core\altcp_tcp.c ****     return ERR_VAL;
 1415              		.loc 1 313 6 is_stmt 0
 1416 0008 55CD     		beq	a0,zero,.L185
 316:C:/Users/stapi/OneDrive/Desktop/GD32VW553/V1_MQTT_OK/GD32VW55X_Wifi_BLE_SDK/GD32VW55x_RELEASE_V1.0.2/MSDK/lwip/lwip-2.1.2/src/core\altcp_tcp.c ****   pcb = (struct tcp_pcb *)conn->state;
 1417              		.loc 1 316 3
 1418 000a 5C41     		lw	a5,4(a0)
 1419 000c AA84     		mv	s1,a0
 316:C:/Users/stapi/OneDrive/Desktop/GD32VW553/V1_MQTT_OK/GD32VW55X_Wifi_BLE_SDK/GD32VW55x_RELEASE_V1.0.2/MSDK/lwip/lwip-2.1.2/src/core\altcp_tcp.c ****   pcb = (struct tcp_pcb *)conn->state;
 1420              		.loc 1 316 3 is_stmt 1
 316:C:/Users/stapi/OneDrive/Desktop/GD32VW553/V1_MQTT_OK/GD32VW55X_Wifi_BLE_SDK/GD32VW55x_RELEASE_V1.0.2/MSDK/lwip/lwip-2.1.2/src/core\altcp_tcp.c ****   pcb = (struct tcp_pcb *)conn->state;
 1421              		.loc 1 316 3
 316:C:/Users/stapi/OneDrive/Desktop/GD32VW553/V1_MQTT_OK/GD32VW55X_Wifi_BLE_SDK/GD32VW55x_RELEASE_V1.0.2/MSDK/lwip/lwip-2.1.2/src/core\altcp_tcp.c ****   pcb = (struct tcp_pcb *)conn->state;
 1422              		.loc 1 316 3
 1423 000e 85C7     		beq	a5,zero,.L181
 316:C:/Users/stapi/OneDrive/Desktop/GD32VW553/V1_MQTT_OK/GD32VW55X_Wifi_BLE_SDK/GD32VW55x_RELEASE_V1.0.2/MSDK/lwip/lwip-2.1.2/src/core\altcp_tcp.c ****   pcb = (struct tcp_pcb *)conn->state;
 1424              		.loc 1 316 3 discriminator 1
 316:C:/Users/stapi/OneDrive/Desktop/GD32VW553/V1_MQTT_OK/GD32VW55X_Wifi_BLE_SDK/GD32VW55x_RELEASE_V1.0.2/MSDK/lwip/lwip-2.1.2/src/core\altcp_tcp.c ****   pcb = (struct tcp_pcb *)conn->state;
 1425              		.loc 1 316 3 discriminator 1
 1426 0010 B7060000 		lui	a3,%hi(.LC0)
 1427 0014 B7050000 		lui	a1,%hi(.LC3)
 1428 0018 37050000 		lui	a0,%hi(.LC2)
 1429              	.LVL174:
 1430 001c 93860600 		addi	a3,a3,%lo(.LC0)
 1431 0020 1306C013 		li	a2,316
 1432 0024 93850500 		addi	a1,a1,%lo(.LC3)
 1433 0028 13050500 		addi	a0,a0,%lo(.LC2)
 1434 002c 97000000 		call	printf
 1434      E7800000 
 1435              	.LVL175:
 1436              	.L182:
 316:C:/Users/stapi/OneDrive/Desktop/GD32VW553/V1_MQTT_OK/GD32VW55X_Wifi_BLE_SDK/GD32VW55x_RELEASE_V1.0.2/MSDK/lwip/lwip-2.1.2/src/core\altcp_tcp.c ****   pcb = (struct tcp_pcb *)conn->state;
 1437              		.loc 1 316 3 discriminator 1
 316:C:/Users/stapi/OneDrive/Desktop/GD32VW553/V1_MQTT_OK/GD32VW55X_Wifi_BLE_SDK/GD32VW55x_RELEASE_V1.0.2/MSDK/lwip/lwip-2.1.2/src/core\altcp_tcp.c ****   pcb = (struct tcp_pcb *)conn->state;
 1438              		.loc 1 316 3 discriminator 1
 316:C:/Users/stapi/OneDrive/Desktop/GD32VW553/V1_MQTT_OK/GD32VW55X_Wifi_BLE_SDK/GD32VW55x_RELEASE_V1.0.2/MSDK/lwip/lwip-2.1.2/src/core\altcp_tcp.c ****   pcb = (struct tcp_pcb *)conn->state;
 1439              		.loc 1 316 3 discriminator 1
 1440 0034 01A0     		j	.L182
 1441              	.L181:
 1442              	.LVL176:
 1443              	.LBB105:
 1444              	.LBB106:
 316:C:/Users/stapi/OneDrive/Desktop/GD32VW553/V1_MQTT_OK/GD32VW55X_Wifi_BLE_SDK/GD32VW55x_RELEASE_V1.0.2/MSDK/lwip/lwip-2.1.2/src/core\altcp_tcp.c ****   pcb = (struct tcp_pcb *)conn->state;
 1445              		.loc 1 316 3
 316:C:/Users/stapi/OneDrive/Desktop/GD32VW553/V1_MQTT_OK/GD32VW55X_Wifi_BLE_SDK/GD32VW55x_RELEASE_V1.0.2/MSDK/lwip/lwip-2.1.2/src/core\altcp_tcp.c ****   pcb = (struct tcp_pcb *)conn->state;
 1446              		.loc 1 316 3
 316:C:/Users/stapi/OneDrive/Desktop/GD32VW553/V1_MQTT_OK/GD32VW55X_Wifi_BLE_SDK/GD32VW55x_RELEASE_V1.0.2/MSDK/lwip/lwip-2.1.2/src/core\altcp_tcp.c ****   pcb = (struct tcp_pcb *)conn->state;
 1447              		.loc 1 316 3
 316:C:/Users/stapi/OneDrive/Desktop/GD32VW553/V1_MQTT_OK/GD32VW55X_Wifi_BLE_SDK/GD32VW55x_RELEASE_V1.0.2/MSDK/lwip/lwip-2.1.2/src/core\altcp_tcp.c ****   pcb = (struct tcp_pcb *)conn->state;
 1448              		.loc 1 316 3
 317:C:/Users/stapi/OneDrive/Desktop/GD32VW553/V1_MQTT_OK/GD32VW55X_Wifi_BLE_SDK/GD32VW55x_RELEASE_V1.0.2/MSDK/lwip/lwip-2.1.2/src/core\altcp_tcp.c ****   if (pcb) {
 1449              		.loc 1 317 3
 317:C:/Users/stapi/OneDrive/Desktop/GD32VW553/V1_MQTT_OK/GD32VW55X_Wifi_BLE_SDK/GD32VW55x_RELEASE_V1.0.2/MSDK/lwip/lwip-2.1.2/src/core\altcp_tcp.c ****   if (pcb) {
 1450              		.loc 1 317 7 is_stmt 0
 1451 0036 4045     		lw	s0,12(a0)
 1452              	.LVL177:
 318:C:/Users/stapi/OneDrive/Desktop/GD32VW553/V1_MQTT_OK/GD32VW55X_Wifi_BLE_SDK/GD32VW55x_RELEASE_V1.0.2/MSDK/lwip/lwip-2.1.2/src/core\altcp_tcp.c ****     err_t err;
 1453              		.loc 1 318 3 is_stmt 1
 318:C:/Users/stapi/OneDrive/Desktop/GD32VW553/V1_MQTT_OK/GD32VW55X_Wifi_BLE_SDK/GD32VW55x_RELEASE_V1.0.2/MSDK/lwip/lwip-2.1.2/src/core\altcp_tcp.c ****     err_t err;
 1454              		.loc 1 318 6 is_stmt 0
 1455 0038 3DCC     		beq	s0,zero,.L183
 1456              	.LBB107:
 319:C:/Users/stapi/OneDrive/Desktop/GD32VW553/V1_MQTT_OK/GD32VW55X_Wifi_BLE_SDK/GD32VW55x_RELEASE_V1.0.2/MSDK/lwip/lwip-2.1.2/src/core\altcp_tcp.c ****     tcp_poll_fn oldpoll = pcb->poll;
 1457              		.loc 1 319 5 is_stmt 1
 320:C:/Users/stapi/OneDrive/Desktop/GD32VW553/V1_MQTT_OK/GD32VW55X_Wifi_BLE_SDK/GD32VW55x_RELEASE_V1.0.2/MSDK/lwip/lwip-2.1.2/src/core\altcp_tcp.c ****     altcp_tcp_remove_callbacks(pcb);
 1458              		.loc 1 320 5
 1459              	.LBB108:
 1460              	.LBB109:
 162:C:/Users/stapi/OneDrive/Desktop/GD32VW553/V1_MQTT_OK/GD32VW55X_Wifi_BLE_SDK/GD32VW55x_RELEASE_V1.0.2/MSDK/lwip/lwip-2.1.2/src/core\altcp_tcp.c ****   tcp_recv(tpcb, NULL);
 1461              		.loc 1 162 3 is_stmt 0
 1462 003a 8145     		li	a1,0
 1463 003c 2285     		mv	a0,s0
 1464              	.LBE109:
 1465              	.LBE108:
 320:C:/Users/stapi/OneDrive/Desktop/GD32VW553/V1_MQTT_OK/GD32VW55X_Wifi_BLE_SDK/GD32VW55x_RELEASE_V1.0.2/MSDK/lwip/lwip-2.1.2/src/core\altcp_tcp.c ****     altcp_tcp_remove_callbacks(pcb);
 1466              		.loc 1 320 17
 1467 003e 8329040C 		lw	s3,192(s0)
 1468              	.LVL178:
 321:C:/Users/stapi/OneDrive/Desktop/GD32VW553/V1_MQTT_OK/GD32VW55X_Wifi_BLE_SDK/GD32VW55x_RELEASE_V1.0.2/MSDK/lwip/lwip-2.1.2/src/core\altcp_tcp.c ****     err = tcp_close(pcb);
 1469              		.loc 1 321 5 is_stmt 1
 1470              	.LBB111:
 1471              	.LBB110:
 162:C:/Users/stapi/OneDrive/Desktop/GD32VW553/V1_MQTT_OK/GD32VW55X_Wifi_BLE_SDK/GD32VW55x_RELEASE_V1.0.2/MSDK/lwip/lwip-2.1.2/src/core\altcp_tcp.c ****   tcp_recv(tpcb, NULL);
 1472              		.loc 1 162 3
 1473 0042 97000000 		call	tcp_arg
 1473      E7800000 
 1474              	.LVL179:
 163:C:/Users/stapi/OneDrive/Desktop/GD32VW553/V1_MQTT_OK/GD32VW55X_Wifi_BLE_SDK/GD32VW55x_RELEASE_V1.0.2/MSDK/lwip/lwip-2.1.2/src/core\altcp_tcp.c ****   tcp_sent(tpcb, NULL);
 1475              		.loc 1 163 3
 1476 004a 8145     		li	a1,0
 1477 004c 2285     		mv	a0,s0
 1478 004e 97000000 		call	tcp_recv
 1478      E7800000 
 1479              	.LVL180:
 164:C:/Users/stapi/OneDrive/Desktop/GD32VW553/V1_MQTT_OK/GD32VW55X_Wifi_BLE_SDK/GD32VW55x_RELEASE_V1.0.2/MSDK/lwip/lwip-2.1.2/src/core\altcp_tcp.c ****   tcp_err(tpcb, NULL);
 1480              		.loc 1 164 3
 1481 0056 8145     		li	a1,0
 1482 0058 2285     		mv	a0,s0
 1483 005a 97000000 		call	tcp_sent
 1483      E7800000 
 1484              	.LVL181:
 165:C:/Users/stapi/OneDrive/Desktop/GD32VW553/V1_MQTT_OK/GD32VW55X_Wifi_BLE_SDK/GD32VW55x_RELEASE_V1.0.2/MSDK/lwip/lwip-2.1.2/src/core\altcp_tcp.c ****   tcp_poll(tpcb, NULL, tpcb->pollinterval);
 1485              		.loc 1 165 3
 1486 0062 8145     		li	a1,0
 1487 0064 2285     		mv	a0,s0
 1488 0066 97000000 		call	tcp_err
 1488      E7800000 
 1489              	.LVL182:
 166:C:/Users/stapi/OneDrive/Desktop/GD32VW553/V1_MQTT_OK/GD32VW55X_Wifi_BLE_SDK/GD32VW55x_RELEASE_V1.0.2/MSDK/lwip/lwip-2.1.2/src/core\altcp_tcp.c **** }
 1490              		.loc 1 166 3
 1491 006e 03461402 		lbu	a2,33(s0)
 1492 0072 8145     		li	a1,0
 1493 0074 2285     		mv	a0,s0
 1494 0076 97000000 		call	tcp_poll
 1494      E7800000 
 1495              	.LVL183:
 1496              	.LBE110:
 1497              	.LBE111:
 322:C:/Users/stapi/OneDrive/Desktop/GD32VW553/V1_MQTT_OK/GD32VW55X_Wifi_BLE_SDK/GD32VW55x_RELEASE_V1.0.2/MSDK/lwip/lwip-2.1.2/src/core\altcp_tcp.c ****     if (err != ERR_OK) {
 1498              		.loc 1 322 5
 322:C:/Users/stapi/OneDrive/Desktop/GD32VW553/V1_MQTT_OK/GD32VW55X_Wifi_BLE_SDK/GD32VW55x_RELEASE_V1.0.2/MSDK/lwip/lwip-2.1.2/src/core\altcp_tcp.c ****     if (err != ERR_OK) {
 1499              		.loc 1 322 11 is_stmt 0
 1500 007e 2285     		mv	a0,s0
 1501 0080 97000000 		call	tcp_close
 1501      E7800000 
 1502              	.LVL184:
 1503 0088 2A89     		mv	s2,a0
 1504              	.LVL185:
 323:C:/Users/stapi/OneDrive/Desktop/GD32VW553/V1_MQTT_OK/GD32VW55X_Wifi_BLE_SDK/GD32VW55x_RELEASE_V1.0.2/MSDK/lwip/lwip-2.1.2/src/core\altcp_tcp.c ****       /* not closed, set up all callbacks again */
 1505              		.loc 1 323 5 is_stmt 1
 323:C:/Users/stapi/OneDrive/Desktop/GD32VW553/V1_MQTT_OK/GD32VW55X_Wifi_BLE_SDK/GD32VW55x_RELEASE_V1.0.2/MSDK/lwip/lwip-2.1.2/src/core\altcp_tcp.c ****       /* not closed, set up all callbacks again */
 1506              		.loc 1 323 8 is_stmt 0
 1507 008a 05C5     		beq	a0,zero,.L184
 325:C:/Users/stapi/OneDrive/Desktop/GD32VW553/V1_MQTT_OK/GD32VW55X_Wifi_BLE_SDK/GD32VW55x_RELEASE_V1.0.2/MSDK/lwip/lwip-2.1.2/src/core\altcp_tcp.c ****       /* poll callback is not included in the above */
 1508              		.loc 1 325 7 is_stmt 1
 1509 008c A285     		mv	a1,s0
 1510 008e 2685     		mv	a0,s1
 1511              	.LVL186:
 1512 0090 97000000 		call	altcp_tcp_setup_callbacks
 1512      E7800000 
 1513              	.LVL187:
 327:C:/Users/stapi/OneDrive/Desktop/GD32VW553/V1_MQTT_OK/GD32VW55X_Wifi_BLE_SDK/GD32VW55x_RELEASE_V1.0.2/MSDK/lwip/lwip-2.1.2/src/core\altcp_tcp.c ****       return err;
 1514              		.loc 1 327 7
 1515 0098 03461402 		lbu	a2,33(s0)
 1516 009c CE85     		mv	a1,s3
 1517 009e 2285     		mv	a0,s0
 1518 00a0 97000000 		call	tcp_poll
 1518      E7800000 
 1519              	.LVL188:
 328:C:/Users/stapi/OneDrive/Desktop/GD32VW553/V1_MQTT_OK/GD32VW55X_Wifi_BLE_SDK/GD32VW55x_RELEASE_V1.0.2/MSDK/lwip/lwip-2.1.2/src/core\altcp_tcp.c ****     }
 1520              		.loc 1 328 7
 1521              	.L180:
 1522              	.LBE107:
 1523              	.LBE106:
 1524              	.LBE105:
 334:C:/Users/stapi/OneDrive/Desktop/GD32VW553/V1_MQTT_OK/GD32VW55X_Wifi_BLE_SDK/GD32VW55x_RELEASE_V1.0.2/MSDK/lwip/lwip-2.1.2/src/core\altcp_tcp.c **** 
 1525              		.loc 1 334 1 is_stmt 0
 1526 00a8 4A85     		mv	a0,s2
 1527 00aa 17030000 		tail	__riscv_restore_4
 1527      67000300 
 1528              		.cfi_remember_state
 1529              		.cfi_restore 19
 1530              		.cfi_restore 18
 1531              		.cfi_restore 9
 1532              		.cfi_restore 8
 1533              		.cfi_restore 1
 1534              		.cfi_def_cfa_offset 0
 1535              	.LVL189:
 1536              	.L184:
 1537              		.cfi_restore_state
 1538              	.LBB114:
 1539              	.LBB113:
 1540              	.LBB112:
 330:C:/Users/stapi/OneDrive/Desktop/GD32VW553/V1_MQTT_OK/GD32VW55X_Wifi_BLE_SDK/GD32VW55x_RELEASE_V1.0.2/MSDK/lwip/lwip-2.1.2/src/core\altcp_tcp.c ****   }
 1541              		.loc 1 330 5 is_stmt 1
 330:C:/Users/stapi/OneDrive/Desktop/GD32VW553/V1_MQTT_OK/GD32VW55X_Wifi_BLE_SDK/GD32VW55x_RELEASE_V1.0.2/MSDK/lwip/lwip-2.1.2/src/core\altcp_tcp.c ****   }
 1542              		.loc 1 330 17 is_stmt 0
 1543 00b2 23A60400 		sw	zero,12(s1)
 1544              	.LVL190:
 1545              	.L183:
 1546              	.LBE112:
 332:C:/Users/stapi/OneDrive/Desktop/GD32VW553/V1_MQTT_OK/GD32VW55X_Wifi_BLE_SDK/GD32VW55x_RELEASE_V1.0.2/MSDK/lwip/lwip-2.1.2/src/core\altcp_tcp.c ****   return ERR_OK;
 1547              		.loc 1 332 3 is_stmt 1
 1548 00b6 2685     		mv	a0,s1
 1549 00b8 97000000 		call	altcp_free
 1549      E7800000 
 1550              	.LVL191:
 333:C:/Users/stapi/OneDrive/Desktop/GD32VW553/V1_MQTT_OK/GD32VW55X_Wifi_BLE_SDK/GD32VW55x_RELEASE_V1.0.2/MSDK/lwip/lwip-2.1.2/src/core\altcp_tcp.c **** }
 1551              		.loc 1 333 3
 333:C:/Users/stapi/OneDrive/Desktop/GD32VW553/V1_MQTT_OK/GD32VW55X_Wifi_BLE_SDK/GD32VW55x_RELEASE_V1.0.2/MSDK/lwip/lwip-2.1.2/src/core\altcp_tcp.c **** }
 1552              		.loc 1 333 10 is_stmt 0
 1553 00c0 0149     		li	s2,0
 1554 00c2 DDB7     		j	.L180
 1555              	.LVL192:
 1556              	.L185:
 1557              	.LBE113:
 1558              	.LBE114:
 314:C:/Users/stapi/OneDrive/Desktop/GD32VW553/V1_MQTT_OK/GD32VW55X_Wifi_BLE_SDK/GD32VW55x_RELEASE_V1.0.2/MSDK/lwip/lwip-2.1.2/src/core\altcp_tcp.c ****   }
 1559              		.loc 1 314 12
 1560 00c4 6959     		li	s2,-6
 1561 00c6 CDB7     		j	.L180
 1562              		.cfi_endproc
 1563              	.LFE22:
 1565              		.section	.text.altcp_tcp_set_poll,"ax",@progbits
 1566              		.align	1
 1568              	altcp_tcp_set_poll:
 1569              	.LFB16:
 235:C:/Users/stapi/OneDrive/Desktop/GD32VW553/V1_MQTT_OK/GD32VW55X_Wifi_BLE_SDK/GD32VW55x_RELEASE_V1.0.2/MSDK/lwip/lwip-2.1.2/src/core\altcp_tcp.c ****   if (conn != NULL) {
 1570              		.loc 1 235 1 is_stmt 1
 1571              		.cfi_startproc
 1572              	.LVL193:
 236:C:/Users/stapi/OneDrive/Desktop/GD32VW553/V1_MQTT_OK/GD32VW55X_Wifi_BLE_SDK/GD32VW55x_RELEASE_V1.0.2/MSDK/lwip/lwip-2.1.2/src/core\altcp_tcp.c ****     struct tcp_pcb *pcb = (struct tcp_pcb *)conn->state;
 1573              		.loc 1 236 3
 236:C:/Users/stapi/OneDrive/Desktop/GD32VW553/V1_MQTT_OK/GD32VW55X_Wifi_BLE_SDK/GD32VW55x_RELEASE_V1.0.2/MSDK/lwip/lwip-2.1.2/src/core\altcp_tcp.c ****     struct tcp_pcb *pcb = (struct tcp_pcb *)conn->state;
 1574              		.loc 1 236 6 is_stmt 0
 1575 0000 21C9     		beq	a0,zero,.L198
 235:C:/Users/stapi/OneDrive/Desktop/GD32VW553/V1_MQTT_OK/GD32VW55X_Wifi_BLE_SDK/GD32VW55x_RELEASE_V1.0.2/MSDK/lwip/lwip-2.1.2/src/core\altcp_tcp.c ****   if (conn != NULL) {
 1576              		.loc 1 235 1
 1577 0002 17030000 		call	t0,__riscv_save_0
 1577      E7020300 
 1578              		.cfi_offset 1, -4
 1579              		.cfi_def_cfa_offset 16
 1580              	.LBB119:
 237:C:/Users/stapi/OneDrive/Desktop/GD32VW553/V1_MQTT_OK/GD32VW55X_Wifi_BLE_SDK/GD32VW55x_RELEASE_V1.0.2/MSDK/lwip/lwip-2.1.2/src/core\altcp_tcp.c ****     ALTCP_TCP_ASSERT_CONN(conn);
 1581              		.loc 1 237 5 is_stmt 1
 1582              	.LVL194:
 238:C:/Users/stapi/OneDrive/Desktop/GD32VW553/V1_MQTT_OK/GD32VW55X_Wifi_BLE_SDK/GD32VW55x_RELEASE_V1.0.2/MSDK/lwip/lwip-2.1.2/src/core\altcp_tcp.c ****     tcp_poll(pcb, altcp_tcp_poll, interval);
 1583              		.loc 1 238 5
 238:C:/Users/stapi/OneDrive/Desktop/GD32VW553/V1_MQTT_OK/GD32VW55X_Wifi_BLE_SDK/GD32VW55x_RELEASE_V1.0.2/MSDK/lwip/lwip-2.1.2/src/core\altcp_tcp.c ****     tcp_poll(pcb, altcp_tcp_poll, interval);
 1584              		.loc 1 238 5
 238:C:/Users/stapi/OneDrive/Desktop/GD32VW553/V1_MQTT_OK/GD32VW55X_Wifi_BLE_SDK/GD32VW55x_RELEASE_V1.0.2/MSDK/lwip/lwip-2.1.2/src/core\altcp_tcp.c ****     tcp_poll(pcb, altcp_tcp_poll, interval);
 1585              		.loc 1 238 5
 1586 000a 5C41     		lw	a5,4(a0)
 1587 000c 85C7     		beq	a5,zero,.L192
 1588              	.LVL195:
 1589              	.LBE119:
 1590              	.LBB120:
 1591              	.LBB121:
 238:C:/Users/stapi/OneDrive/Desktop/GD32VW553/V1_MQTT_OK/GD32VW55X_Wifi_BLE_SDK/GD32VW55x_RELEASE_V1.0.2/MSDK/lwip/lwip-2.1.2/src/core\altcp_tcp.c ****     tcp_poll(pcb, altcp_tcp_poll, interval);
 1592              		.loc 1 238 5
 238:C:/Users/stapi/OneDrive/Desktop/GD32VW553/V1_MQTT_OK/GD32VW55X_Wifi_BLE_SDK/GD32VW55x_RELEASE_V1.0.2/MSDK/lwip/lwip-2.1.2/src/core\altcp_tcp.c ****     tcp_poll(pcb, altcp_tcp_poll, interval);
 1593              		.loc 1 238 5
 1594 000e B7060000 		lui	a3,%hi(.LC0)
 1595 0012 B7050000 		lui	a1,%hi(.LC3)
 1596              	.LVL196:
 1597 0016 37050000 		lui	a0,%hi(.LC2)
 1598              	.LVL197:
 1599 001a 93860600 		addi	a3,a3,%lo(.LC0)
 1600 001e 1306E00E 		li	a2,238
 1601 0022 93850500 		addi	a1,a1,%lo(.LC3)
 1602 0026 13050500 		addi	a0,a0,%lo(.LC2)
 1603 002a 97000000 		call	printf
 1603      E7800000 
 1604              	.LVL198:
 1605              	.L193:
 238:C:/Users/stapi/OneDrive/Desktop/GD32VW553/V1_MQTT_OK/GD32VW55X_Wifi_BLE_SDK/GD32VW55x_RELEASE_V1.0.2/MSDK/lwip/lwip-2.1.2/src/core\altcp_tcp.c ****     tcp_poll(pcb, altcp_tcp_poll, interval);
 1606              		.loc 1 238 5
 238:C:/Users/stapi/OneDrive/Desktop/GD32VW553/V1_MQTT_OK/GD32VW55X_Wifi_BLE_SDK/GD32VW55x_RELEASE_V1.0.2/MSDK/lwip/lwip-2.1.2/src/core\altcp_tcp.c ****     tcp_poll(pcb, altcp_tcp_poll, interval);
 1607              		.loc 1 238 5
 238:C:/Users/stapi/OneDrive/Desktop/GD32VW553/V1_MQTT_OK/GD32VW55X_Wifi_BLE_SDK/GD32VW55x_RELEASE_V1.0.2/MSDK/lwip/lwip-2.1.2/src/core\altcp_tcp.c ****     tcp_poll(pcb, altcp_tcp_poll, interval);
 1608              		.loc 1 238 5
 1609 0032 01A0     		j	.L193
 1610              	.LVL199:
 1611              	.L192:
 1612              	.LBE121:
 1613              	.LBE120:
 1614              	.LBB122:
 239:C:/Users/stapi/OneDrive/Desktop/GD32VW553/V1_MQTT_OK/GD32VW55X_Wifi_BLE_SDK/GD32VW55x_RELEASE_V1.0.2/MSDK/lwip/lwip-2.1.2/src/core\altcp_tcp.c ****   }
 1615              		.loc 1 239 5 is_stmt 0 discriminator 2
 1616 0034 4845     		lw	a0,12(a0)
 1617              	.LVL200:
 1618 0036 2E86     		mv	a2,a1
 238:C:/Users/stapi/OneDrive/Desktop/GD32VW553/V1_MQTT_OK/GD32VW55X_Wifi_BLE_SDK/GD32VW55x_RELEASE_V1.0.2/MSDK/lwip/lwip-2.1.2/src/core\altcp_tcp.c ****     tcp_poll(pcb, altcp_tcp_poll, interval);
 1619              		.loc 1 238 5 is_stmt 1 discriminator 2
 238:C:/Users/stapi/OneDrive/Desktop/GD32VW553/V1_MQTT_OK/GD32VW55X_Wifi_BLE_SDK/GD32VW55x_RELEASE_V1.0.2/MSDK/lwip/lwip-2.1.2/src/core\altcp_tcp.c ****     tcp_poll(pcb, altcp_tcp_poll, interval);
 1620              		.loc 1 238 5 discriminator 2
 238:C:/Users/stapi/OneDrive/Desktop/GD32VW553/V1_MQTT_OK/GD32VW55X_Wifi_BLE_SDK/GD32VW55x_RELEASE_V1.0.2/MSDK/lwip/lwip-2.1.2/src/core\altcp_tcp.c ****     tcp_poll(pcb, altcp_tcp_poll, interval);
 1621              		.loc 1 238 5 discriminator 2
 238:C:/Users/stapi/OneDrive/Desktop/GD32VW553/V1_MQTT_OK/GD32VW55X_Wifi_BLE_SDK/GD32VW55x_RELEASE_V1.0.2/MSDK/lwip/lwip-2.1.2/src/core\altcp_tcp.c ****     tcp_poll(pcb, altcp_tcp_poll, interval);
 1622              		.loc 1 238 5 discriminator 2
 239:C:/Users/stapi/OneDrive/Desktop/GD32VW553/V1_MQTT_OK/GD32VW55X_Wifi_BLE_SDK/GD32VW55x_RELEASE_V1.0.2/MSDK/lwip/lwip-2.1.2/src/core\altcp_tcp.c ****   }
 1623              		.loc 1 239 5 discriminator 2
 1624 0038 B7050000 		lui	a1,%hi(altcp_tcp_poll)
 1625              	.LVL201:
 1626 003c 93850500 		addi	a1,a1,%lo(altcp_tcp_poll)
 1627 0040 97000000 		call	tcp_poll
 1627      E7800000 
 1628              	.LVL202:
 1629              	.LBE122:
 241:C:/Users/stapi/OneDrive/Desktop/GD32VW553/V1_MQTT_OK/GD32VW55X_Wifi_BLE_SDK/GD32VW55x_RELEASE_V1.0.2/MSDK/lwip/lwip-2.1.2/src/core\altcp_tcp.c **** 
 1630              		.loc 1 241 1 is_stmt 0 discriminator 2
 1631 0048 17030000 		tail	__riscv_restore_0
 1631      67000300 
 1632              		.cfi_restore 1
 1633              		.cfi_def_cfa_offset 0
 1634              	.LVL203:
 1635              	.L198:
 1636 0050 8280     		ret
 1637              		.cfi_endproc
 1638              	.LFE16:
 1640              		.section	.text.altcp_tcp_abort,"ax",@progbits
 1641              		.align	1
 1643              	altcp_tcp_abort:
 1644              	.LFB21:
 299:C:/Users/stapi/OneDrive/Desktop/GD32VW553/V1_MQTT_OK/GD32VW55X_Wifi_BLE_SDK/GD32VW55x_RELEASE_V1.0.2/MSDK/lwip/lwip-2.1.2/src/core\altcp_tcp.c ****   if (conn != NULL) {
 1645              		.loc 1 299 1 is_stmt 1
 1646              		.cfi_startproc
 1647              	.LVL204:
 300:C:/Users/stapi/OneDrive/Desktop/GD32VW553/V1_MQTT_OK/GD32VW55X_Wifi_BLE_SDK/GD32VW55x_RELEASE_V1.0.2/MSDK/lwip/lwip-2.1.2/src/core\altcp_tcp.c ****     struct tcp_pcb *pcb = (struct tcp_pcb *)conn->state;
 1648              		.loc 1 300 3
 300:C:/Users/stapi/OneDrive/Desktop/GD32VW553/V1_MQTT_OK/GD32VW55X_Wifi_BLE_SDK/GD32VW55x_RELEASE_V1.0.2/MSDK/lwip/lwip-2.1.2/src/core\altcp_tcp.c ****     struct tcp_pcb *pcb = (struct tcp_pcb *)conn->state;
 1649              		.loc 1 300 6 is_stmt 0
 1650 0000 21C5     		beq	a0,zero,.L212
 299:C:/Users/stapi/OneDrive/Desktop/GD32VW553/V1_MQTT_OK/GD32VW55X_Wifi_BLE_SDK/GD32VW55x_RELEASE_V1.0.2/MSDK/lwip/lwip-2.1.2/src/core\altcp_tcp.c ****   if (conn != NULL) {
 1651              		.loc 1 299 1
 1652 0002 17030000 		call	t0,__riscv_save_0
 1652      E7020300 
 1653              		.cfi_offset 1, -4
 1654              		.cfi_def_cfa_offset 16
 1655              	.LBB127:
 301:C:/Users/stapi/OneDrive/Desktop/GD32VW553/V1_MQTT_OK/GD32VW55X_Wifi_BLE_SDK/GD32VW55x_RELEASE_V1.0.2/MSDK/lwip/lwip-2.1.2/src/core\altcp_tcp.c ****     ALTCP_TCP_ASSERT_CONN(conn);
 1656              		.loc 1 301 5 is_stmt 1
 1657              	.LVL205:
 302:C:/Users/stapi/OneDrive/Desktop/GD32VW553/V1_MQTT_OK/GD32VW55X_Wifi_BLE_SDK/GD32VW55x_RELEASE_V1.0.2/MSDK/lwip/lwip-2.1.2/src/core\altcp_tcp.c ****     if (pcb) {
 1658              		.loc 1 302 5
 302:C:/Users/stapi/OneDrive/Desktop/GD32VW553/V1_MQTT_OK/GD32VW55X_Wifi_BLE_SDK/GD32VW55x_RELEASE_V1.0.2/MSDK/lwip/lwip-2.1.2/src/core\altcp_tcp.c ****     if (pcb) {
 1659              		.loc 1 302 5
 302:C:/Users/stapi/OneDrive/Desktop/GD32VW553/V1_MQTT_OK/GD32VW55X_Wifi_BLE_SDK/GD32VW55x_RELEASE_V1.0.2/MSDK/lwip/lwip-2.1.2/src/core\altcp_tcp.c ****     if (pcb) {
 1660              		.loc 1 302 5
 1661 000a 5C41     		lw	a5,4(a0)
 1662 000c 85C7     		beq	a5,zero,.L203
 1663              	.LVL206:
 1664              	.LBE127:
 1665              	.LBB128:
 1666              	.LBB129:
 302:C:/Users/stapi/OneDrive/Desktop/GD32VW553/V1_MQTT_OK/GD32VW55X_Wifi_BLE_SDK/GD32VW55x_RELEASE_V1.0.2/MSDK/lwip/lwip-2.1.2/src/core\altcp_tcp.c ****     if (pcb) {
 1667              		.loc 1 302 5
 302:C:/Users/stapi/OneDrive/Desktop/GD32VW553/V1_MQTT_OK/GD32VW55X_Wifi_BLE_SDK/GD32VW55x_RELEASE_V1.0.2/MSDK/lwip/lwip-2.1.2/src/core\altcp_tcp.c ****     if (pcb) {
 1668              		.loc 1 302 5
 1669 000e B7060000 		lui	a3,%hi(.LC0)
 1670 0012 B7050000 		lui	a1,%hi(.LC3)
 1671 0016 37050000 		lui	a0,%hi(.LC2)
 1672              	.LVL207:
 1673 001a 93860600 		addi	a3,a3,%lo(.LC0)
 1674 001e 1306E012 		li	a2,302
 1675 0022 93850500 		addi	a1,a1,%lo(.LC3)
 1676 0026 13050500 		addi	a0,a0,%lo(.LC2)
 1677 002a 97000000 		call	printf
 1677      E7800000 
 1678              	.LVL208:
 1679              	.L204:
 302:C:/Users/stapi/OneDrive/Desktop/GD32VW553/V1_MQTT_OK/GD32VW55X_Wifi_BLE_SDK/GD32VW55x_RELEASE_V1.0.2/MSDK/lwip/lwip-2.1.2/src/core\altcp_tcp.c ****     if (pcb) {
 1680              		.loc 1 302 5
 302:C:/Users/stapi/OneDrive/Desktop/GD32VW553/V1_MQTT_OK/GD32VW55X_Wifi_BLE_SDK/GD32VW55x_RELEASE_V1.0.2/MSDK/lwip/lwip-2.1.2/src/core\altcp_tcp.c ****     if (pcb) {
 1681              		.loc 1 302 5
 302:C:/Users/stapi/OneDrive/Desktop/GD32VW553/V1_MQTT_OK/GD32VW55X_Wifi_BLE_SDK/GD32VW55x_RELEASE_V1.0.2/MSDK/lwip/lwip-2.1.2/src/core\altcp_tcp.c ****     if (pcb) {
 1682              		.loc 1 302 5
 1683 0032 01A0     		j	.L204
 1684              	.LVL209:
 1685              	.L203:
 1686              	.LBE129:
 1687              	.LBE128:
 1688              	.LBB130:
 301:C:/Users/stapi/OneDrive/Desktop/GD32VW553/V1_MQTT_OK/GD32VW55X_Wifi_BLE_SDK/GD32VW55x_RELEASE_V1.0.2/MSDK/lwip/lwip-2.1.2/src/core\altcp_tcp.c ****     ALTCP_TCP_ASSERT_CONN(conn);
 1689              		.loc 1 301 21 is_stmt 0 discriminator 2
 1690 0034 4845     		lw	a0,12(a0)
 1691              	.LVL210:
 302:C:/Users/stapi/OneDrive/Desktop/GD32VW553/V1_MQTT_OK/GD32VW55X_Wifi_BLE_SDK/GD32VW55x_RELEASE_V1.0.2/MSDK/lwip/lwip-2.1.2/src/core\altcp_tcp.c ****     if (pcb) {
 1692              		.loc 1 302 5 is_stmt 1 discriminator 2
 302:C:/Users/stapi/OneDrive/Desktop/GD32VW553/V1_MQTT_OK/GD32VW55X_Wifi_BLE_SDK/GD32VW55x_RELEASE_V1.0.2/MSDK/lwip/lwip-2.1.2/src/core\altcp_tcp.c ****     if (pcb) {
 1693              		.loc 1 302 5 discriminator 2
 302:C:/Users/stapi/OneDrive/Desktop/GD32VW553/V1_MQTT_OK/GD32VW55X_Wifi_BLE_SDK/GD32VW55x_RELEASE_V1.0.2/MSDK/lwip/lwip-2.1.2/src/core\altcp_tcp.c ****     if (pcb) {
 1694              		.loc 1 302 5 discriminator 2
 302:C:/Users/stapi/OneDrive/Desktop/GD32VW553/V1_MQTT_OK/GD32VW55X_Wifi_BLE_SDK/GD32VW55x_RELEASE_V1.0.2/MSDK/lwip/lwip-2.1.2/src/core\altcp_tcp.c ****     if (pcb) {
 1695              		.loc 1 302 5 discriminator 2
 303:C:/Users/stapi/OneDrive/Desktop/GD32VW553/V1_MQTT_OK/GD32VW55X_Wifi_BLE_SDK/GD32VW55x_RELEASE_V1.0.2/MSDK/lwip/lwip-2.1.2/src/core\altcp_tcp.c ****       tcp_abort(pcb);
 1696              		.loc 1 303 5 discriminator 2
 303:C:/Users/stapi/OneDrive/Desktop/GD32VW553/V1_MQTT_OK/GD32VW55X_Wifi_BLE_SDK/GD32VW55x_RELEASE_V1.0.2/MSDK/lwip/lwip-2.1.2/src/core\altcp_tcp.c ****       tcp_abort(pcb);
 1697              		.loc 1 303 8 is_stmt 0 discriminator 2
 1698 0036 09C5     		beq	a0,zero,.L201
 304:C:/Users/stapi/OneDrive/Desktop/GD32VW553/V1_MQTT_OK/GD32VW55X_Wifi_BLE_SDK/GD32VW55x_RELEASE_V1.0.2/MSDK/lwip/lwip-2.1.2/src/core\altcp_tcp.c ****     }
 1699              		.loc 1 304 7 is_stmt 1
 1700 0038 97000000 		call	tcp_abort
 1700      E7800000 
 1701              	.LVL211:
 1702              	.L201:
 1703              	.LBE130:
 307:C:/Users/stapi/OneDrive/Desktop/GD32VW553/V1_MQTT_OK/GD32VW55X_Wifi_BLE_SDK/GD32VW55x_RELEASE_V1.0.2/MSDK/lwip/lwip-2.1.2/src/core\altcp_tcp.c **** 
 1704              		.loc 1 307 1 is_stmt 0
 1705 0040 17030000 		tail	__riscv_restore_0
 1705      67000300 
 1706              		.cfi_restore 1
 1707              		.cfi_def_cfa_offset 0
 1708              	.LVL212:
 1709              	.L212:
 1710 0048 8280     		ret
 1711              		.cfi_endproc
 1712              	.LFE21:
 1714              		.section	.text.altcp_tcp_listen,"ax",@progbits
 1715              		.align	1
 1717              	altcp_tcp_listen:
 1718              	.LFB20:
 280:C:/Users/stapi/OneDrive/Desktop/GD32VW553/V1_MQTT_OK/GD32VW55X_Wifi_BLE_SDK/GD32VW55x_RELEASE_V1.0.2/MSDK/lwip/lwip-2.1.2/src/core\altcp_tcp.c ****   struct tcp_pcb *pcb;
 1719              		.loc 1 280 1 is_stmt 1
 1720              		.cfi_startproc
 1721              	.LVL213:
 1722 0000 17030000 		call	t0,__riscv_save_1
 1722      E7020300 
 1723              		.cfi_offset 8, -8
 1724              		.cfi_offset 1, -4
 1725              		.cfi_def_cfa_offset 16
 281:C:/Users/stapi/OneDrive/Desktop/GD32VW553/V1_MQTT_OK/GD32VW55X_Wifi_BLE_SDK/GD32VW55x_RELEASE_V1.0.2/MSDK/lwip/lwip-2.1.2/src/core\altcp_tcp.c ****   struct tcp_pcb *lpcb;
 1726              		.loc 1 281 3
 282:C:/Users/stapi/OneDrive/Desktop/GD32VW553/V1_MQTT_OK/GD32VW55X_Wifi_BLE_SDK/GD32VW55x_RELEASE_V1.0.2/MSDK/lwip/lwip-2.1.2/src/core\altcp_tcp.c ****   if (conn == NULL) {
 1727              		.loc 1 282 3
 283:C:/Users/stapi/OneDrive/Desktop/GD32VW553/V1_MQTT_OK/GD32VW55X_Wifi_BLE_SDK/GD32VW55x_RELEASE_V1.0.2/MSDK/lwip/lwip-2.1.2/src/core\altcp_tcp.c ****     return NULL;
 1728              		.loc 1 283 3
 283:C:/Users/stapi/OneDrive/Desktop/GD32VW553/V1_MQTT_OK/GD32VW55X_Wifi_BLE_SDK/GD32VW55x_RELEASE_V1.0.2/MSDK/lwip/lwip-2.1.2/src/core\altcp_tcp.c ****     return NULL;
 1729              		.loc 1 283 6 is_stmt 0
 1730 0008 19E5     		bne	a0,zero,.L216
 1731              	.LVL214:
 1732              	.L220:
 284:C:/Users/stapi/OneDrive/Desktop/GD32VW553/V1_MQTT_OK/GD32VW55X_Wifi_BLE_SDK/GD32VW55x_RELEASE_V1.0.2/MSDK/lwip/lwip-2.1.2/src/core\altcp_tcp.c ****   }
 1733              		.loc 1 284 12
 1734 000a 0144     		li	s0,0
 1735              	.L217:
 295:C:/Users/stapi/OneDrive/Desktop/GD32VW553/V1_MQTT_OK/GD32VW55X_Wifi_BLE_SDK/GD32VW55x_RELEASE_V1.0.2/MSDK/lwip/lwip-2.1.2/src/core\altcp_tcp.c **** 
 1736              		.loc 1 295 1
 1737 000c 2285     		mv	a0,s0
 1738 000e 17030000 		tail	__riscv_restore_1
 1738      67000300 
 1739              		.cfi_remember_state
 1740              		.cfi_restore 8
 1741              		.cfi_restore 1
 1742              		.cfi_def_cfa_offset 0
 1743              	.LVL215:
 1744              	.L216:
 1745              		.cfi_restore_state
 286:C:/Users/stapi/OneDrive/Desktop/GD32VW553/V1_MQTT_OK/GD32VW55X_Wifi_BLE_SDK/GD32VW55x_RELEASE_V1.0.2/MSDK/lwip/lwip-2.1.2/src/core\altcp_tcp.c ****   pcb = (struct tcp_pcb *)conn->state;
 1746              		.loc 1 286 3
 1747 0016 5C41     		lw	a5,4(a0)
 1748 0018 2A84     		mv	s0,a0
 286:C:/Users/stapi/OneDrive/Desktop/GD32VW553/V1_MQTT_OK/GD32VW55X_Wifi_BLE_SDK/GD32VW55x_RELEASE_V1.0.2/MSDK/lwip/lwip-2.1.2/src/core\altcp_tcp.c ****   pcb = (struct tcp_pcb *)conn->state;
 1749              		.loc 1 286 3 is_stmt 1
 286:C:/Users/stapi/OneDrive/Desktop/GD32VW553/V1_MQTT_OK/GD32VW55X_Wifi_BLE_SDK/GD32VW55x_RELEASE_V1.0.2/MSDK/lwip/lwip-2.1.2/src/core\altcp_tcp.c ****   pcb = (struct tcp_pcb *)conn->state;
 1750              		.loc 1 286 3
 286:C:/Users/stapi/OneDrive/Desktop/GD32VW553/V1_MQTT_OK/GD32VW55X_Wifi_BLE_SDK/GD32VW55x_RELEASE_V1.0.2/MSDK/lwip/lwip-2.1.2/src/core\altcp_tcp.c ****   pcb = (struct tcp_pcb *)conn->state;
 1751              		.loc 1 286 3
 1752 001a 85C7     		beq	a5,zero,.L218
 1753              	.LVL216:
 286:C:/Users/stapi/OneDrive/Desktop/GD32VW553/V1_MQTT_OK/GD32VW55X_Wifi_BLE_SDK/GD32VW55x_RELEASE_V1.0.2/MSDK/lwip/lwip-2.1.2/src/core\altcp_tcp.c ****   pcb = (struct tcp_pcb *)conn->state;
 1754              		.loc 1 286 3 discriminator 1
 286:C:/Users/stapi/OneDrive/Desktop/GD32VW553/V1_MQTT_OK/GD32VW55X_Wifi_BLE_SDK/GD32VW55x_RELEASE_V1.0.2/MSDK/lwip/lwip-2.1.2/src/core\altcp_tcp.c ****   pcb = (struct tcp_pcb *)conn->state;
 1755              		.loc 1 286 3 discriminator 1
 1756 001c B7060000 		lui	a3,%hi(.LC0)
 1757 0020 B7050000 		lui	a1,%hi(.LC3)
 1758              	.LVL217:
 1759 0024 37050000 		lui	a0,%hi(.LC2)
 1760 0028 93860600 		addi	a3,a3,%lo(.LC0)
 1761 002c 1306E011 		li	a2,286
 1762              	.LVL218:
 1763 0030 93850500 		addi	a1,a1,%lo(.LC3)
 1764 0034 13050500 		addi	a0,a0,%lo(.LC2)
 1765 0038 97000000 		call	printf
 1765      E7800000 
 1766              	.LVL219:
 1767              	.L219:
 286:C:/Users/stapi/OneDrive/Desktop/GD32VW553/V1_MQTT_OK/GD32VW55X_Wifi_BLE_SDK/GD32VW55x_RELEASE_V1.0.2/MSDK/lwip/lwip-2.1.2/src/core\altcp_tcp.c ****   pcb = (struct tcp_pcb *)conn->state;
 1768              		.loc 1 286 3 discriminator 1
 286:C:/Users/stapi/OneDrive/Desktop/GD32VW553/V1_MQTT_OK/GD32VW55X_Wifi_BLE_SDK/GD32VW55x_RELEASE_V1.0.2/MSDK/lwip/lwip-2.1.2/src/core\altcp_tcp.c ****   pcb = (struct tcp_pcb *)conn->state;
 1769              		.loc 1 286 3 discriminator 1
 286:C:/Users/stapi/OneDrive/Desktop/GD32VW553/V1_MQTT_OK/GD32VW55X_Wifi_BLE_SDK/GD32VW55x_RELEASE_V1.0.2/MSDK/lwip/lwip-2.1.2/src/core\altcp_tcp.c ****   pcb = (struct tcp_pcb *)conn->state;
 1770              		.loc 1 286 3 discriminator 1
 1771 0040 01A0     		j	.L219
 1772              	.LVL220:
 1773              	.L218:
 1774              	.LBB133:
 1775              	.LBB134:
 286:C:/Users/stapi/OneDrive/Desktop/GD32VW553/V1_MQTT_OK/GD32VW55X_Wifi_BLE_SDK/GD32VW55x_RELEASE_V1.0.2/MSDK/lwip/lwip-2.1.2/src/core\altcp_tcp.c ****   pcb = (struct tcp_pcb *)conn->state;
 1776              		.loc 1 286 3
 286:C:/Users/stapi/OneDrive/Desktop/GD32VW553/V1_MQTT_OK/GD32VW55X_Wifi_BLE_SDK/GD32VW55x_RELEASE_V1.0.2/MSDK/lwip/lwip-2.1.2/src/core\altcp_tcp.c ****   pcb = (struct tcp_pcb *)conn->state;
 1777              		.loc 1 286 3
 286:C:/Users/stapi/OneDrive/Desktop/GD32VW553/V1_MQTT_OK/GD32VW55X_Wifi_BLE_SDK/GD32VW55x_RELEASE_V1.0.2/MSDK/lwip/lwip-2.1.2/src/core\altcp_tcp.c ****   pcb = (struct tcp_pcb *)conn->state;
 1778              		.loc 1 286 3
 286:C:/Users/stapi/OneDrive/Desktop/GD32VW553/V1_MQTT_OK/GD32VW55X_Wifi_BLE_SDK/GD32VW55x_RELEASE_V1.0.2/MSDK/lwip/lwip-2.1.2/src/core\altcp_tcp.c ****   pcb = (struct tcp_pcb *)conn->state;
 1779              		.loc 1 286 3
 287:C:/Users/stapi/OneDrive/Desktop/GD32VW553/V1_MQTT_OK/GD32VW55X_Wifi_BLE_SDK/GD32VW55x_RELEASE_V1.0.2/MSDK/lwip/lwip-2.1.2/src/core\altcp_tcp.c ****   lpcb = tcp_listen_with_backlog_and_err(pcb, backlog, err);
 1780              		.loc 1 287 3
 288:C:/Users/stapi/OneDrive/Desktop/GD32VW553/V1_MQTT_OK/GD32VW55X_Wifi_BLE_SDK/GD32VW55x_RELEASE_V1.0.2/MSDK/lwip/lwip-2.1.2/src/core\altcp_tcp.c ****   if (lpcb != NULL) {
 1781              		.loc 1 288 3
 288:C:/Users/stapi/OneDrive/Desktop/GD32VW553/V1_MQTT_OK/GD32VW55X_Wifi_BLE_SDK/GD32VW55x_RELEASE_V1.0.2/MSDK/lwip/lwip-2.1.2/src/core\altcp_tcp.c ****   if (lpcb != NULL) {
 1782              		.loc 1 288 10 is_stmt 0
 1783 0042 4845     		lw	a0,12(a0)
 1784 0044 97000000 		call	tcp_listen_with_backlog_and_err
 1784      E7800000 
 1785              	.LVL221:
 289:C:/Users/stapi/OneDrive/Desktop/GD32VW553/V1_MQTT_OK/GD32VW55X_Wifi_BLE_SDK/GD32VW55x_RELEASE_V1.0.2/MSDK/lwip/lwip-2.1.2/src/core\altcp_tcp.c ****     conn->state = lpcb;
 1786              		.loc 1 289 3 is_stmt 1
 289:C:/Users/stapi/OneDrive/Desktop/GD32VW553/V1_MQTT_OK/GD32VW55X_Wifi_BLE_SDK/GD32VW55x_RELEASE_V1.0.2/MSDK/lwip/lwip-2.1.2/src/core\altcp_tcp.c ****     conn->state = lpcb;
 1787              		.loc 1 289 6 is_stmt 0
 1788 004c 5DDD     		beq	a0,zero,.L220
 290:C:/Users/stapi/OneDrive/Desktop/GD32VW553/V1_MQTT_OK/GD32VW55X_Wifi_BLE_SDK/GD32VW55x_RELEASE_V1.0.2/MSDK/lwip/lwip-2.1.2/src/core\altcp_tcp.c ****     tcp_accept(lpcb, altcp_tcp_accept);
 1789              		.loc 1 290 5 is_stmt 1
 291:C:/Users/stapi/OneDrive/Desktop/GD32VW553/V1_MQTT_OK/GD32VW55X_Wifi_BLE_SDK/GD32VW55x_RELEASE_V1.0.2/MSDK/lwip/lwip-2.1.2/src/core\altcp_tcp.c ****     return conn;
 1790              		.loc 1 291 5 is_stmt 0
 1791 004e B7050000 		lui	a1,%hi(altcp_tcp_accept)
 290:C:/Users/stapi/OneDrive/Desktop/GD32VW553/V1_MQTT_OK/GD32VW55X_Wifi_BLE_SDK/GD32VW55x_RELEASE_V1.0.2/MSDK/lwip/lwip-2.1.2/src/core\altcp_tcp.c ****     tcp_accept(lpcb, altcp_tcp_accept);
 1792              		.loc 1 290 17
 1793 0052 48C4     		sw	a0,12(s0)
 291:C:/Users/stapi/OneDrive/Desktop/GD32VW553/V1_MQTT_OK/GD32VW55X_Wifi_BLE_SDK/GD32VW55x_RELEASE_V1.0.2/MSDK/lwip/lwip-2.1.2/src/core\altcp_tcp.c ****     return conn;
 1794              		.loc 1 291 5 is_stmt 1
 1795 0054 93850500 		addi	a1,a1,%lo(altcp_tcp_accept)
 1796 0058 97000000 		call	tcp_accept
 1796      E7800000 
 1797              	.LVL222:
 292:C:/Users/stapi/OneDrive/Desktop/GD32VW553/V1_MQTT_OK/GD32VW55X_Wifi_BLE_SDK/GD32VW55x_RELEASE_V1.0.2/MSDK/lwip/lwip-2.1.2/src/core\altcp_tcp.c ****   }
 1798              		.loc 1 292 5
 292:C:/Users/stapi/OneDrive/Desktop/GD32VW553/V1_MQTT_OK/GD32VW55X_Wifi_BLE_SDK/GD32VW55x_RELEASE_V1.0.2/MSDK/lwip/lwip-2.1.2/src/core\altcp_tcp.c ****   }
 1799              		.loc 1 292 12 is_stmt 0
 1800 0060 75B7     		j	.L217
 1801              	.LBE134:
 1802              	.LBE133:
 1803              		.cfi_endproc
 1804              	.LFE20:
 1806              		.section	.text.altcp_tcp_connect,"ax",@progbits
 1807              		.align	1
 1809              	altcp_tcp_connect:
 1810              	.LFB19:
 267:C:/Users/stapi/OneDrive/Desktop/GD32VW553/V1_MQTT_OK/GD32VW55X_Wifi_BLE_SDK/GD32VW55x_RELEASE_V1.0.2/MSDK/lwip/lwip-2.1.2/src/core\altcp_tcp.c ****   struct tcp_pcb *pcb;
 1811              		.loc 1 267 1 is_stmt 1
 1812              		.cfi_startproc
 1813              	.LVL223:
 268:C:/Users/stapi/OneDrive/Desktop/GD32VW553/V1_MQTT_OK/GD32VW55X_Wifi_BLE_SDK/GD32VW55x_RELEASE_V1.0.2/MSDK/lwip/lwip-2.1.2/src/core\altcp_tcp.c ****   if (conn == NULL) {
 1814              		.loc 1 268 3
 269:C:/Users/stapi/OneDrive/Desktop/GD32VW553/V1_MQTT_OK/GD32VW55X_Wifi_BLE_SDK/GD32VW55x_RELEASE_V1.0.2/MSDK/lwip/lwip-2.1.2/src/core\altcp_tcp.c ****     return ERR_VAL;
 1815              		.loc 1 269 3
 269:C:/Users/stapi/OneDrive/Desktop/GD32VW553/V1_MQTT_OK/GD32VW55X_Wifi_BLE_SDK/GD32VW55x_RELEASE_V1.0.2/MSDK/lwip/lwip-2.1.2/src/core\altcp_tcp.c ****     return ERR_VAL;
 1816              		.loc 1 269 6 is_stmt 0
 1817 0000 21C9     		beq	a0,zero,.L229
 267:C:/Users/stapi/OneDrive/Desktop/GD32VW553/V1_MQTT_OK/GD32VW55X_Wifi_BLE_SDK/GD32VW55x_RELEASE_V1.0.2/MSDK/lwip/lwip-2.1.2/src/core\altcp_tcp.c ****   struct tcp_pcb *pcb;
 1818              		.loc 1 267 1
 1819 0002 17030000 		call	t0,__riscv_save_0
 1819      E7020300 
 1820              		.cfi_offset 1, -4
 1821              		.cfi_def_cfa_offset 16
 272:C:/Users/stapi/OneDrive/Desktop/GD32VW553/V1_MQTT_OK/GD32VW55X_Wifi_BLE_SDK/GD32VW55x_RELEASE_V1.0.2/MSDK/lwip/lwip-2.1.2/src/core\altcp_tcp.c ****   conn->connected = connected;
 1822              		.loc 1 272 3 is_stmt 1
 272:C:/Users/stapi/OneDrive/Desktop/GD32VW553/V1_MQTT_OK/GD32VW55X_Wifi_BLE_SDK/GD32VW55x_RELEASE_V1.0.2/MSDK/lwip/lwip-2.1.2/src/core\altcp_tcp.c ****   conn->connected = connected;
 1823              		.loc 1 272 3
 272:C:/Users/stapi/OneDrive/Desktop/GD32VW553/V1_MQTT_OK/GD32VW55X_Wifi_BLE_SDK/GD32VW55x_RELEASE_V1.0.2/MSDK/lwip/lwip-2.1.2/src/core\altcp_tcp.c ****   conn->connected = connected;
 1824              		.loc 1 272 3
 1825 000a 5C41     		lw	a5,4(a0)
 1826 000c 85C7     		beq	a5,zero,.L227
 272:C:/Users/stapi/OneDrive/Desktop/GD32VW553/V1_MQTT_OK/GD32VW55X_Wifi_BLE_SDK/GD32VW55x_RELEASE_V1.0.2/MSDK/lwip/lwip-2.1.2/src/core\altcp_tcp.c ****   conn->connected = connected;
 1827              		.loc 1 272 3 discriminator 1
 272:C:/Users/stapi/OneDrive/Desktop/GD32VW553/V1_MQTT_OK/GD32VW55X_Wifi_BLE_SDK/GD32VW55x_RELEASE_V1.0.2/MSDK/lwip/lwip-2.1.2/src/core\altcp_tcp.c ****   conn->connected = connected;
 1828              		.loc 1 272 3 discriminator 1
 1829 000e B7060000 		lui	a3,%hi(.LC0)
 1830              	.LVL224:
 1831 0012 B7050000 		lui	a1,%hi(.LC3)
 1832              	.LVL225:
 1833 0016 37050000 		lui	a0,%hi(.LC2)
 1834              	.LVL226:
 1835 001a 93860600 		addi	a3,a3,%lo(.LC0)
 1836 001e 13060011 		li	a2,272
 1837              	.LVL227:
 1838 0022 93850500 		addi	a1,a1,%lo(.LC3)
 1839 0026 13050500 		addi	a0,a0,%lo(.LC2)
 1840 002a 97000000 		call	printf
 1840      E7800000 
 1841              	.LVL228:
 1842              	.L228:
 272:C:/Users/stapi/OneDrive/Desktop/GD32VW553/V1_MQTT_OK/GD32VW55X_Wifi_BLE_SDK/GD32VW55x_RELEASE_V1.0.2/MSDK/lwip/lwip-2.1.2/src/core\altcp_tcp.c ****   conn->connected = connected;
 1843              		.loc 1 272 3 discriminator 1
 272:C:/Users/stapi/OneDrive/Desktop/GD32VW553/V1_MQTT_OK/GD32VW55X_Wifi_BLE_SDK/GD32VW55x_RELEASE_V1.0.2/MSDK/lwip/lwip-2.1.2/src/core\altcp_tcp.c ****   conn->connected = connected;
 1844              		.loc 1 272 3 discriminator 1
 272:C:/Users/stapi/OneDrive/Desktop/GD32VW553/V1_MQTT_OK/GD32VW55X_Wifi_BLE_SDK/GD32VW55x_RELEASE_V1.0.2/MSDK/lwip/lwip-2.1.2/src/core\altcp_tcp.c ****   conn->connected = connected;
 1845              		.loc 1 272 3 discriminator 1
 1846 0032 01A0     		j	.L228
 1847              	.LVL229:
 1848              	.L227:
 1849              	.LBB137:
 1850              	.LBB138:
 272:C:/Users/stapi/OneDrive/Desktop/GD32VW553/V1_MQTT_OK/GD32VW55X_Wifi_BLE_SDK/GD32VW55x_RELEASE_V1.0.2/MSDK/lwip/lwip-2.1.2/src/core\altcp_tcp.c ****   conn->connected = connected;
 1851              		.loc 1 272 3
 272:C:/Users/stapi/OneDrive/Desktop/GD32VW553/V1_MQTT_OK/GD32VW55X_Wifi_BLE_SDK/GD32VW55x_RELEASE_V1.0.2/MSDK/lwip/lwip-2.1.2/src/core\altcp_tcp.c ****   conn->connected = connected;
 1852              		.loc 1 272 3
 272:C:/Users/stapi/OneDrive/Desktop/GD32VW553/V1_MQTT_OK/GD32VW55X_Wifi_BLE_SDK/GD32VW55x_RELEASE_V1.0.2/MSDK/lwip/lwip-2.1.2/src/core\altcp_tcp.c ****   conn->connected = connected;
 1853              		.loc 1 272 3
 272:C:/Users/stapi/OneDrive/Desktop/GD32VW553/V1_MQTT_OK/GD32VW55X_Wifi_BLE_SDK/GD32VW55x_RELEASE_V1.0.2/MSDK/lwip/lwip-2.1.2/src/core\altcp_tcp.c ****   conn->connected = connected;
 1854              		.loc 1 272 3
 273:C:/Users/stapi/OneDrive/Desktop/GD32VW553/V1_MQTT_OK/GD32VW55X_Wifi_BLE_SDK/GD32VW55x_RELEASE_V1.0.2/MSDK/lwip/lwip-2.1.2/src/core\altcp_tcp.c ****   pcb = (struct tcp_pcb *)conn->state;
 1855              		.loc 1 273 3
 273:C:/Users/stapi/OneDrive/Desktop/GD32VW553/V1_MQTT_OK/GD32VW55X_Wifi_BLE_SDK/GD32VW55x_RELEASE_V1.0.2/MSDK/lwip/lwip-2.1.2/src/core\altcp_tcp.c ****   pcb = (struct tcp_pcb *)conn->state;
 1856              		.loc 1 273 19 is_stmt 0
 1857 0034 54C9     		sw	a3,20(a0)
 274:C:/Users/stapi/OneDrive/Desktop/GD32VW553/V1_MQTT_OK/GD32VW55X_Wifi_BLE_SDK/GD32VW55x_RELEASE_V1.0.2/MSDK/lwip/lwip-2.1.2/src/core\altcp_tcp.c ****   return tcp_connect(pcb, ipaddr, port, altcp_tcp_connected);
 1858              		.loc 1 274 3 is_stmt 1
 1859              	.LVL230:
 275:C:/Users/stapi/OneDrive/Desktop/GD32VW553/V1_MQTT_OK/GD32VW55X_Wifi_BLE_SDK/GD32VW55x_RELEASE_V1.0.2/MSDK/lwip/lwip-2.1.2/src/core\altcp_tcp.c **** }
 1860              		.loc 1 275 3
 275:C:/Users/stapi/OneDrive/Desktop/GD32VW553/V1_MQTT_OK/GD32VW55X_Wifi_BLE_SDK/GD32VW55x_RELEASE_V1.0.2/MSDK/lwip/lwip-2.1.2/src/core\altcp_tcp.c **** }
 1861              		.loc 1 275 10 is_stmt 0
 1862 0036 4845     		lw	a0,12(a0)
 1863              	.LVL231:
 1864 0038 B7060000 		lui	a3,%hi(altcp_tcp_connected)
 1865              	.LVL232:
 1866 003c 93860600 		addi	a3,a3,%lo(altcp_tcp_connected)
 1867 0040 97000000 		call	tcp_connect
 1867      E7800000 
 1868              	.LVL233:
 1869              	.LBE138:
 1870              	.LBE137:
 276:C:/Users/stapi/OneDrive/Desktop/GD32VW553/V1_MQTT_OK/GD32VW55X_Wifi_BLE_SDK/GD32VW55x_RELEASE_V1.0.2/MSDK/lwip/lwip-2.1.2/src/core\altcp_tcp.c **** 
 1871              		.loc 1 276 1
 1872 0048 17030000 		tail	__riscv_restore_0
 1872      67000300 
 1873              		.cfi_restore 1
 1874              		.cfi_def_cfa_offset 0
 1875              	.LVL234:
 1876              	.L229:
 270:C:/Users/stapi/OneDrive/Desktop/GD32VW553/V1_MQTT_OK/GD32VW55X_Wifi_BLE_SDK/GD32VW55x_RELEASE_V1.0.2/MSDK/lwip/lwip-2.1.2/src/core\altcp_tcp.c ****   }
 1877              		.loc 1 270 12
 1878 0050 6955     		li	a0,-6
 1879              	.LVL235:
 276:C:/Users/stapi/OneDrive/Desktop/GD32VW553/V1_MQTT_OK/GD32VW55X_Wifi_BLE_SDK/GD32VW55x_RELEASE_V1.0.2/MSDK/lwip/lwip-2.1.2/src/core\altcp_tcp.c **** 
 1880              		.loc 1 276 1
 1881 0052 8280     		ret
 1882              		.cfi_endproc
 1883              	.LFE19:
 1885              		.section	.text.altcp_tcp_recved,"ax",@progbits
 1886              		.align	1
 1888              	altcp_tcp_recved:
 1889              	.LFB17:
 245:C:/Users/stapi/OneDrive/Desktop/GD32VW553/V1_MQTT_OK/GD32VW55X_Wifi_BLE_SDK/GD32VW55x_RELEASE_V1.0.2/MSDK/lwip/lwip-2.1.2/src/core\altcp_tcp.c ****   if (conn != NULL) {
 1890              		.loc 1 245 1 is_stmt 1
 1891              		.cfi_startproc
 1892              	.LVL236:
 246:C:/Users/stapi/OneDrive/Desktop/GD32VW553/V1_MQTT_OK/GD32VW55X_Wifi_BLE_SDK/GD32VW55x_RELEASE_V1.0.2/MSDK/lwip/lwip-2.1.2/src/core\altcp_tcp.c ****     struct tcp_pcb *pcb = (struct tcp_pcb *)conn->state;
 1893              		.loc 1 246 3
 246:C:/Users/stapi/OneDrive/Desktop/GD32VW553/V1_MQTT_OK/GD32VW55X_Wifi_BLE_SDK/GD32VW55x_RELEASE_V1.0.2/MSDK/lwip/lwip-2.1.2/src/core\altcp_tcp.c ****     struct tcp_pcb *pcb = (struct tcp_pcb *)conn->state;
 1894              		.loc 1 246 6 is_stmt 0
 1895 0000 39C1     		beq	a0,zero,.L242
 245:C:/Users/stapi/OneDrive/Desktop/GD32VW553/V1_MQTT_OK/GD32VW55X_Wifi_BLE_SDK/GD32VW55x_RELEASE_V1.0.2/MSDK/lwip/lwip-2.1.2/src/core\altcp_tcp.c ****   if (conn != NULL) {
 1896              		.loc 1 245 1
 1897 0002 17030000 		call	t0,__riscv_save_0
 1897      E7020300 
 1898              		.cfi_offset 1, -4
 1899              		.cfi_def_cfa_offset 16
 1900              	.LBB143:
 247:C:/Users/stapi/OneDrive/Desktop/GD32VW553/V1_MQTT_OK/GD32VW55X_Wifi_BLE_SDK/GD32VW55x_RELEASE_V1.0.2/MSDK/lwip/lwip-2.1.2/src/core\altcp_tcp.c ****     ALTCP_TCP_ASSERT_CONN(conn);
 1901              		.loc 1 247 5 is_stmt 1
 1902              	.LVL237:
 248:C:/Users/stapi/OneDrive/Desktop/GD32VW553/V1_MQTT_OK/GD32VW55X_Wifi_BLE_SDK/GD32VW55x_RELEASE_V1.0.2/MSDK/lwip/lwip-2.1.2/src/core\altcp_tcp.c ****     tcp_recved(pcb, len);
 1903              		.loc 1 248 5
 248:C:/Users/stapi/OneDrive/Desktop/GD32VW553/V1_MQTT_OK/GD32VW55X_Wifi_BLE_SDK/GD32VW55x_RELEASE_V1.0.2/MSDK/lwip/lwip-2.1.2/src/core\altcp_tcp.c ****     tcp_recved(pcb, len);
 1904              		.loc 1 248 5
 248:C:/Users/stapi/OneDrive/Desktop/GD32VW553/V1_MQTT_OK/GD32VW55X_Wifi_BLE_SDK/GD32VW55x_RELEASE_V1.0.2/MSDK/lwip/lwip-2.1.2/src/core\altcp_tcp.c ****     tcp_recved(pcb, len);
 1905              		.loc 1 248 5
 1906 000a 5C41     		lw	a5,4(a0)
 1907 000c 85C7     		beq	a5,zero,.L236
 1908              	.LVL238:
 1909              	.LBE143:
 1910              	.LBB144:
 1911              	.LBB145:
 248:C:/Users/stapi/OneDrive/Desktop/GD32VW553/V1_MQTT_OK/GD32VW55X_Wifi_BLE_SDK/GD32VW55x_RELEASE_V1.0.2/MSDK/lwip/lwip-2.1.2/src/core\altcp_tcp.c ****     tcp_recved(pcb, len);
 1912              		.loc 1 248 5
 248:C:/Users/stapi/OneDrive/Desktop/GD32VW553/V1_MQTT_OK/GD32VW55X_Wifi_BLE_SDK/GD32VW55x_RELEASE_V1.0.2/MSDK/lwip/lwip-2.1.2/src/core\altcp_tcp.c ****     tcp_recved(pcb, len);
 1913              		.loc 1 248 5
 1914 000e B7060000 		lui	a3,%hi(.LC0)
 1915 0012 B7050000 		lui	a1,%hi(.LC3)
 1916              	.LVL239:
 1917 0016 37050000 		lui	a0,%hi(.LC2)
 1918              	.LVL240:
 1919 001a 93860600 		addi	a3,a3,%lo(.LC0)
 1920 001e 1306800F 		li	a2,248
 1921 0022 93850500 		addi	a1,a1,%lo(.LC3)
 1922 0026 13050500 		addi	a0,a0,%lo(.LC2)
 1923 002a 97000000 		call	printf
 1923      E7800000 
 1924              	.LVL241:
 1925              	.L237:
 248:C:/Users/stapi/OneDrive/Desktop/GD32VW553/V1_MQTT_OK/GD32VW55X_Wifi_BLE_SDK/GD32VW55x_RELEASE_V1.0.2/MSDK/lwip/lwip-2.1.2/src/core\altcp_tcp.c ****     tcp_recved(pcb, len);
 1926              		.loc 1 248 5
 248:C:/Users/stapi/OneDrive/Desktop/GD32VW553/V1_MQTT_OK/GD32VW55X_Wifi_BLE_SDK/GD32VW55x_RELEASE_V1.0.2/MSDK/lwip/lwip-2.1.2/src/core\altcp_tcp.c ****     tcp_recved(pcb, len);
 1927              		.loc 1 248 5
 248:C:/Users/stapi/OneDrive/Desktop/GD32VW553/V1_MQTT_OK/GD32VW55X_Wifi_BLE_SDK/GD32VW55x_RELEASE_V1.0.2/MSDK/lwip/lwip-2.1.2/src/core\altcp_tcp.c ****     tcp_recved(pcb, len);
 1928              		.loc 1 248 5
 1929 0032 01A0     		j	.L237
 1930              	.LVL242:
 1931              	.L236:
 1932              	.LBE145:
 1933              	.LBE144:
 1934              	.LBB146:
 248:C:/Users/stapi/OneDrive/Desktop/GD32VW553/V1_MQTT_OK/GD32VW55X_Wifi_BLE_SDK/GD32VW55x_RELEASE_V1.0.2/MSDK/lwip/lwip-2.1.2/src/core\altcp_tcp.c ****     tcp_recved(pcb, len);
 1935              		.loc 1 248 5 discriminator 2
 248:C:/Users/stapi/OneDrive/Desktop/GD32VW553/V1_MQTT_OK/GD32VW55X_Wifi_BLE_SDK/GD32VW55x_RELEASE_V1.0.2/MSDK/lwip/lwip-2.1.2/src/core\altcp_tcp.c ****     tcp_recved(pcb, len);
 1936              		.loc 1 248 5 discriminator 2
 248:C:/Users/stapi/OneDrive/Desktop/GD32VW553/V1_MQTT_OK/GD32VW55X_Wifi_BLE_SDK/GD32VW55x_RELEASE_V1.0.2/MSDK/lwip/lwip-2.1.2/src/core\altcp_tcp.c ****     tcp_recved(pcb, len);
 1937              		.loc 1 248 5 discriminator 2
 248:C:/Users/stapi/OneDrive/Desktop/GD32VW553/V1_MQTT_OK/GD32VW55X_Wifi_BLE_SDK/GD32VW55x_RELEASE_V1.0.2/MSDK/lwip/lwip-2.1.2/src/core\altcp_tcp.c ****     tcp_recved(pcb, len);
 1938              		.loc 1 248 5 discriminator 2
 249:C:/Users/stapi/OneDrive/Desktop/GD32VW553/V1_MQTT_OK/GD32VW55X_Wifi_BLE_SDK/GD32VW55x_RELEASE_V1.0.2/MSDK/lwip/lwip-2.1.2/src/core\altcp_tcp.c ****   }
 1939              		.loc 1 249 5 discriminator 2
 1940 0034 4845     		lw	a0,12(a0)
 1941              	.LVL243:
 1942 0036 97000000 		call	tcp_recved
 1942      E7800000 
 1943              	.LVL244:
 1944              	.LBE146:
 251:C:/Users/stapi/OneDrive/Desktop/GD32VW553/V1_MQTT_OK/GD32VW55X_Wifi_BLE_SDK/GD32VW55x_RELEASE_V1.0.2/MSDK/lwip/lwip-2.1.2/src/core\altcp_tcp.c **** 
 1945              		.loc 1 251 1 is_stmt 0 discriminator 2
 1946 003e 17030000 		tail	__riscv_restore_0
 1946      67000300 
 1947              		.cfi_restore 1
 1948              		.cfi_def_cfa_offset 0
 1949              	.LVL245:
 1950              	.L242:
 1951 0046 8280     		ret
 1952              		.cfi_endproc
 1953              	.LFE17:
 1955              		.section	.text.altcp_tcp_bind,"ax",@progbits
 1956              		.align	1
 1958              	altcp_tcp_bind:
 1959              	.LFB18:
 255:C:/Users/stapi/OneDrive/Desktop/GD32VW553/V1_MQTT_OK/GD32VW55X_Wifi_BLE_SDK/GD32VW55x_RELEASE_V1.0.2/MSDK/lwip/lwip-2.1.2/src/core\altcp_tcp.c ****   struct tcp_pcb *pcb;
 1960              		.loc 1 255 1 is_stmt 1
 1961              		.cfi_startproc
 1962              	.LVL246:
 256:C:/Users/stapi/OneDrive/Desktop/GD32VW553/V1_MQTT_OK/GD32VW55X_Wifi_BLE_SDK/GD32VW55x_RELEASE_V1.0.2/MSDK/lwip/lwip-2.1.2/src/core\altcp_tcp.c ****   if (conn == NULL) {
 1963              		.loc 1 256 3
 257:C:/Users/stapi/OneDrive/Desktop/GD32VW553/V1_MQTT_OK/GD32VW55X_Wifi_BLE_SDK/GD32VW55x_RELEASE_V1.0.2/MSDK/lwip/lwip-2.1.2/src/core\altcp_tcp.c ****     return ERR_VAL;
 1964              		.loc 1 257 3
 257:C:/Users/stapi/OneDrive/Desktop/GD32VW553/V1_MQTT_OK/GD32VW55X_Wifi_BLE_SDK/GD32VW55x_RELEASE_V1.0.2/MSDK/lwip/lwip-2.1.2/src/core\altcp_tcp.c ****     return ERR_VAL;
 1965              		.loc 1 257 6 is_stmt 0
 1966 0000 39C1     		beq	a0,zero,.L249
 255:C:/Users/stapi/OneDrive/Desktop/GD32VW553/V1_MQTT_OK/GD32VW55X_Wifi_BLE_SDK/GD32VW55x_RELEASE_V1.0.2/MSDK/lwip/lwip-2.1.2/src/core\altcp_tcp.c ****   struct tcp_pcb *pcb;
 1967              		.loc 1 255 1
 1968 0002 17030000 		call	t0,__riscv_save_0
 1968      E7020300 
 1969              		.cfi_offset 1, -4
 1970              		.cfi_def_cfa_offset 16
 260:C:/Users/stapi/OneDrive/Desktop/GD32VW553/V1_MQTT_OK/GD32VW55X_Wifi_BLE_SDK/GD32VW55x_RELEASE_V1.0.2/MSDK/lwip/lwip-2.1.2/src/core\altcp_tcp.c ****   pcb = (struct tcp_pcb *)conn->state;
 1971              		.loc 1 260 3 is_stmt 1
 260:C:/Users/stapi/OneDrive/Desktop/GD32VW553/V1_MQTT_OK/GD32VW55X_Wifi_BLE_SDK/GD32VW55x_RELEASE_V1.0.2/MSDK/lwip/lwip-2.1.2/src/core\altcp_tcp.c ****   pcb = (struct tcp_pcb *)conn->state;
 1972              		.loc 1 260 3
 260:C:/Users/stapi/OneDrive/Desktop/GD32VW553/V1_MQTT_OK/GD32VW55X_Wifi_BLE_SDK/GD32VW55x_RELEASE_V1.0.2/MSDK/lwip/lwip-2.1.2/src/core\altcp_tcp.c ****   pcb = (struct tcp_pcb *)conn->state;
 1973              		.loc 1 260 3
 1974 000a 5C41     		lw	a5,4(a0)
 1975 000c 85C7     		beq	a5,zero,.L247
 260:C:/Users/stapi/OneDrive/Desktop/GD32VW553/V1_MQTT_OK/GD32VW55X_Wifi_BLE_SDK/GD32VW55x_RELEASE_V1.0.2/MSDK/lwip/lwip-2.1.2/src/core\altcp_tcp.c ****   pcb = (struct tcp_pcb *)conn->state;
 1976              		.loc 1 260 3 discriminator 1
 260:C:/Users/stapi/OneDrive/Desktop/GD32VW553/V1_MQTT_OK/GD32VW55X_Wifi_BLE_SDK/GD32VW55x_RELEASE_V1.0.2/MSDK/lwip/lwip-2.1.2/src/core\altcp_tcp.c ****   pcb = (struct tcp_pcb *)conn->state;
 1977              		.loc 1 260 3 discriminator 1
 1978 000e B7060000 		lui	a3,%hi(.LC0)
 1979 0012 B7050000 		lui	a1,%hi(.LC3)
 1980              	.LVL247:
 1981 0016 37050000 		lui	a0,%hi(.LC2)
 1982              	.LVL248:
 1983 001a 93860600 		addi	a3,a3,%lo(.LC0)
 1984 001e 13064010 		li	a2,260
 1985              	.LVL249:
 1986 0022 93850500 		addi	a1,a1,%lo(.LC3)
 1987 0026 13050500 		addi	a0,a0,%lo(.LC2)
 1988 002a 97000000 		call	printf
 1988      E7800000 
 1989              	.LVL250:
 1990              	.L248:
 260:C:/Users/stapi/OneDrive/Desktop/GD32VW553/V1_MQTT_OK/GD32VW55X_Wifi_BLE_SDK/GD32VW55x_RELEASE_V1.0.2/MSDK/lwip/lwip-2.1.2/src/core\altcp_tcp.c ****   pcb = (struct tcp_pcb *)conn->state;
 1991              		.loc 1 260 3 discriminator 1
 260:C:/Users/stapi/OneDrive/Desktop/GD32VW553/V1_MQTT_OK/GD32VW55X_Wifi_BLE_SDK/GD32VW55x_RELEASE_V1.0.2/MSDK/lwip/lwip-2.1.2/src/core\altcp_tcp.c ****   pcb = (struct tcp_pcb *)conn->state;
 1992              		.loc 1 260 3 discriminator 1
 260:C:/Users/stapi/OneDrive/Desktop/GD32VW553/V1_MQTT_OK/GD32VW55X_Wifi_BLE_SDK/GD32VW55x_RELEASE_V1.0.2/MSDK/lwip/lwip-2.1.2/src/core\altcp_tcp.c ****   pcb = (struct tcp_pcb *)conn->state;
 1993              		.loc 1 260 3 discriminator 1
 1994 0032 01A0     		j	.L248
 1995              	.LVL251:
 1996              	.L247:
 1997              	.LBB149:
 1998              	.LBB150:
 260:C:/Users/stapi/OneDrive/Desktop/GD32VW553/V1_MQTT_OK/GD32VW55X_Wifi_BLE_SDK/GD32VW55x_RELEASE_V1.0.2/MSDK/lwip/lwip-2.1.2/src/core\altcp_tcp.c ****   pcb = (struct tcp_pcb *)conn->state;
 1999              		.loc 1 260 3 discriminator 2
 260:C:/Users/stapi/OneDrive/Desktop/GD32VW553/V1_MQTT_OK/GD32VW55X_Wifi_BLE_SDK/GD32VW55x_RELEASE_V1.0.2/MSDK/lwip/lwip-2.1.2/src/core\altcp_tcp.c ****   pcb = (struct tcp_pcb *)conn->state;
 2000              		.loc 1 260 3 discriminator 2
 260:C:/Users/stapi/OneDrive/Desktop/GD32VW553/V1_MQTT_OK/GD32VW55X_Wifi_BLE_SDK/GD32VW55x_RELEASE_V1.0.2/MSDK/lwip/lwip-2.1.2/src/core\altcp_tcp.c ****   pcb = (struct tcp_pcb *)conn->state;
 2001              		.loc 1 260 3 discriminator 2
 260:C:/Users/stapi/OneDrive/Desktop/GD32VW553/V1_MQTT_OK/GD32VW55X_Wifi_BLE_SDK/GD32VW55x_RELEASE_V1.0.2/MSDK/lwip/lwip-2.1.2/src/core\altcp_tcp.c ****   pcb = (struct tcp_pcb *)conn->state;
 2002              		.loc 1 260 3 discriminator 2
 261:C:/Users/stapi/OneDrive/Desktop/GD32VW553/V1_MQTT_OK/GD32VW55X_Wifi_BLE_SDK/GD32VW55x_RELEASE_V1.0.2/MSDK/lwip/lwip-2.1.2/src/core\altcp_tcp.c ****   return tcp_bind(pcb, ipaddr, port);
 2003              		.loc 1 261 3 discriminator 2
 262:C:/Users/stapi/OneDrive/Desktop/GD32VW553/V1_MQTT_OK/GD32VW55X_Wifi_BLE_SDK/GD32VW55x_RELEASE_V1.0.2/MSDK/lwip/lwip-2.1.2/src/core\altcp_tcp.c **** }
 2004              		.loc 1 262 3 discriminator 2
 262:C:/Users/stapi/OneDrive/Desktop/GD32VW553/V1_MQTT_OK/GD32VW55X_Wifi_BLE_SDK/GD32VW55x_RELEASE_V1.0.2/MSDK/lwip/lwip-2.1.2/src/core\altcp_tcp.c **** }
 2005              		.loc 1 262 10 is_stmt 0 discriminator 2
 2006 0034 4845     		lw	a0,12(a0)
 2007              	.LVL252:
 2008 0036 97000000 		call	tcp_bind
 2008      E7800000 
 2009              	.LVL253:
 2010              	.LBE150:
 2011              	.LBE149:
 263:C:/Users/stapi/OneDrive/Desktop/GD32VW553/V1_MQTT_OK/GD32VW55X_Wifi_BLE_SDK/GD32VW55x_RELEASE_V1.0.2/MSDK/lwip/lwip-2.1.2/src/core\altcp_tcp.c **** 
 2012              		.loc 1 263 1 discriminator 2
 2013 003e 17030000 		tail	__riscv_restore_0
 2013      67000300 
 2014              		.cfi_restore 1
 2015              		.cfi_def_cfa_offset 0
 2016              	.LVL254:
 2017              	.L249:
 258:C:/Users/stapi/OneDrive/Desktop/GD32VW553/V1_MQTT_OK/GD32VW55X_Wifi_BLE_SDK/GD32VW55x_RELEASE_V1.0.2/MSDK/lwip/lwip-2.1.2/src/core\altcp_tcp.c ****   }
 2018              		.loc 1 258 12
 2019 0046 6955     		li	a0,-6
 2020              	.LVL255:
 263:C:/Users/stapi/OneDrive/Desktop/GD32VW553/V1_MQTT_OK/GD32VW55X_Wifi_BLE_SDK/GD32VW55x_RELEASE_V1.0.2/MSDK/lwip/lwip-2.1.2/src/core\altcp_tcp.c **** 
 2021              		.loc 1 263 1
 2022 0048 8280     		ret
 2023              		.cfi_endproc
 2024              	.LFE18:
 2026              		.section	.text.altcp_tcp_shutdown,"ax",@progbits
 2027              		.align	1
 2029              	altcp_tcp_shutdown:
 2030              	.LFB23:
 338:C:/Users/stapi/OneDrive/Desktop/GD32VW553/V1_MQTT_OK/GD32VW55X_Wifi_BLE_SDK/GD32VW55x_RELEASE_V1.0.2/MSDK/lwip/lwip-2.1.2/src/core\altcp_tcp.c ****   struct tcp_pcb *pcb;
 2031              		.loc 1 338 1 is_stmt 1
 2032              		.cfi_startproc
 2033              	.LVL256:
 339:C:/Users/stapi/OneDrive/Desktop/GD32VW553/V1_MQTT_OK/GD32VW55X_Wifi_BLE_SDK/GD32VW55x_RELEASE_V1.0.2/MSDK/lwip/lwip-2.1.2/src/core\altcp_tcp.c ****   if (conn == NULL) {
 2034              		.loc 1 339 3
 340:C:/Users/stapi/OneDrive/Desktop/GD32VW553/V1_MQTT_OK/GD32VW55X_Wifi_BLE_SDK/GD32VW55x_RELEASE_V1.0.2/MSDK/lwip/lwip-2.1.2/src/core\altcp_tcp.c ****     return ERR_VAL;
 2035              		.loc 1 340 3
 340:C:/Users/stapi/OneDrive/Desktop/GD32VW553/V1_MQTT_OK/GD32VW55X_Wifi_BLE_SDK/GD32VW55x_RELEASE_V1.0.2/MSDK/lwip/lwip-2.1.2/src/core\altcp_tcp.c ****     return ERR_VAL;
 2036              		.loc 1 340 6 is_stmt 0
 2037 0000 39C1     		beq	a0,zero,.L258
 338:C:/Users/stapi/OneDrive/Desktop/GD32VW553/V1_MQTT_OK/GD32VW55X_Wifi_BLE_SDK/GD32VW55x_RELEASE_V1.0.2/MSDK/lwip/lwip-2.1.2/src/core\altcp_tcp.c ****   struct tcp_pcb *pcb;
 2038              		.loc 1 338 1
 2039 0002 17030000 		call	t0,__riscv_save_0
 2039      E7020300 
 2040              		.cfi_offset 1, -4
 2041              		.cfi_def_cfa_offset 16
 343:C:/Users/stapi/OneDrive/Desktop/GD32VW553/V1_MQTT_OK/GD32VW55X_Wifi_BLE_SDK/GD32VW55x_RELEASE_V1.0.2/MSDK/lwip/lwip-2.1.2/src/core\altcp_tcp.c ****   pcb = (struct tcp_pcb *)conn->state;
 2042              		.loc 1 343 3 is_stmt 1
 343:C:/Users/stapi/OneDrive/Desktop/GD32VW553/V1_MQTT_OK/GD32VW55X_Wifi_BLE_SDK/GD32VW55x_RELEASE_V1.0.2/MSDK/lwip/lwip-2.1.2/src/core\altcp_tcp.c ****   pcb = (struct tcp_pcb *)conn->state;
 2043              		.loc 1 343 3
 343:C:/Users/stapi/OneDrive/Desktop/GD32VW553/V1_MQTT_OK/GD32VW55X_Wifi_BLE_SDK/GD32VW55x_RELEASE_V1.0.2/MSDK/lwip/lwip-2.1.2/src/core\altcp_tcp.c ****   pcb = (struct tcp_pcb *)conn->state;
 2044              		.loc 1 343 3
 2045 000a 5C41     		lw	a5,4(a0)
 2046 000c 85C7     		beq	a5,zero,.L256
 343:C:/Users/stapi/OneDrive/Desktop/GD32VW553/V1_MQTT_OK/GD32VW55X_Wifi_BLE_SDK/GD32VW55x_RELEASE_V1.0.2/MSDK/lwip/lwip-2.1.2/src/core\altcp_tcp.c ****   pcb = (struct tcp_pcb *)conn->state;
 2047              		.loc 1 343 3 discriminator 1
 343:C:/Users/stapi/OneDrive/Desktop/GD32VW553/V1_MQTT_OK/GD32VW55X_Wifi_BLE_SDK/GD32VW55x_RELEASE_V1.0.2/MSDK/lwip/lwip-2.1.2/src/core\altcp_tcp.c ****   pcb = (struct tcp_pcb *)conn->state;
 2048              		.loc 1 343 3 discriminator 1
 2049 000e B7060000 		lui	a3,%hi(.LC0)
 2050 0012 B7050000 		lui	a1,%hi(.LC3)
 2051              	.LVL257:
 2052 0016 37050000 		lui	a0,%hi(.LC2)
 2053              	.LVL258:
 2054 001a 93860600 		addi	a3,a3,%lo(.LC0)
 2055 001e 13067015 		li	a2,343
 2056              	.LVL259:
 2057 0022 93850500 		addi	a1,a1,%lo(.LC3)
 2058 0026 13050500 		addi	a0,a0,%lo(.LC2)
 2059 002a 97000000 		call	printf
 2059      E7800000 
 2060              	.LVL260:
 2061              	.L257:
 343:C:/Users/stapi/OneDrive/Desktop/GD32VW553/V1_MQTT_OK/GD32VW55X_Wifi_BLE_SDK/GD32VW55x_RELEASE_V1.0.2/MSDK/lwip/lwip-2.1.2/src/core\altcp_tcp.c ****   pcb = (struct tcp_pcb *)conn->state;
 2062              		.loc 1 343 3 discriminator 1
 343:C:/Users/stapi/OneDrive/Desktop/GD32VW553/V1_MQTT_OK/GD32VW55X_Wifi_BLE_SDK/GD32VW55x_RELEASE_V1.0.2/MSDK/lwip/lwip-2.1.2/src/core\altcp_tcp.c ****   pcb = (struct tcp_pcb *)conn->state;
 2063              		.loc 1 343 3 discriminator 1
 343:C:/Users/stapi/OneDrive/Desktop/GD32VW553/V1_MQTT_OK/GD32VW55X_Wifi_BLE_SDK/GD32VW55x_RELEASE_V1.0.2/MSDK/lwip/lwip-2.1.2/src/core\altcp_tcp.c ****   pcb = (struct tcp_pcb *)conn->state;
 2064              		.loc 1 343 3 discriminator 1
 2065 0032 01A0     		j	.L257
 2066              	.LVL261:
 2067              	.L256:
 2068              	.LBB153:
 2069              	.LBB154:
 343:C:/Users/stapi/OneDrive/Desktop/GD32VW553/V1_MQTT_OK/GD32VW55X_Wifi_BLE_SDK/GD32VW55x_RELEASE_V1.0.2/MSDK/lwip/lwip-2.1.2/src/core\altcp_tcp.c ****   pcb = (struct tcp_pcb *)conn->state;
 2070              		.loc 1 343 3 discriminator 2
 343:C:/Users/stapi/OneDrive/Desktop/GD32VW553/V1_MQTT_OK/GD32VW55X_Wifi_BLE_SDK/GD32VW55x_RELEASE_V1.0.2/MSDK/lwip/lwip-2.1.2/src/core\altcp_tcp.c ****   pcb = (struct tcp_pcb *)conn->state;
 2071              		.loc 1 343 3 discriminator 2
 343:C:/Users/stapi/OneDrive/Desktop/GD32VW553/V1_MQTT_OK/GD32VW55X_Wifi_BLE_SDK/GD32VW55x_RELEASE_V1.0.2/MSDK/lwip/lwip-2.1.2/src/core\altcp_tcp.c ****   pcb = (struct tcp_pcb *)conn->state;
 2072              		.loc 1 343 3 discriminator 2
 343:C:/Users/stapi/OneDrive/Desktop/GD32VW553/V1_MQTT_OK/GD32VW55X_Wifi_BLE_SDK/GD32VW55x_RELEASE_V1.0.2/MSDK/lwip/lwip-2.1.2/src/core\altcp_tcp.c ****   pcb = (struct tcp_pcb *)conn->state;
 2073              		.loc 1 343 3 discriminator 2
 344:C:/Users/stapi/OneDrive/Desktop/GD32VW553/V1_MQTT_OK/GD32VW55X_Wifi_BLE_SDK/GD32VW55x_RELEASE_V1.0.2/MSDK/lwip/lwip-2.1.2/src/core\altcp_tcp.c ****   return tcp_shutdown(pcb, shut_rx, shut_tx);
 2074              		.loc 1 344 3 discriminator 2
 345:C:/Users/stapi/OneDrive/Desktop/GD32VW553/V1_MQTT_OK/GD32VW55X_Wifi_BLE_SDK/GD32VW55x_RELEASE_V1.0.2/MSDK/lwip/lwip-2.1.2/src/core\altcp_tcp.c **** }
 2075              		.loc 1 345 3 discriminator 2
 345:C:/Users/stapi/OneDrive/Desktop/GD32VW553/V1_MQTT_OK/GD32VW55X_Wifi_BLE_SDK/GD32VW55x_RELEASE_V1.0.2/MSDK/lwip/lwip-2.1.2/src/core\altcp_tcp.c **** }
 2076              		.loc 1 345 10 is_stmt 0 discriminator 2
 2077 0034 4845     		lw	a0,12(a0)
 2078              	.LVL262:
 2079 0036 97000000 		call	tcp_shutdown
 2079      E7800000 
 2080              	.LVL263:
 2081              	.LBE154:
 2082              	.LBE153:
 346:C:/Users/stapi/OneDrive/Desktop/GD32VW553/V1_MQTT_OK/GD32VW55X_Wifi_BLE_SDK/GD32VW55x_RELEASE_V1.0.2/MSDK/lwip/lwip-2.1.2/src/core\altcp_tcp.c **** 
 2083              		.loc 1 346 1 discriminator 2
 2084 003e 17030000 		tail	__riscv_restore_0
 2084      67000300 
 2085              		.cfi_restore 1
 2086              		.cfi_def_cfa_offset 0
 2087              	.LVL264:
 2088              	.L258:
 341:C:/Users/stapi/OneDrive/Desktop/GD32VW553/V1_MQTT_OK/GD32VW55X_Wifi_BLE_SDK/GD32VW55x_RELEASE_V1.0.2/MSDK/lwip/lwip-2.1.2/src/core\altcp_tcp.c ****   }
 2089              		.loc 1 341 12
 2090 0046 6955     		li	a0,-6
 2091              	.LVL265:
 346:C:/Users/stapi/OneDrive/Desktop/GD32VW553/V1_MQTT_OK/GD32VW55X_Wifi_BLE_SDK/GD32VW55x_RELEASE_V1.0.2/MSDK/lwip/lwip-2.1.2/src/core\altcp_tcp.c **** 
 2092              		.loc 1 346 1
 2093 0048 8280     		ret
 2094              		.cfi_endproc
 2095              	.LFE23:
 2097              		.section	.text.altcp_tcp_write,"ax",@progbits
 2098              		.align	1
 2100              	altcp_tcp_write:
 2101              	.LFB24:
 350:C:/Users/stapi/OneDrive/Desktop/GD32VW553/V1_MQTT_OK/GD32VW55X_Wifi_BLE_SDK/GD32VW55x_RELEASE_V1.0.2/MSDK/lwip/lwip-2.1.2/src/core\altcp_tcp.c ****   struct tcp_pcb *pcb;
 2102              		.loc 1 350 1 is_stmt 1
 2103              		.cfi_startproc
 2104              	.LVL266:
 351:C:/Users/stapi/OneDrive/Desktop/GD32VW553/V1_MQTT_OK/GD32VW55X_Wifi_BLE_SDK/GD32VW55x_RELEASE_V1.0.2/MSDK/lwip/lwip-2.1.2/src/core\altcp_tcp.c ****   if (conn == NULL) {
 2105              		.loc 1 351 3
 352:C:/Users/stapi/OneDrive/Desktop/GD32VW553/V1_MQTT_OK/GD32VW55X_Wifi_BLE_SDK/GD32VW55x_RELEASE_V1.0.2/MSDK/lwip/lwip-2.1.2/src/core\altcp_tcp.c ****     return ERR_VAL;
 2106              		.loc 1 352 3
 352:C:/Users/stapi/OneDrive/Desktop/GD32VW553/V1_MQTT_OK/GD32VW55X_Wifi_BLE_SDK/GD32VW55x_RELEASE_V1.0.2/MSDK/lwip/lwip-2.1.2/src/core\altcp_tcp.c ****     return ERR_VAL;
 2107              		.loc 1 352 6 is_stmt 0
 2108 0000 39C1     		beq	a0,zero,.L267
 350:C:/Users/stapi/OneDrive/Desktop/GD32VW553/V1_MQTT_OK/GD32VW55X_Wifi_BLE_SDK/GD32VW55x_RELEASE_V1.0.2/MSDK/lwip/lwip-2.1.2/src/core\altcp_tcp.c ****   struct tcp_pcb *pcb;
 2109              		.loc 1 350 1
 2110 0002 17030000 		call	t0,__riscv_save_0
 2110      E7020300 
 2111              		.cfi_offset 1, -4
 2112              		.cfi_def_cfa_offset 16
 355:C:/Users/stapi/OneDrive/Desktop/GD32VW553/V1_MQTT_OK/GD32VW55X_Wifi_BLE_SDK/GD32VW55x_RELEASE_V1.0.2/MSDK/lwip/lwip-2.1.2/src/core\altcp_tcp.c ****   pcb = (struct tcp_pcb *)conn->state;
 2113              		.loc 1 355 3 is_stmt 1
 355:C:/Users/stapi/OneDrive/Desktop/GD32VW553/V1_MQTT_OK/GD32VW55X_Wifi_BLE_SDK/GD32VW55x_RELEASE_V1.0.2/MSDK/lwip/lwip-2.1.2/src/core\altcp_tcp.c ****   pcb = (struct tcp_pcb *)conn->state;
 2114              		.loc 1 355 3
 355:C:/Users/stapi/OneDrive/Desktop/GD32VW553/V1_MQTT_OK/GD32VW55X_Wifi_BLE_SDK/GD32VW55x_RELEASE_V1.0.2/MSDK/lwip/lwip-2.1.2/src/core\altcp_tcp.c ****   pcb = (struct tcp_pcb *)conn->state;
 2115              		.loc 1 355 3
 2116 000a 5C41     		lw	a5,4(a0)
 2117 000c 85C7     		beq	a5,zero,.L265
 355:C:/Users/stapi/OneDrive/Desktop/GD32VW553/V1_MQTT_OK/GD32VW55X_Wifi_BLE_SDK/GD32VW55x_RELEASE_V1.0.2/MSDK/lwip/lwip-2.1.2/src/core\altcp_tcp.c ****   pcb = (struct tcp_pcb *)conn->state;
 2118              		.loc 1 355 3 discriminator 1
 355:C:/Users/stapi/OneDrive/Desktop/GD32VW553/V1_MQTT_OK/GD32VW55X_Wifi_BLE_SDK/GD32VW55x_RELEASE_V1.0.2/MSDK/lwip/lwip-2.1.2/src/core\altcp_tcp.c ****   pcb = (struct tcp_pcb *)conn->state;
 2119              		.loc 1 355 3 discriminator 1
 2120 000e B7060000 		lui	a3,%hi(.LC0)
 2121              	.LVL267:
 2122 0012 B7050000 		lui	a1,%hi(.LC3)
 2123              	.LVL268:
 2124 0016 37050000 		lui	a0,%hi(.LC2)
 2125              	.LVL269:
 2126 001a 93860600 		addi	a3,a3,%lo(.LC0)
 2127 001e 13063016 		li	a2,355
 2128              	.LVL270:
 2129 0022 93850500 		addi	a1,a1,%lo(.LC3)
 2130 0026 13050500 		addi	a0,a0,%lo(.LC2)
 2131 002a 97000000 		call	printf
 2131      E7800000 
 2132              	.LVL271:
 2133              	.L266:
 355:C:/Users/stapi/OneDrive/Desktop/GD32VW553/V1_MQTT_OK/GD32VW55X_Wifi_BLE_SDK/GD32VW55x_RELEASE_V1.0.2/MSDK/lwip/lwip-2.1.2/src/core\altcp_tcp.c ****   pcb = (struct tcp_pcb *)conn->state;
 2134              		.loc 1 355 3 discriminator 1
 355:C:/Users/stapi/OneDrive/Desktop/GD32VW553/V1_MQTT_OK/GD32VW55X_Wifi_BLE_SDK/GD32VW55x_RELEASE_V1.0.2/MSDK/lwip/lwip-2.1.2/src/core\altcp_tcp.c ****   pcb = (struct tcp_pcb *)conn->state;
 2135              		.loc 1 355 3 discriminator 1
 355:C:/Users/stapi/OneDrive/Desktop/GD32VW553/V1_MQTT_OK/GD32VW55X_Wifi_BLE_SDK/GD32VW55x_RELEASE_V1.0.2/MSDK/lwip/lwip-2.1.2/src/core\altcp_tcp.c ****   pcb = (struct tcp_pcb *)conn->state;
 2136              		.loc 1 355 3 discriminator 1
 2137 0032 01A0     		j	.L266
 2138              	.LVL272:
 2139              	.L265:
 2140              	.LBB157:
 2141              	.LBB158:
 355:C:/Users/stapi/OneDrive/Desktop/GD32VW553/V1_MQTT_OK/GD32VW55X_Wifi_BLE_SDK/GD32VW55x_RELEASE_V1.0.2/MSDK/lwip/lwip-2.1.2/src/core\altcp_tcp.c ****   pcb = (struct tcp_pcb *)conn->state;
 2142              		.loc 1 355 3 discriminator 2
 355:C:/Users/stapi/OneDrive/Desktop/GD32VW553/V1_MQTT_OK/GD32VW55X_Wifi_BLE_SDK/GD32VW55x_RELEASE_V1.0.2/MSDK/lwip/lwip-2.1.2/src/core\altcp_tcp.c ****   pcb = (struct tcp_pcb *)conn->state;
 2143              		.loc 1 355 3 discriminator 2
 355:C:/Users/stapi/OneDrive/Desktop/GD32VW553/V1_MQTT_OK/GD32VW55X_Wifi_BLE_SDK/GD32VW55x_RELEASE_V1.0.2/MSDK/lwip/lwip-2.1.2/src/core\altcp_tcp.c ****   pcb = (struct tcp_pcb *)conn->state;
 2144              		.loc 1 355 3 discriminator 2
 355:C:/Users/stapi/OneDrive/Desktop/GD32VW553/V1_MQTT_OK/GD32VW55X_Wifi_BLE_SDK/GD32VW55x_RELEASE_V1.0.2/MSDK/lwip/lwip-2.1.2/src/core\altcp_tcp.c ****   pcb = (struct tcp_pcb *)conn->state;
 2145              		.loc 1 355 3 discriminator 2
 356:C:/Users/stapi/OneDrive/Desktop/GD32VW553/V1_MQTT_OK/GD32VW55X_Wifi_BLE_SDK/GD32VW55x_RELEASE_V1.0.2/MSDK/lwip/lwip-2.1.2/src/core\altcp_tcp.c ****   return tcp_write(pcb, dataptr, len, apiflags);
 2146              		.loc 1 356 3 discriminator 2
 357:C:/Users/stapi/OneDrive/Desktop/GD32VW553/V1_MQTT_OK/GD32VW55X_Wifi_BLE_SDK/GD32VW55x_RELEASE_V1.0.2/MSDK/lwip/lwip-2.1.2/src/core\altcp_tcp.c **** }
 2147              		.loc 1 357 3 discriminator 2
 357:C:/Users/stapi/OneDrive/Desktop/GD32VW553/V1_MQTT_OK/GD32VW55X_Wifi_BLE_SDK/GD32VW55x_RELEASE_V1.0.2/MSDK/lwip/lwip-2.1.2/src/core\altcp_tcp.c **** }
 2148              		.loc 1 357 10 is_stmt 0 discriminator 2
 2149 0034 4845     		lw	a0,12(a0)
 2150              	.LVL273:
 2151 0036 97000000 		call	tcp_write
 2151      E7800000 
 2152              	.LVL274:
 2153              	.LBE158:
 2154              	.LBE157:
 358:C:/Users/stapi/OneDrive/Desktop/GD32VW553/V1_MQTT_OK/GD32VW55X_Wifi_BLE_SDK/GD32VW55x_RELEASE_V1.0.2/MSDK/lwip/lwip-2.1.2/src/core\altcp_tcp.c **** 
 2155              		.loc 1 358 1 discriminator 2
 2156 003e 17030000 		tail	__riscv_restore_0
 2156      67000300 
 2157              		.cfi_restore 1
 2158              		.cfi_def_cfa_offset 0
 2159              	.LVL275:
 2160              	.L267:
 353:C:/Users/stapi/OneDrive/Desktop/GD32VW553/V1_MQTT_OK/GD32VW55X_Wifi_BLE_SDK/GD32VW55x_RELEASE_V1.0.2/MSDK/lwip/lwip-2.1.2/src/core\altcp_tcp.c ****   }
 2161              		.loc 1 353 12
 2162 0046 6955     		li	a0,-6
 2163              	.LVL276:
 358:C:/Users/stapi/OneDrive/Desktop/GD32VW553/V1_MQTT_OK/GD32VW55X_Wifi_BLE_SDK/GD32VW55x_RELEASE_V1.0.2/MSDK/lwip/lwip-2.1.2/src/core\altcp_tcp.c **** 
 2164              		.loc 1 358 1
 2165 0048 8280     		ret
 2166              		.cfi_endproc
 2167              	.LFE24:
 2169              		.section	.text.altcp_tcp_output,"ax",@progbits
 2170              		.align	1
 2172              	altcp_tcp_output:
 2173              	.LFB25:
 362:C:/Users/stapi/OneDrive/Desktop/GD32VW553/V1_MQTT_OK/GD32VW55X_Wifi_BLE_SDK/GD32VW55x_RELEASE_V1.0.2/MSDK/lwip/lwip-2.1.2/src/core\altcp_tcp.c ****   struct tcp_pcb *pcb;
 2174              		.loc 1 362 1 is_stmt 1
 2175              		.cfi_startproc
 2176              	.LVL277:
 363:C:/Users/stapi/OneDrive/Desktop/GD32VW553/V1_MQTT_OK/GD32VW55X_Wifi_BLE_SDK/GD32VW55x_RELEASE_V1.0.2/MSDK/lwip/lwip-2.1.2/src/core\altcp_tcp.c ****   if (conn == NULL) {
 2177              		.loc 1 363 3
 364:C:/Users/stapi/OneDrive/Desktop/GD32VW553/V1_MQTT_OK/GD32VW55X_Wifi_BLE_SDK/GD32VW55x_RELEASE_V1.0.2/MSDK/lwip/lwip-2.1.2/src/core\altcp_tcp.c ****     return ERR_VAL;
 2178              		.loc 1 364 3
 364:C:/Users/stapi/OneDrive/Desktop/GD32VW553/V1_MQTT_OK/GD32VW55X_Wifi_BLE_SDK/GD32VW55x_RELEASE_V1.0.2/MSDK/lwip/lwip-2.1.2/src/core\altcp_tcp.c ****     return ERR_VAL;
 2179              		.loc 1 364 6 is_stmt 0
 2180 0000 39C1     		beq	a0,zero,.L276
 362:C:/Users/stapi/OneDrive/Desktop/GD32VW553/V1_MQTT_OK/GD32VW55X_Wifi_BLE_SDK/GD32VW55x_RELEASE_V1.0.2/MSDK/lwip/lwip-2.1.2/src/core\altcp_tcp.c ****   struct tcp_pcb *pcb;
 2181              		.loc 1 362 1
 2182 0002 17030000 		call	t0,__riscv_save_0
 2182      E7020300 
 2183              		.cfi_offset 1, -4
 2184              		.cfi_def_cfa_offset 16
 367:C:/Users/stapi/OneDrive/Desktop/GD32VW553/V1_MQTT_OK/GD32VW55X_Wifi_BLE_SDK/GD32VW55x_RELEASE_V1.0.2/MSDK/lwip/lwip-2.1.2/src/core\altcp_tcp.c ****   pcb = (struct tcp_pcb *)conn->state;
 2185              		.loc 1 367 3 is_stmt 1
 367:C:/Users/stapi/OneDrive/Desktop/GD32VW553/V1_MQTT_OK/GD32VW55X_Wifi_BLE_SDK/GD32VW55x_RELEASE_V1.0.2/MSDK/lwip/lwip-2.1.2/src/core\altcp_tcp.c ****   pcb = (struct tcp_pcb *)conn->state;
 2186              		.loc 1 367 3
 367:C:/Users/stapi/OneDrive/Desktop/GD32VW553/V1_MQTT_OK/GD32VW55X_Wifi_BLE_SDK/GD32VW55x_RELEASE_V1.0.2/MSDK/lwip/lwip-2.1.2/src/core\altcp_tcp.c ****   pcb = (struct tcp_pcb *)conn->state;
 2187              		.loc 1 367 3
 2188 000a 5C41     		lw	a5,4(a0)
 2189 000c 85C7     		beq	a5,zero,.L274
 367:C:/Users/stapi/OneDrive/Desktop/GD32VW553/V1_MQTT_OK/GD32VW55X_Wifi_BLE_SDK/GD32VW55x_RELEASE_V1.0.2/MSDK/lwip/lwip-2.1.2/src/core\altcp_tcp.c ****   pcb = (struct tcp_pcb *)conn->state;
 2190              		.loc 1 367 3 discriminator 1
 367:C:/Users/stapi/OneDrive/Desktop/GD32VW553/V1_MQTT_OK/GD32VW55X_Wifi_BLE_SDK/GD32VW55x_RELEASE_V1.0.2/MSDK/lwip/lwip-2.1.2/src/core\altcp_tcp.c ****   pcb = (struct tcp_pcb *)conn->state;
 2191              		.loc 1 367 3 discriminator 1
 2192 000e B7060000 		lui	a3,%hi(.LC0)
 2193 0012 B7050000 		lui	a1,%hi(.LC3)
 2194 0016 37050000 		lui	a0,%hi(.LC2)
 2195              	.LVL278:
 2196 001a 93860600 		addi	a3,a3,%lo(.LC0)
 2197 001e 1306F016 		li	a2,367
 2198 0022 93850500 		addi	a1,a1,%lo(.LC3)
 2199 0026 13050500 		addi	a0,a0,%lo(.LC2)
 2200 002a 97000000 		call	printf
 2200      E7800000 
 2201              	.LVL279:
 2202              	.L275:
 367:C:/Users/stapi/OneDrive/Desktop/GD32VW553/V1_MQTT_OK/GD32VW55X_Wifi_BLE_SDK/GD32VW55x_RELEASE_V1.0.2/MSDK/lwip/lwip-2.1.2/src/core\altcp_tcp.c ****   pcb = (struct tcp_pcb *)conn->state;
 2203              		.loc 1 367 3 discriminator 1
 367:C:/Users/stapi/OneDrive/Desktop/GD32VW553/V1_MQTT_OK/GD32VW55X_Wifi_BLE_SDK/GD32VW55x_RELEASE_V1.0.2/MSDK/lwip/lwip-2.1.2/src/core\altcp_tcp.c ****   pcb = (struct tcp_pcb *)conn->state;
 2204              		.loc 1 367 3 discriminator 1
 367:C:/Users/stapi/OneDrive/Desktop/GD32VW553/V1_MQTT_OK/GD32VW55X_Wifi_BLE_SDK/GD32VW55x_RELEASE_V1.0.2/MSDK/lwip/lwip-2.1.2/src/core\altcp_tcp.c ****   pcb = (struct tcp_pcb *)conn->state;
 2205              		.loc 1 367 3 discriminator 1
 2206 0032 01A0     		j	.L275
 2207              	.LVL280:
 2208              	.L274:
 2209              	.LBB161:
 2210              	.LBB162:
 367:C:/Users/stapi/OneDrive/Desktop/GD32VW553/V1_MQTT_OK/GD32VW55X_Wifi_BLE_SDK/GD32VW55x_RELEASE_V1.0.2/MSDK/lwip/lwip-2.1.2/src/core\altcp_tcp.c ****   pcb = (struct tcp_pcb *)conn->state;
 2211              		.loc 1 367 3 discriminator 2
 367:C:/Users/stapi/OneDrive/Desktop/GD32VW553/V1_MQTT_OK/GD32VW55X_Wifi_BLE_SDK/GD32VW55x_RELEASE_V1.0.2/MSDK/lwip/lwip-2.1.2/src/core\altcp_tcp.c ****   pcb = (struct tcp_pcb *)conn->state;
 2212              		.loc 1 367 3 discriminator 2
 367:C:/Users/stapi/OneDrive/Desktop/GD32VW553/V1_MQTT_OK/GD32VW55X_Wifi_BLE_SDK/GD32VW55x_RELEASE_V1.0.2/MSDK/lwip/lwip-2.1.2/src/core\altcp_tcp.c ****   pcb = (struct tcp_pcb *)conn->state;
 2213              		.loc 1 367 3 discriminator 2
 367:C:/Users/stapi/OneDrive/Desktop/GD32VW553/V1_MQTT_OK/GD32VW55X_Wifi_BLE_SDK/GD32VW55x_RELEASE_V1.0.2/MSDK/lwip/lwip-2.1.2/src/core\altcp_tcp.c ****   pcb = (struct tcp_pcb *)conn->state;
 2214              		.loc 1 367 3 discriminator 2
 368:C:/Users/stapi/OneDrive/Desktop/GD32VW553/V1_MQTT_OK/GD32VW55X_Wifi_BLE_SDK/GD32VW55x_RELEASE_V1.0.2/MSDK/lwip/lwip-2.1.2/src/core\altcp_tcp.c ****   return tcp_output(pcb);
 2215              		.loc 1 368 3 discriminator 2
 369:C:/Users/stapi/OneDrive/Desktop/GD32VW553/V1_MQTT_OK/GD32VW55X_Wifi_BLE_SDK/GD32VW55x_RELEASE_V1.0.2/MSDK/lwip/lwip-2.1.2/src/core\altcp_tcp.c **** }
 2216              		.loc 1 369 3 discriminator 2
 369:C:/Users/stapi/OneDrive/Desktop/GD32VW553/V1_MQTT_OK/GD32VW55X_Wifi_BLE_SDK/GD32VW55x_RELEASE_V1.0.2/MSDK/lwip/lwip-2.1.2/src/core\altcp_tcp.c **** }
 2217              		.loc 1 369 10 is_stmt 0 discriminator 2
 2218 0034 4845     		lw	a0,12(a0)
 2219              	.LVL281:
 2220 0036 97000000 		call	tcp_output
 2220      E7800000 
 2221              	.LVL282:
 2222              	.LBE162:
 2223              	.LBE161:
 370:C:/Users/stapi/OneDrive/Desktop/GD32VW553/V1_MQTT_OK/GD32VW55X_Wifi_BLE_SDK/GD32VW55x_RELEASE_V1.0.2/MSDK/lwip/lwip-2.1.2/src/core\altcp_tcp.c **** 
 2224              		.loc 1 370 1 discriminator 2
 2225 003e 17030000 		tail	__riscv_restore_0
 2225      67000300 
 2226              		.cfi_restore 1
 2227              		.cfi_def_cfa_offset 0
 2228              	.LVL283:
 2229              	.L276:
 365:C:/Users/stapi/OneDrive/Desktop/GD32VW553/V1_MQTT_OK/GD32VW55X_Wifi_BLE_SDK/GD32VW55x_RELEASE_V1.0.2/MSDK/lwip/lwip-2.1.2/src/core\altcp_tcp.c ****   }
 2230              		.loc 1 365 12
 2231 0046 6955     		li	a0,-6
 2232              	.LVL284:
 370:C:/Users/stapi/OneDrive/Desktop/GD32VW553/V1_MQTT_OK/GD32VW55X_Wifi_BLE_SDK/GD32VW55x_RELEASE_V1.0.2/MSDK/lwip/lwip-2.1.2/src/core\altcp_tcp.c **** 
 2233              		.loc 1 370 1
 2234 0048 8280     		ret
 2235              		.cfi_endproc
 2236              	.LFE25:
 2238              		.section	.text.altcp_tcp_sndbuf,"ax",@progbits
 2239              		.align	1
 2241              	altcp_tcp_sndbuf:
 2242              	.LFB27:
 386:C:/Users/stapi/OneDrive/Desktop/GD32VW553/V1_MQTT_OK/GD32VW55X_Wifi_BLE_SDK/GD32VW55x_RELEASE_V1.0.2/MSDK/lwip/lwip-2.1.2/src/core\altcp_tcp.c ****   struct tcp_pcb *pcb;
 2243              		.loc 1 386 1 is_stmt 1
 2244              		.cfi_startproc
 2245              	.LVL285:
 387:C:/Users/stapi/OneDrive/Desktop/GD32VW553/V1_MQTT_OK/GD32VW55X_Wifi_BLE_SDK/GD32VW55x_RELEASE_V1.0.2/MSDK/lwip/lwip-2.1.2/src/core\altcp_tcp.c ****   if (conn == NULL) {
 2246              		.loc 1 387 3
 388:C:/Users/stapi/OneDrive/Desktop/GD32VW553/V1_MQTT_OK/GD32VW55X_Wifi_BLE_SDK/GD32VW55x_RELEASE_V1.0.2/MSDK/lwip/lwip-2.1.2/src/core\altcp_tcp.c ****     return 0;
 2247              		.loc 1 388 3
 388:C:/Users/stapi/OneDrive/Desktop/GD32VW553/V1_MQTT_OK/GD32VW55X_Wifi_BLE_SDK/GD32VW55x_RELEASE_V1.0.2/MSDK/lwip/lwip-2.1.2/src/core\altcp_tcp.c ****     return 0;
 2248              		.loc 1 388 6 is_stmt 0
 2249 0000 31C5     		beq	a0,zero,.L285
 391:C:/Users/stapi/OneDrive/Desktop/GD32VW553/V1_MQTT_OK/GD32VW55X_Wifi_BLE_SDK/GD32VW55x_RELEASE_V1.0.2/MSDK/lwip/lwip-2.1.2/src/core\altcp_tcp.c ****   pcb = (struct tcp_pcb *)conn->state;
 2250              		.loc 1 391 3 is_stmt 1
 391:C:/Users/stapi/OneDrive/Desktop/GD32VW553/V1_MQTT_OK/GD32VW55X_Wifi_BLE_SDK/GD32VW55x_RELEASE_V1.0.2/MSDK/lwip/lwip-2.1.2/src/core\altcp_tcp.c ****   pcb = (struct tcp_pcb *)conn->state;
 2251              		.loc 1 391 3
 391:C:/Users/stapi/OneDrive/Desktop/GD32VW553/V1_MQTT_OK/GD32VW55X_Wifi_BLE_SDK/GD32VW55x_RELEASE_V1.0.2/MSDK/lwip/lwip-2.1.2/src/core\altcp_tcp.c ****   pcb = (struct tcp_pcb *)conn->state;
 2252              		.loc 1 391 3
 2253 0002 5C41     		lw	a5,4(a0)
 2254 0004 85CB     		beq	a5,zero,.L283
 386:C:/Users/stapi/OneDrive/Desktop/GD32VW553/V1_MQTT_OK/GD32VW55X_Wifi_BLE_SDK/GD32VW55x_RELEASE_V1.0.2/MSDK/lwip/lwip-2.1.2/src/core\altcp_tcp.c ****   struct tcp_pcb *pcb;
 2255              		.loc 1 386 1 is_stmt 0 discriminator 1
 2256 0006 17030000 		call	t0,__riscv_save_0
 2256      E7020300 
 2257              		.cfi_offset 1, -4
 2258              		.cfi_def_cfa_offset 16
 391:C:/Users/stapi/OneDrive/Desktop/GD32VW553/V1_MQTT_OK/GD32VW55X_Wifi_BLE_SDK/GD32VW55x_RELEASE_V1.0.2/MSDK/lwip/lwip-2.1.2/src/core\altcp_tcp.c ****   pcb = (struct tcp_pcb *)conn->state;
 2259              		.loc 1 391 3 is_stmt 1 discriminator 1
 391:C:/Users/stapi/OneDrive/Desktop/GD32VW553/V1_MQTT_OK/GD32VW55X_Wifi_BLE_SDK/GD32VW55x_RELEASE_V1.0.2/MSDK/lwip/lwip-2.1.2/src/core\altcp_tcp.c ****   pcb = (struct tcp_pcb *)conn->state;
 2260              		.loc 1 391 3 discriminator 1
 2261 000e B7060000 		lui	a3,%hi(.LC0)
 2262 0012 B7050000 		lui	a1,%hi(.LC3)
 2263 0016 37050000 		lui	a0,%hi(.LC2)
 2264              	.LVL286:
 2265 001a 93860600 		addi	a3,a3,%lo(.LC0)
 2266 001e 13067018 		li	a2,391
 2267 0022 93850500 		addi	a1,a1,%lo(.LC3)
 2268 0026 13050500 		addi	a0,a0,%lo(.LC2)
 2269 002a 97000000 		call	printf
 2269      E7800000 
 2270              	.LVL287:
 2271              	.L284:
 391:C:/Users/stapi/OneDrive/Desktop/GD32VW553/V1_MQTT_OK/GD32VW55X_Wifi_BLE_SDK/GD32VW55x_RELEASE_V1.0.2/MSDK/lwip/lwip-2.1.2/src/core\altcp_tcp.c ****   pcb = (struct tcp_pcb *)conn->state;
 2272              		.loc 1 391 3 discriminator 1
 391:C:/Users/stapi/OneDrive/Desktop/GD32VW553/V1_MQTT_OK/GD32VW55X_Wifi_BLE_SDK/GD32VW55x_RELEASE_V1.0.2/MSDK/lwip/lwip-2.1.2/src/core\altcp_tcp.c ****   pcb = (struct tcp_pcb *)conn->state;
 2273              		.loc 1 391 3 discriminator 1
 391:C:/Users/stapi/OneDrive/Desktop/GD32VW553/V1_MQTT_OK/GD32VW55X_Wifi_BLE_SDK/GD32VW55x_RELEASE_V1.0.2/MSDK/lwip/lwip-2.1.2/src/core\altcp_tcp.c ****   pcb = (struct tcp_pcb *)conn->state;
 2274              		.loc 1 391 3 discriminator 1
 2275 0032 01A0     		j	.L284
 2276              	.LVL288:
 2277              	.L283:
 2278              		.cfi_def_cfa_offset 0
 2279              		.cfi_restore 1
 2280              	.LBB165:
 2281              	.LBB166:
 391:C:/Users/stapi/OneDrive/Desktop/GD32VW553/V1_MQTT_OK/GD32VW55X_Wifi_BLE_SDK/GD32VW55x_RELEASE_V1.0.2/MSDK/lwip/lwip-2.1.2/src/core\altcp_tcp.c ****   pcb = (struct tcp_pcb *)conn->state;
 2282              		.loc 1 391 3 discriminator 2
 391:C:/Users/stapi/OneDrive/Desktop/GD32VW553/V1_MQTT_OK/GD32VW55X_Wifi_BLE_SDK/GD32VW55x_RELEASE_V1.0.2/MSDK/lwip/lwip-2.1.2/src/core\altcp_tcp.c ****   pcb = (struct tcp_pcb *)conn->state;
 2283              		.loc 1 391 3 discriminator 2
 391:C:/Users/stapi/OneDrive/Desktop/GD32VW553/V1_MQTT_OK/GD32VW55X_Wifi_BLE_SDK/GD32VW55x_RELEASE_V1.0.2/MSDK/lwip/lwip-2.1.2/src/core\altcp_tcp.c ****   pcb = (struct tcp_pcb *)conn->state;
 2284              		.loc 1 391 3 discriminator 2
 391:C:/Users/stapi/OneDrive/Desktop/GD32VW553/V1_MQTT_OK/GD32VW55X_Wifi_BLE_SDK/GD32VW55x_RELEASE_V1.0.2/MSDK/lwip/lwip-2.1.2/src/core\altcp_tcp.c ****   pcb = (struct tcp_pcb *)conn->state;
 2285              		.loc 1 391 3 discriminator 2
 392:C:/Users/stapi/OneDrive/Desktop/GD32VW553/V1_MQTT_OK/GD32VW55X_Wifi_BLE_SDK/GD32VW55x_RELEASE_V1.0.2/MSDK/lwip/lwip-2.1.2/src/core\altcp_tcp.c ****   return tcp_sndbuf(pcb);
 2286              		.loc 1 392 3 discriminator 2
 393:C:/Users/stapi/OneDrive/Desktop/GD32VW553/V1_MQTT_OK/GD32VW55X_Wifi_BLE_SDK/GD32VW55x_RELEASE_V1.0.2/MSDK/lwip/lwip-2.1.2/src/core\altcp_tcp.c **** }
 2287              		.loc 1 393 3 discriminator 2
 393:C:/Users/stapi/OneDrive/Desktop/GD32VW553/V1_MQTT_OK/GD32VW55X_Wifi_BLE_SDK/GD32VW55x_RELEASE_V1.0.2/MSDK/lwip/lwip-2.1.2/src/core\altcp_tcp.c **** }
 2288              		.loc 1 393 10 is_stmt 0 discriminator 2
 2289 0034 5C45     		lw	a5,12(a0)
 2290 0036 4165     		li	a0,65536
 2291              	.LVL289:
 2292 0038 1307E5FF 		addi	a4,a0,-2
 2293 003c 83A74709 		lw	a5,148(a5)
 2294              	.LVL290:
 2295 0040 7D15     		addi	a0,a0,-1
 2296 0042 6366F700 		bgtu	a5,a4,.L282
 393:C:/Users/stapi/OneDrive/Desktop/GD32VW553/V1_MQTT_OK/GD32VW55X_Wifi_BLE_SDK/GD32VW55x_RELEASE_V1.0.2/MSDK/lwip/lwip-2.1.2/src/core\altcp_tcp.c **** }
 2297              		.loc 1 393 10
 2298 0046 33C50708 		zext.h	a0,a5
 2299 004a 8280     		ret
 2300              	.LVL291:
 2301              	.L285:
 2302              	.LBE166:
 2303              	.LBE165:
 389:C:/Users/stapi/OneDrive/Desktop/GD32VW553/V1_MQTT_OK/GD32VW55X_Wifi_BLE_SDK/GD32VW55x_RELEASE_V1.0.2/MSDK/lwip/lwip-2.1.2/src/core\altcp_tcp.c ****   }
 2304              		.loc 1 389 12
 2305 004c 0145     		li	a0,0
 2306              	.LVL292:
 2307              	.L282:
 394:C:/Users/stapi/OneDrive/Desktop/GD32VW553/V1_MQTT_OK/GD32VW55X_Wifi_BLE_SDK/GD32VW55x_RELEASE_V1.0.2/MSDK/lwip/lwip-2.1.2/src/core\altcp_tcp.c **** 
 2308              		.loc 1 394 1
 2309 004e 8280     		ret
 2310              		.cfi_endproc
 2311              	.LFE27:
 2313              		.section	.text.altcp_tcp_new_ip_type,"ax",@progbits
 2314              		.align	1
 2315              		.globl	altcp_tcp_new_ip_type
 2317              	altcp_tcp_new_ip_type:
 2318              	.LFB13:
 190:C:/Users/stapi/OneDrive/Desktop/GD32VW553/V1_MQTT_OK/GD32VW55X_Wifi_BLE_SDK/GD32VW55x_RELEASE_V1.0.2/MSDK/lwip/lwip-2.1.2/src/core\altcp_tcp.c ****   /* Allocate the tcp pcb first to invoke the priority handling code
 2319              		.loc 1 190 1 is_stmt 1
 2320              		.cfi_startproc
 2321              	.LVL293:
 2322 0000 17030000 		call	t0,__riscv_save_2
 2322      E7020300 
 2323              		.cfi_offset 9, -12
 2324              		.cfi_offset 8, -8
 2325              		.cfi_offset 1, -4
 2326              		.cfi_def_cfa_offset 16
 193:C:/Users/stapi/OneDrive/Desktop/GD32VW553/V1_MQTT_OK/GD32VW55X_Wifi_BLE_SDK/GD32VW55x_RELEASE_V1.0.2/MSDK/lwip/lwip-2.1.2/src/core\altcp_tcp.c ****   if (tpcb != NULL) {
 2327              		.loc 1 193 3
 193:C:/Users/stapi/OneDrive/Desktop/GD32VW553/V1_MQTT_OK/GD32VW55X_Wifi_BLE_SDK/GD32VW55x_RELEASE_V1.0.2/MSDK/lwip/lwip-2.1.2/src/core\altcp_tcp.c ****   if (tpcb != NULL) {
 2328              		.loc 1 193 26 is_stmt 0
 2329 0008 97000000 		call	tcp_new_ip_type
 2329      E7800000 
 2330              	.LVL294:
 194:C:/Users/stapi/OneDrive/Desktop/GD32VW553/V1_MQTT_OK/GD32VW55X_Wifi_BLE_SDK/GD32VW55x_RELEASE_V1.0.2/MSDK/lwip/lwip-2.1.2/src/core\altcp_tcp.c ****     struct altcp_pcb *ret = altcp_alloc();
 2331              		.loc 1 194 3 is_stmt 1
 204:C:/Users/stapi/OneDrive/Desktop/GD32VW553/V1_MQTT_OK/GD32VW55X_Wifi_BLE_SDK/GD32VW55x_RELEASE_V1.0.2/MSDK/lwip/lwip-2.1.2/src/core\altcp_tcp.c **** }
 2332              		.loc 1 204 10 is_stmt 0
 2333 0010 0144     		li	s0,0
 194:C:/Users/stapi/OneDrive/Desktop/GD32VW553/V1_MQTT_OK/GD32VW55X_Wifi_BLE_SDK/GD32VW55x_RELEASE_V1.0.2/MSDK/lwip/lwip-2.1.2/src/core\altcp_tcp.c ****     struct altcp_pcb *ret = altcp_alloc();
 2334              		.loc 1 194 6
 2335 0012 1DC1     		beq	a0,zero,.L290
 2336 0014 AA84     		mv	s1,a0
 2337              	.LBB170:
 195:C:/Users/stapi/OneDrive/Desktop/GD32VW553/V1_MQTT_OK/GD32VW55X_Wifi_BLE_SDK/GD32VW55x_RELEASE_V1.0.2/MSDK/lwip/lwip-2.1.2/src/core\altcp_tcp.c ****     if (ret != NULL) {
 2338              		.loc 1 195 5 is_stmt 1
 195:C:/Users/stapi/OneDrive/Desktop/GD32VW553/V1_MQTT_OK/GD32VW55X_Wifi_BLE_SDK/GD32VW55x_RELEASE_V1.0.2/MSDK/lwip/lwip-2.1.2/src/core\altcp_tcp.c ****     if (ret != NULL) {
 2339              		.loc 1 195 29 is_stmt 0
 2340 0016 97000000 		call	altcp_alloc
 2340      E7800000 
 2341              	.LVL295:
 2342 001e 2A84     		mv	s0,a0
 2343              	.LVL296:
 196:C:/Users/stapi/OneDrive/Desktop/GD32VW553/V1_MQTT_OK/GD32VW55X_Wifi_BLE_SDK/GD32VW55x_RELEASE_V1.0.2/MSDK/lwip/lwip-2.1.2/src/core\altcp_tcp.c ****       altcp_tcp_setup(ret, tpcb);
 2344              		.loc 1 196 5 is_stmt 1
 196:C:/Users/stapi/OneDrive/Desktop/GD32VW553/V1_MQTT_OK/GD32VW55X_Wifi_BLE_SDK/GD32VW55x_RELEASE_V1.0.2/MSDK/lwip/lwip-2.1.2/src/core\altcp_tcp.c ****       altcp_tcp_setup(ret, tpcb);
 2345              		.loc 1 196 8 is_stmt 0
 2346 0020 0DC1     		beq	a0,zero,.L292
 197:C:/Users/stapi/OneDrive/Desktop/GD32VW553/V1_MQTT_OK/GD32VW55X_Wifi_BLE_SDK/GD32VW55x_RELEASE_V1.0.2/MSDK/lwip/lwip-2.1.2/src/core\altcp_tcp.c ****       return ret;
 2347              		.loc 1 197 7 is_stmt 1
 2348              	.LVL297:
 2349              	.LBB171:
 2350              	.LBB172:
 183:C:/Users/stapi/OneDrive/Desktop/GD32VW553/V1_MQTT_OK/GD32VW55X_Wifi_BLE_SDK/GD32VW55x_RELEASE_V1.0.2/MSDK/lwip/lwip-2.1.2/src/core\altcp_tcp.c ****   conn->state = tpcb;
 2351              		.loc 1 183 3
 2352 0022 A685     		mv	a1,s1
 2353 0024 97000000 		call	altcp_tcp_setup_callbacks
 2353      E7800000 
 2354              	.LVL298:
 184:C:/Users/stapi/OneDrive/Desktop/GD32VW553/V1_MQTT_OK/GD32VW55X_Wifi_BLE_SDK/GD32VW55x_RELEASE_V1.0.2/MSDK/lwip/lwip-2.1.2/src/core\altcp_tcp.c ****   conn->fns = &altcp_tcp_functions;
 2355              		.loc 1 184 3
 185:C:/Users/stapi/OneDrive/Desktop/GD32VW553/V1_MQTT_OK/GD32VW55X_Wifi_BLE_SDK/GD32VW55x_RELEASE_V1.0.2/MSDK/lwip/lwip-2.1.2/src/core\altcp_tcp.c **** }
 2356              		.loc 1 185 13 is_stmt 0
 2357 002c B7070000 		lui	a5,%hi(.LANCHOR0)
 2358 0030 93870700 		addi	a5,a5,%lo(.LANCHOR0)
 184:C:/Users/stapi/OneDrive/Desktop/GD32VW553/V1_MQTT_OK/GD32VW55X_Wifi_BLE_SDK/GD32VW55x_RELEASE_V1.0.2/MSDK/lwip/lwip-2.1.2/src/core\altcp_tcp.c ****   conn->fns = &altcp_tcp_functions;
 2359              		.loc 1 184 15
 2360 0034 44C4     		sw	s1,12(s0)
 185:C:/Users/stapi/OneDrive/Desktop/GD32VW553/V1_MQTT_OK/GD32VW55X_Wifi_BLE_SDK/GD32VW55x_RELEASE_V1.0.2/MSDK/lwip/lwip-2.1.2/src/core\altcp_tcp.c **** }
 2361              		.loc 1 185 3 is_stmt 1
 185:C:/Users/stapi/OneDrive/Desktop/GD32VW553/V1_MQTT_OK/GD32VW55X_Wifi_BLE_SDK/GD32VW55x_RELEASE_V1.0.2/MSDK/lwip/lwip-2.1.2/src/core\altcp_tcp.c **** }
 2362              		.loc 1 185 13 is_stmt 0
 2363 0036 1CC0     		sw	a5,0(s0)
 2364              	.LVL299:
 2365              	.L290:
 2366              	.LBE172:
 2367              	.LBE171:
 2368              	.LBE170:
 205:C:/Users/stapi/OneDrive/Desktop/GD32VW553/V1_MQTT_OK/GD32VW55X_Wifi_BLE_SDK/GD32VW55x_RELEASE_V1.0.2/MSDK/lwip/lwip-2.1.2/src/core\altcp_tcp.c **** 
 2369              		.loc 1 205 1
 2370 0038 2285     		mv	a0,s0
 2371 003a 17030000 		tail	__riscv_restore_2
 2371      67000300 
 2372              		.cfi_remember_state
 2373              		.cfi_restore 9
 2374              		.cfi_restore 8
 2375              		.cfi_restore 1
 2376              		.cfi_def_cfa_offset 0
 2377              	.LVL300:
 2378              	.L292:
 2379              		.cfi_restore_state
 2380              	.LBB173:
 201:C:/Users/stapi/OneDrive/Desktop/GD32VW553/V1_MQTT_OK/GD32VW55X_Wifi_BLE_SDK/GD32VW55x_RELEASE_V1.0.2/MSDK/lwip/lwip-2.1.2/src/core\altcp_tcp.c ****     }
 2381              		.loc 1 201 7 is_stmt 1
 2382 0042 2685     		mv	a0,s1
 2383 0044 97000000 		call	tcp_close
 2383      E7800000 
 2384              	.LVL301:
 2385 004c F5B7     		j	.L290
 2386              	.LBE173:
 2387              		.cfi_endproc
 2388              	.LFE13:
 2390              		.section	.text.altcp_tcp_alloc,"ax",@progbits
 2391              		.align	1
 2392              		.globl	altcp_tcp_alloc
 2394              	altcp_tcp_alloc:
 2395              	.LFB14:
 213:C:/Users/stapi/OneDrive/Desktop/GD32VW553/V1_MQTT_OK/GD32VW55X_Wifi_BLE_SDK/GD32VW55x_RELEASE_V1.0.2/MSDK/lwip/lwip-2.1.2/src/core\altcp_tcp.c ****   LWIP_UNUSED_ARG(arg);
 2396              		.loc 1 213 1
 2397              		.cfi_startproc
 2398              	.LVL302:
 214:C:/Users/stapi/OneDrive/Desktop/GD32VW553/V1_MQTT_OK/GD32VW55X_Wifi_BLE_SDK/GD32VW55x_RELEASE_V1.0.2/MSDK/lwip/lwip-2.1.2/src/core\altcp_tcp.c ****   return altcp_tcp_new_ip_type(ip_type);
 2399              		.loc 1 214 3
 215:C:/Users/stapi/OneDrive/Desktop/GD32VW553/V1_MQTT_OK/GD32VW55X_Wifi_BLE_SDK/GD32VW55x_RELEASE_V1.0.2/MSDK/lwip/lwip-2.1.2/src/core\altcp_tcp.c **** }
 2400              		.loc 1 215 3
 215:C:/Users/stapi/OneDrive/Desktop/GD32VW553/V1_MQTT_OK/GD32VW55X_Wifi_BLE_SDK/GD32VW55x_RELEASE_V1.0.2/MSDK/lwip/lwip-2.1.2/src/core\altcp_tcp.c **** }
 2401              		.loc 1 215 10 is_stmt 0
 2402 0000 2E85     		mv	a0,a1
 2403              	.LVL303:
 2404 0002 17030000 		tail	altcp_tcp_new_ip_type
 2404      67000300 
 2405              	.LVL304:
 2406              		.cfi_endproc
 2407              	.LFE14:
 2409              		.section	.text.altcp_tcp_wrap,"ax",@progbits
 2410              		.align	1
 2411              		.globl	altcp_tcp_wrap
 2413              	altcp_tcp_wrap:
 2414              	.LFB15:
 220:C:/Users/stapi/OneDrive/Desktop/GD32VW553/V1_MQTT_OK/GD32VW55X_Wifi_BLE_SDK/GD32VW55x_RELEASE_V1.0.2/MSDK/lwip/lwip-2.1.2/src/core\altcp_tcp.c ****   if (tpcb != NULL) {
 2415              		.loc 1 220 1 is_stmt 1
 2416              		.cfi_startproc
 2417              	.LVL305:
 2418 0000 17030000 		call	t0,__riscv_save_2
 2418      E7020300 
 2419              		.cfi_offset 9, -12
 2420              		.cfi_offset 8, -8
 2421              		.cfi_offset 1, -4
 2422              		.cfi_def_cfa_offset 16
 221:C:/Users/stapi/OneDrive/Desktop/GD32VW553/V1_MQTT_OK/GD32VW55X_Wifi_BLE_SDK/GD32VW55x_RELEASE_V1.0.2/MSDK/lwip/lwip-2.1.2/src/core\altcp_tcp.c ****     struct altcp_pcb *ret = altcp_alloc();
 2423              		.loc 1 221 3
 228:C:/Users/stapi/OneDrive/Desktop/GD32VW553/V1_MQTT_OK/GD32VW55X_Wifi_BLE_SDK/GD32VW55x_RELEASE_V1.0.2/MSDK/lwip/lwip-2.1.2/src/core\altcp_tcp.c **** }
 2424              		.loc 1 228 10 is_stmt 0
 2425 0008 0144     		li	s0,0
 221:C:/Users/stapi/OneDrive/Desktop/GD32VW553/V1_MQTT_OK/GD32VW55X_Wifi_BLE_SDK/GD32VW55x_RELEASE_V1.0.2/MSDK/lwip/lwip-2.1.2/src/core\altcp_tcp.c ****     struct altcp_pcb *ret = altcp_alloc();
 2426              		.loc 1 221 6
 2427 000a 1DC1     		beq	a0,zero,.L297
 2428 000c AA84     		mv	s1,a0
 2429              	.LBB177:
 222:C:/Users/stapi/OneDrive/Desktop/GD32VW553/V1_MQTT_OK/GD32VW55X_Wifi_BLE_SDK/GD32VW55x_RELEASE_V1.0.2/MSDK/lwip/lwip-2.1.2/src/core\altcp_tcp.c ****     if (ret != NULL) {
 2430              		.loc 1 222 5 is_stmt 1
 222:C:/Users/stapi/OneDrive/Desktop/GD32VW553/V1_MQTT_OK/GD32VW55X_Wifi_BLE_SDK/GD32VW55x_RELEASE_V1.0.2/MSDK/lwip/lwip-2.1.2/src/core\altcp_tcp.c ****     if (ret != NULL) {
 2431              		.loc 1 222 29 is_stmt 0
 2432 000e 97000000 		call	altcp_alloc
 2432      E7800000 
 2433              	.LVL306:
 2434 0016 2A84     		mv	s0,a0
 2435              	.LVL307:
 223:C:/Users/stapi/OneDrive/Desktop/GD32VW553/V1_MQTT_OK/GD32VW55X_Wifi_BLE_SDK/GD32VW55x_RELEASE_V1.0.2/MSDK/lwip/lwip-2.1.2/src/core\altcp_tcp.c ****       altcp_tcp_setup(ret, tpcb);
 2436              		.loc 1 223 5 is_stmt 1
 223:C:/Users/stapi/OneDrive/Desktop/GD32VW553/V1_MQTT_OK/GD32VW55X_Wifi_BLE_SDK/GD32VW55x_RELEASE_V1.0.2/MSDK/lwip/lwip-2.1.2/src/core\altcp_tcp.c ****       altcp_tcp_setup(ret, tpcb);
 2437              		.loc 1 223 8 is_stmt 0
 2438 0018 01CD     		beq	a0,zero,.L297
 224:C:/Users/stapi/OneDrive/Desktop/GD32VW553/V1_MQTT_OK/GD32VW55X_Wifi_BLE_SDK/GD32VW55x_RELEASE_V1.0.2/MSDK/lwip/lwip-2.1.2/src/core\altcp_tcp.c ****       return ret;
 2439              		.loc 1 224 7 is_stmt 1
 2440              	.LVL308:
 2441              	.LBB178:
 2442              	.LBB179:
 183:C:/Users/stapi/OneDrive/Desktop/GD32VW553/V1_MQTT_OK/GD32VW55X_Wifi_BLE_SDK/GD32VW55x_RELEASE_V1.0.2/MSDK/lwip/lwip-2.1.2/src/core\altcp_tcp.c ****   conn->state = tpcb;
 2443              		.loc 1 183 3
 2444 001a A685     		mv	a1,s1
 2445 001c 97000000 		call	altcp_tcp_setup_callbacks
 2445      E7800000 
 2446              	.LVL309:
 184:C:/Users/stapi/OneDrive/Desktop/GD32VW553/V1_MQTT_OK/GD32VW55X_Wifi_BLE_SDK/GD32VW55x_RELEASE_V1.0.2/MSDK/lwip/lwip-2.1.2/src/core\altcp_tcp.c ****   conn->fns = &altcp_tcp_functions;
 2447              		.loc 1 184 3
 185:C:/Users/stapi/OneDrive/Desktop/GD32VW553/V1_MQTT_OK/GD32VW55X_Wifi_BLE_SDK/GD32VW55x_RELEASE_V1.0.2/MSDK/lwip/lwip-2.1.2/src/core\altcp_tcp.c **** }
 2448              		.loc 1 185 13 is_stmt 0
 2449 0024 B7070000 		lui	a5,%hi(.LANCHOR0)
 2450 0028 93870700 		addi	a5,a5,%lo(.LANCHOR0)
 184:C:/Users/stapi/OneDrive/Desktop/GD32VW553/V1_MQTT_OK/GD32VW55X_Wifi_BLE_SDK/GD32VW55x_RELEASE_V1.0.2/MSDK/lwip/lwip-2.1.2/src/core\altcp_tcp.c ****   conn->fns = &altcp_tcp_functions;
 2451              		.loc 1 184 15
 2452 002c 44C4     		sw	s1,12(s0)
 185:C:/Users/stapi/OneDrive/Desktop/GD32VW553/V1_MQTT_OK/GD32VW55X_Wifi_BLE_SDK/GD32VW55x_RELEASE_V1.0.2/MSDK/lwip/lwip-2.1.2/src/core\altcp_tcp.c **** }
 2453              		.loc 1 185 3 is_stmt 1
 185:C:/Users/stapi/OneDrive/Desktop/GD32VW553/V1_MQTT_OK/GD32VW55X_Wifi_BLE_SDK/GD32VW55x_RELEASE_V1.0.2/MSDK/lwip/lwip-2.1.2/src/core\altcp_tcp.c **** }
 2454              		.loc 1 185 13 is_stmt 0
 2455 002e 1CC0     		sw	a5,0(s0)
 2456              	.LVL310:
 2457              	.L297:
 2458              	.LBE179:
 2459              	.LBE178:
 2460              	.LBE177:
 229:C:/Users/stapi/OneDrive/Desktop/GD32VW553/V1_MQTT_OK/GD32VW55X_Wifi_BLE_SDK/GD32VW55x_RELEASE_V1.0.2/MSDK/lwip/lwip-2.1.2/src/core\altcp_tcp.c **** 
 2461              		.loc 1 229 1
 2462 0030 2285     		mv	a0,s0
 2463 0032 17030000 		tail	__riscv_restore_2
 2463      67000300 
 2464              		.cfi_restore 9
 2465              		.cfi_restore 8
 2466              		.cfi_restore 1
 2467              		.cfi_def_cfa_offset 0
 2468              		.cfi_endproc
 2469              	.LFE15:
 2471              		.globl	altcp_tcp_functions
 2472              		.section	.rodata.altcp_tcp_functions,"a"
 2473              		.align	2
 2474              		.set	.LANCHOR0,. + 0
 2477              	altcp_tcp_functions:
 2478 0000 00000000 		.word	altcp_tcp_set_poll
 2479 0004 00000000 		.word	altcp_tcp_recved
 2480 0008 00000000 		.word	altcp_tcp_bind
 2481 000c 00000000 		.word	altcp_tcp_connect
 2482 0010 00000000 		.word	altcp_tcp_listen
 2483 0014 00000000 		.word	altcp_tcp_abort
 2484 0018 00000000 		.word	altcp_tcp_close
 2485 001c 00000000 		.word	altcp_tcp_shutdown
 2486 0020 00000000 		.word	altcp_tcp_write
 2487 0024 00000000 		.word	altcp_tcp_output
 2488 0028 00000000 		.word	altcp_tcp_mss
 2489 002c 00000000 		.word	altcp_tcp_sndbuf
 2490 0030 00000000 		.word	altcp_tcp_sndqueuelen
 2491 0034 00000000 		.word	altcp_tcp_nagle_disable
 2492 0038 00000000 		.word	altcp_tcp_nagle_enable
 2493 003c 00000000 		.word	altcp_tcp_nagle_disabled
 2494 0040 00000000 		.word	altcp_tcp_setprio
 2495 0044 00000000 		.word	altcp_tcp_dealloc
 2496 0048 00000000 		.word	altcp_tcp_get_tcp_addrinfo
 2497 004c 00000000 		.word	altcp_tcp_get_ip
 2498 0050 00000000 		.word	altcp_tcp_get_port
 2499              		.text
 2500              	.Letext0:
 2501              		.file 2 "c:\\users\\stapi\\onedrive\\desktop\\gd32vw553\\embeddedbuilder_v1.4.7.26843\\tools\\nucl
 2502              		.file 3 "c:\\users\\stapi\\onedrive\\desktop\\gd32vw553\\embeddedbuilder_v1.4.7.26843\\tools\\nucl
 2503              		.file 4 "..\\..\\..\\..\\lwip\\lwip-2.1.2\\src\\include/lwip/arch.h"
 2504              		.file 5 "..\\..\\..\\..\\lwip\\lwip-2.1.2\\src\\include/lwip/tcpbase.h"
 2505              		.file 6 "..\\..\\..\\..\\lwip\\lwip-2.1.2\\src\\include/lwip/err.h"
 2506              		.file 7 "..\\..\\..\\..\\lwip\\lwip-2.1.2\\src\\include/lwip/pbuf.h"
 2507              		.file 8 "..\\..\\..\\..\\lwip\\lwip-2.1.2\\src\\include/lwip/ip4_addr.h"
 2508              		.file 9 "..\\..\\..\\..\\lwip\\lwip-2.1.2\\src\\include/lwip/ip_addr.h"
 2509              		.file 10 "..\\..\\..\\..\\lwip\\lwip-2.1.2\\src\\include/lwip/altcp.h"
 2510              		.file 11 "..\\..\\..\\..\\lwip\\lwip-2.1.2\\src\\include/lwip/priv/altcp_priv.h"
 2511              		.file 12 "..\\..\\..\\..\\lwip\\lwip-2.1.2\\src\\include/lwip/memp.h"
 2512              		.file 13 "..\\..\\..\\..\\lwip\\lwip-2.1.2\\src\\include/lwip/netif.h"
 2513              		.file 14 "..\\..\\..\\..\\lwip\\lwip-2.1.2\\src\\include/lwip/tcp.h"
 2514              		.file 15 "c:\\users\\stapi\\onedrive\\desktop\\gd32vw553\\embeddedbuilder_v1.4.7.26843\\tools\\nuc
DEFINED SYMBOLS
                            *ABS*:0000000000000000 altcp_tcp.c
C:\Users\stapi\AppData\Local\Temp\cceMGvY8.s:12     .text.altcp_tcp_setup_callbacks:0000000000000000 altcp_tcp_setup_callbacks
C:\Users\stapi\AppData\Local\Temp\cceMGvY8.s:16     .text.altcp_tcp_setup_callbacks:0000000000000000 .L0 
C:\Users\stapi\AppData\Local\Temp\cceMGvY8.s:18     .text.altcp_tcp_setup_callbacks:0000000000000000 .L0 
C:\Users\stapi\AppData\Local\Temp\cceMGvY8.s:19     .text.altcp_tcp_setup_callbacks:0000000000000008 .L0 
C:\Users\stapi\AppData\Local\Temp\cceMGvY8.s:20     .text.altcp_tcp_setup_callbacks:0000000000000008 .L0 
C:\Users\stapi\AppData\Local\Temp\cceMGvY8.s:21     .text.altcp_tcp_setup_callbacks:0000000000000008 .L0 
C:\Users\stapi\AppData\Local\Temp\cceMGvY8.s:23     .text.altcp_tcp_setup_callbacks:0000000000000008 .L0 
C:\Users\stapi\AppData\Local\Temp\cceMGvY8.s:24     .text.altcp_tcp_setup_callbacks:0000000000000008 .L0 
C:\Users\stapi\AppData\Local\Temp\cceMGvY8.s:26     .text.altcp_tcp_setup_callbacks:000000000000000a .L0 
C:\Users\stapi\AppData\Local\Temp\cceMGvY8.s:218    .text.altcp_tcp_recv:0000000000000000 altcp_tcp_recv
C:\Users\stapi\AppData\Local\Temp\cceMGvY8.s:33     .text.altcp_tcp_setup_callbacks:0000000000000016 .L0 
C:\Users\stapi\AppData\Local\Temp\cceMGvY8.s:408    .text.altcp_tcp_sent:0000000000000000 altcp_tcp_sent
C:\Users\stapi\AppData\Local\Temp\cceMGvY8.s:39     .text.altcp_tcp_setup_callbacks:0000000000000028 .L0 
C:\Users\stapi\AppData\Local\Temp\cceMGvY8.s:158    .text.altcp_tcp_err:0000000000000000 altcp_tcp_err
C:\Users\stapi\AppData\Local\Temp\cceMGvY8.s:45     .text.altcp_tcp_setup_callbacks:000000000000003a .L0 
C:\Users\stapi\AppData\Local\Temp\cceMGvY8.s:51     .text.altcp_tcp_setup_callbacks:000000000000004c .L0 
C:\Users\stapi\AppData\Local\Temp\cceMGvY8.s:52     .text.altcp_tcp_setup_callbacks:0000000000000054 .L0 
C:\Users\stapi\AppData\Local\Temp\cceMGvY8.s:53     .text.altcp_tcp_setup_callbacks:0000000000000054 .L0 
C:\Users\stapi\AppData\Local\Temp\cceMGvY8.s:54     .text.altcp_tcp_setup_callbacks:0000000000000054 .L0 
C:\Users\stapi\AppData\Local\Temp\cceMGvY8.s:55     .text.altcp_tcp_setup_callbacks:0000000000000054 .L0 
C:\Users\stapi\AppData\Local\Temp\cceMGvY8.s:61     .text.altcp_tcp_accept:0000000000000000 altcp_tcp_accept
C:\Users\stapi\AppData\Local\Temp\cceMGvY8.s:64     .text.altcp_tcp_accept:0000000000000000 .L0 
C:\Users\stapi\AppData\Local\Temp\cceMGvY8.s:66     .text.altcp_tcp_accept:0000000000000000 .L0 
C:\Users\stapi\AppData\Local\Temp\cceMGvY8.s:67     .text.altcp_tcp_accept:0000000000000000 .L0 
C:\Users\stapi\AppData\Local\Temp\cceMGvY8.s:68     .text.altcp_tcp_accept:0000000000000000 .L0 
C:\Users\stapi\AppData\Local\Temp\cceMGvY8.s:69     .text.altcp_tcp_accept:0000000000000000 .L0 
C:\Users\stapi\AppData\Local\Temp\cceMGvY8.s:71     .text.altcp_tcp_accept:0000000000000002 .L0 
C:\Users\stapi\AppData\Local\Temp\cceMGvY8.s:72     .text.altcp_tcp_accept:000000000000000a .L0 
C:\Users\stapi\AppData\Local\Temp\cceMGvY8.s:73     .text.altcp_tcp_accept:000000000000000a .L0 
C:\Users\stapi\AppData\Local\Temp\cceMGvY8.s:74     .text.altcp_tcp_accept:000000000000000a .L0 
C:\Users\stapi\AppData\Local\Temp\cceMGvY8.s:75     .text.altcp_tcp_accept:000000000000000a .L0 
C:\Users\stapi\AppData\Local\Temp\cceMGvY8.s:76     .text.altcp_tcp_accept:000000000000000a .L0 
C:\Users\stapi\AppData\Local\Temp\cceMGvY8.s:77     .text.altcp_tcp_accept:000000000000000a .L0 
C:\Users\stapi\AppData\Local\Temp\cceMGvY8.s:79     .text.altcp_tcp_accept:000000000000000a .L0 
C:\Users\stapi\AppData\Local\Temp\cceMGvY8.s:82     .text.altcp_tcp_accept:000000000000000e .L0 
C:\Users\stapi\AppData\Local\Temp\cceMGvY8.s:84     .text.altcp_tcp_accept:0000000000000010 .L0 
C:\Users\stapi\AppData\Local\Temp\cceMGvY8.s:89     .text.altcp_tcp_accept:0000000000000016 .L0 
C:\Users\stapi\AppData\Local\Temp\cceMGvY8.s:90     .text.altcp_tcp_accept:0000000000000016 .L0 
C:\Users\stapi\AppData\Local\Temp\cceMGvY8.s:95     .text.altcp_tcp_accept:0000000000000020 .L0 
C:\Users\stapi\AppData\Local\Temp\cceMGvY8.s:96     .text.altcp_tcp_accept:0000000000000020 .L0 
C:\Users\stapi\AppData\Local\Temp\cceMGvY8.s:98     .text.altcp_tcp_accept:0000000000000022 .L0 
C:\Users\stapi\AppData\Local\Temp\cceMGvY8.s:103    .text.altcp_tcp_accept:0000000000000024 .L0 
C:\Users\stapi\AppData\Local\Temp\cceMGvY8.s:104    .text.altcp_tcp_accept:0000000000000024 .L0 
C:\Users\stapi\AppData\Local\Temp\cceMGvY8.s:108    .text.altcp_tcp_accept:000000000000002e .L0 
C:\Users\stapi\AppData\Local\Temp\cceMGvY8.s:109    .text.altcp_tcp_accept:000000000000002e .L0 
C:\Users\stapi\AppData\Local\Temp\cceMGvY8.s:115    .text.altcp_tcp_accept:0000000000000038 .L0 
C:\Users\stapi\AppData\Local\Temp\cceMGvY8.s:120    .text.altcp_tcp_accept:000000000000003c .L0 
C:\Users\stapi\AppData\Local\Temp\cceMGvY8.s:125    .text.altcp_tcp_accept:0000000000000040 .L0 
C:\Users\stapi\AppData\Local\Temp\cceMGvY8.s:126    .text.altcp_tcp_accept:0000000000000040 .L0 
C:\Users\stapi\AppData\Local\Temp\cceMGvY8.s:127    .text.altcp_tcp_accept:0000000000000040 .L0 
C:\Users\stapi\AppData\Local\Temp\cceMGvY8.s:136    .text.altcp_tcp_accept:0000000000000048 .L0 
C:\Users\stapi\AppData\Local\Temp\cceMGvY8.s:138    .text.altcp_tcp_accept:0000000000000052 .L0 
C:\Users\stapi\AppData\Local\Temp\cceMGvY8.s:139    .text.altcp_tcp_accept:0000000000000052 .L0 
C:\Users\stapi\AppData\Local\Temp\cceMGvY8.s:140    .text.altcp_tcp_accept:0000000000000052 .L0 
C:\Users\stapi\AppData\Local\Temp\cceMGvY8.s:141    .text.altcp_tcp_accept:0000000000000052 .L0 
C:\Users\stapi\AppData\Local\Temp\cceMGvY8.s:142    .text.altcp_tcp_accept:0000000000000052 .L0 
C:\Users\stapi\AppData\Local\Temp\cceMGvY8.s:143    .text.altcp_tcp_accept:0000000000000052 .L0 
C:\Users\stapi\AppData\Local\Temp\cceMGvY8.s:147    .text.altcp_tcp_accept:0000000000000052 .L0 
C:\Users\stapi\AppData\Local\Temp\cceMGvY8.s:149    .text.altcp_tcp_accept:0000000000000054 .L0 
C:\Users\stapi\AppData\Local\Temp\cceMGvY8.s:152    .text.altcp_tcp_accept:0000000000000058 .L0 
C:\Users\stapi\AppData\Local\Temp\cceMGvY8.s:161    .text.altcp_tcp_err:0000000000000000 .L0 
C:\Users\stapi\AppData\Local\Temp\cceMGvY8.s:163    .text.altcp_tcp_err:0000000000000000 .L0 
C:\Users\stapi\AppData\Local\Temp\cceMGvY8.s:164    .text.altcp_tcp_err:0000000000000000 .L0 
C:\Users\stapi\AppData\Local\Temp\cceMGvY8.s:165    .text.altcp_tcp_err:0000000000000000 .L0 
C:\Users\stapi\AppData\Local\Temp\cceMGvY8.s:166    .text.altcp_tcp_err:0000000000000000 .L0 
C:\Users\stapi\AppData\Local\Temp\cceMGvY8.s:168    .text.altcp_tcp_err:0000000000000002 .L0 
C:\Users\stapi\AppData\Local\Temp\cceMGvY8.s:169    .text.altcp_tcp_err:000000000000000a .L0 
C:\Users\stapi\AppData\Local\Temp\cceMGvY8.s:170    .text.altcp_tcp_err:000000000000000a .L0 
C:\Users\stapi\AppData\Local\Temp\cceMGvY8.s:171    .text.altcp_tcp_err:000000000000000a .L0 
C:\Users\stapi\AppData\Local\Temp\cceMGvY8.s:173    .text.altcp_tcp_err:000000000000000a .L0 
C:\Users\stapi\AppData\Local\Temp\cceMGvY8.s:175    .text.altcp_tcp_err:000000000000000c .L0 
C:\Users\stapi\AppData\Local\Temp\cceMGvY8.s:178    .text.altcp_tcp_err:0000000000000012 .L0 
C:\Users\stapi\AppData\Local\Temp\cceMGvY8.s:179    .text.altcp_tcp_err:0000000000000012 .L0 
C:\Users\stapi\AppData\Local\Temp\cceMGvY8.s:180    .text.altcp_tcp_err:0000000000000012 .L0 
C:\Users\stapi\AppData\Local\Temp\cceMGvY8.s:182    .text.altcp_tcp_err:0000000000000014 .L0 
C:\Users\stapi\AppData\Local\Temp\cceMGvY8.s:188    .text.altcp_tcp_err:0000000000000018 .L0 
C:\Users\stapi\AppData\Local\Temp\cceMGvY8.s:192    .text.altcp_tcp_err:0000000000000022 .L0 
C:\Users\stapi\AppData\Local\Temp\cceMGvY8.s:193    .text.altcp_tcp_err:000000000000002a .L0 
C:\Users\stapi\AppData\Local\Temp\cceMGvY8.s:194    .text.altcp_tcp_err:000000000000002a .L0 
C:\Users\stapi\AppData\Local\Temp\cceMGvY8.s:195    .text.altcp_tcp_err:000000000000002a .L0 
C:\Users\stapi\AppData\Local\Temp\cceMGvY8.s:199    .text.altcp_tcp_err:000000000000002c .L0 
C:\Users\stapi\AppData\Local\Temp\cceMGvY8.s:221    .text.altcp_tcp_recv:0000000000000000 .L0 
C:\Users\stapi\AppData\Local\Temp\cceMGvY8.s:223    .text.altcp_tcp_recv:0000000000000000 .L0 
C:\Users\stapi\AppData\Local\Temp\cceMGvY8.s:224    .text.altcp_tcp_recv:0000000000000008 .L0 
C:\Users\stapi\AppData\Local\Temp\cceMGvY8.s:225    .text.altcp_tcp_recv:0000000000000008 .L0 
C:\Users\stapi\AppData\Local\Temp\cceMGvY8.s:226    .text.altcp_tcp_recv:0000000000000008 .L0 
C:\Users\stapi\AppData\Local\Temp\cceMGvY8.s:228    .text.altcp_tcp_recv:0000000000000008 .L0 
C:\Users\stapi\AppData\Local\Temp\cceMGvY8.s:229    .text.altcp_tcp_recv:0000000000000008 .L0 
C:\Users\stapi\AppData\Local\Temp\cceMGvY8.s:232    .text.altcp_tcp_recv:000000000000000a .L0 
C:\Users\stapi\AppData\Local\Temp\cceMGvY8.s:233    .text.altcp_tcp_recv:000000000000000a .L0 
C:\Users\stapi\AppData\Local\Temp\cceMGvY8.s:236    .text.altcp_tcp_recv:000000000000000c .L0 
C:\Users\stapi\AppData\Local\Temp\cceMGvY8.s:238    .text.altcp_tcp_recv:000000000000000e .L0 
C:\Users\stapi\AppData\Local\Temp\cceMGvY8.s:239    .text.altcp_tcp_recv:000000000000000e .L0 
C:\Users\stapi\AppData\Local\Temp\cceMGvY8.s:240    .text.altcp_tcp_recv:000000000000000e .L0 
C:\Users\stapi\AppData\Local\Temp\cceMGvY8.s:243    .text.altcp_tcp_recv:0000000000000014 .L0 
C:\Users\stapi\AppData\Local\Temp\cceMGvY8.s:244    .text.altcp_tcp_recv:0000000000000014 .L0 
C:\Users\stapi\AppData\Local\Temp\cceMGvY8.s:258    .text.altcp_tcp_recv:0000000000000038 .L0 
C:\Users\stapi\AppData\Local\Temp\cceMGvY8.s:259    .text.altcp_tcp_recv:0000000000000038 .L0 
C:\Users\stapi\AppData\Local\Temp\cceMGvY8.s:260    .text.altcp_tcp_recv:0000000000000038 .L0 
C:\Users\stapi\AppData\Local\Temp\cceMGvY8.s:264    .text.altcp_tcp_recv:000000000000003a .L0 
C:\Users\stapi\AppData\Local\Temp\cceMGvY8.s:265    .text.altcp_tcp_recv:000000000000003a .L0 
C:\Users\stapi\AppData\Local\Temp\cceMGvY8.s:266    .text.altcp_tcp_recv:000000000000003a .L0 
C:\Users\stapi\AppData\Local\Temp\cceMGvY8.s:267    .text.altcp_tcp_recv:000000000000003a .L0 
C:\Users\stapi\AppData\Local\Temp\cceMGvY8.s:268    .text.altcp_tcp_recv:000000000000003a .L0 
C:\Users\stapi\AppData\Local\Temp\cceMGvY8.s:269    .text.altcp_tcp_recv:000000000000003a .L0 
C:\Users\stapi\AppData\Local\Temp\cceMGvY8.s:272    .text.altcp_tcp_recv:000000000000003e .L0 
C:\Users\stapi\AppData\Local\Temp\cceMGvY8.s:273    .text.altcp_tcp_recv:000000000000003e .L0 
C:\Users\stapi\AppData\Local\Temp\cceMGvY8.s:288    .text.altcp_tcp_recv:0000000000000062 .L0 
C:\Users\stapi\AppData\Local\Temp\cceMGvY8.s:289    .text.altcp_tcp_recv:0000000000000062 .L0 
C:\Users\stapi\AppData\Local\Temp\cceMGvY8.s:290    .text.altcp_tcp_recv:0000000000000062 .L0 
C:\Users\stapi\AppData\Local\Temp\cceMGvY8.s:294    .text.altcp_tcp_recv:0000000000000064 .L0 
C:\Users\stapi\AppData\Local\Temp\cceMGvY8.s:295    .text.altcp_tcp_recv:0000000000000064 .L0 
C:\Users\stapi\AppData\Local\Temp\cceMGvY8.s:296    .text.altcp_tcp_recv:0000000000000064 .L0 
C:\Users\stapi\AppData\Local\Temp\cceMGvY8.s:297    .text.altcp_tcp_recv:0000000000000064 .L0 
C:\Users\stapi\AppData\Local\Temp\cceMGvY8.s:298    .text.altcp_tcp_recv:0000000000000064 .L0 
C:\Users\stapi\AppData\Local\Temp\cceMGvY8.s:299    .text.altcp_tcp_recv:0000000000000064 .L0 
C:\Users\stapi\AppData\Local\Temp\cceMGvY8.s:300    .text.altcp_tcp_recv:0000000000000064 .L0 
C:\Users\stapi\AppData\Local\Temp\cceMGvY8.s:302    .text.altcp_tcp_recv:0000000000000066 .L0 
C:\Users\stapi\AppData\Local\Temp\cceMGvY8.s:304    .text.altcp_tcp_recv:0000000000000068 .L0 
C:\Users\stapi\AppData\Local\Temp\cceMGvY8.s:305    .text.altcp_tcp_recv:0000000000000068 .L0 
C:\Users\stapi\AppData\Local\Temp\cceMGvY8.s:314    .text.altcp_tcp_recv:0000000000000070 .L0 
C:\Users\stapi\AppData\Local\Temp\cceMGvY8.s:316    .text.altcp_tcp_recv:000000000000007a .L0 
C:\Users\stapi\AppData\Local\Temp\cceMGvY8.s:317    .text.altcp_tcp_recv:000000000000007a .L0 
C:\Users\stapi\AppData\Local\Temp\cceMGvY8.s:318    .text.altcp_tcp_recv:000000000000007a .L0 
C:\Users\stapi\AppData\Local\Temp\cceMGvY8.s:319    .text.altcp_tcp_recv:000000000000007a .L0 
C:\Users\stapi\AppData\Local\Temp\cceMGvY8.s:322    .text.altcp_tcp_recv:000000000000007a .L0 
C:\Users\stapi\AppData\Local\Temp\cceMGvY8.s:324    .text.altcp_tcp_recv:000000000000007a .L0 
C:\Users\stapi\AppData\Local\Temp\cceMGvY8.s:325    .text.altcp_tcp_recv:000000000000007a .L0 
C:\Users\stapi\AppData\Local\Temp\cceMGvY8.s:327    .text.altcp_tcp_recv:000000000000007c .L0 
C:\Users\stapi\AppData\Local\Temp\cceMGvY8.s:329    .text.altcp_tcp_recv:000000000000007e .L0 
C:\Users\stapi\AppData\Local\Temp\cceMGvY8.s:332    .text.altcp_tcp_recv:0000000000000088 .L0 
C:\Users\stapi\AppData\Local\Temp\cceMGvY8.s:338    .text.altcp_tcp_get_tcp_addrinfo:0000000000000000 altcp_tcp_get_tcp_addrinfo
C:\Users\stapi\AppData\Local\Temp\cceMGvY8.s:341    .text.altcp_tcp_get_tcp_addrinfo:0000000000000000 .L0 
C:\Users\stapi\AppData\Local\Temp\cceMGvY8.s:343    .text.altcp_tcp_get_tcp_addrinfo:0000000000000000 .L0 
C:\Users\stapi\AppData\Local\Temp\cceMGvY8.s:344    .text.altcp_tcp_get_tcp_addrinfo:0000000000000000 .L0 
C:\Users\stapi\AppData\Local\Temp\cceMGvY8.s:345    .text.altcp_tcp_get_tcp_addrinfo:0000000000000000 .L0 
C:\Users\stapi\AppData\Local\Temp\cceMGvY8.s:347    .text.altcp_tcp_get_tcp_addrinfo:0000000000000002 .L0 
C:\Users\stapi\AppData\Local\Temp\cceMGvY8.s:348    .text.altcp_tcp_get_tcp_addrinfo:000000000000000a .L0 
C:\Users\stapi\AppData\Local\Temp\cceMGvY8.s:349    .text.altcp_tcp_get_tcp_addrinfo:000000000000000a .L0 
C:\Users\stapi\AppData\Local\Temp\cceMGvY8.s:353    .text.altcp_tcp_get_tcp_addrinfo:000000000000000a .L0 
C:\Users\stapi\AppData\Local\Temp\cceMGvY8.s:354    .text.altcp_tcp_get_tcp_addrinfo:000000000000000a .L0 
C:\Users\stapi\AppData\Local\Temp\cceMGvY8.s:355    .text.altcp_tcp_get_tcp_addrinfo:000000000000000a .L0 
C:\Users\stapi\AppData\Local\Temp\cceMGvY8.s:356    .text.altcp_tcp_get_tcp_addrinfo:000000000000000a .L0 
C:\Users\stapi\AppData\Local\Temp\cceMGvY8.s:359    .text.altcp_tcp_get_tcp_addrinfo:000000000000000e .L0 
C:\Users\stapi\AppData\Local\Temp\cceMGvY8.s:360    .text.altcp_tcp_get_tcp_addrinfo:000000000000000e .L0 
C:\Users\stapi\AppData\Local\Temp\cceMGvY8.s:375    .text.altcp_tcp_get_tcp_addrinfo:0000000000000032 .L0 
C:\Users\stapi\AppData\Local\Temp\cceMGvY8.s:376    .text.altcp_tcp_get_tcp_addrinfo:0000000000000032 .L0 
C:\Users\stapi\AppData\Local\Temp\cceMGvY8.s:377    .text.altcp_tcp_get_tcp_addrinfo:0000000000000032 .L0 
C:\Users\stapi\AppData\Local\Temp\cceMGvY8.s:381    .text.altcp_tcp_get_tcp_addrinfo:0000000000000034 .L0 
C:\Users\stapi\AppData\Local\Temp\cceMGvY8.s:382    .text.altcp_tcp_get_tcp_addrinfo:0000000000000034 .L0 
C:\Users\stapi\AppData\Local\Temp\cceMGvY8.s:383    .text.altcp_tcp_get_tcp_addrinfo:0000000000000034 .L0 
C:\Users\stapi\AppData\Local\Temp\cceMGvY8.s:384    .text.altcp_tcp_get_tcp_addrinfo:0000000000000034 .L0 
C:\Users\stapi\AppData\Local\Temp\cceMGvY8.s:385    .text.altcp_tcp_get_tcp_addrinfo:0000000000000034 .L0 
C:\Users\stapi\AppData\Local\Temp\cceMGvY8.s:386    .text.altcp_tcp_get_tcp_addrinfo:0000000000000034 .L0 
C:\Users\stapi\AppData\Local\Temp\cceMGvY8.s:392    .text.altcp_tcp_get_tcp_addrinfo:000000000000003e .L0 
C:\Users\stapi\AppData\Local\Temp\cceMGvY8.s:393    .text.altcp_tcp_get_tcp_addrinfo:0000000000000046 .L0 
C:\Users\stapi\AppData\Local\Temp\cceMGvY8.s:394    .text.altcp_tcp_get_tcp_addrinfo:0000000000000046 .L0 
C:\Users\stapi\AppData\Local\Temp\cceMGvY8.s:398    .text.altcp_tcp_get_tcp_addrinfo:0000000000000046 .L0 
C:\Users\stapi\AppData\Local\Temp\cceMGvY8.s:401    .text.altcp_tcp_get_tcp_addrinfo:0000000000000048 .L0 
C:\Users\stapi\AppData\Local\Temp\cceMGvY8.s:402    .text.altcp_tcp_get_tcp_addrinfo:000000000000004a .L0 
C:\Users\stapi\AppData\Local\Temp\cceMGvY8.s:411    .text.altcp_tcp_sent:0000000000000000 .L0 
C:\Users\stapi\AppData\Local\Temp\cceMGvY8.s:413    .text.altcp_tcp_sent:0000000000000000 .L0 
C:\Users\stapi\AppData\Local\Temp\cceMGvY8.s:414    .text.altcp_tcp_sent:0000000000000000 .L0 
C:\Users\stapi\AppData\Local\Temp\cceMGvY8.s:415    .text.altcp_tcp_sent:0000000000000000 .L0 
C:\Users\stapi\AppData\Local\Temp\cceMGvY8.s:416    .text.altcp_tcp_sent:0000000000000000 .L0 
C:\Users\stapi\AppData\Local\Temp\cceMGvY8.s:418    .text.altcp_tcp_sent:0000000000000002 .L0 
C:\Users\stapi\AppData\Local\Temp\cceMGvY8.s:419    .text.altcp_tcp_sent:000000000000000a .L0 
C:\Users\stapi\AppData\Local\Temp\cceMGvY8.s:420    .text.altcp_tcp_sent:000000000000000a .L0 
C:\Users\stapi\AppData\Local\Temp\cceMGvY8.s:422    .text.altcp_tcp_sent:000000000000000a .L0 
C:\Users\stapi\AppData\Local\Temp\cceMGvY8.s:425    .text.altcp_tcp_sent:000000000000000e .L0 
C:\Users\stapi\AppData\Local\Temp\cceMGvY8.s:426    .text.altcp_tcp_sent:000000000000000e .L0 
C:\Users\stapi\AppData\Local\Temp\cceMGvY8.s:427    .text.altcp_tcp_sent:000000000000000e .L0 
C:\Users\stapi\AppData\Local\Temp\cceMGvY8.s:429    .text.altcp_tcp_sent:0000000000000012 .L0 
C:\Users\stapi\AppData\Local\Temp\cceMGvY8.s:430    .text.altcp_tcp_sent:0000000000000012 .L0 
C:\Users\stapi\AppData\Local\Temp\cceMGvY8.s:444    .text.altcp_tcp_sent:0000000000000036 .L0 
C:\Users\stapi\AppData\Local\Temp\cceMGvY8.s:445    .text.altcp_tcp_sent:0000000000000036 .L0 
C:\Users\stapi\AppData\Local\Temp\cceMGvY8.s:446    .text.altcp_tcp_sent:0000000000000036 .L0 
C:\Users\stapi\AppData\Local\Temp\cceMGvY8.s:450    .text.altcp_tcp_sent:0000000000000038 .L0 
C:\Users\stapi\AppData\Local\Temp\cceMGvY8.s:451    .text.altcp_tcp_sent:0000000000000038 .L0 
C:\Users\stapi\AppData\Local\Temp\cceMGvY8.s:452    .text.altcp_tcp_sent:0000000000000038 .L0 
C:\Users\stapi\AppData\Local\Temp\cceMGvY8.s:453    .text.altcp_tcp_sent:0000000000000038 .L0 
C:\Users\stapi\AppData\Local\Temp\cceMGvY8.s:454    .text.altcp_tcp_sent:0000000000000038 .L0 
C:\Users\stapi\AppData\Local\Temp\cceMGvY8.s:455    .text.altcp_tcp_sent:0000000000000038 .L0 
C:\Users\stapi\AppData\Local\Temp\cceMGvY8.s:458    .text.altcp_tcp_sent:000000000000003c .L0 
C:\Users\stapi\AppData\Local\Temp\cceMGvY8.s:459    .text.altcp_tcp_sent:000000000000003c .L0 
C:\Users\stapi\AppData\Local\Temp\cceMGvY8.s:473    .text.altcp_tcp_sent:0000000000000060 .L0 
C:\Users\stapi\AppData\Local\Temp\cceMGvY8.s:474    .text.altcp_tcp_sent:0000000000000060 .L0 
C:\Users\stapi\AppData\Local\Temp\cceMGvY8.s:475    .text.altcp_tcp_sent:0000000000000060 .L0 
C:\Users\stapi\AppData\Local\Temp\cceMGvY8.s:481    .text.altcp_tcp_sent:0000000000000062 .L0 
C:\Users\stapi\AppData\Local\Temp\cceMGvY8.s:482    .text.altcp_tcp_sent:0000000000000062 .L0 
C:\Users\stapi\AppData\Local\Temp\cceMGvY8.s:483    .text.altcp_tcp_sent:0000000000000062 .L0 
C:\Users\stapi\AppData\Local\Temp\cceMGvY8.s:484    .text.altcp_tcp_sent:0000000000000062 .L0 
C:\Users\stapi\AppData\Local\Temp\cceMGvY8.s:485    .text.altcp_tcp_sent:0000000000000062 .L0 
C:\Users\stapi\AppData\Local\Temp\cceMGvY8.s:486    .text.altcp_tcp_sent:0000000000000062 .L0 
C:\Users\stapi\AppData\Local\Temp\cceMGvY8.s:487    .text.altcp_tcp_sent:0000000000000062 .L0 
C:\Users\stapi\AppData\Local\Temp\cceMGvY8.s:491    .text.altcp_tcp_sent:0000000000000064 .L0 
C:\Users\stapi\AppData\Local\Temp\cceMGvY8.s:496    .text.altcp_tcp_sent:0000000000000066 .L0 
C:\Users\stapi\AppData\Local\Temp\cceMGvY8.s:498    .text.altcp_tcp_sent:0000000000000068 .L0 
C:\Users\stapi\AppData\Local\Temp\cceMGvY8.s:499    .text.altcp_tcp_sent:0000000000000068 .L0 
C:\Users\stapi\AppData\Local\Temp\cceMGvY8.s:508    .text.altcp_tcp_sent:000000000000006e .L0 
C:\Users\stapi\AppData\Local\Temp\cceMGvY8.s:509    .text.altcp_tcp_sent:0000000000000076 .L0 
C:\Users\stapi\AppData\Local\Temp\cceMGvY8.s:510    .text.altcp_tcp_sent:0000000000000076 .L0 
C:\Users\stapi\AppData\Local\Temp\cceMGvY8.s:514    .text.altcp_tcp_sent:0000000000000076 .L0 
C:\Users\stapi\AppData\Local\Temp\cceMGvY8.s:517    .text.altcp_tcp_sent:0000000000000078 .L0 
C:\Users\stapi\AppData\Local\Temp\cceMGvY8.s:518    .text.altcp_tcp_sent:000000000000007a .L0 
C:\Users\stapi\AppData\Local\Temp\cceMGvY8.s:524    .text.altcp_tcp_get_port:0000000000000000 altcp_tcp_get_port
C:\Users\stapi\AppData\Local\Temp\cceMGvY8.s:527    .text.altcp_tcp_get_port:0000000000000000 .L0 
C:\Users\stapi\AppData\Local\Temp\cceMGvY8.s:529    .text.altcp_tcp_get_port:0000000000000000 .L0 
C:\Users\stapi\AppData\Local\Temp\cceMGvY8.s:530    .text.altcp_tcp_get_port:0000000000000000 .L0 
C:\Users\stapi\AppData\Local\Temp\cceMGvY8.s:531    .text.altcp_tcp_get_port:0000000000000000 .L0 
C:\Users\stapi\AppData\Local\Temp\cceMGvY8.s:535    .text.altcp_tcp_get_port:0000000000000002 .L0 
C:\Users\stapi\AppData\Local\Temp\cceMGvY8.s:536    .text.altcp_tcp_get_port:0000000000000002 .L0 
C:\Users\stapi\AppData\Local\Temp\cceMGvY8.s:537    .text.altcp_tcp_get_port:0000000000000002 .L0 
C:\Users\stapi\AppData\Local\Temp\cceMGvY8.s:538    .text.altcp_tcp_get_port:0000000000000002 .L0 
C:\Users\stapi\AppData\Local\Temp\cceMGvY8.s:542    .text.altcp_tcp_get_port:0000000000000006 .L0 
C:\Users\stapi\AppData\Local\Temp\cceMGvY8.s:543    .text.altcp_tcp_get_port:000000000000000e .L0 
C:\Users\stapi\AppData\Local\Temp\cceMGvY8.s:544    .text.altcp_tcp_get_port:000000000000000e .L0 
C:\Users\stapi\AppData\Local\Temp\cceMGvY8.s:549    .text.altcp_tcp_get_port:000000000000000e .L0 
C:\Users\stapi\AppData\Local\Temp\cceMGvY8.s:550    .text.altcp_tcp_get_port:000000000000000e .L0 
C:\Users\stapi\AppData\Local\Temp\cceMGvY8.s:563    .text.altcp_tcp_get_port:0000000000000032 .L0 
C:\Users\stapi\AppData\Local\Temp\cceMGvY8.s:564    .text.altcp_tcp_get_port:0000000000000032 .L0 
C:\Users\stapi\AppData\Local\Temp\cceMGvY8.s:565    .text.altcp_tcp_get_port:0000000000000032 .L0 
C:\Users\stapi\AppData\Local\Temp\cceMGvY8.s:568    .text.altcp_tcp_get_port:0000000000000034 .L0 
C:\Users\stapi\AppData\Local\Temp\cceMGvY8.s:569    .text.altcp_tcp_get_port:0000000000000034 .L0 
C:\Users\stapi\AppData\Local\Temp\cceMGvY8.s:574    .text.altcp_tcp_get_port:0000000000000034 .L0 
C:\Users\stapi\AppData\Local\Temp\cceMGvY8.s:576    .text.altcp_tcp_get_port:0000000000000036 .L0 
C:\Users\stapi\AppData\Local\Temp\cceMGvY8.s:577    .text.altcp_tcp_get_port:0000000000000036 .L0 
C:\Users\stapi\AppData\Local\Temp\cceMGvY8.s:578    .text.altcp_tcp_get_port:0000000000000036 .L0 
C:\Users\stapi\AppData\Local\Temp\cceMGvY8.s:579    .text.altcp_tcp_get_port:0000000000000036 .L0 
C:\Users\stapi\AppData\Local\Temp\cceMGvY8.s:581    .text.altcp_tcp_get_port:0000000000000036 .L0 
C:\Users\stapi\AppData\Local\Temp\cceMGvY8.s:582    .text.altcp_tcp_get_port:0000000000000036 .L0 
C:\Users\stapi\AppData\Local\Temp\cceMGvY8.s:586    .text.altcp_tcp_get_port:0000000000000038 .L0 
C:\Users\stapi\AppData\Local\Temp\cceMGvY8.s:588    .text.altcp_tcp_get_port:000000000000003a .L0 
C:\Users\stapi\AppData\Local\Temp\cceMGvY8.s:589    .text.altcp_tcp_get_port:000000000000003a .L0 
C:\Users\stapi\AppData\Local\Temp\cceMGvY8.s:591    .text.altcp_tcp_get_port:000000000000003c .L0 
C:\Users\stapi\AppData\Local\Temp\cceMGvY8.s:592    .text.altcp_tcp_get_port:000000000000003c .L0 
C:\Users\stapi\AppData\Local\Temp\cceMGvY8.s:596    .text.altcp_tcp_get_port:0000000000000042 .L0 
C:\Users\stapi\AppData\Local\Temp\cceMGvY8.s:597    .text.altcp_tcp_get_port:0000000000000042 .L0 
C:\Users\stapi\AppData\Local\Temp\cceMGvY8.s:603    .text.altcp_tcp_get_port:0000000000000048 .L0 
C:\Users\stapi\AppData\Local\Temp\cceMGvY8.s:607    .text.altcp_tcp_get_port:000000000000004a .L0 
C:\Users\stapi\AppData\Local\Temp\cceMGvY8.s:608    .text.altcp_tcp_get_port:000000000000004c .L0 
C:\Users\stapi\AppData\Local\Temp\cceMGvY8.s:614    .text.altcp_tcp_get_ip:0000000000000000 altcp_tcp_get_ip
C:\Users\stapi\AppData\Local\Temp\cceMGvY8.s:617    .text.altcp_tcp_get_ip:0000000000000000 .L0 
C:\Users\stapi\AppData\Local\Temp\cceMGvY8.s:619    .text.altcp_tcp_get_ip:0000000000000000 .L0 
C:\Users\stapi\AppData\Local\Temp\cceMGvY8.s:620    .text.altcp_tcp_get_ip:0000000000000000 .L0 
C:\Users\stapi\AppData\Local\Temp\cceMGvY8.s:621    .text.altcp_tcp_get_ip:0000000000000000 .L0 
C:\Users\stapi\AppData\Local\Temp\cceMGvY8.s:625    .text.altcp_tcp_get_ip:0000000000000004 .L0 
C:\Users\stapi\AppData\Local\Temp\cceMGvY8.s:626    .text.altcp_tcp_get_ip:0000000000000004 .L0 
C:\Users\stapi\AppData\Local\Temp\cceMGvY8.s:628    .text.altcp_tcp_get_ip:0000000000000006 .L0 
C:\Users\stapi\AppData\Local\Temp\cceMGvY8.s:631    .text.altcp_tcp_get_ip:0000000000000008 .L0 
C:\Users\stapi\AppData\Local\Temp\cceMGvY8.s:632    .text.altcp_tcp_get_ip:0000000000000008 .L0 
C:\Users\stapi\AppData\Local\Temp\cceMGvY8.s:633    .text.altcp_tcp_get_ip:0000000000000008 .L0 
C:\Users\stapi\AppData\Local\Temp\cceMGvY8.s:636    .text.altcp_tcp_get_ip:000000000000000a .L0 
C:\Users\stapi\AppData\Local\Temp\cceMGvY8.s:637    .text.altcp_tcp_get_ip:0000000000000012 .L0 
C:\Users\stapi\AppData\Local\Temp\cceMGvY8.s:638    .text.altcp_tcp_get_ip:0000000000000012 .L0 
C:\Users\stapi\AppData\Local\Temp\cceMGvY8.s:643    .text.altcp_tcp_get_ip:0000000000000012 .L0 
C:\Users\stapi\AppData\Local\Temp\cceMGvY8.s:644    .text.altcp_tcp_get_ip:0000000000000012 .L0 
C:\Users\stapi\AppData\Local\Temp\cceMGvY8.s:657    .text.altcp_tcp_get_ip:0000000000000036 .L0 
C:\Users\stapi\AppData\Local\Temp\cceMGvY8.s:658    .text.altcp_tcp_get_ip:0000000000000036 .L0 
C:\Users\stapi\AppData\Local\Temp\cceMGvY8.s:659    .text.altcp_tcp_get_ip:0000000000000036 .L0 
C:\Users\stapi\AppData\Local\Temp\cceMGvY8.s:662    .text.altcp_tcp_get_ip:0000000000000038 .L0 
C:\Users\stapi\AppData\Local\Temp\cceMGvY8.s:663    .text.altcp_tcp_get_ip:0000000000000038 .L0 
C:\Users\stapi\AppData\Local\Temp\cceMGvY8.s:668    .text.altcp_tcp_get_ip:0000000000000038 .L0 
C:\Users\stapi\AppData\Local\Temp\cceMGvY8.s:669    .text.altcp_tcp_get_ip:0000000000000038 .L0 
C:\Users\stapi\AppData\Local\Temp\cceMGvY8.s:670    .text.altcp_tcp_get_ip:0000000000000038 .L0 
C:\Users\stapi\AppData\Local\Temp\cceMGvY8.s:671    .text.altcp_tcp_get_ip:0000000000000038 .L0 
C:\Users\stapi\AppData\Local\Temp\cceMGvY8.s:672    .text.altcp_tcp_get_ip:0000000000000038 .L0 
C:\Users\stapi\AppData\Local\Temp\cceMGvY8.s:673    .text.altcp_tcp_get_ip:0000000000000038 .L0 
C:\Users\stapi\AppData\Local\Temp\cceMGvY8.s:675    .text.altcp_tcp_get_ip:000000000000003a .L0 
C:\Users\stapi\AppData\Local\Temp\cceMGvY8.s:676    .text.altcp_tcp_get_ip:000000000000003a .L0 
C:\Users\stapi\AppData\Local\Temp\cceMGvY8.s:678    .text.altcp_tcp_get_ip:000000000000003c .L0 
C:\Users\stapi\AppData\Local\Temp\cceMGvY8.s:679    .text.altcp_tcp_get_ip:000000000000003c .L0 
C:\Users\stapi\AppData\Local\Temp\cceMGvY8.s:686    .text.altcp_tcp_get_ip:0000000000000040 .L0 
C:\Users\stapi\AppData\Local\Temp\cceMGvY8.s:690    .text.altcp_tcp_get_ip:0000000000000042 .L0 
C:\Users\stapi\AppData\Local\Temp\cceMGvY8.s:691    .text.altcp_tcp_get_ip:0000000000000044 .L0 
C:\Users\stapi\AppData\Local\Temp\cceMGvY8.s:697    .text.altcp_tcp_dealloc:0000000000000000 altcp_tcp_dealloc
C:\Users\stapi\AppData\Local\Temp\cceMGvY8.s:700    .text.altcp_tcp_dealloc:0000000000000000 .L0 
C:\Users\stapi\AppData\Local\Temp\cceMGvY8.s:702    .text.altcp_tcp_dealloc:0000000000000000 .L0 
C:\Users\stapi\AppData\Local\Temp\cceMGvY8.s:703    .text.altcp_tcp_dealloc:0000000000000000 .L0 
C:\Users\stapi\AppData\Local\Temp\cceMGvY8.s:704    .text.altcp_tcp_dealloc:0000000000000000 .L0 
C:\Users\stapi\AppData\Local\Temp\cceMGvY8.s:705    .text.altcp_tcp_dealloc:0000000000000000 .L0 
C:\Users\stapi\AppData\Local\Temp\cceMGvY8.s:706    .text.altcp_tcp_dealloc:0000000000000000 .L0 
C:\Users\stapi\AppData\Local\Temp\cceMGvY8.s:709    .text.altcp_tcp_dealloc:0000000000000004 .L0 
C:\Users\stapi\AppData\Local\Temp\cceMGvY8.s:710    .text.altcp_tcp_dealloc:000000000000000c .L0 
C:\Users\stapi\AppData\Local\Temp\cceMGvY8.s:711    .text.altcp_tcp_dealloc:000000000000000c .L0 
C:\Users\stapi\AppData\Local\Temp\cceMGvY8.s:716    .text.altcp_tcp_dealloc:000000000000000c .L0 
C:\Users\stapi\AppData\Local\Temp\cceMGvY8.s:717    .text.altcp_tcp_dealloc:000000000000000c .L0 
C:\Users\stapi\AppData\Local\Temp\cceMGvY8.s:729    .text.altcp_tcp_dealloc:0000000000000030 .L0 
C:\Users\stapi\AppData\Local\Temp\cceMGvY8.s:730    .text.altcp_tcp_dealloc:0000000000000030 .L0 
C:\Users\stapi\AppData\Local\Temp\cceMGvY8.s:731    .text.altcp_tcp_dealloc:0000000000000030 .L0 
C:\Users\stapi\AppData\Local\Temp\cceMGvY8.s:734    .text.altcp_tcp_dealloc:0000000000000032 .L0 
C:\Users\stapi\AppData\Local\Temp\cceMGvY8.s:735    .text.altcp_tcp_dealloc:0000000000000032 .L0 
C:\Users\stapi\AppData\Local\Temp\cceMGvY8.s:739    .text.altcp_tcp_dealloc:0000000000000034 .L0 
C:\Users\stapi\AppData\Local\Temp\cceMGvY8.s:745    .text.altcp_tcp_nagle_disabled:0000000000000000 altcp_tcp_nagle_disabled
C:\Users\stapi\AppData\Local\Temp\cceMGvY8.s:748    .text.altcp_tcp_nagle_disabled:0000000000000000 .L0 
C:\Users\stapi\AppData\Local\Temp\cceMGvY8.s:750    .text.altcp_tcp_nagle_disabled:0000000000000000 .L0 
C:\Users\stapi\AppData\Local\Temp\cceMGvY8.s:751    .text.altcp_tcp_nagle_disabled:0000000000000000 .L0 
C:\Users\stapi\AppData\Local\Temp\cceMGvY8.s:752    .text.altcp_tcp_nagle_disabled:0000000000000000 .L0 
C:\Users\stapi\AppData\Local\Temp\cceMGvY8.s:754    .text.altcp_tcp_nagle_disabled:0000000000000002 .L0 
C:\Users\stapi\AppData\Local\Temp\cceMGvY8.s:756    .text.altcp_tcp_nagle_disabled:0000000000000004 .L0 
C:\Users\stapi\AppData\Local\Temp\cceMGvY8.s:760    .text.altcp_tcp_nagle_disabled:0000000000000006 .L0 
C:\Users\stapi\AppData\Local\Temp\cceMGvY8.s:761    .text.altcp_tcp_nagle_disabled:0000000000000006 .L0 
C:\Users\stapi\AppData\Local\Temp\cceMGvY8.s:762    .text.altcp_tcp_nagle_disabled:0000000000000006 .L0 
C:\Users\stapi\AppData\Local\Temp\cceMGvY8.s:763    .text.altcp_tcp_nagle_disabled:0000000000000006 .L0 
C:\Users\stapi\AppData\Local\Temp\cceMGvY8.s:767    .text.altcp_tcp_nagle_disabled:000000000000000a .L0 
C:\Users\stapi\AppData\Local\Temp\cceMGvY8.s:768    .text.altcp_tcp_nagle_disabled:0000000000000012 .L0 
C:\Users\stapi\AppData\Local\Temp\cceMGvY8.s:769    .text.altcp_tcp_nagle_disabled:0000000000000012 .L0 
C:\Users\stapi\AppData\Local\Temp\cceMGvY8.s:774    .text.altcp_tcp_nagle_disabled:0000000000000012 .L0 
C:\Users\stapi\AppData\Local\Temp\cceMGvY8.s:775    .text.altcp_tcp_nagle_disabled:0000000000000012 .L0 
C:\Users\stapi\AppData\Local\Temp\cceMGvY8.s:787    .text.altcp_tcp_nagle_disabled:0000000000000036 .L0 
C:\Users\stapi\AppData\Local\Temp\cceMGvY8.s:788    .text.altcp_tcp_nagle_disabled:0000000000000036 .L0 
C:\Users\stapi\AppData\Local\Temp\cceMGvY8.s:789    .text.altcp_tcp_nagle_disabled:0000000000000036 .L0 
C:\Users\stapi\AppData\Local\Temp\cceMGvY8.s:792    .text.altcp_tcp_nagle_disabled:0000000000000038 .L0 
C:\Users\stapi\AppData\Local\Temp\cceMGvY8.s:793    .text.altcp_tcp_nagle_disabled:0000000000000038 .L0 
C:\Users\stapi\AppData\Local\Temp\cceMGvY8.s:798    .text.altcp_tcp_nagle_disabled:0000000000000038 .L0 
C:\Users\stapi\AppData\Local\Temp\cceMGvY8.s:799    .text.altcp_tcp_nagle_disabled:0000000000000038 .L0 
C:\Users\stapi\AppData\Local\Temp\cceMGvY8.s:800    .text.altcp_tcp_nagle_disabled:0000000000000038 .L0 
C:\Users\stapi\AppData\Local\Temp\cceMGvY8.s:801    .text.altcp_tcp_nagle_disabled:0000000000000038 .L0 
C:\Users\stapi\AppData\Local\Temp\cceMGvY8.s:802    .text.altcp_tcp_nagle_disabled:0000000000000038 .L0 
C:\Users\stapi\AppData\Local\Temp\cceMGvY8.s:803    .text.altcp_tcp_nagle_disabled:0000000000000038 .L0 
C:\Users\stapi\AppData\Local\Temp\cceMGvY8.s:811    .text.altcp_tcp_nagle_disabled:0000000000000042 .L0 
C:\Users\stapi\AppData\Local\Temp\cceMGvY8.s:814    .text.altcp_tcp_nagle_disabled:0000000000000044 .L0 
C:\Users\stapi\AppData\Local\Temp\cceMGvY8.s:815    .text.altcp_tcp_nagle_disabled:0000000000000046 .L0 
C:\Users\stapi\AppData\Local\Temp\cceMGvY8.s:821    .text.altcp_tcp_nagle_enable:0000000000000000 altcp_tcp_nagle_enable
C:\Users\stapi\AppData\Local\Temp\cceMGvY8.s:824    .text.altcp_tcp_nagle_enable:0000000000000000 .L0 
C:\Users\stapi\AppData\Local\Temp\cceMGvY8.s:826    .text.altcp_tcp_nagle_enable:0000000000000000 .L0 
C:\Users\stapi\AppData\Local\Temp\cceMGvY8.s:827    .text.altcp_tcp_nagle_enable:0000000000000000 .L0 
C:\Users\stapi\AppData\Local\Temp\cceMGvY8.s:828    .text.altcp_tcp_nagle_enable:0000000000000000 .L0 
C:\Users\stapi\AppData\Local\Temp\cceMGvY8.s:830    .text.altcp_tcp_nagle_enable:0000000000000002 .L0 
C:\Users\stapi\AppData\Local\Temp\cceMGvY8.s:832    .text.altcp_tcp_nagle_enable:0000000000000004 .L0 
C:\Users\stapi\AppData\Local\Temp\cceMGvY8.s:836    .text.altcp_tcp_nagle_enable:0000000000000006 .L0 
C:\Users\stapi\AppData\Local\Temp\cceMGvY8.s:837    .text.altcp_tcp_nagle_enable:0000000000000006 .L0 
C:\Users\stapi\AppData\Local\Temp\cceMGvY8.s:838    .text.altcp_tcp_nagle_enable:0000000000000006 .L0 
C:\Users\stapi\AppData\Local\Temp\cceMGvY8.s:839    .text.altcp_tcp_nagle_enable:0000000000000006 .L0 
C:\Users\stapi\AppData\Local\Temp\cceMGvY8.s:843    .text.altcp_tcp_nagle_enable:000000000000000a .L0 
C:\Users\stapi\AppData\Local\Temp\cceMGvY8.s:844    .text.altcp_tcp_nagle_enable:0000000000000012 .L0 
C:\Users\stapi\AppData\Local\Temp\cceMGvY8.s:845    .text.altcp_tcp_nagle_enable:0000000000000012 .L0 
C:\Users\stapi\AppData\Local\Temp\cceMGvY8.s:850    .text.altcp_tcp_nagle_enable:0000000000000012 .L0 
C:\Users\stapi\AppData\Local\Temp\cceMGvY8.s:851    .text.altcp_tcp_nagle_enable:0000000000000012 .L0 
C:\Users\stapi\AppData\Local\Temp\cceMGvY8.s:863    .text.altcp_tcp_nagle_enable:0000000000000036 .L0 
C:\Users\stapi\AppData\Local\Temp\cceMGvY8.s:864    .text.altcp_tcp_nagle_enable:0000000000000036 .L0 
C:\Users\stapi\AppData\Local\Temp\cceMGvY8.s:865    .text.altcp_tcp_nagle_enable:0000000000000036 .L0 
C:\Users\stapi\AppData\Local\Temp\cceMGvY8.s:868    .text.altcp_tcp_nagle_enable:0000000000000038 .L0 
C:\Users\stapi\AppData\Local\Temp\cceMGvY8.s:869    .text.altcp_tcp_nagle_enable:0000000000000038 .L0 
C:\Users\stapi\AppData\Local\Temp\cceMGvY8.s:874    .text.altcp_tcp_nagle_enable:0000000000000038 .L0 
C:\Users\stapi\AppData\Local\Temp\cceMGvY8.s:875    .text.altcp_tcp_nagle_enable:0000000000000038 .L0 
C:\Users\stapi\AppData\Local\Temp\cceMGvY8.s:876    .text.altcp_tcp_nagle_enable:0000000000000038 .L0 
C:\Users\stapi\AppData\Local\Temp\cceMGvY8.s:877    .text.altcp_tcp_nagle_enable:0000000000000038 .L0 
C:\Users\stapi\AppData\Local\Temp\cceMGvY8.s:878    .text.altcp_tcp_nagle_enable:0000000000000038 .L0 
C:\Users\stapi\AppData\Local\Temp\cceMGvY8.s:879    .text.altcp_tcp_nagle_enable:0000000000000038 .L0 
C:\Users\stapi\AppData\Local\Temp\cceMGvY8.s:885    .text.altcp_tcp_nagle_enable:0000000000000044 .L0 
C:\Users\stapi\AppData\Local\Temp\cceMGvY8.s:887    .text.altcp_tcp_nagle_enable:0000000000000046 .L0 
C:\Users\stapi\AppData\Local\Temp\cceMGvY8.s:893    .text.altcp_tcp_nagle_disable:0000000000000000 altcp_tcp_nagle_disable
C:\Users\stapi\AppData\Local\Temp\cceMGvY8.s:896    .text.altcp_tcp_nagle_disable:0000000000000000 .L0 
C:\Users\stapi\AppData\Local\Temp\cceMGvY8.s:898    .text.altcp_tcp_nagle_disable:0000000000000000 .L0 
C:\Users\stapi\AppData\Local\Temp\cceMGvY8.s:899    .text.altcp_tcp_nagle_disable:0000000000000000 .L0 
C:\Users\stapi\AppData\Local\Temp\cceMGvY8.s:900    .text.altcp_tcp_nagle_disable:0000000000000000 .L0 
C:\Users\stapi\AppData\Local\Temp\cceMGvY8.s:902    .text.altcp_tcp_nagle_disable:0000000000000002 .L0 
C:\Users\stapi\AppData\Local\Temp\cceMGvY8.s:904    .text.altcp_tcp_nagle_disable:0000000000000004 .L0 
C:\Users\stapi\AppData\Local\Temp\cceMGvY8.s:908    .text.altcp_tcp_nagle_disable:0000000000000006 .L0 
C:\Users\stapi\AppData\Local\Temp\cceMGvY8.s:909    .text.altcp_tcp_nagle_disable:0000000000000006 .L0 
C:\Users\stapi\AppData\Local\Temp\cceMGvY8.s:910    .text.altcp_tcp_nagle_disable:0000000000000006 .L0 
C:\Users\stapi\AppData\Local\Temp\cceMGvY8.s:911    .text.altcp_tcp_nagle_disable:0000000000000006 .L0 
C:\Users\stapi\AppData\Local\Temp\cceMGvY8.s:915    .text.altcp_tcp_nagle_disable:000000000000000a .L0 
C:\Users\stapi\AppData\Local\Temp\cceMGvY8.s:916    .text.altcp_tcp_nagle_disable:0000000000000012 .L0 
C:\Users\stapi\AppData\Local\Temp\cceMGvY8.s:917    .text.altcp_tcp_nagle_disable:0000000000000012 .L0 
C:\Users\stapi\AppData\Local\Temp\cceMGvY8.s:922    .text.altcp_tcp_nagle_disable:0000000000000012 .L0 
C:\Users\stapi\AppData\Local\Temp\cceMGvY8.s:923    .text.altcp_tcp_nagle_disable:0000000000000012 .L0 
C:\Users\stapi\AppData\Local\Temp\cceMGvY8.s:935    .text.altcp_tcp_nagle_disable:0000000000000036 .L0 
C:\Users\stapi\AppData\Local\Temp\cceMGvY8.s:936    .text.altcp_tcp_nagle_disable:0000000000000036 .L0 
C:\Users\stapi\AppData\Local\Temp\cceMGvY8.s:937    .text.altcp_tcp_nagle_disable:0000000000000036 .L0 
C:\Users\stapi\AppData\Local\Temp\cceMGvY8.s:940    .text.altcp_tcp_nagle_disable:0000000000000038 .L0 
C:\Users\stapi\AppData\Local\Temp\cceMGvY8.s:941    .text.altcp_tcp_nagle_disable:0000000000000038 .L0 
C:\Users\stapi\AppData\Local\Temp\cceMGvY8.s:946    .text.altcp_tcp_nagle_disable:0000000000000038 .L0 
C:\Users\stapi\AppData\Local\Temp\cceMGvY8.s:947    .text.altcp_tcp_nagle_disable:0000000000000038 .L0 
C:\Users\stapi\AppData\Local\Temp\cceMGvY8.s:948    .text.altcp_tcp_nagle_disable:0000000000000038 .L0 
C:\Users\stapi\AppData\Local\Temp\cceMGvY8.s:949    .text.altcp_tcp_nagle_disable:0000000000000038 .L0 
C:\Users\stapi\AppData\Local\Temp\cceMGvY8.s:950    .text.altcp_tcp_nagle_disable:0000000000000038 .L0 
C:\Users\stapi\AppData\Local\Temp\cceMGvY8.s:951    .text.altcp_tcp_nagle_disable:0000000000000038 .L0 
C:\Users\stapi\AppData\Local\Temp\cceMGvY8.s:957    .text.altcp_tcp_nagle_disable:0000000000000044 .L0 
C:\Users\stapi\AppData\Local\Temp\cceMGvY8.s:959    .text.altcp_tcp_nagle_disable:0000000000000046 .L0 
C:\Users\stapi\AppData\Local\Temp\cceMGvY8.s:965    .text.altcp_tcp_sndqueuelen:0000000000000000 altcp_tcp_sndqueuelen
C:\Users\stapi\AppData\Local\Temp\cceMGvY8.s:968    .text.altcp_tcp_sndqueuelen:0000000000000000 .L0 
C:\Users\stapi\AppData\Local\Temp\cceMGvY8.s:970    .text.altcp_tcp_sndqueuelen:0000000000000000 .L0 
C:\Users\stapi\AppData\Local\Temp\cceMGvY8.s:971    .text.altcp_tcp_sndqueuelen:0000000000000000 .L0 
C:\Users\stapi\AppData\Local\Temp\cceMGvY8.s:972    .text.altcp_tcp_sndqueuelen:0000000000000000 .L0 
C:\Users\stapi\AppData\Local\Temp\cceMGvY8.s:973    .text.altcp_tcp_sndqueuelen:0000000000000000 .L0 
C:\Users\stapi\AppData\Local\Temp\cceMGvY8.s:975    .text.altcp_tcp_sndqueuelen:0000000000000002 .L0 
C:\Users\stapi\AppData\Local\Temp\cceMGvY8.s:976    .text.altcp_tcp_sndqueuelen:0000000000000002 .L0 
C:\Users\stapi\AppData\Local\Temp\cceMGvY8.s:977    .text.altcp_tcp_sndqueuelen:0000000000000002 .L0 
C:\Users\stapi\AppData\Local\Temp\cceMGvY8.s:980    .text.altcp_tcp_sndqueuelen:0000000000000006 .L0 
C:\Users\stapi\AppData\Local\Temp\cceMGvY8.s:981    .text.altcp_tcp_sndqueuelen:000000000000000e .L0 
C:\Users\stapi\AppData\Local\Temp\cceMGvY8.s:982    .text.altcp_tcp_sndqueuelen:000000000000000e .L0 
C:\Users\stapi\AppData\Local\Temp\cceMGvY8.s:987    .text.altcp_tcp_sndqueuelen:000000000000000e .L0 
C:\Users\stapi\AppData\Local\Temp\cceMGvY8.s:988    .text.altcp_tcp_sndqueuelen:000000000000000e .L0 
C:\Users\stapi\AppData\Local\Temp\cceMGvY8.s:1000   .text.altcp_tcp_sndqueuelen:0000000000000032 .L0 
C:\Users\stapi\AppData\Local\Temp\cceMGvY8.s:1001   .text.altcp_tcp_sndqueuelen:0000000000000032 .L0 
C:\Users\stapi\AppData\Local\Temp\cceMGvY8.s:1002   .text.altcp_tcp_sndqueuelen:0000000000000032 .L0 
C:\Users\stapi\AppData\Local\Temp\cceMGvY8.s:1005   .text.altcp_tcp_sndqueuelen:0000000000000034 .L0 
C:\Users\stapi\AppData\Local\Temp\cceMGvY8.s:1006   .text.altcp_tcp_sndqueuelen:0000000000000034 .L0 
C:\Users\stapi\AppData\Local\Temp\cceMGvY8.s:1010   .text.altcp_tcp_sndqueuelen:0000000000000034 .L0 
C:\Users\stapi\AppData\Local\Temp\cceMGvY8.s:1011   .text.altcp_tcp_sndqueuelen:0000000000000034 .L0 
C:\Users\stapi\AppData\Local\Temp\cceMGvY8.s:1012   .text.altcp_tcp_sndqueuelen:0000000000000034 .L0 
C:\Users\stapi\AppData\Local\Temp\cceMGvY8.s:1013   .text.altcp_tcp_sndqueuelen:0000000000000034 .L0 
C:\Users\stapi\AppData\Local\Temp\cceMGvY8.s:1014   .text.altcp_tcp_sndqueuelen:0000000000000034 .L0 
C:\Users\stapi\AppData\Local\Temp\cceMGvY8.s:1015   .text.altcp_tcp_sndqueuelen:0000000000000034 .L0 
C:\Users\stapi\AppData\Local\Temp\cceMGvY8.s:1016   .text.altcp_tcp_sndqueuelen:0000000000000034 .L0 
C:\Users\stapi\AppData\Local\Temp\cceMGvY8.s:1023   .text.altcp_tcp_sndqueuelen:000000000000003c .L0 
C:\Users\stapi\AppData\Local\Temp\cceMGvY8.s:1026   .text.altcp_tcp_sndqueuelen:000000000000003e .L0 
C:\Users\stapi\AppData\Local\Temp\cceMGvY8.s:1027   .text.altcp_tcp_sndqueuelen:0000000000000040 .L0 
C:\Users\stapi\AppData\Local\Temp\cceMGvY8.s:1033   .text.altcp_tcp_mss:0000000000000000 altcp_tcp_mss
C:\Users\stapi\AppData\Local\Temp\cceMGvY8.s:1036   .text.altcp_tcp_mss:0000000000000000 .L0 
C:\Users\stapi\AppData\Local\Temp\cceMGvY8.s:1038   .text.altcp_tcp_mss:0000000000000000 .L0 
C:\Users\stapi\AppData\Local\Temp\cceMGvY8.s:1039   .text.altcp_tcp_mss:0000000000000000 .L0 
C:\Users\stapi\AppData\Local\Temp\cceMGvY8.s:1040   .text.altcp_tcp_mss:0000000000000000 .L0 
C:\Users\stapi\AppData\Local\Temp\cceMGvY8.s:1041   .text.altcp_tcp_mss:0000000000000000 .L0 
C:\Users\stapi\AppData\Local\Temp\cceMGvY8.s:1043   .text.altcp_tcp_mss:0000000000000002 .L0 
C:\Users\stapi\AppData\Local\Temp\cceMGvY8.s:1044   .text.altcp_tcp_mss:0000000000000002 .L0 
C:\Users\stapi\AppData\Local\Temp\cceMGvY8.s:1045   .text.altcp_tcp_mss:0000000000000002 .L0 
C:\Users\stapi\AppData\Local\Temp\cceMGvY8.s:1048   .text.altcp_tcp_mss:0000000000000006 .L0 
C:\Users\stapi\AppData\Local\Temp\cceMGvY8.s:1049   .text.altcp_tcp_mss:000000000000000e .L0 
C:\Users\stapi\AppData\Local\Temp\cceMGvY8.s:1050   .text.altcp_tcp_mss:000000000000000e .L0 
C:\Users\stapi\AppData\Local\Temp\cceMGvY8.s:1055   .text.altcp_tcp_mss:000000000000000e .L0 
C:\Users\stapi\AppData\Local\Temp\cceMGvY8.s:1056   .text.altcp_tcp_mss:000000000000000e .L0 
C:\Users\stapi\AppData\Local\Temp\cceMGvY8.s:1068   .text.altcp_tcp_mss:0000000000000032 .L0 
C:\Users\stapi\AppData\Local\Temp\cceMGvY8.s:1069   .text.altcp_tcp_mss:0000000000000032 .L0 
C:\Users\stapi\AppData\Local\Temp\cceMGvY8.s:1070   .text.altcp_tcp_mss:0000000000000032 .L0 
C:\Users\stapi\AppData\Local\Temp\cceMGvY8.s:1073   .text.altcp_tcp_mss:0000000000000034 .L0 
C:\Users\stapi\AppData\Local\Temp\cceMGvY8.s:1074   .text.altcp_tcp_mss:0000000000000034 .L0 
C:\Users\stapi\AppData\Local\Temp\cceMGvY8.s:1078   .text.altcp_tcp_mss:0000000000000034 .L0 
C:\Users\stapi\AppData\Local\Temp\cceMGvY8.s:1079   .text.altcp_tcp_mss:0000000000000034 .L0 
C:\Users\stapi\AppData\Local\Temp\cceMGvY8.s:1080   .text.altcp_tcp_mss:0000000000000034 .L0 
C:\Users\stapi\AppData\Local\Temp\cceMGvY8.s:1081   .text.altcp_tcp_mss:0000000000000034 .L0 
C:\Users\stapi\AppData\Local\Temp\cceMGvY8.s:1082   .text.altcp_tcp_mss:0000000000000034 .L0 
C:\Users\stapi\AppData\Local\Temp\cceMGvY8.s:1083   .text.altcp_tcp_mss:0000000000000034 .L0 
C:\Users\stapi\AppData\Local\Temp\cceMGvY8.s:1084   .text.altcp_tcp_mss:0000000000000034 .L0 
C:\Users\stapi\AppData\Local\Temp\cceMGvY8.s:1091   .text.altcp_tcp_mss:000000000000003c .L0 
C:\Users\stapi\AppData\Local\Temp\cceMGvY8.s:1094   .text.altcp_tcp_mss:000000000000003e .L0 
C:\Users\stapi\AppData\Local\Temp\cceMGvY8.s:1095   .text.altcp_tcp_mss:0000000000000040 .L0 
C:\Users\stapi\AppData\Local\Temp\cceMGvY8.s:1101   .text.altcp_tcp_connected:0000000000000000 altcp_tcp_connected
C:\Users\stapi\AppData\Local\Temp\cceMGvY8.s:1104   .text.altcp_tcp_connected:0000000000000000 .L0 
C:\Users\stapi\AppData\Local\Temp\cceMGvY8.s:1106   .text.altcp_tcp_connected:0000000000000000 .L0 
C:\Users\stapi\AppData\Local\Temp\cceMGvY8.s:1107   .text.altcp_tcp_connected:0000000000000000 .L0 
C:\Users\stapi\AppData\Local\Temp\cceMGvY8.s:1108   .text.altcp_tcp_connected:0000000000000000 .L0 
C:\Users\stapi\AppData\Local\Temp\cceMGvY8.s:1109   .text.altcp_tcp_connected:0000000000000000 .L0 
C:\Users\stapi\AppData\Local\Temp\cceMGvY8.s:1111   .text.altcp_tcp_connected:0000000000000002 .L0 
C:\Users\stapi\AppData\Local\Temp\cceMGvY8.s:1112   .text.altcp_tcp_connected:000000000000000a .L0 
C:\Users\stapi\AppData\Local\Temp\cceMGvY8.s:1113   .text.altcp_tcp_connected:000000000000000a .L0 
C:\Users\stapi\AppData\Local\Temp\cceMGvY8.s:1115   .text.altcp_tcp_connected:000000000000000a .L0 
C:\Users\stapi\AppData\Local\Temp\cceMGvY8.s:1118   .text.altcp_tcp_connected:000000000000000e .L0 
C:\Users\stapi\AppData\Local\Temp\cceMGvY8.s:1119   .text.altcp_tcp_connected:000000000000000e .L0 
C:\Users\stapi\AppData\Local\Temp\cceMGvY8.s:1120   .text.altcp_tcp_connected:000000000000000e .L0 
C:\Users\stapi\AppData\Local\Temp\cceMGvY8.s:1122   .text.altcp_tcp_connected:0000000000000012 .L0 
C:\Users\stapi\AppData\Local\Temp\cceMGvY8.s:1123   .text.altcp_tcp_connected:0000000000000012 .L0 
C:\Users\stapi\AppData\Local\Temp\cceMGvY8.s:1137   .text.altcp_tcp_connected:0000000000000036 .L0 
C:\Users\stapi\AppData\Local\Temp\cceMGvY8.s:1138   .text.altcp_tcp_connected:0000000000000036 .L0 
C:\Users\stapi\AppData\Local\Temp\cceMGvY8.s:1139   .text.altcp_tcp_connected:0000000000000036 .L0 
C:\Users\stapi\AppData\Local\Temp\cceMGvY8.s:1143   .text.altcp_tcp_connected:0000000000000038 .L0 
C:\Users\stapi\AppData\Local\Temp\cceMGvY8.s:1144   .text.altcp_tcp_connected:0000000000000038 .L0 
C:\Users\stapi\AppData\Local\Temp\cceMGvY8.s:1145   .text.altcp_tcp_connected:0000000000000038 .L0 
C:\Users\stapi\AppData\Local\Temp\cceMGvY8.s:1146   .text.altcp_tcp_connected:0000000000000038 .L0 
C:\Users\stapi\AppData\Local\Temp\cceMGvY8.s:1147   .text.altcp_tcp_connected:0000000000000038 .L0 
C:\Users\stapi\AppData\Local\Temp\cceMGvY8.s:1148   .text.altcp_tcp_connected:0000000000000038 .L0 
C:\Users\stapi\AppData\Local\Temp\cceMGvY8.s:1151   .text.altcp_tcp_connected:000000000000003c .L0 
C:\Users\stapi\AppData\Local\Temp\cceMGvY8.s:1152   .text.altcp_tcp_connected:000000000000003c .L0 
C:\Users\stapi\AppData\Local\Temp\cceMGvY8.s:1166   .text.altcp_tcp_connected:0000000000000060 .L0 
C:\Users\stapi\AppData\Local\Temp\cceMGvY8.s:1167   .text.altcp_tcp_connected:0000000000000060 .L0 
C:\Users\stapi\AppData\Local\Temp\cceMGvY8.s:1168   .text.altcp_tcp_connected:0000000000000060 .L0 
C:\Users\stapi\AppData\Local\Temp\cceMGvY8.s:1174   .text.altcp_tcp_connected:0000000000000062 .L0 
C:\Users\stapi\AppData\Local\Temp\cceMGvY8.s:1175   .text.altcp_tcp_connected:0000000000000062 .L0 
C:\Users\stapi\AppData\Local\Temp\cceMGvY8.s:1176   .text.altcp_tcp_connected:0000000000000062 .L0 
C:\Users\stapi\AppData\Local\Temp\cceMGvY8.s:1177   .text.altcp_tcp_connected:0000000000000062 .L0 
C:\Users\stapi\AppData\Local\Temp\cceMGvY8.s:1178   .text.altcp_tcp_connected:0000000000000062 .L0 
C:\Users\stapi\AppData\Local\Temp\cceMGvY8.s:1179   .text.altcp_tcp_connected:0000000000000062 .L0 
C:\Users\stapi\AppData\Local\Temp\cceMGvY8.s:1180   .text.altcp_tcp_connected:0000000000000062 .L0 
C:\Users\stapi\AppData\Local\Temp\cceMGvY8.s:1184   .text.altcp_tcp_connected:0000000000000064 .L0 
C:\Users\stapi\AppData\Local\Temp\cceMGvY8.s:1189   .text.altcp_tcp_connected:0000000000000066 .L0 
C:\Users\stapi\AppData\Local\Temp\cceMGvY8.s:1191   .text.altcp_tcp_connected:0000000000000068 .L0 
C:\Users\stapi\AppData\Local\Temp\cceMGvY8.s:1192   .text.altcp_tcp_connected:0000000000000068 .L0 
C:\Users\stapi\AppData\Local\Temp\cceMGvY8.s:1201   .text.altcp_tcp_connected:000000000000006e .L0 
C:\Users\stapi\AppData\Local\Temp\cceMGvY8.s:1202   .text.altcp_tcp_connected:0000000000000076 .L0 
C:\Users\stapi\AppData\Local\Temp\cceMGvY8.s:1203   .text.altcp_tcp_connected:0000000000000076 .L0 
C:\Users\stapi\AppData\Local\Temp\cceMGvY8.s:1207   .text.altcp_tcp_connected:0000000000000076 .L0 
C:\Users\stapi\AppData\Local\Temp\cceMGvY8.s:1210   .text.altcp_tcp_connected:0000000000000078 .L0 
C:\Users\stapi\AppData\Local\Temp\cceMGvY8.s:1211   .text.altcp_tcp_connected:000000000000007a .L0 
C:\Users\stapi\AppData\Local\Temp\cceMGvY8.s:1217   .text.altcp_tcp_poll:0000000000000000 altcp_tcp_poll
C:\Users\stapi\AppData\Local\Temp\cceMGvY8.s:1220   .text.altcp_tcp_poll:0000000000000000 .L0 
C:\Users\stapi\AppData\Local\Temp\cceMGvY8.s:1222   .text.altcp_tcp_poll:0000000000000000 .L0 
C:\Users\stapi\AppData\Local\Temp\cceMGvY8.s:1223   .text.altcp_tcp_poll:0000000000000000 .L0 
C:\Users\stapi\AppData\Local\Temp\cceMGvY8.s:1224   .text.altcp_tcp_poll:0000000000000000 .L0 
C:\Users\stapi\AppData\Local\Temp\cceMGvY8.s:1225   .text.altcp_tcp_poll:0000000000000000 .L0 
C:\Users\stapi\AppData\Local\Temp\cceMGvY8.s:1227   .text.altcp_tcp_poll:0000000000000002 .L0 
C:\Users\stapi\AppData\Local\Temp\cceMGvY8.s:1228   .text.altcp_tcp_poll:000000000000000a .L0 
C:\Users\stapi\AppData\Local\Temp\cceMGvY8.s:1229   .text.altcp_tcp_poll:000000000000000a .L0 
C:\Users\stapi\AppData\Local\Temp\cceMGvY8.s:1231   .text.altcp_tcp_poll:000000000000000a .L0 
C:\Users\stapi\AppData\Local\Temp\cceMGvY8.s:1234   .text.altcp_tcp_poll:000000000000000e .L0 
C:\Users\stapi\AppData\Local\Temp\cceMGvY8.s:1235   .text.altcp_tcp_poll:000000000000000e .L0 
C:\Users\stapi\AppData\Local\Temp\cceMGvY8.s:1236   .text.altcp_tcp_poll:000000000000000e .L0 
C:\Users\stapi\AppData\Local\Temp\cceMGvY8.s:1238   .text.altcp_tcp_poll:0000000000000012 .L0 
C:\Users\stapi\AppData\Local\Temp\cceMGvY8.s:1239   .text.altcp_tcp_poll:0000000000000012 .L0 
C:\Users\stapi\AppData\Local\Temp\cceMGvY8.s:1252   .text.altcp_tcp_poll:0000000000000036 .L0 
C:\Users\stapi\AppData\Local\Temp\cceMGvY8.s:1253   .text.altcp_tcp_poll:0000000000000036 .L0 
C:\Users\stapi\AppData\Local\Temp\cceMGvY8.s:1254   .text.altcp_tcp_poll:0000000000000036 .L0 
C:\Users\stapi\AppData\Local\Temp\cceMGvY8.s:1258   .text.altcp_tcp_poll:0000000000000038 .L0 
C:\Users\stapi\AppData\Local\Temp\cceMGvY8.s:1259   .text.altcp_tcp_poll:0000000000000038 .L0 
C:\Users\stapi\AppData\Local\Temp\cceMGvY8.s:1260   .text.altcp_tcp_poll:0000000000000038 .L0 
C:\Users\stapi\AppData\Local\Temp\cceMGvY8.s:1261   .text.altcp_tcp_poll:0000000000000038 .L0 
C:\Users\stapi\AppData\Local\Temp\cceMGvY8.s:1262   .text.altcp_tcp_poll:0000000000000038 .L0 
C:\Users\stapi\AppData\Local\Temp\cceMGvY8.s:1263   .text.altcp_tcp_poll:0000000000000038 .L0 
C:\Users\stapi\AppData\Local\Temp\cceMGvY8.s:1266   .text.altcp_tcp_poll:000000000000003c .L0 
C:\Users\stapi\AppData\Local\Temp\cceMGvY8.s:1267   .text.altcp_tcp_poll:000000000000003c .L0 
C:\Users\stapi\AppData\Local\Temp\cceMGvY8.s:1280   .text.altcp_tcp_poll:0000000000000060 .L0 
C:\Users\stapi\AppData\Local\Temp\cceMGvY8.s:1281   .text.altcp_tcp_poll:0000000000000060 .L0 
C:\Users\stapi\AppData\Local\Temp\cceMGvY8.s:1282   .text.altcp_tcp_poll:0000000000000060 .L0 
C:\Users\stapi\AppData\Local\Temp\cceMGvY8.s:1288   .text.altcp_tcp_poll:0000000000000062 .L0 
C:\Users\stapi\AppData\Local\Temp\cceMGvY8.s:1289   .text.altcp_tcp_poll:0000000000000062 .L0 
C:\Users\stapi\AppData\Local\Temp\cceMGvY8.s:1290   .text.altcp_tcp_poll:0000000000000062 .L0 
C:\Users\stapi\AppData\Local\Temp\cceMGvY8.s:1291   .text.altcp_tcp_poll:0000000000000062 .L0 
C:\Users\stapi\AppData\Local\Temp\cceMGvY8.s:1292   .text.altcp_tcp_poll:0000000000000062 .L0 
C:\Users\stapi\AppData\Local\Temp\cceMGvY8.s:1293   .text.altcp_tcp_poll:0000000000000062 .L0 
C:\Users\stapi\AppData\Local\Temp\cceMGvY8.s:1294   .text.altcp_tcp_poll:0000000000000062 .L0 
C:\Users\stapi\AppData\Local\Temp\cceMGvY8.s:1298   .text.altcp_tcp_poll:0000000000000064 .L0 
C:\Users\stapi\AppData\Local\Temp\cceMGvY8.s:1303   .text.altcp_tcp_poll:0000000000000066 .L0 
C:\Users\stapi\AppData\Local\Temp\cceMGvY8.s:1305   .text.altcp_tcp_poll:0000000000000068 .L0 
C:\Users\stapi\AppData\Local\Temp\cceMGvY8.s:1306   .text.altcp_tcp_poll:0000000000000068 .L0 
C:\Users\stapi\AppData\Local\Temp\cceMGvY8.s:1315   .text.altcp_tcp_poll:000000000000006e .L0 
C:\Users\stapi\AppData\Local\Temp\cceMGvY8.s:1316   .text.altcp_tcp_poll:0000000000000076 .L0 
C:\Users\stapi\AppData\Local\Temp\cceMGvY8.s:1317   .text.altcp_tcp_poll:0000000000000076 .L0 
C:\Users\stapi\AppData\Local\Temp\cceMGvY8.s:1321   .text.altcp_tcp_poll:0000000000000076 .L0 
C:\Users\stapi\AppData\Local\Temp\cceMGvY8.s:1324   .text.altcp_tcp_poll:0000000000000078 .L0 
C:\Users\stapi\AppData\Local\Temp\cceMGvY8.s:1325   .text.altcp_tcp_poll:000000000000007a .L0 
C:\Users\stapi\AppData\Local\Temp\cceMGvY8.s:1331   .text.altcp_tcp_setprio:0000000000000000 altcp_tcp_setprio
C:\Users\stapi\AppData\Local\Temp\cceMGvY8.s:1334   .text.altcp_tcp_setprio:0000000000000000 .L0 
C:\Users\stapi\AppData\Local\Temp\cceMGvY8.s:1336   .text.altcp_tcp_setprio:0000000000000000 .L0 
C:\Users\stapi\AppData\Local\Temp\cceMGvY8.s:1337   .text.altcp_tcp_setprio:0000000000000000 .L0 
C:\Users\stapi\AppData\Local\Temp\cceMGvY8.s:1338   .text.altcp_tcp_setprio:0000000000000000 .L0 
C:\Users\stapi\AppData\Local\Temp\cceMGvY8.s:1340   .text.altcp_tcp_setprio:0000000000000002 .L0 
C:\Users\stapi\AppData\Local\Temp\cceMGvY8.s:1341   .text.altcp_tcp_setprio:000000000000000a .L0 
C:\Users\stapi\AppData\Local\Temp\cceMGvY8.s:1342   .text.altcp_tcp_setprio:000000000000000a .L0 
C:\Users\stapi\AppData\Local\Temp\cceMGvY8.s:1346   .text.altcp_tcp_setprio:000000000000000a .L0 
C:\Users\stapi\AppData\Local\Temp\cceMGvY8.s:1347   .text.altcp_tcp_setprio:000000000000000a .L0 
C:\Users\stapi\AppData\Local\Temp\cceMGvY8.s:1348   .text.altcp_tcp_setprio:000000000000000a .L0 
C:\Users\stapi\AppData\Local\Temp\cceMGvY8.s:1349   .text.altcp_tcp_setprio:000000000000000a .L0 
C:\Users\stapi\AppData\Local\Temp\cceMGvY8.s:1356   .text.altcp_tcp_setprio:000000000000000e .L0 
C:\Users\stapi\AppData\Local\Temp\cceMGvY8.s:1357   .text.altcp_tcp_setprio:000000000000000e .L0 
C:\Users\stapi\AppData\Local\Temp\cceMGvY8.s:1370   .text.altcp_tcp_setprio:0000000000000032 .L0 
C:\Users\stapi\AppData\Local\Temp\cceMGvY8.s:1371   .text.altcp_tcp_setprio:0000000000000032 .L0 
C:\Users\stapi\AppData\Local\Temp\cceMGvY8.s:1372   .text.altcp_tcp_setprio:0000000000000032 .L0 
C:\Users\stapi\AppData\Local\Temp\cceMGvY8.s:1379   .text.altcp_tcp_setprio:0000000000000034 .L0 
C:\Users\stapi\AppData\Local\Temp\cceMGvY8.s:1380   .text.altcp_tcp_setprio:0000000000000034 .L0 
C:\Users\stapi\AppData\Local\Temp\cceMGvY8.s:1381   .text.altcp_tcp_setprio:0000000000000034 .L0 
C:\Users\stapi\AppData\Local\Temp\cceMGvY8.s:1382   .text.altcp_tcp_setprio:0000000000000034 .L0 
C:\Users\stapi\AppData\Local\Temp\cceMGvY8.s:1383   .text.altcp_tcp_setprio:0000000000000034 .L0 
C:\Users\stapi\AppData\Local\Temp\cceMGvY8.s:1389   .text.altcp_tcp_setprio:000000000000003e .L0 
C:\Users\stapi\AppData\Local\Temp\cceMGvY8.s:1390   .text.altcp_tcp_setprio:0000000000000046 .L0 
C:\Users\stapi\AppData\Local\Temp\cceMGvY8.s:1391   .text.altcp_tcp_setprio:0000000000000046 .L0 
C:\Users\stapi\AppData\Local\Temp\cceMGvY8.s:1395   .text.altcp_tcp_setprio:0000000000000048 .L0 
C:\Users\stapi\AppData\Local\Temp\cceMGvY8.s:1401   .text.altcp_tcp_close:0000000000000000 altcp_tcp_close
C:\Users\stapi\AppData\Local\Temp\cceMGvY8.s:1404   .text.altcp_tcp_close:0000000000000000 .L0 
C:\Users\stapi\AppData\Local\Temp\cceMGvY8.s:1406   .text.altcp_tcp_close:0000000000000000 .L0 
C:\Users\stapi\AppData\Local\Temp\cceMGvY8.s:1407   .text.altcp_tcp_close:0000000000000008 .L0 
C:\Users\stapi\AppData\Local\Temp\cceMGvY8.s:1408   .text.altcp_tcp_close:0000000000000008 .L0 
C:\Users\stapi\AppData\Local\Temp\cceMGvY8.s:1409   .text.altcp_tcp_close:0000000000000008 .L0 
C:\Users\stapi\AppData\Local\Temp\cceMGvY8.s:1410   .text.altcp_tcp_close:0000000000000008 .L0 
C:\Users\stapi\AppData\Local\Temp\cceMGvY8.s:1411   .text.altcp_tcp_close:0000000000000008 .L0 
C:\Users\stapi\AppData\Local\Temp\cceMGvY8.s:1412   .text.altcp_tcp_close:0000000000000008 .L0 
C:\Users\stapi\AppData\Local\Temp\cceMGvY8.s:1414   .text.altcp_tcp_close:0000000000000008 .L0 
C:\Users\stapi\AppData\Local\Temp\cceMGvY8.s:1415   .text.altcp_tcp_close:0000000000000008 .L0 
C:\Users\stapi\AppData\Local\Temp\cceMGvY8.s:1416   .text.altcp_tcp_close:0000000000000008 .L0 
C:\Users\stapi\AppData\Local\Temp\cceMGvY8.s:1418   .text.altcp_tcp_close:000000000000000a .L0 
C:\Users\stapi\AppData\Local\Temp\cceMGvY8.s:1421   .text.altcp_tcp_close:000000000000000e .L0 
C:\Users\stapi\AppData\Local\Temp\cceMGvY8.s:1422   .text.altcp_tcp_close:000000000000000e .L0 
C:\Users\stapi\AppData\Local\Temp\cceMGvY8.s:1423   .text.altcp_tcp_close:000000000000000e .L0 
C:\Users\stapi\AppData\Local\Temp\cceMGvY8.s:1425   .text.altcp_tcp_close:0000000000000010 .L0 
C:\Users\stapi\AppData\Local\Temp\cceMGvY8.s:1426   .text.altcp_tcp_close:0000000000000010 .L0 
C:\Users\stapi\AppData\Local\Temp\cceMGvY8.s:1438   .text.altcp_tcp_close:0000000000000034 .L0 
C:\Users\stapi\AppData\Local\Temp\cceMGvY8.s:1439   .text.altcp_tcp_close:0000000000000034 .L0 
C:\Users\stapi\AppData\Local\Temp\cceMGvY8.s:1440   .text.altcp_tcp_close:0000000000000034 .L0 
C:\Users\stapi\AppData\Local\Temp\cceMGvY8.s:1446   .text.altcp_tcp_close:0000000000000036 .L0 
C:\Users\stapi\AppData\Local\Temp\cceMGvY8.s:1447   .text.altcp_tcp_close:0000000000000036 .L0 
C:\Users\stapi\AppData\Local\Temp\cceMGvY8.s:1448   .text.altcp_tcp_close:0000000000000036 .L0 
C:\Users\stapi\AppData\Local\Temp\cceMGvY8.s:1449   .text.altcp_tcp_close:0000000000000036 .L0 
C:\Users\stapi\AppData\Local\Temp\cceMGvY8.s:1450   .text.altcp_tcp_close:0000000000000036 .L0 
C:\Users\stapi\AppData\Local\Temp\cceMGvY8.s:1451   .text.altcp_tcp_close:0000000000000036 .L0 
C:\Users\stapi\AppData\Local\Temp\cceMGvY8.s:1454   .text.altcp_tcp_close:0000000000000038 .L0 
C:\Users\stapi\AppData\Local\Temp\cceMGvY8.s:1455   .text.altcp_tcp_close:0000000000000038 .L0 
C:\Users\stapi\AppData\Local\Temp\cceMGvY8.s:1458   .text.altcp_tcp_close:000000000000003a .L0 
C:\Users\stapi\AppData\Local\Temp\cceMGvY8.s:1461   .text.altcp_tcp_close:000000000000003a .L0 
C:\Users\stapi\AppData\Local\Temp\cceMGvY8.s:1462   .text.altcp_tcp_close:000000000000003a .L0 
C:\Users\stapi\AppData\Local\Temp\cceMGvY8.s:1467   .text.altcp_tcp_close:000000000000003e .L0 
C:\Users\stapi\AppData\Local\Temp\cceMGvY8.s:1472   .text.altcp_tcp_close:0000000000000042 .L0 
C:\Users\stapi\AppData\Local\Temp\cceMGvY8.s:1473   .text.altcp_tcp_close:0000000000000042 .L0 
C:\Users\stapi\AppData\Local\Temp\cceMGvY8.s:1476   .text.altcp_tcp_close:000000000000004a .L0 
C:\Users\stapi\AppData\Local\Temp\cceMGvY8.s:1481   .text.altcp_tcp_close:0000000000000056 .L0 
C:\Users\stapi\AppData\Local\Temp\cceMGvY8.s:1486   .text.altcp_tcp_close:0000000000000062 .L0 
C:\Users\stapi\AppData\Local\Temp\cceMGvY8.s:1491   .text.altcp_tcp_close:000000000000006e .L0 
C:\Users\stapi\AppData\Local\Temp\cceMGvY8.s:1499   .text.altcp_tcp_close:000000000000007e .L0 
C:\Users\stapi\AppData\Local\Temp\cceMGvY8.s:1500   .text.altcp_tcp_close:000000000000007e .L0 
C:\Users\stapi\AppData\Local\Temp\cceMGvY8.s:1506   .text.altcp_tcp_close:000000000000008a .L0 
C:\Users\stapi\AppData\Local\Temp\cceMGvY8.s:1507   .text.altcp_tcp_close:000000000000008a .L0 
C:\Users\stapi\AppData\Local\Temp\cceMGvY8.s:1509   .text.altcp_tcp_close:000000000000008c .L0 
C:\Users\stapi\AppData\Local\Temp\cceMGvY8.s:1515   .text.altcp_tcp_close:0000000000000098 .L0 
C:\Users\stapi\AppData\Local\Temp\cceMGvY8.s:1525   .text.altcp_tcp_close:00000000000000a8 .L0 
C:\Users\stapi\AppData\Local\Temp\cceMGvY8.s:1526   .text.altcp_tcp_close:00000000000000a8 .L0 
C:\Users\stapi\AppData\Local\Temp\cceMGvY8.s:1528   .text.altcp_tcp_close:00000000000000b2 .L0 
C:\Users\stapi\AppData\Local\Temp\cceMGvY8.s:1529   .text.altcp_tcp_close:00000000000000b2 .L0 
C:\Users\stapi\AppData\Local\Temp\cceMGvY8.s:1530   .text.altcp_tcp_close:00000000000000b2 .L0 
C:\Users\stapi\AppData\Local\Temp\cceMGvY8.s:1531   .text.altcp_tcp_close:00000000000000b2 .L0 
C:\Users\stapi\AppData\Local\Temp\cceMGvY8.s:1532   .text.altcp_tcp_close:00000000000000b2 .L0 
C:\Users\stapi\AppData\Local\Temp\cceMGvY8.s:1533   .text.altcp_tcp_close:00000000000000b2 .L0 
C:\Users\stapi\AppData\Local\Temp\cceMGvY8.s:1534   .text.altcp_tcp_close:00000000000000b2 .L0 
C:\Users\stapi\AppData\Local\Temp\cceMGvY8.s:1537   .text.altcp_tcp_close:00000000000000b2 .L0 
C:\Users\stapi\AppData\Local\Temp\cceMGvY8.s:1542   .text.altcp_tcp_close:00000000000000b2 .L0 
C:\Users\stapi\AppData\Local\Temp\cceMGvY8.s:1543   .text.altcp_tcp_close:00000000000000b2 .L0 
C:\Users\stapi\AppData\Local\Temp\cceMGvY8.s:1548   .text.altcp_tcp_close:00000000000000b6 .L0 
C:\Users\stapi\AppData\Local\Temp\cceMGvY8.s:1552   .text.altcp_tcp_close:00000000000000c0 .L0 
C:\Users\stapi\AppData\Local\Temp\cceMGvY8.s:1553   .text.altcp_tcp_close:00000000000000c0 .L0 
C:\Users\stapi\AppData\Local\Temp\cceMGvY8.s:1560   .text.altcp_tcp_close:00000000000000c4 .L0 
C:\Users\stapi\AppData\Local\Temp\cceMGvY8.s:1562   .text.altcp_tcp_close:00000000000000c8 .L0 
C:\Users\stapi\AppData\Local\Temp\cceMGvY8.s:1568   .text.altcp_tcp_set_poll:0000000000000000 altcp_tcp_set_poll
C:\Users\stapi\AppData\Local\Temp\cceMGvY8.s:1571   .text.altcp_tcp_set_poll:0000000000000000 .L0 
C:\Users\stapi\AppData\Local\Temp\cceMGvY8.s:1573   .text.altcp_tcp_set_poll:0000000000000000 .L0 
C:\Users\stapi\AppData\Local\Temp\cceMGvY8.s:1574   .text.altcp_tcp_set_poll:0000000000000000 .L0 
C:\Users\stapi\AppData\Local\Temp\cceMGvY8.s:1575   .text.altcp_tcp_set_poll:0000000000000000 .L0 
C:\Users\stapi\AppData\Local\Temp\cceMGvY8.s:1577   .text.altcp_tcp_set_poll:0000000000000002 .L0 
C:\Users\stapi\AppData\Local\Temp\cceMGvY8.s:1578   .text.altcp_tcp_set_poll:000000000000000a .L0 
C:\Users\stapi\AppData\Local\Temp\cceMGvY8.s:1579   .text.altcp_tcp_set_poll:000000000000000a .L0 
C:\Users\stapi\AppData\Local\Temp\cceMGvY8.s:1583   .text.altcp_tcp_set_poll:000000000000000a .L0 
C:\Users\stapi\AppData\Local\Temp\cceMGvY8.s:1584   .text.altcp_tcp_set_poll:000000000000000a .L0 
C:\Users\stapi\AppData\Local\Temp\cceMGvY8.s:1585   .text.altcp_tcp_set_poll:000000000000000a .L0 
C:\Users\stapi\AppData\Local\Temp\cceMGvY8.s:1586   .text.altcp_tcp_set_poll:000000000000000a .L0 
C:\Users\stapi\AppData\Local\Temp\cceMGvY8.s:1593   .text.altcp_tcp_set_poll:000000000000000e .L0 
C:\Users\stapi\AppData\Local\Temp\cceMGvY8.s:1594   .text.altcp_tcp_set_poll:000000000000000e .L0 
C:\Users\stapi\AppData\Local\Temp\cceMGvY8.s:1607   .text.altcp_tcp_set_poll:0000000000000032 .L0 
C:\Users\stapi\AppData\Local\Temp\cceMGvY8.s:1608   .text.altcp_tcp_set_poll:0000000000000032 .L0 
C:\Users\stapi\AppData\Local\Temp\cceMGvY8.s:1609   .text.altcp_tcp_set_poll:0000000000000032 .L0 
C:\Users\stapi\AppData\Local\Temp\cceMGvY8.s:1616   .text.altcp_tcp_set_poll:0000000000000034 .L0 
C:\Users\stapi\AppData\Local\Temp\cceMGvY8.s:1620   .text.altcp_tcp_set_poll:0000000000000038 .L0 
C:\Users\stapi\AppData\Local\Temp\cceMGvY8.s:1621   .text.altcp_tcp_set_poll:0000000000000038 .L0 
C:\Users\stapi\AppData\Local\Temp\cceMGvY8.s:1622   .text.altcp_tcp_set_poll:0000000000000038 .L0 
C:\Users\stapi\AppData\Local\Temp\cceMGvY8.s:1623   .text.altcp_tcp_set_poll:0000000000000038 .L0 
C:\Users\stapi\AppData\Local\Temp\cceMGvY8.s:1624   .text.altcp_tcp_set_poll:0000000000000038 .L0 
C:\Users\stapi\AppData\Local\Temp\cceMGvY8.s:1631   .text.altcp_tcp_set_poll:0000000000000048 .L0 
C:\Users\stapi\AppData\Local\Temp\cceMGvY8.s:1632   .text.altcp_tcp_set_poll:0000000000000050 .L0 
C:\Users\stapi\AppData\Local\Temp\cceMGvY8.s:1633   .text.altcp_tcp_set_poll:0000000000000050 .L0 
C:\Users\stapi\AppData\Local\Temp\cceMGvY8.s:1637   .text.altcp_tcp_set_poll:0000000000000052 .L0 
C:\Users\stapi\AppData\Local\Temp\cceMGvY8.s:1643   .text.altcp_tcp_abort:0000000000000000 altcp_tcp_abort
C:\Users\stapi\AppData\Local\Temp\cceMGvY8.s:1646   .text.altcp_tcp_abort:0000000000000000 .L0 
C:\Users\stapi\AppData\Local\Temp\cceMGvY8.s:1648   .text.altcp_tcp_abort:0000000000000000 .L0 
C:\Users\stapi\AppData\Local\Temp\cceMGvY8.s:1649   .text.altcp_tcp_abort:0000000000000000 .L0 
C:\Users\stapi\AppData\Local\Temp\cceMGvY8.s:1650   .text.altcp_tcp_abort:0000000000000000 .L0 
C:\Users\stapi\AppData\Local\Temp\cceMGvY8.s:1652   .text.altcp_tcp_abort:0000000000000002 .L0 
C:\Users\stapi\AppData\Local\Temp\cceMGvY8.s:1653   .text.altcp_tcp_abort:000000000000000a .L0 
C:\Users\stapi\AppData\Local\Temp\cceMGvY8.s:1654   .text.altcp_tcp_abort:000000000000000a .L0 
C:\Users\stapi\AppData\Local\Temp\cceMGvY8.s:1658   .text.altcp_tcp_abort:000000000000000a .L0 
C:\Users\stapi\AppData\Local\Temp\cceMGvY8.s:1659   .text.altcp_tcp_abort:000000000000000a .L0 
C:\Users\stapi\AppData\Local\Temp\cceMGvY8.s:1660   .text.altcp_tcp_abort:000000000000000a .L0 
C:\Users\stapi\AppData\Local\Temp\cceMGvY8.s:1661   .text.altcp_tcp_abort:000000000000000a .L0 
C:\Users\stapi\AppData\Local\Temp\cceMGvY8.s:1668   .text.altcp_tcp_abort:000000000000000e .L0 
C:\Users\stapi\AppData\Local\Temp\cceMGvY8.s:1669   .text.altcp_tcp_abort:000000000000000e .L0 
C:\Users\stapi\AppData\Local\Temp\cceMGvY8.s:1681   .text.altcp_tcp_abort:0000000000000032 .L0 
C:\Users\stapi\AppData\Local\Temp\cceMGvY8.s:1682   .text.altcp_tcp_abort:0000000000000032 .L0 
C:\Users\stapi\AppData\Local\Temp\cceMGvY8.s:1683   .text.altcp_tcp_abort:0000000000000032 .L0 
C:\Users\stapi\AppData\Local\Temp\cceMGvY8.s:1690   .text.altcp_tcp_abort:0000000000000034 .L0 
C:\Users\stapi\AppData\Local\Temp\cceMGvY8.s:1693   .text.altcp_tcp_abort:0000000000000036 .L0 
C:\Users\stapi\AppData\Local\Temp\cceMGvY8.s:1694   .text.altcp_tcp_abort:0000000000000036 .L0 
C:\Users\stapi\AppData\Local\Temp\cceMGvY8.s:1695   .text.altcp_tcp_abort:0000000000000036 .L0 
C:\Users\stapi\AppData\Local\Temp\cceMGvY8.s:1696   .text.altcp_tcp_abort:0000000000000036 .L0 
C:\Users\stapi\AppData\Local\Temp\cceMGvY8.s:1697   .text.altcp_tcp_abort:0000000000000036 .L0 
C:\Users\stapi\AppData\Local\Temp\cceMGvY8.s:1698   .text.altcp_tcp_abort:0000000000000036 .L0 
C:\Users\stapi\AppData\Local\Temp\cceMGvY8.s:1700   .text.altcp_tcp_abort:0000000000000038 .L0 
C:\Users\stapi\AppData\Local\Temp\cceMGvY8.s:1705   .text.altcp_tcp_abort:0000000000000040 .L0 
C:\Users\stapi\AppData\Local\Temp\cceMGvY8.s:1706   .text.altcp_tcp_abort:0000000000000048 .L0 
C:\Users\stapi\AppData\Local\Temp\cceMGvY8.s:1707   .text.altcp_tcp_abort:0000000000000048 .L0 
C:\Users\stapi\AppData\Local\Temp\cceMGvY8.s:1711   .text.altcp_tcp_abort:000000000000004a .L0 
C:\Users\stapi\AppData\Local\Temp\cceMGvY8.s:1717   .text.altcp_tcp_listen:0000000000000000 altcp_tcp_listen
C:\Users\stapi\AppData\Local\Temp\cceMGvY8.s:1720   .text.altcp_tcp_listen:0000000000000000 .L0 
C:\Users\stapi\AppData\Local\Temp\cceMGvY8.s:1722   .text.altcp_tcp_listen:0000000000000000 .L0 
C:\Users\stapi\AppData\Local\Temp\cceMGvY8.s:1723   .text.altcp_tcp_listen:0000000000000008 .L0 
C:\Users\stapi\AppData\Local\Temp\cceMGvY8.s:1724   .text.altcp_tcp_listen:0000000000000008 .L0 
C:\Users\stapi\AppData\Local\Temp\cceMGvY8.s:1725   .text.altcp_tcp_listen:0000000000000008 .L0 
C:\Users\stapi\AppData\Local\Temp\cceMGvY8.s:1727   .text.altcp_tcp_listen:0000000000000008 .L0 
C:\Users\stapi\AppData\Local\Temp\cceMGvY8.s:1728   .text.altcp_tcp_listen:0000000000000008 .L0 
C:\Users\stapi\AppData\Local\Temp\cceMGvY8.s:1729   .text.altcp_tcp_listen:0000000000000008 .L0 
C:\Users\stapi\AppData\Local\Temp\cceMGvY8.s:1730   .text.altcp_tcp_listen:0000000000000008 .L0 
C:\Users\stapi\AppData\Local\Temp\cceMGvY8.s:1734   .text.altcp_tcp_listen:000000000000000a .L0 
C:\Users\stapi\AppData\Local\Temp\cceMGvY8.s:1737   .text.altcp_tcp_listen:000000000000000c .L0 
C:\Users\stapi\AppData\Local\Temp\cceMGvY8.s:1739   .text.altcp_tcp_listen:0000000000000016 .L0 
C:\Users\stapi\AppData\Local\Temp\cceMGvY8.s:1740   .text.altcp_tcp_listen:0000000000000016 .L0 
C:\Users\stapi\AppData\Local\Temp\cceMGvY8.s:1741   .text.altcp_tcp_listen:0000000000000016 .L0 
C:\Users\stapi\AppData\Local\Temp\cceMGvY8.s:1742   .text.altcp_tcp_listen:0000000000000016 .L0 
C:\Users\stapi\AppData\Local\Temp\cceMGvY8.s:1745   .text.altcp_tcp_listen:0000000000000016 .L0 
C:\Users\stapi\AppData\Local\Temp\cceMGvY8.s:1747   .text.altcp_tcp_listen:0000000000000016 .L0 
C:\Users\stapi\AppData\Local\Temp\cceMGvY8.s:1750   .text.altcp_tcp_listen:000000000000001a .L0 
C:\Users\stapi\AppData\Local\Temp\cceMGvY8.s:1751   .text.altcp_tcp_listen:000000000000001a .L0 
C:\Users\stapi\AppData\Local\Temp\cceMGvY8.s:1752   .text.altcp_tcp_listen:000000000000001a .L0 
C:\Users\stapi\AppData\Local\Temp\cceMGvY8.s:1755   .text.altcp_tcp_listen:000000000000001c .L0 
C:\Users\stapi\AppData\Local\Temp\cceMGvY8.s:1756   .text.altcp_tcp_listen:000000000000001c .L0 
C:\Users\stapi\AppData\Local\Temp\cceMGvY8.s:1769   .text.altcp_tcp_listen:0000000000000040 .L0 
C:\Users\stapi\AppData\Local\Temp\cceMGvY8.s:1770   .text.altcp_tcp_listen:0000000000000040 .L0 
C:\Users\stapi\AppData\Local\Temp\cceMGvY8.s:1771   .text.altcp_tcp_listen:0000000000000040 .L0 
C:\Users\stapi\AppData\Local\Temp\cceMGvY8.s:1777   .text.altcp_tcp_listen:0000000000000042 .L0 
C:\Users\stapi\AppData\Local\Temp\cceMGvY8.s:1778   .text.altcp_tcp_listen:0000000000000042 .L0 
C:\Users\stapi\AppData\Local\Temp\cceMGvY8.s:1779   .text.altcp_tcp_listen:0000000000000042 .L0 
C:\Users\stapi\AppData\Local\Temp\cceMGvY8.s:1780   .text.altcp_tcp_listen:0000000000000042 .L0 
C:\Users\stapi\AppData\Local\Temp\cceMGvY8.s:1781   .text.altcp_tcp_listen:0000000000000042 .L0 
C:\Users\stapi\AppData\Local\Temp\cceMGvY8.s:1782   .text.altcp_tcp_listen:0000000000000042 .L0 
C:\Users\stapi\AppData\Local\Temp\cceMGvY8.s:1783   .text.altcp_tcp_listen:0000000000000042 .L0 
C:\Users\stapi\AppData\Local\Temp\cceMGvY8.s:1787   .text.altcp_tcp_listen:000000000000004c .L0 
C:\Users\stapi\AppData\Local\Temp\cceMGvY8.s:1788   .text.altcp_tcp_listen:000000000000004c .L0 
C:\Users\stapi\AppData\Local\Temp\cceMGvY8.s:1790   .text.altcp_tcp_listen:000000000000004e .L0 
C:\Users\stapi\AppData\Local\Temp\cceMGvY8.s:1791   .text.altcp_tcp_listen:000000000000004e .L0 
C:\Users\stapi\AppData\Local\Temp\cceMGvY8.s:1793   .text.altcp_tcp_listen:0000000000000052 .L0 
C:\Users\stapi\AppData\Local\Temp\cceMGvY8.s:1795   .text.altcp_tcp_listen:0000000000000054 .L0 
C:\Users\stapi\AppData\Local\Temp\cceMGvY8.s:1799   .text.altcp_tcp_listen:0000000000000060 .L0 
C:\Users\stapi\AppData\Local\Temp\cceMGvY8.s:1800   .text.altcp_tcp_listen:0000000000000060 .L0 
C:\Users\stapi\AppData\Local\Temp\cceMGvY8.s:1803   .text.altcp_tcp_listen:0000000000000062 .L0 
C:\Users\stapi\AppData\Local\Temp\cceMGvY8.s:1809   .text.altcp_tcp_connect:0000000000000000 altcp_tcp_connect
C:\Users\stapi\AppData\Local\Temp\cceMGvY8.s:1812   .text.altcp_tcp_connect:0000000000000000 .L0 
C:\Users\stapi\AppData\Local\Temp\cceMGvY8.s:1814   .text.altcp_tcp_connect:0000000000000000 .L0 
C:\Users\stapi\AppData\Local\Temp\cceMGvY8.s:1815   .text.altcp_tcp_connect:0000000000000000 .L0 
C:\Users\stapi\AppData\Local\Temp\cceMGvY8.s:1816   .text.altcp_tcp_connect:0000000000000000 .L0 
C:\Users\stapi\AppData\Local\Temp\cceMGvY8.s:1817   .text.altcp_tcp_connect:0000000000000000 .L0 
C:\Users\stapi\AppData\Local\Temp\cceMGvY8.s:1819   .text.altcp_tcp_connect:0000000000000002 .L0 
C:\Users\stapi\AppData\Local\Temp\cceMGvY8.s:1820   .text.altcp_tcp_connect:000000000000000a .L0 
C:\Users\stapi\AppData\Local\Temp\cceMGvY8.s:1821   .text.altcp_tcp_connect:000000000000000a .L0 
C:\Users\stapi\AppData\Local\Temp\cceMGvY8.s:1823   .text.altcp_tcp_connect:000000000000000a .L0 
C:\Users\stapi\AppData\Local\Temp\cceMGvY8.s:1824   .text.altcp_tcp_connect:000000000000000a .L0 
C:\Users\stapi\AppData\Local\Temp\cceMGvY8.s:1825   .text.altcp_tcp_connect:000000000000000a .L0 
C:\Users\stapi\AppData\Local\Temp\cceMGvY8.s:1828   .text.altcp_tcp_connect:000000000000000e .L0 
C:\Users\stapi\AppData\Local\Temp\cceMGvY8.s:1829   .text.altcp_tcp_connect:000000000000000e .L0 
C:\Users\stapi\AppData\Local\Temp\cceMGvY8.s:1844   .text.altcp_tcp_connect:0000000000000032 .L0 
C:\Users\stapi\AppData\Local\Temp\cceMGvY8.s:1845   .text.altcp_tcp_connect:0000000000000032 .L0 
C:\Users\stapi\AppData\Local\Temp\cceMGvY8.s:1846   .text.altcp_tcp_connect:0000000000000032 .L0 
C:\Users\stapi\AppData\Local\Temp\cceMGvY8.s:1852   .text.altcp_tcp_connect:0000000000000034 .L0 
C:\Users\stapi\AppData\Local\Temp\cceMGvY8.s:1853   .text.altcp_tcp_connect:0000000000000034 .L0 
C:\Users\stapi\AppData\Local\Temp\cceMGvY8.s:1854   .text.altcp_tcp_connect:0000000000000034 .L0 
C:\Users\stapi\AppData\Local\Temp\cceMGvY8.s:1855   .text.altcp_tcp_connect:0000000000000034 .L0 
C:\Users\stapi\AppData\Local\Temp\cceMGvY8.s:1856   .text.altcp_tcp_connect:0000000000000034 .L0 
C:\Users\stapi\AppData\Local\Temp\cceMGvY8.s:1857   .text.altcp_tcp_connect:0000000000000034 .L0 
C:\Users\stapi\AppData\Local\Temp\cceMGvY8.s:1860   .text.altcp_tcp_connect:0000000000000036 .L0 
C:\Users\stapi\AppData\Local\Temp\cceMGvY8.s:1861   .text.altcp_tcp_connect:0000000000000036 .L0 
C:\Users\stapi\AppData\Local\Temp\cceMGvY8.s:1862   .text.altcp_tcp_connect:0000000000000036 .L0 
C:\Users\stapi\AppData\Local\Temp\cceMGvY8.s:1872   .text.altcp_tcp_connect:0000000000000048 .L0 
C:\Users\stapi\AppData\Local\Temp\cceMGvY8.s:1873   .text.altcp_tcp_connect:0000000000000050 .L0 
C:\Users\stapi\AppData\Local\Temp\cceMGvY8.s:1874   .text.altcp_tcp_connect:0000000000000050 .L0 
C:\Users\stapi\AppData\Local\Temp\cceMGvY8.s:1878   .text.altcp_tcp_connect:0000000000000050 .L0 
C:\Users\stapi\AppData\Local\Temp\cceMGvY8.s:1881   .text.altcp_tcp_connect:0000000000000052 .L0 
C:\Users\stapi\AppData\Local\Temp\cceMGvY8.s:1882   .text.altcp_tcp_connect:0000000000000054 .L0 
C:\Users\stapi\AppData\Local\Temp\cceMGvY8.s:1888   .text.altcp_tcp_recved:0000000000000000 altcp_tcp_recved
C:\Users\stapi\AppData\Local\Temp\cceMGvY8.s:1891   .text.altcp_tcp_recved:0000000000000000 .L0 
C:\Users\stapi\AppData\Local\Temp\cceMGvY8.s:1893   .text.altcp_tcp_recved:0000000000000000 .L0 
C:\Users\stapi\AppData\Local\Temp\cceMGvY8.s:1894   .text.altcp_tcp_recved:0000000000000000 .L0 
C:\Users\stapi\AppData\Local\Temp\cceMGvY8.s:1895   .text.altcp_tcp_recved:0000000000000000 .L0 
C:\Users\stapi\AppData\Local\Temp\cceMGvY8.s:1897   .text.altcp_tcp_recved:0000000000000002 .L0 
C:\Users\stapi\AppData\Local\Temp\cceMGvY8.s:1898   .text.altcp_tcp_recved:000000000000000a .L0 
C:\Users\stapi\AppData\Local\Temp\cceMGvY8.s:1899   .text.altcp_tcp_recved:000000000000000a .L0 
C:\Users\stapi\AppData\Local\Temp\cceMGvY8.s:1903   .text.altcp_tcp_recved:000000000000000a .L0 
C:\Users\stapi\AppData\Local\Temp\cceMGvY8.s:1904   .text.altcp_tcp_recved:000000000000000a .L0 
C:\Users\stapi\AppData\Local\Temp\cceMGvY8.s:1905   .text.altcp_tcp_recved:000000000000000a .L0 
C:\Users\stapi\AppData\Local\Temp\cceMGvY8.s:1906   .text.altcp_tcp_recved:000000000000000a .L0 
C:\Users\stapi\AppData\Local\Temp\cceMGvY8.s:1913   .text.altcp_tcp_recved:000000000000000e .L0 
C:\Users\stapi\AppData\Local\Temp\cceMGvY8.s:1914   .text.altcp_tcp_recved:000000000000000e .L0 
C:\Users\stapi\AppData\Local\Temp\cceMGvY8.s:1927   .text.altcp_tcp_recved:0000000000000032 .L0 
C:\Users\stapi\AppData\Local\Temp\cceMGvY8.s:1928   .text.altcp_tcp_recved:0000000000000032 .L0 
C:\Users\stapi\AppData\Local\Temp\cceMGvY8.s:1929   .text.altcp_tcp_recved:0000000000000032 .L0 
C:\Users\stapi\AppData\Local\Temp\cceMGvY8.s:1936   .text.altcp_tcp_recved:0000000000000034 .L0 
C:\Users\stapi\AppData\Local\Temp\cceMGvY8.s:1937   .text.altcp_tcp_recved:0000000000000034 .L0 
C:\Users\stapi\AppData\Local\Temp\cceMGvY8.s:1938   .text.altcp_tcp_recved:0000000000000034 .L0 
C:\Users\stapi\AppData\Local\Temp\cceMGvY8.s:1939   .text.altcp_tcp_recved:0000000000000034 .L0 
C:\Users\stapi\AppData\Local\Temp\cceMGvY8.s:1940   .text.altcp_tcp_recved:0000000000000034 .L0 
C:\Users\stapi\AppData\Local\Temp\cceMGvY8.s:1946   .text.altcp_tcp_recved:000000000000003e .L0 
C:\Users\stapi\AppData\Local\Temp\cceMGvY8.s:1947   .text.altcp_tcp_recved:0000000000000046 .L0 
C:\Users\stapi\AppData\Local\Temp\cceMGvY8.s:1948   .text.altcp_tcp_recved:0000000000000046 .L0 
C:\Users\stapi\AppData\Local\Temp\cceMGvY8.s:1952   .text.altcp_tcp_recved:0000000000000048 .L0 
C:\Users\stapi\AppData\Local\Temp\cceMGvY8.s:1958   .text.altcp_tcp_bind:0000000000000000 altcp_tcp_bind
C:\Users\stapi\AppData\Local\Temp\cceMGvY8.s:1961   .text.altcp_tcp_bind:0000000000000000 .L0 
C:\Users\stapi\AppData\Local\Temp\cceMGvY8.s:1963   .text.altcp_tcp_bind:0000000000000000 .L0 
C:\Users\stapi\AppData\Local\Temp\cceMGvY8.s:1964   .text.altcp_tcp_bind:0000000000000000 .L0 
C:\Users\stapi\AppData\Local\Temp\cceMGvY8.s:1965   .text.altcp_tcp_bind:0000000000000000 .L0 
C:\Users\stapi\AppData\Local\Temp\cceMGvY8.s:1966   .text.altcp_tcp_bind:0000000000000000 .L0 
C:\Users\stapi\AppData\Local\Temp\cceMGvY8.s:1968   .text.altcp_tcp_bind:0000000000000002 .L0 
C:\Users\stapi\AppData\Local\Temp\cceMGvY8.s:1969   .text.altcp_tcp_bind:000000000000000a .L0 
C:\Users\stapi\AppData\Local\Temp\cceMGvY8.s:1970   .text.altcp_tcp_bind:000000000000000a .L0 
C:\Users\stapi\AppData\Local\Temp\cceMGvY8.s:1972   .text.altcp_tcp_bind:000000000000000a .L0 
C:\Users\stapi\AppData\Local\Temp\cceMGvY8.s:1973   .text.altcp_tcp_bind:000000000000000a .L0 
C:\Users\stapi\AppData\Local\Temp\cceMGvY8.s:1974   .text.altcp_tcp_bind:000000000000000a .L0 
C:\Users\stapi\AppData\Local\Temp\cceMGvY8.s:1977   .text.altcp_tcp_bind:000000000000000e .L0 
C:\Users\stapi\AppData\Local\Temp\cceMGvY8.s:1978   .text.altcp_tcp_bind:000000000000000e .L0 
C:\Users\stapi\AppData\Local\Temp\cceMGvY8.s:1992   .text.altcp_tcp_bind:0000000000000032 .L0 
C:\Users\stapi\AppData\Local\Temp\cceMGvY8.s:1993   .text.altcp_tcp_bind:0000000000000032 .L0 
C:\Users\stapi\AppData\Local\Temp\cceMGvY8.s:1994   .text.altcp_tcp_bind:0000000000000032 .L0 
C:\Users\stapi\AppData\Local\Temp\cceMGvY8.s:2000   .text.altcp_tcp_bind:0000000000000034 .L0 
C:\Users\stapi\AppData\Local\Temp\cceMGvY8.s:2001   .text.altcp_tcp_bind:0000000000000034 .L0 
C:\Users\stapi\AppData\Local\Temp\cceMGvY8.s:2002   .text.altcp_tcp_bind:0000000000000034 .L0 
C:\Users\stapi\AppData\Local\Temp\cceMGvY8.s:2003   .text.altcp_tcp_bind:0000000000000034 .L0 
C:\Users\stapi\AppData\Local\Temp\cceMGvY8.s:2004   .text.altcp_tcp_bind:0000000000000034 .L0 
C:\Users\stapi\AppData\Local\Temp\cceMGvY8.s:2005   .text.altcp_tcp_bind:0000000000000034 .L0 
C:\Users\stapi\AppData\Local\Temp\cceMGvY8.s:2006   .text.altcp_tcp_bind:0000000000000034 .L0 
C:\Users\stapi\AppData\Local\Temp\cceMGvY8.s:2013   .text.altcp_tcp_bind:000000000000003e .L0 
C:\Users\stapi\AppData\Local\Temp\cceMGvY8.s:2014   .text.altcp_tcp_bind:0000000000000046 .L0 
C:\Users\stapi\AppData\Local\Temp\cceMGvY8.s:2015   .text.altcp_tcp_bind:0000000000000046 .L0 
C:\Users\stapi\AppData\Local\Temp\cceMGvY8.s:2019   .text.altcp_tcp_bind:0000000000000046 .L0 
C:\Users\stapi\AppData\Local\Temp\cceMGvY8.s:2022   .text.altcp_tcp_bind:0000000000000048 .L0 
C:\Users\stapi\AppData\Local\Temp\cceMGvY8.s:2023   .text.altcp_tcp_bind:000000000000004a .L0 
C:\Users\stapi\AppData\Local\Temp\cceMGvY8.s:2029   .text.altcp_tcp_shutdown:0000000000000000 altcp_tcp_shutdown
C:\Users\stapi\AppData\Local\Temp\cceMGvY8.s:2032   .text.altcp_tcp_shutdown:0000000000000000 .L0 
C:\Users\stapi\AppData\Local\Temp\cceMGvY8.s:2034   .text.altcp_tcp_shutdown:0000000000000000 .L0 
C:\Users\stapi\AppData\Local\Temp\cceMGvY8.s:2035   .text.altcp_tcp_shutdown:0000000000000000 .L0 
C:\Users\stapi\AppData\Local\Temp\cceMGvY8.s:2036   .text.altcp_tcp_shutdown:0000000000000000 .L0 
C:\Users\stapi\AppData\Local\Temp\cceMGvY8.s:2037   .text.altcp_tcp_shutdown:0000000000000000 .L0 
C:\Users\stapi\AppData\Local\Temp\cceMGvY8.s:2039   .text.altcp_tcp_shutdown:0000000000000002 .L0 
C:\Users\stapi\AppData\Local\Temp\cceMGvY8.s:2040   .text.altcp_tcp_shutdown:000000000000000a .L0 
C:\Users\stapi\AppData\Local\Temp\cceMGvY8.s:2041   .text.altcp_tcp_shutdown:000000000000000a .L0 
C:\Users\stapi\AppData\Local\Temp\cceMGvY8.s:2043   .text.altcp_tcp_shutdown:000000000000000a .L0 
C:\Users\stapi\AppData\Local\Temp\cceMGvY8.s:2044   .text.altcp_tcp_shutdown:000000000000000a .L0 
C:\Users\stapi\AppData\Local\Temp\cceMGvY8.s:2045   .text.altcp_tcp_shutdown:000000000000000a .L0 
C:\Users\stapi\AppData\Local\Temp\cceMGvY8.s:2048   .text.altcp_tcp_shutdown:000000000000000e .L0 
C:\Users\stapi\AppData\Local\Temp\cceMGvY8.s:2049   .text.altcp_tcp_shutdown:000000000000000e .L0 
C:\Users\stapi\AppData\Local\Temp\cceMGvY8.s:2063   .text.altcp_tcp_shutdown:0000000000000032 .L0 
C:\Users\stapi\AppData\Local\Temp\cceMGvY8.s:2064   .text.altcp_tcp_shutdown:0000000000000032 .L0 
C:\Users\stapi\AppData\Local\Temp\cceMGvY8.s:2065   .text.altcp_tcp_shutdown:0000000000000032 .L0 
C:\Users\stapi\AppData\Local\Temp\cceMGvY8.s:2071   .text.altcp_tcp_shutdown:0000000000000034 .L0 
C:\Users\stapi\AppData\Local\Temp\cceMGvY8.s:2072   .text.altcp_tcp_shutdown:0000000000000034 .L0 
C:\Users\stapi\AppData\Local\Temp\cceMGvY8.s:2073   .text.altcp_tcp_shutdown:0000000000000034 .L0 
C:\Users\stapi\AppData\Local\Temp\cceMGvY8.s:2074   .text.altcp_tcp_shutdown:0000000000000034 .L0 
C:\Users\stapi\AppData\Local\Temp\cceMGvY8.s:2075   .text.altcp_tcp_shutdown:0000000000000034 .L0 
C:\Users\stapi\AppData\Local\Temp\cceMGvY8.s:2076   .text.altcp_tcp_shutdown:0000000000000034 .L0 
C:\Users\stapi\AppData\Local\Temp\cceMGvY8.s:2077   .text.altcp_tcp_shutdown:0000000000000034 .L0 
C:\Users\stapi\AppData\Local\Temp\cceMGvY8.s:2084   .text.altcp_tcp_shutdown:000000000000003e .L0 
C:\Users\stapi\AppData\Local\Temp\cceMGvY8.s:2085   .text.altcp_tcp_shutdown:0000000000000046 .L0 
C:\Users\stapi\AppData\Local\Temp\cceMGvY8.s:2086   .text.altcp_tcp_shutdown:0000000000000046 .L0 
C:\Users\stapi\AppData\Local\Temp\cceMGvY8.s:2090   .text.altcp_tcp_shutdown:0000000000000046 .L0 
C:\Users\stapi\AppData\Local\Temp\cceMGvY8.s:2093   .text.altcp_tcp_shutdown:0000000000000048 .L0 
C:\Users\stapi\AppData\Local\Temp\cceMGvY8.s:2094   .text.altcp_tcp_shutdown:000000000000004a .L0 
C:\Users\stapi\AppData\Local\Temp\cceMGvY8.s:2100   .text.altcp_tcp_write:0000000000000000 altcp_tcp_write
C:\Users\stapi\AppData\Local\Temp\cceMGvY8.s:2103   .text.altcp_tcp_write:0000000000000000 .L0 
C:\Users\stapi\AppData\Local\Temp\cceMGvY8.s:2105   .text.altcp_tcp_write:0000000000000000 .L0 
C:\Users\stapi\AppData\Local\Temp\cceMGvY8.s:2106   .text.altcp_tcp_write:0000000000000000 .L0 
C:\Users\stapi\AppData\Local\Temp\cceMGvY8.s:2107   .text.altcp_tcp_write:0000000000000000 .L0 
C:\Users\stapi\AppData\Local\Temp\cceMGvY8.s:2108   .text.altcp_tcp_write:0000000000000000 .L0 
C:\Users\stapi\AppData\Local\Temp\cceMGvY8.s:2110   .text.altcp_tcp_write:0000000000000002 .L0 
C:\Users\stapi\AppData\Local\Temp\cceMGvY8.s:2111   .text.altcp_tcp_write:000000000000000a .L0 
C:\Users\stapi\AppData\Local\Temp\cceMGvY8.s:2112   .text.altcp_tcp_write:000000000000000a .L0 
C:\Users\stapi\AppData\Local\Temp\cceMGvY8.s:2114   .text.altcp_tcp_write:000000000000000a .L0 
C:\Users\stapi\AppData\Local\Temp\cceMGvY8.s:2115   .text.altcp_tcp_write:000000000000000a .L0 
C:\Users\stapi\AppData\Local\Temp\cceMGvY8.s:2116   .text.altcp_tcp_write:000000000000000a .L0 
C:\Users\stapi\AppData\Local\Temp\cceMGvY8.s:2119   .text.altcp_tcp_write:000000000000000e .L0 
C:\Users\stapi\AppData\Local\Temp\cceMGvY8.s:2120   .text.altcp_tcp_write:000000000000000e .L0 
C:\Users\stapi\AppData\Local\Temp\cceMGvY8.s:2135   .text.altcp_tcp_write:0000000000000032 .L0 
C:\Users\stapi\AppData\Local\Temp\cceMGvY8.s:2136   .text.altcp_tcp_write:0000000000000032 .L0 
C:\Users\stapi\AppData\Local\Temp\cceMGvY8.s:2137   .text.altcp_tcp_write:0000000000000032 .L0 
C:\Users\stapi\AppData\Local\Temp\cceMGvY8.s:2143   .text.altcp_tcp_write:0000000000000034 .L0 
C:\Users\stapi\AppData\Local\Temp\cceMGvY8.s:2144   .text.altcp_tcp_write:0000000000000034 .L0 
C:\Users\stapi\AppData\Local\Temp\cceMGvY8.s:2145   .text.altcp_tcp_write:0000000000000034 .L0 
C:\Users\stapi\AppData\Local\Temp\cceMGvY8.s:2146   .text.altcp_tcp_write:0000000000000034 .L0 
C:\Users\stapi\AppData\Local\Temp\cceMGvY8.s:2147   .text.altcp_tcp_write:0000000000000034 .L0 
C:\Users\stapi\AppData\Local\Temp\cceMGvY8.s:2148   .text.altcp_tcp_write:0000000000000034 .L0 
C:\Users\stapi\AppData\Local\Temp\cceMGvY8.s:2149   .text.altcp_tcp_write:0000000000000034 .L0 
C:\Users\stapi\AppData\Local\Temp\cceMGvY8.s:2156   .text.altcp_tcp_write:000000000000003e .L0 
C:\Users\stapi\AppData\Local\Temp\cceMGvY8.s:2157   .text.altcp_tcp_write:0000000000000046 .L0 
C:\Users\stapi\AppData\Local\Temp\cceMGvY8.s:2158   .text.altcp_tcp_write:0000000000000046 .L0 
C:\Users\stapi\AppData\Local\Temp\cceMGvY8.s:2162   .text.altcp_tcp_write:0000000000000046 .L0 
C:\Users\stapi\AppData\Local\Temp\cceMGvY8.s:2165   .text.altcp_tcp_write:0000000000000048 .L0 
C:\Users\stapi\AppData\Local\Temp\cceMGvY8.s:2166   .text.altcp_tcp_write:000000000000004a .L0 
C:\Users\stapi\AppData\Local\Temp\cceMGvY8.s:2172   .text.altcp_tcp_output:0000000000000000 altcp_tcp_output
C:\Users\stapi\AppData\Local\Temp\cceMGvY8.s:2175   .text.altcp_tcp_output:0000000000000000 .L0 
C:\Users\stapi\AppData\Local\Temp\cceMGvY8.s:2177   .text.altcp_tcp_output:0000000000000000 .L0 
C:\Users\stapi\AppData\Local\Temp\cceMGvY8.s:2178   .text.altcp_tcp_output:0000000000000000 .L0 
C:\Users\stapi\AppData\Local\Temp\cceMGvY8.s:2179   .text.altcp_tcp_output:0000000000000000 .L0 
C:\Users\stapi\AppData\Local\Temp\cceMGvY8.s:2180   .text.altcp_tcp_output:0000000000000000 .L0 
C:\Users\stapi\AppData\Local\Temp\cceMGvY8.s:2182   .text.altcp_tcp_output:0000000000000002 .L0 
C:\Users\stapi\AppData\Local\Temp\cceMGvY8.s:2183   .text.altcp_tcp_output:000000000000000a .L0 
C:\Users\stapi\AppData\Local\Temp\cceMGvY8.s:2184   .text.altcp_tcp_output:000000000000000a .L0 
C:\Users\stapi\AppData\Local\Temp\cceMGvY8.s:2186   .text.altcp_tcp_output:000000000000000a .L0 
C:\Users\stapi\AppData\Local\Temp\cceMGvY8.s:2187   .text.altcp_tcp_output:000000000000000a .L0 
C:\Users\stapi\AppData\Local\Temp\cceMGvY8.s:2188   .text.altcp_tcp_output:000000000000000a .L0 
C:\Users\stapi\AppData\Local\Temp\cceMGvY8.s:2191   .text.altcp_tcp_output:000000000000000e .L0 
C:\Users\stapi\AppData\Local\Temp\cceMGvY8.s:2192   .text.altcp_tcp_output:000000000000000e .L0 
C:\Users\stapi\AppData\Local\Temp\cceMGvY8.s:2204   .text.altcp_tcp_output:0000000000000032 .L0 
C:\Users\stapi\AppData\Local\Temp\cceMGvY8.s:2205   .text.altcp_tcp_output:0000000000000032 .L0 
C:\Users\stapi\AppData\Local\Temp\cceMGvY8.s:2206   .text.altcp_tcp_output:0000000000000032 .L0 
C:\Users\stapi\AppData\Local\Temp\cceMGvY8.s:2212   .text.altcp_tcp_output:0000000000000034 .L0 
C:\Users\stapi\AppData\Local\Temp\cceMGvY8.s:2213   .text.altcp_tcp_output:0000000000000034 .L0 
C:\Users\stapi\AppData\Local\Temp\cceMGvY8.s:2214   .text.altcp_tcp_output:0000000000000034 .L0 
C:\Users\stapi\AppData\Local\Temp\cceMGvY8.s:2215   .text.altcp_tcp_output:0000000000000034 .L0 
C:\Users\stapi\AppData\Local\Temp\cceMGvY8.s:2216   .text.altcp_tcp_output:0000000000000034 .L0 
C:\Users\stapi\AppData\Local\Temp\cceMGvY8.s:2217   .text.altcp_tcp_output:0000000000000034 .L0 
C:\Users\stapi\AppData\Local\Temp\cceMGvY8.s:2218   .text.altcp_tcp_output:0000000000000034 .L0 
C:\Users\stapi\AppData\Local\Temp\cceMGvY8.s:2225   .text.altcp_tcp_output:000000000000003e .L0 
C:\Users\stapi\AppData\Local\Temp\cceMGvY8.s:2226   .text.altcp_tcp_output:0000000000000046 .L0 
C:\Users\stapi\AppData\Local\Temp\cceMGvY8.s:2227   .text.altcp_tcp_output:0000000000000046 .L0 
C:\Users\stapi\AppData\Local\Temp\cceMGvY8.s:2231   .text.altcp_tcp_output:0000000000000046 .L0 
C:\Users\stapi\AppData\Local\Temp\cceMGvY8.s:2234   .text.altcp_tcp_output:0000000000000048 .L0 
C:\Users\stapi\AppData\Local\Temp\cceMGvY8.s:2235   .text.altcp_tcp_output:000000000000004a .L0 
C:\Users\stapi\AppData\Local\Temp\cceMGvY8.s:2241   .text.altcp_tcp_sndbuf:0000000000000000 altcp_tcp_sndbuf
C:\Users\stapi\AppData\Local\Temp\cceMGvY8.s:2244   .text.altcp_tcp_sndbuf:0000000000000000 .L0 
C:\Users\stapi\AppData\Local\Temp\cceMGvY8.s:2246   .text.altcp_tcp_sndbuf:0000000000000000 .L0 
C:\Users\stapi\AppData\Local\Temp\cceMGvY8.s:2247   .text.altcp_tcp_sndbuf:0000000000000000 .L0 
C:\Users\stapi\AppData\Local\Temp\cceMGvY8.s:2248   .text.altcp_tcp_sndbuf:0000000000000000 .L0 
C:\Users\stapi\AppData\Local\Temp\cceMGvY8.s:2249   .text.altcp_tcp_sndbuf:0000000000000000 .L0 
C:\Users\stapi\AppData\Local\Temp\cceMGvY8.s:2251   .text.altcp_tcp_sndbuf:0000000000000002 .L0 
C:\Users\stapi\AppData\Local\Temp\cceMGvY8.s:2252   .text.altcp_tcp_sndbuf:0000000000000002 .L0 
C:\Users\stapi\AppData\Local\Temp\cceMGvY8.s:2253   .text.altcp_tcp_sndbuf:0000000000000002 .L0 
C:\Users\stapi\AppData\Local\Temp\cceMGvY8.s:2256   .text.altcp_tcp_sndbuf:0000000000000006 .L0 
C:\Users\stapi\AppData\Local\Temp\cceMGvY8.s:2257   .text.altcp_tcp_sndbuf:000000000000000e .L0 
C:\Users\stapi\AppData\Local\Temp\cceMGvY8.s:2258   .text.altcp_tcp_sndbuf:000000000000000e .L0 
C:\Users\stapi\AppData\Local\Temp\cceMGvY8.s:2260   .text.altcp_tcp_sndbuf:000000000000000e .L0 
C:\Users\stapi\AppData\Local\Temp\cceMGvY8.s:2261   .text.altcp_tcp_sndbuf:000000000000000e .L0 
C:\Users\stapi\AppData\Local\Temp\cceMGvY8.s:2273   .text.altcp_tcp_sndbuf:0000000000000032 .L0 
C:\Users\stapi\AppData\Local\Temp\cceMGvY8.s:2274   .text.altcp_tcp_sndbuf:0000000000000032 .L0 
C:\Users\stapi\AppData\Local\Temp\cceMGvY8.s:2275   .text.altcp_tcp_sndbuf:0000000000000032 .L0 
C:\Users\stapi\AppData\Local\Temp\cceMGvY8.s:2278   .text.altcp_tcp_sndbuf:0000000000000034 .L0 
C:\Users\stapi\AppData\Local\Temp\cceMGvY8.s:2279   .text.altcp_tcp_sndbuf:0000000000000034 .L0 
C:\Users\stapi\AppData\Local\Temp\cceMGvY8.s:2283   .text.altcp_tcp_sndbuf:0000000000000034 .L0 
C:\Users\stapi\AppData\Local\Temp\cceMGvY8.s:2284   .text.altcp_tcp_sndbuf:0000000000000034 .L0 
C:\Users\stapi\AppData\Local\Temp\cceMGvY8.s:2285   .text.altcp_tcp_sndbuf:0000000000000034 .L0 
C:\Users\stapi\AppData\Local\Temp\cceMGvY8.s:2286   .text.altcp_tcp_sndbuf:0000000000000034 .L0 
C:\Users\stapi\AppData\Local\Temp\cceMGvY8.s:2287   .text.altcp_tcp_sndbuf:0000000000000034 .L0 
C:\Users\stapi\AppData\Local\Temp\cceMGvY8.s:2288   .text.altcp_tcp_sndbuf:0000000000000034 .L0 
C:\Users\stapi\AppData\Local\Temp\cceMGvY8.s:2289   .text.altcp_tcp_sndbuf:0000000000000034 .L0 
C:\Users\stapi\AppData\Local\Temp\cceMGvY8.s:2298   .text.altcp_tcp_sndbuf:0000000000000046 .L0 
C:\Users\stapi\AppData\Local\Temp\cceMGvY8.s:2305   .text.altcp_tcp_sndbuf:000000000000004c .L0 
C:\Users\stapi\AppData\Local\Temp\cceMGvY8.s:2309   .text.altcp_tcp_sndbuf:000000000000004e .L0 
C:\Users\stapi\AppData\Local\Temp\cceMGvY8.s:2310   .text.altcp_tcp_sndbuf:0000000000000050 .L0 
C:\Users\stapi\AppData\Local\Temp\cceMGvY8.s:2317   .text.altcp_tcp_new_ip_type:0000000000000000 altcp_tcp_new_ip_type
C:\Users\stapi\AppData\Local\Temp\cceMGvY8.s:2320   .text.altcp_tcp_new_ip_type:0000000000000000 .L0 
C:\Users\stapi\AppData\Local\Temp\cceMGvY8.s:2322   .text.altcp_tcp_new_ip_type:0000000000000000 .L0 
C:\Users\stapi\AppData\Local\Temp\cceMGvY8.s:2323   .text.altcp_tcp_new_ip_type:0000000000000008 .L0 
C:\Users\stapi\AppData\Local\Temp\cceMGvY8.s:2324   .text.altcp_tcp_new_ip_type:0000000000000008 .L0 
C:\Users\stapi\AppData\Local\Temp\cceMGvY8.s:2325   .text.altcp_tcp_new_ip_type:0000000000000008 .L0 
C:\Users\stapi\AppData\Local\Temp\cceMGvY8.s:2326   .text.altcp_tcp_new_ip_type:0000000000000008 .L0 
C:\Users\stapi\AppData\Local\Temp\cceMGvY8.s:2328   .text.altcp_tcp_new_ip_type:0000000000000008 .L0 
C:\Users\stapi\AppData\Local\Temp\cceMGvY8.s:2329   .text.altcp_tcp_new_ip_type:0000000000000008 .L0 
C:\Users\stapi\AppData\Local\Temp\cceMGvY8.s:2332   .text.altcp_tcp_new_ip_type:0000000000000010 .L0 
C:\Users\stapi\AppData\Local\Temp\cceMGvY8.s:2333   .text.altcp_tcp_new_ip_type:0000000000000010 .L0 
C:\Users\stapi\AppData\Local\Temp\cceMGvY8.s:2335   .text.altcp_tcp_new_ip_type:0000000000000012 .L0 
C:\Users\stapi\AppData\Local\Temp\cceMGvY8.s:2339   .text.altcp_tcp_new_ip_type:0000000000000016 .L0 
C:\Users\stapi\AppData\Local\Temp\cceMGvY8.s:2340   .text.altcp_tcp_new_ip_type:0000000000000016 .L0 
C:\Users\stapi\AppData\Local\Temp\cceMGvY8.s:2345   .text.altcp_tcp_new_ip_type:0000000000000020 .L0 
C:\Users\stapi\AppData\Local\Temp\cceMGvY8.s:2346   .text.altcp_tcp_new_ip_type:0000000000000020 .L0 
C:\Users\stapi\AppData\Local\Temp\cceMGvY8.s:2351   .text.altcp_tcp_new_ip_type:0000000000000022 .L0 
C:\Users\stapi\AppData\Local\Temp\cceMGvY8.s:2352   .text.altcp_tcp_new_ip_type:0000000000000022 .L0 
C:\Users\stapi\AppData\Local\Temp\cceMGvY8.s:2356   .text.altcp_tcp_new_ip_type:000000000000002c .L0 
C:\Users\stapi\AppData\Local\Temp\cceMGvY8.s:2357   .text.altcp_tcp_new_ip_type:000000000000002c .L0 
C:\Users\stapi\AppData\Local\Temp\cceMGvY8.s:2360   .text.altcp_tcp_new_ip_type:0000000000000034 .L0 
C:\Users\stapi\AppData\Local\Temp\cceMGvY8.s:2362   .text.altcp_tcp_new_ip_type:0000000000000036 .L0 
C:\Users\stapi\AppData\Local\Temp\cceMGvY8.s:2363   .text.altcp_tcp_new_ip_type:0000000000000036 .L0 
C:\Users\stapi\AppData\Local\Temp\cceMGvY8.s:2370   .text.altcp_tcp_new_ip_type:0000000000000038 .L0 
C:\Users\stapi\AppData\Local\Temp\cceMGvY8.s:2372   .text.altcp_tcp_new_ip_type:0000000000000042 .L0 
C:\Users\stapi\AppData\Local\Temp\cceMGvY8.s:2373   .text.altcp_tcp_new_ip_type:0000000000000042 .L0 
C:\Users\stapi\AppData\Local\Temp\cceMGvY8.s:2374   .text.altcp_tcp_new_ip_type:0000000000000042 .L0 
C:\Users\stapi\AppData\Local\Temp\cceMGvY8.s:2375   .text.altcp_tcp_new_ip_type:0000000000000042 .L0 
C:\Users\stapi\AppData\Local\Temp\cceMGvY8.s:2376   .text.altcp_tcp_new_ip_type:0000000000000042 .L0 
C:\Users\stapi\AppData\Local\Temp\cceMGvY8.s:2379   .text.altcp_tcp_new_ip_type:0000000000000042 .L0 
C:\Users\stapi\AppData\Local\Temp\cceMGvY8.s:2382   .text.altcp_tcp_new_ip_type:0000000000000042 .L0 
C:\Users\stapi\AppData\Local\Temp\cceMGvY8.s:2387   .text.altcp_tcp_new_ip_type:000000000000004e .L0 
C:\Users\stapi\AppData\Local\Temp\cceMGvY8.s:2394   .text.altcp_tcp_alloc:0000000000000000 altcp_tcp_alloc
C:\Users\stapi\AppData\Local\Temp\cceMGvY8.s:2397   .text.altcp_tcp_alloc:0000000000000000 .L0 
C:\Users\stapi\AppData\Local\Temp\cceMGvY8.s:2399   .text.altcp_tcp_alloc:0000000000000000 .L0 
C:\Users\stapi\AppData\Local\Temp\cceMGvY8.s:2400   .text.altcp_tcp_alloc:0000000000000000 .L0 
C:\Users\stapi\AppData\Local\Temp\cceMGvY8.s:2401   .text.altcp_tcp_alloc:0000000000000000 .L0 
C:\Users\stapi\AppData\Local\Temp\cceMGvY8.s:2402   .text.altcp_tcp_alloc:0000000000000000 .L0 
C:\Users\stapi\AppData\Local\Temp\cceMGvY8.s:2406   .text.altcp_tcp_alloc:000000000000000a .L0 
C:\Users\stapi\AppData\Local\Temp\cceMGvY8.s:2413   .text.altcp_tcp_wrap:0000000000000000 altcp_tcp_wrap
C:\Users\stapi\AppData\Local\Temp\cceMGvY8.s:2416   .text.altcp_tcp_wrap:0000000000000000 .L0 
C:\Users\stapi\AppData\Local\Temp\cceMGvY8.s:2418   .text.altcp_tcp_wrap:0000000000000000 .L0 
C:\Users\stapi\AppData\Local\Temp\cceMGvY8.s:2419   .text.altcp_tcp_wrap:0000000000000008 .L0 
C:\Users\stapi\AppData\Local\Temp\cceMGvY8.s:2420   .text.altcp_tcp_wrap:0000000000000008 .L0 
C:\Users\stapi\AppData\Local\Temp\cceMGvY8.s:2421   .text.altcp_tcp_wrap:0000000000000008 .L0 
C:\Users\stapi\AppData\Local\Temp\cceMGvY8.s:2422   .text.altcp_tcp_wrap:0000000000000008 .L0 
C:\Users\stapi\AppData\Local\Temp\cceMGvY8.s:2424   .text.altcp_tcp_wrap:0000000000000008 .L0 
C:\Users\stapi\AppData\Local\Temp\cceMGvY8.s:2425   .text.altcp_tcp_wrap:0000000000000008 .L0 
C:\Users\stapi\AppData\Local\Temp\cceMGvY8.s:2427   .text.altcp_tcp_wrap:000000000000000a .L0 
C:\Users\stapi\AppData\Local\Temp\cceMGvY8.s:2431   .text.altcp_tcp_wrap:000000000000000e .L0 
C:\Users\stapi\AppData\Local\Temp\cceMGvY8.s:2432   .text.altcp_tcp_wrap:000000000000000e .L0 
C:\Users\stapi\AppData\Local\Temp\cceMGvY8.s:2437   .text.altcp_tcp_wrap:0000000000000018 .L0 
C:\Users\stapi\AppData\Local\Temp\cceMGvY8.s:2438   .text.altcp_tcp_wrap:0000000000000018 .L0 
C:\Users\stapi\AppData\Local\Temp\cceMGvY8.s:2443   .text.altcp_tcp_wrap:000000000000001a .L0 
C:\Users\stapi\AppData\Local\Temp\cceMGvY8.s:2444   .text.altcp_tcp_wrap:000000000000001a .L0 
C:\Users\stapi\AppData\Local\Temp\cceMGvY8.s:2448   .text.altcp_tcp_wrap:0000000000000024 .L0 
C:\Users\stapi\AppData\Local\Temp\cceMGvY8.s:2449   .text.altcp_tcp_wrap:0000000000000024 .L0 
C:\Users\stapi\AppData\Local\Temp\cceMGvY8.s:2452   .text.altcp_tcp_wrap:000000000000002c .L0 
C:\Users\stapi\AppData\Local\Temp\cceMGvY8.s:2454   .text.altcp_tcp_wrap:000000000000002e .L0 
C:\Users\stapi\AppData\Local\Temp\cceMGvY8.s:2455   .text.altcp_tcp_wrap:000000000000002e .L0 
C:\Users\stapi\AppData\Local\Temp\cceMGvY8.s:2462   .text.altcp_tcp_wrap:0000000000000030 .L0 
C:\Users\stapi\AppData\Local\Temp\cceMGvY8.s:2464   .text.altcp_tcp_wrap:000000000000003a .L0 
C:\Users\stapi\AppData\Local\Temp\cceMGvY8.s:2465   .text.altcp_tcp_wrap:000000000000003a .L0 
C:\Users\stapi\AppData\Local\Temp\cceMGvY8.s:2466   .text.altcp_tcp_wrap:000000000000003a .L0 
C:\Users\stapi\AppData\Local\Temp\cceMGvY8.s:2467   .text.altcp_tcp_wrap:000000000000003a .L0 
C:\Users\stapi\AppData\Local\Temp\cceMGvY8.s:2468   .text.altcp_tcp_wrap:000000000000003a .L0 
C:\Users\stapi\AppData\Local\Temp\cceMGvY8.s:2477   .rodata.altcp_tcp_functions:0000000000000000 altcp_tcp_functions
C:\Users\stapi\AppData\Local\Temp\cceMGvY8.s:2474   .rodata.altcp_tcp_functions:0000000000000000 .LANCHOR0
C:\Users\stapi\AppData\Local\Temp\cceMGvY8.s:58     .text.altcp_tcp_setup_callbacks:0000000000000054 .L0 
C:\Users\stapi\AppData\Local\Temp\cceMGvY8.s:155    .text.altcp_tcp_accept:0000000000000058 .L0 
C:\Users\stapi\AppData\Local\Temp\cceMGvY8.s:202    .text.altcp_tcp_err:000000000000002c .L0 
C:\Users\stapi\AppData\Local\Temp\cceMGvY8.s:335    .text.altcp_tcp_recv:0000000000000088 .L0 
C:\Users\stapi\AppData\Local\Temp\cceMGvY8.s:405    .text.altcp_tcp_get_tcp_addrinfo:000000000000004a .L0 
C:\Users\stapi\AppData\Local\Temp\cceMGvY8.s:521    .text.altcp_tcp_sent:000000000000007a .L0 
C:\Users\stapi\AppData\Local\Temp\cceMGvY8.s:611    .text.altcp_tcp_get_port:000000000000004c .L0 
C:\Users\stapi\AppData\Local\Temp\cceMGvY8.s:694    .text.altcp_tcp_get_ip:0000000000000044 .L0 
C:\Users\stapi\AppData\Local\Temp\cceMGvY8.s:742    .text.altcp_tcp_dealloc:0000000000000034 .L0 
C:\Users\stapi\AppData\Local\Temp\cceMGvY8.s:818    .text.altcp_tcp_nagle_disabled:0000000000000046 .L0 
C:\Users\stapi\AppData\Local\Temp\cceMGvY8.s:890    .text.altcp_tcp_nagle_enable:0000000000000046 .L0 
C:\Users\stapi\AppData\Local\Temp\cceMGvY8.s:962    .text.altcp_tcp_nagle_disable:0000000000000046 .L0 
C:\Users\stapi\AppData\Local\Temp\cceMGvY8.s:1030   .text.altcp_tcp_sndqueuelen:0000000000000040 .L0 
C:\Users\stapi\AppData\Local\Temp\cceMGvY8.s:1098   .text.altcp_tcp_mss:0000000000000040 .L0 
C:\Users\stapi\AppData\Local\Temp\cceMGvY8.s:1214   .text.altcp_tcp_connected:000000000000007a .L0 
C:\Users\stapi\AppData\Local\Temp\cceMGvY8.s:1328   .text.altcp_tcp_poll:000000000000007a .L0 
C:\Users\stapi\AppData\Local\Temp\cceMGvY8.s:1398   .text.altcp_tcp_setprio:0000000000000048 .L0 
C:\Users\stapi\AppData\Local\Temp\cceMGvY8.s:1565   .text.altcp_tcp_close:00000000000000c8 .L0 
C:\Users\stapi\AppData\Local\Temp\cceMGvY8.s:1640   .text.altcp_tcp_set_poll:0000000000000052 .L0 
C:\Users\stapi\AppData\Local\Temp\cceMGvY8.s:1714   .text.altcp_tcp_abort:000000000000004a .L0 
C:\Users\stapi\AppData\Local\Temp\cceMGvY8.s:1806   .text.altcp_tcp_listen:0000000000000062 .L0 
C:\Users\stapi\AppData\Local\Temp\cceMGvY8.s:1885   .text.altcp_tcp_connect:0000000000000054 .L0 
C:\Users\stapi\AppData\Local\Temp\cceMGvY8.s:1955   .text.altcp_tcp_recved:0000000000000048 .L0 
C:\Users\stapi\AppData\Local\Temp\cceMGvY8.s:2026   .text.altcp_tcp_bind:000000000000004a .L0 
C:\Users\stapi\AppData\Local\Temp\cceMGvY8.s:2097   .text.altcp_tcp_shutdown:000000000000004a .L0 
C:\Users\stapi\AppData\Local\Temp\cceMGvY8.s:2169   .text.altcp_tcp_write:000000000000004a .L0 
C:\Users\stapi\AppData\Local\Temp\cceMGvY8.s:2238   .text.altcp_tcp_output:000000000000004a .L0 
C:\Users\stapi\AppData\Local\Temp\cceMGvY8.s:2313   .text.altcp_tcp_sndbuf:0000000000000050 .L0 
C:\Users\stapi\AppData\Local\Temp\cceMGvY8.s:2390   .text.altcp_tcp_new_ip_type:000000000000004e .L0 
C:\Users\stapi\AppData\Local\Temp\cceMGvY8.s:2409   .text.altcp_tcp_alloc:000000000000000a .L0 
C:\Users\stapi\AppData\Local\Temp\cceMGvY8.s:2472   .text.altcp_tcp_wrap:000000000000003a .L0 
                     .debug_frame:0000000000000000 .L0 
C:\Users\stapi\AppData\Local\Temp\cceMGvY8.s:145    .text.altcp_tcp_accept:0000000000000052 .L5
C:\Users\stapi\AppData\Local\Temp\cceMGvY8.s:133    .text.altcp_tcp_accept:0000000000000048 .L4
C:\Users\stapi\AppData\Local\Temp\cceMGvY8.s:197    .text.altcp_tcp_err:000000000000002a .L22
C:\Users\stapi\AppData\Local\Temp\cceMGvY8.s:186    .text.altcp_tcp_err:0000000000000018 .L14
C:\Users\stapi\AppData\Local\Temp\cceMGvY8.s:204    .rodata.altcp_tcp_recv.str1.4:0000000000000000 .LC0
C:\Users\stapi\AppData\Local\Temp\cceMGvY8.s:207    .rodata.altcp_tcp_recv.str1.4:0000000000000090 .LC1
C:\Users\stapi\AppData\Local\Temp\cceMGvY8.s:210    .rodata.altcp_tcp_recv.str1.4:00000000000000a0 .LC2
C:\Users\stapi\AppData\Local\Temp\cceMGvY8.s:213    .rodata.altcp_tcp_recv.str1.4:00000000000000c8 .LC3
C:\Users\stapi\AppData\Local\Temp\cceMGvY8.s:321    .text.altcp_tcp_recv:000000000000007a .L26
C:\Users\stapi\AppData\Local\Temp\cceMGvY8.s:262    .text.altcp_tcp_recv:000000000000003a .L27
C:\Users\stapi\AppData\Local\Temp\cceMGvY8.s:256    .text.altcp_tcp_recv:0000000000000038 .L28
C:\Users\stapi\AppData\Local\Temp\cceMGvY8.s:292    .text.altcp_tcp_recv:0000000000000064 .L29
C:\Users\stapi\AppData\Local\Temp\cceMGvY8.s:286    .text.altcp_tcp_recv:0000000000000062 .L30
C:\Users\stapi\AppData\Local\Temp\cceMGvY8.s:312    .text.altcp_tcp_recv:0000000000000070 .L31
C:\Users\stapi\AppData\Local\Temp\cceMGvY8.s:396    .text.altcp_tcp_get_tcp_addrinfo:0000000000000046 .L45
C:\Users\stapi\AppData\Local\Temp\cceMGvY8.s:379    .text.altcp_tcp_get_tcp_addrinfo:0000000000000034 .L43
C:\Users\stapi\AppData\Local\Temp\cceMGvY8.s:373    .text.altcp_tcp_get_tcp_addrinfo:0000000000000032 .L44
C:\Users\stapi\AppData\Local\Temp\cceMGvY8.s:512    .text.altcp_tcp_sent:0000000000000076 .L56
C:\Users\stapi\AppData\Local\Temp\cceMGvY8.s:448    .text.altcp_tcp_sent:0000000000000038 .L52
C:\Users\stapi\AppData\Local\Temp\cceMGvY8.s:442    .text.altcp_tcp_sent:0000000000000036 .L53
C:\Users\stapi\AppData\Local\Temp\cceMGvY8.s:477    .text.altcp_tcp_sent:0000000000000062 .L54
C:\Users\stapi\AppData\Local\Temp\cceMGvY8.s:471    .text.altcp_tcp_sent:0000000000000060 .L55
C:\Users\stapi\AppData\Local\Temp\cceMGvY8.s:504    .text.altcp_tcp_sent:000000000000006e .L51
C:\Users\stapi\AppData\Local\Temp\cceMGvY8.s:600    .text.altcp_tcp_get_port:0000000000000048 .L68
C:\Users\stapi\AppData\Local\Temp\cceMGvY8.s:567    .text.altcp_tcp_get_port:0000000000000034 .L65
C:\Users\stapi\AppData\Local\Temp\cceMGvY8.s:561    .text.altcp_tcp_get_port:0000000000000032 .L66
C:\Users\stapi\AppData\Local\Temp\cceMGvY8.s:605    .text.altcp_tcp_get_port:000000000000004a .L64
C:\Users\stapi\AppData\Local\Temp\cceMGvY8.s:594    .text.altcp_tcp_get_port:0000000000000042 .L67
C:\Users\stapi\AppData\Local\Temp\cceMGvY8.s:683    .text.altcp_tcp_get_ip:0000000000000040 .L78
C:\Users\stapi\AppData\Local\Temp\cceMGvY8.s:661    .text.altcp_tcp_get_ip:0000000000000038 .L75
C:\Users\stapi\AppData\Local\Temp\cceMGvY8.s:655    .text.altcp_tcp_get_ip:0000000000000036 .L76
C:\Users\stapi\AppData\Local\Temp\cceMGvY8.s:688    .text.altcp_tcp_get_ip:0000000000000042 .L73
C:\Users\stapi\AppData\Local\Temp\cceMGvY8.s:733    .text.altcp_tcp_dealloc:0000000000000032 .L85
C:\Users\stapi\AppData\Local\Temp\cceMGvY8.s:727    .text.altcp_tcp_dealloc:0000000000000030 .L87
C:\Users\stapi\AppData\Local\Temp\cceMGvY8.s:808    .text.altcp_tcp_nagle_disabled:0000000000000042 .L96
C:\Users\stapi\AppData\Local\Temp\cceMGvY8.s:791    .text.altcp_tcp_nagle_disabled:0000000000000038 .L93
C:\Users\stapi\AppData\Local\Temp\cceMGvY8.s:785    .text.altcp_tcp_nagle_disabled:0000000000000036 .L94
C:\Users\stapi\AppData\Local\Temp\cceMGvY8.s:884    .text.altcp_tcp_nagle_enable:0000000000000044 .L100
C:\Users\stapi\AppData\Local\Temp\cceMGvY8.s:867    .text.altcp_tcp_nagle_enable:0000000000000038 .L102
C:\Users\stapi\AppData\Local\Temp\cceMGvY8.s:861    .text.altcp_tcp_nagle_enable:0000000000000036 .L103
C:\Users\stapi\AppData\Local\Temp\cceMGvY8.s:956    .text.altcp_tcp_nagle_disable:0000000000000044 .L113
C:\Users\stapi\AppData\Local\Temp\cceMGvY8.s:939    .text.altcp_tcp_nagle_disable:0000000000000038 .L115
C:\Users\stapi\AppData\Local\Temp\cceMGvY8.s:933    .text.altcp_tcp_nagle_disable:0000000000000036 .L116
C:\Users\stapi\AppData\Local\Temp\cceMGvY8.s:1021   .text.altcp_tcp_sndqueuelen:000000000000003c .L130
C:\Users\stapi\AppData\Local\Temp\cceMGvY8.s:1004   .text.altcp_tcp_sndqueuelen:0000000000000034 .L128
C:\Users\stapi\AppData\Local\Temp\cceMGvY8.s:998    .text.altcp_tcp_sndqueuelen:0000000000000032 .L129
C:\Users\stapi\AppData\Local\Temp\cceMGvY8.s:1089   .text.altcp_tcp_mss:000000000000003c .L138
C:\Users\stapi\AppData\Local\Temp\cceMGvY8.s:1072   .text.altcp_tcp_mss:0000000000000034 .L136
C:\Users\stapi\AppData\Local\Temp\cceMGvY8.s:1066   .text.altcp_tcp_mss:0000000000000032 .L137
C:\Users\stapi\AppData\Local\Temp\cceMGvY8.s:1205   .text.altcp_tcp_connected:0000000000000076 .L148
C:\Users\stapi\AppData\Local\Temp\cceMGvY8.s:1141   .text.altcp_tcp_connected:0000000000000038 .L144
C:\Users\stapi\AppData\Local\Temp\cceMGvY8.s:1135   .text.altcp_tcp_connected:0000000000000036 .L145
C:\Users\stapi\AppData\Local\Temp\cceMGvY8.s:1170   .text.altcp_tcp_connected:0000000000000062 .L146
C:\Users\stapi\AppData\Local\Temp\cceMGvY8.s:1164   .text.altcp_tcp_connected:0000000000000060 .L147
C:\Users\stapi\AppData\Local\Temp\cceMGvY8.s:1197   .text.altcp_tcp_connected:000000000000006e .L143
C:\Users\stapi\AppData\Local\Temp\cceMGvY8.s:1319   .text.altcp_tcp_poll:0000000000000076 .L161
C:\Users\stapi\AppData\Local\Temp\cceMGvY8.s:1256   .text.altcp_tcp_poll:0000000000000038 .L157
C:\Users\stapi\AppData\Local\Temp\cceMGvY8.s:1250   .text.altcp_tcp_poll:0000000000000036 .L158
C:\Users\stapi\AppData\Local\Temp\cceMGvY8.s:1284   .text.altcp_tcp_poll:0000000000000062 .L159
C:\Users\stapi\AppData\Local\Temp\cceMGvY8.s:1278   .text.altcp_tcp_poll:0000000000000060 .L160
C:\Users\stapi\AppData\Local\Temp\cceMGvY8.s:1311   .text.altcp_tcp_poll:000000000000006e .L156
C:\Users\stapi\AppData\Local\Temp\cceMGvY8.s:1393   .text.altcp_tcp_setprio:0000000000000046 .L176
C:\Users\stapi\AppData\Local\Temp\cceMGvY8.s:1374   .text.altcp_tcp_setprio:0000000000000034 .L170
C:\Users\stapi\AppData\Local\Temp\cceMGvY8.s:1368   .text.altcp_tcp_setprio:0000000000000032 .L171
C:\Users\stapi\AppData\Local\Temp\cceMGvY8.s:1556   .text.altcp_tcp_close:00000000000000c4 .L185
C:\Users\stapi\AppData\Local\Temp\cceMGvY8.s:1441   .text.altcp_tcp_close:0000000000000036 .L181
C:\Users\stapi\AppData\Local\Temp\cceMGvY8.s:1436   .text.altcp_tcp_close:0000000000000034 .L182
C:\Users\stapi\AppData\Local\Temp\cceMGvY8.s:1545   .text.altcp_tcp_close:00000000000000b6 .L183
C:\Users\stapi\AppData\Local\Temp\cceMGvY8.s:1536   .text.altcp_tcp_close:00000000000000b2 .L184
C:\Users\stapi\AppData\Local\Temp\cceMGvY8.s:1521   .text.altcp_tcp_close:00000000000000a8 .L180
C:\Users\stapi\AppData\Local\Temp\cceMGvY8.s:1635   .text.altcp_tcp_set_poll:0000000000000050 .L198
C:\Users\stapi\AppData\Local\Temp\cceMGvY8.s:1611   .text.altcp_tcp_set_poll:0000000000000034 .L192
C:\Users\stapi\AppData\Local\Temp\cceMGvY8.s:1605   .text.altcp_tcp_set_poll:0000000000000032 .L193
C:\Users\stapi\AppData\Local\Temp\cceMGvY8.s:1709   .text.altcp_tcp_abort:0000000000000048 .L212
C:\Users\stapi\AppData\Local\Temp\cceMGvY8.s:1685   .text.altcp_tcp_abort:0000000000000034 .L203
C:\Users\stapi\AppData\Local\Temp\cceMGvY8.s:1679   .text.altcp_tcp_abort:0000000000000032 .L204
C:\Users\stapi\AppData\Local\Temp\cceMGvY8.s:1702   .text.altcp_tcp_abort:0000000000000040 .L201
C:\Users\stapi\AppData\Local\Temp\cceMGvY8.s:1744   .text.altcp_tcp_listen:0000000000000016 .L216
C:\Users\stapi\AppData\Local\Temp\cceMGvY8.s:1773   .text.altcp_tcp_listen:0000000000000042 .L218
C:\Users\stapi\AppData\Local\Temp\cceMGvY8.s:1767   .text.altcp_tcp_listen:0000000000000040 .L219
C:\Users\stapi\AppData\Local\Temp\cceMGvY8.s:1732   .text.altcp_tcp_listen:000000000000000a .L220
C:\Users\stapi\AppData\Local\Temp\cceMGvY8.s:1735   .text.altcp_tcp_listen:000000000000000c .L217
C:\Users\stapi\AppData\Local\Temp\cceMGvY8.s:1876   .text.altcp_tcp_connect:0000000000000050 .L229
C:\Users\stapi\AppData\Local\Temp\cceMGvY8.s:1848   .text.altcp_tcp_connect:0000000000000034 .L227
C:\Users\stapi\AppData\Local\Temp\cceMGvY8.s:1842   .text.altcp_tcp_connect:0000000000000032 .L228
C:\Users\stapi\AppData\Local\Temp\cceMGvY8.s:1950   .text.altcp_tcp_recved:0000000000000046 .L242
C:\Users\stapi\AppData\Local\Temp\cceMGvY8.s:1931   .text.altcp_tcp_recved:0000000000000034 .L236
C:\Users\stapi\AppData\Local\Temp\cceMGvY8.s:1925   .text.altcp_tcp_recved:0000000000000032 .L237
C:\Users\stapi\AppData\Local\Temp\cceMGvY8.s:2017   .text.altcp_tcp_bind:0000000000000046 .L249
C:\Users\stapi\AppData\Local\Temp\cceMGvY8.s:1996   .text.altcp_tcp_bind:0000000000000034 .L247
C:\Users\stapi\AppData\Local\Temp\cceMGvY8.s:1990   .text.altcp_tcp_bind:0000000000000032 .L248
C:\Users\stapi\AppData\Local\Temp\cceMGvY8.s:2088   .text.altcp_tcp_shutdown:0000000000000046 .L258
C:\Users\stapi\AppData\Local\Temp\cceMGvY8.s:2067   .text.altcp_tcp_shutdown:0000000000000034 .L256
C:\Users\stapi\AppData\Local\Temp\cceMGvY8.s:2061   .text.altcp_tcp_shutdown:0000000000000032 .L257
C:\Users\stapi\AppData\Local\Temp\cceMGvY8.s:2160   .text.altcp_tcp_write:0000000000000046 .L267
C:\Users\stapi\AppData\Local\Temp\cceMGvY8.s:2139   .text.altcp_tcp_write:0000000000000034 .L265
C:\Users\stapi\AppData\Local\Temp\cceMGvY8.s:2133   .text.altcp_tcp_write:0000000000000032 .L266
C:\Users\stapi\AppData\Local\Temp\cceMGvY8.s:2229   .text.altcp_tcp_output:0000000000000046 .L276
C:\Users\stapi\AppData\Local\Temp\cceMGvY8.s:2208   .text.altcp_tcp_output:0000000000000034 .L274
C:\Users\stapi\AppData\Local\Temp\cceMGvY8.s:2202   .text.altcp_tcp_output:0000000000000032 .L275
C:\Users\stapi\AppData\Local\Temp\cceMGvY8.s:2301   .text.altcp_tcp_sndbuf:000000000000004c .L285
C:\Users\stapi\AppData\Local\Temp\cceMGvY8.s:2277   .text.altcp_tcp_sndbuf:0000000000000034 .L283
C:\Users\stapi\AppData\Local\Temp\cceMGvY8.s:2271   .text.altcp_tcp_sndbuf:0000000000000032 .L284
C:\Users\stapi\AppData\Local\Temp\cceMGvY8.s:2307   .text.altcp_tcp_sndbuf:000000000000004e .L282
C:\Users\stapi\AppData\Local\Temp\cceMGvY8.s:2365   .text.altcp_tcp_new_ip_type:0000000000000038 .L290
C:\Users\stapi\AppData\Local\Temp\cceMGvY8.s:2378   .text.altcp_tcp_new_ip_type:0000000000000042 .L292
C:\Users\stapi\AppData\Local\Temp\cceMGvY8.s:2457   .text.altcp_tcp_wrap:0000000000000030 .L297
C:\Users\stapi\AppData\Local\Temp\cceMGvY8.s:7540   .debug_abbrev:0000000000000000 .Ldebug_abbrev0
C:\Users\stapi\AppData\Local\Temp\cceMGvY8.s:12476  .debug_str:0000000000000dac .LASF277
C:\Users\stapi\AppData\Local\Temp\cceMGvY8.s:12238  .debug_str:0000000000000755 .LASF278
C:\Users\stapi\AppData\Local\Temp\cceMGvY8.s:12144  .debug_str:00000000000004c7 .LASF279
C:\Users\stapi\AppData\Local\Temp\cceMGvY8.s:11770  .debug_ranges:0000000000000000 .Ldebug_ranges0
C:\Users\stapi\AppData\Local\Temp\cceMGvY8.s:11940  .debug_line:0000000000000000 .Ldebug_line0
C:\Users\stapi\AppData\Local\Temp\cceMGvY8.s:12270  .debug_str:00000000000008cb .LASF0
C:\Users\stapi\AppData\Local\Temp\cceMGvY8.s:12454  .debug_str:0000000000000d23 .LASF2
C:\Users\stapi\AppData\Local\Temp\cceMGvY8.s:12362  .debug_str:0000000000000b00 .LASF1
C:\Users\stapi\AppData\Local\Temp\cceMGvY8.s:12410  .debug_str:0000000000000c25 .LASF3
C:\Users\stapi\AppData\Local\Temp\cceMGvY8.s:12236  .debug_str:000000000000074b .LASF4
C:\Users\stapi\AppData\Local\Temp\cceMGvY8.s:12316  .debug_str:00000000000009f6 .LASF5
C:\Users\stapi\AppData\Local\Temp\cceMGvY8.s:12088  .debug_str:000000000000039f .LASF6
C:\Users\stapi\AppData\Local\Temp\cceMGvY8.s:12462  .debug_str:0000000000000d52 .LASF7
C:\Users\stapi\AppData\Local\Temp\cceMGvY8.s:12324  .debug_str:0000000000000a1c .LASF8
C:\Users\stapi\AppData\Local\Temp\cceMGvY8.s:12412  .debug_str:0000000000000c33 .LASF9
C:\Users\stapi\AppData\Local\Temp\cceMGvY8.s:12380  .debug_str:0000000000000b67 .LASF10
C:\Users\stapi\AppData\Local\Temp\cceMGvY8.s:12214  .debug_str:00000000000006d0 .LASF11
C:\Users\stapi\AppData\Local\Temp\cceMGvY8.s:12082  .debug_str:0000000000000369 .LASF12
C:\Users\stapi\AppData\Local\Temp\cceMGvY8.s:12000  .debug_str:000000000000017d .LASF13
C:\Users\stapi\AppData\Local\Temp\cceMGvY8.s:12056  .debug_str:00000000000002ca .LASF14
C:\Users\stapi\AppData\Local\Temp\cceMGvY8.s:12196  .debug_str:0000000000000668 .LASF15
C:\Users\stapi\AppData\Local\Temp\cceMGvY8.s:12078  .debug_str:0000000000000359 .LASF16
C:\Users\stapi\AppData\Local\Temp\cceMGvY8.s:12284  .debug_str:0000000000000939 .LASF17
C:\Users\stapi\AppData\Local\Temp\cceMGvY8.s:12054  .debug_str:00000000000002c1 .LASF18
C:\Users\stapi\AppData\Local\Temp\cceMGvY8.s:12178  .debug_str:00000000000005fc .LASF19
C:\Users\stapi\AppData\Local\Temp\cceMGvY8.s:12232  .debug_str:0000000000000741 .LASF20
C:\Users\stapi\AppData\Local\Temp\cceMGvY8.s:12148  .debug_str:0000000000000557 .LASF21
C:\Users\stapi\AppData\Local\Temp\cceMGvY8.s:12016  .debug_str:00000000000001c5 .LASF22
C:\Users\stapi\AppData\Local\Temp\cceMGvY8.s:12388  .debug_str:0000000000000ba6 .LASF23
C:\Users\stapi\AppData\Local\Temp\cceMGvY8.s:12314  .debug_str:00000000000009f0 .LASF24
C:\Users\stapi\AppData\Local\Temp\cceMGvY8.s:12396  .debug_str:0000000000000bcb .LASF25
C:\Users\stapi\AppData\Local\Temp\cceMGvY8.s:12090  .debug_str:00000000000003aa .LASF141
C:\Users\stapi\AppData\Local\Temp\cceMGvY8.s:12312  .debug_str:00000000000009e9 .LASF26
C:\Users\stapi\AppData\Local\Temp\cceMGvY8.s:12428  .debug_str:0000000000000c9d .LASF27
C:\Users\stapi\AppData\Local\Temp\cceMGvY8.s:12420  .debug_str:0000000000000c67 .LASF28
C:\Users\stapi\AppData\Local\Temp\cceMGvY8.s:12502  .debug_str:0000000000000f35 .LASF29
C:\Users\stapi\AppData\Local\Temp\cceMGvY8.s:12364  .debug_str:0000000000000b0a .LASF30
C:\Users\stapi\AppData\Local\Temp\cceMGvY8.s:12110  .debug_str:0000000000000414 .LASF31
C:\Users\stapi\AppData\Local\Temp\cceMGvY8.s:12414  .debug_str:0000000000000c3e .LASF32
C:\Users\stapi\AppData\Local\Temp\cceMGvY8.s:12186  .debug_str:000000000000062d .LASF33
C:\Users\stapi\AppData\Local\Temp\cceMGvY8.s:12136  .debug_str:00000000000004a8 .LASF34
C:\Users\stapi\AppData\Local\Temp\cceMGvY8.s:12116  .debug_str:000000000000044b .LASF35
C:\Users\stapi\AppData\Local\Temp\cceMGvY8.s:11996  .debug_str:0000000000000161 .LASF36
C:\Users\stapi\AppData\Local\Temp\cceMGvY8.s:12448  .debug_str:0000000000000cf5 .LASF37
C:\Users\stapi\AppData\Local\Temp\cceMGvY8.s:12496  .debug_str:0000000000000f11 .LASF38
C:\Users\stapi\AppData\Local\Temp\cceMGvY8.s:12306  .debug_str:00000000000009bf .LASF39
C:\Users\stapi\AppData\Local\Temp\cceMGvY8.s:12158  .debug_str:000000000000058e .LASF40
C:\Users\stapi\AppData\Local\Temp\cceMGvY8.s:12472  .debug_str:0000000000000d9a .LASF41
C:\Users\stapi\AppData\Local\Temp\cceMGvY8.s:12354  .debug_str:0000000000000ade .LASF42
C:\Users\stapi\AppData\Local\Temp\cceMGvY8.s:12100  .debug_str:00000000000003d9 .LASF43
C:\Users\stapi\AppData\Local\Temp\cceMGvY8.s:12156  .debug_str:000000000000057f .LASF44
C:\Users\stapi\AppData\Local\Temp\cceMGvY8.s:11986  .debug_str:000000000000011e .LASF45
C:\Users\stapi\AppData\Local\Temp\cceMGvY8.s:12046  .debug_str:000000000000028a .LASF46
C:\Users\stapi\AppData\Local\Temp\cceMGvY8.s:12366  .debug_str:0000000000000b16 .LASF47
C:\Users\stapi\AppData\Local\Temp\cceMGvY8.s:12466  .debug_str:0000000000000d7b .LASF48
C:\Users\stapi\AppData\Local\Temp\cceMGvY8.s:12224  .debug_str:000000000000070b .LASF49
C:\Users\stapi\AppData\Local\Temp\cceMGvY8.s:12442  .debug_str:0000000000000cdd .LASF50
C:\Users\stapi\AppData\Local\Temp\cceMGvY8.s:12042  .debug_str:0000000000000279 .LASF51
C:\Users\stapi\AppData\Local\Temp\cceMGvY8.s:11984  .debug_str:0000000000000115 .LASF52
C:\Users\stapi\AppData\Local\Temp\cceMGvY8.s:11992  .debug_str:0000000000000154 .LASF53
C:\Users\stapi\AppData\Local\Temp\cceMGvY8.s:12006  .debug_str:0000000000000199 .LASF54
C:\Users\stapi\AppData\Local\Temp\cceMGvY8.s:12134  .debug_str:00000000000004a3 .LASF61
C:\Users\stapi\AppData\Local\Temp\cceMGvY8.s:12004  .debug_str:0000000000000194 .LASF55
C:\Users\stapi\AppData\Local\Temp\cceMGvY8.s:12126  .debug_str:0000000000000481 .LASF56
C:\Users\stapi\AppData\Local\Temp\cceMGvY8.s:12122  .debug_str:0000000000000472 .LASF57
C:\Users\stapi\AppData\Local\Temp\cceMGvY8.s:12118  .debug_str:0000000000000454 .LASF58
C:\Users\stapi\AppData\Local\Temp\cceMGvY8.s:11980  .debug_str:0000000000000107 .LASF59
C:\Users\stapi\AppData\Local\Temp\cceMGvY8.s:12298  .debug_str:0000000000000982 .LASF60
C:\Users\stapi\AppData\Local\Temp\cceMGvY8.s:12356  .debug_str:0000000000000aed .LASF62
C:\Users\stapi\AppData\Local\Temp\cceMGvY8.s:12430  .debug_str:0000000000000ca4 .LASF63
C:\Users\stapi\AppData\Local\Temp\cceMGvY8.s:12322  .debug_str:0000000000000a11 .LASF64
C:\Users\stapi\AppData\Local\Temp\cceMGvY8.s:12474  .debug_str:0000000000000da2 .LASF65
C:\Users\stapi\AppData\Local\Temp\cceMGvY8.s:12488  .debug_str:0000000000000edc .LASF66
C:\Users\stapi\AppData\Local\Temp\cceMGvY8.s:12192  .debug_str:000000000000064f .LASF67
C:\Users\stapi\AppData\Local\Temp\cceMGvY8.s:12150  .debug_str:000000000000055c .LASF68
C:\Users\stapi\AppData\Local\Temp\cceMGvY8.s:12434  .debug_str:0000000000000cb7 .LASF69
C:\Users\stapi\AppData\Local\Temp\cceMGvY8.s:12172  .debug_str:00000000000005e6 .LASF70
C:\Users\stapi\AppData\Local\Temp\cceMGvY8.s:12128  .debug_str:0000000000000489 .LASF71
C:\Users\stapi\AppData\Local\Temp\cceMGvY8.s:12450  .debug_str:0000000000000cfc .LASF72
C:\Users\stapi\AppData\Local\Temp\cceMGvY8.s:12060  .debug_str:00000000000002df .LASF73
C:\Users\stapi\AppData\Local\Temp\cceMGvY8.s:12176  .debug_str:00000000000005f7 .LASF74
C:\Users\stapi\AppData\Local\Temp\cceMGvY8.s:12376  .debug_str:0000000000000b4d .LASF75
C:\Users\stapi\AppData\Local\Temp\cceMGvY8.s:12458  .debug_str:0000000000000d37 .LASF76
C:\Users\stapi\AppData\Local\Temp\cceMGvY8.s:12504  .debug_str:0000000000000f3e .LASF77
C:\Users\stapi\AppData\Local\Temp\cceMGvY8.s:12254  .debug_str:0000000000000857 .LASF78
C:\Users\stapi\AppData\Local\Temp\cceMGvY8.s:11950  .debug_str:0000000000000033 .LASF79
C:\Users\stapi\AppData\Local\Temp\cceMGvY8.s:12336  .debug_str:0000000000000a68 .LASF80
C:\Users\stapi\AppData\Local\Temp\cceMGvY8.s:11946  .debug_str:000000000000001a .LASF81
C:\Users\stapi\AppData\Local\Temp\cceMGvY8.s:12202  .debug_str:0000000000000692 .LASF82
C:\Users\stapi\AppData\Local\Temp\cceMGvY8.s:12140  .debug_str:00000000000004b8 .LASF83
C:\Users\stapi\AppData\Local\Temp\cceMGvY8.s:11994  .debug_str:000000000000015c .LASF84
C:\Users\stapi\AppData\Local\Temp\cceMGvY8.s:12318  .debug_str:0000000000000a00 .LASF85
C:\Users\stapi\AppData\Local\Temp\cceMGvY8.s:12146  .debug_str:0000000000000550 .LASF86
C:\Users\stapi\AppData\Local\Temp\cceMGvY8.s:12112  .debug_str:000000000000041f .LASF87
C:\Users\stapi\AppData\Local\Temp\cceMGvY8.s:11944  .debug_str:0000000000000014 .LASF88
C:\Users\stapi\AppData\Local\Temp\cceMGvY8.s:12098  .debug_str:00000000000003d0 .LASF89
C:\Users\stapi\AppData\Local\Temp\cceMGvY8.s:12218  .debug_str:00000000000006ed .LASF90
C:\Users\stapi\AppData\Local\Temp\cceMGvY8.s:11962  .debug_str:000000000000008a .LASF91
C:\Users\stapi\AppData\Local\Temp\cceMGvY8.s:12024  .debug_str:0000000000000200 .LASF92
C:\Users\stapi\AppData\Local\Temp\cceMGvY8.s:12500  .debug_str:0000000000000f29 .LASF93
C:\Users\stapi\AppData\Local\Temp\cceMGvY8.s:12058  .debug_str:00000000000002d1 .LASF94
C:\Users\stapi\AppData\Local\Temp\cceMGvY8.s:12408  .debug_str:0000000000000c18 .LASF95
C:\Users\stapi\AppData\Local\Temp\cceMGvY8.s:12400  .debug_str:0000000000000be8 .LASF96
C:\Users\stapi\AppData\Local\Temp\cceMGvY8.s:12026  .debug_str:0000000000000207 .LASF97
C:\Users\stapi\AppData\Local\Temp\cceMGvY8.s:12014  .debug_str:00000000000001bd .LASF98
C:\Users\stapi\AppData\Local\Temp\cceMGvY8.s:12076  .debug_str:0000000000000350 .LASF99
C:\Users\stapi\AppData\Local\Temp\cceMGvY8.s:12130  .debug_str:0000000000000493 .LASF100
C:\Users\stapi\AppData\Local\Temp\cceMGvY8.s:12440  .debug_str:0000000000000cd5 .LASF101
C:\Users\stapi\AppData\Local\Temp\cceMGvY8.s:12228  .debug_str:0000000000000722 .LASF102
C:\Users\stapi\AppData\Local\Temp\cceMGvY8.s:12242  .debug_str:00000000000007f6 .LASF103
C:\Users\stapi\AppData\Local\Temp\cceMGvY8.s:12102  .debug_str:00000000000003e1 .LASF104
C:\Users\stapi\AppData\Local\Temp\cceMGvY8.s:12028  .debug_str:000000000000020f .LASF105
C:\Users\stapi\AppData\Local\Temp\cceMGvY8.s:12348  .debug_str:0000000000000aad .LASF106
C:\Users\stapi\AppData\Local\Temp\cceMGvY8.s:11958  .debug_str:000000000000006f .LASF107
C:\Users\stapi\AppData\Local\Temp\cceMGvY8.s:12326  .debug_str:0000000000000a25 .LASF108
C:\Users\stapi\AppData\Local\Temp\cceMGvY8.s:12328  .debug_str:0000000000000a34 .LASF109
C:\Users\stapi\AppData\Local\Temp\cceMGvY8.s:11952  .debug_str:0000000000000041 .LASF110
C:\Users\stapi\AppData\Local\Temp\cceMGvY8.s:12498  .debug_str:0000000000000f19 .LASF111
C:\Users\stapi\AppData\Local\Temp\cceMGvY8.s:12404  .debug_str:0000000000000c03 .LASF112
C:\Users\stapi\AppData\Local\Temp\cceMGvY8.s:12012  .debug_str:00000000000001ad .LASF113
C:\Users\stapi\AppData\Local\Temp\cceMGvY8.s:12258  .debug_str:0000000000000871 .LASF114
C:\Users\stapi\AppData\Local\Temp\cceMGvY8.s:12386  .debug_str:0000000000000b8f .LASF115
C:\Users\stapi\AppData\Local\Temp\cceMGvY8.s:12292  .debug_str:0000000000000959 .LASF116
C:\Users\stapi\AppData\Local\Temp\cceMGvY8.s:12180  .debug_str:0000000000000601 .LASF117
C:\Users\stapi\AppData\Local\Temp\cceMGvY8.s:12050  .debug_str:00000000000002a7 .LASF118
C:\Users\stapi\AppData\Local\Temp\cceMGvY8.s:12486  .debug_str:0000000000000ecb .LASF119
C:\Users\stapi\AppData\Local\Temp\cceMGvY8.s:12200  .debug_str:0000000000000678 .LASF120
C:\Users\stapi\AppData\Local\Temp\cceMGvY8.s:12190  .debug_str:000000000000063f .LASF121
C:\Users\stapi\AppData\Local\Temp\cceMGvY8.s:11966  .debug_str:0000000000000096 .LASF122
C:\Users\stapi\AppData\Local\Temp\cceMGvY8.s:12378  .debug_str:0000000000000b5a .LASF123
C:\Users\stapi\AppData\Local\Temp\cceMGvY8.s:12342  .debug_str:0000000000000a8f .LASF124
C:\Users\stapi\AppData\Local\Temp\cceMGvY8.s:12230  .debug_str:0000000000000734 .LASF125
C:\Users\stapi\AppData\Local\Temp\cceMGvY8.s:11954  .debug_str:0000000000000050 .LASF126
C:\Users\stapi\AppData\Local\Temp\cceMGvY8.s:12416  .debug_str:0000000000000c49 .LASF127
C:\Users\stapi\AppData\Local\Temp\cceMGvY8.s:12268  .debug_str:00000000000008bc .LASF128
C:\Users\stapi\AppData\Local\Temp\cceMGvY8.s:12260  .debug_str:0000000000000886 .LASF129
C:\Users\stapi\AppData\Local\Temp\cceMGvY8.s:12370  .debug_str:0000000000000b2d .LASF130
C:\Users\stapi\AppData\Local\Temp\cceMGvY8.s:12212  .debug_str:00000000000006c4 .LASF131
C:\Users\stapi\AppData\Local\Temp\cceMGvY8.s:12152  .debug_str:0000000000000567 .LASF132
C:\Users\stapi\AppData\Local\Temp\cceMGvY8.s:12068  .debug_str:0000000000000311 .LASF133
C:\Users\stapi\AppData\Local\Temp\cceMGvY8.s:12106  .debug_str:00000000000003f7 .LASF134
C:\Users\stapi\AppData\Local\Temp\cceMGvY8.s:12062  .debug_str:00000000000002e4 .LASF135
C:\Users\stapi\AppData\Local\Temp\cceMGvY8.s:12332  .debug_str:0000000000000a4f .LASF136
C:\Users\stapi\AppData\Local\Temp\cceMGvY8.s:12478  .debug_str:0000000000000ea5 .LASF137
C:\Users\stapi\AppData\Local\Temp\cceMGvY8.s:12174  .debug_str:00000000000005ed .LASF138
C:\Users\stapi\AppData\Local\Temp\cceMGvY8.s:12034  .debug_str:000000000000023e .LASF139
C:\Users\stapi\AppData\Local\Temp\cceMGvY8.s:12162  .debug_str:00000000000005b3 .LASF140
C:\Users\stapi\AppData\Local\Temp\cceMGvY8.s:12114  .debug_str:0000000000000425 .LASF142
C:\Users\stapi\AppData\Local\Temp\cceMGvY8.s:12452  .debug_str:0000000000000d01 .LASF143
C:\Users\stapi\AppData\Local\Temp\cceMGvY8.s:11972  .debug_str:00000000000000bf .LASF144
C:\Users\stapi\AppData\Local\Temp\cceMGvY8.s:12282  .debug_str:0000000000000918 .LASF145
C:\Users\stapi\AppData\Local\Temp\cceMGvY8.s:11978  .debug_str:00000000000000f9 .LASF146
C:\Users\stapi\AppData\Local\Temp\cceMGvY8.s:12460  .debug_str:0000000000000d4a .LASF147
C:\Users\stapi\AppData\Local\Temp\cceMGvY8.s:12344  .debug_str:0000000000000a9c .LASF148
C:\Users\stapi\AppData\Local\Temp\cceMGvY8.s:12470  .debug_str:0000000000000d90 .LASF149
C:\Users\stapi\AppData\Local\Temp\cceMGvY8.s:12002  .debug_str:000000000000018a .LASF150
C:\Users\stapi\AppData\Local\Temp\cceMGvY8.s:11956  .debug_str:0000000000000064 .LASF151
C:\Users\stapi\AppData\Local\Temp\cceMGvY8.s:12426  .debug_str:0000000000000c90 .LASF152
C:\Users\stapi\AppData\Local\Temp\cceMGvY8.s:12170  .debug_str:00000000000005e1 .LASF153
C:\Users\stapi\AppData\Local\Temp\cceMGvY8.s:12070  .debug_str:0000000000000324 .LASF154
C:\Users\stapi\AppData\Local\Temp\cceMGvY8.s:12250  .debug_str:0000000000000841 .LASF155
C:\Users\stapi\AppData\Local\Temp\cceMGvY8.s:11974  .debug_str:00000000000000e1 .LASF156
C:\Users\stapi\AppData\Local\Temp\cceMGvY8.s:12338  .debug_str:0000000000000a75 .LASF157
C:\Users\stapi\AppData\Local\Temp\cceMGvY8.s:12104  .debug_str:00000000000003ef .LASF158
C:\Users\stapi\AppData\Local\Temp\cceMGvY8.s:12334  .debug_str:0000000000000a60 .LASF159
C:\Users\stapi\AppData\Local\Temp\cceMGvY8.s:12256  .debug_str:0000000000000865 .LASF160
C:\Users\stapi\AppData\Local\Temp\cceMGvY8.s:12022  .debug_str:00000000000001ed .LASF161
C:\Users\stapi\AppData\Local\Temp\cceMGvY8.s:12132  .debug_str:0000000000000499 .LASF162
C:\Users\stapi\AppData\Local\Temp\cceMGvY8.s:12092  .debug_str:00000000000003b4 .LASF163
C:\Users\stapi\AppData\Local\Temp\cceMGvY8.s:12290  .debug_str:0000000000000952 .LASF164
C:\Users\stapi\AppData\Local\Temp\cceMGvY8.s:12086  .debug_str:0000000000000399 .LASF165
C:\Users\stapi\AppData\Local\Temp\cceMGvY8.s:12490  .debug_str:0000000000000eec .LASF166
C:\Users\stapi\AppData\Local\Temp\cceMGvY8.s:12164  .debug_str:00000000000005bc .LASF167
C:\Users\stapi\AppData\Local\Temp\cceMGvY8.s:12142  .debug_str:00000000000004bf .LASF168
C:\Users\stapi\AppData\Local\Temp\cceMGvY8.s:12358  .debug_str:0000000000000af6 .LASF169
C:\Users\stapi\AppData\Local\Temp\cceMGvY8.s:12372  .debug_str:0000000000000b3c .LASF170
C:\Users\stapi\AppData\Local\Temp\cceMGvY8.s:12406  .debug_str:0000000000000c10 .LASF171
C:\Users\stapi\AppData\Local\Temp\cceMGvY8.s:12456  .debug_str:0000000000000d2f .LASF172
C:\Users\stapi\AppData\Local\Temp\cceMGvY8.s:12198  .debug_str:0000000000000670 .LASF173
C:\Users\stapi\AppData\Local\Temp\cceMGvY8.s:12182  .debug_str:0000000000000619 .LASF174
C:\Users\stapi\AppData\Local\Temp\cceMGvY8.s:12210  .debug_str:00000000000006bc .LASF175
C:\Users\stapi\AppData\Local\Temp\cceMGvY8.s:12294  .debug_str:000000000000096f .LASF176
C:\Users\stapi\AppData\Local\Temp\cceMGvY8.s:12368  .debug_str:0000000000000b21 .LASF177
C:\Users\stapi\AppData\Local\Temp\cceMGvY8.s:12374  .debug_str:0000000000000b45 .LASF178
C:\Users\stapi\AppData\Local\Temp\cceMGvY8.s:12492  .debug_str:0000000000000ef1 .LASF179
C:\Users\stapi\AppData\Local\Temp\cceMGvY8.s:12350  .debug_str:0000000000000abd .LASF180
C:\Users\stapi\AppData\Local\Temp\cceMGvY8.s:12280  .debug_str:000000000000090c .LASF181
C:\Users\stapi\AppData\Local\Temp\cceMGvY8.s:12188  .debug_str:0000000000000638 .LASF182
C:\Users\stapi\AppData\Local\Temp\cceMGvY8.s:12108  .debug_str:000000000000040c .LASF183
C:\Users\stapi\AppData\Local\Temp\cceMGvY8.s:12302  .debug_str:0000000000000999 .LASF184
C:\Users\stapi\AppData\Local\Temp\cceMGvY8.s:12394  .debug_str:0000000000000bbe .LASF185
C:\Users\stapi\AppData\Local\Temp\cceMGvY8.s:11970  .debug_str:00000000000000b6 .LASF186
C:\Users\stapi\AppData\Local\Temp\cceMGvY8.s:12288  .debug_str:000000000000094d .LASF187
C:\Users\stapi\AppData\Local\Temp\cceMGvY8.s:12422  .debug_str:0000000000000c70 .LASF188
C:\Users\stapi\AppData\Local\Temp\cceMGvY8.s:12468  .debug_str:0000000000000d84 .LASF189
C:\Users\stapi\AppData\Local\Temp\cceMGvY8.s:12226  .debug_str:0000000000000712 .LASF190
C:\Users\stapi\AppData\Local\Temp\cceMGvY8.s:11968  .debug_str:00000000000000a8 .LASF191
C:\Users\stapi\AppData\Local\Temp\cceMGvY8.s:12032  .debug_str:0000000000000230 .LASF192
C:\Users\stapi\AppData\Local\Temp\cceMGvY8.s:12168  .debug_str:00000000000005d7 .LASF193
C:\Users\stapi\AppData\Local\Temp\cceMGvY8.s:12384  .debug_str:0000000000000b85 .LASF194
C:\Users\stapi\AppData\Local\Temp\cceMGvY8.s:12262  .debug_str:0000000000000895 .LASF195
C:\Users\stapi\AppData\Local\Temp\cceMGvY8.s:12040  .debug_str:000000000000026d .LASF196
C:\Users\stapi\AppData\Local\Temp\cceMGvY8.s:12278  .debug_str:0000000000000900 .LASF197
C:\Users\stapi\AppData\Local\Temp\cceMGvY8.s:12484  .debug_str:0000000000000ec0 .LASF198
C:\Users\stapi\AppData\Local\Temp\cceMGvY8.s:12074  .debug_str:000000000000033f .LASF199
C:\Users\stapi\AppData\Local\Temp\cceMGvY8.s:12194  .debug_str:0000000000000659 .LASF200
C:\Users\stapi\AppData\Local\Temp\cceMGvY8.s:12360  .debug_str:0000000000000afb .LASF201
C:\Users\stapi\AppData\Local\Temp\cceMGvY8.s:12208  .debug_str:00000000000006b6 .LASF202
C:\Users\stapi\AppData\Local\Temp\cceMGvY8.s:12216  .debug_str:00000000000006de .LASF203
C:\Users\stapi\AppData\Local\Temp\cceMGvY8.s:12286  .debug_str:0000000000000942 .LASF204
C:\Users\stapi\AppData\Local\Temp\cceMGvY8.s:12080  .debug_str:0000000000000361 .LASF280
C:\Users\stapi\AppData\Local\Temp\cceMGvY8.s:11942  .debug_str:0000000000000000 .LASF281
C:\Users\stapi\AppData\Local\Temp\cceMGvY8.s:12494  .debug_str:0000000000000efe .LASF207
C:\Users\stapi\AppData\Local\Temp\cceMGvY8.s:11964  .debug_str:0000000000000091 .LASF205
C:\Users\stapi\AppData\Local\Temp\cceMGvY8.s:12008  .debug_str:000000000000019f .LASF206
C:\Users\stapi\AppData\Local\Temp\cceMGvY8.s:12352  .debug_str:0000000000000acd .LASF208
C:\Users\stapi\AppData\Local\Temp\cceMGvY8.s:12274  .debug_str:00000000000008dc .LASF248
C:\Users\stapi\AppData\Local\Temp\cceMGvY8.s:339    .text.altcp_tcp_get_tcp_addrinfo:0000000000000000 .LFB34
C:\Users\stapi\AppData\Local\Temp\cceMGvY8.s:403    .text.altcp_tcp_get_tcp_addrinfo:000000000000004a .LFE34
C:\Users\stapi\AppData\Local\Temp\cceMGvY8.s:8630   .debug_loc:0000000000000000 .LLST17
C:\Users\stapi\AppData\Local\Temp\cceMGvY8.s:8666   .debug_loc:0000000000000053 .LLST18
C:\Users\stapi\AppData\Local\Temp\cceMGvY8.s:8695   .debug_loc:0000000000000098 .LLST19
C:\Users\stapi\AppData\Local\Temp\cceMGvY8.s:12392  .debug_str:0000000000000bb9 .LASF209
C:\Users\stapi\AppData\Local\Temp\cceMGvY8.s:8724   .debug_loc:00000000000000dd .LLST20
C:\Users\stapi\AppData\Local\Temp\cceMGvY8.s:350    .text.altcp_tcp_get_tcp_addrinfo:000000000000000a .LBB20
C:\Users\stapi\AppData\Local\Temp\cceMGvY8.s:390    .text.altcp_tcp_get_tcp_addrinfo:000000000000003e .LBE20
C:\Users\stapi\AppData\Local\Temp\cceMGvY8.s:8753   .debug_loc:0000000000000122 .LLST21
C:\Users\stapi\AppData\Local\Temp\cceMGvY8.s:372    .text.altcp_tcp_get_tcp_addrinfo:0000000000000032 .LVL47
C:\Users\stapi\AppData\Local\Temp\cceMGvY8.s:389    .text.altcp_tcp_get_tcp_addrinfo:000000000000003e .LVL50
C:\Users\stapi\AppData\Local\Temp\cceMGvY8.s:12308  .debug_str:00000000000009c7 .LASF210
C:\Users\stapi\AppData\Local\Temp\cceMGvY8.s:12240  .debug_str:00000000000007e4 .LASF211
C:\Users\stapi\AppData\Local\Temp\cceMGvY8.s:1386   .text.altcp_tcp_setprio:000000000000003e .LVL171
C:\Users\stapi\AppData\Local\Temp\cceMGvY8.s:12160  .debug_str:000000000000059a .LASF212
C:\Users\stapi\AppData\Local\Temp\cceMGvY8.s:12036  .debug_str:000000000000024d .LASF213
C:\Users\stapi\AppData\Local\Temp\cceMGvY8.s:12244  .debug_str:0000000000000806 .LASF214
C:\Users\stapi\AppData\Local\Temp\cceMGvY8.s:12464  .debug_str:0000000000000d65 .LASF215
C:\Users\stapi\AppData\Local\Temp\cceMGvY8.s:12048  .debug_str:0000000000000296 .LASF216
C:\Users\stapi\AppData\Local\Temp\cceMGvY8.s:12432  .debug_str:0000000000000ca9 .LASF217
C:\Users\stapi\AppData\Local\Temp\cceMGvY8.s:12264  .debug_str:00000000000008a1 .LASF218
C:\Users\stapi\AppData\Local\Temp\cceMGvY8.s:12120  .debug_str:0000000000000462 .LASF219
C:\Users\stapi\AppData\Local\Temp\cceMGvY8.s:12272  .debug_str:00000000000008d4 .LASF220
C:\Users\stapi\AppData\Local\Temp\cceMGvY8.s:12320  .debug_str:0000000000000a08 .LASF221
C:\Users\stapi\AppData\Local\Temp\cceMGvY8.s:12166  .debug_str:00000000000005c4 .LASF222
C:\Users\stapi\AppData\Local\Temp\cceMGvY8.s:12482  .debug_str:0000000000000eb8 .LASF223
C:\Users\stapi\AppData\Local\Temp\cceMGvY8.s:12246  .debug_str:000000000000081e .LASF224
C:\Users\stapi\AppData\Local\Temp\cceMGvY8.s:12030  .debug_str:0000000000000220 .LASF225
C:\Users\stapi\AppData\Local\Temp\cceMGvY8.s:12346  .debug_str:0000000000000aa5 .LASF226
C:\Users\stapi\AppData\Local\Temp\cceMGvY8.s:12310  .debug_str:00000000000009d9 .LASF227
C:\Users\stapi\AppData\Local\Temp\cceMGvY8.s:1701   .text.altcp_tcp_abort:0000000000000040 .LVL211
C:\Users\stapi\AppData\Local\Temp\cceMGvY8.s:12222  .debug_str:00000000000006fa .LASF228
C:\Users\stapi\AppData\Local\Temp\cceMGvY8.s:12138  .debug_str:00000000000004b0 .LASF229
C:\Users\stapi\AppData\Local\Temp\cceMGvY8.s:12444  .debug_str:0000000000000ce6 .LASF230
C:\Users\stapi\AppData\Local\Temp\cceMGvY8.s:11998  .debug_str:000000000000016b .LASF231
C:\Users\stapi\AppData\Local\Temp\cceMGvY8.s:12124  .debug_str:000000000000047a .LASF232
C:\Users\stapi\AppData\Local\Temp\cceMGvY8.s:12436  .debug_str:0000000000000cbd .LASF233
C:\Users\stapi\AppData\Local\Temp\cceMGvY8.s:12204  .debug_str:000000000000069b .LASF234
C:\Users\stapi\AppData\Local\Temp\cceMGvY8.s:1943   .text.altcp_tcp_recved:000000000000003e .LVL244
C:\Users\stapi\AppData\Local\Temp\cceMGvY8.s:12020  .debug_str:00000000000001da .LASF235
C:\Users\stapi\AppData\Local\Temp\cceMGvY8.s:11948  .debug_str:000000000000002a .LASF236
C:\Users\stapi\AppData\Local\Temp\cceMGvY8.s:1628   .text.altcp_tcp_set_poll:0000000000000048 .LVL202
C:\Users\stapi\AppData\Local\Temp\cceMGvY8.s:12340  .debug_str:0000000000000a80 .LASF238
C:\Users\stapi\AppData\Local\Temp\cceMGvY8.s:2414   .text.altcp_tcp_wrap:0000000000000000 .LFB15
C:\Users\stapi\AppData\Local\Temp\cceMGvY8.s:2469   .text.altcp_tcp_wrap:000000000000003a .LFE15
C:\Users\stapi\AppData\Local\Temp\cceMGvY8.s:12234  .debug_str:0000000000000746 .LASF237
C:\Users\stapi\AppData\Local\Temp\cceMGvY8.s:8782   .debug_loc:0000000000000160 .LLST126
C:\Users\stapi\AppData\Local\Temp\cceMGvY8.s:2429   .text.altcp_tcp_wrap:000000000000000e .LBB177
C:\Users\stapi\AppData\Local\Temp\cceMGvY8.s:2460   .text.altcp_tcp_wrap:0000000000000030 .LBE177
C:\Users\stapi\AppData\Local\Temp\cceMGvY8.s:8800   .debug_loc:000000000000018c .LLST127
C:\Users\stapi\AppData\Local\Temp\cceMGvY8.s:2441   .text.altcp_tcp_wrap:000000000000001a .LBB178
C:\Users\stapi\AppData\Local\Temp\cceMGvY8.s:2459   .text.altcp_tcp_wrap:0000000000000030 .LBE178
C:\Users\stapi\AppData\Local\Temp\cceMGvY8.s:8807   .debug_loc:000000000000019f .LLST128
C:\Users\stapi\AppData\Local\Temp\cceMGvY8.s:8814   .debug_loc:00000000000001b2 .LLST129
C:\Users\stapi\AppData\Local\Temp\cceMGvY8.s:2446   .text.altcp_tcp_wrap:0000000000000024 .LVL309
C:\Users\stapi\AppData\Local\Temp\cceMGvY8.s:2433   .text.altcp_tcp_wrap:0000000000000016 .LVL306
C:\Users\stapi\AppData\Local\Temp\cceMGvY8.s:11976  .debug_str:00000000000000e9 .LASF239
C:\Users\stapi\AppData\Local\Temp\cceMGvY8.s:2395   .text.altcp_tcp_alloc:0000000000000000 .LFB14
C:\Users\stapi\AppData\Local\Temp\cceMGvY8.s:2407   .text.altcp_tcp_alloc:000000000000000a .LFE14
C:\Users\stapi\AppData\Local\Temp\cceMGvY8.s:8821   .debug_loc:00000000000001c5 .LLST124
C:\Users\stapi\AppData\Local\Temp\cceMGvY8.s:11982  .debug_str:000000000000010d .LASF240
C:\Users\stapi\AppData\Local\Temp\cceMGvY8.s:8835   .debug_loc:00000000000001e6 .LLST125
C:\Users\stapi\AppData\Local\Temp\cceMGvY8.s:2405   .text.altcp_tcp_alloc:000000000000000a .LVL304
C:\Users\stapi\AppData\Local\Temp\cceMGvY8.s:12424  .debug_str:0000000000000c7a .LASF241
C:\Users\stapi\AppData\Local\Temp\cceMGvY8.s:2318   .text.altcp_tcp_new_ip_type:0000000000000000 .LFB13
C:\Users\stapi\AppData\Local\Temp\cceMGvY8.s:2388   .text.altcp_tcp_new_ip_type:000000000000004e .LFE13
C:\Users\stapi\AppData\Local\Temp\cceMGvY8.s:8849   .debug_loc:0000000000000207 .LLST119
C:\Users\stapi\AppData\Local\Temp\cceMGvY8.s:8863   .debug_loc:0000000000000228 .LLST120
C:\Users\stapi\AppData\Local\Temp\cceMGvY8.s:8878   .debug_loc:0000000000000251 .LLST121
C:\Users\stapi\AppData\Local\Temp\cceMGvY8.s:2349   .text.altcp_tcp_new_ip_type:0000000000000022 .LBB171
C:\Users\stapi\AppData\Local\Temp\cceMGvY8.s:2367   .text.altcp_tcp_new_ip_type:0000000000000038 .LBE171
C:\Users\stapi\AppData\Local\Temp\cceMGvY8.s:8889   .debug_loc:000000000000026f .LLST122
C:\Users\stapi\AppData\Local\Temp\cceMGvY8.s:8896   .debug_loc:0000000000000282 .LLST123
C:\Users\stapi\AppData\Local\Temp\cceMGvY8.s:2354   .text.altcp_tcp_new_ip_type:000000000000002c .LVL298
C:\Users\stapi\AppData\Local\Temp\cceMGvY8.s:2341   .text.altcp_tcp_new_ip_type:000000000000001e .LVL295
C:\Users\stapi\AppData\Local\Temp\cceMGvY8.s:2384   .text.altcp_tcp_new_ip_type:000000000000004c .LVL301
C:\Users\stapi\AppData\Local\Temp\cceMGvY8.s:2330   .text.altcp_tcp_new_ip_type:0000000000000010 .LVL294
C:\Users\stapi\AppData\Local\Temp\cceMGvY8.s:12300  .debug_str:0000000000000989 .LASF242
C:\Users\stapi\AppData\Local\Temp\cceMGvY8.s:11990  .debug_str:000000000000013a .LASF244
C:\Users\stapi\AppData\Local\Temp\cceMGvY8.s:13     .text.altcp_tcp_setup_callbacks:0000000000000000 .LFB11
C:\Users\stapi\AppData\Local\Temp\cceMGvY8.s:56     .text.altcp_tcp_setup_callbacks:0000000000000054 .LFE11
C:\Users\stapi\AppData\Local\Temp\cceMGvY8.s:8903   .debug_loc:0000000000000295 .LLST0
C:\Users\stapi\AppData\Local\Temp\cceMGvY8.s:8921   .debug_loc:00000000000002c1 .LLST1
C:\Users\stapi\AppData\Local\Temp\cceMGvY8.s:31     .text.altcp_tcp_setup_callbacks:0000000000000016 .LVL3
C:\Users\stapi\AppData\Local\Temp\cceMGvY8.s:37     .text.altcp_tcp_setup_callbacks:0000000000000028 .LVL4
C:\Users\stapi\AppData\Local\Temp\cceMGvY8.s:43     .text.altcp_tcp_setup_callbacks:000000000000003a .LVL5
C:\Users\stapi\AppData\Local\Temp\cceMGvY8.s:49     .text.altcp_tcp_setup_callbacks:000000000000004c .LVL6
C:\Users\stapi\AppData\Local\Temp\cceMGvY8.s:12248  .debug_str:0000000000000826 .LASF243
C:\Users\stapi\AppData\Local\Temp\cceMGvY8.s:12066  .debug_str:0000000000000303 .LASF245
C:\Users\stapi\AppData\Local\Temp\cceMGvY8.s:159    .text.altcp_tcp_err:0000000000000000 .LFB9
C:\Users\stapi\AppData\Local\Temp\cceMGvY8.s:200    .text.altcp_tcp_err:000000000000002c .LFE9
C:\Users\stapi\AppData\Local\Temp\cceMGvY8.s:8932   .debug_loc:00000000000002df .LLST9
C:\Users\stapi\AppData\Local\Temp\cceMGvY8.s:8947   .debug_loc:0000000000000308 .LLST10
C:\Users\stapi\AppData\Local\Temp\cceMGvY8.s:190    .text.altcp_tcp_err:0000000000000022 .LVL20
C:\Users\stapi\AppData\Local\Temp\cceMGvY8.s:12064  .debug_str:00000000000002f4 .LASF246
C:\Users\stapi\AppData\Local\Temp\cceMGvY8.s:12018  .debug_str:00000000000001cb .LASF247
C:\Users\stapi\AppData\Local\Temp\cceMGvY8.s:12398  .debug_str:0000000000000bd9 .LASF249
C:\Users\stapi\AppData\Local\Temp\cceMGvY8.s:219    .text.altcp_tcp_recv:0000000000000000 .LFB6
C:\Users\stapi\AppData\Local\Temp\cceMGvY8.s:333    .text.altcp_tcp_recv:0000000000000088 .LFE6
C:\Users\stapi\AppData\Local\Temp\cceMGvY8.s:8965   .debug_loc:0000000000000334 .LLST12
C:\Users\stapi\AppData\Local\Temp\cceMGvY8.s:9016   .debug_loc:00000000000003ab .LLST13
C:\Users\stapi\AppData\Local\Temp\cceMGvY8.s:9063   .debug_loc:0000000000000417 .LLST14
C:\Users\stapi\AppData\Local\Temp\cceMGvY8.s:9118   .debug_loc:0000000000000499 .LLST15
C:\Users\stapi\AppData\Local\Temp\cceMGvY8.s:9165   .debug_loc:0000000000000505 .LLST16
C:\Users\stapi\AppData\Local\Temp\cceMGvY8.s:255    .text.altcp_tcp_recv:0000000000000038 .LVL28
C:\Users\stapi\AppData\Local\Temp\cceMGvY8.s:285    .text.altcp_tcp_recv:0000000000000062 .LVL34
C:\Users\stapi\AppData\Local\Temp\cceMGvY8.s:310    .text.altcp_tcp_recv:000000000000006e .LVL38
C:\Users\stapi\AppData\Local\Temp\cceMGvY8.s:330    .text.altcp_tcp_recv:0000000000000086 .LVL40
C:\Users\stapi\AppData\Local\Temp\cceMGvY8.s:11988  .debug_str:0000000000000126 .LASF250
C:\Users\stapi\AppData\Local\Temp\cceMGvY8.s:12418  .debug_str:0000000000000c56 .LASF251
C:\Users\stapi\AppData\Local\Temp\cceMGvY8.s:62     .text.altcp_tcp_accept:0000000000000000 .LFB4
C:\Users\stapi\AppData\Local\Temp\cceMGvY8.s:153    .text.altcp_tcp_accept:0000000000000058 .LFE4
C:\Users\stapi\AppData\Local\Temp\cceMGvY8.s:9216   .debug_loc:000000000000057c .LLST2
C:\Users\stapi\AppData\Local\Temp\cceMGvY8.s:12276  .debug_str:00000000000008f7 .LASF252
C:\Users\stapi\AppData\Local\Temp\cceMGvY8.s:9238   .debug_loc:00000000000005b3 .LLST3
C:\Users\stapi\AppData\Local\Temp\cceMGvY8.s:9260   .debug_loc:00000000000005ea .LLST4
C:\Users\stapi\AppData\Local\Temp\cceMGvY8.s:12184  .debug_str:0000000000000621 .LASF253
C:\Users\stapi\AppData\Local\Temp\cceMGvY8.s:9278   .debug_loc:0000000000000616 .LLST5
C:\Users\stapi\AppData\Local\Temp\cceMGvY8.s:87     .text.altcp_tcp_accept:0000000000000016 .LBB15
C:\Users\stapi\AppData\Local\Temp\cceMGvY8.s:134    .text.altcp_tcp_accept:0000000000000048 .LBE15
C:\Users\stapi\AppData\Local\Temp\cceMGvY8.s:12330  .debug_str:0000000000000a46 .LASF254
C:\Users\stapi\AppData\Local\Temp\cceMGvY8.s:9300   .debug_loc:000000000000064d .LLST6
C:\Users\stapi\AppData\Local\Temp\cceMGvY8.s:101    .text.altcp_tcp_accept:0000000000000024 .LBB16
C:\Users\stapi\AppData\Local\Temp\cceMGvY8.s:9307   .debug_loc:0000000000000660 .LLST7
C:\Users\stapi\AppData\Local\Temp\cceMGvY8.s:9314   .debug_loc:0000000000000673 .LLST8
C:\Users\stapi\AppData\Local\Temp\cceMGvY8.s:106    .text.altcp_tcp_accept:000000000000002e .LVL11
C:\Users\stapi\AppData\Local\Temp\cceMGvY8.s:91     .text.altcp_tcp_accept:000000000000001e .LVL8
C:\Users\stapi\AppData\Local\Temp\cceMGvY8.s:130    .text.altcp_tcp_accept:0000000000000046 .LVL13
C:\Users\stapi\AppData\Local\Temp\cceMGvY8.s:409    .text.altcp_tcp_sent:0000000000000000 .LFB7
C:\Users\stapi\AppData\Local\Temp\cceMGvY8.s:519    .text.altcp_tcp_sent:000000000000007a .LFE7
C:\Users\stapi\AppData\Local\Temp\cceMGvY8.s:9321   .debug_loc:0000000000000686 .LLST22
C:\Users\stapi\AppData\Local\Temp\cceMGvY8.s:9380   .debug_loc:0000000000000713 .LLST23
C:\Users\stapi\AppData\Local\Temp\cceMGvY8.s:9420   .debug_loc:0000000000000771 .LLST24
C:\Users\stapi\AppData\Local\Temp\cceMGvY8.s:9460   .debug_loc:00000000000007cf .LLST25
C:\Users\stapi\AppData\Local\Temp\cceMGvY8.s:478    .text.altcp_tcp_sent:0000000000000062 .LBB23
C:\Users\stapi\AppData\Local\Temp\cceMGvY8.s:9519   .debug_loc:000000000000085c .LLST26
C:\Users\stapi\AppData\Local\Temp\cceMGvY8.s:9533   .debug_loc:000000000000087d .LLST27
C:\Users\stapi\AppData\Local\Temp\cceMGvY8.s:503    .text.altcp_tcp_sent:000000000000006e .LVL66
C:\Users\stapi\AppData\Local\Temp\cceMGvY8.s:441    .text.altcp_tcp_sent:0000000000000036 .LVL57
C:\Users\stapi\AppData\Local\Temp\cceMGvY8.s:470    .text.altcp_tcp_sent:0000000000000060 .LVL62
C:\Users\stapi\AppData\Local\Temp\cceMGvY8.s:525    .text.altcp_tcp_get_port:0000000000000000 .LFB36
C:\Users\stapi\AppData\Local\Temp\cceMGvY8.s:609    .text.altcp_tcp_get_port:000000000000004c .LFE36
C:\Users\stapi\AppData\Local\Temp\cceMGvY8.s:9551   .debug_loc:00000000000008a9 .LLST28
C:\Users\stapi\AppData\Local\Temp\cceMGvY8.s:9587   .debug_loc:00000000000008fc .LLST29
C:\Users\stapi\AppData\Local\Temp\cceMGvY8.s:9605   .debug_loc:0000000000000928 .LLST30
C:\Users\stapi\AppData\Local\Temp\cceMGvY8.s:546    .text.altcp_tcp_get_port:000000000000000e .LBB32
C:\Users\stapi\AppData\Local\Temp\cceMGvY8.s:571    .text.altcp_tcp_get_port:0000000000000034 .LBE32
C:\Users\stapi\AppData\Local\Temp\cceMGvY8.s:9634   .debug_loc:0000000000000966 .LLST31
C:\Users\stapi\AppData\Local\Temp\cceMGvY8.s:9648   .debug_loc:0000000000000987 .LLST32
C:\Users\stapi\AppData\Local\Temp\cceMGvY8.s:547    .text.altcp_tcp_get_port:000000000000000e .LBB33
C:\Users\stapi\AppData\Local\Temp\cceMGvY8.s:570    .text.altcp_tcp_get_port:0000000000000034 .LBE33
C:\Users\stapi\AppData\Local\Temp\cceMGvY8.s:560    .text.altcp_tcp_get_port:0000000000000032 .LVL74
C:\Users\stapi\AppData\Local\Temp\cceMGvY8.s:615    .text.altcp_tcp_get_ip:0000000000000000 .LFB35
C:\Users\stapi\AppData\Local\Temp\cceMGvY8.s:692    .text.altcp_tcp_get_ip:0000000000000044 .LFE35
C:\Users\stapi\AppData\Local\Temp\cceMGvY8.s:9662   .debug_loc:00000000000009a8 .LLST33
C:\Users\stapi\AppData\Local\Temp\cceMGvY8.s:9687   .debug_loc:00000000000009e2 .LLST34
C:\Users\stapi\AppData\Local\Temp\cceMGvY8.s:9705   .debug_loc:0000000000000a0e .LLST35
C:\Users\stapi\AppData\Local\Temp\cceMGvY8.s:640    .text.altcp_tcp_get_ip:0000000000000012 .LBB41
C:\Users\stapi\AppData\Local\Temp\cceMGvY8.s:665    .text.altcp_tcp_get_ip:0000000000000038 .LBE41
C:\Users\stapi\AppData\Local\Temp\cceMGvY8.s:9730   .debug_loc:0000000000000a48 .LLST36
C:\Users\stapi\AppData\Local\Temp\cceMGvY8.s:9740   .debug_loc:0000000000000a5e .LLST37
C:\Users\stapi\AppData\Local\Temp\cceMGvY8.s:641    .text.altcp_tcp_get_ip:0000000000000012 .LBB42
C:\Users\stapi\AppData\Local\Temp\cceMGvY8.s:664    .text.altcp_tcp_get_ip:0000000000000038 .LBE42
C:\Users\stapi\AppData\Local\Temp\cceMGvY8.s:654    .text.altcp_tcp_get_ip:0000000000000036 .LVL84
C:\Users\stapi\AppData\Local\Temp\cceMGvY8.s:698    .text.altcp_tcp_dealloc:0000000000000000 .LFB33
C:\Users\stapi\AppData\Local\Temp\cceMGvY8.s:740    .text.altcp_tcp_dealloc:0000000000000034 .LFE33
C:\Users\stapi\AppData\Local\Temp\cceMGvY8.s:9754   .debug_loc:0000000000000a7f .LLST38
C:\Users\stapi\AppData\Local\Temp\cceMGvY8.s:713    .text.altcp_tcp_dealloc:000000000000000c .LBB46
C:\Users\stapi\AppData\Local\Temp\cceMGvY8.s:738    .text.altcp_tcp_dealloc:0000000000000034 .LBE46
C:\Users\stapi\AppData\Local\Temp\cceMGvY8.s:9772   .debug_loc:0000000000000aab .LLST39
C:\Users\stapi\AppData\Local\Temp\cceMGvY8.s:726    .text.altcp_tcp_dealloc:0000000000000030 .LVL92
C:\Users\stapi\AppData\Local\Temp\cceMGvY8.s:746    .text.altcp_tcp_nagle_disabled:0000000000000000 .LFB31
C:\Users\stapi\AppData\Local\Temp\cceMGvY8.s:816    .text.altcp_tcp_nagle_disabled:0000000000000046 .LFE31
C:\Users\stapi\AppData\Local\Temp\cceMGvY8.s:9786   .debug_loc:0000000000000acc .LLST40
C:\Users\stapi\AppData\Local\Temp\cceMGvY8.s:9822   .debug_loc:0000000000000b1f .LLST41
C:\Users\stapi\AppData\Local\Temp\cceMGvY8.s:771    .text.altcp_tcp_nagle_disabled:0000000000000012 .LBB53
C:\Users\stapi\AppData\Local\Temp\cceMGvY8.s:795    .text.altcp_tcp_nagle_disabled:0000000000000038 .LBE53
C:\Users\stapi\AppData\Local\Temp\cceMGvY8.s:9833   .debug_loc:0000000000000b3d .LLST42
C:\Users\stapi\AppData\Local\Temp\cceMGvY8.s:772    .text.altcp_tcp_nagle_disabled:0000000000000012 .LBB54
C:\Users\stapi\AppData\Local\Temp\cceMGvY8.s:794    .text.altcp_tcp_nagle_disabled:0000000000000038 .LBE54
C:\Users\stapi\AppData\Local\Temp\cceMGvY8.s:784    .text.altcp_tcp_nagle_disabled:0000000000000036 .LVL98
C:\Users\stapi\AppData\Local\Temp\cceMGvY8.s:822    .text.altcp_tcp_nagle_enable:0000000000000000 .LFB30
C:\Users\stapi\AppData\Local\Temp\cceMGvY8.s:888    .text.altcp_tcp_nagle_enable:0000000000000046 .LFE30
C:\Users\stapi\AppData\Local\Temp\cceMGvY8.s:9847   .debug_loc:0000000000000b5e .LLST43
C:\Users\stapi\AppData\Local\Temp\cceMGvY8.s:9865   .debug_loc:0000000000000b8a .LLST44
C:\Users\stapi\AppData\Local\Temp\cceMGvY8.s:847    .text.altcp_tcp_nagle_enable:0000000000000012 .LBB61
C:\Users\stapi\AppData\Local\Temp\cceMGvY8.s:871    .text.altcp_tcp_nagle_enable:0000000000000038 .LBE61
C:\Users\stapi\AppData\Local\Temp\cceMGvY8.s:9876   .debug_loc:0000000000000ba8 .LLST45
C:\Users\stapi\AppData\Local\Temp\cceMGvY8.s:848    .text.altcp_tcp_nagle_enable:0000000000000012 .LBB62
C:\Users\stapi\AppData\Local\Temp\cceMGvY8.s:870    .text.altcp_tcp_nagle_enable:0000000000000038 .LBE62
C:\Users\stapi\AppData\Local\Temp\cceMGvY8.s:860    .text.altcp_tcp_nagle_enable:0000000000000036 .LVL107
C:\Users\stapi\AppData\Local\Temp\cceMGvY8.s:894    .text.altcp_tcp_nagle_disable:0000000000000000 .LFB29
C:\Users\stapi\AppData\Local\Temp\cceMGvY8.s:960    .text.altcp_tcp_nagle_disable:0000000000000046 .LFE29
C:\Users\stapi\AppData\Local\Temp\cceMGvY8.s:9890   .debug_loc:0000000000000bc9 .LLST46
C:\Users\stapi\AppData\Local\Temp\cceMGvY8.s:9908   .debug_loc:0000000000000bf5 .LLST47
C:\Users\stapi\AppData\Local\Temp\cceMGvY8.s:919    .text.altcp_tcp_nagle_disable:0000000000000012 .LBB69
C:\Users\stapi\AppData\Local\Temp\cceMGvY8.s:943    .text.altcp_tcp_nagle_disable:0000000000000038 .LBE69
C:\Users\stapi\AppData\Local\Temp\cceMGvY8.s:9919   .debug_loc:0000000000000c13 .LLST48
C:\Users\stapi\AppData\Local\Temp\cceMGvY8.s:920    .text.altcp_tcp_nagle_disable:0000000000000012 .LBB70
C:\Users\stapi\AppData\Local\Temp\cceMGvY8.s:942    .text.altcp_tcp_nagle_disable:0000000000000038 .LBE70
C:\Users\stapi\AppData\Local\Temp\cceMGvY8.s:932    .text.altcp_tcp_nagle_disable:0000000000000036 .LVL114
C:\Users\stapi\AppData\Local\Temp\cceMGvY8.s:966    .text.altcp_tcp_sndqueuelen:0000000000000000 .LFB28
C:\Users\stapi\AppData\Local\Temp\cceMGvY8.s:1028   .text.altcp_tcp_sndqueuelen:0000000000000040 .LFE28
C:\Users\stapi\AppData\Local\Temp\cceMGvY8.s:9933   .debug_loc:0000000000000c34 .LLST49
C:\Users\stapi\AppData\Local\Temp\cceMGvY8.s:9969   .debug_loc:0000000000000c87 .LLST50
C:\Users\stapi\AppData\Local\Temp\cceMGvY8.s:984    .text.altcp_tcp_sndqueuelen:000000000000000e .LBB74
C:\Users\stapi\AppData\Local\Temp\cceMGvY8.s:1008   .text.altcp_tcp_sndqueuelen:0000000000000034 .LBE74
C:\Users\stapi\AppData\Local\Temp\cceMGvY8.s:9985   .debug_loc:0000000000000caa .LLST51
C:\Users\stapi\AppData\Local\Temp\cceMGvY8.s:997    .text.altcp_tcp_sndqueuelen:0000000000000032 .LVL120
C:\Users\stapi\AppData\Local\Temp\cceMGvY8.s:1034   .text.altcp_tcp_mss:0000000000000000 .LFB26
C:\Users\stapi\AppData\Local\Temp\cceMGvY8.s:1096   .text.altcp_tcp_mss:0000000000000040 .LFE26
C:\Users\stapi\AppData\Local\Temp\cceMGvY8.s:9999   .debug_loc:0000000000000ccb .LLST52
C:\Users\stapi\AppData\Local\Temp\cceMGvY8.s:10035  .debug_loc:0000000000000d1e .LLST53
C:\Users\stapi\AppData\Local\Temp\cceMGvY8.s:1052   .text.altcp_tcp_mss:000000000000000e .LBB78
C:\Users\stapi\AppData\Local\Temp\cceMGvY8.s:1076   .text.altcp_tcp_mss:0000000000000034 .LBE78
C:\Users\stapi\AppData\Local\Temp\cceMGvY8.s:10051  .debug_loc:0000000000000d41 .LLST54
C:\Users\stapi\AppData\Local\Temp\cceMGvY8.s:1065   .text.altcp_tcp_mss:0000000000000032 .LVL128
C:\Users\stapi\AppData\Local\Temp\cceMGvY8.s:1102   .text.altcp_tcp_connected:0000000000000000 .LFB5
C:\Users\stapi\AppData\Local\Temp\cceMGvY8.s:1212   .text.altcp_tcp_connected:000000000000007a .LFE5
C:\Users\stapi\AppData\Local\Temp\cceMGvY8.s:10065  .debug_loc:0000000000000d62 .LLST55
C:\Users\stapi\AppData\Local\Temp\cceMGvY8.s:10124  .debug_loc:0000000000000def .LLST56
C:\Users\stapi\AppData\Local\Temp\cceMGvY8.s:10164  .debug_loc:0000000000000e4d .LLST57
C:\Users\stapi\AppData\Local\Temp\cceMGvY8.s:10204  .debug_loc:0000000000000eab .LLST58
C:\Users\stapi\AppData\Local\Temp\cceMGvY8.s:1171   .text.altcp_tcp_connected:0000000000000062 .LBB82
C:\Users\stapi\AppData\Local\Temp\cceMGvY8.s:10263  .debug_loc:0000000000000f38 .LLST59
C:\Users\stapi\AppData\Local\Temp\cceMGvY8.s:10277  .debug_loc:0000000000000f59 .LLST60
C:\Users\stapi\AppData\Local\Temp\cceMGvY8.s:1196   .text.altcp_tcp_connected:000000000000006e .LVL146
C:\Users\stapi\AppData\Local\Temp\cceMGvY8.s:1134   .text.altcp_tcp_connected:0000000000000036 .LVL137
C:\Users\stapi\AppData\Local\Temp\cceMGvY8.s:1163   .text.altcp_tcp_connected:0000000000000060 .LVL142
C:\Users\stapi\AppData\Local\Temp\cceMGvY8.s:1218   .text.altcp_tcp_poll:0000000000000000 .LFB8
C:\Users\stapi\AppData\Local\Temp\cceMGvY8.s:1326   .text.altcp_tcp_poll:000000000000007a .LFE8
C:\Users\stapi\AppData\Local\Temp\cceMGvY8.s:10295  .debug_loc:0000000000000f85 .LLST61
C:\Users\stapi\AppData\Local\Temp\cceMGvY8.s:10354  .debug_loc:0000000000001012 .LLST62
C:\Users\stapi\AppData\Local\Temp\cceMGvY8.s:10394  .debug_loc:0000000000001070 .LLST63
C:\Users\stapi\AppData\Local\Temp\cceMGvY8.s:1285   .text.altcp_tcp_poll:0000000000000062 .LBB88
C:\Users\stapi\AppData\Local\Temp\cceMGvY8.s:10453  .debug_loc:00000000000010fd .LLST64
C:\Users\stapi\AppData\Local\Temp\cceMGvY8.s:10467  .debug_loc:000000000000111e .LLST65
C:\Users\stapi\AppData\Local\Temp\cceMGvY8.s:1310   .text.altcp_tcp_poll:000000000000006e .LVL160
C:\Users\stapi\AppData\Local\Temp\cceMGvY8.s:1249   .text.altcp_tcp_poll:0000000000000036 .LVL152
C:\Users\stapi\AppData\Local\Temp\cceMGvY8.s:1277   .text.altcp_tcp_poll:0000000000000060 .LVL156
C:\Users\stapi\AppData\Local\Temp\cceMGvY8.s:1332   .text.altcp_tcp_setprio:0000000000000000 .LFB32
C:\Users\stapi\AppData\Local\Temp\cceMGvY8.s:1396   .text.altcp_tcp_setprio:0000000000000048 .LFE32
C:\Users\stapi\AppData\Local\Temp\cceMGvY8.s:10485  .debug_loc:000000000000114a .LLST66
C:\Users\stapi\AppData\Local\Temp\cceMGvY8.s:10514  .debug_loc:000000000000118f .LLST67
C:\Users\stapi\AppData\Local\Temp\cceMGvY8.s:10543  .debug_loc:00000000000011d4 .LLST68
C:\Users\stapi\AppData\Local\Temp\cceMGvY8.s:1353   .text.altcp_tcp_setprio:000000000000000e .LBB97
C:\Users\stapi\AppData\Local\Temp\cceMGvY8.s:1376   .text.altcp_tcp_setprio:0000000000000034 .LBE97
C:\Users\stapi\AppData\Local\Temp\cceMGvY8.s:10572  .debug_loc:0000000000001212 .LLST69
C:\Users\stapi\AppData\Local\Temp\cceMGvY8.s:10586  .debug_loc:0000000000001233 .LLST70
C:\Users\stapi\AppData\Local\Temp\cceMGvY8.s:1354   .text.altcp_tcp_setprio:000000000000000e .LBB98
C:\Users\stapi\AppData\Local\Temp\cceMGvY8.s:1375   .text.altcp_tcp_setprio:0000000000000034 .LBE98
C:\Users\stapi\AppData\Local\Temp\cceMGvY8.s:1367   .text.altcp_tcp_setprio:0000000000000032 .LVL168
C:\Users\stapi\AppData\Local\Temp\cceMGvY8.s:1402   .text.altcp_tcp_close:0000000000000000 .LFB22
C:\Users\stapi\AppData\Local\Temp\cceMGvY8.s:1563   .text.altcp_tcp_close:00000000000000c8 .LFE22
C:\Users\stapi\AppData\Local\Temp\cceMGvY8.s:10593  .debug_loc:0000000000001246 .LLST71
C:\Users\stapi\AppData\Local\Temp\cceMGvY8.s:1443   .text.altcp_tcp_close:0000000000000036 .LBB105
C:\Users\stapi\AppData\Local\Temp\cceMGvY8.s:10619  .debug_loc:0000000000001288 .LLST72
C:\Users\stapi\AppData\Local\Temp\cceMGvY8.s:10630  .debug_loc:00000000000012a6 .LLST73
C:\Users\stapi\AppData\Local\Temp\cceMGvY8.s:10641  .debug_loc:00000000000012c4 .LLST74
C:\Users\stapi\AppData\Local\Temp\cceMGvY8.s:10652  .debug_loc:00000000000012e2 .LLST75
C:\Users\stapi\AppData\Local\Temp\cceMGvY8.s:1459   .text.altcp_tcp_close:000000000000003a .LBB108
C:\Users\stapi\AppData\Local\Temp\cceMGvY8.s:10663  .debug_loc:0000000000001300 .LLST76
C:\Users\stapi\AppData\Local\Temp\cceMGvY8.s:1474   .text.altcp_tcp_close:000000000000004a .LVL179
C:\Users\stapi\AppData\Local\Temp\cceMGvY8.s:1479   .text.altcp_tcp_close:0000000000000056 .LVL180
C:\Users\stapi\AppData\Local\Temp\cceMGvY8.s:1484   .text.altcp_tcp_close:0000000000000062 .LVL181
C:\Users\stapi\AppData\Local\Temp\cceMGvY8.s:1489   .text.altcp_tcp_close:000000000000006e .LVL182
C:\Users\stapi\AppData\Local\Temp\cceMGvY8.s:1495   .text.altcp_tcp_close:000000000000007e .LVL183
C:\Users\stapi\AppData\Local\Temp\cceMGvY8.s:1502   .text.altcp_tcp_close:0000000000000088 .LVL184
C:\Users\stapi\AppData\Local\Temp\cceMGvY8.s:1513   .text.altcp_tcp_close:0000000000000098 .LVL187
C:\Users\stapi\AppData\Local\Temp\cceMGvY8.s:1519   .text.altcp_tcp_close:00000000000000a8 .LVL188
C:\Users\stapi\AppData\Local\Temp\cceMGvY8.s:1550   .text.altcp_tcp_close:00000000000000c0 .LVL191
C:\Users\stapi\AppData\Local\Temp\cceMGvY8.s:1435   .text.altcp_tcp_close:0000000000000034 .LVL175
C:\Users\stapi\AppData\Local\Temp\cceMGvY8.s:1569   .text.altcp_tcp_set_poll:0000000000000000 .LFB16
C:\Users\stapi\AppData\Local\Temp\cceMGvY8.s:1638   .text.altcp_tcp_set_poll:0000000000000052 .LFE16
C:\Users\stapi\AppData\Local\Temp\cceMGvY8.s:10670  .debug_loc:0000000000001313 .LLST77
C:\Users\stapi\AppData\Local\Temp\cceMGvY8.s:10699  .debug_loc:0000000000001358 .LLST78
C:\Users\stapi\AppData\Local\Temp\cceMGvY8.s:10728  .debug_loc:000000000000139d .LLST79
C:\Users\stapi\AppData\Local\Temp\cceMGvY8.s:1590   .text.altcp_tcp_set_poll:000000000000000e .LBB120
C:\Users\stapi\AppData\Local\Temp\cceMGvY8.s:1613   .text.altcp_tcp_set_poll:0000000000000034 .LBE120
C:\Users\stapi\AppData\Local\Temp\cceMGvY8.s:10757  .debug_loc:00000000000013db .LLST80
C:\Users\stapi\AppData\Local\Temp\cceMGvY8.s:10771  .debug_loc:00000000000013fc .LLST81
C:\Users\stapi\AppData\Local\Temp\cceMGvY8.s:1591   .text.altcp_tcp_set_poll:000000000000000e .LBB121
C:\Users\stapi\AppData\Local\Temp\cceMGvY8.s:1612   .text.altcp_tcp_set_poll:0000000000000034 .LBE121
C:\Users\stapi\AppData\Local\Temp\cceMGvY8.s:1604   .text.altcp_tcp_set_poll:0000000000000032 .LVL198
C:\Users\stapi\AppData\Local\Temp\cceMGvY8.s:1644   .text.altcp_tcp_abort:0000000000000000 .LFB21
C:\Users\stapi\AppData\Local\Temp\cceMGvY8.s:1712   .text.altcp_tcp_abort:000000000000004a .LFE21
C:\Users\stapi\AppData\Local\Temp\cceMGvY8.s:10778  .debug_loc:000000000000140f .LLST82
C:\Users\stapi\AppData\Local\Temp\cceMGvY8.s:10807  .debug_loc:0000000000001454 .LLST83
C:\Users\stapi\AppData\Local\Temp\cceMGvY8.s:1665   .text.altcp_tcp_abort:000000000000000e .LBB128
C:\Users\stapi\AppData\Local\Temp\cceMGvY8.s:1687   .text.altcp_tcp_abort:0000000000000034 .LBE128
C:\Users\stapi\AppData\Local\Temp\cceMGvY8.s:10836  .debug_loc:0000000000001492 .LLST84
C:\Users\stapi\AppData\Local\Temp\cceMGvY8.s:1666   .text.altcp_tcp_abort:000000000000000e .LBB129
C:\Users\stapi\AppData\Local\Temp\cceMGvY8.s:1686   .text.altcp_tcp_abort:0000000000000034 .LBE129
C:\Users\stapi\AppData\Local\Temp\cceMGvY8.s:1678   .text.altcp_tcp_abort:0000000000000032 .LVL208
C:\Users\stapi\AppData\Local\Temp\cceMGvY8.s:1718   .text.altcp_tcp_listen:0000000000000000 .LFB20
C:\Users\stapi\AppData\Local\Temp\cceMGvY8.s:1804   .text.altcp_tcp_listen:0000000000000062 .LFE20
C:\Users\stapi\AppData\Local\Temp\cceMGvY8.s:10850  .debug_loc:00000000000014b3 .LLST85
C:\Users\stapi\AppData\Local\Temp\cceMGvY8.s:10872  .debug_loc:00000000000014ea .LLST86
C:\Users\stapi\AppData\Local\Temp\cceMGvY8.s:10908  .debug_loc:000000000000153d .LLST87
C:\Users\stapi\AppData\Local\Temp\cceMGvY8.s:1774   .text.altcp_tcp_listen:0000000000000042 .LBB133
C:\Users\stapi\AppData\Local\Temp\cceMGvY8.s:1802   .text.altcp_tcp_listen:0000000000000062 .LBE133
C:\Users\stapi\AppData\Local\Temp\cceMGvY8.s:10944  .debug_loc:0000000000001590 .LLST88
C:\Users\stapi\AppData\Local\Temp\cceMGvY8.s:10952  .debug_loc:00000000000015a4 .LLST89
C:\Users\stapi\AppData\Local\Temp\cceMGvY8.s:1785   .text.altcp_tcp_listen:000000000000004c .LVL221
C:\Users\stapi\AppData\Local\Temp\cceMGvY8.s:1797   .text.altcp_tcp_listen:0000000000000060 .LVL222
C:\Users\stapi\AppData\Local\Temp\cceMGvY8.s:1766   .text.altcp_tcp_listen:0000000000000040 .LVL219
C:\Users\stapi\AppData\Local\Temp\cceMGvY8.s:1810   .text.altcp_tcp_connect:0000000000000000 .LFB19
C:\Users\stapi\AppData\Local\Temp\cceMGvY8.s:1883   .text.altcp_tcp_connect:0000000000000054 .LFE19
C:\Users\stapi\AppData\Local\Temp\cceMGvY8.s:10959  .debug_loc:00000000000015b7 .LLST90
C:\Users\stapi\AppData\Local\Temp\cceMGvY8.s:10995  .debug_loc:000000000000160a .LLST91
C:\Users\stapi\AppData\Local\Temp\cceMGvY8.s:11024  .debug_loc:000000000000164f .LLST92
C:\Users\stapi\AppData\Local\Temp\cceMGvY8.s:11053  .debug_loc:0000000000001694 .LLST93
C:\Users\stapi\AppData\Local\Temp\cceMGvY8.s:1849   .text.altcp_tcp_connect:0000000000000034 .LBB137
C:\Users\stapi\AppData\Local\Temp\cceMGvY8.s:1870   .text.altcp_tcp_connect:0000000000000048 .LBE137
C:\Users\stapi\AppData\Local\Temp\cceMGvY8.s:11090  .debug_loc:00000000000016e8 .LLST94
C:\Users\stapi\AppData\Local\Temp\cceMGvY8.s:11112  .debug_loc:0000000000001718 .LLST95
C:\Users\stapi\AppData\Local\Temp\cceMGvY8.s:11126  .debug_loc:0000000000001739 .LLST96
C:\Users\stapi\AppData\Local\Temp\cceMGvY8.s:1868   .text.altcp_tcp_connect:0000000000000048 .LVL233
C:\Users\stapi\AppData\Local\Temp\cceMGvY8.s:1841   .text.altcp_tcp_connect:0000000000000032 .LVL228
C:\Users\stapi\AppData\Local\Temp\cceMGvY8.s:1889   .text.altcp_tcp_recved:0000000000000000 .LFB17
C:\Users\stapi\AppData\Local\Temp\cceMGvY8.s:1953   .text.altcp_tcp_recved:0000000000000048 .LFE17
C:\Users\stapi\AppData\Local\Temp\cceMGvY8.s:11138  .debug_loc:0000000000001758 .LLST97
C:\Users\stapi\AppData\Local\Temp\cceMGvY8.s:11167  .debug_loc:000000000000179d .LLST98
C:\Users\stapi\AppData\Local\Temp\cceMGvY8.s:11196  .debug_loc:00000000000017e2 .LLST99
C:\Users\stapi\AppData\Local\Temp\cceMGvY8.s:1910   .text.altcp_tcp_recved:000000000000000e .LBB144
C:\Users\stapi\AppData\Local\Temp\cceMGvY8.s:1933   .text.altcp_tcp_recved:0000000000000034 .LBE144
C:\Users\stapi\AppData\Local\Temp\cceMGvY8.s:11225  .debug_loc:0000000000001820 .LLST100
C:\Users\stapi\AppData\Local\Temp\cceMGvY8.s:11239  .debug_loc:0000000000001841 .LLST101
C:\Users\stapi\AppData\Local\Temp\cceMGvY8.s:1911   .text.altcp_tcp_recved:000000000000000e .LBB145
C:\Users\stapi\AppData\Local\Temp\cceMGvY8.s:1932   .text.altcp_tcp_recved:0000000000000034 .LBE145
C:\Users\stapi\AppData\Local\Temp\cceMGvY8.s:1924   .text.altcp_tcp_recved:0000000000000032 .LVL241
C:\Users\stapi\AppData\Local\Temp\cceMGvY8.s:1959   .text.altcp_tcp_bind:0000000000000000 .LFB18
C:\Users\stapi\AppData\Local\Temp\cceMGvY8.s:2024   .text.altcp_tcp_bind:000000000000004a .LFE18
C:\Users\stapi\AppData\Local\Temp\cceMGvY8.s:11246  .debug_loc:0000000000001854 .LLST102
C:\Users\stapi\AppData\Local\Temp\cceMGvY8.s:11282  .debug_loc:00000000000018a7 .LLST103
C:\Users\stapi\AppData\Local\Temp\cceMGvY8.s:11311  .debug_loc:00000000000018ec .LLST104
C:\Users\stapi\AppData\Local\Temp\cceMGvY8.s:1997   .text.altcp_tcp_bind:0000000000000034 .LBB149
C:\Users\stapi\AppData\Local\Temp\cceMGvY8.s:2011   .text.altcp_tcp_bind:000000000000003e .LBE149
C:\Users\stapi\AppData\Local\Temp\cceMGvY8.s:11340  .debug_loc:0000000000001931 .LLST105
C:\Users\stapi\AppData\Local\Temp\cceMGvY8.s:2009   .text.altcp_tcp_bind:000000000000003e .LVL253
C:\Users\stapi\AppData\Local\Temp\cceMGvY8.s:1989   .text.altcp_tcp_bind:0000000000000032 .LVL250
C:\Users\stapi\AppData\Local\Temp\cceMGvY8.s:2030   .text.altcp_tcp_shutdown:0000000000000000 .LFB23
C:\Users\stapi\AppData\Local\Temp\cceMGvY8.s:2095   .text.altcp_tcp_shutdown:000000000000004a .LFE23
C:\Users\stapi\AppData\Local\Temp\cceMGvY8.s:11352  .debug_loc:0000000000001950 .LLST106
C:\Users\stapi\AppData\Local\Temp\cceMGvY8.s:11388  .debug_loc:00000000000019a3 .LLST107
C:\Users\stapi\AppData\Local\Temp\cceMGvY8.s:11417  .debug_loc:00000000000019e8 .LLST108
C:\Users\stapi\AppData\Local\Temp\cceMGvY8.s:2068   .text.altcp_tcp_shutdown:0000000000000034 .LBB153
C:\Users\stapi\AppData\Local\Temp\cceMGvY8.s:2082   .text.altcp_tcp_shutdown:000000000000003e .LBE153
C:\Users\stapi\AppData\Local\Temp\cceMGvY8.s:11446  .debug_loc:0000000000001a2d .LLST109
C:\Users\stapi\AppData\Local\Temp\cceMGvY8.s:2080   .text.altcp_tcp_shutdown:000000000000003e .LVL263
C:\Users\stapi\AppData\Local\Temp\cceMGvY8.s:2060   .text.altcp_tcp_shutdown:0000000000000032 .LVL260
C:\Users\stapi\AppData\Local\Temp\cceMGvY8.s:2101   .text.altcp_tcp_write:0000000000000000 .LFB24
C:\Users\stapi\AppData\Local\Temp\cceMGvY8.s:2167   .text.altcp_tcp_write:000000000000004a .LFE24
C:\Users\stapi\AppData\Local\Temp\cceMGvY8.s:11458  .debug_loc:0000000000001a4c .LLST110
C:\Users\stapi\AppData\Local\Temp\cceMGvY8.s:11494  .debug_loc:0000000000001a9f .LLST111
C:\Users\stapi\AppData\Local\Temp\cceMGvY8.s:11523  .debug_loc:0000000000001ae4 .LLST112
C:\Users\stapi\AppData\Local\Temp\cceMGvY8.s:11552  .debug_loc:0000000000001b29 .LLST113
C:\Users\stapi\AppData\Local\Temp\cceMGvY8.s:2140   .text.altcp_tcp_write:0000000000000034 .LBB157
C:\Users\stapi\AppData\Local\Temp\cceMGvY8.s:2154   .text.altcp_tcp_write:000000000000003e .LBE157
C:\Users\stapi\AppData\Local\Temp\cceMGvY8.s:11581  .debug_loc:0000000000001b6e .LLST114
C:\Users\stapi\AppData\Local\Temp\cceMGvY8.s:2152   .text.altcp_tcp_write:000000000000003e .LVL274
C:\Users\stapi\AppData\Local\Temp\cceMGvY8.s:2132   .text.altcp_tcp_write:0000000000000032 .LVL271
C:\Users\stapi\AppData\Local\Temp\cceMGvY8.s:2173   .text.altcp_tcp_output:0000000000000000 .LFB25
C:\Users\stapi\AppData\Local\Temp\cceMGvY8.s:2236   .text.altcp_tcp_output:000000000000004a .LFE25
C:\Users\stapi\AppData\Local\Temp\cceMGvY8.s:11593  .debug_loc:0000000000001b8d .LLST115
C:\Users\stapi\AppData\Local\Temp\cceMGvY8.s:2209   .text.altcp_tcp_output:0000000000000034 .LBB161
C:\Users\stapi\AppData\Local\Temp\cceMGvY8.s:2223   .text.altcp_tcp_output:000000000000003e .LBE161
C:\Users\stapi\AppData\Local\Temp\cceMGvY8.s:11629  .debug_loc:0000000000001be0 .LLST116
C:\Users\stapi\AppData\Local\Temp\cceMGvY8.s:2221   .text.altcp_tcp_output:000000000000003e .LVL282
C:\Users\stapi\AppData\Local\Temp\cceMGvY8.s:2201   .text.altcp_tcp_output:0000000000000032 .LVL279
C:\Users\stapi\AppData\Local\Temp\cceMGvY8.s:2242   .text.altcp_tcp_sndbuf:0000000000000000 .LFB27
C:\Users\stapi\AppData\Local\Temp\cceMGvY8.s:2311   .text.altcp_tcp_sndbuf:0000000000000050 .LFE27
C:\Users\stapi\AppData\Local\Temp\cceMGvY8.s:11641  .debug_loc:0000000000001bff .LLST117
C:\Users\stapi\AppData\Local\Temp\cceMGvY8.s:2280   .text.altcp_tcp_sndbuf:0000000000000034 .LBB165
C:\Users\stapi\AppData\Local\Temp\cceMGvY8.s:2303   .text.altcp_tcp_sndbuf:000000000000004c .LBE165
C:\Users\stapi\AppData\Local\Temp\cceMGvY8.s:11677  .debug_loc:0000000000001c52 .LLST118
C:\Users\stapi\AppData\Local\Temp\cceMGvY8.s:2270   .text.altcp_tcp_sndbuf:0000000000000032 .LVL287
C:\Users\stapi\AppData\Local\Temp\cceMGvY8.s:12220  .debug_str:00000000000006f3 .LASF255
C:\Users\stapi\AppData\Local\Temp\cceMGvY8.s:12084  .debug_str:0000000000000380 .LASF256
C:\Users\stapi\AppData\Local\Temp\cceMGvY8.s:12402  .debug_str:0000000000000bf7 .LASF257
C:\Users\stapi\AppData\Local\Temp\cceMGvY8.s:12266  .debug_str:00000000000008b2 .LASF258
C:\Users\stapi\AppData\Local\Temp\cceMGvY8.s:12094  .debug_str:00000000000003ba .LASF259
C:\Users\stapi\AppData\Local\Temp\cceMGvY8.s:12438  .debug_str:0000000000000ccc .LASF260
C:\Users\stapi\AppData\Local\Temp\cceMGvY8.s:12382  .debug_str:0000000000000b79 .LASF261
C:\Users\stapi\AppData\Local\Temp\cceMGvY8.s:12252  .debug_str:000000000000084d .LASF262
C:\Users\stapi\AppData\Local\Temp\cceMGvY8.s:12072  .debug_str:000000000000032f .LASF263
C:\Users\stapi\AppData\Local\Temp\cceMGvY8.s:12480  .debug_str:0000000000000eb0 .LASF264
C:\Users\stapi\AppData\Local\Temp\cceMGvY8.s:12038  .debug_str:0000000000000264 .LASF265
C:\Users\stapi\AppData\Local\Temp\cceMGvY8.s:12044  .debug_str:0000000000000281 .LASF266
C:\Users\stapi\AppData\Local\Temp\cceMGvY8.s:12010  .debug_str:00000000000001a5 .LASF267
C:\Users\stapi\AppData\Local\Temp\cceMGvY8.s:12096  .debug_str:00000000000003c5 .LASF268
C:\Users\stapi\AppData\Local\Temp\cceMGvY8.s:12206  .debug_str:00000000000006ac .LASF269
C:\Users\stapi\AppData\Local\Temp\cceMGvY8.s:12304  .debug_str:000000000000099f .LASF270
C:\Users\stapi\AppData\Local\Temp\cceMGvY8.s:12296  .debug_str:0000000000000977 .LASF271
C:\Users\stapi\AppData\Local\Temp\cceMGvY8.s:11960  .debug_str:000000000000007e .LASF272
C:\Users\stapi\AppData\Local\Temp\cceMGvY8.s:12052  .debug_str:00000000000002b8 .LASF273
C:\Users\stapi\AppData\Local\Temp\cceMGvY8.s:12390  .debug_str:0000000000000bac .LASF274
C:\Users\stapi\AppData\Local\Temp\cceMGvY8.s:12446  .debug_str:0000000000000ceb .LASF275
C:\Users\stapi\AppData\Local\Temp\cceMGvY8.s:12154  .debug_str:0000000000000574 .LASF276
C:\Users\stapi\AppData\Local\Temp\cceMGvY8.s:342    .text.altcp_tcp_get_tcp_addrinfo:0000000000000000 .LVL41
C:\Users\stapi\AppData\Local\Temp\cceMGvY8.s:365    .text.altcp_tcp_get_tcp_addrinfo:000000000000001a .LVL45
C:\Users\stapi\AppData\Local\Temp\cceMGvY8.s:378    .text.altcp_tcp_get_tcp_addrinfo:0000000000000034 .LVL48
C:\Users\stapi\AppData\Local\Temp\cceMGvY8.s:387    .text.altcp_tcp_get_tcp_addrinfo:0000000000000036 .LVL49
C:\Users\stapi\AppData\Local\Temp\cceMGvY8.s:395    .text.altcp_tcp_get_tcp_addrinfo:0000000000000046 .LVL51
C:\Users\stapi\AppData\Local\Temp\cceMGvY8.s:399    .text.altcp_tcp_get_tcp_addrinfo:0000000000000048 .LVL52
C:\Users\stapi\AppData\Local\Temp\cceMGvY8.s:363    .text.altcp_tcp_get_tcp_addrinfo:0000000000000016 .LVL44
C:\Users\stapi\AppData\Local\Temp\cceMGvY8.s:368    .text.altcp_tcp_get_tcp_addrinfo:0000000000000022 .LVL46
C:\Users\stapi\AppData\Local\Temp\cceMGvY8.s:361    .text.altcp_tcp_get_tcp_addrinfo:0000000000000012 .LVL43
C:\Users\stapi\AppData\Local\Temp\cceMGvY8.s:352    .text.altcp_tcp_get_tcp_addrinfo:000000000000000a .LVL42
C:\Users\stapi\AppData\Local\Temp\cceMGvY8.s:2417   .text.altcp_tcp_wrap:0000000000000000 .LVL305
C:\Users\stapi\AppData\Local\Temp\cceMGvY8.s:2456   .text.altcp_tcp_wrap:0000000000000030 .LVL310
C:\Users\stapi\AppData\Local\Temp\cceMGvY8.s:2435   .text.altcp_tcp_wrap:0000000000000018 .LVL307
C:\Users\stapi\AppData\Local\Temp\cceMGvY8.s:2440   .text.altcp_tcp_wrap:000000000000001a .LVL308
C:\Users\stapi\AppData\Local\Temp\cceMGvY8.s:2398   .text.altcp_tcp_alloc:0000000000000000 .LVL302
C:\Users\stapi\AppData\Local\Temp\cceMGvY8.s:2403   .text.altcp_tcp_alloc:0000000000000002 .LVL303
C:\Users\stapi\AppData\Local\Temp\cceMGvY8.s:2321   .text.altcp_tcp_new_ip_type:0000000000000000 .LVL293
C:\Users\stapi\AppData\Local\Temp\cceMGvY8.s:2364   .text.altcp_tcp_new_ip_type:0000000000000038 .LVL299
C:\Users\stapi\AppData\Local\Temp\cceMGvY8.s:2377   .text.altcp_tcp_new_ip_type:0000000000000042 .LVL300
C:\Users\stapi\AppData\Local\Temp\cceMGvY8.s:2343   .text.altcp_tcp_new_ip_type:0000000000000020 .LVL296
C:\Users\stapi\AppData\Local\Temp\cceMGvY8.s:2348   .text.altcp_tcp_new_ip_type:0000000000000022 .LVL297
C:\Users\stapi\AppData\Local\Temp\cceMGvY8.s:17     .text.altcp_tcp_setup_callbacks:0000000000000000 .LVL0
C:\Users\stapi\AppData\Local\Temp\cceMGvY8.s:29     .text.altcp_tcp_setup_callbacks:000000000000000e .LVL2
C:\Users\stapi\AppData\Local\Temp\cceMGvY8.s:27     .text.altcp_tcp_setup_callbacks:000000000000000c .LVL1
C:\Users\stapi\AppData\Local\Temp\cceMGvY8.s:162    .text.altcp_tcp_err:0000000000000000 .LVL17
C:\Users\stapi\AppData\Local\Temp\cceMGvY8.s:183    .text.altcp_tcp_err:0000000000000016 .LVL18
C:\Users\stapi\AppData\Local\Temp\cceMGvY8.s:196    .text.altcp_tcp_err:000000000000002a .LVL21
C:\Users\stapi\AppData\Local\Temp\cceMGvY8.s:185    .text.altcp_tcp_err:0000000000000018 .LVL19
C:\Users\stapi\AppData\Local\Temp\cceMGvY8.s:222    .text.altcp_tcp_recv:0000000000000000 .LVL22
C:\Users\stapi\AppData\Local\Temp\cceMGvY8.s:234    .text.altcp_tcp_recv:000000000000000c .LVL24
C:\Users\stapi\AppData\Local\Temp\cceMGvY8.s:261    .text.altcp_tcp_recv:000000000000003a .LVL29
C:\Users\stapi\AppData\Local\Temp\cceMGvY8.s:291    .text.altcp_tcp_recv:0000000000000064 .LVL35
C:\Users\stapi\AppData\Local\Temp\cceMGvY8.s:320    .text.altcp_tcp_recv:000000000000007a .LVL39
C:\Users\stapi\AppData\Local\Temp\cceMGvY8.s:247    .text.altcp_tcp_recv:000000000000001c .LVL26
C:\Users\stapi\AppData\Local\Temp\cceMGvY8.s:276    .text.altcp_tcp_recv:0000000000000046 .LVL31
C:\Users\stapi\AppData\Local\Temp\cceMGvY8.s:308    .text.altcp_tcp_recv:000000000000006c .LVL37
C:\Users\stapi\AppData\Local\Temp\cceMGvY8.s:251    .text.altcp_tcp_recv:0000000000000028 .LVL27
C:\Users\stapi\AppData\Local\Temp\cceMGvY8.s:278    .text.altcp_tcp_recv:000000000000004a .LVL32
C:\Users\stapi\AppData\Local\Temp\cceMGvY8.s:281    .text.altcp_tcp_recv:0000000000000052 .LVL33
C:\Users\stapi\AppData\Local\Temp\cceMGvY8.s:306    .text.altcp_tcp_recv:000000000000006a .LVL36
C:\Users\stapi\AppData\Local\Temp\cceMGvY8.s:245    .text.altcp_tcp_recv:0000000000000018 .LVL25
C:\Users\stapi\AppData\Local\Temp\cceMGvY8.s:274    .text.altcp_tcp_recv:0000000000000042 .LVL30
C:\Users\stapi\AppData\Local\Temp\cceMGvY8.s:230    .text.altcp_tcp_recv:000000000000000a .LVL23
C:\Users\stapi\AppData\Local\Temp\cceMGvY8.s:65     .text.altcp_tcp_accept:0000000000000000 .LVL7
C:\Users\stapi\AppData\Local\Temp\cceMGvY8.s:144    .text.altcp_tcp_accept:0000000000000052 .LVL15
C:\Users\stapi\AppData\Local\Temp\cceMGvY8.s:150    .text.altcp_tcp_accept:0000000000000056 .LVL16
C:\Users\stapi\AppData\Local\Temp\cceMGvY8.s:132    .text.altcp_tcp_accept:0000000000000048 .LVL14
C:\Users\stapi\AppData\Local\Temp\cceMGvY8.s:93     .text.altcp_tcp_accept:0000000000000020 .LVL9
C:\Users\stapi\AppData\Local\Temp\cceMGvY8.s:100    .text.altcp_tcp_accept:0000000000000024 .LVL10
C:\Users\stapi\AppData\Local\Temp\cceMGvY8.s:122    .text.altcp_tcp_accept:0000000000000040 .LVL12
C:\Users\stapi\AppData\Local\Temp\cceMGvY8.s:412    .text.altcp_tcp_sent:0000000000000000 .LVL53
C:\Users\stapi\AppData\Local\Temp\cceMGvY8.s:434    .text.altcp_tcp_sent:000000000000001e .LVL55
C:\Users\stapi\AppData\Local\Temp\cceMGvY8.s:447    .text.altcp_tcp_sent:0000000000000038 .LVL58
C:\Users\stapi\AppData\Local\Temp\cceMGvY8.s:463    .text.altcp_tcp_sent:0000000000000048 .LVL60
C:\Users\stapi\AppData\Local\Temp\cceMGvY8.s:476    .text.altcp_tcp_sent:0000000000000062 .LVL63
C:\Users\stapi\AppData\Local\Temp\cceMGvY8.s:492    .text.altcp_tcp_sent:0000000000000066 .LVL64
C:\Users\stapi\AppData\Local\Temp\cceMGvY8.s:511    .text.altcp_tcp_sent:0000000000000076 .LVL67
C:\Users\stapi\AppData\Local\Temp\cceMGvY8.s:515    .text.altcp_tcp_sent:0000000000000078 .LVL68
C:\Users\stapi\AppData\Local\Temp\cceMGvY8.s:432    .text.altcp_tcp_sent:000000000000001a .LVL54
C:\Users\stapi\AppData\Local\Temp\cceMGvY8.s:461    .text.altcp_tcp_sent:0000000000000044 .LVL59
C:\Users\stapi\AppData\Local\Temp\cceMGvY8.s:501    .text.altcp_tcp_sent:000000000000006c .LVL65
C:\Users\stapi\AppData\Local\Temp\cceMGvY8.s:437    .text.altcp_tcp_sent:0000000000000026 .LVL56
C:\Users\stapi\AppData\Local\Temp\cceMGvY8.s:466    .text.altcp_tcp_sent:0000000000000050 .LVL61
C:\Users\stapi\AppData\Local\Temp\cceMGvY8.s:528    .text.altcp_tcp_get_port:0000000000000000 .LVL69
C:\Users\stapi\AppData\Local\Temp\cceMGvY8.s:554    .text.altcp_tcp_get_port:000000000000001a .LVL73
C:\Users\stapi\AppData\Local\Temp\cceMGvY8.s:566    .text.altcp_tcp_get_port:0000000000000034 .LVL75
C:\Users\stapi\AppData\Local\Temp\cceMGvY8.s:583    .text.altcp_tcp_get_port:0000000000000038 .LVL76
C:\Users\stapi\AppData\Local\Temp\cceMGvY8.s:599    .text.altcp_tcp_get_port:0000000000000048 .LVL77
C:\Users\stapi\AppData\Local\Temp\cceMGvY8.s:604    .text.altcp_tcp_get_port:000000000000004a .LVL78
C:\Users\stapi\AppData\Local\Temp\cceMGvY8.s:552    .text.altcp_tcp_get_port:0000000000000016 .LVL72
C:\Users\stapi\AppData\Local\Temp\cceMGvY8.s:534    .text.altcp_tcp_get_port:0000000000000002 .LVL70
C:\Users\stapi\AppData\Local\Temp\cceMGvY8.s:545    .text.altcp_tcp_get_port:000000000000000e .LVL71
C:\Users\stapi\AppData\Local\Temp\cceMGvY8.s:618    .text.altcp_tcp_get_ip:0000000000000000 .LVL79
C:\Users\stapi\AppData\Local\Temp\cceMGvY8.s:629    .text.altcp_tcp_get_ip:0000000000000008 .LVL80
C:\Users\stapi\AppData\Local\Temp\cceMGvY8.s:682    .text.altcp_tcp_get_ip:0000000000000040 .LVL87
C:\Users\stapi\AppData\Local\Temp\cceMGvY8.s:687    .text.altcp_tcp_get_ip:0000000000000042 .LVL88
C:\Users\stapi\AppData\Local\Temp\cceMGvY8.s:646    .text.altcp_tcp_get_ip:000000000000001a .LVL82
C:\Users\stapi\AppData\Local\Temp\cceMGvY8.s:660    .text.altcp_tcp_get_ip:0000000000000038 .LVL85
C:\Users\stapi\AppData\Local\Temp\cceMGvY8.s:648    .text.altcp_tcp_get_ip:000000000000001e .LVL83
C:\Users\stapi\AppData\Local\Temp\cceMGvY8.s:680    .text.altcp_tcp_get_ip:000000000000003e .LVL86
C:\Users\stapi\AppData\Local\Temp\cceMGvY8.s:639    .text.altcp_tcp_get_ip:0000000000000012 .LVL81
C:\Users\stapi\AppData\Local\Temp\cceMGvY8.s:701    .text.altcp_tcp_dealloc:0000000000000000 .LVL89
C:\Users\stapi\AppData\Local\Temp\cceMGvY8.s:720    .text.altcp_tcp_dealloc:0000000000000018 .LVL91
C:\Users\stapi\AppData\Local\Temp\cceMGvY8.s:732    .text.altcp_tcp_dealloc:0000000000000032 .LVL93
C:\Users\stapi\AppData\Local\Temp\cceMGvY8.s:712    .text.altcp_tcp_dealloc:000000000000000c .LVL90
C:\Users\stapi\AppData\Local\Temp\cceMGvY8.s:749    .text.altcp_tcp_nagle_disabled:0000000000000000 .LVL94
C:\Users\stapi\AppData\Local\Temp\cceMGvY8.s:778    .text.altcp_tcp_nagle_disabled:000000000000001e .LVL97
C:\Users\stapi\AppData\Local\Temp\cceMGvY8.s:790    .text.altcp_tcp_nagle_disabled:0000000000000038 .LVL99
C:\Users\stapi\AppData\Local\Temp\cceMGvY8.s:804    .text.altcp_tcp_nagle_disabled:000000000000003c .LVL100
C:\Users\stapi\AppData\Local\Temp\cceMGvY8.s:807    .text.altcp_tcp_nagle_disabled:0000000000000042 .LVL101
C:\Users\stapi\AppData\Local\Temp\cceMGvY8.s:812    .text.altcp_tcp_nagle_disabled:0000000000000044 .LVL102
C:\Users\stapi\AppData\Local\Temp\cceMGvY8.s:759    .text.altcp_tcp_nagle_disabled:0000000000000006 .LVL95
C:\Users\stapi\AppData\Local\Temp\cceMGvY8.s:770    .text.altcp_tcp_nagle_disabled:0000000000000012 .LVL96
C:\Users\stapi\AppData\Local\Temp\cceMGvY8.s:825    .text.altcp_tcp_nagle_enable:0000000000000000 .LVL103
C:\Users\stapi\AppData\Local\Temp\cceMGvY8.s:854    .text.altcp_tcp_nagle_enable:000000000000001e .LVL106
C:\Users\stapi\AppData\Local\Temp\cceMGvY8.s:866    .text.altcp_tcp_nagle_enable:0000000000000038 .LVL108
C:\Users\stapi\AppData\Local\Temp\cceMGvY8.s:835    .text.altcp_tcp_nagle_enable:0000000000000006 .LVL104
C:\Users\stapi\AppData\Local\Temp\cceMGvY8.s:883    .text.altcp_tcp_nagle_enable:0000000000000044 .LVL109
C:\Users\stapi\AppData\Local\Temp\cceMGvY8.s:846    .text.altcp_tcp_nagle_enable:0000000000000012 .LVL105
C:\Users\stapi\AppData\Local\Temp\cceMGvY8.s:897    .text.altcp_tcp_nagle_disable:0000000000000000 .LVL110
C:\Users\stapi\AppData\Local\Temp\cceMGvY8.s:926    .text.altcp_tcp_nagle_disable:000000000000001e .LVL113
C:\Users\stapi\AppData\Local\Temp\cceMGvY8.s:938    .text.altcp_tcp_nagle_disable:0000000000000038 .LVL115
C:\Users\stapi\AppData\Local\Temp\cceMGvY8.s:907    .text.altcp_tcp_nagle_disable:0000000000000006 .LVL111
C:\Users\stapi\AppData\Local\Temp\cceMGvY8.s:955    .text.altcp_tcp_nagle_disable:0000000000000044 .LVL116
C:\Users\stapi\AppData\Local\Temp\cceMGvY8.s:918    .text.altcp_tcp_nagle_disable:0000000000000012 .LVL112
C:\Users\stapi\AppData\Local\Temp\cceMGvY8.s:969    .text.altcp_tcp_sndqueuelen:0000000000000000 .LVL117
C:\Users\stapi\AppData\Local\Temp\cceMGvY8.s:991    .text.altcp_tcp_sndqueuelen:000000000000001a .LVL119
C:\Users\stapi\AppData\Local\Temp\cceMGvY8.s:1003   .text.altcp_tcp_sndqueuelen:0000000000000034 .LVL121
C:\Users\stapi\AppData\Local\Temp\cceMGvY8.s:1018   .text.altcp_tcp_sndqueuelen:000000000000003a .LVL122
C:\Users\stapi\AppData\Local\Temp\cceMGvY8.s:1020   .text.altcp_tcp_sndqueuelen:000000000000003c .LVL123
C:\Users\stapi\AppData\Local\Temp\cceMGvY8.s:1024   .text.altcp_tcp_sndqueuelen:000000000000003e .LVL124
C:\Users\stapi\AppData\Local\Temp\cceMGvY8.s:983    .text.altcp_tcp_sndqueuelen:000000000000000e .LVL118
C:\Users\stapi\AppData\Local\Temp\cceMGvY8.s:1037   .text.altcp_tcp_mss:0000000000000000 .LVL125
C:\Users\stapi\AppData\Local\Temp\cceMGvY8.s:1059   .text.altcp_tcp_mss:000000000000001a .LVL127
C:\Users\stapi\AppData\Local\Temp\cceMGvY8.s:1071   .text.altcp_tcp_mss:0000000000000034 .LVL129
C:\Users\stapi\AppData\Local\Temp\cceMGvY8.s:1086   .text.altcp_tcp_mss:000000000000003a .LVL130
C:\Users\stapi\AppData\Local\Temp\cceMGvY8.s:1088   .text.altcp_tcp_mss:000000000000003c .LVL131
C:\Users\stapi\AppData\Local\Temp\cceMGvY8.s:1092   .text.altcp_tcp_mss:000000000000003e .LVL132
C:\Users\stapi\AppData\Local\Temp\cceMGvY8.s:1051   .text.altcp_tcp_mss:000000000000000e .LVL126
C:\Users\stapi\AppData\Local\Temp\cceMGvY8.s:1105   .text.altcp_tcp_connected:0000000000000000 .LVL133
C:\Users\stapi\AppData\Local\Temp\cceMGvY8.s:1127   .text.altcp_tcp_connected:000000000000001e .LVL135
C:\Users\stapi\AppData\Local\Temp\cceMGvY8.s:1140   .text.altcp_tcp_connected:0000000000000038 .LVL138
C:\Users\stapi\AppData\Local\Temp\cceMGvY8.s:1156   .text.altcp_tcp_connected:0000000000000048 .LVL140
C:\Users\stapi\AppData\Local\Temp\cceMGvY8.s:1169   .text.altcp_tcp_connected:0000000000000062 .LVL143
C:\Users\stapi\AppData\Local\Temp\cceMGvY8.s:1185   .text.altcp_tcp_connected:0000000000000066 .LVL144
C:\Users\stapi\AppData\Local\Temp\cceMGvY8.s:1204   .text.altcp_tcp_connected:0000000000000076 .LVL147
C:\Users\stapi\AppData\Local\Temp\cceMGvY8.s:1208   .text.altcp_tcp_connected:0000000000000078 .LVL148
C:\Users\stapi\AppData\Local\Temp\cceMGvY8.s:1125   .text.altcp_tcp_connected:000000000000001a .LVL134
C:\Users\stapi\AppData\Local\Temp\cceMGvY8.s:1154   .text.altcp_tcp_connected:0000000000000044 .LVL139
C:\Users\stapi\AppData\Local\Temp\cceMGvY8.s:1194   .text.altcp_tcp_connected:000000000000006c .LVL145
C:\Users\stapi\AppData\Local\Temp\cceMGvY8.s:1130   .text.altcp_tcp_connected:0000000000000026 .LVL136
C:\Users\stapi\AppData\Local\Temp\cceMGvY8.s:1159   .text.altcp_tcp_connected:0000000000000050 .LVL141
C:\Users\stapi\AppData\Local\Temp\cceMGvY8.s:1221   .text.altcp_tcp_poll:0000000000000000 .LVL149
C:\Users\stapi\AppData\Local\Temp\cceMGvY8.s:1243   .text.altcp_tcp_poll:000000000000001e .LVL151
C:\Users\stapi\AppData\Local\Temp\cceMGvY8.s:1255   .text.altcp_tcp_poll:0000000000000038 .LVL153
C:\Users\stapi\AppData\Local\Temp\cceMGvY8.s:1271   .text.altcp_tcp_poll:0000000000000048 .LVL155
C:\Users\stapi\AppData\Local\Temp\cceMGvY8.s:1283   .text.altcp_tcp_poll:0000000000000062 .LVL157
C:\Users\stapi\AppData\Local\Temp\cceMGvY8.s:1299   .text.altcp_tcp_poll:0000000000000066 .LVL158
C:\Users\stapi\AppData\Local\Temp\cceMGvY8.s:1318   .text.altcp_tcp_poll:0000000000000076 .LVL161
C:\Users\stapi\AppData\Local\Temp\cceMGvY8.s:1322   .text.altcp_tcp_poll:0000000000000078 .LVL162
C:\Users\stapi\AppData\Local\Temp\cceMGvY8.s:1241   .text.altcp_tcp_poll:000000000000001a .LVL150
C:\Users\stapi\AppData\Local\Temp\cceMGvY8.s:1269   .text.altcp_tcp_poll:0000000000000044 .LVL154
C:\Users\stapi\AppData\Local\Temp\cceMGvY8.s:1308   .text.altcp_tcp_poll:000000000000006c .LVL159
C:\Users\stapi\AppData\Local\Temp\cceMGvY8.s:1335   .text.altcp_tcp_setprio:0000000000000000 .LVL163
C:\Users\stapi\AppData\Local\Temp\cceMGvY8.s:1361   .text.altcp_tcp_setprio:000000000000001a .LVL167
C:\Users\stapi\AppData\Local\Temp\cceMGvY8.s:1373   .text.altcp_tcp_setprio:0000000000000034 .LVL169
C:\Users\stapi\AppData\Local\Temp\cceMGvY8.s:1384   .text.altcp_tcp_setprio:0000000000000036 .LVL170
C:\Users\stapi\AppData\Local\Temp\cceMGvY8.s:1392   .text.altcp_tcp_setprio:0000000000000046 .LVL172
C:\Users\stapi\AppData\Local\Temp\cceMGvY8.s:1359   .text.altcp_tcp_setprio:0000000000000016 .LVL166
C:\Users\stapi\AppData\Local\Temp\cceMGvY8.s:1345   .text.altcp_tcp_setprio:000000000000000a .LVL164
C:\Users\stapi\AppData\Local\Temp\cceMGvY8.s:1351   .text.altcp_tcp_setprio:000000000000000e .LVL165
C:\Users\stapi\AppData\Local\Temp\cceMGvY8.s:1405   .text.altcp_tcp_close:0000000000000000 .LVL173
C:\Users\stapi\AppData\Local\Temp\cceMGvY8.s:1429   .text.altcp_tcp_close:000000000000001c .LVL174
C:\Users\stapi\AppData\Local\Temp\cceMGvY8.s:1535   .text.altcp_tcp_close:00000000000000b2 .LVL189
C:\Users\stapi\AppData\Local\Temp\cceMGvY8.s:1555   .text.altcp_tcp_close:00000000000000c4 .LVL192
C:\Users\stapi\AppData\Local\Temp\cceMGvY8.s:1442   .text.altcp_tcp_close:0000000000000036 .LVL176
C:\Users\stapi\AppData\Local\Temp\cceMGvY8.s:1452   .text.altcp_tcp_close:0000000000000038 .LVL177
C:\Users\stapi\AppData\Local\Temp\cceMGvY8.s:1504   .text.altcp_tcp_close:000000000000008a .LVL185
C:\Users\stapi\AppData\Local\Temp\cceMGvY8.s:1511   .text.altcp_tcp_close:0000000000000090 .LVL186
C:\Users\stapi\AppData\Local\Temp\cceMGvY8.s:1544   .text.altcp_tcp_close:00000000000000b6 .LVL190
C:\Users\stapi\AppData\Local\Temp\cceMGvY8.s:1468   .text.altcp_tcp_close:0000000000000042 .LVL178
C:\Users\stapi\AppData\Local\Temp\cceMGvY8.s:1572   .text.altcp_tcp_set_poll:0000000000000000 .LVL193
C:\Users\stapi\AppData\Local\Temp\cceMGvY8.s:1598   .text.altcp_tcp_set_poll:000000000000001a .LVL197
C:\Users\stapi\AppData\Local\Temp\cceMGvY8.s:1610   .text.altcp_tcp_set_poll:0000000000000034 .LVL199
C:\Users\stapi\AppData\Local\Temp\cceMGvY8.s:1617   .text.altcp_tcp_set_poll:0000000000000036 .LVL200
C:\Users\stapi\AppData\Local\Temp\cceMGvY8.s:1634   .text.altcp_tcp_set_poll:0000000000000050 .LVL203
C:\Users\stapi\AppData\Local\Temp\cceMGvY8.s:1596   .text.altcp_tcp_set_poll:0000000000000016 .LVL196
C:\Users\stapi\AppData\Local\Temp\cceMGvY8.s:1625   .text.altcp_tcp_set_poll:000000000000003c .LVL201
C:\Users\stapi\AppData\Local\Temp\cceMGvY8.s:1582   .text.altcp_tcp_set_poll:000000000000000a .LVL194
C:\Users\stapi\AppData\Local\Temp\cceMGvY8.s:1588   .text.altcp_tcp_set_poll:000000000000000e .LVL195
C:\Users\stapi\AppData\Local\Temp\cceMGvY8.s:1647   .text.altcp_tcp_abort:0000000000000000 .LVL204
C:\Users\stapi\AppData\Local\Temp\cceMGvY8.s:1672   .text.altcp_tcp_abort:000000000000001a .LVL207
C:\Users\stapi\AppData\Local\Temp\cceMGvY8.s:1684   .text.altcp_tcp_abort:0000000000000034 .LVL209
C:\Users\stapi\AppData\Local\Temp\cceMGvY8.s:1691   .text.altcp_tcp_abort:0000000000000036 .LVL210
C:\Users\stapi\AppData\Local\Temp\cceMGvY8.s:1708   .text.altcp_tcp_abort:0000000000000048 .LVL212
C:\Users\stapi\AppData\Local\Temp\cceMGvY8.s:1657   .text.altcp_tcp_abort:000000000000000a .LVL205
C:\Users\stapi\AppData\Local\Temp\cceMGvY8.s:1663   .text.altcp_tcp_abort:000000000000000e .LVL206
C:\Users\stapi\AppData\Local\Temp\cceMGvY8.s:1721   .text.altcp_tcp_listen:0000000000000000 .LVL213
C:\Users\stapi\AppData\Local\Temp\cceMGvY8.s:1731   .text.altcp_tcp_listen:000000000000000a .LVL214
C:\Users\stapi\AppData\Local\Temp\cceMGvY8.s:1743   .text.altcp_tcp_listen:0000000000000016 .LVL215
C:\Users\stapi\AppData\Local\Temp\cceMGvY8.s:1753   .text.altcp_tcp_listen:000000000000001c .LVL216
C:\Users\stapi\AppData\Local\Temp\cceMGvY8.s:1758   .text.altcp_tcp_listen:0000000000000024 .LVL217
C:\Users\stapi\AppData\Local\Temp\cceMGvY8.s:1772   .text.altcp_tcp_listen:0000000000000042 .LVL220
C:\Users\stapi\AppData\Local\Temp\cceMGvY8.s:1762   .text.altcp_tcp_listen:0000000000000030 .LVL218
C:\Users\stapi\AppData\Local\Temp\cceMGvY8.s:1813   .text.altcp_tcp_connect:0000000000000000 .LVL223
C:\Users\stapi\AppData\Local\Temp\cceMGvY8.s:1834   .text.altcp_tcp_connect:000000000000001a .LVL226
C:\Users\stapi\AppData\Local\Temp\cceMGvY8.s:1847   .text.altcp_tcp_connect:0000000000000034 .LVL229
C:\Users\stapi\AppData\Local\Temp\cceMGvY8.s:1863   .text.altcp_tcp_connect:0000000000000038 .LVL231
C:\Users\stapi\AppData\Local\Temp\cceMGvY8.s:1875   .text.altcp_tcp_connect:0000000000000050 .LVL234
C:\Users\stapi\AppData\Local\Temp\cceMGvY8.s:1879   .text.altcp_tcp_connect:0000000000000052 .LVL235
C:\Users\stapi\AppData\Local\Temp\cceMGvY8.s:1832   .text.altcp_tcp_connect:0000000000000016 .LVL225
C:\Users\stapi\AppData\Local\Temp\cceMGvY8.s:1837   .text.altcp_tcp_connect:0000000000000022 .LVL227
C:\Users\stapi\AppData\Local\Temp\cceMGvY8.s:1830   .text.altcp_tcp_connect:0000000000000012 .LVL224
C:\Users\stapi\AppData\Local\Temp\cceMGvY8.s:1865   .text.altcp_tcp_connect:000000000000003c .LVL232
C:\Users\stapi\AppData\Local\Temp\cceMGvY8.s:1859   .text.altcp_tcp_connect:0000000000000036 .LVL230
C:\Users\stapi\AppData\Local\Temp\cceMGvY8.s:1892   .text.altcp_tcp_recved:0000000000000000 .LVL236
C:\Users\stapi\AppData\Local\Temp\cceMGvY8.s:1918   .text.altcp_tcp_recved:000000000000001a .LVL240
C:\Users\stapi\AppData\Local\Temp\cceMGvY8.s:1930   .text.altcp_tcp_recved:0000000000000034 .LVL242
C:\Users\stapi\AppData\Local\Temp\cceMGvY8.s:1941   .text.altcp_tcp_recved:0000000000000036 .LVL243
C:\Users\stapi\AppData\Local\Temp\cceMGvY8.s:1949   .text.altcp_tcp_recved:0000000000000046 .LVL245
C:\Users\stapi\AppData\Local\Temp\cceMGvY8.s:1916   .text.altcp_tcp_recved:0000000000000016 .LVL239
C:\Users\stapi\AppData\Local\Temp\cceMGvY8.s:1902   .text.altcp_tcp_recved:000000000000000a .LVL237
C:\Users\stapi\AppData\Local\Temp\cceMGvY8.s:1908   .text.altcp_tcp_recved:000000000000000e .LVL238
C:\Users\stapi\AppData\Local\Temp\cceMGvY8.s:1962   .text.altcp_tcp_bind:0000000000000000 .LVL246
C:\Users\stapi\AppData\Local\Temp\cceMGvY8.s:1982   .text.altcp_tcp_bind:000000000000001a .LVL248
C:\Users\stapi\AppData\Local\Temp\cceMGvY8.s:1995   .text.altcp_tcp_bind:0000000000000034 .LVL251
C:\Users\stapi\AppData\Local\Temp\cceMGvY8.s:2007   .text.altcp_tcp_bind:0000000000000036 .LVL252
C:\Users\stapi\AppData\Local\Temp\cceMGvY8.s:2016   .text.altcp_tcp_bind:0000000000000046 .LVL254
C:\Users\stapi\AppData\Local\Temp\cceMGvY8.s:2020   .text.altcp_tcp_bind:0000000000000048 .LVL255
C:\Users\stapi\AppData\Local\Temp\cceMGvY8.s:1980   .text.altcp_tcp_bind:0000000000000016 .LVL247
C:\Users\stapi\AppData\Local\Temp\cceMGvY8.s:1985   .text.altcp_tcp_bind:0000000000000022 .LVL249
C:\Users\stapi\AppData\Local\Temp\cceMGvY8.s:2033   .text.altcp_tcp_shutdown:0000000000000000 .LVL256
C:\Users\stapi\AppData\Local\Temp\cceMGvY8.s:2053   .text.altcp_tcp_shutdown:000000000000001a .LVL258
C:\Users\stapi\AppData\Local\Temp\cceMGvY8.s:2066   .text.altcp_tcp_shutdown:0000000000000034 .LVL261
C:\Users\stapi\AppData\Local\Temp\cceMGvY8.s:2078   .text.altcp_tcp_shutdown:0000000000000036 .LVL262
C:\Users\stapi\AppData\Local\Temp\cceMGvY8.s:2087   .text.altcp_tcp_shutdown:0000000000000046 .LVL264
C:\Users\stapi\AppData\Local\Temp\cceMGvY8.s:2091   .text.altcp_tcp_shutdown:0000000000000048 .LVL265
C:\Users\stapi\AppData\Local\Temp\cceMGvY8.s:2051   .text.altcp_tcp_shutdown:0000000000000016 .LVL257
C:\Users\stapi\AppData\Local\Temp\cceMGvY8.s:2056   .text.altcp_tcp_shutdown:0000000000000022 .LVL259
C:\Users\stapi\AppData\Local\Temp\cceMGvY8.s:2104   .text.altcp_tcp_write:0000000000000000 .LVL266
C:\Users\stapi\AppData\Local\Temp\cceMGvY8.s:2125   .text.altcp_tcp_write:000000000000001a .LVL269
C:\Users\stapi\AppData\Local\Temp\cceMGvY8.s:2138   .text.altcp_tcp_write:0000000000000034 .LVL272
C:\Users\stapi\AppData\Local\Temp\cceMGvY8.s:2150   .text.altcp_tcp_write:0000000000000036 .LVL273
C:\Users\stapi\AppData\Local\Temp\cceMGvY8.s:2159   .text.altcp_tcp_write:0000000000000046 .LVL275
C:\Users\stapi\AppData\Local\Temp\cceMGvY8.s:2163   .text.altcp_tcp_write:0000000000000048 .LVL276
C:\Users\stapi\AppData\Local\Temp\cceMGvY8.s:2123   .text.altcp_tcp_write:0000000000000016 .LVL268
C:\Users\stapi\AppData\Local\Temp\cceMGvY8.s:2128   .text.altcp_tcp_write:0000000000000022 .LVL270
C:\Users\stapi\AppData\Local\Temp\cceMGvY8.s:2121   .text.altcp_tcp_write:0000000000000012 .LVL267
C:\Users\stapi\AppData\Local\Temp\cceMGvY8.s:2176   .text.altcp_tcp_output:0000000000000000 .LVL277
C:\Users\stapi\AppData\Local\Temp\cceMGvY8.s:2195   .text.altcp_tcp_output:000000000000001a .LVL278
C:\Users\stapi\AppData\Local\Temp\cceMGvY8.s:2207   .text.altcp_tcp_output:0000000000000034 .LVL280
C:\Users\stapi\AppData\Local\Temp\cceMGvY8.s:2219   .text.altcp_tcp_output:0000000000000036 .LVL281
C:\Users\stapi\AppData\Local\Temp\cceMGvY8.s:2228   .text.altcp_tcp_output:0000000000000046 .LVL283
C:\Users\stapi\AppData\Local\Temp\cceMGvY8.s:2232   .text.altcp_tcp_output:0000000000000048 .LVL284
C:\Users\stapi\AppData\Local\Temp\cceMGvY8.s:2245   .text.altcp_tcp_sndbuf:0000000000000000 .LVL285
C:\Users\stapi\AppData\Local\Temp\cceMGvY8.s:2264   .text.altcp_tcp_sndbuf:000000000000001a .LVL286
C:\Users\stapi\AppData\Local\Temp\cceMGvY8.s:2276   .text.altcp_tcp_sndbuf:0000000000000034 .LVL288
C:\Users\stapi\AppData\Local\Temp\cceMGvY8.s:2291   .text.altcp_tcp_sndbuf:0000000000000038 .LVL289
C:\Users\stapi\AppData\Local\Temp\cceMGvY8.s:2300   .text.altcp_tcp_sndbuf:000000000000004c .LVL291
C:\Users\stapi\AppData\Local\Temp\cceMGvY8.s:2306   .text.altcp_tcp_sndbuf:000000000000004e .LVL292
C:\Users\stapi\AppData\Local\Temp\cceMGvY8.s:2294   .text.altcp_tcp_sndbuf:0000000000000040 .LVL290
C:\Users\stapi\AppData\Local\Temp\cceMGvY8.s:2516   .debug_info:0000000000000000 .Ldebug_info0
C:\Users\stapi\AppData\Local\Temp\cceMGvY8.s:113    .text.altcp_tcp_accept:0000000000000038 .LBE16
C:\Users\stapi\AppData\Local\Temp\cceMGvY8.s:117    .text.altcp_tcp_accept:000000000000003c .LBB19
C:\Users\stapi\AppData\Local\Temp\cceMGvY8.s:124    .text.altcp_tcp_accept:0000000000000040 .LBE19
C:\Users\stapi\AppData\Local\Temp\cceMGvY8.s:489    .text.altcp_tcp_sent:0000000000000064 .LBE23
C:\Users\stapi\AppData\Local\Temp\cceMGvY8.s:493    .text.altcp_tcp_sent:0000000000000066 .LBB26
C:\Users\stapi\AppData\Local\Temp\cceMGvY8.s:506    .text.altcp_tcp_sent:000000000000006e .LBE26
C:\Users\stapi\AppData\Local\Temp\cceMGvY8.s:532    .text.altcp_tcp_get_port:0000000000000002 .LBB31
C:\Users\stapi\AppData\Local\Temp\cceMGvY8.s:540    .text.altcp_tcp_get_port:0000000000000006 .LBE31
C:\Users\stapi\AppData\Local\Temp\cceMGvY8.s:572    .text.altcp_tcp_get_port:0000000000000034 .LBB34
C:\Users\stapi\AppData\Local\Temp\cceMGvY8.s:580    .text.altcp_tcp_get_port:0000000000000036 .LBE34
C:\Users\stapi\AppData\Local\Temp\cceMGvY8.s:584    .text.altcp_tcp_get_port:0000000000000038 .LBB35
C:\Users\stapi\AppData\Local\Temp\cceMGvY8.s:601    .text.altcp_tcp_get_port:0000000000000048 .LBE35
C:\Users\stapi\AppData\Local\Temp\cceMGvY8.s:623    .text.altcp_tcp_get_ip:0000000000000004 .LBB40
C:\Users\stapi\AppData\Local\Temp\cceMGvY8.s:634    .text.altcp_tcp_get_ip:000000000000000a .LBE40
C:\Users\stapi\AppData\Local\Temp\cceMGvY8.s:666    .text.altcp_tcp_get_ip:0000000000000038 .LBB43
C:\Users\stapi\AppData\Local\Temp\cceMGvY8.s:684    .text.altcp_tcp_get_ip:0000000000000040 .LBE43
C:\Users\stapi\AppData\Local\Temp\cceMGvY8.s:757    .text.altcp_tcp_nagle_disabled:0000000000000006 .LBB52
C:\Users\stapi\AppData\Local\Temp\cceMGvY8.s:765    .text.altcp_tcp_nagle_disabled:000000000000000a .LBE52
C:\Users\stapi\AppData\Local\Temp\cceMGvY8.s:796    .text.altcp_tcp_nagle_disabled:0000000000000038 .LBB55
C:\Users\stapi\AppData\Local\Temp\cceMGvY8.s:809    .text.altcp_tcp_nagle_disabled:0000000000000042 .LBE55
C:\Users\stapi\AppData\Local\Temp\cceMGvY8.s:833    .text.altcp_tcp_nagle_enable:0000000000000006 .LBB60
C:\Users\stapi\AppData\Local\Temp\cceMGvY8.s:841    .text.altcp_tcp_nagle_enable:000000000000000a .LBE60
C:\Users\stapi\AppData\Local\Temp\cceMGvY8.s:872    .text.altcp_tcp_nagle_enable:0000000000000038 .LBB63
C:\Users\stapi\AppData\Local\Temp\cceMGvY8.s:886    .text.altcp_tcp_nagle_enable:0000000000000046 .LBE63
C:\Users\stapi\AppData\Local\Temp\cceMGvY8.s:905    .text.altcp_tcp_nagle_disable:0000000000000006 .LBB68
C:\Users\stapi\AppData\Local\Temp\cceMGvY8.s:913    .text.altcp_tcp_nagle_disable:000000000000000a .LBE68
C:\Users\stapi\AppData\Local\Temp\cceMGvY8.s:944    .text.altcp_tcp_nagle_disable:0000000000000038 .LBB71
C:\Users\stapi\AppData\Local\Temp\cceMGvY8.s:958    .text.altcp_tcp_nagle_disable:0000000000000046 .LBE71
C:\Users\stapi\AppData\Local\Temp\cceMGvY8.s:1182   .text.altcp_tcp_connected:0000000000000064 .LBE82
C:\Users\stapi\AppData\Local\Temp\cceMGvY8.s:1186   .text.altcp_tcp_connected:0000000000000066 .LBB85
C:\Users\stapi\AppData\Local\Temp\cceMGvY8.s:1199   .text.altcp_tcp_connected:000000000000006e .LBE85
C:\Users\stapi\AppData\Local\Temp\cceMGvY8.s:1296   .text.altcp_tcp_poll:0000000000000064 .LBE88
C:\Users\stapi\AppData\Local\Temp\cceMGvY8.s:1300   .text.altcp_tcp_poll:0000000000000066 .LBB91
C:\Users\stapi\AppData\Local\Temp\cceMGvY8.s:1313   .text.altcp_tcp_poll:000000000000006e .LBE91
C:\Users\stapi\AppData\Local\Temp\cceMGvY8.s:1343   .text.altcp_tcp_setprio:000000000000000a .LBB96
C:\Users\stapi\AppData\Local\Temp\cceMGvY8.s:1352   .text.altcp_tcp_setprio:000000000000000e .LBE96
C:\Users\stapi\AppData\Local\Temp\cceMGvY8.s:1377   .text.altcp_tcp_setprio:0000000000000034 .LBB99
C:\Users\stapi\AppData\Local\Temp\cceMGvY8.s:1387   .text.altcp_tcp_setprio:000000000000003e .LBE99
C:\Users\stapi\AppData\Local\Temp\cceMGvY8.s:1524   .text.altcp_tcp_close:00000000000000a8 .LBE105
C:\Users\stapi\AppData\Local\Temp\cceMGvY8.s:1538   .text.altcp_tcp_close:00000000000000b2 .LBB114
C:\Users\stapi\AppData\Local\Temp\cceMGvY8.s:1558   .text.altcp_tcp_close:00000000000000c4 .LBE114
C:\Users\stapi\AppData\Local\Temp\cceMGvY8.s:1456   .text.altcp_tcp_close:000000000000003a .LBB107
C:\Users\stapi\AppData\Local\Temp\cceMGvY8.s:1522   .text.altcp_tcp_close:00000000000000a8 .LBE107
C:\Users\stapi\AppData\Local\Temp\cceMGvY8.s:1540   .text.altcp_tcp_close:00000000000000b2 .LBB112
C:\Users\stapi\AppData\Local\Temp\cceMGvY8.s:1546   .text.altcp_tcp_close:00000000000000b6 .LBE112
C:\Users\stapi\AppData\Local\Temp\cceMGvY8.s:1465   .text.altcp_tcp_close:000000000000003e .LBE108
C:\Users\stapi\AppData\Local\Temp\cceMGvY8.s:1470   .text.altcp_tcp_close:0000000000000042 .LBB111
C:\Users\stapi\AppData\Local\Temp\cceMGvY8.s:1497   .text.altcp_tcp_close:000000000000007e .LBE111
C:\Users\stapi\AppData\Local\Temp\cceMGvY8.s:1580   .text.altcp_tcp_set_poll:000000000000000a .LBB119
C:\Users\stapi\AppData\Local\Temp\cceMGvY8.s:1589   .text.altcp_tcp_set_poll:000000000000000e .LBE119
C:\Users\stapi\AppData\Local\Temp\cceMGvY8.s:1614   .text.altcp_tcp_set_poll:0000000000000034 .LBB122
C:\Users\stapi\AppData\Local\Temp\cceMGvY8.s:1629   .text.altcp_tcp_set_poll:0000000000000048 .LBE122
C:\Users\stapi\AppData\Local\Temp\cceMGvY8.s:1655   .text.altcp_tcp_abort:000000000000000a .LBB127
C:\Users\stapi\AppData\Local\Temp\cceMGvY8.s:1664   .text.altcp_tcp_abort:000000000000000e .LBE127
C:\Users\stapi\AppData\Local\Temp\cceMGvY8.s:1688   .text.altcp_tcp_abort:0000000000000034 .LBB130
C:\Users\stapi\AppData\Local\Temp\cceMGvY8.s:1703   .text.altcp_tcp_abort:0000000000000040 .LBE130
C:\Users\stapi\AppData\Local\Temp\cceMGvY8.s:1900   .text.altcp_tcp_recved:000000000000000a .LBB143
C:\Users\stapi\AppData\Local\Temp\cceMGvY8.s:1909   .text.altcp_tcp_recved:000000000000000e .LBE143
C:\Users\stapi\AppData\Local\Temp\cceMGvY8.s:1934   .text.altcp_tcp_recved:0000000000000034 .LBB146
C:\Users\stapi\AppData\Local\Temp\cceMGvY8.s:1944   .text.altcp_tcp_recved:000000000000003e .LBE146
C:\Users\stapi\AppData\Local\Temp\cceMGvY8.s:2337   .text.altcp_tcp_new_ip_type:0000000000000016 .LBB170
C:\Users\stapi\AppData\Local\Temp\cceMGvY8.s:2368   .text.altcp_tcp_new_ip_type:0000000000000038 .LBE170
C:\Users\stapi\AppData\Local\Temp\cceMGvY8.s:2380   .text.altcp_tcp_new_ip_type:0000000000000042 .LBB173
C:\Users\stapi\AppData\Local\Temp\cceMGvY8.s:2386   .text.altcp_tcp_new_ip_type:000000000000004e .LBE173

UNDEFINED SYMBOLS
__riscv_save_1
tcp_arg
tcp_recv
tcp_sent
tcp_err
__riscv_restore_1
__riscv_save_4
altcp_alloc
__riscv_restore_4
altcp_free
printf
pbuf_free
__riscv_save_0
tcp_tcp_get_tcp_addrinfo
__riscv_restore_0
tcp_setprio
tcp_poll
tcp_close
tcp_abort
tcp_listen_with_backlog_and_err
tcp_accept
tcp_connect
tcp_recved
tcp_bind
tcp_shutdown
tcp_write
tcp_output
__riscv_save_2
tcp_new_ip_type
__riscv_restore_2
