   1              		.file	"altcp_tls_mbedtls_mem.c"
   2              		.option nopic
   3              		.attribute arch, "rv32i2p0_m2p0_a2p0_f2p0_c2p0_b_p0p94"
   4              		.attribute unaligned_access, 0
   5              		.attribute stack_align, 16
   6              		.text
   7              	.Ltext0:
   8              		.cfi_sections	.debug_frame
   9              		.section	.text.altcp_mbedtls_mem_init,"ax",@progbits
  10              		.align	1
  11              		.globl	altcp_mbedtls_mem_init
  13              	altcp_mbedtls_mem_init:
  14              	.LFB383:
  15              		.file 1 "C:/Users/stapi/OneDrive/Desktop/GD32VW553/V1_MQTT_OK/GD32VW55X_Wifi_BLE_SDK/GD32VW55x_REL
   1:C:/Users/stapi/OneDrive/Desktop/GD32VW553/V1_MQTT_OK/GD32VW55X_Wifi_BLE_SDK/GD32VW55x_RELEASE_V1.0.2/MSDK/lwip/lwip-2.1.2/src/apps/altcp_tls\altcp_tls_mbedtls_mem.c **** /**
   2:C:/Users/stapi/OneDrive/Desktop/GD32VW553/V1_MQTT_OK/GD32VW55X_Wifi_BLE_SDK/GD32VW55x_RELEASE_V1.0.2/MSDK/lwip/lwip-2.1.2/src/apps/altcp_tls\altcp_tls_mbedtls_mem.c ****  * @file
   3:C:/Users/stapi/OneDrive/Desktop/GD32VW553/V1_MQTT_OK/GD32VW55X_Wifi_BLE_SDK/GD32VW55x_RELEASE_V1.0.2/MSDK/lwip/lwip-2.1.2/src/apps/altcp_tls\altcp_tls_mbedtls_mem.c ****  * Application layered TCP connection API (to be used from TCPIP thread)
   4:C:/Users/stapi/OneDrive/Desktop/GD32VW553/V1_MQTT_OK/GD32VW55X_Wifi_BLE_SDK/GD32VW55x_RELEASE_V1.0.2/MSDK/lwip/lwip-2.1.2/src/apps/altcp_tls\altcp_tls_mbedtls_mem.c ****  *
   5:C:/Users/stapi/OneDrive/Desktop/GD32VW553/V1_MQTT_OK/GD32VW55X_Wifi_BLE_SDK/GD32VW55x_RELEASE_V1.0.2/MSDK/lwip/lwip-2.1.2/src/apps/altcp_tls\altcp_tls_mbedtls_mem.c ****  * This file contains memory management functions for a TLS layer using mbedTLS.
   6:C:/Users/stapi/OneDrive/Desktop/GD32VW553/V1_MQTT_OK/GD32VW55X_Wifi_BLE_SDK/GD32VW55x_RELEASE_V1.0.2/MSDK/lwip/lwip-2.1.2/src/apps/altcp_tls\altcp_tls_mbedtls_mem.c ****  *
   7:C:/Users/stapi/OneDrive/Desktop/GD32VW553/V1_MQTT_OK/GD32VW55X_Wifi_BLE_SDK/GD32VW55x_RELEASE_V1.0.2/MSDK/lwip/lwip-2.1.2/src/apps/altcp_tls\altcp_tls_mbedtls_mem.c ****  * ATTENTION: For production usage, you might want to override this file with
   8:C:/Users/stapi/OneDrive/Desktop/GD32VW553/V1_MQTT_OK/GD32VW55X_Wifi_BLE_SDK/GD32VW55x_RELEASE_V1.0.2/MSDK/lwip/lwip-2.1.2/src/apps/altcp_tls\altcp_tls_mbedtls_mem.c ****  *            your own implementation since this implementation simply uses the
   9:C:/Users/stapi/OneDrive/Desktop/GD32VW553/V1_MQTT_OK/GD32VW55X_Wifi_BLE_SDK/GD32VW55x_RELEASE_V1.0.2/MSDK/lwip/lwip-2.1.2/src/apps/altcp_tls\altcp_tls_mbedtls_mem.c ****  *            lwIP heap without caring for fragmentation or leaving heap for
  10:C:/Users/stapi/OneDrive/Desktop/GD32VW553/V1_MQTT_OK/GD32VW55X_Wifi_BLE_SDK/GD32VW55x_RELEASE_V1.0.2/MSDK/lwip/lwip-2.1.2/src/apps/altcp_tls\altcp_tls_mbedtls_mem.c ****  *            other parts of lwIP!
  11:C:/Users/stapi/OneDrive/Desktop/GD32VW553/V1_MQTT_OK/GD32VW55X_Wifi_BLE_SDK/GD32VW55x_RELEASE_V1.0.2/MSDK/lwip/lwip-2.1.2/src/apps/altcp_tls\altcp_tls_mbedtls_mem.c ****  */
  12:C:/Users/stapi/OneDrive/Desktop/GD32VW553/V1_MQTT_OK/GD32VW55X_Wifi_BLE_SDK/GD32VW55x_RELEASE_V1.0.2/MSDK/lwip/lwip-2.1.2/src/apps/altcp_tls\altcp_tls_mbedtls_mem.c **** 
  13:C:/Users/stapi/OneDrive/Desktop/GD32VW553/V1_MQTT_OK/GD32VW55X_Wifi_BLE_SDK/GD32VW55x_RELEASE_V1.0.2/MSDK/lwip/lwip-2.1.2/src/apps/altcp_tls\altcp_tls_mbedtls_mem.c **** /*
  14:C:/Users/stapi/OneDrive/Desktop/GD32VW553/V1_MQTT_OK/GD32VW55X_Wifi_BLE_SDK/GD32VW55x_RELEASE_V1.0.2/MSDK/lwip/lwip-2.1.2/src/apps/altcp_tls\altcp_tls_mbedtls_mem.c ****  * Copyright (c) 2017 Simon Goldschmidt
  15:C:/Users/stapi/OneDrive/Desktop/GD32VW553/V1_MQTT_OK/GD32VW55X_Wifi_BLE_SDK/GD32VW55x_RELEASE_V1.0.2/MSDK/lwip/lwip-2.1.2/src/apps/altcp_tls\altcp_tls_mbedtls_mem.c ****  * Copyright (c) 2024, GigaDevice Semiconductor Inc.
  16:C:/Users/stapi/OneDrive/Desktop/GD32VW553/V1_MQTT_OK/GD32VW55X_Wifi_BLE_SDK/GD32VW55x_RELEASE_V1.0.2/MSDK/lwip/lwip-2.1.2/src/apps/altcp_tls\altcp_tls_mbedtls_mem.c ****  * All rights reserved.
  17:C:/Users/stapi/OneDrive/Desktop/GD32VW553/V1_MQTT_OK/GD32VW55X_Wifi_BLE_SDK/GD32VW55x_RELEASE_V1.0.2/MSDK/lwip/lwip-2.1.2/src/apps/altcp_tls\altcp_tls_mbedtls_mem.c ****  *
  18:C:/Users/stapi/OneDrive/Desktop/GD32VW553/V1_MQTT_OK/GD32VW55X_Wifi_BLE_SDK/GD32VW55x_RELEASE_V1.0.2/MSDK/lwip/lwip-2.1.2/src/apps/altcp_tls\altcp_tls_mbedtls_mem.c ****  * Redistribution and use in source and binary forms, with or without modification,
  19:C:/Users/stapi/OneDrive/Desktop/GD32VW553/V1_MQTT_OK/GD32VW55X_Wifi_BLE_SDK/GD32VW55x_RELEASE_V1.0.2/MSDK/lwip/lwip-2.1.2/src/apps/altcp_tls\altcp_tls_mbedtls_mem.c ****  * are permitted provided that the following conditions are met:
  20:C:/Users/stapi/OneDrive/Desktop/GD32VW553/V1_MQTT_OK/GD32VW55X_Wifi_BLE_SDK/GD32VW55x_RELEASE_V1.0.2/MSDK/lwip/lwip-2.1.2/src/apps/altcp_tls\altcp_tls_mbedtls_mem.c ****  *
  21:C:/Users/stapi/OneDrive/Desktop/GD32VW553/V1_MQTT_OK/GD32VW55X_Wifi_BLE_SDK/GD32VW55x_RELEASE_V1.0.2/MSDK/lwip/lwip-2.1.2/src/apps/altcp_tls\altcp_tls_mbedtls_mem.c ****  * 1. Redistributions of source code must retain the above copyright notice,
  22:C:/Users/stapi/OneDrive/Desktop/GD32VW553/V1_MQTT_OK/GD32VW55X_Wifi_BLE_SDK/GD32VW55x_RELEASE_V1.0.2/MSDK/lwip/lwip-2.1.2/src/apps/altcp_tls\altcp_tls_mbedtls_mem.c ****  *    this list of conditions and the following disclaimer.
  23:C:/Users/stapi/OneDrive/Desktop/GD32VW553/V1_MQTT_OK/GD32VW55X_Wifi_BLE_SDK/GD32VW55x_RELEASE_V1.0.2/MSDK/lwip/lwip-2.1.2/src/apps/altcp_tls\altcp_tls_mbedtls_mem.c ****  * 2. Redistributions in binary form must reproduce the above copyright notice,
  24:C:/Users/stapi/OneDrive/Desktop/GD32VW553/V1_MQTT_OK/GD32VW55X_Wifi_BLE_SDK/GD32VW55x_RELEASE_V1.0.2/MSDK/lwip/lwip-2.1.2/src/apps/altcp_tls\altcp_tls_mbedtls_mem.c ****  *    this list of conditions and the following disclaimer in the documentation
  25:C:/Users/stapi/OneDrive/Desktop/GD32VW553/V1_MQTT_OK/GD32VW55X_Wifi_BLE_SDK/GD32VW55x_RELEASE_V1.0.2/MSDK/lwip/lwip-2.1.2/src/apps/altcp_tls\altcp_tls_mbedtls_mem.c ****  *    and/or other materials provided with the distribution.
  26:C:/Users/stapi/OneDrive/Desktop/GD32VW553/V1_MQTT_OK/GD32VW55X_Wifi_BLE_SDK/GD32VW55x_RELEASE_V1.0.2/MSDK/lwip/lwip-2.1.2/src/apps/altcp_tls\altcp_tls_mbedtls_mem.c ****  * 3. The name of the author may not be used to endorse or promote products
  27:C:/Users/stapi/OneDrive/Desktop/GD32VW553/V1_MQTT_OK/GD32VW55X_Wifi_BLE_SDK/GD32VW55x_RELEASE_V1.0.2/MSDK/lwip/lwip-2.1.2/src/apps/altcp_tls\altcp_tls_mbedtls_mem.c ****  *    derived from this software without specific prior written permission.
  28:C:/Users/stapi/OneDrive/Desktop/GD32VW553/V1_MQTT_OK/GD32VW55X_Wifi_BLE_SDK/GD32VW55x_RELEASE_V1.0.2/MSDK/lwip/lwip-2.1.2/src/apps/altcp_tls\altcp_tls_mbedtls_mem.c ****  *
  29:C:/Users/stapi/OneDrive/Desktop/GD32VW553/V1_MQTT_OK/GD32VW55X_Wifi_BLE_SDK/GD32VW55x_RELEASE_V1.0.2/MSDK/lwip/lwip-2.1.2/src/apps/altcp_tls\altcp_tls_mbedtls_mem.c ****  * THIS SOFTWARE IS PROVIDED BY THE AUTHOR ``AS IS'' AND ANY EXPRESS OR IMPLIED
  30:C:/Users/stapi/OneDrive/Desktop/GD32VW553/V1_MQTT_OK/GD32VW55X_Wifi_BLE_SDK/GD32VW55x_RELEASE_V1.0.2/MSDK/lwip/lwip-2.1.2/src/apps/altcp_tls\altcp_tls_mbedtls_mem.c ****  * WARRANTIES, INCLUDING, BUT NOT LIMITED TO, THE IMPLIED WARRANTIES OF
  31:C:/Users/stapi/OneDrive/Desktop/GD32VW553/V1_MQTT_OK/GD32VW55X_Wifi_BLE_SDK/GD32VW55x_RELEASE_V1.0.2/MSDK/lwip/lwip-2.1.2/src/apps/altcp_tls\altcp_tls_mbedtls_mem.c ****  * MERCHANTABILITY AND FITNESS FOR A PARTICULAR PURPOSE ARE DISCLAIMED. IN NO EVENT
  32:C:/Users/stapi/OneDrive/Desktop/GD32VW553/V1_MQTT_OK/GD32VW55X_Wifi_BLE_SDK/GD32VW55x_RELEASE_V1.0.2/MSDK/lwip/lwip-2.1.2/src/apps/altcp_tls\altcp_tls_mbedtls_mem.c ****  * SHALL THE AUTHOR BE LIABLE FOR ANY DIRECT, INDIRECT, INCIDENTAL, SPECIAL,
  33:C:/Users/stapi/OneDrive/Desktop/GD32VW553/V1_MQTT_OK/GD32VW55X_Wifi_BLE_SDK/GD32VW55x_RELEASE_V1.0.2/MSDK/lwip/lwip-2.1.2/src/apps/altcp_tls\altcp_tls_mbedtls_mem.c ****  * EXEMPLARY, OR CONSEQUENTIAL DAMAGES (INCLUDING, BUT NOT LIMITED TO, PROCUREMENT
  34:C:/Users/stapi/OneDrive/Desktop/GD32VW553/V1_MQTT_OK/GD32VW55X_Wifi_BLE_SDK/GD32VW55x_RELEASE_V1.0.2/MSDK/lwip/lwip-2.1.2/src/apps/altcp_tls\altcp_tls_mbedtls_mem.c ****  * OF SUBSTITUTE GOODS OR SERVICES; LOSS OF USE, DATA, OR PROFITS; OR BUSINESS
  35:C:/Users/stapi/OneDrive/Desktop/GD32VW553/V1_MQTT_OK/GD32VW55X_Wifi_BLE_SDK/GD32VW55x_RELEASE_V1.0.2/MSDK/lwip/lwip-2.1.2/src/apps/altcp_tls\altcp_tls_mbedtls_mem.c ****  * INTERRUPTION) HOWEVER CAUSED AND ON ANY THEORY OF LIABILITY, WHETHER IN
  36:C:/Users/stapi/OneDrive/Desktop/GD32VW553/V1_MQTT_OK/GD32VW55X_Wifi_BLE_SDK/GD32VW55x_RELEASE_V1.0.2/MSDK/lwip/lwip-2.1.2/src/apps/altcp_tls\altcp_tls_mbedtls_mem.c ****  * CONTRACT, STRICT LIABILITY, OR TORT (INCLUDING NEGLIGENCE OR OTHERWISE) ARISING
  37:C:/Users/stapi/OneDrive/Desktop/GD32VW553/V1_MQTT_OK/GD32VW55X_Wifi_BLE_SDK/GD32VW55x_RELEASE_V1.0.2/MSDK/lwip/lwip-2.1.2/src/apps/altcp_tls\altcp_tls_mbedtls_mem.c ****  * IN ANY WAY OUT OF THE USE OF THIS SOFTWARE, EVEN IF ADVISED OF THE POSSIBILITY
  38:C:/Users/stapi/OneDrive/Desktop/GD32VW553/V1_MQTT_OK/GD32VW55X_Wifi_BLE_SDK/GD32VW55x_RELEASE_V1.0.2/MSDK/lwip/lwip-2.1.2/src/apps/altcp_tls\altcp_tls_mbedtls_mem.c ****  * OF SUCH DAMAGE.
  39:C:/Users/stapi/OneDrive/Desktop/GD32VW553/V1_MQTT_OK/GD32VW55X_Wifi_BLE_SDK/GD32VW55x_RELEASE_V1.0.2/MSDK/lwip/lwip-2.1.2/src/apps/altcp_tls\altcp_tls_mbedtls_mem.c ****  *
  40:C:/Users/stapi/OneDrive/Desktop/GD32VW553/V1_MQTT_OK/GD32VW55X_Wifi_BLE_SDK/GD32VW55x_RELEASE_V1.0.2/MSDK/lwip/lwip-2.1.2/src/apps/altcp_tls\altcp_tls_mbedtls_mem.c ****  * This file is part of the lwIP TCP/IP stack.
  41:C:/Users/stapi/OneDrive/Desktop/GD32VW553/V1_MQTT_OK/GD32VW55X_Wifi_BLE_SDK/GD32VW55x_RELEASE_V1.0.2/MSDK/lwip/lwip-2.1.2/src/apps/altcp_tls\altcp_tls_mbedtls_mem.c ****  *
  42:C:/Users/stapi/OneDrive/Desktop/GD32VW553/V1_MQTT_OK/GD32VW55X_Wifi_BLE_SDK/GD32VW55x_RELEASE_V1.0.2/MSDK/lwip/lwip-2.1.2/src/apps/altcp_tls\altcp_tls_mbedtls_mem.c ****  * Author: Simon Goldschmidt <goldsimon@gmx.de>
  43:C:/Users/stapi/OneDrive/Desktop/GD32VW553/V1_MQTT_OK/GD32VW55X_Wifi_BLE_SDK/GD32VW55x_RELEASE_V1.0.2/MSDK/lwip/lwip-2.1.2/src/apps/altcp_tls\altcp_tls_mbedtls_mem.c ****  *
  44:C:/Users/stapi/OneDrive/Desktop/GD32VW553/V1_MQTT_OK/GD32VW55X_Wifi_BLE_SDK/GD32VW55x_RELEASE_V1.0.2/MSDK/lwip/lwip-2.1.2/src/apps/altcp_tls\altcp_tls_mbedtls_mem.c ****  * Missing things / @todo:
  45:C:/Users/stapi/OneDrive/Desktop/GD32VW553/V1_MQTT_OK/GD32VW55X_Wifi_BLE_SDK/GD32VW55x_RELEASE_V1.0.2/MSDK/lwip/lwip-2.1.2/src/apps/altcp_tls\altcp_tls_mbedtls_mem.c ****  * - RX data is acknowledged after receiving (tcp_recved is called when enqueueing
  46:C:/Users/stapi/OneDrive/Desktop/GD32VW553/V1_MQTT_OK/GD32VW55X_Wifi_BLE_SDK/GD32VW55x_RELEASE_V1.0.2/MSDK/lwip/lwip-2.1.2/src/apps/altcp_tls\altcp_tls_mbedtls_mem.c ****  *   the pbuf for mbedTLS receive, not when processed by mbedTLS or the inner
  47:C:/Users/stapi/OneDrive/Desktop/GD32VW553/V1_MQTT_OK/GD32VW55X_Wifi_BLE_SDK/GD32VW55x_RELEASE_V1.0.2/MSDK/lwip/lwip-2.1.2/src/apps/altcp_tls\altcp_tls_mbedtls_mem.c ****  *   connection; altcp_recved() from inner connection does nothing)
  48:C:/Users/stapi/OneDrive/Desktop/GD32VW553/V1_MQTT_OK/GD32VW55X_Wifi_BLE_SDK/GD32VW55x_RELEASE_V1.0.2/MSDK/lwip/lwip-2.1.2/src/apps/altcp_tls\altcp_tls_mbedtls_mem.c ****  * - TX data is marked as 'sent' (i.e. acknowledged; sent callback is called) right
  49:C:/Users/stapi/OneDrive/Desktop/GD32VW553/V1_MQTT_OK/GD32VW55X_Wifi_BLE_SDK/GD32VW55x_RELEASE_V1.0.2/MSDK/lwip/lwip-2.1.2/src/apps/altcp_tls\altcp_tls_mbedtls_mem.c ****  *   after enqueueing for transmission, not when actually ACKed be the remote host.
  50:C:/Users/stapi/OneDrive/Desktop/GD32VW553/V1_MQTT_OK/GD32VW55X_Wifi_BLE_SDK/GD32VW55x_RELEASE_V1.0.2/MSDK/lwip/lwip-2.1.2/src/apps/altcp_tls\altcp_tls_mbedtls_mem.c ****  */
  51:C:/Users/stapi/OneDrive/Desktop/GD32VW553/V1_MQTT_OK/GD32VW55X_Wifi_BLE_SDK/GD32VW55x_RELEASE_V1.0.2/MSDK/lwip/lwip-2.1.2/src/apps/altcp_tls\altcp_tls_mbedtls_mem.c **** 
  52:C:/Users/stapi/OneDrive/Desktop/GD32VW553/V1_MQTT_OK/GD32VW55X_Wifi_BLE_SDK/GD32VW55x_RELEASE_V1.0.2/MSDK/lwip/lwip-2.1.2/src/apps/altcp_tls\altcp_tls_mbedtls_mem.c **** #include "lwip/opt.h"
  53:C:/Users/stapi/OneDrive/Desktop/GD32VW553/V1_MQTT_OK/GD32VW55X_Wifi_BLE_SDK/GD32VW55x_RELEASE_V1.0.2/MSDK/lwip/lwip-2.1.2/src/apps/altcp_tls\altcp_tls_mbedtls_mem.c **** 
  54:C:/Users/stapi/OneDrive/Desktop/GD32VW553/V1_MQTT_OK/GD32VW55X_Wifi_BLE_SDK/GD32VW55x_RELEASE_V1.0.2/MSDK/lwip/lwip-2.1.2/src/apps/altcp_tls\altcp_tls_mbedtls_mem.c **** #if LWIP_ALTCP /* don't build if not configured for use in lwipopts.h */
  55:C:/Users/stapi/OneDrive/Desktop/GD32VW553/V1_MQTT_OK/GD32VW55X_Wifi_BLE_SDK/GD32VW55x_RELEASE_V1.0.2/MSDK/lwip/lwip-2.1.2/src/apps/altcp_tls\altcp_tls_mbedtls_mem.c **** 
  56:C:/Users/stapi/OneDrive/Desktop/GD32VW553/V1_MQTT_OK/GD32VW55X_Wifi_BLE_SDK/GD32VW55x_RELEASE_V1.0.2/MSDK/lwip/lwip-2.1.2/src/apps/altcp_tls\altcp_tls_mbedtls_mem.c **** #include "lwip/apps/altcp_tls_mbedtls_opts.h"
  57:C:/Users/stapi/OneDrive/Desktop/GD32VW553/V1_MQTT_OK/GD32VW55X_Wifi_BLE_SDK/GD32VW55x_RELEASE_V1.0.2/MSDK/lwip/lwip-2.1.2/src/apps/altcp_tls\altcp_tls_mbedtls_mem.c **** 
  58:C:/Users/stapi/OneDrive/Desktop/GD32VW553/V1_MQTT_OK/GD32VW55X_Wifi_BLE_SDK/GD32VW55x_RELEASE_V1.0.2/MSDK/lwip/lwip-2.1.2/src/apps/altcp_tls\altcp_tls_mbedtls_mem.c **** #if LWIP_ALTCP_TLS && LWIP_ALTCP_TLS_MBEDTLS
  59:C:/Users/stapi/OneDrive/Desktop/GD32VW553/V1_MQTT_OK/GD32VW55X_Wifi_BLE_SDK/GD32VW55x_RELEASE_V1.0.2/MSDK/lwip/lwip-2.1.2/src/apps/altcp_tls\altcp_tls_mbedtls_mem.c **** 
  60:C:/Users/stapi/OneDrive/Desktop/GD32VW553/V1_MQTT_OK/GD32VW55X_Wifi_BLE_SDK/GD32VW55x_RELEASE_V1.0.2/MSDK/lwip/lwip-2.1.2/src/apps/altcp_tls\altcp_tls_mbedtls_mem.c **** #include "altcp_tls_mbedtls_mem.h"
  61:C:/Users/stapi/OneDrive/Desktop/GD32VW553/V1_MQTT_OK/GD32VW55X_Wifi_BLE_SDK/GD32VW55x_RELEASE_V1.0.2/MSDK/lwip/lwip-2.1.2/src/apps/altcp_tls\altcp_tls_mbedtls_mem.c **** #include "altcp_tls_mbedtls_structs.h"
  62:C:/Users/stapi/OneDrive/Desktop/GD32VW553/V1_MQTT_OK/GD32VW55X_Wifi_BLE_SDK/GD32VW55x_RELEASE_V1.0.2/MSDK/lwip/lwip-2.1.2/src/apps/altcp_tls\altcp_tls_mbedtls_mem.c **** #include "lwip/mem.h"
  63:C:/Users/stapi/OneDrive/Desktop/GD32VW553/V1_MQTT_OK/GD32VW55X_Wifi_BLE_SDK/GD32VW55x_RELEASE_V1.0.2/MSDK/lwip/lwip-2.1.2/src/apps/altcp_tls\altcp_tls_mbedtls_mem.c **** 
  64:C:/Users/stapi/OneDrive/Desktop/GD32VW553/V1_MQTT_OK/GD32VW55X_Wifi_BLE_SDK/GD32VW55x_RELEASE_V1.0.2/MSDK/lwip/lwip-2.1.2/src/apps/altcp_tls\altcp_tls_mbedtls_mem.c **** #include "mbedtls/platform.h"
  65:C:/Users/stapi/OneDrive/Desktop/GD32VW553/V1_MQTT_OK/GD32VW55X_Wifi_BLE_SDK/GD32VW55x_RELEASE_V1.0.2/MSDK/lwip/lwip-2.1.2/src/apps/altcp_tls\altcp_tls_mbedtls_mem.c **** 
  66:C:/Users/stapi/OneDrive/Desktop/GD32VW553/V1_MQTT_OK/GD32VW55X_Wifi_BLE_SDK/GD32VW55x_RELEASE_V1.0.2/MSDK/lwip/lwip-2.1.2/src/apps/altcp_tls\altcp_tls_mbedtls_mem.c **** #include <string.h>
  67:C:/Users/stapi/OneDrive/Desktop/GD32VW553/V1_MQTT_OK/GD32VW55X_Wifi_BLE_SDK/GD32VW55x_RELEASE_V1.0.2/MSDK/lwip/lwip-2.1.2/src/apps/altcp_tls\altcp_tls_mbedtls_mem.c **** 
  68:C:/Users/stapi/OneDrive/Desktop/GD32VW553/V1_MQTT_OK/GD32VW55X_Wifi_BLE_SDK/GD32VW55x_RELEASE_V1.0.2/MSDK/lwip/lwip-2.1.2/src/apps/altcp_tls\altcp_tls_mbedtls_mem.c **** #ifndef ALTCP_MBEDTLS_MEM_DEBUG
  69:C:/Users/stapi/OneDrive/Desktop/GD32VW553/V1_MQTT_OK/GD32VW55X_Wifi_BLE_SDK/GD32VW55x_RELEASE_V1.0.2/MSDK/lwip/lwip-2.1.2/src/apps/altcp_tls\altcp_tls_mbedtls_mem.c **** #define ALTCP_MBEDTLS_MEM_DEBUG   LWIP_DBG_OFF
  70:C:/Users/stapi/OneDrive/Desktop/GD32VW553/V1_MQTT_OK/GD32VW55X_Wifi_BLE_SDK/GD32VW55x_RELEASE_V1.0.2/MSDK/lwip/lwip-2.1.2/src/apps/altcp_tls\altcp_tls_mbedtls_mem.c **** #endif
  71:C:/Users/stapi/OneDrive/Desktop/GD32VW553/V1_MQTT_OK/GD32VW55X_Wifi_BLE_SDK/GD32VW55x_RELEASE_V1.0.2/MSDK/lwip/lwip-2.1.2/src/apps/altcp_tls\altcp_tls_mbedtls_mem.c **** 
  72:C:/Users/stapi/OneDrive/Desktop/GD32VW553/V1_MQTT_OK/GD32VW55X_Wifi_BLE_SDK/GD32VW55x_RELEASE_V1.0.2/MSDK/lwip/lwip-2.1.2/src/apps/altcp_tls\altcp_tls_mbedtls_mem.c **** #if defined(MBEDTLS_PLATFORM_MEMORY) && \
  73:C:/Users/stapi/OneDrive/Desktop/GD32VW553/V1_MQTT_OK/GD32VW55X_Wifi_BLE_SDK/GD32VW55x_RELEASE_V1.0.2/MSDK/lwip/lwip-2.1.2/src/apps/altcp_tls\altcp_tls_mbedtls_mem.c ****    (!defined(MBEDTLS_PLATFORM_FREE_MACRO) || \
  74:C:/Users/stapi/OneDrive/Desktop/GD32VW553/V1_MQTT_OK/GD32VW55X_Wifi_BLE_SDK/GD32VW55x_RELEASE_V1.0.2/MSDK/lwip/lwip-2.1.2/src/apps/altcp_tls\altcp_tls_mbedtls_mem.c ****     defined(MBEDTLS_PLATFORM_CALLOC_MACRO))
  75:C:/Users/stapi/OneDrive/Desktop/GD32VW553/V1_MQTT_OK/GD32VW55X_Wifi_BLE_SDK/GD32VW55x_RELEASE_V1.0.2/MSDK/lwip/lwip-2.1.2/src/apps/altcp_tls\altcp_tls_mbedtls_mem.c **** #define ALTCP_MBEDTLS_PLATFORM_ALLOC 1
  76:C:/Users/stapi/OneDrive/Desktop/GD32VW553/V1_MQTT_OK/GD32VW55X_Wifi_BLE_SDK/GD32VW55x_RELEASE_V1.0.2/MSDK/lwip/lwip-2.1.2/src/apps/altcp_tls\altcp_tls_mbedtls_mem.c **** #else
  77:C:/Users/stapi/OneDrive/Desktop/GD32VW553/V1_MQTT_OK/GD32VW55X_Wifi_BLE_SDK/GD32VW55x_RELEASE_V1.0.2/MSDK/lwip/lwip-2.1.2/src/apps/altcp_tls\altcp_tls_mbedtls_mem.c **** #define ALTCP_MBEDTLS_PLATFORM_ALLOC 0
  78:C:/Users/stapi/OneDrive/Desktop/GD32VW553/V1_MQTT_OK/GD32VW55X_Wifi_BLE_SDK/GD32VW55x_RELEASE_V1.0.2/MSDK/lwip/lwip-2.1.2/src/apps/altcp_tls\altcp_tls_mbedtls_mem.c **** #endif
  79:C:/Users/stapi/OneDrive/Desktop/GD32VW553/V1_MQTT_OK/GD32VW55X_Wifi_BLE_SDK/GD32VW55x_RELEASE_V1.0.2/MSDK/lwip/lwip-2.1.2/src/apps/altcp_tls\altcp_tls_mbedtls_mem.c **** 
  80:C:/Users/stapi/OneDrive/Desktop/GD32VW553/V1_MQTT_OK/GD32VW55X_Wifi_BLE_SDK/GD32VW55x_RELEASE_V1.0.2/MSDK/lwip/lwip-2.1.2/src/apps/altcp_tls\altcp_tls_mbedtls_mem.c **** /* FT TAG */
  81:C:/Users/stapi/OneDrive/Desktop/GD32VW553/V1_MQTT_OK/GD32VW55X_Wifi_BLE_SDK/GD32VW55x_RELEASE_V1.0.2/MSDK/lwip/lwip-2.1.2/src/apps/altcp_tls\altcp_tls_mbedtls_mem.c **** /*
  82:C:/Users/stapi/OneDrive/Desktop/GD32VW553/V1_MQTT_OK/GD32VW55X_Wifi_BLE_SDK/GD32VW55x_RELEASE_V1.0.2/MSDK/lwip/lwip-2.1.2/src/apps/altcp_tls\altcp_tls_mbedtls_mem.c ****  * mbedtls_platform_set_calloc_free() has been called in rom_init() and {FREE,CALLOC} func has been
  83:C:/Users/stapi/OneDrive/Desktop/GD32VW553/V1_MQTT_OK/GD32VW55X_Wifi_BLE_SDK/GD32VW55x_RELEASE_V1.0.2/MSDK/lwip/lwip-2.1.2/src/apps/altcp_tls\altcp_tls_mbedtls_mem.c ****  * To prevent conflicts caused by duplicate set, set ALTCP_MBEDTLS_PLATFORM_ALLOC to 0 here.
  84:C:/Users/stapi/OneDrive/Desktop/GD32VW553/V1_MQTT_OK/GD32VW55X_Wifi_BLE_SDK/GD32VW55x_RELEASE_V1.0.2/MSDK/lwip/lwip-2.1.2/src/apps/altcp_tls\altcp_tls_mbedtls_mem.c **** */
  85:C:/Users/stapi/OneDrive/Desktop/GD32VW553/V1_MQTT_OK/GD32VW55X_Wifi_BLE_SDK/GD32VW55x_RELEASE_V1.0.2/MSDK/lwip/lwip-2.1.2/src/apps/altcp_tls\altcp_tls_mbedtls_mem.c **** #undef ALTCP_MBEDTLS_PLATFORM_ALLOC
  86:C:/Users/stapi/OneDrive/Desktop/GD32VW553/V1_MQTT_OK/GD32VW55X_Wifi_BLE_SDK/GD32VW55x_RELEASE_V1.0.2/MSDK/lwip/lwip-2.1.2/src/apps/altcp_tls\altcp_tls_mbedtls_mem.c **** #define ALTCP_MBEDTLS_PLATFORM_ALLOC 0
  87:C:/Users/stapi/OneDrive/Desktop/GD32VW553/V1_MQTT_OK/GD32VW55X_Wifi_BLE_SDK/GD32VW55x_RELEASE_V1.0.2/MSDK/lwip/lwip-2.1.2/src/apps/altcp_tls\altcp_tls_mbedtls_mem.c **** /* FT TAG */
  88:C:/Users/stapi/OneDrive/Desktop/GD32VW553/V1_MQTT_OK/GD32VW55X_Wifi_BLE_SDK/GD32VW55x_RELEASE_V1.0.2/MSDK/lwip/lwip-2.1.2/src/apps/altcp_tls\altcp_tls_mbedtls_mem.c **** 
  89:C:/Users/stapi/OneDrive/Desktop/GD32VW553/V1_MQTT_OK/GD32VW55X_Wifi_BLE_SDK/GD32VW55x_RELEASE_V1.0.2/MSDK/lwip/lwip-2.1.2/src/apps/altcp_tls\altcp_tls_mbedtls_mem.c **** #if ALTCP_MBEDTLS_PLATFORM_ALLOC
  90:C:/Users/stapi/OneDrive/Desktop/GD32VW553/V1_MQTT_OK/GD32VW55X_Wifi_BLE_SDK/GD32VW55x_RELEASE_V1.0.2/MSDK/lwip/lwip-2.1.2/src/apps/altcp_tls\altcp_tls_mbedtls_mem.c **** 
  91:C:/Users/stapi/OneDrive/Desktop/GD32VW553/V1_MQTT_OK/GD32VW55X_Wifi_BLE_SDK/GD32VW55x_RELEASE_V1.0.2/MSDK/lwip/lwip-2.1.2/src/apps/altcp_tls\altcp_tls_mbedtls_mem.c **** #ifndef ALTCP_MBEDTLS_PLATFORM_ALLOC_STATS
  92:C:/Users/stapi/OneDrive/Desktop/GD32VW553/V1_MQTT_OK/GD32VW55X_Wifi_BLE_SDK/GD32VW55x_RELEASE_V1.0.2/MSDK/lwip/lwip-2.1.2/src/apps/altcp_tls\altcp_tls_mbedtls_mem.c **** #define ALTCP_MBEDTLS_PLATFORM_ALLOC_STATS 0
  93:C:/Users/stapi/OneDrive/Desktop/GD32VW553/V1_MQTT_OK/GD32VW55X_Wifi_BLE_SDK/GD32VW55x_RELEASE_V1.0.2/MSDK/lwip/lwip-2.1.2/src/apps/altcp_tls\altcp_tls_mbedtls_mem.c **** #endif
  94:C:/Users/stapi/OneDrive/Desktop/GD32VW553/V1_MQTT_OK/GD32VW55X_Wifi_BLE_SDK/GD32VW55x_RELEASE_V1.0.2/MSDK/lwip/lwip-2.1.2/src/apps/altcp_tls\altcp_tls_mbedtls_mem.c **** 
  95:C:/Users/stapi/OneDrive/Desktop/GD32VW553/V1_MQTT_OK/GD32VW55X_Wifi_BLE_SDK/GD32VW55x_RELEASE_V1.0.2/MSDK/lwip/lwip-2.1.2/src/apps/altcp_tls\altcp_tls_mbedtls_mem.c **** /* This is an example/debug implementation of alloc/free functions only */
  96:C:/Users/stapi/OneDrive/Desktop/GD32VW553/V1_MQTT_OK/GD32VW55X_Wifi_BLE_SDK/GD32VW55x_RELEASE_V1.0.2/MSDK/lwip/lwip-2.1.2/src/apps/altcp_tls\altcp_tls_mbedtls_mem.c **** typedef struct altcp_mbedtls_malloc_helper_s {
  97:C:/Users/stapi/OneDrive/Desktop/GD32VW553/V1_MQTT_OK/GD32VW55X_Wifi_BLE_SDK/GD32VW55x_RELEASE_V1.0.2/MSDK/lwip/lwip-2.1.2/src/apps/altcp_tls\altcp_tls_mbedtls_mem.c ****   size_t c;
  98:C:/Users/stapi/OneDrive/Desktop/GD32VW553/V1_MQTT_OK/GD32VW55X_Wifi_BLE_SDK/GD32VW55x_RELEASE_V1.0.2/MSDK/lwip/lwip-2.1.2/src/apps/altcp_tls\altcp_tls_mbedtls_mem.c ****   size_t len;
  99:C:/Users/stapi/OneDrive/Desktop/GD32VW553/V1_MQTT_OK/GD32VW55X_Wifi_BLE_SDK/GD32VW55x_RELEASE_V1.0.2/MSDK/lwip/lwip-2.1.2/src/apps/altcp_tls\altcp_tls_mbedtls_mem.c **** } altcp_mbedtls_malloc_helper_t;
 100:C:/Users/stapi/OneDrive/Desktop/GD32VW553/V1_MQTT_OK/GD32VW55X_Wifi_BLE_SDK/GD32VW55x_RELEASE_V1.0.2/MSDK/lwip/lwip-2.1.2/src/apps/altcp_tls\altcp_tls_mbedtls_mem.c **** 
 101:C:/Users/stapi/OneDrive/Desktop/GD32VW553/V1_MQTT_OK/GD32VW55X_Wifi_BLE_SDK/GD32VW55x_RELEASE_V1.0.2/MSDK/lwip/lwip-2.1.2/src/apps/altcp_tls\altcp_tls_mbedtls_mem.c **** #if ALTCP_MBEDTLS_PLATFORM_ALLOC_STATS
 102:C:/Users/stapi/OneDrive/Desktop/GD32VW553/V1_MQTT_OK/GD32VW55X_Wifi_BLE_SDK/GD32VW55x_RELEASE_V1.0.2/MSDK/lwip/lwip-2.1.2/src/apps/altcp_tls\altcp_tls_mbedtls_mem.c **** typedef struct altcp_mbedtls_malloc_stats_s {
 103:C:/Users/stapi/OneDrive/Desktop/GD32VW553/V1_MQTT_OK/GD32VW55X_Wifi_BLE_SDK/GD32VW55x_RELEASE_V1.0.2/MSDK/lwip/lwip-2.1.2/src/apps/altcp_tls\altcp_tls_mbedtls_mem.c ****   size_t allocedBytes;
 104:C:/Users/stapi/OneDrive/Desktop/GD32VW553/V1_MQTT_OK/GD32VW55X_Wifi_BLE_SDK/GD32VW55x_RELEASE_V1.0.2/MSDK/lwip/lwip-2.1.2/src/apps/altcp_tls\altcp_tls_mbedtls_mem.c ****   size_t allocCnt;
 105:C:/Users/stapi/OneDrive/Desktop/GD32VW553/V1_MQTT_OK/GD32VW55X_Wifi_BLE_SDK/GD32VW55x_RELEASE_V1.0.2/MSDK/lwip/lwip-2.1.2/src/apps/altcp_tls\altcp_tls_mbedtls_mem.c ****   size_t maxBytes;
 106:C:/Users/stapi/OneDrive/Desktop/GD32VW553/V1_MQTT_OK/GD32VW55X_Wifi_BLE_SDK/GD32VW55x_RELEASE_V1.0.2/MSDK/lwip/lwip-2.1.2/src/apps/altcp_tls\altcp_tls_mbedtls_mem.c ****   size_t totalBytes;
 107:C:/Users/stapi/OneDrive/Desktop/GD32VW553/V1_MQTT_OK/GD32VW55X_Wifi_BLE_SDK/GD32VW55x_RELEASE_V1.0.2/MSDK/lwip/lwip-2.1.2/src/apps/altcp_tls\altcp_tls_mbedtls_mem.c **** } altcp_mbedtls_malloc_stats_t;
 108:C:/Users/stapi/OneDrive/Desktop/GD32VW553/V1_MQTT_OK/GD32VW55X_Wifi_BLE_SDK/GD32VW55x_RELEASE_V1.0.2/MSDK/lwip/lwip-2.1.2/src/apps/altcp_tls\altcp_tls_mbedtls_mem.c **** altcp_mbedtls_malloc_stats_t altcp_mbedtls_malloc_stats;
 109:C:/Users/stapi/OneDrive/Desktop/GD32VW553/V1_MQTT_OK/GD32VW55X_Wifi_BLE_SDK/GD32VW55x_RELEASE_V1.0.2/MSDK/lwip/lwip-2.1.2/src/apps/altcp_tls\altcp_tls_mbedtls_mem.c **** volatile int altcp_mbedtls_malloc_clear_stats;
 110:C:/Users/stapi/OneDrive/Desktop/GD32VW553/V1_MQTT_OK/GD32VW55X_Wifi_BLE_SDK/GD32VW55x_RELEASE_V1.0.2/MSDK/lwip/lwip-2.1.2/src/apps/altcp_tls\altcp_tls_mbedtls_mem.c **** #endif
 111:C:/Users/stapi/OneDrive/Desktop/GD32VW553/V1_MQTT_OK/GD32VW55X_Wifi_BLE_SDK/GD32VW55x_RELEASE_V1.0.2/MSDK/lwip/lwip-2.1.2/src/apps/altcp_tls\altcp_tls_mbedtls_mem.c **** 
 112:C:/Users/stapi/OneDrive/Desktop/GD32VW553/V1_MQTT_OK/GD32VW55X_Wifi_BLE_SDK/GD32VW55x_RELEASE_V1.0.2/MSDK/lwip/lwip-2.1.2/src/apps/altcp_tls\altcp_tls_mbedtls_mem.c **** static void *
 113:C:/Users/stapi/OneDrive/Desktop/GD32VW553/V1_MQTT_OK/GD32VW55X_Wifi_BLE_SDK/GD32VW55x_RELEASE_V1.0.2/MSDK/lwip/lwip-2.1.2/src/apps/altcp_tls\altcp_tls_mbedtls_mem.c **** tls_malloc(size_t c, size_t len)
 114:C:/Users/stapi/OneDrive/Desktop/GD32VW553/V1_MQTT_OK/GD32VW55X_Wifi_BLE_SDK/GD32VW55x_RELEASE_V1.0.2/MSDK/lwip/lwip-2.1.2/src/apps/altcp_tls\altcp_tls_mbedtls_mem.c **** {
 115:C:/Users/stapi/OneDrive/Desktop/GD32VW553/V1_MQTT_OK/GD32VW55X_Wifi_BLE_SDK/GD32VW55x_RELEASE_V1.0.2/MSDK/lwip/lwip-2.1.2/src/apps/altcp_tls\altcp_tls_mbedtls_mem.c ****   altcp_mbedtls_malloc_helper_t *hlpr;
 116:C:/Users/stapi/OneDrive/Desktop/GD32VW553/V1_MQTT_OK/GD32VW55X_Wifi_BLE_SDK/GD32VW55x_RELEASE_V1.0.2/MSDK/lwip/lwip-2.1.2/src/apps/altcp_tls\altcp_tls_mbedtls_mem.c ****   void *ret;
 117:C:/Users/stapi/OneDrive/Desktop/GD32VW553/V1_MQTT_OK/GD32VW55X_Wifi_BLE_SDK/GD32VW55x_RELEASE_V1.0.2/MSDK/lwip/lwip-2.1.2/src/apps/altcp_tls\altcp_tls_mbedtls_mem.c ****   size_t alloc_size;
 118:C:/Users/stapi/OneDrive/Desktop/GD32VW553/V1_MQTT_OK/GD32VW55X_Wifi_BLE_SDK/GD32VW55x_RELEASE_V1.0.2/MSDK/lwip/lwip-2.1.2/src/apps/altcp_tls\altcp_tls_mbedtls_mem.c **** #if ALTCP_MBEDTLS_PLATFORM_ALLOC_STATS
 119:C:/Users/stapi/OneDrive/Desktop/GD32VW553/V1_MQTT_OK/GD32VW55X_Wifi_BLE_SDK/GD32VW55x_RELEASE_V1.0.2/MSDK/lwip/lwip-2.1.2/src/apps/altcp_tls\altcp_tls_mbedtls_mem.c ****   if (altcp_mbedtls_malloc_clear_stats) {
 120:C:/Users/stapi/OneDrive/Desktop/GD32VW553/V1_MQTT_OK/GD32VW55X_Wifi_BLE_SDK/GD32VW55x_RELEASE_V1.0.2/MSDK/lwip/lwip-2.1.2/src/apps/altcp_tls\altcp_tls_mbedtls_mem.c ****     altcp_mbedtls_malloc_clear_stats = 0;
 121:C:/Users/stapi/OneDrive/Desktop/GD32VW553/V1_MQTT_OK/GD32VW55X_Wifi_BLE_SDK/GD32VW55x_RELEASE_V1.0.2/MSDK/lwip/lwip-2.1.2/src/apps/altcp_tls\altcp_tls_mbedtls_mem.c ****     memset(&altcp_mbedtls_malloc_stats, 0, sizeof(altcp_mbedtls_malloc_stats));
 122:C:/Users/stapi/OneDrive/Desktop/GD32VW553/V1_MQTT_OK/GD32VW55X_Wifi_BLE_SDK/GD32VW55x_RELEASE_V1.0.2/MSDK/lwip/lwip-2.1.2/src/apps/altcp_tls\altcp_tls_mbedtls_mem.c ****   }
 123:C:/Users/stapi/OneDrive/Desktop/GD32VW553/V1_MQTT_OK/GD32VW55X_Wifi_BLE_SDK/GD32VW55x_RELEASE_V1.0.2/MSDK/lwip/lwip-2.1.2/src/apps/altcp_tls\altcp_tls_mbedtls_mem.c **** #endif
 124:C:/Users/stapi/OneDrive/Desktop/GD32VW553/V1_MQTT_OK/GD32VW55X_Wifi_BLE_SDK/GD32VW55x_RELEASE_V1.0.2/MSDK/lwip/lwip-2.1.2/src/apps/altcp_tls\altcp_tls_mbedtls_mem.c ****   alloc_size = sizeof(altcp_mbedtls_malloc_helper_t) + (c * len);
 125:C:/Users/stapi/OneDrive/Desktop/GD32VW553/V1_MQTT_OK/GD32VW55X_Wifi_BLE_SDK/GD32VW55x_RELEASE_V1.0.2/MSDK/lwip/lwip-2.1.2/src/apps/altcp_tls\altcp_tls_mbedtls_mem.c ****   /* check for maximum allocation size, mainly to prevent mem_size_t overflow */
 126:C:/Users/stapi/OneDrive/Desktop/GD32VW553/V1_MQTT_OK/GD32VW55X_Wifi_BLE_SDK/GD32VW55x_RELEASE_V1.0.2/MSDK/lwip/lwip-2.1.2/src/apps/altcp_tls\altcp_tls_mbedtls_mem.c ****   if (alloc_size > MEM_SIZE) {
 127:C:/Users/stapi/OneDrive/Desktop/GD32VW553/V1_MQTT_OK/GD32VW55X_Wifi_BLE_SDK/GD32VW55x_RELEASE_V1.0.2/MSDK/lwip/lwip-2.1.2/src/apps/altcp_tls\altcp_tls_mbedtls_mem.c ****     LWIP_DEBUGF(ALTCP_MBEDTLS_MEM_DEBUG, ("mbedtls allocation too big: %c * %d bytes vs MEM_SIZE=%d
 128:C:/Users/stapi/OneDrive/Desktop/GD32VW553/V1_MQTT_OK/GD32VW55X_Wifi_BLE_SDK/GD32VW55x_RELEASE_V1.0.2/MSDK/lwip/lwip-2.1.2/src/apps/altcp_tls\altcp_tls_mbedtls_mem.c ****                                           (int)c, (int)len, (int)MEM_SIZE));
 129:C:/Users/stapi/OneDrive/Desktop/GD32VW553/V1_MQTT_OK/GD32VW55X_Wifi_BLE_SDK/GD32VW55x_RELEASE_V1.0.2/MSDK/lwip/lwip-2.1.2/src/apps/altcp_tls\altcp_tls_mbedtls_mem.c ****     return NULL;
 130:C:/Users/stapi/OneDrive/Desktop/GD32VW553/V1_MQTT_OK/GD32VW55X_Wifi_BLE_SDK/GD32VW55x_RELEASE_V1.0.2/MSDK/lwip/lwip-2.1.2/src/apps/altcp_tls\altcp_tls_mbedtls_mem.c ****   }
 131:C:/Users/stapi/OneDrive/Desktop/GD32VW553/V1_MQTT_OK/GD32VW55X_Wifi_BLE_SDK/GD32VW55x_RELEASE_V1.0.2/MSDK/lwip/lwip-2.1.2/src/apps/altcp_tls\altcp_tls_mbedtls_mem.c ****   hlpr = (altcp_mbedtls_malloc_helper_t *)mem_malloc((mem_size_t)alloc_size);
 132:C:/Users/stapi/OneDrive/Desktop/GD32VW553/V1_MQTT_OK/GD32VW55X_Wifi_BLE_SDK/GD32VW55x_RELEASE_V1.0.2/MSDK/lwip/lwip-2.1.2/src/apps/altcp_tls\altcp_tls_mbedtls_mem.c ****   if (hlpr == NULL) {
 133:C:/Users/stapi/OneDrive/Desktop/GD32VW553/V1_MQTT_OK/GD32VW55X_Wifi_BLE_SDK/GD32VW55x_RELEASE_V1.0.2/MSDK/lwip/lwip-2.1.2/src/apps/altcp_tls\altcp_tls_mbedtls_mem.c ****     LWIP_DEBUGF(ALTCP_MBEDTLS_MEM_DEBUG, ("mbedtls alloc callback failed for %c * %d bytes", (int)c
 134:C:/Users/stapi/OneDrive/Desktop/GD32VW553/V1_MQTT_OK/GD32VW55X_Wifi_BLE_SDK/GD32VW55x_RELEASE_V1.0.2/MSDK/lwip/lwip-2.1.2/src/apps/altcp_tls\altcp_tls_mbedtls_mem.c ****     return NULL;
 135:C:/Users/stapi/OneDrive/Desktop/GD32VW553/V1_MQTT_OK/GD32VW55X_Wifi_BLE_SDK/GD32VW55x_RELEASE_V1.0.2/MSDK/lwip/lwip-2.1.2/src/apps/altcp_tls\altcp_tls_mbedtls_mem.c ****   }
 136:C:/Users/stapi/OneDrive/Desktop/GD32VW553/V1_MQTT_OK/GD32VW55X_Wifi_BLE_SDK/GD32VW55x_RELEASE_V1.0.2/MSDK/lwip/lwip-2.1.2/src/apps/altcp_tls\altcp_tls_mbedtls_mem.c **** #if ALTCP_MBEDTLS_PLATFORM_ALLOC_STATS
 137:C:/Users/stapi/OneDrive/Desktop/GD32VW553/V1_MQTT_OK/GD32VW55X_Wifi_BLE_SDK/GD32VW55x_RELEASE_V1.0.2/MSDK/lwip/lwip-2.1.2/src/apps/altcp_tls\altcp_tls_mbedtls_mem.c ****   altcp_mbedtls_malloc_stats.allocCnt++;
 138:C:/Users/stapi/OneDrive/Desktop/GD32VW553/V1_MQTT_OK/GD32VW55X_Wifi_BLE_SDK/GD32VW55x_RELEASE_V1.0.2/MSDK/lwip/lwip-2.1.2/src/apps/altcp_tls\altcp_tls_mbedtls_mem.c ****   altcp_mbedtls_malloc_stats.allocedBytes += c * len;
 139:C:/Users/stapi/OneDrive/Desktop/GD32VW553/V1_MQTT_OK/GD32VW55X_Wifi_BLE_SDK/GD32VW55x_RELEASE_V1.0.2/MSDK/lwip/lwip-2.1.2/src/apps/altcp_tls\altcp_tls_mbedtls_mem.c ****   if (altcp_mbedtls_malloc_stats.allocedBytes > altcp_mbedtls_malloc_stats.maxBytes) {
 140:C:/Users/stapi/OneDrive/Desktop/GD32VW553/V1_MQTT_OK/GD32VW55X_Wifi_BLE_SDK/GD32VW55x_RELEASE_V1.0.2/MSDK/lwip/lwip-2.1.2/src/apps/altcp_tls\altcp_tls_mbedtls_mem.c ****     altcp_mbedtls_malloc_stats.maxBytes = altcp_mbedtls_malloc_stats.allocedBytes;
 141:C:/Users/stapi/OneDrive/Desktop/GD32VW553/V1_MQTT_OK/GD32VW55X_Wifi_BLE_SDK/GD32VW55x_RELEASE_V1.0.2/MSDK/lwip/lwip-2.1.2/src/apps/altcp_tls\altcp_tls_mbedtls_mem.c ****   }
 142:C:/Users/stapi/OneDrive/Desktop/GD32VW553/V1_MQTT_OK/GD32VW55X_Wifi_BLE_SDK/GD32VW55x_RELEASE_V1.0.2/MSDK/lwip/lwip-2.1.2/src/apps/altcp_tls\altcp_tls_mbedtls_mem.c ****   altcp_mbedtls_malloc_stats.totalBytes += c * len;
 143:C:/Users/stapi/OneDrive/Desktop/GD32VW553/V1_MQTT_OK/GD32VW55X_Wifi_BLE_SDK/GD32VW55x_RELEASE_V1.0.2/MSDK/lwip/lwip-2.1.2/src/apps/altcp_tls\altcp_tls_mbedtls_mem.c **** #endif
 144:C:/Users/stapi/OneDrive/Desktop/GD32VW553/V1_MQTT_OK/GD32VW55X_Wifi_BLE_SDK/GD32VW55x_RELEASE_V1.0.2/MSDK/lwip/lwip-2.1.2/src/apps/altcp_tls\altcp_tls_mbedtls_mem.c ****   hlpr->c = c;
 145:C:/Users/stapi/OneDrive/Desktop/GD32VW553/V1_MQTT_OK/GD32VW55X_Wifi_BLE_SDK/GD32VW55x_RELEASE_V1.0.2/MSDK/lwip/lwip-2.1.2/src/apps/altcp_tls\altcp_tls_mbedtls_mem.c ****   hlpr->len = len;
 146:C:/Users/stapi/OneDrive/Desktop/GD32VW553/V1_MQTT_OK/GD32VW55X_Wifi_BLE_SDK/GD32VW55x_RELEASE_V1.0.2/MSDK/lwip/lwip-2.1.2/src/apps/altcp_tls\altcp_tls_mbedtls_mem.c ****   ret = hlpr + 1;
 147:C:/Users/stapi/OneDrive/Desktop/GD32VW553/V1_MQTT_OK/GD32VW55X_Wifi_BLE_SDK/GD32VW55x_RELEASE_V1.0.2/MSDK/lwip/lwip-2.1.2/src/apps/altcp_tls\altcp_tls_mbedtls_mem.c ****   /* zeroing the allocated chunk is required by mbedTLS! */
 148:C:/Users/stapi/OneDrive/Desktop/GD32VW553/V1_MQTT_OK/GD32VW55X_Wifi_BLE_SDK/GD32VW55x_RELEASE_V1.0.2/MSDK/lwip/lwip-2.1.2/src/apps/altcp_tls\altcp_tls_mbedtls_mem.c ****   memset(ret, 0, c * len);
 149:C:/Users/stapi/OneDrive/Desktop/GD32VW553/V1_MQTT_OK/GD32VW55X_Wifi_BLE_SDK/GD32VW55x_RELEASE_V1.0.2/MSDK/lwip/lwip-2.1.2/src/apps/altcp_tls\altcp_tls_mbedtls_mem.c ****   return ret;
 150:C:/Users/stapi/OneDrive/Desktop/GD32VW553/V1_MQTT_OK/GD32VW55X_Wifi_BLE_SDK/GD32VW55x_RELEASE_V1.0.2/MSDK/lwip/lwip-2.1.2/src/apps/altcp_tls\altcp_tls_mbedtls_mem.c **** }
 151:C:/Users/stapi/OneDrive/Desktop/GD32VW553/V1_MQTT_OK/GD32VW55X_Wifi_BLE_SDK/GD32VW55x_RELEASE_V1.0.2/MSDK/lwip/lwip-2.1.2/src/apps/altcp_tls\altcp_tls_mbedtls_mem.c **** 
 152:C:/Users/stapi/OneDrive/Desktop/GD32VW553/V1_MQTT_OK/GD32VW55X_Wifi_BLE_SDK/GD32VW55x_RELEASE_V1.0.2/MSDK/lwip/lwip-2.1.2/src/apps/altcp_tls\altcp_tls_mbedtls_mem.c **** static void
 153:C:/Users/stapi/OneDrive/Desktop/GD32VW553/V1_MQTT_OK/GD32VW55X_Wifi_BLE_SDK/GD32VW55x_RELEASE_V1.0.2/MSDK/lwip/lwip-2.1.2/src/apps/altcp_tls\altcp_tls_mbedtls_mem.c **** tls_free(void *ptr)
 154:C:/Users/stapi/OneDrive/Desktop/GD32VW553/V1_MQTT_OK/GD32VW55X_Wifi_BLE_SDK/GD32VW55x_RELEASE_V1.0.2/MSDK/lwip/lwip-2.1.2/src/apps/altcp_tls\altcp_tls_mbedtls_mem.c **** {
 155:C:/Users/stapi/OneDrive/Desktop/GD32VW553/V1_MQTT_OK/GD32VW55X_Wifi_BLE_SDK/GD32VW55x_RELEASE_V1.0.2/MSDK/lwip/lwip-2.1.2/src/apps/altcp_tls\altcp_tls_mbedtls_mem.c ****   altcp_mbedtls_malloc_helper_t *hlpr;
 156:C:/Users/stapi/OneDrive/Desktop/GD32VW553/V1_MQTT_OK/GD32VW55X_Wifi_BLE_SDK/GD32VW55x_RELEASE_V1.0.2/MSDK/lwip/lwip-2.1.2/src/apps/altcp_tls\altcp_tls_mbedtls_mem.c ****   if (ptr == NULL) {
 157:C:/Users/stapi/OneDrive/Desktop/GD32VW553/V1_MQTT_OK/GD32VW55X_Wifi_BLE_SDK/GD32VW55x_RELEASE_V1.0.2/MSDK/lwip/lwip-2.1.2/src/apps/altcp_tls\altcp_tls_mbedtls_mem.c ****     /* this obviously happened in mbedtls... */
 158:C:/Users/stapi/OneDrive/Desktop/GD32VW553/V1_MQTT_OK/GD32VW55X_Wifi_BLE_SDK/GD32VW55x_RELEASE_V1.0.2/MSDK/lwip/lwip-2.1.2/src/apps/altcp_tls\altcp_tls_mbedtls_mem.c ****     return;
 159:C:/Users/stapi/OneDrive/Desktop/GD32VW553/V1_MQTT_OK/GD32VW55X_Wifi_BLE_SDK/GD32VW55x_RELEASE_V1.0.2/MSDK/lwip/lwip-2.1.2/src/apps/altcp_tls\altcp_tls_mbedtls_mem.c ****   }
 160:C:/Users/stapi/OneDrive/Desktop/GD32VW553/V1_MQTT_OK/GD32VW55X_Wifi_BLE_SDK/GD32VW55x_RELEASE_V1.0.2/MSDK/lwip/lwip-2.1.2/src/apps/altcp_tls\altcp_tls_mbedtls_mem.c ****   hlpr = ((altcp_mbedtls_malloc_helper_t *)ptr) - 1;
 161:C:/Users/stapi/OneDrive/Desktop/GD32VW553/V1_MQTT_OK/GD32VW55X_Wifi_BLE_SDK/GD32VW55x_RELEASE_V1.0.2/MSDK/lwip/lwip-2.1.2/src/apps/altcp_tls\altcp_tls_mbedtls_mem.c **** #if ALTCP_MBEDTLS_PLATFORM_ALLOC_STATS
 162:C:/Users/stapi/OneDrive/Desktop/GD32VW553/V1_MQTT_OK/GD32VW55X_Wifi_BLE_SDK/GD32VW55x_RELEASE_V1.0.2/MSDK/lwip/lwip-2.1.2/src/apps/altcp_tls\altcp_tls_mbedtls_mem.c ****   if (!altcp_mbedtls_malloc_clear_stats) {
 163:C:/Users/stapi/OneDrive/Desktop/GD32VW553/V1_MQTT_OK/GD32VW55X_Wifi_BLE_SDK/GD32VW55x_RELEASE_V1.0.2/MSDK/lwip/lwip-2.1.2/src/apps/altcp_tls\altcp_tls_mbedtls_mem.c ****     altcp_mbedtls_malloc_stats.allocedBytes -= hlpr->c * hlpr->len;
 164:C:/Users/stapi/OneDrive/Desktop/GD32VW553/V1_MQTT_OK/GD32VW55X_Wifi_BLE_SDK/GD32VW55x_RELEASE_V1.0.2/MSDK/lwip/lwip-2.1.2/src/apps/altcp_tls\altcp_tls_mbedtls_mem.c ****   }
 165:C:/Users/stapi/OneDrive/Desktop/GD32VW553/V1_MQTT_OK/GD32VW55X_Wifi_BLE_SDK/GD32VW55x_RELEASE_V1.0.2/MSDK/lwip/lwip-2.1.2/src/apps/altcp_tls\altcp_tls_mbedtls_mem.c **** #endif
 166:C:/Users/stapi/OneDrive/Desktop/GD32VW553/V1_MQTT_OK/GD32VW55X_Wifi_BLE_SDK/GD32VW55x_RELEASE_V1.0.2/MSDK/lwip/lwip-2.1.2/src/apps/altcp_tls\altcp_tls_mbedtls_mem.c ****   mem_free(hlpr);
 167:C:/Users/stapi/OneDrive/Desktop/GD32VW553/V1_MQTT_OK/GD32VW55X_Wifi_BLE_SDK/GD32VW55x_RELEASE_V1.0.2/MSDK/lwip/lwip-2.1.2/src/apps/altcp_tls\altcp_tls_mbedtls_mem.c **** }
 168:C:/Users/stapi/OneDrive/Desktop/GD32VW553/V1_MQTT_OK/GD32VW55X_Wifi_BLE_SDK/GD32VW55x_RELEASE_V1.0.2/MSDK/lwip/lwip-2.1.2/src/apps/altcp_tls\altcp_tls_mbedtls_mem.c **** #endif /* ALTCP_MBEDTLS_PLATFORM_ALLOC*/
 169:C:/Users/stapi/OneDrive/Desktop/GD32VW553/V1_MQTT_OK/GD32VW55X_Wifi_BLE_SDK/GD32VW55x_RELEASE_V1.0.2/MSDK/lwip/lwip-2.1.2/src/apps/altcp_tls\altcp_tls_mbedtls_mem.c **** 
 170:C:/Users/stapi/OneDrive/Desktop/GD32VW553/V1_MQTT_OK/GD32VW55X_Wifi_BLE_SDK/GD32VW55x_RELEASE_V1.0.2/MSDK/lwip/lwip-2.1.2/src/apps/altcp_tls\altcp_tls_mbedtls_mem.c **** void
 171:C:/Users/stapi/OneDrive/Desktop/GD32VW553/V1_MQTT_OK/GD32VW55X_Wifi_BLE_SDK/GD32VW55x_RELEASE_V1.0.2/MSDK/lwip/lwip-2.1.2/src/apps/altcp_tls\altcp_tls_mbedtls_mem.c **** altcp_mbedtls_mem_init(void)
 172:C:/Users/stapi/OneDrive/Desktop/GD32VW553/V1_MQTT_OK/GD32VW55X_Wifi_BLE_SDK/GD32VW55x_RELEASE_V1.0.2/MSDK/lwip/lwip-2.1.2/src/apps/altcp_tls\altcp_tls_mbedtls_mem.c **** {
  16              		.loc 1 172 1
  17              		.cfi_startproc
 173:C:/Users/stapi/OneDrive/Desktop/GD32VW553/V1_MQTT_OK/GD32VW55X_Wifi_BLE_SDK/GD32VW55x_RELEASE_V1.0.2/MSDK/lwip/lwip-2.1.2/src/apps/altcp_tls\altcp_tls_mbedtls_mem.c ****   /* not much to do here when using the heap */
 174:C:/Users/stapi/OneDrive/Desktop/GD32VW553/V1_MQTT_OK/GD32VW55X_Wifi_BLE_SDK/GD32VW55x_RELEASE_V1.0.2/MSDK/lwip/lwip-2.1.2/src/apps/altcp_tls\altcp_tls_mbedtls_mem.c **** 
 175:C:/Users/stapi/OneDrive/Desktop/GD32VW553/V1_MQTT_OK/GD32VW55X_Wifi_BLE_SDK/GD32VW55x_RELEASE_V1.0.2/MSDK/lwip/lwip-2.1.2/src/apps/altcp_tls\altcp_tls_mbedtls_mem.c **** #if ALTCP_MBEDTLS_PLATFORM_ALLOC
 176:C:/Users/stapi/OneDrive/Desktop/GD32VW553/V1_MQTT_OK/GD32VW55X_Wifi_BLE_SDK/GD32VW55x_RELEASE_V1.0.2/MSDK/lwip/lwip-2.1.2/src/apps/altcp_tls\altcp_tls_mbedtls_mem.c ****   /* set mbedtls allocation methods */
 177:C:/Users/stapi/OneDrive/Desktop/GD32VW553/V1_MQTT_OK/GD32VW55X_Wifi_BLE_SDK/GD32VW55x_RELEASE_V1.0.2/MSDK/lwip/lwip-2.1.2/src/apps/altcp_tls\altcp_tls_mbedtls_mem.c ****   mbedtls_platform_set_calloc_free(&tls_malloc, &tls_free);
 178:C:/Users/stapi/OneDrive/Desktop/GD32VW553/V1_MQTT_OK/GD32VW55X_Wifi_BLE_SDK/GD32VW55x_RELEASE_V1.0.2/MSDK/lwip/lwip-2.1.2/src/apps/altcp_tls\altcp_tls_mbedtls_mem.c **** #endif
 179:C:/Users/stapi/OneDrive/Desktop/GD32VW553/V1_MQTT_OK/GD32VW55X_Wifi_BLE_SDK/GD32VW55x_RELEASE_V1.0.2/MSDK/lwip/lwip-2.1.2/src/apps/altcp_tls\altcp_tls_mbedtls_mem.c **** }
  18              		.loc 1 179 1
  19 0000 8280     		ret
  20              		.cfi_endproc
  21              	.LFE383:
  23              		.section	.text.altcp_mbedtls_alloc,"ax",@progbits
  24              		.align	1
  25              		.globl	altcp_mbedtls_alloc
  27              	altcp_mbedtls_alloc:
  28              	.LFB384:
 180:C:/Users/stapi/OneDrive/Desktop/GD32VW553/V1_MQTT_OK/GD32VW55X_Wifi_BLE_SDK/GD32VW55x_RELEASE_V1.0.2/MSDK/lwip/lwip-2.1.2/src/apps/altcp_tls\altcp_tls_mbedtls_mem.c **** 
 181:C:/Users/stapi/OneDrive/Desktop/GD32VW553/V1_MQTT_OK/GD32VW55X_Wifi_BLE_SDK/GD32VW55x_RELEASE_V1.0.2/MSDK/lwip/lwip-2.1.2/src/apps/altcp_tls\altcp_tls_mbedtls_mem.c **** altcp_mbedtls_state_t *
 182:C:/Users/stapi/OneDrive/Desktop/GD32VW553/V1_MQTT_OK/GD32VW55X_Wifi_BLE_SDK/GD32VW55x_RELEASE_V1.0.2/MSDK/lwip/lwip-2.1.2/src/apps/altcp_tls\altcp_tls_mbedtls_mem.c **** altcp_mbedtls_alloc(void *conf)
 183:C:/Users/stapi/OneDrive/Desktop/GD32VW553/V1_MQTT_OK/GD32VW55X_Wifi_BLE_SDK/GD32VW55x_RELEASE_V1.0.2/MSDK/lwip/lwip-2.1.2/src/apps/altcp_tls\altcp_tls_mbedtls_mem.c **** {
  29              		.loc 1 183 1
  30              		.cfi_startproc
  31              	.LVL0:
  32 0000 17030000 		call	t0,__riscv_save_1
  32      E7020300 
  33              		.cfi_offset 8, -8
  34              		.cfi_offset 1, -4
  35              		.cfi_def_cfa_offset 16
 184:C:/Users/stapi/OneDrive/Desktop/GD32VW553/V1_MQTT_OK/GD32VW55X_Wifi_BLE_SDK/GD32VW55x_RELEASE_V1.0.2/MSDK/lwip/lwip-2.1.2/src/apps/altcp_tls\altcp_tls_mbedtls_mem.c ****   altcp_mbedtls_state_t *ret = (altcp_mbedtls_state_t *)mem_calloc(1, sizeof(altcp_mbedtls_state_t)
  36              		.loc 1 184 3
 183:C:/Users/stapi/OneDrive/Desktop/GD32VW553/V1_MQTT_OK/GD32VW55X_Wifi_BLE_SDK/GD32VW55x_RELEASE_V1.0.2/MSDK/lwip/lwip-2.1.2/src/apps/altcp_tls\altcp_tls_mbedtls_mem.c ****   altcp_mbedtls_state_t *ret = (altcp_mbedtls_state_t *)mem_calloc(1, sizeof(altcp_mbedtls_state_t)
  37              		.loc 1 183 1 is_stmt 0
  38 0008 2A84     		mv	s0,a0
  39              		.loc 1 184 57
  40 000a 93058016 		li	a1,360
  41 000e 0545     		li	a0,1
  42              	.LVL1:
  43 0010 97000000 		call	mem_calloc
  43      E7800000 
  44              	.LVL2:
 185:C:/Users/stapi/OneDrive/Desktop/GD32VW553/V1_MQTT_OK/GD32VW55X_Wifi_BLE_SDK/GD32VW55x_RELEASE_V1.0.2/MSDK/lwip/lwip-2.1.2/src/apps/altcp_tls\altcp_tls_mbedtls_mem.c ****   if (ret != NULL) {
  45              		.loc 1 185 3 is_stmt 1
  46              		.loc 1 185 6 is_stmt 0
  47 0018 11C1     		beq	a0,zero,.L2
 186:C:/Users/stapi/OneDrive/Desktop/GD32VW553/V1_MQTT_OK/GD32VW55X_Wifi_BLE_SDK/GD32VW55x_RELEASE_V1.0.2/MSDK/lwip/lwip-2.1.2/src/apps/altcp_tls\altcp_tls_mbedtls_mem.c ****     ret->conf = conf;
  48              		.loc 1 186 5 is_stmt 1
  49              		.loc 1 186 15 is_stmt 0
  50 001a 00C1     		sw	s0,0(a0)
 187:C:/Users/stapi/OneDrive/Desktop/GD32VW553/V1_MQTT_OK/GD32VW55X_Wifi_BLE_SDK/GD32VW55x_RELEASE_V1.0.2/MSDK/lwip/lwip-2.1.2/src/apps/altcp_tls\altcp_tls_mbedtls_mem.c ****   }
 188:C:/Users/stapi/OneDrive/Desktop/GD32VW553/V1_MQTT_OK/GD32VW55X_Wifi_BLE_SDK/GD32VW55x_RELEASE_V1.0.2/MSDK/lwip/lwip-2.1.2/src/apps/altcp_tls\altcp_tls_mbedtls_mem.c ****   return ret;
  51              		.loc 1 188 3 is_stmt 1
  52              	.L2:
 189:C:/Users/stapi/OneDrive/Desktop/GD32VW553/V1_MQTT_OK/GD32VW55X_Wifi_BLE_SDK/GD32VW55x_RELEASE_V1.0.2/MSDK/lwip/lwip-2.1.2/src/apps/altcp_tls\altcp_tls_mbedtls_mem.c **** }
  53              		.loc 1 189 1 is_stmt 0
  54 001c 17030000 		tail	__riscv_restore_1
  54      67000300 
  55              		.cfi_restore 8
  56              		.cfi_restore 1
  57              		.cfi_def_cfa_offset 0
  58              		.cfi_endproc
  59              	.LFE384:
  61              		.section	.rodata.altcp_mbedtls_free.str1.4,"aMS",@progbits,1
  62              		.align	2
  63              	.LC0:
  64 0000 433A2F55 		.string	"C:/Users/stapi/OneDrive/Desktop/GD32VW553/V1_MQTT_OK/GD32VW55X_Wifi_BLE_SDK/GD32VW55x_REL
  64      73657273 
  64      2F737461 
  64      70692F4F 
  64      6E654472 
  65 00a5 000000   		.align	2
  66              	.LC1:
  67 00a8 73746174 		.string	"state != NULL"
  67      6520213D 
  67      204E554C 
  67      4C00
  68 00b6 0000     		.align	2
  69              	.LC2:
  70 00b8 41737365 		.string	"Assertion \"%s\" failed at line %d in %s\n"
  70      7274696F 
  70      6E202225 
  70      73222066 
  70      61696C65 
  71              		.section	.text.altcp_mbedtls_free,"ax",@progbits
  72              		.align	1
  73              		.globl	altcp_mbedtls_free
  75              	altcp_mbedtls_free:
  76              	.LFB385:
 190:C:/Users/stapi/OneDrive/Desktop/GD32VW553/V1_MQTT_OK/GD32VW55X_Wifi_BLE_SDK/GD32VW55x_RELEASE_V1.0.2/MSDK/lwip/lwip-2.1.2/src/apps/altcp_tls\altcp_tls_mbedtls_mem.c **** 
 191:C:/Users/stapi/OneDrive/Desktop/GD32VW553/V1_MQTT_OK/GD32VW55X_Wifi_BLE_SDK/GD32VW55x_RELEASE_V1.0.2/MSDK/lwip/lwip-2.1.2/src/apps/altcp_tls\altcp_tls_mbedtls_mem.c **** void
 192:C:/Users/stapi/OneDrive/Desktop/GD32VW553/V1_MQTT_OK/GD32VW55X_Wifi_BLE_SDK/GD32VW55x_RELEASE_V1.0.2/MSDK/lwip/lwip-2.1.2/src/apps/altcp_tls\altcp_tls_mbedtls_mem.c **** altcp_mbedtls_free(void *conf, altcp_mbedtls_state_t *state)
 193:C:/Users/stapi/OneDrive/Desktop/GD32VW553/V1_MQTT_OK/GD32VW55X_Wifi_BLE_SDK/GD32VW55x_RELEASE_V1.0.2/MSDK/lwip/lwip-2.1.2/src/apps/altcp_tls\altcp_tls_mbedtls_mem.c **** {
  77              		.loc 1 193 1 is_stmt 1
  78              		.cfi_startproc
  79              	.LVL3:
  80 0000 17030000 		call	t0,__riscv_save_0
  80      E7020300 
  81              		.cfi_offset 1, -4
  82              		.cfi_def_cfa_offset 16
 194:C:/Users/stapi/OneDrive/Desktop/GD32VW553/V1_MQTT_OK/GD32VW55X_Wifi_BLE_SDK/GD32VW55x_RELEASE_V1.0.2/MSDK/lwip/lwip-2.1.2/src/apps/altcp_tls\altcp_tls_mbedtls_mem.c ****   LWIP_UNUSED_ARG(conf);
  83              		.loc 1 194 3
 195:C:/Users/stapi/OneDrive/Desktop/GD32VW553/V1_MQTT_OK/GD32VW55X_Wifi_BLE_SDK/GD32VW55x_RELEASE_V1.0.2/MSDK/lwip/lwip-2.1.2/src/apps/altcp_tls\altcp_tls_mbedtls_mem.c ****   LWIP_ASSERT("state != NULL", state != NULL);
  84              		.loc 1 195 3
  85              		.loc 1 195 3
  86 0008 85E5     		bne	a1,zero,.L9
  87              		.loc 1 195 3 discriminator 1
  88              		.loc 1 195 3 discriminator 1
  89 000a B7060000 		lui	a3,%hi(.LC0)
  90 000e B7050000 		lui	a1,%hi(.LC1)
  91              	.LVL4:
  92 0012 37050000 		lui	a0,%hi(.LC2)
  93              	.LVL5:
  94 0016 93860600 		addi	a3,a3,%lo(.LC0)
  95 001a 1306300C 		li	a2,195
  96 001e 93850500 		addi	a1,a1,%lo(.LC1)
  97 0022 13050500 		addi	a0,a0,%lo(.LC2)
  98 0026 97000000 		call	printf
  98      E7800000 
  99              	.LVL6:
 100              	.L10:
 101              		.loc 1 195 3 discriminator 1
 102              		.loc 1 195 3 discriminator 1
 103              		.loc 1 195 3 discriminator 1
 104 002e 01A0     		j	.L10
 105              	.LVL7:
 106              	.L9:
 107 0030 2E85     		mv	a0,a1
 108              	.LVL8:
 109              		.loc 1 195 3 discriminator 2
 110              		.loc 1 195 3 discriminator 2
 196:C:/Users/stapi/OneDrive/Desktop/GD32VW553/V1_MQTT_OK/GD32VW55X_Wifi_BLE_SDK/GD32VW55x_RELEASE_V1.0.2/MSDK/lwip/lwip-2.1.2/src/apps/altcp_tls\altcp_tls_mbedtls_mem.c ****   mem_free(state);
 111              		.loc 1 196 3 discriminator 2
 112 0032 97000000 		call	mem_free
 112      E7800000 
 113              	.LVL9:
 197:C:/Users/stapi/OneDrive/Desktop/GD32VW553/V1_MQTT_OK/GD32VW55X_Wifi_BLE_SDK/GD32VW55x_RELEASE_V1.0.2/MSDK/lwip/lwip-2.1.2/src/apps/altcp_tls\altcp_tls_mbedtls_mem.c **** }
 114              		.loc 1 197 1 is_stmt 0 discriminator 2
 115 003a 17030000 		tail	__riscv_restore_0
 115      67000300 
 116              		.cfi_restore 1
 117              		.cfi_def_cfa_offset 0
 118              		.cfi_endproc
 119              	.LFE385:
 121              		.section	.text.altcp_mbedtls_alloc_config,"ax",@progbits
 122              		.align	1
 123              		.globl	altcp_mbedtls_alloc_config
 125              	altcp_mbedtls_alloc_config:
 126              	.LFB386:
 198:C:/Users/stapi/OneDrive/Desktop/GD32VW553/V1_MQTT_OK/GD32VW55X_Wifi_BLE_SDK/GD32VW55x_RELEASE_V1.0.2/MSDK/lwip/lwip-2.1.2/src/apps/altcp_tls\altcp_tls_mbedtls_mem.c **** 
 199:C:/Users/stapi/OneDrive/Desktop/GD32VW553/V1_MQTT_OK/GD32VW55X_Wifi_BLE_SDK/GD32VW55x_RELEASE_V1.0.2/MSDK/lwip/lwip-2.1.2/src/apps/altcp_tls\altcp_tls_mbedtls_mem.c **** void *
 200:C:/Users/stapi/OneDrive/Desktop/GD32VW553/V1_MQTT_OK/GD32VW55X_Wifi_BLE_SDK/GD32VW55x_RELEASE_V1.0.2/MSDK/lwip/lwip-2.1.2/src/apps/altcp_tls\altcp_tls_mbedtls_mem.c **** altcp_mbedtls_alloc_config(size_t size)
 201:C:/Users/stapi/OneDrive/Desktop/GD32VW553/V1_MQTT_OK/GD32VW55X_Wifi_BLE_SDK/GD32VW55x_RELEASE_V1.0.2/MSDK/lwip/lwip-2.1.2/src/apps/altcp_tls\altcp_tls_mbedtls_mem.c **** {
 127              		.loc 1 201 1 is_stmt 1
 128              		.cfi_startproc
 129              	.LVL10:
 202:C:/Users/stapi/OneDrive/Desktop/GD32VW553/V1_MQTT_OK/GD32VW55X_Wifi_BLE_SDK/GD32VW55x_RELEASE_V1.0.2/MSDK/lwip/lwip-2.1.2/src/apps/altcp_tls\altcp_tls_mbedtls_mem.c ****   void *ret;
 130              		.loc 1 202 3
 203:C:/Users/stapi/OneDrive/Desktop/GD32VW553/V1_MQTT_OK/GD32VW55X_Wifi_BLE_SDK/GD32VW55x_RELEASE_V1.0.2/MSDK/lwip/lwip-2.1.2/src/apps/altcp_tls\altcp_tls_mbedtls_mem.c ****   size_t checked_size = (mem_size_t)size;
 131              		.loc 1 203 3
 204:C:/Users/stapi/OneDrive/Desktop/GD32VW553/V1_MQTT_OK/GD32VW55X_Wifi_BLE_SDK/GD32VW55x_RELEASE_V1.0.2/MSDK/lwip/lwip-2.1.2/src/apps/altcp_tls\altcp_tls_mbedtls_mem.c ****   if (size != checked_size) {
 132              		.loc 1 204 3
 133              		.loc 1 204 6 is_stmt 0
 134 0000 B3470508 		zext.h	a5,a0
 135 0004 6318F500 		bne	a0,a5,.L14
 205:C:/Users/stapi/OneDrive/Desktop/GD32VW553/V1_MQTT_OK/GD32VW55X_Wifi_BLE_SDK/GD32VW55x_RELEASE_V1.0.2/MSDK/lwip/lwip-2.1.2/src/apps/altcp_tls\altcp_tls_mbedtls_mem.c ****     /* allocation too big (mem_size_t overflow) */
 206:C:/Users/stapi/OneDrive/Desktop/GD32VW553/V1_MQTT_OK/GD32VW55X_Wifi_BLE_SDK/GD32VW55x_RELEASE_V1.0.2/MSDK/lwip/lwip-2.1.2/src/apps/altcp_tls\altcp_tls_mbedtls_mem.c ****     return NULL;
 207:C:/Users/stapi/OneDrive/Desktop/GD32VW553/V1_MQTT_OK/GD32VW55X_Wifi_BLE_SDK/GD32VW55x_RELEASE_V1.0.2/MSDK/lwip/lwip-2.1.2/src/apps/altcp_tls\altcp_tls_mbedtls_mem.c ****   }
 208:C:/Users/stapi/OneDrive/Desktop/GD32VW553/V1_MQTT_OK/GD32VW55X_Wifi_BLE_SDK/GD32VW55x_RELEASE_V1.0.2/MSDK/lwip/lwip-2.1.2/src/apps/altcp_tls\altcp_tls_mbedtls_mem.c ****   ret = (altcp_mbedtls_state_t *)mem_calloc(1, (mem_size_t)size);
 136              		.loc 1 208 3 is_stmt 1
 137              		.loc 1 208 34 is_stmt 0
 138 0008 BE85     		mv	a1,a5
 139 000a 0545     		li	a0,1
 140              	.LVL11:
 141 000c 17030000 		tail	mem_calloc
 141      67000300 
 142              	.LVL12:
 209:C:/Users/stapi/OneDrive/Desktop/GD32VW553/V1_MQTT_OK/GD32VW55X_Wifi_BLE_SDK/GD32VW55x_RELEASE_V1.0.2/MSDK/lwip/lwip-2.1.2/src/apps/altcp_tls\altcp_tls_mbedtls_mem.c ****   return ret;
 143              		.loc 1 209 3 is_stmt 1
 144              	.L14:
 206:C:/Users/stapi/OneDrive/Desktop/GD32VW553/V1_MQTT_OK/GD32VW55X_Wifi_BLE_SDK/GD32VW55x_RELEASE_V1.0.2/MSDK/lwip/lwip-2.1.2/src/apps/altcp_tls\altcp_tls_mbedtls_mem.c ****   }
 145              		.loc 1 206 12 is_stmt 0
 146 0014 0145     		li	a0,0
 147              	.LVL13:
 210:C:/Users/stapi/OneDrive/Desktop/GD32VW553/V1_MQTT_OK/GD32VW55X_Wifi_BLE_SDK/GD32VW55x_RELEASE_V1.0.2/MSDK/lwip/lwip-2.1.2/src/apps/altcp_tls\altcp_tls_mbedtls_mem.c **** }
 148              		.loc 1 210 1
 149 0016 8280     		ret
 150              		.cfi_endproc
 151              	.LFE386:
 153              		.section	.rodata.altcp_mbedtls_free_config.str1.4,"aMS",@progbits,1
 154              		.align	2
 155              	.LC3:
 156 0000 6974656D 		.string	"item != NULL"
 156      20213D20 
 156      4E554C4C 
 156      00
 157              		.section	.text.altcp_mbedtls_free_config,"ax",@progbits
 158              		.align	1
 159              		.globl	altcp_mbedtls_free_config
 161              	altcp_mbedtls_free_config:
 162              	.LFB387:
 211:C:/Users/stapi/OneDrive/Desktop/GD32VW553/V1_MQTT_OK/GD32VW55X_Wifi_BLE_SDK/GD32VW55x_RELEASE_V1.0.2/MSDK/lwip/lwip-2.1.2/src/apps/altcp_tls\altcp_tls_mbedtls_mem.c **** 
 212:C:/Users/stapi/OneDrive/Desktop/GD32VW553/V1_MQTT_OK/GD32VW55X_Wifi_BLE_SDK/GD32VW55x_RELEASE_V1.0.2/MSDK/lwip/lwip-2.1.2/src/apps/altcp_tls\altcp_tls_mbedtls_mem.c **** void
 213:C:/Users/stapi/OneDrive/Desktop/GD32VW553/V1_MQTT_OK/GD32VW55X_Wifi_BLE_SDK/GD32VW55x_RELEASE_V1.0.2/MSDK/lwip/lwip-2.1.2/src/apps/altcp_tls\altcp_tls_mbedtls_mem.c **** altcp_mbedtls_free_config(void *item)
 214:C:/Users/stapi/OneDrive/Desktop/GD32VW553/V1_MQTT_OK/GD32VW55X_Wifi_BLE_SDK/GD32VW55x_RELEASE_V1.0.2/MSDK/lwip/lwip-2.1.2/src/apps/altcp_tls\altcp_tls_mbedtls_mem.c **** {
 163              		.loc 1 214 1 is_stmt 1
 164              		.cfi_startproc
 165              	.LVL14:
 166 0000 17030000 		call	t0,__riscv_save_0
 166      E7020300 
 167              		.cfi_offset 1, -4
 168              		.cfi_def_cfa_offset 16
 215:C:/Users/stapi/OneDrive/Desktop/GD32VW553/V1_MQTT_OK/GD32VW55X_Wifi_BLE_SDK/GD32VW55x_RELEASE_V1.0.2/MSDK/lwip/lwip-2.1.2/src/apps/altcp_tls\altcp_tls_mbedtls_mem.c ****   LWIP_ASSERT("item != NULL", item != NULL);
 169              		.loc 1 215 3
 170              		.loc 1 215 3
 171 0008 05E5     		bne	a0,zero,.L20
 172              		.loc 1 215 3 discriminator 1
 173              		.loc 1 215 3 discriminator 1
 174 000a B7060000 		lui	a3,%hi(.LC0)
 175 000e B7050000 		lui	a1,%hi(.LC3)
 176 0012 37050000 		lui	a0,%hi(.LC2)
 177              	.LVL15:
 178 0016 93860600 		addi	a3,a3,%lo(.LC0)
 179 001a 1306700D 		li	a2,215
 180 001e 93850500 		addi	a1,a1,%lo(.LC3)
 181 0022 13050500 		addi	a0,a0,%lo(.LC2)
 182 0026 97000000 		call	printf
 182      E7800000 
 183              	.LVL16:
 184              	.L21:
 185              		.loc 1 215 3 discriminator 1
 186              		.loc 1 215 3 discriminator 1
 187              		.loc 1 215 3 discriminator 1
 188 002e 01A0     		j	.L21
 189              	.LVL17:
 190              	.L20:
 191              		.loc 1 215 3 discriminator 2
 192              		.loc 1 215 3 discriminator 2
 216:C:/Users/stapi/OneDrive/Desktop/GD32VW553/V1_MQTT_OK/GD32VW55X_Wifi_BLE_SDK/GD32VW55x_RELEASE_V1.0.2/MSDK/lwip/lwip-2.1.2/src/apps/altcp_tls\altcp_tls_mbedtls_mem.c ****   mem_free(item);
 193              		.loc 1 216 3 discriminator 2
 194 0030 97000000 		call	mem_free
 194      E7800000 
 195              	.LVL18:
 217:C:/Users/stapi/OneDrive/Desktop/GD32VW553/V1_MQTT_OK/GD32VW55X_Wifi_BLE_SDK/GD32VW55x_RELEASE_V1.0.2/MSDK/lwip/lwip-2.1.2/src/apps/altcp_tls\altcp_tls_mbedtls_mem.c **** }
 196              		.loc 1 217 1 is_stmt 0 discriminator 2
 197 0038 17030000 		tail	__riscv_restore_0
 197      67000300 
 198              		.cfi_restore 1
 199              		.cfi_def_cfa_offset 0
 200              		.cfi_endproc
 201              	.LFE387:
 203              		.text
 204              	.Letext0:
 205              		.file 2 "c:\\users\\stapi\\onedrive\\desktop\\gd32vw553\\embeddedbuilder_v1.4.7.26843\\tools\\nucl
 206              		.file 3 "c:\\users\\stapi\\onedrive\\desktop\\gd32vw553\\embeddedbuilder_v1.4.7.26843\\tools\\nucl
 207              		.file 4 "c:\\users\\stapi\\onedrive\\desktop\\gd32vw553\\embeddedbuilder_v1.4.7.26843\\tools\\nucl
 208              		.file 5 "..\\..\\..\\..\\lwip\\lwip-2.1.2\\src\\include/lwip/arch.h"
 209              		.file 6 "..\\..\\..\\..\\lwip\\lwip-2.1.2\\src\\include/lwip/pbuf.h"
 210              		.file 7 "..\\..\\..\\..\\..\\ROM-EXPORT\\mbedtls-2.17.0-rom\\include/mbedtls/md.h"
 211              		.file 8 "..\\..\\..\\..\\..\\ROM-EXPORT\\mbedtls-2.17.0-rom\\include/mbedtls/bignum.h"
 212              		.file 9 "..\\..\\..\\..\\..\\ROM-EXPORT\\mbedtls-2.17.0-rom\\include/mbedtls/ecp.h"
 213              		.file 10 "..\\..\\..\\..\\..\\ROM-EXPORT\\mbedtls-2.17.0-rom\\include/mbedtls/pk.h"
 214              		.file 11 "..\\..\\..\\..\\..\\ROM-EXPORT\\mbedtls-2.17.0-rom\\include/mbedtls/asn1.h"
 215              		.file 12 "..\\..\\..\\..\\..\\ROM-EXPORT\\mbedtls-2.17.0-rom\\include/mbedtls/x509.h"
 216              		.file 13 "..\\..\\..\\..\\..\\ROM-EXPORT\\mbedtls-2.17.0-rom\\include/mbedtls/x509_crl.h"
 217              		.file 14 "..\\..\\..\\..\\..\\ROM-EXPORT\\mbedtls-2.17.0-rom\\include/mbedtls/x509_crt.h"
 218              		.file 15 "..\\..\\..\\..\\..\\ROM-EXPORT\\mbedtls-2.17.0-rom\\include/mbedtls/platform_time.h"
 219              		.file 16 "..\\..\\..\\..\\..\\ROM-EXPORT\\mbedtls-2.17.0-rom\\include/mbedtls/ssl.h"
 220              		.file 17 "C:/Users/stapi/OneDrive/Desktop/GD32VW553/V1_MQTT_OK/GD32VW55X_Wifi_BLE_SDK/GD32VW55x_RE
 221              		.file 18 "..\\..\\..\\..\\lwip\\lwip-2.1.2\\src\\include/lwip/mem.h"
 222              		.file 19 "c:\\users\\stapi\\onedrive\\desktop\\gd32vw553\\embeddedbuilder_v1.4.7.26843\\tools\\nuc