   1              		.file	"api_lib.c"
   2              		.option nopic
   3              		.attribute arch, "rv32i2p0_m2p0_a2p0_f2p0_c2p0_b_p0p94"
   4              		.attribute unaligned_access, 0
   5              		.attribute stack_align, 16
   6              		.text
   7              	.Ltext0:
   8              		.cfi_sections	.debug_frame
   9              		.section	.text.netconn_apimsg,"ax",@progbits
  10              		.align	1
  12              	netconn_apimsg:
  13              	.LFB4:
  14              		.file 1 "C:/Users/stapi/OneDrive/Desktop/GD32VW553/GD32VW55X_Wifi_BLE_SDK/GD32VW55x_RELEASE_V1.0.2
   1:C:/Users/stapi/OneDrive/Desktop/GD32VW553/GD32VW55X_Wifi_BLE_SDK/GD32VW55x_RELEASE_V1.0.2/MSDK/lwip/lwip-2.1.2/src/api\api_lib.c **** /**
   2:C:/Users/stapi/OneDrive/Desktop/GD32VW553/GD32VW55X_Wifi_BLE_SDK/GD32VW55x_RELEASE_V1.0.2/MSDK/lwip/lwip-2.1.2/src/api\api_lib.c ****  * @file
   3:C:/Users/stapi/OneDrive/Desktop/GD32VW553/GD32VW55X_Wifi_BLE_SDK/GD32VW55x_RELEASE_V1.0.2/MSDK/lwip/lwip-2.1.2/src/api\api_lib.c ****  * Sequential API External module
   4:C:/Users/stapi/OneDrive/Desktop/GD32VW553/GD32VW55X_Wifi_BLE_SDK/GD32VW55x_RELEASE_V1.0.2/MSDK/lwip/lwip-2.1.2/src/api\api_lib.c ****  *
   5:C:/Users/stapi/OneDrive/Desktop/GD32VW553/GD32VW55X_Wifi_BLE_SDK/GD32VW55x_RELEASE_V1.0.2/MSDK/lwip/lwip-2.1.2/src/api\api_lib.c ****  * @defgroup netconn Netconn API
   6:C:/Users/stapi/OneDrive/Desktop/GD32VW553/GD32VW55X_Wifi_BLE_SDK/GD32VW55x_RELEASE_V1.0.2/MSDK/lwip/lwip-2.1.2/src/api\api_lib.c ****  * @ingroup sequential_api
   7:C:/Users/stapi/OneDrive/Desktop/GD32VW553/GD32VW55X_Wifi_BLE_SDK/GD32VW55x_RELEASE_V1.0.2/MSDK/lwip/lwip-2.1.2/src/api\api_lib.c ****  * Thread-safe, to be called from non-TCPIP threads only.
   8:C:/Users/stapi/OneDrive/Desktop/GD32VW553/GD32VW55X_Wifi_BLE_SDK/GD32VW55x_RELEASE_V1.0.2/MSDK/lwip/lwip-2.1.2/src/api\api_lib.c ****  * TX/RX handling based on @ref netbuf (containing @ref pbuf)
   9:C:/Users/stapi/OneDrive/Desktop/GD32VW553/GD32VW55X_Wifi_BLE_SDK/GD32VW55x_RELEASE_V1.0.2/MSDK/lwip/lwip-2.1.2/src/api\api_lib.c ****  * to avoid copying data around.
  10:C:/Users/stapi/OneDrive/Desktop/GD32VW553/GD32VW55X_Wifi_BLE_SDK/GD32VW55x_RELEASE_V1.0.2/MSDK/lwip/lwip-2.1.2/src/api\api_lib.c ****  *
  11:C:/Users/stapi/OneDrive/Desktop/GD32VW553/GD32VW55X_Wifi_BLE_SDK/GD32VW55x_RELEASE_V1.0.2/MSDK/lwip/lwip-2.1.2/src/api\api_lib.c ****  * @defgroup netconn_common Common functions
  12:C:/Users/stapi/OneDrive/Desktop/GD32VW553/GD32VW55X_Wifi_BLE_SDK/GD32VW55x_RELEASE_V1.0.2/MSDK/lwip/lwip-2.1.2/src/api\api_lib.c ****  * @ingroup netconn
  13:C:/Users/stapi/OneDrive/Desktop/GD32VW553/GD32VW55X_Wifi_BLE_SDK/GD32VW55x_RELEASE_V1.0.2/MSDK/lwip/lwip-2.1.2/src/api\api_lib.c ****  * For use with TCP and UDP
  14:C:/Users/stapi/OneDrive/Desktop/GD32VW553/GD32VW55X_Wifi_BLE_SDK/GD32VW55x_RELEASE_V1.0.2/MSDK/lwip/lwip-2.1.2/src/api\api_lib.c ****  *
  15:C:/Users/stapi/OneDrive/Desktop/GD32VW553/GD32VW55X_Wifi_BLE_SDK/GD32VW55x_RELEASE_V1.0.2/MSDK/lwip/lwip-2.1.2/src/api\api_lib.c ****  * @defgroup netconn_tcp TCP only
  16:C:/Users/stapi/OneDrive/Desktop/GD32VW553/GD32VW55X_Wifi_BLE_SDK/GD32VW55x_RELEASE_V1.0.2/MSDK/lwip/lwip-2.1.2/src/api\api_lib.c ****  * @ingroup netconn
  17:C:/Users/stapi/OneDrive/Desktop/GD32VW553/GD32VW55X_Wifi_BLE_SDK/GD32VW55x_RELEASE_V1.0.2/MSDK/lwip/lwip-2.1.2/src/api\api_lib.c ****  * TCP only functions
  18:C:/Users/stapi/OneDrive/Desktop/GD32VW553/GD32VW55X_Wifi_BLE_SDK/GD32VW55x_RELEASE_V1.0.2/MSDK/lwip/lwip-2.1.2/src/api\api_lib.c ****  *
  19:C:/Users/stapi/OneDrive/Desktop/GD32VW553/GD32VW55X_Wifi_BLE_SDK/GD32VW55x_RELEASE_V1.0.2/MSDK/lwip/lwip-2.1.2/src/api\api_lib.c ****  * @defgroup netconn_udp UDP only
  20:C:/Users/stapi/OneDrive/Desktop/GD32VW553/GD32VW55X_Wifi_BLE_SDK/GD32VW55x_RELEASE_V1.0.2/MSDK/lwip/lwip-2.1.2/src/api\api_lib.c ****  * @ingroup netconn
  21:C:/Users/stapi/OneDrive/Desktop/GD32VW553/GD32VW55X_Wifi_BLE_SDK/GD32VW55x_RELEASE_V1.0.2/MSDK/lwip/lwip-2.1.2/src/api\api_lib.c ****  * UDP only functions
  22:C:/Users/stapi/OneDrive/Desktop/GD32VW553/GD32VW55X_Wifi_BLE_SDK/GD32VW55x_RELEASE_V1.0.2/MSDK/lwip/lwip-2.1.2/src/api\api_lib.c ****  */
  23:C:/Users/stapi/OneDrive/Desktop/GD32VW553/GD32VW55X_Wifi_BLE_SDK/GD32VW55x_RELEASE_V1.0.2/MSDK/lwip/lwip-2.1.2/src/api\api_lib.c **** 
  24:C:/Users/stapi/OneDrive/Desktop/GD32VW553/GD32VW55X_Wifi_BLE_SDK/GD32VW55x_RELEASE_V1.0.2/MSDK/lwip/lwip-2.1.2/src/api\api_lib.c **** /*
  25:C:/Users/stapi/OneDrive/Desktop/GD32VW553/GD32VW55X_Wifi_BLE_SDK/GD32VW55x_RELEASE_V1.0.2/MSDK/lwip/lwip-2.1.2/src/api\api_lib.c ****  * Copyright (c) 2001-2004 Swedish Institute of Computer Science.
  26:C:/Users/stapi/OneDrive/Desktop/GD32VW553/GD32VW55X_Wifi_BLE_SDK/GD32VW55x_RELEASE_V1.0.2/MSDK/lwip/lwip-2.1.2/src/api\api_lib.c ****  * All rights reserved.
  27:C:/Users/stapi/OneDrive/Desktop/GD32VW553/GD32VW55X_Wifi_BLE_SDK/GD32VW55x_RELEASE_V1.0.2/MSDK/lwip/lwip-2.1.2/src/api\api_lib.c ****  *
  28:C:/Users/stapi/OneDrive/Desktop/GD32VW553/GD32VW55X_Wifi_BLE_SDK/GD32VW55x_RELEASE_V1.0.2/MSDK/lwip/lwip-2.1.2/src/api\api_lib.c ****  * Redistribution and use in source and binary forms, with or without modification,
  29:C:/Users/stapi/OneDrive/Desktop/GD32VW553/GD32VW55X_Wifi_BLE_SDK/GD32VW55x_RELEASE_V1.0.2/MSDK/lwip/lwip-2.1.2/src/api\api_lib.c ****  * are permitted provided that the following conditions are met:
  30:C:/Users/stapi/OneDrive/Desktop/GD32VW553/GD32VW55X_Wifi_BLE_SDK/GD32VW55x_RELEASE_V1.0.2/MSDK/lwip/lwip-2.1.2/src/api\api_lib.c ****  *
  31:C:/Users/stapi/OneDrive/Desktop/GD32VW553/GD32VW55X_Wifi_BLE_SDK/GD32VW55x_RELEASE_V1.0.2/MSDK/lwip/lwip-2.1.2/src/api\api_lib.c ****  * 1. Redistributions of source code must retain the above copyright notice,
  32:C:/Users/stapi/OneDrive/Desktop/GD32VW553/GD32VW55X_Wifi_BLE_SDK/GD32VW55x_RELEASE_V1.0.2/MSDK/lwip/lwip-2.1.2/src/api\api_lib.c ****  *    this list of conditions and the following disclaimer.
  33:C:/Users/stapi/OneDrive/Desktop/GD32VW553/GD32VW55X_Wifi_BLE_SDK/GD32VW55x_RELEASE_V1.0.2/MSDK/lwip/lwip-2.1.2/src/api\api_lib.c ****  * 2. Redistributions in binary form must reproduce the above copyright notice,
  34:C:/Users/stapi/OneDrive/Desktop/GD32VW553/GD32VW55X_Wifi_BLE_SDK/GD32VW55x_RELEASE_V1.0.2/MSDK/lwip/lwip-2.1.2/src/api\api_lib.c ****  *    this list of conditions and the following disclaimer in the documentation
  35:C:/Users/stapi/OneDrive/Desktop/GD32VW553/GD32VW55X_Wifi_BLE_SDK/GD32VW55x_RELEASE_V1.0.2/MSDK/lwip/lwip-2.1.2/src/api\api_lib.c ****  *    and/or other materials provided with the distribution.
  36:C:/Users/stapi/OneDrive/Desktop/GD32VW553/GD32VW55X_Wifi_BLE_SDK/GD32VW55x_RELEASE_V1.0.2/MSDK/lwip/lwip-2.1.2/src/api\api_lib.c ****  * 3. The name of the author may not be used to endorse or promote products
  37:C:/Users/stapi/OneDrive/Desktop/GD32VW553/GD32VW55X_Wifi_BLE_SDK/GD32VW55x_RELEASE_V1.0.2/MSDK/lwip/lwip-2.1.2/src/api\api_lib.c ****  *    derived from this software without specific prior written permission.
  38:C:/Users/stapi/OneDrive/Desktop/GD32VW553/GD32VW55X_Wifi_BLE_SDK/GD32VW55x_RELEASE_V1.0.2/MSDK/lwip/lwip-2.1.2/src/api\api_lib.c ****  *
  39:C:/Users/stapi/OneDrive/Desktop/GD32VW553/GD32VW55X_Wifi_BLE_SDK/GD32VW55x_RELEASE_V1.0.2/MSDK/lwip/lwip-2.1.2/src/api\api_lib.c ****  * THIS SOFTWARE IS PROVIDED BY THE AUTHOR ``AS IS'' AND ANY EXPRESS OR IMPLIED
  40:C:/Users/stapi/OneDrive/Desktop/GD32VW553/GD32VW55X_Wifi_BLE_SDK/GD32VW55x_RELEASE_V1.0.2/MSDK/lwip/lwip-2.1.2/src/api\api_lib.c ****  * WARRANTIES, INCLUDING, BUT NOT LIMITED TO, THE IMPLIED WARRANTIES OF
  41:C:/Users/stapi/OneDrive/Desktop/GD32VW553/GD32VW55X_Wifi_BLE_SDK/GD32VW55x_RELEASE_V1.0.2/MSDK/lwip/lwip-2.1.2/src/api\api_lib.c ****  * MERCHANTABILITY AND FITNESS FOR A PARTICULAR PURPOSE ARE DISCLAIMED. IN NO EVENT
  42:C:/Users/stapi/OneDrive/Desktop/GD32VW553/GD32VW55X_Wifi_BLE_SDK/GD32VW55x_RELEASE_V1.0.2/MSDK/lwip/lwip-2.1.2/src/api\api_lib.c ****  * SHALL THE AUTHOR BE LIABLE FOR ANY DIRECT, INDIRECT, INCIDENTAL, SPECIAL,
  43:C:/Users/stapi/OneDrive/Desktop/GD32VW553/GD32VW55X_Wifi_BLE_SDK/GD32VW55x_RELEASE_V1.0.2/MSDK/lwip/lwip-2.1.2/src/api\api_lib.c ****  * EXEMPLARY, OR CONSEQUENTIAL DAMAGES (INCLUDING, BUT NOT LIMITED TO, PROCUREMENT
  44:C:/Users/stapi/OneDrive/Desktop/GD32VW553/GD32VW55X_Wifi_BLE_SDK/GD32VW55x_RELEASE_V1.0.2/MSDK/lwip/lwip-2.1.2/src/api\api_lib.c ****  * OF SUBSTITUTE GOODS OR SERVICES; LOSS OF USE, DATA, OR PROFITS; OR BUSINESS
  45:C:/Users/stapi/OneDrive/Desktop/GD32VW553/GD32VW55X_Wifi_BLE_SDK/GD32VW55x_RELEASE_V1.0.2/MSDK/lwip/lwip-2.1.2/src/api\api_lib.c ****  * INTERRUPTION) HOWEVER CAUSED AND ON ANY THEORY OF LIABILITY, WHETHER IN
  46:C:/Users/stapi/OneDrive/Desktop/GD32VW553/GD32VW55X_Wifi_BLE_SDK/GD32VW55x_RELEASE_V1.0.2/MSDK/lwip/lwip-2.1.2/src/api\api_lib.c ****  * CONTRACT, STRICT LIABILITY, OR TORT (INCLUDING NEGLIGENCE OR OTHERWISE) ARISING
  47:C:/Users/stapi/OneDrive/Desktop/GD32VW553/GD32VW55X_Wifi_BLE_SDK/GD32VW55x_RELEASE_V1.0.2/MSDK/lwip/lwip-2.1.2/src/api\api_lib.c ****  * IN ANY WAY OUT OF THE USE OF THIS SOFTWARE, EVEN IF ADVISED OF THE POSSIBILITY
  48:C:/Users/stapi/OneDrive/Desktop/GD32VW553/GD32VW55X_Wifi_BLE_SDK/GD32VW55x_RELEASE_V1.0.2/MSDK/lwip/lwip-2.1.2/src/api\api_lib.c ****  * OF SUCH DAMAGE.
  49:C:/Users/stapi/OneDrive/Desktop/GD32VW553/GD32VW55X_Wifi_BLE_SDK/GD32VW55x_RELEASE_V1.0.2/MSDK/lwip/lwip-2.1.2/src/api\api_lib.c ****  *
  50:C:/Users/stapi/OneDrive/Desktop/GD32VW553/GD32VW55X_Wifi_BLE_SDK/GD32VW55x_RELEASE_V1.0.2/MSDK/lwip/lwip-2.1.2/src/api\api_lib.c ****  * This file is part of the lwIP TCP/IP stack.
  51:C:/Users/stapi/OneDrive/Desktop/GD32VW553/GD32VW55X_Wifi_BLE_SDK/GD32VW55x_RELEASE_V1.0.2/MSDK/lwip/lwip-2.1.2/src/api\api_lib.c ****  *
  52:C:/Users/stapi/OneDrive/Desktop/GD32VW553/GD32VW55X_Wifi_BLE_SDK/GD32VW55x_RELEASE_V1.0.2/MSDK/lwip/lwip-2.1.2/src/api\api_lib.c ****  * Author: Adam Dunkels <adam@sics.se>
  53:C:/Users/stapi/OneDrive/Desktop/GD32VW553/GD32VW55X_Wifi_BLE_SDK/GD32VW55x_RELEASE_V1.0.2/MSDK/lwip/lwip-2.1.2/src/api\api_lib.c ****  */
  54:C:/Users/stapi/OneDrive/Desktop/GD32VW553/GD32VW55X_Wifi_BLE_SDK/GD32VW55x_RELEASE_V1.0.2/MSDK/lwip/lwip-2.1.2/src/api\api_lib.c **** 
  55:C:/Users/stapi/OneDrive/Desktop/GD32VW553/GD32VW55X_Wifi_BLE_SDK/GD32VW55x_RELEASE_V1.0.2/MSDK/lwip/lwip-2.1.2/src/api\api_lib.c **** /* This is the part of the API that is linked with
  56:C:/Users/stapi/OneDrive/Desktop/GD32VW553/GD32VW55X_Wifi_BLE_SDK/GD32VW55x_RELEASE_V1.0.2/MSDK/lwip/lwip-2.1.2/src/api\api_lib.c ****    the application */
  57:C:/Users/stapi/OneDrive/Desktop/GD32VW553/GD32VW55X_Wifi_BLE_SDK/GD32VW55x_RELEASE_V1.0.2/MSDK/lwip/lwip-2.1.2/src/api\api_lib.c **** 
  58:C:/Users/stapi/OneDrive/Desktop/GD32VW553/GD32VW55X_Wifi_BLE_SDK/GD32VW55x_RELEASE_V1.0.2/MSDK/lwip/lwip-2.1.2/src/api\api_lib.c **** #include "lwip/opt.h"
  59:C:/Users/stapi/OneDrive/Desktop/GD32VW553/GD32VW55X_Wifi_BLE_SDK/GD32VW55x_RELEASE_V1.0.2/MSDK/lwip/lwip-2.1.2/src/api\api_lib.c **** 
  60:C:/Users/stapi/OneDrive/Desktop/GD32VW553/GD32VW55X_Wifi_BLE_SDK/GD32VW55x_RELEASE_V1.0.2/MSDK/lwip/lwip-2.1.2/src/api\api_lib.c **** #if LWIP_NETCONN /* don't build if not configured for use in lwipopts.h */
  61:C:/Users/stapi/OneDrive/Desktop/GD32VW553/GD32VW55X_Wifi_BLE_SDK/GD32VW55x_RELEASE_V1.0.2/MSDK/lwip/lwip-2.1.2/src/api\api_lib.c **** 
  62:C:/Users/stapi/OneDrive/Desktop/GD32VW553/GD32VW55X_Wifi_BLE_SDK/GD32VW55x_RELEASE_V1.0.2/MSDK/lwip/lwip-2.1.2/src/api\api_lib.c **** #include "lwip/api.h"
  63:C:/Users/stapi/OneDrive/Desktop/GD32VW553/GD32VW55X_Wifi_BLE_SDK/GD32VW55x_RELEASE_V1.0.2/MSDK/lwip/lwip-2.1.2/src/api\api_lib.c **** #include "lwip/memp.h"
  64:C:/Users/stapi/OneDrive/Desktop/GD32VW553/GD32VW55X_Wifi_BLE_SDK/GD32VW55x_RELEASE_V1.0.2/MSDK/lwip/lwip-2.1.2/src/api\api_lib.c **** 
  65:C:/Users/stapi/OneDrive/Desktop/GD32VW553/GD32VW55X_Wifi_BLE_SDK/GD32VW55x_RELEASE_V1.0.2/MSDK/lwip/lwip-2.1.2/src/api\api_lib.c **** #include "lwip/ip.h"
  66:C:/Users/stapi/OneDrive/Desktop/GD32VW553/GD32VW55X_Wifi_BLE_SDK/GD32VW55x_RELEASE_V1.0.2/MSDK/lwip/lwip-2.1.2/src/api\api_lib.c **** #include "lwip/raw.h"
  67:C:/Users/stapi/OneDrive/Desktop/GD32VW553/GD32VW55X_Wifi_BLE_SDK/GD32VW55x_RELEASE_V1.0.2/MSDK/lwip/lwip-2.1.2/src/api\api_lib.c **** #include "lwip/udp.h"
  68:C:/Users/stapi/OneDrive/Desktop/GD32VW553/GD32VW55X_Wifi_BLE_SDK/GD32VW55x_RELEASE_V1.0.2/MSDK/lwip/lwip-2.1.2/src/api\api_lib.c **** #include "lwip/priv/api_msg.h"
  69:C:/Users/stapi/OneDrive/Desktop/GD32VW553/GD32VW55X_Wifi_BLE_SDK/GD32VW55x_RELEASE_V1.0.2/MSDK/lwip/lwip-2.1.2/src/api\api_lib.c **** #include "lwip/priv/tcp_priv.h"
  70:C:/Users/stapi/OneDrive/Desktop/GD32VW553/GD32VW55X_Wifi_BLE_SDK/GD32VW55x_RELEASE_V1.0.2/MSDK/lwip/lwip-2.1.2/src/api\api_lib.c **** #include "lwip/priv/tcpip_priv.h"
  71:C:/Users/stapi/OneDrive/Desktop/GD32VW553/GD32VW55X_Wifi_BLE_SDK/GD32VW55x_RELEASE_V1.0.2/MSDK/lwip/lwip-2.1.2/src/api\api_lib.c **** 
  72:C:/Users/stapi/OneDrive/Desktop/GD32VW553/GD32VW55X_Wifi_BLE_SDK/GD32VW55x_RELEASE_V1.0.2/MSDK/lwip/lwip-2.1.2/src/api\api_lib.c **** #ifdef LWIP_HOOK_FILENAME
  73:C:/Users/stapi/OneDrive/Desktop/GD32VW553/GD32VW55X_Wifi_BLE_SDK/GD32VW55x_RELEASE_V1.0.2/MSDK/lwip/lwip-2.1.2/src/api\api_lib.c **** #include LWIP_HOOK_FILENAME
  74:C:/Users/stapi/OneDrive/Desktop/GD32VW553/GD32VW55X_Wifi_BLE_SDK/GD32VW55x_RELEASE_V1.0.2/MSDK/lwip/lwip-2.1.2/src/api\api_lib.c **** #endif
  75:C:/Users/stapi/OneDrive/Desktop/GD32VW553/GD32VW55X_Wifi_BLE_SDK/GD32VW55x_RELEASE_V1.0.2/MSDK/lwip/lwip-2.1.2/src/api\api_lib.c **** 
  76:C:/Users/stapi/OneDrive/Desktop/GD32VW553/GD32VW55X_Wifi_BLE_SDK/GD32VW55x_RELEASE_V1.0.2/MSDK/lwip/lwip-2.1.2/src/api\api_lib.c **** #include <string.h>
  77:C:/Users/stapi/OneDrive/Desktop/GD32VW553/GD32VW55X_Wifi_BLE_SDK/GD32VW55x_RELEASE_V1.0.2/MSDK/lwip/lwip-2.1.2/src/api\api_lib.c **** 
  78:C:/Users/stapi/OneDrive/Desktop/GD32VW553/GD32VW55X_Wifi_BLE_SDK/GD32VW55x_RELEASE_V1.0.2/MSDK/lwip/lwip-2.1.2/src/api\api_lib.c **** #define API_MSG_VAR_REF(name)               API_VAR_REF(name)
  79:C:/Users/stapi/OneDrive/Desktop/GD32VW553/GD32VW55X_Wifi_BLE_SDK/GD32VW55x_RELEASE_V1.0.2/MSDK/lwip/lwip-2.1.2/src/api\api_lib.c **** #define API_MSG_VAR_DECLARE(name)           API_VAR_DECLARE(struct api_msg, name)
  80:C:/Users/stapi/OneDrive/Desktop/GD32VW553/GD32VW55X_Wifi_BLE_SDK/GD32VW55x_RELEASE_V1.0.2/MSDK/lwip/lwip-2.1.2/src/api\api_lib.c **** #define API_MSG_VAR_ALLOC(name)             API_VAR_ALLOC(struct api_msg, MEMP_API_MSG, name, ERR_M
  81:C:/Users/stapi/OneDrive/Desktop/GD32VW553/GD32VW55X_Wifi_BLE_SDK/GD32VW55x_RELEASE_V1.0.2/MSDK/lwip/lwip-2.1.2/src/api\api_lib.c **** #define API_MSG_VAR_ALLOC_RETURN_NULL(name) API_VAR_ALLOC(struct api_msg, MEMP_API_MSG, name, NULL)
  82:C:/Users/stapi/OneDrive/Desktop/GD32VW553/GD32VW55X_Wifi_BLE_SDK/GD32VW55x_RELEASE_V1.0.2/MSDK/lwip/lwip-2.1.2/src/api\api_lib.c **** #define API_MSG_VAR_FREE(name)              API_VAR_FREE(MEMP_API_MSG, name)
  83:C:/Users/stapi/OneDrive/Desktop/GD32VW553/GD32VW55X_Wifi_BLE_SDK/GD32VW55x_RELEASE_V1.0.2/MSDK/lwip/lwip-2.1.2/src/api\api_lib.c **** 
  84:C:/Users/stapi/OneDrive/Desktop/GD32VW553/GD32VW55X_Wifi_BLE_SDK/GD32VW55x_RELEASE_V1.0.2/MSDK/lwip/lwip-2.1.2/src/api\api_lib.c **** #if TCP_LISTEN_BACKLOG
  85:C:/Users/stapi/OneDrive/Desktop/GD32VW553/GD32VW55X_Wifi_BLE_SDK/GD32VW55x_RELEASE_V1.0.2/MSDK/lwip/lwip-2.1.2/src/api\api_lib.c **** /* need to allocate API message for accept so empty message pool does not result in event loss
  86:C:/Users/stapi/OneDrive/Desktop/GD32VW553/GD32VW55X_Wifi_BLE_SDK/GD32VW55x_RELEASE_V1.0.2/MSDK/lwip/lwip-2.1.2/src/api\api_lib.c ****  * see bug #47512: MPU_COMPATIBLE may fail on empty pool */
  87:C:/Users/stapi/OneDrive/Desktop/GD32VW553/GD32VW55X_Wifi_BLE_SDK/GD32VW55x_RELEASE_V1.0.2/MSDK/lwip/lwip-2.1.2/src/api\api_lib.c **** #define API_MSG_VAR_ALLOC_ACCEPT(msg) API_MSG_VAR_ALLOC(msg)
  88:C:/Users/stapi/OneDrive/Desktop/GD32VW553/GD32VW55X_Wifi_BLE_SDK/GD32VW55x_RELEASE_V1.0.2/MSDK/lwip/lwip-2.1.2/src/api\api_lib.c **** #define API_MSG_VAR_FREE_ACCEPT(msg) API_MSG_VAR_FREE(msg)
  89:C:/Users/stapi/OneDrive/Desktop/GD32VW553/GD32VW55X_Wifi_BLE_SDK/GD32VW55x_RELEASE_V1.0.2/MSDK/lwip/lwip-2.1.2/src/api\api_lib.c **** #else /* TCP_LISTEN_BACKLOG */
  90:C:/Users/stapi/OneDrive/Desktop/GD32VW553/GD32VW55X_Wifi_BLE_SDK/GD32VW55x_RELEASE_V1.0.2/MSDK/lwip/lwip-2.1.2/src/api\api_lib.c **** #define API_MSG_VAR_ALLOC_ACCEPT(msg)
  91:C:/Users/stapi/OneDrive/Desktop/GD32VW553/GD32VW55X_Wifi_BLE_SDK/GD32VW55x_RELEASE_V1.0.2/MSDK/lwip/lwip-2.1.2/src/api\api_lib.c **** #define API_MSG_VAR_FREE_ACCEPT(msg)
  92:C:/Users/stapi/OneDrive/Desktop/GD32VW553/GD32VW55X_Wifi_BLE_SDK/GD32VW55x_RELEASE_V1.0.2/MSDK/lwip/lwip-2.1.2/src/api\api_lib.c **** #endif /* TCP_LISTEN_BACKLOG */
  93:C:/Users/stapi/OneDrive/Desktop/GD32VW553/GD32VW55X_Wifi_BLE_SDK/GD32VW55x_RELEASE_V1.0.2/MSDK/lwip/lwip-2.1.2/src/api\api_lib.c **** 
  94:C:/Users/stapi/OneDrive/Desktop/GD32VW553/GD32VW55X_Wifi_BLE_SDK/GD32VW55x_RELEASE_V1.0.2/MSDK/lwip/lwip-2.1.2/src/api\api_lib.c **** #if LWIP_NETCONN_FULLDUPLEX
  95:C:/Users/stapi/OneDrive/Desktop/GD32VW553/GD32VW55X_Wifi_BLE_SDK/GD32VW55x_RELEASE_V1.0.2/MSDK/lwip/lwip-2.1.2/src/api\api_lib.c **** #define NETCONN_RECVMBOX_WAITABLE(conn) (sys_mbox_valid(&(conn)->recvmbox) && (((conn)->flags & NET
  96:C:/Users/stapi/OneDrive/Desktop/GD32VW553/GD32VW55X_Wifi_BLE_SDK/GD32VW55x_RELEASE_V1.0.2/MSDK/lwip/lwip-2.1.2/src/api\api_lib.c **** #define NETCONN_ACCEPTMBOX_WAITABLE(conn) (sys_mbox_valid(&(conn)->acceptmbox) && (((conn)->flags &
  97:C:/Users/stapi/OneDrive/Desktop/GD32VW553/GD32VW55X_Wifi_BLE_SDK/GD32VW55x_RELEASE_V1.0.2/MSDK/lwip/lwip-2.1.2/src/api\api_lib.c **** #define NETCONN_MBOX_WAITING_INC(conn) SYS_ARCH_INC(conn->mbox_threads_waiting, 1)
  98:C:/Users/stapi/OneDrive/Desktop/GD32VW553/GD32VW55X_Wifi_BLE_SDK/GD32VW55x_RELEASE_V1.0.2/MSDK/lwip/lwip-2.1.2/src/api\api_lib.c **** #define NETCONN_MBOX_WAITING_DEC(conn) SYS_ARCH_DEC(conn->mbox_threads_waiting, 1)
  99:C:/Users/stapi/OneDrive/Desktop/GD32VW553/GD32VW55X_Wifi_BLE_SDK/GD32VW55x_RELEASE_V1.0.2/MSDK/lwip/lwip-2.1.2/src/api\api_lib.c **** #else /* LWIP_NETCONN_FULLDUPLEX */
 100:C:/Users/stapi/OneDrive/Desktop/GD32VW553/GD32VW55X_Wifi_BLE_SDK/GD32VW55x_RELEASE_V1.0.2/MSDK/lwip/lwip-2.1.2/src/api\api_lib.c **** #define NETCONN_RECVMBOX_WAITABLE(conn)   sys_mbox_valid(&(conn)->recvmbox)
 101:C:/Users/stapi/OneDrive/Desktop/GD32VW553/GD32VW55X_Wifi_BLE_SDK/GD32VW55x_RELEASE_V1.0.2/MSDK/lwip/lwip-2.1.2/src/api\api_lib.c **** #define NETCONN_ACCEPTMBOX_WAITABLE(conn) (sys_mbox_valid(&(conn)->acceptmbox) && (((conn)->flags &
 102:C:/Users/stapi/OneDrive/Desktop/GD32VW553/GD32VW55X_Wifi_BLE_SDK/GD32VW55x_RELEASE_V1.0.2/MSDK/lwip/lwip-2.1.2/src/api\api_lib.c **** #define NETCONN_MBOX_WAITING_INC(conn)
 103:C:/Users/stapi/OneDrive/Desktop/GD32VW553/GD32VW55X_Wifi_BLE_SDK/GD32VW55x_RELEASE_V1.0.2/MSDK/lwip/lwip-2.1.2/src/api\api_lib.c **** #define NETCONN_MBOX_WAITING_DEC(conn)
 104:C:/Users/stapi/OneDrive/Desktop/GD32VW553/GD32VW55X_Wifi_BLE_SDK/GD32VW55x_RELEASE_V1.0.2/MSDK/lwip/lwip-2.1.2/src/api\api_lib.c **** #endif /* LWIP_NETCONN_FULLDUPLEX */
 105:C:/Users/stapi/OneDrive/Desktop/GD32VW553/GD32VW55X_Wifi_BLE_SDK/GD32VW55x_RELEASE_V1.0.2/MSDK/lwip/lwip-2.1.2/src/api\api_lib.c **** 
 106:C:/Users/stapi/OneDrive/Desktop/GD32VW553/GD32VW55X_Wifi_BLE_SDK/GD32VW55x_RELEASE_V1.0.2/MSDK/lwip/lwip-2.1.2/src/api\api_lib.c **** static err_t netconn_close_shutdown(struct netconn *conn, u8_t how);
 107:C:/Users/stapi/OneDrive/Desktop/GD32VW553/GD32VW55X_Wifi_BLE_SDK/GD32VW55x_RELEASE_V1.0.2/MSDK/lwip/lwip-2.1.2/src/api\api_lib.c **** 
 108:C:/Users/stapi/OneDrive/Desktop/GD32VW553/GD32VW55X_Wifi_BLE_SDK/GD32VW55x_RELEASE_V1.0.2/MSDK/lwip/lwip-2.1.2/src/api\api_lib.c **** /**
 109:C:/Users/stapi/OneDrive/Desktop/GD32VW553/GD32VW55X_Wifi_BLE_SDK/GD32VW55x_RELEASE_V1.0.2/MSDK/lwip/lwip-2.1.2/src/api\api_lib.c ****  * Call the lower part of a netconn_* function
 110:C:/Users/stapi/OneDrive/Desktop/GD32VW553/GD32VW55X_Wifi_BLE_SDK/GD32VW55x_RELEASE_V1.0.2/MSDK/lwip/lwip-2.1.2/src/api\api_lib.c ****  * This function is then running in the thread context
 111:C:/Users/stapi/OneDrive/Desktop/GD32VW553/GD32VW55X_Wifi_BLE_SDK/GD32VW55x_RELEASE_V1.0.2/MSDK/lwip/lwip-2.1.2/src/api\api_lib.c ****  * of tcpip_thread and has exclusive access to lwIP core code.
 112:C:/Users/stapi/OneDrive/Desktop/GD32VW553/GD32VW55X_Wifi_BLE_SDK/GD32VW55x_RELEASE_V1.0.2/MSDK/lwip/lwip-2.1.2/src/api\api_lib.c ****  *
 113:C:/Users/stapi/OneDrive/Desktop/GD32VW553/GD32VW55X_Wifi_BLE_SDK/GD32VW55x_RELEASE_V1.0.2/MSDK/lwip/lwip-2.1.2/src/api\api_lib.c ****  * @param fn function to call
 114:C:/Users/stapi/OneDrive/Desktop/GD32VW553/GD32VW55X_Wifi_BLE_SDK/GD32VW55x_RELEASE_V1.0.2/MSDK/lwip/lwip-2.1.2/src/api\api_lib.c ****  * @param apimsg a struct containing the function to call and its parameters
 115:C:/Users/stapi/OneDrive/Desktop/GD32VW553/GD32VW55X_Wifi_BLE_SDK/GD32VW55x_RELEASE_V1.0.2/MSDK/lwip/lwip-2.1.2/src/api\api_lib.c ****  * @return ERR_OK if the function was called, another err_t if not
 116:C:/Users/stapi/OneDrive/Desktop/GD32VW553/GD32VW55X_Wifi_BLE_SDK/GD32VW55x_RELEASE_V1.0.2/MSDK/lwip/lwip-2.1.2/src/api\api_lib.c ****  */
 117:C:/Users/stapi/OneDrive/Desktop/GD32VW553/GD32VW55X_Wifi_BLE_SDK/GD32VW55x_RELEASE_V1.0.2/MSDK/lwip/lwip-2.1.2/src/api\api_lib.c **** static err_t
 118:C:/Users/stapi/OneDrive/Desktop/GD32VW553/GD32VW55X_Wifi_BLE_SDK/GD32VW55x_RELEASE_V1.0.2/MSDK/lwip/lwip-2.1.2/src/api\api_lib.c **** netconn_apimsg(tcpip_callback_fn fn, struct api_msg *apimsg)
 119:C:/Users/stapi/OneDrive/Desktop/GD32VW553/GD32VW55X_Wifi_BLE_SDK/GD32VW55x_RELEASE_V1.0.2/MSDK/lwip/lwip-2.1.2/src/api\api_lib.c **** {
  15              		.loc 1 119 1
  16              		.cfi_startproc
  17              	.LVL0:
  18 0000 17030000 		call	t0,__riscv_save_1
  18      E7020300 
  19              		.cfi_offset 8, -8
  20              		.cfi_offset 1, -4
  21              		.cfi_def_cfa_offset 16
 120:C:/Users/stapi/OneDrive/Desktop/GD32VW553/GD32VW55X_Wifi_BLE_SDK/GD32VW55x_RELEASE_V1.0.2/MSDK/lwip/lwip-2.1.2/src/api\api_lib.c ****   err_t err;
  22              		.loc 1 120 3
 121:C:/Users/stapi/OneDrive/Desktop/GD32VW553/GD32VW55X_Wifi_BLE_SDK/GD32VW55x_RELEASE_V1.0.2/MSDK/lwip/lwip-2.1.2/src/api\api_lib.c **** 
 122:C:/Users/stapi/OneDrive/Desktop/GD32VW553/GD32VW55X_Wifi_BLE_SDK/GD32VW55x_RELEASE_V1.0.2/MSDK/lwip/lwip-2.1.2/src/api\api_lib.c **** #ifdef LWIP_DEBUG
 123:C:/Users/stapi/OneDrive/Desktop/GD32VW553/GD32VW55X_Wifi_BLE_SDK/GD32VW55x_RELEASE_V1.0.2/MSDK/lwip/lwip-2.1.2/src/api\api_lib.c ****   /* catch functions that don't set err */
 124:C:/Users/stapi/OneDrive/Desktop/GD32VW553/GD32VW55X_Wifi_BLE_SDK/GD32VW55x_RELEASE_V1.0.2/MSDK/lwip/lwip-2.1.2/src/api\api_lib.c ****   apimsg->err = ERR_VAL;
 125:C:/Users/stapi/OneDrive/Desktop/GD32VW553/GD32VW55X_Wifi_BLE_SDK/GD32VW55x_RELEASE_V1.0.2/MSDK/lwip/lwip-2.1.2/src/api\api_lib.c **** #endif /* LWIP_DEBUG */
 126:C:/Users/stapi/OneDrive/Desktop/GD32VW553/GD32VW55X_Wifi_BLE_SDK/GD32VW55x_RELEASE_V1.0.2/MSDK/lwip/lwip-2.1.2/src/api\api_lib.c **** 
 127:C:/Users/stapi/OneDrive/Desktop/GD32VW553/GD32VW55X_Wifi_BLE_SDK/GD32VW55x_RELEASE_V1.0.2/MSDK/lwip/lwip-2.1.2/src/api\api_lib.c **** #if LWIP_NETCONN_SEM_PER_THREAD
 128:C:/Users/stapi/OneDrive/Desktop/GD32VW553/GD32VW55X_Wifi_BLE_SDK/GD32VW55x_RELEASE_V1.0.2/MSDK/lwip/lwip-2.1.2/src/api\api_lib.c ****   apimsg->op_completed_sem = LWIP_NETCONN_THREAD_SEM_GET();
 129:C:/Users/stapi/OneDrive/Desktop/GD32VW553/GD32VW55X_Wifi_BLE_SDK/GD32VW55x_RELEASE_V1.0.2/MSDK/lwip/lwip-2.1.2/src/api\api_lib.c **** #endif /* LWIP_NETCONN_SEM_PER_THREAD */
 130:C:/Users/stapi/OneDrive/Desktop/GD32VW553/GD32VW55X_Wifi_BLE_SDK/GD32VW55x_RELEASE_V1.0.2/MSDK/lwip/lwip-2.1.2/src/api\api_lib.c **** 
 131:C:/Users/stapi/OneDrive/Desktop/GD32VW553/GD32VW55X_Wifi_BLE_SDK/GD32VW55x_RELEASE_V1.0.2/MSDK/lwip/lwip-2.1.2/src/api\api_lib.c ****   err = tcpip_send_msg_wait_sem(fn, apimsg, LWIP_API_MSG_SEM(apimsg));
  23              		.loc 1 131 3
  24              		.loc 1 131 9 is_stmt 0
  25 0008 9041     		lw	a2,0(a1)
 119:C:/Users/stapi/OneDrive/Desktop/GD32VW553/GD32VW55X_Wifi_BLE_SDK/GD32VW55x_RELEASE_V1.0.2/MSDK/lwip/lwip-2.1.2/src/api\api_lib.c ****   err_t err;
  26              		.loc 1 119 1
  27 000a 2E84     		mv	s0,a1
  28              		.loc 1 131 9
  29 000c 4106     		addi	a2,a2,16
  30 000e 97000000 		call	tcpip_send_msg_wait_sem
  30      E7800000 
  31              	.LVL1:
 132:C:/Users/stapi/OneDrive/Desktop/GD32VW553/GD32VW55X_Wifi_BLE_SDK/GD32VW55x_RELEASE_V1.0.2/MSDK/lwip/lwip-2.1.2/src/api\api_lib.c ****   if (err == ERR_OK) {
  32              		.loc 1 132 3 is_stmt 1
  33              		.loc 1 132 6 is_stmt 0
  34 0016 19E1     		bne	a0,zero,.L2
 133:C:/Users/stapi/OneDrive/Desktop/GD32VW553/GD32VW55X_Wifi_BLE_SDK/GD32VW55x_RELEASE_V1.0.2/MSDK/lwip/lwip-2.1.2/src/api\api_lib.c ****     return apimsg->err;
  35              		.loc 1 133 5 is_stmt 1
  36              		.loc 1 133 18 is_stmt 0
  37 0018 03054400 		lb	a0,4(s0)
  38              	.LVL2:
  39              	.L2:
 134:C:/Users/stapi/OneDrive/Desktop/GD32VW553/GD32VW55X_Wifi_BLE_SDK/GD32VW55x_RELEASE_V1.0.2/MSDK/lwip/lwip-2.1.2/src/api\api_lib.c ****   }
 135:C:/Users/stapi/OneDrive/Desktop/GD32VW553/GD32VW55X_Wifi_BLE_SDK/GD32VW55x_RELEASE_V1.0.2/MSDK/lwip/lwip-2.1.2/src/api\api_lib.c ****   return err;
 136:C:/Users/stapi/OneDrive/Desktop/GD32VW553/GD32VW55X_Wifi_BLE_SDK/GD32VW55x_RELEASE_V1.0.2/MSDK/lwip/lwip-2.1.2/src/api\api_lib.c **** }
  40              		.loc 1 136 1
  41 001c 17030000 		tail	__riscv_restore_1
  41      67000300 
  42              		.cfi_restore 8
  43              		.cfi_restore 1
  44              		.cfi_def_cfa_offset 0
  45              		.cfi_endproc
  46              	.LFE4:
  48              		.section	.rodata.netconn_tcp_recvd_msg.str1.4,"aMS",@progbits,1
  49              		.align	2
  50              	.LC0:
  51 0000 433A2F55 		.string	"C:/Users/stapi/OneDrive/Desktop/GD32VW553/GD32VW55X_Wifi_BLE_SDK/GD32VW55x_RELEASE_V1.0.2
  51      73657273 
  51      2F737461 
  51      70692F4F 
  51      6E654472 
  52 0081 000000   		.align	2
  53              	.LC1:
  54 0084 6E657463 		.string	"netconn_recv_tcp_pbuf: invalid conn"
  54      6F6E6E5F 
  54      72656376 
  54      5F746370 
  54      5F706275 
  55              		.align	2
  56              	.LC2:
  57 00a8 41737365 		.string	"Assertion \"%s\" failed at line %d in %s\n"
  57      7274696F 
  57      6E202225 
  57      73222066 
  57      61696C65 
  58              		.section	.text.netconn_tcp_recvd_msg,"ax",@progbits
  59              		.align	1
  61              	netconn_tcp_recvd_msg:
  62              	.LFB16:
 137:C:/Users/stapi/OneDrive/Desktop/GD32VW553/GD32VW55X_Wifi_BLE_SDK/GD32VW55x_RELEASE_V1.0.2/MSDK/lwip/lwip-2.1.2/src/api\api_lib.c **** 
 138:C:/Users/stapi/OneDrive/Desktop/GD32VW553/GD32VW55X_Wifi_BLE_SDK/GD32VW55x_RELEASE_V1.0.2/MSDK/lwip/lwip-2.1.2/src/api\api_lib.c **** /**
 139:C:/Users/stapi/OneDrive/Desktop/GD32VW553/GD32VW55X_Wifi_BLE_SDK/GD32VW55x_RELEASE_V1.0.2/MSDK/lwip/lwip-2.1.2/src/api\api_lib.c ****  * Create a new netconn (of a specific type) that has a callback function.
 140:C:/Users/stapi/OneDrive/Desktop/GD32VW553/GD32VW55X_Wifi_BLE_SDK/GD32VW55x_RELEASE_V1.0.2/MSDK/lwip/lwip-2.1.2/src/api\api_lib.c ****  * The corresponding pcb is also created.
 141:C:/Users/stapi/OneDrive/Desktop/GD32VW553/GD32VW55X_Wifi_BLE_SDK/GD32VW55x_RELEASE_V1.0.2/MSDK/lwip/lwip-2.1.2/src/api\api_lib.c ****  *
 142:C:/Users/stapi/OneDrive/Desktop/GD32VW553/GD32VW55X_Wifi_BLE_SDK/GD32VW55x_RELEASE_V1.0.2/MSDK/lwip/lwip-2.1.2/src/api\api_lib.c ****  * @param t the type of 'connection' to create (@see enum netconn_type)
 143:C:/Users/stapi/OneDrive/Desktop/GD32VW553/GD32VW55X_Wifi_BLE_SDK/GD32VW55x_RELEASE_V1.0.2/MSDK/lwip/lwip-2.1.2/src/api\api_lib.c ****  * @param proto the IP protocol for RAW IP pcbs
 144:C:/Users/stapi/OneDrive/Desktop/GD32VW553/GD32VW55X_Wifi_BLE_SDK/GD32VW55x_RELEASE_V1.0.2/MSDK/lwip/lwip-2.1.2/src/api\api_lib.c ****  * @param callback a function to call on status changes (RX available, TX'ed)
 145:C:/Users/stapi/OneDrive/Desktop/GD32VW553/GD32VW55X_Wifi_BLE_SDK/GD32VW55x_RELEASE_V1.0.2/MSDK/lwip/lwip-2.1.2/src/api\api_lib.c ****  * @return a newly allocated struct netconn or
 146:C:/Users/stapi/OneDrive/Desktop/GD32VW553/GD32VW55X_Wifi_BLE_SDK/GD32VW55x_RELEASE_V1.0.2/MSDK/lwip/lwip-2.1.2/src/api\api_lib.c ****  *         NULL on memory error
 147:C:/Users/stapi/OneDrive/Desktop/GD32VW553/GD32VW55X_Wifi_BLE_SDK/GD32VW55x_RELEASE_V1.0.2/MSDK/lwip/lwip-2.1.2/src/api\api_lib.c ****  */
 148:C:/Users/stapi/OneDrive/Desktop/GD32VW553/GD32VW55X_Wifi_BLE_SDK/GD32VW55x_RELEASE_V1.0.2/MSDK/lwip/lwip-2.1.2/src/api\api_lib.c **** struct netconn *
 149:C:/Users/stapi/OneDrive/Desktop/GD32VW553/GD32VW55X_Wifi_BLE_SDK/GD32VW55x_RELEASE_V1.0.2/MSDK/lwip/lwip-2.1.2/src/api\api_lib.c **** netconn_new_with_proto_and_callback(enum netconn_type t, u8_t proto, netconn_callback callback)
 150:C:/Users/stapi/OneDrive/Desktop/GD32VW553/GD32VW55X_Wifi_BLE_SDK/GD32VW55x_RELEASE_V1.0.2/MSDK/lwip/lwip-2.1.2/src/api\api_lib.c **** {
 151:C:/Users/stapi/OneDrive/Desktop/GD32VW553/GD32VW55X_Wifi_BLE_SDK/GD32VW55x_RELEASE_V1.0.2/MSDK/lwip/lwip-2.1.2/src/api\api_lib.c ****   struct netconn *conn;
 152:C:/Users/stapi/OneDrive/Desktop/GD32VW553/GD32VW55X_Wifi_BLE_SDK/GD32VW55x_RELEASE_V1.0.2/MSDK/lwip/lwip-2.1.2/src/api\api_lib.c ****   API_MSG_VAR_DECLARE(msg);
 153:C:/Users/stapi/OneDrive/Desktop/GD32VW553/GD32VW55X_Wifi_BLE_SDK/GD32VW55x_RELEASE_V1.0.2/MSDK/lwip/lwip-2.1.2/src/api\api_lib.c ****   API_MSG_VAR_ALLOC_RETURN_NULL(msg);
 154:C:/Users/stapi/OneDrive/Desktop/GD32VW553/GD32VW55X_Wifi_BLE_SDK/GD32VW55x_RELEASE_V1.0.2/MSDK/lwip/lwip-2.1.2/src/api\api_lib.c **** 
 155:C:/Users/stapi/OneDrive/Desktop/GD32VW553/GD32VW55X_Wifi_BLE_SDK/GD32VW55x_RELEASE_V1.0.2/MSDK/lwip/lwip-2.1.2/src/api\api_lib.c ****   conn = netconn_alloc(t, callback);
 156:C:/Users/stapi/OneDrive/Desktop/GD32VW553/GD32VW55X_Wifi_BLE_SDK/GD32VW55x_RELEASE_V1.0.2/MSDK/lwip/lwip-2.1.2/src/api\api_lib.c ****   if (conn != NULL) {
 157:C:/Users/stapi/OneDrive/Desktop/GD32VW553/GD32VW55X_Wifi_BLE_SDK/GD32VW55x_RELEASE_V1.0.2/MSDK/lwip/lwip-2.1.2/src/api\api_lib.c ****     err_t err;
 158:C:/Users/stapi/OneDrive/Desktop/GD32VW553/GD32VW55X_Wifi_BLE_SDK/GD32VW55x_RELEASE_V1.0.2/MSDK/lwip/lwip-2.1.2/src/api\api_lib.c **** 
 159:C:/Users/stapi/OneDrive/Desktop/GD32VW553/GD32VW55X_Wifi_BLE_SDK/GD32VW55x_RELEASE_V1.0.2/MSDK/lwip/lwip-2.1.2/src/api\api_lib.c ****     API_MSG_VAR_REF(msg).msg.n.proto = proto;
 160:C:/Users/stapi/OneDrive/Desktop/GD32VW553/GD32VW55X_Wifi_BLE_SDK/GD32VW55x_RELEASE_V1.0.2/MSDK/lwip/lwip-2.1.2/src/api\api_lib.c ****     API_MSG_VAR_REF(msg).conn = conn;
 161:C:/Users/stapi/OneDrive/Desktop/GD32VW553/GD32VW55X_Wifi_BLE_SDK/GD32VW55x_RELEASE_V1.0.2/MSDK/lwip/lwip-2.1.2/src/api\api_lib.c ****     err = netconn_apimsg(lwip_netconn_do_newconn, &API_MSG_VAR_REF(msg));
 162:C:/Users/stapi/OneDrive/Desktop/GD32VW553/GD32VW55X_Wifi_BLE_SDK/GD32VW55x_RELEASE_V1.0.2/MSDK/lwip/lwip-2.1.2/src/api\api_lib.c ****     if (err != ERR_OK) {
 163:C:/Users/stapi/OneDrive/Desktop/GD32VW553/GD32VW55X_Wifi_BLE_SDK/GD32VW55x_RELEASE_V1.0.2/MSDK/lwip/lwip-2.1.2/src/api\api_lib.c ****       LWIP_ASSERT("freeing conn without freeing pcb", conn->pcb.tcp == NULL);
 164:C:/Users/stapi/OneDrive/Desktop/GD32VW553/GD32VW55X_Wifi_BLE_SDK/GD32VW55x_RELEASE_V1.0.2/MSDK/lwip/lwip-2.1.2/src/api\api_lib.c ****       LWIP_ASSERT("conn has no recvmbox", sys_mbox_valid(&conn->recvmbox));
 165:C:/Users/stapi/OneDrive/Desktop/GD32VW553/GD32VW55X_Wifi_BLE_SDK/GD32VW55x_RELEASE_V1.0.2/MSDK/lwip/lwip-2.1.2/src/api\api_lib.c **** #if LWIP_TCP
 166:C:/Users/stapi/OneDrive/Desktop/GD32VW553/GD32VW55X_Wifi_BLE_SDK/GD32VW55x_RELEASE_V1.0.2/MSDK/lwip/lwip-2.1.2/src/api\api_lib.c ****       LWIP_ASSERT("conn->acceptmbox shouldn't exist", !sys_mbox_valid(&conn->acceptmbox));
 167:C:/Users/stapi/OneDrive/Desktop/GD32VW553/GD32VW55X_Wifi_BLE_SDK/GD32VW55x_RELEASE_V1.0.2/MSDK/lwip/lwip-2.1.2/src/api\api_lib.c **** #endif /* LWIP_TCP */
 168:C:/Users/stapi/OneDrive/Desktop/GD32VW553/GD32VW55X_Wifi_BLE_SDK/GD32VW55x_RELEASE_V1.0.2/MSDK/lwip/lwip-2.1.2/src/api\api_lib.c **** #if !LWIP_NETCONN_SEM_PER_THREAD
 169:C:/Users/stapi/OneDrive/Desktop/GD32VW553/GD32VW55X_Wifi_BLE_SDK/GD32VW55x_RELEASE_V1.0.2/MSDK/lwip/lwip-2.1.2/src/api\api_lib.c ****       LWIP_ASSERT("conn has no op_completed", sys_sem_valid(&conn->op_completed));
 170:C:/Users/stapi/OneDrive/Desktop/GD32VW553/GD32VW55X_Wifi_BLE_SDK/GD32VW55x_RELEASE_V1.0.2/MSDK/lwip/lwip-2.1.2/src/api\api_lib.c ****       sys_sem_free(&conn->op_completed);
 171:C:/Users/stapi/OneDrive/Desktop/GD32VW553/GD32VW55X_Wifi_BLE_SDK/GD32VW55x_RELEASE_V1.0.2/MSDK/lwip/lwip-2.1.2/src/api\api_lib.c **** #endif /* !LWIP_NETCONN_SEM_PER_THREAD */
 172:C:/Users/stapi/OneDrive/Desktop/GD32VW553/GD32VW55X_Wifi_BLE_SDK/GD32VW55x_RELEASE_V1.0.2/MSDK/lwip/lwip-2.1.2/src/api\api_lib.c ****       sys_mbox_free(&conn->recvmbox);
 173:C:/Users/stapi/OneDrive/Desktop/GD32VW553/GD32VW55X_Wifi_BLE_SDK/GD32VW55x_RELEASE_V1.0.2/MSDK/lwip/lwip-2.1.2/src/api\api_lib.c ****       memp_free(MEMP_NETCONN, conn);
 174:C:/Users/stapi/OneDrive/Desktop/GD32VW553/GD32VW55X_Wifi_BLE_SDK/GD32VW55x_RELEASE_V1.0.2/MSDK/lwip/lwip-2.1.2/src/api\api_lib.c ****       API_MSG_VAR_FREE(msg);
 175:C:/Users/stapi/OneDrive/Desktop/GD32VW553/GD32VW55X_Wifi_BLE_SDK/GD32VW55x_RELEASE_V1.0.2/MSDK/lwip/lwip-2.1.2/src/api\api_lib.c ****       return NULL;
 176:C:/Users/stapi/OneDrive/Desktop/GD32VW553/GD32VW55X_Wifi_BLE_SDK/GD32VW55x_RELEASE_V1.0.2/MSDK/lwip/lwip-2.1.2/src/api\api_lib.c ****     }
 177:C:/Users/stapi/OneDrive/Desktop/GD32VW553/GD32VW55X_Wifi_BLE_SDK/GD32VW55x_RELEASE_V1.0.2/MSDK/lwip/lwip-2.1.2/src/api\api_lib.c ****   }
 178:C:/Users/stapi/OneDrive/Desktop/GD32VW553/GD32VW55X_Wifi_BLE_SDK/GD32VW55x_RELEASE_V1.0.2/MSDK/lwip/lwip-2.1.2/src/api\api_lib.c ****   API_MSG_VAR_FREE(msg);
 179:C:/Users/stapi/OneDrive/Desktop/GD32VW553/GD32VW55X_Wifi_BLE_SDK/GD32VW55x_RELEASE_V1.0.2/MSDK/lwip/lwip-2.1.2/src/api\api_lib.c ****   return conn;
 180:C:/Users/stapi/OneDrive/Desktop/GD32VW553/GD32VW55X_Wifi_BLE_SDK/GD32VW55x_RELEASE_V1.0.2/MSDK/lwip/lwip-2.1.2/src/api\api_lib.c **** }
 181:C:/Users/stapi/OneDrive/Desktop/GD32VW553/GD32VW55X_Wifi_BLE_SDK/GD32VW55x_RELEASE_V1.0.2/MSDK/lwip/lwip-2.1.2/src/api\api_lib.c **** 
 182:C:/Users/stapi/OneDrive/Desktop/GD32VW553/GD32VW55X_Wifi_BLE_SDK/GD32VW55x_RELEASE_V1.0.2/MSDK/lwip/lwip-2.1.2/src/api\api_lib.c **** /**
 183:C:/Users/stapi/OneDrive/Desktop/GD32VW553/GD32VW55X_Wifi_BLE_SDK/GD32VW55x_RELEASE_V1.0.2/MSDK/lwip/lwip-2.1.2/src/api\api_lib.c ****  * @ingroup netconn_common
 184:C:/Users/stapi/OneDrive/Desktop/GD32VW553/GD32VW55X_Wifi_BLE_SDK/GD32VW55x_RELEASE_V1.0.2/MSDK/lwip/lwip-2.1.2/src/api\api_lib.c ****  * Close a netconn 'connection' and free all its resources but not the netconn itself.
 185:C:/Users/stapi/OneDrive/Desktop/GD32VW553/GD32VW55X_Wifi_BLE_SDK/GD32VW55x_RELEASE_V1.0.2/MSDK/lwip/lwip-2.1.2/src/api\api_lib.c ****  * UDP and RAW connection are completely closed, TCP pcbs might still be in a waitstate
 186:C:/Users/stapi/OneDrive/Desktop/GD32VW553/GD32VW55X_Wifi_BLE_SDK/GD32VW55x_RELEASE_V1.0.2/MSDK/lwip/lwip-2.1.2/src/api\api_lib.c ****  * after this returns.
 187:C:/Users/stapi/OneDrive/Desktop/GD32VW553/GD32VW55X_Wifi_BLE_SDK/GD32VW55x_RELEASE_V1.0.2/MSDK/lwip/lwip-2.1.2/src/api\api_lib.c ****  *
 188:C:/Users/stapi/OneDrive/Desktop/GD32VW553/GD32VW55X_Wifi_BLE_SDK/GD32VW55x_RELEASE_V1.0.2/MSDK/lwip/lwip-2.1.2/src/api\api_lib.c ****  * @param conn the netconn to delete
 189:C:/Users/stapi/OneDrive/Desktop/GD32VW553/GD32VW55X_Wifi_BLE_SDK/GD32VW55x_RELEASE_V1.0.2/MSDK/lwip/lwip-2.1.2/src/api\api_lib.c ****  * @return ERR_OK if the connection was deleted
 190:C:/Users/stapi/OneDrive/Desktop/GD32VW553/GD32VW55X_Wifi_BLE_SDK/GD32VW55x_RELEASE_V1.0.2/MSDK/lwip/lwip-2.1.2/src/api\api_lib.c ****  */
 191:C:/Users/stapi/OneDrive/Desktop/GD32VW553/GD32VW55X_Wifi_BLE_SDK/GD32VW55x_RELEASE_V1.0.2/MSDK/lwip/lwip-2.1.2/src/api\api_lib.c **** err_t
 192:C:/Users/stapi/OneDrive/Desktop/GD32VW553/GD32VW55X_Wifi_BLE_SDK/GD32VW55x_RELEASE_V1.0.2/MSDK/lwip/lwip-2.1.2/src/api\api_lib.c **** netconn_prepare_delete(struct netconn *conn)
 193:C:/Users/stapi/OneDrive/Desktop/GD32VW553/GD32VW55X_Wifi_BLE_SDK/GD32VW55x_RELEASE_V1.0.2/MSDK/lwip/lwip-2.1.2/src/api\api_lib.c **** {
 194:C:/Users/stapi/OneDrive/Desktop/GD32VW553/GD32VW55X_Wifi_BLE_SDK/GD32VW55x_RELEASE_V1.0.2/MSDK/lwip/lwip-2.1.2/src/api\api_lib.c ****   err_t err;
 195:C:/Users/stapi/OneDrive/Desktop/GD32VW553/GD32VW55X_Wifi_BLE_SDK/GD32VW55x_RELEASE_V1.0.2/MSDK/lwip/lwip-2.1.2/src/api\api_lib.c ****   API_MSG_VAR_DECLARE(msg);
 196:C:/Users/stapi/OneDrive/Desktop/GD32VW553/GD32VW55X_Wifi_BLE_SDK/GD32VW55x_RELEASE_V1.0.2/MSDK/lwip/lwip-2.1.2/src/api\api_lib.c **** 
 197:C:/Users/stapi/OneDrive/Desktop/GD32VW553/GD32VW55X_Wifi_BLE_SDK/GD32VW55x_RELEASE_V1.0.2/MSDK/lwip/lwip-2.1.2/src/api\api_lib.c ****   /* No ASSERT here because possible to get a (conn == NULL) if we got an accept error */
 198:C:/Users/stapi/OneDrive/Desktop/GD32VW553/GD32VW55X_Wifi_BLE_SDK/GD32VW55x_RELEASE_V1.0.2/MSDK/lwip/lwip-2.1.2/src/api\api_lib.c ****   if (conn == NULL) {
 199:C:/Users/stapi/OneDrive/Desktop/GD32VW553/GD32VW55X_Wifi_BLE_SDK/GD32VW55x_RELEASE_V1.0.2/MSDK/lwip/lwip-2.1.2/src/api\api_lib.c ****     return ERR_OK;
 200:C:/Users/stapi/OneDrive/Desktop/GD32VW553/GD32VW55X_Wifi_BLE_SDK/GD32VW55x_RELEASE_V1.0.2/MSDK/lwip/lwip-2.1.2/src/api\api_lib.c ****   }
 201:C:/Users/stapi/OneDrive/Desktop/GD32VW553/GD32VW55X_Wifi_BLE_SDK/GD32VW55x_RELEASE_V1.0.2/MSDK/lwip/lwip-2.1.2/src/api\api_lib.c **** 
 202:C:/Users/stapi/OneDrive/Desktop/GD32VW553/GD32VW55X_Wifi_BLE_SDK/GD32VW55x_RELEASE_V1.0.2/MSDK/lwip/lwip-2.1.2/src/api\api_lib.c ****   API_MSG_VAR_ALLOC(msg);
 203:C:/Users/stapi/OneDrive/Desktop/GD32VW553/GD32VW55X_Wifi_BLE_SDK/GD32VW55x_RELEASE_V1.0.2/MSDK/lwip/lwip-2.1.2/src/api\api_lib.c ****   API_MSG_VAR_REF(msg).conn = conn;
 204:C:/Users/stapi/OneDrive/Desktop/GD32VW553/GD32VW55X_Wifi_BLE_SDK/GD32VW55x_RELEASE_V1.0.2/MSDK/lwip/lwip-2.1.2/src/api\api_lib.c **** #if LWIP_SO_SNDTIMEO || LWIP_SO_LINGER
 205:C:/Users/stapi/OneDrive/Desktop/GD32VW553/GD32VW55X_Wifi_BLE_SDK/GD32VW55x_RELEASE_V1.0.2/MSDK/lwip/lwip-2.1.2/src/api\api_lib.c ****   /* get the time we started, which is later compared to
 206:C:/Users/stapi/OneDrive/Desktop/GD32VW553/GD32VW55X_Wifi_BLE_SDK/GD32VW55x_RELEASE_V1.0.2/MSDK/lwip/lwip-2.1.2/src/api\api_lib.c ****      sys_now() + conn->send_timeout */
 207:C:/Users/stapi/OneDrive/Desktop/GD32VW553/GD32VW55X_Wifi_BLE_SDK/GD32VW55x_RELEASE_V1.0.2/MSDK/lwip/lwip-2.1.2/src/api\api_lib.c ****   API_MSG_VAR_REF(msg).msg.sd.time_started = sys_now();
 208:C:/Users/stapi/OneDrive/Desktop/GD32VW553/GD32VW55X_Wifi_BLE_SDK/GD32VW55x_RELEASE_V1.0.2/MSDK/lwip/lwip-2.1.2/src/api\api_lib.c **** #else /* LWIP_SO_SNDTIMEO || LWIP_SO_LINGER */
 209:C:/Users/stapi/OneDrive/Desktop/GD32VW553/GD32VW55X_Wifi_BLE_SDK/GD32VW55x_RELEASE_V1.0.2/MSDK/lwip/lwip-2.1.2/src/api\api_lib.c **** #if LWIP_TCP
 210:C:/Users/stapi/OneDrive/Desktop/GD32VW553/GD32VW55X_Wifi_BLE_SDK/GD32VW55x_RELEASE_V1.0.2/MSDK/lwip/lwip-2.1.2/src/api\api_lib.c ****   API_MSG_VAR_REF(msg).msg.sd.polls_left =
 211:C:/Users/stapi/OneDrive/Desktop/GD32VW553/GD32VW55X_Wifi_BLE_SDK/GD32VW55x_RELEASE_V1.0.2/MSDK/lwip/lwip-2.1.2/src/api\api_lib.c ****     ((LWIP_TCP_CLOSE_TIMEOUT_MS_DEFAULT + TCP_SLOW_INTERVAL - 1) / TCP_SLOW_INTERVAL) + 1;
 212:C:/Users/stapi/OneDrive/Desktop/GD32VW553/GD32VW55X_Wifi_BLE_SDK/GD32VW55x_RELEASE_V1.0.2/MSDK/lwip/lwip-2.1.2/src/api\api_lib.c **** #endif /* LWIP_TCP */
 213:C:/Users/stapi/OneDrive/Desktop/GD32VW553/GD32VW55X_Wifi_BLE_SDK/GD32VW55x_RELEASE_V1.0.2/MSDK/lwip/lwip-2.1.2/src/api\api_lib.c **** #endif /* LWIP_SO_SNDTIMEO || LWIP_SO_LINGER */
 214:C:/Users/stapi/OneDrive/Desktop/GD32VW553/GD32VW55X_Wifi_BLE_SDK/GD32VW55x_RELEASE_V1.0.2/MSDK/lwip/lwip-2.1.2/src/api\api_lib.c ****   err = netconn_apimsg(lwip_netconn_do_delconn, &API_MSG_VAR_REF(msg));
 215:C:/Users/stapi/OneDrive/Desktop/GD32VW553/GD32VW55X_Wifi_BLE_SDK/GD32VW55x_RELEASE_V1.0.2/MSDK/lwip/lwip-2.1.2/src/api\api_lib.c ****   API_MSG_VAR_FREE(msg);
 216:C:/Users/stapi/OneDrive/Desktop/GD32VW553/GD32VW55X_Wifi_BLE_SDK/GD32VW55x_RELEASE_V1.0.2/MSDK/lwip/lwip-2.1.2/src/api\api_lib.c **** 
 217:C:/Users/stapi/OneDrive/Desktop/GD32VW553/GD32VW55X_Wifi_BLE_SDK/GD32VW55x_RELEASE_V1.0.2/MSDK/lwip/lwip-2.1.2/src/api\api_lib.c ****   if (err != ERR_OK) {
 218:C:/Users/stapi/OneDrive/Desktop/GD32VW553/GD32VW55X_Wifi_BLE_SDK/GD32VW55x_RELEASE_V1.0.2/MSDK/lwip/lwip-2.1.2/src/api\api_lib.c ****     return err;
 219:C:/Users/stapi/OneDrive/Desktop/GD32VW553/GD32VW55X_Wifi_BLE_SDK/GD32VW55x_RELEASE_V1.0.2/MSDK/lwip/lwip-2.1.2/src/api\api_lib.c ****   }
 220:C:/Users/stapi/OneDrive/Desktop/GD32VW553/GD32VW55X_Wifi_BLE_SDK/GD32VW55x_RELEASE_V1.0.2/MSDK/lwip/lwip-2.1.2/src/api\api_lib.c ****   return ERR_OK;
 221:C:/Users/stapi/OneDrive/Desktop/GD32VW553/GD32VW55X_Wifi_BLE_SDK/GD32VW55x_RELEASE_V1.0.2/MSDK/lwip/lwip-2.1.2/src/api\api_lib.c **** }
 222:C:/Users/stapi/OneDrive/Desktop/GD32VW553/GD32VW55X_Wifi_BLE_SDK/GD32VW55x_RELEASE_V1.0.2/MSDK/lwip/lwip-2.1.2/src/api\api_lib.c **** 
 223:C:/Users/stapi/OneDrive/Desktop/GD32VW553/GD32VW55X_Wifi_BLE_SDK/GD32VW55x_RELEASE_V1.0.2/MSDK/lwip/lwip-2.1.2/src/api\api_lib.c **** /**
 224:C:/Users/stapi/OneDrive/Desktop/GD32VW553/GD32VW55X_Wifi_BLE_SDK/GD32VW55x_RELEASE_V1.0.2/MSDK/lwip/lwip-2.1.2/src/api\api_lib.c ****  * @ingroup netconn_common
 225:C:/Users/stapi/OneDrive/Desktop/GD32VW553/GD32VW55X_Wifi_BLE_SDK/GD32VW55x_RELEASE_V1.0.2/MSDK/lwip/lwip-2.1.2/src/api\api_lib.c ****  * Close a netconn 'connection' and free its resources.
 226:C:/Users/stapi/OneDrive/Desktop/GD32VW553/GD32VW55X_Wifi_BLE_SDK/GD32VW55x_RELEASE_V1.0.2/MSDK/lwip/lwip-2.1.2/src/api\api_lib.c ****  * UDP and RAW connection are completely closed, TCP pcbs might still be in a waitstate
 227:C:/Users/stapi/OneDrive/Desktop/GD32VW553/GD32VW55X_Wifi_BLE_SDK/GD32VW55x_RELEASE_V1.0.2/MSDK/lwip/lwip-2.1.2/src/api\api_lib.c ****  * after this returns.
 228:C:/Users/stapi/OneDrive/Desktop/GD32VW553/GD32VW55X_Wifi_BLE_SDK/GD32VW55x_RELEASE_V1.0.2/MSDK/lwip/lwip-2.1.2/src/api\api_lib.c ****  *
 229:C:/Users/stapi/OneDrive/Desktop/GD32VW553/GD32VW55X_Wifi_BLE_SDK/GD32VW55x_RELEASE_V1.0.2/MSDK/lwip/lwip-2.1.2/src/api\api_lib.c ****  * @param conn the netconn to delete
 230:C:/Users/stapi/OneDrive/Desktop/GD32VW553/GD32VW55X_Wifi_BLE_SDK/GD32VW55x_RELEASE_V1.0.2/MSDK/lwip/lwip-2.1.2/src/api\api_lib.c ****  * @return ERR_OK if the connection was deleted
 231:C:/Users/stapi/OneDrive/Desktop/GD32VW553/GD32VW55X_Wifi_BLE_SDK/GD32VW55x_RELEASE_V1.0.2/MSDK/lwip/lwip-2.1.2/src/api\api_lib.c ****  */
 232:C:/Users/stapi/OneDrive/Desktop/GD32VW553/GD32VW55X_Wifi_BLE_SDK/GD32VW55x_RELEASE_V1.0.2/MSDK/lwip/lwip-2.1.2/src/api\api_lib.c **** err_t
 233:C:/Users/stapi/OneDrive/Desktop/GD32VW553/GD32VW55X_Wifi_BLE_SDK/GD32VW55x_RELEASE_V1.0.2/MSDK/lwip/lwip-2.1.2/src/api\api_lib.c **** netconn_delete(struct netconn *conn)
 234:C:/Users/stapi/OneDrive/Desktop/GD32VW553/GD32VW55X_Wifi_BLE_SDK/GD32VW55x_RELEASE_V1.0.2/MSDK/lwip/lwip-2.1.2/src/api\api_lib.c **** {
 235:C:/Users/stapi/OneDrive/Desktop/GD32VW553/GD32VW55X_Wifi_BLE_SDK/GD32VW55x_RELEASE_V1.0.2/MSDK/lwip/lwip-2.1.2/src/api\api_lib.c ****   err_t err;
 236:C:/Users/stapi/OneDrive/Desktop/GD32VW553/GD32VW55X_Wifi_BLE_SDK/GD32VW55x_RELEASE_V1.0.2/MSDK/lwip/lwip-2.1.2/src/api\api_lib.c **** 
 237:C:/Users/stapi/OneDrive/Desktop/GD32VW553/GD32VW55X_Wifi_BLE_SDK/GD32VW55x_RELEASE_V1.0.2/MSDK/lwip/lwip-2.1.2/src/api\api_lib.c ****   /* No ASSERT here because possible to get a (conn == NULL) if we got an accept error */
 238:C:/Users/stapi/OneDrive/Desktop/GD32VW553/GD32VW55X_Wifi_BLE_SDK/GD32VW55x_RELEASE_V1.0.2/MSDK/lwip/lwip-2.1.2/src/api\api_lib.c ****   if (conn == NULL) {
 239:C:/Users/stapi/OneDrive/Desktop/GD32VW553/GD32VW55X_Wifi_BLE_SDK/GD32VW55x_RELEASE_V1.0.2/MSDK/lwip/lwip-2.1.2/src/api\api_lib.c ****     return ERR_OK;
 240:C:/Users/stapi/OneDrive/Desktop/GD32VW553/GD32VW55X_Wifi_BLE_SDK/GD32VW55x_RELEASE_V1.0.2/MSDK/lwip/lwip-2.1.2/src/api\api_lib.c ****   }
 241:C:/Users/stapi/OneDrive/Desktop/GD32VW553/GD32VW55X_Wifi_BLE_SDK/GD32VW55x_RELEASE_V1.0.2/MSDK/lwip/lwip-2.1.2/src/api\api_lib.c **** 
 242:C:/Users/stapi/OneDrive/Desktop/GD32VW553/GD32VW55X_Wifi_BLE_SDK/GD32VW55x_RELEASE_V1.0.2/MSDK/lwip/lwip-2.1.2/src/api\api_lib.c **** #if LWIP_NETCONN_FULLDUPLEX
 243:C:/Users/stapi/OneDrive/Desktop/GD32VW553/GD32VW55X_Wifi_BLE_SDK/GD32VW55x_RELEASE_V1.0.2/MSDK/lwip/lwip-2.1.2/src/api\api_lib.c ****   if (conn->flags & NETCONN_FLAG_MBOXINVALID) {
 244:C:/Users/stapi/OneDrive/Desktop/GD32VW553/GD32VW55X_Wifi_BLE_SDK/GD32VW55x_RELEASE_V1.0.2/MSDK/lwip/lwip-2.1.2/src/api\api_lib.c ****     /* Already called netconn_prepare_delete() before */
 245:C:/Users/stapi/OneDrive/Desktop/GD32VW553/GD32VW55X_Wifi_BLE_SDK/GD32VW55x_RELEASE_V1.0.2/MSDK/lwip/lwip-2.1.2/src/api\api_lib.c ****     err = ERR_OK;
 246:C:/Users/stapi/OneDrive/Desktop/GD32VW553/GD32VW55X_Wifi_BLE_SDK/GD32VW55x_RELEASE_V1.0.2/MSDK/lwip/lwip-2.1.2/src/api\api_lib.c ****   } else
 247:C:/Users/stapi/OneDrive/Desktop/GD32VW553/GD32VW55X_Wifi_BLE_SDK/GD32VW55x_RELEASE_V1.0.2/MSDK/lwip/lwip-2.1.2/src/api\api_lib.c **** #endif /* LWIP_NETCONN_FULLDUPLEX */
 248:C:/Users/stapi/OneDrive/Desktop/GD32VW553/GD32VW55X_Wifi_BLE_SDK/GD32VW55x_RELEASE_V1.0.2/MSDK/lwip/lwip-2.1.2/src/api\api_lib.c ****   {
 249:C:/Users/stapi/OneDrive/Desktop/GD32VW553/GD32VW55X_Wifi_BLE_SDK/GD32VW55x_RELEASE_V1.0.2/MSDK/lwip/lwip-2.1.2/src/api\api_lib.c ****     err = netconn_prepare_delete(conn);
 250:C:/Users/stapi/OneDrive/Desktop/GD32VW553/GD32VW55X_Wifi_BLE_SDK/GD32VW55x_RELEASE_V1.0.2/MSDK/lwip/lwip-2.1.2/src/api\api_lib.c ****   }
 251:C:/Users/stapi/OneDrive/Desktop/GD32VW553/GD32VW55X_Wifi_BLE_SDK/GD32VW55x_RELEASE_V1.0.2/MSDK/lwip/lwip-2.1.2/src/api\api_lib.c ****   if (err == ERR_OK) {
 252:C:/Users/stapi/OneDrive/Desktop/GD32VW553/GD32VW55X_Wifi_BLE_SDK/GD32VW55x_RELEASE_V1.0.2/MSDK/lwip/lwip-2.1.2/src/api\api_lib.c ****     netconn_free(conn);
 253:C:/Users/stapi/OneDrive/Desktop/GD32VW553/GD32VW55X_Wifi_BLE_SDK/GD32VW55x_RELEASE_V1.0.2/MSDK/lwip/lwip-2.1.2/src/api\api_lib.c ****   }
 254:C:/Users/stapi/OneDrive/Desktop/GD32VW553/GD32VW55X_Wifi_BLE_SDK/GD32VW55x_RELEASE_V1.0.2/MSDK/lwip/lwip-2.1.2/src/api\api_lib.c ****   return err;
 255:C:/Users/stapi/OneDrive/Desktop/GD32VW553/GD32VW55X_Wifi_BLE_SDK/GD32VW55x_RELEASE_V1.0.2/MSDK/lwip/lwip-2.1.2/src/api\api_lib.c **** }
 256:C:/Users/stapi/OneDrive/Desktop/GD32VW553/GD32VW55X_Wifi_BLE_SDK/GD32VW55x_RELEASE_V1.0.2/MSDK/lwip/lwip-2.1.2/src/api\api_lib.c **** 
 257:C:/Users/stapi/OneDrive/Desktop/GD32VW553/GD32VW55X_Wifi_BLE_SDK/GD32VW55x_RELEASE_V1.0.2/MSDK/lwip/lwip-2.1.2/src/api\api_lib.c **** /**
 258:C:/Users/stapi/OneDrive/Desktop/GD32VW553/GD32VW55X_Wifi_BLE_SDK/GD32VW55x_RELEASE_V1.0.2/MSDK/lwip/lwip-2.1.2/src/api\api_lib.c ****  * Get the local or remote IP address and port of a netconn.
 259:C:/Users/stapi/OneDrive/Desktop/GD32VW553/GD32VW55X_Wifi_BLE_SDK/GD32VW55x_RELEASE_V1.0.2/MSDK/lwip/lwip-2.1.2/src/api\api_lib.c ****  * For RAW netconns, this returns the protocol instead of a port!
 260:C:/Users/stapi/OneDrive/Desktop/GD32VW553/GD32VW55X_Wifi_BLE_SDK/GD32VW55x_RELEASE_V1.0.2/MSDK/lwip/lwip-2.1.2/src/api\api_lib.c ****  *
 261:C:/Users/stapi/OneDrive/Desktop/GD32VW553/GD32VW55X_Wifi_BLE_SDK/GD32VW55x_RELEASE_V1.0.2/MSDK/lwip/lwip-2.1.2/src/api\api_lib.c ****  * @param conn the netconn to query
 262:C:/Users/stapi/OneDrive/Desktop/GD32VW553/GD32VW55X_Wifi_BLE_SDK/GD32VW55x_RELEASE_V1.0.2/MSDK/lwip/lwip-2.1.2/src/api\api_lib.c ****  * @param addr a pointer to which to save the IP address
 263:C:/Users/stapi/OneDrive/Desktop/GD32VW553/GD32VW55X_Wifi_BLE_SDK/GD32VW55x_RELEASE_V1.0.2/MSDK/lwip/lwip-2.1.2/src/api\api_lib.c ****  * @param port a pointer to which to save the port (or protocol for RAW)
 264:C:/Users/stapi/OneDrive/Desktop/GD32VW553/GD32VW55X_Wifi_BLE_SDK/GD32VW55x_RELEASE_V1.0.2/MSDK/lwip/lwip-2.1.2/src/api\api_lib.c ****  * @param local 1 to get the local IP address, 0 to get the remote one
 265:C:/Users/stapi/OneDrive/Desktop/GD32VW553/GD32VW55X_Wifi_BLE_SDK/GD32VW55x_RELEASE_V1.0.2/MSDK/lwip/lwip-2.1.2/src/api\api_lib.c ****  * @return ERR_CONN for invalid connections
 266:C:/Users/stapi/OneDrive/Desktop/GD32VW553/GD32VW55X_Wifi_BLE_SDK/GD32VW55x_RELEASE_V1.0.2/MSDK/lwip/lwip-2.1.2/src/api\api_lib.c ****  *         ERR_OK if the information was retrieved
 267:C:/Users/stapi/OneDrive/Desktop/GD32VW553/GD32VW55X_Wifi_BLE_SDK/GD32VW55x_RELEASE_V1.0.2/MSDK/lwip/lwip-2.1.2/src/api\api_lib.c ****  */
 268:C:/Users/stapi/OneDrive/Desktop/GD32VW553/GD32VW55X_Wifi_BLE_SDK/GD32VW55x_RELEASE_V1.0.2/MSDK/lwip/lwip-2.1.2/src/api\api_lib.c **** err_t
 269:C:/Users/stapi/OneDrive/Desktop/GD32VW553/GD32VW55X_Wifi_BLE_SDK/GD32VW55x_RELEASE_V1.0.2/MSDK/lwip/lwip-2.1.2/src/api\api_lib.c **** netconn_getaddr(struct netconn *conn, ip_addr_t *addr, u16_t *port, u8_t local)
 270:C:/Users/stapi/OneDrive/Desktop/GD32VW553/GD32VW55X_Wifi_BLE_SDK/GD32VW55x_RELEASE_V1.0.2/MSDK/lwip/lwip-2.1.2/src/api\api_lib.c **** {
 271:C:/Users/stapi/OneDrive/Desktop/GD32VW553/GD32VW55X_Wifi_BLE_SDK/GD32VW55x_RELEASE_V1.0.2/MSDK/lwip/lwip-2.1.2/src/api\api_lib.c ****   API_MSG_VAR_DECLARE(msg);
 272:C:/Users/stapi/OneDrive/Desktop/GD32VW553/GD32VW55X_Wifi_BLE_SDK/GD32VW55x_RELEASE_V1.0.2/MSDK/lwip/lwip-2.1.2/src/api\api_lib.c ****   err_t err;
 273:C:/Users/stapi/OneDrive/Desktop/GD32VW553/GD32VW55X_Wifi_BLE_SDK/GD32VW55x_RELEASE_V1.0.2/MSDK/lwip/lwip-2.1.2/src/api\api_lib.c **** 
 274:C:/Users/stapi/OneDrive/Desktop/GD32VW553/GD32VW55X_Wifi_BLE_SDK/GD32VW55x_RELEASE_V1.0.2/MSDK/lwip/lwip-2.1.2/src/api\api_lib.c ****   LWIP_ERROR("netconn_getaddr: invalid conn", (conn != NULL), return ERR_ARG;);
 275:C:/Users/stapi/OneDrive/Desktop/GD32VW553/GD32VW55X_Wifi_BLE_SDK/GD32VW55x_RELEASE_V1.0.2/MSDK/lwip/lwip-2.1.2/src/api\api_lib.c ****   LWIP_ERROR("netconn_getaddr: invalid addr", (addr != NULL), return ERR_ARG;);
 276:C:/Users/stapi/OneDrive/Desktop/GD32VW553/GD32VW55X_Wifi_BLE_SDK/GD32VW55x_RELEASE_V1.0.2/MSDK/lwip/lwip-2.1.2/src/api\api_lib.c ****   LWIP_ERROR("netconn_getaddr: invalid port", (port != NULL), return ERR_ARG;);
 277:C:/Users/stapi/OneDrive/Desktop/GD32VW553/GD32VW55X_Wifi_BLE_SDK/GD32VW55x_RELEASE_V1.0.2/MSDK/lwip/lwip-2.1.2/src/api\api_lib.c **** 
 278:C:/Users/stapi/OneDrive/Desktop/GD32VW553/GD32VW55X_Wifi_BLE_SDK/GD32VW55x_RELEASE_V1.0.2/MSDK/lwip/lwip-2.1.2/src/api\api_lib.c ****   API_MSG_VAR_ALLOC(msg);
 279:C:/Users/stapi/OneDrive/Desktop/GD32VW553/GD32VW55X_Wifi_BLE_SDK/GD32VW55x_RELEASE_V1.0.2/MSDK/lwip/lwip-2.1.2/src/api\api_lib.c ****   API_MSG_VAR_REF(msg).conn = conn;
 280:C:/Users/stapi/OneDrive/Desktop/GD32VW553/GD32VW55X_Wifi_BLE_SDK/GD32VW55x_RELEASE_V1.0.2/MSDK/lwip/lwip-2.1.2/src/api\api_lib.c ****   API_MSG_VAR_REF(msg).msg.ad.local = local;
 281:C:/Users/stapi/OneDrive/Desktop/GD32VW553/GD32VW55X_Wifi_BLE_SDK/GD32VW55x_RELEASE_V1.0.2/MSDK/lwip/lwip-2.1.2/src/api\api_lib.c **** #if LWIP_MPU_COMPATIBLE
 282:C:/Users/stapi/OneDrive/Desktop/GD32VW553/GD32VW55X_Wifi_BLE_SDK/GD32VW55x_RELEASE_V1.0.2/MSDK/lwip/lwip-2.1.2/src/api\api_lib.c ****   err = netconn_apimsg(lwip_netconn_do_getaddr, &API_MSG_VAR_REF(msg));
 283:C:/Users/stapi/OneDrive/Desktop/GD32VW553/GD32VW55X_Wifi_BLE_SDK/GD32VW55x_RELEASE_V1.0.2/MSDK/lwip/lwip-2.1.2/src/api\api_lib.c ****   *addr = msg->msg.ad.ipaddr;
 284:C:/Users/stapi/OneDrive/Desktop/GD32VW553/GD32VW55X_Wifi_BLE_SDK/GD32VW55x_RELEASE_V1.0.2/MSDK/lwip/lwip-2.1.2/src/api\api_lib.c ****   *port = msg->msg.ad.port;
 285:C:/Users/stapi/OneDrive/Desktop/GD32VW553/GD32VW55X_Wifi_BLE_SDK/GD32VW55x_RELEASE_V1.0.2/MSDK/lwip/lwip-2.1.2/src/api\api_lib.c **** #else /* LWIP_MPU_COMPATIBLE */
 286:C:/Users/stapi/OneDrive/Desktop/GD32VW553/GD32VW55X_Wifi_BLE_SDK/GD32VW55x_RELEASE_V1.0.2/MSDK/lwip/lwip-2.1.2/src/api\api_lib.c ****   msg.msg.ad.ipaddr = addr;
 287:C:/Users/stapi/OneDrive/Desktop/GD32VW553/GD32VW55X_Wifi_BLE_SDK/GD32VW55x_RELEASE_V1.0.2/MSDK/lwip/lwip-2.1.2/src/api\api_lib.c ****   msg.msg.ad.port = port;
 288:C:/Users/stapi/OneDrive/Desktop/GD32VW553/GD32VW55X_Wifi_BLE_SDK/GD32VW55x_RELEASE_V1.0.2/MSDK/lwip/lwip-2.1.2/src/api\api_lib.c ****   err = netconn_apimsg(lwip_netconn_do_getaddr, &msg);
 289:C:/Users/stapi/OneDrive/Desktop/GD32VW553/GD32VW55X_Wifi_BLE_SDK/GD32VW55x_RELEASE_V1.0.2/MSDK/lwip/lwip-2.1.2/src/api\api_lib.c **** #endif /* LWIP_MPU_COMPATIBLE */
 290:C:/Users/stapi/OneDrive/Desktop/GD32VW553/GD32VW55X_Wifi_BLE_SDK/GD32VW55x_RELEASE_V1.0.2/MSDK/lwip/lwip-2.1.2/src/api\api_lib.c ****   API_MSG_VAR_FREE(msg);
 291:C:/Users/stapi/OneDrive/Desktop/GD32VW553/GD32VW55X_Wifi_BLE_SDK/GD32VW55x_RELEASE_V1.0.2/MSDK/lwip/lwip-2.1.2/src/api\api_lib.c **** 
 292:C:/Users/stapi/OneDrive/Desktop/GD32VW553/GD32VW55X_Wifi_BLE_SDK/GD32VW55x_RELEASE_V1.0.2/MSDK/lwip/lwip-2.1.2/src/api\api_lib.c ****   return err;
 293:C:/Users/stapi/OneDrive/Desktop/GD32VW553/GD32VW55X_Wifi_BLE_SDK/GD32VW55x_RELEASE_V1.0.2/MSDK/lwip/lwip-2.1.2/src/api\api_lib.c **** }
 294:C:/Users/stapi/OneDrive/Desktop/GD32VW553/GD32VW55X_Wifi_BLE_SDK/GD32VW55x_RELEASE_V1.0.2/MSDK/lwip/lwip-2.1.2/src/api\api_lib.c **** 
 295:C:/Users/stapi/OneDrive/Desktop/GD32VW553/GD32VW55X_Wifi_BLE_SDK/GD32VW55x_RELEASE_V1.0.2/MSDK/lwip/lwip-2.1.2/src/api\api_lib.c **** /**
 296:C:/Users/stapi/OneDrive/Desktop/GD32VW553/GD32VW55X_Wifi_BLE_SDK/GD32VW55x_RELEASE_V1.0.2/MSDK/lwip/lwip-2.1.2/src/api\api_lib.c ****  * @ingroup netconn_common
 297:C:/Users/stapi/OneDrive/Desktop/GD32VW553/GD32VW55X_Wifi_BLE_SDK/GD32VW55x_RELEASE_V1.0.2/MSDK/lwip/lwip-2.1.2/src/api\api_lib.c ****  * Bind a netconn to a specific local IP address and port.
 298:C:/Users/stapi/OneDrive/Desktop/GD32VW553/GD32VW55X_Wifi_BLE_SDK/GD32VW55x_RELEASE_V1.0.2/MSDK/lwip/lwip-2.1.2/src/api\api_lib.c ****  * Binding one netconn twice might not always be checked correctly!
 299:C:/Users/stapi/OneDrive/Desktop/GD32VW553/GD32VW55X_Wifi_BLE_SDK/GD32VW55x_RELEASE_V1.0.2/MSDK/lwip/lwip-2.1.2/src/api\api_lib.c ****  *
 300:C:/Users/stapi/OneDrive/Desktop/GD32VW553/GD32VW55X_Wifi_BLE_SDK/GD32VW55x_RELEASE_V1.0.2/MSDK/lwip/lwip-2.1.2/src/api\api_lib.c ****  * @param conn the netconn to bind
 301:C:/Users/stapi/OneDrive/Desktop/GD32VW553/GD32VW55X_Wifi_BLE_SDK/GD32VW55x_RELEASE_V1.0.2/MSDK/lwip/lwip-2.1.2/src/api\api_lib.c ****  * @param addr the local IP address to bind the netconn to
 302:C:/Users/stapi/OneDrive/Desktop/GD32VW553/GD32VW55X_Wifi_BLE_SDK/GD32VW55x_RELEASE_V1.0.2/MSDK/lwip/lwip-2.1.2/src/api\api_lib.c ****  *             (use IP4_ADDR_ANY/IP6_ADDR_ANY to bind to all addresses)
 303:C:/Users/stapi/OneDrive/Desktop/GD32VW553/GD32VW55X_Wifi_BLE_SDK/GD32VW55x_RELEASE_V1.0.2/MSDK/lwip/lwip-2.1.2/src/api\api_lib.c ****  * @param port the local port to bind the netconn to (not used for RAW)
 304:C:/Users/stapi/OneDrive/Desktop/GD32VW553/GD32VW55X_Wifi_BLE_SDK/GD32VW55x_RELEASE_V1.0.2/MSDK/lwip/lwip-2.1.2/src/api\api_lib.c ****  * @return ERR_OK if bound, any other err_t on failure
 305:C:/Users/stapi/OneDrive/Desktop/GD32VW553/GD32VW55X_Wifi_BLE_SDK/GD32VW55x_RELEASE_V1.0.2/MSDK/lwip/lwip-2.1.2/src/api\api_lib.c ****  */
 306:C:/Users/stapi/OneDrive/Desktop/GD32VW553/GD32VW55X_Wifi_BLE_SDK/GD32VW55x_RELEASE_V1.0.2/MSDK/lwip/lwip-2.1.2/src/api\api_lib.c **** err_t
 307:C:/Users/stapi/OneDrive/Desktop/GD32VW553/GD32VW55X_Wifi_BLE_SDK/GD32VW55x_RELEASE_V1.0.2/MSDK/lwip/lwip-2.1.2/src/api\api_lib.c **** netconn_bind(struct netconn *conn, const ip_addr_t *addr, u16_t port)
 308:C:/Users/stapi/OneDrive/Desktop/GD32VW553/GD32VW55X_Wifi_BLE_SDK/GD32VW55x_RELEASE_V1.0.2/MSDK/lwip/lwip-2.1.2/src/api\api_lib.c **** {
 309:C:/Users/stapi/OneDrive/Desktop/GD32VW553/GD32VW55X_Wifi_BLE_SDK/GD32VW55x_RELEASE_V1.0.2/MSDK/lwip/lwip-2.1.2/src/api\api_lib.c ****   API_MSG_VAR_DECLARE(msg);
 310:C:/Users/stapi/OneDrive/Desktop/GD32VW553/GD32VW55X_Wifi_BLE_SDK/GD32VW55x_RELEASE_V1.0.2/MSDK/lwip/lwip-2.1.2/src/api\api_lib.c ****   err_t err;
 311:C:/Users/stapi/OneDrive/Desktop/GD32VW553/GD32VW55X_Wifi_BLE_SDK/GD32VW55x_RELEASE_V1.0.2/MSDK/lwip/lwip-2.1.2/src/api\api_lib.c **** 
 312:C:/Users/stapi/OneDrive/Desktop/GD32VW553/GD32VW55X_Wifi_BLE_SDK/GD32VW55x_RELEASE_V1.0.2/MSDK/lwip/lwip-2.1.2/src/api\api_lib.c ****   LWIP_ERROR("netconn_bind: invalid conn", (conn != NULL), return ERR_ARG;);
 313:C:/Users/stapi/OneDrive/Desktop/GD32VW553/GD32VW55X_Wifi_BLE_SDK/GD32VW55x_RELEASE_V1.0.2/MSDK/lwip/lwip-2.1.2/src/api\api_lib.c **** 
 314:C:/Users/stapi/OneDrive/Desktop/GD32VW553/GD32VW55X_Wifi_BLE_SDK/GD32VW55x_RELEASE_V1.0.2/MSDK/lwip/lwip-2.1.2/src/api\api_lib.c **** #if LWIP_IPV4
 315:C:/Users/stapi/OneDrive/Desktop/GD32VW553/GD32VW55X_Wifi_BLE_SDK/GD32VW55x_RELEASE_V1.0.2/MSDK/lwip/lwip-2.1.2/src/api\api_lib.c ****   /* Don't propagate NULL pointer (IP_ADDR_ANY alias) to subsequent functions */
 316:C:/Users/stapi/OneDrive/Desktop/GD32VW553/GD32VW55X_Wifi_BLE_SDK/GD32VW55x_RELEASE_V1.0.2/MSDK/lwip/lwip-2.1.2/src/api\api_lib.c ****   if (addr == NULL) {
 317:C:/Users/stapi/OneDrive/Desktop/GD32VW553/GD32VW55X_Wifi_BLE_SDK/GD32VW55x_RELEASE_V1.0.2/MSDK/lwip/lwip-2.1.2/src/api\api_lib.c ****     addr = IP4_ADDR_ANY;
 318:C:/Users/stapi/OneDrive/Desktop/GD32VW553/GD32VW55X_Wifi_BLE_SDK/GD32VW55x_RELEASE_V1.0.2/MSDK/lwip/lwip-2.1.2/src/api\api_lib.c ****   }
 319:C:/Users/stapi/OneDrive/Desktop/GD32VW553/GD32VW55X_Wifi_BLE_SDK/GD32VW55x_RELEASE_V1.0.2/MSDK/lwip/lwip-2.1.2/src/api\api_lib.c **** #endif /* LWIP_IPV4 */
 320:C:/Users/stapi/OneDrive/Desktop/GD32VW553/GD32VW55X_Wifi_BLE_SDK/GD32VW55x_RELEASE_V1.0.2/MSDK/lwip/lwip-2.1.2/src/api\api_lib.c **** 
 321:C:/Users/stapi/OneDrive/Desktop/GD32VW553/GD32VW55X_Wifi_BLE_SDK/GD32VW55x_RELEASE_V1.0.2/MSDK/lwip/lwip-2.1.2/src/api\api_lib.c **** #if LWIP_IPV4 && LWIP_IPV6
 322:C:/Users/stapi/OneDrive/Desktop/GD32VW553/GD32VW55X_Wifi_BLE_SDK/GD32VW55x_RELEASE_V1.0.2/MSDK/lwip/lwip-2.1.2/src/api\api_lib.c ****   /* "Socket API like" dual-stack support: If IP to bind to is IP6_ADDR_ANY,
 323:C:/Users/stapi/OneDrive/Desktop/GD32VW553/GD32VW55X_Wifi_BLE_SDK/GD32VW55x_RELEASE_V1.0.2/MSDK/lwip/lwip-2.1.2/src/api\api_lib.c ****    * and NETCONN_FLAG_IPV6_V6ONLY is 0, use IP_ANY_TYPE to bind
 324:C:/Users/stapi/OneDrive/Desktop/GD32VW553/GD32VW55X_Wifi_BLE_SDK/GD32VW55x_RELEASE_V1.0.2/MSDK/lwip/lwip-2.1.2/src/api\api_lib.c ****    */
 325:C:/Users/stapi/OneDrive/Desktop/GD32VW553/GD32VW55X_Wifi_BLE_SDK/GD32VW55x_RELEASE_V1.0.2/MSDK/lwip/lwip-2.1.2/src/api\api_lib.c ****   if ((netconn_get_ipv6only(conn) == 0) &&
 326:C:/Users/stapi/OneDrive/Desktop/GD32VW553/GD32VW55X_Wifi_BLE_SDK/GD32VW55x_RELEASE_V1.0.2/MSDK/lwip/lwip-2.1.2/src/api\api_lib.c ****       ip_addr_cmp(addr, IP6_ADDR_ANY)) {
 327:C:/Users/stapi/OneDrive/Desktop/GD32VW553/GD32VW55X_Wifi_BLE_SDK/GD32VW55x_RELEASE_V1.0.2/MSDK/lwip/lwip-2.1.2/src/api\api_lib.c ****     addr = IP_ANY_TYPE;
 328:C:/Users/stapi/OneDrive/Desktop/GD32VW553/GD32VW55X_Wifi_BLE_SDK/GD32VW55x_RELEASE_V1.0.2/MSDK/lwip/lwip-2.1.2/src/api\api_lib.c ****   }
 329:C:/Users/stapi/OneDrive/Desktop/GD32VW553/GD32VW55X_Wifi_BLE_SDK/GD32VW55x_RELEASE_V1.0.2/MSDK/lwip/lwip-2.1.2/src/api\api_lib.c **** #endif /* LWIP_IPV4 && LWIP_IPV6 */
 330:C:/Users/stapi/OneDrive/Desktop/GD32VW553/GD32VW55X_Wifi_BLE_SDK/GD32VW55x_RELEASE_V1.0.2/MSDK/lwip/lwip-2.1.2/src/api\api_lib.c **** 
 331:C:/Users/stapi/OneDrive/Desktop/GD32VW553/GD32VW55X_Wifi_BLE_SDK/GD32VW55x_RELEASE_V1.0.2/MSDK/lwip/lwip-2.1.2/src/api\api_lib.c ****   API_MSG_VAR_ALLOC(msg);
 332:C:/Users/stapi/OneDrive/Desktop/GD32VW553/GD32VW55X_Wifi_BLE_SDK/GD32VW55x_RELEASE_V1.0.2/MSDK/lwip/lwip-2.1.2/src/api\api_lib.c ****   API_MSG_VAR_REF(msg).conn = conn;
 333:C:/Users/stapi/OneDrive/Desktop/GD32VW553/GD32VW55X_Wifi_BLE_SDK/GD32VW55x_RELEASE_V1.0.2/MSDK/lwip/lwip-2.1.2/src/api\api_lib.c ****   API_MSG_VAR_REF(msg).msg.bc.ipaddr = API_MSG_VAR_REF(addr);
 334:C:/Users/stapi/OneDrive/Desktop/GD32VW553/GD32VW55X_Wifi_BLE_SDK/GD32VW55x_RELEASE_V1.0.2/MSDK/lwip/lwip-2.1.2/src/api\api_lib.c ****   API_MSG_VAR_REF(msg).msg.bc.port = port;
 335:C:/Users/stapi/OneDrive/Desktop/GD32VW553/GD32VW55X_Wifi_BLE_SDK/GD32VW55x_RELEASE_V1.0.2/MSDK/lwip/lwip-2.1.2/src/api\api_lib.c ****   err = netconn_apimsg(lwip_netconn_do_bind, &API_MSG_VAR_REF(msg));
 336:C:/Users/stapi/OneDrive/Desktop/GD32VW553/GD32VW55X_Wifi_BLE_SDK/GD32VW55x_RELEASE_V1.0.2/MSDK/lwip/lwip-2.1.2/src/api\api_lib.c ****   API_MSG_VAR_FREE(msg);
 337:C:/Users/stapi/OneDrive/Desktop/GD32VW553/GD32VW55X_Wifi_BLE_SDK/GD32VW55x_RELEASE_V1.0.2/MSDK/lwip/lwip-2.1.2/src/api\api_lib.c **** 
 338:C:/Users/stapi/OneDrive/Desktop/GD32VW553/GD32VW55X_Wifi_BLE_SDK/GD32VW55x_RELEASE_V1.0.2/MSDK/lwip/lwip-2.1.2/src/api\api_lib.c ****   return err;
 339:C:/Users/stapi/OneDrive/Desktop/GD32VW553/GD32VW55X_Wifi_BLE_SDK/GD32VW55x_RELEASE_V1.0.2/MSDK/lwip/lwip-2.1.2/src/api\api_lib.c **** }
 340:C:/Users/stapi/OneDrive/Desktop/GD32VW553/GD32VW55X_Wifi_BLE_SDK/GD32VW55x_RELEASE_V1.0.2/MSDK/lwip/lwip-2.1.2/src/api\api_lib.c **** 
 341:C:/Users/stapi/OneDrive/Desktop/GD32VW553/GD32VW55X_Wifi_BLE_SDK/GD32VW55x_RELEASE_V1.0.2/MSDK/lwip/lwip-2.1.2/src/api\api_lib.c **** /**
 342:C:/Users/stapi/OneDrive/Desktop/GD32VW553/GD32VW55X_Wifi_BLE_SDK/GD32VW55x_RELEASE_V1.0.2/MSDK/lwip/lwip-2.1.2/src/api\api_lib.c ****  * @ingroup netconn_common
 343:C:/Users/stapi/OneDrive/Desktop/GD32VW553/GD32VW55X_Wifi_BLE_SDK/GD32VW55x_RELEASE_V1.0.2/MSDK/lwip/lwip-2.1.2/src/api\api_lib.c ****  * Bind a netconn to a specific interface and port.
 344:C:/Users/stapi/OneDrive/Desktop/GD32VW553/GD32VW55X_Wifi_BLE_SDK/GD32VW55x_RELEASE_V1.0.2/MSDK/lwip/lwip-2.1.2/src/api\api_lib.c ****  * Binding one netconn twice might not always be checked correctly!
 345:C:/Users/stapi/OneDrive/Desktop/GD32VW553/GD32VW55X_Wifi_BLE_SDK/GD32VW55x_RELEASE_V1.0.2/MSDK/lwip/lwip-2.1.2/src/api\api_lib.c ****  *
 346:C:/Users/stapi/OneDrive/Desktop/GD32VW553/GD32VW55X_Wifi_BLE_SDK/GD32VW55x_RELEASE_V1.0.2/MSDK/lwip/lwip-2.1.2/src/api\api_lib.c ****  * @param conn the netconn to bind
 347:C:/Users/stapi/OneDrive/Desktop/GD32VW553/GD32VW55X_Wifi_BLE_SDK/GD32VW55x_RELEASE_V1.0.2/MSDK/lwip/lwip-2.1.2/src/api\api_lib.c ****  * @param if_idx the local interface index to bind the netconn to
 348:C:/Users/stapi/OneDrive/Desktop/GD32VW553/GD32VW55X_Wifi_BLE_SDK/GD32VW55x_RELEASE_V1.0.2/MSDK/lwip/lwip-2.1.2/src/api\api_lib.c ****  * @return ERR_OK if bound, any other err_t on failure
 349:C:/Users/stapi/OneDrive/Desktop/GD32VW553/GD32VW55X_Wifi_BLE_SDK/GD32VW55x_RELEASE_V1.0.2/MSDK/lwip/lwip-2.1.2/src/api\api_lib.c ****  */
 350:C:/Users/stapi/OneDrive/Desktop/GD32VW553/GD32VW55X_Wifi_BLE_SDK/GD32VW55x_RELEASE_V1.0.2/MSDK/lwip/lwip-2.1.2/src/api\api_lib.c **** err_t
 351:C:/Users/stapi/OneDrive/Desktop/GD32VW553/GD32VW55X_Wifi_BLE_SDK/GD32VW55x_RELEASE_V1.0.2/MSDK/lwip/lwip-2.1.2/src/api\api_lib.c **** netconn_bind_if(struct netconn *conn, u8_t if_idx)
 352:C:/Users/stapi/OneDrive/Desktop/GD32VW553/GD32VW55X_Wifi_BLE_SDK/GD32VW55x_RELEASE_V1.0.2/MSDK/lwip/lwip-2.1.2/src/api\api_lib.c **** {
 353:C:/Users/stapi/OneDrive/Desktop/GD32VW553/GD32VW55X_Wifi_BLE_SDK/GD32VW55x_RELEASE_V1.0.2/MSDK/lwip/lwip-2.1.2/src/api\api_lib.c ****   API_MSG_VAR_DECLARE(msg);
 354:C:/Users/stapi/OneDrive/Desktop/GD32VW553/GD32VW55X_Wifi_BLE_SDK/GD32VW55x_RELEASE_V1.0.2/MSDK/lwip/lwip-2.1.2/src/api\api_lib.c ****   err_t err;
 355:C:/Users/stapi/OneDrive/Desktop/GD32VW553/GD32VW55X_Wifi_BLE_SDK/GD32VW55x_RELEASE_V1.0.2/MSDK/lwip/lwip-2.1.2/src/api\api_lib.c **** 
 356:C:/Users/stapi/OneDrive/Desktop/GD32VW553/GD32VW55X_Wifi_BLE_SDK/GD32VW55x_RELEASE_V1.0.2/MSDK/lwip/lwip-2.1.2/src/api\api_lib.c ****   LWIP_ERROR("netconn_bind_if: invalid conn", (conn != NULL), return ERR_ARG;);
 357:C:/Users/stapi/OneDrive/Desktop/GD32VW553/GD32VW55X_Wifi_BLE_SDK/GD32VW55x_RELEASE_V1.0.2/MSDK/lwip/lwip-2.1.2/src/api\api_lib.c **** 
 358:C:/Users/stapi/OneDrive/Desktop/GD32VW553/GD32VW55X_Wifi_BLE_SDK/GD32VW55x_RELEASE_V1.0.2/MSDK/lwip/lwip-2.1.2/src/api\api_lib.c ****   API_MSG_VAR_ALLOC(msg);
 359:C:/Users/stapi/OneDrive/Desktop/GD32VW553/GD32VW55X_Wifi_BLE_SDK/GD32VW55x_RELEASE_V1.0.2/MSDK/lwip/lwip-2.1.2/src/api\api_lib.c ****   API_MSG_VAR_REF(msg).conn = conn;
 360:C:/Users/stapi/OneDrive/Desktop/GD32VW553/GD32VW55X_Wifi_BLE_SDK/GD32VW55x_RELEASE_V1.0.2/MSDK/lwip/lwip-2.1.2/src/api\api_lib.c ****   API_MSG_VAR_REF(msg).msg.bc.if_idx = if_idx;
 361:C:/Users/stapi/OneDrive/Desktop/GD32VW553/GD32VW55X_Wifi_BLE_SDK/GD32VW55x_RELEASE_V1.0.2/MSDK/lwip/lwip-2.1.2/src/api\api_lib.c ****   err = netconn_apimsg(lwip_netconn_do_bind_if, &API_MSG_VAR_REF(msg));
 362:C:/Users/stapi/OneDrive/Desktop/GD32VW553/GD32VW55X_Wifi_BLE_SDK/GD32VW55x_RELEASE_V1.0.2/MSDK/lwip/lwip-2.1.2/src/api\api_lib.c ****   API_MSG_VAR_FREE(msg);
 363:C:/Users/stapi/OneDrive/Desktop/GD32VW553/GD32VW55X_Wifi_BLE_SDK/GD32VW55x_RELEASE_V1.0.2/MSDK/lwip/lwip-2.1.2/src/api\api_lib.c **** 
 364:C:/Users/stapi/OneDrive/Desktop/GD32VW553/GD32VW55X_Wifi_BLE_SDK/GD32VW55x_RELEASE_V1.0.2/MSDK/lwip/lwip-2.1.2/src/api\api_lib.c ****   return err;
 365:C:/Users/stapi/OneDrive/Desktop/GD32VW553/GD32VW55X_Wifi_BLE_SDK/GD32VW55x_RELEASE_V1.0.2/MSDK/lwip/lwip-2.1.2/src/api\api_lib.c **** }
 366:C:/Users/stapi/OneDrive/Desktop/GD32VW553/GD32VW55X_Wifi_BLE_SDK/GD32VW55x_RELEASE_V1.0.2/MSDK/lwip/lwip-2.1.2/src/api\api_lib.c **** 
 367:C:/Users/stapi/OneDrive/Desktop/GD32VW553/GD32VW55X_Wifi_BLE_SDK/GD32VW55x_RELEASE_V1.0.2/MSDK/lwip/lwip-2.1.2/src/api\api_lib.c **** /**
 368:C:/Users/stapi/OneDrive/Desktop/GD32VW553/GD32VW55X_Wifi_BLE_SDK/GD32VW55x_RELEASE_V1.0.2/MSDK/lwip/lwip-2.1.2/src/api\api_lib.c ****  * @ingroup netconn_common
 369:C:/Users/stapi/OneDrive/Desktop/GD32VW553/GD32VW55X_Wifi_BLE_SDK/GD32VW55x_RELEASE_V1.0.2/MSDK/lwip/lwip-2.1.2/src/api\api_lib.c ****  * Connect a netconn to a specific remote IP address and port.
 370:C:/Users/stapi/OneDrive/Desktop/GD32VW553/GD32VW55X_Wifi_BLE_SDK/GD32VW55x_RELEASE_V1.0.2/MSDK/lwip/lwip-2.1.2/src/api\api_lib.c ****  *
 371:C:/Users/stapi/OneDrive/Desktop/GD32VW553/GD32VW55X_Wifi_BLE_SDK/GD32VW55x_RELEASE_V1.0.2/MSDK/lwip/lwip-2.1.2/src/api\api_lib.c ****  * @param conn the netconn to connect
 372:C:/Users/stapi/OneDrive/Desktop/GD32VW553/GD32VW55X_Wifi_BLE_SDK/GD32VW55x_RELEASE_V1.0.2/MSDK/lwip/lwip-2.1.2/src/api\api_lib.c ****  * @param addr the remote IP address to connect to
 373:C:/Users/stapi/OneDrive/Desktop/GD32VW553/GD32VW55X_Wifi_BLE_SDK/GD32VW55x_RELEASE_V1.0.2/MSDK/lwip/lwip-2.1.2/src/api\api_lib.c ****  * @param port the remote port to connect to (no used for RAW)
 374:C:/Users/stapi/OneDrive/Desktop/GD32VW553/GD32VW55X_Wifi_BLE_SDK/GD32VW55x_RELEASE_V1.0.2/MSDK/lwip/lwip-2.1.2/src/api\api_lib.c ****  * @return ERR_OK if connected, return value of tcp_/udp_/raw_connect otherwise
 375:C:/Users/stapi/OneDrive/Desktop/GD32VW553/GD32VW55X_Wifi_BLE_SDK/GD32VW55x_RELEASE_V1.0.2/MSDK/lwip/lwip-2.1.2/src/api\api_lib.c ****  */
 376:C:/Users/stapi/OneDrive/Desktop/GD32VW553/GD32VW55X_Wifi_BLE_SDK/GD32VW55x_RELEASE_V1.0.2/MSDK/lwip/lwip-2.1.2/src/api\api_lib.c **** err_t
 377:C:/Users/stapi/OneDrive/Desktop/GD32VW553/GD32VW55X_Wifi_BLE_SDK/GD32VW55x_RELEASE_V1.0.2/MSDK/lwip/lwip-2.1.2/src/api\api_lib.c **** netconn_connect(struct netconn *conn, const ip_addr_t *addr, u16_t port)
 378:C:/Users/stapi/OneDrive/Desktop/GD32VW553/GD32VW55X_Wifi_BLE_SDK/GD32VW55x_RELEASE_V1.0.2/MSDK/lwip/lwip-2.1.2/src/api\api_lib.c **** {
 379:C:/Users/stapi/OneDrive/Desktop/GD32VW553/GD32VW55X_Wifi_BLE_SDK/GD32VW55x_RELEASE_V1.0.2/MSDK/lwip/lwip-2.1.2/src/api\api_lib.c ****   API_MSG_VAR_DECLARE(msg);
 380:C:/Users/stapi/OneDrive/Desktop/GD32VW553/GD32VW55X_Wifi_BLE_SDK/GD32VW55x_RELEASE_V1.0.2/MSDK/lwip/lwip-2.1.2/src/api\api_lib.c ****   err_t err;
 381:C:/Users/stapi/OneDrive/Desktop/GD32VW553/GD32VW55X_Wifi_BLE_SDK/GD32VW55x_RELEASE_V1.0.2/MSDK/lwip/lwip-2.1.2/src/api\api_lib.c **** 
 382:C:/Users/stapi/OneDrive/Desktop/GD32VW553/GD32VW55X_Wifi_BLE_SDK/GD32VW55x_RELEASE_V1.0.2/MSDK/lwip/lwip-2.1.2/src/api\api_lib.c ****   LWIP_ERROR("netconn_connect: invalid conn", (conn != NULL), return ERR_ARG;);
 383:C:/Users/stapi/OneDrive/Desktop/GD32VW553/GD32VW55X_Wifi_BLE_SDK/GD32VW55x_RELEASE_V1.0.2/MSDK/lwip/lwip-2.1.2/src/api\api_lib.c **** 
 384:C:/Users/stapi/OneDrive/Desktop/GD32VW553/GD32VW55X_Wifi_BLE_SDK/GD32VW55x_RELEASE_V1.0.2/MSDK/lwip/lwip-2.1.2/src/api\api_lib.c **** #if LWIP_IPV4
 385:C:/Users/stapi/OneDrive/Desktop/GD32VW553/GD32VW55X_Wifi_BLE_SDK/GD32VW55x_RELEASE_V1.0.2/MSDK/lwip/lwip-2.1.2/src/api\api_lib.c ****   /* Don't propagate NULL pointer (IP_ADDR_ANY alias) to subsequent functions */
 386:C:/Users/stapi/OneDrive/Desktop/GD32VW553/GD32VW55X_Wifi_BLE_SDK/GD32VW55x_RELEASE_V1.0.2/MSDK/lwip/lwip-2.1.2/src/api\api_lib.c ****   if (addr == NULL) {
 387:C:/Users/stapi/OneDrive/Desktop/GD32VW553/GD32VW55X_Wifi_BLE_SDK/GD32VW55x_RELEASE_V1.0.2/MSDK/lwip/lwip-2.1.2/src/api\api_lib.c ****     addr = IP4_ADDR_ANY;
 388:C:/Users/stapi/OneDrive/Desktop/GD32VW553/GD32VW55X_Wifi_BLE_SDK/GD32VW55x_RELEASE_V1.0.2/MSDK/lwip/lwip-2.1.2/src/api\api_lib.c ****   }
 389:C:/Users/stapi/OneDrive/Desktop/GD32VW553/GD32VW55X_Wifi_BLE_SDK/GD32VW55x_RELEASE_V1.0.2/MSDK/lwip/lwip-2.1.2/src/api\api_lib.c **** #endif /* LWIP_IPV4 */
 390:C:/Users/stapi/OneDrive/Desktop/GD32VW553/GD32VW55X_Wifi_BLE_SDK/GD32VW55x_RELEASE_V1.0.2/MSDK/lwip/lwip-2.1.2/src/api\api_lib.c **** 
 391:C:/Users/stapi/OneDrive/Desktop/GD32VW553/GD32VW55X_Wifi_BLE_SDK/GD32VW55x_RELEASE_V1.0.2/MSDK/lwip/lwip-2.1.2/src/api\api_lib.c ****   API_MSG_VAR_ALLOC(msg);
 392:C:/Users/stapi/OneDrive/Desktop/GD32VW553/GD32VW55X_Wifi_BLE_SDK/GD32VW55x_RELEASE_V1.0.2/MSDK/lwip/lwip-2.1.2/src/api\api_lib.c ****   API_MSG_VAR_REF(msg).conn = conn;
 393:C:/Users/stapi/OneDrive/Desktop/GD32VW553/GD32VW55X_Wifi_BLE_SDK/GD32VW55x_RELEASE_V1.0.2/MSDK/lwip/lwip-2.1.2/src/api\api_lib.c ****   API_MSG_VAR_REF(msg).msg.bc.ipaddr = API_MSG_VAR_REF(addr);
 394:C:/Users/stapi/OneDrive/Desktop/GD32VW553/GD32VW55X_Wifi_BLE_SDK/GD32VW55x_RELEASE_V1.0.2/MSDK/lwip/lwip-2.1.2/src/api\api_lib.c ****   API_MSG_VAR_REF(msg).msg.bc.port = port;
 395:C:/Users/stapi/OneDrive/Desktop/GD32VW553/GD32VW55X_Wifi_BLE_SDK/GD32VW55x_RELEASE_V1.0.2/MSDK/lwip/lwip-2.1.2/src/api\api_lib.c ****   err = netconn_apimsg(lwip_netconn_do_connect, &API_MSG_VAR_REF(msg));
 396:C:/Users/stapi/OneDrive/Desktop/GD32VW553/GD32VW55X_Wifi_BLE_SDK/GD32VW55x_RELEASE_V1.0.2/MSDK/lwip/lwip-2.1.2/src/api\api_lib.c ****   API_MSG_VAR_FREE(msg);
 397:C:/Users/stapi/OneDrive/Desktop/GD32VW553/GD32VW55X_Wifi_BLE_SDK/GD32VW55x_RELEASE_V1.0.2/MSDK/lwip/lwip-2.1.2/src/api\api_lib.c **** 
 398:C:/Users/stapi/OneDrive/Desktop/GD32VW553/GD32VW55X_Wifi_BLE_SDK/GD32VW55x_RELEASE_V1.0.2/MSDK/lwip/lwip-2.1.2/src/api\api_lib.c ****   return err;
 399:C:/Users/stapi/OneDrive/Desktop/GD32VW553/GD32VW55X_Wifi_BLE_SDK/GD32VW55x_RELEASE_V1.0.2/MSDK/lwip/lwip-2.1.2/src/api\api_lib.c **** }
 400:C:/Users/stapi/OneDrive/Desktop/GD32VW553/GD32VW55X_Wifi_BLE_SDK/GD32VW55x_RELEASE_V1.0.2/MSDK/lwip/lwip-2.1.2/src/api\api_lib.c **** 
 401:C:/Users/stapi/OneDrive/Desktop/GD32VW553/GD32VW55X_Wifi_BLE_SDK/GD32VW55x_RELEASE_V1.0.2/MSDK/lwip/lwip-2.1.2/src/api\api_lib.c **** /**
 402:C:/Users/stapi/OneDrive/Desktop/GD32VW553/GD32VW55X_Wifi_BLE_SDK/GD32VW55x_RELEASE_V1.0.2/MSDK/lwip/lwip-2.1.2/src/api\api_lib.c ****  * @ingroup netconn_udp
 403:C:/Users/stapi/OneDrive/Desktop/GD32VW553/GD32VW55X_Wifi_BLE_SDK/GD32VW55x_RELEASE_V1.0.2/MSDK/lwip/lwip-2.1.2/src/api\api_lib.c ****  * Disconnect a netconn from its current peer (only valid for UDP netconns).
 404:C:/Users/stapi/OneDrive/Desktop/GD32VW553/GD32VW55X_Wifi_BLE_SDK/GD32VW55x_RELEASE_V1.0.2/MSDK/lwip/lwip-2.1.2/src/api\api_lib.c ****  *
 405:C:/Users/stapi/OneDrive/Desktop/GD32VW553/GD32VW55X_Wifi_BLE_SDK/GD32VW55x_RELEASE_V1.0.2/MSDK/lwip/lwip-2.1.2/src/api\api_lib.c ****  * @param conn the netconn to disconnect
 406:C:/Users/stapi/OneDrive/Desktop/GD32VW553/GD32VW55X_Wifi_BLE_SDK/GD32VW55x_RELEASE_V1.0.2/MSDK/lwip/lwip-2.1.2/src/api\api_lib.c ****  * @return See @ref err_t
 407:C:/Users/stapi/OneDrive/Desktop/GD32VW553/GD32VW55X_Wifi_BLE_SDK/GD32VW55x_RELEASE_V1.0.2/MSDK/lwip/lwip-2.1.2/src/api\api_lib.c ****  */
 408:C:/Users/stapi/OneDrive/Desktop/GD32VW553/GD32VW55X_Wifi_BLE_SDK/GD32VW55x_RELEASE_V1.0.2/MSDK/lwip/lwip-2.1.2/src/api\api_lib.c **** err_t
 409:C:/Users/stapi/OneDrive/Desktop/GD32VW553/GD32VW55X_Wifi_BLE_SDK/GD32VW55x_RELEASE_V1.0.2/MSDK/lwip/lwip-2.1.2/src/api\api_lib.c **** netconn_disconnect(struct netconn *conn)
 410:C:/Users/stapi/OneDrive/Desktop/GD32VW553/GD32VW55X_Wifi_BLE_SDK/GD32VW55x_RELEASE_V1.0.2/MSDK/lwip/lwip-2.1.2/src/api\api_lib.c **** {
 411:C:/Users/stapi/OneDrive/Desktop/GD32VW553/GD32VW55X_Wifi_BLE_SDK/GD32VW55x_RELEASE_V1.0.2/MSDK/lwip/lwip-2.1.2/src/api\api_lib.c ****   API_MSG_VAR_DECLARE(msg);
 412:C:/Users/stapi/OneDrive/Desktop/GD32VW553/GD32VW55X_Wifi_BLE_SDK/GD32VW55x_RELEASE_V1.0.2/MSDK/lwip/lwip-2.1.2/src/api\api_lib.c ****   err_t err;
 413:C:/Users/stapi/OneDrive/Desktop/GD32VW553/GD32VW55X_Wifi_BLE_SDK/GD32VW55x_RELEASE_V1.0.2/MSDK/lwip/lwip-2.1.2/src/api\api_lib.c **** 
 414:C:/Users/stapi/OneDrive/Desktop/GD32VW553/GD32VW55X_Wifi_BLE_SDK/GD32VW55x_RELEASE_V1.0.2/MSDK/lwip/lwip-2.1.2/src/api\api_lib.c ****   LWIP_ERROR("netconn_disconnect: invalid conn", (conn != NULL), return ERR_ARG;);
 415:C:/Users/stapi/OneDrive/Desktop/GD32VW553/GD32VW55X_Wifi_BLE_SDK/GD32VW55x_RELEASE_V1.0.2/MSDK/lwip/lwip-2.1.2/src/api\api_lib.c **** 
 416:C:/Users/stapi/OneDrive/Desktop/GD32VW553/GD32VW55X_Wifi_BLE_SDK/GD32VW55x_RELEASE_V1.0.2/MSDK/lwip/lwip-2.1.2/src/api\api_lib.c ****   API_MSG_VAR_ALLOC(msg);
 417:C:/Users/stapi/OneDrive/Desktop/GD32VW553/GD32VW55X_Wifi_BLE_SDK/GD32VW55x_RELEASE_V1.0.2/MSDK/lwip/lwip-2.1.2/src/api\api_lib.c ****   API_MSG_VAR_REF(msg).conn = conn;
 418:C:/Users/stapi/OneDrive/Desktop/GD32VW553/GD32VW55X_Wifi_BLE_SDK/GD32VW55x_RELEASE_V1.0.2/MSDK/lwip/lwip-2.1.2/src/api\api_lib.c ****   err = netconn_apimsg(lwip_netconn_do_disconnect, &API_MSG_VAR_REF(msg));
 419:C:/Users/stapi/OneDrive/Desktop/GD32VW553/GD32VW55X_Wifi_BLE_SDK/GD32VW55x_RELEASE_V1.0.2/MSDK/lwip/lwip-2.1.2/src/api\api_lib.c ****   API_MSG_VAR_FREE(msg);
 420:C:/Users/stapi/OneDrive/Desktop/GD32VW553/GD32VW55X_Wifi_BLE_SDK/GD32VW55x_RELEASE_V1.0.2/MSDK/lwip/lwip-2.1.2/src/api\api_lib.c **** 
 421:C:/Users/stapi/OneDrive/Desktop/GD32VW553/GD32VW55X_Wifi_BLE_SDK/GD32VW55x_RELEASE_V1.0.2/MSDK/lwip/lwip-2.1.2/src/api\api_lib.c ****   return err;
 422:C:/Users/stapi/OneDrive/Desktop/GD32VW553/GD32VW55X_Wifi_BLE_SDK/GD32VW55x_RELEASE_V1.0.2/MSDK/lwip/lwip-2.1.2/src/api\api_lib.c **** }
 423:C:/Users/stapi/OneDrive/Desktop/GD32VW553/GD32VW55X_Wifi_BLE_SDK/GD32VW55x_RELEASE_V1.0.2/MSDK/lwip/lwip-2.1.2/src/api\api_lib.c **** 
 424:C:/Users/stapi/OneDrive/Desktop/GD32VW553/GD32VW55X_Wifi_BLE_SDK/GD32VW55x_RELEASE_V1.0.2/MSDK/lwip/lwip-2.1.2/src/api\api_lib.c **** /**
 425:C:/Users/stapi/OneDrive/Desktop/GD32VW553/GD32VW55X_Wifi_BLE_SDK/GD32VW55x_RELEASE_V1.0.2/MSDK/lwip/lwip-2.1.2/src/api\api_lib.c ****  * @ingroup netconn_tcp
 426:C:/Users/stapi/OneDrive/Desktop/GD32VW553/GD32VW55X_Wifi_BLE_SDK/GD32VW55x_RELEASE_V1.0.2/MSDK/lwip/lwip-2.1.2/src/api\api_lib.c ****  * Set a TCP netconn into listen mode
 427:C:/Users/stapi/OneDrive/Desktop/GD32VW553/GD32VW55X_Wifi_BLE_SDK/GD32VW55x_RELEASE_V1.0.2/MSDK/lwip/lwip-2.1.2/src/api\api_lib.c ****  *
 428:C:/Users/stapi/OneDrive/Desktop/GD32VW553/GD32VW55X_Wifi_BLE_SDK/GD32VW55x_RELEASE_V1.0.2/MSDK/lwip/lwip-2.1.2/src/api\api_lib.c ****  * @param conn the tcp netconn to set to listen mode
 429:C:/Users/stapi/OneDrive/Desktop/GD32VW553/GD32VW55X_Wifi_BLE_SDK/GD32VW55x_RELEASE_V1.0.2/MSDK/lwip/lwip-2.1.2/src/api\api_lib.c ****  * @param backlog the listen backlog, only used if TCP_LISTEN_BACKLOG==1
 430:C:/Users/stapi/OneDrive/Desktop/GD32VW553/GD32VW55X_Wifi_BLE_SDK/GD32VW55x_RELEASE_V1.0.2/MSDK/lwip/lwip-2.1.2/src/api\api_lib.c ****  * @return ERR_OK if the netconn was set to listen (UDP and RAW netconns
 431:C:/Users/stapi/OneDrive/Desktop/GD32VW553/GD32VW55X_Wifi_BLE_SDK/GD32VW55x_RELEASE_V1.0.2/MSDK/lwip/lwip-2.1.2/src/api\api_lib.c ****  *         don't return any error (yet?))
 432:C:/Users/stapi/OneDrive/Desktop/GD32VW553/GD32VW55X_Wifi_BLE_SDK/GD32VW55x_RELEASE_V1.0.2/MSDK/lwip/lwip-2.1.2/src/api\api_lib.c ****  */
 433:C:/Users/stapi/OneDrive/Desktop/GD32VW553/GD32VW55X_Wifi_BLE_SDK/GD32VW55x_RELEASE_V1.0.2/MSDK/lwip/lwip-2.1.2/src/api\api_lib.c **** err_t
 434:C:/Users/stapi/OneDrive/Desktop/GD32VW553/GD32VW55X_Wifi_BLE_SDK/GD32VW55x_RELEASE_V1.0.2/MSDK/lwip/lwip-2.1.2/src/api\api_lib.c **** netconn_listen_with_backlog(struct netconn *conn, u8_t backlog)
 435:C:/Users/stapi/OneDrive/Desktop/GD32VW553/GD32VW55X_Wifi_BLE_SDK/GD32VW55x_RELEASE_V1.0.2/MSDK/lwip/lwip-2.1.2/src/api\api_lib.c **** {
 436:C:/Users/stapi/OneDrive/Desktop/GD32VW553/GD32VW55X_Wifi_BLE_SDK/GD32VW55x_RELEASE_V1.0.2/MSDK/lwip/lwip-2.1.2/src/api\api_lib.c **** #if LWIP_TCP
 437:C:/Users/stapi/OneDrive/Desktop/GD32VW553/GD32VW55X_Wifi_BLE_SDK/GD32VW55x_RELEASE_V1.0.2/MSDK/lwip/lwip-2.1.2/src/api\api_lib.c ****   API_MSG_VAR_DECLARE(msg);
 438:C:/Users/stapi/OneDrive/Desktop/GD32VW553/GD32VW55X_Wifi_BLE_SDK/GD32VW55x_RELEASE_V1.0.2/MSDK/lwip/lwip-2.1.2/src/api\api_lib.c ****   err_t err;
 439:C:/Users/stapi/OneDrive/Desktop/GD32VW553/GD32VW55X_Wifi_BLE_SDK/GD32VW55x_RELEASE_V1.0.2/MSDK/lwip/lwip-2.1.2/src/api\api_lib.c **** 
 440:C:/Users/stapi/OneDrive/Desktop/GD32VW553/GD32VW55X_Wifi_BLE_SDK/GD32VW55x_RELEASE_V1.0.2/MSDK/lwip/lwip-2.1.2/src/api\api_lib.c ****   /* This does no harm. If TCP_LISTEN_BACKLOG is off, backlog is unused. */
 441:C:/Users/stapi/OneDrive/Desktop/GD32VW553/GD32VW55X_Wifi_BLE_SDK/GD32VW55x_RELEASE_V1.0.2/MSDK/lwip/lwip-2.1.2/src/api\api_lib.c ****   LWIP_UNUSED_ARG(backlog);
 442:C:/Users/stapi/OneDrive/Desktop/GD32VW553/GD32VW55X_Wifi_BLE_SDK/GD32VW55x_RELEASE_V1.0.2/MSDK/lwip/lwip-2.1.2/src/api\api_lib.c **** 
 443:C:/Users/stapi/OneDrive/Desktop/GD32VW553/GD32VW55X_Wifi_BLE_SDK/GD32VW55x_RELEASE_V1.0.2/MSDK/lwip/lwip-2.1.2/src/api\api_lib.c ****   LWIP_ERROR("netconn_listen: invalid conn", (conn != NULL), return ERR_ARG;);
 444:C:/Users/stapi/OneDrive/Desktop/GD32VW553/GD32VW55X_Wifi_BLE_SDK/GD32VW55x_RELEASE_V1.0.2/MSDK/lwip/lwip-2.1.2/src/api\api_lib.c **** 
 445:C:/Users/stapi/OneDrive/Desktop/GD32VW553/GD32VW55X_Wifi_BLE_SDK/GD32VW55x_RELEASE_V1.0.2/MSDK/lwip/lwip-2.1.2/src/api\api_lib.c ****   API_MSG_VAR_ALLOC(msg);
 446:C:/Users/stapi/OneDrive/Desktop/GD32VW553/GD32VW55X_Wifi_BLE_SDK/GD32VW55x_RELEASE_V1.0.2/MSDK/lwip/lwip-2.1.2/src/api\api_lib.c ****   API_MSG_VAR_REF(msg).conn = conn;
 447:C:/Users/stapi/OneDrive/Desktop/GD32VW553/GD32VW55X_Wifi_BLE_SDK/GD32VW55x_RELEASE_V1.0.2/MSDK/lwip/lwip-2.1.2/src/api\api_lib.c **** #if TCP_LISTEN_BACKLOG
 448:C:/Users/stapi/OneDrive/Desktop/GD32VW553/GD32VW55X_Wifi_BLE_SDK/GD32VW55x_RELEASE_V1.0.2/MSDK/lwip/lwip-2.1.2/src/api\api_lib.c ****   API_MSG_VAR_REF(msg).msg.lb.backlog = backlog;
 449:C:/Users/stapi/OneDrive/Desktop/GD32VW553/GD32VW55X_Wifi_BLE_SDK/GD32VW55x_RELEASE_V1.0.2/MSDK/lwip/lwip-2.1.2/src/api\api_lib.c **** #endif /* TCP_LISTEN_BACKLOG */
 450:C:/Users/stapi/OneDrive/Desktop/GD32VW553/GD32VW55X_Wifi_BLE_SDK/GD32VW55x_RELEASE_V1.0.2/MSDK/lwip/lwip-2.1.2/src/api\api_lib.c ****   err = netconn_apimsg(lwip_netconn_do_listen, &API_MSG_VAR_REF(msg));
 451:C:/Users/stapi/OneDrive/Desktop/GD32VW553/GD32VW55X_Wifi_BLE_SDK/GD32VW55x_RELEASE_V1.0.2/MSDK/lwip/lwip-2.1.2/src/api\api_lib.c ****   API_MSG_VAR_FREE(msg);
 452:C:/Users/stapi/OneDrive/Desktop/GD32VW553/GD32VW55X_Wifi_BLE_SDK/GD32VW55x_RELEASE_V1.0.2/MSDK/lwip/lwip-2.1.2/src/api\api_lib.c **** 
 453:C:/Users/stapi/OneDrive/Desktop/GD32VW553/GD32VW55X_Wifi_BLE_SDK/GD32VW55x_RELEASE_V1.0.2/MSDK/lwip/lwip-2.1.2/src/api\api_lib.c ****   return err;
 454:C:/Users/stapi/OneDrive/Desktop/GD32VW553/GD32VW55X_Wifi_BLE_SDK/GD32VW55x_RELEASE_V1.0.2/MSDK/lwip/lwip-2.1.2/src/api\api_lib.c **** #else /* LWIP_TCP */
 455:C:/Users/stapi/OneDrive/Desktop/GD32VW553/GD32VW55X_Wifi_BLE_SDK/GD32VW55x_RELEASE_V1.0.2/MSDK/lwip/lwip-2.1.2/src/api\api_lib.c ****   LWIP_UNUSED_ARG(conn);
 456:C:/Users/stapi/OneDrive/Desktop/GD32VW553/GD32VW55X_Wifi_BLE_SDK/GD32VW55x_RELEASE_V1.0.2/MSDK/lwip/lwip-2.1.2/src/api\api_lib.c ****   LWIP_UNUSED_ARG(backlog);
 457:C:/Users/stapi/OneDrive/Desktop/GD32VW553/GD32VW55X_Wifi_BLE_SDK/GD32VW55x_RELEASE_V1.0.2/MSDK/lwip/lwip-2.1.2/src/api\api_lib.c ****   return ERR_ARG;
 458:C:/Users/stapi/OneDrive/Desktop/GD32VW553/GD32VW55X_Wifi_BLE_SDK/GD32VW55x_RELEASE_V1.0.2/MSDK/lwip/lwip-2.1.2/src/api\api_lib.c **** #endif /* LWIP_TCP */
 459:C:/Users/stapi/OneDrive/Desktop/GD32VW553/GD32VW55X_Wifi_BLE_SDK/GD32VW55x_RELEASE_V1.0.2/MSDK/lwip/lwip-2.1.2/src/api\api_lib.c **** }
 460:C:/Users/stapi/OneDrive/Desktop/GD32VW553/GD32VW55X_Wifi_BLE_SDK/GD32VW55x_RELEASE_V1.0.2/MSDK/lwip/lwip-2.1.2/src/api\api_lib.c **** 
 461:C:/Users/stapi/OneDrive/Desktop/GD32VW553/GD32VW55X_Wifi_BLE_SDK/GD32VW55x_RELEASE_V1.0.2/MSDK/lwip/lwip-2.1.2/src/api\api_lib.c **** /**
 462:C:/Users/stapi/OneDrive/Desktop/GD32VW553/GD32VW55X_Wifi_BLE_SDK/GD32VW55x_RELEASE_V1.0.2/MSDK/lwip/lwip-2.1.2/src/api\api_lib.c ****  * @ingroup netconn_tcp
 463:C:/Users/stapi/OneDrive/Desktop/GD32VW553/GD32VW55X_Wifi_BLE_SDK/GD32VW55x_RELEASE_V1.0.2/MSDK/lwip/lwip-2.1.2/src/api\api_lib.c ****  * Accept a new connection on a TCP listening netconn.
 464:C:/Users/stapi/OneDrive/Desktop/GD32VW553/GD32VW55X_Wifi_BLE_SDK/GD32VW55x_RELEASE_V1.0.2/MSDK/lwip/lwip-2.1.2/src/api\api_lib.c ****  *
 465:C:/Users/stapi/OneDrive/Desktop/GD32VW553/GD32VW55X_Wifi_BLE_SDK/GD32VW55x_RELEASE_V1.0.2/MSDK/lwip/lwip-2.1.2/src/api\api_lib.c ****  * @param conn the TCP listen netconn
 466:C:/Users/stapi/OneDrive/Desktop/GD32VW553/GD32VW55X_Wifi_BLE_SDK/GD32VW55x_RELEASE_V1.0.2/MSDK/lwip/lwip-2.1.2/src/api\api_lib.c ****  * @param new_conn pointer where the new connection is stored
 467:C:/Users/stapi/OneDrive/Desktop/GD32VW553/GD32VW55X_Wifi_BLE_SDK/GD32VW55x_RELEASE_V1.0.2/MSDK/lwip/lwip-2.1.2/src/api\api_lib.c ****  * @return ERR_OK if a new connection has been received or an error
 468:C:/Users/stapi/OneDrive/Desktop/GD32VW553/GD32VW55X_Wifi_BLE_SDK/GD32VW55x_RELEASE_V1.0.2/MSDK/lwip/lwip-2.1.2/src/api\api_lib.c ****  *                code otherwise
 469:C:/Users/stapi/OneDrive/Desktop/GD32VW553/GD32VW55X_Wifi_BLE_SDK/GD32VW55x_RELEASE_V1.0.2/MSDK/lwip/lwip-2.1.2/src/api\api_lib.c ****  */
 470:C:/Users/stapi/OneDrive/Desktop/GD32VW553/GD32VW55X_Wifi_BLE_SDK/GD32VW55x_RELEASE_V1.0.2/MSDK/lwip/lwip-2.1.2/src/api\api_lib.c **** err_t
 471:C:/Users/stapi/OneDrive/Desktop/GD32VW553/GD32VW55X_Wifi_BLE_SDK/GD32VW55x_RELEASE_V1.0.2/MSDK/lwip/lwip-2.1.2/src/api\api_lib.c **** netconn_accept(struct netconn *conn, struct netconn **new_conn)
 472:C:/Users/stapi/OneDrive/Desktop/GD32VW553/GD32VW55X_Wifi_BLE_SDK/GD32VW55x_RELEASE_V1.0.2/MSDK/lwip/lwip-2.1.2/src/api\api_lib.c **** {
 473:C:/Users/stapi/OneDrive/Desktop/GD32VW553/GD32VW55X_Wifi_BLE_SDK/GD32VW55x_RELEASE_V1.0.2/MSDK/lwip/lwip-2.1.2/src/api\api_lib.c **** #if LWIP_TCP
 474:C:/Users/stapi/OneDrive/Desktop/GD32VW553/GD32VW55X_Wifi_BLE_SDK/GD32VW55x_RELEASE_V1.0.2/MSDK/lwip/lwip-2.1.2/src/api\api_lib.c ****   err_t err;
 475:C:/Users/stapi/OneDrive/Desktop/GD32VW553/GD32VW55X_Wifi_BLE_SDK/GD32VW55x_RELEASE_V1.0.2/MSDK/lwip/lwip-2.1.2/src/api\api_lib.c ****   void *accept_ptr;
 476:C:/Users/stapi/OneDrive/Desktop/GD32VW553/GD32VW55X_Wifi_BLE_SDK/GD32VW55x_RELEASE_V1.0.2/MSDK/lwip/lwip-2.1.2/src/api\api_lib.c ****   struct netconn *newconn;
 477:C:/Users/stapi/OneDrive/Desktop/GD32VW553/GD32VW55X_Wifi_BLE_SDK/GD32VW55x_RELEASE_V1.0.2/MSDK/lwip/lwip-2.1.2/src/api\api_lib.c **** #if TCP_LISTEN_BACKLOG
 478:C:/Users/stapi/OneDrive/Desktop/GD32VW553/GD32VW55X_Wifi_BLE_SDK/GD32VW55x_RELEASE_V1.0.2/MSDK/lwip/lwip-2.1.2/src/api\api_lib.c ****   API_MSG_VAR_DECLARE(msg);
 479:C:/Users/stapi/OneDrive/Desktop/GD32VW553/GD32VW55X_Wifi_BLE_SDK/GD32VW55x_RELEASE_V1.0.2/MSDK/lwip/lwip-2.1.2/src/api\api_lib.c **** #endif /* TCP_LISTEN_BACKLOG */
 480:C:/Users/stapi/OneDrive/Desktop/GD32VW553/GD32VW55X_Wifi_BLE_SDK/GD32VW55x_RELEASE_V1.0.2/MSDK/lwip/lwip-2.1.2/src/api\api_lib.c **** 
 481:C:/Users/stapi/OneDrive/Desktop/GD32VW553/GD32VW55X_Wifi_BLE_SDK/GD32VW55x_RELEASE_V1.0.2/MSDK/lwip/lwip-2.1.2/src/api\api_lib.c ****   LWIP_ERROR("netconn_accept: invalid pointer",    (new_conn != NULL),                  return ERR_
 482:C:/Users/stapi/OneDrive/Desktop/GD32VW553/GD32VW55X_Wifi_BLE_SDK/GD32VW55x_RELEASE_V1.0.2/MSDK/lwip/lwip-2.1.2/src/api\api_lib.c ****   *new_conn = NULL;
 483:C:/Users/stapi/OneDrive/Desktop/GD32VW553/GD32VW55X_Wifi_BLE_SDK/GD32VW55x_RELEASE_V1.0.2/MSDK/lwip/lwip-2.1.2/src/api\api_lib.c ****   LWIP_ERROR("netconn_accept: invalid conn",       (conn != NULL),                      return ERR_
 484:C:/Users/stapi/OneDrive/Desktop/GD32VW553/GD32VW55X_Wifi_BLE_SDK/GD32VW55x_RELEASE_V1.0.2/MSDK/lwip/lwip-2.1.2/src/api\api_lib.c **** 
 485:C:/Users/stapi/OneDrive/Desktop/GD32VW553/GD32VW55X_Wifi_BLE_SDK/GD32VW55x_RELEASE_V1.0.2/MSDK/lwip/lwip-2.1.2/src/api\api_lib.c ****   /* NOTE: Although the opengroup spec says a pending error shall be returned to
 486:C:/Users/stapi/OneDrive/Desktop/GD32VW553/GD32VW55X_Wifi_BLE_SDK/GD32VW55x_RELEASE_V1.0.2/MSDK/lwip/lwip-2.1.2/src/api\api_lib.c ****            send/recv/getsockopt(SO_ERROR) only, we return it for listening
 487:C:/Users/stapi/OneDrive/Desktop/GD32VW553/GD32VW55X_Wifi_BLE_SDK/GD32VW55x_RELEASE_V1.0.2/MSDK/lwip/lwip-2.1.2/src/api\api_lib.c ****            connections also, to handle embedded-system errors */
 488:C:/Users/stapi/OneDrive/Desktop/GD32VW553/GD32VW55X_Wifi_BLE_SDK/GD32VW55x_RELEASE_V1.0.2/MSDK/lwip/lwip-2.1.2/src/api\api_lib.c ****   err = netconn_err(conn);
 489:C:/Users/stapi/OneDrive/Desktop/GD32VW553/GD32VW55X_Wifi_BLE_SDK/GD32VW55x_RELEASE_V1.0.2/MSDK/lwip/lwip-2.1.2/src/api\api_lib.c ****   if (err != ERR_OK) {
 490:C:/Users/stapi/OneDrive/Desktop/GD32VW553/GD32VW55X_Wifi_BLE_SDK/GD32VW55x_RELEASE_V1.0.2/MSDK/lwip/lwip-2.1.2/src/api\api_lib.c ****     /* return pending error */
 491:C:/Users/stapi/OneDrive/Desktop/GD32VW553/GD32VW55X_Wifi_BLE_SDK/GD32VW55x_RELEASE_V1.0.2/MSDK/lwip/lwip-2.1.2/src/api\api_lib.c ****     return err;
 492:C:/Users/stapi/OneDrive/Desktop/GD32VW553/GD32VW55X_Wifi_BLE_SDK/GD32VW55x_RELEASE_V1.0.2/MSDK/lwip/lwip-2.1.2/src/api\api_lib.c ****   }
 493:C:/Users/stapi/OneDrive/Desktop/GD32VW553/GD32VW55X_Wifi_BLE_SDK/GD32VW55x_RELEASE_V1.0.2/MSDK/lwip/lwip-2.1.2/src/api\api_lib.c ****   if (!NETCONN_ACCEPTMBOX_WAITABLE(conn)) {
 494:C:/Users/stapi/OneDrive/Desktop/GD32VW553/GD32VW55X_Wifi_BLE_SDK/GD32VW55x_RELEASE_V1.0.2/MSDK/lwip/lwip-2.1.2/src/api\api_lib.c ****     /* don't accept if closed: this might block the application task
 495:C:/Users/stapi/OneDrive/Desktop/GD32VW553/GD32VW55X_Wifi_BLE_SDK/GD32VW55x_RELEASE_V1.0.2/MSDK/lwip/lwip-2.1.2/src/api\api_lib.c ****        waiting on acceptmbox forever! */
 496:C:/Users/stapi/OneDrive/Desktop/GD32VW553/GD32VW55X_Wifi_BLE_SDK/GD32VW55x_RELEASE_V1.0.2/MSDK/lwip/lwip-2.1.2/src/api\api_lib.c ****     return ERR_CLSD;
 497:C:/Users/stapi/OneDrive/Desktop/GD32VW553/GD32VW55X_Wifi_BLE_SDK/GD32VW55x_RELEASE_V1.0.2/MSDK/lwip/lwip-2.1.2/src/api\api_lib.c ****   }
 498:C:/Users/stapi/OneDrive/Desktop/GD32VW553/GD32VW55X_Wifi_BLE_SDK/GD32VW55x_RELEASE_V1.0.2/MSDK/lwip/lwip-2.1.2/src/api\api_lib.c **** 
 499:C:/Users/stapi/OneDrive/Desktop/GD32VW553/GD32VW55X_Wifi_BLE_SDK/GD32VW55x_RELEASE_V1.0.2/MSDK/lwip/lwip-2.1.2/src/api\api_lib.c ****   API_MSG_VAR_ALLOC_ACCEPT(msg);
 500:C:/Users/stapi/OneDrive/Desktop/GD32VW553/GD32VW55X_Wifi_BLE_SDK/GD32VW55x_RELEASE_V1.0.2/MSDK/lwip/lwip-2.1.2/src/api\api_lib.c **** 
 501:C:/Users/stapi/OneDrive/Desktop/GD32VW553/GD32VW55X_Wifi_BLE_SDK/GD32VW55x_RELEASE_V1.0.2/MSDK/lwip/lwip-2.1.2/src/api\api_lib.c ****   NETCONN_MBOX_WAITING_INC(conn);
 502:C:/Users/stapi/OneDrive/Desktop/GD32VW553/GD32VW55X_Wifi_BLE_SDK/GD32VW55x_RELEASE_V1.0.2/MSDK/lwip/lwip-2.1.2/src/api\api_lib.c ****   if (netconn_is_nonblocking(conn)) {
 503:C:/Users/stapi/OneDrive/Desktop/GD32VW553/GD32VW55X_Wifi_BLE_SDK/GD32VW55x_RELEASE_V1.0.2/MSDK/lwip/lwip-2.1.2/src/api\api_lib.c ****     if (sys_arch_mbox_tryfetch(&conn->acceptmbox, &accept_ptr) == SYS_ARCH_TIMEOUT) {
 504:C:/Users/stapi/OneDrive/Desktop/GD32VW553/GD32VW55X_Wifi_BLE_SDK/GD32VW55x_RELEASE_V1.0.2/MSDK/lwip/lwip-2.1.2/src/api\api_lib.c ****       API_MSG_VAR_FREE_ACCEPT(msg);
 505:C:/Users/stapi/OneDrive/Desktop/GD32VW553/GD32VW55X_Wifi_BLE_SDK/GD32VW55x_RELEASE_V1.0.2/MSDK/lwip/lwip-2.1.2/src/api\api_lib.c ****       NETCONN_MBOX_WAITING_DEC(conn);
 506:C:/Users/stapi/OneDrive/Desktop/GD32VW553/GD32VW55X_Wifi_BLE_SDK/GD32VW55x_RELEASE_V1.0.2/MSDK/lwip/lwip-2.1.2/src/api\api_lib.c ****       return ERR_WOULDBLOCK;
 507:C:/Users/stapi/OneDrive/Desktop/GD32VW553/GD32VW55X_Wifi_BLE_SDK/GD32VW55x_RELEASE_V1.0.2/MSDK/lwip/lwip-2.1.2/src/api\api_lib.c ****     }
 508:C:/Users/stapi/OneDrive/Desktop/GD32VW553/GD32VW55X_Wifi_BLE_SDK/GD32VW55x_RELEASE_V1.0.2/MSDK/lwip/lwip-2.1.2/src/api\api_lib.c ****   } else {
 509:C:/Users/stapi/OneDrive/Desktop/GD32VW553/GD32VW55X_Wifi_BLE_SDK/GD32VW55x_RELEASE_V1.0.2/MSDK/lwip/lwip-2.1.2/src/api\api_lib.c **** #if LWIP_SO_RCVTIMEO
 510:C:/Users/stapi/OneDrive/Desktop/GD32VW553/GD32VW55X_Wifi_BLE_SDK/GD32VW55x_RELEASE_V1.0.2/MSDK/lwip/lwip-2.1.2/src/api\api_lib.c ****     if (sys_arch_mbox_fetch(&conn->acceptmbox, &accept_ptr, conn->recv_timeout) == SYS_ARCH_TIMEOUT
 511:C:/Users/stapi/OneDrive/Desktop/GD32VW553/GD32VW55X_Wifi_BLE_SDK/GD32VW55x_RELEASE_V1.0.2/MSDK/lwip/lwip-2.1.2/src/api\api_lib.c ****       API_MSG_VAR_FREE_ACCEPT(msg);
 512:C:/Users/stapi/OneDrive/Desktop/GD32VW553/GD32VW55X_Wifi_BLE_SDK/GD32VW55x_RELEASE_V1.0.2/MSDK/lwip/lwip-2.1.2/src/api\api_lib.c ****       NETCONN_MBOX_WAITING_DEC(conn);
 513:C:/Users/stapi/OneDrive/Desktop/GD32VW553/GD32VW55X_Wifi_BLE_SDK/GD32VW55x_RELEASE_V1.0.2/MSDK/lwip/lwip-2.1.2/src/api\api_lib.c ****       return ERR_TIMEOUT;
 514:C:/Users/stapi/OneDrive/Desktop/GD32VW553/GD32VW55X_Wifi_BLE_SDK/GD32VW55x_RELEASE_V1.0.2/MSDK/lwip/lwip-2.1.2/src/api\api_lib.c ****     }
 515:C:/Users/stapi/OneDrive/Desktop/GD32VW553/GD32VW55X_Wifi_BLE_SDK/GD32VW55x_RELEASE_V1.0.2/MSDK/lwip/lwip-2.1.2/src/api\api_lib.c **** #else
 516:C:/Users/stapi/OneDrive/Desktop/GD32VW553/GD32VW55X_Wifi_BLE_SDK/GD32VW55x_RELEASE_V1.0.2/MSDK/lwip/lwip-2.1.2/src/api\api_lib.c ****     sys_arch_mbox_fetch(&conn->acceptmbox, &accept_ptr, 0);
 517:C:/Users/stapi/OneDrive/Desktop/GD32VW553/GD32VW55X_Wifi_BLE_SDK/GD32VW55x_RELEASE_V1.0.2/MSDK/lwip/lwip-2.1.2/src/api\api_lib.c **** #endif /* LWIP_SO_RCVTIMEO*/
 518:C:/Users/stapi/OneDrive/Desktop/GD32VW553/GD32VW55X_Wifi_BLE_SDK/GD32VW55x_RELEASE_V1.0.2/MSDK/lwip/lwip-2.1.2/src/api\api_lib.c ****   }
 519:C:/Users/stapi/OneDrive/Desktop/GD32VW553/GD32VW55X_Wifi_BLE_SDK/GD32VW55x_RELEASE_V1.0.2/MSDK/lwip/lwip-2.1.2/src/api\api_lib.c ****   NETCONN_MBOX_WAITING_DEC(conn);
 520:C:/Users/stapi/OneDrive/Desktop/GD32VW553/GD32VW55X_Wifi_BLE_SDK/GD32VW55x_RELEASE_V1.0.2/MSDK/lwip/lwip-2.1.2/src/api\api_lib.c **** #if LWIP_NETCONN_FULLDUPLEX
 521:C:/Users/stapi/OneDrive/Desktop/GD32VW553/GD32VW55X_Wifi_BLE_SDK/GD32VW55x_RELEASE_V1.0.2/MSDK/lwip/lwip-2.1.2/src/api\api_lib.c ****   if (conn->flags & NETCONN_FLAG_MBOXINVALID) {
 522:C:/Users/stapi/OneDrive/Desktop/GD32VW553/GD32VW55X_Wifi_BLE_SDK/GD32VW55x_RELEASE_V1.0.2/MSDK/lwip/lwip-2.1.2/src/api\api_lib.c ****     if (lwip_netconn_is_deallocated_msg(accept_ptr)) {
 523:C:/Users/stapi/OneDrive/Desktop/GD32VW553/GD32VW55X_Wifi_BLE_SDK/GD32VW55x_RELEASE_V1.0.2/MSDK/lwip/lwip-2.1.2/src/api\api_lib.c ****       /* the netconn has been closed from another thread */
 524:C:/Users/stapi/OneDrive/Desktop/GD32VW553/GD32VW55X_Wifi_BLE_SDK/GD32VW55x_RELEASE_V1.0.2/MSDK/lwip/lwip-2.1.2/src/api\api_lib.c ****       API_MSG_VAR_FREE_ACCEPT(msg);
 525:C:/Users/stapi/OneDrive/Desktop/GD32VW553/GD32VW55X_Wifi_BLE_SDK/GD32VW55x_RELEASE_V1.0.2/MSDK/lwip/lwip-2.1.2/src/api\api_lib.c ****       return ERR_CONN;
 526:C:/Users/stapi/OneDrive/Desktop/GD32VW553/GD32VW55X_Wifi_BLE_SDK/GD32VW55x_RELEASE_V1.0.2/MSDK/lwip/lwip-2.1.2/src/api\api_lib.c ****     }
 527:C:/Users/stapi/OneDrive/Desktop/GD32VW553/GD32VW55X_Wifi_BLE_SDK/GD32VW55x_RELEASE_V1.0.2/MSDK/lwip/lwip-2.1.2/src/api\api_lib.c ****   }
 528:C:/Users/stapi/OneDrive/Desktop/GD32VW553/GD32VW55X_Wifi_BLE_SDK/GD32VW55x_RELEASE_V1.0.2/MSDK/lwip/lwip-2.1.2/src/api\api_lib.c **** #endif
 529:C:/Users/stapi/OneDrive/Desktop/GD32VW553/GD32VW55X_Wifi_BLE_SDK/GD32VW55x_RELEASE_V1.0.2/MSDK/lwip/lwip-2.1.2/src/api\api_lib.c **** 
 530:C:/Users/stapi/OneDrive/Desktop/GD32VW553/GD32VW55X_Wifi_BLE_SDK/GD32VW55x_RELEASE_V1.0.2/MSDK/lwip/lwip-2.1.2/src/api\api_lib.c ****   /* Register event with callback */
 531:C:/Users/stapi/OneDrive/Desktop/GD32VW553/GD32VW55X_Wifi_BLE_SDK/GD32VW55x_RELEASE_V1.0.2/MSDK/lwip/lwip-2.1.2/src/api\api_lib.c ****   API_EVENT(conn, NETCONN_EVT_RCVMINUS, 0);
 532:C:/Users/stapi/OneDrive/Desktop/GD32VW553/GD32VW55X_Wifi_BLE_SDK/GD32VW55x_RELEASE_V1.0.2/MSDK/lwip/lwip-2.1.2/src/api\api_lib.c **** 
 533:C:/Users/stapi/OneDrive/Desktop/GD32VW553/GD32VW55X_Wifi_BLE_SDK/GD32VW55x_RELEASE_V1.0.2/MSDK/lwip/lwip-2.1.2/src/api\api_lib.c ****   if (lwip_netconn_is_err_msg(accept_ptr, &err)) {
 534:C:/Users/stapi/OneDrive/Desktop/GD32VW553/GD32VW55X_Wifi_BLE_SDK/GD32VW55x_RELEASE_V1.0.2/MSDK/lwip/lwip-2.1.2/src/api\api_lib.c ****     /* a connection has been aborted: e.g. out of pcbs or out of netconns during accept */
 535:C:/Users/stapi/OneDrive/Desktop/GD32VW553/GD32VW55X_Wifi_BLE_SDK/GD32VW55x_RELEASE_V1.0.2/MSDK/lwip/lwip-2.1.2/src/api\api_lib.c ****     API_MSG_VAR_FREE_ACCEPT(msg);
 536:C:/Users/stapi/OneDrive/Desktop/GD32VW553/GD32VW55X_Wifi_BLE_SDK/GD32VW55x_RELEASE_V1.0.2/MSDK/lwip/lwip-2.1.2/src/api\api_lib.c ****     return err;
 537:C:/Users/stapi/OneDrive/Desktop/GD32VW553/GD32VW55X_Wifi_BLE_SDK/GD32VW55x_RELEASE_V1.0.2/MSDK/lwip/lwip-2.1.2/src/api\api_lib.c ****   }
 538:C:/Users/stapi/OneDrive/Desktop/GD32VW553/GD32VW55X_Wifi_BLE_SDK/GD32VW55x_RELEASE_V1.0.2/MSDK/lwip/lwip-2.1.2/src/api\api_lib.c ****   if (accept_ptr == NULL) {
 539:C:/Users/stapi/OneDrive/Desktop/GD32VW553/GD32VW55X_Wifi_BLE_SDK/GD32VW55x_RELEASE_V1.0.2/MSDK/lwip/lwip-2.1.2/src/api\api_lib.c ****     /* connection has been aborted */
 540:C:/Users/stapi/OneDrive/Desktop/GD32VW553/GD32VW55X_Wifi_BLE_SDK/GD32VW55x_RELEASE_V1.0.2/MSDK/lwip/lwip-2.1.2/src/api\api_lib.c ****     API_MSG_VAR_FREE_ACCEPT(msg);
 541:C:/Users/stapi/OneDrive/Desktop/GD32VW553/GD32VW55X_Wifi_BLE_SDK/GD32VW55x_RELEASE_V1.0.2/MSDK/lwip/lwip-2.1.2/src/api\api_lib.c ****     return ERR_CLSD;
 542:C:/Users/stapi/OneDrive/Desktop/GD32VW553/GD32VW55X_Wifi_BLE_SDK/GD32VW55x_RELEASE_V1.0.2/MSDK/lwip/lwip-2.1.2/src/api\api_lib.c ****   }
 543:C:/Users/stapi/OneDrive/Desktop/GD32VW553/GD32VW55X_Wifi_BLE_SDK/GD32VW55x_RELEASE_V1.0.2/MSDK/lwip/lwip-2.1.2/src/api\api_lib.c ****   newconn = (struct netconn *)accept_ptr;
 544:C:/Users/stapi/OneDrive/Desktop/GD32VW553/GD32VW55X_Wifi_BLE_SDK/GD32VW55x_RELEASE_V1.0.2/MSDK/lwip/lwip-2.1.2/src/api\api_lib.c **** #if TCP_LISTEN_BACKLOG
 545:C:/Users/stapi/OneDrive/Desktop/GD32VW553/GD32VW55X_Wifi_BLE_SDK/GD32VW55x_RELEASE_V1.0.2/MSDK/lwip/lwip-2.1.2/src/api\api_lib.c ****   /* Let the stack know that we have accepted the connection. */
 546:C:/Users/stapi/OneDrive/Desktop/GD32VW553/GD32VW55X_Wifi_BLE_SDK/GD32VW55x_RELEASE_V1.0.2/MSDK/lwip/lwip-2.1.2/src/api\api_lib.c ****   API_MSG_VAR_REF(msg).conn = newconn;
 547:C:/Users/stapi/OneDrive/Desktop/GD32VW553/GD32VW55X_Wifi_BLE_SDK/GD32VW55x_RELEASE_V1.0.2/MSDK/lwip/lwip-2.1.2/src/api\api_lib.c ****   /* don't care for the return value of lwip_netconn_do_recv */
 548:C:/Users/stapi/OneDrive/Desktop/GD32VW553/GD32VW55X_Wifi_BLE_SDK/GD32VW55x_RELEASE_V1.0.2/MSDK/lwip/lwip-2.1.2/src/api\api_lib.c ****   netconn_apimsg(lwip_netconn_do_accepted, &API_MSG_VAR_REF(msg));
 549:C:/Users/stapi/OneDrive/Desktop/GD32VW553/GD32VW55X_Wifi_BLE_SDK/GD32VW55x_RELEASE_V1.0.2/MSDK/lwip/lwip-2.1.2/src/api\api_lib.c ****   API_MSG_VAR_FREE(msg);
 550:C:/Users/stapi/OneDrive/Desktop/GD32VW553/GD32VW55X_Wifi_BLE_SDK/GD32VW55x_RELEASE_V1.0.2/MSDK/lwip/lwip-2.1.2/src/api\api_lib.c **** #endif /* TCP_LISTEN_BACKLOG */
 551:C:/Users/stapi/OneDrive/Desktop/GD32VW553/GD32VW55X_Wifi_BLE_SDK/GD32VW55x_RELEASE_V1.0.2/MSDK/lwip/lwip-2.1.2/src/api\api_lib.c **** 
 552:C:/Users/stapi/OneDrive/Desktop/GD32VW553/GD32VW55X_Wifi_BLE_SDK/GD32VW55x_RELEASE_V1.0.2/MSDK/lwip/lwip-2.1.2/src/api\api_lib.c ****   *new_conn = newconn;
 553:C:/Users/stapi/OneDrive/Desktop/GD32VW553/GD32VW55X_Wifi_BLE_SDK/GD32VW55x_RELEASE_V1.0.2/MSDK/lwip/lwip-2.1.2/src/api\api_lib.c ****   /* don't set conn->last_err: it's only ERR_OK, anyway */
 554:C:/Users/stapi/OneDrive/Desktop/GD32VW553/GD32VW55X_Wifi_BLE_SDK/GD32VW55x_RELEASE_V1.0.2/MSDK/lwip/lwip-2.1.2/src/api\api_lib.c ****   return ERR_OK;
 555:C:/Users/stapi/OneDrive/Desktop/GD32VW553/GD32VW55X_Wifi_BLE_SDK/GD32VW55x_RELEASE_V1.0.2/MSDK/lwip/lwip-2.1.2/src/api\api_lib.c **** #else /* LWIP_TCP */
 556:C:/Users/stapi/OneDrive/Desktop/GD32VW553/GD32VW55X_Wifi_BLE_SDK/GD32VW55x_RELEASE_V1.0.2/MSDK/lwip/lwip-2.1.2/src/api\api_lib.c ****   LWIP_UNUSED_ARG(conn);
 557:C:/Users/stapi/OneDrive/Desktop/GD32VW553/GD32VW55X_Wifi_BLE_SDK/GD32VW55x_RELEASE_V1.0.2/MSDK/lwip/lwip-2.1.2/src/api\api_lib.c ****   LWIP_UNUSED_ARG(new_conn);
 558:C:/Users/stapi/OneDrive/Desktop/GD32VW553/GD32VW55X_Wifi_BLE_SDK/GD32VW55x_RELEASE_V1.0.2/MSDK/lwip/lwip-2.1.2/src/api\api_lib.c ****   return ERR_ARG;
 559:C:/Users/stapi/OneDrive/Desktop/GD32VW553/GD32VW55X_Wifi_BLE_SDK/GD32VW55x_RELEASE_V1.0.2/MSDK/lwip/lwip-2.1.2/src/api\api_lib.c **** #endif /* LWIP_TCP */
 560:C:/Users/stapi/OneDrive/Desktop/GD32VW553/GD32VW55X_Wifi_BLE_SDK/GD32VW55x_RELEASE_V1.0.2/MSDK/lwip/lwip-2.1.2/src/api\api_lib.c **** }
 561:C:/Users/stapi/OneDrive/Desktop/GD32VW553/GD32VW55X_Wifi_BLE_SDK/GD32VW55x_RELEASE_V1.0.2/MSDK/lwip/lwip-2.1.2/src/api\api_lib.c **** 
 562:C:/Users/stapi/OneDrive/Desktop/GD32VW553/GD32VW55X_Wifi_BLE_SDK/GD32VW55x_RELEASE_V1.0.2/MSDK/lwip/lwip-2.1.2/src/api\api_lib.c **** /**
 563:C:/Users/stapi/OneDrive/Desktop/GD32VW553/GD32VW55X_Wifi_BLE_SDK/GD32VW55x_RELEASE_V1.0.2/MSDK/lwip/lwip-2.1.2/src/api\api_lib.c ****  * @ingroup netconn_common
 564:C:/Users/stapi/OneDrive/Desktop/GD32VW553/GD32VW55X_Wifi_BLE_SDK/GD32VW55x_RELEASE_V1.0.2/MSDK/lwip/lwip-2.1.2/src/api\api_lib.c ****  * Receive data: actual implementation that doesn't care whether pbuf or netbuf
 565:C:/Users/stapi/OneDrive/Desktop/GD32VW553/GD32VW55X_Wifi_BLE_SDK/GD32VW55x_RELEASE_V1.0.2/MSDK/lwip/lwip-2.1.2/src/api\api_lib.c ****  * is received (this is internal, it's just here for describing common errors)
 566:C:/Users/stapi/OneDrive/Desktop/GD32VW553/GD32VW55X_Wifi_BLE_SDK/GD32VW55x_RELEASE_V1.0.2/MSDK/lwip/lwip-2.1.2/src/api\api_lib.c ****  *
 567:C:/Users/stapi/OneDrive/Desktop/GD32VW553/GD32VW55X_Wifi_BLE_SDK/GD32VW55x_RELEASE_V1.0.2/MSDK/lwip/lwip-2.1.2/src/api\api_lib.c ****  * @param conn the netconn from which to receive data
 568:C:/Users/stapi/OneDrive/Desktop/GD32VW553/GD32VW55X_Wifi_BLE_SDK/GD32VW55x_RELEASE_V1.0.2/MSDK/lwip/lwip-2.1.2/src/api\api_lib.c ****  * @param new_buf pointer where a new pbuf/netbuf is stored when received data
 569:C:/Users/stapi/OneDrive/Desktop/GD32VW553/GD32VW55X_Wifi_BLE_SDK/GD32VW55x_RELEASE_V1.0.2/MSDK/lwip/lwip-2.1.2/src/api\api_lib.c ****  * @param apiflags flags that control function behaviour. For now only:
 570:C:/Users/stapi/OneDrive/Desktop/GD32VW553/GD32VW55X_Wifi_BLE_SDK/GD32VW55x_RELEASE_V1.0.2/MSDK/lwip/lwip-2.1.2/src/api\api_lib.c ****  * - NETCONN_DONTBLOCK: only read data that is available now, don't wait for more data
 571:C:/Users/stapi/OneDrive/Desktop/GD32VW553/GD32VW55X_Wifi_BLE_SDK/GD32VW55x_RELEASE_V1.0.2/MSDK/lwip/lwip-2.1.2/src/api\api_lib.c ****  * @return ERR_OK if data has been received, an error code otherwise (timeout,
 572:C:/Users/stapi/OneDrive/Desktop/GD32VW553/GD32VW55X_Wifi_BLE_SDK/GD32VW55x_RELEASE_V1.0.2/MSDK/lwip/lwip-2.1.2/src/api\api_lib.c ****  *                memory error or another error)
 573:C:/Users/stapi/OneDrive/Desktop/GD32VW553/GD32VW55X_Wifi_BLE_SDK/GD32VW55x_RELEASE_V1.0.2/MSDK/lwip/lwip-2.1.2/src/api\api_lib.c ****  *         ERR_CONN if not connected
 574:C:/Users/stapi/OneDrive/Desktop/GD32VW553/GD32VW55X_Wifi_BLE_SDK/GD32VW55x_RELEASE_V1.0.2/MSDK/lwip/lwip-2.1.2/src/api\api_lib.c ****  *         ERR_CLSD if TCP connection has been closed
 575:C:/Users/stapi/OneDrive/Desktop/GD32VW553/GD32VW55X_Wifi_BLE_SDK/GD32VW55x_RELEASE_V1.0.2/MSDK/lwip/lwip-2.1.2/src/api\api_lib.c ****  *         ERR_WOULDBLOCK if the netconn is nonblocking but would block to wait for data
 576:C:/Users/stapi/OneDrive/Desktop/GD32VW553/GD32VW55X_Wifi_BLE_SDK/GD32VW55x_RELEASE_V1.0.2/MSDK/lwip/lwip-2.1.2/src/api\api_lib.c ****  *         ERR_TIMEOUT if the netconn has a receive timeout and no data was received
 577:C:/Users/stapi/OneDrive/Desktop/GD32VW553/GD32VW55X_Wifi_BLE_SDK/GD32VW55x_RELEASE_V1.0.2/MSDK/lwip/lwip-2.1.2/src/api\api_lib.c ****  */
 578:C:/Users/stapi/OneDrive/Desktop/GD32VW553/GD32VW55X_Wifi_BLE_SDK/GD32VW55x_RELEASE_V1.0.2/MSDK/lwip/lwip-2.1.2/src/api\api_lib.c **** static err_t
 579:C:/Users/stapi/OneDrive/Desktop/GD32VW553/GD32VW55X_Wifi_BLE_SDK/GD32VW55x_RELEASE_V1.0.2/MSDK/lwip/lwip-2.1.2/src/api\api_lib.c **** netconn_recv_data(struct netconn *conn, void **new_buf, u8_t apiflags)
 580:C:/Users/stapi/OneDrive/Desktop/GD32VW553/GD32VW55X_Wifi_BLE_SDK/GD32VW55x_RELEASE_V1.0.2/MSDK/lwip/lwip-2.1.2/src/api\api_lib.c **** {
 581:C:/Users/stapi/OneDrive/Desktop/GD32VW553/GD32VW55X_Wifi_BLE_SDK/GD32VW55x_RELEASE_V1.0.2/MSDK/lwip/lwip-2.1.2/src/api\api_lib.c ****   void *buf = NULL;
 582:C:/Users/stapi/OneDrive/Desktop/GD32VW553/GD32VW55X_Wifi_BLE_SDK/GD32VW55x_RELEASE_V1.0.2/MSDK/lwip/lwip-2.1.2/src/api\api_lib.c ****   u16_t len;
 583:C:/Users/stapi/OneDrive/Desktop/GD32VW553/GD32VW55X_Wifi_BLE_SDK/GD32VW55x_RELEASE_V1.0.2/MSDK/lwip/lwip-2.1.2/src/api\api_lib.c **** 
 584:C:/Users/stapi/OneDrive/Desktop/GD32VW553/GD32VW55X_Wifi_BLE_SDK/GD32VW55x_RELEASE_V1.0.2/MSDK/lwip/lwip-2.1.2/src/api\api_lib.c ****   LWIP_ERROR("netconn_recv: invalid pointer", (new_buf != NULL), return ERR_ARG;);
 585:C:/Users/stapi/OneDrive/Desktop/GD32VW553/GD32VW55X_Wifi_BLE_SDK/GD32VW55x_RELEASE_V1.0.2/MSDK/lwip/lwip-2.1.2/src/api\api_lib.c ****   *new_buf = NULL;
 586:C:/Users/stapi/OneDrive/Desktop/GD32VW553/GD32VW55X_Wifi_BLE_SDK/GD32VW55x_RELEASE_V1.0.2/MSDK/lwip/lwip-2.1.2/src/api\api_lib.c ****   LWIP_ERROR("netconn_recv: invalid conn",    (conn != NULL),    return ERR_ARG;);
 587:C:/Users/stapi/OneDrive/Desktop/GD32VW553/GD32VW55X_Wifi_BLE_SDK/GD32VW55x_RELEASE_V1.0.2/MSDK/lwip/lwip-2.1.2/src/api\api_lib.c **** 
 588:C:/Users/stapi/OneDrive/Desktop/GD32VW553/GD32VW55X_Wifi_BLE_SDK/GD32VW55x_RELEASE_V1.0.2/MSDK/lwip/lwip-2.1.2/src/api\api_lib.c ****   if (!NETCONN_RECVMBOX_WAITABLE(conn)) {
 589:C:/Users/stapi/OneDrive/Desktop/GD32VW553/GD32VW55X_Wifi_BLE_SDK/GD32VW55x_RELEASE_V1.0.2/MSDK/lwip/lwip-2.1.2/src/api\api_lib.c ****     err_t err = netconn_err(conn);
 590:C:/Users/stapi/OneDrive/Desktop/GD32VW553/GD32VW55X_Wifi_BLE_SDK/GD32VW55x_RELEASE_V1.0.2/MSDK/lwip/lwip-2.1.2/src/api\api_lib.c ****     if (err != ERR_OK) {
 591:C:/Users/stapi/OneDrive/Desktop/GD32VW553/GD32VW55X_Wifi_BLE_SDK/GD32VW55x_RELEASE_V1.0.2/MSDK/lwip/lwip-2.1.2/src/api\api_lib.c ****       /* return pending error */
 592:C:/Users/stapi/OneDrive/Desktop/GD32VW553/GD32VW55X_Wifi_BLE_SDK/GD32VW55x_RELEASE_V1.0.2/MSDK/lwip/lwip-2.1.2/src/api\api_lib.c ****       return err;
 593:C:/Users/stapi/OneDrive/Desktop/GD32VW553/GD32VW55X_Wifi_BLE_SDK/GD32VW55x_RELEASE_V1.0.2/MSDK/lwip/lwip-2.1.2/src/api\api_lib.c ****     }
 594:C:/Users/stapi/OneDrive/Desktop/GD32VW553/GD32VW55X_Wifi_BLE_SDK/GD32VW55x_RELEASE_V1.0.2/MSDK/lwip/lwip-2.1.2/src/api\api_lib.c ****     return ERR_CONN;
 595:C:/Users/stapi/OneDrive/Desktop/GD32VW553/GD32VW55X_Wifi_BLE_SDK/GD32VW55x_RELEASE_V1.0.2/MSDK/lwip/lwip-2.1.2/src/api\api_lib.c ****   }
 596:C:/Users/stapi/OneDrive/Desktop/GD32VW553/GD32VW55X_Wifi_BLE_SDK/GD32VW55x_RELEASE_V1.0.2/MSDK/lwip/lwip-2.1.2/src/api\api_lib.c **** 
 597:C:/Users/stapi/OneDrive/Desktop/GD32VW553/GD32VW55X_Wifi_BLE_SDK/GD32VW55x_RELEASE_V1.0.2/MSDK/lwip/lwip-2.1.2/src/api\api_lib.c ****   NETCONN_MBOX_WAITING_INC(conn);
 598:C:/Users/stapi/OneDrive/Desktop/GD32VW553/GD32VW55X_Wifi_BLE_SDK/GD32VW55x_RELEASE_V1.0.2/MSDK/lwip/lwip-2.1.2/src/api\api_lib.c ****   if (netconn_is_nonblocking(conn) || (apiflags & NETCONN_DONTBLOCK) ||
 599:C:/Users/stapi/OneDrive/Desktop/GD32VW553/GD32VW55X_Wifi_BLE_SDK/GD32VW55x_RELEASE_V1.0.2/MSDK/lwip/lwip-2.1.2/src/api\api_lib.c ****       (conn->flags & NETCONN_FLAG_MBOXCLOSED) || (conn->pending_err != ERR_OK)) {
 600:C:/Users/stapi/OneDrive/Desktop/GD32VW553/GD32VW55X_Wifi_BLE_SDK/GD32VW55x_RELEASE_V1.0.2/MSDK/lwip/lwip-2.1.2/src/api\api_lib.c ****     if (sys_arch_mbox_tryfetch(&conn->recvmbox, &buf) == SYS_ARCH_TIMEOUT) {
 601:C:/Users/stapi/OneDrive/Desktop/GD32VW553/GD32VW55X_Wifi_BLE_SDK/GD32VW55x_RELEASE_V1.0.2/MSDK/lwip/lwip-2.1.2/src/api\api_lib.c ****       err_t err;
 602:C:/Users/stapi/OneDrive/Desktop/GD32VW553/GD32VW55X_Wifi_BLE_SDK/GD32VW55x_RELEASE_V1.0.2/MSDK/lwip/lwip-2.1.2/src/api\api_lib.c ****       NETCONN_MBOX_WAITING_DEC(conn);
 603:C:/Users/stapi/OneDrive/Desktop/GD32VW553/GD32VW55X_Wifi_BLE_SDK/GD32VW55x_RELEASE_V1.0.2/MSDK/lwip/lwip-2.1.2/src/api\api_lib.c ****       err = netconn_err(conn);
 604:C:/Users/stapi/OneDrive/Desktop/GD32VW553/GD32VW55X_Wifi_BLE_SDK/GD32VW55x_RELEASE_V1.0.2/MSDK/lwip/lwip-2.1.2/src/api\api_lib.c ****       if (err != ERR_OK) {
 605:C:/Users/stapi/OneDrive/Desktop/GD32VW553/GD32VW55X_Wifi_BLE_SDK/GD32VW55x_RELEASE_V1.0.2/MSDK/lwip/lwip-2.1.2/src/api\api_lib.c ****         /* return pending error */
 606:C:/Users/stapi/OneDrive/Desktop/GD32VW553/GD32VW55X_Wifi_BLE_SDK/GD32VW55x_RELEASE_V1.0.2/MSDK/lwip/lwip-2.1.2/src/api\api_lib.c ****         return err;
 607:C:/Users/stapi/OneDrive/Desktop/GD32VW553/GD32VW55X_Wifi_BLE_SDK/GD32VW55x_RELEASE_V1.0.2/MSDK/lwip/lwip-2.1.2/src/api\api_lib.c ****       }
 608:C:/Users/stapi/OneDrive/Desktop/GD32VW553/GD32VW55X_Wifi_BLE_SDK/GD32VW55x_RELEASE_V1.0.2/MSDK/lwip/lwip-2.1.2/src/api\api_lib.c ****       if (conn->flags & NETCONN_FLAG_MBOXCLOSED) {
 609:C:/Users/stapi/OneDrive/Desktop/GD32VW553/GD32VW55X_Wifi_BLE_SDK/GD32VW55x_RELEASE_V1.0.2/MSDK/lwip/lwip-2.1.2/src/api\api_lib.c ****         return ERR_CONN;
 610:C:/Users/stapi/OneDrive/Desktop/GD32VW553/GD32VW55X_Wifi_BLE_SDK/GD32VW55x_RELEASE_V1.0.2/MSDK/lwip/lwip-2.1.2/src/api\api_lib.c ****       }
 611:C:/Users/stapi/OneDrive/Desktop/GD32VW553/GD32VW55X_Wifi_BLE_SDK/GD32VW55x_RELEASE_V1.0.2/MSDK/lwip/lwip-2.1.2/src/api\api_lib.c ****       return ERR_WOULDBLOCK;
 612:C:/Users/stapi/OneDrive/Desktop/GD32VW553/GD32VW55X_Wifi_BLE_SDK/GD32VW55x_RELEASE_V1.0.2/MSDK/lwip/lwip-2.1.2/src/api\api_lib.c ****     }
 613:C:/Users/stapi/OneDrive/Desktop/GD32VW553/GD32VW55X_Wifi_BLE_SDK/GD32VW55x_RELEASE_V1.0.2/MSDK/lwip/lwip-2.1.2/src/api\api_lib.c ****   } else {
 614:C:/Users/stapi/OneDrive/Desktop/GD32VW553/GD32VW55X_Wifi_BLE_SDK/GD32VW55x_RELEASE_V1.0.2/MSDK/lwip/lwip-2.1.2/src/api\api_lib.c **** #if LWIP_SO_RCVTIMEO
 615:C:/Users/stapi/OneDrive/Desktop/GD32VW553/GD32VW55X_Wifi_BLE_SDK/GD32VW55x_RELEASE_V1.0.2/MSDK/lwip/lwip-2.1.2/src/api\api_lib.c ****     if (sys_arch_mbox_fetch(&conn->recvmbox, &buf, conn->recv_timeout) == SYS_ARCH_TIMEOUT) {
 616:C:/Users/stapi/OneDrive/Desktop/GD32VW553/GD32VW55X_Wifi_BLE_SDK/GD32VW55x_RELEASE_V1.0.2/MSDK/lwip/lwip-2.1.2/src/api\api_lib.c ****       NETCONN_MBOX_WAITING_DEC(conn);
 617:C:/Users/stapi/OneDrive/Desktop/GD32VW553/GD32VW55X_Wifi_BLE_SDK/GD32VW55x_RELEASE_V1.0.2/MSDK/lwip/lwip-2.1.2/src/api\api_lib.c ****       return ERR_TIMEOUT;
 618:C:/Users/stapi/OneDrive/Desktop/GD32VW553/GD32VW55X_Wifi_BLE_SDK/GD32VW55x_RELEASE_V1.0.2/MSDK/lwip/lwip-2.1.2/src/api\api_lib.c ****     }
 619:C:/Users/stapi/OneDrive/Desktop/GD32VW553/GD32VW55X_Wifi_BLE_SDK/GD32VW55x_RELEASE_V1.0.2/MSDK/lwip/lwip-2.1.2/src/api\api_lib.c **** #else
 620:C:/Users/stapi/OneDrive/Desktop/GD32VW553/GD32VW55X_Wifi_BLE_SDK/GD32VW55x_RELEASE_V1.0.2/MSDK/lwip/lwip-2.1.2/src/api\api_lib.c ****     sys_arch_mbox_fetch(&conn->recvmbox, &buf, 0);
 621:C:/Users/stapi/OneDrive/Desktop/GD32VW553/GD32VW55X_Wifi_BLE_SDK/GD32VW55x_RELEASE_V1.0.2/MSDK/lwip/lwip-2.1.2/src/api\api_lib.c **** #endif /* LWIP_SO_RCVTIMEO*/
 622:C:/Users/stapi/OneDrive/Desktop/GD32VW553/GD32VW55X_Wifi_BLE_SDK/GD32VW55x_RELEASE_V1.0.2/MSDK/lwip/lwip-2.1.2/src/api\api_lib.c ****   }
 623:C:/Users/stapi/OneDrive/Desktop/GD32VW553/GD32VW55X_Wifi_BLE_SDK/GD32VW55x_RELEASE_V1.0.2/MSDK/lwip/lwip-2.1.2/src/api\api_lib.c ****   NETCONN_MBOX_WAITING_DEC(conn);
 624:C:/Users/stapi/OneDrive/Desktop/GD32VW553/GD32VW55X_Wifi_BLE_SDK/GD32VW55x_RELEASE_V1.0.2/MSDK/lwip/lwip-2.1.2/src/api\api_lib.c **** #if LWIP_NETCONN_FULLDUPLEX
 625:C:/Users/stapi/OneDrive/Desktop/GD32VW553/GD32VW55X_Wifi_BLE_SDK/GD32VW55x_RELEASE_V1.0.2/MSDK/lwip/lwip-2.1.2/src/api\api_lib.c ****   if (conn->flags & NETCONN_FLAG_MBOXINVALID) {
 626:C:/Users/stapi/OneDrive/Desktop/GD32VW553/GD32VW55X_Wifi_BLE_SDK/GD32VW55x_RELEASE_V1.0.2/MSDK/lwip/lwip-2.1.2/src/api\api_lib.c ****     if (lwip_netconn_is_deallocated_msg(buf)) {
 627:C:/Users/stapi/OneDrive/Desktop/GD32VW553/GD32VW55X_Wifi_BLE_SDK/GD32VW55x_RELEASE_V1.0.2/MSDK/lwip/lwip-2.1.2/src/api\api_lib.c ****       /* the netconn has been closed from another thread */
 628:C:/Users/stapi/OneDrive/Desktop/GD32VW553/GD32VW55X_Wifi_BLE_SDK/GD32VW55x_RELEASE_V1.0.2/MSDK/lwip/lwip-2.1.2/src/api\api_lib.c ****       API_MSG_VAR_FREE_ACCEPT(msg);
 629:C:/Users/stapi/OneDrive/Desktop/GD32VW553/GD32VW55X_Wifi_BLE_SDK/GD32VW55x_RELEASE_V1.0.2/MSDK/lwip/lwip-2.1.2/src/api\api_lib.c ****       return ERR_CONN;
 630:C:/Users/stapi/OneDrive/Desktop/GD32VW553/GD32VW55X_Wifi_BLE_SDK/GD32VW55x_RELEASE_V1.0.2/MSDK/lwip/lwip-2.1.2/src/api\api_lib.c ****     }
 631:C:/Users/stapi/OneDrive/Desktop/GD32VW553/GD32VW55X_Wifi_BLE_SDK/GD32VW55x_RELEASE_V1.0.2/MSDK/lwip/lwip-2.1.2/src/api\api_lib.c ****   }
 632:C:/Users/stapi/OneDrive/Desktop/GD32VW553/GD32VW55X_Wifi_BLE_SDK/GD32VW55x_RELEASE_V1.0.2/MSDK/lwip/lwip-2.1.2/src/api\api_lib.c **** #endif
 633:C:/Users/stapi/OneDrive/Desktop/GD32VW553/GD32VW55X_Wifi_BLE_SDK/GD32VW55x_RELEASE_V1.0.2/MSDK/lwip/lwip-2.1.2/src/api\api_lib.c **** 
 634:C:/Users/stapi/OneDrive/Desktop/GD32VW553/GD32VW55X_Wifi_BLE_SDK/GD32VW55x_RELEASE_V1.0.2/MSDK/lwip/lwip-2.1.2/src/api\api_lib.c **** #if LWIP_TCP
 635:C:/Users/stapi/OneDrive/Desktop/GD32VW553/GD32VW55X_Wifi_BLE_SDK/GD32VW55x_RELEASE_V1.0.2/MSDK/lwip/lwip-2.1.2/src/api\api_lib.c **** #if (LWIP_UDP || LWIP_RAW)
 636:C:/Users/stapi/OneDrive/Desktop/GD32VW553/GD32VW55X_Wifi_BLE_SDK/GD32VW55x_RELEASE_V1.0.2/MSDK/lwip/lwip-2.1.2/src/api\api_lib.c ****   if (NETCONNTYPE_GROUP(conn->type) == NETCONN_TCP)
 637:C:/Users/stapi/OneDrive/Desktop/GD32VW553/GD32VW55X_Wifi_BLE_SDK/GD32VW55x_RELEASE_V1.0.2/MSDK/lwip/lwip-2.1.2/src/api\api_lib.c **** #endif /* (LWIP_UDP || LWIP_RAW) */
 638:C:/Users/stapi/OneDrive/Desktop/GD32VW553/GD32VW55X_Wifi_BLE_SDK/GD32VW55x_RELEASE_V1.0.2/MSDK/lwip/lwip-2.1.2/src/api\api_lib.c ****   {
 639:C:/Users/stapi/OneDrive/Desktop/GD32VW553/GD32VW55X_Wifi_BLE_SDK/GD32VW55x_RELEASE_V1.0.2/MSDK/lwip/lwip-2.1.2/src/api\api_lib.c ****     err_t err;
 640:C:/Users/stapi/OneDrive/Desktop/GD32VW553/GD32VW55X_Wifi_BLE_SDK/GD32VW55x_RELEASE_V1.0.2/MSDK/lwip/lwip-2.1.2/src/api\api_lib.c ****     /* Check if this is an error message or a pbuf */
 641:C:/Users/stapi/OneDrive/Desktop/GD32VW553/GD32VW55X_Wifi_BLE_SDK/GD32VW55x_RELEASE_V1.0.2/MSDK/lwip/lwip-2.1.2/src/api\api_lib.c ****     if (lwip_netconn_is_err_msg(buf, &err)) {
 642:C:/Users/stapi/OneDrive/Desktop/GD32VW553/GD32VW55X_Wifi_BLE_SDK/GD32VW55x_RELEASE_V1.0.2/MSDK/lwip/lwip-2.1.2/src/api\api_lib.c ****       /* new_buf has been zeroed above already */
 643:C:/Users/stapi/OneDrive/Desktop/GD32VW553/GD32VW55X_Wifi_BLE_SDK/GD32VW55x_RELEASE_V1.0.2/MSDK/lwip/lwip-2.1.2/src/api\api_lib.c ****       if (err == ERR_CLSD) {
 644:C:/Users/stapi/OneDrive/Desktop/GD32VW553/GD32VW55X_Wifi_BLE_SDK/GD32VW55x_RELEASE_V1.0.2/MSDK/lwip/lwip-2.1.2/src/api\api_lib.c ****         /* connection closed translates to ERR_OK with *new_buf == NULL */
 645:C:/Users/stapi/OneDrive/Desktop/GD32VW553/GD32VW55X_Wifi_BLE_SDK/GD32VW55x_RELEASE_V1.0.2/MSDK/lwip/lwip-2.1.2/src/api\api_lib.c ****         return ERR_OK;
 646:C:/Users/stapi/OneDrive/Desktop/GD32VW553/GD32VW55X_Wifi_BLE_SDK/GD32VW55x_RELEASE_V1.0.2/MSDK/lwip/lwip-2.1.2/src/api\api_lib.c ****       }
 647:C:/Users/stapi/OneDrive/Desktop/GD32VW553/GD32VW55X_Wifi_BLE_SDK/GD32VW55x_RELEASE_V1.0.2/MSDK/lwip/lwip-2.1.2/src/api\api_lib.c ****       return err;
 648:C:/Users/stapi/OneDrive/Desktop/GD32VW553/GD32VW55X_Wifi_BLE_SDK/GD32VW55x_RELEASE_V1.0.2/MSDK/lwip/lwip-2.1.2/src/api\api_lib.c ****     }
 649:C:/Users/stapi/OneDrive/Desktop/GD32VW553/GD32VW55X_Wifi_BLE_SDK/GD32VW55x_RELEASE_V1.0.2/MSDK/lwip/lwip-2.1.2/src/api\api_lib.c ****     len = ((struct pbuf *)buf)->tot_len;
 650:C:/Users/stapi/OneDrive/Desktop/GD32VW553/GD32VW55X_Wifi_BLE_SDK/GD32VW55x_RELEASE_V1.0.2/MSDK/lwip/lwip-2.1.2/src/api\api_lib.c ****   }
 651:C:/Users/stapi/OneDrive/Desktop/GD32VW553/GD32VW55X_Wifi_BLE_SDK/GD32VW55x_RELEASE_V1.0.2/MSDK/lwip/lwip-2.1.2/src/api\api_lib.c **** #endif /* LWIP_TCP */
 652:C:/Users/stapi/OneDrive/Desktop/GD32VW553/GD32VW55X_Wifi_BLE_SDK/GD32VW55x_RELEASE_V1.0.2/MSDK/lwip/lwip-2.1.2/src/api\api_lib.c **** #if LWIP_TCP && (LWIP_UDP || LWIP_RAW)
 653:C:/Users/stapi/OneDrive/Desktop/GD32VW553/GD32VW55X_Wifi_BLE_SDK/GD32VW55x_RELEASE_V1.0.2/MSDK/lwip/lwip-2.1.2/src/api\api_lib.c ****   else
 654:C:/Users/stapi/OneDrive/Desktop/GD32VW553/GD32VW55X_Wifi_BLE_SDK/GD32VW55x_RELEASE_V1.0.2/MSDK/lwip/lwip-2.1.2/src/api\api_lib.c **** #endif /* LWIP_TCP && (LWIP_UDP || LWIP_RAW) */
 655:C:/Users/stapi/OneDrive/Desktop/GD32VW553/GD32VW55X_Wifi_BLE_SDK/GD32VW55x_RELEASE_V1.0.2/MSDK/lwip/lwip-2.1.2/src/api\api_lib.c **** #if (LWIP_UDP || LWIP_RAW)
 656:C:/Users/stapi/OneDrive/Desktop/GD32VW553/GD32VW55X_Wifi_BLE_SDK/GD32VW55x_RELEASE_V1.0.2/MSDK/lwip/lwip-2.1.2/src/api\api_lib.c ****   {
 657:C:/Users/stapi/OneDrive/Desktop/GD32VW553/GD32VW55X_Wifi_BLE_SDK/GD32VW55x_RELEASE_V1.0.2/MSDK/lwip/lwip-2.1.2/src/api\api_lib.c ****     LWIP_ASSERT("buf != NULL", buf != NULL);
 658:C:/Users/stapi/OneDrive/Desktop/GD32VW553/GD32VW55X_Wifi_BLE_SDK/GD32VW55x_RELEASE_V1.0.2/MSDK/lwip/lwip-2.1.2/src/api\api_lib.c ****     len = netbuf_len((struct netbuf *)buf);
 659:C:/Users/stapi/OneDrive/Desktop/GD32VW553/GD32VW55X_Wifi_BLE_SDK/GD32VW55x_RELEASE_V1.0.2/MSDK/lwip/lwip-2.1.2/src/api\api_lib.c ****   }
 660:C:/Users/stapi/OneDrive/Desktop/GD32VW553/GD32VW55X_Wifi_BLE_SDK/GD32VW55x_RELEASE_V1.0.2/MSDK/lwip/lwip-2.1.2/src/api\api_lib.c **** #endif /* (LWIP_UDP || LWIP_RAW) */
 661:C:/Users/stapi/OneDrive/Desktop/GD32VW553/GD32VW55X_Wifi_BLE_SDK/GD32VW55x_RELEASE_V1.0.2/MSDK/lwip/lwip-2.1.2/src/api\api_lib.c **** 
 662:C:/Users/stapi/OneDrive/Desktop/GD32VW553/GD32VW55X_Wifi_BLE_SDK/GD32VW55x_RELEASE_V1.0.2/MSDK/lwip/lwip-2.1.2/src/api\api_lib.c **** #if LWIP_SO_RCVBUF
 663:C:/Users/stapi/OneDrive/Desktop/GD32VW553/GD32VW55X_Wifi_BLE_SDK/GD32VW55x_RELEASE_V1.0.2/MSDK/lwip/lwip-2.1.2/src/api\api_lib.c ****   SYS_ARCH_DEC(conn->recv_avail, len);
 664:C:/Users/stapi/OneDrive/Desktop/GD32VW553/GD32VW55X_Wifi_BLE_SDK/GD32VW55x_RELEASE_V1.0.2/MSDK/lwip/lwip-2.1.2/src/api\api_lib.c **** #endif /* LWIP_SO_RCVBUF */
 665:C:/Users/stapi/OneDrive/Desktop/GD32VW553/GD32VW55X_Wifi_BLE_SDK/GD32VW55x_RELEASE_V1.0.2/MSDK/lwip/lwip-2.1.2/src/api\api_lib.c ****   /* Register event with callback */
 666:C:/Users/stapi/OneDrive/Desktop/GD32VW553/GD32VW55X_Wifi_BLE_SDK/GD32VW55x_RELEASE_V1.0.2/MSDK/lwip/lwip-2.1.2/src/api\api_lib.c ****   API_EVENT(conn, NETCONN_EVT_RCVMINUS, len);
 667:C:/Users/stapi/OneDrive/Desktop/GD32VW553/GD32VW55X_Wifi_BLE_SDK/GD32VW55x_RELEASE_V1.0.2/MSDK/lwip/lwip-2.1.2/src/api\api_lib.c **** 
 668:C:/Users/stapi/OneDrive/Desktop/GD32VW553/GD32VW55X_Wifi_BLE_SDK/GD32VW55x_RELEASE_V1.0.2/MSDK/lwip/lwip-2.1.2/src/api\api_lib.c ****   LWIP_DEBUGF(API_LIB_DEBUG, ("netconn_recv_data: received %p, len=%"U16_F"\n", buf, len));
 669:C:/Users/stapi/OneDrive/Desktop/GD32VW553/GD32VW55X_Wifi_BLE_SDK/GD32VW55x_RELEASE_V1.0.2/MSDK/lwip/lwip-2.1.2/src/api\api_lib.c **** 
 670:C:/Users/stapi/OneDrive/Desktop/GD32VW553/GD32VW55X_Wifi_BLE_SDK/GD32VW55x_RELEASE_V1.0.2/MSDK/lwip/lwip-2.1.2/src/api\api_lib.c ****   *new_buf = buf;
 671:C:/Users/stapi/OneDrive/Desktop/GD32VW553/GD32VW55X_Wifi_BLE_SDK/GD32VW55x_RELEASE_V1.0.2/MSDK/lwip/lwip-2.1.2/src/api\api_lib.c ****   /* don't set conn->last_err: it's only ERR_OK, anyway */
 672:C:/Users/stapi/OneDrive/Desktop/GD32VW553/GD32VW55X_Wifi_BLE_SDK/GD32VW55x_RELEASE_V1.0.2/MSDK/lwip/lwip-2.1.2/src/api\api_lib.c ****   return ERR_OK;
 673:C:/Users/stapi/OneDrive/Desktop/GD32VW553/GD32VW55X_Wifi_BLE_SDK/GD32VW55x_RELEASE_V1.0.2/MSDK/lwip/lwip-2.1.2/src/api\api_lib.c **** }
 674:C:/Users/stapi/OneDrive/Desktop/GD32VW553/GD32VW55X_Wifi_BLE_SDK/GD32VW55x_RELEASE_V1.0.2/MSDK/lwip/lwip-2.1.2/src/api\api_lib.c **** 
 675:C:/Users/stapi/OneDrive/Desktop/GD32VW553/GD32VW55X_Wifi_BLE_SDK/GD32VW55x_RELEASE_V1.0.2/MSDK/lwip/lwip-2.1.2/src/api\api_lib.c **** #if LWIP_TCP
 676:C:/Users/stapi/OneDrive/Desktop/GD32VW553/GD32VW55X_Wifi_BLE_SDK/GD32VW55x_RELEASE_V1.0.2/MSDK/lwip/lwip-2.1.2/src/api\api_lib.c **** static err_t
 677:C:/Users/stapi/OneDrive/Desktop/GD32VW553/GD32VW55X_Wifi_BLE_SDK/GD32VW55x_RELEASE_V1.0.2/MSDK/lwip/lwip-2.1.2/src/api\api_lib.c **** netconn_tcp_recvd_msg(struct netconn *conn, size_t len, struct api_msg *msg)
 678:C:/Users/stapi/OneDrive/Desktop/GD32VW553/GD32VW55X_Wifi_BLE_SDK/GD32VW55x_RELEASE_V1.0.2/MSDK/lwip/lwip-2.1.2/src/api\api_lib.c **** {
  63              		.loc 1 678 1 is_stmt 1
  64              		.cfi_startproc
  65              	.LVL3:
  66 0000 17030000 		call	t0,__riscv_save_0
  66      E7020300 
  67              		.cfi_offset 1, -4
  68              		.cfi_def_cfa_offset 16
 679:C:/Users/stapi/OneDrive/Desktop/GD32VW553/GD32VW55X_Wifi_BLE_SDK/GD32VW55x_RELEASE_V1.0.2/MSDK/lwip/lwip-2.1.2/src/api\api_lib.c ****   LWIP_ERROR("netconn_recv_tcp_pbuf: invalid conn", (conn != NULL) &&
  69              		.loc 1 679 3
  70              		.loc 1 679 3
  71 0008 19C5     		beq	a0,zero,.L5
  72              		.loc 1 679 3 is_stmt 0 discriminator 2
  73 000a 1841     		lw	a4,0(a0)
  74 000c C146     		li	a3,16
  75 000e 1377070F 		andi	a4,a4,240
  76 0012 6305D702 		beq	a4,a3,.L6
  77              	.L5:
  78              		.loc 1 679 3 is_stmt 1 discriminator 3
  79              		.loc 1 679 3 discriminator 3
  80 0016 B7060000 		lui	a3,%hi(.LC0)
  81 001a B7050000 		lui	a1,%hi(.LC1)
  82              	.LVL4:
  83 001e 37050000 		lui	a0,%hi(.LC2)
  84              	.LVL5:
  85 0022 93860600 		addi	a3,a3,%lo(.LC0)
  86 0026 1306702A 		li	a2,679
  87              	.LVL6:
  88 002a 93850500 		addi	a1,a1,%lo(.LC1)
  89 002e 13050500 		addi	a0,a0,%lo(.LC2)
  90 0032 97000000 		call	printf
  90      E7800000 
  91              	.LVL7:
  92              	.L7:
  93              		.loc 1 679 3 discriminator 1
  94              		.loc 1 679 3 discriminator 1
  95              		.loc 1 679 3 discriminator 1
  96 003a 01A0     		j	.L7
  97              	.LVL8:
  98              	.L6:
  99 003c AE87     		mv	a5,a1
 100              	.LBB5:
 101              	.LBB6:
 680:C:/Users/stapi/OneDrive/Desktop/GD32VW553/GD32VW55X_Wifi_BLE_SDK/GD32VW55x_RELEASE_V1.0.2/MSDK/lwip/lwip-2.1.2/src/api\api_lib.c ****              NETCONNTYPE_GROUP(netconn_type(conn)) == NETCONN_TCP, return ERR_ARG;);
 681:C:/Users/stapi/OneDrive/Desktop/GD32VW553/GD32VW55X_Wifi_BLE_SDK/GD32VW55x_RELEASE_V1.0.2/MSDK/lwip/lwip-2.1.2/src/api\api_lib.c **** 
 682:C:/Users/stapi/OneDrive/Desktop/GD32VW553/GD32VW55X_Wifi_BLE_SDK/GD32VW55x_RELEASE_V1.0.2/MSDK/lwip/lwip-2.1.2/src/api\api_lib.c ****   msg->conn = conn;
 102              		.loc 1 682 13 is_stmt 0
 103 003e 08C2     		sw	a0,0(a2)
 683:C:/Users/stapi/OneDrive/Desktop/GD32VW553/GD32VW55X_Wifi_BLE_SDK/GD32VW55x_RELEASE_V1.0.2/MSDK/lwip/lwip-2.1.2/src/api\api_lib.c ****   msg->msg.r.len = len;
 684:C:/Users/stapi/OneDrive/Desktop/GD32VW553/GD32VW55X_Wifi_BLE_SDK/GD32VW55x_RELEASE_V1.0.2/MSDK/lwip/lwip-2.1.2/src/api\api_lib.c **** 
 685:C:/Users/stapi/OneDrive/Desktop/GD32VW553/GD32VW55X_Wifi_BLE_SDK/GD32VW55x_RELEASE_V1.0.2/MSDK/lwip/lwip-2.1.2/src/api\api_lib.c ****   return netconn_apimsg(lwip_netconn_do_recv, msg);
 104              		.loc 1 685 10
 105 0040 37050000 		lui	a0,%hi(lwip_netconn_do_recv)
 106              	.LVL9:
 107 0044 B285     		mv	a1,a2
 108              	.LVL10:
 679:C:/Users/stapi/OneDrive/Desktop/GD32VW553/GD32VW55X_Wifi_BLE_SDK/GD32VW55x_RELEASE_V1.0.2/MSDK/lwip/lwip-2.1.2/src/api\api_lib.c ****              NETCONNTYPE_GROUP(netconn_type(conn)) == NETCONN_TCP, return ERR_ARG;);
 109              		.loc 1 679 3 is_stmt 1
 679:C:/Users/stapi/OneDrive/Desktop/GD32VW553/GD32VW55X_Wifi_BLE_SDK/GD32VW55x_RELEASE_V1.0.2/MSDK/lwip/lwip-2.1.2/src/api\api_lib.c ****              NETCONNTYPE_GROUP(netconn_type(conn)) == NETCONN_TCP, return ERR_ARG;);
 110              		.loc 1 679 3
 682:C:/Users/stapi/OneDrive/Desktop/GD32VW553/GD32VW55X_Wifi_BLE_SDK/GD32VW55x_RELEASE_V1.0.2/MSDK/lwip/lwip-2.1.2/src/api\api_lib.c ****   msg->msg.r.len = len;
 111              		.loc 1 682 3
 683:C:/Users/stapi/OneDrive/Desktop/GD32VW553/GD32VW55X_Wifi_BLE_SDK/GD32VW55x_RELEASE_V1.0.2/MSDK/lwip/lwip-2.1.2/src/api\api_lib.c ****   msg->msg.r.len = len;
 112              		.loc 1 683 3
 683:C:/Users/stapi/OneDrive/Desktop/GD32VW553/GD32VW55X_Wifi_BLE_SDK/GD32VW55x_RELEASE_V1.0.2/MSDK/lwip/lwip-2.1.2/src/api\api_lib.c ****   msg->msg.r.len = len;
 113              		.loc 1 683 18 is_stmt 0
 114 0046 1CC6     		sw	a5,8(a2)
 115              		.loc 1 685 3 is_stmt 1
 116              		.loc 1 685 10 is_stmt 0
 117 0048 13050500 		addi	a0,a0,%lo(lwip_netconn_do_recv)
 118 004c 97000000 		call	netconn_apimsg
 118      E7800000 
 119              	.LVL11:
 120              	.LBE6:
 121              	.LBE5:
 686:C:/Users/stapi/OneDrive/Desktop/GD32VW553/GD32VW55X_Wifi_BLE_SDK/GD32VW55x_RELEASE_V1.0.2/MSDK/lwip/lwip-2.1.2/src/api\api_lib.c **** }
 122              		.loc 1 686 1
 123 0054 17030000 		tail	__riscv_restore_0
 123      67000300 
 124              		.cfi_restore 1
 125              		.cfi_def_cfa_offset 0
 126              		.cfi_endproc
 127              	.LFE16:
 129              		.section	.rodata.netconn_close_shutdown.str1.4,"aMS",@progbits,1
 130              		.align	2
 131              	.LC3:
 132 0000 6E657463 		.string	"netconn_close: invalid conn"
 132      6F6E6E5F 
 132      636C6F73 
 132      653A2069 
 132      6E76616C 
 133              		.section	.text.netconn_close_shutdown,"ax",@progbits
 134              		.align	1
 136              	netconn_close_shutdown:
 137              	.LFB28:
 687:C:/Users/stapi/OneDrive/Desktop/GD32VW553/GD32VW55X_Wifi_BLE_SDK/GD32VW55x_RELEASE_V1.0.2/MSDK/lwip/lwip-2.1.2/src/api\api_lib.c **** 
 688:C:/Users/stapi/OneDrive/Desktop/GD32VW553/GD32VW55X_Wifi_BLE_SDK/GD32VW55x_RELEASE_V1.0.2/MSDK/lwip/lwip-2.1.2/src/api\api_lib.c **** err_t
 689:C:/Users/stapi/OneDrive/Desktop/GD32VW553/GD32VW55X_Wifi_BLE_SDK/GD32VW55x_RELEASE_V1.0.2/MSDK/lwip/lwip-2.1.2/src/api\api_lib.c **** netconn_tcp_recvd(struct netconn *conn, size_t len)
 690:C:/Users/stapi/OneDrive/Desktop/GD32VW553/GD32VW55X_Wifi_BLE_SDK/GD32VW55x_RELEASE_V1.0.2/MSDK/lwip/lwip-2.1.2/src/api\api_lib.c **** {
 691:C:/Users/stapi/OneDrive/Desktop/GD32VW553/GD32VW55X_Wifi_BLE_SDK/GD32VW55x_RELEASE_V1.0.2/MSDK/lwip/lwip-2.1.2/src/api\api_lib.c ****   err_t err;
 692:C:/Users/stapi/OneDrive/Desktop/GD32VW553/GD32VW55X_Wifi_BLE_SDK/GD32VW55x_RELEASE_V1.0.2/MSDK/lwip/lwip-2.1.2/src/api\api_lib.c ****   API_MSG_VAR_DECLARE(msg);
 693:C:/Users/stapi/OneDrive/Desktop/GD32VW553/GD32VW55X_Wifi_BLE_SDK/GD32VW55x_RELEASE_V1.0.2/MSDK/lwip/lwip-2.1.2/src/api\api_lib.c ****   LWIP_ERROR("netconn_recv_tcp_pbuf: invalid conn", (conn != NULL) &&
 694:C:/Users/stapi/OneDrive/Desktop/GD32VW553/GD32VW55X_Wifi_BLE_SDK/GD32VW55x_RELEASE_V1.0.2/MSDK/lwip/lwip-2.1.2/src/api\api_lib.c ****              NETCONNTYPE_GROUP(netconn_type(conn)) == NETCONN_TCP, return ERR_ARG;);
 695:C:/Users/stapi/OneDrive/Desktop/GD32VW553/GD32VW55X_Wifi_BLE_SDK/GD32VW55x_RELEASE_V1.0.2/MSDK/lwip/lwip-2.1.2/src/api\api_lib.c **** 
 696:C:/Users/stapi/OneDrive/Desktop/GD32VW553/GD32VW55X_Wifi_BLE_SDK/GD32VW55x_RELEASE_V1.0.2/MSDK/lwip/lwip-2.1.2/src/api\api_lib.c ****   API_MSG_VAR_ALLOC(msg);
 697:C:/Users/stapi/OneDrive/Desktop/GD32VW553/GD32VW55X_Wifi_BLE_SDK/GD32VW55x_RELEASE_V1.0.2/MSDK/lwip/lwip-2.1.2/src/api\api_lib.c ****   err = netconn_tcp_recvd_msg(conn, len, &API_VAR_REF(msg));
 698:C:/Users/stapi/OneDrive/Desktop/GD32VW553/GD32VW55X_Wifi_BLE_SDK/GD32VW55x_RELEASE_V1.0.2/MSDK/lwip/lwip-2.1.2/src/api\api_lib.c ****   API_MSG_VAR_FREE(msg);
 699:C:/Users/stapi/OneDrive/Desktop/GD32VW553/GD32VW55X_Wifi_BLE_SDK/GD32VW55x_RELEASE_V1.0.2/MSDK/lwip/lwip-2.1.2/src/api\api_lib.c ****   return err;
 700:C:/Users/stapi/OneDrive/Desktop/GD32VW553/GD32VW55X_Wifi_BLE_SDK/GD32VW55x_RELEASE_V1.0.2/MSDK/lwip/lwip-2.1.2/src/api\api_lib.c **** }
 701:C:/Users/stapi/OneDrive/Desktop/GD32VW553/GD32VW55X_Wifi_BLE_SDK/GD32VW55x_RELEASE_V1.0.2/MSDK/lwip/lwip-2.1.2/src/api\api_lib.c **** 
 702:C:/Users/stapi/OneDrive/Desktop/GD32VW553/GD32VW55X_Wifi_BLE_SDK/GD32VW55x_RELEASE_V1.0.2/MSDK/lwip/lwip-2.1.2/src/api\api_lib.c **** static err_t
 703:C:/Users/stapi/OneDrive/Desktop/GD32VW553/GD32VW55X_Wifi_BLE_SDK/GD32VW55x_RELEASE_V1.0.2/MSDK/lwip/lwip-2.1.2/src/api\api_lib.c **** netconn_recv_data_tcp(struct netconn *conn, struct pbuf **new_buf, u8_t apiflags)
 704:C:/Users/stapi/OneDrive/Desktop/GD32VW553/GD32VW55X_Wifi_BLE_SDK/GD32VW55x_RELEASE_V1.0.2/MSDK/lwip/lwip-2.1.2/src/api\api_lib.c **** {
 705:C:/Users/stapi/OneDrive/Desktop/GD32VW553/GD32VW55X_Wifi_BLE_SDK/GD32VW55x_RELEASE_V1.0.2/MSDK/lwip/lwip-2.1.2/src/api\api_lib.c ****   err_t err;
 706:C:/Users/stapi/OneDrive/Desktop/GD32VW553/GD32VW55X_Wifi_BLE_SDK/GD32VW55x_RELEASE_V1.0.2/MSDK/lwip/lwip-2.1.2/src/api\api_lib.c ****   struct pbuf *buf;
 707:C:/Users/stapi/OneDrive/Desktop/GD32VW553/GD32VW55X_Wifi_BLE_SDK/GD32VW55x_RELEASE_V1.0.2/MSDK/lwip/lwip-2.1.2/src/api\api_lib.c ****   API_MSG_VAR_DECLARE(msg);
 708:C:/Users/stapi/OneDrive/Desktop/GD32VW553/GD32VW55X_Wifi_BLE_SDK/GD32VW55x_RELEASE_V1.0.2/MSDK/lwip/lwip-2.1.2/src/api\api_lib.c **** #if LWIP_MPU_COMPATIBLE
 709:C:/Users/stapi/OneDrive/Desktop/GD32VW553/GD32VW55X_Wifi_BLE_SDK/GD32VW55x_RELEASE_V1.0.2/MSDK/lwip/lwip-2.1.2/src/api\api_lib.c ****   msg = NULL;
 710:C:/Users/stapi/OneDrive/Desktop/GD32VW553/GD32VW55X_Wifi_BLE_SDK/GD32VW55x_RELEASE_V1.0.2/MSDK/lwip/lwip-2.1.2/src/api\api_lib.c **** #endif
 711:C:/Users/stapi/OneDrive/Desktop/GD32VW553/GD32VW55X_Wifi_BLE_SDK/GD32VW55x_RELEASE_V1.0.2/MSDK/lwip/lwip-2.1.2/src/api\api_lib.c **** 
 712:C:/Users/stapi/OneDrive/Desktop/GD32VW553/GD32VW55X_Wifi_BLE_SDK/GD32VW55x_RELEASE_V1.0.2/MSDK/lwip/lwip-2.1.2/src/api\api_lib.c ****   if (!NETCONN_RECVMBOX_WAITABLE(conn)) {
 713:C:/Users/stapi/OneDrive/Desktop/GD32VW553/GD32VW55X_Wifi_BLE_SDK/GD32VW55x_RELEASE_V1.0.2/MSDK/lwip/lwip-2.1.2/src/api\api_lib.c ****     /* This only happens when calling this function more than once *after* receiving FIN */
 714:C:/Users/stapi/OneDrive/Desktop/GD32VW553/GD32VW55X_Wifi_BLE_SDK/GD32VW55x_RELEASE_V1.0.2/MSDK/lwip/lwip-2.1.2/src/api\api_lib.c ****     return ERR_CONN;
 715:C:/Users/stapi/OneDrive/Desktop/GD32VW553/GD32VW55X_Wifi_BLE_SDK/GD32VW55x_RELEASE_V1.0.2/MSDK/lwip/lwip-2.1.2/src/api\api_lib.c ****   }
 716:C:/Users/stapi/OneDrive/Desktop/GD32VW553/GD32VW55X_Wifi_BLE_SDK/GD32VW55x_RELEASE_V1.0.2/MSDK/lwip/lwip-2.1.2/src/api\api_lib.c ****   if (netconn_is_flag_set(conn, NETCONN_FIN_RX_PENDING)) {
 717:C:/Users/stapi/OneDrive/Desktop/GD32VW553/GD32VW55X_Wifi_BLE_SDK/GD32VW55x_RELEASE_V1.0.2/MSDK/lwip/lwip-2.1.2/src/api\api_lib.c ****     netconn_clear_flags(conn, NETCONN_FIN_RX_PENDING);
 718:C:/Users/stapi/OneDrive/Desktop/GD32VW553/GD32VW55X_Wifi_BLE_SDK/GD32VW55x_RELEASE_V1.0.2/MSDK/lwip/lwip-2.1.2/src/api\api_lib.c ****     goto handle_fin;
 719:C:/Users/stapi/OneDrive/Desktop/GD32VW553/GD32VW55X_Wifi_BLE_SDK/GD32VW55x_RELEASE_V1.0.2/MSDK/lwip/lwip-2.1.2/src/api\api_lib.c ****   }
 720:C:/Users/stapi/OneDrive/Desktop/GD32VW553/GD32VW55X_Wifi_BLE_SDK/GD32VW55x_RELEASE_V1.0.2/MSDK/lwip/lwip-2.1.2/src/api\api_lib.c **** 
 721:C:/Users/stapi/OneDrive/Desktop/GD32VW553/GD32VW55X_Wifi_BLE_SDK/GD32VW55x_RELEASE_V1.0.2/MSDK/lwip/lwip-2.1.2/src/api\api_lib.c ****   if (!(apiflags & NETCONN_NOAUTORCVD)) {
 722:C:/Users/stapi/OneDrive/Desktop/GD32VW553/GD32VW55X_Wifi_BLE_SDK/GD32VW55x_RELEASE_V1.0.2/MSDK/lwip/lwip-2.1.2/src/api\api_lib.c ****     /* need to allocate API message here so empty message pool does not result in event loss
 723:C:/Users/stapi/OneDrive/Desktop/GD32VW553/GD32VW55X_Wifi_BLE_SDK/GD32VW55x_RELEASE_V1.0.2/MSDK/lwip/lwip-2.1.2/src/api\api_lib.c ****       * see bug #47512: MPU_COMPATIBLE may fail on empty pool */
 724:C:/Users/stapi/OneDrive/Desktop/GD32VW553/GD32VW55X_Wifi_BLE_SDK/GD32VW55x_RELEASE_V1.0.2/MSDK/lwip/lwip-2.1.2/src/api\api_lib.c ****     API_MSG_VAR_ALLOC(msg);
 725:C:/Users/stapi/OneDrive/Desktop/GD32VW553/GD32VW55X_Wifi_BLE_SDK/GD32VW55x_RELEASE_V1.0.2/MSDK/lwip/lwip-2.1.2/src/api\api_lib.c ****   }
 726:C:/Users/stapi/OneDrive/Desktop/GD32VW553/GD32VW55X_Wifi_BLE_SDK/GD32VW55x_RELEASE_V1.0.2/MSDK/lwip/lwip-2.1.2/src/api\api_lib.c **** 
 727:C:/Users/stapi/OneDrive/Desktop/GD32VW553/GD32VW55X_Wifi_BLE_SDK/GD32VW55x_RELEASE_V1.0.2/MSDK/lwip/lwip-2.1.2/src/api\api_lib.c ****   err = netconn_recv_data(conn, (void **)new_buf, apiflags);
 728:C:/Users/stapi/OneDrive/Desktop/GD32VW553/GD32VW55X_Wifi_BLE_SDK/GD32VW55x_RELEASE_V1.0.2/MSDK/lwip/lwip-2.1.2/src/api\api_lib.c ****   if (err != ERR_OK) {
 729:C:/Users/stapi/OneDrive/Desktop/GD32VW553/GD32VW55X_Wifi_BLE_SDK/GD32VW55x_RELEASE_V1.0.2/MSDK/lwip/lwip-2.1.2/src/api\api_lib.c ****     if (!(apiflags & NETCONN_NOAUTORCVD)) {
 730:C:/Users/stapi/OneDrive/Desktop/GD32VW553/GD32VW55X_Wifi_BLE_SDK/GD32VW55x_RELEASE_V1.0.2/MSDK/lwip/lwip-2.1.2/src/api\api_lib.c ****       API_MSG_VAR_FREE(msg);
 731:C:/Users/stapi/OneDrive/Desktop/GD32VW553/GD32VW55X_Wifi_BLE_SDK/GD32VW55x_RELEASE_V1.0.2/MSDK/lwip/lwip-2.1.2/src/api\api_lib.c ****     }
 732:C:/Users/stapi/OneDrive/Desktop/GD32VW553/GD32VW55X_Wifi_BLE_SDK/GD32VW55x_RELEASE_V1.0.2/MSDK/lwip/lwip-2.1.2/src/api\api_lib.c ****     return err;
 733:C:/Users/stapi/OneDrive/Desktop/GD32VW553/GD32VW55X_Wifi_BLE_SDK/GD32VW55x_RELEASE_V1.0.2/MSDK/lwip/lwip-2.1.2/src/api\api_lib.c ****   }
 734:C:/Users/stapi/OneDrive/Desktop/GD32VW553/GD32VW55X_Wifi_BLE_SDK/GD32VW55x_RELEASE_V1.0.2/MSDK/lwip/lwip-2.1.2/src/api\api_lib.c ****   buf = *new_buf;
 735:C:/Users/stapi/OneDrive/Desktop/GD32VW553/GD32VW55X_Wifi_BLE_SDK/GD32VW55x_RELEASE_V1.0.2/MSDK/lwip/lwip-2.1.2/src/api\api_lib.c ****   if (!(apiflags & NETCONN_NOAUTORCVD)) {
 736:C:/Users/stapi/OneDrive/Desktop/GD32VW553/GD32VW55X_Wifi_BLE_SDK/GD32VW55x_RELEASE_V1.0.2/MSDK/lwip/lwip-2.1.2/src/api\api_lib.c ****     /* Let the stack know that we have taken the data. */
 737:C:/Users/stapi/OneDrive/Desktop/GD32VW553/GD32VW55X_Wifi_BLE_SDK/GD32VW55x_RELEASE_V1.0.2/MSDK/lwip/lwip-2.1.2/src/api\api_lib.c ****     u16_t len = buf ? buf->tot_len : 1;
 738:C:/Users/stapi/OneDrive/Desktop/GD32VW553/GD32VW55X_Wifi_BLE_SDK/GD32VW55x_RELEASE_V1.0.2/MSDK/lwip/lwip-2.1.2/src/api\api_lib.c ****     /* don't care for the return value of lwip_netconn_do_recv */
 739:C:/Users/stapi/OneDrive/Desktop/GD32VW553/GD32VW55X_Wifi_BLE_SDK/GD32VW55x_RELEASE_V1.0.2/MSDK/lwip/lwip-2.1.2/src/api\api_lib.c ****     /* @todo: this should really be fixed, e.g. by retrying in poll on error */
 740:C:/Users/stapi/OneDrive/Desktop/GD32VW553/GD32VW55X_Wifi_BLE_SDK/GD32VW55x_RELEASE_V1.0.2/MSDK/lwip/lwip-2.1.2/src/api\api_lib.c ****     netconn_tcp_recvd_msg(conn, len,  &API_VAR_REF(msg));
 741:C:/Users/stapi/OneDrive/Desktop/GD32VW553/GD32VW55X_Wifi_BLE_SDK/GD32VW55x_RELEASE_V1.0.2/MSDK/lwip/lwip-2.1.2/src/api\api_lib.c ****     API_MSG_VAR_FREE(msg);
 742:C:/Users/stapi/OneDrive/Desktop/GD32VW553/GD32VW55X_Wifi_BLE_SDK/GD32VW55x_RELEASE_V1.0.2/MSDK/lwip/lwip-2.1.2/src/api\api_lib.c ****   }
 743:C:/Users/stapi/OneDrive/Desktop/GD32VW553/GD32VW55X_Wifi_BLE_SDK/GD32VW55x_RELEASE_V1.0.2/MSDK/lwip/lwip-2.1.2/src/api\api_lib.c **** 
 744:C:/Users/stapi/OneDrive/Desktop/GD32VW553/GD32VW55X_Wifi_BLE_SDK/GD32VW55x_RELEASE_V1.0.2/MSDK/lwip/lwip-2.1.2/src/api\api_lib.c ****   /* If we are closed, we indicate that we no longer wish to use the socket */
 745:C:/Users/stapi/OneDrive/Desktop/GD32VW553/GD32VW55X_Wifi_BLE_SDK/GD32VW55x_RELEASE_V1.0.2/MSDK/lwip/lwip-2.1.2/src/api\api_lib.c ****   if (buf == NULL) {
 746:C:/Users/stapi/OneDrive/Desktop/GD32VW553/GD32VW55X_Wifi_BLE_SDK/GD32VW55x_RELEASE_V1.0.2/MSDK/lwip/lwip-2.1.2/src/api\api_lib.c ****     if (apiflags & NETCONN_NOFIN) {
 747:C:/Users/stapi/OneDrive/Desktop/GD32VW553/GD32VW55X_Wifi_BLE_SDK/GD32VW55x_RELEASE_V1.0.2/MSDK/lwip/lwip-2.1.2/src/api\api_lib.c ****       /* received a FIN but the caller cannot handle it right now:
 748:C:/Users/stapi/OneDrive/Desktop/GD32VW553/GD32VW55X_Wifi_BLE_SDK/GD32VW55x_RELEASE_V1.0.2/MSDK/lwip/lwip-2.1.2/src/api\api_lib.c ****          re-enqueue it and return "no data" */
 749:C:/Users/stapi/OneDrive/Desktop/GD32VW553/GD32VW55X_Wifi_BLE_SDK/GD32VW55x_RELEASE_V1.0.2/MSDK/lwip/lwip-2.1.2/src/api\api_lib.c ****       netconn_set_flags(conn, NETCONN_FIN_RX_PENDING);
 750:C:/Users/stapi/OneDrive/Desktop/GD32VW553/GD32VW55X_Wifi_BLE_SDK/GD32VW55x_RELEASE_V1.0.2/MSDK/lwip/lwip-2.1.2/src/api\api_lib.c ****       return ERR_WOULDBLOCK;
 751:C:/Users/stapi/OneDrive/Desktop/GD32VW553/GD32VW55X_Wifi_BLE_SDK/GD32VW55x_RELEASE_V1.0.2/MSDK/lwip/lwip-2.1.2/src/api\api_lib.c ****     } else {
 752:C:/Users/stapi/OneDrive/Desktop/GD32VW553/GD32VW55X_Wifi_BLE_SDK/GD32VW55x_RELEASE_V1.0.2/MSDK/lwip/lwip-2.1.2/src/api\api_lib.c **** handle_fin:
 753:C:/Users/stapi/OneDrive/Desktop/GD32VW553/GD32VW55X_Wifi_BLE_SDK/GD32VW55x_RELEASE_V1.0.2/MSDK/lwip/lwip-2.1.2/src/api\api_lib.c ****       API_EVENT(conn, NETCONN_EVT_RCVMINUS, 0);
 754:C:/Users/stapi/OneDrive/Desktop/GD32VW553/GD32VW55X_Wifi_BLE_SDK/GD32VW55x_RELEASE_V1.0.2/MSDK/lwip/lwip-2.1.2/src/api\api_lib.c ****       if (conn->pcb.ip == NULL) {
 755:C:/Users/stapi/OneDrive/Desktop/GD32VW553/GD32VW55X_Wifi_BLE_SDK/GD32VW55x_RELEASE_V1.0.2/MSDK/lwip/lwip-2.1.2/src/api\api_lib.c ****         /* race condition: RST during recv */
 756:C:/Users/stapi/OneDrive/Desktop/GD32VW553/GD32VW55X_Wifi_BLE_SDK/GD32VW55x_RELEASE_V1.0.2/MSDK/lwip/lwip-2.1.2/src/api\api_lib.c ****         err = netconn_err(conn);
 757:C:/Users/stapi/OneDrive/Desktop/GD32VW553/GD32VW55X_Wifi_BLE_SDK/GD32VW55x_RELEASE_V1.0.2/MSDK/lwip/lwip-2.1.2/src/api\api_lib.c ****         if (err != ERR_OK) {
 758:C:/Users/stapi/OneDrive/Desktop/GD32VW553/GD32VW55X_Wifi_BLE_SDK/GD32VW55x_RELEASE_V1.0.2/MSDK/lwip/lwip-2.1.2/src/api\api_lib.c ****           return err;
 759:C:/Users/stapi/OneDrive/Desktop/GD32VW553/GD32VW55X_Wifi_BLE_SDK/GD32VW55x_RELEASE_V1.0.2/MSDK/lwip/lwip-2.1.2/src/api\api_lib.c ****         }
 760:C:/Users/stapi/OneDrive/Desktop/GD32VW553/GD32VW55X_Wifi_BLE_SDK/GD32VW55x_RELEASE_V1.0.2/MSDK/lwip/lwip-2.1.2/src/api\api_lib.c ****         return ERR_RST;
 761:C:/Users/stapi/OneDrive/Desktop/GD32VW553/GD32VW55X_Wifi_BLE_SDK/GD32VW55x_RELEASE_V1.0.2/MSDK/lwip/lwip-2.1.2/src/api\api_lib.c ****       }
 762:C:/Users/stapi/OneDrive/Desktop/GD32VW553/GD32VW55X_Wifi_BLE_SDK/GD32VW55x_RELEASE_V1.0.2/MSDK/lwip/lwip-2.1.2/src/api\api_lib.c ****       /* RX side is closed, so deallocate the recvmbox */
 763:C:/Users/stapi/OneDrive/Desktop/GD32VW553/GD32VW55X_Wifi_BLE_SDK/GD32VW55x_RELEASE_V1.0.2/MSDK/lwip/lwip-2.1.2/src/api\api_lib.c ****       netconn_close_shutdown(conn, NETCONN_SHUT_RD);
 764:C:/Users/stapi/OneDrive/Desktop/GD32VW553/GD32VW55X_Wifi_BLE_SDK/GD32VW55x_RELEASE_V1.0.2/MSDK/lwip/lwip-2.1.2/src/api\api_lib.c ****       /* Don' store ERR_CLSD as conn->err since we are only half-closed */
 765:C:/Users/stapi/OneDrive/Desktop/GD32VW553/GD32VW55X_Wifi_BLE_SDK/GD32VW55x_RELEASE_V1.0.2/MSDK/lwip/lwip-2.1.2/src/api\api_lib.c ****       return ERR_CLSD;
 766:C:/Users/stapi/OneDrive/Desktop/GD32VW553/GD32VW55X_Wifi_BLE_SDK/GD32VW55x_RELEASE_V1.0.2/MSDK/lwip/lwip-2.1.2/src/api\api_lib.c ****     }
 767:C:/Users/stapi/OneDrive/Desktop/GD32VW553/GD32VW55X_Wifi_BLE_SDK/GD32VW55x_RELEASE_V1.0.2/MSDK/lwip/lwip-2.1.2/src/api\api_lib.c ****   }
 768:C:/Users/stapi/OneDrive/Desktop/GD32VW553/GD32VW55X_Wifi_BLE_SDK/GD32VW55x_RELEASE_V1.0.2/MSDK/lwip/lwip-2.1.2/src/api\api_lib.c ****   return err;
 769:C:/Users/stapi/OneDrive/Desktop/GD32VW553/GD32VW55X_Wifi_BLE_SDK/GD32VW55x_RELEASE_V1.0.2/MSDK/lwip/lwip-2.1.2/src/api\api_lib.c **** }
 770:C:/Users/stapi/OneDrive/Desktop/GD32VW553/GD32VW55X_Wifi_BLE_SDK/GD32VW55x_RELEASE_V1.0.2/MSDK/lwip/lwip-2.1.2/src/api\api_lib.c **** 
 771:C:/Users/stapi/OneDrive/Desktop/GD32VW553/GD32VW55X_Wifi_BLE_SDK/GD32VW55x_RELEASE_V1.0.2/MSDK/lwip/lwip-2.1.2/src/api\api_lib.c **** /**
 772:C:/Users/stapi/OneDrive/Desktop/GD32VW553/GD32VW55X_Wifi_BLE_SDK/GD32VW55x_RELEASE_V1.0.2/MSDK/lwip/lwip-2.1.2/src/api\api_lib.c ****  * @ingroup netconn_tcp
 773:C:/Users/stapi/OneDrive/Desktop/GD32VW553/GD32VW55X_Wifi_BLE_SDK/GD32VW55x_RELEASE_V1.0.2/MSDK/lwip/lwip-2.1.2/src/api\api_lib.c ****  * Receive data (in form of a pbuf) from a TCP netconn
 774:C:/Users/stapi/OneDrive/Desktop/GD32VW553/GD32VW55X_Wifi_BLE_SDK/GD32VW55x_RELEASE_V1.0.2/MSDK/lwip/lwip-2.1.2/src/api\api_lib.c ****  *
 775:C:/Users/stapi/OneDrive/Desktop/GD32VW553/GD32VW55X_Wifi_BLE_SDK/GD32VW55x_RELEASE_V1.0.2/MSDK/lwip/lwip-2.1.2/src/api\api_lib.c ****  * @param conn the netconn from which to receive data
 776:C:/Users/stapi/OneDrive/Desktop/GD32VW553/GD32VW55X_Wifi_BLE_SDK/GD32VW55x_RELEASE_V1.0.2/MSDK/lwip/lwip-2.1.2/src/api\api_lib.c ****  * @param new_buf pointer where a new pbuf is stored when received data
 777:C:/Users/stapi/OneDrive/Desktop/GD32VW553/GD32VW55X_Wifi_BLE_SDK/GD32VW55x_RELEASE_V1.0.2/MSDK/lwip/lwip-2.1.2/src/api\api_lib.c ****  * @return ERR_OK if data has been received, an error code otherwise (timeout,
 778:C:/Users/stapi/OneDrive/Desktop/GD32VW553/GD32VW55X_Wifi_BLE_SDK/GD32VW55x_RELEASE_V1.0.2/MSDK/lwip/lwip-2.1.2/src/api\api_lib.c ****  *                memory error or another error, @see netconn_recv_data)
 779:C:/Users/stapi/OneDrive/Desktop/GD32VW553/GD32VW55X_Wifi_BLE_SDK/GD32VW55x_RELEASE_V1.0.2/MSDK/lwip/lwip-2.1.2/src/api\api_lib.c ****  *         ERR_ARG if conn is not a TCP netconn
 780:C:/Users/stapi/OneDrive/Desktop/GD32VW553/GD32VW55X_Wifi_BLE_SDK/GD32VW55x_RELEASE_V1.0.2/MSDK/lwip/lwip-2.1.2/src/api\api_lib.c ****  */
 781:C:/Users/stapi/OneDrive/Desktop/GD32VW553/GD32VW55X_Wifi_BLE_SDK/GD32VW55x_RELEASE_V1.0.2/MSDK/lwip/lwip-2.1.2/src/api\api_lib.c **** err_t
 782:C:/Users/stapi/OneDrive/Desktop/GD32VW553/GD32VW55X_Wifi_BLE_SDK/GD32VW55x_RELEASE_V1.0.2/MSDK/lwip/lwip-2.1.2/src/api\api_lib.c **** netconn_recv_tcp_pbuf(struct netconn *conn, struct pbuf **new_buf)
 783:C:/Users/stapi/OneDrive/Desktop/GD32VW553/GD32VW55X_Wifi_BLE_SDK/GD32VW55x_RELEASE_V1.0.2/MSDK/lwip/lwip-2.1.2/src/api\api_lib.c **** {
 784:C:/Users/stapi/OneDrive/Desktop/GD32VW553/GD32VW55X_Wifi_BLE_SDK/GD32VW55x_RELEASE_V1.0.2/MSDK/lwip/lwip-2.1.2/src/api\api_lib.c ****   LWIP_ERROR("netconn_recv_tcp_pbuf: invalid conn", (conn != NULL) &&
 785:C:/Users/stapi/OneDrive/Desktop/GD32VW553/GD32VW55X_Wifi_BLE_SDK/GD32VW55x_RELEASE_V1.0.2/MSDK/lwip/lwip-2.1.2/src/api\api_lib.c ****              NETCONNTYPE_GROUP(netconn_type(conn)) == NETCONN_TCP, return ERR_ARG;);
 786:C:/Users/stapi/OneDrive/Desktop/GD32VW553/GD32VW55X_Wifi_BLE_SDK/GD32VW55x_RELEASE_V1.0.2/MSDK/lwip/lwip-2.1.2/src/api\api_lib.c **** 
 787:C:/Users/stapi/OneDrive/Desktop/GD32VW553/GD32VW55X_Wifi_BLE_SDK/GD32VW55x_RELEASE_V1.0.2/MSDK/lwip/lwip-2.1.2/src/api\api_lib.c ****   return netconn_recv_data_tcp(conn, new_buf, 0);
 788:C:/Users/stapi/OneDrive/Desktop/GD32VW553/GD32VW55X_Wifi_BLE_SDK/GD32VW55x_RELEASE_V1.0.2/MSDK/lwip/lwip-2.1.2/src/api\api_lib.c **** }
 789:C:/Users/stapi/OneDrive/Desktop/GD32VW553/GD32VW55X_Wifi_BLE_SDK/GD32VW55x_RELEASE_V1.0.2/MSDK/lwip/lwip-2.1.2/src/api\api_lib.c **** 
 790:C:/Users/stapi/OneDrive/Desktop/GD32VW553/GD32VW55X_Wifi_BLE_SDK/GD32VW55x_RELEASE_V1.0.2/MSDK/lwip/lwip-2.1.2/src/api\api_lib.c **** /**
 791:C:/Users/stapi/OneDrive/Desktop/GD32VW553/GD32VW55X_Wifi_BLE_SDK/GD32VW55x_RELEASE_V1.0.2/MSDK/lwip/lwip-2.1.2/src/api\api_lib.c ****  * @ingroup netconn_tcp
 792:C:/Users/stapi/OneDrive/Desktop/GD32VW553/GD32VW55X_Wifi_BLE_SDK/GD32VW55x_RELEASE_V1.0.2/MSDK/lwip/lwip-2.1.2/src/api\api_lib.c ****  * Receive data (in form of a pbuf) from a TCP netconn
 793:C:/Users/stapi/OneDrive/Desktop/GD32VW553/GD32VW55X_Wifi_BLE_SDK/GD32VW55x_RELEASE_V1.0.2/MSDK/lwip/lwip-2.1.2/src/api\api_lib.c ****  *
 794:C:/Users/stapi/OneDrive/Desktop/GD32VW553/GD32VW55X_Wifi_BLE_SDK/GD32VW55x_RELEASE_V1.0.2/MSDK/lwip/lwip-2.1.2/src/api\api_lib.c ****  * @param conn the netconn from which to receive data
 795:C:/Users/stapi/OneDrive/Desktop/GD32VW553/GD32VW55X_Wifi_BLE_SDK/GD32VW55x_RELEASE_V1.0.2/MSDK/lwip/lwip-2.1.2/src/api\api_lib.c ****  * @param new_buf pointer where a new pbuf is stored when received data
 796:C:/Users/stapi/OneDrive/Desktop/GD32VW553/GD32VW55X_Wifi_BLE_SDK/GD32VW55x_RELEASE_V1.0.2/MSDK/lwip/lwip-2.1.2/src/api\api_lib.c ****  * @param apiflags flags that control function behaviour. For now only:
 797:C:/Users/stapi/OneDrive/Desktop/GD32VW553/GD32VW55X_Wifi_BLE_SDK/GD32VW55x_RELEASE_V1.0.2/MSDK/lwip/lwip-2.1.2/src/api\api_lib.c ****  * - NETCONN_DONTBLOCK: only read data that is available now, don't wait for more data
 798:C:/Users/stapi/OneDrive/Desktop/GD32VW553/GD32VW55X_Wifi_BLE_SDK/GD32VW55x_RELEASE_V1.0.2/MSDK/lwip/lwip-2.1.2/src/api\api_lib.c ****  * @return ERR_OK if data has been received, an error code otherwise (timeout,
 799:C:/Users/stapi/OneDrive/Desktop/GD32VW553/GD32VW55X_Wifi_BLE_SDK/GD32VW55x_RELEASE_V1.0.2/MSDK/lwip/lwip-2.1.2/src/api\api_lib.c ****  *                memory error or another error, @see netconn_recv_data)
 800:C:/Users/stapi/OneDrive/Desktop/GD32VW553/GD32VW55X_Wifi_BLE_SDK/GD32VW55x_RELEASE_V1.0.2/MSDK/lwip/lwip-2.1.2/src/api\api_lib.c ****  *         ERR_ARG if conn is not a TCP netconn
 801:C:/Users/stapi/OneDrive/Desktop/GD32VW553/GD32VW55X_Wifi_BLE_SDK/GD32VW55x_RELEASE_V1.0.2/MSDK/lwip/lwip-2.1.2/src/api\api_lib.c ****  */
 802:C:/Users/stapi/OneDrive/Desktop/GD32VW553/GD32VW55X_Wifi_BLE_SDK/GD32VW55x_RELEASE_V1.0.2/MSDK/lwip/lwip-2.1.2/src/api\api_lib.c **** err_t
 803:C:/Users/stapi/OneDrive/Desktop/GD32VW553/GD32VW55X_Wifi_BLE_SDK/GD32VW55x_RELEASE_V1.0.2/MSDK/lwip/lwip-2.1.2/src/api\api_lib.c **** netconn_recv_tcp_pbuf_flags(struct netconn *conn, struct pbuf **new_buf, u8_t apiflags)
 804:C:/Users/stapi/OneDrive/Desktop/GD32VW553/GD32VW55X_Wifi_BLE_SDK/GD32VW55x_RELEASE_V1.0.2/MSDK/lwip/lwip-2.1.2/src/api\api_lib.c **** {
 805:C:/Users/stapi/OneDrive/Desktop/GD32VW553/GD32VW55X_Wifi_BLE_SDK/GD32VW55x_RELEASE_V1.0.2/MSDK/lwip/lwip-2.1.2/src/api\api_lib.c ****   LWIP_ERROR("netconn_recv_tcp_pbuf: invalid conn", (conn != NULL) &&
 806:C:/Users/stapi/OneDrive/Desktop/GD32VW553/GD32VW55X_Wifi_BLE_SDK/GD32VW55x_RELEASE_V1.0.2/MSDK/lwip/lwip-2.1.2/src/api\api_lib.c ****              NETCONNTYPE_GROUP(netconn_type(conn)) == NETCONN_TCP, return ERR_ARG;);
 807:C:/Users/stapi/OneDrive/Desktop/GD32VW553/GD32VW55X_Wifi_BLE_SDK/GD32VW55x_RELEASE_V1.0.2/MSDK/lwip/lwip-2.1.2/src/api\api_lib.c **** 
 808:C:/Users/stapi/OneDrive/Desktop/GD32VW553/GD32VW55X_Wifi_BLE_SDK/GD32VW55x_RELEASE_V1.0.2/MSDK/lwip/lwip-2.1.2/src/api\api_lib.c ****   return netconn_recv_data_tcp(conn, new_buf, apiflags);
 809:C:/Users/stapi/OneDrive/Desktop/GD32VW553/GD32VW55X_Wifi_BLE_SDK/GD32VW55x_RELEASE_V1.0.2/MSDK/lwip/lwip-2.1.2/src/api\api_lib.c **** }
 810:C:/Users/stapi/OneDrive/Desktop/GD32VW553/GD32VW55X_Wifi_BLE_SDK/GD32VW55x_RELEASE_V1.0.2/MSDK/lwip/lwip-2.1.2/src/api\api_lib.c **** #endif /* LWIP_TCP */
 811:C:/Users/stapi/OneDrive/Desktop/GD32VW553/GD32VW55X_Wifi_BLE_SDK/GD32VW55x_RELEASE_V1.0.2/MSDK/lwip/lwip-2.1.2/src/api\api_lib.c **** 
 812:C:/Users/stapi/OneDrive/Desktop/GD32VW553/GD32VW55X_Wifi_BLE_SDK/GD32VW55x_RELEASE_V1.0.2/MSDK/lwip/lwip-2.1.2/src/api\api_lib.c **** /**
 813:C:/Users/stapi/OneDrive/Desktop/GD32VW553/GD32VW55X_Wifi_BLE_SDK/GD32VW55x_RELEASE_V1.0.2/MSDK/lwip/lwip-2.1.2/src/api\api_lib.c ****  * Receive data (in form of a netbuf) from a UDP or RAW netconn
 814:C:/Users/stapi/OneDrive/Desktop/GD32VW553/GD32VW55X_Wifi_BLE_SDK/GD32VW55x_RELEASE_V1.0.2/MSDK/lwip/lwip-2.1.2/src/api\api_lib.c ****  *
 815:C:/Users/stapi/OneDrive/Desktop/GD32VW553/GD32VW55X_Wifi_BLE_SDK/GD32VW55x_RELEASE_V1.0.2/MSDK/lwip/lwip-2.1.2/src/api\api_lib.c ****  * @param conn the netconn from which to receive data
 816:C:/Users/stapi/OneDrive/Desktop/GD32VW553/GD32VW55X_Wifi_BLE_SDK/GD32VW55x_RELEASE_V1.0.2/MSDK/lwip/lwip-2.1.2/src/api\api_lib.c ****  * @param new_buf pointer where a new netbuf is stored when received data
 817:C:/Users/stapi/OneDrive/Desktop/GD32VW553/GD32VW55X_Wifi_BLE_SDK/GD32VW55x_RELEASE_V1.0.2/MSDK/lwip/lwip-2.1.2/src/api\api_lib.c ****  * @return ERR_OK if data has been received, an error code otherwise (timeout,
 818:C:/Users/stapi/OneDrive/Desktop/GD32VW553/GD32VW55X_Wifi_BLE_SDK/GD32VW55x_RELEASE_V1.0.2/MSDK/lwip/lwip-2.1.2/src/api\api_lib.c ****  *                memory error or another error)
 819:C:/Users/stapi/OneDrive/Desktop/GD32VW553/GD32VW55X_Wifi_BLE_SDK/GD32VW55x_RELEASE_V1.0.2/MSDK/lwip/lwip-2.1.2/src/api\api_lib.c ****  *         ERR_ARG if conn is not a UDP/RAW netconn
 820:C:/Users/stapi/OneDrive/Desktop/GD32VW553/GD32VW55X_Wifi_BLE_SDK/GD32VW55x_RELEASE_V1.0.2/MSDK/lwip/lwip-2.1.2/src/api\api_lib.c ****  */
 821:C:/Users/stapi/OneDrive/Desktop/GD32VW553/GD32VW55X_Wifi_BLE_SDK/GD32VW55x_RELEASE_V1.0.2/MSDK/lwip/lwip-2.1.2/src/api\api_lib.c **** err_t
 822:C:/Users/stapi/OneDrive/Desktop/GD32VW553/GD32VW55X_Wifi_BLE_SDK/GD32VW55x_RELEASE_V1.0.2/MSDK/lwip/lwip-2.1.2/src/api\api_lib.c **** netconn_recv_udp_raw_netbuf(struct netconn *conn, struct netbuf **new_buf)
 823:C:/Users/stapi/OneDrive/Desktop/GD32VW553/GD32VW55X_Wifi_BLE_SDK/GD32VW55x_RELEASE_V1.0.2/MSDK/lwip/lwip-2.1.2/src/api\api_lib.c **** {
 824:C:/Users/stapi/OneDrive/Desktop/GD32VW553/GD32VW55X_Wifi_BLE_SDK/GD32VW55x_RELEASE_V1.0.2/MSDK/lwip/lwip-2.1.2/src/api\api_lib.c ****   LWIP_ERROR("netconn_recv_udp_raw_netbuf: invalid conn", (conn != NULL) &&
 825:C:/Users/stapi/OneDrive/Desktop/GD32VW553/GD32VW55X_Wifi_BLE_SDK/GD32VW55x_RELEASE_V1.0.2/MSDK/lwip/lwip-2.1.2/src/api\api_lib.c ****              NETCONNTYPE_GROUP(netconn_type(conn)) != NETCONN_TCP, return ERR_ARG;);
 826:C:/Users/stapi/OneDrive/Desktop/GD32VW553/GD32VW55X_Wifi_BLE_SDK/GD32VW55x_RELEASE_V1.0.2/MSDK/lwip/lwip-2.1.2/src/api\api_lib.c **** 
 827:C:/Users/stapi/OneDrive/Desktop/GD32VW553/GD32VW55X_Wifi_BLE_SDK/GD32VW55x_RELEASE_V1.0.2/MSDK/lwip/lwip-2.1.2/src/api\api_lib.c ****   return netconn_recv_data(conn, (void **)new_buf, 0);
 828:C:/Users/stapi/OneDrive/Desktop/GD32VW553/GD32VW55X_Wifi_BLE_SDK/GD32VW55x_RELEASE_V1.0.2/MSDK/lwip/lwip-2.1.2/src/api\api_lib.c **** }
 829:C:/Users/stapi/OneDrive/Desktop/GD32VW553/GD32VW55X_Wifi_BLE_SDK/GD32VW55x_RELEASE_V1.0.2/MSDK/lwip/lwip-2.1.2/src/api\api_lib.c **** 
 830:C:/Users/stapi/OneDrive/Desktop/GD32VW553/GD32VW55X_Wifi_BLE_SDK/GD32VW55x_RELEASE_V1.0.2/MSDK/lwip/lwip-2.1.2/src/api\api_lib.c **** /**
 831:C:/Users/stapi/OneDrive/Desktop/GD32VW553/GD32VW55X_Wifi_BLE_SDK/GD32VW55x_RELEASE_V1.0.2/MSDK/lwip/lwip-2.1.2/src/api\api_lib.c ****  * Receive data (in form of a netbuf) from a UDP or RAW netconn
 832:C:/Users/stapi/OneDrive/Desktop/GD32VW553/GD32VW55X_Wifi_BLE_SDK/GD32VW55x_RELEASE_V1.0.2/MSDK/lwip/lwip-2.1.2/src/api\api_lib.c ****  *
 833:C:/Users/stapi/OneDrive/Desktop/GD32VW553/GD32VW55X_Wifi_BLE_SDK/GD32VW55x_RELEASE_V1.0.2/MSDK/lwip/lwip-2.1.2/src/api\api_lib.c ****  * @param conn the netconn from which to receive data
 834:C:/Users/stapi/OneDrive/Desktop/GD32VW553/GD32VW55X_Wifi_BLE_SDK/GD32VW55x_RELEASE_V1.0.2/MSDK/lwip/lwip-2.1.2/src/api\api_lib.c ****  * @param new_buf pointer where a new netbuf is stored when received data
 835:C:/Users/stapi/OneDrive/Desktop/GD32VW553/GD32VW55X_Wifi_BLE_SDK/GD32VW55x_RELEASE_V1.0.2/MSDK/lwip/lwip-2.1.2/src/api\api_lib.c ****  * @param apiflags flags that control function behaviour. For now only:
 836:C:/Users/stapi/OneDrive/Desktop/GD32VW553/GD32VW55X_Wifi_BLE_SDK/GD32VW55x_RELEASE_V1.0.2/MSDK/lwip/lwip-2.1.2/src/api\api_lib.c ****  * - NETCONN_DONTBLOCK: only read data that is available now, don't wait for more data
 837:C:/Users/stapi/OneDrive/Desktop/GD32VW553/GD32VW55X_Wifi_BLE_SDK/GD32VW55x_RELEASE_V1.0.2/MSDK/lwip/lwip-2.1.2/src/api\api_lib.c ****  * @return ERR_OK if data has been received, an error code otherwise (timeout,
 838:C:/Users/stapi/OneDrive/Desktop/GD32VW553/GD32VW55X_Wifi_BLE_SDK/GD32VW55x_RELEASE_V1.0.2/MSDK/lwip/lwip-2.1.2/src/api\api_lib.c ****  *                memory error or another error)
 839:C:/Users/stapi/OneDrive/Desktop/GD32VW553/GD32VW55X_Wifi_BLE_SDK/GD32VW55x_RELEASE_V1.0.2/MSDK/lwip/lwip-2.1.2/src/api\api_lib.c ****  *         ERR_ARG if conn is not a UDP/RAW netconn
 840:C:/Users/stapi/OneDrive/Desktop/GD32VW553/GD32VW55X_Wifi_BLE_SDK/GD32VW55x_RELEASE_V1.0.2/MSDK/lwip/lwip-2.1.2/src/api\api_lib.c ****  */
 841:C:/Users/stapi/OneDrive/Desktop/GD32VW553/GD32VW55X_Wifi_BLE_SDK/GD32VW55x_RELEASE_V1.0.2/MSDK/lwip/lwip-2.1.2/src/api\api_lib.c **** err_t
 842:C:/Users/stapi/OneDrive/Desktop/GD32VW553/GD32VW55X_Wifi_BLE_SDK/GD32VW55x_RELEASE_V1.0.2/MSDK/lwip/lwip-2.1.2/src/api\api_lib.c **** netconn_recv_udp_raw_netbuf_flags(struct netconn *conn, struct netbuf **new_buf, u8_t apiflags)
 843:C:/Users/stapi/OneDrive/Desktop/GD32VW553/GD32VW55X_Wifi_BLE_SDK/GD32VW55x_RELEASE_V1.0.2/MSDK/lwip/lwip-2.1.2/src/api\api_lib.c **** {
 844:C:/Users/stapi/OneDrive/Desktop/GD32VW553/GD32VW55X_Wifi_BLE_SDK/GD32VW55x_RELEASE_V1.0.2/MSDK/lwip/lwip-2.1.2/src/api\api_lib.c ****   LWIP_ERROR("netconn_recv_udp_raw_netbuf: invalid conn", (conn != NULL) &&
 845:C:/Users/stapi/OneDrive/Desktop/GD32VW553/GD32VW55X_Wifi_BLE_SDK/GD32VW55x_RELEASE_V1.0.2/MSDK/lwip/lwip-2.1.2/src/api\api_lib.c ****              NETCONNTYPE_GROUP(netconn_type(conn)) != NETCONN_TCP, return ERR_ARG;);
 846:C:/Users/stapi/OneDrive/Desktop/GD32VW553/GD32VW55X_Wifi_BLE_SDK/GD32VW55x_RELEASE_V1.0.2/MSDK/lwip/lwip-2.1.2/src/api\api_lib.c **** 
 847:C:/Users/stapi/OneDrive/Desktop/GD32VW553/GD32VW55X_Wifi_BLE_SDK/GD32VW55x_RELEASE_V1.0.2/MSDK/lwip/lwip-2.1.2/src/api\api_lib.c ****   return netconn_recv_data(conn, (void **)new_buf, apiflags);
 848:C:/Users/stapi/OneDrive/Desktop/GD32VW553/GD32VW55X_Wifi_BLE_SDK/GD32VW55x_RELEASE_V1.0.2/MSDK/lwip/lwip-2.1.2/src/api\api_lib.c **** }
 849:C:/Users/stapi/OneDrive/Desktop/GD32VW553/GD32VW55X_Wifi_BLE_SDK/GD32VW55x_RELEASE_V1.0.2/MSDK/lwip/lwip-2.1.2/src/api\api_lib.c **** 
 850:C:/Users/stapi/OneDrive/Desktop/GD32VW553/GD32VW55X_Wifi_BLE_SDK/GD32VW55x_RELEASE_V1.0.2/MSDK/lwip/lwip-2.1.2/src/api\api_lib.c **** /**
 851:C:/Users/stapi/OneDrive/Desktop/GD32VW553/GD32VW55X_Wifi_BLE_SDK/GD32VW55x_RELEASE_V1.0.2/MSDK/lwip/lwip-2.1.2/src/api\api_lib.c ****  * @ingroup netconn_common
 852:C:/Users/stapi/OneDrive/Desktop/GD32VW553/GD32VW55X_Wifi_BLE_SDK/GD32VW55x_RELEASE_V1.0.2/MSDK/lwip/lwip-2.1.2/src/api\api_lib.c ****  * Receive data (in form of a netbuf containing a packet buffer) from a netconn
 853:C:/Users/stapi/OneDrive/Desktop/GD32VW553/GD32VW55X_Wifi_BLE_SDK/GD32VW55x_RELEASE_V1.0.2/MSDK/lwip/lwip-2.1.2/src/api\api_lib.c ****  *
 854:C:/Users/stapi/OneDrive/Desktop/GD32VW553/GD32VW55X_Wifi_BLE_SDK/GD32VW55x_RELEASE_V1.0.2/MSDK/lwip/lwip-2.1.2/src/api\api_lib.c ****  * @param conn the netconn from which to receive data
 855:C:/Users/stapi/OneDrive/Desktop/GD32VW553/GD32VW55X_Wifi_BLE_SDK/GD32VW55x_RELEASE_V1.0.2/MSDK/lwip/lwip-2.1.2/src/api\api_lib.c ****  * @param new_buf pointer where a new netbuf is stored when received data
 856:C:/Users/stapi/OneDrive/Desktop/GD32VW553/GD32VW55X_Wifi_BLE_SDK/GD32VW55x_RELEASE_V1.0.2/MSDK/lwip/lwip-2.1.2/src/api\api_lib.c ****  * @return ERR_OK if data has been received, an error code otherwise (timeout,
 857:C:/Users/stapi/OneDrive/Desktop/GD32VW553/GD32VW55X_Wifi_BLE_SDK/GD32VW55x_RELEASE_V1.0.2/MSDK/lwip/lwip-2.1.2/src/api\api_lib.c ****  *                memory error or another error)
 858:C:/Users/stapi/OneDrive/Desktop/GD32VW553/GD32VW55X_Wifi_BLE_SDK/GD32VW55x_RELEASE_V1.0.2/MSDK/lwip/lwip-2.1.2/src/api\api_lib.c ****  */
 859:C:/Users/stapi/OneDrive/Desktop/GD32VW553/GD32VW55X_Wifi_BLE_SDK/GD32VW55x_RELEASE_V1.0.2/MSDK/lwip/lwip-2.1.2/src/api\api_lib.c **** err_t
 860:C:/Users/stapi/OneDrive/Desktop/GD32VW553/GD32VW55X_Wifi_BLE_SDK/GD32VW55x_RELEASE_V1.0.2/MSDK/lwip/lwip-2.1.2/src/api\api_lib.c **** netconn_recv(struct netconn *conn, struct netbuf **new_buf)
 861:C:/Users/stapi/OneDrive/Desktop/GD32VW553/GD32VW55X_Wifi_BLE_SDK/GD32VW55x_RELEASE_V1.0.2/MSDK/lwip/lwip-2.1.2/src/api\api_lib.c **** {
 862:C:/Users/stapi/OneDrive/Desktop/GD32VW553/GD32VW55X_Wifi_BLE_SDK/GD32VW55x_RELEASE_V1.0.2/MSDK/lwip/lwip-2.1.2/src/api\api_lib.c **** #if LWIP_TCP
 863:C:/Users/stapi/OneDrive/Desktop/GD32VW553/GD32VW55X_Wifi_BLE_SDK/GD32VW55x_RELEASE_V1.0.2/MSDK/lwip/lwip-2.1.2/src/api\api_lib.c ****   struct netbuf *buf = NULL;
 864:C:/Users/stapi/OneDrive/Desktop/GD32VW553/GD32VW55X_Wifi_BLE_SDK/GD32VW55x_RELEASE_V1.0.2/MSDK/lwip/lwip-2.1.2/src/api\api_lib.c ****   err_t err;
 865:C:/Users/stapi/OneDrive/Desktop/GD32VW553/GD32VW55X_Wifi_BLE_SDK/GD32VW55x_RELEASE_V1.0.2/MSDK/lwip/lwip-2.1.2/src/api\api_lib.c **** #endif /* LWIP_TCP */
 866:C:/Users/stapi/OneDrive/Desktop/GD32VW553/GD32VW55X_Wifi_BLE_SDK/GD32VW55x_RELEASE_V1.0.2/MSDK/lwip/lwip-2.1.2/src/api\api_lib.c **** 
 867:C:/Users/stapi/OneDrive/Desktop/GD32VW553/GD32VW55X_Wifi_BLE_SDK/GD32VW55x_RELEASE_V1.0.2/MSDK/lwip/lwip-2.1.2/src/api\api_lib.c ****   LWIP_ERROR("netconn_recv: invalid pointer", (new_buf != NULL), return ERR_ARG;);
 868:C:/Users/stapi/OneDrive/Desktop/GD32VW553/GD32VW55X_Wifi_BLE_SDK/GD32VW55x_RELEASE_V1.0.2/MSDK/lwip/lwip-2.1.2/src/api\api_lib.c ****   *new_buf = NULL;
 869:C:/Users/stapi/OneDrive/Desktop/GD32VW553/GD32VW55X_Wifi_BLE_SDK/GD32VW55x_RELEASE_V1.0.2/MSDK/lwip/lwip-2.1.2/src/api\api_lib.c ****   LWIP_ERROR("netconn_recv: invalid conn",    (conn != NULL),    return ERR_ARG;);
 870:C:/Users/stapi/OneDrive/Desktop/GD32VW553/GD32VW55X_Wifi_BLE_SDK/GD32VW55x_RELEASE_V1.0.2/MSDK/lwip/lwip-2.1.2/src/api\api_lib.c **** 
 871:C:/Users/stapi/OneDrive/Desktop/GD32VW553/GD32VW55X_Wifi_BLE_SDK/GD32VW55x_RELEASE_V1.0.2/MSDK/lwip/lwip-2.1.2/src/api\api_lib.c **** #if LWIP_TCP
 872:C:/Users/stapi/OneDrive/Desktop/GD32VW553/GD32VW55X_Wifi_BLE_SDK/GD32VW55x_RELEASE_V1.0.2/MSDK/lwip/lwip-2.1.2/src/api\api_lib.c **** #if (LWIP_UDP || LWIP_RAW)
 873:C:/Users/stapi/OneDrive/Desktop/GD32VW553/GD32VW55X_Wifi_BLE_SDK/GD32VW55x_RELEASE_V1.0.2/MSDK/lwip/lwip-2.1.2/src/api\api_lib.c ****   if (NETCONNTYPE_GROUP(conn->type) == NETCONN_TCP)
 874:C:/Users/stapi/OneDrive/Desktop/GD32VW553/GD32VW55X_Wifi_BLE_SDK/GD32VW55x_RELEASE_V1.0.2/MSDK/lwip/lwip-2.1.2/src/api\api_lib.c **** #endif /* (LWIP_UDP || LWIP_RAW) */
 875:C:/Users/stapi/OneDrive/Desktop/GD32VW553/GD32VW55X_Wifi_BLE_SDK/GD32VW55x_RELEASE_V1.0.2/MSDK/lwip/lwip-2.1.2/src/api\api_lib.c ****   {
 876:C:/Users/stapi/OneDrive/Desktop/GD32VW553/GD32VW55X_Wifi_BLE_SDK/GD32VW55x_RELEASE_V1.0.2/MSDK/lwip/lwip-2.1.2/src/api\api_lib.c ****     struct pbuf *p = NULL;
 877:C:/Users/stapi/OneDrive/Desktop/GD32VW553/GD32VW55X_Wifi_BLE_SDK/GD32VW55x_RELEASE_V1.0.2/MSDK/lwip/lwip-2.1.2/src/api\api_lib.c ****     /* This is not a listening netconn, since recvmbox is set */
 878:C:/Users/stapi/OneDrive/Desktop/GD32VW553/GD32VW55X_Wifi_BLE_SDK/GD32VW55x_RELEASE_V1.0.2/MSDK/lwip/lwip-2.1.2/src/api\api_lib.c **** 
 879:C:/Users/stapi/OneDrive/Desktop/GD32VW553/GD32VW55X_Wifi_BLE_SDK/GD32VW55x_RELEASE_V1.0.2/MSDK/lwip/lwip-2.1.2/src/api\api_lib.c ****     buf = (struct netbuf *)memp_malloc(MEMP_NETBUF);
 880:C:/Users/stapi/OneDrive/Desktop/GD32VW553/GD32VW55X_Wifi_BLE_SDK/GD32VW55x_RELEASE_V1.0.2/MSDK/lwip/lwip-2.1.2/src/api\api_lib.c ****     if (buf == NULL) {
 881:C:/Users/stapi/OneDrive/Desktop/GD32VW553/GD32VW55X_Wifi_BLE_SDK/GD32VW55x_RELEASE_V1.0.2/MSDK/lwip/lwip-2.1.2/src/api\api_lib.c ****       return ERR_MEM;
 882:C:/Users/stapi/OneDrive/Desktop/GD32VW553/GD32VW55X_Wifi_BLE_SDK/GD32VW55x_RELEASE_V1.0.2/MSDK/lwip/lwip-2.1.2/src/api\api_lib.c ****     }
 883:C:/Users/stapi/OneDrive/Desktop/GD32VW553/GD32VW55X_Wifi_BLE_SDK/GD32VW55x_RELEASE_V1.0.2/MSDK/lwip/lwip-2.1.2/src/api\api_lib.c **** 
 884:C:/Users/stapi/OneDrive/Desktop/GD32VW553/GD32VW55X_Wifi_BLE_SDK/GD32VW55x_RELEASE_V1.0.2/MSDK/lwip/lwip-2.1.2/src/api\api_lib.c ****     err = netconn_recv_data_tcp(conn, &p, 0);
 885:C:/Users/stapi/OneDrive/Desktop/GD32VW553/GD32VW55X_Wifi_BLE_SDK/GD32VW55x_RELEASE_V1.0.2/MSDK/lwip/lwip-2.1.2/src/api\api_lib.c ****     if (err != ERR_OK) {
 886:C:/Users/stapi/OneDrive/Desktop/GD32VW553/GD32VW55X_Wifi_BLE_SDK/GD32VW55x_RELEASE_V1.0.2/MSDK/lwip/lwip-2.1.2/src/api\api_lib.c ****       memp_free(MEMP_NETBUF, buf);
 887:C:/Users/stapi/OneDrive/Desktop/GD32VW553/GD32VW55X_Wifi_BLE_SDK/GD32VW55x_RELEASE_V1.0.2/MSDK/lwip/lwip-2.1.2/src/api\api_lib.c ****       return err;
 888:C:/Users/stapi/OneDrive/Desktop/GD32VW553/GD32VW55X_Wifi_BLE_SDK/GD32VW55x_RELEASE_V1.0.2/MSDK/lwip/lwip-2.1.2/src/api\api_lib.c ****     }
 889:C:/Users/stapi/OneDrive/Desktop/GD32VW553/GD32VW55X_Wifi_BLE_SDK/GD32VW55x_RELEASE_V1.0.2/MSDK/lwip/lwip-2.1.2/src/api\api_lib.c ****     LWIP_ASSERT("p != NULL", p != NULL);
 890:C:/Users/stapi/OneDrive/Desktop/GD32VW553/GD32VW55X_Wifi_BLE_SDK/GD32VW55x_RELEASE_V1.0.2/MSDK/lwip/lwip-2.1.2/src/api\api_lib.c **** 
 891:C:/Users/stapi/OneDrive/Desktop/GD32VW553/GD32VW55X_Wifi_BLE_SDK/GD32VW55x_RELEASE_V1.0.2/MSDK/lwip/lwip-2.1.2/src/api\api_lib.c ****     buf->p = p;
 892:C:/Users/stapi/OneDrive/Desktop/GD32VW553/GD32VW55X_Wifi_BLE_SDK/GD32VW55x_RELEASE_V1.0.2/MSDK/lwip/lwip-2.1.2/src/api\api_lib.c ****     buf->ptr = p;
 893:C:/Users/stapi/OneDrive/Desktop/GD32VW553/GD32VW55X_Wifi_BLE_SDK/GD32VW55x_RELEASE_V1.0.2/MSDK/lwip/lwip-2.1.2/src/api\api_lib.c ****     buf->port = 0;
 894:C:/Users/stapi/OneDrive/Desktop/GD32VW553/GD32VW55X_Wifi_BLE_SDK/GD32VW55x_RELEASE_V1.0.2/MSDK/lwip/lwip-2.1.2/src/api\api_lib.c ****     ip_addr_set_zero(&buf->addr);
 895:C:/Users/stapi/OneDrive/Desktop/GD32VW553/GD32VW55X_Wifi_BLE_SDK/GD32VW55x_RELEASE_V1.0.2/MSDK/lwip/lwip-2.1.2/src/api\api_lib.c ****     *new_buf = buf;
 896:C:/Users/stapi/OneDrive/Desktop/GD32VW553/GD32VW55X_Wifi_BLE_SDK/GD32VW55x_RELEASE_V1.0.2/MSDK/lwip/lwip-2.1.2/src/api\api_lib.c ****     /* don't set conn->last_err: it's only ERR_OK, anyway */
 897:C:/Users/stapi/OneDrive/Desktop/GD32VW553/GD32VW55X_Wifi_BLE_SDK/GD32VW55x_RELEASE_V1.0.2/MSDK/lwip/lwip-2.1.2/src/api\api_lib.c ****     return ERR_OK;
 898:C:/Users/stapi/OneDrive/Desktop/GD32VW553/GD32VW55X_Wifi_BLE_SDK/GD32VW55x_RELEASE_V1.0.2/MSDK/lwip/lwip-2.1.2/src/api\api_lib.c ****   }
 899:C:/Users/stapi/OneDrive/Desktop/GD32VW553/GD32VW55X_Wifi_BLE_SDK/GD32VW55x_RELEASE_V1.0.2/MSDK/lwip/lwip-2.1.2/src/api\api_lib.c **** #endif /* LWIP_TCP */
 900:C:/Users/stapi/OneDrive/Desktop/GD32VW553/GD32VW55X_Wifi_BLE_SDK/GD32VW55x_RELEASE_V1.0.2/MSDK/lwip/lwip-2.1.2/src/api\api_lib.c **** #if LWIP_TCP && (LWIP_UDP || LWIP_RAW)
 901:C:/Users/stapi/OneDrive/Desktop/GD32VW553/GD32VW55X_Wifi_BLE_SDK/GD32VW55x_RELEASE_V1.0.2/MSDK/lwip/lwip-2.1.2/src/api\api_lib.c ****   else
 902:C:/Users/stapi/OneDrive/Desktop/GD32VW553/GD32VW55X_Wifi_BLE_SDK/GD32VW55x_RELEASE_V1.0.2/MSDK/lwip/lwip-2.1.2/src/api\api_lib.c **** #endif /* LWIP_TCP && (LWIP_UDP || LWIP_RAW) */
 903:C:/Users/stapi/OneDrive/Desktop/GD32VW553/GD32VW55X_Wifi_BLE_SDK/GD32VW55x_RELEASE_V1.0.2/MSDK/lwip/lwip-2.1.2/src/api\api_lib.c ****   {
 904:C:/Users/stapi/OneDrive/Desktop/GD32VW553/GD32VW55X_Wifi_BLE_SDK/GD32VW55x_RELEASE_V1.0.2/MSDK/lwip/lwip-2.1.2/src/api\api_lib.c **** #if (LWIP_UDP || LWIP_RAW)
 905:C:/Users/stapi/OneDrive/Desktop/GD32VW553/GD32VW55X_Wifi_BLE_SDK/GD32VW55x_RELEASE_V1.0.2/MSDK/lwip/lwip-2.1.2/src/api\api_lib.c ****     return netconn_recv_data(conn, (void **)new_buf, 0);
 906:C:/Users/stapi/OneDrive/Desktop/GD32VW553/GD32VW55X_Wifi_BLE_SDK/GD32VW55x_RELEASE_V1.0.2/MSDK/lwip/lwip-2.1.2/src/api\api_lib.c **** #endif /* (LWIP_UDP || LWIP_RAW) */
 907:C:/Users/stapi/OneDrive/Desktop/GD32VW553/GD32VW55X_Wifi_BLE_SDK/GD32VW55x_RELEASE_V1.0.2/MSDK/lwip/lwip-2.1.2/src/api\api_lib.c ****   }
 908:C:/Users/stapi/OneDrive/Desktop/GD32VW553/GD32VW55X_Wifi_BLE_SDK/GD32VW55x_RELEASE_V1.0.2/MSDK/lwip/lwip-2.1.2/src/api\api_lib.c **** }
 909:C:/Users/stapi/OneDrive/Desktop/GD32VW553/GD32VW55X_Wifi_BLE_SDK/GD32VW55x_RELEASE_V1.0.2/MSDK/lwip/lwip-2.1.2/src/api\api_lib.c **** 
 910:C:/Users/stapi/OneDrive/Desktop/GD32VW553/GD32VW55X_Wifi_BLE_SDK/GD32VW55x_RELEASE_V1.0.2/MSDK/lwip/lwip-2.1.2/src/api\api_lib.c **** /**
 911:C:/Users/stapi/OneDrive/Desktop/GD32VW553/GD32VW55X_Wifi_BLE_SDK/GD32VW55x_RELEASE_V1.0.2/MSDK/lwip/lwip-2.1.2/src/api\api_lib.c ****  * @ingroup netconn_udp
 912:C:/Users/stapi/OneDrive/Desktop/GD32VW553/GD32VW55X_Wifi_BLE_SDK/GD32VW55x_RELEASE_V1.0.2/MSDK/lwip/lwip-2.1.2/src/api\api_lib.c ****  * Send data (in form of a netbuf) to a specific remote IP address and port.
 913:C:/Users/stapi/OneDrive/Desktop/GD32VW553/GD32VW55X_Wifi_BLE_SDK/GD32VW55x_RELEASE_V1.0.2/MSDK/lwip/lwip-2.1.2/src/api\api_lib.c ****  * Only to be used for UDP and RAW netconns (not TCP).
 914:C:/Users/stapi/OneDrive/Desktop/GD32VW553/GD32VW55X_Wifi_BLE_SDK/GD32VW55x_RELEASE_V1.0.2/MSDK/lwip/lwip-2.1.2/src/api\api_lib.c ****  *
 915:C:/Users/stapi/OneDrive/Desktop/GD32VW553/GD32VW55X_Wifi_BLE_SDK/GD32VW55x_RELEASE_V1.0.2/MSDK/lwip/lwip-2.1.2/src/api\api_lib.c ****  * @param conn the netconn over which to send data
 916:C:/Users/stapi/OneDrive/Desktop/GD32VW553/GD32VW55X_Wifi_BLE_SDK/GD32VW55x_RELEASE_V1.0.2/MSDK/lwip/lwip-2.1.2/src/api\api_lib.c ****  * @param buf a netbuf containing the data to send
 917:C:/Users/stapi/OneDrive/Desktop/GD32VW553/GD32VW55X_Wifi_BLE_SDK/GD32VW55x_RELEASE_V1.0.2/MSDK/lwip/lwip-2.1.2/src/api\api_lib.c ****  * @param addr the remote IP address to which to send the data
 918:C:/Users/stapi/OneDrive/Desktop/GD32VW553/GD32VW55X_Wifi_BLE_SDK/GD32VW55x_RELEASE_V1.0.2/MSDK/lwip/lwip-2.1.2/src/api\api_lib.c ****  * @param port the remote port to which to send the data
 919:C:/Users/stapi/OneDrive/Desktop/GD32VW553/GD32VW55X_Wifi_BLE_SDK/GD32VW55x_RELEASE_V1.0.2/MSDK/lwip/lwip-2.1.2/src/api\api_lib.c ****  * @return ERR_OK if data was sent, any other err_t on error
 920:C:/Users/stapi/OneDrive/Desktop/GD32VW553/GD32VW55X_Wifi_BLE_SDK/GD32VW55x_RELEASE_V1.0.2/MSDK/lwip/lwip-2.1.2/src/api\api_lib.c ****  */
 921:C:/Users/stapi/OneDrive/Desktop/GD32VW553/GD32VW55X_Wifi_BLE_SDK/GD32VW55x_RELEASE_V1.0.2/MSDK/lwip/lwip-2.1.2/src/api\api_lib.c **** err_t
 922:C:/Users/stapi/OneDrive/Desktop/GD32VW553/GD32VW55X_Wifi_BLE_SDK/GD32VW55x_RELEASE_V1.0.2/MSDK/lwip/lwip-2.1.2/src/api\api_lib.c **** netconn_sendto(struct netconn *conn, struct netbuf *buf, const ip_addr_t *addr, u16_t port)
 923:C:/Users/stapi/OneDrive/Desktop/GD32VW553/GD32VW55X_Wifi_BLE_SDK/GD32VW55x_RELEASE_V1.0.2/MSDK/lwip/lwip-2.1.2/src/api\api_lib.c **** {
 924:C:/Users/stapi/OneDrive/Desktop/GD32VW553/GD32VW55X_Wifi_BLE_SDK/GD32VW55x_RELEASE_V1.0.2/MSDK/lwip/lwip-2.1.2/src/api\api_lib.c ****   if (buf != NULL) {
 925:C:/Users/stapi/OneDrive/Desktop/GD32VW553/GD32VW55X_Wifi_BLE_SDK/GD32VW55x_RELEASE_V1.0.2/MSDK/lwip/lwip-2.1.2/src/api\api_lib.c ****     ip_addr_set(&buf->addr, addr);
 926:C:/Users/stapi/OneDrive/Desktop/GD32VW553/GD32VW55X_Wifi_BLE_SDK/GD32VW55x_RELEASE_V1.0.2/MSDK/lwip/lwip-2.1.2/src/api\api_lib.c ****     buf->port = port;
 927:C:/Users/stapi/OneDrive/Desktop/GD32VW553/GD32VW55X_Wifi_BLE_SDK/GD32VW55x_RELEASE_V1.0.2/MSDK/lwip/lwip-2.1.2/src/api\api_lib.c ****     return netconn_send(conn, buf);
 928:C:/Users/stapi/OneDrive/Desktop/GD32VW553/GD32VW55X_Wifi_BLE_SDK/GD32VW55x_RELEASE_V1.0.2/MSDK/lwip/lwip-2.1.2/src/api\api_lib.c ****   }
 929:C:/Users/stapi/OneDrive/Desktop/GD32VW553/GD32VW55X_Wifi_BLE_SDK/GD32VW55x_RELEASE_V1.0.2/MSDK/lwip/lwip-2.1.2/src/api\api_lib.c ****   return ERR_VAL;
 930:C:/Users/stapi/OneDrive/Desktop/GD32VW553/GD32VW55X_Wifi_BLE_SDK/GD32VW55x_RELEASE_V1.0.2/MSDK/lwip/lwip-2.1.2/src/api\api_lib.c **** }
 931:C:/Users/stapi/OneDrive/Desktop/GD32VW553/GD32VW55X_Wifi_BLE_SDK/GD32VW55x_RELEASE_V1.0.2/MSDK/lwip/lwip-2.1.2/src/api\api_lib.c **** 
 932:C:/Users/stapi/OneDrive/Desktop/GD32VW553/GD32VW55X_Wifi_BLE_SDK/GD32VW55x_RELEASE_V1.0.2/MSDK/lwip/lwip-2.1.2/src/api\api_lib.c **** /**
 933:C:/Users/stapi/OneDrive/Desktop/GD32VW553/GD32VW55X_Wifi_BLE_SDK/GD32VW55x_RELEASE_V1.0.2/MSDK/lwip/lwip-2.1.2/src/api\api_lib.c ****  * @ingroup netconn_udp
 934:C:/Users/stapi/OneDrive/Desktop/GD32VW553/GD32VW55X_Wifi_BLE_SDK/GD32VW55x_RELEASE_V1.0.2/MSDK/lwip/lwip-2.1.2/src/api\api_lib.c ****  * Send data over a UDP or RAW netconn (that is already connected).
 935:C:/Users/stapi/OneDrive/Desktop/GD32VW553/GD32VW55X_Wifi_BLE_SDK/GD32VW55x_RELEASE_V1.0.2/MSDK/lwip/lwip-2.1.2/src/api\api_lib.c ****  *
 936:C:/Users/stapi/OneDrive/Desktop/GD32VW553/GD32VW55X_Wifi_BLE_SDK/GD32VW55x_RELEASE_V1.0.2/MSDK/lwip/lwip-2.1.2/src/api\api_lib.c ****  * @param conn the UDP or RAW netconn over which to send data
 937:C:/Users/stapi/OneDrive/Desktop/GD32VW553/GD32VW55X_Wifi_BLE_SDK/GD32VW55x_RELEASE_V1.0.2/MSDK/lwip/lwip-2.1.2/src/api\api_lib.c ****  * @param buf a netbuf containing the data to send
 938:C:/Users/stapi/OneDrive/Desktop/GD32VW553/GD32VW55X_Wifi_BLE_SDK/GD32VW55x_RELEASE_V1.0.2/MSDK/lwip/lwip-2.1.2/src/api\api_lib.c ****  * @return ERR_OK if data was sent, any other err_t on error
 939:C:/Users/stapi/OneDrive/Desktop/GD32VW553/GD32VW55X_Wifi_BLE_SDK/GD32VW55x_RELEASE_V1.0.2/MSDK/lwip/lwip-2.1.2/src/api\api_lib.c ****  */
 940:C:/Users/stapi/OneDrive/Desktop/GD32VW553/GD32VW55X_Wifi_BLE_SDK/GD32VW55x_RELEASE_V1.0.2/MSDK/lwip/lwip-2.1.2/src/api\api_lib.c **** err_t
 941:C:/Users/stapi/OneDrive/Desktop/GD32VW553/GD32VW55X_Wifi_BLE_SDK/GD32VW55x_RELEASE_V1.0.2/MSDK/lwip/lwip-2.1.2/src/api\api_lib.c **** netconn_send(struct netconn *conn, struct netbuf *buf)
 942:C:/Users/stapi/OneDrive/Desktop/GD32VW553/GD32VW55X_Wifi_BLE_SDK/GD32VW55x_RELEASE_V1.0.2/MSDK/lwip/lwip-2.1.2/src/api\api_lib.c **** {
 943:C:/Users/stapi/OneDrive/Desktop/GD32VW553/GD32VW55X_Wifi_BLE_SDK/GD32VW55x_RELEASE_V1.0.2/MSDK/lwip/lwip-2.1.2/src/api\api_lib.c ****   API_MSG_VAR_DECLARE(msg);
 944:C:/Users/stapi/OneDrive/Desktop/GD32VW553/GD32VW55X_Wifi_BLE_SDK/GD32VW55x_RELEASE_V1.0.2/MSDK/lwip/lwip-2.1.2/src/api\api_lib.c ****   err_t err;
 945:C:/Users/stapi/OneDrive/Desktop/GD32VW553/GD32VW55X_Wifi_BLE_SDK/GD32VW55x_RELEASE_V1.0.2/MSDK/lwip/lwip-2.1.2/src/api\api_lib.c **** 
 946:C:/Users/stapi/OneDrive/Desktop/GD32VW553/GD32VW55X_Wifi_BLE_SDK/GD32VW55x_RELEASE_V1.0.2/MSDK/lwip/lwip-2.1.2/src/api\api_lib.c ****   LWIP_ERROR("netconn_send: invalid conn",  (conn != NULL), return ERR_ARG;);
 947:C:/Users/stapi/OneDrive/Desktop/GD32VW553/GD32VW55X_Wifi_BLE_SDK/GD32VW55x_RELEASE_V1.0.2/MSDK/lwip/lwip-2.1.2/src/api\api_lib.c **** 
 948:C:/Users/stapi/OneDrive/Desktop/GD32VW553/GD32VW55X_Wifi_BLE_SDK/GD32VW55x_RELEASE_V1.0.2/MSDK/lwip/lwip-2.1.2/src/api\api_lib.c ****   LWIP_DEBUGF(API_LIB_DEBUG, ("netconn_send: sending %"U16_F" bytes\n", buf->p->tot_len));
 949:C:/Users/stapi/OneDrive/Desktop/GD32VW553/GD32VW55X_Wifi_BLE_SDK/GD32VW55x_RELEASE_V1.0.2/MSDK/lwip/lwip-2.1.2/src/api\api_lib.c **** 
 950:C:/Users/stapi/OneDrive/Desktop/GD32VW553/GD32VW55X_Wifi_BLE_SDK/GD32VW55x_RELEASE_V1.0.2/MSDK/lwip/lwip-2.1.2/src/api\api_lib.c ****   API_MSG_VAR_ALLOC(msg);
 951:C:/Users/stapi/OneDrive/Desktop/GD32VW553/GD32VW55X_Wifi_BLE_SDK/GD32VW55x_RELEASE_V1.0.2/MSDK/lwip/lwip-2.1.2/src/api\api_lib.c ****   API_MSG_VAR_REF(msg).conn = conn;
 952:C:/Users/stapi/OneDrive/Desktop/GD32VW553/GD32VW55X_Wifi_BLE_SDK/GD32VW55x_RELEASE_V1.0.2/MSDK/lwip/lwip-2.1.2/src/api\api_lib.c ****   API_MSG_VAR_REF(msg).msg.b = buf;
 953:C:/Users/stapi/OneDrive/Desktop/GD32VW553/GD32VW55X_Wifi_BLE_SDK/GD32VW55x_RELEASE_V1.0.2/MSDK/lwip/lwip-2.1.2/src/api\api_lib.c ****   err = netconn_apimsg(lwip_netconn_do_send, &API_MSG_VAR_REF(msg));
 954:C:/Users/stapi/OneDrive/Desktop/GD32VW553/GD32VW55X_Wifi_BLE_SDK/GD32VW55x_RELEASE_V1.0.2/MSDK/lwip/lwip-2.1.2/src/api\api_lib.c ****   API_MSG_VAR_FREE(msg);
 955:C:/Users/stapi/OneDrive/Desktop/GD32VW553/GD32VW55X_Wifi_BLE_SDK/GD32VW55x_RELEASE_V1.0.2/MSDK/lwip/lwip-2.1.2/src/api\api_lib.c **** 
 956:C:/Users/stapi/OneDrive/Desktop/GD32VW553/GD32VW55X_Wifi_BLE_SDK/GD32VW55x_RELEASE_V1.0.2/MSDK/lwip/lwip-2.1.2/src/api\api_lib.c ****   return err;
 957:C:/Users/stapi/OneDrive/Desktop/GD32VW553/GD32VW55X_Wifi_BLE_SDK/GD32VW55x_RELEASE_V1.0.2/MSDK/lwip/lwip-2.1.2/src/api\api_lib.c **** }
 958:C:/Users/stapi/OneDrive/Desktop/GD32VW553/GD32VW55X_Wifi_BLE_SDK/GD32VW55x_RELEASE_V1.0.2/MSDK/lwip/lwip-2.1.2/src/api\api_lib.c **** 
 959:C:/Users/stapi/OneDrive/Desktop/GD32VW553/GD32VW55X_Wifi_BLE_SDK/GD32VW55x_RELEASE_V1.0.2/MSDK/lwip/lwip-2.1.2/src/api\api_lib.c **** /**
 960:C:/Users/stapi/OneDrive/Desktop/GD32VW553/GD32VW55X_Wifi_BLE_SDK/GD32VW55x_RELEASE_V1.0.2/MSDK/lwip/lwip-2.1.2/src/api\api_lib.c ****  * @ingroup netconn_tcp
 961:C:/Users/stapi/OneDrive/Desktop/GD32VW553/GD32VW55X_Wifi_BLE_SDK/GD32VW55x_RELEASE_V1.0.2/MSDK/lwip/lwip-2.1.2/src/api\api_lib.c ****  * Send data over a TCP netconn.
 962:C:/Users/stapi/OneDrive/Desktop/GD32VW553/GD32VW55X_Wifi_BLE_SDK/GD32VW55x_RELEASE_V1.0.2/MSDK/lwip/lwip-2.1.2/src/api\api_lib.c ****  *
 963:C:/Users/stapi/OneDrive/Desktop/GD32VW553/GD32VW55X_Wifi_BLE_SDK/GD32VW55x_RELEASE_V1.0.2/MSDK/lwip/lwip-2.1.2/src/api\api_lib.c ****  * @param conn the TCP netconn over which to send data
 964:C:/Users/stapi/OneDrive/Desktop/GD32VW553/GD32VW55X_Wifi_BLE_SDK/GD32VW55x_RELEASE_V1.0.2/MSDK/lwip/lwip-2.1.2/src/api\api_lib.c ****  * @param dataptr pointer to the application buffer that contains the data to send
 965:C:/Users/stapi/OneDrive/Desktop/GD32VW553/GD32VW55X_Wifi_BLE_SDK/GD32VW55x_RELEASE_V1.0.2/MSDK/lwip/lwip-2.1.2/src/api\api_lib.c ****  * @param size size of the application data to send
 966:C:/Users/stapi/OneDrive/Desktop/GD32VW553/GD32VW55X_Wifi_BLE_SDK/GD32VW55x_RELEASE_V1.0.2/MSDK/lwip/lwip-2.1.2/src/api\api_lib.c ****  * @param apiflags combination of following flags :
 967:C:/Users/stapi/OneDrive/Desktop/GD32VW553/GD32VW55X_Wifi_BLE_SDK/GD32VW55x_RELEASE_V1.0.2/MSDK/lwip/lwip-2.1.2/src/api\api_lib.c ****  * - NETCONN_COPY: data will be copied into memory belonging to the stack
 968:C:/Users/stapi/OneDrive/Desktop/GD32VW553/GD32VW55X_Wifi_BLE_SDK/GD32VW55x_RELEASE_V1.0.2/MSDK/lwip/lwip-2.1.2/src/api\api_lib.c ****  * - NETCONN_MORE: for TCP connection, PSH flag will be set on last segment sent
 969:C:/Users/stapi/OneDrive/Desktop/GD32VW553/GD32VW55X_Wifi_BLE_SDK/GD32VW55x_RELEASE_V1.0.2/MSDK/lwip/lwip-2.1.2/src/api\api_lib.c ****  * - NETCONN_DONTBLOCK: only write the data if all data can be written at once
 970:C:/Users/stapi/OneDrive/Desktop/GD32VW553/GD32VW55X_Wifi_BLE_SDK/GD32VW55x_RELEASE_V1.0.2/MSDK/lwip/lwip-2.1.2/src/api\api_lib.c ****  * @param bytes_written pointer to a location that receives the number of written bytes
 971:C:/Users/stapi/OneDrive/Desktop/GD32VW553/GD32VW55X_Wifi_BLE_SDK/GD32VW55x_RELEASE_V1.0.2/MSDK/lwip/lwip-2.1.2/src/api\api_lib.c ****  * @return ERR_OK if data was sent, any other err_t on error
 972:C:/Users/stapi/OneDrive/Desktop/GD32VW553/GD32VW55X_Wifi_BLE_SDK/GD32VW55x_RELEASE_V1.0.2/MSDK/lwip/lwip-2.1.2/src/api\api_lib.c ****  */
 973:C:/Users/stapi/OneDrive/Desktop/GD32VW553/GD32VW55X_Wifi_BLE_SDK/GD32VW55x_RELEASE_V1.0.2/MSDK/lwip/lwip-2.1.2/src/api\api_lib.c **** err_t
 974:C:/Users/stapi/OneDrive/Desktop/GD32VW553/GD32VW55X_Wifi_BLE_SDK/GD32VW55x_RELEASE_V1.0.2/MSDK/lwip/lwip-2.1.2/src/api\api_lib.c **** netconn_write_partly(struct netconn *conn, const void *dataptr, size_t size,
 975:C:/Users/stapi/OneDrive/Desktop/GD32VW553/GD32VW55X_Wifi_BLE_SDK/GD32VW55x_RELEASE_V1.0.2/MSDK/lwip/lwip-2.1.2/src/api\api_lib.c ****                      u8_t apiflags, size_t *bytes_written)
 976:C:/Users/stapi/OneDrive/Desktop/GD32VW553/GD32VW55X_Wifi_BLE_SDK/GD32VW55x_RELEASE_V1.0.2/MSDK/lwip/lwip-2.1.2/src/api\api_lib.c **** {
 977:C:/Users/stapi/OneDrive/Desktop/GD32VW553/GD32VW55X_Wifi_BLE_SDK/GD32VW55x_RELEASE_V1.0.2/MSDK/lwip/lwip-2.1.2/src/api\api_lib.c ****   struct netvector vector;
 978:C:/Users/stapi/OneDrive/Desktop/GD32VW553/GD32VW55X_Wifi_BLE_SDK/GD32VW55x_RELEASE_V1.0.2/MSDK/lwip/lwip-2.1.2/src/api\api_lib.c ****   vector.ptr = dataptr;
 979:C:/Users/stapi/OneDrive/Desktop/GD32VW553/GD32VW55X_Wifi_BLE_SDK/GD32VW55x_RELEASE_V1.0.2/MSDK/lwip/lwip-2.1.2/src/api\api_lib.c ****   vector.len = size;
 980:C:/Users/stapi/OneDrive/Desktop/GD32VW553/GD32VW55X_Wifi_BLE_SDK/GD32VW55x_RELEASE_V1.0.2/MSDK/lwip/lwip-2.1.2/src/api\api_lib.c ****   return netconn_write_vectors_partly(conn, &vector, 1, apiflags, bytes_written);
 981:C:/Users/stapi/OneDrive/Desktop/GD32VW553/GD32VW55X_Wifi_BLE_SDK/GD32VW55x_RELEASE_V1.0.2/MSDK/lwip/lwip-2.1.2/src/api\api_lib.c **** }
 982:C:/Users/stapi/OneDrive/Desktop/GD32VW553/GD32VW55X_Wifi_BLE_SDK/GD32VW55x_RELEASE_V1.0.2/MSDK/lwip/lwip-2.1.2/src/api\api_lib.c **** 
 983:C:/Users/stapi/OneDrive/Desktop/GD32VW553/GD32VW55X_Wifi_BLE_SDK/GD32VW55x_RELEASE_V1.0.2/MSDK/lwip/lwip-2.1.2/src/api\api_lib.c **** /**
 984:C:/Users/stapi/OneDrive/Desktop/GD32VW553/GD32VW55X_Wifi_BLE_SDK/GD32VW55x_RELEASE_V1.0.2/MSDK/lwip/lwip-2.1.2/src/api\api_lib.c ****  * Send vectorized data atomically over a TCP netconn.
 985:C:/Users/stapi/OneDrive/Desktop/GD32VW553/GD32VW55X_Wifi_BLE_SDK/GD32VW55x_RELEASE_V1.0.2/MSDK/lwip/lwip-2.1.2/src/api\api_lib.c ****  *
 986:C:/Users/stapi/OneDrive/Desktop/GD32VW553/GD32VW55X_Wifi_BLE_SDK/GD32VW55x_RELEASE_V1.0.2/MSDK/lwip/lwip-2.1.2/src/api\api_lib.c ****  * @param conn the TCP netconn over which to send data
 987:C:/Users/stapi/OneDrive/Desktop/GD32VW553/GD32VW55X_Wifi_BLE_SDK/GD32VW55x_RELEASE_V1.0.2/MSDK/lwip/lwip-2.1.2/src/api\api_lib.c ****  * @param vectors array of vectors containing data to send
 988:C:/Users/stapi/OneDrive/Desktop/GD32VW553/GD32VW55X_Wifi_BLE_SDK/GD32VW55x_RELEASE_V1.0.2/MSDK/lwip/lwip-2.1.2/src/api\api_lib.c ****  * @param vectorcnt number of vectors in the array
 989:C:/Users/stapi/OneDrive/Desktop/GD32VW553/GD32VW55X_Wifi_BLE_SDK/GD32VW55x_RELEASE_V1.0.2/MSDK/lwip/lwip-2.1.2/src/api\api_lib.c ****  * @param apiflags combination of following flags :
 990:C:/Users/stapi/OneDrive/Desktop/GD32VW553/GD32VW55X_Wifi_BLE_SDK/GD32VW55x_RELEASE_V1.0.2/MSDK/lwip/lwip-2.1.2/src/api\api_lib.c ****  * - NETCONN_COPY: data will be copied into memory belonging to the stack
 991:C:/Users/stapi/OneDrive/Desktop/GD32VW553/GD32VW55X_Wifi_BLE_SDK/GD32VW55x_RELEASE_V1.0.2/MSDK/lwip/lwip-2.1.2/src/api\api_lib.c ****  * - NETCONN_MORE: for TCP connection, PSH flag will be set on last segment sent
 992:C:/Users/stapi/OneDrive/Desktop/GD32VW553/GD32VW55X_Wifi_BLE_SDK/GD32VW55x_RELEASE_V1.0.2/MSDK/lwip/lwip-2.1.2/src/api\api_lib.c ****  * - NETCONN_DONTBLOCK: only write the data if all data can be written at once
 993:C:/Users/stapi/OneDrive/Desktop/GD32VW553/GD32VW55X_Wifi_BLE_SDK/GD32VW55x_RELEASE_V1.0.2/MSDK/lwip/lwip-2.1.2/src/api\api_lib.c ****  * @param bytes_written pointer to a location that receives the number of written bytes
 994:C:/Users/stapi/OneDrive/Desktop/GD32VW553/GD32VW55X_Wifi_BLE_SDK/GD32VW55x_RELEASE_V1.0.2/MSDK/lwip/lwip-2.1.2/src/api\api_lib.c ****  * @return ERR_OK if data was sent, any other err_t on error
 995:C:/Users/stapi/OneDrive/Desktop/GD32VW553/GD32VW55X_Wifi_BLE_SDK/GD32VW55x_RELEASE_V1.0.2/MSDK/lwip/lwip-2.1.2/src/api\api_lib.c ****  */
 996:C:/Users/stapi/OneDrive/Desktop/GD32VW553/GD32VW55X_Wifi_BLE_SDK/GD32VW55x_RELEASE_V1.0.2/MSDK/lwip/lwip-2.1.2/src/api\api_lib.c **** err_t
 997:C:/Users/stapi/OneDrive/Desktop/GD32VW553/GD32VW55X_Wifi_BLE_SDK/GD32VW55x_RELEASE_V1.0.2/MSDK/lwip/lwip-2.1.2/src/api\api_lib.c **** netconn_write_vectors_partly(struct netconn *conn, struct netvector *vectors, u16_t vectorcnt,
 998:C:/Users/stapi/OneDrive/Desktop/GD32VW553/GD32VW55X_Wifi_BLE_SDK/GD32VW55x_RELEASE_V1.0.2/MSDK/lwip/lwip-2.1.2/src/api\api_lib.c ****                              u8_t apiflags, size_t *bytes_written)
 999:C:/Users/stapi/OneDrive/Desktop/GD32VW553/GD32VW55X_Wifi_BLE_SDK/GD32VW55x_RELEASE_V1.0.2/MSDK/lwip/lwip-2.1.2/src/api\api_lib.c **** {
1000:C:/Users/stapi/OneDrive/Desktop/GD32VW553/GD32VW55X_Wifi_BLE_SDK/GD32VW55x_RELEASE_V1.0.2/MSDK/lwip/lwip-2.1.2/src/api\api_lib.c ****   API_MSG_VAR_DECLARE(msg);
1001:C:/Users/stapi/OneDrive/Desktop/GD32VW553/GD32VW55X_Wifi_BLE_SDK/GD32VW55x_RELEASE_V1.0.2/MSDK/lwip/lwip-2.1.2/src/api\api_lib.c ****   err_t err;
1002:C:/Users/stapi/OneDrive/Desktop/GD32VW553/GD32VW55X_Wifi_BLE_SDK/GD32VW55x_RELEASE_V1.0.2/MSDK/lwip/lwip-2.1.2/src/api\api_lib.c ****   u8_t dontblock;
1003:C:/Users/stapi/OneDrive/Desktop/GD32VW553/GD32VW55X_Wifi_BLE_SDK/GD32VW55x_RELEASE_V1.0.2/MSDK/lwip/lwip-2.1.2/src/api\api_lib.c ****   size_t size;
1004:C:/Users/stapi/OneDrive/Desktop/GD32VW553/GD32VW55X_Wifi_BLE_SDK/GD32VW55x_RELEASE_V1.0.2/MSDK/lwip/lwip-2.1.2/src/api\api_lib.c ****   int i;
1005:C:/Users/stapi/OneDrive/Desktop/GD32VW553/GD32VW55X_Wifi_BLE_SDK/GD32VW55x_RELEASE_V1.0.2/MSDK/lwip/lwip-2.1.2/src/api\api_lib.c **** 
1006:C:/Users/stapi/OneDrive/Desktop/GD32VW553/GD32VW55X_Wifi_BLE_SDK/GD32VW55x_RELEASE_V1.0.2/MSDK/lwip/lwip-2.1.2/src/api\api_lib.c ****   LWIP_ERROR("netconn_write: invalid conn",  (conn != NULL), return ERR_ARG;);
1007:C:/Users/stapi/OneDrive/Desktop/GD32VW553/GD32VW55X_Wifi_BLE_SDK/GD32VW55x_RELEASE_V1.0.2/MSDK/lwip/lwip-2.1.2/src/api\api_lib.c ****   LWIP_ERROR("netconn_write: invalid conn->type",  (NETCONNTYPE_GROUP(conn->type) == NETCONN_TCP), 
1008:C:/Users/stapi/OneDrive/Desktop/GD32VW553/GD32VW55X_Wifi_BLE_SDK/GD32VW55x_RELEASE_V1.0.2/MSDK/lwip/lwip-2.1.2/src/api\api_lib.c ****   dontblock = netconn_is_nonblocking(conn) || (apiflags & NETCONN_DONTBLOCK);
1009:C:/Users/stapi/OneDrive/Desktop/GD32VW553/GD32VW55X_Wifi_BLE_SDK/GD32VW55x_RELEASE_V1.0.2/MSDK/lwip/lwip-2.1.2/src/api\api_lib.c **** #if LWIP_SO_SNDTIMEO
1010:C:/Users/stapi/OneDrive/Desktop/GD32VW553/GD32VW55X_Wifi_BLE_SDK/GD32VW55x_RELEASE_V1.0.2/MSDK/lwip/lwip-2.1.2/src/api\api_lib.c ****   if (conn->send_timeout != 0) {
1011:C:/Users/stapi/OneDrive/Desktop/GD32VW553/GD32VW55X_Wifi_BLE_SDK/GD32VW55x_RELEASE_V1.0.2/MSDK/lwip/lwip-2.1.2/src/api\api_lib.c ****     dontblock = 1;
1012:C:/Users/stapi/OneDrive/Desktop/GD32VW553/GD32VW55X_Wifi_BLE_SDK/GD32VW55x_RELEASE_V1.0.2/MSDK/lwip/lwip-2.1.2/src/api\api_lib.c ****   }
1013:C:/Users/stapi/OneDrive/Desktop/GD32VW553/GD32VW55X_Wifi_BLE_SDK/GD32VW55x_RELEASE_V1.0.2/MSDK/lwip/lwip-2.1.2/src/api\api_lib.c **** #endif /* LWIP_SO_SNDTIMEO */
1014:C:/Users/stapi/OneDrive/Desktop/GD32VW553/GD32VW55X_Wifi_BLE_SDK/GD32VW55x_RELEASE_V1.0.2/MSDK/lwip/lwip-2.1.2/src/api\api_lib.c ****   if (dontblock && !bytes_written) {
1015:C:/Users/stapi/OneDrive/Desktop/GD32VW553/GD32VW55X_Wifi_BLE_SDK/GD32VW55x_RELEASE_V1.0.2/MSDK/lwip/lwip-2.1.2/src/api\api_lib.c ****     /* This implies netconn_write() cannot be used for non-blocking send, since
1016:C:/Users/stapi/OneDrive/Desktop/GD32VW553/GD32VW55X_Wifi_BLE_SDK/GD32VW55x_RELEASE_V1.0.2/MSDK/lwip/lwip-2.1.2/src/api\api_lib.c ****        it has no way to return the number of bytes written. */
1017:C:/Users/stapi/OneDrive/Desktop/GD32VW553/GD32VW55X_Wifi_BLE_SDK/GD32VW55x_RELEASE_V1.0.2/MSDK/lwip/lwip-2.1.2/src/api\api_lib.c ****     return ERR_VAL;
1018:C:/Users/stapi/OneDrive/Desktop/GD32VW553/GD32VW55X_Wifi_BLE_SDK/GD32VW55x_RELEASE_V1.0.2/MSDK/lwip/lwip-2.1.2/src/api\api_lib.c ****   }
1019:C:/Users/stapi/OneDrive/Desktop/GD32VW553/GD32VW55X_Wifi_BLE_SDK/GD32VW55x_RELEASE_V1.0.2/MSDK/lwip/lwip-2.1.2/src/api\api_lib.c **** 
1020:C:/Users/stapi/OneDrive/Desktop/GD32VW553/GD32VW55X_Wifi_BLE_SDK/GD32VW55x_RELEASE_V1.0.2/MSDK/lwip/lwip-2.1.2/src/api\api_lib.c ****   /* sum up the total size */
1021:C:/Users/stapi/OneDrive/Desktop/GD32VW553/GD32VW55X_Wifi_BLE_SDK/GD32VW55x_RELEASE_V1.0.2/MSDK/lwip/lwip-2.1.2/src/api\api_lib.c ****   size = 0;
1022:C:/Users/stapi/OneDrive/Desktop/GD32VW553/GD32VW55X_Wifi_BLE_SDK/GD32VW55x_RELEASE_V1.0.2/MSDK/lwip/lwip-2.1.2/src/api\api_lib.c ****   for (i = 0; i < vectorcnt; i++) {
1023:C:/Users/stapi/OneDrive/Desktop/GD32VW553/GD32VW55X_Wifi_BLE_SDK/GD32VW55x_RELEASE_V1.0.2/MSDK/lwip/lwip-2.1.2/src/api\api_lib.c ****     size += vectors[i].len;
1024:C:/Users/stapi/OneDrive/Desktop/GD32VW553/GD32VW55X_Wifi_BLE_SDK/GD32VW55x_RELEASE_V1.0.2/MSDK/lwip/lwip-2.1.2/src/api\api_lib.c ****     if (size < vectors[i].len) {
1025:C:/Users/stapi/OneDrive/Desktop/GD32VW553/GD32VW55X_Wifi_BLE_SDK/GD32VW55x_RELEASE_V1.0.2/MSDK/lwip/lwip-2.1.2/src/api\api_lib.c ****       /* overflow */
1026:C:/Users/stapi/OneDrive/Desktop/GD32VW553/GD32VW55X_Wifi_BLE_SDK/GD32VW55x_RELEASE_V1.0.2/MSDK/lwip/lwip-2.1.2/src/api\api_lib.c ****       return ERR_VAL;
1027:C:/Users/stapi/OneDrive/Desktop/GD32VW553/GD32VW55X_Wifi_BLE_SDK/GD32VW55x_RELEASE_V1.0.2/MSDK/lwip/lwip-2.1.2/src/api\api_lib.c ****     }
1028:C:/Users/stapi/OneDrive/Desktop/GD32VW553/GD32VW55X_Wifi_BLE_SDK/GD32VW55x_RELEASE_V1.0.2/MSDK/lwip/lwip-2.1.2/src/api\api_lib.c ****   }
1029:C:/Users/stapi/OneDrive/Desktop/GD32VW553/GD32VW55X_Wifi_BLE_SDK/GD32VW55x_RELEASE_V1.0.2/MSDK/lwip/lwip-2.1.2/src/api\api_lib.c ****   if (size == 0) {
1030:C:/Users/stapi/OneDrive/Desktop/GD32VW553/GD32VW55X_Wifi_BLE_SDK/GD32VW55x_RELEASE_V1.0.2/MSDK/lwip/lwip-2.1.2/src/api\api_lib.c ****     return ERR_OK;
1031:C:/Users/stapi/OneDrive/Desktop/GD32VW553/GD32VW55X_Wifi_BLE_SDK/GD32VW55x_RELEASE_V1.0.2/MSDK/lwip/lwip-2.1.2/src/api\api_lib.c ****   } else if (size > SSIZE_MAX) {
1032:C:/Users/stapi/OneDrive/Desktop/GD32VW553/GD32VW55X_Wifi_BLE_SDK/GD32VW55x_RELEASE_V1.0.2/MSDK/lwip/lwip-2.1.2/src/api\api_lib.c ****     ssize_t limited;
1033:C:/Users/stapi/OneDrive/Desktop/GD32VW553/GD32VW55X_Wifi_BLE_SDK/GD32VW55x_RELEASE_V1.0.2/MSDK/lwip/lwip-2.1.2/src/api\api_lib.c ****     /* this is required by the socket layer (cannot send full size_t range) */
1034:C:/Users/stapi/OneDrive/Desktop/GD32VW553/GD32VW55X_Wifi_BLE_SDK/GD32VW55x_RELEASE_V1.0.2/MSDK/lwip/lwip-2.1.2/src/api\api_lib.c ****     if (!bytes_written) {
1035:C:/Users/stapi/OneDrive/Desktop/GD32VW553/GD32VW55X_Wifi_BLE_SDK/GD32VW55x_RELEASE_V1.0.2/MSDK/lwip/lwip-2.1.2/src/api\api_lib.c ****       return ERR_VAL;
1036:C:/Users/stapi/OneDrive/Desktop/GD32VW553/GD32VW55X_Wifi_BLE_SDK/GD32VW55x_RELEASE_V1.0.2/MSDK/lwip/lwip-2.1.2/src/api\api_lib.c ****     }
1037:C:/Users/stapi/OneDrive/Desktop/GD32VW553/GD32VW55X_Wifi_BLE_SDK/GD32VW55x_RELEASE_V1.0.2/MSDK/lwip/lwip-2.1.2/src/api\api_lib.c ****     /* limit the amount of data to send */
1038:C:/Users/stapi/OneDrive/Desktop/GD32VW553/GD32VW55X_Wifi_BLE_SDK/GD32VW55x_RELEASE_V1.0.2/MSDK/lwip/lwip-2.1.2/src/api\api_lib.c ****     limited = SSIZE_MAX;
1039:C:/Users/stapi/OneDrive/Desktop/GD32VW553/GD32VW55X_Wifi_BLE_SDK/GD32VW55x_RELEASE_V1.0.2/MSDK/lwip/lwip-2.1.2/src/api\api_lib.c ****     size = (size_t)limited;
1040:C:/Users/stapi/OneDrive/Desktop/GD32VW553/GD32VW55X_Wifi_BLE_SDK/GD32VW55x_RELEASE_V1.0.2/MSDK/lwip/lwip-2.1.2/src/api\api_lib.c ****   }
1041:C:/Users/stapi/OneDrive/Desktop/GD32VW553/GD32VW55X_Wifi_BLE_SDK/GD32VW55x_RELEASE_V1.0.2/MSDK/lwip/lwip-2.1.2/src/api\api_lib.c **** 
1042:C:/Users/stapi/OneDrive/Desktop/GD32VW553/GD32VW55X_Wifi_BLE_SDK/GD32VW55x_RELEASE_V1.0.2/MSDK/lwip/lwip-2.1.2/src/api\api_lib.c ****   API_MSG_VAR_ALLOC(msg);
1043:C:/Users/stapi/OneDrive/Desktop/GD32VW553/GD32VW55X_Wifi_BLE_SDK/GD32VW55x_RELEASE_V1.0.2/MSDK/lwip/lwip-2.1.2/src/api\api_lib.c ****   /* non-blocking write sends as much  */
1044:C:/Users/stapi/OneDrive/Desktop/GD32VW553/GD32VW55X_Wifi_BLE_SDK/GD32VW55x_RELEASE_V1.0.2/MSDK/lwip/lwip-2.1.2/src/api\api_lib.c ****   API_MSG_VAR_REF(msg).conn = conn;
1045:C:/Users/stapi/OneDrive/Desktop/GD32VW553/GD32VW55X_Wifi_BLE_SDK/GD32VW55x_RELEASE_V1.0.2/MSDK/lwip/lwip-2.1.2/src/api\api_lib.c ****   API_MSG_VAR_REF(msg).msg.w.vector = vectors;
1046:C:/Users/stapi/OneDrive/Desktop/GD32VW553/GD32VW55X_Wifi_BLE_SDK/GD32VW55x_RELEASE_V1.0.2/MSDK/lwip/lwip-2.1.2/src/api\api_lib.c ****   API_MSG_VAR_REF(msg).msg.w.vector_cnt = vectorcnt;
1047:C:/Users/stapi/OneDrive/Desktop/GD32VW553/GD32VW55X_Wifi_BLE_SDK/GD32VW55x_RELEASE_V1.0.2/MSDK/lwip/lwip-2.1.2/src/api\api_lib.c ****   API_MSG_VAR_REF(msg).msg.w.vector_off = 0;
1048:C:/Users/stapi/OneDrive/Desktop/GD32VW553/GD32VW55X_Wifi_BLE_SDK/GD32VW55x_RELEASE_V1.0.2/MSDK/lwip/lwip-2.1.2/src/api\api_lib.c ****   API_MSG_VAR_REF(msg).msg.w.apiflags = apiflags;
1049:C:/Users/stapi/OneDrive/Desktop/GD32VW553/GD32VW55X_Wifi_BLE_SDK/GD32VW55x_RELEASE_V1.0.2/MSDK/lwip/lwip-2.1.2/src/api\api_lib.c ****   API_MSG_VAR_REF(msg).msg.w.len = size;
1050:C:/Users/stapi/OneDrive/Desktop/GD32VW553/GD32VW55X_Wifi_BLE_SDK/GD32VW55x_RELEASE_V1.0.2/MSDK/lwip/lwip-2.1.2/src/api\api_lib.c ****   API_MSG_VAR_REF(msg).msg.w.offset = 0;
1051:C:/Users/stapi/OneDrive/Desktop/GD32VW553/GD32VW55X_Wifi_BLE_SDK/GD32VW55x_RELEASE_V1.0.2/MSDK/lwip/lwip-2.1.2/src/api\api_lib.c **** #if LWIP_SO_SNDTIMEO
1052:C:/Users/stapi/OneDrive/Desktop/GD32VW553/GD32VW55X_Wifi_BLE_SDK/GD32VW55x_RELEASE_V1.0.2/MSDK/lwip/lwip-2.1.2/src/api\api_lib.c ****   if (conn->send_timeout != 0) {
1053:C:/Users/stapi/OneDrive/Desktop/GD32VW553/GD32VW55X_Wifi_BLE_SDK/GD32VW55x_RELEASE_V1.0.2/MSDK/lwip/lwip-2.1.2/src/api\api_lib.c ****     /* get the time we started, which is later compared to
1054:C:/Users/stapi/OneDrive/Desktop/GD32VW553/GD32VW55X_Wifi_BLE_SDK/GD32VW55x_RELEASE_V1.0.2/MSDK/lwip/lwip-2.1.2/src/api\api_lib.c ****         sys_now() + conn->send_timeout */
1055:C:/Users/stapi/OneDrive/Desktop/GD32VW553/GD32VW55X_Wifi_BLE_SDK/GD32VW55x_RELEASE_V1.0.2/MSDK/lwip/lwip-2.1.2/src/api\api_lib.c ****     API_MSG_VAR_REF(msg).msg.w.time_started = sys_now();
1056:C:/Users/stapi/OneDrive/Desktop/GD32VW553/GD32VW55X_Wifi_BLE_SDK/GD32VW55x_RELEASE_V1.0.2/MSDK/lwip/lwip-2.1.2/src/api\api_lib.c ****   } else {
1057:C:/Users/stapi/OneDrive/Desktop/GD32VW553/GD32VW55X_Wifi_BLE_SDK/GD32VW55x_RELEASE_V1.0.2/MSDK/lwip/lwip-2.1.2/src/api\api_lib.c ****     API_MSG_VAR_REF(msg).msg.w.time_started = 0;
1058:C:/Users/stapi/OneDrive/Desktop/GD32VW553/GD32VW55X_Wifi_BLE_SDK/GD32VW55x_RELEASE_V1.0.2/MSDK/lwip/lwip-2.1.2/src/api\api_lib.c ****   }
1059:C:/Users/stapi/OneDrive/Desktop/GD32VW553/GD32VW55X_Wifi_BLE_SDK/GD32VW55x_RELEASE_V1.0.2/MSDK/lwip/lwip-2.1.2/src/api\api_lib.c **** #endif /* LWIP_SO_SNDTIMEO */
1060:C:/Users/stapi/OneDrive/Desktop/GD32VW553/GD32VW55X_Wifi_BLE_SDK/GD32VW55x_RELEASE_V1.0.2/MSDK/lwip/lwip-2.1.2/src/api\api_lib.c **** 
1061:C:/Users/stapi/OneDrive/Desktop/GD32VW553/GD32VW55X_Wifi_BLE_SDK/GD32VW55x_RELEASE_V1.0.2/MSDK/lwip/lwip-2.1.2/src/api\api_lib.c ****   /* For locking the core: this _can_ be delayed on low memory/low send buffer,
1062:C:/Users/stapi/OneDrive/Desktop/GD32VW553/GD32VW55X_Wifi_BLE_SDK/GD32VW55x_RELEASE_V1.0.2/MSDK/lwip/lwip-2.1.2/src/api\api_lib.c ****      but if it is, this is done inside api_msg.c:do_write(), so we can use the
1063:C:/Users/stapi/OneDrive/Desktop/GD32VW553/GD32VW55X_Wifi_BLE_SDK/GD32VW55x_RELEASE_V1.0.2/MSDK/lwip/lwip-2.1.2/src/api\api_lib.c ****      non-blocking version here. */
1064:C:/Users/stapi/OneDrive/Desktop/GD32VW553/GD32VW55X_Wifi_BLE_SDK/GD32VW55x_RELEASE_V1.0.2/MSDK/lwip/lwip-2.1.2/src/api\api_lib.c ****   err = netconn_apimsg(lwip_netconn_do_write, &API_MSG_VAR_REF(msg));
1065:C:/Users/stapi/OneDrive/Desktop/GD32VW553/GD32VW55X_Wifi_BLE_SDK/GD32VW55x_RELEASE_V1.0.2/MSDK/lwip/lwip-2.1.2/src/api\api_lib.c ****   if (err == ERR_OK) {
1066:C:/Users/stapi/OneDrive/Desktop/GD32VW553/GD32VW55X_Wifi_BLE_SDK/GD32VW55x_RELEASE_V1.0.2/MSDK/lwip/lwip-2.1.2/src/api\api_lib.c ****     if (bytes_written != NULL) {
1067:C:/Users/stapi/OneDrive/Desktop/GD32VW553/GD32VW55X_Wifi_BLE_SDK/GD32VW55x_RELEASE_V1.0.2/MSDK/lwip/lwip-2.1.2/src/api\api_lib.c ****       *bytes_written = API_MSG_VAR_REF(msg).msg.w.offset;
1068:C:/Users/stapi/OneDrive/Desktop/GD32VW553/GD32VW55X_Wifi_BLE_SDK/GD32VW55x_RELEASE_V1.0.2/MSDK/lwip/lwip-2.1.2/src/api\api_lib.c ****     }
1069:C:/Users/stapi/OneDrive/Desktop/GD32VW553/GD32VW55X_Wifi_BLE_SDK/GD32VW55x_RELEASE_V1.0.2/MSDK/lwip/lwip-2.1.2/src/api\api_lib.c ****     /* for blocking, check all requested bytes were written, NOTE: send_timeout is
1070:C:/Users/stapi/OneDrive/Desktop/GD32VW553/GD32VW55X_Wifi_BLE_SDK/GD32VW55x_RELEASE_V1.0.2/MSDK/lwip/lwip-2.1.2/src/api\api_lib.c ****        treated as dontblock (see dontblock assignment above) */
1071:C:/Users/stapi/OneDrive/Desktop/GD32VW553/GD32VW55X_Wifi_BLE_SDK/GD32VW55x_RELEASE_V1.0.2/MSDK/lwip/lwip-2.1.2/src/api\api_lib.c ****     if (!dontblock) {
1072:C:/Users/stapi/OneDrive/Desktop/GD32VW553/GD32VW55X_Wifi_BLE_SDK/GD32VW55x_RELEASE_V1.0.2/MSDK/lwip/lwip-2.1.2/src/api\api_lib.c ****       LWIP_ASSERT("do_write failed to write all bytes", API_MSG_VAR_REF(msg).msg.w.offset == size);
1073:C:/Users/stapi/OneDrive/Desktop/GD32VW553/GD32VW55X_Wifi_BLE_SDK/GD32VW55x_RELEASE_V1.0.2/MSDK/lwip/lwip-2.1.2/src/api\api_lib.c ****     }
1074:C:/Users/stapi/OneDrive/Desktop/GD32VW553/GD32VW55X_Wifi_BLE_SDK/GD32VW55x_RELEASE_V1.0.2/MSDK/lwip/lwip-2.1.2/src/api\api_lib.c ****   }
1075:C:/Users/stapi/OneDrive/Desktop/GD32VW553/GD32VW55X_Wifi_BLE_SDK/GD32VW55x_RELEASE_V1.0.2/MSDK/lwip/lwip-2.1.2/src/api\api_lib.c ****   API_MSG_VAR_FREE(msg);
1076:C:/Users/stapi/OneDrive/Desktop/GD32VW553/GD32VW55X_Wifi_BLE_SDK/GD32VW55x_RELEASE_V1.0.2/MSDK/lwip/lwip-2.1.2/src/api\api_lib.c **** 
1077:C:/Users/stapi/OneDrive/Desktop/GD32VW553/GD32VW55X_Wifi_BLE_SDK/GD32VW55x_RELEASE_V1.0.2/MSDK/lwip/lwip-2.1.2/src/api\api_lib.c ****   return err;
1078:C:/Users/stapi/OneDrive/Desktop/GD32VW553/GD32VW55X_Wifi_BLE_SDK/GD32VW55x_RELEASE_V1.0.2/MSDK/lwip/lwip-2.1.2/src/api\api_lib.c **** }
1079:C:/Users/stapi/OneDrive/Desktop/GD32VW553/GD32VW55X_Wifi_BLE_SDK/GD32VW55x_RELEASE_V1.0.2/MSDK/lwip/lwip-2.1.2/src/api\api_lib.c **** 
1080:C:/Users/stapi/OneDrive/Desktop/GD32VW553/GD32VW55X_Wifi_BLE_SDK/GD32VW55x_RELEASE_V1.0.2/MSDK/lwip/lwip-2.1.2/src/api\api_lib.c **** /**
1081:C:/Users/stapi/OneDrive/Desktop/GD32VW553/GD32VW55X_Wifi_BLE_SDK/GD32VW55x_RELEASE_V1.0.2/MSDK/lwip/lwip-2.1.2/src/api\api_lib.c ****  * @ingroup netconn_tcp
1082:C:/Users/stapi/OneDrive/Desktop/GD32VW553/GD32VW55X_Wifi_BLE_SDK/GD32VW55x_RELEASE_V1.0.2/MSDK/lwip/lwip-2.1.2/src/api\api_lib.c ****  * Close or shutdown a TCP netconn (doesn't delete it).
1083:C:/Users/stapi/OneDrive/Desktop/GD32VW553/GD32VW55X_Wifi_BLE_SDK/GD32VW55x_RELEASE_V1.0.2/MSDK/lwip/lwip-2.1.2/src/api\api_lib.c ****  *
1084:C:/Users/stapi/OneDrive/Desktop/GD32VW553/GD32VW55X_Wifi_BLE_SDK/GD32VW55x_RELEASE_V1.0.2/MSDK/lwip/lwip-2.1.2/src/api\api_lib.c ****  * @param conn the TCP netconn to close or shutdown
1085:C:/Users/stapi/OneDrive/Desktop/GD32VW553/GD32VW55X_Wifi_BLE_SDK/GD32VW55x_RELEASE_V1.0.2/MSDK/lwip/lwip-2.1.2/src/api\api_lib.c ****  * @param how fully close or only shutdown one side?
1086:C:/Users/stapi/OneDrive/Desktop/GD32VW553/GD32VW55X_Wifi_BLE_SDK/GD32VW55x_RELEASE_V1.0.2/MSDK/lwip/lwip-2.1.2/src/api\api_lib.c ****  * @return ERR_OK if the netconn was closed, any other err_t on error
1087:C:/Users/stapi/OneDrive/Desktop/GD32VW553/GD32VW55X_Wifi_BLE_SDK/GD32VW55x_RELEASE_V1.0.2/MSDK/lwip/lwip-2.1.2/src/api\api_lib.c ****  */
1088:C:/Users/stapi/OneDrive/Desktop/GD32VW553/GD32VW55X_Wifi_BLE_SDK/GD32VW55x_RELEASE_V1.0.2/MSDK/lwip/lwip-2.1.2/src/api\api_lib.c **** static err_t
1089:C:/Users/stapi/OneDrive/Desktop/GD32VW553/GD32VW55X_Wifi_BLE_SDK/GD32VW55x_RELEASE_V1.0.2/MSDK/lwip/lwip-2.1.2/src/api\api_lib.c **** netconn_close_shutdown(struct netconn *conn, u8_t how)
1090:C:/Users/stapi/OneDrive/Desktop/GD32VW553/GD32VW55X_Wifi_BLE_SDK/GD32VW55x_RELEASE_V1.0.2/MSDK/lwip/lwip-2.1.2/src/api\api_lib.c **** {
 138              		.loc 1 1090 1 is_stmt 1
 139              		.cfi_startproc
 140              	.LVL12:
 141 0000 17030000 		call	t0,__riscv_save_0
 141      E7020300 
 142              		.cfi_offset 1, -4
 143              		.cfi_def_cfa_offset 16
1091:C:/Users/stapi/OneDrive/Desktop/GD32VW553/GD32VW55X_Wifi_BLE_SDK/GD32VW55x_RELEASE_V1.0.2/MSDK/lwip/lwip-2.1.2/src/api\api_lib.c ****   API_MSG_VAR_DECLARE(msg);
 144              		.loc 1 1091 3
1092:C:/Users/stapi/OneDrive/Desktop/GD32VW553/GD32VW55X_Wifi_BLE_SDK/GD32VW55x_RELEASE_V1.0.2/MSDK/lwip/lwip-2.1.2/src/api\api_lib.c ****   err_t err;
 145              		.loc 1 1092 3
1093:C:/Users/stapi/OneDrive/Desktop/GD32VW553/GD32VW55X_Wifi_BLE_SDK/GD32VW55x_RELEASE_V1.0.2/MSDK/lwip/lwip-2.1.2/src/api\api_lib.c ****   LWIP_UNUSED_ARG(how);
 146              		.loc 1 1093 3
1094:C:/Users/stapi/OneDrive/Desktop/GD32VW553/GD32VW55X_Wifi_BLE_SDK/GD32VW55x_RELEASE_V1.0.2/MSDK/lwip/lwip-2.1.2/src/api\api_lib.c **** 
1095:C:/Users/stapi/OneDrive/Desktop/GD32VW553/GD32VW55X_Wifi_BLE_SDK/GD32VW55x_RELEASE_V1.0.2/MSDK/lwip/lwip-2.1.2/src/api\api_lib.c ****   LWIP_ERROR("netconn_close: invalid conn",  (conn != NULL), return ERR_ARG;);
 147              		.loc 1 1095 3
 148              		.loc 1 1095 3
1090:C:/Users/stapi/OneDrive/Desktop/GD32VW553/GD32VW55X_Wifi_BLE_SDK/GD32VW55x_RELEASE_V1.0.2/MSDK/lwip/lwip-2.1.2/src/api\api_lib.c ****   API_MSG_VAR_DECLARE(msg);
 149              		.loc 1 1090 1 is_stmt 0
 150 0008 0111     		addi	sp,sp,-32
 151              		.cfi_def_cfa_offset 48
 152              		.loc 1 1095 3
 153 000a 05E5     		bne	a0,zero,.L13
 154              	.LVL13:
 155              	.LBB9:
 156              	.LBB10:
 157              		.loc 1 1095 3 is_stmt 1
 158              		.loc 1 1095 3
 159 000c B7060000 		lui	a3,%hi(.LC0)
 160 0010 B7050000 		lui	a1,%hi(.LC3)
 161              	.LVL14:
 162 0014 37050000 		lui	a0,%hi(.LC2)
 163              	.LVL15:
 164 0018 93860600 		addi	a3,a3,%lo(.LC0)
 165 001c 13067044 		li	a2,1095
 166 0020 93850500 		addi	a1,a1,%lo(.LC3)
 167 0024 13050500 		addi	a0,a0,%lo(.LC2)
 168 0028 97000000 		call	printf
 168      E7800000 
 169              	.LVL16:
 170              	.L14:
 171              		.loc 1 1095 3
 172              		.loc 1 1095 3
 173              		.loc 1 1095 3
 174 0030 01A0     		j	.L14
 175              	.LVL17:
 176              	.L13:
 177              	.LBE10:
 178              	.LBE9:
 179              		.loc 1 1095 3 discriminator 2
 180              		.loc 1 1095 3 discriminator 2
1096:C:/Users/stapi/OneDrive/Desktop/GD32VW553/GD32VW55X_Wifi_BLE_SDK/GD32VW55x_RELEASE_V1.0.2/MSDK/lwip/lwip-2.1.2/src/api\api_lib.c **** 
1097:C:/Users/stapi/OneDrive/Desktop/GD32VW553/GD32VW55X_Wifi_BLE_SDK/GD32VW55x_RELEASE_V1.0.2/MSDK/lwip/lwip-2.1.2/src/api\api_lib.c ****   API_MSG_VAR_ALLOC(msg);
 181              		.loc 1 1097 25 discriminator 2
1098:C:/Users/stapi/OneDrive/Desktop/GD32VW553/GD32VW55X_Wifi_BLE_SDK/GD32VW55x_RELEASE_V1.0.2/MSDK/lwip/lwip-2.1.2/src/api\api_lib.c ****   API_MSG_VAR_REF(msg).conn = conn;
 182              		.loc 1 1098 3 discriminator 2
 183              		.loc 1 1098 29 is_stmt 0 discriminator 2
 184 0032 2AC0     		sw	a0,0(sp)
1099:C:/Users/stapi/OneDrive/Desktop/GD32VW553/GD32VW55X_Wifi_BLE_SDK/GD32VW55x_RELEASE_V1.0.2/MSDK/lwip/lwip-2.1.2/src/api\api_lib.c **** #if LWIP_TCP
1100:C:/Users/stapi/OneDrive/Desktop/GD32VW553/GD32VW55X_Wifi_BLE_SDK/GD32VW55x_RELEASE_V1.0.2/MSDK/lwip/lwip-2.1.2/src/api\api_lib.c ****   /* shutting down both ends is the same as closing */
1101:C:/Users/stapi/OneDrive/Desktop/GD32VW553/GD32VW55X_Wifi_BLE_SDK/GD32VW55x_RELEASE_V1.0.2/MSDK/lwip/lwip-2.1.2/src/api\api_lib.c ****   API_MSG_VAR_REF(msg).msg.sd.shut = how;
 185              		.loc 1 1101 3 is_stmt 1 discriminator 2
1102:C:/Users/stapi/OneDrive/Desktop/GD32VW553/GD32VW55X_Wifi_BLE_SDK/GD32VW55x_RELEASE_V1.0.2/MSDK/lwip/lwip-2.1.2/src/api\api_lib.c **** #if LWIP_SO_SNDTIMEO || LWIP_SO_LINGER
1103:C:/Users/stapi/OneDrive/Desktop/GD32VW553/GD32VW55X_Wifi_BLE_SDK/GD32VW55x_RELEASE_V1.0.2/MSDK/lwip/lwip-2.1.2/src/api\api_lib.c ****   /* get the time we started, which is later compared to
1104:C:/Users/stapi/OneDrive/Desktop/GD32VW553/GD32VW55X_Wifi_BLE_SDK/GD32VW55x_RELEASE_V1.0.2/MSDK/lwip/lwip-2.1.2/src/api\api_lib.c ****      sys_now() + conn->send_timeout */
1105:C:/Users/stapi/OneDrive/Desktop/GD32VW553/GD32VW55X_Wifi_BLE_SDK/GD32VW55x_RELEASE_V1.0.2/MSDK/lwip/lwip-2.1.2/src/api\api_lib.c ****   API_MSG_VAR_REF(msg).msg.sd.time_started = sys_now();
1106:C:/Users/stapi/OneDrive/Desktop/GD32VW553/GD32VW55X_Wifi_BLE_SDK/GD32VW55x_RELEASE_V1.0.2/MSDK/lwip/lwip-2.1.2/src/api\api_lib.c **** #else /* LWIP_SO_SNDTIMEO || LWIP_SO_LINGER */
1107:C:/Users/stapi/OneDrive/Desktop/GD32VW553/GD32VW55X_Wifi_BLE_SDK/GD32VW55x_RELEASE_V1.0.2/MSDK/lwip/lwip-2.1.2/src/api\api_lib.c ****   API_MSG_VAR_REF(msg).msg.sd.polls_left =
1108:C:/Users/stapi/OneDrive/Desktop/GD32VW553/GD32VW55X_Wifi_BLE_SDK/GD32VW55x_RELEASE_V1.0.2/MSDK/lwip/lwip-2.1.2/src/api\api_lib.c ****     ((LWIP_TCP_CLOSE_TIMEOUT_MS_DEFAULT + TCP_SLOW_INTERVAL - 1) / TCP_SLOW_INTERVAL) + 1;
1109:C:/Users/stapi/OneDrive/Desktop/GD32VW553/GD32VW55X_Wifi_BLE_SDK/GD32VW55x_RELEASE_V1.0.2/MSDK/lwip/lwip-2.1.2/src/api\api_lib.c **** #endif /* LWIP_SO_SNDTIMEO || LWIP_SO_LINGER */
1110:C:/Users/stapi/OneDrive/Desktop/GD32VW553/GD32VW55X_Wifi_BLE_SDK/GD32VW55x_RELEASE_V1.0.2/MSDK/lwip/lwip-2.1.2/src/api\api_lib.c **** #endif /* LWIP_TCP */
1111:C:/Users/stapi/OneDrive/Desktop/GD32VW553/GD32VW55X_Wifi_BLE_SDK/GD32VW55x_RELEASE_V1.0.2/MSDK/lwip/lwip-2.1.2/src/api\api_lib.c ****   err = netconn_apimsg(lwip_netconn_do_close, &API_MSG_VAR_REF(msg));
 186              		.loc 1 1111 9 is_stmt 0 discriminator 2
 187 0034 37050000 		lui	a0,%hi(lwip_netconn_do_close)
 188              	.LVL18:
1101:C:/Users/stapi/OneDrive/Desktop/GD32VW553/GD32VW55X_Wifi_BLE_SDK/GD32VW55x_RELEASE_V1.0.2/MSDK/lwip/lwip-2.1.2/src/api\api_lib.c **** #if LWIP_SO_SNDTIMEO || LWIP_SO_LINGER
 189              		.loc 1 1101 36 discriminator 2
 190 0038 2304B100 		sb	a1,8(sp)
1107:C:/Users/stapi/OneDrive/Desktop/GD32VW553/GD32VW55X_Wifi_BLE_SDK/GD32VW55x_RELEASE_V1.0.2/MSDK/lwip/lwip-2.1.2/src/api\api_lib.c ****     ((LWIP_TCP_CLOSE_TIMEOUT_MS_DEFAULT + TCP_SLOW_INTERVAL - 1) / TCP_SLOW_INTERVAL) + 1;
 191              		.loc 1 1107 3 is_stmt 1 discriminator 2
1107:C:/Users/stapi/OneDrive/Desktop/GD32VW553/GD32VW55X_Wifi_BLE_SDK/GD32VW55x_RELEASE_V1.0.2/MSDK/lwip/lwip-2.1.2/src/api\api_lib.c ****     ((LWIP_TCP_CLOSE_TIMEOUT_MS_DEFAULT + TCP_SLOW_INTERVAL - 1) / TCP_SLOW_INTERVAL) + 1;
 192              		.loc 1 1107 42 is_stmt 0 discriminator 2
 193 003c 93079002 		li	a5,41
 194              		.loc 1 1111 9 discriminator 2
 195 0040 8A85     		mv	a1,sp
 196              	.LVL19:
 197 0042 13050500 		addi	a0,a0,%lo(lwip_netconn_do_close)
1107:C:/Users/stapi/OneDrive/Desktop/GD32VW553/GD32VW55X_Wifi_BLE_SDK/GD32VW55x_RELEASE_V1.0.2/MSDK/lwip/lwip-2.1.2/src/api\api_lib.c ****     ((LWIP_TCP_CLOSE_TIMEOUT_MS_DEFAULT + TCP_SLOW_INTERVAL - 1) / TCP_SLOW_INTERVAL) + 1;
 198              		.loc 1 1107 42 discriminator 2
 199 0046 A304F100 		sb	a5,9(sp)
 200              		.loc 1 1111 3 is_stmt 1 discriminator 2
 201              		.loc 1 1111 9 is_stmt 0 discriminator 2
 202 004a 97000000 		call	netconn_apimsg
 202      E7800000 
 203              	.LVL20:
1112:C:/Users/stapi/OneDrive/Desktop/GD32VW553/GD32VW55X_Wifi_BLE_SDK/GD32VW55x_RELEASE_V1.0.2/MSDK/lwip/lwip-2.1.2/src/api\api_lib.c ****   API_MSG_VAR_FREE(msg);
 204              		.loc 1 1112 24 is_stmt 1 discriminator 2
1113:C:/Users/stapi/OneDrive/Desktop/GD32VW553/GD32VW55X_Wifi_BLE_SDK/GD32VW55x_RELEASE_V1.0.2/MSDK/lwip/lwip-2.1.2/src/api\api_lib.c **** 
1114:C:/Users/stapi/OneDrive/Desktop/GD32VW553/GD32VW55X_Wifi_BLE_SDK/GD32VW55x_RELEASE_V1.0.2/MSDK/lwip/lwip-2.1.2/src/api\api_lib.c ****   return err;
 205              		.loc 1 1114 3 discriminator 2
1115:C:/Users/stapi/OneDrive/Desktop/GD32VW553/GD32VW55X_Wifi_BLE_SDK/GD32VW55x_RELEASE_V1.0.2/MSDK/lwip/lwip-2.1.2/src/api\api_lib.c **** }
 206              		.loc 1 1115 1 is_stmt 0 discriminator 2
 207 0052 0561     		addi	sp,sp,32
 208              		.cfi_def_cfa_offset 0
 209 0054 17030000 		tail	__riscv_restore_0
 209      67000300 
 210              		.cfi_restore 1
 211              		.cfi_def_cfa_offset -16
 212              		.cfi_endproc
 213              	.LFE28:
 215              		.section	.rodata.netconn_new_with_proto_and_callback.str1.4,"aMS",@progbits,1
 216              		.align	2
 217              	.LC4:
 218 0000 66726565 		.string	"freeing conn without freeing pcb"
 218      696E6720 
 218      636F6E6E 
 218      20776974 
 218      686F7574 
 219 0021 000000   		.align	2
 220              	.LC5:
 221 0024 636F6E6E 		.string	"conn has no recvmbox"
 221      20686173 
 221      206E6F20 
 221      72656376 
 221      6D626F78 
 222 0039 000000   		.align	2
 223              	.LC6:
 224 003c 636F6E6E 		.string	"conn->acceptmbox shouldn't exist"
 224      2D3E6163 
 224      63657074 
 224      6D626F78 
 224      2073686F 
 225 005d 000000   		.align	2
 226              	.LC7:
 227 0060 636F6E6E 		.string	"conn has no op_completed"
 227      20686173 
 227      206E6F20 
 227      6F705F63 
 227      6F6D706C 
 228              		.section	.text.netconn_new_with_proto_and_callback,"ax",@progbits
 229              		.align	1
 230              		.globl	netconn_new_with_proto_and_callback
 232              	netconn_new_with_proto_and_callback:
 233              	.LFB5:
 150:C:/Users/stapi/OneDrive/Desktop/GD32VW553/GD32VW55X_Wifi_BLE_SDK/GD32VW55x_RELEASE_V1.0.2/MSDK/lwip/lwip-2.1.2/src/api\api_lib.c ****   struct netconn *conn;
 234              		.loc 1 150 1 is_stmt 1
 235              		.cfi_startproc
 236              	.LVL21:
 237 0000 17030000 		call	t0,__riscv_save_2
 237      E7020300 
 238              		.cfi_offset 9, -12
 239              		.cfi_offset 8, -8
 240              		.cfi_offset 1, -4
 241              		.cfi_def_cfa_offset 16
 151:C:/Users/stapi/OneDrive/Desktop/GD32VW553/GD32VW55X_Wifi_BLE_SDK/GD32VW55x_RELEASE_V1.0.2/MSDK/lwip/lwip-2.1.2/src/api\api_lib.c ****   API_MSG_VAR_DECLARE(msg);
 242              		.loc 1 151 3
 152:C:/Users/stapi/OneDrive/Desktop/GD32VW553/GD32VW55X_Wifi_BLE_SDK/GD32VW55x_RELEASE_V1.0.2/MSDK/lwip/lwip-2.1.2/src/api\api_lib.c ****   API_MSG_VAR_ALLOC_RETURN_NULL(msg);
 243              		.loc 1 152 3
 153:C:/Users/stapi/OneDrive/Desktop/GD32VW553/GD32VW55X_Wifi_BLE_SDK/GD32VW55x_RELEASE_V1.0.2/MSDK/lwip/lwip-2.1.2/src/api\api_lib.c **** 
 244              		.loc 1 153 37
 155:C:/Users/stapi/OneDrive/Desktop/GD32VW553/GD32VW55X_Wifi_BLE_SDK/GD32VW55x_RELEASE_V1.0.2/MSDK/lwip/lwip-2.1.2/src/api\api_lib.c ****   if (conn != NULL) {
 245              		.loc 1 155 3
 150:C:/Users/stapi/OneDrive/Desktop/GD32VW553/GD32VW55X_Wifi_BLE_SDK/GD32VW55x_RELEASE_V1.0.2/MSDK/lwip/lwip-2.1.2/src/api\api_lib.c ****   struct netconn *conn;
 246              		.loc 1 150 1 is_stmt 0
 247 0008 0111     		addi	sp,sp,-32
 248              		.cfi_def_cfa_offset 48
 150:C:/Users/stapi/OneDrive/Desktop/GD32VW553/GD32VW55X_Wifi_BLE_SDK/GD32VW55x_RELEASE_V1.0.2/MSDK/lwip/lwip-2.1.2/src/api\api_lib.c ****   struct netconn *conn;
 249              		.loc 1 150 1
 250 000a AE84     		mv	s1,a1
 155:C:/Users/stapi/OneDrive/Desktop/GD32VW553/GD32VW55X_Wifi_BLE_SDK/GD32VW55x_RELEASE_V1.0.2/MSDK/lwip/lwip-2.1.2/src/api\api_lib.c ****   if (conn != NULL) {
 251              		.loc 1 155 10
 252 000c B285     		mv	a1,a2
 253              	.LVL22:
 254 000e 97000000 		call	netconn_alloc
 254      E7800000 
 255              	.LVL23:
 256 0016 2A84     		mv	s0,a0
 257              	.LVL24:
 156:C:/Users/stapi/OneDrive/Desktop/GD32VW553/GD32VW55X_Wifi_BLE_SDK/GD32VW55x_RELEASE_V1.0.2/MSDK/lwip/lwip-2.1.2/src/api\api_lib.c ****     err_t err;
 258              		.loc 1 156 3 is_stmt 1
 156:C:/Users/stapi/OneDrive/Desktop/GD32VW553/GD32VW55X_Wifi_BLE_SDK/GD32VW55x_RELEASE_V1.0.2/MSDK/lwip/lwip-2.1.2/src/api\api_lib.c ****     err_t err;
 259              		.loc 1 156 6 is_stmt 0
 260 0018 6DC5     		beq	a0,zero,.L16
 261              	.LBB11:
 157:C:/Users/stapi/OneDrive/Desktop/GD32VW553/GD32VW55X_Wifi_BLE_SDK/GD32VW55x_RELEASE_V1.0.2/MSDK/lwip/lwip-2.1.2/src/api\api_lib.c **** 
 262              		.loc 1 157 5 is_stmt 1
 159:C:/Users/stapi/OneDrive/Desktop/GD32VW553/GD32VW55X_Wifi_BLE_SDK/GD32VW55x_RELEASE_V1.0.2/MSDK/lwip/lwip-2.1.2/src/api\api_lib.c ****     API_MSG_VAR_REF(msg).conn = conn;
 263              		.loc 1 159 5
 160:C:/Users/stapi/OneDrive/Desktop/GD32VW553/GD32VW55X_Wifi_BLE_SDK/GD32VW55x_RELEASE_V1.0.2/MSDK/lwip/lwip-2.1.2/src/api\api_lib.c ****     err = netconn_apimsg(lwip_netconn_do_newconn, &API_MSG_VAR_REF(msg));
 264              		.loc 1 160 31 is_stmt 0
 265 001a 2AC0     		sw	a0,0(sp)
 161:C:/Users/stapi/OneDrive/Desktop/GD32VW553/GD32VW55X_Wifi_BLE_SDK/GD32VW55x_RELEASE_V1.0.2/MSDK/lwip/lwip-2.1.2/src/api\api_lib.c ****     if (err != ERR_OK) {
 266              		.loc 1 161 11
 267 001c 37050000 		lui	a0,%hi(lwip_netconn_do_newconn)
 268 0020 8A85     		mv	a1,sp
 269 0022 13050500 		addi	a0,a0,%lo(lwip_netconn_do_newconn)
 159:C:/Users/stapi/OneDrive/Desktop/GD32VW553/GD32VW55X_Wifi_BLE_SDK/GD32VW55x_RELEASE_V1.0.2/MSDK/lwip/lwip-2.1.2/src/api\api_lib.c ****     API_MSG_VAR_REF(msg).conn = conn;
 270              		.loc 1 159 38
 271 0026 23049100 		sb	s1,8(sp)
 160:C:/Users/stapi/OneDrive/Desktop/GD32VW553/GD32VW55X_Wifi_BLE_SDK/GD32VW55x_RELEASE_V1.0.2/MSDK/lwip/lwip-2.1.2/src/api\api_lib.c ****     err = netconn_apimsg(lwip_netconn_do_newconn, &API_MSG_VAR_REF(msg));
 272              		.loc 1 160 5 is_stmt 1
 161:C:/Users/stapi/OneDrive/Desktop/GD32VW553/GD32VW55X_Wifi_BLE_SDK/GD32VW55x_RELEASE_V1.0.2/MSDK/lwip/lwip-2.1.2/src/api\api_lib.c ****     if (err != ERR_OK) {
 273              		.loc 1 161 5
 161:C:/Users/stapi/OneDrive/Desktop/GD32VW553/GD32VW55X_Wifi_BLE_SDK/GD32VW55x_RELEASE_V1.0.2/MSDK/lwip/lwip-2.1.2/src/api\api_lib.c ****     if (err != ERR_OK) {
 274              		.loc 1 161 11 is_stmt 0
 275 002a 97000000 		call	netconn_apimsg
 275      E7800000 
 276              	.LVL25:
 162:C:/Users/stapi/OneDrive/Desktop/GD32VW553/GD32VW55X_Wifi_BLE_SDK/GD32VW55x_RELEASE_V1.0.2/MSDK/lwip/lwip-2.1.2/src/api\api_lib.c ****       LWIP_ASSERT("freeing conn without freeing pcb", conn->pcb.tcp == NULL);
 277              		.loc 1 162 5 is_stmt 1
 162:C:/Users/stapi/OneDrive/Desktop/GD32VW553/GD32VW55X_Wifi_BLE_SDK/GD32VW55x_RELEASE_V1.0.2/MSDK/lwip/lwip-2.1.2/src/api\api_lib.c ****       LWIP_ASSERT("freeing conn without freeing pcb", conn->pcb.tcp == NULL);
 278              		.loc 1 162 8 is_stmt 0
 279 0032 61C9     		beq	a0,zero,.L16
 163:C:/Users/stapi/OneDrive/Desktop/GD32VW553/GD32VW55X_Wifi_BLE_SDK/GD32VW55x_RELEASE_V1.0.2/MSDK/lwip/lwip-2.1.2/src/api\api_lib.c ****       LWIP_ASSERT("conn has no recvmbox", sys_mbox_valid(&conn->recvmbox));
 280              		.loc 1 163 7 is_stmt 1
 163:C:/Users/stapi/OneDrive/Desktop/GD32VW553/GD32VW55X_Wifi_BLE_SDK/GD32VW55x_RELEASE_V1.0.2/MSDK/lwip/lwip-2.1.2/src/api\api_lib.c ****       LWIP_ASSERT("conn has no recvmbox", sys_mbox_valid(&conn->recvmbox));
 281              		.loc 1 163 7
 282 0034 1C44     		lw	a5,8(s0)
 283 0036 85C7     		beq	a5,zero,.L18
 163:C:/Users/stapi/OneDrive/Desktop/GD32VW553/GD32VW55X_Wifi_BLE_SDK/GD32VW55x_RELEASE_V1.0.2/MSDK/lwip/lwip-2.1.2/src/api\api_lib.c ****       LWIP_ASSERT("conn has no recvmbox", sys_mbox_valid(&conn->recvmbox));
 284              		.loc 1 163 7 discriminator 1
 163:C:/Users/stapi/OneDrive/Desktop/GD32VW553/GD32VW55X_Wifi_BLE_SDK/GD32VW55x_RELEASE_V1.0.2/MSDK/lwip/lwip-2.1.2/src/api\api_lib.c ****       LWIP_ASSERT("conn has no recvmbox", sys_mbox_valid(&conn->recvmbox));
 285              		.loc 1 163 7 discriminator 1
 286 0038 B7060000 		lui	a3,%hi(.LC0)
 287 003c B7050000 		lui	a1,%hi(.LC4)
 288 0040 37050000 		lui	a0,%hi(.LC2)
 289              	.LVL26:
 290 0044 93860600 		addi	a3,a3,%lo(.LC0)
 291 0048 1306300A 		li	a2,163
 292 004c 93850500 		addi	a1,a1,%lo(.LC4)
 293 0050 13050500 		addi	a0,a0,%lo(.LC2)
 294 0054 97000000 		call	printf
 294      E7800000 
 295              	.LVL27:
 296              	.L19:
 163:C:/Users/stapi/OneDrive/Desktop/GD32VW553/GD32VW55X_Wifi_BLE_SDK/GD32VW55x_RELEASE_V1.0.2/MSDK/lwip/lwip-2.1.2/src/api\api_lib.c ****       LWIP_ASSERT("conn has no recvmbox", sys_mbox_valid(&conn->recvmbox));
 297              		.loc 1 163 7 discriminator 1
 163:C:/Users/stapi/OneDrive/Desktop/GD32VW553/GD32VW55X_Wifi_BLE_SDK/GD32VW55x_RELEASE_V1.0.2/MSDK/lwip/lwip-2.1.2/src/api\api_lib.c ****       LWIP_ASSERT("conn has no recvmbox", sys_mbox_valid(&conn->recvmbox));
 298              		.loc 1 163 7 discriminator 1
 163:C:/Users/stapi/OneDrive/Desktop/GD32VW553/GD32VW55X_Wifi_BLE_SDK/GD32VW55x_RELEASE_V1.0.2/MSDK/lwip/lwip-2.1.2/src/api\api_lib.c ****       LWIP_ASSERT("conn has no recvmbox", sys_mbox_valid(&conn->recvmbox));
 299              		.loc 1 163 7 discriminator 1
 300 005c 01A0     		j	.L19
 301              	.LVL28:
 302              	.L18:
 163:C:/Users/stapi/OneDrive/Desktop/GD32VW553/GD32VW55X_Wifi_BLE_SDK/GD32VW55x_RELEASE_V1.0.2/MSDK/lwip/lwip-2.1.2/src/api\api_lib.c ****       LWIP_ASSERT("conn has no recvmbox", sys_mbox_valid(&conn->recvmbox));
 303              		.loc 1 163 7 discriminator 2
 163:C:/Users/stapi/OneDrive/Desktop/GD32VW553/GD32VW55X_Wifi_BLE_SDK/GD32VW55x_RELEASE_V1.0.2/MSDK/lwip/lwip-2.1.2/src/api\api_lib.c ****       LWIP_ASSERT("conn has no recvmbox", sys_mbox_valid(&conn->recvmbox));
 304              		.loc 1 163 7 discriminator 2
 164:C:/Users/stapi/OneDrive/Desktop/GD32VW553/GD32VW55X_Wifi_BLE_SDK/GD32VW55x_RELEASE_V1.0.2/MSDK/lwip/lwip-2.1.2/src/api\api_lib.c **** #if LWIP_TCP
 305              		.loc 1 164 7 discriminator 2
 164:C:/Users/stapi/OneDrive/Desktop/GD32VW553/GD32VW55X_Wifi_BLE_SDK/GD32VW55x_RELEASE_V1.0.2/MSDK/lwip/lwip-2.1.2/src/api\api_lib.c **** #if LWIP_TCP
 306              		.loc 1 164 7 discriminator 2
 307 005e 5C48     		lw	a5,20(s0)
 308 0060 85E7     		bne	a5,zero,.L20
 164:C:/Users/stapi/OneDrive/Desktop/GD32VW553/GD32VW55X_Wifi_BLE_SDK/GD32VW55x_RELEASE_V1.0.2/MSDK/lwip/lwip-2.1.2/src/api\api_lib.c **** #if LWIP_TCP
 309              		.loc 1 164 7 discriminator 1
 164:C:/Users/stapi/OneDrive/Desktop/GD32VW553/GD32VW55X_Wifi_BLE_SDK/GD32VW55x_RELEASE_V1.0.2/MSDK/lwip/lwip-2.1.2/src/api\api_lib.c **** #if LWIP_TCP
 310              		.loc 1 164 7 discriminator 1
 311 0062 B7060000 		lui	a3,%hi(.LC0)
 312 0066 B7050000 		lui	a1,%hi(.LC5)
 313 006a 37050000 		lui	a0,%hi(.LC2)
 314              	.LVL29:
 315 006e 93860600 		addi	a3,a3,%lo(.LC0)
 316 0072 1306400A 		li	a2,164
 317 0076 93850500 		addi	a1,a1,%lo(.LC5)
 318 007a 13050500 		addi	a0,a0,%lo(.LC2)
 319 007e 97000000 		call	printf
 319      E7800000 
 320              	.LVL30:
 321              	.L21:
 164:C:/Users/stapi/OneDrive/Desktop/GD32VW553/GD32VW55X_Wifi_BLE_SDK/GD32VW55x_RELEASE_V1.0.2/MSDK/lwip/lwip-2.1.2/src/api\api_lib.c **** #if LWIP_TCP
 322              		.loc 1 164 7 discriminator 2
 164:C:/Users/stapi/OneDrive/Desktop/GD32VW553/GD32VW55X_Wifi_BLE_SDK/GD32VW55x_RELEASE_V1.0.2/MSDK/lwip/lwip-2.1.2/src/api\api_lib.c **** #if LWIP_TCP
 323              		.loc 1 164 7 discriminator 2
 164:C:/Users/stapi/OneDrive/Desktop/GD32VW553/GD32VW55X_Wifi_BLE_SDK/GD32VW55x_RELEASE_V1.0.2/MSDK/lwip/lwip-2.1.2/src/api\api_lib.c **** #if LWIP_TCP
 324              		.loc 1 164 7 discriminator 2
 325 0086 01A0     		j	.L21
 326              	.LVL31:
 327              	.L20:
 164:C:/Users/stapi/OneDrive/Desktop/GD32VW553/GD32VW55X_Wifi_BLE_SDK/GD32VW55x_RELEASE_V1.0.2/MSDK/lwip/lwip-2.1.2/src/api\api_lib.c **** #if LWIP_TCP
 328              		.loc 1 164 7 discriminator 2
 164:C:/Users/stapi/OneDrive/Desktop/GD32VW553/GD32VW55X_Wifi_BLE_SDK/GD32VW55x_RELEASE_V1.0.2/MSDK/lwip/lwip-2.1.2/src/api\api_lib.c **** #if LWIP_TCP
 329              		.loc 1 164 7 discriminator 2
 166:C:/Users/stapi/OneDrive/Desktop/GD32VW553/GD32VW55X_Wifi_BLE_SDK/GD32VW55x_RELEASE_V1.0.2/MSDK/lwip/lwip-2.1.2/src/api\api_lib.c **** #endif /* LWIP_TCP */
 330              		.loc 1 166 7 discriminator 2
 166:C:/Users/stapi/OneDrive/Desktop/GD32VW553/GD32VW55X_Wifi_BLE_SDK/GD32VW55x_RELEASE_V1.0.2/MSDK/lwip/lwip-2.1.2/src/api\api_lib.c **** #endif /* LWIP_TCP */
 331              		.loc 1 166 7 discriminator 2
 332 0088 1C4C     		lw	a5,24(s0)
 333 008a 85C7     		beq	a5,zero,.L22
 166:C:/Users/stapi/OneDrive/Desktop/GD32VW553/GD32VW55X_Wifi_BLE_SDK/GD32VW55x_RELEASE_V1.0.2/MSDK/lwip/lwip-2.1.2/src/api\api_lib.c **** #endif /* LWIP_TCP */
 334              		.loc 1 166 7 discriminator 1
 166:C:/Users/stapi/OneDrive/Desktop/GD32VW553/GD32VW55X_Wifi_BLE_SDK/GD32VW55x_RELEASE_V1.0.2/MSDK/lwip/lwip-2.1.2/src/api\api_lib.c **** #endif /* LWIP_TCP */
 335              		.loc 1 166 7 discriminator 1
 336 008c B7060000 		lui	a3,%hi(.LC0)
 337 0090 B7050000 		lui	a1,%hi(.LC6)
 338 0094 37050000 		lui	a0,%hi(.LC2)
 339              	.LVL32:
 340 0098 93860600 		addi	a3,a3,%lo(.LC0)
 341 009c 1306600A 		li	a2,166
 342 00a0 93850500 		addi	a1,a1,%lo(.LC6)
 343 00a4 13050500 		addi	a0,a0,%lo(.LC2)
 344 00a8 97000000 		call	printf
 344      E7800000 
 345              	.LVL33:
 346              	.L23:
 166:C:/Users/stapi/OneDrive/Desktop/GD32VW553/GD32VW55X_Wifi_BLE_SDK/GD32VW55x_RELEASE_V1.0.2/MSDK/lwip/lwip-2.1.2/src/api\api_lib.c **** #endif /* LWIP_TCP */
 347              		.loc 1 166 7 discriminator 3
 166:C:/Users/stapi/OneDrive/Desktop/GD32VW553/GD32VW55X_Wifi_BLE_SDK/GD32VW55x_RELEASE_V1.0.2/MSDK/lwip/lwip-2.1.2/src/api\api_lib.c **** #endif /* LWIP_TCP */
 348              		.loc 1 166 7 discriminator 3
 166:C:/Users/stapi/OneDrive/Desktop/GD32VW553/GD32VW55X_Wifi_BLE_SDK/GD32VW55x_RELEASE_V1.0.2/MSDK/lwip/lwip-2.1.2/src/api\api_lib.c **** #endif /* LWIP_TCP */
 349              		.loc 1 166 7 discriminator 3
 350 00b0 01A0     		j	.L23
 351              	.LVL34:
 352              	.L22:
 166:C:/Users/stapi/OneDrive/Desktop/GD32VW553/GD32VW55X_Wifi_BLE_SDK/GD32VW55x_RELEASE_V1.0.2/MSDK/lwip/lwip-2.1.2/src/api\api_lib.c **** #endif /* LWIP_TCP */
 353              		.loc 1 166 7 discriminator 2
 166:C:/Users/stapi/OneDrive/Desktop/GD32VW553/GD32VW55X_Wifi_BLE_SDK/GD32VW55x_RELEASE_V1.0.2/MSDK/lwip/lwip-2.1.2/src/api\api_lib.c **** #endif /* LWIP_TCP */
 354              		.loc 1 166 7 discriminator 2
 169:C:/Users/stapi/OneDrive/Desktop/GD32VW553/GD32VW55X_Wifi_BLE_SDK/GD32VW55x_RELEASE_V1.0.2/MSDK/lwip/lwip-2.1.2/src/api\api_lib.c ****       sys_sem_free(&conn->op_completed);
 355              		.loc 1 169 7 discriminator 2
 169:C:/Users/stapi/OneDrive/Desktop/GD32VW553/GD32VW55X_Wifi_BLE_SDK/GD32VW55x_RELEASE_V1.0.2/MSDK/lwip/lwip-2.1.2/src/api\api_lib.c ****       sys_sem_free(&conn->op_completed);
 356              		.loc 1 169 7 discriminator 2
 357 00b2 1C48     		lw	a5,16(s0)
 358 00b4 85E7     		bne	a5,zero,.L24
 169:C:/Users/stapi/OneDrive/Desktop/GD32VW553/GD32VW55X_Wifi_BLE_SDK/GD32VW55x_RELEASE_V1.0.2/MSDK/lwip/lwip-2.1.2/src/api\api_lib.c ****       sys_sem_free(&conn->op_completed);
 359              		.loc 1 169 7 discriminator 1
 169:C:/Users/stapi/OneDrive/Desktop/GD32VW553/GD32VW55X_Wifi_BLE_SDK/GD32VW55x_RELEASE_V1.0.2/MSDK/lwip/lwip-2.1.2/src/api\api_lib.c ****       sys_sem_free(&conn->op_completed);
 360              		.loc 1 169 7 discriminator 1
 361 00b6 B7060000 		lui	a3,%hi(.LC0)
 362 00ba B7050000 		lui	a1,%hi(.LC7)
 363 00be 37050000 		lui	a0,%hi(.LC2)
 364              	.LVL35:
 365 00c2 93860600 		addi	a3,a3,%lo(.LC0)
 366 00c6 1306900A 		li	a2,169
 367 00ca 93850500 		addi	a1,a1,%lo(.LC7)
 368 00ce 13050500 		addi	a0,a0,%lo(.LC2)
 369 00d2 97000000 		call	printf
 369      E7800000 
 370              	.LVL36:
 371              	.L25:
 169:C:/Users/stapi/OneDrive/Desktop/GD32VW553/GD32VW55X_Wifi_BLE_SDK/GD32VW55x_RELEASE_V1.0.2/MSDK/lwip/lwip-2.1.2/src/api\api_lib.c ****       sys_sem_free(&conn->op_completed);
 372              		.loc 1 169 7 discriminator 4
 169:C:/Users/stapi/OneDrive/Desktop/GD32VW553/GD32VW55X_Wifi_BLE_SDK/GD32VW55x_RELEASE_V1.0.2/MSDK/lwip/lwip-2.1.2/src/api\api_lib.c ****       sys_sem_free(&conn->op_completed);
 373              		.loc 1 169 7 discriminator 4
 169:C:/Users/stapi/OneDrive/Desktop/GD32VW553/GD32VW55X_Wifi_BLE_SDK/GD32VW55x_RELEASE_V1.0.2/MSDK/lwip/lwip-2.1.2/src/api\api_lib.c ****       sys_sem_free(&conn->op_completed);
 374              		.loc 1 169 7 discriminator 4
 375 00da 01A0     		j	.L25
 376              	.LVL37:
 377              	.L24:
 169:C:/Users/stapi/OneDrive/Desktop/GD32VW553/GD32VW55X_Wifi_BLE_SDK/GD32VW55x_RELEASE_V1.0.2/MSDK/lwip/lwip-2.1.2/src/api\api_lib.c ****       sys_sem_free(&conn->op_completed);
 378              		.loc 1 169 7 discriminator 2
 169:C:/Users/stapi/OneDrive/Desktop/GD32VW553/GD32VW55X_Wifi_BLE_SDK/GD32VW55x_RELEASE_V1.0.2/MSDK/lwip/lwip-2.1.2/src/api\api_lib.c ****       sys_sem_free(&conn->op_completed);
 379              		.loc 1 169 7 discriminator 2
 170:C:/Users/stapi/OneDrive/Desktop/GD32VW553/GD32VW55X_Wifi_BLE_SDK/GD32VW55x_RELEASE_V1.0.2/MSDK/lwip/lwip-2.1.2/src/api\api_lib.c **** #endif /* !LWIP_NETCONN_SEM_PER_THREAD */
 380              		.loc 1 170 7 discriminator 2
 381 00dc 13050401 		addi	a0,s0,16
 382              	.LVL38:
 383 00e0 97000000 		call	sys_sem_free
 383      E7800000 
 384              	.LVL39:
 172:C:/Users/stapi/OneDrive/Desktop/GD32VW553/GD32VW55X_Wifi_BLE_SDK/GD32VW55x_RELEASE_V1.0.2/MSDK/lwip/lwip-2.1.2/src/api\api_lib.c ****       memp_free(MEMP_NETCONN, conn);
 385              		.loc 1 172 7 discriminator 2
 386 00e8 13054401 		addi	a0,s0,20
 387 00ec 97000000 		call	sys_mbox_free
 387      E7800000 
 388              	.LVL40:
 173:C:/Users/stapi/OneDrive/Desktop/GD32VW553/GD32VW55X_Wifi_BLE_SDK/GD32VW55x_RELEASE_V1.0.2/MSDK/lwip/lwip-2.1.2/src/api\api_lib.c ****       API_MSG_VAR_FREE(msg);
 389              		.loc 1 173 7 discriminator 2
 390 00f4 A285     		mv	a1,s0
 391 00f6 2545     		li	a0,9
 392 00f8 97000000 		call	memp_free
 392      E7800000 
 393              	.LVL41:
 174:C:/Users/stapi/OneDrive/Desktop/GD32VW553/GD32VW55X_Wifi_BLE_SDK/GD32VW55x_RELEASE_V1.0.2/MSDK/lwip/lwip-2.1.2/src/api\api_lib.c ****       return NULL;
 394              		.loc 1 174 28 discriminator 2
 175:C:/Users/stapi/OneDrive/Desktop/GD32VW553/GD32VW55X_Wifi_BLE_SDK/GD32VW55x_RELEASE_V1.0.2/MSDK/lwip/lwip-2.1.2/src/api\api_lib.c ****     }
 395              		.loc 1 175 7 discriminator 2
 175:C:/Users/stapi/OneDrive/Desktop/GD32VW553/GD32VW55X_Wifi_BLE_SDK/GD32VW55x_RELEASE_V1.0.2/MSDK/lwip/lwip-2.1.2/src/api\api_lib.c ****     }
 396              		.loc 1 175 14 is_stmt 0 discriminator 2
 397 0100 0144     		li	s0,0
 398              	.LVL42:
 399              	.L16:
 400              	.LBE11:
 180:C:/Users/stapi/OneDrive/Desktop/GD32VW553/GD32VW55X_Wifi_BLE_SDK/GD32VW55x_RELEASE_V1.0.2/MSDK/lwip/lwip-2.1.2/src/api\api_lib.c **** 
 401              		.loc 1 180 1
 402 0102 2285     		mv	a0,s0
 403 0104 0561     		addi	sp,sp,32
 404              		.cfi_def_cfa_offset 0
 405 0106 17030000 		tail	__riscv_restore_2
 405      67000300 
 406              		.cfi_restore 9
 407              		.cfi_restore 8
 408              		.cfi_restore 1
 409              		.cfi_def_cfa_offset -16
 410              		.cfi_endproc
 411              	.LFE5:
 413              		.section	.text.netconn_prepare_delete,"ax",@progbits
 414              		.align	1
 415              		.globl	netconn_prepare_delete
 417              	netconn_prepare_delete:
 418              	.LFB6:
 193:C:/Users/stapi/OneDrive/Desktop/GD32VW553/GD32VW55X_Wifi_BLE_SDK/GD32VW55x_RELEASE_V1.0.2/MSDK/lwip/lwip-2.1.2/src/api\api_lib.c ****   err_t err;
 419              		.loc 1 193 1 is_stmt 1
 420              		.cfi_startproc
 421              	.LVL43:
 194:C:/Users/stapi/OneDrive/Desktop/GD32VW553/GD32VW55X_Wifi_BLE_SDK/GD32VW55x_RELEASE_V1.0.2/MSDK/lwip/lwip-2.1.2/src/api\api_lib.c ****   API_MSG_VAR_DECLARE(msg);
 422              		.loc 1 194 3
 195:C:/Users/stapi/OneDrive/Desktop/GD32VW553/GD32VW55X_Wifi_BLE_SDK/GD32VW55x_RELEASE_V1.0.2/MSDK/lwip/lwip-2.1.2/src/api\api_lib.c **** 
 423              		.loc 1 195 3
 198:C:/Users/stapi/OneDrive/Desktop/GD32VW553/GD32VW55X_Wifi_BLE_SDK/GD32VW55x_RELEASE_V1.0.2/MSDK/lwip/lwip-2.1.2/src/api\api_lib.c ****     return ERR_OK;
 424              		.loc 1 198 3
 198:C:/Users/stapi/OneDrive/Desktop/GD32VW553/GD32VW55X_Wifi_BLE_SDK/GD32VW55x_RELEASE_V1.0.2/MSDK/lwip/lwip-2.1.2/src/api\api_lib.c ****     return ERR_OK;
 425              		.loc 1 198 6 is_stmt 0
 426 0000 0DC9     		beq	a0,zero,.L35
 193:C:/Users/stapi/OneDrive/Desktop/GD32VW553/GD32VW55X_Wifi_BLE_SDK/GD32VW55x_RELEASE_V1.0.2/MSDK/lwip/lwip-2.1.2/src/api\api_lib.c ****   err_t err;
 427              		.loc 1 193 1
 428 0002 17030000 		call	t0,__riscv_save_0
 428      E7020300 
 429              		.cfi_offset 1, -4
 430              		.cfi_def_cfa_offset 16
 431              	.LVL44:
 432              	.LBB14:
 433              	.LBB15:
 202:C:/Users/stapi/OneDrive/Desktop/GD32VW553/GD32VW55X_Wifi_BLE_SDK/GD32VW55x_RELEASE_V1.0.2/MSDK/lwip/lwip-2.1.2/src/api\api_lib.c ****   API_MSG_VAR_REF(msg).conn = conn;
 434              		.loc 1 202 25 is_stmt 1
 203:C:/Users/stapi/OneDrive/Desktop/GD32VW553/GD32VW55X_Wifi_BLE_SDK/GD32VW55x_RELEASE_V1.0.2/MSDK/lwip/lwip-2.1.2/src/api\api_lib.c **** #if LWIP_SO_SNDTIMEO || LWIP_SO_LINGER
 435              		.loc 1 203 3
 436              	.LBE15:
 437              	.LBE14:
 193:C:/Users/stapi/OneDrive/Desktop/GD32VW553/GD32VW55X_Wifi_BLE_SDK/GD32VW55x_RELEASE_V1.0.2/MSDK/lwip/lwip-2.1.2/src/api\api_lib.c ****   err_t err;
 438              		.loc 1 193 1 is_stmt 0
 439 000a 0111     		addi	sp,sp,-32
 440              		.cfi_def_cfa_offset 48
 441              	.LBB17:
 442              	.LBB16:
 203:C:/Users/stapi/OneDrive/Desktop/GD32VW553/GD32VW55X_Wifi_BLE_SDK/GD32VW55x_RELEASE_V1.0.2/MSDK/lwip/lwip-2.1.2/src/api\api_lib.c **** #if LWIP_SO_SNDTIMEO || LWIP_SO_LINGER
 443              		.loc 1 203 29
 444 000c 2AC0     		sw	a0,0(sp)
 210:C:/Users/stapi/OneDrive/Desktop/GD32VW553/GD32VW55X_Wifi_BLE_SDK/GD32VW55x_RELEASE_V1.0.2/MSDK/lwip/lwip-2.1.2/src/api\api_lib.c ****     ((LWIP_TCP_CLOSE_TIMEOUT_MS_DEFAULT + TCP_SLOW_INTERVAL - 1) / TCP_SLOW_INTERVAL) + 1;
 445              		.loc 1 210 3 is_stmt 1
 214:C:/Users/stapi/OneDrive/Desktop/GD32VW553/GD32VW55X_Wifi_BLE_SDK/GD32VW55x_RELEASE_V1.0.2/MSDK/lwip/lwip-2.1.2/src/api\api_lib.c ****   API_MSG_VAR_FREE(msg);
 446              		.loc 1 214 9 is_stmt 0
 447 000e 37050000 		lui	a0,%hi(lwip_netconn_do_delconn)
 448              	.LVL45:
 210:C:/Users/stapi/OneDrive/Desktop/GD32VW553/GD32VW55X_Wifi_BLE_SDK/GD32VW55x_RELEASE_V1.0.2/MSDK/lwip/lwip-2.1.2/src/api\api_lib.c ****     ((LWIP_TCP_CLOSE_TIMEOUT_MS_DEFAULT + TCP_SLOW_INTERVAL - 1) / TCP_SLOW_INTERVAL) + 1;
 449              		.loc 1 210 42
 450 0012 93079002 		li	a5,41
 214:C:/Users/stapi/OneDrive/Desktop/GD32VW553/GD32VW55X_Wifi_BLE_SDK/GD32VW55x_RELEASE_V1.0.2/MSDK/lwip/lwip-2.1.2/src/api\api_lib.c ****   API_MSG_VAR_FREE(msg);
 451              		.loc 1 214 9
 452 0016 8A85     		mv	a1,sp
 453 0018 13050500 		addi	a0,a0,%lo(lwip_netconn_do_delconn)
 210:C:/Users/stapi/OneDrive/Desktop/GD32VW553/GD32VW55X_Wifi_BLE_SDK/GD32VW55x_RELEASE_V1.0.2/MSDK/lwip/lwip-2.1.2/src/api\api_lib.c ****     ((LWIP_TCP_CLOSE_TIMEOUT_MS_DEFAULT + TCP_SLOW_INTERVAL - 1) / TCP_SLOW_INTERVAL) + 1;
 454              		.loc 1 210 42
 455 001c A304F100 		sb	a5,9(sp)
 214:C:/Users/stapi/OneDrive/Desktop/GD32VW553/GD32VW55X_Wifi_BLE_SDK/GD32VW55x_RELEASE_V1.0.2/MSDK/lwip/lwip-2.1.2/src/api\api_lib.c ****   API_MSG_VAR_FREE(msg);
 456              		.loc 1 214 3 is_stmt 1
 214:C:/Users/stapi/OneDrive/Desktop/GD32VW553/GD32VW55X_Wifi_BLE_SDK/GD32VW55x_RELEASE_V1.0.2/MSDK/lwip/lwip-2.1.2/src/api\api_lib.c ****   API_MSG_VAR_FREE(msg);
 457              		.loc 1 214 9 is_stmt 0
 458 0020 97000000 		call	netconn_apimsg
 458      E7800000 
 459              	.LVL46:
 215:C:/Users/stapi/OneDrive/Desktop/GD32VW553/GD32VW55X_Wifi_BLE_SDK/GD32VW55x_RELEASE_V1.0.2/MSDK/lwip/lwip-2.1.2/src/api\api_lib.c **** 
 460              		.loc 1 215 24 is_stmt 1
 217:C:/Users/stapi/OneDrive/Desktop/GD32VW553/GD32VW55X_Wifi_BLE_SDK/GD32VW55x_RELEASE_V1.0.2/MSDK/lwip/lwip-2.1.2/src/api\api_lib.c ****     return err;
 461              		.loc 1 217 3
 462              	.LBE16:
 463              	.LBE17:
 221:C:/Users/stapi/OneDrive/Desktop/GD32VW553/GD32VW55X_Wifi_BLE_SDK/GD32VW55x_RELEASE_V1.0.2/MSDK/lwip/lwip-2.1.2/src/api\api_lib.c **** 
 464              		.loc 1 221 1 is_stmt 0
 465 0028 0561     		addi	sp,sp,32
 466              		.cfi_def_cfa_offset 0
 467 002a 17030000 		tail	__riscv_restore_0
 467      67000300 
 468              		.cfi_restore 1
 469              		.cfi_def_cfa_offset -16
 470              	.LVL47:
 471              	.L35:
 472              		.cfi_def_cfa_offset 0
 199:C:/Users/stapi/OneDrive/Desktop/GD32VW553/GD32VW55X_Wifi_BLE_SDK/GD32VW55x_RELEASE_V1.0.2/MSDK/lwip/lwip-2.1.2/src/api\api_lib.c ****   }
 473              		.loc 1 199 12
 474 0032 0145     		li	a0,0
 475              	.LVL48:
 221:C:/Users/stapi/OneDrive/Desktop/GD32VW553/GD32VW55X_Wifi_BLE_SDK/GD32VW55x_RELEASE_V1.0.2/MSDK/lwip/lwip-2.1.2/src/api\api_lib.c **** 
 476              		.loc 1 221 1
 477 0034 8280     		ret
 478              		.cfi_endproc
 479              	.LFE6:
 481              		.section	.text.netconn_delete,"ax",@progbits
 482              		.align	1
 483              		.globl	netconn_delete
 485              	netconn_delete:
 486              	.LFB7:
 234:C:/Users/stapi/OneDrive/Desktop/GD32VW553/GD32VW55X_Wifi_BLE_SDK/GD32VW55x_RELEASE_V1.0.2/MSDK/lwip/lwip-2.1.2/src/api\api_lib.c ****   err_t err;
 487              		.loc 1 234 1 is_stmt 1
 488              		.cfi_startproc
 489              	.LVL49:
 490 0000 17030000 		call	t0,__riscv_save_2
 490      E7020300 
 491              		.cfi_offset 9, -12
 492              		.cfi_offset 8, -8
 493              		.cfi_offset 1, -4
 494              		.cfi_def_cfa_offset 16
 235:C:/Users/stapi/OneDrive/Desktop/GD32VW553/GD32VW55X_Wifi_BLE_SDK/GD32VW55x_RELEASE_V1.0.2/MSDK/lwip/lwip-2.1.2/src/api\api_lib.c **** 
 495              		.loc 1 235 3
 238:C:/Users/stapi/OneDrive/Desktop/GD32VW553/GD32VW55X_Wifi_BLE_SDK/GD32VW55x_RELEASE_V1.0.2/MSDK/lwip/lwip-2.1.2/src/api\api_lib.c ****     return ERR_OK;
 496              		.loc 1 238 3
 239:C:/Users/stapi/OneDrive/Desktop/GD32VW553/GD32VW55X_Wifi_BLE_SDK/GD32VW55x_RELEASE_V1.0.2/MSDK/lwip/lwip-2.1.2/src/api\api_lib.c ****   }
 497              		.loc 1 239 12 is_stmt 0
 498 0008 0144     		li	s0,0
 238:C:/Users/stapi/OneDrive/Desktop/GD32VW553/GD32VW55X_Wifi_BLE_SDK/GD32VW55x_RELEASE_V1.0.2/MSDK/lwip/lwip-2.1.2/src/api\api_lib.c ****     return ERR_OK;
 499              		.loc 1 238 6
 500 000a 09CD     		beq	a0,zero,.L41
 501 000c AA84     		mv	s1,a0
 249:C:/Users/stapi/OneDrive/Desktop/GD32VW553/GD32VW55X_Wifi_BLE_SDK/GD32VW55x_RELEASE_V1.0.2/MSDK/lwip/lwip-2.1.2/src/api\api_lib.c ****   }
 502              		.loc 1 249 5 is_stmt 1
 249:C:/Users/stapi/OneDrive/Desktop/GD32VW553/GD32VW55X_Wifi_BLE_SDK/GD32VW55x_RELEASE_V1.0.2/MSDK/lwip/lwip-2.1.2/src/api\api_lib.c ****   }
 503              		.loc 1 249 11 is_stmt 0
 504 000e 97000000 		call	netconn_prepare_delete
 504      E7800000 
 505              	.LVL50:
 506 0016 2A84     		mv	s0,a0
 507              	.LVL51:
 251:C:/Users/stapi/OneDrive/Desktop/GD32VW553/GD32VW55X_Wifi_BLE_SDK/GD32VW55x_RELEASE_V1.0.2/MSDK/lwip/lwip-2.1.2/src/api\api_lib.c ****     netconn_free(conn);
 508              		.loc 1 251 3 is_stmt 1
 251:C:/Users/stapi/OneDrive/Desktop/GD32VW553/GD32VW55X_Wifi_BLE_SDK/GD32VW55x_RELEASE_V1.0.2/MSDK/lwip/lwip-2.1.2/src/api\api_lib.c ****     netconn_free(conn);
 509              		.loc 1 251 6 is_stmt 0
 510 0018 11E5     		bne	a0,zero,.L41
 252:C:/Users/stapi/OneDrive/Desktop/GD32VW553/GD32VW55X_Wifi_BLE_SDK/GD32VW55x_RELEASE_V1.0.2/MSDK/lwip/lwip-2.1.2/src/api\api_lib.c ****   }
 511              		.loc 1 252 5 is_stmt 1
 512 001a 2685     		mv	a0,s1
 513              	.LVL52:
 514 001c 97000000 		call	netconn_free
 514      E7800000 
 515              	.LVL53:
 516              	.L41:
 255:C:/Users/stapi/OneDrive/Desktop/GD32VW553/GD32VW55X_Wifi_BLE_SDK/GD32VW55x_RELEASE_V1.0.2/MSDK/lwip/lwip-2.1.2/src/api\api_lib.c **** 
 517              		.loc 1 255 1 is_stmt 0
 518 0024 2285     		mv	a0,s0
 519 0026 17030000 		tail	__riscv_restore_2
 519      67000300 
 520              		.cfi_restore 9
 521              		.cfi_restore 8
 522              		.cfi_restore 1
 523              		.cfi_def_cfa_offset 0
 524              		.cfi_endproc
 525              	.LFE7:
 527              		.section	.rodata.netconn_getaddr.str1.4,"aMS",@progbits,1
 528              		.align	2
 529              	.LC8:
 530 0000 6E657463 		.string	"netconn_getaddr: invalid conn"
 530      6F6E6E5F 
 530      67657461 
 530      6464723A 
 530      20696E76 
 531 001e 0000     		.align	2
 532              	.LC9:
 533 0020 6E657463 		.string	"netconn_getaddr: invalid addr"
 533      6F6E6E5F 
 533      67657461 
 533      6464723A 
 533      20696E76 
 534 003e 0000     		.align	2
 535              	.LC10:
 536 0040 6E657463 		.string	"netconn_getaddr: invalid port"
 536      6F6E6E5F 
 536      67657461 
 536      6464723A 
 536      20696E76 
 537              		.section	.text.netconn_getaddr,"ax",@progbits
 538              		.align	1
 539              		.globl	netconn_getaddr
 541              	netconn_getaddr:
 542              	.LFB8:
 270:C:/Users/stapi/OneDrive/Desktop/GD32VW553/GD32VW55X_Wifi_BLE_SDK/GD32VW55x_RELEASE_V1.0.2/MSDK/lwip/lwip-2.1.2/src/api\api_lib.c ****   API_MSG_VAR_DECLARE(msg);
 543              		.loc 1 270 1 is_stmt 1
 544              		.cfi_startproc
 545              	.LVL54:
 546 0000 17030000 		call	t0,__riscv_save_0
 546      E7020300 
 547              		.cfi_offset 1, -4
 548              		.cfi_def_cfa_offset 16
 271:C:/Users/stapi/OneDrive/Desktop/GD32VW553/GD32VW55X_Wifi_BLE_SDK/GD32VW55x_RELEASE_V1.0.2/MSDK/lwip/lwip-2.1.2/src/api\api_lib.c ****   err_t err;
 549              		.loc 1 271 3
 272:C:/Users/stapi/OneDrive/Desktop/GD32VW553/GD32VW55X_Wifi_BLE_SDK/GD32VW55x_RELEASE_V1.0.2/MSDK/lwip/lwip-2.1.2/src/api\api_lib.c **** 
 550              		.loc 1 272 3
 274:C:/Users/stapi/OneDrive/Desktop/GD32VW553/GD32VW55X_Wifi_BLE_SDK/GD32VW55x_RELEASE_V1.0.2/MSDK/lwip/lwip-2.1.2/src/api\api_lib.c ****   LWIP_ERROR("netconn_getaddr: invalid addr", (addr != NULL), return ERR_ARG;);
 551              		.loc 1 274 3
 274:C:/Users/stapi/OneDrive/Desktop/GD32VW553/GD32VW55X_Wifi_BLE_SDK/GD32VW55x_RELEASE_V1.0.2/MSDK/lwip/lwip-2.1.2/src/api\api_lib.c ****   LWIP_ERROR("netconn_getaddr: invalid addr", (addr != NULL), return ERR_ARG;);
 552              		.loc 1 274 3
 270:C:/Users/stapi/OneDrive/Desktop/GD32VW553/GD32VW55X_Wifi_BLE_SDK/GD32VW55x_RELEASE_V1.0.2/MSDK/lwip/lwip-2.1.2/src/api\api_lib.c ****   API_MSG_VAR_DECLARE(msg);
 553              		.loc 1 270 1 is_stmt 0
 554 0008 0111     		addi	sp,sp,-32
 555              		.cfi_def_cfa_offset 48
 274:C:/Users/stapi/OneDrive/Desktop/GD32VW553/GD32VW55X_Wifi_BLE_SDK/GD32VW55x_RELEASE_V1.0.2/MSDK/lwip/lwip-2.1.2/src/api\api_lib.c ****   LWIP_ERROR("netconn_getaddr: invalid addr", (addr != NULL), return ERR_ARG;);
 556              		.loc 1 274 3
 557 000a 05E5     		bne	a0,zero,.L45
 274:C:/Users/stapi/OneDrive/Desktop/GD32VW553/GD32VW55X_Wifi_BLE_SDK/GD32VW55x_RELEASE_V1.0.2/MSDK/lwip/lwip-2.1.2/src/api\api_lib.c ****   LWIP_ERROR("netconn_getaddr: invalid addr", (addr != NULL), return ERR_ARG;);
 558              		.loc 1 274 3 is_stmt 1 discriminator 1
 274:C:/Users/stapi/OneDrive/Desktop/GD32VW553/GD32VW55X_Wifi_BLE_SDK/GD32VW55x_RELEASE_V1.0.2/MSDK/lwip/lwip-2.1.2/src/api\api_lib.c ****   LWIP_ERROR("netconn_getaddr: invalid addr", (addr != NULL), return ERR_ARG;);
 559              		.loc 1 274 3 discriminator 1
 560 000c B7060000 		lui	a3,%hi(.LC0)
 561              	.LVL55:
 562 0010 B7050000 		lui	a1,%hi(.LC8)
 563              	.LVL56:
 564 0014 37050000 		lui	a0,%hi(.LC2)
 565              	.LVL57:
 566 0018 93860600 		addi	a3,a3,%lo(.LC0)
 567 001c 13062011 		li	a2,274
 568              	.LVL58:
 569 0020 93850500 		addi	a1,a1,%lo(.LC8)
 570 0024 13050500 		addi	a0,a0,%lo(.LC2)
 571 0028 97000000 		call	printf
 571      E7800000 
 572              	.LVL59:
 573              	.L46:
 274:C:/Users/stapi/OneDrive/Desktop/GD32VW553/GD32VW55X_Wifi_BLE_SDK/GD32VW55x_RELEASE_V1.0.2/MSDK/lwip/lwip-2.1.2/src/api\api_lib.c ****   LWIP_ERROR("netconn_getaddr: invalid addr", (addr != NULL), return ERR_ARG;);
 574              		.loc 1 274 3 discriminator 1
 274:C:/Users/stapi/OneDrive/Desktop/GD32VW553/GD32VW55X_Wifi_BLE_SDK/GD32VW55x_RELEASE_V1.0.2/MSDK/lwip/lwip-2.1.2/src/api\api_lib.c ****   LWIP_ERROR("netconn_getaddr: invalid addr", (addr != NULL), return ERR_ARG;);
 575              		.loc 1 274 3 discriminator 1
 274:C:/Users/stapi/OneDrive/Desktop/GD32VW553/GD32VW55X_Wifi_BLE_SDK/GD32VW55x_RELEASE_V1.0.2/MSDK/lwip/lwip-2.1.2/src/api\api_lib.c ****   LWIP_ERROR("netconn_getaddr: invalid addr", (addr != NULL), return ERR_ARG;);
 576              		.loc 1 274 3 discriminator 1
 577 0030 01A0     		j	.L46
 578              	.LVL60:
 579              	.L45:
 274:C:/Users/stapi/OneDrive/Desktop/GD32VW553/GD32VW55X_Wifi_BLE_SDK/GD32VW55x_RELEASE_V1.0.2/MSDK/lwip/lwip-2.1.2/src/api\api_lib.c ****   LWIP_ERROR("netconn_getaddr: invalid addr", (addr != NULL), return ERR_ARG;);
 580              		.loc 1 274 3 discriminator 2
 274:C:/Users/stapi/OneDrive/Desktop/GD32VW553/GD32VW55X_Wifi_BLE_SDK/GD32VW55x_RELEASE_V1.0.2/MSDK/lwip/lwip-2.1.2/src/api\api_lib.c ****   LWIP_ERROR("netconn_getaddr: invalid addr", (addr != NULL), return ERR_ARG;);
 581              		.loc 1 274 3 discriminator 2
 275:C:/Users/stapi/OneDrive/Desktop/GD32VW553/GD32VW55X_Wifi_BLE_SDK/GD32VW55x_RELEASE_V1.0.2/MSDK/lwip/lwip-2.1.2/src/api\api_lib.c ****   LWIP_ERROR("netconn_getaddr: invalid port", (port != NULL), return ERR_ARG;);
 582              		.loc 1 275 3 discriminator 2
 275:C:/Users/stapi/OneDrive/Desktop/GD32VW553/GD32VW55X_Wifi_BLE_SDK/GD32VW55x_RELEASE_V1.0.2/MSDK/lwip/lwip-2.1.2/src/api\api_lib.c ****   LWIP_ERROR("netconn_getaddr: invalid port", (port != NULL), return ERR_ARG;);
 583              		.loc 1 275 3 discriminator 2
 584 0032 85E5     		bne	a1,zero,.L47
 275:C:/Users/stapi/OneDrive/Desktop/GD32VW553/GD32VW55X_Wifi_BLE_SDK/GD32VW55x_RELEASE_V1.0.2/MSDK/lwip/lwip-2.1.2/src/api\api_lib.c ****   LWIP_ERROR("netconn_getaddr: invalid port", (port != NULL), return ERR_ARG;);
 585              		.loc 1 275 3 discriminator 1
 275:C:/Users/stapi/OneDrive/Desktop/GD32VW553/GD32VW55X_Wifi_BLE_SDK/GD32VW55x_RELEASE_V1.0.2/MSDK/lwip/lwip-2.1.2/src/api\api_lib.c ****   LWIP_ERROR("netconn_getaddr: invalid port", (port != NULL), return ERR_ARG;);
 586              		.loc 1 275 3 discriminator 1
 587 0034 B7060000 		lui	a3,%hi(.LC0)
 588              	.LVL61:
 589 0038 B7050000 		lui	a1,%hi(.LC9)
 590              	.LVL62:
 591 003c 37050000 		lui	a0,%hi(.LC2)
 592              	.LVL63:
 593 0040 93860600 		addi	a3,a3,%lo(.LC0)
 594 0044 13063011 		li	a2,275
 595              	.LVL64:
 596 0048 93850500 		addi	a1,a1,%lo(.LC9)
 597 004c 13050500 		addi	a0,a0,%lo(.LC2)
 598 0050 97000000 		call	printf
 598      E7800000 
 599              	.LVL65:
 600              	.L48:
 275:C:/Users/stapi/OneDrive/Desktop/GD32VW553/GD32VW55X_Wifi_BLE_SDK/GD32VW55x_RELEASE_V1.0.2/MSDK/lwip/lwip-2.1.2/src/api\api_lib.c ****   LWIP_ERROR("netconn_getaddr: invalid port", (port != NULL), return ERR_ARG;);
 601              		.loc 1 275 3 discriminator 2
 275:C:/Users/stapi/OneDrive/Desktop/GD32VW553/GD32VW55X_Wifi_BLE_SDK/GD32VW55x_RELEASE_V1.0.2/MSDK/lwip/lwip-2.1.2/src/api\api_lib.c ****   LWIP_ERROR("netconn_getaddr: invalid port", (port != NULL), return ERR_ARG;);
 602              		.loc 1 275 3 discriminator 2
 275:C:/Users/stapi/OneDrive/Desktop/GD32VW553/GD32VW55X_Wifi_BLE_SDK/GD32VW55x_RELEASE_V1.0.2/MSDK/lwip/lwip-2.1.2/src/api\api_lib.c ****   LWIP_ERROR("netconn_getaddr: invalid port", (port != NULL), return ERR_ARG;);
 603              		.loc 1 275 3 discriminator 2
 604 0058 01A0     		j	.L48
 605              	.LVL66:
 606              	.L47:
 275:C:/Users/stapi/OneDrive/Desktop/GD32VW553/GD32VW55X_Wifi_BLE_SDK/GD32VW55x_RELEASE_V1.0.2/MSDK/lwip/lwip-2.1.2/src/api\api_lib.c ****   LWIP_ERROR("netconn_getaddr: invalid port", (port != NULL), return ERR_ARG;);
 607              		.loc 1 275 3 discriminator 2
 275:C:/Users/stapi/OneDrive/Desktop/GD32VW553/GD32VW55X_Wifi_BLE_SDK/GD32VW55x_RELEASE_V1.0.2/MSDK/lwip/lwip-2.1.2/src/api\api_lib.c ****   LWIP_ERROR("netconn_getaddr: invalid port", (port != NULL), return ERR_ARG;);
 608              		.loc 1 275 3 discriminator 2
 276:C:/Users/stapi/OneDrive/Desktop/GD32VW553/GD32VW55X_Wifi_BLE_SDK/GD32VW55x_RELEASE_V1.0.2/MSDK/lwip/lwip-2.1.2/src/api\api_lib.c **** 
 609              		.loc 1 276 3 discriminator 2
 276:C:/Users/stapi/OneDrive/Desktop/GD32VW553/GD32VW55X_Wifi_BLE_SDK/GD32VW55x_RELEASE_V1.0.2/MSDK/lwip/lwip-2.1.2/src/api\api_lib.c **** 
 610              		.loc 1 276 3 discriminator 2
 611 005a 05E6     		bne	a2,zero,.L49
 276:C:/Users/stapi/OneDrive/Desktop/GD32VW553/GD32VW55X_Wifi_BLE_SDK/GD32VW55x_RELEASE_V1.0.2/MSDK/lwip/lwip-2.1.2/src/api\api_lib.c **** 
 612              		.loc 1 276 3 discriminator 1
 276:C:/Users/stapi/OneDrive/Desktop/GD32VW553/GD32VW55X_Wifi_BLE_SDK/GD32VW55x_RELEASE_V1.0.2/MSDK/lwip/lwip-2.1.2/src/api\api_lib.c **** 
 613              		.loc 1 276 3 discriminator 1
 614 005c B7060000 		lui	a3,%hi(.LC0)
 615              	.LVL67:
 616 0060 B7050000 		lui	a1,%hi(.LC10)
 617              	.LVL68:
 618 0064 37050000 		lui	a0,%hi(.LC2)
 619              	.LVL69:
 620 0068 93860600 		addi	a3,a3,%lo(.LC0)
 621 006c 13064011 		li	a2,276
 622              	.LVL70:
 623 0070 93850500 		addi	a1,a1,%lo(.LC10)
 624 0074 13050500 		addi	a0,a0,%lo(.LC2)
 625 0078 97000000 		call	printf
 625      E7800000 
 626              	.LVL71:
 627              	.L50:
 276:C:/Users/stapi/OneDrive/Desktop/GD32VW553/GD32VW55X_Wifi_BLE_SDK/GD32VW55x_RELEASE_V1.0.2/MSDK/lwip/lwip-2.1.2/src/api\api_lib.c **** 
 628              		.loc 1 276 3 discriminator 3
 276:C:/Users/stapi/OneDrive/Desktop/GD32VW553/GD32VW55X_Wifi_BLE_SDK/GD32VW55x_RELEASE_V1.0.2/MSDK/lwip/lwip-2.1.2/src/api\api_lib.c **** 
 629              		.loc 1 276 3 discriminator 3
 276:C:/Users/stapi/OneDrive/Desktop/GD32VW553/GD32VW55X_Wifi_BLE_SDK/GD32VW55x_RELEASE_V1.0.2/MSDK/lwip/lwip-2.1.2/src/api\api_lib.c **** 
 630              		.loc 1 276 3 discriminator 3
 631 0080 01A0     		j	.L50
 632              	.LVL72:
 633              	.L49:
 276:C:/Users/stapi/OneDrive/Desktop/GD32VW553/GD32VW55X_Wifi_BLE_SDK/GD32VW55x_RELEASE_V1.0.2/MSDK/lwip/lwip-2.1.2/src/api\api_lib.c **** 
 634              		.loc 1 276 3 discriminator 2
 276:C:/Users/stapi/OneDrive/Desktop/GD32VW553/GD32VW55X_Wifi_BLE_SDK/GD32VW55x_RELEASE_V1.0.2/MSDK/lwip/lwip-2.1.2/src/api\api_lib.c **** 
 635              		.loc 1 276 3 discriminator 2
 278:C:/Users/stapi/OneDrive/Desktop/GD32VW553/GD32VW55X_Wifi_BLE_SDK/GD32VW55x_RELEASE_V1.0.2/MSDK/lwip/lwip-2.1.2/src/api\api_lib.c ****   API_MSG_VAR_REF(msg).conn = conn;
 636              		.loc 1 278 25 discriminator 2
 279:C:/Users/stapi/OneDrive/Desktop/GD32VW553/GD32VW55X_Wifi_BLE_SDK/GD32VW55x_RELEASE_V1.0.2/MSDK/lwip/lwip-2.1.2/src/api\api_lib.c ****   API_MSG_VAR_REF(msg).msg.ad.local = local;
 637              		.loc 1 279 3 discriminator 2
 279:C:/Users/stapi/OneDrive/Desktop/GD32VW553/GD32VW55X_Wifi_BLE_SDK/GD32VW55x_RELEASE_V1.0.2/MSDK/lwip/lwip-2.1.2/src/api\api_lib.c ****   API_MSG_VAR_REF(msg).msg.ad.local = local;
 638              		.loc 1 279 29 is_stmt 0 discriminator 2
 639 0082 2AC0     		sw	a0,0(sp)
 280:C:/Users/stapi/OneDrive/Desktop/GD32VW553/GD32VW55X_Wifi_BLE_SDK/GD32VW55x_RELEASE_V1.0.2/MSDK/lwip/lwip-2.1.2/src/api\api_lib.c **** #if LWIP_MPU_COMPATIBLE
 640              		.loc 1 280 3 is_stmt 1 discriminator 2
 288:C:/Users/stapi/OneDrive/Desktop/GD32VW553/GD32VW55X_Wifi_BLE_SDK/GD32VW55x_RELEASE_V1.0.2/MSDK/lwip/lwip-2.1.2/src/api\api_lib.c **** #endif /* LWIP_MPU_COMPATIBLE */
 641              		.loc 1 288 9 is_stmt 0 discriminator 2
 642 0084 37050000 		lui	a0,%hi(lwip_netconn_do_getaddr)
 643              	.LVL73:
 286:C:/Users/stapi/OneDrive/Desktop/GD32VW553/GD32VW55X_Wifi_BLE_SDK/GD32VW55x_RELEASE_V1.0.2/MSDK/lwip/lwip-2.1.2/src/api\api_lib.c ****   msg.msg.ad.port = port;
 644              		.loc 1 286 21 discriminator 2
 645 0088 2EC4     		sw	a1,8(sp)
 288:C:/Users/stapi/OneDrive/Desktop/GD32VW553/GD32VW55X_Wifi_BLE_SDK/GD32VW55x_RELEASE_V1.0.2/MSDK/lwip/lwip-2.1.2/src/api\api_lib.c **** #endif /* LWIP_MPU_COMPATIBLE */
 646              		.loc 1 288 9 discriminator 2
 647 008a 13050500 		addi	a0,a0,%lo(lwip_netconn_do_getaddr)
 648 008e 8A85     		mv	a1,sp
 649              	.LVL74:
 280:C:/Users/stapi/OneDrive/Desktop/GD32VW553/GD32VW55X_Wifi_BLE_SDK/GD32VW55x_RELEASE_V1.0.2/MSDK/lwip/lwip-2.1.2/src/api\api_lib.c **** #if LWIP_MPU_COMPATIBLE
 650              		.loc 1 280 37 discriminator 2
 651 0090 2308D100 		sb	a3,16(sp)
 286:C:/Users/stapi/OneDrive/Desktop/GD32VW553/GD32VW55X_Wifi_BLE_SDK/GD32VW55x_RELEASE_V1.0.2/MSDK/lwip/lwip-2.1.2/src/api\api_lib.c ****   msg.msg.ad.port = port;
 652              		.loc 1 286 3 is_stmt 1 discriminator 2
 287:C:/Users/stapi/OneDrive/Desktop/GD32VW553/GD32VW55X_Wifi_BLE_SDK/GD32VW55x_RELEASE_V1.0.2/MSDK/lwip/lwip-2.1.2/src/api\api_lib.c ****   err = netconn_apimsg(lwip_netconn_do_getaddr, &msg);
 653              		.loc 1 287 3 discriminator 2
 287:C:/Users/stapi/OneDrive/Desktop/GD32VW553/GD32VW55X_Wifi_BLE_SDK/GD32VW55x_RELEASE_V1.0.2/MSDK/lwip/lwip-2.1.2/src/api\api_lib.c ****   err = netconn_apimsg(lwip_netconn_do_getaddr, &msg);
 654              		.loc 1 287 19 is_stmt 0 discriminator 2
 655 0094 32C6     		sw	a2,12(sp)
 288:C:/Users/stapi/OneDrive/Desktop/GD32VW553/GD32VW55X_Wifi_BLE_SDK/GD32VW55x_RELEASE_V1.0.2/MSDK/lwip/lwip-2.1.2/src/api\api_lib.c **** #endif /* LWIP_MPU_COMPATIBLE */
 656              		.loc 1 288 3 is_stmt 1 discriminator 2
 288:C:/Users/stapi/OneDrive/Desktop/GD32VW553/GD32VW55X_Wifi_BLE_SDK/GD32VW55x_RELEASE_V1.0.2/MSDK/lwip/lwip-2.1.2/src/api\api_lib.c **** #endif /* LWIP_MPU_COMPATIBLE */
 657              		.loc 1 288 9 is_stmt 0 discriminator 2
 658 0096 97000000 		call	netconn_apimsg
 658      E7800000 
 659              	.LVL75:
 290:C:/Users/stapi/OneDrive/Desktop/GD32VW553/GD32VW55X_Wifi_BLE_SDK/GD32VW55x_RELEASE_V1.0.2/MSDK/lwip/lwip-2.1.2/src/api\api_lib.c **** 
 660              		.loc 1 290 24 is_stmt 1 discriminator 2
 292:C:/Users/stapi/OneDrive/Desktop/GD32VW553/GD32VW55X_Wifi_BLE_SDK/GD32VW55x_RELEASE_V1.0.2/MSDK/lwip/lwip-2.1.2/src/api\api_lib.c **** }
 661              		.loc 1 292 3 discriminator 2
 293:C:/Users/stapi/OneDrive/Desktop/GD32VW553/GD32VW55X_Wifi_BLE_SDK/GD32VW55x_RELEASE_V1.0.2/MSDK/lwip/lwip-2.1.2/src/api\api_lib.c **** 
 662              		.loc 1 293 1 is_stmt 0 discriminator 2
 663 009e 0561     		addi	sp,sp,32
 664              		.cfi_def_cfa_offset 0
 665 00a0 17030000 		tail	__riscv_restore_0
 665      67000300 
 666              		.cfi_restore 1
 667              		.cfi_def_cfa_offset -16
 668              		.cfi_endproc
 669              	.LFE8:
 671              		.section	.rodata.netconn_bind.str1.4,"aMS",@progbits,1
 672              		.align	2
 673              	.LC11:
 674 0000 6E657463 		.string	"netconn_bind: invalid conn"
 674      6F6E6E5F 
 674      62696E64 
 674      3A20696E 
 674      76616C69 
 675              		.section	.text.netconn_bind,"ax",@progbits
 676              		.align	1
 677              		.globl	netconn_bind
 679              	netconn_bind:
 680              	.LFB9:
 308:C:/Users/stapi/OneDrive/Desktop/GD32VW553/GD32VW55X_Wifi_BLE_SDK/GD32VW55x_RELEASE_V1.0.2/MSDK/lwip/lwip-2.1.2/src/api\api_lib.c ****   API_MSG_VAR_DECLARE(msg);
 681              		.loc 1 308 1 is_stmt 1
 682              		.cfi_startproc
 683              	.LVL76:
 684 0000 17030000 		call	t0,__riscv_save_0
 684      E7020300 
 685              		.cfi_offset 1, -4
 686              		.cfi_def_cfa_offset 16
 309:C:/Users/stapi/OneDrive/Desktop/GD32VW553/GD32VW55X_Wifi_BLE_SDK/GD32VW55x_RELEASE_V1.0.2/MSDK/lwip/lwip-2.1.2/src/api\api_lib.c ****   err_t err;
 687              		.loc 1 309 3
 310:C:/Users/stapi/OneDrive/Desktop/GD32VW553/GD32VW55X_Wifi_BLE_SDK/GD32VW55x_RELEASE_V1.0.2/MSDK/lwip/lwip-2.1.2/src/api\api_lib.c **** 
 688              		.loc 1 310 3
 312:C:/Users/stapi/OneDrive/Desktop/GD32VW553/GD32VW55X_Wifi_BLE_SDK/GD32VW55x_RELEASE_V1.0.2/MSDK/lwip/lwip-2.1.2/src/api\api_lib.c **** 
 689              		.loc 1 312 3
 312:C:/Users/stapi/OneDrive/Desktop/GD32VW553/GD32VW55X_Wifi_BLE_SDK/GD32VW55x_RELEASE_V1.0.2/MSDK/lwip/lwip-2.1.2/src/api\api_lib.c **** 
 690              		.loc 1 312 3
 308:C:/Users/stapi/OneDrive/Desktop/GD32VW553/GD32VW55X_Wifi_BLE_SDK/GD32VW55x_RELEASE_V1.0.2/MSDK/lwip/lwip-2.1.2/src/api\api_lib.c ****   API_MSG_VAR_DECLARE(msg);
 691              		.loc 1 308 1 is_stmt 0
 692 0008 0111     		addi	sp,sp,-32
 693              		.cfi_def_cfa_offset 48
 312:C:/Users/stapi/OneDrive/Desktop/GD32VW553/GD32VW55X_Wifi_BLE_SDK/GD32VW55x_RELEASE_V1.0.2/MSDK/lwip/lwip-2.1.2/src/api\api_lib.c **** 
 694              		.loc 1 312 3
 695 000a 05E5     		bne	a0,zero,.L53
 312:C:/Users/stapi/OneDrive/Desktop/GD32VW553/GD32VW55X_Wifi_BLE_SDK/GD32VW55x_RELEASE_V1.0.2/MSDK/lwip/lwip-2.1.2/src/api\api_lib.c **** 
 696              		.loc 1 312 3 is_stmt 1 discriminator 1
 312:C:/Users/stapi/OneDrive/Desktop/GD32VW553/GD32VW55X_Wifi_BLE_SDK/GD32VW55x_RELEASE_V1.0.2/MSDK/lwip/lwip-2.1.2/src/api\api_lib.c **** 
 697              		.loc 1 312 3 discriminator 1
 698 000c B7060000 		lui	a3,%hi(.LC0)
 699 0010 B7050000 		lui	a1,%hi(.LC11)
 700              	.LVL77:
 701 0014 37050000 		lui	a0,%hi(.LC2)
 702              	.LVL78:
 703 0018 93860600 		addi	a3,a3,%lo(.LC0)
 704 001c 13068013 		li	a2,312
 705              	.LVL79:
 706 0020 93850500 		addi	a1,a1,%lo(.LC11)
 707 0024 13050500 		addi	a0,a0,%lo(.LC2)
 708 0028 97000000 		call	printf
 708      E7800000 
 709              	.LVL80:
 710              	.L54:
 312:C:/Users/stapi/OneDrive/Desktop/GD32VW553/GD32VW55X_Wifi_BLE_SDK/GD32VW55x_RELEASE_V1.0.2/MSDK/lwip/lwip-2.1.2/src/api\api_lib.c **** 
 711              		.loc 1 312 3 discriminator 1
 312:C:/Users/stapi/OneDrive/Desktop/GD32VW553/GD32VW55X_Wifi_BLE_SDK/GD32VW55x_RELEASE_V1.0.2/MSDK/lwip/lwip-2.1.2/src/api\api_lib.c **** 
 712              		.loc 1 312 3 discriminator 1
 312:C:/Users/stapi/OneDrive/Desktop/GD32VW553/GD32VW55X_Wifi_BLE_SDK/GD32VW55x_RELEASE_V1.0.2/MSDK/lwip/lwip-2.1.2/src/api\api_lib.c **** 
 713              		.loc 1 312 3 discriminator 1
 714 0030 01A0     		j	.L54
 715              	.LVL81:
 716              	.L53:
 312:C:/Users/stapi/OneDrive/Desktop/GD32VW553/GD32VW55X_Wifi_BLE_SDK/GD32VW55x_RELEASE_V1.0.2/MSDK/lwip/lwip-2.1.2/src/api\api_lib.c **** 
 717              		.loc 1 312 3 discriminator 2
 312:C:/Users/stapi/OneDrive/Desktop/GD32VW553/GD32VW55X_Wifi_BLE_SDK/GD32VW55x_RELEASE_V1.0.2/MSDK/lwip/lwip-2.1.2/src/api\api_lib.c **** 
 718              		.loc 1 312 3 discriminator 2
 316:C:/Users/stapi/OneDrive/Desktop/GD32VW553/GD32VW55X_Wifi_BLE_SDK/GD32VW55x_RELEASE_V1.0.2/MSDK/lwip/lwip-2.1.2/src/api\api_lib.c ****     addr = IP4_ADDR_ANY;
 719              		.loc 1 316 3 discriminator 2
 316:C:/Users/stapi/OneDrive/Desktop/GD32VW553/GD32VW55X_Wifi_BLE_SDK/GD32VW55x_RELEASE_V1.0.2/MSDK/lwip/lwip-2.1.2/src/api\api_lib.c ****     addr = IP4_ADDR_ANY;
 720              		.loc 1 316 6 is_stmt 0 discriminator 2
 721 0032 89E5     		bne	a1,zero,.L55
 317:C:/Users/stapi/OneDrive/Desktop/GD32VW553/GD32VW55X_Wifi_BLE_SDK/GD32VW55x_RELEASE_V1.0.2/MSDK/lwip/lwip-2.1.2/src/api\api_lib.c ****   }
 722              		.loc 1 317 10
 723 0034 B7050000 		lui	a1,%hi(ip_addr_any)
 724              	.LVL82:
 725 0038 93850500 		addi	a1,a1,%lo(ip_addr_any)
 726              	.L55:
 727              	.LVL83:
 331:C:/Users/stapi/OneDrive/Desktop/GD32VW553/GD32VW55X_Wifi_BLE_SDK/GD32VW55x_RELEASE_V1.0.2/MSDK/lwip/lwip-2.1.2/src/api\api_lib.c ****   API_MSG_VAR_REF(msg).conn = conn;
 728              		.loc 1 331 25 is_stmt 1
 332:C:/Users/stapi/OneDrive/Desktop/GD32VW553/GD32VW55X_Wifi_BLE_SDK/GD32VW55x_RELEASE_V1.0.2/MSDK/lwip/lwip-2.1.2/src/api\api_lib.c ****   API_MSG_VAR_REF(msg).msg.bc.ipaddr = API_MSG_VAR_REF(addr);
 729              		.loc 1 332 3
 332:C:/Users/stapi/OneDrive/Desktop/GD32VW553/GD32VW55X_Wifi_BLE_SDK/GD32VW55x_RELEASE_V1.0.2/MSDK/lwip/lwip-2.1.2/src/api\api_lib.c ****   API_MSG_VAR_REF(msg).msg.bc.ipaddr = API_MSG_VAR_REF(addr);
 730              		.loc 1 332 29 is_stmt 0
 731 003c 2AC0     		sw	a0,0(sp)
 333:C:/Users/stapi/OneDrive/Desktop/GD32VW553/GD32VW55X_Wifi_BLE_SDK/GD32VW55x_RELEASE_V1.0.2/MSDK/lwip/lwip-2.1.2/src/api\api_lib.c ****   API_MSG_VAR_REF(msg).msg.bc.port = port;
 732              		.loc 1 333 3 is_stmt 1
 335:C:/Users/stapi/OneDrive/Desktop/GD32VW553/GD32VW55X_Wifi_BLE_SDK/GD32VW55x_RELEASE_V1.0.2/MSDK/lwip/lwip-2.1.2/src/api\api_lib.c ****   API_MSG_VAR_FREE(msg);
 733              		.loc 1 335 9 is_stmt 0
 734 003e 37050000 		lui	a0,%hi(lwip_netconn_do_bind)
 735              	.LVL84:
 333:C:/Users/stapi/OneDrive/Desktop/GD32VW553/GD32VW55X_Wifi_BLE_SDK/GD32VW55x_RELEASE_V1.0.2/MSDK/lwip/lwip-2.1.2/src/api\api_lib.c ****   API_MSG_VAR_REF(msg).msg.bc.port = port;
 736              		.loc 1 333 38
 737 0042 2EC4     		sw	a1,8(sp)
 334:C:/Users/stapi/OneDrive/Desktop/GD32VW553/GD32VW55X_Wifi_BLE_SDK/GD32VW55x_RELEASE_V1.0.2/MSDK/lwip/lwip-2.1.2/src/api\api_lib.c ****   err = netconn_apimsg(lwip_netconn_do_bind, &API_MSG_VAR_REF(msg));
 738              		.loc 1 334 3 is_stmt 1
 335:C:/Users/stapi/OneDrive/Desktop/GD32VW553/GD32VW55X_Wifi_BLE_SDK/GD32VW55x_RELEASE_V1.0.2/MSDK/lwip/lwip-2.1.2/src/api\api_lib.c ****   API_MSG_VAR_FREE(msg);
 739              		.loc 1 335 9 is_stmt 0
 740 0044 13050500 		addi	a0,a0,%lo(lwip_netconn_do_bind)
 741 0048 8A85     		mv	a1,sp
 742              	.LVL85:
 334:C:/Users/stapi/OneDrive/Desktop/GD32VW553/GD32VW55X_Wifi_BLE_SDK/GD32VW55x_RELEASE_V1.0.2/MSDK/lwip/lwip-2.1.2/src/api\api_lib.c ****   err = netconn_apimsg(lwip_netconn_do_bind, &API_MSG_VAR_REF(msg));
 743              		.loc 1 334 36
 744 004a 2316C100 		sh	a2,12(sp)
 335:C:/Users/stapi/OneDrive/Desktop/GD32VW553/GD32VW55X_Wifi_BLE_SDK/GD32VW55x_RELEASE_V1.0.2/MSDK/lwip/lwip-2.1.2/src/api\api_lib.c ****   API_MSG_VAR_FREE(msg);
 745              		.loc 1 335 3 is_stmt 1
 335:C:/Users/stapi/OneDrive/Desktop/GD32VW553/GD32VW55X_Wifi_BLE_SDK/GD32VW55x_RELEASE_V1.0.2/MSDK/lwip/lwip-2.1.2/src/api\api_lib.c ****   API_MSG_VAR_FREE(msg);
 746              		.loc 1 335 9 is_stmt 0
 747 004e 97000000 		call	netconn_apimsg
 747      E7800000 
 748              	.LVL86:
 336:C:/Users/stapi/OneDrive/Desktop/GD32VW553/GD32VW55X_Wifi_BLE_SDK/GD32VW55x_RELEASE_V1.0.2/MSDK/lwip/lwip-2.1.2/src/api\api_lib.c **** 
 749              		.loc 1 336 24 is_stmt 1
 338:C:/Users/stapi/OneDrive/Desktop/GD32VW553/GD32VW55X_Wifi_BLE_SDK/GD32VW55x_RELEASE_V1.0.2/MSDK/lwip/lwip-2.1.2/src/api\api_lib.c **** }
 750              		.loc 1 338 3
 339:C:/Users/stapi/OneDrive/Desktop/GD32VW553/GD32VW55X_Wifi_BLE_SDK/GD32VW55x_RELEASE_V1.0.2/MSDK/lwip/lwip-2.1.2/src/api\api_lib.c **** 
 751              		.loc 1 339 1 is_stmt 0
 752 0056 0561     		addi	sp,sp,32
 753              		.cfi_def_cfa_offset 0
 754 0058 17030000 		tail	__riscv_restore_0
 754      67000300 
 755              		.cfi_restore 1
 756              		.cfi_def_cfa_offset -16
 757              		.cfi_endproc
 758              	.LFE9:
 760              		.section	.rodata.netconn_bind_if.str1.4,"aMS",@progbits,1
 761              		.align	2
 762              	.LC12:
 763 0000 6E657463 		.string	"netconn_bind_if: invalid conn"
 763      6F6E6E5F 
 763      62696E64 
 763      5F69663A 
 763      20696E76 
 764              		.section	.text.netconn_bind_if,"ax",@progbits
 765              		.align	1
 766              		.globl	netconn_bind_if
 768              	netconn_bind_if:
 769              	.LFB10:
 352:C:/Users/stapi/OneDrive/Desktop/GD32VW553/GD32VW55X_Wifi_BLE_SDK/GD32VW55x_RELEASE_V1.0.2/MSDK/lwip/lwip-2.1.2/src/api\api_lib.c ****   API_MSG_VAR_DECLARE(msg);
 770              		.loc 1 352 1 is_stmt 1
 771              		.cfi_startproc
 772              	.LVL87:
 773 0000 17030000 		call	t0,__riscv_save_0
 773      E7020300 
 774              		.cfi_offset 1, -4
 775              		.cfi_def_cfa_offset 16
 353:C:/Users/stapi/OneDrive/Desktop/GD32VW553/GD32VW55X_Wifi_BLE_SDK/GD32VW55x_RELEASE_V1.0.2/MSDK/lwip/lwip-2.1.2/src/api\api_lib.c ****   err_t err;
 776              		.loc 1 353 3
 354:C:/Users/stapi/OneDrive/Desktop/GD32VW553/GD32VW55X_Wifi_BLE_SDK/GD32VW55x_RELEASE_V1.0.2/MSDK/lwip/lwip-2.1.2/src/api\api_lib.c **** 
 777              		.loc 1 354 3
 356:C:/Users/stapi/OneDrive/Desktop/GD32VW553/GD32VW55X_Wifi_BLE_SDK/GD32VW55x_RELEASE_V1.0.2/MSDK/lwip/lwip-2.1.2/src/api\api_lib.c **** 
 778              		.loc 1 356 3
 356:C:/Users/stapi/OneDrive/Desktop/GD32VW553/GD32VW55X_Wifi_BLE_SDK/GD32VW55x_RELEASE_V1.0.2/MSDK/lwip/lwip-2.1.2/src/api\api_lib.c **** 
 779              		.loc 1 356 3
 352:C:/Users/stapi/OneDrive/Desktop/GD32VW553/GD32VW55X_Wifi_BLE_SDK/GD32VW55x_RELEASE_V1.0.2/MSDK/lwip/lwip-2.1.2/src/api\api_lib.c ****   API_MSG_VAR_DECLARE(msg);
 780              		.loc 1 352 1 is_stmt 0
 781 0008 0111     		addi	sp,sp,-32
 782              		.cfi_def_cfa_offset 48
 356:C:/Users/stapi/OneDrive/Desktop/GD32VW553/GD32VW55X_Wifi_BLE_SDK/GD32VW55x_RELEASE_V1.0.2/MSDK/lwip/lwip-2.1.2/src/api\api_lib.c **** 
 783              		.loc 1 356 3
 784 000a 05E5     		bne	a0,zero,.L58
 356:C:/Users/stapi/OneDrive/Desktop/GD32VW553/GD32VW55X_Wifi_BLE_SDK/GD32VW55x_RELEASE_V1.0.2/MSDK/lwip/lwip-2.1.2/src/api\api_lib.c **** 
 785              		.loc 1 356 3 is_stmt 1 discriminator 1
 356:C:/Users/stapi/OneDrive/Desktop/GD32VW553/GD32VW55X_Wifi_BLE_SDK/GD32VW55x_RELEASE_V1.0.2/MSDK/lwip/lwip-2.1.2/src/api\api_lib.c **** 
 786              		.loc 1 356 3 discriminator 1
 787 000c B7060000 		lui	a3,%hi(.LC0)
 788 0010 B7050000 		lui	a1,%hi(.LC12)
 789              	.LVL88:
 790 0014 37050000 		lui	a0,%hi(.LC2)
 791              	.LVL89:
 792 0018 93860600 		addi	a3,a3,%lo(.LC0)
 793 001c 13064016 		li	a2,356
 794 0020 93850500 		addi	a1,a1,%lo(.LC12)
 795 0024 13050500 		addi	a0,a0,%lo(.LC2)
 796 0028 97000000 		call	printf
 796      E7800000 
 797              	.LVL90:
 798              	.L59:
 356:C:/Users/stapi/OneDrive/Desktop/GD32VW553/GD32VW55X_Wifi_BLE_SDK/GD32VW55x_RELEASE_V1.0.2/MSDK/lwip/lwip-2.1.2/src/api\api_lib.c **** 
 799              		.loc 1 356 3 discriminator 1
 356:C:/Users/stapi/OneDrive/Desktop/GD32VW553/GD32VW55X_Wifi_BLE_SDK/GD32VW55x_RELEASE_V1.0.2/MSDK/lwip/lwip-2.1.2/src/api\api_lib.c **** 
 800              		.loc 1 356 3 discriminator 1
 356:C:/Users/stapi/OneDrive/Desktop/GD32VW553/GD32VW55X_Wifi_BLE_SDK/GD32VW55x_RELEASE_V1.0.2/MSDK/lwip/lwip-2.1.2/src/api\api_lib.c **** 
 801              		.loc 1 356 3 discriminator 1
 802 0030 01A0     		j	.L59
 803              	.LVL91:
 804              	.L58:
 356:C:/Users/stapi/OneDrive/Desktop/GD32VW553/GD32VW55X_Wifi_BLE_SDK/GD32VW55x_RELEASE_V1.0.2/MSDK/lwip/lwip-2.1.2/src/api\api_lib.c **** 
 805              		.loc 1 356 3 discriminator 2
 356:C:/Users/stapi/OneDrive/Desktop/GD32VW553/GD32VW55X_Wifi_BLE_SDK/GD32VW55x_RELEASE_V1.0.2/MSDK/lwip/lwip-2.1.2/src/api\api_lib.c **** 
 806              		.loc 1 356 3 discriminator 2
 358:C:/Users/stapi/OneDrive/Desktop/GD32VW553/GD32VW55X_Wifi_BLE_SDK/GD32VW55x_RELEASE_V1.0.2/MSDK/lwip/lwip-2.1.2/src/api\api_lib.c ****   API_MSG_VAR_REF(msg).conn = conn;
 807              		.loc 1 358 25 discriminator 2
 359:C:/Users/stapi/OneDrive/Desktop/GD32VW553/GD32VW55X_Wifi_BLE_SDK/GD32VW55x_RELEASE_V1.0.2/MSDK/lwip/lwip-2.1.2/src/api\api_lib.c ****   API_MSG_VAR_REF(msg).msg.bc.if_idx = if_idx;
 808              		.loc 1 359 3 discriminator 2
 359:C:/Users/stapi/OneDrive/Desktop/GD32VW553/GD32VW55X_Wifi_BLE_SDK/GD32VW55x_RELEASE_V1.0.2/MSDK/lwip/lwip-2.1.2/src/api\api_lib.c ****   API_MSG_VAR_REF(msg).msg.bc.if_idx = if_idx;
 809              		.loc 1 359 29 is_stmt 0 discriminator 2
 810 0032 2AC0     		sw	a0,0(sp)
 360:C:/Users/stapi/OneDrive/Desktop/GD32VW553/GD32VW55X_Wifi_BLE_SDK/GD32VW55x_RELEASE_V1.0.2/MSDK/lwip/lwip-2.1.2/src/api\api_lib.c ****   err = netconn_apimsg(lwip_netconn_do_bind_if, &API_MSG_VAR_REF(msg));
 811              		.loc 1 360 3 is_stmt 1 discriminator 2
 361:C:/Users/stapi/OneDrive/Desktop/GD32VW553/GD32VW55X_Wifi_BLE_SDK/GD32VW55x_RELEASE_V1.0.2/MSDK/lwip/lwip-2.1.2/src/api\api_lib.c ****   API_MSG_VAR_FREE(msg);
 812              		.loc 1 361 9 is_stmt 0 discriminator 2
 813 0034 37050000 		lui	a0,%hi(lwip_netconn_do_bind_if)
 814              	.LVL92:
 360:C:/Users/stapi/OneDrive/Desktop/GD32VW553/GD32VW55X_Wifi_BLE_SDK/GD32VW55x_RELEASE_V1.0.2/MSDK/lwip/lwip-2.1.2/src/api\api_lib.c ****   err = netconn_apimsg(lwip_netconn_do_bind_if, &API_MSG_VAR_REF(msg));
 815              		.loc 1 360 38 discriminator 2
 816 0038 2307B100 		sb	a1,14(sp)
 361:C:/Users/stapi/OneDrive/Desktop/GD32VW553/GD32VW55X_Wifi_BLE_SDK/GD32VW55x_RELEASE_V1.0.2/MSDK/lwip/lwip-2.1.2/src/api\api_lib.c ****   API_MSG_VAR_FREE(msg);
 817              		.loc 1 361 3 is_stmt 1 discriminator 2
 361:C:/Users/stapi/OneDrive/Desktop/GD32VW553/GD32VW55X_Wifi_BLE_SDK/GD32VW55x_RELEASE_V1.0.2/MSDK/lwip/lwip-2.1.2/src/api\api_lib.c ****   API_MSG_VAR_FREE(msg);
 818              		.loc 1 361 9 is_stmt 0 discriminator 2
 819 003c 13050500 		addi	a0,a0,%lo(lwip_netconn_do_bind_if)
 820 0040 8A85     		mv	a1,sp
 821              	.LVL93:
 822 0042 97000000 		call	netconn_apimsg
 822      E7800000 
 823              	.LVL94:
 362:C:/Users/stapi/OneDrive/Desktop/GD32VW553/GD32VW55X_Wifi_BLE_SDK/GD32VW55x_RELEASE_V1.0.2/MSDK/lwip/lwip-2.1.2/src/api\api_lib.c **** 
 824              		.loc 1 362 24 is_stmt 1 discriminator 2
 364:C:/Users/stapi/OneDrive/Desktop/GD32VW553/GD32VW55X_Wifi_BLE_SDK/GD32VW55x_RELEASE_V1.0.2/MSDK/lwip/lwip-2.1.2/src/api\api_lib.c **** }
 825              		.loc 1 364 3 discriminator 2
 365:C:/Users/stapi/OneDrive/Desktop/GD32VW553/GD32VW55X_Wifi_BLE_SDK/GD32VW55x_RELEASE_V1.0.2/MSDK/lwip/lwip-2.1.2/src/api\api_lib.c **** 
 826              		.loc 1 365 1 is_stmt 0 discriminator 2
 827 004a 0561     		addi	sp,sp,32
 828              		.cfi_def_cfa_offset 0
 829 004c 17030000 		tail	__riscv_restore_0
 829      67000300 
 830              		.cfi_restore 1
 831              		.cfi_def_cfa_offset -16
 832              		.cfi_endproc
 833              	.LFE10:
 835              		.section	.rodata.netconn_connect.str1.4,"aMS",@progbits,1
 836              		.align	2
 837              	.LC13:
 838 0000 6E657463 		.string	"netconn_connect: invalid conn"
 838      6F6E6E5F 
 838      636F6E6E 
 838      6563743A 
 838      20696E76 
 839              		.section	.text.netconn_connect,"ax",@progbits
 840              		.align	1
 841              		.globl	netconn_connect
 843              	netconn_connect:
 844              	.LFB11:
 378:C:/Users/stapi/OneDrive/Desktop/GD32VW553/GD32VW55X_Wifi_BLE_SDK/GD32VW55x_RELEASE_V1.0.2/MSDK/lwip/lwip-2.1.2/src/api\api_lib.c ****   API_MSG_VAR_DECLARE(msg);
 845              		.loc 1 378 1 is_stmt 1
 846              		.cfi_startproc
 847              	.LVL95:
 848 0000 17030000 		call	t0,__riscv_save_0
 848      E7020300 
 849              		.cfi_offset 1, -4
 850              		.cfi_def_cfa_offset 16
 379:C:/Users/stapi/OneDrive/Desktop/GD32VW553/GD32VW55X_Wifi_BLE_SDK/GD32VW55x_RELEASE_V1.0.2/MSDK/lwip/lwip-2.1.2/src/api\api_lib.c ****   err_t err;
 851              		.loc 1 379 3
 380:C:/Users/stapi/OneDrive/Desktop/GD32VW553/GD32VW55X_Wifi_BLE_SDK/GD32VW55x_RELEASE_V1.0.2/MSDK/lwip/lwip-2.1.2/src/api\api_lib.c **** 
 852              		.loc 1 380 3
 382:C:/Users/stapi/OneDrive/Desktop/GD32VW553/GD32VW55X_Wifi_BLE_SDK/GD32VW55x_RELEASE_V1.0.2/MSDK/lwip/lwip-2.1.2/src/api\api_lib.c **** 
 853              		.loc 1 382 3
 382:C:/Users/stapi/OneDrive/Desktop/GD32VW553/GD32VW55X_Wifi_BLE_SDK/GD32VW55x_RELEASE_V1.0.2/MSDK/lwip/lwip-2.1.2/src/api\api_lib.c **** 
 854              		.loc 1 382 3
 378:C:/Users/stapi/OneDrive/Desktop/GD32VW553/GD32VW55X_Wifi_BLE_SDK/GD32VW55x_RELEASE_V1.0.2/MSDK/lwip/lwip-2.1.2/src/api\api_lib.c ****   API_MSG_VAR_DECLARE(msg);
 855              		.loc 1 378 1 is_stmt 0
 856 0008 0111     		addi	sp,sp,-32
 857              		.cfi_def_cfa_offset 48
 382:C:/Users/stapi/OneDrive/Desktop/GD32VW553/GD32VW55X_Wifi_BLE_SDK/GD32VW55x_RELEASE_V1.0.2/MSDK/lwip/lwip-2.1.2/src/api\api_lib.c **** 
 858              		.loc 1 382 3
 859 000a 05E5     		bne	a0,zero,.L62
 382:C:/Users/stapi/OneDrive/Desktop/GD32VW553/GD32VW55X_Wifi_BLE_SDK/GD32VW55x_RELEASE_V1.0.2/MSDK/lwip/lwip-2.1.2/src/api\api_lib.c **** 
 860              		.loc 1 382 3 is_stmt 1 discriminator 1
 382:C:/Users/stapi/OneDrive/Desktop/GD32VW553/GD32VW55X_Wifi_BLE_SDK/GD32VW55x_RELEASE_V1.0.2/MSDK/lwip/lwip-2.1.2/src/api\api_lib.c **** 
 861              		.loc 1 382 3 discriminator 1
 862 000c B7060000 		lui	a3,%hi(.LC0)
 863 0010 B7050000 		lui	a1,%hi(.LC13)
 864              	.LVL96:
 865 0014 37050000 		lui	a0,%hi(.LC2)
 866              	.LVL97:
 867 0018 93860600 		addi	a3,a3,%lo(.LC0)
 868 001c 1306E017 		li	a2,382
 869              	.LVL98:
 870 0020 93850500 		addi	a1,a1,%lo(.LC13)
 871 0024 13050500 		addi	a0,a0,%lo(.LC2)
 872 0028 97000000 		call	printf
 872      E7800000 
 873              	.LVL99:
 874              	.L63:
 382:C:/Users/stapi/OneDrive/Desktop/GD32VW553/GD32VW55X_Wifi_BLE_SDK/GD32VW55x_RELEASE_V1.0.2/MSDK/lwip/lwip-2.1.2/src/api\api_lib.c **** 
 875              		.loc 1 382 3 discriminator 1
 382:C:/Users/stapi/OneDrive/Desktop/GD32VW553/GD32VW55X_Wifi_BLE_SDK/GD32VW55x_RELEASE_V1.0.2/MSDK/lwip/lwip-2.1.2/src/api\api_lib.c **** 
 876              		.loc 1 382 3 discriminator 1
 382:C:/Users/stapi/OneDrive/Desktop/GD32VW553/GD32VW55X_Wifi_BLE_SDK/GD32VW55x_RELEASE_V1.0.2/MSDK/lwip/lwip-2.1.2/src/api\api_lib.c **** 
 877              		.loc 1 382 3 discriminator 1
 878 0030 01A0     		j	.L63
 879              	.LVL100:
 880              	.L62:
 382:C:/Users/stapi/OneDrive/Desktop/GD32VW553/GD32VW55X_Wifi_BLE_SDK/GD32VW55x_RELEASE_V1.0.2/MSDK/lwip/lwip-2.1.2/src/api\api_lib.c **** 
 881              		.loc 1 382 3 discriminator 2
 382:C:/Users/stapi/OneDrive/Desktop/GD32VW553/GD32VW55X_Wifi_BLE_SDK/GD32VW55x_RELEASE_V1.0.2/MSDK/lwip/lwip-2.1.2/src/api\api_lib.c **** 
 882              		.loc 1 382 3 discriminator 2
 386:C:/Users/stapi/OneDrive/Desktop/GD32VW553/GD32VW55X_Wifi_BLE_SDK/GD32VW55x_RELEASE_V1.0.2/MSDK/lwip/lwip-2.1.2/src/api\api_lib.c ****     addr = IP4_ADDR_ANY;
 883              		.loc 1 386 3 discriminator 2
 386:C:/Users/stapi/OneDrive/Desktop/GD32VW553/GD32VW55X_Wifi_BLE_SDK/GD32VW55x_RELEASE_V1.0.2/MSDK/lwip/lwip-2.1.2/src/api\api_lib.c ****     addr = IP4_ADDR_ANY;
 884              		.loc 1 386 6 is_stmt 0 discriminator 2
 885 0032 89E5     		bne	a1,zero,.L64
 387:C:/Users/stapi/OneDrive/Desktop/GD32VW553/GD32VW55X_Wifi_BLE_SDK/GD32VW55x_RELEASE_V1.0.2/MSDK/lwip/lwip-2.1.2/src/api\api_lib.c ****   }
 886              		.loc 1 387 10
 887 0034 B7050000 		lui	a1,%hi(ip_addr_any)
 888              	.LVL101:
 889 0038 93850500 		addi	a1,a1,%lo(ip_addr_any)
 890              	.L64:
 891              	.LVL102:
 391:C:/Users/stapi/OneDrive/Desktop/GD32VW553/GD32VW55X_Wifi_BLE_SDK/GD32VW55x_RELEASE_V1.0.2/MSDK/lwip/lwip-2.1.2/src/api\api_lib.c ****   API_MSG_VAR_REF(msg).conn = conn;
 892              		.loc 1 391 25 is_stmt 1
 392:C:/Users/stapi/OneDrive/Desktop/GD32VW553/GD32VW55X_Wifi_BLE_SDK/GD32VW55x_RELEASE_V1.0.2/MSDK/lwip/lwip-2.1.2/src/api\api_lib.c ****   API_MSG_VAR_REF(msg).msg.bc.ipaddr = API_MSG_VAR_REF(addr);
 893              		.loc 1 392 3
 392:C:/Users/stapi/OneDrive/Desktop/GD32VW553/GD32VW55X_Wifi_BLE_SDK/GD32VW55x_RELEASE_V1.0.2/MSDK/lwip/lwip-2.1.2/src/api\api_lib.c ****   API_MSG_VAR_REF(msg).msg.bc.ipaddr = API_MSG_VAR_REF(addr);
 894              		.loc 1 392 29 is_stmt 0
 895 003c 2AC0     		sw	a0,0(sp)
 393:C:/Users/stapi/OneDrive/Desktop/GD32VW553/GD32VW55X_Wifi_BLE_SDK/GD32VW55x_RELEASE_V1.0.2/MSDK/lwip/lwip-2.1.2/src/api\api_lib.c ****   API_MSG_VAR_REF(msg).msg.bc.port = port;
 896              		.loc 1 393 3 is_stmt 1
 395:C:/Users/stapi/OneDrive/Desktop/GD32VW553/GD32VW55X_Wifi_BLE_SDK/GD32VW55x_RELEASE_V1.0.2/MSDK/lwip/lwip-2.1.2/src/api\api_lib.c ****   API_MSG_VAR_FREE(msg);
 897              		.loc 1 395 9 is_stmt 0
 898 003e 37050000 		lui	a0,%hi(lwip_netconn_do_connect)
 899              	.LVL103:
 393:C:/Users/stapi/OneDrive/Desktop/GD32VW553/GD32VW55X_Wifi_BLE_SDK/GD32VW55x_RELEASE_V1.0.2/MSDK/lwip/lwip-2.1.2/src/api\api_lib.c ****   API_MSG_VAR_REF(msg).msg.bc.port = port;
 900              		.loc 1 393 38
 901 0042 2EC4     		sw	a1,8(sp)
 394:C:/Users/stapi/OneDrive/Desktop/GD32VW553/GD32VW55X_Wifi_BLE_SDK/GD32VW55x_RELEASE_V1.0.2/MSDK/lwip/lwip-2.1.2/src/api\api_lib.c ****   err = netconn_apimsg(lwip_netconn_do_connect, &API_MSG_VAR_REF(msg));
 902              		.loc 1 394 3 is_stmt 1
 395:C:/Users/stapi/OneDrive/Desktop/GD32VW553/GD32VW55X_Wifi_BLE_SDK/GD32VW55x_RELEASE_V1.0.2/MSDK/lwip/lwip-2.1.2/src/api\api_lib.c ****   API_MSG_VAR_FREE(msg);
 903              		.loc 1 395 9 is_stmt 0
 904 0044 13050500 		addi	a0,a0,%lo(lwip_netconn_do_connect)
 905 0048 8A85     		mv	a1,sp
 906              	.LVL104:
 394:C:/Users/stapi/OneDrive/Desktop/GD32VW553/GD32VW55X_Wifi_BLE_SDK/GD32VW55x_RELEASE_V1.0.2/MSDK/lwip/lwip-2.1.2/src/api\api_lib.c ****   err = netconn_apimsg(lwip_netconn_do_connect, &API_MSG_VAR_REF(msg));
 907              		.loc 1 394 36
 908 004a 2316C100 		sh	a2,12(sp)
 395:C:/Users/stapi/OneDrive/Desktop/GD32VW553/GD32VW55X_Wifi_BLE_SDK/GD32VW55x_RELEASE_V1.0.2/MSDK/lwip/lwip-2.1.2/src/api\api_lib.c ****   API_MSG_VAR_FREE(msg);
 909              		.loc 1 395 3 is_stmt 1
 395:C:/Users/stapi/OneDrive/Desktop/GD32VW553/GD32VW55X_Wifi_BLE_SDK/GD32VW55x_RELEASE_V1.0.2/MSDK/lwip/lwip-2.1.2/src/api\api_lib.c ****   API_MSG_VAR_FREE(msg);
 910              		.loc 1 395 9 is_stmt 0
 911 004e 97000000 		call	netconn_apimsg
 911      E7800000 
 912              	.LVL105:
 396:C:/Users/stapi/OneDrive/Desktop/GD32VW553/GD32VW55X_Wifi_BLE_SDK/GD32VW55x_RELEASE_V1.0.2/MSDK/lwip/lwip-2.1.2/src/api\api_lib.c **** 
 913              		.loc 1 396 24 is_stmt 1
 398:C:/Users/stapi/OneDrive/Desktop/GD32VW553/GD32VW55X_Wifi_BLE_SDK/GD32VW55x_RELEASE_V1.0.2/MSDK/lwip/lwip-2.1.2/src/api\api_lib.c **** }
 914              		.loc 1 398 3
 399:C:/Users/stapi/OneDrive/Desktop/GD32VW553/GD32VW55X_Wifi_BLE_SDK/GD32VW55x_RELEASE_V1.0.2/MSDK/lwip/lwip-2.1.2/src/api\api_lib.c **** 
 915              		.loc 1 399 1 is_stmt 0
 916 0056 0561     		addi	sp,sp,32
 917              		.cfi_def_cfa_offset 0
 918 0058 17030000 		tail	__riscv_restore_0
 918      67000300 
 919              		.cfi_restore 1
 920              		.cfi_def_cfa_offset -16
 921              		.cfi_endproc
 922              	.LFE11:
 924              		.section	.rodata.netconn_disconnect.str1.4,"aMS",@progbits,1
 925              		.align	2
 926              	.LC14:
 927 0000 6E657463 		.string	"netconn_disconnect: invalid conn"
 927      6F6E6E5F 
 927      64697363 
 927      6F6E6E65 
 927      63743A20 
 928              		.section	.text.netconn_disconnect,"ax",@progbits
 929              		.align	1
 930              		.globl	netconn_disconnect
 932              	netconn_disconnect:
 933              	.LFB12:
 410:C:/Users/stapi/OneDrive/Desktop/GD32VW553/GD32VW55X_Wifi_BLE_SDK/GD32VW55x_RELEASE_V1.0.2/MSDK/lwip/lwip-2.1.2/src/api\api_lib.c ****   API_MSG_VAR_DECLARE(msg);
 934              		.loc 1 410 1 is_stmt 1
 935              		.cfi_startproc
 936              	.LVL106:
 937 0000 17030000 		call	t0,__riscv_save_0
 937      E7020300 
 938              		.cfi_offset 1, -4
 939              		.cfi_def_cfa_offset 16
 411:C:/Users/stapi/OneDrive/Desktop/GD32VW553/GD32VW55X_Wifi_BLE_SDK/GD32VW55x_RELEASE_V1.0.2/MSDK/lwip/lwip-2.1.2/src/api\api_lib.c ****   err_t err;
 940              		.loc 1 411 3
 412:C:/Users/stapi/OneDrive/Desktop/GD32VW553/GD32VW55X_Wifi_BLE_SDK/GD32VW55x_RELEASE_V1.0.2/MSDK/lwip/lwip-2.1.2/src/api\api_lib.c **** 
 941              		.loc 1 412 3
 414:C:/Users/stapi/OneDrive/Desktop/GD32VW553/GD32VW55X_Wifi_BLE_SDK/GD32VW55x_RELEASE_V1.0.2/MSDK/lwip/lwip-2.1.2/src/api\api_lib.c **** 
 942              		.loc 1 414 3
 414:C:/Users/stapi/OneDrive/Desktop/GD32VW553/GD32VW55X_Wifi_BLE_SDK/GD32VW55x_RELEASE_V1.0.2/MSDK/lwip/lwip-2.1.2/src/api\api_lib.c **** 
 943              		.loc 1 414 3
 410:C:/Users/stapi/OneDrive/Desktop/GD32VW553/GD32VW55X_Wifi_BLE_SDK/GD32VW55x_RELEASE_V1.0.2/MSDK/lwip/lwip-2.1.2/src/api\api_lib.c ****   API_MSG_VAR_DECLARE(msg);
 944              		.loc 1 410 1 is_stmt 0
 945 0008 0111     		addi	sp,sp,-32
 946              		.cfi_def_cfa_offset 48
 414:C:/Users/stapi/OneDrive/Desktop/GD32VW553/GD32VW55X_Wifi_BLE_SDK/GD32VW55x_RELEASE_V1.0.2/MSDK/lwip/lwip-2.1.2/src/api\api_lib.c **** 
 947              		.loc 1 414 3
 948 000a 05E5     		bne	a0,zero,.L67
 414:C:/Users/stapi/OneDrive/Desktop/GD32VW553/GD32VW55X_Wifi_BLE_SDK/GD32VW55x_RELEASE_V1.0.2/MSDK/lwip/lwip-2.1.2/src/api\api_lib.c **** 
 949              		.loc 1 414 3 is_stmt 1 discriminator 1
 414:C:/Users/stapi/OneDrive/Desktop/GD32VW553/GD32VW55X_Wifi_BLE_SDK/GD32VW55x_RELEASE_V1.0.2/MSDK/lwip/lwip-2.1.2/src/api\api_lib.c **** 
 950              		.loc 1 414 3 discriminator 1
 951 000c B7060000 		lui	a3,%hi(.LC0)
 952 0010 B7050000 		lui	a1,%hi(.LC14)
 953 0014 37050000 		lui	a0,%hi(.LC2)
 954              	.LVL107:
 955 0018 93860600 		addi	a3,a3,%lo(.LC0)
 956 001c 1306E019 		li	a2,414
 957 0020 93850500 		addi	a1,a1,%lo(.LC14)
 958 0024 13050500 		addi	a0,a0,%lo(.LC2)
 959 0028 97000000 		call	printf
 959      E7800000 
 960              	.LVL108:
 961              	.L68:
 414:C:/Users/stapi/OneDrive/Desktop/GD32VW553/GD32VW55X_Wifi_BLE_SDK/GD32VW55x_RELEASE_V1.0.2/MSDK/lwip/lwip-2.1.2/src/api\api_lib.c **** 
 962              		.loc 1 414 3 discriminator 1
 414:C:/Users/stapi/OneDrive/Desktop/GD32VW553/GD32VW55X_Wifi_BLE_SDK/GD32VW55x_RELEASE_V1.0.2/MSDK/lwip/lwip-2.1.2/src/api\api_lib.c **** 
 963              		.loc 1 414 3 discriminator 1
 414:C:/Users/stapi/OneDrive/Desktop/GD32VW553/GD32VW55X_Wifi_BLE_SDK/GD32VW55x_RELEASE_V1.0.2/MSDK/lwip/lwip-2.1.2/src/api\api_lib.c **** 
 964              		.loc 1 414 3 discriminator 1
 965 0030 01A0     		j	.L68
 966              	.LVL109:
 967              	.L67:
 414:C:/Users/stapi/OneDrive/Desktop/GD32VW553/GD32VW55X_Wifi_BLE_SDK/GD32VW55x_RELEASE_V1.0.2/MSDK/lwip/lwip-2.1.2/src/api\api_lib.c **** 
 968              		.loc 1 414 3 discriminator 2
 414:C:/Users/stapi/OneDrive/Desktop/GD32VW553/GD32VW55X_Wifi_BLE_SDK/GD32VW55x_RELEASE_V1.0.2/MSDK/lwip/lwip-2.1.2/src/api\api_lib.c **** 
 969              		.loc 1 414 3 discriminator 2
 416:C:/Users/stapi/OneDrive/Desktop/GD32VW553/GD32VW55X_Wifi_BLE_SDK/GD32VW55x_RELEASE_V1.0.2/MSDK/lwip/lwip-2.1.2/src/api\api_lib.c ****   API_MSG_VAR_REF(msg).conn = conn;
 970              		.loc 1 416 25 discriminator 2
 417:C:/Users/stapi/OneDrive/Desktop/GD32VW553/GD32VW55X_Wifi_BLE_SDK/GD32VW55x_RELEASE_V1.0.2/MSDK/lwip/lwip-2.1.2/src/api\api_lib.c ****   err = netconn_apimsg(lwip_netconn_do_disconnect, &API_MSG_VAR_REF(msg));
 971              		.loc 1 417 3 discriminator 2
 417:C:/Users/stapi/OneDrive/Desktop/GD32VW553/GD32VW55X_Wifi_BLE_SDK/GD32VW55x_RELEASE_V1.0.2/MSDK/lwip/lwip-2.1.2/src/api\api_lib.c ****   err = netconn_apimsg(lwip_netconn_do_disconnect, &API_MSG_VAR_REF(msg));
 972              		.loc 1 417 29 is_stmt 0 discriminator 2
 973 0032 2AC0     		sw	a0,0(sp)
 418:C:/Users/stapi/OneDrive/Desktop/GD32VW553/GD32VW55X_Wifi_BLE_SDK/GD32VW55x_RELEASE_V1.0.2/MSDK/lwip/lwip-2.1.2/src/api\api_lib.c ****   API_MSG_VAR_FREE(msg);
 974              		.loc 1 418 3 is_stmt 1 discriminator 2
 418:C:/Users/stapi/OneDrive/Desktop/GD32VW553/GD32VW55X_Wifi_BLE_SDK/GD32VW55x_RELEASE_V1.0.2/MSDK/lwip/lwip-2.1.2/src/api\api_lib.c ****   API_MSG_VAR_FREE(msg);
 975              		.loc 1 418 9 is_stmt 0 discriminator 2
 976 0034 37050000 		lui	a0,%hi(lwip_netconn_do_disconnect)
 977              	.LVL110:
 978 0038 8A85     		mv	a1,sp
 979 003a 13050500 		addi	a0,a0,%lo(lwip_netconn_do_disconnect)
 980 003e 97000000 		call	netconn_apimsg
 980      E7800000 
 981              	.LVL111:
 419:C:/Users/stapi/OneDrive/Desktop/GD32VW553/GD32VW55X_Wifi_BLE_SDK/GD32VW55x_RELEASE_V1.0.2/MSDK/lwip/lwip-2.1.2/src/api\api_lib.c **** 
 982              		.loc 1 419 24 is_stmt 1 discriminator 2
 421:C:/Users/stapi/OneDrive/Desktop/GD32VW553/GD32VW55X_Wifi_BLE_SDK/GD32VW55x_RELEASE_V1.0.2/MSDK/lwip/lwip-2.1.2/src/api\api_lib.c **** }
 983              		.loc 1 421 3 discriminator 2
 422:C:/Users/stapi/OneDrive/Desktop/GD32VW553/GD32VW55X_Wifi_BLE_SDK/GD32VW55x_RELEASE_V1.0.2/MSDK/lwip/lwip-2.1.2/src/api\api_lib.c **** 
 984              		.loc 1 422 1 is_stmt 0 discriminator 2
 985 0046 0561     		addi	sp,sp,32
 986              		.cfi_def_cfa_offset 0
 987 0048 17030000 		tail	__riscv_restore_0
 987      67000300 
 988              		.cfi_restore 1
 989              		.cfi_def_cfa_offset -16
 990              		.cfi_endproc
 991              	.LFE12:
 993              		.section	.rodata.netconn_listen_with_backlog.str1.4,"aMS",@progbits,1
 994              		.align	2
 995              	.LC15:
 996 0000 6E657463 		.string	"netconn_listen: invalid conn"
 996      6F6E6E5F 
 996      6C697374 
 996      656E3A20 
 996      696E7661 
 997              		.section	.text.netconn_listen_with_backlog,"ax",@progbits
 998              		.align	1
 999              		.globl	netconn_listen_with_backlog
 1001              	netconn_listen_with_backlog:
 1002              	.LFB13:
 435:C:/Users/stapi/OneDrive/Desktop/GD32VW553/GD32VW55X_Wifi_BLE_SDK/GD32VW55x_RELEASE_V1.0.2/MSDK/lwip/lwip-2.1.2/src/api\api_lib.c **** #if LWIP_TCP
 1003              		.loc 1 435 1 is_stmt 1
 1004              		.cfi_startproc
 1005              	.LVL112:
 1006 0000 17030000 		call	t0,__riscv_save_0
 1006      E7020300 
 1007              		.cfi_offset 1, -4
 1008              		.cfi_def_cfa_offset 16
 437:C:/Users/stapi/OneDrive/Desktop/GD32VW553/GD32VW55X_Wifi_BLE_SDK/GD32VW55x_RELEASE_V1.0.2/MSDK/lwip/lwip-2.1.2/src/api\api_lib.c ****   err_t err;
 1009              		.loc 1 437 3
 438:C:/Users/stapi/OneDrive/Desktop/GD32VW553/GD32VW55X_Wifi_BLE_SDK/GD32VW55x_RELEASE_V1.0.2/MSDK/lwip/lwip-2.1.2/src/api\api_lib.c **** 
 1010              		.loc 1 438 3
 441:C:/Users/stapi/OneDrive/Desktop/GD32VW553/GD32VW55X_Wifi_BLE_SDK/GD32VW55x_RELEASE_V1.0.2/MSDK/lwip/lwip-2.1.2/src/api\api_lib.c **** 
 1011              		.loc 1 441 3
 443:C:/Users/stapi/OneDrive/Desktop/GD32VW553/GD32VW55X_Wifi_BLE_SDK/GD32VW55x_RELEASE_V1.0.2/MSDK/lwip/lwip-2.1.2/src/api\api_lib.c **** 
 1012              		.loc 1 443 3
 443:C:/Users/stapi/OneDrive/Desktop/GD32VW553/GD32VW55X_Wifi_BLE_SDK/GD32VW55x_RELEASE_V1.0.2/MSDK/lwip/lwip-2.1.2/src/api\api_lib.c **** 
 1013              		.loc 1 443 3
 435:C:/Users/stapi/OneDrive/Desktop/GD32VW553/GD32VW55X_Wifi_BLE_SDK/GD32VW55x_RELEASE_V1.0.2/MSDK/lwip/lwip-2.1.2/src/api\api_lib.c **** #if LWIP_TCP
 1014              		.loc 1 435 1 is_stmt 0
 1015 0008 0111     		addi	sp,sp,-32
 1016              		.cfi_def_cfa_offset 48
 443:C:/Users/stapi/OneDrive/Desktop/GD32VW553/GD32VW55X_Wifi_BLE_SDK/GD32VW55x_RELEASE_V1.0.2/MSDK/lwip/lwip-2.1.2/src/api\api_lib.c **** 
 1017              		.loc 1 443 3
 1018 000a 05E5     		bne	a0,zero,.L71
 443:C:/Users/stapi/OneDrive/Desktop/GD32VW553/GD32VW55X_Wifi_BLE_SDK/GD32VW55x_RELEASE_V1.0.2/MSDK/lwip/lwip-2.1.2/src/api\api_lib.c **** 
 1019              		.loc 1 443 3 is_stmt 1 discriminator 1
 443:C:/Users/stapi/OneDrive/Desktop/GD32VW553/GD32VW55X_Wifi_BLE_SDK/GD32VW55x_RELEASE_V1.0.2/MSDK/lwip/lwip-2.1.2/src/api\api_lib.c **** 
 1020              		.loc 1 443 3 discriminator 1
 1021 000c B7060000 		lui	a3,%hi(.LC0)
 1022 0010 B7050000 		lui	a1,%hi(.LC15)
 1023              	.LVL113:
 1024 0014 37050000 		lui	a0,%hi(.LC2)
 1025              	.LVL114:
 1026 0018 93860600 		addi	a3,a3,%lo(.LC0)
 1027 001c 1306B01B 		li	a2,443
 1028 0020 93850500 		addi	a1,a1,%lo(.LC15)
 1029 0024 13050500 		addi	a0,a0,%lo(.LC2)
 1030 0028 97000000 		call	printf
 1030      E7800000 
 1031              	.LVL115:
 1032              	.L72:
 443:C:/Users/stapi/OneDrive/Desktop/GD32VW553/GD32VW55X_Wifi_BLE_SDK/GD32VW55x_RELEASE_V1.0.2/MSDK/lwip/lwip-2.1.2/src/api\api_lib.c **** 
 1033              		.loc 1 443 3 discriminator 1
 443:C:/Users/stapi/OneDrive/Desktop/GD32VW553/GD32VW55X_Wifi_BLE_SDK/GD32VW55x_RELEASE_V1.0.2/MSDK/lwip/lwip-2.1.2/src/api\api_lib.c **** 
 1034              		.loc 1 443 3 discriminator 1
 443:C:/Users/stapi/OneDrive/Desktop/GD32VW553/GD32VW55X_Wifi_BLE_SDK/GD32VW55x_RELEASE_V1.0.2/MSDK/lwip/lwip-2.1.2/src/api\api_lib.c **** 
 1035              		.loc 1 443 3 discriminator 1
 1036 0030 01A0     		j	.L72
 1037              	.LVL116:
 1038              	.L71:
 443:C:/Users/stapi/OneDrive/Desktop/GD32VW553/GD32VW55X_Wifi_BLE_SDK/GD32VW55x_RELEASE_V1.0.2/MSDK/lwip/lwip-2.1.2/src/api\api_lib.c **** 
 1039              		.loc 1 443 3 discriminator 2
 443:C:/Users/stapi/OneDrive/Desktop/GD32VW553/GD32VW55X_Wifi_BLE_SDK/GD32VW55x_RELEASE_V1.0.2/MSDK/lwip/lwip-2.1.2/src/api\api_lib.c **** 
 1040              		.loc 1 443 3 discriminator 2
 445:C:/Users/stapi/OneDrive/Desktop/GD32VW553/GD32VW55X_Wifi_BLE_SDK/GD32VW55x_RELEASE_V1.0.2/MSDK/lwip/lwip-2.1.2/src/api\api_lib.c ****   API_MSG_VAR_REF(msg).conn = conn;
 1041              		.loc 1 445 25 discriminator 2
 446:C:/Users/stapi/OneDrive/Desktop/GD32VW553/GD32VW55X_Wifi_BLE_SDK/GD32VW55x_RELEASE_V1.0.2/MSDK/lwip/lwip-2.1.2/src/api\api_lib.c **** #if TCP_LISTEN_BACKLOG
 1042              		.loc 1 446 3 discriminator 2
 446:C:/Users/stapi/OneDrive/Desktop/GD32VW553/GD32VW55X_Wifi_BLE_SDK/GD32VW55x_RELEASE_V1.0.2/MSDK/lwip/lwip-2.1.2/src/api\api_lib.c **** #if TCP_LISTEN_BACKLOG
 1043              		.loc 1 446 29 is_stmt 0 discriminator 2
 1044 0032 2AC0     		sw	a0,0(sp)
 450:C:/Users/stapi/OneDrive/Desktop/GD32VW553/GD32VW55X_Wifi_BLE_SDK/GD32VW55x_RELEASE_V1.0.2/MSDK/lwip/lwip-2.1.2/src/api\api_lib.c ****   API_MSG_VAR_FREE(msg);
 1045              		.loc 1 450 3 is_stmt 1 discriminator 2
 450:C:/Users/stapi/OneDrive/Desktop/GD32VW553/GD32VW55X_Wifi_BLE_SDK/GD32VW55x_RELEASE_V1.0.2/MSDK/lwip/lwip-2.1.2/src/api\api_lib.c ****   API_MSG_VAR_FREE(msg);
 1046              		.loc 1 450 9 is_stmt 0 discriminator 2
 1047 0034 37050000 		lui	a0,%hi(lwip_netconn_do_listen)
 1048              	.LVL117:
 1049 0038 8A85     		mv	a1,sp
 1050              	.LVL118:
 1051 003a 13050500 		addi	a0,a0,%lo(lwip_netconn_do_listen)
 1052 003e 97000000 		call	netconn_apimsg
 1052      E7800000 
 1053              	.LVL119:
 451:C:/Users/stapi/OneDrive/Desktop/GD32VW553/GD32VW55X_Wifi_BLE_SDK/GD32VW55x_RELEASE_V1.0.2/MSDK/lwip/lwip-2.1.2/src/api\api_lib.c **** 
 1054              		.loc 1 451 24 is_stmt 1 discriminator 2
 453:C:/Users/stapi/OneDrive/Desktop/GD32VW553/GD32VW55X_Wifi_BLE_SDK/GD32VW55x_RELEASE_V1.0.2/MSDK/lwip/lwip-2.1.2/src/api\api_lib.c **** #else /* LWIP_TCP */
 1055              		.loc 1 453 3 discriminator 2
 459:C:/Users/stapi/OneDrive/Desktop/GD32VW553/GD32VW55X_Wifi_BLE_SDK/GD32VW55x_RELEASE_V1.0.2/MSDK/lwip/lwip-2.1.2/src/api\api_lib.c **** 
 1056              		.loc 1 459 1 is_stmt 0 discriminator 2
 1057 0046 0561     		addi	sp,sp,32
 1058              		.cfi_def_cfa_offset 0
 1059 0048 17030000 		tail	__riscv_restore_0
 1059      67000300 
 1060              		.cfi_restore 1
 1061              		.cfi_def_cfa_offset -16
 1062              		.cfi_endproc
 1063              	.LFE13:
 1065              		.section	.text.netconn_tcp_recvd,"ax",@progbits
 1066              		.align	1
 1067              		.globl	netconn_tcp_recvd
 1069              	netconn_tcp_recvd:
 1070              	.LFB17:
 690:C:/Users/stapi/OneDrive/Desktop/GD32VW553/GD32VW55X_Wifi_BLE_SDK/GD32VW55x_RELEASE_V1.0.2/MSDK/lwip/lwip-2.1.2/src/api\api_lib.c ****   err_t err;
 1071              		.loc 1 690 1 is_stmt 1
 1072              		.cfi_startproc
 1073              	.LVL120:
 1074 0000 17030000 		call	t0,__riscv_save_0
 1074      E7020300 
 1075              		.cfi_offset 1, -4
 1076              		.cfi_def_cfa_offset 16
 691:C:/Users/stapi/OneDrive/Desktop/GD32VW553/GD32VW55X_Wifi_BLE_SDK/GD32VW55x_RELEASE_V1.0.2/MSDK/lwip/lwip-2.1.2/src/api\api_lib.c ****   API_MSG_VAR_DECLARE(msg);
 1077              		.loc 1 691 3
 692:C:/Users/stapi/OneDrive/Desktop/GD32VW553/GD32VW55X_Wifi_BLE_SDK/GD32VW55x_RELEASE_V1.0.2/MSDK/lwip/lwip-2.1.2/src/api\api_lib.c ****   LWIP_ERROR("netconn_recv_tcp_pbuf: invalid conn", (conn != NULL) &&
 1078              		.loc 1 692 3
 693:C:/Users/stapi/OneDrive/Desktop/GD32VW553/GD32VW55X_Wifi_BLE_SDK/GD32VW55x_RELEASE_V1.0.2/MSDK/lwip/lwip-2.1.2/src/api\api_lib.c ****              NETCONNTYPE_GROUP(netconn_type(conn)) == NETCONN_TCP, return ERR_ARG;);
 1079              		.loc 1 693 3
 693:C:/Users/stapi/OneDrive/Desktop/GD32VW553/GD32VW55X_Wifi_BLE_SDK/GD32VW55x_RELEASE_V1.0.2/MSDK/lwip/lwip-2.1.2/src/api\api_lib.c ****              NETCONNTYPE_GROUP(netconn_type(conn)) == NETCONN_TCP, return ERR_ARG;);
 1080              		.loc 1 693 3
 690:C:/Users/stapi/OneDrive/Desktop/GD32VW553/GD32VW55X_Wifi_BLE_SDK/GD32VW55x_RELEASE_V1.0.2/MSDK/lwip/lwip-2.1.2/src/api\api_lib.c ****   err_t err;
 1081              		.loc 1 690 1 is_stmt 0
 1082 0008 0111     		addi	sp,sp,-32
 1083              		.cfi_def_cfa_offset 48
 693:C:/Users/stapi/OneDrive/Desktop/GD32VW553/GD32VW55X_Wifi_BLE_SDK/GD32VW55x_RELEASE_V1.0.2/MSDK/lwip/lwip-2.1.2/src/api\api_lib.c ****              NETCONNTYPE_GROUP(netconn_type(conn)) == NETCONN_TCP, return ERR_ARG;);
 1084              		.loc 1 693 3
 1085 000a 19C5     		beq	a0,zero,.L75
 693:C:/Users/stapi/OneDrive/Desktop/GD32VW553/GD32VW55X_Wifi_BLE_SDK/GD32VW55x_RELEASE_V1.0.2/MSDK/lwip/lwip-2.1.2/src/api\api_lib.c ****              NETCONNTYPE_GROUP(netconn_type(conn)) == NETCONN_TCP, return ERR_ARG;);
 1086              		.loc 1 693 3 discriminator 2
 1087 000c 1C41     		lw	a5,0(a0)
 1088 000e 4147     		li	a4,16
 1089 0010 93F7070F 		andi	a5,a5,240
 1090 0014 6385E702 		beq	a5,a4,.L76
 1091              	.L75:
 693:C:/Users/stapi/OneDrive/Desktop/GD32VW553/GD32VW55X_Wifi_BLE_SDK/GD32VW55x_RELEASE_V1.0.2/MSDK/lwip/lwip-2.1.2/src/api\api_lib.c ****              NETCONNTYPE_GROUP(netconn_type(conn)) == NETCONN_TCP, return ERR_ARG;);
 1092              		.loc 1 693 3 is_stmt 1 discriminator 3
 693:C:/Users/stapi/OneDrive/Desktop/GD32VW553/GD32VW55X_Wifi_BLE_SDK/GD32VW55x_RELEASE_V1.0.2/MSDK/lwip/lwip-2.1.2/src/api\api_lib.c ****              NETCONNTYPE_GROUP(netconn_type(conn)) == NETCONN_TCP, return ERR_ARG;);
 1093              		.loc 1 693 3 discriminator 3
 1094 0018 B7060000 		lui	a3,%hi(.LC0)
 1095 001c B7050000 		lui	a1,%hi(.LC1)
 1096              	.LVL121:
 1097 0020 37050000 		lui	a0,%hi(.LC2)
 1098              	.LVL122:
 1099 0024 93860600 		addi	a3,a3,%lo(.LC0)
 1100 0028 1306502B 		li	a2,693
 1101 002c 93850500 		addi	a1,a1,%lo(.LC1)
 1102 0030 13050500 		addi	a0,a0,%lo(.LC2)
 1103 0034 97000000 		call	printf
 1103      E7800000 
 1104              	.LVL123:
 1105              	.L77:
 693:C:/Users/stapi/OneDrive/Desktop/GD32VW553/GD32VW55X_Wifi_BLE_SDK/GD32VW55x_RELEASE_V1.0.2/MSDK/lwip/lwip-2.1.2/src/api\api_lib.c ****              NETCONNTYPE_GROUP(netconn_type(conn)) == NETCONN_TCP, return ERR_ARG;);
 1106              		.loc 1 693 3 discriminator 1
 693:C:/Users/stapi/OneDrive/Desktop/GD32VW553/GD32VW55X_Wifi_BLE_SDK/GD32VW55x_RELEASE_V1.0.2/MSDK/lwip/lwip-2.1.2/src/api\api_lib.c ****              NETCONNTYPE_GROUP(netconn_type(conn)) == NETCONN_TCP, return ERR_ARG;);
 1107              		.loc 1 693 3 discriminator 1
 693:C:/Users/stapi/OneDrive/Desktop/GD32VW553/GD32VW55X_Wifi_BLE_SDK/GD32VW55x_RELEASE_V1.0.2/MSDK/lwip/lwip-2.1.2/src/api\api_lib.c ****              NETCONNTYPE_GROUP(netconn_type(conn)) == NETCONN_TCP, return ERR_ARG;);
 1108              		.loc 1 693 3 discriminator 1
 1109 003c 01A0     		j	.L77
 1110              	.LVL124:
 1111              	.L76:
 693:C:/Users/stapi/OneDrive/Desktop/GD32VW553/GD32VW55X_Wifi_BLE_SDK/GD32VW55x_RELEASE_V1.0.2/MSDK/lwip/lwip-2.1.2/src/api\api_lib.c ****              NETCONNTYPE_GROUP(netconn_type(conn)) == NETCONN_TCP, return ERR_ARG;);
 1112              		.loc 1 693 3 discriminator 4
 693:C:/Users/stapi/OneDrive/Desktop/GD32VW553/GD32VW55X_Wifi_BLE_SDK/GD32VW55x_RELEASE_V1.0.2/MSDK/lwip/lwip-2.1.2/src/api\api_lib.c ****              NETCONNTYPE_GROUP(netconn_type(conn)) == NETCONN_TCP, return ERR_ARG;);
 1113              		.loc 1 693 3 discriminator 4
 696:C:/Users/stapi/OneDrive/Desktop/GD32VW553/GD32VW55X_Wifi_BLE_SDK/GD32VW55x_RELEASE_V1.0.2/MSDK/lwip/lwip-2.1.2/src/api\api_lib.c ****   err = netconn_tcp_recvd_msg(conn, len, &API_VAR_REF(msg));
 1114              		.loc 1 696 25 discriminator 4
 697:C:/Users/stapi/OneDrive/Desktop/GD32VW553/GD32VW55X_Wifi_BLE_SDK/GD32VW55x_RELEASE_V1.0.2/MSDK/lwip/lwip-2.1.2/src/api\api_lib.c ****   API_MSG_VAR_FREE(msg);
 1115              		.loc 1 697 3 discriminator 4
 697:C:/Users/stapi/OneDrive/Desktop/GD32VW553/GD32VW55X_Wifi_BLE_SDK/GD32VW55x_RELEASE_V1.0.2/MSDK/lwip/lwip-2.1.2/src/api\api_lib.c ****   API_MSG_VAR_FREE(msg);
 1116              		.loc 1 697 9 is_stmt 0 discriminator 4
 1117 003e 0A86     		mv	a2,sp
 1118 0040 97000000 		call	netconn_tcp_recvd_msg
 1118      E7800000 
 1119              	.LVL125:
 698:C:/Users/stapi/OneDrive/Desktop/GD32VW553/GD32VW55X_Wifi_BLE_SDK/GD32VW55x_RELEASE_V1.0.2/MSDK/lwip/lwip-2.1.2/src/api\api_lib.c ****   return err;
 1120              		.loc 1 698 24 is_stmt 1 discriminator 4
 699:C:/Users/stapi/OneDrive/Desktop/GD32VW553/GD32VW55X_Wifi_BLE_SDK/GD32VW55x_RELEASE_V1.0.2/MSDK/lwip/lwip-2.1.2/src/api\api_lib.c **** }
 1121              		.loc 1 699 3 discriminator 4
 700:C:/Users/stapi/OneDrive/Desktop/GD32VW553/GD32VW55X_Wifi_BLE_SDK/GD32VW55x_RELEASE_V1.0.2/MSDK/lwip/lwip-2.1.2/src/api\api_lib.c **** 
 1122              		.loc 1 700 1 is_stmt 0 discriminator 4
 1123 0048 0561     		addi	sp,sp,32
 1124              		.cfi_def_cfa_offset 0
 1125 004a 17030000 		tail	__riscv_restore_0
 1125      67000300 
 1126              		.cfi_restore 1
 1127              		.cfi_def_cfa_offset -16
 1128              		.cfi_endproc
 1129              	.LFE17:
 1131              		.section	.rodata.netconn_send.str1.4,"aMS",@progbits,1
 1132              		.align	2
 1133              	.LC16:
 1134 0000 6E657463 		.string	"netconn_send: invalid conn"
 1134      6F6E6E5F 
 1134      73656E64 
 1134      3A20696E 
 1134      76616C69 
 1135              		.section	.text.netconn_send,"ax",@progbits
 1136              		.align	1
 1137              		.globl	netconn_send
 1139              	netconn_send:
 1140              	.LFB25:
 942:C:/Users/stapi/OneDrive/Desktop/GD32VW553/GD32VW55X_Wifi_BLE_SDK/GD32VW55x_RELEASE_V1.0.2/MSDK/lwip/lwip-2.1.2/src/api\api_lib.c ****   API_MSG_VAR_DECLARE(msg);
 1141              		.loc 1 942 1 is_stmt 1
 1142              		.cfi_startproc
 1143              	.LVL126:
 1144 0000 17030000 		call	t0,__riscv_save_0
 1144      E7020300 
 1145              		.cfi_offset 1, -4
 1146              		.cfi_def_cfa_offset 16
 943:C:/Users/stapi/OneDrive/Desktop/GD32VW553/GD32VW55X_Wifi_BLE_SDK/GD32VW55x_RELEASE_V1.0.2/MSDK/lwip/lwip-2.1.2/src/api\api_lib.c ****   err_t err;
 1147              		.loc 1 943 3
 944:C:/Users/stapi/OneDrive/Desktop/GD32VW553/GD32VW55X_Wifi_BLE_SDK/GD32VW55x_RELEASE_V1.0.2/MSDK/lwip/lwip-2.1.2/src/api\api_lib.c **** 
 1148              		.loc 1 944 3
 946:C:/Users/stapi/OneDrive/Desktop/GD32VW553/GD32VW55X_Wifi_BLE_SDK/GD32VW55x_RELEASE_V1.0.2/MSDK/lwip/lwip-2.1.2/src/api\api_lib.c **** 
 1149              		.loc 1 946 3
 946:C:/Users/stapi/OneDrive/Desktop/GD32VW553/GD32VW55X_Wifi_BLE_SDK/GD32VW55x_RELEASE_V1.0.2/MSDK/lwip/lwip-2.1.2/src/api\api_lib.c **** 
 1150              		.loc 1 946 3
 942:C:/Users/stapi/OneDrive/Desktop/GD32VW553/GD32VW55X_Wifi_BLE_SDK/GD32VW55x_RELEASE_V1.0.2/MSDK/lwip/lwip-2.1.2/src/api\api_lib.c ****   API_MSG_VAR_DECLARE(msg);
 1151              		.loc 1 942 1 is_stmt 0
 1152 0008 0111     		addi	sp,sp,-32
 1153              		.cfi_def_cfa_offset 48
 946:C:/Users/stapi/OneDrive/Desktop/GD32VW553/GD32VW55X_Wifi_BLE_SDK/GD32VW55x_RELEASE_V1.0.2/MSDK/lwip/lwip-2.1.2/src/api\api_lib.c **** 
 1154              		.loc 1 946 3
 1155 000a 05E5     		bne	a0,zero,.L83
 1156              	.LVL127:
 1157              	.LBB20:
 1158              	.LBB21:
 946:C:/Users/stapi/OneDrive/Desktop/GD32VW553/GD32VW55X_Wifi_BLE_SDK/GD32VW55x_RELEASE_V1.0.2/MSDK/lwip/lwip-2.1.2/src/api\api_lib.c **** 
 1159              		.loc 1 946 3 is_stmt 1
 946:C:/Users/stapi/OneDrive/Desktop/GD32VW553/GD32VW55X_Wifi_BLE_SDK/GD32VW55x_RELEASE_V1.0.2/MSDK/lwip/lwip-2.1.2/src/api\api_lib.c **** 
 1160              		.loc 1 946 3
 1161 000c B7060000 		lui	a3,%hi(.LC0)
 1162 0010 B7050000 		lui	a1,%hi(.LC16)
 1163              	.LVL128:
 1164 0014 37050000 		lui	a0,%hi(.LC2)
 1165              	.LVL129:
 1166 0018 93860600 		addi	a3,a3,%lo(.LC0)
 1167 001c 1306203B 		li	a2,946
 1168 0020 93850500 		addi	a1,a1,%lo(.LC16)
 1169 0024 13050500 		addi	a0,a0,%lo(.LC2)
 1170 0028 97000000 		call	printf
 1170      E7800000 
 1171              	.LVL130:
 1172              	.L84:
 946:C:/Users/stapi/OneDrive/Desktop/GD32VW553/GD32VW55X_Wifi_BLE_SDK/GD32VW55x_RELEASE_V1.0.2/MSDK/lwip/lwip-2.1.2/src/api\api_lib.c **** 
 1173              		.loc 1 946 3
 946:C:/Users/stapi/OneDrive/Desktop/GD32VW553/GD32VW55X_Wifi_BLE_SDK/GD32VW55x_RELEASE_V1.0.2/MSDK/lwip/lwip-2.1.2/src/api\api_lib.c **** 
 1174              		.loc 1 946 3
 946:C:/Users/stapi/OneDrive/Desktop/GD32VW553/GD32VW55X_Wifi_BLE_SDK/GD32VW55x_RELEASE_V1.0.2/MSDK/lwip/lwip-2.1.2/src/api\api_lib.c **** 
 1175              		.loc 1 946 3
 1176 0030 01A0     		j	.L84
 1177              	.LVL131:
 1178              	.L83:
 1179              	.LBE21:
 1180              	.LBE20:
 946:C:/Users/stapi/OneDrive/Desktop/GD32VW553/GD32VW55X_Wifi_BLE_SDK/GD32VW55x_RELEASE_V1.0.2/MSDK/lwip/lwip-2.1.2/src/api\api_lib.c **** 
 1181              		.loc 1 946 3 discriminator 2
 946:C:/Users/stapi/OneDrive/Desktop/GD32VW553/GD32VW55X_Wifi_BLE_SDK/GD32VW55x_RELEASE_V1.0.2/MSDK/lwip/lwip-2.1.2/src/api\api_lib.c **** 
 1182              		.loc 1 946 3 discriminator 2
 948:C:/Users/stapi/OneDrive/Desktop/GD32VW553/GD32VW55X_Wifi_BLE_SDK/GD32VW55x_RELEASE_V1.0.2/MSDK/lwip/lwip-2.1.2/src/api\api_lib.c **** 
 1183              		.loc 1 948 90 discriminator 2
 950:C:/Users/stapi/OneDrive/Desktop/GD32VW553/GD32VW55X_Wifi_BLE_SDK/GD32VW55x_RELEASE_V1.0.2/MSDK/lwip/lwip-2.1.2/src/api\api_lib.c ****   API_MSG_VAR_REF(msg).conn = conn;
 1184              		.loc 1 950 25 discriminator 2
 951:C:/Users/stapi/OneDrive/Desktop/GD32VW553/GD32VW55X_Wifi_BLE_SDK/GD32VW55x_RELEASE_V1.0.2/MSDK/lwip/lwip-2.1.2/src/api\api_lib.c ****   API_MSG_VAR_REF(msg).msg.b = buf;
 1185              		.loc 1 951 3 discriminator 2
 951:C:/Users/stapi/OneDrive/Desktop/GD32VW553/GD32VW55X_Wifi_BLE_SDK/GD32VW55x_RELEASE_V1.0.2/MSDK/lwip/lwip-2.1.2/src/api\api_lib.c ****   API_MSG_VAR_REF(msg).msg.b = buf;
 1186              		.loc 1 951 29 is_stmt 0 discriminator 2
 1187 0032 2AC0     		sw	a0,0(sp)
 952:C:/Users/stapi/OneDrive/Desktop/GD32VW553/GD32VW55X_Wifi_BLE_SDK/GD32VW55x_RELEASE_V1.0.2/MSDK/lwip/lwip-2.1.2/src/api\api_lib.c ****   err = netconn_apimsg(lwip_netconn_do_send, &API_MSG_VAR_REF(msg));
 1188              		.loc 1 952 3 is_stmt 1 discriminator 2
 953:C:/Users/stapi/OneDrive/Desktop/GD32VW553/GD32VW55X_Wifi_BLE_SDK/GD32VW55x_RELEASE_V1.0.2/MSDK/lwip/lwip-2.1.2/src/api\api_lib.c ****   API_MSG_VAR_FREE(msg);
 1189              		.loc 1 953 9 is_stmt 0 discriminator 2
 1190 0034 37050000 		lui	a0,%hi(lwip_netconn_do_send)
 1191              	.LVL132:
 952:C:/Users/stapi/OneDrive/Desktop/GD32VW553/GD32VW55X_Wifi_BLE_SDK/GD32VW55x_RELEASE_V1.0.2/MSDK/lwip/lwip-2.1.2/src/api\api_lib.c ****   err = netconn_apimsg(lwip_netconn_do_send, &API_MSG_VAR_REF(msg));
 1192              		.loc 1 952 30 discriminator 2
 1193 0038 2EC4     		sw	a1,8(sp)
 953:C:/Users/stapi/OneDrive/Desktop/GD32VW553/GD32VW55X_Wifi_BLE_SDK/GD32VW55x_RELEASE_V1.0.2/MSDK/lwip/lwip-2.1.2/src/api\api_lib.c ****   API_MSG_VAR_FREE(msg);
 1194              		.loc 1 953 3 is_stmt 1 discriminator 2
 953:C:/Users/stapi/OneDrive/Desktop/GD32VW553/GD32VW55X_Wifi_BLE_SDK/GD32VW55x_RELEASE_V1.0.2/MSDK/lwip/lwip-2.1.2/src/api\api_lib.c ****   API_MSG_VAR_FREE(msg);
 1195              		.loc 1 953 9 is_stmt 0 discriminator 2
 1196 003a 13050500 		addi	a0,a0,%lo(lwip_netconn_do_send)
 1197 003e 8A85     		mv	a1,sp
 1198              	.LVL133:
 1199 0040 97000000 		call	netconn_apimsg
 1199      E7800000 
 1200              	.LVL134:
 954:C:/Users/stapi/OneDrive/Desktop/GD32VW553/GD32VW55X_Wifi_BLE_SDK/GD32VW55x_RELEASE_V1.0.2/MSDK/lwip/lwip-2.1.2/src/api\api_lib.c **** 
 1201              		.loc 1 954 24 is_stmt 1 discriminator 2
 956:C:/Users/stapi/OneDrive/Desktop/GD32VW553/GD32VW55X_Wifi_BLE_SDK/GD32VW55x_RELEASE_V1.0.2/MSDK/lwip/lwip-2.1.2/src/api\api_lib.c **** }
 1202              		.loc 1 956 3 discriminator 2
 957:C:/Users/stapi/OneDrive/Desktop/GD32VW553/GD32VW55X_Wifi_BLE_SDK/GD32VW55x_RELEASE_V1.0.2/MSDK/lwip/lwip-2.1.2/src/api\api_lib.c **** 
 1203              		.loc 1 957 1 is_stmt 0 discriminator 2
 1204 0048 0561     		addi	sp,sp,32
 1205              		.cfi_def_cfa_offset 0
 1206 004a 17030000 		tail	__riscv_restore_0
 1206      67000300 
 1207              		.cfi_restore 1
 1208              		.cfi_def_cfa_offset -16
 1209              		.cfi_endproc
 1210              	.LFE25:
 1212              		.section	.text.netconn_sendto,"ax",@progbits
 1213              		.align	1
 1214              		.globl	netconn_sendto
 1216              	netconn_sendto:
 1217              	.LFB24:
 923:C:/Users/stapi/OneDrive/Desktop/GD32VW553/GD32VW55X_Wifi_BLE_SDK/GD32VW55x_RELEASE_V1.0.2/MSDK/lwip/lwip-2.1.2/src/api\api_lib.c ****   if (buf != NULL) {
 1218              		.loc 1 923 1 is_stmt 1
 1219              		.cfi_startproc
 1220              	.LVL135:
 924:C:/Users/stapi/OneDrive/Desktop/GD32VW553/GD32VW55X_Wifi_BLE_SDK/GD32VW55x_RELEASE_V1.0.2/MSDK/lwip/lwip-2.1.2/src/api\api_lib.c ****     ip_addr_set(&buf->addr, addr);
 1221              		.loc 1 924 3
 924:C:/Users/stapi/OneDrive/Desktop/GD32VW553/GD32VW55X_Wifi_BLE_SDK/GD32VW55x_RELEASE_V1.0.2/MSDK/lwip/lwip-2.1.2/src/api\api_lib.c ****     ip_addr_set(&buf->addr, addr);
 1222              		.loc 1 924 6 is_stmt 0
 1223 0000 99C9     		beq	a1,zero,.L89
 925:C:/Users/stapi/OneDrive/Desktop/GD32VW553/GD32VW55X_Wifi_BLE_SDK/GD32VW55x_RELEASE_V1.0.2/MSDK/lwip/lwip-2.1.2/src/api\api_lib.c ****     buf->port = port;
 1224              		.loc 1 925 5 is_stmt 1
 1225 0002 8147     		li	a5,0
 1226 0004 11C2     		beq	a2,zero,.L88
 925:C:/Users/stapi/OneDrive/Desktop/GD32VW553/GD32VW55X_Wifi_BLE_SDK/GD32VW55x_RELEASE_V1.0.2/MSDK/lwip/lwip-2.1.2/src/api\api_lib.c ****     buf->port = port;
 1227              		.loc 1 925 5 is_stmt 0 discriminator 1
 1228 0006 1C42     		lw	a5,0(a2)
 1229              	.L88:
 925:C:/Users/stapi/OneDrive/Desktop/GD32VW553/GD32VW55X_Wifi_BLE_SDK/GD32VW55x_RELEASE_V1.0.2/MSDK/lwip/lwip-2.1.2/src/api\api_lib.c ****     buf->port = port;
 1230              		.loc 1 925 5 discriminator 4
 1231 0008 9CC5     		sw	a5,8(a1)
 926:C:/Users/stapi/OneDrive/Desktop/GD32VW553/GD32VW55X_Wifi_BLE_SDK/GD32VW55x_RELEASE_V1.0.2/MSDK/lwip/lwip-2.1.2/src/api\api_lib.c ****     return netconn_send(conn, buf);
 1232              		.loc 1 926 5 is_stmt 1 discriminator 4
 926:C:/Users/stapi/OneDrive/Desktop/GD32VW553/GD32VW55X_Wifi_BLE_SDK/GD32VW55x_RELEASE_V1.0.2/MSDK/lwip/lwip-2.1.2/src/api\api_lib.c ****     return netconn_send(conn, buf);
 1233              		.loc 1 926 15 is_stmt 0 discriminator 4
 1234 000a 2396D500 		sh	a3,12(a1)
 927:C:/Users/stapi/OneDrive/Desktop/GD32VW553/GD32VW55X_Wifi_BLE_SDK/GD32VW55x_RELEASE_V1.0.2/MSDK/lwip/lwip-2.1.2/src/api\api_lib.c ****   }
 1235              		.loc 1 927 5 is_stmt 1 discriminator 4
 927:C:/Users/stapi/OneDrive/Desktop/GD32VW553/GD32VW55X_Wifi_BLE_SDK/GD32VW55x_RELEASE_V1.0.2/MSDK/lwip/lwip-2.1.2/src/api\api_lib.c ****   }
 1236              		.loc 1 927 12 is_stmt 0 discriminator 4
 1237 000e 17030000 		tail	netconn_send
 1237      67000300 
 1238              	.LVL136:
 1239              	.L89:
 929:C:/Users/stapi/OneDrive/Desktop/GD32VW553/GD32VW55X_Wifi_BLE_SDK/GD32VW55x_RELEASE_V1.0.2/MSDK/lwip/lwip-2.1.2/src/api\api_lib.c **** }
 1240              		.loc 1 929 10
 1241 0016 6955     		li	a0,-6
 1242              	.LVL137:
 930:C:/Users/stapi/OneDrive/Desktop/GD32VW553/GD32VW55X_Wifi_BLE_SDK/GD32VW55x_RELEASE_V1.0.2/MSDK/lwip/lwip-2.1.2/src/api\api_lib.c **** 
 1243              		.loc 1 930 1
 1244 0018 8280     		ret
 1245              		.cfi_endproc
 1246              	.LFE24:
 1248              		.section	.rodata.netconn_write_vectors_partly.str1.4,"aMS",@progbits,1
 1249              		.align	2
 1250              	.LC17:
 1251 0000 6E657463 		.string	"netconn_write: invalid conn"
 1251      6F6E6E5F 
 1251      77726974 
 1251      653A2069 
 1251      6E76616C 
 1252              		.align	2
 1253              	.LC18:
 1254 001c 6E657463 		.string	"netconn_write: invalid conn->type"
 1254      6F6E6E5F 
 1254      77726974 
 1254      653A2069 
 1254      6E76616C 
 1255 003e 0000     		.align	2
 1256              	.LC19:
 1257 0040 646F5F77 		.string	"do_write failed to write all bytes"
 1257      72697465 
 1257      20666169 
 1257      6C656420 
 1257      746F2077 
 1258              		.section	.text.netconn_write_vectors_partly,"ax",@progbits
 1259              		.align	1
 1260              		.globl	netconn_write_vectors_partly
 1262              	netconn_write_vectors_partly:
 1263              	.LFB27:
 999:C:/Users/stapi/OneDrive/Desktop/GD32VW553/GD32VW55X_Wifi_BLE_SDK/GD32VW55x_RELEASE_V1.0.2/MSDK/lwip/lwip-2.1.2/src/api\api_lib.c ****   API_MSG_VAR_DECLARE(msg);
 1264              		.loc 1 999 1 is_stmt 1
 1265              		.cfi_startproc
 1266              	.LVL138:
 1267 0000 17030000 		call	t0,__riscv_save_3
 1267      E7020300 
 1268              		.cfi_offset 18, -16
 1269              		.cfi_offset 9, -12
 1270              		.cfi_offset 8, -8
 1271              		.cfi_offset 1, -4
 1272              		.cfi_def_cfa_offset 16
1000:C:/Users/stapi/OneDrive/Desktop/GD32VW553/GD32VW55X_Wifi_BLE_SDK/GD32VW55x_RELEASE_V1.0.2/MSDK/lwip/lwip-2.1.2/src/api\api_lib.c ****   err_t err;
 1273              		.loc 1 1000 3
1001:C:/Users/stapi/OneDrive/Desktop/GD32VW553/GD32VW55X_Wifi_BLE_SDK/GD32VW55x_RELEASE_V1.0.2/MSDK/lwip/lwip-2.1.2/src/api\api_lib.c ****   u8_t dontblock;
 1274              		.loc 1 1001 3
1002:C:/Users/stapi/OneDrive/Desktop/GD32VW553/GD32VW55X_Wifi_BLE_SDK/GD32VW55x_RELEASE_V1.0.2/MSDK/lwip/lwip-2.1.2/src/api\api_lib.c ****   size_t size;
 1275              		.loc 1 1002 3
1003:C:/Users/stapi/OneDrive/Desktop/GD32VW553/GD32VW55X_Wifi_BLE_SDK/GD32VW55x_RELEASE_V1.0.2/MSDK/lwip/lwip-2.1.2/src/api\api_lib.c ****   int i;
 1276              		.loc 1 1003 3
1004:C:/Users/stapi/OneDrive/Desktop/GD32VW553/GD32VW55X_Wifi_BLE_SDK/GD32VW55x_RELEASE_V1.0.2/MSDK/lwip/lwip-2.1.2/src/api\api_lib.c **** 
 1277              		.loc 1 1004 3
1006:C:/Users/stapi/OneDrive/Desktop/GD32VW553/GD32VW55X_Wifi_BLE_SDK/GD32VW55x_RELEASE_V1.0.2/MSDK/lwip/lwip-2.1.2/src/api\api_lib.c ****   LWIP_ERROR("netconn_write: invalid conn->type",  (NETCONNTYPE_GROUP(conn->type) == NETCONN_TCP), 
 1278              		.loc 1 1006 3
1006:C:/Users/stapi/OneDrive/Desktop/GD32VW553/GD32VW55X_Wifi_BLE_SDK/GD32VW55x_RELEASE_V1.0.2/MSDK/lwip/lwip-2.1.2/src/api\api_lib.c ****   LWIP_ERROR("netconn_write: invalid conn->type",  (NETCONNTYPE_GROUP(conn->type) == NETCONN_TCP), 
 1279              		.loc 1 1006 3
 999:C:/Users/stapi/OneDrive/Desktop/GD32VW553/GD32VW55X_Wifi_BLE_SDK/GD32VW55x_RELEASE_V1.0.2/MSDK/lwip/lwip-2.1.2/src/api\api_lib.c ****   API_MSG_VAR_DECLARE(msg);
 1280              		.loc 1 999 1 is_stmt 0
 1281 0008 0111     		addi	sp,sp,-32
 1282              		.cfi_def_cfa_offset 48
1006:C:/Users/stapi/OneDrive/Desktop/GD32VW553/GD32VW55X_Wifi_BLE_SDK/GD32VW55x_RELEASE_V1.0.2/MSDK/lwip/lwip-2.1.2/src/api\api_lib.c ****   LWIP_ERROR("netconn_write: invalid conn->type",  (NETCONNTYPE_GROUP(conn->type) == NETCONN_TCP), 
 1283              		.loc 1 1006 3
 1284 000a 05E5     		bne	a0,zero,.L96
1006:C:/Users/stapi/OneDrive/Desktop/GD32VW553/GD32VW55X_Wifi_BLE_SDK/GD32VW55x_RELEASE_V1.0.2/MSDK/lwip/lwip-2.1.2/src/api\api_lib.c ****   LWIP_ERROR("netconn_write: invalid conn->type",  (NETCONNTYPE_GROUP(conn->type) == NETCONN_TCP), 
 1285              		.loc 1 1006 3 is_stmt 1 discriminator 1
1006:C:/Users/stapi/OneDrive/Desktop/GD32VW553/GD32VW55X_Wifi_BLE_SDK/GD32VW55x_RELEASE_V1.0.2/MSDK/lwip/lwip-2.1.2/src/api\api_lib.c ****   LWIP_ERROR("netconn_write: invalid conn->type",  (NETCONNTYPE_GROUP(conn->type) == NETCONN_TCP), 
 1286              		.loc 1 1006 3 discriminator 1
 1287 000c B7060000 		lui	a3,%hi(.LC0)
 1288              	.LVL139:
 1289 0010 B7050000 		lui	a1,%hi(.LC17)
 1290              	.LVL140:
 1291 0014 37050000 		lui	a0,%hi(.LC2)
 1292              	.LVL141:
 1293 0018 93860600 		addi	a3,a3,%lo(.LC0)
 1294 001c 1306E03E 		li	a2,1006
 1295              	.LVL142:
 1296 0020 93850500 		addi	a1,a1,%lo(.LC17)
 1297 0024 13050500 		addi	a0,a0,%lo(.LC2)
 1298 0028 97000000 		call	printf
 1298      E7800000 
 1299              	.LVL143:
 1300              	.L97:
1006:C:/Users/stapi/OneDrive/Desktop/GD32VW553/GD32VW55X_Wifi_BLE_SDK/GD32VW55x_RELEASE_V1.0.2/MSDK/lwip/lwip-2.1.2/src/api\api_lib.c ****   LWIP_ERROR("netconn_write: invalid conn->type",  (NETCONNTYPE_GROUP(conn->type) == NETCONN_TCP), 
 1301              		.loc 1 1006 3 discriminator 1
1006:C:/Users/stapi/OneDrive/Desktop/GD32VW553/GD32VW55X_Wifi_BLE_SDK/GD32VW55x_RELEASE_V1.0.2/MSDK/lwip/lwip-2.1.2/src/api\api_lib.c ****   LWIP_ERROR("netconn_write: invalid conn->type",  (NETCONNTYPE_GROUP(conn->type) == NETCONN_TCP), 
 1302              		.loc 1 1006 3 discriminator 1
1006:C:/Users/stapi/OneDrive/Desktop/GD32VW553/GD32VW55X_Wifi_BLE_SDK/GD32VW55x_RELEASE_V1.0.2/MSDK/lwip/lwip-2.1.2/src/api\api_lib.c ****   LWIP_ERROR("netconn_write: invalid conn->type",  (NETCONNTYPE_GROUP(conn->type) == NETCONN_TCP), 
 1303              		.loc 1 1006 3 discriminator 1
 1304 0030 01A0     		j	.L97
 1305              	.LVL144:
 1306              	.L96:
1007:C:/Users/stapi/OneDrive/Desktop/GD32VW553/GD32VW55X_Wifi_BLE_SDK/GD32VW55x_RELEASE_V1.0.2/MSDK/lwip/lwip-2.1.2/src/api\api_lib.c ****   dontblock = netconn_is_nonblocking(conn) || (apiflags & NETCONN_DONTBLOCK);
 1307              		.loc 1 1007 3 is_stmt 0 discriminator 2
 1308 0032 1C41     		lw	a5,0(a0)
 1309 0034 BA84     		mv	s1,a4
1006:C:/Users/stapi/OneDrive/Desktop/GD32VW553/GD32VW55X_Wifi_BLE_SDK/GD32VW55x_RELEASE_V1.0.2/MSDK/lwip/lwip-2.1.2/src/api\api_lib.c ****   LWIP_ERROR("netconn_write: invalid conn->type",  (NETCONNTYPE_GROUP(conn->type) == NETCONN_TCP), 
 1310              		.loc 1 1006 3 is_stmt 1 discriminator 2
1006:C:/Users/stapi/OneDrive/Desktop/GD32VW553/GD32VW55X_Wifi_BLE_SDK/GD32VW55x_RELEASE_V1.0.2/MSDK/lwip/lwip-2.1.2/src/api\api_lib.c ****   LWIP_ERROR("netconn_write: invalid conn->type",  (NETCONNTYPE_GROUP(conn->type) == NETCONN_TCP), 
 1311              		.loc 1 1006 3 discriminator 2
1007:C:/Users/stapi/OneDrive/Desktop/GD32VW553/GD32VW55X_Wifi_BLE_SDK/GD32VW55x_RELEASE_V1.0.2/MSDK/lwip/lwip-2.1.2/src/api\api_lib.c ****   dontblock = netconn_is_nonblocking(conn) || (apiflags & NETCONN_DONTBLOCK);
 1312              		.loc 1 1007 3 discriminator 2
1007:C:/Users/stapi/OneDrive/Desktop/GD32VW553/GD32VW55X_Wifi_BLE_SDK/GD32VW55x_RELEASE_V1.0.2/MSDK/lwip/lwip-2.1.2/src/api\api_lib.c ****   dontblock = netconn_is_nonblocking(conn) || (apiflags & NETCONN_DONTBLOCK);
 1313              		.loc 1 1007 3 discriminator 2
 1314 0036 4147     		li	a4,16
 1315              	.LVL145:
 1316 0038 93F7070F 		andi	a5,a5,240
 1317 003c 6385E702 		beq	a5,a4,.L98
1007:C:/Users/stapi/OneDrive/Desktop/GD32VW553/GD32VW55X_Wifi_BLE_SDK/GD32VW55x_RELEASE_V1.0.2/MSDK/lwip/lwip-2.1.2/src/api\api_lib.c ****   dontblock = netconn_is_nonblocking(conn) || (apiflags & NETCONN_DONTBLOCK);
 1318              		.loc 1 1007 3 discriminator 1
1007:C:/Users/stapi/OneDrive/Desktop/GD32VW553/GD32VW55X_Wifi_BLE_SDK/GD32VW55x_RELEASE_V1.0.2/MSDK/lwip/lwip-2.1.2/src/api\api_lib.c ****   dontblock = netconn_is_nonblocking(conn) || (apiflags & NETCONN_DONTBLOCK);
 1319              		.loc 1 1007 3 discriminator 1
 1320 0040 B7060000 		lui	a3,%hi(.LC0)
 1321              	.LVL146:
 1322 0044 B7050000 		lui	a1,%hi(.LC18)
 1323              	.LVL147:
 1324 0048 37050000 		lui	a0,%hi(.LC2)
 1325              	.LVL148:
 1326 004c 93860600 		addi	a3,a3,%lo(.LC0)
 1327 0050 1306F03E 		li	a2,1007
 1328              	.LVL149:
 1329 0054 93850500 		addi	a1,a1,%lo(.LC18)
 1330 0058 13050500 		addi	a0,a0,%lo(.LC2)
 1331 005c 97000000 		call	printf
 1331      E7800000 
 1332              	.LVL150:
 1333              	.L99:
1007:C:/Users/stapi/OneDrive/Desktop/GD32VW553/GD32VW55X_Wifi_BLE_SDK/GD32VW55x_RELEASE_V1.0.2/MSDK/lwip/lwip-2.1.2/src/api\api_lib.c ****   dontblock = netconn_is_nonblocking(conn) || (apiflags & NETCONN_DONTBLOCK);
 1334              		.loc 1 1007 3 discriminator 2
1007:C:/Users/stapi/OneDrive/Desktop/GD32VW553/GD32VW55X_Wifi_BLE_SDK/GD32VW55x_RELEASE_V1.0.2/MSDK/lwip/lwip-2.1.2/src/api\api_lib.c ****   dontblock = netconn_is_nonblocking(conn) || (apiflags & NETCONN_DONTBLOCK);
 1335              		.loc 1 1007 3 discriminator 2
1007:C:/Users/stapi/OneDrive/Desktop/GD32VW553/GD32VW55X_Wifi_BLE_SDK/GD32VW55x_RELEASE_V1.0.2/MSDK/lwip/lwip-2.1.2/src/api\api_lib.c ****   dontblock = netconn_is_nonblocking(conn) || (apiflags & NETCONN_DONTBLOCK);
 1336              		.loc 1 1007 3 discriminator 2
 1337 0064 01A0     		j	.L99
 1338              	.LVL151:
 1339              	.L98:
 1340              	.LBB25:
 1341              	.LBB26:
1007:C:/Users/stapi/OneDrive/Desktop/GD32VW553/GD32VW55X_Wifi_BLE_SDK/GD32VW55x_RELEASE_V1.0.2/MSDK/lwip/lwip-2.1.2/src/api\api_lib.c ****   dontblock = netconn_is_nonblocking(conn) || (apiflags & NETCONN_DONTBLOCK);
 1342              		.loc 1 1007 3
1007:C:/Users/stapi/OneDrive/Desktop/GD32VW553/GD32VW55X_Wifi_BLE_SDK/GD32VW55x_RELEASE_V1.0.2/MSDK/lwip/lwip-2.1.2/src/api\api_lib.c ****   dontblock = netconn_is_nonblocking(conn) || (apiflags & NETCONN_DONTBLOCK);
 1343              		.loc 1 1007 3
1008:C:/Users/stapi/OneDrive/Desktop/GD32VW553/GD32VW55X_Wifi_BLE_SDK/GD32VW55x_RELEASE_V1.0.2/MSDK/lwip/lwip-2.1.2/src/api\api_lib.c **** #if LWIP_SO_SNDTIMEO
 1344              		.loc 1 1008 3
1014:C:/Users/stapi/OneDrive/Desktop/GD32VW553/GD32VW55X_Wifi_BLE_SDK/GD32VW55x_RELEASE_V1.0.2/MSDK/lwip/lwip-2.1.2/src/api\api_lib.c ****     /* This implies netconn_write() cannot be used for non-blocking send, since
 1345              		.loc 1 1014 3
1014:C:/Users/stapi/OneDrive/Desktop/GD32VW553/GD32VW55X_Wifi_BLE_SDK/GD32VW55x_RELEASE_V1.0.2/MSDK/lwip/lwip-2.1.2/src/api\api_lib.c ****     /* This implies netconn_write() cannot be used for non-blocking send, since
 1346              		.loc 1 1014 6 is_stmt 0
 1347 0066 83474502 		lbu	a5,36(a0)
 1348 006a 13F74600 		andi	a4,a3,4
1008:C:/Users/stapi/OneDrive/Desktop/GD32VW553/GD32VW55X_Wifi_BLE_SDK/GD32VW55x_RELEASE_V1.0.2/MSDK/lwip/lwip-2.1.2/src/api\api_lib.c **** #if LWIP_SO_SNDTIMEO
 1349              		.loc 1 1008 44
 1350 006e 0149     		li	s2,0
1014:C:/Users/stapi/OneDrive/Desktop/GD32VW553/GD32VW55X_Wifi_BLE_SDK/GD32VW55x_RELEASE_V1.0.2/MSDK/lwip/lwip-2.1.2/src/api\api_lib.c ****     /* This implies netconn_write() cannot be used for non-blocking send, since
 1351              		.loc 1 1014 6
 1352 0070 898B     		andi	a5,a5,2
 1353 0072 D98F     		or	a5,a5,a4
 1354 0074 99C3     		beq	a5,zero,.L100
 1355              	.LVL152:
1014:C:/Users/stapi/OneDrive/Desktop/GD32VW553/GD32VW55X_Wifi_BLE_SDK/GD32VW55x_RELEASE_V1.0.2/MSDK/lwip/lwip-2.1.2/src/api\api_lib.c ****     /* This implies netconn_write() cannot be used for non-blocking send, since
 1356              		.loc 1 1014 3 is_stmt 1
1014:C:/Users/stapi/OneDrive/Desktop/GD32VW553/GD32VW55X_Wifi_BLE_SDK/GD32VW55x_RELEASE_V1.0.2/MSDK/lwip/lwip-2.1.2/src/api\api_lib.c ****     /* This implies netconn_write() cannot be used for non-blocking send, since
 1357              		.loc 1 1014 17 is_stmt 0
 1358 0076 C1CC     		beq	s1,zero,.L112
 1359 0078 0549     		li	s2,1
 1360              	.LVL153:
 1361              	.L100:
 1362 007a 13874500 		addi	a4,a1,4
 1363 007e 8147     		li	a5,0
 1364 0080 0144     		li	s0,0
 1365 0082 01A8     		j	.L102
 1366              	.LVL154:
 1367              	.L103:
1023:C:/Users/stapi/OneDrive/Desktop/GD32VW553/GD32VW55X_Wifi_BLE_SDK/GD32VW55x_RELEASE_V1.0.2/MSDK/lwip/lwip-2.1.2/src/api\api_lib.c ****     if (size < vectors[i].len) {
 1368              		.loc 1 1023 5 is_stmt 1
1023:C:/Users/stapi/OneDrive/Desktop/GD32VW553/GD32VW55X_Wifi_BLE_SDK/GD32VW55x_RELEASE_V1.0.2/MSDK/lwip/lwip-2.1.2/src/api\api_lib.c ****     if (size < vectors[i].len) {
 1369              		.loc 1 1023 23 is_stmt 0
 1370 0084 03280700 		lw	a6,0(a4)
1024:C:/Users/stapi/OneDrive/Desktop/GD32VW553/GD32VW55X_Wifi_BLE_SDK/GD32VW55x_RELEASE_V1.0.2/MSDK/lwip/lwip-2.1.2/src/api\api_lib.c ****       /* overflow */
 1371              		.loc 1 1024 8
 1372 0088 2107     		addi	a4,a4,8
1023:C:/Users/stapi/OneDrive/Desktop/GD32VW553/GD32VW55X_Wifi_BLE_SDK/GD32VW55x_RELEASE_V1.0.2/MSDK/lwip/lwip-2.1.2/src/api\api_lib.c ****     if (size < vectors[i].len) {
 1373              		.loc 1 1023 10
 1374 008a 4294     		add	s0,s0,a6
 1375              	.LVL155:
1024:C:/Users/stapi/OneDrive/Desktop/GD32VW553/GD32VW55X_Wifi_BLE_SDK/GD32VW55x_RELEASE_V1.0.2/MSDK/lwip/lwip-2.1.2/src/api\api_lib.c ****       /* overflow */
 1376              		.loc 1 1024 5 is_stmt 1
1024:C:/Users/stapi/OneDrive/Desktop/GD32VW553/GD32VW55X_Wifi_BLE_SDK/GD32VW55x_RELEASE_V1.0.2/MSDK/lwip/lwip-2.1.2/src/api\api_lib.c ****       /* overflow */
 1377              		.loc 1 1024 8 is_stmt 0
 1378 008c 63610409 		bgtu	a6,s0,.L112
1022:C:/Users/stapi/OneDrive/Desktop/GD32VW553/GD32VW55X_Wifi_BLE_SDK/GD32VW55x_RELEASE_V1.0.2/MSDK/lwip/lwip-2.1.2/src/api\api_lib.c ****     size += vectors[i].len;
 1379              		.loc 1 1022 30 is_stmt 1
1022:C:/Users/stapi/OneDrive/Desktop/GD32VW553/GD32VW55X_Wifi_BLE_SDK/GD32VW55x_RELEASE_V1.0.2/MSDK/lwip/lwip-2.1.2/src/api\api_lib.c ****     size += vectors[i].len;
 1380              		.loc 1 1022 31 is_stmt 0
 1381 0090 8507     		addi	a5,a5,1
 1382              	.LVL156:
 1383              	.L102:
1022:C:/Users/stapi/OneDrive/Desktop/GD32VW553/GD32VW55X_Wifi_BLE_SDK/GD32VW55x_RELEASE_V1.0.2/MSDK/lwip/lwip-2.1.2/src/api\api_lib.c ****     size += vectors[i].len;
 1384              		.loc 1 1022 15 is_stmt 1
1022:C:/Users/stapi/OneDrive/Desktop/GD32VW553/GD32VW55X_Wifi_BLE_SDK/GD32VW55x_RELEASE_V1.0.2/MSDK/lwip/lwip-2.1.2/src/api\api_lib.c ****     size += vectors[i].len;
 1385              		.loc 1 1022 3 is_stmt 0
 1386 0092 E3C9C7FE 		blt	a5,a2,.L103
1029:C:/Users/stapi/OneDrive/Desktop/GD32VW553/GD32VW55X_Wifi_BLE_SDK/GD32VW55x_RELEASE_V1.0.2/MSDK/lwip/lwip-2.1.2/src/api\api_lib.c ****     return ERR_OK;
 1387              		.loc 1 1029 3 is_stmt 1
1029:C:/Users/stapi/OneDrive/Desktop/GD32VW553/GD32VW55X_Wifi_BLE_SDK/GD32VW55x_RELEASE_V1.0.2/MSDK/lwip/lwip-2.1.2/src/api\api_lib.c ****     return ERR_OK;
 1388              		.loc 1 1029 6 is_stmt 0
 1389 0096 19E4     		bne	s0,zero,.L104
 1390              	.LVL157:
 1391              	.L107:
1030:C:/Users/stapi/OneDrive/Desktop/GD32VW553/GD32VW55X_Wifi_BLE_SDK/GD32VW55x_RELEASE_V1.0.2/MSDK/lwip/lwip-2.1.2/src/api\api_lib.c ****   } else if (size > SSIZE_MAX) {
 1392              		.loc 1 1030 12
 1393 0098 0145     		li	a0,0
 1394              	.LVL158:
 1395              	.L101:
 1396              	.LBE26:
 1397              	.LBE25:
1078:C:/Users/stapi/OneDrive/Desktop/GD32VW553/GD32VW55X_Wifi_BLE_SDK/GD32VW55x_RELEASE_V1.0.2/MSDK/lwip/lwip-2.1.2/src/api\api_lib.c **** 
 1398              		.loc 1 1078 1
 1399 009a 0561     		addi	sp,sp,32
 1400              		.cfi_remember_state
 1401              		.cfi_def_cfa_offset 0
 1402 009c 17030000 		tail	__riscv_restore_3
 1402      67000300 
 1403              		.cfi_restore 18
 1404              		.cfi_restore 9
 1405              		.cfi_restore 8
 1406              		.cfi_restore 1
 1407              		.cfi_def_cfa_offset -16
 1408              	.LVL159:
 1409              	.L104:
 1410              		.cfi_restore_state
 1411              	.LBB29:
 1412              	.LBB28:
1031:C:/Users/stapi/OneDrive/Desktop/GD32VW553/GD32VW55X_Wifi_BLE_SDK/GD32VW55x_RELEASE_V1.0.2/MSDK/lwip/lwip-2.1.2/src/api\api_lib.c ****     ssize_t limited;
 1413              		.loc 1 1031 10 is_stmt 1
1031:C:/Users/stapi/OneDrive/Desktop/GD32VW553/GD32VW55X_Wifi_BLE_SDK/GD32VW55x_RELEASE_V1.0.2/MSDK/lwip/lwip-2.1.2/src/api\api_lib.c ****     ssize_t limited;
 1414              		.loc 1 1031 13 is_stmt 0
 1415 00a4 63570400 		bge	s0,zero,.L105
 1416              	.LBB27:
1032:C:/Users/stapi/OneDrive/Desktop/GD32VW553/GD32VW55X_Wifi_BLE_SDK/GD32VW55x_RELEASE_V1.0.2/MSDK/lwip/lwip-2.1.2/src/api\api_lib.c ****     /* this is required by the socket layer (cannot send full size_t range) */
 1417              		.loc 1 1032 5 is_stmt 1
1034:C:/Users/stapi/OneDrive/Desktop/GD32VW553/GD32VW55X_Wifi_BLE_SDK/GD32VW55x_RELEASE_V1.0.2/MSDK/lwip/lwip-2.1.2/src/api\api_lib.c ****       return ERR_VAL;
 1418              		.loc 1 1034 5
1034:C:/Users/stapi/OneDrive/Desktop/GD32VW553/GD32VW55X_Wifi_BLE_SDK/GD32VW55x_RELEASE_V1.0.2/MSDK/lwip/lwip-2.1.2/src/api\api_lib.c ****       return ERR_VAL;
 1419              		.loc 1 1034 8 is_stmt 0
 1420 00a8 BDC0     		beq	s1,zero,.L112
1039:C:/Users/stapi/OneDrive/Desktop/GD32VW553/GD32VW55X_Wifi_BLE_SDK/GD32VW55x_RELEASE_V1.0.2/MSDK/lwip/lwip-2.1.2/src/api\api_lib.c ****   }
 1421              		.loc 1 1039 10
 1422 00aa 37040080 		li	s0,-2147483648
 1423              	.LVL160:
 1424 00ae 1344F4FF 		xori	s0,s0,-1
 1425              	.L105:
 1426              	.LVL161:
 1427              	.LBE27:
1042:C:/Users/stapi/OneDrive/Desktop/GD32VW553/GD32VW55X_Wifi_BLE_SDK/GD32VW55x_RELEASE_V1.0.2/MSDK/lwip/lwip-2.1.2/src/api\api_lib.c ****   /* non-blocking write sends as much  */
 1428              		.loc 1 1042 25 is_stmt 1
1044:C:/Users/stapi/OneDrive/Desktop/GD32VW553/GD32VW55X_Wifi_BLE_SDK/GD32VW55x_RELEASE_V1.0.2/MSDK/lwip/lwip-2.1.2/src/api\api_lib.c ****   API_MSG_VAR_REF(msg).msg.w.vector = vectors;
 1429              		.loc 1 1044 3
1044:C:/Users/stapi/OneDrive/Desktop/GD32VW553/GD32VW55X_Wifi_BLE_SDK/GD32VW55x_RELEASE_V1.0.2/MSDK/lwip/lwip-2.1.2/src/api\api_lib.c ****   API_MSG_VAR_REF(msg).msg.w.vector = vectors;
 1430              		.loc 1 1044 29 is_stmt 0
 1431 00b2 2AC0     		sw	a0,0(sp)
1045:C:/Users/stapi/OneDrive/Desktop/GD32VW553/GD32VW55X_Wifi_BLE_SDK/GD32VW55x_RELEASE_V1.0.2/MSDK/lwip/lwip-2.1.2/src/api\api_lib.c ****   API_MSG_VAR_REF(msg).msg.w.vector_cnt = vectorcnt;
 1432              		.loc 1 1045 3 is_stmt 1
1064:C:/Users/stapi/OneDrive/Desktop/GD32VW553/GD32VW55X_Wifi_BLE_SDK/GD32VW55x_RELEASE_V1.0.2/MSDK/lwip/lwip-2.1.2/src/api\api_lib.c ****   if (err == ERR_OK) {
 1433              		.loc 1 1064 9 is_stmt 0
 1434 00b4 37050000 		lui	a0,%hi(lwip_netconn_do_write)
 1435              	.LVL162:
1045:C:/Users/stapi/OneDrive/Desktop/GD32VW553/GD32VW55X_Wifi_BLE_SDK/GD32VW55x_RELEASE_V1.0.2/MSDK/lwip/lwip-2.1.2/src/api\api_lib.c ****   API_MSG_VAR_REF(msg).msg.w.vector_cnt = vectorcnt;
 1436              		.loc 1 1045 37
 1437 00b8 2EC4     		sw	a1,8(sp)
1046:C:/Users/stapi/OneDrive/Desktop/GD32VW553/GD32VW55X_Wifi_BLE_SDK/GD32VW55x_RELEASE_V1.0.2/MSDK/lwip/lwip-2.1.2/src/api\api_lib.c ****   API_MSG_VAR_REF(msg).msg.w.vector_off = 0;
 1438              		.loc 1 1046 3 is_stmt 1
1064:C:/Users/stapi/OneDrive/Desktop/GD32VW553/GD32VW55X_Wifi_BLE_SDK/GD32VW55x_RELEASE_V1.0.2/MSDK/lwip/lwip-2.1.2/src/api\api_lib.c ****   if (err == ERR_OK) {
 1439              		.loc 1 1064 9 is_stmt 0
 1440 00ba 13050500 		addi	a0,a0,%lo(lwip_netconn_do_write)
 1441 00be 8A85     		mv	a1,sp
 1442              	.LVL163:
1046:C:/Users/stapi/OneDrive/Desktop/GD32VW553/GD32VW55X_Wifi_BLE_SDK/GD32VW55x_RELEASE_V1.0.2/MSDK/lwip/lwip-2.1.2/src/api\api_lib.c ****   API_MSG_VAR_REF(msg).msg.w.vector_off = 0;
 1443              		.loc 1 1046 41
 1444 00c0 2316C100 		sh	a2,12(sp)
1047:C:/Users/stapi/OneDrive/Desktop/GD32VW553/GD32VW55X_Wifi_BLE_SDK/GD32VW55x_RELEASE_V1.0.2/MSDK/lwip/lwip-2.1.2/src/api\api_lib.c ****   API_MSG_VAR_REF(msg).msg.w.apiflags = apiflags;
 1445              		.loc 1 1047 3 is_stmt 1
1047:C:/Users/stapi/OneDrive/Desktop/GD32VW553/GD32VW55X_Wifi_BLE_SDK/GD32VW55x_RELEASE_V1.0.2/MSDK/lwip/lwip-2.1.2/src/api\api_lib.c ****   API_MSG_VAR_REF(msg).msg.w.apiflags = apiflags;
 1446              		.loc 1 1047 41 is_stmt 0
 1447 00c4 02C8     		sw	zero,16(sp)
1048:C:/Users/stapi/OneDrive/Desktop/GD32VW553/GD32VW55X_Wifi_BLE_SDK/GD32VW55x_RELEASE_V1.0.2/MSDK/lwip/lwip-2.1.2/src/api\api_lib.c ****   API_MSG_VAR_REF(msg).msg.w.len = size;
 1448              		.loc 1 1048 3 is_stmt 1
1048:C:/Users/stapi/OneDrive/Desktop/GD32VW553/GD32VW55X_Wifi_BLE_SDK/GD32VW55x_RELEASE_V1.0.2/MSDK/lwip/lwip-2.1.2/src/api\api_lib.c ****   API_MSG_VAR_REF(msg).msg.w.len = size;
 1449              		.loc 1 1048 39 is_stmt 0
 1450 00c6 230ED100 		sb	a3,28(sp)
1049:C:/Users/stapi/OneDrive/Desktop/GD32VW553/GD32VW55X_Wifi_BLE_SDK/GD32VW55x_RELEASE_V1.0.2/MSDK/lwip/lwip-2.1.2/src/api\api_lib.c ****   API_MSG_VAR_REF(msg).msg.w.offset = 0;
 1451              		.loc 1 1049 3 is_stmt 1
1049:C:/Users/stapi/OneDrive/Desktop/GD32VW553/GD32VW55X_Wifi_BLE_SDK/GD32VW55x_RELEASE_V1.0.2/MSDK/lwip/lwip-2.1.2/src/api\api_lib.c ****   API_MSG_VAR_REF(msg).msg.w.offset = 0;
 1452              		.loc 1 1049 34 is_stmt 0
 1453 00ca 22CA     		sw	s0,20(sp)
1050:C:/Users/stapi/OneDrive/Desktop/GD32VW553/GD32VW55X_Wifi_BLE_SDK/GD32VW55x_RELEASE_V1.0.2/MSDK/lwip/lwip-2.1.2/src/api\api_lib.c **** #if LWIP_SO_SNDTIMEO
 1454              		.loc 1 1050 3 is_stmt 1
1050:C:/Users/stapi/OneDrive/Desktop/GD32VW553/GD32VW55X_Wifi_BLE_SDK/GD32VW55x_RELEASE_V1.0.2/MSDK/lwip/lwip-2.1.2/src/api\api_lib.c **** #if LWIP_SO_SNDTIMEO
 1455              		.loc 1 1050 37 is_stmt 0
 1456 00cc 02CC     		sw	zero,24(sp)
1064:C:/Users/stapi/OneDrive/Desktop/GD32VW553/GD32VW55X_Wifi_BLE_SDK/GD32VW55x_RELEASE_V1.0.2/MSDK/lwip/lwip-2.1.2/src/api\api_lib.c ****   if (err == ERR_OK) {
 1457              		.loc 1 1064 3 is_stmt 1
1064:C:/Users/stapi/OneDrive/Desktop/GD32VW553/GD32VW55X_Wifi_BLE_SDK/GD32VW55x_RELEASE_V1.0.2/MSDK/lwip/lwip-2.1.2/src/api\api_lib.c ****   if (err == ERR_OK) {
 1458              		.loc 1 1064 9 is_stmt 0
 1459 00ce 97000000 		call	netconn_apimsg
 1459      E7800000 
 1460              	.LVL164:
1065:C:/Users/stapi/OneDrive/Desktop/GD32VW553/GD32VW55X_Wifi_BLE_SDK/GD32VW55x_RELEASE_V1.0.2/MSDK/lwip/lwip-2.1.2/src/api\api_lib.c ****     if (bytes_written != NULL) {
 1461              		.loc 1 1065 3 is_stmt 1
1065:C:/Users/stapi/OneDrive/Desktop/GD32VW553/GD32VW55X_Wifi_BLE_SDK/GD32VW55x_RELEASE_V1.0.2/MSDK/lwip/lwip-2.1.2/src/api\api_lib.c ****     if (bytes_written != NULL) {
 1462              		.loc 1 1065 6 is_stmt 0
 1463 00d6 71F1     		bne	a0,zero,.L101
1066:C:/Users/stapi/OneDrive/Desktop/GD32VW553/GD32VW55X_Wifi_BLE_SDK/GD32VW55x_RELEASE_V1.0.2/MSDK/lwip/lwip-2.1.2/src/api\api_lib.c ****       *bytes_written = API_MSG_VAR_REF(msg).msg.w.offset;
 1464              		.loc 1 1066 5 is_stmt 1
1066:C:/Users/stapi/OneDrive/Desktop/GD32VW553/GD32VW55X_Wifi_BLE_SDK/GD32VW55x_RELEASE_V1.0.2/MSDK/lwip/lwip-2.1.2/src/api\api_lib.c ****       *bytes_written = API_MSG_VAR_REF(msg).msg.w.offset;
 1465              		.loc 1 1066 8 is_stmt 0
 1466 00d8 99C0     		beq	s1,zero,.L106
1067:C:/Users/stapi/OneDrive/Desktop/GD32VW553/GD32VW55X_Wifi_BLE_SDK/GD32VW55x_RELEASE_V1.0.2/MSDK/lwip/lwip-2.1.2/src/api\api_lib.c ****     }
 1467              		.loc 1 1067 7 is_stmt 1
1067:C:/Users/stapi/OneDrive/Desktop/GD32VW553/GD32VW55X_Wifi_BLE_SDK/GD32VW55x_RELEASE_V1.0.2/MSDK/lwip/lwip-2.1.2/src/api\api_lib.c ****     }
 1468              		.loc 1 1067 22 is_stmt 0
 1469 00da E247     		lw	a5,24(sp)
 1470 00dc 9CC0     		sw	a5,0(s1)
 1471              	.L106:
1071:C:/Users/stapi/OneDrive/Desktop/GD32VW553/GD32VW55X_Wifi_BLE_SDK/GD32VW55x_RELEASE_V1.0.2/MSDK/lwip/lwip-2.1.2/src/api\api_lib.c ****       LWIP_ASSERT("do_write failed to write all bytes", API_MSG_VAR_REF(msg).msg.w.offset == size);
 1472              		.loc 1 1071 5 is_stmt 1
1071:C:/Users/stapi/OneDrive/Desktop/GD32VW553/GD32VW55X_Wifi_BLE_SDK/GD32VW55x_RELEASE_V1.0.2/MSDK/lwip/lwip-2.1.2/src/api\api_lib.c ****       LWIP_ASSERT("do_write failed to write all bytes", API_MSG_VAR_REF(msg).msg.w.offset == size);
 1473              		.loc 1 1071 8 is_stmt 0
 1474 00de E31D09FA 		bne	s2,zero,.L107
1072:C:/Users/stapi/OneDrive/Desktop/GD32VW553/GD32VW55X_Wifi_BLE_SDK/GD32VW55x_RELEASE_V1.0.2/MSDK/lwip/lwip-2.1.2/src/api\api_lib.c ****     }
 1475              		.loc 1 1072 7 is_stmt 1
1072:C:/Users/stapi/OneDrive/Desktop/GD32VW553/GD32VW55X_Wifi_BLE_SDK/GD32VW55x_RELEASE_V1.0.2/MSDK/lwip/lwip-2.1.2/src/api\api_lib.c ****     }
 1476              		.loc 1 1072 7
 1477 00e2 E247     		lw	a5,24(sp)
 1478 00e4 E30AF4FA 		beq	s0,a5,.L107
1072:C:/Users/stapi/OneDrive/Desktop/GD32VW553/GD32VW55X_Wifi_BLE_SDK/GD32VW55x_RELEASE_V1.0.2/MSDK/lwip/lwip-2.1.2/src/api\api_lib.c ****     }
 1479              		.loc 1 1072 7
1072:C:/Users/stapi/OneDrive/Desktop/GD32VW553/GD32VW55X_Wifi_BLE_SDK/GD32VW55x_RELEASE_V1.0.2/MSDK/lwip/lwip-2.1.2/src/api\api_lib.c ****     }
 1480              		.loc 1 1072 7
 1481 00e8 B7060000 		lui	a3,%hi(.LC0)
 1482 00ec B7050000 		lui	a1,%hi(.LC19)
 1483 00f0 37050000 		lui	a0,%hi(.LC2)
 1484              	.LVL165:
 1485 00f4 93860600 		addi	a3,a3,%lo(.LC0)
 1486 00f8 13060043 		li	a2,1072
 1487 00fc 93850500 		addi	a1,a1,%lo(.LC19)
 1488 0100 13050500 		addi	a0,a0,%lo(.LC2)
 1489 0104 97000000 		call	printf
 1489      E7800000 
 1490              	.LVL166:
 1491              	.L108:
1072:C:/Users/stapi/OneDrive/Desktop/GD32VW553/GD32VW55X_Wifi_BLE_SDK/GD32VW55x_RELEASE_V1.0.2/MSDK/lwip/lwip-2.1.2/src/api\api_lib.c ****     }
 1492              		.loc 1 1072 7
1072:C:/Users/stapi/OneDrive/Desktop/GD32VW553/GD32VW55X_Wifi_BLE_SDK/GD32VW55x_RELEASE_V1.0.2/MSDK/lwip/lwip-2.1.2/src/api\api_lib.c ****     }
 1493              		.loc 1 1072 7
1072:C:/Users/stapi/OneDrive/Desktop/GD32VW553/GD32VW55X_Wifi_BLE_SDK/GD32VW55x_RELEASE_V1.0.2/MSDK/lwip/lwip-2.1.2/src/api\api_lib.c ****     }
 1494              		.loc 1 1072 7
 1495 010c 01A0     		j	.L108
 1496              	.LVL167:
 1497              	.L112:
1017:C:/Users/stapi/OneDrive/Desktop/GD32VW553/GD32VW55X_Wifi_BLE_SDK/GD32VW55x_RELEASE_V1.0.2/MSDK/lwip/lwip-2.1.2/src/api\api_lib.c ****   }
 1498              		.loc 1 1017 12 is_stmt 0
 1499 010e 6955     		li	a0,-6
 1500              	.LVL168:
 1501 0110 69B7     		j	.L101
 1502              	.LBE28:
 1503              	.LBE29:
 1504              		.cfi_endproc
 1505              	.LFE27:
 1507              		.section	.text.netconn_write_partly,"ax",@progbits
 1508              		.align	1
 1509              		.globl	netconn_write_partly
 1511              	netconn_write_partly:
 1512              	.LFB26:
 976:C:/Users/stapi/OneDrive/Desktop/GD32VW553/GD32VW55X_Wifi_BLE_SDK/GD32VW55x_RELEASE_V1.0.2/MSDK/lwip/lwip-2.1.2/src/api\api_lib.c ****   struct netvector vector;
 1513              		.loc 1 976 1 is_stmt 1
 1514              		.cfi_startproc
 1515              	.LVL169:
 1516 0000 17030000 		call	t0,__riscv_save_0
 1516      E7020300 
 1517              		.cfi_offset 1, -4
 1518              		.cfi_def_cfa_offset 16
 977:C:/Users/stapi/OneDrive/Desktop/GD32VW553/GD32VW55X_Wifi_BLE_SDK/GD32VW55x_RELEASE_V1.0.2/MSDK/lwip/lwip-2.1.2/src/api\api_lib.c ****   vector.ptr = dataptr;
 1519              		.loc 1 977 3
 978:C:/Users/stapi/OneDrive/Desktop/GD32VW553/GD32VW55X_Wifi_BLE_SDK/GD32VW55x_RELEASE_V1.0.2/MSDK/lwip/lwip-2.1.2/src/api\api_lib.c ****   vector.len = size;
 1520              		.loc 1 978 3
 976:C:/Users/stapi/OneDrive/Desktop/GD32VW553/GD32VW55X_Wifi_BLE_SDK/GD32VW55x_RELEASE_V1.0.2/MSDK/lwip/lwip-2.1.2/src/api\api_lib.c ****   struct netvector vector;
 1521              		.loc 1 976 1 is_stmt 0
 1522 0008 4111     		addi	sp,sp,-16
 1523              		.cfi_def_cfa_offset 32
 978:C:/Users/stapi/OneDrive/Desktop/GD32VW553/GD32VW55X_Wifi_BLE_SDK/GD32VW55x_RELEASE_V1.0.2/MSDK/lwip/lwip-2.1.2/src/api\api_lib.c ****   vector.len = size;
 1524              		.loc 1 978 14
 1525 000a 2EC4     		sw	a1,8(sp)
 979:C:/Users/stapi/OneDrive/Desktop/GD32VW553/GD32VW55X_Wifi_BLE_SDK/GD32VW55x_RELEASE_V1.0.2/MSDK/lwip/lwip-2.1.2/src/api\api_lib.c ****   return netconn_write_vectors_partly(conn, &vector, 1, apiflags, bytes_written);
 1526              		.loc 1 979 3 is_stmt 1
 979:C:/Users/stapi/OneDrive/Desktop/GD32VW553/GD32VW55X_Wifi_BLE_SDK/GD32VW55x_RELEASE_V1.0.2/MSDK/lwip/lwip-2.1.2/src/api\api_lib.c ****   return netconn_write_vectors_partly(conn, &vector, 1, apiflags, bytes_written);
 1527              		.loc 1 979 14 is_stmt 0
 1528 000c 32C6     		sw	a2,12(sp)
 980:C:/Users/stapi/OneDrive/Desktop/GD32VW553/GD32VW55X_Wifi_BLE_SDK/GD32VW55x_RELEASE_V1.0.2/MSDK/lwip/lwip-2.1.2/src/api\api_lib.c **** }
 1529              		.loc 1 980 3 is_stmt 1
 980:C:/Users/stapi/OneDrive/Desktop/GD32VW553/GD32VW55X_Wifi_BLE_SDK/GD32VW55x_RELEASE_V1.0.2/MSDK/lwip/lwip-2.1.2/src/api\api_lib.c **** }
 1530              		.loc 1 980 10 is_stmt 0
 1531 000e 2C00     		addi	a1,sp,8
 1532              	.LVL170:
 1533 0010 0546     		li	a2,1
 1534              	.LVL171:
 1535 0012 97000000 		call	netconn_write_vectors_partly
 1535      E7800000 
 1536              	.LVL172:
 981:C:/Users/stapi/OneDrive/Desktop/GD32VW553/GD32VW55X_Wifi_BLE_SDK/GD32VW55x_RELEASE_V1.0.2/MSDK/lwip/lwip-2.1.2/src/api\api_lib.c **** 
 1537              		.loc 1 981 1
 1538 001a 4101     		addi	sp,sp,16
 1539              		.cfi_def_cfa_offset 0
 1540 001c 17030000 		tail	__riscv_restore_0
 1540      67000300 
 1541              		.cfi_restore 1
 1542              		.cfi_def_cfa_offset -16
 1543              		.cfi_endproc
 1544              	.LFE26:
 1546              		.section	.text.netconn_close,"ax",@progbits
 1547              		.align	1
 1548              		.globl	netconn_close
 1550              	netconn_close:
 1551              	.LFB29:
1116:C:/Users/stapi/OneDrive/Desktop/GD32VW553/GD32VW55X_Wifi_BLE_SDK/GD32VW55x_RELEASE_V1.0.2/MSDK/lwip/lwip-2.1.2/src/api\api_lib.c **** 
1117:C:/Users/stapi/OneDrive/Desktop/GD32VW553/GD32VW55X_Wifi_BLE_SDK/GD32VW55x_RELEASE_V1.0.2/MSDK/lwip/lwip-2.1.2/src/api\api_lib.c **** /**
1118:C:/Users/stapi/OneDrive/Desktop/GD32VW553/GD32VW55X_Wifi_BLE_SDK/GD32VW55x_RELEASE_V1.0.2/MSDK/lwip/lwip-2.1.2/src/api\api_lib.c ****  * @ingroup netconn_tcp
1119:C:/Users/stapi/OneDrive/Desktop/GD32VW553/GD32VW55X_Wifi_BLE_SDK/GD32VW55x_RELEASE_V1.0.2/MSDK/lwip/lwip-2.1.2/src/api\api_lib.c ****  * Close a TCP netconn (doesn't delete it).
1120:C:/Users/stapi/OneDrive/Desktop/GD32VW553/GD32VW55X_Wifi_BLE_SDK/GD32VW55x_RELEASE_V1.0.2/MSDK/lwip/lwip-2.1.2/src/api\api_lib.c ****  *
1121:C:/Users/stapi/OneDrive/Desktop/GD32VW553/GD32VW55X_Wifi_BLE_SDK/GD32VW55x_RELEASE_V1.0.2/MSDK/lwip/lwip-2.1.2/src/api\api_lib.c ****  * @param conn the TCP netconn to close
1122:C:/Users/stapi/OneDrive/Desktop/GD32VW553/GD32VW55X_Wifi_BLE_SDK/GD32VW55x_RELEASE_V1.0.2/MSDK/lwip/lwip-2.1.2/src/api\api_lib.c ****  * @return ERR_OK if the netconn was closed, any other err_t on error
1123:C:/Users/stapi/OneDrive/Desktop/GD32VW553/GD32VW55X_Wifi_BLE_SDK/GD32VW55x_RELEASE_V1.0.2/MSDK/lwip/lwip-2.1.2/src/api\api_lib.c ****  */
1124:C:/Users/stapi/OneDrive/Desktop/GD32VW553/GD32VW55X_Wifi_BLE_SDK/GD32VW55x_RELEASE_V1.0.2/MSDK/lwip/lwip-2.1.2/src/api\api_lib.c **** err_t
1125:C:/Users/stapi/OneDrive/Desktop/GD32VW553/GD32VW55X_Wifi_BLE_SDK/GD32VW55x_RELEASE_V1.0.2/MSDK/lwip/lwip-2.1.2/src/api\api_lib.c **** netconn_close(struct netconn *conn)
1126:C:/Users/stapi/OneDrive/Desktop/GD32VW553/GD32VW55X_Wifi_BLE_SDK/GD32VW55x_RELEASE_V1.0.2/MSDK/lwip/lwip-2.1.2/src/api\api_lib.c **** {
 1552              		.loc 1 1126 1 is_stmt 1
 1553              		.cfi_startproc
 1554              	.LVL173:
1127:C:/Users/stapi/OneDrive/Desktop/GD32VW553/GD32VW55X_Wifi_BLE_SDK/GD32VW55x_RELEASE_V1.0.2/MSDK/lwip/lwip-2.1.2/src/api\api_lib.c ****   /* shutting down both ends is the same as closing */
1128:C:/Users/stapi/OneDrive/Desktop/GD32VW553/GD32VW55X_Wifi_BLE_SDK/GD32VW55x_RELEASE_V1.0.2/MSDK/lwip/lwip-2.1.2/src/api\api_lib.c ****   return netconn_close_shutdown(conn, NETCONN_SHUT_RDWR);
 1555              		.loc 1 1128 3
 1556              		.loc 1 1128 10 is_stmt 0
 1557 0000 8D45     		li	a1,3
 1558 0002 17030000 		tail	netconn_close_shutdown
 1558      67000300 
 1559              	.LVL174:
 1560              		.cfi_endproc
 1561              	.LFE29:
 1563              		.section	.text.netconn_err,"ax",@progbits
 1564              		.align	1
 1565              		.globl	netconn_err
 1567              	netconn_err:
 1568              	.LFB30:
1129:C:/Users/stapi/OneDrive/Desktop/GD32VW553/GD32VW55X_Wifi_BLE_SDK/GD32VW55x_RELEASE_V1.0.2/MSDK/lwip/lwip-2.1.2/src/api\api_lib.c **** }
1130:C:/Users/stapi/OneDrive/Desktop/GD32VW553/GD32VW55X_Wifi_BLE_SDK/GD32VW55x_RELEASE_V1.0.2/MSDK/lwip/lwip-2.1.2/src/api\api_lib.c **** 
1131:C:/Users/stapi/OneDrive/Desktop/GD32VW553/GD32VW55X_Wifi_BLE_SDK/GD32VW55x_RELEASE_V1.0.2/MSDK/lwip/lwip-2.1.2/src/api\api_lib.c **** /**
1132:C:/Users/stapi/OneDrive/Desktop/GD32VW553/GD32VW55X_Wifi_BLE_SDK/GD32VW55x_RELEASE_V1.0.2/MSDK/lwip/lwip-2.1.2/src/api\api_lib.c ****  * @ingroup netconn_common
1133:C:/Users/stapi/OneDrive/Desktop/GD32VW553/GD32VW55X_Wifi_BLE_SDK/GD32VW55x_RELEASE_V1.0.2/MSDK/lwip/lwip-2.1.2/src/api\api_lib.c ****  * Get and reset pending error on a netconn
1134:C:/Users/stapi/OneDrive/Desktop/GD32VW553/GD32VW55X_Wifi_BLE_SDK/GD32VW55x_RELEASE_V1.0.2/MSDK/lwip/lwip-2.1.2/src/api\api_lib.c ****  *
1135:C:/Users/stapi/OneDrive/Desktop/GD32VW553/GD32VW55X_Wifi_BLE_SDK/GD32VW55x_RELEASE_V1.0.2/MSDK/lwip/lwip-2.1.2/src/api\api_lib.c ****  * @param conn the netconn to get the error from
1136:C:/Users/stapi/OneDrive/Desktop/GD32VW553/GD32VW55X_Wifi_BLE_SDK/GD32VW55x_RELEASE_V1.0.2/MSDK/lwip/lwip-2.1.2/src/api\api_lib.c ****  * @return and pending error or ERR_OK if no error was pending
1137:C:/Users/stapi/OneDrive/Desktop/GD32VW553/GD32VW55X_Wifi_BLE_SDK/GD32VW55x_RELEASE_V1.0.2/MSDK/lwip/lwip-2.1.2/src/api\api_lib.c ****  */
1138:C:/Users/stapi/OneDrive/Desktop/GD32VW553/GD32VW55X_Wifi_BLE_SDK/GD32VW55x_RELEASE_V1.0.2/MSDK/lwip/lwip-2.1.2/src/api\api_lib.c **** err_t
1139:C:/Users/stapi/OneDrive/Desktop/GD32VW553/GD32VW55X_Wifi_BLE_SDK/GD32VW55x_RELEASE_V1.0.2/MSDK/lwip/lwip-2.1.2/src/api\api_lib.c **** netconn_err(struct netconn *conn)
1140:C:/Users/stapi/OneDrive/Desktop/GD32VW553/GD32VW55X_Wifi_BLE_SDK/GD32VW55x_RELEASE_V1.0.2/MSDK/lwip/lwip-2.1.2/src/api\api_lib.c **** {
 1569              		.loc 1 1140 1 is_stmt 1
 1570              		.cfi_startproc
 1571              	.LVL175:
1141:C:/Users/stapi/OneDrive/Desktop/GD32VW553/GD32VW55X_Wifi_BLE_SDK/GD32VW55x_RELEASE_V1.0.2/MSDK/lwip/lwip-2.1.2/src/api\api_lib.c ****   err_t err;
 1572              		.loc 1 1141 3
1142:C:/Users/stapi/OneDrive/Desktop/GD32VW553/GD32VW55X_Wifi_BLE_SDK/GD32VW55x_RELEASE_V1.0.2/MSDK/lwip/lwip-2.1.2/src/api\api_lib.c ****   SYS_ARCH_DECL_PROTECT(lev);
 1573              		.loc 1 1142 29
1143:C:/Users/stapi/OneDrive/Desktop/GD32VW553/GD32VW55X_Wifi_BLE_SDK/GD32VW55x_RELEASE_V1.0.2/MSDK/lwip/lwip-2.1.2/src/api\api_lib.c ****   if (conn == NULL) {
 1574              		.loc 1 1143 3
 1575              		.loc 1 1143 6 is_stmt 0
 1576 0000 15C9     		beq	a0,zero,.L124
1140:C:/Users/stapi/OneDrive/Desktop/GD32VW553/GD32VW55X_Wifi_BLE_SDK/GD32VW55x_RELEASE_V1.0.2/MSDK/lwip/lwip-2.1.2/src/api\api_lib.c ****   err_t err;
 1577              		.loc 1 1140 1
 1578 0002 17030000 		call	t0,__riscv_save_1
 1578      E7020300 
 1579              		.cfi_offset 8, -8
 1580              		.cfi_offset 1, -4
 1581              		.cfi_def_cfa_offset 16
 1582 000a 4111     		addi	sp,sp,-16
 1583              		.cfi_def_cfa_offset 32
 1584 000c 2A84     		mv	s0,a0
 1585              	.LVL176:
 1586              	.LBB32:
 1587              	.LBB33:
1144:C:/Users/stapi/OneDrive/Desktop/GD32VW553/GD32VW55X_Wifi_BLE_SDK/GD32VW55x_RELEASE_V1.0.2/MSDK/lwip/lwip-2.1.2/src/api\api_lib.c ****     return ERR_OK;
1145:C:/Users/stapi/OneDrive/Desktop/GD32VW553/GD32VW55X_Wifi_BLE_SDK/GD32VW55x_RELEASE_V1.0.2/MSDK/lwip/lwip-2.1.2/src/api\api_lib.c ****   }
1146:C:/Users/stapi/OneDrive/Desktop/GD32VW553/GD32VW55X_Wifi_BLE_SDK/GD32VW55x_RELEASE_V1.0.2/MSDK/lwip/lwip-2.1.2/src/api\api_lib.c ****   SYS_ARCH_PROTECT(lev);
 1588              		.loc 1 1146 3 is_stmt 1
 1589 000e 97000000 		call	sys_enter_critical
 1589      E7800000 
 1590              	.LVL177:
1147:C:/Users/stapi/OneDrive/Desktop/GD32VW553/GD32VW55X_Wifi_BLE_SDK/GD32VW55x_RELEASE_V1.0.2/MSDK/lwip/lwip-2.1.2/src/api\api_lib.c ****   err = conn->pending_err;
 1591              		.loc 1 1147 3
 1592              		.loc 1 1147 7 is_stmt 0
 1593 0016 0305C400 		lb	a0,12(s0)
1148:C:/Users/stapi/OneDrive/Desktop/GD32VW553/GD32VW55X_Wifi_BLE_SDK/GD32VW55x_RELEASE_V1.0.2/MSDK/lwip/lwip-2.1.2/src/api\api_lib.c ****   conn->pending_err = ERR_OK;
 1594              		.loc 1 1148 21
 1595 001a 23060400 		sb	zero,12(s0)
1147:C:/Users/stapi/OneDrive/Desktop/GD32VW553/GD32VW55X_Wifi_BLE_SDK/GD32VW55x_RELEASE_V1.0.2/MSDK/lwip/lwip-2.1.2/src/api\api_lib.c ****   err = conn->pending_err;
 1596              		.loc 1 1147 7
 1597 001e 2AC6     		sw	a0,12(sp)
 1598              	.LVL178:
 1599              		.loc 1 1148 3 is_stmt 1
1149:C:/Users/stapi/OneDrive/Desktop/GD32VW553/GD32VW55X_Wifi_BLE_SDK/GD32VW55x_RELEASE_V1.0.2/MSDK/lwip/lwip-2.1.2/src/api\api_lib.c ****   SYS_ARCH_UNPROTECT(lev);
 1600              		.loc 1 1149 3
 1601 0020 97000000 		call	sys_exit_critical
 1601      E7800000 
 1602              	.LVL179:
1150:C:/Users/stapi/OneDrive/Desktop/GD32VW553/GD32VW55X_Wifi_BLE_SDK/GD32VW55x_RELEASE_V1.0.2/MSDK/lwip/lwip-2.1.2/src/api\api_lib.c ****   return err;
 1603              		.loc 1 1150 3
 1604 0028 3245     		lw	a0,12(sp)
 1605              	.LBE33:
 1606              	.LBE32:
1151:C:/Users/stapi/OneDrive/Desktop/GD32VW553/GD32VW55X_Wifi_BLE_SDK/GD32VW55x_RELEASE_V1.0.2/MSDK/lwip/lwip-2.1.2/src/api\api_lib.c **** }
 1607              		.loc 1 1151 1 is_stmt 0
 1608 002a 4101     		addi	sp,sp,16
 1609              		.cfi_def_cfa_offset 0
 1610 002c 17030000 		tail	__riscv_restore_1
 1610      67000300 
 1611              		.cfi_restore 8
 1612              		.cfi_restore 1
 1613              		.cfi_def_cfa_offset -16
 1614              	.LVL180:
 1615              	.L124:
 1616              		.cfi_def_cfa_offset 0
1144:C:/Users/stapi/OneDrive/Desktop/GD32VW553/GD32VW55X_Wifi_BLE_SDK/GD32VW55x_RELEASE_V1.0.2/MSDK/lwip/lwip-2.1.2/src/api\api_lib.c ****   }
 1617              		.loc 1 1144 12
 1618 0034 0145     		li	a0,0
 1619              	.LVL181:
 1620              		.loc 1 1151 1
 1621 0036 8280     		ret
 1622              		.cfi_endproc
 1623              	.LFE30:
 1625              		.section	.rodata.netconn_accept.str1.4,"aMS",@progbits,1
 1626              		.align	2
 1627              	.LC20:
 1628 0000 6E657463 		.string	"netconn_accept: invalid pointer"
 1628      6F6E6E5F 
 1628      61636365 
 1628      70743A20 
 1628      696E7661 
 1629              		.align	2
 1630              	.LC21:
 1631 0020 6E657463 		.string	"netconn_accept: invalid conn"
 1631      6F6E6E5F 
 1631      61636365 
 1631      70743A20 
 1631      696E7661 
 1632              		.section	.text.netconn_accept,"ax",@progbits
 1633              		.align	1
 1634              		.globl	netconn_accept
 1636              	netconn_accept:
 1637              	.LFB14:
 472:C:/Users/stapi/OneDrive/Desktop/GD32VW553/GD32VW55X_Wifi_BLE_SDK/GD32VW55x_RELEASE_V1.0.2/MSDK/lwip/lwip-2.1.2/src/api\api_lib.c **** #if LWIP_TCP
 1638              		.loc 1 472 1 is_stmt 1
 1639              		.cfi_startproc
 1640              	.LVL182:
 1641 0000 17030000 		call	t0,__riscv_save_3
 1641      E7020300 
 1642              		.cfi_offset 18, -16
 1643              		.cfi_offset 9, -12
 1644              		.cfi_offset 8, -8
 1645              		.cfi_offset 1, -4
 1646              		.cfi_def_cfa_offset 16
 474:C:/Users/stapi/OneDrive/Desktop/GD32VW553/GD32VW55X_Wifi_BLE_SDK/GD32VW55x_RELEASE_V1.0.2/MSDK/lwip/lwip-2.1.2/src/api\api_lib.c ****   void *accept_ptr;
 1647              		.loc 1 474 3
 475:C:/Users/stapi/OneDrive/Desktop/GD32VW553/GD32VW55X_Wifi_BLE_SDK/GD32VW55x_RELEASE_V1.0.2/MSDK/lwip/lwip-2.1.2/src/api\api_lib.c ****   struct netconn *newconn;
 1648              		.loc 1 475 3
 476:C:/Users/stapi/OneDrive/Desktop/GD32VW553/GD32VW55X_Wifi_BLE_SDK/GD32VW55x_RELEASE_V1.0.2/MSDK/lwip/lwip-2.1.2/src/api\api_lib.c **** #if TCP_LISTEN_BACKLOG
 1649              		.loc 1 476 3
 481:C:/Users/stapi/OneDrive/Desktop/GD32VW553/GD32VW55X_Wifi_BLE_SDK/GD32VW55x_RELEASE_V1.0.2/MSDK/lwip/lwip-2.1.2/src/api\api_lib.c ****   *new_conn = NULL;
 1650              		.loc 1 481 3
 481:C:/Users/stapi/OneDrive/Desktop/GD32VW553/GD32VW55X_Wifi_BLE_SDK/GD32VW55x_RELEASE_V1.0.2/MSDK/lwip/lwip-2.1.2/src/api\api_lib.c ****   *new_conn = NULL;
 1651              		.loc 1 481 3
 472:C:/Users/stapi/OneDrive/Desktop/GD32VW553/GD32VW55X_Wifi_BLE_SDK/GD32VW55x_RELEASE_V1.0.2/MSDK/lwip/lwip-2.1.2/src/api\api_lib.c **** #if LWIP_TCP
 1652              		.loc 1 472 1 is_stmt 0
 1653 0008 4111     		addi	sp,sp,-16
 1654              		.cfi_def_cfa_offset 32
 481:C:/Users/stapi/OneDrive/Desktop/GD32VW553/GD32VW55X_Wifi_BLE_SDK/GD32VW55x_RELEASE_V1.0.2/MSDK/lwip/lwip-2.1.2/src/api\api_lib.c ****   *new_conn = NULL;
 1655              		.loc 1 481 3
 1656 000a 85E5     		bne	a1,zero,.L130
 481:C:/Users/stapi/OneDrive/Desktop/GD32VW553/GD32VW55X_Wifi_BLE_SDK/GD32VW55x_RELEASE_V1.0.2/MSDK/lwip/lwip-2.1.2/src/api\api_lib.c ****   *new_conn = NULL;
 1657              		.loc 1 481 3 is_stmt 1 discriminator 1
 481:C:/Users/stapi/OneDrive/Desktop/GD32VW553/GD32VW55X_Wifi_BLE_SDK/GD32VW55x_RELEASE_V1.0.2/MSDK/lwip/lwip-2.1.2/src/api\api_lib.c ****   *new_conn = NULL;
 1658              		.loc 1 481 3 discriminator 1
 1659 000c B7060000 		lui	a3,%hi(.LC0)
 1660 0010 B7050000 		lui	a1,%hi(.LC20)
 1661              	.LVL183:
 1662 0014 37050000 		lui	a0,%hi(.LC2)
 1663              	.LVL184:
 1664 0018 93860600 		addi	a3,a3,%lo(.LC0)
 1665 001c 1306101E 		li	a2,481
 1666 0020 93850500 		addi	a1,a1,%lo(.LC20)
 1667 0024 13050500 		addi	a0,a0,%lo(.LC2)
 1668 0028 97000000 		call	printf
 1668      E7800000 
 1669              	.LVL185:
 1670              	.L131:
 481:C:/Users/stapi/OneDrive/Desktop/GD32VW553/GD32VW55X_Wifi_BLE_SDK/GD32VW55x_RELEASE_V1.0.2/MSDK/lwip/lwip-2.1.2/src/api\api_lib.c ****   *new_conn = NULL;
 1671              		.loc 1 481 3 discriminator 1
 481:C:/Users/stapi/OneDrive/Desktop/GD32VW553/GD32VW55X_Wifi_BLE_SDK/GD32VW55x_RELEASE_V1.0.2/MSDK/lwip/lwip-2.1.2/src/api\api_lib.c ****   *new_conn = NULL;
 1672              		.loc 1 481 3 discriminator 1
 481:C:/Users/stapi/OneDrive/Desktop/GD32VW553/GD32VW55X_Wifi_BLE_SDK/GD32VW55x_RELEASE_V1.0.2/MSDK/lwip/lwip-2.1.2/src/api\api_lib.c ****   *new_conn = NULL;
 1673              		.loc 1 481 3 discriminator 1
 1674 0030 01A0     		j	.L131
 1675              	.LVL186:
 1676              	.L130:
 482:C:/Users/stapi/OneDrive/Desktop/GD32VW553/GD32VW55X_Wifi_BLE_SDK/GD32VW55x_RELEASE_V1.0.2/MSDK/lwip/lwip-2.1.2/src/api\api_lib.c ****   LWIP_ERROR("netconn_accept: invalid conn",       (conn != NULL),                      return ERR_
 1677              		.loc 1 482 13 is_stmt 0 discriminator 2
 1678 0032 23A00500 		sw	zero,0(a1)
 1679 0036 AA84     		mv	s1,a0
 1680 0038 2E89     		mv	s2,a1
 481:C:/Users/stapi/OneDrive/Desktop/GD32VW553/GD32VW55X_Wifi_BLE_SDK/GD32VW55x_RELEASE_V1.0.2/MSDK/lwip/lwip-2.1.2/src/api\api_lib.c ****   *new_conn = NULL;
 1681              		.loc 1 481 3 is_stmt 1 discriminator 2
 481:C:/Users/stapi/OneDrive/Desktop/GD32VW553/GD32VW55X_Wifi_BLE_SDK/GD32VW55x_RELEASE_V1.0.2/MSDK/lwip/lwip-2.1.2/src/api\api_lib.c ****   *new_conn = NULL;
 1682              		.loc 1 481 3 discriminator 2
 482:C:/Users/stapi/OneDrive/Desktop/GD32VW553/GD32VW55X_Wifi_BLE_SDK/GD32VW55x_RELEASE_V1.0.2/MSDK/lwip/lwip-2.1.2/src/api\api_lib.c ****   LWIP_ERROR("netconn_accept: invalid conn",       (conn != NULL),                      return ERR_
 1683              		.loc 1 482 3 discriminator 2
 483:C:/Users/stapi/OneDrive/Desktop/GD32VW553/GD32VW55X_Wifi_BLE_SDK/GD32VW55x_RELEASE_V1.0.2/MSDK/lwip/lwip-2.1.2/src/api\api_lib.c **** 
 1684              		.loc 1 483 3 discriminator 2
 483:C:/Users/stapi/OneDrive/Desktop/GD32VW553/GD32VW55X_Wifi_BLE_SDK/GD32VW55x_RELEASE_V1.0.2/MSDK/lwip/lwip-2.1.2/src/api\api_lib.c **** 
 1685              		.loc 1 483 3 discriminator 2
 1686 003a 05E5     		bne	a0,zero,.L132
 1687              	.LVL187:
 483:C:/Users/stapi/OneDrive/Desktop/GD32VW553/GD32VW55X_Wifi_BLE_SDK/GD32VW55x_RELEASE_V1.0.2/MSDK/lwip/lwip-2.1.2/src/api\api_lib.c **** 
 1688              		.loc 1 483 3 discriminator 1
 483:C:/Users/stapi/OneDrive/Desktop/GD32VW553/GD32VW55X_Wifi_BLE_SDK/GD32VW55x_RELEASE_V1.0.2/MSDK/lwip/lwip-2.1.2/src/api\api_lib.c **** 
 1689              		.loc 1 483 3 discriminator 1
 1690 003c B7060000 		lui	a3,%hi(.LC0)
 1691 0040 B7050000 		lui	a1,%hi(.LC21)
 1692              	.LVL188:
 1693 0044 37050000 		lui	a0,%hi(.LC2)
 1694 0048 93860600 		addi	a3,a3,%lo(.LC0)
 1695 004c 1306301E 		li	a2,483
 1696 0050 93850500 		addi	a1,a1,%lo(.LC21)
 1697 0054 13050500 		addi	a0,a0,%lo(.LC2)
 1698 0058 97000000 		call	printf
 1698      E7800000 
 1699              	.LVL189:
 1700              	.L133:
 483:C:/Users/stapi/OneDrive/Desktop/GD32VW553/GD32VW55X_Wifi_BLE_SDK/GD32VW55x_RELEASE_V1.0.2/MSDK/lwip/lwip-2.1.2/src/api\api_lib.c **** 
 1701              		.loc 1 483 3 discriminator 2
 483:C:/Users/stapi/OneDrive/Desktop/GD32VW553/GD32VW55X_Wifi_BLE_SDK/GD32VW55x_RELEASE_V1.0.2/MSDK/lwip/lwip-2.1.2/src/api\api_lib.c **** 
 1702              		.loc 1 483 3 discriminator 2
 483:C:/Users/stapi/OneDrive/Desktop/GD32VW553/GD32VW55X_Wifi_BLE_SDK/GD32VW55x_RELEASE_V1.0.2/MSDK/lwip/lwip-2.1.2/src/api\api_lib.c **** 
 1703              		.loc 1 483 3 discriminator 2
 1704 0060 01A0     		j	.L133
 1705              	.LVL190:
 1706              	.L132:
 483:C:/Users/stapi/OneDrive/Desktop/GD32VW553/GD32VW55X_Wifi_BLE_SDK/GD32VW55x_RELEASE_V1.0.2/MSDK/lwip/lwip-2.1.2/src/api\api_lib.c **** 
 1707              		.loc 1 483 3 discriminator 2
 483:C:/Users/stapi/OneDrive/Desktop/GD32VW553/GD32VW55X_Wifi_BLE_SDK/GD32VW55x_RELEASE_V1.0.2/MSDK/lwip/lwip-2.1.2/src/api\api_lib.c **** 
 1708              		.loc 1 483 3 discriminator 2
 488:C:/Users/stapi/OneDrive/Desktop/GD32VW553/GD32VW55X_Wifi_BLE_SDK/GD32VW55x_RELEASE_V1.0.2/MSDK/lwip/lwip-2.1.2/src/api\api_lib.c ****   if (err != ERR_OK) {
 1709              		.loc 1 488 3 discriminator 2
 488:C:/Users/stapi/OneDrive/Desktop/GD32VW553/GD32VW55X_Wifi_BLE_SDK/GD32VW55x_RELEASE_V1.0.2/MSDK/lwip/lwip-2.1.2/src/api\api_lib.c ****   if (err != ERR_OK) {
 1710              		.loc 1 488 9 is_stmt 0 discriminator 2
 1711 0062 97000000 		call	netconn_err
 1711      E7800000 
 1712              	.LVL191:
 488:C:/Users/stapi/OneDrive/Desktop/GD32VW553/GD32VW55X_Wifi_BLE_SDK/GD32VW55x_RELEASE_V1.0.2/MSDK/lwip/lwip-2.1.2/src/api\api_lib.c ****   if (err != ERR_OK) {
 1713              		.loc 1 488 7 discriminator 2
 1714 006a A305A100 		sb	a0,11(sp)
 489:C:/Users/stapi/OneDrive/Desktop/GD32VW553/GD32VW55X_Wifi_BLE_SDK/GD32VW55x_RELEASE_V1.0.2/MSDK/lwip/lwip-2.1.2/src/api\api_lib.c ****     /* return pending error */
 1715              		.loc 1 489 3 is_stmt 1 discriminator 2
 488:C:/Users/stapi/OneDrive/Desktop/GD32VW553/GD32VW55X_Wifi_BLE_SDK/GD32VW55x_RELEASE_V1.0.2/MSDK/lwip/lwip-2.1.2/src/api\api_lib.c ****   if (err != ERR_OK) {
 1716              		.loc 1 488 9 is_stmt 0 discriminator 2
 1717 006e 2A84     		mv	s0,a0
 489:C:/Users/stapi/OneDrive/Desktop/GD32VW553/GD32VW55X_Wifi_BLE_SDK/GD32VW55x_RELEASE_V1.0.2/MSDK/lwip/lwip-2.1.2/src/api\api_lib.c ****     /* return pending error */
 1718              		.loc 1 489 6 discriminator 2
 1719 0070 01E5     		bne	a0,zero,.L134
 493:C:/Users/stapi/OneDrive/Desktop/GD32VW553/GD32VW55X_Wifi_BLE_SDK/GD32VW55x_RELEASE_V1.0.2/MSDK/lwip/lwip-2.1.2/src/api\api_lib.c ****     /* don't accept if closed: this might block the application task
 1720              		.loc 1 493 3 is_stmt 1
 493:C:/Users/stapi/OneDrive/Desktop/GD32VW553/GD32VW55X_Wifi_BLE_SDK/GD32VW55x_RELEASE_V1.0.2/MSDK/lwip/lwip-2.1.2/src/api\api_lib.c ****     /* don't accept if closed: this might block the application task
 1721              		.loc 1 493 6 is_stmt 0
 1722 0072 9C4C     		lw	a5,24(s1)
 1723 0074 81EB     		bne	a5,zero,.L135
 1724              	.L136:
 496:C:/Users/stapi/OneDrive/Desktop/GD32VW553/GD32VW55X_Wifi_BLE_SDK/GD32VW55x_RELEASE_V1.0.2/MSDK/lwip/lwip-2.1.2/src/api\api_lib.c ****   }
 1725              		.loc 1 496 12
 1726 0076 4554     		li	s0,-15
 1727              	.L134:
 560:C:/Users/stapi/OneDrive/Desktop/GD32VW553/GD32VW55X_Wifi_BLE_SDK/GD32VW55x_RELEASE_V1.0.2/MSDK/lwip/lwip-2.1.2/src/api\api_lib.c **** 
 1728              		.loc 1 560 1
 1729 0078 2285     		mv	a0,s0
 1730 007a 4101     		addi	sp,sp,16
 1731              		.cfi_remember_state
 1732              		.cfi_def_cfa_offset 0
 1733 007c 17030000 		tail	__riscv_restore_3
 1733      67000300 
 1734              		.cfi_restore 18
 1735              		.cfi_restore 9
 1736              		.cfi_restore 8
 1737              		.cfi_restore 1
 1738              		.cfi_def_cfa_offset -16
 1739              	.L135:
 1740              		.cfi_restore_state
 493:C:/Users/stapi/OneDrive/Desktop/GD32VW553/GD32VW55X_Wifi_BLE_SDK/GD32VW55x_RELEASE_V1.0.2/MSDK/lwip/lwip-2.1.2/src/api\api_lib.c ****     /* don't accept if closed: this might block the application task
 1741              		.loc 1 493 8 discriminator 1
 1742 0084 83C74402 		lbu	a5,36(s1)
 493:C:/Users/stapi/OneDrive/Desktop/GD32VW553/GD32VW55X_Wifi_BLE_SDK/GD32VW55x_RELEASE_V1.0.2/MSDK/lwip/lwip-2.1.2/src/api\api_lib.c ****     /* don't accept if closed: this might block the application task
 1743              		.loc 1 493 7 discriminator 1
 1744 0088 13F71700 		andi	a4,a5,1
 1745 008c 6DF7     		bne	a4,zero,.L136
 499:C:/Users/stapi/OneDrive/Desktop/GD32VW553/GD32VW55X_Wifi_BLE_SDK/GD32VW55x_RELEASE_V1.0.2/MSDK/lwip/lwip-2.1.2/src/api\api_lib.c **** 
 1746              		.loc 1 499 32 is_stmt 1
 501:C:/Users/stapi/OneDrive/Desktop/GD32VW553/GD32VW55X_Wifi_BLE_SDK/GD32VW55x_RELEASE_V1.0.2/MSDK/lwip/lwip-2.1.2/src/api\api_lib.c ****   if (netconn_is_nonblocking(conn)) {
 1747              		.loc 1 501 33
 502:C:/Users/stapi/OneDrive/Desktop/GD32VW553/GD32VW55X_Wifi_BLE_SDK/GD32VW55x_RELEASE_V1.0.2/MSDK/lwip/lwip-2.1.2/src/api\api_lib.c ****     if (sys_arch_mbox_tryfetch(&conn->acceptmbox, &accept_ptr) == SYS_ARCH_TIMEOUT) {
 1748              		.loc 1 502 3
 502:C:/Users/stapi/OneDrive/Desktop/GD32VW553/GD32VW55X_Wifi_BLE_SDK/GD32VW55x_RELEASE_V1.0.2/MSDK/lwip/lwip-2.1.2/src/api\api_lib.c ****     if (sys_arch_mbox_tryfetch(&conn->acceptmbox, &accept_ptr) == SYS_ARCH_TIMEOUT) {
 1749              		.loc 1 502 6 is_stmt 0
 1750 008e 898B     		andi	a5,a5,2
 503:C:/Users/stapi/OneDrive/Desktop/GD32VW553/GD32VW55X_Wifi_BLE_SDK/GD32VW55x_RELEASE_V1.0.2/MSDK/lwip/lwip-2.1.2/src/api\api_lib.c ****       API_MSG_VAR_FREE_ACCEPT(msg);
 1751              		.loc 1 503 9
 1752 0090 13858401 		addi	a0,s1,24
 502:C:/Users/stapi/OneDrive/Desktop/GD32VW553/GD32VW55X_Wifi_BLE_SDK/GD32VW55x_RELEASE_V1.0.2/MSDK/lwip/lwip-2.1.2/src/api\api_lib.c ****     if (sys_arch_mbox_tryfetch(&conn->acceptmbox, &accept_ptr) == SYS_ARCH_TIMEOUT) {
 1753              		.loc 1 502 6
 1754 0094 95C7     		beq	a5,zero,.L137
 503:C:/Users/stapi/OneDrive/Desktop/GD32VW553/GD32VW55X_Wifi_BLE_SDK/GD32VW55x_RELEASE_V1.0.2/MSDK/lwip/lwip-2.1.2/src/api\api_lib.c ****       API_MSG_VAR_FREE_ACCEPT(msg);
 1755              		.loc 1 503 5 is_stmt 1
 503:C:/Users/stapi/OneDrive/Desktop/GD32VW553/GD32VW55X_Wifi_BLE_SDK/GD32VW55x_RELEASE_V1.0.2/MSDK/lwip/lwip-2.1.2/src/api\api_lib.c ****       API_MSG_VAR_FREE_ACCEPT(msg);
 1756              		.loc 1 503 9 is_stmt 0
 1757 0096 6C00     		addi	a1,sp,12
 1758 0098 97000000 		call	sys_arch_mbox_tryfetch
 1758      E7800000 
 1759              	.LVL192:
 503:C:/Users/stapi/OneDrive/Desktop/GD32VW553/GD32VW55X_Wifi_BLE_SDK/GD32VW55x_RELEASE_V1.0.2/MSDK/lwip/lwip-2.1.2/src/api\api_lib.c ****       API_MSG_VAR_FREE_ACCEPT(msg);
 1760              		.loc 1 503 8
 1761 00a0 FD57     		li	a5,-1
 1762 00a2 6304F504 		beq	a0,a5,.L142
 1763              	.L140:
 519:C:/Users/stapi/OneDrive/Desktop/GD32VW553/GD32VW55X_Wifi_BLE_SDK/GD32VW55x_RELEASE_V1.0.2/MSDK/lwip/lwip-2.1.2/src/api\api_lib.c **** #if LWIP_NETCONN_FULLDUPLEX
 1764              		.loc 1 519 33 is_stmt 1
 531:C:/Users/stapi/OneDrive/Desktop/GD32VW553/GD32VW55X_Wifi_BLE_SDK/GD32VW55x_RELEASE_V1.0.2/MSDK/lwip/lwip-2.1.2/src/api\api_lib.c **** 
 1765              		.loc 1 531 3
 1766 00a6 DC54     		lw	a5,44(s1)
 1767 00a8 9DE7     		bne	a5,zero,.L138
 1768              	.L139:
 531:C:/Users/stapi/OneDrive/Desktop/GD32VW553/GD32VW55X_Wifi_BLE_SDK/GD32VW55x_RELEASE_V1.0.2/MSDK/lwip/lwip-2.1.2/src/api\api_lib.c **** 
 1769              		.loc 1 531 43 discriminator 3
 533:C:/Users/stapi/OneDrive/Desktop/GD32VW553/GD32VW55X_Wifi_BLE_SDK/GD32VW55x_RELEASE_V1.0.2/MSDK/lwip/lwip-2.1.2/src/api\api_lib.c ****     /* a connection has been aborted: e.g. out of pcbs or out of netconns during accept */
 1770              		.loc 1 533 3 discriminator 3
 533:C:/Users/stapi/OneDrive/Desktop/GD32VW553/GD32VW55X_Wifi_BLE_SDK/GD32VW55x_RELEASE_V1.0.2/MSDK/lwip/lwip-2.1.2/src/api\api_lib.c ****     /* a connection has been aborted: e.g. out of pcbs or out of netconns during accept */
 1771              		.loc 1 533 7 is_stmt 0 discriminator 3
 1772 00aa 3245     		lw	a0,12(sp)
 1773 00ac 9305B100 		addi	a1,sp,11
 1774 00b0 97000000 		call	lwip_netconn_is_err_msg
 1774      E7800000 
 1775              	.LVL193:
 533:C:/Users/stapi/OneDrive/Desktop/GD32VW553/GD32VW55X_Wifi_BLE_SDK/GD32VW55x_RELEASE_V1.0.2/MSDK/lwip/lwip-2.1.2/src/api\api_lib.c ****     /* a connection has been aborted: e.g. out of pcbs or out of netconns during accept */
 1776              		.loc 1 533 6 discriminator 3
 1777 00b8 05C5     		beq	a0,zero,.L141
 535:C:/Users/stapi/OneDrive/Desktop/GD32VW553/GD32VW55X_Wifi_BLE_SDK/GD32VW55x_RELEASE_V1.0.2/MSDK/lwip/lwip-2.1.2/src/api\api_lib.c ****     return err;
 1778              		.loc 1 535 33 is_stmt 1
 536:C:/Users/stapi/OneDrive/Desktop/GD32VW553/GD32VW55X_Wifi_BLE_SDK/GD32VW55x_RELEASE_V1.0.2/MSDK/lwip/lwip-2.1.2/src/api\api_lib.c ****   }
 1779              		.loc 1 536 5
 536:C:/Users/stapi/OneDrive/Desktop/GD32VW553/GD32VW55X_Wifi_BLE_SDK/GD32VW55x_RELEASE_V1.0.2/MSDK/lwip/lwip-2.1.2/src/api\api_lib.c ****   }
 1780              		.loc 1 536 12 is_stmt 0
 1781 00ba 0304B100 		lb	s0,11(sp)
 1782 00be 6DBF     		j	.L134
 1783              	.L137:
 510:C:/Users/stapi/OneDrive/Desktop/GD32VW553/GD32VW55X_Wifi_BLE_SDK/GD32VW55x_RELEASE_V1.0.2/MSDK/lwip/lwip-2.1.2/src/api\api_lib.c ****       API_MSG_VAR_FREE_ACCEPT(msg);
 1784              		.loc 1 510 5 is_stmt 1
 510:C:/Users/stapi/OneDrive/Desktop/GD32VW553/GD32VW55X_Wifi_BLE_SDK/GD32VW55x_RELEASE_V1.0.2/MSDK/lwip/lwip-2.1.2/src/api\api_lib.c ****       API_MSG_VAR_FREE_ACCEPT(msg);
 1785              		.loc 1 510 9 is_stmt 0
 1786 00c0 9050     		lw	a2,32(s1)
 1787 00c2 6C00     		addi	a1,sp,12
 1788 00c4 97000000 		call	sys_arch_mbox_fetch
 1788      E7800000 
 1789              	.LVL194:
 510:C:/Users/stapi/OneDrive/Desktop/GD32VW553/GD32VW55X_Wifi_BLE_SDK/GD32VW55x_RELEASE_V1.0.2/MSDK/lwip/lwip-2.1.2/src/api\api_lib.c ****       API_MSG_VAR_FREE_ACCEPT(msg);
 1790              		.loc 1 510 8
 1791 00cc FD57     		li	a5,-1
 1792 00ce E31CF5FC 		bne	a0,a5,.L140
 513:C:/Users/stapi/OneDrive/Desktop/GD32VW553/GD32VW55X_Wifi_BLE_SDK/GD32VW55x_RELEASE_V1.0.2/MSDK/lwip/lwip-2.1.2/src/api\api_lib.c ****     }
 1793              		.loc 1 513 14
 1794 00d2 7554     		li	s0,-3
 1795 00d4 55B7     		j	.L134
 1796              	.L138:
 531:C:/Users/stapi/OneDrive/Desktop/GD32VW553/GD32VW55X_Wifi_BLE_SDK/GD32VW55x_RELEASE_V1.0.2/MSDK/lwip/lwip-2.1.2/src/api\api_lib.c **** 
 1797              		.loc 1 531 3 is_stmt 1 discriminator 1
 1798 00d6 0146     		li	a2,0
 1799 00d8 8545     		li	a1,1
 1800 00da 2685     		mv	a0,s1
 1801 00dc 8297     		jalr	a5
 1802              	.LVL195:
 1803 00de F1B7     		j	.L139
 1804              	.L141:
 538:C:/Users/stapi/OneDrive/Desktop/GD32VW553/GD32VW55X_Wifi_BLE_SDK/GD32VW55x_RELEASE_V1.0.2/MSDK/lwip/lwip-2.1.2/src/api\api_lib.c ****     /* connection has been aborted */
 1805              		.loc 1 538 3
 538:C:/Users/stapi/OneDrive/Desktop/GD32VW553/GD32VW55X_Wifi_BLE_SDK/GD32VW55x_RELEASE_V1.0.2/MSDK/lwip/lwip-2.1.2/src/api\api_lib.c ****     /* connection has been aborted */
 1806              		.loc 1 538 18 is_stmt 0
 1807 00e0 B247     		lw	a5,12(sp)
 538:C:/Users/stapi/OneDrive/Desktop/GD32VW553/GD32VW55X_Wifi_BLE_SDK/GD32VW55x_RELEASE_V1.0.2/MSDK/lwip/lwip-2.1.2/src/api\api_lib.c ****     /* connection has been aborted */
 1808              		.loc 1 538 6
 1809 00e2 D1DB     		beq	a5,zero,.L136
 543:C:/Users/stapi/OneDrive/Desktop/GD32VW553/GD32VW55X_Wifi_BLE_SDK/GD32VW55x_RELEASE_V1.0.2/MSDK/lwip/lwip-2.1.2/src/api\api_lib.c **** #if TCP_LISTEN_BACKLOG
 1810              		.loc 1 543 3 is_stmt 1
 1811              	.LVL196:
 552:C:/Users/stapi/OneDrive/Desktop/GD32VW553/GD32VW55X_Wifi_BLE_SDK/GD32VW55x_RELEASE_V1.0.2/MSDK/lwip/lwip-2.1.2/src/api\api_lib.c ****   /* don't set conn->last_err: it's only ERR_OK, anyway */
 1812              		.loc 1 552 3
 552:C:/Users/stapi/OneDrive/Desktop/GD32VW553/GD32VW55X_Wifi_BLE_SDK/GD32VW55x_RELEASE_V1.0.2/MSDK/lwip/lwip-2.1.2/src/api\api_lib.c ****   /* don't set conn->last_err: it's only ERR_OK, anyway */
 1813              		.loc 1 552 13 is_stmt 0
 1814 00e4 2320F900 		sw	a5,0(s2)
 554:C:/Users/stapi/OneDrive/Desktop/GD32VW553/GD32VW55X_Wifi_BLE_SDK/GD32VW55x_RELEASE_V1.0.2/MSDK/lwip/lwip-2.1.2/src/api\api_lib.c **** #else /* LWIP_TCP */
 1815              		.loc 1 554 3 is_stmt 1
 554:C:/Users/stapi/OneDrive/Desktop/GD32VW553/GD32VW55X_Wifi_BLE_SDK/GD32VW55x_RELEASE_V1.0.2/MSDK/lwip/lwip-2.1.2/src/api\api_lib.c **** #else /* LWIP_TCP */
 1816              		.loc 1 554 10 is_stmt 0
 1817 00e8 41BF     		j	.L134
 1818              	.LVL197:
 1819              	.L142:
 506:C:/Users/stapi/OneDrive/Desktop/GD32VW553/GD32VW55X_Wifi_BLE_SDK/GD32VW55x_RELEASE_V1.0.2/MSDK/lwip/lwip-2.1.2/src/api\api_lib.c ****     }
 1820              		.loc 1 506 14
 1821 00ea 6554     		li	s0,-7
 1822 00ec 71B7     		j	.L134
 1823              		.cfi_endproc
 1824              	.LFE14:
 1826              		.section	.rodata.netconn_recv_data.str1.4,"aMS",@progbits,1
 1827              		.align	2
 1828              	.LC22:
 1829 0000 6E657463 		.string	"netconn_recv: invalid pointer"
 1829      6F6E6E5F 
 1829      72656376 
 1829      3A20696E 
 1829      76616C69 
 1830 001e 0000     		.align	2
 1831              	.LC23:
 1832 0020 6E657463 		.string	"netconn_recv: invalid conn"
 1832      6F6E6E5F 
 1832      72656376 
 1832      3A20696E 
 1832      76616C69 
 1833 003b 00       		.align	2
 1834              	.LC24:
 1835 003c 62756620 		.string	"buf != NULL"
 1835      213D204E 
 1835      554C4C00 
 1836              		.section	.text.netconn_recv_data,"ax",@progbits
 1837              		.align	1
 1839              	netconn_recv_data:
 1840              	.LFB15:
 580:C:/Users/stapi/OneDrive/Desktop/GD32VW553/GD32VW55X_Wifi_BLE_SDK/GD32VW55x_RELEASE_V1.0.2/MSDK/lwip/lwip-2.1.2/src/api\api_lib.c ****   void *buf = NULL;
 1841              		.loc 1 580 1 is_stmt 1
 1842              		.cfi_startproc
 1843              	.LVL198:
 1844 0000 17030000 		call	t0,__riscv_save_2
 1844      E7020300 
 1845              		.cfi_offset 9, -12
 1846              		.cfi_offset 8, -8
 1847              		.cfi_offset 1, -4
 1848              		.cfi_def_cfa_offset 16
 581:C:/Users/stapi/OneDrive/Desktop/GD32VW553/GD32VW55X_Wifi_BLE_SDK/GD32VW55x_RELEASE_V1.0.2/MSDK/lwip/lwip-2.1.2/src/api\api_lib.c ****   u16_t len;
 1849              		.loc 1 581 3
 580:C:/Users/stapi/OneDrive/Desktop/GD32VW553/GD32VW55X_Wifi_BLE_SDK/GD32VW55x_RELEASE_V1.0.2/MSDK/lwip/lwip-2.1.2/src/api\api_lib.c ****   void *buf = NULL;
 1850              		.loc 1 580 1 is_stmt 0
 1851 0008 4111     		addi	sp,sp,-16
 1852              		.cfi_def_cfa_offset 32
 581:C:/Users/stapi/OneDrive/Desktop/GD32VW553/GD32VW55X_Wifi_BLE_SDK/GD32VW55x_RELEASE_V1.0.2/MSDK/lwip/lwip-2.1.2/src/api\api_lib.c ****   u16_t len;
 1853              		.loc 1 581 9
 1854 000a 02C6     		sw	zero,12(sp)
 582:C:/Users/stapi/OneDrive/Desktop/GD32VW553/GD32VW55X_Wifi_BLE_SDK/GD32VW55x_RELEASE_V1.0.2/MSDK/lwip/lwip-2.1.2/src/api\api_lib.c **** 
 1855              		.loc 1 582 3 is_stmt 1
 584:C:/Users/stapi/OneDrive/Desktop/GD32VW553/GD32VW55X_Wifi_BLE_SDK/GD32VW55x_RELEASE_V1.0.2/MSDK/lwip/lwip-2.1.2/src/api\api_lib.c ****   *new_buf = NULL;
 1856              		.loc 1 584 3
 584:C:/Users/stapi/OneDrive/Desktop/GD32VW553/GD32VW55X_Wifi_BLE_SDK/GD32VW55x_RELEASE_V1.0.2/MSDK/lwip/lwip-2.1.2/src/api\api_lib.c ****   *new_buf = NULL;
 1857              		.loc 1 584 3
 1858 000c 85E5     		bne	a1,zero,.L149
 584:C:/Users/stapi/OneDrive/Desktop/GD32VW553/GD32VW55X_Wifi_BLE_SDK/GD32VW55x_RELEASE_V1.0.2/MSDK/lwip/lwip-2.1.2/src/api\api_lib.c ****   *new_buf = NULL;
 1859              		.loc 1 584 3 discriminator 1
 584:C:/Users/stapi/OneDrive/Desktop/GD32VW553/GD32VW55X_Wifi_BLE_SDK/GD32VW55x_RELEASE_V1.0.2/MSDK/lwip/lwip-2.1.2/src/api\api_lib.c ****   *new_buf = NULL;
 1860              		.loc 1 584 3 discriminator 1
 1861 000e B7060000 		lui	a3,%hi(.LC0)
 1862 0012 B7050000 		lui	a1,%hi(.LC22)
 1863              	.LVL199:
 1864 0016 37050000 		lui	a0,%hi(.LC2)
 1865              	.LVL200:
 1866 001a 93860600 		addi	a3,a3,%lo(.LC0)
 1867 001e 13068024 		li	a2,584
 1868              	.LVL201:
 1869 0022 93850500 		addi	a1,a1,%lo(.LC22)
 1870 0026 13050500 		addi	a0,a0,%lo(.LC2)
 1871 002a 97000000 		call	printf
 1871      E7800000 
 1872              	.LVL202:
 1873              	.L150:
 584:C:/Users/stapi/OneDrive/Desktop/GD32VW553/GD32VW55X_Wifi_BLE_SDK/GD32VW55x_RELEASE_V1.0.2/MSDK/lwip/lwip-2.1.2/src/api\api_lib.c ****   *new_buf = NULL;
 1874              		.loc 1 584 3 discriminator 1
 584:C:/Users/stapi/OneDrive/Desktop/GD32VW553/GD32VW55X_Wifi_BLE_SDK/GD32VW55x_RELEASE_V1.0.2/MSDK/lwip/lwip-2.1.2/src/api\api_lib.c ****   *new_buf = NULL;
 1875              		.loc 1 584 3 discriminator 1
 584:C:/Users/stapi/OneDrive/Desktop/GD32VW553/GD32VW55X_Wifi_BLE_SDK/GD32VW55x_RELEASE_V1.0.2/MSDK/lwip/lwip-2.1.2/src/api\api_lib.c ****   *new_buf = NULL;
 1876              		.loc 1 584 3 discriminator 1
 1877 0032 01A0     		j	.L150
 1878              	.LVL203:
 1879              	.L149:
 585:C:/Users/stapi/OneDrive/Desktop/GD32VW553/GD32VW55X_Wifi_BLE_SDK/GD32VW55x_RELEASE_V1.0.2/MSDK/lwip/lwip-2.1.2/src/api\api_lib.c ****   LWIP_ERROR("netconn_recv: invalid conn",    (conn != NULL),    return ERR_ARG;);
 1880              		.loc 1 585 12 is_stmt 0 discriminator 2
 1881 0034 23A00500 		sw	zero,0(a1)
 1882 0038 2A84     		mv	s0,a0
 1883 003a AE84     		mv	s1,a1
 584:C:/Users/stapi/OneDrive/Desktop/GD32VW553/GD32VW55X_Wifi_BLE_SDK/GD32VW55x_RELEASE_V1.0.2/MSDK/lwip/lwip-2.1.2/src/api\api_lib.c ****   *new_buf = NULL;
 1884              		.loc 1 584 3 is_stmt 1 discriminator 2
 584:C:/Users/stapi/OneDrive/Desktop/GD32VW553/GD32VW55X_Wifi_BLE_SDK/GD32VW55x_RELEASE_V1.0.2/MSDK/lwip/lwip-2.1.2/src/api\api_lib.c ****   *new_buf = NULL;
 1885              		.loc 1 584 3 discriminator 2
 585:C:/Users/stapi/OneDrive/Desktop/GD32VW553/GD32VW55X_Wifi_BLE_SDK/GD32VW55x_RELEASE_V1.0.2/MSDK/lwip/lwip-2.1.2/src/api\api_lib.c ****   LWIP_ERROR("netconn_recv: invalid conn",    (conn != NULL),    return ERR_ARG;);
 1886              		.loc 1 585 3 discriminator 2
 586:C:/Users/stapi/OneDrive/Desktop/GD32VW553/GD32VW55X_Wifi_BLE_SDK/GD32VW55x_RELEASE_V1.0.2/MSDK/lwip/lwip-2.1.2/src/api\api_lib.c **** 
 1887              		.loc 1 586 3 discriminator 2
 586:C:/Users/stapi/OneDrive/Desktop/GD32VW553/GD32VW55X_Wifi_BLE_SDK/GD32VW55x_RELEASE_V1.0.2/MSDK/lwip/lwip-2.1.2/src/api\api_lib.c **** 
 1888              		.loc 1 586 3 discriminator 2
 1889 003c 05E5     		bne	a0,zero,.L151
 1890              	.LVL204:
 586:C:/Users/stapi/OneDrive/Desktop/GD32VW553/GD32VW55X_Wifi_BLE_SDK/GD32VW55x_RELEASE_V1.0.2/MSDK/lwip/lwip-2.1.2/src/api\api_lib.c **** 
 1891              		.loc 1 586 3 discriminator 1
 586:C:/Users/stapi/OneDrive/Desktop/GD32VW553/GD32VW55X_Wifi_BLE_SDK/GD32VW55x_RELEASE_V1.0.2/MSDK/lwip/lwip-2.1.2/src/api\api_lib.c **** 
 1892              		.loc 1 586 3 discriminator 1
 1893 003e B7060000 		lui	a3,%hi(.LC0)
 1894 0042 B7050000 		lui	a1,%hi(.LC23)
 1895 0046 37050000 		lui	a0,%hi(.LC2)
 1896 004a 93860600 		addi	a3,a3,%lo(.LC0)
 1897 004e 1306A024 		li	a2,586
 1898              	.LVL205:
 1899 0052 93850500 		addi	a1,a1,%lo(.LC23)
 1900 0056 13050500 		addi	a0,a0,%lo(.LC2)
 1901 005a 97000000 		call	printf
 1901      E7800000 
 1902              	.LVL206:
 1903              	.L152:
 586:C:/Users/stapi/OneDrive/Desktop/GD32VW553/GD32VW55X_Wifi_BLE_SDK/GD32VW55x_RELEASE_V1.0.2/MSDK/lwip/lwip-2.1.2/src/api\api_lib.c **** 
 1904              		.loc 1 586 3 discriminator 2
 586:C:/Users/stapi/OneDrive/Desktop/GD32VW553/GD32VW55X_Wifi_BLE_SDK/GD32VW55x_RELEASE_V1.0.2/MSDK/lwip/lwip-2.1.2/src/api\api_lib.c **** 
 1905              		.loc 1 586 3 discriminator 2
 586:C:/Users/stapi/OneDrive/Desktop/GD32VW553/GD32VW55X_Wifi_BLE_SDK/GD32VW55x_RELEASE_V1.0.2/MSDK/lwip/lwip-2.1.2/src/api\api_lib.c **** 
 1906              		.loc 1 586 3 discriminator 2
 1907 0062 01A0     		j	.L152
 1908              	.LVL207:
 1909              	.L151:
 586:C:/Users/stapi/OneDrive/Desktop/GD32VW553/GD32VW55X_Wifi_BLE_SDK/GD32VW55x_RELEASE_V1.0.2/MSDK/lwip/lwip-2.1.2/src/api\api_lib.c **** 
 1910              		.loc 1 586 3 discriminator 2
 586:C:/Users/stapi/OneDrive/Desktop/GD32VW553/GD32VW55X_Wifi_BLE_SDK/GD32VW55x_RELEASE_V1.0.2/MSDK/lwip/lwip-2.1.2/src/api\api_lib.c **** 
 1911              		.loc 1 586 3 discriminator 2
 588:C:/Users/stapi/OneDrive/Desktop/GD32VW553/GD32VW55X_Wifi_BLE_SDK/GD32VW55x_RELEASE_V1.0.2/MSDK/lwip/lwip-2.1.2/src/api\api_lib.c ****     err_t err = netconn_err(conn);
 1912              		.loc 1 588 3 discriminator 2
 588:C:/Users/stapi/OneDrive/Desktop/GD32VW553/GD32VW55X_Wifi_BLE_SDK/GD32VW55x_RELEASE_V1.0.2/MSDK/lwip/lwip-2.1.2/src/api\api_lib.c ****     err_t err = netconn_err(conn);
 1913              		.loc 1 588 6 is_stmt 0 discriminator 2
 1914 0064 5C49     		lw	a5,20(a0)
 1915 0066 81EF     		bne	a5,zero,.L153
 1916              	.LBB34:
 589:C:/Users/stapi/OneDrive/Desktop/GD32VW553/GD32VW55X_Wifi_BLE_SDK/GD32VW55x_RELEASE_V1.0.2/MSDK/lwip/lwip-2.1.2/src/api\api_lib.c ****     if (err != ERR_OK) {
 1917              		.loc 1 589 5 is_stmt 1
 589:C:/Users/stapi/OneDrive/Desktop/GD32VW553/GD32VW55X_Wifi_BLE_SDK/GD32VW55x_RELEASE_V1.0.2/MSDK/lwip/lwip-2.1.2/src/api\api_lib.c ****     if (err != ERR_OK) {
 1918              		.loc 1 589 17 is_stmt 0
 1919 0068 97000000 		call	netconn_err
 1919      E7800000 
 1920              	.LVL208:
 590:C:/Users/stapi/OneDrive/Desktop/GD32VW553/GD32VW55X_Wifi_BLE_SDK/GD32VW55x_RELEASE_V1.0.2/MSDK/lwip/lwip-2.1.2/src/api\api_lib.c ****       /* return pending error */
 1921              		.loc 1 590 5 is_stmt 1
 590:C:/Users/stapi/OneDrive/Desktop/GD32VW553/GD32VW55X_Wifi_BLE_SDK/GD32VW55x_RELEASE_V1.0.2/MSDK/lwip/lwip-2.1.2/src/api\api_lib.c ****       /* return pending error */
 1922              		.loc 1 590 8 is_stmt 0
 1923 0070 11E1     		bne	a0,zero,.L154
 1924              	.LVL209:
 1925              	.L160:
 594:C:/Users/stapi/OneDrive/Desktop/GD32VW553/GD32VW55X_Wifi_BLE_SDK/GD32VW55x_RELEASE_V1.0.2/MSDK/lwip/lwip-2.1.2/src/api\api_lib.c ****   }
 1926              		.loc 1 594 12
 1927 0072 5555     		li	a0,-11
 1928              	.L154:
 1929              	.LBE34:
 673:C:/Users/stapi/OneDrive/Desktop/GD32VW553/GD32VW55X_Wifi_BLE_SDK/GD32VW55x_RELEASE_V1.0.2/MSDK/lwip/lwip-2.1.2/src/api\api_lib.c **** 
 1930              		.loc 1 673 1
 1931 0074 4101     		addi	sp,sp,16
 1932              		.cfi_remember_state
 1933              		.cfi_def_cfa_offset 0
 1934 0076 17030000 		tail	__riscv_restore_2
 1934      67000300 
 1935              		.cfi_restore 9
 1936              		.cfi_restore 8
 1937              		.cfi_restore 1
 1938              		.cfi_def_cfa_offset -16
 1939              	.LVL210:
 1940              	.L153:
 1941              		.cfi_restore_state
 597:C:/Users/stapi/OneDrive/Desktop/GD32VW553/GD32VW55X_Wifi_BLE_SDK/GD32VW55x_RELEASE_V1.0.2/MSDK/lwip/lwip-2.1.2/src/api\api_lib.c ****   if (netconn_is_nonblocking(conn) || (apiflags & NETCONN_DONTBLOCK) ||
 1942              		.loc 1 597 33 is_stmt 1
 598:C:/Users/stapi/OneDrive/Desktop/GD32VW553/GD32VW55X_Wifi_BLE_SDK/GD32VW55x_RELEASE_V1.0.2/MSDK/lwip/lwip-2.1.2/src/api\api_lib.c ****       (conn->flags & NETCONN_FLAG_MBOXCLOSED) || (conn->pending_err != ERR_OK)) {
 1943              		.loc 1 598 3
 598:C:/Users/stapi/OneDrive/Desktop/GD32VW553/GD32VW55X_Wifi_BLE_SDK/GD32VW55x_RELEASE_V1.0.2/MSDK/lwip/lwip-2.1.2/src/api\api_lib.c ****       (conn->flags & NETCONN_FLAG_MBOXCLOSED) || (conn->pending_err != ERR_OK)) {
 1944              		.loc 1 598 70 is_stmt 0
 1945 007e 83474402 		lbu	a5,36(s0)
 1946 0082 118A     		andi	a2,a2,4
 1947              	.LVL211:
 615:C:/Users/stapi/OneDrive/Desktop/GD32VW553/GD32VW55X_Wifi_BLE_SDK/GD32VW55x_RELEASE_V1.0.2/MSDK/lwip/lwip-2.1.2/src/api\api_lib.c ****       NETCONN_MBOX_WAITING_DEC(conn);
 1948              		.loc 1 615 9
 1949 0084 5105     		addi	a0,a0,20
 598:C:/Users/stapi/OneDrive/Desktop/GD32VW553/GD32VW55X_Wifi_BLE_SDK/GD32VW55x_RELEASE_V1.0.2/MSDK/lwip/lwip-2.1.2/src/api\api_lib.c ****       (conn->flags & NETCONN_FLAG_MBOXCLOSED) || (conn->pending_err != ERR_OK)) {
 1950              		.loc 1 598 70
 1951 0086 8D8B     		andi	a5,a5,3
 1952 0088 5D8E     		or	a2,a5,a2
 1953 008a 01E6     		bne	a2,zero,.L155
 599:C:/Users/stapi/OneDrive/Desktop/GD32VW553/GD32VW55X_Wifi_BLE_SDK/GD32VW55x_RELEASE_V1.0.2/MSDK/lwip/lwip-2.1.2/src/api\api_lib.c ****     if (sys_arch_mbox_tryfetch(&conn->recvmbox, &buf) == SYS_ARCH_TIMEOUT) {
 1954              		.loc 1 599 47
 1955 008c 8307C400 		lb	a5,12(s0)
 1956 0090 B1CB     		beq	a5,zero,.L156
 1957              	.L155:
 600:C:/Users/stapi/OneDrive/Desktop/GD32VW553/GD32VW55X_Wifi_BLE_SDK/GD32VW55x_RELEASE_V1.0.2/MSDK/lwip/lwip-2.1.2/src/api\api_lib.c ****       err_t err;
 1958              		.loc 1 600 5 is_stmt 1
 600:C:/Users/stapi/OneDrive/Desktop/GD32VW553/GD32VW55X_Wifi_BLE_SDK/GD32VW55x_RELEASE_V1.0.2/MSDK/lwip/lwip-2.1.2/src/api\api_lib.c ****       err_t err;
 1959              		.loc 1 600 9 is_stmt 0
 1960 0092 6C00     		addi	a1,sp,12
 1961 0094 97000000 		call	sys_arch_mbox_tryfetch
 1961      E7800000 
 1962              	.LVL212:
 600:C:/Users/stapi/OneDrive/Desktop/GD32VW553/GD32VW55X_Wifi_BLE_SDK/GD32VW55x_RELEASE_V1.0.2/MSDK/lwip/lwip-2.1.2/src/api\api_lib.c ****       err_t err;
 1963              		.loc 1 600 8
 1964 009c FD57     		li	a5,-1
 1965 009e 6307F502 		beq	a0,a5,.L157
 1966              	.L161:
 623:C:/Users/stapi/OneDrive/Desktop/GD32VW553/GD32VW55X_Wifi_BLE_SDK/GD32VW55x_RELEASE_V1.0.2/MSDK/lwip/lwip-2.1.2/src/api\api_lib.c **** #if LWIP_NETCONN_FULLDUPLEX
 1967              		.loc 1 623 33 is_stmt 1
 636:C:/Users/stapi/OneDrive/Desktop/GD32VW553/GD32VW55X_Wifi_BLE_SDK/GD32VW55x_RELEASE_V1.0.2/MSDK/lwip/lwip-2.1.2/src/api\api_lib.c **** #endif /* (LWIP_UDP || LWIP_RAW) */
 1968              		.loc 1 636 3
 636:C:/Users/stapi/OneDrive/Desktop/GD32VW553/GD32VW55X_Wifi_BLE_SDK/GD32VW55x_RELEASE_V1.0.2/MSDK/lwip/lwip-2.1.2/src/api\api_lib.c **** #endif /* (LWIP_UDP || LWIP_RAW) */
 1969              		.loc 1 636 7 is_stmt 0
 1970 00a2 1C40     		lw	a5,0(s0)
 636:C:/Users/stapi/OneDrive/Desktop/GD32VW553/GD32VW55X_Wifi_BLE_SDK/GD32VW55x_RELEASE_V1.0.2/MSDK/lwip/lwip-2.1.2/src/api\api_lib.c **** #endif /* (LWIP_UDP || LWIP_RAW) */
 1971              		.loc 1 636 6
 1972 00a4 4147     		li	a4,16
 1973              	.LBB35:
 641:C:/Users/stapi/OneDrive/Desktop/GD32VW553/GD32VW55X_Wifi_BLE_SDK/GD32VW55x_RELEASE_V1.0.2/MSDK/lwip/lwip-2.1.2/src/api\api_lib.c ****       /* new_buf has been zeroed above already */
 1974              		.loc 1 641 9
 1975 00a6 3245     		lw	a0,12(sp)
 1976              	.LBE35:
 636:C:/Users/stapi/OneDrive/Desktop/GD32VW553/GD32VW55X_Wifi_BLE_SDK/GD32VW55x_RELEASE_V1.0.2/MSDK/lwip/lwip-2.1.2/src/api\api_lib.c **** #endif /* (LWIP_UDP || LWIP_RAW) */
 1977              		.loc 1 636 7
 1978 00a8 93F7070F 		andi	a5,a5,240
 636:C:/Users/stapi/OneDrive/Desktop/GD32VW553/GD32VW55X_Wifi_BLE_SDK/GD32VW55x_RELEASE_V1.0.2/MSDK/lwip/lwip-2.1.2/src/api\api_lib.c **** #endif /* (LWIP_UDP || LWIP_RAW) */
 1979              		.loc 1 636 6
 1980 00ac 6392E706 		bne	a5,a4,.L173
 1981              	.LBB36:
 639:C:/Users/stapi/OneDrive/Desktop/GD32VW553/GD32VW55X_Wifi_BLE_SDK/GD32VW55x_RELEASE_V1.0.2/MSDK/lwip/lwip-2.1.2/src/api\api_lib.c ****     /* Check if this is an error message or a pbuf */
 1982              		.loc 1 639 5 is_stmt 1
 641:C:/Users/stapi/OneDrive/Desktop/GD32VW553/GD32VW55X_Wifi_BLE_SDK/GD32VW55x_RELEASE_V1.0.2/MSDK/lwip/lwip-2.1.2/src/api\api_lib.c ****       /* new_buf has been zeroed above already */
 1983              		.loc 1 641 5
 641:C:/Users/stapi/OneDrive/Desktop/GD32VW553/GD32VW55X_Wifi_BLE_SDK/GD32VW55x_RELEASE_V1.0.2/MSDK/lwip/lwip-2.1.2/src/api\api_lib.c ****       /* new_buf has been zeroed above already */
 1984              		.loc 1 641 9 is_stmt 0
 1985 00b0 9305B100 		addi	a1,sp,11
 1986 00b4 97000000 		call	lwip_netconn_is_err_msg
 1986      E7800000 
 1987              	.LVL213:
 641:C:/Users/stapi/OneDrive/Desktop/GD32VW553/GD32VW55X_Wifi_BLE_SDK/GD32VW55x_RELEASE_V1.0.2/MSDK/lwip/lwip-2.1.2/src/api\api_lib.c ****       /* new_buf has been zeroed above already */
 1988              		.loc 1 641 8
 1989 00bc 1DCD     		beq	a0,zero,.L162
 643:C:/Users/stapi/OneDrive/Desktop/GD32VW553/GD32VW55X_Wifi_BLE_SDK/GD32VW55x_RELEASE_V1.0.2/MSDK/lwip/lwip-2.1.2/src/api\api_lib.c ****         /* connection closed translates to ERR_OK with *new_buf == NULL */
 1990              		.loc 1 643 7 is_stmt 1
 643:C:/Users/stapi/OneDrive/Desktop/GD32VW553/GD32VW55X_Wifi_BLE_SDK/GD32VW55x_RELEASE_V1.0.2/MSDK/lwip/lwip-2.1.2/src/api\api_lib.c ****         /* connection closed translates to ERR_OK with *new_buf == NULL */
 1991              		.loc 1 643 10 is_stmt 0
 1992 00be C557     		li	a5,-15
 643:C:/Users/stapi/OneDrive/Desktop/GD32VW553/GD32VW55X_Wifi_BLE_SDK/GD32VW55x_RELEASE_V1.0.2/MSDK/lwip/lwip-2.1.2/src/api\api_lib.c ****         /* connection closed translates to ERR_OK with *new_buf == NULL */
 1993              		.loc 1 643 15
 1994 00c0 0305B100 		lb	a0,11(sp)
 643:C:/Users/stapi/OneDrive/Desktop/GD32VW553/GD32VW55X_Wifi_BLE_SDK/GD32VW55x_RELEASE_V1.0.2/MSDK/lwip/lwip-2.1.2/src/api\api_lib.c ****         /* connection closed translates to ERR_OK with *new_buf == NULL */
 1995              		.loc 1 643 10
 1996 00c4 E318F5FA 		bne	a0,a5,.L154
 1997              	.L176:
 1998              	.LBE36:
 672:C:/Users/stapi/OneDrive/Desktop/GD32VW553/GD32VW55X_Wifi_BLE_SDK/GD32VW55x_RELEASE_V1.0.2/MSDK/lwip/lwip-2.1.2/src/api\api_lib.c **** }
 1999              		.loc 1 672 3 is_stmt 1 discriminator 3
 672:C:/Users/stapi/OneDrive/Desktop/GD32VW553/GD32VW55X_Wifi_BLE_SDK/GD32VW55x_RELEASE_V1.0.2/MSDK/lwip/lwip-2.1.2/src/api\api_lib.c **** }
 2000              		.loc 1 672 10 is_stmt 0 discriminator 3
 2001 00c8 0145     		li	a0,0
 2002 00ca 6DB7     		j	.L154
 2003              	.L157:
 2004              	.LBB37:
 601:C:/Users/stapi/OneDrive/Desktop/GD32VW553/GD32VW55X_Wifi_BLE_SDK/GD32VW55x_RELEASE_V1.0.2/MSDK/lwip/lwip-2.1.2/src/api\api_lib.c ****       NETCONN_MBOX_WAITING_DEC(conn);
 2005              		.loc 1 601 7 is_stmt 1
 602:C:/Users/stapi/OneDrive/Desktop/GD32VW553/GD32VW55X_Wifi_BLE_SDK/GD32VW55x_RELEASE_V1.0.2/MSDK/lwip/lwip-2.1.2/src/api\api_lib.c ****       err = netconn_err(conn);
 2006              		.loc 1 602 37
 603:C:/Users/stapi/OneDrive/Desktop/GD32VW553/GD32VW55X_Wifi_BLE_SDK/GD32VW55x_RELEASE_V1.0.2/MSDK/lwip/lwip-2.1.2/src/api\api_lib.c ****       if (err != ERR_OK) {
 2007              		.loc 1 603 7
 603:C:/Users/stapi/OneDrive/Desktop/GD32VW553/GD32VW55X_Wifi_BLE_SDK/GD32VW55x_RELEASE_V1.0.2/MSDK/lwip/lwip-2.1.2/src/api\api_lib.c ****       if (err != ERR_OK) {
 2008              		.loc 1 603 13 is_stmt 0
 2009 00cc 2285     		mv	a0,s0
 2010 00ce 97000000 		call	netconn_err
 2010      E7800000 
 2011              	.LVL214:
 604:C:/Users/stapi/OneDrive/Desktop/GD32VW553/GD32VW55X_Wifi_BLE_SDK/GD32VW55x_RELEASE_V1.0.2/MSDK/lwip/lwip-2.1.2/src/api\api_lib.c ****         /* return pending error */
 2012              		.loc 1 604 7 is_stmt 1
 604:C:/Users/stapi/OneDrive/Desktop/GD32VW553/GD32VW55X_Wifi_BLE_SDK/GD32VW55x_RELEASE_V1.0.2/MSDK/lwip/lwip-2.1.2/src/api\api_lib.c ****         /* return pending error */
 2013              		.loc 1 604 10 is_stmt 0
 2014 00d6 59FD     		bne	a0,zero,.L154
 608:C:/Users/stapi/OneDrive/Desktop/GD32VW553/GD32VW55X_Wifi_BLE_SDK/GD32VW55x_RELEASE_V1.0.2/MSDK/lwip/lwip-2.1.2/src/api\api_lib.c ****         return ERR_CONN;
 2015              		.loc 1 608 7 is_stmt 1
 608:C:/Users/stapi/OneDrive/Desktop/GD32VW553/GD32VW55X_Wifi_BLE_SDK/GD32VW55x_RELEASE_V1.0.2/MSDK/lwip/lwip-2.1.2/src/api\api_lib.c ****         return ERR_CONN;
 2016              		.loc 1 608 10 is_stmt 0
 2017 00d8 83474402 		lbu	a5,36(s0)
 611:C:/Users/stapi/OneDrive/Desktop/GD32VW553/GD32VW55X_Wifi_BLE_SDK/GD32VW55x_RELEASE_V1.0.2/MSDK/lwip/lwip-2.1.2/src/api\api_lib.c ****     }
 2018              		.loc 1 611 14
 2019 00dc 6555     		li	a0,-7
 2020              	.LVL215:
 608:C:/Users/stapi/OneDrive/Desktop/GD32VW553/GD32VW55X_Wifi_BLE_SDK/GD32VW55x_RELEASE_V1.0.2/MSDK/lwip/lwip-2.1.2/src/api\api_lib.c ****         return ERR_CONN;
 2021              		.loc 1 608 10
 2022 00de 858B     		andi	a5,a5,1
 2023 00e0 D1DB     		beq	a5,zero,.L154
 2024 00e2 41BF     		j	.L160
 2025              	.L156:
 2026              	.LBE37:
 615:C:/Users/stapi/OneDrive/Desktop/GD32VW553/GD32VW55X_Wifi_BLE_SDK/GD32VW55x_RELEASE_V1.0.2/MSDK/lwip/lwip-2.1.2/src/api\api_lib.c ****       NETCONN_MBOX_WAITING_DEC(conn);
 2027              		.loc 1 615 5 is_stmt 1
 615:C:/Users/stapi/OneDrive/Desktop/GD32VW553/GD32VW55X_Wifi_BLE_SDK/GD32VW55x_RELEASE_V1.0.2/MSDK/lwip/lwip-2.1.2/src/api\api_lib.c ****       NETCONN_MBOX_WAITING_DEC(conn);
 2028              		.loc 1 615 9 is_stmt 0
 2029 00e4 1050     		lw	a2,32(s0)
 2030 00e6 6C00     		addi	a1,sp,12
 2031 00e8 97000000 		call	sys_arch_mbox_fetch
 2031      E7800000 
 2032              	.LVL216:
 615:C:/Users/stapi/OneDrive/Desktop/GD32VW553/GD32VW55X_Wifi_BLE_SDK/GD32VW55x_RELEASE_V1.0.2/MSDK/lwip/lwip-2.1.2/src/api\api_lib.c ****       NETCONN_MBOX_WAITING_DEC(conn);
 2033              		.loc 1 615 8
 2034 00f0 FD57     		li	a5,-1
 2035 00f2 E318F5FA 		bne	a0,a5,.L161
 617:C:/Users/stapi/OneDrive/Desktop/GD32VW553/GD32VW55X_Wifi_BLE_SDK/GD32VW55x_RELEASE_V1.0.2/MSDK/lwip/lwip-2.1.2/src/api\api_lib.c ****     }
 2036              		.loc 1 617 14
 2037 00f6 7555     		li	a0,-3
 2038 00f8 B5BF     		j	.L154
 2039              	.L162:
 2040              	.LBB38:
 649:C:/Users/stapi/OneDrive/Desktop/GD32VW553/GD32VW55X_Wifi_BLE_SDK/GD32VW55x_RELEASE_V1.0.2/MSDK/lwip/lwip-2.1.2/src/api\api_lib.c ****   }
 2041              		.loc 1 649 5 is_stmt 1
 649:C:/Users/stapi/OneDrive/Desktop/GD32VW553/GD32VW55X_Wifi_BLE_SDK/GD32VW55x_RELEASE_V1.0.2/MSDK/lwip/lwip-2.1.2/src/api\api_lib.c ****   }
 2042              		.loc 1 649 9 is_stmt 0
 2043 00fa B247     		lw	a5,12(sp)
 2044              	.L175:
 2045              	.LBE38:
 658:C:/Users/stapi/OneDrive/Desktop/GD32VW553/GD32VW55X_Wifi_BLE_SDK/GD32VW55x_RELEASE_V1.0.2/MSDK/lwip/lwip-2.1.2/src/api\api_lib.c ****   }
 2046              		.loc 1 658 9 discriminator 2
 2047 00fc 03D68700 		lhu	a2,8(a5)
 2048              	.LVL217:
 666:C:/Users/stapi/OneDrive/Desktop/GD32VW553/GD32VW55X_Wifi_BLE_SDK/GD32VW55x_RELEASE_V1.0.2/MSDK/lwip/lwip-2.1.2/src/api\api_lib.c **** 
 2049              		.loc 1 666 3 is_stmt 1 discriminator 2
 2050 0100 5C54     		lw	a5,44(s0)
 2051 0102 81C7     		beq	a5,zero,.L167
 666:C:/Users/stapi/OneDrive/Desktop/GD32VW553/GD32VW55X_Wifi_BLE_SDK/GD32VW55x_RELEASE_V1.0.2/MSDK/lwip/lwip-2.1.2/src/api\api_lib.c **** 
 2052              		.loc 1 666 3 discriminator 1
 2053 0104 8545     		li	a1,1
 2054 0106 2285     		mv	a0,s0
 2055 0108 8297     		jalr	a5
 2056              	.LVL218:
 2057              	.L167:
 666:C:/Users/stapi/OneDrive/Desktop/GD32VW553/GD32VW55X_Wifi_BLE_SDK/GD32VW55x_RELEASE_V1.0.2/MSDK/lwip/lwip-2.1.2/src/api\api_lib.c **** 
 2058              		.loc 1 666 45 discriminator 3
 668:C:/Users/stapi/OneDrive/Desktop/GD32VW553/GD32VW55X_Wifi_BLE_SDK/GD32VW55x_RELEASE_V1.0.2/MSDK/lwip/lwip-2.1.2/src/api\api_lib.c **** 
 2059              		.loc 1 668 91 discriminator 3
 670:C:/Users/stapi/OneDrive/Desktop/GD32VW553/GD32VW55X_Wifi_BLE_SDK/GD32VW55x_RELEASE_V1.0.2/MSDK/lwip/lwip-2.1.2/src/api\api_lib.c ****   /* don't set conn->last_err: it's only ERR_OK, anyway */
 2060              		.loc 1 670 3 discriminator 3
 670:C:/Users/stapi/OneDrive/Desktop/GD32VW553/GD32VW55X_Wifi_BLE_SDK/GD32VW55x_RELEASE_V1.0.2/MSDK/lwip/lwip-2.1.2/src/api\api_lib.c ****   /* don't set conn->last_err: it's only ERR_OK, anyway */
 2061              		.loc 1 670 12 is_stmt 0 discriminator 3
 2062 010a B247     		lw	a5,12(sp)
 2063 010c 9CC0     		sw	a5,0(s1)
 2064 010e 6DBF     		j	.L176
 2065              	.L173:
 657:C:/Users/stapi/OneDrive/Desktop/GD32VW553/GD32VW55X_Wifi_BLE_SDK/GD32VW55x_RELEASE_V1.0.2/MSDK/lwip/lwip-2.1.2/src/api\api_lib.c ****     len = netbuf_len((struct netbuf *)buf);
 2066              		.loc 1 657 5 is_stmt 1
 657:C:/Users/stapi/OneDrive/Desktop/GD32VW553/GD32VW55X_Wifi_BLE_SDK/GD32VW55x_RELEASE_V1.0.2/MSDK/lwip/lwip-2.1.2/src/api\api_lib.c ****     len = netbuf_len((struct netbuf *)buf);
 2067              		.loc 1 657 5
 2068 0110 05E5     		bne	a0,zero,.L165
 657:C:/Users/stapi/OneDrive/Desktop/GD32VW553/GD32VW55X_Wifi_BLE_SDK/GD32VW55x_RELEASE_V1.0.2/MSDK/lwip/lwip-2.1.2/src/api\api_lib.c ****     len = netbuf_len((struct netbuf *)buf);
 2069              		.loc 1 657 5 discriminator 1
 657:C:/Users/stapi/OneDrive/Desktop/GD32VW553/GD32VW55X_Wifi_BLE_SDK/GD32VW55x_RELEASE_V1.0.2/MSDK/lwip/lwip-2.1.2/src/api\api_lib.c ****     len = netbuf_len((struct netbuf *)buf);
 2070              		.loc 1 657 5 discriminator 1
 2071 0112 B7060000 		lui	a3,%hi(.LC0)
 2072 0116 B7050000 		lui	a1,%hi(.LC24)
 2073 011a 37050000 		lui	a0,%hi(.LC2)
 2074 011e 93860600 		addi	a3,a3,%lo(.LC0)
 2075 0122 13061029 		li	a2,657
 2076 0126 93850500 		addi	a1,a1,%lo(.LC24)
 2077 012a 13050500 		addi	a0,a0,%lo(.LC2)
 2078 012e 97000000 		call	printf
 2078      E7800000 
 2079              	.LVL219:
 2080              	.L166:
 657:C:/Users/stapi/OneDrive/Desktop/GD32VW553/GD32VW55X_Wifi_BLE_SDK/GD32VW55x_RELEASE_V1.0.2/MSDK/lwip/lwip-2.1.2/src/api\api_lib.c ****     len = netbuf_len((struct netbuf *)buf);
 2081              		.loc 1 657 5 discriminator 4
 657:C:/Users/stapi/OneDrive/Desktop/GD32VW553/GD32VW55X_Wifi_BLE_SDK/GD32VW55x_RELEASE_V1.0.2/MSDK/lwip/lwip-2.1.2/src/api\api_lib.c ****     len = netbuf_len((struct netbuf *)buf);
 2082              		.loc 1 657 5 discriminator 4
 657:C:/Users/stapi/OneDrive/Desktop/GD32VW553/GD32VW55X_Wifi_BLE_SDK/GD32VW55x_RELEASE_V1.0.2/MSDK/lwip/lwip-2.1.2/src/api\api_lib.c ****     len = netbuf_len((struct netbuf *)buf);
 2083              		.loc 1 657 5 discriminator 4
 2084 0136 01A0     		j	.L166
 2085              	.L165:
 657:C:/Users/stapi/OneDrive/Desktop/GD32VW553/GD32VW55X_Wifi_BLE_SDK/GD32VW55x_RELEASE_V1.0.2/MSDK/lwip/lwip-2.1.2/src/api\api_lib.c ****     len = netbuf_len((struct netbuf *)buf);
 2086              		.loc 1 657 5 discriminator 2
 657:C:/Users/stapi/OneDrive/Desktop/GD32VW553/GD32VW55X_Wifi_BLE_SDK/GD32VW55x_RELEASE_V1.0.2/MSDK/lwip/lwip-2.1.2/src/api\api_lib.c ****     len = netbuf_len((struct netbuf *)buf);
 2087              		.loc 1 657 5 discriminator 2
 658:C:/Users/stapi/OneDrive/Desktop/GD32VW553/GD32VW55X_Wifi_BLE_SDK/GD32VW55x_RELEASE_V1.0.2/MSDK/lwip/lwip-2.1.2/src/api\api_lib.c ****   }
 2088              		.loc 1 658 5 discriminator 2
 658:C:/Users/stapi/OneDrive/Desktop/GD32VW553/GD32VW55X_Wifi_BLE_SDK/GD32VW55x_RELEASE_V1.0.2/MSDK/lwip/lwip-2.1.2/src/api\api_lib.c ****   }
 2089              		.loc 1 658 9 is_stmt 0 discriminator 2
 2090 0138 1C41     		lw	a5,0(a0)
 2091 013a C9B7     		j	.L175
 2092              		.cfi_endproc
 2093              	.LFE15:
 2095              		.section	.rodata.netconn_recv_udp_raw_netbuf.str1.4,"aMS",@progbits,1
 2096              		.align	2
 2097              	.LC25:
 2098 0000 6E657463 		.string	"netconn_recv_udp_raw_netbuf: invalid conn"
 2098      6F6E6E5F 
 2098      72656376 
 2098      5F756470 
 2098      5F726177 
 2099              		.section	.text.netconn_recv_udp_raw_netbuf,"ax",@progbits
 2100              		.align	1
 2101              		.globl	netconn_recv_udp_raw_netbuf
 2103              	netconn_recv_udp_raw_netbuf:
 2104              	.LFB21:
 823:C:/Users/stapi/OneDrive/Desktop/GD32VW553/GD32VW55X_Wifi_BLE_SDK/GD32VW55x_RELEASE_V1.0.2/MSDK/lwip/lwip-2.1.2/src/api\api_lib.c ****   LWIP_ERROR("netconn_recv_udp_raw_netbuf: invalid conn", (conn != NULL) &&
 2105              		.loc 1 823 1 is_stmt 1
 2106              		.cfi_startproc
 2107              	.LVL220:
 2108 0000 17030000 		call	t0,__riscv_save_0
 2108      E7020300 
 2109              		.cfi_offset 1, -4
 2110              		.cfi_def_cfa_offset 16
 824:C:/Users/stapi/OneDrive/Desktop/GD32VW553/GD32VW55X_Wifi_BLE_SDK/GD32VW55x_RELEASE_V1.0.2/MSDK/lwip/lwip-2.1.2/src/api\api_lib.c ****              NETCONNTYPE_GROUP(netconn_type(conn)) != NETCONN_TCP, return ERR_ARG;);
 2111              		.loc 1 824 3
 824:C:/Users/stapi/OneDrive/Desktop/GD32VW553/GD32VW55X_Wifi_BLE_SDK/GD32VW55x_RELEASE_V1.0.2/MSDK/lwip/lwip-2.1.2/src/api\api_lib.c ****              NETCONNTYPE_GROUP(netconn_type(conn)) != NETCONN_TCP, return ERR_ARG;);
 2112              		.loc 1 824 3
 2113 0008 19C5     		beq	a0,zero,.L178
 824:C:/Users/stapi/OneDrive/Desktop/GD32VW553/GD32VW55X_Wifi_BLE_SDK/GD32VW55x_RELEASE_V1.0.2/MSDK/lwip/lwip-2.1.2/src/api\api_lib.c ****              NETCONNTYPE_GROUP(netconn_type(conn)) != NETCONN_TCP, return ERR_ARG;);
 2114              		.loc 1 824 3 is_stmt 0 discriminator 2
 2115 000a 1C41     		lw	a5,0(a0)
 2116 000c 4147     		li	a4,16
 2117 000e 93F7070F 		andi	a5,a5,240
 2118 0012 6395E702 		bne	a5,a4,.L179
 2119              	.L178:
 824:C:/Users/stapi/OneDrive/Desktop/GD32VW553/GD32VW55X_Wifi_BLE_SDK/GD32VW55x_RELEASE_V1.0.2/MSDK/lwip/lwip-2.1.2/src/api\api_lib.c ****              NETCONNTYPE_GROUP(netconn_type(conn)) != NETCONN_TCP, return ERR_ARG;);
 2120              		.loc 1 824 3 is_stmt 1 discriminator 3
 824:C:/Users/stapi/OneDrive/Desktop/GD32VW553/GD32VW55X_Wifi_BLE_SDK/GD32VW55x_RELEASE_V1.0.2/MSDK/lwip/lwip-2.1.2/src/api\api_lib.c ****              NETCONNTYPE_GROUP(netconn_type(conn)) != NETCONN_TCP, return ERR_ARG;);
 2121              		.loc 1 824 3 discriminator 3
 2122 0016 B7060000 		lui	a3,%hi(.LC0)
 2123 001a B7050000 		lui	a1,%hi(.LC25)
 2124              	.LVL221:
 2125 001e 37050000 		lui	a0,%hi(.LC2)
 2126              	.LVL222:
 2127 0022 93860600 		addi	a3,a3,%lo(.LC0)
 2128 0026 13068033 		li	a2,824
 2129 002a 93850500 		addi	a1,a1,%lo(.LC25)
 2130 002e 13050500 		addi	a0,a0,%lo(.LC2)
 2131 0032 97000000 		call	printf
 2131      E7800000 
 2132              	.LVL223:
 2133              	.L180:
 824:C:/Users/stapi/OneDrive/Desktop/GD32VW553/GD32VW55X_Wifi_BLE_SDK/GD32VW55x_RELEASE_V1.0.2/MSDK/lwip/lwip-2.1.2/src/api\api_lib.c ****              NETCONNTYPE_GROUP(netconn_type(conn)) != NETCONN_TCP, return ERR_ARG;);
 2134              		.loc 1 824 3 discriminator 1
 824:C:/Users/stapi/OneDrive/Desktop/GD32VW553/GD32VW55X_Wifi_BLE_SDK/GD32VW55x_RELEASE_V1.0.2/MSDK/lwip/lwip-2.1.2/src/api\api_lib.c ****              NETCONNTYPE_GROUP(netconn_type(conn)) != NETCONN_TCP, return ERR_ARG;);
 2135              		.loc 1 824 3 discriminator 1
 824:C:/Users/stapi/OneDrive/Desktop/GD32VW553/GD32VW55X_Wifi_BLE_SDK/GD32VW55x_RELEASE_V1.0.2/MSDK/lwip/lwip-2.1.2/src/api\api_lib.c ****              NETCONNTYPE_GROUP(netconn_type(conn)) != NETCONN_TCP, return ERR_ARG;);
 2136              		.loc 1 824 3 discriminator 1
 2137 003a 01A0     		j	.L180
 2138              	.LVL224:
 2139              	.L179:
 824:C:/Users/stapi/OneDrive/Desktop/GD32VW553/GD32VW55X_Wifi_BLE_SDK/GD32VW55x_RELEASE_V1.0.2/MSDK/lwip/lwip-2.1.2/src/api\api_lib.c ****              NETCONNTYPE_GROUP(netconn_type(conn)) != NETCONN_TCP, return ERR_ARG;);
 2140              		.loc 1 824 3 discriminator 4
 824:C:/Users/stapi/OneDrive/Desktop/GD32VW553/GD32VW55X_Wifi_BLE_SDK/GD32VW55x_RELEASE_V1.0.2/MSDK/lwip/lwip-2.1.2/src/api\api_lib.c ****              NETCONNTYPE_GROUP(netconn_type(conn)) != NETCONN_TCP, return ERR_ARG;);
 2141              		.loc 1 824 3 discriminator 4
 827:C:/Users/stapi/OneDrive/Desktop/GD32VW553/GD32VW55X_Wifi_BLE_SDK/GD32VW55x_RELEASE_V1.0.2/MSDK/lwip/lwip-2.1.2/src/api\api_lib.c **** }
 2142              		.loc 1 827 3 discriminator 4
 827:C:/Users/stapi/OneDrive/Desktop/GD32VW553/GD32VW55X_Wifi_BLE_SDK/GD32VW55x_RELEASE_V1.0.2/MSDK/lwip/lwip-2.1.2/src/api\api_lib.c **** }
 2143              		.loc 1 827 10 is_stmt 0 discriminator 4
 2144 003c 0146     		li	a2,0
 2145 003e 97000000 		call	netconn_recv_data
 2145      E7800000 
 2146              	.LVL225:
 828:C:/Users/stapi/OneDrive/Desktop/GD32VW553/GD32VW55X_Wifi_BLE_SDK/GD32VW55x_RELEASE_V1.0.2/MSDK/lwip/lwip-2.1.2/src/api\api_lib.c **** 
 2147              		.loc 1 828 1 discriminator 4
 2148 0046 17030000 		tail	__riscv_restore_0
 2148      67000300 
 2149              		.cfi_restore 1
 2150              		.cfi_def_cfa_offset 0
 2151              		.cfi_endproc
 2152              	.LFE21:
 2154              		.section	.text.netconn_recv_udp_raw_netbuf_flags,"ax",@progbits
 2155              		.align	1
 2156              		.globl	netconn_recv_udp_raw_netbuf_flags
 2158              	netconn_recv_udp_raw_netbuf_flags:
 2159              	.LFB22:
 843:C:/Users/stapi/OneDrive/Desktop/GD32VW553/GD32VW55X_Wifi_BLE_SDK/GD32VW55x_RELEASE_V1.0.2/MSDK/lwip/lwip-2.1.2/src/api\api_lib.c ****   LWIP_ERROR("netconn_recv_udp_raw_netbuf: invalid conn", (conn != NULL) &&
 2160              		.loc 1 843 1 is_stmt 1
 2161              		.cfi_startproc
 2162              	.LVL226:
 2163 0000 17030000 		call	t0,__riscv_save_0
 2163      E7020300 
 2164              		.cfi_offset 1, -4
 2165              		.cfi_def_cfa_offset 16
 844:C:/Users/stapi/OneDrive/Desktop/GD32VW553/GD32VW55X_Wifi_BLE_SDK/GD32VW55x_RELEASE_V1.0.2/MSDK/lwip/lwip-2.1.2/src/api\api_lib.c ****              NETCONNTYPE_GROUP(netconn_type(conn)) != NETCONN_TCP, return ERR_ARG;);
 2166              		.loc 1 844 3
 844:C:/Users/stapi/OneDrive/Desktop/GD32VW553/GD32VW55X_Wifi_BLE_SDK/GD32VW55x_RELEASE_V1.0.2/MSDK/lwip/lwip-2.1.2/src/api\api_lib.c ****              NETCONNTYPE_GROUP(netconn_type(conn)) != NETCONN_TCP, return ERR_ARG;);
 2167              		.loc 1 844 3
 2168 0008 19C5     		beq	a0,zero,.L186
 844:C:/Users/stapi/OneDrive/Desktop/GD32VW553/GD32VW55X_Wifi_BLE_SDK/GD32VW55x_RELEASE_V1.0.2/MSDK/lwip/lwip-2.1.2/src/api\api_lib.c ****              NETCONNTYPE_GROUP(netconn_type(conn)) != NETCONN_TCP, return ERR_ARG;);
 2169              		.loc 1 844 3 is_stmt 0 discriminator 2
 2170 000a 1C41     		lw	a5,0(a0)
 2171 000c 4147     		li	a4,16
 2172 000e 93F7070F 		andi	a5,a5,240
 2173 0012 6395E702 		bne	a5,a4,.L187
 2174              	.L186:
 844:C:/Users/stapi/OneDrive/Desktop/GD32VW553/GD32VW55X_Wifi_BLE_SDK/GD32VW55x_RELEASE_V1.0.2/MSDK/lwip/lwip-2.1.2/src/api\api_lib.c ****              NETCONNTYPE_GROUP(netconn_type(conn)) != NETCONN_TCP, return ERR_ARG;);
 2175              		.loc 1 844 3 is_stmt 1 discriminator 3
 844:C:/Users/stapi/OneDrive/Desktop/GD32VW553/GD32VW55X_Wifi_BLE_SDK/GD32VW55x_RELEASE_V1.0.2/MSDK/lwip/lwip-2.1.2/src/api\api_lib.c ****              NETCONNTYPE_GROUP(netconn_type(conn)) != NETCONN_TCP, return ERR_ARG;);
 2176              		.loc 1 844 3 discriminator 3
 2177 0016 B7060000 		lui	a3,%hi(.LC0)
 2178 001a B7050000 		lui	a1,%hi(.LC25)
 2179              	.LVL227:
 2180 001e 37050000 		lui	a0,%hi(.LC2)
 2181              	.LVL228:
 2182 0022 93860600 		addi	a3,a3,%lo(.LC0)
 2183 0026 1306C034 		li	a2,844
 2184              	.LVL229:
 2185 002a 93850500 		addi	a1,a1,%lo(.LC25)
 2186 002e 13050500 		addi	a0,a0,%lo(.LC2)
 2187 0032 97000000 		call	printf
 2187      E7800000 
 2188              	.LVL230:
 2189              	.L188:
 844:C:/Users/stapi/OneDrive/Desktop/GD32VW553/GD32VW55X_Wifi_BLE_SDK/GD32VW55x_RELEASE_V1.0.2/MSDK/lwip/lwip-2.1.2/src/api\api_lib.c ****              NETCONNTYPE_GROUP(netconn_type(conn)) != NETCONN_TCP, return ERR_ARG;);
 2190              		.loc 1 844 3 discriminator 1
 844:C:/Users/stapi/OneDrive/Desktop/GD32VW553/GD32VW55X_Wifi_BLE_SDK/GD32VW55x_RELEASE_V1.0.2/MSDK/lwip/lwip-2.1.2/src/api\api_lib.c ****              NETCONNTYPE_GROUP(netconn_type(conn)) != NETCONN_TCP, return ERR_ARG;);
 2191              		.loc 1 844 3 discriminator 1
 844:C:/Users/stapi/OneDrive/Desktop/GD32VW553/GD32VW55X_Wifi_BLE_SDK/GD32VW55x_RELEASE_V1.0.2/MSDK/lwip/lwip-2.1.2/src/api\api_lib.c ****              NETCONNTYPE_GROUP(netconn_type(conn)) != NETCONN_TCP, return ERR_ARG;);
 2192              		.loc 1 844 3 discriminator 1
 2193 003a 01A0     		j	.L188
 2194              	.LVL231:
 2195              	.L187:
 844:C:/Users/stapi/OneDrive/Desktop/GD32VW553/GD32VW55X_Wifi_BLE_SDK/GD32VW55x_RELEASE_V1.0.2/MSDK/lwip/lwip-2.1.2/src/api\api_lib.c ****              NETCONNTYPE_GROUP(netconn_type(conn)) != NETCONN_TCP, return ERR_ARG;);
 2196              		.loc 1 844 3 discriminator 4
 844:C:/Users/stapi/OneDrive/Desktop/GD32VW553/GD32VW55X_Wifi_BLE_SDK/GD32VW55x_RELEASE_V1.0.2/MSDK/lwip/lwip-2.1.2/src/api\api_lib.c ****              NETCONNTYPE_GROUP(netconn_type(conn)) != NETCONN_TCP, return ERR_ARG;);
 2197              		.loc 1 844 3 discriminator 4
 847:C:/Users/stapi/OneDrive/Desktop/GD32VW553/GD32VW55X_Wifi_BLE_SDK/GD32VW55x_RELEASE_V1.0.2/MSDK/lwip/lwip-2.1.2/src/api\api_lib.c **** }
 2198              		.loc 1 847 3 discriminator 4
 847:C:/Users/stapi/OneDrive/Desktop/GD32VW553/GD32VW55X_Wifi_BLE_SDK/GD32VW55x_RELEASE_V1.0.2/MSDK/lwip/lwip-2.1.2/src/api\api_lib.c **** }
 2199              		.loc 1 847 10 is_stmt 0 discriminator 4
 2200 003c 97000000 		call	netconn_recv_data
 2200      E7800000 
 2201              	.LVL232:
 848:C:/Users/stapi/OneDrive/Desktop/GD32VW553/GD32VW55X_Wifi_BLE_SDK/GD32VW55x_RELEASE_V1.0.2/MSDK/lwip/lwip-2.1.2/src/api\api_lib.c **** 
 2202              		.loc 1 848 1 discriminator 4
 2203 0044 17030000 		tail	__riscv_restore_0
 2203      67000300 
 2204              		.cfi_restore 1
 2205              		.cfi_def_cfa_offset 0
 2206              		.cfi_endproc
 2207              	.LFE22:
 2209              		.section	.text.netconn_recv_data_tcp,"ax",@progbits
 2210              		.align	1
 2212              	netconn_recv_data_tcp:
 2213              	.LFB18:
 704:C:/Users/stapi/OneDrive/Desktop/GD32VW553/GD32VW55X_Wifi_BLE_SDK/GD32VW55x_RELEASE_V1.0.2/MSDK/lwip/lwip-2.1.2/src/api\api_lib.c ****   err_t err;
 2214              		.loc 1 704 1 is_stmt 1
 2215              		.cfi_startproc
 2216              	.LVL233:
 2217 0000 17030000 		call	t0,__riscv_save_4
 2217      E7020300 
 2218              		.cfi_offset 19, -20
 2219              		.cfi_offset 18, -16
 2220              		.cfi_offset 9, -12
 2221              		.cfi_offset 8, -8
 2222              		.cfi_offset 1, -4
 2223              		.cfi_def_cfa_offset 32
 705:C:/Users/stapi/OneDrive/Desktop/GD32VW553/GD32VW55X_Wifi_BLE_SDK/GD32VW55x_RELEASE_V1.0.2/MSDK/lwip/lwip-2.1.2/src/api\api_lib.c ****   struct pbuf *buf;
 2224              		.loc 1 705 3
 706:C:/Users/stapi/OneDrive/Desktop/GD32VW553/GD32VW55X_Wifi_BLE_SDK/GD32VW55x_RELEASE_V1.0.2/MSDK/lwip/lwip-2.1.2/src/api\api_lib.c ****   API_MSG_VAR_DECLARE(msg);
 2225              		.loc 1 706 3
 707:C:/Users/stapi/OneDrive/Desktop/GD32VW553/GD32VW55X_Wifi_BLE_SDK/GD32VW55x_RELEASE_V1.0.2/MSDK/lwip/lwip-2.1.2/src/api\api_lib.c **** #if LWIP_MPU_COMPATIBLE
 2226              		.loc 1 707 3
 712:C:/Users/stapi/OneDrive/Desktop/GD32VW553/GD32VW55X_Wifi_BLE_SDK/GD32VW55x_RELEASE_V1.0.2/MSDK/lwip/lwip-2.1.2/src/api\api_lib.c ****     /* This only happens when calling this function more than once *after* receiving FIN */
 2227              		.loc 1 712 3
 712:C:/Users/stapi/OneDrive/Desktop/GD32VW553/GD32VW55X_Wifi_BLE_SDK/GD32VW55x_RELEASE_V1.0.2/MSDK/lwip/lwip-2.1.2/src/api\api_lib.c ****     /* This only happens when calling this function more than once *after* receiving FIN */
 2228              		.loc 1 712 6 is_stmt 0
 2229 0008 5C49     		lw	a5,20(a0)
 704:C:/Users/stapi/OneDrive/Desktop/GD32VW553/GD32VW55X_Wifi_BLE_SDK/GD32VW55x_RELEASE_V1.0.2/MSDK/lwip/lwip-2.1.2/src/api\api_lib.c ****   err_t err;
 2230              		.loc 1 704 1
 2231 000a 0111     		addi	sp,sp,-32
 2232              		.cfi_def_cfa_offset 64
 714:C:/Users/stapi/OneDrive/Desktop/GD32VW553/GD32VW55X_Wifi_BLE_SDK/GD32VW55x_RELEASE_V1.0.2/MSDK/lwip/lwip-2.1.2/src/api\api_lib.c ****   }
 2233              		.loc 1 714 12
 2234 000c D554     		li	s1,-11
 712:C:/Users/stapi/OneDrive/Desktop/GD32VW553/GD32VW55X_Wifi_BLE_SDK/GD32VW55x_RELEASE_V1.0.2/MSDK/lwip/lwip-2.1.2/src/api\api_lib.c ****     /* This only happens when calling this function more than once *after* receiving FIN */
 2235              		.loc 1 712 6
 2236 000e D1C3     		beq	a5,zero,.L194
 716:C:/Users/stapi/OneDrive/Desktop/GD32VW553/GD32VW55X_Wifi_BLE_SDK/GD32VW55x_RELEASE_V1.0.2/MSDK/lwip/lwip-2.1.2/src/api\api_lib.c ****     netconn_clear_flags(conn, NETCONN_FIN_RX_PENDING);
 2237              		.loc 1 716 7
 2238 0010 83474502 		lbu	a5,36(a0)
 2239 0014 2A84     		mv	s0,a0
 716:C:/Users/stapi/OneDrive/Desktop/GD32VW553/GD32VW55X_Wifi_BLE_SDK/GD32VW55x_RELEASE_V1.0.2/MSDK/lwip/lwip-2.1.2/src/api\api_lib.c ****     netconn_clear_flags(conn, NETCONN_FIN_RX_PENDING);
 2240              		.loc 1 716 3 is_stmt 1
 716:C:/Users/stapi/OneDrive/Desktop/GD32VW553/GD32VW55X_Wifi_BLE_SDK/GD32VW55x_RELEASE_V1.0.2/MSDK/lwip/lwip-2.1.2/src/api\api_lib.c ****     netconn_clear_flags(conn, NETCONN_FIN_RX_PENDING);
 2241              		.loc 1 716 6 is_stmt 0
 2242 0016 13974760 		sext.b	a4,a5
 2243 001a 63570702 		bge	a4,zero,.L195
 717:C:/Users/stapi/OneDrive/Desktop/GD32VW553/GD32VW55X_Wifi_BLE_SDK/GD32VW55x_RELEASE_V1.0.2/MSDK/lwip/lwip-2.1.2/src/api\api_lib.c ****     goto handle_fin;
 2244              		.loc 1 717 5 is_stmt 1
 717:C:/Users/stapi/OneDrive/Desktop/GD32VW553/GD32VW55X_Wifi_BLE_SDK/GD32VW55x_RELEASE_V1.0.2/MSDK/lwip/lwip-2.1.2/src/api\api_lib.c ****     goto handle_fin;
 2245              		.loc 1 717 5
 2246 001e 93F7F707 		andi	a5,a5,127
 2247 0022 2302F502 		sb	a5,36(a0)
 717:C:/Users/stapi/OneDrive/Desktop/GD32VW553/GD32VW55X_Wifi_BLE_SDK/GD32VW55x_RELEASE_V1.0.2/MSDK/lwip/lwip-2.1.2/src/api\api_lib.c ****     goto handle_fin;
 2248              		.loc 1 717 5
 718:C:/Users/stapi/OneDrive/Desktop/GD32VW553/GD32VW55X_Wifi_BLE_SDK/GD32VW55x_RELEASE_V1.0.2/MSDK/lwip/lwip-2.1.2/src/api\api_lib.c ****   }
 2249              		.loc 1 718 5
 2250              	.LVL234:
 2251              	.L196:
 753:C:/Users/stapi/OneDrive/Desktop/GD32VW553/GD32VW55X_Wifi_BLE_SDK/GD32VW55x_RELEASE_V1.0.2/MSDK/lwip/lwip-2.1.2/src/api\api_lib.c ****       if (conn->pcb.ip == NULL) {
 2252              		.loc 1 753 7
 2253 0026 5C54     		lw	a5,44(s0)
 2254 0028 89C7     		beq	a5,zero,.L199
 753:C:/Users/stapi/OneDrive/Desktop/GD32VW553/GD32VW55X_Wifi_BLE_SDK/GD32VW55x_RELEASE_V1.0.2/MSDK/lwip/lwip-2.1.2/src/api\api_lib.c ****       if (conn->pcb.ip == NULL) {
 2255              		.loc 1 753 7 discriminator 1
 2256 002a 0146     		li	a2,0
 2257 002c 8545     		li	a1,1
 2258 002e 2285     		mv	a0,s0
 2259 0030 8297     		jalr	a5
 2260              	.LVL235:
 2261              	.L199:
 753:C:/Users/stapi/OneDrive/Desktop/GD32VW553/GD32VW55X_Wifi_BLE_SDK/GD32VW55x_RELEASE_V1.0.2/MSDK/lwip/lwip-2.1.2/src/api\api_lib.c ****       if (conn->pcb.ip == NULL) {
 2262              		.loc 1 753 47 discriminator 3
 754:C:/Users/stapi/OneDrive/Desktop/GD32VW553/GD32VW55X_Wifi_BLE_SDK/GD32VW55x_RELEASE_V1.0.2/MSDK/lwip/lwip-2.1.2/src/api\api_lib.c ****         /* race condition: RST during recv */
 2263              		.loc 1 754 7 discriminator 3
 754:C:/Users/stapi/OneDrive/Desktop/GD32VW553/GD32VW55X_Wifi_BLE_SDK/GD32VW55x_RELEASE_V1.0.2/MSDK/lwip/lwip-2.1.2/src/api\api_lib.c ****         /* race condition: RST during recv */
 2264              		.loc 1 754 10 is_stmt 0 discriminator 3
 2265 0032 1C44     		lw	a5,8(s0)
 2266 0034 ADE7     		bne	a5,zero,.L200
 756:C:/Users/stapi/OneDrive/Desktop/GD32VW553/GD32VW55X_Wifi_BLE_SDK/GD32VW55x_RELEASE_V1.0.2/MSDK/lwip/lwip-2.1.2/src/api\api_lib.c ****         if (err != ERR_OK) {
 2267              		.loc 1 756 9 is_stmt 1
 756:C:/Users/stapi/OneDrive/Desktop/GD32VW553/GD32VW55X_Wifi_BLE_SDK/GD32VW55x_RELEASE_V1.0.2/MSDK/lwip/lwip-2.1.2/src/api\api_lib.c ****         if (err != ERR_OK) {
 2268              		.loc 1 756 15 is_stmt 0
 2269 0036 2285     		mv	a0,s0
 2270 0038 97000000 		call	netconn_err
 2270      E7800000 
 2271              	.LVL236:
 2272 0040 AA84     		mv	s1,a0
 2273              	.LVL237:
 757:C:/Users/stapi/OneDrive/Desktop/GD32VW553/GD32VW55X_Wifi_BLE_SDK/GD32VW55x_RELEASE_V1.0.2/MSDK/lwip/lwip-2.1.2/src/api\api_lib.c ****           return err;
 2274              		.loc 1 757 9 is_stmt 1
 757:C:/Users/stapi/OneDrive/Desktop/GD32VW553/GD32VW55X_Wifi_BLE_SDK/GD32VW55x_RELEASE_V1.0.2/MSDK/lwip/lwip-2.1.2/src/api\api_lib.c ****           return err;
 2275              		.loc 1 757 12 is_stmt 0
 2276 0042 21E9     		bne	a0,zero,.L194
 760:C:/Users/stapi/OneDrive/Desktop/GD32VW553/GD32VW55X_Wifi_BLE_SDK/GD32VW55x_RELEASE_V1.0.2/MSDK/lwip/lwip-2.1.2/src/api\api_lib.c ****       }
 2277              		.loc 1 760 16
 2278 0044 C954     		li	s1,-14
 2279 0046 B1A0     		j	.L194
 2280              	.LVL238:
 2281              	.L195:
 2282 0048 AE89     		mv	s3,a1
 2283 004a 3289     		mv	s2,a2
 721:C:/Users/stapi/OneDrive/Desktop/GD32VW553/GD32VW55X_Wifi_BLE_SDK/GD32VW55x_RELEASE_V1.0.2/MSDK/lwip/lwip-2.1.2/src/api\api_lib.c ****     /* need to allocate API message here so empty message pool does not result in event loss
 2284              		.loc 1 721 3 is_stmt 1
 724:C:/Users/stapi/OneDrive/Desktop/GD32VW553/GD32VW55X_Wifi_BLE_SDK/GD32VW55x_RELEASE_V1.0.2/MSDK/lwip/lwip-2.1.2/src/api\api_lib.c ****   }
 2285              		.loc 1 724 27
 727:C:/Users/stapi/OneDrive/Desktop/GD32VW553/GD32VW55X_Wifi_BLE_SDK/GD32VW55x_RELEASE_V1.0.2/MSDK/lwip/lwip-2.1.2/src/api\api_lib.c ****   if (err != ERR_OK) {
 2286              		.loc 1 727 3
 727:C:/Users/stapi/OneDrive/Desktop/GD32VW553/GD32VW55X_Wifi_BLE_SDK/GD32VW55x_RELEASE_V1.0.2/MSDK/lwip/lwip-2.1.2/src/api\api_lib.c ****   if (err != ERR_OK) {
 2287              		.loc 1 727 9 is_stmt 0
 2288 004c 97000000 		call	netconn_recv_data
 2288      E7800000 
 2289              	.LVL239:
 2290 0054 AA84     		mv	s1,a0
 2291              	.LVL240:
 728:C:/Users/stapi/OneDrive/Desktop/GD32VW553/GD32VW55X_Wifi_BLE_SDK/GD32VW55x_RELEASE_V1.0.2/MSDK/lwip/lwip-2.1.2/src/api\api_lib.c ****     if (!(apiflags & NETCONN_NOAUTORCVD)) {
 2292              		.loc 1 728 3 is_stmt 1
 728:C:/Users/stapi/OneDrive/Desktop/GD32VW553/GD32VW55X_Wifi_BLE_SDK/GD32VW55x_RELEASE_V1.0.2/MSDK/lwip/lwip-2.1.2/src/api\api_lib.c ****     if (!(apiflags & NETCONN_NOAUTORCVD)) {
 2293              		.loc 1 728 6 is_stmt 0
 2294 0056 15ED     		bne	a0,zero,.L194
 734:C:/Users/stapi/OneDrive/Desktop/GD32VW553/GD32VW55X_Wifi_BLE_SDK/GD32VW55x_RELEASE_V1.0.2/MSDK/lwip/lwip-2.1.2/src/api\api_lib.c ****   if (!(apiflags & NETCONN_NOAUTORCVD)) {
 2295              		.loc 1 734 3 is_stmt 1
 735:C:/Users/stapi/OneDrive/Desktop/GD32VW553/GD32VW55X_Wifi_BLE_SDK/GD32VW55x_RELEASE_V1.0.2/MSDK/lwip/lwip-2.1.2/src/api\api_lib.c ****     /* Let the stack know that we have taken the data. */
 2296              		.loc 1 735 6 is_stmt 0
 2297 0058 93778900 		andi	a5,s2,8
 734:C:/Users/stapi/OneDrive/Desktop/GD32VW553/GD32VW55X_Wifi_BLE_SDK/GD32VW55x_RELEASE_V1.0.2/MSDK/lwip/lwip-2.1.2/src/api\api_lib.c ****   if (!(apiflags & NETCONN_NOAUTORCVD)) {
 2298              		.loc 1 734 7
 2299 005c 83A90900 		lw	s3,0(s3)
 2300              	.LVL241:
 735:C:/Users/stapi/OneDrive/Desktop/GD32VW553/GD32VW55X_Wifi_BLE_SDK/GD32VW55x_RELEASE_V1.0.2/MSDK/lwip/lwip-2.1.2/src/api\api_lib.c ****     /* Let the stack know that we have taken the data. */
 2301              		.loc 1 735 3 is_stmt 1
 735:C:/Users/stapi/OneDrive/Desktop/GD32VW553/GD32VW55X_Wifi_BLE_SDK/GD32VW55x_RELEASE_V1.0.2/MSDK/lwip/lwip-2.1.2/src/api\api_lib.c ****     /* Let the stack know that we have taken the data. */
 2302              		.loc 1 735 6 is_stmt 0
 2303 0060 81EF     		bne	a5,zero,.L197
 2304              	.LBB39:
 737:C:/Users/stapi/OneDrive/Desktop/GD32VW553/GD32VW55X_Wifi_BLE_SDK/GD32VW55x_RELEASE_V1.0.2/MSDK/lwip/lwip-2.1.2/src/api\api_lib.c ****     /* don't care for the return value of lwip_netconn_do_recv */
 2305              		.loc 1 737 5 is_stmt 1
 737:C:/Users/stapi/OneDrive/Desktop/GD32VW553/GD32VW55X_Wifi_BLE_SDK/GD32VW55x_RELEASE_V1.0.2/MSDK/lwip/lwip-2.1.2/src/api\api_lib.c ****     /* don't care for the return value of lwip_netconn_do_recv */
 2306              		.loc 1 737 11 is_stmt 0
 2307 0062 8545     		li	a1,1
 2308 0064 63840900 		beq	s3,zero,.L198
 737:C:/Users/stapi/OneDrive/Desktop/GD32VW553/GD32VW55X_Wifi_BLE_SDK/GD32VW55x_RELEASE_V1.0.2/MSDK/lwip/lwip-2.1.2/src/api\api_lib.c ****     /* don't care for the return value of lwip_netconn_do_recv */
 2309              		.loc 1 737 11 discriminator 1
 2310 0068 83D58900 		lhu	a1,8(s3)
 2311              	.L198:
 2312              	.LVL242:
 740:C:/Users/stapi/OneDrive/Desktop/GD32VW553/GD32VW55X_Wifi_BLE_SDK/GD32VW55x_RELEASE_V1.0.2/MSDK/lwip/lwip-2.1.2/src/api\api_lib.c ****     API_MSG_VAR_FREE(msg);
 2313              		.loc 1 740 5 is_stmt 1 discriminator 4
 2314 006c 0A86     		mv	a2,sp
 2315 006e 2285     		mv	a0,s0
 2316              	.LVL243:
 2317 0070 97000000 		call	netconn_tcp_recvd_msg
 2317      E7800000 
 2318              	.LVL244:
 2319              	.L197:
 741:C:/Users/stapi/OneDrive/Desktop/GD32VW553/GD32VW55X_Wifi_BLE_SDK/GD32VW55x_RELEASE_V1.0.2/MSDK/lwip/lwip-2.1.2/src/api\api_lib.c ****   }
 2320              		.loc 1 741 26
 2321              	.LBE39:
 745:C:/Users/stapi/OneDrive/Desktop/GD32VW553/GD32VW55X_Wifi_BLE_SDK/GD32VW55x_RELEASE_V1.0.2/MSDK/lwip/lwip-2.1.2/src/api\api_lib.c ****     if (apiflags & NETCONN_NOFIN) {
 2322              		.loc 1 745 3
 745:C:/Users/stapi/OneDrive/Desktop/GD32VW553/GD32VW55X_Wifi_BLE_SDK/GD32VW55x_RELEASE_V1.0.2/MSDK/lwip/lwip-2.1.2/src/api\api_lib.c ****     if (apiflags & NETCONN_NOFIN) {
 2323              		.loc 1 745 6 is_stmt 0
 2324 0078 639D0900 		bne	s3,zero,.L194
 746:C:/Users/stapi/OneDrive/Desktop/GD32VW553/GD32VW55X_Wifi_BLE_SDK/GD32VW55x_RELEASE_V1.0.2/MSDK/lwip/lwip-2.1.2/src/api\api_lib.c ****       /* received a FIN but the caller cannot handle it right now:
 2325              		.loc 1 746 5 is_stmt 1
 746:C:/Users/stapi/OneDrive/Desktop/GD32VW553/GD32VW55X_Wifi_BLE_SDK/GD32VW55x_RELEASE_V1.0.2/MSDK/lwip/lwip-2.1.2/src/api\api_lib.c ****       /* received a FIN but the caller cannot handle it right now:
 2326              		.loc 1 746 8 is_stmt 0
 2327 007c 13790901 		andi	s2,s2,16
 2328 0080 E30309FA 		beq	s2,zero,.L196
 749:C:/Users/stapi/OneDrive/Desktop/GD32VW553/GD32VW55X_Wifi_BLE_SDK/GD32VW55x_RELEASE_V1.0.2/MSDK/lwip/lwip-2.1.2/src/api\api_lib.c ****       return ERR_WOULDBLOCK;
 2329              		.loc 1 749 7 is_stmt 1
 749:C:/Users/stapi/OneDrive/Desktop/GD32VW553/GD32VW55X_Wifi_BLE_SDK/GD32VW55x_RELEASE_V1.0.2/MSDK/lwip/lwip-2.1.2/src/api\api_lib.c ****       return ERR_WOULDBLOCK;
 2330              		.loc 1 749 7
 2331 0084 83474402 		lbu	a5,36(s0)
 750:C:/Users/stapi/OneDrive/Desktop/GD32VW553/GD32VW55X_Wifi_BLE_SDK/GD32VW55x_RELEASE_V1.0.2/MSDK/lwip/lwip-2.1.2/src/api\api_lib.c ****     } else {
 2332              		.loc 1 750 14 is_stmt 0
 2333 0088 E554     		li	s1,-7
 749:C:/Users/stapi/OneDrive/Desktop/GD32VW553/GD32VW55X_Wifi_BLE_SDK/GD32VW55x_RELEASE_V1.0.2/MSDK/lwip/lwip-2.1.2/src/api\api_lib.c ****       return ERR_WOULDBLOCK;
 2334              		.loc 1 749 7
 2335 008a 93E707F8 		ori	a5,a5,-128
 2336 008e 2302F402 		sb	a5,36(s0)
 749:C:/Users/stapi/OneDrive/Desktop/GD32VW553/GD32VW55X_Wifi_BLE_SDK/GD32VW55x_RELEASE_V1.0.2/MSDK/lwip/lwip-2.1.2/src/api\api_lib.c ****       return ERR_WOULDBLOCK;
 2337              		.loc 1 749 7 is_stmt 1
 750:C:/Users/stapi/OneDrive/Desktop/GD32VW553/GD32VW55X_Wifi_BLE_SDK/GD32VW55x_RELEASE_V1.0.2/MSDK/lwip/lwip-2.1.2/src/api\api_lib.c ****     } else {
 2338              		.loc 1 750 7
 2339              	.LVL245:
 2340              	.L194:
 769:C:/Users/stapi/OneDrive/Desktop/GD32VW553/GD32VW55X_Wifi_BLE_SDK/GD32VW55x_RELEASE_V1.0.2/MSDK/lwip/lwip-2.1.2/src/api\api_lib.c **** 
 2341              		.loc 1 769 1 is_stmt 0
 2342 0092 2685     		mv	a0,s1
 2343 0094 0561     		addi	sp,sp,32
 2344              		.cfi_remember_state
 2345              		.cfi_def_cfa_offset 0
 2346 0096 17030000 		tail	__riscv_restore_4
 2346      67000300 
 2347              		.cfi_restore 19
 2348              		.cfi_restore 18
 2349              		.cfi_restore 9
 2350              		.cfi_restore 8
 2351              		.cfi_restore 1
 2352              		.cfi_def_cfa_offset -32
 2353              	.LVL246:
 2354              	.L200:
 2355              		.cfi_restore_state
 763:C:/Users/stapi/OneDrive/Desktop/GD32VW553/GD32VW55X_Wifi_BLE_SDK/GD32VW55x_RELEASE_V1.0.2/MSDK/lwip/lwip-2.1.2/src/api\api_lib.c ****       /* Don' store ERR_CLSD as conn->err since we are only half-closed */
 2356              		.loc 1 763 7 is_stmt 1
 2357 009e 8545     		li	a1,1
 2358 00a0 2285     		mv	a0,s0
 2359 00a2 97000000 		call	netconn_close_shutdown
 2359      E7800000 
 2360              	.LVL247:
 765:C:/Users/stapi/OneDrive/Desktop/GD32VW553/GD32VW55X_Wifi_BLE_SDK/GD32VW55x_RELEASE_V1.0.2/MSDK/lwip/lwip-2.1.2/src/api\api_lib.c ****     }
 2361              		.loc 1 765 7
 765:C:/Users/stapi/OneDrive/Desktop/GD32VW553/GD32VW55X_Wifi_BLE_SDK/GD32VW55x_RELEASE_V1.0.2/MSDK/lwip/lwip-2.1.2/src/api\api_lib.c ****     }
 2362              		.loc 1 765 14 is_stmt 0
 2363 00aa C554     		li	s1,-15
 2364 00ac DDB7     		j	.L194
 2365              		.cfi_endproc
 2366              	.LFE18:
 2368              		.section	.text.netconn_recv_tcp_pbuf,"ax",@progbits
 2369              		.align	1
 2370              		.globl	netconn_recv_tcp_pbuf
 2372              	netconn_recv_tcp_pbuf:
 2373              	.LFB19:
 783:C:/Users/stapi/OneDrive/Desktop/GD32VW553/GD32VW55X_Wifi_BLE_SDK/GD32VW55x_RELEASE_V1.0.2/MSDK/lwip/lwip-2.1.2/src/api\api_lib.c ****   LWIP_ERROR("netconn_recv_tcp_pbuf: invalid conn", (conn != NULL) &&
 2374              		.loc 1 783 1 is_stmt 1
 2375              		.cfi_startproc
 2376              	.LVL248:
 2377 0000 17030000 		call	t0,__riscv_save_0
 2377      E7020300 
 2378              		.cfi_offset 1, -4
 2379              		.cfi_def_cfa_offset 16
 784:C:/Users/stapi/OneDrive/Desktop/GD32VW553/GD32VW55X_Wifi_BLE_SDK/GD32VW55x_RELEASE_V1.0.2/MSDK/lwip/lwip-2.1.2/src/api\api_lib.c ****              NETCONNTYPE_GROUP(netconn_type(conn)) == NETCONN_TCP, return ERR_ARG;);
 2380              		.loc 1 784 3
 784:C:/Users/stapi/OneDrive/Desktop/GD32VW553/GD32VW55X_Wifi_BLE_SDK/GD32VW55x_RELEASE_V1.0.2/MSDK/lwip/lwip-2.1.2/src/api\api_lib.c ****              NETCONNTYPE_GROUP(netconn_type(conn)) == NETCONN_TCP, return ERR_ARG;);
 2381              		.loc 1 784 3
 2382 0008 19C5     		beq	a0,zero,.L211
 784:C:/Users/stapi/OneDrive/Desktop/GD32VW553/GD32VW55X_Wifi_BLE_SDK/GD32VW55x_RELEASE_V1.0.2/MSDK/lwip/lwip-2.1.2/src/api\api_lib.c ****              NETCONNTYPE_GROUP(netconn_type(conn)) == NETCONN_TCP, return ERR_ARG;);
 2383              		.loc 1 784 3 is_stmt 0 discriminator 2
 2384 000a 1C41     		lw	a5,0(a0)
 2385 000c 4147     		li	a4,16
 2386 000e 93F7070F 		andi	a5,a5,240
 2387 0012 6385E702 		beq	a5,a4,.L212
 2388              	.L211:
 784:C:/Users/stapi/OneDrive/Desktop/GD32VW553/GD32VW55X_Wifi_BLE_SDK/GD32VW55x_RELEASE_V1.0.2/MSDK/lwip/lwip-2.1.2/src/api\api_lib.c ****              NETCONNTYPE_GROUP(netconn_type(conn)) == NETCONN_TCP, return ERR_ARG;);
 2389              		.loc 1 784 3 is_stmt 1 discriminator 3
 784:C:/Users/stapi/OneDrive/Desktop/GD32VW553/GD32VW55X_Wifi_BLE_SDK/GD32VW55x_RELEASE_V1.0.2/MSDK/lwip/lwip-2.1.2/src/api\api_lib.c ****              NETCONNTYPE_GROUP(netconn_type(conn)) == NETCONN_TCP, return ERR_ARG;);
 2390              		.loc 1 784 3 discriminator 3
 2391 0016 B7060000 		lui	a3,%hi(.LC0)
 2392 001a B7050000 		lui	a1,%hi(.LC1)
 2393              	.LVL249:
 2394 001e 37050000 		lui	a0,%hi(.LC2)
 2395              	.LVL250:
 2396 0022 93860600 		addi	a3,a3,%lo(.LC0)
 2397 0026 13060031 		li	a2,784
 2398 002a 93850500 		addi	a1,a1,%lo(.LC1)
 2399 002e 13050500 		addi	a0,a0,%lo(.LC2)
 2400 0032 97000000 		call	printf
 2400      E7800000 
 2401              	.LVL251:
 2402              	.L213:
 784:C:/Users/stapi/OneDrive/Desktop/GD32VW553/GD32VW55X_Wifi_BLE_SDK/GD32VW55x_RELEASE_V1.0.2/MSDK/lwip/lwip-2.1.2/src/api\api_lib.c ****              NETCONNTYPE_GROUP(netconn_type(conn)) == NETCONN_TCP, return ERR_ARG;);
 2403              		.loc 1 784 3 discriminator 1
 784:C:/Users/stapi/OneDrive/Desktop/GD32VW553/GD32VW55X_Wifi_BLE_SDK/GD32VW55x_RELEASE_V1.0.2/MSDK/lwip/lwip-2.1.2/src/api\api_lib.c ****              NETCONNTYPE_GROUP(netconn_type(conn)) == NETCONN_TCP, return ERR_ARG;);
 2404              		.loc 1 784 3 discriminator 1
 784:C:/Users/stapi/OneDrive/Desktop/GD32VW553/GD32VW55X_Wifi_BLE_SDK/GD32VW55x_RELEASE_V1.0.2/MSDK/lwip/lwip-2.1.2/src/api\api_lib.c ****              NETCONNTYPE_GROUP(netconn_type(conn)) == NETCONN_TCP, return ERR_ARG;);
 2405              		.loc 1 784 3 discriminator 1
 2406 003a 01A0     		j	.L213
 2407              	.LVL252:
 2408              	.L212:
 784:C:/Users/stapi/OneDrive/Desktop/GD32VW553/GD32VW55X_Wifi_BLE_SDK/GD32VW55x_RELEASE_V1.0.2/MSDK/lwip/lwip-2.1.2/src/api\api_lib.c ****              NETCONNTYPE_GROUP(netconn_type(conn)) == NETCONN_TCP, return ERR_ARG;);
 2409              		.loc 1 784 3 discriminator 4
 784:C:/Users/stapi/OneDrive/Desktop/GD32VW553/GD32VW55X_Wifi_BLE_SDK/GD32VW55x_RELEASE_V1.0.2/MSDK/lwip/lwip-2.1.2/src/api\api_lib.c ****              NETCONNTYPE_GROUP(netconn_type(conn)) == NETCONN_TCP, return ERR_ARG;);
 2410              		.loc 1 784 3 discriminator 4
 787:C:/Users/stapi/OneDrive/Desktop/GD32VW553/GD32VW55X_Wifi_BLE_SDK/GD32VW55x_RELEASE_V1.0.2/MSDK/lwip/lwip-2.1.2/src/api\api_lib.c **** }
 2411              		.loc 1 787 3 discriminator 4
 787:C:/Users/stapi/OneDrive/Desktop/GD32VW553/GD32VW55X_Wifi_BLE_SDK/GD32VW55x_RELEASE_V1.0.2/MSDK/lwip/lwip-2.1.2/src/api\api_lib.c **** }
 2412              		.loc 1 787 10 is_stmt 0 discriminator 4
 2413 003c 0146     		li	a2,0
 2414 003e 97000000 		call	netconn_recv_data_tcp
 2414      E7800000 
 2415              	.LVL253:
 788:C:/Users/stapi/OneDrive/Desktop/GD32VW553/GD32VW55X_Wifi_BLE_SDK/GD32VW55x_RELEASE_V1.0.2/MSDK/lwip/lwip-2.1.2/src/api\api_lib.c **** 
 2416              		.loc 1 788 1 discriminator 4
 2417 0046 17030000 		tail	__riscv_restore_0
 2417      67000300 
 2418              		.cfi_restore 1
 2419              		.cfi_def_cfa_offset 0
 2420              		.cfi_endproc
 2421              	.LFE19:
 2423              		.section	.text.netconn_recv_tcp_pbuf_flags,"ax",@progbits
 2424              		.align	1
 2425              		.globl	netconn_recv_tcp_pbuf_flags
 2427              	netconn_recv_tcp_pbuf_flags:
 2428              	.LFB20:
 804:C:/Users/stapi/OneDrive/Desktop/GD32VW553/GD32VW55X_Wifi_BLE_SDK/GD32VW55x_RELEASE_V1.0.2/MSDK/lwip/lwip-2.1.2/src/api\api_lib.c ****   LWIP_ERROR("netconn_recv_tcp_pbuf: invalid conn", (conn != NULL) &&
 2429              		.loc 1 804 1 is_stmt 1
 2430              		.cfi_startproc
 2431              	.LVL254:
 2432 0000 17030000 		call	t0,__riscv_save_0
 2432      E7020300 
 2433              		.cfi_offset 1, -4
 2434              		.cfi_def_cfa_offset 16
 805:C:/Users/stapi/OneDrive/Desktop/GD32VW553/GD32VW55X_Wifi_BLE_SDK/GD32VW55x_RELEASE_V1.0.2/MSDK/lwip/lwip-2.1.2/src/api\api_lib.c ****              NETCONNTYPE_GROUP(netconn_type(conn)) == NETCONN_TCP, return ERR_ARG;);
 2435              		.loc 1 805 3
 805:C:/Users/stapi/OneDrive/Desktop/GD32VW553/GD32VW55X_Wifi_BLE_SDK/GD32VW55x_RELEASE_V1.0.2/MSDK/lwip/lwip-2.1.2/src/api\api_lib.c ****              NETCONNTYPE_GROUP(netconn_type(conn)) == NETCONN_TCP, return ERR_ARG;);
 2436              		.loc 1 805 3
 2437 0008 19C5     		beq	a0,zero,.L219
 805:C:/Users/stapi/OneDrive/Desktop/GD32VW553/GD32VW55X_Wifi_BLE_SDK/GD32VW55x_RELEASE_V1.0.2/MSDK/lwip/lwip-2.1.2/src/api\api_lib.c ****              NETCONNTYPE_GROUP(netconn_type(conn)) == NETCONN_TCP, return ERR_ARG;);
 2438              		.loc 1 805 3 is_stmt 0 discriminator 2
 2439 000a 1C41     		lw	a5,0(a0)
 2440 000c 4147     		li	a4,16
 2441 000e 93F7070F 		andi	a5,a5,240
 2442 0012 6385E702 		beq	a5,a4,.L220
 2443              	.L219:
 805:C:/Users/stapi/OneDrive/Desktop/GD32VW553/GD32VW55X_Wifi_BLE_SDK/GD32VW55x_RELEASE_V1.0.2/MSDK/lwip/lwip-2.1.2/src/api\api_lib.c ****              NETCONNTYPE_GROUP(netconn_type(conn)) == NETCONN_TCP, return ERR_ARG;);
 2444              		.loc 1 805 3 is_stmt 1 discriminator 3
 805:C:/Users/stapi/OneDrive/Desktop/GD32VW553/GD32VW55X_Wifi_BLE_SDK/GD32VW55x_RELEASE_V1.0.2/MSDK/lwip/lwip-2.1.2/src/api\api_lib.c ****              NETCONNTYPE_GROUP(netconn_type(conn)) == NETCONN_TCP, return ERR_ARG;);
 2445              		.loc 1 805 3 discriminator 3
 2446 0016 B7060000 		lui	a3,%hi(.LC0)
 2447 001a B7050000 		lui	a1,%hi(.LC1)
 2448              	.LVL255:
 2449 001e 37050000 		lui	a0,%hi(.LC2)
 2450              	.LVL256:
 2451 0022 93860600 		addi	a3,a3,%lo(.LC0)
 2452 0026 13065032 		li	a2,805
 2453              	.LVL257:
 2454 002a 93850500 		addi	a1,a1,%lo(.LC1)
 2455 002e 13050500 		addi	a0,a0,%lo(.LC2)
 2456 0032 97000000 		call	printf
 2456      E7800000 
 2457              	.LVL258:
 2458              	.L221:
 805:C:/Users/stapi/OneDrive/Desktop/GD32VW553/GD32VW55X_Wifi_BLE_SDK/GD32VW55x_RELEASE_V1.0.2/MSDK/lwip/lwip-2.1.2/src/api\api_lib.c ****              NETCONNTYPE_GROUP(netconn_type(conn)) == NETCONN_TCP, return ERR_ARG;);
 2459              		.loc 1 805 3 discriminator 1
 805:C:/Users/stapi/OneDrive/Desktop/GD32VW553/GD32VW55X_Wifi_BLE_SDK/GD32VW55x_RELEASE_V1.0.2/MSDK/lwip/lwip-2.1.2/src/api\api_lib.c ****              NETCONNTYPE_GROUP(netconn_type(conn)) == NETCONN_TCP, return ERR_ARG;);
 2460              		.loc 1 805 3 discriminator 1
 805:C:/Users/stapi/OneDrive/Desktop/GD32VW553/GD32VW55X_Wifi_BLE_SDK/GD32VW55x_RELEASE_V1.0.2/MSDK/lwip/lwip-2.1.2/src/api\api_lib.c ****              NETCONNTYPE_GROUP(netconn_type(conn)) == NETCONN_TCP, return ERR_ARG;);
 2461              		.loc 1 805 3 discriminator 1
 2462 003a 01A0     		j	.L221
 2463              	.LVL259:
 2464              	.L220:
 805:C:/Users/stapi/OneDrive/Desktop/GD32VW553/GD32VW55X_Wifi_BLE_SDK/GD32VW55x_RELEASE_V1.0.2/MSDK/lwip/lwip-2.1.2/src/api\api_lib.c ****              NETCONNTYPE_GROUP(netconn_type(conn)) == NETCONN_TCP, return ERR_ARG;);
 2465              		.loc 1 805 3 discriminator 4
 805:C:/Users/stapi/OneDrive/Desktop/GD32VW553/GD32VW55X_Wifi_BLE_SDK/GD32VW55x_RELEASE_V1.0.2/MSDK/lwip/lwip-2.1.2/src/api\api_lib.c ****              NETCONNTYPE_GROUP(netconn_type(conn)) == NETCONN_TCP, return ERR_ARG;);
 2466              		.loc 1 805 3 discriminator 4
 808:C:/Users/stapi/OneDrive/Desktop/GD32VW553/GD32VW55X_Wifi_BLE_SDK/GD32VW55x_RELEASE_V1.0.2/MSDK/lwip/lwip-2.1.2/src/api\api_lib.c **** }
 2467              		.loc 1 808 3 discriminator 4
 808:C:/Users/stapi/OneDrive/Desktop/GD32VW553/GD32VW55X_Wifi_BLE_SDK/GD32VW55x_RELEASE_V1.0.2/MSDK/lwip/lwip-2.1.2/src/api\api_lib.c **** }
 2468              		.loc 1 808 10 is_stmt 0 discriminator 4
 2469 003c 97000000 		call	netconn_recv_data_tcp
 2469      E7800000 
 2470              	.LVL260:
 809:C:/Users/stapi/OneDrive/Desktop/GD32VW553/GD32VW55X_Wifi_BLE_SDK/GD32VW55x_RELEASE_V1.0.2/MSDK/lwip/lwip-2.1.2/src/api\api_lib.c **** #endif /* LWIP_TCP */
 2471              		.loc 1 809 1 discriminator 4
 2472 0044 17030000 		tail	__riscv_restore_0
 2472      67000300 
 2473              		.cfi_restore 1
 2474              		.cfi_def_cfa_offset 0
 2475              		.cfi_endproc
 2476              	.LFE20:
 2478              		.section	.rodata.netconn_recv.str1.4,"aMS",@progbits,1
 2479              		.align	2
 2480              	.LC26:
 2481 0000 7020213D 		.string	"p != NULL"
 2481      204E554C 
 2481      4C00
 2482              		.section	.text.netconn_recv,"ax",@progbits
 2483              		.align	1
 2484              		.globl	netconn_recv
 2486              	netconn_recv:
 2487              	.LFB23:
 861:C:/Users/stapi/OneDrive/Desktop/GD32VW553/GD32VW55X_Wifi_BLE_SDK/GD32VW55x_RELEASE_V1.0.2/MSDK/lwip/lwip-2.1.2/src/api\api_lib.c **** #if LWIP_TCP
 2488              		.loc 1 861 1 is_stmt 1
 2489              		.cfi_startproc
 2490              	.LVL261:
 2491 0000 17030000 		call	t0,__riscv_save_3
 2491      E7020300 
 2492              		.cfi_offset 18, -16
 2493              		.cfi_offset 9, -12
 2494              		.cfi_offset 8, -8
 2495              		.cfi_offset 1, -4
 2496              		.cfi_def_cfa_offset 16
 863:C:/Users/stapi/OneDrive/Desktop/GD32VW553/GD32VW55X_Wifi_BLE_SDK/GD32VW55x_RELEASE_V1.0.2/MSDK/lwip/lwip-2.1.2/src/api\api_lib.c ****   err_t err;
 2497              		.loc 1 863 3
 2498              	.LVL262:
 864:C:/Users/stapi/OneDrive/Desktop/GD32VW553/GD32VW55X_Wifi_BLE_SDK/GD32VW55x_RELEASE_V1.0.2/MSDK/lwip/lwip-2.1.2/src/api\api_lib.c **** #endif /* LWIP_TCP */
 2499              		.loc 1 864 3
 867:C:/Users/stapi/OneDrive/Desktop/GD32VW553/GD32VW55X_Wifi_BLE_SDK/GD32VW55x_RELEASE_V1.0.2/MSDK/lwip/lwip-2.1.2/src/api\api_lib.c ****   *new_buf = NULL;
 2500              		.loc 1 867 3
 867:C:/Users/stapi/OneDrive/Desktop/GD32VW553/GD32VW55X_Wifi_BLE_SDK/GD32VW55x_RELEASE_V1.0.2/MSDK/lwip/lwip-2.1.2/src/api\api_lib.c ****   *new_buf = NULL;
 2501              		.loc 1 867 3
 861:C:/Users/stapi/OneDrive/Desktop/GD32VW553/GD32VW55X_Wifi_BLE_SDK/GD32VW55x_RELEASE_V1.0.2/MSDK/lwip/lwip-2.1.2/src/api\api_lib.c **** #if LWIP_TCP
 2502              		.loc 1 861 1 is_stmt 0
 2503 0008 4111     		addi	sp,sp,-16
 2504              		.cfi_def_cfa_offset 32
 867:C:/Users/stapi/OneDrive/Desktop/GD32VW553/GD32VW55X_Wifi_BLE_SDK/GD32VW55x_RELEASE_V1.0.2/MSDK/lwip/lwip-2.1.2/src/api\api_lib.c ****   *new_buf = NULL;
 2505              		.loc 1 867 3
 2506 000a 85E5     		bne	a1,zero,.L227
 867:C:/Users/stapi/OneDrive/Desktop/GD32VW553/GD32VW55X_Wifi_BLE_SDK/GD32VW55x_RELEASE_V1.0.2/MSDK/lwip/lwip-2.1.2/src/api\api_lib.c ****   *new_buf = NULL;
 2507              		.loc 1 867 3 is_stmt 1 discriminator 1
 867:C:/Users/stapi/OneDrive/Desktop/GD32VW553/GD32VW55X_Wifi_BLE_SDK/GD32VW55x_RELEASE_V1.0.2/MSDK/lwip/lwip-2.1.2/src/api\api_lib.c ****   *new_buf = NULL;
 2508              		.loc 1 867 3 discriminator 1
 2509 000c B7060000 		lui	a3,%hi(.LC0)
 2510 0010 B7050000 		lui	a1,%hi(.LC22)
 2511              	.LVL263:
 2512 0014 37050000 		lui	a0,%hi(.LC2)
 2513              	.LVL264:
 2514 0018 93860600 		addi	a3,a3,%lo(.LC0)
 2515 001c 13063036 		li	a2,867
 2516 0020 93850500 		addi	a1,a1,%lo(.LC22)
 2517 0024 13050500 		addi	a0,a0,%lo(.LC2)
 2518 0028 97000000 		call	printf
 2518      E7800000 
 2519              	.LVL265:
 2520              	.L228:
 867:C:/Users/stapi/OneDrive/Desktop/GD32VW553/GD32VW55X_Wifi_BLE_SDK/GD32VW55x_RELEASE_V1.0.2/MSDK/lwip/lwip-2.1.2/src/api\api_lib.c ****   *new_buf = NULL;
 2521              		.loc 1 867 3 discriminator 1
 867:C:/Users/stapi/OneDrive/Desktop/GD32VW553/GD32VW55X_Wifi_BLE_SDK/GD32VW55x_RELEASE_V1.0.2/MSDK/lwip/lwip-2.1.2/src/api\api_lib.c ****   *new_buf = NULL;
 2522              		.loc 1 867 3 discriminator 1
 867:C:/Users/stapi/OneDrive/Desktop/GD32VW553/GD32VW55X_Wifi_BLE_SDK/GD32VW55x_RELEASE_V1.0.2/MSDK/lwip/lwip-2.1.2/src/api\api_lib.c ****   *new_buf = NULL;
 2523              		.loc 1 867 3 discriminator 1
 2524 0030 01A0     		j	.L228
 2525              	.LVL266:
 2526              	.L227:
 868:C:/Users/stapi/OneDrive/Desktop/GD32VW553/GD32VW55X_Wifi_BLE_SDK/GD32VW55x_RELEASE_V1.0.2/MSDK/lwip/lwip-2.1.2/src/api\api_lib.c ****   LWIP_ERROR("netconn_recv: invalid conn",    (conn != NULL),    return ERR_ARG;);
 2527              		.loc 1 868 12 is_stmt 0 discriminator 2
 2528 0032 23A00500 		sw	zero,0(a1)
 2529 0036 AA84     		mv	s1,a0
 2530 0038 2E89     		mv	s2,a1
 867:C:/Users/stapi/OneDrive/Desktop/GD32VW553/GD32VW55X_Wifi_BLE_SDK/GD32VW55x_RELEASE_V1.0.2/MSDK/lwip/lwip-2.1.2/src/api\api_lib.c ****   *new_buf = NULL;
 2531              		.loc 1 867 3 is_stmt 1 discriminator 2
 867:C:/Users/stapi/OneDrive/Desktop/GD32VW553/GD32VW55X_Wifi_BLE_SDK/GD32VW55x_RELEASE_V1.0.2/MSDK/lwip/lwip-2.1.2/src/api\api_lib.c ****   *new_buf = NULL;
 2532              		.loc 1 867 3 discriminator 2
 868:C:/Users/stapi/OneDrive/Desktop/GD32VW553/GD32VW55X_Wifi_BLE_SDK/GD32VW55x_RELEASE_V1.0.2/MSDK/lwip/lwip-2.1.2/src/api\api_lib.c ****   LWIP_ERROR("netconn_recv: invalid conn",    (conn != NULL),    return ERR_ARG;);
 2533              		.loc 1 868 3 discriminator 2
 869:C:/Users/stapi/OneDrive/Desktop/GD32VW553/GD32VW55X_Wifi_BLE_SDK/GD32VW55x_RELEASE_V1.0.2/MSDK/lwip/lwip-2.1.2/src/api\api_lib.c **** 
 2534              		.loc 1 869 3 discriminator 2
 869:C:/Users/stapi/OneDrive/Desktop/GD32VW553/GD32VW55X_Wifi_BLE_SDK/GD32VW55x_RELEASE_V1.0.2/MSDK/lwip/lwip-2.1.2/src/api\api_lib.c **** 
 2535              		.loc 1 869 3 discriminator 2
 2536 003a 05E5     		bne	a0,zero,.L229
 2537              	.LVL267:
 869:C:/Users/stapi/OneDrive/Desktop/GD32VW553/GD32VW55X_Wifi_BLE_SDK/GD32VW55x_RELEASE_V1.0.2/MSDK/lwip/lwip-2.1.2/src/api\api_lib.c **** 
 2538              		.loc 1 869 3 discriminator 1
 869:C:/Users/stapi/OneDrive/Desktop/GD32VW553/GD32VW55X_Wifi_BLE_SDK/GD32VW55x_RELEASE_V1.0.2/MSDK/lwip/lwip-2.1.2/src/api\api_lib.c **** 
 2539              		.loc 1 869 3 discriminator 1
 2540 003c B7060000 		lui	a3,%hi(.LC0)
 2541 0040 B7050000 		lui	a1,%hi(.LC23)
 2542              	.LVL268:
 2543 0044 37050000 		lui	a0,%hi(.LC2)
 2544 0048 93860600 		addi	a3,a3,%lo(.LC0)
 2545 004c 13065036 		li	a2,869
 2546 0050 93850500 		addi	a1,a1,%lo(.LC23)
 2547 0054 13050500 		addi	a0,a0,%lo(.LC2)
 2548 0058 97000000 		call	printf
 2548      E7800000 
 2549              	.LVL269:
 2550              	.L230:
 869:C:/Users/stapi/OneDrive/Desktop/GD32VW553/GD32VW55X_Wifi_BLE_SDK/GD32VW55x_RELEASE_V1.0.2/MSDK/lwip/lwip-2.1.2/src/api\api_lib.c **** 
 2551              		.loc 1 869 3 discriminator 2
 869:C:/Users/stapi/OneDrive/Desktop/GD32VW553/GD32VW55X_Wifi_BLE_SDK/GD32VW55x_RELEASE_V1.0.2/MSDK/lwip/lwip-2.1.2/src/api\api_lib.c **** 
 2552              		.loc 1 869 3 discriminator 2
 869:C:/Users/stapi/OneDrive/Desktop/GD32VW553/GD32VW55X_Wifi_BLE_SDK/GD32VW55x_RELEASE_V1.0.2/MSDK/lwip/lwip-2.1.2/src/api\api_lib.c **** 
 2553              		.loc 1 869 3 discriminator 2
 2554 0060 01A0     		j	.L230
 2555              	.LVL270:
 2556              	.L229:
 869:C:/Users/stapi/OneDrive/Desktop/GD32VW553/GD32VW55X_Wifi_BLE_SDK/GD32VW55x_RELEASE_V1.0.2/MSDK/lwip/lwip-2.1.2/src/api\api_lib.c **** 
 2557              		.loc 1 869 3 discriminator 2
 869:C:/Users/stapi/OneDrive/Desktop/GD32VW553/GD32VW55X_Wifi_BLE_SDK/GD32VW55x_RELEASE_V1.0.2/MSDK/lwip/lwip-2.1.2/src/api\api_lib.c **** 
 2558              		.loc 1 869 3 discriminator 2
 873:C:/Users/stapi/OneDrive/Desktop/GD32VW553/GD32VW55X_Wifi_BLE_SDK/GD32VW55x_RELEASE_V1.0.2/MSDK/lwip/lwip-2.1.2/src/api\api_lib.c **** #endif /* (LWIP_UDP || LWIP_RAW) */
 2559              		.loc 1 873 3 discriminator 2
 873:C:/Users/stapi/OneDrive/Desktop/GD32VW553/GD32VW55X_Wifi_BLE_SDK/GD32VW55x_RELEASE_V1.0.2/MSDK/lwip/lwip-2.1.2/src/api\api_lib.c **** #endif /* (LWIP_UDP || LWIP_RAW) */
 2560              		.loc 1 873 7 is_stmt 0 discriminator 2
 2561 0062 1C41     		lw	a5,0(a0)
 873:C:/Users/stapi/OneDrive/Desktop/GD32VW553/GD32VW55X_Wifi_BLE_SDK/GD32VW55x_RELEASE_V1.0.2/MSDK/lwip/lwip-2.1.2/src/api\api_lib.c **** #endif /* (LWIP_UDP || LWIP_RAW) */
 2562              		.loc 1 873 6 discriminator 2
 2563 0064 4147     		li	a4,16
 873:C:/Users/stapi/OneDrive/Desktop/GD32VW553/GD32VW55X_Wifi_BLE_SDK/GD32VW55x_RELEASE_V1.0.2/MSDK/lwip/lwip-2.1.2/src/api\api_lib.c **** #endif /* (LWIP_UDP || LWIP_RAW) */
 2564              		.loc 1 873 7 discriminator 2
 2565 0066 93F7070F 		andi	a5,a5,240
 873:C:/Users/stapi/OneDrive/Desktop/GD32VW553/GD32VW55X_Wifi_BLE_SDK/GD32VW55x_RELEASE_V1.0.2/MSDK/lwip/lwip-2.1.2/src/api\api_lib.c **** #endif /* (LWIP_UDP || LWIP_RAW) */
 2566              		.loc 1 873 6 discriminator 2
 2567 006a 639FE706 		bne	a5,a4,.L231
 2568              	.LBB40:
 876:C:/Users/stapi/OneDrive/Desktop/GD32VW553/GD32VW55X_Wifi_BLE_SDK/GD32VW55x_RELEASE_V1.0.2/MSDK/lwip/lwip-2.1.2/src/api\api_lib.c ****     /* This is not a listening netconn, since recvmbox is set */
 2569              		.loc 1 876 5 is_stmt 1
 879:C:/Users/stapi/OneDrive/Desktop/GD32VW553/GD32VW55X_Wifi_BLE_SDK/GD32VW55x_RELEASE_V1.0.2/MSDK/lwip/lwip-2.1.2/src/api\api_lib.c ****     if (buf == NULL) {
 2570              		.loc 1 879 28 is_stmt 0
 2571 006e 2145     		li	a0,8
 876:C:/Users/stapi/OneDrive/Desktop/GD32VW553/GD32VW55X_Wifi_BLE_SDK/GD32VW55x_RELEASE_V1.0.2/MSDK/lwip/lwip-2.1.2/src/api\api_lib.c ****     /* This is not a listening netconn, since recvmbox is set */
 2572              		.loc 1 876 18
 2573 0070 02C6     		sw	zero,12(sp)
 879:C:/Users/stapi/OneDrive/Desktop/GD32VW553/GD32VW55X_Wifi_BLE_SDK/GD32VW55x_RELEASE_V1.0.2/MSDK/lwip/lwip-2.1.2/src/api\api_lib.c ****     if (buf == NULL) {
 2574              		.loc 1 879 5 is_stmt 1
 879:C:/Users/stapi/OneDrive/Desktop/GD32VW553/GD32VW55X_Wifi_BLE_SDK/GD32VW55x_RELEASE_V1.0.2/MSDK/lwip/lwip-2.1.2/src/api\api_lib.c ****     if (buf == NULL) {
 2575              		.loc 1 879 28 is_stmt 0
 2576 0072 97000000 		call	memp_malloc
 2576      E7800000 
 2577              	.LVL271:
 2578 007a 2A84     		mv	s0,a0
 2579              	.LVL272:
 880:C:/Users/stapi/OneDrive/Desktop/GD32VW553/GD32VW55X_Wifi_BLE_SDK/GD32VW55x_RELEASE_V1.0.2/MSDK/lwip/lwip-2.1.2/src/api\api_lib.c ****       return ERR_MEM;
 2580              		.loc 1 880 5 is_stmt 1
 880:C:/Users/stapi/OneDrive/Desktop/GD32VW553/GD32VW55X_Wifi_BLE_SDK/GD32VW55x_RELEASE_V1.0.2/MSDK/lwip/lwip-2.1.2/src/api\api_lib.c ****       return ERR_MEM;
 2581              		.loc 1 880 8 is_stmt 0
 2582 007c 25C5     		beq	a0,zero,.L237
 884:C:/Users/stapi/OneDrive/Desktop/GD32VW553/GD32VW55X_Wifi_BLE_SDK/GD32VW55x_RELEASE_V1.0.2/MSDK/lwip/lwip-2.1.2/src/api\api_lib.c ****     if (err != ERR_OK) {
 2583              		.loc 1 884 5 is_stmt 1
 884:C:/Users/stapi/OneDrive/Desktop/GD32VW553/GD32VW55X_Wifi_BLE_SDK/GD32VW55x_RELEASE_V1.0.2/MSDK/lwip/lwip-2.1.2/src/api\api_lib.c ****     if (err != ERR_OK) {
 2584              		.loc 1 884 11 is_stmt 0
 2585 007e 2685     		mv	a0,s1
 2586 0080 0146     		li	a2,0
 2587 0082 6C00     		addi	a1,sp,12
 2588 0084 97000000 		call	netconn_recv_data_tcp
 2588      E7800000 
 2589              	.LVL273:
 2590 008c AA84     		mv	s1,a0
 2591              	.LVL274:
 885:C:/Users/stapi/OneDrive/Desktop/GD32VW553/GD32VW55X_Wifi_BLE_SDK/GD32VW55x_RELEASE_V1.0.2/MSDK/lwip/lwip-2.1.2/src/api\api_lib.c ****       memp_free(MEMP_NETBUF, buf);
 2592              		.loc 1 885 5 is_stmt 1
 885:C:/Users/stapi/OneDrive/Desktop/GD32VW553/GD32VW55X_Wifi_BLE_SDK/GD32VW55x_RELEASE_V1.0.2/MSDK/lwip/lwip-2.1.2/src/api\api_lib.c ****       memp_free(MEMP_NETBUF, buf);
 2593              		.loc 1 885 8 is_stmt 0
 2594 008e 09CD     		beq	a0,zero,.L233
 886:C:/Users/stapi/OneDrive/Desktop/GD32VW553/GD32VW55X_Wifi_BLE_SDK/GD32VW55x_RELEASE_V1.0.2/MSDK/lwip/lwip-2.1.2/src/api\api_lib.c ****       return err;
 2595              		.loc 1 886 7 is_stmt 1
 2596 0090 A285     		mv	a1,s0
 2597 0092 2145     		li	a0,8
 2598              	.LVL275:
 2599 0094 97000000 		call	memp_free
 2599      E7800000 
 2600              	.LVL276:
 887:C:/Users/stapi/OneDrive/Desktop/GD32VW553/GD32VW55X_Wifi_BLE_SDK/GD32VW55x_RELEASE_V1.0.2/MSDK/lwip/lwip-2.1.2/src/api\api_lib.c ****     }
 2601              		.loc 1 887 7
 2602              	.L236:
 2603              	.LBE40:
 908:C:/Users/stapi/OneDrive/Desktop/GD32VW553/GD32VW55X_Wifi_BLE_SDK/GD32VW55x_RELEASE_V1.0.2/MSDK/lwip/lwip-2.1.2/src/api\api_lib.c **** 
 2604              		.loc 1 908 1 is_stmt 0 discriminator 4
 2605 009c 2685     		mv	a0,s1
 2606 009e 4101     		addi	sp,sp,16
 2607              		.cfi_remember_state
 2608              		.cfi_def_cfa_offset 0
 2609 00a0 17030000 		tail	__riscv_restore_3
 2609      67000300 
 2610              		.cfi_restore 18
 2611              		.cfi_restore 9
 2612              		.cfi_restore 8
 2613              		.cfi_restore 1
 2614              		.cfi_def_cfa_offset -16
 2615              	.LVL277:
 2616              	.L233:
 2617              		.cfi_restore_state
 2618              	.LBB41:
 889:C:/Users/stapi/OneDrive/Desktop/GD32VW553/GD32VW55X_Wifi_BLE_SDK/GD32VW55x_RELEASE_V1.0.2/MSDK/lwip/lwip-2.1.2/src/api\api_lib.c **** 
 2619              		.loc 1 889 5 is_stmt 1
 889:C:/Users/stapi/OneDrive/Desktop/GD32VW553/GD32VW55X_Wifi_BLE_SDK/GD32VW55x_RELEASE_V1.0.2/MSDK/lwip/lwip-2.1.2/src/api\api_lib.c **** 
 2620              		.loc 1 889 5
 2621 00a8 B247     		lw	a5,12(sp)
 2622 00aa 85E7     		bne	a5,zero,.L234
 889:C:/Users/stapi/OneDrive/Desktop/GD32VW553/GD32VW55X_Wifi_BLE_SDK/GD32VW55x_RELEASE_V1.0.2/MSDK/lwip/lwip-2.1.2/src/api\api_lib.c **** 
 2623              		.loc 1 889 5 discriminator 1
 889:C:/Users/stapi/OneDrive/Desktop/GD32VW553/GD32VW55X_Wifi_BLE_SDK/GD32VW55x_RELEASE_V1.0.2/MSDK/lwip/lwip-2.1.2/src/api\api_lib.c **** 
 2624              		.loc 1 889 5 discriminator 1
 2625 00ac B7060000 		lui	a3,%hi(.LC0)
 2626 00b0 B7050000 		lui	a1,%hi(.LC26)
 2627 00b4 37050000 		lui	a0,%hi(.LC2)
 2628              	.LVL278:
 2629 00b8 93860600 		addi	a3,a3,%lo(.LC0)
 2630 00bc 13069037 		li	a2,889
 2631 00c0 93850500 		addi	a1,a1,%lo(.LC26)
 2632 00c4 13050500 		addi	a0,a0,%lo(.LC2)
 2633 00c8 97000000 		call	printf
 2633      E7800000 
 2634              	.LVL279:
 2635              	.L235:
 889:C:/Users/stapi/OneDrive/Desktop/GD32VW553/GD32VW55X_Wifi_BLE_SDK/GD32VW55x_RELEASE_V1.0.2/MSDK/lwip/lwip-2.1.2/src/api\api_lib.c **** 
 2636              		.loc 1 889 5 discriminator 3
 889:C:/Users/stapi/OneDrive/Desktop/GD32VW553/GD32VW55X_Wifi_BLE_SDK/GD32VW55x_RELEASE_V1.0.2/MSDK/lwip/lwip-2.1.2/src/api\api_lib.c **** 
 2637              		.loc 1 889 5 discriminator 3
 889:C:/Users/stapi/OneDrive/Desktop/GD32VW553/GD32VW55X_Wifi_BLE_SDK/GD32VW55x_RELEASE_V1.0.2/MSDK/lwip/lwip-2.1.2/src/api\api_lib.c **** 
 2638              		.loc 1 889 5 discriminator 3
 2639 00d0 01A0     		j	.L235
 2640              	.LVL280:
 2641              	.L234:
 889:C:/Users/stapi/OneDrive/Desktop/GD32VW553/GD32VW55X_Wifi_BLE_SDK/GD32VW55x_RELEASE_V1.0.2/MSDK/lwip/lwip-2.1.2/src/api\api_lib.c **** 
 2642              		.loc 1 889 5 discriminator 2
 889:C:/Users/stapi/OneDrive/Desktop/GD32VW553/GD32VW55X_Wifi_BLE_SDK/GD32VW55x_RELEASE_V1.0.2/MSDK/lwip/lwip-2.1.2/src/api\api_lib.c **** 
 2643              		.loc 1 889 5 discriminator 2
 891:C:/Users/stapi/OneDrive/Desktop/GD32VW553/GD32VW55X_Wifi_BLE_SDK/GD32VW55x_RELEASE_V1.0.2/MSDK/lwip/lwip-2.1.2/src/api\api_lib.c ****     buf->ptr = p;
 2644              		.loc 1 891 5 discriminator 2
 891:C:/Users/stapi/OneDrive/Desktop/GD32VW553/GD32VW55X_Wifi_BLE_SDK/GD32VW55x_RELEASE_V1.0.2/MSDK/lwip/lwip-2.1.2/src/api\api_lib.c ****     buf->ptr = p;
 2645              		.loc 1 891 12 is_stmt 0 discriminator 2
 2646 00d2 1CC0     		sw	a5,0(s0)
 892:C:/Users/stapi/OneDrive/Desktop/GD32VW553/GD32VW55X_Wifi_BLE_SDK/GD32VW55x_RELEASE_V1.0.2/MSDK/lwip/lwip-2.1.2/src/api\api_lib.c ****     buf->port = 0;
 2647              		.loc 1 892 5 is_stmt 1 discriminator 2
 892:C:/Users/stapi/OneDrive/Desktop/GD32VW553/GD32VW55X_Wifi_BLE_SDK/GD32VW55x_RELEASE_V1.0.2/MSDK/lwip/lwip-2.1.2/src/api\api_lib.c ****     buf->port = 0;
 2648              		.loc 1 892 14 is_stmt 0 discriminator 2
 2649 00d4 5CC0     		sw	a5,4(s0)
 893:C:/Users/stapi/OneDrive/Desktop/GD32VW553/GD32VW55X_Wifi_BLE_SDK/GD32VW55x_RELEASE_V1.0.2/MSDK/lwip/lwip-2.1.2/src/api\api_lib.c ****     ip_addr_set_zero(&buf->addr);
 2650              		.loc 1 893 5 is_stmt 1 discriminator 2
 893:C:/Users/stapi/OneDrive/Desktop/GD32VW553/GD32VW55X_Wifi_BLE_SDK/GD32VW55x_RELEASE_V1.0.2/MSDK/lwip/lwip-2.1.2/src/api\api_lib.c ****     ip_addr_set_zero(&buf->addr);
 2651              		.loc 1 893 15 is_stmt 0 discriminator 2
 2652 00d6 23160400 		sh	zero,12(s0)
 894:C:/Users/stapi/OneDrive/Desktop/GD32VW553/GD32VW55X_Wifi_BLE_SDK/GD32VW55x_RELEASE_V1.0.2/MSDK/lwip/lwip-2.1.2/src/api\api_lib.c ****     *new_buf = buf;
 2653              		.loc 1 894 5 is_stmt 1 discriminator 2
 2654 00da 23240400 		sw	zero,8(s0)
 895:C:/Users/stapi/OneDrive/Desktop/GD32VW553/GD32VW55X_Wifi_BLE_SDK/GD32VW55x_RELEASE_V1.0.2/MSDK/lwip/lwip-2.1.2/src/api\api_lib.c ****     /* don't set conn->last_err: it's only ERR_OK, anyway */
 2655              		.loc 1 895 5 discriminator 2
 895:C:/Users/stapi/OneDrive/Desktop/GD32VW553/GD32VW55X_Wifi_BLE_SDK/GD32VW55x_RELEASE_V1.0.2/MSDK/lwip/lwip-2.1.2/src/api\api_lib.c ****     /* don't set conn->last_err: it's only ERR_OK, anyway */
 2656              		.loc 1 895 14 is_stmt 0 discriminator 2
 2657 00de 23208900 		sw	s0,0(s2)
 897:C:/Users/stapi/OneDrive/Desktop/GD32VW553/GD32VW55X_Wifi_BLE_SDK/GD32VW55x_RELEASE_V1.0.2/MSDK/lwip/lwip-2.1.2/src/api\api_lib.c ****   }
 2658              		.loc 1 897 5 is_stmt 1 discriminator 2
 897:C:/Users/stapi/OneDrive/Desktop/GD32VW553/GD32VW55X_Wifi_BLE_SDK/GD32VW55x_RELEASE_V1.0.2/MSDK/lwip/lwip-2.1.2/src/api\api_lib.c ****   }
 2659              		.loc 1 897 12 is_stmt 0 discriminator 2
 2660 00e2 6DBF     		j	.L236
 2661              	.LVL281:
 2662              	.L237:
 881:C:/Users/stapi/OneDrive/Desktop/GD32VW553/GD32VW55X_Wifi_BLE_SDK/GD32VW55x_RELEASE_V1.0.2/MSDK/lwip/lwip-2.1.2/src/api\api_lib.c ****     }
 2663              		.loc 1 881 14
 2664 00e4 FD54     		li	s1,-1
 2665              	.LVL282:
 2666 00e6 5DBF     		j	.L236
 2667              	.LVL283:
 2668              	.L231:
 2669              	.LBE41:
 905:C:/Users/stapi/OneDrive/Desktop/GD32VW553/GD32VW55X_Wifi_BLE_SDK/GD32VW55x_RELEASE_V1.0.2/MSDK/lwip/lwip-2.1.2/src/api\api_lib.c **** #endif /* (LWIP_UDP || LWIP_RAW) */
 2670              		.loc 1 905 5 is_stmt 1
 905:C:/Users/stapi/OneDrive/Desktop/GD32VW553/GD32VW55X_Wifi_BLE_SDK/GD32VW55x_RELEASE_V1.0.2/MSDK/lwip/lwip-2.1.2/src/api\api_lib.c **** #endif /* (LWIP_UDP || LWIP_RAW) */
 2671              		.loc 1 905 12 is_stmt 0
 2672 00e8 0146     		li	a2,0
 2673 00ea 97000000 		call	netconn_recv_data
 2673      E7800000 
 2674              	.LVL284:
 2675 00f2 AA84     		mv	s1,a0
 2676              	.LVL285:
 2677 00f4 65B7     		j	.L236
 2678              		.cfi_endproc
 2679              	.LFE23:
 2681              		.section	.text.netconn_shutdown,"ax",@progbits
 2682              		.align	1
 2683              		.globl	netconn_shutdown
 2685              	netconn_shutdown:
 2686              	.LFB31:
1152:C:/Users/stapi/OneDrive/Desktop/GD32VW553/GD32VW55X_Wifi_BLE_SDK/GD32VW55x_RELEASE_V1.0.2/MSDK/lwip/lwip-2.1.2/src/api\api_lib.c **** 
1153:C:/Users/stapi/OneDrive/Desktop/GD32VW553/GD32VW55X_Wifi_BLE_SDK/GD32VW55x_RELEASE_V1.0.2/MSDK/lwip/lwip-2.1.2/src/api\api_lib.c **** /**
1154:C:/Users/stapi/OneDrive/Desktop/GD32VW553/GD32VW55X_Wifi_BLE_SDK/GD32VW55x_RELEASE_V1.0.2/MSDK/lwip/lwip-2.1.2/src/api\api_lib.c ****  * @ingroup netconn_tcp
1155:C:/Users/stapi/OneDrive/Desktop/GD32VW553/GD32VW55X_Wifi_BLE_SDK/GD32VW55x_RELEASE_V1.0.2/MSDK/lwip/lwip-2.1.2/src/api\api_lib.c ****  * Shut down one or both sides of a TCP netconn (doesn't delete it).
1156:C:/Users/stapi/OneDrive/Desktop/GD32VW553/GD32VW55X_Wifi_BLE_SDK/GD32VW55x_RELEASE_V1.0.2/MSDK/lwip/lwip-2.1.2/src/api\api_lib.c ****  *
1157:C:/Users/stapi/OneDrive/Desktop/GD32VW553/GD32VW55X_Wifi_BLE_SDK/GD32VW55x_RELEASE_V1.0.2/MSDK/lwip/lwip-2.1.2/src/api\api_lib.c ****  * @param conn the TCP netconn to shut down
1158:C:/Users/stapi/OneDrive/Desktop/GD32VW553/GD32VW55X_Wifi_BLE_SDK/GD32VW55x_RELEASE_V1.0.2/MSDK/lwip/lwip-2.1.2/src/api\api_lib.c ****  * @param shut_rx shut down the RX side (no more read possible after this)
1159:C:/Users/stapi/OneDrive/Desktop/GD32VW553/GD32VW55X_Wifi_BLE_SDK/GD32VW55x_RELEASE_V1.0.2/MSDK/lwip/lwip-2.1.2/src/api\api_lib.c ****  * @param shut_tx shut down the TX side (no more write possible after this)
1160:C:/Users/stapi/OneDrive/Desktop/GD32VW553/GD32VW55X_Wifi_BLE_SDK/GD32VW55x_RELEASE_V1.0.2/MSDK/lwip/lwip-2.1.2/src/api\api_lib.c ****  * @return ERR_OK if the netconn was closed, any other err_t on error
1161:C:/Users/stapi/OneDrive/Desktop/GD32VW553/GD32VW55X_Wifi_BLE_SDK/GD32VW55x_RELEASE_V1.0.2/MSDK/lwip/lwip-2.1.2/src/api\api_lib.c ****  */
1162:C:/Users/stapi/OneDrive/Desktop/GD32VW553/GD32VW55X_Wifi_BLE_SDK/GD32VW55x_RELEASE_V1.0.2/MSDK/lwip/lwip-2.1.2/src/api\api_lib.c **** err_t
1163:C:/Users/stapi/OneDrive/Desktop/GD32VW553/GD32VW55X_Wifi_BLE_SDK/GD32VW55x_RELEASE_V1.0.2/MSDK/lwip/lwip-2.1.2/src/api\api_lib.c **** netconn_shutdown(struct netconn *conn, u8_t shut_rx, u8_t shut_tx)
1164:C:/Users/stapi/OneDrive/Desktop/GD32VW553/GD32VW55X_Wifi_BLE_SDK/GD32VW55x_RELEASE_V1.0.2/MSDK/lwip/lwip-2.1.2/src/api\api_lib.c **** {
 2687              		.loc 1 1164 1 is_stmt 1
 2688              		.cfi_startproc
 2689              	.LVL286:
1165:C:/Users/stapi/OneDrive/Desktop/GD32VW553/GD32VW55X_Wifi_BLE_SDK/GD32VW55x_RELEASE_V1.0.2/MSDK/lwip/lwip-2.1.2/src/api\api_lib.c ****   return netconn_close_shutdown(conn, (u8_t)((shut_rx ? NETCONN_SHUT_RD : 0) | (shut_tx ? NETCONN_S
 2690              		.loc 1 1165 3
 2691              		.loc 1 1165 78 is_stmt 0
 2692 0000 3336C000 		snez	a2,a2
 2693              	.LVL287:
 2694 0004 0606     		slli	a2,a2,1
 2695 0006 B335B000 		snez	a1,a1
 2696              	.LVL288:
 2697              		.loc 1 1165 10
 2698 000a D18D     		or	a1,a2,a1
 2699 000c 17030000 		tail	netconn_close_shutdown
 2699      67000300 
 2700              	.LVL289:
 2701              		.cfi_endproc
 2702              	.LFE31:
 2704              		.section	.rodata.netconn_join_leave_group.str1.4,"aMS",@progbits,1
 2705              		.align	2
 2706              	.LC27:
 2707 0000 6E657463 		.string	"netconn_join_leave_group: invalid conn"
 2707      6F6E6E5F 
 2707      6A6F696E 
 2707      5F6C6561 
 2707      76655F67 
 2708              		.section	.text.netconn_join_leave_group,"ax",@progbits
 2709              		.align	1
 2710              		.globl	netconn_join_leave_group
 2712              	netconn_join_leave_group:
 2713              	.LFB32:
1166:C:/Users/stapi/OneDrive/Desktop/GD32VW553/GD32VW55X_Wifi_BLE_SDK/GD32VW55x_RELEASE_V1.0.2/MSDK/lwip/lwip-2.1.2/src/api\api_lib.c **** }
1167:C:/Users/stapi/OneDrive/Desktop/GD32VW553/GD32VW55X_Wifi_BLE_SDK/GD32VW55x_RELEASE_V1.0.2/MSDK/lwip/lwip-2.1.2/src/api\api_lib.c **** 
1168:C:/Users/stapi/OneDrive/Desktop/GD32VW553/GD32VW55X_Wifi_BLE_SDK/GD32VW55x_RELEASE_V1.0.2/MSDK/lwip/lwip-2.1.2/src/api\api_lib.c **** #if LWIP_IGMP || (LWIP_IPV6 && LWIP_IPV6_MLD)
1169:C:/Users/stapi/OneDrive/Desktop/GD32VW553/GD32VW55X_Wifi_BLE_SDK/GD32VW55x_RELEASE_V1.0.2/MSDK/lwip/lwip-2.1.2/src/api\api_lib.c **** /**
1170:C:/Users/stapi/OneDrive/Desktop/GD32VW553/GD32VW55X_Wifi_BLE_SDK/GD32VW55x_RELEASE_V1.0.2/MSDK/lwip/lwip-2.1.2/src/api\api_lib.c ****  * @ingroup netconn_udp
1171:C:/Users/stapi/OneDrive/Desktop/GD32VW553/GD32VW55X_Wifi_BLE_SDK/GD32VW55x_RELEASE_V1.0.2/MSDK/lwip/lwip-2.1.2/src/api\api_lib.c ****  * Join multicast groups for UDP netconns.
1172:C:/Users/stapi/OneDrive/Desktop/GD32VW553/GD32VW55X_Wifi_BLE_SDK/GD32VW55x_RELEASE_V1.0.2/MSDK/lwip/lwip-2.1.2/src/api\api_lib.c ****  *
1173:C:/Users/stapi/OneDrive/Desktop/GD32VW553/GD32VW55X_Wifi_BLE_SDK/GD32VW55x_RELEASE_V1.0.2/MSDK/lwip/lwip-2.1.2/src/api\api_lib.c ****  * @param conn the UDP netconn for which to change multicast addresses
1174:C:/Users/stapi/OneDrive/Desktop/GD32VW553/GD32VW55X_Wifi_BLE_SDK/GD32VW55x_RELEASE_V1.0.2/MSDK/lwip/lwip-2.1.2/src/api\api_lib.c ****  * @param multiaddr IP address of the multicast group to join or leave
1175:C:/Users/stapi/OneDrive/Desktop/GD32VW553/GD32VW55X_Wifi_BLE_SDK/GD32VW55x_RELEASE_V1.0.2/MSDK/lwip/lwip-2.1.2/src/api\api_lib.c ****  * @param netif_addr the IP address of the network interface on which to send
1176:C:/Users/stapi/OneDrive/Desktop/GD32VW553/GD32VW55X_Wifi_BLE_SDK/GD32VW55x_RELEASE_V1.0.2/MSDK/lwip/lwip-2.1.2/src/api\api_lib.c ****  *                  the igmp message
1177:C:/Users/stapi/OneDrive/Desktop/GD32VW553/GD32VW55X_Wifi_BLE_SDK/GD32VW55x_RELEASE_V1.0.2/MSDK/lwip/lwip-2.1.2/src/api\api_lib.c ****  * @param join_or_leave flag whether to send a join- or leave-message
1178:C:/Users/stapi/OneDrive/Desktop/GD32VW553/GD32VW55X_Wifi_BLE_SDK/GD32VW55x_RELEASE_V1.0.2/MSDK/lwip/lwip-2.1.2/src/api\api_lib.c ****  * @return ERR_OK if the action was taken, any err_t on error
1179:C:/Users/stapi/OneDrive/Desktop/GD32VW553/GD32VW55X_Wifi_BLE_SDK/GD32VW55x_RELEASE_V1.0.2/MSDK/lwip/lwip-2.1.2/src/api\api_lib.c ****  */
1180:C:/Users/stapi/OneDrive/Desktop/GD32VW553/GD32VW55X_Wifi_BLE_SDK/GD32VW55x_RELEASE_V1.0.2/MSDK/lwip/lwip-2.1.2/src/api\api_lib.c **** err_t
1181:C:/Users/stapi/OneDrive/Desktop/GD32VW553/GD32VW55X_Wifi_BLE_SDK/GD32VW55x_RELEASE_V1.0.2/MSDK/lwip/lwip-2.1.2/src/api\api_lib.c **** netconn_join_leave_group(struct netconn *conn,
1182:C:/Users/stapi/OneDrive/Desktop/GD32VW553/GD32VW55X_Wifi_BLE_SDK/GD32VW55x_RELEASE_V1.0.2/MSDK/lwip/lwip-2.1.2/src/api\api_lib.c ****                          const ip_addr_t *multiaddr,
1183:C:/Users/stapi/OneDrive/Desktop/GD32VW553/GD32VW55X_Wifi_BLE_SDK/GD32VW55x_RELEASE_V1.0.2/MSDK/lwip/lwip-2.1.2/src/api\api_lib.c ****                          const ip_addr_t *netif_addr,
1184:C:/Users/stapi/OneDrive/Desktop/GD32VW553/GD32VW55X_Wifi_BLE_SDK/GD32VW55x_RELEASE_V1.0.2/MSDK/lwip/lwip-2.1.2/src/api\api_lib.c ****                          enum netconn_igmp join_or_leave)
1185:C:/Users/stapi/OneDrive/Desktop/GD32VW553/GD32VW55X_Wifi_BLE_SDK/GD32VW55x_RELEASE_V1.0.2/MSDK/lwip/lwip-2.1.2/src/api\api_lib.c **** {
 2714              		.loc 1 1185 1 is_stmt 1
 2715              		.cfi_startproc
 2716              	.LVL290:
 2717 0000 17030000 		call	t0,__riscv_save_0
 2717      E7020300 
 2718              		.cfi_offset 1, -4
 2719              		.cfi_def_cfa_offset 16
1186:C:/Users/stapi/OneDrive/Desktop/GD32VW553/GD32VW55X_Wifi_BLE_SDK/GD32VW55x_RELEASE_V1.0.2/MSDK/lwip/lwip-2.1.2/src/api\api_lib.c ****   API_MSG_VAR_DECLARE(msg);
 2720              		.loc 1 1186 3
1187:C:/Users/stapi/OneDrive/Desktop/GD32VW553/GD32VW55X_Wifi_BLE_SDK/GD32VW55x_RELEASE_V1.0.2/MSDK/lwip/lwip-2.1.2/src/api\api_lib.c ****   err_t err;
 2721              		.loc 1 1187 3
1188:C:/Users/stapi/OneDrive/Desktop/GD32VW553/GD32VW55X_Wifi_BLE_SDK/GD32VW55x_RELEASE_V1.0.2/MSDK/lwip/lwip-2.1.2/src/api\api_lib.c **** 
1189:C:/Users/stapi/OneDrive/Desktop/GD32VW553/GD32VW55X_Wifi_BLE_SDK/GD32VW55x_RELEASE_V1.0.2/MSDK/lwip/lwip-2.1.2/src/api\api_lib.c ****   LWIP_ERROR("netconn_join_leave_group: invalid conn",  (conn != NULL), return ERR_ARG;);
 2722              		.loc 1 1189 3
 2723              		.loc 1 1189 3
1185:C:/Users/stapi/OneDrive/Desktop/GD32VW553/GD32VW55X_Wifi_BLE_SDK/GD32VW55x_RELEASE_V1.0.2/MSDK/lwip/lwip-2.1.2/src/api\api_lib.c ****   API_MSG_VAR_DECLARE(msg);
 2724              		.loc 1 1185 1 is_stmt 0
 2725 0008 0111     		addi	sp,sp,-32
 2726              		.cfi_def_cfa_offset 48
 2727              		.loc 1 1189 3
 2728 000a 05E5     		bne	a0,zero,.L244
 2729              		.loc 1 1189 3 is_stmt 1 discriminator 1
 2730              		.loc 1 1189 3 discriminator 1
 2731 000c B7060000 		lui	a3,%hi(.LC0)
 2732              	.LVL291:
 2733 0010 B7050000 		lui	a1,%hi(.LC27)
 2734              	.LVL292:
 2735 0014 37050000 		lui	a0,%hi(.LC2)
 2736              	.LVL293:
 2737 0018 93860600 		addi	a3,a3,%lo(.LC0)
 2738 001c 1306504A 		li	a2,1189
 2739              	.LVL294:
 2740 0020 93850500 		addi	a1,a1,%lo(.LC27)
 2741 0024 13050500 		addi	a0,a0,%lo(.LC2)
 2742 0028 97000000 		call	printf
 2742      E7800000 
 2743              	.LVL295:
 2744              	.L245:
 2745              		.loc 1 1189 3 discriminator 1
 2746              		.loc 1 1189 3 discriminator 1
 2747              		.loc 1 1189 3 discriminator 1
 2748 0030 01A0     		j	.L245
 2749              	.LVL296:
 2750              	.L244:
 2751              		.loc 1 1189 3 discriminator 2
 2752              		.loc 1 1189 3 discriminator 2
1190:C:/Users/stapi/OneDrive/Desktop/GD32VW553/GD32VW55X_Wifi_BLE_SDK/GD32VW55x_RELEASE_V1.0.2/MSDK/lwip/lwip-2.1.2/src/api\api_lib.c **** 
1191:C:/Users/stapi/OneDrive/Desktop/GD32VW553/GD32VW55X_Wifi_BLE_SDK/GD32VW55x_RELEASE_V1.0.2/MSDK/lwip/lwip-2.1.2/src/api\api_lib.c ****   API_MSG_VAR_ALLOC(msg);
 2753              		.loc 1 1191 25 discriminator 2
1192:C:/Users/stapi/OneDrive/Desktop/GD32VW553/GD32VW55X_Wifi_BLE_SDK/GD32VW55x_RELEASE_V1.0.2/MSDK/lwip/lwip-2.1.2/src/api\api_lib.c **** 
1193:C:/Users/stapi/OneDrive/Desktop/GD32VW553/GD32VW55X_Wifi_BLE_SDK/GD32VW55x_RELEASE_V1.0.2/MSDK/lwip/lwip-2.1.2/src/api\api_lib.c **** #if LWIP_IPV4
1194:C:/Users/stapi/OneDrive/Desktop/GD32VW553/GD32VW55X_Wifi_BLE_SDK/GD32VW55x_RELEASE_V1.0.2/MSDK/lwip/lwip-2.1.2/src/api\api_lib.c ****   /* Don't propagate NULL pointer (IP_ADDR_ANY alias) to subsequent functions */
1195:C:/Users/stapi/OneDrive/Desktop/GD32VW553/GD32VW55X_Wifi_BLE_SDK/GD32VW55x_RELEASE_V1.0.2/MSDK/lwip/lwip-2.1.2/src/api\api_lib.c ****   if (multiaddr == NULL) {
 2754              		.loc 1 1195 3 discriminator 2
 2755              		.loc 1 1195 6 is_stmt 0 discriminator 2
 2756 0032 89E5     		bne	a1,zero,.L246
1196:C:/Users/stapi/OneDrive/Desktop/GD32VW553/GD32VW55X_Wifi_BLE_SDK/GD32VW55x_RELEASE_V1.0.2/MSDK/lwip/lwip-2.1.2/src/api\api_lib.c ****     multiaddr = IP4_ADDR_ANY;
 2757              		.loc 1 1196 15
 2758 0034 B7050000 		lui	a1,%hi(ip_addr_any)
 2759              	.LVL297:
 2760 0038 93850500 		addi	a1,a1,%lo(ip_addr_any)
 2761              	.L246:
 2762              	.LVL298:
1197:C:/Users/stapi/OneDrive/Desktop/GD32VW553/GD32VW55X_Wifi_BLE_SDK/GD32VW55x_RELEASE_V1.0.2/MSDK/lwip/lwip-2.1.2/src/api\api_lib.c ****   }
1198:C:/Users/stapi/OneDrive/Desktop/GD32VW553/GD32VW55X_Wifi_BLE_SDK/GD32VW55x_RELEASE_V1.0.2/MSDK/lwip/lwip-2.1.2/src/api\api_lib.c ****   if (netif_addr == NULL) {
 2763              		.loc 1 1198 3 is_stmt 1
 2764              		.loc 1 1198 6 is_stmt 0
 2765 003c 09E6     		bne	a2,zero,.L247
1199:C:/Users/stapi/OneDrive/Desktop/GD32VW553/GD32VW55X_Wifi_BLE_SDK/GD32VW55x_RELEASE_V1.0.2/MSDK/lwip/lwip-2.1.2/src/api\api_lib.c ****     netif_addr = IP4_ADDR_ANY;
 2766              		.loc 1 1199 16
 2767 003e 37060000 		lui	a2,%hi(ip_addr_any)
 2768              	.LVL299:
 2769 0042 13060600 		addi	a2,a2,%lo(ip_addr_any)
 2770              	.L247:
 2771              	.LVL300:
1200:C:/Users/stapi/OneDrive/Desktop/GD32VW553/GD32VW55X_Wifi_BLE_SDK/GD32VW55x_RELEASE_V1.0.2/MSDK/lwip/lwip-2.1.2/src/api\api_lib.c ****   }
1201:C:/Users/stapi/OneDrive/Desktop/GD32VW553/GD32VW55X_Wifi_BLE_SDK/GD32VW55x_RELEASE_V1.0.2/MSDK/lwip/lwip-2.1.2/src/api\api_lib.c **** #endif /* LWIP_IPV4 */
1202:C:/Users/stapi/OneDrive/Desktop/GD32VW553/GD32VW55X_Wifi_BLE_SDK/GD32VW55x_RELEASE_V1.0.2/MSDK/lwip/lwip-2.1.2/src/api\api_lib.c **** 
1203:C:/Users/stapi/OneDrive/Desktop/GD32VW553/GD32VW55X_Wifi_BLE_SDK/GD32VW55x_RELEASE_V1.0.2/MSDK/lwip/lwip-2.1.2/src/api\api_lib.c ****   API_MSG_VAR_REF(msg).conn = conn;
 2772              		.loc 1 1203 3 is_stmt 1
 2773              		.loc 1 1203 29 is_stmt 0
 2774 0046 2AC0     		sw	a0,0(sp)
1204:C:/Users/stapi/OneDrive/Desktop/GD32VW553/GD32VW55X_Wifi_BLE_SDK/GD32VW55x_RELEASE_V1.0.2/MSDK/lwip/lwip-2.1.2/src/api\api_lib.c ****   API_MSG_VAR_REF(msg).msg.jl.multiaddr = API_MSG_VAR_REF(multiaddr);
 2775              		.loc 1 1204 3 is_stmt 1
1205:C:/Users/stapi/OneDrive/Desktop/GD32VW553/GD32VW55X_Wifi_BLE_SDK/GD32VW55x_RELEASE_V1.0.2/MSDK/lwip/lwip-2.1.2/src/api\api_lib.c ****   API_MSG_VAR_REF(msg).msg.jl.netif_addr = API_MSG_VAR_REF(netif_addr);
1206:C:/Users/stapi/OneDrive/Desktop/GD32VW553/GD32VW55X_Wifi_BLE_SDK/GD32VW55x_RELEASE_V1.0.2/MSDK/lwip/lwip-2.1.2/src/api\api_lib.c ****   API_MSG_VAR_REF(msg).msg.jl.join_or_leave = join_or_leave;
1207:C:/Users/stapi/OneDrive/Desktop/GD32VW553/GD32VW55X_Wifi_BLE_SDK/GD32VW55x_RELEASE_V1.0.2/MSDK/lwip/lwip-2.1.2/src/api\api_lib.c ****   err = netconn_apimsg(lwip_netconn_do_join_leave_group, &API_MSG_VAR_REF(msg));
 2776              		.loc 1 1207 9 is_stmt 0
 2777 0048 37050000 		lui	a0,%hi(lwip_netconn_do_join_leave_group)
 2778              	.LVL301:
1204:C:/Users/stapi/OneDrive/Desktop/GD32VW553/GD32VW55X_Wifi_BLE_SDK/GD32VW55x_RELEASE_V1.0.2/MSDK/lwip/lwip-2.1.2/src/api\api_lib.c ****   API_MSG_VAR_REF(msg).msg.jl.multiaddr = API_MSG_VAR_REF(multiaddr);
 2779              		.loc 1 1204 41
 2780 004c 2EC4     		sw	a1,8(sp)
1205:C:/Users/stapi/OneDrive/Desktop/GD32VW553/GD32VW55X_Wifi_BLE_SDK/GD32VW55x_RELEASE_V1.0.2/MSDK/lwip/lwip-2.1.2/src/api\api_lib.c ****   API_MSG_VAR_REF(msg).msg.jl.netif_addr = API_MSG_VAR_REF(netif_addr);
 2781              		.loc 1 1205 3 is_stmt 1
 2782              		.loc 1 1207 9 is_stmt 0
 2783 004e 13050500 		addi	a0,a0,%lo(lwip_netconn_do_join_leave_group)
 2784 0052 8A85     		mv	a1,sp
 2785              	.LVL302:
1205:C:/Users/stapi/OneDrive/Desktop/GD32VW553/GD32VW55X_Wifi_BLE_SDK/GD32VW55x_RELEASE_V1.0.2/MSDK/lwip/lwip-2.1.2/src/api\api_lib.c ****   API_MSG_VAR_REF(msg).msg.jl.netif_addr = API_MSG_VAR_REF(netif_addr);
 2786              		.loc 1 1205 42
 2787 0054 32C6     		sw	a2,12(sp)
1206:C:/Users/stapi/OneDrive/Desktop/GD32VW553/GD32VW55X_Wifi_BLE_SDK/GD32VW55x_RELEASE_V1.0.2/MSDK/lwip/lwip-2.1.2/src/api\api_lib.c ****   err = netconn_apimsg(lwip_netconn_do_join_leave_group, &API_MSG_VAR_REF(msg));
 2788              		.loc 1 1206 3 is_stmt 1
1206:C:/Users/stapi/OneDrive/Desktop/GD32VW553/GD32VW55X_Wifi_BLE_SDK/GD32VW55x_RELEASE_V1.0.2/MSDK/lwip/lwip-2.1.2/src/api\api_lib.c ****   err = netconn_apimsg(lwip_netconn_do_join_leave_group, &API_MSG_VAR_REF(msg));
 2789              		.loc 1 1206 45 is_stmt 0
 2790 0056 36CA     		sw	a3,20(sp)
 2791              		.loc 1 1207 3 is_stmt 1
 2792              		.loc 1 1207 9 is_stmt 0
 2793 0058 97000000 		call	netconn_apimsg
 2793      E7800000 
 2794              	.LVL303:
1208:C:/Users/stapi/OneDrive/Desktop/GD32VW553/GD32VW55X_Wifi_BLE_SDK/GD32VW55x_RELEASE_V1.0.2/MSDK/lwip/lwip-2.1.2/src/api\api_lib.c ****   API_MSG_VAR_FREE(msg);
 2795              		.loc 1 1208 24 is_stmt 1
1209:C:/Users/stapi/OneDrive/Desktop/GD32VW553/GD32VW55X_Wifi_BLE_SDK/GD32VW55x_RELEASE_V1.0.2/MSDK/lwip/lwip-2.1.2/src/api\api_lib.c **** 
1210:C:/Users/stapi/OneDrive/Desktop/GD32VW553/GD32VW55X_Wifi_BLE_SDK/GD32VW55x_RELEASE_V1.0.2/MSDK/lwip/lwip-2.1.2/src/api\api_lib.c ****   return err;
 2796              		.loc 1 1210 3
1211:C:/Users/stapi/OneDrive/Desktop/GD32VW553/GD32VW55X_Wifi_BLE_SDK/GD32VW55x_RELEASE_V1.0.2/MSDK/lwip/lwip-2.1.2/src/api\api_lib.c **** }
 2797              		.loc 1 1211 1 is_stmt 0
 2798 0060 0561     		addi	sp,sp,32
 2799              		.cfi_def_cfa_offset 0
 2800 0062 17030000 		tail	__riscv_restore_0
 2800      67000300 
 2801              		.cfi_restore 1
 2802              		.cfi_def_cfa_offset -16
 2803              		.cfi_endproc
 2804              	.LFE32:
 2806              		.section	.text.netconn_join_leave_group_netif,"ax",@progbits
 2807              		.align	1
 2808              		.globl	netconn_join_leave_group_netif
 2810              	netconn_join_leave_group_netif:
 2811              	.LFB33:
1212:C:/Users/stapi/OneDrive/Desktop/GD32VW553/GD32VW55X_Wifi_BLE_SDK/GD32VW55x_RELEASE_V1.0.2/MSDK/lwip/lwip-2.1.2/src/api\api_lib.c **** /**
1213:C:/Users/stapi/OneDrive/Desktop/GD32VW553/GD32VW55X_Wifi_BLE_SDK/GD32VW55x_RELEASE_V1.0.2/MSDK/lwip/lwip-2.1.2/src/api\api_lib.c ****  * @ingroup netconn_udp
1214:C:/Users/stapi/OneDrive/Desktop/GD32VW553/GD32VW55X_Wifi_BLE_SDK/GD32VW55x_RELEASE_V1.0.2/MSDK/lwip/lwip-2.1.2/src/api\api_lib.c ****  * Join multicast groups for UDP netconns.
1215:C:/Users/stapi/OneDrive/Desktop/GD32VW553/GD32VW55X_Wifi_BLE_SDK/GD32VW55x_RELEASE_V1.0.2/MSDK/lwip/lwip-2.1.2/src/api\api_lib.c ****  *
1216:C:/Users/stapi/OneDrive/Desktop/GD32VW553/GD32VW55X_Wifi_BLE_SDK/GD32VW55x_RELEASE_V1.0.2/MSDK/lwip/lwip-2.1.2/src/api\api_lib.c ****  * @param conn the UDP netconn for which to change multicast addresses
1217:C:/Users/stapi/OneDrive/Desktop/GD32VW553/GD32VW55X_Wifi_BLE_SDK/GD32VW55x_RELEASE_V1.0.2/MSDK/lwip/lwip-2.1.2/src/api\api_lib.c ****  * @param multiaddr IP address of the multicast group to join or leave
1218:C:/Users/stapi/OneDrive/Desktop/GD32VW553/GD32VW55X_Wifi_BLE_SDK/GD32VW55x_RELEASE_V1.0.2/MSDK/lwip/lwip-2.1.2/src/api\api_lib.c ****  * @param if_idx the index of the netif
1219:C:/Users/stapi/OneDrive/Desktop/GD32VW553/GD32VW55X_Wifi_BLE_SDK/GD32VW55x_RELEASE_V1.0.2/MSDK/lwip/lwip-2.1.2/src/api\api_lib.c ****  * @param join_or_leave flag whether to send a join- or leave-message
1220:C:/Users/stapi/OneDrive/Desktop/GD32VW553/GD32VW55X_Wifi_BLE_SDK/GD32VW55x_RELEASE_V1.0.2/MSDK/lwip/lwip-2.1.2/src/api\api_lib.c ****  * @return ERR_OK if the action was taken, any err_t on error
1221:C:/Users/stapi/OneDrive/Desktop/GD32VW553/GD32VW55X_Wifi_BLE_SDK/GD32VW55x_RELEASE_V1.0.2/MSDK/lwip/lwip-2.1.2/src/api\api_lib.c ****  */
1222:C:/Users/stapi/OneDrive/Desktop/GD32VW553/GD32VW55X_Wifi_BLE_SDK/GD32VW55x_RELEASE_V1.0.2/MSDK/lwip/lwip-2.1.2/src/api\api_lib.c **** err_t
1223:C:/Users/stapi/OneDrive/Desktop/GD32VW553/GD32VW55X_Wifi_BLE_SDK/GD32VW55x_RELEASE_V1.0.2/MSDK/lwip/lwip-2.1.2/src/api\api_lib.c **** netconn_join_leave_group_netif(struct netconn *conn,
1224:C:/Users/stapi/OneDrive/Desktop/GD32VW553/GD32VW55X_Wifi_BLE_SDK/GD32VW55x_RELEASE_V1.0.2/MSDK/lwip/lwip-2.1.2/src/api\api_lib.c ****                                const ip_addr_t *multiaddr,
1225:C:/Users/stapi/OneDrive/Desktop/GD32VW553/GD32VW55X_Wifi_BLE_SDK/GD32VW55x_RELEASE_V1.0.2/MSDK/lwip/lwip-2.1.2/src/api\api_lib.c ****                                u8_t if_idx,
1226:C:/Users/stapi/OneDrive/Desktop/GD32VW553/GD32VW55X_Wifi_BLE_SDK/GD32VW55x_RELEASE_V1.0.2/MSDK/lwip/lwip-2.1.2/src/api\api_lib.c ****                                enum netconn_igmp join_or_leave)
1227:C:/Users/stapi/OneDrive/Desktop/GD32VW553/GD32VW55X_Wifi_BLE_SDK/GD32VW55x_RELEASE_V1.0.2/MSDK/lwip/lwip-2.1.2/src/api\api_lib.c **** {
 2812              		.loc 1 1227 1 is_stmt 1
 2813              		.cfi_startproc
 2814              	.LVL304:
 2815 0000 17030000 		call	t0,__riscv_save_0
 2815      E7020300 
 2816              		.cfi_offset 1, -4
 2817              		.cfi_def_cfa_offset 16
1228:C:/Users/stapi/OneDrive/Desktop/GD32VW553/GD32VW55X_Wifi_BLE_SDK/GD32VW55x_RELEASE_V1.0.2/MSDK/lwip/lwip-2.1.2/src/api\api_lib.c ****   API_MSG_VAR_DECLARE(msg);
 2818              		.loc 1 1228 3
1229:C:/Users/stapi/OneDrive/Desktop/GD32VW553/GD32VW55X_Wifi_BLE_SDK/GD32VW55x_RELEASE_V1.0.2/MSDK/lwip/lwip-2.1.2/src/api\api_lib.c ****   err_t err;
 2819              		.loc 1 1229 3
1230:C:/Users/stapi/OneDrive/Desktop/GD32VW553/GD32VW55X_Wifi_BLE_SDK/GD32VW55x_RELEASE_V1.0.2/MSDK/lwip/lwip-2.1.2/src/api\api_lib.c **** 
1231:C:/Users/stapi/OneDrive/Desktop/GD32VW553/GD32VW55X_Wifi_BLE_SDK/GD32VW55x_RELEASE_V1.0.2/MSDK/lwip/lwip-2.1.2/src/api\api_lib.c ****   LWIP_ERROR("netconn_join_leave_group: invalid conn",  (conn != NULL), return ERR_ARG;);
 2820              		.loc 1 1231 3
 2821              		.loc 1 1231 3
1227:C:/Users/stapi/OneDrive/Desktop/GD32VW553/GD32VW55X_Wifi_BLE_SDK/GD32VW55x_RELEASE_V1.0.2/MSDK/lwip/lwip-2.1.2/src/api\api_lib.c ****   API_MSG_VAR_DECLARE(msg);
 2822              		.loc 1 1227 1 is_stmt 0
 2823 0008 0111     		addi	sp,sp,-32
 2824              		.cfi_def_cfa_offset 48
 2825              		.loc 1 1231 3
 2826 000a 05E5     		bne	a0,zero,.L250
 2827              		.loc 1 1231 3 is_stmt 1 discriminator 1
 2828              		.loc 1 1231 3 discriminator 1
 2829 000c B7060000 		lui	a3,%hi(.LC0)
 2830              	.LVL305:
 2831 0010 B7050000 		lui	a1,%hi(.LC27)
 2832              	.LVL306:
 2833 0014 37050000 		lui	a0,%hi(.LC2)
 2834              	.LVL307:
 2835 0018 93860600 		addi	a3,a3,%lo(.LC0)
 2836 001c 1306F04C 		li	a2,1231
 2837              	.LVL308:
 2838 0020 93850500 		addi	a1,a1,%lo(.LC27)
 2839 0024 13050500 		addi	a0,a0,%lo(.LC2)
 2840 0028 97000000 		call	printf
 2840      E7800000 
 2841              	.LVL309:
 2842              	.L251:
 2843              		.loc 1 1231 3 discriminator 1
 2844              		.loc 1 1231 3 discriminator 1
 2845              		.loc 1 1231 3 discriminator 1
 2846 0030 01A0     		j	.L251
 2847              	.LVL310:
 2848              	.L250:
 2849 0032 AA87     		mv	a5,a0
 2850              		.loc 1 1231 3 discriminator 2
 2851              		.loc 1 1231 3 discriminator 2
1232:C:/Users/stapi/OneDrive/Desktop/GD32VW553/GD32VW55X_Wifi_BLE_SDK/GD32VW55x_RELEASE_V1.0.2/MSDK/lwip/lwip-2.1.2/src/api\api_lib.c **** 
1233:C:/Users/stapi/OneDrive/Desktop/GD32VW553/GD32VW55X_Wifi_BLE_SDK/GD32VW55x_RELEASE_V1.0.2/MSDK/lwip/lwip-2.1.2/src/api\api_lib.c ****   API_MSG_VAR_ALLOC(msg);
 2852              		.loc 1 1233 25 discriminator 2
1234:C:/Users/stapi/OneDrive/Desktop/GD32VW553/GD32VW55X_Wifi_BLE_SDK/GD32VW55x_RELEASE_V1.0.2/MSDK/lwip/lwip-2.1.2/src/api\api_lib.c **** 
1235:C:/Users/stapi/OneDrive/Desktop/GD32VW553/GD32VW55X_Wifi_BLE_SDK/GD32VW55x_RELEASE_V1.0.2/MSDK/lwip/lwip-2.1.2/src/api\api_lib.c **** #if LWIP_IPV4
1236:C:/Users/stapi/OneDrive/Desktop/GD32VW553/GD32VW55X_Wifi_BLE_SDK/GD32VW55x_RELEASE_V1.0.2/MSDK/lwip/lwip-2.1.2/src/api\api_lib.c ****   /* Don't propagate NULL pointer (IP_ADDR_ANY alias) to subsequent functions */
1237:C:/Users/stapi/OneDrive/Desktop/GD32VW553/GD32VW55X_Wifi_BLE_SDK/GD32VW55x_RELEASE_V1.0.2/MSDK/lwip/lwip-2.1.2/src/api\api_lib.c ****   if (multiaddr == NULL) {
 2853              		.loc 1 1237 3 discriminator 2
 2854              		.loc 1 1237 6 is_stmt 0 discriminator 2
 2855 0034 89E5     		bne	a1,zero,.L252
1238:C:/Users/stapi/OneDrive/Desktop/GD32VW553/GD32VW55X_Wifi_BLE_SDK/GD32VW55x_RELEASE_V1.0.2/MSDK/lwip/lwip-2.1.2/src/api\api_lib.c ****     multiaddr = IP4_ADDR_ANY;
 2856              		.loc 1 1238 15
 2857 0036 B7050000 		lui	a1,%hi(ip_addr_any)
 2858              	.LVL311:
 2859 003a 93850500 		addi	a1,a1,%lo(ip_addr_any)
 2860              	.L252:
 2861              	.LVL312:
1239:C:/Users/stapi/OneDrive/Desktop/GD32VW553/GD32VW55X_Wifi_BLE_SDK/GD32VW55x_RELEASE_V1.0.2/MSDK/lwip/lwip-2.1.2/src/api\api_lib.c ****   }
1240:C:/Users/stapi/OneDrive/Desktop/GD32VW553/GD32VW55X_Wifi_BLE_SDK/GD32VW55x_RELEASE_V1.0.2/MSDK/lwip/lwip-2.1.2/src/api\api_lib.c ****   if (if_idx == NETIF_NO_INDEX) {
 2862              		.loc 1 1240 3 is_stmt 1
1241:C:/Users/stapi/OneDrive/Desktop/GD32VW553/GD32VW55X_Wifi_BLE_SDK/GD32VW55x_RELEASE_V1.0.2/MSDK/lwip/lwip-2.1.2/src/api\api_lib.c ****     return ERR_IF;
 2863              		.loc 1 1241 12 is_stmt 0
 2864 003e 5155     		li	a0,-12
 2865              	.LVL313:
1240:C:/Users/stapi/OneDrive/Desktop/GD32VW553/GD32VW55X_Wifi_BLE_SDK/GD32VW55x_RELEASE_V1.0.2/MSDK/lwip/lwip-2.1.2/src/api\api_lib.c ****     return ERR_IF;
 2866              		.loc 1 1240 6
 2867 0040 19CE     		beq	a2,zero,.L253
1242:C:/Users/stapi/OneDrive/Desktop/GD32VW553/GD32VW55X_Wifi_BLE_SDK/GD32VW55x_RELEASE_V1.0.2/MSDK/lwip/lwip-2.1.2/src/api\api_lib.c ****   }
1243:C:/Users/stapi/OneDrive/Desktop/GD32VW553/GD32VW55X_Wifi_BLE_SDK/GD32VW55x_RELEASE_V1.0.2/MSDK/lwip/lwip-2.1.2/src/api\api_lib.c **** #endif /* LWIP_IPV4 */
1244:C:/Users/stapi/OneDrive/Desktop/GD32VW553/GD32VW55X_Wifi_BLE_SDK/GD32VW55x_RELEASE_V1.0.2/MSDK/lwip/lwip-2.1.2/src/api\api_lib.c **** 
1245:C:/Users/stapi/OneDrive/Desktop/GD32VW553/GD32VW55X_Wifi_BLE_SDK/GD32VW55x_RELEASE_V1.0.2/MSDK/lwip/lwip-2.1.2/src/api\api_lib.c ****   API_MSG_VAR_REF(msg).conn = conn;
 2868              		.loc 1 1245 3 is_stmt 1
1246:C:/Users/stapi/OneDrive/Desktop/GD32VW553/GD32VW55X_Wifi_BLE_SDK/GD32VW55x_RELEASE_V1.0.2/MSDK/lwip/lwip-2.1.2/src/api\api_lib.c ****   API_MSG_VAR_REF(msg).msg.jl.multiaddr = API_MSG_VAR_REF(multiaddr);
1247:C:/Users/stapi/OneDrive/Desktop/GD32VW553/GD32VW55X_Wifi_BLE_SDK/GD32VW55x_RELEASE_V1.0.2/MSDK/lwip/lwip-2.1.2/src/api\api_lib.c ****   API_MSG_VAR_REF(msg).msg.jl.if_idx = if_idx;
1248:C:/Users/stapi/OneDrive/Desktop/GD32VW553/GD32VW55X_Wifi_BLE_SDK/GD32VW55x_RELEASE_V1.0.2/MSDK/lwip/lwip-2.1.2/src/api\api_lib.c ****   API_MSG_VAR_REF(msg).msg.jl.join_or_leave = join_or_leave;
1249:C:/Users/stapi/OneDrive/Desktop/GD32VW553/GD32VW55X_Wifi_BLE_SDK/GD32VW55x_RELEASE_V1.0.2/MSDK/lwip/lwip-2.1.2/src/api\api_lib.c ****   err = netconn_apimsg(lwip_netconn_do_join_leave_group_netif, &API_MSG_VAR_REF(msg));
 2869              		.loc 1 1249 9 is_stmt 0
 2870 0042 37050000 		lui	a0,%hi(lwip_netconn_do_join_leave_group_netif)
1246:C:/Users/stapi/OneDrive/Desktop/GD32VW553/GD32VW55X_Wifi_BLE_SDK/GD32VW55x_RELEASE_V1.0.2/MSDK/lwip/lwip-2.1.2/src/api\api_lib.c ****   API_MSG_VAR_REF(msg).msg.jl.multiaddr = API_MSG_VAR_REF(multiaddr);
 2871              		.loc 1 1246 41
 2872 0046 2EC4     		sw	a1,8(sp)
 2873              		.loc 1 1249 9
 2874 0048 13050500 		addi	a0,a0,%lo(lwip_netconn_do_join_leave_group_netif)
 2875 004c 8A85     		mv	a1,sp
 2876              	.LVL314:
1245:C:/Users/stapi/OneDrive/Desktop/GD32VW553/GD32VW55X_Wifi_BLE_SDK/GD32VW55x_RELEASE_V1.0.2/MSDK/lwip/lwip-2.1.2/src/api\api_lib.c ****   API_MSG_VAR_REF(msg).msg.jl.multiaddr = API_MSG_VAR_REF(multiaddr);
 2877              		.loc 1 1245 29
 2878 004e 3EC0     		sw	a5,0(sp)
1246:C:/Users/stapi/OneDrive/Desktop/GD32VW553/GD32VW55X_Wifi_BLE_SDK/GD32VW55x_RELEASE_V1.0.2/MSDK/lwip/lwip-2.1.2/src/api\api_lib.c ****   API_MSG_VAR_REF(msg).msg.jl.multiaddr = API_MSG_VAR_REF(multiaddr);
 2879              		.loc 1 1246 3 is_stmt 1
1247:C:/Users/stapi/OneDrive/Desktop/GD32VW553/GD32VW55X_Wifi_BLE_SDK/GD32VW55x_RELEASE_V1.0.2/MSDK/lwip/lwip-2.1.2/src/api\api_lib.c ****   API_MSG_VAR_REF(msg).msg.jl.join_or_leave = join_or_leave;
 2880              		.loc 1 1247 3
1247:C:/Users/stapi/OneDrive/Desktop/GD32VW553/GD32VW55X_Wifi_BLE_SDK/GD32VW55x_RELEASE_V1.0.2/MSDK/lwip/lwip-2.1.2/src/api\api_lib.c ****   API_MSG_VAR_REF(msg).msg.jl.join_or_leave = join_or_leave;
 2881              		.loc 1 1247 38 is_stmt 0
 2882 0050 2308C100 		sb	a2,16(sp)
1248:C:/Users/stapi/OneDrive/Desktop/GD32VW553/GD32VW55X_Wifi_BLE_SDK/GD32VW55x_RELEASE_V1.0.2/MSDK/lwip/lwip-2.1.2/src/api\api_lib.c ****   err = netconn_apimsg(lwip_netconn_do_join_leave_group_netif, &API_MSG_VAR_REF(msg));
 2883              		.loc 1 1248 3 is_stmt 1
1248:C:/Users/stapi/OneDrive/Desktop/GD32VW553/GD32VW55X_Wifi_BLE_SDK/GD32VW55x_RELEASE_V1.0.2/MSDK/lwip/lwip-2.1.2/src/api\api_lib.c ****   err = netconn_apimsg(lwip_netconn_do_join_leave_group_netif, &API_MSG_VAR_REF(msg));
 2884              		.loc 1 1248 45 is_stmt 0
 2885 0054 36CA     		sw	a3,20(sp)
 2886              		.loc 1 1249 3 is_stmt 1
 2887              		.loc 1 1249 9 is_stmt 0
 2888 0056 97000000 		call	netconn_apimsg
 2888      E7800000 
 2889              	.LVL315:
1250:C:/Users/stapi/OneDrive/Desktop/GD32VW553/GD32VW55X_Wifi_BLE_SDK/GD32VW55x_RELEASE_V1.0.2/MSDK/lwip/lwip-2.1.2/src/api\api_lib.c ****   API_MSG_VAR_FREE(msg);
 2890              		.loc 1 1250 24 is_stmt 1
1251:C:/Users/stapi/OneDrive/Desktop/GD32VW553/GD32VW55X_Wifi_BLE_SDK/GD32VW55x_RELEASE_V1.0.2/MSDK/lwip/lwip-2.1.2/src/api\api_lib.c **** 
1252:C:/Users/stapi/OneDrive/Desktop/GD32VW553/GD32VW55X_Wifi_BLE_SDK/GD32VW55x_RELEASE_V1.0.2/MSDK/lwip/lwip-2.1.2/src/api\api_lib.c ****   return err;
 2891              		.loc 1 1252 3
 2892              	.L253:
1253:C:/Users/stapi/OneDrive/Desktop/GD32VW553/GD32VW55X_Wifi_BLE_SDK/GD32VW55x_RELEASE_V1.0.2/MSDK/lwip/lwip-2.1.2/src/api\api_lib.c **** }
 2893              		.loc 1 1253 1 is_stmt 0
 2894 005e 0561     		addi	sp,sp,32
 2895              		.cfi_def_cfa_offset 0
 2896 0060 17030000 		tail	__riscv_restore_0
 2896      67000300 
 2897              		.cfi_restore 1
 2898              		.cfi_def_cfa_offset -16
 2899              		.cfi_endproc
 2900              	.LFE33:
 2902              		.section	.rodata.netconn_gethostbyname.str1.4,"aMS",@progbits,1
 2903              		.align	2
 2904              	.LC28:
 2905 0000 6E657463 		.string	"netconn_gethostbyname: invalid name"
 2905      6F6E6E5F 
 2905      67657468 
 2905      6F737462 
 2905      796E616D 
 2906              		.align	2
 2907              	.LC29:
 2908 0024 6E657463 		.string	"netconn_gethostbyname: invalid addr"
 2908      6F6E6E5F 
 2908      67657468 
 2908      6F737462 
 2908      796E616D 
 2909              		.section	.text.netconn_gethostbyname,"ax",@progbits
 2910              		.align	1
 2911              		.globl	netconn_gethostbyname
 2913              	netconn_gethostbyname:
 2914              	.LFB34:
1254:C:/Users/stapi/OneDrive/Desktop/GD32VW553/GD32VW55X_Wifi_BLE_SDK/GD32VW55x_RELEASE_V1.0.2/MSDK/lwip/lwip-2.1.2/src/api\api_lib.c **** #endif /* LWIP_IGMP || (LWIP_IPV6 && LWIP_IPV6_MLD) */
1255:C:/Users/stapi/OneDrive/Desktop/GD32VW553/GD32VW55X_Wifi_BLE_SDK/GD32VW55x_RELEASE_V1.0.2/MSDK/lwip/lwip-2.1.2/src/api\api_lib.c **** 
1256:C:/Users/stapi/OneDrive/Desktop/GD32VW553/GD32VW55X_Wifi_BLE_SDK/GD32VW55x_RELEASE_V1.0.2/MSDK/lwip/lwip-2.1.2/src/api\api_lib.c **** #if LWIP_DNS
1257:C:/Users/stapi/OneDrive/Desktop/GD32VW553/GD32VW55X_Wifi_BLE_SDK/GD32VW55x_RELEASE_V1.0.2/MSDK/lwip/lwip-2.1.2/src/api\api_lib.c **** /**
1258:C:/Users/stapi/OneDrive/Desktop/GD32VW553/GD32VW55X_Wifi_BLE_SDK/GD32VW55x_RELEASE_V1.0.2/MSDK/lwip/lwip-2.1.2/src/api\api_lib.c ****  * @ingroup netconn_common
1259:C:/Users/stapi/OneDrive/Desktop/GD32VW553/GD32VW55X_Wifi_BLE_SDK/GD32VW55x_RELEASE_V1.0.2/MSDK/lwip/lwip-2.1.2/src/api\api_lib.c ****  * Execute a DNS query, only one IP address is returned
1260:C:/Users/stapi/OneDrive/Desktop/GD32VW553/GD32VW55X_Wifi_BLE_SDK/GD32VW55x_RELEASE_V1.0.2/MSDK/lwip/lwip-2.1.2/src/api\api_lib.c ****  *
1261:C:/Users/stapi/OneDrive/Desktop/GD32VW553/GD32VW55X_Wifi_BLE_SDK/GD32VW55x_RELEASE_V1.0.2/MSDK/lwip/lwip-2.1.2/src/api\api_lib.c ****  * @param name a string representation of the DNS host name to query
1262:C:/Users/stapi/OneDrive/Desktop/GD32VW553/GD32VW55X_Wifi_BLE_SDK/GD32VW55x_RELEASE_V1.0.2/MSDK/lwip/lwip-2.1.2/src/api\api_lib.c ****  * @param addr a preallocated ip_addr_t where to store the resolved IP address
1263:C:/Users/stapi/OneDrive/Desktop/GD32VW553/GD32VW55X_Wifi_BLE_SDK/GD32VW55x_RELEASE_V1.0.2/MSDK/lwip/lwip-2.1.2/src/api\api_lib.c ****  * @param dns_addrtype IP address type (IPv4 / IPv6)
1264:C:/Users/stapi/OneDrive/Desktop/GD32VW553/GD32VW55X_Wifi_BLE_SDK/GD32VW55x_RELEASE_V1.0.2/MSDK/lwip/lwip-2.1.2/src/api\api_lib.c ****  * @return ERR_OK: resolving succeeded
1265:C:/Users/stapi/OneDrive/Desktop/GD32VW553/GD32VW55X_Wifi_BLE_SDK/GD32VW55x_RELEASE_V1.0.2/MSDK/lwip/lwip-2.1.2/src/api\api_lib.c ****  *         ERR_MEM: memory error, try again later
1266:C:/Users/stapi/OneDrive/Desktop/GD32VW553/GD32VW55X_Wifi_BLE_SDK/GD32VW55x_RELEASE_V1.0.2/MSDK/lwip/lwip-2.1.2/src/api\api_lib.c ****  *         ERR_ARG: dns client not initialized or invalid hostname
1267:C:/Users/stapi/OneDrive/Desktop/GD32VW553/GD32VW55X_Wifi_BLE_SDK/GD32VW55x_RELEASE_V1.0.2/MSDK/lwip/lwip-2.1.2/src/api\api_lib.c ****  *         ERR_VAL: dns server response was invalid
1268:C:/Users/stapi/OneDrive/Desktop/GD32VW553/GD32VW55X_Wifi_BLE_SDK/GD32VW55x_RELEASE_V1.0.2/MSDK/lwip/lwip-2.1.2/src/api\api_lib.c ****  */
1269:C:/Users/stapi/OneDrive/Desktop/GD32VW553/GD32VW55X_Wifi_BLE_SDK/GD32VW55x_RELEASE_V1.0.2/MSDK/lwip/lwip-2.1.2/src/api\api_lib.c **** #if LWIP_IPV4 && LWIP_IPV6
1270:C:/Users/stapi/OneDrive/Desktop/GD32VW553/GD32VW55X_Wifi_BLE_SDK/GD32VW55x_RELEASE_V1.0.2/MSDK/lwip/lwip-2.1.2/src/api\api_lib.c **** err_t
1271:C:/Users/stapi/OneDrive/Desktop/GD32VW553/GD32VW55X_Wifi_BLE_SDK/GD32VW55x_RELEASE_V1.0.2/MSDK/lwip/lwip-2.1.2/src/api\api_lib.c **** netconn_gethostbyname_addrtype(const char *name, ip_addr_t *addr, u8_t dns_addrtype)
1272:C:/Users/stapi/OneDrive/Desktop/GD32VW553/GD32VW55X_Wifi_BLE_SDK/GD32VW55x_RELEASE_V1.0.2/MSDK/lwip/lwip-2.1.2/src/api\api_lib.c **** #else
1273:C:/Users/stapi/OneDrive/Desktop/GD32VW553/GD32VW55X_Wifi_BLE_SDK/GD32VW55x_RELEASE_V1.0.2/MSDK/lwip/lwip-2.1.2/src/api\api_lib.c **** err_t
1274:C:/Users/stapi/OneDrive/Desktop/GD32VW553/GD32VW55X_Wifi_BLE_SDK/GD32VW55x_RELEASE_V1.0.2/MSDK/lwip/lwip-2.1.2/src/api\api_lib.c **** netconn_gethostbyname(const char *name, ip_addr_t *addr)
1275:C:/Users/stapi/OneDrive/Desktop/GD32VW553/GD32VW55X_Wifi_BLE_SDK/GD32VW55x_RELEASE_V1.0.2/MSDK/lwip/lwip-2.1.2/src/api\api_lib.c **** #endif
1276:C:/Users/stapi/OneDrive/Desktop/GD32VW553/GD32VW55X_Wifi_BLE_SDK/GD32VW55x_RELEASE_V1.0.2/MSDK/lwip/lwip-2.1.2/src/api\api_lib.c **** {
 2915              		.loc 1 1276 1 is_stmt 1
 2916              		.cfi_startproc
 2917              	.LVL316:
 2918 0000 17030000 		call	t0,__riscv_save_1
 2918      E7020300 
 2919              		.cfi_offset 8, -8
 2920              		.cfi_offset 1, -4
 2921              		.cfi_def_cfa_offset 16
1277:C:/Users/stapi/OneDrive/Desktop/GD32VW553/GD32VW55X_Wifi_BLE_SDK/GD32VW55x_RELEASE_V1.0.2/MSDK/lwip/lwip-2.1.2/src/api\api_lib.c ****   API_VAR_DECLARE(struct dns_api_msg, msg);
 2922              		.loc 1 1277 3
1278:C:/Users/stapi/OneDrive/Desktop/GD32VW553/GD32VW55X_Wifi_BLE_SDK/GD32VW55x_RELEASE_V1.0.2/MSDK/lwip/lwip-2.1.2/src/api\api_lib.c **** #if !LWIP_MPU_COMPATIBLE
1279:C:/Users/stapi/OneDrive/Desktop/GD32VW553/GD32VW55X_Wifi_BLE_SDK/GD32VW55x_RELEASE_V1.0.2/MSDK/lwip/lwip-2.1.2/src/api\api_lib.c ****   sys_sem_t sem;
 2923              		.loc 1 1279 3
1280:C:/Users/stapi/OneDrive/Desktop/GD32VW553/GD32VW55X_Wifi_BLE_SDK/GD32VW55x_RELEASE_V1.0.2/MSDK/lwip/lwip-2.1.2/src/api\api_lib.c **** #endif /* LWIP_MPU_COMPATIBLE */
1281:C:/Users/stapi/OneDrive/Desktop/GD32VW553/GD32VW55X_Wifi_BLE_SDK/GD32VW55x_RELEASE_V1.0.2/MSDK/lwip/lwip-2.1.2/src/api\api_lib.c ****   err_t err;
 2924              		.loc 1 1281 3
1282:C:/Users/stapi/OneDrive/Desktop/GD32VW553/GD32VW55X_Wifi_BLE_SDK/GD32VW55x_RELEASE_V1.0.2/MSDK/lwip/lwip-2.1.2/src/api\api_lib.c ****   err_t cberr;
 2925              		.loc 1 1282 3
1283:C:/Users/stapi/OneDrive/Desktop/GD32VW553/GD32VW55X_Wifi_BLE_SDK/GD32VW55x_RELEASE_V1.0.2/MSDK/lwip/lwip-2.1.2/src/api\api_lib.c **** 
1284:C:/Users/stapi/OneDrive/Desktop/GD32VW553/GD32VW55X_Wifi_BLE_SDK/GD32VW55x_RELEASE_V1.0.2/MSDK/lwip/lwip-2.1.2/src/api\api_lib.c ****   LWIP_ERROR("netconn_gethostbyname: invalid name", (name != NULL), return ERR_ARG;);
 2926              		.loc 1 1284 3
 2927              		.loc 1 1284 3
1276:C:/Users/stapi/OneDrive/Desktop/GD32VW553/GD32VW55X_Wifi_BLE_SDK/GD32VW55x_RELEASE_V1.0.2/MSDK/lwip/lwip-2.1.2/src/api\api_lib.c ****   API_VAR_DECLARE(struct dns_api_msg, msg);
 2928              		.loc 1 1276 1 is_stmt 0
 2929 0008 0111     		addi	sp,sp,-32
 2930              		.cfi_def_cfa_offset 48
 2931              		.loc 1 1284 3
 2932 000a 05E5     		bne	a0,zero,.L257
 2933              		.loc 1 1284 3 is_stmt 1 discriminator 1
 2934              		.loc 1 1284 3 discriminator 1
 2935 000c B7060000 		lui	a3,%hi(.LC0)
 2936 0010 B7050000 		lui	a1,%hi(.LC28)
 2937              	.LVL317:
 2938 0014 37050000 		lui	a0,%hi(.LC2)
 2939              	.LVL318:
 2940 0018 93860600 		addi	a3,a3,%lo(.LC0)
 2941 001c 13064050 		li	a2,1284
 2942 0020 93850500 		addi	a1,a1,%lo(.LC28)
 2943 0024 13050500 		addi	a0,a0,%lo(.LC2)
 2944 0028 97000000 		call	printf
 2944      E7800000 
 2945              	.LVL319:
 2946              	.L258:
 2947              		.loc 1 1284 3 discriminator 1
 2948              		.loc 1 1284 3 discriminator 1
 2949              		.loc 1 1284 3 discriminator 1
 2950 0030 01A0     		j	.L258
 2951              	.LVL320:
 2952              	.L257:
 2953              		.loc 1 1284 3 discriminator 2
 2954              		.loc 1 1284 3 discriminator 2
1285:C:/Users/stapi/OneDrive/Desktop/GD32VW553/GD32VW55X_Wifi_BLE_SDK/GD32VW55x_RELEASE_V1.0.2/MSDK/lwip/lwip-2.1.2/src/api\api_lib.c ****   LWIP_ERROR("netconn_gethostbyname: invalid addr", (addr != NULL), return ERR_ARG;);
 2955              		.loc 1 1285 3 discriminator 2
 2956              		.loc 1 1285 3 discriminator 2
 2957 0032 85E5     		bne	a1,zero,.L259
 2958              		.loc 1 1285 3 discriminator 1
 2959              		.loc 1 1285 3 discriminator 1
 2960 0034 B7060000 		lui	a3,%hi(.LC0)
 2961 0038 B7050000 		lui	a1,%hi(.LC29)
 2962              	.LVL321:
 2963 003c 37050000 		lui	a0,%hi(.LC2)
 2964              	.LVL322:
 2965 0040 93860600 		addi	a3,a3,%lo(.LC0)
 2966 0044 13065050 		li	a2,1285
 2967 0048 93850500 		addi	a1,a1,%lo(.LC29)
 2968 004c 13050500 		addi	a0,a0,%lo(.LC2)
 2969 0050 97000000 		call	printf
 2969      E7800000 
 2970              	.LVL323:
 2971              	.L260:
 2972              		.loc 1 1285 3 discriminator 2
 2973              		.loc 1 1285 3 discriminator 2
 2974              		.loc 1 1285 3 discriminator 2
 2975 0058 01A0     		j	.L260
 2976              	.LVL324:
 2977              	.L259:
 2978 005a AA87     		mv	a5,a0
 2979              		.loc 1 1285 3 discriminator 2
 2980              		.loc 1 1285 3 discriminator 2
1286:C:/Users/stapi/OneDrive/Desktop/GD32VW553/GD32VW55X_Wifi_BLE_SDK/GD32VW55x_RELEASE_V1.0.2/MSDK/lwip/lwip-2.1.2/src/api\api_lib.c **** #if LWIP_MPU_COMPATIBLE
1287:C:/Users/stapi/OneDrive/Desktop/GD32VW553/GD32VW55X_Wifi_BLE_SDK/GD32VW55x_RELEASE_V1.0.2/MSDK/lwip/lwip-2.1.2/src/api\api_lib.c ****   if (strlen(name) >= DNS_MAX_NAME_LENGTH) {
1288:C:/Users/stapi/OneDrive/Desktop/GD32VW553/GD32VW55X_Wifi_BLE_SDK/GD32VW55x_RELEASE_V1.0.2/MSDK/lwip/lwip-2.1.2/src/api\api_lib.c ****     return ERR_ARG;
1289:C:/Users/stapi/OneDrive/Desktop/GD32VW553/GD32VW55X_Wifi_BLE_SDK/GD32VW55x_RELEASE_V1.0.2/MSDK/lwip/lwip-2.1.2/src/api\api_lib.c ****   }
1290:C:/Users/stapi/OneDrive/Desktop/GD32VW553/GD32VW55X_Wifi_BLE_SDK/GD32VW55x_RELEASE_V1.0.2/MSDK/lwip/lwip-2.1.2/src/api\api_lib.c **** #endif
1291:C:/Users/stapi/OneDrive/Desktop/GD32VW553/GD32VW55X_Wifi_BLE_SDK/GD32VW55x_RELEASE_V1.0.2/MSDK/lwip/lwip-2.1.2/src/api\api_lib.c **** 
1292:C:/Users/stapi/OneDrive/Desktop/GD32VW553/GD32VW55X_Wifi_BLE_SDK/GD32VW55x_RELEASE_V1.0.2/MSDK/lwip/lwip-2.1.2/src/api\api_lib.c **** #ifdef LWIP_HOOK_NETCONN_EXTERNAL_RESOLVE
1293:C:/Users/stapi/OneDrive/Desktop/GD32VW553/GD32VW55X_Wifi_BLE_SDK/GD32VW55x_RELEASE_V1.0.2/MSDK/lwip/lwip-2.1.2/src/api\api_lib.c **** #if LWIP_IPV4 && LWIP_IPV6
1294:C:/Users/stapi/OneDrive/Desktop/GD32VW553/GD32VW55X_Wifi_BLE_SDK/GD32VW55x_RELEASE_V1.0.2/MSDK/lwip/lwip-2.1.2/src/api\api_lib.c ****   if (LWIP_HOOK_NETCONN_EXTERNAL_RESOLVE(name, addr, dns_addrtype, &err)) {
1295:C:/Users/stapi/OneDrive/Desktop/GD32VW553/GD32VW55X_Wifi_BLE_SDK/GD32VW55x_RELEASE_V1.0.2/MSDK/lwip/lwip-2.1.2/src/api\api_lib.c **** #else
1296:C:/Users/stapi/OneDrive/Desktop/GD32VW553/GD32VW55X_Wifi_BLE_SDK/GD32VW55x_RELEASE_V1.0.2/MSDK/lwip/lwip-2.1.2/src/api\api_lib.c ****   if (LWIP_HOOK_NETCONN_EXTERNAL_RESOLVE(name, addr, NETCONN_DNS_DEFAULT, &err)) {
1297:C:/Users/stapi/OneDrive/Desktop/GD32VW553/GD32VW55X_Wifi_BLE_SDK/GD32VW55x_RELEASE_V1.0.2/MSDK/lwip/lwip-2.1.2/src/api\api_lib.c **** #endif /* LWIP_IPV4 && LWIP_IPV6 */
1298:C:/Users/stapi/OneDrive/Desktop/GD32VW553/GD32VW55X_Wifi_BLE_SDK/GD32VW55x_RELEASE_V1.0.2/MSDK/lwip/lwip-2.1.2/src/api\api_lib.c ****     return err;
1299:C:/Users/stapi/OneDrive/Desktop/GD32VW553/GD32VW55X_Wifi_BLE_SDK/GD32VW55x_RELEASE_V1.0.2/MSDK/lwip/lwip-2.1.2/src/api\api_lib.c ****   }
1300:C:/Users/stapi/OneDrive/Desktop/GD32VW553/GD32VW55X_Wifi_BLE_SDK/GD32VW55x_RELEASE_V1.0.2/MSDK/lwip/lwip-2.1.2/src/api\api_lib.c **** #endif /* LWIP_HOOK_NETCONN_EXTERNAL_RESOLVE */
1301:C:/Users/stapi/OneDrive/Desktop/GD32VW553/GD32VW55X_Wifi_BLE_SDK/GD32VW55x_RELEASE_V1.0.2/MSDK/lwip/lwip-2.1.2/src/api\api_lib.c **** 
1302:C:/Users/stapi/OneDrive/Desktop/GD32VW553/GD32VW55X_Wifi_BLE_SDK/GD32VW55x_RELEASE_V1.0.2/MSDK/lwip/lwip-2.1.2/src/api\api_lib.c ****   API_VAR_ALLOC(struct dns_api_msg, MEMP_DNS_API_MSG, msg, ERR_MEM);
 2981              		.loc 1 1302 68 discriminator 2
1303:C:/Users/stapi/OneDrive/Desktop/GD32VW553/GD32VW55X_Wifi_BLE_SDK/GD32VW55x_RELEASE_V1.0.2/MSDK/lwip/lwip-2.1.2/src/api\api_lib.c **** #if LWIP_MPU_COMPATIBLE
1304:C:/Users/stapi/OneDrive/Desktop/GD32VW553/GD32VW55X_Wifi_BLE_SDK/GD32VW55x_RELEASE_V1.0.2/MSDK/lwip/lwip-2.1.2/src/api\api_lib.c ****   strncpy(API_VAR_REF(msg).name, name, DNS_MAX_NAME_LENGTH - 1);
1305:C:/Users/stapi/OneDrive/Desktop/GD32VW553/GD32VW55X_Wifi_BLE_SDK/GD32VW55x_RELEASE_V1.0.2/MSDK/lwip/lwip-2.1.2/src/api\api_lib.c ****   API_VAR_REF(msg).name[DNS_MAX_NAME_LENGTH - 1] = 0;
1306:C:/Users/stapi/OneDrive/Desktop/GD32VW553/GD32VW55X_Wifi_BLE_SDK/GD32VW55x_RELEASE_V1.0.2/MSDK/lwip/lwip-2.1.2/src/api\api_lib.c **** #else /* LWIP_MPU_COMPATIBLE */
1307:C:/Users/stapi/OneDrive/Desktop/GD32VW553/GD32VW55X_Wifi_BLE_SDK/GD32VW55x_RELEASE_V1.0.2/MSDK/lwip/lwip-2.1.2/src/api\api_lib.c ****   msg.err = &err;
 2982              		.loc 1 1307 3 discriminator 2
 2983              		.loc 1 1307 11 is_stmt 0 discriminator 2
 2984 005c 1307B100 		addi	a4,sp,11
1308:C:/Users/stapi/OneDrive/Desktop/GD32VW553/GD32VW55X_Wifi_BLE_SDK/GD32VW55x_RELEASE_V1.0.2/MSDK/lwip/lwip-2.1.2/src/api\api_lib.c ****   msg.sem = &sem;
 2985              		.loc 1 1308 11 discriminator 2
 2986 0060 6800     		addi	a0,sp,12
 2987              	.LVL325:
1309:C:/Users/stapi/OneDrive/Desktop/GD32VW553/GD32VW55X_Wifi_BLE_SDK/GD32VW55x_RELEASE_V1.0.2/MSDK/lwip/lwip-2.1.2/src/api\api_lib.c ****   API_VAR_REF(msg).addr = API_VAR_REF(addr);
 2988              		.loc 1 1309 25 discriminator 2
 2989 0062 2ECA     		sw	a1,20(sp)
1310:C:/Users/stapi/OneDrive/Desktop/GD32VW553/GD32VW55X_Wifi_BLE_SDK/GD32VW55x_RELEASE_V1.0.2/MSDK/lwip/lwip-2.1.2/src/api\api_lib.c ****   API_VAR_REF(msg).name = name;
1311:C:/Users/stapi/OneDrive/Desktop/GD32VW553/GD32VW55X_Wifi_BLE_SDK/GD32VW55x_RELEASE_V1.0.2/MSDK/lwip/lwip-2.1.2/src/api\api_lib.c **** #endif /* LWIP_MPU_COMPATIBLE */
1312:C:/Users/stapi/OneDrive/Desktop/GD32VW553/GD32VW55X_Wifi_BLE_SDK/GD32VW55x_RELEASE_V1.0.2/MSDK/lwip/lwip-2.1.2/src/api\api_lib.c **** #if LWIP_IPV4 && LWIP_IPV6
1313:C:/Users/stapi/OneDrive/Desktop/GD32VW553/GD32VW55X_Wifi_BLE_SDK/GD32VW55x_RELEASE_V1.0.2/MSDK/lwip/lwip-2.1.2/src/api\api_lib.c ****   API_VAR_REF(msg).dns_addrtype = dns_addrtype;
1314:C:/Users/stapi/OneDrive/Desktop/GD32VW553/GD32VW55X_Wifi_BLE_SDK/GD32VW55x_RELEASE_V1.0.2/MSDK/lwip/lwip-2.1.2/src/api\api_lib.c **** #endif /* LWIP_IPV4 && LWIP_IPV6 */
1315:C:/Users/stapi/OneDrive/Desktop/GD32VW553/GD32VW55X_Wifi_BLE_SDK/GD32VW55x_RELEASE_V1.0.2/MSDK/lwip/lwip-2.1.2/src/api\api_lib.c **** #if LWIP_NETCONN_SEM_PER_THREAD
1316:C:/Users/stapi/OneDrive/Desktop/GD32VW553/GD32VW55X_Wifi_BLE_SDK/GD32VW55x_RELEASE_V1.0.2/MSDK/lwip/lwip-2.1.2/src/api\api_lib.c ****   API_VAR_REF(msg).sem = LWIP_NETCONN_THREAD_SEM_GET();
1317:C:/Users/stapi/OneDrive/Desktop/GD32VW553/GD32VW55X_Wifi_BLE_SDK/GD32VW55x_RELEASE_V1.0.2/MSDK/lwip/lwip-2.1.2/src/api\api_lib.c **** #else /* LWIP_NETCONN_SEM_PER_THREAD*/
1318:C:/Users/stapi/OneDrive/Desktop/GD32VW553/GD32VW55X_Wifi_BLE_SDK/GD32VW55x_RELEASE_V1.0.2/MSDK/lwip/lwip-2.1.2/src/api\api_lib.c ****   err = sys_sem_new(API_EXPR_REF(API_VAR_REF(msg).sem), 0);
 2990              		.loc 1 1318 9 discriminator 2
 2991 0064 8145     		li	a1,0
 2992              	.LVL326:
1307:C:/Users/stapi/OneDrive/Desktop/GD32VW553/GD32VW55X_Wifi_BLE_SDK/GD32VW55x_RELEASE_V1.0.2/MSDK/lwip/lwip-2.1.2/src/api\api_lib.c ****   msg.sem = &sem;
 2993              		.loc 1 1307 11 discriminator 2
 2994 0066 3ACE     		sw	a4,28(sp)
1308:C:/Users/stapi/OneDrive/Desktop/GD32VW553/GD32VW55X_Wifi_BLE_SDK/GD32VW55x_RELEASE_V1.0.2/MSDK/lwip/lwip-2.1.2/src/api\api_lib.c ****   API_VAR_REF(msg).addr = API_VAR_REF(addr);
 2995              		.loc 1 1308 3 is_stmt 1 discriminator 2
1308:C:/Users/stapi/OneDrive/Desktop/GD32VW553/GD32VW55X_Wifi_BLE_SDK/GD32VW55x_RELEASE_V1.0.2/MSDK/lwip/lwip-2.1.2/src/api\api_lib.c ****   API_VAR_REF(msg).addr = API_VAR_REF(addr);
 2996              		.loc 1 1308 11 is_stmt 0 discriminator 2
 2997 0068 2ACC     		sw	a0,24(sp)
1309:C:/Users/stapi/OneDrive/Desktop/GD32VW553/GD32VW55X_Wifi_BLE_SDK/GD32VW55x_RELEASE_V1.0.2/MSDK/lwip/lwip-2.1.2/src/api\api_lib.c ****   API_VAR_REF(msg).name = name;
 2998              		.loc 1 1309 3 is_stmt 1 discriminator 2
1310:C:/Users/stapi/OneDrive/Desktop/GD32VW553/GD32VW55X_Wifi_BLE_SDK/GD32VW55x_RELEASE_V1.0.2/MSDK/lwip/lwip-2.1.2/src/api\api_lib.c **** #endif /* LWIP_MPU_COMPATIBLE */
 2999              		.loc 1 1310 3 discriminator 2
1310:C:/Users/stapi/OneDrive/Desktop/GD32VW553/GD32VW55X_Wifi_BLE_SDK/GD32VW55x_RELEASE_V1.0.2/MSDK/lwip/lwip-2.1.2/src/api\api_lib.c **** #endif /* LWIP_MPU_COMPATIBLE */
 3000              		.loc 1 1310 25 is_stmt 0 discriminator 2
 3001 006a 3EC8     		sw	a5,16(sp)
 3002              		.loc 1 1318 3 is_stmt 1 discriminator 2
 3003              		.loc 1 1318 9 is_stmt 0 discriminator 2
 3004 006c 97000000 		call	sys_sem_new
 3004      E7800000 
 3005              	.LVL327:
 3006              		.loc 1 1318 7 discriminator 2
 3007 0074 A305A100 		sb	a0,11(sp)
1319:C:/Users/stapi/OneDrive/Desktop/GD32VW553/GD32VW55X_Wifi_BLE_SDK/GD32VW55x_RELEASE_V1.0.2/MSDK/lwip/lwip-2.1.2/src/api\api_lib.c ****   if (err != ERR_OK) {
 3008              		.loc 1 1319 3 is_stmt 1 discriminator 2
1318:C:/Users/stapi/OneDrive/Desktop/GD32VW553/GD32VW55X_Wifi_BLE_SDK/GD32VW55x_RELEASE_V1.0.2/MSDK/lwip/lwip-2.1.2/src/api\api_lib.c ****   if (err != ERR_OK) {
 3009              		.loc 1 1318 9 is_stmt 0 discriminator 2
 3010 0078 2A84     		mv	s0,a0
 3011              		.loc 1 1319 6 discriminator 2
 3012 007a 05E5     		bne	a0,zero,.L261
1320:C:/Users/stapi/OneDrive/Desktop/GD32VW553/GD32VW55X_Wifi_BLE_SDK/GD32VW55x_RELEASE_V1.0.2/MSDK/lwip/lwip-2.1.2/src/api\api_lib.c ****     API_VAR_FREE(MEMP_DNS_API_MSG, msg);
1321:C:/Users/stapi/OneDrive/Desktop/GD32VW553/GD32VW55X_Wifi_BLE_SDK/GD32VW55x_RELEASE_V1.0.2/MSDK/lwip/lwip-2.1.2/src/api\api_lib.c ****     return err;
1322:C:/Users/stapi/OneDrive/Desktop/GD32VW553/GD32VW55X_Wifi_BLE_SDK/GD32VW55x_RELEASE_V1.0.2/MSDK/lwip/lwip-2.1.2/src/api\api_lib.c ****   }
1323:C:/Users/stapi/OneDrive/Desktop/GD32VW553/GD32VW55X_Wifi_BLE_SDK/GD32VW55x_RELEASE_V1.0.2/MSDK/lwip/lwip-2.1.2/src/api\api_lib.c **** #endif /* LWIP_NETCONN_SEM_PER_THREAD */
1324:C:/Users/stapi/OneDrive/Desktop/GD32VW553/GD32VW55X_Wifi_BLE_SDK/GD32VW55x_RELEASE_V1.0.2/MSDK/lwip/lwip-2.1.2/src/api\api_lib.c **** 
1325:C:/Users/stapi/OneDrive/Desktop/GD32VW553/GD32VW55X_Wifi_BLE_SDK/GD32VW55x_RELEASE_V1.0.2/MSDK/lwip/lwip-2.1.2/src/api\api_lib.c ****   cberr = tcpip_send_msg_wait_sem(lwip_netconn_do_gethostbyname, &API_VAR_REF(msg), API_EXPR_REF(AP
 3013              		.loc 1 1325 3 is_stmt 1
 3014              		.loc 1 1325 11 is_stmt 0
 3015 007c 6246     		lw	a2,24(sp)
 3016 007e 37050000 		lui	a0,%hi(lwip_netconn_do_gethostbyname)
 3017 0082 0C08     		addi	a1,sp,16
 3018 0084 13050500 		addi	a0,a0,%lo(lwip_netconn_do_gethostbyname)
 3019 0088 97000000 		call	tcpip_send_msg_wait_sem
 3019      E7800000 
 3020              	.LVL328:
 3021 0090 2A84     		mv	s0,a0
 3022              	.LVL329:
1326:C:/Users/stapi/OneDrive/Desktop/GD32VW553/GD32VW55X_Wifi_BLE_SDK/GD32VW55x_RELEASE_V1.0.2/MSDK/lwip/lwip-2.1.2/src/api\api_lib.c **** #if !LWIP_NETCONN_SEM_PER_THREAD
1327:C:/Users/stapi/OneDrive/Desktop/GD32VW553/GD32VW55X_Wifi_BLE_SDK/GD32VW55x_RELEASE_V1.0.2/MSDK/lwip/lwip-2.1.2/src/api\api_lib.c ****   sys_sem_free(API_EXPR_REF(API_VAR_REF(msg).sem));
 3023              		.loc 1 1327 3 is_stmt 1
 3024 0092 6245     		lw	a0,24(sp)
 3025 0094 97000000 		call	sys_sem_free
 3025      E7800000 
 3026              	.LVL330:
1328:C:/Users/stapi/OneDrive/Desktop/GD32VW553/GD32VW55X_Wifi_BLE_SDK/GD32VW55x_RELEASE_V1.0.2/MSDK/lwip/lwip-2.1.2/src/api\api_lib.c **** #endif /* !LWIP_NETCONN_SEM_PER_THREAD */
1329:C:/Users/stapi/OneDrive/Desktop/GD32VW553/GD32VW55X_Wifi_BLE_SDK/GD32VW55x_RELEASE_V1.0.2/MSDK/lwip/lwip-2.1.2/src/api\api_lib.c ****   if (cberr != ERR_OK) {
 3027              		.loc 1 1329 3
 3028              		.loc 1 1329 6 is_stmt 0
 3029 009c 19E0     		bne	s0,zero,.L261
1330:C:/Users/stapi/OneDrive/Desktop/GD32VW553/GD32VW55X_Wifi_BLE_SDK/GD32VW55x_RELEASE_V1.0.2/MSDK/lwip/lwip-2.1.2/src/api\api_lib.c ****     API_VAR_FREE(MEMP_DNS_API_MSG, msg);
1331:C:/Users/stapi/OneDrive/Desktop/GD32VW553/GD32VW55X_Wifi_BLE_SDK/GD32VW55x_RELEASE_V1.0.2/MSDK/lwip/lwip-2.1.2/src/api\api_lib.c ****     return cberr;
1332:C:/Users/stapi/OneDrive/Desktop/GD32VW553/GD32VW55X_Wifi_BLE_SDK/GD32VW55x_RELEASE_V1.0.2/MSDK/lwip/lwip-2.1.2/src/api\api_lib.c ****   }
1333:C:/Users/stapi/OneDrive/Desktop/GD32VW553/GD32VW55X_Wifi_BLE_SDK/GD32VW55x_RELEASE_V1.0.2/MSDK/lwip/lwip-2.1.2/src/api\api_lib.c **** 
1334:C:/Users/stapi/OneDrive/Desktop/GD32VW553/GD32VW55X_Wifi_BLE_SDK/GD32VW55x_RELEASE_V1.0.2/MSDK/lwip/lwip-2.1.2/src/api\api_lib.c **** #if LWIP_MPU_COMPATIBLE
1335:C:/Users/stapi/OneDrive/Desktop/GD32VW553/GD32VW55X_Wifi_BLE_SDK/GD32VW55x_RELEASE_V1.0.2/MSDK/lwip/lwip-2.1.2/src/api\api_lib.c ****   *addr = msg->addr;
1336:C:/Users/stapi/OneDrive/Desktop/GD32VW553/GD32VW55X_Wifi_BLE_SDK/GD32VW55x_RELEASE_V1.0.2/MSDK/lwip/lwip-2.1.2/src/api\api_lib.c ****   err = msg->err;
1337:C:/Users/stapi/OneDrive/Desktop/GD32VW553/GD32VW55X_Wifi_BLE_SDK/GD32VW55x_RELEASE_V1.0.2/MSDK/lwip/lwip-2.1.2/src/api\api_lib.c **** #endif /* LWIP_MPU_COMPATIBLE */
1338:C:/Users/stapi/OneDrive/Desktop/GD32VW553/GD32VW55X_Wifi_BLE_SDK/GD32VW55x_RELEASE_V1.0.2/MSDK/lwip/lwip-2.1.2/src/api\api_lib.c **** 
1339:C:/Users/stapi/OneDrive/Desktop/GD32VW553/GD32VW55X_Wifi_BLE_SDK/GD32VW55x_RELEASE_V1.0.2/MSDK/lwip/lwip-2.1.2/src/api\api_lib.c ****   API_VAR_FREE(MEMP_DNS_API_MSG, msg);
 3030              		.loc 1 1339 38 is_stmt 1
1340:C:/Users/stapi/OneDrive/Desktop/GD32VW553/GD32VW55X_Wifi_BLE_SDK/GD32VW55x_RELEASE_V1.0.2/MSDK/lwip/lwip-2.1.2/src/api\api_lib.c ****   return err;
 3031              		.loc 1 1340 3
 3032              		.loc 1 1340 10 is_stmt 0
 3033 009e 0304B100 		lb	s0,11(sp)
 3034              	.LVL331:
 3035              	.L261:
1341:C:/Users/stapi/OneDrive/Desktop/GD32VW553/GD32VW55X_Wifi_BLE_SDK/GD32VW55x_RELEASE_V1.0.2/MSDK/lwip/lwip-2.1.2/src/api\api_lib.c **** }
 3036              		.loc 1 1341 1
 3037 00a2 2285     		mv	a0,s0
 3038 00a4 0561     		addi	sp,sp,32
 3039              		.cfi_def_cfa_offset 0
 3040 00a6 17030000 		tail	__riscv_restore_1
 3040      67000300 
 3041              		.cfi_restore 8
 3042              		.cfi_restore 1
 3043              		.cfi_def_cfa_offset -16
 3044              		.cfi_endproc
 3045              	.LFE34:
 3047              		.text
 3048              	.Letext0:
 3049              		.file 2 "c:\\users\\stapi\\onedrive\\desktop\\gd32vw553\\embeddedbuilder_v1.4.7.26843\\tools\\nucl
 3050              		.file 3 "c:\\users\\stapi\\onedrive\\desktop\\gd32vw553\\embeddedbuilder_v1.4.7.26843\\tools\\nucl
 3051              		.file 4 "c:\\users\\stapi\\onedrive\\desktop\\gd32vw553\\embeddedbuilder_v1.4.7.26843\\tools\\nucl
 3052              		.file 5 "c:\\users\\stapi\\onedrive\\desktop\\gd32vw553\\embeddedbuilder_v1.4.7.26843\\tools\\nucl
 3053              		.file 6 "c:\\users\\stapi\\onedrive\\desktop\\gd32vw553\\embeddedbuilder_v1.4.7.26843\\tools\\nucl
 3054              		.file 7 "..\\..\\..\\..\\lwip\\lwip-2.1.2\\src\\include/lwip/arch.h"
 3055              		.file 8 "..\\..\\..\\..\\lwip\\lwip-2.1.2\\src\\include/lwip/err.h"
 3056              		.file 9 "..\\..\\..\\..\\lwip\\lwip-2.1.2\\src\\include/lwip/pbuf.h"
 3057              		.file 10 "..\\..\\..\\..\\lwip\\lwip-2.1.2\\src\\include/lwip/ip4_addr.h"
 3058              		.file 11 "..\\..\\..\\..\\lwip\\lwip-2.1.2\\src\\include/lwip/ip_addr.h"
 3059              		.file 12 "..\\..\\..\\..\\lwip\\lwip-2.1.2\\src\\include/lwip/netbuf.h"
 3060              		.file 13 "..\\..\\..\\..\\rtos\\rtos_wrapper/wrapper_os.h"
 3061              		.file 14 "..\\..\\..\\..\\lwip\\lwip-2.1.2\\port/arch/sys_arch.h"
 3062              		.file 15 "..\\..\\..\\..\\lwip\\lwip-2.1.2\\src\\include/lwip/api.h"
 3063              		.file 16 "..\\..\\..\\..\\lwip\\lwip-2.1.2\\src\\include/lwip/ip.h"
 3064              		.file 17 "..\\..\\..\\..\\lwip\\lwip-2.1.2\\src\\include/lwip/tcp.h"
 3065              		.file 18 "..\\..\\..\\..\\lwip\\lwip-2.1.2\\src\\include/lwip/udp.h"
 3066              		.file 19 "..\\..\\..\\..\\lwip\\lwip-2.1.2\\src\\include/lwip/raw.h"
 3067              		.file 20 "..\\..\\..\\..\\lwip\\lwip-2.1.2\\src\\include/lwip/priv/api_msg.h"
 3068              		.file 21 "..\\..\\..\\..\\lwip\\lwip-2.1.2\\src\\include/lwip/memp.h"
 3069              		.file 22 "..\\..\\..\\..\\lwip\\lwip-2.1.2\\src\\include/lwip/tcpip.h"
 3070              		.file 23 "..\\..\\..\\..\\lwip\\lwip-2.1.2\\src\\include/lwip/tcpbase.h"
 3071              		.file 24 "..\\..\\..\\..\\lwip\\lwip-2.1.2\\src\\include/lwip/priv/tcp_priv.h"
 3072              		.file 25 "..\\..\\..\\..\\lwip\\lwip-2.1.2\\src\\include/lwip/prot/tcp.h"
 3073              		.file 26 "c:\\users\\stapi\\onedrive\\desktop\\gd32vw553\\embeddedbuilder_v1.4.7.26843\\tools\\nuc
 3074              		.file 27 "..\\..\\..\\..\\lwip\\lwip-2.1.2\\src\\include/lwip/sys.h"
 3075              		.file 28 "..\\..\\..\\..\\lwip\\lwip-2.1.2\\src\\include/lwip/priv/tcpip_priv.h"
DEFINED SYMBOLS
                            *ABS*:0000000000000000 api_lib.c
C:\Users\stapi\AppData\Local\Temp\cc5wRCGd.s:12     .text.netconn_apimsg:0000000000000000 netconn_apimsg
C:\Users\stapi\AppData\Local\Temp\cc5wRCGd.s:16     .text.netconn_apimsg:0000000000000000 .L0 
C:\Users\stapi\AppData\Local\Temp\cc5wRCGd.s:18     .text.netconn_apimsg:0000000000000000 .L0 
C:\Users\stapi\AppData\Local\Temp\cc5wRCGd.s:19     .text.netconn_apimsg:0000000000000008 .L0 
C:\Users\stapi\AppData\Local\Temp\cc5wRCGd.s:20     .text.netconn_apimsg:0000000000000008 .L0 
C:\Users\stapi\AppData\Local\Temp\cc5wRCGd.s:21     .text.netconn_apimsg:0000000000000008 .L0 
C:\Users\stapi\AppData\Local\Temp\cc5wRCGd.s:23     .text.netconn_apimsg:0000000000000008 .L0 
C:\Users\stapi\AppData\Local\Temp\cc5wRCGd.s:24     .text.netconn_apimsg:0000000000000008 .L0 
C:\Users\stapi\AppData\Local\Temp\cc5wRCGd.s:25     .text.netconn_apimsg:0000000000000008 .L0 
C:\Users\stapi\AppData\Local\Temp\cc5wRCGd.s:27     .text.netconn_apimsg:000000000000000a .L0 
C:\Users\stapi\AppData\Local\Temp\cc5wRCGd.s:29     .text.netconn_apimsg:000000000000000c .L0 
C:\Users\stapi\AppData\Local\Temp\cc5wRCGd.s:33     .text.netconn_apimsg:0000000000000016 .L0 
C:\Users\stapi\AppData\Local\Temp\cc5wRCGd.s:34     .text.netconn_apimsg:0000000000000016 .L0 
C:\Users\stapi\AppData\Local\Temp\cc5wRCGd.s:36     .text.netconn_apimsg:0000000000000018 .L0 
C:\Users\stapi\AppData\Local\Temp\cc5wRCGd.s:37     .text.netconn_apimsg:0000000000000018 .L0 
C:\Users\stapi\AppData\Local\Temp\cc5wRCGd.s:41     .text.netconn_apimsg:000000000000001c .L0 
C:\Users\stapi\AppData\Local\Temp\cc5wRCGd.s:42     .text.netconn_apimsg:0000000000000024 .L0 
C:\Users\stapi\AppData\Local\Temp\cc5wRCGd.s:43     .text.netconn_apimsg:0000000000000024 .L0 
C:\Users\stapi\AppData\Local\Temp\cc5wRCGd.s:44     .text.netconn_apimsg:0000000000000024 .L0 
C:\Users\stapi\AppData\Local\Temp\cc5wRCGd.s:45     .text.netconn_apimsg:0000000000000024 .L0 
C:\Users\stapi\AppData\Local\Temp\cc5wRCGd.s:61     .text.netconn_tcp_recvd_msg:0000000000000000 netconn_tcp_recvd_msg
C:\Users\stapi\AppData\Local\Temp\cc5wRCGd.s:64     .text.netconn_tcp_recvd_msg:0000000000000000 .L0 
C:\Users\stapi\AppData\Local\Temp\cc5wRCGd.s:66     .text.netconn_tcp_recvd_msg:0000000000000000 .L0 
C:\Users\stapi\AppData\Local\Temp\cc5wRCGd.s:67     .text.netconn_tcp_recvd_msg:0000000000000008 .L0 
C:\Users\stapi\AppData\Local\Temp\cc5wRCGd.s:68     .text.netconn_tcp_recvd_msg:0000000000000008 .L0 
C:\Users\stapi\AppData\Local\Temp\cc5wRCGd.s:70     .text.netconn_tcp_recvd_msg:0000000000000008 .L0 
C:\Users\stapi\AppData\Local\Temp\cc5wRCGd.s:71     .text.netconn_tcp_recvd_msg:0000000000000008 .L0 
C:\Users\stapi\AppData\Local\Temp\cc5wRCGd.s:73     .text.netconn_tcp_recvd_msg:000000000000000a .L0 
C:\Users\stapi\AppData\Local\Temp\cc5wRCGd.s:79     .text.netconn_tcp_recvd_msg:0000000000000016 .L0 
C:\Users\stapi\AppData\Local\Temp\cc5wRCGd.s:80     .text.netconn_tcp_recvd_msg:0000000000000016 .L0 
C:\Users\stapi\AppData\Local\Temp\cc5wRCGd.s:94     .text.netconn_tcp_recvd_msg:000000000000003a .L0 
C:\Users\stapi\AppData\Local\Temp\cc5wRCGd.s:95     .text.netconn_tcp_recvd_msg:000000000000003a .L0 
C:\Users\stapi\AppData\Local\Temp\cc5wRCGd.s:96     .text.netconn_tcp_recvd_msg:000000000000003a .L0 
C:\Users\stapi\AppData\Local\Temp\cc5wRCGd.s:103    .text.netconn_tcp_recvd_msg:000000000000003e .L0 
C:\Users\stapi\AppData\Local\Temp\cc5wRCGd.s:105    .text.netconn_tcp_recvd_msg:0000000000000040 .L0 
C:\Users\stapi\AppData\Local\Temp\cc5wRCGd.s:110    .text.netconn_tcp_recvd_msg:0000000000000046 .L0 
C:\Users\stapi\AppData\Local\Temp\cc5wRCGd.s:111    .text.netconn_tcp_recvd_msg:0000000000000046 .L0 
C:\Users\stapi\AppData\Local\Temp\cc5wRCGd.s:112    .text.netconn_tcp_recvd_msg:0000000000000046 .L0 
C:\Users\stapi\AppData\Local\Temp\cc5wRCGd.s:113    .text.netconn_tcp_recvd_msg:0000000000000046 .L0 
C:\Users\stapi\AppData\Local\Temp\cc5wRCGd.s:114    .text.netconn_tcp_recvd_msg:0000000000000046 .L0 
C:\Users\stapi\AppData\Local\Temp\cc5wRCGd.s:116    .text.netconn_tcp_recvd_msg:0000000000000048 .L0 
C:\Users\stapi\AppData\Local\Temp\cc5wRCGd.s:117    .text.netconn_tcp_recvd_msg:0000000000000048 .L0 
C:\Users\stapi\AppData\Local\Temp\cc5wRCGd.s:123    .text.netconn_tcp_recvd_msg:0000000000000054 .L0 
C:\Users\stapi\AppData\Local\Temp\cc5wRCGd.s:124    .text.netconn_tcp_recvd_msg:000000000000005c .L0 
C:\Users\stapi\AppData\Local\Temp\cc5wRCGd.s:125    .text.netconn_tcp_recvd_msg:000000000000005c .L0 
C:\Users\stapi\AppData\Local\Temp\cc5wRCGd.s:126    .text.netconn_tcp_recvd_msg:000000000000005c .L0 
C:\Users\stapi\AppData\Local\Temp\cc5wRCGd.s:136    .text.netconn_close_shutdown:0000000000000000 netconn_close_shutdown
C:\Users\stapi\AppData\Local\Temp\cc5wRCGd.s:139    .text.netconn_close_shutdown:0000000000000000 .L0 
C:\Users\stapi\AppData\Local\Temp\cc5wRCGd.s:141    .text.netconn_close_shutdown:0000000000000000 .L0 
C:\Users\stapi\AppData\Local\Temp\cc5wRCGd.s:142    .text.netconn_close_shutdown:0000000000000008 .L0 
C:\Users\stapi\AppData\Local\Temp\cc5wRCGd.s:143    .text.netconn_close_shutdown:0000000000000008 .L0 
C:\Users\stapi\AppData\Local\Temp\cc5wRCGd.s:145    .text.netconn_close_shutdown:0000000000000008 .L0 
C:\Users\stapi\AppData\Local\Temp\cc5wRCGd.s:146    .text.netconn_close_shutdown:0000000000000008 .L0 
C:\Users\stapi\AppData\Local\Temp\cc5wRCGd.s:147    .text.netconn_close_shutdown:0000000000000008 .L0 
C:\Users\stapi\AppData\Local\Temp\cc5wRCGd.s:148    .text.netconn_close_shutdown:0000000000000008 .L0 
C:\Users\stapi\AppData\Local\Temp\cc5wRCGd.s:149    .text.netconn_close_shutdown:0000000000000008 .L0 
C:\Users\stapi\AppData\Local\Temp\cc5wRCGd.s:150    .text.netconn_close_shutdown:0000000000000008 .L0 
C:\Users\stapi\AppData\Local\Temp\cc5wRCGd.s:151    .text.netconn_close_shutdown:000000000000000a .L0 
C:\Users\stapi\AppData\Local\Temp\cc5wRCGd.s:153    .text.netconn_close_shutdown:000000000000000a .L0 
C:\Users\stapi\AppData\Local\Temp\cc5wRCGd.s:158    .text.netconn_close_shutdown:000000000000000c .L0 
C:\Users\stapi\AppData\Local\Temp\cc5wRCGd.s:159    .text.netconn_close_shutdown:000000000000000c .L0 
C:\Users\stapi\AppData\Local\Temp\cc5wRCGd.s:172    .text.netconn_close_shutdown:0000000000000030 .L0 
C:\Users\stapi\AppData\Local\Temp\cc5wRCGd.s:173    .text.netconn_close_shutdown:0000000000000030 .L0 
C:\Users\stapi\AppData\Local\Temp\cc5wRCGd.s:174    .text.netconn_close_shutdown:0000000000000030 .L0 
C:\Users\stapi\AppData\Local\Temp\cc5wRCGd.s:180    .text.netconn_close_shutdown:0000000000000032 .L0 
C:\Users\stapi\AppData\Local\Temp\cc5wRCGd.s:181    .text.netconn_close_shutdown:0000000000000032 .L0 
C:\Users\stapi\AppData\Local\Temp\cc5wRCGd.s:182    .text.netconn_close_shutdown:0000000000000032 .L0 
C:\Users\stapi\AppData\Local\Temp\cc5wRCGd.s:183    .text.netconn_close_shutdown:0000000000000032 .L0 
C:\Users\stapi\AppData\Local\Temp\cc5wRCGd.s:184    .text.netconn_close_shutdown:0000000000000032 .L0 
C:\Users\stapi\AppData\Local\Temp\cc5wRCGd.s:186    .text.netconn_close_shutdown:0000000000000034 .L0 
C:\Users\stapi\AppData\Local\Temp\cc5wRCGd.s:187    .text.netconn_close_shutdown:0000000000000034 .L0 
C:\Users\stapi\AppData\Local\Temp\cc5wRCGd.s:190    .text.netconn_close_shutdown:0000000000000038 .L0 
C:\Users\stapi\AppData\Local\Temp\cc5wRCGd.s:192    .text.netconn_close_shutdown:000000000000003c .L0 
C:\Users\stapi\AppData\Local\Temp\cc5wRCGd.s:193    .text.netconn_close_shutdown:000000000000003c .L0 
C:\Users\stapi\AppData\Local\Temp\cc5wRCGd.s:195    .text.netconn_close_shutdown:0000000000000040 .L0 
C:\Users\stapi\AppData\Local\Temp\cc5wRCGd.s:199    .text.netconn_close_shutdown:0000000000000046 .L0 
C:\Users\stapi\AppData\Local\Temp\cc5wRCGd.s:201    .text.netconn_close_shutdown:000000000000004a .L0 
C:\Users\stapi\AppData\Local\Temp\cc5wRCGd.s:202    .text.netconn_close_shutdown:000000000000004a .L0 
C:\Users\stapi\AppData\Local\Temp\cc5wRCGd.s:205    .text.netconn_close_shutdown:0000000000000052 .L0 
C:\Users\stapi\AppData\Local\Temp\cc5wRCGd.s:206    .text.netconn_close_shutdown:0000000000000052 .L0 
C:\Users\stapi\AppData\Local\Temp\cc5wRCGd.s:207    .text.netconn_close_shutdown:0000000000000052 .L0 
C:\Users\stapi\AppData\Local\Temp\cc5wRCGd.s:208    .text.netconn_close_shutdown:0000000000000054 .L0 
C:\Users\stapi\AppData\Local\Temp\cc5wRCGd.s:210    .text.netconn_close_shutdown:000000000000005c .L0 
C:\Users\stapi\AppData\Local\Temp\cc5wRCGd.s:211    .text.netconn_close_shutdown:000000000000005c .L0 
C:\Users\stapi\AppData\Local\Temp\cc5wRCGd.s:212    .text.netconn_close_shutdown:000000000000005c .L0 
C:\Users\stapi\AppData\Local\Temp\cc5wRCGd.s:232    .text.netconn_new_with_proto_and_callback:0000000000000000 netconn_new_with_proto_and_callback
C:\Users\stapi\AppData\Local\Temp\cc5wRCGd.s:235    .text.netconn_new_with_proto_and_callback:0000000000000000 .L0 
C:\Users\stapi\AppData\Local\Temp\cc5wRCGd.s:237    .text.netconn_new_with_proto_and_callback:0000000000000000 .L0 
C:\Users\stapi\AppData\Local\Temp\cc5wRCGd.s:238    .text.netconn_new_with_proto_and_callback:0000000000000008 .L0 
C:\Users\stapi\AppData\Local\Temp\cc5wRCGd.s:239    .text.netconn_new_with_proto_and_callback:0000000000000008 .L0 
C:\Users\stapi\AppData\Local\Temp\cc5wRCGd.s:240    .text.netconn_new_with_proto_and_callback:0000000000000008 .L0 
C:\Users\stapi\AppData\Local\Temp\cc5wRCGd.s:241    .text.netconn_new_with_proto_and_callback:0000000000000008 .L0 
C:\Users\stapi\AppData\Local\Temp\cc5wRCGd.s:243    .text.netconn_new_with_proto_and_callback:0000000000000008 .L0 
C:\Users\stapi\AppData\Local\Temp\cc5wRCGd.s:244    .text.netconn_new_with_proto_and_callback:0000000000000008 .L0 
C:\Users\stapi\AppData\Local\Temp\cc5wRCGd.s:245    .text.netconn_new_with_proto_and_callback:0000000000000008 .L0 
C:\Users\stapi\AppData\Local\Temp\cc5wRCGd.s:246    .text.netconn_new_with_proto_and_callback:0000000000000008 .L0 
C:\Users\stapi\AppData\Local\Temp\cc5wRCGd.s:247    .text.netconn_new_with_proto_and_callback:0000000000000008 .L0 
C:\Users\stapi\AppData\Local\Temp\cc5wRCGd.s:248    .text.netconn_new_with_proto_and_callback:000000000000000a .L0 
C:\Users\stapi\AppData\Local\Temp\cc5wRCGd.s:250    .text.netconn_new_with_proto_and_callback:000000000000000a .L0 
C:\Users\stapi\AppData\Local\Temp\cc5wRCGd.s:252    .text.netconn_new_with_proto_and_callback:000000000000000c .L0 
C:\Users\stapi\AppData\Local\Temp\cc5wRCGd.s:259    .text.netconn_new_with_proto_and_callback:0000000000000018 .L0 
C:\Users\stapi\AppData\Local\Temp\cc5wRCGd.s:260    .text.netconn_new_with_proto_and_callback:0000000000000018 .L0 
C:\Users\stapi\AppData\Local\Temp\cc5wRCGd.s:263    .text.netconn_new_with_proto_and_callback:000000000000001a .L0 
C:\Users\stapi\AppData\Local\Temp\cc5wRCGd.s:264    .text.netconn_new_with_proto_and_callback:000000000000001a .L0 
C:\Users\stapi\AppData\Local\Temp\cc5wRCGd.s:265    .text.netconn_new_with_proto_and_callback:000000000000001a .L0 
C:\Users\stapi\AppData\Local\Temp\cc5wRCGd.s:267    .text.netconn_new_with_proto_and_callback:000000000000001c .L0 
C:\Users\stapi\AppData\Local\Temp\cc5wRCGd.s:271    .text.netconn_new_with_proto_and_callback:0000000000000026 .L0 
C:\Users\stapi\AppData\Local\Temp\cc5wRCGd.s:273    .text.netconn_new_with_proto_and_callback:000000000000002a .L0 
C:\Users\stapi\AppData\Local\Temp\cc5wRCGd.s:274    .text.netconn_new_with_proto_and_callback:000000000000002a .L0 
C:\Users\stapi\AppData\Local\Temp\cc5wRCGd.s:275    .text.netconn_new_with_proto_and_callback:000000000000002a .L0 
C:\Users\stapi\AppData\Local\Temp\cc5wRCGd.s:278    .text.netconn_new_with_proto_and_callback:0000000000000032 .L0 
C:\Users\stapi\AppData\Local\Temp\cc5wRCGd.s:279    .text.netconn_new_with_proto_and_callback:0000000000000032 .L0 
C:\Users\stapi\AppData\Local\Temp\cc5wRCGd.s:281    .text.netconn_new_with_proto_and_callback:0000000000000034 .L0 
C:\Users\stapi\AppData\Local\Temp\cc5wRCGd.s:282    .text.netconn_new_with_proto_and_callback:0000000000000034 .L0 
C:\Users\stapi\AppData\Local\Temp\cc5wRCGd.s:285    .text.netconn_new_with_proto_and_callback:0000000000000038 .L0 
C:\Users\stapi\AppData\Local\Temp\cc5wRCGd.s:286    .text.netconn_new_with_proto_and_callback:0000000000000038 .L0 
C:\Users\stapi\AppData\Local\Temp\cc5wRCGd.s:298    .text.netconn_new_with_proto_and_callback:000000000000005c .L0 
C:\Users\stapi\AppData\Local\Temp\cc5wRCGd.s:299    .text.netconn_new_with_proto_and_callback:000000000000005c .L0 
C:\Users\stapi\AppData\Local\Temp\cc5wRCGd.s:300    .text.netconn_new_with_proto_and_callback:000000000000005c .L0 
C:\Users\stapi\AppData\Local\Temp\cc5wRCGd.s:304    .text.netconn_new_with_proto_and_callback:000000000000005e .L0 
C:\Users\stapi\AppData\Local\Temp\cc5wRCGd.s:305    .text.netconn_new_with_proto_and_callback:000000000000005e .L0 
C:\Users\stapi\AppData\Local\Temp\cc5wRCGd.s:306    .text.netconn_new_with_proto_and_callback:000000000000005e .L0 
C:\Users\stapi\AppData\Local\Temp\cc5wRCGd.s:307    .text.netconn_new_with_proto_and_callback:000000000000005e .L0 
C:\Users\stapi\AppData\Local\Temp\cc5wRCGd.s:310    .text.netconn_new_with_proto_and_callback:0000000000000062 .L0 
C:\Users\stapi\AppData\Local\Temp\cc5wRCGd.s:311    .text.netconn_new_with_proto_and_callback:0000000000000062 .L0 
C:\Users\stapi\AppData\Local\Temp\cc5wRCGd.s:323    .text.netconn_new_with_proto_and_callback:0000000000000086 .L0 
C:\Users\stapi\AppData\Local\Temp\cc5wRCGd.s:324    .text.netconn_new_with_proto_and_callback:0000000000000086 .L0 
C:\Users\stapi\AppData\Local\Temp\cc5wRCGd.s:325    .text.netconn_new_with_proto_and_callback:0000000000000086 .L0 
C:\Users\stapi\AppData\Local\Temp\cc5wRCGd.s:329    .text.netconn_new_with_proto_and_callback:0000000000000088 .L0 
C:\Users\stapi\AppData\Local\Temp\cc5wRCGd.s:330    .text.netconn_new_with_proto_and_callback:0000000000000088 .L0 
C:\Users\stapi\AppData\Local\Temp\cc5wRCGd.s:331    .text.netconn_new_with_proto_and_callback:0000000000000088 .L0 
C:\Users\stapi\AppData\Local\Temp\cc5wRCGd.s:332    .text.netconn_new_with_proto_and_callback:0000000000000088 .L0 
C:\Users\stapi\AppData\Local\Temp\cc5wRCGd.s:335    .text.netconn_new_with_proto_and_callback:000000000000008c .L0 
C:\Users\stapi\AppData\Local\Temp\cc5wRCGd.s:336    .text.netconn_new_with_proto_and_callback:000000000000008c .L0 
C:\Users\stapi\AppData\Local\Temp\cc5wRCGd.s:348    .text.netconn_new_with_proto_and_callback:00000000000000b0 .L0 
C:\Users\stapi\AppData\Local\Temp\cc5wRCGd.s:349    .text.netconn_new_with_proto_and_callback:00000000000000b0 .L0 
C:\Users\stapi\AppData\Local\Temp\cc5wRCGd.s:350    .text.netconn_new_with_proto_and_callback:00000000000000b0 .L0 
C:\Users\stapi\AppData\Local\Temp\cc5wRCGd.s:354    .text.netconn_new_with_proto_and_callback:00000000000000b2 .L0 
C:\Users\stapi\AppData\Local\Temp\cc5wRCGd.s:355    .text.netconn_new_with_proto_and_callback:00000000000000b2 .L0 
C:\Users\stapi\AppData\Local\Temp\cc5wRCGd.s:356    .text.netconn_new_with_proto_and_callback:00000000000000b2 .L0 
C:\Users\stapi\AppData\Local\Temp\cc5wRCGd.s:357    .text.netconn_new_with_proto_and_callback:00000000000000b2 .L0 
C:\Users\stapi\AppData\Local\Temp\cc5wRCGd.s:360    .text.netconn_new_with_proto_and_callback:00000000000000b6 .L0 
C:\Users\stapi\AppData\Local\Temp\cc5wRCGd.s:361    .text.netconn_new_with_proto_and_callback:00000000000000b6 .L0 
C:\Users\stapi\AppData\Local\Temp\cc5wRCGd.s:373    .text.netconn_new_with_proto_and_callback:00000000000000da .L0 
C:\Users\stapi\AppData\Local\Temp\cc5wRCGd.s:374    .text.netconn_new_with_proto_and_callback:00000000000000da .L0 
C:\Users\stapi\AppData\Local\Temp\cc5wRCGd.s:375    .text.netconn_new_with_proto_and_callback:00000000000000da .L0 
C:\Users\stapi\AppData\Local\Temp\cc5wRCGd.s:379    .text.netconn_new_with_proto_and_callback:00000000000000dc .L0 
C:\Users\stapi\AppData\Local\Temp\cc5wRCGd.s:380    .text.netconn_new_with_proto_and_callback:00000000000000dc .L0 
C:\Users\stapi\AppData\Local\Temp\cc5wRCGd.s:381    .text.netconn_new_with_proto_and_callback:00000000000000dc .L0 
C:\Users\stapi\AppData\Local\Temp\cc5wRCGd.s:386    .text.netconn_new_with_proto_and_callback:00000000000000e8 .L0 
C:\Users\stapi\AppData\Local\Temp\cc5wRCGd.s:390    .text.netconn_new_with_proto_and_callback:00000000000000f4 .L0 
C:\Users\stapi\AppData\Local\Temp\cc5wRCGd.s:395    .text.netconn_new_with_proto_and_callback:0000000000000100 .L0 
C:\Users\stapi\AppData\Local\Temp\cc5wRCGd.s:396    .text.netconn_new_with_proto_and_callback:0000000000000100 .L0 
C:\Users\stapi\AppData\Local\Temp\cc5wRCGd.s:397    .text.netconn_new_with_proto_and_callback:0000000000000100 .L0 
C:\Users\stapi\AppData\Local\Temp\cc5wRCGd.s:402    .text.netconn_new_with_proto_and_callback:0000000000000102 .L0 
C:\Users\stapi\AppData\Local\Temp\cc5wRCGd.s:404    .text.netconn_new_with_proto_and_callback:0000000000000106 .L0 
C:\Users\stapi\AppData\Local\Temp\cc5wRCGd.s:406    .text.netconn_new_with_proto_and_callback:000000000000010e .L0 
C:\Users\stapi\AppData\Local\Temp\cc5wRCGd.s:407    .text.netconn_new_with_proto_and_callback:000000000000010e .L0 
C:\Users\stapi\AppData\Local\Temp\cc5wRCGd.s:408    .text.netconn_new_with_proto_and_callback:000000000000010e .L0 
C:\Users\stapi\AppData\Local\Temp\cc5wRCGd.s:409    .text.netconn_new_with_proto_and_callback:000000000000010e .L0 
C:\Users\stapi\AppData\Local\Temp\cc5wRCGd.s:410    .text.netconn_new_with_proto_and_callback:000000000000010e .L0 
C:\Users\stapi\AppData\Local\Temp\cc5wRCGd.s:417    .text.netconn_prepare_delete:0000000000000000 netconn_prepare_delete
C:\Users\stapi\AppData\Local\Temp\cc5wRCGd.s:420    .text.netconn_prepare_delete:0000000000000000 .L0 
C:\Users\stapi\AppData\Local\Temp\cc5wRCGd.s:422    .text.netconn_prepare_delete:0000000000000000 .L0 
C:\Users\stapi\AppData\Local\Temp\cc5wRCGd.s:423    .text.netconn_prepare_delete:0000000000000000 .L0 
C:\Users\stapi\AppData\Local\Temp\cc5wRCGd.s:424    .text.netconn_prepare_delete:0000000000000000 .L0 
C:\Users\stapi\AppData\Local\Temp\cc5wRCGd.s:425    .text.netconn_prepare_delete:0000000000000000 .L0 
C:\Users\stapi\AppData\Local\Temp\cc5wRCGd.s:426    .text.netconn_prepare_delete:0000000000000000 .L0 
C:\Users\stapi\AppData\Local\Temp\cc5wRCGd.s:428    .text.netconn_prepare_delete:0000000000000002 .L0 
C:\Users\stapi\AppData\Local\Temp\cc5wRCGd.s:429    .text.netconn_prepare_delete:000000000000000a .L0 
C:\Users\stapi\AppData\Local\Temp\cc5wRCGd.s:430    .text.netconn_prepare_delete:000000000000000a .L0 
C:\Users\stapi\AppData\Local\Temp\cc5wRCGd.s:435    .text.netconn_prepare_delete:000000000000000a .L0 
C:\Users\stapi\AppData\Local\Temp\cc5wRCGd.s:438    .text.netconn_prepare_delete:000000000000000a .L0 
C:\Users\stapi\AppData\Local\Temp\cc5wRCGd.s:439    .text.netconn_prepare_delete:000000000000000a .L0 
C:\Users\stapi\AppData\Local\Temp\cc5wRCGd.s:440    .text.netconn_prepare_delete:000000000000000c .L0 
C:\Users\stapi\AppData\Local\Temp\cc5wRCGd.s:444    .text.netconn_prepare_delete:000000000000000c .L0 
C:\Users\stapi\AppData\Local\Temp\cc5wRCGd.s:446    .text.netconn_prepare_delete:000000000000000e .L0 
C:\Users\stapi\AppData\Local\Temp\cc5wRCGd.s:447    .text.netconn_prepare_delete:000000000000000e .L0 
C:\Users\stapi\AppData\Local\Temp\cc5wRCGd.s:450    .text.netconn_prepare_delete:0000000000000012 .L0 
C:\Users\stapi\AppData\Local\Temp\cc5wRCGd.s:452    .text.netconn_prepare_delete:0000000000000016 .L0 
C:\Users\stapi\AppData\Local\Temp\cc5wRCGd.s:455    .text.netconn_prepare_delete:000000000000001c .L0 
C:\Users\stapi\AppData\Local\Temp\cc5wRCGd.s:457    .text.netconn_prepare_delete:0000000000000020 .L0 
C:\Users\stapi\AppData\Local\Temp\cc5wRCGd.s:458    .text.netconn_prepare_delete:0000000000000020 .L0 
C:\Users\stapi\AppData\Local\Temp\cc5wRCGd.s:461    .text.netconn_prepare_delete:0000000000000028 .L0 
C:\Users\stapi\AppData\Local\Temp\cc5wRCGd.s:464    .text.netconn_prepare_delete:0000000000000028 .L0 
C:\Users\stapi\AppData\Local\Temp\cc5wRCGd.s:465    .text.netconn_prepare_delete:0000000000000028 .L0 
C:\Users\stapi\AppData\Local\Temp\cc5wRCGd.s:466    .text.netconn_prepare_delete:000000000000002a .L0 
C:\Users\stapi\AppData\Local\Temp\cc5wRCGd.s:468    .text.netconn_prepare_delete:0000000000000032 .L0 
C:\Users\stapi\AppData\Local\Temp\cc5wRCGd.s:469    .text.netconn_prepare_delete:0000000000000032 .L0 
C:\Users\stapi\AppData\Local\Temp\cc5wRCGd.s:472    .text.netconn_prepare_delete:0000000000000032 .L0 
C:\Users\stapi\AppData\Local\Temp\cc5wRCGd.s:474    .text.netconn_prepare_delete:0000000000000032 .L0 
C:\Users\stapi\AppData\Local\Temp\cc5wRCGd.s:477    .text.netconn_prepare_delete:0000000000000034 .L0 
C:\Users\stapi\AppData\Local\Temp\cc5wRCGd.s:478    .text.netconn_prepare_delete:0000000000000036 .L0 
C:\Users\stapi\AppData\Local\Temp\cc5wRCGd.s:485    .text.netconn_delete:0000000000000000 netconn_delete
C:\Users\stapi\AppData\Local\Temp\cc5wRCGd.s:488    .text.netconn_delete:0000000000000000 .L0 
C:\Users\stapi\AppData\Local\Temp\cc5wRCGd.s:490    .text.netconn_delete:0000000000000000 .L0 
C:\Users\stapi\AppData\Local\Temp\cc5wRCGd.s:491    .text.netconn_delete:0000000000000008 .L0 
C:\Users\stapi\AppData\Local\Temp\cc5wRCGd.s:492    .text.netconn_delete:0000000000000008 .L0 
C:\Users\stapi\AppData\Local\Temp\cc5wRCGd.s:493    .text.netconn_delete:0000000000000008 .L0 
C:\Users\stapi\AppData\Local\Temp\cc5wRCGd.s:494    .text.netconn_delete:0000000000000008 .L0 
C:\Users\stapi\AppData\Local\Temp\cc5wRCGd.s:496    .text.netconn_delete:0000000000000008 .L0 
C:\Users\stapi\AppData\Local\Temp\cc5wRCGd.s:497    .text.netconn_delete:0000000000000008 .L0 
C:\Users\stapi\AppData\Local\Temp\cc5wRCGd.s:498    .text.netconn_delete:0000000000000008 .L0 
C:\Users\stapi\AppData\Local\Temp\cc5wRCGd.s:500    .text.netconn_delete:000000000000000a .L0 
C:\Users\stapi\AppData\Local\Temp\cc5wRCGd.s:503    .text.netconn_delete:000000000000000e .L0 
C:\Users\stapi\AppData\Local\Temp\cc5wRCGd.s:504    .text.netconn_delete:000000000000000e .L0 
C:\Users\stapi\AppData\Local\Temp\cc5wRCGd.s:509    .text.netconn_delete:0000000000000018 .L0 
C:\Users\stapi\AppData\Local\Temp\cc5wRCGd.s:510    .text.netconn_delete:0000000000000018 .L0 
C:\Users\stapi\AppData\Local\Temp\cc5wRCGd.s:512    .text.netconn_delete:000000000000001a .L0 
C:\Users\stapi\AppData\Local\Temp\cc5wRCGd.s:518    .text.netconn_delete:0000000000000024 .L0 
C:\Users\stapi\AppData\Local\Temp\cc5wRCGd.s:520    .text.netconn_delete:000000000000002e .L0 
C:\Users\stapi\AppData\Local\Temp\cc5wRCGd.s:521    .text.netconn_delete:000000000000002e .L0 
C:\Users\stapi\AppData\Local\Temp\cc5wRCGd.s:522    .text.netconn_delete:000000000000002e .L0 
C:\Users\stapi\AppData\Local\Temp\cc5wRCGd.s:523    .text.netconn_delete:000000000000002e .L0 
C:\Users\stapi\AppData\Local\Temp\cc5wRCGd.s:524    .text.netconn_delete:000000000000002e .L0 
C:\Users\stapi\AppData\Local\Temp\cc5wRCGd.s:541    .text.netconn_getaddr:0000000000000000 netconn_getaddr
C:\Users\stapi\AppData\Local\Temp\cc5wRCGd.s:544    .text.netconn_getaddr:0000000000000000 .L0 
C:\Users\stapi\AppData\Local\Temp\cc5wRCGd.s:546    .text.netconn_getaddr:0000000000000000 .L0 
C:\Users\stapi\AppData\Local\Temp\cc5wRCGd.s:547    .text.netconn_getaddr:0000000000000008 .L0 
C:\Users\stapi\AppData\Local\Temp\cc5wRCGd.s:548    .text.netconn_getaddr:0000000000000008 .L0 
C:\Users\stapi\AppData\Local\Temp\cc5wRCGd.s:550    .text.netconn_getaddr:0000000000000008 .L0 
C:\Users\stapi\AppData\Local\Temp\cc5wRCGd.s:551    .text.netconn_getaddr:0000000000000008 .L0 
C:\Users\stapi\AppData\Local\Temp\cc5wRCGd.s:552    .text.netconn_getaddr:0000000000000008 .L0 
C:\Users\stapi\AppData\Local\Temp\cc5wRCGd.s:553    .text.netconn_getaddr:0000000000000008 .L0 
C:\Users\stapi\AppData\Local\Temp\cc5wRCGd.s:554    .text.netconn_getaddr:0000000000000008 .L0 
C:\Users\stapi\AppData\Local\Temp\cc5wRCGd.s:555    .text.netconn_getaddr:000000000000000a .L0 
C:\Users\stapi\AppData\Local\Temp\cc5wRCGd.s:557    .text.netconn_getaddr:000000000000000a .L0 
C:\Users\stapi\AppData\Local\Temp\cc5wRCGd.s:559    .text.netconn_getaddr:000000000000000c .L0 
C:\Users\stapi\AppData\Local\Temp\cc5wRCGd.s:560    .text.netconn_getaddr:000000000000000c .L0 
C:\Users\stapi\AppData\Local\Temp\cc5wRCGd.s:575    .text.netconn_getaddr:0000000000000030 .L0 
C:\Users\stapi\AppData\Local\Temp\cc5wRCGd.s:576    .text.netconn_getaddr:0000000000000030 .L0 
C:\Users\stapi\AppData\Local\Temp\cc5wRCGd.s:577    .text.netconn_getaddr:0000000000000030 .L0 
C:\Users\stapi\AppData\Local\Temp\cc5wRCGd.s:581    .text.netconn_getaddr:0000000000000032 .L0 
C:\Users\stapi\AppData\Local\Temp\cc5wRCGd.s:582    .text.netconn_getaddr:0000000000000032 .L0 
C:\Users\stapi\AppData\Local\Temp\cc5wRCGd.s:583    .text.netconn_getaddr:0000000000000032 .L0 
C:\Users\stapi\AppData\Local\Temp\cc5wRCGd.s:584    .text.netconn_getaddr:0000000000000032 .L0 
C:\Users\stapi\AppData\Local\Temp\cc5wRCGd.s:586    .text.netconn_getaddr:0000000000000034 .L0 
C:\Users\stapi\AppData\Local\Temp\cc5wRCGd.s:587    .text.netconn_getaddr:0000000000000034 .L0 
C:\Users\stapi\AppData\Local\Temp\cc5wRCGd.s:602    .text.netconn_getaddr:0000000000000058 .L0 
C:\Users\stapi\AppData\Local\Temp\cc5wRCGd.s:603    .text.netconn_getaddr:0000000000000058 .L0 
C:\Users\stapi\AppData\Local\Temp\cc5wRCGd.s:604    .text.netconn_getaddr:0000000000000058 .L0 
C:\Users\stapi\AppData\Local\Temp\cc5wRCGd.s:608    .text.netconn_getaddr:000000000000005a .L0 
C:\Users\stapi\AppData\Local\Temp\cc5wRCGd.s:609    .text.netconn_getaddr:000000000000005a .L0 
C:\Users\stapi\AppData\Local\Temp\cc5wRCGd.s:610    .text.netconn_getaddr:000000000000005a .L0 
C:\Users\stapi\AppData\Local\Temp\cc5wRCGd.s:611    .text.netconn_getaddr:000000000000005a .L0 
C:\Users\stapi\AppData\Local\Temp\cc5wRCGd.s:613    .text.netconn_getaddr:000000000000005c .L0 
C:\Users\stapi\AppData\Local\Temp\cc5wRCGd.s:614    .text.netconn_getaddr:000000000000005c .L0 
C:\Users\stapi\AppData\Local\Temp\cc5wRCGd.s:629    .text.netconn_getaddr:0000000000000080 .L0 
C:\Users\stapi\AppData\Local\Temp\cc5wRCGd.s:630    .text.netconn_getaddr:0000000000000080 .L0 
C:\Users\stapi\AppData\Local\Temp\cc5wRCGd.s:631    .text.netconn_getaddr:0000000000000080 .L0 
C:\Users\stapi\AppData\Local\Temp\cc5wRCGd.s:635    .text.netconn_getaddr:0000000000000082 .L0 
C:\Users\stapi\AppData\Local\Temp\cc5wRCGd.s:636    .text.netconn_getaddr:0000000000000082 .L0 
C:\Users\stapi\AppData\Local\Temp\cc5wRCGd.s:637    .text.netconn_getaddr:0000000000000082 .L0 
C:\Users\stapi\AppData\Local\Temp\cc5wRCGd.s:638    .text.netconn_getaddr:0000000000000082 .L0 
C:\Users\stapi\AppData\Local\Temp\cc5wRCGd.s:639    .text.netconn_getaddr:0000000000000082 .L0 
C:\Users\stapi\AppData\Local\Temp\cc5wRCGd.s:641    .text.netconn_getaddr:0000000000000084 .L0 
C:\Users\stapi\AppData\Local\Temp\cc5wRCGd.s:642    .text.netconn_getaddr:0000000000000084 .L0 
C:\Users\stapi\AppData\Local\Temp\cc5wRCGd.s:645    .text.netconn_getaddr:0000000000000088 .L0 
C:\Users\stapi\AppData\Local\Temp\cc5wRCGd.s:647    .text.netconn_getaddr:000000000000008a .L0 
C:\Users\stapi\AppData\Local\Temp\cc5wRCGd.s:651    .text.netconn_getaddr:0000000000000090 .L0 
C:\Users\stapi\AppData\Local\Temp\cc5wRCGd.s:653    .text.netconn_getaddr:0000000000000094 .L0 
C:\Users\stapi\AppData\Local\Temp\cc5wRCGd.s:654    .text.netconn_getaddr:0000000000000094 .L0 
C:\Users\stapi\AppData\Local\Temp\cc5wRCGd.s:655    .text.netconn_getaddr:0000000000000094 .L0 
C:\Users\stapi\AppData\Local\Temp\cc5wRCGd.s:657    .text.netconn_getaddr:0000000000000096 .L0 
C:\Users\stapi\AppData\Local\Temp\cc5wRCGd.s:658    .text.netconn_getaddr:0000000000000096 .L0 
C:\Users\stapi\AppData\Local\Temp\cc5wRCGd.s:661    .text.netconn_getaddr:000000000000009e .L0 
C:\Users\stapi\AppData\Local\Temp\cc5wRCGd.s:662    .text.netconn_getaddr:000000000000009e .L0 
C:\Users\stapi\AppData\Local\Temp\cc5wRCGd.s:663    .text.netconn_getaddr:000000000000009e .L0 
C:\Users\stapi\AppData\Local\Temp\cc5wRCGd.s:664    .text.netconn_getaddr:00000000000000a0 .L0 
C:\Users\stapi\AppData\Local\Temp\cc5wRCGd.s:666    .text.netconn_getaddr:00000000000000a8 .L0 
C:\Users\stapi\AppData\Local\Temp\cc5wRCGd.s:667    .text.netconn_getaddr:00000000000000a8 .L0 
C:\Users\stapi\AppData\Local\Temp\cc5wRCGd.s:668    .text.netconn_getaddr:00000000000000a8 .L0 
C:\Users\stapi\AppData\Local\Temp\cc5wRCGd.s:679    .text.netconn_bind:0000000000000000 netconn_bind
C:\Users\stapi\AppData\Local\Temp\cc5wRCGd.s:682    .text.netconn_bind:0000000000000000 .L0 
C:\Users\stapi\AppData\Local\Temp\cc5wRCGd.s:684    .text.netconn_bind:0000000000000000 .L0 
C:\Users\stapi\AppData\Local\Temp\cc5wRCGd.s:685    .text.netconn_bind:0000000000000008 .L0 
C:\Users\stapi\AppData\Local\Temp\cc5wRCGd.s:686    .text.netconn_bind:0000000000000008 .L0 
C:\Users\stapi\AppData\Local\Temp\cc5wRCGd.s:688    .text.netconn_bind:0000000000000008 .L0 
C:\Users\stapi\AppData\Local\Temp\cc5wRCGd.s:689    .text.netconn_bind:0000000000000008 .L0 
C:\Users\stapi\AppData\Local\Temp\cc5wRCGd.s:690    .text.netconn_bind:0000000000000008 .L0 
C:\Users\stapi\AppData\Local\Temp\cc5wRCGd.s:691    .text.netconn_bind:0000000000000008 .L0 
C:\Users\stapi\AppData\Local\Temp\cc5wRCGd.s:692    .text.netconn_bind:0000000000000008 .L0 
C:\Users\stapi\AppData\Local\Temp\cc5wRCGd.s:693    .text.netconn_bind:000000000000000a .L0 
C:\Users\stapi\AppData\Local\Temp\cc5wRCGd.s:695    .text.netconn_bind:000000000000000a .L0 
C:\Users\stapi\AppData\Local\Temp\cc5wRCGd.s:697    .text.netconn_bind:000000000000000c .L0 
C:\Users\stapi\AppData\Local\Temp\cc5wRCGd.s:698    .text.netconn_bind:000000000000000c .L0 
C:\Users\stapi\AppData\Local\Temp\cc5wRCGd.s:712    .text.netconn_bind:0000000000000030 .L0 
C:\Users\stapi\AppData\Local\Temp\cc5wRCGd.s:713    .text.netconn_bind:0000000000000030 .L0 
C:\Users\stapi\AppData\Local\Temp\cc5wRCGd.s:714    .text.netconn_bind:0000000000000030 .L0 
C:\Users\stapi\AppData\Local\Temp\cc5wRCGd.s:718    .text.netconn_bind:0000000000000032 .L0 
C:\Users\stapi\AppData\Local\Temp\cc5wRCGd.s:719    .text.netconn_bind:0000000000000032 .L0 
C:\Users\stapi\AppData\Local\Temp\cc5wRCGd.s:720    .text.netconn_bind:0000000000000032 .L0 
C:\Users\stapi\AppData\Local\Temp\cc5wRCGd.s:721    .text.netconn_bind:0000000000000032 .L0 
C:\Users\stapi\AppData\Local\Temp\cc5wRCGd.s:723    .text.netconn_bind:0000000000000034 .L0 
C:\Users\stapi\AppData\Local\Temp\cc5wRCGd.s:729    .text.netconn_bind:000000000000003c .L0 
C:\Users\stapi\AppData\Local\Temp\cc5wRCGd.s:730    .text.netconn_bind:000000000000003c .L0 
C:\Users\stapi\AppData\Local\Temp\cc5wRCGd.s:731    .text.netconn_bind:000000000000003c .L0 
C:\Users\stapi\AppData\Local\Temp\cc5wRCGd.s:733    .text.netconn_bind:000000000000003e .L0 
C:\Users\stapi\AppData\Local\Temp\cc5wRCGd.s:734    .text.netconn_bind:000000000000003e .L0 
C:\Users\stapi\AppData\Local\Temp\cc5wRCGd.s:737    .text.netconn_bind:0000000000000042 .L0 
C:\Users\stapi\AppData\Local\Temp\cc5wRCGd.s:739    .text.netconn_bind:0000000000000044 .L0 
C:\Users\stapi\AppData\Local\Temp\cc5wRCGd.s:740    .text.netconn_bind:0000000000000044 .L0 
C:\Users\stapi\AppData\Local\Temp\cc5wRCGd.s:744    .text.netconn_bind:000000000000004a .L0 
C:\Users\stapi\AppData\Local\Temp\cc5wRCGd.s:746    .text.netconn_bind:000000000000004e .L0 
C:\Users\stapi\AppData\Local\Temp\cc5wRCGd.s:747    .text.netconn_bind:000000000000004e .L0 
C:\Users\stapi\AppData\Local\Temp\cc5wRCGd.s:750    .text.netconn_bind:0000000000000056 .L0 
C:\Users\stapi\AppData\Local\Temp\cc5wRCGd.s:751    .text.netconn_bind:0000000000000056 .L0 
C:\Users\stapi\AppData\Local\Temp\cc5wRCGd.s:752    .text.netconn_bind:0000000000000056 .L0 
C:\Users\stapi\AppData\Local\Temp\cc5wRCGd.s:753    .text.netconn_bind:0000000000000058 .L0 
C:\Users\stapi\AppData\Local\Temp\cc5wRCGd.s:755    .text.netconn_bind:0000000000000060 .L0 
C:\Users\stapi\AppData\Local\Temp\cc5wRCGd.s:756    .text.netconn_bind:0000000000000060 .L0 
C:\Users\stapi\AppData\Local\Temp\cc5wRCGd.s:757    .text.netconn_bind:0000000000000060 .L0 
C:\Users\stapi\AppData\Local\Temp\cc5wRCGd.s:768    .text.netconn_bind_if:0000000000000000 netconn_bind_if
C:\Users\stapi\AppData\Local\Temp\cc5wRCGd.s:771    .text.netconn_bind_if:0000000000000000 .L0 
C:\Users\stapi\AppData\Local\Temp\cc5wRCGd.s:773    .text.netconn_bind_if:0000000000000000 .L0 
C:\Users\stapi\AppData\Local\Temp\cc5wRCGd.s:774    .text.netconn_bind_if:0000000000000008 .L0 
C:\Users\stapi\AppData\Local\Temp\cc5wRCGd.s:775    .text.netconn_bind_if:0000000000000008 .L0 
C:\Users\stapi\AppData\Local\Temp\cc5wRCGd.s:777    .text.netconn_bind_if:0000000000000008 .L0 
C:\Users\stapi\AppData\Local\Temp\cc5wRCGd.s:778    .text.netconn_bind_if:0000000000000008 .L0 
C:\Users\stapi\AppData\Local\Temp\cc5wRCGd.s:779    .text.netconn_bind_if:0000000000000008 .L0 
C:\Users\stapi\AppData\Local\Temp\cc5wRCGd.s:780    .text.netconn_bind_if:0000000000000008 .L0 
C:\Users\stapi\AppData\Local\Temp\cc5wRCGd.s:781    .text.netconn_bind_if:0000000000000008 .L0 
C:\Users\stapi\AppData\Local\Temp\cc5wRCGd.s:782    .text.netconn_bind_if:000000000000000a .L0 
C:\Users\stapi\AppData\Local\Temp\cc5wRCGd.s:784    .text.netconn_bind_if:000000000000000a .L0 
C:\Users\stapi\AppData\Local\Temp\cc5wRCGd.s:786    .text.netconn_bind_if:000000000000000c .L0 
C:\Users\stapi\AppData\Local\Temp\cc5wRCGd.s:787    .text.netconn_bind_if:000000000000000c .L0 
C:\Users\stapi\AppData\Local\Temp\cc5wRCGd.s:800    .text.netconn_bind_if:0000000000000030 .L0 
C:\Users\stapi\AppData\Local\Temp\cc5wRCGd.s:801    .text.netconn_bind_if:0000000000000030 .L0 
C:\Users\stapi\AppData\Local\Temp\cc5wRCGd.s:802    .text.netconn_bind_if:0000000000000030 .L0 
C:\Users\stapi\AppData\Local\Temp\cc5wRCGd.s:806    .text.netconn_bind_if:0000000000000032 .L0 
C:\Users\stapi\AppData\Local\Temp\cc5wRCGd.s:807    .text.netconn_bind_if:0000000000000032 .L0 
C:\Users\stapi\AppData\Local\Temp\cc5wRCGd.s:808    .text.netconn_bind_if:0000000000000032 .L0 
C:\Users\stapi\AppData\Local\Temp\cc5wRCGd.s:809    .text.netconn_bind_if:0000000000000032 .L0 
C:\Users\stapi\AppData\Local\Temp\cc5wRCGd.s:810    .text.netconn_bind_if:0000000000000032 .L0 
C:\Users\stapi\AppData\Local\Temp\cc5wRCGd.s:812    .text.netconn_bind_if:0000000000000034 .L0 
C:\Users\stapi\AppData\Local\Temp\cc5wRCGd.s:813    .text.netconn_bind_if:0000000000000034 .L0 
C:\Users\stapi\AppData\Local\Temp\cc5wRCGd.s:816    .text.netconn_bind_if:0000000000000038 .L0 
C:\Users\stapi\AppData\Local\Temp\cc5wRCGd.s:818    .text.netconn_bind_if:000000000000003c .L0 
C:\Users\stapi\AppData\Local\Temp\cc5wRCGd.s:819    .text.netconn_bind_if:000000000000003c .L0 
C:\Users\stapi\AppData\Local\Temp\cc5wRCGd.s:825    .text.netconn_bind_if:000000000000004a .L0 
C:\Users\stapi\AppData\Local\Temp\cc5wRCGd.s:826    .text.netconn_bind_if:000000000000004a .L0 
C:\Users\stapi\AppData\Local\Temp\cc5wRCGd.s:827    .text.netconn_bind_if:000000000000004a .L0 
C:\Users\stapi\AppData\Local\Temp\cc5wRCGd.s:828    .text.netconn_bind_if:000000000000004c .L0 
C:\Users\stapi\AppData\Local\Temp\cc5wRCGd.s:830    .text.netconn_bind_if:0000000000000054 .L0 
C:\Users\stapi\AppData\Local\Temp\cc5wRCGd.s:831    .text.netconn_bind_if:0000000000000054 .L0 
C:\Users\stapi\AppData\Local\Temp\cc5wRCGd.s:832    .text.netconn_bind_if:0000000000000054 .L0 
C:\Users\stapi\AppData\Local\Temp\cc5wRCGd.s:843    .text.netconn_connect:0000000000000000 netconn_connect
C:\Users\stapi\AppData\Local\Temp\cc5wRCGd.s:846    .text.netconn_connect:0000000000000000 .L0 
C:\Users\stapi\AppData\Local\Temp\cc5wRCGd.s:848    .text.netconn_connect:0000000000000000 .L0 
C:\Users\stapi\AppData\Local\Temp\cc5wRCGd.s:849    .text.netconn_connect:0000000000000008 .L0 
C:\Users\stapi\AppData\Local\Temp\cc5wRCGd.s:850    .text.netconn_connect:0000000000000008 .L0 
C:\Users\stapi\AppData\Local\Temp\cc5wRCGd.s:852    .text.netconn_connect:0000000000000008 .L0 
C:\Users\stapi\AppData\Local\Temp\cc5wRCGd.s:853    .text.netconn_connect:0000000000000008 .L0 
C:\Users\stapi\AppData\Local\Temp\cc5wRCGd.s:854    .text.netconn_connect:0000000000000008 .L0 
C:\Users\stapi\AppData\Local\Temp\cc5wRCGd.s:855    .text.netconn_connect:0000000000000008 .L0 
C:\Users\stapi\AppData\Local\Temp\cc5wRCGd.s:856    .text.netconn_connect:0000000000000008 .L0 
C:\Users\stapi\AppData\Local\Temp\cc5wRCGd.s:857    .text.netconn_connect:000000000000000a .L0 
C:\Users\stapi\AppData\Local\Temp\cc5wRCGd.s:859    .text.netconn_connect:000000000000000a .L0 
C:\Users\stapi\AppData\Local\Temp\cc5wRCGd.s:861    .text.netconn_connect:000000000000000c .L0 
C:\Users\stapi\AppData\Local\Temp\cc5wRCGd.s:862    .text.netconn_connect:000000000000000c .L0 
C:\Users\stapi\AppData\Local\Temp\cc5wRCGd.s:876    .text.netconn_connect:0000000000000030 .L0 
C:\Users\stapi\AppData\Local\Temp\cc5wRCGd.s:877    .text.netconn_connect:0000000000000030 .L0 
C:\Users\stapi\AppData\Local\Temp\cc5wRCGd.s:878    .text.netconn_connect:0000000000000030 .L0 
C:\Users\stapi\AppData\Local\Temp\cc5wRCGd.s:882    .text.netconn_connect:0000000000000032 .L0 
C:\Users\stapi\AppData\Local\Temp\cc5wRCGd.s:883    .text.netconn_connect:0000000000000032 .L0 
C:\Users\stapi\AppData\Local\Temp\cc5wRCGd.s:884    .text.netconn_connect:0000000000000032 .L0 
C:\Users\stapi\AppData\Local\Temp\cc5wRCGd.s:885    .text.netconn_connect:0000000000000032 .L0 
C:\Users\stapi\AppData\Local\Temp\cc5wRCGd.s:887    .text.netconn_connect:0000000000000034 .L0 
C:\Users\stapi\AppData\Local\Temp\cc5wRCGd.s:893    .text.netconn_connect:000000000000003c .L0 
C:\Users\stapi\AppData\Local\Temp\cc5wRCGd.s:894    .text.netconn_connect:000000000000003c .L0 
C:\Users\stapi\AppData\Local\Temp\cc5wRCGd.s:895    .text.netconn_connect:000000000000003c .L0 
C:\Users\stapi\AppData\Local\Temp\cc5wRCGd.s:897    .text.netconn_connect:000000000000003e .L0 
C:\Users\stapi\AppData\Local\Temp\cc5wRCGd.s:898    .text.netconn_connect:000000000000003e .L0 
C:\Users\stapi\AppData\Local\Temp\cc5wRCGd.s:901    .text.netconn_connect:0000000000000042 .L0 
C:\Users\stapi\AppData\Local\Temp\cc5wRCGd.s:903    .text.netconn_connect:0000000000000044 .L0 
C:\Users\stapi\AppData\Local\Temp\cc5wRCGd.s:904    .text.netconn_connect:0000000000000044 .L0 
C:\Users\stapi\AppData\Local\Temp\cc5wRCGd.s:908    .text.netconn_connect:000000000000004a .L0 
C:\Users\stapi\AppData\Local\Temp\cc5wRCGd.s:910    .text.netconn_connect:000000000000004e .L0 
C:\Users\stapi\AppData\Local\Temp\cc5wRCGd.s:911    .text.netconn_connect:000000000000004e .L0 
C:\Users\stapi\AppData\Local\Temp\cc5wRCGd.s:914    .text.netconn_connect:0000000000000056 .L0 
C:\Users\stapi\AppData\Local\Temp\cc5wRCGd.s:915    .text.netconn_connect:0000000000000056 .L0 
C:\Users\stapi\AppData\Local\Temp\cc5wRCGd.s:916    .text.netconn_connect:0000000000000056 .L0 
C:\Users\stapi\AppData\Local\Temp\cc5wRCGd.s:917    .text.netconn_connect:0000000000000058 .L0 
C:\Users\stapi\AppData\Local\Temp\cc5wRCGd.s:919    .text.netconn_connect:0000000000000060 .L0 
C:\Users\stapi\AppData\Local\Temp\cc5wRCGd.s:920    .text.netconn_connect:0000000000000060 .L0 
C:\Users\stapi\AppData\Local\Temp\cc5wRCGd.s:921    .text.netconn_connect:0000000000000060 .L0 
C:\Users\stapi\AppData\Local\Temp\cc5wRCGd.s:932    .text.netconn_disconnect:0000000000000000 netconn_disconnect
C:\Users\stapi\AppData\Local\Temp\cc5wRCGd.s:935    .text.netconn_disconnect:0000000000000000 .L0 
C:\Users\stapi\AppData\Local\Temp\cc5wRCGd.s:937    .text.netconn_disconnect:0000000000000000 .L0 
C:\Users\stapi\AppData\Local\Temp\cc5wRCGd.s:938    .text.netconn_disconnect:0000000000000008 .L0 
C:\Users\stapi\AppData\Local\Temp\cc5wRCGd.s:939    .text.netconn_disconnect:0000000000000008 .L0 
C:\Users\stapi\AppData\Local\Temp\cc5wRCGd.s:941    .text.netconn_disconnect:0000000000000008 .L0 
C:\Users\stapi\AppData\Local\Temp\cc5wRCGd.s:942    .text.netconn_disconnect:0000000000000008 .L0 
C:\Users\stapi\AppData\Local\Temp\cc5wRCGd.s:943    .text.netconn_disconnect:0000000000000008 .L0 
C:\Users\stapi\AppData\Local\Temp\cc5wRCGd.s:944    .text.netconn_disconnect:0000000000000008 .L0 
C:\Users\stapi\AppData\Local\Temp\cc5wRCGd.s:945    .text.netconn_disconnect:0000000000000008 .L0 
C:\Users\stapi\AppData\Local\Temp\cc5wRCGd.s:946    .text.netconn_disconnect:000000000000000a .L0 
C:\Users\stapi\AppData\Local\Temp\cc5wRCGd.s:948    .text.netconn_disconnect:000000000000000a .L0 
C:\Users\stapi\AppData\Local\Temp\cc5wRCGd.s:950    .text.netconn_disconnect:000000000000000c .L0 
C:\Users\stapi\AppData\Local\Temp\cc5wRCGd.s:951    .text.netconn_disconnect:000000000000000c .L0 
C:\Users\stapi\AppData\Local\Temp\cc5wRCGd.s:963    .text.netconn_disconnect:0000000000000030 .L0 
C:\Users\stapi\AppData\Local\Temp\cc5wRCGd.s:964    .text.netconn_disconnect:0000000000000030 .L0 
C:\Users\stapi\AppData\Local\Temp\cc5wRCGd.s:965    .text.netconn_disconnect:0000000000000030 .L0 
C:\Users\stapi\AppData\Local\Temp\cc5wRCGd.s:969    .text.netconn_disconnect:0000000000000032 .L0 
C:\Users\stapi\AppData\Local\Temp\cc5wRCGd.s:970    .text.netconn_disconnect:0000000000000032 .L0 
C:\Users\stapi\AppData\Local\Temp\cc5wRCGd.s:971    .text.netconn_disconnect:0000000000000032 .L0 
C:\Users\stapi\AppData\Local\Temp\cc5wRCGd.s:972    .text.netconn_disconnect:0000000000000032 .L0 
C:\Users\stapi\AppData\Local\Temp\cc5wRCGd.s:973    .text.netconn_disconnect:0000000000000032 .L0 
C:\Users\stapi\AppData\Local\Temp\cc5wRCGd.s:975    .text.netconn_disconnect:0000000000000034 .L0 
C:\Users\stapi\AppData\Local\Temp\cc5wRCGd.s:976    .text.netconn_disconnect:0000000000000034 .L0 
C:\Users\stapi\AppData\Local\Temp\cc5wRCGd.s:983    .text.netconn_disconnect:0000000000000046 .L0 
C:\Users\stapi\AppData\Local\Temp\cc5wRCGd.s:984    .text.netconn_disconnect:0000000000000046 .L0 
C:\Users\stapi\AppData\Local\Temp\cc5wRCGd.s:985    .text.netconn_disconnect:0000000000000046 .L0 
C:\Users\stapi\AppData\Local\Temp\cc5wRCGd.s:986    .text.netconn_disconnect:0000000000000048 .L0 
C:\Users\stapi\AppData\Local\Temp\cc5wRCGd.s:988    .text.netconn_disconnect:0000000000000050 .L0 
C:\Users\stapi\AppData\Local\Temp\cc5wRCGd.s:989    .text.netconn_disconnect:0000000000000050 .L0 
C:\Users\stapi\AppData\Local\Temp\cc5wRCGd.s:990    .text.netconn_disconnect:0000000000000050 .L0 
C:\Users\stapi\AppData\Local\Temp\cc5wRCGd.s:1001   .text.netconn_listen_with_backlog:0000000000000000 netconn_listen_with_backlog
C:\Users\stapi\AppData\Local\Temp\cc5wRCGd.s:1004   .text.netconn_listen_with_backlog:0000000000000000 .L0 
C:\Users\stapi\AppData\Local\Temp\cc5wRCGd.s:1006   .text.netconn_listen_with_backlog:0000000000000000 .L0 
C:\Users\stapi\AppData\Local\Temp\cc5wRCGd.s:1007   .text.netconn_listen_with_backlog:0000000000000008 .L0 
C:\Users\stapi\AppData\Local\Temp\cc5wRCGd.s:1008   .text.netconn_listen_with_backlog:0000000000000008 .L0 
C:\Users\stapi\AppData\Local\Temp\cc5wRCGd.s:1010   .text.netconn_listen_with_backlog:0000000000000008 .L0 
C:\Users\stapi\AppData\Local\Temp\cc5wRCGd.s:1011   .text.netconn_listen_with_backlog:0000000000000008 .L0 
C:\Users\stapi\AppData\Local\Temp\cc5wRCGd.s:1012   .text.netconn_listen_with_backlog:0000000000000008 .L0 
C:\Users\stapi\AppData\Local\Temp\cc5wRCGd.s:1013   .text.netconn_listen_with_backlog:0000000000000008 .L0 
C:\Users\stapi\AppData\Local\Temp\cc5wRCGd.s:1014   .text.netconn_listen_with_backlog:0000000000000008 .L0 
C:\Users\stapi\AppData\Local\Temp\cc5wRCGd.s:1015   .text.netconn_listen_with_backlog:0000000000000008 .L0 
C:\Users\stapi\AppData\Local\Temp\cc5wRCGd.s:1016   .text.netconn_listen_with_backlog:000000000000000a .L0 
C:\Users\stapi\AppData\Local\Temp\cc5wRCGd.s:1018   .text.netconn_listen_with_backlog:000000000000000a .L0 
C:\Users\stapi\AppData\Local\Temp\cc5wRCGd.s:1020   .text.netconn_listen_with_backlog:000000000000000c .L0 
C:\Users\stapi\AppData\Local\Temp\cc5wRCGd.s:1021   .text.netconn_listen_with_backlog:000000000000000c .L0 
C:\Users\stapi\AppData\Local\Temp\cc5wRCGd.s:1034   .text.netconn_listen_with_backlog:0000000000000030 .L0 
C:\Users\stapi\AppData\Local\Temp\cc5wRCGd.s:1035   .text.netconn_listen_with_backlog:0000000000000030 .L0 
C:\Users\stapi\AppData\Local\Temp\cc5wRCGd.s:1036   .text.netconn_listen_with_backlog:0000000000000030 .L0 
C:\Users\stapi\AppData\Local\Temp\cc5wRCGd.s:1040   .text.netconn_listen_with_backlog:0000000000000032 .L0 
C:\Users\stapi\AppData\Local\Temp\cc5wRCGd.s:1041   .text.netconn_listen_with_backlog:0000000000000032 .L0 
C:\Users\stapi\AppData\Local\Temp\cc5wRCGd.s:1042   .text.netconn_listen_with_backlog:0000000000000032 .L0 
C:\Users\stapi\AppData\Local\Temp\cc5wRCGd.s:1043   .text.netconn_listen_with_backlog:0000000000000032 .L0 
C:\Users\stapi\AppData\Local\Temp\cc5wRCGd.s:1044   .text.netconn_listen_with_backlog:0000000000000032 .L0 
C:\Users\stapi\AppData\Local\Temp\cc5wRCGd.s:1046   .text.netconn_listen_with_backlog:0000000000000034 .L0 
C:\Users\stapi\AppData\Local\Temp\cc5wRCGd.s:1047   .text.netconn_listen_with_backlog:0000000000000034 .L0 
C:\Users\stapi\AppData\Local\Temp\cc5wRCGd.s:1055   .text.netconn_listen_with_backlog:0000000000000046 .L0 
C:\Users\stapi\AppData\Local\Temp\cc5wRCGd.s:1056   .text.netconn_listen_with_backlog:0000000000000046 .L0 
C:\Users\stapi\AppData\Local\Temp\cc5wRCGd.s:1057   .text.netconn_listen_with_backlog:0000000000000046 .L0 
C:\Users\stapi\AppData\Local\Temp\cc5wRCGd.s:1058   .text.netconn_listen_with_backlog:0000000000000048 .L0 
C:\Users\stapi\AppData\Local\Temp\cc5wRCGd.s:1060   .text.netconn_listen_with_backlog:0000000000000050 .L0 
C:\Users\stapi\AppData\Local\Temp\cc5wRCGd.s:1061   .text.netconn_listen_with_backlog:0000000000000050 .L0 
C:\Users\stapi\AppData\Local\Temp\cc5wRCGd.s:1062   .text.netconn_listen_with_backlog:0000000000000050 .L0 
C:\Users\stapi\AppData\Local\Temp\cc5wRCGd.s:1069   .text.netconn_tcp_recvd:0000000000000000 netconn_tcp_recvd
C:\Users\stapi\AppData\Local\Temp\cc5wRCGd.s:1072   .text.netconn_tcp_recvd:0000000000000000 .L0 
C:\Users\stapi\AppData\Local\Temp\cc5wRCGd.s:1074   .text.netconn_tcp_recvd:0000000000000000 .L0 
C:\Users\stapi\AppData\Local\Temp\cc5wRCGd.s:1075   .text.netconn_tcp_recvd:0000000000000008 .L0 
C:\Users\stapi\AppData\Local\Temp\cc5wRCGd.s:1076   .text.netconn_tcp_recvd:0000000000000008 .L0 
C:\Users\stapi\AppData\Local\Temp\cc5wRCGd.s:1078   .text.netconn_tcp_recvd:0000000000000008 .L0 
C:\Users\stapi\AppData\Local\Temp\cc5wRCGd.s:1079   .text.netconn_tcp_recvd:0000000000000008 .L0 
C:\Users\stapi\AppData\Local\Temp\cc5wRCGd.s:1080   .text.netconn_tcp_recvd:0000000000000008 .L0 
C:\Users\stapi\AppData\Local\Temp\cc5wRCGd.s:1081   .text.netconn_tcp_recvd:0000000000000008 .L0 
C:\Users\stapi\AppData\Local\Temp\cc5wRCGd.s:1082   .text.netconn_tcp_recvd:0000000000000008 .L0 
C:\Users\stapi\AppData\Local\Temp\cc5wRCGd.s:1083   .text.netconn_tcp_recvd:000000000000000a .L0 
C:\Users\stapi\AppData\Local\Temp\cc5wRCGd.s:1085   .text.netconn_tcp_recvd:000000000000000a .L0 
C:\Users\stapi\AppData\Local\Temp\cc5wRCGd.s:1087   .text.netconn_tcp_recvd:000000000000000c .L0 
C:\Users\stapi\AppData\Local\Temp\cc5wRCGd.s:1093   .text.netconn_tcp_recvd:0000000000000018 .L0 
C:\Users\stapi\AppData\Local\Temp\cc5wRCGd.s:1094   .text.netconn_tcp_recvd:0000000000000018 .L0 
C:\Users\stapi\AppData\Local\Temp\cc5wRCGd.s:1107   .text.netconn_tcp_recvd:000000000000003c .L0 
C:\Users\stapi\AppData\Local\Temp\cc5wRCGd.s:1108   .text.netconn_tcp_recvd:000000000000003c .L0 
C:\Users\stapi\AppData\Local\Temp\cc5wRCGd.s:1109   .text.netconn_tcp_recvd:000000000000003c .L0 
C:\Users\stapi\AppData\Local\Temp\cc5wRCGd.s:1113   .text.netconn_tcp_recvd:000000000000003e .L0 
C:\Users\stapi\AppData\Local\Temp\cc5wRCGd.s:1114   .text.netconn_tcp_recvd:000000000000003e .L0 
C:\Users\stapi\AppData\Local\Temp\cc5wRCGd.s:1115   .text.netconn_tcp_recvd:000000000000003e .L0 
C:\Users\stapi\AppData\Local\Temp\cc5wRCGd.s:1116   .text.netconn_tcp_recvd:000000000000003e .L0 
C:\Users\stapi\AppData\Local\Temp\cc5wRCGd.s:1117   .text.netconn_tcp_recvd:000000000000003e .L0 
C:\Users\stapi\AppData\Local\Temp\cc5wRCGd.s:1121   .text.netconn_tcp_recvd:0000000000000048 .L0 
C:\Users\stapi\AppData\Local\Temp\cc5wRCGd.s:1122   .text.netconn_tcp_recvd:0000000000000048 .L0 
C:\Users\stapi\AppData\Local\Temp\cc5wRCGd.s:1123   .text.netconn_tcp_recvd:0000000000000048 .L0 
C:\Users\stapi\AppData\Local\Temp\cc5wRCGd.s:1124   .text.netconn_tcp_recvd:000000000000004a .L0 
C:\Users\stapi\AppData\Local\Temp\cc5wRCGd.s:1126   .text.netconn_tcp_recvd:0000000000000052 .L0 
C:\Users\stapi\AppData\Local\Temp\cc5wRCGd.s:1127   .text.netconn_tcp_recvd:0000000000000052 .L0 
C:\Users\stapi\AppData\Local\Temp\cc5wRCGd.s:1128   .text.netconn_tcp_recvd:0000000000000052 .L0 
C:\Users\stapi\AppData\Local\Temp\cc5wRCGd.s:1139   .text.netconn_send:0000000000000000 netconn_send
C:\Users\stapi\AppData\Local\Temp\cc5wRCGd.s:1142   .text.netconn_send:0000000000000000 .L0 
C:\Users\stapi\AppData\Local\Temp\cc5wRCGd.s:1144   .text.netconn_send:0000000000000000 .L0 
C:\Users\stapi\AppData\Local\Temp\cc5wRCGd.s:1145   .text.netconn_send:0000000000000008 .L0 
C:\Users\stapi\AppData\Local\Temp\cc5wRCGd.s:1146   .text.netconn_send:0000000000000008 .L0 
C:\Users\stapi\AppData\Local\Temp\cc5wRCGd.s:1148   .text.netconn_send:0000000000000008 .L0 
C:\Users\stapi\AppData\Local\Temp\cc5wRCGd.s:1149   .text.netconn_send:0000000000000008 .L0 
C:\Users\stapi\AppData\Local\Temp\cc5wRCGd.s:1150   .text.netconn_send:0000000000000008 .L0 
C:\Users\stapi\AppData\Local\Temp\cc5wRCGd.s:1151   .text.netconn_send:0000000000000008 .L0 
C:\Users\stapi\AppData\Local\Temp\cc5wRCGd.s:1152   .text.netconn_send:0000000000000008 .L0 
C:\Users\stapi\AppData\Local\Temp\cc5wRCGd.s:1153   .text.netconn_send:000000000000000a .L0 
C:\Users\stapi\AppData\Local\Temp\cc5wRCGd.s:1155   .text.netconn_send:000000000000000a .L0 
C:\Users\stapi\AppData\Local\Temp\cc5wRCGd.s:1160   .text.netconn_send:000000000000000c .L0 
C:\Users\stapi\AppData\Local\Temp\cc5wRCGd.s:1161   .text.netconn_send:000000000000000c .L0 
C:\Users\stapi\AppData\Local\Temp\cc5wRCGd.s:1174   .text.netconn_send:0000000000000030 .L0 
C:\Users\stapi\AppData\Local\Temp\cc5wRCGd.s:1175   .text.netconn_send:0000000000000030 .L0 
C:\Users\stapi\AppData\Local\Temp\cc5wRCGd.s:1176   .text.netconn_send:0000000000000030 .L0 
C:\Users\stapi\AppData\Local\Temp\cc5wRCGd.s:1182   .text.netconn_send:0000000000000032 .L0 
C:\Users\stapi\AppData\Local\Temp\cc5wRCGd.s:1183   .text.netconn_send:0000000000000032 .L0 
C:\Users\stapi\AppData\Local\Temp\cc5wRCGd.s:1184   .text.netconn_send:0000000000000032 .L0 
C:\Users\stapi\AppData\Local\Temp\cc5wRCGd.s:1185   .text.netconn_send:0000000000000032 .L0 
C:\Users\stapi\AppData\Local\Temp\cc5wRCGd.s:1186   .text.netconn_send:0000000000000032 .L0 
C:\Users\stapi\AppData\Local\Temp\cc5wRCGd.s:1187   .text.netconn_send:0000000000000032 .L0 
C:\Users\stapi\AppData\Local\Temp\cc5wRCGd.s:1189   .text.netconn_send:0000000000000034 .L0 
C:\Users\stapi\AppData\Local\Temp\cc5wRCGd.s:1190   .text.netconn_send:0000000000000034 .L0 
C:\Users\stapi\AppData\Local\Temp\cc5wRCGd.s:1193   .text.netconn_send:0000000000000038 .L0 
C:\Users\stapi\AppData\Local\Temp\cc5wRCGd.s:1195   .text.netconn_send:000000000000003a .L0 
C:\Users\stapi\AppData\Local\Temp\cc5wRCGd.s:1196   .text.netconn_send:000000000000003a .L0 
C:\Users\stapi\AppData\Local\Temp\cc5wRCGd.s:1202   .text.netconn_send:0000000000000048 .L0 
C:\Users\stapi\AppData\Local\Temp\cc5wRCGd.s:1203   .text.netconn_send:0000000000000048 .L0 
C:\Users\stapi\AppData\Local\Temp\cc5wRCGd.s:1204   .text.netconn_send:0000000000000048 .L0 
C:\Users\stapi\AppData\Local\Temp\cc5wRCGd.s:1205   .text.netconn_send:000000000000004a .L0 
C:\Users\stapi\AppData\Local\Temp\cc5wRCGd.s:1207   .text.netconn_send:0000000000000052 .L0 
C:\Users\stapi\AppData\Local\Temp\cc5wRCGd.s:1208   .text.netconn_send:0000000000000052 .L0 
C:\Users\stapi\AppData\Local\Temp\cc5wRCGd.s:1209   .text.netconn_send:0000000000000052 .L0 
C:\Users\stapi\AppData\Local\Temp\cc5wRCGd.s:1216   .text.netconn_sendto:0000000000000000 netconn_sendto
C:\Users\stapi\AppData\Local\Temp\cc5wRCGd.s:1219   .text.netconn_sendto:0000000000000000 .L0 
C:\Users\stapi\AppData\Local\Temp\cc5wRCGd.s:1221   .text.netconn_sendto:0000000000000000 .L0 
C:\Users\stapi\AppData\Local\Temp\cc5wRCGd.s:1222   .text.netconn_sendto:0000000000000000 .L0 
C:\Users\stapi\AppData\Local\Temp\cc5wRCGd.s:1223   .text.netconn_sendto:0000000000000000 .L0 
C:\Users\stapi\AppData\Local\Temp\cc5wRCGd.s:1225   .text.netconn_sendto:0000000000000002 .L0 
C:\Users\stapi\AppData\Local\Temp\cc5wRCGd.s:1228   .text.netconn_sendto:0000000000000006 .L0 
C:\Users\stapi\AppData\Local\Temp\cc5wRCGd.s:1231   .text.netconn_sendto:0000000000000008 .L0 
C:\Users\stapi\AppData\Local\Temp\cc5wRCGd.s:1233   .text.netconn_sendto:000000000000000a .L0 
C:\Users\stapi\AppData\Local\Temp\cc5wRCGd.s:1234   .text.netconn_sendto:000000000000000a .L0 
C:\Users\stapi\AppData\Local\Temp\cc5wRCGd.s:1236   .text.netconn_sendto:000000000000000e .L0 
C:\Users\stapi\AppData\Local\Temp\cc5wRCGd.s:1237   .text.netconn_sendto:000000000000000e .L0 
C:\Users\stapi\AppData\Local\Temp\cc5wRCGd.s:1241   .text.netconn_sendto:0000000000000016 .L0 
C:\Users\stapi\AppData\Local\Temp\cc5wRCGd.s:1244   .text.netconn_sendto:0000000000000018 .L0 
C:\Users\stapi\AppData\Local\Temp\cc5wRCGd.s:1245   .text.netconn_sendto:000000000000001a .L0 
C:\Users\stapi\AppData\Local\Temp\cc5wRCGd.s:1262   .text.netconn_write_vectors_partly:0000000000000000 netconn_write_vectors_partly
C:\Users\stapi\AppData\Local\Temp\cc5wRCGd.s:1265   .text.netconn_write_vectors_partly:0000000000000000 .L0 
C:\Users\stapi\AppData\Local\Temp\cc5wRCGd.s:1267   .text.netconn_write_vectors_partly:0000000000000000 .L0 
C:\Users\stapi\AppData\Local\Temp\cc5wRCGd.s:1268   .text.netconn_write_vectors_partly:0000000000000008 .L0 
C:\Users\stapi\AppData\Local\Temp\cc5wRCGd.s:1269   .text.netconn_write_vectors_partly:0000000000000008 .L0 
C:\Users\stapi\AppData\Local\Temp\cc5wRCGd.s:1270   .text.netconn_write_vectors_partly:0000000000000008 .L0 
C:\Users\stapi\AppData\Local\Temp\cc5wRCGd.s:1271   .text.netconn_write_vectors_partly:0000000000000008 .L0 
C:\Users\stapi\AppData\Local\Temp\cc5wRCGd.s:1272   .text.netconn_write_vectors_partly:0000000000000008 .L0 
C:\Users\stapi\AppData\Local\Temp\cc5wRCGd.s:1274   .text.netconn_write_vectors_partly:0000000000000008 .L0 
C:\Users\stapi\AppData\Local\Temp\cc5wRCGd.s:1275   .text.netconn_write_vectors_partly:0000000000000008 .L0 
C:\Users\stapi\AppData\Local\Temp\cc5wRCGd.s:1276   .text.netconn_write_vectors_partly:0000000000000008 .L0 
C:\Users\stapi\AppData\Local\Temp\cc5wRCGd.s:1277   .text.netconn_write_vectors_partly:0000000000000008 .L0 
C:\Users\stapi\AppData\Local\Temp\cc5wRCGd.s:1278   .text.netconn_write_vectors_partly:0000000000000008 .L0 
C:\Users\stapi\AppData\Local\Temp\cc5wRCGd.s:1279   .text.netconn_write_vectors_partly:0000000000000008 .L0 
C:\Users\stapi\AppData\Local\Temp\cc5wRCGd.s:1280   .text.netconn_write_vectors_partly:0000000000000008 .L0 
C:\Users\stapi\AppData\Local\Temp\cc5wRCGd.s:1281   .text.netconn_write_vectors_partly:0000000000000008 .L0 
C:\Users\stapi\AppData\Local\Temp\cc5wRCGd.s:1282   .text.netconn_write_vectors_partly:000000000000000a .L0 
C:\Users\stapi\AppData\Local\Temp\cc5wRCGd.s:1284   .text.netconn_write_vectors_partly:000000000000000a .L0 
C:\Users\stapi\AppData\Local\Temp\cc5wRCGd.s:1286   .text.netconn_write_vectors_partly:000000000000000c .L0 
C:\Users\stapi\AppData\Local\Temp\cc5wRCGd.s:1287   .text.netconn_write_vectors_partly:000000000000000c .L0 
C:\Users\stapi\AppData\Local\Temp\cc5wRCGd.s:1302   .text.netconn_write_vectors_partly:0000000000000030 .L0 
C:\Users\stapi\AppData\Local\Temp\cc5wRCGd.s:1303   .text.netconn_write_vectors_partly:0000000000000030 .L0 
C:\Users\stapi\AppData\Local\Temp\cc5wRCGd.s:1304   .text.netconn_write_vectors_partly:0000000000000030 .L0 
C:\Users\stapi\AppData\Local\Temp\cc5wRCGd.s:1308   .text.netconn_write_vectors_partly:0000000000000032 .L0 
C:\Users\stapi\AppData\Local\Temp\cc5wRCGd.s:1311   .text.netconn_write_vectors_partly:0000000000000036 .L0 
C:\Users\stapi\AppData\Local\Temp\cc5wRCGd.s:1312   .text.netconn_write_vectors_partly:0000000000000036 .L0 
C:\Users\stapi\AppData\Local\Temp\cc5wRCGd.s:1313   .text.netconn_write_vectors_partly:0000000000000036 .L0 
C:\Users\stapi\AppData\Local\Temp\cc5wRCGd.s:1314   .text.netconn_write_vectors_partly:0000000000000036 .L0 
C:\Users\stapi\AppData\Local\Temp\cc5wRCGd.s:1319   .text.netconn_write_vectors_partly:0000000000000040 .L0 
C:\Users\stapi\AppData\Local\Temp\cc5wRCGd.s:1320   .text.netconn_write_vectors_partly:0000000000000040 .L0 
C:\Users\stapi\AppData\Local\Temp\cc5wRCGd.s:1335   .text.netconn_write_vectors_partly:0000000000000064 .L0 
C:\Users\stapi\AppData\Local\Temp\cc5wRCGd.s:1336   .text.netconn_write_vectors_partly:0000000000000064 .L0 
C:\Users\stapi\AppData\Local\Temp\cc5wRCGd.s:1337   .text.netconn_write_vectors_partly:0000000000000064 .L0 
C:\Users\stapi\AppData\Local\Temp\cc5wRCGd.s:1343   .text.netconn_write_vectors_partly:0000000000000066 .L0 
C:\Users\stapi\AppData\Local\Temp\cc5wRCGd.s:1344   .text.netconn_write_vectors_partly:0000000000000066 .L0 
C:\Users\stapi\AppData\Local\Temp\cc5wRCGd.s:1345   .text.netconn_write_vectors_partly:0000000000000066 .L0 
C:\Users\stapi\AppData\Local\Temp\cc5wRCGd.s:1346   .text.netconn_write_vectors_partly:0000000000000066 .L0 
C:\Users\stapi\AppData\Local\Temp\cc5wRCGd.s:1347   .text.netconn_write_vectors_partly:0000000000000066 .L0 
C:\Users\stapi\AppData\Local\Temp\cc5wRCGd.s:1350   .text.netconn_write_vectors_partly:000000000000006e .L0 
C:\Users\stapi\AppData\Local\Temp\cc5wRCGd.s:1352   .text.netconn_write_vectors_partly:0000000000000070 .L0 
C:\Users\stapi\AppData\Local\Temp\cc5wRCGd.s:1357   .text.netconn_write_vectors_partly:0000000000000076 .L0 
C:\Users\stapi\AppData\Local\Temp\cc5wRCGd.s:1358   .text.netconn_write_vectors_partly:0000000000000076 .L0 
C:\Users\stapi\AppData\Local\Temp\cc5wRCGd.s:1369   .text.netconn_write_vectors_partly:0000000000000084 .L0 
C:\Users\stapi\AppData\Local\Temp\cc5wRCGd.s:1370   .text.netconn_write_vectors_partly:0000000000000084 .L0 
C:\Users\stapi\AppData\Local\Temp\cc5wRCGd.s:1372   .text.netconn_write_vectors_partly:0000000000000088 .L0 
C:\Users\stapi\AppData\Local\Temp\cc5wRCGd.s:1374   .text.netconn_write_vectors_partly:000000000000008a .L0 
C:\Users\stapi\AppData\Local\Temp\cc5wRCGd.s:1377   .text.netconn_write_vectors_partly:000000000000008c .L0 
C:\Users\stapi\AppData\Local\Temp\cc5wRCGd.s:1378   .text.netconn_write_vectors_partly:000000000000008c .L0 
C:\Users\stapi\AppData\Local\Temp\cc5wRCGd.s:1380   .text.netconn_write_vectors_partly:0000000000000090 .L0 
C:\Users\stapi\AppData\Local\Temp\cc5wRCGd.s:1381   .text.netconn_write_vectors_partly:0000000000000090 .L0 
C:\Users\stapi\AppData\Local\Temp\cc5wRCGd.s:1385   .text.netconn_write_vectors_partly:0000000000000092 .L0 
C:\Users\stapi\AppData\Local\Temp\cc5wRCGd.s:1386   .text.netconn_write_vectors_partly:0000000000000092 .L0 
C:\Users\stapi\AppData\Local\Temp\cc5wRCGd.s:1388   .text.netconn_write_vectors_partly:0000000000000096 .L0 
C:\Users\stapi\AppData\Local\Temp\cc5wRCGd.s:1389   .text.netconn_write_vectors_partly:0000000000000096 .L0 
C:\Users\stapi\AppData\Local\Temp\cc5wRCGd.s:1393   .text.netconn_write_vectors_partly:0000000000000098 .L0 
C:\Users\stapi\AppData\Local\Temp\cc5wRCGd.s:1399   .text.netconn_write_vectors_partly:000000000000009a .L0 
C:\Users\stapi\AppData\Local\Temp\cc5wRCGd.s:1400   .text.netconn_write_vectors_partly:000000000000009c .L0 
C:\Users\stapi\AppData\Local\Temp\cc5wRCGd.s:1401   .text.netconn_write_vectors_partly:000000000000009c .L0 
C:\Users\stapi\AppData\Local\Temp\cc5wRCGd.s:1403   .text.netconn_write_vectors_partly:00000000000000a4 .L0 
C:\Users\stapi\AppData\Local\Temp\cc5wRCGd.s:1404   .text.netconn_write_vectors_partly:00000000000000a4 .L0 
C:\Users\stapi\AppData\Local\Temp\cc5wRCGd.s:1405   .text.netconn_write_vectors_partly:00000000000000a4 .L0 
C:\Users\stapi\AppData\Local\Temp\cc5wRCGd.s:1406   .text.netconn_write_vectors_partly:00000000000000a4 .L0 
C:\Users\stapi\AppData\Local\Temp\cc5wRCGd.s:1407   .text.netconn_write_vectors_partly:00000000000000a4 .L0 
C:\Users\stapi\AppData\Local\Temp\cc5wRCGd.s:1410   .text.netconn_write_vectors_partly:00000000000000a4 .L0 
C:\Users\stapi\AppData\Local\Temp\cc5wRCGd.s:1414   .text.netconn_write_vectors_partly:00000000000000a4 .L0 
C:\Users\stapi\AppData\Local\Temp\cc5wRCGd.s:1415   .text.netconn_write_vectors_partly:00000000000000a4 .L0 
C:\Users\stapi\AppData\Local\Temp\cc5wRCGd.s:1418   .text.netconn_write_vectors_partly:00000000000000a8 .L0 
C:\Users\stapi\AppData\Local\Temp\cc5wRCGd.s:1419   .text.netconn_write_vectors_partly:00000000000000a8 .L0 
C:\Users\stapi\AppData\Local\Temp\cc5wRCGd.s:1420   .text.netconn_write_vectors_partly:00000000000000a8 .L0 
C:\Users\stapi\AppData\Local\Temp\cc5wRCGd.s:1422   .text.netconn_write_vectors_partly:00000000000000aa .L0 
C:\Users\stapi\AppData\Local\Temp\cc5wRCGd.s:1429   .text.netconn_write_vectors_partly:00000000000000b2 .L0 
C:\Users\stapi\AppData\Local\Temp\cc5wRCGd.s:1430   .text.netconn_write_vectors_partly:00000000000000b2 .L0 
C:\Users\stapi\AppData\Local\Temp\cc5wRCGd.s:1431   .text.netconn_write_vectors_partly:00000000000000b2 .L0 
C:\Users\stapi\AppData\Local\Temp\cc5wRCGd.s:1433   .text.netconn_write_vectors_partly:00000000000000b4 .L0 
C:\Users\stapi\AppData\Local\Temp\cc5wRCGd.s:1434   .text.netconn_write_vectors_partly:00000000000000b4 .L0 
C:\Users\stapi\AppData\Local\Temp\cc5wRCGd.s:1437   .text.netconn_write_vectors_partly:00000000000000b8 .L0 
C:\Users\stapi\AppData\Local\Temp\cc5wRCGd.s:1439   .text.netconn_write_vectors_partly:00000000000000ba .L0 
C:\Users\stapi\AppData\Local\Temp\cc5wRCGd.s:1440   .text.netconn_write_vectors_partly:00000000000000ba .L0 
C:\Users\stapi\AppData\Local\Temp\cc5wRCGd.s:1444   .text.netconn_write_vectors_partly:00000000000000c0 .L0 
C:\Users\stapi\AppData\Local\Temp\cc5wRCGd.s:1446   .text.netconn_write_vectors_partly:00000000000000c4 .L0 
C:\Users\stapi\AppData\Local\Temp\cc5wRCGd.s:1447   .text.netconn_write_vectors_partly:00000000000000c4 .L0 
C:\Users\stapi\AppData\Local\Temp\cc5wRCGd.s:1449   .text.netconn_write_vectors_partly:00000000000000c6 .L0 
C:\Users\stapi\AppData\Local\Temp\cc5wRCGd.s:1450   .text.netconn_write_vectors_partly:00000000000000c6 .L0 
C:\Users\stapi\AppData\Local\Temp\cc5wRCGd.s:1452   .text.netconn_write_vectors_partly:00000000000000ca .L0 
C:\Users\stapi\AppData\Local\Temp\cc5wRCGd.s:1453   .text.netconn_write_vectors_partly:00000000000000ca .L0 
C:\Users\stapi\AppData\Local\Temp\cc5wRCGd.s:1455   .text.netconn_write_vectors_partly:00000000000000cc .L0 
C:\Users\stapi\AppData\Local\Temp\cc5wRCGd.s:1456   .text.netconn_write_vectors_partly:00000000000000cc .L0 
C:\Users\stapi\AppData\Local\Temp\cc5wRCGd.s:1458   .text.netconn_write_vectors_partly:00000000000000ce .L0 
C:\Users\stapi\AppData\Local\Temp\cc5wRCGd.s:1459   .text.netconn_write_vectors_partly:00000000000000ce .L0 
C:\Users\stapi\AppData\Local\Temp\cc5wRCGd.s:1462   .text.netconn_write_vectors_partly:00000000000000d6 .L0 
C:\Users\stapi\AppData\Local\Temp\cc5wRCGd.s:1463   .text.netconn_write_vectors_partly:00000000000000d6 .L0 
C:\Users\stapi\AppData\Local\Temp\cc5wRCGd.s:1465   .text.netconn_write_vectors_partly:00000000000000d8 .L0 
C:\Users\stapi\AppData\Local\Temp\cc5wRCGd.s:1466   .text.netconn_write_vectors_partly:00000000000000d8 .L0 
C:\Users\stapi\AppData\Local\Temp\cc5wRCGd.s:1468   .text.netconn_write_vectors_partly:00000000000000da .L0 
C:\Users\stapi\AppData\Local\Temp\cc5wRCGd.s:1469   .text.netconn_write_vectors_partly:00000000000000da .L0 
C:\Users\stapi\AppData\Local\Temp\cc5wRCGd.s:1473   .text.netconn_write_vectors_partly:00000000000000de .L0 
C:\Users\stapi\AppData\Local\Temp\cc5wRCGd.s:1474   .text.netconn_write_vectors_partly:00000000000000de .L0 
C:\Users\stapi\AppData\Local\Temp\cc5wRCGd.s:1476   .text.netconn_write_vectors_partly:00000000000000e2 .L0 
C:\Users\stapi\AppData\Local\Temp\cc5wRCGd.s:1477   .text.netconn_write_vectors_partly:00000000000000e2 .L0 
C:\Users\stapi\AppData\Local\Temp\cc5wRCGd.s:1480   .text.netconn_write_vectors_partly:00000000000000e8 .L0 
C:\Users\stapi\AppData\Local\Temp\cc5wRCGd.s:1481   .text.netconn_write_vectors_partly:00000000000000e8 .L0 
C:\Users\stapi\AppData\Local\Temp\cc5wRCGd.s:1493   .text.netconn_write_vectors_partly:000000000000010c .L0 
C:\Users\stapi\AppData\Local\Temp\cc5wRCGd.s:1494   .text.netconn_write_vectors_partly:000000000000010c .L0 
C:\Users\stapi\AppData\Local\Temp\cc5wRCGd.s:1495   .text.netconn_write_vectors_partly:000000000000010c .L0 
C:\Users\stapi\AppData\Local\Temp\cc5wRCGd.s:1499   .text.netconn_write_vectors_partly:000000000000010e .L0 
C:\Users\stapi\AppData\Local\Temp\cc5wRCGd.s:1504   .text.netconn_write_vectors_partly:0000000000000112 .L0 
C:\Users\stapi\AppData\Local\Temp\cc5wRCGd.s:1511   .text.netconn_write_partly:0000000000000000 netconn_write_partly
C:\Users\stapi\AppData\Local\Temp\cc5wRCGd.s:1514   .text.netconn_write_partly:0000000000000000 .L0 
C:\Users\stapi\AppData\Local\Temp\cc5wRCGd.s:1516   .text.netconn_write_partly:0000000000000000 .L0 
C:\Users\stapi\AppData\Local\Temp\cc5wRCGd.s:1517   .text.netconn_write_partly:0000000000000008 .L0 
C:\Users\stapi\AppData\Local\Temp\cc5wRCGd.s:1518   .text.netconn_write_partly:0000000000000008 .L0 
C:\Users\stapi\AppData\Local\Temp\cc5wRCGd.s:1520   .text.netconn_write_partly:0000000000000008 .L0 
C:\Users\stapi\AppData\Local\Temp\cc5wRCGd.s:1521   .text.netconn_write_partly:0000000000000008 .L0 
C:\Users\stapi\AppData\Local\Temp\cc5wRCGd.s:1522   .text.netconn_write_partly:0000000000000008 .L0 
C:\Users\stapi\AppData\Local\Temp\cc5wRCGd.s:1523   .text.netconn_write_partly:000000000000000a .L0 
C:\Users\stapi\AppData\Local\Temp\cc5wRCGd.s:1525   .text.netconn_write_partly:000000000000000a .L0 
C:\Users\stapi\AppData\Local\Temp\cc5wRCGd.s:1527   .text.netconn_write_partly:000000000000000c .L0 
C:\Users\stapi\AppData\Local\Temp\cc5wRCGd.s:1528   .text.netconn_write_partly:000000000000000c .L0 
C:\Users\stapi\AppData\Local\Temp\cc5wRCGd.s:1530   .text.netconn_write_partly:000000000000000e .L0 
C:\Users\stapi\AppData\Local\Temp\cc5wRCGd.s:1531   .text.netconn_write_partly:000000000000000e .L0 
C:\Users\stapi\AppData\Local\Temp\cc5wRCGd.s:1538   .text.netconn_write_partly:000000000000001a .L0 
C:\Users\stapi\AppData\Local\Temp\cc5wRCGd.s:1539   .text.netconn_write_partly:000000000000001c .L0 
C:\Users\stapi\AppData\Local\Temp\cc5wRCGd.s:1541   .text.netconn_write_partly:0000000000000024 .L0 
C:\Users\stapi\AppData\Local\Temp\cc5wRCGd.s:1542   .text.netconn_write_partly:0000000000000024 .L0 
C:\Users\stapi\AppData\Local\Temp\cc5wRCGd.s:1543   .text.netconn_write_partly:0000000000000024 .L0 
C:\Users\stapi\AppData\Local\Temp\cc5wRCGd.s:1550   .text.netconn_close:0000000000000000 netconn_close
C:\Users\stapi\AppData\Local\Temp\cc5wRCGd.s:1553   .text.netconn_close:0000000000000000 .L0 
C:\Users\stapi\AppData\Local\Temp\cc5wRCGd.s:1555   .text.netconn_close:0000000000000000 .L0 
C:\Users\stapi\AppData\Local\Temp\cc5wRCGd.s:1556   .text.netconn_close:0000000000000000 .L0 
C:\Users\stapi\AppData\Local\Temp\cc5wRCGd.s:1557   .text.netconn_close:0000000000000000 .L0 
C:\Users\stapi\AppData\Local\Temp\cc5wRCGd.s:1560   .text.netconn_close:000000000000000a .L0 
C:\Users\stapi\AppData\Local\Temp\cc5wRCGd.s:1567   .text.netconn_err:0000000000000000 netconn_err
C:\Users\stapi\AppData\Local\Temp\cc5wRCGd.s:1570   .text.netconn_err:0000000000000000 .L0 
C:\Users\stapi\AppData\Local\Temp\cc5wRCGd.s:1572   .text.netconn_err:0000000000000000 .L0 
C:\Users\stapi\AppData\Local\Temp\cc5wRCGd.s:1573   .text.netconn_err:0000000000000000 .L0 
C:\Users\stapi\AppData\Local\Temp\cc5wRCGd.s:1574   .text.netconn_err:0000000000000000 .L0 
C:\Users\stapi\AppData\Local\Temp\cc5wRCGd.s:1575   .text.netconn_err:0000000000000000 .L0 
C:\Users\stapi\AppData\Local\Temp\cc5wRCGd.s:1576   .text.netconn_err:0000000000000000 .L0 
C:\Users\stapi\AppData\Local\Temp\cc5wRCGd.s:1578   .text.netconn_err:0000000000000002 .L0 
C:\Users\stapi\AppData\Local\Temp\cc5wRCGd.s:1579   .text.netconn_err:000000000000000a .L0 
C:\Users\stapi\AppData\Local\Temp\cc5wRCGd.s:1580   .text.netconn_err:000000000000000a .L0 
C:\Users\stapi\AppData\Local\Temp\cc5wRCGd.s:1581   .text.netconn_err:000000000000000a .L0 
C:\Users\stapi\AppData\Local\Temp\cc5wRCGd.s:1583   .text.netconn_err:000000000000000c .L0 
C:\Users\stapi\AppData\Local\Temp\cc5wRCGd.s:1589   .text.netconn_err:000000000000000e .L0 
C:\Users\stapi\AppData\Local\Temp\cc5wRCGd.s:1592   .text.netconn_err:0000000000000016 .L0 
C:\Users\stapi\AppData\Local\Temp\cc5wRCGd.s:1593   .text.netconn_err:0000000000000016 .L0 
C:\Users\stapi\AppData\Local\Temp\cc5wRCGd.s:1595   .text.netconn_err:000000000000001a .L0 
C:\Users\stapi\AppData\Local\Temp\cc5wRCGd.s:1597   .text.netconn_err:000000000000001e .L0 
C:\Users\stapi\AppData\Local\Temp\cc5wRCGd.s:1600   .text.netconn_err:0000000000000020 .L0 
C:\Users\stapi\AppData\Local\Temp\cc5wRCGd.s:1601   .text.netconn_err:0000000000000020 .L0 
C:\Users\stapi\AppData\Local\Temp\cc5wRCGd.s:1604   .text.netconn_err:0000000000000028 .L0 
C:\Users\stapi\AppData\Local\Temp\cc5wRCGd.s:1608   .text.netconn_err:000000000000002a .L0 
C:\Users\stapi\AppData\Local\Temp\cc5wRCGd.s:1609   .text.netconn_err:000000000000002c .L0 
C:\Users\stapi\AppData\Local\Temp\cc5wRCGd.s:1611   .text.netconn_err:0000000000000034 .L0 
C:\Users\stapi\AppData\Local\Temp\cc5wRCGd.s:1612   .text.netconn_err:0000000000000034 .L0 
C:\Users\stapi\AppData\Local\Temp\cc5wRCGd.s:1613   .text.netconn_err:0000000000000034 .L0 
C:\Users\stapi\AppData\Local\Temp\cc5wRCGd.s:1616   .text.netconn_err:0000000000000034 .L0 
C:\Users\stapi\AppData\Local\Temp\cc5wRCGd.s:1618   .text.netconn_err:0000000000000034 .L0 
C:\Users\stapi\AppData\Local\Temp\cc5wRCGd.s:1621   .text.netconn_err:0000000000000036 .L0 
C:\Users\stapi\AppData\Local\Temp\cc5wRCGd.s:1622   .text.netconn_err:0000000000000038 .L0 
C:\Users\stapi\AppData\Local\Temp\cc5wRCGd.s:1636   .text.netconn_accept:0000000000000000 netconn_accept
C:\Users\stapi\AppData\Local\Temp\cc5wRCGd.s:1639   .text.netconn_accept:0000000000000000 .L0 
C:\Users\stapi\AppData\Local\Temp\cc5wRCGd.s:1641   .text.netconn_accept:0000000000000000 .L0 
C:\Users\stapi\AppData\Local\Temp\cc5wRCGd.s:1642   .text.netconn_accept:0000000000000008 .L0 
C:\Users\stapi\AppData\Local\Temp\cc5wRCGd.s:1643   .text.netconn_accept:0000000000000008 .L0 
C:\Users\stapi\AppData\Local\Temp\cc5wRCGd.s:1644   .text.netconn_accept:0000000000000008 .L0 
C:\Users\stapi\AppData\Local\Temp\cc5wRCGd.s:1645   .text.netconn_accept:0000000000000008 .L0 
C:\Users\stapi\AppData\Local\Temp\cc5wRCGd.s:1646   .text.netconn_accept:0000000000000008 .L0 
C:\Users\stapi\AppData\Local\Temp\cc5wRCGd.s:1648   .text.netconn_accept:0000000000000008 .L0 
C:\Users\stapi\AppData\Local\Temp\cc5wRCGd.s:1649   .text.netconn_accept:0000000000000008 .L0 
C:\Users\stapi\AppData\Local\Temp\cc5wRCGd.s:1650   .text.netconn_accept:0000000000000008 .L0 
C:\Users\stapi\AppData\Local\Temp\cc5wRCGd.s:1651   .text.netconn_accept:0000000000000008 .L0 
C:\Users\stapi\AppData\Local\Temp\cc5wRCGd.s:1652   .text.netconn_accept:0000000000000008 .L0 
C:\Users\stapi\AppData\Local\Temp\cc5wRCGd.s:1653   .text.netconn_accept:0000000000000008 .L0 
C:\Users\stapi\AppData\Local\Temp\cc5wRCGd.s:1654   .text.netconn_accept:000000000000000a .L0 
C:\Users\stapi\AppData\Local\Temp\cc5wRCGd.s:1656   .text.netconn_accept:000000000000000a .L0 
C:\Users\stapi\AppData\Local\Temp\cc5wRCGd.s:1658   .text.netconn_accept:000000000000000c .L0 
C:\Users\stapi\AppData\Local\Temp\cc5wRCGd.s:1659   .text.netconn_accept:000000000000000c .L0 
C:\Users\stapi\AppData\Local\Temp\cc5wRCGd.s:1672   .text.netconn_accept:0000000000000030 .L0 
C:\Users\stapi\AppData\Local\Temp\cc5wRCGd.s:1673   .text.netconn_accept:0000000000000030 .L0 
C:\Users\stapi\AppData\Local\Temp\cc5wRCGd.s:1674   .text.netconn_accept:0000000000000030 .L0 
C:\Users\stapi\AppData\Local\Temp\cc5wRCGd.s:1678   .text.netconn_accept:0000000000000032 .L0 
C:\Users\stapi\AppData\Local\Temp\cc5wRCGd.s:1682   .text.netconn_accept:000000000000003a .L0 
C:\Users\stapi\AppData\Local\Temp\cc5wRCGd.s:1683   .text.netconn_accept:000000000000003a .L0 
C:\Users\stapi\AppData\Local\Temp\cc5wRCGd.s:1684   .text.netconn_accept:000000000000003a .L0 
C:\Users\stapi\AppData\Local\Temp\cc5wRCGd.s:1685   .text.netconn_accept:000000000000003a .L0 
C:\Users\stapi\AppData\Local\Temp\cc5wRCGd.s:1686   .text.netconn_accept:000000000000003a .L0 
C:\Users\stapi\AppData\Local\Temp\cc5wRCGd.s:1689   .text.netconn_accept:000000000000003c .L0 
C:\Users\stapi\AppData\Local\Temp\cc5wRCGd.s:1690   .text.netconn_accept:000000000000003c .L0 
C:\Users\stapi\AppData\Local\Temp\cc5wRCGd.s:1702   .text.netconn_accept:0000000000000060 .L0 
C:\Users\stapi\AppData\Local\Temp\cc5wRCGd.s:1703   .text.netconn_accept:0000000000000060 .L0 
C:\Users\stapi\AppData\Local\Temp\cc5wRCGd.s:1704   .text.netconn_accept:0000000000000060 .L0 
C:\Users\stapi\AppData\Local\Temp\cc5wRCGd.s:1708   .text.netconn_accept:0000000000000062 .L0 
C:\Users\stapi\AppData\Local\Temp\cc5wRCGd.s:1709   .text.netconn_accept:0000000000000062 .L0 
C:\Users\stapi\AppData\Local\Temp\cc5wRCGd.s:1710   .text.netconn_accept:0000000000000062 .L0 
C:\Users\stapi\AppData\Local\Temp\cc5wRCGd.s:1711   .text.netconn_accept:0000000000000062 .L0 
C:\Users\stapi\AppData\Local\Temp\cc5wRCGd.s:1714   .text.netconn_accept:000000000000006a .L0 
C:\Users\stapi\AppData\Local\Temp\cc5wRCGd.s:1716   .text.netconn_accept:000000000000006e .L0 
C:\Users\stapi\AppData\Local\Temp\cc5wRCGd.s:1717   .text.netconn_accept:000000000000006e .L0 
C:\Users\stapi\AppData\Local\Temp\cc5wRCGd.s:1719   .text.netconn_accept:0000000000000070 .L0 
C:\Users\stapi\AppData\Local\Temp\cc5wRCGd.s:1721   .text.netconn_accept:0000000000000072 .L0 
C:\Users\stapi\AppData\Local\Temp\cc5wRCGd.s:1722   .text.netconn_accept:0000000000000072 .L0 
C:\Users\stapi\AppData\Local\Temp\cc5wRCGd.s:1726   .text.netconn_accept:0000000000000076 .L0 
C:\Users\stapi\AppData\Local\Temp\cc5wRCGd.s:1729   .text.netconn_accept:0000000000000078 .L0 
C:\Users\stapi\AppData\Local\Temp\cc5wRCGd.s:1731   .text.netconn_accept:000000000000007c .L0 
C:\Users\stapi\AppData\Local\Temp\cc5wRCGd.s:1732   .text.netconn_accept:000000000000007c .L0 
C:\Users\stapi\AppData\Local\Temp\cc5wRCGd.s:1734   .text.netconn_accept:0000000000000084 .L0 
C:\Users\stapi\AppData\Local\Temp\cc5wRCGd.s:1735   .text.netconn_accept:0000000000000084 .L0 
C:\Users\stapi\AppData\Local\Temp\cc5wRCGd.s:1736   .text.netconn_accept:0000000000000084 .L0 
C:\Users\stapi\AppData\Local\Temp\cc5wRCGd.s:1737   .text.netconn_accept:0000000000000084 .L0 
C:\Users\stapi\AppData\Local\Temp\cc5wRCGd.s:1738   .text.netconn_accept:0000000000000084 .L0 
C:\Users\stapi\AppData\Local\Temp\cc5wRCGd.s:1740   .text.netconn_accept:0000000000000084 .L0 
C:\Users\stapi\AppData\Local\Temp\cc5wRCGd.s:1742   .text.netconn_accept:0000000000000084 .L0 
C:\Users\stapi\AppData\Local\Temp\cc5wRCGd.s:1744   .text.netconn_accept:0000000000000088 .L0 
C:\Users\stapi\AppData\Local\Temp\cc5wRCGd.s:1747   .text.netconn_accept:000000000000008e .L0 
C:\Users\stapi\AppData\Local\Temp\cc5wRCGd.s:1748   .text.netconn_accept:000000000000008e .L0 
C:\Users\stapi\AppData\Local\Temp\cc5wRCGd.s:1749   .text.netconn_accept:000000000000008e .L0 
C:\Users\stapi\AppData\Local\Temp\cc5wRCGd.s:1750   .text.netconn_accept:000000000000008e .L0 
C:\Users\stapi\AppData\Local\Temp\cc5wRCGd.s:1752   .text.netconn_accept:0000000000000090 .L0 
C:\Users\stapi\AppData\Local\Temp\cc5wRCGd.s:1754   .text.netconn_accept:0000000000000094 .L0 
C:\Users\stapi\AppData\Local\Temp\cc5wRCGd.s:1756   .text.netconn_accept:0000000000000096 .L0 
C:\Users\stapi\AppData\Local\Temp\cc5wRCGd.s:1757   .text.netconn_accept:0000000000000096 .L0 
C:\Users\stapi\AppData\Local\Temp\cc5wRCGd.s:1761   .text.netconn_accept:00000000000000a0 .L0 
C:\Users\stapi\AppData\Local\Temp\cc5wRCGd.s:1765   .text.netconn_accept:00000000000000a6 .L0 
C:\Users\stapi\AppData\Local\Temp\cc5wRCGd.s:1766   .text.netconn_accept:00000000000000a6 .L0 
C:\Users\stapi\AppData\Local\Temp\cc5wRCGd.s:1770   .text.netconn_accept:00000000000000aa .L0 
C:\Users\stapi\AppData\Local\Temp\cc5wRCGd.s:1771   .text.netconn_accept:00000000000000aa .L0 
C:\Users\stapi\AppData\Local\Temp\cc5wRCGd.s:1772   .text.netconn_accept:00000000000000aa .L0 
C:\Users\stapi\AppData\Local\Temp\cc5wRCGd.s:1777   .text.netconn_accept:00000000000000b8 .L0 
C:\Users\stapi\AppData\Local\Temp\cc5wRCGd.s:1779   .text.netconn_accept:00000000000000ba .L0 
C:\Users\stapi\AppData\Local\Temp\cc5wRCGd.s:1780   .text.netconn_accept:00000000000000ba .L0 
C:\Users\stapi\AppData\Local\Temp\cc5wRCGd.s:1781   .text.netconn_accept:00000000000000ba .L0 
C:\Users\stapi\AppData\Local\Temp\cc5wRCGd.s:1785   .text.netconn_accept:00000000000000c0 .L0 
C:\Users\stapi\AppData\Local\Temp\cc5wRCGd.s:1786   .text.netconn_accept:00000000000000c0 .L0 
C:\Users\stapi\AppData\Local\Temp\cc5wRCGd.s:1791   .text.netconn_accept:00000000000000cc .L0 
C:\Users\stapi\AppData\Local\Temp\cc5wRCGd.s:1794   .text.netconn_accept:00000000000000d2 .L0 
C:\Users\stapi\AppData\Local\Temp\cc5wRCGd.s:1798   .text.netconn_accept:00000000000000d6 .L0 
C:\Users\stapi\AppData\Local\Temp\cc5wRCGd.s:1806   .text.netconn_accept:00000000000000e0 .L0 
C:\Users\stapi\AppData\Local\Temp\cc5wRCGd.s:1807   .text.netconn_accept:00000000000000e0 .L0 
C:\Users\stapi\AppData\Local\Temp\cc5wRCGd.s:1809   .text.netconn_accept:00000000000000e2 .L0 
C:\Users\stapi\AppData\Local\Temp\cc5wRCGd.s:1812   .text.netconn_accept:00000000000000e4 .L0 
C:\Users\stapi\AppData\Local\Temp\cc5wRCGd.s:1813   .text.netconn_accept:00000000000000e4 .L0 
C:\Users\stapi\AppData\Local\Temp\cc5wRCGd.s:1814   .text.netconn_accept:00000000000000e4 .L0 
C:\Users\stapi\AppData\Local\Temp\cc5wRCGd.s:1816   .text.netconn_accept:00000000000000e8 .L0 
C:\Users\stapi\AppData\Local\Temp\cc5wRCGd.s:1817   .text.netconn_accept:00000000000000e8 .L0 
C:\Users\stapi\AppData\Local\Temp\cc5wRCGd.s:1821   .text.netconn_accept:00000000000000ea .L0 
C:\Users\stapi\AppData\Local\Temp\cc5wRCGd.s:1823   .text.netconn_accept:00000000000000ee .L0 
C:\Users\stapi\AppData\Local\Temp\cc5wRCGd.s:1839   .text.netconn_recv_data:0000000000000000 netconn_recv_data
C:\Users\stapi\AppData\Local\Temp\cc5wRCGd.s:1842   .text.netconn_recv_data:0000000000000000 .L0 
C:\Users\stapi\AppData\Local\Temp\cc5wRCGd.s:1844   .text.netconn_recv_data:0000000000000000 .L0 
C:\Users\stapi\AppData\Local\Temp\cc5wRCGd.s:1845   .text.netconn_recv_data:0000000000000008 .L0 
C:\Users\stapi\AppData\Local\Temp\cc5wRCGd.s:1846   .text.netconn_recv_data:0000000000000008 .L0 
C:\Users\stapi\AppData\Local\Temp\cc5wRCGd.s:1847   .text.netconn_recv_data:0000000000000008 .L0 
C:\Users\stapi\AppData\Local\Temp\cc5wRCGd.s:1848   .text.netconn_recv_data:0000000000000008 .L0 
C:\Users\stapi\AppData\Local\Temp\cc5wRCGd.s:1850   .text.netconn_recv_data:0000000000000008 .L0 
C:\Users\stapi\AppData\Local\Temp\cc5wRCGd.s:1851   .text.netconn_recv_data:0000000000000008 .L0 
C:\Users\stapi\AppData\Local\Temp\cc5wRCGd.s:1852   .text.netconn_recv_data:000000000000000a .L0 
C:\Users\stapi\AppData\Local\Temp\cc5wRCGd.s:1854   .text.netconn_recv_data:000000000000000a .L0 
C:\Users\stapi\AppData\Local\Temp\cc5wRCGd.s:1856   .text.netconn_recv_data:000000000000000c .L0 
C:\Users\stapi\AppData\Local\Temp\cc5wRCGd.s:1857   .text.netconn_recv_data:000000000000000c .L0 
C:\Users\stapi\AppData\Local\Temp\cc5wRCGd.s:1858   .text.netconn_recv_data:000000000000000c .L0 
C:\Users\stapi\AppData\Local\Temp\cc5wRCGd.s:1860   .text.netconn_recv_data:000000000000000e .L0 
C:\Users\stapi\AppData\Local\Temp\cc5wRCGd.s:1861   .text.netconn_recv_data:000000000000000e .L0 
C:\Users\stapi\AppData\Local\Temp\cc5wRCGd.s:1875   .text.netconn_recv_data:0000000000000032 .L0 
C:\Users\stapi\AppData\Local\Temp\cc5wRCGd.s:1876   .text.netconn_recv_data:0000000000000032 .L0 
C:\Users\stapi\AppData\Local\Temp\cc5wRCGd.s:1877   .text.netconn_recv_data:0000000000000032 .L0 
C:\Users\stapi\AppData\Local\Temp\cc5wRCGd.s:1881   .text.netconn_recv_data:0000000000000034 .L0 
C:\Users\stapi\AppData\Local\Temp\cc5wRCGd.s:1885   .text.netconn_recv_data:000000000000003c .L0 
C:\Users\stapi\AppData\Local\Temp\cc5wRCGd.s:1886   .text.netconn_recv_data:000000000000003c .L0 
C:\Users\stapi\AppData\Local\Temp\cc5wRCGd.s:1887   .text.netconn_recv_data:000000000000003c .L0 
C:\Users\stapi\AppData\Local\Temp\cc5wRCGd.s:1888   .text.netconn_recv_data:000000000000003c .L0 
C:\Users\stapi\AppData\Local\Temp\cc5wRCGd.s:1889   .text.netconn_recv_data:000000000000003c .L0 
C:\Users\stapi\AppData\Local\Temp\cc5wRCGd.s:1892   .text.netconn_recv_data:000000000000003e .L0 
C:\Users\stapi\AppData\Local\Temp\cc5wRCGd.s:1893   .text.netconn_recv_data:000000000000003e .L0 
C:\Users\stapi\AppData\Local\Temp\cc5wRCGd.s:1905   .text.netconn_recv_data:0000000000000062 .L0 
C:\Users\stapi\AppData\Local\Temp\cc5wRCGd.s:1906   .text.netconn_recv_data:0000000000000062 .L0 
C:\Users\stapi\AppData\Local\Temp\cc5wRCGd.s:1907   .text.netconn_recv_data:0000000000000062 .L0 
C:\Users\stapi\AppData\Local\Temp\cc5wRCGd.s:1911   .text.netconn_recv_data:0000000000000064 .L0 
C:\Users\stapi\AppData\Local\Temp\cc5wRCGd.s:1912   .text.netconn_recv_data:0000000000000064 .L0 
C:\Users\stapi\AppData\Local\Temp\cc5wRCGd.s:1913   .text.netconn_recv_data:0000000000000064 .L0 
C:\Users\stapi\AppData\Local\Temp\cc5wRCGd.s:1914   .text.netconn_recv_data:0000000000000064 .L0 
C:\Users\stapi\AppData\Local\Temp\cc5wRCGd.s:1918   .text.netconn_recv_data:0000000000000068 .L0 
C:\Users\stapi\AppData\Local\Temp\cc5wRCGd.s:1919   .text.netconn_recv_data:0000000000000068 .L0 
C:\Users\stapi\AppData\Local\Temp\cc5wRCGd.s:1922   .text.netconn_recv_data:0000000000000070 .L0 
C:\Users\stapi\AppData\Local\Temp\cc5wRCGd.s:1923   .text.netconn_recv_data:0000000000000070 .L0 
C:\Users\stapi\AppData\Local\Temp\cc5wRCGd.s:1927   .text.netconn_recv_data:0000000000000072 .L0 
C:\Users\stapi\AppData\Local\Temp\cc5wRCGd.s:1931   .text.netconn_recv_data:0000000000000074 .L0 
C:\Users\stapi\AppData\Local\Temp\cc5wRCGd.s:1932   .text.netconn_recv_data:0000000000000076 .L0 
C:\Users\stapi\AppData\Local\Temp\cc5wRCGd.s:1933   .text.netconn_recv_data:0000000000000076 .L0 
C:\Users\stapi\AppData\Local\Temp\cc5wRCGd.s:1935   .text.netconn_recv_data:000000000000007e .L0 
C:\Users\stapi\AppData\Local\Temp\cc5wRCGd.s:1936   .text.netconn_recv_data:000000000000007e .L0 
C:\Users\stapi\AppData\Local\Temp\cc5wRCGd.s:1937   .text.netconn_recv_data:000000000000007e .L0 
C:\Users\stapi\AppData\Local\Temp\cc5wRCGd.s:1938   .text.netconn_recv_data:000000000000007e .L0 
C:\Users\stapi\AppData\Local\Temp\cc5wRCGd.s:1941   .text.netconn_recv_data:000000000000007e .L0 
C:\Users\stapi\AppData\Local\Temp\cc5wRCGd.s:1943   .text.netconn_recv_data:000000000000007e .L0 
C:\Users\stapi\AppData\Local\Temp\cc5wRCGd.s:1944   .text.netconn_recv_data:000000000000007e .L0 
C:\Users\stapi\AppData\Local\Temp\cc5wRCGd.s:1945   .text.netconn_recv_data:000000000000007e .L0 
C:\Users\stapi\AppData\Local\Temp\cc5wRCGd.s:1949   .text.netconn_recv_data:0000000000000084 .L0 
C:\Users\stapi\AppData\Local\Temp\cc5wRCGd.s:1951   .text.netconn_recv_data:0000000000000086 .L0 
C:\Users\stapi\AppData\Local\Temp\cc5wRCGd.s:1955   .text.netconn_recv_data:000000000000008c .L0 
C:\Users\stapi\AppData\Local\Temp\cc5wRCGd.s:1959   .text.netconn_recv_data:0000000000000092 .L0 
C:\Users\stapi\AppData\Local\Temp\cc5wRCGd.s:1960   .text.netconn_recv_data:0000000000000092 .L0 
C:\Users\stapi\AppData\Local\Temp\cc5wRCGd.s:1964   .text.netconn_recv_data:000000000000009c .L0 
C:\Users\stapi\AppData\Local\Temp\cc5wRCGd.s:1968   .text.netconn_recv_data:00000000000000a2 .L0 
C:\Users\stapi\AppData\Local\Temp\cc5wRCGd.s:1969   .text.netconn_recv_data:00000000000000a2 .L0 
C:\Users\stapi\AppData\Local\Temp\cc5wRCGd.s:1970   .text.netconn_recv_data:00000000000000a2 .L0 
C:\Users\stapi\AppData\Local\Temp\cc5wRCGd.s:1972   .text.netconn_recv_data:00000000000000a4 .L0 
C:\Users\stapi\AppData\Local\Temp\cc5wRCGd.s:1975   .text.netconn_recv_data:00000000000000a6 .L0 
C:\Users\stapi\AppData\Local\Temp\cc5wRCGd.s:1978   .text.netconn_recv_data:00000000000000a8 .L0 
C:\Users\stapi\AppData\Local\Temp\cc5wRCGd.s:1980   .text.netconn_recv_data:00000000000000ac .L0 
C:\Users\stapi\AppData\Local\Temp\cc5wRCGd.s:1983   .text.netconn_recv_data:00000000000000b0 .L0 
C:\Users\stapi\AppData\Local\Temp\cc5wRCGd.s:1984   .text.netconn_recv_data:00000000000000b0 .L0 
C:\Users\stapi\AppData\Local\Temp\cc5wRCGd.s:1985   .text.netconn_recv_data:00000000000000b0 .L0 
C:\Users\stapi\AppData\Local\Temp\cc5wRCGd.s:1989   .text.netconn_recv_data:00000000000000bc .L0 
C:\Users\stapi\AppData\Local\Temp\cc5wRCGd.s:1991   .text.netconn_recv_data:00000000000000be .L0 
C:\Users\stapi\AppData\Local\Temp\cc5wRCGd.s:1992   .text.netconn_recv_data:00000000000000be .L0 
C:\Users\stapi\AppData\Local\Temp\cc5wRCGd.s:1994   .text.netconn_recv_data:00000000000000c0 .L0 
C:\Users\stapi\AppData\Local\Temp\cc5wRCGd.s:1996   .text.netconn_recv_data:00000000000000c4 .L0 
C:\Users\stapi\AppData\Local\Temp\cc5wRCGd.s:2000   .text.netconn_recv_data:00000000000000c8 .L0 
C:\Users\stapi\AppData\Local\Temp\cc5wRCGd.s:2001   .text.netconn_recv_data:00000000000000c8 .L0 
C:\Users\stapi\AppData\Local\Temp\cc5wRCGd.s:2006   .text.netconn_recv_data:00000000000000cc .L0 
C:\Users\stapi\AppData\Local\Temp\cc5wRCGd.s:2007   .text.netconn_recv_data:00000000000000cc .L0 
C:\Users\stapi\AppData\Local\Temp\cc5wRCGd.s:2008   .text.netconn_recv_data:00000000000000cc .L0 
C:\Users\stapi\AppData\Local\Temp\cc5wRCGd.s:2009   .text.netconn_recv_data:00000000000000cc .L0 
C:\Users\stapi\AppData\Local\Temp\cc5wRCGd.s:2013   .text.netconn_recv_data:00000000000000d6 .L0 
C:\Users\stapi\AppData\Local\Temp\cc5wRCGd.s:2014   .text.netconn_recv_data:00000000000000d6 .L0 
C:\Users\stapi\AppData\Local\Temp\cc5wRCGd.s:2016   .text.netconn_recv_data:00000000000000d8 .L0 
C:\Users\stapi\AppData\Local\Temp\cc5wRCGd.s:2017   .text.netconn_recv_data:00000000000000d8 .L0 
C:\Users\stapi\AppData\Local\Temp\cc5wRCGd.s:2019   .text.netconn_recv_data:00000000000000dc .L0 
C:\Users\stapi\AppData\Local\Temp\cc5wRCGd.s:2022   .text.netconn_recv_data:00000000000000de .L0 
C:\Users\stapi\AppData\Local\Temp\cc5wRCGd.s:2028   .text.netconn_recv_data:00000000000000e4 .L0 
C:\Users\stapi\AppData\Local\Temp\cc5wRCGd.s:2029   .text.netconn_recv_data:00000000000000e4 .L0 
C:\Users\stapi\AppData\Local\Temp\cc5wRCGd.s:2034   .text.netconn_recv_data:00000000000000f0 .L0 
C:\Users\stapi\AppData\Local\Temp\cc5wRCGd.s:2037   .text.netconn_recv_data:00000000000000f6 .L0 
C:\Users\stapi\AppData\Local\Temp\cc5wRCGd.s:2042   .text.netconn_recv_data:00000000000000fa .L0 
C:\Users\stapi\AppData\Local\Temp\cc5wRCGd.s:2043   .text.netconn_recv_data:00000000000000fa .L0 
C:\Users\stapi\AppData\Local\Temp\cc5wRCGd.s:2047   .text.netconn_recv_data:00000000000000fc .L0 
C:\Users\stapi\AppData\Local\Temp\cc5wRCGd.s:2050   .text.netconn_recv_data:0000000000000100 .L0 
C:\Users\stapi\AppData\Local\Temp\cc5wRCGd.s:2053   .text.netconn_recv_data:0000000000000104 .L0 
C:\Users\stapi\AppData\Local\Temp\cc5wRCGd.s:2059   .text.netconn_recv_data:000000000000010a .L0 
C:\Users\stapi\AppData\Local\Temp\cc5wRCGd.s:2060   .text.netconn_recv_data:000000000000010a .L0 
C:\Users\stapi\AppData\Local\Temp\cc5wRCGd.s:2061   .text.netconn_recv_data:000000000000010a .L0 
C:\Users\stapi\AppData\Local\Temp\cc5wRCGd.s:2062   .text.netconn_recv_data:000000000000010a .L0 
C:\Users\stapi\AppData\Local\Temp\cc5wRCGd.s:2067   .text.netconn_recv_data:0000000000000110 .L0 
C:\Users\stapi\AppData\Local\Temp\cc5wRCGd.s:2068   .text.netconn_recv_data:0000000000000110 .L0 
C:\Users\stapi\AppData\Local\Temp\cc5wRCGd.s:2070   .text.netconn_recv_data:0000000000000112 .L0 
C:\Users\stapi\AppData\Local\Temp\cc5wRCGd.s:2071   .text.netconn_recv_data:0000000000000112 .L0 
C:\Users\stapi\AppData\Local\Temp\cc5wRCGd.s:2082   .text.netconn_recv_data:0000000000000136 .L0 
C:\Users\stapi\AppData\Local\Temp\cc5wRCGd.s:2083   .text.netconn_recv_data:0000000000000136 .L0 
C:\Users\stapi\AppData\Local\Temp\cc5wRCGd.s:2084   .text.netconn_recv_data:0000000000000136 .L0 
C:\Users\stapi\AppData\Local\Temp\cc5wRCGd.s:2087   .text.netconn_recv_data:0000000000000138 .L0 
C:\Users\stapi\AppData\Local\Temp\cc5wRCGd.s:2088   .text.netconn_recv_data:0000000000000138 .L0 
C:\Users\stapi\AppData\Local\Temp\cc5wRCGd.s:2089   .text.netconn_recv_data:0000000000000138 .L0 
C:\Users\stapi\AppData\Local\Temp\cc5wRCGd.s:2090   .text.netconn_recv_data:0000000000000138 .L0 
C:\Users\stapi\AppData\Local\Temp\cc5wRCGd.s:2092   .text.netconn_recv_data:000000000000013c .L0 
C:\Users\stapi\AppData\Local\Temp\cc5wRCGd.s:2103   .text.netconn_recv_udp_raw_netbuf:0000000000000000 netconn_recv_udp_raw_netbuf
C:\Users\stapi\AppData\Local\Temp\cc5wRCGd.s:2106   .text.netconn_recv_udp_raw_netbuf:0000000000000000 .L0 
C:\Users\stapi\AppData\Local\Temp\cc5wRCGd.s:2108   .text.netconn_recv_udp_raw_netbuf:0000000000000000 .L0 
C:\Users\stapi\AppData\Local\Temp\cc5wRCGd.s:2109   .text.netconn_recv_udp_raw_netbuf:0000000000000008 .L0 
C:\Users\stapi\AppData\Local\Temp\cc5wRCGd.s:2110   .text.netconn_recv_udp_raw_netbuf:0000000000000008 .L0 
C:\Users\stapi\AppData\Local\Temp\cc5wRCGd.s:2112   .text.netconn_recv_udp_raw_netbuf:0000000000000008 .L0 
C:\Users\stapi\AppData\Local\Temp\cc5wRCGd.s:2113   .text.netconn_recv_udp_raw_netbuf:0000000000000008 .L0 
C:\Users\stapi\AppData\Local\Temp\cc5wRCGd.s:2115   .text.netconn_recv_udp_raw_netbuf:000000000000000a .L0 
C:\Users\stapi\AppData\Local\Temp\cc5wRCGd.s:2121   .text.netconn_recv_udp_raw_netbuf:0000000000000016 .L0 
C:\Users\stapi\AppData\Local\Temp\cc5wRCGd.s:2122   .text.netconn_recv_udp_raw_netbuf:0000000000000016 .L0 
C:\Users\stapi\AppData\Local\Temp\cc5wRCGd.s:2135   .text.netconn_recv_udp_raw_netbuf:000000000000003a .L0 
C:\Users\stapi\AppData\Local\Temp\cc5wRCGd.s:2136   .text.netconn_recv_udp_raw_netbuf:000000000000003a .L0 
C:\Users\stapi\AppData\Local\Temp\cc5wRCGd.s:2137   .text.netconn_recv_udp_raw_netbuf:000000000000003a .L0 
C:\Users\stapi\AppData\Local\Temp\cc5wRCGd.s:2141   .text.netconn_recv_udp_raw_netbuf:000000000000003c .L0 
C:\Users\stapi\AppData\Local\Temp\cc5wRCGd.s:2142   .text.netconn_recv_udp_raw_netbuf:000000000000003c .L0 
C:\Users\stapi\AppData\Local\Temp\cc5wRCGd.s:2143   .text.netconn_recv_udp_raw_netbuf:000000000000003c .L0 
C:\Users\stapi\AppData\Local\Temp\cc5wRCGd.s:2144   .text.netconn_recv_udp_raw_netbuf:000000000000003c .L0 
C:\Users\stapi\AppData\Local\Temp\cc5wRCGd.s:2148   .text.netconn_recv_udp_raw_netbuf:0000000000000046 .L0 
C:\Users\stapi\AppData\Local\Temp\cc5wRCGd.s:2149   .text.netconn_recv_udp_raw_netbuf:000000000000004e .L0 
C:\Users\stapi\AppData\Local\Temp\cc5wRCGd.s:2150   .text.netconn_recv_udp_raw_netbuf:000000000000004e .L0 
C:\Users\stapi\AppData\Local\Temp\cc5wRCGd.s:2151   .text.netconn_recv_udp_raw_netbuf:000000000000004e .L0 
C:\Users\stapi\AppData\Local\Temp\cc5wRCGd.s:2158   .text.netconn_recv_udp_raw_netbuf_flags:0000000000000000 netconn_recv_udp_raw_netbuf_flags
C:\Users\stapi\AppData\Local\Temp\cc5wRCGd.s:2161   .text.netconn_recv_udp_raw_netbuf_flags:0000000000000000 .L0 
C:\Users\stapi\AppData\Local\Temp\cc5wRCGd.s:2163   .text.netconn_recv_udp_raw_netbuf_flags:0000000000000000 .L0 
C:\Users\stapi\AppData\Local\Temp\cc5wRCGd.s:2164   .text.netconn_recv_udp_raw_netbuf_flags:0000000000000008 .L0 
C:\Users\stapi\AppData\Local\Temp\cc5wRCGd.s:2165   .text.netconn_recv_udp_raw_netbuf_flags:0000000000000008 .L0 
C:\Users\stapi\AppData\Local\Temp\cc5wRCGd.s:2167   .text.netconn_recv_udp_raw_netbuf_flags:0000000000000008 .L0 
C:\Users\stapi\AppData\Local\Temp\cc5wRCGd.s:2168   .text.netconn_recv_udp_raw_netbuf_flags:0000000000000008 .L0 
C:\Users\stapi\AppData\Local\Temp\cc5wRCGd.s:2170   .text.netconn_recv_udp_raw_netbuf_flags:000000000000000a .L0 
C:\Users\stapi\AppData\Local\Temp\cc5wRCGd.s:2176   .text.netconn_recv_udp_raw_netbuf_flags:0000000000000016 .L0 
C:\Users\stapi\AppData\Local\Temp\cc5wRCGd.s:2177   .text.netconn_recv_udp_raw_netbuf_flags:0000000000000016 .L0 
C:\Users\stapi\AppData\Local\Temp\cc5wRCGd.s:2191   .text.netconn_recv_udp_raw_netbuf_flags:000000000000003a .L0 
C:\Users\stapi\AppData\Local\Temp\cc5wRCGd.s:2192   .text.netconn_recv_udp_raw_netbuf_flags:000000000000003a .L0 
C:\Users\stapi\AppData\Local\Temp\cc5wRCGd.s:2193   .text.netconn_recv_udp_raw_netbuf_flags:000000000000003a .L0 
C:\Users\stapi\AppData\Local\Temp\cc5wRCGd.s:2197   .text.netconn_recv_udp_raw_netbuf_flags:000000000000003c .L0 
C:\Users\stapi\AppData\Local\Temp\cc5wRCGd.s:2198   .text.netconn_recv_udp_raw_netbuf_flags:000000000000003c .L0 
C:\Users\stapi\AppData\Local\Temp\cc5wRCGd.s:2199   .text.netconn_recv_udp_raw_netbuf_flags:000000000000003c .L0 
C:\Users\stapi\AppData\Local\Temp\cc5wRCGd.s:2200   .text.netconn_recv_udp_raw_netbuf_flags:000000000000003c .L0 
C:\Users\stapi\AppData\Local\Temp\cc5wRCGd.s:2203   .text.netconn_recv_udp_raw_netbuf_flags:0000000000000044 .L0 
C:\Users\stapi\AppData\Local\Temp\cc5wRCGd.s:2204   .text.netconn_recv_udp_raw_netbuf_flags:000000000000004c .L0 
C:\Users\stapi\AppData\Local\Temp\cc5wRCGd.s:2205   .text.netconn_recv_udp_raw_netbuf_flags:000000000000004c .L0 
C:\Users\stapi\AppData\Local\Temp\cc5wRCGd.s:2206   .text.netconn_recv_udp_raw_netbuf_flags:000000000000004c .L0 
C:\Users\stapi\AppData\Local\Temp\cc5wRCGd.s:2212   .text.netconn_recv_data_tcp:0000000000000000 netconn_recv_data_tcp
C:\Users\stapi\AppData\Local\Temp\cc5wRCGd.s:2215   .text.netconn_recv_data_tcp:0000000000000000 .L0 
C:\Users\stapi\AppData\Local\Temp\cc5wRCGd.s:2217   .text.netconn_recv_data_tcp:0000000000000000 .L0 
C:\Users\stapi\AppData\Local\Temp\cc5wRCGd.s:2218   .text.netconn_recv_data_tcp:0000000000000008 .L0 
C:\Users\stapi\AppData\Local\Temp\cc5wRCGd.s:2219   .text.netconn_recv_data_tcp:0000000000000008 .L0 
C:\Users\stapi\AppData\Local\Temp\cc5wRCGd.s:2220   .text.netconn_recv_data_tcp:0000000000000008 .L0 
C:\Users\stapi\AppData\Local\Temp\cc5wRCGd.s:2221   .text.netconn_recv_data_tcp:0000000000000008 .L0 
C:\Users\stapi\AppData\Local\Temp\cc5wRCGd.s:2222   .text.netconn_recv_data_tcp:0000000000000008 .L0 
C:\Users\stapi\AppData\Local\Temp\cc5wRCGd.s:2223   .text.netconn_recv_data_tcp:0000000000000008 .L0 
C:\Users\stapi\AppData\Local\Temp\cc5wRCGd.s:2225   .text.netconn_recv_data_tcp:0000000000000008 .L0 
C:\Users\stapi\AppData\Local\Temp\cc5wRCGd.s:2226   .text.netconn_recv_data_tcp:0000000000000008 .L0 
C:\Users\stapi\AppData\Local\Temp\cc5wRCGd.s:2227   .text.netconn_recv_data_tcp:0000000000000008 .L0 
C:\Users\stapi\AppData\Local\Temp\cc5wRCGd.s:2228   .text.netconn_recv_data_tcp:0000000000000008 .L0 
C:\Users\stapi\AppData\Local\Temp\cc5wRCGd.s:2229   .text.netconn_recv_data_tcp:0000000000000008 .L0 
C:\Users\stapi\AppData\Local\Temp\cc5wRCGd.s:2231   .text.netconn_recv_data_tcp:000000000000000a .L0 
C:\Users\stapi\AppData\Local\Temp\cc5wRCGd.s:2232   .text.netconn_recv_data_tcp:000000000000000c .L0 
C:\Users\stapi\AppData\Local\Temp\cc5wRCGd.s:2234   .text.netconn_recv_data_tcp:000000000000000c .L0 
C:\Users\stapi\AppData\Local\Temp\cc5wRCGd.s:2236   .text.netconn_recv_data_tcp:000000000000000e .L0 
C:\Users\stapi\AppData\Local\Temp\cc5wRCGd.s:2238   .text.netconn_recv_data_tcp:0000000000000010 .L0 
C:\Users\stapi\AppData\Local\Temp\cc5wRCGd.s:2241   .text.netconn_recv_data_tcp:0000000000000016 .L0 
C:\Users\stapi\AppData\Local\Temp\cc5wRCGd.s:2242   .text.netconn_recv_data_tcp:0000000000000016 .L0 
C:\Users\stapi\AppData\Local\Temp\cc5wRCGd.s:2245   .text.netconn_recv_data_tcp:000000000000001e .L0 
C:\Users\stapi\AppData\Local\Temp\cc5wRCGd.s:2246   .text.netconn_recv_data_tcp:000000000000001e .L0 
C:\Users\stapi\AppData\Local\Temp\cc5wRCGd.s:2249   .text.netconn_recv_data_tcp:0000000000000026 .L0 
C:\Users\stapi\AppData\Local\Temp\cc5wRCGd.s:2252   .text.netconn_recv_data_tcp:0000000000000026 .L0 
C:\Users\stapi\AppData\Local\Temp\cc5wRCGd.s:2253   .text.netconn_recv_data_tcp:0000000000000026 .L0 
C:\Users\stapi\AppData\Local\Temp\cc5wRCGd.s:2256   .text.netconn_recv_data_tcp:000000000000002a .L0 
C:\Users\stapi\AppData\Local\Temp\cc5wRCGd.s:2263   .text.netconn_recv_data_tcp:0000000000000032 .L0 
C:\Users\stapi\AppData\Local\Temp\cc5wRCGd.s:2264   .text.netconn_recv_data_tcp:0000000000000032 .L0 
C:\Users\stapi\AppData\Local\Temp\cc5wRCGd.s:2265   .text.netconn_recv_data_tcp:0000000000000032 .L0 
C:\Users\stapi\AppData\Local\Temp\cc5wRCGd.s:2268   .text.netconn_recv_data_tcp:0000000000000036 .L0 
C:\Users\stapi\AppData\Local\Temp\cc5wRCGd.s:2269   .text.netconn_recv_data_tcp:0000000000000036 .L0 
C:\Users\stapi\AppData\Local\Temp\cc5wRCGd.s:2275   .text.netconn_recv_data_tcp:0000000000000042 .L0 
C:\Users\stapi\AppData\Local\Temp\cc5wRCGd.s:2276   .text.netconn_recv_data_tcp:0000000000000042 .L0 
C:\Users\stapi\AppData\Local\Temp\cc5wRCGd.s:2278   .text.netconn_recv_data_tcp:0000000000000044 .L0 
C:\Users\stapi\AppData\Local\Temp\cc5wRCGd.s:2285   .text.netconn_recv_data_tcp:000000000000004c .L0 
C:\Users\stapi\AppData\Local\Temp\cc5wRCGd.s:2286   .text.netconn_recv_data_tcp:000000000000004c .L0 
C:\Users\stapi\AppData\Local\Temp\cc5wRCGd.s:2287   .text.netconn_recv_data_tcp:000000000000004c .L0 
C:\Users\stapi\AppData\Local\Temp\cc5wRCGd.s:2288   .text.netconn_recv_data_tcp:000000000000004c .L0 
C:\Users\stapi\AppData\Local\Temp\cc5wRCGd.s:2293   .text.netconn_recv_data_tcp:0000000000000056 .L0 
C:\Users\stapi\AppData\Local\Temp\cc5wRCGd.s:2294   .text.netconn_recv_data_tcp:0000000000000056 .L0 
C:\Users\stapi\AppData\Local\Temp\cc5wRCGd.s:2296   .text.netconn_recv_data_tcp:0000000000000058 .L0 
C:\Users\stapi\AppData\Local\Temp\cc5wRCGd.s:2297   .text.netconn_recv_data_tcp:0000000000000058 .L0 
C:\Users\stapi\AppData\Local\Temp\cc5wRCGd.s:2299   .text.netconn_recv_data_tcp:000000000000005c .L0 
C:\Users\stapi\AppData\Local\Temp\cc5wRCGd.s:2302   .text.netconn_recv_data_tcp:0000000000000060 .L0 
C:\Users\stapi\AppData\Local\Temp\cc5wRCGd.s:2303   .text.netconn_recv_data_tcp:0000000000000060 .L0 
C:\Users\stapi\AppData\Local\Temp\cc5wRCGd.s:2306   .text.netconn_recv_data_tcp:0000000000000062 .L0 
C:\Users\stapi\AppData\Local\Temp\cc5wRCGd.s:2307   .text.netconn_recv_data_tcp:0000000000000062 .L0 
C:\Users\stapi\AppData\Local\Temp\cc5wRCGd.s:2310   .text.netconn_recv_data_tcp:0000000000000068 .L0 
C:\Users\stapi\AppData\Local\Temp\cc5wRCGd.s:2314   .text.netconn_recv_data_tcp:000000000000006c .L0 
C:\Users\stapi\AppData\Local\Temp\cc5wRCGd.s:2322   .text.netconn_recv_data_tcp:0000000000000078 .L0 
C:\Users\stapi\AppData\Local\Temp\cc5wRCGd.s:2323   .text.netconn_recv_data_tcp:0000000000000078 .L0 
C:\Users\stapi\AppData\Local\Temp\cc5wRCGd.s:2324   .text.netconn_recv_data_tcp:0000000000000078 .L0 
C:\Users\stapi\AppData\Local\Temp\cc5wRCGd.s:2326   .text.netconn_recv_data_tcp:000000000000007c .L0 
C:\Users\stapi\AppData\Local\Temp\cc5wRCGd.s:2327   .text.netconn_recv_data_tcp:000000000000007c .L0 
C:\Users\stapi\AppData\Local\Temp\cc5wRCGd.s:2330   .text.netconn_recv_data_tcp:0000000000000084 .L0 
C:\Users\stapi\AppData\Local\Temp\cc5wRCGd.s:2331   .text.netconn_recv_data_tcp:0000000000000084 .L0 
C:\Users\stapi\AppData\Local\Temp\cc5wRCGd.s:2333   .text.netconn_recv_data_tcp:0000000000000088 .L0 
C:\Users\stapi\AppData\Local\Temp\cc5wRCGd.s:2335   .text.netconn_recv_data_tcp:000000000000008a .L0 
C:\Users\stapi\AppData\Local\Temp\cc5wRCGd.s:2338   .text.netconn_recv_data_tcp:0000000000000092 .L0 
C:\Users\stapi\AppData\Local\Temp\cc5wRCGd.s:2341   .text.netconn_recv_data_tcp:0000000000000092 .L0 
C:\Users\stapi\AppData\Local\Temp\cc5wRCGd.s:2342   .text.netconn_recv_data_tcp:0000000000000092 .L0 
C:\Users\stapi\AppData\Local\Temp\cc5wRCGd.s:2344   .text.netconn_recv_data_tcp:0000000000000096 .L0 
C:\Users\stapi\AppData\Local\Temp\cc5wRCGd.s:2345   .text.netconn_recv_data_tcp:0000000000000096 .L0 
C:\Users\stapi\AppData\Local\Temp\cc5wRCGd.s:2347   .text.netconn_recv_data_tcp:000000000000009e .L0 
C:\Users\stapi\AppData\Local\Temp\cc5wRCGd.s:2348   .text.netconn_recv_data_tcp:000000000000009e .L0 
C:\Users\stapi\AppData\Local\Temp\cc5wRCGd.s:2349   .text.netconn_recv_data_tcp:000000000000009e .L0 
C:\Users\stapi\AppData\Local\Temp\cc5wRCGd.s:2350   .text.netconn_recv_data_tcp:000000000000009e .L0 
C:\Users\stapi\AppData\Local\Temp\cc5wRCGd.s:2351   .text.netconn_recv_data_tcp:000000000000009e .L0 
C:\Users\stapi\AppData\Local\Temp\cc5wRCGd.s:2352   .text.netconn_recv_data_tcp:000000000000009e .L0 
C:\Users\stapi\AppData\Local\Temp\cc5wRCGd.s:2355   .text.netconn_recv_data_tcp:000000000000009e .L0 
C:\Users\stapi\AppData\Local\Temp\cc5wRCGd.s:2357   .text.netconn_recv_data_tcp:000000000000009e .L0 
C:\Users\stapi\AppData\Local\Temp\cc5wRCGd.s:2362   .text.netconn_recv_data_tcp:00000000000000aa .L0 
C:\Users\stapi\AppData\Local\Temp\cc5wRCGd.s:2363   .text.netconn_recv_data_tcp:00000000000000aa .L0 
C:\Users\stapi\AppData\Local\Temp\cc5wRCGd.s:2365   .text.netconn_recv_data_tcp:00000000000000ae .L0 
C:\Users\stapi\AppData\Local\Temp\cc5wRCGd.s:2372   .text.netconn_recv_tcp_pbuf:0000000000000000 netconn_recv_tcp_pbuf
C:\Users\stapi\AppData\Local\Temp\cc5wRCGd.s:2375   .text.netconn_recv_tcp_pbuf:0000000000000000 .L0 
C:\Users\stapi\AppData\Local\Temp\cc5wRCGd.s:2377   .text.netconn_recv_tcp_pbuf:0000000000000000 .L0 
C:\Users\stapi\AppData\Local\Temp\cc5wRCGd.s:2378   .text.netconn_recv_tcp_pbuf:0000000000000008 .L0 
C:\Users\stapi\AppData\Local\Temp\cc5wRCGd.s:2379   .text.netconn_recv_tcp_pbuf:0000000000000008 .L0 
C:\Users\stapi\AppData\Local\Temp\cc5wRCGd.s:2381   .text.netconn_recv_tcp_pbuf:0000000000000008 .L0 
C:\Users\stapi\AppData\Local\Temp\cc5wRCGd.s:2382   .text.netconn_recv_tcp_pbuf:0000000000000008 .L0 
C:\Users\stapi\AppData\Local\Temp\cc5wRCGd.s:2384   .text.netconn_recv_tcp_pbuf:000000000000000a .L0 
C:\Users\stapi\AppData\Local\Temp\cc5wRCGd.s:2390   .text.netconn_recv_tcp_pbuf:0000000000000016 .L0 
C:\Users\stapi\AppData\Local\Temp\cc5wRCGd.s:2391   .text.netconn_recv_tcp_pbuf:0000000000000016 .L0 
C:\Users\stapi\AppData\Local\Temp\cc5wRCGd.s:2404   .text.netconn_recv_tcp_pbuf:000000000000003a .L0 
C:\Users\stapi\AppData\Local\Temp\cc5wRCGd.s:2405   .text.netconn_recv_tcp_pbuf:000000000000003a .L0 
C:\Users\stapi\AppData\Local\Temp\cc5wRCGd.s:2406   .text.netconn_recv_tcp_pbuf:000000000000003a .L0 
C:\Users\stapi\AppData\Local\Temp\cc5wRCGd.s:2410   .text.netconn_recv_tcp_pbuf:000000000000003c .L0 
C:\Users\stapi\AppData\Local\Temp\cc5wRCGd.s:2411   .text.netconn_recv_tcp_pbuf:000000000000003c .L0 
C:\Users\stapi\AppData\Local\Temp\cc5wRCGd.s:2412   .text.netconn_recv_tcp_pbuf:000000000000003c .L0 
C:\Users\stapi\AppData\Local\Temp\cc5wRCGd.s:2413   .text.netconn_recv_tcp_pbuf:000000000000003c .L0 
C:\Users\stapi\AppData\Local\Temp\cc5wRCGd.s:2417   .text.netconn_recv_tcp_pbuf:0000000000000046 .L0 
C:\Users\stapi\AppData\Local\Temp\cc5wRCGd.s:2418   .text.netconn_recv_tcp_pbuf:000000000000004e .L0 
C:\Users\stapi\AppData\Local\Temp\cc5wRCGd.s:2419   .text.netconn_recv_tcp_pbuf:000000000000004e .L0 
C:\Users\stapi\AppData\Local\Temp\cc5wRCGd.s:2420   .text.netconn_recv_tcp_pbuf:000000000000004e .L0 
C:\Users\stapi\AppData\Local\Temp\cc5wRCGd.s:2427   .text.netconn_recv_tcp_pbuf_flags:0000000000000000 netconn_recv_tcp_pbuf_flags
C:\Users\stapi\AppData\Local\Temp\cc5wRCGd.s:2430   .text.netconn_recv_tcp_pbuf_flags:0000000000000000 .L0 
C:\Users\stapi\AppData\Local\Temp\cc5wRCGd.s:2432   .text.netconn_recv_tcp_pbuf_flags:0000000000000000 .L0 
C:\Users\stapi\AppData\Local\Temp\cc5wRCGd.s:2433   .text.netconn_recv_tcp_pbuf_flags:0000000000000008 .L0 
C:\Users\stapi\AppData\Local\Temp\cc5wRCGd.s:2434   .text.netconn_recv_tcp_pbuf_flags:0000000000000008 .L0 
C:\Users\stapi\AppData\Local\Temp\cc5wRCGd.s:2436   .text.netconn_recv_tcp_pbuf_flags:0000000000000008 .L0 
C:\Users\stapi\AppData\Local\Temp\cc5wRCGd.s:2437   .text.netconn_recv_tcp_pbuf_flags:0000000000000008 .L0 
C:\Users\stapi\AppData\Local\Temp\cc5wRCGd.s:2439   .text.netconn_recv_tcp_pbuf_flags:000000000000000a .L0 
C:\Users\stapi\AppData\Local\Temp\cc5wRCGd.s:2445   .text.netconn_recv_tcp_pbuf_flags:0000000000000016 .L0 
C:\Users\stapi\AppData\Local\Temp\cc5wRCGd.s:2446   .text.netconn_recv_tcp_pbuf_flags:0000000000000016 .L0 
C:\Users\stapi\AppData\Local\Temp\cc5wRCGd.s:2460   .text.netconn_recv_tcp_pbuf_flags:000000000000003a .L0 
C:\Users\stapi\AppData\Local\Temp\cc5wRCGd.s:2461   .text.netconn_recv_tcp_pbuf_flags:000000000000003a .L0 
C:\Users\stapi\AppData\Local\Temp\cc5wRCGd.s:2462   .text.netconn_recv_tcp_pbuf_flags:000000000000003a .L0 
C:\Users\stapi\AppData\Local\Temp\cc5wRCGd.s:2466   .text.netconn_recv_tcp_pbuf_flags:000000000000003c .L0 
C:\Users\stapi\AppData\Local\Temp\cc5wRCGd.s:2467   .text.netconn_recv_tcp_pbuf_flags:000000000000003c .L0 
C:\Users\stapi\AppData\Local\Temp\cc5wRCGd.s:2468   .text.netconn_recv_tcp_pbuf_flags:000000000000003c .L0 
C:\Users\stapi\AppData\Local\Temp\cc5wRCGd.s:2469   .text.netconn_recv_tcp_pbuf_flags:000000000000003c .L0 
C:\Users\stapi\AppData\Local\Temp\cc5wRCGd.s:2472   .text.netconn_recv_tcp_pbuf_flags:0000000000000044 .L0 
C:\Users\stapi\AppData\Local\Temp\cc5wRCGd.s:2473   .text.netconn_recv_tcp_pbuf_flags:000000000000004c .L0 
C:\Users\stapi\AppData\Local\Temp\cc5wRCGd.s:2474   .text.netconn_recv_tcp_pbuf_flags:000000000000004c .L0 
C:\Users\stapi\AppData\Local\Temp\cc5wRCGd.s:2475   .text.netconn_recv_tcp_pbuf_flags:000000000000004c .L0 
C:\Users\stapi\AppData\Local\Temp\cc5wRCGd.s:2486   .text.netconn_recv:0000000000000000 netconn_recv
C:\Users\stapi\AppData\Local\Temp\cc5wRCGd.s:2489   .text.netconn_recv:0000000000000000 .L0 
C:\Users\stapi\AppData\Local\Temp\cc5wRCGd.s:2491   .text.netconn_recv:0000000000000000 .L0 
C:\Users\stapi\AppData\Local\Temp\cc5wRCGd.s:2492   .text.netconn_recv:0000000000000008 .L0 
C:\Users\stapi\AppData\Local\Temp\cc5wRCGd.s:2493   .text.netconn_recv:0000000000000008 .L0 
C:\Users\stapi\AppData\Local\Temp\cc5wRCGd.s:2494   .text.netconn_recv:0000000000000008 .L0 
C:\Users\stapi\AppData\Local\Temp\cc5wRCGd.s:2495   .text.netconn_recv:0000000000000008 .L0 
C:\Users\stapi\AppData\Local\Temp\cc5wRCGd.s:2496   .text.netconn_recv:0000000000000008 .L0 
C:\Users\stapi\AppData\Local\Temp\cc5wRCGd.s:2499   .text.netconn_recv:0000000000000008 .L0 
C:\Users\stapi\AppData\Local\Temp\cc5wRCGd.s:2500   .text.netconn_recv:0000000000000008 .L0 
C:\Users\stapi\AppData\Local\Temp\cc5wRCGd.s:2501   .text.netconn_recv:0000000000000008 .L0 
C:\Users\stapi\AppData\Local\Temp\cc5wRCGd.s:2502   .text.netconn_recv:0000000000000008 .L0 
C:\Users\stapi\AppData\Local\Temp\cc5wRCGd.s:2503   .text.netconn_recv:0000000000000008 .L0 
C:\Users\stapi\AppData\Local\Temp\cc5wRCGd.s:2504   .text.netconn_recv:000000000000000a .L0 
C:\Users\stapi\AppData\Local\Temp\cc5wRCGd.s:2506   .text.netconn_recv:000000000000000a .L0 
C:\Users\stapi\AppData\Local\Temp\cc5wRCGd.s:2508   .text.netconn_recv:000000000000000c .L0 
C:\Users\stapi\AppData\Local\Temp\cc5wRCGd.s:2509   .text.netconn_recv:000000000000000c .L0 
C:\Users\stapi\AppData\Local\Temp\cc5wRCGd.s:2522   .text.netconn_recv:0000000000000030 .L0 
C:\Users\stapi\AppData\Local\Temp\cc5wRCGd.s:2523   .text.netconn_recv:0000000000000030 .L0 
C:\Users\stapi\AppData\Local\Temp\cc5wRCGd.s:2524   .text.netconn_recv:0000000000000030 .L0 
C:\Users\stapi\AppData\Local\Temp\cc5wRCGd.s:2528   .text.netconn_recv:0000000000000032 .L0 
C:\Users\stapi\AppData\Local\Temp\cc5wRCGd.s:2532   .text.netconn_recv:000000000000003a .L0 
C:\Users\stapi\AppData\Local\Temp\cc5wRCGd.s:2533   .text.netconn_recv:000000000000003a .L0 
C:\Users\stapi\AppData\Local\Temp\cc5wRCGd.s:2534   .text.netconn_recv:000000000000003a .L0 
C:\Users\stapi\AppData\Local\Temp\cc5wRCGd.s:2535   .text.netconn_recv:000000000000003a .L0 
C:\Users\stapi\AppData\Local\Temp\cc5wRCGd.s:2536   .text.netconn_recv:000000000000003a .L0 
C:\Users\stapi\AppData\Local\Temp\cc5wRCGd.s:2539   .text.netconn_recv:000000000000003c .L0 
C:\Users\stapi\AppData\Local\Temp\cc5wRCGd.s:2540   .text.netconn_recv:000000000000003c .L0 
C:\Users\stapi\AppData\Local\Temp\cc5wRCGd.s:2552   .text.netconn_recv:0000000000000060 .L0 
C:\Users\stapi\AppData\Local\Temp\cc5wRCGd.s:2553   .text.netconn_recv:0000000000000060 .L0 
C:\Users\stapi\AppData\Local\Temp\cc5wRCGd.s:2554   .text.netconn_recv:0000000000000060 .L0 
C:\Users\stapi\AppData\Local\Temp\cc5wRCGd.s:2558   .text.netconn_recv:0000000000000062 .L0 
C:\Users\stapi\AppData\Local\Temp\cc5wRCGd.s:2559   .text.netconn_recv:0000000000000062 .L0 
C:\Users\stapi\AppData\Local\Temp\cc5wRCGd.s:2560   .text.netconn_recv:0000000000000062 .L0 
C:\Users\stapi\AppData\Local\Temp\cc5wRCGd.s:2561   .text.netconn_recv:0000000000000062 .L0 
C:\Users\stapi\AppData\Local\Temp\cc5wRCGd.s:2563   .text.netconn_recv:0000000000000064 .L0 
C:\Users\stapi\AppData\Local\Temp\cc5wRCGd.s:2565   .text.netconn_recv:0000000000000066 .L0 
C:\Users\stapi\AppData\Local\Temp\cc5wRCGd.s:2567   .text.netconn_recv:000000000000006a .L0 
C:\Users\stapi\AppData\Local\Temp\cc5wRCGd.s:2570   .text.netconn_recv:000000000000006e .L0 
C:\Users\stapi\AppData\Local\Temp\cc5wRCGd.s:2571   .text.netconn_recv:000000000000006e .L0 
C:\Users\stapi\AppData\Local\Temp\cc5wRCGd.s:2573   .text.netconn_recv:0000000000000070 .L0 
C:\Users\stapi\AppData\Local\Temp\cc5wRCGd.s:2575   .text.netconn_recv:0000000000000072 .L0 
C:\Users\stapi\AppData\Local\Temp\cc5wRCGd.s:2576   .text.netconn_recv:0000000000000072 .L0 
C:\Users\stapi\AppData\Local\Temp\cc5wRCGd.s:2581   .text.netconn_recv:000000000000007c .L0 
C:\Users\stapi\AppData\Local\Temp\cc5wRCGd.s:2582   .text.netconn_recv:000000000000007c .L0 
C:\Users\stapi\AppData\Local\Temp\cc5wRCGd.s:2584   .text.netconn_recv:000000000000007e .L0 
C:\Users\stapi\AppData\Local\Temp\cc5wRCGd.s:2585   .text.netconn_recv:000000000000007e .L0 
C:\Users\stapi\AppData\Local\Temp\cc5wRCGd.s:2593   .text.netconn_recv:000000000000008e .L0 
C:\Users\stapi\AppData\Local\Temp\cc5wRCGd.s:2594   .text.netconn_recv:000000000000008e .L0 
C:\Users\stapi\AppData\Local\Temp\cc5wRCGd.s:2596   .text.netconn_recv:0000000000000090 .L0 
C:\Users\stapi\AppData\Local\Temp\cc5wRCGd.s:2604   .text.netconn_recv:000000000000009c .L0 
C:\Users\stapi\AppData\Local\Temp\cc5wRCGd.s:2605   .text.netconn_recv:000000000000009c .L0 
C:\Users\stapi\AppData\Local\Temp\cc5wRCGd.s:2607   .text.netconn_recv:00000000000000a0 .L0 
C:\Users\stapi\AppData\Local\Temp\cc5wRCGd.s:2608   .text.netconn_recv:00000000000000a0 .L0 
C:\Users\stapi\AppData\Local\Temp\cc5wRCGd.s:2610   .text.netconn_recv:00000000000000a8 .L0 
C:\Users\stapi\AppData\Local\Temp\cc5wRCGd.s:2611   .text.netconn_recv:00000000000000a8 .L0 
C:\Users\stapi\AppData\Local\Temp\cc5wRCGd.s:2612   .text.netconn_recv:00000000000000a8 .L0 
C:\Users\stapi\AppData\Local\Temp\cc5wRCGd.s:2613   .text.netconn_recv:00000000000000a8 .L0 
C:\Users\stapi\AppData\Local\Temp\cc5wRCGd.s:2614   .text.netconn_recv:00000000000000a8 .L0 
C:\Users\stapi\AppData\Local\Temp\cc5wRCGd.s:2617   .text.netconn_recv:00000000000000a8 .L0 
C:\Users\stapi\AppData\Local\Temp\cc5wRCGd.s:2620   .text.netconn_recv:00000000000000a8 .L0 
C:\Users\stapi\AppData\Local\Temp\cc5wRCGd.s:2621   .text.netconn_recv:00000000000000a8 .L0 
C:\Users\stapi\AppData\Local\Temp\cc5wRCGd.s:2624   .text.netconn_recv:00000000000000ac .L0 
C:\Users\stapi\AppData\Local\Temp\cc5wRCGd.s:2625   .text.netconn_recv:00000000000000ac .L0 
C:\Users\stapi\AppData\Local\Temp\cc5wRCGd.s:2637   .text.netconn_recv:00000000000000d0 .L0 
C:\Users\stapi\AppData\Local\Temp\cc5wRCGd.s:2638   .text.netconn_recv:00000000000000d0 .L0 
C:\Users\stapi\AppData\Local\Temp\cc5wRCGd.s:2639   .text.netconn_recv:00000000000000d0 .L0 
C:\Users\stapi\AppData\Local\Temp\cc5wRCGd.s:2643   .text.netconn_recv:00000000000000d2 .L0 
C:\Users\stapi\AppData\Local\Temp\cc5wRCGd.s:2644   .text.netconn_recv:00000000000000d2 .L0 
C:\Users\stapi\AppData\Local\Temp\cc5wRCGd.s:2645   .text.netconn_recv:00000000000000d2 .L0 
C:\Users\stapi\AppData\Local\Temp\cc5wRCGd.s:2646   .text.netconn_recv:00000000000000d2 .L0 
C:\Users\stapi\AppData\Local\Temp\cc5wRCGd.s:2648   .text.netconn_recv:00000000000000d4 .L0 
C:\Users\stapi\AppData\Local\Temp\cc5wRCGd.s:2649   .text.netconn_recv:00000000000000d4 .L0 
C:\Users\stapi\AppData\Local\Temp\cc5wRCGd.s:2651   .text.netconn_recv:00000000000000d6 .L0 
C:\Users\stapi\AppData\Local\Temp\cc5wRCGd.s:2652   .text.netconn_recv:00000000000000d6 .L0 
C:\Users\stapi\AppData\Local\Temp\cc5wRCGd.s:2654   .text.netconn_recv:00000000000000da .L0 
C:\Users\stapi\AppData\Local\Temp\cc5wRCGd.s:2656   .text.netconn_recv:00000000000000de .L0 
C:\Users\stapi\AppData\Local\Temp\cc5wRCGd.s:2657   .text.netconn_recv:00000000000000de .L0 
C:\Users\stapi\AppData\Local\Temp\cc5wRCGd.s:2659   .text.netconn_recv:00000000000000e2 .L0 
C:\Users\stapi\AppData\Local\Temp\cc5wRCGd.s:2660   .text.netconn_recv:00000000000000e2 .L0 
C:\Users\stapi\AppData\Local\Temp\cc5wRCGd.s:2664   .text.netconn_recv:00000000000000e4 .L0 
C:\Users\stapi\AppData\Local\Temp\cc5wRCGd.s:2671   .text.netconn_recv:00000000000000e8 .L0 
C:\Users\stapi\AppData\Local\Temp\cc5wRCGd.s:2672   .text.netconn_recv:00000000000000e8 .L0 
C:\Users\stapi\AppData\Local\Temp\cc5wRCGd.s:2678   .text.netconn_recv:00000000000000f6 .L0 
C:\Users\stapi\AppData\Local\Temp\cc5wRCGd.s:2685   .text.netconn_shutdown:0000000000000000 netconn_shutdown
C:\Users\stapi\AppData\Local\Temp\cc5wRCGd.s:2688   .text.netconn_shutdown:0000000000000000 .L0 
C:\Users\stapi\AppData\Local\Temp\cc5wRCGd.s:2690   .text.netconn_shutdown:0000000000000000 .L0 
C:\Users\stapi\AppData\Local\Temp\cc5wRCGd.s:2691   .text.netconn_shutdown:0000000000000000 .L0 
C:\Users\stapi\AppData\Local\Temp\cc5wRCGd.s:2692   .text.netconn_shutdown:0000000000000000 .L0 
C:\Users\stapi\AppData\Local\Temp\cc5wRCGd.s:2698   .text.netconn_shutdown:000000000000000a .L0 
C:\Users\stapi\AppData\Local\Temp\cc5wRCGd.s:2701   .text.netconn_shutdown:0000000000000014 .L0 
C:\Users\stapi\AppData\Local\Temp\cc5wRCGd.s:2712   .text.netconn_join_leave_group:0000000000000000 netconn_join_leave_group
C:\Users\stapi\AppData\Local\Temp\cc5wRCGd.s:2715   .text.netconn_join_leave_group:0000000000000000 .L0 
C:\Users\stapi\AppData\Local\Temp\cc5wRCGd.s:2717   .text.netconn_join_leave_group:0000000000000000 .L0 
C:\Users\stapi\AppData\Local\Temp\cc5wRCGd.s:2718   .text.netconn_join_leave_group:0000000000000008 .L0 
C:\Users\stapi\AppData\Local\Temp\cc5wRCGd.s:2719   .text.netconn_join_leave_group:0000000000000008 .L0 
C:\Users\stapi\AppData\Local\Temp\cc5wRCGd.s:2721   .text.netconn_join_leave_group:0000000000000008 .L0 
C:\Users\stapi\AppData\Local\Temp\cc5wRCGd.s:2722   .text.netconn_join_leave_group:0000000000000008 .L0 
C:\Users\stapi\AppData\Local\Temp\cc5wRCGd.s:2723   .text.netconn_join_leave_group:0000000000000008 .L0 
C:\Users\stapi\AppData\Local\Temp\cc5wRCGd.s:2724   .text.netconn_join_leave_group:0000000000000008 .L0 
C:\Users\stapi\AppData\Local\Temp\cc5wRCGd.s:2725   .text.netconn_join_leave_group:0000000000000008 .L0 
C:\Users\stapi\AppData\Local\Temp\cc5wRCGd.s:2726   .text.netconn_join_leave_group:000000000000000a .L0 
C:\Users\stapi\AppData\Local\Temp\cc5wRCGd.s:2728   .text.netconn_join_leave_group:000000000000000a .L0 
C:\Users\stapi\AppData\Local\Temp\cc5wRCGd.s:2730   .text.netconn_join_leave_group:000000000000000c .L0 
C:\Users\stapi\AppData\Local\Temp\cc5wRCGd.s:2731   .text.netconn_join_leave_group:000000000000000c .L0 
C:\Users\stapi\AppData\Local\Temp\cc5wRCGd.s:2746   .text.netconn_join_leave_group:0000000000000030 .L0 
C:\Users\stapi\AppData\Local\Temp\cc5wRCGd.s:2747   .text.netconn_join_leave_group:0000000000000030 .L0 
C:\Users\stapi\AppData\Local\Temp\cc5wRCGd.s:2748   .text.netconn_join_leave_group:0000000000000030 .L0 
C:\Users\stapi\AppData\Local\Temp\cc5wRCGd.s:2752   .text.netconn_join_leave_group:0000000000000032 .L0 
C:\Users\stapi\AppData\Local\Temp\cc5wRCGd.s:2753   .text.netconn_join_leave_group:0000000000000032 .L0 
C:\Users\stapi\AppData\Local\Temp\cc5wRCGd.s:2754   .text.netconn_join_leave_group:0000000000000032 .L0 
C:\Users\stapi\AppData\Local\Temp\cc5wRCGd.s:2755   .text.netconn_join_leave_group:0000000000000032 .L0 
C:\Users\stapi\AppData\Local\Temp\cc5wRCGd.s:2756   .text.netconn_join_leave_group:0000000000000032 .L0 
C:\Users\stapi\AppData\Local\Temp\cc5wRCGd.s:2758   .text.netconn_join_leave_group:0000000000000034 .L0 
C:\Users\stapi\AppData\Local\Temp\cc5wRCGd.s:2764   .text.netconn_join_leave_group:000000000000003c .L0 
C:\Users\stapi\AppData\Local\Temp\cc5wRCGd.s:2765   .text.netconn_join_leave_group:000000000000003c .L0 
C:\Users\stapi\AppData\Local\Temp\cc5wRCGd.s:2767   .text.netconn_join_leave_group:000000000000003e .L0 
C:\Users\stapi\AppData\Local\Temp\cc5wRCGd.s:2773   .text.netconn_join_leave_group:0000000000000046 .L0 
C:\Users\stapi\AppData\Local\Temp\cc5wRCGd.s:2774   .text.netconn_join_leave_group:0000000000000046 .L0 
C:\Users\stapi\AppData\Local\Temp\cc5wRCGd.s:2776   .text.netconn_join_leave_group:0000000000000048 .L0 
C:\Users\stapi\AppData\Local\Temp\cc5wRCGd.s:2777   .text.netconn_join_leave_group:0000000000000048 .L0 
C:\Users\stapi\AppData\Local\Temp\cc5wRCGd.s:2780   .text.netconn_join_leave_group:000000000000004c .L0 
C:\Users\stapi\AppData\Local\Temp\cc5wRCGd.s:2782   .text.netconn_join_leave_group:000000000000004e .L0 
C:\Users\stapi\AppData\Local\Temp\cc5wRCGd.s:2783   .text.netconn_join_leave_group:000000000000004e .L0 
C:\Users\stapi\AppData\Local\Temp\cc5wRCGd.s:2787   .text.netconn_join_leave_group:0000000000000054 .L0 
C:\Users\stapi\AppData\Local\Temp\cc5wRCGd.s:2789   .text.netconn_join_leave_group:0000000000000056 .L0 
C:\Users\stapi\AppData\Local\Temp\cc5wRCGd.s:2790   .text.netconn_join_leave_group:0000000000000056 .L0 
C:\Users\stapi\AppData\Local\Temp\cc5wRCGd.s:2792   .text.netconn_join_leave_group:0000000000000058 .L0 
C:\Users\stapi\AppData\Local\Temp\cc5wRCGd.s:2793   .text.netconn_join_leave_group:0000000000000058 .L0 
C:\Users\stapi\AppData\Local\Temp\cc5wRCGd.s:2796   .text.netconn_join_leave_group:0000000000000060 .L0 
C:\Users\stapi\AppData\Local\Temp\cc5wRCGd.s:2797   .text.netconn_join_leave_group:0000000000000060 .L0 
C:\Users\stapi\AppData\Local\Temp\cc5wRCGd.s:2798   .text.netconn_join_leave_group:0000000000000060 .L0 
C:\Users\stapi\AppData\Local\Temp\cc5wRCGd.s:2799   .text.netconn_join_leave_group:0000000000000062 .L0 
C:\Users\stapi\AppData\Local\Temp\cc5wRCGd.s:2801   .text.netconn_join_leave_group:000000000000006a .L0 
C:\Users\stapi\AppData\Local\Temp\cc5wRCGd.s:2802   .text.netconn_join_leave_group:000000000000006a .L0 
C:\Users\stapi\AppData\Local\Temp\cc5wRCGd.s:2803   .text.netconn_join_leave_group:000000000000006a .L0 
C:\Users\stapi\AppData\Local\Temp\cc5wRCGd.s:2810   .text.netconn_join_leave_group_netif:0000000000000000 netconn_join_leave_group_netif
C:\Users\stapi\AppData\Local\Temp\cc5wRCGd.s:2813   .text.netconn_join_leave_group_netif:0000000000000000 .L0 
C:\Users\stapi\AppData\Local\Temp\cc5wRCGd.s:2815   .text.netconn_join_leave_group_netif:0000000000000000 .L0 
C:\Users\stapi\AppData\Local\Temp\cc5wRCGd.s:2816   .text.netconn_join_leave_group_netif:0000000000000008 .L0 
C:\Users\stapi\AppData\Local\Temp\cc5wRCGd.s:2817   .text.netconn_join_leave_group_netif:0000000000000008 .L0 
C:\Users\stapi\AppData\Local\Temp\cc5wRCGd.s:2819   .text.netconn_join_leave_group_netif:0000000000000008 .L0 
C:\Users\stapi\AppData\Local\Temp\cc5wRCGd.s:2820   .text.netconn_join_leave_group_netif:0000000000000008 .L0 
C:\Users\stapi\AppData\Local\Temp\cc5wRCGd.s:2821   .text.netconn_join_leave_group_netif:0000000000000008 .L0 
C:\Users\stapi\AppData\Local\Temp\cc5wRCGd.s:2822   .text.netconn_join_leave_group_netif:0000000000000008 .L0 
C:\Users\stapi\AppData\Local\Temp\cc5wRCGd.s:2823   .text.netconn_join_leave_group_netif:0000000000000008 .L0 
C:\Users\stapi\AppData\Local\Temp\cc5wRCGd.s:2824   .text.netconn_join_leave_group_netif:000000000000000a .L0 
C:\Users\stapi\AppData\Local\Temp\cc5wRCGd.s:2826   .text.netconn_join_leave_group_netif:000000000000000a .L0 
C:\Users\stapi\AppData\Local\Temp\cc5wRCGd.s:2828   .text.netconn_join_leave_group_netif:000000000000000c .L0 
C:\Users\stapi\AppData\Local\Temp\cc5wRCGd.s:2829   .text.netconn_join_leave_group_netif:000000000000000c .L0 
C:\Users\stapi\AppData\Local\Temp\cc5wRCGd.s:2844   .text.netconn_join_leave_group_netif:0000000000000030 .L0 
C:\Users\stapi\AppData\Local\Temp\cc5wRCGd.s:2845   .text.netconn_join_leave_group_netif:0000000000000030 .L0 
C:\Users\stapi\AppData\Local\Temp\cc5wRCGd.s:2846   .text.netconn_join_leave_group_netif:0000000000000030 .L0 
C:\Users\stapi\AppData\Local\Temp\cc5wRCGd.s:2851   .text.netconn_join_leave_group_netif:0000000000000034 .L0 
C:\Users\stapi\AppData\Local\Temp\cc5wRCGd.s:2852   .text.netconn_join_leave_group_netif:0000000000000034 .L0 
C:\Users\stapi\AppData\Local\Temp\cc5wRCGd.s:2853   .text.netconn_join_leave_group_netif:0000000000000034 .L0 
C:\Users\stapi\AppData\Local\Temp\cc5wRCGd.s:2854   .text.netconn_join_leave_group_netif:0000000000000034 .L0 
C:\Users\stapi\AppData\Local\Temp\cc5wRCGd.s:2855   .text.netconn_join_leave_group_netif:0000000000000034 .L0 
C:\Users\stapi\AppData\Local\Temp\cc5wRCGd.s:2857   .text.netconn_join_leave_group_netif:0000000000000036 .L0 
C:\Users\stapi\AppData\Local\Temp\cc5wRCGd.s:2863   .text.netconn_join_leave_group_netif:000000000000003e .L0 
C:\Users\stapi\AppData\Local\Temp\cc5wRCGd.s:2864   .text.netconn_join_leave_group_netif:000000000000003e .L0 
C:\Users\stapi\AppData\Local\Temp\cc5wRCGd.s:2867   .text.netconn_join_leave_group_netif:0000000000000040 .L0 
C:\Users\stapi\AppData\Local\Temp\cc5wRCGd.s:2869   .text.netconn_join_leave_group_netif:0000000000000042 .L0 
C:\Users\stapi\AppData\Local\Temp\cc5wRCGd.s:2870   .text.netconn_join_leave_group_netif:0000000000000042 .L0 
C:\Users\stapi\AppData\Local\Temp\cc5wRCGd.s:2872   .text.netconn_join_leave_group_netif:0000000000000046 .L0 
C:\Users\stapi\AppData\Local\Temp\cc5wRCGd.s:2874   .text.netconn_join_leave_group_netif:0000000000000048 .L0 
C:\Users\stapi\AppData\Local\Temp\cc5wRCGd.s:2878   .text.netconn_join_leave_group_netif:000000000000004e .L0 
C:\Users\stapi\AppData\Local\Temp\cc5wRCGd.s:2880   .text.netconn_join_leave_group_netif:0000000000000050 .L0 
C:\Users\stapi\AppData\Local\Temp\cc5wRCGd.s:2881   .text.netconn_join_leave_group_netif:0000000000000050 .L0 
C:\Users\stapi\AppData\Local\Temp\cc5wRCGd.s:2882   .text.netconn_join_leave_group_netif:0000000000000050 .L0 
C:\Users\stapi\AppData\Local\Temp\cc5wRCGd.s:2884   .text.netconn_join_leave_group_netif:0000000000000054 .L0 
C:\Users\stapi\AppData\Local\Temp\cc5wRCGd.s:2885   .text.netconn_join_leave_group_netif:0000000000000054 .L0 
C:\Users\stapi\AppData\Local\Temp\cc5wRCGd.s:2887   .text.netconn_join_leave_group_netif:0000000000000056 .L0 
C:\Users\stapi\AppData\Local\Temp\cc5wRCGd.s:2888   .text.netconn_join_leave_group_netif:0000000000000056 .L0 
C:\Users\stapi\AppData\Local\Temp\cc5wRCGd.s:2891   .text.netconn_join_leave_group_netif:000000000000005e .L0 
C:\Users\stapi\AppData\Local\Temp\cc5wRCGd.s:2893   .text.netconn_join_leave_group_netif:000000000000005e .L0 
C:\Users\stapi\AppData\Local\Temp\cc5wRCGd.s:2894   .text.netconn_join_leave_group_netif:000000000000005e .L0 
C:\Users\stapi\AppData\Local\Temp\cc5wRCGd.s:2895   .text.netconn_join_leave_group_netif:0000000000000060 .L0 
C:\Users\stapi\AppData\Local\Temp\cc5wRCGd.s:2897   .text.netconn_join_leave_group_netif:0000000000000068 .L0 
C:\Users\stapi\AppData\Local\Temp\cc5wRCGd.s:2898   .text.netconn_join_leave_group_netif:0000000000000068 .L0 
C:\Users\stapi\AppData\Local\Temp\cc5wRCGd.s:2899   .text.netconn_join_leave_group_netif:0000000000000068 .L0 
C:\Users\stapi\AppData\Local\Temp\cc5wRCGd.s:2913   .text.netconn_gethostbyname:0000000000000000 netconn_gethostbyname
C:\Users\stapi\AppData\Local\Temp\cc5wRCGd.s:2916   .text.netconn_gethostbyname:0000000000000000 .L0 
C:\Users\stapi\AppData\Local\Temp\cc5wRCGd.s:2918   .text.netconn_gethostbyname:0000000000000000 .L0 
C:\Users\stapi\AppData\Local\Temp\cc5wRCGd.s:2919   .text.netconn_gethostbyname:0000000000000008 .L0 
C:\Users\stapi\AppData\Local\Temp\cc5wRCGd.s:2920   .text.netconn_gethostbyname:0000000000000008 .L0 
C:\Users\stapi\AppData\Local\Temp\cc5wRCGd.s:2921   .text.netconn_gethostbyname:0000000000000008 .L0 
C:\Users\stapi\AppData\Local\Temp\cc5wRCGd.s:2923   .text.netconn_gethostbyname:0000000000000008 .L0 
C:\Users\stapi\AppData\Local\Temp\cc5wRCGd.s:2924   .text.netconn_gethostbyname:0000000000000008 .L0 
C:\Users\stapi\AppData\Local\Temp\cc5wRCGd.s:2925   .text.netconn_gethostbyname:0000000000000008 .L0 
C:\Users\stapi\AppData\Local\Temp\cc5wRCGd.s:2926   .text.netconn_gethostbyname:0000000000000008 .L0 
C:\Users\stapi\AppData\Local\Temp\cc5wRCGd.s:2927   .text.netconn_gethostbyname:0000000000000008 .L0 
C:\Users\stapi\AppData\Local\Temp\cc5wRCGd.s:2928   .text.netconn_gethostbyname:0000000000000008 .L0 
C:\Users\stapi\AppData\Local\Temp\cc5wRCGd.s:2929   .text.netconn_gethostbyname:0000000000000008 .L0 
C:\Users\stapi\AppData\Local\Temp\cc5wRCGd.s:2930   .text.netconn_gethostbyname:000000000000000a .L0 
C:\Users\stapi\AppData\Local\Temp\cc5wRCGd.s:2932   .text.netconn_gethostbyname:000000000000000a .L0 
C:\Users\stapi\AppData\Local\Temp\cc5wRCGd.s:2934   .text.netconn_gethostbyname:000000000000000c .L0 
C:\Users\stapi\AppData\Local\Temp\cc5wRCGd.s:2935   .text.netconn_gethostbyname:000000000000000c .L0 
C:\Users\stapi\AppData\Local\Temp\cc5wRCGd.s:2948   .text.netconn_gethostbyname:0000000000000030 .L0 
C:\Users\stapi\AppData\Local\Temp\cc5wRCGd.s:2949   .text.netconn_gethostbyname:0000000000000030 .L0 
C:\Users\stapi\AppData\Local\Temp\cc5wRCGd.s:2950   .text.netconn_gethostbyname:0000000000000030 .L0 
C:\Users\stapi\AppData\Local\Temp\cc5wRCGd.s:2954   .text.netconn_gethostbyname:0000000000000032 .L0 
C:\Users\stapi\AppData\Local\Temp\cc5wRCGd.s:2955   .text.netconn_gethostbyname:0000000000000032 .L0 
C:\Users\stapi\AppData\Local\Temp\cc5wRCGd.s:2956   .text.netconn_gethostbyname:0000000000000032 .L0 
C:\Users\stapi\AppData\Local\Temp\cc5wRCGd.s:2957   .text.netconn_gethostbyname:0000000000000032 .L0 
C:\Users\stapi\AppData\Local\Temp\cc5wRCGd.s:2959   .text.netconn_gethostbyname:0000000000000034 .L0 
C:\Users\stapi\AppData\Local\Temp\cc5wRCGd.s:2960   .text.netconn_gethostbyname:0000000000000034 .L0 
C:\Users\stapi\AppData\Local\Temp\cc5wRCGd.s:2973   .text.netconn_gethostbyname:0000000000000058 .L0 
C:\Users\stapi\AppData\Local\Temp\cc5wRCGd.s:2974   .text.netconn_gethostbyname:0000000000000058 .L0 
C:\Users\stapi\AppData\Local\Temp\cc5wRCGd.s:2975   .text.netconn_gethostbyname:0000000000000058 .L0 
C:\Users\stapi\AppData\Local\Temp\cc5wRCGd.s:2980   .text.netconn_gethostbyname:000000000000005c .L0 
C:\Users\stapi\AppData\Local\Temp\cc5wRCGd.s:2981   .text.netconn_gethostbyname:000000000000005c .L0 
C:\Users\stapi\AppData\Local\Temp\cc5wRCGd.s:2982   .text.netconn_gethostbyname:000000000000005c .L0 
C:\Users\stapi\AppData\Local\Temp\cc5wRCGd.s:2983   .text.netconn_gethostbyname:000000000000005c .L0 
C:\Users\stapi\AppData\Local\Temp\cc5wRCGd.s:2984   .text.netconn_gethostbyname:000000000000005c .L0 
C:\Users\stapi\AppData\Local\Temp\cc5wRCGd.s:2986   .text.netconn_gethostbyname:0000000000000060 .L0 
C:\Users\stapi\AppData\Local\Temp\cc5wRCGd.s:2989   .text.netconn_gethostbyname:0000000000000062 .L0 
C:\Users\stapi\AppData\Local\Temp\cc5wRCGd.s:2991   .text.netconn_gethostbyname:0000000000000064 .L0 
C:\Users\stapi\AppData\Local\Temp\cc5wRCGd.s:2994   .text.netconn_gethostbyname:0000000000000066 .L0 
C:\Users\stapi\AppData\Local\Temp\cc5wRCGd.s:2996   .text.netconn_gethostbyname:0000000000000068 .L0 
C:\Users\stapi\AppData\Local\Temp\cc5wRCGd.s:2997   .text.netconn_gethostbyname:0000000000000068 .L0 
C:\Users\stapi\AppData\Local\Temp\cc5wRCGd.s:2999   .text.netconn_gethostbyname:000000000000006a .L0 
C:\Users\stapi\AppData\Local\Temp\cc5wRCGd.s:3000   .text.netconn_gethostbyname:000000000000006a .L0 
C:\Users\stapi\AppData\Local\Temp\cc5wRCGd.s:3001   .text.netconn_gethostbyname:000000000000006a .L0 
C:\Users\stapi\AppData\Local\Temp\cc5wRCGd.s:3003   .text.netconn_gethostbyname:000000000000006c .L0 
C:\Users\stapi\AppData\Local\Temp\cc5wRCGd.s:3004   .text.netconn_gethostbyname:000000000000006c .L0 
C:\Users\stapi\AppData\Local\Temp\cc5wRCGd.s:3007   .text.netconn_gethostbyname:0000000000000074 .L0 
C:\Users\stapi\AppData\Local\Temp\cc5wRCGd.s:3009   .text.netconn_gethostbyname:0000000000000078 .L0 
C:\Users\stapi\AppData\Local\Temp\cc5wRCGd.s:3010   .text.netconn_gethostbyname:0000000000000078 .L0 
C:\Users\stapi\AppData\Local\Temp\cc5wRCGd.s:3012   .text.netconn_gethostbyname:000000000000007a .L0 
C:\Users\stapi\AppData\Local\Temp\cc5wRCGd.s:3014   .text.netconn_gethostbyname:000000000000007c .L0 
C:\Users\stapi\AppData\Local\Temp\cc5wRCGd.s:3015   .text.netconn_gethostbyname:000000000000007c .L0 
C:\Users\stapi\AppData\Local\Temp\cc5wRCGd.s:3024   .text.netconn_gethostbyname:0000000000000092 .L0 
C:\Users\stapi\AppData\Local\Temp\cc5wRCGd.s:3028   .text.netconn_gethostbyname:000000000000009c .L0 
C:\Users\stapi\AppData\Local\Temp\cc5wRCGd.s:3029   .text.netconn_gethostbyname:000000000000009c .L0 
C:\Users\stapi\AppData\Local\Temp\cc5wRCGd.s:3031   .text.netconn_gethostbyname:000000000000009e .L0 
C:\Users\stapi\AppData\Local\Temp\cc5wRCGd.s:3032   .text.netconn_gethostbyname:000000000000009e .L0 
C:\Users\stapi\AppData\Local\Temp\cc5wRCGd.s:3033   .text.netconn_gethostbyname:000000000000009e .L0 
C:\Users\stapi\AppData\Local\Temp\cc5wRCGd.s:3037   .text.netconn_gethostbyname:00000000000000a2 .L0 
C:\Users\stapi\AppData\Local\Temp\cc5wRCGd.s:3039   .text.netconn_gethostbyname:00000000000000a6 .L0 
C:\Users\stapi\AppData\Local\Temp\cc5wRCGd.s:3041   .text.netconn_gethostbyname:00000000000000ae .L0 
C:\Users\stapi\AppData\Local\Temp\cc5wRCGd.s:3042   .text.netconn_gethostbyname:00000000000000ae .L0 
C:\Users\stapi\AppData\Local\Temp\cc5wRCGd.s:3043   .text.netconn_gethostbyname:00000000000000ae .L0 
C:\Users\stapi\AppData\Local\Temp\cc5wRCGd.s:3044   .text.netconn_gethostbyname:00000000000000ae .L0 
C:\Users\stapi\AppData\Local\Temp\cc5wRCGd.s:48     .text.netconn_apimsg:0000000000000024 .L0 
C:\Users\stapi\AppData\Local\Temp\cc5wRCGd.s:129    .text.netconn_tcp_recvd_msg:000000000000005c .L0 
C:\Users\stapi\AppData\Local\Temp\cc5wRCGd.s:215    .text.netconn_close_shutdown:000000000000005c .L0 
C:\Users\stapi\AppData\Local\Temp\cc5wRCGd.s:413    .text.netconn_new_with_proto_and_callback:000000000000010e .L0 
C:\Users\stapi\AppData\Local\Temp\cc5wRCGd.s:481    .text.netconn_prepare_delete:0000000000000036 .L0 
C:\Users\stapi\AppData\Local\Temp\cc5wRCGd.s:527    .text.netconn_delete:000000000000002e .L0 
C:\Users\stapi\AppData\Local\Temp\cc5wRCGd.s:671    .text.netconn_getaddr:00000000000000a8 .L0 
C:\Users\stapi\AppData\Local\Temp\cc5wRCGd.s:760    .text.netconn_bind:0000000000000060 .L0 
C:\Users\stapi\AppData\Local\Temp\cc5wRCGd.s:835    .text.netconn_bind_if:0000000000000054 .L0 
C:\Users\stapi\AppData\Local\Temp\cc5wRCGd.s:924    .text.netconn_connect:0000000000000060 .L0 
C:\Users\stapi\AppData\Local\Temp\cc5wRCGd.s:993    .text.netconn_disconnect:0000000000000050 .L0 
C:\Users\stapi\AppData\Local\Temp\cc5wRCGd.s:1065   .text.netconn_listen_with_backlog:0000000000000050 .L0 
C:\Users\stapi\AppData\Local\Temp\cc5wRCGd.s:1131   .text.netconn_tcp_recvd:0000000000000052 .L0 
C:\Users\stapi\AppData\Local\Temp\cc5wRCGd.s:1212   .text.netconn_send:0000000000000052 .L0 
C:\Users\stapi\AppData\Local\Temp\cc5wRCGd.s:1248   .text.netconn_sendto:000000000000001a .L0 
C:\Users\stapi\AppData\Local\Temp\cc5wRCGd.s:1507   .text.netconn_write_vectors_partly:0000000000000112 .L0 
C:\Users\stapi\AppData\Local\Temp\cc5wRCGd.s:1546   .text.netconn_write_partly:0000000000000024 .L0 
C:\Users\stapi\AppData\Local\Temp\cc5wRCGd.s:1563   .text.netconn_close:000000000000000a .L0 
C:\Users\stapi\AppData\Local\Temp\cc5wRCGd.s:1625   .text.netconn_err:0000000000000038 .L0 
C:\Users\stapi\AppData\Local\Temp\cc5wRCGd.s:1826   .text.netconn_accept:00000000000000ee .L0 
C:\Users\stapi\AppData\Local\Temp\cc5wRCGd.s:2095   .text.netconn_recv_data:000000000000013c .L0 
C:\Users\stapi\AppData\Local\Temp\cc5wRCGd.s:2154   .text.netconn_recv_udp_raw_netbuf:000000000000004e .L0 
C:\Users\stapi\AppData\Local\Temp\cc5wRCGd.s:2209   .text.netconn_recv_udp_raw_netbuf_flags:000000000000004c .L0 
C:\Users\stapi\AppData\Local\Temp\cc5wRCGd.s:2368   .text.netconn_recv_data_tcp:00000000000000ae .L0 
C:\Users\stapi\AppData\Local\Temp\cc5wRCGd.s:2423   .text.netconn_recv_tcp_pbuf:000000000000004e .L0 
C:\Users\stapi\AppData\Local\Temp\cc5wRCGd.s:2478   .text.netconn_recv_tcp_pbuf_flags:000000000000004c .L0 
C:\Users\stapi\AppData\Local\Temp\cc5wRCGd.s:2681   .text.netconn_recv:00000000000000f6 .L0 
C:\Users\stapi\AppData\Local\Temp\cc5wRCGd.s:2704   .text.netconn_shutdown:0000000000000014 .L0 
C:\Users\stapi\AppData\Local\Temp\cc5wRCGd.s:2806   .text.netconn_join_leave_group:000000000000006a .L0 
C:\Users\stapi\AppData\Local\Temp\cc5wRCGd.s:2902   .text.netconn_join_leave_group_netif:0000000000000068 .L0 
C:\Users\stapi\AppData\Local\Temp\cc5wRCGd.s:3047   .text.netconn_gethostbyname:00000000000000ae .L0 
                     .debug_frame:0000000000000000 .L0 
C:\Users\stapi\AppData\Local\Temp\cc5wRCGd.s:39     .text.netconn_apimsg:000000000000001c .L2
C:\Users\stapi\AppData\Local\Temp\cc5wRCGd.s:50     .rodata.netconn_tcp_recvd_msg.str1.4:0000000000000000 .LC0
C:\Users\stapi\AppData\Local\Temp\cc5wRCGd.s:53     .rodata.netconn_tcp_recvd_msg.str1.4:0000000000000084 .LC1
C:\Users\stapi\AppData\Local\Temp\cc5wRCGd.s:56     .rodata.netconn_tcp_recvd_msg.str1.4:00000000000000a8 .LC2
C:\Users\stapi\AppData\Local\Temp\cc5wRCGd.s:77     .text.netconn_tcp_recvd_msg:0000000000000016 .L5
C:\Users\stapi\AppData\Local\Temp\cc5wRCGd.s:98     .text.netconn_tcp_recvd_msg:000000000000003c .L6
C:\Users\stapi\AppData\Local\Temp\cc5wRCGd.s:92     .text.netconn_tcp_recvd_msg:000000000000003a .L7
C:\Users\stapi\AppData\Local\Temp\cc5wRCGd.s:131    .rodata.netconn_close_shutdown.str1.4:0000000000000000 .LC3
C:\Users\stapi\AppData\Local\Temp\cc5wRCGd.s:176    .text.netconn_close_shutdown:0000000000000032 .L13
C:\Users\stapi\AppData\Local\Temp\cc5wRCGd.s:170    .text.netconn_close_shutdown:0000000000000030 .L14
C:\Users\stapi\AppData\Local\Temp\cc5wRCGd.s:217    .rodata.netconn_new_with_proto_and_callback.str1.4:0000000000000000 .LC4
C:\Users\stapi\AppData\Local\Temp\cc5wRCGd.s:220    .rodata.netconn_new_with_proto_and_callback.str1.4:0000000000000024 .LC5
C:\Users\stapi\AppData\Local\Temp\cc5wRCGd.s:223    .rodata.netconn_new_with_proto_and_callback.str1.4:000000000000003c .LC6
C:\Users\stapi\AppData\Local\Temp\cc5wRCGd.s:226    .rodata.netconn_new_with_proto_and_callback.str1.4:0000000000000060 .LC7
C:\Users\stapi\AppData\Local\Temp\cc5wRCGd.s:399    .text.netconn_new_with_proto_and_callback:0000000000000102 .L16
C:\Users\stapi\AppData\Local\Temp\cc5wRCGd.s:302    .text.netconn_new_with_proto_and_callback:000000000000005e .L18
C:\Users\stapi\AppData\Local\Temp\cc5wRCGd.s:296    .text.netconn_new_with_proto_and_callback:000000000000005c .L19
C:\Users\stapi\AppData\Local\Temp\cc5wRCGd.s:327    .text.netconn_new_with_proto_and_callback:0000000000000088 .L20
C:\Users\stapi\AppData\Local\Temp\cc5wRCGd.s:321    .text.netconn_new_with_proto_and_callback:0000000000000086 .L21
C:\Users\stapi\AppData\Local\Temp\cc5wRCGd.s:352    .text.netconn_new_with_proto_and_callback:00000000000000b2 .L22
C:\Users\stapi\AppData\Local\Temp\cc5wRCGd.s:346    .text.netconn_new_with_proto_and_callback:00000000000000b0 .L23
C:\Users\stapi\AppData\Local\Temp\cc5wRCGd.s:377    .text.netconn_new_with_proto_and_callback:00000000000000dc .L24
C:\Users\stapi\AppData\Local\Temp\cc5wRCGd.s:371    .text.netconn_new_with_proto_and_callback:00000000000000da .L25
C:\Users\stapi\AppData\Local\Temp\cc5wRCGd.s:471    .text.netconn_prepare_delete:0000000000000032 .L35
C:\Users\stapi\AppData\Local\Temp\cc5wRCGd.s:516    .text.netconn_delete:0000000000000024 .L41
C:\Users\stapi\AppData\Local\Temp\cc5wRCGd.s:529    .rodata.netconn_getaddr.str1.4:0000000000000000 .LC8
C:\Users\stapi\AppData\Local\Temp\cc5wRCGd.s:532    .rodata.netconn_getaddr.str1.4:0000000000000020 .LC9
C:\Users\stapi\AppData\Local\Temp\cc5wRCGd.s:535    .rodata.netconn_getaddr.str1.4:0000000000000040 .LC10
C:\Users\stapi\AppData\Local\Temp\cc5wRCGd.s:579    .text.netconn_getaddr:0000000000000032 .L45
C:\Users\stapi\AppData\Local\Temp\cc5wRCGd.s:573    .text.netconn_getaddr:0000000000000030 .L46
C:\Users\stapi\AppData\Local\Temp\cc5wRCGd.s:606    .text.netconn_getaddr:000000000000005a .L47
C:\Users\stapi\AppData\Local\Temp\cc5wRCGd.s:600    .text.netconn_getaddr:0000000000000058 .L48
C:\Users\stapi\AppData\Local\Temp\cc5wRCGd.s:633    .text.netconn_getaddr:0000000000000082 .L49
C:\Users\stapi\AppData\Local\Temp\cc5wRCGd.s:627    .text.netconn_getaddr:0000000000000080 .L50
C:\Users\stapi\AppData\Local\Temp\cc5wRCGd.s:673    .rodata.netconn_bind.str1.4:0000000000000000 .LC11
C:\Users\stapi\AppData\Local\Temp\cc5wRCGd.s:716    .text.netconn_bind:0000000000000032 .L53
C:\Users\stapi\AppData\Local\Temp\cc5wRCGd.s:710    .text.netconn_bind:0000000000000030 .L54
C:\Users\stapi\AppData\Local\Temp\cc5wRCGd.s:726    .text.netconn_bind:000000000000003c .L55
C:\Users\stapi\AppData\Local\Temp\cc5wRCGd.s:762    .rodata.netconn_bind_if.str1.4:0000000000000000 .LC12
C:\Users\stapi\AppData\Local\Temp\cc5wRCGd.s:804    .text.netconn_bind_if:0000000000000032 .L58
C:\Users\stapi\AppData\Local\Temp\cc5wRCGd.s:798    .text.netconn_bind_if:0000000000000030 .L59
C:\Users\stapi\AppData\Local\Temp\cc5wRCGd.s:837    .rodata.netconn_connect.str1.4:0000000000000000 .LC13
C:\Users\stapi\AppData\Local\Temp\cc5wRCGd.s:880    .text.netconn_connect:0000000000000032 .L62
C:\Users\stapi\AppData\Local\Temp\cc5wRCGd.s:874    .text.netconn_connect:0000000000000030 .L63
C:\Users\stapi\AppData\Local\Temp\cc5wRCGd.s:890    .text.netconn_connect:000000000000003c .L64
C:\Users\stapi\AppData\Local\Temp\cc5wRCGd.s:926    .rodata.netconn_disconnect.str1.4:0000000000000000 .LC14
C:\Users\stapi\AppData\Local\Temp\cc5wRCGd.s:967    .text.netconn_disconnect:0000000000000032 .L67
C:\Users\stapi\AppData\Local\Temp\cc5wRCGd.s:961    .text.netconn_disconnect:0000000000000030 .L68
C:\Users\stapi\AppData\Local\Temp\cc5wRCGd.s:995    .rodata.netconn_listen_with_backlog.str1.4:0000000000000000 .LC15
C:\Users\stapi\AppData\Local\Temp\cc5wRCGd.s:1038   .text.netconn_listen_with_backlog:0000000000000032 .L71
C:\Users\stapi\AppData\Local\Temp\cc5wRCGd.s:1032   .text.netconn_listen_with_backlog:0000000000000030 .L72
C:\Users\stapi\AppData\Local\Temp\cc5wRCGd.s:1091   .text.netconn_tcp_recvd:0000000000000018 .L75
C:\Users\stapi\AppData\Local\Temp\cc5wRCGd.s:1111   .text.netconn_tcp_recvd:000000000000003e .L76
C:\Users\stapi\AppData\Local\Temp\cc5wRCGd.s:1105   .text.netconn_tcp_recvd:000000000000003c .L77
C:\Users\stapi\AppData\Local\Temp\cc5wRCGd.s:1133   .rodata.netconn_send.str1.4:0000000000000000 .LC16
C:\Users\stapi\AppData\Local\Temp\cc5wRCGd.s:1178   .text.netconn_send:0000000000000032 .L83
C:\Users\stapi\AppData\Local\Temp\cc5wRCGd.s:1172   .text.netconn_send:0000000000000030 .L84
C:\Users\stapi\AppData\Local\Temp\cc5wRCGd.s:1239   .text.netconn_sendto:0000000000000016 .L89
C:\Users\stapi\AppData\Local\Temp\cc5wRCGd.s:1229   .text.netconn_sendto:0000000000000008 .L88
C:\Users\stapi\AppData\Local\Temp\cc5wRCGd.s:1250   .rodata.netconn_write_vectors_partly.str1.4:0000000000000000 .LC17
C:\Users\stapi\AppData\Local\Temp\cc5wRCGd.s:1253   .rodata.netconn_write_vectors_partly.str1.4:000000000000001c .LC18
C:\Users\stapi\AppData\Local\Temp\cc5wRCGd.s:1256   .rodata.netconn_write_vectors_partly.str1.4:0000000000000040 .LC19
C:\Users\stapi\AppData\Local\Temp\cc5wRCGd.s:1306   .text.netconn_write_vectors_partly:0000000000000032 .L96
C:\Users\stapi\AppData\Local\Temp\cc5wRCGd.s:1300   .text.netconn_write_vectors_partly:0000000000000030 .L97
C:\Users\stapi\AppData\Local\Temp\cc5wRCGd.s:1339   .text.netconn_write_vectors_partly:0000000000000066 .L98
C:\Users\stapi\AppData\Local\Temp\cc5wRCGd.s:1333   .text.netconn_write_vectors_partly:0000000000000064 .L99
C:\Users\stapi\AppData\Local\Temp\cc5wRCGd.s:1361   .text.netconn_write_vectors_partly:000000000000007a .L100
C:\Users\stapi\AppData\Local\Temp\cc5wRCGd.s:1497   .text.netconn_write_vectors_partly:000000000000010e .L112
C:\Users\stapi\AppData\Local\Temp\cc5wRCGd.s:1383   .text.netconn_write_vectors_partly:0000000000000092 .L102
C:\Users\stapi\AppData\Local\Temp\cc5wRCGd.s:1367   .text.netconn_write_vectors_partly:0000000000000084 .L103
C:\Users\stapi\AppData\Local\Temp\cc5wRCGd.s:1409   .text.netconn_write_vectors_partly:00000000000000a4 .L104
C:\Users\stapi\AppData\Local\Temp\cc5wRCGd.s:1425   .text.netconn_write_vectors_partly:00000000000000b2 .L105
C:\Users\stapi\AppData\Local\Temp\cc5wRCGd.s:1395   .text.netconn_write_vectors_partly:000000000000009a .L101
C:\Users\stapi\AppData\Local\Temp\cc5wRCGd.s:1471   .text.netconn_write_vectors_partly:00000000000000de .L106
C:\Users\stapi\AppData\Local\Temp\cc5wRCGd.s:1391   .text.netconn_write_vectors_partly:0000000000000098 .L107
C:\Users\stapi\AppData\Local\Temp\cc5wRCGd.s:1491   .text.netconn_write_vectors_partly:000000000000010c .L108
C:\Users\stapi\AppData\Local\Temp\cc5wRCGd.s:1615   .text.netconn_err:0000000000000034 .L124
C:\Users\stapi\AppData\Local\Temp\cc5wRCGd.s:1627   .rodata.netconn_accept.str1.4:0000000000000000 .LC20
C:\Users\stapi\AppData\Local\Temp\cc5wRCGd.s:1630   .rodata.netconn_accept.str1.4:0000000000000020 .LC21
C:\Users\stapi\AppData\Local\Temp\cc5wRCGd.s:1676   .text.netconn_accept:0000000000000032 .L130
C:\Users\stapi\AppData\Local\Temp\cc5wRCGd.s:1670   .text.netconn_accept:0000000000000030 .L131
C:\Users\stapi\AppData\Local\Temp\cc5wRCGd.s:1706   .text.netconn_accept:0000000000000062 .L132
C:\Users\stapi\AppData\Local\Temp\cc5wRCGd.s:1700   .text.netconn_accept:0000000000000060 .L133
C:\Users\stapi\AppData\Local\Temp\cc5wRCGd.s:1727   .text.netconn_accept:0000000000000078 .L134
C:\Users\stapi\AppData\Local\Temp\cc5wRCGd.s:1739   .text.netconn_accept:0000000000000084 .L135
C:\Users\stapi\AppData\Local\Temp\cc5wRCGd.s:1724   .text.netconn_accept:0000000000000076 .L136
C:\Users\stapi\AppData\Local\Temp\cc5wRCGd.s:1783   .text.netconn_accept:00000000000000c0 .L137
C:\Users\stapi\AppData\Local\Temp\cc5wRCGd.s:1819   .text.netconn_accept:00000000000000ea .L142
C:\Users\stapi\AppData\Local\Temp\cc5wRCGd.s:1796   .text.netconn_accept:00000000000000d6 .L138
C:\Users\stapi\AppData\Local\Temp\cc5wRCGd.s:1804   .text.netconn_accept:00000000000000e0 .L141
C:\Users\stapi\AppData\Local\Temp\cc5wRCGd.s:1763   .text.netconn_accept:00000000000000a6 .L140
C:\Users\stapi\AppData\Local\Temp\cc5wRCGd.s:1768   .text.netconn_accept:00000000000000aa .L139
C:\Users\stapi\AppData\Local\Temp\cc5wRCGd.s:1828   .rodata.netconn_recv_data.str1.4:0000000000000000 .LC22
C:\Users\stapi\AppData\Local\Temp\cc5wRCGd.s:1831   .rodata.netconn_recv_data.str1.4:0000000000000020 .LC23
C:\Users\stapi\AppData\Local\Temp\cc5wRCGd.s:1834   .rodata.netconn_recv_data.str1.4:000000000000003c .LC24
C:\Users\stapi\AppData\Local\Temp\cc5wRCGd.s:1879   .text.netconn_recv_data:0000000000000034 .L149
C:\Users\stapi\AppData\Local\Temp\cc5wRCGd.s:1873   .text.netconn_recv_data:0000000000000032 .L150
C:\Users\stapi\AppData\Local\Temp\cc5wRCGd.s:1909   .text.netconn_recv_data:0000000000000064 .L151
C:\Users\stapi\AppData\Local\Temp\cc5wRCGd.s:1903   .text.netconn_recv_data:0000000000000062 .L152
C:\Users\stapi\AppData\Local\Temp\cc5wRCGd.s:1940   .text.netconn_recv_data:000000000000007e .L153
C:\Users\stapi\AppData\Local\Temp\cc5wRCGd.s:1928   .text.netconn_recv_data:0000000000000074 .L154
C:\Users\stapi\AppData\Local\Temp\cc5wRCGd.s:1957   .text.netconn_recv_data:0000000000000092 .L155
C:\Users\stapi\AppData\Local\Temp\cc5wRCGd.s:2025   .text.netconn_recv_data:00000000000000e4 .L156
C:\Users\stapi\AppData\Local\Temp\cc5wRCGd.s:2003   .text.netconn_recv_data:00000000000000cc .L157
C:\Users\stapi\AppData\Local\Temp\cc5wRCGd.s:2065   .text.netconn_recv_data:0000000000000110 .L173
C:\Users\stapi\AppData\Local\Temp\cc5wRCGd.s:2039   .text.netconn_recv_data:00000000000000fa .L162
C:\Users\stapi\AppData\Local\Temp\cc5wRCGd.s:1925   .text.netconn_recv_data:0000000000000072 .L160
C:\Users\stapi\AppData\Local\Temp\cc5wRCGd.s:1966   .text.netconn_recv_data:00000000000000a2 .L161
C:\Users\stapi\AppData\Local\Temp\cc5wRCGd.s:2057   .text.netconn_recv_data:000000000000010a .L167
C:\Users\stapi\AppData\Local\Temp\cc5wRCGd.s:1997   .text.netconn_recv_data:00000000000000c8 .L176
C:\Users\stapi\AppData\Local\Temp\cc5wRCGd.s:2085   .text.netconn_recv_data:0000000000000138 .L165
C:\Users\stapi\AppData\Local\Temp\cc5wRCGd.s:2080   .text.netconn_recv_data:0000000000000136 .L166
C:\Users\stapi\AppData\Local\Temp\cc5wRCGd.s:2044   .text.netconn_recv_data:00000000000000fc .L175
C:\Users\stapi\AppData\Local\Temp\cc5wRCGd.s:2097   .rodata.netconn_recv_udp_raw_netbuf.str1.4:0000000000000000 .LC25
C:\Users\stapi\AppData\Local\Temp\cc5wRCGd.s:2119   .text.netconn_recv_udp_raw_netbuf:0000000000000016 .L178
C:\Users\stapi\AppData\Local\Temp\cc5wRCGd.s:2139   .text.netconn_recv_udp_raw_netbuf:000000000000003c .L179
C:\Users\stapi\AppData\Local\Temp\cc5wRCGd.s:2133   .text.netconn_recv_udp_raw_netbuf:000000000000003a .L180
C:\Users\stapi\AppData\Local\Temp\cc5wRCGd.s:2174   .text.netconn_recv_udp_raw_netbuf_flags:0000000000000016 .L186
C:\Users\stapi\AppData\Local\Temp\cc5wRCGd.s:2195   .text.netconn_recv_udp_raw_netbuf_flags:000000000000003c .L187
C:\Users\stapi\AppData\Local\Temp\cc5wRCGd.s:2189   .text.netconn_recv_udp_raw_netbuf_flags:000000000000003a .L188
C:\Users\stapi\AppData\Local\Temp\cc5wRCGd.s:2340   .text.netconn_recv_data_tcp:0000000000000092 .L194
C:\Users\stapi\AppData\Local\Temp\cc5wRCGd.s:2281   .text.netconn_recv_data_tcp:0000000000000048 .L195
C:\Users\stapi\AppData\Local\Temp\cc5wRCGd.s:2261   .text.netconn_recv_data_tcp:0000000000000032 .L199
C:\Users\stapi\AppData\Local\Temp\cc5wRCGd.s:2354   .text.netconn_recv_data_tcp:000000000000009e .L200
C:\Users\stapi\AppData\Local\Temp\cc5wRCGd.s:2319   .text.netconn_recv_data_tcp:0000000000000078 .L197
C:\Users\stapi\AppData\Local\Temp\cc5wRCGd.s:2311   .text.netconn_recv_data_tcp:000000000000006c .L198
C:\Users\stapi\AppData\Local\Temp\cc5wRCGd.s:2251   .text.netconn_recv_data_tcp:0000000000000026 .L196
C:\Users\stapi\AppData\Local\Temp\cc5wRCGd.s:2388   .text.netconn_recv_tcp_pbuf:0000000000000016 .L211
C:\Users\stapi\AppData\Local\Temp\cc5wRCGd.s:2408   .text.netconn_recv_tcp_pbuf:000000000000003c .L212
C:\Users\stapi\AppData\Local\Temp\cc5wRCGd.s:2402   .text.netconn_recv_tcp_pbuf:000000000000003a .L213
C:\Users\stapi\AppData\Local\Temp\cc5wRCGd.s:2443   .text.netconn_recv_tcp_pbuf_flags:0000000000000016 .L219
C:\Users\stapi\AppData\Local\Temp\cc5wRCGd.s:2464   .text.netconn_recv_tcp_pbuf_flags:000000000000003c .L220
C:\Users\stapi\AppData\Local\Temp\cc5wRCGd.s:2458   .text.netconn_recv_tcp_pbuf_flags:000000000000003a .L221
C:\Users\stapi\AppData\Local\Temp\cc5wRCGd.s:2480   .rodata.netconn_recv.str1.4:0000000000000000 .LC26
C:\Users\stapi\AppData\Local\Temp\cc5wRCGd.s:2526   .text.netconn_recv:0000000000000032 .L227
C:\Users\stapi\AppData\Local\Temp\cc5wRCGd.s:2520   .text.netconn_recv:0000000000000030 .L228
C:\Users\stapi\AppData\Local\Temp\cc5wRCGd.s:2556   .text.netconn_recv:0000000000000062 .L229
C:\Users\stapi\AppData\Local\Temp\cc5wRCGd.s:2550   .text.netconn_recv:0000000000000060 .L230
C:\Users\stapi\AppData\Local\Temp\cc5wRCGd.s:2668   .text.netconn_recv:00000000000000e8 .L231
C:\Users\stapi\AppData\Local\Temp\cc5wRCGd.s:2662   .text.netconn_recv:00000000000000e4 .L237
C:\Users\stapi\AppData\Local\Temp\cc5wRCGd.s:2616   .text.netconn_recv:00000000000000a8 .L233
C:\Users\stapi\AppData\Local\Temp\cc5wRCGd.s:2641   .text.netconn_recv:00000000000000d2 .L234
C:\Users\stapi\AppData\Local\Temp\cc5wRCGd.s:2635   .text.netconn_recv:00000000000000d0 .L235
C:\Users\stapi\AppData\Local\Temp\cc5wRCGd.s:2602   .text.netconn_recv:000000000000009c .L236
C:\Users\stapi\AppData\Local\Temp\cc5wRCGd.s:2706   .rodata.netconn_join_leave_group.str1.4:0000000000000000 .LC27
C:\Users\stapi\AppData\Local\Temp\cc5wRCGd.s:2750   .text.netconn_join_leave_group:0000000000000032 .L244
C:\Users\stapi\AppData\Local\Temp\cc5wRCGd.s:2744   .text.netconn_join_leave_group:0000000000000030 .L245
C:\Users\stapi\AppData\Local\Temp\cc5wRCGd.s:2761   .text.netconn_join_leave_group:000000000000003c .L246
C:\Users\stapi\AppData\Local\Temp\cc5wRCGd.s:2770   .text.netconn_join_leave_group:0000000000000046 .L247
C:\Users\stapi\AppData\Local\Temp\cc5wRCGd.s:2848   .text.netconn_join_leave_group_netif:0000000000000032 .L250
C:\Users\stapi\AppData\Local\Temp\cc5wRCGd.s:2842   .text.netconn_join_leave_group_netif:0000000000000030 .L251
C:\Users\stapi\AppData\Local\Temp\cc5wRCGd.s:2860   .text.netconn_join_leave_group_netif:000000000000003e .L252
C:\Users\stapi\AppData\Local\Temp\cc5wRCGd.s:2892   .text.netconn_join_leave_group_netif:000000000000005e .L253
C:\Users\stapi\AppData\Local\Temp\cc5wRCGd.s:2904   .rodata.netconn_gethostbyname.str1.4:0000000000000000 .LC28
C:\Users\stapi\AppData\Local\Temp\cc5wRCGd.s:2907   .rodata.netconn_gethostbyname.str1.4:0000000000000024 .LC29
C:\Users\stapi\AppData\Local\Temp\cc5wRCGd.s:2952   .text.netconn_gethostbyname:0000000000000032 .L257
C:\Users\stapi\AppData\Local\Temp\cc5wRCGd.s:2946   .text.netconn_gethostbyname:0000000000000030 .L258
C:\Users\stapi\AppData\Local\Temp\cc5wRCGd.s:2977   .text.netconn_gethostbyname:000000000000005a .L259
C:\Users\stapi\AppData\Local\Temp\cc5wRCGd.s:2971   .text.netconn_gethostbyname:0000000000000058 .L260
C:\Users\stapi\AppData\Local\Temp\cc5wRCGd.s:3035   .text.netconn_gethostbyname:00000000000000a2 .L261
C:\Users\stapi\AppData\Local\Temp\cc5wRCGd.s:8679   .debug_abbrev:0000000000000000 .Ldebug_abbrev0
C:\Users\stapi\AppData\Local\Temp\cc5wRCGd.s:13213  .debug_str:0000000000000de0 .LASF292
C:\Users\stapi\AppData\Local\Temp\cc5wRCGd.s:13159  .debug_str:0000000000000c39 .LASF293
C:\Users\stapi\AppData\Local\Temp\cc5wRCGd.s:12893  .debug_str:00000000000005b1 .LASF294
C:\Users\stapi\AppData\Local\Temp\cc5wRCGd.s:12553  .debug_ranges:0000000000000000 .Ldebug_ranges0
C:\Users\stapi\AppData\Local\Temp\cc5wRCGd.s:12645  .debug_line:0000000000000000 .Ldebug_line0
C:\Users\stapi\AppData\Local\Temp\cc5wRCGd.s:12975  .debug_str:0000000000000833 .LASF0
C:\Users\stapi\AppData\Local\Temp\cc5wRCGd.s:13181  .debug_str:0000000000000d27 .LASF2
C:\Users\stapi\AppData\Local\Temp\cc5wRCGd.s:13057  .debug_str:00000000000009d1 .LASF1
C:\Users\stapi\AppData\Local\Temp\cc5wRCGd.s:13123  .debug_str:0000000000000b74 .LASF3
C:\Users\stapi\AppData\Local\Temp\cc5wRCGd.s:12937  .debug_str:0000000000000725 .LASF4
C:\Users\stapi\AppData\Local\Temp\cc5wRCGd.s:13011  .debug_str:00000000000008e0 .LASF5
C:\Users\stapi\AppData\Local\Temp\cc5wRCGd.s:12779  .debug_str:000000000000033c .LASF6
C:\Users\stapi\AppData\Local\Temp\cc5wRCGd.s:13189  .debug_str:0000000000000d4e .LASF7
C:\Users\stapi\AppData\Local\Temp\cc5wRCGd.s:13017  .debug_str:00000000000008fe .LASF8
C:\Users\stapi\AppData\Local\Temp\cc5wRCGd.s:13125  .debug_str:0000000000000b82 .LASF9
C:\Users\stapi\AppData\Local\Temp\cc5wRCGd.s:13089  .debug_str:0000000000000a8b .LASF10
C:\Users\stapi\AppData\Local\Temp\cc5wRCGd.s:12915  .debug_str:00000000000006a6 .LASF11
C:\Users\stapi\AppData\Local\Temp\cc5wRCGd.s:12771  .debug_str:0000000000000308 .LASF12
C:\Users\stapi\AppData\Local\Temp\cc5wRCGd.s:12691  .debug_str:00000000000000f7 .LASF13
C:\Users\stapi\AppData\Local\Temp\cc5wRCGd.s:12743  .debug_str:0000000000000244 .LASF14
C:\Users\stapi\AppData\Local\Temp\cc5wRCGd.s:12885  .debug_str:0000000000000586 .LASF15
C:\Users\stapi\AppData\Local\Temp\cc5wRCGd.s:12763  .debug_str:00000000000002d8 .LASF16
C:\Users\stapi\AppData\Local\Temp\cc5wRCGd.s:12985  .debug_str:000000000000086a .LASF17
C:\Users\stapi\AppData\Local\Temp\cc5wRCGd.s:12741  .debug_str:000000000000023b .LASF18
C:\Users\stapi\AppData\Local\Temp\cc5wRCGd.s:12815  .debug_str:0000000000000418 .LASF19
C:\Users\stapi\AppData\Local\Temp\cc5wRCGd.s:13179  .debug_str:0000000000000d1e .LASF20
C:\Users\stapi\AppData\Local\Temp\cc5wRCGd.s:12867  .debug_str:0000000000000523 .LASF21
C:\Users\stapi\AppData\Local\Temp\cc5wRCGd.s:12879  .debug_str:000000000000056a .LASF22
C:\Users\stapi\AppData\Local\Temp\cc5wRCGd.s:12933  .debug_str:0000000000000714 .LASF23
C:\Users\stapi\AppData\Local\Temp\cc5wRCGd.s:12839  .debug_str:0000000000000484 .LASF24
C:\Users\stapi\AppData\Local\Temp\cc5wRCGd.s:12707  .debug_str:000000000000014b .LASF25
C:\Users\stapi\AppData\Local\Temp\cc5wRCGd.s:13095  .debug_str:0000000000000ab2 .LASF26
C:\Users\stapi\AppData\Local\Temp\cc5wRCGd.s:13009  .debug_str:00000000000008da .LASF27
C:\Users\stapi\AppData\Local\Temp\cc5wRCGd.s:13173  .debug_str:0000000000000d01 .LASF28
C:\Users\stapi\AppData\Local\Temp\cc5wRCGd.s:13235  .debug_str:0000000000000f55 .LASF29
C:\Users\stapi\AppData\Local\Temp\cc5wRCGd.s:13003  .debug_str:00000000000008bf .LASF30
C:\Users\stapi\AppData\Local\Temp\cc5wRCGd.s:12847  .debug_str:00000000000004bb .LASF31
C:\Users\stapi\AppData\Local\Temp\cc5wRCGd.s:13205  .debug_str:0000000000000db2 .LASF32
C:\Users\stapi\AppData\Local\Temp\cc5wRCGd.s:13047  .debug_str:000000000000099f .LASF33
C:\Users\stapi\AppData\Local\Temp\cc5wRCGd.s:12789  .debug_str:0000000000000373 .LASF34
C:\Users\stapi\AppData\Local\Temp\cc5wRCGd.s:12845  .debug_str:00000000000004ac .LASF35
C:\Users\stapi\AppData\Local\Temp\cc5wRCGd.s:12679  .debug_str:00000000000000c1 .LASF36
C:\Users\stapi\AppData\Local\Temp\cc5wRCGd.s:12735  .debug_str:000000000000021b .LASF37
C:\Users\stapi\AppData\Local\Temp\cc5wRCGd.s:13061  .debug_str:00000000000009e7 .LASF38
C:\Users\stapi\AppData\Local\Temp\cc5wRCGd.s:13195  .debug_str:0000000000000d78 .LASF39
C:\Users\stapi\AppData\Local\Temp\cc5wRCGd.s:12927  .debug_str:00000000000006f0 .LASF40
C:\Users\stapi\AppData\Local\Temp\cc5wRCGd.s:13163  .debug_str:0000000000000cd2 .LASF41
C:\Users\stapi\AppData\Local\Temp\cc5wRCGd.s:12729  .debug_str:00000000000001ed .LASF42
C:\Users\stapi\AppData\Local\Temp\cc5wRCGd.s:12677  .debug_str:00000000000000b8 .LASF43
C:\Users\stapi\AppData\Local\Temp\cc5wRCGd.s:12681  .debug_str:00000000000000c9 .LASF44
C:\Users\stapi\AppData\Local\Temp\cc5wRCGd.s:12699  .debug_str:000000000000012b .LASF45
C:\Users\stapi\AppData\Local\Temp\cc5wRCGd.s:12827  .debug_str:0000000000000454 .LASF52
C:\Users\stapi\AppData\Local\Temp\cc5wRCGd.s:12695  .debug_str:0000000000000112 .LASF46
C:\Users\stapi\AppData\Local\Temp\cc5wRCGd.s:12817  .debug_str:000000000000041f .LASF47
C:\Users\stapi\AppData\Local\Temp\cc5wRCGd.s:12811  .debug_str:0000000000000409 .LASF48
C:\Users\stapi\AppData\Local\Temp\cc5wRCGd.s:12809  .debug_str:00000000000003fb .LASF49
C:\Users\stapi\AppData\Local\Temp\cc5wRCGd.s:12675  .debug_str:00000000000000b2 .LASF50
C:\Users\stapi\AppData\Local\Temp\cc5wRCGd.s:12993  .debug_str:000000000000088d .LASF51
C:\Users\stapi\AppData\Local\Temp\cc5wRCGd.s:13053  .debug_str:00000000000009c3 .LASF53
C:\Users\stapi\AppData\Local\Temp\cc5wRCGd.s:13155  .debug_str:0000000000000c2e .LASF54
C:\Users\stapi\AppData\Local\Temp\cc5wRCGd.s:13015  .debug_str:00000000000008f3 .LASF55
C:\Users\stapi\AppData\Local\Temp\cc5wRCGd.s:13211  .debug_str:0000000000000dd6 .LASF56
C:\Users\stapi\AppData\Local\Temp\cc5wRCGd.s:12761  .debug_str:00000000000002cc .LASF295
C:\Users\stapi\AppData\Local\Temp\cc5wRCGd.s:12865  .debug_str:000000000000051c .LASF57
C:\Users\stapi\AppData\Local\Temp\cc5wRCGd.s:13099  .debug_str:0000000000000ace .LASF58
C:\Users\stapi\AppData\Local\Temp\cc5wRCGd.s:13069  .debug_str:0000000000000a0d .LASF59
C:\Users\stapi\AppData\Local\Temp\cc5wRCGd.s:12965  .debug_str:00000000000007e6 .LASF60
C:\Users\stapi\AppData\Local\Temp\cc5wRCGd.s:13087  .debug_str:0000000000000a80 .LASF61
C:\Users\stapi\AppData\Local\Temp\cc5wRCGd.s:12831  .debug_str:0000000000000461 .LASF62
C:\Users\stapi\AppData\Local\Temp\cc5wRCGd.s:12995  .debug_str:0000000000000894 .LASF69
C:\Users\stapi\AppData\Local\Temp\cc5wRCGd.s:12775  .debug_str:0000000000000326 .LASF63
C:\Users\stapi\AppData\Local\Temp\cc5wRCGd.s:13137  .debug_str:0000000000000bca .LASF64
C:\Users\stapi\AppData\Local\Temp\cc5wRCGd.s:12803  .debug_str:00000000000003d8 .LASF65
C:\Users\stapi\AppData\Local\Temp\cc5wRCGd.s:13197  .debug_str:0000000000000d81 .LASF66
C:\Users\stapi\AppData\Local\Temp\cc5wRCGd.s:12697  .debug_str:0000000000000117 .LASF67
C:\Users\stapi\AppData\Local\Temp\cc5wRCGd.s:13193  .debug_str:0000000000000d6c .LASF68
C:\Users\stapi\AppData\Local\Temp\cc5wRCGd.s:12731  .debug_str:00000000000001f5 .LASF70
C:\Users\stapi\AppData\Local\Temp\cc5wRCGd.s:12987  .debug_str:0000000000000873 .LASF71
C:\Users\stapi\AppData\Local\Temp\cc5wRCGd.s:12693  .debug_str:0000000000000104 .LASF72
C:\Users\stapi\AppData\Local\Temp\cc5wRCGd.s:13145  .debug_str:0000000000000bee .LASF73
C:\Users\stapi\AppData\Local\Temp\cc5wRCGd.s:12997  .debug_str:00000000000008a1 .LASF74
C:\Users\stapi\AppData\Local\Temp\cc5wRCGd.s:13175  .debug_str:0000000000000d08 .LASF75
C:\Users\stapi\AppData\Local\Temp\cc5wRCGd.s:13109  .debug_str:0000000000000b17 .LASF76
C:\Users\stapi\AppData\Local\Temp\cc5wRCGd.s:12799  .debug_str:00000000000003b9 .LASF77
C:\Users\stapi\AppData\Local\Temp\cc5wRCGd.s:12849  .debug_str:00000000000004c7 .LASF78
C:\Users\stapi\AppData\Local\Temp\cc5wRCGd.s:12843  .debug_str:0000000000000497 .LASF79
C:\Users\stapi\AppData\Local\Temp\cc5wRCGd.s:12781  .debug_str:0000000000000347 .LASF80
C:\Users\stapi\AppData\Local\Temp\cc5wRCGd.s:12755  .debug_str:0000000000000293 .LASF81
C:\Users\stapi\AppData\Local\Temp\cc5wRCGd.s:13225  .debug_str:0000000000000f0b .LASF82
C:\Users\stapi\AppData\Local\Temp\cc5wRCGd.s:12649  .debug_str:000000000000000d .LASF83
C:\Users\stapi\AppData\Local\Temp\cc5wRCGd.s:12841  .debug_str:0000000000000489 .LASF84
C:\Users\stapi\AppData\Local\Temp\cc5wRCGd.s:13113  .debug_str:0000000000000b33 .LASF85
C:\Users\stapi\AppData\Local\Temp\cc5wRCGd.s:13215  .debug_str:0000000000000ed9 .LASF86
C:\Users\stapi\AppData\Local\Temp\cc5wRCGd.s:13119  .debug_str:0000000000000b68 .LASF87
C:\Users\stapi\AppData\Local\Temp\cc5wRCGd.s:13157  .debug_str:0000000000000c33 .LASF88
C:\Users\stapi\AppData\Local\Temp\cc5wRCGd.s:13229  .debug_str:0000000000000f37 .LASF89
C:\Users\stapi\AppData\Local\Temp\cc5wRCGd.s:13207  .debug_str:0000000000000dba .LASF90
C:\Users\stapi\AppData\Local\Temp\cc5wRCGd.s:12685  .debug_str:00000000000000dc .LASF91
C:\Users\stapi\AppData\Local\Temp\cc5wRCGd.s:12899  .debug_str:0000000000000642 .LASF92
C:\Users\stapi\AppData\Local\Temp\cc5wRCGd.s:13049  .debug_str:00000000000009ae .LASF93
C:\Users\stapi\AppData\Local\Temp\cc5wRCGd.s:13171  .debug_str:0000000000000cf4 .LASF94
C:\Users\stapi\AppData\Local\Temp\cc5wRCGd.s:13033  .debug_str:0000000000000943 .LASF95
C:\Users\stapi\AppData\Local\Temp\cc5wRCGd.s:12961  .debug_str:00000000000007ce .LASF96
C:\Users\stapi\AppData\Local\Temp\cc5wRCGd.s:13135  .debug_str:0000000000000bc3 .LASF97
C:\Users\stapi\AppData\Local\Temp\cc5wRCGd.s:13041  .debug_str:0000000000000978 .LASF98
C:\Users\stapi\AppData\Local\Temp\cc5wRCGd.s:13201  .debug_str:0000000000000d9d .LASF99
C:\Users\stapi\AppData\Local\Temp\cc5wRCGd.s:12655  .debug_str:0000000000000036 .LASF100
C:\Users\stapi\AppData\Local\Temp\cc5wRCGd.s:12657  .debug_str:0000000000000040 .LASF101
C:\Users\stapi\AppData\Local\Temp\cc5wRCGd.s:13187  .debug_str:0000000000000d46 .LASF102
C:\Users\stapi\AppData\Local\Temp\cc5wRCGd.s:13147  .debug_str:0000000000000bfd .LASF103
C:\Users\stapi\AppData\Local\Temp\cc5wRCGd.s:12857  .debug_str:00000000000004fb .LASF104
C:\Users\stapi\AppData\Local\Temp\cc5wRCGd.s:12683  .debug_str:00000000000000d1 .LASF105
C:\Users\stapi\AppData\Local\Temp\cc5wRCGd.s:12947  .debug_str:0000000000000776 .LASF106
C:\Users\stapi\AppData\Local\Temp\cc5wRCGd.s:12671  .debug_str:000000000000009c .LASF107
C:\Users\stapi\AppData\Local\Temp\cc5wRCGd.s:12859  .debug_str:0000000000000500 .LASF108
C:\Users\stapi\AppData\Local\Temp\cc5wRCGd.s:13037  .debug_str:0000000000000960 .LASF109
C:\Users\stapi\AppData\Local\Temp\cc5wRCGd.s:12793  .debug_str:0000000000000392 .LASF110
C:\Users\stapi\AppData\Local\Temp\cc5wRCGd.s:13029  .debug_str:0000000000000934 .LASF111
C:\Users\stapi\AppData\Local\Temp\cc5wRCGd.s:12959  .debug_str:00000000000007c2 .LASF112
C:\Users\stapi\AppData\Local\Temp\cc5wRCGd.s:12711  .debug_str:000000000000015b .LASF113
C:\Users\stapi\AppData\Local\Temp\cc5wRCGd.s:12823  .debug_str:0000000000000438 .LASF114
C:\Users\stapi\AppData\Local\Temp\cc5wRCGd.s:12785  .debug_str:0000000000000368 .LASF115
C:\Users\stapi\AppData\Local\Temp\cc5wRCGd.s:13031  .debug_str:000000000000093c .LASF116
C:\Users\stapi\AppData\Local\Temp\cc5wRCGd.s:12777  .debug_str:0000000000000336 .LASF117
C:\Users\stapi\AppData\Local\Temp\cc5wRCGd.s:13231  .debug_str:0000000000000f43 .LASF118
C:\Users\stapi\AppData\Local\Temp\cc5wRCGd.s:12851  .debug_str:00000000000004dc .LASF119
C:\Users\stapi\AppData\Local\Temp\cc5wRCGd.s:12835  .debug_str:0000000000000473 .LASF120
C:\Users\stapi\AppData\Local\Temp\cc5wRCGd.s:12747  .debug_str:0000000000000264 .LASF121
C:\Users\stapi\AppData\Local\Temp\cc5wRCGd.s:13075  .debug_str:0000000000000a35 .LASF122
C:\Users\stapi\AppData\Local\Temp\cc5wRCGd.s:13117  .debug_str:0000000000000b60 .LASF123
C:\Users\stapi\AppData\Local\Temp\cc5wRCGd.s:13183  .debug_str:0000000000000d33 .LASF124
C:\Users\stapi\AppData\Local\Temp\cc5wRCGd.s:12887  .debug_str:000000000000058e .LASF125
C:\Users\stapi\AppData\Local\Temp\cc5wRCGd.s:12889  .debug_str:0000000000000596 .LASF126
C:\Users\stapi\AppData\Local\Temp\cc5wRCGd.s:12907  .debug_str:000000000000067e .LASF127
C:\Users\stapi\AppData\Local\Temp\cc5wRCGd.s:12991  .debug_str:0000000000000885 .LASF128
C:\Users\stapi\AppData\Local\Temp\cc5wRCGd.s:13063  .debug_str:00000000000009f2 .LASF129
C:\Users\stapi\AppData\Local\Temp\cc5wRCGd.s:13077  .debug_str:0000000000000a3e .LASF130
C:\Users\stapi\AppData\Local\Temp\cc5wRCGd.s:13233  .debug_str:0000000000000f48 .LASF131
C:\Users\stapi\AppData\Local\Temp\cc5wRCGd.s:13045  .debug_str:000000000000098f .LASF132
C:\Users\stapi\AppData\Local\Temp\cc5wRCGd.s:12983  .debug_str:000000000000085e .LASF133
C:\Users\stapi\AppData\Local\Temp\cc5wRCGd.s:13027  .debug_str:000000000000092d .LASF134
C:\Users\stapi\AppData\Local\Temp\cc5wRCGd.s:13129  .debug_str:0000000000000b98 .LASF135
C:\Users\stapi\AppData\Local\Temp\cc5wRCGd.s:12999  .debug_str:00000000000008b1 .LASF136
C:\Users\stapi\AppData\Local\Temp\cc5wRCGd.s:13103  .debug_str:0000000000000ae6 .LASF137
C:\Users\stapi\AppData\Local\Temp\cc5wRCGd.s:12669  .debug_str:0000000000000093 .LASF138
C:\Users\stapi\AppData\Local\Temp\cc5wRCGd.s:12883  .debug_str:0000000000000581 .LASF139
C:\Users\stapi\AppData\Local\Temp\cc5wRCGd.s:12787  .debug_str:000000000000036e .LASF140
C:\Users\stapi\AppData\Local\Temp\cc5wRCGd.s:12821  .debug_str:000000000000042e .LASF141
C:\Users\stapi\AppData\Local\Temp\cc5wRCGd.s:12863  .debug_str:0000000000000517 .LASF142
C:\Users\stapi\AppData\Local\Temp\cc5wRCGd.s:12989  .debug_str:0000000000000880 .LASF143
C:\Users\stapi\AppData\Local\Temp\cc5wRCGd.s:13143  .debug_str:0000000000000be4 .LASF144
C:\Users\stapi\AppData\Local\Temp\cc5wRCGd.s:13199  .debug_str:0000000000000d91 .LASF145
C:\Users\stapi\AppData\Local\Temp\cc5wRCGd.s:12929  .debug_str:00000000000006f7 .LASF146
C:\Users\stapi\AppData\Local\Temp\cc5wRCGd.s:12665  .debug_str:0000000000000080 .LASF147
C:\Users\stapi\AppData\Local\Temp\cc5wRCGd.s:12721  .debug_str:00000000000001bb .LASF148
C:\Users\stapi\AppData\Local\Temp\cc5wRCGd.s:12853  .debug_str:00000000000004e4 .LASF149
C:\Users\stapi\AppData\Local\Temp\cc5wRCGd.s:13091  .debug_str:0000000000000a9d .LASF150
C:\Users\stapi\AppData\Local\Temp\cc5wRCGd.s:12651  .debug_str:000000000000001a .LASF151
C:\Users\stapi\AppData\Local\Temp\cc5wRCGd.s:12875  .debug_str:000000000000054e .LASF152
C:\Users\stapi\AppData\Local\Temp\cc5wRCGd.s:13051  .debug_str:00000000000009b5 .LASF153
C:\Users\stapi\AppData\Local\Temp\cc5wRCGd.s:12709  .debug_str:0000000000000151 .LASF154
C:\Users\stapi\AppData\Local\Temp\cc5wRCGd.s:12725  .debug_str:00000000000001d8 .LASF155
C:\Users\stapi\AppData\Local\Temp\cc5wRCGd.s:12687  .debug_str:00000000000000e5 .LASF156
C:\Users\stapi\AppData\Local\Temp\cc5wRCGd.s:12713  .debug_str:000000000000016e .LASF157
C:\Users\stapi\AppData\Local\Temp\cc5wRCGd.s:12909  .debug_str:0000000000000686 .LASF158
C:\Users\stapi\AppData\Local\Temp\cc5wRCGd.s:12661  .debug_str:000000000000006d .LASF159
C:\Users\stapi\AppData\Local\Temp\cc5wRCGd.s:13023  .debug_str:0000000000000918 .LASF160
C:\Users\stapi\AppData\Local\Temp\cc5wRCGd.s:13081  .debug_str:0000000000000a53 .LASF161
C:\Users\stapi\AppData\Local\Temp\cc5wRCGd.s:13039  .debug_str:000000000000096b .LASF162
C:\Users\stapi\AppData\Local\Temp\cc5wRCGd.s:12931  .debug_str:0000000000000707 .LASF163
C:\Users\stapi\AppData\Local\Temp\cc5wRCGd.s:12653  .debug_str:0000000000000022 .LASF164
C:\Users\stapi\AppData\Local\Temp\cc5wRCGd.s:13131  .debug_str:0000000000000ba0 .LASF165
C:\Users\stapi\AppData\Local\Temp\cc5wRCGd.s:12973  .debug_str:0000000000000824 .LASF166
C:\Users\stapi\AppData\Local\Temp\cc5wRCGd.s:12963  .debug_str:00000000000007d7 .LASF167
C:\Users\stapi\AppData\Local\Temp\cc5wRCGd.s:13073  .debug_str:0000000000000a26 .LASF168
C:\Users\stapi\AppData\Local\Temp\cc5wRCGd.s:12913  .debug_str:000000000000069a .LASF169
C:\Users\stapi\AppData\Local\Temp\cc5wRCGd.s:13223  .debug_str:0000000000000efe .LASF170
C:\Users\stapi\AppData\Local\Temp\cc5wRCGd.s:12753  .debug_str:0000000000000280 .LASF171
C:\Users\stapi\AppData\Local\Temp\cc5wRCGd.s:12795  .debug_str:000000000000039a .LASF172
C:\Users\stapi\AppData\Local\Temp\cc5wRCGd.s:12749  .debug_str:0000000000000269 .LASF173
C:\Users\stapi\AppData\Local\Temp\cc5wRCGd.s:13035  .debug_str:000000000000094f .LASF174
C:\Users\stapi\AppData\Local\Temp\cc5wRCGd.s:13217  .debug_str:0000000000000ee1 .LASF175
C:\Users\stapi\AppData\Local\Temp\cc5wRCGd.s:12861  .debug_str:000000000000050d .LASF176
C:\Users\stapi\AppData\Local\Temp\cc5wRCGd.s:12723  .debug_str:00000000000001c9 .LASF177
C:\Users\stapi\AppData\Local\Temp\cc5wRCGd.s:12837  .debug_str:000000000000047b .LASF178
C:\Users\stapi\AppData\Local\Temp\cc5wRCGd.s:12935  .debug_str:0000000000000719 .LASF179
C:\Users\stapi\AppData\Local\Temp\cc5wRCGd.s:13007  .debug_str:00000000000008ce .LASF180
C:\Users\stapi\AppData\Local\Temp\cc5wRCGd.s:12825  .debug_str:0000000000000442 .LASF181
C:\Users\stapi\AppData\Local\Temp\cc5wRCGd.s:12871  .debug_str:0000000000000533 .LASF182
C:\Users\stapi\AppData\Local\Temp\cc5wRCGd.s:12813  .debug_str:0000000000000411 .LASF183
C:\Users\stapi\AppData\Local\Temp\cc5wRCGd.s:12701  .debug_str:0000000000000131 .LASF184
C:\Users\stapi\AppData\Local\Temp\cc5wRCGd.s:12773  .debug_str:000000000000031f .LASF185
C:\Users\stapi\AppData\Local\Temp\cc5wRCGd.s:13025  .debug_str:0000000000000922 .LASF186
C:\Users\stapi\AppData\Local\Temp\cc5wRCGd.s:13185  .debug_str:0000000000000d3b .LASF187
C:\Users\stapi\AppData\Local\Temp\cc5wRCGd.s:12819  .debug_str:0000000000000427 .LASF188
C:\Users\stapi\AppData\Local\Temp\cc5wRCGd.s:13013  .debug_str:00000000000008ea .LASF189
C:\Users\stapi\AppData\Local\Temp\cc5wRCGd.s:13141  .debug_str:0000000000000bdf .LASF190
C:\Users\stapi\AppData\Local\Temp\cc5wRCGd.s:13093  .debug_str:0000000000000aa7 .LASF191
C:\Users\stapi\AppData\Local\Temp\cc5wRCGd.s:13167  .debug_str:0000000000000ce2 .LASF192
C:\Users\stapi\AppData\Local\Temp\cc5wRCGd.s:13191  .debug_str:0000000000000d61 .LASF193
C:\Users\stapi\AppData\Local\Temp\cc5wRCGd.s:12739  .debug_str:000000000000022d .LASF194
C:\Users\stapi\AppData\Local\Temp\cc5wRCGd.s:12703  .debug_str:0000000000000137 .LASF195
C:\Users\stapi\AppData\Local\Temp\cc5wRCGd.s:13065  .debug_str:00000000000009fe .LASF196
C:\Users\stapi\AppData\Local\Temp\cc5wRCGd.s:13107  .debug_str:0000000000000b09 .LASF197
C:\Users\stapi\AppData\Local\Temp\cc5wRCGd.s:13219  .debug_str:0000000000000eec .LASF198
C:\Users\stapi\AppData\Local\Temp\cc5wRCGd.s:13005  .debug_str:00000000000008c7 .LASF199
C:\Users\stapi\AppData\Local\Temp\cc5wRCGd.s:13149  .debug_str:0000000000000c0a .LASF200
C:\Users\stapi\AppData\Local\Temp\cc5wRCGd.s:13139  .debug_str:0000000000000bd6 .LASF201
C:\Users\stapi\AppData\Local\Temp\cc5wRCGd.s:13239  .debug_str:0000000000000f62 .LASF202
C:\Users\stapi\AppData\Local\Temp\cc5wRCGd.s:13059  .debug_str:00000000000009db .LASF203
C:\Users\stapi\AppData\Local\Temp\cc5wRCGd.s:12801  .debug_str:00000000000003cd .LASF204
C:\Users\stapi\AppData\Local\Temp\cc5wRCGd.s:13127  .debug_str:0000000000000b8d .LASF205
C:\Users\stapi\AppData\Local\Temp\cc5wRCGd.s:12869  .debug_str:0000000000000528 .LASF206
C:\Users\stapi\AppData\Local\Temp\cc5wRCGd.s:12829  .debug_str:0000000000000459 .LASF207
C:\Users\stapi\AppData\Local\Temp\cc5wRCGd.s:12807  .debug_str:00000000000003f2 .LASF208
C:\Users\stapi\AppData\Local\Temp\cc5wRCGd.s:12689  .debug_str:00000000000000ed .LASF209
C:\Users\stapi\AppData\Local\Temp\cc5wRCGd.s:12673  .debug_str:00000000000000a4 .LASF210
C:\Users\stapi\AppData\Local\Temp\cc5wRCGd.s:12967  .debug_str:00000000000007f1 .LASF211
C:\Users\stapi\AppData\Local\Temp\cc5wRCGd.s:12727  .debug_str:00000000000001e1 .LASF212
C:\Users\stapi\AppData\Local\Temp\cc5wRCGd.s:12981  .debug_str:0000000000000852 .LASF213
C:\Users\stapi\AppData\Local\Temp\cc5wRCGd.s:12897  .debug_str:0000000000000637 .LASF214
C:\Users\stapi\AppData\Local\Temp\cc5wRCGd.s:12757  .debug_str:00000000000002a5 .LASF215
C:\Users\stapi\AppData\Local\Temp\cc5wRCGd.s:12881  .debug_str:0000000000000572 .LASF216
C:\Users\stapi\AppData\Local\Temp\cc5wRCGd.s:13055  .debug_str:00000000000009cc .LASF217
C:\Users\stapi\AppData\Local\Temp\cc5wRCGd.s:12905  .debug_str:0000000000000678 .LASF218
C:\Users\stapi\AppData\Local\Temp\cc5wRCGd.s:12919  .debug_str:00000000000006c8 .LASF219
C:\Users\stapi\AppData\Local\Temp\cc5wRCGd.s:12751  .debug_str:0000000000000279 .LASF220
C:\Users\stapi\AppData\Local\Temp\cc5wRCGd.s:12969  .debug_str:00000000000007fd .LASF221
C:\Users\stapi\AppData\Local\Temp\cc5wRCGd.s:12769  .debug_str:0000000000000300 .LASF222
C:\Users\stapi\AppData\Local\Temp\cc5wRCGd.s:13121  .debug_str:0000000000000b6d .LASF223
C:\Users\stapi\AppData\Local\Temp\cc5wRCGd.s:13001  .debug_str:00000000000008b7 .LASF224
C:\Users\stapi\AppData\Local\Temp\cc5wRCGd.s:13237  .debug_str:0000000000000f5d .LASF225
C:\Users\stapi\AppData\Local\Temp\cc5wRCGd.s:12737  .debug_str:0000000000000227 .LASF226
C:\Users\stapi\AppData\Local\Temp\cc5wRCGd.s:12925  .debug_str:00000000000006ea .LASF227
C:\Users\stapi\AppData\Local\Temp\cc5wRCGd.s:13083  .debug_str:0000000000000a60 .LASF228
C:\Users\stapi\AppData\Local\Temp\cc5wRCGd.s:13165  .debug_str:0000000000000cdb .LASF229
C:\Users\stapi\AppData\Local\Temp\cc5wRCGd.s:12667  .debug_str:000000000000008e .LASF230
C:\Users\stapi\AppData\Local\Temp\cc5wRCGd.s:12759  .debug_str:00000000000002b6 .LASF232
C:\Users\stapi\AppData\Local\Temp\cc5wRCGd.s:2914   .text.netconn_gethostbyname:0000000000000000 .LFB34
C:\Users\stapi\AppData\Local\Temp\cc5wRCGd.s:3045   .text.netconn_gethostbyname:00000000000000ae .LFE34
C:\Users\stapi\AppData\Local\Temp\cc5wRCGd.s:9800   .debug_loc:0000000000000000 .LLST109
C:\Users\stapi\AppData\Local\Temp\cc5wRCGd.s:9840   .debug_loc:000000000000005e .LLST110
C:\Users\stapi\AppData\Local\Temp\cc5wRCGd.s:12957  .debug_str:00000000000007bc .LASF231
C:\Users\stapi\AppData\Local\Temp\cc5wRCGd.s:9881   .debug_loc:00000000000000bd .LLST111
C:\Users\stapi\AppData\Local\Temp\cc5wRCGd.s:2945   .text.netconn_gethostbyname:0000000000000030 .LVL319
C:\Users\stapi\AppData\Local\Temp\cc5wRCGd.s:2970   .text.netconn_gethostbyname:0000000000000058 .LVL323
C:\Users\stapi\AppData\Local\Temp\cc5wRCGd.s:3005   .text.netconn_gethostbyname:0000000000000074 .LVL327
C:\Users\stapi\AppData\Local\Temp\cc5wRCGd.s:3020   .text.netconn_gethostbyname:0000000000000090 .LVL328
C:\Users\stapi\AppData\Local\Temp\cc5wRCGd.s:3026   .text.netconn_gethostbyname:000000000000009c .LVL330
C:\Users\stapi\AppData\Local\Temp\cc5wRCGd.s:13227  .debug_str:0000000000000f18 .LASF233
C:\Users\stapi\AppData\Local\Temp\cc5wRCGd.s:2811   .text.netconn_join_leave_group_netif:0000000000000000 .LFB33
C:\Users\stapi\AppData\Local\Temp\cc5wRCGd.s:2900   .text.netconn_join_leave_group_netif:0000000000000068 .LFE33
C:\Users\stapi\AppData\Local\Temp\cc5wRCGd.s:9888   .debug_loc:00000000000000d0 .LLST105
C:\Users\stapi\AppData\Local\Temp\cc5wRCGd.s:9917   .debug_loc:0000000000000115 .LLST106
C:\Users\stapi\AppData\Local\Temp\cc5wRCGd.s:9951   .debug_loc:0000000000000166 .LLST107
C:\Users\stapi\AppData\Local\Temp\cc5wRCGd.s:9976   .debug_loc:00000000000001a0 .LLST108
C:\Users\stapi\AppData\Local\Temp\cc5wRCGd.s:2841   .text.netconn_join_leave_group_netif:0000000000000030 .LVL309
C:\Users\stapi\AppData\Local\Temp\cc5wRCGd.s:2889   .text.netconn_join_leave_group_netif:000000000000005e .LVL315
C:\Users\stapi\AppData\Local\Temp\cc5wRCGd.s:12745  .debug_str:000000000000024b .LASF234
C:\Users\stapi\AppData\Local\Temp\cc5wRCGd.s:2713   .text.netconn_join_leave_group:0000000000000000 .LFB32
C:\Users\stapi\AppData\Local\Temp\cc5wRCGd.s:2804   .text.netconn_join_leave_group:000000000000006a .LFE32
C:\Users\stapi\AppData\Local\Temp\cc5wRCGd.s:10001  .debug_loc:00000000000001da .LLST101
C:\Users\stapi\AppData\Local\Temp\cc5wRCGd.s:10031  .debug_loc:0000000000000220 .LLST102
C:\Users\stapi\AppData\Local\Temp\cc5wRCGd.s:10065  .debug_loc:0000000000000271 .LLST103
C:\Users\stapi\AppData\Local\Temp\cc5wRCGd.s:10094  .debug_loc:00000000000002b6 .LLST104
C:\Users\stapi\AppData\Local\Temp\cc5wRCGd.s:2743   .text.netconn_join_leave_group:0000000000000030 .LVL295
C:\Users\stapi\AppData\Local\Temp\cc5wRCGd.s:2794   .text.netconn_join_leave_group:0000000000000060 .LVL303
C:\Users\stapi\AppData\Local\Temp\cc5wRCGd.s:12719  .debug_str:00000000000001aa .LASF235
C:\Users\stapi\AppData\Local\Temp\cc5wRCGd.s:2686   .text.netconn_shutdown:0000000000000000 .LFB31
C:\Users\stapi\AppData\Local\Temp\cc5wRCGd.s:2702   .text.netconn_shutdown:0000000000000014 .LFE31
C:\Users\stapi\AppData\Local\Temp\cc5wRCGd.s:10119  .debug_loc:00000000000002f0 .LLST98
C:\Users\stapi\AppData\Local\Temp\cc5wRCGd.s:13221  .debug_str:0000000000000ef6 .LASF236
C:\Users\stapi\AppData\Local\Temp\cc5wRCGd.s:10133  .debug_loc:0000000000000311 .LLST99
C:\Users\stapi\AppData\Local\Temp\cc5wRCGd.s:12705  .debug_str:0000000000000143 .LASF237
C:\Users\stapi\AppData\Local\Temp\cc5wRCGd.s:10147  .debug_loc:0000000000000332 .LLST100
C:\Users\stapi\AppData\Local\Temp\cc5wRCGd.s:2700   .text.netconn_shutdown:0000000000000014 .LVL289
C:\Users\stapi\AppData\Local\Temp\cc5wRCGd.s:12941  .debug_str:0000000000000741 .LASF239
C:\Users\stapi\AppData\Local\Temp\cc5wRCGd.s:12979  .debug_str:0000000000000844 .LASF238
C:\Users\stapi\AppData\Local\Temp\cc5wRCGd.s:1551   .text.netconn_close:0000000000000000 .LFB29
C:\Users\stapi\AppData\Local\Temp\cc5wRCGd.s:1561   .text.netconn_close:000000000000000a .LFE29
C:\Users\stapi\AppData\Local\Temp\cc5wRCGd.s:10161  .debug_loc:0000000000000353 .LLST65
C:\Users\stapi\AppData\Local\Temp\cc5wRCGd.s:1559   .text.netconn_close:000000000000000a .LVL174
C:\Users\stapi\AppData\Local\Temp\cc5wRCGd.s:12767  .debug_str:00000000000002e9 .LASF258
C:\Users\stapi\AppData\Local\Temp\cc5wRCGd.s:12953  .debug_str:000000000000078f .LASF240
C:\Users\stapi\AppData\Local\Temp\cc5wRCGd.s:12895  .debug_str:000000000000062f .LASF241
C:\Users\stapi\AppData\Local\Temp\cc5wRCGd.s:13021  .debug_str:000000000000090e .LASF242
C:\Users\stapi\AppData\Local\Temp\cc5wRCGd.s:12663  .debug_str:0000000000000072 .LASF243
C:\Users\stapi\AppData\Local\Temp\cc5wRCGd.s:13067  .debug_str:0000000000000a03 .LASF244
C:\Users\stapi\AppData\Local\Temp\cc5wRCGd.s:12951  .debug_str:000000000000078a .LASF245
C:\Users\stapi\AppData\Local\Temp\cc5wRCGd.s:12949  .debug_str:0000000000000782 .LASF246
C:\Users\stapi\AppData\Local\Temp\cc5wRCGd.s:12873  .debug_str:0000000000000539 .LASF247
C:\Users\stapi\AppData\Local\Temp\cc5wRCGd.s:1512   .text.netconn_write_partly:0000000000000000 .LFB26
C:\Users\stapi\AppData\Local\Temp\cc5wRCGd.s:1544   .text.netconn_write_partly:0000000000000024 .LFE26
C:\Users\stapi\AppData\Local\Temp\cc5wRCGd.s:10175  .debug_loc:0000000000000374 .LLST60
C:\Users\stapi\AppData\Local\Temp\cc5wRCGd.s:12977  .debug_str:000000000000083c .LASF248
C:\Users\stapi\AppData\Local\Temp\cc5wRCGd.s:10189  .debug_loc:0000000000000395 .LLST61
C:\Users\stapi\AppData\Local\Temp\cc5wRCGd.s:10208  .debug_loc:00000000000003c2 .LLST62
C:\Users\stapi\AppData\Local\Temp\cc5wRCGd.s:10227  .debug_loc:00000000000003ef .LLST63
C:\Users\stapi\AppData\Local\Temp\cc5wRCGd.s:10241  .debug_loc:0000000000000410 .LLST64
C:\Users\stapi\AppData\Local\Temp\cc5wRCGd.s:1536   .text.netconn_write_partly:000000000000001a .LVL172
C:\Users\stapi\AppData\Local\Temp\cc5wRCGd.s:12647  .debug_str:0000000000000000 .LASF249
C:\Users\stapi\AppData\Local\Temp\cc5wRCGd.s:13209  .debug_str:0000000000000dc7 .LASF250
C:\Users\stapi\AppData\Local\Temp\cc5wRCGd.s:1217   .text.netconn_sendto:0000000000000000 .LFB24
C:\Users\stapi\AppData\Local\Temp\cc5wRCGd.s:1246   .text.netconn_sendto:000000000000001a .LFE24
C:\Users\stapi\AppData\Local\Temp\cc5wRCGd.s:10255  .debug_loc:0000000000000431 .LLST42
C:\Users\stapi\AppData\Local\Temp\cc5wRCGd.s:10280  .debug_loc:000000000000046b .LLST43
C:\Users\stapi\AppData\Local\Temp\cc5wRCGd.s:10298  .debug_loc:0000000000000497 .LLST44
C:\Users\stapi\AppData\Local\Temp\cc5wRCGd.s:10316  .debug_loc:00000000000004c3 .LLST45
C:\Users\stapi\AppData\Local\Temp\cc5wRCGd.s:1238   .text.netconn_sendto:0000000000000016 .LVL136
C:\Users\stapi\AppData\Local\Temp\cc5wRCGd.s:13153  .debug_str:0000000000000c21 .LASF251
C:\Users\stapi\AppData\Local\Temp\cc5wRCGd.s:2487   .text.netconn_recv:0000000000000000 .LFB23
C:\Users\stapi\AppData\Local\Temp\cc5wRCGd.s:2679   .text.netconn_recv:00000000000000f6 .LFE23
C:\Users\stapi\AppData\Local\Temp\cc5wRCGd.s:10334  .debug_loc:00000000000004ef .LLST94
C:\Users\stapi\AppData\Local\Temp\cc5wRCGd.s:13169  .debug_str:0000000000000cec .LASF252
C:\Users\stapi\AppData\Local\Temp\cc5wRCGd.s:10385  .debug_loc:0000000000000566 .LLST95
C:\Users\stapi\AppData\Local\Temp\cc5wRCGd.s:10423  .debug_loc:00000000000005c9 .LLST96
C:\Users\stapi\AppData\Local\Temp\cc5wRCGd.s:10444  .debug_loc:00000000000005ff .LLST97
C:\Users\stapi\AppData\Local\Temp\cc5wRCGd.s:2577   .text.netconn_recv:000000000000007a .LVL271
C:\Users\stapi\AppData\Local\Temp\cc5wRCGd.s:2589   .text.netconn_recv:000000000000008c .LVL273
C:\Users\stapi\AppData\Local\Temp\cc5wRCGd.s:2600   .text.netconn_recv:000000000000009c .LVL276
C:\Users\stapi\AppData\Local\Temp\cc5wRCGd.s:2634   .text.netconn_recv:00000000000000d0 .LVL279
C:\Users\stapi\AppData\Local\Temp\cc5wRCGd.s:2519   .text.netconn_recv:0000000000000030 .LVL265
C:\Users\stapi\AppData\Local\Temp\cc5wRCGd.s:2549   .text.netconn_recv:0000000000000060 .LVL269
C:\Users\stapi\AppData\Local\Temp\cc5wRCGd.s:2674   .text.netconn_recv:00000000000000f2 .LVL284
C:\Users\stapi\AppData\Local\Temp\cc5wRCGd.s:12659  .debug_str:000000000000004b .LASF253
C:\Users\stapi\AppData\Local\Temp\cc5wRCGd.s:2159   .text.netconn_recv_udp_raw_netbuf_flags:0000000000000000 .LFB22
C:\Users\stapi\AppData\Local\Temp\cc5wRCGd.s:2207   .text.netconn_recv_udp_raw_netbuf_flags:000000000000004c .LFE22
C:\Users\stapi\AppData\Local\Temp\cc5wRCGd.s:10459  .debug_loc:0000000000000628 .LLST80
C:\Users\stapi\AppData\Local\Temp\cc5wRCGd.s:10484  .debug_loc:0000000000000662 .LLST81
C:\Users\stapi\AppData\Local\Temp\cc5wRCGd.s:10509  .debug_loc:000000000000069c .LLST82
C:\Users\stapi\AppData\Local\Temp\cc5wRCGd.s:2188   .text.netconn_recv_udp_raw_netbuf_flags:000000000000003a .LVL230
C:\Users\stapi\AppData\Local\Temp\cc5wRCGd.s:2201   .text.netconn_recv_udp_raw_netbuf_flags:0000000000000044 .LVL232
C:\Users\stapi\AppData\Local\Temp\cc5wRCGd.s:12903  .debug_str:000000000000065c .LASF254
C:\Users\stapi\AppData\Local\Temp\cc5wRCGd.s:2104   .text.netconn_recv_udp_raw_netbuf:0000000000000000 .LFB21
C:\Users\stapi\AppData\Local\Temp\cc5wRCGd.s:2152   .text.netconn_recv_udp_raw_netbuf:000000000000004e .LFE21
C:\Users\stapi\AppData\Local\Temp\cc5wRCGd.s:10534  .debug_loc:00000000000006d6 .LLST78
C:\Users\stapi\AppData\Local\Temp\cc5wRCGd.s:10559  .debug_loc:0000000000000710 .LLST79
C:\Users\stapi\AppData\Local\Temp\cc5wRCGd.s:2132   .text.netconn_recv_udp_raw_netbuf:000000000000003a .LVL223
C:\Users\stapi\AppData\Local\Temp\cc5wRCGd.s:2146   .text.netconn_recv_udp_raw_netbuf:0000000000000046 .LVL225
C:\Users\stapi\AppData\Local\Temp\cc5wRCGd.s:12971  .debug_str:0000000000000808 .LASF255
C:\Users\stapi\AppData\Local\Temp\cc5wRCGd.s:2428   .text.netconn_recv_tcp_pbuf_flags:0000000000000000 .LFB20
C:\Users\stapi\AppData\Local\Temp\cc5wRCGd.s:2476   .text.netconn_recv_tcp_pbuf_flags:000000000000004c .LFE20
C:\Users\stapi\AppData\Local\Temp\cc5wRCGd.s:10584  .debug_loc:000000000000074a .LLST91
C:\Users\stapi\AppData\Local\Temp\cc5wRCGd.s:10609  .debug_loc:0000000000000784 .LLST92
C:\Users\stapi\AppData\Local\Temp\cc5wRCGd.s:10634  .debug_loc:00000000000007be .LLST93
C:\Users\stapi\AppData\Local\Temp\cc5wRCGd.s:2457   .text.netconn_recv_tcp_pbuf_flags:000000000000003a .LVL258
C:\Users\stapi\AppData\Local\Temp\cc5wRCGd.s:2470   .text.netconn_recv_tcp_pbuf_flags:0000000000000044 .LVL260
C:\Users\stapi\AppData\Local\Temp\cc5wRCGd.s:13105  .debug_str:0000000000000af3 .LASF256
C:\Users\stapi\AppData\Local\Temp\cc5wRCGd.s:2373   .text.netconn_recv_tcp_pbuf:0000000000000000 .LFB19
C:\Users\stapi\AppData\Local\Temp\cc5wRCGd.s:2421   .text.netconn_recv_tcp_pbuf:000000000000004e .LFE19
C:\Users\stapi\AppData\Local\Temp\cc5wRCGd.s:10659  .debug_loc:00000000000007f8 .LLST89
C:\Users\stapi\AppData\Local\Temp\cc5wRCGd.s:10684  .debug_loc:0000000000000832 .LLST90
C:\Users\stapi\AppData\Local\Temp\cc5wRCGd.s:2401   .text.netconn_recv_tcp_pbuf:000000000000003a .LVL251
C:\Users\stapi\AppData\Local\Temp\cc5wRCGd.s:2415   .text.netconn_recv_tcp_pbuf:0000000000000046 .LVL253
C:\Users\stapi\AppData\Local\Temp\cc5wRCGd.s:13097  .debug_str:0000000000000ab8 .LASF260
C:\Users\stapi\AppData\Local\Temp\cc5wRCGd.s:2213   .text.netconn_recv_data_tcp:0000000000000000 .LFB18
C:\Users\stapi\AppData\Local\Temp\cc5wRCGd.s:2366   .text.netconn_recv_data_tcp:00000000000000ae .LFE18
C:\Users\stapi\AppData\Local\Temp\cc5wRCGd.s:10709  .debug_loc:000000000000086c .LLST83
C:\Users\stapi\AppData\Local\Temp\cc5wRCGd.s:10731  .debug_loc:00000000000008a3 .LLST84
C:\Users\stapi\AppData\Local\Temp\cc5wRCGd.s:10760  .debug_loc:00000000000008e8 .LLST85
C:\Users\stapi\AppData\Local\Temp\cc5wRCGd.s:10785  .debug_loc:0000000000000922 .LLST86
C:\Users\stapi\AppData\Local\Temp\cc5wRCGd.s:10796  .debug_loc:0000000000000940 .LLST87
C:\Users\stapi\AppData\Local\Temp\cc5wRCGd.s:13203  .debug_str:0000000000000da7 .LASF296
C:\Users\stapi\AppData\Local\Temp\cc5wRCGd.s:2304   .text.netconn_recv_data_tcp:0000000000000062 .LBB39
C:\Users\stapi\AppData\Local\Temp\cc5wRCGd.s:2321   .text.netconn_recv_data_tcp:0000000000000078 .LBE39
C:\Users\stapi\AppData\Local\Temp\cc5wRCGd.s:10803  .debug_loc:0000000000000953 .LLST88
C:\Users\stapi\AppData\Local\Temp\cc5wRCGd.s:2318   .text.netconn_recv_data_tcp:0000000000000078 .LVL244
C:\Users\stapi\AppData\Local\Temp\cc5wRCGd.s:2260   .text.netconn_recv_data_tcp:0000000000000032 .LVL235
C:\Users\stapi\AppData\Local\Temp\cc5wRCGd.s:2271   .text.netconn_recv_data_tcp:0000000000000040 .LVL236
C:\Users\stapi\AppData\Local\Temp\cc5wRCGd.s:2289   .text.netconn_recv_data_tcp:0000000000000054 .LVL239
C:\Users\stapi\AppData\Local\Temp\cc5wRCGd.s:2360   .text.netconn_recv_data_tcp:00000000000000aa .LVL247
C:\Users\stapi\AppData\Local\Temp\cc5wRCGd.s:12939  .debug_str:000000000000072f .LASF257
C:\Users\stapi\AppData\Local\Temp\cc5wRCGd.s:1070   .text.netconn_tcp_recvd:0000000000000000 .LFB17
C:\Users\stapi\AppData\Local\Temp\cc5wRCGd.s:1129   .text.netconn_tcp_recvd:0000000000000052 .LFE17
C:\Users\stapi\AppData\Local\Temp\cc5wRCGd.s:10810  .debug_loc:0000000000000966 .LLST36
C:\Users\stapi\AppData\Local\Temp\cc5wRCGd.s:10835  .debug_loc:00000000000009a0 .LLST37
C:\Users\stapi\AppData\Local\Temp\cc5wRCGd.s:1104   .text.netconn_tcp_recvd:000000000000003c .LVL123
C:\Users\stapi\AppData\Local\Temp\cc5wRCGd.s:1119   .text.netconn_tcp_recvd:0000000000000048 .LVL125
C:\Users\stapi\AppData\Local\Temp\cc5wRCGd.s:13133  .debug_str:0000000000000bad .LASF259
C:\Users\stapi\AppData\Local\Temp\cc5wRCGd.s:12877  .debug_str:0000000000000558 .LASF261
C:\Users\stapi\AppData\Local\Temp\cc5wRCGd.s:1840   .text.netconn_recv_data:0000000000000000 .LFB15
C:\Users\stapi\AppData\Local\Temp\cc5wRCGd.s:2093   .text.netconn_recv_data:000000000000013c .LFE15
C:\Users\stapi\AppData\Local\Temp\cc5wRCGd.s:10860  .debug_loc:00000000000009da .LLST72
C:\Users\stapi\AppData\Local\Temp\cc5wRCGd.s:10882  .debug_loc:0000000000000a11 .LLST73
C:\Users\stapi\AppData\Local\Temp\cc5wRCGd.s:10904  .debug_loc:0000000000000a48 .LLST74
C:\Users\stapi\AppData\Local\Temp\cc5wRCGd.s:10951  .debug_loc:0000000000000ab4 .LLST75
C:\Users\stapi\AppData\Local\Temp\cc5wRCGd.s:1916   .text.netconn_recv_data:0000000000000068 .LBB34
C:\Users\stapi\AppData\Local\Temp\cc5wRCGd.s:1929   .text.netconn_recv_data:0000000000000074 .LBE34
C:\Users\stapi\AppData\Local\Temp\cc5wRCGd.s:10958  .debug_loc:0000000000000ac7 .LLST76
C:\Users\stapi\AppData\Local\Temp\cc5wRCGd.s:1920   .text.netconn_recv_data:0000000000000070 .LVL208
C:\Users\stapi\AppData\Local\Temp\cc5wRCGd.s:2004   .text.netconn_recv_data:00000000000000cc .LBB37
C:\Users\stapi\AppData\Local\Temp\cc5wRCGd.s:2026   .text.netconn_recv_data:00000000000000e4 .LBE37
C:\Users\stapi\AppData\Local\Temp\cc5wRCGd.s:10965  .debug_loc:0000000000000ada .LLST77
C:\Users\stapi\AppData\Local\Temp\cc5wRCGd.s:2011   .text.netconn_recv_data:00000000000000d6 .LVL214
C:\Users\stapi\AppData\Local\Temp\cc5wRCGd.s:1987   .text.netconn_recv_data:00000000000000bc .LVL213
C:\Users\stapi\AppData\Local\Temp\cc5wRCGd.s:1872   .text.netconn_recv_data:0000000000000032 .LVL202
C:\Users\stapi\AppData\Local\Temp\cc5wRCGd.s:1902   .text.netconn_recv_data:0000000000000062 .LVL206
C:\Users\stapi\AppData\Local\Temp\cc5wRCGd.s:1962   .text.netconn_recv_data:000000000000009c .LVL212
C:\Users\stapi\AppData\Local\Temp\cc5wRCGd.s:2032   .text.netconn_recv_data:00000000000000f0 .LVL216
C:\Users\stapi\AppData\Local\Temp\cc5wRCGd.s:2056   .text.netconn_recv_data:000000000000010a .LVL218
C:\Users\stapi\AppData\Local\Temp\cc5wRCGd.s:2079   .text.netconn_recv_data:0000000000000136 .LVL219
C:\Users\stapi\AppData\Local\Temp\cc5wRCGd.s:12901  .debug_str:000000000000064d .LASF262
C:\Users\stapi\AppData\Local\Temp\cc5wRCGd.s:1637   .text.netconn_accept:0000000000000000 .LFB14
C:\Users\stapi\AppData\Local\Temp\cc5wRCGd.s:1824   .text.netconn_accept:00000000000000ee .LFE14
C:\Users\stapi\AppData\Local\Temp\cc5wRCGd.s:10972  .debug_loc:0000000000000aed .LLST69
C:\Users\stapi\AppData\Local\Temp\cc5wRCGd.s:12765  .debug_str:00000000000002e0 .LASF263
C:\Users\stapi\AppData\Local\Temp\cc5wRCGd.s:10994  .debug_loc:0000000000000b24 .LLST70
C:\Users\stapi\AppData\Local\Temp\cc5wRCGd.s:12783  .debug_str:000000000000035d .LASF264
C:\Users\stapi\AppData\Local\Temp\cc5wRCGd.s:13177  .debug_str:0000000000000d16 .LASF265
C:\Users\stapi\AppData\Local\Temp\cc5wRCGd.s:11024  .debug_loc:0000000000000b71 .LLST71
C:\Users\stapi\AppData\Local\Temp\cc5wRCGd.s:1669   .text.netconn_accept:0000000000000030 .LVL185
C:\Users\stapi\AppData\Local\Temp\cc5wRCGd.s:1699   .text.netconn_accept:0000000000000060 .LVL189
C:\Users\stapi\AppData\Local\Temp\cc5wRCGd.s:1712   .text.netconn_accept:000000000000006a .LVL191
C:\Users\stapi\AppData\Local\Temp\cc5wRCGd.s:1759   .text.netconn_accept:00000000000000a0 .LVL192
C:\Users\stapi\AppData\Local\Temp\cc5wRCGd.s:1775   .text.netconn_accept:00000000000000b8 .LVL193
C:\Users\stapi\AppData\Local\Temp\cc5wRCGd.s:1789   .text.netconn_accept:00000000000000cc .LVL194
C:\Users\stapi\AppData\Local\Temp\cc5wRCGd.s:1802   .text.netconn_accept:00000000000000de .LVL195
C:\Users\stapi\AppData\Local\Temp\cc5wRCGd.s:13115  .debug_str:0000000000000b44 .LASF266
C:\Users\stapi\AppData\Local\Temp\cc5wRCGd.s:1002   .text.netconn_listen_with_backlog:0000000000000000 .LFB13
C:\Users\stapi\AppData\Local\Temp\cc5wRCGd.s:1063   .text.netconn_listen_with_backlog:0000000000000050 .LFE13
C:\Users\stapi\AppData\Local\Temp\cc5wRCGd.s:11031  .debug_loc:0000000000000b84 .LLST34
C:\Users\stapi\AppData\Local\Temp\cc5wRCGd.s:12833  .debug_str:000000000000046b .LASF267
C:\Users\stapi\AppData\Local\Temp\cc5wRCGd.s:11061  .debug_loc:0000000000000bca .LLST35
C:\Users\stapi\AppData\Local\Temp\cc5wRCGd.s:1031   .text.netconn_listen_with_backlog:0000000000000030 .LVL115
C:\Users\stapi\AppData\Local\Temp\cc5wRCGd.s:1053   .text.netconn_listen_with_backlog:0000000000000046 .LVL119
C:\Users\stapi\AppData\Local\Temp\cc5wRCGd.s:12891  .debug_str:000000000000059e .LASF268
C:\Users\stapi\AppData\Local\Temp\cc5wRCGd.s:933    .text.netconn_disconnect:0000000000000000 .LFB12
C:\Users\stapi\AppData\Local\Temp\cc5wRCGd.s:991    .text.netconn_disconnect:0000000000000050 .LFE12
C:\Users\stapi\AppData\Local\Temp\cc5wRCGd.s:11086  .debug_loc:0000000000000c04 .LLST33
C:\Users\stapi\AppData\Local\Temp\cc5wRCGd.s:960    .text.netconn_disconnect:0000000000000030 .LVL108
C:\Users\stapi\AppData\Local\Temp\cc5wRCGd.s:981    .text.netconn_disconnect:0000000000000046 .LVL111
C:\Users\stapi\AppData\Local\Temp\cc5wRCGd.s:13111  .debug_str:0000000000000b23 .LASF269
C:\Users\stapi\AppData\Local\Temp\cc5wRCGd.s:844    .text.netconn_connect:0000000000000000 .LFB11
C:\Users\stapi\AppData\Local\Temp\cc5wRCGd.s:922    .text.netconn_connect:0000000000000060 .LFE11
C:\Users\stapi\AppData\Local\Temp\cc5wRCGd.s:11116  .debug_loc:0000000000000c4a .LLST30
C:\Users\stapi\AppData\Local\Temp\cc5wRCGd.s:11146  .debug_loc:0000000000000c90 .LLST31
C:\Users\stapi\AppData\Local\Temp\cc5wRCGd.s:11180  .debug_loc:0000000000000ce1 .LLST32
C:\Users\stapi\AppData\Local\Temp\cc5wRCGd.s:873    .text.netconn_connect:0000000000000030 .LVL99
C:\Users\stapi\AppData\Local\Temp\cc5wRCGd.s:912    .text.netconn_connect:0000000000000056 .LVL105
C:\Users\stapi\AppData\Local\Temp\cc5wRCGd.s:13151  .debug_str:0000000000000c11 .LASF270
C:\Users\stapi\AppData\Local\Temp\cc5wRCGd.s:769    .text.netconn_bind_if:0000000000000000 .LFB10
C:\Users\stapi\AppData\Local\Temp\cc5wRCGd.s:833    .text.netconn_bind_if:0000000000000054 .LFE10
C:\Users\stapi\AppData\Local\Temp\cc5wRCGd.s:11205  .debug_loc:0000000000000d1b .LLST28
C:\Users\stapi\AppData\Local\Temp\cc5wRCGd.s:11235  .debug_loc:0000000000000d61 .LLST29
C:\Users\stapi\AppData\Local\Temp\cc5wRCGd.s:797    .text.netconn_bind_if:0000000000000030 .LVL90
C:\Users\stapi\AppData\Local\Temp\cc5wRCGd.s:823    .text.netconn_bind_if:000000000000004a .LVL94
C:\Users\stapi\AppData\Local\Temp\cc5wRCGd.s:13085  .debug_str:0000000000000a73 .LASF271
C:\Users\stapi\AppData\Local\Temp\cc5wRCGd.s:680    .text.netconn_bind:0000000000000000 .LFB9
C:\Users\stapi\AppData\Local\Temp\cc5wRCGd.s:758    .text.netconn_bind:0000000000000060 .LFE9
C:\Users\stapi\AppData\Local\Temp\cc5wRCGd.s:11265  .debug_loc:0000000000000da7 .LLST25
C:\Users\stapi\AppData\Local\Temp\cc5wRCGd.s:11295  .debug_loc:0000000000000ded .LLST26
C:\Users\stapi\AppData\Local\Temp\cc5wRCGd.s:11329  .debug_loc:0000000000000e3e .LLST27
C:\Users\stapi\AppData\Local\Temp\cc5wRCGd.s:709    .text.netconn_bind:0000000000000030 .LVL80
C:\Users\stapi\AppData\Local\Temp\cc5wRCGd.s:748    .text.netconn_bind:0000000000000056 .LVL86
C:\Users\stapi\AppData\Local\Temp\cc5wRCGd.s:12955  .debug_str:00000000000007ac .LASF272
C:\Users\stapi\AppData\Local\Temp\cc5wRCGd.s:542    .text.netconn_getaddr:0000000000000000 .LFB8
C:\Users\stapi\AppData\Local\Temp\cc5wRCGd.s:669    .text.netconn_getaddr:00000000000000a8 .LFE8
C:\Users\stapi\AppData\Local\Temp\cc5wRCGd.s:11354  .debug_loc:0000000000000e78 .LLST21
C:\Users\stapi\AppData\Local\Temp\cc5wRCGd.s:11406  .debug_loc:0000000000000ef0 .LLST22
C:\Users\stapi\AppData\Local\Temp\cc5wRCGd.s:11458  .debug_loc:0000000000000f68 .LLST23
C:\Users\stapi\AppData\Local\Temp\cc5wRCGd.s:11505  .debug_loc:0000000000000fd4 .LLST24
C:\Users\stapi\AppData\Local\Temp\cc5wRCGd.s:572    .text.netconn_getaddr:0000000000000030 .LVL59
C:\Users\stapi\AppData\Local\Temp\cc5wRCGd.s:599    .text.netconn_getaddr:0000000000000058 .LVL65
C:\Users\stapi\AppData\Local\Temp\cc5wRCGd.s:626    .text.netconn_getaddr:0000000000000080 .LVL71
C:\Users\stapi\AppData\Local\Temp\cc5wRCGd.s:659    .text.netconn_getaddr:000000000000009e .LVL75
C:\Users\stapi\AppData\Local\Temp\cc5wRCGd.s:12715  .debug_str:0000000000000177 .LASF273
C:\Users\stapi\AppData\Local\Temp\cc5wRCGd.s:486    .text.netconn_delete:0000000000000000 .LFB7
C:\Users\stapi\AppData\Local\Temp\cc5wRCGd.s:525    .text.netconn_delete:000000000000002e .LFE7
C:\Users\stapi\AppData\Local\Temp\cc5wRCGd.s:11552  .debug_loc:0000000000001040 .LLST19
C:\Users\stapi\AppData\Local\Temp\cc5wRCGd.s:11570  .debug_loc:000000000000106c .LLST20
C:\Users\stapi\AppData\Local\Temp\cc5wRCGd.s:505    .text.netconn_delete:0000000000000016 .LVL50
C:\Users\stapi\AppData\Local\Temp\cc5wRCGd.s:515    .text.netconn_delete:0000000000000024 .LVL53
C:\Users\stapi\AppData\Local\Temp\cc5wRCGd.s:12791  .debug_str:000000000000037b .LASF274
C:\Users\stapi\AppData\Local\Temp\cc5wRCGd.s:12717  .debug_str:0000000000000186 .LASF275
C:\Users\stapi\AppData\Local\Temp\cc5wRCGd.s:233    .text.netconn_new_with_proto_and_callback:0000000000000000 .LFB5
C:\Users\stapi\AppData\Local\Temp\cc5wRCGd.s:411    .text.netconn_new_with_proto_and_callback:000000000000010e .LFE5
C:\Users\stapi\AppData\Local\Temp\cc5wRCGd.s:11577  .debug_loc:000000000000107f .LLST12
C:\Users\stapi\AppData\Local\Temp\cc5wRCGd.s:11591  .debug_loc:00000000000010a0 .LLST13
C:\Users\stapi\AppData\Local\Temp\cc5wRCGd.s:11605  .debug_loc:00000000000010c1 .LLST14
C:\Users\stapi\AppData\Local\Temp\cc5wRCGd.s:11619  .debug_loc:00000000000010e2 .LLST15
C:\Users\stapi\AppData\Local\Temp\cc5wRCGd.s:261    .text.netconn_new_with_proto_and_callback:000000000000001a .LBB11
C:\Users\stapi\AppData\Local\Temp\cc5wRCGd.s:400    .text.netconn_new_with_proto_and_callback:0000000000000102 .LBE11
C:\Users\stapi\AppData\Local\Temp\cc5wRCGd.s:11626  .debug_loc:00000000000010f5 .LLST16
C:\Users\stapi\AppData\Local\Temp\cc5wRCGd.s:276    .text.netconn_new_with_proto_and_callback:0000000000000032 .LVL25
C:\Users\stapi\AppData\Local\Temp\cc5wRCGd.s:295    .text.netconn_new_with_proto_and_callback:000000000000005c .LVL27
C:\Users\stapi\AppData\Local\Temp\cc5wRCGd.s:320    .text.netconn_new_with_proto_and_callback:0000000000000086 .LVL30
C:\Users\stapi\AppData\Local\Temp\cc5wRCGd.s:345    .text.netconn_new_with_proto_and_callback:00000000000000b0 .LVL33
C:\Users\stapi\AppData\Local\Temp\cc5wRCGd.s:370    .text.netconn_new_with_proto_and_callback:00000000000000da .LVL36
C:\Users\stapi\AppData\Local\Temp\cc5wRCGd.s:384    .text.netconn_new_with_proto_and_callback:00000000000000e8 .LVL39
C:\Users\stapi\AppData\Local\Temp\cc5wRCGd.s:388    .text.netconn_new_with_proto_and_callback:00000000000000f4 .LVL40
C:\Users\stapi\AppData\Local\Temp\cc5wRCGd.s:393    .text.netconn_new_with_proto_and_callback:0000000000000100 .LVL41
C:\Users\stapi\AppData\Local\Temp\cc5wRCGd.s:255    .text.netconn_new_with_proto_and_callback:0000000000000016 .LVL23
C:\Users\stapi\AppData\Local\Temp\cc5wRCGd.s:13071  .debug_str:0000000000000a17 .LASF276
C:\Users\stapi\AppData\Local\Temp\cc5wRCGd.s:13     .text.netconn_apimsg:0000000000000000 .LFB4
C:\Users\stapi\AppData\Local\Temp\cc5wRCGd.s:46     .text.netconn_apimsg:0000000000000024 .LFE4
C:\Users\stapi\AppData\Local\Temp\cc5wRCGd.s:11649  .debug_loc:0000000000001134 .LLST0
C:\Users\stapi\AppData\Local\Temp\cc5wRCGd.s:13019  .debug_str:0000000000000907 .LASF277
C:\Users\stapi\AppData\Local\Temp\cc5wRCGd.s:11663  .debug_loc:0000000000001155 .LLST1
C:\Users\stapi\AppData\Local\Temp\cc5wRCGd.s:11674  .debug_loc:0000000000001173 .LLST2
C:\Users\stapi\AppData\Local\Temp\cc5wRCGd.s:31     .text.netconn_apimsg:0000000000000016 .LVL1
C:\Users\stapi\AppData\Local\Temp\cc5wRCGd.s:62     .text.netconn_tcp_recvd_msg:0000000000000000 .LFB16
C:\Users\stapi\AppData\Local\Temp\cc5wRCGd.s:127    .text.netconn_tcp_recvd_msg:000000000000005c .LFE16
C:\Users\stapi\AppData\Local\Temp\cc5wRCGd.s:11681  .debug_loc:0000000000001186 .LLST3
C:\Users\stapi\AppData\Local\Temp\cc5wRCGd.s:11711  .debug_loc:00000000000011cc .LLST4
C:\Users\stapi\AppData\Local\Temp\cc5wRCGd.s:11740  .debug_loc:0000000000001211 .LLST5
C:\Users\stapi\AppData\Local\Temp\cc5wRCGd.s:100    .text.netconn_tcp_recvd_msg:000000000000003e .LBB5
C:\Users\stapi\AppData\Local\Temp\cc5wRCGd.s:121    .text.netconn_tcp_recvd_msg:0000000000000054 .LBE5
C:\Users\stapi\AppData\Local\Temp\cc5wRCGd.s:11765  .debug_loc:000000000000124b .LLST6
C:\Users\stapi\AppData\Local\Temp\cc5wRCGd.s:11779  .debug_loc:000000000000126c .LLST7
C:\Users\stapi\AppData\Local\Temp\cc5wRCGd.s:119    .text.netconn_tcp_recvd_msg:0000000000000054 .LVL11
C:\Users\stapi\AppData\Local\Temp\cc5wRCGd.s:91     .text.netconn_tcp_recvd_msg:000000000000003a .LVL7
C:\Users\stapi\AppData\Local\Temp\cc5wRCGd.s:137    .text.netconn_close_shutdown:0000000000000000 .LFB28
C:\Users\stapi\AppData\Local\Temp\cc5wRCGd.s:213    .text.netconn_close_shutdown:000000000000005c .LFE28
C:\Users\stapi\AppData\Local\Temp\cc5wRCGd.s:11793  .debug_loc:000000000000128d .LLST8
C:\Users\stapi\AppData\Local\Temp\cc5wRCGd.s:11823  .debug_loc:00000000000012d3 .LLST9
C:\Users\stapi\AppData\Local\Temp\cc5wRCGd.s:155    .text.netconn_close_shutdown:000000000000000c .LBB9
C:\Users\stapi\AppData\Local\Temp\cc5wRCGd.s:178    .text.netconn_close_shutdown:0000000000000032 .LBE9
C:\Users\stapi\AppData\Local\Temp\cc5wRCGd.s:11853  .debug_loc:0000000000001319 .LLST10
C:\Users\stapi\AppData\Local\Temp\cc5wRCGd.s:11861  .debug_loc:000000000000132d .LLST11
C:\Users\stapi\AppData\Local\Temp\cc5wRCGd.s:169    .text.netconn_close_shutdown:0000000000000030 .LVL16
C:\Users\stapi\AppData\Local\Temp\cc5wRCGd.s:203    .text.netconn_close_shutdown:0000000000000052 .LVL20
C:\Users\stapi\AppData\Local\Temp\cc5wRCGd.s:418    .text.netconn_prepare_delete:0000000000000000 .LFB6
C:\Users\stapi\AppData\Local\Temp\cc5wRCGd.s:479    .text.netconn_prepare_delete:0000000000000036 .LFE6
C:\Users\stapi\AppData\Local\Temp\cc5wRCGd.s:11868  .debug_loc:0000000000001340 .LLST17
C:\Users\stapi\AppData\Local\Temp\cc5wRCGd.s:432    .text.netconn_prepare_delete:000000000000000a .LBB14
C:\Users\stapi\AppData\Local\Temp\cc5wRCGd.s:11898  .debug_loc:0000000000001386 .LLST18
C:\Users\stapi\AppData\Local\Temp\cc5wRCGd.s:459    .text.netconn_prepare_delete:0000000000000028 .LVL46
C:\Users\stapi\AppData\Local\Temp\cc5wRCGd.s:1140   .text.netconn_send:0000000000000000 .LFB25
C:\Users\stapi\AppData\Local\Temp\cc5wRCGd.s:1210   .text.netconn_send:0000000000000052 .LFE25
C:\Users\stapi\AppData\Local\Temp\cc5wRCGd.s:11917  .debug_loc:00000000000013b3 .LLST38
C:\Users\stapi\AppData\Local\Temp\cc5wRCGd.s:11947  .debug_loc:00000000000013f9 .LLST39
C:\Users\stapi\AppData\Local\Temp\cc5wRCGd.s:1157   .text.netconn_send:000000000000000c .LBB20
C:\Users\stapi\AppData\Local\Temp\cc5wRCGd.s:1180   .text.netconn_send:0000000000000032 .LBE20
C:\Users\stapi\AppData\Local\Temp\cc5wRCGd.s:11977  .debug_loc:000000000000143f .LLST40
C:\Users\stapi\AppData\Local\Temp\cc5wRCGd.s:11985  .debug_loc:0000000000001453 .LLST41
C:\Users\stapi\AppData\Local\Temp\cc5wRCGd.s:1171   .text.netconn_send:0000000000000030 .LVL130
C:\Users\stapi\AppData\Local\Temp\cc5wRCGd.s:1200   .text.netconn_send:0000000000000048 .LVL134
C:\Users\stapi\AppData\Local\Temp\cc5wRCGd.s:1263   .text.netconn_write_vectors_partly:0000000000000000 .LFB27
C:\Users\stapi\AppData\Local\Temp\cc5wRCGd.s:1505   .text.netconn_write_vectors_partly:0000000000000112 .LFE27
C:\Users\stapi\AppData\Local\Temp\cc5wRCGd.s:11999  .debug_loc:0000000000001474 .LLST46
C:\Users\stapi\AppData\Local\Temp\cc5wRCGd.s:12062  .debug_loc:0000000000001505 .LLST47
C:\Users\stapi\AppData\Local\Temp\cc5wRCGd.s:12118  .debug_loc:0000000000001588 .LLST48
C:\Users\stapi\AppData\Local\Temp\cc5wRCGd.s:12169  .debug_loc:00000000000015ff .LLST49
C:\Users\stapi\AppData\Local\Temp\cc5wRCGd.s:12220  .debug_loc:0000000000001676 .LLST50
C:\Users\stapi\AppData\Local\Temp\cc5wRCGd.s:1340   .text.netconn_write_vectors_partly:0000000000000066 .LBB25
C:\Users\stapi\AppData\Local\Temp\cc5wRCGd.s:12242  .debug_loc:00000000000016ad .LLST51
C:\Users\stapi\AppData\Local\Temp\cc5wRCGd.s:12253  .debug_loc:00000000000016cb .LLST52
C:\Users\stapi\AppData\Local\Temp\cc5wRCGd.s:12282  .debug_loc:0000000000001710 .LLST53
C:\Users\stapi\AppData\Local\Temp\cc5wRCGd.s:12311  .debug_loc:0000000000001755 .LLST54
C:\Users\stapi\AppData\Local\Temp\cc5wRCGd.s:12345  .debug_loc:00000000000017a6 .LLST55
C:\Users\stapi\AppData\Local\Temp\cc5wRCGd.s:12386  .debug_loc:0000000000001805 .LLST56
C:\Users\stapi\AppData\Local\Temp\cc5wRCGd.s:12393  .debug_loc:0000000000001818 .LLST57
C:\Users\stapi\AppData\Local\Temp\cc5wRCGd.s:12413  .debug_loc:000000000000183f .LLST58
C:\Users\stapi\AppData\Local\Temp\cc5wRCGd.s:12428  .debug_loc:0000000000001868 .LLST59
C:\Users\stapi\AppData\Local\Temp\cc5wRCGd.s:1416   .text.netconn_write_vectors_partly:00000000000000a8 .LBB27
C:\Users\stapi\AppData\Local\Temp\cc5wRCGd.s:1427   .text.netconn_write_vectors_partly:00000000000000b2 .LBE27
C:\Users\stapi\AppData\Local\Temp\cc5wRCGd.s:1460   .text.netconn_write_vectors_partly:00000000000000d6 .LVL164
C:\Users\stapi\AppData\Local\Temp\cc5wRCGd.s:1490   .text.netconn_write_vectors_partly:000000000000010c .LVL166
C:\Users\stapi\AppData\Local\Temp\cc5wRCGd.s:1299   .text.netconn_write_vectors_partly:0000000000000030 .LVL143
C:\Users\stapi\AppData\Local\Temp\cc5wRCGd.s:1332   .text.netconn_write_vectors_partly:0000000000000064 .LVL150
C:\Users\stapi\AppData\Local\Temp\cc5wRCGd.s:1568   .text.netconn_err:0000000000000000 .LFB30
C:\Users\stapi\AppData\Local\Temp\cc5wRCGd.s:1623   .text.netconn_err:0000000000000038 .LFE30
C:\Users\stapi\AppData\Local\Temp\cc5wRCGd.s:12439  .debug_loc:0000000000001886 .LLST66
C:\Users\stapi\AppData\Local\Temp\cc5wRCGd.s:1586   .text.netconn_err:000000000000000e .LBB32
C:\Users\stapi\AppData\Local\Temp\cc5wRCGd.s:1606   .text.netconn_err:000000000000002a .LBE32
C:\Users\stapi\AppData\Local\Temp\cc5wRCGd.s:12461  .debug_loc:00000000000018bd .LLST67
C:\Users\stapi\AppData\Local\Temp\cc5wRCGd.s:12472  .debug_loc:00000000000018db .LLST68
C:\Users\stapi\AppData\Local\Temp\cc5wRCGd.s:1590   .text.netconn_err:0000000000000016 .LVL177
C:\Users\stapi\AppData\Local\Temp\cc5wRCGd.s:1602   .text.netconn_err:0000000000000028 .LVL179
C:\Users\stapi\AppData\Local\Temp\cc5wRCGd.s:12923  .debug_str:00000000000006e3 .LASF278
C:\Users\stapi\AppData\Local\Temp\cc5wRCGd.s:12921  .debug_str:00000000000006d7 .LASF279
C:\Users\stapi\AppData\Local\Temp\cc5wRCGd.s:13161  .debug_str:0000000000000cba .LASF280
C:\Users\stapi\AppData\Local\Temp\cc5wRCGd.s:13079  .debug_str:0000000000000a46 .LASF281
C:\Users\stapi\AppData\Local\Temp\cc5wRCGd.s:12911  .debug_str:000000000000068e .LASF282
C:\Users\stapi\AppData\Local\Temp\cc5wRCGd.s:12797  .debug_str:00000000000003af .LASF283
C:\Users\stapi\AppData\Local\Temp\cc5wRCGd.s:12733  .debug_str:0000000000000203 .LASF284
C:\Users\stapi\AppData\Local\Temp\cc5wRCGd.s:12943  .debug_str:000000000000074d .LASF285
C:\Users\stapi\AppData\Local\Temp\cc5wRCGd.s:12917  .debug_str:00000000000006b4 .LASF286
C:\Users\stapi\AppData\Local\Temp\cc5wRCGd.s:12855  .debug_str:00000000000004ee .LASF287
C:\Users\stapi\AppData\Local\Temp\cc5wRCGd.s:12805  .debug_str:00000000000003e4 .LASF288
C:\Users\stapi\AppData\Local\Temp\cc5wRCGd.s:13043  .debug_str:0000000000000981 .LASF289
C:\Users\stapi\AppData\Local\Temp\cc5wRCGd.s:13101  .debug_str:0000000000000ad3 .LASF290
C:\Users\stapi\AppData\Local\Temp\cc5wRCGd.s:12945  .debug_str:0000000000000764 .LASF291
C:\Users\stapi\AppData\Local\Temp\cc5wRCGd.s:2917   .text.netconn_gethostbyname:0000000000000000 .LVL316
C:\Users\stapi\AppData\Local\Temp\cc5wRCGd.s:2939   .text.netconn_gethostbyname:0000000000000018 .LVL318
C:\Users\stapi\AppData\Local\Temp\cc5wRCGd.s:2951   .text.netconn_gethostbyname:0000000000000032 .LVL320
C:\Users\stapi\AppData\Local\Temp\cc5wRCGd.s:2964   .text.netconn_gethostbyname:0000000000000040 .LVL322
C:\Users\stapi\AppData\Local\Temp\cc5wRCGd.s:2976   .text.netconn_gethostbyname:000000000000005a .LVL324
C:\Users\stapi\AppData\Local\Temp\cc5wRCGd.s:2987   .text.netconn_gethostbyname:0000000000000062 .LVL325
C:\Users\stapi\AppData\Local\Temp\cc5wRCGd.s:2937   .text.netconn_gethostbyname:0000000000000014 .LVL317
C:\Users\stapi\AppData\Local\Temp\cc5wRCGd.s:2962   .text.netconn_gethostbyname:000000000000003c .LVL321
C:\Users\stapi\AppData\Local\Temp\cc5wRCGd.s:2992   .text.netconn_gethostbyname:0000000000000066 .LVL326
C:\Users\stapi\AppData\Local\Temp\cc5wRCGd.s:3022   .text.netconn_gethostbyname:0000000000000092 .LVL329
C:\Users\stapi\AppData\Local\Temp\cc5wRCGd.s:3034   .text.netconn_gethostbyname:00000000000000a2 .LVL331
C:\Users\stapi\AppData\Local\Temp\cc5wRCGd.s:2814   .text.netconn_join_leave_group_netif:0000000000000000 .LVL304
C:\Users\stapi\AppData\Local\Temp\cc5wRCGd.s:2834   .text.netconn_join_leave_group_netif:0000000000000018 .LVL307
C:\Users\stapi\AppData\Local\Temp\cc5wRCGd.s:2847   .text.netconn_join_leave_group_netif:0000000000000032 .LVL310
C:\Users\stapi\AppData\Local\Temp\cc5wRCGd.s:2865   .text.netconn_join_leave_group_netif:0000000000000040 .LVL313
C:\Users\stapi\AppData\Local\Temp\cc5wRCGd.s:2832   .text.netconn_join_leave_group_netif:0000000000000014 .LVL306
C:\Users\stapi\AppData\Local\Temp\cc5wRCGd.s:2858   .text.netconn_join_leave_group_netif:000000000000003a .LVL311
C:\Users\stapi\AppData\Local\Temp\cc5wRCGd.s:2861   .text.netconn_join_leave_group_netif:000000000000003e .LVL312
C:\Users\stapi\AppData\Local\Temp\cc5wRCGd.s:2876   .text.netconn_join_leave_group_netif:000000000000004e .LVL314
C:\Users\stapi\AppData\Local\Temp\cc5wRCGd.s:2837   .text.netconn_join_leave_group_netif:0000000000000020 .LVL308
C:\Users\stapi\AppData\Local\Temp\cc5wRCGd.s:2830   .text.netconn_join_leave_group_netif:0000000000000010 .LVL305
C:\Users\stapi\AppData\Local\Temp\cc5wRCGd.s:2716   .text.netconn_join_leave_group:0000000000000000 .LVL290
C:\Users\stapi\AppData\Local\Temp\cc5wRCGd.s:2736   .text.netconn_join_leave_group:0000000000000018 .LVL293
C:\Users\stapi\AppData\Local\Temp\cc5wRCGd.s:2749   .text.netconn_join_leave_group:0000000000000032 .LVL296
C:\Users\stapi\AppData\Local\Temp\cc5wRCGd.s:2778   .text.netconn_join_leave_group:000000000000004c .LVL301
C:\Users\stapi\AppData\Local\Temp\cc5wRCGd.s:2734   .text.netconn_join_leave_group:0000000000000014 .LVL292
C:\Users\stapi\AppData\Local\Temp\cc5wRCGd.s:2759   .text.netconn_join_leave_group:0000000000000038 .LVL297
C:\Users\stapi\AppData\Local\Temp\cc5wRCGd.s:2762   .text.netconn_join_leave_group:000000000000003c .LVL298
C:\Users\stapi\AppData\Local\Temp\cc5wRCGd.s:2785   .text.netconn_join_leave_group:0000000000000054 .LVL302
C:\Users\stapi\AppData\Local\Temp\cc5wRCGd.s:2739   .text.netconn_join_leave_group:0000000000000020 .LVL294
C:\Users\stapi\AppData\Local\Temp\cc5wRCGd.s:2768   .text.netconn_join_leave_group:0000000000000042 .LVL299
C:\Users\stapi\AppData\Local\Temp\cc5wRCGd.s:2771   .text.netconn_join_leave_group:0000000000000046 .LVL300
C:\Users\stapi\AppData\Local\Temp\cc5wRCGd.s:2732   .text.netconn_join_leave_group:0000000000000010 .LVL291
C:\Users\stapi\AppData\Local\Temp\cc5wRCGd.s:2689   .text.netconn_shutdown:0000000000000000 .LVL286
C:\Users\stapi\AppData\Local\Temp\cc5wRCGd.s:2696   .text.netconn_shutdown:000000000000000a .LVL288
C:\Users\stapi\AppData\Local\Temp\cc5wRCGd.s:2693   .text.netconn_shutdown:0000000000000004 .LVL287
C:\Users\stapi\AppData\Local\Temp\cc5wRCGd.s:1554   .text.netconn_close:0000000000000000 .LVL173
C:\Users\stapi\AppData\Local\Temp\cc5wRCGd.s:1515   .text.netconn_write_partly:0000000000000000 .LVL169
C:\Users\stapi\AppData\Local\Temp\cc5wRCGd.s:1532   .text.netconn_write_partly:0000000000000010 .LVL170
C:\Users\stapi\AppData\Local\Temp\cc5wRCGd.s:1534   .text.netconn_write_partly:0000000000000012 .LVL171
C:\Users\stapi\AppData\Local\Temp\cc5wRCGd.s:1220   .text.netconn_sendto:0000000000000000 .LVL135
C:\Users\stapi\AppData\Local\Temp\cc5wRCGd.s:1242   .text.netconn_sendto:0000000000000018 .LVL137
C:\Users\stapi\AppData\Local\Temp\cc5wRCGd.s:2490   .text.netconn_recv:0000000000000000 .LVL261
C:\Users\stapi\AppData\Local\Temp\cc5wRCGd.s:2513   .text.netconn_recv:0000000000000018 .LVL264
C:\Users\stapi\AppData\Local\Temp\cc5wRCGd.s:2525   .text.netconn_recv:0000000000000032 .LVL266
C:\Users\stapi\AppData\Local\Temp\cc5wRCGd.s:2537   .text.netconn_recv:000000000000003c .LVL267
C:\Users\stapi\AppData\Local\Temp\cc5wRCGd.s:2591   .text.netconn_recv:000000000000008e .LVL274
C:\Users\stapi\AppData\Local\Temp\cc5wRCGd.s:2661   .text.netconn_recv:00000000000000e4 .LVL281
C:\Users\stapi\AppData\Local\Temp\cc5wRCGd.s:2665   .text.netconn_recv:00000000000000e6 .LVL282
C:\Users\stapi\AppData\Local\Temp\cc5wRCGd.s:2667   .text.netconn_recv:00000000000000e8 .LVL283
C:\Users\stapi\AppData\Local\Temp\cc5wRCGd.s:2676   .text.netconn_recv:00000000000000f4 .LVL285
C:\Users\stapi\AppData\Local\Temp\cc5wRCGd.s:2511   .text.netconn_recv:0000000000000014 .LVL263
C:\Users\stapi\AppData\Local\Temp\cc5wRCGd.s:2542   .text.netconn_recv:0000000000000044 .LVL268
C:\Users\stapi\AppData\Local\Temp\cc5wRCGd.s:2555   .text.netconn_recv:0000000000000062 .LVL270
C:\Users\stapi\AppData\Local\Temp\cc5wRCGd.s:2498   .text.netconn_recv:0000000000000008 .LVL262
C:\Users\stapi\AppData\Local\Temp\cc5wRCGd.s:2579   .text.netconn_recv:000000000000007c .LVL272
C:\Users\stapi\AppData\Local\Temp\cc5wRCGd.s:2615   .text.netconn_recv:00000000000000a8 .LVL277
C:\Users\stapi\AppData\Local\Temp\cc5wRCGd.s:2598   .text.netconn_recv:0000000000000094 .LVL275
C:\Users\stapi\AppData\Local\Temp\cc5wRCGd.s:2628   .text.netconn_recv:00000000000000b8 .LVL278
C:\Users\stapi\AppData\Local\Temp\cc5wRCGd.s:2640   .text.netconn_recv:00000000000000d2 .LVL280
C:\Users\stapi\AppData\Local\Temp\cc5wRCGd.s:2162   .text.netconn_recv_udp_raw_netbuf_flags:0000000000000000 .LVL226
C:\Users\stapi\AppData\Local\Temp\cc5wRCGd.s:2181   .text.netconn_recv_udp_raw_netbuf_flags:0000000000000022 .LVL228
C:\Users\stapi\AppData\Local\Temp\cc5wRCGd.s:2194   .text.netconn_recv_udp_raw_netbuf_flags:000000000000003c .LVL231
C:\Users\stapi\AppData\Local\Temp\cc5wRCGd.s:2179   .text.netconn_recv_udp_raw_netbuf_flags:000000000000001e .LVL227
C:\Users\stapi\AppData\Local\Temp\cc5wRCGd.s:2184   .text.netconn_recv_udp_raw_netbuf_flags:000000000000002a .LVL229
C:\Users\stapi\AppData\Local\Temp\cc5wRCGd.s:2107   .text.netconn_recv_udp_raw_netbuf:0000000000000000 .LVL220
C:\Users\stapi\AppData\Local\Temp\cc5wRCGd.s:2126   .text.netconn_recv_udp_raw_netbuf:0000000000000022 .LVL222
C:\Users\stapi\AppData\Local\Temp\cc5wRCGd.s:2138   .text.netconn_recv_udp_raw_netbuf:000000000000003c .LVL224
C:\Users\stapi\AppData\Local\Temp\cc5wRCGd.s:2124   .text.netconn_recv_udp_raw_netbuf:000000000000001e .LVL221
C:\Users\stapi\AppData\Local\Temp\cc5wRCGd.s:2431   .text.netconn_recv_tcp_pbuf_flags:0000000000000000 .LVL254
C:\Users\stapi\AppData\Local\Temp\cc5wRCGd.s:2450   .text.netconn_recv_tcp_pbuf_flags:0000000000000022 .LVL256
C:\Users\stapi\AppData\Local\Temp\cc5wRCGd.s:2463   .text.netconn_recv_tcp_pbuf_flags:000000000000003c .LVL259
C:\Users\stapi\AppData\Local\Temp\cc5wRCGd.s:2448   .text.netconn_recv_tcp_pbuf_flags:000000000000001e .LVL255
C:\Users\stapi\AppData\Local\Temp\cc5wRCGd.s:2453   .text.netconn_recv_tcp_pbuf_flags:000000000000002a .LVL257
C:\Users\stapi\AppData\Local\Temp\cc5wRCGd.s:2376   .text.netconn_recv_tcp_pbuf:0000000000000000 .LVL248
C:\Users\stapi\AppData\Local\Temp\cc5wRCGd.s:2395   .text.netconn_recv_tcp_pbuf:0000000000000022 .LVL250
C:\Users\stapi\AppData\Local\Temp\cc5wRCGd.s:2407   .text.netconn_recv_tcp_pbuf:000000000000003c .LVL252
C:\Users\stapi\AppData\Local\Temp\cc5wRCGd.s:2393   .text.netconn_recv_tcp_pbuf:000000000000001e .LVL249
C:\Users\stapi\AppData\Local\Temp\cc5wRCGd.s:2216   .text.netconn_recv_data_tcp:0000000000000000 .LVL233
C:\Users\stapi\AppData\Local\Temp\cc5wRCGd.s:2250   .text.netconn_recv_data_tcp:0000000000000026 .LVL234
C:\Users\stapi\AppData\Local\Temp\cc5wRCGd.s:2339   .text.netconn_recv_data_tcp:0000000000000092 .LVL245
C:\Users\stapi\AppData\Local\Temp\cc5wRCGd.s:2353   .text.netconn_recv_data_tcp:000000000000009e .LVL246
C:\Users\stapi\AppData\Local\Temp\cc5wRCGd.s:2280   .text.netconn_recv_data_tcp:0000000000000048 .LVL238
C:\Users\stapi\AppData\Local\Temp\cc5wRCGd.s:2300   .text.netconn_recv_data_tcp:0000000000000060 .LVL241
C:\Users\stapi\AppData\Local\Temp\cc5wRCGd.s:2273   .text.netconn_recv_data_tcp:0000000000000042 .LVL237
C:\Users\stapi\AppData\Local\Temp\cc5wRCGd.s:2291   .text.netconn_recv_data_tcp:0000000000000056 .LVL240
C:\Users\stapi\AppData\Local\Temp\cc5wRCGd.s:2316   .text.netconn_recv_data_tcp:0000000000000070 .LVL243
C:\Users\stapi\AppData\Local\Temp\cc5wRCGd.s:2312   .text.netconn_recv_data_tcp:000000000000006c .LVL242
C:\Users\stapi\AppData\Local\Temp\cc5wRCGd.s:1073   .text.netconn_tcp_recvd:0000000000000000 .LVL120
C:\Users\stapi\AppData\Local\Temp\cc5wRCGd.s:1098   .text.netconn_tcp_recvd:0000000000000024 .LVL122
C:\Users\stapi\AppData\Local\Temp\cc5wRCGd.s:1110   .text.netconn_tcp_recvd:000000000000003e .LVL124
C:\Users\stapi\AppData\Local\Temp\cc5wRCGd.s:1096   .text.netconn_tcp_recvd:0000000000000020 .LVL121
C:\Users\stapi\AppData\Local\Temp\cc5wRCGd.s:1843   .text.netconn_recv_data:0000000000000000 .LVL198
C:\Users\stapi\AppData\Local\Temp\cc5wRCGd.s:1865   .text.netconn_recv_data:000000000000001a .LVL200
C:\Users\stapi\AppData\Local\Temp\cc5wRCGd.s:1878   .text.netconn_recv_data:0000000000000034 .LVL203
C:\Users\stapi\AppData\Local\Temp\cc5wRCGd.s:1890   .text.netconn_recv_data:000000000000003e .LVL204
C:\Users\stapi\AppData\Local\Temp\cc5wRCGd.s:1863   .text.netconn_recv_data:0000000000000016 .LVL199
C:\Users\stapi\AppData\Local\Temp\cc5wRCGd.s:1868   .text.netconn_recv_data:0000000000000022 .LVL201
C:\Users\stapi\AppData\Local\Temp\cc5wRCGd.s:1898   .text.netconn_recv_data:0000000000000052 .LVL205
C:\Users\stapi\AppData\Local\Temp\cc5wRCGd.s:1908   .text.netconn_recv_data:0000000000000064 .LVL207
C:\Users\stapi\AppData\Local\Temp\cc5wRCGd.s:1939   .text.netconn_recv_data:000000000000007e .LVL210
C:\Users\stapi\AppData\Local\Temp\cc5wRCGd.s:1947   .text.netconn_recv_data:0000000000000084 .LVL211
C:\Users\stapi\AppData\Local\Temp\cc5wRCGd.s:2048   .text.netconn_recv_data:0000000000000100 .LVL217
C:\Users\stapi\AppData\Local\Temp\cc5wRCGd.s:1924   .text.netconn_recv_data:0000000000000072 .LVL209
C:\Users\stapi\AppData\Local\Temp\cc5wRCGd.s:2020   .text.netconn_recv_data:00000000000000de .LVL215
C:\Users\stapi\AppData\Local\Temp\cc5wRCGd.s:1640   .text.netconn_accept:0000000000000000 .LVL182
C:\Users\stapi\AppData\Local\Temp\cc5wRCGd.s:1663   .text.netconn_accept:0000000000000018 .LVL184
C:\Users\stapi\AppData\Local\Temp\cc5wRCGd.s:1675   .text.netconn_accept:0000000000000032 .LVL186
C:\Users\stapi\AppData\Local\Temp\cc5wRCGd.s:1687   .text.netconn_accept:000000000000003c .LVL187
C:\Users\stapi\AppData\Local\Temp\cc5wRCGd.s:1661   .text.netconn_accept:0000000000000014 .LVL183
C:\Users\stapi\AppData\Local\Temp\cc5wRCGd.s:1692   .text.netconn_accept:0000000000000044 .LVL188
C:\Users\stapi\AppData\Local\Temp\cc5wRCGd.s:1705   .text.netconn_accept:0000000000000062 .LVL190
C:\Users\stapi\AppData\Local\Temp\cc5wRCGd.s:1811   .text.netconn_accept:00000000000000e4 .LVL196
C:\Users\stapi\AppData\Local\Temp\cc5wRCGd.s:1818   .text.netconn_accept:00000000000000ea .LVL197
C:\Users\stapi\AppData\Local\Temp\cc5wRCGd.s:1005   .text.netconn_listen_with_backlog:0000000000000000 .LVL112
C:\Users\stapi\AppData\Local\Temp\cc5wRCGd.s:1025   .text.netconn_listen_with_backlog:0000000000000018 .LVL114
C:\Users\stapi\AppData\Local\Temp\cc5wRCGd.s:1037   .text.netconn_listen_with_backlog:0000000000000032 .LVL116
C:\Users\stapi\AppData\Local\Temp\cc5wRCGd.s:1048   .text.netconn_listen_with_backlog:0000000000000038 .LVL117
C:\Users\stapi\AppData\Local\Temp\cc5wRCGd.s:1023   .text.netconn_listen_with_backlog:0000000000000014 .LVL113
C:\Users\stapi\AppData\Local\Temp\cc5wRCGd.s:1050   .text.netconn_listen_with_backlog:000000000000003a .LVL118
C:\Users\stapi\AppData\Local\Temp\cc5wRCGd.s:936    .text.netconn_disconnect:0000000000000000 .LVL106
C:\Users\stapi\AppData\Local\Temp\cc5wRCGd.s:954    .text.netconn_disconnect:0000000000000018 .LVL107
C:\Users\stapi\AppData\Local\Temp\cc5wRCGd.s:966    .text.netconn_disconnect:0000000000000032 .LVL109
C:\Users\stapi\AppData\Local\Temp\cc5wRCGd.s:977    .text.netconn_disconnect:0000000000000038 .LVL110
C:\Users\stapi\AppData\Local\Temp\cc5wRCGd.s:847    .text.netconn_connect:0000000000000000 .LVL95
C:\Users\stapi\AppData\Local\Temp\cc5wRCGd.s:866    .text.netconn_connect:0000000000000018 .LVL97
C:\Users\stapi\AppData\Local\Temp\cc5wRCGd.s:879    .text.netconn_connect:0000000000000032 .LVL100
C:\Users\stapi\AppData\Local\Temp\cc5wRCGd.s:899    .text.netconn_connect:0000000000000042 .LVL103
C:\Users\stapi\AppData\Local\Temp\cc5wRCGd.s:864    .text.netconn_connect:0000000000000014 .LVL96
C:\Users\stapi\AppData\Local\Temp\cc5wRCGd.s:888    .text.netconn_connect:0000000000000038 .LVL101
C:\Users\stapi\AppData\Local\Temp\cc5wRCGd.s:891    .text.netconn_connect:000000000000003c .LVL102
C:\Users\stapi\AppData\Local\Temp\cc5wRCGd.s:906    .text.netconn_connect:000000000000004a .LVL104
C:\Users\stapi\AppData\Local\Temp\cc5wRCGd.s:869    .text.netconn_connect:0000000000000020 .LVL98
C:\Users\stapi\AppData\Local\Temp\cc5wRCGd.s:772    .text.netconn_bind_if:0000000000000000 .LVL87
C:\Users\stapi\AppData\Local\Temp\cc5wRCGd.s:791    .text.netconn_bind_if:0000000000000018 .LVL89
C:\Users\stapi\AppData\Local\Temp\cc5wRCGd.s:803    .text.netconn_bind_if:0000000000000032 .LVL91
C:\Users\stapi\AppData\Local\Temp\cc5wRCGd.s:814    .text.netconn_bind_if:0000000000000038 .LVL92
C:\Users\stapi\AppData\Local\Temp\cc5wRCGd.s:789    .text.netconn_bind_if:0000000000000014 .LVL88
C:\Users\stapi\AppData\Local\Temp\cc5wRCGd.s:821    .text.netconn_bind_if:0000000000000042 .LVL93
C:\Users\stapi\AppData\Local\Temp\cc5wRCGd.s:683    .text.netconn_bind:0000000000000000 .LVL76
C:\Users\stapi\AppData\Local\Temp\cc5wRCGd.s:702    .text.netconn_bind:0000000000000018 .LVL78
C:\Users\stapi\AppData\Local\Temp\cc5wRCGd.s:715    .text.netconn_bind:0000000000000032 .LVL81
C:\Users\stapi\AppData\Local\Temp\cc5wRCGd.s:735    .text.netconn_bind:0000000000000042 .LVL84
C:\Users\stapi\AppData\Local\Temp\cc5wRCGd.s:700    .text.netconn_bind:0000000000000014 .LVL77
C:\Users\stapi\AppData\Local\Temp\cc5wRCGd.s:724    .text.netconn_bind:0000000000000038 .LVL82
C:\Users\stapi\AppData\Local\Temp\cc5wRCGd.s:727    .text.netconn_bind:000000000000003c .LVL83
C:\Users\stapi\AppData\Local\Temp\cc5wRCGd.s:742    .text.netconn_bind:000000000000004a .LVL85
C:\Users\stapi\AppData\Local\Temp\cc5wRCGd.s:705    .text.netconn_bind:0000000000000020 .LVL79
C:\Users\stapi\AppData\Local\Temp\cc5wRCGd.s:545    .text.netconn_getaddr:0000000000000000 .LVL54
C:\Users\stapi\AppData\Local\Temp\cc5wRCGd.s:565    .text.netconn_getaddr:0000000000000018 .LVL57
C:\Users\stapi\AppData\Local\Temp\cc5wRCGd.s:578    .text.netconn_getaddr:0000000000000032 .LVL60
C:\Users\stapi\AppData\Local\Temp\cc5wRCGd.s:592    .text.netconn_getaddr:0000000000000040 .LVL63
C:\Users\stapi\AppData\Local\Temp\cc5wRCGd.s:605    .text.netconn_getaddr:000000000000005a .LVL66
C:\Users\stapi\AppData\Local\Temp\cc5wRCGd.s:619    .text.netconn_getaddr:0000000000000068 .LVL69
C:\Users\stapi\AppData\Local\Temp\cc5wRCGd.s:632    .text.netconn_getaddr:0000000000000082 .LVL72
C:\Users\stapi\AppData\Local\Temp\cc5wRCGd.s:643    .text.netconn_getaddr:0000000000000088 .LVL73
C:\Users\stapi\AppData\Local\Temp\cc5wRCGd.s:563    .text.netconn_getaddr:0000000000000014 .LVL56
C:\Users\stapi\AppData\Local\Temp\cc5wRCGd.s:590    .text.netconn_getaddr:000000000000003c .LVL62
C:\Users\stapi\AppData\Local\Temp\cc5wRCGd.s:617    .text.netconn_getaddr:0000000000000064 .LVL68
C:\Users\stapi\AppData\Local\Temp\cc5wRCGd.s:649    .text.netconn_getaddr:0000000000000090 .LVL74
C:\Users\stapi\AppData\Local\Temp\cc5wRCGd.s:568    .text.netconn_getaddr:0000000000000020 .LVL58
C:\Users\stapi\AppData\Local\Temp\cc5wRCGd.s:595    .text.netconn_getaddr:0000000000000048 .LVL64
C:\Users\stapi\AppData\Local\Temp\cc5wRCGd.s:622    .text.netconn_getaddr:0000000000000070 .LVL70
C:\Users\stapi\AppData\Local\Temp\cc5wRCGd.s:561    .text.netconn_getaddr:0000000000000010 .LVL55
C:\Users\stapi\AppData\Local\Temp\cc5wRCGd.s:588    .text.netconn_getaddr:0000000000000038 .LVL61
C:\Users\stapi\AppData\Local\Temp\cc5wRCGd.s:615    .text.netconn_getaddr:0000000000000060 .LVL67
C:\Users\stapi\AppData\Local\Temp\cc5wRCGd.s:489    .text.netconn_delete:0000000000000000 .LVL49
C:\Users\stapi\AppData\Local\Temp\cc5wRCGd.s:507    .text.netconn_delete:0000000000000018 .LVL51
C:\Users\stapi\AppData\Local\Temp\cc5wRCGd.s:513    .text.netconn_delete:000000000000001c .LVL52
C:\Users\stapi\AppData\Local\Temp\cc5wRCGd.s:236    .text.netconn_new_with_proto_and_callback:0000000000000000 .LVL21
C:\Users\stapi\AppData\Local\Temp\cc5wRCGd.s:253    .text.netconn_new_with_proto_and_callback:000000000000000e .LVL22
C:\Users\stapi\AppData\Local\Temp\cc5wRCGd.s:257    .text.netconn_new_with_proto_and_callback:0000000000000018 .LVL24
C:\Users\stapi\AppData\Local\Temp\cc5wRCGd.s:398    .text.netconn_new_with_proto_and_callback:0000000000000102 .LVL42
C:\Users\stapi\AppData\Local\Temp\cc5wRCGd.s:289    .text.netconn_new_with_proto_and_callback:0000000000000044 .LVL26
C:\Users\stapi\AppData\Local\Temp\cc5wRCGd.s:301    .text.netconn_new_with_proto_and_callback:000000000000005e .LVL28
C:\Users\stapi\AppData\Local\Temp\cc5wRCGd.s:314    .text.netconn_new_with_proto_and_callback:000000000000006e .LVL29
C:\Users\stapi\AppData\Local\Temp\cc5wRCGd.s:326    .text.netconn_new_with_proto_and_callback:0000000000000088 .LVL31
C:\Users\stapi\AppData\Local\Temp\cc5wRCGd.s:339    .text.netconn_new_with_proto_and_callback:0000000000000098 .LVL32
C:\Users\stapi\AppData\Local\Temp\cc5wRCGd.s:351    .text.netconn_new_with_proto_and_callback:00000000000000b2 .LVL34
C:\Users\stapi\AppData\Local\Temp\cc5wRCGd.s:364    .text.netconn_new_with_proto_and_callback:00000000000000c2 .LVL35
C:\Users\stapi\AppData\Local\Temp\cc5wRCGd.s:376    .text.netconn_new_with_proto_and_callback:00000000000000dc .LVL37
C:\Users\stapi\AppData\Local\Temp\cc5wRCGd.s:382    .text.netconn_new_with_proto_and_callback:00000000000000e0 .LVL38
C:\Users\stapi\AppData\Local\Temp\cc5wRCGd.s:17     .text.netconn_apimsg:0000000000000000 .LVL0
C:\Users\stapi\AppData\Local\Temp\cc5wRCGd.s:38     .text.netconn_apimsg:000000000000001c .LVL2
C:\Users\stapi\AppData\Local\Temp\cc5wRCGd.s:65     .text.netconn_tcp_recvd_msg:0000000000000000 .LVL3
C:\Users\stapi\AppData\Local\Temp\cc5wRCGd.s:84     .text.netconn_tcp_recvd_msg:0000000000000022 .LVL5
C:\Users\stapi\AppData\Local\Temp\cc5wRCGd.s:97     .text.netconn_tcp_recvd_msg:000000000000003c .LVL8
C:\Users\stapi\AppData\Local\Temp\cc5wRCGd.s:106    .text.netconn_tcp_recvd_msg:0000000000000044 .LVL9
C:\Users\stapi\AppData\Local\Temp\cc5wRCGd.s:82     .text.netconn_tcp_recvd_msg:000000000000001e .LVL4
C:\Users\stapi\AppData\Local\Temp\cc5wRCGd.s:108    .text.netconn_tcp_recvd_msg:0000000000000046 .LVL10
C:\Users\stapi\AppData\Local\Temp\cc5wRCGd.s:87     .text.netconn_tcp_recvd_msg:000000000000002a .LVL6
C:\Users\stapi\AppData\Local\Temp\cc5wRCGd.s:140    .text.netconn_close_shutdown:0000000000000000 .LVL12
C:\Users\stapi\AppData\Local\Temp\cc5wRCGd.s:163    .text.netconn_close_shutdown:0000000000000018 .LVL15
C:\Users\stapi\AppData\Local\Temp\cc5wRCGd.s:175    .text.netconn_close_shutdown:0000000000000032 .LVL17
C:\Users\stapi\AppData\Local\Temp\cc5wRCGd.s:188    .text.netconn_close_shutdown:0000000000000038 .LVL18
C:\Users\stapi\AppData\Local\Temp\cc5wRCGd.s:161    .text.netconn_close_shutdown:0000000000000014 .LVL14
C:\Users\stapi\AppData\Local\Temp\cc5wRCGd.s:196    .text.netconn_close_shutdown:0000000000000042 .LVL19
C:\Users\stapi\AppData\Local\Temp\cc5wRCGd.s:154    .text.netconn_close_shutdown:000000000000000c .LVL13
C:\Users\stapi\AppData\Local\Temp\cc5wRCGd.s:421    .text.netconn_prepare_delete:0000000000000000 .LVL43
C:\Users\stapi\AppData\Local\Temp\cc5wRCGd.s:448    .text.netconn_prepare_delete:0000000000000012 .LVL45
C:\Users\stapi\AppData\Local\Temp\cc5wRCGd.s:470    .text.netconn_prepare_delete:0000000000000032 .LVL47
C:\Users\stapi\AppData\Local\Temp\cc5wRCGd.s:475    .text.netconn_prepare_delete:0000000000000034 .LVL48
C:\Users\stapi\AppData\Local\Temp\cc5wRCGd.s:431    .text.netconn_prepare_delete:000000000000000a .LVL44
C:\Users\stapi\AppData\Local\Temp\cc5wRCGd.s:1143   .text.netconn_send:0000000000000000 .LVL126
C:\Users\stapi\AppData\Local\Temp\cc5wRCGd.s:1165   .text.netconn_send:0000000000000018 .LVL129
C:\Users\stapi\AppData\Local\Temp\cc5wRCGd.s:1177   .text.netconn_send:0000000000000032 .LVL131
C:\Users\stapi\AppData\Local\Temp\cc5wRCGd.s:1191   .text.netconn_send:0000000000000038 .LVL132
C:\Users\stapi\AppData\Local\Temp\cc5wRCGd.s:1163   .text.netconn_send:0000000000000014 .LVL128
C:\Users\stapi\AppData\Local\Temp\cc5wRCGd.s:1198   .text.netconn_send:0000000000000040 .LVL133
C:\Users\stapi\AppData\Local\Temp\cc5wRCGd.s:1156   .text.netconn_send:000000000000000c .LVL127
C:\Users\stapi\AppData\Local\Temp\cc5wRCGd.s:1266   .text.netconn_write_vectors_partly:0000000000000000 .LVL138
C:\Users\stapi\AppData\Local\Temp\cc5wRCGd.s:1292   .text.netconn_write_vectors_partly:0000000000000018 .LVL141
C:\Users\stapi\AppData\Local\Temp\cc5wRCGd.s:1305   .text.netconn_write_vectors_partly:0000000000000032 .LVL144
C:\Users\stapi\AppData\Local\Temp\cc5wRCGd.s:1325   .text.netconn_write_vectors_partly:000000000000004c .LVL148
C:\Users\stapi\AppData\Local\Temp\cc5wRCGd.s:1338   .text.netconn_write_vectors_partly:0000000000000066 .LVL151
C:\Users\stapi\AppData\Local\Temp\cc5wRCGd.s:1390   .text.netconn_write_vectors_partly:0000000000000098 .LVL157
C:\Users\stapi\AppData\Local\Temp\cc5wRCGd.s:1408   .text.netconn_write_vectors_partly:00000000000000a4 .LVL159
C:\Users\stapi\AppData\Local\Temp\cc5wRCGd.s:1435   .text.netconn_write_vectors_partly:00000000000000b8 .LVL162
C:\Users\stapi\AppData\Local\Temp\cc5wRCGd.s:1496   .text.netconn_write_vectors_partly:000000000000010e .LVL167
C:\Users\stapi\AppData\Local\Temp\cc5wRCGd.s:1500   .text.netconn_write_vectors_partly:0000000000000110 .LVL168
C:\Users\stapi\AppData\Local\Temp\cc5wRCGd.s:1290   .text.netconn_write_vectors_partly:0000000000000014 .LVL140
C:\Users\stapi\AppData\Local\Temp\cc5wRCGd.s:1323   .text.netconn_write_vectors_partly:0000000000000048 .LVL147
C:\Users\stapi\AppData\Local\Temp\cc5wRCGd.s:1442   .text.netconn_write_vectors_partly:00000000000000c0 .LVL163
C:\Users\stapi\AppData\Local\Temp\cc5wRCGd.s:1295   .text.netconn_write_vectors_partly:0000000000000020 .LVL142
C:\Users\stapi\AppData\Local\Temp\cc5wRCGd.s:1328   .text.netconn_write_vectors_partly:0000000000000054 .LVL149
C:\Users\stapi\AppData\Local\Temp\cc5wRCGd.s:1288   .text.netconn_write_vectors_partly:0000000000000010 .LVL139
C:\Users\stapi\AppData\Local\Temp\cc5wRCGd.s:1321   .text.netconn_write_vectors_partly:0000000000000044 .LVL146
C:\Users\stapi\AppData\Local\Temp\cc5wRCGd.s:1315   .text.netconn_write_vectors_partly:0000000000000038 .LVL145
C:\Users\stapi\AppData\Local\Temp\cc5wRCGd.s:1394   .text.netconn_write_vectors_partly:000000000000009a .LVL158
C:\Users\stapi\AppData\Local\Temp\cc5wRCGd.s:1484   .text.netconn_write_vectors_partly:00000000000000f4 .LVL165
C:\Users\stapi\AppData\Local\Temp\cc5wRCGd.s:1355   .text.netconn_write_vectors_partly:0000000000000076 .LVL152
C:\Users\stapi\AppData\Local\Temp\cc5wRCGd.s:1360   .text.netconn_write_vectors_partly:000000000000007a .LVL153
C:\Users\stapi\AppData\Local\Temp\cc5wRCGd.s:1366   .text.netconn_write_vectors_partly:0000000000000084 .LVL154
C:\Users\stapi\AppData\Local\Temp\cc5wRCGd.s:1423   .text.netconn_write_vectors_partly:00000000000000ae .LVL160
C:\Users\stapi\AppData\Local\Temp\cc5wRCGd.s:1426   .text.netconn_write_vectors_partly:00000000000000b2 .LVL161
C:\Users\stapi\AppData\Local\Temp\cc5wRCGd.s:1571   .text.netconn_err:0000000000000000 .LVL175
C:\Users\stapi\AppData\Local\Temp\cc5wRCGd.s:1614   .text.netconn_err:0000000000000034 .LVL180
C:\Users\stapi\AppData\Local\Temp\cc5wRCGd.s:1619   .text.netconn_err:0000000000000036 .LVL181
C:\Users\stapi\AppData\Local\Temp\cc5wRCGd.s:1585   .text.netconn_err:000000000000000e .LVL176
C:\Users\stapi\AppData\Local\Temp\cc5wRCGd.s:1598   .text.netconn_err:0000000000000020 .LVL178
C:\Users\stapi\AppData\Local\Temp\cc5wRCGd.s:3077   .debug_info:0000000000000000 .Ldebug_info0
C:\Users\stapi\AppData\Local\Temp\cc5wRCGd.s:437    .text.netconn_prepare_delete:000000000000000a .LBE14
C:\Users\stapi\AppData\Local\Temp\cc5wRCGd.s:441    .text.netconn_prepare_delete:000000000000000c .LBB17
C:\Users\stapi\AppData\Local\Temp\cc5wRCGd.s:463    .text.netconn_prepare_delete:0000000000000028 .LBE17
C:\Users\stapi\AppData\Local\Temp\cc5wRCGd.s:1397   .text.netconn_write_vectors_partly:000000000000009a .LBE25
C:\Users\stapi\AppData\Local\Temp\cc5wRCGd.s:1411   .text.netconn_write_vectors_partly:00000000000000a4 .LBB29
C:\Users\stapi\AppData\Local\Temp\cc5wRCGd.s:1503   .text.netconn_write_vectors_partly:0000000000000112 .LBE29
C:\Users\stapi\AppData\Local\Temp\cc5wRCGd.s:1973   .text.netconn_recv_data:00000000000000a6 .LBB35
C:\Users\stapi\AppData\Local\Temp\cc5wRCGd.s:1976   .text.netconn_recv_data:00000000000000a8 .LBE35
C:\Users\stapi\AppData\Local\Temp\cc5wRCGd.s:1981   .text.netconn_recv_data:00000000000000b0 .LBB36
C:\Users\stapi\AppData\Local\Temp\cc5wRCGd.s:1998   .text.netconn_recv_data:00000000000000c8 .LBE36
C:\Users\stapi\AppData\Local\Temp\cc5wRCGd.s:2040   .text.netconn_recv_data:00000000000000fa .LBB38
C:\Users\stapi\AppData\Local\Temp\cc5wRCGd.s:2045   .text.netconn_recv_data:00000000000000fc .LBE38
C:\Users\stapi\AppData\Local\Temp\cc5wRCGd.s:2568   .text.netconn_recv:000000000000006e .LBB40
C:\Users\stapi\AppData\Local\Temp\cc5wRCGd.s:2603   .text.netconn_recv:000000000000009c .LBE40
C:\Users\stapi\AppData\Local\Temp\cc5wRCGd.s:2618   .text.netconn_recv:00000000000000a8 .LBB41
C:\Users\stapi\AppData\Local\Temp\cc5wRCGd.s:2669   .text.netconn_recv:00000000000000e8 .LBE41

UNDEFINED SYMBOLS
__riscv_save_1
tcpip_send_msg_wait_sem
__riscv_restore_1
__riscv_save_0
printf
lwip_netconn_do_recv
__riscv_restore_0
lwip_netconn_do_close
__riscv_save_2
netconn_alloc
lwip_netconn_do_newconn
sys_sem_free
sys_mbox_free
memp_free
__riscv_restore_2
lwip_netconn_do_delconn
netconn_free
lwip_netconn_do_getaddr
ip_addr_any
lwip_netconn_do_bind
lwip_netconn_do_bind_if
lwip_netconn_do_connect
lwip_netconn_do_disconnect
lwip_netconn_do_listen
lwip_netconn_do_send
__riscv_save_3
__riscv_restore_3
lwip_netconn_do_write
sys_enter_critical
sys_exit_critical
sys_arch_mbox_tryfetch
lwip_netconn_is_err_msg
sys_arch_mbox_fetch
__riscv_save_4
__riscv_restore_4
memp_malloc
lwip_netconn_do_join_leave_group
lwip_netconn_do_join_leave_group_netif
sys_sem_new
lwip_netconn_do_gethostbyname
