   1              		.file	"def.c"
   2              		.option nopic
   3              		.attribute arch, "rv32i2p0_m2p0_a2p0_f2p0_c2p0_b_p0p94"
   4              		.attribute unaligned_access, 0
   5              		.attribute stack_align, 16
   6              		.text
   7              	.Ltext0:
   8              		.cfi_sections	.debug_frame
   9              		.section	.text.lwip_htons,"ax",@progbits
  10              		.align	1
  11              		.globl	lwip_htons
  13              	lwip_htons:
  14              	.LFB4:
  15              		.file 1 "C:/Users/stapi/OneDrive/Desktop/GD32VW553/GD32VW55X_Wifi_BLE_SDK/GD32VW55x_RELEASE_V1.0.2
   1:C:/Users/stapi/OneDrive/Desktop/GD32VW553/GD32VW55X_Wifi_BLE_SDK/GD32VW55x_RELEASE_V1.0.2/MSDK/lwip/lwip-2.1.2/src/core\def.c **** /**
   2:C:/Users/stapi/OneDrive/Desktop/GD32VW553/GD32VW55X_Wifi_BLE_SDK/GD32VW55x_RELEASE_V1.0.2/MSDK/lwip/lwip-2.1.2/src/core\def.c ****  * @file
   3:C:/Users/stapi/OneDrive/Desktop/GD32VW553/GD32VW55X_Wifi_BLE_SDK/GD32VW55x_RELEASE_V1.0.2/MSDK/lwip/lwip-2.1.2/src/core\def.c ****  * Common functions used throughout the stack.
   4:C:/Users/stapi/OneDrive/Desktop/GD32VW553/GD32VW55X_Wifi_BLE_SDK/GD32VW55x_RELEASE_V1.0.2/MSDK/lwip/lwip-2.1.2/src/core\def.c ****  *
   5:C:/Users/stapi/OneDrive/Desktop/GD32VW553/GD32VW55X_Wifi_BLE_SDK/GD32VW55x_RELEASE_V1.0.2/MSDK/lwip/lwip-2.1.2/src/core\def.c ****  * These are reference implementations of the byte swapping functions.
   6:C:/Users/stapi/OneDrive/Desktop/GD32VW553/GD32VW55X_Wifi_BLE_SDK/GD32VW55x_RELEASE_V1.0.2/MSDK/lwip/lwip-2.1.2/src/core\def.c ****  * Again with the aim of being simple, correct and fully portable.
   7:C:/Users/stapi/OneDrive/Desktop/GD32VW553/GD32VW55X_Wifi_BLE_SDK/GD32VW55x_RELEASE_V1.0.2/MSDK/lwip/lwip-2.1.2/src/core\def.c ****  * Byte swapping is the second thing you would want to optimize. You will
   8:C:/Users/stapi/OneDrive/Desktop/GD32VW553/GD32VW55X_Wifi_BLE_SDK/GD32VW55x_RELEASE_V1.0.2/MSDK/lwip/lwip-2.1.2/src/core\def.c ****  * need to port it to your architecture and in your cc.h:
   9:C:/Users/stapi/OneDrive/Desktop/GD32VW553/GD32VW55X_Wifi_BLE_SDK/GD32VW55x_RELEASE_V1.0.2/MSDK/lwip/lwip-2.1.2/src/core\def.c ****  *
  10:C:/Users/stapi/OneDrive/Desktop/GD32VW553/GD32VW55X_Wifi_BLE_SDK/GD32VW55x_RELEASE_V1.0.2/MSDK/lwip/lwip-2.1.2/src/core\def.c ****  * \#define lwip_htons(x) your_htons
  11:C:/Users/stapi/OneDrive/Desktop/GD32VW553/GD32VW55X_Wifi_BLE_SDK/GD32VW55x_RELEASE_V1.0.2/MSDK/lwip/lwip-2.1.2/src/core\def.c ****  * \#define lwip_htonl(x) your_htonl
  12:C:/Users/stapi/OneDrive/Desktop/GD32VW553/GD32VW55X_Wifi_BLE_SDK/GD32VW55x_RELEASE_V1.0.2/MSDK/lwip/lwip-2.1.2/src/core\def.c ****  *
  13:C:/Users/stapi/OneDrive/Desktop/GD32VW553/GD32VW55X_Wifi_BLE_SDK/GD32VW55x_RELEASE_V1.0.2/MSDK/lwip/lwip-2.1.2/src/core\def.c ****  * Note lwip_ntohs() and lwip_ntohl() are merely references to the htonx counterparts.
  14:C:/Users/stapi/OneDrive/Desktop/GD32VW553/GD32VW55X_Wifi_BLE_SDK/GD32VW55x_RELEASE_V1.0.2/MSDK/lwip/lwip-2.1.2/src/core\def.c ****  *
  15:C:/Users/stapi/OneDrive/Desktop/GD32VW553/GD32VW55X_Wifi_BLE_SDK/GD32VW55x_RELEASE_V1.0.2/MSDK/lwip/lwip-2.1.2/src/core\def.c ****  * If you \#define them to htons() and htonl(), you should
  16:C:/Users/stapi/OneDrive/Desktop/GD32VW553/GD32VW55X_Wifi_BLE_SDK/GD32VW55x_RELEASE_V1.0.2/MSDK/lwip/lwip-2.1.2/src/core\def.c ****  * \#define LWIP_DONT_PROVIDE_BYTEORDER_FUNCTIONS to prevent lwIP from
  17:C:/Users/stapi/OneDrive/Desktop/GD32VW553/GD32VW55X_Wifi_BLE_SDK/GD32VW55x_RELEASE_V1.0.2/MSDK/lwip/lwip-2.1.2/src/core\def.c ****  * defining htonx/ntohx compatibility macros.
  18:C:/Users/stapi/OneDrive/Desktop/GD32VW553/GD32VW55X_Wifi_BLE_SDK/GD32VW55x_RELEASE_V1.0.2/MSDK/lwip/lwip-2.1.2/src/core\def.c **** 
  19:C:/Users/stapi/OneDrive/Desktop/GD32VW553/GD32VW55X_Wifi_BLE_SDK/GD32VW55x_RELEASE_V1.0.2/MSDK/lwip/lwip-2.1.2/src/core\def.c ****  * @defgroup sys_nonstandard Non-standard functions
  20:C:/Users/stapi/OneDrive/Desktop/GD32VW553/GD32VW55X_Wifi_BLE_SDK/GD32VW55x_RELEASE_V1.0.2/MSDK/lwip/lwip-2.1.2/src/core\def.c ****  * @ingroup sys_layer
  21:C:/Users/stapi/OneDrive/Desktop/GD32VW553/GD32VW55X_Wifi_BLE_SDK/GD32VW55x_RELEASE_V1.0.2/MSDK/lwip/lwip-2.1.2/src/core\def.c ****  * lwIP provides default implementations for non-standard functions.
  22:C:/Users/stapi/OneDrive/Desktop/GD32VW553/GD32VW55X_Wifi_BLE_SDK/GD32VW55x_RELEASE_V1.0.2/MSDK/lwip/lwip-2.1.2/src/core\def.c ****  * These can be mapped to OS functions to reduce code footprint if desired.
  23:C:/Users/stapi/OneDrive/Desktop/GD32VW553/GD32VW55X_Wifi_BLE_SDK/GD32VW55x_RELEASE_V1.0.2/MSDK/lwip/lwip-2.1.2/src/core\def.c ****  * All defines related to this section must not be placed in lwipopts.h,
  24:C:/Users/stapi/OneDrive/Desktop/GD32VW553/GD32VW55X_Wifi_BLE_SDK/GD32VW55x_RELEASE_V1.0.2/MSDK/lwip/lwip-2.1.2/src/core\def.c ****  * but in arch/cc.h!
  25:C:/Users/stapi/OneDrive/Desktop/GD32VW553/GD32VW55X_Wifi_BLE_SDK/GD32VW55x_RELEASE_V1.0.2/MSDK/lwip/lwip-2.1.2/src/core\def.c ****  * These options cannot be \#defined in lwipopts.h since they are not options
  26:C:/Users/stapi/OneDrive/Desktop/GD32VW553/GD32VW55X_Wifi_BLE_SDK/GD32VW55x_RELEASE_V1.0.2/MSDK/lwip/lwip-2.1.2/src/core\def.c ****  * of lwIP itself, but options of the lwIP port to your system.
  27:C:/Users/stapi/OneDrive/Desktop/GD32VW553/GD32VW55X_Wifi_BLE_SDK/GD32VW55x_RELEASE_V1.0.2/MSDK/lwip/lwip-2.1.2/src/core\def.c ****  */
  28:C:/Users/stapi/OneDrive/Desktop/GD32VW553/GD32VW55X_Wifi_BLE_SDK/GD32VW55x_RELEASE_V1.0.2/MSDK/lwip/lwip-2.1.2/src/core\def.c **** 
  29:C:/Users/stapi/OneDrive/Desktop/GD32VW553/GD32VW55X_Wifi_BLE_SDK/GD32VW55x_RELEASE_V1.0.2/MSDK/lwip/lwip-2.1.2/src/core\def.c **** /*
  30:C:/Users/stapi/OneDrive/Desktop/GD32VW553/GD32VW55X_Wifi_BLE_SDK/GD32VW55x_RELEASE_V1.0.2/MSDK/lwip/lwip-2.1.2/src/core\def.c ****  * Copyright (c) 2001-2004 Swedish Institute of Computer Science.
  31:C:/Users/stapi/OneDrive/Desktop/GD32VW553/GD32VW55X_Wifi_BLE_SDK/GD32VW55x_RELEASE_V1.0.2/MSDK/lwip/lwip-2.1.2/src/core\def.c ****  * All rights reserved.
  32:C:/Users/stapi/OneDrive/Desktop/GD32VW553/GD32VW55X_Wifi_BLE_SDK/GD32VW55x_RELEASE_V1.0.2/MSDK/lwip/lwip-2.1.2/src/core\def.c ****  *
  33:C:/Users/stapi/OneDrive/Desktop/GD32VW553/GD32VW55X_Wifi_BLE_SDK/GD32VW55x_RELEASE_V1.0.2/MSDK/lwip/lwip-2.1.2/src/core\def.c ****  * Redistribution and use in source and binary forms, with or without modification,
  34:C:/Users/stapi/OneDrive/Desktop/GD32VW553/GD32VW55X_Wifi_BLE_SDK/GD32VW55x_RELEASE_V1.0.2/MSDK/lwip/lwip-2.1.2/src/core\def.c ****  * are permitted provided that the following conditions are met:
  35:C:/Users/stapi/OneDrive/Desktop/GD32VW553/GD32VW55X_Wifi_BLE_SDK/GD32VW55x_RELEASE_V1.0.2/MSDK/lwip/lwip-2.1.2/src/core\def.c ****  *
  36:C:/Users/stapi/OneDrive/Desktop/GD32VW553/GD32VW55X_Wifi_BLE_SDK/GD32VW55x_RELEASE_V1.0.2/MSDK/lwip/lwip-2.1.2/src/core\def.c ****  * 1. Redistributions of source code must retain the above copyright notice,
  37:C:/Users/stapi/OneDrive/Desktop/GD32VW553/GD32VW55X_Wifi_BLE_SDK/GD32VW55x_RELEASE_V1.0.2/MSDK/lwip/lwip-2.1.2/src/core\def.c ****  *    this list of conditions and the following disclaimer.
  38:C:/Users/stapi/OneDrive/Desktop/GD32VW553/GD32VW55X_Wifi_BLE_SDK/GD32VW55x_RELEASE_V1.0.2/MSDK/lwip/lwip-2.1.2/src/core\def.c ****  * 2. Redistributions in binary form must reproduce the above copyright notice,
  39:C:/Users/stapi/OneDrive/Desktop/GD32VW553/GD32VW55X_Wifi_BLE_SDK/GD32VW55x_RELEASE_V1.0.2/MSDK/lwip/lwip-2.1.2/src/core\def.c ****  *    this list of conditions and the following disclaimer in the documentation
  40:C:/Users/stapi/OneDrive/Desktop/GD32VW553/GD32VW55X_Wifi_BLE_SDK/GD32VW55x_RELEASE_V1.0.2/MSDK/lwip/lwip-2.1.2/src/core\def.c ****  *    and/or other materials provided with the distribution.
  41:C:/Users/stapi/OneDrive/Desktop/GD32VW553/GD32VW55X_Wifi_BLE_SDK/GD32VW55x_RELEASE_V1.0.2/MSDK/lwip/lwip-2.1.2/src/core\def.c ****  * 3. The name of the author may not be used to endorse or promote products
  42:C:/Users/stapi/OneDrive/Desktop/GD32VW553/GD32VW55X_Wifi_BLE_SDK/GD32VW55x_RELEASE_V1.0.2/MSDK/lwip/lwip-2.1.2/src/core\def.c ****  *    derived from this software without specific prior written permission.
  43:C:/Users/stapi/OneDrive/Desktop/GD32VW553/GD32VW55X_Wifi_BLE_SDK/GD32VW55x_RELEASE_V1.0.2/MSDK/lwip/lwip-2.1.2/src/core\def.c ****  *
  44:C:/Users/stapi/OneDrive/Desktop/GD32VW553/GD32VW55X_Wifi_BLE_SDK/GD32VW55x_RELEASE_V1.0.2/MSDK/lwip/lwip-2.1.2/src/core\def.c ****  * THIS SOFTWARE IS PROVIDED BY THE AUTHOR ``AS IS'' AND ANY EXPRESS OR IMPLIED
  45:C:/Users/stapi/OneDrive/Desktop/GD32VW553/GD32VW55X_Wifi_BLE_SDK/GD32VW55x_RELEASE_V1.0.2/MSDK/lwip/lwip-2.1.2/src/core\def.c ****  * WARRANTIES, INCLUDING, BUT NOT LIMITED TO, THE IMPLIED WARRANTIES OF
  46:C:/Users/stapi/OneDrive/Desktop/GD32VW553/GD32VW55X_Wifi_BLE_SDK/GD32VW55x_RELEASE_V1.0.2/MSDK/lwip/lwip-2.1.2/src/core\def.c ****  * MERCHANTABILITY AND FITNESS FOR A PARTICULAR PURPOSE ARE DISCLAIMED. IN NO EVENT
  47:C:/Users/stapi/OneDrive/Desktop/GD32VW553/GD32VW55X_Wifi_BLE_SDK/GD32VW55x_RELEASE_V1.0.2/MSDK/lwip/lwip-2.1.2/src/core\def.c ****  * SHALL THE AUTHOR BE LIABLE FOR ANY DIRECT, INDIRECT, INCIDENTAL, SPECIAL,
  48:C:/Users/stapi/OneDrive/Desktop/GD32VW553/GD32VW55X_Wifi_BLE_SDK/GD32VW55x_RELEASE_V1.0.2/MSDK/lwip/lwip-2.1.2/src/core\def.c ****  * EXEMPLARY, OR CONSEQUENTIAL DAMAGES (INCLUDING, BUT NOT LIMITED TO, PROCUREMENT
  49:C:/Users/stapi/OneDrive/Desktop/GD32VW553/GD32VW55X_Wifi_BLE_SDK/GD32VW55x_RELEASE_V1.0.2/MSDK/lwip/lwip-2.1.2/src/core\def.c ****  * OF SUBSTITUTE GOODS OR SERVICES; LOSS OF USE, DATA, OR PROFITS; OR BUSINESS
  50:C:/Users/stapi/OneDrive/Desktop/GD32VW553/GD32VW55X_Wifi_BLE_SDK/GD32VW55x_RELEASE_V1.0.2/MSDK/lwip/lwip-2.1.2/src/core\def.c ****  * INTERRUPTION) HOWEVER CAUSED AND ON ANY THEORY OF LIABILITY, WHETHER IN
  51:C:/Users/stapi/OneDrive/Desktop/GD32VW553/GD32VW55X_Wifi_BLE_SDK/GD32VW55x_RELEASE_V1.0.2/MSDK/lwip/lwip-2.1.2/src/core\def.c ****  * CONTRACT, STRICT LIABILITY, OR TORT (INCLUDING NEGLIGENCE OR OTHERWISE) ARISING
  52:C:/Users/stapi/OneDrive/Desktop/GD32VW553/GD32VW55X_Wifi_BLE_SDK/GD32VW55x_RELEASE_V1.0.2/MSDK/lwip/lwip-2.1.2/src/core\def.c ****  * IN ANY WAY OUT OF THE USE OF THIS SOFTWARE, EVEN IF ADVISED OF THE POSSIBILITY
  53:C:/Users/stapi/OneDrive/Desktop/GD32VW553/GD32VW55X_Wifi_BLE_SDK/GD32VW55x_RELEASE_V1.0.2/MSDK/lwip/lwip-2.1.2/src/core\def.c ****  * OF SUCH DAMAGE.
  54:C:/Users/stapi/OneDrive/Desktop/GD32VW553/GD32VW55X_Wifi_BLE_SDK/GD32VW55x_RELEASE_V1.0.2/MSDK/lwip/lwip-2.1.2/src/core\def.c ****  *
  55:C:/Users/stapi/OneDrive/Desktop/GD32VW553/GD32VW55X_Wifi_BLE_SDK/GD32VW55x_RELEASE_V1.0.2/MSDK/lwip/lwip-2.1.2/src/core\def.c ****  * This file is part of the lwIP TCP/IP stack.
  56:C:/Users/stapi/OneDrive/Desktop/GD32VW553/GD32VW55X_Wifi_BLE_SDK/GD32VW55x_RELEASE_V1.0.2/MSDK/lwip/lwip-2.1.2/src/core\def.c ****  *
  57:C:/Users/stapi/OneDrive/Desktop/GD32VW553/GD32VW55X_Wifi_BLE_SDK/GD32VW55x_RELEASE_V1.0.2/MSDK/lwip/lwip-2.1.2/src/core\def.c ****  * Author: Simon Goldschmidt
  58:C:/Users/stapi/OneDrive/Desktop/GD32VW553/GD32VW55X_Wifi_BLE_SDK/GD32VW55x_RELEASE_V1.0.2/MSDK/lwip/lwip-2.1.2/src/core\def.c ****  *
  59:C:/Users/stapi/OneDrive/Desktop/GD32VW553/GD32VW55X_Wifi_BLE_SDK/GD32VW55x_RELEASE_V1.0.2/MSDK/lwip/lwip-2.1.2/src/core\def.c ****  */
  60:C:/Users/stapi/OneDrive/Desktop/GD32VW553/GD32VW55X_Wifi_BLE_SDK/GD32VW55x_RELEASE_V1.0.2/MSDK/lwip/lwip-2.1.2/src/core\def.c **** 
  61:C:/Users/stapi/OneDrive/Desktop/GD32VW553/GD32VW55X_Wifi_BLE_SDK/GD32VW55x_RELEASE_V1.0.2/MSDK/lwip/lwip-2.1.2/src/core\def.c **** #include "lwip/opt.h"
  62:C:/Users/stapi/OneDrive/Desktop/GD32VW553/GD32VW55X_Wifi_BLE_SDK/GD32VW55x_RELEASE_V1.0.2/MSDK/lwip/lwip-2.1.2/src/core\def.c **** #include "lwip/def.h"
  63:C:/Users/stapi/OneDrive/Desktop/GD32VW553/GD32VW55X_Wifi_BLE_SDK/GD32VW55x_RELEASE_V1.0.2/MSDK/lwip/lwip-2.1.2/src/core\def.c **** 
  64:C:/Users/stapi/OneDrive/Desktop/GD32VW553/GD32VW55X_Wifi_BLE_SDK/GD32VW55x_RELEASE_V1.0.2/MSDK/lwip/lwip-2.1.2/src/core\def.c **** #include <string.h>
  65:C:/Users/stapi/OneDrive/Desktop/GD32VW553/GD32VW55X_Wifi_BLE_SDK/GD32VW55x_RELEASE_V1.0.2/MSDK/lwip/lwip-2.1.2/src/core\def.c **** 
  66:C:/Users/stapi/OneDrive/Desktop/GD32VW553/GD32VW55X_Wifi_BLE_SDK/GD32VW55x_RELEASE_V1.0.2/MSDK/lwip/lwip-2.1.2/src/core\def.c **** #if BYTE_ORDER == LITTLE_ENDIAN
  67:C:/Users/stapi/OneDrive/Desktop/GD32VW553/GD32VW55X_Wifi_BLE_SDK/GD32VW55x_RELEASE_V1.0.2/MSDK/lwip/lwip-2.1.2/src/core\def.c **** 
  68:C:/Users/stapi/OneDrive/Desktop/GD32VW553/GD32VW55X_Wifi_BLE_SDK/GD32VW55x_RELEASE_V1.0.2/MSDK/lwip/lwip-2.1.2/src/core\def.c **** #if !defined(lwip_htons)
  69:C:/Users/stapi/OneDrive/Desktop/GD32VW553/GD32VW55X_Wifi_BLE_SDK/GD32VW55x_RELEASE_V1.0.2/MSDK/lwip/lwip-2.1.2/src/core\def.c **** /**
  70:C:/Users/stapi/OneDrive/Desktop/GD32VW553/GD32VW55X_Wifi_BLE_SDK/GD32VW55x_RELEASE_V1.0.2/MSDK/lwip/lwip-2.1.2/src/core\def.c ****  * Convert an u16_t from host- to network byte order.
  71:C:/Users/stapi/OneDrive/Desktop/GD32VW553/GD32VW55X_Wifi_BLE_SDK/GD32VW55x_RELEASE_V1.0.2/MSDK/lwip/lwip-2.1.2/src/core\def.c ****  *
  72:C:/Users/stapi/OneDrive/Desktop/GD32VW553/GD32VW55X_Wifi_BLE_SDK/GD32VW55x_RELEASE_V1.0.2/MSDK/lwip/lwip-2.1.2/src/core\def.c ****  * @param n u16_t in host byte order
  73:C:/Users/stapi/OneDrive/Desktop/GD32VW553/GD32VW55X_Wifi_BLE_SDK/GD32VW55x_RELEASE_V1.0.2/MSDK/lwip/lwip-2.1.2/src/core\def.c ****  * @return n in network byte order
  74:C:/Users/stapi/OneDrive/Desktop/GD32VW553/GD32VW55X_Wifi_BLE_SDK/GD32VW55x_RELEASE_V1.0.2/MSDK/lwip/lwip-2.1.2/src/core\def.c ****  */
  75:C:/Users/stapi/OneDrive/Desktop/GD32VW553/GD32VW55X_Wifi_BLE_SDK/GD32VW55x_RELEASE_V1.0.2/MSDK/lwip/lwip-2.1.2/src/core\def.c **** u16_t
  76:C:/Users/stapi/OneDrive/Desktop/GD32VW553/GD32VW55X_Wifi_BLE_SDK/GD32VW55x_RELEASE_V1.0.2/MSDK/lwip/lwip-2.1.2/src/core\def.c **** lwip_htons(u16_t n)
  77:C:/Users/stapi/OneDrive/Desktop/GD32VW553/GD32VW55X_Wifi_BLE_SDK/GD32VW55x_RELEASE_V1.0.2/MSDK/lwip/lwip-2.1.2/src/core\def.c **** {
  16              		.loc 1 77 1
  17              		.cfi_startproc
  18              	.LVL0:
  78:C:/Users/stapi/OneDrive/Desktop/GD32VW553/GD32VW55X_Wifi_BLE_SDK/GD32VW55x_RELEASE_V1.0.2/MSDK/lwip/lwip-2.1.2/src/core\def.c ****   return PP_HTONS(n);
  19              		.loc 1 78 3
  20              		.loc 1 78 10 is_stmt 0
  21 0000 93178500 		slli	a5,a0,8
  22 0004 2181     		srli	a0,a0,8
  23              	.LVL1:
  24 0006 5D8D     		or	a0,a5,a0
  79:C:/Users/stapi/OneDrive/Desktop/GD32VW553/GD32VW55X_Wifi_BLE_SDK/GD32VW55x_RELEASE_V1.0.2/MSDK/lwip/lwip-2.1.2/src/core\def.c **** }
  25              		.loc 1 79 1
  26 0008 33450508 		zext.h	a0,a0
  27 000c 8280     		ret
  28              		.cfi_endproc
  29              	.LFE4:
  31              		.section	.text.lwip_htonl,"ax",@progbits
  32              		.align	1
  33              		.globl	lwip_htonl
  35              	lwip_htonl:
  36              	.LFB5:
  80:C:/Users/stapi/OneDrive/Desktop/GD32VW553/GD32VW55X_Wifi_BLE_SDK/GD32VW55x_RELEASE_V1.0.2/MSDK/lwip/lwip-2.1.2/src/core\def.c **** #endif /* lwip_htons */
  81:C:/Users/stapi/OneDrive/Desktop/GD32VW553/GD32VW55X_Wifi_BLE_SDK/GD32VW55x_RELEASE_V1.0.2/MSDK/lwip/lwip-2.1.2/src/core\def.c **** 
  82:C:/Users/stapi/OneDrive/Desktop/GD32VW553/GD32VW55X_Wifi_BLE_SDK/GD32VW55x_RELEASE_V1.0.2/MSDK/lwip/lwip-2.1.2/src/core\def.c **** #if !defined(lwip_htonl)
  83:C:/Users/stapi/OneDrive/Desktop/GD32VW553/GD32VW55X_Wifi_BLE_SDK/GD32VW55x_RELEASE_V1.0.2/MSDK/lwip/lwip-2.1.2/src/core\def.c **** /**
  84:C:/Users/stapi/OneDrive/Desktop/GD32VW553/GD32VW55X_Wifi_BLE_SDK/GD32VW55x_RELEASE_V1.0.2/MSDK/lwip/lwip-2.1.2/src/core\def.c ****  * Convert an u32_t from host- to network byte order.
  85:C:/Users/stapi/OneDrive/Desktop/GD32VW553/GD32VW55X_Wifi_BLE_SDK/GD32VW55x_RELEASE_V1.0.2/MSDK/lwip/lwip-2.1.2/src/core\def.c ****  *
  86:C:/Users/stapi/OneDrive/Desktop/GD32VW553/GD32VW55X_Wifi_BLE_SDK/GD32VW55x_RELEASE_V1.0.2/MSDK/lwip/lwip-2.1.2/src/core\def.c ****  * @param n u32_t in host byte order
  87:C:/Users/stapi/OneDrive/Desktop/GD32VW553/GD32VW55X_Wifi_BLE_SDK/GD32VW55x_RELEASE_V1.0.2/MSDK/lwip/lwip-2.1.2/src/core\def.c ****  * @return n in network byte order
  88:C:/Users/stapi/OneDrive/Desktop/GD32VW553/GD32VW55X_Wifi_BLE_SDK/GD32VW55x_RELEASE_V1.0.2/MSDK/lwip/lwip-2.1.2/src/core\def.c ****  */
  89:C:/Users/stapi/OneDrive/Desktop/GD32VW553/GD32VW55X_Wifi_BLE_SDK/GD32VW55x_RELEASE_V1.0.2/MSDK/lwip/lwip-2.1.2/src/core\def.c **** u32_t
  90:C:/Users/stapi/OneDrive/Desktop/GD32VW553/GD32VW55X_Wifi_BLE_SDK/GD32VW55x_RELEASE_V1.0.2/MSDK/lwip/lwip-2.1.2/src/core\def.c **** lwip_htonl(u32_t n)
  91:C:/Users/stapi/OneDrive/Desktop/GD32VW553/GD32VW55X_Wifi_BLE_SDK/GD32VW55x_RELEASE_V1.0.2/MSDK/lwip/lwip-2.1.2/src/core\def.c **** {
  37              		.loc 1 91 1 is_stmt 1
  38              		.cfi_startproc
  39              	.LVL2:
  92:C:/Users/stapi/OneDrive/Desktop/GD32VW553/GD32VW55X_Wifi_BLE_SDK/GD32VW55x_RELEASE_V1.0.2/MSDK/lwip/lwip-2.1.2/src/core\def.c ****   return PP_HTONL(n);
  40              		.loc 1 92 3
  93:C:/Users/stapi/OneDrive/Desktop/GD32VW553/GD32VW55X_Wifi_BLE_SDK/GD32VW55x_RELEASE_V1.0.2/MSDK/lwip/lwip-2.1.2/src/core\def.c **** }
  41              		.loc 1 93 1 is_stmt 0
  42 0000 13558569 		rev8	a0,a0
  43              	.LVL3:
  44 0004 8280     		ret
  45              		.cfi_endproc
  46              	.LFE5:
  48              		.section	.text.lwip_strnstr,"ax",@progbits
  49              		.align	1
  50              		.globl	lwip_strnstr
  52              	lwip_strnstr:
  53              	.LFB6:
  94:C:/Users/stapi/OneDrive/Desktop/GD32VW553/GD32VW55X_Wifi_BLE_SDK/GD32VW55x_RELEASE_V1.0.2/MSDK/lwip/lwip-2.1.2/src/core\def.c **** #endif /* lwip_htonl */
  95:C:/Users/stapi/OneDrive/Desktop/GD32VW553/GD32VW55X_Wifi_BLE_SDK/GD32VW55x_RELEASE_V1.0.2/MSDK/lwip/lwip-2.1.2/src/core\def.c **** 
  96:C:/Users/stapi/OneDrive/Desktop/GD32VW553/GD32VW55X_Wifi_BLE_SDK/GD32VW55x_RELEASE_V1.0.2/MSDK/lwip/lwip-2.1.2/src/core\def.c **** #endif /* BYTE_ORDER == LITTLE_ENDIAN */
  97:C:/Users/stapi/OneDrive/Desktop/GD32VW553/GD32VW55X_Wifi_BLE_SDK/GD32VW55x_RELEASE_V1.0.2/MSDK/lwip/lwip-2.1.2/src/core\def.c **** 
  98:C:/Users/stapi/OneDrive/Desktop/GD32VW553/GD32VW55X_Wifi_BLE_SDK/GD32VW55x_RELEASE_V1.0.2/MSDK/lwip/lwip-2.1.2/src/core\def.c **** #ifndef lwip_strnstr
  99:C:/Users/stapi/OneDrive/Desktop/GD32VW553/GD32VW55X_Wifi_BLE_SDK/GD32VW55x_RELEASE_V1.0.2/MSDK/lwip/lwip-2.1.2/src/core\def.c **** /**
 100:C:/Users/stapi/OneDrive/Desktop/GD32VW553/GD32VW55X_Wifi_BLE_SDK/GD32VW55x_RELEASE_V1.0.2/MSDK/lwip/lwip-2.1.2/src/core\def.c ****  * @ingroup sys_nonstandard
 101:C:/Users/stapi/OneDrive/Desktop/GD32VW553/GD32VW55X_Wifi_BLE_SDK/GD32VW55x_RELEASE_V1.0.2/MSDK/lwip/lwip-2.1.2/src/core\def.c ****  * lwIP default implementation for strnstr() non-standard function.
 102:C:/Users/stapi/OneDrive/Desktop/GD32VW553/GD32VW55X_Wifi_BLE_SDK/GD32VW55x_RELEASE_V1.0.2/MSDK/lwip/lwip-2.1.2/src/core\def.c ****  * This can be \#defined to strnstr() depending on your platform port.
 103:C:/Users/stapi/OneDrive/Desktop/GD32VW553/GD32VW55X_Wifi_BLE_SDK/GD32VW55x_RELEASE_V1.0.2/MSDK/lwip/lwip-2.1.2/src/core\def.c ****  */
 104:C:/Users/stapi/OneDrive/Desktop/GD32VW553/GD32VW55X_Wifi_BLE_SDK/GD32VW55x_RELEASE_V1.0.2/MSDK/lwip/lwip-2.1.2/src/core\def.c **** char *
 105:C:/Users/stapi/OneDrive/Desktop/GD32VW553/GD32VW55X_Wifi_BLE_SDK/GD32VW55x_RELEASE_V1.0.2/MSDK/lwip/lwip-2.1.2/src/core\def.c **** lwip_strnstr(const char *buffer, const char *token, size_t n)
 106:C:/Users/stapi/OneDrive/Desktop/GD32VW553/GD32VW55X_Wifi_BLE_SDK/GD32VW55x_RELEASE_V1.0.2/MSDK/lwip/lwip-2.1.2/src/core\def.c **** {
  54              		.loc 1 106 1 is_stmt 1
  55              		.cfi_startproc
  56              	.LVL4:
  57 0000 17030000 		call	t0,__riscv_save_4
  57      E7020300 
  58              		.cfi_offset 19, -20
  59              		.cfi_offset 18, -16
  60              		.cfi_offset 9, -12
  61              		.cfi_offset 8, -8
  62              		.cfi_offset 1, -4
  63              		.cfi_def_cfa_offset 32
 107:C:/Users/stapi/OneDrive/Desktop/GD32VW553/GD32VW55X_Wifi_BLE_SDK/GD32VW55x_RELEASE_V1.0.2/MSDK/lwip/lwip-2.1.2/src/core\def.c ****   const char *p;
  64              		.loc 1 107 3
 108:C:/Users/stapi/OneDrive/Desktop/GD32VW553/GD32VW55X_Wifi_BLE_SDK/GD32VW55x_RELEASE_V1.0.2/MSDK/lwip/lwip-2.1.2/src/core\def.c ****   size_t tokenlen = strlen(token);
  65              		.loc 1 108 3
 106:C:/Users/stapi/OneDrive/Desktop/GD32VW553/GD32VW55X_Wifi_BLE_SDK/GD32VW55x_RELEASE_V1.0.2/MSDK/lwip/lwip-2.1.2/src/core\def.c ****   const char *p;
  66              		.loc 1 106 1 is_stmt 0
  67 0008 2A84     		mv	s0,a0
  68              		.loc 1 108 21
  69 000a 2E85     		mv	a0,a1
  70              	.LVL5:
 106:C:/Users/stapi/OneDrive/Desktop/GD32VW553/GD32VW55X_Wifi_BLE_SDK/GD32VW55x_RELEASE_V1.0.2/MSDK/lwip/lwip-2.1.2/src/core\def.c ****   const char *p;
  71              		.loc 1 106 1
  72 000c AE89     		mv	s3,a1
  73 000e B284     		mv	s1,a2
  74              		.loc 1 108 21
  75 0010 97000000 		call	strlen
  75      E7800000 
  76              	.LVL6:
 109:C:/Users/stapi/OneDrive/Desktop/GD32VW553/GD32VW55X_Wifi_BLE_SDK/GD32VW55x_RELEASE_V1.0.2/MSDK/lwip/lwip-2.1.2/src/core\def.c ****   if (tokenlen == 0) {
  77              		.loc 1 109 3 is_stmt 1
  78              		.loc 1 109 6 is_stmt 0
  79 0018 19C9     		beq	a0,zero,.L3
  80 001a 2A89     		mv	s2,a0
 110:C:/Users/stapi/OneDrive/Desktop/GD32VW553/GD32VW55X_Wifi_BLE_SDK/GD32VW55x_RELEASE_V1.0.2/MSDK/lwip/lwip-2.1.2/src/core\def.c ****     return LWIP_CONST_CAST(char *, buffer);
 111:C:/Users/stapi/OneDrive/Desktop/GD32VW553/GD32VW55X_Wifi_BLE_SDK/GD32VW55x_RELEASE_V1.0.2/MSDK/lwip/lwip-2.1.2/src/core\def.c ****   }
 112:C:/Users/stapi/OneDrive/Desktop/GD32VW553/GD32VW55X_Wifi_BLE_SDK/GD32VW55x_RELEASE_V1.0.2/MSDK/lwip/lwip-2.1.2/src/core\def.c ****   for (p = buffer; *p && (p + tokenlen <= buffer + n); p++) {
  81              		.loc 1 112 50
  82 001c A294     		add	s1,s0,s1
  83              	.LVL7:
  84              	.L5:
  85              		.loc 1 112 20 is_stmt 1 discriminator 1
  86 001e 83070400 		lb	a5,0(s0)
  87              		.loc 1 112 3 is_stmt 0 discriminator 1
  88 0022 89C7     		beq	a5,zero,.L9
  89              		.loc 1 112 23 discriminator 3
  90 0024 33072401 		add	a4,s0,s2
  91 0028 63F8E400 		bgeu	s1,a4,.L7
  92              	.L9:
 113:C:/Users/stapi/OneDrive/Desktop/GD32VW553/GD32VW55X_Wifi_BLE_SDK/GD32VW55x_RELEASE_V1.0.2/MSDK/lwip/lwip-2.1.2/src/core\def.c ****     if ((*p == *token) && (strncmp(p, token, tokenlen) == 0)) {
 114:C:/Users/stapi/OneDrive/Desktop/GD32VW553/GD32VW55X_Wifi_BLE_SDK/GD32VW55x_RELEASE_V1.0.2/MSDK/lwip/lwip-2.1.2/src/core\def.c ****       return LWIP_CONST_CAST(char *, p);
 115:C:/Users/stapi/OneDrive/Desktop/GD32VW553/GD32VW55X_Wifi_BLE_SDK/GD32VW55x_RELEASE_V1.0.2/MSDK/lwip/lwip-2.1.2/src/core\def.c ****     }
 116:C:/Users/stapi/OneDrive/Desktop/GD32VW553/GD32VW55X_Wifi_BLE_SDK/GD32VW55x_RELEASE_V1.0.2/MSDK/lwip/lwip-2.1.2/src/core\def.c ****   }
 117:C:/Users/stapi/OneDrive/Desktop/GD32VW553/GD32VW55X_Wifi_BLE_SDK/GD32VW55x_RELEASE_V1.0.2/MSDK/lwip/lwip-2.1.2/src/core\def.c ****   return NULL;
  93              		.loc 1 117 10
  94 002c 0144     		li	s0,0
  95              	.LVL8:
  96              	.L3:
 118:C:/Users/stapi/OneDrive/Desktop/GD32VW553/GD32VW55X_Wifi_BLE_SDK/GD32VW55x_RELEASE_V1.0.2/MSDK/lwip/lwip-2.1.2/src/core\def.c **** }
  97              		.loc 1 118 1
  98 002e 2285     		mv	a0,s0
  99 0030 17030000 		tail	__riscv_restore_4
  99      67000300 
 100              		.cfi_remember_state
 101              		.cfi_restore 19
 102              		.cfi_restore 18
 103              		.cfi_restore 9
 104              		.cfi_restore 8
 105              		.cfi_restore 1
 106              		.cfi_def_cfa_offset 0
 107              	.LVL9:
 108              	.L7:
 109              		.cfi_restore_state
 113:C:/Users/stapi/OneDrive/Desktop/GD32VW553/GD32VW55X_Wifi_BLE_SDK/GD32VW55x_RELEASE_V1.0.2/MSDK/lwip/lwip-2.1.2/src/core\def.c ****     if ((*p == *token) && (strncmp(p, token, tokenlen) == 0)) {
 110              		.loc 1 113 5 is_stmt 1
 113:C:/Users/stapi/OneDrive/Desktop/GD32VW553/GD32VW55X_Wifi_BLE_SDK/GD32VW55x_RELEASE_V1.0.2/MSDK/lwip/lwip-2.1.2/src/core\def.c ****     if ((*p == *token) && (strncmp(p, token, tokenlen) == 0)) {
 111              		.loc 1 113 8 is_stmt 0
 112 0038 03870900 		lb	a4,0(s3)
 113 003c 631AF700 		bne	a4,a5,.L6
 113:C:/Users/stapi/OneDrive/Desktop/GD32VW553/GD32VW55X_Wifi_BLE_SDK/GD32VW55x_RELEASE_V1.0.2/MSDK/lwip/lwip-2.1.2/src/core\def.c ****     if ((*p == *token) && (strncmp(p, token, tokenlen) == 0)) {
 114              		.loc 1 113 28 discriminator 1
 115 0040 4A86     		mv	a2,s2
 116 0042 CE85     		mv	a1,s3
 117 0044 2285     		mv	a0,s0
 118 0046 97000000 		call	strncmp
 118      E7800000 
 119              	.LVL10:
 113:C:/Users/stapi/OneDrive/Desktop/GD32VW553/GD32VW55X_Wifi_BLE_SDK/GD32VW55x_RELEASE_V1.0.2/MSDK/lwip/lwip-2.1.2/src/core\def.c ****     if ((*p == *token) && (strncmp(p, token, tokenlen) == 0)) {
 120              		.loc 1 113 24 discriminator 1
 121 004e 65D1     		beq	a0,zero,.L3
 122              	.L6:
 112:C:/Users/stapi/OneDrive/Desktop/GD32VW553/GD32VW55X_Wifi_BLE_SDK/GD32VW55x_RELEASE_V1.0.2/MSDK/lwip/lwip-2.1.2/src/core\def.c ****     if ((*p == *token) && (strncmp(p, token, tokenlen) == 0)) {
 123              		.loc 1 112 56 is_stmt 1 discriminator 2
 112:C:/Users/stapi/OneDrive/Desktop/GD32VW553/GD32VW55X_Wifi_BLE_SDK/GD32VW55x_RELEASE_V1.0.2/MSDK/lwip/lwip-2.1.2/src/core\def.c ****     if ((*p == *token) && (strncmp(p, token, tokenlen) == 0)) {
 124              		.loc 1 112 57 is_stmt 0 discriminator 2
 125 0050 0504     		addi	s0,s0,1
 126              	.LVL11:
 127 0052 F1B7     		j	.L5
 128              		.cfi_endproc
 129              	.LFE6:
 131              		.section	.text.lwip_stricmp,"ax",@progbits
 132              		.align	1
 133              		.globl	lwip_stricmp
 135              	lwip_stricmp:
 136              	.LFB7:
 119:C:/Users/stapi/OneDrive/Desktop/GD32VW553/GD32VW55X_Wifi_BLE_SDK/GD32VW55x_RELEASE_V1.0.2/MSDK/lwip/lwip-2.1.2/src/core\def.c **** #endif
 120:C:/Users/stapi/OneDrive/Desktop/GD32VW553/GD32VW55X_Wifi_BLE_SDK/GD32VW55x_RELEASE_V1.0.2/MSDK/lwip/lwip-2.1.2/src/core\def.c **** 
 121:C:/Users/stapi/OneDrive/Desktop/GD32VW553/GD32VW55X_Wifi_BLE_SDK/GD32VW55x_RELEASE_V1.0.2/MSDK/lwip/lwip-2.1.2/src/core\def.c **** #ifndef lwip_stricmp
 122:C:/Users/stapi/OneDrive/Desktop/GD32VW553/GD32VW55X_Wifi_BLE_SDK/GD32VW55x_RELEASE_V1.0.2/MSDK/lwip/lwip-2.1.2/src/core\def.c **** /**
 123:C:/Users/stapi/OneDrive/Desktop/GD32VW553/GD32VW55X_Wifi_BLE_SDK/GD32VW55x_RELEASE_V1.0.2/MSDK/lwip/lwip-2.1.2/src/core\def.c ****  * @ingroup sys_nonstandard
 124:C:/Users/stapi/OneDrive/Desktop/GD32VW553/GD32VW55X_Wifi_BLE_SDK/GD32VW55x_RELEASE_V1.0.2/MSDK/lwip/lwip-2.1.2/src/core\def.c ****  * lwIP default implementation for stricmp() non-standard function.
 125:C:/Users/stapi/OneDrive/Desktop/GD32VW553/GD32VW55X_Wifi_BLE_SDK/GD32VW55x_RELEASE_V1.0.2/MSDK/lwip/lwip-2.1.2/src/core\def.c ****  * This can be \#defined to stricmp() depending on your platform port.
 126:C:/Users/stapi/OneDrive/Desktop/GD32VW553/GD32VW55X_Wifi_BLE_SDK/GD32VW55x_RELEASE_V1.0.2/MSDK/lwip/lwip-2.1.2/src/core\def.c ****  */
 127:C:/Users/stapi/OneDrive/Desktop/GD32VW553/GD32VW55X_Wifi_BLE_SDK/GD32VW55x_RELEASE_V1.0.2/MSDK/lwip/lwip-2.1.2/src/core\def.c **** int
 128:C:/Users/stapi/OneDrive/Desktop/GD32VW553/GD32VW55X_Wifi_BLE_SDK/GD32VW55x_RELEASE_V1.0.2/MSDK/lwip/lwip-2.1.2/src/core\def.c **** lwip_stricmp(const char *str1, const char *str2)
 129:C:/Users/stapi/OneDrive/Desktop/GD32VW553/GD32VW55X_Wifi_BLE_SDK/GD32VW55x_RELEASE_V1.0.2/MSDK/lwip/lwip-2.1.2/src/core\def.c **** {
 137              		.loc 1 129 1 is_stmt 1
 138              		.cfi_startproc
 139              	.LVL12:
 140              	.LBB2:
 130:C:/Users/stapi/OneDrive/Desktop/GD32VW553/GD32VW55X_Wifi_BLE_SDK/GD32VW55x_RELEASE_V1.0.2/MSDK/lwip/lwip-2.1.2/src/core\def.c ****   char c1, c2;
 131:C:/Users/stapi/OneDrive/Desktop/GD32VW553/GD32VW55X_Wifi_BLE_SDK/GD32VW55x_RELEASE_V1.0.2/MSDK/lwip/lwip-2.1.2/src/core\def.c **** 
 132:C:/Users/stapi/OneDrive/Desktop/GD32VW553/GD32VW55X_Wifi_BLE_SDK/GD32VW55x_RELEASE_V1.0.2/MSDK/lwip/lwip-2.1.2/src/core\def.c ****   do {
 133:C:/Users/stapi/OneDrive/Desktop/GD32VW553/GD32VW55X_Wifi_BLE_SDK/GD32VW55x_RELEASE_V1.0.2/MSDK/lwip/lwip-2.1.2/src/core\def.c ****     c1 = *str1++;
 134:C:/Users/stapi/OneDrive/Desktop/GD32VW553/GD32VW55X_Wifi_BLE_SDK/GD32VW55x_RELEASE_V1.0.2/MSDK/lwip/lwip-2.1.2/src/core\def.c ****     c2 = *str2++;
 135:C:/Users/stapi/OneDrive/Desktop/GD32VW553/GD32VW55X_Wifi_BLE_SDK/GD32VW55x_RELEASE_V1.0.2/MSDK/lwip/lwip-2.1.2/src/core\def.c ****     if (c1 != c2) {
 136:C:/Users/stapi/OneDrive/Desktop/GD32VW553/GD32VW55X_Wifi_BLE_SDK/GD32VW55x_RELEASE_V1.0.2/MSDK/lwip/lwip-2.1.2/src/core\def.c ****       char c1_upc = c1 | 0x20;
 137:C:/Users/stapi/OneDrive/Desktop/GD32VW553/GD32VW55X_Wifi_BLE_SDK/GD32VW55x_RELEASE_V1.0.2/MSDK/lwip/lwip-2.1.2/src/core\def.c ****       if ((c1_upc >= 'a') && (c1_upc <= 'z')) {
 141              		.loc 1 137 10 is_stmt 0
 142 0000 6548     		li	a6,25
 143              	.L17:
 144              	.LBE2:
 130:C:/Users/stapi/OneDrive/Desktop/GD32VW553/GD32VW55X_Wifi_BLE_SDK/GD32VW55x_RELEASE_V1.0.2/MSDK/lwip/lwip-2.1.2/src/core\def.c ****   char c1, c2;
 145              		.loc 1 130 3 is_stmt 1
 132:C:/Users/stapi/OneDrive/Desktop/GD32VW553/GD32VW55X_Wifi_BLE_SDK/GD32VW55x_RELEASE_V1.0.2/MSDK/lwip/lwip-2.1.2/src/core\def.c ****     c1 = *str1++;
 146              		.loc 1 132 3
 133:C:/Users/stapi/OneDrive/Desktop/GD32VW553/GD32VW55X_Wifi_BLE_SDK/GD32VW55x_RELEASE_V1.0.2/MSDK/lwip/lwip-2.1.2/src/core\def.c ****     c2 = *str2++;
 147              		.loc 1 133 5
 133:C:/Users/stapi/OneDrive/Desktop/GD32VW553/GD32VW55X_Wifi_BLE_SDK/GD32VW55x_RELEASE_V1.0.2/MSDK/lwip/lwip-2.1.2/src/core\def.c ****     c2 = *str2++;
 148              		.loc 1 133 15 is_stmt 0
 149 0002 0505     		addi	a0,a0,1
 150              	.LVL13:
 134:C:/Users/stapi/OneDrive/Desktop/GD32VW553/GD32VW55X_Wifi_BLE_SDK/GD32VW55x_RELEASE_V1.0.2/MSDK/lwip/lwip-2.1.2/src/core\def.c ****     if (c1 != c2) {
 151              		.loc 1 134 15
 152 0004 8505     		addi	a1,a1,1
 153              	.LVL14:
 133:C:/Users/stapi/OneDrive/Desktop/GD32VW553/GD32VW55X_Wifi_BLE_SDK/GD32VW55x_RELEASE_V1.0.2/MSDK/lwip/lwip-2.1.2/src/core\def.c ****     c2 = *str2++;
 154              		.loc 1 133 8
 155 0006 0307F5FF 		lb	a4,-1(a0)
 156              	.LVL15:
 134:C:/Users/stapi/OneDrive/Desktop/GD32VW553/GD32VW55X_Wifi_BLE_SDK/GD32VW55x_RELEASE_V1.0.2/MSDK/lwip/lwip-2.1.2/src/core\def.c ****     if (c1 != c2) {
 157              		.loc 1 134 5 is_stmt 1
 134:C:/Users/stapi/OneDrive/Desktop/GD32VW553/GD32VW55X_Wifi_BLE_SDK/GD32VW55x_RELEASE_V1.0.2/MSDK/lwip/lwip-2.1.2/src/core\def.c ****     if (c1 != c2) {
 158              		.loc 1 134 8 is_stmt 0
 159 000a 8387F5FF 		lb	a5,-1(a1)
 160              	.LVL16:
 135:C:/Users/stapi/OneDrive/Desktop/GD32VW553/GD32VW55X_Wifi_BLE_SDK/GD32VW55x_RELEASE_V1.0.2/MSDK/lwip/lwip-2.1.2/src/core\def.c ****       char c1_upc = c1 | 0x20;
 161              		.loc 1 135 5 is_stmt 1
 135:C:/Users/stapi/OneDrive/Desktop/GD32VW553/GD32VW55X_Wifi_BLE_SDK/GD32VW55x_RELEASE_V1.0.2/MSDK/lwip/lwip-2.1.2/src/core\def.c ****       char c1_upc = c1 | 0x20;
 162              		.loc 1 135 8 is_stmt 0
 163 000e 630EF700 		beq	a4,a5,.L15
 164              	.LBB4:
 136:C:/Users/stapi/OneDrive/Desktop/GD32VW553/GD32VW55X_Wifi_BLE_SDK/GD32VW55x_RELEASE_V1.0.2/MSDK/lwip/lwip-2.1.2/src/core\def.c ****       if ((c1_upc >= 'a') && (c1_upc <= 'z')) {
 165              		.loc 1 136 7 is_stmt 1
 136:C:/Users/stapi/OneDrive/Desktop/GD32VW553/GD32VW55X_Wifi_BLE_SDK/GD32VW55x_RELEASE_V1.0.2/MSDK/lwip/lwip-2.1.2/src/core\def.c ****       if ((c1_upc >= 'a') && (c1_upc <= 'z')) {
 166              		.loc 1 136 12 is_stmt 0
 167 0012 13660702 		ori	a2,a4,32
 168              	.LVL17:
 169              		.loc 1 137 7 is_stmt 1
 170              		.loc 1 137 27 is_stmt 0
 171 0016 9306F6F9 		addi	a3,a2,-97
 172              		.loc 1 137 10
 173 001a 93F6F60F 		andi	a3,a3,0xff
 174 001e 6369D800 		bgtu	a3,a6,.L19
 175              	.LBB3:
 138:C:/Users/stapi/OneDrive/Desktop/GD32VW553/GD32VW55X_Wifi_BLE_SDK/GD32VW55x_RELEASE_V1.0.2/MSDK/lwip/lwip-2.1.2/src/core\def.c ****         /* characters are not equal an one is in the alphabet range:
 139:C:/Users/stapi/OneDrive/Desktop/GD32VW553/GD32VW55X_Wifi_BLE_SDK/GD32VW55x_RELEASE_V1.0.2/MSDK/lwip/lwip-2.1.2/src/core\def.c ****         downcase both chars and check again */
 140:C:/Users/stapi/OneDrive/Desktop/GD32VW553/GD32VW55X_Wifi_BLE_SDK/GD32VW55x_RELEASE_V1.0.2/MSDK/lwip/lwip-2.1.2/src/core\def.c ****         char c2_upc = c2 | 0x20;
 176              		.loc 1 140 9 is_stmt 1
 177              	.LVL18:
 141:C:/Users/stapi/OneDrive/Desktop/GD32VW553/GD32VW55X_Wifi_BLE_SDK/GD32VW55x_RELEASE_V1.0.2/MSDK/lwip/lwip-2.1.2/src/core\def.c ****         if (c1_upc != c2_upc) {
 178              		.loc 1 141 9
 179              		.loc 1 141 12 is_stmt 0
 180 0022 93E70702 		ori	a5,a5,32
 181              	.LVL19:
 182 0026 6315F600 		bne	a2,a5,.L19
 183              	.LVL20:
 184              	.L15:
 185              	.LBE3:
 186              	.LBE4:
 142:C:/Users/stapi/OneDrive/Desktop/GD32VW553/GD32VW55X_Wifi_BLE_SDK/GD32VW55x_RELEASE_V1.0.2/MSDK/lwip/lwip-2.1.2/src/core\def.c ****           /* still not equal */
 143:C:/Users/stapi/OneDrive/Desktop/GD32VW553/GD32VW55X_Wifi_BLE_SDK/GD32VW55x_RELEASE_V1.0.2/MSDK/lwip/lwip-2.1.2/src/core\def.c ****           /* don't care for < or > */
 144:C:/Users/stapi/OneDrive/Desktop/GD32VW553/GD32VW55X_Wifi_BLE_SDK/GD32VW55x_RELEASE_V1.0.2/MSDK/lwip/lwip-2.1.2/src/core\def.c ****           return 1;
 145:C:/Users/stapi/OneDrive/Desktop/GD32VW553/GD32VW55X_Wifi_BLE_SDK/GD32VW55x_RELEASE_V1.0.2/MSDK/lwip/lwip-2.1.2/src/core\def.c ****         }
 146:C:/Users/stapi/OneDrive/Desktop/GD32VW553/GD32VW55X_Wifi_BLE_SDK/GD32VW55x_RELEASE_V1.0.2/MSDK/lwip/lwip-2.1.2/src/core\def.c ****       } else {
 147:C:/Users/stapi/OneDrive/Desktop/GD32VW553/GD32VW55X_Wifi_BLE_SDK/GD32VW55x_RELEASE_V1.0.2/MSDK/lwip/lwip-2.1.2/src/core\def.c ****         /* characters are not equal but none is in the alphabet range */
 148:C:/Users/stapi/OneDrive/Desktop/GD32VW553/GD32VW55X_Wifi_BLE_SDK/GD32VW55x_RELEASE_V1.0.2/MSDK/lwip/lwip-2.1.2/src/core\def.c ****         return 1;
 149:C:/Users/stapi/OneDrive/Desktop/GD32VW553/GD32VW55X_Wifi_BLE_SDK/GD32VW55x_RELEASE_V1.0.2/MSDK/lwip/lwip-2.1.2/src/core\def.c ****       }
 150:C:/Users/stapi/OneDrive/Desktop/GD32VW553/GD32VW55X_Wifi_BLE_SDK/GD32VW55x_RELEASE_V1.0.2/MSDK/lwip/lwip-2.1.2/src/core\def.c ****     }
 151:C:/Users/stapi/OneDrive/Desktop/GD32VW553/GD32VW55X_Wifi_BLE_SDK/GD32VW55x_RELEASE_V1.0.2/MSDK/lwip/lwip-2.1.2/src/core\def.c ****   } while (c1 != 0);
 187              		.loc 1 151 11 is_stmt 1
 188              		.loc 1 151 3 is_stmt 0
 189 002a 61FF     		bne	a4,zero,.L17
 152:C:/Users/stapi/OneDrive/Desktop/GD32VW553/GD32VW55X_Wifi_BLE_SDK/GD32VW55x_RELEASE_V1.0.2/MSDK/lwip/lwip-2.1.2/src/core\def.c ****   return 0;
 190              		.loc 1 152 10
 191 002c 0145     		li	a0,0
 192              	.LVL21:
 193 002e 8280     		ret
 194              	.LVL22:
 195              	.L19:
 196              	.LBB5:
 148:C:/Users/stapi/OneDrive/Desktop/GD32VW553/GD32VW55X_Wifi_BLE_SDK/GD32VW55x_RELEASE_V1.0.2/MSDK/lwip/lwip-2.1.2/src/core\def.c ****       }
 197              		.loc 1 148 16
 198 0030 0545     		li	a0,1
 199              	.LVL23:
 200              	.LBE5:
 153:C:/Users/stapi/OneDrive/Desktop/GD32VW553/GD32VW55X_Wifi_BLE_SDK/GD32VW55x_RELEASE_V1.0.2/MSDK/lwip/lwip-2.1.2/src/core\def.c **** }
 201              		.loc 1 153 1
 202 0032 8280     		ret
 203              		.cfi_endproc
 204              	.LFE7:
 206              		.section	.text.lwip_strnicmp,"ax",@progbits
 207              		.align	1
 208              		.globl	lwip_strnicmp
 210              	lwip_strnicmp:
 211              	.LFB8:
 154:C:/Users/stapi/OneDrive/Desktop/GD32VW553/GD32VW55X_Wifi_BLE_SDK/GD32VW55x_RELEASE_V1.0.2/MSDK/lwip/lwip-2.1.2/src/core\def.c **** #endif
 155:C:/Users/stapi/OneDrive/Desktop/GD32VW553/GD32VW55X_Wifi_BLE_SDK/GD32VW55x_RELEASE_V1.0.2/MSDK/lwip/lwip-2.1.2/src/core\def.c **** 
 156:C:/Users/stapi/OneDrive/Desktop/GD32VW553/GD32VW55X_Wifi_BLE_SDK/GD32VW55x_RELEASE_V1.0.2/MSDK/lwip/lwip-2.1.2/src/core\def.c **** #ifndef lwip_strnicmp
 157:C:/Users/stapi/OneDrive/Desktop/GD32VW553/GD32VW55X_Wifi_BLE_SDK/GD32VW55x_RELEASE_V1.0.2/MSDK/lwip/lwip-2.1.2/src/core\def.c **** /**
 158:C:/Users/stapi/OneDrive/Desktop/GD32VW553/GD32VW55X_Wifi_BLE_SDK/GD32VW55x_RELEASE_V1.0.2/MSDK/lwip/lwip-2.1.2/src/core\def.c ****  * @ingroup sys_nonstandard
 159:C:/Users/stapi/OneDrive/Desktop/GD32VW553/GD32VW55X_Wifi_BLE_SDK/GD32VW55x_RELEASE_V1.0.2/MSDK/lwip/lwip-2.1.2/src/core\def.c ****  * lwIP default implementation for strnicmp() non-standard function.
 160:C:/Users/stapi/OneDrive/Desktop/GD32VW553/GD32VW55X_Wifi_BLE_SDK/GD32VW55x_RELEASE_V1.0.2/MSDK/lwip/lwip-2.1.2/src/core\def.c ****  * This can be \#defined to strnicmp() depending on your platform port.
 161:C:/Users/stapi/OneDrive/Desktop/GD32VW553/GD32VW55X_Wifi_BLE_SDK/GD32VW55x_RELEASE_V1.0.2/MSDK/lwip/lwip-2.1.2/src/core\def.c ****  */
 162:C:/Users/stapi/OneDrive/Desktop/GD32VW553/GD32VW55X_Wifi_BLE_SDK/GD32VW55x_RELEASE_V1.0.2/MSDK/lwip/lwip-2.1.2/src/core\def.c **** int
 163:C:/Users/stapi/OneDrive/Desktop/GD32VW553/GD32VW55X_Wifi_BLE_SDK/GD32VW55x_RELEASE_V1.0.2/MSDK/lwip/lwip-2.1.2/src/core\def.c **** lwip_strnicmp(const char *str1, const char *str2, size_t len)
 164:C:/Users/stapi/OneDrive/Desktop/GD32VW553/GD32VW55X_Wifi_BLE_SDK/GD32VW55x_RELEASE_V1.0.2/MSDK/lwip/lwip-2.1.2/src/core\def.c **** {
 212              		.loc 1 164 1 is_stmt 1
 213              		.cfi_startproc
 214              	.LVL24:
 215 0000 7D16     		addi	a2,a2,-1
 216              	.LVL25:
 217              		.loc 1 164 1 is_stmt 0
 218 0002 8147     		li	a5,0
 219              	.LBB6:
 165:C:/Users/stapi/OneDrive/Desktop/GD32VW553/GD32VW55X_Wifi_BLE_SDK/GD32VW55x_RELEASE_V1.0.2/MSDK/lwip/lwip-2.1.2/src/core\def.c ****   char c1, c2;
 166:C:/Users/stapi/OneDrive/Desktop/GD32VW553/GD32VW55X_Wifi_BLE_SDK/GD32VW55x_RELEASE_V1.0.2/MSDK/lwip/lwip-2.1.2/src/core\def.c **** 
 167:C:/Users/stapi/OneDrive/Desktop/GD32VW553/GD32VW55X_Wifi_BLE_SDK/GD32VW55x_RELEASE_V1.0.2/MSDK/lwip/lwip-2.1.2/src/core\def.c ****   do {
 168:C:/Users/stapi/OneDrive/Desktop/GD32VW553/GD32VW55X_Wifi_BLE_SDK/GD32VW55x_RELEASE_V1.0.2/MSDK/lwip/lwip-2.1.2/src/core\def.c ****     c1 = *str1++;
 169:C:/Users/stapi/OneDrive/Desktop/GD32VW553/GD32VW55X_Wifi_BLE_SDK/GD32VW55x_RELEASE_V1.0.2/MSDK/lwip/lwip-2.1.2/src/core\def.c ****     c2 = *str2++;
 170:C:/Users/stapi/OneDrive/Desktop/GD32VW553/GD32VW55X_Wifi_BLE_SDK/GD32VW55x_RELEASE_V1.0.2/MSDK/lwip/lwip-2.1.2/src/core\def.c ****     if (c1 != c2) {
 171:C:/Users/stapi/OneDrive/Desktop/GD32VW553/GD32VW55X_Wifi_BLE_SDK/GD32VW55x_RELEASE_V1.0.2/MSDK/lwip/lwip-2.1.2/src/core\def.c ****       char c1_upc = c1 | 0x20;
 172:C:/Users/stapi/OneDrive/Desktop/GD32VW553/GD32VW55X_Wifi_BLE_SDK/GD32VW55x_RELEASE_V1.0.2/MSDK/lwip/lwip-2.1.2/src/core\def.c ****       if ((c1_upc >= 'a') && (c1_upc <= 'z')) {
 220              		.loc 1 172 10
 221 0004 6543     		li	t1,25
 222              	.LVL26:
 223              	.L24:
 224              	.LBE6:
 165:C:/Users/stapi/OneDrive/Desktop/GD32VW553/GD32VW55X_Wifi_BLE_SDK/GD32VW55x_RELEASE_V1.0.2/MSDK/lwip/lwip-2.1.2/src/core\def.c ****   char c1, c2;
 225              		.loc 1 165 3 is_stmt 1
 167:C:/Users/stapi/OneDrive/Desktop/GD32VW553/GD32VW55X_Wifi_BLE_SDK/GD32VW55x_RELEASE_V1.0.2/MSDK/lwip/lwip-2.1.2/src/core\def.c ****     c1 = *str1++;
 226              		.loc 1 167 3
 168:C:/Users/stapi/OneDrive/Desktop/GD32VW553/GD32VW55X_Wifi_BLE_SDK/GD32VW55x_RELEASE_V1.0.2/MSDK/lwip/lwip-2.1.2/src/core\def.c ****     c2 = *str2++;
 227              		.loc 1 168 5
 168:C:/Users/stapi/OneDrive/Desktop/GD32VW553/GD32VW55X_Wifi_BLE_SDK/GD32VW55x_RELEASE_V1.0.2/MSDK/lwip/lwip-2.1.2/src/core\def.c ****     c2 = *str2++;
 228              		.loc 1 168 8 is_stmt 0
 229 0006 3307F500 		add	a4,a0,a5
 230 000a 83060700 		lb	a3,0(a4)
 231              	.LVL27:
 169:C:/Users/stapi/OneDrive/Desktop/GD32VW553/GD32VW55X_Wifi_BLE_SDK/GD32VW55x_RELEASE_V1.0.2/MSDK/lwip/lwip-2.1.2/src/core\def.c ****     if (c1 != c2) {
 232              		.loc 1 169 5 is_stmt 1
 169:C:/Users/stapi/OneDrive/Desktop/GD32VW553/GD32VW55X_Wifi_BLE_SDK/GD32VW55x_RELEASE_V1.0.2/MSDK/lwip/lwip-2.1.2/src/core\def.c ****     if (c1 != c2) {
 233              		.loc 1 169 8 is_stmt 0
 234 000e 3387F500 		add	a4,a1,a5
 235 0012 03070700 		lb	a4,0(a4)
 236              	.LVL28:
 170:C:/Users/stapi/OneDrive/Desktop/GD32VW553/GD32VW55X_Wifi_BLE_SDK/GD32VW55x_RELEASE_V1.0.2/MSDK/lwip/lwip-2.1.2/src/core\def.c ****       char c1_upc = c1 | 0x20;
 237              		.loc 1 170 5 is_stmt 1
 170:C:/Users/stapi/OneDrive/Desktop/GD32VW553/GD32VW55X_Wifi_BLE_SDK/GD32VW55x_RELEASE_V1.0.2/MSDK/lwip/lwip-2.1.2/src/core\def.c ****       char c1_upc = c1 | 0x20;
 238              		.loc 1 170 8 is_stmt 0
 239 0016 638EE600 		beq	a3,a4,.L22
 240              	.LBB8:
 171:C:/Users/stapi/OneDrive/Desktop/GD32VW553/GD32VW55X_Wifi_BLE_SDK/GD32VW55x_RELEASE_V1.0.2/MSDK/lwip/lwip-2.1.2/src/core\def.c ****       if ((c1_upc >= 'a') && (c1_upc <= 'z')) {
 241              		.loc 1 171 7 is_stmt 1
 171:C:/Users/stapi/OneDrive/Desktop/GD32VW553/GD32VW55X_Wifi_BLE_SDK/GD32VW55x_RELEASE_V1.0.2/MSDK/lwip/lwip-2.1.2/src/core\def.c ****       if ((c1_upc >= 'a') && (c1_upc <= 'z')) {
 242              		.loc 1 171 12 is_stmt 0
 243 001a 93E80602 		ori	a7,a3,32
 244              	.LVL29:
 245              		.loc 1 172 7 is_stmt 1
 246              		.loc 1 172 27 is_stmt 0
 247 001e 1388F8F9 		addi	a6,a7,-97
 248              		.loc 1 172 10
 249 0022 1378F80F 		andi	a6,a6,0xff
 250 0026 636C0301 		bgtu	a6,t1,.L26
 251              	.LBB7:
 173:C:/Users/stapi/OneDrive/Desktop/GD32VW553/GD32VW55X_Wifi_BLE_SDK/GD32VW55x_RELEASE_V1.0.2/MSDK/lwip/lwip-2.1.2/src/core\def.c ****         /* characters are not equal an one is in the alphabet range:
 174:C:/Users/stapi/OneDrive/Desktop/GD32VW553/GD32VW55X_Wifi_BLE_SDK/GD32VW55x_RELEASE_V1.0.2/MSDK/lwip/lwip-2.1.2/src/core\def.c ****         downcase both chars and check again */
 175:C:/Users/stapi/OneDrive/Desktop/GD32VW553/GD32VW55X_Wifi_BLE_SDK/GD32VW55x_RELEASE_V1.0.2/MSDK/lwip/lwip-2.1.2/src/core\def.c ****         char c2_upc = c2 | 0x20;
 252              		.loc 1 175 9 is_stmt 1
 253              	.LVL30:
 176:C:/Users/stapi/OneDrive/Desktop/GD32VW553/GD32VW55X_Wifi_BLE_SDK/GD32VW55x_RELEASE_V1.0.2/MSDK/lwip/lwip-2.1.2/src/core\def.c ****         if (c1_upc != c2_upc) {
 254              		.loc 1 176 9
 255              		.loc 1 176 12 is_stmt 0
 256 002a 13670702 		ori	a4,a4,32
 257              	.LVL31:
 258 002e 6398E800 		bne	a7,a4,.L26
 259              	.LVL32:
 260              	.L22:
 261              	.LBE7:
 262              	.LBE8:
 177:C:/Users/stapi/OneDrive/Desktop/GD32VW553/GD32VW55X_Wifi_BLE_SDK/GD32VW55x_RELEASE_V1.0.2/MSDK/lwip/lwip-2.1.2/src/core\def.c ****           /* still not equal */
 178:C:/Users/stapi/OneDrive/Desktop/GD32VW553/GD32VW55X_Wifi_BLE_SDK/GD32VW55x_RELEASE_V1.0.2/MSDK/lwip/lwip-2.1.2/src/core\def.c ****           /* don't care for < or > */
 179:C:/Users/stapi/OneDrive/Desktop/GD32VW553/GD32VW55X_Wifi_BLE_SDK/GD32VW55x_RELEASE_V1.0.2/MSDK/lwip/lwip-2.1.2/src/core\def.c ****           return 1;
 180:C:/Users/stapi/OneDrive/Desktop/GD32VW553/GD32VW55X_Wifi_BLE_SDK/GD32VW55x_RELEASE_V1.0.2/MSDK/lwip/lwip-2.1.2/src/core\def.c ****         }
 181:C:/Users/stapi/OneDrive/Desktop/GD32VW553/GD32VW55X_Wifi_BLE_SDK/GD32VW55x_RELEASE_V1.0.2/MSDK/lwip/lwip-2.1.2/src/core\def.c ****       } else {
 182:C:/Users/stapi/OneDrive/Desktop/GD32VW553/GD32VW55X_Wifi_BLE_SDK/GD32VW55x_RELEASE_V1.0.2/MSDK/lwip/lwip-2.1.2/src/core\def.c ****         /* characters are not equal but none is in the alphabet range */
 183:C:/Users/stapi/OneDrive/Desktop/GD32VW553/GD32VW55X_Wifi_BLE_SDK/GD32VW55x_RELEASE_V1.0.2/MSDK/lwip/lwip-2.1.2/src/core\def.c ****         return 1;
 184:C:/Users/stapi/OneDrive/Desktop/GD32VW553/GD32VW55X_Wifi_BLE_SDK/GD32VW55x_RELEASE_V1.0.2/MSDK/lwip/lwip-2.1.2/src/core\def.c ****       }
 185:C:/Users/stapi/OneDrive/Desktop/GD32VW553/GD32VW55X_Wifi_BLE_SDK/GD32VW55x_RELEASE_V1.0.2/MSDK/lwip/lwip-2.1.2/src/core\def.c ****     }
 186:C:/Users/stapi/OneDrive/Desktop/GD32VW553/GD32VW55X_Wifi_BLE_SDK/GD32VW55x_RELEASE_V1.0.2/MSDK/lwip/lwip-2.1.2/src/core\def.c ****     len--;
 263              		.loc 1 186 5 is_stmt 1
 187:C:/Users/stapi/OneDrive/Desktop/GD32VW553/GD32VW55X_Wifi_BLE_SDK/GD32VW55x_RELEASE_V1.0.2/MSDK/lwip/lwip-2.1.2/src/core\def.c ****   } while ((len != 0) && (c1 != 0));
 264              		.loc 1 187 11
 265              		.loc 1 187 3 is_stmt 0
 266 0032 6304F600 		beq	a2,a5,.L27
 267              		.loc 1 187 23 discriminator 1
 268 0036 8507     		addi	a5,a5,1
 269              	.LVL33:
 270 0038 F9F6     		bne	a3,zero,.L24
 271              	.LVL34:
 272              	.L27:
 188:C:/Users/stapi/OneDrive/Desktop/GD32VW553/GD32VW55X_Wifi_BLE_SDK/GD32VW55x_RELEASE_V1.0.2/MSDK/lwip/lwip-2.1.2/src/core\def.c ****   return 0;
 273              		.loc 1 188 10
 274 003a 0145     		li	a0,0
 189:C:/Users/stapi/OneDrive/Desktop/GD32VW553/GD32VW55X_Wifi_BLE_SDK/GD32VW55x_RELEASE_V1.0.2/MSDK/lwip/lwip-2.1.2/src/core\def.c **** }
 275              		.loc 1 189 1
 276 003c 8280     		ret
 277              	.LVL35:
 278              	.L26:
 279              	.LBB9:
 183:C:/Users/stapi/OneDrive/Desktop/GD32VW553/GD32VW55X_Wifi_BLE_SDK/GD32VW55x_RELEASE_V1.0.2/MSDK/lwip/lwip-2.1.2/src/core\def.c ****       }
 280              		.loc 1 183 16
 281 003e 0545     		li	a0,1
 282              	.LVL36:
 283 0040 8280     		ret
 284              	.LBE9:
 285              		.cfi_endproc
 286              	.LFE8:
 288              		.section	.text.lwip_itoa,"ax",@progbits
 289              		.align	1
 290              		.globl	lwip_itoa
 292              	lwip_itoa:
 293              	.LFB9:
 190:C:/Users/stapi/OneDrive/Desktop/GD32VW553/GD32VW55X_Wifi_BLE_SDK/GD32VW55x_RELEASE_V1.0.2/MSDK/lwip/lwip-2.1.2/src/core\def.c **** #endif
 191:C:/Users/stapi/OneDrive/Desktop/GD32VW553/GD32VW55X_Wifi_BLE_SDK/GD32VW55x_RELEASE_V1.0.2/MSDK/lwip/lwip-2.1.2/src/core\def.c **** 
 192:C:/Users/stapi/OneDrive/Desktop/GD32VW553/GD32VW55X_Wifi_BLE_SDK/GD32VW55x_RELEASE_V1.0.2/MSDK/lwip/lwip-2.1.2/src/core\def.c **** #ifndef lwip_itoa
 193:C:/Users/stapi/OneDrive/Desktop/GD32VW553/GD32VW55X_Wifi_BLE_SDK/GD32VW55x_RELEASE_V1.0.2/MSDK/lwip/lwip-2.1.2/src/core\def.c **** /**
 194:C:/Users/stapi/OneDrive/Desktop/GD32VW553/GD32VW55X_Wifi_BLE_SDK/GD32VW55x_RELEASE_V1.0.2/MSDK/lwip/lwip-2.1.2/src/core\def.c ****  * @ingroup sys_nonstandard
 195:C:/Users/stapi/OneDrive/Desktop/GD32VW553/GD32VW55X_Wifi_BLE_SDK/GD32VW55x_RELEASE_V1.0.2/MSDK/lwip/lwip-2.1.2/src/core\def.c ****  * lwIP default implementation for itoa() non-standard function.
 196:C:/Users/stapi/OneDrive/Desktop/GD32VW553/GD32VW55X_Wifi_BLE_SDK/GD32VW55x_RELEASE_V1.0.2/MSDK/lwip/lwip-2.1.2/src/core\def.c ****  * This can be \#defined to itoa() or snprintf(result, bufsize, "%d", number) depending on your pla
 197:C:/Users/stapi/OneDrive/Desktop/GD32VW553/GD32VW55X_Wifi_BLE_SDK/GD32VW55x_RELEASE_V1.0.2/MSDK/lwip/lwip-2.1.2/src/core\def.c ****  */
 198:C:/Users/stapi/OneDrive/Desktop/GD32VW553/GD32VW55X_Wifi_BLE_SDK/GD32VW55x_RELEASE_V1.0.2/MSDK/lwip/lwip-2.1.2/src/core\def.c **** void
 199:C:/Users/stapi/OneDrive/Desktop/GD32VW553/GD32VW55X_Wifi_BLE_SDK/GD32VW55x_RELEASE_V1.0.2/MSDK/lwip/lwip-2.1.2/src/core\def.c **** lwip_itoa(char *result, size_t bufsize, int number)
 200:C:/Users/stapi/OneDrive/Desktop/GD32VW553/GD32VW55X_Wifi_BLE_SDK/GD32VW55x_RELEASE_V1.0.2/MSDK/lwip/lwip-2.1.2/src/core\def.c **** {
 294              		.loc 1 200 1 is_stmt 1
 295              		.cfi_startproc
 296              	.LVL37:
 201:C:/Users/stapi/OneDrive/Desktop/GD32VW553/GD32VW55X_Wifi_BLE_SDK/GD32VW55x_RELEASE_V1.0.2/MSDK/lwip/lwip-2.1.2/src/core\def.c ****   char *res = result;
 297              		.loc 1 201 3
 202:C:/Users/stapi/OneDrive/Desktop/GD32VW553/GD32VW55X_Wifi_BLE_SDK/GD32VW55x_RELEASE_V1.0.2/MSDK/lwip/lwip-2.1.2/src/core\def.c ****   char *tmp = result + bufsize - 1;
 298              		.loc 1 202 3
 203:C:/Users/stapi/OneDrive/Desktop/GD32VW553/GD32VW55X_Wifi_BLE_SDK/GD32VW55x_RELEASE_V1.0.2/MSDK/lwip/lwip-2.1.2/src/core\def.c ****   int n = (number >= 0) ? number : -number;
 299              		.loc 1 203 3
 204:C:/Users/stapi/OneDrive/Desktop/GD32VW553/GD32VW55X_Wifi_BLE_SDK/GD32VW55x_RELEASE_V1.0.2/MSDK/lwip/lwip-2.1.2/src/core\def.c **** 
 205:C:/Users/stapi/OneDrive/Desktop/GD32VW553/GD32VW55X_Wifi_BLE_SDK/GD32VW55x_RELEASE_V1.0.2/MSDK/lwip/lwip-2.1.2/src/core\def.c ****   /* handle invalid bufsize */
 206:C:/Users/stapi/OneDrive/Desktop/GD32VW553/GD32VW55X_Wifi_BLE_SDK/GD32VW55x_RELEASE_V1.0.2/MSDK/lwip/lwip-2.1.2/src/core\def.c ****   if (bufsize < 2) {
 300              		.loc 1 206 3
 301              		.loc 1 206 6 is_stmt 0
 302 0000 8547     		li	a5,1
 200:C:/Users/stapi/OneDrive/Desktop/GD32VW553/GD32VW55X_Wifi_BLE_SDK/GD32VW55x_RELEASE_V1.0.2/MSDK/lwip/lwip-2.1.2/src/core\def.c ****   char *res = result;
 303              		.loc 1 200 1
 304 0002 2A87     		mv	a4,a0
 305 0004 AE86     		mv	a3,a1
 306              		.loc 1 206 6
 307 0006 63E7B700 		bgtu	a1,a5,.L30
 207:C:/Users/stapi/OneDrive/Desktop/GD32VW553/GD32VW55X_Wifi_BLE_SDK/GD32VW55x_RELEASE_V1.0.2/MSDK/lwip/lwip-2.1.2/src/core\def.c ****     if (bufsize == 1) {
 308              		.loc 1 207 5 is_stmt 1
 309              		.loc 1 207 8 is_stmt 0
 310 000a 6395F506 		bne	a1,a5,.L42
 311              	.LVL38:
 312              	.L36:
 208:C:/Users/stapi/OneDrive/Desktop/GD32VW553/GD32VW55X_Wifi_BLE_SDK/GD32VW55x_RELEASE_V1.0.2/MSDK/lwip/lwip-2.1.2/src/core\def.c ****       *result = 0;
 313              		.loc 1 208 7 is_stmt 1
 314              		.loc 1 208 15 is_stmt 0
 315 000e 23000700 		sb	zero,0(a4)
 316 0012 8280     		ret
 317              	.LVL39:
 318              	.L30:
 209:C:/Users/stapi/OneDrive/Desktop/GD32VW553/GD32VW55X_Wifi_BLE_SDK/GD32VW55x_RELEASE_V1.0.2/MSDK/lwip/lwip-2.1.2/src/core\def.c ****     }
 210:C:/Users/stapi/OneDrive/Desktop/GD32VW553/GD32VW55X_Wifi_BLE_SDK/GD32VW55x_RELEASE_V1.0.2/MSDK/lwip/lwip-2.1.2/src/core\def.c ****     return;
 211:C:/Users/stapi/OneDrive/Desktop/GD32VW553/GD32VW55X_Wifi_BLE_SDK/GD32VW55x_RELEASE_V1.0.2/MSDK/lwip/lwip-2.1.2/src/core\def.c ****   }
 212:C:/Users/stapi/OneDrive/Desktop/GD32VW553/GD32VW55X_Wifi_BLE_SDK/GD32VW55x_RELEASE_V1.0.2/MSDK/lwip/lwip-2.1.2/src/core\def.c **** 
 213:C:/Users/stapi/OneDrive/Desktop/GD32VW553/GD32VW55X_Wifi_BLE_SDK/GD32VW55x_RELEASE_V1.0.2/MSDK/lwip/lwip-2.1.2/src/core\def.c ****   /* First, add sign */
 214:C:/Users/stapi/OneDrive/Desktop/GD32VW553/GD32VW55X_Wifi_BLE_SDK/GD32VW55x_RELEASE_V1.0.2/MSDK/lwip/lwip-2.1.2/src/core\def.c ****   if (number < 0) {
 319              		.loc 1 214 3 is_stmt 1
 320              		.loc 1 214 6 is_stmt 0
 321 0014 63570600 		bge	a2,zero,.L32
 215:C:/Users/stapi/OneDrive/Desktop/GD32VW553/GD32VW55X_Wifi_BLE_SDK/GD32VW55x_RELEASE_V1.0.2/MSDK/lwip/lwip-2.1.2/src/core\def.c ****     *res++ = '-';
 322              		.loc 1 215 5 is_stmt 1
 323              		.loc 1 215 12 is_stmt 0
 324 0018 9307D002 		li	a5,45
 325              		.loc 1 215 9
 326 001c 0505     		addi	a0,a0,1
 327              	.LVL40:
 328              		.loc 1 215 12
 329 001e 2300F700 		sb	a5,0(a4)
 330              	.L32:
 202:C:/Users/stapi/OneDrive/Desktop/GD32VW553/GD32VW55X_Wifi_BLE_SDK/GD32VW55x_RELEASE_V1.0.2/MSDK/lwip/lwip-2.1.2/src/core\def.c ****   int n = (number >= 0) ? number : -number;
 331              		.loc 1 202 32
 332 0022 9387F6FF 		addi	a5,a3,-1
 202:C:/Users/stapi/OneDrive/Desktop/GD32VW553/GD32VW55X_Wifi_BLE_SDK/GD32VW55x_RELEASE_V1.0.2/MSDK/lwip/lwip-2.1.2/src/core\def.c ****   int n = (number >= 0) ? number : -number;
 333              		.loc 1 202 9
 334 0026 B305F700 		add	a1,a4,a5
 335              	.LVL41:
 216:C:/Users/stapi/OneDrive/Desktop/GD32VW553/GD32VW55X_Wifi_BLE_SDK/GD32VW55x_RELEASE_V1.0.2/MSDK/lwip/lwip-2.1.2/src/core\def.c ****   }
 217:C:/Users/stapi/OneDrive/Desktop/GD32VW553/GD32VW55X_Wifi_BLE_SDK/GD32VW55x_RELEASE_V1.0.2/MSDK/lwip/lwip-2.1.2/src/core\def.c ****   /* Then create the string from the end and stop if buffer full,
 218:C:/Users/stapi/OneDrive/Desktop/GD32VW553/GD32VW55X_Wifi_BLE_SDK/GD32VW55x_RELEASE_V1.0.2/MSDK/lwip/lwip-2.1.2/src/core\def.c ****      and ensure output string is zero terminated */
 219:C:/Users/stapi/OneDrive/Desktop/GD32VW553/GD32VW55X_Wifi_BLE_SDK/GD32VW55x_RELEASE_V1.0.2/MSDK/lwip/lwip-2.1.2/src/core\def.c ****   *tmp = 0;
 336              		.loc 1 219 8
 337 002a 23800500 		sb	zero,0(a1)
 203:C:/Users/stapi/OneDrive/Desktop/GD32VW553/GD32VW55X_Wifi_BLE_SDK/GD32VW55x_RELEASE_V1.0.2/MSDK/lwip/lwip-2.1.2/src/core\def.c **** 
 338              		.loc 1 203 7
 339 002e B307C040 		neg	a5,a2
 340              	.LBB10:
 220:C:/Users/stapi/OneDrive/Desktop/GD32VW553/GD32VW55X_Wifi_BLE_SDK/GD32VW55x_RELEASE_V1.0.2/MSDK/lwip/lwip-2.1.2/src/core\def.c ****   while ((n != 0) && (tmp > res)) {
 221:C:/Users/stapi/OneDrive/Desktop/GD32VW553/GD32VW55X_Wifi_BLE_SDK/GD32VW55x_RELEASE_V1.0.2/MSDK/lwip/lwip-2.1.2/src/core\def.c ****     char val = (char)('0' + (n % 10));
 341              		.loc 1 221 32
 342 0032 2948     		li	a6,10
 343              	.LBE10:
 203:C:/Users/stapi/OneDrive/Desktop/GD32VW553/GD32VW55X_Wifi_BLE_SDK/GD32VW55x_RELEASE_V1.0.2/MSDK/lwip/lwip-2.1.2/src/core\def.c **** 
 344              		.loc 1 203 7
 345 0034 B367F60A 		max	a5,a2,a5
 219:C:/Users/stapi/OneDrive/Desktop/GD32VW553/GD32VW55X_Wifi_BLE_SDK/GD32VW55x_RELEASE_V1.0.2/MSDK/lwip/lwip-2.1.2/src/core\def.c ****   while ((n != 0) && (tmp > res)) {
 346              		.loc 1 219 3 is_stmt 1
 220:C:/Users/stapi/OneDrive/Desktop/GD32VW553/GD32VW55X_Wifi_BLE_SDK/GD32VW55x_RELEASE_V1.0.2/MSDK/lwip/lwip-2.1.2/src/core\def.c ****   while ((n != 0) && (tmp > res)) {
 347              		.loc 1 220 3
 348              	.LVL42:
 349              	.L33:
 220:C:/Users/stapi/OneDrive/Desktop/GD32VW553/GD32VW55X_Wifi_BLE_SDK/GD32VW55x_RELEASE_V1.0.2/MSDK/lwip/lwip-2.1.2/src/core\def.c ****   while ((n != 0) && (tmp > res)) {
 350              		.loc 1 220 9
 351 0038 85C7     		beq	a5,zero,.L34
 220:C:/Users/stapi/OneDrive/Desktop/GD32VW553/GD32VW55X_Wifi_BLE_SDK/GD32VW55x_RELEASE_V1.0.2/MSDK/lwip/lwip-2.1.2/src/core\def.c ****   while ((n != 0) && (tmp > res)) {
 352              		.loc 1 220 19 is_stmt 0 discriminator 1
 353 003a E37AB5FC 		bgeu	a0,a1,.L36
 354              	.LBB11:
 355              		.loc 1 221 5 is_stmt 1
 356              	.LVL43:
 222:C:/Users/stapi/OneDrive/Desktop/GD32VW553/GD32VW55X_Wifi_BLE_SDK/GD32VW55x_RELEASE_V1.0.2/MSDK/lwip/lwip-2.1.2/src/core\def.c ****     tmp--;
 357              		.loc 1 222 5
 221:C:/Users/stapi/OneDrive/Desktop/GD32VW553/GD32VW55X_Wifi_BLE_SDK/GD32VW55x_RELEASE_V1.0.2/MSDK/lwip/lwip-2.1.2/src/core\def.c ****     tmp--;
 358              		.loc 1 221 32 is_stmt 0
 359 003e 33E60703 		rem	a2,a5,a6
 360              		.loc 1 222 8
 361 0042 FD15     		addi	a1,a1,-1
 362              	.LVL44:
 223:C:/Users/stapi/OneDrive/Desktop/GD32VW553/GD32VW55X_Wifi_BLE_SDK/GD32VW55x_RELEASE_V1.0.2/MSDK/lwip/lwip-2.1.2/src/core\def.c ****     *tmp = val;
 363              		.loc 1 223 5 is_stmt 1
 221:C:/Users/stapi/OneDrive/Desktop/GD32VW553/GD32VW55X_Wifi_BLE_SDK/GD32VW55x_RELEASE_V1.0.2/MSDK/lwip/lwip-2.1.2/src/core\def.c ****     tmp--;
 364              		.loc 1 221 27 is_stmt 0
 365 0044 13060603 		addi	a2,a2,48
 224:C:/Users/stapi/OneDrive/Desktop/GD32VW553/GD32VW55X_Wifi_BLE_SDK/GD32VW55x_RELEASE_V1.0.2/MSDK/lwip/lwip-2.1.2/src/core\def.c ****     n = n / 10;
 366              		.loc 1 224 7
 367 0048 B3C70703 		div	a5,a5,a6
 368              	.LVL45:
 223:C:/Users/stapi/OneDrive/Desktop/GD32VW553/GD32VW55X_Wifi_BLE_SDK/GD32VW55x_RELEASE_V1.0.2/MSDK/lwip/lwip-2.1.2/src/core\def.c ****     *tmp = val;
 369              		.loc 1 223 10
 370 004c 2380C500 		sb	a2,0(a1)
 371              		.loc 1 224 5 is_stmt 1
 372              	.LVL46:
 373 0050 E5B7     		j	.L33
 374              	.LVL47:
 375              	.L37:
 376              	.LBE11:
 225:C:/Users/stapi/OneDrive/Desktop/GD32VW553/GD32VW55X_Wifi_BLE_SDK/GD32VW55x_RELEASE_V1.0.2/MSDK/lwip/lwip-2.1.2/src/core\def.c ****   }
 226:C:/Users/stapi/OneDrive/Desktop/GD32VW553/GD32VW55X_Wifi_BLE_SDK/GD32VW55x_RELEASE_V1.0.2/MSDK/lwip/lwip-2.1.2/src/core\def.c ****   if (n) {
 227:C:/Users/stapi/OneDrive/Desktop/GD32VW553/GD32VW55X_Wifi_BLE_SDK/GD32VW55x_RELEASE_V1.0.2/MSDK/lwip/lwip-2.1.2/src/core\def.c ****     /* buffer is too small */
 228:C:/Users/stapi/OneDrive/Desktop/GD32VW553/GD32VW55X_Wifi_BLE_SDK/GD32VW55x_RELEASE_V1.0.2/MSDK/lwip/lwip-2.1.2/src/core\def.c ****     *result = 0;
 229:C:/Users/stapi/OneDrive/Desktop/GD32VW553/GD32VW55X_Wifi_BLE_SDK/GD32VW55x_RELEASE_V1.0.2/MSDK/lwip/lwip-2.1.2/src/core\def.c ****     return;
 230:C:/Users/stapi/OneDrive/Desktop/GD32VW553/GD32VW55X_Wifi_BLE_SDK/GD32VW55x_RELEASE_V1.0.2/MSDK/lwip/lwip-2.1.2/src/core\def.c ****   }
 231:C:/Users/stapi/OneDrive/Desktop/GD32VW553/GD32VW55X_Wifi_BLE_SDK/GD32VW55x_RELEASE_V1.0.2/MSDK/lwip/lwip-2.1.2/src/core\def.c ****   if (*tmp == 0) {
 232:C:/Users/stapi/OneDrive/Desktop/GD32VW553/GD32VW55X_Wifi_BLE_SDK/GD32VW55x_RELEASE_V1.0.2/MSDK/lwip/lwip-2.1.2/src/core\def.c ****     /* Nothing added? */
 233:C:/Users/stapi/OneDrive/Desktop/GD32VW553/GD32VW55X_Wifi_BLE_SDK/GD32VW55x_RELEASE_V1.0.2/MSDK/lwip/lwip-2.1.2/src/core\def.c ****     *res++ = '0';
 377              		.loc 1 233 5
 378              		.loc 1 233 12 is_stmt 0
 379 0052 93070003 		li	a5,48
 380 0056 2300F500 		sb	a5,0(a0)
 234:C:/Users/stapi/OneDrive/Desktop/GD32VW553/GD32VW55X_Wifi_BLE_SDK/GD32VW55x_RELEASE_V1.0.2/MSDK/lwip/lwip-2.1.2/src/core\def.c ****     *res++ = 0;
 381              		.loc 1 234 5 is_stmt 1
 382              	.LVL48:
 383              		.loc 1 234 12 is_stmt 0
 384 005a A3000500 		sb	zero,1(a0)
 235:C:/Users/stapi/OneDrive/Desktop/GD32VW553/GD32VW55X_Wifi_BLE_SDK/GD32VW55x_RELEASE_V1.0.2/MSDK/lwip/lwip-2.1.2/src/core\def.c ****     return;
 385              		.loc 1 235 5 is_stmt 1
 386 005e 8280     		ret
 387              	.LVL49:
 388              	.L34:
 226:C:/Users/stapi/OneDrive/Desktop/GD32VW553/GD32VW55X_Wifi_BLE_SDK/GD32VW55x_RELEASE_V1.0.2/MSDK/lwip/lwip-2.1.2/src/core\def.c ****     /* buffer is too small */
 389              		.loc 1 226 3
 231:C:/Users/stapi/OneDrive/Desktop/GD32VW553/GD32VW55X_Wifi_BLE_SDK/GD32VW55x_RELEASE_V1.0.2/MSDK/lwip/lwip-2.1.2/src/core\def.c ****     /* Nothing added? */
 390              		.loc 1 231 3
 231:C:/Users/stapi/OneDrive/Desktop/GD32VW553/GD32VW55X_Wifi_BLE_SDK/GD32VW55x_RELEASE_V1.0.2/MSDK/lwip/lwip-2.1.2/src/core\def.c ****     /* Nothing added? */
 391              		.loc 1 231 6 is_stmt 0
 392 0060 83870500 		lb	a5,0(a1)
 393              	.LVL50:
 394 0064 FDD7     		beq	a5,zero,.L37
 236:C:/Users/stapi/OneDrive/Desktop/GD32VW553/GD32VW55X_Wifi_BLE_SDK/GD32VW55x_RELEASE_V1.0.2/MSDK/lwip/lwip-2.1.2/src/core\def.c ****   }
 237:C:/Users/stapi/OneDrive/Desktop/GD32VW553/GD32VW55X_Wifi_BLE_SDK/GD32VW55x_RELEASE_V1.0.2/MSDK/lwip/lwip-2.1.2/src/core\def.c ****   /* move from temporary buffer to output buffer (sign is not moved) */
 238:C:/Users/stapi/OneDrive/Desktop/GD32VW553/GD32VW55X_Wifi_BLE_SDK/GD32VW55x_RELEASE_V1.0.2/MSDK/lwip/lwip-2.1.2/src/core\def.c ****   memmove(res, tmp, (size_t)((result + bufsize) - tmp));
 395              		.loc 1 238 3 is_stmt 1
 396              		.loc 1 238 38 is_stmt 0
 397 0066 3306D700 		add	a2,a4,a3
 398              		.loc 1 238 3
 399 006a 0D8E     		sub	a2,a2,a1
 400 006c 17030000 		tail	memmove
 400      67000300 
 401              	.LVL51:
 402              	.L42:
 403 0074 8280     		ret
 404              		.cfi_endproc
 405              	.LFE9:
 407              		.text
 408              	.Letext0:
 409              		.file 2 "c:\\users\\stapi\\onedrive\\desktop\\gd32vw553\\embeddedbuilder_v1.4.7.26843\\tools\\nucl
 410              		.file 3 "c:\\users\\stapi\\onedrive\\desktop\\gd32vw553\\embeddedbuilder_v1.4.7.26843\\tools\\nucl
 411              		.file 4 "c:\\users\\stapi\\onedrive\\desktop\\gd32vw553\\embeddedbuilder_v1.4.7.26843\\tools\\nucl
 412              		.file 5 "..\\..\\..\\..\\lwip\\lwip-2.1.2\\src\\include/lwip/arch.h"
 413              		.file 6 "c:\\users\\stapi\\onedrive\\desktop\\gd32vw553\\embeddedbuilder_v1.4.7.26843\\tools\\nucl
DEFINED SYMBOLS
                            *ABS*:0000000000000000 def.c
C:\Users\stapi\AppData\Local\Temp\ccGxkCZa.s:13     .text.lwip_htons:0000000000000000 lwip_htons
C:\Users\stapi\AppData\Local\Temp\ccGxkCZa.s:17     .text.lwip_htons:0000000000000000 .L0 
C:\Users\stapi\AppData\Local\Temp\ccGxkCZa.s:19     .text.lwip_htons:0000000000000000 .L0 
C:\Users\stapi\AppData\Local\Temp\ccGxkCZa.s:20     .text.lwip_htons:0000000000000000 .L0 
C:\Users\stapi\AppData\Local\Temp\ccGxkCZa.s:21     .text.lwip_htons:0000000000000000 .L0 
C:\Users\stapi\AppData\Local\Temp\ccGxkCZa.s:26     .text.lwip_htons:0000000000000008 .L0 
C:\Users\stapi\AppData\Local\Temp\ccGxkCZa.s:28     .text.lwip_htons:000000000000000e .L0 
C:\Users\stapi\AppData\Local\Temp\ccGxkCZa.s:35     .text.lwip_htonl:0000000000000000 lwip_htonl
C:\Users\stapi\AppData\Local\Temp\ccGxkCZa.s:38     .text.lwip_htonl:0000000000000000 .L0 
C:\Users\stapi\AppData\Local\Temp\ccGxkCZa.s:40     .text.lwip_htonl:0000000000000000 .L0 
C:\Users\stapi\AppData\Local\Temp\ccGxkCZa.s:41     .text.lwip_htonl:0000000000000000 .L0 
C:\Users\stapi\AppData\Local\Temp\ccGxkCZa.s:42     .text.lwip_htonl:0000000000000000 .L0 
C:\Users\stapi\AppData\Local\Temp\ccGxkCZa.s:45     .text.lwip_htonl:0000000000000006 .L0 
C:\Users\stapi\AppData\Local\Temp\ccGxkCZa.s:52     .text.lwip_strnstr:0000000000000000 lwip_strnstr
C:\Users\stapi\AppData\Local\Temp\ccGxkCZa.s:55     .text.lwip_strnstr:0000000000000000 .L0 
C:\Users\stapi\AppData\Local\Temp\ccGxkCZa.s:57     .text.lwip_strnstr:0000000000000000 .L0 
C:\Users\stapi\AppData\Local\Temp\ccGxkCZa.s:58     .text.lwip_strnstr:0000000000000008 .L0 
C:\Users\stapi\AppData\Local\Temp\ccGxkCZa.s:59     .text.lwip_strnstr:0000000000000008 .L0 
C:\Users\stapi\AppData\Local\Temp\ccGxkCZa.s:60     .text.lwip_strnstr:0000000000000008 .L0 
C:\Users\stapi\AppData\Local\Temp\ccGxkCZa.s:61     .text.lwip_strnstr:0000000000000008 .L0 
C:\Users\stapi\AppData\Local\Temp\ccGxkCZa.s:62     .text.lwip_strnstr:0000000000000008 .L0 
C:\Users\stapi\AppData\Local\Temp\ccGxkCZa.s:63     .text.lwip_strnstr:0000000000000008 .L0 
C:\Users\stapi\AppData\Local\Temp\ccGxkCZa.s:65     .text.lwip_strnstr:0000000000000008 .L0 
C:\Users\stapi\AppData\Local\Temp\ccGxkCZa.s:66     .text.lwip_strnstr:0000000000000008 .L0 
C:\Users\stapi\AppData\Local\Temp\ccGxkCZa.s:67     .text.lwip_strnstr:0000000000000008 .L0 
C:\Users\stapi\AppData\Local\Temp\ccGxkCZa.s:69     .text.lwip_strnstr:000000000000000a .L0 
C:\Users\stapi\AppData\Local\Temp\ccGxkCZa.s:72     .text.lwip_strnstr:000000000000000c .L0 
C:\Users\stapi\AppData\Local\Temp\ccGxkCZa.s:75     .text.lwip_strnstr:0000000000000010 .L0 
C:\Users\stapi\AppData\Local\Temp\ccGxkCZa.s:78     .text.lwip_strnstr:0000000000000018 .L0 
C:\Users\stapi\AppData\Local\Temp\ccGxkCZa.s:79     .text.lwip_strnstr:0000000000000018 .L0 
C:\Users\stapi\AppData\Local\Temp\ccGxkCZa.s:82     .text.lwip_strnstr:000000000000001c .L0 
C:\Users\stapi\AppData\Local\Temp\ccGxkCZa.s:86     .text.lwip_strnstr:000000000000001e .L0 
C:\Users\stapi\AppData\Local\Temp\ccGxkCZa.s:88     .text.lwip_strnstr:0000000000000022 .L0 
C:\Users\stapi\AppData\Local\Temp\ccGxkCZa.s:90     .text.lwip_strnstr:0000000000000024 .L0 
C:\Users\stapi\AppData\Local\Temp\ccGxkCZa.s:94     .text.lwip_strnstr:000000000000002c .L0 
C:\Users\stapi\AppData\Local\Temp\ccGxkCZa.s:98     .text.lwip_strnstr:000000000000002e .L0 
C:\Users\stapi\AppData\Local\Temp\ccGxkCZa.s:100    .text.lwip_strnstr:0000000000000038 .L0 
C:\Users\stapi\AppData\Local\Temp\ccGxkCZa.s:101    .text.lwip_strnstr:0000000000000038 .L0 
C:\Users\stapi\AppData\Local\Temp\ccGxkCZa.s:102    .text.lwip_strnstr:0000000000000038 .L0 
C:\Users\stapi\AppData\Local\Temp\ccGxkCZa.s:103    .text.lwip_strnstr:0000000000000038 .L0 
C:\Users\stapi\AppData\Local\Temp\ccGxkCZa.s:104    .text.lwip_strnstr:0000000000000038 .L0 
C:\Users\stapi\AppData\Local\Temp\ccGxkCZa.s:105    .text.lwip_strnstr:0000000000000038 .L0 
C:\Users\stapi\AppData\Local\Temp\ccGxkCZa.s:106    .text.lwip_strnstr:0000000000000038 .L0 
C:\Users\stapi\AppData\Local\Temp\ccGxkCZa.s:109    .text.lwip_strnstr:0000000000000038 .L0 
C:\Users\stapi\AppData\Local\Temp\ccGxkCZa.s:111    .text.lwip_strnstr:0000000000000038 .L0 
C:\Users\stapi\AppData\Local\Temp\ccGxkCZa.s:112    .text.lwip_strnstr:0000000000000038 .L0 
C:\Users\stapi\AppData\Local\Temp\ccGxkCZa.s:115    .text.lwip_strnstr:0000000000000040 .L0 
C:\Users\stapi\AppData\Local\Temp\ccGxkCZa.s:121    .text.lwip_strnstr:000000000000004e .L0 
C:\Users\stapi\AppData\Local\Temp\ccGxkCZa.s:124    .text.lwip_strnstr:0000000000000050 .L0 
C:\Users\stapi\AppData\Local\Temp\ccGxkCZa.s:125    .text.lwip_strnstr:0000000000000050 .L0 
C:\Users\stapi\AppData\Local\Temp\ccGxkCZa.s:128    .text.lwip_strnstr:0000000000000054 .L0 
C:\Users\stapi\AppData\Local\Temp\ccGxkCZa.s:135    .text.lwip_stricmp:0000000000000000 lwip_stricmp
C:\Users\stapi\AppData\Local\Temp\ccGxkCZa.s:138    .text.lwip_stricmp:0000000000000000 .L0 
C:\Users\stapi\AppData\Local\Temp\ccGxkCZa.s:141    .text.lwip_stricmp:0000000000000000 .L0 
C:\Users\stapi\AppData\Local\Temp\ccGxkCZa.s:142    .text.lwip_stricmp:0000000000000000 .L0 
C:\Users\stapi\AppData\Local\Temp\ccGxkCZa.s:146    .text.lwip_stricmp:0000000000000002 .L0 
C:\Users\stapi\AppData\Local\Temp\ccGxkCZa.s:147    .text.lwip_stricmp:0000000000000002 .L0 
C:\Users\stapi\AppData\Local\Temp\ccGxkCZa.s:148    .text.lwip_stricmp:0000000000000002 .L0 
C:\Users\stapi\AppData\Local\Temp\ccGxkCZa.s:149    .text.lwip_stricmp:0000000000000002 .L0 
C:\Users\stapi\AppData\Local\Temp\ccGxkCZa.s:152    .text.lwip_stricmp:0000000000000004 .L0 
C:\Users\stapi\AppData\Local\Temp\ccGxkCZa.s:155    .text.lwip_stricmp:0000000000000006 .L0 
C:\Users\stapi\AppData\Local\Temp\ccGxkCZa.s:158    .text.lwip_stricmp:000000000000000a .L0 
C:\Users\stapi\AppData\Local\Temp\ccGxkCZa.s:159    .text.lwip_stricmp:000000000000000a .L0 
C:\Users\stapi\AppData\Local\Temp\ccGxkCZa.s:162    .text.lwip_stricmp:000000000000000e .L0 
C:\Users\stapi\AppData\Local\Temp\ccGxkCZa.s:163    .text.lwip_stricmp:000000000000000e .L0 
C:\Users\stapi\AppData\Local\Temp\ccGxkCZa.s:166    .text.lwip_stricmp:0000000000000012 .L0 
C:\Users\stapi\AppData\Local\Temp\ccGxkCZa.s:167    .text.lwip_stricmp:0000000000000012 .L0 
C:\Users\stapi\AppData\Local\Temp\ccGxkCZa.s:170    .text.lwip_stricmp:0000000000000016 .L0 
C:\Users\stapi\AppData\Local\Temp\ccGxkCZa.s:171    .text.lwip_stricmp:0000000000000016 .L0 
C:\Users\stapi\AppData\Local\Temp\ccGxkCZa.s:173    .text.lwip_stricmp:000000000000001a .L0 
C:\Users\stapi\AppData\Local\Temp\ccGxkCZa.s:178    .text.lwip_stricmp:0000000000000022 .L0 
C:\Users\stapi\AppData\Local\Temp\ccGxkCZa.s:179    .text.lwip_stricmp:0000000000000022 .L0 
C:\Users\stapi\AppData\Local\Temp\ccGxkCZa.s:180    .text.lwip_stricmp:0000000000000022 .L0 
C:\Users\stapi\AppData\Local\Temp\ccGxkCZa.s:188    .text.lwip_stricmp:000000000000002a .L0 
C:\Users\stapi\AppData\Local\Temp\ccGxkCZa.s:189    .text.lwip_stricmp:000000000000002a .L0 
C:\Users\stapi\AppData\Local\Temp\ccGxkCZa.s:191    .text.lwip_stricmp:000000000000002c .L0 
C:\Users\stapi\AppData\Local\Temp\ccGxkCZa.s:198    .text.lwip_stricmp:0000000000000030 .L0 
C:\Users\stapi\AppData\Local\Temp\ccGxkCZa.s:202    .text.lwip_stricmp:0000000000000032 .L0 
C:\Users\stapi\AppData\Local\Temp\ccGxkCZa.s:203    .text.lwip_stricmp:0000000000000034 .L0 
C:\Users\stapi\AppData\Local\Temp\ccGxkCZa.s:210    .text.lwip_strnicmp:0000000000000000 lwip_strnicmp
C:\Users\stapi\AppData\Local\Temp\ccGxkCZa.s:213    .text.lwip_strnicmp:0000000000000000 .L0 
C:\Users\stapi\AppData\Local\Temp\ccGxkCZa.s:215    .text.lwip_strnicmp:0000000000000000 .L0 
C:\Users\stapi\AppData\Local\Temp\ccGxkCZa.s:218    .text.lwip_strnicmp:0000000000000002 .L0 
C:\Users\stapi\AppData\Local\Temp\ccGxkCZa.s:221    .text.lwip_strnicmp:0000000000000004 .L0 
C:\Users\stapi\AppData\Local\Temp\ccGxkCZa.s:226    .text.lwip_strnicmp:0000000000000006 .L0 
C:\Users\stapi\AppData\Local\Temp\ccGxkCZa.s:227    .text.lwip_strnicmp:0000000000000006 .L0 
C:\Users\stapi\AppData\Local\Temp\ccGxkCZa.s:228    .text.lwip_strnicmp:0000000000000006 .L0 
C:\Users\stapi\AppData\Local\Temp\ccGxkCZa.s:229    .text.lwip_strnicmp:0000000000000006 .L0 
C:\Users\stapi\AppData\Local\Temp\ccGxkCZa.s:233    .text.lwip_strnicmp:000000000000000e .L0 
C:\Users\stapi\AppData\Local\Temp\ccGxkCZa.s:234    .text.lwip_strnicmp:000000000000000e .L0 
C:\Users\stapi\AppData\Local\Temp\ccGxkCZa.s:238    .text.lwip_strnicmp:0000000000000016 .L0 
C:\Users\stapi\AppData\Local\Temp\ccGxkCZa.s:239    .text.lwip_strnicmp:0000000000000016 .L0 
C:\Users\stapi\AppData\Local\Temp\ccGxkCZa.s:242    .text.lwip_strnicmp:000000000000001a .L0 
C:\Users\stapi\AppData\Local\Temp\ccGxkCZa.s:243    .text.lwip_strnicmp:000000000000001a .L0 
C:\Users\stapi\AppData\Local\Temp\ccGxkCZa.s:246    .text.lwip_strnicmp:000000000000001e .L0 
C:\Users\stapi\AppData\Local\Temp\ccGxkCZa.s:247    .text.lwip_strnicmp:000000000000001e .L0 
C:\Users\stapi\AppData\Local\Temp\ccGxkCZa.s:249    .text.lwip_strnicmp:0000000000000022 .L0 
C:\Users\stapi\AppData\Local\Temp\ccGxkCZa.s:254    .text.lwip_strnicmp:000000000000002a .L0 
C:\Users\stapi\AppData\Local\Temp\ccGxkCZa.s:255    .text.lwip_strnicmp:000000000000002a .L0 
C:\Users\stapi\AppData\Local\Temp\ccGxkCZa.s:256    .text.lwip_strnicmp:000000000000002a .L0 
C:\Users\stapi\AppData\Local\Temp\ccGxkCZa.s:264    .text.lwip_strnicmp:0000000000000032 .L0 
C:\Users\stapi\AppData\Local\Temp\ccGxkCZa.s:265    .text.lwip_strnicmp:0000000000000032 .L0 
C:\Users\stapi\AppData\Local\Temp\ccGxkCZa.s:266    .text.lwip_strnicmp:0000000000000032 .L0 
C:\Users\stapi\AppData\Local\Temp\ccGxkCZa.s:268    .text.lwip_strnicmp:0000000000000036 .L0 
C:\Users\stapi\AppData\Local\Temp\ccGxkCZa.s:274    .text.lwip_strnicmp:000000000000003a .L0 
C:\Users\stapi\AppData\Local\Temp\ccGxkCZa.s:276    .text.lwip_strnicmp:000000000000003c .L0 
C:\Users\stapi\AppData\Local\Temp\ccGxkCZa.s:281    .text.lwip_strnicmp:000000000000003e .L0 
C:\Users\stapi\AppData\Local\Temp\ccGxkCZa.s:285    .text.lwip_strnicmp:0000000000000042 .L0 
C:\Users\stapi\AppData\Local\Temp\ccGxkCZa.s:292    .text.lwip_itoa:0000000000000000 lwip_itoa
C:\Users\stapi\AppData\Local\Temp\ccGxkCZa.s:295    .text.lwip_itoa:0000000000000000 .L0 
C:\Users\stapi\AppData\Local\Temp\ccGxkCZa.s:297    .text.lwip_itoa:0000000000000000 .L0 
C:\Users\stapi\AppData\Local\Temp\ccGxkCZa.s:298    .text.lwip_itoa:0000000000000000 .L0 
C:\Users\stapi\AppData\Local\Temp\ccGxkCZa.s:299    .text.lwip_itoa:0000000000000000 .L0 
C:\Users\stapi\AppData\Local\Temp\ccGxkCZa.s:300    .text.lwip_itoa:0000000000000000 .L0 
C:\Users\stapi\AppData\Local\Temp\ccGxkCZa.s:301    .text.lwip_itoa:0000000000000000 .L0 
C:\Users\stapi\AppData\Local\Temp\ccGxkCZa.s:302    .text.lwip_itoa:0000000000000000 .L0 
C:\Users\stapi\AppData\Local\Temp\ccGxkCZa.s:304    .text.lwip_itoa:0000000000000002 .L0 
C:\Users\stapi\AppData\Local\Temp\ccGxkCZa.s:307    .text.lwip_itoa:0000000000000006 .L0 
C:\Users\stapi\AppData\Local\Temp\ccGxkCZa.s:309    .text.lwip_itoa:000000000000000a .L0 
C:\Users\stapi\AppData\Local\Temp\ccGxkCZa.s:310    .text.lwip_itoa:000000000000000a .L0 
C:\Users\stapi\AppData\Local\Temp\ccGxkCZa.s:314    .text.lwip_itoa:000000000000000e .L0 
C:\Users\stapi\AppData\Local\Temp\ccGxkCZa.s:315    .text.lwip_itoa:000000000000000e .L0 
C:\Users\stapi\AppData\Local\Temp\ccGxkCZa.s:320    .text.lwip_itoa:0000000000000014 .L0 
C:\Users\stapi\AppData\Local\Temp\ccGxkCZa.s:321    .text.lwip_itoa:0000000000000014 .L0 
C:\Users\stapi\AppData\Local\Temp\ccGxkCZa.s:323    .text.lwip_itoa:0000000000000018 .L0 
C:\Users\stapi\AppData\Local\Temp\ccGxkCZa.s:324    .text.lwip_itoa:0000000000000018 .L0 
C:\Users\stapi\AppData\Local\Temp\ccGxkCZa.s:326    .text.lwip_itoa:000000000000001c .L0 
C:\Users\stapi\AppData\Local\Temp\ccGxkCZa.s:329    .text.lwip_itoa:000000000000001e .L0 
C:\Users\stapi\AppData\Local\Temp\ccGxkCZa.s:332    .text.lwip_itoa:0000000000000022 .L0 
C:\Users\stapi\AppData\Local\Temp\ccGxkCZa.s:334    .text.lwip_itoa:0000000000000026 .L0 
C:\Users\stapi\AppData\Local\Temp\ccGxkCZa.s:337    .text.lwip_itoa:000000000000002a .L0 
C:\Users\stapi\AppData\Local\Temp\ccGxkCZa.s:339    .text.lwip_itoa:000000000000002e .L0 
C:\Users\stapi\AppData\Local\Temp\ccGxkCZa.s:342    .text.lwip_itoa:0000000000000032 .L0 
C:\Users\stapi\AppData\Local\Temp\ccGxkCZa.s:345    .text.lwip_itoa:0000000000000034 .L0 
C:\Users\stapi\AppData\Local\Temp\ccGxkCZa.s:347    .text.lwip_itoa:0000000000000038 .L0 
C:\Users\stapi\AppData\Local\Temp\ccGxkCZa.s:350    .text.lwip_itoa:0000000000000038 .L0 
C:\Users\stapi\AppData\Local\Temp\ccGxkCZa.s:351    .text.lwip_itoa:0000000000000038 .L0 
C:\Users\stapi\AppData\Local\Temp\ccGxkCZa.s:353    .text.lwip_itoa:000000000000003a .L0 
C:\Users\stapi\AppData\Local\Temp\ccGxkCZa.s:357    .text.lwip_itoa:000000000000003e .L0 
C:\Users\stapi\AppData\Local\Temp\ccGxkCZa.s:358    .text.lwip_itoa:000000000000003e .L0 
C:\Users\stapi\AppData\Local\Temp\ccGxkCZa.s:359    .text.lwip_itoa:000000000000003e .L0 
C:\Users\stapi\AppData\Local\Temp\ccGxkCZa.s:361    .text.lwip_itoa:0000000000000042 .L0 
C:\Users\stapi\AppData\Local\Temp\ccGxkCZa.s:364    .text.lwip_itoa:0000000000000044 .L0 
C:\Users\stapi\AppData\Local\Temp\ccGxkCZa.s:365    .text.lwip_itoa:0000000000000044 .L0 
C:\Users\stapi\AppData\Local\Temp\ccGxkCZa.s:367    .text.lwip_itoa:0000000000000048 .L0 
C:\Users\stapi\AppData\Local\Temp\ccGxkCZa.s:370    .text.lwip_itoa:000000000000004c .L0 
C:\Users\stapi\AppData\Local\Temp\ccGxkCZa.s:373    .text.lwip_itoa:0000000000000050 .L0 
C:\Users\stapi\AppData\Local\Temp\ccGxkCZa.s:378    .text.lwip_itoa:0000000000000052 .L0 
C:\Users\stapi\AppData\Local\Temp\ccGxkCZa.s:379    .text.lwip_itoa:0000000000000052 .L0 
C:\Users\stapi\AppData\Local\Temp\ccGxkCZa.s:383    .text.lwip_itoa:000000000000005a .L0 
C:\Users\stapi\AppData\Local\Temp\ccGxkCZa.s:384    .text.lwip_itoa:000000000000005a .L0 
C:\Users\stapi\AppData\Local\Temp\ccGxkCZa.s:386    .text.lwip_itoa:000000000000005e .L0 
C:\Users\stapi\AppData\Local\Temp\ccGxkCZa.s:390    .text.lwip_itoa:0000000000000060 .L0 
C:\Users\stapi\AppData\Local\Temp\ccGxkCZa.s:391    .text.lwip_itoa:0000000000000060 .L0 
C:\Users\stapi\AppData\Local\Temp\ccGxkCZa.s:392    .text.lwip_itoa:0000000000000060 .L0 
C:\Users\stapi\AppData\Local\Temp\ccGxkCZa.s:396    .text.lwip_itoa:0000000000000066 .L0 
C:\Users\stapi\AppData\Local\Temp\ccGxkCZa.s:397    .text.lwip_itoa:0000000000000066 .L0 
C:\Users\stapi\AppData\Local\Temp\ccGxkCZa.s:399    .text.lwip_itoa:000000000000006a .L0 
C:\Users\stapi\AppData\Local\Temp\ccGxkCZa.s:404    .text.lwip_itoa:0000000000000076 .L0 
C:\Users\stapi\AppData\Local\Temp\ccGxkCZa.s:31     .text.lwip_htons:000000000000000e .L0 
C:\Users\stapi\AppData\Local\Temp\ccGxkCZa.s:48     .text.lwip_htonl:0000000000000006 .L0 
C:\Users\stapi\AppData\Local\Temp\ccGxkCZa.s:131    .text.lwip_strnstr:0000000000000054 .L0 
C:\Users\stapi\AppData\Local\Temp\ccGxkCZa.s:206    .text.lwip_stricmp:0000000000000034 .L0 
C:\Users\stapi\AppData\Local\Temp\ccGxkCZa.s:288    .text.lwip_strnicmp:0000000000000042 .L0 
C:\Users\stapi\AppData\Local\Temp\ccGxkCZa.s:407    .text.lwip_itoa:0000000000000076 .L0 
                     .debug_frame:0000000000000000 .L0 
C:\Users\stapi\AppData\Local\Temp\ccGxkCZa.s:96     .text.lwip_strnstr:000000000000002e .L3
C:\Users\stapi\AppData\Local\Temp\ccGxkCZa.s:92     .text.lwip_strnstr:000000000000002c .L9
C:\Users\stapi\AppData\Local\Temp\ccGxkCZa.s:108    .text.lwip_strnstr:0000000000000038 .L7
C:\Users\stapi\AppData\Local\Temp\ccGxkCZa.s:122    .text.lwip_strnstr:0000000000000050 .L6
C:\Users\stapi\AppData\Local\Temp\ccGxkCZa.s:84     .text.lwip_strnstr:000000000000001e .L5
C:\Users\stapi\AppData\Local\Temp\ccGxkCZa.s:184    .text.lwip_stricmp:000000000000002a .L15
C:\Users\stapi\AppData\Local\Temp\ccGxkCZa.s:195    .text.lwip_stricmp:0000000000000030 .L19
C:\Users\stapi\AppData\Local\Temp\ccGxkCZa.s:143    .text.lwip_stricmp:0000000000000002 .L17
C:\Users\stapi\AppData\Local\Temp\ccGxkCZa.s:260    .text.lwip_strnicmp:0000000000000032 .L22
C:\Users\stapi\AppData\Local\Temp\ccGxkCZa.s:278    .text.lwip_strnicmp:000000000000003e .L26
C:\Users\stapi\AppData\Local\Temp\ccGxkCZa.s:272    .text.lwip_strnicmp:000000000000003a .L27
C:\Users\stapi\AppData\Local\Temp\ccGxkCZa.s:223    .text.lwip_strnicmp:0000000000000006 .L24
C:\Users\stapi\AppData\Local\Temp\ccGxkCZa.s:318    .text.lwip_itoa:0000000000000014 .L30
C:\Users\stapi\AppData\Local\Temp\ccGxkCZa.s:402    .text.lwip_itoa:0000000000000074 .L42
C:\Users\stapi\AppData\Local\Temp\ccGxkCZa.s:330    .text.lwip_itoa:0000000000000022 .L32
C:\Users\stapi\AppData\Local\Temp\ccGxkCZa.s:388    .text.lwip_itoa:0000000000000060 .L34
C:\Users\stapi\AppData\Local\Temp\ccGxkCZa.s:312    .text.lwip_itoa:000000000000000e .L36
C:\Users\stapi\AppData\Local\Temp\ccGxkCZa.s:349    .text.lwip_itoa:0000000000000038 .L33
C:\Users\stapi\AppData\Local\Temp\ccGxkCZa.s:375    .text.lwip_itoa:0000000000000052 .L37
C:\Users\stapi\AppData\Local\Temp\ccGxkCZa.s:864    .debug_abbrev:0000000000000000 .Ldebug_abbrev0
C:\Users\stapi\AppData\Local\Temp\ccGxkCZa.s:1878   .debug_str:00000000000000c5 .LASF36
C:\Users\stapi\AppData\Local\Temp\ccGxkCZa.s:1888   .debug_str:00000000000001ee .LASF37
C:\Users\stapi\AppData\Local\Temp\ccGxkCZa.s:1876   .debug_str:0000000000000047 .LASF38
C:\Users\stapi\AppData\Local\Temp\ccGxkCZa.s:1820   .debug_ranges:0000000000000000 .Ldebug_ranges0
C:\Users\stapi\AppData\Local\Temp\ccGxkCZa.s:1858   .debug_line:0000000000000000 .Ldebug_line0
C:\Users\stapi\AppData\Local\Temp\ccGxkCZa.s:1934   .debug_str:0000000000000348 .LASF0
C:\Users\stapi\AppData\Local\Temp\ccGxkCZa.s:1874   .debug_str:0000000000000039 .LASF1
C:\Users\stapi\AppData\Local\Temp\ccGxkCZa.s:1918   .debug_str:00000000000002ff .LASF2
C:\Users\stapi\AppData\Local\Temp\ccGxkCZa.s:1890   .debug_str:000000000000026c .LASF5
C:\Users\stapi\AppData\Local\Temp\ccGxkCZa.s:1880   .debug_str:00000000000001be .LASF3
C:\Users\stapi\AppData\Local\Temp\ccGxkCZa.s:1932   .debug_str:000000000000033f .LASF4
C:\Users\stapi\AppData\Local\Temp\ccGxkCZa.s:1886   .debug_str:00000000000001e3 .LASF6
C:\Users\stapi\AppData\Local\Temp\ccGxkCZa.s:1892   .debug_str:0000000000000277 .LASF7
C:\Users\stapi\AppData\Local\Temp\ccGxkCZa.s:1910   .debug_str:00000000000002d6 .LASF8
C:\Users\stapi\AppData\Local\Temp\ccGxkCZa.s:1902   .debug_str:00000000000002aa .LASF9
C:\Users\stapi\AppData\Local\Temp\ccGxkCZa.s:1900   .debug_str:000000000000029d .LASF10
C:\Users\stapi\AppData\Local\Temp\ccGxkCZa.s:1924   .debug_str:000000000000031a .LASF11
C:\Users\stapi\AppData\Local\Temp\ccGxkCZa.s:1930   .debug_str:0000000000000336 .LASF12
C:\Users\stapi\AppData\Local\Temp\ccGxkCZa.s:1882   .debug_str:00000000000001d1 .LASF13
C:\Users\stapi\AppData\Local\Temp\ccGxkCZa.s:1898   .debug_str:0000000000000293 .LASF14
C:\Users\stapi\AppData\Local\Temp\ccGxkCZa.s:1912   .debug_str:00000000000002e4 .LASF15
C:\Users\stapi\AppData\Local\Temp\ccGxkCZa.s:1860   .debug_str:0000000000000000 .LASF16
C:\Users\stapi\AppData\Local\Temp\ccGxkCZa.s:1926   .debug_str:0000000000000323 .LASF17
C:\Users\stapi\AppData\Local\Temp\ccGxkCZa.s:1920   .debug_str:0000000000000309 .LASF39
C:\Users\stapi\AppData\Local\Temp\ccGxkCZa.s:293    .text.lwip_itoa:0000000000000000 .LFB9
C:\Users\stapi\AppData\Local\Temp\ccGxkCZa.s:405    .text.lwip_itoa:0000000000000076 .LFE9
C:\Users\stapi\AppData\Local\Temp\ccGxkCZa.s:1864   .debug_str:000000000000000e .LASF18
C:\Users\stapi\AppData\Local\Temp\ccGxkCZa.s:1165   .debug_loc:0000000000000000 .LLST18
C:\Users\stapi\AppData\Local\Temp\ccGxkCZa.s:1904   .debug_str:00000000000002c1 .LASF19
C:\Users\stapi\AppData\Local\Temp\ccGxkCZa.s:1195   .debug_loc:000000000000004d .LLST19
C:\Users\stapi\AppData\Local\Temp\ccGxkCZa.s:1908   .debug_str:00000000000002cf .LASF20
C:\Users\stapi\AppData\Local\Temp\ccGxkCZa.s:1225   .debug_loc:000000000000009a .LLST20
C:\Users\stapi\AppData\Local\Temp\ccGxkCZa.s:1254   .debug_loc:00000000000000df .LLST21
C:\Users\stapi\AppData\Local\Temp\ccGxkCZa.s:1281   .debug_loc:0000000000000122 .LLST22
C:\Users\stapi\AppData\Local\Temp\ccGxkCZa.s:1343   .debug_loc:000000000000018f .LLST23
C:\Users\stapi\AppData\Local\Temp\ccGxkCZa.s:1379   .debug_loc:00000000000001e2 .LLST24
C:\Users\stapi\AppData\Local\Temp\ccGxkCZa.s:401    .text.lwip_itoa:0000000000000074 .LVL51
C:\Users\stapi\AppData\Local\Temp\ccGxkCZa.s:1914   .debug_str:00000000000002e9 .LASF25
C:\Users\stapi\AppData\Local\Temp\ccGxkCZa.s:211    .text.lwip_strnicmp:0000000000000000 .LFB8
C:\Users\stapi\AppData\Local\Temp\ccGxkCZa.s:286    .text.lwip_strnicmp:0000000000000042 .LFE8
C:\Users\stapi\AppData\Local\Temp\ccGxkCZa.s:1894   .debug_str:0000000000000289 .LASF21
C:\Users\stapi\AppData\Local\Temp\ccGxkCZa.s:1396   .debug_loc:00000000000001ff .LLST12
C:\Users\stapi\AppData\Local\Temp\ccGxkCZa.s:1896   .debug_str:000000000000028e .LASF22
C:\Users\stapi\AppData\Local\Temp\ccGxkCZa.s:1446   .debug_loc:0000000000000259 .LLST13
C:\Users\stapi\AppData\Local\Temp\ccGxkCZa.s:1493   .debug_loc:00000000000002b0 .LLST14
C:\Users\stapi\AppData\Local\Temp\ccGxkCZa.s:1548   .debug_loc:0000000000000316 .LLST15
C:\Users\stapi\AppData\Local\Temp\ccGxkCZa.s:1936   .debug_str:0000000000000354 .LASF23
C:\Users\stapi\AppData\Local\Temp\ccGxkCZa.s:1581   .debug_loc:0000000000000358 .LLST16
C:\Users\stapi\AppData\Local\Temp\ccGxkCZa.s:251    .text.lwip_strnicmp:000000000000002a .LBB7
C:\Users\stapi\AppData\Local\Temp\ccGxkCZa.s:261    .text.lwip_strnicmp:0000000000000032 .LBE7
C:\Users\stapi\AppData\Local\Temp\ccGxkCZa.s:1870   .debug_str:000000000000002b .LASF24
C:\Users\stapi\AppData\Local\Temp\ccGxkCZa.s:1592   .debug_loc:0000000000000376 .LLST17
C:\Users\stapi\AppData\Local\Temp\ccGxkCZa.s:1928   .debug_str:0000000000000329 .LASF26
C:\Users\stapi\AppData\Local\Temp\ccGxkCZa.s:136    .text.lwip_stricmp:0000000000000000 .LFB7
C:\Users\stapi\AppData\Local\Temp\ccGxkCZa.s:204    .text.lwip_stricmp:0000000000000034 .LFE7
C:\Users\stapi\AppData\Local\Temp\ccGxkCZa.s:1618   .debug_loc:00000000000003a3 .LLST7
C:\Users\stapi\AppData\Local\Temp\ccGxkCZa.s:1633   .debug_loc:00000000000003cc .LLST8
C:\Users\stapi\AppData\Local\Temp\ccGxkCZa.s:1650   .debug_loc:00000000000003f7 .LLST9
C:\Users\stapi\AppData\Local\Temp\ccGxkCZa.s:1662   .debug_loc:0000000000000416 .LLST10
C:\Users\stapi\AppData\Local\Temp\ccGxkCZa.s:175    .text.lwip_stricmp:0000000000000022 .LBB3
C:\Users\stapi\AppData\Local\Temp\ccGxkCZa.s:185    .text.lwip_stricmp:000000000000002a .LBE3
C:\Users\stapi\AppData\Local\Temp\ccGxkCZa.s:1673   .debug_loc:0000000000000434 .LLST11
C:\Users\stapi\AppData\Local\Temp\ccGxkCZa.s:1866   .debug_str:0000000000000015 .LASF27
C:\Users\stapi\AppData\Local\Temp\ccGxkCZa.s:53     .text.lwip_strnstr:0000000000000000 .LFB6
C:\Users\stapi\AppData\Local\Temp\ccGxkCZa.s:129    .text.lwip_strnstr:0000000000000054 .LFE6
C:\Users\stapi\AppData\Local\Temp\ccGxkCZa.s:1922   .debug_str:0000000000000313 .LASF28
C:\Users\stapi\AppData\Local\Temp\ccGxkCZa.s:1696   .debug_loc:000000000000045e .LLST2
C:\Users\stapi\AppData\Local\Temp\ccGxkCZa.s:1906   .debug_str:00000000000002c9 .LASF29
C:\Users\stapi\AppData\Local\Temp\ccGxkCZa.s:1714   .debug_loc:000000000000048a .LLST3
C:\Users\stapi\AppData\Local\Temp\ccGxkCZa.s:1725   .debug_loc:00000000000004a8 .LLST4
C:\Users\stapi\AppData\Local\Temp\ccGxkCZa.s:1743   .debug_loc:00000000000004d4 .LLST5
C:\Users\stapi\AppData\Local\Temp\ccGxkCZa.s:1868   .debug_str:0000000000000022 .LASF30
C:\Users\stapi\AppData\Local\Temp\ccGxkCZa.s:1754   .debug_loc:00000000000004f2 .LLST6
C:\Users\stapi\AppData\Local\Temp\ccGxkCZa.s:76     .text.lwip_strnstr:0000000000000018 .LVL6
C:\Users\stapi\AppData\Local\Temp\ccGxkCZa.s:119    .text.lwip_strnstr:000000000000004e .LVL10
C:\Users\stapi\AppData\Local\Temp\ccGxkCZa.s:1938   .debug_str:000000000000035b .LASF31
C:\Users\stapi\AppData\Local\Temp\ccGxkCZa.s:36     .text.lwip_htonl:0000000000000000 .LFB5
C:\Users\stapi\AppData\Local\Temp\ccGxkCZa.s:46     .text.lwip_htonl:0000000000000006 .LFE5
C:\Users\stapi\AppData\Local\Temp\ccGxkCZa.s:1769   .debug_loc:000000000000051b .LLST1
C:\Users\stapi\AppData\Local\Temp\ccGxkCZa.s:1884   .debug_str:00000000000001d8 .LASF32
C:\Users\stapi\AppData\Local\Temp\ccGxkCZa.s:14     .text.lwip_htons:0000000000000000 .LFB4
C:\Users\stapi\AppData\Local\Temp\ccGxkCZa.s:29     .text.lwip_htons:000000000000000e .LFE4
C:\Users\stapi\AppData\Local\Temp\ccGxkCZa.s:1783   .debug_loc:000000000000053c .LLST0
C:\Users\stapi\AppData\Local\Temp\ccGxkCZa.s:1862   .debug_str:0000000000000006 .LASF33
C:\Users\stapi\AppData\Local\Temp\ccGxkCZa.s:1872   .debug_str:0000000000000032 .LASF34
C:\Users\stapi\AppData\Local\Temp\ccGxkCZa.s:1916   .debug_str:00000000000002f7 .LASF35
C:\Users\stapi\AppData\Local\Temp\ccGxkCZa.s:296    .text.lwip_itoa:0000000000000000 .LVL37
C:\Users\stapi\AppData\Local\Temp\ccGxkCZa.s:311    .text.lwip_itoa:000000000000000e .LVL38
C:\Users\stapi\AppData\Local\Temp\ccGxkCZa.s:317    .text.lwip_itoa:0000000000000014 .LVL39
C:\Users\stapi\AppData\Local\Temp\ccGxkCZa.s:327    .text.lwip_itoa:000000000000001e .LVL40
C:\Users\stapi\AppData\Local\Temp\ccGxkCZa.s:335    .text.lwip_itoa:000000000000002a .LVL41
C:\Users\stapi\AppData\Local\Temp\ccGxkCZa.s:348    .text.lwip_itoa:0000000000000038 .LVL42
C:\Users\stapi\AppData\Local\Temp\ccGxkCZa.s:374    .text.lwip_itoa:0000000000000052 .LVL47
C:\Users\stapi\AppData\Local\Temp\ccGxkCZa.s:382    .text.lwip_itoa:000000000000005a .LVL48
C:\Users\stapi\AppData\Local\Temp\ccGxkCZa.s:387    .text.lwip_itoa:0000000000000060 .LVL49
C:\Users\stapi\AppData\Local\Temp\ccGxkCZa.s:368    .text.lwip_itoa:000000000000004c .LVL45
C:\Users\stapi\AppData\Local\Temp\ccGxkCZa.s:372    .text.lwip_itoa:0000000000000050 .LVL46
C:\Users\stapi\AppData\Local\Temp\ccGxkCZa.s:393    .text.lwip_itoa:0000000000000064 .LVL50
C:\Users\stapi\AppData\Local\Temp\ccGxkCZa.s:356    .text.lwip_itoa:000000000000003e .LVL43
C:\Users\stapi\AppData\Local\Temp\ccGxkCZa.s:214    .text.lwip_strnicmp:0000000000000000 .LVL24
C:\Users\stapi\AppData\Local\Temp\ccGxkCZa.s:222    .text.lwip_strnicmp:0000000000000006 .LVL26
C:\Users\stapi\AppData\Local\Temp\ccGxkCZa.s:269    .text.lwip_strnicmp:0000000000000038 .LVL33
C:\Users\stapi\AppData\Local\Temp\ccGxkCZa.s:271    .text.lwip_strnicmp:000000000000003a .LVL34
C:\Users\stapi\AppData\Local\Temp\ccGxkCZa.s:277    .text.lwip_strnicmp:000000000000003e .LVL35
C:\Users\stapi\AppData\Local\Temp\ccGxkCZa.s:282    .text.lwip_strnicmp:0000000000000040 .LVL36
C:\Users\stapi\AppData\Local\Temp\ccGxkCZa.s:231    .text.lwip_strnicmp:000000000000000e .LVL27
C:\Users\stapi\AppData\Local\Temp\ccGxkCZa.s:216    .text.lwip_strnicmp:0000000000000002 .LVL25
C:\Users\stapi\AppData\Local\Temp\ccGxkCZa.s:259    .text.lwip_strnicmp:0000000000000032 .LVL32
C:\Users\stapi\AppData\Local\Temp\ccGxkCZa.s:236    .text.lwip_strnicmp:0000000000000016 .LVL28
C:\Users\stapi\AppData\Local\Temp\ccGxkCZa.s:257    .text.lwip_strnicmp:000000000000002e .LVL31
C:\Users\stapi\AppData\Local\Temp\ccGxkCZa.s:244    .text.lwip_strnicmp:000000000000001e .LVL29
C:\Users\stapi\AppData\Local\Temp\ccGxkCZa.s:253    .text.lwip_strnicmp:000000000000002a .LVL30
C:\Users\stapi\AppData\Local\Temp\ccGxkCZa.s:139    .text.lwip_stricmp:0000000000000000 .LVL12
C:\Users\stapi\AppData\Local\Temp\ccGxkCZa.s:150    .text.lwip_stricmp:0000000000000004 .LVL13
C:\Users\stapi\AppData\Local\Temp\ccGxkCZa.s:192    .text.lwip_stricmp:000000000000002e .LVL21
C:\Users\stapi\AppData\Local\Temp\ccGxkCZa.s:194    .text.lwip_stricmp:0000000000000030 .LVL22
C:\Users\stapi\AppData\Local\Temp\ccGxkCZa.s:199    .text.lwip_stricmp:0000000000000032 .LVL23
C:\Users\stapi\AppData\Local\Temp\ccGxkCZa.s:153    .text.lwip_stricmp:0000000000000006 .LVL14
C:\Users\stapi\AppData\Local\Temp\ccGxkCZa.s:156    .text.lwip_stricmp:000000000000000a .LVL15
C:\Users\stapi\AppData\Local\Temp\ccGxkCZa.s:160    .text.lwip_stricmp:000000000000000e .LVL16
C:\Users\stapi\AppData\Local\Temp\ccGxkCZa.s:181    .text.lwip_stricmp:0000000000000026 .LVL19
C:\Users\stapi\AppData\Local\Temp\ccGxkCZa.s:168    .text.lwip_stricmp:0000000000000016 .LVL17
C:\Users\stapi\AppData\Local\Temp\ccGxkCZa.s:183    .text.lwip_stricmp:000000000000002a .LVL20
C:\Users\stapi\AppData\Local\Temp\ccGxkCZa.s:177    .text.lwip_stricmp:0000000000000022 .LVL18
C:\Users\stapi\AppData\Local\Temp\ccGxkCZa.s:56     .text.lwip_strnstr:0000000000000000 .LVL4
C:\Users\stapi\AppData\Local\Temp\ccGxkCZa.s:70     .text.lwip_strnstr:000000000000000c .LVL5
C:\Users\stapi\AppData\Local\Temp\ccGxkCZa.s:83     .text.lwip_strnstr:000000000000001e .LVL7
C:\Users\stapi\AppData\Local\Temp\ccGxkCZa.s:95     .text.lwip_strnstr:000000000000002e .LVL8
C:\Users\stapi\AppData\Local\Temp\ccGxkCZa.s:107    .text.lwip_strnstr:0000000000000038 .LVL9
C:\Users\stapi\AppData\Local\Temp\ccGxkCZa.s:39     .text.lwip_htonl:0000000000000000 .LVL2
C:\Users\stapi\AppData\Local\Temp\ccGxkCZa.s:43     .text.lwip_htonl:0000000000000004 .LVL3
C:\Users\stapi\AppData\Local\Temp\ccGxkCZa.s:18     .text.lwip_htons:0000000000000000 .LVL0
C:\Users\stapi\AppData\Local\Temp\ccGxkCZa.s:23     .text.lwip_htons:0000000000000006 .LVL1
C:\Users\stapi\AppData\Local\Temp\ccGxkCZa.s:415    .debug_info:0000000000000000 .Ldebug_info0
C:\Users\stapi\AppData\Local\Temp\ccGxkCZa.s:140    .text.lwip_stricmp:0000000000000000 .LBB2
C:\Users\stapi\AppData\Local\Temp\ccGxkCZa.s:144    .text.lwip_stricmp:0000000000000002 .LBE2
C:\Users\stapi\AppData\Local\Temp\ccGxkCZa.s:164    .text.lwip_stricmp:0000000000000012 .LBB4
C:\Users\stapi\AppData\Local\Temp\ccGxkCZa.s:186    .text.lwip_stricmp:000000000000002a .LBE4
C:\Users\stapi\AppData\Local\Temp\ccGxkCZa.s:196    .text.lwip_stricmp:0000000000000030 .LBB5
C:\Users\stapi\AppData\Local\Temp\ccGxkCZa.s:200    .text.lwip_stricmp:0000000000000032 .LBE5
C:\Users\stapi\AppData\Local\Temp\ccGxkCZa.s:219    .text.lwip_strnicmp:0000000000000004 .LBB6
C:\Users\stapi\AppData\Local\Temp\ccGxkCZa.s:224    .text.lwip_strnicmp:0000000000000006 .LBE6
C:\Users\stapi\AppData\Local\Temp\ccGxkCZa.s:240    .text.lwip_strnicmp:000000000000001a .LBB8
C:\Users\stapi\AppData\Local\Temp\ccGxkCZa.s:262    .text.lwip_strnicmp:0000000000000032 .LBE8
C:\Users\stapi\AppData\Local\Temp\ccGxkCZa.s:279    .text.lwip_strnicmp:000000000000003e .LBB9
C:\Users\stapi\AppData\Local\Temp\ccGxkCZa.s:284    .text.lwip_strnicmp:0000000000000042 .LBE9
C:\Users\stapi\AppData\Local\Temp\ccGxkCZa.s:340    .text.lwip_itoa:0000000000000032 .LBB10
C:\Users\stapi\AppData\Local\Temp\ccGxkCZa.s:343    .text.lwip_itoa:0000000000000034 .LBE10
C:\Users\stapi\AppData\Local\Temp\ccGxkCZa.s:354    .text.lwip_itoa:000000000000003e .LBB11
C:\Users\stapi\AppData\Local\Temp\ccGxkCZa.s:376    .text.lwip_itoa:0000000000000052 .LBE11

UNDEFINED SYMBOLS
__riscv_save_4
strlen
__riscv_restore_4
strncmp
memmove
