   1              		.file	"dhcpd.c"
   2              		.option nopic
   3              		.attribute arch, "rv32i2p0_m2p0_a2p0_f2p0_c2p0_b_p0p94"
   4              		.attribute unaligned_access, 0
   5              		.attribute stack_align, 16
   6              		.text
   7              	.Ltext0:
   8              		.cfi_sections	.debug_frame
   9              		.section	.text.DHCPD_FindLeaseByChaddr,"ax",@progbits
  10              		.align	1
  12              	DHCPD_FindLeaseByChaddr:
  13              	.LFB8:
  14              		.file 1 "C:/Users/stapi/OneDrive/Desktop/GD32VW553/GD32VW55X_Wifi_BLE_SDK/GD32VW55x_RELEASE_V1.0.2
   1:C:/Users/stapi/OneDrive/Desktop/GD32VW553/GD32VW55X_Wifi_BLE_SDK/GD32VW55x_RELEASE_V1.0.2/MSDK/lwip/lwip-2.1.2/port\dhcpd.c **** /*!
   2:C:/Users/stapi/OneDrive/Desktop/GD32VW553/GD32VW55X_Wifi_BLE_SDK/GD32VW55x_RELEASE_V1.0.2/MSDK/lwip/lwip-2.1.2/port\dhcpd.c ****     \file    dhcpd.c
   3:C:/Users/stapi/OneDrive/Desktop/GD32VW553/GD32VW55X_Wifi_BLE_SDK/GD32VW55x_RELEASE_V1.0.2/MSDK/lwip/lwip-2.1.2/port\dhcpd.c ****     \brief   Definitions related to the dhcpd.
   4:C:/Users/stapi/OneDrive/Desktop/GD32VW553/GD32VW55X_Wifi_BLE_SDK/GD32VW55x_RELEASE_V1.0.2/MSDK/lwip/lwip-2.1.2/port\dhcpd.c **** 
   5:C:/Users/stapi/OneDrive/Desktop/GD32VW553/GD32VW55X_Wifi_BLE_SDK/GD32VW55x_RELEASE_V1.0.2/MSDK/lwip/lwip-2.1.2/port\dhcpd.c ****     \version 2023-07-20, V1.0.0, firmware for GD32VW55x
   6:C:/Users/stapi/OneDrive/Desktop/GD32VW553/GD32VW55X_Wifi_BLE_SDK/GD32VW55x_RELEASE_V1.0.2/MSDK/lwip/lwip-2.1.2/port\dhcpd.c **** */
   7:C:/Users/stapi/OneDrive/Desktop/GD32VW553/GD32VW55X_Wifi_BLE_SDK/GD32VW55x_RELEASE_V1.0.2/MSDK/lwip/lwip-2.1.2/port\dhcpd.c **** 
   8:C:/Users/stapi/OneDrive/Desktop/GD32VW553/GD32VW55X_Wifi_BLE_SDK/GD32VW55x_RELEASE_V1.0.2/MSDK/lwip/lwip-2.1.2/port\dhcpd.c **** /*
   9:C:/Users/stapi/OneDrive/Desktop/GD32VW553/GD32VW55X_Wifi_BLE_SDK/GD32VW55x_RELEASE_V1.0.2/MSDK/lwip/lwip-2.1.2/port\dhcpd.c ****     Copyright (c) 2023, GigaDevice Semiconductor Inc.
  10:C:/Users/stapi/OneDrive/Desktop/GD32VW553/GD32VW55X_Wifi_BLE_SDK/GD32VW55x_RELEASE_V1.0.2/MSDK/lwip/lwip-2.1.2/port\dhcpd.c **** 
  11:C:/Users/stapi/OneDrive/Desktop/GD32VW553/GD32VW55X_Wifi_BLE_SDK/GD32VW55x_RELEASE_V1.0.2/MSDK/lwip/lwip-2.1.2/port\dhcpd.c ****     Redistribution and use in source and binary forms, with or without modification,
  12:C:/Users/stapi/OneDrive/Desktop/GD32VW553/GD32VW55X_Wifi_BLE_SDK/GD32VW55x_RELEASE_V1.0.2/MSDK/lwip/lwip-2.1.2/port\dhcpd.c **** are permitted provided that the following conditions are met:
  13:C:/Users/stapi/OneDrive/Desktop/GD32VW553/GD32VW55X_Wifi_BLE_SDK/GD32VW55x_RELEASE_V1.0.2/MSDK/lwip/lwip-2.1.2/port\dhcpd.c **** 
  14:C:/Users/stapi/OneDrive/Desktop/GD32VW553/GD32VW55X_Wifi_BLE_SDK/GD32VW55x_RELEASE_V1.0.2/MSDK/lwip/lwip-2.1.2/port\dhcpd.c ****     1. Redistributions of source code must retain the above copyright notice, this
  15:C:/Users/stapi/OneDrive/Desktop/GD32VW553/GD32VW55X_Wifi_BLE_SDK/GD32VW55x_RELEASE_V1.0.2/MSDK/lwip/lwip-2.1.2/port\dhcpd.c ****        list of conditions and the following disclaimer.
  16:C:/Users/stapi/OneDrive/Desktop/GD32VW553/GD32VW55X_Wifi_BLE_SDK/GD32VW55x_RELEASE_V1.0.2/MSDK/lwip/lwip-2.1.2/port\dhcpd.c ****     2. Redistributions in binary form must reproduce the above copyright notice,
  17:C:/Users/stapi/OneDrive/Desktop/GD32VW553/GD32VW55X_Wifi_BLE_SDK/GD32VW55x_RELEASE_V1.0.2/MSDK/lwip/lwip-2.1.2/port\dhcpd.c ****        this list of conditions and the following disclaimer in the documentation
  18:C:/Users/stapi/OneDrive/Desktop/GD32VW553/GD32VW55X_Wifi_BLE_SDK/GD32VW55x_RELEASE_V1.0.2/MSDK/lwip/lwip-2.1.2/port\dhcpd.c ****        and/or other materials provided with the distribution.
  19:C:/Users/stapi/OneDrive/Desktop/GD32VW553/GD32VW55X_Wifi_BLE_SDK/GD32VW55x_RELEASE_V1.0.2/MSDK/lwip/lwip-2.1.2/port\dhcpd.c ****     3. Neither the name of the copyright holder nor the names of its contributors
  20:C:/Users/stapi/OneDrive/Desktop/GD32VW553/GD32VW55X_Wifi_BLE_SDK/GD32VW55x_RELEASE_V1.0.2/MSDK/lwip/lwip-2.1.2/port\dhcpd.c ****        may be used to endorse or promote products derived from this software without
  21:C:/Users/stapi/OneDrive/Desktop/GD32VW553/GD32VW55X_Wifi_BLE_SDK/GD32VW55x_RELEASE_V1.0.2/MSDK/lwip/lwip-2.1.2/port\dhcpd.c ****        specific prior written permission.
  22:C:/Users/stapi/OneDrive/Desktop/GD32VW553/GD32VW55X_Wifi_BLE_SDK/GD32VW55x_RELEASE_V1.0.2/MSDK/lwip/lwip-2.1.2/port\dhcpd.c **** 
  23:C:/Users/stapi/OneDrive/Desktop/GD32VW553/GD32VW55X_Wifi_BLE_SDK/GD32VW55x_RELEASE_V1.0.2/MSDK/lwip/lwip-2.1.2/port\dhcpd.c ****     THIS SOFTWARE IS PROVIDED BY THE COPYRIGHT HOLDERS AND CONTRIBUTORS "AS IS"
  24:C:/Users/stapi/OneDrive/Desktop/GD32VW553/GD32VW55X_Wifi_BLE_SDK/GD32VW55x_RELEASE_V1.0.2/MSDK/lwip/lwip-2.1.2/port\dhcpd.c **** AND ANY EXPRESS OR IMPLIED WARRANTIES, INCLUDING, BUT NOT LIMITED TO, THE IMPLIED
  25:C:/Users/stapi/OneDrive/Desktop/GD32VW553/GD32VW55X_Wifi_BLE_SDK/GD32VW55x_RELEASE_V1.0.2/MSDK/lwip/lwip-2.1.2/port\dhcpd.c **** WARRANTIES OF MERCHANTABILITY AND FITNESS FOR A PARTICULAR PURPOSE ARE DISCLAIMED.
  26:C:/Users/stapi/OneDrive/Desktop/GD32VW553/GD32VW55X_Wifi_BLE_SDK/GD32VW55x_RELEASE_V1.0.2/MSDK/lwip/lwip-2.1.2/port\dhcpd.c **** IN NO EVENT SHALL THE COPYRIGHT HOLDER OR CONTRIBUTORS BE LIABLE FOR ANY DIRECT,
  27:C:/Users/stapi/OneDrive/Desktop/GD32VW553/GD32VW55X_Wifi_BLE_SDK/GD32VW55x_RELEASE_V1.0.2/MSDK/lwip/lwip-2.1.2/port\dhcpd.c **** INDIRECT, INCIDENTAL, SPECIAL, EXEMPLARY, OR CONSEQUENTIAL DAMAGES (INCLUDING, BUT
  28:C:/Users/stapi/OneDrive/Desktop/GD32VW553/GD32VW55X_Wifi_BLE_SDK/GD32VW55x_RELEASE_V1.0.2/MSDK/lwip/lwip-2.1.2/port\dhcpd.c **** NOT LIMITED TO, PROCUREMENT OF SUBSTITUTE GOODS OR SERVICES; LOSS OF USE, DATA, OR
  29:C:/Users/stapi/OneDrive/Desktop/GD32VW553/GD32VW55X_Wifi_BLE_SDK/GD32VW55x_RELEASE_V1.0.2/MSDK/lwip/lwip-2.1.2/port\dhcpd.c **** PROFITS; OR BUSINESS INTERRUPTION) HOWEVER CAUSED AND ON ANY THEORY OF LIABILITY,
  30:C:/Users/stapi/OneDrive/Desktop/GD32VW553/GD32VW55X_Wifi_BLE_SDK/GD32VW55x_RELEASE_V1.0.2/MSDK/lwip/lwip-2.1.2/port\dhcpd.c **** WHETHER IN CONTRACT, STRICT LIABILITY, OR TORT (INCLUDING NEGLIGENCE OR OTHERWISE)
  31:C:/Users/stapi/OneDrive/Desktop/GD32VW553/GD32VW55X_Wifi_BLE_SDK/GD32VW55x_RELEASE_V1.0.2/MSDK/lwip/lwip-2.1.2/port\dhcpd.c **** ARISING IN ANY WAY OUT OF THE USE OF THIS SOFTWARE, EVEN IF ADVISED OF THE POSSIBILITY
  32:C:/Users/stapi/OneDrive/Desktop/GD32VW553/GD32VW55X_Wifi_BLE_SDK/GD32VW55x_RELEASE_V1.0.2/MSDK/lwip/lwip-2.1.2/port\dhcpd.c **** OF SUCH DAMAGE.
  33:C:/Users/stapi/OneDrive/Desktop/GD32VW553/GD32VW55X_Wifi_BLE_SDK/GD32VW55x_RELEASE_V1.0.2/MSDK/lwip/lwip-2.1.2/port\dhcpd.c **** */
  34:C:/Users/stapi/OneDrive/Desktop/GD32VW553/GD32VW55X_Wifi_BLE_SDK/GD32VW55x_RELEASE_V1.0.2/MSDK/lwip/lwip-2.1.2/port\dhcpd.c **** 
  35:C:/Users/stapi/OneDrive/Desktop/GD32VW553/GD32VW55X_Wifi_BLE_SDK/GD32VW55x_RELEASE_V1.0.2/MSDK/lwip/lwip-2.1.2/port\dhcpd.c **** #include "arch/sys_arch.h"
  36:C:/Users/stapi/OneDrive/Desktop/GD32VW553/GD32VW55X_Wifi_BLE_SDK/GD32VW55x_RELEASE_V1.0.2/MSDK/lwip/lwip-2.1.2/port\dhcpd.c **** #include "dhcpd.h"
  37:C:/Users/stapi/OneDrive/Desktop/GD32VW553/GD32VW55X_Wifi_BLE_SDK/GD32VW55x_RELEASE_V1.0.2/MSDK/lwip/lwip-2.1.2/port\dhcpd.c **** #include "common_subr.h"
  38:C:/Users/stapi/OneDrive/Desktop/GD32VW553/GD32VW55X_Wifi_BLE_SDK/GD32VW55x_RELEASE_V1.0.2/MSDK/lwip/lwip-2.1.2/port\dhcpd.c **** #include "lwip/api.h"
  39:C:/Users/stapi/OneDrive/Desktop/GD32VW553/GD32VW55X_Wifi_BLE_SDK/GD32VW55x_RELEASE_V1.0.2/MSDK/lwip/lwip-2.1.2/port\dhcpd.c **** #include "dhcpd_conf.h"
  40:C:/Users/stapi/OneDrive/Desktop/GD32VW553/GD32VW55X_Wifi_BLE_SDK/GD32VW55x_RELEASE_V1.0.2/MSDK/lwip/lwip-2.1.2/port\dhcpd.c **** #include "leases.h"
  41:C:/Users/stapi/OneDrive/Desktop/GD32VW553/GD32VW55X_Wifi_BLE_SDK/GD32VW55x_RELEASE_V1.0.2/MSDK/lwip/lwip-2.1.2/port\dhcpd.c **** #include "lwip/dhcp.h"
  42:C:/Users/stapi/OneDrive/Desktop/GD32VW553/GD32VW55X_Wifi_BLE_SDK/GD32VW55x_RELEASE_V1.0.2/MSDK/lwip/lwip-2.1.2/port\dhcpd.c **** #include "lwip/sockets.h"
  43:C:/Users/stapi/OneDrive/Desktop/GD32VW553/GD32VW55X_Wifi_BLE_SDK/GD32VW55x_RELEASE_V1.0.2/MSDK/lwip/lwip-2.1.2/port\dhcpd.c **** #include "dbg_print.h"
  44:C:/Users/stapi/OneDrive/Desktop/GD32VW553/GD32VW55X_Wifi_BLE_SDK/GD32VW55x_RELEASE_V1.0.2/MSDK/lwip/lwip-2.1.2/port\dhcpd.c **** 
  45:C:/Users/stapi/OneDrive/Desktop/GD32VW553/GD32VW55X_Wifi_BLE_SDK/GD32VW55x_RELEASE_V1.0.2/MSDK/lwip/lwip-2.1.2/port\dhcpd.c **** #if LWIP_DHCPD
  46:C:/Users/stapi/OneDrive/Desktop/GD32VW553/GD32VW55X_Wifi_BLE_SDK/GD32VW55x_RELEASE_V1.0.2/MSDK/lwip/lwip-2.1.2/port\dhcpd.c **** 
  47:C:/Users/stapi/OneDrive/Desktop/GD32VW553/GD32VW55X_Wifi_BLE_SDK/GD32VW55x_RELEASE_V1.0.2/MSDK/lwip/lwip-2.1.2/port\dhcpd.c **** ip_addr_t destAddr;
  48:C:/Users/stapi/OneDrive/Desktop/GD32VW553/GD32VW55X_Wifi_BLE_SDK/GD32VW55x_RELEASE_V1.0.2/MSDK/lwip/lwip-2.1.2/port\dhcpd.c **** struct dhcpOfferedAddr leases[DHCPD_MAX_LEASES];
  49:C:/Users/stapi/OneDrive/Desktop/GD32VW553/GD32VW55X_Wifi_BLE_SDK/GD32VW55x_RELEASE_V1.0.2/MSDK/lwip/lwip-2.1.2/port\dhcpd.c **** struct dhcpd payload_out;
  50:C:/Users/stapi/OneDrive/Desktop/GD32VW553/GD32VW55X_Wifi_BLE_SDK/GD32VW55x_RELEASE_V1.0.2/MSDK/lwip/lwip-2.1.2/port\dhcpd.c **** struct server_config_t server_config;
  51:C:/Users/stapi/OneDrive/Desktop/GD32VW553/GD32VW55X_Wifi_BLE_SDK/GD32VW55x_RELEASE_V1.0.2/MSDK/lwip/lwip-2.1.2/port\dhcpd.c **** struct udp_pcb *UdpPcb = NULL;
  52:C:/Users/stapi/OneDrive/Desktop/GD32VW553/GD32VW55X_Wifi_BLE_SDK/GD32VW55x_RELEASE_V1.0.2/MSDK/lwip/lwip-2.1.2/port\dhcpd.c **** int    pass_wan_domain = 0;
  53:C:/Users/stapi/OneDrive/Desktop/GD32VW553/GD32VW55X_Wifi_BLE_SDK/GD32VW55x_RELEASE_V1.0.2/MSDK/lwip/lwip-2.1.2/port\dhcpd.c **** #define DHCP_SERVER_PORT  67
  54:C:/Users/stapi/OneDrive/Desktop/GD32VW553/GD32VW55X_Wifi_BLE_SDK/GD32VW55x_RELEASE_V1.0.2/MSDK/lwip/lwip-2.1.2/port\dhcpd.c **** 
  55:C:/Users/stapi/OneDrive/Desktop/GD32VW553/GD32VW55X_Wifi_BLE_SDK/GD32VW55x_RELEASE_V1.0.2/MSDK/lwip/lwip-2.1.2/port\dhcpd.c **** //pickup what i want according to "code" in the packet, "dest" callback
  56:C:/Users/stapi/OneDrive/Desktop/GD32VW553/GD32VW55X_Wifi_BLE_SDK/GD32VW55x_RELEASE_V1.0.2/MSDK/lwip/lwip-2.1.2/port\dhcpd.c **** static unsigned char *dhcpd_pickup_opt(struct dhcpd *packet, int code, int dest_len, void *dest)
  57:C:/Users/stapi/OneDrive/Desktop/GD32VW553/GD32VW55X_Wifi_BLE_SDK/GD32VW55x_RELEASE_V1.0.2/MSDK/lwip/lwip-2.1.2/port\dhcpd.c **** {
  58:C:/Users/stapi/OneDrive/Desktop/GD32VW553/GD32VW55X_Wifi_BLE_SDK/GD32VW55x_RELEASE_V1.0.2/MSDK/lwip/lwip-2.1.2/port\dhcpd.c ****     int i, length;
  59:C:/Users/stapi/OneDrive/Desktop/GD32VW553/GD32VW55X_Wifi_BLE_SDK/GD32VW55x_RELEASE_V1.0.2/MSDK/lwip/lwip-2.1.2/port\dhcpd.c ****     unsigned char *ptr;
  60:C:/Users/stapi/OneDrive/Desktop/GD32VW553/GD32VW55X_Wifi_BLE_SDK/GD32VW55x_RELEASE_V1.0.2/MSDK/lwip/lwip-2.1.2/port\dhcpd.c ****     int over = 0, done = 0, curr = OPTION_FIELD;
  61:C:/Users/stapi/OneDrive/Desktop/GD32VW553/GD32VW55X_Wifi_BLE_SDK/GD32VW55x_RELEASE_V1.0.2/MSDK/lwip/lwip-2.1.2/port\dhcpd.c ****     unsigned char len;
  62:C:/Users/stapi/OneDrive/Desktop/GD32VW553/GD32VW55X_Wifi_BLE_SDK/GD32VW55x_RELEASE_V1.0.2/MSDK/lwip/lwip-2.1.2/port\dhcpd.c **** 
  63:C:/Users/stapi/OneDrive/Desktop/GD32VW553/GD32VW55X_Wifi_BLE_SDK/GD32VW55x_RELEASE_V1.0.2/MSDK/lwip/lwip-2.1.2/port\dhcpd.c ****     ptr = packet->options;
  64:C:/Users/stapi/OneDrive/Desktop/GD32VW553/GD32VW55X_Wifi_BLE_SDK/GD32VW55x_RELEASE_V1.0.2/MSDK/lwip/lwip-2.1.2/port\dhcpd.c ****     i = 0;
  65:C:/Users/stapi/OneDrive/Desktop/GD32VW553/GD32VW55X_Wifi_BLE_SDK/GD32VW55x_RELEASE_V1.0.2/MSDK/lwip/lwip-2.1.2/port\dhcpd.c ****     length = 308;
  66:C:/Users/stapi/OneDrive/Desktop/GD32VW553/GD32VW55X_Wifi_BLE_SDK/GD32VW55x_RELEASE_V1.0.2/MSDK/lwip/lwip-2.1.2/port\dhcpd.c ****     while (!done) {
  67:C:/Users/stapi/OneDrive/Desktop/GD32VW553/GD32VW55X_Wifi_BLE_SDK/GD32VW55x_RELEASE_V1.0.2/MSDK/lwip/lwip-2.1.2/port\dhcpd.c ****         if (i >= length) {
  68:C:/Users/stapi/OneDrive/Desktop/GD32VW553/GD32VW55X_Wifi_BLE_SDK/GD32VW55x_RELEASE_V1.0.2/MSDK/lwip/lwip-2.1.2/port\dhcpd.c ****             //printf( "Option fields too long.");
  69:C:/Users/stapi/OneDrive/Desktop/GD32VW553/GD32VW55X_Wifi_BLE_SDK/GD32VW55x_RELEASE_V1.0.2/MSDK/lwip/lwip-2.1.2/port\dhcpd.c ****             return 0;
  70:C:/Users/stapi/OneDrive/Desktop/GD32VW553/GD32VW55X_Wifi_BLE_SDK/GD32VW55x_RELEASE_V1.0.2/MSDK/lwip/lwip-2.1.2/port\dhcpd.c ****         }
  71:C:/Users/stapi/OneDrive/Desktop/GD32VW553/GD32VW55X_Wifi_BLE_SDK/GD32VW55x_RELEASE_V1.0.2/MSDK/lwip/lwip-2.1.2/port\dhcpd.c **** 
  72:C:/Users/stapi/OneDrive/Desktop/GD32VW553/GD32VW55X_Wifi_BLE_SDK/GD32VW55x_RELEASE_V1.0.2/MSDK/lwip/lwip-2.1.2/port\dhcpd.c ****         if (ptr[i + OPT_CODE] == code) {
  73:C:/Users/stapi/OneDrive/Desktop/GD32VW553/GD32VW55X_Wifi_BLE_SDK/GD32VW55x_RELEASE_V1.0.2/MSDK/lwip/lwip-2.1.2/port\dhcpd.c ****             if (i + 1 + ptr[i + OPT_LEN] >= length) {
  74:C:/Users/stapi/OneDrive/Desktop/GD32VW553/GD32VW55X_Wifi_BLE_SDK/GD32VW55x_RELEASE_V1.0.2/MSDK/lwip/lwip-2.1.2/port\dhcpd.c ****                 return 0;
  75:C:/Users/stapi/OneDrive/Desktop/GD32VW553/GD32VW55X_Wifi_BLE_SDK/GD32VW55x_RELEASE_V1.0.2/MSDK/lwip/lwip-2.1.2/port\dhcpd.c ****             }
  76:C:/Users/stapi/OneDrive/Desktop/GD32VW553/GD32VW55X_Wifi_BLE_SDK/GD32VW55x_RELEASE_V1.0.2/MSDK/lwip/lwip-2.1.2/port\dhcpd.c **** 
  77:C:/Users/stapi/OneDrive/Desktop/GD32VW553/GD32VW55X_Wifi_BLE_SDK/GD32VW55x_RELEASE_V1.0.2/MSDK/lwip/lwip-2.1.2/port\dhcpd.c ****             if (dest) {
  78:C:/Users/stapi/OneDrive/Desktop/GD32VW553/GD32VW55X_Wifi_BLE_SDK/GD32VW55x_RELEASE_V1.0.2/MSDK/lwip/lwip-2.1.2/port\dhcpd.c ****                 len = ptr[i + OPT_LEN];
  79:C:/Users/stapi/OneDrive/Desktop/GD32VW553/GD32VW55X_Wifi_BLE_SDK/GD32VW55x_RELEASE_V1.0.2/MSDK/lwip/lwip-2.1.2/port\dhcpd.c ****                 if (len > dest_len) {
  80:C:/Users/stapi/OneDrive/Desktop/GD32VW553/GD32VW55X_Wifi_BLE_SDK/GD32VW55x_RELEASE_V1.0.2/MSDK/lwip/lwip-2.1.2/port\dhcpd.c ****                     //printf( "Option fields too long to fit in dest.");
  81:C:/Users/stapi/OneDrive/Desktop/GD32VW553/GD32VW55X_Wifi_BLE_SDK/GD32VW55x_RELEASE_V1.0.2/MSDK/lwip/lwip-2.1.2/port\dhcpd.c ****                     return 0;
  82:C:/Users/stapi/OneDrive/Desktop/GD32VW553/GD32VW55X_Wifi_BLE_SDK/GD32VW55x_RELEASE_V1.0.2/MSDK/lwip/lwip-2.1.2/port\dhcpd.c ****                 }
  83:C:/Users/stapi/OneDrive/Desktop/GD32VW553/GD32VW55X_Wifi_BLE_SDK/GD32VW55x_RELEASE_V1.0.2/MSDK/lwip/lwip-2.1.2/port\dhcpd.c **** 
  84:C:/Users/stapi/OneDrive/Desktop/GD32VW553/GD32VW55X_Wifi_BLE_SDK/GD32VW55x_RELEASE_V1.0.2/MSDK/lwip/lwip-2.1.2/port\dhcpd.c ****                 sys_memcpy(dest, &ptr[i + OPT_DATA], (int)len);
  85:C:/Users/stapi/OneDrive/Desktop/GD32VW553/GD32VW55X_Wifi_BLE_SDK/GD32VW55x_RELEASE_V1.0.2/MSDK/lwip/lwip-2.1.2/port\dhcpd.c ****             }
  86:C:/Users/stapi/OneDrive/Desktop/GD32VW553/GD32VW55X_Wifi_BLE_SDK/GD32VW55x_RELEASE_V1.0.2/MSDK/lwip/lwip-2.1.2/port\dhcpd.c **** 
  87:C:/Users/stapi/OneDrive/Desktop/GD32VW553/GD32VW55X_Wifi_BLE_SDK/GD32VW55x_RELEASE_V1.0.2/MSDK/lwip/lwip-2.1.2/port\dhcpd.c ****             return &ptr[i + OPT_DATA];
  88:C:/Users/stapi/OneDrive/Desktop/GD32VW553/GD32VW55X_Wifi_BLE_SDK/GD32VW55x_RELEASE_V1.0.2/MSDK/lwip/lwip-2.1.2/port\dhcpd.c ****         }
  89:C:/Users/stapi/OneDrive/Desktop/GD32VW553/GD32VW55X_Wifi_BLE_SDK/GD32VW55x_RELEASE_V1.0.2/MSDK/lwip/lwip-2.1.2/port\dhcpd.c **** 
  90:C:/Users/stapi/OneDrive/Desktop/GD32VW553/GD32VW55X_Wifi_BLE_SDK/GD32VW55x_RELEASE_V1.0.2/MSDK/lwip/lwip-2.1.2/port\dhcpd.c ****         switch (ptr[i + OPT_CODE]) {
  91:C:/Users/stapi/OneDrive/Desktop/GD32VW553/GD32VW55X_Wifi_BLE_SDK/GD32VW55x_RELEASE_V1.0.2/MSDK/lwip/lwip-2.1.2/port\dhcpd.c ****         case DHCP_PADDING:
  92:C:/Users/stapi/OneDrive/Desktop/GD32VW553/GD32VW55X_Wifi_BLE_SDK/GD32VW55x_RELEASE_V1.0.2/MSDK/lwip/lwip-2.1.2/port\dhcpd.c ****             i++;
  93:C:/Users/stapi/OneDrive/Desktop/GD32VW553/GD32VW55X_Wifi_BLE_SDK/GD32VW55x_RELEASE_V1.0.2/MSDK/lwip/lwip-2.1.2/port\dhcpd.c ****             break;
  94:C:/Users/stapi/OneDrive/Desktop/GD32VW553/GD32VW55X_Wifi_BLE_SDK/GD32VW55x_RELEASE_V1.0.2/MSDK/lwip/lwip-2.1.2/port\dhcpd.c **** 
  95:C:/Users/stapi/OneDrive/Desktop/GD32VW553/GD32VW55X_Wifi_BLE_SDK/GD32VW55x_RELEASE_V1.0.2/MSDK/lwip/lwip-2.1.2/port\dhcpd.c ****         case DHCP_OPTION_OVER:
  96:C:/Users/stapi/OneDrive/Desktop/GD32VW553/GD32VW55X_Wifi_BLE_SDK/GD32VW55x_RELEASE_V1.0.2/MSDK/lwip/lwip-2.1.2/port\dhcpd.c ****             if (i + 1 + ptr[i + OPT_LEN] >= length) {
  97:C:/Users/stapi/OneDrive/Desktop/GD32VW553/GD32VW55X_Wifi_BLE_SDK/GD32VW55x_RELEASE_V1.0.2/MSDK/lwip/lwip-2.1.2/port\dhcpd.c ****                 return 0;
  98:C:/Users/stapi/OneDrive/Desktop/GD32VW553/GD32VW55X_Wifi_BLE_SDK/GD32VW55x_RELEASE_V1.0.2/MSDK/lwip/lwip-2.1.2/port\dhcpd.c ****             }
  99:C:/Users/stapi/OneDrive/Desktop/GD32VW553/GD32VW55X_Wifi_BLE_SDK/GD32VW55x_RELEASE_V1.0.2/MSDK/lwip/lwip-2.1.2/port\dhcpd.c **** 
 100:C:/Users/stapi/OneDrive/Desktop/GD32VW553/GD32VW55X_Wifi_BLE_SDK/GD32VW55x_RELEASE_V1.0.2/MSDK/lwip/lwip-2.1.2/port\dhcpd.c ****             over = ptr[i + 3];
 101:C:/Users/stapi/OneDrive/Desktop/GD32VW553/GD32VW55X_Wifi_BLE_SDK/GD32VW55x_RELEASE_V1.0.2/MSDK/lwip/lwip-2.1.2/port\dhcpd.c ****             i += ptr[OPT_LEN] + 2;
 102:C:/Users/stapi/OneDrive/Desktop/GD32VW553/GD32VW55X_Wifi_BLE_SDK/GD32VW55x_RELEASE_V1.0.2/MSDK/lwip/lwip-2.1.2/port\dhcpd.c ****             break;
 103:C:/Users/stapi/OneDrive/Desktop/GD32VW553/GD32VW55X_Wifi_BLE_SDK/GD32VW55x_RELEASE_V1.0.2/MSDK/lwip/lwip-2.1.2/port\dhcpd.c **** 
 104:C:/Users/stapi/OneDrive/Desktop/GD32VW553/GD32VW55X_Wifi_BLE_SDK/GD32VW55x_RELEASE_V1.0.2/MSDK/lwip/lwip-2.1.2/port\dhcpd.c ****         case DHCP_END:
 105:C:/Users/stapi/OneDrive/Desktop/GD32VW553/GD32VW55X_Wifi_BLE_SDK/GD32VW55x_RELEASE_V1.0.2/MSDK/lwip/lwip-2.1.2/port\dhcpd.c ****             if (curr == OPTION_FIELD && over & FILE_FIELD) {
 106:C:/Users/stapi/OneDrive/Desktop/GD32VW553/GD32VW55X_Wifi_BLE_SDK/GD32VW55x_RELEASE_V1.0.2/MSDK/lwip/lwip-2.1.2/port\dhcpd.c ****                 ptr = packet->file;
 107:C:/Users/stapi/OneDrive/Desktop/GD32VW553/GD32VW55X_Wifi_BLE_SDK/GD32VW55x_RELEASE_V1.0.2/MSDK/lwip/lwip-2.1.2/port\dhcpd.c ****                 i = 0;
 108:C:/Users/stapi/OneDrive/Desktop/GD32VW553/GD32VW55X_Wifi_BLE_SDK/GD32VW55x_RELEASE_V1.0.2/MSDK/lwip/lwip-2.1.2/port\dhcpd.c ****                 length = 128;
 109:C:/Users/stapi/OneDrive/Desktop/GD32VW553/GD32VW55X_Wifi_BLE_SDK/GD32VW55x_RELEASE_V1.0.2/MSDK/lwip/lwip-2.1.2/port\dhcpd.c ****                 curr = FILE_FIELD;
 110:C:/Users/stapi/OneDrive/Desktop/GD32VW553/GD32VW55X_Wifi_BLE_SDK/GD32VW55x_RELEASE_V1.0.2/MSDK/lwip/lwip-2.1.2/port\dhcpd.c ****             } else if (curr == FILE_FIELD && over & SNAME_FIELD) {
 111:C:/Users/stapi/OneDrive/Desktop/GD32VW553/GD32VW55X_Wifi_BLE_SDK/GD32VW55x_RELEASE_V1.0.2/MSDK/lwip/lwip-2.1.2/port\dhcpd.c ****                 ptr = packet->sname;
 112:C:/Users/stapi/OneDrive/Desktop/GD32VW553/GD32VW55X_Wifi_BLE_SDK/GD32VW55x_RELEASE_V1.0.2/MSDK/lwip/lwip-2.1.2/port\dhcpd.c ****                 i = 0;
 113:C:/Users/stapi/OneDrive/Desktop/GD32VW553/GD32VW55X_Wifi_BLE_SDK/GD32VW55x_RELEASE_V1.0.2/MSDK/lwip/lwip-2.1.2/port\dhcpd.c ****                 length = 64;
 114:C:/Users/stapi/OneDrive/Desktop/GD32VW553/GD32VW55X_Wifi_BLE_SDK/GD32VW55x_RELEASE_V1.0.2/MSDK/lwip/lwip-2.1.2/port\dhcpd.c ****                 curr = SNAME_FIELD;
 115:C:/Users/stapi/OneDrive/Desktop/GD32VW553/GD32VW55X_Wifi_BLE_SDK/GD32VW55x_RELEASE_V1.0.2/MSDK/lwip/lwip-2.1.2/port\dhcpd.c ****             } else {
 116:C:/Users/stapi/OneDrive/Desktop/GD32VW553/GD32VW55X_Wifi_BLE_SDK/GD32VW55x_RELEASE_V1.0.2/MSDK/lwip/lwip-2.1.2/port\dhcpd.c ****                 done = 1;
 117:C:/Users/stapi/OneDrive/Desktop/GD32VW553/GD32VW55X_Wifi_BLE_SDK/GD32VW55x_RELEASE_V1.0.2/MSDK/lwip/lwip-2.1.2/port\dhcpd.c ****             }
 118:C:/Users/stapi/OneDrive/Desktop/GD32VW553/GD32VW55X_Wifi_BLE_SDK/GD32VW55x_RELEASE_V1.0.2/MSDK/lwip/lwip-2.1.2/port\dhcpd.c ****             break;
 119:C:/Users/stapi/OneDrive/Desktop/GD32VW553/GD32VW55X_Wifi_BLE_SDK/GD32VW55x_RELEASE_V1.0.2/MSDK/lwip/lwip-2.1.2/port\dhcpd.c **** 
 120:C:/Users/stapi/OneDrive/Desktop/GD32VW553/GD32VW55X_Wifi_BLE_SDK/GD32VW55x_RELEASE_V1.0.2/MSDK/lwip/lwip-2.1.2/port\dhcpd.c ****         default:
 121:C:/Users/stapi/OneDrive/Desktop/GD32VW553/GD32VW55X_Wifi_BLE_SDK/GD32VW55x_RELEASE_V1.0.2/MSDK/lwip/lwip-2.1.2/port\dhcpd.c ****             i += ptr[OPT_LEN + i] + 2;
 122:C:/Users/stapi/OneDrive/Desktop/GD32VW553/GD32VW55X_Wifi_BLE_SDK/GD32VW55x_RELEASE_V1.0.2/MSDK/lwip/lwip-2.1.2/port\dhcpd.c ****         }
 123:C:/Users/stapi/OneDrive/Desktop/GD32VW553/GD32VW55X_Wifi_BLE_SDK/GD32VW55x_RELEASE_V1.0.2/MSDK/lwip/lwip-2.1.2/port\dhcpd.c ****     }
 124:C:/Users/stapi/OneDrive/Desktop/GD32VW553/GD32VW55X_Wifi_BLE_SDK/GD32VW55x_RELEASE_V1.0.2/MSDK/lwip/lwip-2.1.2/port\dhcpd.c **** 
 125:C:/Users/stapi/OneDrive/Desktop/GD32VW553/GD32VW55X_Wifi_BLE_SDK/GD32VW55x_RELEASE_V1.0.2/MSDK/lwip/lwip-2.1.2/port\dhcpd.c ****     return 0;
 126:C:/Users/stapi/OneDrive/Desktop/GD32VW553/GD32VW55X_Wifi_BLE_SDK/GD32VW55x_RELEASE_V1.0.2/MSDK/lwip/lwip-2.1.2/port\dhcpd.c **** }
 127:C:/Users/stapi/OneDrive/Desktop/GD32VW553/GD32VW55X_Wifi_BLE_SDK/GD32VW55x_RELEASE_V1.0.2/MSDK/lwip/lwip-2.1.2/port\dhcpd.c **** 
 128:C:/Users/stapi/OneDrive/Desktop/GD32VW553/GD32VW55X_Wifi_BLE_SDK/GD32VW55x_RELEASE_V1.0.2/MSDK/lwip/lwip-2.1.2/port\dhcpd.c **** static int dhcpd_add_option(unsigned char *ptr, unsigned char code, unsigned char len, void *data)
 129:C:/Users/stapi/OneDrive/Desktop/GD32VW553/GD32VW55X_Wifi_BLE_SDK/GD32VW55x_RELEASE_V1.0.2/MSDK/lwip/lwip-2.1.2/port\dhcpd.c **** {
 130:C:/Users/stapi/OneDrive/Desktop/GD32VW553/GD32VW55X_Wifi_BLE_SDK/GD32VW55x_RELEASE_V1.0.2/MSDK/lwip/lwip-2.1.2/port\dhcpd.c ****     int end;
 131:C:/Users/stapi/OneDrive/Desktop/GD32VW553/GD32VW55X_Wifi_BLE_SDK/GD32VW55x_RELEASE_V1.0.2/MSDK/lwip/lwip-2.1.2/port\dhcpd.c **** 
 132:C:/Users/stapi/OneDrive/Desktop/GD32VW553/GD32VW55X_Wifi_BLE_SDK/GD32VW55x_RELEASE_V1.0.2/MSDK/lwip/lwip-2.1.2/port\dhcpd.c ****     // Search DHCP_END
 133:C:/Users/stapi/OneDrive/Desktop/GD32VW553/GD32VW55X_Wifi_BLE_SDK/GD32VW55x_RELEASE_V1.0.2/MSDK/lwip/lwip-2.1.2/port\dhcpd.c ****     end = 0;
 134:C:/Users/stapi/OneDrive/Desktop/GD32VW553/GD32VW55X_Wifi_BLE_SDK/GD32VW55x_RELEASE_V1.0.2/MSDK/lwip/lwip-2.1.2/port\dhcpd.c ****     while (ptr[end] != DHCP_END) {
 135:C:/Users/stapi/OneDrive/Desktop/GD32VW553/GD32VW55X_Wifi_BLE_SDK/GD32VW55x_RELEASE_V1.0.2/MSDK/lwip/lwip-2.1.2/port\dhcpd.c ****         if (ptr[end] == DHCP_PADDING) {
 136:C:/Users/stapi/OneDrive/Desktop/GD32VW553/GD32VW55X_Wifi_BLE_SDK/GD32VW55x_RELEASE_V1.0.2/MSDK/lwip/lwip-2.1.2/port\dhcpd.c ****             end++;
 137:C:/Users/stapi/OneDrive/Desktop/GD32VW553/GD32VW55X_Wifi_BLE_SDK/GD32VW55x_RELEASE_V1.0.2/MSDK/lwip/lwip-2.1.2/port\dhcpd.c ****         } else {
 138:C:/Users/stapi/OneDrive/Desktop/GD32VW553/GD32VW55X_Wifi_BLE_SDK/GD32VW55x_RELEASE_V1.0.2/MSDK/lwip/lwip-2.1.2/port\dhcpd.c ****             end += ptr[end + OPT_LEN] + 2; // 2 is opt_code and opt_len cost 2 bytes
 139:C:/Users/stapi/OneDrive/Desktop/GD32VW553/GD32VW55X_Wifi_BLE_SDK/GD32VW55x_RELEASE_V1.0.2/MSDK/lwip/lwip-2.1.2/port\dhcpd.c ****         }
 140:C:/Users/stapi/OneDrive/Desktop/GD32VW553/GD32VW55X_Wifi_BLE_SDK/GD32VW55x_RELEASE_V1.0.2/MSDK/lwip/lwip-2.1.2/port\dhcpd.c ****     }
 141:C:/Users/stapi/OneDrive/Desktop/GD32VW553/GD32VW55X_Wifi_BLE_SDK/GD32VW55x_RELEASE_V1.0.2/MSDK/lwip/lwip-2.1.2/port\dhcpd.c **** 
 142:C:/Users/stapi/OneDrive/Desktop/GD32VW553/GD32VW55X_Wifi_BLE_SDK/GD32VW55x_RELEASE_V1.0.2/MSDK/lwip/lwip-2.1.2/port\dhcpd.c ****     if (end + len + 2 + 1 >= 308) {
 143:C:/Users/stapi/OneDrive/Desktop/GD32VW553/GD32VW55X_Wifi_BLE_SDK/GD32VW55x_RELEASE_V1.0.2/MSDK/lwip/lwip-2.1.2/port\dhcpd.c ****         //printf( "Option 0x%02x cannot not fit into the packet!", code);
 144:C:/Users/stapi/OneDrive/Desktop/GD32VW553/GD32VW55X_Wifi_BLE_SDK/GD32VW55x_RELEASE_V1.0.2/MSDK/lwip/lwip-2.1.2/port\dhcpd.c ****         return 0;
 145:C:/Users/stapi/OneDrive/Desktop/GD32VW553/GD32VW55X_Wifi_BLE_SDK/GD32VW55x_RELEASE_V1.0.2/MSDK/lwip/lwip-2.1.2/port\dhcpd.c ****     }
 146:C:/Users/stapi/OneDrive/Desktop/GD32VW553/GD32VW55X_Wifi_BLE_SDK/GD32VW55x_RELEASE_V1.0.2/MSDK/lwip/lwip-2.1.2/port\dhcpd.c **** 
 147:C:/Users/stapi/OneDrive/Desktop/GD32VW553/GD32VW55X_Wifi_BLE_SDK/GD32VW55x_RELEASE_V1.0.2/MSDK/lwip/lwip-2.1.2/port\dhcpd.c ****     ptr += end; //rebuild pointer
 148:C:/Users/stapi/OneDrive/Desktop/GD32VW553/GD32VW55X_Wifi_BLE_SDK/GD32VW55x_RELEASE_V1.0.2/MSDK/lwip/lwip-2.1.2/port\dhcpd.c **** 
 149:C:/Users/stapi/OneDrive/Desktop/GD32VW553/GD32VW55X_Wifi_BLE_SDK/GD32VW55x_RELEASE_V1.0.2/MSDK/lwip/lwip-2.1.2/port\dhcpd.c ****     ptr[OPT_CODE] = code;
 150:C:/Users/stapi/OneDrive/Desktop/GD32VW553/GD32VW55X_Wifi_BLE_SDK/GD32VW55x_RELEASE_V1.0.2/MSDK/lwip/lwip-2.1.2/port\dhcpd.c ****     ptr[OPT_LEN] = len; // bytes number of data stored in option
 151:C:/Users/stapi/OneDrive/Desktop/GD32VW553/GD32VW55X_Wifi_BLE_SDK/GD32VW55x_RELEASE_V1.0.2/MSDK/lwip/lwip-2.1.2/port\dhcpd.c ****     sys_memcpy(&ptr[OPT_DATA], data, len);
 152:C:/Users/stapi/OneDrive/Desktop/GD32VW553/GD32VW55X_Wifi_BLE_SDK/GD32VW55x_RELEASE_V1.0.2/MSDK/lwip/lwip-2.1.2/port\dhcpd.c **** 
 153:C:/Users/stapi/OneDrive/Desktop/GD32VW553/GD32VW55X_Wifi_BLE_SDK/GD32VW55x_RELEASE_V1.0.2/MSDK/lwip/lwip-2.1.2/port\dhcpd.c ****     // Reassign DHCP_END
 154:C:/Users/stapi/OneDrive/Desktop/GD32VW553/GD32VW55X_Wifi_BLE_SDK/GD32VW55x_RELEASE_V1.0.2/MSDK/lwip/lwip-2.1.2/port\dhcpd.c ****     ptr += (len+2);
 155:C:/Users/stapi/OneDrive/Desktop/GD32VW553/GD32VW55X_Wifi_BLE_SDK/GD32VW55x_RELEASE_V1.0.2/MSDK/lwip/lwip-2.1.2/port\dhcpd.c ****     *ptr = DHCP_END;
 156:C:/Users/stapi/OneDrive/Desktop/GD32VW553/GD32VW55X_Wifi_BLE_SDK/GD32VW55x_RELEASE_V1.0.2/MSDK/lwip/lwip-2.1.2/port\dhcpd.c ****     return (len + 2); // return this operation costs option bytes number
 157:C:/Users/stapi/OneDrive/Desktop/GD32VW553/GD32VW55X_Wifi_BLE_SDK/GD32VW55x_RELEASE_V1.0.2/MSDK/lwip/lwip-2.1.2/port\dhcpd.c **** }
 158:C:/Users/stapi/OneDrive/Desktop/GD32VW553/GD32VW55X_Wifi_BLE_SDK/GD32VW55x_RELEASE_V1.0.2/MSDK/lwip/lwip-2.1.2/port\dhcpd.c **** 
 159:C:/Users/stapi/OneDrive/Desktop/GD32VW553/GD32VW55X_Wifi_BLE_SDK/GD32VW55x_RELEASE_V1.0.2/MSDK/lwip/lwip-2.1.2/port\dhcpd.c **** static struct dhcpOfferedAddr *DHCPD_FindLeaseByYiaddr(struct in_addr yiaddr)
 160:C:/Users/stapi/OneDrive/Desktop/GD32VW553/GD32VW55X_Wifi_BLE_SDK/GD32VW55x_RELEASE_V1.0.2/MSDK/lwip/lwip-2.1.2/port\dhcpd.c **** {
 161:C:/Users/stapi/OneDrive/Desktop/GD32VW553/GD32VW55X_Wifi_BLE_SDK/GD32VW55x_RELEASE_V1.0.2/MSDK/lwip/lwip-2.1.2/port\dhcpd.c ****     unsigned int i;
 162:C:/Users/stapi/OneDrive/Desktop/GD32VW553/GD32VW55X_Wifi_BLE_SDK/GD32VW55x_RELEASE_V1.0.2/MSDK/lwip/lwip-2.1.2/port\dhcpd.c **** 
 163:C:/Users/stapi/OneDrive/Desktop/GD32VW553/GD32VW55X_Wifi_BLE_SDK/GD32VW55x_RELEASE_V1.0.2/MSDK/lwip/lwip-2.1.2/port\dhcpd.c ****     for (i = 0; i < server_config.max_leases; i++) {
 164:C:/Users/stapi/OneDrive/Desktop/GD32VW553/GD32VW55X_Wifi_BLE_SDK/GD32VW55x_RELEASE_V1.0.2/MSDK/lwip/lwip-2.1.2/port\dhcpd.c ****         if (leases[i].yiaddr.s_addr == yiaddr.s_addr) {
 165:C:/Users/stapi/OneDrive/Desktop/GD32VW553/GD32VW55X_Wifi_BLE_SDK/GD32VW55x_RELEASE_V1.0.2/MSDK/lwip/lwip-2.1.2/port\dhcpd.c ****             return &leases[i];
 166:C:/Users/stapi/OneDrive/Desktop/GD32VW553/GD32VW55X_Wifi_BLE_SDK/GD32VW55x_RELEASE_V1.0.2/MSDK/lwip/lwip-2.1.2/port\dhcpd.c ****         }
 167:C:/Users/stapi/OneDrive/Desktop/GD32VW553/GD32VW55X_Wifi_BLE_SDK/GD32VW55x_RELEASE_V1.0.2/MSDK/lwip/lwip-2.1.2/port\dhcpd.c ****     }
 168:C:/Users/stapi/OneDrive/Desktop/GD32VW553/GD32VW55X_Wifi_BLE_SDK/GD32VW55x_RELEASE_V1.0.2/MSDK/lwip/lwip-2.1.2/port\dhcpd.c ****     return 0;
 169:C:/Users/stapi/OneDrive/Desktop/GD32VW553/GD32VW55X_Wifi_BLE_SDK/GD32VW55x_RELEASE_V1.0.2/MSDK/lwip/lwip-2.1.2/port\dhcpd.c **** }
 170:C:/Users/stapi/OneDrive/Desktop/GD32VW553/GD32VW55X_Wifi_BLE_SDK/GD32VW55x_RELEASE_V1.0.2/MSDK/lwip/lwip-2.1.2/port\dhcpd.c **** 
 171:C:/Users/stapi/OneDrive/Desktop/GD32VW553/GD32VW55X_Wifi_BLE_SDK/GD32VW55x_RELEASE_V1.0.2/MSDK/lwip/lwip-2.1.2/port\dhcpd.c **** static struct in_addr DHCPD_FindAddress()
 172:C:/Users/stapi/OneDrive/Desktop/GD32VW553/GD32VW55X_Wifi_BLE_SDK/GD32VW55x_RELEASE_V1.0.2/MSDK/lwip/lwip-2.1.2/port\dhcpd.c **** {
 173:C:/Users/stapi/OneDrive/Desktop/GD32VW553/GD32VW55X_Wifi_BLE_SDK/GD32VW55x_RELEASE_V1.0.2/MSDK/lwip/lwip-2.1.2/port\dhcpd.c ****     uint32_t addr;
 174:C:/Users/stapi/OneDrive/Desktop/GD32VW553/GD32VW55X_Wifi_BLE_SDK/GD32VW55x_RELEASE_V1.0.2/MSDK/lwip/lwip-2.1.2/port\dhcpd.c ****     struct in_addr ret;
 175:C:/Users/stapi/OneDrive/Desktop/GD32VW553/GD32VW55X_Wifi_BLE_SDK/GD32VW55x_RELEASE_V1.0.2/MSDK/lwip/lwip-2.1.2/port\dhcpd.c ****     struct dhcpOfferedAddr *lease = 0;
 176:C:/Users/stapi/OneDrive/Desktop/GD32VW553/GD32VW55X_Wifi_BLE_SDK/GD32VW55x_RELEASE_V1.0.2/MSDK/lwip/lwip-2.1.2/port\dhcpd.c **** 
 177:C:/Users/stapi/OneDrive/Desktop/GD32VW553/GD32VW55X_Wifi_BLE_SDK/GD32VW55x_RELEASE_V1.0.2/MSDK/lwip/lwip-2.1.2/port\dhcpd.c ****     for( addr = ntohl(server_config.start.s_addr);
 178:C:/Users/stapi/OneDrive/Desktop/GD32VW553/GD32VW55X_Wifi_BLE_SDK/GD32VW55x_RELEASE_V1.0.2/MSDK/lwip/lwip-2.1.2/port\dhcpd.c ****         addr <= ntohl(server_config.end.s_addr);
 179:C:/Users/stapi/OneDrive/Desktop/GD32VW553/GD32VW55X_Wifi_BLE_SDK/GD32VW55x_RELEASE_V1.0.2/MSDK/lwip/lwip-2.1.2/port\dhcpd.c ****          addr++ ) {
 180:C:/Users/stapi/OneDrive/Desktop/GD32VW553/GD32VW55X_Wifi_BLE_SDK/GD32VW55x_RELEASE_V1.0.2/MSDK/lwip/lwip-2.1.2/port\dhcpd.c ****         // ie, xx.xx.xx.0 or xx.xx.xx.255 or itself
 181:C:/Users/stapi/OneDrive/Desktop/GD32VW553/GD32VW55X_Wifi_BLE_SDK/GD32VW55x_RELEASE_V1.0.2/MSDK/lwip/lwip-2.1.2/port\dhcpd.c ****         if ((addr & 0xFF) == 0 ||
 182:C:/Users/stapi/OneDrive/Desktop/GD32VW553/GD32VW55X_Wifi_BLE_SDK/GD32VW55x_RELEASE_V1.0.2/MSDK/lwip/lwip-2.1.2/port\dhcpd.c ****         (addr & 0xFF) == 0xFF ||
 183:C:/Users/stapi/OneDrive/Desktop/GD32VW553/GD32VW55X_Wifi_BLE_SDK/GD32VW55x_RELEASE_V1.0.2/MSDK/lwip/lwip-2.1.2/port\dhcpd.c ****         (addr == ntohl(server_config.server.s_addr))) {
 184:C:/Users/stapi/OneDrive/Desktop/GD32VW553/GD32VW55X_Wifi_BLE_SDK/GD32VW55x_RELEASE_V1.0.2/MSDK/lwip/lwip-2.1.2/port\dhcpd.c ****             continue;
 185:C:/Users/stapi/OneDrive/Desktop/GD32VW553/GD32VW55X_Wifi_BLE_SDK/GD32VW55x_RELEASE_V1.0.2/MSDK/lwip/lwip-2.1.2/port\dhcpd.c ****         }
 186:C:/Users/stapi/OneDrive/Desktop/GD32VW553/GD32VW55X_Wifi_BLE_SDK/GD32VW55x_RELEASE_V1.0.2/MSDK/lwip/lwip-2.1.2/port\dhcpd.c **** 
 187:C:/Users/stapi/OneDrive/Desktop/GD32VW553/GD32VW55X_Wifi_BLE_SDK/GD32VW55x_RELEASE_V1.0.2/MSDK/lwip/lwip-2.1.2/port\dhcpd.c ****         ret.s_addr = ntohl(addr);
 188:C:/Users/stapi/OneDrive/Desktop/GD32VW553/GD32VW55X_Wifi_BLE_SDK/GD32VW55x_RELEASE_V1.0.2/MSDK/lwip/lwip-2.1.2/port\dhcpd.c **** 
 189:C:/Users/stapi/OneDrive/Desktop/GD32VW553/GD32VW55X_Wifi_BLE_SDK/GD32VW55x_RELEASE_V1.0.2/MSDK/lwip/lwip-2.1.2/port\dhcpd.c ****         lease = DHCPD_FindLeaseByYiaddr(ret);
 190:C:/Users/stapi/OneDrive/Desktop/GD32VW553/GD32VW55X_Wifi_BLE_SDK/GD32VW55x_RELEASE_V1.0.2/MSDK/lwip/lwip-2.1.2/port\dhcpd.c ****         if (lease  == 0) {
 191:C:/Users/stapi/OneDrive/Desktop/GD32VW553/GD32VW55X_Wifi_BLE_SDK/GD32VW55x_RELEASE_V1.0.2/MSDK/lwip/lwip-2.1.2/port\dhcpd.c ****             return ret;
 192:C:/Users/stapi/OneDrive/Desktop/GD32VW553/GD32VW55X_Wifi_BLE_SDK/GD32VW55x_RELEASE_V1.0.2/MSDK/lwip/lwip-2.1.2/port\dhcpd.c ****         }
 193:C:/Users/stapi/OneDrive/Desktop/GD32VW553/GD32VW55X_Wifi_BLE_SDK/GD32VW55x_RELEASE_V1.0.2/MSDK/lwip/lwip-2.1.2/port\dhcpd.c ****     }
 194:C:/Users/stapi/OneDrive/Desktop/GD32VW553/GD32VW55X_Wifi_BLE_SDK/GD32VW55x_RELEASE_V1.0.2/MSDK/lwip/lwip-2.1.2/port\dhcpd.c ****     ret.s_addr = 0;
 195:C:/Users/stapi/OneDrive/Desktop/GD32VW553/GD32VW55X_Wifi_BLE_SDK/GD32VW55x_RELEASE_V1.0.2/MSDK/lwip/lwip-2.1.2/port\dhcpd.c ****     return ret;
 196:C:/Users/stapi/OneDrive/Desktop/GD32VW553/GD32VW55X_Wifi_BLE_SDK/GD32VW55x_RELEASE_V1.0.2/MSDK/lwip/lwip-2.1.2/port\dhcpd.c **** }
 197:C:/Users/stapi/OneDrive/Desktop/GD32VW553/GD32VW55X_Wifi_BLE_SDK/GD32VW55x_RELEASE_V1.0.2/MSDK/lwip/lwip-2.1.2/port\dhcpd.c **** 
 198:C:/Users/stapi/OneDrive/Desktop/GD32VW553/GD32VW55X_Wifi_BLE_SDK/GD32VW55x_RELEASE_V1.0.2/MSDK/lwip/lwip-2.1.2/port\dhcpd.c **** 
 199:C:/Users/stapi/OneDrive/Desktop/GD32VW553/GD32VW55X_Wifi_BLE_SDK/GD32VW55x_RELEASE_V1.0.2/MSDK/lwip/lwip-2.1.2/port\dhcpd.c **** static struct dhcpOfferedAddr *DHCPD_FindLeaseByChaddr(uint8_t *chaddr)
 200:C:/Users/stapi/OneDrive/Desktop/GD32VW553/GD32VW55X_Wifi_BLE_SDK/GD32VW55x_RELEASE_V1.0.2/MSDK/lwip/lwip-2.1.2/port\dhcpd.c **** {
  15              		.loc 1 200 1
  16              		.cfi_startproc
  17              	.LVL0:
  18 0000 17030000 		call	t0,__riscv_save_5
  18      E7020300 
  19              		.cfi_offset 20, -24
  20              		.cfi_offset 19, -20
  21              		.cfi_offset 18, -16
  22              		.cfi_offset 9, -12
  23              		.cfi_offset 8, -8
  24              		.cfi_offset 1, -4
  25              		.cfi_def_cfa_offset 32
 201:C:/Users/stapi/OneDrive/Desktop/GD32VW553/GD32VW55X_Wifi_BLE_SDK/GD32VW55x_RELEASE_V1.0.2/MSDK/lwip/lwip-2.1.2/port\dhcpd.c ****     unsigned int i;
  26              		.loc 1 201 5
 202:C:/Users/stapi/OneDrive/Desktop/GD32VW553/GD32VW55X_Wifi_BLE_SDK/GD32VW55x_RELEASE_V1.0.2/MSDK/lwip/lwip-2.1.2/port\dhcpd.c **** 
 203:C:/Users/stapi/OneDrive/Desktop/GD32VW553/GD32VW55X_Wifi_BLE_SDK/GD32VW55x_RELEASE_V1.0.2/MSDK/lwip/lwip-2.1.2/port\dhcpd.c ****     for (i = 0; i < server_config.max_leases; i++) {
  27              		.loc 1 203 5
  28              	.LVL1:
  29              		.loc 1 203 34 is_stmt 0
  30 0008 B7070000 		lui	a5,%hi(.LANCHOR0+32)
  31 000c 03AA0702 		lw	s4,%lo(.LANCHOR0+32)(a5)
  32 0010 37040000 		lui	s0,%hi(.LANCHOR1)
 200:C:/Users/stapi/OneDrive/Desktop/GD32VW553/GD32VW55X_Wifi_BLE_SDK/GD32VW55x_RELEASE_V1.0.2/MSDK/lwip/lwip-2.1.2/port\dhcpd.c ****     unsigned int i;
  33              		.loc 1 200 1
  34 0014 2A89     		mv	s2,a0
  35 0016 13040400 		addi	s0,s0,%lo(.LANCHOR1)
  36              		.loc 1 203 12
  37 001a 8144     		li	s1,0
  38              	.LVL2:
  39              	.L2:
  40              		.loc 1 203 17 is_stmt 1 discriminator 1
  41              		.loc 1 203 5 is_stmt 0 discriminator 1
  42 001c 63189A00 		bne	s4,s1,.L4
 204:C:/Users/stapi/OneDrive/Desktop/GD32VW553/GD32VW55X_Wifi_BLE_SDK/GD32VW55x_RELEASE_V1.0.2/MSDK/lwip/lwip-2.1.2/port\dhcpd.c ****         if (memcmp(leases[i].chaddr, chaddr, 6) == 0) {
 205:C:/Users/stapi/OneDrive/Desktop/GD32VW553/GD32VW55X_Wifi_BLE_SDK/GD32VW55x_RELEASE_V1.0.2/MSDK/lwip/lwip-2.1.2/port\dhcpd.c ****         return &(leases[i]);
 206:C:/Users/stapi/OneDrive/Desktop/GD32VW553/GD32VW55X_Wifi_BLE_SDK/GD32VW55x_RELEASE_V1.0.2/MSDK/lwip/lwip-2.1.2/port\dhcpd.c ****     }
 207:C:/Users/stapi/OneDrive/Desktop/GD32VW553/GD32VW55X_Wifi_BLE_SDK/GD32VW55x_RELEASE_V1.0.2/MSDK/lwip/lwip-2.1.2/port\dhcpd.c ****     }
 208:C:/Users/stapi/OneDrive/Desktop/GD32VW553/GD32VW55X_Wifi_BLE_SDK/GD32VW55x_RELEASE_V1.0.2/MSDK/lwip/lwip-2.1.2/port\dhcpd.c **** 
 209:C:/Users/stapi/OneDrive/Desktop/GD32VW553/GD32VW55X_Wifi_BLE_SDK/GD32VW55x_RELEASE_V1.0.2/MSDK/lwip/lwip-2.1.2/port\dhcpd.c ****     return NULL;
  43              		.loc 1 209 12
  44 0020 8149     		li	s3,0
  45              	.L1:
 210:C:/Users/stapi/OneDrive/Desktop/GD32VW553/GD32VW55X_Wifi_BLE_SDK/GD32VW55x_RELEASE_V1.0.2/MSDK/lwip/lwip-2.1.2/port\dhcpd.c **** }
  46              		.loc 1 210 1
  47 0022 4E85     		mv	a0,s3
  48 0024 17030000 		tail	__riscv_restore_5
  48      67000300 
  49              		.cfi_remember_state
  50              		.cfi_restore 20
  51              		.cfi_restore 19
  52              		.cfi_restore 18
  53              		.cfi_restore 9
  54              		.cfi_restore 8
  55              		.cfi_restore 1
  56              		.cfi_def_cfa_offset 0
  57              	.L4:
  58              		.cfi_restore_state
 204:C:/Users/stapi/OneDrive/Desktop/GD32VW553/GD32VW55X_Wifi_BLE_SDK/GD32VW55x_RELEASE_V1.0.2/MSDK/lwip/lwip-2.1.2/port\dhcpd.c ****         if (memcmp(leases[i].chaddr, chaddr, 6) == 0) {
  59              		.loc 1 204 9 is_stmt 1
 204:C:/Users/stapi/OneDrive/Desktop/GD32VW553/GD32VW55X_Wifi_BLE_SDK/GD32VW55x_RELEASE_V1.0.2/MSDK/lwip/lwip-2.1.2/port\dhcpd.c ****         if (memcmp(leases[i].chaddr, chaddr, 6) == 0) {
  60              		.loc 1 204 13 is_stmt 0
  61 002c 2285     		mv	a0,s0
  62 002e 1946     		li	a2,6
  63 0030 CA85     		mv	a1,s2
  64 0032 97000000 		call	memcmp
  64      E7800000 
  65              	.LVL3:
 204:C:/Users/stapi/OneDrive/Desktop/GD32VW553/GD32VW55X_Wifi_BLE_SDK/GD32VW55x_RELEASE_V1.0.2/MSDK/lwip/lwip-2.1.2/port\dhcpd.c ****         if (memcmp(leases[i].chaddr, chaddr, 6) == 0) {
  66              		.loc 1 204 29
  67 003a A289     		mv	s3,s0
 204:C:/Users/stapi/OneDrive/Desktop/GD32VW553/GD32VW55X_Wifi_BLE_SDK/GD32VW55x_RELEASE_V1.0.2/MSDK/lwip/lwip-2.1.2/port\dhcpd.c ****         if (memcmp(leases[i].chaddr, chaddr, 6) == 0) {
  68              		.loc 1 204 12
  69 003c 13040402 		addi	s0,s0,32
  70 0040 6DD1     		beq	a0,zero,.L1
 203:C:/Users/stapi/OneDrive/Desktop/GD32VW553/GD32VW55X_Wifi_BLE_SDK/GD32VW55x_RELEASE_V1.0.2/MSDK/lwip/lwip-2.1.2/port\dhcpd.c ****         if (memcmp(leases[i].chaddr, chaddr, 6) == 0) {
  71              		.loc 1 203 47 is_stmt 1 discriminator 2
 203:C:/Users/stapi/OneDrive/Desktop/GD32VW553/GD32VW55X_Wifi_BLE_SDK/GD32VW55x_RELEASE_V1.0.2/MSDK/lwip/lwip-2.1.2/port\dhcpd.c ****         if (memcmp(leases[i].chaddr, chaddr, 6) == 0) {
  72              		.loc 1 203 48 is_stmt 0 discriminator 2
  73 0042 8504     		addi	s1,s1,1
  74              	.LVL4:
  75 0044 E1BF     		j	.L2
  76              		.cfi_endproc
  77              	.LFE8:
  79              		.section	.text.dhcpd_pickup_opt,"ax",@progbits
  80              		.align	1
  82              	dhcpd_pickup_opt:
  83              	.LFB4:
  57:C:/Users/stapi/OneDrive/Desktop/GD32VW553/GD32VW55X_Wifi_BLE_SDK/GD32VW55x_RELEASE_V1.0.2/MSDK/lwip/lwip-2.1.2/port\dhcpd.c ****     int i, length;
  84              		.loc 1 57 1 is_stmt 1
  85              		.cfi_startproc
  86              	.LVL5:
  87 0000 17030000 		call	t0,__riscv_save_1
  87      E7020300 
  88              		.cfi_offset 8, -8
  89              		.cfi_offset 1, -4
  90              		.cfi_def_cfa_offset 16
  58:C:/Users/stapi/OneDrive/Desktop/GD32VW553/GD32VW55X_Wifi_BLE_SDK/GD32VW55x_RELEASE_V1.0.2/MSDK/lwip/lwip-2.1.2/port\dhcpd.c ****     unsigned char *ptr;
  91              		.loc 1 58 5
  59:C:/Users/stapi/OneDrive/Desktop/GD32VW553/GD32VW55X_Wifi_BLE_SDK/GD32VW55x_RELEASE_V1.0.2/MSDK/lwip/lwip-2.1.2/port\dhcpd.c ****     int over = 0, done = 0, curr = OPTION_FIELD;
  92              		.loc 1 59 5
  60:C:/Users/stapi/OneDrive/Desktop/GD32VW553/GD32VW55X_Wifi_BLE_SDK/GD32VW55x_RELEASE_V1.0.2/MSDK/lwip/lwip-2.1.2/port\dhcpd.c ****     unsigned char len;
  93              		.loc 1 60 5
  94              	.LVL6:
  61:C:/Users/stapi/OneDrive/Desktop/GD32VW553/GD32VW55X_Wifi_BLE_SDK/GD32VW55x_RELEASE_V1.0.2/MSDK/lwip/lwip-2.1.2/port\dhcpd.c **** 
  95              		.loc 1 61 5
  63:C:/Users/stapi/OneDrive/Desktop/GD32VW553/GD32VW55X_Wifi_BLE_SDK/GD32VW55x_RELEASE_V1.0.2/MSDK/lwip/lwip-2.1.2/port\dhcpd.c ****     i = 0;
  96              		.loc 1 63 5
  57:C:/Users/stapi/OneDrive/Desktop/GD32VW553/GD32VW55X_Wifi_BLE_SDK/GD32VW55x_RELEASE_V1.0.2/MSDK/lwip/lwip-2.1.2/port\dhcpd.c ****     int i, length;
  97              		.loc 1 57 1 is_stmt 0
  98 0008 2A87     		mv	a4,a0
  99 000a B28F     		mv	t6,a2
  63:C:/Users/stapi/OneDrive/Desktop/GD32VW553/GD32VW55X_Wifi_BLE_SDK/GD32VW55x_RELEASE_V1.0.2/MSDK/lwip/lwip-2.1.2/port\dhcpd.c ****     i = 0;
 100              		.loc 1 63 9
 101 000c 1303070F 		addi	t1,a4,240
 102              	.LVL7:
  64:C:/Users/stapi/OneDrive/Desktop/GD32VW553/GD32VW55X_Wifi_BLE_SDK/GD32VW55x_RELEASE_V1.0.2/MSDK/lwip/lwip-2.1.2/port\dhcpd.c ****     length = 308;
 103              		.loc 1 64 5 is_stmt 1
  65:C:/Users/stapi/OneDrive/Desktop/GD32VW553/GD32VW55X_Wifi_BLE_SDK/GD32VW55x_RELEASE_V1.0.2/MSDK/lwip/lwip-2.1.2/port\dhcpd.c ****     while (!done) {
 104              		.loc 1 65 5
  66:C:/Users/stapi/OneDrive/Desktop/GD32VW553/GD32VW55X_Wifi_BLE_SDK/GD32VW55x_RELEASE_V1.0.2/MSDK/lwip/lwip-2.1.2/port\dhcpd.c ****         if (i >= length) {
 105              		.loc 1 66 5
  66:C:/Users/stapi/OneDrive/Desktop/GD32VW553/GD32VW55X_Wifi_BLE_SDK/GD32VW55x_RELEASE_V1.0.2/MSDK/lwip/lwip-2.1.2/port\dhcpd.c ****         if (i >= length) {
 106              		.loc 1 66 11
 111:C:/Users/stapi/OneDrive/Desktop/GD32VW553/GD32VW55X_Wifi_BLE_SDK/GD32VW55x_RELEASE_V1.0.2/MSDK/lwip/lwip-2.1.2/port\dhcpd.c ****                 i = 0;
 107              		.loc 1 111 21 is_stmt 0
 108 0010 1304C702 		addi	s0,a4,44
  57:C:/Users/stapi/OneDrive/Desktop/GD32VW553/GD32VW55X_Wifi_BLE_SDK/GD32VW55x_RELEASE_V1.0.2/MSDK/lwip/lwip-2.1.2/port\dhcpd.c ****     int i, length;
 109              		.loc 1 57 1
 110 0014 3685     		mv	a0,a3
 111              	.LVL8:
  60:C:/Users/stapi/OneDrive/Desktop/GD32VW553/GD32VW55X_Wifi_BLE_SDK/GD32VW55x_RELEASE_V1.0.2/MSDK/lwip/lwip-2.1.2/port\dhcpd.c ****     unsigned char len;
 112              		.loc 1 60 29
 113 0016 8148     		li	a7,0
  60:C:/Users/stapi/OneDrive/Desktop/GD32VW553/GD32VW55X_Wifi_BLE_SDK/GD32VW55x_RELEASE_V1.0.2/MSDK/lwip/lwip-2.1.2/port\dhcpd.c ****     unsigned char len;
 114              		.loc 1 60 9
 115 0018 014F     		li	t5,0
  65:C:/Users/stapi/OneDrive/Desktop/GD32VW553/GD32VW55X_Wifi_BLE_SDK/GD32VW55x_RELEASE_V1.0.2/MSDK/lwip/lwip-2.1.2/port\dhcpd.c ****     while (!done) {
 116              		.loc 1 65 12
 117 001a 13084013 		li	a6,308
  64:C:/Users/stapi/OneDrive/Desktop/GD32VW553/GD32VW55X_Wifi_BLE_SDK/GD32VW55x_RELEASE_V1.0.2/MSDK/lwip/lwip-2.1.2/port\dhcpd.c ****     length = 308;
 118              		.loc 1 64 7
 119 001e 8147     		li	a5,0
  90:C:/Users/stapi/OneDrive/Desktop/GD32VW553/GD32VW55X_Wifi_BLE_SDK/GD32VW55x_RELEASE_V1.0.2/MSDK/lwip/lwip-2.1.2/port\dhcpd.c ****         case DHCP_PADDING:
 120              		.loc 1 90 9
 121 0020 13064003 		li	a2,52
 122              	.LVL9:
 123 0024 9302F00F 		li	t0,255
 110:C:/Users/stapi/OneDrive/Desktop/GD32VW553/GD32VW55X_Wifi_BLE_SDK/GD32VW55x_RELEASE_V1.0.2/MSDK/lwip/lwip-2.1.2/port\dhcpd.c ****                 ptr = packet->sname;
 124              		.loc 1 110 23
 125 0028 8543     		li	t2,1
 106:C:/Users/stapi/OneDrive/Desktop/GD32VW553/GD32VW55X_Wifi_BLE_SDK/GD32VW55x_RELEASE_V1.0.2/MSDK/lwip/lwip-2.1.2/port\dhcpd.c ****                 i = 0;
 126              		.loc 1 106 21
 127 002a 1307C706 		addi	a4,a4,108
 128              	.LVL10:
 129              	.L10:
  72:C:/Users/stapi/OneDrive/Desktop/GD32VW553/GD32VW55X_Wifi_BLE_SDK/GD32VW55x_RELEASE_V1.0.2/MSDK/lwip/lwip-2.1.2/port\dhcpd.c ****             if (i + 1 + ptr[i + OPT_LEN] >= length) {
 130              		.loc 1 72 9 is_stmt 1
  72:C:/Users/stapi/OneDrive/Desktop/GD32VW553/GD32VW55X_Wifi_BLE_SDK/GD32VW55x_RELEASE_V1.0.2/MSDK/lwip/lwip-2.1.2/port\dhcpd.c ****             if (i + 1 + ptr[i + OPT_LEN] >= length) {
 131              		.loc 1 72 16 is_stmt 0
 132 002e 330EF300 		add	t3,t1,a5
 133 0032 834E0E00 		lbu	t4,0(t3)
  72:C:/Users/stapi/OneDrive/Desktop/GD32VW553/GD32VW55X_Wifi_BLE_SDK/GD32VW55x_RELEASE_V1.0.2/MSDK/lwip/lwip-2.1.2/port\dhcpd.c ****             if (i + 1 + ptr[i + OPT_LEN] >= length) {
 134              		.loc 1 72 12
 135 0036 6399BE02 		bne	t4,a1,.L11
  73:C:/Users/stapi/OneDrive/Desktop/GD32VW553/GD32VW55X_Wifi_BLE_SDK/GD32VW55x_RELEASE_V1.0.2/MSDK/lwip/lwip-2.1.2/port\dhcpd.c ****                 return 0;
 136              		.loc 1 73 13 is_stmt 1
  73:C:/Users/stapi/OneDrive/Desktop/GD32VW553/GD32VW55X_Wifi_BLE_SDK/GD32VW55x_RELEASE_V1.0.2/MSDK/lwip/lwip-2.1.2/port\dhcpd.c ****                 return 0;
 137              		.loc 1 73 28 is_stmt 0
 138 003a 03461E00 		lbu	a2,1(t3)
  73:C:/Users/stapi/OneDrive/Desktop/GD32VW553/GD32VW55X_Wifi_BLE_SDK/GD32VW55x_RELEASE_V1.0.2/MSDK/lwip/lwip-2.1.2/port\dhcpd.c ****                 return 0;
 139              		.loc 1 73 19
 140 003e 13871700 		addi	a4,a5,1
 141              	.LVL11:
  74:C:/Users/stapi/OneDrive/Desktop/GD32VW553/GD32VW55X_Wifi_BLE_SDK/GD32VW55x_RELEASE_V1.0.2/MSDK/lwip/lwip-2.1.2/port\dhcpd.c ****             }
 142              		.loc 1 74 24
 143 0042 0144     		li	s0,0
 144              	.LVL12:
  73:C:/Users/stapi/OneDrive/Desktop/GD32VW553/GD32VW55X_Wifi_BLE_SDK/GD32VW55x_RELEASE_V1.0.2/MSDK/lwip/lwip-2.1.2/port\dhcpd.c ****                 return 0;
 145              		.loc 1 73 23
 146 0044 3297     		add	a4,a4,a2
  73:C:/Users/stapi/OneDrive/Desktop/GD32VW553/GD32VW55X_Wifi_BLE_SDK/GD32VW55x_RELEASE_V1.0.2/MSDK/lwip/lwip-2.1.2/port\dhcpd.c ****                 return 0;
 147              		.loc 1 73 16
 148 0046 635C0701 		bge	a4,a6,.L9
  77:C:/Users/stapi/OneDrive/Desktop/GD32VW553/GD32VW55X_Wifi_BLE_SDK/GD32VW55x_RELEASE_V1.0.2/MSDK/lwip/lwip-2.1.2/port\dhcpd.c ****                 len = ptr[i + OPT_LEN];
 149              		.loc 1 77 13 is_stmt 1
  78:C:/Users/stapi/OneDrive/Desktop/GD32VW553/GD32VW55X_Wifi_BLE_SDK/GD32VW55x_RELEASE_V1.0.2/MSDK/lwip/lwip-2.1.2/port\dhcpd.c ****                 if (len > dest_len) {
 150              		.loc 1 78 17
 151              	.LVL13:
  79:C:/Users/stapi/OneDrive/Desktop/GD32VW553/GD32VW55X_Wifi_BLE_SDK/GD32VW55x_RELEASE_V1.0.2/MSDK/lwip/lwip-2.1.2/port\dhcpd.c ****                     //printf( "Option fields too long to fit in dest.");
 152              		.loc 1 79 17
  79:C:/Users/stapi/OneDrive/Desktop/GD32VW553/GD32VW55X_Wifi_BLE_SDK/GD32VW55x_RELEASE_V1.0.2/MSDK/lwip/lwip-2.1.2/port\dhcpd.c ****                     //printf( "Option fields too long to fit in dest.");
 153              		.loc 1 79 20 is_stmt 0
 154 004a 63CACF00 		bgt	a2,t6,.L9
  84:C:/Users/stapi/OneDrive/Desktop/GD32VW553/GD32VW55X_Wifi_BLE_SDK/GD32VW55x_RELEASE_V1.0.2/MSDK/lwip/lwip-2.1.2/port\dhcpd.c ****             }
 155              		.loc 1 84 17 is_stmt 1
  84:C:/Users/stapi/OneDrive/Desktop/GD32VW553/GD32VW55X_Wifi_BLE_SDK/GD32VW55x_RELEASE_V1.0.2/MSDK/lwip/lwip-2.1.2/port\dhcpd.c ****             }
 156              		.loc 1 84 38 is_stmt 0
 157 004e 8907     		addi	a5,a5,2
 158              	.LVL14:
  84:C:/Users/stapi/OneDrive/Desktop/GD32VW553/GD32VW55X_Wifi_BLE_SDK/GD32VW55x_RELEASE_V1.0.2/MSDK/lwip/lwip-2.1.2/port\dhcpd.c ****             }
 159              		.loc 1 84 34
 160 0050 3304F300 		add	s0,t1,a5
  84:C:/Users/stapi/OneDrive/Desktop/GD32VW553/GD32VW55X_Wifi_BLE_SDK/GD32VW55x_RELEASE_V1.0.2/MSDK/lwip/lwip-2.1.2/port\dhcpd.c ****             }
 161              		.loc 1 84 17
 162 0054 A285     		mv	a1,s0
 163              	.LVL15:
 164 0056 97000000 		call	sys_memcpy
 164      E7800000 
 165              	.LVL16:
  87:C:/Users/stapi/OneDrive/Desktop/GD32VW553/GD32VW55X_Wifi_BLE_SDK/GD32VW55x_RELEASE_V1.0.2/MSDK/lwip/lwip-2.1.2/port\dhcpd.c ****         }
 166              		.loc 1 87 13 is_stmt 1
 167              	.L9:
 126:C:/Users/stapi/OneDrive/Desktop/GD32VW553/GD32VW55X_Wifi_BLE_SDK/GD32VW55x_RELEASE_V1.0.2/MSDK/lwip/lwip-2.1.2/port\dhcpd.c **** 
 168              		.loc 1 126 1 is_stmt 0
 169 005e 2285     		mv	a0,s0
 170 0060 17030000 		tail	__riscv_restore_1
 170      67000300 
 171              		.cfi_remember_state
 172              		.cfi_restore 8
 173              		.cfi_restore 1
 174              		.cfi_def_cfa_offset 0
 175              	.LVL17:
 176              	.L11:
 177              		.cfi_restore_state
  90:C:/Users/stapi/OneDrive/Desktop/GD32VW553/GD32VW55X_Wifi_BLE_SDK/GD32VW55x_RELEASE_V1.0.2/MSDK/lwip/lwip-2.1.2/port\dhcpd.c ****         case DHCP_PADDING:
 178              		.loc 1 90 9 is_stmt 1
 179 0068 638BCE00 		beq	t4,a2,.L13
 180 006c 63875E02 		beq	t4,t0,.L14
 181 0070 639A0E04 		bne	t4,zero,.L15
  92:C:/Users/stapi/OneDrive/Desktop/GD32VW553/GD32VW55X_Wifi_BLE_SDK/GD32VW55x_RELEASE_V1.0.2/MSDK/lwip/lwip-2.1.2/port\dhcpd.c ****             break;
 182              		.loc 1 92 13
  92:C:/Users/stapi/OneDrive/Desktop/GD32VW553/GD32VW55X_Wifi_BLE_SDK/GD32VW55x_RELEASE_V1.0.2/MSDK/lwip/lwip-2.1.2/port\dhcpd.c ****             break;
 183              		.loc 1 92 14 is_stmt 0
 184 0074 8507     		addi	a5,a5,1
 185              	.LVL18:
  93:C:/Users/stapi/OneDrive/Desktop/GD32VW553/GD32VW55X_Wifi_BLE_SDK/GD32VW55x_RELEASE_V1.0.2/MSDK/lwip/lwip-2.1.2/port\dhcpd.c **** 
 186              		.loc 1 93 13 is_stmt 1
 187              	.L16:
  66:C:/Users/stapi/OneDrive/Desktop/GD32VW553/GD32VW55X_Wifi_BLE_SDK/GD32VW55x_RELEASE_V1.0.2/MSDK/lwip/lwip-2.1.2/port\dhcpd.c ****         if (i >= length) {
 188              		.loc 1 66 11
  67:C:/Users/stapi/OneDrive/Desktop/GD32VW553/GD32VW55X_Wifi_BLE_SDK/GD32VW55x_RELEASE_V1.0.2/MSDK/lwip/lwip-2.1.2/port\dhcpd.c ****             //printf( "Option fields too long.");
 189              		.loc 1 67 9
  67:C:/Users/stapi/OneDrive/Desktop/GD32VW553/GD32VW55X_Wifi_BLE_SDK/GD32VW55x_RELEASE_V1.0.2/MSDK/lwip/lwip-2.1.2/port\dhcpd.c ****             //printf( "Option fields too long.");
 190              		.loc 1 67 12 is_stmt 0
 191 0076 E3CC07FB 		blt	a5,a6,.L10
 192              	.LVL19:
 193              	.L26:
  74:C:/Users/stapi/OneDrive/Desktop/GD32VW553/GD32VW55X_Wifi_BLE_SDK/GD32VW55x_RELEASE_V1.0.2/MSDK/lwip/lwip-2.1.2/port\dhcpd.c ****             }
 194              		.loc 1 74 24
 195 007a 0144     		li	s0,0
 196              	.LVL20:
 197 007c CDB7     		j	.L9
 198              	.LVL21:
 199              	.L13:
  96:C:/Users/stapi/OneDrive/Desktop/GD32VW553/GD32VW55X_Wifi_BLE_SDK/GD32VW55x_RELEASE_V1.0.2/MSDK/lwip/lwip-2.1.2/port\dhcpd.c ****                 return 0;
 200              		.loc 1 96 13 is_stmt 1
  96:C:/Users/stapi/OneDrive/Desktop/GD32VW553/GD32VW55X_Wifi_BLE_SDK/GD32VW55x_RELEASE_V1.0.2/MSDK/lwip/lwip-2.1.2/port\dhcpd.c ****                 return 0;
 201              		.loc 1 96 28 is_stmt 0
 202 007e 83461E00 		lbu	a3,1(t3)
  96:C:/Users/stapi/OneDrive/Desktop/GD32VW553/GD32VW55X_Wifi_BLE_SDK/GD32VW55x_RELEASE_V1.0.2/MSDK/lwip/lwip-2.1.2/port\dhcpd.c ****                 return 0;
 203              		.loc 1 96 19
 204 0082 938E1700 		addi	t4,a5,1
  96:C:/Users/stapi/OneDrive/Desktop/GD32VW553/GD32VW55X_Wifi_BLE_SDK/GD32VW55x_RELEASE_V1.0.2/MSDK/lwip/lwip-2.1.2/port\dhcpd.c ****                 return 0;
 205              		.loc 1 96 23
 206 0086 F696     		add	a3,a3,t4
  96:C:/Users/stapi/OneDrive/Desktop/GD32VW553/GD32VW55X_Wifi_BLE_SDK/GD32VW55x_RELEASE_V1.0.2/MSDK/lwip/lwip-2.1.2/port\dhcpd.c ****                 return 0;
 207              		.loc 1 96 16
 208 0088 E3D906FF 		bge	a3,a6,.L26
 100:C:/Users/stapi/OneDrive/Desktop/GD32VW553/GD32VW55X_Wifi_BLE_SDK/GD32VW55x_RELEASE_V1.0.2/MSDK/lwip/lwip-2.1.2/port\dhcpd.c ****             i += ptr[OPT_LEN] + 2;
 209              		.loc 1 100 13 is_stmt 1
 100:C:/Users/stapi/OneDrive/Desktop/GD32VW553/GD32VW55X_Wifi_BLE_SDK/GD32VW55x_RELEASE_V1.0.2/MSDK/lwip/lwip-2.1.2/port\dhcpd.c ****             i += ptr[OPT_LEN] + 2;
 210              		.loc 1 100 18 is_stmt 0
 211 008c 034F3E00 		lbu	t5,3(t3)
 212              	.LVL22:
 101:C:/Users/stapi/OneDrive/Desktop/GD32VW553/GD32VW55X_Wifi_BLE_SDK/GD32VW55x_RELEASE_V1.0.2/MSDK/lwip/lwip-2.1.2/port\dhcpd.c ****             break;
 213              		.loc 1 101 13 is_stmt 1
 101:C:/Users/stapi/OneDrive/Desktop/GD32VW553/GD32VW55X_Wifi_BLE_SDK/GD32VW55x_RELEASE_V1.0.2/MSDK/lwip/lwip-2.1.2/port\dhcpd.c ****             break;
 214              		.loc 1 101 21 is_stmt 0
 215 0090 83461300 		lbu	a3,1(t1)
 216              	.L28:
 121:C:/Users/stapi/OneDrive/Desktop/GD32VW553/GD32VW55X_Wifi_BLE_SDK/GD32VW55x_RELEASE_V1.0.2/MSDK/lwip/lwip-2.1.2/port\dhcpd.c ****         }
 217              		.loc 1 121 35
 218 0094 8906     		addi	a3,a3,2
 121:C:/Users/stapi/OneDrive/Desktop/GD32VW553/GD32VW55X_Wifi_BLE_SDK/GD32VW55x_RELEASE_V1.0.2/MSDK/lwip/lwip-2.1.2/port\dhcpd.c ****         }
 219              		.loc 1 121 15
 220 0096 B697     		add	a5,a5,a3
 221              	.LVL23:
 222 0098 F9BF     		j	.L16
 223              	.L14:
 105:C:/Users/stapi/OneDrive/Desktop/GD32VW553/GD32VW55X_Wifi_BLE_SDK/GD32VW55x_RELEASE_V1.0.2/MSDK/lwip/lwip-2.1.2/port\dhcpd.c ****                 ptr = packet->file;
 224              		.loc 1 105 13 is_stmt 1
 105:C:/Users/stapi/OneDrive/Desktop/GD32VW553/GD32VW55X_Wifi_BLE_SDK/GD32VW55x_RELEASE_V1.0.2/MSDK/lwip/lwip-2.1.2/port\dhcpd.c ****                 ptr = packet->file;
 225              		.loc 1 105 16 is_stmt 0
 226 009a 639B0800 		bne	a7,zero,.L17
 105:C:/Users/stapi/OneDrive/Desktop/GD32VW553/GD32VW55X_Wifi_BLE_SDK/GD32VW55x_RELEASE_V1.0.2/MSDK/lwip/lwip-2.1.2/port\dhcpd.c ****                 ptr = packet->file;
 227              		.loc 1 105 46 discriminator 1
 228 009e 93781F00 		andi	a7,t5,1
 229              	.LVL24:
 105:C:/Users/stapi/OneDrive/Desktop/GD32VW553/GD32VW55X_Wifi_BLE_SDK/GD32VW55x_RELEASE_V1.0.2/MSDK/lwip/lwip-2.1.2/port\dhcpd.c ****                 ptr = packet->file;
 230              		.loc 1 105 38 discriminator 1
 231 00a2 E38C08FC 		beq	a7,zero,.L26
 106:C:/Users/stapi/OneDrive/Desktop/GD32VW553/GD32VW55X_Wifi_BLE_SDK/GD32VW55x_RELEASE_V1.0.2/MSDK/lwip/lwip-2.1.2/port\dhcpd.c ****                 i = 0;
 232              		.loc 1 106 17 is_stmt 1
 106:C:/Users/stapi/OneDrive/Desktop/GD32VW553/GD32VW55X_Wifi_BLE_SDK/GD32VW55x_RELEASE_V1.0.2/MSDK/lwip/lwip-2.1.2/port\dhcpd.c ****                 i = 0;
 233              		.loc 1 106 21 is_stmt 0
 234 00a6 3A83     		mv	t1,a4
 235              	.LVL25:
 107:C:/Users/stapi/OneDrive/Desktop/GD32VW553/GD32VW55X_Wifi_BLE_SDK/GD32VW55x_RELEASE_V1.0.2/MSDK/lwip/lwip-2.1.2/port\dhcpd.c ****                 length = 128;
 236              		.loc 1 107 17 is_stmt 1
 108:C:/Users/stapi/OneDrive/Desktop/GD32VW553/GD32VW55X_Wifi_BLE_SDK/GD32VW55x_RELEASE_V1.0.2/MSDK/lwip/lwip-2.1.2/port\dhcpd.c ****                 curr = FILE_FIELD;
 237              		.loc 1 108 17
 109:C:/Users/stapi/OneDrive/Desktop/GD32VW553/GD32VW55X_Wifi_BLE_SDK/GD32VW55x_RELEASE_V1.0.2/MSDK/lwip/lwip-2.1.2/port\dhcpd.c ****             } else if (curr == FILE_FIELD && over & SNAME_FIELD) {
 238              		.loc 1 109 17
 108:C:/Users/stapi/OneDrive/Desktop/GD32VW553/GD32VW55X_Wifi_BLE_SDK/GD32VW55x_RELEASE_V1.0.2/MSDK/lwip/lwip-2.1.2/port\dhcpd.c ****                 curr = FILE_FIELD;
 239              		.loc 1 108 24 is_stmt 0
 240 00a8 13080008 		li	a6,128
 241              	.LVL26:
 242              	.L18:
  66:C:/Users/stapi/OneDrive/Desktop/GD32VW553/GD32VW55X_Wifi_BLE_SDK/GD32VW55x_RELEASE_V1.0.2/MSDK/lwip/lwip-2.1.2/port\dhcpd.c ****         if (i >= length) {
 243              		.loc 1 66 11 is_stmt 1
  57:C:/Users/stapi/OneDrive/Desktop/GD32VW553/GD32VW55X_Wifi_BLE_SDK/GD32VW55x_RELEASE_V1.0.2/MSDK/lwip/lwip-2.1.2/port\dhcpd.c ****     int i, length;
 244              		.loc 1 57 1 is_stmt 0
 245 00ac 8147     		li	a5,0
 246 00ae 41B7     		j	.L10
 247              	.LVL27:
 248              	.L17:
 110:C:/Users/stapi/OneDrive/Desktop/GD32VW553/GD32VW55X_Wifi_BLE_SDK/GD32VW55x_RELEASE_V1.0.2/MSDK/lwip/lwip-2.1.2/port\dhcpd.c ****                 ptr = packet->sname;
 249              		.loc 1 110 20 is_stmt 1
 110:C:/Users/stapi/OneDrive/Desktop/GD32VW553/GD32VW55X_Wifi_BLE_SDK/GD32VW55x_RELEASE_V1.0.2/MSDK/lwip/lwip-2.1.2/port\dhcpd.c ****                 ptr = packet->sname;
 250              		.loc 1 110 23 is_stmt 0
 251 00b0 E39578FC 		bne	a7,t2,.L26
 110:C:/Users/stapi/OneDrive/Desktop/GD32VW553/GD32VW55X_Wifi_BLE_SDK/GD32VW55x_RELEASE_V1.0.2/MSDK/lwip/lwip-2.1.2/port\dhcpd.c ****                 ptr = packet->sname;
 252              		.loc 1 110 51 discriminator 1
 253 00b4 93772F00 		andi	a5,t5,2
 254              	.LVL28:
 110:C:/Users/stapi/OneDrive/Desktop/GD32VW553/GD32VW55X_Wifi_BLE_SDK/GD32VW55x_RELEASE_V1.0.2/MSDK/lwip/lwip-2.1.2/port\dhcpd.c ****                 ptr = packet->sname;
 255              		.loc 1 110 43 discriminator 1
 256 00b8 E9D3     		beq	a5,zero,.L26
 111:C:/Users/stapi/OneDrive/Desktop/GD32VW553/GD32VW55X_Wifi_BLE_SDK/GD32VW55x_RELEASE_V1.0.2/MSDK/lwip/lwip-2.1.2/port\dhcpd.c ****                 i = 0;
 257              		.loc 1 111 17 is_stmt 1
 111:C:/Users/stapi/OneDrive/Desktop/GD32VW553/GD32VW55X_Wifi_BLE_SDK/GD32VW55x_RELEASE_V1.0.2/MSDK/lwip/lwip-2.1.2/port\dhcpd.c ****                 i = 0;
 258              		.loc 1 111 21 is_stmt 0
 259 00ba 2283     		mv	t1,s0
 260              	.LVL29:
 112:C:/Users/stapi/OneDrive/Desktop/GD32VW553/GD32VW55X_Wifi_BLE_SDK/GD32VW55x_RELEASE_V1.0.2/MSDK/lwip/lwip-2.1.2/port\dhcpd.c ****                 length = 64;
 261              		.loc 1 112 17 is_stmt 1
 113:C:/Users/stapi/OneDrive/Desktop/GD32VW553/GD32VW55X_Wifi_BLE_SDK/GD32VW55x_RELEASE_V1.0.2/MSDK/lwip/lwip-2.1.2/port\dhcpd.c ****                 curr = SNAME_FIELD;
 262              		.loc 1 113 17
 114:C:/Users/stapi/OneDrive/Desktop/GD32VW553/GD32VW55X_Wifi_BLE_SDK/GD32VW55x_RELEASE_V1.0.2/MSDK/lwip/lwip-2.1.2/port\dhcpd.c ****             } else {
 263              		.loc 1 114 17
 114:C:/Users/stapi/OneDrive/Desktop/GD32VW553/GD32VW55X_Wifi_BLE_SDK/GD32VW55x_RELEASE_V1.0.2/MSDK/lwip/lwip-2.1.2/port\dhcpd.c ****             } else {
 264              		.loc 1 114 22 is_stmt 0
 265 00bc 8948     		li	a7,2
 113:C:/Users/stapi/OneDrive/Desktop/GD32VW553/GD32VW55X_Wifi_BLE_SDK/GD32VW55x_RELEASE_V1.0.2/MSDK/lwip/lwip-2.1.2/port\dhcpd.c ****                 curr = SNAME_FIELD;
 266              		.loc 1 113 24
 267 00be 13080004 		li	a6,64
 114:C:/Users/stapi/OneDrive/Desktop/GD32VW553/GD32VW55X_Wifi_BLE_SDK/GD32VW55x_RELEASE_V1.0.2/MSDK/lwip/lwip-2.1.2/port\dhcpd.c ****             } else {
 268              		.loc 1 114 22
 269 00c2 EDB7     		j	.L18
 270              	.LVL30:
 271              	.L15:
 121:C:/Users/stapi/OneDrive/Desktop/GD32VW553/GD32VW55X_Wifi_BLE_SDK/GD32VW55x_RELEASE_V1.0.2/MSDK/lwip/lwip-2.1.2/port\dhcpd.c ****         }
 272              		.loc 1 121 13 is_stmt 1
 121:C:/Users/stapi/OneDrive/Desktop/GD32VW553/GD32VW55X_Wifi_BLE_SDK/GD32VW55x_RELEASE_V1.0.2/MSDK/lwip/lwip-2.1.2/port\dhcpd.c ****         }
 273              		.loc 1 121 21 is_stmt 0
 274 00c4 83461E00 		lbu	a3,1(t3)
 275 00c8 F1B7     		j	.L28
 276              		.cfi_endproc
 277              	.LFE4:
 279              		.section	.text.dhcpd_add_option.isra.0,"ax",@progbits
 280              		.align	1
 282              	dhcpd_add_option.isra.0:
 283              	.LFB22:
 128:C:/Users/stapi/OneDrive/Desktop/GD32VW553/GD32VW55X_Wifi_BLE_SDK/GD32VW55x_RELEASE_V1.0.2/MSDK/lwip/lwip-2.1.2/port\dhcpd.c **** {
 284              		.loc 1 128 12 is_stmt 1
 285              		.cfi_startproc
 286              	.LVL31:
 287 0000 17030000 		call	t0,__riscv_save_2
 287      E7020300 
 288              		.cfi_offset 9, -12
 289              		.cfi_offset 8, -8
 290              		.cfi_offset 1, -4
 291              		.cfi_def_cfa_offset 16
 128:C:/Users/stapi/OneDrive/Desktop/GD32VW553/GD32VW55X_Wifi_BLE_SDK/GD32VW55x_RELEASE_V1.0.2/MSDK/lwip/lwip-2.1.2/port\dhcpd.c **** {
 292              		.loc 1 128 12 is_stmt 0
 293 0008 2E87     		mv	a4,a1
 294 000a B284     		mv	s1,a2
 295 000c B685     		mv	a1,a3
 296              	.LVL32:
 133:C:/Users/stapi/OneDrive/Desktop/GD32VW553/GD32VW55X_Wifi_BLE_SDK/GD32VW55x_RELEASE_V1.0.2/MSDK/lwip/lwip-2.1.2/port\dhcpd.c ****     while (ptr[end] != DHCP_END) {
 297              		.loc 1 133 9
 298 000e 8147     		li	a5,0
 134:C:/Users/stapi/OneDrive/Desktop/GD32VW553/GD32VW55X_Wifi_BLE_SDK/GD32VW55x_RELEASE_V1.0.2/MSDK/lwip/lwip-2.1.2/port\dhcpd.c ****         if (ptr[end] == DHCP_PADDING) {
 299              		.loc 1 134 11
 300 0010 1306F00F 		li	a2,255
 301              	.LVL33:
 302              	.L30:
 134:C:/Users/stapi/OneDrive/Desktop/GD32VW553/GD32VW55X_Wifi_BLE_SDK/GD32VW55x_RELEASE_V1.0.2/MSDK/lwip/lwip-2.1.2/port\dhcpd.c ****         if (ptr[end] == DHCP_PADDING) {
 303              		.loc 1 134 11 is_stmt 1
 134:C:/Users/stapi/OneDrive/Desktop/GD32VW553/GD32VW55X_Wifi_BLE_SDK/GD32VW55x_RELEASE_V1.0.2/MSDK/lwip/lwip-2.1.2/port\dhcpd.c ****         if (ptr[end] == DHCP_PADDING) {
 304              		.loc 1 134 15 is_stmt 0
 305 0014 3304F500 		add	s0,a0,a5
 306 0018 83460400 		lbu	a3,0(s0)
 134:C:/Users/stapi/OneDrive/Desktop/GD32VW553/GD32VW55X_Wifi_BLE_SDK/GD32VW55x_RELEASE_V1.0.2/MSDK/lwip/lwip-2.1.2/port\dhcpd.c ****         if (ptr[end] == DHCP_PADDING) {
 307              		.loc 1 134 11
 308 001c 639AC602 		bne	a3,a2,.L33
 142:C:/Users/stapi/OneDrive/Desktop/GD32VW553/GD32VW55X_Wifi_BLE_SDK/GD32VW55x_RELEASE_V1.0.2/MSDK/lwip/lwip-2.1.2/port\dhcpd.c ****         //printf( "Option 0x%02x cannot not fit into the packet!", code);
 309              		.loc 1 142 5 is_stmt 1
 142:C:/Users/stapi/OneDrive/Desktop/GD32VW553/GD32VW55X_Wifi_BLE_SDK/GD32VW55x_RELEASE_V1.0.2/MSDK/lwip/lwip-2.1.2/port\dhcpd.c ****         //printf( "Option 0x%02x cannot not fit into the packet!", code);
 310              		.loc 1 142 13 is_stmt 0
 311 0020 A697     		add	a5,s1,a5
 312              	.LVL34:
 142:C:/Users/stapi/OneDrive/Desktop/GD32VW553/GD32VW55X_Wifi_BLE_SDK/GD32VW55x_RELEASE_V1.0.2/MSDK/lwip/lwip-2.1.2/port\dhcpd.c ****         //printf( "Option 0x%02x cannot not fit into the packet!", code);
 313              		.loc 1 142 8
 314 0022 93060013 		li	a3,304
 315 0026 63C1F602 		bgt	a5,a3,.L29
 147:C:/Users/stapi/OneDrive/Desktop/GD32VW553/GD32VW55X_Wifi_BLE_SDK/GD32VW55x_RELEASE_V1.0.2/MSDK/lwip/lwip-2.1.2/port\dhcpd.c **** 
 316              		.loc 1 147 5 is_stmt 1
 317              	.LVL35:
 149:C:/Users/stapi/OneDrive/Desktop/GD32VW553/GD32VW55X_Wifi_BLE_SDK/GD32VW55x_RELEASE_V1.0.2/MSDK/lwip/lwip-2.1.2/port\dhcpd.c ****     ptr[OPT_LEN] = len; // bytes number of data stored in option
 318              		.loc 1 149 5
 149:C:/Users/stapi/OneDrive/Desktop/GD32VW553/GD32VW55X_Wifi_BLE_SDK/GD32VW55x_RELEASE_V1.0.2/MSDK/lwip/lwip-2.1.2/port\dhcpd.c ****     ptr[OPT_LEN] = len; // bytes number of data stored in option
 319              		.loc 1 149 19 is_stmt 0
 320 002a 2300E400 		sb	a4,0(s0)
 150:C:/Users/stapi/OneDrive/Desktop/GD32VW553/GD32VW55X_Wifi_BLE_SDK/GD32VW55x_RELEASE_V1.0.2/MSDK/lwip/lwip-2.1.2/port\dhcpd.c ****     sys_memcpy(&ptr[OPT_DATA], data, len);
 321              		.loc 1 150 5 is_stmt 1
 150:C:/Users/stapi/OneDrive/Desktop/GD32VW553/GD32VW55X_Wifi_BLE_SDK/GD32VW55x_RELEASE_V1.0.2/MSDK/lwip/lwip-2.1.2/port\dhcpd.c ****     sys_memcpy(&ptr[OPT_DATA], data, len);
 322              		.loc 1 150 18 is_stmt 0
 323 002e A3009400 		sb	s1,1(s0)
 151:C:/Users/stapi/OneDrive/Desktop/GD32VW553/GD32VW55X_Wifi_BLE_SDK/GD32VW55x_RELEASE_V1.0.2/MSDK/lwip/lwip-2.1.2/port\dhcpd.c **** 
 324              		.loc 1 151 5 is_stmt 1
 325 0032 13052400 		addi	a0,s0,2
 326 0036 2686     		mv	a2,s1
 327 0038 97000000 		call	sys_memcpy
 327      E7800000 
 328              	.LVL36:
 154:C:/Users/stapi/OneDrive/Desktop/GD32VW553/GD32VW55X_Wifi_BLE_SDK/GD32VW55x_RELEASE_V1.0.2/MSDK/lwip/lwip-2.1.2/port\dhcpd.c ****     *ptr = DHCP_END;
 329              		.loc 1 154 5
 155:C:/Users/stapi/OneDrive/Desktop/GD32VW553/GD32VW55X_Wifi_BLE_SDK/GD32VW55x_RELEASE_V1.0.2/MSDK/lwip/lwip-2.1.2/port\dhcpd.c ****     return (len + 2); // return this operation costs option bytes number
 330              		.loc 1 155 5
 155:C:/Users/stapi/OneDrive/Desktop/GD32VW553/GD32VW55X_Wifi_BLE_SDK/GD32VW55x_RELEASE_V1.0.2/MSDK/lwip/lwip-2.1.2/port\dhcpd.c ****     return (len + 2); // return this operation costs option bytes number
 331              		.loc 1 155 10 is_stmt 0
 332 0040 2694     		add	s0,s0,s1
 333              	.LVL37:
 334 0042 FD57     		li	a5,-1
 335 0044 2301F400 		sb	a5,2(s0)
 156:C:/Users/stapi/OneDrive/Desktop/GD32VW553/GD32VW55X_Wifi_BLE_SDK/GD32VW55x_RELEASE_V1.0.2/MSDK/lwip/lwip-2.1.2/port\dhcpd.c **** }
 336              		.loc 1 156 5 is_stmt 1
 337              	.L29:
 157:C:/Users/stapi/OneDrive/Desktop/GD32VW553/GD32VW55X_Wifi_BLE_SDK/GD32VW55x_RELEASE_V1.0.2/MSDK/lwip/lwip-2.1.2/port\dhcpd.c **** 
 338              		.loc 1 157 1 is_stmt 0
 339 0048 17030000 		tail	__riscv_restore_2
 339      67000300 
 340              		.cfi_remember_state
 341              		.cfi_restore 9
 342              		.cfi_restore 8
 343              		.cfi_restore 1
 344              		.cfi_def_cfa_offset 0
 345              	.LVL38:
 346              	.L33:
 347              		.cfi_restore_state
 135:C:/Users/stapi/OneDrive/Desktop/GD32VW553/GD32VW55X_Wifi_BLE_SDK/GD32VW55x_RELEASE_V1.0.2/MSDK/lwip/lwip-2.1.2/port\dhcpd.c ****             end++;
 348              		.loc 1 135 9 is_stmt 1
 135:C:/Users/stapi/OneDrive/Desktop/GD32VW553/GD32VW55X_Wifi_BLE_SDK/GD32VW55x_RELEASE_V1.0.2/MSDK/lwip/lwip-2.1.2/port\dhcpd.c ****             end++;
 349              		.loc 1 135 12 is_stmt 0
 350 0050 99E2     		bne	a3,zero,.L31
 136:C:/Users/stapi/OneDrive/Desktop/GD32VW553/GD32VW55X_Wifi_BLE_SDK/GD32VW55x_RELEASE_V1.0.2/MSDK/lwip/lwip-2.1.2/port\dhcpd.c ****         } else {
 351              		.loc 1 136 13 is_stmt 1
 136:C:/Users/stapi/OneDrive/Desktop/GD32VW553/GD32VW55X_Wifi_BLE_SDK/GD32VW55x_RELEASE_V1.0.2/MSDK/lwip/lwip-2.1.2/port\dhcpd.c ****         } else {
 352              		.loc 1 136 16 is_stmt 0
 353 0052 8507     		addi	a5,a5,1
 354              	.LVL39:
 355 0054 C1B7     		j	.L30
 356              	.L31:
 138:C:/Users/stapi/OneDrive/Desktop/GD32VW553/GD32VW55X_Wifi_BLE_SDK/GD32VW55x_RELEASE_V1.0.2/MSDK/lwip/lwip-2.1.2/port\dhcpd.c ****         }
 357              		.loc 1 138 13 is_stmt 1
 138:C:/Users/stapi/OneDrive/Desktop/GD32VW553/GD32VW55X_Wifi_BLE_SDK/GD32VW55x_RELEASE_V1.0.2/MSDK/lwip/lwip-2.1.2/port\dhcpd.c ****         }
 358              		.loc 1 138 23 is_stmt 0
 359 0056 83461400 		lbu	a3,1(s0)
 138:C:/Users/stapi/OneDrive/Desktop/GD32VW553/GD32VW55X_Wifi_BLE_SDK/GD32VW55x_RELEASE_V1.0.2/MSDK/lwip/lwip-2.1.2/port\dhcpd.c ****         }
 360              		.loc 1 138 39
 361 005a 8906     		addi	a3,a3,2
 138:C:/Users/stapi/OneDrive/Desktop/GD32VW553/GD32VW55X_Wifi_BLE_SDK/GD32VW55x_RELEASE_V1.0.2/MSDK/lwip/lwip-2.1.2/port\dhcpd.c ****         }
 362              		.loc 1 138 17
 363 005c B697     		add	a5,a5,a3
 364              	.LVL40:
 365 005e 5DBF     		j	.L30
 366              		.cfi_endproc
 367              	.LFE22:
 369              		.section	.rodata.request.isra.0.str1.4,"aMS",@progbits,1
 370              		.align	2
 371              	.LC0:
 372 0000 7777772E 		.string	"www.gigadevice.com.cn"
 372      67696761 
 372      64657669 
 372      63652E63 
 372      6F6D2E63 
 373 0016 0000     		.align	2
 374              	.LC1:
 375 0018 44484350 		.string	"DHCPD: Assign %d.%d.%d.%d for %02x:%02x:%02x:%02x:%02x:%02x.\n\r\n"
 375      443A2041 
 375      73736967 
 375      6E202564 
 375      2E25642E 
 376              		.section	.text.request.isra.0,"ax",@progbits
 377              		.align	1
 379              	request.isra.0:
 380              	.LFB24:
 211:C:/Users/stapi/OneDrive/Desktop/GD32VW553/GD32VW55X_Wifi_BLE_SDK/GD32VW55x_RELEASE_V1.0.2/MSDK/lwip/lwip-2.1.2/port\dhcpd.c **** 
 212:C:/Users/stapi/OneDrive/Desktop/GD32VW553/GD32VW55X_Wifi_BLE_SDK/GD32VW55x_RELEASE_V1.0.2/MSDK/lwip/lwip-2.1.2/port\dhcpd.c **** uint32_t dhcpd_find_ipaddr_by_macaddr(uint8_t *mac_addr)
 213:C:/Users/stapi/OneDrive/Desktop/GD32VW553/GD32VW55X_Wifi_BLE_SDK/GD32VW55x_RELEASE_V1.0.2/MSDK/lwip/lwip-2.1.2/port\dhcpd.c **** {
 214:C:/Users/stapi/OneDrive/Desktop/GD32VW553/GD32VW55X_Wifi_BLE_SDK/GD32VW55x_RELEASE_V1.0.2/MSDK/lwip/lwip-2.1.2/port\dhcpd.c ****     struct dhcpOfferedAddr *dhcp_offered_addr = NULL;
 215:C:/Users/stapi/OneDrive/Desktop/GD32VW553/GD32VW55X_Wifi_BLE_SDK/GD32VW55x_RELEASE_V1.0.2/MSDK/lwip/lwip-2.1.2/port\dhcpd.c ****     dhcp_offered_addr = DHCPD_FindLeaseByChaddr(mac_addr);
 216:C:/Users/stapi/OneDrive/Desktop/GD32VW553/GD32VW55X_Wifi_BLE_SDK/GD32VW55x_RELEASE_V1.0.2/MSDK/lwip/lwip-2.1.2/port\dhcpd.c ****     if (dhcp_offered_addr && !(dhcp_offered_addr->flag & DELETED)) {
 217:C:/Users/stapi/OneDrive/Desktop/GD32VW553/GD32VW55X_Wifi_BLE_SDK/GD32VW55x_RELEASE_V1.0.2/MSDK/lwip/lwip-2.1.2/port\dhcpd.c ****         return dhcp_offered_addr->yiaddr.s_addr;
 218:C:/Users/stapi/OneDrive/Desktop/GD32VW553/GD32VW55X_Wifi_BLE_SDK/GD32VW55x_RELEASE_V1.0.2/MSDK/lwip/lwip-2.1.2/port\dhcpd.c ****     } else {
 219:C:/Users/stapi/OneDrive/Desktop/GD32VW553/GD32VW55X_Wifi_BLE_SDK/GD32VW55x_RELEASE_V1.0.2/MSDK/lwip/lwip-2.1.2/port\dhcpd.c ****         return 0;
 220:C:/Users/stapi/OneDrive/Desktop/GD32VW553/GD32VW55X_Wifi_BLE_SDK/GD32VW55x_RELEASE_V1.0.2/MSDK/lwip/lwip-2.1.2/port\dhcpd.c ****     }
 221:C:/Users/stapi/OneDrive/Desktop/GD32VW553/GD32VW55X_Wifi_BLE_SDK/GD32VW55x_RELEASE_V1.0.2/MSDK/lwip/lwip-2.1.2/port\dhcpd.c **** }
 222:C:/Users/stapi/OneDrive/Desktop/GD32VW553/GD32VW55X_Wifi_BLE_SDK/GD32VW55x_RELEASE_V1.0.2/MSDK/lwip/lwip-2.1.2/port\dhcpd.c **** 
 223:C:/Users/stapi/OneDrive/Desktop/GD32VW553/GD32VW55X_Wifi_BLE_SDK/GD32VW55x_RELEASE_V1.0.2/MSDK/lwip/lwip-2.1.2/port\dhcpd.c **** void dhcpd_delete_ipaddr_by_macaddr(uint8_t *mac_addr)
 224:C:/Users/stapi/OneDrive/Desktop/GD32VW553/GD32VW55X_Wifi_BLE_SDK/GD32VW55x_RELEASE_V1.0.2/MSDK/lwip/lwip-2.1.2/port\dhcpd.c **** {
 225:C:/Users/stapi/OneDrive/Desktop/GD32VW553/GD32VW55X_Wifi_BLE_SDK/GD32VW55x_RELEASE_V1.0.2/MSDK/lwip/lwip-2.1.2/port\dhcpd.c ****     struct dhcpOfferedAddr *lease = NULL;
 226:C:/Users/stapi/OneDrive/Desktop/GD32VW553/GD32VW55X_Wifi_BLE_SDK/GD32VW55x_RELEASE_V1.0.2/MSDK/lwip/lwip-2.1.2/port\dhcpd.c ****     lease = DHCPD_FindLeaseByChaddr(mac_addr);
 227:C:/Users/stapi/OneDrive/Desktop/GD32VW553/GD32VW55X_Wifi_BLE_SDK/GD32VW55x_RELEASE_V1.0.2/MSDK/lwip/lwip-2.1.2/port\dhcpd.c ****     if (lease != NULL) {
 228:C:/Users/stapi/OneDrive/Desktop/GD32VW553/GD32VW55X_Wifi_BLE_SDK/GD32VW55x_RELEASE_V1.0.2/MSDK/lwip/lwip-2.1.2/port\dhcpd.c ****         lease->flag |= DELETED;
 229:C:/Users/stapi/OneDrive/Desktop/GD32VW553/GD32VW55X_Wifi_BLE_SDK/GD32VW55x_RELEASE_V1.0.2/MSDK/lwip/lwip-2.1.2/port\dhcpd.c ****     }
 230:C:/Users/stapi/OneDrive/Desktop/GD32VW553/GD32VW55X_Wifi_BLE_SDK/GD32VW55x_RELEASE_V1.0.2/MSDK/lwip/lwip-2.1.2/port\dhcpd.c **** }
 231:C:/Users/stapi/OneDrive/Desktop/GD32VW553/GD32VW55X_Wifi_BLE_SDK/GD32VW55x_RELEASE_V1.0.2/MSDK/lwip/lwip-2.1.2/port\dhcpd.c **** 
 232:C:/Users/stapi/OneDrive/Desktop/GD32VW553/GD32VW55X_Wifi_BLE_SDK/GD32VW55x_RELEASE_V1.0.2/MSDK/lwip/lwip-2.1.2/port\dhcpd.c **** static void make_dhcpd_packet(struct dhcpd *packet, struct dhcpd *oldpacket, char type)
 233:C:/Users/stapi/OneDrive/Desktop/GD32VW553/GD32VW55X_Wifi_BLE_SDK/GD32VW55x_RELEASE_V1.0.2/MSDK/lwip/lwip-2.1.2/port\dhcpd.c **** {
 234:C:/Users/stapi/OneDrive/Desktop/GD32VW553/GD32VW55X_Wifi_BLE_SDK/GD32VW55x_RELEASE_V1.0.2/MSDK/lwip/lwip-2.1.2/port\dhcpd.c ****     uint32_t lease_time = server_config.lease;
 235:C:/Users/stapi/OneDrive/Desktop/GD32VW553/GD32VW55X_Wifi_BLE_SDK/GD32VW55x_RELEASE_V1.0.2/MSDK/lwip/lwip-2.1.2/port\dhcpd.c ****     //uint32_t dns_server = 0;
 236:C:/Users/stapi/OneDrive/Desktop/GD32VW553/GD32VW55X_Wifi_BLE_SDK/GD32VW55x_RELEASE_V1.0.2/MSDK/lwip/lwip-2.1.2/port\dhcpd.c ****     unsigned char *option = packet->options;
 237:C:/Users/stapi/OneDrive/Desktop/GD32VW553/GD32VW55X_Wifi_BLE_SDK/GD32VW55x_RELEASE_V1.0.2/MSDK/lwip/lwip-2.1.2/port\dhcpd.c ****     char domain_name[255] = {0};
 238:C:/Users/stapi/OneDrive/Desktop/GD32VW553/GD32VW55X_Wifi_BLE_SDK/GD32VW55x_RELEASE_V1.0.2/MSDK/lwip/lwip-2.1.2/port\dhcpd.c ****     lease_time = htonl(lease_time);
 239:C:/Users/stapi/OneDrive/Desktop/GD32VW553/GD32VW55X_Wifi_BLE_SDK/GD32VW55x_RELEASE_V1.0.2/MSDK/lwip/lwip-2.1.2/port\dhcpd.c ****     memset(packet, 0, sizeof(struct dhcpd));
 240:C:/Users/stapi/OneDrive/Desktop/GD32VW553/GD32VW55X_Wifi_BLE_SDK/GD32VW55x_RELEASE_V1.0.2/MSDK/lwip/lwip-2.1.2/port\dhcpd.c ****     packet->op = BOOTREPLY;
 241:C:/Users/stapi/OneDrive/Desktop/GD32VW553/GD32VW55X_Wifi_BLE_SDK/GD32VW55x_RELEASE_V1.0.2/MSDK/lwip/lwip-2.1.2/port\dhcpd.c ****     packet->htype = ETH_10MB;
 242:C:/Users/stapi/OneDrive/Desktop/GD32VW553/GD32VW55X_Wifi_BLE_SDK/GD32VW55x_RELEASE_V1.0.2/MSDK/lwip/lwip-2.1.2/port\dhcpd.c ****     packet->hlen = ETH_10MB_LEN;
 243:C:/Users/stapi/OneDrive/Desktop/GD32VW553/GD32VW55X_Wifi_BLE_SDK/GD32VW55x_RELEASE_V1.0.2/MSDK/lwip/lwip-2.1.2/port\dhcpd.c ****     packet->xid = oldpacket->xid;
 244:C:/Users/stapi/OneDrive/Desktop/GD32VW553/GD32VW55X_Wifi_BLE_SDK/GD32VW55x_RELEASE_V1.0.2/MSDK/lwip/lwip-2.1.2/port\dhcpd.c ****     sys_memcpy(packet->chaddr, oldpacket->chaddr, 16);
 245:C:/Users/stapi/OneDrive/Desktop/GD32VW553/GD32VW55X_Wifi_BLE_SDK/GD32VW55x_RELEASE_V1.0.2/MSDK/lwip/lwip-2.1.2/port\dhcpd.c ****     packet->flags = oldpacket->flags;
 246:C:/Users/stapi/OneDrive/Desktop/GD32VW553/GD32VW55X_Wifi_BLE_SDK/GD32VW55x_RELEASE_V1.0.2/MSDK/lwip/lwip-2.1.2/port\dhcpd.c ****     packet->ciaddr = oldpacket->ciaddr;
 247:C:/Users/stapi/OneDrive/Desktop/GD32VW553/GD32VW55X_Wifi_BLE_SDK/GD32VW55x_RELEASE_V1.0.2/MSDK/lwip/lwip-2.1.2/port\dhcpd.c ****     packet->siaddr = server_config.siaddr.s_addr;
 248:C:/Users/stapi/OneDrive/Desktop/GD32VW553/GD32VW55X_Wifi_BLE_SDK/GD32VW55x_RELEASE_V1.0.2/MSDK/lwip/lwip-2.1.2/port\dhcpd.c ****     packet->giaddr = oldpacket->giaddr;
 249:C:/Users/stapi/OneDrive/Desktop/GD32VW553/GD32VW55X_Wifi_BLE_SDK/GD32VW55x_RELEASE_V1.0.2/MSDK/lwip/lwip-2.1.2/port\dhcpd.c ****     packet->cookie = htonl(DHCP_MAGIC);
 250:C:/Users/stapi/OneDrive/Desktop/GD32VW553/GD32VW55X_Wifi_BLE_SDK/GD32VW55x_RELEASE_V1.0.2/MSDK/lwip/lwip-2.1.2/port\dhcpd.c ****     packet->options[0] = DHCP_END;
 251:C:/Users/stapi/OneDrive/Desktop/GD32VW553/GD32VW55X_Wifi_BLE_SDK/GD32VW55x_RELEASE_V1.0.2/MSDK/lwip/lwip-2.1.2/port\dhcpd.c ****     sys_memcpy(packet->sname,server_config.sname, 6);
 252:C:/Users/stapi/OneDrive/Desktop/GD32VW553/GD32VW55X_Wifi_BLE_SDK/GD32VW55x_RELEASE_V1.0.2/MSDK/lwip/lwip-2.1.2/port\dhcpd.c ****     dhcpd_add_option(option, DHCP_MESSAGE_TYPE, sizeof(type), &type);
 253:C:/Users/stapi/OneDrive/Desktop/GD32VW553/GD32VW55X_Wifi_BLE_SDK/GD32VW55x_RELEASE_V1.0.2/MSDK/lwip/lwip-2.1.2/port\dhcpd.c ****     dhcpd_add_option(option, DHCP_SERVER_ID, sizeof(server_config.server.s_addr), &server_config.se
 254:C:/Users/stapi/OneDrive/Desktop/GD32VW553/GD32VW55X_Wifi_BLE_SDK/GD32VW55x_RELEASE_V1.0.2/MSDK/lwip/lwip-2.1.2/port\dhcpd.c ****     dhcpd_add_option(option, DHCP_LEASE_TIME, sizeof(lease_time),&lease_time);
 255:C:/Users/stapi/OneDrive/Desktop/GD32VW553/GD32VW55X_Wifi_BLE_SDK/GD32VW55x_RELEASE_V1.0.2/MSDK/lwip/lwip-2.1.2/port\dhcpd.c ****     dhcpd_add_option(option, DHCP_SUBNET, sizeof(server_config.mask.s_addr), &server_config.mask.s_
 256:C:/Users/stapi/OneDrive/Desktop/GD32VW553/GD32VW55X_Wifi_BLE_SDK/GD32VW55x_RELEASE_V1.0.2/MSDK/lwip/lwip-2.1.2/port\dhcpd.c ****     dhcpd_add_option(option, DHCP_ROUTER, sizeof(server_config.server.s_addr), &server_config.serve
 257:C:/Users/stapi/OneDrive/Desktop/GD32VW553/GD32VW55X_Wifi_BLE_SDK/GD32VW55x_RELEASE_V1.0.2/MSDK/lwip/lwip-2.1.2/port\dhcpd.c ****     dhcpd_add_option(option, DHCP_DNS_SERVER, sizeof(server_config.server.s_addr), &server_config.s
 258:C:/Users/stapi/OneDrive/Desktop/GD32VW553/GD32VW55X_Wifi_BLE_SDK/GD32VW55x_RELEASE_V1.0.2/MSDK/lwip/lwip-2.1.2/port\dhcpd.c ****     sys_memcpy(domain_name, DEFAULT_DOMAIN, sizeof(DEFAULT_DOMAIN));
 259:C:/Users/stapi/OneDrive/Desktop/GD32VW553/GD32VW55X_Wifi_BLE_SDK/GD32VW55x_RELEASE_V1.0.2/MSDK/lwip/lwip-2.1.2/port\dhcpd.c ****     dhcpd_add_option(option, DHCP_DOMAIN_NAME, strlen(domain_name), domain_name);
 260:C:/Users/stapi/OneDrive/Desktop/GD32VW553/GD32VW55X_Wifi_BLE_SDK/GD32VW55x_RELEASE_V1.0.2/MSDK/lwip/lwip-2.1.2/port\dhcpd.c **** }
 261:C:/Users/stapi/OneDrive/Desktop/GD32VW553/GD32VW55X_Wifi_BLE_SDK/GD32VW55x_RELEASE_V1.0.2/MSDK/lwip/lwip-2.1.2/port\dhcpd.c **** 
 262:C:/Users/stapi/OneDrive/Desktop/GD32VW553/GD32VW55X_Wifi_BLE_SDK/GD32VW55x_RELEASE_V1.0.2/MSDK/lwip/lwip-2.1.2/port\dhcpd.c **** static int discover(struct dhcpd *packetinfo)
 263:C:/Users/stapi/OneDrive/Desktop/GD32VW553/GD32VW55X_Wifi_BLE_SDK/GD32VW55x_RELEASE_V1.0.2/MSDK/lwip/lwip-2.1.2/port\dhcpd.c **** {
 264:C:/Users/stapi/OneDrive/Desktop/GD32VW553/GD32VW55X_Wifi_BLE_SDK/GD32VW55x_RELEASE_V1.0.2/MSDK/lwip/lwip-2.1.2/port\dhcpd.c ****     struct in_addr addr;
 265:C:/Users/stapi/OneDrive/Desktop/GD32VW553/GD32VW55X_Wifi_BLE_SDK/GD32VW55x_RELEASE_V1.0.2/MSDK/lwip/lwip-2.1.2/port\dhcpd.c ****     //struct in_addr req_ip;
 266:C:/Users/stapi/OneDrive/Desktop/GD32VW553/GD32VW55X_Wifi_BLE_SDK/GD32VW55x_RELEASE_V1.0.2/MSDK/lwip/lwip-2.1.2/port\dhcpd.c ****     int8_t idx = 0, deleted_lease_idx = -1;
 267:C:/Users/stapi/OneDrive/Desktop/GD32VW553/GD32VW55X_Wifi_BLE_SDK/GD32VW55x_RELEASE_V1.0.2/MSDK/lwip/lwip-2.1.2/port\dhcpd.c ****     struct dhcpOfferedAddr *lease;
 268:C:/Users/stapi/OneDrive/Desktop/GD32VW553/GD32VW55X_Wifi_BLE_SDK/GD32VW55x_RELEASE_V1.0.2/MSDK/lwip/lwip-2.1.2/port\dhcpd.c ****     //struct dhcpOfferedAddr *lease_new;
 269:C:/Users/stapi/OneDrive/Desktop/GD32VW553/GD32VW55X_Wifi_BLE_SDK/GD32VW55x_RELEASE_V1.0.2/MSDK/lwip/lwip-2.1.2/port\dhcpd.c ****     //struct dhcpOfferedAddr *lease_change=NULL;
 270:C:/Users/stapi/OneDrive/Desktop/GD32VW553/GD32VW55X_Wifi_BLE_SDK/GD32VW55x_RELEASE_V1.0.2/MSDK/lwip/lwip-2.1.2/port\dhcpd.c ****     if (memcmp(packetinfo->chaddr, "\x00\x00\x00\x00\x00\x00", 6) == 0 ||
 271:C:/Users/stapi/OneDrive/Desktop/GD32VW553/GD32VW55X_Wifi_BLE_SDK/GD32VW55x_RELEASE_V1.0.2/MSDK/lwip/lwip-2.1.2/port\dhcpd.c ****     memcmp(packetinfo->chaddr, "\xff\xff\xff\xff\xff\xff", 6) == 0) {
 272:C:/Users/stapi/OneDrive/Desktop/GD32VW553/GD32VW55X_Wifi_BLE_SDK/GD32VW55x_RELEASE_V1.0.2/MSDK/lwip/lwip-2.1.2/port\dhcpd.c ****         return -1;
 273:C:/Users/stapi/OneDrive/Desktop/GD32VW553/GD32VW55X_Wifi_BLE_SDK/GD32VW55x_RELEASE_V1.0.2/MSDK/lwip/lwip-2.1.2/port\dhcpd.c ****     }
 274:C:/Users/stapi/OneDrive/Desktop/GD32VW553/GD32VW55X_Wifi_BLE_SDK/GD32VW55x_RELEASE_V1.0.2/MSDK/lwip/lwip-2.1.2/port\dhcpd.c **** 
 275:C:/Users/stapi/OneDrive/Desktop/GD32VW553/GD32VW55X_Wifi_BLE_SDK/GD32VW55x_RELEASE_V1.0.2/MSDK/lwip/lwip-2.1.2/port\dhcpd.c ****     if ((lease = DHCPD_FindLeaseByChaddr(packetinfo->chaddr)) == NULL) {
 276:C:/Users/stapi/OneDrive/Desktop/GD32VW553/GD32VW55X_Wifi_BLE_SDK/GD32VW55x_RELEASE_V1.0.2/MSDK/lwip/lwip-2.1.2/port\dhcpd.c ****         addr = DHCPD_FindAddress();
 277:C:/Users/stapi/OneDrive/Desktop/GD32VW553/GD32VW55X_Wifi_BLE_SDK/GD32VW55x_RELEASE_V1.0.2/MSDK/lwip/lwip-2.1.2/port\dhcpd.c **** 
 278:C:/Users/stapi/OneDrive/Desktop/GD32VW553/GD32VW55X_Wifi_BLE_SDK/GD32VW55x_RELEASE_V1.0.2/MSDK/lwip/lwip-2.1.2/port\dhcpd.c ****         // find a empty lease first, then find the deleted lease
 279:C:/Users/stapi/OneDrive/Desktop/GD32VW553/GD32VW55X_Wifi_BLE_SDK/GD32VW55x_RELEASE_V1.0.2/MSDK/lwip/lwip-2.1.2/port\dhcpd.c ****         for (idx = 0; idx < server_config.max_leases; idx++) {
 280:C:/Users/stapi/OneDrive/Desktop/GD32VW553/GD32VW55X_Wifi_BLE_SDK/GD32VW55x_RELEASE_V1.0.2/MSDK/lwip/lwip-2.1.2/port\dhcpd.c ****             if((leases[idx].flag & DELETED) != 0) {
 281:C:/Users/stapi/OneDrive/Desktop/GD32VW553/GD32VW55X_Wifi_BLE_SDK/GD32VW55x_RELEASE_V1.0.2/MSDK/lwip/lwip-2.1.2/port\dhcpd.c ****                 deleted_lease_idx = idx;
 282:C:/Users/stapi/OneDrive/Desktop/GD32VW553/GD32VW55X_Wifi_BLE_SDK/GD32VW55x_RELEASE_V1.0.2/MSDK/lwip/lwip-2.1.2/port\dhcpd.c ****             } else if (*(leases[idx].chaddr) == 0) {
 283:C:/Users/stapi/OneDrive/Desktop/GD32VW553/GD32VW55X_Wifi_BLE_SDK/GD32VW55x_RELEASE_V1.0.2/MSDK/lwip/lwip-2.1.2/port\dhcpd.c ****                 deleted_lease_idx = -1;
 284:C:/Users/stapi/OneDrive/Desktop/GD32VW553/GD32VW55X_Wifi_BLE_SDK/GD32VW55x_RELEASE_V1.0.2/MSDK/lwip/lwip-2.1.2/port\dhcpd.c ****                 break;
 285:C:/Users/stapi/OneDrive/Desktop/GD32VW553/GD32VW55X_Wifi_BLE_SDK/GD32VW55x_RELEASE_V1.0.2/MSDK/lwip/lwip-2.1.2/port\dhcpd.c ****             }
 286:C:/Users/stapi/OneDrive/Desktop/GD32VW553/GD32VW55X_Wifi_BLE_SDK/GD32VW55x_RELEASE_V1.0.2/MSDK/lwip/lwip-2.1.2/port\dhcpd.c ****         }
 287:C:/Users/stapi/OneDrive/Desktop/GD32VW553/GD32VW55X_Wifi_BLE_SDK/GD32VW55x_RELEASE_V1.0.2/MSDK/lwip/lwip-2.1.2/port\dhcpd.c **** 
 288:C:/Users/stapi/OneDrive/Desktop/GD32VW553/GD32VW55X_Wifi_BLE_SDK/GD32VW55x_RELEASE_V1.0.2/MSDK/lwip/lwip-2.1.2/port\dhcpd.c ****         //no empty lease and no deleted lease
 289:C:/Users/stapi/OneDrive/Desktop/GD32VW553/GD32VW55X_Wifi_BLE_SDK/GD32VW55x_RELEASE_V1.0.2/MSDK/lwip/lwip-2.1.2/port\dhcpd.c ****         if ((idx >= server_config.max_leases) && (deleted_lease_idx == -1))
 290:C:/Users/stapi/OneDrive/Desktop/GD32VW553/GD32VW55X_Wifi_BLE_SDK/GD32VW55x_RELEASE_V1.0.2/MSDK/lwip/lwip-2.1.2/port\dhcpd.c ****             return -1;
 291:C:/Users/stapi/OneDrive/Desktop/GD32VW553/GD32VW55X_Wifi_BLE_SDK/GD32VW55x_RELEASE_V1.0.2/MSDK/lwip/lwip-2.1.2/port\dhcpd.c **** 
 292:C:/Users/stapi/OneDrive/Desktop/GD32VW553/GD32VW55X_Wifi_BLE_SDK/GD32VW55x_RELEASE_V1.0.2/MSDK/lwip/lwip-2.1.2/port\dhcpd.c ****         // no empty lease but has deleted lease
 293:C:/Users/stapi/OneDrive/Desktop/GD32VW553/GD32VW55X_Wifi_BLE_SDK/GD32VW55x_RELEASE_V1.0.2/MSDK/lwip/lwip-2.1.2/port\dhcpd.c ****         if (deleted_lease_idx != -1)
 294:C:/Users/stapi/OneDrive/Desktop/GD32VW553/GD32VW55X_Wifi_BLE_SDK/GD32VW55x_RELEASE_V1.0.2/MSDK/lwip/lwip-2.1.2/port\dhcpd.c ****             idx = deleted_lease_idx;
 295:C:/Users/stapi/OneDrive/Desktop/GD32VW553/GD32VW55X_Wifi_BLE_SDK/GD32VW55x_RELEASE_V1.0.2/MSDK/lwip/lwip-2.1.2/port\dhcpd.c **** 
 296:C:/Users/stapi/OneDrive/Desktop/GD32VW553/GD32VW55X_Wifi_BLE_SDK/GD32VW55x_RELEASE_V1.0.2/MSDK/lwip/lwip-2.1.2/port\dhcpd.c ****         MEMCPY(leases[idx].chaddr,packetinfo->chaddr,6);
 297:C:/Users/stapi/OneDrive/Desktop/GD32VW553/GD32VW55X_Wifi_BLE_SDK/GD32VW55x_RELEASE_V1.0.2/MSDK/lwip/lwip-2.1.2/port\dhcpd.c ****         leases[idx].yiaddr = addr;
 298:C:/Users/stapi/OneDrive/Desktop/GD32VW553/GD32VW55X_Wifi_BLE_SDK/GD32VW55x_RELEASE_V1.0.2/MSDK/lwip/lwip-2.1.2/port\dhcpd.c ****         lease = &(leases[idx]);
 299:C:/Users/stapi/OneDrive/Desktop/GD32VW553/GD32VW55X_Wifi_BLE_SDK/GD32VW55x_RELEASE_V1.0.2/MSDK/lwip/lwip-2.1.2/port\dhcpd.c ****     }
 300:C:/Users/stapi/OneDrive/Desktop/GD32VW553/GD32VW55X_Wifi_BLE_SDK/GD32VW55x_RELEASE_V1.0.2/MSDK/lwip/lwip-2.1.2/port\dhcpd.c **** 
 301:C:/Users/stapi/OneDrive/Desktop/GD32VW553/GD32VW55X_Wifi_BLE_SDK/GD32VW55x_RELEASE_V1.0.2/MSDK/lwip/lwip-2.1.2/port\dhcpd.c ****     memset(&payload_out, 0, sizeof(struct dhcpd));
 302:C:/Users/stapi/OneDrive/Desktop/GD32VW553/GD32VW55X_Wifi_BLE_SDK/GD32VW55x_RELEASE_V1.0.2/MSDK/lwip/lwip-2.1.2/port\dhcpd.c ****     make_dhcpd_packet(&payload_out, packetinfo, DHCPOFFER);
 303:C:/Users/stapi/OneDrive/Desktop/GD32VW553/GD32VW55X_Wifi_BLE_SDK/GD32VW55x_RELEASE_V1.0.2/MSDK/lwip/lwip-2.1.2/port\dhcpd.c ****     payload_out.yiaddr = lease->yiaddr.s_addr;
 304:C:/Users/stapi/OneDrive/Desktop/GD32VW553/GD32VW55X_Wifi_BLE_SDK/GD32VW55x_RELEASE_V1.0.2/MSDK/lwip/lwip-2.1.2/port\dhcpd.c ****     if (packetinfo->flags == 0) {
 305:C:/Users/stapi/OneDrive/Desktop/GD32VW553/GD32VW55X_Wifi_BLE_SDK/GD32VW55x_RELEASE_V1.0.2/MSDK/lwip/lwip-2.1.2/port\dhcpd.c **** #if LWIP_IPV6
 306:C:/Users/stapi/OneDrive/Desktop/GD32VW553/GD32VW55X_Wifi_BLE_SDK/GD32VW55x_RELEASE_V1.0.2/MSDK/lwip/lwip-2.1.2/port\dhcpd.c ****             destAddr.u_addr.ip4.addr = lease->yiaddr.s_addr;
 307:C:/Users/stapi/OneDrive/Desktop/GD32VW553/GD32VW55X_Wifi_BLE_SDK/GD32VW55x_RELEASE_V1.0.2/MSDK/lwip/lwip-2.1.2/port\dhcpd.c **** #else
 308:C:/Users/stapi/OneDrive/Desktop/GD32VW553/GD32VW55X_Wifi_BLE_SDK/GD32VW55x_RELEASE_V1.0.2/MSDK/lwip/lwip-2.1.2/port\dhcpd.c ****             destAddr.addr = lease->yiaddr.s_addr;
 309:C:/Users/stapi/OneDrive/Desktop/GD32VW553/GD32VW55X_Wifi_BLE_SDK/GD32VW55x_RELEASE_V1.0.2/MSDK/lwip/lwip-2.1.2/port\dhcpd.c **** #endif
 310:C:/Users/stapi/OneDrive/Desktop/GD32VW553/GD32VW55X_Wifi_BLE_SDK/GD32VW55x_RELEASE_V1.0.2/MSDK/lwip/lwip-2.1.2/port\dhcpd.c ****     }
 311:C:/Users/stapi/OneDrive/Desktop/GD32VW553/GD32VW55X_Wifi_BLE_SDK/GD32VW55x_RELEASE_V1.0.2/MSDK/lwip/lwip-2.1.2/port\dhcpd.c **** 
 312:C:/Users/stapi/OneDrive/Desktop/GD32VW553/GD32VW55X_Wifi_BLE_SDK/GD32VW55x_RELEASE_V1.0.2/MSDK/lwip/lwip-2.1.2/port\dhcpd.c ****     return 0;
 313:C:/Users/stapi/OneDrive/Desktop/GD32VW553/GD32VW55X_Wifi_BLE_SDK/GD32VW55x_RELEASE_V1.0.2/MSDK/lwip/lwip-2.1.2/port\dhcpd.c **** }
 314:C:/Users/stapi/OneDrive/Desktop/GD32VW553/GD32VW55X_Wifi_BLE_SDK/GD32VW55x_RELEASE_V1.0.2/MSDK/lwip/lwip-2.1.2/port\dhcpd.c **** 
 315:C:/Users/stapi/OneDrive/Desktop/GD32VW553/GD32VW55X_Wifi_BLE_SDK/GD32VW55x_RELEASE_V1.0.2/MSDK/lwip/lwip-2.1.2/port\dhcpd.c **** 
 316:C:/Users/stapi/OneDrive/Desktop/GD32VW553/GD32VW55X_Wifi_BLE_SDK/GD32VW55x_RELEASE_V1.0.2/MSDK/lwip/lwip-2.1.2/port\dhcpd.c **** static int request(struct dhcpd *packetinfo)
 381              		.loc 1 316 12 is_stmt 1
 382              		.cfi_startproc
 383              	.LVL41:
 384 0000 17030000 		call	t0,__riscv_save_7
 384      E7020300 
 385              		.cfi_offset 22, -32
 386              		.cfi_offset 21, -28
 387              		.cfi_offset 20, -24
 388              		.cfi_offset 19, -20
 389              		.cfi_offset 18, -16
 390              		.cfi_offset 9, -12
 391              		.cfi_offset 8, -8
 392              		.cfi_offset 1, -4
 393              		.cfi_def_cfa_offset 32
 317:C:/Users/stapi/OneDrive/Desktop/GD32VW553/GD32VW55X_Wifi_BLE_SDK/GD32VW55x_RELEASE_V1.0.2/MSDK/lwip/lwip-2.1.2/port\dhcpd.c **** {
 318:C:/Users/stapi/OneDrive/Desktop/GD32VW553/GD32VW55X_Wifi_BLE_SDK/GD32VW55x_RELEASE_V1.0.2/MSDK/lwip/lwip-2.1.2/port\dhcpd.c ****     uint32_t lease_time = server_config.lease;
 394              		.loc 1 318 5
 395              		.loc 1 318 40 is_stmt 0
 396 0008 B70A0000 		lui	s5,%hi(.LANCHOR0)
 397 000c 138B0A00 		addi	s6,s5,%lo(.LANCHOR0)
 398 0010 8324CB01 		lw	s1,28(s6)
 316:C:/Users/stapi/OneDrive/Desktop/GD32VW553/GD32VW55X_Wifi_BLE_SDK/GD32VW55x_RELEASE_V1.0.2/MSDK/lwip/lwip-2.1.2/port\dhcpd.c **** {
 399              		.loc 1 316 12
 400 0014 6971     		addi	sp,sp,-304
 401              		.cfi_def_cfa_offset 336
 319:C:/Users/stapi/OneDrive/Desktop/GD32VW553/GD32VW55X_Wifi_BLE_SDK/GD32VW55x_RELEASE_V1.0.2/MSDK/lwip/lwip-2.1.2/port\dhcpd.c ****     //uint32_t dns_server = 0;
 320:C:/Users/stapi/OneDrive/Desktop/GD32VW553/GD32VW55X_Wifi_BLE_SDK/GD32VW55x_RELEASE_V1.0.2/MSDK/lwip/lwip-2.1.2/port\dhcpd.c ****     char type;
 321:C:/Users/stapi/OneDrive/Desktop/GD32VW553/GD32VW55X_Wifi_BLE_SDK/GD32VW55x_RELEASE_V1.0.2/MSDK/lwip/lwip-2.1.2/port\dhcpd.c ****     unsigned char *option = payload_out.options;
 322:C:/Users/stapi/OneDrive/Desktop/GD32VW553/GD32VW55X_Wifi_BLE_SDK/GD32VW55x_RELEASE_V1.0.2/MSDK/lwip/lwip-2.1.2/port\dhcpd.c ****     struct dhcpOfferedAddr *lease;
 323:C:/Users/stapi/OneDrive/Desktop/GD32VW553/GD32VW55X_Wifi_BLE_SDK/GD32VW55x_RELEASE_V1.0.2/MSDK/lwip/lwip-2.1.2/port\dhcpd.c ****     char domain_name[255] = {0};
 402              		.loc 1 323 10
 403 0016 1306B00F 		li	a2,251
 404 001a 8145     		li	a1,0
 316:C:/Users/stapi/OneDrive/Desktop/GD32VW553/GD32VW55X_Wifi_BLE_SDK/GD32VW55x_RELEASE_V1.0.2/MSDK/lwip/lwip-2.1.2/port\dhcpd.c **** {
 405              		.loc 1 316 12
 406 001c 2A84     		mv	s0,a0
 407              		.loc 1 323 10
 408 001e 4818     		addi	a0,sp,52
 409              	.LVL42:
 318:C:/Users/stapi/OneDrive/Desktop/GD32VW553/GD32VW55X_Wifi_BLE_SDK/GD32VW55x_RELEASE_V1.0.2/MSDK/lwip/lwip-2.1.2/port\dhcpd.c ****     //uint32_t dns_server = 0;
 410              		.loc 1 318 14
 411 0020 26D6     		sw	s1,44(sp)
 320:C:/Users/stapi/OneDrive/Desktop/GD32VW553/GD32VW55X_Wifi_BLE_SDK/GD32VW55x_RELEASE_V1.0.2/MSDK/lwip/lwip-2.1.2/port\dhcpd.c ****     unsigned char *option = payload_out.options;
 412              		.loc 1 320 5 is_stmt 1
 321:C:/Users/stapi/OneDrive/Desktop/GD32VW553/GD32VW55X_Wifi_BLE_SDK/GD32VW55x_RELEASE_V1.0.2/MSDK/lwip/lwip-2.1.2/port\dhcpd.c ****     struct dhcpOfferedAddr *lease;
 413              		.loc 1 321 5
 414              	.LVL43:
 322:C:/Users/stapi/OneDrive/Desktop/GD32VW553/GD32VW55X_Wifi_BLE_SDK/GD32VW55x_RELEASE_V1.0.2/MSDK/lwip/lwip-2.1.2/port\dhcpd.c ****     char domain_name[255] = {0};
 415              		.loc 1 322 5
 416              		.loc 1 323 5
 417              		.loc 1 323 10 is_stmt 0
 418 0022 02D8     		sw	zero,48(sp)
 419 0024 97000000 		call	memset
 419      E7800000 
 420              	.LVL44:
 324:C:/Users/stapi/OneDrive/Desktop/GD32VW553/GD32VW55X_Wifi_BLE_SDK/GD32VW55x_RELEASE_V1.0.2/MSDK/lwip/lwip-2.1.2/port\dhcpd.c ****     lease_time = htonl(lease_time);
 421              		.loc 1 324 5 is_stmt 1
 422              		.loc 1 324 18 is_stmt 0
 423 002c 2685     		mv	a0,s1
 424 002e 97000000 		call	lwip_htonl
 424      E7800000 
 425              	.LVL45:
 325:C:/Users/stapi/OneDrive/Desktop/GD32VW553/GD32VW55X_Wifi_BLE_SDK/GD32VW55x_RELEASE_V1.0.2/MSDK/lwip/lwip-2.1.2/port\dhcpd.c **** 
 326:C:/Users/stapi/OneDrive/Desktop/GD32VW553/GD32VW55X_Wifi_BLE_SDK/GD32VW55x_RELEASE_V1.0.2/MSDK/lwip/lwip-2.1.2/port\dhcpd.c ****     memset(&payload_out, 0, sizeof(struct dhcpd));
 426              		.loc 1 326 5
 427 0036 B7040000 		lui	s1,%hi(.LANCHOR2)
 324:C:/Users/stapi/OneDrive/Desktop/GD32VW553/GD32VW55X_Wifi_BLE_SDK/GD32VW55x_RELEASE_V1.0.2/MSDK/lwip/lwip-2.1.2/port\dhcpd.c ****     lease_time = htonl(lease_time);
 428              		.loc 1 324 16
 429 003a 2AD6     		sw	a0,44(sp)
 430              		.loc 1 326 5 is_stmt 1
 431 003c 13064022 		li	a2,548
 432 0040 8145     		li	a1,0
 433 0042 13850400 		addi	a0,s1,%lo(.LANCHOR2)
 434 0046 97000000 		call	memset
 434      E7800000 
 435              	.LVL46:
 327:C:/Users/stapi/OneDrive/Desktop/GD32VW553/GD32VW55X_Wifi_BLE_SDK/GD32VW55x_RELEASE_V1.0.2/MSDK/lwip/lwip-2.1.2/port\dhcpd.c **** 
 328:C:/Users/stapi/OneDrive/Desktop/GD32VW553/GD32VW55X_Wifi_BLE_SDK/GD32VW55x_RELEASE_V1.0.2/MSDK/lwip/lwip-2.1.2/port\dhcpd.c ****     if ((lease = DHCPD_FindLeaseByChaddr(packetinfo->chaddr)) != NULL) {
 436              		.loc 1 328 5
 437              		.loc 1 328 52 is_stmt 0
 438 004e 9305C401 		addi	a1,s0,28
 439              		.loc 1 328 18
 440 0052 2E85     		mv	a0,a1
 441 0054 2ECE     		sw	a1,28(sp)
 442 0056 97000000 		call	DHCPD_FindLeaseByChaddr
 442      E7800000 
 443              	.LVL47:
 444 005e 2A8A     		mv	s4,a0
 445              	.LVL48:
 446              		.loc 1 328 8
 447 0060 F245     		lw	a1,28(sp)
 448 0062 37050000 		lui	a0,%hi(.LANCHOR2+28)
 449              	.LVL49:
 450 0066 37090000 		lui	s2,%hi(.LANCHOR2+240)
 451 006a 63090A1E 		beq	s4,zero,.L37
 329:C:/Users/stapi/OneDrive/Desktop/GD32VW553/GD32VW55X_Wifi_BLE_SDK/GD32VW55x_RELEASE_V1.0.2/MSDK/lwip/lwip-2.1.2/port\dhcpd.c ****         type = DHCPACK;
 452              		.loc 1 329 14
 453 006e 9547     		li	a5,5
 454 0070 93840400 		addi	s1,s1,%lo(.LANCHOR2)
 455              		.loc 1 329 9 is_stmt 1
 456              		.loc 1 329 14 is_stmt 0
 457 0074 A305F102 		sb	a5,43(sp)
 330:C:/Users/stapi/OneDrive/Desktop/GD32VW553/GD32VW55X_Wifi_BLE_SDK/GD32VW55x_RELEASE_V1.0.2/MSDK/lwip/lwip-2.1.2/port\dhcpd.c ****         payload_out.op = BOOTREPLY;
 458              		.loc 1 330 9 is_stmt 1
 331:C:/Users/stapi/OneDrive/Desktop/GD32VW553/GD32VW55X_Wifi_BLE_SDK/GD32VW55x_RELEASE_V1.0.2/MSDK/lwip/lwip-2.1.2/port\dhcpd.c ****         payload_out.htype = ETH_10MB;
 459              		.loc 1 331 9
 332:C:/Users/stapi/OneDrive/Desktop/GD32VW553/GD32VW55X_Wifi_BLE_SDK/GD32VW55x_RELEASE_V1.0.2/MSDK/lwip/lwip-2.1.2/port\dhcpd.c ****         payload_out.hlen = ETH_10MB_LEN;
 460              		.loc 1 332 9
 330:C:/Users/stapi/OneDrive/Desktop/GD32VW553/GD32VW55X_Wifi_BLE_SDK/GD32VW55x_RELEASE_V1.0.2/MSDK/lwip/lwip-2.1.2/port\dhcpd.c ****         payload_out.op = BOOTREPLY;
 461              		.loc 1 330 24 is_stmt 0
 462 0078 93072010 		li	a5,258
 463 007c 2390F400 		sh	a5,0(s1)
 464              		.loc 1 332 26
 465 0080 9947     		li	a5,6
 466 0082 2381F400 		sb	a5,2(s1)
 333:C:/Users/stapi/OneDrive/Desktop/GD32VW553/GD32VW55X_Wifi_BLE_SDK/GD32VW55x_RELEASE_V1.0.2/MSDK/lwip/lwip-2.1.2/port\dhcpd.c ****         payload_out.xid = packetinfo->xid;
 467              		.loc 1 333 9 is_stmt 1
 468              		.loc 1 333 37 is_stmt 0
 469 0086 03475400 		lbu	a4,5(s0)
 470 008a 83474400 		lbu	a5,4(s0)
 334:C:/Users/stapi/OneDrive/Desktop/GD32VW553/GD32VW55X_Wifi_BLE_SDK/GD32VW55x_RELEASE_V1.0.2/MSDK/lwip/lwip-2.1.2/port\dhcpd.c ****         sys_memcpy(payload_out.chaddr, packetinfo->chaddr, 16);
 471              		.loc 1 334 9
 472 008e 4146     		li	a2,16
 333:C:/Users/stapi/OneDrive/Desktop/GD32VW553/GD32VW55X_Wifi_BLE_SDK/GD32VW55x_RELEASE_V1.0.2/MSDK/lwip/lwip-2.1.2/port\dhcpd.c ****         payload_out.xid = packetinfo->xid;
 473              		.loc 1 333 37
 474 0090 2207     		slli	a4,a4,8
 475 0092 5D8F     		or	a4,a4,a5
 476 0094 83476400 		lbu	a5,6(s0)
 477              		.loc 1 334 9
 478 0098 1305C501 		addi	a0,a0,%lo(.LANCHOR2+28)
 333:C:/Users/stapi/OneDrive/Desktop/GD32VW553/GD32VW55X_Wifi_BLE_SDK/GD32VW55x_RELEASE_V1.0.2/MSDK/lwip/lwip-2.1.2/port\dhcpd.c ****         payload_out.xid = packetinfo->xid;
 479              		.loc 1 333 37
 480 009c C207     		slli	a5,a5,16
 481 009e 5D8F     		or	a4,a5,a4
 482 00a0 83477400 		lbu	a5,7(s0)
 483 00a4 E207     		slli	a5,a5,24
 484 00a6 D98F     		or	a5,a5,a4
 333:C:/Users/stapi/OneDrive/Desktop/GD32VW553/GD32VW55X_Wifi_BLE_SDK/GD32VW55x_RELEASE_V1.0.2/MSDK/lwip/lwip-2.1.2/port\dhcpd.c ****         payload_out.xid = packetinfo->xid;
 485              		.loc 1 333 25
 486 00a8 DCC0     		sw	a5,4(s1)
 487              		.loc 1 334 9 is_stmt 1
 488 00aa 97000000 		call	sys_memcpy
 488      E7800000 
 489              	.LVL50:
 335:C:/Users/stapi/OneDrive/Desktop/GD32VW553/GD32VW55X_Wifi_BLE_SDK/GD32VW55x_RELEASE_V1.0.2/MSDK/lwip/lwip-2.1.2/port\dhcpd.c ****         payload_out.flags = packetinfo->flags;
 490              		.loc 1 335 9
 491              		.loc 1 335 39 is_stmt 0
 492 00b2 8347B400 		lbu	a5,11(s0)
 493 00b6 0347A400 		lbu	a4,10(s0)
 336:C:/Users/stapi/OneDrive/Desktop/GD32VW553/GD32VW55X_Wifi_BLE_SDK/GD32VW55x_RELEASE_V1.0.2/MSDK/lwip/lwip-2.1.2/port\dhcpd.c ****         payload_out.ciaddr = packetinfo->ciaddr;
 337:C:/Users/stapi/OneDrive/Desktop/GD32VW553/GD32VW55X_Wifi_BLE_SDK/GD32VW55x_RELEASE_V1.0.2/MSDK/lwip/lwip-2.1.2/port\dhcpd.c ****         payload_out.siaddr = server_config.siaddr.s_addr;
 338:C:/Users/stapi/OneDrive/Desktop/GD32VW553/GD32VW55X_Wifi_BLE_SDK/GD32VW55x_RELEASE_V1.0.2/MSDK/lwip/lwip-2.1.2/port\dhcpd.c ****         payload_out.giaddr = packetinfo->giaddr;
 339:C:/Users/stapi/OneDrive/Desktop/GD32VW553/GD32VW55X_Wifi_BLE_SDK/GD32VW55x_RELEASE_V1.0.2/MSDK/lwip/lwip-2.1.2/port\dhcpd.c ****         payload_out.cookie = htonl(DHCP_MAGIC);
 494              		.loc 1 339 30
 495 00ba 37558263 		li	a0,1669484544
 335:C:/Users/stapi/OneDrive/Desktop/GD32VW553/GD32VW55X_Wifi_BLE_SDK/GD32VW55x_RELEASE_V1.0.2/MSDK/lwip/lwip-2.1.2/port\dhcpd.c ****         payload_out.flags = packetinfo->flags;
 496              		.loc 1 335 39
 497 00be A207     		slli	a5,a5,8
 498 00c0 D98F     		or	a5,a5,a4
 335:C:/Users/stapi/OneDrive/Desktop/GD32VW553/GD32VW55X_Wifi_BLE_SDK/GD32VW55x_RELEASE_V1.0.2/MSDK/lwip/lwip-2.1.2/port\dhcpd.c ****         payload_out.flags = packetinfo->flags;
 499              		.loc 1 335 27
 500 00c2 2395F400 		sh	a5,10(s1)
 336:C:/Users/stapi/OneDrive/Desktop/GD32VW553/GD32VW55X_Wifi_BLE_SDK/GD32VW55x_RELEASE_V1.0.2/MSDK/lwip/lwip-2.1.2/port\dhcpd.c ****         payload_out.ciaddr = packetinfo->ciaddr;
 501              		.loc 1 336 9 is_stmt 1
 336:C:/Users/stapi/OneDrive/Desktop/GD32VW553/GD32VW55X_Wifi_BLE_SDK/GD32VW55x_RELEASE_V1.0.2/MSDK/lwip/lwip-2.1.2/port\dhcpd.c ****         payload_out.ciaddr = packetinfo->ciaddr;
 502              		.loc 1 336 40 is_stmt 0
 503 00c6 0347D400 		lbu	a4,13(s0)
 504 00ca 8347C400 		lbu	a5,12(s0)
 505              		.loc 1 339 30
 506 00ce 13053536 		addi	a0,a0,867
 336:C:/Users/stapi/OneDrive/Desktop/GD32VW553/GD32VW55X_Wifi_BLE_SDK/GD32VW55x_RELEASE_V1.0.2/MSDK/lwip/lwip-2.1.2/port\dhcpd.c ****         payload_out.ciaddr = packetinfo->ciaddr;
 507              		.loc 1 336 40
 508 00d2 2207     		slli	a4,a4,8
 509 00d4 5D8F     		or	a4,a4,a5
 510 00d6 8347E400 		lbu	a5,14(s0)
 511 00da C207     		slli	a5,a5,16
 512 00dc 5D8F     		or	a4,a5,a4
 513 00de 8347F400 		lbu	a5,15(s0)
 514 00e2 E207     		slli	a5,a5,24
 515 00e4 D98F     		or	a5,a5,a4
 336:C:/Users/stapi/OneDrive/Desktop/GD32VW553/GD32VW55X_Wifi_BLE_SDK/GD32VW55x_RELEASE_V1.0.2/MSDK/lwip/lwip-2.1.2/port\dhcpd.c ****         payload_out.ciaddr = packetinfo->ciaddr;
 516              		.loc 1 336 28
 517 00e6 DCC4     		sw	a5,12(s1)
 337:C:/Users/stapi/OneDrive/Desktop/GD32VW553/GD32VW55X_Wifi_BLE_SDK/GD32VW55x_RELEASE_V1.0.2/MSDK/lwip/lwip-2.1.2/port\dhcpd.c ****         payload_out.giaddr = packetinfo->giaddr;
 518              		.loc 1 337 9 is_stmt 1
 337:C:/Users/stapi/OneDrive/Desktop/GD32VW553/GD32VW55X_Wifi_BLE_SDK/GD32VW55x_RELEASE_V1.0.2/MSDK/lwip/lwip-2.1.2/port\dhcpd.c ****         payload_out.giaddr = packetinfo->giaddr;
 519              		.loc 1 337 28 is_stmt 0
 520 00e8 83278B03 		lw	a5,56(s6)
 521 00ec DCC8     		sw	a5,20(s1)
 338:C:/Users/stapi/OneDrive/Desktop/GD32VW553/GD32VW55X_Wifi_BLE_SDK/GD32VW55x_RELEASE_V1.0.2/MSDK/lwip/lwip-2.1.2/port\dhcpd.c ****         payload_out.cookie = htonl(DHCP_MAGIC);
 522              		.loc 1 338 9 is_stmt 1
 338:C:/Users/stapi/OneDrive/Desktop/GD32VW553/GD32VW55X_Wifi_BLE_SDK/GD32VW55x_RELEASE_V1.0.2/MSDK/lwip/lwip-2.1.2/port\dhcpd.c ****         payload_out.cookie = htonl(DHCP_MAGIC);
 523              		.loc 1 338 40 is_stmt 0
 524 00ee 03479401 		lbu	a4,25(s0)
 525 00f2 83478401 		lbu	a5,24(s0)
 526 00f6 2207     		slli	a4,a4,8
 527 00f8 5D8F     		or	a4,a4,a5
 528 00fa 8347A401 		lbu	a5,26(s0)
 529 00fe C207     		slli	a5,a5,16
 530 0100 5D8F     		or	a4,a5,a4
 531 0102 8347B401 		lbu	a5,27(s0)
 532 0106 E207     		slli	a5,a5,24
 533 0108 D98F     		or	a5,a5,a4
 338:C:/Users/stapi/OneDrive/Desktop/GD32VW553/GD32VW55X_Wifi_BLE_SDK/GD32VW55x_RELEASE_V1.0.2/MSDK/lwip/lwip-2.1.2/port\dhcpd.c ****         payload_out.cookie = htonl(DHCP_MAGIC);
 534              		.loc 1 338 28
 535 010a 9CCC     		sw	a5,24(s1)
 536              		.loc 1 339 9 is_stmt 1
 537              		.loc 1 339 30 is_stmt 0
 538 010c 97000000 		call	lwip_htonl
 538      E7800000 
 539              	.LVL51:
 340:C:/Users/stapi/OneDrive/Desktop/GD32VW553/GD32VW55X_Wifi_BLE_SDK/GD32VW55x_RELEASE_V1.0.2/MSDK/lwip/lwip-2.1.2/port\dhcpd.c ****         payload_out.options[0] = DHCP_END;
 540              		.loc 1 340 32
 541 0114 FD57     		li	a5,-1
 542 0116 2388F40E 		sb	a5,240(s1)
 341:C:/Users/stapi/OneDrive/Desktop/GD32VW553/GD32VW55X_Wifi_BLE_SDK/GD32VW55x_RELEASE_V1.0.2/MSDK/lwip/lwip-2.1.2/port\dhcpd.c ****         payload_out.yiaddr = lease->yiaddr.s_addr;
 543              		.loc 1 341 28
 544 011a 83270A01 		lw	a5,16(s4)
 339:C:/Users/stapi/OneDrive/Desktop/GD32VW553/GD32VW55X_Wifi_BLE_SDK/GD32VW55x_RELEASE_V1.0.2/MSDK/lwip/lwip-2.1.2/port\dhcpd.c ****         payload_out.options[0] = DHCP_END;
 545              		.loc 1 339 28
 546 011e 23A6A40E 		sw	a0,236(s1)
 340:C:/Users/stapi/OneDrive/Desktop/GD32VW553/GD32VW55X_Wifi_BLE_SDK/GD32VW55x_RELEASE_V1.0.2/MSDK/lwip/lwip-2.1.2/port\dhcpd.c ****         payload_out.options[0] = DHCP_END;
 547              		.loc 1 340 9 is_stmt 1
 548              		.loc 1 341 9
 342:C:/Users/stapi/OneDrive/Desktop/GD32VW553/GD32VW55X_Wifi_BLE_SDK/GD32VW55x_RELEASE_V1.0.2/MSDK/lwip/lwip-2.1.2/port\dhcpd.c ****         dhcpd_add_option(option, DHCP_MESSAGE_TYPE, sizeof(type), &type);
 549              		.loc 1 342 9 is_stmt 0
 550 0122 9306B102 		addi	a3,sp,43
 551 0126 0546     		li	a2,1
 552 0128 93055003 		li	a1,53
 553 012c 1305090F 		addi	a0,s2,%lo(.LANCHOR2+240)
 341:C:/Users/stapi/OneDrive/Desktop/GD32VW553/GD32VW55X_Wifi_BLE_SDK/GD32VW55x_RELEASE_V1.0.2/MSDK/lwip/lwip-2.1.2/port\dhcpd.c ****         payload_out.yiaddr = lease->yiaddr.s_addr;
 554              		.loc 1 341 28
 555 0130 9CC8     		sw	a5,16(s1)
 556              		.loc 1 342 9 is_stmt 1
 557 0132 97000000 		call	dhcpd_add_option.isra.0
 557      E7800000 
 558              	.LVL52:
 343:C:/Users/stapi/OneDrive/Desktop/GD32VW553/GD32VW55X_Wifi_BLE_SDK/GD32VW55x_RELEASE_V1.0.2/MSDK/lwip/lwip-2.1.2/port\dhcpd.c ****         dhcpd_add_option(option, DHCP_SERVER_ID, sizeof(server_config.server.s_addr), &server_confi
 559              		.loc 1 343 9
 560 013a 93860A00 		addi	a3,s5,%lo(.LANCHOR0)
 561 013e 1146     		li	a2,4
 562 0140 93056003 		li	a1,54
 563 0144 1305090F 		addi	a0,s2,%lo(.LANCHOR2+240)
 564 0148 97000000 		call	dhcpd_add_option.isra.0
 564      E7800000 
 565              	.LVL53:
 344:C:/Users/stapi/OneDrive/Desktop/GD32VW553/GD32VW55X_Wifi_BLE_SDK/GD32VW55x_RELEASE_V1.0.2/MSDK/lwip/lwip-2.1.2/port\dhcpd.c ****         dhcpd_add_option(option,DHCP_LEASE_TIME,sizeof(lease_time),&lease_time);
 566              		.loc 1 344 9
 567 0150 7410     		addi	a3,sp,44
 568 0152 1146     		li	a2,4
 569 0154 93053003 		li	a1,51
 570 0158 1305090F 		addi	a0,s2,%lo(.LANCHOR2+240)
 571 015c 97000000 		call	dhcpd_add_option.isra.0
 571      E7800000 
 572              	.LVL54:
 345:C:/Users/stapi/OneDrive/Desktop/GD32VW553/GD32VW55X_Wifi_BLE_SDK/GD32VW55x_RELEASE_V1.0.2/MSDK/lwip/lwip-2.1.2/port\dhcpd.c ****         dhcpd_add_option(option, DHCP_SUBNET, sizeof(server_config.mask.s_addr), &server_config.mas
 573              		.loc 1 345 9
 574 0164 93064B00 		addi	a3,s6,4
 575 0168 1146     		li	a2,4
 576 016a 8545     		li	a1,1
 577 016c 1305090F 		addi	a0,s2,%lo(.LANCHOR2+240)
 578 0170 97000000 		call	dhcpd_add_option.isra.0
 578      E7800000 
 579              	.LVL55:
 346:C:/Users/stapi/OneDrive/Desktop/GD32VW553/GD32VW55X_Wifi_BLE_SDK/GD32VW55x_RELEASE_V1.0.2/MSDK/lwip/lwip-2.1.2/port\dhcpd.c ****         dhcpd_add_option(option, DHCP_ROUTER, sizeof(server_config.server.s_addr), &server_config.s
 580              		.loc 1 346 9
 581 0178 93860A00 		addi	a3,s5,%lo(.LANCHOR0)
 582 017c 1146     		li	a2,4
 583 017e 8D45     		li	a1,3
 584 0180 1305090F 		addi	a0,s2,%lo(.LANCHOR2+240)
 585 0184 97000000 		call	dhcpd_add_option.isra.0
 585      E7800000 
 586              	.LVL56:
 347:C:/Users/stapi/OneDrive/Desktop/GD32VW553/GD32VW55X_Wifi_BLE_SDK/GD32VW55x_RELEASE_V1.0.2/MSDK/lwip/lwip-2.1.2/port\dhcpd.c ****         dhcpd_add_option(option, DHCP_DNS_SERVER, sizeof(server_config.server.s_addr), &server_conf
 587              		.loc 1 347 9
 588 018c 93860A00 		addi	a3,s5,%lo(.LANCHOR0)
 589 0190 1146     		li	a2,4
 590 0192 9945     		li	a1,6
 591 0194 1305090F 		addi	a0,s2,%lo(.LANCHOR2+240)
 592 0198 97000000 		call	dhcpd_add_option.isra.0
 592      E7800000 
 593              	.LVL57:
 348:C:/Users/stapi/OneDrive/Desktop/GD32VW553/GD32VW55X_Wifi_BLE_SDK/GD32VW55x_RELEASE_V1.0.2/MSDK/lwip/lwip-2.1.2/port\dhcpd.c ****         sys_memcpy(domain_name, DEFAULT_DOMAIN, sizeof(DEFAULT_DOMAIN));
 594              		.loc 1 348 9
 595 01a0 B7050000 		lui	a1,%hi(.LC0)
 596 01a4 5946     		li	a2,22
 597 01a6 93850500 		addi	a1,a1,%lo(.LC0)
 598 01aa 0818     		addi	a0,sp,48
 599 01ac 97000000 		call	sys_memcpy
 599      E7800000 
 600              	.LVL58:
 349:C:/Users/stapi/OneDrive/Desktop/GD32VW553/GD32VW55X_Wifi_BLE_SDK/GD32VW55x_RELEASE_V1.0.2/MSDK/lwip/lwip-2.1.2/port\dhcpd.c ****         dhcpd_add_option(option, DHCP_DOMAIN_NAME, strlen(domain_name), domain_name);
 601              		.loc 1 349 9
 602              		.loc 1 349 52 is_stmt 0
 603 01b4 0818     		addi	a0,sp,48
 604 01b6 97000000 		call	strlen
 604      E7800000 
 605              	.LVL59:
 606              		.loc 1 349 9
 607 01be 1376F50F 		andi	a2,a0,0xff
 608 01c2 1418     		addi	a3,sp,48
 609 01c4 BD45     		li	a1,15
 610 01c6 1305090F 		addi	a0,s2,%lo(.LANCHOR2+240)
 611 01ca 97000000 		call	dhcpd_add_option.isra.0
 611      E7800000 
 612              	.LVL60:
 350:C:/Users/stapi/OneDrive/Desktop/GD32VW553/GD32VW55X_Wifi_BLE_SDK/GD32VW55x_RELEASE_V1.0.2/MSDK/lwip/lwip-2.1.2/port\dhcpd.c ****         if (packetinfo->flags == 0) {
 613              		.loc 1 350 9 is_stmt 1
 614              		.loc 1 350 23 is_stmt 0
 615 01d2 8347B400 		lbu	a5,11(s0)
 616 01d6 0347A400 		lbu	a4,10(s0)
 617 01da A207     		slli	a5,a5,8
 618              		.loc 1 350 12
 619 01dc D98F     		or	a5,a5,a4
 620 01de 99E7     		bne	a5,zero,.L38
 351:C:/Users/stapi/OneDrive/Desktop/GD32VW553/GD32VW55X_Wifi_BLE_SDK/GD32VW55x_RELEASE_V1.0.2/MSDK/lwip/lwip-2.1.2/port\dhcpd.c **** #if LWIP_IPV6
 352:C:/Users/stapi/OneDrive/Desktop/GD32VW553/GD32VW55X_Wifi_BLE_SDK/GD32VW55x_RELEASE_V1.0.2/MSDK/lwip/lwip-2.1.2/port\dhcpd.c ****             destAddr.u_addr.ip4.addr = lease->yiaddr.s_addr;
 353:C:/Users/stapi/OneDrive/Desktop/GD32VW553/GD32VW55X_Wifi_BLE_SDK/GD32VW55x_RELEASE_V1.0.2/MSDK/lwip/lwip-2.1.2/port\dhcpd.c **** #else
 354:C:/Users/stapi/OneDrive/Desktop/GD32VW553/GD32VW55X_Wifi_BLE_SDK/GD32VW55x_RELEASE_V1.0.2/MSDK/lwip/lwip-2.1.2/port\dhcpd.c ****             destAddr.addr = lease->yiaddr.s_addr;
 621              		.loc 1 354 13 is_stmt 1
 622              		.loc 1 354 27 is_stmt 0
 623 01e0 03270A01 		lw	a4,16(s4)
 624 01e4 B7070000 		lui	a5,%hi(.LANCHOR3)
 625 01e8 23A0E700 		sw	a4,%lo(.LANCHOR3)(a5)
 626              	.L38:
 355:C:/Users/stapi/OneDrive/Desktop/GD32VW553/GD32VW55X_Wifi_BLE_SDK/GD32VW55x_RELEASE_V1.0.2/MSDK/lwip/lwip-2.1.2/port\dhcpd.c **** #endif
 356:C:/Users/stapi/OneDrive/Desktop/GD32VW553/GD32VW55X_Wifi_BLE_SDK/GD32VW55x_RELEASE_V1.0.2/MSDK/lwip/lwip-2.1.2/port\dhcpd.c ****         }
 357:C:/Users/stapi/OneDrive/Desktop/GD32VW553/GD32VW55X_Wifi_BLE_SDK/GD32VW55x_RELEASE_V1.0.2/MSDK/lwip/lwip-2.1.2/port\dhcpd.c **** 
 358:C:/Users/stapi/OneDrive/Desktop/GD32VW553/GD32VW55X_Wifi_BLE_SDK/GD32VW55x_RELEASE_V1.0.2/MSDK/lwip/lwip-2.1.2/port\dhcpd.c ****         if ((lease->flag & DELETED) != 0) {
 627              		.loc 1 358 9 is_stmt 1
 628              		.loc 1 358 19 is_stmt 0
 629 01ec 8347CA01 		lbu	a5,28(s4)
 630              		.loc 1 358 12
 631 01f0 13F78700 		andi	a4,a5,8
 632 01f4 01C7     		beq	a4,zero,.L39
 359:C:/Users/stapi/OneDrive/Desktop/GD32VW553/GD32VW55X_Wifi_BLE_SDK/GD32VW55x_RELEASE_V1.0.2/MSDK/lwip/lwip-2.1.2/port\dhcpd.c ****             lease->flag &= ~DELETED;
 633              		.loc 1 359 13 is_stmt 1
 634              		.loc 1 359 25 is_stmt 0
 635 01f6 DD9B     		andi	a5,a5,-9
 636 01f8 230EFA00 		sb	a5,28(s4)
 637              	.L39:
 360:C:/Users/stapi/OneDrive/Desktop/GD32VW553/GD32VW55X_Wifi_BLE_SDK/GD32VW55x_RELEASE_V1.0.2/MSDK/lwip/lwip-2.1.2/port\dhcpd.c ****         }
 361:C:/Users/stapi/OneDrive/Desktop/GD32VW553/GD32VW55X_Wifi_BLE_SDK/GD32VW55x_RELEASE_V1.0.2/MSDK/lwip/lwip-2.1.2/port\dhcpd.c **** 
 362:C:/Users/stapi/OneDrive/Desktop/GD32VW553/GD32VW55X_Wifi_BLE_SDK/GD32VW55x_RELEASE_V1.0.2/MSDK/lwip/lwip-2.1.2/port\dhcpd.c ****         dbg_print(NOTICE, "DHCPD: Assign %d.%d.%d.%d for %02x:%02x:%02x:%02x:%02x:%02x.\n\r\n",
 638              		.loc 1 362 9 is_stmt 1
 639              		.loc 1 362 9
 640 01fc B7070000 		lui	a5,%hi(global_debug_level)
 641 0200 03C70700 		lbu	a4,%lo(global_debug_level)(a5)
 642 0204 8947     		li	a5,2
 643 0206 63F6E704 		bleu	a4,a5,.L36
 644              		.loc 1 362 9
 645 020a 83471402 		lbu	a5,33(s0)
 646 020e 8C48     		lw	a1,16(s1)
 647 0210 8348E401 		lbu	a7,30(s0)
 648 0214 3EC4     		sw	a5,8(sp)
 649 0216 83470402 		lbu	a5,32(s0)
 650 021a 0348D401 		lbu	a6,29(s0)
 651 021e 93D60501 		srli	a3,a1,16
 652 0222 3EC2     		sw	a5,4(sp)
 653 0224 8347F401 		lbu	a5,31(s0)
 654 0228 13D68500 		srli	a2,a1,8
 655 022c 37050000 		lui	a0,%hi(.LC1)
 656 0230 3EC0     		sw	a5,0(sp)
 657 0232 8347C401 		lbu	a5,28(s0)
 658 0236 13D78501 		srli	a4,a1,24
 659 023a 93F6F60F 		andi	a3,a3,0xff
 660 023e 1376F60F 		andi	a2,a2,0xff
 661 0242 93F5F50F 		andi	a1,a1,0xff
 662 0246 13050500 		addi	a0,a0,%lo(.LC1)
 663 024a 97000000 		call	co_printf
 663      E7800000 
 664              	.LVL61:
 665              	.L36:
 363:C:/Users/stapi/OneDrive/Desktop/GD32VW553/GD32VW55X_Wifi_BLE_SDK/GD32VW55x_RELEASE_V1.0.2/MSDK/lwip/lwip-2.1.2/port\dhcpd.c ****             (uint32_t)(payload_out.yiaddr & 0xFF), (uint32_t)((payload_out.yiaddr >> 8) & 0xFF),
 364:C:/Users/stapi/OneDrive/Desktop/GD32VW553/GD32VW55X_Wifi_BLE_SDK/GD32VW55x_RELEASE_V1.0.2/MSDK/lwip/lwip-2.1.2/port\dhcpd.c ****             (uint32_t)((payload_out.yiaddr >> 16) & 0xFF), (uint32_t)(payload_out.yiaddr >> 24),
 365:C:/Users/stapi/OneDrive/Desktop/GD32VW553/GD32VW55X_Wifi_BLE_SDK/GD32VW55x_RELEASE_V1.0.2/MSDK/lwip/lwip-2.1.2/port\dhcpd.c ****             packetinfo->chaddr[0], packetinfo->chaddr[1], packetinfo->chaddr[2],
 366:C:/Users/stapi/OneDrive/Desktop/GD32VW553/GD32VW55X_Wifi_BLE_SDK/GD32VW55x_RELEASE_V1.0.2/MSDK/lwip/lwip-2.1.2/port\dhcpd.c ****             packetinfo->chaddr[3], packetinfo->chaddr[4], packetinfo->chaddr[5]);
 367:C:/Users/stapi/OneDrive/Desktop/GD32VW553/GD32VW55X_Wifi_BLE_SDK/GD32VW55x_RELEASE_V1.0.2/MSDK/lwip/lwip-2.1.2/port\dhcpd.c ****     } else {
 368:C:/Users/stapi/OneDrive/Desktop/GD32VW553/GD32VW55X_Wifi_BLE_SDK/GD32VW55x_RELEASE_V1.0.2/MSDK/lwip/lwip-2.1.2/port\dhcpd.c ****         type = DHCPNAK;
 369:C:/Users/stapi/OneDrive/Desktop/GD32VW553/GD32VW55X_Wifi_BLE_SDK/GD32VW55x_RELEASE_V1.0.2/MSDK/lwip/lwip-2.1.2/port\dhcpd.c ****         payload_out.op = BOOTREPLY;
 370:C:/Users/stapi/OneDrive/Desktop/GD32VW553/GD32VW55X_Wifi_BLE_SDK/GD32VW55x_RELEASE_V1.0.2/MSDK/lwip/lwip-2.1.2/port\dhcpd.c ****         payload_out.htype = ETH_10MB;
 371:C:/Users/stapi/OneDrive/Desktop/GD32VW553/GD32VW55X_Wifi_BLE_SDK/GD32VW55x_RELEASE_V1.0.2/MSDK/lwip/lwip-2.1.2/port\dhcpd.c ****         payload_out.hlen = ETH_10MB_LEN;
 372:C:/Users/stapi/OneDrive/Desktop/GD32VW553/GD32VW55X_Wifi_BLE_SDK/GD32VW55x_RELEASE_V1.0.2/MSDK/lwip/lwip-2.1.2/port\dhcpd.c ****         payload_out.xid = packetinfo->xid;
 373:C:/Users/stapi/OneDrive/Desktop/GD32VW553/GD32VW55X_Wifi_BLE_SDK/GD32VW55x_RELEASE_V1.0.2/MSDK/lwip/lwip-2.1.2/port\dhcpd.c ****         sys_memcpy(payload_out.chaddr, packetinfo->chaddr, 16);
 374:C:/Users/stapi/OneDrive/Desktop/GD32VW553/GD32VW55X_Wifi_BLE_SDK/GD32VW55x_RELEASE_V1.0.2/MSDK/lwip/lwip-2.1.2/port\dhcpd.c ****         payload_out.flags = 0x0; // force to static
 375:C:/Users/stapi/OneDrive/Desktop/GD32VW553/GD32VW55X_Wifi_BLE_SDK/GD32VW55x_RELEASE_V1.0.2/MSDK/lwip/lwip-2.1.2/port\dhcpd.c ****         payload_out.ciaddr = packetinfo->ciaddr;
 376:C:/Users/stapi/OneDrive/Desktop/GD32VW553/GD32VW55X_Wifi_BLE_SDK/GD32VW55x_RELEASE_V1.0.2/MSDK/lwip/lwip-2.1.2/port\dhcpd.c ****         payload_out.giaddr = packetinfo->giaddr;
 377:C:/Users/stapi/OneDrive/Desktop/GD32VW553/GD32VW55X_Wifi_BLE_SDK/GD32VW55x_RELEASE_V1.0.2/MSDK/lwip/lwip-2.1.2/port\dhcpd.c ****         payload_out.cookie = htonl(DHCP_MAGIC);
 378:C:/Users/stapi/OneDrive/Desktop/GD32VW553/GD32VW55X_Wifi_BLE_SDK/GD32VW55x_RELEASE_V1.0.2/MSDK/lwip/lwip-2.1.2/port\dhcpd.c ****         payload_out.options[0] = DHCP_END;
 379:C:/Users/stapi/OneDrive/Desktop/GD32VW553/GD32VW55X_Wifi_BLE_SDK/GD32VW55x_RELEASE_V1.0.2/MSDK/lwip/lwip-2.1.2/port\dhcpd.c ****         dhcpd_add_option(option, DHCP_MESSAGE_TYPE, sizeof(type), &type);
 380:C:/Users/stapi/OneDrive/Desktop/GD32VW553/GD32VW55X_Wifi_BLE_SDK/GD32VW55x_RELEASE_V1.0.2/MSDK/lwip/lwip-2.1.2/port\dhcpd.c ****         dhcpd_add_option(option, DHCP_SERVER_ID, sizeof(server_config.server.s_addr), &server_confi
 381:C:/Users/stapi/OneDrive/Desktop/GD32VW553/GD32VW55X_Wifi_BLE_SDK/GD32VW55x_RELEASE_V1.0.2/MSDK/lwip/lwip-2.1.2/port\dhcpd.c ****     }
 382:C:/Users/stapi/OneDrive/Desktop/GD32VW553/GD32VW55X_Wifi_BLE_SDK/GD32VW55x_RELEASE_V1.0.2/MSDK/lwip/lwip-2.1.2/port\dhcpd.c **** 
 383:C:/Users/stapi/OneDrive/Desktop/GD32VW553/GD32VW55X_Wifi_BLE_SDK/GD32VW55x_RELEASE_V1.0.2/MSDK/lwip/lwip-2.1.2/port\dhcpd.c ****     return 0;
 384:C:/Users/stapi/OneDrive/Desktop/GD32VW553/GD32VW55X_Wifi_BLE_SDK/GD32VW55x_RELEASE_V1.0.2/MSDK/lwip/lwip-2.1.2/port\dhcpd.c **** }
 666              		.loc 1 384 1 is_stmt 0
 667 0252 5561     		addi	sp,sp,304
 668              		.cfi_remember_state
 669              		.cfi_def_cfa_offset 0
 670 0254 17030000 		tail	__riscv_restore_7
 670      67000300 
 671              		.cfi_restore 22
 672              		.cfi_restore 21
 673              		.cfi_restore 20
 674              		.cfi_restore 19
 675              		.cfi_restore 18
 676              		.cfi_restore 9
 677              		.cfi_restore 8
 678              		.cfi_restore 1
 679              		.cfi_def_cfa_offset -32
 680              	.L37:
 681              		.cfi_restore_state
 682 025c 93890400 		addi	s3,s1,%lo(.LANCHOR2)
 368:C:/Users/stapi/OneDrive/Desktop/GD32VW553/GD32VW55X_Wifi_BLE_SDK/GD32VW55x_RELEASE_V1.0.2/MSDK/lwip/lwip-2.1.2/port\dhcpd.c ****         payload_out.op = BOOTREPLY;
 683              		.loc 1 368 9 is_stmt 1
 368:C:/Users/stapi/OneDrive/Desktop/GD32VW553/GD32VW55X_Wifi_BLE_SDK/GD32VW55x_RELEASE_V1.0.2/MSDK/lwip/lwip-2.1.2/port\dhcpd.c ****         payload_out.op = BOOTREPLY;
 684              		.loc 1 368 14 is_stmt 0
 685 0260 9947     		li	a5,6
 369:C:/Users/stapi/OneDrive/Desktop/GD32VW553/GD32VW55X_Wifi_BLE_SDK/GD32VW55x_RELEASE_V1.0.2/MSDK/lwip/lwip-2.1.2/port\dhcpd.c ****         payload_out.htype = ETH_10MB;
 686              		.loc 1 369 24
 687 0262 13072010 		li	a4,258
 688 0266 2390E900 		sh	a4,0(s3)
 371:C:/Users/stapi/OneDrive/Desktop/GD32VW553/GD32VW55X_Wifi_BLE_SDK/GD32VW55x_RELEASE_V1.0.2/MSDK/lwip/lwip-2.1.2/port\dhcpd.c ****         payload_out.xid = packetinfo->xid;
 689              		.loc 1 371 26
 690 026a 2381F900 		sb	a5,2(s3)
 372:C:/Users/stapi/OneDrive/Desktop/GD32VW553/GD32VW55X_Wifi_BLE_SDK/GD32VW55x_RELEASE_V1.0.2/MSDK/lwip/lwip-2.1.2/port\dhcpd.c ****         sys_memcpy(payload_out.chaddr, packetinfo->chaddr, 16);
 691              		.loc 1 372 37
 692 026e 03475400 		lbu	a4,5(s0)
 368:C:/Users/stapi/OneDrive/Desktop/GD32VW553/GD32VW55X_Wifi_BLE_SDK/GD32VW55x_RELEASE_V1.0.2/MSDK/lwip/lwip-2.1.2/port\dhcpd.c ****         payload_out.op = BOOTREPLY;
 693              		.loc 1 368 14
 694 0272 A305F102 		sb	a5,43(sp)
 369:C:/Users/stapi/OneDrive/Desktop/GD32VW553/GD32VW55X_Wifi_BLE_SDK/GD32VW55x_RELEASE_V1.0.2/MSDK/lwip/lwip-2.1.2/port\dhcpd.c ****         payload_out.htype = ETH_10MB;
 695              		.loc 1 369 9 is_stmt 1
 370:C:/Users/stapi/OneDrive/Desktop/GD32VW553/GD32VW55X_Wifi_BLE_SDK/GD32VW55x_RELEASE_V1.0.2/MSDK/lwip/lwip-2.1.2/port\dhcpd.c ****         payload_out.hlen = ETH_10MB_LEN;
 696              		.loc 1 370 9
 371:C:/Users/stapi/OneDrive/Desktop/GD32VW553/GD32VW55X_Wifi_BLE_SDK/GD32VW55x_RELEASE_V1.0.2/MSDK/lwip/lwip-2.1.2/port\dhcpd.c ****         payload_out.xid = packetinfo->xid;
 697              		.loc 1 371 9
 372:C:/Users/stapi/OneDrive/Desktop/GD32VW553/GD32VW55X_Wifi_BLE_SDK/GD32VW55x_RELEASE_V1.0.2/MSDK/lwip/lwip-2.1.2/port\dhcpd.c ****         sys_memcpy(payload_out.chaddr, packetinfo->chaddr, 16);
 698              		.loc 1 372 9
 372:C:/Users/stapi/OneDrive/Desktop/GD32VW553/GD32VW55X_Wifi_BLE_SDK/GD32VW55x_RELEASE_V1.0.2/MSDK/lwip/lwip-2.1.2/port\dhcpd.c ****         sys_memcpy(payload_out.chaddr, packetinfo->chaddr, 16);
 699              		.loc 1 372 37 is_stmt 0
 700 0276 83474400 		lbu	a5,4(s0)
 701 027a 2207     		slli	a4,a4,8
 373:C:/Users/stapi/OneDrive/Desktop/GD32VW553/GD32VW55X_Wifi_BLE_SDK/GD32VW55x_RELEASE_V1.0.2/MSDK/lwip/lwip-2.1.2/port\dhcpd.c ****         payload_out.flags = 0x0; // force to static
 702              		.loc 1 373 9
 703 027c 4146     		li	a2,16
 372:C:/Users/stapi/OneDrive/Desktop/GD32VW553/GD32VW55X_Wifi_BLE_SDK/GD32VW55x_RELEASE_V1.0.2/MSDK/lwip/lwip-2.1.2/port\dhcpd.c ****         sys_memcpy(payload_out.chaddr, packetinfo->chaddr, 16);
 704              		.loc 1 372 37
 705 027e 5D8F     		or	a4,a4,a5
 706 0280 83476400 		lbu	a5,6(s0)
 373:C:/Users/stapi/OneDrive/Desktop/GD32VW553/GD32VW55X_Wifi_BLE_SDK/GD32VW55x_RELEASE_V1.0.2/MSDK/lwip/lwip-2.1.2/port\dhcpd.c ****         payload_out.flags = 0x0; // force to static
 707              		.loc 1 373 9
 708 0284 1305C501 		addi	a0,a0,%lo(.LANCHOR2+28)
 372:C:/Users/stapi/OneDrive/Desktop/GD32VW553/GD32VW55X_Wifi_BLE_SDK/GD32VW55x_RELEASE_V1.0.2/MSDK/lwip/lwip-2.1.2/port\dhcpd.c ****         sys_memcpy(payload_out.chaddr, packetinfo->chaddr, 16);
 709              		.loc 1 372 37
 710 0288 C207     		slli	a5,a5,16
 711 028a 5D8F     		or	a4,a5,a4
 712 028c 83477400 		lbu	a5,7(s0)
 713 0290 E207     		slli	a5,a5,24
 714 0292 D98F     		or	a5,a5,a4
 372:C:/Users/stapi/OneDrive/Desktop/GD32VW553/GD32VW55X_Wifi_BLE_SDK/GD32VW55x_RELEASE_V1.0.2/MSDK/lwip/lwip-2.1.2/port\dhcpd.c ****         sys_memcpy(payload_out.chaddr, packetinfo->chaddr, 16);
 715              		.loc 1 372 25
 716 0294 23A2F900 		sw	a5,4(s3)
 373:C:/Users/stapi/OneDrive/Desktop/GD32VW553/GD32VW55X_Wifi_BLE_SDK/GD32VW55x_RELEASE_V1.0.2/MSDK/lwip/lwip-2.1.2/port\dhcpd.c ****         payload_out.flags = 0x0; // force to static
 717              		.loc 1 373 9 is_stmt 1
 718 0298 97000000 		call	sys_memcpy
 718      E7800000 
 719              	.LVL62:
 374:C:/Users/stapi/OneDrive/Desktop/GD32VW553/GD32VW55X_Wifi_BLE_SDK/GD32VW55x_RELEASE_V1.0.2/MSDK/lwip/lwip-2.1.2/port\dhcpd.c ****         payload_out.ciaddr = packetinfo->ciaddr;
 720              		.loc 1 374 9
 374:C:/Users/stapi/OneDrive/Desktop/GD32VW553/GD32VW55X_Wifi_BLE_SDK/GD32VW55x_RELEASE_V1.0.2/MSDK/lwip/lwip-2.1.2/port\dhcpd.c ****         payload_out.ciaddr = packetinfo->ciaddr;
 721              		.loc 1 374 27 is_stmt 0
 722 02a0 23950900 		sh	zero,10(s3)
 375:C:/Users/stapi/OneDrive/Desktop/GD32VW553/GD32VW55X_Wifi_BLE_SDK/GD32VW55x_RELEASE_V1.0.2/MSDK/lwip/lwip-2.1.2/port\dhcpd.c ****         payload_out.giaddr = packetinfo->giaddr;
 723              		.loc 1 375 9 is_stmt 1
 375:C:/Users/stapi/OneDrive/Desktop/GD32VW553/GD32VW55X_Wifi_BLE_SDK/GD32VW55x_RELEASE_V1.0.2/MSDK/lwip/lwip-2.1.2/port\dhcpd.c ****         payload_out.giaddr = packetinfo->giaddr;
 724              		.loc 1 375 40 is_stmt 0
 725 02a4 0347D400 		lbu	a4,13(s0)
 726 02a8 8347C400 		lbu	a5,12(s0)
 377:C:/Users/stapi/OneDrive/Desktop/GD32VW553/GD32VW55X_Wifi_BLE_SDK/GD32VW55x_RELEASE_V1.0.2/MSDK/lwip/lwip-2.1.2/port\dhcpd.c ****         payload_out.options[0] = DHCP_END;
 727              		.loc 1 377 30
 728 02ac 37558263 		li	a0,1669484544
 375:C:/Users/stapi/OneDrive/Desktop/GD32VW553/GD32VW55X_Wifi_BLE_SDK/GD32VW55x_RELEASE_V1.0.2/MSDK/lwip/lwip-2.1.2/port\dhcpd.c ****         payload_out.giaddr = packetinfo->giaddr;
 729              		.loc 1 375 40
 730 02b0 2207     		slli	a4,a4,8
 731 02b2 5D8F     		or	a4,a4,a5
 732 02b4 8347E400 		lbu	a5,14(s0)
 377:C:/Users/stapi/OneDrive/Desktop/GD32VW553/GD32VW55X_Wifi_BLE_SDK/GD32VW55x_RELEASE_V1.0.2/MSDK/lwip/lwip-2.1.2/port\dhcpd.c ****         payload_out.options[0] = DHCP_END;
 733              		.loc 1 377 30
 734 02b8 13053536 		addi	a0,a0,867
 375:C:/Users/stapi/OneDrive/Desktop/GD32VW553/GD32VW55X_Wifi_BLE_SDK/GD32VW55x_RELEASE_V1.0.2/MSDK/lwip/lwip-2.1.2/port\dhcpd.c ****         payload_out.giaddr = packetinfo->giaddr;
 735              		.loc 1 375 40
 736 02bc C207     		slli	a5,a5,16
 737 02be 5D8F     		or	a4,a5,a4
 738 02c0 8347F400 		lbu	a5,15(s0)
 739 02c4 E207     		slli	a5,a5,24
 740 02c6 D98F     		or	a5,a5,a4
 375:C:/Users/stapi/OneDrive/Desktop/GD32VW553/GD32VW55X_Wifi_BLE_SDK/GD32VW55x_RELEASE_V1.0.2/MSDK/lwip/lwip-2.1.2/port\dhcpd.c ****         payload_out.giaddr = packetinfo->giaddr;
 741              		.loc 1 375 28
 742 02c8 23A6F900 		sw	a5,12(s3)
 376:C:/Users/stapi/OneDrive/Desktop/GD32VW553/GD32VW55X_Wifi_BLE_SDK/GD32VW55x_RELEASE_V1.0.2/MSDK/lwip/lwip-2.1.2/port\dhcpd.c ****         payload_out.cookie = htonl(DHCP_MAGIC);
 743              		.loc 1 376 9 is_stmt 1
 376:C:/Users/stapi/OneDrive/Desktop/GD32VW553/GD32VW55X_Wifi_BLE_SDK/GD32VW55x_RELEASE_V1.0.2/MSDK/lwip/lwip-2.1.2/port\dhcpd.c ****         payload_out.cookie = htonl(DHCP_MAGIC);
 744              		.loc 1 376 40 is_stmt 0
 745 02cc 03479401 		lbu	a4,25(s0)
 746 02d0 83478401 		lbu	a5,24(s0)
 747 02d4 2207     		slli	a4,a4,8
 748 02d6 5D8F     		or	a4,a4,a5
 749 02d8 8347A401 		lbu	a5,26(s0)
 750 02dc C207     		slli	a5,a5,16
 751 02de 5D8F     		or	a4,a5,a4
 752 02e0 8347B401 		lbu	a5,27(s0)
 753 02e4 E207     		slli	a5,a5,24
 754 02e6 D98F     		or	a5,a5,a4
 376:C:/Users/stapi/OneDrive/Desktop/GD32VW553/GD32VW55X_Wifi_BLE_SDK/GD32VW55x_RELEASE_V1.0.2/MSDK/lwip/lwip-2.1.2/port\dhcpd.c ****         payload_out.cookie = htonl(DHCP_MAGIC);
 755              		.loc 1 376 28
 756 02e8 23ACF900 		sw	a5,24(s3)
 377:C:/Users/stapi/OneDrive/Desktop/GD32VW553/GD32VW55X_Wifi_BLE_SDK/GD32VW55x_RELEASE_V1.0.2/MSDK/lwip/lwip-2.1.2/port\dhcpd.c ****         payload_out.options[0] = DHCP_END;
 757              		.loc 1 377 9 is_stmt 1
 377:C:/Users/stapi/OneDrive/Desktop/GD32VW553/GD32VW55X_Wifi_BLE_SDK/GD32VW55x_RELEASE_V1.0.2/MSDK/lwip/lwip-2.1.2/port\dhcpd.c ****         payload_out.options[0] = DHCP_END;
 758              		.loc 1 377 30 is_stmt 0
 759 02ec 97000000 		call	lwip_htonl
 759      E7800000 
 760              	.LVL63:
 377:C:/Users/stapi/OneDrive/Desktop/GD32VW553/GD32VW55X_Wifi_BLE_SDK/GD32VW55x_RELEASE_V1.0.2/MSDK/lwip/lwip-2.1.2/port\dhcpd.c ****         payload_out.options[0] = DHCP_END;
 761              		.loc 1 377 28
 762 02f4 23A6A90E 		sw	a0,236(s3)
 378:C:/Users/stapi/OneDrive/Desktop/GD32VW553/GD32VW55X_Wifi_BLE_SDK/GD32VW55x_RELEASE_V1.0.2/MSDK/lwip/lwip-2.1.2/port\dhcpd.c ****         dhcpd_add_option(option, DHCP_MESSAGE_TYPE, sizeof(type), &type);
 763              		.loc 1 378 9 is_stmt 1
 378:C:/Users/stapi/OneDrive/Desktop/GD32VW553/GD32VW55X_Wifi_BLE_SDK/GD32VW55x_RELEASE_V1.0.2/MSDK/lwip/lwip-2.1.2/port\dhcpd.c ****         dhcpd_add_option(option, DHCP_MESSAGE_TYPE, sizeof(type), &type);
 764              		.loc 1 378 32 is_stmt 0
 765 02f8 FD57     		li	a5,-1
 379:C:/Users/stapi/OneDrive/Desktop/GD32VW553/GD32VW55X_Wifi_BLE_SDK/GD32VW55x_RELEASE_V1.0.2/MSDK/lwip/lwip-2.1.2/port\dhcpd.c ****         dhcpd_add_option(option, DHCP_SERVER_ID, sizeof(server_config.server.s_addr), &server_confi
 766              		.loc 1 379 9
 767 02fa 9306B102 		addi	a3,sp,43
 768 02fe 1305090F 		addi	a0,s2,%lo(.LANCHOR2+240)
 769 0302 0546     		li	a2,1
 770 0304 93055003 		li	a1,53
 378:C:/Users/stapi/OneDrive/Desktop/GD32VW553/GD32VW55X_Wifi_BLE_SDK/GD32VW55x_RELEASE_V1.0.2/MSDK/lwip/lwip-2.1.2/port\dhcpd.c ****         dhcpd_add_option(option, DHCP_MESSAGE_TYPE, sizeof(type), &type);
 771              		.loc 1 378 32
 772 0308 2388F90E 		sb	a5,240(s3)
 379:C:/Users/stapi/OneDrive/Desktop/GD32VW553/GD32VW55X_Wifi_BLE_SDK/GD32VW55x_RELEASE_V1.0.2/MSDK/lwip/lwip-2.1.2/port\dhcpd.c ****         dhcpd_add_option(option, DHCP_SERVER_ID, sizeof(server_config.server.s_addr), &server_confi
 773              		.loc 1 379 9 is_stmt 1
 774 030c 97000000 		call	dhcpd_add_option.isra.0
 774      E7800000 
 775              	.LVL64:
 380:C:/Users/stapi/OneDrive/Desktop/GD32VW553/GD32VW55X_Wifi_BLE_SDK/GD32VW55x_RELEASE_V1.0.2/MSDK/lwip/lwip-2.1.2/port\dhcpd.c ****     }
 776              		.loc 1 380 9
 777 0314 93860A00 		addi	a3,s5,%lo(.LANCHOR0)
 778 0318 1146     		li	a2,4
 779 031a 93056003 		li	a1,54
 780 031e 1305090F 		addi	a0,s2,%lo(.LANCHOR2+240)
 781 0322 97000000 		call	dhcpd_add_option.isra.0
 781      E7800000 
 782              	.LVL65:
 383:C:/Users/stapi/OneDrive/Desktop/GD32VW553/GD32VW55X_Wifi_BLE_SDK/GD32VW55x_RELEASE_V1.0.2/MSDK/lwip/lwip-2.1.2/port\dhcpd.c **** }
 783              		.loc 1 383 5
 383:C:/Users/stapi/OneDrive/Desktop/GD32VW553/GD32VW55X_Wifi_BLE_SDK/GD32VW55x_RELEASE_V1.0.2/MSDK/lwip/lwip-2.1.2/port\dhcpd.c **** }
 784              		.loc 1 383 12 is_stmt 0
 785 032a 25B7     		j	.L36
 786              		.cfi_endproc
 787              	.LFE24:
 789              		.section	.text.make_dhcpd_packet.constprop.0,"ax",@progbits
 790              		.align	1
 792              	make_dhcpd_packet.constprop.0:
 793              	.LFB26:
 232:C:/Users/stapi/OneDrive/Desktop/GD32VW553/GD32VW55X_Wifi_BLE_SDK/GD32VW55x_RELEASE_V1.0.2/MSDK/lwip/lwip-2.1.2/port\dhcpd.c **** {
 794              		.loc 1 232 13 is_stmt 1
 795              		.cfi_startproc
 796              	.LVL66:
 797 0000 17030000 		call	t0,__riscv_save_4
 797      E7020300 
 798              		.cfi_offset 19, -20
 799              		.cfi_offset 18, -16
 800              		.cfi_offset 9, -12
 801              		.cfi_offset 8, -8
 802              		.cfi_offset 1, -4
 803              		.cfi_def_cfa_offset 32
 234:C:/Users/stapi/OneDrive/Desktop/GD32VW553/GD32VW55X_Wifi_BLE_SDK/GD32VW55x_RELEASE_V1.0.2/MSDK/lwip/lwip-2.1.2/port\dhcpd.c ****     //uint32_t dns_server = 0;
 804              		.loc 1 234 40 is_stmt 0
 805 0008 37090000 		lui	s2,%hi(.LANCHOR0)
 806 000c 93090900 		addi	s3,s2,%lo(.LANCHOR0)
 807 0010 03A4C901 		lw	s0,28(s3)
 232:C:/Users/stapi/OneDrive/Desktop/GD32VW553/GD32VW55X_Wifi_BLE_SDK/GD32VW55x_RELEASE_V1.0.2/MSDK/lwip/lwip-2.1.2/port\dhcpd.c **** {
 808              		.loc 1 232 13
 809 0014 6D71     		addi	sp,sp,-272
 810              		.cfi_def_cfa_offset 304
 232:C:/Users/stapi/OneDrive/Desktop/GD32VW553/GD32VW55X_Wifi_BLE_SDK/GD32VW55x_RELEASE_V1.0.2/MSDK/lwip/lwip-2.1.2/port\dhcpd.c **** {
 811              		.loc 1 232 13
 812 0016 AA84     		mv	s1,a0
 813 0018 8947     		li	a5,2
 237:C:/Users/stapi/OneDrive/Desktop/GD32VW553/GD32VW55X_Wifi_BLE_SDK/GD32VW55x_RELEASE_V1.0.2/MSDK/lwip/lwip-2.1.2/port\dhcpd.c ****     lease_time = htonl(lease_time);
 814              		.loc 1 237 10
 815 001a 1306B00F 		li	a2,251
 816 001e 8145     		li	a1,0
 817 0020 4808     		addi	a0,sp,20
 818              	.LVL67:
 819 0022 A305F100 		sb	a5,11(sp)
 820              	.LVL68:
 234:C:/Users/stapi/OneDrive/Desktop/GD32VW553/GD32VW55X_Wifi_BLE_SDK/GD32VW55x_RELEASE_V1.0.2/MSDK/lwip/lwip-2.1.2/port\dhcpd.c ****     //uint32_t dns_server = 0;
 821              		.loc 1 234 5 is_stmt 1
 234:C:/Users/stapi/OneDrive/Desktop/GD32VW553/GD32VW55X_Wifi_BLE_SDK/GD32VW55x_RELEASE_V1.0.2/MSDK/lwip/lwip-2.1.2/port\dhcpd.c ****     //uint32_t dns_server = 0;
 822              		.loc 1 234 14 is_stmt 0
 823 0026 22C6     		sw	s0,12(sp)
 236:C:/Users/stapi/OneDrive/Desktop/GD32VW553/GD32VW55X_Wifi_BLE_SDK/GD32VW55x_RELEASE_V1.0.2/MSDK/lwip/lwip-2.1.2/port\dhcpd.c ****     char domain_name[255] = {0};
 824              		.loc 1 236 5 is_stmt 1
 825              	.LVL69:
 237:C:/Users/stapi/OneDrive/Desktop/GD32VW553/GD32VW55X_Wifi_BLE_SDK/GD32VW55x_RELEASE_V1.0.2/MSDK/lwip/lwip-2.1.2/port\dhcpd.c ****     lease_time = htonl(lease_time);
 826              		.loc 1 237 5
 237:C:/Users/stapi/OneDrive/Desktop/GD32VW553/GD32VW55X_Wifi_BLE_SDK/GD32VW55x_RELEASE_V1.0.2/MSDK/lwip/lwip-2.1.2/port\dhcpd.c ****     lease_time = htonl(lease_time);
 827              		.loc 1 237 10 is_stmt 0
 828 0028 02C8     		sw	zero,16(sp)
 829 002a 97000000 		call	memset
 829      E7800000 
 830              	.LVL70:
 238:C:/Users/stapi/OneDrive/Desktop/GD32VW553/GD32VW55X_Wifi_BLE_SDK/GD32VW55x_RELEASE_V1.0.2/MSDK/lwip/lwip-2.1.2/port\dhcpd.c ****     memset(packet, 0, sizeof(struct dhcpd));
 831              		.loc 1 238 5 is_stmt 1
 238:C:/Users/stapi/OneDrive/Desktop/GD32VW553/GD32VW55X_Wifi_BLE_SDK/GD32VW55x_RELEASE_V1.0.2/MSDK/lwip/lwip-2.1.2/port\dhcpd.c ****     memset(packet, 0, sizeof(struct dhcpd));
 832              		.loc 1 238 18 is_stmt 0
 833 0032 2285     		mv	a0,s0
 834 0034 97000000 		call	lwip_htonl
 834      E7800000 
 835              	.LVL71:
 238:C:/Users/stapi/OneDrive/Desktop/GD32VW553/GD32VW55X_Wifi_BLE_SDK/GD32VW55x_RELEASE_V1.0.2/MSDK/lwip/lwip-2.1.2/port\dhcpd.c ****     memset(packet, 0, sizeof(struct dhcpd));
 836              		.loc 1 238 16
 837 003c 2AC6     		sw	a0,12(sp)
 239:C:/Users/stapi/OneDrive/Desktop/GD32VW553/GD32VW55X_Wifi_BLE_SDK/GD32VW55x_RELEASE_V1.0.2/MSDK/lwip/lwip-2.1.2/port\dhcpd.c ****     packet->op = BOOTREPLY;
 838              		.loc 1 239 5 is_stmt 1
 839 003e 37050000 		lui	a0,%hi(.LANCHOR2)
 840 0042 13040500 		addi	s0,a0,%lo(.LANCHOR2)
 841 0046 13064022 		li	a2,548
 842 004a 8145     		li	a1,0
 843 004c 13050500 		addi	a0,a0,%lo(.LANCHOR2)
 844 0050 97000000 		call	memset
 844      E7800000 
 845              	.LVL72:
 240:C:/Users/stapi/OneDrive/Desktop/GD32VW553/GD32VW55X_Wifi_BLE_SDK/GD32VW55x_RELEASE_V1.0.2/MSDK/lwip/lwip-2.1.2/port\dhcpd.c ****     packet->htype = ETH_10MB;
 846              		.loc 1 240 5
 241:C:/Users/stapi/OneDrive/Desktop/GD32VW553/GD32VW55X_Wifi_BLE_SDK/GD32VW55x_RELEASE_V1.0.2/MSDK/lwip/lwip-2.1.2/port\dhcpd.c ****     packet->hlen = ETH_10MB_LEN;
 847              		.loc 1 241 5
 242:C:/Users/stapi/OneDrive/Desktop/GD32VW553/GD32VW55X_Wifi_BLE_SDK/GD32VW55x_RELEASE_V1.0.2/MSDK/lwip/lwip-2.1.2/port\dhcpd.c ****     packet->xid = oldpacket->xid;
 848              		.loc 1 242 5
 240:C:/Users/stapi/OneDrive/Desktop/GD32VW553/GD32VW55X_Wifi_BLE_SDK/GD32VW55x_RELEASE_V1.0.2/MSDK/lwip/lwip-2.1.2/port\dhcpd.c ****     packet->htype = ETH_10MB;
 849              		.loc 1 240 16 is_stmt 0
 850 0058 93072010 		li	a5,258
 851 005c 2310F400 		sh	a5,0(s0)
 242:C:/Users/stapi/OneDrive/Desktop/GD32VW553/GD32VW55X_Wifi_BLE_SDK/GD32VW55x_RELEASE_V1.0.2/MSDK/lwip/lwip-2.1.2/port\dhcpd.c ****     packet->xid = oldpacket->xid;
 852              		.loc 1 242 18
 853 0060 9947     		li	a5,6
 854 0062 2301F400 		sb	a5,2(s0)
 243:C:/Users/stapi/OneDrive/Desktop/GD32VW553/GD32VW55X_Wifi_BLE_SDK/GD32VW55x_RELEASE_V1.0.2/MSDK/lwip/lwip-2.1.2/port\dhcpd.c ****     sys_memcpy(packet->chaddr, oldpacket->chaddr, 16);
 855              		.loc 1 243 5 is_stmt 1
 243:C:/Users/stapi/OneDrive/Desktop/GD32VW553/GD32VW55X_Wifi_BLE_SDK/GD32VW55x_RELEASE_V1.0.2/MSDK/lwip/lwip-2.1.2/port\dhcpd.c ****     sys_memcpy(packet->chaddr, oldpacket->chaddr, 16);
 856              		.loc 1 243 28 is_stmt 0
 857 0066 03C75400 		lbu	a4,5(s1)
 858 006a 83C74400 		lbu	a5,4(s1)
 244:C:/Users/stapi/OneDrive/Desktop/GD32VW553/GD32VW55X_Wifi_BLE_SDK/GD32VW55x_RELEASE_V1.0.2/MSDK/lwip/lwip-2.1.2/port\dhcpd.c ****     packet->flags = oldpacket->flags;
 859              		.loc 1 244 5
 860 006e 9385C401 		addi	a1,s1,28
 243:C:/Users/stapi/OneDrive/Desktop/GD32VW553/GD32VW55X_Wifi_BLE_SDK/GD32VW55x_RELEASE_V1.0.2/MSDK/lwip/lwip-2.1.2/port\dhcpd.c ****     sys_memcpy(packet->chaddr, oldpacket->chaddr, 16);
 861              		.loc 1 243 28
 862 0072 2207     		slli	a4,a4,8
 863 0074 5D8F     		or	a4,a4,a5
 864 0076 83C76400 		lbu	a5,6(s1)
 244:C:/Users/stapi/OneDrive/Desktop/GD32VW553/GD32VW55X_Wifi_BLE_SDK/GD32VW55x_RELEASE_V1.0.2/MSDK/lwip/lwip-2.1.2/port\dhcpd.c ****     packet->flags = oldpacket->flags;
 865              		.loc 1 244 5
 866 007a 4146     		li	a2,16
 867 007c 1305C401 		addi	a0,s0,28
 243:C:/Users/stapi/OneDrive/Desktop/GD32VW553/GD32VW55X_Wifi_BLE_SDK/GD32VW55x_RELEASE_V1.0.2/MSDK/lwip/lwip-2.1.2/port\dhcpd.c ****     sys_memcpy(packet->chaddr, oldpacket->chaddr, 16);
 868              		.loc 1 243 28
 869 0080 C207     		slli	a5,a5,16
 870 0082 5D8F     		or	a4,a5,a4
 871 0084 83C77400 		lbu	a5,7(s1)
 872 0088 E207     		slli	a5,a5,24
 873 008a D98F     		or	a5,a5,a4
 243:C:/Users/stapi/OneDrive/Desktop/GD32VW553/GD32VW55X_Wifi_BLE_SDK/GD32VW55x_RELEASE_V1.0.2/MSDK/lwip/lwip-2.1.2/port\dhcpd.c ****     sys_memcpy(packet->chaddr, oldpacket->chaddr, 16);
 874              		.loc 1 243 17
 875 008c 5CC0     		sw	a5,4(s0)
 244:C:/Users/stapi/OneDrive/Desktop/GD32VW553/GD32VW55X_Wifi_BLE_SDK/GD32VW55x_RELEASE_V1.0.2/MSDK/lwip/lwip-2.1.2/port\dhcpd.c ****     packet->flags = oldpacket->flags;
 876              		.loc 1 244 5 is_stmt 1
 877 008e 97000000 		call	sys_memcpy
 877      E7800000 
 878              	.LVL73:
 245:C:/Users/stapi/OneDrive/Desktop/GD32VW553/GD32VW55X_Wifi_BLE_SDK/GD32VW55x_RELEASE_V1.0.2/MSDK/lwip/lwip-2.1.2/port\dhcpd.c ****     packet->ciaddr = oldpacket->ciaddr;
 879              		.loc 1 245 5
 245:C:/Users/stapi/OneDrive/Desktop/GD32VW553/GD32VW55X_Wifi_BLE_SDK/GD32VW55x_RELEASE_V1.0.2/MSDK/lwip/lwip-2.1.2/port\dhcpd.c ****     packet->ciaddr = oldpacket->ciaddr;
 880              		.loc 1 245 30 is_stmt 0
 881 0096 83C7B400 		lbu	a5,11(s1)
 882 009a 03C7A400 		lbu	a4,10(s1)
 249:C:/Users/stapi/OneDrive/Desktop/GD32VW553/GD32VW55X_Wifi_BLE_SDK/GD32VW55x_RELEASE_V1.0.2/MSDK/lwip/lwip-2.1.2/port\dhcpd.c ****     packet->options[0] = DHCP_END;
 883              		.loc 1 249 22
 884 009e 37558263 		li	a0,1669484544
 245:C:/Users/stapi/OneDrive/Desktop/GD32VW553/GD32VW55X_Wifi_BLE_SDK/GD32VW55x_RELEASE_V1.0.2/MSDK/lwip/lwip-2.1.2/port\dhcpd.c ****     packet->ciaddr = oldpacket->ciaddr;
 885              		.loc 1 245 30
 886 00a2 A207     		slli	a5,a5,8
 887 00a4 D98F     		or	a5,a5,a4
 245:C:/Users/stapi/OneDrive/Desktop/GD32VW553/GD32VW55X_Wifi_BLE_SDK/GD32VW55x_RELEASE_V1.0.2/MSDK/lwip/lwip-2.1.2/port\dhcpd.c ****     packet->ciaddr = oldpacket->ciaddr;
 888              		.loc 1 245 19
 889 00a6 2315F400 		sh	a5,10(s0)
 246:C:/Users/stapi/OneDrive/Desktop/GD32VW553/GD32VW55X_Wifi_BLE_SDK/GD32VW55x_RELEASE_V1.0.2/MSDK/lwip/lwip-2.1.2/port\dhcpd.c ****     packet->siaddr = server_config.siaddr.s_addr;
 890              		.loc 1 246 5 is_stmt 1
 246:C:/Users/stapi/OneDrive/Desktop/GD32VW553/GD32VW55X_Wifi_BLE_SDK/GD32VW55x_RELEASE_V1.0.2/MSDK/lwip/lwip-2.1.2/port\dhcpd.c ****     packet->siaddr = server_config.siaddr.s_addr;
 891              		.loc 1 246 31 is_stmt 0
 892 00aa 03C7D400 		lbu	a4,13(s1)
 893 00ae 83C7C400 		lbu	a5,12(s1)
 249:C:/Users/stapi/OneDrive/Desktop/GD32VW553/GD32VW55X_Wifi_BLE_SDK/GD32VW55x_RELEASE_V1.0.2/MSDK/lwip/lwip-2.1.2/port\dhcpd.c ****     packet->options[0] = DHCP_END;
 894              		.loc 1 249 22
 895 00b2 13053536 		addi	a0,a0,867
 246:C:/Users/stapi/OneDrive/Desktop/GD32VW553/GD32VW55X_Wifi_BLE_SDK/GD32VW55x_RELEASE_V1.0.2/MSDK/lwip/lwip-2.1.2/port\dhcpd.c ****     packet->siaddr = server_config.siaddr.s_addr;
 896              		.loc 1 246 31
 897 00b6 2207     		slli	a4,a4,8
 898 00b8 5D8F     		or	a4,a4,a5
 899 00ba 83C7E400 		lbu	a5,14(s1)
 900 00be C207     		slli	a5,a5,16
 901 00c0 5D8F     		or	a4,a5,a4
 902 00c2 83C7F400 		lbu	a5,15(s1)
 903 00c6 E207     		slli	a5,a5,24
 904 00c8 D98F     		or	a5,a5,a4
 246:C:/Users/stapi/OneDrive/Desktop/GD32VW553/GD32VW55X_Wifi_BLE_SDK/GD32VW55x_RELEASE_V1.0.2/MSDK/lwip/lwip-2.1.2/port\dhcpd.c ****     packet->siaddr = server_config.siaddr.s_addr;
 905              		.loc 1 246 20
 906 00ca 5CC4     		sw	a5,12(s0)
 247:C:/Users/stapi/OneDrive/Desktop/GD32VW553/GD32VW55X_Wifi_BLE_SDK/GD32VW55x_RELEASE_V1.0.2/MSDK/lwip/lwip-2.1.2/port\dhcpd.c ****     packet->giaddr = oldpacket->giaddr;
 907              		.loc 1 247 5 is_stmt 1
 247:C:/Users/stapi/OneDrive/Desktop/GD32VW553/GD32VW55X_Wifi_BLE_SDK/GD32VW55x_RELEASE_V1.0.2/MSDK/lwip/lwip-2.1.2/port\dhcpd.c ****     packet->giaddr = oldpacket->giaddr;
 908              		.loc 1 247 20 is_stmt 0
 909 00cc 83A78903 		lw	a5,56(s3)
 910 00d0 5CC8     		sw	a5,20(s0)
 248:C:/Users/stapi/OneDrive/Desktop/GD32VW553/GD32VW55X_Wifi_BLE_SDK/GD32VW55x_RELEASE_V1.0.2/MSDK/lwip/lwip-2.1.2/port\dhcpd.c ****     packet->cookie = htonl(DHCP_MAGIC);
 911              		.loc 1 248 5 is_stmt 1
 248:C:/Users/stapi/OneDrive/Desktop/GD32VW553/GD32VW55X_Wifi_BLE_SDK/GD32VW55x_RELEASE_V1.0.2/MSDK/lwip/lwip-2.1.2/port\dhcpd.c ****     packet->cookie = htonl(DHCP_MAGIC);
 912              		.loc 1 248 31 is_stmt 0
 913 00d2 03C79401 		lbu	a4,25(s1)
 914 00d6 83C78401 		lbu	a5,24(s1)
 915 00da 2207     		slli	a4,a4,8
 916 00dc 5D8F     		or	a4,a4,a5
 917 00de 83C7A401 		lbu	a5,26(s1)
 918 00e2 C207     		slli	a5,a5,16
 919 00e4 5D8F     		or	a4,a5,a4
 920 00e6 83C7B401 		lbu	a5,27(s1)
 921 00ea E207     		slli	a5,a5,24
 922 00ec D98F     		or	a5,a5,a4
 248:C:/Users/stapi/OneDrive/Desktop/GD32VW553/GD32VW55X_Wifi_BLE_SDK/GD32VW55x_RELEASE_V1.0.2/MSDK/lwip/lwip-2.1.2/port\dhcpd.c ****     packet->cookie = htonl(DHCP_MAGIC);
 923              		.loc 1 248 20
 924 00ee 1CCC     		sw	a5,24(s0)
 249:C:/Users/stapi/OneDrive/Desktop/GD32VW553/GD32VW55X_Wifi_BLE_SDK/GD32VW55x_RELEASE_V1.0.2/MSDK/lwip/lwip-2.1.2/port\dhcpd.c ****     packet->options[0] = DHCP_END;
 925              		.loc 1 249 5 is_stmt 1
 249:C:/Users/stapi/OneDrive/Desktop/GD32VW553/GD32VW55X_Wifi_BLE_SDK/GD32VW55x_RELEASE_V1.0.2/MSDK/lwip/lwip-2.1.2/port\dhcpd.c ****     packet->options[0] = DHCP_END;
 926              		.loc 1 249 22 is_stmt 0
 927 00f0 97000000 		call	lwip_htonl
 927      E7800000 
 928              	.LVL74:
 251:C:/Users/stapi/OneDrive/Desktop/GD32VW553/GD32VW55X_Wifi_BLE_SDK/GD32VW55x_RELEASE_V1.0.2/MSDK/lwip/lwip-2.1.2/port\dhcpd.c ****     dhcpd_add_option(option, DHCP_MESSAGE_TYPE, sizeof(type), &type);
 929              		.loc 1 251 5
 930 00f8 83A5C903 		lw	a1,60(s3)
 250:C:/Users/stapi/OneDrive/Desktop/GD32VW553/GD32VW55X_Wifi_BLE_SDK/GD32VW55x_RELEASE_V1.0.2/MSDK/lwip/lwip-2.1.2/port\dhcpd.c ****     sys_memcpy(packet->sname,server_config.sname, 6);
 931              		.loc 1 250 24
 932 00fc FD57     		li	a5,-1
 933 00fe 2308F40E 		sb	a5,240(s0)
 249:C:/Users/stapi/OneDrive/Desktop/GD32VW553/GD32VW55X_Wifi_BLE_SDK/GD32VW55x_RELEASE_V1.0.2/MSDK/lwip/lwip-2.1.2/port\dhcpd.c ****     packet->options[0] = DHCP_END;
 934              		.loc 1 249 20
 935 0102 2326A40E 		sw	a0,236(s0)
 250:C:/Users/stapi/OneDrive/Desktop/GD32VW553/GD32VW55X_Wifi_BLE_SDK/GD32VW55x_RELEASE_V1.0.2/MSDK/lwip/lwip-2.1.2/port\dhcpd.c ****     sys_memcpy(packet->sname,server_config.sname, 6);
 936              		.loc 1 250 5 is_stmt 1
 251:C:/Users/stapi/OneDrive/Desktop/GD32VW553/GD32VW55X_Wifi_BLE_SDK/GD32VW55x_RELEASE_V1.0.2/MSDK/lwip/lwip-2.1.2/port\dhcpd.c ****     dhcpd_add_option(option, DHCP_MESSAGE_TYPE, sizeof(type), &type);
 937              		.loc 1 251 5
 938 0106 1946     		li	a2,6
 939 0108 1305C402 		addi	a0,s0,44
 940 010c 97000000 		call	sys_memcpy
 940      E7800000 
 941              	.LVL75:
 252:C:/Users/stapi/OneDrive/Desktop/GD32VW553/GD32VW55X_Wifi_BLE_SDK/GD32VW55x_RELEASE_V1.0.2/MSDK/lwip/lwip-2.1.2/port\dhcpd.c ****     dhcpd_add_option(option, DHCP_SERVER_ID, sizeof(server_config.server.s_addr), &server_config.se
 942              		.loc 1 252 5
 943 0114 1304040F 		addi	s0,s0,240
 944 0118 9306B100 		addi	a3,sp,11
 945 011c 2285     		mv	a0,s0
 946 011e 0546     		li	a2,1
 947 0120 93055003 		li	a1,53
 948 0124 97000000 		call	dhcpd_add_option.isra.0
 948      E7800000 
 949              	.LVL76:
 253:C:/Users/stapi/OneDrive/Desktop/GD32VW553/GD32VW55X_Wifi_BLE_SDK/GD32VW55x_RELEASE_V1.0.2/MSDK/lwip/lwip-2.1.2/port\dhcpd.c ****     dhcpd_add_option(option, DHCP_LEASE_TIME, sizeof(lease_time),&lease_time);
 950              		.loc 1 253 5
 951 012c 93060900 		addi	a3,s2,%lo(.LANCHOR0)
 952 0130 2285     		mv	a0,s0
 953 0132 1146     		li	a2,4
 954 0134 93056003 		li	a1,54
 955 0138 97000000 		call	dhcpd_add_option.isra.0
 955      E7800000 
 956              	.LVL77:
 254:C:/Users/stapi/OneDrive/Desktop/GD32VW553/GD32VW55X_Wifi_BLE_SDK/GD32VW55x_RELEASE_V1.0.2/MSDK/lwip/lwip-2.1.2/port\dhcpd.c ****     dhcpd_add_option(option, DHCP_SUBNET, sizeof(server_config.mask.s_addr), &server_config.mask.s_
 957              		.loc 1 254 5
 958 0140 7400     		addi	a3,sp,12
 959 0142 2285     		mv	a0,s0
 960 0144 1146     		li	a2,4
 961 0146 93053003 		li	a1,51
 962 014a 97000000 		call	dhcpd_add_option.isra.0
 962      E7800000 
 963              	.LVL78:
 255:C:/Users/stapi/OneDrive/Desktop/GD32VW553/GD32VW55X_Wifi_BLE_SDK/GD32VW55x_RELEASE_V1.0.2/MSDK/lwip/lwip-2.1.2/port\dhcpd.c ****     dhcpd_add_option(option, DHCP_ROUTER, sizeof(server_config.server.s_addr), &server_config.serve
 964              		.loc 1 255 5
 965 0152 93864900 		addi	a3,s3,4
 966 0156 2285     		mv	a0,s0
 967 0158 1146     		li	a2,4
 968 015a 8545     		li	a1,1
 969 015c 97000000 		call	dhcpd_add_option.isra.0
 969      E7800000 
 970              	.LVL79:
 256:C:/Users/stapi/OneDrive/Desktop/GD32VW553/GD32VW55X_Wifi_BLE_SDK/GD32VW55x_RELEASE_V1.0.2/MSDK/lwip/lwip-2.1.2/port\dhcpd.c ****     dhcpd_add_option(option, DHCP_DNS_SERVER, sizeof(server_config.server.s_addr), &server_config.s
 971              		.loc 1 256 5
 972 0164 93060900 		addi	a3,s2,%lo(.LANCHOR0)
 973 0168 2285     		mv	a0,s0
 974 016a 1146     		li	a2,4
 975 016c 8D45     		li	a1,3
 976 016e 97000000 		call	dhcpd_add_option.isra.0
 976      E7800000 
 977              	.LVL80:
 257:C:/Users/stapi/OneDrive/Desktop/GD32VW553/GD32VW55X_Wifi_BLE_SDK/GD32VW55x_RELEASE_V1.0.2/MSDK/lwip/lwip-2.1.2/port\dhcpd.c ****     sys_memcpy(domain_name, DEFAULT_DOMAIN, sizeof(DEFAULT_DOMAIN));
 978              		.loc 1 257 5
 979 0176 93060900 		addi	a3,s2,%lo(.LANCHOR0)
 980 017a 2285     		mv	a0,s0
 981 017c 1146     		li	a2,4
 982 017e 9945     		li	a1,6
 983 0180 97000000 		call	dhcpd_add_option.isra.0
 983      E7800000 
 984              	.LVL81:
 258:C:/Users/stapi/OneDrive/Desktop/GD32VW553/GD32VW55X_Wifi_BLE_SDK/GD32VW55x_RELEASE_V1.0.2/MSDK/lwip/lwip-2.1.2/port\dhcpd.c ****     dhcpd_add_option(option, DHCP_DOMAIN_NAME, strlen(domain_name), domain_name);
 985              		.loc 1 258 5
 986 0188 B7050000 		lui	a1,%hi(.LC0)
 987 018c 5946     		li	a2,22
 988 018e 93850500 		addi	a1,a1,%lo(.LC0)
 989 0192 0808     		addi	a0,sp,16
 990 0194 97000000 		call	sys_memcpy
 990      E7800000 
 991              	.LVL82:
 259:C:/Users/stapi/OneDrive/Desktop/GD32VW553/GD32VW55X_Wifi_BLE_SDK/GD32VW55x_RELEASE_V1.0.2/MSDK/lwip/lwip-2.1.2/port\dhcpd.c **** }
 992              		.loc 1 259 5
 259:C:/Users/stapi/OneDrive/Desktop/GD32VW553/GD32VW55X_Wifi_BLE_SDK/GD32VW55x_RELEASE_V1.0.2/MSDK/lwip/lwip-2.1.2/port\dhcpd.c **** }
 993              		.loc 1 259 48 is_stmt 0
 994 019c 0808     		addi	a0,sp,16
 995 019e 97000000 		call	strlen
 995      E7800000 
 996              	.LVL83:
 259:C:/Users/stapi/OneDrive/Desktop/GD32VW553/GD32VW55X_Wifi_BLE_SDK/GD32VW55x_RELEASE_V1.0.2/MSDK/lwip/lwip-2.1.2/port\dhcpd.c **** }
 997              		.loc 1 259 5
 998 01a6 1408     		addi	a3,sp,16
 999 01a8 1376F50F 		andi	a2,a0,0xff
 1000 01ac BD45     		li	a1,15
 1001 01ae 2285     		mv	a0,s0
 1002 01b0 97000000 		call	dhcpd_add_option.isra.0
 1002      E7800000 
 1003              	.LVL84:
 260:C:/Users/stapi/OneDrive/Desktop/GD32VW553/GD32VW55X_Wifi_BLE_SDK/GD32VW55x_RELEASE_V1.0.2/MSDK/lwip/lwip-2.1.2/port\dhcpd.c **** 
 1004              		.loc 1 260 1
 1005 01b8 5161     		addi	sp,sp,272
 1006              		.cfi_def_cfa_offset 0
 1007 01ba 17030000 		tail	__riscv_restore_4
 1007      67000300 
 1008              		.cfi_restore 19
 1009              		.cfi_restore 18
 1010              		.cfi_restore 9
 1011              		.cfi_restore 8
 1012              		.cfi_restore 1
 1013              		.cfi_def_cfa_offset -32
 1014              		.cfi_endproc
 1015              	.LFE26:
 1017              		.section	.text.dhcpd_find_ipaddr_by_macaddr,"ax",@progbits
 1018              		.align	1
 1019              		.globl	dhcpd_find_ipaddr_by_macaddr
 1021              	dhcpd_find_ipaddr_by_macaddr:
 1022              	.LFB9:
 213:C:/Users/stapi/OneDrive/Desktop/GD32VW553/GD32VW55X_Wifi_BLE_SDK/GD32VW55x_RELEASE_V1.0.2/MSDK/lwip/lwip-2.1.2/port\dhcpd.c ****     struct dhcpOfferedAddr *dhcp_offered_addr = NULL;
 1023              		.loc 1 213 1 is_stmt 1
 1024              		.cfi_startproc
 1025              	.LVL85:
 1026 0000 17030000 		call	t0,__riscv_save_0
 1026      E7020300 
 1027              		.cfi_offset 1, -4
 1028              		.cfi_def_cfa_offset 16
 214:C:/Users/stapi/OneDrive/Desktop/GD32VW553/GD32VW55X_Wifi_BLE_SDK/GD32VW55x_RELEASE_V1.0.2/MSDK/lwip/lwip-2.1.2/port\dhcpd.c ****     dhcp_offered_addr = DHCPD_FindLeaseByChaddr(mac_addr);
 1029              		.loc 1 214 5
 1030              	.LVL86:
 215:C:/Users/stapi/OneDrive/Desktop/GD32VW553/GD32VW55X_Wifi_BLE_SDK/GD32VW55x_RELEASE_V1.0.2/MSDK/lwip/lwip-2.1.2/port\dhcpd.c ****     if (dhcp_offered_addr && !(dhcp_offered_addr->flag & DELETED)) {
 1031              		.loc 1 215 5
 215:C:/Users/stapi/OneDrive/Desktop/GD32VW553/GD32VW55X_Wifi_BLE_SDK/GD32VW55x_RELEASE_V1.0.2/MSDK/lwip/lwip-2.1.2/port\dhcpd.c ****     if (dhcp_offered_addr && !(dhcp_offered_addr->flag & DELETED)) {
 1032              		.loc 1 215 25 is_stmt 0
 1033 0008 97000000 		call	DHCPD_FindLeaseByChaddr
 1033      E7800000 
 1034              	.LVL87:
 216:C:/Users/stapi/OneDrive/Desktop/GD32VW553/GD32VW55X_Wifi_BLE_SDK/GD32VW55x_RELEASE_V1.0.2/MSDK/lwip/lwip-2.1.2/port\dhcpd.c ****         return dhcp_offered_addr->yiaddr.s_addr;
 1035              		.loc 1 216 5 is_stmt 1
 216:C:/Users/stapi/OneDrive/Desktop/GD32VW553/GD32VW55X_Wifi_BLE_SDK/GD32VW55x_RELEASE_V1.0.2/MSDK/lwip/lwip-2.1.2/port\dhcpd.c ****         return dhcp_offered_addr->yiaddr.s_addr;
 1036              		.loc 1 216 8 is_stmt 0
 1037 0010 01CD     		beq	a0,zero,.L49
 216:C:/Users/stapi/OneDrive/Desktop/GD32VW553/GD32VW55X_Wifi_BLE_SDK/GD32VW55x_RELEASE_V1.0.2/MSDK/lwip/lwip-2.1.2/port\dhcpd.c ****         return dhcp_offered_addr->yiaddr.s_addr;
 1038              		.loc 1 216 27 discriminator 1
 1039 0012 0347C501 		lbu	a4,28(a0)
 1040 0016 AA87     		mv	a5,a0
 219:C:/Users/stapi/OneDrive/Desktop/GD32VW553/GD32VW55X_Wifi_BLE_SDK/GD32VW55x_RELEASE_V1.0.2/MSDK/lwip/lwip-2.1.2/port\dhcpd.c ****     }
 1041              		.loc 1 219 16 discriminator 1
 1042 0018 0145     		li	a0,0
 1043              	.LVL88:
 216:C:/Users/stapi/OneDrive/Desktop/GD32VW553/GD32VW55X_Wifi_BLE_SDK/GD32VW55x_RELEASE_V1.0.2/MSDK/lwip/lwip-2.1.2/port\dhcpd.c ****         return dhcp_offered_addr->yiaddr.s_addr;
 1044              		.loc 1 216 27 discriminator 1
 1045 001a 218B     		andi	a4,a4,8
 1046 001c 11E3     		bne	a4,zero,.L47
 217:C:/Users/stapi/OneDrive/Desktop/GD32VW553/GD32VW55X_Wifi_BLE_SDK/GD32VW55x_RELEASE_V1.0.2/MSDK/lwip/lwip-2.1.2/port\dhcpd.c ****     } else {
 1047              		.loc 1 217 9 is_stmt 1
 217:C:/Users/stapi/OneDrive/Desktop/GD32VW553/GD32VW55X_Wifi_BLE_SDK/GD32VW55x_RELEASE_V1.0.2/MSDK/lwip/lwip-2.1.2/port\dhcpd.c ****     } else {
 1048              		.loc 1 217 41 is_stmt 0
 1049 001e 884B     		lw	a0,16(a5)
 1050              	.LVL89:
 1051              	.L47:
 221:C:/Users/stapi/OneDrive/Desktop/GD32VW553/GD32VW55X_Wifi_BLE_SDK/GD32VW55x_RELEASE_V1.0.2/MSDK/lwip/lwip-2.1.2/port\dhcpd.c **** 
 1052              		.loc 1 221 1
 1053 0020 17030000 		tail	__riscv_restore_0
 1053      67000300 
 1054              		.cfi_remember_state
 1055              		.cfi_restore 1
 1056              		.cfi_def_cfa_offset 0
 1057              	.LVL90:
 1058              	.L49:
 1059              		.cfi_restore_state
 219:C:/Users/stapi/OneDrive/Desktop/GD32VW553/GD32VW55X_Wifi_BLE_SDK/GD32VW55x_RELEASE_V1.0.2/MSDK/lwip/lwip-2.1.2/port\dhcpd.c ****     }
 1060              		.loc 1 219 16
 1061 0028 0145     		li	a0,0
 1062              	.LVL91:
 1063 002a DDBF     		j	.L47
 1064              		.cfi_endproc
 1065              	.LFE9:
 1067              		.section	.text.dhcpd_delete_ipaddr_by_macaddr,"ax",@progbits
 1068              		.align	1
 1069              		.globl	dhcpd_delete_ipaddr_by_macaddr
 1071              	dhcpd_delete_ipaddr_by_macaddr:
 1072              	.LFB10:
 224:C:/Users/stapi/OneDrive/Desktop/GD32VW553/GD32VW55X_Wifi_BLE_SDK/GD32VW55x_RELEASE_V1.0.2/MSDK/lwip/lwip-2.1.2/port\dhcpd.c ****     struct dhcpOfferedAddr *lease = NULL;
 1073              		.loc 1 224 1 is_stmt 1
 1074              		.cfi_startproc
 1075              	.LVL92:
 1076 0000 17030000 		call	t0,__riscv_save_0
 1076      E7020300 
 1077              		.cfi_offset 1, -4
 1078              		.cfi_def_cfa_offset 16
 225:C:/Users/stapi/OneDrive/Desktop/GD32VW553/GD32VW55X_Wifi_BLE_SDK/GD32VW55x_RELEASE_V1.0.2/MSDK/lwip/lwip-2.1.2/port\dhcpd.c ****     lease = DHCPD_FindLeaseByChaddr(mac_addr);
 1079              		.loc 1 225 5
 1080              	.LVL93:
 226:C:/Users/stapi/OneDrive/Desktop/GD32VW553/GD32VW55X_Wifi_BLE_SDK/GD32VW55x_RELEASE_V1.0.2/MSDK/lwip/lwip-2.1.2/port\dhcpd.c ****     if (lease != NULL) {
 1081              		.loc 1 226 5
 226:C:/Users/stapi/OneDrive/Desktop/GD32VW553/GD32VW55X_Wifi_BLE_SDK/GD32VW55x_RELEASE_V1.0.2/MSDK/lwip/lwip-2.1.2/port\dhcpd.c ****     if (lease != NULL) {
 1082              		.loc 1 226 13 is_stmt 0
 1083 0008 97000000 		call	DHCPD_FindLeaseByChaddr
 1083      E7800000 
 1084              	.LVL94:
 227:C:/Users/stapi/OneDrive/Desktop/GD32VW553/GD32VW55X_Wifi_BLE_SDK/GD32VW55x_RELEASE_V1.0.2/MSDK/lwip/lwip-2.1.2/port\dhcpd.c ****         lease->flag |= DELETED;
 1085              		.loc 1 227 5 is_stmt 1
 227:C:/Users/stapi/OneDrive/Desktop/GD32VW553/GD32VW55X_Wifi_BLE_SDK/GD32VW55x_RELEASE_V1.0.2/MSDK/lwip/lwip-2.1.2/port\dhcpd.c ****         lease->flag |= DELETED;
 1086              		.loc 1 227 8 is_stmt 0
 1087 0010 19C5     		beq	a0,zero,.L52
 228:C:/Users/stapi/OneDrive/Desktop/GD32VW553/GD32VW55X_Wifi_BLE_SDK/GD32VW55x_RELEASE_V1.0.2/MSDK/lwip/lwip-2.1.2/port\dhcpd.c ****     }
 1088              		.loc 1 228 9 is_stmt 1
 228:C:/Users/stapi/OneDrive/Desktop/GD32VW553/GD32VW55X_Wifi_BLE_SDK/GD32VW55x_RELEASE_V1.0.2/MSDK/lwip/lwip-2.1.2/port\dhcpd.c ****     }
 1089              		.loc 1 228 21 is_stmt 0
 1090 0012 8347C501 		lbu	a5,28(a0)
 1091 0016 93E78700 		ori	a5,a5,8
 1092 001a 230EF500 		sb	a5,28(a0)
 1093              	.L52:
 230:C:/Users/stapi/OneDrive/Desktop/GD32VW553/GD32VW55X_Wifi_BLE_SDK/GD32VW55x_RELEASE_V1.0.2/MSDK/lwip/lwip-2.1.2/port\dhcpd.c **** 
 1094              		.loc 1 230 1
 1095 001e 17030000 		tail	__riscv_restore_0
 1095      67000300 
 1096              		.cfi_restore 1
 1097              		.cfi_def_cfa_offset 0
 1098              		.cfi_endproc
 1099              	.LFE10:
 1101              		.section	.rodata.dhcp_process.str1.4,"aMS",@progbits,1
 1102              		.align	2
 1103              	.LC3:
 1104 0000 FFFFFFFF 		.string	"\377\377\377\377\377\377"
 1104      FFFF00
 1105              		.section	.text.dhcp_process,"ax",@progbits
 1106              		.align	1
 1107              		.globl	dhcp_process
 1109              	dhcp_process:
 1110              	.LFB15:
 385:C:/Users/stapi/OneDrive/Desktop/GD32VW553/GD32VW55X_Wifi_BLE_SDK/GD32VW55x_RELEASE_V1.0.2/MSDK/lwip/lwip-2.1.2/port\dhcpd.c **** 
 386:C:/Users/stapi/OneDrive/Desktop/GD32VW553/GD32VW55X_Wifi_BLE_SDK/GD32VW55x_RELEASE_V1.0.2/MSDK/lwip/lwip-2.1.2/port\dhcpd.c **** #if 0
 387:C:/Users/stapi/OneDrive/Desktop/GD32VW553/GD32VW55X_Wifi_BLE_SDK/GD32VW55x_RELEASE_V1.0.2/MSDK/lwip/lwip-2.1.2/port\dhcpd.c **** #define START_IP    0
 388:C:/Users/stapi/OneDrive/Desktop/GD32VW553/GD32VW55X_Wifi_BLE_SDK/GD32VW55x_RELEASE_V1.0.2/MSDK/lwip/lwip-2.1.2/port\dhcpd.c **** #define END_IP      1
 389:C:/Users/stapi/OneDrive/Desktop/GD32VW553/GD32VW55X_Wifi_BLE_SDK/GD32VW55x_RELEASE_V1.0.2/MSDK/lwip/lwip-2.1.2/port\dhcpd.c **** #define BOOT_IP     2
 390:C:/Users/stapi/OneDrive/Desktop/GD32VW553/GD32VW55X_Wifi_BLE_SDK/GD32VW55x_RELEASE_V1.0.2/MSDK/lwip/lwip-2.1.2/port\dhcpd.c **** static void ip_create_by_config(int flag, char * ipaddr)
 391:C:/Users/stapi/OneDrive/Desktop/GD32VW553/GD32VW55X_Wifi_BLE_SDK/GD32VW55x_RELEASE_V1.0.2/MSDK/lwip/lwip-2.1.2/port\dhcpd.c **** {
 392:C:/Users/stapi/OneDrive/Desktop/GD32VW553/GD32VW55X_Wifi_BLE_SDK/GD32VW55x_RELEASE_V1.0.2/MSDK/lwip/lwip-2.1.2/port\dhcpd.c ****     int i = 0, j = 0;
 393:C:/Users/stapi/OneDrive/Desktop/GD32VW553/GD32VW55X_Wifi_BLE_SDK/GD32VW55x_RELEASE_V1.0.2/MSDK/lwip/lwip-2.1.2/port\dhcpd.c **** 
 394:C:/Users/stapi/OneDrive/Desktop/GD32VW553/GD32VW55X_Wifi_BLE_SDK/GD32VW55x_RELEASE_V1.0.2/MSDK/lwip/lwip-2.1.2/port\dhcpd.c ****     while(ipaddr[i] != '\0') {
 395:C:/Users/stapi/OneDrive/Desktop/GD32VW553/GD32VW55X_Wifi_BLE_SDK/GD32VW55x_RELEASE_V1.0.2/MSDK/lwip/lwip-2.1.2/port\dhcpd.c ****         if(ipaddr[i] == '.') {
 396:C:/Users/stapi/OneDrive/Desktop/GD32VW553/GD32VW55X_Wifi_BLE_SDK/GD32VW55x_RELEASE_V1.0.2/MSDK/lwip/lwip-2.1.2/port\dhcpd.c ****             j++;
 397:C:/Users/stapi/OneDrive/Desktop/GD32VW553/GD32VW55X_Wifi_BLE_SDK/GD32VW55x_RELEASE_V1.0.2/MSDK/lwip/lwip-2.1.2/port\dhcpd.c ****         }
 398:C:/Users/stapi/OneDrive/Desktop/GD32VW553/GD32VW55X_Wifi_BLE_SDK/GD32VW55x_RELEASE_V1.0.2/MSDK/lwip/lwip-2.1.2/port\dhcpd.c **** 
 399:C:/Users/stapi/OneDrive/Desktop/GD32VW553/GD32VW55X_Wifi_BLE_SDK/GD32VW55x_RELEASE_V1.0.2/MSDK/lwip/lwip-2.1.2/port\dhcpd.c ****         i++;
 400:C:/Users/stapi/OneDrive/Desktop/GD32VW553/GD32VW55X_Wifi_BLE_SDK/GD32VW55x_RELEASE_V1.0.2/MSDK/lwip/lwip-2.1.2/port\dhcpd.c **** 
 401:C:/Users/stapi/OneDrive/Desktop/GD32VW553/GD32VW55X_Wifi_BLE_SDK/GD32VW55x_RELEASE_V1.0.2/MSDK/lwip/lwip-2.1.2/port\dhcpd.c ****         if(j >= 3) {
 402:C:/Users/stapi/OneDrive/Desktop/GD32VW553/GD32VW55X_Wifi_BLE_SDK/GD32VW55x_RELEASE_V1.0.2/MSDK/lwip/lwip-2.1.2/port\dhcpd.c ****             break;
 403:C:/Users/stapi/OneDrive/Desktop/GD32VW553/GD32VW55X_Wifi_BLE_SDK/GD32VW55x_RELEASE_V1.0.2/MSDK/lwip/lwip-2.1.2/port\dhcpd.c ****         }
 404:C:/Users/stapi/OneDrive/Desktop/GD32VW553/GD32VW55X_Wifi_BLE_SDK/GD32VW55x_RELEASE_V1.0.2/MSDK/lwip/lwip-2.1.2/port\dhcpd.c ****     }
 405:C:/Users/stapi/OneDrive/Desktop/GD32VW553/GD32VW55X_Wifi_BLE_SDK/GD32VW55x_RELEASE_V1.0.2/MSDK/lwip/lwip-2.1.2/port\dhcpd.c **** 
 406:C:/Users/stapi/OneDrive/Desktop/GD32VW553/GD32VW55X_Wifi_BLE_SDK/GD32VW55x_RELEASE_V1.0.2/MSDK/lwip/lwip-2.1.2/port\dhcpd.c ****     ipaddr[i] = '\0';
 407:C:/Users/stapi/OneDrive/Desktop/GD32VW553/GD32VW55X_Wifi_BLE_SDK/GD32VW55x_RELEASE_V1.0.2/MSDK/lwip/lwip-2.1.2/port\dhcpd.c **** 
 408:C:/Users/stapi/OneDrive/Desktop/GD32VW553/GD32VW55X_Wifi_BLE_SDK/GD32VW55x_RELEASE_V1.0.2/MSDK/lwip/lwip-2.1.2/port\dhcpd.c ****     switch(flag) {
 409:C:/Users/stapi/OneDrive/Desktop/GD32VW553/GD32VW55X_Wifi_BLE_SDK/GD32VW55x_RELEASE_V1.0.2/MSDK/lwip/lwip-2.1.2/port\dhcpd.c ****     case START_IP:
 410:C:/Users/stapi/OneDrive/Desktop/GD32VW553/GD32VW55X_Wifi_BLE_SDK/GD32VW55x_RELEASE_V1.0.2/MSDK/lwip/lwip-2.1.2/port\dhcpd.c ****         strcat(ipaddr,"150");
 411:C:/Users/stapi/OneDrive/Desktop/GD32VW553/GD32VW55X_Wifi_BLE_SDK/GD32VW55x_RELEASE_V1.0.2/MSDK/lwip/lwip-2.1.2/port\dhcpd.c ****         break;
 412:C:/Users/stapi/OneDrive/Desktop/GD32VW553/GD32VW55X_Wifi_BLE_SDK/GD32VW55x_RELEASE_V1.0.2/MSDK/lwip/lwip-2.1.2/port\dhcpd.c ****     case END_IP:
 413:C:/Users/stapi/OneDrive/Desktop/GD32VW553/GD32VW55X_Wifi_BLE_SDK/GD32VW55x_RELEASE_V1.0.2/MSDK/lwip/lwip-2.1.2/port\dhcpd.c ****         strcat(ipaddr,"200");
 414:C:/Users/stapi/OneDrive/Desktop/GD32VW553/GD32VW55X_Wifi_BLE_SDK/GD32VW55x_RELEASE_V1.0.2/MSDK/lwip/lwip-2.1.2/port\dhcpd.c ****         break;
 415:C:/Users/stapi/OneDrive/Desktop/GD32VW553/GD32VW55X_Wifi_BLE_SDK/GD32VW55x_RELEASE_V1.0.2/MSDK/lwip/lwip-2.1.2/port\dhcpd.c ****     case BOOT_IP:
 416:C:/Users/stapi/OneDrive/Desktop/GD32VW553/GD32VW55X_Wifi_BLE_SDK/GD32VW55x_RELEASE_V1.0.2/MSDK/lwip/lwip-2.1.2/port\dhcpd.c ****         strcat(ipaddr,"5");
 417:C:/Users/stapi/OneDrive/Desktop/GD32VW553/GD32VW55X_Wifi_BLE_SDK/GD32VW55x_RELEASE_V1.0.2/MSDK/lwip/lwip-2.1.2/port\dhcpd.c ****         break;
 418:C:/Users/stapi/OneDrive/Desktop/GD32VW553/GD32VW55X_Wifi_BLE_SDK/GD32VW55x_RELEASE_V1.0.2/MSDK/lwip/lwip-2.1.2/port\dhcpd.c ****     default:
 419:C:/Users/stapi/OneDrive/Desktop/GD32VW553/GD32VW55X_Wifi_BLE_SDK/GD32VW55x_RELEASE_V1.0.2/MSDK/lwip/lwip-2.1.2/port\dhcpd.c ****         break;
 420:C:/Users/stapi/OneDrive/Desktop/GD32VW553/GD32VW55X_Wifi_BLE_SDK/GD32VW55x_RELEASE_V1.0.2/MSDK/lwip/lwip-2.1.2/port\dhcpd.c ****     }
 421:C:/Users/stapi/OneDrive/Desktop/GD32VW553/GD32VW55X_Wifi_BLE_SDK/GD32VW55x_RELEASE_V1.0.2/MSDK/lwip/lwip-2.1.2/port\dhcpd.c **** 
 422:C:/Users/stapi/OneDrive/Desktop/GD32VW553/GD32VW55X_Wifi_BLE_SDK/GD32VW55x_RELEASE_V1.0.2/MSDK/lwip/lwip-2.1.2/port\dhcpd.c ****     LWIP_DEBUGF(DHCP_DEBUG | LWIP_DBG_TRACE, ("DHCP IP: [ %s ]\n\r",ipaddr));
 423:C:/Users/stapi/OneDrive/Desktop/GD32VW553/GD32VW55X_Wifi_BLE_SDK/GD32VW55x_RELEASE_V1.0.2/MSDK/lwip/lwip-2.1.2/port\dhcpd.c **** }
 424:C:/Users/stapi/OneDrive/Desktop/GD32VW553/GD32VW55X_Wifi_BLE_SDK/GD32VW55x_RELEASE_V1.0.2/MSDK/lwip/lwip-2.1.2/port\dhcpd.c **** #endif
 425:C:/Users/stapi/OneDrive/Desktop/GD32VW553/GD32VW55X_Wifi_BLE_SDK/GD32VW55x_RELEASE_V1.0.2/MSDK/lwip/lwip-2.1.2/port\dhcpd.c **** 
 426:C:/Users/stapi/OneDrive/Desktop/GD32VW553/GD32VW55X_Wifi_BLE_SDK/GD32VW55x_RELEASE_V1.0.2/MSDK/lwip/lwip-2.1.2/port\dhcpd.c **** static int init_config(struct netif *net_if)
 427:C:/Users/stapi/OneDrive/Desktop/GD32VW553/GD32VW55X_Wifi_BLE_SDK/GD32VW55x_RELEASE_V1.0.2/MSDK/lwip/lwip-2.1.2/port\dhcpd.c **** {
 428:C:/Users/stapi/OneDrive/Desktop/GD32VW553/GD32VW55X_Wifi_BLE_SDK/GD32VW55x_RELEASE_V1.0.2/MSDK/lwip/lwip-2.1.2/port\dhcpd.c ****     memset(&server_config, 0, sizeof(struct server_config_t));
 429:C:/Users/stapi/OneDrive/Desktop/GD32VW553/GD32VW55X_Wifi_BLE_SDK/GD32VW55x_RELEASE_V1.0.2/MSDK/lwip/lwip-2.1.2/port\dhcpd.c **** 
 430:C:/Users/stapi/OneDrive/Desktop/GD32VW553/GD32VW55X_Wifi_BLE_SDK/GD32VW55x_RELEASE_V1.0.2/MSDK/lwip/lwip-2.1.2/port\dhcpd.c ****     /* we use first listen interface as server IP */
 431:C:/Users/stapi/OneDrive/Desktop/GD32VW553/GD32VW55X_Wifi_BLE_SDK/GD32VW55x_RELEASE_V1.0.2/MSDK/lwip/lwip-2.1.2/port\dhcpd.c ****     //server_config.interface = LAN_NAME;
 432:C:/Users/stapi/OneDrive/Desktop/GD32VW553/GD32VW55X_Wifi_BLE_SDK/GD32VW55x_RELEASE_V1.0.2/MSDK/lwip/lwip-2.1.2/port\dhcpd.c ****     //if (read_interface(server_config.interface, &server_config.server.s_addr, &server_config.mask
 433:C:/Users/stapi/OneDrive/Desktop/GD32VW553/GD32VW55X_Wifi_BLE_SDK/GD32VW55x_RELEASE_V1.0.2/MSDK/lwip/lwip-2.1.2/port\dhcpd.c ****     //    return -1;
 434:C:/Users/stapi/OneDrive/Desktop/GD32VW553/GD32VW55X_Wifi_BLE_SDK/GD32VW55x_RELEASE_V1.0.2/MSDK/lwip/lwip-2.1.2/port\dhcpd.c **** 
 435:C:/Users/stapi/OneDrive/Desktop/GD32VW553/GD32VW55X_Wifi_BLE_SDK/GD32VW55x_RELEASE_V1.0.2/MSDK/lwip/lwip-2.1.2/port\dhcpd.c **** #if LWIP_IPV6
 436:C:/Users/stapi/OneDrive/Desktop/GD32VW553/GD32VW55X_Wifi_BLE_SDK/GD32VW55x_RELEASE_V1.0.2/MSDK/lwip/lwip-2.1.2/port\dhcpd.c ****     // server address, gateway
 437:C:/Users/stapi/OneDrive/Desktop/GD32VW553/GD32VW55X_Wifi_BLE_SDK/GD32VW55x_RELEASE_V1.0.2/MSDK/lwip/lwip-2.1.2/port\dhcpd.c ****     server_config.server.s_addr = net_if->gw.u_addr.ip4.addr;
 438:C:/Users/stapi/OneDrive/Desktop/GD32VW553/GD32VW55X_Wifi_BLE_SDK/GD32VW55x_RELEASE_V1.0.2/MSDK/lwip/lwip-2.1.2/port\dhcpd.c ****     //net mask
 439:C:/Users/stapi/OneDrive/Desktop/GD32VW553/GD32VW55X_Wifi_BLE_SDK/GD32VW55x_RELEASE_V1.0.2/MSDK/lwip/lwip-2.1.2/port\dhcpd.c ****     server_config.mask.s_addr = net_if->netmask.u_addr.ip4.addr;
 440:C:/Users/stapi/OneDrive/Desktop/GD32VW553/GD32VW55X_Wifi_BLE_SDK/GD32VW55x_RELEASE_V1.0.2/MSDK/lwip/lwip-2.1.2/port\dhcpd.c ****     //start address
 441:C:/Users/stapi/OneDrive/Desktop/GD32VW553/GD32VW55X_Wifi_BLE_SDK/GD32VW55x_RELEASE_V1.0.2/MSDK/lwip/lwip-2.1.2/port\dhcpd.c ****     server_config.start.s_addr = PP_HTONL(PP_HTONL(net_if->ip_addr.u_addr.ip4.addr) + 1);
 442:C:/Users/stapi/OneDrive/Desktop/GD32VW553/GD32VW55X_Wifi_BLE_SDK/GD32VW55x_RELEASE_V1.0.2/MSDK/lwip/lwip-2.1.2/port\dhcpd.c ****     //end address
 443:C:/Users/stapi/OneDrive/Desktop/GD32VW553/GD32VW55X_Wifi_BLE_SDK/GD32VW55x_RELEASE_V1.0.2/MSDK/lwip/lwip-2.1.2/port\dhcpd.c ****     server_config.end.s_addr = PP_HTONL(PP_HTONL(net_if->ip_addr.u_addr.ip4.addr) + 1 + DHCPD_MAX_L
 444:C:/Users/stapi/OneDrive/Desktop/GD32VW553/GD32VW55X_Wifi_BLE_SDK/GD32VW55x_RELEASE_V1.0.2/MSDK/lwip/lwip-2.1.2/port\dhcpd.c **** #else
 445:C:/Users/stapi/OneDrive/Desktop/GD32VW553/GD32VW55X_Wifi_BLE_SDK/GD32VW55x_RELEASE_V1.0.2/MSDK/lwip/lwip-2.1.2/port\dhcpd.c ****     // server address, gateway
 446:C:/Users/stapi/OneDrive/Desktop/GD32VW553/GD32VW55X_Wifi_BLE_SDK/GD32VW55x_RELEASE_V1.0.2/MSDK/lwip/lwip-2.1.2/port\dhcpd.c ****     server_config.server.s_addr = net_if->gw.addr;
 447:C:/Users/stapi/OneDrive/Desktop/GD32VW553/GD32VW55X_Wifi_BLE_SDK/GD32VW55x_RELEASE_V1.0.2/MSDK/lwip/lwip-2.1.2/port\dhcpd.c ****     //net mask
 448:C:/Users/stapi/OneDrive/Desktop/GD32VW553/GD32VW55X_Wifi_BLE_SDK/GD32VW55x_RELEASE_V1.0.2/MSDK/lwip/lwip-2.1.2/port\dhcpd.c ****     server_config.mask.s_addr = net_if->netmask.addr;
 449:C:/Users/stapi/OneDrive/Desktop/GD32VW553/GD32VW55X_Wifi_BLE_SDK/GD32VW55x_RELEASE_V1.0.2/MSDK/lwip/lwip-2.1.2/port\dhcpd.c ****     //start address
 450:C:/Users/stapi/OneDrive/Desktop/GD32VW553/GD32VW55X_Wifi_BLE_SDK/GD32VW55x_RELEASE_V1.0.2/MSDK/lwip/lwip-2.1.2/port\dhcpd.c ****     server_config.start.s_addr = PP_HTONL(PP_HTONL(net_if->ip_addr.addr) + 1);
 451:C:/Users/stapi/OneDrive/Desktop/GD32VW553/GD32VW55X_Wifi_BLE_SDK/GD32VW55x_RELEASE_V1.0.2/MSDK/lwip/lwip-2.1.2/port\dhcpd.c ****     //end address
 452:C:/Users/stapi/OneDrive/Desktop/GD32VW553/GD32VW55X_Wifi_BLE_SDK/GD32VW55x_RELEASE_V1.0.2/MSDK/lwip/lwip-2.1.2/port\dhcpd.c ****     server_config.end.s_addr = PP_HTONL(PP_HTONL(net_if->ip_addr.addr) + 1 + DHCPD_MAX_LEASES);
 453:C:/Users/stapi/OneDrive/Desktop/GD32VW553/GD32VW55X_Wifi_BLE_SDK/GD32VW55x_RELEASE_V1.0.2/MSDK/lwip/lwip-2.1.2/port\dhcpd.c **** #endif
 454:C:/Users/stapi/OneDrive/Desktop/GD32VW553/GD32VW55X_Wifi_BLE_SDK/GD32VW55x_RELEASE_V1.0.2/MSDK/lwip/lwip-2.1.2/port\dhcpd.c ****     //end address - start address(ip lease count)
 455:C:/Users/stapi/OneDrive/Desktop/GD32VW553/GD32VW55X_Wifi_BLE_SDK/GD32VW55x_RELEASE_V1.0.2/MSDK/lwip/lwip-2.1.2/port\dhcpd.c ****     server_config.max_leases = DHCPD_MAX_LEASES;
 456:C:/Users/stapi/OneDrive/Desktop/GD32VW553/GD32VW55X_Wifi_BLE_SDK/GD32VW55x_RELEASE_V1.0.2/MSDK/lwip/lwip-2.1.2/port\dhcpd.c **** 
 457:C:/Users/stapi/OneDrive/Desktop/GD32VW553/GD32VW55X_Wifi_BLE_SDK/GD32VW55x_RELEASE_V1.0.2/MSDK/lwip/lwip-2.1.2/port\dhcpd.c ****     // lease time
 458:C:/Users/stapi/OneDrive/Desktop/GD32VW553/GD32VW55X_Wifi_BLE_SDK/GD32VW55x_RELEASE_V1.0.2/MSDK/lwip/lwip-2.1.2/port\dhcpd.c ****     server_config.lease = DEFAULT_LEASE_TIME; //3600
 459:C:/Users/stapi/OneDrive/Desktop/GD32VW553/GD32VW55X_Wifi_BLE_SDK/GD32VW55x_RELEASE_V1.0.2/MSDK/lwip/lwip-2.1.2/port\dhcpd.c ****     server_config.conflict_time = DEFAULT_CONFLICT_TIME; //3600
 460:C:/Users/stapi/OneDrive/Desktop/GD32VW553/GD32VW55X_Wifi_BLE_SDK/GD32VW55x_RELEASE_V1.0.2/MSDK/lwip/lwip-2.1.2/port\dhcpd.c ****     server_config.decline_time = DEFAULT_DECLINE_TIME; //3600
 461:C:/Users/stapi/OneDrive/Desktop/GD32VW553/GD32VW55X_Wifi_BLE_SDK/GD32VW55x_RELEASE_V1.0.2/MSDK/lwip/lwip-2.1.2/port\dhcpd.c ****     server_config.min_lease = DEFAULT_MIN_LEASE_TIME; //60
 462:C:/Users/stapi/OneDrive/Desktop/GD32VW553/GD32VW55X_Wifi_BLE_SDK/GD32VW55x_RELEASE_V1.0.2/MSDK/lwip/lwip-2.1.2/port\dhcpd.c ****     server_config.offer_time = DEFAULT_MIN_LEASE_TIME; //60
 463:C:/Users/stapi/OneDrive/Desktop/GD32VW553/GD32VW55X_Wifi_BLE_SDK/GD32VW55x_RELEASE_V1.0.2/MSDK/lwip/lwip-2.1.2/port\dhcpd.c ****     server_config.auto_time = DEFAULT_AUTO_TIME; //3
 464:C:/Users/stapi/OneDrive/Desktop/GD32VW553/GD32VW55X_Wifi_BLE_SDK/GD32VW55x_RELEASE_V1.0.2/MSDK/lwip/lwip-2.1.2/port\dhcpd.c ****     server_config.sname = DEFAULT_SNAME;
 465:C:/Users/stapi/OneDrive/Desktop/GD32VW553/GD32VW55X_Wifi_BLE_SDK/GD32VW55x_RELEASE_V1.0.2/MSDK/lwip/lwip-2.1.2/port\dhcpd.c ****     server_config.boot_file = DEFAULT_BOOT_FILE;
 466:C:/Users/stapi/OneDrive/Desktop/GD32VW553/GD32VW55X_Wifi_BLE_SDK/GD32VW55x_RELEASE_V1.0.2/MSDK/lwip/lwip-2.1.2/port\dhcpd.c **** 
 467:C:/Users/stapi/OneDrive/Desktop/GD32VW553/GD32VW55X_Wifi_BLE_SDK/GD32VW55x_RELEASE_V1.0.2/MSDK/lwip/lwip-2.1.2/port\dhcpd.c **** #if LWIP_IPV6
 468:C:/Users/stapi/OneDrive/Desktop/GD32VW553/GD32VW55X_Wifi_BLE_SDK/GD32VW55x_RELEASE_V1.0.2/MSDK/lwip/lwip-2.1.2/port\dhcpd.c ****     server_config.siaddr.s_addr = PP_HTONL(PP_HTONL(net_if->ip_addr.u_addr.ip4.addr) + 1 + DHCPD_MA
 469:C:/Users/stapi/OneDrive/Desktop/GD32VW553/GD32VW55X_Wifi_BLE_SDK/GD32VW55x_RELEASE_V1.0.2/MSDK/lwip/lwip-2.1.2/port\dhcpd.c **** #else
 470:C:/Users/stapi/OneDrive/Desktop/GD32VW553/GD32VW55X_Wifi_BLE_SDK/GD32VW55x_RELEASE_V1.0.2/MSDK/lwip/lwip-2.1.2/port\dhcpd.c ****     server_config.siaddr.s_addr = PP_HTONL(PP_HTONL(net_if->ip_addr.addr) + 1 + DHCPD_MAX_LEASES + 
 471:C:/Users/stapi/OneDrive/Desktop/GD32VW553/GD32VW55X_Wifi_BLE_SDK/GD32VW55x_RELEASE_V1.0.2/MSDK/lwip/lwip-2.1.2/port\dhcpd.c **** #endif
 472:C:/Users/stapi/OneDrive/Desktop/GD32VW553/GD32VW55X_Wifi_BLE_SDK/GD32VW55x_RELEASE_V1.0.2/MSDK/lwip/lwip-2.1.2/port\dhcpd.c **** 
 473:C:/Users/stapi/OneDrive/Desktop/GD32VW553/GD32VW55X_Wifi_BLE_SDK/GD32VW55x_RELEASE_V1.0.2/MSDK/lwip/lwip-2.1.2/port\dhcpd.c ****     return 0;
 474:C:/Users/stapi/OneDrive/Desktop/GD32VW553/GD32VW55X_Wifi_BLE_SDK/GD32VW55x_RELEASE_V1.0.2/MSDK/lwip/lwip-2.1.2/port\dhcpd.c **** }
 475:C:/Users/stapi/OneDrive/Desktop/GD32VW553/GD32VW55X_Wifi_BLE_SDK/GD32VW55x_RELEASE_V1.0.2/MSDK/lwip/lwip-2.1.2/port\dhcpd.c **** 
 476:C:/Users/stapi/OneDrive/Desktop/GD32VW553/GD32VW55X_Wifi_BLE_SDK/GD32VW55x_RELEASE_V1.0.2/MSDK/lwip/lwip-2.1.2/port\dhcpd.c **** uint8_t dhcp_process(void *packet_addr)
 477:C:/Users/stapi/OneDrive/Desktop/GD32VW553/GD32VW55X_Wifi_BLE_SDK/GD32VW55x_RELEASE_V1.0.2/MSDK/lwip/lwip-2.1.2/port\dhcpd.c **** {
 1111              		.loc 1 477 1 is_stmt 1
 1112              		.cfi_startproc
 1113              	.LVL95:
 1114 0000 17030000 		call	t0,__riscv_save_7
 1114      E7020300 
 1115              		.cfi_offset 22, -32
 1116              		.cfi_offset 21, -28
 1117              		.cfi_offset 20, -24
 1118              		.cfi_offset 19, -20
 1119              		.cfi_offset 18, -16
 1120              		.cfi_offset 9, -12
 1121              		.cfi_offset 8, -8
 1122              		.cfi_offset 1, -4
 1123              		.cfi_def_cfa_offset 32
 478:C:/Users/stapi/OneDrive/Desktop/GD32VW553/GD32VW55X_Wifi_BLE_SDK/GD32VW55x_RELEASE_V1.0.2/MSDK/lwip/lwip-2.1.2/port\dhcpd.c ****     char state;
 1124              		.loc 1 478 5
 479:C:/Users/stapi/OneDrive/Desktop/GD32VW553/GD32VW55X_Wifi_BLE_SDK/GD32VW55x_RELEASE_V1.0.2/MSDK/lwip/lwip-2.1.2/port\dhcpd.c ****     uint32_t s_addr;
 1125              		.loc 1 479 5
 480:C:/Users/stapi/OneDrive/Desktop/GD32VW553/GD32VW55X_Wifi_BLE_SDK/GD32VW55x_RELEASE_V1.0.2/MSDK/lwip/lwip-2.1.2/port\dhcpd.c **** 
 481:C:/Users/stapi/OneDrive/Desktop/GD32VW553/GD32VW55X_Wifi_BLE_SDK/GD32VW55x_RELEASE_V1.0.2/MSDK/lwip/lwip-2.1.2/port\dhcpd.c ****     if (dhcpd_pickup_opt((struct dhcpd *)packet_addr, DHCP_MESSAGE_TYPE, sizeof(state), &state) == 
 1126              		.loc 1 481 5
 477:C:/Users/stapi/OneDrive/Desktop/GD32VW553/GD32VW55X_Wifi_BLE_SDK/GD32VW55x_RELEASE_V1.0.2/MSDK/lwip/lwip-2.1.2/port\dhcpd.c ****     char state;
 1127              		.loc 1 477 1 is_stmt 0
 1128 0008 4111     		addi	sp,sp,-16
 1129              		.cfi_def_cfa_offset 48
 1130              		.loc 1 481 9
 1131 000a 9306B100 		addi	a3,sp,11
 1132 000e 0546     		li	a2,1
 1133 0010 93055003 		li	a1,53
 477:C:/Users/stapi/OneDrive/Desktop/GD32VW553/GD32VW55X_Wifi_BLE_SDK/GD32VW55x_RELEASE_V1.0.2/MSDK/lwip/lwip-2.1.2/port\dhcpd.c ****     char state;
 1134              		.loc 1 477 1
 1135 0014 2A84     		mv	s0,a0
 1136              		.loc 1 481 9
 1137 0016 97000000 		call	dhcpd_pickup_opt
 1137      E7800000 
 1138              	.LVL96:
 1139              		.loc 1 481 8
 1140 001e 09C9     		beq	a0,zero,.L84
 482:C:/Users/stapi/OneDrive/Desktop/GD32VW553/GD32VW55X_Wifi_BLE_SDK/GD32VW55x_RELEASE_V1.0.2/MSDK/lwip/lwip-2.1.2/port\dhcpd.c ****         LWIP_DEBUGF(DHCP_DEBUG | LWIP_DBG_TRACE, ("[DHCPD]: couldn't get option from packet, ignori
 483:C:/Users/stapi/OneDrive/Desktop/GD32VW553/GD32VW55X_Wifi_BLE_SDK/GD32VW55x_RELEASE_V1.0.2/MSDK/lwip/lwip-2.1.2/port\dhcpd.c ****         return 0;
 484:C:/Users/stapi/OneDrive/Desktop/GD32VW553/GD32VW55X_Wifi_BLE_SDK/GD32VW55x_RELEASE_V1.0.2/MSDK/lwip/lwip-2.1.2/port\dhcpd.c ****     }
 485:C:/Users/stapi/OneDrive/Desktop/GD32VW553/GD32VW55X_Wifi_BLE_SDK/GD32VW55x_RELEASE_V1.0.2/MSDK/lwip/lwip-2.1.2/port\dhcpd.c **** 
 486:C:/Users/stapi/OneDrive/Desktop/GD32VW553/GD32VW55X_Wifi_BLE_SDK/GD32VW55x_RELEASE_V1.0.2/MSDK/lwip/lwip-2.1.2/port\dhcpd.c ****     switch (state) {
 1141              		.loc 1 486 5 is_stmt 1
 1142 0020 0547     		li	a4,1
 1143 0022 8307B100 		lb	a5,11(sp)
 1144 0026 6387E700 		beq	a5,a4,.L60
 1145 002a 0D47     		li	a4,3
 1146 002c 6386E716 		beq	a5,a4,.L61
 1147              	.L84:
 483:C:/Users/stapi/OneDrive/Desktop/GD32VW553/GD32VW55X_Wifi_BLE_SDK/GD32VW55x_RELEASE_V1.0.2/MSDK/lwip/lwip-2.1.2/port\dhcpd.c ****     }
 1148              		.loc 1 483 16 is_stmt 0
 1149 0030 0145     		li	a0,0
 1150 0032 89AA     		j	.L102
 1151              	.L60:
 487:C:/Users/stapi/OneDrive/Desktop/GD32VW553/GD32VW55X_Wifi_BLE_SDK/GD32VW55x_RELEASE_V1.0.2/MSDK/lwip/lwip-2.1.2/port\dhcpd.c ****     case DHCPDISCOVER:
 488:C:/Users/stapi/OneDrive/Desktop/GD32VW553/GD32VW55X_Wifi_BLE_SDK/GD32VW55x_RELEASE_V1.0.2/MSDK/lwip/lwip-2.1.2/port\dhcpd.c ****         LWIP_DEBUGF(DHCP_DEBUG | LWIP_DBG_TRACE, ("[DHCPD]: discover packet....\r\n"));
 1152              		.loc 1 488 87 is_stmt 1
 489:C:/Users/stapi/OneDrive/Desktop/GD32VW553/GD32VW55X_Wifi_BLE_SDK/GD32VW55x_RELEASE_V1.0.2/MSDK/lwip/lwip-2.1.2/port\dhcpd.c ****         discover(packet_addr);
 1153              		.loc 1 489 9
 1154              	.LVL97:
 1155              	.LBB10:
 1156              	.LBB11:
 264:C:/Users/stapi/OneDrive/Desktop/GD32VW553/GD32VW55X_Wifi_BLE_SDK/GD32VW55x_RELEASE_V1.0.2/MSDK/lwip/lwip-2.1.2/port\dhcpd.c ****     //struct in_addr req_ip;
 1157              		.loc 1 264 5
 266:C:/Users/stapi/OneDrive/Desktop/GD32VW553/GD32VW55X_Wifi_BLE_SDK/GD32VW55x_RELEASE_V1.0.2/MSDK/lwip/lwip-2.1.2/port\dhcpd.c ****     struct dhcpOfferedAddr *lease;
 1158              		.loc 1 266 5
 267:C:/Users/stapi/OneDrive/Desktop/GD32VW553/GD32VW55X_Wifi_BLE_SDK/GD32VW55x_RELEASE_V1.0.2/MSDK/lwip/lwip-2.1.2/port\dhcpd.c ****     //struct dhcpOfferedAddr *lease_new;
 1159              		.loc 1 267 5
 270:C:/Users/stapi/OneDrive/Desktop/GD32VW553/GD32VW55X_Wifi_BLE_SDK/GD32VW55x_RELEASE_V1.0.2/MSDK/lwip/lwip-2.1.2/port\dhcpd.c ****     memcmp(packetinfo->chaddr, "\xff\xff\xff\xff\xff\xff", 6) == 0) {
 1160              		.loc 1 270 5
 270:C:/Users/stapi/OneDrive/Desktop/GD32VW553/GD32VW55X_Wifi_BLE_SDK/GD32VW55x_RELEASE_V1.0.2/MSDK/lwip/lwip-2.1.2/port\dhcpd.c ****     memcmp(packetinfo->chaddr, "\xff\xff\xff\xff\xff\xff", 6) == 0) {
 1161              		.loc 1 270 26 is_stmt 0
 1162 0034 9309C401 		addi	s3,s0,28
 270:C:/Users/stapi/OneDrive/Desktop/GD32VW553/GD32VW55X_Wifi_BLE_SDK/GD32VW55x_RELEASE_V1.0.2/MSDK/lwip/lwip-2.1.2/port\dhcpd.c ****     memcmp(packetinfo->chaddr, "\xff\xff\xff\xff\xff\xff", 6) == 0) {
 1163              		.loc 1 270 9
 1164 0038 B7050000 		lui	a1,%hi(.LC2)
 1165 003c 1946     		li	a2,6
 1166 003e 93850500 		addi	a1,a1,%lo(.LC2)
 1167 0042 4E85     		mv	a0,s3
 1168 0044 97000000 		call	memcmp
 1168      E7800000 
 1169              	.LVL98:
 270:C:/Users/stapi/OneDrive/Desktop/GD32VW553/GD32VW55X_Wifi_BLE_SDK/GD32VW55x_RELEASE_V1.0.2/MSDK/lwip/lwip-2.1.2/port\dhcpd.c ****     memcmp(packetinfo->chaddr, "\xff\xff\xff\xff\xff\xff", 6) == 0) {
 1170              		.loc 1 270 8
 1171 004c 630B0512 		beq	a0,zero,.L105
 271:C:/Users/stapi/OneDrive/Desktop/GD32VW553/GD32VW55X_Wifi_BLE_SDK/GD32VW55x_RELEASE_V1.0.2/MSDK/lwip/lwip-2.1.2/port\dhcpd.c ****         return -1;
 1172              		.loc 1 271 5
 1173 0050 B7050000 		lui	a1,%hi(.LC3)
 1174 0054 1946     		li	a2,6
 1175 0056 93850500 		addi	a1,a1,%lo(.LC3)
 1176 005a 4E85     		mv	a0,s3
 1177 005c 97000000 		call	memcmp
 1177      E7800000 
 1178              	.LVL99:
 270:C:/Users/stapi/OneDrive/Desktop/GD32VW553/GD32VW55X_Wifi_BLE_SDK/GD32VW55x_RELEASE_V1.0.2/MSDK/lwip/lwip-2.1.2/port\dhcpd.c ****     memcmp(packetinfo->chaddr, "\xff\xff\xff\xff\xff\xff", 6) == 0) {
 1179              		.loc 1 270 72
 1180 0064 630F0510 		beq	a0,zero,.L105
 275:C:/Users/stapi/OneDrive/Desktop/GD32VW553/GD32VW55X_Wifi_BLE_SDK/GD32VW55x_RELEASE_V1.0.2/MSDK/lwip/lwip-2.1.2/port\dhcpd.c ****         addr = DHCPD_FindAddress();
 1181              		.loc 1 275 5 is_stmt 1
 275:C:/Users/stapi/OneDrive/Desktop/GD32VW553/GD32VW55X_Wifi_BLE_SDK/GD32VW55x_RELEASE_V1.0.2/MSDK/lwip/lwip-2.1.2/port\dhcpd.c ****         addr = DHCPD_FindAddress();
 1182              		.loc 1 275 18 is_stmt 0
 1183 0068 4E85     		mv	a0,s3
 1184 006a 97000000 		call	DHCPD_FindLeaseByChaddr
 1184      E7800000 
 1185              	.LVL100:
 1186 0072 AA84     		mv	s1,a0
 1187              	.LVL101:
 275:C:/Users/stapi/OneDrive/Desktop/GD32VW553/GD32VW55X_Wifi_BLE_SDK/GD32VW55x_RELEASE_V1.0.2/MSDK/lwip/lwip-2.1.2/port\dhcpd.c ****         addr = DHCPD_FindAddress();
 1188              		.loc 1 275 8
 1189 0074 79E5     		bne	a0,zero,.L65
 276:C:/Users/stapi/OneDrive/Desktop/GD32VW553/GD32VW55X_Wifi_BLE_SDK/GD32VW55x_RELEASE_V1.0.2/MSDK/lwip/lwip-2.1.2/port\dhcpd.c **** 
 1190              		.loc 1 276 9 is_stmt 1
 1191              	.LBB12:
 1192              	.LBB13:
 173:C:/Users/stapi/OneDrive/Desktop/GD32VW553/GD32VW55X_Wifi_BLE_SDK/GD32VW55x_RELEASE_V1.0.2/MSDK/lwip/lwip-2.1.2/port\dhcpd.c ****     struct in_addr ret;
 1193              		.loc 1 173 5
 174:C:/Users/stapi/OneDrive/Desktop/GD32VW553/GD32VW55X_Wifi_BLE_SDK/GD32VW55x_RELEASE_V1.0.2/MSDK/lwip/lwip-2.1.2/port\dhcpd.c ****     struct dhcpOfferedAddr *lease = 0;
 1194              		.loc 1 174 5
 175:C:/Users/stapi/OneDrive/Desktop/GD32VW553/GD32VW55X_Wifi_BLE_SDK/GD32VW55x_RELEASE_V1.0.2/MSDK/lwip/lwip-2.1.2/port\dhcpd.c **** 
 1195              		.loc 1 175 5
 1196              	.LVL102:
 177:C:/Users/stapi/OneDrive/Desktop/GD32VW553/GD32VW55X_Wifi_BLE_SDK/GD32VW55x_RELEASE_V1.0.2/MSDK/lwip/lwip-2.1.2/port\dhcpd.c ****         addr <= ntohl(server_config.end.s_addr);
 1197              		.loc 1 177 5
 177:C:/Users/stapi/OneDrive/Desktop/GD32VW553/GD32VW55X_Wifi_BLE_SDK/GD32VW55x_RELEASE_V1.0.2/MSDK/lwip/lwip-2.1.2/port\dhcpd.c ****         addr <= ntohl(server_config.end.s_addr);
 1198              		.loc 1 177 17 is_stmt 0
 1199 0076 37090000 		lui	s2,%hi(.LANCHOR0)
 1200 007a 93070900 		addi	a5,s2,%lo(.LANCHOR0)
 1201 007e 8847     		lw	a0,8(a5)
 1202 0080 13090900 		addi	s2,s2,%lo(.LANCHOR0)
 181:C:/Users/stapi/OneDrive/Desktop/GD32VW553/GD32VW55X_Wifi_BLE_SDK/GD32VW55x_RELEASE_V1.0.2/MSDK/lwip/lwip-2.1.2/port\dhcpd.c ****         (addr & 0xFF) == 0xFF ||
 1203              		.loc 1 181 32
 1204 0084 930AF00F 		li	s5,255
 177:C:/Users/stapi/OneDrive/Desktop/GD32VW553/GD32VW55X_Wifi_BLE_SDK/GD32VW55x_RELEASE_V1.0.2/MSDK/lwip/lwip-2.1.2/port\dhcpd.c ****         addr <= ntohl(server_config.end.s_addr);
 1205              		.loc 1 177 17
 1206 0088 97000000 		call	lwip_htonl
 1206      E7800000 
 1207              	.LVL103:
 1208 0090 AA84     		mv	s1,a0
 1209              	.LVL104:
 1210 0092 370B0000 		lui	s6,%hi(.LANCHOR1)
 1211              	.L66:
 178:C:/Users/stapi/OneDrive/Desktop/GD32VW553/GD32VW55X_Wifi_BLE_SDK/GD32VW55x_RELEASE_V1.0.2/MSDK/lwip/lwip-2.1.2/port\dhcpd.c ****          addr++ ) {
 1212              		.loc 1 178 9 is_stmt 1
 178:C:/Users/stapi/OneDrive/Desktop/GD32VW553/GD32VW55X_Wifi_BLE_SDK/GD32VW55x_RELEASE_V1.0.2/MSDK/lwip/lwip-2.1.2/port\dhcpd.c ****          addr++ ) {
 1213              		.loc 1 178 17 is_stmt 0
 1214 0096 0325C900 		lw	a0,12(s2)
 1215 009a 97000000 		call	lwip_htonl
 1215      E7800000 
 1216              	.LVL105:
 177:C:/Users/stapi/OneDrive/Desktop/GD32VW553/GD32VW55X_Wifi_BLE_SDK/GD32VW55x_RELEASE_V1.0.2/MSDK/lwip/lwip-2.1.2/port\dhcpd.c ****         addr <= ntohl(server_config.end.s_addr);
 1217              		.loc 1 177 5
 1218 00a2 63749500 		bleu	s1,a0,.L73
 195:C:/Users/stapi/OneDrive/Desktop/GD32VW553/GD32VW55X_Wifi_BLE_SDK/GD32VW55x_RELEASE_V1.0.2/MSDK/lwip/lwip-2.1.2/port\dhcpd.c **** }
 1219              		.loc 1 195 12
 1220 00a6 014A     		li	s4,0
 1221 00a8 1DA8     		j	.L83
 1222              	.L73:
 181:C:/Users/stapi/OneDrive/Desktop/GD32VW553/GD32VW55X_Wifi_BLE_SDK/GD32VW55x_RELEASE_V1.0.2/MSDK/lwip/lwip-2.1.2/port\dhcpd.c ****         (addr & 0xFF) == 0xFF ||
 1223              		.loc 1 181 9 is_stmt 1
 181:C:/Users/stapi/OneDrive/Desktop/GD32VW553/GD32VW55X_Wifi_BLE_SDK/GD32VW55x_RELEASE_V1.0.2/MSDK/lwip/lwip-2.1.2/port\dhcpd.c ****         (addr & 0xFF) == 0xFF ||
 1224              		.loc 1 181 19 is_stmt 0
 1225 00aa 93F7F40F 		andi	a5,s1,255
 181:C:/Users/stapi/OneDrive/Desktop/GD32VW553/GD32VW55X_Wifi_BLE_SDK/GD32VW55x_RELEASE_V1.0.2/MSDK/lwip/lwip-2.1.2/port\dhcpd.c ****         (addr & 0xFF) == 0xFF ||
 1226              		.loc 1 181 12
 1227 00ae A9CF     		beq	a5,zero,.L70
 181:C:/Users/stapi/OneDrive/Desktop/GD32VW553/GD32VW55X_Wifi_BLE_SDK/GD32VW55x_RELEASE_V1.0.2/MSDK/lwip/lwip-2.1.2/port\dhcpd.c ****         (addr & 0xFF) == 0xFF ||
 1228              		.loc 1 181 32
 1229 00b0 638C5705 		beq	a5,s5,.L70
 183:C:/Users/stapi/OneDrive/Desktop/GD32VW553/GD32VW55X_Wifi_BLE_SDK/GD32VW55x_RELEASE_V1.0.2/MSDK/lwip/lwip-2.1.2/port\dhcpd.c ****             continue;
 1230              		.loc 1 183 18
 1231 00b4 03250900 		lw	a0,0(s2)
 1232 00b8 97000000 		call	lwip_htonl
 1232      E7800000 
 1233              	.LVL106:
 182:C:/Users/stapi/OneDrive/Desktop/GD32VW553/GD32VW55X_Wifi_BLE_SDK/GD32VW55x_RELEASE_V1.0.2/MSDK/lwip/lwip-2.1.2/port\dhcpd.c ****         (addr == ntohl(server_config.server.s_addr))) {
 1234              		.loc 1 182 31
 1235 00c0 6384A404 		beq	s1,a0,.L70
 187:C:/Users/stapi/OneDrive/Desktop/GD32VW553/GD32VW55X_Wifi_BLE_SDK/GD32VW55x_RELEASE_V1.0.2/MSDK/lwip/lwip-2.1.2/port\dhcpd.c **** 
 1236              		.loc 1 187 9 is_stmt 1
 187:C:/Users/stapi/OneDrive/Desktop/GD32VW553/GD32VW55X_Wifi_BLE_SDK/GD32VW55x_RELEASE_V1.0.2/MSDK/lwip/lwip-2.1.2/port\dhcpd.c **** 
 1237              		.loc 1 187 22 is_stmt 0
 1238 00c4 2685     		mv	a0,s1
 1239 00c6 97000000 		call	lwip_htonl
 1239      E7800000 
 1240              	.LVL107:
 1241              	.LBB14:
 1242              	.LBB15:
 163:C:/Users/stapi/OneDrive/Desktop/GD32VW553/GD32VW55X_Wifi_BLE_SDK/GD32VW55x_RELEASE_V1.0.2/MSDK/lwip/lwip-2.1.2/port\dhcpd.c ****         if (leases[i].yiaddr.s_addr == yiaddr.s_addr) {
 1243              		.loc 1 163 34
 1244 00ce 83260902 		lw	a3,32(s2)
 1245              	.LBE15:
 1246              	.LBE14:
 187:C:/Users/stapi/OneDrive/Desktop/GD32VW553/GD32VW55X_Wifi_BLE_SDK/GD32VW55x_RELEASE_V1.0.2/MSDK/lwip/lwip-2.1.2/port\dhcpd.c **** 
 1247              		.loc 1 187 22
 1248 00d2 2A8A     		mv	s4,a0
 1249              	.LVL108:
 189:C:/Users/stapi/OneDrive/Desktop/GD32VW553/GD32VW55X_Wifi_BLE_SDK/GD32VW55x_RELEASE_V1.0.2/MSDK/lwip/lwip-2.1.2/port\dhcpd.c ****         if (lease  == 0) {
 1250              		.loc 1 189 9 is_stmt 1
 1251              	.LBB18:
 1252              	.LBB16:
 161:C:/Users/stapi/OneDrive/Desktop/GD32VW553/GD32VW55X_Wifi_BLE_SDK/GD32VW55x_RELEASE_V1.0.2/MSDK/lwip/lwip-2.1.2/port\dhcpd.c **** 
 1253              		.loc 1 161 5
 163:C:/Users/stapi/OneDrive/Desktop/GD32VW553/GD32VW55X_Wifi_BLE_SDK/GD32VW55x_RELEASE_V1.0.2/MSDK/lwip/lwip-2.1.2/port\dhcpd.c ****         if (leases[i].yiaddr.s_addr == yiaddr.s_addr) {
 1254              		.loc 1 163 5
 1255 00d4 13070B00 		addi	a4,s6,%lo(.LANCHOR1)
 163:C:/Users/stapi/OneDrive/Desktop/GD32VW553/GD32VW55X_Wifi_BLE_SDK/GD32VW55x_RELEASE_V1.0.2/MSDK/lwip/lwip-2.1.2/port\dhcpd.c ****         if (leases[i].yiaddr.s_addr == yiaddr.s_addr) {
 1256              		.loc 1 163 12 is_stmt 0
 1257 00d8 8147     		li	a5,0
 1258              	.LVL109:
 1259              	.L68:
 163:C:/Users/stapi/OneDrive/Desktop/GD32VW553/GD32VW55X_Wifi_BLE_SDK/GD32VW55x_RELEASE_V1.0.2/MSDK/lwip/lwip-2.1.2/port\dhcpd.c ****         if (leases[i].yiaddr.s_addr == yiaddr.s_addr) {
 1260              		.loc 1 163 17 is_stmt 1
 163:C:/Users/stapi/OneDrive/Desktop/GD32VW553/GD32VW55X_Wifi_BLE_SDK/GD32VW55x_RELEASE_V1.0.2/MSDK/lwip/lwip-2.1.2/port\dhcpd.c ****         if (leases[i].yiaddr.s_addr == yiaddr.s_addr) {
 1261              		.loc 1 163 5 is_stmt 0
 1262 00da 6390D702 		bne	a5,a3,.L71
 1263              	.LVL110:
 1264              	.L83:
 1265              	.LBE16:
 1266              	.LBE18:
 1267              	.LBE13:
 1268              	.LBE12:
 279:C:/Users/stapi/OneDrive/Desktop/GD32VW553/GD32VW55X_Wifi_BLE_SDK/GD32VW55x_RELEASE_V1.0.2/MSDK/lwip/lwip-2.1.2/port\dhcpd.c ****             if((leases[idx].flag & DELETED) != 0) {
 1269              		.loc 1 279 42
 1270 00de 83250902 		lw	a1,32(s2)
 280:C:/Users/stapi/OneDrive/Desktop/GD32VW553/GD32VW55X_Wifi_BLE_SDK/GD32VW55x_RELEASE_V1.0.2/MSDK/lwip/lwip-2.1.2/port\dhcpd.c ****                 deleted_lease_idx = idx;
 1271              		.loc 1 280 28
 1272 00e2 B7060000 		lui	a3,%hi(.LANCHOR1)
 266:C:/Users/stapi/OneDrive/Desktop/GD32VW553/GD32VW55X_Wifi_BLE_SDK/GD32VW55x_RELEASE_V1.0.2/MSDK/lwip/lwip-2.1.2/port\dhcpd.c ****     struct dhcpOfferedAddr *lease;
 1273              		.loc 1 266 21
 1274 00e6 FD54     		li	s1,-1
 1275              	.LVL111:
 279:C:/Users/stapi/OneDrive/Desktop/GD32VW553/GD32VW55X_Wifi_BLE_SDK/GD32VW55x_RELEASE_V1.0.2/MSDK/lwip/lwip-2.1.2/port\dhcpd.c ****             if((leases[idx].flag & DELETED) != 0) {
 1276              		.loc 1 279 18
 1277 00e8 8147     		li	a5,0
 280:C:/Users/stapi/OneDrive/Desktop/GD32VW553/GD32VW55X_Wifi_BLE_SDK/GD32VW55x_RELEASE_V1.0.2/MSDK/lwip/lwip-2.1.2/port\dhcpd.c ****                 deleted_lease_idx = idx;
 1278              		.loc 1 280 28
 1279 00ea 93860600 		addi	a3,a3,%lo(.LANCHOR1)
 1280              	.LVL112:
 1281              	.L74:
 279:C:/Users/stapi/OneDrive/Desktop/GD32VW553/GD32VW55X_Wifi_BLE_SDK/GD32VW55x_RELEASE_V1.0.2/MSDK/lwip/lwip-2.1.2/port\dhcpd.c ****             if((leases[idx].flag & DELETED) != 0) {
 1282              		.loc 1 279 23 is_stmt 1
 279:C:/Users/stapi/OneDrive/Desktop/GD32VW553/GD32VW55X_Wifi_BLE_SDK/GD32VW55x_RELEASE_V1.0.2/MSDK/lwip/lwip-2.1.2/port\dhcpd.c ****             if((leases[idx].flag & DELETED) != 0) {
 1283              		.loc 1 279 9 is_stmt 0
 1284 00ee 63EFB700 		bltu	a5,a1,.L77
 289:C:/Users/stapi/OneDrive/Desktop/GD32VW553/GD32VW55X_Wifi_BLE_SDK/GD32VW55x_RELEASE_V1.0.2/MSDK/lwip/lwip-2.1.2/port\dhcpd.c ****             return -1;
 1285              		.loc 1 289 9 is_stmt 1
 289:C:/Users/stapi/OneDrive/Desktop/GD32VW553/GD32VW55X_Wifi_BLE_SDK/GD32VW55x_RELEASE_V1.0.2/MSDK/lwip/lwip-2.1.2/port\dhcpd.c ****             return -1;
 1286              		.loc 1 289 47 is_stmt 0
 1287 00f2 FD57     		li	a5,-1
 1288              	.LVL113:
 1289 00f4 6397F402 		bne	s1,a5,.L76
 1290 00f8 69A0     		j	.L105
 1291              	.LVL114:
 1292              	.L71:
 1293              	.LBB21:
 1294              	.LBB20:
 1295              	.LBB19:
 1296              	.LBB17:
 164:C:/Users/stapi/OneDrive/Desktop/GD32VW553/GD32VW55X_Wifi_BLE_SDK/GD32VW55x_RELEASE_V1.0.2/MSDK/lwip/lwip-2.1.2/port\dhcpd.c ****             return &leases[i];
 1297              		.loc 1 164 9 is_stmt 1
 164:C:/Users/stapi/OneDrive/Desktop/GD32VW553/GD32VW55X_Wifi_BLE_SDK/GD32VW55x_RELEASE_V1.0.2/MSDK/lwip/lwip-2.1.2/port\dhcpd.c ****             return &leases[i];
 1298              		.loc 1 164 12 is_stmt 0
 1299 00fa 104B     		lw	a2,16(a4)
 1300 00fc 13070702 		addi	a4,a4,32
 1301 0100 6304CA00 		beq	s4,a2,.L70
 163:C:/Users/stapi/OneDrive/Desktop/GD32VW553/GD32VW55X_Wifi_BLE_SDK/GD32VW55x_RELEASE_V1.0.2/MSDK/lwip/lwip-2.1.2/port\dhcpd.c ****         if (leases[i].yiaddr.s_addr == yiaddr.s_addr) {
 1302              		.loc 1 163 47 is_stmt 1
 163:C:/Users/stapi/OneDrive/Desktop/GD32VW553/GD32VW55X_Wifi_BLE_SDK/GD32VW55x_RELEASE_V1.0.2/MSDK/lwip/lwip-2.1.2/port\dhcpd.c ****         if (leases[i].yiaddr.s_addr == yiaddr.s_addr) {
 1303              		.loc 1 163 48 is_stmt 0
 1304 0104 8507     		addi	a5,a5,1
 1305              	.LVL115:
 1306 0106 D1BF     		j	.L68
 1307              	.LVL116:
 1308              	.L70:
 1309              	.LBE17:
 1310              	.LBE19:
 179:C:/Users/stapi/OneDrive/Desktop/GD32VW553/GD32VW55X_Wifi_BLE_SDK/GD32VW55x_RELEASE_V1.0.2/MSDK/lwip/lwip-2.1.2/port\dhcpd.c ****         // ie, xx.xx.xx.0 or xx.xx.xx.255 or itself
 1311              		.loc 1 179 10 is_stmt 1
 179:C:/Users/stapi/OneDrive/Desktop/GD32VW553/GD32VW55X_Wifi_BLE_SDK/GD32VW55x_RELEASE_V1.0.2/MSDK/lwip/lwip-2.1.2/port\dhcpd.c ****         // ie, xx.xx.xx.0 or xx.xx.xx.255 or itself
 1312              		.loc 1 179 14 is_stmt 0
 1313 0108 8504     		addi	s1,s1,1
 1314              	.LVL117:
 1315 010a 71B7     		j	.L66
 1316              	.LVL118:
 1317              	.L77:
 1318              	.LBE20:
 1319              	.LBE21:
 280:C:/Users/stapi/OneDrive/Desktop/GD32VW553/GD32VW55X_Wifi_BLE_SDK/GD32VW55x_RELEASE_V1.0.2/MSDK/lwip/lwip-2.1.2/port\dhcpd.c ****                 deleted_lease_idx = idx;
 1320              		.loc 1 280 13 is_stmt 1
 280:C:/Users/stapi/OneDrive/Desktop/GD32VW553/GD32VW55X_Wifi_BLE_SDK/GD32VW55x_RELEASE_V1.0.2/MSDK/lwip/lwip-2.1.2/port\dhcpd.c ****                 deleted_lease_idx = idx;
 1321              		.loc 1 280 28 is_stmt 0
 1322 010c 13975700 		slli	a4,a5,5
 1323 0110 3697     		add	a4,a3,a4
 280:C:/Users/stapi/OneDrive/Desktop/GD32VW553/GD32VW55X_Wifi_BLE_SDK/GD32VW55x_RELEASE_V1.0.2/MSDK/lwip/lwip-2.1.2/port\dhcpd.c ****                 deleted_lease_idx = idx;
 1324              		.loc 1 280 15
 1325 0112 0346C701 		lbu	a2,28(a4)
 1326 0116 218A     		andi	a2,a2,8
 1327 0118 3DEA     		bne	a2,zero,.L85
 282:C:/Users/stapi/OneDrive/Desktop/GD32VW553/GD32VW55X_Wifi_BLE_SDK/GD32VW55x_RELEASE_V1.0.2/MSDK/lwip/lwip-2.1.2/port\dhcpd.c ****                 deleted_lease_idx = -1;
 1328              		.loc 1 282 20 is_stmt 1
 282:C:/Users/stapi/OneDrive/Desktop/GD32VW553/GD32VW55X_Wifi_BLE_SDK/GD32VW55x_RELEASE_V1.0.2/MSDK/lwip/lwip-2.1.2/port\dhcpd.c ****                 deleted_lease_idx = -1;
 1329              		.loc 1 282 23 is_stmt 0
 1330 011a 03470700 		lbu	a4,0(a4)
 1331 011e 2DEB     		bne	a4,zero,.L75
 1332 0120 BE84     		mv	s1,a5
 1333              	.LVL119:
 1334              	.L76:
 296:C:/Users/stapi/OneDrive/Desktop/GD32VW553/GD32VW55X_Wifi_BLE_SDK/GD32VW55x_RELEASE_V1.0.2/MSDK/lwip/lwip-2.1.2/port\dhcpd.c ****         leases[idx].yiaddr = addr;
 1335              		.loc 1 296 9 is_stmt 1
 1336 0122 93975400 		slli	a5,s1,5
 1337 0126 B7040000 		lui	s1,%hi(.LANCHOR1)
 1338              	.LVL120:
 1339 012a 93840400 		addi	s1,s1,%lo(.LANCHOR1)
 1340 012e BE94     		add	s1,s1,a5
 1341 0130 1946     		li	a2,6
 1342 0132 CE85     		mv	a1,s3
 1343 0134 2685     		mv	a0,s1
 1344 0136 97000000 		call	memcpy
 1344      E7800000 
 1345              	.LVL121:
 297:C:/Users/stapi/OneDrive/Desktop/GD32VW553/GD32VW55X_Wifi_BLE_SDK/GD32VW55x_RELEASE_V1.0.2/MSDK/lwip/lwip-2.1.2/port\dhcpd.c ****         lease = &(leases[idx]);
 1346              		.loc 1 297 9
 297:C:/Users/stapi/OneDrive/Desktop/GD32VW553/GD32VW55X_Wifi_BLE_SDK/GD32VW55x_RELEASE_V1.0.2/MSDK/lwip/lwip-2.1.2/port\dhcpd.c ****         lease = &(leases[idx]);
 1347              		.loc 1 297 28 is_stmt 0
 1348 013e 23A84401 		sw	s4,16(s1)
 298:C:/Users/stapi/OneDrive/Desktop/GD32VW553/GD32VW55X_Wifi_BLE_SDK/GD32VW55x_RELEASE_V1.0.2/MSDK/lwip/lwip-2.1.2/port\dhcpd.c ****     }
 1349              		.loc 1 298 9 is_stmt 1
 1350              	.LVL122:
 1351              	.L65:
 301:C:/Users/stapi/OneDrive/Desktop/GD32VW553/GD32VW55X_Wifi_BLE_SDK/GD32VW55x_RELEASE_V1.0.2/MSDK/lwip/lwip-2.1.2/port\dhcpd.c ****     make_dhcpd_packet(&payload_out, packetinfo, DHCPOFFER);
 1352              		.loc 1 301 5
 1353 0142 37050000 		lui	a0,%hi(.LANCHOR2)
 1354 0146 13090500 		addi	s2,a0,%lo(.LANCHOR2)
 1355 014a 13064022 		li	a2,548
 1356 014e 8145     		li	a1,0
 1357 0150 13050500 		addi	a0,a0,%lo(.LANCHOR2)
 1358 0154 97000000 		call	memset
 1358      E7800000 
 1359              	.LVL123:
 302:C:/Users/stapi/OneDrive/Desktop/GD32VW553/GD32VW55X_Wifi_BLE_SDK/GD32VW55x_RELEASE_V1.0.2/MSDK/lwip/lwip-2.1.2/port\dhcpd.c ****     payload_out.yiaddr = lease->yiaddr.s_addr;
 1360              		.loc 1 302 5
 1361 015c 2285     		mv	a0,s0
 1362 015e 97000000 		call	make_dhcpd_packet.constprop.0
 1362      E7800000 
 1363              	.LVL124:
 303:C:/Users/stapi/OneDrive/Desktop/GD32VW553/GD32VW55X_Wifi_BLE_SDK/GD32VW55x_RELEASE_V1.0.2/MSDK/lwip/lwip-2.1.2/port\dhcpd.c ****     if (packetinfo->flags == 0) {
 1364              		.loc 1 303 5
 303:C:/Users/stapi/OneDrive/Desktop/GD32VW553/GD32VW55X_Wifi_BLE_SDK/GD32VW55x_RELEASE_V1.0.2/MSDK/lwip/lwip-2.1.2/port\dhcpd.c ****     if (packetinfo->flags == 0) {
 1365              		.loc 1 303 39 is_stmt 0
 1366 0166 9848     		lw	a4,16(s1)
 303:C:/Users/stapi/OneDrive/Desktop/GD32VW553/GD32VW55X_Wifi_BLE_SDK/GD32VW55x_RELEASE_V1.0.2/MSDK/lwip/lwip-2.1.2/port\dhcpd.c ****     if (packetinfo->flags == 0) {
 1367              		.loc 1 303 24
 1368 0168 2328E900 		sw	a4,16(s2)
 304:C:/Users/stapi/OneDrive/Desktop/GD32VW553/GD32VW55X_Wifi_BLE_SDK/GD32VW55x_RELEASE_V1.0.2/MSDK/lwip/lwip-2.1.2/port\dhcpd.c **** #if LWIP_IPV6
 1369              		.loc 1 304 5 is_stmt 1
 304:C:/Users/stapi/OneDrive/Desktop/GD32VW553/GD32VW55X_Wifi_BLE_SDK/GD32VW55x_RELEASE_V1.0.2/MSDK/lwip/lwip-2.1.2/port\dhcpd.c **** #if LWIP_IPV6
 1370              		.loc 1 304 19 is_stmt 0
 1371 016c 8347B400 		lbu	a5,11(s0)
 1372 0170 8346A400 		lbu	a3,10(s0)
 1373 0174 A207     		slli	a5,a5,8
 304:C:/Users/stapi/OneDrive/Desktop/GD32VW553/GD32VW55X_Wifi_BLE_SDK/GD32VW55x_RELEASE_V1.0.2/MSDK/lwip/lwip-2.1.2/port\dhcpd.c **** #if LWIP_IPV6
 1374              		.loc 1 304 8
 1375 0176 D58F     		or	a5,a5,a3
 1376 0178 89E7     		bne	a5,zero,.L105
 308:C:/Users/stapi/OneDrive/Desktop/GD32VW553/GD32VW55X_Wifi_BLE_SDK/GD32VW55x_RELEASE_V1.0.2/MSDK/lwip/lwip-2.1.2/port\dhcpd.c **** #endif
 1377              		.loc 1 308 13 is_stmt 1
 308:C:/Users/stapi/OneDrive/Desktop/GD32VW553/GD32VW55X_Wifi_BLE_SDK/GD32VW55x_RELEASE_V1.0.2/MSDK/lwip/lwip-2.1.2/port\dhcpd.c **** #endif
 1378              		.loc 1 308 27 is_stmt 0
 1379 017a B7070000 		lui	a5,%hi(.LANCHOR3)
 1380 017e 23A0E700 		sw	a4,%lo(.LANCHOR3)(a5)
 1381              	.LVL125:
 1382              	.L105:
 1383              	.LBE11:
 1384              	.LBE10:
 1385              	.LBB23:
 1386              	.LBB24:
 490:C:/Users/stapi/OneDrive/Desktop/GD32VW553/GD32VW55X_Wifi_BLE_SDK/GD32VW55x_RELEASE_V1.0.2/MSDK/lwip/lwip-2.1.2/port\dhcpd.c ****         break;
 491:C:/Users/stapi/OneDrive/Desktop/GD32VW553/GD32VW55X_Wifi_BLE_SDK/GD32VW55x_RELEASE_V1.0.2/MSDK/lwip/lwip-2.1.2/port\dhcpd.c **** 
 492:C:/Users/stapi/OneDrive/Desktop/GD32VW553/GD32VW55X_Wifi_BLE_SDK/GD32VW55x_RELEASE_V1.0.2/MSDK/lwip/lwip-2.1.2/port\dhcpd.c ****     case DHCPREQUEST:
 493:C:/Users/stapi/OneDrive/Desktop/GD32VW553/GD32VW55X_Wifi_BLE_SDK/GD32VW55x_RELEASE_V1.0.2/MSDK/lwip/lwip-2.1.2/port\dhcpd.c ****         // add detection if DHCPREQUEST frame was sent to us for wifi concurrent mode, refer to bug
 494:C:/Users/stapi/OneDrive/Desktop/GD32VW553/GD32VW55X_Wifi_BLE_SDK/GD32VW55x_RELEASE_V1.0.2/MSDK/lwip/lwip-2.1.2/port\dhcpd.c ****         if ((((struct dhcpd *)packet_addr)->ciaddr != 0) && (((((struct dhcpd *)packet_addr)->ciadd
 495:C:/Users/stapi/OneDrive/Desktop/GD32VW553/GD32VW55X_Wifi_BLE_SDK/GD32VW55x_RELEASE_V1.0.2/MSDK/lwip/lwip-2.1.2/port\dhcpd.c ****             return 0;
 496:C:/Users/stapi/OneDrive/Desktop/GD32VW553/GD32VW55X_Wifi_BLE_SDK/GD32VW55x_RELEASE_V1.0.2/MSDK/lwip/lwip-2.1.2/port\dhcpd.c ****         } else if (dhcpd_pickup_opt((struct dhcpd *)packet_addr, DHCP_REQUESTED_IP, sizeof(s_addr),
 497:C:/Users/stapi/OneDrive/Desktop/GD32VW553/GD32VW55X_Wifi_BLE_SDK/GD32VW55x_RELEASE_V1.0.2/MSDK/lwip/lwip-2.1.2/port\dhcpd.c ****             if (((server_config.siaddr.s_addr >> 16) & 0xFF) != ((s_addr >> 16) & 0xFF)) {
 498:C:/Users/stapi/OneDrive/Desktop/GD32VW553/GD32VW55X_Wifi_BLE_SDK/GD32VW55x_RELEASE_V1.0.2/MSDK/lwip/lwip-2.1.2/port\dhcpd.c ****                 return 0;
 499:C:/Users/stapi/OneDrive/Desktop/GD32VW553/GD32VW55X_Wifi_BLE_SDK/GD32VW55x_RELEASE_V1.0.2/MSDK/lwip/lwip-2.1.2/port\dhcpd.c ****             }
 500:C:/Users/stapi/OneDrive/Desktop/GD32VW553/GD32VW55X_Wifi_BLE_SDK/GD32VW55x_RELEASE_V1.0.2/MSDK/lwip/lwip-2.1.2/port\dhcpd.c ****         }
 501:C:/Users/stapi/OneDrive/Desktop/GD32VW553/GD32VW55X_Wifi_BLE_SDK/GD32VW55x_RELEASE_V1.0.2/MSDK/lwip/lwip-2.1.2/port\dhcpd.c ****         LWIP_DEBUGF(DHCP_DEBUG | LWIP_DBG_TRACE, ("[DHCPD]: request packet...\n\r"));
 502:C:/Users/stapi/OneDrive/Desktop/GD32VW553/GD32VW55X_Wifi_BLE_SDK/GD32VW55x_RELEASE_V1.0.2/MSDK/lwip/lwip-2.1.2/port\dhcpd.c ****         request(packet_addr);
 503:C:/Users/stapi/OneDrive/Desktop/GD32VW553/GD32VW55X_Wifi_BLE_SDK/GD32VW55x_RELEASE_V1.0.2/MSDK/lwip/lwip-2.1.2/port\dhcpd.c ****         break;
 1387              		.loc 1 503 9 is_stmt 1
 504:C:/Users/stapi/OneDrive/Desktop/GD32VW553/GD32VW55X_Wifi_BLE_SDK/GD32VW55x_RELEASE_V1.0.2/MSDK/lwip/lwip-2.1.2/port\dhcpd.c **** 
 505:C:/Users/stapi/OneDrive/Desktop/GD32VW553/GD32VW55X_Wifi_BLE_SDK/GD32VW55x_RELEASE_V1.0.2/MSDK/lwip/lwip-2.1.2/port\dhcpd.c ****     default:
 506:C:/Users/stapi/OneDrive/Desktop/GD32VW553/GD32VW55X_Wifi_BLE_SDK/GD32VW55x_RELEASE_V1.0.2/MSDK/lwip/lwip-2.1.2/port\dhcpd.c ****         LWIP_DEBUGF(DHCP_DEBUG | LWIP_DBG_TRACE, ("[DHCPD]: unknown message\n\r"));
 507:C:/Users/stapi/OneDrive/Desktop/GD32VW553/GD32VW55X_Wifi_BLE_SDK/GD32VW55x_RELEASE_V1.0.2/MSDK/lwip/lwip-2.1.2/port\dhcpd.c ****         return 0;
 508:C:/Users/stapi/OneDrive/Desktop/GD32VW553/GD32VW55X_Wifi_BLE_SDK/GD32VW55x_RELEASE_V1.0.2/MSDK/lwip/lwip-2.1.2/port\dhcpd.c ****     }
 509:C:/Users/stapi/OneDrive/Desktop/GD32VW553/GD32VW55X_Wifi_BLE_SDK/GD32VW55x_RELEASE_V1.0.2/MSDK/lwip/lwip-2.1.2/port\dhcpd.c ****     return 1;
 1388              		.loc 1 509 12 is_stmt 0
 1389 0182 0545     		li	a0,1
 1390              	.L102:
 1391              	.LBE24:
 1392              	.LBE23:
 510:C:/Users/stapi/OneDrive/Desktop/GD32VW553/GD32VW55X_Wifi_BLE_SDK/GD32VW55x_RELEASE_V1.0.2/MSDK/lwip/lwip-2.1.2/port\dhcpd.c **** }
 1393              		.loc 1 510 1
 1394 0184 4101     		addi	sp,sp,16
 1395              		.cfi_remember_state
 1396              		.cfi_def_cfa_offset 0
 1397 0186 17030000 		tail	__riscv_restore_7
 1397      67000300 
 1398              		.cfi_restore 22
 1399              		.cfi_restore 21
 1400              		.cfi_restore 20
 1401              		.cfi_restore 19
 1402              		.cfi_restore 18
 1403              		.cfi_restore 9
 1404              		.cfi_restore 8
 1405              		.cfi_restore 1
 1406              		.cfi_def_cfa_offset -32
 1407              	.LVL126:
 1408              	.L85:
 1409              		.cfi_restore_state
 1410              	.LBB26:
 1411              	.LBB22:
 1412 018e BE84     		mv	s1,a5
 1413              	.LVL127:
 1414              	.L75:
 279:C:/Users/stapi/OneDrive/Desktop/GD32VW553/GD32VW55X_Wifi_BLE_SDK/GD32VW55x_RELEASE_V1.0.2/MSDK/lwip/lwip-2.1.2/port\dhcpd.c ****             if((leases[idx].flag & DELETED) != 0) {
 1415              		.loc 1 279 55 is_stmt 1
 1416 0190 8507     		addi	a5,a5,1
 1417              	.LVL128:
 1418 0192 93974760 		sext.b	a5,a5
 1419              	.LVL129:
 1420 0196 A1BF     		j	.L74
 1421              	.LVL130:
 1422              	.L61:
 1423              	.LBE22:
 1424              	.LBE26:
 1425              	.LBB27:
 1426              	.LBB25:
 494:C:/Users/stapi/OneDrive/Desktop/GD32VW553/GD32VW55X_Wifi_BLE_SDK/GD32VW55x_RELEASE_V1.0.2/MSDK/lwip/lwip-2.1.2/port\dhcpd.c ****             return 0;
 1427              		.loc 1 494 9
 494:C:/Users/stapi/OneDrive/Desktop/GD32VW553/GD32VW55X_Wifi_BLE_SDK/GD32VW55x_RELEASE_V1.0.2/MSDK/lwip/lwip-2.1.2/port\dhcpd.c ****             return 0;
 1428              		.loc 1 494 43 is_stmt 0
 1429 0198 0347D400 		lbu	a4,13(s0)
 1430 019c 8347C400 		lbu	a5,12(s0)
 1431 01a0 2207     		slli	a4,a4,8
 1432 01a2 5D8F     		or	a4,a4,a5
 1433 01a4 8347E400 		lbu	a5,14(s0)
 1434 01a8 C207     		slli	a5,a5,16
 1435 01aa 5D8F     		or	a4,a5,a4
 1436 01ac 8347F400 		lbu	a5,15(s0)
 1437 01b0 E207     		slli	a5,a5,24
 1438 01b2 D98F     		or	a5,a5,a4
 494:C:/Users/stapi/OneDrive/Desktop/GD32VW553/GD32VW55X_Wifi_BLE_SDK/GD32VW55x_RELEASE_V1.0.2/MSDK/lwip/lwip-2.1.2/port\dhcpd.c ****             return 0;
 1439              		.loc 1 494 12
 1440 01b4 99CB     		beq	a5,zero,.L79
 494:C:/Users/stapi/OneDrive/Desktop/GD32VW553/GD32VW55X_Wifi_BLE_SDK/GD32VW55x_RELEASE_V1.0.2/MSDK/lwip/lwip-2.1.2/port\dhcpd.c ****             return 0;
 1441              		.loc 1 494 150
 1442 01b6 37070000 		lui	a4,%hi(.LANCHOR0+56)
 1443 01ba 0357A703 		lhu	a4,%lo(.LANCHOR0+58)(a4)
 494:C:/Users/stapi/OneDrive/Desktop/GD32VW553/GD32VW55X_Wifi_BLE_SDK/GD32VW55x_RELEASE_V1.0.2/MSDK/lwip/lwip-2.1.2/port\dhcpd.c ****             return 0;
 1444              		.loc 1 494 102
 1445 01be C183     		srli	a5,a5,16
 494:C:/Users/stapi/OneDrive/Desktop/GD32VW553/GD32VW55X_Wifi_BLE_SDK/GD32VW55x_RELEASE_V1.0.2/MSDK/lwip/lwip-2.1.2/port\dhcpd.c ****             return 0;
 1446              		.loc 1 494 117
 1447 01c0 B98F     		xor	a5,a4,a5
 1448 01c2 93F7F70F 		andi	a5,a5,255
 494:C:/Users/stapi/OneDrive/Desktop/GD32VW553/GD32VW55X_Wifi_BLE_SDK/GD32VW55x_RELEASE_V1.0.2/MSDK/lwip/lwip-2.1.2/port\dhcpd.c ****             return 0;
 1449              		.loc 1 494 58
 1450 01c6 E39507E6 		bne	a5,zero,.L84
 1451              	.L79:
 496:C:/Users/stapi/OneDrive/Desktop/GD32VW553/GD32VW55X_Wifi_BLE_SDK/GD32VW55x_RELEASE_V1.0.2/MSDK/lwip/lwip-2.1.2/port\dhcpd.c ****             if (((server_config.siaddr.s_addr >> 16) & 0xFF) != ((s_addr >> 16) & 0xFF)) {
 1452              		.loc 1 496 16 is_stmt 1
 496:C:/Users/stapi/OneDrive/Desktop/GD32VW553/GD32VW55X_Wifi_BLE_SDK/GD32VW55x_RELEASE_V1.0.2/MSDK/lwip/lwip-2.1.2/port\dhcpd.c ****             if (((server_config.siaddr.s_addr >> 16) & 0xFF) != ((s_addr >> 16) & 0xFF)) {
 1453              		.loc 1 496 20 is_stmt 0
 1454 01ca 7400     		addi	a3,sp,12
 1455 01cc 1146     		li	a2,4
 1456 01ce 93052003 		li	a1,50
 1457 01d2 2285     		mv	a0,s0
 1458 01d4 97000000 		call	dhcpd_pickup_opt
 1458      E7800000 
 1459              	.LVL131:
 496:C:/Users/stapi/OneDrive/Desktop/GD32VW553/GD32VW55X_Wifi_BLE_SDK/GD32VW55x_RELEASE_V1.0.2/MSDK/lwip/lwip-2.1.2/port\dhcpd.c ****             if (((server_config.siaddr.s_addr >> 16) & 0xFF) != ((s_addr >> 16) & 0xFF)) {
 1460              		.loc 1 496 19
 1461 01dc 01CD     		beq	a0,zero,.L81
 497:C:/Users/stapi/OneDrive/Desktop/GD32VW553/GD32VW55X_Wifi_BLE_SDK/GD32VW55x_RELEASE_V1.0.2/MSDK/lwip/lwip-2.1.2/port\dhcpd.c ****                 return 0;
 1462              		.loc 1 497 13 is_stmt 1
 497:C:/Users/stapi/OneDrive/Desktop/GD32VW553/GD32VW55X_Wifi_BLE_SDK/GD32VW55x_RELEASE_V1.0.2/MSDK/lwip/lwip-2.1.2/port\dhcpd.c ****                 return 0;
 1463              		.loc 1 497 47 is_stmt 0
 1464 01de B7070000 		lui	a5,%hi(.LANCHOR0+56)
 1465 01e2 83D7A703 		lhu	a5,%lo(.LANCHOR0+58)(a5)
 497:C:/Users/stapi/OneDrive/Desktop/GD32VW553/GD32VW55X_Wifi_BLE_SDK/GD32VW55x_RELEASE_V1.0.2/MSDK/lwip/lwip-2.1.2/port\dhcpd.c ****                 return 0;
 1466              		.loc 1 497 74
 1467 01e6 0357E100 		lhu	a4,14(sp)
 497:C:/Users/stapi/OneDrive/Desktop/GD32VW553/GD32VW55X_Wifi_BLE_SDK/GD32VW55x_RELEASE_V1.0.2/MSDK/lwip/lwip-2.1.2/port\dhcpd.c ****                 return 0;
 1468              		.loc 1 497 62
 1469 01ea B98F     		xor	a5,a5,a4
 1470 01ec 93F7F70F 		andi	a5,a5,255
 497:C:/Users/stapi/OneDrive/Desktop/GD32VW553/GD32VW55X_Wifi_BLE_SDK/GD32VW55x_RELEASE_V1.0.2/MSDK/lwip/lwip-2.1.2/port\dhcpd.c ****                 return 0;
 1471              		.loc 1 497 16
 1472 01f0 E39007E4 		bne	a5,zero,.L84
 1473              	.L81:
 501:C:/Users/stapi/OneDrive/Desktop/GD32VW553/GD32VW55X_Wifi_BLE_SDK/GD32VW55x_RELEASE_V1.0.2/MSDK/lwip/lwip-2.1.2/port\dhcpd.c ****         request(packet_addr);
 1474              		.loc 1 501 85 is_stmt 1
 502:C:/Users/stapi/OneDrive/Desktop/GD32VW553/GD32VW55X_Wifi_BLE_SDK/GD32VW55x_RELEASE_V1.0.2/MSDK/lwip/lwip-2.1.2/port\dhcpd.c ****         break;
 1475              		.loc 1 502 9
 1476 01f4 2285     		mv	a0,s0
 1477 01f6 97000000 		call	request.isra.0
 1477      E7800000 
 1478              	.LVL132:
 1479 01fe 51B7     		j	.L105
 1480              	.LBE25:
 1481              	.LBE27:
 1482              		.cfi_endproc
 1483              	.LFE15:
 1485              		.section	.text.UDP_Receive,"ax",@progbits
 1486              		.align	1
 1488              	UDP_Receive:
 1489              	.LFB16:
 511:C:/Users/stapi/OneDrive/Desktop/GD32VW553/GD32VW55X_Wifi_BLE_SDK/GD32VW55x_RELEASE_V1.0.2/MSDK/lwip/lwip-2.1.2/port\dhcpd.c **** 
 512:C:/Users/stapi/OneDrive/Desktop/GD32VW553/GD32VW55X_Wifi_BLE_SDK/GD32VW55x_RELEASE_V1.0.2/MSDK/lwip/lwip-2.1.2/port\dhcpd.c **** static void UDP_Receive(void *arg, struct udp_pcb *upcb, struct pbuf *p, const ip_addr_t *addr, uin
 513:C:/Users/stapi/OneDrive/Desktop/GD32VW553/GD32VW55X_Wifi_BLE_SDK/GD32VW55x_RELEASE_V1.0.2/MSDK/lwip/lwip-2.1.2/port\dhcpd.c **** {
 1490              		.loc 1 513 1
 1491              		.cfi_startproc
 1492              	.LVL133:
 1493 0000 17030000 		call	t0,__riscv_save_5
 1493      E7020300 
 1494              		.cfi_offset 20, -24
 1495              		.cfi_offset 19, -20
 1496              		.cfi_offset 18, -16
 1497              		.cfi_offset 9, -12
 1498              		.cfi_offset 8, -8
 1499              		.cfi_offset 1, -4
 1500              		.cfi_def_cfa_offset 32
 514:C:/Users/stapi/OneDrive/Desktop/GD32VW553/GD32VW55X_Wifi_BLE_SDK/GD32VW55x_RELEASE_V1.0.2/MSDK/lwip/lwip-2.1.2/port\dhcpd.c ****     struct pbuf *q;
 1501              		.loc 1 514 5
 515:C:/Users/stapi/OneDrive/Desktop/GD32VW553/GD32VW55X_Wifi_BLE_SDK/GD32VW55x_RELEASE_V1.0.2/MSDK/lwip/lwip-2.1.2/port\dhcpd.c **** 
 516:C:/Users/stapi/OneDrive/Desktop/GD32VW553/GD32VW55X_Wifi_BLE_SDK/GD32VW55x_RELEASE_V1.0.2/MSDK/lwip/lwip-2.1.2/port\dhcpd.c **** #if LWIP_IPV6
 517:C:/Users/stapi/OneDrive/Desktop/GD32VW553/GD32VW55X_Wifi_BLE_SDK/GD32VW55x_RELEASE_V1.0.2/MSDK/lwip/lwip-2.1.2/port\dhcpd.c ****     if (addr->type == IPADDR_TYPE_V6) {
 518:C:/Users/stapi/OneDrive/Desktop/GD32VW553/GD32VW55X_Wifi_BLE_SDK/GD32VW55x_RELEASE_V1.0.2/MSDK/lwip/lwip-2.1.2/port\dhcpd.c ****         destAddr.type = IPADDR_TYPE_V6;
 519:C:/Users/stapi/OneDrive/Desktop/GD32VW553/GD32VW55X_Wifi_BLE_SDK/GD32VW55x_RELEASE_V1.0.2/MSDK/lwip/lwip-2.1.2/port\dhcpd.c ****         destAddr.u_addr.ip6.addr[0] = 0xff;
 520:C:/Users/stapi/OneDrive/Desktop/GD32VW553/GD32VW55X_Wifi_BLE_SDK/GD32VW55x_RELEASE_V1.0.2/MSDK/lwip/lwip-2.1.2/port\dhcpd.c ****     } else {
 521:C:/Users/stapi/OneDrive/Desktop/GD32VW553/GD32VW55X_Wifi_BLE_SDK/GD32VW55x_RELEASE_V1.0.2/MSDK/lwip/lwip-2.1.2/port\dhcpd.c ****         destAddr.type = IPADDR_TYPE_V4;
 522:C:/Users/stapi/OneDrive/Desktop/GD32VW553/GD32VW55X_Wifi_BLE_SDK/GD32VW55x_RELEASE_V1.0.2/MSDK/lwip/lwip-2.1.2/port\dhcpd.c ****         destAddr.u_addr.ip4.addr = htonl(IPADDR_BROADCAST);
 523:C:/Users/stapi/OneDrive/Desktop/GD32VW553/GD32VW55X_Wifi_BLE_SDK/GD32VW55x_RELEASE_V1.0.2/MSDK/lwip/lwip-2.1.2/port\dhcpd.c ****     }
 524:C:/Users/stapi/OneDrive/Desktop/GD32VW553/GD32VW55X_Wifi_BLE_SDK/GD32VW55x_RELEASE_V1.0.2/MSDK/lwip/lwip-2.1.2/port\dhcpd.c **** #else
 525:C:/Users/stapi/OneDrive/Desktop/GD32VW553/GD32VW55X_Wifi_BLE_SDK/GD32VW55x_RELEASE_V1.0.2/MSDK/lwip/lwip-2.1.2/port\dhcpd.c ****     ip_addr_set_ip4_u32(&destAddr, htonl(IPADDR_BROADCAST));
 1502              		.loc 1 525 5
 1503 0008 7D55     		li	a0,-1
 1504              	.LVL134:
 513:C:/Users/stapi/OneDrive/Desktop/GD32VW553/GD32VW55X_Wifi_BLE_SDK/GD32VW55x_RELEASE_V1.0.2/MSDK/lwip/lwip-2.1.2/port\dhcpd.c ****     struct pbuf *q;
 1505              		.loc 1 513 1 is_stmt 0
 1506 000a 2E89     		mv	s2,a1
 1507 000c B284     		mv	s1,a2
 1508 000e BA89     		mv	s3,a4
 1509              		.loc 1 525 5
 1510 0010 370A0000 		lui	s4,%hi(.LANCHOR3)
 1511 0014 97000000 		call	lwip_htonl
 1511      E7800000 
 1512              	.LVL135:
 1513 001c 2320AA00 		sw	a0,%lo(.LANCHOR3)(s4)
 526:C:/Users/stapi/OneDrive/Desktop/GD32VW553/GD32VW55X_Wifi_BLE_SDK/GD32VW55x_RELEASE_V1.0.2/MSDK/lwip/lwip-2.1.2/port\dhcpd.c **** #endif
 527:C:/Users/stapi/OneDrive/Desktop/GD32VW553/GD32VW55X_Wifi_BLE_SDK/GD32VW55x_RELEASE_V1.0.2/MSDK/lwip/lwip-2.1.2/port\dhcpd.c **** 
 528:C:/Users/stapi/OneDrive/Desktop/GD32VW553/GD32VW55X_Wifi_BLE_SDK/GD32VW55x_RELEASE_V1.0.2/MSDK/lwip/lwip-2.1.2/port\dhcpd.c ****     if (p != NULL) {
 1514              		.loc 1 528 5 is_stmt 1
 1515              		.loc 1 528 8 is_stmt 0
 1516 0020 B9C8     		beq	s1,zero,.L106
 1517              	.LVL136:
 1518              	.LBB30:
 1519              	.LBB31:
 529:C:/Users/stapi/OneDrive/Desktop/GD32VW553/GD32VW55X_Wifi_BLE_SDK/GD32VW55x_RELEASE_V1.0.2/MSDK/lwip/lwip-2.1.2/port\dhcpd.c ****         LWIP_DEBUGF(DHCP_DEBUG | LWIP_DBG_TRACE, ("[DHCPD]: UDP_Receive ....\r\n"));
 1520              		.loc 1 529 84 is_stmt 1
 530:C:/Users/stapi/OneDrive/Desktop/GD32VW553/GD32VW55X_Wifi_BLE_SDK/GD32VW55x_RELEASE_V1.0.2/MSDK/lwip/lwip-2.1.2/port\dhcpd.c ****         if (dhcp_process(p->payload) != 0) {
 1521              		.loc 1 530 9
 1522              		.loc 1 530 13 is_stmt 0
 1523 0022 C840     		lw	a0,4(s1)
 1524 0024 97000000 		call	dhcp_process
 1524      E7800000 
 1525              	.LVL137:
 1526              		.loc 1 530 12
 1527 002c 21C1     		beq	a0,zero,.L109
 531:C:/Users/stapi/OneDrive/Desktop/GD32VW553/GD32VW55X_Wifi_BLE_SDK/GD32VW55x_RELEASE_V1.0.2/MSDK/lwip/lwip-2.1.2/port\dhcpd.c ****             LWIP_DEBUGF(DHCP_DEBUG | LWIP_DBG_TRACE, ("[DHCPD]: dhcp packet send....\r\n"));
 1528              		.loc 1 531 92 is_stmt 1
 532:C:/Users/stapi/OneDrive/Desktop/GD32VW553/GD32VW55X_Wifi_BLE_SDK/GD32VW55x_RELEASE_V1.0.2/MSDK/lwip/lwip-2.1.2/port\dhcpd.c ****             q = pbuf_alloc(PBUF_TRANSPORT, sizeof(struct dhcpd), PBUF_REF);
 1529              		.loc 1 532 13
 1530              		.loc 1 532 17 is_stmt 0
 1531 002e 13061004 		li	a2,65
 1532 0032 93054022 		li	a1,548
 1533 0036 13052019 		li	a0,402
 1534 003a 97000000 		call	pbuf_alloc
 1534      E7800000 
 1535              	.LVL138:
 1536 0042 2A84     		mv	s0,a0
 1537              	.LVL139:
 533:C:/Users/stapi/OneDrive/Desktop/GD32VW553/GD32VW55X_Wifi_BLE_SDK/GD32VW55x_RELEASE_V1.0.2/MSDK/lwip/lwip-2.1.2/port\dhcpd.c ****             if (q) {
 1538              		.loc 1 533 13 is_stmt 1
 1539              		.loc 1 533 16 is_stmt 0
 1540 0044 05C5     		beq	a0,zero,.L109
 534:C:/Users/stapi/OneDrive/Desktop/GD32VW553/GD32VW55X_Wifi_BLE_SDK/GD32VW55x_RELEASE_V1.0.2/MSDK/lwip/lwip-2.1.2/port\dhcpd.c ****                 q->payload = &payload_out;
 1541              		.loc 1 534 17 is_stmt 1
 1542              		.loc 1 534 28 is_stmt 0
 1543 0046 B7070000 		lui	a5,%hi(.LANCHOR2)
 1544 004a 93870700 		addi	a5,a5,%lo(.LANCHOR2)
 1545 004e 5CC1     		sw	a5,4(a0)
 535:C:/Users/stapi/OneDrive/Desktop/GD32VW553/GD32VW55X_Wifi_BLE_SDK/GD32VW55x_RELEASE_V1.0.2/MSDK/lwip/lwip-2.1.2/port\dhcpd.c ****                 udp_sendto(upcb, q, &destAddr, port);
 1546              		.loc 1 535 17 is_stmt 1
 1547 0050 AA85     		mv	a1,a0
 1548 0052 CE86     		mv	a3,s3
 1549 0054 13060A00 		addi	a2,s4,%lo(.LANCHOR3)
 1550 0058 4A85     		mv	a0,s2
 1551 005a 97000000 		call	udp_sendto
 1551      E7800000 
 1552              	.LVL140:
 536:C:/Users/stapi/OneDrive/Desktop/GD32VW553/GD32VW55X_Wifi_BLE_SDK/GD32VW55x_RELEASE_V1.0.2/MSDK/lwip/lwip-2.1.2/port\dhcpd.c ****                 pbuf_free(q);
 1553              		.loc 1 536 17
 1554 0062 2285     		mv	a0,s0
 1555 0064 97000000 		call	pbuf_free
 1555      E7800000 
 1556              	.LVL141:
 1557              	.L109:
 537:C:/Users/stapi/OneDrive/Desktop/GD32VW553/GD32VW55X_Wifi_BLE_SDK/GD32VW55x_RELEASE_V1.0.2/MSDK/lwip/lwip-2.1.2/port\dhcpd.c ****             }
 538:C:/Users/stapi/OneDrive/Desktop/GD32VW553/GD32VW55X_Wifi_BLE_SDK/GD32VW55x_RELEASE_V1.0.2/MSDK/lwip/lwip-2.1.2/port\dhcpd.c ****         }
 539:C:/Users/stapi/OneDrive/Desktop/GD32VW553/GD32VW55X_Wifi_BLE_SDK/GD32VW55x_RELEASE_V1.0.2/MSDK/lwip/lwip-2.1.2/port\dhcpd.c ****         pbuf_free(p);
 1558              		.loc 1 539 9
 1559 006c 2685     		mv	a0,s1
 1560 006e 97000000 		call	pbuf_free
 1560      E7800000 
 1561              	.LVL142:
 1562              	.L106:
 1563              	.LBE31:
 1564              	.LBE30:
 540:C:/Users/stapi/OneDrive/Desktop/GD32VW553/GD32VW55X_Wifi_BLE_SDK/GD32VW55x_RELEASE_V1.0.2/MSDK/lwip/lwip-2.1.2/port\dhcpd.c ****     }
 541:C:/Users/stapi/OneDrive/Desktop/GD32VW553/GD32VW55X_Wifi_BLE_SDK/GD32VW55x_RELEASE_V1.0.2/MSDK/lwip/lwip-2.1.2/port\dhcpd.c **** }
 1565              		.loc 1 541 1 is_stmt 0
 1566 0076 17030000 		tail	__riscv_restore_5
 1566      67000300 
 1567              		.cfi_restore 20
 1568              		.cfi_restore 19
 1569              		.cfi_restore 18
 1570              		.cfi_restore 9
 1571              		.cfi_restore 8
 1572              		.cfi_restore 1
 1573              		.cfi_def_cfa_offset 0
 1574              		.cfi_endproc
 1575              	.LFE16:
 1577              		.section	.rodata.dhcpd_daemon.str1.4,"aMS",@progbits,1
 1578              		.align	2
 1579              	.LC4:
 1580 0000 67696761 		.string	"gigadevice"
 1580      64657669 
 1580      636500
 1581 000b 00       		.align	2
 1582              	.LC5:
 1583 000c 00       		.string	""
 1584              		.section	.text.dhcpd_daemon,"ax",@progbits
 1585              		.align	1
 1586              		.globl	dhcpd_daemon
 1588              	dhcpd_daemon:
 1589              	.LFB17:
 542:C:/Users/stapi/OneDrive/Desktop/GD32VW553/GD32VW55X_Wifi_BLE_SDK/GD32VW55x_RELEASE_V1.0.2/MSDK/lwip/lwip-2.1.2/port\dhcpd.c **** 
 543:C:/Users/stapi/OneDrive/Desktop/GD32VW553/GD32VW55X_Wifi_BLE_SDK/GD32VW55x_RELEASE_V1.0.2/MSDK/lwip/lwip-2.1.2/port\dhcpd.c **** void dhcpd_daemon(struct netif *net_if)
 544:C:/Users/stapi/OneDrive/Desktop/GD32VW553/GD32VW55X_Wifi_BLE_SDK/GD32VW55x_RELEASE_V1.0.2/MSDK/lwip/lwip-2.1.2/port\dhcpd.c **** {
 1590              		.loc 1 544 1 is_stmt 1
 1591              		.cfi_startproc
 1592              	.LVL143:
 1593 0000 17030000 		call	t0,__riscv_save_3
 1593      E7020300 
 1594              		.cfi_offset 18, -16
 1595              		.cfi_offset 9, -12
 1596              		.cfi_offset 8, -8
 1597              		.cfi_offset 1, -4
 1598              		.cfi_def_cfa_offset 16
 545:C:/Users/stapi/OneDrive/Desktop/GD32VW553/GD32VW55X_Wifi_BLE_SDK/GD32VW55x_RELEASE_V1.0.2/MSDK/lwip/lwip-2.1.2/port\dhcpd.c ****     if (UdpPcb == NULL) {
 1599              		.loc 1 545 5
 1600              		.loc 1 545 16 is_stmt 0
 1601 0008 B7040000 		lui	s1,%hi(.LANCHOR4)
 1602 000c 93840400 		addi	s1,s1,%lo(.LANCHOR4)
 1603              		.loc 1 545 8
 1604 0010 9C40     		lw	a5,0(s1)
 1605 0012 E9EB     		bne	a5,zero,.L118
 1606 0014 2A89     		mv	s2,a0
 546:C:/Users/stapi/OneDrive/Desktop/GD32VW553/GD32VW55X_Wifi_BLE_SDK/GD32VW55x_RELEASE_V1.0.2/MSDK/lwip/lwip-2.1.2/port\dhcpd.c ****         memset(leases, 0, sizeof(struct dhcpOfferedAddr) * DHCPD_MAX_LEASES);
 1607              		.loc 1 546 9 is_stmt 1
 1608 0016 37050000 		lui	a0,%hi(.LANCHOR1)
 1609              	.LVL144:
 1610 001a 13061006 		li	a2,97
 1611 001e 8145     		li	a1,0
 1612 0020 13050500 		addi	a0,a0,%lo(.LANCHOR1)
 1613 0024 97000000 		call	memset
 1613      E7800000 
 1614              	.LVL145:
 547:C:/Users/stapi/OneDrive/Desktop/GD32VW553/GD32VW55X_Wifi_BLE_SDK/GD32VW55x_RELEASE_V1.0.2/MSDK/lwip/lwip-2.1.2/port\dhcpd.c ****         init_config(net_if);
 1615              		.loc 1 547 9
 1616              	.LBB34:
 1617              	.LBB35:
 428:C:/Users/stapi/OneDrive/Desktop/GD32VW553/GD32VW55X_Wifi_BLE_SDK/GD32VW55x_RELEASE_V1.0.2/MSDK/lwip/lwip-2.1.2/port\dhcpd.c **** 
 1618              		.loc 1 428 5
 1619 002c 37050000 		lui	a0,%hi(.LANCHOR0)
 1620 0030 13040500 		addi	s0,a0,%lo(.LANCHOR0)
 1621 0034 13064004 		li	a2,68
 1622 0038 8145     		li	a1,0
 1623 003a 13050500 		addi	a0,a0,%lo(.LANCHOR0)
 1624 003e 97000000 		call	memset
 1624      E7800000 
 1625              	.LVL146:
 446:C:/Users/stapi/OneDrive/Desktop/GD32VW553/GD32VW55X_Wifi_BLE_SDK/GD32VW55x_RELEASE_V1.0.2/MSDK/lwip/lwip-2.1.2/port\dhcpd.c ****     //net mask
 1626              		.loc 1 446 5
 446:C:/Users/stapi/OneDrive/Desktop/GD32VW553/GD32VW55X_Wifi_BLE_SDK/GD32VW55x_RELEASE_V1.0.2/MSDK/lwip/lwip-2.1.2/port\dhcpd.c ****     //net mask
 1627              		.loc 1 446 33 is_stmt 0
 1628 0046 8327C900 		lw	a5,12(s2)
 1629 004a 1CC0     		sw	a5,0(s0)
 448:C:/Users/stapi/OneDrive/Desktop/GD32VW553/GD32VW55X_Wifi_BLE_SDK/GD32VW55x_RELEASE_V1.0.2/MSDK/lwip/lwip-2.1.2/port\dhcpd.c ****     //start address
 1630              		.loc 1 448 5 is_stmt 1
 448:C:/Users/stapi/OneDrive/Desktop/GD32VW553/GD32VW55X_Wifi_BLE_SDK/GD32VW55x_RELEASE_V1.0.2/MSDK/lwip/lwip-2.1.2/port\dhcpd.c ****     //start address
 1631              		.loc 1 448 31 is_stmt 0
 1632 004c 83278900 		lw	a5,8(s2)
 1633 0050 5CC0     		sw	a5,4(s0)
 450:C:/Users/stapi/OneDrive/Desktop/GD32VW553/GD32VW55X_Wifi_BLE_SDK/GD32VW55x_RELEASE_V1.0.2/MSDK/lwip/lwip-2.1.2/port\dhcpd.c ****     //end address
 1634              		.loc 1 450 5 is_stmt 1
 1635 0052 83274900 		lw	a5,4(s2)
 1636 0056 93D78769 		rev8	a5,a5
 450:C:/Users/stapi/OneDrive/Desktop/GD32VW553/GD32VW55X_Wifi_BLE_SDK/GD32VW55x_RELEASE_V1.0.2/MSDK/lwip/lwip-2.1.2/port\dhcpd.c ****     //end address
 1637              		.loc 1 450 34 is_stmt 0
 1638 005a 13871700 		addi	a4,a5,1
 1639 005e 13578769 		rev8	a4,a4
 450:C:/Users/stapi/OneDrive/Desktop/GD32VW553/GD32VW55X_Wifi_BLE_SDK/GD32VW55x_RELEASE_V1.0.2/MSDK/lwip/lwip-2.1.2/port\dhcpd.c ****     //end address
 1640              		.loc 1 450 32
 1641 0062 18C4     		sw	a4,8(s0)
 452:C:/Users/stapi/OneDrive/Desktop/GD32VW553/GD32VW55X_Wifi_BLE_SDK/GD32VW55x_RELEASE_V1.0.2/MSDK/lwip/lwip-2.1.2/port\dhcpd.c **** #endif
 1642              		.loc 1 452 5 is_stmt 1
 452:C:/Users/stapi/OneDrive/Desktop/GD32VW553/GD32VW55X_Wifi_BLE_SDK/GD32VW55x_RELEASE_V1.0.2/MSDK/lwip/lwip-2.1.2/port\dhcpd.c **** #endif
 1643              		.loc 1 452 32 is_stmt 0
 1644 0064 13875700 		addi	a4,a5,5
 1645 0068 13578769 		rev8	a4,a4
 452:C:/Users/stapi/OneDrive/Desktop/GD32VW553/GD32VW55X_Wifi_BLE_SDK/GD32VW55x_RELEASE_V1.0.2/MSDK/lwip/lwip-2.1.2/port\dhcpd.c **** #endif
 1646              		.loc 1 452 30
 1647 006c 58C4     		sw	a4,12(s0)
 455:C:/Users/stapi/OneDrive/Desktop/GD32VW553/GD32VW55X_Wifi_BLE_SDK/GD32VW55x_RELEASE_V1.0.2/MSDK/lwip/lwip-2.1.2/port\dhcpd.c **** 
 1648              		.loc 1 455 5 is_stmt 1
 455:C:/Users/stapi/OneDrive/Desktop/GD32VW553/GD32VW55X_Wifi_BLE_SDK/GD32VW55x_RELEASE_V1.0.2/MSDK/lwip/lwip-2.1.2/port\dhcpd.c **** 
 1649              		.loc 1 455 30 is_stmt 0
 1650 006e 1147     		li	a4,4
 1651 0070 18D0     		sw	a4,32(s0)
 458:C:/Users/stapi/OneDrive/Desktop/GD32VW553/GD32VW55X_Wifi_BLE_SDK/GD32VW55x_RELEASE_V1.0.2/MSDK/lwip/lwip-2.1.2/port\dhcpd.c ****     server_config.conflict_time = DEFAULT_CONFLICT_TIME; //3600
 1652              		.loc 1 458 5 is_stmt 1
 458:C:/Users/stapi/OneDrive/Desktop/GD32VW553/GD32VW55X_Wifi_BLE_SDK/GD32VW55x_RELEASE_V1.0.2/MSDK/lwip/lwip-2.1.2/port\dhcpd.c ****     server_config.conflict_time = DEFAULT_CONFLICT_TIME; //3600
 1653              		.loc 1 458 25 is_stmt 0
 1654 0072 0567     		li	a4,4096
 1655 0074 130707E1 		addi	a4,a4,-496
 1656 0078 58CC     		sw	a4,28(s0)
 459:C:/Users/stapi/OneDrive/Desktop/GD32VW553/GD32VW55X_Wifi_BLE_SDK/GD32VW55x_RELEASE_V1.0.2/MSDK/lwip/lwip-2.1.2/port\dhcpd.c ****     server_config.decline_time = DEFAULT_DECLINE_TIME; //3600
 1657              		.loc 1 459 5 is_stmt 1
 459:C:/Users/stapi/OneDrive/Desktop/GD32VW553/GD32VW55X_Wifi_BLE_SDK/GD32VW55x_RELEASE_V1.0.2/MSDK/lwip/lwip-2.1.2/port\dhcpd.c ****     server_config.decline_time = DEFAULT_DECLINE_TIME; //3600
 1658              		.loc 1 459 33 is_stmt 0
 1659 007a 58D4     		sw	a4,44(s0)
 460:C:/Users/stapi/OneDrive/Desktop/GD32VW553/GD32VW55X_Wifi_BLE_SDK/GD32VW55x_RELEASE_V1.0.2/MSDK/lwip/lwip-2.1.2/port\dhcpd.c ****     server_config.min_lease = DEFAULT_MIN_LEASE_TIME; //60
 1660              		.loc 1 460 5 is_stmt 1
 460:C:/Users/stapi/OneDrive/Desktop/GD32VW553/GD32VW55X_Wifi_BLE_SDK/GD32VW55x_RELEASE_V1.0.2/MSDK/lwip/lwip-2.1.2/port\dhcpd.c ****     server_config.min_lease = DEFAULT_MIN_LEASE_TIME; //60
 1661              		.loc 1 460 32 is_stmt 0
 1662 007c 18D4     		sw	a4,40(s0)
 461:C:/Users/stapi/OneDrive/Desktop/GD32VW553/GD32VW55X_Wifi_BLE_SDK/GD32VW55x_RELEASE_V1.0.2/MSDK/lwip/lwip-2.1.2/port\dhcpd.c ****     server_config.offer_time = DEFAULT_MIN_LEASE_TIME; //60
 1663              		.loc 1 461 5 is_stmt 1
 461:C:/Users/stapi/OneDrive/Desktop/GD32VW553/GD32VW55X_Wifi_BLE_SDK/GD32VW55x_RELEASE_V1.0.2/MSDK/lwip/lwip-2.1.2/port\dhcpd.c ****     server_config.offer_time = DEFAULT_MIN_LEASE_TIME; //60
 1664              		.loc 1 461 29 is_stmt 0
 1665 007e 1307C003 		li	a4,60
 1666 0082 58D8     		sw	a4,52(s0)
 462:C:/Users/stapi/OneDrive/Desktop/GD32VW553/GD32VW55X_Wifi_BLE_SDK/GD32VW55x_RELEASE_V1.0.2/MSDK/lwip/lwip-2.1.2/port\dhcpd.c ****     server_config.auto_time = DEFAULT_AUTO_TIME; //3
 1667              		.loc 1 462 5 is_stmt 1
 462:C:/Users/stapi/OneDrive/Desktop/GD32VW553/GD32VW55X_Wifi_BLE_SDK/GD32VW55x_RELEASE_V1.0.2/MSDK/lwip/lwip-2.1.2/port\dhcpd.c ****     server_config.auto_time = DEFAULT_AUTO_TIME; //3
 1668              		.loc 1 462 30 is_stmt 0
 1669 0084 18D8     		sw	a4,48(s0)
 463:C:/Users/stapi/OneDrive/Desktop/GD32VW553/GD32VW55X_Wifi_BLE_SDK/GD32VW55x_RELEASE_V1.0.2/MSDK/lwip/lwip-2.1.2/port\dhcpd.c ****     server_config.sname = DEFAULT_SNAME;
 1670              		.loc 1 463 5 is_stmt 1
 463:C:/Users/stapi/OneDrive/Desktop/GD32VW553/GD32VW55X_Wifi_BLE_SDK/GD32VW55x_RELEASE_V1.0.2/MSDK/lwip/lwip-2.1.2/port\dhcpd.c ****     server_config.sname = DEFAULT_SNAME;
 1671              		.loc 1 463 29 is_stmt 0
 1672 0086 0D47     		li	a4,3
 1673 0088 58D0     		sw	a4,36(s0)
 464:C:/Users/stapi/OneDrive/Desktop/GD32VW553/GD32VW55X_Wifi_BLE_SDK/GD32VW55x_RELEASE_V1.0.2/MSDK/lwip/lwip-2.1.2/port\dhcpd.c ****     server_config.boot_file = DEFAULT_BOOT_FILE;
 1674              		.loc 1 464 5 is_stmt 1
 464:C:/Users/stapi/OneDrive/Desktop/GD32VW553/GD32VW55X_Wifi_BLE_SDK/GD32VW55x_RELEASE_V1.0.2/MSDK/lwip/lwip-2.1.2/port\dhcpd.c ****     server_config.boot_file = DEFAULT_BOOT_FILE;
 1675              		.loc 1 464 25 is_stmt 0
 1676 008a 37070000 		lui	a4,%hi(.LC4)
 1677 008e 13070700 		addi	a4,a4,%lo(.LC4)
 1678 0092 58DC     		sw	a4,60(s0)
 465:C:/Users/stapi/OneDrive/Desktop/GD32VW553/GD32VW55X_Wifi_BLE_SDK/GD32VW55x_RELEASE_V1.0.2/MSDK/lwip/lwip-2.1.2/port\dhcpd.c **** 
 1679              		.loc 1 465 5 is_stmt 1
 470:C:/Users/stapi/OneDrive/Desktop/GD32VW553/GD32VW55X_Wifi_BLE_SDK/GD32VW55x_RELEASE_V1.0.2/MSDK/lwip/lwip-2.1.2/port\dhcpd.c **** #endif
 1680              		.loc 1 470 35 is_stmt 0
 1681 0094 9907     		addi	a5,a5,6
 465:C:/Users/stapi/OneDrive/Desktop/GD32VW553/GD32VW55X_Wifi_BLE_SDK/GD32VW55x_RELEASE_V1.0.2/MSDK/lwip/lwip-2.1.2/port\dhcpd.c **** 
 1682              		.loc 1 465 29
 1683 0096 37070000 		lui	a4,%hi(.LC5)
 1684 009a 13070700 		addi	a4,a4,%lo(.LC5)
 1685 009e 93D78769 		rev8	a5,a5
 1686 00a2 38C0     		sw	a4,64(s0)
 470:C:/Users/stapi/OneDrive/Desktop/GD32VW553/GD32VW55X_Wifi_BLE_SDK/GD32VW55x_RELEASE_V1.0.2/MSDK/lwip/lwip-2.1.2/port\dhcpd.c **** #endif
 1687              		.loc 1 470 5 is_stmt 1
 470:C:/Users/stapi/OneDrive/Desktop/GD32VW553/GD32VW55X_Wifi_BLE_SDK/GD32VW55x_RELEASE_V1.0.2/MSDK/lwip/lwip-2.1.2/port\dhcpd.c **** #endif
 1688              		.loc 1 470 33 is_stmt 0
 1689 00a4 1CDC     		sw	a5,56(s0)
 473:C:/Users/stapi/OneDrive/Desktop/GD32VW553/GD32VW55X_Wifi_BLE_SDK/GD32VW55x_RELEASE_V1.0.2/MSDK/lwip/lwip-2.1.2/port\dhcpd.c **** }
 1690              		.loc 1 473 5 is_stmt 1
 1691              	.LVL147:
 1692              	.LBE35:
 1693              	.LBE34:
 548:C:/Users/stapi/OneDrive/Desktop/GD32VW553/GD32VW55X_Wifi_BLE_SDK/GD32VW55x_RELEASE_V1.0.2/MSDK/lwip/lwip-2.1.2/port\dhcpd.c ****         UdpPcb = udp_new();
 1694              		.loc 1 548 9
 1695              		.loc 1 548 18 is_stmt 0
 1696 00a6 97000000 		call	udp_new
 1696      E7800000 
 1697              	.LVL148:
 549:C:/Users/stapi/OneDrive/Desktop/GD32VW553/GD32VW55X_Wifi_BLE_SDK/GD32VW55x_RELEASE_V1.0.2/MSDK/lwip/lwip-2.1.2/port\dhcpd.c ****         udp_bind(UdpPcb, IP_ADDR_ANY, 67);
 1698              		.loc 1 549 9
 1699 00ae B7050000 		lui	a1,%hi(ip_addr_any)
 1700 00b2 13063004 		li	a2,67
 1701 00b6 93850500 		addi	a1,a1,%lo(ip_addr_any)
 548:C:/Users/stapi/OneDrive/Desktop/GD32VW553/GD32VW55X_Wifi_BLE_SDK/GD32VW55x_RELEASE_V1.0.2/MSDK/lwip/lwip-2.1.2/port\dhcpd.c ****         UdpPcb = udp_new();
 1702              		.loc 1 548 16
 1703 00ba 88C0     		sw	a0,0(s1)
 1704              		.loc 1 549 9 is_stmt 1
 1705 00bc 97000000 		call	udp_bind
 1705      E7800000 
 1706              	.LVL149:
 550:C:/Users/stapi/OneDrive/Desktop/GD32VW553/GD32VW55X_Wifi_BLE_SDK/GD32VW55x_RELEASE_V1.0.2/MSDK/lwip/lwip-2.1.2/port\dhcpd.c ****         udp_bind_netif(UdpPcb, net_if);
 1707              		.loc 1 550 9
 1708 00c4 8840     		lw	a0,0(s1)
 1709 00c6 CA85     		mv	a1,s2
 1710 00c8 97000000 		call	udp_bind_netif
 1710      E7800000 
 1711              	.LVL150:
 551:C:/Users/stapi/OneDrive/Desktop/GD32VW553/GD32VW55X_Wifi_BLE_SDK/GD32VW55x_RELEASE_V1.0.2/MSDK/lwip/lwip-2.1.2/port\dhcpd.c ****         udp_recv(UdpPcb, UDP_Receive, NULL);
 1712              		.loc 1 551 9
 1713 00d0 8840     		lw	a0,0(s1)
 1714 00d2 B7050000 		lui	a1,%hi(UDP_Receive)
 1715 00d6 0146     		li	a2,0
 1716 00d8 93850500 		addi	a1,a1,%lo(UDP_Receive)
 1717 00dc 97000000 		call	udp_recv
 1717      E7800000 
 1718              	.LVL151:
 1719              	.L118:
 552:C:/Users/stapi/OneDrive/Desktop/GD32VW553/GD32VW55X_Wifi_BLE_SDK/GD32VW55x_RELEASE_V1.0.2/MSDK/lwip/lwip-2.1.2/port\dhcpd.c ****     }
 553:C:/Users/stapi/OneDrive/Desktop/GD32VW553/GD32VW55X_Wifi_BLE_SDK/GD32VW55x_RELEASE_V1.0.2/MSDK/lwip/lwip-2.1.2/port\dhcpd.c **** }
 1720              		.loc 1 553 1 is_stmt 0
 1721 00e4 17030000 		tail	__riscv_restore_3
 1721      67000300 
 1722              		.cfi_restore 18
 1723              		.cfi_restore 9
 1724              		.cfi_restore 8
 1725              		.cfi_restore 1
 1726              		.cfi_def_cfa_offset 0
 1727              		.cfi_endproc
 1728              	.LFE17:
 1730              		.section	.text.stop_dhcpd_daemon,"ax",@progbits
 1731              		.align	1
 1732              		.globl	stop_dhcpd_daemon
 1734              	stop_dhcpd_daemon:
 1735              	.LFB18:
 554:C:/Users/stapi/OneDrive/Desktop/GD32VW553/GD32VW55X_Wifi_BLE_SDK/GD32VW55x_RELEASE_V1.0.2/MSDK/lwip/lwip-2.1.2/port\dhcpd.c **** 
 555:C:/Users/stapi/OneDrive/Desktop/GD32VW553/GD32VW55X_Wifi_BLE_SDK/GD32VW55x_RELEASE_V1.0.2/MSDK/lwip/lwip-2.1.2/port\dhcpd.c **** int stop_dhcpd_daemon(struct netif *net_if)
 556:C:/Users/stapi/OneDrive/Desktop/GD32VW553/GD32VW55X_Wifi_BLE_SDK/GD32VW55x_RELEASE_V1.0.2/MSDK/lwip/lwip-2.1.2/port\dhcpd.c **** {
 1736              		.loc 1 556 1 is_stmt 1
 1737              		.cfi_startproc
 1738              	.LVL152:
 1739 0000 17030000 		call	t0,__riscv_save_1
 1739      E7020300 
 1740              		.cfi_offset 8, -8
 1741              		.cfi_offset 1, -4
 1742              		.cfi_def_cfa_offset 16
 557:C:/Users/stapi/OneDrive/Desktop/GD32VW553/GD32VW55X_Wifi_BLE_SDK/GD32VW55x_RELEASE_V1.0.2/MSDK/lwip/lwip-2.1.2/port\dhcpd.c ****     if (UdpPcb && net_if) {
 1743              		.loc 1 557 5
 1744              		.loc 1 557 9 is_stmt 0
 1745 0008 37040000 		lui	s0,%hi(.LANCHOR4)
 1746 000c 13040400 		addi	s0,s0,%lo(.LANCHOR4)
 556:C:/Users/stapi/OneDrive/Desktop/GD32VW553/GD32VW55X_Wifi_BLE_SDK/GD32VW55x_RELEASE_V1.0.2/MSDK/lwip/lwip-2.1.2/port\dhcpd.c ****     if (UdpPcb && net_if) {
 1747              		.loc 1 556 1
 1748 0010 AA87     		mv	a5,a0
 1749              		.loc 1 557 9
 1750 0012 0840     		lw	a0,0(s0)
 1751              	.LVL153:
 558:C:/Users/stapi/OneDrive/Desktop/GD32VW553/GD32VW55X_Wifi_BLE_SDK/GD32VW55x_RELEASE_V1.0.2/MSDK/lwip/lwip-2.1.2/port\dhcpd.c ****         if (UdpPcb->netif_idx == netif_get_index(net_if)) {
 559:C:/Users/stapi/OneDrive/Desktop/GD32VW553/GD32VW55X_Wifi_BLE_SDK/GD32VW55x_RELEASE_V1.0.2/MSDK/lwip/lwip-2.1.2/port\dhcpd.c ****             udp_remove(UdpPcb);
 560:C:/Users/stapi/OneDrive/Desktop/GD32VW553/GD32VW55X_Wifi_BLE_SDK/GD32VW55x_RELEASE_V1.0.2/MSDK/lwip/lwip-2.1.2/port\dhcpd.c ****             UdpPcb = NULL;
 561:C:/Users/stapi/OneDrive/Desktop/GD32VW553/GD32VW55X_Wifi_BLE_SDK/GD32VW55x_RELEASE_V1.0.2/MSDK/lwip/lwip-2.1.2/port\dhcpd.c ****             return 0;
 562:C:/Users/stapi/OneDrive/Desktop/GD32VW553/GD32VW55X_Wifi_BLE_SDK/GD32VW55x_RELEASE_V1.0.2/MSDK/lwip/lwip-2.1.2/port\dhcpd.c ****         } else {
 563:C:/Users/stapi/OneDrive/Desktop/GD32VW553/GD32VW55X_Wifi_BLE_SDK/GD32VW55x_RELEASE_V1.0.2/MSDK/lwip/lwip-2.1.2/port\dhcpd.c ****             return -1;
 564:C:/Users/stapi/OneDrive/Desktop/GD32VW553/GD32VW55X_Wifi_BLE_SDK/GD32VW55x_RELEASE_V1.0.2/MSDK/lwip/lwip-2.1.2/port\dhcpd.c ****         }
 565:C:/Users/stapi/OneDrive/Desktop/GD32VW553/GD32VW55X_Wifi_BLE_SDK/GD32VW55x_RELEASE_V1.0.2/MSDK/lwip/lwip-2.1.2/port\dhcpd.c ****     }
 566:C:/Users/stapi/OneDrive/Desktop/GD32VW553/GD32VW55X_Wifi_BLE_SDK/GD32VW55x_RELEASE_V1.0.2/MSDK/lwip/lwip-2.1.2/port\dhcpd.c ****     return 0;
 1752              		.loc 1 566 12
 1753 0014 0147     		li	a4,0
 557:C:/Users/stapi/OneDrive/Desktop/GD32VW553/GD32VW55X_Wifi_BLE_SDK/GD32VW55x_RELEASE_V1.0.2/MSDK/lwip/lwip-2.1.2/port\dhcpd.c ****         if (UdpPcb->netif_idx == netif_get_index(net_if)) {
 1754              		.loc 1 557 8
 1755 0016 1DC1     		beq	a0,zero,.L121
 557:C:/Users/stapi/OneDrive/Desktop/GD32VW553/GD32VW55X_Wifi_BLE_SDK/GD32VW55x_RELEASE_V1.0.2/MSDK/lwip/lwip-2.1.2/port\dhcpd.c ****         if (UdpPcb->netif_idx == netif_get_index(net_if)) {
 1756              		.loc 1 557 16 discriminator 1
 1757 0018 95C3     		beq	a5,zero,.L121
 558:C:/Users/stapi/OneDrive/Desktop/GD32VW553/GD32VW55X_Wifi_BLE_SDK/GD32VW55x_RELEASE_V1.0.2/MSDK/lwip/lwip-2.1.2/port\dhcpd.c ****         if (UdpPcb->netif_idx == netif_get_index(net_if)) {
 1758              		.loc 1 558 9 is_stmt 1
 558:C:/Users/stapi/OneDrive/Desktop/GD32VW553/GD32VW55X_Wifi_BLE_SDK/GD32VW55x_RELEASE_V1.0.2/MSDK/lwip/lwip-2.1.2/port\dhcpd.c ****         if (UdpPcb->netif_idx == netif_get_index(net_if)) {
 1759              		.loc 1 558 34 is_stmt 0
 1760 001a 83C74703 		lbu	a5,52(a5)
 1761              	.LVL154:
 558:C:/Users/stapi/OneDrive/Desktop/GD32VW553/GD32VW55X_Wifi_BLE_SDK/GD32VW55x_RELEASE_V1.0.2/MSDK/lwip/lwip-2.1.2/port\dhcpd.c ****         if (UdpPcb->netif_idx == netif_get_index(net_if)) {
 1762              		.loc 1 558 12
 1763 001e 83468500 		lbu	a3,8(a0)
 563:C:/Users/stapi/OneDrive/Desktop/GD32VW553/GD32VW55X_Wifi_BLE_SDK/GD32VW55x_RELEASE_V1.0.2/MSDK/lwip/lwip-2.1.2/port\dhcpd.c ****         }
 1764              		.loc 1 563 20
 1765 0022 7D57     		li	a4,-1
 558:C:/Users/stapi/OneDrive/Desktop/GD32VW553/GD32VW55X_Wifi_BLE_SDK/GD32VW55x_RELEASE_V1.0.2/MSDK/lwip/lwip-2.1.2/port\dhcpd.c ****         if (UdpPcb->netif_idx == netif_get_index(net_if)) {
 1766              		.loc 1 558 34
 1767 0024 8507     		addi	a5,a5,1
 558:C:/Users/stapi/OneDrive/Desktop/GD32VW553/GD32VW55X_Wifi_BLE_SDK/GD32VW55x_RELEASE_V1.0.2/MSDK/lwip/lwip-2.1.2/port\dhcpd.c ****         if (UdpPcb->netif_idx == netif_get_index(net_if)) {
 1768              		.loc 1 558 12
 1769 0026 93F7F70F 		andi	a5,a5,0xff
 1770 002a 6399F600 		bne	a3,a5,.L121
 559:C:/Users/stapi/OneDrive/Desktop/GD32VW553/GD32VW55X_Wifi_BLE_SDK/GD32VW55x_RELEASE_V1.0.2/MSDK/lwip/lwip-2.1.2/port\dhcpd.c ****             UdpPcb = NULL;
 1771              		.loc 1 559 13 is_stmt 1
 1772 002e 97000000 		call	udp_remove
 1772      E7800000 
 1773              	.LVL155:
 560:C:/Users/stapi/OneDrive/Desktop/GD32VW553/GD32VW55X_Wifi_BLE_SDK/GD32VW55x_RELEASE_V1.0.2/MSDK/lwip/lwip-2.1.2/port\dhcpd.c ****             return 0;
 1774              		.loc 1 560 13
 561:C:/Users/stapi/OneDrive/Desktop/GD32VW553/GD32VW55X_Wifi_BLE_SDK/GD32VW55x_RELEASE_V1.0.2/MSDK/lwip/lwip-2.1.2/port\dhcpd.c ****         } else {
 1775              		.loc 1 561 20 is_stmt 0
 1776 0036 0147     		li	a4,0
 560:C:/Users/stapi/OneDrive/Desktop/GD32VW553/GD32VW55X_Wifi_BLE_SDK/GD32VW55x_RELEASE_V1.0.2/MSDK/lwip/lwip-2.1.2/port\dhcpd.c ****             return 0;
 1777              		.loc 1 560 20
 1778 0038 23200400 		sw	zero,0(s0)
 561:C:/Users/stapi/OneDrive/Desktop/GD32VW553/GD32VW55X_Wifi_BLE_SDK/GD32VW55x_RELEASE_V1.0.2/MSDK/lwip/lwip-2.1.2/port\dhcpd.c ****         } else {
 1779              		.loc 1 561 13 is_stmt 1
 1780              	.L121:
 567:C:/Users/stapi/OneDrive/Desktop/GD32VW553/GD32VW55X_Wifi_BLE_SDK/GD32VW55x_RELEASE_V1.0.2/MSDK/lwip/lwip-2.1.2/port\dhcpd.c **** }
 1781              		.loc 1 567 1 is_stmt 0
 1782 003c 3A85     		mv	a0,a4
 1783 003e 17030000 		tail	__riscv_restore_1
 1783      67000300 
 1784              		.cfi_restore 8
 1785              		.cfi_restore 1
 1786              		.cfi_def_cfa_offset 0
 1787              		.cfi_endproc
 1788              	.LFE18:
 1790              		.section	.text.dhcpd_find_ethaddr_from_packet,"ax",@progbits
 1791              		.align	1
 1792              		.globl	dhcpd_find_ethaddr_from_packet
 1794              	dhcpd_find_ethaddr_from_packet:
 1795              	.LFB19:
 568:C:/Users/stapi/OneDrive/Desktop/GD32VW553/GD32VW55X_Wifi_BLE_SDK/GD32VW55x_RELEASE_V1.0.2/MSDK/lwip/lwip-2.1.2/port\dhcpd.c **** 
 569:C:/Users/stapi/OneDrive/Desktop/GD32VW553/GD32VW55X_Wifi_BLE_SDK/GD32VW55x_RELEASE_V1.0.2/MSDK/lwip/lwip-2.1.2/port\dhcpd.c **** void *dhcpd_find_ethaddr_from_packet(struct pbuf *p)
 570:C:/Users/stapi/OneDrive/Desktop/GD32VW553/GD32VW55X_Wifi_BLE_SDK/GD32VW55x_RELEASE_V1.0.2/MSDK/lwip/lwip-2.1.2/port\dhcpd.c **** {
 1796              		.loc 1 570 1 is_stmt 1
 1797              		.cfi_startproc
 1798              	.LVL156:
 1799 0000 17030000 		call	t0,__riscv_save_2
 1799      E7020300 
 1800              		.cfi_offset 9, -12
 1801              		.cfi_offset 8, -8
 1802              		.cfi_offset 1, -4
 1803              		.cfi_def_cfa_offset 16
 571:C:/Users/stapi/OneDrive/Desktop/GD32VW553/GD32VW55X_Wifi_BLE_SDK/GD32VW55x_RELEASE_V1.0.2/MSDK/lwip/lwip-2.1.2/port\dhcpd.c ****     struct dhcpd *dhcpd_payload = NULL;
 1804              		.loc 1 571 5
 1805              	.LVL157:
 572:C:/Users/stapi/OneDrive/Desktop/GD32VW553/GD32VW55X_Wifi_BLE_SDK/GD32VW55x_RELEASE_V1.0.2/MSDK/lwip/lwip-2.1.2/port\dhcpd.c ****     void *dest = NULL;
 1806              		.loc 1 572 5
 573:C:/Users/stapi/OneDrive/Desktop/GD32VW553/GD32VW55X_Wifi_BLE_SDK/GD32VW55x_RELEASE_V1.0.2/MSDK/lwip/lwip-2.1.2/port\dhcpd.c ****     // use DHCPD only in IPv4.
 574:C:/Users/stapi/OneDrive/Desktop/GD32VW553/GD32VW55X_Wifi_BLE_SDK/GD32VW55x_RELEASE_V1.0.2/MSDK/lwip/lwip-2.1.2/port\dhcpd.c ****     if (4 == (*(uint8_t *)p->payload >> 4)) {
 1807              		.loc 1 574 5
 1808              		.loc 1 574 28 is_stmt 0
 1809 0008 4041     		lw	s0,4(a0)
 1810              		.loc 1 574 8
 1811 000a 1147     		li	a4,4
 1812              		.loc 1 574 11
 1813 000c 83470400 		lbu	a5,0(s0)
 1814              		.loc 1 574 8
 1815 0010 9183     		srli	a5,a5,4
 1816 0012 6387E700 		beq	a5,a4,.L128
 1817              	.LVL158:
 1818              	.L131:
 572:C:/Users/stapi/OneDrive/Desktop/GD32VW553/GD32VW55X_Wifi_BLE_SDK/GD32VW55x_RELEASE_V1.0.2/MSDK/lwip/lwip-2.1.2/port\dhcpd.c ****     void *dest = NULL;
 1819              		.loc 1 572 11
 1820 0016 0145     		li	a0,0
 1821              	.LVL159:
 1822              	.L127:
 575:C:/Users/stapi/OneDrive/Desktop/GD32VW553/GD32VW55X_Wifi_BLE_SDK/GD32VW55x_RELEASE_V1.0.2/MSDK/lwip/lwip-2.1.2/port\dhcpd.c ****         // IP_HLEN(IPv4) = 20. UDP_HLEN = 8.
 576:C:/Users/stapi/OneDrive/Desktop/GD32VW553/GD32VW55X_Wifi_BLE_SDK/GD32VW55x_RELEASE_V1.0.2/MSDK/lwip/lwip-2.1.2/port\dhcpd.c ****         if (p->len == 20 && p->next) {
 577:C:/Users/stapi/OneDrive/Desktop/GD32VW553/GD32VW55X_Wifi_BLE_SDK/GD32VW55x_RELEASE_V1.0.2/MSDK/lwip/lwip-2.1.2/port\dhcpd.c ****             if (p->next->len == 8 && p->next->next && p->next->next->len == sizeof(struct dhcpd)) {
 578:C:/Users/stapi/OneDrive/Desktop/GD32VW553/GD32VW55X_Wifi_BLE_SDK/GD32VW55x_RELEASE_V1.0.2/MSDK/lwip/lwip-2.1.2/port\dhcpd.c ****                 dhcpd_payload = (struct dhcpd *)p->next->next->payload;
 579:C:/Users/stapi/OneDrive/Desktop/GD32VW553/GD32VW55X_Wifi_BLE_SDK/GD32VW55x_RELEASE_V1.0.2/MSDK/lwip/lwip-2.1.2/port\dhcpd.c ****             } else if (p->next->len == (8 + sizeof(struct dhcpd))) {
 580:C:/Users/stapi/OneDrive/Desktop/GD32VW553/GD32VW55X_Wifi_BLE_SDK/GD32VW55x_RELEASE_V1.0.2/MSDK/lwip/lwip-2.1.2/port\dhcpd.c ****                 dhcpd_payload = (struct dhcpd *)((uint8_t *)p->payload + 8);
 581:C:/Users/stapi/OneDrive/Desktop/GD32VW553/GD32VW55X_Wifi_BLE_SDK/GD32VW55x_RELEASE_V1.0.2/MSDK/lwip/lwip-2.1.2/port\dhcpd.c ****             }
 582:C:/Users/stapi/OneDrive/Desktop/GD32VW553/GD32VW55X_Wifi_BLE_SDK/GD32VW55x_RELEASE_V1.0.2/MSDK/lwip/lwip-2.1.2/port\dhcpd.c ****         } else if (p->len == 28 && p->next && p->next->len == sizeof(struct dhcpd)) {
 583:C:/Users/stapi/OneDrive/Desktop/GD32VW553/GD32VW55X_Wifi_BLE_SDK/GD32VW55x_RELEASE_V1.0.2/MSDK/lwip/lwip-2.1.2/port\dhcpd.c ****             dhcpd_payload = (struct dhcpd *)p->next->payload;
 584:C:/Users/stapi/OneDrive/Desktop/GD32VW553/GD32VW55X_Wifi_BLE_SDK/GD32VW55x_RELEASE_V1.0.2/MSDK/lwip/lwip-2.1.2/port\dhcpd.c ****         } else if (p->len == (28 + sizeof(struct dhcpd))) {
 585:C:/Users/stapi/OneDrive/Desktop/GD32VW553/GD32VW55X_Wifi_BLE_SDK/GD32VW55x_RELEASE_V1.0.2/MSDK/lwip/lwip-2.1.2/port\dhcpd.c ****             dhcpd_payload = (struct dhcpd *)((uint8_t *)p->payload + 28);
 586:C:/Users/stapi/OneDrive/Desktop/GD32VW553/GD32VW55X_Wifi_BLE_SDK/GD32VW55x_RELEASE_V1.0.2/MSDK/lwip/lwip-2.1.2/port\dhcpd.c ****         }
 587:C:/Users/stapi/OneDrive/Desktop/GD32VW553/GD32VW55X_Wifi_BLE_SDK/GD32VW55x_RELEASE_V1.0.2/MSDK/lwip/lwip-2.1.2/port\dhcpd.c ****         if (dhcpd_payload && (dhcpd_payload->cookie == htonl(DHCP_MAGIC)) && (dhcpd_payload->op == 
 588:C:/Users/stapi/OneDrive/Desktop/GD32VW553/GD32VW55X_Wifi_BLE_SDK/GD32VW55x_RELEASE_V1.0.2/MSDK/lwip/lwip-2.1.2/port\dhcpd.c ****             dest = &(dhcpd_payload->chaddr);
 589:C:/Users/stapi/OneDrive/Desktop/GD32VW553/GD32VW55X_Wifi_BLE_SDK/GD32VW55x_RELEASE_V1.0.2/MSDK/lwip/lwip-2.1.2/port\dhcpd.c ****         }
 590:C:/Users/stapi/OneDrive/Desktop/GD32VW553/GD32VW55X_Wifi_BLE_SDK/GD32VW55x_RELEASE_V1.0.2/MSDK/lwip/lwip-2.1.2/port\dhcpd.c ****     }
 591:C:/Users/stapi/OneDrive/Desktop/GD32VW553/GD32VW55X_Wifi_BLE_SDK/GD32VW55x_RELEASE_V1.0.2/MSDK/lwip/lwip-2.1.2/port\dhcpd.c ****     return dest;
 592:C:/Users/stapi/OneDrive/Desktop/GD32VW553/GD32VW55X_Wifi_BLE_SDK/GD32VW55x_RELEASE_V1.0.2/MSDK/lwip/lwip-2.1.2/port\dhcpd.c **** }
 1823              		.loc 1 592 1
 1824 0018 17030000 		tail	__riscv_restore_2
 1824      67000300 
 1825              		.cfi_remember_state
 1826              		.cfi_restore 9
 1827              		.cfi_restore 8
 1828              		.cfi_restore 1
 1829              		.cfi_def_cfa_offset 0
 1830              	.LVL160:
 1831              	.L128:
 1832              		.cfi_restore_state
 576:C:/Users/stapi/OneDrive/Desktop/GD32VW553/GD32VW55X_Wifi_BLE_SDK/GD32VW55x_RELEASE_V1.0.2/MSDK/lwip/lwip-2.1.2/port\dhcpd.c ****             if (p->next->len == 8 && p->next->next && p->next->next->len == sizeof(struct dhcpd)) {
 1833              		.loc 1 576 9 is_stmt 1
 576:C:/Users/stapi/OneDrive/Desktop/GD32VW553/GD32VW55X_Wifi_BLE_SDK/GD32VW55x_RELEASE_V1.0.2/MSDK/lwip/lwip-2.1.2/port\dhcpd.c ****             if (p->next->len == 8 && p->next->next && p->next->next->len == sizeof(struct dhcpd)) {
 1834              		.loc 1 576 14 is_stmt 0
 1835 0020 8357A500 		lhu	a5,10(a0)
 576:C:/Users/stapi/OneDrive/Desktop/GD32VW553/GD32VW55X_Wifi_BLE_SDK/GD32VW55x_RELEASE_V1.0.2/MSDK/lwip/lwip-2.1.2/port\dhcpd.c ****             if (p->next->len == 8 && p->next->next && p->next->next->len == sizeof(struct dhcpd)) {
 1836              		.loc 1 576 12
 1837 0024 5147     		li	a4,20
 1838 0026 6399E706 		bne	a5,a4,.L130
 576:C:/Users/stapi/OneDrive/Desktop/GD32VW553/GD32VW55X_Wifi_BLE_SDK/GD32VW55x_RELEASE_V1.0.2/MSDK/lwip/lwip-2.1.2/port\dhcpd.c ****             if (p->next->len == 8 && p->next->next && p->next->next->len == sizeof(struct dhcpd)) {
 1839              		.loc 1 576 30 discriminator 1
 1840 002a 1C41     		lw	a5,0(a0)
 576:C:/Users/stapi/OneDrive/Desktop/GD32VW553/GD32VW55X_Wifi_BLE_SDK/GD32VW55x_RELEASE_V1.0.2/MSDK/lwip/lwip-2.1.2/port\dhcpd.c ****             if (p->next->len == 8 && p->next->next && p->next->next->len == sizeof(struct dhcpd)) {
 1841              		.loc 1 576 26 discriminator 1
 1842 002c EDD7     		beq	a5,zero,.L131
 577:C:/Users/stapi/OneDrive/Desktop/GD32VW553/GD32VW55X_Wifi_BLE_SDK/GD32VW55x_RELEASE_V1.0.2/MSDK/lwip/lwip-2.1.2/port\dhcpd.c ****                 dhcpd_payload = (struct dhcpd *)p->next->next->payload;
 1843              		.loc 1 577 13 is_stmt 1
 577:C:/Users/stapi/OneDrive/Desktop/GD32VW553/GD32VW55X_Wifi_BLE_SDK/GD32VW55x_RELEASE_V1.0.2/MSDK/lwip/lwip-2.1.2/port\dhcpd.c ****                 dhcpd_payload = (struct dhcpd *)p->next->next->payload;
 1844              		.loc 1 577 24 is_stmt 0
 1845 002e 03D7A700 		lhu	a4,10(a5)
 577:C:/Users/stapi/OneDrive/Desktop/GD32VW553/GD32VW55X_Wifi_BLE_SDK/GD32VW55x_RELEASE_V1.0.2/MSDK/lwip/lwip-2.1.2/port\dhcpd.c ****                 dhcpd_payload = (struct dhcpd *)p->next->next->payload;
 1846              		.loc 1 577 16
 1847 0032 A146     		li	a3,8
 1848 0034 631DD700 		bne	a4,a3,.L132
 577:C:/Users/stapi/OneDrive/Desktop/GD32VW553/GD32VW55X_Wifi_BLE_SDK/GD32VW55x_RELEASE_V1.0.2/MSDK/lwip/lwip-2.1.2/port\dhcpd.c ****                 dhcpd_payload = (struct dhcpd *)p->next->next->payload;
 1849              		.loc 1 577 45 discriminator 1
 1850 0038 9C43     		lw	a5,0(a5)
 1851              	.L153:
 582:C:/Users/stapi/OneDrive/Desktop/GD32VW553/GD32VW55X_Wifi_BLE_SDK/GD32VW55x_RELEASE_V1.0.2/MSDK/lwip/lwip-2.1.2/port\dhcpd.c ****             dhcpd_payload = (struct dhcpd *)p->next->payload;
 1852              		.loc 1 582 33 discriminator 1
 1853 003a F1DF     		beq	a5,zero,.L131
 582:C:/Users/stapi/OneDrive/Desktop/GD32VW553/GD32VW55X_Wifi_BLE_SDK/GD32VW55x_RELEASE_V1.0.2/MSDK/lwip/lwip-2.1.2/port\dhcpd.c ****             dhcpd_payload = (struct dhcpd *)p->next->payload;
 1854              		.loc 1 582 44 discriminator 2
 1855 003c 83D6A700 		lhu	a3,10(a5)
 1856 0040 13074022 		li	a4,548
 1857 0044 E399E6FC 		bne	a3,a4,.L131
 583:C:/Users/stapi/OneDrive/Desktop/GD32VW553/GD32VW55X_Wifi_BLE_SDK/GD32VW55x_RELEASE_V1.0.2/MSDK/lwip/lwip-2.1.2/port\dhcpd.c ****         } else if (p->len == (28 + sizeof(struct dhcpd))) {
 1858              		.loc 1 583 13 is_stmt 1
 583:C:/Users/stapi/OneDrive/Desktop/GD32VW553/GD32VW55X_Wifi_BLE_SDK/GD32VW55x_RELEASE_V1.0.2/MSDK/lwip/lwip-2.1.2/port\dhcpd.c ****         } else if (p->len == (28 + sizeof(struct dhcpd))) {
 1859              		.loc 1 583 27 is_stmt 0
 1860 0048 C043     		lw	s0,4(a5)
 1861              	.LVL161:
 587:C:/Users/stapi/OneDrive/Desktop/GD32VW553/GD32VW55X_Wifi_BLE_SDK/GD32VW55x_RELEASE_V1.0.2/MSDK/lwip/lwip-2.1.2/port\dhcpd.c ****             dest = &(dhcpd_payload->chaddr);
 1862              		.loc 1 587 9 is_stmt 1
 587:C:/Users/stapi/OneDrive/Desktop/GD32VW553/GD32VW55X_Wifi_BLE_SDK/GD32VW55x_RELEASE_V1.0.2/MSDK/lwip/lwip-2.1.2/port\dhcpd.c ****             dest = &(dhcpd_payload->chaddr);
 1863              		.loc 1 587 12 is_stmt 0
 1864 004a 71D4     		beq	s0,zero,.L131
 1865 004c 31A0     		j	.L134
 1866              	.LVL162:
 1867              	.L132:
 579:C:/Users/stapi/OneDrive/Desktop/GD32VW553/GD32VW55X_Wifi_BLE_SDK/GD32VW55x_RELEASE_V1.0.2/MSDK/lwip/lwip-2.1.2/port\dhcpd.c ****                 dhcpd_payload = (struct dhcpd *)((uint8_t *)p->payload + 8);
 1868              		.loc 1 579 20 is_stmt 1
 579:C:/Users/stapi/OneDrive/Desktop/GD32VW553/GD32VW55X_Wifi_BLE_SDK/GD32VW55x_RELEASE_V1.0.2/MSDK/lwip/lwip-2.1.2/port\dhcpd.c ****                 dhcpd_payload = (struct dhcpd *)((uint8_t *)p->payload + 8);
 1869              		.loc 1 579 23 is_stmt 0
 1870 004e 9307C022 		li	a5,556
 1871 0052 E312F7FC 		bne	a4,a5,.L131
 580:C:/Users/stapi/OneDrive/Desktop/GD32VW553/GD32VW55X_Wifi_BLE_SDK/GD32VW55x_RELEASE_V1.0.2/MSDK/lwip/lwip-2.1.2/port\dhcpd.c ****             }
 1872              		.loc 1 580 17 is_stmt 1
 580:C:/Users/stapi/OneDrive/Desktop/GD32VW553/GD32VW55X_Wifi_BLE_SDK/GD32VW55x_RELEASE_V1.0.2/MSDK/lwip/lwip-2.1.2/port\dhcpd.c ****             }
 1873              		.loc 1 580 31 is_stmt 0
 1874 0056 2104     		addi	s0,s0,8
 1875              	.LVL163:
 1876              	.L134:
 587:C:/Users/stapi/OneDrive/Desktop/GD32VW553/GD32VW55X_Wifi_BLE_SDK/GD32VW55x_RELEASE_V1.0.2/MSDK/lwip/lwip-2.1.2/port\dhcpd.c ****             dest = &(dhcpd_payload->chaddr);
 1877              		.loc 1 587 44 discriminator 1
 1878 0058 8347D40E 		lbu	a5,237(s0)
 1879 005c 8344C40E 		lbu	s1,236(s0)
 587:C:/Users/stapi/OneDrive/Desktop/GD32VW553/GD32VW55X_Wifi_BLE_SDK/GD32VW55x_RELEASE_V1.0.2/MSDK/lwip/lwip-2.1.2/port\dhcpd.c ****             dest = &(dhcpd_payload->chaddr);
 1880              		.loc 1 587 56 discriminator 1
 1881 0060 37558263 		li	a0,1669484544
 1882              	.LVL164:
 587:C:/Users/stapi/OneDrive/Desktop/GD32VW553/GD32VW55X_Wifi_BLE_SDK/GD32VW55x_RELEASE_V1.0.2/MSDK/lwip/lwip-2.1.2/port\dhcpd.c ****             dest = &(dhcpd_payload->chaddr);
 1883              		.loc 1 587 44 discriminator 1
 1884 0064 A207     		slli	a5,a5,8
 1885 0066 C58F     		or	a5,a5,s1
 1886 0068 8344E40E 		lbu	s1,238(s0)
 587:C:/Users/stapi/OneDrive/Desktop/GD32VW553/GD32VW55X_Wifi_BLE_SDK/GD32VW55x_RELEASE_V1.0.2/MSDK/lwip/lwip-2.1.2/port\dhcpd.c ****             dest = &(dhcpd_payload->chaddr);
 1887              		.loc 1 587 56 discriminator 1
 1888 006c 13053536 		addi	a0,a0,867
 587:C:/Users/stapi/OneDrive/Desktop/GD32VW553/GD32VW55X_Wifi_BLE_SDK/GD32VW55x_RELEASE_V1.0.2/MSDK/lwip/lwip-2.1.2/port\dhcpd.c ****             dest = &(dhcpd_payload->chaddr);
 1889              		.loc 1 587 44 discriminator 1
 1890 0070 C204     		slli	s1,s1,16
 1891 0072 C58F     		or	a5,s1,a5
 1892 0074 8344F40E 		lbu	s1,239(s0)
 1893 0078 E204     		slli	s1,s1,24
 1894 007a DD8C     		or	s1,s1,a5
 587:C:/Users/stapi/OneDrive/Desktop/GD32VW553/GD32VW55X_Wifi_BLE_SDK/GD32VW55x_RELEASE_V1.0.2/MSDK/lwip/lwip-2.1.2/port\dhcpd.c ****             dest = &(dhcpd_payload->chaddr);
 1895              		.loc 1 587 56 discriminator 1
 1896 007c 97000000 		call	lwip_htonl
 1896      E7800000 
 1897              	.LVL165:
 587:C:/Users/stapi/OneDrive/Desktop/GD32VW553/GD32VW55X_Wifi_BLE_SDK/GD32VW55x_RELEASE_V1.0.2/MSDK/lwip/lwip-2.1.2/port\dhcpd.c ****             dest = &(dhcpd_payload->chaddr);
 1898              		.loc 1 587 27 discriminator 1
 1899 0084 E399A4F8 		bne	s1,a0,.L131
 587:C:/Users/stapi/OneDrive/Desktop/GD32VW553/GD32VW55X_Wifi_BLE_SDK/GD32VW55x_RELEASE_V1.0.2/MSDK/lwip/lwip-2.1.2/port\dhcpd.c ****             dest = &(dhcpd_payload->chaddr);
 1900              		.loc 1 587 75 discriminator 2
 1901 0088 03470400 		lbu	a4,0(s0)
 1902 008c 8947     		li	a5,2
 1903 008e E314F7F8 		bne	a4,a5,.L131
 588:C:/Users/stapi/OneDrive/Desktop/GD32VW553/GD32VW55X_Wifi_BLE_SDK/GD32VW55x_RELEASE_V1.0.2/MSDK/lwip/lwip-2.1.2/port\dhcpd.c ****         }
 1904              		.loc 1 588 13 is_stmt 1
 588:C:/Users/stapi/OneDrive/Desktop/GD32VW553/GD32VW55X_Wifi_BLE_SDK/GD32VW55x_RELEASE_V1.0.2/MSDK/lwip/lwip-2.1.2/port\dhcpd.c ****         }
 1905              		.loc 1 588 18 is_stmt 0
 1906 0092 1305C401 		addi	a0,s0,28
 1907              	.LVL166:
 591:C:/Users/stapi/OneDrive/Desktop/GD32VW553/GD32VW55X_Wifi_BLE_SDK/GD32VW55x_RELEASE_V1.0.2/MSDK/lwip/lwip-2.1.2/port\dhcpd.c **** }
 1908              		.loc 1 591 5 is_stmt 1
 591:C:/Users/stapi/OneDrive/Desktop/GD32VW553/GD32VW55X_Wifi_BLE_SDK/GD32VW55x_RELEASE_V1.0.2/MSDK/lwip/lwip-2.1.2/port\dhcpd.c **** }
 1909              		.loc 1 591 12 is_stmt 0
 1910 0096 49B7     		j	.L127
 1911              	.LVL167:
 1912              	.L130:
 582:C:/Users/stapi/OneDrive/Desktop/GD32VW553/GD32VW55X_Wifi_BLE_SDK/GD32VW55x_RELEASE_V1.0.2/MSDK/lwip/lwip-2.1.2/port\dhcpd.c ****             dhcpd_payload = (struct dhcpd *)p->next->payload;
 1913              		.loc 1 582 16 is_stmt 1
 582:C:/Users/stapi/OneDrive/Desktop/GD32VW553/GD32VW55X_Wifi_BLE_SDK/GD32VW55x_RELEASE_V1.0.2/MSDK/lwip/lwip-2.1.2/port\dhcpd.c ****             dhcpd_payload = (struct dhcpd *)p->next->payload;
 1914              		.loc 1 582 19 is_stmt 0
 1915 0098 7147     		li	a4,28
 1916 009a 6394E700 		bne	a5,a4,.L135
 582:C:/Users/stapi/OneDrive/Desktop/GD32VW553/GD32VW55X_Wifi_BLE_SDK/GD32VW55x_RELEASE_V1.0.2/MSDK/lwip/lwip-2.1.2/port\dhcpd.c ****             dhcpd_payload = (struct dhcpd *)p->next->payload;
 1917              		.loc 1 582 37 discriminator 1
 1918 009e 1C41     		lw	a5,0(a0)
 1919 00a0 69BF     		j	.L153
 1920              	.L135:
 584:C:/Users/stapi/OneDrive/Desktop/GD32VW553/GD32VW55X_Wifi_BLE_SDK/GD32VW55x_RELEASE_V1.0.2/MSDK/lwip/lwip-2.1.2/port\dhcpd.c ****             dhcpd_payload = (struct dhcpd *)((uint8_t *)p->payload + 28);
 1921              		.loc 1 584 16 is_stmt 1
 584:C:/Users/stapi/OneDrive/Desktop/GD32VW553/GD32VW55X_Wifi_BLE_SDK/GD32VW55x_RELEASE_V1.0.2/MSDK/lwip/lwip-2.1.2/port\dhcpd.c ****             dhcpd_payload = (struct dhcpd *)((uint8_t *)p->payload + 28);
 1922              		.loc 1 584 19 is_stmt 0
 1923 00a2 13070024 		li	a4,576
 1924 00a6 E398E7F6 		bne	a5,a4,.L131
 585:C:/Users/stapi/OneDrive/Desktop/GD32VW553/GD32VW55X_Wifi_BLE_SDK/GD32VW55x_RELEASE_V1.0.2/MSDK/lwip/lwip-2.1.2/port\dhcpd.c ****         }
 1925              		.loc 1 585 13 is_stmt 1
 585:C:/Users/stapi/OneDrive/Desktop/GD32VW553/GD32VW55X_Wifi_BLE_SDK/GD32VW55x_RELEASE_V1.0.2/MSDK/lwip/lwip-2.1.2/port\dhcpd.c ****         }
 1926              		.loc 1 585 27 is_stmt 0
 1927 00aa 7104     		addi	s0,s0,28
 1928              	.LVL168:
 1929 00ac 75B7     		j	.L134
 1930              		.cfi_endproc
 1931              	.LFE19:
 1933              		.globl	pass_wan_domain
 1934              		.globl	UdpPcb
 1935              		.globl	server_config
 1936              		.globl	payload_out
 1937              		.globl	leases
 1938              		.globl	destAddr
 1939              		.section	.rodata
 1940              		.align	2
 1941              	.LC2:
 1942 0000 00       		.string	""
 1943 0001 00       		.string	""
 1944 0002 00       		.string	""
 1945 0003 00       		.string	""
 1946 0004 00       		.string	""
 1947 0005 00       		.string	""
 1948 0006 00       		.string	""
 1949              		.section	.bss.leases,"aw",@nobits
 1950              		.align	2
 1951              		.set	.LANCHOR1,. + 0
 1954              	leases:
 1955 0000 00000000 		.zero	128
 1955      00000000 
 1955      00000000 
 1955      00000000 
 1955      00000000 
 1956              		.section	.bss.payload_out,"aw",@nobits
 1957              		.align	2
 1958              		.set	.LANCHOR2,. + 0
 1961              	payload_out:
 1962 0000 00000000 		.zero	548
 1962      00000000 
 1962      00000000 
 1962      00000000 
 1962      00000000 
 1963              		.section	.bss.server_config,"aw",@nobits
 1964              		.align	2
 1965              		.set	.LANCHOR0,. + 0
 1968              	server_config:
 1969 0000 00000000 		.zero	68
 1969      00000000 
 1969      00000000 
 1969      00000000 
 1969      00000000 
 1970              		.section	.sbss.UdpPcb,"aw",@nobits
 1971              		.align	2
 1972              		.set	.LANCHOR4,. + 0
 1975              	UdpPcb:
 1976 0000 00000000 		.zero	4
 1977              		.section	.sbss.destAddr,"aw",@nobits
 1978              		.align	2
 1979              		.set	.LANCHOR3,. + 0
 1982              	destAddr:
 1983 0000 00000000 		.zero	4
 1984              		.section	.sbss.pass_wan_domain,"aw",@nobits
 1985              		.align	2
 1988              	pass_wan_domain:
 1989 0000 00000000 		.zero	4
 1990              		.text
 1991              	.Letext0:
 1992              		.file 2 "c:\\users\\stapi\\onedrive\\desktop\\gd32vw553\\embeddedbuilder_v1.4.7.26843\\tools\\nucl
 1993              		.file 3 "c:\\users\\stapi\\onedrive\\desktop\\gd32vw553\\embeddedbuilder_v1.4.7.26843\\tools\\nucl
 1994              		.file 4 "..\\..\\..\\..\\lwip\\lwip-2.1.2\\src\\include/lwip/arch.h"
 1995              		.file 5 "..\\..\\..\\..\\lwip\\lwip-2.1.2\\src\\include/lwip/ip4_addr.h"
 1996              		.file 6 "..\\..\\..\\..\\lwip\\lwip-2.1.2\\src\\include/lwip/ip_addr.h"
 1997              		.file 7 "..\\..\\..\\..\\lwip\\lwip-2.1.2\\src\\include/lwip/inet.h"
 1998              		.file 8 "C:/Users/stapi/OneDrive/Desktop/GD32VW553/GD32VW55X_Wifi_BLE_SDK/GD32VW55x_RELEASE_V1.0.2
 1999              		.file 9 "C:/Users/stapi/OneDrive/Desktop/GD32VW553/GD32VW55X_Wifi_BLE_SDK/GD32VW55x_RELEASE_V1.0.2
 2000              		.file 10 "..\\..\\..\\..\\lwip\\lwip-2.1.2\\src\\include/lwip/err.h"
 2001              		.file 11 "..\\..\\..\\..\\lwip\\lwip-2.1.2\\src\\include/lwip/pbuf.h"
 2002              		.file 12 "..\\..\\..\\..\\lwip\\lwip-2.1.2\\src\\include/lwip/udp.h"
 2003              		.file 13 "..\\..\\..\\..\\lwip\\lwip-2.1.2\\src\\include/lwip/memp.h"
 2004              		.file 14 "..\\..\\..\\..\\lwip\\lwip-2.1.2\\src\\include/lwip/netif.h"
 2005              		.file 15 "..\\..\\..\\..\\util\\include/dbg_print.h"
 2006              		.file 16 "..\\..\\..\\..\\lwip\\lwip-2.1.2\\src\\include/lwip/def.h"
 2007              		.file 17 "c:\\users\\stapi\\onedrive\\desktop\\gd32vw553\\embeddedbuilder_v1.4.7.26843\\tools\\nuc
 2008              		.file 18 "..\\..\\..\\..\\rtos\\rtos_wrapper/wrapper_os.h"
 2009              		.file 19 "..\\..\\..\\..\\util\\include/debug_print.h"
 2010              		.file 20 "<built-in>"
DEFINED SYMBOLS
                            *ABS*:0000000000000000 dhcpd.c
C:\Users\stapi\AppData\Local\Temp\ccyp2Aek.s:12     .text.DHCPD_FindLeaseByChaddr:0000000000000000 DHCPD_FindLeaseByChaddr
C:\Users\stapi\AppData\Local\Temp\ccyp2Aek.s:16     .text.DHCPD_FindLeaseByChaddr:0000000000000000 .L0 
C:\Users\stapi\AppData\Local\Temp\ccyp2Aek.s:18     .text.DHCPD_FindLeaseByChaddr:0000000000000000 .L0 
C:\Users\stapi\AppData\Local\Temp\ccyp2Aek.s:19     .text.DHCPD_FindLeaseByChaddr:0000000000000008 .L0 
C:\Users\stapi\AppData\Local\Temp\ccyp2Aek.s:20     .text.DHCPD_FindLeaseByChaddr:0000000000000008 .L0 
C:\Users\stapi\AppData\Local\Temp\ccyp2Aek.s:21     .text.DHCPD_FindLeaseByChaddr:0000000000000008 .L0 
C:\Users\stapi\AppData\Local\Temp\ccyp2Aek.s:22     .text.DHCPD_FindLeaseByChaddr:0000000000000008 .L0 
C:\Users\stapi\AppData\Local\Temp\ccyp2Aek.s:23     .text.DHCPD_FindLeaseByChaddr:0000000000000008 .L0 
C:\Users\stapi\AppData\Local\Temp\ccyp2Aek.s:24     .text.DHCPD_FindLeaseByChaddr:0000000000000008 .L0 
C:\Users\stapi\AppData\Local\Temp\ccyp2Aek.s:25     .text.DHCPD_FindLeaseByChaddr:0000000000000008 .L0 
C:\Users\stapi\AppData\Local\Temp\ccyp2Aek.s:27     .text.DHCPD_FindLeaseByChaddr:0000000000000008 .L0 
C:\Users\stapi\AppData\Local\Temp\ccyp2Aek.s:29     .text.DHCPD_FindLeaseByChaddr:0000000000000008 .L0 
C:\Users\stapi\AppData\Local\Temp\ccyp2Aek.s:30     .text.DHCPD_FindLeaseByChaddr:0000000000000008 .L0 
C:\Users\stapi\AppData\Local\Temp\ccyp2Aek.s:34     .text.DHCPD_FindLeaseByChaddr:0000000000000014 .L0 
C:\Users\stapi\AppData\Local\Temp\ccyp2Aek.s:37     .text.DHCPD_FindLeaseByChaddr:000000000000001a .L0 
C:\Users\stapi\AppData\Local\Temp\ccyp2Aek.s:41     .text.DHCPD_FindLeaseByChaddr:000000000000001c .L0 
C:\Users\stapi\AppData\Local\Temp\ccyp2Aek.s:42     .text.DHCPD_FindLeaseByChaddr:000000000000001c .L0 
C:\Users\stapi\AppData\Local\Temp\ccyp2Aek.s:44     .text.DHCPD_FindLeaseByChaddr:0000000000000020 .L0 
C:\Users\stapi\AppData\Local\Temp\ccyp2Aek.s:47     .text.DHCPD_FindLeaseByChaddr:0000000000000022 .L0 
C:\Users\stapi\AppData\Local\Temp\ccyp2Aek.s:49     .text.DHCPD_FindLeaseByChaddr:000000000000002c .L0 
C:\Users\stapi\AppData\Local\Temp\ccyp2Aek.s:50     .text.DHCPD_FindLeaseByChaddr:000000000000002c .L0 
C:\Users\stapi\AppData\Local\Temp\ccyp2Aek.s:51     .text.DHCPD_FindLeaseByChaddr:000000000000002c .L0 
C:\Users\stapi\AppData\Local\Temp\ccyp2Aek.s:52     .text.DHCPD_FindLeaseByChaddr:000000000000002c .L0 
C:\Users\stapi\AppData\Local\Temp\ccyp2Aek.s:53     .text.DHCPD_FindLeaseByChaddr:000000000000002c .L0 
C:\Users\stapi\AppData\Local\Temp\ccyp2Aek.s:54     .text.DHCPD_FindLeaseByChaddr:000000000000002c .L0 
C:\Users\stapi\AppData\Local\Temp\ccyp2Aek.s:55     .text.DHCPD_FindLeaseByChaddr:000000000000002c .L0 
C:\Users\stapi\AppData\Local\Temp\ccyp2Aek.s:56     .text.DHCPD_FindLeaseByChaddr:000000000000002c .L0 
C:\Users\stapi\AppData\Local\Temp\ccyp2Aek.s:58     .text.DHCPD_FindLeaseByChaddr:000000000000002c .L0 
C:\Users\stapi\AppData\Local\Temp\ccyp2Aek.s:60     .text.DHCPD_FindLeaseByChaddr:000000000000002c .L0 
C:\Users\stapi\AppData\Local\Temp\ccyp2Aek.s:61     .text.DHCPD_FindLeaseByChaddr:000000000000002c .L0 
C:\Users\stapi\AppData\Local\Temp\ccyp2Aek.s:67     .text.DHCPD_FindLeaseByChaddr:000000000000003a .L0 
C:\Users\stapi\AppData\Local\Temp\ccyp2Aek.s:69     .text.DHCPD_FindLeaseByChaddr:000000000000003c .L0 
C:\Users\stapi\AppData\Local\Temp\ccyp2Aek.s:72     .text.DHCPD_FindLeaseByChaddr:0000000000000042 .L0 
C:\Users\stapi\AppData\Local\Temp\ccyp2Aek.s:73     .text.DHCPD_FindLeaseByChaddr:0000000000000042 .L0 
C:\Users\stapi\AppData\Local\Temp\ccyp2Aek.s:76     .text.DHCPD_FindLeaseByChaddr:0000000000000046 .L0 
C:\Users\stapi\AppData\Local\Temp\ccyp2Aek.s:82     .text.dhcpd_pickup_opt:0000000000000000 dhcpd_pickup_opt
C:\Users\stapi\AppData\Local\Temp\ccyp2Aek.s:85     .text.dhcpd_pickup_opt:0000000000000000 .L0 
C:\Users\stapi\AppData\Local\Temp\ccyp2Aek.s:87     .text.dhcpd_pickup_opt:0000000000000000 .L0 
C:\Users\stapi\AppData\Local\Temp\ccyp2Aek.s:88     .text.dhcpd_pickup_opt:0000000000000008 .L0 
C:\Users\stapi\AppData\Local\Temp\ccyp2Aek.s:89     .text.dhcpd_pickup_opt:0000000000000008 .L0 
C:\Users\stapi\AppData\Local\Temp\ccyp2Aek.s:90     .text.dhcpd_pickup_opt:0000000000000008 .L0 
C:\Users\stapi\AppData\Local\Temp\ccyp2Aek.s:92     .text.dhcpd_pickup_opt:0000000000000008 .L0 
C:\Users\stapi\AppData\Local\Temp\ccyp2Aek.s:93     .text.dhcpd_pickup_opt:0000000000000008 .L0 
C:\Users\stapi\AppData\Local\Temp\ccyp2Aek.s:95     .text.dhcpd_pickup_opt:0000000000000008 .L0 
C:\Users\stapi\AppData\Local\Temp\ccyp2Aek.s:96     .text.dhcpd_pickup_opt:0000000000000008 .L0 
C:\Users\stapi\AppData\Local\Temp\ccyp2Aek.s:97     .text.dhcpd_pickup_opt:0000000000000008 .L0 
C:\Users\stapi\AppData\Local\Temp\ccyp2Aek.s:98     .text.dhcpd_pickup_opt:0000000000000008 .L0 
C:\Users\stapi\AppData\Local\Temp\ccyp2Aek.s:101    .text.dhcpd_pickup_opt:000000000000000c .L0 
C:\Users\stapi\AppData\Local\Temp\ccyp2Aek.s:104    .text.dhcpd_pickup_opt:0000000000000010 .L0 
C:\Users\stapi\AppData\Local\Temp\ccyp2Aek.s:105    .text.dhcpd_pickup_opt:0000000000000010 .L0 
C:\Users\stapi\AppData\Local\Temp\ccyp2Aek.s:106    .text.dhcpd_pickup_opt:0000000000000010 .L0 
C:\Users\stapi\AppData\Local\Temp\ccyp2Aek.s:107    .text.dhcpd_pickup_opt:0000000000000010 .L0 
C:\Users\stapi\AppData\Local\Temp\ccyp2Aek.s:108    .text.dhcpd_pickup_opt:0000000000000010 .L0 
C:\Users\stapi\AppData\Local\Temp\ccyp2Aek.s:110    .text.dhcpd_pickup_opt:0000000000000014 .L0 
C:\Users\stapi\AppData\Local\Temp\ccyp2Aek.s:113    .text.dhcpd_pickup_opt:0000000000000016 .L0 
C:\Users\stapi\AppData\Local\Temp\ccyp2Aek.s:115    .text.dhcpd_pickup_opt:0000000000000018 .L0 
C:\Users\stapi\AppData\Local\Temp\ccyp2Aek.s:117    .text.dhcpd_pickup_opt:000000000000001a .L0 
C:\Users\stapi\AppData\Local\Temp\ccyp2Aek.s:119    .text.dhcpd_pickup_opt:000000000000001e .L0 
C:\Users\stapi\AppData\Local\Temp\ccyp2Aek.s:121    .text.dhcpd_pickup_opt:0000000000000020 .L0 
C:\Users\stapi\AppData\Local\Temp\ccyp2Aek.s:125    .text.dhcpd_pickup_opt:0000000000000028 .L0 
C:\Users\stapi\AppData\Local\Temp\ccyp2Aek.s:127    .text.dhcpd_pickup_opt:000000000000002a .L0 
C:\Users\stapi\AppData\Local\Temp\ccyp2Aek.s:131    .text.dhcpd_pickup_opt:000000000000002e .L0 
C:\Users\stapi\AppData\Local\Temp\ccyp2Aek.s:132    .text.dhcpd_pickup_opt:000000000000002e .L0 
C:\Users\stapi\AppData\Local\Temp\ccyp2Aek.s:135    .text.dhcpd_pickup_opt:0000000000000036 .L0 
C:\Users\stapi\AppData\Local\Temp\ccyp2Aek.s:137    .text.dhcpd_pickup_opt:000000000000003a .L0 
C:\Users\stapi\AppData\Local\Temp\ccyp2Aek.s:138    .text.dhcpd_pickup_opt:000000000000003a .L0 
C:\Users\stapi\AppData\Local\Temp\ccyp2Aek.s:140    .text.dhcpd_pickup_opt:000000000000003e .L0 
C:\Users\stapi\AppData\Local\Temp\ccyp2Aek.s:143    .text.dhcpd_pickup_opt:0000000000000042 .L0 
C:\Users\stapi\AppData\Local\Temp\ccyp2Aek.s:146    .text.dhcpd_pickup_opt:0000000000000044 .L0 
C:\Users\stapi\AppData\Local\Temp\ccyp2Aek.s:148    .text.dhcpd_pickup_opt:0000000000000046 .L0 
C:\Users\stapi\AppData\Local\Temp\ccyp2Aek.s:150    .text.dhcpd_pickup_opt:000000000000004a .L0 
C:\Users\stapi\AppData\Local\Temp\ccyp2Aek.s:152    .text.dhcpd_pickup_opt:000000000000004a .L0 
C:\Users\stapi\AppData\Local\Temp\ccyp2Aek.s:153    .text.dhcpd_pickup_opt:000000000000004a .L0 
C:\Users\stapi\AppData\Local\Temp\ccyp2Aek.s:154    .text.dhcpd_pickup_opt:000000000000004a .L0 
C:\Users\stapi\AppData\Local\Temp\ccyp2Aek.s:156    .text.dhcpd_pickup_opt:000000000000004e .L0 
C:\Users\stapi\AppData\Local\Temp\ccyp2Aek.s:157    .text.dhcpd_pickup_opt:000000000000004e .L0 
C:\Users\stapi\AppData\Local\Temp\ccyp2Aek.s:160    .text.dhcpd_pickup_opt:0000000000000050 .L0 
C:\Users\stapi\AppData\Local\Temp\ccyp2Aek.s:162    .text.dhcpd_pickup_opt:0000000000000054 .L0 
C:\Users\stapi\AppData\Local\Temp\ccyp2Aek.s:168    .text.dhcpd_pickup_opt:000000000000005e .L0 
C:\Users\stapi\AppData\Local\Temp\ccyp2Aek.s:169    .text.dhcpd_pickup_opt:000000000000005e .L0 
C:\Users\stapi\AppData\Local\Temp\ccyp2Aek.s:171    .text.dhcpd_pickup_opt:0000000000000068 .L0 
C:\Users\stapi\AppData\Local\Temp\ccyp2Aek.s:172    .text.dhcpd_pickup_opt:0000000000000068 .L0 
C:\Users\stapi\AppData\Local\Temp\ccyp2Aek.s:173    .text.dhcpd_pickup_opt:0000000000000068 .L0 
C:\Users\stapi\AppData\Local\Temp\ccyp2Aek.s:174    .text.dhcpd_pickup_opt:0000000000000068 .L0 
C:\Users\stapi\AppData\Local\Temp\ccyp2Aek.s:177    .text.dhcpd_pickup_opt:0000000000000068 .L0 
C:\Users\stapi\AppData\Local\Temp\ccyp2Aek.s:179    .text.dhcpd_pickup_opt:0000000000000068 .L0 
C:\Users\stapi\AppData\Local\Temp\ccyp2Aek.s:183    .text.dhcpd_pickup_opt:0000000000000074 .L0 
C:\Users\stapi\AppData\Local\Temp\ccyp2Aek.s:184    .text.dhcpd_pickup_opt:0000000000000074 .L0 
C:\Users\stapi\AppData\Local\Temp\ccyp2Aek.s:188    .text.dhcpd_pickup_opt:0000000000000076 .L0 
C:\Users\stapi\AppData\Local\Temp\ccyp2Aek.s:189    .text.dhcpd_pickup_opt:0000000000000076 .L0 
C:\Users\stapi\AppData\Local\Temp\ccyp2Aek.s:190    .text.dhcpd_pickup_opt:0000000000000076 .L0 
C:\Users\stapi\AppData\Local\Temp\ccyp2Aek.s:191    .text.dhcpd_pickup_opt:0000000000000076 .L0 
C:\Users\stapi\AppData\Local\Temp\ccyp2Aek.s:195    .text.dhcpd_pickup_opt:000000000000007a .L0 
C:\Users\stapi\AppData\Local\Temp\ccyp2Aek.s:201    .text.dhcpd_pickup_opt:000000000000007e .L0 
C:\Users\stapi\AppData\Local\Temp\ccyp2Aek.s:202    .text.dhcpd_pickup_opt:000000000000007e .L0 
C:\Users\stapi\AppData\Local\Temp\ccyp2Aek.s:204    .text.dhcpd_pickup_opt:0000000000000082 .L0 
C:\Users\stapi\AppData\Local\Temp\ccyp2Aek.s:206    .text.dhcpd_pickup_opt:0000000000000086 .L0 
C:\Users\stapi\AppData\Local\Temp\ccyp2Aek.s:208    .text.dhcpd_pickup_opt:0000000000000088 .L0 
C:\Users\stapi\AppData\Local\Temp\ccyp2Aek.s:210    .text.dhcpd_pickup_opt:000000000000008c .L0 
C:\Users\stapi\AppData\Local\Temp\ccyp2Aek.s:211    .text.dhcpd_pickup_opt:000000000000008c .L0 
C:\Users\stapi\AppData\Local\Temp\ccyp2Aek.s:214    .text.dhcpd_pickup_opt:0000000000000090 .L0 
C:\Users\stapi\AppData\Local\Temp\ccyp2Aek.s:215    .text.dhcpd_pickup_opt:0000000000000090 .L0 
C:\Users\stapi\AppData\Local\Temp\ccyp2Aek.s:218    .text.dhcpd_pickup_opt:0000000000000094 .L0 
C:\Users\stapi\AppData\Local\Temp\ccyp2Aek.s:220    .text.dhcpd_pickup_opt:0000000000000096 .L0 
C:\Users\stapi\AppData\Local\Temp\ccyp2Aek.s:225    .text.dhcpd_pickup_opt:000000000000009a .L0 
C:\Users\stapi\AppData\Local\Temp\ccyp2Aek.s:226    .text.dhcpd_pickup_opt:000000000000009a .L0 
C:\Users\stapi\AppData\Local\Temp\ccyp2Aek.s:228    .text.dhcpd_pickup_opt:000000000000009e .L0 
C:\Users\stapi\AppData\Local\Temp\ccyp2Aek.s:231    .text.dhcpd_pickup_opt:00000000000000a2 .L0 
C:\Users\stapi\AppData\Local\Temp\ccyp2Aek.s:233    .text.dhcpd_pickup_opt:00000000000000a6 .L0 
C:\Users\stapi\AppData\Local\Temp\ccyp2Aek.s:234    .text.dhcpd_pickup_opt:00000000000000a6 .L0 
C:\Users\stapi\AppData\Local\Temp\ccyp2Aek.s:237    .text.dhcpd_pickup_opt:00000000000000a8 .L0 
C:\Users\stapi\AppData\Local\Temp\ccyp2Aek.s:238    .text.dhcpd_pickup_opt:00000000000000a8 .L0 
C:\Users\stapi\AppData\Local\Temp\ccyp2Aek.s:239    .text.dhcpd_pickup_opt:00000000000000a8 .L0 
C:\Users\stapi\AppData\Local\Temp\ccyp2Aek.s:240    .text.dhcpd_pickup_opt:00000000000000a8 .L0 
C:\Users\stapi\AppData\Local\Temp\ccyp2Aek.s:244    .text.dhcpd_pickup_opt:00000000000000ac .L0 
C:\Users\stapi\AppData\Local\Temp\ccyp2Aek.s:245    .text.dhcpd_pickup_opt:00000000000000ac .L0 
C:\Users\stapi\AppData\Local\Temp\ccyp2Aek.s:250    .text.dhcpd_pickup_opt:00000000000000b0 .L0 
C:\Users\stapi\AppData\Local\Temp\ccyp2Aek.s:251    .text.dhcpd_pickup_opt:00000000000000b0 .L0 
C:\Users\stapi\AppData\Local\Temp\ccyp2Aek.s:253    .text.dhcpd_pickup_opt:00000000000000b4 .L0 
C:\Users\stapi\AppData\Local\Temp\ccyp2Aek.s:256    .text.dhcpd_pickup_opt:00000000000000b8 .L0 
C:\Users\stapi\AppData\Local\Temp\ccyp2Aek.s:258    .text.dhcpd_pickup_opt:00000000000000ba .L0 
C:\Users\stapi\AppData\Local\Temp\ccyp2Aek.s:259    .text.dhcpd_pickup_opt:00000000000000ba .L0 
C:\Users\stapi\AppData\Local\Temp\ccyp2Aek.s:262    .text.dhcpd_pickup_opt:00000000000000bc .L0 
C:\Users\stapi\AppData\Local\Temp\ccyp2Aek.s:263    .text.dhcpd_pickup_opt:00000000000000bc .L0 
C:\Users\stapi\AppData\Local\Temp\ccyp2Aek.s:264    .text.dhcpd_pickup_opt:00000000000000bc .L0 
C:\Users\stapi\AppData\Local\Temp\ccyp2Aek.s:265    .text.dhcpd_pickup_opt:00000000000000bc .L0 
C:\Users\stapi\AppData\Local\Temp\ccyp2Aek.s:267    .text.dhcpd_pickup_opt:00000000000000be .L0 
C:\Users\stapi\AppData\Local\Temp\ccyp2Aek.s:269    .text.dhcpd_pickup_opt:00000000000000c2 .L0 
C:\Users\stapi\AppData\Local\Temp\ccyp2Aek.s:273    .text.dhcpd_pickup_opt:00000000000000c4 .L0 
C:\Users\stapi\AppData\Local\Temp\ccyp2Aek.s:274    .text.dhcpd_pickup_opt:00000000000000c4 .L0 
C:\Users\stapi\AppData\Local\Temp\ccyp2Aek.s:276    .text.dhcpd_pickup_opt:00000000000000ca .L0 
C:\Users\stapi\AppData\Local\Temp\ccyp2Aek.s:282    .text.dhcpd_add_option.isra.0:0000000000000000 dhcpd_add_option.isra.0
C:\Users\stapi\AppData\Local\Temp\ccyp2Aek.s:285    .text.dhcpd_add_option.isra.0:0000000000000000 .L0 
C:\Users\stapi\AppData\Local\Temp\ccyp2Aek.s:287    .text.dhcpd_add_option.isra.0:0000000000000000 .L0 
C:\Users\stapi\AppData\Local\Temp\ccyp2Aek.s:288    .text.dhcpd_add_option.isra.0:0000000000000008 .L0 
C:\Users\stapi\AppData\Local\Temp\ccyp2Aek.s:289    .text.dhcpd_add_option.isra.0:0000000000000008 .L0 
C:\Users\stapi\AppData\Local\Temp\ccyp2Aek.s:290    .text.dhcpd_add_option.isra.0:0000000000000008 .L0 
C:\Users\stapi\AppData\Local\Temp\ccyp2Aek.s:291    .text.dhcpd_add_option.isra.0:0000000000000008 .L0 
C:\Users\stapi\AppData\Local\Temp\ccyp2Aek.s:293    .text.dhcpd_add_option.isra.0:0000000000000008 .L0 
C:\Users\stapi\AppData\Local\Temp\ccyp2Aek.s:298    .text.dhcpd_add_option.isra.0:000000000000000e .L0 
C:\Users\stapi\AppData\Local\Temp\ccyp2Aek.s:300    .text.dhcpd_add_option.isra.0:0000000000000010 .L0 
C:\Users\stapi\AppData\Local\Temp\ccyp2Aek.s:304    .text.dhcpd_add_option.isra.0:0000000000000014 .L0 
C:\Users\stapi\AppData\Local\Temp\ccyp2Aek.s:305    .text.dhcpd_add_option.isra.0:0000000000000014 .L0 
C:\Users\stapi\AppData\Local\Temp\ccyp2Aek.s:308    .text.dhcpd_add_option.isra.0:000000000000001c .L0 
C:\Users\stapi\AppData\Local\Temp\ccyp2Aek.s:310    .text.dhcpd_add_option.isra.0:0000000000000020 .L0 
C:\Users\stapi\AppData\Local\Temp\ccyp2Aek.s:311    .text.dhcpd_add_option.isra.0:0000000000000020 .L0 
C:\Users\stapi\AppData\Local\Temp\ccyp2Aek.s:314    .text.dhcpd_add_option.isra.0:0000000000000022 .L0 
C:\Users\stapi\AppData\Local\Temp\ccyp2Aek.s:318    .text.dhcpd_add_option.isra.0:000000000000002a .L0 
C:\Users\stapi\AppData\Local\Temp\ccyp2Aek.s:319    .text.dhcpd_add_option.isra.0:000000000000002a .L0 
C:\Users\stapi\AppData\Local\Temp\ccyp2Aek.s:320    .text.dhcpd_add_option.isra.0:000000000000002a .L0 
C:\Users\stapi\AppData\Local\Temp\ccyp2Aek.s:322    .text.dhcpd_add_option.isra.0:000000000000002e .L0 
C:\Users\stapi\AppData\Local\Temp\ccyp2Aek.s:323    .text.dhcpd_add_option.isra.0:000000000000002e .L0 
C:\Users\stapi\AppData\Local\Temp\ccyp2Aek.s:325    .text.dhcpd_add_option.isra.0:0000000000000032 .L0 
C:\Users\stapi\AppData\Local\Temp\ccyp2Aek.s:330    .text.dhcpd_add_option.isra.0:0000000000000040 .L0 
C:\Users\stapi\AppData\Local\Temp\ccyp2Aek.s:331    .text.dhcpd_add_option.isra.0:0000000000000040 .L0 
C:\Users\stapi\AppData\Local\Temp\ccyp2Aek.s:332    .text.dhcpd_add_option.isra.0:0000000000000040 .L0 
C:\Users\stapi\AppData\Local\Temp\ccyp2Aek.s:338    .text.dhcpd_add_option.isra.0:0000000000000048 .L0 
C:\Users\stapi\AppData\Local\Temp\ccyp2Aek.s:339    .text.dhcpd_add_option.isra.0:0000000000000048 .L0 
C:\Users\stapi\AppData\Local\Temp\ccyp2Aek.s:340    .text.dhcpd_add_option.isra.0:0000000000000050 .L0 
C:\Users\stapi\AppData\Local\Temp\ccyp2Aek.s:341    .text.dhcpd_add_option.isra.0:0000000000000050 .L0 
C:\Users\stapi\AppData\Local\Temp\ccyp2Aek.s:342    .text.dhcpd_add_option.isra.0:0000000000000050 .L0 
C:\Users\stapi\AppData\Local\Temp\ccyp2Aek.s:343    .text.dhcpd_add_option.isra.0:0000000000000050 .L0 
C:\Users\stapi\AppData\Local\Temp\ccyp2Aek.s:344    .text.dhcpd_add_option.isra.0:0000000000000050 .L0 
C:\Users\stapi\AppData\Local\Temp\ccyp2Aek.s:347    .text.dhcpd_add_option.isra.0:0000000000000050 .L0 
C:\Users\stapi\AppData\Local\Temp\ccyp2Aek.s:349    .text.dhcpd_add_option.isra.0:0000000000000050 .L0 
C:\Users\stapi\AppData\Local\Temp\ccyp2Aek.s:350    .text.dhcpd_add_option.isra.0:0000000000000050 .L0 
C:\Users\stapi\AppData\Local\Temp\ccyp2Aek.s:352    .text.dhcpd_add_option.isra.0:0000000000000052 .L0 
C:\Users\stapi\AppData\Local\Temp\ccyp2Aek.s:353    .text.dhcpd_add_option.isra.0:0000000000000052 .L0 
C:\Users\stapi\AppData\Local\Temp\ccyp2Aek.s:358    .text.dhcpd_add_option.isra.0:0000000000000056 .L0 
C:\Users\stapi\AppData\Local\Temp\ccyp2Aek.s:359    .text.dhcpd_add_option.isra.0:0000000000000056 .L0 
C:\Users\stapi\AppData\Local\Temp\ccyp2Aek.s:361    .text.dhcpd_add_option.isra.0:000000000000005a .L0 
C:\Users\stapi\AppData\Local\Temp\ccyp2Aek.s:363    .text.dhcpd_add_option.isra.0:000000000000005c .L0 
C:\Users\stapi\AppData\Local\Temp\ccyp2Aek.s:366    .text.dhcpd_add_option.isra.0:0000000000000060 .L0 
C:\Users\stapi\AppData\Local\Temp\ccyp2Aek.s:379    .text.request.isra.0:0000000000000000 request.isra.0
C:\Users\stapi\AppData\Local\Temp\ccyp2Aek.s:382    .text.request.isra.0:0000000000000000 .L0 
C:\Users\stapi\AppData\Local\Temp\ccyp2Aek.s:384    .text.request.isra.0:0000000000000000 .L0 
C:\Users\stapi\AppData\Local\Temp\ccyp2Aek.s:385    .text.request.isra.0:0000000000000008 .L0 
C:\Users\stapi\AppData\Local\Temp\ccyp2Aek.s:386    .text.request.isra.0:0000000000000008 .L0 
C:\Users\stapi\AppData\Local\Temp\ccyp2Aek.s:387    .text.request.isra.0:0000000000000008 .L0 
C:\Users\stapi\AppData\Local\Temp\ccyp2Aek.s:388    .text.request.isra.0:0000000000000008 .L0 
C:\Users\stapi\AppData\Local\Temp\ccyp2Aek.s:389    .text.request.isra.0:0000000000000008 .L0 
C:\Users\stapi\AppData\Local\Temp\ccyp2Aek.s:390    .text.request.isra.0:0000000000000008 .L0 
C:\Users\stapi\AppData\Local\Temp\ccyp2Aek.s:391    .text.request.isra.0:0000000000000008 .L0 
C:\Users\stapi\AppData\Local\Temp\ccyp2Aek.s:392    .text.request.isra.0:0000000000000008 .L0 
C:\Users\stapi\AppData\Local\Temp\ccyp2Aek.s:393    .text.request.isra.0:0000000000000008 .L0 
C:\Users\stapi\AppData\Local\Temp\ccyp2Aek.s:395    .text.request.isra.0:0000000000000008 .L0 
C:\Users\stapi\AppData\Local\Temp\ccyp2Aek.s:396    .text.request.isra.0:0000000000000008 .L0 
C:\Users\stapi\AppData\Local\Temp\ccyp2Aek.s:400    .text.request.isra.0:0000000000000014 .L0 
C:\Users\stapi\AppData\Local\Temp\ccyp2Aek.s:401    .text.request.isra.0:0000000000000016 .L0 
C:\Users\stapi\AppData\Local\Temp\ccyp2Aek.s:403    .text.request.isra.0:0000000000000016 .L0 
C:\Users\stapi\AppData\Local\Temp\ccyp2Aek.s:406    .text.request.isra.0:000000000000001c .L0 
C:\Users\stapi\AppData\Local\Temp\ccyp2Aek.s:408    .text.request.isra.0:000000000000001e .L0 
C:\Users\stapi\AppData\Local\Temp\ccyp2Aek.s:411    .text.request.isra.0:0000000000000020 .L0 
C:\Users\stapi\AppData\Local\Temp\ccyp2Aek.s:413    .text.request.isra.0:0000000000000022 .L0 
C:\Users\stapi\AppData\Local\Temp\ccyp2Aek.s:415    .text.request.isra.0:0000000000000022 .L0 
C:\Users\stapi\AppData\Local\Temp\ccyp2Aek.s:416    .text.request.isra.0:0000000000000022 .L0 
C:\Users\stapi\AppData\Local\Temp\ccyp2Aek.s:417    .text.request.isra.0:0000000000000022 .L0 
C:\Users\stapi\AppData\Local\Temp\ccyp2Aek.s:418    .text.request.isra.0:0000000000000022 .L0 
C:\Users\stapi\AppData\Local\Temp\ccyp2Aek.s:422    .text.request.isra.0:000000000000002c .L0 
C:\Users\stapi\AppData\Local\Temp\ccyp2Aek.s:423    .text.request.isra.0:000000000000002c .L0 
C:\Users\stapi\AppData\Local\Temp\ccyp2Aek.s:427    .text.request.isra.0:0000000000000036 .L0 
C:\Users\stapi\AppData\Local\Temp\ccyp2Aek.s:429    .text.request.isra.0:000000000000003a .L0 
C:\Users\stapi\AppData\Local\Temp\ccyp2Aek.s:431    .text.request.isra.0:000000000000003c .L0 
C:\Users\stapi\AppData\Local\Temp\ccyp2Aek.s:437    .text.request.isra.0:000000000000004e .L0 
C:\Users\stapi\AppData\Local\Temp\ccyp2Aek.s:438    .text.request.isra.0:000000000000004e .L0 
C:\Users\stapi\AppData\Local\Temp\ccyp2Aek.s:440    .text.request.isra.0:0000000000000052 .L0 
C:\Users\stapi\AppData\Local\Temp\ccyp2Aek.s:447    .text.request.isra.0:0000000000000060 .L0 
C:\Users\stapi\AppData\Local\Temp\ccyp2Aek.s:453    .text.request.isra.0:000000000000006e .L0 
C:\Users\stapi\AppData\Local\Temp\ccyp2Aek.s:456    .text.request.isra.0:0000000000000074 .L0 
C:\Users\stapi\AppData\Local\Temp\ccyp2Aek.s:457    .text.request.isra.0:0000000000000074 .L0 
C:\Users\stapi\AppData\Local\Temp\ccyp2Aek.s:459    .text.request.isra.0:0000000000000078 .L0 
C:\Users\stapi\AppData\Local\Temp\ccyp2Aek.s:460    .text.request.isra.0:0000000000000078 .L0 
C:\Users\stapi\AppData\Local\Temp\ccyp2Aek.s:461    .text.request.isra.0:0000000000000078 .L0 
C:\Users\stapi\AppData\Local\Temp\ccyp2Aek.s:462    .text.request.isra.0:0000000000000078 .L0 
C:\Users\stapi\AppData\Local\Temp\ccyp2Aek.s:465    .text.request.isra.0:0000000000000080 .L0 
C:\Users\stapi\AppData\Local\Temp\ccyp2Aek.s:468    .text.request.isra.0:0000000000000086 .L0 
C:\Users\stapi\AppData\Local\Temp\ccyp2Aek.s:469    .text.request.isra.0:0000000000000086 .L0 
C:\Users\stapi\AppData\Local\Temp\ccyp2Aek.s:472    .text.request.isra.0:000000000000008e .L0 
C:\Users\stapi\AppData\Local\Temp\ccyp2Aek.s:474    .text.request.isra.0:0000000000000090 .L0 
C:\Users\stapi\AppData\Local\Temp\ccyp2Aek.s:478    .text.request.isra.0:0000000000000098 .L0 
C:\Users\stapi\AppData\Local\Temp\ccyp2Aek.s:480    .text.request.isra.0:000000000000009c .L0 
C:\Users\stapi\AppData\Local\Temp\ccyp2Aek.s:486    .text.request.isra.0:00000000000000a8 .L0 
C:\Users\stapi\AppData\Local\Temp\ccyp2Aek.s:488    .text.request.isra.0:00000000000000aa .L0 
C:\Users\stapi\AppData\Local\Temp\ccyp2Aek.s:491    .text.request.isra.0:00000000000000b2 .L0 
C:\Users\stapi\AppData\Local\Temp\ccyp2Aek.s:492    .text.request.isra.0:00000000000000b2 .L0 
C:\Users\stapi\AppData\Local\Temp\ccyp2Aek.s:495    .text.request.isra.0:00000000000000ba .L0 
C:\Users\stapi\AppData\Local\Temp\ccyp2Aek.s:497    .text.request.isra.0:00000000000000be .L0 
C:\Users\stapi\AppData\Local\Temp\ccyp2Aek.s:500    .text.request.isra.0:00000000000000c2 .L0 
C:\Users\stapi\AppData\Local\Temp\ccyp2Aek.s:502    .text.request.isra.0:00000000000000c6 .L0 
C:\Users\stapi\AppData\Local\Temp\ccyp2Aek.s:503    .text.request.isra.0:00000000000000c6 .L0 
C:\Users\stapi\AppData\Local\Temp\ccyp2Aek.s:506    .text.request.isra.0:00000000000000ce .L0 
C:\Users\stapi\AppData\Local\Temp\ccyp2Aek.s:508    .text.request.isra.0:00000000000000d2 .L0 
C:\Users\stapi\AppData\Local\Temp\ccyp2Aek.s:517    .text.request.isra.0:00000000000000e6 .L0 
C:\Users\stapi\AppData\Local\Temp\ccyp2Aek.s:519    .text.request.isra.0:00000000000000e8 .L0 
C:\Users\stapi\AppData\Local\Temp\ccyp2Aek.s:520    .text.request.isra.0:00000000000000e8 .L0 
C:\Users\stapi\AppData\Local\Temp\ccyp2Aek.s:523    .text.request.isra.0:00000000000000ee .L0 
C:\Users\stapi\AppData\Local\Temp\ccyp2Aek.s:524    .text.request.isra.0:00000000000000ee .L0 
C:\Users\stapi\AppData\Local\Temp\ccyp2Aek.s:535    .text.request.isra.0:000000000000010a .L0 
C:\Users\stapi\AppData\Local\Temp\ccyp2Aek.s:537    .text.request.isra.0:000000000000010c .L0 
C:\Users\stapi\AppData\Local\Temp\ccyp2Aek.s:538    .text.request.isra.0:000000000000010c .L0 
C:\Users\stapi\AppData\Local\Temp\ccyp2Aek.s:541    .text.request.isra.0:0000000000000114 .L0 
C:\Users\stapi\AppData\Local\Temp\ccyp2Aek.s:544    .text.request.isra.0:000000000000011a .L0 
C:\Users\stapi\AppData\Local\Temp\ccyp2Aek.s:546    .text.request.isra.0:000000000000011e .L0 
C:\Users\stapi\AppData\Local\Temp\ccyp2Aek.s:548    .text.request.isra.0:0000000000000122 .L0 
C:\Users\stapi\AppData\Local\Temp\ccyp2Aek.s:549    .text.request.isra.0:0000000000000122 .L0 
C:\Users\stapi\AppData\Local\Temp\ccyp2Aek.s:550    .text.request.isra.0:0000000000000122 .L0 
C:\Users\stapi\AppData\Local\Temp\ccyp2Aek.s:555    .text.request.isra.0:0000000000000130 .L0 
C:\Users\stapi\AppData\Local\Temp\ccyp2Aek.s:557    .text.request.isra.0:0000000000000132 .L0 
C:\Users\stapi\AppData\Local\Temp\ccyp2Aek.s:560    .text.request.isra.0:000000000000013a .L0 
C:\Users\stapi\AppData\Local\Temp\ccyp2Aek.s:567    .text.request.isra.0:0000000000000150 .L0 
C:\Users\stapi\AppData\Local\Temp\ccyp2Aek.s:574    .text.request.isra.0:0000000000000164 .L0 
C:\Users\stapi\AppData\Local\Temp\ccyp2Aek.s:581    .text.request.isra.0:0000000000000178 .L0 
C:\Users\stapi\AppData\Local\Temp\ccyp2Aek.s:588    .text.request.isra.0:000000000000018c .L0 
C:\Users\stapi\AppData\Local\Temp\ccyp2Aek.s:595    .text.request.isra.0:00000000000001a0 .L0 
C:\Users\stapi\AppData\Local\Temp\ccyp2Aek.s:602    .text.request.isra.0:00000000000001b4 .L0 
C:\Users\stapi\AppData\Local\Temp\ccyp2Aek.s:603    .text.request.isra.0:00000000000001b4 .L0 
C:\Users\stapi\AppData\Local\Temp\ccyp2Aek.s:607    .text.request.isra.0:00000000000001be .L0 
C:\Users\stapi\AppData\Local\Temp\ccyp2Aek.s:614    .text.request.isra.0:00000000000001d2 .L0 
C:\Users\stapi\AppData\Local\Temp\ccyp2Aek.s:615    .text.request.isra.0:00000000000001d2 .L0 
C:\Users\stapi\AppData\Local\Temp\ccyp2Aek.s:619    .text.request.isra.0:00000000000001dc .L0 
C:\Users\stapi\AppData\Local\Temp\ccyp2Aek.s:622    .text.request.isra.0:00000000000001e0 .L0 
C:\Users\stapi\AppData\Local\Temp\ccyp2Aek.s:623    .text.request.isra.0:00000000000001e0 .L0 
C:\Users\stapi\AppData\Local\Temp\ccyp2Aek.s:628    .text.request.isra.0:00000000000001ec .L0 
C:\Users\stapi\AppData\Local\Temp\ccyp2Aek.s:629    .text.request.isra.0:00000000000001ec .L0 
C:\Users\stapi\AppData\Local\Temp\ccyp2Aek.s:631    .text.request.isra.0:00000000000001f0 .L0 
C:\Users\stapi\AppData\Local\Temp\ccyp2Aek.s:634    .text.request.isra.0:00000000000001f6 .L0 
C:\Users\stapi\AppData\Local\Temp\ccyp2Aek.s:635    .text.request.isra.0:00000000000001f6 .L0 
C:\Users\stapi\AppData\Local\Temp\ccyp2Aek.s:639    .text.request.isra.0:00000000000001fc .L0 
C:\Users\stapi\AppData\Local\Temp\ccyp2Aek.s:640    .text.request.isra.0:00000000000001fc .L0 
C:\Users\stapi\AppData\Local\Temp\ccyp2Aek.s:645    .text.request.isra.0:000000000000020a .L0 
C:\Users\stapi\AppData\Local\Temp\ccyp2Aek.s:667    .text.request.isra.0:0000000000000252 .L0 
C:\Users\stapi\AppData\Local\Temp\ccyp2Aek.s:668    .text.request.isra.0:0000000000000254 .L0 
C:\Users\stapi\AppData\Local\Temp\ccyp2Aek.s:669    .text.request.isra.0:0000000000000254 .L0 
C:\Users\stapi\AppData\Local\Temp\ccyp2Aek.s:671    .text.request.isra.0:000000000000025c .L0 
C:\Users\stapi\AppData\Local\Temp\ccyp2Aek.s:672    .text.request.isra.0:000000000000025c .L0 
C:\Users\stapi\AppData\Local\Temp\ccyp2Aek.s:673    .text.request.isra.0:000000000000025c .L0 
C:\Users\stapi\AppData\Local\Temp\ccyp2Aek.s:674    .text.request.isra.0:000000000000025c .L0 
C:\Users\stapi\AppData\Local\Temp\ccyp2Aek.s:675    .text.request.isra.0:000000000000025c .L0 
C:\Users\stapi\AppData\Local\Temp\ccyp2Aek.s:676    .text.request.isra.0:000000000000025c .L0 
C:\Users\stapi\AppData\Local\Temp\ccyp2Aek.s:677    .text.request.isra.0:000000000000025c .L0 
C:\Users\stapi\AppData\Local\Temp\ccyp2Aek.s:678    .text.request.isra.0:000000000000025c .L0 
C:\Users\stapi\AppData\Local\Temp\ccyp2Aek.s:679    .text.request.isra.0:000000000000025c .L0 
C:\Users\stapi\AppData\Local\Temp\ccyp2Aek.s:681    .text.request.isra.0:000000000000025c .L0 
C:\Users\stapi\AppData\Local\Temp\ccyp2Aek.s:684    .text.request.isra.0:0000000000000260 .L0 
C:\Users\stapi\AppData\Local\Temp\ccyp2Aek.s:685    .text.request.isra.0:0000000000000260 .L0 
C:\Users\stapi\AppData\Local\Temp\ccyp2Aek.s:687    .text.request.isra.0:0000000000000262 .L0 
C:\Users\stapi\AppData\Local\Temp\ccyp2Aek.s:690    .text.request.isra.0:000000000000026a .L0 
C:\Users\stapi\AppData\Local\Temp\ccyp2Aek.s:692    .text.request.isra.0:000000000000026e .L0 
C:\Users\stapi\AppData\Local\Temp\ccyp2Aek.s:694    .text.request.isra.0:0000000000000272 .L0 
C:\Users\stapi\AppData\Local\Temp\ccyp2Aek.s:696    .text.request.isra.0:0000000000000276 .L0 
C:\Users\stapi\AppData\Local\Temp\ccyp2Aek.s:697    .text.request.isra.0:0000000000000276 .L0 
C:\Users\stapi\AppData\Local\Temp\ccyp2Aek.s:698    .text.request.isra.0:0000000000000276 .L0 
C:\Users\stapi\AppData\Local\Temp\ccyp2Aek.s:699    .text.request.isra.0:0000000000000276 .L0 
C:\Users\stapi\AppData\Local\Temp\ccyp2Aek.s:700    .text.request.isra.0:0000000000000276 .L0 
C:\Users\stapi\AppData\Local\Temp\ccyp2Aek.s:703    .text.request.isra.0:000000000000027c .L0 
C:\Users\stapi\AppData\Local\Temp\ccyp2Aek.s:705    .text.request.isra.0:000000000000027e .L0 
C:\Users\stapi\AppData\Local\Temp\ccyp2Aek.s:708    .text.request.isra.0:0000000000000284 .L0 
C:\Users\stapi\AppData\Local\Temp\ccyp2Aek.s:710    .text.request.isra.0:0000000000000288 .L0 
C:\Users\stapi\AppData\Local\Temp\ccyp2Aek.s:716    .text.request.isra.0:0000000000000294 .L0 
C:\Users\stapi\AppData\Local\Temp\ccyp2Aek.s:718    .text.request.isra.0:0000000000000298 .L0 
C:\Users\stapi\AppData\Local\Temp\ccyp2Aek.s:721    .text.request.isra.0:00000000000002a0 .L0 
C:\Users\stapi\AppData\Local\Temp\ccyp2Aek.s:722    .text.request.isra.0:00000000000002a0 .L0 
C:\Users\stapi\AppData\Local\Temp\ccyp2Aek.s:724    .text.request.isra.0:00000000000002a4 .L0 
C:\Users\stapi\AppData\Local\Temp\ccyp2Aek.s:725    .text.request.isra.0:00000000000002a4 .L0 
C:\Users\stapi\AppData\Local\Temp\ccyp2Aek.s:728    .text.request.isra.0:00000000000002ac .L0 
C:\Users\stapi\AppData\Local\Temp\ccyp2Aek.s:730    .text.request.isra.0:00000000000002b0 .L0 
C:\Users\stapi\AppData\Local\Temp\ccyp2Aek.s:734    .text.request.isra.0:00000000000002b8 .L0 
C:\Users\stapi\AppData\Local\Temp\ccyp2Aek.s:736    .text.request.isra.0:00000000000002bc .L0 
C:\Users\stapi\AppData\Local\Temp\ccyp2Aek.s:742    .text.request.isra.0:00000000000002c8 .L0 
C:\Users\stapi\AppData\Local\Temp\ccyp2Aek.s:744    .text.request.isra.0:00000000000002cc .L0 
C:\Users\stapi\AppData\Local\Temp\ccyp2Aek.s:745    .text.request.isra.0:00000000000002cc .L0 
C:\Users\stapi\AppData\Local\Temp\ccyp2Aek.s:756    .text.request.isra.0:00000000000002e8 .L0 
C:\Users\stapi\AppData\Local\Temp\ccyp2Aek.s:758    .text.request.isra.0:00000000000002ec .L0 
C:\Users\stapi\AppData\Local\Temp\ccyp2Aek.s:759    .text.request.isra.0:00000000000002ec .L0 
C:\Users\stapi\AppData\Local\Temp\ccyp2Aek.s:762    .text.request.isra.0:00000000000002f4 .L0 
C:\Users\stapi\AppData\Local\Temp\ccyp2Aek.s:764    .text.request.isra.0:00000000000002f8 .L0 
C:\Users\stapi\AppData\Local\Temp\ccyp2Aek.s:765    .text.request.isra.0:00000000000002f8 .L0 
C:\Users\stapi\AppData\Local\Temp\ccyp2Aek.s:767    .text.request.isra.0:00000000000002fa .L0 
C:\Users\stapi\AppData\Local\Temp\ccyp2Aek.s:772    .text.request.isra.0:0000000000000308 .L0 
C:\Users\stapi\AppData\Local\Temp\ccyp2Aek.s:774    .text.request.isra.0:000000000000030c .L0 
C:\Users\stapi\AppData\Local\Temp\ccyp2Aek.s:777    .text.request.isra.0:0000000000000314 .L0 
C:\Users\stapi\AppData\Local\Temp\ccyp2Aek.s:784    .text.request.isra.0:000000000000032a .L0 
C:\Users\stapi\AppData\Local\Temp\ccyp2Aek.s:785    .text.request.isra.0:000000000000032a .L0 
C:\Users\stapi\AppData\Local\Temp\ccyp2Aek.s:786    .text.request.isra.0:000000000000032c .L0 
C:\Users\stapi\AppData\Local\Temp\ccyp2Aek.s:792    .text.make_dhcpd_packet.constprop.0:0000000000000000 make_dhcpd_packet.constprop.0
C:\Users\stapi\AppData\Local\Temp\ccyp2Aek.s:795    .text.make_dhcpd_packet.constprop.0:0000000000000000 .L0 
C:\Users\stapi\AppData\Local\Temp\ccyp2Aek.s:797    .text.make_dhcpd_packet.constprop.0:0000000000000000 .L0 
C:\Users\stapi\AppData\Local\Temp\ccyp2Aek.s:798    .text.make_dhcpd_packet.constprop.0:0000000000000008 .L0 
C:\Users\stapi\AppData\Local\Temp\ccyp2Aek.s:799    .text.make_dhcpd_packet.constprop.0:0000000000000008 .L0 
C:\Users\stapi\AppData\Local\Temp\ccyp2Aek.s:800    .text.make_dhcpd_packet.constprop.0:0000000000000008 .L0 
C:\Users\stapi\AppData\Local\Temp\ccyp2Aek.s:801    .text.make_dhcpd_packet.constprop.0:0000000000000008 .L0 
C:\Users\stapi\AppData\Local\Temp\ccyp2Aek.s:802    .text.make_dhcpd_packet.constprop.0:0000000000000008 .L0 
C:\Users\stapi\AppData\Local\Temp\ccyp2Aek.s:803    .text.make_dhcpd_packet.constprop.0:0000000000000008 .L0 
C:\Users\stapi\AppData\Local\Temp\ccyp2Aek.s:805    .text.make_dhcpd_packet.constprop.0:0000000000000008 .L0 
C:\Users\stapi\AppData\Local\Temp\ccyp2Aek.s:809    .text.make_dhcpd_packet.constprop.0:0000000000000014 .L0 
C:\Users\stapi\AppData\Local\Temp\ccyp2Aek.s:810    .text.make_dhcpd_packet.constprop.0:0000000000000016 .L0 
C:\Users\stapi\AppData\Local\Temp\ccyp2Aek.s:812    .text.make_dhcpd_packet.constprop.0:0000000000000016 .L0 
C:\Users\stapi\AppData\Local\Temp\ccyp2Aek.s:815    .text.make_dhcpd_packet.constprop.0:000000000000001a .L0 
C:\Users\stapi\AppData\Local\Temp\ccyp2Aek.s:822    .text.make_dhcpd_packet.constprop.0:0000000000000026 .L0 
C:\Users\stapi\AppData\Local\Temp\ccyp2Aek.s:823    .text.make_dhcpd_packet.constprop.0:0000000000000026 .L0 
C:\Users\stapi\AppData\Local\Temp\ccyp2Aek.s:826    .text.make_dhcpd_packet.constprop.0:0000000000000028 .L0 
C:\Users\stapi\AppData\Local\Temp\ccyp2Aek.s:827    .text.make_dhcpd_packet.constprop.0:0000000000000028 .L0 
C:\Users\stapi\AppData\Local\Temp\ccyp2Aek.s:828    .text.make_dhcpd_packet.constprop.0:0000000000000028 .L0 
C:\Users\stapi\AppData\Local\Temp\ccyp2Aek.s:832    .text.make_dhcpd_packet.constprop.0:0000000000000032 .L0 
C:\Users\stapi\AppData\Local\Temp\ccyp2Aek.s:833    .text.make_dhcpd_packet.constprop.0:0000000000000032 .L0 
C:\Users\stapi\AppData\Local\Temp\ccyp2Aek.s:837    .text.make_dhcpd_packet.constprop.0:000000000000003c .L0 
C:\Users\stapi\AppData\Local\Temp\ccyp2Aek.s:839    .text.make_dhcpd_packet.constprop.0:000000000000003e .L0 
C:\Users\stapi\AppData\Local\Temp\ccyp2Aek.s:847    .text.make_dhcpd_packet.constprop.0:0000000000000058 .L0 
C:\Users\stapi\AppData\Local\Temp\ccyp2Aek.s:848    .text.make_dhcpd_packet.constprop.0:0000000000000058 .L0 
C:\Users\stapi\AppData\Local\Temp\ccyp2Aek.s:849    .text.make_dhcpd_packet.constprop.0:0000000000000058 .L0 
C:\Users\stapi\AppData\Local\Temp\ccyp2Aek.s:850    .text.make_dhcpd_packet.constprop.0:0000000000000058 .L0 
C:\Users\stapi\AppData\Local\Temp\ccyp2Aek.s:853    .text.make_dhcpd_packet.constprop.0:0000000000000060 .L0 
C:\Users\stapi\AppData\Local\Temp\ccyp2Aek.s:856    .text.make_dhcpd_packet.constprop.0:0000000000000066 .L0 
C:\Users\stapi\AppData\Local\Temp\ccyp2Aek.s:857    .text.make_dhcpd_packet.constprop.0:0000000000000066 .L0 
C:\Users\stapi\AppData\Local\Temp\ccyp2Aek.s:860    .text.make_dhcpd_packet.constprop.0:000000000000006e .L0 
C:\Users\stapi\AppData\Local\Temp\ccyp2Aek.s:862    .text.make_dhcpd_packet.constprop.0:0000000000000072 .L0 
C:\Users\stapi\AppData\Local\Temp\ccyp2Aek.s:866    .text.make_dhcpd_packet.constprop.0:000000000000007a .L0 
C:\Users\stapi\AppData\Local\Temp\ccyp2Aek.s:869    .text.make_dhcpd_packet.constprop.0:0000000000000080 .L0 
C:\Users\stapi\AppData\Local\Temp\ccyp2Aek.s:875    .text.make_dhcpd_packet.constprop.0:000000000000008c .L0 
C:\Users\stapi\AppData\Local\Temp\ccyp2Aek.s:877    .text.make_dhcpd_packet.constprop.0:000000000000008e .L0 
C:\Users\stapi\AppData\Local\Temp\ccyp2Aek.s:880    .text.make_dhcpd_packet.constprop.0:0000000000000096 .L0 
C:\Users\stapi\AppData\Local\Temp\ccyp2Aek.s:881    .text.make_dhcpd_packet.constprop.0:0000000000000096 .L0 
C:\Users\stapi\AppData\Local\Temp\ccyp2Aek.s:884    .text.make_dhcpd_packet.constprop.0:000000000000009e .L0 
C:\Users\stapi\AppData\Local\Temp\ccyp2Aek.s:886    .text.make_dhcpd_packet.constprop.0:00000000000000a2 .L0 
C:\Users\stapi\AppData\Local\Temp\ccyp2Aek.s:889    .text.make_dhcpd_packet.constprop.0:00000000000000a6 .L0 
C:\Users\stapi\AppData\Local\Temp\ccyp2Aek.s:891    .text.make_dhcpd_packet.constprop.0:00000000000000aa .L0 
C:\Users\stapi\AppData\Local\Temp\ccyp2Aek.s:892    .text.make_dhcpd_packet.constprop.0:00000000000000aa .L0 
C:\Users\stapi\AppData\Local\Temp\ccyp2Aek.s:895    .text.make_dhcpd_packet.constprop.0:00000000000000b2 .L0 
C:\Users\stapi\AppData\Local\Temp\ccyp2Aek.s:897    .text.make_dhcpd_packet.constprop.0:00000000000000b6 .L0 
C:\Users\stapi\AppData\Local\Temp\ccyp2Aek.s:906    .text.make_dhcpd_packet.constprop.0:00000000000000ca .L0 
C:\Users\stapi\AppData\Local\Temp\ccyp2Aek.s:908    .text.make_dhcpd_packet.constprop.0:00000000000000cc .L0 
C:\Users\stapi\AppData\Local\Temp\ccyp2Aek.s:909    .text.make_dhcpd_packet.constprop.0:00000000000000cc .L0 
C:\Users\stapi\AppData\Local\Temp\ccyp2Aek.s:912    .text.make_dhcpd_packet.constprop.0:00000000000000d2 .L0 
C:\Users\stapi\AppData\Local\Temp\ccyp2Aek.s:913    .text.make_dhcpd_packet.constprop.0:00000000000000d2 .L0 
C:\Users\stapi\AppData\Local\Temp\ccyp2Aek.s:924    .text.make_dhcpd_packet.constprop.0:00000000000000ee .L0 
C:\Users\stapi\AppData\Local\Temp\ccyp2Aek.s:926    .text.make_dhcpd_packet.constprop.0:00000000000000f0 .L0 
C:\Users\stapi\AppData\Local\Temp\ccyp2Aek.s:927    .text.make_dhcpd_packet.constprop.0:00000000000000f0 .L0 
C:\Users\stapi\AppData\Local\Temp\ccyp2Aek.s:930    .text.make_dhcpd_packet.constprop.0:00000000000000f8 .L0 
C:\Users\stapi\AppData\Local\Temp\ccyp2Aek.s:932    .text.make_dhcpd_packet.constprop.0:00000000000000fc .L0 
C:\Users\stapi\AppData\Local\Temp\ccyp2Aek.s:935    .text.make_dhcpd_packet.constprop.0:0000000000000102 .L0 
C:\Users\stapi\AppData\Local\Temp\ccyp2Aek.s:937    .text.make_dhcpd_packet.constprop.0:0000000000000106 .L0 
C:\Users\stapi\AppData\Local\Temp\ccyp2Aek.s:938    .text.make_dhcpd_packet.constprop.0:0000000000000106 .L0 
C:\Users\stapi\AppData\Local\Temp\ccyp2Aek.s:943    .text.make_dhcpd_packet.constprop.0:0000000000000114 .L0 
C:\Users\stapi\AppData\Local\Temp\ccyp2Aek.s:951    .text.make_dhcpd_packet.constprop.0:000000000000012c .L0 
C:\Users\stapi\AppData\Local\Temp\ccyp2Aek.s:958    .text.make_dhcpd_packet.constprop.0:0000000000000140 .L0 
C:\Users\stapi\AppData\Local\Temp\ccyp2Aek.s:965    .text.make_dhcpd_packet.constprop.0:0000000000000152 .L0 
C:\Users\stapi\AppData\Local\Temp\ccyp2Aek.s:972    .text.make_dhcpd_packet.constprop.0:0000000000000164 .L0 
C:\Users\stapi\AppData\Local\Temp\ccyp2Aek.s:979    .text.make_dhcpd_packet.constprop.0:0000000000000176 .L0 
C:\Users\stapi\AppData\Local\Temp\ccyp2Aek.s:986    .text.make_dhcpd_packet.constprop.0:0000000000000188 .L0 
C:\Users\stapi\AppData\Local\Temp\ccyp2Aek.s:993    .text.make_dhcpd_packet.constprop.0:000000000000019c .L0 
C:\Users\stapi\AppData\Local\Temp\ccyp2Aek.s:994    .text.make_dhcpd_packet.constprop.0:000000000000019c .L0 
C:\Users\stapi\AppData\Local\Temp\ccyp2Aek.s:998    .text.make_dhcpd_packet.constprop.0:00000000000001a6 .L0 
C:\Users\stapi\AppData\Local\Temp\ccyp2Aek.s:1005   .text.make_dhcpd_packet.constprop.0:00000000000001b8 .L0 
C:\Users\stapi\AppData\Local\Temp\ccyp2Aek.s:1006   .text.make_dhcpd_packet.constprop.0:00000000000001ba .L0 
C:\Users\stapi\AppData\Local\Temp\ccyp2Aek.s:1008   .text.make_dhcpd_packet.constprop.0:00000000000001c2 .L0 
C:\Users\stapi\AppData\Local\Temp\ccyp2Aek.s:1009   .text.make_dhcpd_packet.constprop.0:00000000000001c2 .L0 
C:\Users\stapi\AppData\Local\Temp\ccyp2Aek.s:1010   .text.make_dhcpd_packet.constprop.0:00000000000001c2 .L0 
C:\Users\stapi\AppData\Local\Temp\ccyp2Aek.s:1011   .text.make_dhcpd_packet.constprop.0:00000000000001c2 .L0 
C:\Users\stapi\AppData\Local\Temp\ccyp2Aek.s:1012   .text.make_dhcpd_packet.constprop.0:00000000000001c2 .L0 
C:\Users\stapi\AppData\Local\Temp\ccyp2Aek.s:1013   .text.make_dhcpd_packet.constprop.0:00000000000001c2 .L0 
C:\Users\stapi\AppData\Local\Temp\ccyp2Aek.s:1014   .text.make_dhcpd_packet.constprop.0:00000000000001c2 .L0 
C:\Users\stapi\AppData\Local\Temp\ccyp2Aek.s:1021   .text.dhcpd_find_ipaddr_by_macaddr:0000000000000000 dhcpd_find_ipaddr_by_macaddr
C:\Users\stapi\AppData\Local\Temp\ccyp2Aek.s:1024   .text.dhcpd_find_ipaddr_by_macaddr:0000000000000000 .L0 
C:\Users\stapi\AppData\Local\Temp\ccyp2Aek.s:1026   .text.dhcpd_find_ipaddr_by_macaddr:0000000000000000 .L0 
C:\Users\stapi\AppData\Local\Temp\ccyp2Aek.s:1027   .text.dhcpd_find_ipaddr_by_macaddr:0000000000000008 .L0 
C:\Users\stapi\AppData\Local\Temp\ccyp2Aek.s:1028   .text.dhcpd_find_ipaddr_by_macaddr:0000000000000008 .L0 
C:\Users\stapi\AppData\Local\Temp\ccyp2Aek.s:1031   .text.dhcpd_find_ipaddr_by_macaddr:0000000000000008 .L0 
C:\Users\stapi\AppData\Local\Temp\ccyp2Aek.s:1032   .text.dhcpd_find_ipaddr_by_macaddr:0000000000000008 .L0 
C:\Users\stapi\AppData\Local\Temp\ccyp2Aek.s:1033   .text.dhcpd_find_ipaddr_by_macaddr:0000000000000008 .L0 
C:\Users\stapi\AppData\Local\Temp\ccyp2Aek.s:1036   .text.dhcpd_find_ipaddr_by_macaddr:0000000000000010 .L0 
C:\Users\stapi\AppData\Local\Temp\ccyp2Aek.s:1037   .text.dhcpd_find_ipaddr_by_macaddr:0000000000000010 .L0 
C:\Users\stapi\AppData\Local\Temp\ccyp2Aek.s:1039   .text.dhcpd_find_ipaddr_by_macaddr:0000000000000012 .L0 
C:\Users\stapi\AppData\Local\Temp\ccyp2Aek.s:1042   .text.dhcpd_find_ipaddr_by_macaddr:0000000000000018 .L0 
C:\Users\stapi\AppData\Local\Temp\ccyp2Aek.s:1045   .text.dhcpd_find_ipaddr_by_macaddr:000000000000001a .L0 
C:\Users\stapi\AppData\Local\Temp\ccyp2Aek.s:1048   .text.dhcpd_find_ipaddr_by_macaddr:000000000000001e .L0 
C:\Users\stapi\AppData\Local\Temp\ccyp2Aek.s:1049   .text.dhcpd_find_ipaddr_by_macaddr:000000000000001e .L0 
C:\Users\stapi\AppData\Local\Temp\ccyp2Aek.s:1053   .text.dhcpd_find_ipaddr_by_macaddr:0000000000000020 .L0 
C:\Users\stapi\AppData\Local\Temp\ccyp2Aek.s:1054   .text.dhcpd_find_ipaddr_by_macaddr:0000000000000028 .L0 
C:\Users\stapi\AppData\Local\Temp\ccyp2Aek.s:1055   .text.dhcpd_find_ipaddr_by_macaddr:0000000000000028 .L0 
C:\Users\stapi\AppData\Local\Temp\ccyp2Aek.s:1056   .text.dhcpd_find_ipaddr_by_macaddr:0000000000000028 .L0 
C:\Users\stapi\AppData\Local\Temp\ccyp2Aek.s:1059   .text.dhcpd_find_ipaddr_by_macaddr:0000000000000028 .L0 
C:\Users\stapi\AppData\Local\Temp\ccyp2Aek.s:1061   .text.dhcpd_find_ipaddr_by_macaddr:0000000000000028 .L0 
C:\Users\stapi\AppData\Local\Temp\ccyp2Aek.s:1064   .text.dhcpd_find_ipaddr_by_macaddr:000000000000002c .L0 
C:\Users\stapi\AppData\Local\Temp\ccyp2Aek.s:1071   .text.dhcpd_delete_ipaddr_by_macaddr:0000000000000000 dhcpd_delete_ipaddr_by_macaddr
C:\Users\stapi\AppData\Local\Temp\ccyp2Aek.s:1074   .text.dhcpd_delete_ipaddr_by_macaddr:0000000000000000 .L0 
C:\Users\stapi\AppData\Local\Temp\ccyp2Aek.s:1076   .text.dhcpd_delete_ipaddr_by_macaddr:0000000000000000 .L0 
C:\Users\stapi\AppData\Local\Temp\ccyp2Aek.s:1077   .text.dhcpd_delete_ipaddr_by_macaddr:0000000000000008 .L0 
C:\Users\stapi\AppData\Local\Temp\ccyp2Aek.s:1078   .text.dhcpd_delete_ipaddr_by_macaddr:0000000000000008 .L0 
C:\Users\stapi\AppData\Local\Temp\ccyp2Aek.s:1081   .text.dhcpd_delete_ipaddr_by_macaddr:0000000000000008 .L0 
C:\Users\stapi\AppData\Local\Temp\ccyp2Aek.s:1082   .text.dhcpd_delete_ipaddr_by_macaddr:0000000000000008 .L0 
C:\Users\stapi\AppData\Local\Temp\ccyp2Aek.s:1083   .text.dhcpd_delete_ipaddr_by_macaddr:0000000000000008 .L0 
C:\Users\stapi\AppData\Local\Temp\ccyp2Aek.s:1086   .text.dhcpd_delete_ipaddr_by_macaddr:0000000000000010 .L0 
C:\Users\stapi\AppData\Local\Temp\ccyp2Aek.s:1087   .text.dhcpd_delete_ipaddr_by_macaddr:0000000000000010 .L0 
C:\Users\stapi\AppData\Local\Temp\ccyp2Aek.s:1089   .text.dhcpd_delete_ipaddr_by_macaddr:0000000000000012 .L0 
C:\Users\stapi\AppData\Local\Temp\ccyp2Aek.s:1090   .text.dhcpd_delete_ipaddr_by_macaddr:0000000000000012 .L0 
C:\Users\stapi\AppData\Local\Temp\ccyp2Aek.s:1095   .text.dhcpd_delete_ipaddr_by_macaddr:000000000000001e .L0 
C:\Users\stapi\AppData\Local\Temp\ccyp2Aek.s:1096   .text.dhcpd_delete_ipaddr_by_macaddr:0000000000000026 .L0 
C:\Users\stapi\AppData\Local\Temp\ccyp2Aek.s:1097   .text.dhcpd_delete_ipaddr_by_macaddr:0000000000000026 .L0 
C:\Users\stapi\AppData\Local\Temp\ccyp2Aek.s:1098   .text.dhcpd_delete_ipaddr_by_macaddr:0000000000000026 .L0 
C:\Users\stapi\AppData\Local\Temp\ccyp2Aek.s:1109   .text.dhcp_process:0000000000000000 dhcp_process
C:\Users\stapi\AppData\Local\Temp\ccyp2Aek.s:1112   .text.dhcp_process:0000000000000000 .L0 
C:\Users\stapi\AppData\Local\Temp\ccyp2Aek.s:1114   .text.dhcp_process:0000000000000000 .L0 
C:\Users\stapi\AppData\Local\Temp\ccyp2Aek.s:1115   .text.dhcp_process:0000000000000008 .L0 
C:\Users\stapi\AppData\Local\Temp\ccyp2Aek.s:1116   .text.dhcp_process:0000000000000008 .L0 
C:\Users\stapi\AppData\Local\Temp\ccyp2Aek.s:1117   .text.dhcp_process:0000000000000008 .L0 
C:\Users\stapi\AppData\Local\Temp\ccyp2Aek.s:1118   .text.dhcp_process:0000000000000008 .L0 
C:\Users\stapi\AppData\Local\Temp\ccyp2Aek.s:1119   .text.dhcp_process:0000000000000008 .L0 
C:\Users\stapi\AppData\Local\Temp\ccyp2Aek.s:1120   .text.dhcp_process:0000000000000008 .L0 
C:\Users\stapi\AppData\Local\Temp\ccyp2Aek.s:1121   .text.dhcp_process:0000000000000008 .L0 
C:\Users\stapi\AppData\Local\Temp\ccyp2Aek.s:1122   .text.dhcp_process:0000000000000008 .L0 
C:\Users\stapi\AppData\Local\Temp\ccyp2Aek.s:1123   .text.dhcp_process:0000000000000008 .L0 
C:\Users\stapi\AppData\Local\Temp\ccyp2Aek.s:1125   .text.dhcp_process:0000000000000008 .L0 
C:\Users\stapi\AppData\Local\Temp\ccyp2Aek.s:1126   .text.dhcp_process:0000000000000008 .L0 
C:\Users\stapi\AppData\Local\Temp\ccyp2Aek.s:1127   .text.dhcp_process:0000000000000008 .L0 
C:\Users\stapi\AppData\Local\Temp\ccyp2Aek.s:1128   .text.dhcp_process:0000000000000008 .L0 
C:\Users\stapi\AppData\Local\Temp\ccyp2Aek.s:1129   .text.dhcp_process:000000000000000a .L0 
C:\Users\stapi\AppData\Local\Temp\ccyp2Aek.s:1131   .text.dhcp_process:000000000000000a .L0 
C:\Users\stapi\AppData\Local\Temp\ccyp2Aek.s:1135   .text.dhcp_process:0000000000000014 .L0 
C:\Users\stapi\AppData\Local\Temp\ccyp2Aek.s:1137   .text.dhcp_process:0000000000000016 .L0 
C:\Users\stapi\AppData\Local\Temp\ccyp2Aek.s:1140   .text.dhcp_process:000000000000001e .L0 
C:\Users\stapi\AppData\Local\Temp\ccyp2Aek.s:1142   .text.dhcp_process:0000000000000020 .L0 
C:\Users\stapi\AppData\Local\Temp\ccyp2Aek.s:1149   .text.dhcp_process:0000000000000030 .L0 
C:\Users\stapi\AppData\Local\Temp\ccyp2Aek.s:1153   .text.dhcp_process:0000000000000034 .L0 
C:\Users\stapi\AppData\Local\Temp\ccyp2Aek.s:1157   .text.dhcp_process:0000000000000034 .L0 
C:\Users\stapi\AppData\Local\Temp\ccyp2Aek.s:1158   .text.dhcp_process:0000000000000034 .L0 
C:\Users\stapi\AppData\Local\Temp\ccyp2Aek.s:1159   .text.dhcp_process:0000000000000034 .L0 
C:\Users\stapi\AppData\Local\Temp\ccyp2Aek.s:1160   .text.dhcp_process:0000000000000034 .L0 
C:\Users\stapi\AppData\Local\Temp\ccyp2Aek.s:1161   .text.dhcp_process:0000000000000034 .L0 
C:\Users\stapi\AppData\Local\Temp\ccyp2Aek.s:1162   .text.dhcp_process:0000000000000034 .L0 
C:\Users\stapi\AppData\Local\Temp\ccyp2Aek.s:1164   .text.dhcp_process:0000000000000038 .L0 
C:\Users\stapi\AppData\Local\Temp\ccyp2Aek.s:1171   .text.dhcp_process:000000000000004c .L0 
C:\Users\stapi\AppData\Local\Temp\ccyp2Aek.s:1173   .text.dhcp_process:0000000000000050 .L0 
C:\Users\stapi\AppData\Local\Temp\ccyp2Aek.s:1180   .text.dhcp_process:0000000000000064 .L0 
C:\Users\stapi\AppData\Local\Temp\ccyp2Aek.s:1182   .text.dhcp_process:0000000000000068 .L0 
C:\Users\stapi\AppData\Local\Temp\ccyp2Aek.s:1183   .text.dhcp_process:0000000000000068 .L0 
C:\Users\stapi\AppData\Local\Temp\ccyp2Aek.s:1189   .text.dhcp_process:0000000000000074 .L0 
C:\Users\stapi\AppData\Local\Temp\ccyp2Aek.s:1193   .text.dhcp_process:0000000000000076 .L0 
C:\Users\stapi\AppData\Local\Temp\ccyp2Aek.s:1194   .text.dhcp_process:0000000000000076 .L0 
C:\Users\stapi\AppData\Local\Temp\ccyp2Aek.s:1195   .text.dhcp_process:0000000000000076 .L0 
C:\Users\stapi\AppData\Local\Temp\ccyp2Aek.s:1197   .text.dhcp_process:0000000000000076 .L0 
C:\Users\stapi\AppData\Local\Temp\ccyp2Aek.s:1198   .text.dhcp_process:0000000000000076 .L0 
C:\Users\stapi\AppData\Local\Temp\ccyp2Aek.s:1199   .text.dhcp_process:0000000000000076 .L0 
C:\Users\stapi\AppData\Local\Temp\ccyp2Aek.s:1204   .text.dhcp_process:0000000000000084 .L0 
C:\Users\stapi\AppData\Local\Temp\ccyp2Aek.s:1206   .text.dhcp_process:0000000000000088 .L0 
C:\Users\stapi\AppData\Local\Temp\ccyp2Aek.s:1213   .text.dhcp_process:0000000000000096 .L0 
C:\Users\stapi\AppData\Local\Temp\ccyp2Aek.s:1214   .text.dhcp_process:0000000000000096 .L0 
C:\Users\stapi\AppData\Local\Temp\ccyp2Aek.s:1218   .text.dhcp_process:00000000000000a2 .L0 
C:\Users\stapi\AppData\Local\Temp\ccyp2Aek.s:1220   .text.dhcp_process:00000000000000a6 .L0 
C:\Users\stapi\AppData\Local\Temp\ccyp2Aek.s:1224   .text.dhcp_process:00000000000000aa .L0 
C:\Users\stapi\AppData\Local\Temp\ccyp2Aek.s:1225   .text.dhcp_process:00000000000000aa .L0 
C:\Users\stapi\AppData\Local\Temp\ccyp2Aek.s:1227   .text.dhcp_process:00000000000000ae .L0 
C:\Users\stapi\AppData\Local\Temp\ccyp2Aek.s:1229   .text.dhcp_process:00000000000000b0 .L0 
C:\Users\stapi\AppData\Local\Temp\ccyp2Aek.s:1231   .text.dhcp_process:00000000000000b4 .L0 
C:\Users\stapi\AppData\Local\Temp\ccyp2Aek.s:1235   .text.dhcp_process:00000000000000c0 .L0 
C:\Users\stapi\AppData\Local\Temp\ccyp2Aek.s:1237   .text.dhcp_process:00000000000000c4 .L0 
C:\Users\stapi\AppData\Local\Temp\ccyp2Aek.s:1238   .text.dhcp_process:00000000000000c4 .L0 
C:\Users\stapi\AppData\Local\Temp\ccyp2Aek.s:1244   .text.dhcp_process:00000000000000ce .L0 
C:\Users\stapi\AppData\Local\Temp\ccyp2Aek.s:1248   .text.dhcp_process:00000000000000d2 .L0 
C:\Users\stapi\AppData\Local\Temp\ccyp2Aek.s:1253   .text.dhcp_process:00000000000000d4 .L0 
C:\Users\stapi\AppData\Local\Temp\ccyp2Aek.s:1254   .text.dhcp_process:00000000000000d4 .L0 
C:\Users\stapi\AppData\Local\Temp\ccyp2Aek.s:1255   .text.dhcp_process:00000000000000d4 .L0 
C:\Users\stapi\AppData\Local\Temp\ccyp2Aek.s:1257   .text.dhcp_process:00000000000000d8 .L0 
C:\Users\stapi\AppData\Local\Temp\ccyp2Aek.s:1261   .text.dhcp_process:00000000000000da .L0 
C:\Users\stapi\AppData\Local\Temp\ccyp2Aek.s:1262   .text.dhcp_process:00000000000000da .L0 
C:\Users\stapi\AppData\Local\Temp\ccyp2Aek.s:1270   .text.dhcp_process:00000000000000de .L0 
C:\Users\stapi\AppData\Local\Temp\ccyp2Aek.s:1272   .text.dhcp_process:00000000000000e2 .L0 
C:\Users\stapi\AppData\Local\Temp\ccyp2Aek.s:1274   .text.dhcp_process:00000000000000e6 .L0 
C:\Users\stapi\AppData\Local\Temp\ccyp2Aek.s:1277   .text.dhcp_process:00000000000000e8 .L0 
C:\Users\stapi\AppData\Local\Temp\ccyp2Aek.s:1279   .text.dhcp_process:00000000000000ea .L0 
C:\Users\stapi\AppData\Local\Temp\ccyp2Aek.s:1283   .text.dhcp_process:00000000000000ee .L0 
C:\Users\stapi\AppData\Local\Temp\ccyp2Aek.s:1284   .text.dhcp_process:00000000000000ee .L0 
C:\Users\stapi\AppData\Local\Temp\ccyp2Aek.s:1286   .text.dhcp_process:00000000000000f2 .L0 
C:\Users\stapi\AppData\Local\Temp\ccyp2Aek.s:1287   .text.dhcp_process:00000000000000f2 .L0 
C:\Users\stapi\AppData\Local\Temp\ccyp2Aek.s:1298   .text.dhcp_process:00000000000000fa .L0 
C:\Users\stapi\AppData\Local\Temp\ccyp2Aek.s:1299   .text.dhcp_process:00000000000000fa .L0 
C:\Users\stapi\AppData\Local\Temp\ccyp2Aek.s:1303   .text.dhcp_process:0000000000000104 .L0 
C:\Users\stapi\AppData\Local\Temp\ccyp2Aek.s:1304   .text.dhcp_process:0000000000000104 .L0 
C:\Users\stapi\AppData\Local\Temp\ccyp2Aek.s:1312   .text.dhcp_process:0000000000000108 .L0 
C:\Users\stapi\AppData\Local\Temp\ccyp2Aek.s:1313   .text.dhcp_process:0000000000000108 .L0 
C:\Users\stapi\AppData\Local\Temp\ccyp2Aek.s:1321   .text.dhcp_process:000000000000010c .L0 
C:\Users\stapi\AppData\Local\Temp\ccyp2Aek.s:1322   .text.dhcp_process:000000000000010c .L0 
C:\Users\stapi\AppData\Local\Temp\ccyp2Aek.s:1325   .text.dhcp_process:0000000000000112 .L0 
C:\Users\stapi\AppData\Local\Temp\ccyp2Aek.s:1329   .text.dhcp_process:000000000000011a .L0 
C:\Users\stapi\AppData\Local\Temp\ccyp2Aek.s:1330   .text.dhcp_process:000000000000011a .L0 
C:\Users\stapi\AppData\Local\Temp\ccyp2Aek.s:1336   .text.dhcp_process:0000000000000122 .L0 
C:\Users\stapi\AppData\Local\Temp\ccyp2Aek.s:1347   .text.dhcp_process:000000000000013e .L0 
C:\Users\stapi\AppData\Local\Temp\ccyp2Aek.s:1348   .text.dhcp_process:000000000000013e .L0 
C:\Users\stapi\AppData\Local\Temp\ccyp2Aek.s:1352   .text.dhcp_process:0000000000000142 .L0 
C:\Users\stapi\AppData\Local\Temp\ccyp2Aek.s:1353   .text.dhcp_process:0000000000000142 .L0 
C:\Users\stapi\AppData\Local\Temp\ccyp2Aek.s:1361   .text.dhcp_process:000000000000015c .L0 
C:\Users\stapi\AppData\Local\Temp\ccyp2Aek.s:1365   .text.dhcp_process:0000000000000166 .L0 
C:\Users\stapi\AppData\Local\Temp\ccyp2Aek.s:1366   .text.dhcp_process:0000000000000166 .L0 
C:\Users\stapi\AppData\Local\Temp\ccyp2Aek.s:1368   .text.dhcp_process:0000000000000168 .L0 
C:\Users\stapi\AppData\Local\Temp\ccyp2Aek.s:1370   .text.dhcp_process:000000000000016c .L0 
C:\Users\stapi\AppData\Local\Temp\ccyp2Aek.s:1371   .text.dhcp_process:000000000000016c .L0 
C:\Users\stapi\AppData\Local\Temp\ccyp2Aek.s:1375   .text.dhcp_process:0000000000000176 .L0 
C:\Users\stapi\AppData\Local\Temp\ccyp2Aek.s:1378   .text.dhcp_process:000000000000017a .L0 
C:\Users\stapi\AppData\Local\Temp\ccyp2Aek.s:1379   .text.dhcp_process:000000000000017a .L0 
C:\Users\stapi\AppData\Local\Temp\ccyp2Aek.s:1388   .text.dhcp_process:0000000000000182 .L0 
C:\Users\stapi\AppData\Local\Temp\ccyp2Aek.s:1389   .text.dhcp_process:0000000000000182 .L0 
C:\Users\stapi\AppData\Local\Temp\ccyp2Aek.s:1394   .text.dhcp_process:0000000000000184 .L0 
C:\Users\stapi\AppData\Local\Temp\ccyp2Aek.s:1395   .text.dhcp_process:0000000000000186 .L0 
C:\Users\stapi\AppData\Local\Temp\ccyp2Aek.s:1396   .text.dhcp_process:0000000000000186 .L0 
C:\Users\stapi\AppData\Local\Temp\ccyp2Aek.s:1398   .text.dhcp_process:000000000000018e .L0 
C:\Users\stapi\AppData\Local\Temp\ccyp2Aek.s:1399   .text.dhcp_process:000000000000018e .L0 
C:\Users\stapi\AppData\Local\Temp\ccyp2Aek.s:1400   .text.dhcp_process:000000000000018e .L0 
C:\Users\stapi\AppData\Local\Temp\ccyp2Aek.s:1401   .text.dhcp_process:000000000000018e .L0 
C:\Users\stapi\AppData\Local\Temp\ccyp2Aek.s:1402   .text.dhcp_process:000000000000018e .L0 
C:\Users\stapi\AppData\Local\Temp\ccyp2Aek.s:1403   .text.dhcp_process:000000000000018e .L0 
C:\Users\stapi\AppData\Local\Temp\ccyp2Aek.s:1404   .text.dhcp_process:000000000000018e .L0 
C:\Users\stapi\AppData\Local\Temp\ccyp2Aek.s:1405   .text.dhcp_process:000000000000018e .L0 
C:\Users\stapi\AppData\Local\Temp\ccyp2Aek.s:1406   .text.dhcp_process:000000000000018e .L0 
C:\Users\stapi\AppData\Local\Temp\ccyp2Aek.s:1409   .text.dhcp_process:000000000000018e .L0 
C:\Users\stapi\AppData\Local\Temp\ccyp2Aek.s:1416   .text.dhcp_process:0000000000000190 .L0 
C:\Users\stapi\AppData\Local\Temp\ccyp2Aek.s:1428   .text.dhcp_process:0000000000000198 .L0 
C:\Users\stapi\AppData\Local\Temp\ccyp2Aek.s:1429   .text.dhcp_process:0000000000000198 .L0 
C:\Users\stapi\AppData\Local\Temp\ccyp2Aek.s:1440   .text.dhcp_process:00000000000001b4 .L0 
C:\Users\stapi\AppData\Local\Temp\ccyp2Aek.s:1442   .text.dhcp_process:00000000000001b6 .L0 
C:\Users\stapi\AppData\Local\Temp\ccyp2Aek.s:1445   .text.dhcp_process:00000000000001be .L0 
C:\Users\stapi\AppData\Local\Temp\ccyp2Aek.s:1447   .text.dhcp_process:00000000000001c0 .L0 
C:\Users\stapi\AppData\Local\Temp\ccyp2Aek.s:1450   .text.dhcp_process:00000000000001c6 .L0 
C:\Users\stapi\AppData\Local\Temp\ccyp2Aek.s:1453   .text.dhcp_process:00000000000001ca .L0 
C:\Users\stapi\AppData\Local\Temp\ccyp2Aek.s:1454   .text.dhcp_process:00000000000001ca .L0 
C:\Users\stapi\AppData\Local\Temp\ccyp2Aek.s:1461   .text.dhcp_process:00000000000001dc .L0 
C:\Users\stapi\AppData\Local\Temp\ccyp2Aek.s:1463   .text.dhcp_process:00000000000001de .L0 
C:\Users\stapi\AppData\Local\Temp\ccyp2Aek.s:1464   .text.dhcp_process:00000000000001de .L0 
C:\Users\stapi\AppData\Local\Temp\ccyp2Aek.s:1467   .text.dhcp_process:00000000000001e6 .L0 
C:\Users\stapi\AppData\Local\Temp\ccyp2Aek.s:1469   .text.dhcp_process:00000000000001ea .L0 
C:\Users\stapi\AppData\Local\Temp\ccyp2Aek.s:1472   .text.dhcp_process:00000000000001f0 .L0 
C:\Users\stapi\AppData\Local\Temp\ccyp2Aek.s:1475   .text.dhcp_process:00000000000001f4 .L0 
C:\Users\stapi\AppData\Local\Temp\ccyp2Aek.s:1476   .text.dhcp_process:00000000000001f4 .L0 
C:\Users\stapi\AppData\Local\Temp\ccyp2Aek.s:1482   .text.dhcp_process:0000000000000200 .L0 
C:\Users\stapi\AppData\Local\Temp\ccyp2Aek.s:1488   .text.UDP_Receive:0000000000000000 UDP_Receive
C:\Users\stapi\AppData\Local\Temp\ccyp2Aek.s:1491   .text.UDP_Receive:0000000000000000 .L0 
C:\Users\stapi\AppData\Local\Temp\ccyp2Aek.s:1493   .text.UDP_Receive:0000000000000000 .L0 
C:\Users\stapi\AppData\Local\Temp\ccyp2Aek.s:1494   .text.UDP_Receive:0000000000000008 .L0 
C:\Users\stapi\AppData\Local\Temp\ccyp2Aek.s:1495   .text.UDP_Receive:0000000000000008 .L0 
C:\Users\stapi\AppData\Local\Temp\ccyp2Aek.s:1496   .text.UDP_Receive:0000000000000008 .L0 
C:\Users\stapi\AppData\Local\Temp\ccyp2Aek.s:1497   .text.UDP_Receive:0000000000000008 .L0 
C:\Users\stapi\AppData\Local\Temp\ccyp2Aek.s:1498   .text.UDP_Receive:0000000000000008 .L0 
C:\Users\stapi\AppData\Local\Temp\ccyp2Aek.s:1499   .text.UDP_Receive:0000000000000008 .L0 
C:\Users\stapi\AppData\Local\Temp\ccyp2Aek.s:1500   .text.UDP_Receive:0000000000000008 .L0 
C:\Users\stapi\AppData\Local\Temp\ccyp2Aek.s:1502   .text.UDP_Receive:0000000000000008 .L0 
C:\Users\stapi\AppData\Local\Temp\ccyp2Aek.s:1503   .text.UDP_Receive:0000000000000008 .L0 
C:\Users\stapi\AppData\Local\Temp\ccyp2Aek.s:1506   .text.UDP_Receive:000000000000000a .L0 
C:\Users\stapi\AppData\Local\Temp\ccyp2Aek.s:1510   .text.UDP_Receive:0000000000000010 .L0 
C:\Users\stapi\AppData\Local\Temp\ccyp2Aek.s:1515   .text.UDP_Receive:0000000000000020 .L0 
C:\Users\stapi\AppData\Local\Temp\ccyp2Aek.s:1516   .text.UDP_Receive:0000000000000020 .L0 
C:\Users\stapi\AppData\Local\Temp\ccyp2Aek.s:1521   .text.UDP_Receive:0000000000000022 .L0 
C:\Users\stapi\AppData\Local\Temp\ccyp2Aek.s:1522   .text.UDP_Receive:0000000000000022 .L0 
C:\Users\stapi\AppData\Local\Temp\ccyp2Aek.s:1523   .text.UDP_Receive:0000000000000022 .L0 
C:\Users\stapi\AppData\Local\Temp\ccyp2Aek.s:1527   .text.UDP_Receive:000000000000002c .L0 
C:\Users\stapi\AppData\Local\Temp\ccyp2Aek.s:1529   .text.UDP_Receive:000000000000002e .L0 
C:\Users\stapi\AppData\Local\Temp\ccyp2Aek.s:1530   .text.UDP_Receive:000000000000002e .L0 
C:\Users\stapi\AppData\Local\Temp\ccyp2Aek.s:1531   .text.UDP_Receive:000000000000002e .L0 
C:\Users\stapi\AppData\Local\Temp\ccyp2Aek.s:1539   .text.UDP_Receive:0000000000000044 .L0 
C:\Users\stapi\AppData\Local\Temp\ccyp2Aek.s:1540   .text.UDP_Receive:0000000000000044 .L0 
C:\Users\stapi\AppData\Local\Temp\ccyp2Aek.s:1542   .text.UDP_Receive:0000000000000046 .L0 
C:\Users\stapi\AppData\Local\Temp\ccyp2Aek.s:1543   .text.UDP_Receive:0000000000000046 .L0 
C:\Users\stapi\AppData\Local\Temp\ccyp2Aek.s:1547   .text.UDP_Receive:0000000000000050 .L0 
C:\Users\stapi\AppData\Local\Temp\ccyp2Aek.s:1554   .text.UDP_Receive:0000000000000062 .L0 
C:\Users\stapi\AppData\Local\Temp\ccyp2Aek.s:1559   .text.UDP_Receive:000000000000006c .L0 
C:\Users\stapi\AppData\Local\Temp\ccyp2Aek.s:1566   .text.UDP_Receive:0000000000000076 .L0 
C:\Users\stapi\AppData\Local\Temp\ccyp2Aek.s:1567   .text.UDP_Receive:000000000000007e .L0 
C:\Users\stapi\AppData\Local\Temp\ccyp2Aek.s:1568   .text.UDP_Receive:000000000000007e .L0 
C:\Users\stapi\AppData\Local\Temp\ccyp2Aek.s:1569   .text.UDP_Receive:000000000000007e .L0 
C:\Users\stapi\AppData\Local\Temp\ccyp2Aek.s:1570   .text.UDP_Receive:000000000000007e .L0 
C:\Users\stapi\AppData\Local\Temp\ccyp2Aek.s:1571   .text.UDP_Receive:000000000000007e .L0 
C:\Users\stapi\AppData\Local\Temp\ccyp2Aek.s:1572   .text.UDP_Receive:000000000000007e .L0 
C:\Users\stapi\AppData\Local\Temp\ccyp2Aek.s:1573   .text.UDP_Receive:000000000000007e .L0 
C:\Users\stapi\AppData\Local\Temp\ccyp2Aek.s:1574   .text.UDP_Receive:000000000000007e .L0 
C:\Users\stapi\AppData\Local\Temp\ccyp2Aek.s:1588   .text.dhcpd_daemon:0000000000000000 dhcpd_daemon
C:\Users\stapi\AppData\Local\Temp\ccyp2Aek.s:1591   .text.dhcpd_daemon:0000000000000000 .L0 
C:\Users\stapi\AppData\Local\Temp\ccyp2Aek.s:1593   .text.dhcpd_daemon:0000000000000000 .L0 
C:\Users\stapi\AppData\Local\Temp\ccyp2Aek.s:1594   .text.dhcpd_daemon:0000000000000008 .L0 
C:\Users\stapi\AppData\Local\Temp\ccyp2Aek.s:1595   .text.dhcpd_daemon:0000000000000008 .L0 
C:\Users\stapi\AppData\Local\Temp\ccyp2Aek.s:1596   .text.dhcpd_daemon:0000000000000008 .L0 
C:\Users\stapi\AppData\Local\Temp\ccyp2Aek.s:1597   .text.dhcpd_daemon:0000000000000008 .L0 
C:\Users\stapi\AppData\Local\Temp\ccyp2Aek.s:1598   .text.dhcpd_daemon:0000000000000008 .L0 
C:\Users\stapi\AppData\Local\Temp\ccyp2Aek.s:1600   .text.dhcpd_daemon:0000000000000008 .L0 
C:\Users\stapi\AppData\Local\Temp\ccyp2Aek.s:1601   .text.dhcpd_daemon:0000000000000008 .L0 
C:\Users\stapi\AppData\Local\Temp\ccyp2Aek.s:1604   .text.dhcpd_daemon:0000000000000010 .L0 
C:\Users\stapi\AppData\Local\Temp\ccyp2Aek.s:1608   .text.dhcpd_daemon:0000000000000016 .L0 
C:\Users\stapi\AppData\Local\Temp\ccyp2Aek.s:1618   .text.dhcpd_daemon:000000000000002c .L0 
C:\Users\stapi\AppData\Local\Temp\ccyp2Aek.s:1619   .text.dhcpd_daemon:000000000000002c .L0 
C:\Users\stapi\AppData\Local\Temp\ccyp2Aek.s:1627   .text.dhcpd_daemon:0000000000000046 .L0 
C:\Users\stapi\AppData\Local\Temp\ccyp2Aek.s:1628   .text.dhcpd_daemon:0000000000000046 .L0 
C:\Users\stapi\AppData\Local\Temp\ccyp2Aek.s:1631   .text.dhcpd_daemon:000000000000004c .L0 
C:\Users\stapi\AppData\Local\Temp\ccyp2Aek.s:1632   .text.dhcpd_daemon:000000000000004c .L0 
C:\Users\stapi\AppData\Local\Temp\ccyp2Aek.s:1635   .text.dhcpd_daemon:0000000000000052 .L0 
C:\Users\stapi\AppData\Local\Temp\ccyp2Aek.s:1638   .text.dhcpd_daemon:000000000000005a .L0 
C:\Users\stapi\AppData\Local\Temp\ccyp2Aek.s:1641   .text.dhcpd_daemon:0000000000000062 .L0 
C:\Users\stapi\AppData\Local\Temp\ccyp2Aek.s:1643   .text.dhcpd_daemon:0000000000000064 .L0 
C:\Users\stapi\AppData\Local\Temp\ccyp2Aek.s:1644   .text.dhcpd_daemon:0000000000000064 .L0 
C:\Users\stapi\AppData\Local\Temp\ccyp2Aek.s:1647   .text.dhcpd_daemon:000000000000006c .L0 
C:\Users\stapi\AppData\Local\Temp\ccyp2Aek.s:1649   .text.dhcpd_daemon:000000000000006e .L0 
C:\Users\stapi\AppData\Local\Temp\ccyp2Aek.s:1650   .text.dhcpd_daemon:000000000000006e .L0 
C:\Users\stapi\AppData\Local\Temp\ccyp2Aek.s:1653   .text.dhcpd_daemon:0000000000000072 .L0 
C:\Users\stapi\AppData\Local\Temp\ccyp2Aek.s:1654   .text.dhcpd_daemon:0000000000000072 .L0 
C:\Users\stapi\AppData\Local\Temp\ccyp2Aek.s:1658   .text.dhcpd_daemon:000000000000007a .L0 
C:\Users\stapi\AppData\Local\Temp\ccyp2Aek.s:1659   .text.dhcpd_daemon:000000000000007a .L0 
C:\Users\stapi\AppData\Local\Temp\ccyp2Aek.s:1661   .text.dhcpd_daemon:000000000000007c .L0 
C:\Users\stapi\AppData\Local\Temp\ccyp2Aek.s:1662   .text.dhcpd_daemon:000000000000007c .L0 
C:\Users\stapi\AppData\Local\Temp\ccyp2Aek.s:1664   .text.dhcpd_daemon:000000000000007e .L0 
C:\Users\stapi\AppData\Local\Temp\ccyp2Aek.s:1665   .text.dhcpd_daemon:000000000000007e .L0 
C:\Users\stapi\AppData\Local\Temp\ccyp2Aek.s:1668   .text.dhcpd_daemon:0000000000000084 .L0 
C:\Users\stapi\AppData\Local\Temp\ccyp2Aek.s:1669   .text.dhcpd_daemon:0000000000000084 .L0 
C:\Users\stapi\AppData\Local\Temp\ccyp2Aek.s:1671   .text.dhcpd_daemon:0000000000000086 .L0 
C:\Users\stapi\AppData\Local\Temp\ccyp2Aek.s:1672   .text.dhcpd_daemon:0000000000000086 .L0 
C:\Users\stapi\AppData\Local\Temp\ccyp2Aek.s:1675   .text.dhcpd_daemon:000000000000008a .L0 
C:\Users\stapi\AppData\Local\Temp\ccyp2Aek.s:1676   .text.dhcpd_daemon:000000000000008a .L0 
C:\Users\stapi\AppData\Local\Temp\ccyp2Aek.s:1680   .text.dhcpd_daemon:0000000000000094 .L0 
C:\Users\stapi\AppData\Local\Temp\ccyp2Aek.s:1681   .text.dhcpd_daemon:0000000000000094 .L0 
C:\Users\stapi\AppData\Local\Temp\ccyp2Aek.s:1683   .text.dhcpd_daemon:0000000000000096 .L0 
C:\Users\stapi\AppData\Local\Temp\ccyp2Aek.s:1688   .text.dhcpd_daemon:00000000000000a4 .L0 
C:\Users\stapi\AppData\Local\Temp\ccyp2Aek.s:1689   .text.dhcpd_daemon:00000000000000a4 .L0 
C:\Users\stapi\AppData\Local\Temp\ccyp2Aek.s:1694   .text.dhcpd_daemon:00000000000000a6 .L0 
C:\Users\stapi\AppData\Local\Temp\ccyp2Aek.s:1695   .text.dhcpd_daemon:00000000000000a6 .L0 
C:\Users\stapi\AppData\Local\Temp\ccyp2Aek.s:1696   .text.dhcpd_daemon:00000000000000a6 .L0 
C:\Users\stapi\AppData\Local\Temp\ccyp2Aek.s:1699   .text.dhcpd_daemon:00000000000000ae .L0 
C:\Users\stapi\AppData\Local\Temp\ccyp2Aek.s:1703   .text.dhcpd_daemon:00000000000000ba .L0 
C:\Users\stapi\AppData\Local\Temp\ccyp2Aek.s:1705   .text.dhcpd_daemon:00000000000000bc .L0 
C:\Users\stapi\AppData\Local\Temp\ccyp2Aek.s:1708   .text.dhcpd_daemon:00000000000000c4 .L0 
C:\Users\stapi\AppData\Local\Temp\ccyp2Aek.s:1713   .text.dhcpd_daemon:00000000000000d0 .L0 
C:\Users\stapi\AppData\Local\Temp\ccyp2Aek.s:1721   .text.dhcpd_daemon:00000000000000e4 .L0 
C:\Users\stapi\AppData\Local\Temp\ccyp2Aek.s:1722   .text.dhcpd_daemon:00000000000000ec .L0 
C:\Users\stapi\AppData\Local\Temp\ccyp2Aek.s:1723   .text.dhcpd_daemon:00000000000000ec .L0 
C:\Users\stapi\AppData\Local\Temp\ccyp2Aek.s:1724   .text.dhcpd_daemon:00000000000000ec .L0 
C:\Users\stapi\AppData\Local\Temp\ccyp2Aek.s:1725   .text.dhcpd_daemon:00000000000000ec .L0 
C:\Users\stapi\AppData\Local\Temp\ccyp2Aek.s:1726   .text.dhcpd_daemon:00000000000000ec .L0 
C:\Users\stapi\AppData\Local\Temp\ccyp2Aek.s:1727   .text.dhcpd_daemon:00000000000000ec .L0 
C:\Users\stapi\AppData\Local\Temp\ccyp2Aek.s:1734   .text.stop_dhcpd_daemon:0000000000000000 stop_dhcpd_daemon
C:\Users\stapi\AppData\Local\Temp\ccyp2Aek.s:1737   .text.stop_dhcpd_daemon:0000000000000000 .L0 
C:\Users\stapi\AppData\Local\Temp\ccyp2Aek.s:1739   .text.stop_dhcpd_daemon:0000000000000000 .L0 
C:\Users\stapi\AppData\Local\Temp\ccyp2Aek.s:1740   .text.stop_dhcpd_daemon:0000000000000008 .L0 
C:\Users\stapi\AppData\Local\Temp\ccyp2Aek.s:1741   .text.stop_dhcpd_daemon:0000000000000008 .L0 
C:\Users\stapi\AppData\Local\Temp\ccyp2Aek.s:1742   .text.stop_dhcpd_daemon:0000000000000008 .L0 
C:\Users\stapi\AppData\Local\Temp\ccyp2Aek.s:1744   .text.stop_dhcpd_daemon:0000000000000008 .L0 
C:\Users\stapi\AppData\Local\Temp\ccyp2Aek.s:1745   .text.stop_dhcpd_daemon:0000000000000008 .L0 
C:\Users\stapi\AppData\Local\Temp\ccyp2Aek.s:1748   .text.stop_dhcpd_daemon:0000000000000010 .L0 
C:\Users\stapi\AppData\Local\Temp\ccyp2Aek.s:1750   .text.stop_dhcpd_daemon:0000000000000012 .L0 
C:\Users\stapi\AppData\Local\Temp\ccyp2Aek.s:1753   .text.stop_dhcpd_daemon:0000000000000014 .L0 
C:\Users\stapi\AppData\Local\Temp\ccyp2Aek.s:1755   .text.stop_dhcpd_daemon:0000000000000016 .L0 
C:\Users\stapi\AppData\Local\Temp\ccyp2Aek.s:1757   .text.stop_dhcpd_daemon:0000000000000018 .L0 
C:\Users\stapi\AppData\Local\Temp\ccyp2Aek.s:1759   .text.stop_dhcpd_daemon:000000000000001a .L0 
C:\Users\stapi\AppData\Local\Temp\ccyp2Aek.s:1760   .text.stop_dhcpd_daemon:000000000000001a .L0 
C:\Users\stapi\AppData\Local\Temp\ccyp2Aek.s:1763   .text.stop_dhcpd_daemon:000000000000001e .L0 
C:\Users\stapi\AppData\Local\Temp\ccyp2Aek.s:1765   .text.stop_dhcpd_daemon:0000000000000022 .L0 
C:\Users\stapi\AppData\Local\Temp\ccyp2Aek.s:1767   .text.stop_dhcpd_daemon:0000000000000024 .L0 
C:\Users\stapi\AppData\Local\Temp\ccyp2Aek.s:1769   .text.stop_dhcpd_daemon:0000000000000026 .L0 
C:\Users\stapi\AppData\Local\Temp\ccyp2Aek.s:1772   .text.stop_dhcpd_daemon:000000000000002e .L0 
C:\Users\stapi\AppData\Local\Temp\ccyp2Aek.s:1775   .text.stop_dhcpd_daemon:0000000000000036 .L0 
C:\Users\stapi\AppData\Local\Temp\ccyp2Aek.s:1776   .text.stop_dhcpd_daemon:0000000000000036 .L0 
C:\Users\stapi\AppData\Local\Temp\ccyp2Aek.s:1778   .text.stop_dhcpd_daemon:0000000000000038 .L0 
C:\Users\stapi\AppData\Local\Temp\ccyp2Aek.s:1781   .text.stop_dhcpd_daemon:000000000000003c .L0 
C:\Users\stapi\AppData\Local\Temp\ccyp2Aek.s:1782   .text.stop_dhcpd_daemon:000000000000003c .L0 
C:\Users\stapi\AppData\Local\Temp\ccyp2Aek.s:1784   .text.stop_dhcpd_daemon:0000000000000046 .L0 
C:\Users\stapi\AppData\Local\Temp\ccyp2Aek.s:1785   .text.stop_dhcpd_daemon:0000000000000046 .L0 
C:\Users\stapi\AppData\Local\Temp\ccyp2Aek.s:1786   .text.stop_dhcpd_daemon:0000000000000046 .L0 
C:\Users\stapi\AppData\Local\Temp\ccyp2Aek.s:1787   .text.stop_dhcpd_daemon:0000000000000046 .L0 
C:\Users\stapi\AppData\Local\Temp\ccyp2Aek.s:1794   .text.dhcpd_find_ethaddr_from_packet:0000000000000000 dhcpd_find_ethaddr_from_packet
C:\Users\stapi\AppData\Local\Temp\ccyp2Aek.s:1797   .text.dhcpd_find_ethaddr_from_packet:0000000000000000 .L0 
C:\Users\stapi\AppData\Local\Temp\ccyp2Aek.s:1799   .text.dhcpd_find_ethaddr_from_packet:0000000000000000 .L0 
C:\Users\stapi\AppData\Local\Temp\ccyp2Aek.s:1800   .text.dhcpd_find_ethaddr_from_packet:0000000000000008 .L0 
C:\Users\stapi\AppData\Local\Temp\ccyp2Aek.s:1801   .text.dhcpd_find_ethaddr_from_packet:0000000000000008 .L0 
C:\Users\stapi\AppData\Local\Temp\ccyp2Aek.s:1802   .text.dhcpd_find_ethaddr_from_packet:0000000000000008 .L0 
C:\Users\stapi\AppData\Local\Temp\ccyp2Aek.s:1803   .text.dhcpd_find_ethaddr_from_packet:0000000000000008 .L0 
C:\Users\stapi\AppData\Local\Temp\ccyp2Aek.s:1806   .text.dhcpd_find_ethaddr_from_packet:0000000000000008 .L0 
C:\Users\stapi\AppData\Local\Temp\ccyp2Aek.s:1807   .text.dhcpd_find_ethaddr_from_packet:0000000000000008 .L0 
C:\Users\stapi\AppData\Local\Temp\ccyp2Aek.s:1808   .text.dhcpd_find_ethaddr_from_packet:0000000000000008 .L0 
C:\Users\stapi\AppData\Local\Temp\ccyp2Aek.s:1809   .text.dhcpd_find_ethaddr_from_packet:0000000000000008 .L0 
C:\Users\stapi\AppData\Local\Temp\ccyp2Aek.s:1811   .text.dhcpd_find_ethaddr_from_packet:000000000000000a .L0 
C:\Users\stapi\AppData\Local\Temp\ccyp2Aek.s:1813   .text.dhcpd_find_ethaddr_from_packet:000000000000000c .L0 
C:\Users\stapi\AppData\Local\Temp\ccyp2Aek.s:1815   .text.dhcpd_find_ethaddr_from_packet:0000000000000010 .L0 
C:\Users\stapi\AppData\Local\Temp\ccyp2Aek.s:1820   .text.dhcpd_find_ethaddr_from_packet:0000000000000016 .L0 
C:\Users\stapi\AppData\Local\Temp\ccyp2Aek.s:1824   .text.dhcpd_find_ethaddr_from_packet:0000000000000018 .L0 
C:\Users\stapi\AppData\Local\Temp\ccyp2Aek.s:1825   .text.dhcpd_find_ethaddr_from_packet:0000000000000020 .L0 
C:\Users\stapi\AppData\Local\Temp\ccyp2Aek.s:1826   .text.dhcpd_find_ethaddr_from_packet:0000000000000020 .L0 
C:\Users\stapi\AppData\Local\Temp\ccyp2Aek.s:1827   .text.dhcpd_find_ethaddr_from_packet:0000000000000020 .L0 
C:\Users\stapi\AppData\Local\Temp\ccyp2Aek.s:1828   .text.dhcpd_find_ethaddr_from_packet:0000000000000020 .L0 
C:\Users\stapi\AppData\Local\Temp\ccyp2Aek.s:1829   .text.dhcpd_find_ethaddr_from_packet:0000000000000020 .L0 
C:\Users\stapi\AppData\Local\Temp\ccyp2Aek.s:1832   .text.dhcpd_find_ethaddr_from_packet:0000000000000020 .L0 
C:\Users\stapi\AppData\Local\Temp\ccyp2Aek.s:1834   .text.dhcpd_find_ethaddr_from_packet:0000000000000020 .L0 
C:\Users\stapi\AppData\Local\Temp\ccyp2Aek.s:1835   .text.dhcpd_find_ethaddr_from_packet:0000000000000020 .L0 
C:\Users\stapi\AppData\Local\Temp\ccyp2Aek.s:1837   .text.dhcpd_find_ethaddr_from_packet:0000000000000024 .L0 
C:\Users\stapi\AppData\Local\Temp\ccyp2Aek.s:1840   .text.dhcpd_find_ethaddr_from_packet:000000000000002a .L0 
C:\Users\stapi\AppData\Local\Temp\ccyp2Aek.s:1842   .text.dhcpd_find_ethaddr_from_packet:000000000000002c .L0 
C:\Users\stapi\AppData\Local\Temp\ccyp2Aek.s:1844   .text.dhcpd_find_ethaddr_from_packet:000000000000002e .L0 
C:\Users\stapi\AppData\Local\Temp\ccyp2Aek.s:1845   .text.dhcpd_find_ethaddr_from_packet:000000000000002e .L0 
C:\Users\stapi\AppData\Local\Temp\ccyp2Aek.s:1847   .text.dhcpd_find_ethaddr_from_packet:0000000000000032 .L0 
C:\Users\stapi\AppData\Local\Temp\ccyp2Aek.s:1850   .text.dhcpd_find_ethaddr_from_packet:0000000000000038 .L0 
C:\Users\stapi\AppData\Local\Temp\ccyp2Aek.s:1853   .text.dhcpd_find_ethaddr_from_packet:000000000000003a .L0 
C:\Users\stapi\AppData\Local\Temp\ccyp2Aek.s:1855   .text.dhcpd_find_ethaddr_from_packet:000000000000003c .L0 
C:\Users\stapi\AppData\Local\Temp\ccyp2Aek.s:1859   .text.dhcpd_find_ethaddr_from_packet:0000000000000048 .L0 
C:\Users\stapi\AppData\Local\Temp\ccyp2Aek.s:1860   .text.dhcpd_find_ethaddr_from_packet:0000000000000048 .L0 
C:\Users\stapi\AppData\Local\Temp\ccyp2Aek.s:1863   .text.dhcpd_find_ethaddr_from_packet:000000000000004a .L0 
C:\Users\stapi\AppData\Local\Temp\ccyp2Aek.s:1864   .text.dhcpd_find_ethaddr_from_packet:000000000000004a .L0 
C:\Users\stapi\AppData\Local\Temp\ccyp2Aek.s:1869   .text.dhcpd_find_ethaddr_from_packet:000000000000004e .L0 
C:\Users\stapi\AppData\Local\Temp\ccyp2Aek.s:1870   .text.dhcpd_find_ethaddr_from_packet:000000000000004e .L0 
C:\Users\stapi\AppData\Local\Temp\ccyp2Aek.s:1873   .text.dhcpd_find_ethaddr_from_packet:0000000000000056 .L0 
C:\Users\stapi\AppData\Local\Temp\ccyp2Aek.s:1874   .text.dhcpd_find_ethaddr_from_packet:0000000000000056 .L0 
C:\Users\stapi\AppData\Local\Temp\ccyp2Aek.s:1878   .text.dhcpd_find_ethaddr_from_packet:0000000000000058 .L0 
C:\Users\stapi\AppData\Local\Temp\ccyp2Aek.s:1881   .text.dhcpd_find_ethaddr_from_packet:0000000000000060 .L0 
C:\Users\stapi\AppData\Local\Temp\ccyp2Aek.s:1884   .text.dhcpd_find_ethaddr_from_packet:0000000000000064 .L0 
C:\Users\stapi\AppData\Local\Temp\ccyp2Aek.s:1888   .text.dhcpd_find_ethaddr_from_packet:000000000000006c .L0 
C:\Users\stapi\AppData\Local\Temp\ccyp2Aek.s:1890   .text.dhcpd_find_ethaddr_from_packet:0000000000000070 .L0 
C:\Users\stapi\AppData\Local\Temp\ccyp2Aek.s:1896   .text.dhcpd_find_ethaddr_from_packet:000000000000007c .L0 
C:\Users\stapi\AppData\Local\Temp\ccyp2Aek.s:1899   .text.dhcpd_find_ethaddr_from_packet:0000000000000084 .L0 
C:\Users\stapi\AppData\Local\Temp\ccyp2Aek.s:1901   .text.dhcpd_find_ethaddr_from_packet:0000000000000088 .L0 
C:\Users\stapi\AppData\Local\Temp\ccyp2Aek.s:1905   .text.dhcpd_find_ethaddr_from_packet:0000000000000092 .L0 
C:\Users\stapi\AppData\Local\Temp\ccyp2Aek.s:1906   .text.dhcpd_find_ethaddr_from_packet:0000000000000092 .L0 
C:\Users\stapi\AppData\Local\Temp\ccyp2Aek.s:1909   .text.dhcpd_find_ethaddr_from_packet:0000000000000096 .L0 
C:\Users\stapi\AppData\Local\Temp\ccyp2Aek.s:1910   .text.dhcpd_find_ethaddr_from_packet:0000000000000096 .L0 
C:\Users\stapi\AppData\Local\Temp\ccyp2Aek.s:1914   .text.dhcpd_find_ethaddr_from_packet:0000000000000098 .L0 
C:\Users\stapi\AppData\Local\Temp\ccyp2Aek.s:1915   .text.dhcpd_find_ethaddr_from_packet:0000000000000098 .L0 
C:\Users\stapi\AppData\Local\Temp\ccyp2Aek.s:1918   .text.dhcpd_find_ethaddr_from_packet:000000000000009e .L0 
C:\Users\stapi\AppData\Local\Temp\ccyp2Aek.s:1922   .text.dhcpd_find_ethaddr_from_packet:00000000000000a2 .L0 
C:\Users\stapi\AppData\Local\Temp\ccyp2Aek.s:1923   .text.dhcpd_find_ethaddr_from_packet:00000000000000a2 .L0 
C:\Users\stapi\AppData\Local\Temp\ccyp2Aek.s:1926   .text.dhcpd_find_ethaddr_from_packet:00000000000000aa .L0 
C:\Users\stapi\AppData\Local\Temp\ccyp2Aek.s:1927   .text.dhcpd_find_ethaddr_from_packet:00000000000000aa .L0 
C:\Users\stapi\AppData\Local\Temp\ccyp2Aek.s:1930   .text.dhcpd_find_ethaddr_from_packet:00000000000000ae .L0 
C:\Users\stapi\AppData\Local\Temp\ccyp2Aek.s:1988   .sbss.pass_wan_domain:0000000000000000 pass_wan_domain
C:\Users\stapi\AppData\Local\Temp\ccyp2Aek.s:1975   .sbss.UdpPcb:0000000000000000 UdpPcb
C:\Users\stapi\AppData\Local\Temp\ccyp2Aek.s:1968   .bss.server_config:0000000000000000 server_config
C:\Users\stapi\AppData\Local\Temp\ccyp2Aek.s:1961   .bss.payload_out:0000000000000000 payload_out
C:\Users\stapi\AppData\Local\Temp\ccyp2Aek.s:1954   .bss.leases:0000000000000000 leases
C:\Users\stapi\AppData\Local\Temp\ccyp2Aek.s:1982   .sbss.destAddr:0000000000000000 destAddr
C:\Users\stapi\AppData\Local\Temp\ccyp2Aek.s:1951   .bss.leases:0000000000000000 .LANCHOR1
C:\Users\stapi\AppData\Local\Temp\ccyp2Aek.s:1958   .bss.payload_out:0000000000000000 .LANCHOR2
C:\Users\stapi\AppData\Local\Temp\ccyp2Aek.s:1965   .bss.server_config:0000000000000000 .LANCHOR0
C:\Users\stapi\AppData\Local\Temp\ccyp2Aek.s:1972   .sbss.UdpPcb:0000000000000000 .LANCHOR4
C:\Users\stapi\AppData\Local\Temp\ccyp2Aek.s:1979   .sbss.destAddr:0000000000000000 .LANCHOR3
C:\Users\stapi\AppData\Local\Temp\ccyp2Aek.s:79     .text.DHCPD_FindLeaseByChaddr:0000000000000046 .L0 
C:\Users\stapi\AppData\Local\Temp\ccyp2Aek.s:279    .text.dhcpd_pickup_opt:00000000000000ca .L0 
C:\Users\stapi\AppData\Local\Temp\ccyp2Aek.s:369    .text.dhcpd_add_option.isra.0:0000000000000060 .L0 
C:\Users\stapi\AppData\Local\Temp\ccyp2Aek.s:789    .text.request.isra.0:000000000000032c .L0 
C:\Users\stapi\AppData\Local\Temp\ccyp2Aek.s:1017   .text.make_dhcpd_packet.constprop.0:00000000000001c2 .L0 
C:\Users\stapi\AppData\Local\Temp\ccyp2Aek.s:1067   .text.dhcpd_find_ipaddr_by_macaddr:000000000000002c .L0 
C:\Users\stapi\AppData\Local\Temp\ccyp2Aek.s:1101   .text.dhcpd_delete_ipaddr_by_macaddr:0000000000000026 .L0 
C:\Users\stapi\AppData\Local\Temp\ccyp2Aek.s:1485   .text.dhcp_process:0000000000000200 .L0 
C:\Users\stapi\AppData\Local\Temp\ccyp2Aek.s:1577   .text.UDP_Receive:000000000000007e .L0 
C:\Users\stapi\AppData\Local\Temp\ccyp2Aek.s:1730   .text.dhcpd_daemon:00000000000000ec .L0 
C:\Users\stapi\AppData\Local\Temp\ccyp2Aek.s:1790   .text.stop_dhcpd_daemon:0000000000000046 .L0 
C:\Users\stapi\AppData\Local\Temp\ccyp2Aek.s:1939   .text.dhcpd_find_ethaddr_from_packet:00000000000000ae .L0 
                     .debug_frame:0000000000000000 .L0 
C:\Users\stapi\AppData\Local\Temp\ccyp2Aek.s:57     .text.DHCPD_FindLeaseByChaddr:000000000000002c .L4
C:\Users\stapi\AppData\Local\Temp\ccyp2Aek.s:45     .text.DHCPD_FindLeaseByChaddr:0000000000000022 .L1
C:\Users\stapi\AppData\Local\Temp\ccyp2Aek.s:39     .text.DHCPD_FindLeaseByChaddr:000000000000001c .L2
C:\Users\stapi\AppData\Local\Temp\ccyp2Aek.s:176    .text.dhcpd_pickup_opt:0000000000000068 .L11
C:\Users\stapi\AppData\Local\Temp\ccyp2Aek.s:167    .text.dhcpd_pickup_opt:000000000000005e .L9
C:\Users\stapi\AppData\Local\Temp\ccyp2Aek.s:199    .text.dhcpd_pickup_opt:000000000000007e .L13
C:\Users\stapi\AppData\Local\Temp\ccyp2Aek.s:223    .text.dhcpd_pickup_opt:000000000000009a .L14
C:\Users\stapi\AppData\Local\Temp\ccyp2Aek.s:271    .text.dhcpd_pickup_opt:00000000000000c4 .L15
C:\Users\stapi\AppData\Local\Temp\ccyp2Aek.s:129    .text.dhcpd_pickup_opt:000000000000002e .L10
C:\Users\stapi\AppData\Local\Temp\ccyp2Aek.s:193    .text.dhcpd_pickup_opt:000000000000007a .L26
C:\Users\stapi\AppData\Local\Temp\ccyp2Aek.s:187    .text.dhcpd_pickup_opt:0000000000000076 .L16
C:\Users\stapi\AppData\Local\Temp\ccyp2Aek.s:248    .text.dhcpd_pickup_opt:00000000000000b0 .L17
C:\Users\stapi\AppData\Local\Temp\ccyp2Aek.s:242    .text.dhcpd_pickup_opt:00000000000000ac .L18
C:\Users\stapi\AppData\Local\Temp\ccyp2Aek.s:216    .text.dhcpd_pickup_opt:0000000000000094 .L28
C:\Users\stapi\AppData\Local\Temp\ccyp2Aek.s:346    .text.dhcpd_add_option.isra.0:0000000000000050 .L33
C:\Users\stapi\AppData\Local\Temp\ccyp2Aek.s:337    .text.dhcpd_add_option.isra.0:0000000000000048 .L29
C:\Users\stapi\AppData\Local\Temp\ccyp2Aek.s:356    .text.dhcpd_add_option.isra.0:0000000000000056 .L31
C:\Users\stapi\AppData\Local\Temp\ccyp2Aek.s:302    .text.dhcpd_add_option.isra.0:0000000000000014 .L30
C:\Users\stapi\AppData\Local\Temp\ccyp2Aek.s:371    .rodata.request.isra.0.str1.4:0000000000000000 .LC0
C:\Users\stapi\AppData\Local\Temp\ccyp2Aek.s:374    .rodata.request.isra.0.str1.4:0000000000000018 .LC1
C:\Users\stapi\AppData\Local\Temp\ccyp2Aek.s:680    .text.request.isra.0:000000000000025c .L37
C:\Users\stapi\AppData\Local\Temp\ccyp2Aek.s:626    .text.request.isra.0:00000000000001ec .L38
C:\Users\stapi\AppData\Local\Temp\ccyp2Aek.s:637    .text.request.isra.0:00000000000001fc .L39
C:\Users\stapi\AppData\Local\Temp\ccyp2Aek.s:665    .text.request.isra.0:0000000000000252 .L36
C:\Users\stapi\AppData\Local\Temp\ccyp2Aek.s:1058   .text.dhcpd_find_ipaddr_by_macaddr:0000000000000028 .L49
C:\Users\stapi\AppData\Local\Temp\ccyp2Aek.s:1051   .text.dhcpd_find_ipaddr_by_macaddr:0000000000000020 .L47
C:\Users\stapi\AppData\Local\Temp\ccyp2Aek.s:1093   .text.dhcpd_delete_ipaddr_by_macaddr:000000000000001e .L52
C:\Users\stapi\AppData\Local\Temp\ccyp2Aek.s:1941   .rodata:0000000000000000 .LC2
C:\Users\stapi\AppData\Local\Temp\ccyp2Aek.s:1103   .rodata.dhcp_process.str1.4:0000000000000000 .LC3
C:\Users\stapi\AppData\Local\Temp\ccyp2Aek.s:1147   .text.dhcp_process:0000000000000030 .L84
C:\Users\stapi\AppData\Local\Temp\ccyp2Aek.s:1151   .text.dhcp_process:0000000000000034 .L60
C:\Users\stapi\AppData\Local\Temp\ccyp2Aek.s:1422   .text.dhcp_process:0000000000000198 .L61
C:\Users\stapi\AppData\Local\Temp\ccyp2Aek.s:1390   .text.dhcp_process:0000000000000184 .L102
C:\Users\stapi\AppData\Local\Temp\ccyp2Aek.s:1382   .text.dhcp_process:0000000000000182 .L105
C:\Users\stapi\AppData\Local\Temp\ccyp2Aek.s:1351   .text.dhcp_process:0000000000000142 .L65
C:\Users\stapi\AppData\Local\Temp\ccyp2Aek.s:1222   .text.dhcp_process:00000000000000aa .L73
C:\Users\stapi\AppData\Local\Temp\ccyp2Aek.s:1264   .text.dhcp_process:00000000000000de .L83
C:\Users\stapi\AppData\Local\Temp\ccyp2Aek.s:1308   .text.dhcp_process:0000000000000108 .L70
C:\Users\stapi\AppData\Local\Temp\ccyp2Aek.s:1292   .text.dhcp_process:00000000000000fa .L71
C:\Users\stapi\AppData\Local\Temp\ccyp2Aek.s:1317   .text.dhcp_process:000000000000010c .L77
C:\Users\stapi\AppData\Local\Temp\ccyp2Aek.s:1334   .text.dhcp_process:0000000000000122 .L76
C:\Users\stapi\AppData\Local\Temp\ccyp2Aek.s:1259   .text.dhcp_process:00000000000000da .L68
C:\Users\stapi\AppData\Local\Temp\ccyp2Aek.s:1211   .text.dhcp_process:0000000000000096 .L66
C:\Users\stapi\AppData\Local\Temp\ccyp2Aek.s:1408   .text.dhcp_process:000000000000018e .L85
C:\Users\stapi\AppData\Local\Temp\ccyp2Aek.s:1414   .text.dhcp_process:0000000000000190 .L75
C:\Users\stapi\AppData\Local\Temp\ccyp2Aek.s:1281   .text.dhcp_process:00000000000000ee .L74
C:\Users\stapi\AppData\Local\Temp\ccyp2Aek.s:1451   .text.dhcp_process:00000000000001ca .L79
C:\Users\stapi\AppData\Local\Temp\ccyp2Aek.s:1473   .text.dhcp_process:00000000000001f4 .L81
C:\Users\stapi\AppData\Local\Temp\ccyp2Aek.s:1562   .text.UDP_Receive:0000000000000076 .L106
C:\Users\stapi\AppData\Local\Temp\ccyp2Aek.s:1557   .text.UDP_Receive:000000000000006c .L109
C:\Users\stapi\AppData\Local\Temp\ccyp2Aek.s:1579   .rodata.dhcpd_daemon.str1.4:0000000000000000 .LC4
C:\Users\stapi\AppData\Local\Temp\ccyp2Aek.s:1582   .rodata.dhcpd_daemon.str1.4:000000000000000c .LC5
C:\Users\stapi\AppData\Local\Temp\ccyp2Aek.s:1719   .text.dhcpd_daemon:00000000000000e4 .L118
C:\Users\stapi\AppData\Local\Temp\ccyp2Aek.s:1780   .text.stop_dhcpd_daemon:000000000000003c .L121
C:\Users\stapi\AppData\Local\Temp\ccyp2Aek.s:1831   .text.dhcpd_find_ethaddr_from_packet:0000000000000020 .L128
C:\Users\stapi\AppData\Local\Temp\ccyp2Aek.s:1912   .text.dhcpd_find_ethaddr_from_packet:0000000000000098 .L130
C:\Users\stapi\AppData\Local\Temp\ccyp2Aek.s:1818   .text.dhcpd_find_ethaddr_from_packet:0000000000000016 .L131
C:\Users\stapi\AppData\Local\Temp\ccyp2Aek.s:1867   .text.dhcpd_find_ethaddr_from_packet:000000000000004e .L132
C:\Users\stapi\AppData\Local\Temp\ccyp2Aek.s:1876   .text.dhcpd_find_ethaddr_from_packet:0000000000000058 .L134
C:\Users\stapi\AppData\Local\Temp\ccyp2Aek.s:1822   .text.dhcpd_find_ethaddr_from_packet:0000000000000018 .L127
C:\Users\stapi\AppData\Local\Temp\ccyp2Aek.s:1920   .text.dhcpd_find_ethaddr_from_packet:00000000000000a2 .L135
C:\Users\stapi\AppData\Local\Temp\ccyp2Aek.s:1851   .text.dhcpd_find_ethaddr_from_packet:000000000000003a .L153
C:\Users\stapi\AppData\Local\Temp\ccyp2Aek.s:5311   .debug_abbrev:0000000000000000 .Ldebug_abbrev0
C:\Users\stapi\AppData\Local\Temp\ccyp2Aek.s:7783   .debug_str:000000000000099a .LASF203
C:\Users\stapi\AppData\Local\Temp\ccyp2Aek.s:7739   .debug_str:0000000000000827 .LASF204
C:\Users\stapi\AppData\Local\Temp\ccyp2Aek.s:7577   .debug_str:0000000000000405 .LASF205
C:\Users\stapi\AppData\Local\Temp\ccyp2Aek.s:7337   .debug_ranges:0000000000000000 .Ldebug_ranges0
C:\Users\stapi\AppData\Local\Temp\ccyp2Aek.s:7391   .debug_line:0000000000000000 .Ldebug_line0
C:\Users\stapi\AppData\Local\Temp\ccyp2Aek.s:7635   .debug_str:00000000000005db .LASF0
C:\Users\stapi\AppData\Local\Temp\ccyp2Aek.s:7765   .debug_str:0000000000000939 .LASF2
C:\Users\stapi\AppData\Local\Temp\ccyp2Aek.s:7695   .debug_str:000000000000072c .LASF1
C:\Users\stapi\AppData\Local\Temp\ccyp2Aek.s:7733   .debug_str:0000000000000801 .LASF3
C:\Users\stapi\AppData\Local\Temp\ccyp2Aek.s:7661   .debug_str:0000000000000673 .LASF4
C:\Users\stapi\AppData\Local\Temp\ccyp2Aek.s:7503   .debug_str:000000000000026d .LASF5
C:\Users\stapi\AppData\Local\Temp\ccyp2Aek.s:7767   .debug_str:0000000000000945 .LASF6
C:\Users\stapi\AppData\Local\Temp\ccyp2Aek.s:7667   .debug_str:000000000000068d .LASF7
C:\Users\stapi\AppData\Local\Temp\ccyp2Aek.s:7735   .debug_str:000000000000080f .LASF8
C:\Users\stapi\AppData\Local\Temp\ccyp2Aek.s:7715   .debug_str:00000000000007a1 .LASF9
C:\Users\stapi\AppData\Local\Temp\ccyp2Aek.s:7591   .debug_str:00000000000004b7 .LASF10
C:\Users\stapi\AppData\Local\Temp\ccyp2Aek.s:7493   .debug_str:0000000000000224 .LASF11
C:\Users\stapi\AppData\Local\Temp\ccyp2Aek.s:7429   .debug_str:00000000000000db .LASF12
C:\Users\stapi\AppData\Local\Temp\ccyp2Aek.s:7477   .debug_str:00000000000001ce .LASF13
C:\Users\stapi\AppData\Local\Temp\ccyp2Aek.s:7573   .debug_str:00000000000003f8 .LASF14
C:\Users\stapi\AppData\Local\Temp\ccyp2Aek.s:7643   .debug_str:000000000000061d .LASF15
C:\Users\stapi\AppData\Local\Temp\ccyp2Aek.s:7475   .debug_str:00000000000001c5 .LASF16
C:\Users\stapi\AppData\Local\Temp\ccyp2Aek.s:7555   .debug_str:000000000000039d .LASF17
C:\Users\stapi\AppData\Local\Temp\ccyp2Aek.s:7597   .debug_str:00000000000004e4 .LASF18
C:\Users\stapi\AppData\Local\Temp\ccyp2Aek.s:7539   .debug_str:0000000000000342 .LASF19
C:\Users\stapi\AppData\Local\Temp\ccyp2Aek.s:7449   .debug_str:0000000000000144 .LASF20
C:\Users\stapi\AppData\Local\Temp\ccyp2Aek.s:7659   .debug_str:000000000000066d .LASF21
C:\Users\stapi\AppData\Local\Temp\ccyp2Aek.s:7693   .debug_str:0000000000000723 .LASF25
C:\Users\stapi\AppData\Local\Temp\ccyp2Aek.s:7743   .debug_str:00000000000008b5 .LASF27
C:\Users\stapi\AppData\Local\Temp\ccyp2Aek.s:7663   .debug_str:000000000000067d .LASF22
C:\Users\stapi\AppData\Local\Temp\ccyp2Aek.s:7781   .debug_str:0000000000000990 .LASF23
C:\Users\stapi\AppData\Local\Temp\ccyp2Aek.s:7751   .debug_str:00000000000008cf .LASF140
C:\Users\stapi\AppData\Local\Temp\ccyp2Aek.s:7479   .debug_str:00000000000001d5 .LASF24
C:\Users\stapi\AppData\Local\Temp\ccyp2Aek.s:7727   .debug_str:00000000000007e6 .LASF26
C:\Users\stapi\AppData\Local\Temp\ccyp2Aek.s:7515   .debug_str:00000000000002cc .LASF28
C:\Users\stapi\AppData\Local\Temp\ccyp2Aek.s:7655   .debug_str:0000000000000651 .LASF29
C:\Users\stapi\AppData\Local\Temp\ccyp2Aek.s:7585   .debug_str:000000000000049c .LASF30
C:\Users\stapi\AppData\Local\Temp\ccyp2Aek.s:7567   .debug_str:00000000000003d4 .LASF31
C:\Users\stapi\AppData\Local\Temp\ccyp2Aek.s:7775   .debug_str:0000000000000970 .LASF32
C:\Users\stapi\AppData\Local\Temp\ccyp2Aek.s:7583   .debug_str:0000000000000493 .LASF33
C:\Users\stapi\AppData\Local\Temp\ccyp2Aek.s:7681   .debug_str:00000000000006e9 .LASF34
C:\Users\stapi\AppData\Local\Temp\ccyp2Aek.s:7725   .debug_str:00000000000007e0 .LASF35
C:\Users\stapi\AppData\Local\Temp\ccyp2Aek.s:7427   .debug_str:00000000000000d5 .LASF36
C:\Users\stapi\AppData\Local\Temp\ccyp2Aek.s:7459   .debug_str:000000000000016c .LASF37
C:\Users\stapi\AppData\Local\Temp\ccyp2Aek.s:7423   .debug_str:00000000000000c6 .LASF38
C:\Users\stapi\AppData\Local\Temp\ccyp2Aek.s:7581   .debug_str:000000000000048e .LASF39
C:\Users\stapi\AppData\Local\Temp\ccyp2Aek.s:7421   .debug_str:00000000000000c0 .LASF40
C:\Users\stapi\AppData\Local\Temp\ccyp2Aek.s:7457   .debug_str:0000000000000165 .LASF41
C:\Users\stapi\AppData\Local\Temp\ccyp2Aek.s:7731   .debug_str:00000000000007fa .LASF42
C:\Users\stapi\AppData\Local\Temp\ccyp2Aek.s:7623   .debug_str:000000000000059a .LASF43
C:\Users\stapi\AppData\Local\Temp\ccyp2Aek.s:7785   .debug_str:0000000000000a93 .LASF44
C:\Users\stapi\AppData\Local\Temp\ccyp2Aek.s:7495   .debug_str:000000000000023b .LASF45
C:\Users\stapi\AppData\Local\Temp\ccyp2Aek.s:7487   .debug_str:000000000000020b .LASF46
C:\Users\stapi\AppData\Local\Temp\ccyp2Aek.s:7671   .debug_str:00000000000006b5 .LASF47
C:\Users\stapi\AppData\Local\Temp\ccyp2Aek.s:7607   .debug_str:000000000000052c .LASF48
C:\Users\stapi\AppData\Local\Temp\ccyp2Aek.s:7491   .debug_str:000000000000021d .LASF49
C:\Users\stapi\AppData\Local\Temp\ccyp2Aek.s:7617   .debug_str:000000000000056e .LASF50
C:\Users\stapi\AppData\Local\Temp\ccyp2Aek.s:7699   .debug_str:000000000000073b .LASF51
C:\Users\stapi\AppData\Local\Temp\ccyp2Aek.s:7425   .debug_str:00000000000000cb .LASF52
C:\Users\stapi\AppData\Local\Temp\ccyp2Aek.s:7677   .debug_str:00000000000006d5 .LASF53
C:\Users\stapi\AppData\Local\Temp\ccyp2Aek.s:7793   .debug_str:0000000000000ab9 .LASF54
C:\Users\stapi\AppData\Local\Temp\ccyp2Aek.s:7801   .debug_str:0000000000000ad7 .LASF55
C:\Users\stapi\AppData\Local\Temp\ccyp2Aek.s:7603   .debug_str:0000000000000518 .LASF56
C:\Users\stapi\AppData\Local\Temp\ccyp2Aek.s:7639   .debug_str:00000000000005ee .LASF57
C:\Users\stapi\AppData\Local\Temp\ccyp2Aek.s:7759   .debug_str:0000000000000907 .LASF58
C:\Users\stapi\AppData\Local\Temp\ccyp2Aek.s:7805   .debug_str:0000000000000ae9 .LASF59
C:\Users\stapi\AppData\Local\Temp\ccyp2Aek.s:7469   .debug_str:000000000000019d .LASF60
C:\Users\stapi\AppData\Local\Temp\ccyp2Aek.s:7435   .debug_str:00000000000000f7 .LASF61
C:\Users\stapi\AppData\Local\Temp\ccyp2Aek.s:7471   .debug_str:00000000000001a7 .LASF62
C:\Users\stapi\AppData\Local\Temp\ccyp2Aek.s:7525   .debug_str:0000000000000303 .LASF63
C:\Users\stapi\AppData\Local\Temp\ccyp2Aek.s:7625   .debug_str:00000000000005a1 .LASF64
C:\Users\stapi\AppData\Local\Temp\ccyp2Aek.s:7789   .debug_str:0000000000000aa4 .LASF65
C:\Users\stapi\AppData\Local\Temp\ccyp2Aek.s:7419   .debug_str:00000000000000b7 .LASF66
C:\Users\stapi\AppData\Local\Temp\ccyp2Aek.s:7415   .debug_str:000000000000008c .LASF67
C:\Users\stapi\AppData\Local\Temp\ccyp2Aek.s:7791   .debug_str:0000000000000ab0 .LASF68
C:\Users\stapi\AppData\Local\Temp\ccyp2Aek.s:7511   .debug_str:000000000000029d .LASF69
C:\Users\stapi\AppData\Local\Temp\ccyp2Aek.s:7535   .debug_str:000000000000032f .LASF70
C:\Users\stapi\AppData\Local\Temp\ccyp2Aek.s:7533   .debug_str:000000000000032a .LASF71
C:\Users\stapi\AppData\Local\Temp\ccyp2Aek.s:7433   .debug_str:00000000000000f2 .LASF72
C:\Users\stapi\AppData\Local\Temp\ccyp2Aek.s:7523   .debug_str:00000000000002fb .LASF73
C:\Users\stapi\AppData\Local\Temp\ccyp2Aek.s:7519   .debug_str:00000000000002e1 .LASF74
C:\Users\stapi\AppData\Local\Temp\ccyp2Aek.s:7517   .debug_str:00000000000002d3 .LASF75
C:\Users\stapi\AppData\Local\Temp\ccyp2Aek.s:7647   .debug_str:000000000000062f .LASF76
C:\Users\stapi\AppData\Local\Temp\ccyp2Aek.s:7397   .debug_str:000000000000000f .LASF77
C:\Users\stapi\AppData\Local\Temp\ccyp2Aek.s:7685   .debug_str:00000000000006fb .LASF78
C:\Users\stapi\AppData\Local\Temp\ccyp2Aek.s:7771   .debug_str:000000000000095f .LASF79
C:\Users\stapi\AppData\Local\Temp\ccyp2Aek.s:7431   .debug_str:00000000000000e8 .LASF80
C:\Users\stapi\AppData\Local\Temp\ccyp2Aek.s:7407   .debug_str:0000000000000069 .LASF81
C:\Users\stapi\AppData\Local\Temp\ccyp2Aek.s:7489   .debug_str:0000000000000212 .LASF82
C:\Users\stapi\AppData\Local\Temp\ccyp2Aek.s:7609   .debug_str:000000000000053c .LASF83
C:\Users\stapi\AppData\Local\Temp\ccyp2Aek.s:7563   .debug_str:00000000000003c5 .LASF84
C:\Users\stapi\AppData\Local\Temp\ccyp2Aek.s:7691   .debug_str:0000000000000715 .LASF85
C:\Users\stapi\AppData\Local\Temp\ccyp2Aek.s:7453   .debug_str:0000000000000151 .LASF86
C:\Users\stapi\AppData\Local\Temp\ccyp2Aek.s:7761   .debug_str:0000000000000912 .LASF87
C:\Users\stapi\AppData\Local\Temp\ccyp2Aek.s:7713   .debug_str:0000000000000798 .LASF88
C:\Users\stapi\AppData\Local\Temp\ccyp2Aek.s:7711   .debug_str:000000000000078b .LASF89
C:\Users\stapi\AppData\Local\Temp\ccyp2Aek.s:7683   .debug_str:00000000000006ee .LASF90
C:\Users\stapi\AppData\Local\Temp\ccyp2Aek.s:7593   .debug_str:00000000000004c5 .LASF91
C:\Users\stapi\AppData\Local\Temp\ccyp2Aek.s:7403   .debug_str:0000000000000038 .LASF92
C:\Users\stapi\AppData\Local\Temp\ccyp2Aek.s:7737   .debug_str:000000000000081a .LASF93
C:\Users\stapi\AppData\Local\Temp\ccyp2Aek.s:7627   .debug_str:00000000000005ab .LASF94
C:\Users\stapi\AppData\Local\Temp\ccyp2Aek.s:7615   .debug_str:000000000000055f .LASF95
C:\Users\stapi\AppData\Local\Temp\ccyp2Aek.s:7705   .debug_str:0000000000000762 .LASF96
C:\Users\stapi\AppData\Local\Temp\ccyp2Aek.s:7587   .debug_str:00000000000004a3 .LASF97
C:\Users\stapi\AppData\Local\Temp\ccyp2Aek.s:7547   .debug_str:0000000000000368 .LASF98
C:\Users\stapi\AppData\Local\Temp\ccyp2Aek.s:7485   .debug_str:00000000000001f8 .LASF99
C:\Users\stapi\AppData\Local\Temp\ccyp2Aek.s:7509   .debug_str:0000000000000288 .LASF100
C:\Users\stapi\AppData\Local\Temp\ccyp2Aek.s:7481   .debug_str:00000000000001df .LASF101
C:\Users\stapi\AppData\Local\Temp\ccyp2Aek.s:7675   .debug_str:00000000000006c4 .LASF102
C:\Users\stapi\AppData\Local\Temp\ccyp2Aek.s:7787   .debug_str:0000000000000a99 .LASF103
C:\Users\stapi\AppData\Local\Temp\ccyp2Aek.s:7549   .debug_str:0000000000000375 .LASF104
C:\Users\stapi\AppData\Local\Temp\ccyp2Aek.s:7621   .debug_str:000000000000058b .LASF105
C:\Users\stapi\AppData\Local\Temp\ccyp2Aek.s:7537   .debug_str:0000000000000339 .LASF106
C:\Users\stapi\AppData\Local\Temp\ccyp2Aek.s:7513   .debug_str:00000000000002a6 .LASF110
C:\Users\stapi\AppData\Local\Temp\ccyp2Aek.s:7763   .debug_str:0000000000000917 .LASF107
C:\Users\stapi\AppData\Local\Temp\ccyp2Aek.s:7417   .debug_str:0000000000000095 .LASF108
C:\Users\stapi\AppData\Local\Temp\ccyp2Aek.s:7641   .debug_str:00000000000005fc .LASF109
C:\Users\stapi\AppData\Local\Temp\ccyp2Aek.s:7717   .debug_str:00000000000007b3 .LASF111
C:\Users\stapi\AppData\Local\Temp\ccyp2Aek.s:7633   .debug_str:00000000000005c6 .LASF112
C:\Users\stapi\AppData\Local\Temp\ccyp2Aek.s:7571   .debug_str:00000000000003e3 .LASF113
C:\Users\stapi\AppData\Local\Temp\ccyp2Aek.s:7749   .debug_str:00000000000008c9 .LASF114
C:\Users\stapi\AppData\Local\Temp\ccyp2Aek.s:7803   .debug_str:0000000000000ae1 .LASF115
C:\Users\stapi\AppData\Local\Temp\ccyp2Aek.s:7589   .debug_str:00000000000004af .LASF116
C:\Users\stapi\AppData\Local\Temp\ccyp2Aek.s:7409   .debug_str:0000000000000074 .LASF117
C:\Users\stapi\AppData\Local\Temp\ccyp2Aek.s:7529   .debug_str:0000000000000319 .LASF118
C:\Users\stapi\AppData\Local\Temp\ccyp2Aek.s:7441   .debug_str:0000000000000111 .LASF119
C:\Users\stapi\AppData\Local\Temp\ccyp2Aek.s:7745   .debug_str:00000000000008ba .LASF120
C:\Users\stapi\AppData\Local\Temp\ccyp2Aek.s:7551   .debug_str:000000000000037f .LASF121
C:\Users\stapi\AppData\Local\Temp\ccyp2Aek.s:7795   .debug_str:0000000000000ac4 .LASF122
C:\Users\stapi\AppData\Local\Temp\ccyp2Aek.s:7505   .debug_str:0000000000000278 .LASF123
C:\Users\stapi\AppData\Local\Temp\ccyp2Aek.s:7697   .debug_str:0000000000000736 .LASF124
C:\Users\stapi\AppData\Local\Temp\ccyp2Aek.s:7707   .debug_str:0000000000000771 .LASF125
C:\Users\stapi\AppData\Local\Temp\ccyp2Aek.s:7559   .debug_str:00000000000003ae .LASF126
C:\Users\stapi\AppData\Local\Temp\ccyp2Aek.s:7611   .debug_str:0000000000000548 .LASF127
C:\Users\stapi\AppData\Local\Temp\ccyp2Aek.s:7531   .debug_str:0000000000000320 .LASF128
C:\Users\stapi\AppData\Local\Temp\ccyp2Aek.s:7473   .debug_str:00000000000001b6 .LASF129
C:\Users\stapi\AppData\Local\Temp\ccyp2Aek.s:7463   .debug_str:0000000000000177 .LASF130
C:\Users\stapi\AppData\Local\Temp\ccyp2Aek.s:7703   .debug_str:000000000000074e .LASF131
C:\Users\stapi\AppData\Local\Temp\ccyp2Aek.s:7757   .debug_str:00000000000008ee .LASF132
C:\Users\stapi\AppData\Local\Temp\ccyp2Aek.s:7657   .debug_str:0000000000000661 .LASF133
C:\Users\stapi\AppData\Local\Temp\ccyp2Aek.s:7437   .debug_str:00000000000000fd .LASF134
C:\Users\stapi\AppData\Local\Temp\ccyp2Aek.s:7753   .debug_str:00000000000008db .LASF135
C:\Users\stapi\AppData\Local\Temp\ccyp2Aek.s:7451   .debug_str:000000000000014a .LASF136
C:\Users\stapi\AppData\Local\Temp\ccyp2Aek.s:7507   .debug_str:0000000000000283 .LASF137
C:\Users\stapi\AppData\Local\Temp\ccyp2Aek.s:7461   .debug_str:0000000000000171 .LASF138
C:\Users\stapi\AppData\Local\Temp\ccyp2Aek.s:7649   .debug_str:0000000000000636 .LASF139
C:\Users\stapi\AppData\Local\Temp\ccyp2Aek.s:7443   .debug_str:000000000000011c .LASF141
C:\Users\stapi\AppData\Local\Temp\ccyp2Aek.s:7447   .debug_str:000000000000013b .LASF142
C:\Users\stapi\AppData\Local\Temp\ccyp2Aek.s:7799   .debug_str:0000000000000ad0 .LASF143
C:\Users\stapi\AppData\Local\Temp\ccyp2Aek.s:7689   .debug_str:0000000000000709 .LASF144
C:\Users\stapi\AppData\Local\Temp\ccyp2Aek.s:7527   .debug_str:000000000000030b .LASF145
C:\Users\stapi\AppData\Local\Temp\ccyp2Aek.s:7393   .debug_str:0000000000000000 .LASF146
C:\Users\stapi\AppData\Local\Temp\ccyp2Aek.s:7599   .debug_str:00000000000004e9 .LASF147
C:\Users\stapi\AppData\Local\Temp\ccyp2Aek.s:7669   .debug_str:0000000000000696 .LASF150
C:\Users\stapi\AppData\Local\Temp\ccyp2Aek.s:1795   .text.dhcpd_find_ethaddr_from_packet:0000000000000000 .LFB19
C:\Users\stapi\AppData\Local\Temp\ccyp2Aek.s:1931   .text.dhcpd_find_ethaddr_from_packet:00000000000000ae .LFE19
C:\Users\stapi\AppData\Local\Temp\ccyp2Aek.s:6422   .debug_loc:0000000000000000 .LLST49
C:\Users\stapi\AppData\Local\Temp\ccyp2Aek.s:7679   .debug_str:00000000000006db .LASF148
C:\Users\stapi\AppData\Local\Temp\ccyp2Aek.s:6451   .debug_loc:0000000000000045 .LLST50
C:\Users\stapi\AppData\Local\Temp\ccyp2Aek.s:7687   .debug_str:0000000000000704 .LASF149
C:\Users\stapi\AppData\Local\Temp\ccyp2Aek.s:6486   .debug_loc:000000000000009e .LLST51
C:\Users\stapi\AppData\Local\Temp\ccyp2Aek.s:1897   .text.dhcpd_find_ethaddr_from_packet:0000000000000084 .LVL165
C:\Users\stapi\AppData\Local\Temp\ccyp2Aek.s:7521   .debug_str:00000000000002e9 .LASF151
C:\Users\stapi\AppData\Local\Temp\ccyp2Aek.s:1735   .text.stop_dhcpd_daemon:0000000000000000 .LFB18
C:\Users\stapi\AppData\Local\Temp\ccyp2Aek.s:1788   .text.stop_dhcpd_daemon:0000000000000046 .LFE18
C:\Users\stapi\AppData\Local\Temp\ccyp2Aek.s:7561   .debug_str:00000000000003be .LASF152
C:\Users\stapi\AppData\Local\Temp\ccyp2Aek.s:6508   .debug_loc:00000000000000d5 .LLST48
C:\Users\stapi\AppData\Local\Temp\ccyp2Aek.s:1773   .text.stop_dhcpd_daemon:0000000000000036 .LVL155
C:\Users\stapi\AppData\Local\Temp\ccyp2Aek.s:7701   .debug_str:0000000000000741 .LASF169
C:\Users\stapi\AppData\Local\Temp\ccyp2Aek.s:1589   .text.dhcpd_daemon:0000000000000000 .LFB17
C:\Users\stapi\AppData\Local\Temp\ccyp2Aek.s:1728   .text.dhcpd_daemon:00000000000000ec .LFE17
C:\Users\stapi\AppData\Local\Temp\ccyp2Aek.s:6526   .debug_loc:0000000000000101 .LLST46
C:\Users\stapi\AppData\Local\Temp\ccyp2Aek.s:1616   .text.dhcpd_daemon:000000000000002c .LBB34
C:\Users\stapi\AppData\Local\Temp\ccyp2Aek.s:1693   .text.dhcpd_daemon:00000000000000a6 .LBE34
C:\Users\stapi\AppData\Local\Temp\ccyp2Aek.s:6544   .debug_loc:000000000000012d .LLST47
C:\Users\stapi\AppData\Local\Temp\ccyp2Aek.s:1625   .text.dhcpd_daemon:0000000000000046 .LVL146
C:\Users\stapi\AppData\Local\Temp\ccyp2Aek.s:1614   .text.dhcpd_daemon:000000000000002c .LVL145
C:\Users\stapi\AppData\Local\Temp\ccyp2Aek.s:1697   .text.dhcpd_daemon:00000000000000ae .LVL148
C:\Users\stapi\AppData\Local\Temp\ccyp2Aek.s:1706   .text.dhcpd_daemon:00000000000000c4 .LVL149
C:\Users\stapi\AppData\Local\Temp\ccyp2Aek.s:1711   .text.dhcpd_daemon:00000000000000d0 .LVL150
C:\Users\stapi\AppData\Local\Temp\ccyp2Aek.s:1718   .text.dhcpd_daemon:00000000000000e4 .LVL151
C:\Users\stapi\AppData\Local\Temp\ccyp2Aek.s:7729   .debug_str:00000000000007ee .LASF165
C:\Users\stapi\AppData\Local\Temp\ccyp2Aek.s:7797   .debug_str:0000000000000acb .LASF153
C:\Users\stapi\AppData\Local\Temp\ccyp2Aek.s:7719   .debug_str:00000000000007cb .LASF154
C:\Users\stapi\AppData\Local\Temp\ccyp2Aek.s:7779   .debug_str:0000000000000983 .LASF206
C:\Users\stapi\AppData\Local\Temp\ccyp2Aek.s:7557   .debug_str:00000000000003a2 .LASF155
C:\Users\stapi\AppData\Local\Temp\ccyp2Aek.s:7445   .debug_str:000000000000012f .LASF156
C:\Users\stapi\AppData\Local\Temp\ccyp2Aek.s:7395   .debug_str:0000000000000007 .LASF157
C:\Users\stapi\AppData\Local\Temp\ccyp2Aek.s:7777   .debug_str:0000000000000978 .LASF158
C:\Users\stapi\AppData\Local\Temp\ccyp2Aek.s:7653   .debug_str:0000000000000646 .LASF159
C:\Users\stapi\AppData\Local\Temp\ccyp2Aek.s:7575   .debug_str:0000000000000400 .LASF160
C:\Users\stapi\AppData\Local\Temp\ccyp2Aek.s:7629   .debug_str:00000000000005ba .LASF161
C:\Users\stapi\AppData\Local\Temp\ccyp2Aek.s:7613   .debug_str:0000000000000553 .LASF162
C:\Users\stapi\AppData\Local\Temp\ccyp2Aek.s:7401   .debug_str:000000000000002f .LASF163
C:\Users\stapi\AppData\Local\Temp\ccyp2Aek.s:7741   .debug_str:00000000000008a3 .LASF164
C:\Users\stapi\AppData\Local\Temp\ccyp2Aek.s:7501   .debug_str:000000000000025b .LASF166
C:\Users\stapi\AppData\Local\Temp\ccyp2Aek.s:7721   .debug_str:00000000000007d0 .LASF167
C:\Users\stapi\AppData\Local\Temp\ccyp2Aek.s:7455   .debug_str:000000000000015b .LASF168
C:\Users\stapi\AppData\Local\Temp\ccyp2Aek.s:7601   .debug_str:00000000000004f9 .LASF170
C:\Users\stapi\AppData\Local\Temp\ccyp2Aek.s:1072   .text.dhcpd_delete_ipaddr_by_macaddr:0000000000000000 .LFB10
C:\Users\stapi\AppData\Local\Temp\ccyp2Aek.s:1099   .text.dhcpd_delete_ipaddr_by_macaddr:0000000000000026 .LFE10
C:\Users\stapi\AppData\Local\Temp\ccyp2Aek.s:7483   .debug_str:00000000000001ef .LASF171
C:\Users\stapi\AppData\Local\Temp\ccyp2Aek.s:6551   .debug_loc:0000000000000140 .LLST24
C:\Users\stapi\AppData\Local\Temp\ccyp2Aek.s:6565   .debug_loc:0000000000000161 .LLST25
C:\Users\stapi\AppData\Local\Temp\ccyp2Aek.s:1084   .text.dhcpd_delete_ipaddr_by_macaddr:0000000000000010 .LVL94
C:\Users\stapi\AppData\Local\Temp\ccyp2Aek.s:7405   .debug_str:000000000000004c .LASF172
C:\Users\stapi\AppData\Local\Temp\ccyp2Aek.s:1022   .text.dhcpd_find_ipaddr_by_macaddr:0000000000000000 .LFB9
C:\Users\stapi\AppData\Local\Temp\ccyp2Aek.s:1065   .text.dhcpd_find_ipaddr_by_macaddr:000000000000002c .LFE9
C:\Users\stapi\AppData\Local\Temp\ccyp2Aek.s:6577   .debug_loc:0000000000000180 .LLST22
C:\Users\stapi\AppData\Local\Temp\ccyp2Aek.s:7595   .debug_str:00000000000004d2 .LASF173
C:\Users\stapi\AppData\Local\Temp\ccyp2Aek.s:6591   .debug_loc:00000000000001a1 .LLST23
C:\Users\stapi\AppData\Local\Temp\ccyp2Aek.s:1034   .text.dhcpd_find_ipaddr_by_macaddr:0000000000000010 .LVL87
C:\Users\stapi\AppData\Local\Temp\ccyp2Aek.s:7619   .debug_str:0000000000000573 .LASF179
C:\Users\stapi\AppData\Local\Temp\ccyp2Aek.s:13     .text.DHCPD_FindLeaseByChaddr:0000000000000000 .LFB8
C:\Users\stapi\AppData\Local\Temp\ccyp2Aek.s:77     .text.DHCPD_FindLeaseByChaddr:0000000000000046 .LFE8
C:\Users\stapi\AppData\Local\Temp\ccyp2Aek.s:6611   .debug_loc:00000000000001d6 .LLST0
C:\Users\stapi\AppData\Local\Temp\ccyp2Aek.s:6622   .debug_loc:00000000000001f4 .LLST1
C:\Users\stapi\AppData\Local\Temp\ccyp2Aek.s:65     .text.DHCPD_FindLeaseByChaddr:000000000000003a .LVL3
C:\Users\stapi\AppData\Local\Temp\ccyp2Aek.s:7553   .debug_str:000000000000038b .LASF174
C:\Users\stapi\AppData\Local\Temp\ccyp2Aek.s:7399   .debug_str:0000000000000017 .LASF175
C:\Users\stapi\AppData\Local\Temp\ccyp2Aek.s:7541   .debug_str:0000000000000347 .LASF176
C:\Users\stapi\AppData\Local\Temp\ccyp2Aek.s:7543   .debug_str:0000000000000358 .LASF177
C:\Users\stapi\AppData\Local\Temp\ccyp2Aek.s:7565   .debug_str:00000000000003cf .LASF178
C:\Users\stapi\AppData\Local\Temp\ccyp2Aek.s:7499   .debug_str:000000000000024a .LASF180
C:\Users\stapi\AppData\Local\Temp\ccyp2Aek.s:83     .text.dhcpd_pickup_opt:0000000000000000 .LFB4
C:\Users\stapi\AppData\Local\Temp\ccyp2Aek.s:277    .text.dhcpd_pickup_opt:00000000000000ca .LFE4
C:\Users\stapi\AppData\Local\Temp\ccyp2Aek.s:6634   .debug_loc:0000000000000213 .LLST2
C:\Users\stapi\AppData\Local\Temp\ccyp2Aek.s:6664   .debug_loc:000000000000025a .LLST3
C:\Users\stapi\AppData\Local\Temp\ccyp2Aek.s:7645   .debug_str:0000000000000626 .LASF181
C:\Users\stapi\AppData\Local\Temp\ccyp2Aek.s:6682   .debug_loc:0000000000000286 .LLST4
C:\Users\stapi\AppData\Local\Temp\ccyp2Aek.s:6704   .debug_loc:00000000000002bd .LLST5
C:\Users\stapi\AppData\Local\Temp\ccyp2Aek.s:6726   .debug_loc:00000000000002f4 .LLST6
C:\Users\stapi\AppData\Local\Temp\ccyp2Aek.s:7673   .debug_str:00000000000006bd .LASF182
C:\Users\stapi\AppData\Local\Temp\ccyp2Aek.s:6770   .debug_loc:0000000000000364 .LLST7
C:\Users\stapi\AppData\Local\Temp\ccyp2Aek.s:6811   .debug_loc:00000000000003cb .LLST8
C:\Users\stapi\AppData\Local\Temp\ccyp2Aek.s:7467   .debug_str:0000000000000198 .LASF183
C:\Users\stapi\AppData\Local\Temp\ccyp2Aek.s:6826   .debug_loc:00000000000003f4 .LLST9
C:\Users\stapi\AppData\Local\Temp\ccyp2Aek.s:7631   .debug_str:00000000000005c1 .LASF184
C:\Users\stapi\AppData\Local\Temp\ccyp2Aek.s:6846   .debug_loc:0000000000000429 .LLST10
C:\Users\stapi\AppData\Local\Temp\ccyp2Aek.s:7665   .debug_str:0000000000000688 .LASF185
C:\Users\stapi\AppData\Local\Temp\ccyp2Aek.s:6864   .debug_loc:0000000000000455 .LLST11
C:\Users\stapi\AppData\Local\Temp\ccyp2Aek.s:6902   .debug_loc:00000000000004b8 .LLST12
C:\Users\stapi\AppData\Local\Temp\ccyp2Aek.s:165    .text.dhcpd_pickup_opt:000000000000005e .LVL16
C:\Users\stapi\AppData\Local\Temp\ccyp2Aek.s:283    .text.dhcpd_add_option.isra.0:0000000000000000 .LFB22
C:\Users\stapi\AppData\Local\Temp\ccyp2Aek.s:367    .text.dhcpd_add_option.isra.0:0000000000000060 .LFE22
C:\Users\stapi\AppData\Local\Temp\ccyp2Aek.s:6909   .debug_loc:00000000000004cb .LLST13
C:\Users\stapi\AppData\Local\Temp\ccyp2Aek.s:6935   .debug_loc:0000000000000506 .LLST14
C:\Users\stapi\AppData\Local\Temp\ccyp2Aek.s:6949   .debug_loc:0000000000000527 .LLST15
C:\Users\stapi\AppData\Local\Temp\ccyp2Aek.s:6963   .debug_loc:0000000000000548 .LLST16
C:\Users\stapi\AppData\Local\Temp\ccyp2Aek.s:6985   .debug_loc:000000000000057f .LLST17
C:\Users\stapi\AppData\Local\Temp\ccyp2Aek.s:328    .text.dhcpd_add_option.isra.0:0000000000000040 .LVL36
C:\Users\stapi\AppData\Local\Temp\ccyp2Aek.s:380    .text.request.isra.0:0000000000000000 .LFB24
C:\Users\stapi\AppData\Local\Temp\ccyp2Aek.s:787    .text.request.isra.0:000000000000032c .LFE24
C:\Users\stapi\AppData\Local\Temp\ccyp2Aek.s:6996   .debug_loc:000000000000059d .LLST18
C:\Users\stapi\AppData\Local\Temp\ccyp2Aek.s:7007   .debug_loc:00000000000005bb .LLST19
C:\Users\stapi\AppData\Local\Temp\ccyp2Aek.s:420    .text.request.isra.0:000000000000002c .LVL44
C:\Users\stapi\AppData\Local\Temp\ccyp2Aek.s:425    .text.request.isra.0:0000000000000036 .LVL45
C:\Users\stapi\AppData\Local\Temp\ccyp2Aek.s:435    .text.request.isra.0:000000000000004e .LVL46
C:\Users\stapi\AppData\Local\Temp\ccyp2Aek.s:443    .text.request.isra.0:000000000000005e .LVL47
C:\Users\stapi\AppData\Local\Temp\ccyp2Aek.s:489    .text.request.isra.0:00000000000000b2 .LVL50
C:\Users\stapi\AppData\Local\Temp\ccyp2Aek.s:539    .text.request.isra.0:0000000000000114 .LVL51
C:\Users\stapi\AppData\Local\Temp\ccyp2Aek.s:558    .text.request.isra.0:000000000000013a .LVL52
C:\Users\stapi\AppData\Local\Temp\ccyp2Aek.s:565    .text.request.isra.0:0000000000000150 .LVL53
C:\Users\stapi\AppData\Local\Temp\ccyp2Aek.s:572    .text.request.isra.0:0000000000000164 .LVL54
C:\Users\stapi\AppData\Local\Temp\ccyp2Aek.s:579    .text.request.isra.0:0000000000000178 .LVL55
C:\Users\stapi\AppData\Local\Temp\ccyp2Aek.s:586    .text.request.isra.0:000000000000018c .LVL56
C:\Users\stapi\AppData\Local\Temp\ccyp2Aek.s:593    .text.request.isra.0:00000000000001a0 .LVL57
C:\Users\stapi\AppData\Local\Temp\ccyp2Aek.s:600    .text.request.isra.0:00000000000001b4 .LVL58
C:\Users\stapi\AppData\Local\Temp\ccyp2Aek.s:605    .text.request.isra.0:00000000000001be .LVL59
C:\Users\stapi\AppData\Local\Temp\ccyp2Aek.s:612    .text.request.isra.0:00000000000001d2 .LVL60
C:\Users\stapi\AppData\Local\Temp\ccyp2Aek.s:664    .text.request.isra.0:0000000000000252 .LVL61
C:\Users\stapi\AppData\Local\Temp\ccyp2Aek.s:719    .text.request.isra.0:00000000000002a0 .LVL62
C:\Users\stapi\AppData\Local\Temp\ccyp2Aek.s:760    .text.request.isra.0:00000000000002f4 .LVL63
C:\Users\stapi\AppData\Local\Temp\ccyp2Aek.s:775    .text.request.isra.0:0000000000000314 .LVL64
C:\Users\stapi\AppData\Local\Temp\ccyp2Aek.s:782    .text.request.isra.0:000000000000032a .LVL65
C:\Users\stapi\AppData\Local\Temp\ccyp2Aek.s:793    .text.make_dhcpd_packet.constprop.0:0000000000000000 .LFB26
C:\Users\stapi\AppData\Local\Temp\ccyp2Aek.s:1015   .text.make_dhcpd_packet.constprop.0:00000000000001c2 .LFE26
C:\Users\stapi\AppData\Local\Temp\ccyp2Aek.s:7018   .debug_loc:00000000000005d9 .LLST20
C:\Users\stapi\AppData\Local\Temp\ccyp2Aek.s:7029   .debug_loc:00000000000005f7 .LLST21
C:\Users\stapi\AppData\Local\Temp\ccyp2Aek.s:830    .text.make_dhcpd_packet.constprop.0:0000000000000032 .LVL70
C:\Users\stapi\AppData\Local\Temp\ccyp2Aek.s:835    .text.make_dhcpd_packet.constprop.0:000000000000003c .LVL71
C:\Users\stapi\AppData\Local\Temp\ccyp2Aek.s:845    .text.make_dhcpd_packet.constprop.0:0000000000000058 .LVL72
C:\Users\stapi\AppData\Local\Temp\ccyp2Aek.s:878    .text.make_dhcpd_packet.constprop.0:0000000000000096 .LVL73
C:\Users\stapi\AppData\Local\Temp\ccyp2Aek.s:928    .text.make_dhcpd_packet.constprop.0:00000000000000f8 .LVL74
C:\Users\stapi\AppData\Local\Temp\ccyp2Aek.s:941    .text.make_dhcpd_packet.constprop.0:0000000000000114 .LVL75
C:\Users\stapi\AppData\Local\Temp\ccyp2Aek.s:949    .text.make_dhcpd_packet.constprop.0:000000000000012c .LVL76
C:\Users\stapi\AppData\Local\Temp\ccyp2Aek.s:956    .text.make_dhcpd_packet.constprop.0:0000000000000140 .LVL77
C:\Users\stapi\AppData\Local\Temp\ccyp2Aek.s:963    .text.make_dhcpd_packet.constprop.0:0000000000000152 .LVL78
C:\Users\stapi\AppData\Local\Temp\ccyp2Aek.s:970    .text.make_dhcpd_packet.constprop.0:0000000000000164 .LVL79
C:\Users\stapi\AppData\Local\Temp\ccyp2Aek.s:977    .text.make_dhcpd_packet.constprop.0:0000000000000176 .LVL80
C:\Users\stapi\AppData\Local\Temp\ccyp2Aek.s:984    .text.make_dhcpd_packet.constprop.0:0000000000000188 .LVL81
C:\Users\stapi\AppData\Local\Temp\ccyp2Aek.s:991    .text.make_dhcpd_packet.constprop.0:000000000000019c .LVL82
C:\Users\stapi\AppData\Local\Temp\ccyp2Aek.s:996    .text.make_dhcpd_packet.constprop.0:00000000000001a6 .LVL83
C:\Users\stapi\AppData\Local\Temp\ccyp2Aek.s:1003   .text.make_dhcpd_packet.constprop.0:00000000000001b8 .LVL84
C:\Users\stapi\AppData\Local\Temp\ccyp2Aek.s:1110   .text.dhcp_process:0000000000000000 .LFB15
C:\Users\stapi\AppData\Local\Temp\ccyp2Aek.s:1483   .text.dhcp_process:0000000000000200 .LFE15
C:\Users\stapi\AppData\Local\Temp\ccyp2Aek.s:7036   .debug_loc:000000000000060a .LLST26
C:\Users\stapi\AppData\Local\Temp\ccyp2Aek.s:1155   .text.dhcp_process:0000000000000034 .LBB10
C:\Users\stapi\AppData\Local\Temp\ccyp2Aek.s:7047   .debug_loc:0000000000000628 .LLST27
C:\Users\stapi\AppData\Local\Temp\ccyp2Aek.s:7058   .debug_loc:0000000000000646 .LLST28
C:\Users\stapi\AppData\Local\Temp\ccyp2Aek.s:7079   .debug_loc:0000000000000675 .LLST29
C:\Users\stapi\AppData\Local\Temp\ccyp2Aek.s:7112   .debug_loc:00000000000006cc .LLST30
C:\Users\stapi\AppData\Local\Temp\ccyp2Aek.s:7139   .debug_loc:000000000000070f .LLST31
C:\Users\stapi\AppData\Local\Temp\ccyp2Aek.s:1191   .text.dhcp_process:0000000000000076 .LBB12
C:\Users\stapi\AppData\Local\Temp\ccyp2Aek.s:7150   .debug_loc:000000000000072d .LLST32
C:\Users\stapi\AppData\Local\Temp\ccyp2Aek.s:7161   .debug_loc:000000000000074b .LLST33
C:\Users\stapi\AppData\Local\Temp\ccyp2Aek.s:1241   .text.dhcp_process:00000000000000ce .LBB14
C:\Users\stapi\AppData\Local\Temp\ccyp2Aek.s:7174   .debug_loc:000000000000076b .LLST34
C:\Users\stapi\AppData\Local\Temp\ccyp2Aek.s:1207   .text.dhcp_process:0000000000000090 .LVL103
C:\Users\stapi\AppData\Local\Temp\ccyp2Aek.s:1216   .text.dhcp_process:00000000000000a2 .LVL105
C:\Users\stapi\AppData\Local\Temp\ccyp2Aek.s:1233   .text.dhcp_process:00000000000000c0 .LVL106
C:\Users\stapi\AppData\Local\Temp\ccyp2Aek.s:1240   .text.dhcp_process:00000000000000ce .LVL107
C:\Users\stapi\AppData\Local\Temp\ccyp2Aek.s:1169   .text.dhcp_process:000000000000004c .LVL98
C:\Users\stapi\AppData\Local\Temp\ccyp2Aek.s:1178   .text.dhcp_process:0000000000000064 .LVL99
C:\Users\stapi\AppData\Local\Temp\ccyp2Aek.s:1185   .text.dhcp_process:0000000000000072 .LVL100
C:\Users\stapi\AppData\Local\Temp\ccyp2Aek.s:1345   .text.dhcp_process:000000000000013e .LVL121
C:\Users\stapi\AppData\Local\Temp\ccyp2Aek.s:1359   .text.dhcp_process:000000000000015c .LVL123
C:\Users\stapi\AppData\Local\Temp\ccyp2Aek.s:1363   .text.dhcp_process:0000000000000166 .LVL124
C:\Users\stapi\AppData\Local\Temp\ccyp2Aek.s:1385   .text.dhcp_process:0000000000000182 .LBB23
C:\Users\stapi\AppData\Local\Temp\ccyp2Aek.s:1459   .text.dhcp_process:00000000000001dc .LVL131
C:\Users\stapi\AppData\Local\Temp\ccyp2Aek.s:1478   .text.dhcp_process:00000000000001fe .LVL132
C:\Users\stapi\AppData\Local\Temp\ccyp2Aek.s:1138   .text.dhcp_process:000000000000001e .LVL96
C:\Users\stapi\AppData\Local\Temp\ccyp2Aek.s:1489   .text.UDP_Receive:0000000000000000 .LFB16
C:\Users\stapi\AppData\Local\Temp\ccyp2Aek.s:1575   .text.UDP_Receive:000000000000007e .LFE16
C:\Users\stapi\AppData\Local\Temp\ccyp2Aek.s:7190   .debug_loc:0000000000000795 .LLST35
C:\Users\stapi\AppData\Local\Temp\ccyp2Aek.s:7204   .debug_loc:00000000000007b6 .LLST36
C:\Users\stapi\AppData\Local\Temp\ccyp2Aek.s:7215   .debug_loc:00000000000007d4 .LLST37
C:\Users\stapi\AppData\Local\Temp\ccyp2Aek.s:7226   .debug_loc:00000000000007f2 .LLST38
C:\Users\stapi\AppData\Local\Temp\ccyp2Aek.s:7240   .debug_loc:0000000000000813 .LLST39
C:\Users\stapi\AppData\Local\Temp\ccyp2Aek.s:1518   .text.UDP_Receive:0000000000000022 .LBB30
C:\Users\stapi\AppData\Local\Temp\ccyp2Aek.s:1564   .text.UDP_Receive:0000000000000076 .LBE30
C:\Users\stapi\AppData\Local\Temp\ccyp2Aek.s:7254   .debug_loc:0000000000000834 .LLST40
C:\Users\stapi\AppData\Local\Temp\ccyp2Aek.s:7264   .debug_loc:000000000000084a .LLST41
C:\Users\stapi\AppData\Local\Temp\ccyp2Aek.s:7274   .debug_loc:0000000000000860 .LLST42
C:\Users\stapi\AppData\Local\Temp\ccyp2Aek.s:7281   .debug_loc:0000000000000873 .LLST43
C:\Users\stapi\AppData\Local\Temp\ccyp2Aek.s:7288   .debug_loc:0000000000000886 .LLST44
C:\Users\stapi\AppData\Local\Temp\ccyp2Aek.s:7295   .debug_loc:0000000000000899 .LLST45
C:\Users\stapi\AppData\Local\Temp\ccyp2Aek.s:1525   .text.UDP_Receive:000000000000002c .LVL137
C:\Users\stapi\AppData\Local\Temp\ccyp2Aek.s:1535   .text.UDP_Receive:0000000000000042 .LVL138
C:\Users\stapi\AppData\Local\Temp\ccyp2Aek.s:1552   .text.UDP_Receive:0000000000000062 .LVL140
C:\Users\stapi\AppData\Local\Temp\ccyp2Aek.s:1556   .text.UDP_Receive:000000000000006c .LVL141
C:\Users\stapi\AppData\Local\Temp\ccyp2Aek.s:1561   .text.UDP_Receive:0000000000000076 .LVL142
C:\Users\stapi\AppData\Local\Temp\ccyp2Aek.s:1512   .text.UDP_Receive:000000000000001c .LVL135
C:\Users\stapi\AppData\Local\Temp\ccyp2Aek.s:7651   .debug_str:000000000000063b .LASF186
C:\Users\stapi\AppData\Local\Temp\ccyp2Aek.s:7755   .debug_str:00000000000008e3 .LASF187
C:\Users\stapi\AppData\Local\Temp\ccyp2Aek.s:7605   .debug_str:0000000000000525 .LASF196
C:\Users\stapi\AppData\Local\Temp\ccyp2Aek.s:7709   .debug_str:000000000000077a .LASF198
C:\Users\stapi\AppData\Local\Temp\ccyp2Aek.s:7569   .debug_str:00000000000003db .LASF188
C:\Users\stapi\AppData\Local\Temp\ccyp2Aek.s:7747   .debug_str:00000000000008c0 .LASF189
C:\Users\stapi\AppData\Local\Temp\ccyp2Aek.s:7439   .debug_str:0000000000000102 .LASF190
C:\Users\stapi\AppData\Local\Temp\ccyp2Aek.s:7723   .debug_str:00000000000007d7 .LASF191
C:\Users\stapi\AppData\Local\Temp\ccyp2Aek.s:7773   .debug_str:0000000000000969 .LASF192
C:\Users\stapi\AppData\Local\Temp\ccyp2Aek.s:7545   .debug_str:000000000000035d .LASF193
C:\Users\stapi\AppData\Local\Temp\ccyp2Aek.s:7411   .debug_str:000000000000007a .LASF194
C:\Users\stapi\AppData\Local\Temp\ccyp2Aek.s:7637   .debug_str:00000000000005e4 .LASF195
C:\Users\stapi\AppData\Local\Temp\ccyp2Aek.s:7769   .debug_str:0000000000000958 .LASF197
C:\Users\stapi\AppData\Local\Temp\ccyp2Aek.s:7465   .debug_str:0000000000000187 .LASF199
C:\Users\stapi\AppData\Local\Temp\ccyp2Aek.s:7579   .debug_str:0000000000000483 .LASF200
C:\Users\stapi\AppData\Local\Temp\ccyp2Aek.s:7413   .debug_str:0000000000000081 .LASF201
C:\Users\stapi\AppData\Local\Temp\ccyp2Aek.s:7497   .debug_str:0000000000000240 .LASF202
C:\Users\stapi\AppData\Local\Temp\ccyp2Aek.s:1798   .text.dhcpd_find_ethaddr_from_packet:0000000000000000 .LVL156
C:\Users\stapi\AppData\Local\Temp\ccyp2Aek.s:1817   .text.dhcpd_find_ethaddr_from_packet:0000000000000016 .LVL158
C:\Users\stapi\AppData\Local\Temp\ccyp2Aek.s:1830   .text.dhcpd_find_ethaddr_from_packet:0000000000000020 .LVL160
C:\Users\stapi\AppData\Local\Temp\ccyp2Aek.s:1882   .text.dhcpd_find_ethaddr_from_packet:0000000000000064 .LVL164
C:\Users\stapi\AppData\Local\Temp\ccyp2Aek.s:1911   .text.dhcpd_find_ethaddr_from_packet:0000000000000098 .LVL167
C:\Users\stapi\AppData\Local\Temp\ccyp2Aek.s:1805   .text.dhcpd_find_ethaddr_from_packet:0000000000000008 .LVL157
C:\Users\stapi\AppData\Local\Temp\ccyp2Aek.s:1861   .text.dhcpd_find_ethaddr_from_packet:000000000000004a .LVL161
C:\Users\stapi\AppData\Local\Temp\ccyp2Aek.s:1866   .text.dhcpd_find_ethaddr_from_packet:000000000000004e .LVL162
C:\Users\stapi\AppData\Local\Temp\ccyp2Aek.s:1875   .text.dhcpd_find_ethaddr_from_packet:0000000000000058 .LVL163
C:\Users\stapi\AppData\Local\Temp\ccyp2Aek.s:1907   .text.dhcpd_find_ethaddr_from_packet:0000000000000096 .LVL166
C:\Users\stapi\AppData\Local\Temp\ccyp2Aek.s:1928   .text.dhcpd_find_ethaddr_from_packet:00000000000000ac .LVL168
C:\Users\stapi\AppData\Local\Temp\ccyp2Aek.s:1821   .text.dhcpd_find_ethaddr_from_packet:0000000000000018 .LVL159
C:\Users\stapi\AppData\Local\Temp\ccyp2Aek.s:1738   .text.stop_dhcpd_daemon:0000000000000000 .LVL152
C:\Users\stapi\AppData\Local\Temp\ccyp2Aek.s:1751   .text.stop_dhcpd_daemon:0000000000000014 .LVL153
C:\Users\stapi\AppData\Local\Temp\ccyp2Aek.s:1761   .text.stop_dhcpd_daemon:000000000000001e .LVL154
C:\Users\stapi\AppData\Local\Temp\ccyp2Aek.s:1592   .text.dhcpd_daemon:0000000000000000 .LVL143
C:\Users\stapi\AppData\Local\Temp\ccyp2Aek.s:1609   .text.dhcpd_daemon:000000000000001a .LVL144
C:\Users\stapi\AppData\Local\Temp\ccyp2Aek.s:1691   .text.dhcpd_daemon:00000000000000a6 .LVL147
C:\Users\stapi\AppData\Local\Temp\ccyp2Aek.s:1075   .text.dhcpd_delete_ipaddr_by_macaddr:0000000000000000 .LVL92
C:\Users\stapi\AppData\Local\Temp\ccyp2Aek.s:1080   .text.dhcpd_delete_ipaddr_by_macaddr:0000000000000008 .LVL93
C:\Users\stapi\AppData\Local\Temp\ccyp2Aek.s:1025   .text.dhcpd_find_ipaddr_by_macaddr:0000000000000000 .LVL85
C:\Users\stapi\AppData\Local\Temp\ccyp2Aek.s:1030   .text.dhcpd_find_ipaddr_by_macaddr:0000000000000008 .LVL86
C:\Users\stapi\AppData\Local\Temp\ccyp2Aek.s:1043   .text.dhcpd_find_ipaddr_by_macaddr:000000000000001a .LVL88
C:\Users\stapi\AppData\Local\Temp\ccyp2Aek.s:1050   .text.dhcpd_find_ipaddr_by_macaddr:0000000000000020 .LVL89
C:\Users\stapi\AppData\Local\Temp\ccyp2Aek.s:1057   .text.dhcpd_find_ipaddr_by_macaddr:0000000000000028 .LVL90
C:\Users\stapi\AppData\Local\Temp\ccyp2Aek.s:1062   .text.dhcpd_find_ipaddr_by_macaddr:000000000000002a .LVL91
C:\Users\stapi\AppData\Local\Temp\ccyp2Aek.s:17     .text.DHCPD_FindLeaseByChaddr:0000000000000000 .LVL0
C:\Users\stapi\AppData\Local\Temp\ccyp2Aek.s:38     .text.DHCPD_FindLeaseByChaddr:000000000000001c .LVL2
C:\Users\stapi\AppData\Local\Temp\ccyp2Aek.s:28     .text.DHCPD_FindLeaseByChaddr:0000000000000008 .LVL1
C:\Users\stapi\AppData\Local\Temp\ccyp2Aek.s:86     .text.dhcpd_pickup_opt:0000000000000000 .LVL5
C:\Users\stapi\AppData\Local\Temp\ccyp2Aek.s:111    .text.dhcpd_pickup_opt:0000000000000016 .LVL8
C:\Users\stapi\AppData\Local\Temp\ccyp2Aek.s:128    .text.dhcpd_pickup_opt:000000000000002e .LVL10
C:\Users\stapi\AppData\Local\Temp\ccyp2Aek.s:141    .text.dhcpd_pickup_opt:0000000000000042 .LVL11
C:\Users\stapi\AppData\Local\Temp\ccyp2Aek.s:144    .text.dhcpd_pickup_opt:0000000000000044 .LVL12
C:\Users\stapi\AppData\Local\Temp\ccyp2Aek.s:163    .text.dhcpd_pickup_opt:0000000000000056 .LVL15
C:\Users\stapi\AppData\Local\Temp\ccyp2Aek.s:175    .text.dhcpd_pickup_opt:0000000000000068 .LVL17
C:\Users\stapi\AppData\Local\Temp\ccyp2Aek.s:122    .text.dhcpd_pickup_opt:0000000000000024 .LVL9
C:\Users\stapi\AppData\Local\Temp\ccyp2Aek.s:102    .text.dhcpd_pickup_opt:0000000000000010 .LVL7
C:\Users\stapi\AppData\Local\Temp\ccyp2Aek.s:158    .text.dhcpd_pickup_opt:0000000000000050 .LVL14
C:\Users\stapi\AppData\Local\Temp\ccyp2Aek.s:192    .text.dhcpd_pickup_opt:000000000000007a .LVL19
C:\Users\stapi\AppData\Local\Temp\ccyp2Aek.s:198    .text.dhcpd_pickup_opt:000000000000007e .LVL21
C:\Users\stapi\AppData\Local\Temp\ccyp2Aek.s:235    .text.dhcpd_pickup_opt:00000000000000a8 .LVL25
C:\Users\stapi\AppData\Local\Temp\ccyp2Aek.s:247    .text.dhcpd_pickup_opt:00000000000000b0 .LVL27
C:\Users\stapi\AppData\Local\Temp\ccyp2Aek.s:254    .text.dhcpd_pickup_opt:00000000000000b8 .LVL28
C:\Users\stapi\AppData\Local\Temp\ccyp2Aek.s:260    .text.dhcpd_pickup_opt:00000000000000bc .LVL29
C:\Users\stapi\AppData\Local\Temp\ccyp2Aek.s:270    .text.dhcpd_pickup_opt:00000000000000c4 .LVL30
C:\Users\stapi\AppData\Local\Temp\ccyp2Aek.s:196    .text.dhcpd_pickup_opt:000000000000007c .LVL20
C:\Users\stapi\AppData\Local\Temp\ccyp2Aek.s:241    .text.dhcpd_pickup_opt:00000000000000ac .LVL26
C:\Users\stapi\AppData\Local\Temp\ccyp2Aek.s:94     .text.dhcpd_pickup_opt:0000000000000008 .LVL6
C:\Users\stapi\AppData\Local\Temp\ccyp2Aek.s:229    .text.dhcpd_pickup_opt:00000000000000a2 .LVL24
C:\Users\stapi\AppData\Local\Temp\ccyp2Aek.s:151    .text.dhcpd_pickup_opt:000000000000004a .LVL13
C:\Users\stapi\AppData\Local\Temp\ccyp2Aek.s:286    .text.dhcpd_add_option.isra.0:0000000000000000 .LVL31
C:\Users\stapi\AppData\Local\Temp\ccyp2Aek.s:317    .text.dhcpd_add_option.isra.0:000000000000002a .LVL35
C:\Users\stapi\AppData\Local\Temp\ccyp2Aek.s:333    .text.dhcpd_add_option.isra.0:0000000000000042 .LVL37
C:\Users\stapi\AppData\Local\Temp\ccyp2Aek.s:345    .text.dhcpd_add_option.isra.0:0000000000000050 .LVL38
C:\Users\stapi\AppData\Local\Temp\ccyp2Aek.s:296    .text.dhcpd_add_option.isra.0:000000000000000e .LVL32
C:\Users\stapi\AppData\Local\Temp\ccyp2Aek.s:301    .text.dhcpd_add_option.isra.0:0000000000000014 .LVL33
C:\Users\stapi\AppData\Local\Temp\ccyp2Aek.s:312    .text.dhcpd_add_option.isra.0:0000000000000022 .LVL34
C:\Users\stapi\AppData\Local\Temp\ccyp2Aek.s:383    .text.request.isra.0:0000000000000000 .LVL41
C:\Users\stapi\AppData\Local\Temp\ccyp2Aek.s:409    .text.request.isra.0:0000000000000020 .LVL42
C:\Users\stapi\AppData\Local\Temp\ccyp2Aek.s:445    .text.request.isra.0:0000000000000060 .LVL48
C:\Users\stapi\AppData\Local\Temp\ccyp2Aek.s:449    .text.request.isra.0:0000000000000066 .LVL49
C:\Users\stapi\AppData\Local\Temp\ccyp2Aek.s:796    .text.make_dhcpd_packet.constprop.0:0000000000000000 .LVL66
C:\Users\stapi\AppData\Local\Temp\ccyp2Aek.s:818    .text.make_dhcpd_packet.constprop.0:0000000000000022 .LVL67
C:\Users\stapi\AppData\Local\Temp\ccyp2Aek.s:820    .text.make_dhcpd_packet.constprop.0:0000000000000026 .LVL68
C:\Users\stapi\AppData\Local\Temp\ccyp2Aek.s:1113   .text.dhcp_process:0000000000000000 .LVL95
C:\Users\stapi\AppData\Local\Temp\ccyp2Aek.s:1154   .text.dhcp_process:0000000000000034 .LVL97
C:\Users\stapi\AppData\Local\Temp\ccyp2Aek.s:1381   .text.dhcp_process:0000000000000182 .LVL125
C:\Users\stapi\AppData\Local\Temp\ccyp2Aek.s:1407   .text.dhcp_process:000000000000018e .LVL126
C:\Users\stapi\AppData\Local\Temp\ccyp2Aek.s:1421   .text.dhcp_process:0000000000000198 .LVL130
C:\Users\stapi\AppData\Local\Temp\ccyp2Aek.s:1263   .text.dhcp_process:00000000000000de .LVL110
C:\Users\stapi\AppData\Local\Temp\ccyp2Aek.s:1291   .text.dhcp_process:00000000000000fa .LVL114
C:\Users\stapi\AppData\Local\Temp\ccyp2Aek.s:1316   .text.dhcp_process:000000000000010c .LVL118
C:\Users\stapi\AppData\Local\Temp\ccyp2Aek.s:1350   .text.dhcp_process:0000000000000142 .LVL122
C:\Users\stapi\AppData\Local\Temp\ccyp2Aek.s:1280   .text.dhcp_process:00000000000000ee .LVL112
C:\Users\stapi\AppData\Local\Temp\ccyp2Aek.s:1288   .text.dhcp_process:00000000000000f4 .LVL113
C:\Users\stapi\AppData\Local\Temp\ccyp2Aek.s:1333   .text.dhcp_process:0000000000000122 .LVL119
C:\Users\stapi\AppData\Local\Temp\ccyp2Aek.s:1338   .text.dhcp_process:000000000000012a .LVL120
C:\Users\stapi\AppData\Local\Temp\ccyp2Aek.s:1417   .text.dhcp_process:0000000000000192 .LVL128
C:\Users\stapi\AppData\Local\Temp\ccyp2Aek.s:1419   .text.dhcp_process:0000000000000196 .LVL129
C:\Users\stapi\AppData\Local\Temp\ccyp2Aek.s:1187   .text.dhcp_process:0000000000000074 .LVL101
C:\Users\stapi\AppData\Local\Temp\ccyp2Aek.s:1209   .text.dhcp_process:0000000000000092 .LVL104
C:\Users\stapi\AppData\Local\Temp\ccyp2Aek.s:1275   .text.dhcp_process:00000000000000e8 .LVL111
C:\Users\stapi\AppData\Local\Temp\ccyp2Aek.s:1196   .text.dhcp_process:0000000000000076 .LVL102
C:\Users\stapi\AppData\Local\Temp\ccyp2Aek.s:1249   .text.dhcp_process:00000000000000d4 .LVL108
C:\Users\stapi\AppData\Local\Temp\ccyp2Aek.s:1258   .text.dhcp_process:00000000000000da .LVL109
C:\Users\stapi\AppData\Local\Temp\ccyp2Aek.s:1307   .text.dhcp_process:0000000000000108 .LVL116
C:\Users\stapi\AppData\Local\Temp\ccyp2Aek.s:1492   .text.UDP_Receive:0000000000000000 .LVL133
C:\Users\stapi\AppData\Local\Temp\ccyp2Aek.s:1504   .text.UDP_Receive:000000000000000a .LVL134
C:\Users\stapi\AppData\Local\Temp\ccyp2Aek.s:1517   .text.UDP_Receive:0000000000000022 .LVL136
C:\Users\stapi\AppData\Local\Temp\ccyp2Aek.s:1537   .text.UDP_Receive:0000000000000044 .LVL139
C:\Users\stapi\AppData\Local\Temp\ccyp2Aek.s:2012   .debug_info:0000000000000000 .Ldebug_info0
C:\Users\stapi\AppData\Local\Temp\ccyp2Aek.s:1384   .text.dhcp_process:0000000000000182 .LBE10
C:\Users\stapi\AppData\Local\Temp\ccyp2Aek.s:1410   .text.dhcp_process:000000000000018e .LBB26
C:\Users\stapi\AppData\Local\Temp\ccyp2Aek.s:1424   .text.dhcp_process:0000000000000198 .LBE26
C:\Users\stapi\AppData\Local\Temp\ccyp2Aek.s:1268   .text.dhcp_process:00000000000000de .LBE12
C:\Users\stapi\AppData\Local\Temp\ccyp2Aek.s:1293   .text.dhcp_process:00000000000000fa .LBB21
C:\Users\stapi\AppData\Local\Temp\ccyp2Aek.s:1319   .text.dhcp_process:000000000000010c .LBE21
C:\Users\stapi\AppData\Local\Temp\ccyp2Aek.s:1246   .text.dhcp_process:00000000000000d2 .LBE14
C:\Users\stapi\AppData\Local\Temp\ccyp2Aek.s:1251   .text.dhcp_process:00000000000000d4 .LBB18
C:\Users\stapi\AppData\Local\Temp\ccyp2Aek.s:1266   .text.dhcp_process:00000000000000de .LBE18
C:\Users\stapi\AppData\Local\Temp\ccyp2Aek.s:1295   .text.dhcp_process:00000000000000fa .LBB19
C:\Users\stapi\AppData\Local\Temp\ccyp2Aek.s:1310   .text.dhcp_process:0000000000000108 .LBE19
C:\Users\stapi\AppData\Local\Temp\ccyp2Aek.s:1392   .text.dhcp_process:0000000000000184 .LBE23
C:\Users\stapi\AppData\Local\Temp\ccyp2Aek.s:1425   .text.dhcp_process:0000000000000198 .LBB27
C:\Users\stapi\AppData\Local\Temp\ccyp2Aek.s:1481   .text.dhcp_process:0000000000000200 .LBE27

UNDEFINED SYMBOLS
__riscv_save_5
__riscv_restore_5
memcmp
__riscv_save_1
sys_memcpy
__riscv_restore_1
__riscv_save_2
__riscv_restore_2
__riscv_save_7
memset
lwip_htonl
strlen
global_debug_level
co_printf
__riscv_restore_7
__riscv_save_4
__riscv_restore_4
__riscv_save_0
__riscv_restore_0
memcpy
pbuf_alloc
udp_sendto
pbuf_free
__riscv_save_3
udp_new
ip_addr_any
udp_bind
udp_bind_netif
udp_recv
__riscv_restore_3
udp_remove
